   1              		.file	"awss_reset.c"
   2              		.option nopic
   3              		.attribute arch, "rv32i2p0_m2p0_a2p0_f2p0_c2p0_b_p0p94"
   4              		.attribute unaligned_access, 0
   5              		.attribute stack_align, 16
   6              		.text
   7              	.Ltext0:
   8              		.cfi_sections	.debug_frame
   9              		.section	.rodata.awss_report_reset_to_cloud.str1.4,"aMS",@progbits,1
  10              		.align	2
  11              	.LC0:
  12 0000 616C7265 		.string	"already reset"
  12      61647920 
  12      72657365 
  12      7400
  13 000e 0000     		.align	2
  14              	.LC1:
  15 0010 7265706F 		.string	"report_rst"
  15      72745F72 
  15      737400
  16 001b 00       		.align	2
  17              	.LC2:
  18 001c 746F7069 		.string	"topic malloc fail"
  18      63206D61 
  18      6C6C6F63 
  18      20666169 
  18      6C00
  19 002e 0000     		.align	2
  20              	.LC3:
  21 0030 2F737973 		.string	"/sys/%s/%s/thing/reset_reply"
  21      2F25732F 
  21      25732F74 
  21      68696E67 
  21      2F726573 
  22 004d 000000   		.align	2
  23              	.LC4:
  24 0050 61777373 		.string	"awss reset reply sub fail"
  24      20726573 
  24      65742072 
  24      65706C79 
  24      20737562 
  25 006a 0000     		.align	2
  26              	.LC5:
  27 006c 2F737973 		.string	"/sys/%s/%s/thing/reset"
  27      2F25732F 
  27      25732F74 
  27      68696E67 
  27      2F726573 
  28 0083 00       		.align	2
  29              	.LC6:
  30 0084 61777373 		.string	"awss reset malloc fail"
  30      20726573 
  30      6574206D 
  30      616C6C6F 
  30      63206661 
  31 009b 00       		.align	2
  32              	.LC7:
  33 009c 22257522 		.string	"\"%u\""
  33      00
  34 00a1 000000   		.align	2
  35              	.LC8:
  36 00a4 7468696E 		.string	"thing.reset"
  36      672E7265 
  36      73657400 
  37              		.align	2
  38              	.LC9:
  39 00b0 7B226964 		.string	"{\"id\":%s, \"version\":\"1.0\", \"method\":\"%s\", \"params\":{\"resetKey\":{\"devReset\
  39      223A2573 
  39      2C202276 
  39      65727369 
  39      6F6E223A 
  40 0103 00       		.align	2
  41              	.LC10:
  42 0104 72657365 		.string	"reset_type=%d, report reset:%s\r\n"
  42      745F7479 
  42      70653D25 
  42      642C2072 
  42      65706F72 
  43 0125 000000   		.align	2
  44              	.LC11:
  45 0128 5B525354 		.string	"[RST]"
  45      5D00
  46 012e 0000     		.align	2
  47              	.LC12:
  48 0130 7265706F 		.string	"report reset result:%d\r\n"
  48      72742072 
  48      65736574 
  48      20726573 
  48      756C743A 
  49              		.section	.text.awss_report_reset_to_cloud,"ax",@progbits
  50              		.align	1
  51              		.globl	awss_report_reset_to_cloud
  53              	awss_report_reset_to_cloud:
  54              	.LFB22:
  55              		.file 1 "C:/Users/stapi/OneDrive/Desktop/GD32VW553/V1_MQTT_OK/GD32VW55X_Wifi_BLE_SDK/GD32VW55x_REL
   1:C:/Users/stapi/OneDrive/Desktop/GD32VW553/V1_MQTT_OK/GD32VW55X_Wifi_BLE_SDK/GD32VW55x_RELEASE_V1.0.2/MSDK/cloud/alicloud/src/services/linkkit/dev_reset\awss_reset.c **** /*
   2:C:/Users/stapi/OneDrive/Desktop/GD32VW553/V1_MQTT_OK/GD32VW55X_Wifi_BLE_SDK/GD32VW55x_RELEASE_V1.0.2/MSDK/cloud/alicloud/src/services/linkkit/dev_reset\awss_reset.c ****  * Copyright (C) 2015-2018 Alibaba Group Holding Limited
   3:C:/Users/stapi/OneDrive/Desktop/GD32VW553/V1_MQTT_OK/GD32VW55X_Wifi_BLE_SDK/GD32VW55x_RELEASE_V1.0.2/MSDK/cloud/alicloud/src/services/linkkit/dev_reset\awss_reset.c ****  */
   4:C:/Users/stapi/OneDrive/Desktop/GD32VW553/V1_MQTT_OK/GD32VW55X_Wifi_BLE_SDK/GD32VW55x_RELEASE_V1.0.2/MSDK/cloud/alicloud/src/services/linkkit/dev_reset\awss_reset.c **** 
   5:C:/Users/stapi/OneDrive/Desktop/GD32VW553/V1_MQTT_OK/GD32VW55X_Wifi_BLE_SDK/GD32VW55x_RELEASE_V1.0.2/MSDK/cloud/alicloud/src/services/linkkit/dev_reset\awss_reset.c **** #include <stdio.h>
   6:C:/Users/stapi/OneDrive/Desktop/GD32VW553/V1_MQTT_OK/GD32VW55X_Wifi_BLE_SDK/GD32VW55x_RELEASE_V1.0.2/MSDK/cloud/alicloud/src/services/linkkit/dev_reset\awss_reset.c **** #include <string.h>
   7:C:/Users/stapi/OneDrive/Desktop/GD32VW553/V1_MQTT_OK/GD32VW55X_Wifi_BLE_SDK/GD32VW55x_RELEASE_V1.0.2/MSDK/cloud/alicloud/src/services/linkkit/dev_reset\awss_reset.c **** #include "iot_export.h"
   8:C:/Users/stapi/OneDrive/Desktop/GD32VW553/V1_MQTT_OK/GD32VW55X_Wifi_BLE_SDK/GD32VW55x_RELEASE_V1.0.2/MSDK/cloud/alicloud/src/services/linkkit/dev_reset\awss_reset.c **** #include "iot_import.h"
   9:C:/Users/stapi/OneDrive/Desktop/GD32VW553/V1_MQTT_OK/GD32VW55X_Wifi_BLE_SDK/GD32VW55x_RELEASE_V1.0.2/MSDK/cloud/alicloud/src/services/linkkit/dev_reset\awss_reset.c **** #include "iotx_utils.h"
  10:C:/Users/stapi/OneDrive/Desktop/GD32VW553/V1_MQTT_OK/GD32VW55X_Wifi_BLE_SDK/GD32VW55x_RELEASE_V1.0.2/MSDK/cloud/alicloud/src/services/linkkit/dev_reset\awss_reset.c **** #include "iotx_system.h"
  11:C:/Users/stapi/OneDrive/Desktop/GD32VW553/V1_MQTT_OK/GD32VW55X_Wifi_BLE_SDK/GD32VW55x_RELEASE_V1.0.2/MSDK/cloud/alicloud/src/services/linkkit/dev_reset\awss_reset.c **** #include "iotx_log.h"
  12:C:/Users/stapi/OneDrive/Desktop/GD32VW553/V1_MQTT_OK/GD32VW55X_Wifi_BLE_SDK/GD32VW55x_RELEASE_V1.0.2/MSDK/cloud/alicloud/src/services/linkkit/dev_reset\awss_reset.c **** #include "awss_reset.h"
  13:C:/Users/stapi/OneDrive/Desktop/GD32VW553/V1_MQTT_OK/GD32VW55X_Wifi_BLE_SDK/GD32VW55x_RELEASE_V1.0.2/MSDK/cloud/alicloud/src/services/linkkit/dev_reset\awss_reset.c **** #include "awss_reset_statis.h"
  14:C:/Users/stapi/OneDrive/Desktop/GD32VW553/V1_MQTT_OK/GD32VW55X_Wifi_BLE_SDK/GD32VW55x_RELEASE_V1.0.2/MSDK/cloud/alicloud/src/services/linkkit/dev_reset\awss_reset.c **** 
  15:C:/Users/stapi/OneDrive/Desktop/GD32VW553/V1_MQTT_OK/GD32VW55X_Wifi_BLE_SDK/GD32VW55x_RELEASE_V1.0.2/MSDK/cloud/alicloud/src/services/linkkit/dev_reset\awss_reset.c **** #if defined(__cplusplus)  /* If this is a C++ compiler, use C linkage */
  16:C:/Users/stapi/OneDrive/Desktop/GD32VW553/V1_MQTT_OK/GD32VW55X_Wifi_BLE_SDK/GD32VW55x_RELEASE_V1.0.2/MSDK/cloud/alicloud/src/services/linkkit/dev_reset\awss_reset.c **** extern "C" {
  17:C:/Users/stapi/OneDrive/Desktop/GD32VW553/V1_MQTT_OK/GD32VW55X_Wifi_BLE_SDK/GD32VW55x_RELEASE_V1.0.2/MSDK/cloud/alicloud/src/services/linkkit/dev_reset\awss_reset.c **** #endif
  18:C:/Users/stapi/OneDrive/Desktop/GD32VW553/V1_MQTT_OK/GD32VW55X_Wifi_BLE_SDK/GD32VW55x_RELEASE_V1.0.2/MSDK/cloud/alicloud/src/services/linkkit/dev_reset\awss_reset.c **** 
  19:C:/Users/stapi/OneDrive/Desktop/GD32VW553/V1_MQTT_OK/GD32VW55X_Wifi_BLE_SDK/GD32VW55x_RELEASE_V1.0.2/MSDK/cloud/alicloud/src/services/linkkit/dev_reset\awss_reset.c **** #define AWSS_RESET_MALLOC(size) LITE_malloc(size, MEM_MAGIC, "dev_reset")
  20:C:/Users/stapi/OneDrive/Desktop/GD32VW553/V1_MQTT_OK/GD32VW55X_Wifi_BLE_SDK/GD32VW55x_RELEASE_V1.0.2/MSDK/cloud/alicloud/src/services/linkkit/dev_reset\awss_reset.c **** #define AWSS_RESET_FREE(ptr)    LITE_free(ptr)
  21:C:/Users/stapi/OneDrive/Desktop/GD32VW553/V1_MQTT_OK/GD32VW55X_Wifi_BLE_SDK/GD32VW55x_RELEASE_V1.0.2/MSDK/cloud/alicloud/src/services/linkkit/dev_reset\awss_reset.c **** 
  22:C:/Users/stapi/OneDrive/Desktop/GD32VW553/V1_MQTT_OK/GD32VW55X_Wifi_BLE_SDK/GD32VW55x_RELEASE_V1.0.2/MSDK/cloud/alicloud/src/services/linkkit/dev_reset\awss_reset.c **** static uint8_t awss_report_reset_suc = 0;
  23:C:/Users/stapi/OneDrive/Desktop/GD32VW553/V1_MQTT_OK/GD32VW55X_Wifi_BLE_SDK/GD32VW55x_RELEASE_V1.0.2/MSDK/cloud/alicloud/src/services/linkkit/dev_reset\awss_reset.c **** static uint16_t awss_report_reset_id = 0;
  24:C:/Users/stapi/OneDrive/Desktop/GD32VW553/V1_MQTT_OK/GD32VW55X_Wifi_BLE_SDK/GD32VW55x_RELEASE_V1.0.2/MSDK/cloud/alicloud/src/services/linkkit/dev_reset\awss_reset.c **** static void *report_reset_timer = NULL;
  25:C:/Users/stapi/OneDrive/Desktop/GD32VW553/V1_MQTT_OK/GD32VW55X_Wifi_BLE_SDK/GD32VW55x_RELEASE_V1.0.2/MSDK/cloud/alicloud/src/services/linkkit/dev_reset\awss_reset.c **** 
  26:C:/Users/stapi/OneDrive/Desktop/GD32VW553/V1_MQTT_OK/GD32VW55X_Wifi_BLE_SDK/GD32VW55x_RELEASE_V1.0.2/MSDK/cloud/alicloud/src/services/linkkit/dev_reset\awss_reset.c **** iotx_vendor_dev_reset_type_t g_reset_type = IOTX_VENDOR_DEV_RESET_TYPE_UNBIND_SHADOW_CLEAR;
  27:C:/Users/stapi/OneDrive/Desktop/GD32VW553/V1_MQTT_OK/GD32VW55X_Wifi_BLE_SDK/GD32VW55x_RELEASE_V1.0.2/MSDK/cloud/alicloud/src/services/linkkit/dev_reset\awss_reset.c **** 
  28:C:/Users/stapi/OneDrive/Desktop/GD32VW553/V1_MQTT_OK/GD32VW55X_Wifi_BLE_SDK/GD32VW55x_RELEASE_V1.0.2/MSDK/cloud/alicloud/src/services/linkkit/dev_reset\awss_reset.c **** int awss_handle_reset_cloud_reply(void)
  29:C:/Users/stapi/OneDrive/Desktop/GD32VW553/V1_MQTT_OK/GD32VW55X_Wifi_BLE_SDK/GD32VW55x_RELEASE_V1.0.2/MSDK/cloud/alicloud/src/services/linkkit/dev_reset\awss_reset.c **** {
  30:C:/Users/stapi/OneDrive/Desktop/GD32VW553/V1_MQTT_OK/GD32VW55X_Wifi_BLE_SDK/GD32VW55x_RELEASE_V1.0.2/MSDK/cloud/alicloud/src/services/linkkit/dev_reset\awss_reset.c ****     awss_report_reset_suc = 1;
  31:C:/Users/stapi/OneDrive/Desktop/GD32VW553/V1_MQTT_OK/GD32VW55X_Wifi_BLE_SDK/GD32VW55x_RELEASE_V1.0.2/MSDK/cloud/alicloud/src/services/linkkit/dev_reset\awss_reset.c ****     HAL_Kv_Del(AWSS_KV_RST);
  32:C:/Users/stapi/OneDrive/Desktop/GD32VW553/V1_MQTT_OK/GD32VW55X_Wifi_BLE_SDK/GD32VW55x_RELEASE_V1.0.2/MSDK/cloud/alicloud/src/services/linkkit/dev_reset\awss_reset.c ****     HAL_Kv_Del(AWSS_KV_RST_TYPE);
  33:C:/Users/stapi/OneDrive/Desktop/GD32VW553/V1_MQTT_OK/GD32VW55X_Wifi_BLE_SDK/GD32VW55x_RELEASE_V1.0.2/MSDK/cloud/alicloud/src/services/linkkit/dev_reset\awss_reset.c **** 
  34:C:/Users/stapi/OneDrive/Desktop/GD32VW553/V1_MQTT_OK/GD32VW55X_Wifi_BLE_SDK/GD32VW55x_RELEASE_V1.0.2/MSDK/cloud/alicloud/src/services/linkkit/dev_reset\awss_reset.c ****     if (report_reset_timer)
  35:C:/Users/stapi/OneDrive/Desktop/GD32VW553/V1_MQTT_OK/GD32VW55X_Wifi_BLE_SDK/GD32VW55x_RELEASE_V1.0.2/MSDK/cloud/alicloud/src/services/linkkit/dev_reset\awss_reset.c ****     {
  36:C:/Users/stapi/OneDrive/Desktop/GD32VW553/V1_MQTT_OK/GD32VW55X_Wifi_BLE_SDK/GD32VW55x_RELEASE_V1.0.2/MSDK/cloud/alicloud/src/services/linkkit/dev_reset\awss_reset.c ****         HAL_Timer_Stop(report_reset_timer);
  37:C:/Users/stapi/OneDrive/Desktop/GD32VW553/V1_MQTT_OK/GD32VW55X_Wifi_BLE_SDK/GD32VW55x_RELEASE_V1.0.2/MSDK/cloud/alicloud/src/services/linkkit/dev_reset\awss_reset.c ****         HAL_Timer_Delete(report_reset_timer);
  38:C:/Users/stapi/OneDrive/Desktop/GD32VW553/V1_MQTT_OK/GD32VW55X_Wifi_BLE_SDK/GD32VW55x_RELEASE_V1.0.2/MSDK/cloud/alicloud/src/services/linkkit/dev_reset\awss_reset.c ****         report_reset_timer = NULL;
  39:C:/Users/stapi/OneDrive/Desktop/GD32VW553/V1_MQTT_OK/GD32VW55X_Wifi_BLE_SDK/GD32VW55x_RELEASE_V1.0.2/MSDK/cloud/alicloud/src/services/linkkit/dev_reset\awss_reset.c ****     }
  40:C:/Users/stapi/OneDrive/Desktop/GD32VW553/V1_MQTT_OK/GD32VW55X_Wifi_BLE_SDK/GD32VW55x_RELEASE_V1.0.2/MSDK/cloud/alicloud/src/services/linkkit/dev_reset\awss_reset.c **** 
  41:C:/Users/stapi/OneDrive/Desktop/GD32VW553/V1_MQTT_OK/GD32VW55X_Wifi_BLE_SDK/GD32VW55x_RELEASE_V1.0.2/MSDK/cloud/alicloud/src/services/linkkit/dev_reset\awss_reset.c ****     AWSS_RST_UPDATE_STATIS(AWSS_RST_STATIS_SUC);
  42:C:/Users/stapi/OneDrive/Desktop/GD32VW553/V1_MQTT_OK/GD32VW55X_Wifi_BLE_SDK/GD32VW55x_RELEASE_V1.0.2/MSDK/cloud/alicloud/src/services/linkkit/dev_reset\awss_reset.c **** 
  43:C:/Users/stapi/OneDrive/Desktop/GD32VW553/V1_MQTT_OK/GD32VW55X_Wifi_BLE_SDK/GD32VW55x_RELEASE_V1.0.2/MSDK/cloud/alicloud/src/services/linkkit/dev_reset\awss_reset.c ****     iotx_event_post(IOTX_RESET);  // for old version of event
  44:C:/Users/stapi/OneDrive/Desktop/GD32VW553/V1_MQTT_OK/GD32VW55X_Wifi_BLE_SDK/GD32VW55x_RELEASE_V1.0.2/MSDK/cloud/alicloud/src/services/linkkit/dev_reset\awss_reset.c ****     do {  // for new version of event
  45:C:/Users/stapi/OneDrive/Desktop/GD32VW553/V1_MQTT_OK/GD32VW55X_Wifi_BLE_SDK/GD32VW55x_RELEASE_V1.0.2/MSDK/cloud/alicloud/src/services/linkkit/dev_reset\awss_reset.c ****         void *cb = NULL;
  46:C:/Users/stapi/OneDrive/Desktop/GD32VW553/V1_MQTT_OK/GD32VW55X_Wifi_BLE_SDK/GD32VW55x_RELEASE_V1.0.2/MSDK/cloud/alicloud/src/services/linkkit/dev_reset\awss_reset.c ****         cb = (void *)iotx_event_callback(ITE_AWSS_STATUS);
  47:C:/Users/stapi/OneDrive/Desktop/GD32VW553/V1_MQTT_OK/GD32VW55X_Wifi_BLE_SDK/GD32VW55x_RELEASE_V1.0.2/MSDK/cloud/alicloud/src/services/linkkit/dev_reset\awss_reset.c ****         if (cb == NULL) break;
  48:C:/Users/stapi/OneDrive/Desktop/GD32VW553/V1_MQTT_OK/GD32VW55X_Wifi_BLE_SDK/GD32VW55x_RELEASE_V1.0.2/MSDK/cloud/alicloud/src/services/linkkit/dev_reset\awss_reset.c ****         ((int (*)(int))cb)(IOTX_RESET);
  49:C:/Users/stapi/OneDrive/Desktop/GD32VW553/V1_MQTT_OK/GD32VW55X_Wifi_BLE_SDK/GD32VW55x_RELEASE_V1.0.2/MSDK/cloud/alicloud/src/services/linkkit/dev_reset\awss_reset.c ****     } while (0);
  50:C:/Users/stapi/OneDrive/Desktop/GD32VW553/V1_MQTT_OK/GD32VW55X_Wifi_BLE_SDK/GD32VW55x_RELEASE_V1.0.2/MSDK/cloud/alicloud/src/services/linkkit/dev_reset\awss_reset.c **** 
  51:C:/Users/stapi/OneDrive/Desktop/GD32VW553/V1_MQTT_OK/GD32VW55X_Wifi_BLE_SDK/GD32VW55x_RELEASE_V1.0.2/MSDK/cloud/alicloud/src/services/linkkit/dev_reset\awss_reset.c ****     AWSS_RST_DISP_STATIS();
  52:C:/Users/stapi/OneDrive/Desktop/GD32VW553/V1_MQTT_OK/GD32VW55X_Wifi_BLE_SDK/GD32VW55x_RELEASE_V1.0.2/MSDK/cloud/alicloud/src/services/linkkit/dev_reset\awss_reset.c **** 
  53:C:/Users/stapi/OneDrive/Desktop/GD32VW553/V1_MQTT_OK/GD32VW55X_Wifi_BLE_SDK/GD32VW55x_RELEASE_V1.0.2/MSDK/cloud/alicloud/src/services/linkkit/dev_reset\awss_reset.c ****     return 0;
  54:C:/Users/stapi/OneDrive/Desktop/GD32VW553/V1_MQTT_OK/GD32VW55X_Wifi_BLE_SDK/GD32VW55x_RELEASE_V1.0.2/MSDK/cloud/alicloud/src/services/linkkit/dev_reset\awss_reset.c **** }
  55:C:/Users/stapi/OneDrive/Desktop/GD32VW553/V1_MQTT_OK/GD32VW55X_Wifi_BLE_SDK/GD32VW55x_RELEASE_V1.0.2/MSDK/cloud/alicloud/src/services/linkkit/dev_reset\awss_reset.c **** 
  56:C:/Users/stapi/OneDrive/Desktop/GD32VW553/V1_MQTT_OK/GD32VW55X_Wifi_BLE_SDK/GD32VW55x_RELEASE_V1.0.2/MSDK/cloud/alicloud/src/services/linkkit/dev_reset\awss_reset.c **** static void awss_report_reset_reply(void *pcontext, void *pclient, void *mesg)
  57:C:/Users/stapi/OneDrive/Desktop/GD32VW553/V1_MQTT_OK/GD32VW55X_Wifi_BLE_SDK/GD32VW55x_RELEASE_V1.0.2/MSDK/cloud/alicloud/src/services/linkkit/dev_reset\awss_reset.c **** {
  58:C:/Users/stapi/OneDrive/Desktop/GD32VW553/V1_MQTT_OK/GD32VW55X_Wifi_BLE_SDK/GD32VW55x_RELEASE_V1.0.2/MSDK/cloud/alicloud/src/services/linkkit/dev_reset\awss_reset.c ****     char rst = 0;
  59:C:/Users/stapi/OneDrive/Desktop/GD32VW553/V1_MQTT_OK/GD32VW55X_Wifi_BLE_SDK/GD32VW55x_RELEASE_V1.0.2/MSDK/cloud/alicloud/src/services/linkkit/dev_reset\awss_reset.c **** 
  60:C:/Users/stapi/OneDrive/Desktop/GD32VW553/V1_MQTT_OK/GD32VW55X_Wifi_BLE_SDK/GD32VW55x_RELEASE_V1.0.2/MSDK/cloud/alicloud/src/services/linkkit/dev_reset\awss_reset.c ****     iotx_mqtt_event_msg_pt msg = (iotx_mqtt_event_msg_pt)mesg;
  61:C:/Users/stapi/OneDrive/Desktop/GD32VW553/V1_MQTT_OK/GD32VW55X_Wifi_BLE_SDK/GD32VW55x_RELEASE_V1.0.2/MSDK/cloud/alicloud/src/services/linkkit/dev_reset\awss_reset.c **** 
  62:C:/Users/stapi/OneDrive/Desktop/GD32VW553/V1_MQTT_OK/GD32VW55X_Wifi_BLE_SDK/GD32VW55x_RELEASE_V1.0.2/MSDK/cloud/alicloud/src/services/linkkit/dev_reset\awss_reset.c ****     switch (msg->event_type) {
  63:C:/Users/stapi/OneDrive/Desktop/GD32VW553/V1_MQTT_OK/GD32VW55X_Wifi_BLE_SDK/GD32VW55x_RELEASE_V1.0.2/MSDK/cloud/alicloud/src/services/linkkit/dev_reset\awss_reset.c ****         case IOTX_MQTT_EVENT_PUBLISH_RECEIVED:
  64:C:/Users/stapi/OneDrive/Desktop/GD32VW553/V1_MQTT_OK/GD32VW55X_Wifi_BLE_SDK/GD32VW55x_RELEASE_V1.0.2/MSDK/cloud/alicloud/src/services/linkkit/dev_reset\awss_reset.c ****             break;
  65:C:/Users/stapi/OneDrive/Desktop/GD32VW553/V1_MQTT_OK/GD32VW55X_Wifi_BLE_SDK/GD32VW55x_RELEASE_V1.0.2/MSDK/cloud/alicloud/src/services/linkkit/dev_reset\awss_reset.c ****         default:
  66:C:/Users/stapi/OneDrive/Desktop/GD32VW553/V1_MQTT_OK/GD32VW55X_Wifi_BLE_SDK/GD32VW55x_RELEASE_V1.0.2/MSDK/cloud/alicloud/src/services/linkkit/dev_reset\awss_reset.c ****             return;
  67:C:/Users/stapi/OneDrive/Desktop/GD32VW553/V1_MQTT_OK/GD32VW55X_Wifi_BLE_SDK/GD32VW55x_RELEASE_V1.0.2/MSDK/cloud/alicloud/src/services/linkkit/dev_reset\awss_reset.c ****     }
  68:C:/Users/stapi/OneDrive/Desktop/GD32VW553/V1_MQTT_OK/GD32VW55X_Wifi_BLE_SDK/GD32VW55x_RELEASE_V1.0.2/MSDK/cloud/alicloud/src/services/linkkit/dev_reset\awss_reset.c **** 
  69:C:/Users/stapi/OneDrive/Desktop/GD32VW553/V1_MQTT_OK/GD32VW55X_Wifi_BLE_SDK/GD32VW55x_RELEASE_V1.0.2/MSDK/cloud/alicloud/src/services/linkkit/dev_reset\awss_reset.c ****     log_info("[RST]", "got cloud reset reply");
  70:C:/Users/stapi/OneDrive/Desktop/GD32VW553/V1_MQTT_OK/GD32VW55X_Wifi_BLE_SDK/GD32VW55x_RELEASE_V1.0.2/MSDK/cloud/alicloud/src/services/linkkit/dev_reset\awss_reset.c **** 
  71:C:/Users/stapi/OneDrive/Desktop/GD32VW553/V1_MQTT_OK/GD32VW55X_Wifi_BLE_SDK/GD32VW55x_RELEASE_V1.0.2/MSDK/cloud/alicloud/src/services/linkkit/dev_reset\awss_reset.c ****     awss_handle_reset_cloud_reply();
  72:C:/Users/stapi/OneDrive/Desktop/GD32VW553/V1_MQTT_OK/GD32VW55X_Wifi_BLE_SDK/GD32VW55x_RELEASE_V1.0.2/MSDK/cloud/alicloud/src/services/linkkit/dev_reset\awss_reset.c **** }
  73:C:/Users/stapi/OneDrive/Desktop/GD32VW553/V1_MQTT_OK/GD32VW55X_Wifi_BLE_SDK/GD32VW55x_RELEASE_V1.0.2/MSDK/cloud/alicloud/src/services/linkkit/dev_reset\awss_reset.c **** 
  74:C:/Users/stapi/OneDrive/Desktop/GD32VW553/V1_MQTT_OK/GD32VW55X_Wifi_BLE_SDK/GD32VW55x_RELEASE_V1.0.2/MSDK/cloud/alicloud/src/services/linkkit/dev_reset\awss_reset.c **** int awss_report_reset_to_cloud(iotx_vendor_dev_reset_type_t *reset_type)
  75:C:/Users/stapi/OneDrive/Desktop/GD32VW553/V1_MQTT_OK/GD32VW55X_Wifi_BLE_SDK/GD32VW55x_RELEASE_V1.0.2/MSDK/cloud/alicloud/src/services/linkkit/dev_reset\awss_reset.c **** {
  56              		.loc 1 75 1
  57              		.cfi_startproc
  58              	.LVL0:
  59 0000 17030000 		call	t0,__riscv_save_5
  59      E7020300 
  60              		.cfi_offset 20, -24
  61              		.cfi_offset 19, -20
  62              		.cfi_offset 18, -16
  63              		.cfi_offset 9, -12
  64              		.cfi_offset 8, -8
  65              		.cfi_offset 1, -4
  66              		.cfi_def_cfa_offset 32
  76:C:/Users/stapi/OneDrive/Desktop/GD32VW553/V1_MQTT_OK/GD32VW55X_Wifi_BLE_SDK/GD32VW55x_RELEASE_V1.0.2/MSDK/cloud/alicloud/src/services/linkkit/dev_reset\awss_reset.c ****     int ret;
  67              		.loc 1 76 5
  77:C:/Users/stapi/OneDrive/Desktop/GD32VW553/V1_MQTT_OK/GD32VW55X_Wifi_BLE_SDK/GD32VW55x_RELEASE_V1.0.2/MSDK/cloud/alicloud/src/services/linkkit/dev_reset\awss_reset.c ****     int final_len = 0;
  68              		.loc 1 77 5
  69              	.LVL1:
  78:C:/Users/stapi/OneDrive/Desktop/GD32VW553/V1_MQTT_OK/GD32VW55X_Wifi_BLE_SDK/GD32VW55x_RELEASE_V1.0.2/MSDK/cloud/alicloud/src/services/linkkit/dev_reset\awss_reset.c ****     char *topic = NULL;
  70              		.loc 1 78 5
  79:C:/Users/stapi/OneDrive/Desktop/GD32VW553/V1_MQTT_OK/GD32VW55X_Wifi_BLE_SDK/GD32VW55x_RELEASE_V1.0.2/MSDK/cloud/alicloud/src/services/linkkit/dev_reset\awss_reset.c ****     char *packet = NULL;
  71              		.loc 1 79 5
  80:C:/Users/stapi/OneDrive/Desktop/GD32VW553/V1_MQTT_OK/GD32VW55X_Wifi_BLE_SDK/GD32VW55x_RELEASE_V1.0.2/MSDK/cloud/alicloud/src/services/linkkit/dev_reset\awss_reset.c ****     int packet_len = AWSS_RESET_PKT_LEN;
  72              		.loc 1 80 5
  81:C:/Users/stapi/OneDrive/Desktop/GD32VW553/V1_MQTT_OK/GD32VW55X_Wifi_BLE_SDK/GD32VW55x_RELEASE_V1.0.2/MSDK/cloud/alicloud/src/services/linkkit/dev_reset\awss_reset.c ****     int topic_len = AWSS_RESET_TOPIC_LEN;
  73              		.loc 1 81 5
  82:C:/Users/stapi/OneDrive/Desktop/GD32VW553/V1_MQTT_OK/GD32VW55X_Wifi_BLE_SDK/GD32VW55x_RELEASE_V1.0.2/MSDK/cloud/alicloud/src/services/linkkit/dev_reset\awss_reset.c **** 
  83:C:/Users/stapi/OneDrive/Desktop/GD32VW553/V1_MQTT_OK/GD32VW55X_Wifi_BLE_SDK/GD32VW55x_RELEASE_V1.0.2/MSDK/cloud/alicloud/src/services/linkkit/dev_reset\awss_reset.c ****     if (awss_report_reset_suc) {
  74              		.loc 1 83 5
  75              		.loc 1 83 8 is_stmt 0
  76 0008 B7070000 		lui	a5,%hi(.LANCHOR0)
  77 000c 83C70700 		lbu	a5,%lo(.LANCHOR0)(a5)
  75:C:/Users/stapi/OneDrive/Desktop/GD32VW553/V1_MQTT_OK/GD32VW55X_Wifi_BLE_SDK/GD32VW55x_RELEASE_V1.0.2/MSDK/cloud/alicloud/src/services/linkkit/dev_reset\awss_reset.c ****     int ret;
  78              		.loc 1 75 1
  79 0010 3971     		addi	sp,sp,-64
  80              		.cfi_def_cfa_offset 96
  81              		.loc 1 83 8
  82 0012 8DC7     		beq	a5,zero,.L2
  84:C:/Users/stapi/OneDrive/Desktop/GD32VW553/V1_MQTT_OK/GD32VW55X_Wifi_BLE_SDK/GD32VW55x_RELEASE_V1.0.2/MSDK/cloud/alicloud/src/services/linkkit/dev_reset\awss_reset.c ****         dump_dev_bind_status(STATE_BIND_ALREADY_RESET, "already reset");
  83              		.loc 1 84 9 is_stmt 1
  84 0014 7D74     		li	s0,-4096
  85 0016 37060000 		lui	a2,%hi(.LC0)
  86 001a 9305F47E 		addi	a1,s0,2031
  87 001e 13060600 		addi	a2,a2,%lo(.LC0)
  88 0022 7D45     		li	a0,31
  89              	.LVL2:
  90 0024 97000000 		call	iotx_state_event
  90      E7800000 
  91              	.LVL3:
  85:C:/Users/stapi/OneDrive/Desktop/GD32VW553/V1_MQTT_OK/GD32VW55X_Wifi_BLE_SDK/GD32VW55x_RELEASE_V1.0.2/MSDK/cloud/alicloud/src/services/linkkit/dev_reset\awss_reset.c ****         return STATE_BIND_ALREADY_RESET;
  92              		.loc 1 85 9
  93              		.loc 1 85 16 is_stmt 0
  94 002c 1304F47E 		addi	s0,s0,2031
  95              	.LVL4:
  96              	.L1:
  86:C:/Users/stapi/OneDrive/Desktop/GD32VW553/V1_MQTT_OK/GD32VW55X_Wifi_BLE_SDK/GD32VW55x_RELEASE_V1.0.2/MSDK/cloud/alicloud/src/services/linkkit/dev_reset\awss_reset.c ****     }
  87:C:/Users/stapi/OneDrive/Desktop/GD32VW553/V1_MQTT_OK/GD32VW55X_Wifi_BLE_SDK/GD32VW55x_RELEASE_V1.0.2/MSDK/cloud/alicloud/src/services/linkkit/dev_reset\awss_reset.c **** 
  88:C:/Users/stapi/OneDrive/Desktop/GD32VW553/V1_MQTT_OK/GD32VW55X_Wifi_BLE_SDK/GD32VW55x_RELEASE_V1.0.2/MSDK/cloud/alicloud/src/services/linkkit/dev_reset\awss_reset.c ****     g_reset_type = *reset_type;
  89:C:/Users/stapi/OneDrive/Desktop/GD32VW553/V1_MQTT_OK/GD32VW55X_Wifi_BLE_SDK/GD32VW55x_RELEASE_V1.0.2/MSDK/cloud/alicloud/src/services/linkkit/dev_reset\awss_reset.c **** 
  90:C:/Users/stapi/OneDrive/Desktop/GD32VW553/V1_MQTT_OK/GD32VW55X_Wifi_BLE_SDK/GD32VW55x_RELEASE_V1.0.2/MSDK/cloud/alicloud/src/services/linkkit/dev_reset\awss_reset.c ****     AWSS_RST_UPDATE_STATIS(AWSS_RST_STATIS_START);
  91:C:/Users/stapi/OneDrive/Desktop/GD32VW553/V1_MQTT_OK/GD32VW55X_Wifi_BLE_SDK/GD32VW55x_RELEASE_V1.0.2/MSDK/cloud/alicloud/src/services/linkkit/dev_reset\awss_reset.c **** 
  92:C:/Users/stapi/OneDrive/Desktop/GD32VW553/V1_MQTT_OK/GD32VW55X_Wifi_BLE_SDK/GD32VW55x_RELEASE_V1.0.2/MSDK/cloud/alicloud/src/services/linkkit/dev_reset\awss_reset.c ****     if (report_reset_timer == NULL) {
  93:C:/Users/stapi/OneDrive/Desktop/GD32VW553/V1_MQTT_OK/GD32VW55X_Wifi_BLE_SDK/GD32VW55x_RELEASE_V1.0.2/MSDK/cloud/alicloud/src/services/linkkit/dev_reset\awss_reset.c ****         report_reset_timer = HAL_Timer_Create("report_rst", (void (*)(void *))awss_report_reset_to_
  94:C:/Users/stapi/OneDrive/Desktop/GD32VW553/V1_MQTT_OK/GD32VW55X_Wifi_BLE_SDK/GD32VW55x_RELEASE_V1.0.2/MSDK/cloud/alicloud/src/services/linkkit/dev_reset\awss_reset.c ****     }
  95:C:/Users/stapi/OneDrive/Desktop/GD32VW553/V1_MQTT_OK/GD32VW55X_Wifi_BLE_SDK/GD32VW55x_RELEASE_V1.0.2/MSDK/cloud/alicloud/src/services/linkkit/dev_reset\awss_reset.c ****     HAL_Timer_Stop(report_reset_timer);
  96:C:/Users/stapi/OneDrive/Desktop/GD32VW553/V1_MQTT_OK/GD32VW55X_Wifi_BLE_SDK/GD32VW55x_RELEASE_V1.0.2/MSDK/cloud/alicloud/src/services/linkkit/dev_reset\awss_reset.c ****     HAL_Timer_Start(report_reset_timer, 3000);
  97:C:/Users/stapi/OneDrive/Desktop/GD32VW553/V1_MQTT_OK/GD32VW55X_Wifi_BLE_SDK/GD32VW55x_RELEASE_V1.0.2/MSDK/cloud/alicloud/src/services/linkkit/dev_reset\awss_reset.c **** 
  98:C:/Users/stapi/OneDrive/Desktop/GD32VW553/V1_MQTT_OK/GD32VW55X_Wifi_BLE_SDK/GD32VW55x_RELEASE_V1.0.2/MSDK/cloud/alicloud/src/services/linkkit/dev_reset\awss_reset.c ****     do {
  99:C:/Users/stapi/OneDrive/Desktop/GD32VW553/V1_MQTT_OK/GD32VW55X_Wifi_BLE_SDK/GD32VW55x_RELEASE_V1.0.2/MSDK/cloud/alicloud/src/services/linkkit/dev_reset\awss_reset.c ****         char pk[PRODUCT_KEY_LEN + 1] = {0};
 100:C:/Users/stapi/OneDrive/Desktop/GD32VW553/V1_MQTT_OK/GD32VW55X_Wifi_BLE_SDK/GD32VW55x_RELEASE_V1.0.2/MSDK/cloud/alicloud/src/services/linkkit/dev_reset\awss_reset.c ****         char dn[DEVICE_NAME_LEN + 1] = {0};
 101:C:/Users/stapi/OneDrive/Desktop/GD32VW553/V1_MQTT_OK/GD32VW55X_Wifi_BLE_SDK/GD32VW55x_RELEASE_V1.0.2/MSDK/cloud/alicloud/src/services/linkkit/dev_reset\awss_reset.c **** 
 102:C:/Users/stapi/OneDrive/Desktop/GD32VW553/V1_MQTT_OK/GD32VW55X_Wifi_BLE_SDK/GD32VW55x_RELEASE_V1.0.2/MSDK/cloud/alicloud/src/services/linkkit/dev_reset\awss_reset.c ****         HAL_GetProductKey(pk);
 103:C:/Users/stapi/OneDrive/Desktop/GD32VW553/V1_MQTT_OK/GD32VW55X_Wifi_BLE_SDK/GD32VW55x_RELEASE_V1.0.2/MSDK/cloud/alicloud/src/services/linkkit/dev_reset\awss_reset.c ****         HAL_GetDeviceName(dn);
 104:C:/Users/stapi/OneDrive/Desktop/GD32VW553/V1_MQTT_OK/GD32VW55X_Wifi_BLE_SDK/GD32VW55x_RELEASE_V1.0.2/MSDK/cloud/alicloud/src/services/linkkit/dev_reset\awss_reset.c **** 
 105:C:/Users/stapi/OneDrive/Desktop/GD32VW553/V1_MQTT_OK/GD32VW55X_Wifi_BLE_SDK/GD32VW55x_RELEASE_V1.0.2/MSDK/cloud/alicloud/src/services/linkkit/dev_reset\awss_reset.c ****         topic = (char *)AWSS_RESET_MALLOC(topic_len + 1);
 106:C:/Users/stapi/OneDrive/Desktop/GD32VW553/V1_MQTT_OK/GD32VW55X_Wifi_BLE_SDK/GD32VW55x_RELEASE_V1.0.2/MSDK/cloud/alicloud/src/services/linkkit/dev_reset\awss_reset.c ****         if (topic == NULL) {
 107:C:/Users/stapi/OneDrive/Desktop/GD32VW553/V1_MQTT_OK/GD32VW55X_Wifi_BLE_SDK/GD32VW55x_RELEASE_V1.0.2/MSDK/cloud/alicloud/src/services/linkkit/dev_reset\awss_reset.c ****             ret = STATE_SYS_DEPEND_MALLOC;
 108:C:/Users/stapi/OneDrive/Desktop/GD32VW553/V1_MQTT_OK/GD32VW55X_Wifi_BLE_SDK/GD32VW55x_RELEASE_V1.0.2/MSDK/cloud/alicloud/src/services/linkkit/dev_reset\awss_reset.c ****             dump_dev_bind_status(STATE_BIND_REPORT_RESET_FAIL, "topic malloc fail");
 109:C:/Users/stapi/OneDrive/Desktop/GD32VW553/V1_MQTT_OK/GD32VW55X_Wifi_BLE_SDK/GD32VW55x_RELEASE_V1.0.2/MSDK/cloud/alicloud/src/services/linkkit/dev_reset\awss_reset.c ****             goto REPORT_RST_ERR;
 110:C:/Users/stapi/OneDrive/Desktop/GD32VW553/V1_MQTT_OK/GD32VW55X_Wifi_BLE_SDK/GD32VW55x_RELEASE_V1.0.2/MSDK/cloud/alicloud/src/services/linkkit/dev_reset\awss_reset.c ****         }
 111:C:/Users/stapi/OneDrive/Desktop/GD32VW553/V1_MQTT_OK/GD32VW55X_Wifi_BLE_SDK/GD32VW55x_RELEASE_V1.0.2/MSDK/cloud/alicloud/src/services/linkkit/dev_reset\awss_reset.c ****         memset(topic, 0, topic_len + 1);
 112:C:/Users/stapi/OneDrive/Desktop/GD32VW553/V1_MQTT_OK/GD32VW55X_Wifi_BLE_SDK/GD32VW55x_RELEASE_V1.0.2/MSDK/cloud/alicloud/src/services/linkkit/dev_reset\awss_reset.c **** 
 113:C:/Users/stapi/OneDrive/Desktop/GD32VW553/V1_MQTT_OK/GD32VW55X_Wifi_BLE_SDK/GD32VW55x_RELEASE_V1.0.2/MSDK/cloud/alicloud/src/services/linkkit/dev_reset\awss_reset.c ****         HAL_Snprintf(topic, topic_len, TOPIC_RESET_REPORT_REPLY, pk, dn);
 114:C:/Users/stapi/OneDrive/Desktop/GD32VW553/V1_MQTT_OK/GD32VW55X_Wifi_BLE_SDK/GD32VW55x_RELEASE_V1.0.2/MSDK/cloud/alicloud/src/services/linkkit/dev_reset\awss_reset.c **** 
 115:C:/Users/stapi/OneDrive/Desktop/GD32VW553/V1_MQTT_OK/GD32VW55X_Wifi_BLE_SDK/GD32VW55x_RELEASE_V1.0.2/MSDK/cloud/alicloud/src/services/linkkit/dev_reset\awss_reset.c **** #ifdef MQTT_AUTO_SUBSCRIBE
 116:C:/Users/stapi/OneDrive/Desktop/GD32VW553/V1_MQTT_OK/GD32VW55X_Wifi_BLE_SDK/GD32VW55x_RELEASE_V1.0.2/MSDK/cloud/alicloud/src/services/linkkit/dev_reset\awss_reset.c ****         ret = IOT_MQTT_Subscribe(NULL, topic, IOTX_MQTT_QOS3_SUB_LOCAL,
 117:C:/Users/stapi/OneDrive/Desktop/GD32VW553/V1_MQTT_OK/GD32VW55X_Wifi_BLE_SDK/GD32VW55x_RELEASE_V1.0.2/MSDK/cloud/alicloud/src/services/linkkit/dev_reset\awss_reset.c ****                                  (iotx_mqtt_event_handle_func_fpt)awss_report_reset_reply, NULL);
 118:C:/Users/stapi/OneDrive/Desktop/GD32VW553/V1_MQTT_OK/GD32VW55X_Wifi_BLE_SDK/GD32VW55x_RELEASE_V1.0.2/MSDK/cloud/alicloud/src/services/linkkit/dev_reset\awss_reset.c **** #else
 119:C:/Users/stapi/OneDrive/Desktop/GD32VW553/V1_MQTT_OK/GD32VW55X_Wifi_BLE_SDK/GD32VW55x_RELEASE_V1.0.2/MSDK/cloud/alicloud/src/services/linkkit/dev_reset\awss_reset.c ****         ret = IOT_MQTT_Subscribe(NULL, topic, IOTX_MQTT_QOS0,
 120:C:/Users/stapi/OneDrive/Desktop/GD32VW553/V1_MQTT_OK/GD32VW55X_Wifi_BLE_SDK/GD32VW55x_RELEASE_V1.0.2/MSDK/cloud/alicloud/src/services/linkkit/dev_reset\awss_reset.c ****                                  (iotx_mqtt_event_handle_func_fpt)awss_report_reset_reply, NULL);
 121:C:/Users/stapi/OneDrive/Desktop/GD32VW553/V1_MQTT_OK/GD32VW55X_Wifi_BLE_SDK/GD32VW55x_RELEASE_V1.0.2/MSDK/cloud/alicloud/src/services/linkkit/dev_reset\awss_reset.c **** #endif
 122:C:/Users/stapi/OneDrive/Desktop/GD32VW553/V1_MQTT_OK/GD32VW55X_Wifi_BLE_SDK/GD32VW55x_RELEASE_V1.0.2/MSDK/cloud/alicloud/src/services/linkkit/dev_reset\awss_reset.c ****         if (ret < 0) {
 123:C:/Users/stapi/OneDrive/Desktop/GD32VW553/V1_MQTT_OK/GD32VW55X_Wifi_BLE_SDK/GD32VW55x_RELEASE_V1.0.2/MSDK/cloud/alicloud/src/services/linkkit/dev_reset\awss_reset.c ****             dump_dev_bind_status(STATE_BIND_REPORT_RESET_FAIL, "awss reset reply sub fail");
 124:C:/Users/stapi/OneDrive/Desktop/GD32VW553/V1_MQTT_OK/GD32VW55X_Wifi_BLE_SDK/GD32VW55x_RELEASE_V1.0.2/MSDK/cloud/alicloud/src/services/linkkit/dev_reset\awss_reset.c ****             goto REPORT_RST_ERR;
 125:C:/Users/stapi/OneDrive/Desktop/GD32VW553/V1_MQTT_OK/GD32VW55X_Wifi_BLE_SDK/GD32VW55x_RELEASE_V1.0.2/MSDK/cloud/alicloud/src/services/linkkit/dev_reset\awss_reset.c ****         }
 126:C:/Users/stapi/OneDrive/Desktop/GD32VW553/V1_MQTT_OK/GD32VW55X_Wifi_BLE_SDK/GD32VW55x_RELEASE_V1.0.2/MSDK/cloud/alicloud/src/services/linkkit/dev_reset\awss_reset.c **** 
 127:C:/Users/stapi/OneDrive/Desktop/GD32VW553/V1_MQTT_OK/GD32VW55X_Wifi_BLE_SDK/GD32VW55x_RELEASE_V1.0.2/MSDK/cloud/alicloud/src/services/linkkit/dev_reset\awss_reset.c ****         memset(topic, 0, topic_len + 1);
 128:C:/Users/stapi/OneDrive/Desktop/GD32VW553/V1_MQTT_OK/GD32VW55X_Wifi_BLE_SDK/GD32VW55x_RELEASE_V1.0.2/MSDK/cloud/alicloud/src/services/linkkit/dev_reset\awss_reset.c ****         HAL_Snprintf(topic, topic_len, TOPIC_RESET_REPORT, pk, dn);
 129:C:/Users/stapi/OneDrive/Desktop/GD32VW553/V1_MQTT_OK/GD32VW55X_Wifi_BLE_SDK/GD32VW55x_RELEASE_V1.0.2/MSDK/cloud/alicloud/src/services/linkkit/dev_reset\awss_reset.c ****     } while (0);
 130:C:/Users/stapi/OneDrive/Desktop/GD32VW553/V1_MQTT_OK/GD32VW55X_Wifi_BLE_SDK/GD32VW55x_RELEASE_V1.0.2/MSDK/cloud/alicloud/src/services/linkkit/dev_reset\awss_reset.c **** 
 131:C:/Users/stapi/OneDrive/Desktop/GD32VW553/V1_MQTT_OK/GD32VW55X_Wifi_BLE_SDK/GD32VW55x_RELEASE_V1.0.2/MSDK/cloud/alicloud/src/services/linkkit/dev_reset\awss_reset.c ****     packet = AWSS_RESET_MALLOC(packet_len + 1);
 132:C:/Users/stapi/OneDrive/Desktop/GD32VW553/V1_MQTT_OK/GD32VW55X_Wifi_BLE_SDK/GD32VW55x_RELEASE_V1.0.2/MSDK/cloud/alicloud/src/services/linkkit/dev_reset\awss_reset.c ****     if (packet == NULL) {
 133:C:/Users/stapi/OneDrive/Desktop/GD32VW553/V1_MQTT_OK/GD32VW55X_Wifi_BLE_SDK/GD32VW55x_RELEASE_V1.0.2/MSDK/cloud/alicloud/src/services/linkkit/dev_reset\awss_reset.c ****         ret = STATE_SYS_DEPEND_MALLOC;
 134:C:/Users/stapi/OneDrive/Desktop/GD32VW553/V1_MQTT_OK/GD32VW55X_Wifi_BLE_SDK/GD32VW55x_RELEASE_V1.0.2/MSDK/cloud/alicloud/src/services/linkkit/dev_reset\awss_reset.c ****         dump_dev_bind_status(STATE_BIND_REPORT_RESET_FAIL, "awss reset malloc fail");
 135:C:/Users/stapi/OneDrive/Desktop/GD32VW553/V1_MQTT_OK/GD32VW55X_Wifi_BLE_SDK/GD32VW55x_RELEASE_V1.0.2/MSDK/cloud/alicloud/src/services/linkkit/dev_reset\awss_reset.c ****         goto REPORT_RST_ERR;
 136:C:/Users/stapi/OneDrive/Desktop/GD32VW553/V1_MQTT_OK/GD32VW55X_Wifi_BLE_SDK/GD32VW55x_RELEASE_V1.0.2/MSDK/cloud/alicloud/src/services/linkkit/dev_reset\awss_reset.c ****     }
 137:C:/Users/stapi/OneDrive/Desktop/GD32VW553/V1_MQTT_OK/GD32VW55X_Wifi_BLE_SDK/GD32VW55x_RELEASE_V1.0.2/MSDK/cloud/alicloud/src/services/linkkit/dev_reset\awss_reset.c ****     memset(packet, 0, packet_len + 1);
 138:C:/Users/stapi/OneDrive/Desktop/GD32VW553/V1_MQTT_OK/GD32VW55X_Wifi_BLE_SDK/GD32VW55x_RELEASE_V1.0.2/MSDK/cloud/alicloud/src/services/linkkit/dev_reset\awss_reset.c **** 
 139:C:/Users/stapi/OneDrive/Desktop/GD32VW553/V1_MQTT_OK/GD32VW55X_Wifi_BLE_SDK/GD32VW55x_RELEASE_V1.0.2/MSDK/cloud/alicloud/src/services/linkkit/dev_reset\awss_reset.c ****     do {
 140:C:/Users/stapi/OneDrive/Desktop/GD32VW553/V1_MQTT_OK/GD32VW55X_Wifi_BLE_SDK/GD32VW55x_RELEASE_V1.0.2/MSDK/cloud/alicloud/src/services/linkkit/dev_reset\awss_reset.c ****         char id_str[AWSS_RESET_MSG_ID_LEN + 1] = {0};
 141:C:/Users/stapi/OneDrive/Desktop/GD32VW553/V1_MQTT_OK/GD32VW55X_Wifi_BLE_SDK/GD32VW55x_RELEASE_V1.0.2/MSDK/cloud/alicloud/src/services/linkkit/dev_reset\awss_reset.c ****         HAL_Snprintf(id_str, AWSS_RESET_MSG_ID_LEN, "\"%u\"", awss_report_reset_id ++);
 142:C:/Users/stapi/OneDrive/Desktop/GD32VW553/V1_MQTT_OK/GD32VW55X_Wifi_BLE_SDK/GD32VW55x_RELEASE_V1.0.2/MSDK/cloud/alicloud/src/services/linkkit/dev_reset\awss_reset.c ****         final_len = HAL_Snprintf(packet, packet_len, AWSS_RESET_REQ_FMT, id_str, METHOD_RESET_REPOR
 143:C:/Users/stapi/OneDrive/Desktop/GD32VW553/V1_MQTT_OK/GD32VW55X_Wifi_BLE_SDK/GD32VW55x_RELEASE_V1.0.2/MSDK/cloud/alicloud/src/services/linkkit/dev_reset\awss_reset.c ****     } while (0);
 144:C:/Users/stapi/OneDrive/Desktop/GD32VW553/V1_MQTT_OK/GD32VW55X_Wifi_BLE_SDK/GD32VW55x_RELEASE_V1.0.2/MSDK/cloud/alicloud/src/services/linkkit/dev_reset\awss_reset.c **** 
 145:C:/Users/stapi/OneDrive/Desktop/GD32VW553/V1_MQTT_OK/GD32VW55X_Wifi_BLE_SDK/GD32VW55x_RELEASE_V1.0.2/MSDK/cloud/alicloud/src/services/linkkit/dev_reset\awss_reset.c ****     log_debug("[RST]", "reset_type=%d, report reset:%s\r\n", g_reset_type, packet);
 146:C:/Users/stapi/OneDrive/Desktop/GD32VW553/V1_MQTT_OK/GD32VW55X_Wifi_BLE_SDK/GD32VW55x_RELEASE_V1.0.2/MSDK/cloud/alicloud/src/services/linkkit/dev_reset\awss_reset.c **** 
 147:C:/Users/stapi/OneDrive/Desktop/GD32VW553/V1_MQTT_OK/GD32VW55X_Wifi_BLE_SDK/GD32VW55x_RELEASE_V1.0.2/MSDK/cloud/alicloud/src/services/linkkit/dev_reset\awss_reset.c ****     ret = IOT_MQTT_Publish_Simple(NULL, topic, IOTX_MQTT_QOS0, packet, final_len);
 148:C:/Users/stapi/OneDrive/Desktop/GD32VW553/V1_MQTT_OK/GD32VW55X_Wifi_BLE_SDK/GD32VW55x_RELEASE_V1.0.2/MSDK/cloud/alicloud/src/services/linkkit/dev_reset\awss_reset.c ****     log_debug("[RST]", "report reset result:%d\r\n", ret);
 149:C:/Users/stapi/OneDrive/Desktop/GD32VW553/V1_MQTT_OK/GD32VW55X_Wifi_BLE_SDK/GD32VW55x_RELEASE_V1.0.2/MSDK/cloud/alicloud/src/services/linkkit/dev_reset\awss_reset.c ****     if (ret < 0) {
 150:C:/Users/stapi/OneDrive/Desktop/GD32VW553/V1_MQTT_OK/GD32VW55X_Wifi_BLE_SDK/GD32VW55x_RELEASE_V1.0.2/MSDK/cloud/alicloud/src/services/linkkit/dev_reset\awss_reset.c ****         dump_dev_bind_status(STATE_BIND_REPORT_RESET_FAIL, topic);
 151:C:/Users/stapi/OneDrive/Desktop/GD32VW553/V1_MQTT_OK/GD32VW55X_Wifi_BLE_SDK/GD32VW55x_RELEASE_V1.0.2/MSDK/cloud/alicloud/src/services/linkkit/dev_reset\awss_reset.c ****     }
 152:C:/Users/stapi/OneDrive/Desktop/GD32VW553/V1_MQTT_OK/GD32VW55X_Wifi_BLE_SDK/GD32VW55x_RELEASE_V1.0.2/MSDK/cloud/alicloud/src/services/linkkit/dev_reset\awss_reset.c **** REPORT_RST_ERR:
 153:C:/Users/stapi/OneDrive/Desktop/GD32VW553/V1_MQTT_OK/GD32VW55X_Wifi_BLE_SDK/GD32VW55x_RELEASE_V1.0.2/MSDK/cloud/alicloud/src/services/linkkit/dev_reset\awss_reset.c ****     if (packet) AWSS_RESET_FREE(packet);
 154:C:/Users/stapi/OneDrive/Desktop/GD32VW553/V1_MQTT_OK/GD32VW55X_Wifi_BLE_SDK/GD32VW55x_RELEASE_V1.0.2/MSDK/cloud/alicloud/src/services/linkkit/dev_reset\awss_reset.c ****     if (topic) AWSS_RESET_FREE(topic);
 155:C:/Users/stapi/OneDrive/Desktop/GD32VW553/V1_MQTT_OK/GD32VW55X_Wifi_BLE_SDK/GD32VW55x_RELEASE_V1.0.2/MSDK/cloud/alicloud/src/services/linkkit/dev_reset\awss_reset.c ****     return ret;
 156:C:/Users/stapi/OneDrive/Desktop/GD32VW553/V1_MQTT_OK/GD32VW55X_Wifi_BLE_SDK/GD32VW55x_RELEASE_V1.0.2/MSDK/cloud/alicloud/src/services/linkkit/dev_reset\awss_reset.c **** }
  97              		.loc 1 156 1
  98 0030 2285     		mv	a0,s0
  99 0032 2161     		addi	sp,sp,64
 100              		.cfi_remember_state
 101              		.cfi_def_cfa_offset 0
 102 0034 17030000 		tail	__riscv_restore_5
 102      67000300 
 103              		.cfi_restore 20
 104              		.cfi_restore 19
 105              		.cfi_restore 18
 106              		.cfi_restore 9
 107              		.cfi_restore 8
 108              		.cfi_restore 1
 109              		.cfi_def_cfa_offset -32
 110              	.LVL5:
 111              	.L2:
 112              		.cfi_restore_state
  88:C:/Users/stapi/OneDrive/Desktop/GD32VW553/V1_MQTT_OK/GD32VW55X_Wifi_BLE_SDK/GD32VW55x_RELEASE_V1.0.2/MSDK/cloud/alicloud/src/services/linkkit/dev_reset\awss_reset.c **** 
 113              		.loc 1 88 5 is_stmt 1
  88:C:/Users/stapi/OneDrive/Desktop/GD32VW553/V1_MQTT_OK/GD32VW55X_Wifi_BLE_SDK/GD32VW55x_RELEASE_V1.0.2/MSDK/cloud/alicloud/src/services/linkkit/dev_reset\awss_reset.c **** 
 114              		.loc 1 88 20 is_stmt 0
 115 003c 1C41     		lw	a5,0(a0)
  88:C:/Users/stapi/OneDrive/Desktop/GD32VW553/V1_MQTT_OK/GD32VW55X_Wifi_BLE_SDK/GD32VW55x_RELEASE_V1.0.2/MSDK/cloud/alicloud/src/services/linkkit/dev_reset\awss_reset.c **** 
 116              		.loc 1 88 18
 117 003e B7040000 		lui	s1,%hi(.LANCHOR1)
  90:C:/Users/stapi/OneDrive/Desktop/GD32VW553/V1_MQTT_OK/GD32VW55X_Wifi_BLE_SDK/GD32VW55x_RELEASE_V1.0.2/MSDK/cloud/alicloud/src/services/linkkit/dev_reset\awss_reset.c **** 
 118              		.loc 1 90 5
 119 0042 0145     		li	a0,0
 120              	.LVL6:
  88:C:/Users/stapi/OneDrive/Desktop/GD32VW553/V1_MQTT_OK/GD32VW55X_Wifi_BLE_SDK/GD32VW55x_RELEASE_V1.0.2/MSDK/cloud/alicloud/src/services/linkkit/dev_reset\awss_reset.c **** 
 121              		.loc 1 88 18
 122 0044 23A0F400 		sw	a5,%lo(.LANCHOR1)(s1)
  90:C:/Users/stapi/OneDrive/Desktop/GD32VW553/V1_MQTT_OK/GD32VW55X_Wifi_BLE_SDK/GD32VW55x_RELEASE_V1.0.2/MSDK/cloud/alicloud/src/services/linkkit/dev_reset\awss_reset.c **** 
 123              		.loc 1 90 5 is_stmt 1
  92:C:/Users/stapi/OneDrive/Desktop/GD32VW553/V1_MQTT_OK/GD32VW55X_Wifi_BLE_SDK/GD32VW55x_RELEASE_V1.0.2/MSDK/cloud/alicloud/src/services/linkkit/dev_reset\awss_reset.c ****         report_reset_timer = HAL_Timer_Create("report_rst", (void (*)(void *))awss_report_reset_to_
 124              		.loc 1 92 28 is_stmt 0
 125 0048 37040000 		lui	s0,%hi(.LANCHOR2)
  90:C:/Users/stapi/OneDrive/Desktop/GD32VW553/V1_MQTT_OK/GD32VW55X_Wifi_BLE_SDK/GD32VW55x_RELEASE_V1.0.2/MSDK/cloud/alicloud/src/services/linkkit/dev_reset\awss_reset.c **** 
 126              		.loc 1 90 5
 127 004c 97000000 		call	awss_rst_update_statis
 127      E7800000 
 128              	.LVL7:
  92:C:/Users/stapi/OneDrive/Desktop/GD32VW553/V1_MQTT_OK/GD32VW55X_Wifi_BLE_SDK/GD32VW55x_RELEASE_V1.0.2/MSDK/cloud/alicloud/src/services/linkkit/dev_reset\awss_reset.c ****         report_reset_timer = HAL_Timer_Create("report_rst", (void (*)(void *))awss_report_reset_to_
 129              		.loc 1 92 5 is_stmt 1
  92:C:/Users/stapi/OneDrive/Desktop/GD32VW553/V1_MQTT_OK/GD32VW55X_Wifi_BLE_SDK/GD32VW55x_RELEASE_V1.0.2/MSDK/cloud/alicloud/src/services/linkkit/dev_reset\awss_reset.c ****         report_reset_timer = HAL_Timer_Create("report_rst", (void (*)(void *))awss_report_reset_to_
 130              		.loc 1 92 8 is_stmt 0
 131 0054 83270400 		lw	a5,%lo(.LANCHOR2)(s0)
 132 0058 93890400 		addi	s3,s1,%lo(.LANCHOR1)
 133 005c 13040400 		addi	s0,s0,%lo(.LANCHOR2)
 134 0060 85E3     		bne	a5,zero,.L4
  93:C:/Users/stapi/OneDrive/Desktop/GD32VW553/V1_MQTT_OK/GD32VW55X_Wifi_BLE_SDK/GD32VW55x_RELEASE_V1.0.2/MSDK/cloud/alicloud/src/services/linkkit/dev_reset\awss_reset.c ****     }
 135              		.loc 1 93 9 is_stmt 1
  93:C:/Users/stapi/OneDrive/Desktop/GD32VW553/V1_MQTT_OK/GD32VW55X_Wifi_BLE_SDK/GD32VW55x_RELEASE_V1.0.2/MSDK/cloud/alicloud/src/services/linkkit/dev_reset\awss_reset.c ****     }
 136              		.loc 1 93 30 is_stmt 0
 137 0062 B7050000 		lui	a1,%hi(awss_report_reset_to_cloud)
 138 0066 37050000 		lui	a0,%hi(.LC1)
 139 006a 13860400 		addi	a2,s1,%lo(.LANCHOR1)
 140 006e 93850500 		addi	a1,a1,%lo(awss_report_reset_to_cloud)
 141 0072 13050500 		addi	a0,a0,%lo(.LC1)
 142 0076 97000000 		call	HAL_Timer_Create
 142      E7800000 
 143              	.LVL8:
  93:C:/Users/stapi/OneDrive/Desktop/GD32VW553/V1_MQTT_OK/GD32VW55X_Wifi_BLE_SDK/GD32VW55x_RELEASE_V1.0.2/MSDK/cloud/alicloud/src/services/linkkit/dev_reset\awss_reset.c ****     }
 144              		.loc 1 93 28
 145 007e 08C0     		sw	a0,0(s0)
 146              	.L4:
  95:C:/Users/stapi/OneDrive/Desktop/GD32VW553/V1_MQTT_OK/GD32VW55X_Wifi_BLE_SDK/GD32VW55x_RELEASE_V1.0.2/MSDK/cloud/alicloud/src/services/linkkit/dev_reset\awss_reset.c ****     HAL_Timer_Start(report_reset_timer, 3000);
 147              		.loc 1 95 5 is_stmt 1
 148 0080 0840     		lw	a0,0(s0)
 149 0082 97000000 		call	HAL_Timer_Stop
 149      E7800000 
 150              	.LVL9:
  96:C:/Users/stapi/OneDrive/Desktop/GD32VW553/V1_MQTT_OK/GD32VW55X_Wifi_BLE_SDK/GD32VW55x_RELEASE_V1.0.2/MSDK/cloud/alicloud/src/services/linkkit/dev_reset\awss_reset.c **** 
 151              		.loc 1 96 5
 152 008a 0840     		lw	a0,0(s0)
 153 008c 8565     		li	a1,4096
 154 008e 938585BB 		addi	a1,a1,-1096
 155 0092 97000000 		call	HAL_Timer_Start
 155      E7800000 
 156              	.LVL10:
  98:C:/Users/stapi/OneDrive/Desktop/GD32VW553/V1_MQTT_OK/GD32VW55X_Wifi_BLE_SDK/GD32VW55x_RELEASE_V1.0.2/MSDK/cloud/alicloud/src/services/linkkit/dev_reset\awss_reset.c ****         char pk[PRODUCT_KEY_LEN + 1] = {0};
 157              		.loc 1 98 5
 158              	.LBB2:
  99:C:/Users/stapi/OneDrive/Desktop/GD32VW553/V1_MQTT_OK/GD32VW55X_Wifi_BLE_SDK/GD32VW55x_RELEASE_V1.0.2/MSDK/cloud/alicloud/src/services/linkkit/dev_reset\awss_reset.c ****         char dn[DEVICE_NAME_LEN + 1] = {0};
 159              		.loc 1 99 9
 100:C:/Users/stapi/OneDrive/Desktop/GD32VW553/V1_MQTT_OK/GD32VW55X_Wifi_BLE_SDK/GD32VW55x_RELEASE_V1.0.2/MSDK/cloud/alicloud/src/services/linkkit/dev_reset\awss_reset.c **** 
 160              		.loc 1 100 14 is_stmt 0
 161 009a 7546     		li	a2,29
 162 009c 8145     		li	a1,0
 163 009e 0810     		addi	a0,sp,32
  99:C:/Users/stapi/OneDrive/Desktop/GD32VW553/V1_MQTT_OK/GD32VW55X_Wifi_BLE_SDK/GD32VW55x_RELEASE_V1.0.2/MSDK/cloud/alicloud/src/services/linkkit/dev_reset\awss_reset.c ****         char dn[DEVICE_NAME_LEN + 1] = {0};
 164              		.loc 1 99 14
 165 00a0 02C2     		sw	zero,4(sp)
 166 00a2 02C4     		sw	zero,8(sp)
 167 00a4 02C6     		sw	zero,12(sp)
 168 00a6 02C8     		sw	zero,16(sp)
 169 00a8 02CA     		sw	zero,20(sp)
 170 00aa 230C0100 		sb	zero,24(sp)
 100:C:/Users/stapi/OneDrive/Desktop/GD32VW553/V1_MQTT_OK/GD32VW55X_Wifi_BLE_SDK/GD32VW55x_RELEASE_V1.0.2/MSDK/cloud/alicloud/src/services/linkkit/dev_reset\awss_reset.c **** 
 171              		.loc 1 100 9 is_stmt 1
 100:C:/Users/stapi/OneDrive/Desktop/GD32VW553/V1_MQTT_OK/GD32VW55X_Wifi_BLE_SDK/GD32VW55x_RELEASE_V1.0.2/MSDK/cloud/alicloud/src/services/linkkit/dev_reset\awss_reset.c **** 
 172              		.loc 1 100 14 is_stmt 0
 173 00ae 02CE     		sw	zero,28(sp)
 174 00b0 97000000 		call	memset
 174      E7800000 
 175              	.LVL11:
 102:C:/Users/stapi/OneDrive/Desktop/GD32VW553/V1_MQTT_OK/GD32VW55X_Wifi_BLE_SDK/GD32VW55x_RELEASE_V1.0.2/MSDK/cloud/alicloud/src/services/linkkit/dev_reset\awss_reset.c ****         HAL_GetDeviceName(dn);
 176              		.loc 1 102 9 is_stmt 1
 177 00b8 4800     		addi	a0,sp,4
 178 00ba 97000000 		call	HAL_GetProductKey
 178      E7800000 
 179              	.LVL12:
 103:C:/Users/stapi/OneDrive/Desktop/GD32VW553/V1_MQTT_OK/GD32VW55X_Wifi_BLE_SDK/GD32VW55x_RELEASE_V1.0.2/MSDK/cloud/alicloud/src/services/linkkit/dev_reset\awss_reset.c **** 
 180              		.loc 1 103 9
 181 00c2 6808     		addi	a0,sp,28
 182 00c4 97000000 		call	HAL_GetDeviceName
 182      E7800000 
 183              	.LVL13:
 105:C:/Users/stapi/OneDrive/Desktop/GD32VW553/V1_MQTT_OK/GD32VW55X_Wifi_BLE_SDK/GD32VW55x_RELEASE_V1.0.2/MSDK/cloud/alicloud/src/services/linkkit/dev_reset\awss_reset.c ****         if (topic == NULL) {
 184              		.loc 1 105 9
 105:C:/Users/stapi/OneDrive/Desktop/GD32VW553/V1_MQTT_OK/GD32VW55X_Wifi_BLE_SDK/GD32VW55x_RELEASE_V1.0.2/MSDK/cloud/alicloud/src/services/linkkit/dev_reset\awss_reset.c ****         if (topic == NULL) {
 185              		.loc 1 105 25 is_stmt 0
 186 00cc 13061008 		li	a2,129
 187 00d0 8145     		li	a1,0
 188 00d2 0145     		li	a0,0
 189 00d4 97000000 		call	LITE_malloc_internal
 189      E7800000 
 190              	.LVL14:
 191 00dc AA84     		mv	s1,a0
 192              	.LVL15:
 106:C:/Users/stapi/OneDrive/Desktop/GD32VW553/V1_MQTT_OK/GD32VW55X_Wifi_BLE_SDK/GD32VW55x_RELEASE_V1.0.2/MSDK/cloud/alicloud/src/services/linkkit/dev_reset\awss_reset.c ****             ret = STATE_SYS_DEPEND_MALLOC;
 193              		.loc 1 106 9 is_stmt 1
 106:C:/Users/stapi/OneDrive/Desktop/GD32VW553/V1_MQTT_OK/GD32VW55X_Wifi_BLE_SDK/GD32VW55x_RELEASE_V1.0.2/MSDK/cloud/alicloud/src/services/linkkit/dev_reset\awss_reset.c ****             ret = STATE_SYS_DEPEND_MALLOC;
 194              		.loc 1 106 12 is_stmt 0
 195 00de 05E1     		bne	a0,zero,.L5
 107:C:/Users/stapi/OneDrive/Desktop/GD32VW553/V1_MQTT_OK/GD32VW55X_Wifi_BLE_SDK/GD32VW55x_RELEASE_V1.0.2/MSDK/cloud/alicloud/src/services/linkkit/dev_reset\awss_reset.c ****             dump_dev_bind_status(STATE_BIND_REPORT_RESET_FAIL, "topic malloc fail");
 196              		.loc 1 107 13 is_stmt 1
 197              	.LVL16:
 108:C:/Users/stapi/OneDrive/Desktop/GD32VW553/V1_MQTT_OK/GD32VW55X_Wifi_BLE_SDK/GD32VW55x_RELEASE_V1.0.2/MSDK/cloud/alicloud/src/services/linkkit/dev_reset\awss_reset.c ****             goto REPORT_RST_ERR;
 198              		.loc 1 108 13
 199 00e0 37060000 		lui	a2,%hi(.LC2)
 200 00e4 FD75     		li	a1,-4096
 201 00e6 13060600 		addi	a2,a2,%lo(.LC2)
 202 00ea 9385C57B 		addi	a1,a1,1980
 203 00ee 7D45     		li	a0,31
 204 00f0 97000000 		call	iotx_state_event
 204      E7800000 
 205              	.LVL17:
 109:C:/Users/stapi/OneDrive/Desktop/GD32VW553/V1_MQTT_OK/GD32VW55X_Wifi_BLE_SDK/GD32VW55x_RELEASE_V1.0.2/MSDK/cloud/alicloud/src/services/linkkit/dev_reset\awss_reset.c ****         }
 206              		.loc 1 109 13
 207              	.LBE2:
 153:C:/Users/stapi/OneDrive/Desktop/GD32VW553/V1_MQTT_OK/GD32VW55X_Wifi_BLE_SDK/GD32VW55x_RELEASE_V1.0.2/MSDK/cloud/alicloud/src/services/linkkit/dev_reset\awss_reset.c ****     if (topic) AWSS_RESET_FREE(topic);
 208              		.loc 1 153 5
 154:C:/Users/stapi/OneDrive/Desktop/GD32VW553/V1_MQTT_OK/GD32VW55X_Wifi_BLE_SDK/GD32VW55x_RELEASE_V1.0.2/MSDK/cloud/alicloud/src/services/linkkit/dev_reset\awss_reset.c ****     return ret;
 209              		.loc 1 154 5
 210              	.LBB3:
 107:C:/Users/stapi/OneDrive/Desktop/GD32VW553/V1_MQTT_OK/GD32VW55X_Wifi_BLE_SDK/GD32VW55x_RELEASE_V1.0.2/MSDK/cloud/alicloud/src/services/linkkit/dev_reset\awss_reset.c ****             dump_dev_bind_status(STATE_BIND_REPORT_RESET_FAIL, "topic malloc fail");
 211              		.loc 1 107 17 is_stmt 0
 212 00f8 1304F0DF 		li	s0,-513
 213 00fc 15BF     		j	.L1
 214              	.LVL18:
 215              	.L5:
 111:C:/Users/stapi/OneDrive/Desktop/GD32VW553/V1_MQTT_OK/GD32VW55X_Wifi_BLE_SDK/GD32VW55x_RELEASE_V1.0.2/MSDK/cloud/alicloud/src/services/linkkit/dev_reset\awss_reset.c **** 
 216              		.loc 1 111 9 is_stmt 1
 217 00fe 13061008 		li	a2,129
 218 0102 8145     		li	a1,0
 219 0104 97000000 		call	memset
 219      E7800000 
 220              	.LVL19:
 113:C:/Users/stapi/OneDrive/Desktop/GD32VW553/V1_MQTT_OK/GD32VW55X_Wifi_BLE_SDK/GD32VW55x_RELEASE_V1.0.2/MSDK/cloud/alicloud/src/services/linkkit/dev_reset\awss_reset.c **** 
 221              		.loc 1 113 9
 222 010c 37060000 		lui	a2,%hi(.LC3)
 223 0110 7808     		addi	a4,sp,28
 224 0112 5400     		addi	a3,sp,4
 225 0114 13060600 		addi	a2,a2,%lo(.LC3)
 226 0118 93050008 		li	a1,128
 227 011c 2685     		mv	a0,s1
 228 011e 97000000 		call	HAL_Snprintf
 228      E7800000 
 229              	.LVL20:
 116:C:/Users/stapi/OneDrive/Desktop/GD32VW553/V1_MQTT_OK/GD32VW55X_Wifi_BLE_SDK/GD32VW55x_RELEASE_V1.0.2/MSDK/cloud/alicloud/src/services/linkkit/dev_reset\awss_reset.c ****                                  (iotx_mqtt_event_handle_func_fpt)awss_report_reset_reply, NULL);
 230              		.loc 1 116 9
 116:C:/Users/stapi/OneDrive/Desktop/GD32VW553/V1_MQTT_OK/GD32VW55X_Wifi_BLE_SDK/GD32VW55x_RELEASE_V1.0.2/MSDK/cloud/alicloud/src/services/linkkit/dev_reset\awss_reset.c ****                                  (iotx_mqtt_event_handle_func_fpt)awss_report_reset_reply, NULL);
 231              		.loc 1 116 15 is_stmt 0
 232 0126 B7060000 		lui	a3,%hi(awss_report_reset_reply)
 233 012a 0147     		li	a4,0
 234 012c 93860600 		addi	a3,a3,%lo(awss_report_reset_reply)
 235 0130 0D46     		li	a2,3
 236 0132 A685     		mv	a1,s1
 237 0134 0145     		li	a0,0
 238 0136 97000000 		call	IOT_MQTT_Subscribe
 238      E7800000 
 239              	.LVL21:
 240 013e 2A84     		mv	s0,a0
 241              	.LVL22:
 122:C:/Users/stapi/OneDrive/Desktop/GD32VW553/V1_MQTT_OK/GD32VW55X_Wifi_BLE_SDK/GD32VW55x_RELEASE_V1.0.2/MSDK/cloud/alicloud/src/services/linkkit/dev_reset\awss_reset.c ****             dump_dev_bind_status(STATE_BIND_REPORT_RESET_FAIL, "awss reset reply sub fail");
 242              		.loc 1 122 9 is_stmt 1
 122:C:/Users/stapi/OneDrive/Desktop/GD32VW553/V1_MQTT_OK/GD32VW55X_Wifi_BLE_SDK/GD32VW55x_RELEASE_V1.0.2/MSDK/cloud/alicloud/src/services/linkkit/dev_reset\awss_reset.c ****             dump_dev_bind_status(STATE_BIND_REPORT_RESET_FAIL, "awss reset reply sub fail");
 243              		.loc 1 122 12 is_stmt 0
 244 0140 63540502 		bge	a0,zero,.L6
 123:C:/Users/stapi/OneDrive/Desktop/GD32VW553/V1_MQTT_OK/GD32VW55X_Wifi_BLE_SDK/GD32VW55x_RELEASE_V1.0.2/MSDK/cloud/alicloud/src/services/linkkit/dev_reset\awss_reset.c ****             goto REPORT_RST_ERR;
 245              		.loc 1 123 13 is_stmt 1
 246 0144 37060000 		lui	a2,%hi(.LC4)
 247 0148 FD75     		li	a1,-4096
 248 014a 13060600 		addi	a2,a2,%lo(.LC4)
 249 014e 9385C57B 		addi	a1,a1,1980
 250 0152 7D45     		li	a0,31
 251 0154 97000000 		call	iotx_state_event
 251      E7800000 
 252              	.LVL23:
 124:C:/Users/stapi/OneDrive/Desktop/GD32VW553/V1_MQTT_OK/GD32VW55X_Wifi_BLE_SDK/GD32VW55x_RELEASE_V1.0.2/MSDK/cloud/alicloud/src/services/linkkit/dev_reset\awss_reset.c ****         }
 253              		.loc 1 124 13
 254              	.LBE3:
 153:C:/Users/stapi/OneDrive/Desktop/GD32VW553/V1_MQTT_OK/GD32VW55X_Wifi_BLE_SDK/GD32VW55x_RELEASE_V1.0.2/MSDK/cloud/alicloud/src/services/linkkit/dev_reset\awss_reset.c ****     if (topic) AWSS_RESET_FREE(topic);
 255              		.loc 1 153 5
 154:C:/Users/stapi/OneDrive/Desktop/GD32VW553/V1_MQTT_OK/GD32VW55X_Wifi_BLE_SDK/GD32VW55x_RELEASE_V1.0.2/MSDK/cloud/alicloud/src/services/linkkit/dev_reset\awss_reset.c ****     return ret;
 256              		.loc 1 154 5
 257              	.L7:
 154:C:/Users/stapi/OneDrive/Desktop/GD32VW553/V1_MQTT_OK/GD32VW55X_Wifi_BLE_SDK/GD32VW55x_RELEASE_V1.0.2/MSDK/cloud/alicloud/src/services/linkkit/dev_reset\awss_reset.c ****     return ret;
 258              		.loc 1 154 16 discriminator 1
 259 015c 2685     		mv	a0,s1
 260 015e 97000000 		call	LITE_free_internal
 260      E7800000 
 261              	.LVL24:
 262 0166 E9B5     		j	.L1
 263              	.LVL25:
 264              	.L6:
 265              	.LBB4:
 127:C:/Users/stapi/OneDrive/Desktop/GD32VW553/V1_MQTT_OK/GD32VW55X_Wifi_BLE_SDK/GD32VW55x_RELEASE_V1.0.2/MSDK/cloud/alicloud/src/services/linkkit/dev_reset\awss_reset.c ****         HAL_Snprintf(topic, topic_len, TOPIC_RESET_REPORT, pk, dn);
 266              		.loc 1 127 9
 267 0168 13061008 		li	a2,129
 268 016c 8145     		li	a1,0
 269 016e 2685     		mv	a0,s1
 270 0170 97000000 		call	memset
 270      E7800000 
 271              	.LVL26:
 128:C:/Users/stapi/OneDrive/Desktop/GD32VW553/V1_MQTT_OK/GD32VW55X_Wifi_BLE_SDK/GD32VW55x_RELEASE_V1.0.2/MSDK/cloud/alicloud/src/services/linkkit/dev_reset\awss_reset.c ****     } while (0);
 272              		.loc 1 128 9
 273 0178 37060000 		lui	a2,%hi(.LC5)
 274 017c 7808     		addi	a4,sp,28
 275 017e 5400     		addi	a3,sp,4
 276 0180 13060600 		addi	a2,a2,%lo(.LC5)
 277 0184 93050008 		li	a1,128
 278 0188 2685     		mv	a0,s1
 279 018a 97000000 		call	HAL_Snprintf
 279      E7800000 
 280              	.LVL27:
 281              	.LBE4:
 129:C:/Users/stapi/OneDrive/Desktop/GD32VW553/V1_MQTT_OK/GD32VW55X_Wifi_BLE_SDK/GD32VW55x_RELEASE_V1.0.2/MSDK/cloud/alicloud/src/services/linkkit/dev_reset\awss_reset.c **** 
 282              		.loc 1 129 13
 131:C:/Users/stapi/OneDrive/Desktop/GD32VW553/V1_MQTT_OK/GD32VW55X_Wifi_BLE_SDK/GD32VW55x_RELEASE_V1.0.2/MSDK/cloud/alicloud/src/services/linkkit/dev_reset\awss_reset.c ****     if (packet == NULL) {
 283              		.loc 1 131 5
 131:C:/Users/stapi/OneDrive/Desktop/GD32VW553/V1_MQTT_OK/GD32VW55X_Wifi_BLE_SDK/GD32VW55x_RELEASE_V1.0.2/MSDK/cloud/alicloud/src/services/linkkit/dev_reset\awss_reset.c ****     if (packet == NULL) {
 284              		.loc 1 131 14 is_stmt 0
 285 0192 13061010 		li	a2,257
 286 0196 8145     		li	a1,0
 287 0198 0145     		li	a0,0
 288 019a 97000000 		call	LITE_malloc_internal
 288      E7800000 
 289              	.LVL28:
 290 01a2 2A89     		mv	s2,a0
 291              	.LVL29:
 132:C:/Users/stapi/OneDrive/Desktop/GD32VW553/V1_MQTT_OK/GD32VW55X_Wifi_BLE_SDK/GD32VW55x_RELEASE_V1.0.2/MSDK/cloud/alicloud/src/services/linkkit/dev_reset\awss_reset.c ****         ret = STATE_SYS_DEPEND_MALLOC;
 292              		.loc 1 132 5 is_stmt 1
 132:C:/Users/stapi/OneDrive/Desktop/GD32VW553/V1_MQTT_OK/GD32VW55X_Wifi_BLE_SDK/GD32VW55x_RELEASE_V1.0.2/MSDK/cloud/alicloud/src/services/linkkit/dev_reset\awss_reset.c ****         ret = STATE_SYS_DEPEND_MALLOC;
 293              		.loc 1 132 8 is_stmt 0
 294 01a4 05E1     		bne	a0,zero,.L8
 133:C:/Users/stapi/OneDrive/Desktop/GD32VW553/V1_MQTT_OK/GD32VW55X_Wifi_BLE_SDK/GD32VW55x_RELEASE_V1.0.2/MSDK/cloud/alicloud/src/services/linkkit/dev_reset\awss_reset.c ****         dump_dev_bind_status(STATE_BIND_REPORT_RESET_FAIL, "awss reset malloc fail");
 295              		.loc 1 133 9 is_stmt 1
 296              	.LVL30:
 134:C:/Users/stapi/OneDrive/Desktop/GD32VW553/V1_MQTT_OK/GD32VW55X_Wifi_BLE_SDK/GD32VW55x_RELEASE_V1.0.2/MSDK/cloud/alicloud/src/services/linkkit/dev_reset\awss_reset.c ****         goto REPORT_RST_ERR;
 297              		.loc 1 134 9
 298 01a6 37060000 		lui	a2,%hi(.LC6)
 299 01aa FD75     		li	a1,-4096
 300 01ac 13060600 		addi	a2,a2,%lo(.LC6)
 301 01b0 9385C57B 		addi	a1,a1,1980
 302 01b4 7D45     		li	a0,31
 303              	.LVL31:
 304 01b6 97000000 		call	iotx_state_event
 304      E7800000 
 305              	.LVL32:
 135:C:/Users/stapi/OneDrive/Desktop/GD32VW553/V1_MQTT_OK/GD32VW55X_Wifi_BLE_SDK/GD32VW55x_RELEASE_V1.0.2/MSDK/cloud/alicloud/src/services/linkkit/dev_reset\awss_reset.c ****     }
 306              		.loc 1 135 9
 153:C:/Users/stapi/OneDrive/Desktop/GD32VW553/V1_MQTT_OK/GD32VW55X_Wifi_BLE_SDK/GD32VW55x_RELEASE_V1.0.2/MSDK/cloud/alicloud/src/services/linkkit/dev_reset\awss_reset.c ****     if (topic) AWSS_RESET_FREE(topic);
 307              		.loc 1 153 5
 133:C:/Users/stapi/OneDrive/Desktop/GD32VW553/V1_MQTT_OK/GD32VW55X_Wifi_BLE_SDK/GD32VW55x_RELEASE_V1.0.2/MSDK/cloud/alicloud/src/services/linkkit/dev_reset\awss_reset.c ****         dump_dev_bind_status(STATE_BIND_REPORT_RESET_FAIL, "awss reset malloc fail");
 308              		.loc 1 133 13 is_stmt 0
 309 01be 1304F0DF 		li	s0,-513
 310 01c2 69BF     		j	.L7
 311              	.LVL33:
 312              	.L8:
 137:C:/Users/stapi/OneDrive/Desktop/GD32VW553/V1_MQTT_OK/GD32VW55X_Wifi_BLE_SDK/GD32VW55x_RELEASE_V1.0.2/MSDK/cloud/alicloud/src/services/linkkit/dev_reset\awss_reset.c **** 
 313              		.loc 1 137 5 is_stmt 1
 314 01c4 13061010 		li	a2,257
 315 01c8 8145     		li	a1,0
 316 01ca 97000000 		call	memset
 316      E7800000 
 317              	.LVL34:
 139:C:/Users/stapi/OneDrive/Desktop/GD32VW553/V1_MQTT_OK/GD32VW55X_Wifi_BLE_SDK/GD32VW55x_RELEASE_V1.0.2/MSDK/cloud/alicloud/src/services/linkkit/dev_reset\awss_reset.c ****         char id_str[AWSS_RESET_MSG_ID_LEN + 1] = {0};
 318              		.loc 1 139 5
 319              	.LBB5:
 140:C:/Users/stapi/OneDrive/Desktop/GD32VW553/V1_MQTT_OK/GD32VW55X_Wifi_BLE_SDK/GD32VW55x_RELEASE_V1.0.2/MSDK/cloud/alicloud/src/services/linkkit/dev_reset\awss_reset.c ****         HAL_Snprintf(id_str, AWSS_RESET_MSG_ID_LEN, "\"%u\"", awss_report_reset_id ++);
 320              		.loc 1 140 9
 141:C:/Users/stapi/OneDrive/Desktop/GD32VW553/V1_MQTT_OK/GD32VW55X_Wifi_BLE_SDK/GD32VW55x_RELEASE_V1.0.2/MSDK/cloud/alicloud/src/services/linkkit/dev_reset\awss_reset.c ****         final_len = HAL_Snprintf(packet, packet_len, AWSS_RESET_REQ_FMT, id_str, METHOD_RESET_REPOR
 321              		.loc 1 141 84 is_stmt 0
 322 01d2 B7070000 		lui	a5,%hi(.LANCHOR3)
 323 01d6 93870700 		addi	a5,a5,%lo(.LANCHOR3)
 324 01da 83D60700 		lhu	a3,0(a5)
 141:C:/Users/stapi/OneDrive/Desktop/GD32VW553/V1_MQTT_OK/GD32VW55X_Wifi_BLE_SDK/GD32VW55x_RELEASE_V1.0.2/MSDK/cloud/alicloud/src/services/linkkit/dev_reset\awss_reset.c ****         final_len = HAL_Snprintf(packet, packet_len, AWSS_RESET_REQ_FMT, id_str, METHOD_RESET_REPOR
 325              		.loc 1 141 9
 326 01de 37060000 		lui	a2,%hi(.LC7)
 327 01e2 13060600 		addi	a2,a2,%lo(.LC7)
 141:C:/Users/stapi/OneDrive/Desktop/GD32VW553/V1_MQTT_OK/GD32VW55X_Wifi_BLE_SDK/GD32VW55x_RELEASE_V1.0.2/MSDK/cloud/alicloud/src/services/linkkit/dev_reset\awss_reset.c ****         final_len = HAL_Snprintf(packet, packet_len, AWSS_RESET_REQ_FMT, id_str, METHOD_RESET_REPOR
 328              		.loc 1 141 84
 329 01e6 13871600 		addi	a4,a3,1
 141:C:/Users/stapi/OneDrive/Desktop/GD32VW553/V1_MQTT_OK/GD32VW55X_Wifi_BLE_SDK/GD32VW55x_RELEASE_V1.0.2/MSDK/cloud/alicloud/src/services/linkkit/dev_reset\awss_reset.c ****         final_len = HAL_Snprintf(packet, packet_len, AWSS_RESET_REQ_FMT, id_str, METHOD_RESET_REPOR
 330              		.loc 1 141 9
 331 01ea C145     		li	a1,16
 332 01ec 6808     		addi	a0,sp,28
 141:C:/Users/stapi/OneDrive/Desktop/GD32VW553/V1_MQTT_OK/GD32VW55X_Wifi_BLE_SDK/GD32VW55x_RELEASE_V1.0.2/MSDK/cloud/alicloud/src/services/linkkit/dev_reset\awss_reset.c ****         final_len = HAL_Snprintf(packet, packet_len, AWSS_RESET_REQ_FMT, id_str, METHOD_RESET_REPOR
 333              		.loc 1 141 84
 334 01ee 2390E700 		sh	a4,0(a5)
 140:C:/Users/stapi/OneDrive/Desktop/GD32VW553/V1_MQTT_OK/GD32VW55X_Wifi_BLE_SDK/GD32VW55x_RELEASE_V1.0.2/MSDK/cloud/alicloud/src/services/linkkit/dev_reset\awss_reset.c ****         HAL_Snprintf(id_str, AWSS_RESET_MSG_ID_LEN, "\"%u\"", awss_report_reset_id ++);
 335              		.loc 1 140 14
 336 01f2 02CE     		sw	zero,28(sp)
 337 01f4 02D0     		sw	zero,32(sp)
 338 01f6 02D2     		sw	zero,36(sp)
 339 01f8 02D4     		sw	zero,40(sp)
 340 01fa 23060102 		sb	zero,44(sp)
 141:C:/Users/stapi/OneDrive/Desktop/GD32VW553/V1_MQTT_OK/GD32VW55X_Wifi_BLE_SDK/GD32VW55x_RELEASE_V1.0.2/MSDK/cloud/alicloud/src/services/linkkit/dev_reset\awss_reset.c ****         final_len = HAL_Snprintf(packet, packet_len, AWSS_RESET_REQ_FMT, id_str, METHOD_RESET_REPOR
 341              		.loc 1 141 9 is_stmt 1
 342 01fe 97000000 		call	HAL_Snprintf
 342      E7800000 
 343              	.LVL35:
 142:C:/Users/stapi/OneDrive/Desktop/GD32VW553/V1_MQTT_OK/GD32VW55X_Wifi_BLE_SDK/GD32VW55x_RELEASE_V1.0.2/MSDK/cloud/alicloud/src/services/linkkit/dev_reset\awss_reset.c ****     } while (0);
 344              		.loc 1 142 9
 142:C:/Users/stapi/OneDrive/Desktop/GD32VW553/V1_MQTT_OK/GD32VW55X_Wifi_BLE_SDK/GD32VW55x_RELEASE_V1.0.2/MSDK/cloud/alicloud/src/services/linkkit/dev_reset\awss_reset.c ****     } while (0);
 345              		.loc 1 142 21 is_stmt 0
 346 0206 83A70900 		lw	a5,0(s3)
 347 020a 37070000 		lui	a4,%hi(.LC8)
 348 020e 37060000 		lui	a2,%hi(.LC9)
 349 0212 13070700 		addi	a4,a4,%lo(.LC8)
 350 0216 7408     		addi	a3,sp,28
 351 0218 13060600 		addi	a2,a2,%lo(.LC9)
 352 021c 93050010 		li	a1,256
 353 0220 4A85     		mv	a0,s2
 354 0222 97000000 		call	HAL_Snprintf
 354      E7800000 
 355              	.LVL36:
 356              	.LBE5:
 145:C:/Users/stapi/OneDrive/Desktop/GD32VW553/V1_MQTT_OK/GD32VW55X_Wifi_BLE_SDK/GD32VW55x_RELEASE_V1.0.2/MSDK/cloud/alicloud/src/services/linkkit/dev_reset\awss_reset.c **** 
 357              		.loc 1 145 5
 358 022a 83A70900 		lw	a5,0(s3)
 359 022e 370A0000 		lui	s4,%hi(.LANCHOR4)
 360 0232 B7090000 		lui	s3,%hi(.LC11)
 361 0236 37070000 		lui	a4,%hi(.LC10)
 362              	.LBB6:
 142:C:/Users/stapi/OneDrive/Desktop/GD32VW553/V1_MQTT_OK/GD32VW55X_Wifi_BLE_SDK/GD32VW55x_RELEASE_V1.0.2/MSDK/cloud/alicloud/src/services/linkkit/dev_reset\awss_reset.c ****     } while (0);
 363              		.loc 1 142 21
 364 023a 2A84     		mv	s0,a0
 365              	.LVL37:
 366              	.LBE6:
 143:C:/Users/stapi/OneDrive/Desktop/GD32VW553/V1_MQTT_OK/GD32VW55X_Wifi_BLE_SDK/GD32VW55x_RELEASE_V1.0.2/MSDK/cloud/alicloud/src/services/linkkit/dev_reset\awss_reset.c **** 
 367              		.loc 1 143 13 is_stmt 1
 145:C:/Users/stapi/OneDrive/Desktop/GD32VW553/V1_MQTT_OK/GD32VW55X_Wifi_BLE_SDK/GD32VW55x_RELEASE_V1.0.2/MSDK/cloud/alicloud/src/services/linkkit/dev_reset\awss_reset.c **** 
 368              		.loc 1 145 5
 369 023c 4A88     		mv	a6,s2
 370 023e 13070700 		addi	a4,a4,%lo(.LC10)
 371 0242 9546     		li	a3,5
 372 0244 13061009 		li	a2,145
 373 0248 93050A00 		addi	a1,s4,%lo(.LANCHOR4)
 374 024c 13850900 		addi	a0,s3,%lo(.LC11)
 375 0250 97000000 		call	LITE_syslog
 375      E7800000 
 376              	.LVL38:
 147:C:/Users/stapi/OneDrive/Desktop/GD32VW553/V1_MQTT_OK/GD32VW55X_Wifi_BLE_SDK/GD32VW55x_RELEASE_V1.0.2/MSDK/cloud/alicloud/src/services/linkkit/dev_reset\awss_reset.c ****     log_debug("[RST]", "report reset result:%d\r\n", ret);
 377              		.loc 1 147 5
 147:C:/Users/stapi/OneDrive/Desktop/GD32VW553/V1_MQTT_OK/GD32VW55X_Wifi_BLE_SDK/GD32VW55x_RELEASE_V1.0.2/MSDK/cloud/alicloud/src/services/linkkit/dev_reset\awss_reset.c ****     log_debug("[RST]", "report reset result:%d\r\n", ret);
 378              		.loc 1 147 11 is_stmt 0
 379 0258 2287     		mv	a4,s0
 380 025a CA86     		mv	a3,s2
 381 025c 0146     		li	a2,0
 382 025e A685     		mv	a1,s1
 383 0260 0145     		li	a0,0
 384 0262 97000000 		call	IOT_MQTT_Publish_Simple
 384      E7800000 
 385              	.LVL39:
 148:C:/Users/stapi/OneDrive/Desktop/GD32VW553/V1_MQTT_OK/GD32VW55X_Wifi_BLE_SDK/GD32VW55x_RELEASE_V1.0.2/MSDK/cloud/alicloud/src/services/linkkit/dev_reset\awss_reset.c ****     if (ret < 0) {
 386              		.loc 1 148 5
 387 026a 37070000 		lui	a4,%hi(.LC12)
 147:C:/Users/stapi/OneDrive/Desktop/GD32VW553/V1_MQTT_OK/GD32VW55X_Wifi_BLE_SDK/GD32VW55x_RELEASE_V1.0.2/MSDK/cloud/alicloud/src/services/linkkit/dev_reset\awss_reset.c ****     log_debug("[RST]", "report reset result:%d\r\n", ret);
 388              		.loc 1 147 11
 389 026e 2A84     		mv	s0,a0
 390              	.LVL40:
 148:C:/Users/stapi/OneDrive/Desktop/GD32VW553/V1_MQTT_OK/GD32VW55X_Wifi_BLE_SDK/GD32VW55x_RELEASE_V1.0.2/MSDK/cloud/alicloud/src/services/linkkit/dev_reset\awss_reset.c ****     if (ret < 0) {
 391              		.loc 1 148 5 is_stmt 1
 392 0270 AA87     		mv	a5,a0
 393 0272 13070700 		addi	a4,a4,%lo(.LC12)
 394 0276 9546     		li	a3,5
 395 0278 13064009 		li	a2,148
 396 027c 93050A00 		addi	a1,s4,%lo(.LANCHOR4)
 397 0280 13850900 		addi	a0,s3,%lo(.LC11)
 398 0284 97000000 		call	LITE_syslog
 398      E7800000 
 399              	.LVL41:
 149:C:/Users/stapi/OneDrive/Desktop/GD32VW553/V1_MQTT_OK/GD32VW55X_Wifi_BLE_SDK/GD32VW55x_RELEASE_V1.0.2/MSDK/cloud/alicloud/src/services/linkkit/dev_reset\awss_reset.c ****         dump_dev_bind_status(STATE_BIND_REPORT_RESET_FAIL, topic);
 400              		.loc 1 149 5
 149:C:/Users/stapi/OneDrive/Desktop/GD32VW553/V1_MQTT_OK/GD32VW55X_Wifi_BLE_SDK/GD32VW55x_RELEASE_V1.0.2/MSDK/cloud/alicloud/src/services/linkkit/dev_reset\awss_reset.c ****         dump_dev_bind_status(STATE_BIND_REPORT_RESET_FAIL, topic);
 401              		.loc 1 149 8 is_stmt 0
 402 028c 635B0400 		bge	s0,zero,.L9
 150:C:/Users/stapi/OneDrive/Desktop/GD32VW553/V1_MQTT_OK/GD32VW55X_Wifi_BLE_SDK/GD32VW55x_RELEASE_V1.0.2/MSDK/cloud/alicloud/src/services/linkkit/dev_reset\awss_reset.c ****     }
 403              		.loc 1 150 9 is_stmt 1
 404 0290 FD75     		li	a1,-4096
 405 0292 2686     		mv	a2,s1
 406 0294 9385C57B 		addi	a1,a1,1980
 407 0298 7D45     		li	a0,31
 408 029a 97000000 		call	iotx_state_event
 408      E7800000 
 409              	.LVL42:
 410              	.L9:
 153:C:/Users/stapi/OneDrive/Desktop/GD32VW553/V1_MQTT_OK/GD32VW55X_Wifi_BLE_SDK/GD32VW55x_RELEASE_V1.0.2/MSDK/cloud/alicloud/src/services/linkkit/dev_reset\awss_reset.c ****     if (topic) AWSS_RESET_FREE(topic);
 411              		.loc 1 153 5
 153:C:/Users/stapi/OneDrive/Desktop/GD32VW553/V1_MQTT_OK/GD32VW55X_Wifi_BLE_SDK/GD32VW55x_RELEASE_V1.0.2/MSDK/cloud/alicloud/src/services/linkkit/dev_reset\awss_reset.c ****     if (topic) AWSS_RESET_FREE(topic);
 412              		.loc 1 153 17
 413 02a2 4A85     		mv	a0,s2
 414 02a4 97000000 		call	LITE_free_internal
 414      E7800000 
 415              	.LVL43:
 416 02ac 45BD     		j	.L7
 417              		.cfi_endproc
 418              	.LFE22:
 420              		.section	.rodata.awss_handle_reset_cloud_reply.str1.4,"aMS",@progbits,1
 421              		.align	2
 422              	.LC13:
 423 0000 61777373 		.string	"awss.rst"
 423      2E727374 
 423      00
 424 0009 000000   		.align	2
 425              	.LC14:
 426 000c 61777373 		.string	"awss.rst.type"
 426      2E727374 
 426      2E747970 
 426      6500
 427              		.section	.text.awss_handle_reset_cloud_reply,"ax",@progbits
 428              		.align	1
 429              		.globl	awss_handle_reset_cloud_reply
 431              	awss_handle_reset_cloud_reply:
 432              	.LFB20:
  29:C:/Users/stapi/OneDrive/Desktop/GD32VW553/V1_MQTT_OK/GD32VW55X_Wifi_BLE_SDK/GD32VW55x_RELEASE_V1.0.2/MSDK/cloud/alicloud/src/services/linkkit/dev_reset\awss_reset.c ****     awss_report_reset_suc = 1;
 433              		.loc 1 29 1
 434              		.cfi_startproc
 435 0000 17030000 		call	t0,__riscv_save_1
 435      E7020300 
 436              		.cfi_offset 8, -8
 437              		.cfi_offset 1, -4
 438              		.cfi_def_cfa_offset 16
  30:C:/Users/stapi/OneDrive/Desktop/GD32VW553/V1_MQTT_OK/GD32VW55X_Wifi_BLE_SDK/GD32VW55x_RELEASE_V1.0.2/MSDK/cloud/alicloud/src/services/linkkit/dev_reset\awss_reset.c ****     HAL_Kv_Del(AWSS_KV_RST);
 439              		.loc 1 30 5
  31:C:/Users/stapi/OneDrive/Desktop/GD32VW553/V1_MQTT_OK/GD32VW55X_Wifi_BLE_SDK/GD32VW55x_RELEASE_V1.0.2/MSDK/cloud/alicloud/src/services/linkkit/dev_reset\awss_reset.c ****     HAL_Kv_Del(AWSS_KV_RST_TYPE);
 440              		.loc 1 31 5 is_stmt 0
 441 0008 37050000 		lui	a0,%hi(.LC13)
  30:C:/Users/stapi/OneDrive/Desktop/GD32VW553/V1_MQTT_OK/GD32VW55X_Wifi_BLE_SDK/GD32VW55x_RELEASE_V1.0.2/MSDK/cloud/alicloud/src/services/linkkit/dev_reset\awss_reset.c ****     HAL_Kv_Del(AWSS_KV_RST);
 442              		.loc 1 30 27
 443 000c B7070000 		lui	a5,%hi(.LANCHOR0)
 444 0010 0547     		li	a4,1
  31:C:/Users/stapi/OneDrive/Desktop/GD32VW553/V1_MQTT_OK/GD32VW55X_Wifi_BLE_SDK/GD32VW55x_RELEASE_V1.0.2/MSDK/cloud/alicloud/src/services/linkkit/dev_reset\awss_reset.c ****     HAL_Kv_Del(AWSS_KV_RST_TYPE);
 445              		.loc 1 31 5
 446 0012 13050500 		addi	a0,a0,%lo(.LC13)
  30:C:/Users/stapi/OneDrive/Desktop/GD32VW553/V1_MQTT_OK/GD32VW55X_Wifi_BLE_SDK/GD32VW55x_RELEASE_V1.0.2/MSDK/cloud/alicloud/src/services/linkkit/dev_reset\awss_reset.c ****     HAL_Kv_Del(AWSS_KV_RST);
 447              		.loc 1 30 27
 448 0016 2380E700 		sb	a4,%lo(.LANCHOR0)(a5)
  31:C:/Users/stapi/OneDrive/Desktop/GD32VW553/V1_MQTT_OK/GD32VW55X_Wifi_BLE_SDK/GD32VW55x_RELEASE_V1.0.2/MSDK/cloud/alicloud/src/services/linkkit/dev_reset\awss_reset.c ****     HAL_Kv_Del(AWSS_KV_RST_TYPE);
 449              		.loc 1 31 5 is_stmt 1
 450 001a 97000000 		call	aos_kv_del
 450      E7800000 
 451              	.LVL44:
  32:C:/Users/stapi/OneDrive/Desktop/GD32VW553/V1_MQTT_OK/GD32VW55X_Wifi_BLE_SDK/GD32VW55x_RELEASE_V1.0.2/MSDK/cloud/alicloud/src/services/linkkit/dev_reset\awss_reset.c **** 
 452              		.loc 1 32 5
 453 0022 37050000 		lui	a0,%hi(.LC14)
 454 0026 13050500 		addi	a0,a0,%lo(.LC14)
  34:C:/Users/stapi/OneDrive/Desktop/GD32VW553/V1_MQTT_OK/GD32VW55X_Wifi_BLE_SDK/GD32VW55x_RELEASE_V1.0.2/MSDK/cloud/alicloud/src/services/linkkit/dev_reset\awss_reset.c ****     {
 455              		.loc 1 34 9 is_stmt 0
 456 002a 37040000 		lui	s0,%hi(.LANCHOR2)
  32:C:/Users/stapi/OneDrive/Desktop/GD32VW553/V1_MQTT_OK/GD32VW55X_Wifi_BLE_SDK/GD32VW55x_RELEASE_V1.0.2/MSDK/cloud/alicloud/src/services/linkkit/dev_reset\awss_reset.c **** 
 457              		.loc 1 32 5
 458 002e 97000000 		call	aos_kv_del
 458      E7800000 
 459              	.LVL45:
  34:C:/Users/stapi/OneDrive/Desktop/GD32VW553/V1_MQTT_OK/GD32VW55X_Wifi_BLE_SDK/GD32VW55x_RELEASE_V1.0.2/MSDK/cloud/alicloud/src/services/linkkit/dev_reset\awss_reset.c ****     {
 460              		.loc 1 34 5 is_stmt 1
  34:C:/Users/stapi/OneDrive/Desktop/GD32VW553/V1_MQTT_OK/GD32VW55X_Wifi_BLE_SDK/GD32VW55x_RELEASE_V1.0.2/MSDK/cloud/alicloud/src/services/linkkit/dev_reset\awss_reset.c ****     {
 461              		.loc 1 34 9 is_stmt 0
 462 0036 13040400 		addi	s0,s0,%lo(.LANCHOR2)
 463 003a 0840     		lw	a0,0(s0)
  34:C:/Users/stapi/OneDrive/Desktop/GD32VW553/V1_MQTT_OK/GD32VW55X_Wifi_BLE_SDK/GD32VW55x_RELEASE_V1.0.2/MSDK/cloud/alicloud/src/services/linkkit/dev_reset\awss_reset.c ****     {
 464              		.loc 1 34 8
 465 003c 01CD     		beq	a0,zero,.L12
  36:C:/Users/stapi/OneDrive/Desktop/GD32VW553/V1_MQTT_OK/GD32VW55X_Wifi_BLE_SDK/GD32VW55x_RELEASE_V1.0.2/MSDK/cloud/alicloud/src/services/linkkit/dev_reset\awss_reset.c ****         HAL_Timer_Delete(report_reset_timer);
 466              		.loc 1 36 9 is_stmt 1
 467 003e 97000000 		call	HAL_Timer_Stop
 467      E7800000 
 468              	.LVL46:
  37:C:/Users/stapi/OneDrive/Desktop/GD32VW553/V1_MQTT_OK/GD32VW55X_Wifi_BLE_SDK/GD32VW55x_RELEASE_V1.0.2/MSDK/cloud/alicloud/src/services/linkkit/dev_reset\awss_reset.c ****         report_reset_timer = NULL;
 469              		.loc 1 37 9
 470 0046 0840     		lw	a0,0(s0)
 471 0048 97000000 		call	HAL_Timer_Delete
 471      E7800000 
 472              	.LVL47:
  38:C:/Users/stapi/OneDrive/Desktop/GD32VW553/V1_MQTT_OK/GD32VW55X_Wifi_BLE_SDK/GD32VW55x_RELEASE_V1.0.2/MSDK/cloud/alicloud/src/services/linkkit/dev_reset\awss_reset.c ****     }
 473              		.loc 1 38 9
  38:C:/Users/stapi/OneDrive/Desktop/GD32VW553/V1_MQTT_OK/GD32VW55X_Wifi_BLE_SDK/GD32VW55x_RELEASE_V1.0.2/MSDK/cloud/alicloud/src/services/linkkit/dev_reset\awss_reset.c ****     }
 474              		.loc 1 38 28 is_stmt 0
 475 0050 23200400 		sw	zero,0(s0)
 476              	.L12:
  41:C:/Users/stapi/OneDrive/Desktop/GD32VW553/V1_MQTT_OK/GD32VW55X_Wifi_BLE_SDK/GD32VW55x_RELEASE_V1.0.2/MSDK/cloud/alicloud/src/services/linkkit/dev_reset\awss_reset.c **** 
 477              		.loc 1 41 5 is_stmt 1
 478 0054 0545     		li	a0,1
 479 0056 97000000 		call	awss_rst_update_statis
 479      E7800000 
 480              	.LVL48:
  43:C:/Users/stapi/OneDrive/Desktop/GD32VW553/V1_MQTT_OK/GD32VW55X_Wifi_BLE_SDK/GD32VW55x_RELEASE_V1.0.2/MSDK/cloud/alicloud/src/services/linkkit/dev_reset\awss_reset.c ****     do {  // for new version of event
 481              		.loc 1 43 5
 482 005e 0D65     		li	a0,12288
 483 0060 97000000 		call	iotx_event_post
 483      E7800000 
 484              	.LVL49:
  44:C:/Users/stapi/OneDrive/Desktop/GD32VW553/V1_MQTT_OK/GD32VW55X_Wifi_BLE_SDK/GD32VW55x_RELEASE_V1.0.2/MSDK/cloud/alicloud/src/services/linkkit/dev_reset\awss_reset.c ****         void *cb = NULL;
 485              		.loc 1 44 5
 486              	.LBB7:
  45:C:/Users/stapi/OneDrive/Desktop/GD32VW553/V1_MQTT_OK/GD32VW55X_Wifi_BLE_SDK/GD32VW55x_RELEASE_V1.0.2/MSDK/cloud/alicloud/src/services/linkkit/dev_reset\awss_reset.c ****         cb = (void *)iotx_event_callback(ITE_AWSS_STATUS);
 487              		.loc 1 45 9
  46:C:/Users/stapi/OneDrive/Desktop/GD32VW553/V1_MQTT_OK/GD32VW55X_Wifi_BLE_SDK/GD32VW55x_RELEASE_V1.0.2/MSDK/cloud/alicloud/src/services/linkkit/dev_reset\awss_reset.c ****         if (cb == NULL) break;
 488              		.loc 1 46 9
  46:C:/Users/stapi/OneDrive/Desktop/GD32VW553/V1_MQTT_OK/GD32VW55X_Wifi_BLE_SDK/GD32VW55x_RELEASE_V1.0.2/MSDK/cloud/alicloud/src/services/linkkit/dev_reset\awss_reset.c ****         if (cb == NULL) break;
 489              		.loc 1 46 14 is_stmt 0
 490 0068 0145     		li	a0,0
 491 006a 97000000 		call	iotx_event_callback
 491      E7800000 
 492              	.LVL50:
 493 0072 AA87     		mv	a5,a0
 494              	.LVL51:
  47:C:/Users/stapi/OneDrive/Desktop/GD32VW553/V1_MQTT_OK/GD32VW55X_Wifi_BLE_SDK/GD32VW55x_RELEASE_V1.0.2/MSDK/cloud/alicloud/src/services/linkkit/dev_reset\awss_reset.c ****         ((int (*)(int))cb)(IOTX_RESET);
 495              		.loc 1 47 9 is_stmt 1
  47:C:/Users/stapi/OneDrive/Desktop/GD32VW553/V1_MQTT_OK/GD32VW55X_Wifi_BLE_SDK/GD32VW55x_RELEASE_V1.0.2/MSDK/cloud/alicloud/src/services/linkkit/dev_reset\awss_reset.c ****         ((int (*)(int))cb)(IOTX_RESET);
 496              		.loc 1 47 12 is_stmt 0
 497 0074 19C1     		beq	a0,zero,.L13
  48:C:/Users/stapi/OneDrive/Desktop/GD32VW553/V1_MQTT_OK/GD32VW55X_Wifi_BLE_SDK/GD32VW55x_RELEASE_V1.0.2/MSDK/cloud/alicloud/src/services/linkkit/dev_reset\awss_reset.c ****     } while (0);
 498              		.loc 1 48 9 is_stmt 1
  48:C:/Users/stapi/OneDrive/Desktop/GD32VW553/V1_MQTT_OK/GD32VW55X_Wifi_BLE_SDK/GD32VW55x_RELEASE_V1.0.2/MSDK/cloud/alicloud/src/services/linkkit/dev_reset\awss_reset.c ****     } while (0);
 499              		.loc 1 48 10 is_stmt 0
 500 0076 0D65     		li	a0,12288
 501              	.LVL52:
 502 0078 8297     		jalr	a5
 503              	.LVL53:
 504              	.L13:
 505              	.LBE7:
  49:C:/Users/stapi/OneDrive/Desktop/GD32VW553/V1_MQTT_OK/GD32VW55X_Wifi_BLE_SDK/GD32VW55x_RELEASE_V1.0.2/MSDK/cloud/alicloud/src/services/linkkit/dev_reset\awss_reset.c **** 
 506              		.loc 1 49 13 is_stmt 1
  51:C:/Users/stapi/OneDrive/Desktop/GD32VW553/V1_MQTT_OK/GD32VW55X_Wifi_BLE_SDK/GD32VW55x_RELEASE_V1.0.2/MSDK/cloud/alicloud/src/services/linkkit/dev_reset\awss_reset.c **** 
 507              		.loc 1 51 5
 508 007a 97000000 		call	awss_rst_disp_statis
 508      E7800000 
 509              	.LVL54:
  53:C:/Users/stapi/OneDrive/Desktop/GD32VW553/V1_MQTT_OK/GD32VW55X_Wifi_BLE_SDK/GD32VW55x_RELEASE_V1.0.2/MSDK/cloud/alicloud/src/services/linkkit/dev_reset\awss_reset.c **** }
 510              		.loc 1 53 5
  54:C:/Users/stapi/OneDrive/Desktop/GD32VW553/V1_MQTT_OK/GD32VW55X_Wifi_BLE_SDK/GD32VW55x_RELEASE_V1.0.2/MSDK/cloud/alicloud/src/services/linkkit/dev_reset\awss_reset.c **** 
 511              		.loc 1 54 1 is_stmt 0
 512 0082 0145     		li	a0,0
 513 0084 17030000 		tail	__riscv_restore_1
 513      67000300 
 514              		.cfi_restore 8
 515              		.cfi_restore 1
 516              		.cfi_def_cfa_offset 0
 517              		.cfi_endproc
 518              	.LFE20:
 520              		.section	.rodata.awss_report_reset_reply.str1.4,"aMS",@progbits,1
 521              		.align	2
 522              	.LC15:
 523 0000 5B696E66 		.string	"[inf] "
 523      5D2000
 524 0007 00       		.align	2
 525              	.LC16:
 526 0008 676F7420 		.string	"got cloud reset reply"
 526      636C6F75 
 526      64207265 
 526      73657420 
 526      7265706C 
 527 001e 0000     		.align	2
 528              	.LC17:
 529 0020 0D0A00   		.string	"\r\n"
 530              		.section	.text.awss_report_reset_reply,"ax",@progbits
 531              		.align	1
 533              	awss_report_reset_reply:
 534              	.LFB21:
  57:C:/Users/stapi/OneDrive/Desktop/GD32VW553/V1_MQTT_OK/GD32VW55X_Wifi_BLE_SDK/GD32VW55x_RELEASE_V1.0.2/MSDK/cloud/alicloud/src/services/linkkit/dev_reset\awss_reset.c ****     char rst = 0;
 535              		.loc 1 57 1 is_stmt 1
 536              		.cfi_startproc
 537              	.LVL55:
  58:C:/Users/stapi/OneDrive/Desktop/GD32VW553/V1_MQTT_OK/GD32VW55X_Wifi_BLE_SDK/GD32VW55x_RELEASE_V1.0.2/MSDK/cloud/alicloud/src/services/linkkit/dev_reset\awss_reset.c **** 
 538              		.loc 1 58 5
  60:C:/Users/stapi/OneDrive/Desktop/GD32VW553/V1_MQTT_OK/GD32VW55X_Wifi_BLE_SDK/GD32VW55x_RELEASE_V1.0.2/MSDK/cloud/alicloud/src/services/linkkit/dev_reset\awss_reset.c **** 
 539              		.loc 1 60 5
  62:C:/Users/stapi/OneDrive/Desktop/GD32VW553/V1_MQTT_OK/GD32VW55X_Wifi_BLE_SDK/GD32VW55x_RELEASE_V1.0.2/MSDK/cloud/alicloud/src/services/linkkit/dev_reset\awss_reset.c ****         case IOTX_MQTT_EVENT_PUBLISH_RECEIVED:
 540              		.loc 1 62 5
 541 0000 1842     		lw	a4,0(a2)
 542 0002 B147     		li	a5,12
 543 0004 6316F704 		bne	a4,a5,.L24
  57:C:/Users/stapi/OneDrive/Desktop/GD32VW553/V1_MQTT_OK/GD32VW55X_Wifi_BLE_SDK/GD32VW55x_RELEASE_V1.0.2/MSDK/cloud/alicloud/src/services/linkkit/dev_reset\awss_reset.c ****     char rst = 0;
 544              		.loc 1 57 1 is_stmt 0
 545 0008 17030000 		call	t0,__riscv_save_0
 545      E7020300 
 546              		.cfi_offset 1, -4
 547              		.cfi_def_cfa_offset 16
 548              	.LVL56:
 549              	.LBB10:
 550              	.LBB11:
  64:C:/Users/stapi/OneDrive/Desktop/GD32VW553/V1_MQTT_OK/GD32VW55X_Wifi_BLE_SDK/GD32VW55x_RELEASE_V1.0.2/MSDK/cloud/alicloud/src/services/linkkit/dev_reset\awss_reset.c ****         default:
 551              		.loc 1 64 13 is_stmt 1
  69:C:/Users/stapi/OneDrive/Desktop/GD32VW553/V1_MQTT_OK/GD32VW55X_Wifi_BLE_SDK/GD32VW55x_RELEASE_V1.0.2/MSDK/cloud/alicloud/src/services/linkkit/dev_reset\awss_reset.c **** 
 552              		.loc 1 69 5
  69:C:/Users/stapi/OneDrive/Desktop/GD32VW553/V1_MQTT_OK/GD32VW55X_Wifi_BLE_SDK/GD32VW55x_RELEASE_V1.0.2/MSDK/cloud/alicloud/src/services/linkkit/dev_reset\awss_reset.c **** 
 553              		.loc 1 69 5
 554 0010 37050000 		lui	a0,%hi(.LC15)
 555              	.LVL57:
 556 0014 13050500 		addi	a0,a0,%lo(.LC15)
 557 0018 97000000 		call	HAL_Printf
 557      E7800000 
 558              	.LVL58:
  69:C:/Users/stapi/OneDrive/Desktop/GD32VW553/V1_MQTT_OK/GD32VW55X_Wifi_BLE_SDK/GD32VW55x_RELEASE_V1.0.2/MSDK/cloud/alicloud/src/services/linkkit/dev_reset\awss_reset.c **** 
 559              		.loc 1 69 5
 560 0020 37050000 		lui	a0,%hi(.LC16)
 561 0024 13050500 		addi	a0,a0,%lo(.LC16)
 562 0028 97000000 		call	HAL_Printf
 562      E7800000 
 563              	.LVL59:
  69:C:/Users/stapi/OneDrive/Desktop/GD32VW553/V1_MQTT_OK/GD32VW55X_Wifi_BLE_SDK/GD32VW55x_RELEASE_V1.0.2/MSDK/cloud/alicloud/src/services/linkkit/dev_reset\awss_reset.c **** 
 564              		.loc 1 69 5
 565 0030 37050000 		lui	a0,%hi(.LC17)
 566 0034 13050500 		addi	a0,a0,%lo(.LC17)
 567 0038 97000000 		call	HAL_Printf
 567      E7800000 
 568              	.LVL60:
  69:C:/Users/stapi/OneDrive/Desktop/GD32VW553/V1_MQTT_OK/GD32VW55X_Wifi_BLE_SDK/GD32VW55x_RELEASE_V1.0.2/MSDK/cloud/alicloud/src/services/linkkit/dev_reset\awss_reset.c **** 
 569              		.loc 1 69 5
  71:C:/Users/stapi/OneDrive/Desktop/GD32VW553/V1_MQTT_OK/GD32VW55X_Wifi_BLE_SDK/GD32VW55x_RELEASE_V1.0.2/MSDK/cloud/alicloud/src/services/linkkit/dev_reset\awss_reset.c **** }
 570              		.loc 1 71 5
 571 0040 97000000 		call	awss_handle_reset_cloud_reply
 571      E7800000 
 572              	.LVL61:
 573              	.LBE11:
 574              	.LBE10:
  72:C:/Users/stapi/OneDrive/Desktop/GD32VW553/V1_MQTT_OK/GD32VW55X_Wifi_BLE_SDK/GD32VW55x_RELEASE_V1.0.2/MSDK/cloud/alicloud/src/services/linkkit/dev_reset\awss_reset.c **** 
 575              		.loc 1 72 1 is_stmt 0
 576 0048 17030000 		tail	__riscv_restore_0
 576      67000300 
 577              		.cfi_restore 1
 578              		.cfi_def_cfa_offset 0
 579              	.LVL62:
 580              	.L24:
 581 0050 8280     		ret
 582              		.cfi_endproc
 583              	.LFE21:
 585              		.section	.rodata.awss_report_reset.str1.4,"aMS",@progbits,1
 586              		.align	2
 587              	.LC18:
 588 0000 5B77726E 		.string	"[wrn] "
 588      5D2000
 589 0007 00       		.align	2
 590              	.LC19:
 591 0008 72657365 		.string	"reset_type is NULL use default:%d"
 591      745F7479 
 591      70652069 
 591      73204E55 
 591      4C4C2075 
 592 002a 0000     		.align	2
 593              	.LC20:
 594 002c 73657420 		.string	"set reset kv flag fail"
 594      72657365 
 594      74206B76 
 594      20666C61 
 594      67206661 
 595 0043 00       		.align	2
 596              	.LC21:
 597 0044 73657420 		.string	"set reset_type kv flag fail"
 597      72657365 
 597      745F7479 
 597      7065206B 
 597      7620666C 
 598              		.align	2
 599              	.LC22:
 600 0060 61777373 		.string	"awss report reset cloud ret:%d"
 600      20726570 
 600      6F727420 
 600      72657365 
 600      7420636C 
 601              		.section	.text.awss_report_reset,"ax",@progbits
 602              		.align	1
 603              		.globl	awss_report_reset
 605              	awss_report_reset:
 606              	.LFB23:
 157:C:/Users/stapi/OneDrive/Desktop/GD32VW553/V1_MQTT_OK/GD32VW55X_Wifi_BLE_SDK/GD32VW55x_RELEASE_V1.0.2/MSDK/cloud/alicloud/src/services/linkkit/dev_reset\awss_reset.c **** 
 158:C:/Users/stapi/OneDrive/Desktop/GD32VW553/V1_MQTT_OK/GD32VW55X_Wifi_BLE_SDK/GD32VW55x_RELEASE_V1.0.2/MSDK/cloud/alicloud/src/services/linkkit/dev_reset\awss_reset.c **** int awss_report_reset(iotx_vendor_dev_reset_type_t *reset_type)
 159:C:/Users/stapi/OneDrive/Desktop/GD32VW553/V1_MQTT_OK/GD32VW55X_Wifi_BLE_SDK/GD32VW55x_RELEASE_V1.0.2/MSDK/cloud/alicloud/src/services/linkkit/dev_reset\awss_reset.c **** {
 607              		.loc 1 159 1 is_stmt 1
 608              		.cfi_startproc
 609              	.LVL63:
 610 0000 17030000 		call	t0,__riscv_save_2
 610      E7020300 
 611              		.cfi_offset 9, -12
 612              		.cfi_offset 8, -8
 613              		.cfi_offset 1, -4
 614              		.cfi_def_cfa_offset 16
 160:C:/Users/stapi/OneDrive/Desktop/GD32VW553/V1_MQTT_OK/GD32VW55X_Wifi_BLE_SDK/GD32VW55x_RELEASE_V1.0.2/MSDK/cloud/alicloud/src/services/linkkit/dev_reset\awss_reset.c ****     char rst = 0x01;
 615              		.loc 1 160 5
 159:C:/Users/stapi/OneDrive/Desktop/GD32VW553/V1_MQTT_OK/GD32VW55X_Wifi_BLE_SDK/GD32VW55x_RELEASE_V1.0.2/MSDK/cloud/alicloud/src/services/linkkit/dev_reset\awss_reset.c ****     char rst = 0x01;
 616              		.loc 1 159 1 is_stmt 0
 617 0008 4111     		addi	sp,sp,-16
 618              		.cfi_def_cfa_offset 32
 619              		.loc 1 160 10
 620 000a 8547     		li	a5,1
 161:C:/Users/stapi/OneDrive/Desktop/GD32VW553/V1_MQTT_OK/GD32VW55X_Wifi_BLE_SDK/GD32VW55x_RELEASE_V1.0.2/MSDK/cloud/alicloud/src/services/linkkit/dev_reset\awss_reset.c ****     int ret;
 162:C:/Users/stapi/OneDrive/Desktop/GD32VW553/V1_MQTT_OK/GD32VW55X_Wifi_BLE_SDK/GD32VW55x_RELEASE_V1.0.2/MSDK/cloud/alicloud/src/services/linkkit/dev_reset\awss_reset.c ****     awss_report_reset_suc = 0;
 621              		.loc 1 162 27
 622 000c 37070000 		lui	a4,%hi(.LANCHOR0)
 160:C:/Users/stapi/OneDrive/Desktop/GD32VW553/V1_MQTT_OK/GD32VW55X_Wifi_BLE_SDK/GD32VW55x_RELEASE_V1.0.2/MSDK/cloud/alicloud/src/services/linkkit/dev_reset\awss_reset.c ****     int ret;
 623              		.loc 1 160 10
 624 0010 A305F100 		sb	a5,11(sp)
 161:C:/Users/stapi/OneDrive/Desktop/GD32VW553/V1_MQTT_OK/GD32VW55X_Wifi_BLE_SDK/GD32VW55x_RELEASE_V1.0.2/MSDK/cloud/alicloud/src/services/linkkit/dev_reset\awss_reset.c ****     int ret;
 625              		.loc 1 161 5 is_stmt 1
 626              		.loc 1 162 5
 627              		.loc 1 162 27 is_stmt 0
 628 0014 23000700 		sb	zero,%lo(.LANCHOR0)(a4)
 163:C:/Users/stapi/OneDrive/Desktop/GD32VW553/V1_MQTT_OK/GD32VW55X_Wifi_BLE_SDK/GD32VW55x_RELEASE_V1.0.2/MSDK/cloud/alicloud/src/services/linkkit/dev_reset\awss_reset.c ****     iotx_vendor_dev_reset_type_t l_reset_type = IOTX_VENDOR_DEV_RESET_TYPE_UNBIND_SHADOW_CLEAR;
 629              		.loc 1 163 5 is_stmt 1
 630              		.loc 1 163 34 is_stmt 0
 631 0018 3EC6     		sw	a5,12(sp)
 164:C:/Users/stapi/OneDrive/Desktop/GD32VW553/V1_MQTT_OK/GD32VW55X_Wifi_BLE_SDK/GD32VW55x_RELEASE_V1.0.2/MSDK/cloud/alicloud/src/services/linkkit/dev_reset\awss_reset.c **** 
 165:C:/Users/stapi/OneDrive/Desktop/GD32VW553/V1_MQTT_OK/GD32VW55X_Wifi_BLE_SDK/GD32VW55x_RELEASE_V1.0.2/MSDK/cloud/alicloud/src/services/linkkit/dev_reset\awss_reset.c ****     if (reset_type == NULL)
 632              		.loc 1 165 5 is_stmt 1
 159:C:/Users/stapi/OneDrive/Desktop/GD32VW553/V1_MQTT_OK/GD32VW55X_Wifi_BLE_SDK/GD32VW55x_RELEASE_V1.0.2/MSDK/cloud/alicloud/src/services/linkkit/dev_reset\awss_reset.c ****     char rst = 0x01;
 633              		.loc 1 159 1 is_stmt 0
 634 001a 2A84     		mv	s0,a0
 635 001c B7040000 		lui	s1,%hi(.LC17)
 636              		.loc 1 165 8
 637 0020 75E1     		bne	a0,zero,.L28
 166:C:/Users/stapi/OneDrive/Desktop/GD32VW553/V1_MQTT_OK/GD32VW55X_Wifi_BLE_SDK/GD32VW55x_RELEASE_V1.0.2/MSDK/cloud/alicloud/src/services/linkkit/dev_reset\awss_reset.c ****     {
 167:C:/Users/stapi/OneDrive/Desktop/GD32VW553/V1_MQTT_OK/GD32VW55X_Wifi_BLE_SDK/GD32VW55x_RELEASE_V1.0.2/MSDK/cloud/alicloud/src/services/linkkit/dev_reset\awss_reset.c ****         log_warning("RST", "reset_type is NULL use default:%d", l_reset_type);
 638              		.loc 1 167 9 is_stmt 1
 639              		.loc 1 167 9
 640 0022 37050000 		lui	a0,%hi(.LC18)
 641              	.LVL64:
 642 0026 13050500 		addi	a0,a0,%lo(.LC18)
 643 002a 97000000 		call	HAL_Printf
 643      E7800000 
 644              	.LVL65:
 645              		.loc 1 167 9
 646 0032 B245     		lw	a1,12(sp)
 647 0034 37050000 		lui	a0,%hi(.LC19)
 648 0038 13050500 		addi	a0,a0,%lo(.LC19)
 649 003c 97000000 		call	HAL_Printf
 649      E7800000 
 650              	.LVL66:
 651              		.loc 1 167 9
 652 0044 13850400 		addi	a0,s1,%lo(.LC17)
 653 0048 97000000 		call	HAL_Printf
 653      E7800000 
 654              	.LVL67:
 655              		.loc 1 167 9
 656              	.L29:
 168:C:/Users/stapi/OneDrive/Desktop/GD32VW553/V1_MQTT_OK/GD32VW55X_Wifi_BLE_SDK/GD32VW55x_RELEASE_V1.0.2/MSDK/cloud/alicloud/src/services/linkkit/dev_reset\awss_reset.c ****     }
 169:C:/Users/stapi/OneDrive/Desktop/GD32VW553/V1_MQTT_OK/GD32VW55X_Wifi_BLE_SDK/GD32VW55x_RELEASE_V1.0.2/MSDK/cloud/alicloud/src/services/linkkit/dev_reset\awss_reset.c ****     else
 170:C:/Users/stapi/OneDrive/Desktop/GD32VW553/V1_MQTT_OK/GD32VW55X_Wifi_BLE_SDK/GD32VW55x_RELEASE_V1.0.2/MSDK/cloud/alicloud/src/services/linkkit/dev_reset\awss_reset.c ****     {
 171:C:/Users/stapi/OneDrive/Desktop/GD32VW553/V1_MQTT_OK/GD32VW55X_Wifi_BLE_SDK/GD32VW55x_RELEASE_V1.0.2/MSDK/cloud/alicloud/src/services/linkkit/dev_reset\awss_reset.c ****         l_reset_type = *((iotx_vendor_dev_reset_type_t *)reset_type);
 172:C:/Users/stapi/OneDrive/Desktop/GD32VW553/V1_MQTT_OK/GD32VW55X_Wifi_BLE_SDK/GD32VW55x_RELEASE_V1.0.2/MSDK/cloud/alicloud/src/services/linkkit/dev_reset\awss_reset.c ****     }
 173:C:/Users/stapi/OneDrive/Desktop/GD32VW553/V1_MQTT_OK/GD32VW55X_Wifi_BLE_SDK/GD32VW55x_RELEASE_V1.0.2/MSDK/cloud/alicloud/src/services/linkkit/dev_reset\awss_reset.c **** 
 174:C:/Users/stapi/OneDrive/Desktop/GD32VW553/V1_MQTT_OK/GD32VW55X_Wifi_BLE_SDK/GD32VW55x_RELEASE_V1.0.2/MSDK/cloud/alicloud/src/services/linkkit/dev_reset\awss_reset.c ****     if (l_reset_type < IOTX_VENDOR_DEV_RESET_TYPE_UNBIND_ONLY || l_reset_type > IOTX_VENDOR_DEV_RES
 657              		.loc 1 174 5
 658              		.loc 1 174 8 is_stmt 0
 659 0050 3247     		lw	a4,12(sp)
 660 0052 B147     		li	a5,12
 661 0054 63F4E700 		bleu	a4,a5,.L30
 175:C:/Users/stapi/OneDrive/Desktop/GD32VW553/V1_MQTT_OK/GD32VW55X_Wifi_BLE_SDK/GD32VW55x_RELEASE_V1.0.2/MSDK/cloud/alicloud/src/services/linkkit/dev_reset\awss_reset.c ****     {
 176:C:/Users/stapi/OneDrive/Desktop/GD32VW553/V1_MQTT_OK/GD32VW55X_Wifi_BLE_SDK/GD32VW55x_RELEASE_V1.0.2/MSDK/cloud/alicloud/src/services/linkkit/dev_reset\awss_reset.c ****         l_reset_type = IOTX_VENDOR_DEV_RESET_TYPE_UNBIND_SHADOW_CLEAR;
 662              		.loc 1 176 9 is_stmt 1
 663              		.loc 1 176 22 is_stmt 0
 664 0058 8547     		li	a5,1
 665 005a 3EC6     		sw	a5,12(sp)
 666              	.L30:
 177:C:/Users/stapi/OneDrive/Desktop/GD32VW553/V1_MQTT_OK/GD32VW55X_Wifi_BLE_SDK/GD32VW55x_RELEASE_V1.0.2/MSDK/cloud/alicloud/src/services/linkkit/dev_reset\awss_reset.c ****     }
 178:C:/Users/stapi/OneDrive/Desktop/GD32VW553/V1_MQTT_OK/GD32VW55X_Wifi_BLE_SDK/GD32VW55x_RELEASE_V1.0.2/MSDK/cloud/alicloud/src/services/linkkit/dev_reset\awss_reset.c **** 
 179:C:/Users/stapi/OneDrive/Desktop/GD32VW553/V1_MQTT_OK/GD32VW55X_Wifi_BLE_SDK/GD32VW55x_RELEASE_V1.0.2/MSDK/cloud/alicloud/src/services/linkkit/dev_reset\awss_reset.c ****     ret = HAL_Kv_Set(AWSS_KV_RST, &rst, sizeof(rst), 0);
 667              		.loc 1 179 5 is_stmt 1
 668              		.loc 1 179 11 is_stmt 0
 669 005c 37050000 		lui	a0,%hi(.LC13)
 670 0060 8146     		li	a3,0
 671 0062 0546     		li	a2,1
 672 0064 9305B100 		addi	a1,sp,11
 673 0068 13050500 		addi	a0,a0,%lo(.LC13)
 674 006c 97000000 		call	aos_kv_set
 674      E7800000 
 675              	.LVL68:
 180:C:/Users/stapi/OneDrive/Desktop/GD32VW553/V1_MQTT_OK/GD32VW55X_Wifi_BLE_SDK/GD32VW55x_RELEASE_V1.0.2/MSDK/cloud/alicloud/src/services/linkkit/dev_reset\awss_reset.c ****     if (ret < 0) {
 676              		.loc 1 180 5 is_stmt 1
 677              		.loc 1 180 8 is_stmt 0
 678 0074 635D0500 		bge	a0,zero,.L31
 181:C:/Users/stapi/OneDrive/Desktop/GD32VW553/V1_MQTT_OK/GD32VW55X_Wifi_BLE_SDK/GD32VW55x_RELEASE_V1.0.2/MSDK/cloud/alicloud/src/services/linkkit/dev_reset\awss_reset.c ****         dump_dev_bind_status(STATE_SYS_DEPEND_KV_SET, "set reset kv flag fail");
 679              		.loc 1 181 9 is_stmt 1
 680 0078 37060000 		lui	a2,%hi(.LC20)
 681 007c 13060600 		addi	a2,a2,%lo(.LC20)
 682 0080 9305D0DF 		li	a1,-515
 683 0084 7D45     		li	a0,31
 684              	.LVL69:
 685 0086 97000000 		call	iotx_state_event
 685      E7800000 
 686              	.LVL70:
 687              	.L31:
 182:C:/Users/stapi/OneDrive/Desktop/GD32VW553/V1_MQTT_OK/GD32VW55X_Wifi_BLE_SDK/GD32VW55x_RELEASE_V1.0.2/MSDK/cloud/alicloud/src/services/linkkit/dev_reset\awss_reset.c ****     }
 183:C:/Users/stapi/OneDrive/Desktop/GD32VW553/V1_MQTT_OK/GD32VW55X_Wifi_BLE_SDK/GD32VW55x_RELEASE_V1.0.2/MSDK/cloud/alicloud/src/services/linkkit/dev_reset\awss_reset.c **** 
 184:C:/Users/stapi/OneDrive/Desktop/GD32VW553/V1_MQTT_OK/GD32VW55X_Wifi_BLE_SDK/GD32VW55x_RELEASE_V1.0.2/MSDK/cloud/alicloud/src/services/linkkit/dev_reset\awss_reset.c ****     ret = HAL_Kv_Set(AWSS_KV_RST_TYPE, reset_type, sizeof(iotx_vendor_dev_reset_type_t), 0);
 688              		.loc 1 184 5
 689              		.loc 1 184 11 is_stmt 0
 690 008e 37050000 		lui	a0,%hi(.LC14)
 691 0092 8146     		li	a3,0
 692 0094 1146     		li	a2,4
 693 0096 A285     		mv	a1,s0
 694 0098 13050500 		addi	a0,a0,%lo(.LC14)
 695 009c 97000000 		call	aos_kv_set
 695      E7800000 
 696              	.LVL71:
 185:C:/Users/stapi/OneDrive/Desktop/GD32VW553/V1_MQTT_OK/GD32VW55X_Wifi_BLE_SDK/GD32VW55x_RELEASE_V1.0.2/MSDK/cloud/alicloud/src/services/linkkit/dev_reset\awss_reset.c ****     if (ret < 0) {
 697              		.loc 1 185 5 is_stmt 1
 698              		.loc 1 185 8 is_stmt 0
 699 00a4 635D0500 		bge	a0,zero,.L32
 186:C:/Users/stapi/OneDrive/Desktop/GD32VW553/V1_MQTT_OK/GD32VW55X_Wifi_BLE_SDK/GD32VW55x_RELEASE_V1.0.2/MSDK/cloud/alicloud/src/services/linkkit/dev_reset\awss_reset.c ****         dump_dev_bind_status(STATE_SYS_DEPEND_KV_SET, "set reset_type kv flag fail");
 700              		.loc 1 186 9 is_stmt 1
 701 00a8 37060000 		lui	a2,%hi(.LC21)
 702 00ac 13060600 		addi	a2,a2,%lo(.LC21)
 703 00b0 9305D0DF 		li	a1,-515
 704 00b4 7D45     		li	a0,31
 705              	.LVL72:
 706 00b6 97000000 		call	iotx_state_event
 706      E7800000 
 707              	.LVL73:
 708              	.L32:
 187:C:/Users/stapi/OneDrive/Desktop/GD32VW553/V1_MQTT_OK/GD32VW55X_Wifi_BLE_SDK/GD32VW55x_RELEASE_V1.0.2/MSDK/cloud/alicloud/src/services/linkkit/dev_reset\awss_reset.c ****     }
 188:C:/Users/stapi/OneDrive/Desktop/GD32VW553/V1_MQTT_OK/GD32VW55X_Wifi_BLE_SDK/GD32VW55x_RELEASE_V1.0.2/MSDK/cloud/alicloud/src/services/linkkit/dev_reset\awss_reset.c **** 
 189:C:/Users/stapi/OneDrive/Desktop/GD32VW553/V1_MQTT_OK/GD32VW55X_Wifi_BLE_SDK/GD32VW55x_RELEASE_V1.0.2/MSDK/cloud/alicloud/src/services/linkkit/dev_reset\awss_reset.c ****     ret = awss_report_reset_to_cloud(&l_reset_type);
 709              		.loc 1 189 5
 710              		.loc 1 189 11 is_stmt 0
 711 00be 6800     		addi	a0,sp,12
 712 00c0 97000000 		call	awss_report_reset_to_cloud
 712      E7800000 
 713              	.LVL74:
 714 00c8 2A84     		mv	s0,a0
 715              	.LVL75:
 190:C:/Users/stapi/OneDrive/Desktop/GD32VW553/V1_MQTT_OK/GD32VW55X_Wifi_BLE_SDK/GD32VW55x_RELEASE_V1.0.2/MSDK/cloud/alicloud/src/services/linkkit/dev_reset\awss_reset.c **** 
 191:C:/Users/stapi/OneDrive/Desktop/GD32VW553/V1_MQTT_OK/GD32VW55X_Wifi_BLE_SDK/GD32VW55x_RELEASE_V1.0.2/MSDK/cloud/alicloud/src/services/linkkit/dev_reset\awss_reset.c ****     log_info("RST", "awss report reset cloud ret:%d", ret);
 716              		.loc 1 191 5 is_stmt 1
 717              		.loc 1 191 5
 718 00ca 37050000 		lui	a0,%hi(.LC15)
 719 00ce 13050500 		addi	a0,a0,%lo(.LC15)
 720 00d2 97000000 		call	HAL_Printf
 720      E7800000 
 721              	.LVL76:
 722              		.loc 1 191 5
 723 00da 37050000 		lui	a0,%hi(.LC22)
 724 00de A285     		mv	a1,s0
 725 00e0 13050500 		addi	a0,a0,%lo(.LC22)
 726 00e4 97000000 		call	HAL_Printf
 726      E7800000 
 727              	.LVL77:
 728              		.loc 1 191 5
 729 00ec 13850400 		addi	a0,s1,%lo(.LC17)
 730 00f0 97000000 		call	HAL_Printf
 730      E7800000 
 731              	.LVL78:
 732              		.loc 1 191 5
 192:C:/Users/stapi/OneDrive/Desktop/GD32VW553/V1_MQTT_OK/GD32VW55X_Wifi_BLE_SDK/GD32VW55x_RELEASE_V1.0.2/MSDK/cloud/alicloud/src/services/linkkit/dev_reset\awss_reset.c **** 
 193:C:/Users/stapi/OneDrive/Desktop/GD32VW553/V1_MQTT_OK/GD32VW55X_Wifi_BLE_SDK/GD32VW55x_RELEASE_V1.0.2/MSDK/cloud/alicloud/src/services/linkkit/dev_reset\awss_reset.c ****     return ret;
 733              		.loc 1 193 5
 194:C:/Users/stapi/OneDrive/Desktop/GD32VW553/V1_MQTT_OK/GD32VW55X_Wifi_BLE_SDK/GD32VW55x_RELEASE_V1.0.2/MSDK/cloud/alicloud/src/services/linkkit/dev_reset\awss_reset.c **** }
 734              		.loc 1 194 1 is_stmt 0
 735 00f8 2285     		mv	a0,s0
 736 00fa 4101     		addi	sp,sp,16
 737              		.cfi_remember_state
 738              		.cfi_def_cfa_offset 0
 739 00fc 17030000 		tail	__riscv_restore_2
 739      67000300 
 740              		.cfi_restore 9
 741              		.cfi_restore 8
 742              		.cfi_restore 1
 743              		.cfi_def_cfa_offset -16
 744              	.LVL79:
 745              	.L28:
 746              		.cfi_restore_state
 171:C:/Users/stapi/OneDrive/Desktop/GD32VW553/V1_MQTT_OK/GD32VW55X_Wifi_BLE_SDK/GD32VW55x_RELEASE_V1.0.2/MSDK/cloud/alicloud/src/services/linkkit/dev_reset\awss_reset.c ****     }
 747              		.loc 1 171 9 is_stmt 1
 171:C:/Users/stapi/OneDrive/Desktop/GD32VW553/V1_MQTT_OK/GD32VW55X_Wifi_BLE_SDK/GD32VW55x_RELEASE_V1.0.2/MSDK/cloud/alicloud/src/services/linkkit/dev_reset\awss_reset.c ****     }
 748              		.loc 1 171 22 is_stmt 0
 749 0104 1C41     		lw	a5,0(a0)
 750 0106 3EC6     		sw	a5,12(sp)
 751 0108 A1B7     		j	.L29
 752              		.cfi_endproc
 753              	.LFE23:
 755              		.section	.rodata.awss_check_reset.str1.4,"aMS",@progbits,1
 756              		.align	2
 757              	.LC23:
 758 0000 68617320 		.string	"has reset flag in kv"
 758      72657365 
 758      7420666C 
 758      61672069 
 758      6E206B76 
 759 0015 000000   		.align	2
 760              	.LC24:
 761 0018 6E6F2072 		.string	"no rst type in kv"
 761      73742074 
 761      79706520 
 761      696E206B 
 761      7600
 762 002a 0000     		.align	2
 763              	.LC25:
 764 002c 6E656564 		.string	"need report rst,type=%d"
 764      20726570 
 764      6F727420 
 764      7273742C 
 764      74797065 
 765              		.section	.text.awss_check_reset,"ax",@progbits
 766              		.align	1
 767              		.globl	awss_check_reset
 769              	awss_check_reset:
 770              	.LFB24:
 195:C:/Users/stapi/OneDrive/Desktop/GD32VW553/V1_MQTT_OK/GD32VW55X_Wifi_BLE_SDK/GD32VW55x_RELEASE_V1.0.2/MSDK/cloud/alicloud/src/services/linkkit/dev_reset\awss_reset.c **** 
 196:C:/Users/stapi/OneDrive/Desktop/GD32VW553/V1_MQTT_OK/GD32VW55X_Wifi_BLE_SDK/GD32VW55x_RELEASE_V1.0.2/MSDK/cloud/alicloud/src/services/linkkit/dev_reset\awss_reset.c **** int awss_check_reset(iotx_vendor_dev_reset_type_t *reset_type)
 197:C:/Users/stapi/OneDrive/Desktop/GD32VW553/V1_MQTT_OK/GD32VW55X_Wifi_BLE_SDK/GD32VW55x_RELEASE_V1.0.2/MSDK/cloud/alicloud/src/services/linkkit/dev_reset\awss_reset.c **** {
 771              		.loc 1 197 1 is_stmt 1
 772              		.cfi_startproc
 773              	.LVL80:
 774 0000 17030000 		call	t0,__riscv_save_4
 774      E7020300 
 775              		.cfi_offset 19, -20
 776              		.cfi_offset 18, -16
 777              		.cfi_offset 9, -12
 778              		.cfi_offset 8, -8
 779              		.cfi_offset 1, -4
 780              		.cfi_def_cfa_offset 32
 198:C:/Users/stapi/OneDrive/Desktop/GD32VW553/V1_MQTT_OK/GD32VW55X_Wifi_BLE_SDK/GD32VW55x_RELEASE_V1.0.2/MSDK/cloud/alicloud/src/services/linkkit/dev_reset\awss_reset.c ****     int len = 1;
 781              		.loc 1 198 5
 197:C:/Users/stapi/OneDrive/Desktop/GD32VW553/V1_MQTT_OK/GD32VW55X_Wifi_BLE_SDK/GD32VW55x_RELEASE_V1.0.2/MSDK/cloud/alicloud/src/services/linkkit/dev_reset\awss_reset.c ****     int len = 1;
 782              		.loc 1 197 1 is_stmt 0
 783 0008 4111     		addi	sp,sp,-16
 784              		.cfi_def_cfa_offset 48
 197:C:/Users/stapi/OneDrive/Desktop/GD32VW553/V1_MQTT_OK/GD32VW55X_Wifi_BLE_SDK/GD32VW55x_RELEASE_V1.0.2/MSDK/cloud/alicloud/src/services/linkkit/dev_reset\awss_reset.c ****     int len = 1;
 785              		.loc 1 197 1
 786 000a 2A89     		mv	s2,a0
 199:C:/Users/stapi/OneDrive/Desktop/GD32VW553/V1_MQTT_OK/GD32VW55X_Wifi_BLE_SDK/GD32VW55x_RELEASE_V1.0.2/MSDK/cloud/alicloud/src/services/linkkit/dev_reset\awss_reset.c ****     char rst = 0;
 200:C:/Users/stapi/OneDrive/Desktop/GD32VW553/V1_MQTT_OK/GD32VW55X_Wifi_BLE_SDK/GD32VW55x_RELEASE_V1.0.2/MSDK/cloud/alicloud/src/services/linkkit/dev_reset\awss_reset.c **** 
 201:C:/Users/stapi/OneDrive/Desktop/GD32VW553/V1_MQTT_OK/GD32VW55X_Wifi_BLE_SDK/GD32VW55x_RELEASE_V1.0.2/MSDK/cloud/alicloud/src/services/linkkit/dev_reset\awss_reset.c ****     int ret = HAL_Kv_Get(AWSS_KV_RST, &rst, &len);
 787              		.loc 1 201 15
 788 000c 37050000 		lui	a0,%hi(.LC13)
 789              	.LVL81:
 198:C:/Users/stapi/OneDrive/Desktop/GD32VW553/V1_MQTT_OK/GD32VW55X_Wifi_BLE_SDK/GD32VW55x_RELEASE_V1.0.2/MSDK/cloud/alicloud/src/services/linkkit/dev_reset\awss_reset.c ****     char rst = 0;
 790              		.loc 1 198 9
 791 0010 0544     		li	s0,1
 792              		.loc 1 201 15
 793 0012 7000     		addi	a2,sp,12
 794 0014 9305B100 		addi	a1,sp,11
 795 0018 13050500 		addi	a0,a0,%lo(.LC13)
 198:C:/Users/stapi/OneDrive/Desktop/GD32VW553/V1_MQTT_OK/GD32VW55X_Wifi_BLE_SDK/GD32VW55x_RELEASE_V1.0.2/MSDK/cloud/alicloud/src/services/linkkit/dev_reset\awss_reset.c ****     char rst = 0;
 796              		.loc 1 198 9
 797 001c 22C6     		sw	s0,12(sp)
 199:C:/Users/stapi/OneDrive/Desktop/GD32VW553/V1_MQTT_OK/GD32VW55X_Wifi_BLE_SDK/GD32VW55x_RELEASE_V1.0.2/MSDK/cloud/alicloud/src/services/linkkit/dev_reset\awss_reset.c ****     char rst = 0;
 798              		.loc 1 199 5 is_stmt 1
 199:C:/Users/stapi/OneDrive/Desktop/GD32VW553/V1_MQTT_OK/GD32VW55X_Wifi_BLE_SDK/GD32VW55x_RELEASE_V1.0.2/MSDK/cloud/alicloud/src/services/linkkit/dev_reset\awss_reset.c ****     char rst = 0;
 799              		.loc 1 199 10 is_stmt 0
 800 001e A3050100 		sb	zero,11(sp)
 801              		.loc 1 201 5 is_stmt 1
 802              		.loc 1 201 15 is_stmt 0
 803 0022 97000000 		call	aos_kv_get
 803      E7800000 
 804              	.LVL82:
 202:C:/Users/stapi/OneDrive/Desktop/GD32VW553/V1_MQTT_OK/GD32VW55X_Wifi_BLE_SDK/GD32VW55x_RELEASE_V1.0.2/MSDK/cloud/alicloud/src/services/linkkit/dev_reset\awss_reset.c **** 
 203:C:/Users/stapi/OneDrive/Desktop/GD32VW553/V1_MQTT_OK/GD32VW55X_Wifi_BLE_SDK/GD32VW55x_RELEASE_V1.0.2/MSDK/cloud/alicloud/src/services/linkkit/dev_reset\awss_reset.c ****     if (rst != 0x01)
 805              		.loc 1 203 5 is_stmt 1
 204:C:/Users/stapi/OneDrive/Desktop/GD32VW553/V1_MQTT_OK/GD32VW55X_Wifi_BLE_SDK/GD32VW55x_RELEASE_V1.0.2/MSDK/cloud/alicloud/src/services/linkkit/dev_reset\awss_reset.c ****     { // reset flag is not set
 205:C:/Users/stapi/OneDrive/Desktop/GD32VW553/V1_MQTT_OK/GD32VW55X_Wifi_BLE_SDK/GD32VW55x_RELEASE_V1.0.2/MSDK/cloud/alicloud/src/services/linkkit/dev_reset\awss_reset.c ****         return 0;
 806              		.loc 1 205 16 is_stmt 0
 807 002a 0145     		li	a0,0
 203:C:/Users/stapi/OneDrive/Desktop/GD32VW553/V1_MQTT_OK/GD32VW55X_Wifi_BLE_SDK/GD32VW55x_RELEASE_V1.0.2/MSDK/cloud/alicloud/src/services/linkkit/dev_reset\awss_reset.c ****     { // reset flag is not set
 808              		.loc 1 203 8
 809 002c 8307B100 		lb	a5,11(sp)
 810 0030 6395870C 		bne	a5,s0,.L34
 206:C:/Users/stapi/OneDrive/Desktop/GD32VW553/V1_MQTT_OK/GD32VW55X_Wifi_BLE_SDK/GD32VW55x_RELEASE_V1.0.2/MSDK/cloud/alicloud/src/services/linkkit/dev_reset\awss_reset.c ****     }
 207:C:/Users/stapi/OneDrive/Desktop/GD32VW553/V1_MQTT_OK/GD32VW55X_Wifi_BLE_SDK/GD32VW55x_RELEASE_V1.0.2/MSDK/cloud/alicloud/src/services/linkkit/dev_reset\awss_reset.c ****     else
 208:C:/Users/stapi/OneDrive/Desktop/GD32VW553/V1_MQTT_OK/GD32VW55X_Wifi_BLE_SDK/GD32VW55x_RELEASE_V1.0.2/MSDK/cloud/alicloud/src/services/linkkit/dev_reset\awss_reset.c ****     {
 209:C:/Users/stapi/OneDrive/Desktop/GD32VW553/V1_MQTT_OK/GD32VW55X_Wifi_BLE_SDK/GD32VW55x_RELEASE_V1.0.2/MSDK/cloud/alicloud/src/services/linkkit/dev_reset\awss_reset.c ****         log_info("[RST]", "has reset flag in kv");
 811              		.loc 1 209 9 is_stmt 1
 812              		.loc 1 209 9
 813 0034 B7090000 		lui	s3,%hi(.LC15)
 814 0038 13850900 		addi	a0,s3,%lo(.LC15)
 815 003c 97000000 		call	HAL_Printf
 815      E7800000 
 816              	.LVL83:
 817              		.loc 1 209 9
 818 0044 37050000 		lui	a0,%hi(.LC23)
 819 0048 13050500 		addi	a0,a0,%lo(.LC23)
 820 004c 97000000 		call	HAL_Printf
 820      E7800000 
 821              	.LVL84:
 822              		.loc 1 209 9
 823 0054 B7040000 		lui	s1,%hi(.LC17)
 824 0058 13850400 		addi	a0,s1,%lo(.LC17)
 825 005c 97000000 		call	HAL_Printf
 825      E7800000 
 826              	.LVL85:
 827              		.loc 1 209 9
 210:C:/Users/stapi/OneDrive/Desktop/GD32VW553/V1_MQTT_OK/GD32VW55X_Wifi_BLE_SDK/GD32VW55x_RELEASE_V1.0.2/MSDK/cloud/alicloud/src/services/linkkit/dev_reset\awss_reset.c ****     }
 211:C:/Users/stapi/OneDrive/Desktop/GD32VW553/V1_MQTT_OK/GD32VW55X_Wifi_BLE_SDK/GD32VW55x_RELEASE_V1.0.2/MSDK/cloud/alicloud/src/services/linkkit/dev_reset\awss_reset.c **** 
 212:C:/Users/stapi/OneDrive/Desktop/GD32VW553/V1_MQTT_OK/GD32VW55X_Wifi_BLE_SDK/GD32VW55x_RELEASE_V1.0.2/MSDK/cloud/alicloud/src/services/linkkit/dev_reset\awss_reset.c ****     len = sizeof(iotx_vendor_dev_reset_type_t);
 828              		.loc 1 212 5
 213:C:/Users/stapi/OneDrive/Desktop/GD32VW553/V1_MQTT_OK/GD32VW55X_Wifi_BLE_SDK/GD32VW55x_RELEASE_V1.0.2/MSDK/cloud/alicloud/src/services/linkkit/dev_reset\awss_reset.c ****     ret = HAL_Kv_Get(AWSS_KV_RST_TYPE, &g_reset_type, &len);
 829              		.loc 1 213 11 is_stmt 0
 830 0064 37040000 		lui	s0,%hi(.LANCHOR1)
 831 0068 37050000 		lui	a0,%hi(.LC14)
 212:C:/Users/stapi/OneDrive/Desktop/GD32VW553/V1_MQTT_OK/GD32VW55X_Wifi_BLE_SDK/GD32VW55x_RELEASE_V1.0.2/MSDK/cloud/alicloud/src/services/linkkit/dev_reset\awss_reset.c ****     ret = HAL_Kv_Get(AWSS_KV_RST_TYPE, &g_reset_type, &len);
 832              		.loc 1 212 9
 833 006c 9147     		li	a5,4
 834              		.loc 1 213 11
 835 006e 93050400 		addi	a1,s0,%lo(.LANCHOR1)
 836 0072 7000     		addi	a2,sp,12
 837 0074 13050500 		addi	a0,a0,%lo(.LC14)
 212:C:/Users/stapi/OneDrive/Desktop/GD32VW553/V1_MQTT_OK/GD32VW55X_Wifi_BLE_SDK/GD32VW55x_RELEASE_V1.0.2/MSDK/cloud/alicloud/src/services/linkkit/dev_reset\awss_reset.c ****     ret = HAL_Kv_Get(AWSS_KV_RST_TYPE, &g_reset_type, &len);
 838              		.loc 1 212 9
 839 0078 3EC6     		sw	a5,12(sp)
 840              		.loc 1 213 5 is_stmt 1
 841              		.loc 1 213 11 is_stmt 0
 842 007a 97000000 		call	aos_kv_get
 842      E7800000 
 843              	.LVL86:
 214:C:/Users/stapi/OneDrive/Desktop/GD32VW553/V1_MQTT_OK/GD32VW55X_Wifi_BLE_SDK/GD32VW55x_RELEASE_V1.0.2/MSDK/cloud/alicloud/src/services/linkkit/dev_reset\awss_reset.c ****     if (ret != 0 || len == 0)
 844              		.loc 1 214 5 is_stmt 1
 845 0082 13040400 		addi	s0,s0,%lo(.LANCHOR1)
 846              		.loc 1 214 8 is_stmt 0
 847 0086 19E1     		bne	a0,zero,.L36
 848              		.loc 1 214 18 discriminator 1
 849 0088 B247     		lw	a5,12(sp)
 850 008a 8DEB     		bne	a5,zero,.L37
 851              	.L36:
 215:C:/Users/stapi/OneDrive/Desktop/GD32VW553/V1_MQTT_OK/GD32VW55X_Wifi_BLE_SDK/GD32VW55x_RELEASE_V1.0.2/MSDK/cloud/alicloud/src/services/linkkit/dev_reset\awss_reset.c ****     {
 216:C:/Users/stapi/OneDrive/Desktop/GD32VW553/V1_MQTT_OK/GD32VW55X_Wifi_BLE_SDK/GD32VW55x_RELEASE_V1.0.2/MSDK/cloud/alicloud/src/services/linkkit/dev_reset\awss_reset.c ****         log_warning("[RST]", "no rst type in kv");
 852              		.loc 1 216 9 is_stmt 1
 853              		.loc 1 216 9
 854 008c 37050000 		lui	a0,%hi(.LC18)
 855              	.LVL87:
 856 0090 13050500 		addi	a0,a0,%lo(.LC18)
 857 0094 97000000 		call	HAL_Printf
 857      E7800000 
 858              	.LVL88:
 859              		.loc 1 216 9
 860 009c 37050000 		lui	a0,%hi(.LC24)
 861 00a0 13050500 		addi	a0,a0,%lo(.LC24)
 862 00a4 97000000 		call	HAL_Printf
 862      E7800000 
 863              	.LVL89:
 864              		.loc 1 216 9
 865 00ac 13850400 		addi	a0,s1,%lo(.LC17)
 866 00b0 97000000 		call	HAL_Printf
 866      E7800000 
 867              	.LVL90:
 868              		.loc 1 216 9
 217:C:/Users/stapi/OneDrive/Desktop/GD32VW553/V1_MQTT_OK/GD32VW55X_Wifi_BLE_SDK/GD32VW55x_RELEASE_V1.0.2/MSDK/cloud/alicloud/src/services/linkkit/dev_reset\awss_reset.c ****         g_reset_type = IOTX_VENDOR_DEV_RESET_TYPE_UNBIND_SHADOW_CLEAR;
 869              		.loc 1 217 9
 870              		.loc 1 217 22 is_stmt 0
 871 00b8 8547     		li	a5,1
 872 00ba 1CC0     		sw	a5,0(s0)
 873              	.L37:
 218:C:/Users/stapi/OneDrive/Desktop/GD32VW553/V1_MQTT_OK/GD32VW55X_Wifi_BLE_SDK/GD32VW55x_RELEASE_V1.0.2/MSDK/cloud/alicloud/src/services/linkkit/dev_reset\awss_reset.c ****     }
 219:C:/Users/stapi/OneDrive/Desktop/GD32VW553/V1_MQTT_OK/GD32VW55X_Wifi_BLE_SDK/GD32VW55x_RELEASE_V1.0.2/MSDK/cloud/alicloud/src/services/linkkit/dev_reset\awss_reset.c **** 
 220:C:/Users/stapi/OneDrive/Desktop/GD32VW553/V1_MQTT_OK/GD32VW55X_Wifi_BLE_SDK/GD32VW55x_RELEASE_V1.0.2/MSDK/cloud/alicloud/src/services/linkkit/dev_reset\awss_reset.c ****     log_info("[RST]", "need report rst,type=%d", g_reset_type);
 874              		.loc 1 220 5 is_stmt 1
 875              		.loc 1 220 5
 876 00bc 13850900 		addi	a0,s3,%lo(.LC15)
 877 00c0 97000000 		call	HAL_Printf
 877      E7800000 
 878              	.LVL91:
 879              		.loc 1 220 5
 880 00c8 0C40     		lw	a1,0(s0)
 881 00ca 37050000 		lui	a0,%hi(.LC25)
 882 00ce 13050500 		addi	a0,a0,%lo(.LC25)
 883 00d2 97000000 		call	HAL_Printf
 883      E7800000 
 884              	.LVL92:
 885              		.loc 1 220 5
 886 00da 13850400 		addi	a0,s1,%lo(.LC17)
 887 00de 97000000 		call	HAL_Printf
 887      E7800000 
 888              	.LVL93:
 889              		.loc 1 220 5
 221:C:/Users/stapi/OneDrive/Desktop/GD32VW553/V1_MQTT_OK/GD32VW55X_Wifi_BLE_SDK/GD32VW55x_RELEASE_V1.0.2/MSDK/cloud/alicloud/src/services/linkkit/dev_reset\awss_reset.c ****     awss_report_reset_suc = 0;
 890              		.loc 1 221 5
 891              		.loc 1 221 27 is_stmt 0
 892 00e6 B7070000 		lui	a5,%hi(.LANCHOR0)
 893 00ea 23800700 		sb	zero,%lo(.LANCHOR0)(a5)
 222:C:/Users/stapi/OneDrive/Desktop/GD32VW553/V1_MQTT_OK/GD32VW55X_Wifi_BLE_SDK/GD32VW55x_RELEASE_V1.0.2/MSDK/cloud/alicloud/src/services/linkkit/dev_reset\awss_reset.c **** 
 223:C:/Users/stapi/OneDrive/Desktop/GD32VW553/V1_MQTT_OK/GD32VW55X_Wifi_BLE_SDK/GD32VW55x_RELEASE_V1.0.2/MSDK/cloud/alicloud/src/services/linkkit/dev_reset\awss_reset.c ****     if (reset_type)
 894              		.loc 1 223 5 is_stmt 1
 224:C:/Users/stapi/OneDrive/Desktop/GD32VW553/V1_MQTT_OK/GD32VW55X_Wifi_BLE_SDK/GD32VW55x_RELEASE_V1.0.2/MSDK/cloud/alicloud/src/services/linkkit/dev_reset\awss_reset.c ****     {
 225:C:/Users/stapi/OneDrive/Desktop/GD32VW553/V1_MQTT_OK/GD32VW55X_Wifi_BLE_SDK/GD32VW55x_RELEASE_V1.0.2/MSDK/cloud/alicloud/src/services/linkkit/dev_reset\awss_reset.c ****         *reset_type = g_reset_type;
 226:C:/Users/stapi/OneDrive/Desktop/GD32VW553/V1_MQTT_OK/GD32VW55X_Wifi_BLE_SDK/GD32VW55x_RELEASE_V1.0.2/MSDK/cloud/alicloud/src/services/linkkit/dev_reset\awss_reset.c ****     }
 227:C:/Users/stapi/OneDrive/Desktop/GD32VW553/V1_MQTT_OK/GD32VW55X_Wifi_BLE_SDK/GD32VW55x_RELEASE_V1.0.2/MSDK/cloud/alicloud/src/services/linkkit/dev_reset\awss_reset.c **** 
 228:C:/Users/stapi/OneDrive/Desktop/GD32VW553/V1_MQTT_OK/GD32VW55X_Wifi_BLE_SDK/GD32VW55x_RELEASE_V1.0.2/MSDK/cloud/alicloud/src/services/linkkit/dev_reset\awss_reset.c ****     return 1;
 895              		.loc 1 228 12 is_stmt 0
 896 00ee 0545     		li	a0,1
 223:C:/Users/stapi/OneDrive/Desktop/GD32VW553/V1_MQTT_OK/GD32VW55X_Wifi_BLE_SDK/GD32VW55x_RELEASE_V1.0.2/MSDK/cloud/alicloud/src/services/linkkit/dev_reset\awss_reset.c ****     {
 897              		.loc 1 223 8
 898 00f0 63050900 		beq	s2,zero,.L34
 225:C:/Users/stapi/OneDrive/Desktop/GD32VW553/V1_MQTT_OK/GD32VW55X_Wifi_BLE_SDK/GD32VW55x_RELEASE_V1.0.2/MSDK/cloud/alicloud/src/services/linkkit/dev_reset\awss_reset.c ****     }
 899              		.loc 1 225 9 is_stmt 1
 225:C:/Users/stapi/OneDrive/Desktop/GD32VW553/V1_MQTT_OK/GD32VW55X_Wifi_BLE_SDK/GD32VW55x_RELEASE_V1.0.2/MSDK/cloud/alicloud/src/services/linkkit/dev_reset\awss_reset.c ****     }
 900              		.loc 1 225 21 is_stmt 0
 901 00f4 1C40     		lw	a5,0(s0)
 902 00f6 2320F900 		sw	a5,0(s2)
 903              	.L34:
 229:C:/Users/stapi/OneDrive/Desktop/GD32VW553/V1_MQTT_OK/GD32VW55X_Wifi_BLE_SDK/GD32VW55x_RELEASE_V1.0.2/MSDK/cloud/alicloud/src/services/linkkit/dev_reset\awss_reset.c **** }
 904              		.loc 1 229 1
 905 00fa 4101     		addi	sp,sp,16
 906              		.cfi_def_cfa_offset 0
 907 00fc 17030000 		tail	__riscv_restore_4
 907      67000300 
 908              		.cfi_restore 19
 909              		.cfi_restore 18
 910              		.cfi_restore 9
 911              		.cfi_restore 8
 912              		.cfi_restore 1
 913              		.cfi_def_cfa_offset -32
 914              		.cfi_endproc
 915              	.LFE24:
 917              		.section	.rodata.awss_clear_reset.str1.4,"aMS",@progbits,1
 918              		.align	2
 919              	.LC26:
 920 0000 5B657272 		.string	"[err] "
 920      5D2000
 921 0007 00       		.align	2
 922              	.LC27:
 923 0008 4B565F52 		.string	"KV_RST del fail"
 923      53542064 
 923      656C2066 
 923      61696C00 
 924              		.align	2
 925              	.LC28:
 926 0018 4B565F52 		.string	"KV_RST_TYPE del fail"
 926      53545F54 
 926      59504520 
 926      64656C20 
 926      6661696C 
 927              		.section	.text.awss_clear_reset,"ax",@progbits
 928              		.align	1
 929              		.globl	awss_clear_reset
 931              	awss_clear_reset:
 932              	.LFB25:
 230:C:/Users/stapi/OneDrive/Desktop/GD32VW553/V1_MQTT_OK/GD32VW55X_Wifi_BLE_SDK/GD32VW55x_RELEASE_V1.0.2/MSDK/cloud/alicloud/src/services/linkkit/dev_reset\awss_reset.c **** 
 231:C:/Users/stapi/OneDrive/Desktop/GD32VW553/V1_MQTT_OK/GD32VW55X_Wifi_BLE_SDK/GD32VW55x_RELEASE_V1.0.2/MSDK/cloud/alicloud/src/services/linkkit/dev_reset\awss_reset.c **** // return: 0 - reset success, -1 - reset fail
 232:C:/Users/stapi/OneDrive/Desktop/GD32VW553/V1_MQTT_OK/GD32VW55X_Wifi_BLE_SDK/GD32VW55x_RELEASE_V1.0.2/MSDK/cloud/alicloud/src/services/linkkit/dev_reset\awss_reset.c **** int awss_clear_reset(void)
 233:C:/Users/stapi/OneDrive/Desktop/GD32VW553/V1_MQTT_OK/GD32VW55X_Wifi_BLE_SDK/GD32VW55x_RELEASE_V1.0.2/MSDK/cloud/alicloud/src/services/linkkit/dev_reset\awss_reset.c **** {
 933              		.loc 1 233 1 is_stmt 1
 934              		.cfi_startproc
 935 0000 17030000 		call	t0,__riscv_save_2
 935      E7020300 
 936              		.cfi_offset 9, -12
 937              		.cfi_offset 8, -8
 938              		.cfi_offset 1, -4
 939              		.cfi_def_cfa_offset 16
 234:C:/Users/stapi/OneDrive/Desktop/GD32VW553/V1_MQTT_OK/GD32VW55X_Wifi_BLE_SDK/GD32VW55x_RELEASE_V1.0.2/MSDK/cloud/alicloud/src/services/linkkit/dev_reset\awss_reset.c ****     int ret = 0;
 940              		.loc 1 234 5
 941              	.LVL94:
 235:C:/Users/stapi/OneDrive/Desktop/GD32VW553/V1_MQTT_OK/GD32VW55X_Wifi_BLE_SDK/GD32VW55x_RELEASE_V1.0.2/MSDK/cloud/alicloud/src/services/linkkit/dev_reset\awss_reset.c ****     if (HAL_Kv_Del(AWSS_KV_RST) != 0) {
 942              		.loc 1 235 5
 943              		.loc 1 235 9 is_stmt 0
 944 0008 37050000 		lui	a0,%hi(.LC13)
 945 000c 13050500 		addi	a0,a0,%lo(.LC13)
 946 0010 97000000 		call	aos_kv_del
 946      E7800000 
 947              	.LVL95:
 948 0018 2A84     		mv	s0,a0
 949              		.loc 1 235 8
 950 001a 15C9     		beq	a0,zero,.L42
 236:C:/Users/stapi/OneDrive/Desktop/GD32VW553/V1_MQTT_OK/GD32VW55X_Wifi_BLE_SDK/GD32VW55x_RELEASE_V1.0.2/MSDK/cloud/alicloud/src/services/linkkit/dev_reset\awss_reset.c ****         log_err("[RST]", "KV_RST del fail");
 951              		.loc 1 236 9 is_stmt 1
 952              		.loc 1 236 9
 953 001c 37050000 		lui	a0,%hi(.LC26)
 954 0020 13050500 		addi	a0,a0,%lo(.LC26)
 955 0024 97000000 		call	HAL_Printf
 955      E7800000 
 956              	.LVL96:
 957              		.loc 1 236 9
 958 002c 37050000 		lui	a0,%hi(.LC27)
 959 0030 13050500 		addi	a0,a0,%lo(.LC27)
 960 0034 97000000 		call	HAL_Printf
 960      E7800000 
 961              	.LVL97:
 962              		.loc 1 236 9
 963 003c 37050000 		lui	a0,%hi(.LC17)
 964 0040 13050500 		addi	a0,a0,%lo(.LC17)
 965 0044 97000000 		call	HAL_Printf
 965      E7800000 
 966              	.LVL98:
 967              		.loc 1 236 9
 237:C:/Users/stapi/OneDrive/Desktop/GD32VW553/V1_MQTT_OK/GD32VW55X_Wifi_BLE_SDK/GD32VW55x_RELEASE_V1.0.2/MSDK/cloud/alicloud/src/services/linkkit/dev_reset\awss_reset.c ****         ret = -1;
 968              		.loc 1 237 9
 969              		.loc 1 237 13 is_stmt 0
 970 004c 7D54     		li	s0,-1
 971              	.LVL99:
 972              	.L42:
 238:C:/Users/stapi/OneDrive/Desktop/GD32VW553/V1_MQTT_OK/GD32VW55X_Wifi_BLE_SDK/GD32VW55x_RELEASE_V1.0.2/MSDK/cloud/alicloud/src/services/linkkit/dev_reset\awss_reset.c ****     }
 239:C:/Users/stapi/OneDrive/Desktop/GD32VW553/V1_MQTT_OK/GD32VW55X_Wifi_BLE_SDK/GD32VW55x_RELEASE_V1.0.2/MSDK/cloud/alicloud/src/services/linkkit/dev_reset\awss_reset.c ****     if (HAL_Kv_Del(AWSS_KV_RST_TYPE) != 0) {
 973              		.loc 1 239 5 is_stmt 1
 974              		.loc 1 239 9 is_stmt 0
 975 004e 37050000 		lui	a0,%hi(.LC14)
 976 0052 13050500 		addi	a0,a0,%lo(.LC14)
 977 0056 97000000 		call	aos_kv_del
 977      E7800000 
 978              	.LVL100:
 979              		.loc 1 239 8
 980 005e 15C9     		beq	a0,zero,.L43
 240:C:/Users/stapi/OneDrive/Desktop/GD32VW553/V1_MQTT_OK/GD32VW55X_Wifi_BLE_SDK/GD32VW55x_RELEASE_V1.0.2/MSDK/cloud/alicloud/src/services/linkkit/dev_reset\awss_reset.c ****         log_err("[RST]", "KV_RST_TYPE del fail");
 981              		.loc 1 240 9 is_stmt 1
 982              		.loc 1 240 9
 983 0060 37050000 		lui	a0,%hi(.LC26)
 984 0064 13050500 		addi	a0,a0,%lo(.LC26)
 985 0068 97000000 		call	HAL_Printf
 985      E7800000 
 986              	.LVL101:
 987              		.loc 1 240 9
 988 0070 37050000 		lui	a0,%hi(.LC28)
 989 0074 13050500 		addi	a0,a0,%lo(.LC28)
 990 0078 97000000 		call	HAL_Printf
 990      E7800000 
 991              	.LVL102:
 992              		.loc 1 240 9
 993 0080 37050000 		lui	a0,%hi(.LC17)
 994 0084 13050500 		addi	a0,a0,%lo(.LC17)
 995 0088 97000000 		call	HAL_Printf
 995      E7800000 
 996              	.LVL103:
 997              		.loc 1 240 9
 241:C:/Users/stapi/OneDrive/Desktop/GD32VW553/V1_MQTT_OK/GD32VW55X_Wifi_BLE_SDK/GD32VW55x_RELEASE_V1.0.2/MSDK/cloud/alicloud/src/services/linkkit/dev_reset\awss_reset.c ****         ret = -1;
 998              		.loc 1 241 9
 999              		.loc 1 241 13 is_stmt 0
 1000 0090 7D54     		li	s0,-1
 1001              	.LVL104:
 1002              	.L43:
 242:C:/Users/stapi/OneDrive/Desktop/GD32VW553/V1_MQTT_OK/GD32VW55X_Wifi_BLE_SDK/GD32VW55x_RELEASE_V1.0.2/MSDK/cloud/alicloud/src/services/linkkit/dev_reset\awss_reset.c ****     }
 243:C:/Users/stapi/OneDrive/Desktop/GD32VW553/V1_MQTT_OK/GD32VW55X_Wifi_BLE_SDK/GD32VW55x_RELEASE_V1.0.2/MSDK/cloud/alicloud/src/services/linkkit/dev_reset\awss_reset.c **** 
 244:C:/Users/stapi/OneDrive/Desktop/GD32VW553/V1_MQTT_OK/GD32VW55X_Wifi_BLE_SDK/GD32VW55x_RELEASE_V1.0.2/MSDK/cloud/alicloud/src/services/linkkit/dev_reset\awss_reset.c ****     if (report_reset_timer)
 1003              		.loc 1 244 5 is_stmt 1
 1004              		.loc 1 244 9 is_stmt 0
 1005 0092 B7040000 		lui	s1,%hi(.LANCHOR2)
 1006 0096 93840400 		addi	s1,s1,%lo(.LANCHOR2)
 1007 009a 8840     		lw	a0,0(s1)
 1008              		.loc 1 244 8
 1009 009c 01CD     		beq	a0,zero,.L41
 245:C:/Users/stapi/OneDrive/Desktop/GD32VW553/V1_MQTT_OK/GD32VW55X_Wifi_BLE_SDK/GD32VW55x_RELEASE_V1.0.2/MSDK/cloud/alicloud/src/services/linkkit/dev_reset\awss_reset.c ****     {
 246:C:/Users/stapi/OneDrive/Desktop/GD32VW553/V1_MQTT_OK/GD32VW55X_Wifi_BLE_SDK/GD32VW55x_RELEASE_V1.0.2/MSDK/cloud/alicloud/src/services/linkkit/dev_reset\awss_reset.c ****         HAL_Timer_Stop(report_reset_timer);
 1010              		.loc 1 246 9 is_stmt 1
 1011 009e 97000000 		call	HAL_Timer_Stop
 1011      E7800000 
 1012              	.LVL105:
 247:C:/Users/stapi/OneDrive/Desktop/GD32VW553/V1_MQTT_OK/GD32VW55X_Wifi_BLE_SDK/GD32VW55x_RELEASE_V1.0.2/MSDK/cloud/alicloud/src/services/linkkit/dev_reset\awss_reset.c ****         HAL_Timer_Delete(report_reset_timer);
 1013              		.loc 1 247 9
 1014 00a6 8840     		lw	a0,0(s1)
 1015 00a8 97000000 		call	HAL_Timer_Delete
 1015      E7800000 
 1016              	.LVL106:
 248:C:/Users/stapi/OneDrive/Desktop/GD32VW553/V1_MQTT_OK/GD32VW55X_Wifi_BLE_SDK/GD32VW55x_RELEASE_V1.0.2/MSDK/cloud/alicloud/src/services/linkkit/dev_reset\awss_reset.c ****         report_reset_timer = NULL;
 1017              		.loc 1 248 9
 1018              		.loc 1 248 28 is_stmt 0
 1019 00b0 23A00400 		sw	zero,0(s1)
 249:C:/Users/stapi/OneDrive/Desktop/GD32VW553/V1_MQTT_OK/GD32VW55X_Wifi_BLE_SDK/GD32VW55x_RELEASE_V1.0.2/MSDK/cloud/alicloud/src/services/linkkit/dev_reset\awss_reset.c ****     }
 250:C:/Users/stapi/OneDrive/Desktop/GD32VW553/V1_MQTT_OK/GD32VW55X_Wifi_BLE_SDK/GD32VW55x_RELEASE_V1.0.2/MSDK/cloud/alicloud/src/services/linkkit/dev_reset\awss_reset.c ****     return ret;
 1020              		.loc 1 250 5 is_stmt 1
 1021              	.L41:
 251:C:/Users/stapi/OneDrive/Desktop/GD32VW553/V1_MQTT_OK/GD32VW55X_Wifi_BLE_SDK/GD32VW55x_RELEASE_V1.0.2/MSDK/cloud/alicloud/src/services/linkkit/dev_reset\awss_reset.c **** }
 1022              		.loc 1 251 1 is_stmt 0
 1023 00b4 2285     		mv	a0,s0
 1024 00b6 17030000 		tail	__riscv_restore_2
 1024      67000300 
 1025              		.cfi_restore 9
 1026              		.cfi_restore 8
 1027              		.cfi_restore 1
 1028              		.cfi_def_cfa_offset 0
 1029              		.cfi_endproc
 1030              	.LFE25:
 1032              		.section	.rodata.awss_stop_report_reset.str1.4,"aMS",@progbits,1
 1033              		.align	2
 1034              	.LC29:
 1035 0000 73746F70 		.string	"stop report already reset"
 1035      20726570 
 1035      6F727420 
 1035      616C7265 
 1035      61647920 
 1036              		.section	.text.awss_stop_report_reset,"ax",@progbits
 1037              		.align	1
 1038              		.globl	awss_stop_report_reset
 1040              	awss_stop_report_reset:
 1041              	.LFB26:
 252:C:/Users/stapi/OneDrive/Desktop/GD32VW553/V1_MQTT_OK/GD32VW55X_Wifi_BLE_SDK/GD32VW55x_RELEASE_V1.0.2/MSDK/cloud/alicloud/src/services/linkkit/dev_reset\awss_reset.c **** 
 253:C:/Users/stapi/OneDrive/Desktop/GD32VW553/V1_MQTT_OK/GD32VW55X_Wifi_BLE_SDK/GD32VW55x_RELEASE_V1.0.2/MSDK/cloud/alicloud/src/services/linkkit/dev_reset\awss_reset.c **** int awss_stop_report_reset()
 254:C:/Users/stapi/OneDrive/Desktop/GD32VW553/V1_MQTT_OK/GD32VW55X_Wifi_BLE_SDK/GD32VW55x_RELEASE_V1.0.2/MSDK/cloud/alicloud/src/services/linkkit/dev_reset\awss_reset.c **** {
 1042              		.loc 1 254 1 is_stmt 1
 1043              		.cfi_startproc
 1044 0000 17030000 		call	t0,__riscv_save_1
 1044      E7020300 
 1045              		.cfi_offset 8, -8
 1046              		.cfi_offset 1, -4
 1047              		.cfi_def_cfa_offset 16
 255:C:/Users/stapi/OneDrive/Desktop/GD32VW553/V1_MQTT_OK/GD32VW55X_Wifi_BLE_SDK/GD32VW55x_RELEASE_V1.0.2/MSDK/cloud/alicloud/src/services/linkkit/dev_reset\awss_reset.c ****     if (report_reset_timer == NULL) {
 1048              		.loc 1 255 5
 1049              		.loc 1 255 28 is_stmt 0
 1050 0008 37040000 		lui	s0,%hi(.LANCHOR2)
 1051 000c 13040400 		addi	s0,s0,%lo(.LANCHOR2)
 1052 0010 0840     		lw	a0,0(s0)
 1053              		.loc 1 255 8
 1054 0012 1DE1     		bne	a0,zero,.L57
 256:C:/Users/stapi/OneDrive/Desktop/GD32VW553/V1_MQTT_OK/GD32VW55X_Wifi_BLE_SDK/GD32VW55x_RELEASE_V1.0.2/MSDK/cloud/alicloud/src/services/linkkit/dev_reset\awss_reset.c ****         dump_dev_bind_status(STATE_BIND_ALREADY_RESET, "stop report already reset");
 1055              		.loc 1 256 9 is_stmt 1
 1056 0014 7D74     		li	s0,-4096
 1057 0016 37060000 		lui	a2,%hi(.LC29)
 1058 001a 13060600 		addi	a2,a2,%lo(.LC29)
 1059 001e 9305F47E 		addi	a1,s0,2031
 1060 0022 7D45     		li	a0,31
 1061 0024 97000000 		call	iotx_state_event
 1061      E7800000 
 1062              	.LVL107:
 257:C:/Users/stapi/OneDrive/Desktop/GD32VW553/V1_MQTT_OK/GD32VW55X_Wifi_BLE_SDK/GD32VW55x_RELEASE_V1.0.2/MSDK/cloud/alicloud/src/services/linkkit/dev_reset\awss_reset.c ****         return STATE_BIND_ALREADY_RESET;
 1063              		.loc 1 257 9
 1064              		.loc 1 257 16 is_stmt 0
 1065 002c 1305F47E 		addi	a0,s0,2031
 1066              	.L56:
 258:C:/Users/stapi/OneDrive/Desktop/GD32VW553/V1_MQTT_OK/GD32VW55X_Wifi_BLE_SDK/GD32VW55x_RELEASE_V1.0.2/MSDK/cloud/alicloud/src/services/linkkit/dev_reset\awss_reset.c ****     }
 259:C:/Users/stapi/OneDrive/Desktop/GD32VW553/V1_MQTT_OK/GD32VW55X_Wifi_BLE_SDK/GD32VW55x_RELEASE_V1.0.2/MSDK/cloud/alicloud/src/services/linkkit/dev_reset\awss_reset.c **** 
 260:C:/Users/stapi/OneDrive/Desktop/GD32VW553/V1_MQTT_OK/GD32VW55X_Wifi_BLE_SDK/GD32VW55x_RELEASE_V1.0.2/MSDK/cloud/alicloud/src/services/linkkit/dev_reset\awss_reset.c ****     HAL_Timer_Stop(report_reset_timer);
 261:C:/Users/stapi/OneDrive/Desktop/GD32VW553/V1_MQTT_OK/GD32VW55X_Wifi_BLE_SDK/GD32VW55x_RELEASE_V1.0.2/MSDK/cloud/alicloud/src/services/linkkit/dev_reset\awss_reset.c ****     HAL_Timer_Delete(report_reset_timer);
 262:C:/Users/stapi/OneDrive/Desktop/GD32VW553/V1_MQTT_OK/GD32VW55X_Wifi_BLE_SDK/GD32VW55x_RELEASE_V1.0.2/MSDK/cloud/alicloud/src/services/linkkit/dev_reset\awss_reset.c ****     report_reset_timer = NULL;
 263:C:/Users/stapi/OneDrive/Desktop/GD32VW553/V1_MQTT_OK/GD32VW55X_Wifi_BLE_SDK/GD32VW55x_RELEASE_V1.0.2/MSDK/cloud/alicloud/src/services/linkkit/dev_reset\awss_reset.c **** 
 264:C:/Users/stapi/OneDrive/Desktop/GD32VW553/V1_MQTT_OK/GD32VW55X_Wifi_BLE_SDK/GD32VW55x_RELEASE_V1.0.2/MSDK/cloud/alicloud/src/services/linkkit/dev_reset\awss_reset.c ****     return 0;
 265:C:/Users/stapi/OneDrive/Desktop/GD32VW553/V1_MQTT_OK/GD32VW55X_Wifi_BLE_SDK/GD32VW55x_RELEASE_V1.0.2/MSDK/cloud/alicloud/src/services/linkkit/dev_reset\awss_reset.c **** }
 1067              		.loc 1 265 1
 1068 0030 17030000 		tail	__riscv_restore_1
 1068      67000300 
 1069              		.cfi_remember_state
 1070              		.cfi_restore 8
 1071              		.cfi_restore 1
 1072              		.cfi_def_cfa_offset 0
 1073              	.L57:
 1074              		.cfi_restore_state
 260:C:/Users/stapi/OneDrive/Desktop/GD32VW553/V1_MQTT_OK/GD32VW55X_Wifi_BLE_SDK/GD32VW55x_RELEASE_V1.0.2/MSDK/cloud/alicloud/src/services/linkkit/dev_reset\awss_reset.c ****     HAL_Timer_Delete(report_reset_timer);
 1075              		.loc 1 260 5 is_stmt 1
 1076 0038 97000000 		call	HAL_Timer_Stop
 1076      E7800000 
 1077              	.LVL108:
 261:C:/Users/stapi/OneDrive/Desktop/GD32VW553/V1_MQTT_OK/GD32VW55X_Wifi_BLE_SDK/GD32VW55x_RELEASE_V1.0.2/MSDK/cloud/alicloud/src/services/linkkit/dev_reset\awss_reset.c ****     report_reset_timer = NULL;
 1078              		.loc 1 261 5
 1079 0040 0840     		lw	a0,0(s0)
 1080 0042 97000000 		call	HAL_Timer_Delete
 1080      E7800000 
 1081              	.LVL109:
 262:C:/Users/stapi/OneDrive/Desktop/GD32VW553/V1_MQTT_OK/GD32VW55X_Wifi_BLE_SDK/GD32VW55x_RELEASE_V1.0.2/MSDK/cloud/alicloud/src/services/linkkit/dev_reset\awss_reset.c **** 
 1082              		.loc 1 262 5
 264:C:/Users/stapi/OneDrive/Desktop/GD32VW553/V1_MQTT_OK/GD32VW55X_Wifi_BLE_SDK/GD32VW55x_RELEASE_V1.0.2/MSDK/cloud/alicloud/src/services/linkkit/dev_reset\awss_reset.c **** }
 1083              		.loc 1 264 12 is_stmt 0
 1084 004a 0145     		li	a0,0
 262:C:/Users/stapi/OneDrive/Desktop/GD32VW553/V1_MQTT_OK/GD32VW55X_Wifi_BLE_SDK/GD32VW55x_RELEASE_V1.0.2/MSDK/cloud/alicloud/src/services/linkkit/dev_reset\awss_reset.c **** 
 1085              		.loc 1 262 24
 1086 004c 23200400 		sw	zero,0(s0)
 264:C:/Users/stapi/OneDrive/Desktop/GD32VW553/V1_MQTT_OK/GD32VW55X_Wifi_BLE_SDK/GD32VW55x_RELEASE_V1.0.2/MSDK/cloud/alicloud/src/services/linkkit/dev_reset\awss_reset.c **** }
 1087              		.loc 1 264 5 is_stmt 1
 264:C:/Users/stapi/OneDrive/Desktop/GD32VW553/V1_MQTT_OK/GD32VW55X_Wifi_BLE_SDK/GD32VW55x_RELEASE_V1.0.2/MSDK/cloud/alicloud/src/services/linkkit/dev_reset\awss_reset.c **** }
 1088              		.loc 1 264 12 is_stmt 0
 1089 0050 C5B7     		j	.L56
 1090              		.cfi_endproc
 1091              	.LFE26:
 1093              		.globl	g_reset_type
 1094              		.section	.rodata.__FUNCTION__.0,"a"
 1095              		.align	2
 1096              		.set	.LANCHOR4,. + 0
 1099              	__FUNCTION__.0:
 1100 0000 61777373 		.string	"awss_report_reset_to_cloud"
 1100      5F726570 
 1100      6F72745F 
 1100      72657365 
 1100      745F746F 
 1101              		.section	.sbss.awss_report_reset_id,"aw",@nobits
 1102              		.align	1
 1103              		.set	.LANCHOR3,. + 0
 1106              	awss_report_reset_id:
 1107 0000 0000     		.zero	2
 1108              		.section	.sbss.awss_report_reset_suc,"aw",@nobits
 1109              		.set	.LANCHOR0,. + 0
 1112              	awss_report_reset_suc:
 1113 0000 00       		.zero	1
 1114              		.section	.sbss.report_reset_timer,"aw",@nobits
 1115              		.align	2
 1116              		.set	.LANCHOR2,. + 0
 1119              	report_reset_timer:
 1120 0000 00000000 		.zero	4
 1121              		.section	.sdata.g_reset_type,"aw"
 1122              		.align	2
 1123              		.set	.LANCHOR1,. + 0
 1126              	g_reset_type:
 1127 0000 01000000 		.word	1
 1128              		.text
 1129              	.Letext0:
 1130              		.file 2 "c:\\users\\stapi\\onedrive\\desktop\\gd32vw553\\embeddedbuilder_v1.4.7.26843\\tools\\nucl
 1131              		.file 3 "c:\\users\\stapi\\onedrive\\desktop\\gd32vw553\\embeddedbuilder_v1.4.7.26843\\tools\\nucl
 1132              		.file 4 "..\\..\\..\\..\\cloud\\alicloud\\include/iot_export.h"
 1133              		.file 5 "..\\..\\..\\..\\cloud\\alicloud\\include/exports/iot_export_awss.h"
 1134              		.file 6 "..\\..\\..\\..\\cloud\\alicloud\\include/exports/iot_export_mqtt.h"
 1135              		.file 7 "C:/Users/stapi/OneDrive/Desktop/GD32VW553/V1_MQTT_OK/GD32VW55X_Wifi_BLE_SDK/GD32VW55x_REL
 1136              		.file 8 "..\\..\\..\\..\\cloud\\alicloud\\include/iot_import.h"
 1137              		.file 9 "..\\..\\..\\..\\cloud\\alicloud\\include/imports/iot_import_kv.h"
 1138              		.file 10 "..\\..\\..\\..\\cloud\\alicloud\\include/imports/iot_import_product.h"
 1139              		.file 11 "..\\..\\..\\..\\cloud\\alicloud\\src\\infra\\utils/iotx_utils.h"
 1140              		.file 12 "..\\..\\..\\..\\cloud\\alicloud\\src\\infra\\log/iotx_log.h"
 1141              		.file 13 "..\\..\\..\\..\\cloud\\alicloud\\src\\infra\\system/iotx_system.h"
 1142              		.file 14 "..\\..\\..\\..\\cloud\\alicloud\\include/exports/iot_export_event.h"
 1143              		.file 15 "<built-in>"