   1              		.file	"awss_reset_statis.c"
   2              		.option nopic
   3              		.attribute arch, "rv32i2p0_m2p0_a2p0_f2p0_c2p0_b_p0p94"
   4              		.attribute unaligned_access, 0
   5              		.attribute stack_align, 16
   6              		.text
   7              	.Ltext0:
   8              		.cfi_sections	.debug_frame
   9              		.section	.text.awss_rst_update_statis,"ax",@progbits
  10              		.align	1
  11              		.globl	awss_rst_update_statis
  13              	awss_rst_update_statis:
  14              	.LFB4:
  15              		.file 1 "C:/Users/stapi/OneDrive/Desktop/GD32VW553/V1_MQTT_OK/GD32VW55X_Wifi_BLE_SDK/GD32VW55x_REL
   1:C:/Users/stapi/OneDrive/Desktop/GD32VW553/V1_MQTT_OK/GD32VW55X_Wifi_BLE_SDK/GD32VW55x_RELEASE_V1.0.2/MSDK/cloud/alicloud/src/services/linkkit/dev_reset\awss_reset_statis.c **** /*
   2:C:/Users/stapi/OneDrive/Desktop/GD32VW553/V1_MQTT_OK/GD32VW55X_Wifi_BLE_SDK/GD32VW55x_RELEASE_V1.0.2/MSDK/cloud/alicloud/src/services/linkkit/dev_reset\awss_reset_statis.c ****  * Copyright (C) 2015-2018 Alibaba Group Holding Limited
   3:C:/Users/stapi/OneDrive/Desktop/GD32VW553/V1_MQTT_OK/GD32VW55X_Wifi_BLE_SDK/GD32VW55x_RELEASE_V1.0.2/MSDK/cloud/alicloud/src/services/linkkit/dev_reset\awss_reset_statis.c ****  */
   4:C:/Users/stapi/OneDrive/Desktop/GD32VW553/V1_MQTT_OK/GD32VW55X_Wifi_BLE_SDK/GD32VW55x_RELEASE_V1.0.2/MSDK/cloud/alicloud/src/services/linkkit/dev_reset\awss_reset_statis.c **** 
   5:C:/Users/stapi/OneDrive/Desktop/GD32VW553/V1_MQTT_OK/GD32VW55X_Wifi_BLE_SDK/GD32VW55x_RELEASE_V1.0.2/MSDK/cloud/alicloud/src/services/linkkit/dev_reset\awss_reset_statis.c **** #include "iot_import.h"
   6:C:/Users/stapi/OneDrive/Desktop/GD32VW553/V1_MQTT_OK/GD32VW55X_Wifi_BLE_SDK/GD32VW55x_RELEASE_V1.0.2/MSDK/cloud/alicloud/src/services/linkkit/dev_reset\awss_reset_statis.c **** #include "iotx_log.h"
   7:C:/Users/stapi/OneDrive/Desktop/GD32VW553/V1_MQTT_OK/GD32VW55X_Wifi_BLE_SDK/GD32VW55x_RELEASE_V1.0.2/MSDK/cloud/alicloud/src/services/linkkit/dev_reset\awss_reset_statis.c **** #include "awss_reset_statis.h"
   8:C:/Users/stapi/OneDrive/Desktop/GD32VW553/V1_MQTT_OK/GD32VW55X_Wifi_BLE_SDK/GD32VW55x_RELEASE_V1.0.2/MSDK/cloud/alicloud/src/services/linkkit/dev_reset\awss_reset_statis.c **** 
   9:C:/Users/stapi/OneDrive/Desktop/GD32VW553/V1_MQTT_OK/GD32VW55X_Wifi_BLE_SDK/GD32VW55x_RELEASE_V1.0.2/MSDK/cloud/alicloud/src/services/linkkit/dev_reset\awss_reset_statis.c **** #ifdef AWSS_SUPPORT_DEV_RESET_STATIS
  10:C:/Users/stapi/OneDrive/Desktop/GD32VW553/V1_MQTT_OK/GD32VW55X_Wifi_BLE_SDK/GD32VW55x_RELEASE_V1.0.2/MSDK/cloud/alicloud/src/services/linkkit/dev_reset\awss_reset_statis.c **** static struct awss_statis_dev_rst_t g_dev_rst_statis;
  11:C:/Users/stapi/OneDrive/Desktop/GD32VW553/V1_MQTT_OK/GD32VW55X_Wifi_BLE_SDK/GD32VW55x_RELEASE_V1.0.2/MSDK/cloud/alicloud/src/services/linkkit/dev_reset\awss_reset_statis.c **** 
  12:C:/Users/stapi/OneDrive/Desktop/GD32VW553/V1_MQTT_OK/GD32VW55X_Wifi_BLE_SDK/GD32VW55x_RELEASE_V1.0.2/MSDK/cloud/alicloud/src/services/linkkit/dev_reset\awss_reset_statis.c **** #define RST_CNT    g_dev_rst_statis.dev_rst_cnt
  13:C:/Users/stapi/OneDrive/Desktop/GD32VW553/V1_MQTT_OK/GD32VW55X_Wifi_BLE_SDK/GD32VW55x_RELEASE_V1.0.2/MSDK/cloud/alicloud/src/services/linkkit/dev_reset\awss_reset_statis.c **** #define RST_SUC    g_dev_rst_statis.dev_rst_suc
  14:C:/Users/stapi/OneDrive/Desktop/GD32VW553/V1_MQTT_OK/GD32VW55X_Wifi_BLE_SDK/GD32VW55x_RELEASE_V1.0.2/MSDK/cloud/alicloud/src/services/linkkit/dev_reset\awss_reset_statis.c **** #define RST_TMEAN  g_dev_rst_statis.dev_rst_time_mean
  15:C:/Users/stapi/OneDrive/Desktop/GD32VW553/V1_MQTT_OK/GD32VW55X_Wifi_BLE_SDK/GD32VW55x_RELEASE_V1.0.2/MSDK/cloud/alicloud/src/services/linkkit/dev_reset\awss_reset_statis.c **** #define RST_TMIN   g_dev_rst_statis.dev_rst_time_min
  16:C:/Users/stapi/OneDrive/Desktop/GD32VW553/V1_MQTT_OK/GD32VW55X_Wifi_BLE_SDK/GD32VW55x_RELEASE_V1.0.2/MSDK/cloud/alicloud/src/services/linkkit/dev_reset\awss_reset_statis.c **** #define RST_TMAX   g_dev_rst_statis.dev_rst_time_max
  17:C:/Users/stapi/OneDrive/Desktop/GD32VW553/V1_MQTT_OK/GD32VW55X_Wifi_BLE_SDK/GD32VW55x_RELEASE_V1.0.2/MSDK/cloud/alicloud/src/services/linkkit/dev_reset\awss_reset_statis.c **** #define RST_START  g_dev_rst_statis.dev_rst_start
  18:C:/Users/stapi/OneDrive/Desktop/GD32VW553/V1_MQTT_OK/GD32VW55X_Wifi_BLE_SDK/GD32VW55x_RELEASE_V1.0.2/MSDK/cloud/alicloud/src/services/linkkit/dev_reset\awss_reset_statis.c **** #define RST_END    g_dev_rst_statis.dev_rst_end
  19:C:/Users/stapi/OneDrive/Desktop/GD32VW553/V1_MQTT_OK/GD32VW55X_Wifi_BLE_SDK/GD32VW55x_RELEASE_V1.0.2/MSDK/cloud/alicloud/src/services/linkkit/dev_reset\awss_reset_statis.c **** 
  20:C:/Users/stapi/OneDrive/Desktop/GD32VW553/V1_MQTT_OK/GD32VW55X_Wifi_BLE_SDK/GD32VW55x_RELEASE_V1.0.2/MSDK/cloud/alicloud/src/services/linkkit/dev_reset\awss_reset_statis.c **** void awss_rst_update_statis(int type)
  21:C:/Users/stapi/OneDrive/Desktop/GD32VW553/V1_MQTT_OK/GD32VW55X_Wifi_BLE_SDK/GD32VW55x_RELEASE_V1.0.2/MSDK/cloud/alicloud/src/services/linkkit/dev_reset\awss_reset_statis.c **** {
  16              		.loc 1 21 1
  17              		.cfi_startproc
  18              	.LVL0:
  19 0000 17030000 		call	t0,__riscv_save_1
  19      E7020300 
  20              		.cfi_offset 8, -8
  21              		.cfi_offset 1, -4
  22              		.cfi_def_cfa_offset 16
  22:C:/Users/stapi/OneDrive/Desktop/GD32VW553/V1_MQTT_OK/GD32VW55X_Wifi_BLE_SDK/GD32VW55x_RELEASE_V1.0.2/MSDK/cloud/alicloud/src/services/linkkit/dev_reset\awss_reset_statis.c ****     uint32_t time = HAL_UptimeMs();
  23              		.loc 1 22 5
  21:C:/Users/stapi/OneDrive/Desktop/GD32VW553/V1_MQTT_OK/GD32VW55X_Wifi_BLE_SDK/GD32VW55x_RELEASE_V1.0.2/MSDK/cloud/alicloud/src/services/linkkit/dev_reset\awss_reset_statis.c ****     uint32_t time = HAL_UptimeMs();
  24              		.loc 1 21 1 is_stmt 0
  25 0008 2A84     		mv	s0,a0
  26              		.loc 1 22 21
  27 000a 97000000 		call	HAL_UptimeMs
  27      E7800000 
  28              	.LVL1:
  23:C:/Users/stapi/OneDrive/Desktop/GD32VW553/V1_MQTT_OK/GD32VW55X_Wifi_BLE_SDK/GD32VW55x_RELEASE_V1.0.2/MSDK/cloud/alicloud/src/services/linkkit/dev_reset\awss_reset_statis.c ****     switch (type) {
  29              		.loc 1 23 5 is_stmt 1
  30 0012 01C8     		beq	s0,zero,.L2
  31 0014 8547     		li	a5,1
  32 0016 630FF400 		beq	s0,a5,.L3
  33              	.LVL2:
  34              	.L1:
  24:C:/Users/stapi/OneDrive/Desktop/GD32VW553/V1_MQTT_OK/GD32VW55X_Wifi_BLE_SDK/GD32VW55x_RELEASE_V1.0.2/MSDK/cloud/alicloud/src/services/linkkit/dev_reset\awss_reset_statis.c ****         case AWSS_RST_STATIS_START:
  25:C:/Users/stapi/OneDrive/Desktop/GD32VW553/V1_MQTT_OK/GD32VW55X_Wifi_BLE_SDK/GD32VW55x_RELEASE_V1.0.2/MSDK/cloud/alicloud/src/services/linkkit/dev_reset\awss_reset_statis.c ****             RST_CNT ++;
  26:C:/Users/stapi/OneDrive/Desktop/GD32VW553/V1_MQTT_OK/GD32VW55X_Wifi_BLE_SDK/GD32VW55x_RELEASE_V1.0.2/MSDK/cloud/alicloud/src/services/linkkit/dev_reset\awss_reset_statis.c ****             RST_START = time;
  27:C:/Users/stapi/OneDrive/Desktop/GD32VW553/V1_MQTT_OK/GD32VW55X_Wifi_BLE_SDK/GD32VW55x_RELEASE_V1.0.2/MSDK/cloud/alicloud/src/services/linkkit/dev_reset\awss_reset_statis.c ****             break;
  28:C:/Users/stapi/OneDrive/Desktop/GD32VW553/V1_MQTT_OK/GD32VW55X_Wifi_BLE_SDK/GD32VW55x_RELEASE_V1.0.2/MSDK/cloud/alicloud/src/services/linkkit/dev_reset\awss_reset_statis.c ****         case AWSS_RST_STATIS_SUC:
  29:C:/Users/stapi/OneDrive/Desktop/GD32VW553/V1_MQTT_OK/GD32VW55X_Wifi_BLE_SDK/GD32VW55x_RELEASE_V1.0.2/MSDK/cloud/alicloud/src/services/linkkit/dev_reset\awss_reset_statis.c ****             RST_END = time;
  30:C:/Users/stapi/OneDrive/Desktop/GD32VW553/V1_MQTT_OK/GD32VW55X_Wifi_BLE_SDK/GD32VW55x_RELEASE_V1.0.2/MSDK/cloud/alicloud/src/services/linkkit/dev_reset\awss_reset_statis.c ****             RST_SUC ++;
  31:C:/Users/stapi/OneDrive/Desktop/GD32VW553/V1_MQTT_OK/GD32VW55X_Wifi_BLE_SDK/GD32VW55x_RELEASE_V1.0.2/MSDK/cloud/alicloud/src/services/linkkit/dev_reset\awss_reset_statis.c ****             time = (uint32_t)(RST_END - RST_START);
  32:C:/Users/stapi/OneDrive/Desktop/GD32VW553/V1_MQTT_OK/GD32VW55X_Wifi_BLE_SDK/GD32VW55x_RELEASE_V1.0.2/MSDK/cloud/alicloud/src/services/linkkit/dev_reset\awss_reset_statis.c ****             if (RST_SUC > 0) {
  33:C:/Users/stapi/OneDrive/Desktop/GD32VW553/V1_MQTT_OK/GD32VW55X_Wifi_BLE_SDK/GD32VW55x_RELEASE_V1.0.2/MSDK/cloud/alicloud/src/services/linkkit/dev_reset\awss_reset_statis.c ****                 RST_TMEAN = (RST_TMEAN + time) / RST_SUC;
  34:C:/Users/stapi/OneDrive/Desktop/GD32VW553/V1_MQTT_OK/GD32VW55X_Wifi_BLE_SDK/GD32VW55x_RELEASE_V1.0.2/MSDK/cloud/alicloud/src/services/linkkit/dev_reset\awss_reset_statis.c ****             } else {
  35:C:/Users/stapi/OneDrive/Desktop/GD32VW553/V1_MQTT_OK/GD32VW55X_Wifi_BLE_SDK/GD32VW55x_RELEASE_V1.0.2/MSDK/cloud/alicloud/src/services/linkkit/dev_reset\awss_reset_statis.c ****                 RST_SUC = 1;
  36:C:/Users/stapi/OneDrive/Desktop/GD32VW553/V1_MQTT_OK/GD32VW55X_Wifi_BLE_SDK/GD32VW55x_RELEASE_V1.0.2/MSDK/cloud/alicloud/src/services/linkkit/dev_reset\awss_reset_statis.c ****                 RST_TMEAN = time;
  37:C:/Users/stapi/OneDrive/Desktop/GD32VW553/V1_MQTT_OK/GD32VW55X_Wifi_BLE_SDK/GD32VW55x_RELEASE_V1.0.2/MSDK/cloud/alicloud/src/services/linkkit/dev_reset\awss_reset_statis.c ****             }
  38:C:/Users/stapi/OneDrive/Desktop/GD32VW553/V1_MQTT_OK/GD32VW55X_Wifi_BLE_SDK/GD32VW55x_RELEASE_V1.0.2/MSDK/cloud/alicloud/src/services/linkkit/dev_reset\awss_reset_statis.c ****             if (RST_TMIN == 0 || RST_TMIN > time)
  39:C:/Users/stapi/OneDrive/Desktop/GD32VW553/V1_MQTT_OK/GD32VW55X_Wifi_BLE_SDK/GD32VW55x_RELEASE_V1.0.2/MSDK/cloud/alicloud/src/services/linkkit/dev_reset\awss_reset_statis.c ****                 RST_TMIN = time;
  40:C:/Users/stapi/OneDrive/Desktop/GD32VW553/V1_MQTT_OK/GD32VW55X_Wifi_BLE_SDK/GD32VW55x_RELEASE_V1.0.2/MSDK/cloud/alicloud/src/services/linkkit/dev_reset\awss_reset_statis.c ****             if (RST_TMAX == 0 || RST_TMAX < time)
  41:C:/Users/stapi/OneDrive/Desktop/GD32VW553/V1_MQTT_OK/GD32VW55X_Wifi_BLE_SDK/GD32VW55x_RELEASE_V1.0.2/MSDK/cloud/alicloud/src/services/linkkit/dev_reset\awss_reset_statis.c ****                 RST_TMAX = time;
  42:C:/Users/stapi/OneDrive/Desktop/GD32VW553/V1_MQTT_OK/GD32VW55X_Wifi_BLE_SDK/GD32VW55x_RELEASE_V1.0.2/MSDK/cloud/alicloud/src/services/linkkit/dev_reset\awss_reset_statis.c ****             break;
  43:C:/Users/stapi/OneDrive/Desktop/GD32VW553/V1_MQTT_OK/GD32VW55X_Wifi_BLE_SDK/GD32VW55x_RELEASE_V1.0.2/MSDK/cloud/alicloud/src/services/linkkit/dev_reset\awss_reset_statis.c ****         default:
  44:C:/Users/stapi/OneDrive/Desktop/GD32VW553/V1_MQTT_OK/GD32VW55X_Wifi_BLE_SDK/GD32VW55x_RELEASE_V1.0.2/MSDK/cloud/alicloud/src/services/linkkit/dev_reset\awss_reset_statis.c ****             break;
  45:C:/Users/stapi/OneDrive/Desktop/GD32VW553/V1_MQTT_OK/GD32VW55X_Wifi_BLE_SDK/GD32VW55x_RELEASE_V1.0.2/MSDK/cloud/alicloud/src/services/linkkit/dev_reset\awss_reset_statis.c ****     }
  46:C:/Users/stapi/OneDrive/Desktop/GD32VW553/V1_MQTT_OK/GD32VW55X_Wifi_BLE_SDK/GD32VW55x_RELEASE_V1.0.2/MSDK/cloud/alicloud/src/services/linkkit/dev_reset\awss_reset_statis.c **** }
  35              		.loc 1 46 1 is_stmt 0
  36 001a 17030000 		tail	__riscv_restore_1
  36      67000300 
  37              		.cfi_remember_state
  38              		.cfi_restore 8
  39              		.cfi_restore 1
  40              		.cfi_def_cfa_offset 0
  41              	.LVL3:
  42              	.L2:
  43              		.cfi_restore_state
  25:C:/Users/stapi/OneDrive/Desktop/GD32VW553/V1_MQTT_OK/GD32VW55X_Wifi_BLE_SDK/GD32VW55x_RELEASE_V1.0.2/MSDK/cloud/alicloud/src/services/linkkit/dev_reset\awss_reset_statis.c ****             RST_START = time;
  44              		.loc 1 25 13 is_stmt 1
  25:C:/Users/stapi/OneDrive/Desktop/GD32VW553/V1_MQTT_OK/GD32VW55X_Wifi_BLE_SDK/GD32VW55x_RELEASE_V1.0.2/MSDK/cloud/alicloud/src/services/linkkit/dev_reset\awss_reset_statis.c ****             RST_START = time;
  45              		.loc 1 25 21 is_stmt 0
  46 0022 B7070000 		lui	a5,%hi(.LANCHOR0)
  47 0026 93870700 		addi	a5,a5,%lo(.LANCHOR0)
  48 002a 9843     		lw	a4,0(a5)
  26:C:/Users/stapi/OneDrive/Desktop/GD32VW553/V1_MQTT_OK/GD32VW55X_Wifi_BLE_SDK/GD32VW55x_RELEASE_V1.0.2/MSDK/cloud/alicloud/src/services/linkkit/dev_reset\awss_reset_statis.c ****             break;
  49              		.loc 1 26 23
  50 002c C8CB     		sw	a0,20(a5)
  25:C:/Users/stapi/OneDrive/Desktop/GD32VW553/V1_MQTT_OK/GD32VW55X_Wifi_BLE_SDK/GD32VW55x_RELEASE_V1.0.2/MSDK/cloud/alicloud/src/services/linkkit/dev_reset\awss_reset_statis.c ****             RST_START = time;
  51              		.loc 1 25 21
  52 002e 0507     		addi	a4,a4,1
  53 0030 98C3     		sw	a4,0(a5)
  26:C:/Users/stapi/OneDrive/Desktop/GD32VW553/V1_MQTT_OK/GD32VW55X_Wifi_BLE_SDK/GD32VW55x_RELEASE_V1.0.2/MSDK/cloud/alicloud/src/services/linkkit/dev_reset\awss_reset_statis.c ****             break;
  54              		.loc 1 26 13 is_stmt 1
  27:C:/Users/stapi/OneDrive/Desktop/GD32VW553/V1_MQTT_OK/GD32VW55X_Wifi_BLE_SDK/GD32VW55x_RELEASE_V1.0.2/MSDK/cloud/alicloud/src/services/linkkit/dev_reset\awss_reset_statis.c ****         case AWSS_RST_STATIS_SUC:
  55              		.loc 1 27 13
  56 0032 E5B7     		j	.L1
  57              	.L3:
  29:C:/Users/stapi/OneDrive/Desktop/GD32VW553/V1_MQTT_OK/GD32VW55X_Wifi_BLE_SDK/GD32VW55x_RELEASE_V1.0.2/MSDK/cloud/alicloud/src/services/linkkit/dev_reset\awss_reset_statis.c ****             RST_SUC ++;
  58              		.loc 1 29 13
  29:C:/Users/stapi/OneDrive/Desktop/GD32VW553/V1_MQTT_OK/GD32VW55X_Wifi_BLE_SDK/GD32VW55x_RELEASE_V1.0.2/MSDK/cloud/alicloud/src/services/linkkit/dev_reset\awss_reset_statis.c ****             RST_SUC ++;
  59              		.loc 1 29 21 is_stmt 0
  60 0034 37070000 		lui	a4,%hi(.LANCHOR0)
  61 0038 93070700 		addi	a5,a4,%lo(.LANCHOR0)
  30:C:/Users/stapi/OneDrive/Desktop/GD32VW553/V1_MQTT_OK/GD32VW55X_Wifi_BLE_SDK/GD32VW55x_RELEASE_V1.0.2/MSDK/cloud/alicloud/src/services/linkkit/dev_reset\awss_reset_statis.c ****             time = (uint32_t)(RST_END - RST_START);
  62              		.loc 1 30 21
  63 003c D443     		lw	a3,4(a5)
  29:C:/Users/stapi/OneDrive/Desktop/GD32VW553/V1_MQTT_OK/GD32VW55X_Wifi_BLE_SDK/GD32VW55x_RELEASE_V1.0.2/MSDK/cloud/alicloud/src/services/linkkit/dev_reset\awss_reset_statis.c ****             RST_SUC ++;
  64              		.loc 1 29 21
  65 003e 88CF     		sw	a0,24(a5)
  30:C:/Users/stapi/OneDrive/Desktop/GD32VW553/V1_MQTT_OK/GD32VW55X_Wifi_BLE_SDK/GD32VW55x_RELEASE_V1.0.2/MSDK/cloud/alicloud/src/services/linkkit/dev_reset\awss_reset_statis.c ****             time = (uint32_t)(RST_END - RST_START);
  66              		.loc 1 30 13 is_stmt 1
  67 0040 13070700 		addi	a4,a4,%lo(.LANCHOR0)
  30:C:/Users/stapi/OneDrive/Desktop/GD32VW553/V1_MQTT_OK/GD32VW55X_Wifi_BLE_SDK/GD32VW55x_RELEASE_V1.0.2/MSDK/cloud/alicloud/src/services/linkkit/dev_reset\awss_reset_statis.c ****             time = (uint32_t)(RST_END - RST_START);
  68              		.loc 1 30 21 is_stmt 0
  69 0044 13861600 		addi	a2,a3,1
  70 0048 D0C3     		sw	a2,4(a5)
  31:C:/Users/stapi/OneDrive/Desktop/GD32VW553/V1_MQTT_OK/GD32VW55X_Wifi_BLE_SDK/GD32VW55x_RELEASE_V1.0.2/MSDK/cloud/alicloud/src/services/linkkit/dev_reset\awss_reset_statis.c ****             if (RST_SUC > 0) {
  71              		.loc 1 31 13 is_stmt 1
  31:C:/Users/stapi/OneDrive/Desktop/GD32VW553/V1_MQTT_OK/GD32VW55X_Wifi_BLE_SDK/GD32VW55x_RELEASE_V1.0.2/MSDK/cloud/alicloud/src/services/linkkit/dev_reset\awss_reset_statis.c ****             if (RST_SUC > 0) {
  72              		.loc 1 31 18 is_stmt 0
  73 004a DC4B     		lw	a5,20(a5)
  74 004c B307F540 		sub	a5,a0,a5
  75              	.LVL4:
  32:C:/Users/stapi/OneDrive/Desktop/GD32VW553/V1_MQTT_OK/GD32VW55X_Wifi_BLE_SDK/GD32VW55x_RELEASE_V1.0.2/MSDK/cloud/alicloud/src/services/linkkit/dev_reset\awss_reset_statis.c ****                 RST_TMEAN = (RST_TMEAN + time) / RST_SUC;
  76              		.loc 1 32 13 is_stmt 1
  32:C:/Users/stapi/OneDrive/Desktop/GD32VW553/V1_MQTT_OK/GD32VW55X_Wifi_BLE_SDK/GD32VW55x_RELEASE_V1.0.2/MSDK/cloud/alicloud/src/services/linkkit/dev_reset\awss_reset_statis.c ****                 RST_TMEAN = (RST_TMEAN + time) / RST_SUC;
  77              		.loc 1 32 16 is_stmt 0
  78 0050 0DC2     		beq	a2,zero,.L5
  33:C:/Users/stapi/OneDrive/Desktop/GD32VW553/V1_MQTT_OK/GD32VW55X_Wifi_BLE_SDK/GD32VW55x_RELEASE_V1.0.2/MSDK/cloud/alicloud/src/services/linkkit/dev_reset\awss_reset_statis.c ****             } else {
  79              		.loc 1 33 17 is_stmt 1
  33:C:/Users/stapi/OneDrive/Desktop/GD32VW553/V1_MQTT_OK/GD32VW55X_Wifi_BLE_SDK/GD32VW55x_RELEASE_V1.0.2/MSDK/cloud/alicloud/src/services/linkkit/dev_reset\awss_reset_statis.c ****             } else {
  80              		.loc 1 33 40 is_stmt 0
  81 0052 1447     		lw	a3,8(a4)
  82 0054 BE96     		add	a3,a5,a3
  33:C:/Users/stapi/OneDrive/Desktop/GD32VW553/V1_MQTT_OK/GD32VW55X_Wifi_BLE_SDK/GD32VW55x_RELEASE_V1.0.2/MSDK/cloud/alicloud/src/services/linkkit/dev_reset\awss_reset_statis.c ****             } else {
  83              		.loc 1 33 48
  84 0056 B3D6C602 		divu	a3,a3,a2
  33:C:/Users/stapi/OneDrive/Desktop/GD32VW553/V1_MQTT_OK/GD32VW55X_Wifi_BLE_SDK/GD32VW55x_RELEASE_V1.0.2/MSDK/cloud/alicloud/src/services/linkkit/dev_reset\awss_reset_statis.c ****             } else {
  85              		.loc 1 33 27
  86 005a 14C7     		sw	a3,8(a4)
  87              	.L6:
  38:C:/Users/stapi/OneDrive/Desktop/GD32VW553/V1_MQTT_OK/GD32VW55X_Wifi_BLE_SDK/GD32VW55x_RELEASE_V1.0.2/MSDK/cloud/alicloud/src/services/linkkit/dev_reset\awss_reset_statis.c ****                 RST_TMIN = time;
  88              		.loc 1 38 13 is_stmt 1
  38:C:/Users/stapi/OneDrive/Desktop/GD32VW553/V1_MQTT_OK/GD32VW55X_Wifi_BLE_SDK/GD32VW55x_RELEASE_V1.0.2/MSDK/cloud/alicloud/src/services/linkkit/dev_reset\awss_reset_statis.c ****                 RST_TMIN = time;
  89              		.loc 1 38 17 is_stmt 0
  90 005c 144B     		lw	a3,16(a4)
  38:C:/Users/stapi/OneDrive/Desktop/GD32VW553/V1_MQTT_OK/GD32VW55X_Wifi_BLE_SDK/GD32VW55x_RELEASE_V1.0.2/MSDK/cloud/alicloud/src/services/linkkit/dev_reset\awss_reset_statis.c ****                 RST_TMIN = time;
  91              		.loc 1 38 16
  92 005e 99C2     		beq	a3,zero,.L7
  38:C:/Users/stapi/OneDrive/Desktop/GD32VW553/V1_MQTT_OK/GD32VW55X_Wifi_BLE_SDK/GD32VW55x_RELEASE_V1.0.2/MSDK/cloud/alicloud/src/services/linkkit/dev_reset\awss_reset_statis.c ****                 RST_TMIN = time;
  93              		.loc 1 38 31 discriminator 1
  94 0060 63F3D700 		bleu	a3,a5,.L8
  95              	.L7:
  39:C:/Users/stapi/OneDrive/Desktop/GD32VW553/V1_MQTT_OK/GD32VW55X_Wifi_BLE_SDK/GD32VW55x_RELEASE_V1.0.2/MSDK/cloud/alicloud/src/services/linkkit/dev_reset\awss_reset_statis.c ****             if (RST_TMAX == 0 || RST_TMAX < time)
  96              		.loc 1 39 17 is_stmt 1
  39:C:/Users/stapi/OneDrive/Desktop/GD32VW553/V1_MQTT_OK/GD32VW55X_Wifi_BLE_SDK/GD32VW55x_RELEASE_V1.0.2/MSDK/cloud/alicloud/src/services/linkkit/dev_reset\awss_reset_statis.c ****             if (RST_TMAX == 0 || RST_TMAX < time)
  97              		.loc 1 39 26 is_stmt 0
  98 0064 1CCB     		sw	a5,16(a4)
  99              	.L8:
  40:C:/Users/stapi/OneDrive/Desktop/GD32VW553/V1_MQTT_OK/GD32VW55X_Wifi_BLE_SDK/GD32VW55x_RELEASE_V1.0.2/MSDK/cloud/alicloud/src/services/linkkit/dev_reset\awss_reset_statis.c ****                 RST_TMAX = time;
 100              		.loc 1 40 13 is_stmt 1
  40:C:/Users/stapi/OneDrive/Desktop/GD32VW553/V1_MQTT_OK/GD32VW55X_Wifi_BLE_SDK/GD32VW55x_RELEASE_V1.0.2/MSDK/cloud/alicloud/src/services/linkkit/dev_reset\awss_reset_statis.c ****                 RST_TMAX = time;
 101              		.loc 1 40 17 is_stmt 0
 102 0066 5447     		lw	a3,12(a4)
  40:C:/Users/stapi/OneDrive/Desktop/GD32VW553/V1_MQTT_OK/GD32VW55X_Wifi_BLE_SDK/GD32VW55x_RELEASE_V1.0.2/MSDK/cloud/alicloud/src/services/linkkit/dev_reset\awss_reset_statis.c ****                 RST_TMAX = time;
 103              		.loc 1 40 16
 104 0068 99C2     		beq	a3,zero,.L9
  40:C:/Users/stapi/OneDrive/Desktop/GD32VW553/V1_MQTT_OK/GD32VW55X_Wifi_BLE_SDK/GD32VW55x_RELEASE_V1.0.2/MSDK/cloud/alicloud/src/services/linkkit/dev_reset\awss_reset_statis.c ****                 RST_TMAX = time;
 105              		.loc 1 40 31 discriminator 1
 106 006a E3F8F6FA 		bgeu	a3,a5,.L1
 107              	.L9:
  41:C:/Users/stapi/OneDrive/Desktop/GD32VW553/V1_MQTT_OK/GD32VW55X_Wifi_BLE_SDK/GD32VW55x_RELEASE_V1.0.2/MSDK/cloud/alicloud/src/services/linkkit/dev_reset\awss_reset_statis.c ****             break;
 108              		.loc 1 41 17 is_stmt 1
  41:C:/Users/stapi/OneDrive/Desktop/GD32VW553/V1_MQTT_OK/GD32VW55X_Wifi_BLE_SDK/GD32VW55x_RELEASE_V1.0.2/MSDK/cloud/alicloud/src/services/linkkit/dev_reset\awss_reset_statis.c ****             break;
 109              		.loc 1 41 26 is_stmt 0
 110 006e 5CC7     		sw	a5,12(a4)
 111              		.loc 1 46 1
 112 0070 6DB7     		j	.L1
 113              	.L5:
  35:C:/Users/stapi/OneDrive/Desktop/GD32VW553/V1_MQTT_OK/GD32VW55X_Wifi_BLE_SDK/GD32VW55x_RELEASE_V1.0.2/MSDK/cloud/alicloud/src/services/linkkit/dev_reset\awss_reset_statis.c ****                 RST_TMEAN = time;
 114              		.loc 1 35 17 is_stmt 1
  35:C:/Users/stapi/OneDrive/Desktop/GD32VW553/V1_MQTT_OK/GD32VW55X_Wifi_BLE_SDK/GD32VW55x_RELEASE_V1.0.2/MSDK/cloud/alicloud/src/services/linkkit/dev_reset\awss_reset_statis.c ****                 RST_TMEAN = time;
 115              		.loc 1 35 25 is_stmt 0
 116 0072 40C3     		sw	s0,4(a4)
  36:C:/Users/stapi/OneDrive/Desktop/GD32VW553/V1_MQTT_OK/GD32VW55X_Wifi_BLE_SDK/GD32VW55x_RELEASE_V1.0.2/MSDK/cloud/alicloud/src/services/linkkit/dev_reset\awss_reset_statis.c ****             }
 117              		.loc 1 36 17 is_stmt 1
  36:C:/Users/stapi/OneDrive/Desktop/GD32VW553/V1_MQTT_OK/GD32VW55X_Wifi_BLE_SDK/GD32VW55x_RELEASE_V1.0.2/MSDK/cloud/alicloud/src/services/linkkit/dev_reset\awss_reset_statis.c ****             }
 118              		.loc 1 36 27 is_stmt 0
 119 0074 1CC7     		sw	a5,8(a4)
 120 0076 DDB7     		j	.L6
 121              		.cfi_endproc
 122              	.LFE4:
 124              		.section	.rodata.awss_rst_disp_statis.str1.4,"aMS",@progbits,1
 125              		.align	2
 126              	.LC0:
 127 0000 2D2D2D2D 		.string	"-------------------------DEV RESET STATIS----------------------------"
 127      2D2D2D2D 
 127      2D2D2D2D 
 127      2D2D2D2D 
 127      2D2D2D2D 
 128 0046 0000     		.align	2
 129              	.LC1:
 130 0048 5B525354 		.string	"[RST]"
 130      5D00
 131 004e 0000     		.align	2
 132              	.LC2:
 133 0050 6E616D65 		.string	"name\t\tmax\tmin\tmean\tcnt\tsuc"
 133      09096D61 
 133      78096D69 
 133      6E096D65 
 133      616E0963 
 134 006b 00       		.align	2
 135              	.LC3:
 136 006c 53796E63 		.string	"Sync Reset     \t%u\t%u\t%u\t%u\t%u\t"
 136      20526573 
 136      65742020 
 136      20202009 
 136      25750925 
 137              		.align	2
 138              	.LC4:
 139 008c 2D2D2D2D 		.string	"---------------------------------------------------------------------"
 139      2D2D2D2D 
 139      2D2D2D2D 
 139      2D2D2D2D 
 139      2D2D2D2D 
 140              		.section	.text.awss_rst_disp_statis,"ax",@progbits
 141              		.align	1
 142              		.globl	awss_rst_disp_statis
 144              	awss_rst_disp_statis:
 145              	.LFB5:
  47:C:/Users/stapi/OneDrive/Desktop/GD32VW553/V1_MQTT_OK/GD32VW55X_Wifi_BLE_SDK/GD32VW55x_RELEASE_V1.0.2/MSDK/cloud/alicloud/src/services/linkkit/dev_reset\awss_reset_statis.c **** 
  48:C:/Users/stapi/OneDrive/Desktop/GD32VW553/V1_MQTT_OK/GD32VW55X_Wifi_BLE_SDK/GD32VW55x_RELEASE_V1.0.2/MSDK/cloud/alicloud/src/services/linkkit/dev_reset\awss_reset_statis.c **** void awss_rst_disp_statis()
  49:C:/Users/stapi/OneDrive/Desktop/GD32VW553/V1_MQTT_OK/GD32VW55X_Wifi_BLE_SDK/GD32VW55x_RELEASE_V1.0.2/MSDK/cloud/alicloud/src/services/linkkit/dev_reset\awss_reset_statis.c **** {
 146              		.loc 1 49 1 is_stmt 1
 147              		.cfi_startproc
 148 0000 17030000 		call	t0,__riscv_save_2
 148      E7020300 
 149              		.cfi_offset 9, -12
 150              		.cfi_offset 8, -8
 151              		.cfi_offset 1, -4
 152              		.cfi_def_cfa_offset 16
  50:C:/Users/stapi/OneDrive/Desktop/GD32VW553/V1_MQTT_OK/GD32VW55X_Wifi_BLE_SDK/GD32VW55x_RELEASE_V1.0.2/MSDK/cloud/alicloud/src/services/linkkit/dev_reset\awss_reset_statis.c ****     log_debug("[RST]", "-------------------------DEV RESET STATIS----------------------------");
 153              		.loc 1 50 5
 154 0008 37040000 		lui	s0,%hi(.LC1)
 155 000c B7040000 		lui	s1,%hi(.LANCHOR1)
 156 0010 37070000 		lui	a4,%hi(.LC0)
  49:C:/Users/stapi/OneDrive/Desktop/GD32VW553/V1_MQTT_OK/GD32VW55X_Wifi_BLE_SDK/GD32VW55x_RELEASE_V1.0.2/MSDK/cloud/alicloud/src/services/linkkit/dev_reset\awss_reset_statis.c ****     log_debug("[RST]", "-------------------------DEV RESET STATIS----------------------------");
 157              		.loc 1 49 1 is_stmt 0
 158 0014 4111     		addi	sp,sp,-16
 159              		.cfi_def_cfa_offset 32
 160              		.loc 1 50 5
 161 0016 93850400 		addi	a1,s1,%lo(.LANCHOR1)
 162 001a 13050400 		addi	a0,s0,%lo(.LC1)
 163 001e 13070700 		addi	a4,a4,%lo(.LC0)
 164 0022 9546     		li	a3,5
 165 0024 13062003 		li	a2,50
 166 0028 97000000 		call	LITE_syslog
 166      E7800000 
 167              	.LVL5:
  51:C:/Users/stapi/OneDrive/Desktop/GD32VW553/V1_MQTT_OK/GD32VW55X_Wifi_BLE_SDK/GD32VW55x_RELEASE_V1.0.2/MSDK/cloud/alicloud/src/services/linkkit/dev_reset\awss_reset_statis.c ****     log_debug("[RST]", "name\t\tmax\tmin\tmean\tcnt\tsuc");
 168              		.loc 1 51 5 is_stmt 1
 169 0030 37070000 		lui	a4,%hi(.LC2)
 170 0034 93850400 		addi	a1,s1,%lo(.LANCHOR1)
 171 0038 13050400 		addi	a0,s0,%lo(.LC1)
 172 003c 13070700 		addi	a4,a4,%lo(.LC2)
 173 0040 9546     		li	a3,5
 174 0042 13063003 		li	a2,51
 175 0046 97000000 		call	LITE_syslog
 175      E7800000 
 176              	.LVL6:
  52:C:/Users/stapi/OneDrive/Desktop/GD32VW553/V1_MQTT_OK/GD32VW55X_Wifi_BLE_SDK/GD32VW55x_RELEASE_V1.0.2/MSDK/cloud/alicloud/src/services/linkkit/dev_reset\awss_reset_statis.c ****     log_debug("[RST]", "Sync Reset     \t%u\t%u\t%u\t%u\t%u\t",
 177              		.loc 1 52 5
 178 004e B7070000 		lui	a5,%hi(.LANCHOR0)
 179 0052 93870700 		addi	a5,a5,%lo(.LANCHOR0)
 180 0056 D843     		lw	a4,4(a5)
 181 0058 93850400 		addi	a1,s1,%lo(.LANCHOR1)
 182 005c 13050400 		addi	a0,s0,%lo(.LC1)
 183 0060 3AC2     		sw	a4,4(sp)
 184 0062 9843     		lw	a4,0(a5)
 185 0064 9546     		li	a3,5
 186 0066 13064003 		li	a2,52
 187 006a 3AC0     		sw	a4,0(sp)
 188 006c 83A88700 		lw	a7,8(a5)
 189 0070 03A80701 		lw	a6,16(a5)
 190 0074 DC47     		lw	a5,12(a5)
 191 0076 37070000 		lui	a4,%hi(.LC3)
 192 007a 13070700 		addi	a4,a4,%lo(.LC3)
 193 007e 97000000 		call	LITE_syslog
 193      E7800000 
 194              	.LVL7:
  53:C:/Users/stapi/OneDrive/Desktop/GD32VW553/V1_MQTT_OK/GD32VW55X_Wifi_BLE_SDK/GD32VW55x_RELEASE_V1.0.2/MSDK/cloud/alicloud/src/services/linkkit/dev_reset\awss_reset_statis.c ****             RST_TMAX, RST_TMIN, RST_TMEAN, RST_CNT, RST_SUC);
  54:C:/Users/stapi/OneDrive/Desktop/GD32VW553/V1_MQTT_OK/GD32VW55X_Wifi_BLE_SDK/GD32VW55x_RELEASE_V1.0.2/MSDK/cloud/alicloud/src/services/linkkit/dev_reset\awss_reset_statis.c ****     log_debug("[RST]", "---------------------------------------------------------------------");
 195              		.loc 1 54 5
 196 0086 37070000 		lui	a4,%hi(.LC4)
 197 008a 13070700 		addi	a4,a4,%lo(.LC4)
 198 008e 9546     		li	a3,5
 199 0090 13066003 		li	a2,54
 200 0094 93850400 		addi	a1,s1,%lo(.LANCHOR1)
 201 0098 13050400 		addi	a0,s0,%lo(.LC1)
 202 009c 97000000 		call	LITE_syslog
 202      E7800000 
 203              	.LVL8:
  55:C:/Users/stapi/OneDrive/Desktop/GD32VW553/V1_MQTT_OK/GD32VW55X_Wifi_BLE_SDK/GD32VW55x_RELEASE_V1.0.2/MSDK/cloud/alicloud/src/services/linkkit/dev_reset\awss_reset_statis.c **** }
 204              		.loc 1 55 1 is_stmt 0
 205 00a4 4101     		addi	sp,sp,16
 206              		.cfi_def_cfa_offset 0
 207 00a6 17030000 		tail	__riscv_restore_2
 207      67000300 
 208              		.cfi_restore 9
 209              		.cfi_restore 8
 210              		.cfi_restore 1
 211              		.cfi_def_cfa_offset -16
 212              		.cfi_endproc
 213              	.LFE5:
 215              		.section	.bss.g_dev_rst_statis,"aw",@nobits
 216              		.align	2
 217              		.set	.LANCHOR0,. + 0
 220              	g_dev_rst_statis:
 221 0000 00000000 		.zero	28
 221      00000000 
 221      00000000 
 221      00000000 
 221      00000000 
 222              		.section	.rodata.__FUNCTION__.0,"a"
 223              		.align	2
 224              		.set	.LANCHOR1,. + 0
 227              	__FUNCTION__.0:
 228 0000 61777373 		.string	"awss_rst_disp_statis"
 228      5F727374 
 228      5F646973 
 228      705F7374 
 228      61746973 
 229              		.text
 230              	.Letext0:
 231              		.file 2 "c:\\users\\stapi\\onedrive\\desktop\\gd32vw553\\embeddedbuilder_v1.4.7.26843\\tools\\nucl
 232              		.file 3 "c:\\users\\stapi\\onedrive\\desktop\\gd32vw553\\embeddedbuilder_v1.4.7.26843\\tools\\nucl
 233              		.file 4 "C:/Users/stapi/OneDrive/Desktop/GD32VW553/V1_MQTT_OK/GD32VW55X_Wifi_BLE_SDK/GD32VW55x_REL
 234              		.file 5 "..\\..\\..\\..\\cloud\\alicloud\\src\\infra\\log/iotx_log.h"
 235              		.file 6 "..\\..\\..\\..\\cloud\\alicloud\\include/iot_import.h"