   1              		.file	"dm_api.c"
   2              		.option nopic
   3              		.attribute arch, "rv32i2p0_m2p0_a2p0_f2p0_c2p0_b_p0p94"
   4              		.attribute unaligned_access, 0
   5              		.attribute stack_align, 16
   6              		.text
   7              	.Ltext0:
   8              		.cfi_sections	.debug_frame
   9              		.section	.text._dm_api_lock,"ax",@progbits
  10              		.align	1
  12              	_dm_api_lock:
  13              	.LFB21:
  14              		.file 1 "C:/Users/stapi/OneDrive/Desktop/GD32VW553/V1_MQTT_OK/GD32VW55X_Wifi_BLE_SDK/GD32VW55x_REL
   1:C:/Users/stapi/OneDrive/Desktop/GD32VW553/V1_MQTT_OK/GD32VW55X_Wifi_BLE_SDK/GD32VW55x_RELEASE_V1.0.2/MSDK/cloud/alicloud/src/services/linkkit/dm\dm_api.c **** /*
   2:C:/Users/stapi/OneDrive/Desktop/GD32VW553/V1_MQTT_OK/GD32VW55X_Wifi_BLE_SDK/GD32VW55x_RELEASE_V1.0.2/MSDK/cloud/alicloud/src/services/linkkit/dm\dm_api.c ****  * Copyright (C) 2015-2018 Alibaba Group Holding Limited
   3:C:/Users/stapi/OneDrive/Desktop/GD32VW553/V1_MQTT_OK/GD32VW55X_Wifi_BLE_SDK/GD32VW55x_RELEASE_V1.0.2/MSDK/cloud/alicloud/src/services/linkkit/dm\dm_api.c ****  */
   4:C:/Users/stapi/OneDrive/Desktop/GD32VW553/V1_MQTT_OK/GD32VW55X_Wifi_BLE_SDK/GD32VW55x_RELEASE_V1.0.2/MSDK/cloud/alicloud/src/services/linkkit/dm\dm_api.c **** 
   5:C:/Users/stapi/OneDrive/Desktop/GD32VW553/V1_MQTT_OK/GD32VW55X_Wifi_BLE_SDK/GD32VW55x_RELEASE_V1.0.2/MSDK/cloud/alicloud/src/services/linkkit/dm\dm_api.c **** 
   6:C:/Users/stapi/OneDrive/Desktop/GD32VW553/V1_MQTT_OK/GD32VW55X_Wifi_BLE_SDK/GD32VW55x_RELEASE_V1.0.2/MSDK/cloud/alicloud/src/services/linkkit/dm\dm_api.c **** 
   7:C:/Users/stapi/OneDrive/Desktop/GD32VW553/V1_MQTT_OK/GD32VW55X_Wifi_BLE_SDK/GD32VW55x_RELEASE_V1.0.2/MSDK/cloud/alicloud/src/services/linkkit/dm\dm_api.c **** #include "iotx_dm_internal.h"
   8:C:/Users/stapi/OneDrive/Desktop/GD32VW553/V1_MQTT_OK/GD32VW55X_Wifi_BLE_SDK/GD32VW55x_RELEASE_V1.0.2/MSDK/cloud/alicloud/src/services/linkkit/dm\dm_api.c **** 
   9:C:/Users/stapi/OneDrive/Desktop/GD32VW553/V1_MQTT_OK/GD32VW55X_Wifi_BLE_SDK/GD32VW55x_RELEASE_V1.0.2/MSDK/cloud/alicloud/src/services/linkkit/dm\dm_api.c **** static dm_api_ctx_t g_dm_api_ctx;
  10:C:/Users/stapi/OneDrive/Desktop/GD32VW553/V1_MQTT_OK/GD32VW55X_Wifi_BLE_SDK/GD32VW55x_RELEASE_V1.0.2/MSDK/cloud/alicloud/src/services/linkkit/dm\dm_api.c **** 
  11:C:/Users/stapi/OneDrive/Desktop/GD32VW553/V1_MQTT_OK/GD32VW55X_Wifi_BLE_SDK/GD32VW55x_RELEASE_V1.0.2/MSDK/cloud/alicloud/src/services/linkkit/dm\dm_api.c **** static dm_api_ctx_t *_dm_api_get_ctx(void)
  12:C:/Users/stapi/OneDrive/Desktop/GD32VW553/V1_MQTT_OK/GD32VW55X_Wifi_BLE_SDK/GD32VW55x_RELEASE_V1.0.2/MSDK/cloud/alicloud/src/services/linkkit/dm\dm_api.c **** {
  13:C:/Users/stapi/OneDrive/Desktop/GD32VW553/V1_MQTT_OK/GD32VW55X_Wifi_BLE_SDK/GD32VW55x_RELEASE_V1.0.2/MSDK/cloud/alicloud/src/services/linkkit/dm\dm_api.c ****     return &g_dm_api_ctx;
  14:C:/Users/stapi/OneDrive/Desktop/GD32VW553/V1_MQTT_OK/GD32VW55X_Wifi_BLE_SDK/GD32VW55x_RELEASE_V1.0.2/MSDK/cloud/alicloud/src/services/linkkit/dm\dm_api.c **** }
  15:C:/Users/stapi/OneDrive/Desktop/GD32VW553/V1_MQTT_OK/GD32VW55X_Wifi_BLE_SDK/GD32VW55x_RELEASE_V1.0.2/MSDK/cloud/alicloud/src/services/linkkit/dm\dm_api.c **** 
  16:C:/Users/stapi/OneDrive/Desktop/GD32VW553/V1_MQTT_OK/GD32VW55X_Wifi_BLE_SDK/GD32VW55x_RELEASE_V1.0.2/MSDK/cloud/alicloud/src/services/linkkit/dm\dm_api.c **** static void _dm_api_lock(void)
  17:C:/Users/stapi/OneDrive/Desktop/GD32VW553/V1_MQTT_OK/GD32VW55X_Wifi_BLE_SDK/GD32VW55x_RELEASE_V1.0.2/MSDK/cloud/alicloud/src/services/linkkit/dm\dm_api.c **** {
  15              		.loc 1 17 1
  16              		.cfi_startproc
  18:C:/Users/stapi/OneDrive/Desktop/GD32VW553/V1_MQTT_OK/GD32VW55X_Wifi_BLE_SDK/GD32VW55x_RELEASE_V1.0.2/MSDK/cloud/alicloud/src/services/linkkit/dm\dm_api.c ****     dm_api_ctx_t *ctx = _dm_api_get_ctx();
  17              		.loc 1 18 5
  13:C:/Users/stapi/OneDrive/Desktop/GD32VW553/V1_MQTT_OK/GD32VW55X_Wifi_BLE_SDK/GD32VW55x_RELEASE_V1.0.2/MSDK/cloud/alicloud/src/services/linkkit/dm\dm_api.c **** }
  18              		.loc 1 13 5
  19              	.LVL0:
  19:C:/Users/stapi/OneDrive/Desktop/GD32VW553/V1_MQTT_OK/GD32VW55X_Wifi_BLE_SDK/GD32VW55x_RELEASE_V1.0.2/MSDK/cloud/alicloud/src/services/linkkit/dm\dm_api.c ****     if (ctx->mutex) {
  20              		.loc 1 19 5
  21              		.loc 1 19 12 is_stmt 0
  22 0000 B7070000 		lui	a5,%hi(.LANCHOR0)
  23 0004 03A50700 		lw	a0,%lo(.LANCHOR0)(a5)
  24              		.loc 1 19 8
  25 0008 09C5     		beq	a0,zero,.L7
  20:C:/Users/stapi/OneDrive/Desktop/GD32VW553/V1_MQTT_OK/GD32VW55X_Wifi_BLE_SDK/GD32VW55x_RELEASE_V1.0.2/MSDK/cloud/alicloud/src/services/linkkit/dm\dm_api.c ****         HAL_MutexLock(ctx->mutex);
  26              		.loc 1 20 9 is_stmt 1
  27 000a 17030000 		tail	HAL_MutexLock
  27      67000300 
  28              	.LVL1:
  29              	.L7:
  30 0012 8280     		ret
  31              		.cfi_endproc
  32              	.LFE21:
  34              		.section	.text._dm_api_unlock,"ax",@progbits
  35              		.align	1
  37              	_dm_api_unlock:
  38              	.LFB22:
  21:C:/Users/stapi/OneDrive/Desktop/GD32VW553/V1_MQTT_OK/GD32VW55X_Wifi_BLE_SDK/GD32VW55x_RELEASE_V1.0.2/MSDK/cloud/alicloud/src/services/linkkit/dm\dm_api.c ****     }
  22:C:/Users/stapi/OneDrive/Desktop/GD32VW553/V1_MQTT_OK/GD32VW55X_Wifi_BLE_SDK/GD32VW55x_RELEASE_V1.0.2/MSDK/cloud/alicloud/src/services/linkkit/dm\dm_api.c **** }
  23:C:/Users/stapi/OneDrive/Desktop/GD32VW553/V1_MQTT_OK/GD32VW55X_Wifi_BLE_SDK/GD32VW55x_RELEASE_V1.0.2/MSDK/cloud/alicloud/src/services/linkkit/dm\dm_api.c **** 
  24:C:/Users/stapi/OneDrive/Desktop/GD32VW553/V1_MQTT_OK/GD32VW55X_Wifi_BLE_SDK/GD32VW55x_RELEASE_V1.0.2/MSDK/cloud/alicloud/src/services/linkkit/dm\dm_api.c **** static void _dm_api_unlock(void)
  25:C:/Users/stapi/OneDrive/Desktop/GD32VW553/V1_MQTT_OK/GD32VW55X_Wifi_BLE_SDK/GD32VW55x_RELEASE_V1.0.2/MSDK/cloud/alicloud/src/services/linkkit/dm\dm_api.c **** {
  39              		.loc 1 25 1
  40              		.cfi_startproc
  26:C:/Users/stapi/OneDrive/Desktop/GD32VW553/V1_MQTT_OK/GD32VW55X_Wifi_BLE_SDK/GD32VW55x_RELEASE_V1.0.2/MSDK/cloud/alicloud/src/services/linkkit/dm\dm_api.c ****     dm_api_ctx_t *ctx = _dm_api_get_ctx();
  41              		.loc 1 26 5
  13:C:/Users/stapi/OneDrive/Desktop/GD32VW553/V1_MQTT_OK/GD32VW55X_Wifi_BLE_SDK/GD32VW55x_RELEASE_V1.0.2/MSDK/cloud/alicloud/src/services/linkkit/dm\dm_api.c **** }
  42              		.loc 1 13 5
  43              	.LVL2:
  27:C:/Users/stapi/OneDrive/Desktop/GD32VW553/V1_MQTT_OK/GD32VW55X_Wifi_BLE_SDK/GD32VW55x_RELEASE_V1.0.2/MSDK/cloud/alicloud/src/services/linkkit/dm\dm_api.c ****     if (ctx->mutex) {
  44              		.loc 1 27 5
  45              		.loc 1 27 12 is_stmt 0
  46 0000 B7070000 		lui	a5,%hi(.LANCHOR0)
  47 0004 03A50700 		lw	a0,%lo(.LANCHOR0)(a5)
  48              		.loc 1 27 8
  49 0008 09C5     		beq	a0,zero,.L16
  28:C:/Users/stapi/OneDrive/Desktop/GD32VW553/V1_MQTT_OK/GD32VW55X_Wifi_BLE_SDK/GD32VW55x_RELEASE_V1.0.2/MSDK/cloud/alicloud/src/services/linkkit/dm\dm_api.c ****         HAL_MutexUnlock(ctx->mutex);
  50              		.loc 1 28 9 is_stmt 1
  51 000a 17030000 		tail	HAL_MutexUnlock
  51      67000300 
  52              	.LVL3:
  53              	.L16:
  54 0012 8280     		ret
  55              		.cfi_endproc
  56              	.LFE22:
  58              		.section	.text.iotx_dm_open,"ax",@progbits
  59              		.align	1
  60              		.globl	iotx_dm_open
  62              	iotx_dm_open:
  63              	.LFB23:
  29:C:/Users/stapi/OneDrive/Desktop/GD32VW553/V1_MQTT_OK/GD32VW55X_Wifi_BLE_SDK/GD32VW55x_RELEASE_V1.0.2/MSDK/cloud/alicloud/src/services/linkkit/dm\dm_api.c ****     }
  30:C:/Users/stapi/OneDrive/Desktop/GD32VW553/V1_MQTT_OK/GD32VW55X_Wifi_BLE_SDK/GD32VW55x_RELEASE_V1.0.2/MSDK/cloud/alicloud/src/services/linkkit/dm\dm_api.c **** }
  31:C:/Users/stapi/OneDrive/Desktop/GD32VW553/V1_MQTT_OK/GD32VW55X_Wifi_BLE_SDK/GD32VW55x_RELEASE_V1.0.2/MSDK/cloud/alicloud/src/services/linkkit/dm\dm_api.c **** 
  32:C:/Users/stapi/OneDrive/Desktop/GD32VW553/V1_MQTT_OK/GD32VW55X_Wifi_BLE_SDK/GD32VW55x_RELEASE_V1.0.2/MSDK/cloud/alicloud/src/services/linkkit/dm\dm_api.c **** int iotx_dm_open(void)
  33:C:/Users/stapi/OneDrive/Desktop/GD32VW553/V1_MQTT_OK/GD32VW55X_Wifi_BLE_SDK/GD32VW55x_RELEASE_V1.0.2/MSDK/cloud/alicloud/src/services/linkkit/dm\dm_api.c **** {
  64              		.loc 1 33 1
  65              		.cfi_startproc
  66 0000 17030000 		call	t0,__riscv_save_2
  66      E7020300 
  67              		.cfi_offset 9, -12
  68              		.cfi_offset 8, -8
  69              		.cfi_offset 1, -4
  70              		.cfi_def_cfa_offset 16
  34:C:/Users/stapi/OneDrive/Desktop/GD32VW553/V1_MQTT_OK/GD32VW55X_Wifi_BLE_SDK/GD32VW55x_RELEASE_V1.0.2/MSDK/cloud/alicloud/src/services/linkkit/dm\dm_api.c ****     int res = 0;
  71              		.loc 1 34 5
  72              	.LVL4:
  35:C:/Users/stapi/OneDrive/Desktop/GD32VW553/V1_MQTT_OK/GD32VW55X_Wifi_BLE_SDK/GD32VW55x_RELEASE_V1.0.2/MSDK/cloud/alicloud/src/services/linkkit/dm\dm_api.c ****     dm_api_ctx_t *ctx = _dm_api_get_ctx();
  73              		.loc 1 35 5
  13:C:/Users/stapi/OneDrive/Desktop/GD32VW553/V1_MQTT_OK/GD32VW55X_Wifi_BLE_SDK/GD32VW55x_RELEASE_V1.0.2/MSDK/cloud/alicloud/src/services/linkkit/dm\dm_api.c **** }
  74              		.loc 1 13 5
  36:C:/Users/stapi/OneDrive/Desktop/GD32VW553/V1_MQTT_OK/GD32VW55X_Wifi_BLE_SDK/GD32VW55x_RELEASE_V1.0.2/MSDK/cloud/alicloud/src/services/linkkit/dm\dm_api.c **** 
  37:C:/Users/stapi/OneDrive/Desktop/GD32VW553/V1_MQTT_OK/GD32VW55X_Wifi_BLE_SDK/GD32VW55x_RELEASE_V1.0.2/MSDK/cloud/alicloud/src/services/linkkit/dm\dm_api.c ****     memset(ctx, 0, sizeof(dm_api_ctx_t));
  75              		.loc 1 37 5
  76 0008 B7040000 		lui	s1,%hi(.LANCHOR0)
  77 000c 13840400 		addi	s0,s1,%lo(.LANCHOR0)
  78 0010 23200400 		sw	zero,0(s0)
  79 0014 23220400 		sw	zero,4(s0)
  80 0018 23240400 		sw	zero,8(s0)
  81 001c 23260400 		sw	zero,12(s0)
  38:C:/Users/stapi/OneDrive/Desktop/GD32VW553/V1_MQTT_OK/GD32VW55X_Wifi_BLE_SDK/GD32VW55x_RELEASE_V1.0.2/MSDK/cloud/alicloud/src/services/linkkit/dm\dm_api.c **** 
  39:C:/Users/stapi/OneDrive/Desktop/GD32VW553/V1_MQTT_OK/GD32VW55X_Wifi_BLE_SDK/GD32VW55x_RELEASE_V1.0.2/MSDK/cloud/alicloud/src/services/linkkit/dm\dm_api.c **** #if defined(ALCS_ENABLED)
  40:C:/Users/stapi/OneDrive/Desktop/GD32VW553/V1_MQTT_OK/GD32VW55X_Wifi_BLE_SDK/GD32VW55x_RELEASE_V1.0.2/MSDK/cloud/alicloud/src/services/linkkit/dm\dm_api.c ****     /* lite-cjson Hooks Init */
  41:C:/Users/stapi/OneDrive/Desktop/GD32VW553/V1_MQTT_OK/GD32VW55X_Wifi_BLE_SDK/GD32VW55x_RELEASE_V1.0.2/MSDK/cloud/alicloud/src/services/linkkit/dm\dm_api.c ****     lite_cjson_hooks hooks;
  42:C:/Users/stapi/OneDrive/Desktop/GD32VW553/V1_MQTT_OK/GD32VW55X_Wifi_BLE_SDK/GD32VW55x_RELEASE_V1.0.2/MSDK/cloud/alicloud/src/services/linkkit/dm\dm_api.c ****     hooks.malloc_fn = dm_utils_malloc;
  43:C:/Users/stapi/OneDrive/Desktop/GD32VW553/V1_MQTT_OK/GD32VW55X_Wifi_BLE_SDK/GD32VW55x_RELEASE_V1.0.2/MSDK/cloud/alicloud/src/services/linkkit/dm\dm_api.c ****     hooks.free_fn = dm_utils_free;
  44:C:/Users/stapi/OneDrive/Desktop/GD32VW553/V1_MQTT_OK/GD32VW55X_Wifi_BLE_SDK/GD32VW55x_RELEASE_V1.0.2/MSDK/cloud/alicloud/src/services/linkkit/dm\dm_api.c ****     lite_cjson_init_hooks(&hooks);
  45:C:/Users/stapi/OneDrive/Desktop/GD32VW553/V1_MQTT_OK/GD32VW55X_Wifi_BLE_SDK/GD32VW55x_RELEASE_V1.0.2/MSDK/cloud/alicloud/src/services/linkkit/dm\dm_api.c **** #endif
  46:C:/Users/stapi/OneDrive/Desktop/GD32VW553/V1_MQTT_OK/GD32VW55X_Wifi_BLE_SDK/GD32VW55x_RELEASE_V1.0.2/MSDK/cloud/alicloud/src/services/linkkit/dm\dm_api.c **** 
  47:C:/Users/stapi/OneDrive/Desktop/GD32VW553/V1_MQTT_OK/GD32VW55X_Wifi_BLE_SDK/GD32VW55x_RELEASE_V1.0.2/MSDK/cloud/alicloud/src/services/linkkit/dm\dm_api.c ****     /* DM Mutex Create*/
  48:C:/Users/stapi/OneDrive/Desktop/GD32VW553/V1_MQTT_OK/GD32VW55X_Wifi_BLE_SDK/GD32VW55x_RELEASE_V1.0.2/MSDK/cloud/alicloud/src/services/linkkit/dm\dm_api.c ****     ctx->mutex = HAL_MutexCreate();
  82              		.loc 1 48 5
  83              		.loc 1 48 18 is_stmt 0
  84 0020 97000000 		call	HAL_MutexCreate
  84      E7800000 
  85              	.LVL5:
  86              		.loc 1 48 16
  87 0028 08C0     		sw	a0,0(s0)
  49:C:/Users/stapi/OneDrive/Desktop/GD32VW553/V1_MQTT_OK/GD32VW55X_Wifi_BLE_SDK/GD32VW55x_RELEASE_V1.0.2/MSDK/cloud/alicloud/src/services/linkkit/dm\dm_api.c ****     if (ctx->mutex == NULL) {
  88              		.loc 1 49 5 is_stmt 1
  50:C:/Users/stapi/OneDrive/Desktop/GD32VW553/V1_MQTT_OK/GD32VW55X_Wifi_BLE_SDK/GD32VW55x_RELEASE_V1.0.2/MSDK/cloud/alicloud/src/services/linkkit/dm\dm_api.c ****         return DM_MEMORY_NOT_ENOUGH;
  89              		.loc 1 50 16 is_stmt 0
  90 002a 7554     		li	s0,-3
  49:C:/Users/stapi/OneDrive/Desktop/GD32VW553/V1_MQTT_OK/GD32VW55X_Wifi_BLE_SDK/GD32VW55x_RELEASE_V1.0.2/MSDK/cloud/alicloud/src/services/linkkit/dm\dm_api.c ****     if (ctx->mutex == NULL) {
  91              		.loc 1 49 8
  92 002c 49CD     		beq	a0,zero,.L19
  93 002e 93840400 		addi	s1,s1,%lo(.LANCHOR0)
  51:C:/Users/stapi/OneDrive/Desktop/GD32VW553/V1_MQTT_OK/GD32VW55X_Wifi_BLE_SDK/GD32VW55x_RELEASE_V1.0.2/MSDK/cloud/alicloud/src/services/linkkit/dm\dm_api.c ****     }
  52:C:/Users/stapi/OneDrive/Desktop/GD32VW553/V1_MQTT_OK/GD32VW55X_Wifi_BLE_SDK/GD32VW55x_RELEASE_V1.0.2/MSDK/cloud/alicloud/src/services/linkkit/dm\dm_api.c **** 
  53:C:/Users/stapi/OneDrive/Desktop/GD32VW553/V1_MQTT_OK/GD32VW55X_Wifi_BLE_SDK/GD32VW55x_RELEASE_V1.0.2/MSDK/cloud/alicloud/src/services/linkkit/dm\dm_api.c **** #ifdef MQTT_SHADOW
  54:C:/Users/stapi/OneDrive/Desktop/GD32VW553/V1_MQTT_OK/GD32VW55X_Wifi_BLE_SDK/GD32VW55x_RELEASE_V1.0.2/MSDK/cloud/alicloud/src/services/linkkit/dm\dm_api.c ****     dm_shadow_init();
  55:C:/Users/stapi/OneDrive/Desktop/GD32VW553/V1_MQTT_OK/GD32VW55X_Wifi_BLE_SDK/GD32VW55x_RELEASE_V1.0.2/MSDK/cloud/alicloud/src/services/linkkit/dm\dm_api.c **** #endif
  56:C:/Users/stapi/OneDrive/Desktop/GD32VW553/V1_MQTT_OK/GD32VW55X_Wifi_BLE_SDK/GD32VW55x_RELEASE_V1.0.2/MSDK/cloud/alicloud/src/services/linkkit/dm\dm_api.c **** 
  57:C:/Users/stapi/OneDrive/Desktop/GD32VW553/V1_MQTT_OK/GD32VW55X_Wifi_BLE_SDK/GD32VW55x_RELEASE_V1.0.2/MSDK/cloud/alicloud/src/services/linkkit/dm\dm_api.c **** #if defined(OTA_ENABLED) && !defined(BUILD_AOS)
  58:C:/Users/stapi/OneDrive/Desktop/GD32VW553/V1_MQTT_OK/GD32VW55X_Wifi_BLE_SDK/GD32VW55x_RELEASE_V1.0.2/MSDK/cloud/alicloud/src/services/linkkit/dm\dm_api.c ****     /* DM OTA Module Init */
  59:C:/Users/stapi/OneDrive/Desktop/GD32VW553/V1_MQTT_OK/GD32VW55X_Wifi_BLE_SDK/GD32VW55x_RELEASE_V1.0.2/MSDK/cloud/alicloud/src/services/linkkit/dm\dm_api.c ****     res = dm_ota_init();
  94              		.loc 1 59 5 is_stmt 1
  95              		.loc 1 59 11 is_stmt 0
  96 0032 97000000 		call	dm_ota_init
  96      E7800000 
  97              	.LVL6:
  60:C:/Users/stapi/OneDrive/Desktop/GD32VW553/V1_MQTT_OK/GD32VW55X_Wifi_BLE_SDK/GD32VW55x_RELEASE_V1.0.2/MSDK/cloud/alicloud/src/services/linkkit/dm\dm_api.c ****     if (res != SUCCESS_RETURN) {
  98              		.loc 1 60 5 is_stmt 1
  99              		.loc 1 60 8 is_stmt 0
 100 003a 0DCD     		beq	a0,zero,.L21
 101              	.L23:
 102              	.LDL1:
  61:C:/Users/stapi/OneDrive/Desktop/GD32VW553/V1_MQTT_OK/GD32VW55X_Wifi_BLE_SDK/GD32VW55x_RELEASE_V1.0.2/MSDK/cloud/alicloud/src/services/linkkit/dm\dm_api.c ****         goto ERROR;
  62:C:/Users/stapi/OneDrive/Desktop/GD32VW553/V1_MQTT_OK/GD32VW55X_Wifi_BLE_SDK/GD32VW55x_RELEASE_V1.0.2/MSDK/cloud/alicloud/src/services/linkkit/dm\dm_api.c ****     }
  63:C:/Users/stapi/OneDrive/Desktop/GD32VW553/V1_MQTT_OK/GD32VW55X_Wifi_BLE_SDK/GD32VW55x_RELEASE_V1.0.2/MSDK/cloud/alicloud/src/services/linkkit/dm\dm_api.c **** #endif
  64:C:/Users/stapi/OneDrive/Desktop/GD32VW553/V1_MQTT_OK/GD32VW55X_Wifi_BLE_SDK/GD32VW55x_RELEASE_V1.0.2/MSDK/cloud/alicloud/src/services/linkkit/dm\dm_api.c **** 
  65:C:/Users/stapi/OneDrive/Desktop/GD32VW553/V1_MQTT_OK/GD32VW55X_Wifi_BLE_SDK/GD32VW55x_RELEASE_V1.0.2/MSDK/cloud/alicloud/src/services/linkkit/dm\dm_api.c **** #if !defined(DM_MESSAGE_CACHE_DISABLED)
  66:C:/Users/stapi/OneDrive/Desktop/GD32VW553/V1_MQTT_OK/GD32VW55X_Wifi_BLE_SDK/GD32VW55x_RELEASE_V1.0.2/MSDK/cloud/alicloud/src/services/linkkit/dm\dm_api.c ****     /* DM Message Cache Init */
  67:C:/Users/stapi/OneDrive/Desktop/GD32VW553/V1_MQTT_OK/GD32VW55X_Wifi_BLE_SDK/GD32VW55x_RELEASE_V1.0.2/MSDK/cloud/alicloud/src/services/linkkit/dm\dm_api.c ****     res = dm_msg_cache_init();
  68:C:/Users/stapi/OneDrive/Desktop/GD32VW553/V1_MQTT_OK/GD32VW55X_Wifi_BLE_SDK/GD32VW55x_RELEASE_V1.0.2/MSDK/cloud/alicloud/src/services/linkkit/dm\dm_api.c ****     if (res != SUCCESS_RETURN) {
  69:C:/Users/stapi/OneDrive/Desktop/GD32VW553/V1_MQTT_OK/GD32VW55X_Wifi_BLE_SDK/GD32VW55x_RELEASE_V1.0.2/MSDK/cloud/alicloud/src/services/linkkit/dm\dm_api.c ****         goto ERROR;
  70:C:/Users/stapi/OneDrive/Desktop/GD32VW553/V1_MQTT_OK/GD32VW55X_Wifi_BLE_SDK/GD32VW55x_RELEASE_V1.0.2/MSDK/cloud/alicloud/src/services/linkkit/dm\dm_api.c ****     }
  71:C:/Users/stapi/OneDrive/Desktop/GD32VW553/V1_MQTT_OK/GD32VW55X_Wifi_BLE_SDK/GD32VW55x_RELEASE_V1.0.2/MSDK/cloud/alicloud/src/services/linkkit/dm\dm_api.c **** #endif
  72:C:/Users/stapi/OneDrive/Desktop/GD32VW553/V1_MQTT_OK/GD32VW55X_Wifi_BLE_SDK/GD32VW55x_RELEASE_V1.0.2/MSDK/cloud/alicloud/src/services/linkkit/dm\dm_api.c ****     /* DM Cloud Message Parse And Assemble Module Init */
  73:C:/Users/stapi/OneDrive/Desktop/GD32VW553/V1_MQTT_OK/GD32VW55X_Wifi_BLE_SDK/GD32VW55x_RELEASE_V1.0.2/MSDK/cloud/alicloud/src/services/linkkit/dm\dm_api.c ****     res = dm_msg_init();
  74:C:/Users/stapi/OneDrive/Desktop/GD32VW553/V1_MQTT_OK/GD32VW55X_Wifi_BLE_SDK/GD32VW55x_RELEASE_V1.0.2/MSDK/cloud/alicloud/src/services/linkkit/dm\dm_api.c ****     if (res != SUCCESS_RETURN) {
  75:C:/Users/stapi/OneDrive/Desktop/GD32VW553/V1_MQTT_OK/GD32VW55X_Wifi_BLE_SDK/GD32VW55x_RELEASE_V1.0.2/MSDK/cloud/alicloud/src/services/linkkit/dm\dm_api.c ****         goto ERROR;
  76:C:/Users/stapi/OneDrive/Desktop/GD32VW553/V1_MQTT_OK/GD32VW55X_Wifi_BLE_SDK/GD32VW55x_RELEASE_V1.0.2/MSDK/cloud/alicloud/src/services/linkkit/dm\dm_api.c ****     }
  77:C:/Users/stapi/OneDrive/Desktop/GD32VW553/V1_MQTT_OK/GD32VW55X_Wifi_BLE_SDK/GD32VW55x_RELEASE_V1.0.2/MSDK/cloud/alicloud/src/services/linkkit/dm\dm_api.c **** 
  78:C:/Users/stapi/OneDrive/Desktop/GD32VW553/V1_MQTT_OK/GD32VW55X_Wifi_BLE_SDK/GD32VW55x_RELEASE_V1.0.2/MSDK/cloud/alicloud/src/services/linkkit/dm\dm_api.c ****     /* DM IPC Module Init */
  79:C:/Users/stapi/OneDrive/Desktop/GD32VW553/V1_MQTT_OK/GD32VW55X_Wifi_BLE_SDK/GD32VW55x_RELEASE_V1.0.2/MSDK/cloud/alicloud/src/services/linkkit/dm\dm_api.c ****     res = dm_ipc_init(CONFIG_DISPATCH_QUEUE_MAXLEN);
  80:C:/Users/stapi/OneDrive/Desktop/GD32VW553/V1_MQTT_OK/GD32VW55X_Wifi_BLE_SDK/GD32VW55x_RELEASE_V1.0.2/MSDK/cloud/alicloud/src/services/linkkit/dm\dm_api.c ****     if (res != SUCCESS_RETURN) {
  81:C:/Users/stapi/OneDrive/Desktop/GD32VW553/V1_MQTT_OK/GD32VW55X_Wifi_BLE_SDK/GD32VW55x_RELEASE_V1.0.2/MSDK/cloud/alicloud/src/services/linkkit/dm\dm_api.c ****         goto ERROR;
  82:C:/Users/stapi/OneDrive/Desktop/GD32VW553/V1_MQTT_OK/GD32VW55X_Wifi_BLE_SDK/GD32VW55x_RELEASE_V1.0.2/MSDK/cloud/alicloud/src/services/linkkit/dm\dm_api.c ****     }
  83:C:/Users/stapi/OneDrive/Desktop/GD32VW553/V1_MQTT_OK/GD32VW55X_Wifi_BLE_SDK/GD32VW55x_RELEASE_V1.0.2/MSDK/cloud/alicloud/src/services/linkkit/dm\dm_api.c **** 
  84:C:/Users/stapi/OneDrive/Desktop/GD32VW553/V1_MQTT_OK/GD32VW55X_Wifi_BLE_SDK/GD32VW55x_RELEASE_V1.0.2/MSDK/cloud/alicloud/src/services/linkkit/dm\dm_api.c ****     /* DM Manager Module Init */
  85:C:/Users/stapi/OneDrive/Desktop/GD32VW553/V1_MQTT_OK/GD32VW55X_Wifi_BLE_SDK/GD32VW55x_RELEASE_V1.0.2/MSDK/cloud/alicloud/src/services/linkkit/dm\dm_api.c ****     res = dm_mgr_init();
  86:C:/Users/stapi/OneDrive/Desktop/GD32VW553/V1_MQTT_OK/GD32VW55X_Wifi_BLE_SDK/GD32VW55x_RELEASE_V1.0.2/MSDK/cloud/alicloud/src/services/linkkit/dm\dm_api.c ****     if (res != SUCCESS_RETURN) {
  87:C:/Users/stapi/OneDrive/Desktop/GD32VW553/V1_MQTT_OK/GD32VW55X_Wifi_BLE_SDK/GD32VW55x_RELEASE_V1.0.2/MSDK/cloud/alicloud/src/services/linkkit/dm\dm_api.c ****         goto ERROR;
  88:C:/Users/stapi/OneDrive/Desktop/GD32VW553/V1_MQTT_OK/GD32VW55X_Wifi_BLE_SDK/GD32VW55x_RELEASE_V1.0.2/MSDK/cloud/alicloud/src/services/linkkit/dm\dm_api.c ****     }
  89:C:/Users/stapi/OneDrive/Desktop/GD32VW553/V1_MQTT_OK/GD32VW55X_Wifi_BLE_SDK/GD32VW55x_RELEASE_V1.0.2/MSDK/cloud/alicloud/src/services/linkkit/dm\dm_api.c **** 
  90:C:/Users/stapi/OneDrive/Desktop/GD32VW553/V1_MQTT_OK/GD32VW55X_Wifi_BLE_SDK/GD32VW55x_RELEASE_V1.0.2/MSDK/cloud/alicloud/src/services/linkkit/dm\dm_api.c **** #ifdef ALCS_ENABLED
  91:C:/Users/stapi/OneDrive/Desktop/GD32VW553/V1_MQTT_OK/GD32VW55X_Wifi_BLE_SDK/GD32VW55x_RELEASE_V1.0.2/MSDK/cloud/alicloud/src/services/linkkit/dm\dm_api.c ****     /* Open Local Connection */
  92:C:/Users/stapi/OneDrive/Desktop/GD32VW553/V1_MQTT_OK/GD32VW55X_Wifi_BLE_SDK/GD32VW55x_RELEASE_V1.0.2/MSDK/cloud/alicloud/src/services/linkkit/dm\dm_api.c ****     res = dm_server_open();
  93:C:/Users/stapi/OneDrive/Desktop/GD32VW553/V1_MQTT_OK/GD32VW55X_Wifi_BLE_SDK/GD32VW55x_RELEASE_V1.0.2/MSDK/cloud/alicloud/src/services/linkkit/dm\dm_api.c ****     if (res < SUCCESS_RETURN) {
  94:C:/Users/stapi/OneDrive/Desktop/GD32VW553/V1_MQTT_OK/GD32VW55X_Wifi_BLE_SDK/GD32VW55x_RELEASE_V1.0.2/MSDK/cloud/alicloud/src/services/linkkit/dm\dm_api.c ****         goto ERROR;
  95:C:/Users/stapi/OneDrive/Desktop/GD32VW553/V1_MQTT_OK/GD32VW55X_Wifi_BLE_SDK/GD32VW55x_RELEASE_V1.0.2/MSDK/cloud/alicloud/src/services/linkkit/dm\dm_api.c ****     }
  96:C:/Users/stapi/OneDrive/Desktop/GD32VW553/V1_MQTT_OK/GD32VW55X_Wifi_BLE_SDK/GD32VW55x_RELEASE_V1.0.2/MSDK/cloud/alicloud/src/services/linkkit/dm\dm_api.c **** #endif
  97:C:/Users/stapi/OneDrive/Desktop/GD32VW553/V1_MQTT_OK/GD32VW55X_Wifi_BLE_SDK/GD32VW55x_RELEASE_V1.0.2/MSDK/cloud/alicloud/src/services/linkkit/dm\dm_api.c **** #if defined(OTA_ENABLED) && !defined(BUILD_AOS)
  98:C:/Users/stapi/OneDrive/Desktop/GD32VW553/V1_MQTT_OK/GD32VW55X_Wifi_BLE_SDK/GD32VW55x_RELEASE_V1.0.2/MSDK/cloud/alicloud/src/services/linkkit/dm\dm_api.c ****     /* DM OTA Module Init */
  99:C:/Users/stapi/OneDrive/Desktop/GD32VW553/V1_MQTT_OK/GD32VW55X_Wifi_BLE_SDK/GD32VW55x_RELEASE_V1.0.2/MSDK/cloud/alicloud/src/services/linkkit/dm\dm_api.c ****     res = dm_ota_sub();
 100:C:/Users/stapi/OneDrive/Desktop/GD32VW553/V1_MQTT_OK/GD32VW55X_Wifi_BLE_SDK/GD32VW55x_RELEASE_V1.0.2/MSDK/cloud/alicloud/src/services/linkkit/dm\dm_api.c ****     if (res == SUCCESS_RETURN) {
 101:C:/Users/stapi/OneDrive/Desktop/GD32VW553/V1_MQTT_OK/GD32VW55X_Wifi_BLE_SDK/GD32VW55x_RELEASE_V1.0.2/MSDK/cloud/alicloud/src/services/linkkit/dm\dm_api.c ****         /* DM Config OTA Module Init */
 102:C:/Users/stapi/OneDrive/Desktop/GD32VW553/V1_MQTT_OK/GD32VW55X_Wifi_BLE_SDK/GD32VW55x_RELEASE_V1.0.2/MSDK/cloud/alicloud/src/services/linkkit/dm\dm_api.c ****         dm_cota_init();
 103:C:/Users/stapi/OneDrive/Desktop/GD32VW553/V1_MQTT_OK/GD32VW55X_Wifi_BLE_SDK/GD32VW55x_RELEASE_V1.0.2/MSDK/cloud/alicloud/src/services/linkkit/dm\dm_api.c **** 
 104:C:/Users/stapi/OneDrive/Desktop/GD32VW553/V1_MQTT_OK/GD32VW55X_Wifi_BLE_SDK/GD32VW55x_RELEASE_V1.0.2/MSDK/cloud/alicloud/src/services/linkkit/dm\dm_api.c ****         /* DM Firmware OTA Mudule Init */
 105:C:/Users/stapi/OneDrive/Desktop/GD32VW553/V1_MQTT_OK/GD32VW55X_Wifi_BLE_SDK/GD32VW55x_RELEASE_V1.0.2/MSDK/cloud/alicloud/src/services/linkkit/dm\dm_api.c ****         dm_fota_init();
 106:C:/Users/stapi/OneDrive/Desktop/GD32VW553/V1_MQTT_OK/GD32VW55X_Wifi_BLE_SDK/GD32VW55x_RELEASE_V1.0.2/MSDK/cloud/alicloud/src/services/linkkit/dm\dm_api.c ****     }
 107:C:/Users/stapi/OneDrive/Desktop/GD32VW553/V1_MQTT_OK/GD32VW55X_Wifi_BLE_SDK/GD32VW55x_RELEASE_V1.0.2/MSDK/cloud/alicloud/src/services/linkkit/dm\dm_api.c **** #endif
 108:C:/Users/stapi/OneDrive/Desktop/GD32VW553/V1_MQTT_OK/GD32VW55X_Wifi_BLE_SDK/GD32VW55x_RELEASE_V1.0.2/MSDK/cloud/alicloud/src/services/linkkit/dm\dm_api.c **** 
 109:C:/Users/stapi/OneDrive/Desktop/GD32VW553/V1_MQTT_OK/GD32VW55X_Wifi_BLE_SDK/GD32VW55x_RELEASE_V1.0.2/MSDK/cloud/alicloud/src/services/linkkit/dm\dm_api.c ****     /* Open Cloud Connection */
 110:C:/Users/stapi/OneDrive/Desktop/GD32VW553/V1_MQTT_OK/GD32VW55X_Wifi_BLE_SDK/GD32VW55x_RELEASE_V1.0.2/MSDK/cloud/alicloud/src/services/linkkit/dm\dm_api.c ****     res = dm_client_open();
 111:C:/Users/stapi/OneDrive/Desktop/GD32VW553/V1_MQTT_OK/GD32VW55X_Wifi_BLE_SDK/GD32VW55x_RELEASE_V1.0.2/MSDK/cloud/alicloud/src/services/linkkit/dm\dm_api.c ****     if (res < SUCCESS_RETURN) {
 112:C:/Users/stapi/OneDrive/Desktop/GD32VW553/V1_MQTT_OK/GD32VW55X_Wifi_BLE_SDK/GD32VW55x_RELEASE_V1.0.2/MSDK/cloud/alicloud/src/services/linkkit/dm\dm_api.c ****         goto ERROR;
 113:C:/Users/stapi/OneDrive/Desktop/GD32VW553/V1_MQTT_OK/GD32VW55X_Wifi_BLE_SDK/GD32VW55x_RELEASE_V1.0.2/MSDK/cloud/alicloud/src/services/linkkit/dm\dm_api.c ****     }
 114:C:/Users/stapi/OneDrive/Desktop/GD32VW553/V1_MQTT_OK/GD32VW55X_Wifi_BLE_SDK/GD32VW55x_RELEASE_V1.0.2/MSDK/cloud/alicloud/src/services/linkkit/dm\dm_api.c **** 
 115:C:/Users/stapi/OneDrive/Desktop/GD32VW553/V1_MQTT_OK/GD32VW55X_Wifi_BLE_SDK/GD32VW55x_RELEASE_V1.0.2/MSDK/cloud/alicloud/src/services/linkkit/dm\dm_api.c ****     return SUCCESS_RETURN;
 116:C:/Users/stapi/OneDrive/Desktop/GD32VW553/V1_MQTT_OK/GD32VW55X_Wifi_BLE_SDK/GD32VW55x_RELEASE_V1.0.2/MSDK/cloud/alicloud/src/services/linkkit/dm\dm_api.c **** 
 117:C:/Users/stapi/OneDrive/Desktop/GD32VW553/V1_MQTT_OK/GD32VW55X_Wifi_BLE_SDK/GD32VW55x_RELEASE_V1.0.2/MSDK/cloud/alicloud/src/services/linkkit/dm\dm_api.c **** ERROR:
 118:C:/Users/stapi/OneDrive/Desktop/GD32VW553/V1_MQTT_OK/GD32VW55X_Wifi_BLE_SDK/GD32VW55x_RELEASE_V1.0.2/MSDK/cloud/alicloud/src/services/linkkit/dm\dm_api.c ****     dm_client_close();
 103              		.loc 1 118 5 is_stmt 1
 104 003c 97000000 		call	dm_client_close
 104      E7800000 
 105              	.LVL7:
 119:C:/Users/stapi/OneDrive/Desktop/GD32VW553/V1_MQTT_OK/GD32VW55X_Wifi_BLE_SDK/GD32VW55x_RELEASE_V1.0.2/MSDK/cloud/alicloud/src/services/linkkit/dm\dm_api.c **** #ifdef ALCS_ENABLED
 120:C:/Users/stapi/OneDrive/Desktop/GD32VW553/V1_MQTT_OK/GD32VW55X_Wifi_BLE_SDK/GD32VW55x_RELEASE_V1.0.2/MSDK/cloud/alicloud/src/services/linkkit/dm\dm_api.c ****     dm_server_close();
 121:C:/Users/stapi/OneDrive/Desktop/GD32VW553/V1_MQTT_OK/GD32VW55X_Wifi_BLE_SDK/GD32VW55x_RELEASE_V1.0.2/MSDK/cloud/alicloud/src/services/linkkit/dm\dm_api.c **** #endif
 122:C:/Users/stapi/OneDrive/Desktop/GD32VW553/V1_MQTT_OK/GD32VW55X_Wifi_BLE_SDK/GD32VW55x_RELEASE_V1.0.2/MSDK/cloud/alicloud/src/services/linkkit/dm\dm_api.c ****     dm_mgr_deinit();
 106              		.loc 1 122 5
 107 0044 97000000 		call	dm_mgr_deinit
 107      E7800000 
 108              	.LVL8:
 123:C:/Users/stapi/OneDrive/Desktop/GD32VW553/V1_MQTT_OK/GD32VW55X_Wifi_BLE_SDK/GD32VW55x_RELEASE_V1.0.2/MSDK/cloud/alicloud/src/services/linkkit/dm\dm_api.c ****     dm_ipc_deinit();
 109              		.loc 1 123 5
 110 004c 97000000 		call	dm_ipc_deinit
 110      E7800000 
 111              	.LVL9:
 124:C:/Users/stapi/OneDrive/Desktop/GD32VW553/V1_MQTT_OK/GD32VW55X_Wifi_BLE_SDK/GD32VW55x_RELEASE_V1.0.2/MSDK/cloud/alicloud/src/services/linkkit/dm\dm_api.c ****     dm_msg_deinit();
 112              		.loc 1 124 5
 113 0054 97000000 		call	dm_msg_deinit
 113      E7800000 
 114              	.LVL10:
 125:C:/Users/stapi/OneDrive/Desktop/GD32VW553/V1_MQTT_OK/GD32VW55X_Wifi_BLE_SDK/GD32VW55x_RELEASE_V1.0.2/MSDK/cloud/alicloud/src/services/linkkit/dm\dm_api.c **** #if !defined(DM_MESSAGE_CACHE_DISABLED)
 126:C:/Users/stapi/OneDrive/Desktop/GD32VW553/V1_MQTT_OK/GD32VW55X_Wifi_BLE_SDK/GD32VW55x_RELEASE_V1.0.2/MSDK/cloud/alicloud/src/services/linkkit/dm\dm_api.c ****     dm_msg_cache_deinit();
 115              		.loc 1 126 5
 116 005c 97000000 		call	dm_msg_cache_deinit
 116      E7800000 
 117              	.LVL11:
 127:C:/Users/stapi/OneDrive/Desktop/GD32VW553/V1_MQTT_OK/GD32VW55X_Wifi_BLE_SDK/GD32VW55x_RELEASE_V1.0.2/MSDK/cloud/alicloud/src/services/linkkit/dm\dm_api.c **** #endif
 128:C:/Users/stapi/OneDrive/Desktop/GD32VW553/V1_MQTT_OK/GD32VW55X_Wifi_BLE_SDK/GD32VW55x_RELEASE_V1.0.2/MSDK/cloud/alicloud/src/services/linkkit/dm\dm_api.c **** #if defined(OTA_ENABLED) && !defined(BUILD_AOS)
 129:C:/Users/stapi/OneDrive/Desktop/GD32VW553/V1_MQTT_OK/GD32VW55X_Wifi_BLE_SDK/GD32VW55x_RELEASE_V1.0.2/MSDK/cloud/alicloud/src/services/linkkit/dm\dm_api.c ****     dm_ota_deinit();
 118              		.loc 1 129 5
 119 0064 97000000 		call	dm_ota_deinit
 119      E7800000 
 120              	.LVL12:
 130:C:/Users/stapi/OneDrive/Desktop/GD32VW553/V1_MQTT_OK/GD32VW55X_Wifi_BLE_SDK/GD32VW55x_RELEASE_V1.0.2/MSDK/cloud/alicloud/src/services/linkkit/dm\dm_api.c **** #endif
 131:C:/Users/stapi/OneDrive/Desktop/GD32VW553/V1_MQTT_OK/GD32VW55X_Wifi_BLE_SDK/GD32VW55x_RELEASE_V1.0.2/MSDK/cloud/alicloud/src/services/linkkit/dm\dm_api.c **** 
 132:C:/Users/stapi/OneDrive/Desktop/GD32VW553/V1_MQTT_OK/GD32VW55X_Wifi_BLE_SDK/GD32VW55x_RELEASE_V1.0.2/MSDK/cloud/alicloud/src/services/linkkit/dm\dm_api.c **** #ifdef MQTT_SHADOW
 133:C:/Users/stapi/OneDrive/Desktop/GD32VW553/V1_MQTT_OK/GD32VW55X_Wifi_BLE_SDK/GD32VW55x_RELEASE_V1.0.2/MSDK/cloud/alicloud/src/services/linkkit/dm\dm_api.c ****     dm_shadow_deinit();
 134:C:/Users/stapi/OneDrive/Desktop/GD32VW553/V1_MQTT_OK/GD32VW55X_Wifi_BLE_SDK/GD32VW55x_RELEASE_V1.0.2/MSDK/cloud/alicloud/src/services/linkkit/dm\dm_api.c **** #endif
 135:C:/Users/stapi/OneDrive/Desktop/GD32VW553/V1_MQTT_OK/GD32VW55X_Wifi_BLE_SDK/GD32VW55x_RELEASE_V1.0.2/MSDK/cloud/alicloud/src/services/linkkit/dm\dm_api.c **** 
 136:C:/Users/stapi/OneDrive/Desktop/GD32VW553/V1_MQTT_OK/GD32VW55X_Wifi_BLE_SDK/GD32VW55x_RELEASE_V1.0.2/MSDK/cloud/alicloud/src/services/linkkit/dm\dm_api.c ****     if (ctx->mutex) {
 121              		.loc 1 136 5
 122              		.loc 1 136 12 is_stmt 0
 123 006c 8840     		lw	a0,0(s1)
 124              		.loc 1 136 8
 125 006e 2DE1     		bne	a0,zero,.L22
 126              	.L27:
 137:C:/Users/stapi/OneDrive/Desktop/GD32VW553/V1_MQTT_OK/GD32VW55X_Wifi_BLE_SDK/GD32VW55x_RELEASE_V1.0.2/MSDK/cloud/alicloud/src/services/linkkit/dm\dm_api.c ****         HAL_MutexDestroy(ctx->mutex);
 138:C:/Users/stapi/OneDrive/Desktop/GD32VW553/V1_MQTT_OK/GD32VW55X_Wifi_BLE_SDK/GD32VW55x_RELEASE_V1.0.2/MSDK/cloud/alicloud/src/services/linkkit/dm\dm_api.c ****     }
 139:C:/Users/stapi/OneDrive/Desktop/GD32VW553/V1_MQTT_OK/GD32VW55X_Wifi_BLE_SDK/GD32VW55x_RELEASE_V1.0.2/MSDK/cloud/alicloud/src/services/linkkit/dm\dm_api.c ****     return FAIL_RETURN;
 127              		.loc 1 139 12
 128 0070 7D54     		li	s0,-1
 129 0072 91A8     		j	.L19
 130              	.LVL13:
 131              	.L21:
  67:C:/Users/stapi/OneDrive/Desktop/GD32VW553/V1_MQTT_OK/GD32VW55X_Wifi_BLE_SDK/GD32VW55x_RELEASE_V1.0.2/MSDK/cloud/alicloud/src/services/linkkit/dm\dm_api.c ****     if (res != SUCCESS_RETURN) {
 132              		.loc 1 67 5 is_stmt 1
  67:C:/Users/stapi/OneDrive/Desktop/GD32VW553/V1_MQTT_OK/GD32VW55X_Wifi_BLE_SDK/GD32VW55x_RELEASE_V1.0.2/MSDK/cloud/alicloud/src/services/linkkit/dm\dm_api.c ****     if (res != SUCCESS_RETURN) {
 133              		.loc 1 67 11 is_stmt 0
 134 0074 97000000 		call	dm_msg_cache_init
 134      E7800000 
 135              	.LVL14:
  68:C:/Users/stapi/OneDrive/Desktop/GD32VW553/V1_MQTT_OK/GD32VW55X_Wifi_BLE_SDK/GD32VW55x_RELEASE_V1.0.2/MSDK/cloud/alicloud/src/services/linkkit/dm\dm_api.c ****         goto ERROR;
 136              		.loc 1 68 5 is_stmt 1
  68:C:/Users/stapi/OneDrive/Desktop/GD32VW553/V1_MQTT_OK/GD32VW55X_Wifi_BLE_SDK/GD32VW55x_RELEASE_V1.0.2/MSDK/cloud/alicloud/src/services/linkkit/dm\dm_api.c ****         goto ERROR;
 137              		.loc 1 68 8 is_stmt 0
 138 007c 61F1     		bne	a0,zero,.L23
  73:C:/Users/stapi/OneDrive/Desktop/GD32VW553/V1_MQTT_OK/GD32VW55X_Wifi_BLE_SDK/GD32VW55x_RELEASE_V1.0.2/MSDK/cloud/alicloud/src/services/linkkit/dm\dm_api.c ****     if (res != SUCCESS_RETURN) {
 139              		.loc 1 73 5 is_stmt 1
  73:C:/Users/stapi/OneDrive/Desktop/GD32VW553/V1_MQTT_OK/GD32VW55X_Wifi_BLE_SDK/GD32VW55x_RELEASE_V1.0.2/MSDK/cloud/alicloud/src/services/linkkit/dm\dm_api.c ****     if (res != SUCCESS_RETURN) {
 140              		.loc 1 73 11 is_stmt 0
 141 007e 97000000 		call	dm_msg_init
 141      E7800000 
 142              	.LVL15:
  74:C:/Users/stapi/OneDrive/Desktop/GD32VW553/V1_MQTT_OK/GD32VW55X_Wifi_BLE_SDK/GD32VW55x_RELEASE_V1.0.2/MSDK/cloud/alicloud/src/services/linkkit/dm\dm_api.c ****         goto ERROR;
 143              		.loc 1 74 5 is_stmt 1
  74:C:/Users/stapi/OneDrive/Desktop/GD32VW553/V1_MQTT_OK/GD32VW55X_Wifi_BLE_SDK/GD32VW55x_RELEASE_V1.0.2/MSDK/cloud/alicloud/src/services/linkkit/dm\dm_api.c ****         goto ERROR;
 144              		.loc 1 74 8 is_stmt 0
 145 0086 5DF9     		bne	a0,zero,.L23
  79:C:/Users/stapi/OneDrive/Desktop/GD32VW553/V1_MQTT_OK/GD32VW55X_Wifi_BLE_SDK/GD32VW55x_RELEASE_V1.0.2/MSDK/cloud/alicloud/src/services/linkkit/dm\dm_api.c ****     if (res != SUCCESS_RETURN) {
 146              		.loc 1 79 5 is_stmt 1
  79:C:/Users/stapi/OneDrive/Desktop/GD32VW553/V1_MQTT_OK/GD32VW55X_Wifi_BLE_SDK/GD32VW55x_RELEASE_V1.0.2/MSDK/cloud/alicloud/src/services/linkkit/dm\dm_api.c ****     if (res != SUCCESS_RETURN) {
 147              		.loc 1 79 11 is_stmt 0
 148 0088 5145     		li	a0,20
 149              	.LVL16:
 150 008a 97000000 		call	dm_ipc_init
 150      E7800000 
 151              	.LVL17:
  80:C:/Users/stapi/OneDrive/Desktop/GD32VW553/V1_MQTT_OK/GD32VW55X_Wifi_BLE_SDK/GD32VW55x_RELEASE_V1.0.2/MSDK/cloud/alicloud/src/services/linkkit/dm\dm_api.c ****         goto ERROR;
 152              		.loc 1 80 5 is_stmt 1
  80:C:/Users/stapi/OneDrive/Desktop/GD32VW553/V1_MQTT_OK/GD32VW55X_Wifi_BLE_SDK/GD32VW55x_RELEASE_V1.0.2/MSDK/cloud/alicloud/src/services/linkkit/dm\dm_api.c ****         goto ERROR;
 153              		.loc 1 80 8 is_stmt 0
 154 0092 4DF5     		bne	a0,zero,.L23
  85:C:/Users/stapi/OneDrive/Desktop/GD32VW553/V1_MQTT_OK/GD32VW55X_Wifi_BLE_SDK/GD32VW55x_RELEASE_V1.0.2/MSDK/cloud/alicloud/src/services/linkkit/dm\dm_api.c ****     if (res != SUCCESS_RETURN) {
 155              		.loc 1 85 5 is_stmt 1
  85:C:/Users/stapi/OneDrive/Desktop/GD32VW553/V1_MQTT_OK/GD32VW55X_Wifi_BLE_SDK/GD32VW55x_RELEASE_V1.0.2/MSDK/cloud/alicloud/src/services/linkkit/dm\dm_api.c ****     if (res != SUCCESS_RETURN) {
 156              		.loc 1 85 11 is_stmt 0
 157 0094 97000000 		call	dm_mgr_init
 157      E7800000 
 158              	.LVL18:
 159 009c 2A84     		mv	s0,a0
 160              	.LVL19:
  86:C:/Users/stapi/OneDrive/Desktop/GD32VW553/V1_MQTT_OK/GD32VW55X_Wifi_BLE_SDK/GD32VW55x_RELEASE_V1.0.2/MSDK/cloud/alicloud/src/services/linkkit/dm\dm_api.c ****         goto ERROR;
 161              		.loc 1 86 5 is_stmt 1
  86:C:/Users/stapi/OneDrive/Desktop/GD32VW553/V1_MQTT_OK/GD32VW55X_Wifi_BLE_SDK/GD32VW55x_RELEASE_V1.0.2/MSDK/cloud/alicloud/src/services/linkkit/dm\dm_api.c ****         goto ERROR;
 162              		.loc 1 86 8 is_stmt 0
 163 009e 59FD     		bne	a0,zero,.L23
  99:C:/Users/stapi/OneDrive/Desktop/GD32VW553/V1_MQTT_OK/GD32VW55X_Wifi_BLE_SDK/GD32VW55x_RELEASE_V1.0.2/MSDK/cloud/alicloud/src/services/linkkit/dm\dm_api.c ****     if (res == SUCCESS_RETURN) {
 164              		.loc 1 99 5 is_stmt 1
  99:C:/Users/stapi/OneDrive/Desktop/GD32VW553/V1_MQTT_OK/GD32VW55X_Wifi_BLE_SDK/GD32VW55x_RELEASE_V1.0.2/MSDK/cloud/alicloud/src/services/linkkit/dm\dm_api.c ****     if (res == SUCCESS_RETURN) {
 165              		.loc 1 99 11 is_stmt 0
 166 00a0 97000000 		call	dm_ota_sub
 166      E7800000 
 167              	.LVL20:
 100:C:/Users/stapi/OneDrive/Desktop/GD32VW553/V1_MQTT_OK/GD32VW55X_Wifi_BLE_SDK/GD32VW55x_RELEASE_V1.0.2/MSDK/cloud/alicloud/src/services/linkkit/dm\dm_api.c ****         /* DM Config OTA Module Init */
 168              		.loc 1 100 5 is_stmt 1
 100:C:/Users/stapi/OneDrive/Desktop/GD32VW553/V1_MQTT_OK/GD32VW55X_Wifi_BLE_SDK/GD32VW55x_RELEASE_V1.0.2/MSDK/cloud/alicloud/src/services/linkkit/dm\dm_api.c ****         /* DM Config OTA Module Init */
 169              		.loc 1 100 8 is_stmt 0
 170 00a8 09E9     		bne	a0,zero,.L24
 102:C:/Users/stapi/OneDrive/Desktop/GD32VW553/V1_MQTT_OK/GD32VW55X_Wifi_BLE_SDK/GD32VW55x_RELEASE_V1.0.2/MSDK/cloud/alicloud/src/services/linkkit/dm\dm_api.c **** 
 171              		.loc 1 102 9 is_stmt 1
 172 00aa 97000000 		call	dm_cota_init
 172      E7800000 
 173              	.LVL21:
 105:C:/Users/stapi/OneDrive/Desktop/GD32VW553/V1_MQTT_OK/GD32VW55X_Wifi_BLE_SDK/GD32VW55x_RELEASE_V1.0.2/MSDK/cloud/alicloud/src/services/linkkit/dm\dm_api.c ****     }
 174              		.loc 1 105 9
 175 00b2 97000000 		call	dm_fota_init
 175      E7800000 
 176              	.LVL22:
 177              	.L24:
 110:C:/Users/stapi/OneDrive/Desktop/GD32VW553/V1_MQTT_OK/GD32VW55X_Wifi_BLE_SDK/GD32VW55x_RELEASE_V1.0.2/MSDK/cloud/alicloud/src/services/linkkit/dm\dm_api.c ****     if (res < SUCCESS_RETURN) {
 178              		.loc 1 110 5
 110:C:/Users/stapi/OneDrive/Desktop/GD32VW553/V1_MQTT_OK/GD32VW55X_Wifi_BLE_SDK/GD32VW55x_RELEASE_V1.0.2/MSDK/cloud/alicloud/src/services/linkkit/dm\dm_api.c ****     if (res < SUCCESS_RETURN) {
 179              		.loc 1 110 11 is_stmt 0
 180 00ba 97000000 		call	dm_client_open
 180      E7800000 
 181              	.LVL23:
 111:C:/Users/stapi/OneDrive/Desktop/GD32VW553/V1_MQTT_OK/GD32VW55X_Wifi_BLE_SDK/GD32VW55x_RELEASE_V1.0.2/MSDK/cloud/alicloud/src/services/linkkit/dm\dm_api.c ****         goto ERROR;
 182              		.loc 1 111 5 is_stmt 1
 111:C:/Users/stapi/OneDrive/Desktop/GD32VW553/V1_MQTT_OK/GD32VW55X_Wifi_BLE_SDK/GD32VW55x_RELEASE_V1.0.2/MSDK/cloud/alicloud/src/services/linkkit/dm\dm_api.c ****         goto ERROR;
 183              		.loc 1 111 8 is_stmt 0
 184 00c2 E34D05F6 		blt	a0,zero,.L23
 185              	.LVL24:
 186              	.L19:
 140:C:/Users/stapi/OneDrive/Desktop/GD32VW553/V1_MQTT_OK/GD32VW55X_Wifi_BLE_SDK/GD32VW55x_RELEASE_V1.0.2/MSDK/cloud/alicloud/src/services/linkkit/dm\dm_api.c **** }
 187              		.loc 1 140 1
 188 00c6 2285     		mv	a0,s0
 189 00c8 17030000 		tail	__riscv_restore_2
 189      67000300 
 190              		.cfi_remember_state
 191              		.cfi_restore 9
 192              		.cfi_restore 8
 193              		.cfi_restore 1
 194              		.cfi_def_cfa_offset 0
 195              	.L22:
 196              		.cfi_restore_state
 137:C:/Users/stapi/OneDrive/Desktop/GD32VW553/V1_MQTT_OK/GD32VW55X_Wifi_BLE_SDK/GD32VW55x_RELEASE_V1.0.2/MSDK/cloud/alicloud/src/services/linkkit/dm\dm_api.c ****     }
 197              		.loc 1 137 9 is_stmt 1
 198 00d0 97000000 		call	HAL_MutexDestroy
 198      E7800000 
 199              	.LVL25:
 200 00d8 61BF     		j	.L27
 201              		.cfi_endproc
 202              	.LFE23:
 204              		.section	.text.iotx_dm_connect,"ax",@progbits
 205              		.align	1
 206              		.globl	iotx_dm_connect
 208              	iotx_dm_connect:
 209              	.LFB24:
 141:C:/Users/stapi/OneDrive/Desktop/GD32VW553/V1_MQTT_OK/GD32VW55X_Wifi_BLE_SDK/GD32VW55x_RELEASE_V1.0.2/MSDK/cloud/alicloud/src/services/linkkit/dm\dm_api.c **** 
 142:C:/Users/stapi/OneDrive/Desktop/GD32VW553/V1_MQTT_OK/GD32VW55X_Wifi_BLE_SDK/GD32VW55x_RELEASE_V1.0.2/MSDK/cloud/alicloud/src/services/linkkit/dm\dm_api.c **** int iotx_dm_connect(_IN_ iotx_dm_init_params_t *init_params)
 143:C:/Users/stapi/OneDrive/Desktop/GD32VW553/V1_MQTT_OK/GD32VW55X_Wifi_BLE_SDK/GD32VW55x_RELEASE_V1.0.2/MSDK/cloud/alicloud/src/services/linkkit/dm\dm_api.c **** {
 210              		.loc 1 143 1
 211              		.cfi_startproc
 212              	.LVL26:
 144:C:/Users/stapi/OneDrive/Desktop/GD32VW553/V1_MQTT_OK/GD32VW55X_Wifi_BLE_SDK/GD32VW55x_RELEASE_V1.0.2/MSDK/cloud/alicloud/src/services/linkkit/dm\dm_api.c ****     int res = 0;
 213              		.loc 1 144 5
 145:C:/Users/stapi/OneDrive/Desktop/GD32VW553/V1_MQTT_OK/GD32VW55X_Wifi_BLE_SDK/GD32VW55x_RELEASE_V1.0.2/MSDK/cloud/alicloud/src/services/linkkit/dm\dm_api.c ****     dm_api_ctx_t *ctx = _dm_api_get_ctx();
 214              		.loc 1 145 5
  13:C:/Users/stapi/OneDrive/Desktop/GD32VW553/V1_MQTT_OK/GD32VW55X_Wifi_BLE_SDK/GD32VW55x_RELEASE_V1.0.2/MSDK/cloud/alicloud/src/services/linkkit/dm\dm_api.c **** }
 215              		.loc 1 13 5
 146:C:/Users/stapi/OneDrive/Desktop/GD32VW553/V1_MQTT_OK/GD32VW55X_Wifi_BLE_SDK/GD32VW55x_RELEASE_V1.0.2/MSDK/cloud/alicloud/src/services/linkkit/dm\dm_api.c **** 
 147:C:/Users/stapi/OneDrive/Desktop/GD32VW553/V1_MQTT_OK/GD32VW55X_Wifi_BLE_SDK/GD32VW55x_RELEASE_V1.0.2/MSDK/cloud/alicloud/src/services/linkkit/dm\dm_api.c ****     if (init_params == NULL) {
 216              		.loc 1 147 5
 217              		.loc 1 147 8 is_stmt 0
 218 0000 15C9     		beq	a0,zero,.L31
 143:C:/Users/stapi/OneDrive/Desktop/GD32VW553/V1_MQTT_OK/GD32VW55X_Wifi_BLE_SDK/GD32VW55x_RELEASE_V1.0.2/MSDK/cloud/alicloud/src/services/linkkit/dm\dm_api.c ****     int res = 0;
 219              		.loc 1 143 1
 220 0002 17030000 		call	t0,__riscv_save_0
 220      E7020300 
 221              		.cfi_offset 1, -4
 222              		.cfi_def_cfa_offset 16
 148:C:/Users/stapi/OneDrive/Desktop/GD32VW553/V1_MQTT_OK/GD32VW55X_Wifi_BLE_SDK/GD32VW55x_RELEASE_V1.0.2/MSDK/cloud/alicloud/src/services/linkkit/dm\dm_api.c ****         return DM_INVALID_PARAMETER;
 149:C:/Users/stapi/OneDrive/Desktop/GD32VW553/V1_MQTT_OK/GD32VW55X_Wifi_BLE_SDK/GD32VW55x_RELEASE_V1.0.2/MSDK/cloud/alicloud/src/services/linkkit/dm\dm_api.c ****     }
 150:C:/Users/stapi/OneDrive/Desktop/GD32VW553/V1_MQTT_OK/GD32VW55X_Wifi_BLE_SDK/GD32VW55x_RELEASE_V1.0.2/MSDK/cloud/alicloud/src/services/linkkit/dm\dm_api.c **** 
 151:C:/Users/stapi/OneDrive/Desktop/GD32VW553/V1_MQTT_OK/GD32VW55X_Wifi_BLE_SDK/GD32VW55x_RELEASE_V1.0.2/MSDK/cloud/alicloud/src/services/linkkit/dm\dm_api.c ****     /* DM Event Callback */
 152:C:/Users/stapi/OneDrive/Desktop/GD32VW553/V1_MQTT_OK/GD32VW55X_Wifi_BLE_SDK/GD32VW55x_RELEASE_V1.0.2/MSDK/cloud/alicloud/src/services/linkkit/dm\dm_api.c ****     if (init_params->event_callback != NULL) {
 223              		.loc 1 152 5 is_stmt 1
 224              		.loc 1 152 20 is_stmt 0
 225 000a 1C45     		lw	a5,8(a0)
 226              		.loc 1 152 8
 227 000c 89C7     		beq	a5,zero,.L30
 153:C:/Users/stapi/OneDrive/Desktop/GD32VW553/V1_MQTT_OK/GD32VW55X_Wifi_BLE_SDK/GD32VW55x_RELEASE_V1.0.2/MSDK/cloud/alicloud/src/services/linkkit/dm\dm_api.c ****         ctx->event_callback = init_params->event_callback;
 228              		.loc 1 153 9 is_stmt 1
 229              		.loc 1 153 29 is_stmt 0
 230 000e 37070000 		lui	a4,%hi(.LANCHOR0+12)
 231 0012 2326F700 		sw	a5,%lo(.LANCHOR0+12)(a4)
 232              	.L30:
 154:C:/Users/stapi/OneDrive/Desktop/GD32VW553/V1_MQTT_OK/GD32VW55X_Wifi_BLE_SDK/GD32VW55x_RELEASE_V1.0.2/MSDK/cloud/alicloud/src/services/linkkit/dm\dm_api.c ****     }
 155:C:/Users/stapi/OneDrive/Desktop/GD32VW553/V1_MQTT_OK/GD32VW55X_Wifi_BLE_SDK/GD32VW55x_RELEASE_V1.0.2/MSDK/cloud/alicloud/src/services/linkkit/dm\dm_api.c **** 
 156:C:/Users/stapi/OneDrive/Desktop/GD32VW553/V1_MQTT_OK/GD32VW55X_Wifi_BLE_SDK/GD32VW55x_RELEASE_V1.0.2/MSDK/cloud/alicloud/src/services/linkkit/dm\dm_api.c ****     res = dm_client_connect(IOTX_DM_CLIENT_CONNECT_TIMEOUT_MS);
 233              		.loc 1 156 5 is_stmt 1
 234              		.loc 1 156 11 is_stmt 0
 235 0016 0965     		li	a0,8192
 236              	.LVL27:
 237 0018 13050571 		addi	a0,a0,1808
 238 001c 97000000 		call	dm_client_connect
 238      E7800000 
 239              	.LVL28:
 157:C:/Users/stapi/OneDrive/Desktop/GD32VW553/V1_MQTT_OK/GD32VW55X_Wifi_BLE_SDK/GD32VW55x_RELEASE_V1.0.2/MSDK/cloud/alicloud/src/services/linkkit/dm\dm_api.c ****     if (res != SUCCESS_RETURN) {
 240              		.loc 1 157 5 is_stmt 1
 241              		.loc 1 157 8 is_stmt 0
 242 0024 3335A000 		snez	a0,a0
 243              	.LVL29:
 244 0028 3305A040 		neg	a0,a0
 158:C:/Users/stapi/OneDrive/Desktop/GD32VW553/V1_MQTT_OK/GD32VW55X_Wifi_BLE_SDK/GD32VW55x_RELEASE_V1.0.2/MSDK/cloud/alicloud/src/services/linkkit/dm\dm_api.c ****         return FAIL_RETURN;
 159:C:/Users/stapi/OneDrive/Desktop/GD32VW553/V1_MQTT_OK/GD32VW55X_Wifi_BLE_SDK/GD32VW55x_RELEASE_V1.0.2/MSDK/cloud/alicloud/src/services/linkkit/dm\dm_api.c ****     }
 160:C:/Users/stapi/OneDrive/Desktop/GD32VW553/V1_MQTT_OK/GD32VW55X_Wifi_BLE_SDK/GD32VW55x_RELEASE_V1.0.2/MSDK/cloud/alicloud/src/services/linkkit/dm\dm_api.c **** 
 161:C:/Users/stapi/OneDrive/Desktop/GD32VW553/V1_MQTT_OK/GD32VW55X_Wifi_BLE_SDK/GD32VW55x_RELEASE_V1.0.2/MSDK/cloud/alicloud/src/services/linkkit/dm\dm_api.c **** #ifdef ALCS_ENABLED
 162:C:/Users/stapi/OneDrive/Desktop/GD32VW553/V1_MQTT_OK/GD32VW55X_Wifi_BLE_SDK/GD32VW55x_RELEASE_V1.0.2/MSDK/cloud/alicloud/src/services/linkkit/dm\dm_api.c ****     /* DM Connect Local */
 163:C:/Users/stapi/OneDrive/Desktop/GD32VW553/V1_MQTT_OK/GD32VW55X_Wifi_BLE_SDK/GD32VW55x_RELEASE_V1.0.2/MSDK/cloud/alicloud/src/services/linkkit/dm\dm_api.c ****     do{
 164:C:/Users/stapi/OneDrive/Desktop/GD32VW553/V1_MQTT_OK/GD32VW55X_Wifi_BLE_SDK/GD32VW55x_RELEASE_V1.0.2/MSDK/cloud/alicloud/src/services/linkkit/dm\dm_api.c ****         res = dm_server_connect();
 165:C:/Users/stapi/OneDrive/Desktop/GD32VW553/V1_MQTT_OK/GD32VW55X_Wifi_BLE_SDK/GD32VW55x_RELEASE_V1.0.2/MSDK/cloud/alicloud/src/services/linkkit/dm\dm_api.c ****         if (res < 0) {
 166:C:/Users/stapi/OneDrive/Desktop/GD32VW553/V1_MQTT_OK/GD32VW55X_Wifi_BLE_SDK/GD32VW55x_RELEASE_V1.0.2/MSDK/cloud/alicloud/src/services/linkkit/dm\dm_api.c ****             dm_log_err("dm_server_connect Failed, retry after 2s...\n");
 167:C:/Users/stapi/OneDrive/Desktop/GD32VW553/V1_MQTT_OK/GD32VW55X_Wifi_BLE_SDK/GD32VW55x_RELEASE_V1.0.2/MSDK/cloud/alicloud/src/services/linkkit/dm\dm_api.c ****             HAL_SleepMs(2000);
 168:C:/Users/stapi/OneDrive/Desktop/GD32VW553/V1_MQTT_OK/GD32VW55X_Wifi_BLE_SDK/GD32VW55x_RELEASE_V1.0.2/MSDK/cloud/alicloud/src/services/linkkit/dm\dm_api.c ****         }
 169:C:/Users/stapi/OneDrive/Desktop/GD32VW553/V1_MQTT_OK/GD32VW55X_Wifi_BLE_SDK/GD32VW55x_RELEASE_V1.0.2/MSDK/cloud/alicloud/src/services/linkkit/dm\dm_api.c ****     }while(res < 0);
 170:C:/Users/stapi/OneDrive/Desktop/GD32VW553/V1_MQTT_OK/GD32VW55X_Wifi_BLE_SDK/GD32VW55x_RELEASE_V1.0.2/MSDK/cloud/alicloud/src/services/linkkit/dm\dm_api.c ****     // res = dm_server_connect();
 171:C:/Users/stapi/OneDrive/Desktop/GD32VW553/V1_MQTT_OK/GD32VW55X_Wifi_BLE_SDK/GD32VW55x_RELEASE_V1.0.2/MSDK/cloud/alicloud/src/services/linkkit/dm\dm_api.c ****     // if (res != SUCCESS_RETURN) {
 172:C:/Users/stapi/OneDrive/Desktop/GD32VW553/V1_MQTT_OK/GD32VW55X_Wifi_BLE_SDK/GD32VW55x_RELEASE_V1.0.2/MSDK/cloud/alicloud/src/services/linkkit/dm\dm_api.c ****     //     return FAIL_RETURN;
 173:C:/Users/stapi/OneDrive/Desktop/GD32VW553/V1_MQTT_OK/GD32VW55X_Wifi_BLE_SDK/GD32VW55x_RELEASE_V1.0.2/MSDK/cloud/alicloud/src/services/linkkit/dm\dm_api.c ****     // }
 174:C:/Users/stapi/OneDrive/Desktop/GD32VW553/V1_MQTT_OK/GD32VW55X_Wifi_BLE_SDK/GD32VW55x_RELEASE_V1.0.2/MSDK/cloud/alicloud/src/services/linkkit/dm\dm_api.c **** #endif
 175:C:/Users/stapi/OneDrive/Desktop/GD32VW553/V1_MQTT_OK/GD32VW55X_Wifi_BLE_SDK/GD32VW55x_RELEASE_V1.0.2/MSDK/cloud/alicloud/src/services/linkkit/dm\dm_api.c **** 
 176:C:/Users/stapi/OneDrive/Desktop/GD32VW553/V1_MQTT_OK/GD32VW55X_Wifi_BLE_SDK/GD32VW55x_RELEASE_V1.0.2/MSDK/cloud/alicloud/src/services/linkkit/dm\dm_api.c **** #ifdef MQTT_SHADOW
 177:C:/Users/stapi/OneDrive/Desktop/GD32VW553/V1_MQTT_OK/GD32VW55X_Wifi_BLE_SDK/GD32VW55x_RELEASE_V1.0.2/MSDK/cloud/alicloud/src/services/linkkit/dm\dm_api.c ****     dm_shadow_update();
 178:C:/Users/stapi/OneDrive/Desktop/GD32VW553/V1_MQTT_OK/GD32VW55X_Wifi_BLE_SDK/GD32VW55x_RELEASE_V1.0.2/MSDK/cloud/alicloud/src/services/linkkit/dm\dm_api.c **** #endif
 179:C:/Users/stapi/OneDrive/Desktop/GD32VW553/V1_MQTT_OK/GD32VW55X_Wifi_BLE_SDK/GD32VW55x_RELEASE_V1.0.2/MSDK/cloud/alicloud/src/services/linkkit/dm\dm_api.c **** 
 180:C:/Users/stapi/OneDrive/Desktop/GD32VW553/V1_MQTT_OK/GD32VW55X_Wifi_BLE_SDK/GD32VW55x_RELEASE_V1.0.2/MSDK/cloud/alicloud/src/services/linkkit/dm\dm_api.c ****     return SUCCESS_RETURN;
 181:C:/Users/stapi/OneDrive/Desktop/GD32VW553/V1_MQTT_OK/GD32VW55X_Wifi_BLE_SDK/GD32VW55x_RELEASE_V1.0.2/MSDK/cloud/alicloud/src/services/linkkit/dm\dm_api.c **** }
 245              		.loc 1 181 1
 246 002c 17030000 		tail	__riscv_restore_0
 246      67000300 
 247              		.cfi_restore 1
 248              		.cfi_def_cfa_offset 0
 249              	.LVL30:
 250              	.L31:
 148:C:/Users/stapi/OneDrive/Desktop/GD32VW553/V1_MQTT_OK/GD32VW55X_Wifi_BLE_SDK/GD32VW55x_RELEASE_V1.0.2/MSDK/cloud/alicloud/src/services/linkkit/dm\dm_api.c ****     }
 251              		.loc 1 148 16
 252 0034 7955     		li	a0,-2
 253              	.LVL31:
 254              		.loc 1 181 1
 255 0036 8280     		ret
 256              		.cfi_endproc
 257              	.LFE24:
 259              		.section	.rodata.iotx_dm_subscribe.str1.4,"aMS",@progbits,1
 260              		.align	2
 261              	.LC0:
 262 0000 5B696E66 		.string	"[inf] "
 262      5D2000
 263 0007 00       		.align	2
 264              	.LC1:
 265 0008 44657669 		.string	"Devid %d Sub Completed"
 265      64202564 
 265      20537562 
 265      20436F6D 
 265      706C6574 
 266 001f 00       		.align	2
 267              	.LC2:
 268 0020 0D0A00   		.string	"\r\n"
 269              		.section	.text.iotx_dm_subscribe,"ax",@progbits
 270              		.align	1
 271              		.globl	iotx_dm_subscribe
 273              	iotx_dm_subscribe:
 274              	.LFB25:
 182:C:/Users/stapi/OneDrive/Desktop/GD32VW553/V1_MQTT_OK/GD32VW55X_Wifi_BLE_SDK/GD32VW55x_RELEASE_V1.0.2/MSDK/cloud/alicloud/src/services/linkkit/dm\dm_api.c **** 
 183:C:/Users/stapi/OneDrive/Desktop/GD32VW553/V1_MQTT_OK/GD32VW55X_Wifi_BLE_SDK/GD32VW55x_RELEASE_V1.0.2/MSDK/cloud/alicloud/src/services/linkkit/dm\dm_api.c **** int iotx_dm_subscribe(_IN_ int devid)
 184:C:/Users/stapi/OneDrive/Desktop/GD32VW553/V1_MQTT_OK/GD32VW55X_Wifi_BLE_SDK/GD32VW55x_RELEASE_V1.0.2/MSDK/cloud/alicloud/src/services/linkkit/dm\dm_api.c **** {
 275              		.loc 1 184 1 is_stmt 1
 276              		.cfi_startproc
 277              	.LVL32:
 278 0000 17030000 		call	t0,__riscv_save_2
 278      E7020300 
 279              		.cfi_offset 9, -12
 280              		.cfi_offset 8, -8
 281              		.cfi_offset 1, -4
 282              		.cfi_def_cfa_offset 16
 185:C:/Users/stapi/OneDrive/Desktop/GD32VW553/V1_MQTT_OK/GD32VW55X_Wifi_BLE_SDK/GD32VW55x_RELEASE_V1.0.2/MSDK/cloud/alicloud/src/services/linkkit/dm\dm_api.c ****     int res = 0, dev_type = 0;
 283              		.loc 1 185 5
 284              	.LVL33:
 184:C:/Users/stapi/OneDrive/Desktop/GD32VW553/V1_MQTT_OK/GD32VW55X_Wifi_BLE_SDK/GD32VW55x_RELEASE_V1.0.2/MSDK/cloud/alicloud/src/services/linkkit/dm\dm_api.c ****     int res = 0, dev_type = 0;
 285              		.loc 1 184 1 is_stmt 0
 286 0008 7571     		addi	sp,sp,-144
 287              		.cfi_def_cfa_offset 160
 186:C:/Users/stapi/OneDrive/Desktop/GD32VW553/V1_MQTT_OK/GD32VW55X_Wifi_BLE_SDK/GD32VW55x_RELEASE_V1.0.2/MSDK/cloud/alicloud/src/services/linkkit/dm\dm_api.c ****     char product_key[PRODUCT_KEY_MAXLEN] = {0};
 187:C:/Users/stapi/OneDrive/Desktop/GD32VW553/V1_MQTT_OK/GD32VW55X_Wifi_BLE_SDK/GD32VW55x_RELEASE_V1.0.2/MSDK/cloud/alicloud/src/services/linkkit/dm\dm_api.c ****     char device_name[DEVICE_NAME_MAXLEN] = {0};
 288              		.loc 1 187 10
 289 000a 7546     		li	a2,29
 290 000c 8145     		li	a1,0
 184:C:/Users/stapi/OneDrive/Desktop/GD32VW553/V1_MQTT_OK/GD32VW55X_Wifi_BLE_SDK/GD32VW55x_RELEASE_V1.0.2/MSDK/cloud/alicloud/src/services/linkkit/dm\dm_api.c ****     int res = 0, dev_type = 0;
 291              		.loc 1 184 1
 292 000e AA84     		mv	s1,a0
 293              		.loc 1 187 10
 294 0010 6810     		addi	a0,sp,44
 295              	.LVL34:
 185:C:/Users/stapi/OneDrive/Desktop/GD32VW553/V1_MQTT_OK/GD32VW55X_Wifi_BLE_SDK/GD32VW55x_RELEASE_V1.0.2/MSDK/cloud/alicloud/src/services/linkkit/dm\dm_api.c ****     char product_key[PRODUCT_KEY_MAXLEN] = {0};
 296              		.loc 1 185 18
 297 0012 02C6     		sw	zero,12(sp)
 186:C:/Users/stapi/OneDrive/Desktop/GD32VW553/V1_MQTT_OK/GD32VW55X_Wifi_BLE_SDK/GD32VW55x_RELEASE_V1.0.2/MSDK/cloud/alicloud/src/services/linkkit/dm\dm_api.c ****     char product_key[PRODUCT_KEY_MAXLEN] = {0};
 298              		.loc 1 186 5 is_stmt 1
 186:C:/Users/stapi/OneDrive/Desktop/GD32VW553/V1_MQTT_OK/GD32VW55X_Wifi_BLE_SDK/GD32VW55x_RELEASE_V1.0.2/MSDK/cloud/alicloud/src/services/linkkit/dm\dm_api.c ****     char product_key[PRODUCT_KEY_MAXLEN] = {0};
 299              		.loc 1 186 10 is_stmt 0
 300 0014 02C8     		sw	zero,16(sp)
 301 0016 02CA     		sw	zero,20(sp)
 302 0018 02CC     		sw	zero,24(sp)
 303 001a 02CE     		sw	zero,28(sp)
 304 001c 02D0     		sw	zero,32(sp)
 305 001e 23020102 		sb	zero,36(sp)
 306              		.loc 1 187 5 is_stmt 1
 307              		.loc 1 187 10 is_stmt 0
 308 0022 02D4     		sw	zero,40(sp)
 309 0024 97000000 		call	memset
 309      E7800000 
 310              	.LVL35:
 188:C:/Users/stapi/OneDrive/Desktop/GD32VW553/V1_MQTT_OK/GD32VW55X_Wifi_BLE_SDK/GD32VW55x_RELEASE_V1.0.2/MSDK/cloud/alicloud/src/services/linkkit/dm\dm_api.c ****     char device_secret[DEVICE_SECRET_MAXLEN] = {0};
 311              		.loc 1 188 5 is_stmt 1
 312              		.loc 1 188 10 is_stmt 0
 313 002c 1306D003 		li	a2,61
 314 0030 8145     		li	a1,0
 315 0032 8808     		addi	a0,sp,80
 316 0034 82C6     		sw	zero,76(sp)
 189:C:/Users/stapi/OneDrive/Desktop/GD32VW553/V1_MQTT_OK/GD32VW55X_Wifi_BLE_SDK/GD32VW55x_RELEASE_V1.0.2/MSDK/cloud/alicloud/src/services/linkkit/dm\dm_api.c **** 
 190:C:/Users/stapi/OneDrive/Desktop/GD32VW553/V1_MQTT_OK/GD32VW55X_Wifi_BLE_SDK/GD32VW55x_RELEASE_V1.0.2/MSDK/cloud/alicloud/src/services/linkkit/dm\dm_api.c ****     if (devid < 0) {
 191:C:/Users/stapi/OneDrive/Desktop/GD32VW553/V1_MQTT_OK/GD32VW55X_Wifi_BLE_SDK/GD32VW55x_RELEASE_V1.0.2/MSDK/cloud/alicloud/src/services/linkkit/dm\dm_api.c ****         return DM_INVALID_PARAMETER;
 317              		.loc 1 191 16
 318 0036 7954     		li	s0,-2
 188:C:/Users/stapi/OneDrive/Desktop/GD32VW553/V1_MQTT_OK/GD32VW55X_Wifi_BLE_SDK/GD32VW55x_RELEASE_V1.0.2/MSDK/cloud/alicloud/src/services/linkkit/dm\dm_api.c ****     char device_secret[DEVICE_SECRET_MAXLEN] = {0};
 319              		.loc 1 188 10
 320 0038 97000000 		call	memset
 320      E7800000 
 321              	.LVL36:
 190:C:/Users/stapi/OneDrive/Desktop/GD32VW553/V1_MQTT_OK/GD32VW55X_Wifi_BLE_SDK/GD32VW55x_RELEASE_V1.0.2/MSDK/cloud/alicloud/src/services/linkkit/dm\dm_api.c ****         return DM_INVALID_PARAMETER;
 322              		.loc 1 190 5 is_stmt 1
 190:C:/Users/stapi/OneDrive/Desktop/GD32VW553/V1_MQTT_OK/GD32VW55X_Wifi_BLE_SDK/GD32VW55x_RELEASE_V1.0.2/MSDK/cloud/alicloud/src/services/linkkit/dm\dm_api.c ****         return DM_INVALID_PARAMETER;
 323              		.loc 1 190 8 is_stmt 0
 324 0040 63C50402 		blt	s1,zero,.L39
 192:C:/Users/stapi/OneDrive/Desktop/GD32VW553/V1_MQTT_OK/GD32VW55X_Wifi_BLE_SDK/GD32VW55x_RELEASE_V1.0.2/MSDK/cloud/alicloud/src/services/linkkit/dm\dm_api.c ****     }
 193:C:/Users/stapi/OneDrive/Desktop/GD32VW553/V1_MQTT_OK/GD32VW55X_Wifi_BLE_SDK/GD32VW55x_RELEASE_V1.0.2/MSDK/cloud/alicloud/src/services/linkkit/dm\dm_api.c **** 
 194:C:/Users/stapi/OneDrive/Desktop/GD32VW553/V1_MQTT_OK/GD32VW55X_Wifi_BLE_SDK/GD32VW55x_RELEASE_V1.0.2/MSDK/cloud/alicloud/src/services/linkkit/dm\dm_api.c ****     _dm_api_lock();
 325              		.loc 1 194 5 is_stmt 1
 326 0044 97000000 		call	_dm_api_lock
 326      E7800000 
 327              	.LVL37:
 195:C:/Users/stapi/OneDrive/Desktop/GD32VW553/V1_MQTT_OK/GD32VW55X_Wifi_BLE_SDK/GD32VW55x_RELEASE_V1.0.2/MSDK/cloud/alicloud/src/services/linkkit/dm\dm_api.c ****     res = dm_mgr_search_device_by_devid(devid, product_key, device_name, device_secret);
 328              		.loc 1 195 5
 329              		.loc 1 195 11 is_stmt 0
 330 004c F400     		addi	a3,sp,76
 331 004e 3010     		addi	a2,sp,40
 332 0050 0C08     		addi	a1,sp,16
 333 0052 2685     		mv	a0,s1
 334 0054 97000000 		call	dm_mgr_search_device_by_devid
 334      E7800000 
 335              	.LVL38:
 336 005c 2A84     		mv	s0,a0
 337              	.LVL39:
 196:C:/Users/stapi/OneDrive/Desktop/GD32VW553/V1_MQTT_OK/GD32VW55X_Wifi_BLE_SDK/GD32VW55x_RELEASE_V1.0.2/MSDK/cloud/alicloud/src/services/linkkit/dm\dm_api.c ****     if (res < SUCCESS_RETURN) {
 338              		.loc 1 196 5 is_stmt 1
 339              		.loc 1 196 8 is_stmt 0
 340 005e 635C0500 		bge	a0,zero,.L41
 341              	.L46:
 197:C:/Users/stapi/OneDrive/Desktop/GD32VW553/V1_MQTT_OK/GD32VW55X_Wifi_BLE_SDK/GD32VW55x_RELEASE_V1.0.2/MSDK/cloud/alicloud/src/services/linkkit/dm\dm_api.c ****         _dm_api_unlock();
 198:C:/Users/stapi/OneDrive/Desktop/GD32VW553/V1_MQTT_OK/GD32VW55X_Wifi_BLE_SDK/GD32VW55x_RELEASE_V1.0.2/MSDK/cloud/alicloud/src/services/linkkit/dm\dm_api.c ****         return res;
 199:C:/Users/stapi/OneDrive/Desktop/GD32VW553/V1_MQTT_OK/GD32VW55X_Wifi_BLE_SDK/GD32VW55x_RELEASE_V1.0.2/MSDK/cloud/alicloud/src/services/linkkit/dm\dm_api.c ****     }
 200:C:/Users/stapi/OneDrive/Desktop/GD32VW553/V1_MQTT_OK/GD32VW55X_Wifi_BLE_SDK/GD32VW55x_RELEASE_V1.0.2/MSDK/cloud/alicloud/src/services/linkkit/dm\dm_api.c **** 
 201:C:/Users/stapi/OneDrive/Desktop/GD32VW553/V1_MQTT_OK/GD32VW55X_Wifi_BLE_SDK/GD32VW55x_RELEASE_V1.0.2/MSDK/cloud/alicloud/src/services/linkkit/dm\dm_api.c ****     res = dm_mgr_get_dev_type(devid, &dev_type);
 202:C:/Users/stapi/OneDrive/Desktop/GD32VW553/V1_MQTT_OK/GD32VW55X_Wifi_BLE_SDK/GD32VW55x_RELEASE_V1.0.2/MSDK/cloud/alicloud/src/services/linkkit/dm\dm_api.c ****     if (res < SUCCESS_RETURN) {
 203:C:/Users/stapi/OneDrive/Desktop/GD32VW553/V1_MQTT_OK/GD32VW55X_Wifi_BLE_SDK/GD32VW55x_RELEASE_V1.0.2/MSDK/cloud/alicloud/src/services/linkkit/dm\dm_api.c ****         _dm_api_unlock();
 204:C:/Users/stapi/OneDrive/Desktop/GD32VW553/V1_MQTT_OK/GD32VW55X_Wifi_BLE_SDK/GD32VW55x_RELEASE_V1.0.2/MSDK/cloud/alicloud/src/services/linkkit/dm\dm_api.c ****         return res;
 205:C:/Users/stapi/OneDrive/Desktop/GD32VW553/V1_MQTT_OK/GD32VW55X_Wifi_BLE_SDK/GD32VW55x_RELEASE_V1.0.2/MSDK/cloud/alicloud/src/services/linkkit/dm\dm_api.c ****     }
 206:C:/Users/stapi/OneDrive/Desktop/GD32VW553/V1_MQTT_OK/GD32VW55X_Wifi_BLE_SDK/GD32VW55x_RELEASE_V1.0.2/MSDK/cloud/alicloud/src/services/linkkit/dm\dm_api.c **** 
 207:C:/Users/stapi/OneDrive/Desktop/GD32VW553/V1_MQTT_OK/GD32VW55X_Wifi_BLE_SDK/GD32VW55x_RELEASE_V1.0.2/MSDK/cloud/alicloud/src/services/linkkit/dm\dm_api.c **** #ifdef ALCS_ENABLED
 208:C:/Users/stapi/OneDrive/Desktop/GD32VW553/V1_MQTT_OK/GD32VW55X_Wifi_BLE_SDK/GD32VW55x_RELEASE_V1.0.2/MSDK/cloud/alicloud/src/services/linkkit/dm\dm_api.c ****     if(devid > 0) {
 209:C:/Users/stapi/OneDrive/Desktop/GD32VW553/V1_MQTT_OK/GD32VW55X_Wifi_BLE_SDK/GD32VW55x_RELEASE_V1.0.2/MSDK/cloud/alicloud/src/services/linkkit/dm\dm_api.c ****         res = dm_server_add_device(product_key, device_name);
 210:C:/Users/stapi/OneDrive/Desktop/GD32VW553/V1_MQTT_OK/GD32VW55X_Wifi_BLE_SDK/GD32VW55x_RELEASE_V1.0.2/MSDK/cloud/alicloud/src/services/linkkit/dm\dm_api.c ****         if (res < SUCCESS_RETURN) {
 211:C:/Users/stapi/OneDrive/Desktop/GD32VW553/V1_MQTT_OK/GD32VW55X_Wifi_BLE_SDK/GD32VW55x_RELEASE_V1.0.2/MSDK/cloud/alicloud/src/services/linkkit/dm\dm_api.c ****             _dm_api_unlock();
 212:C:/Users/stapi/OneDrive/Desktop/GD32VW553/V1_MQTT_OK/GD32VW55X_Wifi_BLE_SDK/GD32VW55x_RELEASE_V1.0.2/MSDK/cloud/alicloud/src/services/linkkit/dm\dm_api.c ****             return res;
 213:C:/Users/stapi/OneDrive/Desktop/GD32VW553/V1_MQTT_OK/GD32VW55X_Wifi_BLE_SDK/GD32VW55x_RELEASE_V1.0.2/MSDK/cloud/alicloud/src/services/linkkit/dm\dm_api.c ****         }
 214:C:/Users/stapi/OneDrive/Desktop/GD32VW553/V1_MQTT_OK/GD32VW55X_Wifi_BLE_SDK/GD32VW55x_RELEASE_V1.0.2/MSDK/cloud/alicloud/src/services/linkkit/dm\dm_api.c ****     }
 215:C:/Users/stapi/OneDrive/Desktop/GD32VW553/V1_MQTT_OK/GD32VW55X_Wifi_BLE_SDK/GD32VW55x_RELEASE_V1.0.2/MSDK/cloud/alicloud/src/services/linkkit/dm\dm_api.c **** 
 216:C:/Users/stapi/OneDrive/Desktop/GD32VW553/V1_MQTT_OK/GD32VW55X_Wifi_BLE_SDK/GD32VW55x_RELEASE_V1.0.2/MSDK/cloud/alicloud/src/services/linkkit/dm\dm_api.c ****     res = dm_server_subscribe_all(product_key, device_name);
 217:C:/Users/stapi/OneDrive/Desktop/GD32VW553/V1_MQTT_OK/GD32VW55X_Wifi_BLE_SDK/GD32VW55x_RELEASE_V1.0.2/MSDK/cloud/alicloud/src/services/linkkit/dm\dm_api.c ****     if (res < SUCCESS_RETURN) {
 218:C:/Users/stapi/OneDrive/Desktop/GD32VW553/V1_MQTT_OK/GD32VW55X_Wifi_BLE_SDK/GD32VW55x_RELEASE_V1.0.2/MSDK/cloud/alicloud/src/services/linkkit/dm\dm_api.c ****         _dm_api_unlock();
 219:C:/Users/stapi/OneDrive/Desktop/GD32VW553/V1_MQTT_OK/GD32VW55X_Wifi_BLE_SDK/GD32VW55x_RELEASE_V1.0.2/MSDK/cloud/alicloud/src/services/linkkit/dm\dm_api.c ****         return res;
 220:C:/Users/stapi/OneDrive/Desktop/GD32VW553/V1_MQTT_OK/GD32VW55X_Wifi_BLE_SDK/GD32VW55x_RELEASE_V1.0.2/MSDK/cloud/alicloud/src/services/linkkit/dm\dm_api.c ****     }
 221:C:/Users/stapi/OneDrive/Desktop/GD32VW553/V1_MQTT_OK/GD32VW55X_Wifi_BLE_SDK/GD32VW55x_RELEASE_V1.0.2/MSDK/cloud/alicloud/src/services/linkkit/dm\dm_api.c **** #endif
 222:C:/Users/stapi/OneDrive/Desktop/GD32VW553/V1_MQTT_OK/GD32VW55X_Wifi_BLE_SDK/GD32VW55x_RELEASE_V1.0.2/MSDK/cloud/alicloud/src/services/linkkit/dm\dm_api.c **** 
 223:C:/Users/stapi/OneDrive/Desktop/GD32VW553/V1_MQTT_OK/GD32VW55X_Wifi_BLE_SDK/GD32VW55x_RELEASE_V1.0.2/MSDK/cloud/alicloud/src/services/linkkit/dm\dm_api.c ****     res = dm_client_subscribe_all(devid, product_key, device_name, dev_type);
 224:C:/Users/stapi/OneDrive/Desktop/GD32VW553/V1_MQTT_OK/GD32VW55X_Wifi_BLE_SDK/GD32VW55x_RELEASE_V1.0.2/MSDK/cloud/alicloud/src/services/linkkit/dm\dm_api.c ****     if (res < SUCCESS_RETURN) {
 225:C:/Users/stapi/OneDrive/Desktop/GD32VW553/V1_MQTT_OK/GD32VW55X_Wifi_BLE_SDK/GD32VW55x_RELEASE_V1.0.2/MSDK/cloud/alicloud/src/services/linkkit/dm\dm_api.c ****         _dm_api_unlock();
 342              		.loc 1 225 9 is_stmt 1
 343 0062 97000000 		call	_dm_api_unlock
 343      E7800000 
 344              	.LVL40:
 226:C:/Users/stapi/OneDrive/Desktop/GD32VW553/V1_MQTT_OK/GD32VW55X_Wifi_BLE_SDK/GD32VW55x_RELEASE_V1.0.2/MSDK/cloud/alicloud/src/services/linkkit/dm\dm_api.c ****         return res;
 345              		.loc 1 226 9
 346              	.L39:
 227:C:/Users/stapi/OneDrive/Desktop/GD32VW553/V1_MQTT_OK/GD32VW55X_Wifi_BLE_SDK/GD32VW55x_RELEASE_V1.0.2/MSDK/cloud/alicloud/src/services/linkkit/dm\dm_api.c ****     }
 228:C:/Users/stapi/OneDrive/Desktop/GD32VW553/V1_MQTT_OK/GD32VW55X_Wifi_BLE_SDK/GD32VW55x_RELEASE_V1.0.2/MSDK/cloud/alicloud/src/services/linkkit/dm\dm_api.c **** 
 229:C:/Users/stapi/OneDrive/Desktop/GD32VW553/V1_MQTT_OK/GD32VW55X_Wifi_BLE_SDK/GD32VW55x_RELEASE_V1.0.2/MSDK/cloud/alicloud/src/services/linkkit/dm\dm_api.c **** 
 230:C:/Users/stapi/OneDrive/Desktop/GD32VW553/V1_MQTT_OK/GD32VW55X_Wifi_BLE_SDK/GD32VW55x_RELEASE_V1.0.2/MSDK/cloud/alicloud/src/services/linkkit/dm\dm_api.c ****     _dm_api_unlock();
 231:C:/Users/stapi/OneDrive/Desktop/GD32VW553/V1_MQTT_OK/GD32VW55X_Wifi_BLE_SDK/GD32VW55x_RELEASE_V1.0.2/MSDK/cloud/alicloud/src/services/linkkit/dm\dm_api.c ****     dm_log_info("Devid %d Sub Completed", devid);
 232:C:/Users/stapi/OneDrive/Desktop/GD32VW553/V1_MQTT_OK/GD32VW55X_Wifi_BLE_SDK/GD32VW55x_RELEASE_V1.0.2/MSDK/cloud/alicloud/src/services/linkkit/dm\dm_api.c **** 
 233:C:/Users/stapi/OneDrive/Desktop/GD32VW553/V1_MQTT_OK/GD32VW55X_Wifi_BLE_SDK/GD32VW55x_RELEASE_V1.0.2/MSDK/cloud/alicloud/src/services/linkkit/dm\dm_api.c ****     return SUCCESS_RETURN;
 234:C:/Users/stapi/OneDrive/Desktop/GD32VW553/V1_MQTT_OK/GD32VW55X_Wifi_BLE_SDK/GD32VW55x_RELEASE_V1.0.2/MSDK/cloud/alicloud/src/services/linkkit/dm\dm_api.c **** }
 347              		.loc 1 234 1 is_stmt 0
 348 006a 2285     		mv	a0,s0
 349 006c 4961     		addi	sp,sp,144
 350              		.cfi_remember_state
 351              		.cfi_def_cfa_offset 0
 352 006e 17030000 		tail	__riscv_restore_2
 352      67000300 
 353              		.cfi_restore 9
 354              		.cfi_restore 8
 355              		.cfi_restore 1
 356              		.cfi_def_cfa_offset -16
 357              	.LVL41:
 358              	.L41:
 359              		.cfi_restore_state
 201:C:/Users/stapi/OneDrive/Desktop/GD32VW553/V1_MQTT_OK/GD32VW55X_Wifi_BLE_SDK/GD32VW55x_RELEASE_V1.0.2/MSDK/cloud/alicloud/src/services/linkkit/dm\dm_api.c ****     if (res < SUCCESS_RETURN) {
 360              		.loc 1 201 5 is_stmt 1
 201:C:/Users/stapi/OneDrive/Desktop/GD32VW553/V1_MQTT_OK/GD32VW55X_Wifi_BLE_SDK/GD32VW55x_RELEASE_V1.0.2/MSDK/cloud/alicloud/src/services/linkkit/dm\dm_api.c ****     if (res < SUCCESS_RETURN) {
 361              		.loc 1 201 11 is_stmt 0
 362 0076 6C00     		addi	a1,sp,12
 363 0078 2685     		mv	a0,s1
 364 007a 97000000 		call	dm_mgr_get_dev_type
 364      E7800000 
 365              	.LVL42:
 366 0082 2A84     		mv	s0,a0
 367              	.LVL43:
 202:C:/Users/stapi/OneDrive/Desktop/GD32VW553/V1_MQTT_OK/GD32VW55X_Wifi_BLE_SDK/GD32VW55x_RELEASE_V1.0.2/MSDK/cloud/alicloud/src/services/linkkit/dm\dm_api.c ****         _dm_api_unlock();
 368              		.loc 1 202 5 is_stmt 1
 202:C:/Users/stapi/OneDrive/Desktop/GD32VW553/V1_MQTT_OK/GD32VW55X_Wifi_BLE_SDK/GD32VW55x_RELEASE_V1.0.2/MSDK/cloud/alicloud/src/services/linkkit/dm\dm_api.c ****         _dm_api_unlock();
 369              		.loc 1 202 8 is_stmt 0
 370 0084 E34F05FC 		blt	a0,zero,.L46
 223:C:/Users/stapi/OneDrive/Desktop/GD32VW553/V1_MQTT_OK/GD32VW55X_Wifi_BLE_SDK/GD32VW55x_RELEASE_V1.0.2/MSDK/cloud/alicloud/src/services/linkkit/dm\dm_api.c ****     if (res < SUCCESS_RETURN) {
 371              		.loc 1 223 5 is_stmt 1
 223:C:/Users/stapi/OneDrive/Desktop/GD32VW553/V1_MQTT_OK/GD32VW55X_Wifi_BLE_SDK/GD32VW55x_RELEASE_V1.0.2/MSDK/cloud/alicloud/src/services/linkkit/dm\dm_api.c ****     if (res < SUCCESS_RETURN) {
 372              		.loc 1 223 11 is_stmt 0
 373 0088 B246     		lw	a3,12(sp)
 374 008a 3010     		addi	a2,sp,40
 375 008c 0C08     		addi	a1,sp,16
 376 008e 2685     		mv	a0,s1
 377 0090 97000000 		call	dm_client_subscribe_all
 377      E7800000 
 378              	.LVL44:
 379 0098 2A84     		mv	s0,a0
 380              	.LVL45:
 224:C:/Users/stapi/OneDrive/Desktop/GD32VW553/V1_MQTT_OK/GD32VW55X_Wifi_BLE_SDK/GD32VW55x_RELEASE_V1.0.2/MSDK/cloud/alicloud/src/services/linkkit/dm\dm_api.c ****         _dm_api_unlock();
 381              		.loc 1 224 5 is_stmt 1
 224:C:/Users/stapi/OneDrive/Desktop/GD32VW553/V1_MQTT_OK/GD32VW55X_Wifi_BLE_SDK/GD32VW55x_RELEASE_V1.0.2/MSDK/cloud/alicloud/src/services/linkkit/dm\dm_api.c ****         _dm_api_unlock();
 382              		.loc 1 224 8 is_stmt 0
 383 009a E34405FC 		blt	a0,zero,.L46
 230:C:/Users/stapi/OneDrive/Desktop/GD32VW553/V1_MQTT_OK/GD32VW55X_Wifi_BLE_SDK/GD32VW55x_RELEASE_V1.0.2/MSDK/cloud/alicloud/src/services/linkkit/dm\dm_api.c ****     dm_log_info("Devid %d Sub Completed", devid);
 384              		.loc 1 230 5 is_stmt 1
 385 009e 97000000 		call	_dm_api_unlock
 385      E7800000 
 386              	.LVL46:
 231:C:/Users/stapi/OneDrive/Desktop/GD32VW553/V1_MQTT_OK/GD32VW55X_Wifi_BLE_SDK/GD32VW55x_RELEASE_V1.0.2/MSDK/cloud/alicloud/src/services/linkkit/dm\dm_api.c **** 
 387              		.loc 1 231 5
 231:C:/Users/stapi/OneDrive/Desktop/GD32VW553/V1_MQTT_OK/GD32VW55X_Wifi_BLE_SDK/GD32VW55x_RELEASE_V1.0.2/MSDK/cloud/alicloud/src/services/linkkit/dm\dm_api.c **** 
 388              		.loc 1 231 5
 389 00a6 37050000 		lui	a0,%hi(.LC0)
 390 00aa 13050500 		addi	a0,a0,%lo(.LC0)
 391 00ae 97000000 		call	HAL_Printf
 391      E7800000 
 392              	.LVL47:
 231:C:/Users/stapi/OneDrive/Desktop/GD32VW553/V1_MQTT_OK/GD32VW55X_Wifi_BLE_SDK/GD32VW55x_RELEASE_V1.0.2/MSDK/cloud/alicloud/src/services/linkkit/dm\dm_api.c **** 
 393              		.loc 1 231 5
 394 00b6 37050000 		lui	a0,%hi(.LC1)
 395 00ba A685     		mv	a1,s1
 396 00bc 13050500 		addi	a0,a0,%lo(.LC1)
 397 00c0 97000000 		call	HAL_Printf
 397      E7800000 
 398              	.LVL48:
 231:C:/Users/stapi/OneDrive/Desktop/GD32VW553/V1_MQTT_OK/GD32VW55X_Wifi_BLE_SDK/GD32VW55x_RELEASE_V1.0.2/MSDK/cloud/alicloud/src/services/linkkit/dm\dm_api.c **** 
 399              		.loc 1 231 5
 400 00c8 37050000 		lui	a0,%hi(.LC2)
 401 00cc 13050500 		addi	a0,a0,%lo(.LC2)
 402 00d0 97000000 		call	HAL_Printf
 402      E7800000 
 403              	.LVL49:
 231:C:/Users/stapi/OneDrive/Desktop/GD32VW553/V1_MQTT_OK/GD32VW55X_Wifi_BLE_SDK/GD32VW55x_RELEASE_V1.0.2/MSDK/cloud/alicloud/src/services/linkkit/dm\dm_api.c **** 
 404              		.loc 1 231 5
 233:C:/Users/stapi/OneDrive/Desktop/GD32VW553/V1_MQTT_OK/GD32VW55X_Wifi_BLE_SDK/GD32VW55x_RELEASE_V1.0.2/MSDK/cloud/alicloud/src/services/linkkit/dm\dm_api.c **** }
 405              		.loc 1 233 5
 233:C:/Users/stapi/OneDrive/Desktop/GD32VW553/V1_MQTT_OK/GD32VW55X_Wifi_BLE_SDK/GD32VW55x_RELEASE_V1.0.2/MSDK/cloud/alicloud/src/services/linkkit/dm\dm_api.c **** }
 406              		.loc 1 233 12 is_stmt 0
 407 00d8 0144     		li	s0,0
 408              	.LVL50:
 409 00da 41BF     		j	.L39
 410              		.cfi_endproc
 411              	.LFE25:
 413              		.section	.text.iotx_dm_close,"ax",@progbits
 414              		.align	1
 415              		.globl	iotx_dm_close
 417              	iotx_dm_close:
 418              	.LFB26:
 235:C:/Users/stapi/OneDrive/Desktop/GD32VW553/V1_MQTT_OK/GD32VW55X_Wifi_BLE_SDK/GD32VW55x_RELEASE_V1.0.2/MSDK/cloud/alicloud/src/services/linkkit/dm\dm_api.c **** 
 236:C:/Users/stapi/OneDrive/Desktop/GD32VW553/V1_MQTT_OK/GD32VW55X_Wifi_BLE_SDK/GD32VW55x_RELEASE_V1.0.2/MSDK/cloud/alicloud/src/services/linkkit/dm\dm_api.c **** int iotx_dm_close(void)
 237:C:/Users/stapi/OneDrive/Desktop/GD32VW553/V1_MQTT_OK/GD32VW55X_Wifi_BLE_SDK/GD32VW55x_RELEASE_V1.0.2/MSDK/cloud/alicloud/src/services/linkkit/dm\dm_api.c **** {
 419              		.loc 1 237 1 is_stmt 1
 420              		.cfi_startproc
 421 0000 17030000 		call	t0,__riscv_save_0
 421      E7020300 
 422              		.cfi_offset 1, -4
 423              		.cfi_def_cfa_offset 16
 238:C:/Users/stapi/OneDrive/Desktop/GD32VW553/V1_MQTT_OK/GD32VW55X_Wifi_BLE_SDK/GD32VW55x_RELEASE_V1.0.2/MSDK/cloud/alicloud/src/services/linkkit/dm\dm_api.c ****     dm_api_ctx_t *ctx = _dm_api_get_ctx();
 424              		.loc 1 238 5
  13:C:/Users/stapi/OneDrive/Desktop/GD32VW553/V1_MQTT_OK/GD32VW55X_Wifi_BLE_SDK/GD32VW55x_RELEASE_V1.0.2/MSDK/cloud/alicloud/src/services/linkkit/dm\dm_api.c **** }
 425              		.loc 1 13 5
 426              	.LVL51:
 239:C:/Users/stapi/OneDrive/Desktop/GD32VW553/V1_MQTT_OK/GD32VW55X_Wifi_BLE_SDK/GD32VW55x_RELEASE_V1.0.2/MSDK/cloud/alicloud/src/services/linkkit/dm\dm_api.c **** 
 240:C:/Users/stapi/OneDrive/Desktop/GD32VW553/V1_MQTT_OK/GD32VW55X_Wifi_BLE_SDK/GD32VW55x_RELEASE_V1.0.2/MSDK/cloud/alicloud/src/services/linkkit/dm\dm_api.c **** #ifdef MQTT_SHADOW
 241:C:/Users/stapi/OneDrive/Desktop/GD32VW553/V1_MQTT_OK/GD32VW55X_Wifi_BLE_SDK/GD32VW55x_RELEASE_V1.0.2/MSDK/cloud/alicloud/src/services/linkkit/dm\dm_api.c **** #ifdef CLOUD_OFFLINE_RESET
 242:C:/Users/stapi/OneDrive/Desktop/GD32VW553/V1_MQTT_OK/GD32VW55X_Wifi_BLE_SDK/GD32VW55x_RELEASE_V1.0.2/MSDK/cloud/alicloud/src/services/linkkit/dm\dm_api.c ****     offline_reset_deinit();
 243:C:/Users/stapi/OneDrive/Desktop/GD32VW553/V1_MQTT_OK/GD32VW55X_Wifi_BLE_SDK/GD32VW55x_RELEASE_V1.0.2/MSDK/cloud/alicloud/src/services/linkkit/dm\dm_api.c **** #endif
 244:C:/Users/stapi/OneDrive/Desktop/GD32VW553/V1_MQTT_OK/GD32VW55X_Wifi_BLE_SDK/GD32VW55x_RELEASE_V1.0.2/MSDK/cloud/alicloud/src/services/linkkit/dm\dm_api.c ****     dm_shadow_deinit();
 245:C:/Users/stapi/OneDrive/Desktop/GD32VW553/V1_MQTT_OK/GD32VW55X_Wifi_BLE_SDK/GD32VW55x_RELEASE_V1.0.2/MSDK/cloud/alicloud/src/services/linkkit/dm\dm_api.c **** #endif
 246:C:/Users/stapi/OneDrive/Desktop/GD32VW553/V1_MQTT_OK/GD32VW55X_Wifi_BLE_SDK/GD32VW55x_RELEASE_V1.0.2/MSDK/cloud/alicloud/src/services/linkkit/dm\dm_api.c **** 
 247:C:/Users/stapi/OneDrive/Desktop/GD32VW553/V1_MQTT_OK/GD32VW55X_Wifi_BLE_SDK/GD32VW55x_RELEASE_V1.0.2/MSDK/cloud/alicloud/src/services/linkkit/dm\dm_api.c ****     dm_client_close();
 427              		.loc 1 247 5
 428 0008 97000000 		call	dm_client_close
 428      E7800000 
 429              	.LVL52:
 248:C:/Users/stapi/OneDrive/Desktop/GD32VW553/V1_MQTT_OK/GD32VW55X_Wifi_BLE_SDK/GD32VW55x_RELEASE_V1.0.2/MSDK/cloud/alicloud/src/services/linkkit/dm\dm_api.c **** #ifdef ALCS_ENABLED
 249:C:/Users/stapi/OneDrive/Desktop/GD32VW553/V1_MQTT_OK/GD32VW55X_Wifi_BLE_SDK/GD32VW55x_RELEASE_V1.0.2/MSDK/cloud/alicloud/src/services/linkkit/dm\dm_api.c ****     dm_server_close();
 250:C:/Users/stapi/OneDrive/Desktop/GD32VW553/V1_MQTT_OK/GD32VW55X_Wifi_BLE_SDK/GD32VW55x_RELEASE_V1.0.2/MSDK/cloud/alicloud/src/services/linkkit/dm\dm_api.c **** #endif
 251:C:/Users/stapi/OneDrive/Desktop/GD32VW553/V1_MQTT_OK/GD32VW55X_Wifi_BLE_SDK/GD32VW55x_RELEASE_V1.0.2/MSDK/cloud/alicloud/src/services/linkkit/dm\dm_api.c ****     dm_mgr_deinit();
 430              		.loc 1 251 5
 431 0010 97000000 		call	dm_mgr_deinit
 431      E7800000 
 432              	.LVL53:
 252:C:/Users/stapi/OneDrive/Desktop/GD32VW553/V1_MQTT_OK/GD32VW55X_Wifi_BLE_SDK/GD32VW55x_RELEASE_V1.0.2/MSDK/cloud/alicloud/src/services/linkkit/dm\dm_api.c ****     dm_ipc_deinit();
 433              		.loc 1 252 5
 434 0018 97000000 		call	dm_ipc_deinit
 434      E7800000 
 435              	.LVL54:
 253:C:/Users/stapi/OneDrive/Desktop/GD32VW553/V1_MQTT_OK/GD32VW55X_Wifi_BLE_SDK/GD32VW55x_RELEASE_V1.0.2/MSDK/cloud/alicloud/src/services/linkkit/dm\dm_api.c ****     dm_msg_deinit();
 436              		.loc 1 253 5
 437 0020 97000000 		call	dm_msg_deinit
 437      E7800000 
 438              	.LVL55:
 254:C:/Users/stapi/OneDrive/Desktop/GD32VW553/V1_MQTT_OK/GD32VW55X_Wifi_BLE_SDK/GD32VW55x_RELEASE_V1.0.2/MSDK/cloud/alicloud/src/services/linkkit/dm\dm_api.c **** #if !defined(DM_MESSAGE_CACHE_DISABLED)
 255:C:/Users/stapi/OneDrive/Desktop/GD32VW553/V1_MQTT_OK/GD32VW55X_Wifi_BLE_SDK/GD32VW55x_RELEASE_V1.0.2/MSDK/cloud/alicloud/src/services/linkkit/dm\dm_api.c ****     dm_msg_cache_deinit();
 439              		.loc 1 255 5
 440 0028 97000000 		call	dm_msg_cache_deinit
 440      E7800000 
 441              	.LVL56:
 256:C:/Users/stapi/OneDrive/Desktop/GD32VW553/V1_MQTT_OK/GD32VW55X_Wifi_BLE_SDK/GD32VW55x_RELEASE_V1.0.2/MSDK/cloud/alicloud/src/services/linkkit/dm\dm_api.c **** #endif
 257:C:/Users/stapi/OneDrive/Desktop/GD32VW553/V1_MQTT_OK/GD32VW55X_Wifi_BLE_SDK/GD32VW55x_RELEASE_V1.0.2/MSDK/cloud/alicloud/src/services/linkkit/dm\dm_api.c **** #if defined(OTA_ENABLED) && !defined(BUILD_AOS)
 258:C:/Users/stapi/OneDrive/Desktop/GD32VW553/V1_MQTT_OK/GD32VW55X_Wifi_BLE_SDK/GD32VW55x_RELEASE_V1.0.2/MSDK/cloud/alicloud/src/services/linkkit/dm\dm_api.c ****     dm_cota_deinit();
 442              		.loc 1 258 5
 443 0030 97000000 		call	dm_cota_deinit
 443      E7800000 
 444              	.LVL57:
 259:C:/Users/stapi/OneDrive/Desktop/GD32VW553/V1_MQTT_OK/GD32VW55X_Wifi_BLE_SDK/GD32VW55x_RELEASE_V1.0.2/MSDK/cloud/alicloud/src/services/linkkit/dm\dm_api.c ****     dm_fota_deinit();
 445              		.loc 1 259 5
 446 0038 97000000 		call	dm_fota_deinit
 446      E7800000 
 447              	.LVL58:
 260:C:/Users/stapi/OneDrive/Desktop/GD32VW553/V1_MQTT_OK/GD32VW55X_Wifi_BLE_SDK/GD32VW55x_RELEASE_V1.0.2/MSDK/cloud/alicloud/src/services/linkkit/dm\dm_api.c ****     dm_ota_deinit();
 448              		.loc 1 260 5
 449 0040 97000000 		call	dm_ota_deinit
 449      E7800000 
 450              	.LVL59:
 261:C:/Users/stapi/OneDrive/Desktop/GD32VW553/V1_MQTT_OK/GD32VW55X_Wifi_BLE_SDK/GD32VW55x_RELEASE_V1.0.2/MSDK/cloud/alicloud/src/services/linkkit/dm\dm_api.c **** #endif
 262:C:/Users/stapi/OneDrive/Desktop/GD32VW553/V1_MQTT_OK/GD32VW55X_Wifi_BLE_SDK/GD32VW55x_RELEASE_V1.0.2/MSDK/cloud/alicloud/src/services/linkkit/dm\dm_api.c **** 
 263:C:/Users/stapi/OneDrive/Desktop/GD32VW553/V1_MQTT_OK/GD32VW55X_Wifi_BLE_SDK/GD32VW55x_RELEASE_V1.0.2/MSDK/cloud/alicloud/src/services/linkkit/dm\dm_api.c ****     if (ctx->mutex) {
 451              		.loc 1 263 5
 452              		.loc 1 263 12 is_stmt 0
 453 0048 B7070000 		lui	a5,%hi(.LANCHOR0)
 454 004c 03A50700 		lw	a0,%lo(.LANCHOR0)(a5)
 455              		.loc 1 263 8
 456 0050 09C5     		beq	a0,zero,.L48
 264:C:/Users/stapi/OneDrive/Desktop/GD32VW553/V1_MQTT_OK/GD32VW55X_Wifi_BLE_SDK/GD32VW55x_RELEASE_V1.0.2/MSDK/cloud/alicloud/src/services/linkkit/dm\dm_api.c ****         HAL_MutexDestroy(ctx->mutex);
 457              		.loc 1 264 9 is_stmt 1
 458 0052 97000000 		call	HAL_MutexDestroy
 458      E7800000 
 459              	.LVL60:
 460              	.L48:
 265:C:/Users/stapi/OneDrive/Desktop/GD32VW553/V1_MQTT_OK/GD32VW55X_Wifi_BLE_SDK/GD32VW55x_RELEASE_V1.0.2/MSDK/cloud/alicloud/src/services/linkkit/dm\dm_api.c ****     }
 266:C:/Users/stapi/OneDrive/Desktop/GD32VW553/V1_MQTT_OK/GD32VW55X_Wifi_BLE_SDK/GD32VW55x_RELEASE_V1.0.2/MSDK/cloud/alicloud/src/services/linkkit/dm\dm_api.c **** #ifdef LOG_REPORT_TO_CLOUD
 267:C:/Users/stapi/OneDrive/Desktop/GD32VW553/V1_MQTT_OK/GD32VW55X_Wifi_BLE_SDK/GD32VW55x_RELEASE_V1.0.2/MSDK/cloud/alicloud/src/services/linkkit/dm\dm_api.c ****     remove_log_poll();
 268:C:/Users/stapi/OneDrive/Desktop/GD32VW553/V1_MQTT_OK/GD32VW55X_Wifi_BLE_SDK/GD32VW55x_RELEASE_V1.0.2/MSDK/cloud/alicloud/src/services/linkkit/dm\dm_api.c **** #endif
 269:C:/Users/stapi/OneDrive/Desktop/GD32VW553/V1_MQTT_OK/GD32VW55X_Wifi_BLE_SDK/GD32VW55x_RELEASE_V1.0.2/MSDK/cloud/alicloud/src/services/linkkit/dm\dm_api.c ****     return SUCCESS_RETURN;
 461              		.loc 1 269 5
 270:C:/Users/stapi/OneDrive/Desktop/GD32VW553/V1_MQTT_OK/GD32VW55X_Wifi_BLE_SDK/GD32VW55x_RELEASE_V1.0.2/MSDK/cloud/alicloud/src/services/linkkit/dm\dm_api.c **** }
 462              		.loc 1 270 1 is_stmt 0
 463 005a 0145     		li	a0,0
 464 005c 17030000 		tail	__riscv_restore_0
 464      67000300 
 465              		.cfi_restore 1
 466              		.cfi_def_cfa_offset 0
 467              		.cfi_endproc
 468              	.LFE26:
 470              		.section	.text.iotx_dm_yield,"ax",@progbits
 471              		.align	1
 472              		.globl	iotx_dm_yield
 474              	iotx_dm_yield:
 475              	.LFB27:
 271:C:/Users/stapi/OneDrive/Desktop/GD32VW553/V1_MQTT_OK/GD32VW55X_Wifi_BLE_SDK/GD32VW55x_RELEASE_V1.0.2/MSDK/cloud/alicloud/src/services/linkkit/dm\dm_api.c **** 
 272:C:/Users/stapi/OneDrive/Desktop/GD32VW553/V1_MQTT_OK/GD32VW55X_Wifi_BLE_SDK/GD32VW55x_RELEASE_V1.0.2/MSDK/cloud/alicloud/src/services/linkkit/dm\dm_api.c **** int iotx_dm_yield(int timeout_ms)
 273:C:/Users/stapi/OneDrive/Desktop/GD32VW553/V1_MQTT_OK/GD32VW55X_Wifi_BLE_SDK/GD32VW55x_RELEASE_V1.0.2/MSDK/cloud/alicloud/src/services/linkkit/dm\dm_api.c **** {
 476              		.loc 1 273 1 is_stmt 1
 477              		.cfi_startproc
 478              	.LVL61:
 274:C:/Users/stapi/OneDrive/Desktop/GD32VW553/V1_MQTT_OK/GD32VW55X_Wifi_BLE_SDK/GD32VW55x_RELEASE_V1.0.2/MSDK/cloud/alicloud/src/services/linkkit/dm\dm_api.c ****     if (timeout_ms <= 0) {
 479              		.loc 1 274 5
 480              		.loc 1 274 8 is_stmt 0
 481 0000 635FA000 		ble	a0,zero,.L55
 273:C:/Users/stapi/OneDrive/Desktop/GD32VW553/V1_MQTT_OK/GD32VW55X_Wifi_BLE_SDK/GD32VW55x_RELEASE_V1.0.2/MSDK/cloud/alicloud/src/services/linkkit/dm\dm_api.c ****     if (timeout_ms <= 0) {
 482              		.loc 1 273 1
 483 0004 17030000 		call	t0,__riscv_save_0
 483      E7020300 
 484              		.cfi_offset 1, -4
 485              		.cfi_def_cfa_offset 16
 275:C:/Users/stapi/OneDrive/Desktop/GD32VW553/V1_MQTT_OK/GD32VW55X_Wifi_BLE_SDK/GD32VW55x_RELEASE_V1.0.2/MSDK/cloud/alicloud/src/services/linkkit/dm\dm_api.c ****         return DM_INVALID_PARAMETER;
 276:C:/Users/stapi/OneDrive/Desktop/GD32VW553/V1_MQTT_OK/GD32VW55X_Wifi_BLE_SDK/GD32VW55x_RELEASE_V1.0.2/MSDK/cloud/alicloud/src/services/linkkit/dm\dm_api.c ****     }
 277:C:/Users/stapi/OneDrive/Desktop/GD32VW553/V1_MQTT_OK/GD32VW55X_Wifi_BLE_SDK/GD32VW55x_RELEASE_V1.0.2/MSDK/cloud/alicloud/src/services/linkkit/dm\dm_api.c **** 
 278:C:/Users/stapi/OneDrive/Desktop/GD32VW553/V1_MQTT_OK/GD32VW55X_Wifi_BLE_SDK/GD32VW55x_RELEASE_V1.0.2/MSDK/cloud/alicloud/src/services/linkkit/dm\dm_api.c ****     dm_client_yield(timeout_ms);
 486              		.loc 1 278 5 is_stmt 1
 487 000c 97000000 		call	dm_client_yield
 487      E7800000 
 488              	.LVL62:
 279:C:/Users/stapi/OneDrive/Desktop/GD32VW553/V1_MQTT_OK/GD32VW55X_Wifi_BLE_SDK/GD32VW55x_RELEASE_V1.0.2/MSDK/cloud/alicloud/src/services/linkkit/dm\dm_api.c **** 
 280:C:/Users/stapi/OneDrive/Desktop/GD32VW553/V1_MQTT_OK/GD32VW55X_Wifi_BLE_SDK/GD32VW55x_RELEASE_V1.0.2/MSDK/cloud/alicloud/src/services/linkkit/dm\dm_api.c **** #ifdef MQTT_SHADOW
 281:C:/Users/stapi/OneDrive/Desktop/GD32VW553/V1_MQTT_OK/GD32VW55X_Wifi_BLE_SDK/GD32VW55x_RELEASE_V1.0.2/MSDK/cloud/alicloud/src/services/linkkit/dm\dm_api.c ****     dm_shadow_yield(timeout_ms);
 282:C:/Users/stapi/OneDrive/Desktop/GD32VW553/V1_MQTT_OK/GD32VW55X_Wifi_BLE_SDK/GD32VW55x_RELEASE_V1.0.2/MSDK/cloud/alicloud/src/services/linkkit/dm\dm_api.c **** #endif
 283:C:/Users/stapi/OneDrive/Desktop/GD32VW553/V1_MQTT_OK/GD32VW55X_Wifi_BLE_SDK/GD32VW55x_RELEASE_V1.0.2/MSDK/cloud/alicloud/src/services/linkkit/dm\dm_api.c **** 
 284:C:/Users/stapi/OneDrive/Desktop/GD32VW553/V1_MQTT_OK/GD32VW55X_Wifi_BLE_SDK/GD32VW55x_RELEASE_V1.0.2/MSDK/cloud/alicloud/src/services/linkkit/dm\dm_api.c **** #ifdef ALCS_ENABLED
 285:C:/Users/stapi/OneDrive/Desktop/GD32VW553/V1_MQTT_OK/GD32VW55X_Wifi_BLE_SDK/GD32VW55x_RELEASE_V1.0.2/MSDK/cloud/alicloud/src/services/linkkit/dm\dm_api.c ****     dm_server_yield();
 286:C:/Users/stapi/OneDrive/Desktop/GD32VW553/V1_MQTT_OK/GD32VW55X_Wifi_BLE_SDK/GD32VW55x_RELEASE_V1.0.2/MSDK/cloud/alicloud/src/services/linkkit/dm\dm_api.c **** #endif
 287:C:/Users/stapi/OneDrive/Desktop/GD32VW553/V1_MQTT_OK/GD32VW55X_Wifi_BLE_SDK/GD32VW55x_RELEASE_V1.0.2/MSDK/cloud/alicloud/src/services/linkkit/dm\dm_api.c **** 
 288:C:/Users/stapi/OneDrive/Desktop/GD32VW553/V1_MQTT_OK/GD32VW55X_Wifi_BLE_SDK/GD32VW55x_RELEASE_V1.0.2/MSDK/cloud/alicloud/src/services/linkkit/dm\dm_api.c ****     return SUCCESS_RETURN;
 489              		.loc 1 288 5
 490              		.loc 1 288 12 is_stmt 0
 491 0014 0145     		li	a0,0
 289:C:/Users/stapi/OneDrive/Desktop/GD32VW553/V1_MQTT_OK/GD32VW55X_Wifi_BLE_SDK/GD32VW55x_RELEASE_V1.0.2/MSDK/cloud/alicloud/src/services/linkkit/dm\dm_api.c **** }
 492              		.loc 1 289 1
 493 0016 17030000 		tail	__riscv_restore_0
 493      67000300 
 494              		.cfi_restore 1
 495              		.cfi_def_cfa_offset 0
 496              	.LVL63:
 497              	.L55:
 275:C:/Users/stapi/OneDrive/Desktop/GD32VW553/V1_MQTT_OK/GD32VW55X_Wifi_BLE_SDK/GD32VW55x_RELEASE_V1.0.2/MSDK/cloud/alicloud/src/services/linkkit/dm\dm_api.c ****         return DM_INVALID_PARAMETER;
 498              		.loc 1 275 16
 499 001e 7955     		li	a0,-2
 500              	.LVL64:
 501              		.loc 1 289 1
 502 0020 8280     		ret
 503              		.cfi_endproc
 504              	.LFE27:
 506              		.section	.text.iotx_dm_dispatch,"ax",@progbits
 507              		.align	1
 508              		.globl	iotx_dm_dispatch
 510              	iotx_dm_dispatch:
 511              	.LFB28:
 290:C:/Users/stapi/OneDrive/Desktop/GD32VW553/V1_MQTT_OK/GD32VW55X_Wifi_BLE_SDK/GD32VW55x_RELEASE_V1.0.2/MSDK/cloud/alicloud/src/services/linkkit/dm\dm_api.c **** 
 291:C:/Users/stapi/OneDrive/Desktop/GD32VW553/V1_MQTT_OK/GD32VW55X_Wifi_BLE_SDK/GD32VW55x_RELEASE_V1.0.2/MSDK/cloud/alicloud/src/services/linkkit/dm\dm_api.c **** void iotx_dm_dispatch(void)
 292:C:/Users/stapi/OneDrive/Desktop/GD32VW553/V1_MQTT_OK/GD32VW55X_Wifi_BLE_SDK/GD32VW55x_RELEASE_V1.0.2/MSDK/cloud/alicloud/src/services/linkkit/dm\dm_api.c **** {
 512              		.loc 1 292 1 is_stmt 1
 513              		.cfi_startproc
 514 0000 17030000 		call	t0,__riscv_save_3
 514      E7020300 
 515              		.cfi_offset 18, -16
 516              		.cfi_offset 9, -12
 517              		.cfi_offset 8, -8
 518              		.cfi_offset 1, -4
 519              		.cfi_def_cfa_offset 16
 293:C:/Users/stapi/OneDrive/Desktop/GD32VW553/V1_MQTT_OK/GD32VW55X_Wifi_BLE_SDK/GD32VW55x_RELEASE_V1.0.2/MSDK/cloud/alicloud/src/services/linkkit/dm\dm_api.c ****     int count = 0;
 520              		.loc 1 293 5
 521              	.LVL65:
 294:C:/Users/stapi/OneDrive/Desktop/GD32VW553/V1_MQTT_OK/GD32VW55X_Wifi_BLE_SDK/GD32VW55x_RELEASE_V1.0.2/MSDK/cloud/alicloud/src/services/linkkit/dm\dm_api.c ****     void *data = NULL;
 522              		.loc 1 294 5
 292:C:/Users/stapi/OneDrive/Desktop/GD32VW553/V1_MQTT_OK/GD32VW55X_Wifi_BLE_SDK/GD32VW55x_RELEASE_V1.0.2/MSDK/cloud/alicloud/src/services/linkkit/dm\dm_api.c ****     int count = 0;
 523              		.loc 1 292 1 is_stmt 0
 524 0008 4111     		addi	sp,sp,-16
 525              		.cfi_def_cfa_offset 32
 526              		.loc 1 294 11
 527 000a 02C6     		sw	zero,12(sp)
 295:C:/Users/stapi/OneDrive/Desktop/GD32VW553/V1_MQTT_OK/GD32VW55X_Wifi_BLE_SDK/GD32VW55x_RELEASE_V1.0.2/MSDK/cloud/alicloud/src/services/linkkit/dm\dm_api.c ****     dm_api_ctx_t *ctx = _dm_api_get_ctx();
 528              		.loc 1 295 5 is_stmt 1
  13:C:/Users/stapi/OneDrive/Desktop/GD32VW553/V1_MQTT_OK/GD32VW55X_Wifi_BLE_SDK/GD32VW55x_RELEASE_V1.0.2/MSDK/cloud/alicloud/src/services/linkkit/dm\dm_api.c **** }
 529              		.loc 1 13 5
 530              	.LVL66:
 296:C:/Users/stapi/OneDrive/Desktop/GD32VW553/V1_MQTT_OK/GD32VW55X_Wifi_BLE_SDK/GD32VW55x_RELEASE_V1.0.2/MSDK/cloud/alicloud/src/services/linkkit/dm\dm_api.c **** 
 297:C:/Users/stapi/OneDrive/Desktop/GD32VW553/V1_MQTT_OK/GD32VW55X_Wifi_BLE_SDK/GD32VW55x_RELEASE_V1.0.2/MSDK/cloud/alicloud/src/services/linkkit/dm\dm_api.c **** #if !defined(DM_MESSAGE_CACHE_DISABLED)
 298:C:/Users/stapi/OneDrive/Desktop/GD32VW553/V1_MQTT_OK/GD32VW55X_Wifi_BLE_SDK/GD32VW55x_RELEASE_V1.0.2/MSDK/cloud/alicloud/src/services/linkkit/dm\dm_api.c ****     dm_msg_cache_tick();
 531              		.loc 1 298 5
 532 000c 97000000 		call	dm_msg_cache_tick
 532      E7800000 
 533              	.LVL67:
 299:C:/Users/stapi/OneDrive/Desktop/GD32VW553/V1_MQTT_OK/GD32VW55X_Wifi_BLE_SDK/GD32VW55x_RELEASE_V1.0.2/MSDK/cloud/alicloud/src/services/linkkit/dm\dm_api.c **** #endif
 300:C:/Users/stapi/OneDrive/Desktop/GD32VW553/V1_MQTT_OK/GD32VW55X_Wifi_BLE_SDK/GD32VW55x_RELEASE_V1.0.2/MSDK/cloud/alicloud/src/services/linkkit/dm\dm_api.c **** #if defined(OTA_ENABLED) && !defined(BUILD_AOS)
 301:C:/Users/stapi/OneDrive/Desktop/GD32VW553/V1_MQTT_OK/GD32VW55X_Wifi_BLE_SDK/GD32VW55x_RELEASE_V1.0.2/MSDK/cloud/alicloud/src/services/linkkit/dm\dm_api.c ****     dm_cota_status_check();
 534              		.loc 1 301 5
 535 0014 97000000 		call	dm_cota_status_check
 535      E7800000 
 536              	.LVL68:
 302:C:/Users/stapi/OneDrive/Desktop/GD32VW553/V1_MQTT_OK/GD32VW55X_Wifi_BLE_SDK/GD32VW55x_RELEASE_V1.0.2/MSDK/cloud/alicloud/src/services/linkkit/dm\dm_api.c ****     dm_fota_status_check();
 537              		.loc 1 302 5
 538              	.LBB15:
 303:C:/Users/stapi/OneDrive/Desktop/GD32VW553/V1_MQTT_OK/GD32VW55X_Wifi_BLE_SDK/GD32VW55x_RELEASE_V1.0.2/MSDK/cloud/alicloud/src/services/linkkit/dm\dm_api.c **** #endif
 304:C:/Users/stapi/OneDrive/Desktop/GD32VW553/V1_MQTT_OK/GD32VW55X_Wifi_BLE_SDK/GD32VW55x_RELEASE_V1.0.2/MSDK/cloud/alicloud/src/services/linkkit/dm\dm_api.c ****     while (CONFIG_DISPATCH_QUEUE_MAXLEN == 0 || count++ < CONFIG_DISPATCH_QUEUE_MAXLEN) {
 305:C:/Users/stapi/OneDrive/Desktop/GD32VW553/V1_MQTT_OK/GD32VW55X_Wifi_BLE_SDK/GD32VW55x_RELEASE_V1.0.2/MSDK/cloud/alicloud/src/services/linkkit/dm\dm_api.c ****         if (dm_ipc_msg_next(&data) == SUCCESS_RETURN) {
 306:C:/Users/stapi/OneDrive/Desktop/GD32VW553/V1_MQTT_OK/GD32VW55X_Wifi_BLE_SDK/GD32VW55x_RELEASE_V1.0.2/MSDK/cloud/alicloud/src/services/linkkit/dm\dm_api.c ****             dm_ipc_msg_t *msg = (dm_ipc_msg_t *)data;
 307:C:/Users/stapi/OneDrive/Desktop/GD32VW553/V1_MQTT_OK/GD32VW55X_Wifi_BLE_SDK/GD32VW55x_RELEASE_V1.0.2/MSDK/cloud/alicloud/src/services/linkkit/dm\dm_api.c **** 
 308:C:/Users/stapi/OneDrive/Desktop/GD32VW553/V1_MQTT_OK/GD32VW55X_Wifi_BLE_SDK/GD32VW55x_RELEASE_V1.0.2/MSDK/cloud/alicloud/src/services/linkkit/dm\dm_api.c ****             if (ctx->event_callback) {
 539              		.loc 1 308 20 is_stmt 0
 540 001c 37090000 		lui	s2,%hi(.LANCHOR0)
 541              	.LBE15:
 302:C:/Users/stapi/OneDrive/Desktop/GD32VW553/V1_MQTT_OK/GD32VW55X_Wifi_BLE_SDK/GD32VW55x_RELEASE_V1.0.2/MSDK/cloud/alicloud/src/services/linkkit/dm\dm_api.c ****     dm_fota_status_check();
 542              		.loc 1 302 5
 543 0020 97000000 		call	dm_fota_status_check
 543      E7800000 
 544              	.LVL69:
 304:C:/Users/stapi/OneDrive/Desktop/GD32VW553/V1_MQTT_OK/GD32VW55X_Wifi_BLE_SDK/GD32VW55x_RELEASE_V1.0.2/MSDK/cloud/alicloud/src/services/linkkit/dm\dm_api.c ****         if (dm_ipc_msg_next(&data) == SUCCESS_RETURN) {
 545              		.loc 1 304 5 is_stmt 1
 304:C:/Users/stapi/OneDrive/Desktop/GD32VW553/V1_MQTT_OK/GD32VW55X_Wifi_BLE_SDK/GD32VW55x_RELEASE_V1.0.2/MSDK/cloud/alicloud/src/services/linkkit/dm\dm_api.c ****         if (dm_ipc_msg_next(&data) == SUCCESS_RETURN) {
 546              		.loc 1 304 11 is_stmt 0
 547 0028 D544     		li	s1,21
 548              	.LBB16:
 549              		.loc 1 308 20
 550 002a 13090900 		addi	s2,s2,%lo(.LANCHOR0)
 551              	.LVL70:
 552              	.L61:
 553              	.LBE16:
 304:C:/Users/stapi/OneDrive/Desktop/GD32VW553/V1_MQTT_OK/GD32VW55X_Wifi_BLE_SDK/GD32VW55x_RELEASE_V1.0.2/MSDK/cloud/alicloud/src/services/linkkit/dm\dm_api.c ****         if (dm_ipc_msg_next(&data) == SUCCESS_RETURN) {
 554              		.loc 1 304 11 is_stmt 1
 555 002e FD14     		addi	s1,s1,-1
 556              	.LVL71:
 557 0030 91E4     		bne	s1,zero,.L65
 558              	.LVL72:
 559              	.L60:
 309:C:/Users/stapi/OneDrive/Desktop/GD32VW553/V1_MQTT_OK/GD32VW55X_Wifi_BLE_SDK/GD32VW55x_RELEASE_V1.0.2/MSDK/cloud/alicloud/src/services/linkkit/dm\dm_api.c ****                 ctx->event_callback(msg->type, msg->data);
 310:C:/Users/stapi/OneDrive/Desktop/GD32VW553/V1_MQTT_OK/GD32VW55X_Wifi_BLE_SDK/GD32VW55x_RELEASE_V1.0.2/MSDK/cloud/alicloud/src/services/linkkit/dm\dm_api.c ****             }
 311:C:/Users/stapi/OneDrive/Desktop/GD32VW553/V1_MQTT_OK/GD32VW55X_Wifi_BLE_SDK/GD32VW55x_RELEASE_V1.0.2/MSDK/cloud/alicloud/src/services/linkkit/dm\dm_api.c **** 
 312:C:/Users/stapi/OneDrive/Desktop/GD32VW553/V1_MQTT_OK/GD32VW55X_Wifi_BLE_SDK/GD32VW55x_RELEASE_V1.0.2/MSDK/cloud/alicloud/src/services/linkkit/dm\dm_api.c ****             if (msg->data) {
 313:C:/Users/stapi/OneDrive/Desktop/GD32VW553/V1_MQTT_OK/GD32VW55X_Wifi_BLE_SDK/GD32VW55x_RELEASE_V1.0.2/MSDK/cloud/alicloud/src/services/linkkit/dm\dm_api.c ****                 DM_free(msg->data);
 314:C:/Users/stapi/OneDrive/Desktop/GD32VW553/V1_MQTT_OK/GD32VW55X_Wifi_BLE_SDK/GD32VW55x_RELEASE_V1.0.2/MSDK/cloud/alicloud/src/services/linkkit/dm\dm_api.c ****             }
 315:C:/Users/stapi/OneDrive/Desktop/GD32VW553/V1_MQTT_OK/GD32VW55X_Wifi_BLE_SDK/GD32VW55x_RELEASE_V1.0.2/MSDK/cloud/alicloud/src/services/linkkit/dm\dm_api.c ****             DM_free(msg);
 316:C:/Users/stapi/OneDrive/Desktop/GD32VW553/V1_MQTT_OK/GD32VW55X_Wifi_BLE_SDK/GD32VW55x_RELEASE_V1.0.2/MSDK/cloud/alicloud/src/services/linkkit/dm\dm_api.c ****             data = NULL;
 317:C:/Users/stapi/OneDrive/Desktop/GD32VW553/V1_MQTT_OK/GD32VW55X_Wifi_BLE_SDK/GD32VW55x_RELEASE_V1.0.2/MSDK/cloud/alicloud/src/services/linkkit/dm\dm_api.c ****         } else {
 318:C:/Users/stapi/OneDrive/Desktop/GD32VW553/V1_MQTT_OK/GD32VW55X_Wifi_BLE_SDK/GD32VW55x_RELEASE_V1.0.2/MSDK/cloud/alicloud/src/services/linkkit/dm\dm_api.c ****             break;
 319:C:/Users/stapi/OneDrive/Desktop/GD32VW553/V1_MQTT_OK/GD32VW55X_Wifi_BLE_SDK/GD32VW55x_RELEASE_V1.0.2/MSDK/cloud/alicloud/src/services/linkkit/dm\dm_api.c ****         }
 320:C:/Users/stapi/OneDrive/Desktop/GD32VW553/V1_MQTT_OK/GD32VW55X_Wifi_BLE_SDK/GD32VW55x_RELEASE_V1.0.2/MSDK/cloud/alicloud/src/services/linkkit/dm\dm_api.c ****     }
 321:C:/Users/stapi/OneDrive/Desktop/GD32VW553/V1_MQTT_OK/GD32VW55X_Wifi_BLE_SDK/GD32VW55x_RELEASE_V1.0.2/MSDK/cloud/alicloud/src/services/linkkit/dm\dm_api.c **** }
 560              		.loc 1 321 1 is_stmt 0
 561 0032 4101     		addi	sp,sp,16
 562              		.cfi_remember_state
 563              		.cfi_def_cfa_offset 0
 564 0034 17030000 		tail	__riscv_restore_3
 564      67000300 
 565              		.cfi_restore 18
 566              		.cfi_restore 9
 567              		.cfi_restore 8
 568              		.cfi_restore 1
 569              		.cfi_def_cfa_offset -16
 570              	.LVL73:
 571              	.L65:
 572              		.cfi_restore_state
 305:C:/Users/stapi/OneDrive/Desktop/GD32VW553/V1_MQTT_OK/GD32VW55X_Wifi_BLE_SDK/GD32VW55x_RELEASE_V1.0.2/MSDK/cloud/alicloud/src/services/linkkit/dm\dm_api.c ****             dm_ipc_msg_t *msg = (dm_ipc_msg_t *)data;
 573              		.loc 1 305 9 is_stmt 1
 305:C:/Users/stapi/OneDrive/Desktop/GD32VW553/V1_MQTT_OK/GD32VW55X_Wifi_BLE_SDK/GD32VW55x_RELEASE_V1.0.2/MSDK/cloud/alicloud/src/services/linkkit/dm\dm_api.c ****             dm_ipc_msg_t *msg = (dm_ipc_msg_t *)data;
 574              		.loc 1 305 13 is_stmt 0
 575 003c 6800     		addi	a0,sp,12
 576 003e 97000000 		call	dm_ipc_msg_next
 576      E7800000 
 577              	.LVL74:
 305:C:/Users/stapi/OneDrive/Desktop/GD32VW553/V1_MQTT_OK/GD32VW55X_Wifi_BLE_SDK/GD32VW55x_RELEASE_V1.0.2/MSDK/cloud/alicloud/src/services/linkkit/dm\dm_api.c ****             dm_ipc_msg_t *msg = (dm_ipc_msg_t *)data;
 578              		.loc 1 305 12
 579 0046 75F5     		bne	a0,zero,.L60
 580              	.LBB17:
 306:C:/Users/stapi/OneDrive/Desktop/GD32VW553/V1_MQTT_OK/GD32VW55X_Wifi_BLE_SDK/GD32VW55x_RELEASE_V1.0.2/MSDK/cloud/alicloud/src/services/linkkit/dm\dm_api.c **** 
 581              		.loc 1 306 13 is_stmt 1
 308:C:/Users/stapi/OneDrive/Desktop/GD32VW553/V1_MQTT_OK/GD32VW55X_Wifi_BLE_SDK/GD32VW55x_RELEASE_V1.0.2/MSDK/cloud/alicloud/src/services/linkkit/dm\dm_api.c ****                 ctx->event_callback(msg->type, msg->data);
 582              		.loc 1 308 20 is_stmt 0
 583 0048 8327C900 		lw	a5,12(s2)
 306:C:/Users/stapi/OneDrive/Desktop/GD32VW553/V1_MQTT_OK/GD32VW55X_Wifi_BLE_SDK/GD32VW55x_RELEASE_V1.0.2/MSDK/cloud/alicloud/src/services/linkkit/dm\dm_api.c **** 
 584              		.loc 1 306 27
 585 004c 3244     		lw	s0,12(sp)
 586              	.LVL75:
 308:C:/Users/stapi/OneDrive/Desktop/GD32VW553/V1_MQTT_OK/GD32VW55X_Wifi_BLE_SDK/GD32VW55x_RELEASE_V1.0.2/MSDK/cloud/alicloud/src/services/linkkit/dm\dm_api.c ****                 ctx->event_callback(msg->type, msg->data);
 587              		.loc 1 308 13 is_stmt 1
 308:C:/Users/stapi/OneDrive/Desktop/GD32VW553/V1_MQTT_OK/GD32VW55X_Wifi_BLE_SDK/GD32VW55x_RELEASE_V1.0.2/MSDK/cloud/alicloud/src/services/linkkit/dm\dm_api.c ****                 ctx->event_callback(msg->type, msg->data);
 588              		.loc 1 308 16 is_stmt 0
 589 004e 81C7     		beq	a5,zero,.L63
 309:C:/Users/stapi/OneDrive/Desktop/GD32VW553/V1_MQTT_OK/GD32VW55X_Wifi_BLE_SDK/GD32VW55x_RELEASE_V1.0.2/MSDK/cloud/alicloud/src/services/linkkit/dm\dm_api.c ****             }
 590              		.loc 1 309 17 is_stmt 1
 591 0050 4C40     		lw	a1,4(s0)
 592 0052 0840     		lw	a0,0(s0)
 593 0054 8297     		jalr	a5
 594              	.LVL76:
 595              	.L63:
 312:C:/Users/stapi/OneDrive/Desktop/GD32VW553/V1_MQTT_OK/GD32VW55X_Wifi_BLE_SDK/GD32VW55x_RELEASE_V1.0.2/MSDK/cloud/alicloud/src/services/linkkit/dm\dm_api.c ****                 DM_free(msg->data);
 596              		.loc 1 312 13
 312:C:/Users/stapi/OneDrive/Desktop/GD32VW553/V1_MQTT_OK/GD32VW55X_Wifi_BLE_SDK/GD32VW55x_RELEASE_V1.0.2/MSDK/cloud/alicloud/src/services/linkkit/dm\dm_api.c ****                 DM_free(msg->data);
 597              		.loc 1 312 20 is_stmt 0
 598 0056 4840     		lw	a0,4(s0)
 312:C:/Users/stapi/OneDrive/Desktop/GD32VW553/V1_MQTT_OK/GD32VW55X_Wifi_BLE_SDK/GD32VW55x_RELEASE_V1.0.2/MSDK/cloud/alicloud/src/services/linkkit/dm\dm_api.c ****                 DM_free(msg->data);
 599              		.loc 1 312 16
 600 0058 19C5     		beq	a0,zero,.L64
 313:C:/Users/stapi/OneDrive/Desktop/GD32VW553/V1_MQTT_OK/GD32VW55X_Wifi_BLE_SDK/GD32VW55x_RELEASE_V1.0.2/MSDK/cloud/alicloud/src/services/linkkit/dm\dm_api.c ****             }
 601              		.loc 1 313 17 is_stmt 1
 602 005a 97000000 		call	LITE_free_internal
 602      E7800000 
 603              	.LVL77:
 313:C:/Users/stapi/OneDrive/Desktop/GD32VW553/V1_MQTT_OK/GD32VW55X_Wifi_BLE_SDK/GD32VW55x_RELEASE_V1.0.2/MSDK/cloud/alicloud/src/services/linkkit/dm\dm_api.c ****             }
 604              		.loc 1 313 17
 605 0062 23220400 		sw	zero,4(s0)
 606              	.L64:
 313:C:/Users/stapi/OneDrive/Desktop/GD32VW553/V1_MQTT_OK/GD32VW55X_Wifi_BLE_SDK/GD32VW55x_RELEASE_V1.0.2/MSDK/cloud/alicloud/src/services/linkkit/dm\dm_api.c ****             }
 607              		.loc 1 313 35 discriminator 1
 315:C:/Users/stapi/OneDrive/Desktop/GD32VW553/V1_MQTT_OK/GD32VW55X_Wifi_BLE_SDK/GD32VW55x_RELEASE_V1.0.2/MSDK/cloud/alicloud/src/services/linkkit/dm\dm_api.c ****             data = NULL;
 608              		.loc 1 315 13 discriminator 1
 609 0066 2285     		mv	a0,s0
 610 0068 97000000 		call	LITE_free_internal
 610      E7800000 
 611              	.LVL78:
 315:C:/Users/stapi/OneDrive/Desktop/GD32VW553/V1_MQTT_OK/GD32VW55X_Wifi_BLE_SDK/GD32VW55x_RELEASE_V1.0.2/MSDK/cloud/alicloud/src/services/linkkit/dm\dm_api.c ****             data = NULL;
 612              		.loc 1 315 13 discriminator 1
 315:C:/Users/stapi/OneDrive/Desktop/GD32VW553/V1_MQTT_OK/GD32VW55X_Wifi_BLE_SDK/GD32VW55x_RELEASE_V1.0.2/MSDK/cloud/alicloud/src/services/linkkit/dm\dm_api.c ****             data = NULL;
 613              		.loc 1 315 25 discriminator 1
 316:C:/Users/stapi/OneDrive/Desktop/GD32VW553/V1_MQTT_OK/GD32VW55X_Wifi_BLE_SDK/GD32VW55x_RELEASE_V1.0.2/MSDK/cloud/alicloud/src/services/linkkit/dm\dm_api.c ****         } else {
 614              		.loc 1 316 13 discriminator 1
 316:C:/Users/stapi/OneDrive/Desktop/GD32VW553/V1_MQTT_OK/GD32VW55X_Wifi_BLE_SDK/GD32VW55x_RELEASE_V1.0.2/MSDK/cloud/alicloud/src/services/linkkit/dm\dm_api.c ****         } else {
 615              		.loc 1 316 18 is_stmt 0 discriminator 1
 616 0070 02C6     		sw	zero,12(sp)
 617 0072 75BF     		j	.L61
 618              	.LBE17:
 619              		.cfi_endproc
 620              	.LFE28:
 622              		.section	.text.iotx_dm_post_rawdata,"ax",@progbits
 623              		.align	1
 624              		.globl	iotx_dm_post_rawdata
 626              	iotx_dm_post_rawdata:
 627              	.LFB29:
 322:C:/Users/stapi/OneDrive/Desktop/GD32VW553/V1_MQTT_OK/GD32VW55X_Wifi_BLE_SDK/GD32VW55x_RELEASE_V1.0.2/MSDK/cloud/alicloud/src/services/linkkit/dm\dm_api.c **** 
 323:C:/Users/stapi/OneDrive/Desktop/GD32VW553/V1_MQTT_OK/GD32VW55X_Wifi_BLE_SDK/GD32VW55x_RELEASE_V1.0.2/MSDK/cloud/alicloud/src/services/linkkit/dm\dm_api.c **** int iotx_dm_post_rawdata(_IN_ int devid, _IN_ char *payload, _IN_ int payload_len)
 324:C:/Users/stapi/OneDrive/Desktop/GD32VW553/V1_MQTT_OK/GD32VW55X_Wifi_BLE_SDK/GD32VW55x_RELEASE_V1.0.2/MSDK/cloud/alicloud/src/services/linkkit/dm\dm_api.c **** {
 628              		.loc 1 324 1 is_stmt 1
 629              		.cfi_startproc
 630              	.LVL79:
 631 0000 17030000 		call	t0,__riscv_save_1
 631      E7020300 
 632              		.cfi_offset 8, -8
 633              		.cfi_offset 1, -4
 634              		.cfi_def_cfa_offset 16
 325:C:/Users/stapi/OneDrive/Desktop/GD32VW553/V1_MQTT_OK/GD32VW55X_Wifi_BLE_SDK/GD32VW55x_RELEASE_V1.0.2/MSDK/cloud/alicloud/src/services/linkkit/dm\dm_api.c ****     int res = 0;
 635              		.loc 1 325 5
 636              	.LVL80:
 326:C:/Users/stapi/OneDrive/Desktop/GD32VW553/V1_MQTT_OK/GD32VW55X_Wifi_BLE_SDK/GD32VW55x_RELEASE_V1.0.2/MSDK/cloud/alicloud/src/services/linkkit/dm\dm_api.c **** 
 327:C:/Users/stapi/OneDrive/Desktop/GD32VW553/V1_MQTT_OK/GD32VW55X_Wifi_BLE_SDK/GD32VW55x_RELEASE_V1.0.2/MSDK/cloud/alicloud/src/services/linkkit/dm\dm_api.c ****     if (devid < 0 || payload == NULL || payload_len <= 0) {
 637              		.loc 1 327 5
 324:C:/Users/stapi/OneDrive/Desktop/GD32VW553/V1_MQTT_OK/GD32VW55X_Wifi_BLE_SDK/GD32VW55x_RELEASE_V1.0.2/MSDK/cloud/alicloud/src/services/linkkit/dm\dm_api.c ****     int res = 0;
 638              		.loc 1 324 1 is_stmt 0
 639 0008 4111     		addi	sp,sp,-16
 640              		.cfi_def_cfa_offset 32
 641              		.loc 1 327 8
 642 000a 2AC6     		sw	a0,12(sp)
 328:C:/Users/stapi/OneDrive/Desktop/GD32VW553/V1_MQTT_OK/GD32VW55X_Wifi_BLE_SDK/GD32VW55x_RELEASE_V1.0.2/MSDK/cloud/alicloud/src/services/linkkit/dm\dm_api.c ****         return DM_INVALID_PARAMETER;
 643              		.loc 1 328 16
 644 000c 7954     		li	s0,-2
 327:C:/Users/stapi/OneDrive/Desktop/GD32VW553/V1_MQTT_OK/GD32VW55X_Wifi_BLE_SDK/GD32VW55x_RELEASE_V1.0.2/MSDK/cloud/alicloud/src/services/linkkit/dm\dm_api.c ****         return DM_INVALID_PARAMETER;
 645              		.loc 1 327 8
 646 000e 63490502 		blt	a0,zero,.L74
 327:C:/Users/stapi/OneDrive/Desktop/GD32VW553/V1_MQTT_OK/GD32VW55X_Wifi_BLE_SDK/GD32VW55x_RELEASE_V1.0.2/MSDK/cloud/alicloud/src/services/linkkit/dm\dm_api.c ****         return DM_INVALID_PARAMETER;
 647              		.loc 1 327 19 discriminator 1
 648 0012 2EC4     		sw	a1,8(sp)
 649 0014 95C5     		beq	a1,zero,.L74
 327:C:/Users/stapi/OneDrive/Desktop/GD32VW553/V1_MQTT_OK/GD32VW55X_Wifi_BLE_SDK/GD32VW55x_RELEASE_V1.0.2/MSDK/cloud/alicloud/src/services/linkkit/dm\dm_api.c ****         return DM_INVALID_PARAMETER;
 650              		.loc 1 327 38 discriminator 2
 651 0016 32C2     		sw	a2,4(sp)
 652 0018 6354C002 		ble	a2,zero,.L74
 329:C:/Users/stapi/OneDrive/Desktop/GD32VW553/V1_MQTT_OK/GD32VW55X_Wifi_BLE_SDK/GD32VW55x_RELEASE_V1.0.2/MSDK/cloud/alicloud/src/services/linkkit/dm\dm_api.c ****     }
 330:C:/Users/stapi/OneDrive/Desktop/GD32VW553/V1_MQTT_OK/GD32VW55X_Wifi_BLE_SDK/GD32VW55x_RELEASE_V1.0.2/MSDK/cloud/alicloud/src/services/linkkit/dm\dm_api.c **** 
 331:C:/Users/stapi/OneDrive/Desktop/GD32VW553/V1_MQTT_OK/GD32VW55X_Wifi_BLE_SDK/GD32VW55x_RELEASE_V1.0.2/MSDK/cloud/alicloud/src/services/linkkit/dm\dm_api.c ****     _dm_api_lock();
 653              		.loc 1 331 5 is_stmt 1
 654 001c 97000000 		call	_dm_api_lock
 654      E7800000 
 655              	.LVL81:
 332:C:/Users/stapi/OneDrive/Desktop/GD32VW553/V1_MQTT_OK/GD32VW55X_Wifi_BLE_SDK/GD32VW55x_RELEASE_V1.0.2/MSDK/cloud/alicloud/src/services/linkkit/dm\dm_api.c **** 
 333:C:/Users/stapi/OneDrive/Desktop/GD32VW553/V1_MQTT_OK/GD32VW55X_Wifi_BLE_SDK/GD32VW55x_RELEASE_V1.0.2/MSDK/cloud/alicloud/src/services/linkkit/dm\dm_api.c ****     res = dm_mgr_upstream_thing_model_up_raw(devid, payload, payload_len);
 656              		.loc 1 333 5
 657              		.loc 1 333 11 is_stmt 0
 658 0024 1246     		lw	a2,4(sp)
 659 0026 A245     		lw	a1,8(sp)
 660 0028 3245     		lw	a0,12(sp)
 661 002a 97000000 		call	dm_mgr_upstream_thing_model_up_raw
 661      E7800000 
 662              	.LVL82:
 663 0032 2A84     		mv	s0,a0
 664              	.LVL83:
 334:C:/Users/stapi/OneDrive/Desktop/GD32VW553/V1_MQTT_OK/GD32VW55X_Wifi_BLE_SDK/GD32VW55x_RELEASE_V1.0.2/MSDK/cloud/alicloud/src/services/linkkit/dm\dm_api.c ****     if (res != SUCCESS_RETURN) {
 665              		.loc 1 334 5 is_stmt 1
 666              		.loc 1 334 8 is_stmt 0
 667 0034 01CD     		beq	a0,zero,.L76
 335:C:/Users/stapi/OneDrive/Desktop/GD32VW553/V1_MQTT_OK/GD32VW55X_Wifi_BLE_SDK/GD32VW55x_RELEASE_V1.0.2/MSDK/cloud/alicloud/src/services/linkkit/dm\dm_api.c ****         _dm_api_unlock();
 668              		.loc 1 335 9 is_stmt 1
 669 0036 97000000 		call	_dm_api_unlock
 669      E7800000 
 670              	.LVL84:
 336:C:/Users/stapi/OneDrive/Desktop/GD32VW553/V1_MQTT_OK/GD32VW55X_Wifi_BLE_SDK/GD32VW55x_RELEASE_V1.0.2/MSDK/cloud/alicloud/src/services/linkkit/dm\dm_api.c ****         return FAIL_RETURN;
 671              		.loc 1 336 9
 672              		.loc 1 336 16 is_stmt 0
 673 003e 7D54     		li	s0,-1
 674              	.LVL85:
 675              	.L74:
 337:C:/Users/stapi/OneDrive/Desktop/GD32VW553/V1_MQTT_OK/GD32VW55X_Wifi_BLE_SDK/GD32VW55x_RELEASE_V1.0.2/MSDK/cloud/alicloud/src/services/linkkit/dm\dm_api.c ****     }
 338:C:/Users/stapi/OneDrive/Desktop/GD32VW553/V1_MQTT_OK/GD32VW55X_Wifi_BLE_SDK/GD32VW55x_RELEASE_V1.0.2/MSDK/cloud/alicloud/src/services/linkkit/dm\dm_api.c **** 
 339:C:/Users/stapi/OneDrive/Desktop/GD32VW553/V1_MQTT_OK/GD32VW55X_Wifi_BLE_SDK/GD32VW55x_RELEASE_V1.0.2/MSDK/cloud/alicloud/src/services/linkkit/dm\dm_api.c ****     _dm_api_unlock();
 340:C:/Users/stapi/OneDrive/Desktop/GD32VW553/V1_MQTT_OK/GD32VW55X_Wifi_BLE_SDK/GD32VW55x_RELEASE_V1.0.2/MSDK/cloud/alicloud/src/services/linkkit/dm\dm_api.c ****     return SUCCESS_RETURN;
 341:C:/Users/stapi/OneDrive/Desktop/GD32VW553/V1_MQTT_OK/GD32VW55X_Wifi_BLE_SDK/GD32VW55x_RELEASE_V1.0.2/MSDK/cloud/alicloud/src/services/linkkit/dm\dm_api.c **** }
 676              		.loc 1 341 1
 677 0040 2285     		mv	a0,s0
 678 0042 4101     		addi	sp,sp,16
 679              		.cfi_remember_state
 680              		.cfi_def_cfa_offset 0
 681              	.LVL86:
 682 0044 17030000 		tail	__riscv_restore_1
 682      67000300 
 683              		.cfi_restore 8
 684              		.cfi_restore 1
 685              		.cfi_def_cfa_offset -16
 686              	.LVL87:
 687              	.L76:
 688              		.cfi_restore_state
 339:C:/Users/stapi/OneDrive/Desktop/GD32VW553/V1_MQTT_OK/GD32VW55X_Wifi_BLE_SDK/GD32VW55x_RELEASE_V1.0.2/MSDK/cloud/alicloud/src/services/linkkit/dm\dm_api.c ****     return SUCCESS_RETURN;
 689              		.loc 1 339 5 is_stmt 1
 690 004c 97000000 		call	_dm_api_unlock
 690      E7800000 
 691              	.LVL88:
 340:C:/Users/stapi/OneDrive/Desktop/GD32VW553/V1_MQTT_OK/GD32VW55X_Wifi_BLE_SDK/GD32VW55x_RELEASE_V1.0.2/MSDK/cloud/alicloud/src/services/linkkit/dm\dm_api.c **** }
 692              		.loc 1 340 5
 340:C:/Users/stapi/OneDrive/Desktop/GD32VW553/V1_MQTT_OK/GD32VW55X_Wifi_BLE_SDK/GD32VW55x_RELEASE_V1.0.2/MSDK/cloud/alicloud/src/services/linkkit/dm\dm_api.c **** }
 693              		.loc 1 340 12 is_stmt 0
 694 0054 F5B7     		j	.L74
 695              		.cfi_endproc
 696              	.LFE29:
 698              		.section	.text.iotx_dm_set_opt,"ax",@progbits
 699              		.align	1
 700              		.globl	iotx_dm_set_opt
 702              	iotx_dm_set_opt:
 703              	.LFB30:
 342:C:/Users/stapi/OneDrive/Desktop/GD32VW553/V1_MQTT_OK/GD32VW55X_Wifi_BLE_SDK/GD32VW55x_RELEASE_V1.0.2/MSDK/cloud/alicloud/src/services/linkkit/dm\dm_api.c **** 
 343:C:/Users/stapi/OneDrive/Desktop/GD32VW553/V1_MQTT_OK/GD32VW55X_Wifi_BLE_SDK/GD32VW55x_RELEASE_V1.0.2/MSDK/cloud/alicloud/src/services/linkkit/dm\dm_api.c **** #if !defined(DEVICE_MODEL_RAWDATA_SOLO)
 344:C:/Users/stapi/OneDrive/Desktop/GD32VW553/V1_MQTT_OK/GD32VW55X_Wifi_BLE_SDK/GD32VW55x_RELEASE_V1.0.2/MSDK/cloud/alicloud/src/services/linkkit/dm\dm_api.c **** int iotx_dm_set_opt(int opt, void *data)
 345:C:/Users/stapi/OneDrive/Desktop/GD32VW553/V1_MQTT_OK/GD32VW55X_Wifi_BLE_SDK/GD32VW55x_RELEASE_V1.0.2/MSDK/cloud/alicloud/src/services/linkkit/dm\dm_api.c **** {
 704              		.loc 1 345 1 is_stmt 1
 705              		.cfi_startproc
 706              	.LVL89:
 346:C:/Users/stapi/OneDrive/Desktop/GD32VW553/V1_MQTT_OK/GD32VW55X_Wifi_BLE_SDK/GD32VW55x_RELEASE_V1.0.2/MSDK/cloud/alicloud/src/services/linkkit/dm\dm_api.c ****     return dm_opt_set(opt, data);
 707              		.loc 1 346 5
 708              		.loc 1 346 12 is_stmt 0
 709 0000 17030000 		tail	dm_opt_set
 709      67000300 
 710              	.LVL90:
 711              		.cfi_endproc
 712              	.LFE30:
 714              		.section	.text.iotx_dm_get_opt,"ax",@progbits
 715              		.align	1
 716              		.globl	iotx_dm_get_opt
 718              	iotx_dm_get_opt:
 719              	.LFB31:
 347:C:/Users/stapi/OneDrive/Desktop/GD32VW553/V1_MQTT_OK/GD32VW55X_Wifi_BLE_SDK/GD32VW55x_RELEASE_V1.0.2/MSDK/cloud/alicloud/src/services/linkkit/dm\dm_api.c **** }
 348:C:/Users/stapi/OneDrive/Desktop/GD32VW553/V1_MQTT_OK/GD32VW55X_Wifi_BLE_SDK/GD32VW55x_RELEASE_V1.0.2/MSDK/cloud/alicloud/src/services/linkkit/dm\dm_api.c **** 
 349:C:/Users/stapi/OneDrive/Desktop/GD32VW553/V1_MQTT_OK/GD32VW55X_Wifi_BLE_SDK/GD32VW55x_RELEASE_V1.0.2/MSDK/cloud/alicloud/src/services/linkkit/dm\dm_api.c **** int iotx_dm_get_opt(int opt, void *data)
 350:C:/Users/stapi/OneDrive/Desktop/GD32VW553/V1_MQTT_OK/GD32VW55X_Wifi_BLE_SDK/GD32VW55x_RELEASE_V1.0.2/MSDK/cloud/alicloud/src/services/linkkit/dm\dm_api.c **** {
 720              		.loc 1 350 1 is_stmt 1
 721              		.cfi_startproc
 722              	.LVL91:
 351:C:/Users/stapi/OneDrive/Desktop/GD32VW553/V1_MQTT_OK/GD32VW55X_Wifi_BLE_SDK/GD32VW55x_RELEASE_V1.0.2/MSDK/cloud/alicloud/src/services/linkkit/dm\dm_api.c ****     if (data == NULL) {
 723              		.loc 1 351 5
 724              		.loc 1 351 8 is_stmt 0
 725 0000 89C5     		beq	a1,zero,.L85
 352:C:/Users/stapi/OneDrive/Desktop/GD32VW553/V1_MQTT_OK/GD32VW55X_Wifi_BLE_SDK/GD32VW55x_RELEASE_V1.0.2/MSDK/cloud/alicloud/src/services/linkkit/dm\dm_api.c ****         return FAIL_RETURN;
 353:C:/Users/stapi/OneDrive/Desktop/GD32VW553/V1_MQTT_OK/GD32VW55X_Wifi_BLE_SDK/GD32VW55x_RELEASE_V1.0.2/MSDK/cloud/alicloud/src/services/linkkit/dm\dm_api.c ****     }
 354:C:/Users/stapi/OneDrive/Desktop/GD32VW553/V1_MQTT_OK/GD32VW55X_Wifi_BLE_SDK/GD32VW55x_RELEASE_V1.0.2/MSDK/cloud/alicloud/src/services/linkkit/dm\dm_api.c **** 
 355:C:/Users/stapi/OneDrive/Desktop/GD32VW553/V1_MQTT_OK/GD32VW55X_Wifi_BLE_SDK/GD32VW55x_RELEASE_V1.0.2/MSDK/cloud/alicloud/src/services/linkkit/dm\dm_api.c ****     return dm_opt_get(opt, data);
 726              		.loc 1 355 5 is_stmt 1
 727              		.loc 1 355 12 is_stmt 0
 728 0002 17030000 		tail	dm_opt_get
 728      67000300 
 729              	.LVL92:
 730              	.L85:
 352:C:/Users/stapi/OneDrive/Desktop/GD32VW553/V1_MQTT_OK/GD32VW55X_Wifi_BLE_SDK/GD32VW55x_RELEASE_V1.0.2/MSDK/cloud/alicloud/src/services/linkkit/dm\dm_api.c ****         return FAIL_RETURN;
 731              		.loc 1 352 16
 732 000a 7D55     		li	a0,-1
 733              	.LVL93:
 356:C:/Users/stapi/OneDrive/Desktop/GD32VW553/V1_MQTT_OK/GD32VW55X_Wifi_BLE_SDK/GD32VW55x_RELEASE_V1.0.2/MSDK/cloud/alicloud/src/services/linkkit/dm\dm_api.c **** }
 734              		.loc 1 356 1
 735 000c 8280     		ret
 736              		.cfi_endproc
 737              	.LFE31:
 739              		.section	.text.iotx_dm_post_property_to,"ax",@progbits
 740              		.align	1
 741              		.globl	iotx_dm_post_property_to
 743              	iotx_dm_post_property_to:
 744              	.LFB32:
 357:C:/Users/stapi/OneDrive/Desktop/GD32VW553/V1_MQTT_OK/GD32VW55X_Wifi_BLE_SDK/GD32VW55x_RELEASE_V1.0.2/MSDK/cloud/alicloud/src/services/linkkit/dm\dm_api.c **** 
 358:C:/Users/stapi/OneDrive/Desktop/GD32VW553/V1_MQTT_OK/GD32VW55X_Wifi_BLE_SDK/GD32VW55x_RELEASE_V1.0.2/MSDK/cloud/alicloud/src/services/linkkit/dm\dm_api.c **** int iotx_dm_post_property_to(_IN_ int devid, _IN_ char *payload, _IN_ int payload_len, _IN_ int sen
 359:C:/Users/stapi/OneDrive/Desktop/GD32VW553/V1_MQTT_OK/GD32VW55X_Wifi_BLE_SDK/GD32VW55x_RELEASE_V1.0.2/MSDK/cloud/alicloud/src/services/linkkit/dm\dm_api.c **** {
 745              		.loc 1 359 1 is_stmt 1
 746              		.cfi_startproc
 747              	.LVL94:
 748 0000 17030000 		call	t0,__riscv_save_0
 748      E7020300 
 749              		.cfi_offset 1, -4
 750              		.cfi_def_cfa_offset 16
 360:C:/Users/stapi/OneDrive/Desktop/GD32VW553/V1_MQTT_OK/GD32VW55X_Wifi_BLE_SDK/GD32VW55x_RELEASE_V1.0.2/MSDK/cloud/alicloud/src/services/linkkit/dm\dm_api.c ****     int res = 0;
 751              		.loc 1 360 5
 752              	.LVL95:
 361:C:/Users/stapi/OneDrive/Desktop/GD32VW553/V1_MQTT_OK/GD32VW55X_Wifi_BLE_SDK/GD32VW55x_RELEASE_V1.0.2/MSDK/cloud/alicloud/src/services/linkkit/dm\dm_api.c **** 
 362:C:/Users/stapi/OneDrive/Desktop/GD32VW553/V1_MQTT_OK/GD32VW55X_Wifi_BLE_SDK/GD32VW55x_RELEASE_V1.0.2/MSDK/cloud/alicloud/src/services/linkkit/dm\dm_api.c ****     _dm_api_lock();
 753              		.loc 1 362 5
 359:C:/Users/stapi/OneDrive/Desktop/GD32VW553/V1_MQTT_OK/GD32VW55X_Wifi_BLE_SDK/GD32VW55x_RELEASE_V1.0.2/MSDK/cloud/alicloud/src/services/linkkit/dm\dm_api.c ****     int res = 0;
 754              		.loc 1 359 1 is_stmt 0
 755 0008 4111     		addi	sp,sp,-16
 756              		.cfi_def_cfa_offset 32
 359:C:/Users/stapi/OneDrive/Desktop/GD32VW553/V1_MQTT_OK/GD32VW55X_Wifi_BLE_SDK/GD32VW55x_RELEASE_V1.0.2/MSDK/cloud/alicloud/src/services/linkkit/dm\dm_api.c ****     int res = 0;
 757              		.loc 1 359 1
 758 000a 2AC6     		sw	a0,12(sp)
 759 000c 2EC4     		sw	a1,8(sp)
 760 000e 32C2     		sw	a2,4(sp)
 761 0010 36C0     		sw	a3,0(sp)
 762              		.loc 1 362 5
 763 0012 97000000 		call	_dm_api_lock
 763      E7800000 
 764              	.LVL96:
 363:C:/Users/stapi/OneDrive/Desktop/GD32VW553/V1_MQTT_OK/GD32VW55X_Wifi_BLE_SDK/GD32VW55x_RELEASE_V1.0.2/MSDK/cloud/alicloud/src/services/linkkit/dm\dm_api.c **** 
 364:C:/Users/stapi/OneDrive/Desktop/GD32VW553/V1_MQTT_OK/GD32VW55X_Wifi_BLE_SDK/GD32VW55x_RELEASE_V1.0.2/MSDK/cloud/alicloud/src/services/linkkit/dm\dm_api.c ****     res = dm_mgr_upstream_thing_property_post_to(devid, payload, payload_len, sendto);
 765              		.loc 1 364 5 is_stmt 1
 766              		.loc 1 364 11 is_stmt 0
 767 001a 8246     		lw	a3,0(sp)
 768 001c 1246     		lw	a2,4(sp)
 769 001e A245     		lw	a1,8(sp)
 770 0020 3245     		lw	a0,12(sp)
 771 0022 97000000 		call	dm_mgr_upstream_thing_property_post_to
 771      E7800000 
 772              	.LVL97:
 365:C:/Users/stapi/OneDrive/Desktop/GD32VW553/V1_MQTT_OK/GD32VW55X_Wifi_BLE_SDK/GD32VW55x_RELEASE_V1.0.2/MSDK/cloud/alicloud/src/services/linkkit/dm\dm_api.c ****     if (res < SUCCESS_RETURN) {
 773              		.loc 1 365 5 is_stmt 1
 774              		.loc 1 365 8 is_stmt 0
 775 002a 635C0500 		bge	a0,zero,.L91
 366:C:/Users/stapi/OneDrive/Desktop/GD32VW553/V1_MQTT_OK/GD32VW55X_Wifi_BLE_SDK/GD32VW55x_RELEASE_V1.0.2/MSDK/cloud/alicloud/src/services/linkkit/dm\dm_api.c ****         _dm_api_unlock();
 776              		.loc 1 366 9 is_stmt 1
 777 002e 97000000 		call	_dm_api_unlock
 777      E7800000 
 778              	.LVL98:
 367:C:/Users/stapi/OneDrive/Desktop/GD32VW553/V1_MQTT_OK/GD32VW55X_Wifi_BLE_SDK/GD32VW55x_RELEASE_V1.0.2/MSDK/cloud/alicloud/src/services/linkkit/dm\dm_api.c ****         return FAIL_RETURN;
 779              		.loc 1 367 9
 780              		.loc 1 367 16 is_stmt 0
 781 0036 7D55     		li	a0,-1
 782              	.LVL99:
 783              	.L90:
 368:C:/Users/stapi/OneDrive/Desktop/GD32VW553/V1_MQTT_OK/GD32VW55X_Wifi_BLE_SDK/GD32VW55x_RELEASE_V1.0.2/MSDK/cloud/alicloud/src/services/linkkit/dm\dm_api.c ****     }
 369:C:/Users/stapi/OneDrive/Desktop/GD32VW553/V1_MQTT_OK/GD32VW55X_Wifi_BLE_SDK/GD32VW55x_RELEASE_V1.0.2/MSDK/cloud/alicloud/src/services/linkkit/dm\dm_api.c **** 
 370:C:/Users/stapi/OneDrive/Desktop/GD32VW553/V1_MQTT_OK/GD32VW55X_Wifi_BLE_SDK/GD32VW55x_RELEASE_V1.0.2/MSDK/cloud/alicloud/src/services/linkkit/dm\dm_api.c ****     _dm_api_unlock();
 371:C:/Users/stapi/OneDrive/Desktop/GD32VW553/V1_MQTT_OK/GD32VW55X_Wifi_BLE_SDK/GD32VW55x_RELEASE_V1.0.2/MSDK/cloud/alicloud/src/services/linkkit/dm\dm_api.c ****     return res;
 372:C:/Users/stapi/OneDrive/Desktop/GD32VW553/V1_MQTT_OK/GD32VW55X_Wifi_BLE_SDK/GD32VW55x_RELEASE_V1.0.2/MSDK/cloud/alicloud/src/services/linkkit/dm\dm_api.c **** }
 784              		.loc 1 372 1
 785 0038 4101     		addi	sp,sp,16
 786              		.cfi_remember_state
 787              		.cfi_def_cfa_offset 0
 788              	.LVL100:
 789 003a 17030000 		tail	__riscv_restore_0
 789      67000300 
 790              		.cfi_restore 1
 791              		.cfi_def_cfa_offset -16
 792              	.LVL101:
 793              	.L91:
 794              		.cfi_restore_state
 795 0042 2AC0     		sw	a0,0(sp)
 796              	.LVL102:
 370:C:/Users/stapi/OneDrive/Desktop/GD32VW553/V1_MQTT_OK/GD32VW55X_Wifi_BLE_SDK/GD32VW55x_RELEASE_V1.0.2/MSDK/cloud/alicloud/src/services/linkkit/dm\dm_api.c ****     return res;
 797              		.loc 1 370 5 is_stmt 1
 798 0044 97000000 		call	_dm_api_unlock
 798      E7800000 
 799              	.LVL103:
 800 004c 0245     		lw	a0,0(sp)
 371:C:/Users/stapi/OneDrive/Desktop/GD32VW553/V1_MQTT_OK/GD32VW55X_Wifi_BLE_SDK/GD32VW55x_RELEASE_V1.0.2/MSDK/cloud/alicloud/src/services/linkkit/dm\dm_api.c **** }
 801              		.loc 1 371 5
 371:C:/Users/stapi/OneDrive/Desktop/GD32VW553/V1_MQTT_OK/GD32VW55X_Wifi_BLE_SDK/GD32VW55x_RELEASE_V1.0.2/MSDK/cloud/alicloud/src/services/linkkit/dm\dm_api.c **** }
 802              		.loc 1 371 12 is_stmt 0
 803 004e EDB7     		j	.L90
 804              		.cfi_endproc
 805              	.LFE32:
 807              		.section	.text.iotx_dm_post_property,"ax",@progbits
 808              		.align	1
 809              		.globl	iotx_dm_post_property
 811              	iotx_dm_post_property:
 812              	.LFB33:
 373:C:/Users/stapi/OneDrive/Desktop/GD32VW553/V1_MQTT_OK/GD32VW55X_Wifi_BLE_SDK/GD32VW55x_RELEASE_V1.0.2/MSDK/cloud/alicloud/src/services/linkkit/dm\dm_api.c **** 
 374:C:/Users/stapi/OneDrive/Desktop/GD32VW553/V1_MQTT_OK/GD32VW55X_Wifi_BLE_SDK/GD32VW55x_RELEASE_V1.0.2/MSDK/cloud/alicloud/src/services/linkkit/dm\dm_api.c **** int iotx_dm_post_property(_IN_ int devid, _IN_ char *payload, _IN_ int payload_len)
 375:C:/Users/stapi/OneDrive/Desktop/GD32VW553/V1_MQTT_OK/GD32VW55X_Wifi_BLE_SDK/GD32VW55x_RELEASE_V1.0.2/MSDK/cloud/alicloud/src/services/linkkit/dm\dm_api.c **** {
 813              		.loc 1 375 1 is_stmt 1
 814              		.cfi_startproc
 815              	.LVL104:
 816 0000 17030000 		call	t0,__riscv_save_0
 816      E7020300 
 817              		.cfi_offset 1, -4
 818              		.cfi_def_cfa_offset 16
 376:C:/Users/stapi/OneDrive/Desktop/GD32VW553/V1_MQTT_OK/GD32VW55X_Wifi_BLE_SDK/GD32VW55x_RELEASE_V1.0.2/MSDK/cloud/alicloud/src/services/linkkit/dm\dm_api.c ****     int res = 0;
 819              		.loc 1 376 5
 820              	.LVL105:
 377:C:/Users/stapi/OneDrive/Desktop/GD32VW553/V1_MQTT_OK/GD32VW55X_Wifi_BLE_SDK/GD32VW55x_RELEASE_V1.0.2/MSDK/cloud/alicloud/src/services/linkkit/dm\dm_api.c **** 
 378:C:/Users/stapi/OneDrive/Desktop/GD32VW553/V1_MQTT_OK/GD32VW55X_Wifi_BLE_SDK/GD32VW55x_RELEASE_V1.0.2/MSDK/cloud/alicloud/src/services/linkkit/dm\dm_api.c ****     _dm_api_lock();
 821              		.loc 1 378 5
 375:C:/Users/stapi/OneDrive/Desktop/GD32VW553/V1_MQTT_OK/GD32VW55X_Wifi_BLE_SDK/GD32VW55x_RELEASE_V1.0.2/MSDK/cloud/alicloud/src/services/linkkit/dm\dm_api.c ****     int res = 0;
 822              		.loc 1 375 1 is_stmt 0
 823 0008 4111     		addi	sp,sp,-16
 824              		.cfi_def_cfa_offset 32
 375:C:/Users/stapi/OneDrive/Desktop/GD32VW553/V1_MQTT_OK/GD32VW55X_Wifi_BLE_SDK/GD32VW55x_RELEASE_V1.0.2/MSDK/cloud/alicloud/src/services/linkkit/dm\dm_api.c ****     int res = 0;
 825              		.loc 1 375 1
 826 000a 2AC6     		sw	a0,12(sp)
 827 000c 2EC4     		sw	a1,8(sp)
 828 000e 32C2     		sw	a2,4(sp)
 829              		.loc 1 378 5
 830 0010 97000000 		call	_dm_api_lock
 830      E7800000 
 831              	.LVL106:
 379:C:/Users/stapi/OneDrive/Desktop/GD32VW553/V1_MQTT_OK/GD32VW55X_Wifi_BLE_SDK/GD32VW55x_RELEASE_V1.0.2/MSDK/cloud/alicloud/src/services/linkkit/dm\dm_api.c **** 
 380:C:/Users/stapi/OneDrive/Desktop/GD32VW553/V1_MQTT_OK/GD32VW55X_Wifi_BLE_SDK/GD32VW55x_RELEASE_V1.0.2/MSDK/cloud/alicloud/src/services/linkkit/dm\dm_api.c ****     res = dm_mgr_upstream_thing_property_post(devid, payload, payload_len);
 832              		.loc 1 380 5 is_stmt 1
 833              		.loc 1 380 11 is_stmt 0
 834 0018 1246     		lw	a2,4(sp)
 835 001a A245     		lw	a1,8(sp)
 836 001c 3245     		lw	a0,12(sp)
 837 001e 97000000 		call	dm_mgr_upstream_thing_property_post
 837      E7800000 
 838              	.LVL107:
 381:C:/Users/stapi/OneDrive/Desktop/GD32VW553/V1_MQTT_OK/GD32VW55X_Wifi_BLE_SDK/GD32VW55x_RELEASE_V1.0.2/MSDK/cloud/alicloud/src/services/linkkit/dm\dm_api.c ****     if (res < SUCCESS_RETURN) {
 839              		.loc 1 381 5 is_stmt 1
 840              		.loc 1 381 8 is_stmt 0
 841 0026 635C0500 		bge	a0,zero,.L95
 382:C:/Users/stapi/OneDrive/Desktop/GD32VW553/V1_MQTT_OK/GD32VW55X_Wifi_BLE_SDK/GD32VW55x_RELEASE_V1.0.2/MSDK/cloud/alicloud/src/services/linkkit/dm\dm_api.c ****         _dm_api_unlock();
 842              		.loc 1 382 9 is_stmt 1
 843 002a 97000000 		call	_dm_api_unlock
 843      E7800000 
 844              	.LVL108:
 383:C:/Users/stapi/OneDrive/Desktop/GD32VW553/V1_MQTT_OK/GD32VW55X_Wifi_BLE_SDK/GD32VW55x_RELEASE_V1.0.2/MSDK/cloud/alicloud/src/services/linkkit/dm\dm_api.c ****         return FAIL_RETURN;
 845              		.loc 1 383 9
 846              		.loc 1 383 16 is_stmt 0
 847 0032 7D55     		li	a0,-1
 848              	.LVL109:
 849              	.L94:
 384:C:/Users/stapi/OneDrive/Desktop/GD32VW553/V1_MQTT_OK/GD32VW55X_Wifi_BLE_SDK/GD32VW55x_RELEASE_V1.0.2/MSDK/cloud/alicloud/src/services/linkkit/dm\dm_api.c ****     }
 385:C:/Users/stapi/OneDrive/Desktop/GD32VW553/V1_MQTT_OK/GD32VW55X_Wifi_BLE_SDK/GD32VW55x_RELEASE_V1.0.2/MSDK/cloud/alicloud/src/services/linkkit/dm\dm_api.c **** 
 386:C:/Users/stapi/OneDrive/Desktop/GD32VW553/V1_MQTT_OK/GD32VW55X_Wifi_BLE_SDK/GD32VW55x_RELEASE_V1.0.2/MSDK/cloud/alicloud/src/services/linkkit/dm\dm_api.c ****     _dm_api_unlock();
 387:C:/Users/stapi/OneDrive/Desktop/GD32VW553/V1_MQTT_OK/GD32VW55X_Wifi_BLE_SDK/GD32VW55x_RELEASE_V1.0.2/MSDK/cloud/alicloud/src/services/linkkit/dm\dm_api.c ****     return res;
 388:C:/Users/stapi/OneDrive/Desktop/GD32VW553/V1_MQTT_OK/GD32VW55X_Wifi_BLE_SDK/GD32VW55x_RELEASE_V1.0.2/MSDK/cloud/alicloud/src/services/linkkit/dm\dm_api.c **** }
 850              		.loc 1 388 1
 851 0034 4101     		addi	sp,sp,16
 852              		.cfi_remember_state
 853              		.cfi_def_cfa_offset 0
 854              	.LVL110:
 855 0036 17030000 		tail	__riscv_restore_0
 855      67000300 
 856              		.cfi_restore 1
 857              		.cfi_def_cfa_offset -16
 858              	.LVL111:
 859              	.L95:
 860              		.cfi_restore_state
 861 003e 2AC2     		sw	a0,4(sp)
 862              	.LVL112:
 386:C:/Users/stapi/OneDrive/Desktop/GD32VW553/V1_MQTT_OK/GD32VW55X_Wifi_BLE_SDK/GD32VW55x_RELEASE_V1.0.2/MSDK/cloud/alicloud/src/services/linkkit/dm\dm_api.c ****     return res;
 863              		.loc 1 386 5 is_stmt 1
 864 0040 97000000 		call	_dm_api_unlock
 864      E7800000 
 865              	.LVL113:
 866 0048 1245     		lw	a0,4(sp)
 387:C:/Users/stapi/OneDrive/Desktop/GD32VW553/V1_MQTT_OK/GD32VW55X_Wifi_BLE_SDK/GD32VW55x_RELEASE_V1.0.2/MSDK/cloud/alicloud/src/services/linkkit/dm\dm_api.c **** }
 867              		.loc 1 387 5
 387:C:/Users/stapi/OneDrive/Desktop/GD32VW553/V1_MQTT_OK/GD32VW55X_Wifi_BLE_SDK/GD32VW55x_RELEASE_V1.0.2/MSDK/cloud/alicloud/src/services/linkkit/dm\dm_api.c **** }
 868              		.loc 1 387 12 is_stmt 0
 869 004a EDB7     		j	.L94
 870              		.cfi_endproc
 871              	.LFE33:
 873              		.section	.rodata.iotx_dm_post_event.str1.4,"aMS",@progbits,1
 874              		.align	2
 875              	.LC3:
 876 0000 7468696E 		.string	"thing.event.%.*s.post"
 876      672E6576 
 876      656E742E 
 876      252E2A73 
 876      2E706F73 
 877              		.section	.text.iotx_dm_post_event,"ax",@progbits
 878              		.align	1
 879              		.globl	iotx_dm_post_event
 881              	iotx_dm_post_event:
 882              	.LFB34:
 389:C:/Users/stapi/OneDrive/Desktop/GD32VW553/V1_MQTT_OK/GD32VW55X_Wifi_BLE_SDK/GD32VW55x_RELEASE_V1.0.2/MSDK/cloud/alicloud/src/services/linkkit/dm\dm_api.c **** 
 390:C:/Users/stapi/OneDrive/Desktop/GD32VW553/V1_MQTT_OK/GD32VW55X_Wifi_BLE_SDK/GD32VW55x_RELEASE_V1.0.2/MSDK/cloud/alicloud/src/services/linkkit/dm\dm_api.c **** #ifdef DM_UNIFIED_SERVICE_POST
 391:C:/Users/stapi/OneDrive/Desktop/GD32VW553/V1_MQTT_OK/GD32VW55X_Wifi_BLE_SDK/GD32VW55x_RELEASE_V1.0.2/MSDK/cloud/alicloud/src/services/linkkit/dm\dm_api.c **** int iotx_dm_unified_service_post(_IN_ int devid, _IN_ char *payload, _IN_ int payload_len)
 392:C:/Users/stapi/OneDrive/Desktop/GD32VW553/V1_MQTT_OK/GD32VW55X_Wifi_BLE_SDK/GD32VW55x_RELEASE_V1.0.2/MSDK/cloud/alicloud/src/services/linkkit/dm\dm_api.c **** {
 393:C:/Users/stapi/OneDrive/Desktop/GD32VW553/V1_MQTT_OK/GD32VW55X_Wifi_BLE_SDK/GD32VW55x_RELEASE_V1.0.2/MSDK/cloud/alicloud/src/services/linkkit/dm\dm_api.c ****     int res = 0;
 394:C:/Users/stapi/OneDrive/Desktop/GD32VW553/V1_MQTT_OK/GD32VW55X_Wifi_BLE_SDK/GD32VW55x_RELEASE_V1.0.2/MSDK/cloud/alicloud/src/services/linkkit/dm\dm_api.c ****     int msgid = 0;
 395:C:/Users/stapi/OneDrive/Desktop/GD32VW553/V1_MQTT_OK/GD32VW55X_Wifi_BLE_SDK/GD32VW55x_RELEASE_V1.0.2/MSDK/cloud/alicloud/src/services/linkkit/dm\dm_api.c **** 
 396:C:/Users/stapi/OneDrive/Desktop/GD32VW553/V1_MQTT_OK/GD32VW55X_Wifi_BLE_SDK/GD32VW55x_RELEASE_V1.0.2/MSDK/cloud/alicloud/src/services/linkkit/dm\dm_api.c ****     _dm_api_lock();
 397:C:/Users/stapi/OneDrive/Desktop/GD32VW553/V1_MQTT_OK/GD32VW55X_Wifi_BLE_SDK/GD32VW55x_RELEASE_V1.0.2/MSDK/cloud/alicloud/src/services/linkkit/dm\dm_api.c **** 
 398:C:/Users/stapi/OneDrive/Desktop/GD32VW553/V1_MQTT_OK/GD32VW55X_Wifi_BLE_SDK/GD32VW55x_RELEASE_V1.0.2/MSDK/cloud/alicloud/src/services/linkkit/dm\dm_api.c ****     msgid = iotx_report_id();
 399:C:/Users/stapi/OneDrive/Desktop/GD32VW553/V1_MQTT_OK/GD32VW55X_Wifi_BLE_SDK/GD32VW55x_RELEASE_V1.0.2/MSDK/cloud/alicloud/src/services/linkkit/dm\dm_api.c ****     res = dm_mgr_unified_service_post(devid, msgid, payload, payload_len);
 400:C:/Users/stapi/OneDrive/Desktop/GD32VW553/V1_MQTT_OK/GD32VW55X_Wifi_BLE_SDK/GD32VW55x_RELEASE_V1.0.2/MSDK/cloud/alicloud/src/services/linkkit/dm\dm_api.c ****     if (res < SUCCESS_RETURN) {
 401:C:/Users/stapi/OneDrive/Desktop/GD32VW553/V1_MQTT_OK/GD32VW55X_Wifi_BLE_SDK/GD32VW55x_RELEASE_V1.0.2/MSDK/cloud/alicloud/src/services/linkkit/dm\dm_api.c ****         _dm_api_unlock();
 402:C:/Users/stapi/OneDrive/Desktop/GD32VW553/V1_MQTT_OK/GD32VW55X_Wifi_BLE_SDK/GD32VW55x_RELEASE_V1.0.2/MSDK/cloud/alicloud/src/services/linkkit/dm\dm_api.c ****         return FAIL_RETURN;
 403:C:/Users/stapi/OneDrive/Desktop/GD32VW553/V1_MQTT_OK/GD32VW55X_Wifi_BLE_SDK/GD32VW55x_RELEASE_V1.0.2/MSDK/cloud/alicloud/src/services/linkkit/dm\dm_api.c ****     }
 404:C:/Users/stapi/OneDrive/Desktop/GD32VW553/V1_MQTT_OK/GD32VW55X_Wifi_BLE_SDK/GD32VW55x_RELEASE_V1.0.2/MSDK/cloud/alicloud/src/services/linkkit/dm\dm_api.c **** 
 405:C:/Users/stapi/OneDrive/Desktop/GD32VW553/V1_MQTT_OK/GD32VW55X_Wifi_BLE_SDK/GD32VW55x_RELEASE_V1.0.2/MSDK/cloud/alicloud/src/services/linkkit/dm\dm_api.c ****     _dm_api_unlock();
 406:C:/Users/stapi/OneDrive/Desktop/GD32VW553/V1_MQTT_OK/GD32VW55X_Wifi_BLE_SDK/GD32VW55x_RELEASE_V1.0.2/MSDK/cloud/alicloud/src/services/linkkit/dm\dm_api.c ****     return res;
 407:C:/Users/stapi/OneDrive/Desktop/GD32VW553/V1_MQTT_OK/GD32VW55X_Wifi_BLE_SDK/GD32VW55x_RELEASE_V1.0.2/MSDK/cloud/alicloud/src/services/linkkit/dm\dm_api.c **** }
 408:C:/Users/stapi/OneDrive/Desktop/GD32VW553/V1_MQTT_OK/GD32VW55X_Wifi_BLE_SDK/GD32VW55x_RELEASE_V1.0.2/MSDK/cloud/alicloud/src/services/linkkit/dm\dm_api.c **** #endif
 409:C:/Users/stapi/OneDrive/Desktop/GD32VW553/V1_MQTT_OK/GD32VW55X_Wifi_BLE_SDK/GD32VW55x_RELEASE_V1.0.2/MSDK/cloud/alicloud/src/services/linkkit/dm\dm_api.c **** 
 410:C:/Users/stapi/OneDrive/Desktop/GD32VW553/V1_MQTT_OK/GD32VW55X_Wifi_BLE_SDK/GD32VW55x_RELEASE_V1.0.2/MSDK/cloud/alicloud/src/services/linkkit/dm\dm_api.c **** #ifdef LOG_REPORT_TO_CLOUD
 411:C:/Users/stapi/OneDrive/Desktop/GD32VW553/V1_MQTT_OK/GD32VW55X_Wifi_BLE_SDK/GD32VW55x_RELEASE_V1.0.2/MSDK/cloud/alicloud/src/services/linkkit/dm\dm_api.c **** int iotx_dm_log_post(_IN_ int devid, _IN_ char *payload, _IN_ int payload_len)
 412:C:/Users/stapi/OneDrive/Desktop/GD32VW553/V1_MQTT_OK/GD32VW55X_Wifi_BLE_SDK/GD32VW55x_RELEASE_V1.0.2/MSDK/cloud/alicloud/src/services/linkkit/dm\dm_api.c **** {
 413:C:/Users/stapi/OneDrive/Desktop/GD32VW553/V1_MQTT_OK/GD32VW55X_Wifi_BLE_SDK/GD32VW55x_RELEASE_V1.0.2/MSDK/cloud/alicloud/src/services/linkkit/dm\dm_api.c ****     int res = 0;
 414:C:/Users/stapi/OneDrive/Desktop/GD32VW553/V1_MQTT_OK/GD32VW55X_Wifi_BLE_SDK/GD32VW55x_RELEASE_V1.0.2/MSDK/cloud/alicloud/src/services/linkkit/dm\dm_api.c **** 
 415:C:/Users/stapi/OneDrive/Desktop/GD32VW553/V1_MQTT_OK/GD32VW55X_Wifi_BLE_SDK/GD32VW55x_RELEASE_V1.0.2/MSDK/cloud/alicloud/src/services/linkkit/dm\dm_api.c ****     _dm_api_lock();
 416:C:/Users/stapi/OneDrive/Desktop/GD32VW553/V1_MQTT_OK/GD32VW55X_Wifi_BLE_SDK/GD32VW55x_RELEASE_V1.0.2/MSDK/cloud/alicloud/src/services/linkkit/dm\dm_api.c **** 
 417:C:/Users/stapi/OneDrive/Desktop/GD32VW553/V1_MQTT_OK/GD32VW55X_Wifi_BLE_SDK/GD32VW55x_RELEASE_V1.0.2/MSDK/cloud/alicloud/src/services/linkkit/dm\dm_api.c ****     res = dm_mgr_upstream_thing_log_post(devid, payload, payload_len, 0);
 418:C:/Users/stapi/OneDrive/Desktop/GD32VW553/V1_MQTT_OK/GD32VW55X_Wifi_BLE_SDK/GD32VW55x_RELEASE_V1.0.2/MSDK/cloud/alicloud/src/services/linkkit/dm\dm_api.c ****     if (res < SUCCESS_RETURN) {
 419:C:/Users/stapi/OneDrive/Desktop/GD32VW553/V1_MQTT_OK/GD32VW55X_Wifi_BLE_SDK/GD32VW55x_RELEASE_V1.0.2/MSDK/cloud/alicloud/src/services/linkkit/dm\dm_api.c ****         _dm_api_unlock();
 420:C:/Users/stapi/OneDrive/Desktop/GD32VW553/V1_MQTT_OK/GD32VW55X_Wifi_BLE_SDK/GD32VW55x_RELEASE_V1.0.2/MSDK/cloud/alicloud/src/services/linkkit/dm\dm_api.c ****         return FAIL_RETURN;
 421:C:/Users/stapi/OneDrive/Desktop/GD32VW553/V1_MQTT_OK/GD32VW55X_Wifi_BLE_SDK/GD32VW55x_RELEASE_V1.0.2/MSDK/cloud/alicloud/src/services/linkkit/dm\dm_api.c ****     }
 422:C:/Users/stapi/OneDrive/Desktop/GD32VW553/V1_MQTT_OK/GD32VW55X_Wifi_BLE_SDK/GD32VW55x_RELEASE_V1.0.2/MSDK/cloud/alicloud/src/services/linkkit/dm\dm_api.c **** 
 423:C:/Users/stapi/OneDrive/Desktop/GD32VW553/V1_MQTT_OK/GD32VW55X_Wifi_BLE_SDK/GD32VW55x_RELEASE_V1.0.2/MSDK/cloud/alicloud/src/services/linkkit/dm\dm_api.c ****     _dm_api_unlock();
 424:C:/Users/stapi/OneDrive/Desktop/GD32VW553/V1_MQTT_OK/GD32VW55X_Wifi_BLE_SDK/GD32VW55x_RELEASE_V1.0.2/MSDK/cloud/alicloud/src/services/linkkit/dm\dm_api.c ****     return res;
 425:C:/Users/stapi/OneDrive/Desktop/GD32VW553/V1_MQTT_OK/GD32VW55X_Wifi_BLE_SDK/GD32VW55x_RELEASE_V1.0.2/MSDK/cloud/alicloud/src/services/linkkit/dm\dm_api.c **** }
 426:C:/Users/stapi/OneDrive/Desktop/GD32VW553/V1_MQTT_OK/GD32VW55X_Wifi_BLE_SDK/GD32VW55x_RELEASE_V1.0.2/MSDK/cloud/alicloud/src/services/linkkit/dm\dm_api.c **** #endif
 427:C:/Users/stapi/OneDrive/Desktop/GD32VW553/V1_MQTT_OK/GD32VW55X_Wifi_BLE_SDK/GD32VW55x_RELEASE_V1.0.2/MSDK/cloud/alicloud/src/services/linkkit/dm\dm_api.c **** 
 428:C:/Users/stapi/OneDrive/Desktop/GD32VW553/V1_MQTT_OK/GD32VW55X_Wifi_BLE_SDK/GD32VW55x_RELEASE_V1.0.2/MSDK/cloud/alicloud/src/services/linkkit/dm\dm_api.c **** int iotx_dm_post_event(_IN_ int devid, _IN_ char *identifier, _IN_ int identifier_len, _IN_ char *p
 429:C:/Users/stapi/OneDrive/Desktop/GD32VW553/V1_MQTT_OK/GD32VW55X_Wifi_BLE_SDK/GD32VW55x_RELEASE_V1.0.2/MSDK/cloud/alicloud/src/services/linkkit/dm\dm_api.c ****                        _IN_ int payload_len)
 430:C:/Users/stapi/OneDrive/Desktop/GD32VW553/V1_MQTT_OK/GD32VW55X_Wifi_BLE_SDK/GD32VW55x_RELEASE_V1.0.2/MSDK/cloud/alicloud/src/services/linkkit/dm\dm_api.c **** {
 883              		.loc 1 430 1 is_stmt 1
 884              		.cfi_startproc
 885              	.LVL114:
 886 0000 17030000 		call	t0,__riscv_save_7
 886      E7020300 
 887              		.cfi_offset 22, -32
 888              		.cfi_offset 21, -28
 889              		.cfi_offset 20, -24
 890              		.cfi_offset 19, -20
 891              		.cfi_offset 18, -16
 892              		.cfi_offset 9, -12
 893              		.cfi_offset 8, -8
 894              		.cfi_offset 1, -4
 895              		.cfi_def_cfa_offset 32
 431:C:/Users/stapi/OneDrive/Desktop/GD32VW553/V1_MQTT_OK/GD32VW55X_Wifi_BLE_SDK/GD32VW55x_RELEASE_V1.0.2/MSDK/cloud/alicloud/src/services/linkkit/dm\dm_api.c ****     int res = 0, method_len = 0;
 896              		.loc 1 431 5
 897              	.LVL115:
 432:C:/Users/stapi/OneDrive/Desktop/GD32VW553/V1_MQTT_OK/GD32VW55X_Wifi_BLE_SDK/GD32VW55x_RELEASE_V1.0.2/MSDK/cloud/alicloud/src/services/linkkit/dm\dm_api.c ****     const char *method_fmt = "thing.event.%.*s.post";
 898              		.loc 1 432 5
 433:C:/Users/stapi/OneDrive/Desktop/GD32VW553/V1_MQTT_OK/GD32VW55X_Wifi_BLE_SDK/GD32VW55x_RELEASE_V1.0.2/MSDK/cloud/alicloud/src/services/linkkit/dm\dm_api.c ****     char *method = NULL;
 899              		.loc 1 433 5
 434:C:/Users/stapi/OneDrive/Desktop/GD32VW553/V1_MQTT_OK/GD32VW55X_Wifi_BLE_SDK/GD32VW55x_RELEASE_V1.0.2/MSDK/cloud/alicloud/src/services/linkkit/dm\dm_api.c **** 
 435:C:/Users/stapi/OneDrive/Desktop/GD32VW553/V1_MQTT_OK/GD32VW55X_Wifi_BLE_SDK/GD32VW55x_RELEASE_V1.0.2/MSDK/cloud/alicloud/src/services/linkkit/dm\dm_api.c ****     if (devid < 0 || identifier == NULL || identifier_len == 0 || payload == NULL || payload_len <=
 900              		.loc 1 435 5
 436:C:/Users/stapi/OneDrive/Desktop/GD32VW553/V1_MQTT_OK/GD32VW55X_Wifi_BLE_SDK/GD32VW55x_RELEASE_V1.0.2/MSDK/cloud/alicloud/src/services/linkkit/dm\dm_api.c ****         return DM_INVALID_PARAMETER;
 901              		.loc 1 436 16 is_stmt 0
 902 0008 7954     		li	s0,-2
 435:C:/Users/stapi/OneDrive/Desktop/GD32VW553/V1_MQTT_OK/GD32VW55X_Wifi_BLE_SDK/GD32VW55x_RELEASE_V1.0.2/MSDK/cloud/alicloud/src/services/linkkit/dm\dm_api.c ****         return DM_INVALID_PARAMETER;
 903              		.loc 1 435 8
 904 000a 63460504 		blt	a0,zero,.L98
 905 000e 2E89     		mv	s2,a1
 906              		.loc 1 436 16 discriminator 1
 907 0010 7954     		li	s0,-2
 435:C:/Users/stapi/OneDrive/Desktop/GD32VW553/V1_MQTT_OK/GD32VW55X_Wifi_BLE_SDK/GD32VW55x_RELEASE_V1.0.2/MSDK/cloud/alicloud/src/services/linkkit/dm\dm_api.c ****         return DM_INVALID_PARAMETER;
 908              		.loc 1 435 19 discriminator 1
 909 0012 B1C1     		beq	a1,zero,.L98
 910 0014 B289     		mv	s3,a2
 435:C:/Users/stapi/OneDrive/Desktop/GD32VW553/V1_MQTT_OK/GD32VW55X_Wifi_BLE_SDK/GD32VW55x_RELEASE_V1.0.2/MSDK/cloud/alicloud/src/services/linkkit/dm\dm_api.c ****         return DM_INVALID_PARAMETER;
 911              		.loc 1 435 41 discriminator 2
 912 0016 21C2     		beq	a2,zero,.L98
 913 0018 B68A     		mv	s5,a3
 435:C:/Users/stapi/OneDrive/Desktop/GD32VW553/V1_MQTT_OK/GD32VW55X_Wifi_BLE_SDK/GD32VW55x_RELEASE_V1.0.2/MSDK/cloud/alicloud/src/services/linkkit/dm\dm_api.c ****         return DM_INVALID_PARAMETER;
 914              		.loc 1 435 64 discriminator 3
 915 001a 95CE     		beq	a3,zero,.L98
 916 001c 3A8B     		mv	s6,a4
 435:C:/Users/stapi/OneDrive/Desktop/GD32VW553/V1_MQTT_OK/GD32VW55X_Wifi_BLE_SDK/GD32VW55x_RELEASE_V1.0.2/MSDK/cloud/alicloud/src/services/linkkit/dm\dm_api.c ****         return DM_INVALID_PARAMETER;
 917              		.loc 1 435 83 discriminator 4
 918 001e 635CE002 		ble	a4,zero,.L98
 919 0022 2A8A     		mv	s4,a0
 437:C:/Users/stapi/OneDrive/Desktop/GD32VW553/V1_MQTT_OK/GD32VW55X_Wifi_BLE_SDK/GD32VW55x_RELEASE_V1.0.2/MSDK/cloud/alicloud/src/services/linkkit/dm\dm_api.c ****     }
 438:C:/Users/stapi/OneDrive/Desktop/GD32VW553/V1_MQTT_OK/GD32VW55X_Wifi_BLE_SDK/GD32VW55x_RELEASE_V1.0.2/MSDK/cloud/alicloud/src/services/linkkit/dm\dm_api.c **** 
 439:C:/Users/stapi/OneDrive/Desktop/GD32VW553/V1_MQTT_OK/GD32VW55X_Wifi_BLE_SDK/GD32VW55x_RELEASE_V1.0.2/MSDK/cloud/alicloud/src/services/linkkit/dm\dm_api.c ****     _dm_api_lock();
 920              		.loc 1 439 5 is_stmt 1
 921 0024 97000000 		call	_dm_api_lock
 921      E7800000 
 922              	.LVL116:
 440:C:/Users/stapi/OneDrive/Desktop/GD32VW553/V1_MQTT_OK/GD32VW55X_Wifi_BLE_SDK/GD32VW55x_RELEASE_V1.0.2/MSDK/cloud/alicloud/src/services/linkkit/dm\dm_api.c **** 
 441:C:/Users/stapi/OneDrive/Desktop/GD32VW553/V1_MQTT_OK/GD32VW55X_Wifi_BLE_SDK/GD32VW55x_RELEASE_V1.0.2/MSDK/cloud/alicloud/src/services/linkkit/dm\dm_api.c ****     method_len = strlen(method_fmt) + strlen(identifier) + 1;
 923              		.loc 1 441 5
 924              		.loc 1 441 39 is_stmt 0
 925 002c 4A85     		mv	a0,s2
 926 002e 97000000 		call	strlen
 926      E7800000 
 927              	.LVL117:
 928              		.loc 1 441 58
 929 0036 13046501 		addi	s0,a0,22
 930              	.LVL118:
 442:C:/Users/stapi/OneDrive/Desktop/GD32VW553/V1_MQTT_OK/GD32VW55X_Wifi_BLE_SDK/GD32VW55x_RELEASE_V1.0.2/MSDK/cloud/alicloud/src/services/linkkit/dm\dm_api.c ****     method = DM_malloc(method_len);
 931              		.loc 1 442 5 is_stmt 1
 932              		.loc 1 442 14 is_stmt 0
 933 003a 2286     		mv	a2,s0
 934 003c 8145     		li	a1,0
 935 003e 0145     		li	a0,0
 936 0040 97000000 		call	LITE_malloc_internal
 936      E7800000 
 937              	.LVL119:
 938 0048 AA84     		mv	s1,a0
 939              	.LVL120:
 443:C:/Users/stapi/OneDrive/Desktop/GD32VW553/V1_MQTT_OK/GD32VW55X_Wifi_BLE_SDK/GD32VW55x_RELEASE_V1.0.2/MSDK/cloud/alicloud/src/services/linkkit/dm\dm_api.c ****     if (method == NULL) {
 940              		.loc 1 443 5 is_stmt 1
 941              		.loc 1 443 8 is_stmt 0
 942 004a 19E9     		bne	a0,zero,.L100
 444:C:/Users/stapi/OneDrive/Desktop/GD32VW553/V1_MQTT_OK/GD32VW55X_Wifi_BLE_SDK/GD32VW55x_RELEASE_V1.0.2/MSDK/cloud/alicloud/src/services/linkkit/dm\dm_api.c ****         _dm_api_unlock();
 943              		.loc 1 444 9 is_stmt 1
 944 004c 97000000 		call	_dm_api_unlock
 944      E7800000 
 945              	.LVL121:
 445:C:/Users/stapi/OneDrive/Desktop/GD32VW553/V1_MQTT_OK/GD32VW55X_Wifi_BLE_SDK/GD32VW55x_RELEASE_V1.0.2/MSDK/cloud/alicloud/src/services/linkkit/dm\dm_api.c ****         return DM_MEMORY_NOT_ENOUGH;
 946              		.loc 1 445 9
 947              		.loc 1 445 16 is_stmt 0
 948 0054 7554     		li	s0,-3
 949              	.LVL122:
 950              	.L98:
 446:C:/Users/stapi/OneDrive/Desktop/GD32VW553/V1_MQTT_OK/GD32VW55X_Wifi_BLE_SDK/GD32VW55x_RELEASE_V1.0.2/MSDK/cloud/alicloud/src/services/linkkit/dm\dm_api.c ****     }
 447:C:/Users/stapi/OneDrive/Desktop/GD32VW553/V1_MQTT_OK/GD32VW55X_Wifi_BLE_SDK/GD32VW55x_RELEASE_V1.0.2/MSDK/cloud/alicloud/src/services/linkkit/dm\dm_api.c ****     memset(method, 0, method_len);
 448:C:/Users/stapi/OneDrive/Desktop/GD32VW553/V1_MQTT_OK/GD32VW55X_Wifi_BLE_SDK/GD32VW55x_RELEASE_V1.0.2/MSDK/cloud/alicloud/src/services/linkkit/dm\dm_api.c ****     HAL_Snprintf(method, method_len, method_fmt, identifier_len, identifier);
 449:C:/Users/stapi/OneDrive/Desktop/GD32VW553/V1_MQTT_OK/GD32VW55X_Wifi_BLE_SDK/GD32VW55x_RELEASE_V1.0.2/MSDK/cloud/alicloud/src/services/linkkit/dm\dm_api.c **** 
 450:C:/Users/stapi/OneDrive/Desktop/GD32VW553/V1_MQTT_OK/GD32VW55X_Wifi_BLE_SDK/GD32VW55x_RELEASE_V1.0.2/MSDK/cloud/alicloud/src/services/linkkit/dm\dm_api.c ****     res = dm_mgr_upstream_thing_event_post(devid, identifier, identifier_len, method, payload, payl
 451:C:/Users/stapi/OneDrive/Desktop/GD32VW553/V1_MQTT_OK/GD32VW55X_Wifi_BLE_SDK/GD32VW55x_RELEASE_V1.0.2/MSDK/cloud/alicloud/src/services/linkkit/dm\dm_api.c ****     if (res < SUCCESS_RETURN) {
 452:C:/Users/stapi/OneDrive/Desktop/GD32VW553/V1_MQTT_OK/GD32VW55X_Wifi_BLE_SDK/GD32VW55x_RELEASE_V1.0.2/MSDK/cloud/alicloud/src/services/linkkit/dm\dm_api.c ****         DM_free(method);
 453:C:/Users/stapi/OneDrive/Desktop/GD32VW553/V1_MQTT_OK/GD32VW55X_Wifi_BLE_SDK/GD32VW55x_RELEASE_V1.0.2/MSDK/cloud/alicloud/src/services/linkkit/dm\dm_api.c ****         _dm_api_unlock();
 454:C:/Users/stapi/OneDrive/Desktop/GD32VW553/V1_MQTT_OK/GD32VW55X_Wifi_BLE_SDK/GD32VW55x_RELEASE_V1.0.2/MSDK/cloud/alicloud/src/services/linkkit/dm\dm_api.c ****         return FAIL_RETURN;
 455:C:/Users/stapi/OneDrive/Desktop/GD32VW553/V1_MQTT_OK/GD32VW55X_Wifi_BLE_SDK/GD32VW55x_RELEASE_V1.0.2/MSDK/cloud/alicloud/src/services/linkkit/dm\dm_api.c ****     }
 456:C:/Users/stapi/OneDrive/Desktop/GD32VW553/V1_MQTT_OK/GD32VW55X_Wifi_BLE_SDK/GD32VW55x_RELEASE_V1.0.2/MSDK/cloud/alicloud/src/services/linkkit/dm\dm_api.c **** 
 457:C:/Users/stapi/OneDrive/Desktop/GD32VW553/V1_MQTT_OK/GD32VW55X_Wifi_BLE_SDK/GD32VW55x_RELEASE_V1.0.2/MSDK/cloud/alicloud/src/services/linkkit/dm\dm_api.c ****     DM_free(method);
 458:C:/Users/stapi/OneDrive/Desktop/GD32VW553/V1_MQTT_OK/GD32VW55X_Wifi_BLE_SDK/GD32VW55x_RELEASE_V1.0.2/MSDK/cloud/alicloud/src/services/linkkit/dm\dm_api.c ****     _dm_api_unlock();
 459:C:/Users/stapi/OneDrive/Desktop/GD32VW553/V1_MQTT_OK/GD32VW55X_Wifi_BLE_SDK/GD32VW55x_RELEASE_V1.0.2/MSDK/cloud/alicloud/src/services/linkkit/dm\dm_api.c ****     return res;
 460:C:/Users/stapi/OneDrive/Desktop/GD32VW553/V1_MQTT_OK/GD32VW55X_Wifi_BLE_SDK/GD32VW55x_RELEASE_V1.0.2/MSDK/cloud/alicloud/src/services/linkkit/dm\dm_api.c **** }
 951              		.loc 1 460 1
 952 0056 2285     		mv	a0,s0
 953 0058 17030000 		tail	__riscv_restore_7
 953      67000300 
 954              		.cfi_remember_state
 955              		.cfi_restore 22
 956              		.cfi_restore 21
 957              		.cfi_restore 20
 958              		.cfi_restore 19
 959              		.cfi_restore 18
 960              		.cfi_restore 9
 961              		.cfi_restore 8
 962              		.cfi_restore 1
 963              		.cfi_def_cfa_offset 0
 964              	.LVL123:
 965              	.L100:
 966              		.cfi_restore_state
 447:C:/Users/stapi/OneDrive/Desktop/GD32VW553/V1_MQTT_OK/GD32VW55X_Wifi_BLE_SDK/GD32VW55x_RELEASE_V1.0.2/MSDK/cloud/alicloud/src/services/linkkit/dm\dm_api.c ****     HAL_Snprintf(method, method_len, method_fmt, identifier_len, identifier);
 967              		.loc 1 447 5 is_stmt 1
 968 0060 2286     		mv	a2,s0
 969 0062 8145     		li	a1,0
 970 0064 97000000 		call	memset
 970      E7800000 
 971              	.LVL124:
 448:C:/Users/stapi/OneDrive/Desktop/GD32VW553/V1_MQTT_OK/GD32VW55X_Wifi_BLE_SDK/GD32VW55x_RELEASE_V1.0.2/MSDK/cloud/alicloud/src/services/linkkit/dm\dm_api.c **** 
 972              		.loc 1 448 5
 973 006c 37060000 		lui	a2,%hi(.LC3)
 974 0070 A285     		mv	a1,s0
 975 0072 4A87     		mv	a4,s2
 976 0074 CE86     		mv	a3,s3
 977 0076 13060600 		addi	a2,a2,%lo(.LC3)
 978 007a 2685     		mv	a0,s1
 979 007c 97000000 		call	HAL_Snprintf
 979      E7800000 
 980              	.LVL125:
 450:C:/Users/stapi/OneDrive/Desktop/GD32VW553/V1_MQTT_OK/GD32VW55X_Wifi_BLE_SDK/GD32VW55x_RELEASE_V1.0.2/MSDK/cloud/alicloud/src/services/linkkit/dm\dm_api.c ****     if (res < SUCCESS_RETURN) {
 981              		.loc 1 450 5
 450:C:/Users/stapi/OneDrive/Desktop/GD32VW553/V1_MQTT_OK/GD32VW55X_Wifi_BLE_SDK/GD32VW55x_RELEASE_V1.0.2/MSDK/cloud/alicloud/src/services/linkkit/dm\dm_api.c ****     if (res < SUCCESS_RETURN) {
 982              		.loc 1 450 11 is_stmt 0
 983 0084 DA87     		mv	a5,s6
 984 0086 5687     		mv	a4,s5
 985 0088 A686     		mv	a3,s1
 986 008a 4E86     		mv	a2,s3
 987 008c CA85     		mv	a1,s2
 988 008e 5285     		mv	a0,s4
 989 0090 97000000 		call	dm_mgr_upstream_thing_event_post
 989      E7800000 
 990              	.LVL126:
 991 0098 2A84     		mv	s0,a0
 992              	.LVL127:
 451:C:/Users/stapi/OneDrive/Desktop/GD32VW553/V1_MQTT_OK/GD32VW55X_Wifi_BLE_SDK/GD32VW55x_RELEASE_V1.0.2/MSDK/cloud/alicloud/src/services/linkkit/dm\dm_api.c ****         DM_free(method);
 993              		.loc 1 451 5 is_stmt 1
 452:C:/Users/stapi/OneDrive/Desktop/GD32VW553/V1_MQTT_OK/GD32VW55X_Wifi_BLE_SDK/GD32VW55x_RELEASE_V1.0.2/MSDK/cloud/alicloud/src/services/linkkit/dm\dm_api.c ****         _dm_api_unlock();
 994              		.loc 1 452 9 is_stmt 0
 995 009a 2685     		mv	a0,s1
 451:C:/Users/stapi/OneDrive/Desktop/GD32VW553/V1_MQTT_OK/GD32VW55X_Wifi_BLE_SDK/GD32VW55x_RELEASE_V1.0.2/MSDK/cloud/alicloud/src/services/linkkit/dm\dm_api.c ****         DM_free(method);
 996              		.loc 1 451 8
 997 009c 635C0400 		bge	s0,zero,.L101
 452:C:/Users/stapi/OneDrive/Desktop/GD32VW553/V1_MQTT_OK/GD32VW55X_Wifi_BLE_SDK/GD32VW55x_RELEASE_V1.0.2/MSDK/cloud/alicloud/src/services/linkkit/dm\dm_api.c ****         _dm_api_unlock();
 998              		.loc 1 452 9 is_stmt 1
 999 00a0 97000000 		call	LITE_free_internal
 999      E7800000 
 1000              	.LVL128:
 452:C:/Users/stapi/OneDrive/Desktop/GD32VW553/V1_MQTT_OK/GD32VW55X_Wifi_BLE_SDK/GD32VW55x_RELEASE_V1.0.2/MSDK/cloud/alicloud/src/services/linkkit/dm\dm_api.c ****         _dm_api_unlock();
 1001              		.loc 1 452 9
 452:C:/Users/stapi/OneDrive/Desktop/GD32VW553/V1_MQTT_OK/GD32VW55X_Wifi_BLE_SDK/GD32VW55x_RELEASE_V1.0.2/MSDK/cloud/alicloud/src/services/linkkit/dm\dm_api.c ****         _dm_api_unlock();
 1002              		.loc 1 452 24
 453:C:/Users/stapi/OneDrive/Desktop/GD32VW553/V1_MQTT_OK/GD32VW55X_Wifi_BLE_SDK/GD32VW55x_RELEASE_V1.0.2/MSDK/cloud/alicloud/src/services/linkkit/dm\dm_api.c ****         return FAIL_RETURN;
 1003              		.loc 1 453 9
 454:C:/Users/stapi/OneDrive/Desktop/GD32VW553/V1_MQTT_OK/GD32VW55X_Wifi_BLE_SDK/GD32VW55x_RELEASE_V1.0.2/MSDK/cloud/alicloud/src/services/linkkit/dm\dm_api.c ****     }
 1004              		.loc 1 454 16 is_stmt 0
 1005 00a8 7D54     		li	s0,-1
 1006              	.LVL129:
 453:C:/Users/stapi/OneDrive/Desktop/GD32VW553/V1_MQTT_OK/GD32VW55X_Wifi_BLE_SDK/GD32VW55x_RELEASE_V1.0.2/MSDK/cloud/alicloud/src/services/linkkit/dm\dm_api.c ****         return FAIL_RETURN;
 1007              		.loc 1 453 9
 1008 00aa 97000000 		call	_dm_api_unlock
 1008      E7800000 
 1009              	.LVL130:
 454:C:/Users/stapi/OneDrive/Desktop/GD32VW553/V1_MQTT_OK/GD32VW55X_Wifi_BLE_SDK/GD32VW55x_RELEASE_V1.0.2/MSDK/cloud/alicloud/src/services/linkkit/dm\dm_api.c ****     }
 1010              		.loc 1 454 9 is_stmt 1
 454:C:/Users/stapi/OneDrive/Desktop/GD32VW553/V1_MQTT_OK/GD32VW55X_Wifi_BLE_SDK/GD32VW55x_RELEASE_V1.0.2/MSDK/cloud/alicloud/src/services/linkkit/dm\dm_api.c ****     }
 1011              		.loc 1 454 16 is_stmt 0
 1012 00b2 55B7     		j	.L98
 1013              	.LVL131:
 1014              	.L101:
 457:C:/Users/stapi/OneDrive/Desktop/GD32VW553/V1_MQTT_OK/GD32VW55X_Wifi_BLE_SDK/GD32VW55x_RELEASE_V1.0.2/MSDK/cloud/alicloud/src/services/linkkit/dm\dm_api.c ****     _dm_api_unlock();
 1015              		.loc 1 457 5 is_stmt 1
 1016 00b4 97000000 		call	LITE_free_internal
 1016      E7800000 
 1017              	.LVL132:
 457:C:/Users/stapi/OneDrive/Desktop/GD32VW553/V1_MQTT_OK/GD32VW55X_Wifi_BLE_SDK/GD32VW55x_RELEASE_V1.0.2/MSDK/cloud/alicloud/src/services/linkkit/dm\dm_api.c ****     _dm_api_unlock();
 1018              		.loc 1 457 5
 457:C:/Users/stapi/OneDrive/Desktop/GD32VW553/V1_MQTT_OK/GD32VW55X_Wifi_BLE_SDK/GD32VW55x_RELEASE_V1.0.2/MSDK/cloud/alicloud/src/services/linkkit/dm\dm_api.c ****     _dm_api_unlock();
 1019              		.loc 1 457 20
 458:C:/Users/stapi/OneDrive/Desktop/GD32VW553/V1_MQTT_OK/GD32VW55X_Wifi_BLE_SDK/GD32VW55x_RELEASE_V1.0.2/MSDK/cloud/alicloud/src/services/linkkit/dm\dm_api.c ****     return res;
 1020              		.loc 1 458 5
 1021 00bc 97000000 		call	_dm_api_unlock
 1021      E7800000 
 1022              	.LVL133:
 459:C:/Users/stapi/OneDrive/Desktop/GD32VW553/V1_MQTT_OK/GD32VW55X_Wifi_BLE_SDK/GD32VW55x_RELEASE_V1.0.2/MSDK/cloud/alicloud/src/services/linkkit/dm\dm_api.c **** }
 1023              		.loc 1 459 5
 459:C:/Users/stapi/OneDrive/Desktop/GD32VW553/V1_MQTT_OK/GD32VW55X_Wifi_BLE_SDK/GD32VW55x_RELEASE_V1.0.2/MSDK/cloud/alicloud/src/services/linkkit/dm\dm_api.c **** }
 1024              		.loc 1 459 12 is_stmt 0
 1025 00c4 49BF     		j	.L98
 1026              		.cfi_endproc
 1027              	.LFE34:
 1029              		.section	.rodata.iotx_dm_send_service_response.str1.4,"aMS",@progbits,1
 1030              		.align	2
 1031              	.LC4:
 1032 0000 43757272 		.string	"Current Service Response Payload, Length: %d, Payload: %.*s"
 1032      656E7420 
 1032      53657276 
 1032      69636520 
 1032      52657370 
 1033              		.align	2
 1034              	.LC5:
 1035 003c 444D00   		.string	"DM"
 1036              		.section	.text.iotx_dm_send_service_response,"ax",@progbits
 1037              		.align	1
 1038              		.globl	iotx_dm_send_service_response
 1040              	iotx_dm_send_service_response:
 1041              	.LFB35:
 461:C:/Users/stapi/OneDrive/Desktop/GD32VW553/V1_MQTT_OK/GD32VW55X_Wifi_BLE_SDK/GD32VW55x_RELEASE_V1.0.2/MSDK/cloud/alicloud/src/services/linkkit/dm\dm_api.c **** #ifndef LINK_VISUAL_ENABLE
 462:C:/Users/stapi/OneDrive/Desktop/GD32VW553/V1_MQTT_OK/GD32VW55X_Wifi_BLE_SDK/GD32VW55x_RELEASE_V1.0.2/MSDK/cloud/alicloud/src/services/linkkit/dm\dm_api.c **** int iotx_dm_send_service_response(_IN_ int devid, _IN_ char *msgid, _IN_ int msgid_len, _IN_ iotx_d
 463:C:/Users/stapi/OneDrive/Desktop/GD32VW553/V1_MQTT_OK/GD32VW55X_Wifi_BLE_SDK/GD32VW55x_RELEASE_V1.0.2/MSDK/cloud/alicloud/src/services/linkkit/dm\dm_api.c ****                                   _IN_ char *identifier,
 464:C:/Users/stapi/OneDrive/Desktop/GD32VW553/V1_MQTT_OK/GD32VW55X_Wifi_BLE_SDK/GD32VW55x_RELEASE_V1.0.2/MSDK/cloud/alicloud/src/services/linkkit/dm\dm_api.c ****                                   _IN_ int identifier_len, _IN_ char *payload, _IN_ int payload_len
 465:C:/Users/stapi/OneDrive/Desktop/GD32VW553/V1_MQTT_OK/GD32VW55X_Wifi_BLE_SDK/GD32VW55x_RELEASE_V1.0.2/MSDK/cloud/alicloud/src/services/linkkit/dm\dm_api.c **** {
 1042              		.loc 1 465 1 is_stmt 1
 1043              		.cfi_startproc
 1044              	.LVL134:
 1045 0000 17030000 		call	t0,__riscv_save_9
 1045      E7020300 
 1046              		.cfi_offset 24, -40
 1047              		.cfi_offset 23, -36
 1048              		.cfi_offset 22, -32
 1049              		.cfi_offset 21, -28
 1050              		.cfi_offset 20, -24
 1051              		.cfi_offset 19, -20
 1052              		.cfi_offset 18, -16
 1053              		.cfi_offset 9, -12
 1054              		.cfi_offset 8, -8
 1055              		.cfi_offset 1, -4
 1056              		.cfi_def_cfa_offset 48
 466:C:/Users/stapi/OneDrive/Desktop/GD32VW553/V1_MQTT_OK/GD32VW55X_Wifi_BLE_SDK/GD32VW55x_RELEASE_V1.0.2/MSDK/cloud/alicloud/src/services/linkkit/dm\dm_api.c ****     int res = 0;
 1057              		.loc 1 466 5
 1058              	.LVL135:
 467:C:/Users/stapi/OneDrive/Desktop/GD32VW553/V1_MQTT_OK/GD32VW55X_Wifi_BLE_SDK/GD32VW55x_RELEASE_V1.0.2/MSDK/cloud/alicloud/src/services/linkkit/dm\dm_api.c **** 
 468:C:/Users/stapi/OneDrive/Desktop/GD32VW553/V1_MQTT_OK/GD32VW55X_Wifi_BLE_SDK/GD32VW55x_RELEASE_V1.0.2/MSDK/cloud/alicloud/src/services/linkkit/dm\dm_api.c ****     if (devid < 0 || msgid == NULL || msgid_len <= 0 || identifier == NULL || identifier_len <= 0 |
 1059              		.loc 1 468 5
 465:C:/Users/stapi/OneDrive/Desktop/GD32VW553/V1_MQTT_OK/GD32VW55X_Wifi_BLE_SDK/GD32VW55x_RELEASE_V1.0.2/MSDK/cloud/alicloud/src/services/linkkit/dm\dm_api.c ****     int res = 0;
 1060              		.loc 1 465 1 is_stmt 0
 1061 0008 0111     		addi	sp,sp,-32
 1062              		.cfi_def_cfa_offset 80
 465:C:/Users/stapi/OneDrive/Desktop/GD32VW553/V1_MQTT_OK/GD32VW55X_Wifi_BLE_SDK/GD32VW55x_RELEASE_V1.0.2/MSDK/cloud/alicloud/src/services/linkkit/dm\dm_api.c ****     int res = 0;
 1063              		.loc 1 465 1
 1064 000a C64B     		lw	s7,80(sp)
 1065              		.loc 1 468 8
 1066 000c 634B0508 		blt	a0,zero,.L111
 1067 0010 2A89     		mv	s2,a0
 1068 0012 AE89     		mv	s3,a1
 469:C:/Users/stapi/OneDrive/Desktop/GD32VW553/V1_MQTT_OK/GD32VW55X_Wifi_BLE_SDK/GD32VW55x_RELEASE_V1.0.2/MSDK/cloud/alicloud/src/services/linkkit/dm\dm_api.c ****         || payload_len <= 0) {
 470:C:/Users/stapi/OneDrive/Desktop/GD32VW553/V1_MQTT_OK/GD32VW55X_Wifi_BLE_SDK/GD32VW55x_RELEASE_V1.0.2/MSDK/cloud/alicloud/src/services/linkkit/dm\dm_api.c ****         return DM_INVALID_PARAMETER;
 1069              		.loc 1 470 16 discriminator 1
 1070 0014 7955     		li	a0,-2
 1071              	.LVL136:
 468:C:/Users/stapi/OneDrive/Desktop/GD32VW553/V1_MQTT_OK/GD32VW55X_Wifi_BLE_SDK/GD32VW55x_RELEASE_V1.0.2/MSDK/cloud/alicloud/src/services/linkkit/dm\dm_api.c ****         || payload_len <= 0) {
 1072              		.loc 1 468 19 discriminator 1
 1073 0016 C9C1     		beq	a1,zero,.L108
 1074 0018 328A     		mv	s4,a2
 468:C:/Users/stapi/OneDrive/Desktop/GD32VW553/V1_MQTT_OK/GD32VW55X_Wifi_BLE_SDK/GD32VW55x_RELEASE_V1.0.2/MSDK/cloud/alicloud/src/services/linkkit/dm\dm_api.c ****         || payload_len <= 0) {
 1075              		.loc 1 468 36 discriminator 2
 1076 001a 635FC006 		ble	a2,zero,.L108
 1077 001e BA8A     		mv	s5,a4
 468:C:/Users/stapi/OneDrive/Desktop/GD32VW553/V1_MQTT_OK/GD32VW55X_Wifi_BLE_SDK/GD32VW55x_RELEASE_V1.0.2/MSDK/cloud/alicloud/src/services/linkkit/dm\dm_api.c ****         || payload_len <= 0) {
 1078              		.loc 1 468 54 discriminator 3
 1079 0020 25CF     		beq	a4,zero,.L108
 1080 0022 3E8B     		mv	s6,a5
 468:C:/Users/stapi/OneDrive/Desktop/GD32VW553/V1_MQTT_OK/GD32VW55X_Wifi_BLE_SDK/GD32VW55x_RELEASE_V1.0.2/MSDK/cloud/alicloud/src/services/linkkit/dm\dm_api.c ****         || payload_len <= 0) {
 1081              		.loc 1 468 76 discriminator 4
 1082 0024 635AF006 		ble	a5,zero,.L108
 1083 0028 C284     		mv	s1,a6
 468:C:/Users/stapi/OneDrive/Desktop/GD32VW553/V1_MQTT_OK/GD32VW55X_Wifi_BLE_SDK/GD32VW55x_RELEASE_V1.0.2/MSDK/cloud/alicloud/src/services/linkkit/dm\dm_api.c ****         || payload_len <= 0) {
 1084              		.loc 1 468 99 discriminator 5
 1085 002a 63070806 		beq	a6,zero,.L108
 1086 002e 4684     		mv	s0,a7
 469:C:/Users/stapi/OneDrive/Desktop/GD32VW553/V1_MQTT_OK/GD32VW55X_Wifi_BLE_SDK/GD32VW55x_RELEASE_V1.0.2/MSDK/cloud/alicloud/src/services/linkkit/dm\dm_api.c ****         || payload_len <= 0) {
 1087              		.loc 1 469 9
 1088 0030 63541007 		ble	a7,zero,.L108
 1089 0034 368C     		mv	s8,a3
 471:C:/Users/stapi/OneDrive/Desktop/GD32VW553/V1_MQTT_OK/GD32VW55X_Wifi_BLE_SDK/GD32VW55x_RELEASE_V1.0.2/MSDK/cloud/alicloud/src/services/linkkit/dm\dm_api.c ****     }
 472:C:/Users/stapi/OneDrive/Desktop/GD32VW553/V1_MQTT_OK/GD32VW55X_Wifi_BLE_SDK/GD32VW55x_RELEASE_V1.0.2/MSDK/cloud/alicloud/src/services/linkkit/dm\dm_api.c **** 
 473:C:/Users/stapi/OneDrive/Desktop/GD32VW553/V1_MQTT_OK/GD32VW55X_Wifi_BLE_SDK/GD32VW55x_RELEASE_V1.0.2/MSDK/cloud/alicloud/src/services/linkkit/dm\dm_api.c ****     if (ctx == NULL) {
 1090              		.loc 1 473 5 is_stmt 1
 1091              		.loc 1 473 8 is_stmt 0
 1092 0036 63960B00 		bne	s7,zero,.L110
 474:C:/Users/stapi/OneDrive/Desktop/GD32VW553/V1_MQTT_OK/GD32VW55X_Wifi_BLE_SDK/GD32VW55x_RELEASE_V1.0.2/MSDK/cloud/alicloud/src/services/linkkit/dm\dm_api.c ****         _dm_api_lock();
 1093              		.loc 1 474 9 is_stmt 1
 1094 003a 97000000 		call	_dm_api_lock
 1094      E7800000 
 1095              	.LVL137:
 1096              	.L110:
 475:C:/Users/stapi/OneDrive/Desktop/GD32VW553/V1_MQTT_OK/GD32VW55X_Wifi_BLE_SDK/GD32VW55x_RELEASE_V1.0.2/MSDK/cloud/alicloud/src/services/linkkit/dm\dm_api.c ****     }
 476:C:/Users/stapi/OneDrive/Desktop/GD32VW553/V1_MQTT_OK/GD32VW55X_Wifi_BLE_SDK/GD32VW55x_RELEASE_V1.0.2/MSDK/cloud/alicloud/src/services/linkkit/dm\dm_api.c **** 
 477:C:/Users/stapi/OneDrive/Desktop/GD32VW553/V1_MQTT_OK/GD32VW55X_Wifi_BLE_SDK/GD32VW55x_RELEASE_V1.0.2/MSDK/cloud/alicloud/src/services/linkkit/dm\dm_api.c ****     dm_log_debug("Current Service Response Payload, Length: %d, Payload: %.*s", payload_len, payloa
 1097              		.loc 1 477 5
 1098 0042 37070000 		lui	a4,%hi(.LC4)
 1099 0046 B7050000 		lui	a1,%hi(.LANCHOR1)
 1100 004a 37050000 		lui	a0,%hi(.LC5)
 1101 004e A688     		mv	a7,s1
 1102 0050 2288     		mv	a6,s0
 1103 0052 A287     		mv	a5,s0
 1104 0054 13070700 		addi	a4,a4,%lo(.LC4)
 1105 0058 9546     		li	a3,5
 1106 005a 1306D01D 		li	a2,477
 1107 005e 93850500 		addi	a1,a1,%lo(.LANCHOR1)
 1108 0062 13050500 		addi	a0,a0,%lo(.LC5)
 1109 0066 97000000 		call	LITE_syslog
 1109      E7800000 
 1110              	.LVL138:
 478:C:/Users/stapi/OneDrive/Desktop/GD32VW553/V1_MQTT_OK/GD32VW55X_Wifi_BLE_SDK/GD32VW55x_RELEASE_V1.0.2/MSDK/cloud/alicloud/src/services/linkkit/dm\dm_api.c **** 
 479:C:/Users/stapi/OneDrive/Desktop/GD32VW553/V1_MQTT_OK/GD32VW55X_Wifi_BLE_SDK/GD32VW55x_RELEASE_V1.0.2/MSDK/cloud/alicloud/src/services/linkkit/dm\dm_api.c ****     res = dm_mgr_upstream_thing_service_response(devid, msgid, msgid_len, code, identifier, identif
 1111              		.loc 1 479 5
 1112              		.loc 1 479 11 is_stmt 0
 1113 006e A288     		mv	a7,s0
 1114 0070 5EC0     		sw	s7,0(sp)
 1115 0072 2688     		mv	a6,s1
 1116 0074 DA87     		mv	a5,s6
 1117 0076 5687     		mv	a4,s5
 1118 0078 E286     		mv	a3,s8
 1119 007a 5286     		mv	a2,s4
 1120 007c CE85     		mv	a1,s3
 1121 007e 4A85     		mv	a0,s2
 1122 0080 97000000 		call	dm_mgr_upstream_thing_service_response
 1122      E7800000 
 1123              	.LVL139:
 480:C:/Users/stapi/OneDrive/Desktop/GD32VW553/V1_MQTT_OK/GD32VW55X_Wifi_BLE_SDK/GD32VW55x_RELEASE_V1.0.2/MSDK/cloud/alicloud/src/services/linkkit/dm\dm_api.c ****             payload_len, ctx);
 481:C:/Users/stapi/OneDrive/Desktop/GD32VW553/V1_MQTT_OK/GD32VW55X_Wifi_BLE_SDK/GD32VW55x_RELEASE_V1.0.2/MSDK/cloud/alicloud/src/services/linkkit/dm\dm_api.c **** 
 482:C:/Users/stapi/OneDrive/Desktop/GD32VW553/V1_MQTT_OK/GD32VW55X_Wifi_BLE_SDK/GD32VW55x_RELEASE_V1.0.2/MSDK/cloud/alicloud/src/services/linkkit/dm\dm_api.c ****     if (ctx == NULL) {
 1124              		.loc 1 482 5 is_stmt 1
 1125              		.loc 1 482 8 is_stmt 0
 1126 0088 63980B00 		bne	s7,zero,.L108
 1127 008c 2ACE     		sw	a0,28(sp)
 483:C:/Users/stapi/OneDrive/Desktop/GD32VW553/V1_MQTT_OK/GD32VW55X_Wifi_BLE_SDK/GD32VW55x_RELEASE_V1.0.2/MSDK/cloud/alicloud/src/services/linkkit/dm\dm_api.c ****         _dm_api_unlock();
 1128              		.loc 1 483 9 is_stmt 1
 1129 008e 97000000 		call	_dm_api_unlock
 1129      E7800000 
 1130              	.LVL140:
 1131 0096 7245     		lw	a0,28(sp)
 1132              	.LVL141:
 1133              	.L108:
 484:C:/Users/stapi/OneDrive/Desktop/GD32VW553/V1_MQTT_OK/GD32VW55X_Wifi_BLE_SDK/GD32VW55x_RELEASE_V1.0.2/MSDK/cloud/alicloud/src/services/linkkit/dm\dm_api.c ****     }
 485:C:/Users/stapi/OneDrive/Desktop/GD32VW553/V1_MQTT_OK/GD32VW55X_Wifi_BLE_SDK/GD32VW55x_RELEASE_V1.0.2/MSDK/cloud/alicloud/src/services/linkkit/dm\dm_api.c ****     return res;
 486:C:/Users/stapi/OneDrive/Desktop/GD32VW553/V1_MQTT_OK/GD32VW55X_Wifi_BLE_SDK/GD32VW55x_RELEASE_V1.0.2/MSDK/cloud/alicloud/src/services/linkkit/dm\dm_api.c **** }
 1134              		.loc 1 486 1 is_stmt 0
 1135 0098 0561     		addi	sp,sp,32
 1136              		.cfi_remember_state
 1137              		.cfi_def_cfa_offset 0
 1138              	.LVL142:
 1139 009a 17030000 		tail	__riscv_restore_9
 1139      67000300 
 1140              		.cfi_restore 24
 1141              		.cfi_restore 23
 1142              		.cfi_restore 22
 1143              		.cfi_restore 21
 1144              		.cfi_restore 20
 1145              		.cfi_restore 19
 1146              		.cfi_restore 18
 1147              		.cfi_restore 9
 1148              		.cfi_restore 8
 1149              		.cfi_restore 1
 1150              		.cfi_def_cfa_offset -48
 1151              	.LVL143:
 1152              	.L111:
 1153              		.cfi_restore_state
 470:C:/Users/stapi/OneDrive/Desktop/GD32VW553/V1_MQTT_OK/GD32VW55X_Wifi_BLE_SDK/GD32VW55x_RELEASE_V1.0.2/MSDK/cloud/alicloud/src/services/linkkit/dm\dm_api.c ****     }
 1154              		.loc 1 470 16
 1155 00a2 7955     		li	a0,-2
 1156              	.LVL144:
 1157 00a4 D5BF     		j	.L108
 1158              		.cfi_endproc
 1159              	.LFE35:
 1161              		.section	.rodata.iotx_dm_send_property_get_response.str1.4,"aMS",@progbits,1
 1162              		.align	2
 1163              	.LC6:
 1164 0000 43757272 		.string	"Current Property Get Response Payload, Length: %d, Payload: %.*s"
 1164      656E7420 
 1164      50726F70 
 1164      65727479 
 1164      20476574 
 1165              		.section	.text.iotx_dm_send_property_get_response,"ax",@progbits
 1166              		.align	1
 1167              		.globl	iotx_dm_send_property_get_response
 1169              	iotx_dm_send_property_get_response:
 1170              	.LFB36:
 487:C:/Users/stapi/OneDrive/Desktop/GD32VW553/V1_MQTT_OK/GD32VW55X_Wifi_BLE_SDK/GD32VW55x_RELEASE_V1.0.2/MSDK/cloud/alicloud/src/services/linkkit/dm\dm_api.c **** #else
 488:C:/Users/stapi/OneDrive/Desktop/GD32VW553/V1_MQTT_OK/GD32VW55X_Wifi_BLE_SDK/GD32VW55x_RELEASE_V1.0.2/MSDK/cloud/alicloud/src/services/linkkit/dm\dm_api.c **** int iotx_dm_send_service_response(_IN_ int devid, _IN_ char *msgid, _IN_ int msgid_len, _IN_ iotx_d
 489:C:/Users/stapi/OneDrive/Desktop/GD32VW553/V1_MQTT_OK/GD32VW55X_Wifi_BLE_SDK/GD32VW55x_RELEASE_V1.0.2/MSDK/cloud/alicloud/src/services/linkkit/dm\dm_api.c ****                                   _IN_ char *identifier,
 490:C:/Users/stapi/OneDrive/Desktop/GD32VW553/V1_MQTT_OK/GD32VW55X_Wifi_BLE_SDK/GD32VW55x_RELEASE_V1.0.2/MSDK/cloud/alicloud/src/services/linkkit/dm\dm_api.c ****                                   _IN_ int identifier_len, _IN_ char *payload, _IN_ int payload_len
 491:C:/Users/stapi/OneDrive/Desktop/GD32VW553/V1_MQTT_OK/GD32VW55X_Wifi_BLE_SDK/GD32VW55x_RELEASE_V1.0.2/MSDK/cloud/alicloud/src/services/linkkit/dm\dm_api.c **** {
 492:C:/Users/stapi/OneDrive/Desktop/GD32VW553/V1_MQTT_OK/GD32VW55X_Wifi_BLE_SDK/GD32VW55x_RELEASE_V1.0.2/MSDK/cloud/alicloud/src/services/linkkit/dm\dm_api.c ****     int res = 0;
 493:C:/Users/stapi/OneDrive/Desktop/GD32VW553/V1_MQTT_OK/GD32VW55X_Wifi_BLE_SDK/GD32VW55x_RELEASE_V1.0.2/MSDK/cloud/alicloud/src/services/linkkit/dm\dm_api.c ****     if (devid < 0 || msgid == NULL || msgid_len <= 0 || identifier == NULL || identifier_len <= 0 |
 494:C:/Users/stapi/OneDrive/Desktop/GD32VW553/V1_MQTT_OK/GD32VW55X_Wifi_BLE_SDK/GD32VW55x_RELEASE_V1.0.2/MSDK/cloud/alicloud/src/services/linkkit/dm\dm_api.c ****         || payload_len <= 0) {
 495:C:/Users/stapi/OneDrive/Desktop/GD32VW553/V1_MQTT_OK/GD32VW55X_Wifi_BLE_SDK/GD32VW55x_RELEASE_V1.0.2/MSDK/cloud/alicloud/src/services/linkkit/dm\dm_api.c ****         return DM_INVALID_PARAMETER;
 496:C:/Users/stapi/OneDrive/Desktop/GD32VW553/V1_MQTT_OK/GD32VW55X_Wifi_BLE_SDK/GD32VW55x_RELEASE_V1.0.2/MSDK/cloud/alicloud/src/services/linkkit/dm\dm_api.c ****     }
 497:C:/Users/stapi/OneDrive/Desktop/GD32VW553/V1_MQTT_OK/GD32VW55X_Wifi_BLE_SDK/GD32VW55x_RELEASE_V1.0.2/MSDK/cloud/alicloud/src/services/linkkit/dm\dm_api.c ****     _dm_api_lock();
 498:C:/Users/stapi/OneDrive/Desktop/GD32VW553/V1_MQTT_OK/GD32VW55X_Wifi_BLE_SDK/GD32VW55x_RELEASE_V1.0.2/MSDK/cloud/alicloud/src/services/linkkit/dm\dm_api.c ****     dm_log_debug("Current Service Response Payload, Length: %d, Payload: %.*s", payload_len, payloa
 499:C:/Users/stapi/OneDrive/Desktop/GD32VW553/V1_MQTT_OK/GD32VW55X_Wifi_BLE_SDK/GD32VW55x_RELEASE_V1.0.2/MSDK/cloud/alicloud/src/services/linkkit/dm\dm_api.c ****     res = dm_mgr_upstream_thing_service_response(devid, msgid, msgid_len, code, identifier, identif
 500:C:/Users/stapi/OneDrive/Desktop/GD32VW553/V1_MQTT_OK/GD32VW55X_Wifi_BLE_SDK/GD32VW55x_RELEASE_V1.0.2/MSDK/cloud/alicloud/src/services/linkkit/dm\dm_api.c ****             payload_len);
 501:C:/Users/stapi/OneDrive/Desktop/GD32VW553/V1_MQTT_OK/GD32VW55X_Wifi_BLE_SDK/GD32VW55x_RELEASE_V1.0.2/MSDK/cloud/alicloud/src/services/linkkit/dm\dm_api.c ****     _dm_api_unlock();
 502:C:/Users/stapi/OneDrive/Desktop/GD32VW553/V1_MQTT_OK/GD32VW55X_Wifi_BLE_SDK/GD32VW55x_RELEASE_V1.0.2/MSDK/cloud/alicloud/src/services/linkkit/dm\dm_api.c ****     return res;
 503:C:/Users/stapi/OneDrive/Desktop/GD32VW553/V1_MQTT_OK/GD32VW55X_Wifi_BLE_SDK/GD32VW55x_RELEASE_V1.0.2/MSDK/cloud/alicloud/src/services/linkkit/dm\dm_api.c **** }
 504:C:/Users/stapi/OneDrive/Desktop/GD32VW553/V1_MQTT_OK/GD32VW55X_Wifi_BLE_SDK/GD32VW55x_RELEASE_V1.0.2/MSDK/cloud/alicloud/src/services/linkkit/dm\dm_api.c **** #endif
 505:C:/Users/stapi/OneDrive/Desktop/GD32VW553/V1_MQTT_OK/GD32VW55X_Wifi_BLE_SDK/GD32VW55x_RELEASE_V1.0.2/MSDK/cloud/alicloud/src/services/linkkit/dm\dm_api.c **** 
 506:C:/Users/stapi/OneDrive/Desktop/GD32VW553/V1_MQTT_OK/GD32VW55X_Wifi_BLE_SDK/GD32VW55x_RELEASE_V1.0.2/MSDK/cloud/alicloud/src/services/linkkit/dm\dm_api.c **** int iotx_dm_send_property_get_response(_IN_ int devid, _IN_ char *msgid, _IN_ int msgid_len,
 507:C:/Users/stapi/OneDrive/Desktop/GD32VW553/V1_MQTT_OK/GD32VW55X_Wifi_BLE_SDK/GD32VW55x_RELEASE_V1.0.2/MSDK/cloud/alicloud/src/services/linkkit/dm\dm_api.c ****                                        _IN_ iotx_dm_error_code_t code, _IN_ char *payload, _IN_ int
 508:C:/Users/stapi/OneDrive/Desktop/GD32VW553/V1_MQTT_OK/GD32VW55X_Wifi_BLE_SDK/GD32VW55x_RELEASE_V1.0.2/MSDK/cloud/alicloud/src/services/linkkit/dm\dm_api.c **** {
 1171              		.loc 1 508 1 is_stmt 1
 1172              		.cfi_startproc
 1173              	.LVL145:
 509:C:/Users/stapi/OneDrive/Desktop/GD32VW553/V1_MQTT_OK/GD32VW55X_Wifi_BLE_SDK/GD32VW55x_RELEASE_V1.0.2/MSDK/cloud/alicloud/src/services/linkkit/dm\dm_api.c ****     int res = 0;
 1174              		.loc 1 509 5
 510:C:/Users/stapi/OneDrive/Desktop/GD32VW553/V1_MQTT_OK/GD32VW55X_Wifi_BLE_SDK/GD32VW55x_RELEASE_V1.0.2/MSDK/cloud/alicloud/src/services/linkkit/dm\dm_api.c **** 
 511:C:/Users/stapi/OneDrive/Desktop/GD32VW553/V1_MQTT_OK/GD32VW55X_Wifi_BLE_SDK/GD32VW55x_RELEASE_V1.0.2/MSDK/cloud/alicloud/src/services/linkkit/dm\dm_api.c ****     if (devid < 0 || msgid == NULL || msgid_len <= 0 || payload == NULL || payload_len <= 0) {
 1175              		.loc 1 511 5
 1176              		.loc 1 511 8 is_stmt 0
 1177 0000 63450508 		blt	a0,zero,.L121
 508:C:/Users/stapi/OneDrive/Desktop/GD32VW553/V1_MQTT_OK/GD32VW55X_Wifi_BLE_SDK/GD32VW55x_RELEASE_V1.0.2/MSDK/cloud/alicloud/src/services/linkkit/dm\dm_api.c ****     int res = 0;
 1178              		.loc 1 508 1 discriminator 1
 1179 0004 17030000 		call	t0,__riscv_save_7
 1179      E7020300 
 1180              		.cfi_offset 22, -32
 1181              		.cfi_offset 21, -28
 1182              		.cfi_offset 20, -24
 1183              		.cfi_offset 19, -20
 1184              		.cfi_offset 18, -16
 1185              		.cfi_offset 9, -12
 1186              		.cfi_offset 8, -8
 1187              		.cfi_offset 1, -4
 1188              		.cfi_def_cfa_offset 32
 1189 000c 2A89     		mv	s2,a0
 1190 000e 4111     		addi	sp,sp,-16
 1191              		.cfi_def_cfa_offset 48
 1192 0010 AE89     		mv	s3,a1
 512:C:/Users/stapi/OneDrive/Desktop/GD32VW553/V1_MQTT_OK/GD32VW55X_Wifi_BLE_SDK/GD32VW55x_RELEASE_V1.0.2/MSDK/cloud/alicloud/src/services/linkkit/dm\dm_api.c ****         return DM_INVALID_PARAMETER;
 1193              		.loc 1 512 16 discriminator 1
 1194 0012 7955     		li	a0,-2
 1195              	.LVL146:
 511:C:/Users/stapi/OneDrive/Desktop/GD32VW553/V1_MQTT_OK/GD32VW55X_Wifi_BLE_SDK/GD32VW55x_RELEASE_V1.0.2/MSDK/cloud/alicloud/src/services/linkkit/dm\dm_api.c ****         return DM_INVALID_PARAMETER;
 1196              		.loc 1 511 19 discriminator 1
 1197 0014 B5C5     		beq	a1,zero,.L119
 1198 0016 328A     		mv	s4,a2
 511:C:/Users/stapi/OneDrive/Desktop/GD32VW553/V1_MQTT_OK/GD32VW55X_Wifi_BLE_SDK/GD32VW55x_RELEASE_V1.0.2/MSDK/cloud/alicloud/src/services/linkkit/dm\dm_api.c ****         return DM_INVALID_PARAMETER;
 1199              		.loc 1 511 36 discriminator 2
 1200 0018 6354C006 		ble	a2,zero,.L119
 1201 001c BA84     		mv	s1,a4
 511:C:/Users/stapi/OneDrive/Desktop/GD32VW553/V1_MQTT_OK/GD32VW55X_Wifi_BLE_SDK/GD32VW55x_RELEASE_V1.0.2/MSDK/cloud/alicloud/src/services/linkkit/dm\dm_api.c ****         return DM_INVALID_PARAMETER;
 1202              		.loc 1 511 54 discriminator 3
 1203 001e 2DC3     		beq	a4,zero,.L119
 1204 0020 3E84     		mv	s0,a5
 511:C:/Users/stapi/OneDrive/Desktop/GD32VW553/V1_MQTT_OK/GD32VW55X_Wifi_BLE_SDK/GD32VW55x_RELEASE_V1.0.2/MSDK/cloud/alicloud/src/services/linkkit/dm\dm_api.c ****         return DM_INVALID_PARAMETER;
 1205              		.loc 1 511 73 discriminator 4
 1206 0022 635FF004 		ble	a5,zero,.L119
 1207 0026 B68A     		mv	s5,a3
 1208 0028 428B     		mv	s6,a6
 513:C:/Users/stapi/OneDrive/Desktop/GD32VW553/V1_MQTT_OK/GD32VW55X_Wifi_BLE_SDK/GD32VW55x_RELEASE_V1.0.2/MSDK/cloud/alicloud/src/services/linkkit/dm\dm_api.c ****     }
 514:C:/Users/stapi/OneDrive/Desktop/GD32VW553/V1_MQTT_OK/GD32VW55X_Wifi_BLE_SDK/GD32VW55x_RELEASE_V1.0.2/MSDK/cloud/alicloud/src/services/linkkit/dm\dm_api.c **** 
 515:C:/Users/stapi/OneDrive/Desktop/GD32VW553/V1_MQTT_OK/GD32VW55X_Wifi_BLE_SDK/GD32VW55x_RELEASE_V1.0.2/MSDK/cloud/alicloud/src/services/linkkit/dm\dm_api.c ****     _dm_api_lock();
 1209              		.loc 1 515 5 is_stmt 1
 1210 002a 97000000 		call	_dm_api_lock
 1210      E7800000 
 1211              	.LVL147:
 516:C:/Users/stapi/OneDrive/Desktop/GD32VW553/V1_MQTT_OK/GD32VW55X_Wifi_BLE_SDK/GD32VW55x_RELEASE_V1.0.2/MSDK/cloud/alicloud/src/services/linkkit/dm\dm_api.c **** 
 517:C:/Users/stapi/OneDrive/Desktop/GD32VW553/V1_MQTT_OK/GD32VW55X_Wifi_BLE_SDK/GD32VW55x_RELEASE_V1.0.2/MSDK/cloud/alicloud/src/services/linkkit/dm\dm_api.c ****     dm_log_debug("Current Property Get Response Payload, Length: %d, Payload: %.*s", payload_len, p
 1212              		.loc 1 517 5
 1213 0032 37070000 		lui	a4,%hi(.LC6)
 1214 0036 B7050000 		lui	a1,%hi(.LANCHOR2)
 1215 003a 37050000 		lui	a0,%hi(.LC5)
 1216 003e A688     		mv	a7,s1
 1217 0040 2288     		mv	a6,s0
 1218 0042 A287     		mv	a5,s0
 1219 0044 13070700 		addi	a4,a4,%lo(.LC6)
 1220 0048 9546     		li	a3,5
 1221 004a 13065020 		li	a2,517
 1222 004e 93850500 		addi	a1,a1,%lo(.LANCHOR2)
 1223 0052 13050500 		addi	a0,a0,%lo(.LC5)
 1224 0056 97000000 		call	LITE_syslog
 1224      E7800000 
 1225              	.LVL148:
 518:C:/Users/stapi/OneDrive/Desktop/GD32VW553/V1_MQTT_OK/GD32VW55X_Wifi_BLE_SDK/GD32VW55x_RELEASE_V1.0.2/MSDK/cloud/alicloud/src/services/linkkit/dm\dm_api.c **** 
 519:C:/Users/stapi/OneDrive/Desktop/GD32VW553/V1_MQTT_OK/GD32VW55X_Wifi_BLE_SDK/GD32VW55x_RELEASE_V1.0.2/MSDK/cloud/alicloud/src/services/linkkit/dm\dm_api.c ****     res = dm_mgr_upstream_thing_property_get_response(devid, msgid, msgid_len, code, payload,
 1226              		.loc 1 519 5
 1227              		.loc 1 519 11 is_stmt 0
 1228 005e 5A88     		mv	a6,s6
 1229 0060 A287     		mv	a5,s0
 1230 0062 2687     		mv	a4,s1
 1231 0064 D686     		mv	a3,s5
 1232 0066 5286     		mv	a2,s4
 1233 0068 CE85     		mv	a1,s3
 1234 006a 4A85     		mv	a0,s2
 1235 006c 97000000 		call	dm_mgr_upstream_thing_property_get_response
 1235      E7800000 
 1236              	.LVL149:
 1237 0074 2AC6     		sw	a0,12(sp)
 1238              	.LVL150:
 520:C:/Users/stapi/OneDrive/Desktop/GD32VW553/V1_MQTT_OK/GD32VW55X_Wifi_BLE_SDK/GD32VW55x_RELEASE_V1.0.2/MSDK/cloud/alicloud/src/services/linkkit/dm\dm_api.c ****             payload_len, ctx);
 521:C:/Users/stapi/OneDrive/Desktop/GD32VW553/V1_MQTT_OK/GD32VW55X_Wifi_BLE_SDK/GD32VW55x_RELEASE_V1.0.2/MSDK/cloud/alicloud/src/services/linkkit/dm\dm_api.c **** 
 522:C:/Users/stapi/OneDrive/Desktop/GD32VW553/V1_MQTT_OK/GD32VW55X_Wifi_BLE_SDK/GD32VW55x_RELEASE_V1.0.2/MSDK/cloud/alicloud/src/services/linkkit/dm\dm_api.c ****     _dm_api_unlock();
 1239              		.loc 1 522 5 is_stmt 1
 1240 0076 97000000 		call	_dm_api_unlock
 1240      E7800000 
 1241              	.LVL151:
 523:C:/Users/stapi/OneDrive/Desktop/GD32VW553/V1_MQTT_OK/GD32VW55X_Wifi_BLE_SDK/GD32VW55x_RELEASE_V1.0.2/MSDK/cloud/alicloud/src/services/linkkit/dm\dm_api.c ****     return res;
 1242              		.loc 1 523 5
 1243              		.loc 1 523 12 is_stmt 0
 1244 007e 3245     		lw	a0,12(sp)
 1245              	.LVL152:
 1246              	.L119:
 524:C:/Users/stapi/OneDrive/Desktop/GD32VW553/V1_MQTT_OK/GD32VW55X_Wifi_BLE_SDK/GD32VW55x_RELEASE_V1.0.2/MSDK/cloud/alicloud/src/services/linkkit/dm\dm_api.c **** }
 1247              		.loc 1 524 1
 1248 0080 4101     		addi	sp,sp,16
 1249              		.cfi_def_cfa_offset 0
 1250 0082 17030000 		tail	__riscv_restore_7
 1250      67000300 
 1251              		.cfi_restore 22
 1252              		.cfi_restore 21
 1253              		.cfi_restore 20
 1254              		.cfi_restore 19
 1255              		.cfi_restore 18
 1256              		.cfi_restore 9
 1257              		.cfi_restore 8
 1258              		.cfi_restore 1
 1259              		.cfi_def_cfa_offset -32
 1260              	.LVL153:
 1261              	.L121:
 1262              		.cfi_def_cfa_offset 0
 512:C:/Users/stapi/OneDrive/Desktop/GD32VW553/V1_MQTT_OK/GD32VW55X_Wifi_BLE_SDK/GD32VW55x_RELEASE_V1.0.2/MSDK/cloud/alicloud/src/services/linkkit/dm\dm_api.c ****     }
 1263              		.loc 1 512 16
 1264 008a 7955     		li	a0,-2
 1265              	.LVL154:
 1266              		.loc 1 524 1
 1267 008c 8280     		ret
 1268              		.cfi_endproc
 1269              	.LFE36:
 1271              		.section	.text.iotx_dm_deviceinfo_update,"ax",@progbits
 1272              		.align	1
 1273              		.globl	iotx_dm_deviceinfo_update
 1275              	iotx_dm_deviceinfo_update:
 1276              	.LFB37:
 525:C:/Users/stapi/OneDrive/Desktop/GD32VW553/V1_MQTT_OK/GD32VW55X_Wifi_BLE_SDK/GD32VW55x_RELEASE_V1.0.2/MSDK/cloud/alicloud/src/services/linkkit/dm\dm_api.c **** 
 526:C:/Users/stapi/OneDrive/Desktop/GD32VW553/V1_MQTT_OK/GD32VW55X_Wifi_BLE_SDK/GD32VW55x_RELEASE_V1.0.2/MSDK/cloud/alicloud/src/services/linkkit/dm\dm_api.c **** int iotx_dm_deviceinfo_update(_IN_ int devid, _IN_ char *payload, _IN_ int payload_len)
 527:C:/Users/stapi/OneDrive/Desktop/GD32VW553/V1_MQTT_OK/GD32VW55X_Wifi_BLE_SDK/GD32VW55x_RELEASE_V1.0.2/MSDK/cloud/alicloud/src/services/linkkit/dm\dm_api.c **** {
 1277              		.loc 1 527 1 is_stmt 1
 1278              		.cfi_startproc
 1279              	.LVL155:
 1280 0000 17030000 		call	t0,__riscv_save_1
 1280      E7020300 
 1281              		.cfi_offset 8, -8
 1282              		.cfi_offset 1, -4
 1283              		.cfi_def_cfa_offset 16
 528:C:/Users/stapi/OneDrive/Desktop/GD32VW553/V1_MQTT_OK/GD32VW55X_Wifi_BLE_SDK/GD32VW55x_RELEASE_V1.0.2/MSDK/cloud/alicloud/src/services/linkkit/dm\dm_api.c ****     int res = 0;
 1284              		.loc 1 528 5
 1285              	.LVL156:
 529:C:/Users/stapi/OneDrive/Desktop/GD32VW553/V1_MQTT_OK/GD32VW55X_Wifi_BLE_SDK/GD32VW55x_RELEASE_V1.0.2/MSDK/cloud/alicloud/src/services/linkkit/dm\dm_api.c **** 
 530:C:/Users/stapi/OneDrive/Desktop/GD32VW553/V1_MQTT_OK/GD32VW55X_Wifi_BLE_SDK/GD32VW55x_RELEASE_V1.0.2/MSDK/cloud/alicloud/src/services/linkkit/dm\dm_api.c ****     if (devid < 0 || payload == NULL || payload_len <= 0) {
 1286              		.loc 1 530 5
 527:C:/Users/stapi/OneDrive/Desktop/GD32VW553/V1_MQTT_OK/GD32VW55X_Wifi_BLE_SDK/GD32VW55x_RELEASE_V1.0.2/MSDK/cloud/alicloud/src/services/linkkit/dm\dm_api.c ****     int res = 0;
 1287              		.loc 1 527 1 is_stmt 0
 1288 0008 4111     		addi	sp,sp,-16
 1289              		.cfi_def_cfa_offset 32
 1290              		.loc 1 530 8
 1291 000a 2AC6     		sw	a0,12(sp)
 531:C:/Users/stapi/OneDrive/Desktop/GD32VW553/V1_MQTT_OK/GD32VW55X_Wifi_BLE_SDK/GD32VW55x_RELEASE_V1.0.2/MSDK/cloud/alicloud/src/services/linkkit/dm\dm_api.c ****         return DM_INVALID_PARAMETER;
 1292              		.loc 1 531 16
 1293 000c 7954     		li	s0,-2
 530:C:/Users/stapi/OneDrive/Desktop/GD32VW553/V1_MQTT_OK/GD32VW55X_Wifi_BLE_SDK/GD32VW55x_RELEASE_V1.0.2/MSDK/cloud/alicloud/src/services/linkkit/dm\dm_api.c ****         return DM_INVALID_PARAMETER;
 1294              		.loc 1 530 8
 1295 000e 634A0502 		blt	a0,zero,.L130
 530:C:/Users/stapi/OneDrive/Desktop/GD32VW553/V1_MQTT_OK/GD32VW55X_Wifi_BLE_SDK/GD32VW55x_RELEASE_V1.0.2/MSDK/cloud/alicloud/src/services/linkkit/dm\dm_api.c ****         return DM_INVALID_PARAMETER;
 1296              		.loc 1 530 19 discriminator 1
 1297 0012 2EC4     		sw	a1,8(sp)
 1298 0014 9DC5     		beq	a1,zero,.L130
 530:C:/Users/stapi/OneDrive/Desktop/GD32VW553/V1_MQTT_OK/GD32VW55X_Wifi_BLE_SDK/GD32VW55x_RELEASE_V1.0.2/MSDK/cloud/alicloud/src/services/linkkit/dm\dm_api.c ****         return DM_INVALID_PARAMETER;
 1299              		.loc 1 530 38 discriminator 2
 1300 0016 32C2     		sw	a2,4(sp)
 1301 0018 6355C002 		ble	a2,zero,.L130
 532:C:/Users/stapi/OneDrive/Desktop/GD32VW553/V1_MQTT_OK/GD32VW55X_Wifi_BLE_SDK/GD32VW55x_RELEASE_V1.0.2/MSDK/cloud/alicloud/src/services/linkkit/dm\dm_api.c ****     }
 533:C:/Users/stapi/OneDrive/Desktop/GD32VW553/V1_MQTT_OK/GD32VW55X_Wifi_BLE_SDK/GD32VW55x_RELEASE_V1.0.2/MSDK/cloud/alicloud/src/services/linkkit/dm\dm_api.c **** 
 534:C:/Users/stapi/OneDrive/Desktop/GD32VW553/V1_MQTT_OK/GD32VW55X_Wifi_BLE_SDK/GD32VW55x_RELEASE_V1.0.2/MSDK/cloud/alicloud/src/services/linkkit/dm\dm_api.c ****     _dm_api_lock();
 1302              		.loc 1 534 5 is_stmt 1
 1303 001c 97000000 		call	_dm_api_lock
 1303      E7800000 
 1304              	.LVL157:
 535:C:/Users/stapi/OneDrive/Desktop/GD32VW553/V1_MQTT_OK/GD32VW55X_Wifi_BLE_SDK/GD32VW55x_RELEASE_V1.0.2/MSDK/cloud/alicloud/src/services/linkkit/dm\dm_api.c **** 
 536:C:/Users/stapi/OneDrive/Desktop/GD32VW553/V1_MQTT_OK/GD32VW55X_Wifi_BLE_SDK/GD32VW55x_RELEASE_V1.0.2/MSDK/cloud/alicloud/src/services/linkkit/dm\dm_api.c ****     res = dm_mgr_upstream_thing_deviceinfo_update(devid, payload, payload_len);
 1305              		.loc 1 536 5
 1306              		.loc 1 536 11 is_stmt 0
 1307 0024 1246     		lw	a2,4(sp)
 1308 0026 A245     		lw	a1,8(sp)
 1309 0028 3245     		lw	a0,12(sp)
 1310 002a 97000000 		call	dm_mgr_upstream_thing_deviceinfo_update
 1310      E7800000 
 1311              	.LVL158:
 1312 0032 2A84     		mv	s0,a0
 1313              	.LVL159:
 537:C:/Users/stapi/OneDrive/Desktop/GD32VW553/V1_MQTT_OK/GD32VW55X_Wifi_BLE_SDK/GD32VW55x_RELEASE_V1.0.2/MSDK/cloud/alicloud/src/services/linkkit/dm\dm_api.c ****     if (res < SUCCESS_RETURN) {
 1314              		.loc 1 537 5 is_stmt 1
 1315              		.loc 1 537 8 is_stmt 0
 1316 0034 635D0500 		bge	a0,zero,.L132
 538:C:/Users/stapi/OneDrive/Desktop/GD32VW553/V1_MQTT_OK/GD32VW55X_Wifi_BLE_SDK/GD32VW55x_RELEASE_V1.0.2/MSDK/cloud/alicloud/src/services/linkkit/dm\dm_api.c ****         _dm_api_unlock();
 1317              		.loc 1 538 9 is_stmt 1
 1318 0038 97000000 		call	_dm_api_unlock
 1318      E7800000 
 1319              	.LVL160:
 539:C:/Users/stapi/OneDrive/Desktop/GD32VW553/V1_MQTT_OK/GD32VW55X_Wifi_BLE_SDK/GD32VW55x_RELEASE_V1.0.2/MSDK/cloud/alicloud/src/services/linkkit/dm\dm_api.c ****         return FAIL_RETURN;
 1320              		.loc 1 539 9
 1321              		.loc 1 539 16 is_stmt 0
 1322 0040 7D54     		li	s0,-1
 1323              	.LVL161:
 1324              	.L130:
 540:C:/Users/stapi/OneDrive/Desktop/GD32VW553/V1_MQTT_OK/GD32VW55X_Wifi_BLE_SDK/GD32VW55x_RELEASE_V1.0.2/MSDK/cloud/alicloud/src/services/linkkit/dm\dm_api.c ****     }
 541:C:/Users/stapi/OneDrive/Desktop/GD32VW553/V1_MQTT_OK/GD32VW55X_Wifi_BLE_SDK/GD32VW55x_RELEASE_V1.0.2/MSDK/cloud/alicloud/src/services/linkkit/dm\dm_api.c **** 
 542:C:/Users/stapi/OneDrive/Desktop/GD32VW553/V1_MQTT_OK/GD32VW55X_Wifi_BLE_SDK/GD32VW55x_RELEASE_V1.0.2/MSDK/cloud/alicloud/src/services/linkkit/dm\dm_api.c ****     _dm_api_unlock();
 543:C:/Users/stapi/OneDrive/Desktop/GD32VW553/V1_MQTT_OK/GD32VW55X_Wifi_BLE_SDK/GD32VW55x_RELEASE_V1.0.2/MSDK/cloud/alicloud/src/services/linkkit/dm\dm_api.c ****     return res;
 544:C:/Users/stapi/OneDrive/Desktop/GD32VW553/V1_MQTT_OK/GD32VW55X_Wifi_BLE_SDK/GD32VW55x_RELEASE_V1.0.2/MSDK/cloud/alicloud/src/services/linkkit/dm\dm_api.c **** }
 1325              		.loc 1 544 1
 1326 0042 2285     		mv	a0,s0
 1327 0044 4101     		addi	sp,sp,16
 1328              		.cfi_remember_state
 1329              		.cfi_def_cfa_offset 0
 1330              	.LVL162:
 1331 0046 17030000 		tail	__riscv_restore_1
 1331      67000300 
 1332              		.cfi_restore 8
 1333              		.cfi_restore 1
 1334              		.cfi_def_cfa_offset -16
 1335              	.LVL163:
 1336              	.L132:
 1337              		.cfi_restore_state
 542:C:/Users/stapi/OneDrive/Desktop/GD32VW553/V1_MQTT_OK/GD32VW55X_Wifi_BLE_SDK/GD32VW55x_RELEASE_V1.0.2/MSDK/cloud/alicloud/src/services/linkkit/dm\dm_api.c ****     return res;
 1338              		.loc 1 542 5 is_stmt 1
 1339 004e 97000000 		call	_dm_api_unlock
 1339      E7800000 
 1340              	.LVL164:
 543:C:/Users/stapi/OneDrive/Desktop/GD32VW553/V1_MQTT_OK/GD32VW55X_Wifi_BLE_SDK/GD32VW55x_RELEASE_V1.0.2/MSDK/cloud/alicloud/src/services/linkkit/dm\dm_api.c **** }
 1341              		.loc 1 543 5
 543:C:/Users/stapi/OneDrive/Desktop/GD32VW553/V1_MQTT_OK/GD32VW55X_Wifi_BLE_SDK/GD32VW55x_RELEASE_V1.0.2/MSDK/cloud/alicloud/src/services/linkkit/dm\dm_api.c **** }
 1342              		.loc 1 543 12 is_stmt 0
 1343 0056 F5B7     		j	.L130
 1344              		.cfi_endproc
 1345              	.LFE37:
 1347              		.section	.text.iotx_dm_deviceinfo_delete,"ax",@progbits
 1348              		.align	1
 1349              		.globl	iotx_dm_deviceinfo_delete
 1351              	iotx_dm_deviceinfo_delete:
 1352              	.LFB38:
 545:C:/Users/stapi/OneDrive/Desktop/GD32VW553/V1_MQTT_OK/GD32VW55X_Wifi_BLE_SDK/GD32VW55x_RELEASE_V1.0.2/MSDK/cloud/alicloud/src/services/linkkit/dm\dm_api.c **** 
 546:C:/Users/stapi/OneDrive/Desktop/GD32VW553/V1_MQTT_OK/GD32VW55X_Wifi_BLE_SDK/GD32VW55x_RELEASE_V1.0.2/MSDK/cloud/alicloud/src/services/linkkit/dm\dm_api.c **** int iotx_dm_deviceinfo_delete(_IN_ int devid, _IN_ char *payload, _IN_ int payload_len)
 547:C:/Users/stapi/OneDrive/Desktop/GD32VW553/V1_MQTT_OK/GD32VW55X_Wifi_BLE_SDK/GD32VW55x_RELEASE_V1.0.2/MSDK/cloud/alicloud/src/services/linkkit/dm\dm_api.c **** {
 1353              		.loc 1 547 1 is_stmt 1
 1354              		.cfi_startproc
 1355              	.LVL165:
 1356 0000 17030000 		call	t0,__riscv_save_1
 1356      E7020300 
 1357              		.cfi_offset 8, -8
 1358              		.cfi_offset 1, -4
 1359              		.cfi_def_cfa_offset 16
 548:C:/Users/stapi/OneDrive/Desktop/GD32VW553/V1_MQTT_OK/GD32VW55X_Wifi_BLE_SDK/GD32VW55x_RELEASE_V1.0.2/MSDK/cloud/alicloud/src/services/linkkit/dm\dm_api.c ****     int res = 0;
 1360              		.loc 1 548 5
 1361              	.LVL166:
 549:C:/Users/stapi/OneDrive/Desktop/GD32VW553/V1_MQTT_OK/GD32VW55X_Wifi_BLE_SDK/GD32VW55x_RELEASE_V1.0.2/MSDK/cloud/alicloud/src/services/linkkit/dm\dm_api.c **** 
 550:C:/Users/stapi/OneDrive/Desktop/GD32VW553/V1_MQTT_OK/GD32VW55X_Wifi_BLE_SDK/GD32VW55x_RELEASE_V1.0.2/MSDK/cloud/alicloud/src/services/linkkit/dm\dm_api.c ****     if (devid < 0 || payload == NULL || payload_len <= 0) {
 1362              		.loc 1 550 5
 547:C:/Users/stapi/OneDrive/Desktop/GD32VW553/V1_MQTT_OK/GD32VW55X_Wifi_BLE_SDK/GD32VW55x_RELEASE_V1.0.2/MSDK/cloud/alicloud/src/services/linkkit/dm\dm_api.c ****     int res = 0;
 1363              		.loc 1 547 1 is_stmt 0
 1364 0008 4111     		addi	sp,sp,-16
 1365              		.cfi_def_cfa_offset 32
 1366              		.loc 1 550 8
 1367 000a 2AC6     		sw	a0,12(sp)
 551:C:/Users/stapi/OneDrive/Desktop/GD32VW553/V1_MQTT_OK/GD32VW55X_Wifi_BLE_SDK/GD32VW55x_RELEASE_V1.0.2/MSDK/cloud/alicloud/src/services/linkkit/dm\dm_api.c ****         return DM_INVALID_PARAMETER;
 1368              		.loc 1 551 16
 1369 000c 7954     		li	s0,-2
 550:C:/Users/stapi/OneDrive/Desktop/GD32VW553/V1_MQTT_OK/GD32VW55X_Wifi_BLE_SDK/GD32VW55x_RELEASE_V1.0.2/MSDK/cloud/alicloud/src/services/linkkit/dm\dm_api.c ****         return DM_INVALID_PARAMETER;
 1370              		.loc 1 550 8
 1371 000e 634A0502 		blt	a0,zero,.L137
 550:C:/Users/stapi/OneDrive/Desktop/GD32VW553/V1_MQTT_OK/GD32VW55X_Wifi_BLE_SDK/GD32VW55x_RELEASE_V1.0.2/MSDK/cloud/alicloud/src/services/linkkit/dm\dm_api.c ****         return DM_INVALID_PARAMETER;
 1372              		.loc 1 550 19 discriminator 1
 1373 0012 2EC4     		sw	a1,8(sp)
 1374 0014 9DC5     		beq	a1,zero,.L137
 550:C:/Users/stapi/OneDrive/Desktop/GD32VW553/V1_MQTT_OK/GD32VW55X_Wifi_BLE_SDK/GD32VW55x_RELEASE_V1.0.2/MSDK/cloud/alicloud/src/services/linkkit/dm\dm_api.c ****         return DM_INVALID_PARAMETER;
 1375              		.loc 1 550 38 discriminator 2
 1376 0016 32C2     		sw	a2,4(sp)
 1377 0018 6355C002 		ble	a2,zero,.L137
 552:C:/Users/stapi/OneDrive/Desktop/GD32VW553/V1_MQTT_OK/GD32VW55X_Wifi_BLE_SDK/GD32VW55x_RELEASE_V1.0.2/MSDK/cloud/alicloud/src/services/linkkit/dm\dm_api.c ****     }
 553:C:/Users/stapi/OneDrive/Desktop/GD32VW553/V1_MQTT_OK/GD32VW55X_Wifi_BLE_SDK/GD32VW55x_RELEASE_V1.0.2/MSDK/cloud/alicloud/src/services/linkkit/dm\dm_api.c **** 
 554:C:/Users/stapi/OneDrive/Desktop/GD32VW553/V1_MQTT_OK/GD32VW55X_Wifi_BLE_SDK/GD32VW55x_RELEASE_V1.0.2/MSDK/cloud/alicloud/src/services/linkkit/dm\dm_api.c ****     _dm_api_lock();
 1378              		.loc 1 554 5 is_stmt 1
 1379 001c 97000000 		call	_dm_api_lock
 1379      E7800000 
 1380              	.LVL167:
 555:C:/Users/stapi/OneDrive/Desktop/GD32VW553/V1_MQTT_OK/GD32VW55X_Wifi_BLE_SDK/GD32VW55x_RELEASE_V1.0.2/MSDK/cloud/alicloud/src/services/linkkit/dm\dm_api.c **** 
 556:C:/Users/stapi/OneDrive/Desktop/GD32VW553/V1_MQTT_OK/GD32VW55X_Wifi_BLE_SDK/GD32VW55x_RELEASE_V1.0.2/MSDK/cloud/alicloud/src/services/linkkit/dm\dm_api.c ****     res = dm_mgr_upstream_thing_deviceinfo_delete(devid, payload, payload_len);
 1381              		.loc 1 556 5
 1382              		.loc 1 556 11 is_stmt 0
 1383 0024 1246     		lw	a2,4(sp)
 1384 0026 A245     		lw	a1,8(sp)
 1385 0028 3245     		lw	a0,12(sp)
 1386 002a 97000000 		call	dm_mgr_upstream_thing_deviceinfo_delete
 1386      E7800000 
 1387              	.LVL168:
 1388 0032 2A84     		mv	s0,a0
 1389              	.LVL169:
 557:C:/Users/stapi/OneDrive/Desktop/GD32VW553/V1_MQTT_OK/GD32VW55X_Wifi_BLE_SDK/GD32VW55x_RELEASE_V1.0.2/MSDK/cloud/alicloud/src/services/linkkit/dm\dm_api.c ****     if (res < SUCCESS_RETURN) {
 1390              		.loc 1 557 5 is_stmt 1
 1391              		.loc 1 557 8 is_stmt 0
 1392 0034 635D0500 		bge	a0,zero,.L139
 558:C:/Users/stapi/OneDrive/Desktop/GD32VW553/V1_MQTT_OK/GD32VW55X_Wifi_BLE_SDK/GD32VW55x_RELEASE_V1.0.2/MSDK/cloud/alicloud/src/services/linkkit/dm\dm_api.c ****         _dm_api_unlock();
 1393              		.loc 1 558 9 is_stmt 1
 1394 0038 97000000 		call	_dm_api_unlock
 1394      E7800000 
 1395              	.LVL170:
 559:C:/Users/stapi/OneDrive/Desktop/GD32VW553/V1_MQTT_OK/GD32VW55X_Wifi_BLE_SDK/GD32VW55x_RELEASE_V1.0.2/MSDK/cloud/alicloud/src/services/linkkit/dm\dm_api.c ****         return FAIL_RETURN;
 1396              		.loc 1 559 9
 1397              		.loc 1 559 16 is_stmt 0
 1398 0040 7D54     		li	s0,-1
 1399              	.LVL171:
 1400              	.L137:
 560:C:/Users/stapi/OneDrive/Desktop/GD32VW553/V1_MQTT_OK/GD32VW55X_Wifi_BLE_SDK/GD32VW55x_RELEASE_V1.0.2/MSDK/cloud/alicloud/src/services/linkkit/dm\dm_api.c ****     }
 561:C:/Users/stapi/OneDrive/Desktop/GD32VW553/V1_MQTT_OK/GD32VW55X_Wifi_BLE_SDK/GD32VW55x_RELEASE_V1.0.2/MSDK/cloud/alicloud/src/services/linkkit/dm\dm_api.c **** 
 562:C:/Users/stapi/OneDrive/Desktop/GD32VW553/V1_MQTT_OK/GD32VW55X_Wifi_BLE_SDK/GD32VW55x_RELEASE_V1.0.2/MSDK/cloud/alicloud/src/services/linkkit/dm\dm_api.c ****     _dm_api_unlock();
 563:C:/Users/stapi/OneDrive/Desktop/GD32VW553/V1_MQTT_OK/GD32VW55X_Wifi_BLE_SDK/GD32VW55x_RELEASE_V1.0.2/MSDK/cloud/alicloud/src/services/linkkit/dm\dm_api.c ****     return res;
 564:C:/Users/stapi/OneDrive/Desktop/GD32VW553/V1_MQTT_OK/GD32VW55X_Wifi_BLE_SDK/GD32VW55x_RELEASE_V1.0.2/MSDK/cloud/alicloud/src/services/linkkit/dm\dm_api.c **** }
 1401              		.loc 1 564 1
 1402 0042 2285     		mv	a0,s0
 1403 0044 4101     		addi	sp,sp,16
 1404              		.cfi_remember_state
 1405              		.cfi_def_cfa_offset 0
 1406              	.LVL172:
 1407 0046 17030000 		tail	__riscv_restore_1
 1407      67000300 
 1408              		.cfi_restore 8
 1409              		.cfi_restore 1
 1410              		.cfi_def_cfa_offset -16
 1411              	.LVL173:
 1412              	.L139:
 1413              		.cfi_restore_state
 562:C:/Users/stapi/OneDrive/Desktop/GD32VW553/V1_MQTT_OK/GD32VW55X_Wifi_BLE_SDK/GD32VW55x_RELEASE_V1.0.2/MSDK/cloud/alicloud/src/services/linkkit/dm\dm_api.c ****     return res;
 1414              		.loc 1 562 5 is_stmt 1
 1415 004e 97000000 		call	_dm_api_unlock
 1415      E7800000 
 1416              	.LVL174:
 563:C:/Users/stapi/OneDrive/Desktop/GD32VW553/V1_MQTT_OK/GD32VW55X_Wifi_BLE_SDK/GD32VW55x_RELEASE_V1.0.2/MSDK/cloud/alicloud/src/services/linkkit/dm\dm_api.c **** }
 1417              		.loc 1 563 5
 563:C:/Users/stapi/OneDrive/Desktop/GD32VW553/V1_MQTT_OK/GD32VW55X_Wifi_BLE_SDK/GD32VW55x_RELEASE_V1.0.2/MSDK/cloud/alicloud/src/services/linkkit/dm\dm_api.c **** }
 1418              		.loc 1 563 12 is_stmt 0
 1419 0056 F5B7     		j	.L137
 1420              		.cfi_endproc
 1421              	.LFE38:
 1423              		.section	.text.iotx_dm_event_notify_reply,"ax",@progbits
 1424              		.align	1
 1425              		.globl	iotx_dm_event_notify_reply
 1427              	iotx_dm_event_notify_reply:
 1428              	.LFB39:
 565:C:/Users/stapi/OneDrive/Desktop/GD32VW553/V1_MQTT_OK/GD32VW55X_Wifi_BLE_SDK/GD32VW55x_RELEASE_V1.0.2/MSDK/cloud/alicloud/src/services/linkkit/dm\dm_api.c **** #endif
 566:C:/Users/stapi/OneDrive/Desktop/GD32VW553/V1_MQTT_OK/GD32VW55X_Wifi_BLE_SDK/GD32VW55x_RELEASE_V1.0.2/MSDK/cloud/alicloud/src/services/linkkit/dm\dm_api.c **** 
 567:C:/Users/stapi/OneDrive/Desktop/GD32VW553/V1_MQTT_OK/GD32VW55X_Wifi_BLE_SDK/GD32VW55x_RELEASE_V1.0.2/MSDK/cloud/alicloud/src/services/linkkit/dm\dm_api.c **** int iotx_dm_event_notify_reply(_IN_ int devid, _IN_ char *payload, _IN_ int payload_len)
 568:C:/Users/stapi/OneDrive/Desktop/GD32VW553/V1_MQTT_OK/GD32VW55X_Wifi_BLE_SDK/GD32VW55x_RELEASE_V1.0.2/MSDK/cloud/alicloud/src/services/linkkit/dm\dm_api.c **** {
 1429              		.loc 1 568 1 is_stmt 1
 1430              		.cfi_startproc
 1431              	.LVL175:
 1432 0000 17030000 		call	t0,__riscv_save_0
 1432      E7020300 
 1433              		.cfi_offset 1, -4
 1434              		.cfi_def_cfa_offset 16
 569:C:/Users/stapi/OneDrive/Desktop/GD32VW553/V1_MQTT_OK/GD32VW55X_Wifi_BLE_SDK/GD32VW55x_RELEASE_V1.0.2/MSDK/cloud/alicloud/src/services/linkkit/dm\dm_api.c ****     int res = 0;
 1435              		.loc 1 569 5
 1436              	.LVL176:
 570:C:/Users/stapi/OneDrive/Desktop/GD32VW553/V1_MQTT_OK/GD32VW55X_Wifi_BLE_SDK/GD32VW55x_RELEASE_V1.0.2/MSDK/cloud/alicloud/src/services/linkkit/dm\dm_api.c **** 
 571:C:/Users/stapi/OneDrive/Desktop/GD32VW553/V1_MQTT_OK/GD32VW55X_Wifi_BLE_SDK/GD32VW55x_RELEASE_V1.0.2/MSDK/cloud/alicloud/src/services/linkkit/dm\dm_api.c ****     _dm_api_lock();
 1437              		.loc 1 571 5
 568:C:/Users/stapi/OneDrive/Desktop/GD32VW553/V1_MQTT_OK/GD32VW55X_Wifi_BLE_SDK/GD32VW55x_RELEASE_V1.0.2/MSDK/cloud/alicloud/src/services/linkkit/dm\dm_api.c ****     int res = 0;
 1438              		.loc 1 568 1 is_stmt 0
 1439 0008 4111     		addi	sp,sp,-16
 1440              		.cfi_def_cfa_offset 32
 568:C:/Users/stapi/OneDrive/Desktop/GD32VW553/V1_MQTT_OK/GD32VW55X_Wifi_BLE_SDK/GD32VW55x_RELEASE_V1.0.2/MSDK/cloud/alicloud/src/services/linkkit/dm\dm_api.c ****     int res = 0;
 1441              		.loc 1 568 1
 1442 000a 2AC6     		sw	a0,12(sp)
 1443 000c 2EC4     		sw	a1,8(sp)
 1444 000e 32C2     		sw	a2,4(sp)
 1445              		.loc 1 571 5
 1446 0010 97000000 		call	_dm_api_lock
 1446      E7800000 
 1447              	.LVL177:
 572:C:/Users/stapi/OneDrive/Desktop/GD32VW553/V1_MQTT_OK/GD32VW55X_Wifi_BLE_SDK/GD32VW55x_RELEASE_V1.0.2/MSDK/cloud/alicloud/src/services/linkkit/dm\dm_api.c **** 
 573:C:/Users/stapi/OneDrive/Desktop/GD32VW553/V1_MQTT_OK/GD32VW55X_Wifi_BLE_SDK/GD32VW55x_RELEASE_V1.0.2/MSDK/cloud/alicloud/src/services/linkkit/dm\dm_api.c ****     res = dm_mgr_upstream_thing_event_notify_reply(devid, payload, payload_len);
 1448              		.loc 1 573 5 is_stmt 1
 1449              		.loc 1 573 11 is_stmt 0
 1450 0018 1246     		lw	a2,4(sp)
 1451 001a A245     		lw	a1,8(sp)
 1452 001c 3245     		lw	a0,12(sp)
 1453 001e 97000000 		call	dm_mgr_upstream_thing_event_notify_reply
 1453      E7800000 
 1454              	.LVL178:
 574:C:/Users/stapi/OneDrive/Desktop/GD32VW553/V1_MQTT_OK/GD32VW55X_Wifi_BLE_SDK/GD32VW55x_RELEASE_V1.0.2/MSDK/cloud/alicloud/src/services/linkkit/dm\dm_api.c ****     if (res < SUCCESS_RETURN) {
 1455              		.loc 1 574 5 is_stmt 1
 1456              		.loc 1 574 8 is_stmt 0
 1457 0026 635C0500 		bge	a0,zero,.L145
 575:C:/Users/stapi/OneDrive/Desktop/GD32VW553/V1_MQTT_OK/GD32VW55X_Wifi_BLE_SDK/GD32VW55x_RELEASE_V1.0.2/MSDK/cloud/alicloud/src/services/linkkit/dm\dm_api.c ****         _dm_api_unlock();
 1458              		.loc 1 575 9 is_stmt 1
 1459 002a 97000000 		call	_dm_api_unlock
 1459      E7800000 
 1460              	.LVL179:
 576:C:/Users/stapi/OneDrive/Desktop/GD32VW553/V1_MQTT_OK/GD32VW55X_Wifi_BLE_SDK/GD32VW55x_RELEASE_V1.0.2/MSDK/cloud/alicloud/src/services/linkkit/dm\dm_api.c ****         return FAIL_RETURN;
 1461              		.loc 1 576 9
 1462              		.loc 1 576 16 is_stmt 0
 1463 0032 7D55     		li	a0,-1
 1464              	.LVL180:
 1465              	.L144:
 577:C:/Users/stapi/OneDrive/Desktop/GD32VW553/V1_MQTT_OK/GD32VW55X_Wifi_BLE_SDK/GD32VW55x_RELEASE_V1.0.2/MSDK/cloud/alicloud/src/services/linkkit/dm\dm_api.c ****     }
 578:C:/Users/stapi/OneDrive/Desktop/GD32VW553/V1_MQTT_OK/GD32VW55X_Wifi_BLE_SDK/GD32VW55x_RELEASE_V1.0.2/MSDK/cloud/alicloud/src/services/linkkit/dm\dm_api.c **** 
 579:C:/Users/stapi/OneDrive/Desktop/GD32VW553/V1_MQTT_OK/GD32VW55X_Wifi_BLE_SDK/GD32VW55x_RELEASE_V1.0.2/MSDK/cloud/alicloud/src/services/linkkit/dm\dm_api.c ****     _dm_api_unlock();
 580:C:/Users/stapi/OneDrive/Desktop/GD32VW553/V1_MQTT_OK/GD32VW55X_Wifi_BLE_SDK/GD32VW55x_RELEASE_V1.0.2/MSDK/cloud/alicloud/src/services/linkkit/dm\dm_api.c ****     return res;
 581:C:/Users/stapi/OneDrive/Desktop/GD32VW553/V1_MQTT_OK/GD32VW55X_Wifi_BLE_SDK/GD32VW55x_RELEASE_V1.0.2/MSDK/cloud/alicloud/src/services/linkkit/dm\dm_api.c **** }
 1466              		.loc 1 581 1
 1467 0034 4101     		addi	sp,sp,16
 1468              		.cfi_remember_state
 1469              		.cfi_def_cfa_offset 0
 1470              	.LVL181:
 1471 0036 17030000 		tail	__riscv_restore_0
 1471      67000300 
 1472              		.cfi_restore 1
 1473              		.cfi_def_cfa_offset -16
 1474              	.LVL182:
 1475              	.L145:
 1476              		.cfi_restore_state
 1477 003e 2AC2     		sw	a0,4(sp)
 1478              	.LVL183:
 579:C:/Users/stapi/OneDrive/Desktop/GD32VW553/V1_MQTT_OK/GD32VW55X_Wifi_BLE_SDK/GD32VW55x_RELEASE_V1.0.2/MSDK/cloud/alicloud/src/services/linkkit/dm\dm_api.c ****     return res;
 1479              		.loc 1 579 5 is_stmt 1
 1480 0040 97000000 		call	_dm_api_unlock
 1480      E7800000 
 1481              	.LVL184:
 1482 0048 1245     		lw	a0,4(sp)
 580:C:/Users/stapi/OneDrive/Desktop/GD32VW553/V1_MQTT_OK/GD32VW55X_Wifi_BLE_SDK/GD32VW55x_RELEASE_V1.0.2/MSDK/cloud/alicloud/src/services/linkkit/dm\dm_api.c **** }
 1483              		.loc 1 580 5
 580:C:/Users/stapi/OneDrive/Desktop/GD32VW553/V1_MQTT_OK/GD32VW55X_Wifi_BLE_SDK/GD32VW55x_RELEASE_V1.0.2/MSDK/cloud/alicloud/src/services/linkkit/dm\dm_api.c **** }
 1484              		.loc 1 580 12 is_stmt 0
 1485 004a EDB7     		j	.L144
 1486              		.cfi_endproc
 1487              	.LFE39:
 1489              		.section	.text.iotx_dm_qurey_ntp,"ax",@progbits
 1490              		.align	1
 1491              		.globl	iotx_dm_qurey_ntp
 1493              	iotx_dm_qurey_ntp:
 1494              	.LFB40:
 582:C:/Users/stapi/OneDrive/Desktop/GD32VW553/V1_MQTT_OK/GD32VW55X_Wifi_BLE_SDK/GD32VW55x_RELEASE_V1.0.2/MSDK/cloud/alicloud/src/services/linkkit/dm\dm_api.c **** 
 583:C:/Users/stapi/OneDrive/Desktop/GD32VW553/V1_MQTT_OK/GD32VW55X_Wifi_BLE_SDK/GD32VW55x_RELEASE_V1.0.2/MSDK/cloud/alicloud/src/services/linkkit/dm\dm_api.c **** int iotx_dm_qurey_ntp(void)
 584:C:/Users/stapi/OneDrive/Desktop/GD32VW553/V1_MQTT_OK/GD32VW55X_Wifi_BLE_SDK/GD32VW55x_RELEASE_V1.0.2/MSDK/cloud/alicloud/src/services/linkkit/dm\dm_api.c **** {
 1495              		.loc 1 584 1 is_stmt 1
 1496              		.cfi_startproc
 1497 0000 17030000 		call	t0,__riscv_save_0
 1497      E7020300 
 1498              		.cfi_offset 1, -4
 1499              		.cfi_def_cfa_offset 16
 585:C:/Users/stapi/OneDrive/Desktop/GD32VW553/V1_MQTT_OK/GD32VW55X_Wifi_BLE_SDK/GD32VW55x_RELEASE_V1.0.2/MSDK/cloud/alicloud/src/services/linkkit/dm\dm_api.c ****     int res = 0;
 1500              		.loc 1 585 5
 1501              	.LVL185:
 586:C:/Users/stapi/OneDrive/Desktop/GD32VW553/V1_MQTT_OK/GD32VW55X_Wifi_BLE_SDK/GD32VW55x_RELEASE_V1.0.2/MSDK/cloud/alicloud/src/services/linkkit/dm\dm_api.c **** 
 587:C:/Users/stapi/OneDrive/Desktop/GD32VW553/V1_MQTT_OK/GD32VW55X_Wifi_BLE_SDK/GD32VW55x_RELEASE_V1.0.2/MSDK/cloud/alicloud/src/services/linkkit/dm\dm_api.c ****     _dm_api_lock();
 1502              		.loc 1 587 5
 584:C:/Users/stapi/OneDrive/Desktop/GD32VW553/V1_MQTT_OK/GD32VW55X_Wifi_BLE_SDK/GD32VW55x_RELEASE_V1.0.2/MSDK/cloud/alicloud/src/services/linkkit/dm\dm_api.c ****     int res = 0;
 1503              		.loc 1 584 1 is_stmt 0
 1504 0008 4111     		addi	sp,sp,-16
 1505              		.cfi_def_cfa_offset 32
 1506              		.loc 1 587 5
 1507 000a 97000000 		call	_dm_api_lock
 1507      E7800000 
 1508              	.LVL186:
 588:C:/Users/stapi/OneDrive/Desktop/GD32VW553/V1_MQTT_OK/GD32VW55X_Wifi_BLE_SDK/GD32VW55x_RELEASE_V1.0.2/MSDK/cloud/alicloud/src/services/linkkit/dm\dm_api.c **** 
 589:C:/Users/stapi/OneDrive/Desktop/GD32VW553/V1_MQTT_OK/GD32VW55X_Wifi_BLE_SDK/GD32VW55x_RELEASE_V1.0.2/MSDK/cloud/alicloud/src/services/linkkit/dm\dm_api.c ****     res = dm_mgr_upstream_ntp_request();
 1509              		.loc 1 589 5 is_stmt 1
 1510              		.loc 1 589 11 is_stmt 0
 1511 0012 97000000 		call	dm_mgr_upstream_ntp_request
 1511      E7800000 
 1512              	.LVL187:
 590:C:/Users/stapi/OneDrive/Desktop/GD32VW553/V1_MQTT_OK/GD32VW55X_Wifi_BLE_SDK/GD32VW55x_RELEASE_V1.0.2/MSDK/cloud/alicloud/src/services/linkkit/dm\dm_api.c ****     if (res < SUCCESS_RETURN) {
 1513              		.loc 1 590 5 is_stmt 1
 1514              		.loc 1 590 8 is_stmt 0
 1515 001a 635C0500 		bge	a0,zero,.L149
 591:C:/Users/stapi/OneDrive/Desktop/GD32VW553/V1_MQTT_OK/GD32VW55X_Wifi_BLE_SDK/GD32VW55x_RELEASE_V1.0.2/MSDK/cloud/alicloud/src/services/linkkit/dm\dm_api.c ****         _dm_api_unlock();
 1516              		.loc 1 591 9 is_stmt 1
 1517 001e 97000000 		call	_dm_api_unlock
 1517      E7800000 
 1518              	.LVL188:
 592:C:/Users/stapi/OneDrive/Desktop/GD32VW553/V1_MQTT_OK/GD32VW55X_Wifi_BLE_SDK/GD32VW55x_RELEASE_V1.0.2/MSDK/cloud/alicloud/src/services/linkkit/dm\dm_api.c ****         return FAIL_RETURN;
 1519              		.loc 1 592 9
 1520              		.loc 1 592 16 is_stmt 0
 1521 0026 7D55     		li	a0,-1
 1522              	.L148:
 593:C:/Users/stapi/OneDrive/Desktop/GD32VW553/V1_MQTT_OK/GD32VW55X_Wifi_BLE_SDK/GD32VW55x_RELEASE_V1.0.2/MSDK/cloud/alicloud/src/services/linkkit/dm\dm_api.c ****     }
 594:C:/Users/stapi/OneDrive/Desktop/GD32VW553/V1_MQTT_OK/GD32VW55X_Wifi_BLE_SDK/GD32VW55x_RELEASE_V1.0.2/MSDK/cloud/alicloud/src/services/linkkit/dm\dm_api.c **** 
 595:C:/Users/stapi/OneDrive/Desktop/GD32VW553/V1_MQTT_OK/GD32VW55X_Wifi_BLE_SDK/GD32VW55x_RELEASE_V1.0.2/MSDK/cloud/alicloud/src/services/linkkit/dm\dm_api.c ****     _dm_api_unlock();
 596:C:/Users/stapi/OneDrive/Desktop/GD32VW553/V1_MQTT_OK/GD32VW55X_Wifi_BLE_SDK/GD32VW55x_RELEASE_V1.0.2/MSDK/cloud/alicloud/src/services/linkkit/dm\dm_api.c ****     return res;
 597:C:/Users/stapi/OneDrive/Desktop/GD32VW553/V1_MQTT_OK/GD32VW55X_Wifi_BLE_SDK/GD32VW55x_RELEASE_V1.0.2/MSDK/cloud/alicloud/src/services/linkkit/dm\dm_api.c **** }
 1523              		.loc 1 597 1
 1524 0028 4101     		addi	sp,sp,16
 1525              		.cfi_remember_state
 1526              		.cfi_def_cfa_offset 0
 1527 002a 17030000 		tail	__riscv_restore_0
 1527      67000300 
 1528              		.cfi_restore 1
 1529              		.cfi_def_cfa_offset -16
 1530              	.LVL189:
 1531              	.L149:
 1532              		.cfi_restore_state
 1533 0032 2AC6     		sw	a0,12(sp)
 595:C:/Users/stapi/OneDrive/Desktop/GD32VW553/V1_MQTT_OK/GD32VW55X_Wifi_BLE_SDK/GD32VW55x_RELEASE_V1.0.2/MSDK/cloud/alicloud/src/services/linkkit/dm\dm_api.c ****     return res;
 1534              		.loc 1 595 5 is_stmt 1
 1535 0034 97000000 		call	_dm_api_unlock
 1535      E7800000 
 1536              	.LVL190:
 1537 003c 3245     		lw	a0,12(sp)
 596:C:/Users/stapi/OneDrive/Desktop/GD32VW553/V1_MQTT_OK/GD32VW55X_Wifi_BLE_SDK/GD32VW55x_RELEASE_V1.0.2/MSDK/cloud/alicloud/src/services/linkkit/dm\dm_api.c **** }
 1538              		.loc 1 596 5
 596:C:/Users/stapi/OneDrive/Desktop/GD32VW553/V1_MQTT_OK/GD32VW55X_Wifi_BLE_SDK/GD32VW55x_RELEASE_V1.0.2/MSDK/cloud/alicloud/src/services/linkkit/dm\dm_api.c **** }
 1539              		.loc 1 596 12 is_stmt 0
 1540 003e EDB7     		j	.L148
 1541              		.cfi_endproc
 1542              	.LFE40:
 1544              		.section	.text.iotx_dm_send_rrpc_response,"ax",@progbits
 1545              		.align	1
 1546              		.globl	iotx_dm_send_rrpc_response
 1548              	iotx_dm_send_rrpc_response:
 1549              	.LFB41:
 598:C:/Users/stapi/OneDrive/Desktop/GD32VW553/V1_MQTT_OK/GD32VW55X_Wifi_BLE_SDK/GD32VW55x_RELEASE_V1.0.2/MSDK/cloud/alicloud/src/services/linkkit/dm\dm_api.c **** 
 599:C:/Users/stapi/OneDrive/Desktop/GD32VW553/V1_MQTT_OK/GD32VW55X_Wifi_BLE_SDK/GD32VW55x_RELEASE_V1.0.2/MSDK/cloud/alicloud/src/services/linkkit/dm\dm_api.c **** int iotx_dm_send_rrpc_response(_IN_ int devid, _IN_ char *msgid, _IN_ int msgid_len, _IN_ iotx_dm_e
 600:C:/Users/stapi/OneDrive/Desktop/GD32VW553/V1_MQTT_OK/GD32VW55X_Wifi_BLE_SDK/GD32VW55x_RELEASE_V1.0.2/MSDK/cloud/alicloud/src/services/linkkit/dm\dm_api.c ****                                _IN_ char *rrpcid, _IN_ int rrpcid_len, _IN_ char *payload, _IN_ int
 601:C:/Users/stapi/OneDrive/Desktop/GD32VW553/V1_MQTT_OK/GD32VW55X_Wifi_BLE_SDK/GD32VW55x_RELEASE_V1.0.2/MSDK/cloud/alicloud/src/services/linkkit/dm\dm_api.c **** {
 1550              		.loc 1 601 1 is_stmt 1
 1551              		.cfi_startproc
 1552              	.LVL191:
 1553 0000 17030000 		call	t0,__riscv_save_1
 1553      E7020300 
 1554              		.cfi_offset 8, -8
 1555              		.cfi_offset 1, -4
 1556              		.cfi_def_cfa_offset 16
 602:C:/Users/stapi/OneDrive/Desktop/GD32VW553/V1_MQTT_OK/GD32VW55X_Wifi_BLE_SDK/GD32VW55x_RELEASE_V1.0.2/MSDK/cloud/alicloud/src/services/linkkit/dm\dm_api.c ****     int res = 0;
 1557              		.loc 1 602 5
 1558              	.LVL192:
 603:C:/Users/stapi/OneDrive/Desktop/GD32VW553/V1_MQTT_OK/GD32VW55X_Wifi_BLE_SDK/GD32VW55x_RELEASE_V1.0.2/MSDK/cloud/alicloud/src/services/linkkit/dm\dm_api.c **** 
 604:C:/Users/stapi/OneDrive/Desktop/GD32VW553/V1_MQTT_OK/GD32VW55X_Wifi_BLE_SDK/GD32VW55x_RELEASE_V1.0.2/MSDK/cloud/alicloud/src/services/linkkit/dm\dm_api.c ****     if (devid < 0 || msgid == NULL || msgid_len <= 0 || rrpcid == NULL || rrpcid_len <= 0 || payloa
 1559              		.loc 1 604 5
 601:C:/Users/stapi/OneDrive/Desktop/GD32VW553/V1_MQTT_OK/GD32VW55X_Wifi_BLE_SDK/GD32VW55x_RELEASE_V1.0.2/MSDK/cloud/alicloud/src/services/linkkit/dm\dm_api.c ****     int res = 0;
 1560              		.loc 1 601 1 is_stmt 0
 1561 0008 0111     		addi	sp,sp,-32
 1562              		.cfi_def_cfa_offset 48
 601:C:/Users/stapi/OneDrive/Desktop/GD32VW553/V1_MQTT_OK/GD32VW55X_Wifi_BLE_SDK/GD32VW55x_RELEASE_V1.0.2/MSDK/cloud/alicloud/src/services/linkkit/dm\dm_api.c ****     int res = 0;
 1563              		.loc 1 601 1
 1564 000a 36CE     		sw	a3,28(sp)
 1565              		.loc 1 604 8
 1566 000c 2ACC     		sw	a0,24(sp)
 605:C:/Users/stapi/OneDrive/Desktop/GD32VW553/V1_MQTT_OK/GD32VW55X_Wifi_BLE_SDK/GD32VW55x_RELEASE_V1.0.2/MSDK/cloud/alicloud/src/services/linkkit/dm\dm_api.c ****         || payload_len <= 0) {
 606:C:/Users/stapi/OneDrive/Desktop/GD32VW553/V1_MQTT_OK/GD32VW55X_Wifi_BLE_SDK/GD32VW55x_RELEASE_V1.0.2/MSDK/cloud/alicloud/src/services/linkkit/dm\dm_api.c ****         return DM_INVALID_PARAMETER;
 1567              		.loc 1 606 16
 1568 000e 7954     		li	s0,-2
 604:C:/Users/stapi/OneDrive/Desktop/GD32VW553/V1_MQTT_OK/GD32VW55X_Wifi_BLE_SDK/GD32VW55x_RELEASE_V1.0.2/MSDK/cloud/alicloud/src/services/linkkit/dm\dm_api.c ****         || payload_len <= 0) {
 1569              		.loc 1 604 8
 1570 0010 63470504 		blt	a0,zero,.L152
 604:C:/Users/stapi/OneDrive/Desktop/GD32VW553/V1_MQTT_OK/GD32VW55X_Wifi_BLE_SDK/GD32VW55x_RELEASE_V1.0.2/MSDK/cloud/alicloud/src/services/linkkit/dm\dm_api.c ****         || payload_len <= 0) {
 1571              		.loc 1 604 19 discriminator 1
 1572 0014 2ECA     		sw	a1,20(sp)
 1573 0016 A1C5     		beq	a1,zero,.L152
 604:C:/Users/stapi/OneDrive/Desktop/GD32VW553/V1_MQTT_OK/GD32VW55X_Wifi_BLE_SDK/GD32VW55x_RELEASE_V1.0.2/MSDK/cloud/alicloud/src/services/linkkit/dm\dm_api.c ****         || payload_len <= 0) {
 1574              		.loc 1 604 36 discriminator 2
 1575 0018 32C8     		sw	a2,16(sp)
 1576 001a 6352C004 		ble	a2,zero,.L152
 604:C:/Users/stapi/OneDrive/Desktop/GD32VW553/V1_MQTT_OK/GD32VW55X_Wifi_BLE_SDK/GD32VW55x_RELEASE_V1.0.2/MSDK/cloud/alicloud/src/services/linkkit/dm\dm_api.c ****         || payload_len <= 0) {
 1577              		.loc 1 604 54 discriminator 3
 1578 001e 3AC6     		sw	a4,12(sp)
 1579 0020 1DCF     		beq	a4,zero,.L152
 604:C:/Users/stapi/OneDrive/Desktop/GD32VW553/V1_MQTT_OK/GD32VW55X_Wifi_BLE_SDK/GD32VW55x_RELEASE_V1.0.2/MSDK/cloud/alicloud/src/services/linkkit/dm\dm_api.c ****         || payload_len <= 0) {
 1580              		.loc 1 604 72 discriminator 4
 1581 0022 3EC4     		sw	a5,8(sp)
 1582 0024 635DF002 		ble	a5,zero,.L152
 604:C:/Users/stapi/OneDrive/Desktop/GD32VW553/V1_MQTT_OK/GD32VW55X_Wifi_BLE_SDK/GD32VW55x_RELEASE_V1.0.2/MSDK/cloud/alicloud/src/services/linkkit/dm\dm_api.c ****         || payload_len <= 0) {
 1583              		.loc 1 604 91 discriminator 5
 1584 0028 42C2     		sw	a6,4(sp)
 1585 002a 630A0802 		beq	a6,zero,.L152
 605:C:/Users/stapi/OneDrive/Desktop/GD32VW553/V1_MQTT_OK/GD32VW55X_Wifi_BLE_SDK/GD32VW55x_RELEASE_V1.0.2/MSDK/cloud/alicloud/src/services/linkkit/dm\dm_api.c ****         || payload_len <= 0) {
 1586              		.loc 1 605 9
 1587 002e 46C0     		sw	a7,0(sp)
 1588 0030 63571003 		ble	a7,zero,.L152
 607:C:/Users/stapi/OneDrive/Desktop/GD32VW553/V1_MQTT_OK/GD32VW55X_Wifi_BLE_SDK/GD32VW55x_RELEASE_V1.0.2/MSDK/cloud/alicloud/src/services/linkkit/dm\dm_api.c ****     }
 608:C:/Users/stapi/OneDrive/Desktop/GD32VW553/V1_MQTT_OK/GD32VW55X_Wifi_BLE_SDK/GD32VW55x_RELEASE_V1.0.2/MSDK/cloud/alicloud/src/services/linkkit/dm\dm_api.c **** 
 609:C:/Users/stapi/OneDrive/Desktop/GD32VW553/V1_MQTT_OK/GD32VW55X_Wifi_BLE_SDK/GD32VW55x_RELEASE_V1.0.2/MSDK/cloud/alicloud/src/services/linkkit/dm\dm_api.c ****     _dm_api_lock();
 1589              		.loc 1 609 5 is_stmt 1
 1590 0034 97000000 		call	_dm_api_lock
 1590      E7800000 
 1591              	.LVL193:
 610:C:/Users/stapi/OneDrive/Desktop/GD32VW553/V1_MQTT_OK/GD32VW55X_Wifi_BLE_SDK/GD32VW55x_RELEASE_V1.0.2/MSDK/cloud/alicloud/src/services/linkkit/dm\dm_api.c **** 
 611:C:/Users/stapi/OneDrive/Desktop/GD32VW553/V1_MQTT_OK/GD32VW55X_Wifi_BLE_SDK/GD32VW55x_RELEASE_V1.0.2/MSDK/cloud/alicloud/src/services/linkkit/dm\dm_api.c ****     res = dm_mgr_upstream_rrpc_response(devid, msgid, msgid_len, code, rrpcid, rrpcid_len, payload,
 1592              		.loc 1 611 5
 1593              		.loc 1 611 11 is_stmt 0
 1594 003c 8248     		lw	a7,0(sp)
 1595 003e 1248     		lw	a6,4(sp)
 1596 0040 A247     		lw	a5,8(sp)
 1597 0042 3247     		lw	a4,12(sp)
 1598 0044 F246     		lw	a3,28(sp)
 1599 0046 4246     		lw	a2,16(sp)
 1600 0048 D245     		lw	a1,20(sp)
 1601 004a 6245     		lw	a0,24(sp)
 1602 004c 97000000 		call	dm_mgr_upstream_rrpc_response
 1602      E7800000 
 1603              	.LVL194:
 1604 0054 2A84     		mv	s0,a0
 1605              	.LVL195:
 612:C:/Users/stapi/OneDrive/Desktop/GD32VW553/V1_MQTT_OK/GD32VW55X_Wifi_BLE_SDK/GD32VW55x_RELEASE_V1.0.2/MSDK/cloud/alicloud/src/services/linkkit/dm\dm_api.c **** 
 613:C:/Users/stapi/OneDrive/Desktop/GD32VW553/V1_MQTT_OK/GD32VW55X_Wifi_BLE_SDK/GD32VW55x_RELEASE_V1.0.2/MSDK/cloud/alicloud/src/services/linkkit/dm\dm_api.c ****     _dm_api_unlock();
 1606              		.loc 1 613 5 is_stmt 1
 1607 0056 97000000 		call	_dm_api_unlock
 1607      E7800000 
 1608              	.LVL196:
 614:C:/Users/stapi/OneDrive/Desktop/GD32VW553/V1_MQTT_OK/GD32VW55X_Wifi_BLE_SDK/GD32VW55x_RELEASE_V1.0.2/MSDK/cloud/alicloud/src/services/linkkit/dm\dm_api.c ****     return res;
 1609              		.loc 1 614 5
 1610              	.L152:
 615:C:/Users/stapi/OneDrive/Desktop/GD32VW553/V1_MQTT_OK/GD32VW55X_Wifi_BLE_SDK/GD32VW55x_RELEASE_V1.0.2/MSDK/cloud/alicloud/src/services/linkkit/dm\dm_api.c **** }
 1611              		.loc 1 615 1 is_stmt 0
 1612 005e 2285     		mv	a0,s0
 1613 0060 0561     		addi	sp,sp,32
 1614              		.cfi_def_cfa_offset 0
 1615              	.LVL197:
 1616 0062 17030000 		tail	__riscv_restore_1
 1616      67000300 
 1617              		.cfi_restore 8
 1618              		.cfi_restore 1
 1619              		.cfi_def_cfa_offset -16
 1620              		.cfi_endproc
 1621              	.LFE41:
 1623              		.section	.text.iotx_dm_cota_perform_sync,"ax",@progbits
 1624              		.align	1
 1625              		.globl	iotx_dm_cota_perform_sync
 1627              	iotx_dm_cota_perform_sync:
 1628              	.LFB42:
 616:C:/Users/stapi/OneDrive/Desktop/GD32VW553/V1_MQTT_OK/GD32VW55X_Wifi_BLE_SDK/GD32VW55x_RELEASE_V1.0.2/MSDK/cloud/alicloud/src/services/linkkit/dm\dm_api.c **** 
 617:C:/Users/stapi/OneDrive/Desktop/GD32VW553/V1_MQTT_OK/GD32VW55X_Wifi_BLE_SDK/GD32VW55x_RELEASE_V1.0.2/MSDK/cloud/alicloud/src/services/linkkit/dm\dm_api.c **** int iotx_dm_cota_perform_sync(_OU_ char *buffer, _IN_ int buffer_len)
 618:C:/Users/stapi/OneDrive/Desktop/GD32VW553/V1_MQTT_OK/GD32VW55X_Wifi_BLE_SDK/GD32VW55x_RELEASE_V1.0.2/MSDK/cloud/alicloud/src/services/linkkit/dm\dm_api.c **** {
 1629              		.loc 1 618 1 is_stmt 1
 1630              		.cfi_startproc
 1631              	.LVL198:
 619:C:/Users/stapi/OneDrive/Desktop/GD32VW553/V1_MQTT_OK/GD32VW55X_Wifi_BLE_SDK/GD32VW55x_RELEASE_V1.0.2/MSDK/cloud/alicloud/src/services/linkkit/dm\dm_api.c **** #if defined(OTA_ENABLED) && !defined(BUILD_AOS)
 620:C:/Users/stapi/OneDrive/Desktop/GD32VW553/V1_MQTT_OK/GD32VW55X_Wifi_BLE_SDK/GD32VW55x_RELEASE_V1.0.2/MSDK/cloud/alicloud/src/services/linkkit/dm\dm_api.c ****     return dm_cota_perform_sync(buffer, buffer_len);
 1632              		.loc 1 620 5
 1633              		.loc 1 620 12 is_stmt 0
 1634 0000 17030000 		tail	dm_cota_perform_sync
 1634      67000300 
 1635              	.LVL199:
 1636              		.cfi_endproc
 1637              	.LFE42:
 1639              		.section	.text.iotx_dm_cota_get_config,"ax",@progbits
 1640              		.align	1
 1641              		.globl	iotx_dm_cota_get_config
 1643              	iotx_dm_cota_get_config:
 1644              	.LFB43:
 621:C:/Users/stapi/OneDrive/Desktop/GD32VW553/V1_MQTT_OK/GD32VW55X_Wifi_BLE_SDK/GD32VW55x_RELEASE_V1.0.2/MSDK/cloud/alicloud/src/services/linkkit/dm\dm_api.c **** #else
 622:C:/Users/stapi/OneDrive/Desktop/GD32VW553/V1_MQTT_OK/GD32VW55X_Wifi_BLE_SDK/GD32VW55x_RELEASE_V1.0.2/MSDK/cloud/alicloud/src/services/linkkit/dm\dm_api.c ****     return -1;
 623:C:/Users/stapi/OneDrive/Desktop/GD32VW553/V1_MQTT_OK/GD32VW55X_Wifi_BLE_SDK/GD32VW55x_RELEASE_V1.0.2/MSDK/cloud/alicloud/src/services/linkkit/dm\dm_api.c **** #endif
 624:C:/Users/stapi/OneDrive/Desktop/GD32VW553/V1_MQTT_OK/GD32VW55X_Wifi_BLE_SDK/GD32VW55x_RELEASE_V1.0.2/MSDK/cloud/alicloud/src/services/linkkit/dm\dm_api.c **** }
 625:C:/Users/stapi/OneDrive/Desktop/GD32VW553/V1_MQTT_OK/GD32VW55X_Wifi_BLE_SDK/GD32VW55x_RELEASE_V1.0.2/MSDK/cloud/alicloud/src/services/linkkit/dm\dm_api.c **** 
 626:C:/Users/stapi/OneDrive/Desktop/GD32VW553/V1_MQTT_OK/GD32VW55X_Wifi_BLE_SDK/GD32VW55x_RELEASE_V1.0.2/MSDK/cloud/alicloud/src/services/linkkit/dm\dm_api.c **** int iotx_dm_cota_get_config(_IN_ const char *config_scope, const char *get_type, const char *attrib
 627:C:/Users/stapi/OneDrive/Desktop/GD32VW553/V1_MQTT_OK/GD32VW55X_Wifi_BLE_SDK/GD32VW55x_RELEASE_V1.0.2/MSDK/cloud/alicloud/src/services/linkkit/dm\dm_api.c **** {
 1645              		.loc 1 627 1 is_stmt 1
 1646              		.cfi_startproc
 1647              	.LVL200:
 628:C:/Users/stapi/OneDrive/Desktop/GD32VW553/V1_MQTT_OK/GD32VW55X_Wifi_BLE_SDK/GD32VW55x_RELEASE_V1.0.2/MSDK/cloud/alicloud/src/services/linkkit/dm\dm_api.c **** #if defined(OTA_ENABLED) && !defined(BUILD_AOS)
 629:C:/Users/stapi/OneDrive/Desktop/GD32VW553/V1_MQTT_OK/GD32VW55X_Wifi_BLE_SDK/GD32VW55x_RELEASE_V1.0.2/MSDK/cloud/alicloud/src/services/linkkit/dm\dm_api.c ****     return dm_cota_get_config(config_scope, get_type, attribute_keys);
 1648              		.loc 1 629 5
 1649              		.loc 1 629 12 is_stmt 0
 1650 0000 17030000 		tail	dm_cota_get_config
 1650      67000300 
 1651              	.LVL201:
 1652              		.cfi_endproc
 1653              	.LFE43:
 1655              		.section	.text.iotx_dm_fota_perform_sync,"ax",@progbits
 1656              		.align	1
 1657              		.globl	iotx_dm_fota_perform_sync
 1659              	iotx_dm_fota_perform_sync:
 1660              	.LFB44:
 630:C:/Users/stapi/OneDrive/Desktop/GD32VW553/V1_MQTT_OK/GD32VW55X_Wifi_BLE_SDK/GD32VW55x_RELEASE_V1.0.2/MSDK/cloud/alicloud/src/services/linkkit/dm\dm_api.c **** #else
 631:C:/Users/stapi/OneDrive/Desktop/GD32VW553/V1_MQTT_OK/GD32VW55X_Wifi_BLE_SDK/GD32VW55x_RELEASE_V1.0.2/MSDK/cloud/alicloud/src/services/linkkit/dm\dm_api.c ****     return -1;
 632:C:/Users/stapi/OneDrive/Desktop/GD32VW553/V1_MQTT_OK/GD32VW55X_Wifi_BLE_SDK/GD32VW55x_RELEASE_V1.0.2/MSDK/cloud/alicloud/src/services/linkkit/dm\dm_api.c **** #endif
 633:C:/Users/stapi/OneDrive/Desktop/GD32VW553/V1_MQTT_OK/GD32VW55X_Wifi_BLE_SDK/GD32VW55x_RELEASE_V1.0.2/MSDK/cloud/alicloud/src/services/linkkit/dm\dm_api.c **** }
 634:C:/Users/stapi/OneDrive/Desktop/GD32VW553/V1_MQTT_OK/GD32VW55X_Wifi_BLE_SDK/GD32VW55x_RELEASE_V1.0.2/MSDK/cloud/alicloud/src/services/linkkit/dm\dm_api.c **** 
 635:C:/Users/stapi/OneDrive/Desktop/GD32VW553/V1_MQTT_OK/GD32VW55X_Wifi_BLE_SDK/GD32VW55x_RELEASE_V1.0.2/MSDK/cloud/alicloud/src/services/linkkit/dm\dm_api.c **** int iotx_dm_fota_perform_sync(_OU_ char *buffer, _IN_ int buffer_len)
 636:C:/Users/stapi/OneDrive/Desktop/GD32VW553/V1_MQTT_OK/GD32VW55X_Wifi_BLE_SDK/GD32VW55x_RELEASE_V1.0.2/MSDK/cloud/alicloud/src/services/linkkit/dm\dm_api.c **** {
 1661              		.loc 1 636 1 is_stmt 1
 1662              		.cfi_startproc
 1663              	.LVL202:
 637:C:/Users/stapi/OneDrive/Desktop/GD32VW553/V1_MQTT_OK/GD32VW55X_Wifi_BLE_SDK/GD32VW55x_RELEASE_V1.0.2/MSDK/cloud/alicloud/src/services/linkkit/dm\dm_api.c **** #if defined(OTA_ENABLED) && !defined(BUILD_AOS)
 638:C:/Users/stapi/OneDrive/Desktop/GD32VW553/V1_MQTT_OK/GD32VW55X_Wifi_BLE_SDK/GD32VW55x_RELEASE_V1.0.2/MSDK/cloud/alicloud/src/services/linkkit/dm\dm_api.c ****     return dm_fota_perform_sync(buffer, buffer_len);
 1664              		.loc 1 638 5
 1665              		.loc 1 638 12 is_stmt 0
 1666 0000 17030000 		tail	dm_fota_perform_sync
 1666      67000300 
 1667              	.LVL203:
 1668              		.cfi_endproc
 1669              	.LFE44:
 1671              		.section	.text.iotx_dm_fota_request_image,"ax",@progbits
 1672              		.align	1
 1673              		.globl	iotx_dm_fota_request_image
 1675              	iotx_dm_fota_request_image:
 1676              	.LFB45:
 639:C:/Users/stapi/OneDrive/Desktop/GD32VW553/V1_MQTT_OK/GD32VW55X_Wifi_BLE_SDK/GD32VW55x_RELEASE_V1.0.2/MSDK/cloud/alicloud/src/services/linkkit/dm\dm_api.c **** #else
 640:C:/Users/stapi/OneDrive/Desktop/GD32VW553/V1_MQTT_OK/GD32VW55X_Wifi_BLE_SDK/GD32VW55x_RELEASE_V1.0.2/MSDK/cloud/alicloud/src/services/linkkit/dm\dm_api.c ****     return -1;
 641:C:/Users/stapi/OneDrive/Desktop/GD32VW553/V1_MQTT_OK/GD32VW55X_Wifi_BLE_SDK/GD32VW55x_RELEASE_V1.0.2/MSDK/cloud/alicloud/src/services/linkkit/dm\dm_api.c **** #endif
 642:C:/Users/stapi/OneDrive/Desktop/GD32VW553/V1_MQTT_OK/GD32VW55X_Wifi_BLE_SDK/GD32VW55x_RELEASE_V1.0.2/MSDK/cloud/alicloud/src/services/linkkit/dm\dm_api.c **** }
 643:C:/Users/stapi/OneDrive/Desktop/GD32VW553/V1_MQTT_OK/GD32VW55X_Wifi_BLE_SDK/GD32VW55x_RELEASE_V1.0.2/MSDK/cloud/alicloud/src/services/linkkit/dm\dm_api.c **** 
 644:C:/Users/stapi/OneDrive/Desktop/GD32VW553/V1_MQTT_OK/GD32VW55X_Wifi_BLE_SDK/GD32VW55x_RELEASE_V1.0.2/MSDK/cloud/alicloud/src/services/linkkit/dm\dm_api.c **** int iotx_dm_fota_request_image(const char *version, int buffer_len)
 645:C:/Users/stapi/OneDrive/Desktop/GD32VW553/V1_MQTT_OK/GD32VW55X_Wifi_BLE_SDK/GD32VW55x_RELEASE_V1.0.2/MSDK/cloud/alicloud/src/services/linkkit/dm\dm_api.c **** {
 1677              		.loc 1 645 1 is_stmt 1
 1678              		.cfi_startproc
 1679              	.LVL204:
 646:C:/Users/stapi/OneDrive/Desktop/GD32VW553/V1_MQTT_OK/GD32VW55X_Wifi_BLE_SDK/GD32VW55x_RELEASE_V1.0.2/MSDK/cloud/alicloud/src/services/linkkit/dm\dm_api.c **** #if defined(OTA_ENABLED) && !defined(BUILD_AOS)
 647:C:/Users/stapi/OneDrive/Desktop/GD32VW553/V1_MQTT_OK/GD32VW55X_Wifi_BLE_SDK/GD32VW55x_RELEASE_V1.0.2/MSDK/cloud/alicloud/src/services/linkkit/dm\dm_api.c ****     return dm_fota_request_image(version, buffer_len);
 1680              		.loc 1 647 5
 1681              		.loc 1 647 12 is_stmt 0
 1682 0000 17030000 		tail	dm_fota_request_image
 1682      67000300 
 1683              	.LVL205:
 1684              		.cfi_endproc
 1685              	.LFE45:
 1687              		.section	.bss.g_dm_api_ctx,"aw",@nobits
 1688              		.align	2
 1689              		.set	.LANCHOR0,. + 0
 1692              	g_dm_api_ctx:
 1693 0000 00000000 		.zero	16
 1693      00000000 
 1693      00000000 
 1693      00000000 
 1694              		.section	.rodata.__FUNCTION__.0,"a"
 1695              		.align	2
 1696              		.set	.LANCHOR2,. + 0
 1699              	__FUNCTION__.0:
 1700 0000 696F7478 		.string	"iotx_dm_send_property_get_response"
 1700      5F646D5F 
 1700      73656E64 
 1700      5F70726F 
 1700      70657274 
 1701              		.section	.rodata.__FUNCTION__.1,"a"
 1702              		.align	2
 1703              		.set	.LANCHOR1,. + 0
 1706              	__FUNCTION__.1:
 1707 0000 696F7478 		.string	"iotx_dm_send_service_response"
 1707      5F646D5F 
 1707      73656E64 
 1707      5F736572 
 1707      76696365 
 1708              		.text
 1709              	.Letext0:
 1710              		.file 2 "C:/Users/stapi/OneDrive/Desktop/GD32VW553/V1_MQTT_OK/GD32VW55X_Wifi_BLE_SDK/GD32VW55x_REL
 1711              		.file 3 "C:/Users/stapi/OneDrive/Desktop/GD32VW553/V1_MQTT_OK/GD32VW55X_Wifi_BLE_SDK/GD32VW55x_REL
 1712              		.file 4 "C:/Users/stapi/OneDrive/Desktop/GD32VW553/V1_MQTT_OK/GD32VW55X_Wifi_BLE_SDK/GD32VW55x_REL
 1713              		.file 5 "C:/Users/stapi/OneDrive/Desktop/GD32VW553/V1_MQTT_OK/GD32VW55X_Wifi_BLE_SDK/GD32VW55x_REL
 1714              		.file 6 "C:/Users/stapi/OneDrive/Desktop/GD32VW553/V1_MQTT_OK/GD32VW55X_Wifi_BLE_SDK/GD32VW55x_REL
 1715              		.file 7 "C:/Users/stapi/OneDrive/Desktop/GD32VW553/V1_MQTT_OK/GD32VW55X_Wifi_BLE_SDK/GD32VW55x_REL
 1716              		.file 8 "..\\..\\..\\..\\cloud\\alicloud\\src\\infra\\log/iotx_log.h"
 1717              		.file 9 "c:\\users\\stapi\\onedrive\\desktop\\gd32vw553\\embeddedbuilder_v1.4.7.26843\\tools\\nucl
 1718              		.file 10 "..\\..\\..\\..\\cloud\\alicloud\\src\\infra\\utils/iotx_utils.h"
 1719              		.file 11 "..\\..\\..\\..\\cloud\\alicloud\\include/iot_import.h"
 1720              		.file 12 "C:/Users/stapi/OneDrive/Desktop/GD32VW553/V1_MQTT_OK/GD32VW55X_Wifi_BLE_SDK/GD32VW55x_RE
 1721              		.file 13 "C:/Users/stapi/OneDrive/Desktop/GD32VW553/V1_MQTT_OK/GD32VW55X_Wifi_BLE_SDK/GD32VW55x_RE
 1722              		.file 14 "..\\..\\..\\..\\cloud\\alicloud\\src\\services\\linkkit\\dm\\client/dm_client_adapter.h"
 1723              		.file 15 "C:/Users/stapi/OneDrive/Desktop/GD32VW553/V1_MQTT_OK/GD32VW55X_Wifi_BLE_SDK/GD32VW55x_RE
 1724              		.file 16 "C:/Users/stapi/OneDrive/Desktop/GD32VW553/V1_MQTT_OK/GD32VW55X_Wifi_BLE_SDK/GD32VW55x_RE
 1725              		.file 17 "..\\..\\..\\..\\cloud\\alicloud\\src\\services\\linkkit\\dm\\client/dm_client.h"
 1726              		.file 18 "..\\..\\..\\..\\cloud\\alicloud\\include/exports/iot_export_errno.h"
 1727              		.file 19 "<built-in>"