   1              		.file	"dm_cota.c"
   2              		.option nopic
   3              		.attribute arch, "rv32i2p0_m2p0_a2p0_f2p0_c2p0_b_p0p94"
   4              		.attribute unaligned_access, 0
   5              		.attribute stack_align, 16
   6              		.text
   7              	.Ltext0:
   8              		.cfi_sections	.debug_frame
   9              		.section	.text.dm_cota_init,"ax",@progbits
  10              		.align	1
  11              		.globl	dm_cota_init
  13              	dm_cota_init:
  14              	.LFB21:
  15              		.file 1 "C:/Users/stapi/OneDrive/Desktop/GD32VW553/V1_MQTT_OK/GD32VW55X_Wifi_BLE_SDK/GD32VW55x_REL
   1:C:/Users/stapi/OneDrive/Desktop/GD32VW553/V1_MQTT_OK/GD32VW55X_Wifi_BLE_SDK/GD32VW55x_RELEASE_V1.0.2/MSDK/cloud/alicloud/src/services/linkkit/dm\dm_cota.c **** /*
   2:C:/Users/stapi/OneDrive/Desktop/GD32VW553/V1_MQTT_OK/GD32VW55X_Wifi_BLE_SDK/GD32VW55x_RELEASE_V1.0.2/MSDK/cloud/alicloud/src/services/linkkit/dm\dm_cota.c ****  * Copyright (C) 2015-2018 Alibaba Group Holding Limited
   3:C:/Users/stapi/OneDrive/Desktop/GD32VW553/V1_MQTT_OK/GD32VW55X_Wifi_BLE_SDK/GD32VW55x_RELEASE_V1.0.2/MSDK/cloud/alicloud/src/services/linkkit/dm\dm_cota.c ****  */
   4:C:/Users/stapi/OneDrive/Desktop/GD32VW553/V1_MQTT_OK/GD32VW55X_Wifi_BLE_SDK/GD32VW55x_RELEASE_V1.0.2/MSDK/cloud/alicloud/src/services/linkkit/dm\dm_cota.c **** #if defined(OTA_ENABLED) && !defined(BUILD_AOS)
   5:C:/Users/stapi/OneDrive/Desktop/GD32VW553/V1_MQTT_OK/GD32VW55X_Wifi_BLE_SDK/GD32VW55x_RELEASE_V1.0.2/MSDK/cloud/alicloud/src/services/linkkit/dm\dm_cota.c **** #include "iotx_dm_internal.h"
   6:C:/Users/stapi/OneDrive/Desktop/GD32VW553/V1_MQTT_OK/GD32VW55X_Wifi_BLE_SDK/GD32VW55x_RELEASE_V1.0.2/MSDK/cloud/alicloud/src/services/linkkit/dm\dm_cota.c **** 
   7:C:/Users/stapi/OneDrive/Desktop/GD32VW553/V1_MQTT_OK/GD32VW55X_Wifi_BLE_SDK/GD32VW55x_RELEASE_V1.0.2/MSDK/cloud/alicloud/src/services/linkkit/dm\dm_cota.c **** #define DM_COTA_MALLOC(size) LITE_malloc(size, MEM_MAGIC, "dm.cota")
   8:C:/Users/stapi/OneDrive/Desktop/GD32VW553/V1_MQTT_OK/GD32VW55X_Wifi_BLE_SDK/GD32VW55x_RELEASE_V1.0.2/MSDK/cloud/alicloud/src/services/linkkit/dm\dm_cota.c **** #define DM_COTA_FREE(ptr)    LITE_free(ptr)
   9:C:/Users/stapi/OneDrive/Desktop/GD32VW553/V1_MQTT_OK/GD32VW55X_Wifi_BLE_SDK/GD32VW55x_RELEASE_V1.0.2/MSDK/cloud/alicloud/src/services/linkkit/dm\dm_cota.c **** 
  10:C:/Users/stapi/OneDrive/Desktop/GD32VW553/V1_MQTT_OK/GD32VW55X_Wifi_BLE_SDK/GD32VW55x_RELEASE_V1.0.2/MSDK/cloud/alicloud/src/services/linkkit/dm\dm_cota.c **** static dm_cota_ctx_t g_dm_cota_ctx;
  11:C:/Users/stapi/OneDrive/Desktop/GD32VW553/V1_MQTT_OK/GD32VW55X_Wifi_BLE_SDK/GD32VW55x_RELEASE_V1.0.2/MSDK/cloud/alicloud/src/services/linkkit/dm\dm_cota.c **** 
  12:C:/Users/stapi/OneDrive/Desktop/GD32VW553/V1_MQTT_OK/GD32VW55X_Wifi_BLE_SDK/GD32VW55x_RELEASE_V1.0.2/MSDK/cloud/alicloud/src/services/linkkit/dm\dm_cota.c **** static dm_cota_ctx_t *_dm_cota_get_ctx(void)
  13:C:/Users/stapi/OneDrive/Desktop/GD32VW553/V1_MQTT_OK/GD32VW55X_Wifi_BLE_SDK/GD32VW55x_RELEASE_V1.0.2/MSDK/cloud/alicloud/src/services/linkkit/dm\dm_cota.c **** {
  14:C:/Users/stapi/OneDrive/Desktop/GD32VW553/V1_MQTT_OK/GD32VW55X_Wifi_BLE_SDK/GD32VW55x_RELEASE_V1.0.2/MSDK/cloud/alicloud/src/services/linkkit/dm\dm_cota.c ****     return &g_dm_cota_ctx;
  15:C:/Users/stapi/OneDrive/Desktop/GD32VW553/V1_MQTT_OK/GD32VW55X_Wifi_BLE_SDK/GD32VW55x_RELEASE_V1.0.2/MSDK/cloud/alicloud/src/services/linkkit/dm\dm_cota.c **** }
  16:C:/Users/stapi/OneDrive/Desktop/GD32VW553/V1_MQTT_OK/GD32VW55X_Wifi_BLE_SDK/GD32VW55x_RELEASE_V1.0.2/MSDK/cloud/alicloud/src/services/linkkit/dm\dm_cota.c **** 
  17:C:/Users/stapi/OneDrive/Desktop/GD32VW553/V1_MQTT_OK/GD32VW55X_Wifi_BLE_SDK/GD32VW55x_RELEASE_V1.0.2/MSDK/cloud/alicloud/src/services/linkkit/dm\dm_cota.c **** int dm_cota_init(void)
  18:C:/Users/stapi/OneDrive/Desktop/GD32VW553/V1_MQTT_OK/GD32VW55X_Wifi_BLE_SDK/GD32VW55x_RELEASE_V1.0.2/MSDK/cloud/alicloud/src/services/linkkit/dm\dm_cota.c **** {
  16              		.loc 1 18 1
  17              		.cfi_startproc
  19:C:/Users/stapi/OneDrive/Desktop/GD32VW553/V1_MQTT_OK/GD32VW55X_Wifi_BLE_SDK/GD32VW55x_RELEASE_V1.0.2/MSDK/cloud/alicloud/src/services/linkkit/dm\dm_cota.c ****     dm_cota_ctx_t *ctx = _dm_cota_get_ctx();
  18              		.loc 1 19 5
  14:C:/Users/stapi/OneDrive/Desktop/GD32VW553/V1_MQTT_OK/GD32VW55X_Wifi_BLE_SDK/GD32VW55x_RELEASE_V1.0.2/MSDK/cloud/alicloud/src/services/linkkit/dm\dm_cota.c **** }
  19              		.loc 1 14 5
  20              	.LVL0:
  20:C:/Users/stapi/OneDrive/Desktop/GD32VW553/V1_MQTT_OK/GD32VW55X_Wifi_BLE_SDK/GD32VW55x_RELEASE_V1.0.2/MSDK/cloud/alicloud/src/services/linkkit/dm\dm_cota.c **** 
  21:C:/Users/stapi/OneDrive/Desktop/GD32VW553/V1_MQTT_OK/GD32VW55X_Wifi_BLE_SDK/GD32VW55x_RELEASE_V1.0.2/MSDK/cloud/alicloud/src/services/linkkit/dm\dm_cota.c ****     memset(ctx, 0, sizeof(dm_cota_ctx_t));
  21              		.loc 1 21 5
  22 0000 B7070000 		lui	a5,%hi(.LANCHOR0)
  23 0004 23A00700 		sw	zero,%lo(.LANCHOR0)(a5)
  22:C:/Users/stapi/OneDrive/Desktop/GD32VW553/V1_MQTT_OK/GD32VW55X_Wifi_BLE_SDK/GD32VW55x_RELEASE_V1.0.2/MSDK/cloud/alicloud/src/services/linkkit/dm\dm_cota.c **** 
  23:C:/Users/stapi/OneDrive/Desktop/GD32VW553/V1_MQTT_OK/GD32VW55X_Wifi_BLE_SDK/GD32VW55x_RELEASE_V1.0.2/MSDK/cloud/alicloud/src/services/linkkit/dm\dm_cota.c ****     return SUCCESS_RETURN;
  24              		.loc 1 23 5
  24:C:/Users/stapi/OneDrive/Desktop/GD32VW553/V1_MQTT_OK/GD32VW55X_Wifi_BLE_SDK/GD32VW55x_RELEASE_V1.0.2/MSDK/cloud/alicloud/src/services/linkkit/dm\dm_cota.c **** }
  25              		.loc 1 24 1 is_stmt 0
  26 0008 0145     		li	a0,0
  27 000a 8280     		ret
  28              		.cfi_endproc
  29              	.LFE21:
  31              		.section	.text.dm_cota_deinit,"ax",@progbits
  32              		.align	1
  33              		.globl	dm_cota_deinit
  35              	dm_cota_deinit:
  36              	.LFB28:
  37              		.cfi_startproc
  38 0000 17030000 		tail	dm_cota_init
  38      67000300 
  39              		.cfi_endproc
  40              	.LFE28:
  42              		.section	.text.dm_cota_perform_sync,"ax",@progbits
  43              		.align	1
  44              		.globl	dm_cota_perform_sync
  46              	dm_cota_perform_sync:
  47              	.LFB24:
  25:C:/Users/stapi/OneDrive/Desktop/GD32VW553/V1_MQTT_OK/GD32VW55X_Wifi_BLE_SDK/GD32VW55x_RELEASE_V1.0.2/MSDK/cloud/alicloud/src/services/linkkit/dm\dm_cota.c **** 
  26:C:/Users/stapi/OneDrive/Desktop/GD32VW553/V1_MQTT_OK/GD32VW55X_Wifi_BLE_SDK/GD32VW55x_RELEASE_V1.0.2/MSDK/cloud/alicloud/src/services/linkkit/dm\dm_cota.c **** int dm_cota_deinit(void)
  27:C:/Users/stapi/OneDrive/Desktop/GD32VW553/V1_MQTT_OK/GD32VW55X_Wifi_BLE_SDK/GD32VW55x_RELEASE_V1.0.2/MSDK/cloud/alicloud/src/services/linkkit/dm\dm_cota.c **** {
  28:C:/Users/stapi/OneDrive/Desktop/GD32VW553/V1_MQTT_OK/GD32VW55X_Wifi_BLE_SDK/GD32VW55x_RELEASE_V1.0.2/MSDK/cloud/alicloud/src/services/linkkit/dm\dm_cota.c ****     dm_cota_ctx_t *ctx = _dm_cota_get_ctx();
  29:C:/Users/stapi/OneDrive/Desktop/GD32VW553/V1_MQTT_OK/GD32VW55X_Wifi_BLE_SDK/GD32VW55x_RELEASE_V1.0.2/MSDK/cloud/alicloud/src/services/linkkit/dm\dm_cota.c **** 
  30:C:/Users/stapi/OneDrive/Desktop/GD32VW553/V1_MQTT_OK/GD32VW55X_Wifi_BLE_SDK/GD32VW55x_RELEASE_V1.0.2/MSDK/cloud/alicloud/src/services/linkkit/dm\dm_cota.c ****     memset(ctx, 0, sizeof(dm_cota_ctx_t));
  31:C:/Users/stapi/OneDrive/Desktop/GD32VW553/V1_MQTT_OK/GD32VW55X_Wifi_BLE_SDK/GD32VW55x_RELEASE_V1.0.2/MSDK/cloud/alicloud/src/services/linkkit/dm\dm_cota.c **** 
  32:C:/Users/stapi/OneDrive/Desktop/GD32VW553/V1_MQTT_OK/GD32VW55X_Wifi_BLE_SDK/GD32VW55x_RELEASE_V1.0.2/MSDK/cloud/alicloud/src/services/linkkit/dm\dm_cota.c ****     return SUCCESS_RETURN;
  33:C:/Users/stapi/OneDrive/Desktop/GD32VW553/V1_MQTT_OK/GD32VW55X_Wifi_BLE_SDK/GD32VW55x_RELEASE_V1.0.2/MSDK/cloud/alicloud/src/services/linkkit/dm\dm_cota.c **** }
  34:C:/Users/stapi/OneDrive/Desktop/GD32VW553/V1_MQTT_OK/GD32VW55X_Wifi_BLE_SDK/GD32VW55x_RELEASE_V1.0.2/MSDK/cloud/alicloud/src/services/linkkit/dm\dm_cota.c **** 
  35:C:/Users/stapi/OneDrive/Desktop/GD32VW553/V1_MQTT_OK/GD32VW55X_Wifi_BLE_SDK/GD32VW55x_RELEASE_V1.0.2/MSDK/cloud/alicloud/src/services/linkkit/dm\dm_cota.c **** static int _dm_cota_send_new_config_to_user(void *ota_handle)
  36:C:/Users/stapi/OneDrive/Desktop/GD32VW553/V1_MQTT_OK/GD32VW55X_Wifi_BLE_SDK/GD32VW55x_RELEASE_V1.0.2/MSDK/cloud/alicloud/src/services/linkkit/dm\dm_cota.c **** {
  37:C:/Users/stapi/OneDrive/Desktop/GD32VW553/V1_MQTT_OK/GD32VW55X_Wifi_BLE_SDK/GD32VW55x_RELEASE_V1.0.2/MSDK/cloud/alicloud/src/services/linkkit/dm\dm_cota.c ****     int res = 0, message_len = 0;
  38:C:/Users/stapi/OneDrive/Desktop/GD32VW553/V1_MQTT_OK/GD32VW55X_Wifi_BLE_SDK/GD32VW55x_RELEASE_V1.0.2/MSDK/cloud/alicloud/src/services/linkkit/dm\dm_cota.c ****     char *message = NULL;
  39:C:/Users/stapi/OneDrive/Desktop/GD32VW553/V1_MQTT_OK/GD32VW55X_Wifi_BLE_SDK/GD32VW55x_RELEASE_V1.0.2/MSDK/cloud/alicloud/src/services/linkkit/dm\dm_cota.c ****     uint32_t config_size = 0;
  40:C:/Users/stapi/OneDrive/Desktop/GD32VW553/V1_MQTT_OK/GD32VW55X_Wifi_BLE_SDK/GD32VW55x_RELEASE_V1.0.2/MSDK/cloud/alicloud/src/services/linkkit/dm\dm_cota.c ****     char *config_id = NULL, *sign = NULL, *sign_method = NULL, *url = NULL, *get_type = NULL;
  41:C:/Users/stapi/OneDrive/Desktop/GD32VW553/V1_MQTT_OK/GD32VW55X_Wifi_BLE_SDK/GD32VW55x_RELEASE_V1.0.2/MSDK/cloud/alicloud/src/services/linkkit/dm\dm_cota.c ****     const char *cota_new_config_fmt =
  42:C:/Users/stapi/OneDrive/Desktop/GD32VW553/V1_MQTT_OK/GD32VW55X_Wifi_BLE_SDK/GD32VW55x_RELEASE_V1.0.2/MSDK/cloud/alicloud/src/services/linkkit/dm\dm_cota.c ****                 "{\"configId\":\"%s\",\"configSize\":%d,\"getType\":\"%s\",\"sign\":\"%s\",\"signMe
  43:C:/Users/stapi/OneDrive/Desktop/GD32VW553/V1_MQTT_OK/GD32VW55X_Wifi_BLE_SDK/GD32VW55x_RELEASE_V1.0.2/MSDK/cloud/alicloud/src/services/linkkit/dm\dm_cota.c **** 
  44:C:/Users/stapi/OneDrive/Desktop/GD32VW553/V1_MQTT_OK/GD32VW55X_Wifi_BLE_SDK/GD32VW55x_RELEASE_V1.0.2/MSDK/cloud/alicloud/src/services/linkkit/dm\dm_cota.c ****     IOT_OTA_Ioctl(ota_handle, IOT_OTAG_COTA_CONFIG_ID, (void *)&config_id, 1);
  45:C:/Users/stapi/OneDrive/Desktop/GD32VW553/V1_MQTT_OK/GD32VW55X_Wifi_BLE_SDK/GD32VW55x_RELEASE_V1.0.2/MSDK/cloud/alicloud/src/services/linkkit/dm\dm_cota.c ****     IOT_OTA_Ioctl(ota_handle, IOT_OTAG_COTA_CONFIG_SIZE, &config_size, 4);
  46:C:/Users/stapi/OneDrive/Desktop/GD32VW553/V1_MQTT_OK/GD32VW55X_Wifi_BLE_SDK/GD32VW55x_RELEASE_V1.0.2/MSDK/cloud/alicloud/src/services/linkkit/dm\dm_cota.c ****     IOT_OTA_Ioctl(ota_handle, IOT_OTAG_COTA_SIGN, (void *)&sign, 1);
  47:C:/Users/stapi/OneDrive/Desktop/GD32VW553/V1_MQTT_OK/GD32VW55X_Wifi_BLE_SDK/GD32VW55x_RELEASE_V1.0.2/MSDK/cloud/alicloud/src/services/linkkit/dm\dm_cota.c ****     IOT_OTA_Ioctl(ota_handle, IOT_OTAG_COTA_SIGN_METHOD, (void *)&sign_method, 1);
  48:C:/Users/stapi/OneDrive/Desktop/GD32VW553/V1_MQTT_OK/GD32VW55X_Wifi_BLE_SDK/GD32VW55x_RELEASE_V1.0.2/MSDK/cloud/alicloud/src/services/linkkit/dm\dm_cota.c ****     IOT_OTA_Ioctl(ota_handle, IOT_OTAG_COTA_URL, (void *)&url, 1);
  49:C:/Users/stapi/OneDrive/Desktop/GD32VW553/V1_MQTT_OK/GD32VW55X_Wifi_BLE_SDK/GD32VW55x_RELEASE_V1.0.2/MSDK/cloud/alicloud/src/services/linkkit/dm\dm_cota.c ****     IOT_OTA_Ioctl(ota_handle, IOT_OTAG_COTA_GETTYPE, (void *)&get_type, 1);
  50:C:/Users/stapi/OneDrive/Desktop/GD32VW553/V1_MQTT_OK/GD32VW55X_Wifi_BLE_SDK/GD32VW55x_RELEASE_V1.0.2/MSDK/cloud/alicloud/src/services/linkkit/dm\dm_cota.c **** 
  51:C:/Users/stapi/OneDrive/Desktop/GD32VW553/V1_MQTT_OK/GD32VW55X_Wifi_BLE_SDK/GD32VW55x_RELEASE_V1.0.2/MSDK/cloud/alicloud/src/services/linkkit/dm\dm_cota.c ****     if (config_id == NULL || sign == NULL || sign_method == NULL || url == NULL || get_type == NULL
  52:C:/Users/stapi/OneDrive/Desktop/GD32VW553/V1_MQTT_OK/GD32VW55X_Wifi_BLE_SDK/GD32VW55x_RELEASE_V1.0.2/MSDK/cloud/alicloud/src/services/linkkit/dm\dm_cota.c ****         res = FAIL_RETURN;
  53:C:/Users/stapi/OneDrive/Desktop/GD32VW553/V1_MQTT_OK/GD32VW55X_Wifi_BLE_SDK/GD32VW55x_RELEASE_V1.0.2/MSDK/cloud/alicloud/src/services/linkkit/dm\dm_cota.c ****         goto ERROR;
  54:C:/Users/stapi/OneDrive/Desktop/GD32VW553/V1_MQTT_OK/GD32VW55X_Wifi_BLE_SDK/GD32VW55x_RELEASE_V1.0.2/MSDK/cloud/alicloud/src/services/linkkit/dm\dm_cota.c ****     }
  55:C:/Users/stapi/OneDrive/Desktop/GD32VW553/V1_MQTT_OK/GD32VW55X_Wifi_BLE_SDK/GD32VW55x_RELEASE_V1.0.2/MSDK/cloud/alicloud/src/services/linkkit/dm\dm_cota.c **** 
  56:C:/Users/stapi/OneDrive/Desktop/GD32VW553/V1_MQTT_OK/GD32VW55X_Wifi_BLE_SDK/GD32VW55x_RELEASE_V1.0.2/MSDK/cloud/alicloud/src/services/linkkit/dm\dm_cota.c ****     message_len = strlen(cota_new_config_fmt) + strlen(config_id) + DM_UTILS_UINT32_STRLEN + strlen
  57:C:/Users/stapi/OneDrive/Desktop/GD32VW553/V1_MQTT_OK/GD32VW55X_Wifi_BLE_SDK/GD32VW55x_RELEASE_V1.0.2/MSDK/cloud/alicloud/src/services/linkkit/dm\dm_cota.c ****                   strlen(sign) + strlen(sign_method) + strlen(url) + 1;
  58:C:/Users/stapi/OneDrive/Desktop/GD32VW553/V1_MQTT_OK/GD32VW55X_Wifi_BLE_SDK/GD32VW55x_RELEASE_V1.0.2/MSDK/cloud/alicloud/src/services/linkkit/dm\dm_cota.c **** 
  59:C:/Users/stapi/OneDrive/Desktop/GD32VW553/V1_MQTT_OK/GD32VW55X_Wifi_BLE_SDK/GD32VW55x_RELEASE_V1.0.2/MSDK/cloud/alicloud/src/services/linkkit/dm\dm_cota.c ****     message = DM_malloc(message_len);
  60:C:/Users/stapi/OneDrive/Desktop/GD32VW553/V1_MQTT_OK/GD32VW55X_Wifi_BLE_SDK/GD32VW55x_RELEASE_V1.0.2/MSDK/cloud/alicloud/src/services/linkkit/dm\dm_cota.c ****     if (message == NULL) {
  61:C:/Users/stapi/OneDrive/Desktop/GD32VW553/V1_MQTT_OK/GD32VW55X_Wifi_BLE_SDK/GD32VW55x_RELEASE_V1.0.2/MSDK/cloud/alicloud/src/services/linkkit/dm\dm_cota.c ****         res = DM_MEMORY_NOT_ENOUGH;
  62:C:/Users/stapi/OneDrive/Desktop/GD32VW553/V1_MQTT_OK/GD32VW55X_Wifi_BLE_SDK/GD32VW55x_RELEASE_V1.0.2/MSDK/cloud/alicloud/src/services/linkkit/dm\dm_cota.c ****         goto ERROR;
  63:C:/Users/stapi/OneDrive/Desktop/GD32VW553/V1_MQTT_OK/GD32VW55X_Wifi_BLE_SDK/GD32VW55x_RELEASE_V1.0.2/MSDK/cloud/alicloud/src/services/linkkit/dm\dm_cota.c ****     }
  64:C:/Users/stapi/OneDrive/Desktop/GD32VW553/V1_MQTT_OK/GD32VW55X_Wifi_BLE_SDK/GD32VW55x_RELEASE_V1.0.2/MSDK/cloud/alicloud/src/services/linkkit/dm\dm_cota.c ****     memset(message, 0, message_len);
  65:C:/Users/stapi/OneDrive/Desktop/GD32VW553/V1_MQTT_OK/GD32VW55X_Wifi_BLE_SDK/GD32VW55x_RELEASE_V1.0.2/MSDK/cloud/alicloud/src/services/linkkit/dm\dm_cota.c ****     HAL_Snprintf(message, message_len, cota_new_config_fmt, config_id, config_size, get_type, sign,
  66:C:/Users/stapi/OneDrive/Desktop/GD32VW553/V1_MQTT_OK/GD32VW55X_Wifi_BLE_SDK/GD32VW55x_RELEASE_V1.0.2/MSDK/cloud/alicloud/src/services/linkkit/dm\dm_cota.c **** 
  67:C:/Users/stapi/OneDrive/Desktop/GD32VW553/V1_MQTT_OK/GD32VW55X_Wifi_BLE_SDK/GD32VW55x_RELEASE_V1.0.2/MSDK/cloud/alicloud/src/services/linkkit/dm\dm_cota.c ****     dm_log_info("Send To User: %s", message);
  68:C:/Users/stapi/OneDrive/Desktop/GD32VW553/V1_MQTT_OK/GD32VW55X_Wifi_BLE_SDK/GD32VW55x_RELEASE_V1.0.2/MSDK/cloud/alicloud/src/services/linkkit/dm\dm_cota.c **** 
  69:C:/Users/stapi/OneDrive/Desktop/GD32VW553/V1_MQTT_OK/GD32VW55X_Wifi_BLE_SDK/GD32VW55x_RELEASE_V1.0.2/MSDK/cloud/alicloud/src/services/linkkit/dm\dm_cota.c ****     res = _dm_msg_send_to_user(IOTX_DM_EVENT_COTA_NEW_CONFIG, message);
  70:C:/Users/stapi/OneDrive/Desktop/GD32VW553/V1_MQTT_OK/GD32VW55X_Wifi_BLE_SDK/GD32VW55x_RELEASE_V1.0.2/MSDK/cloud/alicloud/src/services/linkkit/dm\dm_cota.c ****     if (res != SUCCESS_RETURN) {
  71:C:/Users/stapi/OneDrive/Desktop/GD32VW553/V1_MQTT_OK/GD32VW55X_Wifi_BLE_SDK/GD32VW55x_RELEASE_V1.0.2/MSDK/cloud/alicloud/src/services/linkkit/dm\dm_cota.c ****         if (message) {
  72:C:/Users/stapi/OneDrive/Desktop/GD32VW553/V1_MQTT_OK/GD32VW55X_Wifi_BLE_SDK/GD32VW55x_RELEASE_V1.0.2/MSDK/cloud/alicloud/src/services/linkkit/dm\dm_cota.c ****             DM_free(message);
  73:C:/Users/stapi/OneDrive/Desktop/GD32VW553/V1_MQTT_OK/GD32VW55X_Wifi_BLE_SDK/GD32VW55x_RELEASE_V1.0.2/MSDK/cloud/alicloud/src/services/linkkit/dm\dm_cota.c ****         }
  74:C:/Users/stapi/OneDrive/Desktop/GD32VW553/V1_MQTT_OK/GD32VW55X_Wifi_BLE_SDK/GD32VW55x_RELEASE_V1.0.2/MSDK/cloud/alicloud/src/services/linkkit/dm\dm_cota.c ****         res = FAIL_RETURN;
  75:C:/Users/stapi/OneDrive/Desktop/GD32VW553/V1_MQTT_OK/GD32VW55X_Wifi_BLE_SDK/GD32VW55x_RELEASE_V1.0.2/MSDK/cloud/alicloud/src/services/linkkit/dm\dm_cota.c ****         goto ERROR;
  76:C:/Users/stapi/OneDrive/Desktop/GD32VW553/V1_MQTT_OK/GD32VW55X_Wifi_BLE_SDK/GD32VW55x_RELEASE_V1.0.2/MSDK/cloud/alicloud/src/services/linkkit/dm\dm_cota.c ****     }
  77:C:/Users/stapi/OneDrive/Desktop/GD32VW553/V1_MQTT_OK/GD32VW55X_Wifi_BLE_SDK/GD32VW55x_RELEASE_V1.0.2/MSDK/cloud/alicloud/src/services/linkkit/dm\dm_cota.c **** 
  78:C:/Users/stapi/OneDrive/Desktop/GD32VW553/V1_MQTT_OK/GD32VW55X_Wifi_BLE_SDK/GD32VW55x_RELEASE_V1.0.2/MSDK/cloud/alicloud/src/services/linkkit/dm\dm_cota.c ****     res = SUCCESS_RETURN;
  79:C:/Users/stapi/OneDrive/Desktop/GD32VW553/V1_MQTT_OK/GD32VW55X_Wifi_BLE_SDK/GD32VW55x_RELEASE_V1.0.2/MSDK/cloud/alicloud/src/services/linkkit/dm\dm_cota.c **** ERROR:
  80:C:/Users/stapi/OneDrive/Desktop/GD32VW553/V1_MQTT_OK/GD32VW55X_Wifi_BLE_SDK/GD32VW55x_RELEASE_V1.0.2/MSDK/cloud/alicloud/src/services/linkkit/dm\dm_cota.c ****     if (config_id) {
  81:C:/Users/stapi/OneDrive/Desktop/GD32VW553/V1_MQTT_OK/GD32VW55X_Wifi_BLE_SDK/GD32VW55x_RELEASE_V1.0.2/MSDK/cloud/alicloud/src/services/linkkit/dm\dm_cota.c ****         DM_COTA_FREE(config_id);
  82:C:/Users/stapi/OneDrive/Desktop/GD32VW553/V1_MQTT_OK/GD32VW55X_Wifi_BLE_SDK/GD32VW55x_RELEASE_V1.0.2/MSDK/cloud/alicloud/src/services/linkkit/dm\dm_cota.c ****     }
  83:C:/Users/stapi/OneDrive/Desktop/GD32VW553/V1_MQTT_OK/GD32VW55X_Wifi_BLE_SDK/GD32VW55x_RELEASE_V1.0.2/MSDK/cloud/alicloud/src/services/linkkit/dm\dm_cota.c ****     if (sign) {
  84:C:/Users/stapi/OneDrive/Desktop/GD32VW553/V1_MQTT_OK/GD32VW55X_Wifi_BLE_SDK/GD32VW55x_RELEASE_V1.0.2/MSDK/cloud/alicloud/src/services/linkkit/dm\dm_cota.c ****         DM_COTA_FREE(sign);
  85:C:/Users/stapi/OneDrive/Desktop/GD32VW553/V1_MQTT_OK/GD32VW55X_Wifi_BLE_SDK/GD32VW55x_RELEASE_V1.0.2/MSDK/cloud/alicloud/src/services/linkkit/dm\dm_cota.c ****     }
  86:C:/Users/stapi/OneDrive/Desktop/GD32VW553/V1_MQTT_OK/GD32VW55X_Wifi_BLE_SDK/GD32VW55x_RELEASE_V1.0.2/MSDK/cloud/alicloud/src/services/linkkit/dm\dm_cota.c ****     if (sign_method) {
  87:C:/Users/stapi/OneDrive/Desktop/GD32VW553/V1_MQTT_OK/GD32VW55X_Wifi_BLE_SDK/GD32VW55x_RELEASE_V1.0.2/MSDK/cloud/alicloud/src/services/linkkit/dm\dm_cota.c ****         DM_COTA_FREE(sign_method);
  88:C:/Users/stapi/OneDrive/Desktop/GD32VW553/V1_MQTT_OK/GD32VW55X_Wifi_BLE_SDK/GD32VW55x_RELEASE_V1.0.2/MSDK/cloud/alicloud/src/services/linkkit/dm\dm_cota.c ****     }
  89:C:/Users/stapi/OneDrive/Desktop/GD32VW553/V1_MQTT_OK/GD32VW55X_Wifi_BLE_SDK/GD32VW55x_RELEASE_V1.0.2/MSDK/cloud/alicloud/src/services/linkkit/dm\dm_cota.c ****     if (url) {
  90:C:/Users/stapi/OneDrive/Desktop/GD32VW553/V1_MQTT_OK/GD32VW55X_Wifi_BLE_SDK/GD32VW55x_RELEASE_V1.0.2/MSDK/cloud/alicloud/src/services/linkkit/dm\dm_cota.c ****         DM_COTA_FREE(url);
  91:C:/Users/stapi/OneDrive/Desktop/GD32VW553/V1_MQTT_OK/GD32VW55X_Wifi_BLE_SDK/GD32VW55x_RELEASE_V1.0.2/MSDK/cloud/alicloud/src/services/linkkit/dm\dm_cota.c ****     }
  92:C:/Users/stapi/OneDrive/Desktop/GD32VW553/V1_MQTT_OK/GD32VW55X_Wifi_BLE_SDK/GD32VW55x_RELEASE_V1.0.2/MSDK/cloud/alicloud/src/services/linkkit/dm\dm_cota.c ****     if (get_type) {
  93:C:/Users/stapi/OneDrive/Desktop/GD32VW553/V1_MQTT_OK/GD32VW55X_Wifi_BLE_SDK/GD32VW55x_RELEASE_V1.0.2/MSDK/cloud/alicloud/src/services/linkkit/dm\dm_cota.c ****         DM_COTA_FREE(get_type);
  94:C:/Users/stapi/OneDrive/Desktop/GD32VW553/V1_MQTT_OK/GD32VW55X_Wifi_BLE_SDK/GD32VW55x_RELEASE_V1.0.2/MSDK/cloud/alicloud/src/services/linkkit/dm\dm_cota.c ****     }
  95:C:/Users/stapi/OneDrive/Desktop/GD32VW553/V1_MQTT_OK/GD32VW55X_Wifi_BLE_SDK/GD32VW55x_RELEASE_V1.0.2/MSDK/cloud/alicloud/src/services/linkkit/dm\dm_cota.c **** 
  96:C:/Users/stapi/OneDrive/Desktop/GD32VW553/V1_MQTT_OK/GD32VW55X_Wifi_BLE_SDK/GD32VW55x_RELEASE_V1.0.2/MSDK/cloud/alicloud/src/services/linkkit/dm\dm_cota.c ****     return res;
  97:C:/Users/stapi/OneDrive/Desktop/GD32VW553/V1_MQTT_OK/GD32VW55X_Wifi_BLE_SDK/GD32VW55x_RELEASE_V1.0.2/MSDK/cloud/alicloud/src/services/linkkit/dm\dm_cota.c **** }
  98:C:/Users/stapi/OneDrive/Desktop/GD32VW553/V1_MQTT_OK/GD32VW55X_Wifi_BLE_SDK/GD32VW55x_RELEASE_V1.0.2/MSDK/cloud/alicloud/src/services/linkkit/dm\dm_cota.c **** 
  99:C:/Users/stapi/OneDrive/Desktop/GD32VW553/V1_MQTT_OK/GD32VW55X_Wifi_BLE_SDK/GD32VW55x_RELEASE_V1.0.2/MSDK/cloud/alicloud/src/services/linkkit/dm\dm_cota.c **** int dm_cota_perform_sync(_OU_ char *output, _IN_ int output_len)
 100:C:/Users/stapi/OneDrive/Desktop/GD32VW553/V1_MQTT_OK/GD32VW55X_Wifi_BLE_SDK/GD32VW55x_RELEASE_V1.0.2/MSDK/cloud/alicloud/src/services/linkkit/dm\dm_cota.c **** {
  48              		.loc 1 100 1 is_stmt 1
  49              		.cfi_startproc
  50              	.LVL1:
  51              		.loc 1 100 1 is_stmt 0
  52 0000 17030000 		call	t0,__riscv_save_12
  52      E7020300 
  53              		.cfi_offset 27, -52
  54              		.cfi_offset 26, -48
  55              		.cfi_offset 25, -44
  56              		.cfi_offset 24, -40
  57              		.cfi_offset 23, -36
  58              		.cfi_offset 22, -32
  59              		.cfi_offset 21, -28
  60              		.cfi_offset 20, -24
  61              		.cfi_offset 19, -20
  62              		.cfi_offset 18, -16
  63              		.cfi_offset 9, -12
  64              		.cfi_offset 8, -8
  65              		.cfi_offset 1, -4
  66              		.cfi_def_cfa_offset 64
 101:C:/Users/stapi/OneDrive/Desktop/GD32VW553/V1_MQTT_OK/GD32VW55X_Wifi_BLE_SDK/GD32VW55x_RELEASE_V1.0.2/MSDK/cloud/alicloud/src/services/linkkit/dm\dm_cota.c ****     int res = 0, file_download = 0;
  67              		.loc 1 101 5 is_stmt 1
  68              	.LVL2:
 102:C:/Users/stapi/OneDrive/Desktop/GD32VW553/V1_MQTT_OK/GD32VW55X_Wifi_BLE_SDK/GD32VW55x_RELEASE_V1.0.2/MSDK/cloud/alicloud/src/services/linkkit/dm\dm_cota.c ****     uint32_t file_size = 0, file_downloaded = 0;
  69              		.loc 1 102 5
 100:C:/Users/stapi/OneDrive/Desktop/GD32VW553/V1_MQTT_OK/GD32VW55X_Wifi_BLE_SDK/GD32VW55x_RELEASE_V1.0.2/MSDK/cloud/alicloud/src/services/linkkit/dm\dm_cota.c ****     int res = 0, file_download = 0;
  70              		.loc 1 100 1 is_stmt 0
  71 0008 0111     		addi	sp,sp,-32
  72              		.cfi_def_cfa_offset 96
  73              		.loc 1 102 14
  74 000a 02C6     		sw	zero,12(sp)
  75              		.loc 1 102 29
  76 000c 02C8     		sw	zero,16(sp)
 103:C:/Users/stapi/OneDrive/Desktop/GD32VW553/V1_MQTT_OK/GD32VW55X_Wifi_BLE_SDK/GD32VW55x_RELEASE_V1.0.2/MSDK/cloud/alicloud/src/services/linkkit/dm\dm_cota.c ****     uint32_t percent_pre = 0, percent_now = 0;
  77              		.loc 1 103 5 is_stmt 1
  78              	.LVL3:
 104:C:/Users/stapi/OneDrive/Desktop/GD32VW553/V1_MQTT_OK/GD32VW55X_Wifi_BLE_SDK/GD32VW55x_RELEASE_V1.0.2/MSDK/cloud/alicloud/src/services/linkkit/dm\dm_cota.c ****     unsigned long long report_pre = 0, report_now = 0;
  79              		.loc 1 104 5
 105:C:/Users/stapi/OneDrive/Desktop/GD32VW553/V1_MQTT_OK/GD32VW55X_Wifi_BLE_SDK/GD32VW55x_RELEASE_V1.0.2/MSDK/cloud/alicloud/src/services/linkkit/dm\dm_cota.c ****     dm_cota_ctx_t *ctx = _dm_cota_get_ctx();
  80              		.loc 1 105 5
  14:C:/Users/stapi/OneDrive/Desktop/GD32VW553/V1_MQTT_OK/GD32VW55X_Wifi_BLE_SDK/GD32VW55x_RELEASE_V1.0.2/MSDK/cloud/alicloud/src/services/linkkit/dm\dm_cota.c **** }
  81              		.loc 1 14 5
 106:C:/Users/stapi/OneDrive/Desktop/GD32VW553/V1_MQTT_OK/GD32VW55X_Wifi_BLE_SDK/GD32VW55x_RELEASE_V1.0.2/MSDK/cloud/alicloud/src/services/linkkit/dm\dm_cota.c ****     void *ota_handle = NULL;
  82              		.loc 1 106 5
  83              		.loc 1 106 11 is_stmt 0
  84 000e 02CA     		sw	zero,20(sp)
 107:C:/Users/stapi/OneDrive/Desktop/GD32VW553/V1_MQTT_OK/GD32VW55X_Wifi_BLE_SDK/GD32VW55x_RELEASE_V1.0.2/MSDK/cloud/alicloud/src/services/linkkit/dm\dm_cota.c ****     uint32_t ota_type = IOT_OTAT_NONE;
  85              		.loc 1 107 5 is_stmt 1
  86              		.loc 1 107 14 is_stmt 0
  87 0010 02CC     		sw	zero,24(sp)
 108:C:/Users/stapi/OneDrive/Desktop/GD32VW553/V1_MQTT_OK/GD32VW55X_Wifi_BLE_SDK/GD32VW55x_RELEASE_V1.0.2/MSDK/cloud/alicloud/src/services/linkkit/dm\dm_cota.c **** 
 109:C:/Users/stapi/OneDrive/Desktop/GD32VW553/V1_MQTT_OK/GD32VW55X_Wifi_BLE_SDK/GD32VW55x_RELEASE_V1.0.2/MSDK/cloud/alicloud/src/services/linkkit/dm\dm_cota.c ****     if (output == NULL || output_len <= 0) {
  88              		.loc 1 109 5 is_stmt 1
 110:C:/Users/stapi/OneDrive/Desktop/GD32VW553/V1_MQTT_OK/GD32VW55X_Wifi_BLE_SDK/GD32VW55x_RELEASE_V1.0.2/MSDK/cloud/alicloud/src/services/linkkit/dm\dm_cota.c ****         return DM_INVALID_PARAMETER;
  89              		.loc 1 110 16 is_stmt 0
  90 0012 7954     		li	s0,-2
 109:C:/Users/stapi/OneDrive/Desktop/GD32VW553/V1_MQTT_OK/GD32VW55X_Wifi_BLE_SDK/GD32VW55x_RELEASE_V1.0.2/MSDK/cloud/alicloud/src/services/linkkit/dm\dm_cota.c ****         return DM_INVALID_PARAMETER;
  91              		.loc 1 109 8
  92 0014 11CD     		beq	a0,zero,.L4
  93 0016 AE89     		mv	s3,a1
  94              		.loc 1 110 16 discriminator 1
  95 0018 7954     		li	s0,-2
 109:C:/Users/stapi/OneDrive/Desktop/GD32VW553/V1_MQTT_OK/GD32VW55X_Wifi_BLE_SDK/GD32VW55x_RELEASE_V1.0.2/MSDK/cloud/alicloud/src/services/linkkit/dm\dm_cota.c ****         return DM_INVALID_PARAMETER;
  96              		.loc 1 109 24 discriminator 1
  97 001a 635BB000 		ble	a1,zero,.L4
  98 001e 2A89     		mv	s2,a0
 111:C:/Users/stapi/OneDrive/Desktop/GD32VW553/V1_MQTT_OK/GD32VW55X_Wifi_BLE_SDK/GD32VW55x_RELEASE_V1.0.2/MSDK/cloud/alicloud/src/services/linkkit/dm\dm_cota.c ****     }
 112:C:/Users/stapi/OneDrive/Desktop/GD32VW553/V1_MQTT_OK/GD32VW55X_Wifi_BLE_SDK/GD32VW55x_RELEASE_V1.0.2/MSDK/cloud/alicloud/src/services/linkkit/dm\dm_cota.c **** 
 113:C:/Users/stapi/OneDrive/Desktop/GD32VW553/V1_MQTT_OK/GD32VW55X_Wifi_BLE_SDK/GD32VW55x_RELEASE_V1.0.2/MSDK/cloud/alicloud/src/services/linkkit/dm\dm_cota.c ****     /* Get Ota Handle */
 114:C:/Users/stapi/OneDrive/Desktop/GD32VW553/V1_MQTT_OK/GD32VW55X_Wifi_BLE_SDK/GD32VW55x_RELEASE_V1.0.2/MSDK/cloud/alicloud/src/services/linkkit/dm\dm_cota.c ****     res = dm_ota_get_ota_handle(&ota_handle);
  99              		.loc 1 114 5 is_stmt 1
 100              		.loc 1 114 11 is_stmt 0
 101 0020 4808     		addi	a0,sp,20
 102              	.LVL4:
 103 0022 97000000 		call	dm_ota_get_ota_handle
 103      E7800000 
 104              	.LVL5:
 105 002a 2A84     		mv	s0,a0
 106              	.LVL6:
 115:C:/Users/stapi/OneDrive/Desktop/GD32VW553/V1_MQTT_OK/GD32VW55X_Wifi_BLE_SDK/GD32VW55x_RELEASE_V1.0.2/MSDK/cloud/alicloud/src/services/linkkit/dm\dm_cota.c ****     if (res != SUCCESS_RETURN) {
 107              		.loc 1 115 5 is_stmt 1
 108              		.loc 1 115 8 is_stmt 0
 109 002c 01C9     		beq	a0,zero,.L6
 110              	.LVL7:
 111              	.L25:
 116:C:/Users/stapi/OneDrive/Desktop/GD32VW553/V1_MQTT_OK/GD32VW55X_Wifi_BLE_SDK/GD32VW55x_RELEASE_V1.0.2/MSDK/cloud/alicloud/src/services/linkkit/dm\dm_cota.c ****         return FAIL_RETURN;
 117:C:/Users/stapi/OneDrive/Desktop/GD32VW553/V1_MQTT_OK/GD32VW55X_Wifi_BLE_SDK/GD32VW55x_RELEASE_V1.0.2/MSDK/cloud/alicloud/src/services/linkkit/dm\dm_cota.c ****     }
 118:C:/Users/stapi/OneDrive/Desktop/GD32VW553/V1_MQTT_OK/GD32VW55X_Wifi_BLE_SDK/GD32VW55x_RELEASE_V1.0.2/MSDK/cloud/alicloud/src/services/linkkit/dm\dm_cota.c **** 
 119:C:/Users/stapi/OneDrive/Desktop/GD32VW553/V1_MQTT_OK/GD32VW55X_Wifi_BLE_SDK/GD32VW55x_RELEASE_V1.0.2/MSDK/cloud/alicloud/src/services/linkkit/dm\dm_cota.c ****     if (ota_handle == NULL) {
 120:C:/Users/stapi/OneDrive/Desktop/GD32VW553/V1_MQTT_OK/GD32VW55X_Wifi_BLE_SDK/GD32VW55x_RELEASE_V1.0.2/MSDK/cloud/alicloud/src/services/linkkit/dm\dm_cota.c ****         return FAIL_RETURN;
 121:C:/Users/stapi/OneDrive/Desktop/GD32VW553/V1_MQTT_OK/GD32VW55X_Wifi_BLE_SDK/GD32VW55x_RELEASE_V1.0.2/MSDK/cloud/alicloud/src/services/linkkit/dm\dm_cota.c ****     }
 122:C:/Users/stapi/OneDrive/Desktop/GD32VW553/V1_MQTT_OK/GD32VW55X_Wifi_BLE_SDK/GD32VW55x_RELEASE_V1.0.2/MSDK/cloud/alicloud/src/services/linkkit/dm\dm_cota.c ****     IOT_OTA_Ioctl(ota_handle, IOT_OTAG_OTA_TYPE, &ota_type, 4);
 123:C:/Users/stapi/OneDrive/Desktop/GD32VW553/V1_MQTT_OK/GD32VW55X_Wifi_BLE_SDK/GD32VW55x_RELEASE_V1.0.2/MSDK/cloud/alicloud/src/services/linkkit/dm\dm_cota.c **** 
 124:C:/Users/stapi/OneDrive/Desktop/GD32VW553/V1_MQTT_OK/GD32VW55X_Wifi_BLE_SDK/GD32VW55x_RELEASE_V1.0.2/MSDK/cloud/alicloud/src/services/linkkit/dm\dm_cota.c ****     if (ota_type != IOT_OTAT_COTA) {
 125:C:/Users/stapi/OneDrive/Desktop/GD32VW553/V1_MQTT_OK/GD32VW55X_Wifi_BLE_SDK/GD32VW55x_RELEASE_V1.0.2/MSDK/cloud/alicloud/src/services/linkkit/dm\dm_cota.c ****         return FAIL_RETURN;
 126:C:/Users/stapi/OneDrive/Desktop/GD32VW553/V1_MQTT_OK/GD32VW55X_Wifi_BLE_SDK/GD32VW55x_RELEASE_V1.0.2/MSDK/cloud/alicloud/src/services/linkkit/dm\dm_cota.c ****     }
 127:C:/Users/stapi/OneDrive/Desktop/GD32VW553/V1_MQTT_OK/GD32VW55X_Wifi_BLE_SDK/GD32VW55x_RELEASE_V1.0.2/MSDK/cloud/alicloud/src/services/linkkit/dm\dm_cota.c **** 
 128:C:/Users/stapi/OneDrive/Desktop/GD32VW553/V1_MQTT_OK/GD32VW55X_Wifi_BLE_SDK/GD32VW55x_RELEASE_V1.0.2/MSDK/cloud/alicloud/src/services/linkkit/dm\dm_cota.c ****     /* reset the size_fetched in ota_handle to be 0 */
 129:C:/Users/stapi/OneDrive/Desktop/GD32VW553/V1_MQTT_OK/GD32VW55X_Wifi_BLE_SDK/GD32VW55x_RELEASE_V1.0.2/MSDK/cloud/alicloud/src/services/linkkit/dm\dm_cota.c ****     IOT_OTA_Ioctl(ota_handle, IOT_OTAG_RESET_FETCHED_SIZE, ota_handle, 4);
 130:C:/Users/stapi/OneDrive/Desktop/GD32VW553/V1_MQTT_OK/GD32VW55X_Wifi_BLE_SDK/GD32VW55x_RELEASE_V1.0.2/MSDK/cloud/alicloud/src/services/linkkit/dm\dm_cota.c ****     /* Prepare Write Data To Storage */
 131:C:/Users/stapi/OneDrive/Desktop/GD32VW553/V1_MQTT_OK/GD32VW55X_Wifi_BLE_SDK/GD32VW55x_RELEASE_V1.0.2/MSDK/cloud/alicloud/src/services/linkkit/dm\dm_cota.c ****     HAL_Firmware_Persistence_Start();
 132:C:/Users/stapi/OneDrive/Desktop/GD32VW553/V1_MQTT_OK/GD32VW55X_Wifi_BLE_SDK/GD32VW55x_RELEASE_V1.0.2/MSDK/cloud/alicloud/src/services/linkkit/dm\dm_cota.c **** 
 133:C:/Users/stapi/OneDrive/Desktop/GD32VW553/V1_MQTT_OK/GD32VW55X_Wifi_BLE_SDK/GD32VW55x_RELEASE_V1.0.2/MSDK/cloud/alicloud/src/services/linkkit/dm\dm_cota.c ****     while (1) {
 134:C:/Users/stapi/OneDrive/Desktop/GD32VW553/V1_MQTT_OK/GD32VW55X_Wifi_BLE_SDK/GD32VW55x_RELEASE_V1.0.2/MSDK/cloud/alicloud/src/services/linkkit/dm\dm_cota.c ****         file_download = IOT_OTA_FetchYield(ota_handle, output, output_len, 1);
 135:C:/Users/stapi/OneDrive/Desktop/GD32VW553/V1_MQTT_OK/GD32VW55X_Wifi_BLE_SDK/GD32VW55x_RELEASE_V1.0.2/MSDK/cloud/alicloud/src/services/linkkit/dm\dm_cota.c ****         if (file_download < 0) {
 136:C:/Users/stapi/OneDrive/Desktop/GD32VW553/V1_MQTT_OK/GD32VW55X_Wifi_BLE_SDK/GD32VW55x_RELEASE_V1.0.2/MSDK/cloud/alicloud/src/services/linkkit/dm\dm_cota.c ****             IOT_OTA_ReportProgress(ota_handle, IOT_OTAP_FETCH_FAILED, NULL);
 137:C:/Users/stapi/OneDrive/Desktop/GD32VW553/V1_MQTT_OK/GD32VW55X_Wifi_BLE_SDK/GD32VW55x_RELEASE_V1.0.2/MSDK/cloud/alicloud/src/services/linkkit/dm\dm_cota.c ****             HAL_Firmware_Persistence_Stop();
 138:C:/Users/stapi/OneDrive/Desktop/GD32VW553/V1_MQTT_OK/GD32VW55X_Wifi_BLE_SDK/GD32VW55x_RELEASE_V1.0.2/MSDK/cloud/alicloud/src/services/linkkit/dm\dm_cota.c ****             ctx->is_report_new_config = 0;
 139:C:/Users/stapi/OneDrive/Desktop/GD32VW553/V1_MQTT_OK/GD32VW55X_Wifi_BLE_SDK/GD32VW55x_RELEASE_V1.0.2/MSDK/cloud/alicloud/src/services/linkkit/dm\dm_cota.c ****             return FAIL_RETURN;
 112              		.loc 1 139 13 is_stmt 1
 113              		.loc 1 139 20 is_stmt 0
 114 002e 7D54     		li	s0,-1
 115              	.LVL8:
 116              	.L4:
 140:C:/Users/stapi/OneDrive/Desktop/GD32VW553/V1_MQTT_OK/GD32VW55X_Wifi_BLE_SDK/GD32VW55x_RELEASE_V1.0.2/MSDK/cloud/alicloud/src/services/linkkit/dm\dm_cota.c ****         }
 141:C:/Users/stapi/OneDrive/Desktop/GD32VW553/V1_MQTT_OK/GD32VW55X_Wifi_BLE_SDK/GD32VW55x_RELEASE_V1.0.2/MSDK/cloud/alicloud/src/services/linkkit/dm\dm_cota.c **** 
 142:C:/Users/stapi/OneDrive/Desktop/GD32VW553/V1_MQTT_OK/GD32VW55X_Wifi_BLE_SDK/GD32VW55x_RELEASE_V1.0.2/MSDK/cloud/alicloud/src/services/linkkit/dm\dm_cota.c ****         /* Write Config File Into Stroage */
 143:C:/Users/stapi/OneDrive/Desktop/GD32VW553/V1_MQTT_OK/GD32VW55X_Wifi_BLE_SDK/GD32VW55x_RELEASE_V1.0.2/MSDK/cloud/alicloud/src/services/linkkit/dm\dm_cota.c ****         HAL_Firmware_Persistence_Write(output, file_download);
 144:C:/Users/stapi/OneDrive/Desktop/GD32VW553/V1_MQTT_OK/GD32VW55X_Wifi_BLE_SDK/GD32VW55x_RELEASE_V1.0.2/MSDK/cloud/alicloud/src/services/linkkit/dm\dm_cota.c **** 
 145:C:/Users/stapi/OneDrive/Desktop/GD32VW553/V1_MQTT_OK/GD32VW55X_Wifi_BLE_SDK/GD32VW55x_RELEASE_V1.0.2/MSDK/cloud/alicloud/src/services/linkkit/dm\dm_cota.c ****         /* Get OTA information */
 146:C:/Users/stapi/OneDrive/Desktop/GD32VW553/V1_MQTT_OK/GD32VW55X_Wifi_BLE_SDK/GD32VW55x_RELEASE_V1.0.2/MSDK/cloud/alicloud/src/services/linkkit/dm\dm_cota.c ****         IOT_OTA_Ioctl(ota_handle, IOT_OTAG_FETCHED_SIZE, &file_downloaded, 4);
 147:C:/Users/stapi/OneDrive/Desktop/GD32VW553/V1_MQTT_OK/GD32VW55X_Wifi_BLE_SDK/GD32VW55x_RELEASE_V1.0.2/MSDK/cloud/alicloud/src/services/linkkit/dm\dm_cota.c ****         IOT_OTA_Ioctl(ota_handle, IOT_OTAG_FILE_SIZE, &file_size, 4);
 148:C:/Users/stapi/OneDrive/Desktop/GD32VW553/V1_MQTT_OK/GD32VW55X_Wifi_BLE_SDK/GD32VW55x_RELEASE_V1.0.2/MSDK/cloud/alicloud/src/services/linkkit/dm\dm_cota.c **** 
 149:C:/Users/stapi/OneDrive/Desktop/GD32VW553/V1_MQTT_OK/GD32VW55X_Wifi_BLE_SDK/GD32VW55x_RELEASE_V1.0.2/MSDK/cloud/alicloud/src/services/linkkit/dm\dm_cota.c ****         /* Calculate Download Percent And Update Report Timestamp*/
 150:C:/Users/stapi/OneDrive/Desktop/GD32VW553/V1_MQTT_OK/GD32VW55X_Wifi_BLE_SDK/GD32VW55x_RELEASE_V1.0.2/MSDK/cloud/alicloud/src/services/linkkit/dm\dm_cota.c ****         percent_now = (file_downloaded * 100) / file_size;
 151:C:/Users/stapi/OneDrive/Desktop/GD32VW553/V1_MQTT_OK/GD32VW55X_Wifi_BLE_SDK/GD32VW55x_RELEASE_V1.0.2/MSDK/cloud/alicloud/src/services/linkkit/dm\dm_cota.c ****         report_now = HAL_UptimeMs();
 152:C:/Users/stapi/OneDrive/Desktop/GD32VW553/V1_MQTT_OK/GD32VW55X_Wifi_BLE_SDK/GD32VW55x_RELEASE_V1.0.2/MSDK/cloud/alicloud/src/services/linkkit/dm\dm_cota.c **** 
 153:C:/Users/stapi/OneDrive/Desktop/GD32VW553/V1_MQTT_OK/GD32VW55X_Wifi_BLE_SDK/GD32VW55x_RELEASE_V1.0.2/MSDK/cloud/alicloud/src/services/linkkit/dm\dm_cota.c ****         /* Report Download Process To Cloud */
 154:C:/Users/stapi/OneDrive/Desktop/GD32VW553/V1_MQTT_OK/GD32VW55X_Wifi_BLE_SDK/GD32VW55x_RELEASE_V1.0.2/MSDK/cloud/alicloud/src/services/linkkit/dm\dm_cota.c ****         if (report_now < report_pre) {
 155:C:/Users/stapi/OneDrive/Desktop/GD32VW553/V1_MQTT_OK/GD32VW55X_Wifi_BLE_SDK/GD32VW55x_RELEASE_V1.0.2/MSDK/cloud/alicloud/src/services/linkkit/dm\dm_cota.c ****             report_pre = report_now;
 156:C:/Users/stapi/OneDrive/Desktop/GD32VW553/V1_MQTT_OK/GD32VW55X_Wifi_BLE_SDK/GD32VW55x_RELEASE_V1.0.2/MSDK/cloud/alicloud/src/services/linkkit/dm\dm_cota.c ****         }
 157:C:/Users/stapi/OneDrive/Desktop/GD32VW553/V1_MQTT_OK/GD32VW55X_Wifi_BLE_SDK/GD32VW55x_RELEASE_V1.0.2/MSDK/cloud/alicloud/src/services/linkkit/dm\dm_cota.c ****         if ((((percent_now - percent_pre) > 5) &&
 158:C:/Users/stapi/OneDrive/Desktop/GD32VW553/V1_MQTT_OK/GD32VW55X_Wifi_BLE_SDK/GD32VW55x_RELEASE_V1.0.2/MSDK/cloud/alicloud/src/services/linkkit/dm\dm_cota.c ****              ((report_now - report_pre) > 50)) || (percent_now >= IOT_OTAP_FETCH_PERCENTAGE_MAX)) {
 159:C:/Users/stapi/OneDrive/Desktop/GD32VW553/V1_MQTT_OK/GD32VW55X_Wifi_BLE_SDK/GD32VW55x_RELEASE_V1.0.2/MSDK/cloud/alicloud/src/services/linkkit/dm\dm_cota.c ****             IOT_OTA_ReportProgress(ota_handle, percent_now, NULL);
 160:C:/Users/stapi/OneDrive/Desktop/GD32VW553/V1_MQTT_OK/GD32VW55X_Wifi_BLE_SDK/GD32VW55x_RELEASE_V1.0.2/MSDK/cloud/alicloud/src/services/linkkit/dm\dm_cota.c ****             percent_pre = percent_now;
 161:C:/Users/stapi/OneDrive/Desktop/GD32VW553/V1_MQTT_OK/GD32VW55X_Wifi_BLE_SDK/GD32VW55x_RELEASE_V1.0.2/MSDK/cloud/alicloud/src/services/linkkit/dm\dm_cota.c ****             report_pre = report_now;
 162:C:/Users/stapi/OneDrive/Desktop/GD32VW553/V1_MQTT_OK/GD32VW55X_Wifi_BLE_SDK/GD32VW55x_RELEASE_V1.0.2/MSDK/cloud/alicloud/src/services/linkkit/dm\dm_cota.c ****         }
 163:C:/Users/stapi/OneDrive/Desktop/GD32VW553/V1_MQTT_OK/GD32VW55X_Wifi_BLE_SDK/GD32VW55x_RELEASE_V1.0.2/MSDK/cloud/alicloud/src/services/linkkit/dm\dm_cota.c **** 
 164:C:/Users/stapi/OneDrive/Desktop/GD32VW553/V1_MQTT_OK/GD32VW55X_Wifi_BLE_SDK/GD32VW55x_RELEASE_V1.0.2/MSDK/cloud/alicloud/src/services/linkkit/dm\dm_cota.c ****         /* Check If OTA Finished */
 165:C:/Users/stapi/OneDrive/Desktop/GD32VW553/V1_MQTT_OK/GD32VW55X_Wifi_BLE_SDK/GD32VW55x_RELEASE_V1.0.2/MSDK/cloud/alicloud/src/services/linkkit/dm\dm_cota.c ****         if (IOT_OTA_IsFetchFinish(ota_handle)) {
 166:C:/Users/stapi/OneDrive/Desktop/GD32VW553/V1_MQTT_OK/GD32VW55X_Wifi_BLE_SDK/GD32VW55x_RELEASE_V1.0.2/MSDK/cloud/alicloud/src/services/linkkit/dm\dm_cota.c ****             uint32_t file_isvalid = 0;
 167:C:/Users/stapi/OneDrive/Desktop/GD32VW553/V1_MQTT_OK/GD32VW55X_Wifi_BLE_SDK/GD32VW55x_RELEASE_V1.0.2/MSDK/cloud/alicloud/src/services/linkkit/dm\dm_cota.c ****             IOT_OTA_Ioctl(ota_handle, IOT_OTAG_CHECK_CONFIG, &file_isvalid, 4);
 168:C:/Users/stapi/OneDrive/Desktop/GD32VW553/V1_MQTT_OK/GD32VW55X_Wifi_BLE_SDK/GD32VW55x_RELEASE_V1.0.2/MSDK/cloud/alicloud/src/services/linkkit/dm\dm_cota.c ****             if (file_isvalid == 0) {
 169:C:/Users/stapi/OneDrive/Desktop/GD32VW553/V1_MQTT_OK/GD32VW55X_Wifi_BLE_SDK/GD32VW55x_RELEASE_V1.0.2/MSDK/cloud/alicloud/src/services/linkkit/dm\dm_cota.c ****                 HAL_Firmware_Persistence_Stop();
 170:C:/Users/stapi/OneDrive/Desktop/GD32VW553/V1_MQTT_OK/GD32VW55X_Wifi_BLE_SDK/GD32VW55x_RELEASE_V1.0.2/MSDK/cloud/alicloud/src/services/linkkit/dm\dm_cota.c ****                 ctx->is_report_new_config = 0;
 171:C:/Users/stapi/OneDrive/Desktop/GD32VW553/V1_MQTT_OK/GD32VW55X_Wifi_BLE_SDK/GD32VW55x_RELEASE_V1.0.2/MSDK/cloud/alicloud/src/services/linkkit/dm\dm_cota.c ****                 return FAIL_RETURN;
 172:C:/Users/stapi/OneDrive/Desktop/GD32VW553/V1_MQTT_OK/GD32VW55X_Wifi_BLE_SDK/GD32VW55x_RELEASE_V1.0.2/MSDK/cloud/alicloud/src/services/linkkit/dm\dm_cota.c ****             } else {
 173:C:/Users/stapi/OneDrive/Desktop/GD32VW553/V1_MQTT_OK/GD32VW55X_Wifi_BLE_SDK/GD32VW55x_RELEASE_V1.0.2/MSDK/cloud/alicloud/src/services/linkkit/dm\dm_cota.c ****                 break;
 174:C:/Users/stapi/OneDrive/Desktop/GD32VW553/V1_MQTT_OK/GD32VW55X_Wifi_BLE_SDK/GD32VW55x_RELEASE_V1.0.2/MSDK/cloud/alicloud/src/services/linkkit/dm\dm_cota.c ****             }
 175:C:/Users/stapi/OneDrive/Desktop/GD32VW553/V1_MQTT_OK/GD32VW55X_Wifi_BLE_SDK/GD32VW55x_RELEASE_V1.0.2/MSDK/cloud/alicloud/src/services/linkkit/dm\dm_cota.c ****         }
 176:C:/Users/stapi/OneDrive/Desktop/GD32VW553/V1_MQTT_OK/GD32VW55X_Wifi_BLE_SDK/GD32VW55x_RELEASE_V1.0.2/MSDK/cloud/alicloud/src/services/linkkit/dm\dm_cota.c ****     }
 177:C:/Users/stapi/OneDrive/Desktop/GD32VW553/V1_MQTT_OK/GD32VW55X_Wifi_BLE_SDK/GD32VW55x_RELEASE_V1.0.2/MSDK/cloud/alicloud/src/services/linkkit/dm\dm_cota.c **** 
 178:C:/Users/stapi/OneDrive/Desktop/GD32VW553/V1_MQTT_OK/GD32VW55X_Wifi_BLE_SDK/GD32VW55x_RELEASE_V1.0.2/MSDK/cloud/alicloud/src/services/linkkit/dm\dm_cota.c ****     HAL_Firmware_Persistence_Stop();
 179:C:/Users/stapi/OneDrive/Desktop/GD32VW553/V1_MQTT_OK/GD32VW55X_Wifi_BLE_SDK/GD32VW55x_RELEASE_V1.0.2/MSDK/cloud/alicloud/src/services/linkkit/dm\dm_cota.c ****     ctx->is_report_new_config = 0;
 180:C:/Users/stapi/OneDrive/Desktop/GD32VW553/V1_MQTT_OK/GD32VW55X_Wifi_BLE_SDK/GD32VW55x_RELEASE_V1.0.2/MSDK/cloud/alicloud/src/services/linkkit/dm\dm_cota.c **** 
 181:C:/Users/stapi/OneDrive/Desktop/GD32VW553/V1_MQTT_OK/GD32VW55X_Wifi_BLE_SDK/GD32VW55x_RELEASE_V1.0.2/MSDK/cloud/alicloud/src/services/linkkit/dm\dm_cota.c ****     return SUCCESS_RETURN;
 182:C:/Users/stapi/OneDrive/Desktop/GD32VW553/V1_MQTT_OK/GD32VW55X_Wifi_BLE_SDK/GD32VW55x_RELEASE_V1.0.2/MSDK/cloud/alicloud/src/services/linkkit/dm\dm_cota.c **** }
 117              		.loc 1 182 1
 118 0030 2285     		mv	a0,s0
 119 0032 0561     		addi	sp,sp,32
 120              		.cfi_remember_state
 121              		.cfi_def_cfa_offset 0
 122 0034 17030000 		tail	__riscv_restore_12
 122      67000300 
 123              		.cfi_restore 27
 124              		.cfi_restore 26
 125              		.cfi_restore 25
 126              		.cfi_restore 24
 127              		.cfi_restore 23
 128              		.cfi_restore 22
 129              		.cfi_restore 21
 130              		.cfi_restore 20
 131              		.cfi_restore 19
 132              		.cfi_restore 18
 133              		.cfi_restore 9
 134              		.cfi_restore 8
 135              		.cfi_restore 1
 136              		.cfi_def_cfa_offset -64
 137              	.LVL9:
 138              	.L6:
 139              		.cfi_restore_state
 119:C:/Users/stapi/OneDrive/Desktop/GD32VW553/V1_MQTT_OK/GD32VW55X_Wifi_BLE_SDK/GD32VW55x_RELEASE_V1.0.2/MSDK/cloud/alicloud/src/services/linkkit/dm\dm_cota.c ****         return FAIL_RETURN;
 140              		.loc 1 119 5 is_stmt 1
 119:C:/Users/stapi/OneDrive/Desktop/GD32VW553/V1_MQTT_OK/GD32VW55X_Wifi_BLE_SDK/GD32VW55x_RELEASE_V1.0.2/MSDK/cloud/alicloud/src/services/linkkit/dm\dm_cota.c ****         return FAIL_RETURN;
 141              		.loc 1 119 20 is_stmt 0
 142 003c 5245     		lw	a0,20(sp)
 119:C:/Users/stapi/OneDrive/Desktop/GD32VW553/V1_MQTT_OK/GD32VW55X_Wifi_BLE_SDK/GD32VW55x_RELEASE_V1.0.2/MSDK/cloud/alicloud/src/services/linkkit/dm\dm_cota.c ****         return FAIL_RETURN;
 143              		.loc 1 119 8
 144 003e 65D9     		beq	a0,zero,.L25
 122:C:/Users/stapi/OneDrive/Desktop/GD32VW553/V1_MQTT_OK/GD32VW55X_Wifi_BLE_SDK/GD32VW55x_RELEASE_V1.0.2/MSDK/cloud/alicloud/src/services/linkkit/dm\dm_cota.c **** 
 145              		.loc 1 122 5 is_stmt 1
 146 0040 9146     		li	a3,4
 147 0042 3008     		addi	a2,sp,24
 148 0044 9945     		li	a1,6
 149 0046 97000000 		call	IOT_OTA_Ioctl
 149      E7800000 
 150              	.LVL10:
 124:C:/Users/stapi/OneDrive/Desktop/GD32VW553/V1_MQTT_OK/GD32VW55X_Wifi_BLE_SDK/GD32VW55x_RELEASE_V1.0.2/MSDK/cloud/alicloud/src/services/linkkit/dm\dm_cota.c ****         return FAIL_RETURN;
 151              		.loc 1 124 5
 124:C:/Users/stapi/OneDrive/Desktop/GD32VW553/V1_MQTT_OK/GD32VW55X_Wifi_BLE_SDK/GD32VW55x_RELEASE_V1.0.2/MSDK/cloud/alicloud/src/services/linkkit/dm\dm_cota.c ****         return FAIL_RETURN;
 152              		.loc 1 124 8 is_stmt 0
 153 004e 6247     		lw	a4,24(sp)
 154 0050 8547     		li	a5,1
 155 0052 E31EF7FC 		bne	a4,a5,.L25
 129:C:/Users/stapi/OneDrive/Desktop/GD32VW553/V1_MQTT_OK/GD32VW55X_Wifi_BLE_SDK/GD32VW55x_RELEASE_V1.0.2/MSDK/cloud/alicloud/src/services/linkkit/dm\dm_cota.c ****     /* Prepare Write Data To Storage */
 156              		.loc 1 129 5 is_stmt 1
 157 0056 5246     		lw	a2,20(sp)
 158 0058 9146     		li	a3,4
 159 005a B545     		li	a1,13
 160 005c 3285     		mv	a0,a2
 161 005e 97000000 		call	IOT_OTA_Ioctl
 161      E7800000 
 162              	.LVL11:
 131:C:/Users/stapi/OneDrive/Desktop/GD32VW553/V1_MQTT_OK/GD32VW55X_Wifi_BLE_SDK/GD32VW55x_RELEASE_V1.0.2/MSDK/cloud/alicloud/src/services/linkkit/dm\dm_cota.c **** 
 163              		.loc 1 131 5
 164 0066 97000000 		call	HAL_Firmware_Persistence_Start
 164      E7800000 
 165              	.LVL12:
 104:C:/Users/stapi/OneDrive/Desktop/GD32VW553/V1_MQTT_OK/GD32VW55X_Wifi_BLE_SDK/GD32VW55x_RELEASE_V1.0.2/MSDK/cloud/alicloud/src/services/linkkit/dm\dm_cota.c ****     dm_cota_ctx_t *ctx = _dm_cota_get_ctx();
 166              		.loc 1 104 24 is_stmt 0
 167 006e 014A     		li	s4,0
 168 0070 014B     		li	s6,0
 103:C:/Users/stapi/OneDrive/Desktop/GD32VW553/V1_MQTT_OK/GD32VW55X_Wifi_BLE_SDK/GD32VW55x_RELEASE_V1.0.2/MSDK/cloud/alicloud/src/services/linkkit/dm\dm_cota.c ****     unsigned long long report_pre = 0, report_now = 0;
 169              		.loc 1 103 14
 170 0072 814A     		li	s5,0
 157:C:/Users/stapi/OneDrive/Desktop/GD32VW553/V1_MQTT_OK/GD32VW55X_Wifi_BLE_SDK/GD32VW55x_RELEASE_V1.0.2/MSDK/cloud/alicloud/src/services/linkkit/dm\dm_cota.c ****              ((report_now - report_pre) > 50)) || (percent_now >= IOT_OTAP_FETCH_PERCENTAGE_MAX)) {
 171              		.loc 1 157 12
 172 0074 954B     		li	s7,5
 158:C:/Users/stapi/OneDrive/Desktop/GD32VW553/V1_MQTT_OK/GD32VW55X_Wifi_BLE_SDK/GD32VW55x_RELEASE_V1.0.2/MSDK/cloud/alicloud/src/services/linkkit/dm\dm_cota.c ****             IOT_OTA_ReportProgress(ota_handle, percent_now, NULL);
 173              		.loc 1 158 48
 174 0076 130C3006 		li	s8,99
 157:C:/Users/stapi/OneDrive/Desktop/GD32VW553/V1_MQTT_OK/GD32VW55X_Wifi_BLE_SDK/GD32VW55x_RELEASE_V1.0.2/MSDK/cloud/alicloud/src/services/linkkit/dm\dm_cota.c ****              ((report_now - report_pre) > 50)) || (percent_now >= IOT_OTAP_FETCH_PERCENTAGE_MAX)) {
 175              		.loc 1 157 48
 176 007a 930C2003 		li	s9,50
 177              	.LVL13:
 178              	.L15:
 133:C:/Users/stapi/OneDrive/Desktop/GD32VW553/V1_MQTT_OK/GD32VW55X_Wifi_BLE_SDK/GD32VW55x_RELEASE_V1.0.2/MSDK/cloud/alicloud/src/services/linkkit/dm\dm_cota.c ****         file_download = IOT_OTA_FetchYield(ota_handle, output, output_len, 1);
 179              		.loc 1 133 5 is_stmt 1
 134:C:/Users/stapi/OneDrive/Desktop/GD32VW553/V1_MQTT_OK/GD32VW55X_Wifi_BLE_SDK/GD32VW55x_RELEASE_V1.0.2/MSDK/cloud/alicloud/src/services/linkkit/dm\dm_cota.c ****         if (file_download < 0) {
 180              		.loc 1 134 9
 134:C:/Users/stapi/OneDrive/Desktop/GD32VW553/V1_MQTT_OK/GD32VW55X_Wifi_BLE_SDK/GD32VW55x_RELEASE_V1.0.2/MSDK/cloud/alicloud/src/services/linkkit/dm\dm_cota.c ****         if (file_download < 0) {
 181              		.loc 1 134 25 is_stmt 0
 182 007e 5245     		lw	a0,20(sp)
 183 0080 CA85     		mv	a1,s2
 184 0082 8546     		li	a3,1
 185 0084 4E86     		mv	a2,s3
 186 0086 97000000 		call	IOT_OTA_FetchYield
 186      E7800000 
 187              	.LVL14:
 188 008e AA85     		mv	a1,a0
 189              	.LVL15:
 135:C:/Users/stapi/OneDrive/Desktop/GD32VW553/V1_MQTT_OK/GD32VW55X_Wifi_BLE_SDK/GD32VW55x_RELEASE_V1.0.2/MSDK/cloud/alicloud/src/services/linkkit/dm\dm_cota.c ****             IOT_OTA_ReportProgress(ota_handle, IOT_OTAP_FETCH_FAILED, NULL);
 190              		.loc 1 135 9 is_stmt 1
 135:C:/Users/stapi/OneDrive/Desktop/GD32VW553/V1_MQTT_OK/GD32VW55X_Wifi_BLE_SDK/GD32VW55x_RELEASE_V1.0.2/MSDK/cloud/alicloud/src/services/linkkit/dm\dm_cota.c ****             IOT_OTA_ReportProgress(ota_handle, IOT_OTAP_FETCH_FAILED, NULL);
 191              		.loc 1 135 12 is_stmt 0
 192 0090 63520502 		bge	a0,zero,.L8
 136:C:/Users/stapi/OneDrive/Desktop/GD32VW553/V1_MQTT_OK/GD32VW55X_Wifi_BLE_SDK/GD32VW55x_RELEASE_V1.0.2/MSDK/cloud/alicloud/src/services/linkkit/dm\dm_cota.c ****             HAL_Firmware_Persistence_Stop();
 193              		.loc 1 136 13 is_stmt 1
 194 0094 5245     		lw	a0,20(sp)
 195              	.LVL16:
 196 0096 0146     		li	a2,0
 197 0098 F955     		li	a1,-2
 198              	.LVL17:
 199 009a 97000000 		call	IOT_OTA_ReportProgress
 199      E7800000 
 200              	.LVL18:
 137:C:/Users/stapi/OneDrive/Desktop/GD32VW553/V1_MQTT_OK/GD32VW55X_Wifi_BLE_SDK/GD32VW55x_RELEASE_V1.0.2/MSDK/cloud/alicloud/src/services/linkkit/dm\dm_cota.c ****             ctx->is_report_new_config = 0;
 201              		.loc 1 137 13
 202 00a2 97000000 		call	HAL_Firmware_Persistence_Stop
 202      E7800000 
 203              	.LVL19:
 138:C:/Users/stapi/OneDrive/Desktop/GD32VW553/V1_MQTT_OK/GD32VW55X_Wifi_BLE_SDK/GD32VW55x_RELEASE_V1.0.2/MSDK/cloud/alicloud/src/services/linkkit/dm\dm_cota.c ****             return FAIL_RETURN;
 204              		.loc 1 138 13
 138:C:/Users/stapi/OneDrive/Desktop/GD32VW553/V1_MQTT_OK/GD32VW55X_Wifi_BLE_SDK/GD32VW55x_RELEASE_V1.0.2/MSDK/cloud/alicloud/src/services/linkkit/dm\dm_cota.c ****             return FAIL_RETURN;
 205              		.loc 1 138 39 is_stmt 0
 206 00aa B7070000 		lui	a5,%hi(.LANCHOR0)
 207 00ae 23A00700 		sw	zero,%lo(.LANCHOR0)(a5)
 208 00b2 B5BF     		j	.L25
 209              	.LVL20:
 210              	.L8:
 143:C:/Users/stapi/OneDrive/Desktop/GD32VW553/V1_MQTT_OK/GD32VW55X_Wifi_BLE_SDK/GD32VW55x_RELEASE_V1.0.2/MSDK/cloud/alicloud/src/services/linkkit/dm\dm_cota.c **** 
 211              		.loc 1 143 9 is_stmt 1
 212 00b4 4A85     		mv	a0,s2
 213              	.LVL21:
 214 00b6 97000000 		call	HAL_Firmware_Persistence_Write
 214      E7800000 
 215              	.LVL22:
 146:C:/Users/stapi/OneDrive/Desktop/GD32VW553/V1_MQTT_OK/GD32VW55X_Wifi_BLE_SDK/GD32VW55x_RELEASE_V1.0.2/MSDK/cloud/alicloud/src/services/linkkit/dm\dm_cota.c ****         IOT_OTA_Ioctl(ota_handle, IOT_OTAG_FILE_SIZE, &file_size, 4);
 216              		.loc 1 146 9
 217 00be 5245     		lw	a0,20(sp)
 218 00c0 9146     		li	a3,4
 219 00c2 1008     		addi	a2,sp,16
 220 00c4 9D45     		li	a1,7
 221 00c6 97000000 		call	IOT_OTA_Ioctl
 221      E7800000 
 222              	.LVL23:
 147:C:/Users/stapi/OneDrive/Desktop/GD32VW553/V1_MQTT_OK/GD32VW55X_Wifi_BLE_SDK/GD32VW55x_RELEASE_V1.0.2/MSDK/cloud/alicloud/src/services/linkkit/dm\dm_cota.c **** 
 223              		.loc 1 147 9
 224 00ce 5245     		lw	a0,20(sp)
 225 00d0 9146     		li	a3,4
 226 00d2 7000     		addi	a2,sp,12
 227 00d4 A145     		li	a1,8
 228 00d6 97000000 		call	IOT_OTA_Ioctl
 228      E7800000 
 229              	.LVL24:
 150:C:/Users/stapi/OneDrive/Desktop/GD32VW553/V1_MQTT_OK/GD32VW55X_Wifi_BLE_SDK/GD32VW55x_RELEASE_V1.0.2/MSDK/cloud/alicloud/src/services/linkkit/dm\dm_cota.c ****         report_now = HAL_UptimeMs();
 230              		.loc 1 150 9
 150:C:/Users/stapi/OneDrive/Desktop/GD32VW553/V1_MQTT_OK/GD32VW55X_Wifi_BLE_SDK/GD32VW55x_RELEASE_V1.0.2/MSDK/cloud/alicloud/src/services/linkkit/dm\dm_cota.c ****         report_now = HAL_UptimeMs();
 231              		.loc 1 150 40 is_stmt 0
 232 00de C244     		lw	s1,16(sp)
 233 00e0 93074006 		li	a5,100
 150:C:/Users/stapi/OneDrive/Desktop/GD32VW553/V1_MQTT_OK/GD32VW55X_Wifi_BLE_SDK/GD32VW55x_RELEASE_V1.0.2/MSDK/cloud/alicloud/src/services/linkkit/dm\dm_cota.c ****         report_now = HAL_UptimeMs();
 234              		.loc 1 150 21
 235 00e4 3247     		lw	a4,12(sp)
 150:C:/Users/stapi/OneDrive/Desktop/GD32VW553/V1_MQTT_OK/GD32VW55X_Wifi_BLE_SDK/GD32VW55x_RELEASE_V1.0.2/MSDK/cloud/alicloud/src/services/linkkit/dm\dm_cota.c ****         report_now = HAL_UptimeMs();
 236              		.loc 1 150 40
 237 00e6 B3849702 		mul	s1,a5,s1
 150:C:/Users/stapi/OneDrive/Desktop/GD32VW553/V1_MQTT_OK/GD32VW55X_Wifi_BLE_SDK/GD32VW55x_RELEASE_V1.0.2/MSDK/cloud/alicloud/src/services/linkkit/dm\dm_cota.c ****         report_now = HAL_UptimeMs();
 238              		.loc 1 150 21
 239 00ea B3D4E402 		divu	s1,s1,a4
 240              	.LVL25:
 151:C:/Users/stapi/OneDrive/Desktop/GD32VW553/V1_MQTT_OK/GD32VW55X_Wifi_BLE_SDK/GD32VW55x_RELEASE_V1.0.2/MSDK/cloud/alicloud/src/services/linkkit/dm\dm_cota.c **** 
 241              		.loc 1 151 9 is_stmt 1
 151:C:/Users/stapi/OneDrive/Desktop/GD32VW553/V1_MQTT_OK/GD32VW55X_Wifi_BLE_SDK/GD32VW55x_RELEASE_V1.0.2/MSDK/cloud/alicloud/src/services/linkkit/dm\dm_cota.c **** 
 242              		.loc 1 151 22 is_stmt 0
 243 00ee 97000000 		call	HAL_UptimeMs
 243      E7800000 
 244              	.LVL26:
 245 00f6 AA8D     		mv	s11,a0
 246 00f8 2E8D     		mv	s10,a1
 247              	.LVL27:
 154:C:/Users/stapi/OneDrive/Desktop/GD32VW553/V1_MQTT_OK/GD32VW55X_Wifi_BLE_SDK/GD32VW55x_RELEASE_V1.0.2/MSDK/cloud/alicloud/src/services/linkkit/dm\dm_cota.c ****             report_pre = report_now;
 248              		.loc 1 154 9 is_stmt 1
 249 00fa 63E66501 		bgtu	s6,a1,.L10
 250 00fe 6316BB00 		bne	s6,a1,.L9
 251 0102 63744501 		bleu	s4,a0,.L9
 252              	.L10:
 253 0106 6E8A     		mv	s4,s11
 254              	.LVL28:
 255 0108 6A8B     		mv	s6,s10
 256              	.L9:
 257              	.LVL29:
 157:C:/Users/stapi/OneDrive/Desktop/GD32VW553/V1_MQTT_OK/GD32VW55X_Wifi_BLE_SDK/GD32VW55x_RELEASE_V1.0.2/MSDK/cloud/alicloud/src/services/linkkit/dm\dm_cota.c ****              ((report_now - report_pre) > 50)) || (percent_now >= IOT_OTAP_FETCH_PERCENTAGE_MAX)) {
 258              		.loc 1 157 9
 157:C:/Users/stapi/OneDrive/Desktop/GD32VW553/V1_MQTT_OK/GD32VW55X_Wifi_BLE_SDK/GD32VW55x_RELEASE_V1.0.2/MSDK/cloud/alicloud/src/services/linkkit/dm\dm_cota.c ****              ((report_now - report_pre) > 50)) || (percent_now >= IOT_OTAP_FETCH_PERCENTAGE_MAX)) {
 259              		.loc 1 157 28 is_stmt 0
 260 010a 33875441 		sub	a4,s1,s5
 157:C:/Users/stapi/OneDrive/Desktop/GD32VW553/V1_MQTT_OK/GD32VW55X_Wifi_BLE_SDK/GD32VW55x_RELEASE_V1.0.2/MSDK/cloud/alicloud/src/services/linkkit/dm\dm_cota.c ****              ((report_now - report_pre) > 50)) || (percent_now >= IOT_OTAP_FETCH_PERCENTAGE_MAX)) {
 261              		.loc 1 157 12
 262 010e 63FCEB00 		bleu	a4,s7,.L11
 158:C:/Users/stapi/OneDrive/Desktop/GD32VW553/V1_MQTT_OK/GD32VW55X_Wifi_BLE_SDK/GD32VW55x_RELEASE_V1.0.2/MSDK/cloud/alicloud/src/services/linkkit/dm\dm_cota.c ****             IOT_OTA_ReportProgress(ota_handle, percent_now, NULL);
 263              		.loc 1 158 27 discriminator 1
 264 0112 33874D41 		sub	a4,s11,s4
 265 0116 B3B6ED00 		sgtu	a3,a4,s11
 266 011a 33066D41 		sub	a2,s10,s6
 157:C:/Users/stapi/OneDrive/Desktop/GD32VW553/V1_MQTT_OK/GD32VW55X_Wifi_BLE_SDK/GD32VW55x_RELEASE_V1.0.2/MSDK/cloud/alicloud/src/services/linkkit/dm\dm_cota.c ****              ((report_now - report_pre) > 50)) || (percent_now >= IOT_OTAP_FETCH_PERCENTAGE_MAX)) {
 267              		.loc 1 157 48 discriminator 1
 268 011e 6316D600 		bne	a2,a3,.L12
 269 0122 63E4EC00 		bgtu	a4,s9,.L12
 270              	.L11:
 158:C:/Users/stapi/OneDrive/Desktop/GD32VW553/V1_MQTT_OK/GD32VW55X_Wifi_BLE_SDK/GD32VW55x_RELEASE_V1.0.2/MSDK/cloud/alicloud/src/services/linkkit/dm\dm_cota.c ****             IOT_OTA_ReportProgress(ota_handle, percent_now, NULL);
 271              		.loc 1 158 48
 272 0126 637C9C00 		bleu	s1,s8,.L14
 273              	.L12:
 159:C:/Users/stapi/OneDrive/Desktop/GD32VW553/V1_MQTT_OK/GD32VW55X_Wifi_BLE_SDK/GD32VW55x_RELEASE_V1.0.2/MSDK/cloud/alicloud/src/services/linkkit/dm\dm_cota.c ****             percent_pre = percent_now;
 274              		.loc 1 159 13 is_stmt 1
 275 012a 5245     		lw	a0,20(sp)
 276              	.LVL30:
 277 012c 0146     		li	a2,0
 278 012e A685     		mv	a1,s1
 279              	.LVL31:
 280 0130 97000000 		call	IOT_OTA_ReportProgress
 280      E7800000 
 281              	.LVL32:
 160:C:/Users/stapi/OneDrive/Desktop/GD32VW553/V1_MQTT_OK/GD32VW55X_Wifi_BLE_SDK/GD32VW55x_RELEASE_V1.0.2/MSDK/cloud/alicloud/src/services/linkkit/dm\dm_cota.c ****             report_pre = report_now;
 282              		.loc 1 160 13
 161:C:/Users/stapi/OneDrive/Desktop/GD32VW553/V1_MQTT_OK/GD32VW55X_Wifi_BLE_SDK/GD32VW55x_RELEASE_V1.0.2/MSDK/cloud/alicloud/src/services/linkkit/dm\dm_cota.c ****         }
 283              		.loc 1 161 13
 161:C:/Users/stapi/OneDrive/Desktop/GD32VW553/V1_MQTT_OK/GD32VW55X_Wifi_BLE_SDK/GD32VW55x_RELEASE_V1.0.2/MSDK/cloud/alicloud/src/services/linkkit/dm\dm_cota.c ****         }
 284              		.loc 1 161 24 is_stmt 0
 285 0138 6E8A     		mv	s4,s11
 286 013a 6A8B     		mv	s6,s10
 150:C:/Users/stapi/OneDrive/Desktop/GD32VW553/V1_MQTT_OK/GD32VW55X_Wifi_BLE_SDK/GD32VW55x_RELEASE_V1.0.2/MSDK/cloud/alicloud/src/services/linkkit/dm\dm_cota.c ****         report_now = HAL_UptimeMs();
 287              		.loc 1 150 21
 288 013c A68A     		mv	s5,s1
 289              	.LVL33:
 290              	.L14:
 165:C:/Users/stapi/OneDrive/Desktop/GD32VW553/V1_MQTT_OK/GD32VW55X_Wifi_BLE_SDK/GD32VW55x_RELEASE_V1.0.2/MSDK/cloud/alicloud/src/services/linkkit/dm\dm_cota.c ****             uint32_t file_isvalid = 0;
 291              		.loc 1 165 9 is_stmt 1
 165:C:/Users/stapi/OneDrive/Desktop/GD32VW553/V1_MQTT_OK/GD32VW55X_Wifi_BLE_SDK/GD32VW55x_RELEASE_V1.0.2/MSDK/cloud/alicloud/src/services/linkkit/dm\dm_cota.c ****             uint32_t file_isvalid = 0;
 292              		.loc 1 165 13 is_stmt 0
 293 013e 5245     		lw	a0,20(sp)
 294 0140 97000000 		call	IOT_OTA_IsFetchFinish
 294      E7800000 
 295              	.LVL34:
 165:C:/Users/stapi/OneDrive/Desktop/GD32VW553/V1_MQTT_OK/GD32VW55X_Wifi_BLE_SDK/GD32VW55x_RELEASE_V1.0.2/MSDK/cloud/alicloud/src/services/linkkit/dm\dm_cota.c ****             uint32_t file_isvalid = 0;
 296              		.loc 1 165 12
 297 0148 1DD9     		beq	a0,zero,.L15
 298              	.LBB12:
 166:C:/Users/stapi/OneDrive/Desktop/GD32VW553/V1_MQTT_OK/GD32VW55X_Wifi_BLE_SDK/GD32VW55x_RELEASE_V1.0.2/MSDK/cloud/alicloud/src/services/linkkit/dm\dm_cota.c ****             IOT_OTA_Ioctl(ota_handle, IOT_OTAG_CHECK_CONFIG, &file_isvalid, 4);
 299              		.loc 1 166 13 is_stmt 1
 167:C:/Users/stapi/OneDrive/Desktop/GD32VW553/V1_MQTT_OK/GD32VW55X_Wifi_BLE_SDK/GD32VW55x_RELEASE_V1.0.2/MSDK/cloud/alicloud/src/services/linkkit/dm\dm_cota.c ****             if (file_isvalid == 0) {
 300              		.loc 1 167 13 is_stmt 0
 301 014a 5245     		lw	a0,20(sp)
 302 014c 9146     		li	a3,4
 303 014e 7008     		addi	a2,sp,28
 304 0150 B145     		li	a1,12
 166:C:/Users/stapi/OneDrive/Desktop/GD32VW553/V1_MQTT_OK/GD32VW55X_Wifi_BLE_SDK/GD32VW55x_RELEASE_V1.0.2/MSDK/cloud/alicloud/src/services/linkkit/dm\dm_cota.c ****             IOT_OTA_Ioctl(ota_handle, IOT_OTAG_CHECK_CONFIG, &file_isvalid, 4);
 305              		.loc 1 166 22
 306 0152 02CE     		sw	zero,28(sp)
 167:C:/Users/stapi/OneDrive/Desktop/GD32VW553/V1_MQTT_OK/GD32VW55X_Wifi_BLE_SDK/GD32VW55x_RELEASE_V1.0.2/MSDK/cloud/alicloud/src/services/linkkit/dm\dm_cota.c ****             if (file_isvalid == 0) {
 307              		.loc 1 167 13 is_stmt 1
 308 0154 97000000 		call	IOT_OTA_Ioctl
 308      E7800000 
 309              	.LVL35:
 168:C:/Users/stapi/OneDrive/Desktop/GD32VW553/V1_MQTT_OK/GD32VW55X_Wifi_BLE_SDK/GD32VW55x_RELEASE_V1.0.2/MSDK/cloud/alicloud/src/services/linkkit/dm\dm_cota.c ****                 HAL_Firmware_Persistence_Stop();
 310              		.loc 1 168 13
 168:C:/Users/stapi/OneDrive/Desktop/GD32VW553/V1_MQTT_OK/GD32VW55X_Wifi_BLE_SDK/GD32VW55x_RELEASE_V1.0.2/MSDK/cloud/alicloud/src/services/linkkit/dm\dm_cota.c ****                 HAL_Firmware_Persistence_Stop();
 311              		.loc 1 168 16 is_stmt 0
 312 015c F247     		lw	a5,28(sp)
 313 015e B7040000 		lui	s1,%hi(.LANCHOR0)
 314              	.LVL36:
 315 0162 93840400 		addi	s1,s1,%lo(.LANCHOR0)
 316 0166 81EB     		bne	a5,zero,.L16
 169:C:/Users/stapi/OneDrive/Desktop/GD32VW553/V1_MQTT_OK/GD32VW55X_Wifi_BLE_SDK/GD32VW55x_RELEASE_V1.0.2/MSDK/cloud/alicloud/src/services/linkkit/dm\dm_cota.c ****                 ctx->is_report_new_config = 0;
 317              		.loc 1 169 17 is_stmt 1
 318 0168 97000000 		call	HAL_Firmware_Persistence_Stop
 318      E7800000 
 319              	.LVL37:
 170:C:/Users/stapi/OneDrive/Desktop/GD32VW553/V1_MQTT_OK/GD32VW55X_Wifi_BLE_SDK/GD32VW55x_RELEASE_V1.0.2/MSDK/cloud/alicloud/src/services/linkkit/dm\dm_cota.c ****                 return FAIL_RETURN;
 320              		.loc 1 170 17
 170:C:/Users/stapi/OneDrive/Desktop/GD32VW553/V1_MQTT_OK/GD32VW55X_Wifi_BLE_SDK/GD32VW55x_RELEASE_V1.0.2/MSDK/cloud/alicloud/src/services/linkkit/dm\dm_cota.c ****                 return FAIL_RETURN;
 321              		.loc 1 170 43 is_stmt 0
 322 0170 23A00400 		sw	zero,0(s1)
 171:C:/Users/stapi/OneDrive/Desktop/GD32VW553/V1_MQTT_OK/GD32VW55X_Wifi_BLE_SDK/GD32VW55x_RELEASE_V1.0.2/MSDK/cloud/alicloud/src/services/linkkit/dm\dm_cota.c ****             } else {
 323              		.loc 1 171 17 is_stmt 1
 324 0174 6DBD     		j	.L25
 325              	.L16:
 326              	.LBE12:
 178:C:/Users/stapi/OneDrive/Desktop/GD32VW553/V1_MQTT_OK/GD32VW55X_Wifi_BLE_SDK/GD32VW55x_RELEASE_V1.0.2/MSDK/cloud/alicloud/src/services/linkkit/dm\dm_cota.c ****     ctx->is_report_new_config = 0;
 327              		.loc 1 178 5
 328 0176 97000000 		call	HAL_Firmware_Persistence_Stop
 328      E7800000 
 329              	.LVL38:
 179:C:/Users/stapi/OneDrive/Desktop/GD32VW553/V1_MQTT_OK/GD32VW55X_Wifi_BLE_SDK/GD32VW55x_RELEASE_V1.0.2/MSDK/cloud/alicloud/src/services/linkkit/dm\dm_cota.c **** 
 330              		.loc 1 179 5
 179:C:/Users/stapi/OneDrive/Desktop/GD32VW553/V1_MQTT_OK/GD32VW55X_Wifi_BLE_SDK/GD32VW55x_RELEASE_V1.0.2/MSDK/cloud/alicloud/src/services/linkkit/dm\dm_cota.c **** 
 331              		.loc 1 179 31 is_stmt 0
 332 017e 23A00400 		sw	zero,0(s1)
 181:C:/Users/stapi/OneDrive/Desktop/GD32VW553/V1_MQTT_OK/GD32VW55X_Wifi_BLE_SDK/GD32VW55x_RELEASE_V1.0.2/MSDK/cloud/alicloud/src/services/linkkit/dm\dm_cota.c **** }
 333              		.loc 1 181 5 is_stmt 1
 181:C:/Users/stapi/OneDrive/Desktop/GD32VW553/V1_MQTT_OK/GD32VW55X_Wifi_BLE_SDK/GD32VW55x_RELEASE_V1.0.2/MSDK/cloud/alicloud/src/services/linkkit/dm\dm_cota.c **** }
 334              		.loc 1 181 12 is_stmt 0
 335 0182 7DB5     		j	.L4
 336              		.cfi_endproc
 337              	.LFE24:
 339              		.section	.text.dm_cota_get_config,"ax",@progbits
 340              		.align	1
 341              		.globl	dm_cota_get_config
 343              	dm_cota_get_config:
 344              	.LFB25:
 183:C:/Users/stapi/OneDrive/Desktop/GD32VW553/V1_MQTT_OK/GD32VW55X_Wifi_BLE_SDK/GD32VW55x_RELEASE_V1.0.2/MSDK/cloud/alicloud/src/services/linkkit/dm\dm_cota.c **** 
 184:C:/Users/stapi/OneDrive/Desktop/GD32VW553/V1_MQTT_OK/GD32VW55X_Wifi_BLE_SDK/GD32VW55x_RELEASE_V1.0.2/MSDK/cloud/alicloud/src/services/linkkit/dm\dm_cota.c **** int dm_cota_get_config(const char *config_scope, const char *get_type, const char *attribute_keys)
 185:C:/Users/stapi/OneDrive/Desktop/GD32VW553/V1_MQTT_OK/GD32VW55X_Wifi_BLE_SDK/GD32VW55x_RELEASE_V1.0.2/MSDK/cloud/alicloud/src/services/linkkit/dm\dm_cota.c **** {
 345              		.loc 1 185 1 is_stmt 1
 346              		.cfi_startproc
 347              	.LVL39:
 348 0000 17030000 		call	t0,__riscv_save_2
 348      E7020300 
 349              		.cfi_offset 9, -12
 350              		.cfi_offset 8, -8
 351              		.cfi_offset 1, -4
 352              		.cfi_def_cfa_offset 16
 186:C:/Users/stapi/OneDrive/Desktop/GD32VW553/V1_MQTT_OK/GD32VW55X_Wifi_BLE_SDK/GD32VW55x_RELEASE_V1.0.2/MSDK/cloud/alicloud/src/services/linkkit/dm\dm_cota.c ****     int res = 0;
 353              		.loc 1 186 5
 354              	.LVL40:
 187:C:/Users/stapi/OneDrive/Desktop/GD32VW553/V1_MQTT_OK/GD32VW55X_Wifi_BLE_SDK/GD32VW55x_RELEASE_V1.0.2/MSDK/cloud/alicloud/src/services/linkkit/dm\dm_cota.c ****     void *ota_handle = NULL;
 355              		.loc 1 187 5
 185:C:/Users/stapi/OneDrive/Desktop/GD32VW553/V1_MQTT_OK/GD32VW55X_Wifi_BLE_SDK/GD32VW55x_RELEASE_V1.0.2/MSDK/cloud/alicloud/src/services/linkkit/dm\dm_cota.c ****     int res = 0;
 356              		.loc 1 185 1 is_stmt 0
 357 0008 0111     		addi	sp,sp,-32
 358              		.cfi_def_cfa_offset 48
 185:C:/Users/stapi/OneDrive/Desktop/GD32VW553/V1_MQTT_OK/GD32VW55X_Wifi_BLE_SDK/GD32VW55x_RELEASE_V1.0.2/MSDK/cloud/alicloud/src/services/linkkit/dm\dm_cota.c ****     int res = 0;
 359              		.loc 1 185 1
 360 000a 2A84     		mv	s0,a0
 188:C:/Users/stapi/OneDrive/Desktop/GD32VW553/V1_MQTT_OK/GD32VW55X_Wifi_BLE_SDK/GD32VW55x_RELEASE_V1.0.2/MSDK/cloud/alicloud/src/services/linkkit/dm\dm_cota.c **** 
 189:C:/Users/stapi/OneDrive/Desktop/GD32VW553/V1_MQTT_OK/GD32VW55X_Wifi_BLE_SDK/GD32VW55x_RELEASE_V1.0.2/MSDK/cloud/alicloud/src/services/linkkit/dm\dm_cota.c ****     /* Get Ota Handle */
 190:C:/Users/stapi/OneDrive/Desktop/GD32VW553/V1_MQTT_OK/GD32VW55X_Wifi_BLE_SDK/GD32VW55x_RELEASE_V1.0.2/MSDK/cloud/alicloud/src/services/linkkit/dm\dm_cota.c ****     res = dm_ota_get_ota_handle(&ota_handle);
 361              		.loc 1 190 11
 362 000c 6808     		addi	a0,sp,28
 363              	.LVL41:
 185:C:/Users/stapi/OneDrive/Desktop/GD32VW553/V1_MQTT_OK/GD32VW55X_Wifi_BLE_SDK/GD32VW55x_RELEASE_V1.0.2/MSDK/cloud/alicloud/src/services/linkkit/dm\dm_cota.c ****     int res = 0;
 364              		.loc 1 185 1
 365 000e AE84     		mv	s1,a1
 366 0010 32C6     		sw	a2,12(sp)
 187:C:/Users/stapi/OneDrive/Desktop/GD32VW553/V1_MQTT_OK/GD32VW55X_Wifi_BLE_SDK/GD32VW55x_RELEASE_V1.0.2/MSDK/cloud/alicloud/src/services/linkkit/dm\dm_cota.c **** 
 367              		.loc 1 187 11
 368 0012 02CE     		sw	zero,28(sp)
 369              		.loc 1 190 5 is_stmt 1
 370              		.loc 1 190 11 is_stmt 0
 371 0014 97000000 		call	dm_ota_get_ota_handle
 371      E7800000 
 372              	.LVL42:
 191:C:/Users/stapi/OneDrive/Desktop/GD32VW553/V1_MQTT_OK/GD32VW55X_Wifi_BLE_SDK/GD32VW55x_RELEASE_V1.0.2/MSDK/cloud/alicloud/src/services/linkkit/dm\dm_cota.c ****     if (res != SUCCESS_RETURN) {
 373              		.loc 1 191 5 is_stmt 1
 374              		.loc 1 191 8 is_stmt 0
 375 001c 11ED     		bne	a0,zero,.L28
 192:C:/Users/stapi/OneDrive/Desktop/GD32VW553/V1_MQTT_OK/GD32VW55X_Wifi_BLE_SDK/GD32VW55x_RELEASE_V1.0.2/MSDK/cloud/alicloud/src/services/linkkit/dm\dm_cota.c ****         return FAIL_RETURN;
 193:C:/Users/stapi/OneDrive/Desktop/GD32VW553/V1_MQTT_OK/GD32VW55X_Wifi_BLE_SDK/GD32VW55x_RELEASE_V1.0.2/MSDK/cloud/alicloud/src/services/linkkit/dm\dm_cota.c ****     }
 194:C:/Users/stapi/OneDrive/Desktop/GD32VW553/V1_MQTT_OK/GD32VW55X_Wifi_BLE_SDK/GD32VW55x_RELEASE_V1.0.2/MSDK/cloud/alicloud/src/services/linkkit/dm\dm_cota.c **** 
 195:C:/Users/stapi/OneDrive/Desktop/GD32VW553/V1_MQTT_OK/GD32VW55X_Wifi_BLE_SDK/GD32VW55x_RELEASE_V1.0.2/MSDK/cloud/alicloud/src/services/linkkit/dm\dm_cota.c ****     return iotx_ota_get_config(ota_handle, config_scope, get_type, attribute_keys);
 376              		.loc 1 195 5 is_stmt 1
 377              		.loc 1 195 12 is_stmt 0
 378 001e B246     		lw	a3,12(sp)
 379 0020 7245     		lw	a0,28(sp)
 380              	.LVL43:
 381 0022 2686     		mv	a2,s1
 382 0024 A285     		mv	a1,s0
 383 0026 97000000 		call	iotx_ota_get_config
 383      E7800000 
 384              	.LVL44:
 385              	.L26:
 196:C:/Users/stapi/OneDrive/Desktop/GD32VW553/V1_MQTT_OK/GD32VW55X_Wifi_BLE_SDK/GD32VW55x_RELEASE_V1.0.2/MSDK/cloud/alicloud/src/services/linkkit/dm\dm_cota.c **** }
 386              		.loc 1 196 1
 387 002e 0561     		addi	sp,sp,32
 388              		.cfi_remember_state
 389              		.cfi_def_cfa_offset 0
 390              	.LVL45:
 391 0030 17030000 		tail	__riscv_restore_2
 391      67000300 
 392              		.cfi_restore 9
 393              		.cfi_restore 8
 394              		.cfi_restore 1
 395              		.cfi_def_cfa_offset -16
 396              	.LVL46:
 397              	.L28:
 398              		.cfi_restore_state
 192:C:/Users/stapi/OneDrive/Desktop/GD32VW553/V1_MQTT_OK/GD32VW55X_Wifi_BLE_SDK/GD32VW55x_RELEASE_V1.0.2/MSDK/cloud/alicloud/src/services/linkkit/dm\dm_cota.c ****         return FAIL_RETURN;
 399              		.loc 1 192 16
 400 0038 7D55     		li	a0,-1
 401              	.LVL47:
 402 003a D5BF     		j	.L26
 403              		.cfi_endproc
 404              	.LFE25:
 406              		.section	.rodata.dm_cota_status_check.str1.4,"aMS",@progbits,1
 407              		.align	2
 408              	.LC0:
 409 0000 436F7461 		.string	"Cota Status Check"
 409      20537461 
 409      74757320 
 409      43686563 
 409      6B00
 410 0012 0000     		.align	2
 411              	.LC1:
 412 0014 444D00   		.string	"DM"
 413 0017 00       		.align	2
 414              	.LC2:
 415 0018 7B22636F 		.string	"{\"configId\":\"%s\",\"configSize\":%d,\"getType\":\"%s\",\"sign\":\"%s\",\"signMethod\":
 415      6E666967 
 415      4964223A 
 415      22257322 
 415      2C22636F 
 416 0072 0000     		.align	2
 417              	.LC3:
 418 0074 5B696E66 		.string	"[inf] "
 418      5D2000
 419 007b 00       		.align	2
 420              	.LC4:
 421 007c 53656E64 		.string	"Send To User: %s"
 421      20546F20 
 421      55736572 
 421      3A202573 
 421      00
 422 008d 000000   		.align	2
 423              	.LC5:
 424 0090 0D0A00   		.string	"\r\n"
 425              		.section	.text.dm_cota_status_check,"ax",@progbits
 426              		.align	1
 427              		.globl	dm_cota_status_check
 429              	dm_cota_status_check:
 430              	.LFB26:
 197:C:/Users/stapi/OneDrive/Desktop/GD32VW553/V1_MQTT_OK/GD32VW55X_Wifi_BLE_SDK/GD32VW55x_RELEASE_V1.0.2/MSDK/cloud/alicloud/src/services/linkkit/dm\dm_cota.c **** 
 198:C:/Users/stapi/OneDrive/Desktop/GD32VW553/V1_MQTT_OK/GD32VW55X_Wifi_BLE_SDK/GD32VW55x_RELEASE_V1.0.2/MSDK/cloud/alicloud/src/services/linkkit/dm\dm_cota.c **** int dm_cota_status_check(void)
 199:C:/Users/stapi/OneDrive/Desktop/GD32VW553/V1_MQTT_OK/GD32VW55X_Wifi_BLE_SDK/GD32VW55x_RELEASE_V1.0.2/MSDK/cloud/alicloud/src/services/linkkit/dm\dm_cota.c **** {
 431              		.loc 1 199 1 is_stmt 1
 432              		.cfi_startproc
 433 0000 17030000 		call	t0,__riscv_save_6
 433      E7020300 
 434              		.cfi_offset 21, -28
 435              		.cfi_offset 20, -24
 436              		.cfi_offset 19, -20
 437              		.cfi_offset 18, -16
 438              		.cfi_offset 9, -12
 439              		.cfi_offset 8, -8
 440              		.cfi_offset 1, -4
 441              		.cfi_def_cfa_offset 32
 200:C:/Users/stapi/OneDrive/Desktop/GD32VW553/V1_MQTT_OK/GD32VW55X_Wifi_BLE_SDK/GD32VW55x_RELEASE_V1.0.2/MSDK/cloud/alicloud/src/services/linkkit/dm\dm_cota.c ****     int res = 0;
 442              		.loc 1 200 5
 443              	.LVL48:
 201:C:/Users/stapi/OneDrive/Desktop/GD32VW553/V1_MQTT_OK/GD32VW55X_Wifi_BLE_SDK/GD32VW55x_RELEASE_V1.0.2/MSDK/cloud/alicloud/src/services/linkkit/dm\dm_cota.c ****     dm_cota_ctx_t *ctx = _dm_cota_get_ctx();
 444              		.loc 1 201 5
  14:C:/Users/stapi/OneDrive/Desktop/GD32VW553/V1_MQTT_OK/GD32VW55X_Wifi_BLE_SDK/GD32VW55x_RELEASE_V1.0.2/MSDK/cloud/alicloud/src/services/linkkit/dm\dm_cota.c **** }
 445              		.loc 1 14 5
 202:C:/Users/stapi/OneDrive/Desktop/GD32VW553/V1_MQTT_OK/GD32VW55X_Wifi_BLE_SDK/GD32VW55x_RELEASE_V1.0.2/MSDK/cloud/alicloud/src/services/linkkit/dm\dm_cota.c ****     void *ota_handle = NULL;
 446              		.loc 1 202 5
 199:C:/Users/stapi/OneDrive/Desktop/GD32VW553/V1_MQTT_OK/GD32VW55X_Wifi_BLE_SDK/GD32VW55x_RELEASE_V1.0.2/MSDK/cloud/alicloud/src/services/linkkit/dm\dm_cota.c ****     int res = 0;
 447              		.loc 1 199 1 is_stmt 0
 448 0008 7971     		addi	sp,sp,-48
 449              		.cfi_def_cfa_offset 80
 203:C:/Users/stapi/OneDrive/Desktop/GD32VW553/V1_MQTT_OK/GD32VW55X_Wifi_BLE_SDK/GD32VW55x_RELEASE_V1.0.2/MSDK/cloud/alicloud/src/services/linkkit/dm\dm_cota.c **** 
 204:C:/Users/stapi/OneDrive/Desktop/GD32VW553/V1_MQTT_OK/GD32VW55X_Wifi_BLE_SDK/GD32VW55x_RELEASE_V1.0.2/MSDK/cloud/alicloud/src/services/linkkit/dm\dm_cota.c ****     /* Get Ota Handle */
 205:C:/Users/stapi/OneDrive/Desktop/GD32VW553/V1_MQTT_OK/GD32VW55X_Wifi_BLE_SDK/GD32VW55x_RELEASE_V1.0.2/MSDK/cloud/alicloud/src/services/linkkit/dm\dm_cota.c ****     res = dm_ota_get_ota_handle(&ota_handle);
 450              		.loc 1 205 11
 451 000a 0808     		addi	a0,sp,16
 202:C:/Users/stapi/OneDrive/Desktop/GD32VW553/V1_MQTT_OK/GD32VW55X_Wifi_BLE_SDK/GD32VW55x_RELEASE_V1.0.2/MSDK/cloud/alicloud/src/services/linkkit/dm\dm_cota.c **** 
 452              		.loc 1 202 11
 453 000c 02C8     		sw	zero,16(sp)
 454              		.loc 1 205 5 is_stmt 1
 455              		.loc 1 205 11 is_stmt 0
 456 000e 97000000 		call	dm_ota_get_ota_handle
 456      E7800000 
 457              	.LVL49:
 458 0016 AA87     		mv	a5,a0
 459              	.LVL50:
 206:C:/Users/stapi/OneDrive/Desktop/GD32VW553/V1_MQTT_OK/GD32VW55X_Wifi_BLE_SDK/GD32VW55x_RELEASE_V1.0.2/MSDK/cloud/alicloud/src/services/linkkit/dm\dm_cota.c ****     if (res != SUCCESS_RETURN) {
 460              		.loc 1 206 5 is_stmt 1
 207:C:/Users/stapi/OneDrive/Desktop/GD32VW553/V1_MQTT_OK/GD32VW55X_Wifi_BLE_SDK/GD32VW55x_RELEASE_V1.0.2/MSDK/cloud/alicloud/src/services/linkkit/dm\dm_cota.c ****         return FAIL_RETURN;
 461              		.loc 1 207 16 is_stmt 0
 462 0018 7D55     		li	a0,-1
 463              	.LVL51:
 206:C:/Users/stapi/OneDrive/Desktop/GD32VW553/V1_MQTT_OK/GD32VW55X_Wifi_BLE_SDK/GD32VW55x_RELEASE_V1.0.2/MSDK/cloud/alicloud/src/services/linkkit/dm\dm_cota.c ****     if (res != SUCCESS_RETURN) {
 464              		.loc 1 206 8
 465 001a 63940720 		bne	a5,zero,.L30
 208:C:/Users/stapi/OneDrive/Desktop/GD32VW553/V1_MQTT_OK/GD32VW55X_Wifi_BLE_SDK/GD32VW55x_RELEASE_V1.0.2/MSDK/cloud/alicloud/src/services/linkkit/dm\dm_cota.c ****     }
 209:C:/Users/stapi/OneDrive/Desktop/GD32VW553/V1_MQTT_OK/GD32VW55X_Wifi_BLE_SDK/GD32VW55x_RELEASE_V1.0.2/MSDK/cloud/alicloud/src/services/linkkit/dm\dm_cota.c **** 
 210:C:/Users/stapi/OneDrive/Desktop/GD32VW553/V1_MQTT_OK/GD32VW55X_Wifi_BLE_SDK/GD32VW55x_RELEASE_V1.0.2/MSDK/cloud/alicloud/src/services/linkkit/dm\dm_cota.c ****     if (IOT_OTA_IsFetching(ota_handle)) {
 466              		.loc 1 210 5 is_stmt 1
 467              		.loc 1 210 9 is_stmt 0
 468 001e 4245     		lw	a0,16(sp)
 469 0020 97000000 		call	IOT_OTA_IsFetching
 469      E7800000 
 470              	.LVL52:
 471              		.loc 1 210 8
 472 0028 630D051E 		beq	a0,zero,.L30
 473              	.LBB16:
 211:C:/Users/stapi/OneDrive/Desktop/GD32VW553/V1_MQTT_OK/GD32VW55X_Wifi_BLE_SDK/GD32VW55x_RELEASE_V1.0.2/MSDK/cloud/alicloud/src/services/linkkit/dm\dm_cota.c ****         uint32_t ota_type = IOT_OTAT_NONE;
 474              		.loc 1 211 9 is_stmt 1
 212:C:/Users/stapi/OneDrive/Desktop/GD32VW553/V1_MQTT_OK/GD32VW55X_Wifi_BLE_SDK/GD32VW55x_RELEASE_V1.0.2/MSDK/cloud/alicloud/src/services/linkkit/dm\dm_cota.c **** 
 213:C:/Users/stapi/OneDrive/Desktop/GD32VW553/V1_MQTT_OK/GD32VW55X_Wifi_BLE_SDK/GD32VW55x_RELEASE_V1.0.2/MSDK/cloud/alicloud/src/services/linkkit/dm\dm_cota.c ****         IOT_OTA_Ioctl(ota_handle, IOT_OTAG_OTA_TYPE, &ota_type, 4);
 475              		.loc 1 213 9 is_stmt 0
 476 002c 4245     		lw	a0,16(sp)
 477 002e 9146     		li	a3,4
 478 0030 5008     		addi	a2,sp,20
 479 0032 9945     		li	a1,6
 211:C:/Users/stapi/OneDrive/Desktop/GD32VW553/V1_MQTT_OK/GD32VW55X_Wifi_BLE_SDK/GD32VW55x_RELEASE_V1.0.2/MSDK/cloud/alicloud/src/services/linkkit/dm\dm_cota.c ****         uint32_t ota_type = IOT_OTAT_NONE;
 480              		.loc 1 211 18
 481 0034 02CA     		sw	zero,20(sp)
 482              		.loc 1 213 9 is_stmt 1
 483 0036 97000000 		call	IOT_OTA_Ioctl
 483      E7800000 
 484              	.LVL53:
 214:C:/Users/stapi/OneDrive/Desktop/GD32VW553/V1_MQTT_OK/GD32VW55X_Wifi_BLE_SDK/GD32VW55x_RELEASE_V1.0.2/MSDK/cloud/alicloud/src/services/linkkit/dm\dm_cota.c **** 
 215:C:/Users/stapi/OneDrive/Desktop/GD32VW553/V1_MQTT_OK/GD32VW55X_Wifi_BLE_SDK/GD32VW55x_RELEASE_V1.0.2/MSDK/cloud/alicloud/src/services/linkkit/dm\dm_cota.c ****         if (ota_type == IOT_OTAT_COTA) {
 485              		.loc 1 215 9
 486              		.loc 1 215 12 is_stmt 0
 487 003e 5247     		lw	a4,20(sp)
 488 0040 8547     		li	a5,1
 489 0042 631FF71C 		bne	a4,a5,.L33
 216:C:/Users/stapi/OneDrive/Desktop/GD32VW553/V1_MQTT_OK/GD32VW55X_Wifi_BLE_SDK/GD32VW55x_RELEASE_V1.0.2/MSDK/cloud/alicloud/src/services/linkkit/dm\dm_cota.c ****             /* Send New Config Information To User */
 217:C:/Users/stapi/OneDrive/Desktop/GD32VW553/V1_MQTT_OK/GD32VW55X_Wifi_BLE_SDK/GD32VW55x_RELEASE_V1.0.2/MSDK/cloud/alicloud/src/services/linkkit/dm\dm_cota.c ****             if (ctx->is_report_new_config == 0) {
 490              		.loc 1 217 13 is_stmt 1
 491              		.loc 1 217 20 is_stmt 0
 492 0046 B7090000 		lui	s3,%hi(.LANCHOR0)
 493              		.loc 1 217 16
 494 004a 83A70900 		lw	a5,%lo(.LANCHOR0)(s3)
 495 004e 93890900 		addi	s3,s3,%lo(.LANCHOR0)
 496 0052 6397071C 		bne	a5,zero,.L33
 218:C:/Users/stapi/OneDrive/Desktop/GD32VW553/V1_MQTT_OK/GD32VW55X_Wifi_BLE_SDK/GD32VW55x_RELEASE_V1.0.2/MSDK/cloud/alicloud/src/services/linkkit/dm\dm_cota.c ****                 dm_log_debug("Cota Status Check");
 497              		.loc 1 218 17 is_stmt 1
 498 0056 37070000 		lui	a4,%hi(.LC0)
 499 005a B7050000 		lui	a1,%hi(.LANCHOR1)
 500 005e 37050000 		lui	a0,%hi(.LC1)
 501 0062 13070700 		addi	a4,a4,%lo(.LC0)
 502 0066 9546     		li	a3,5
 503 0068 1306A00D 		li	a2,218
 504 006c 93850500 		addi	a1,a1,%lo(.LANCHOR1)
 505 0070 13050500 		addi	a0,a0,%lo(.LC1)
 506 0074 97000000 		call	LITE_syslog
 506      E7800000 
 507              	.LVL54:
 219:C:/Users/stapi/OneDrive/Desktop/GD32VW553/V1_MQTT_OK/GD32VW55X_Wifi_BLE_SDK/GD32VW55x_RELEASE_V1.0.2/MSDK/cloud/alicloud/src/services/linkkit/dm\dm_cota.c ****                 res = _dm_cota_send_new_config_to_user(ota_handle);
 508              		.loc 1 219 17
 509              		.loc 1 219 23 is_stmt 0
 510 007c 4244     		lw	s0,16(sp)
 511              	.LVL55:
 512              	.LBB17:
 513              	.LBB18:
  37:C:/Users/stapi/OneDrive/Desktop/GD32VW553/V1_MQTT_OK/GD32VW55X_Wifi_BLE_SDK/GD32VW55x_RELEASE_V1.0.2/MSDK/cloud/alicloud/src/services/linkkit/dm\dm_cota.c ****     char *message = NULL;
 514              		.loc 1 37 5 is_stmt 1
  38:C:/Users/stapi/OneDrive/Desktop/GD32VW553/V1_MQTT_OK/GD32VW55X_Wifi_BLE_SDK/GD32VW55x_RELEASE_V1.0.2/MSDK/cloud/alicloud/src/services/linkkit/dm\dm_cota.c ****     uint32_t config_size = 0;
 515              		.loc 1 38 5
  39:C:/Users/stapi/OneDrive/Desktop/GD32VW553/V1_MQTT_OK/GD32VW55X_Wifi_BLE_SDK/GD32VW55x_RELEASE_V1.0.2/MSDK/cloud/alicloud/src/services/linkkit/dm\dm_cota.c ****     char *config_id = NULL, *sign = NULL, *sign_method = NULL, *url = NULL, *get_type = NULL;
 516              		.loc 1 39 5
  44:C:/Users/stapi/OneDrive/Desktop/GD32VW553/V1_MQTT_OK/GD32VW55X_Wifi_BLE_SDK/GD32VW55x_RELEASE_V1.0.2/MSDK/cloud/alicloud/src/services/linkkit/dm\dm_cota.c ****     IOT_OTA_Ioctl(ota_handle, IOT_OTAG_COTA_CONFIG_SIZE, &config_size, 4);
 517              		.loc 1 44 5 is_stmt 0
 518 007e 8546     		li	a3,1
 519 0080 7008     		addi	a2,sp,28
 520 0082 8145     		li	a1,0
 521 0084 2285     		mv	a0,s0
  39:C:/Users/stapi/OneDrive/Desktop/GD32VW553/V1_MQTT_OK/GD32VW55X_Wifi_BLE_SDK/GD32VW55x_RELEASE_V1.0.2/MSDK/cloud/alicloud/src/services/linkkit/dm\dm_cota.c ****     char *config_id = NULL, *sign = NULL, *sign_method = NULL, *url = NULL, *get_type = NULL;
 522              		.loc 1 39 14
 523 0086 02CC     		sw	zero,24(sp)
  40:C:/Users/stapi/OneDrive/Desktop/GD32VW553/V1_MQTT_OK/GD32VW55X_Wifi_BLE_SDK/GD32VW55x_RELEASE_V1.0.2/MSDK/cloud/alicloud/src/services/linkkit/dm\dm_cota.c ****     const char *cota_new_config_fmt =
 524              		.loc 1 40 5 is_stmt 1
  40:C:/Users/stapi/OneDrive/Desktop/GD32VW553/V1_MQTT_OK/GD32VW55X_Wifi_BLE_SDK/GD32VW55x_RELEASE_V1.0.2/MSDK/cloud/alicloud/src/services/linkkit/dm\dm_cota.c ****     const char *cota_new_config_fmt =
 525              		.loc 1 40 11 is_stmt 0
 526 0088 02CE     		sw	zero,28(sp)
  40:C:/Users/stapi/OneDrive/Desktop/GD32VW553/V1_MQTT_OK/GD32VW55X_Wifi_BLE_SDK/GD32VW55x_RELEASE_V1.0.2/MSDK/cloud/alicloud/src/services/linkkit/dm\dm_cota.c ****     const char *cota_new_config_fmt =
 527              		.loc 1 40 30
 528 008a 02D0     		sw	zero,32(sp)
  40:C:/Users/stapi/OneDrive/Desktop/GD32VW553/V1_MQTT_OK/GD32VW55X_Wifi_BLE_SDK/GD32VW55x_RELEASE_V1.0.2/MSDK/cloud/alicloud/src/services/linkkit/dm\dm_cota.c ****     const char *cota_new_config_fmt =
 529              		.loc 1 40 44
 530 008c 02D2     		sw	zero,36(sp)
  40:C:/Users/stapi/OneDrive/Desktop/GD32VW553/V1_MQTT_OK/GD32VW55X_Wifi_BLE_SDK/GD32VW55x_RELEASE_V1.0.2/MSDK/cloud/alicloud/src/services/linkkit/dm\dm_cota.c ****     const char *cota_new_config_fmt =
 531              		.loc 1 40 65
 532 008e 02D4     		sw	zero,40(sp)
  40:C:/Users/stapi/OneDrive/Desktop/GD32VW553/V1_MQTT_OK/GD32VW55X_Wifi_BLE_SDK/GD32VW55x_RELEASE_V1.0.2/MSDK/cloud/alicloud/src/services/linkkit/dm\dm_cota.c ****     const char *cota_new_config_fmt =
 533              		.loc 1 40 78
 534 0090 02D6     		sw	zero,44(sp)
  41:C:/Users/stapi/OneDrive/Desktop/GD32VW553/V1_MQTT_OK/GD32VW55X_Wifi_BLE_SDK/GD32VW55x_RELEASE_V1.0.2/MSDK/cloud/alicloud/src/services/linkkit/dm\dm_cota.c ****                 "{\"configId\":\"%s\",\"configSize\":%d,\"getType\":\"%s\",\"sign\":\"%s\",\"signMe
 535              		.loc 1 41 5 is_stmt 1
 536              	.LVL56:
  44:C:/Users/stapi/OneDrive/Desktop/GD32VW553/V1_MQTT_OK/GD32VW55X_Wifi_BLE_SDK/GD32VW55x_RELEASE_V1.0.2/MSDK/cloud/alicloud/src/services/linkkit/dm\dm_cota.c ****     IOT_OTA_Ioctl(ota_handle, IOT_OTAG_COTA_CONFIG_SIZE, &config_size, 4);
 537              		.loc 1 44 5
 538 0092 97000000 		call	IOT_OTA_Ioctl
 538      E7800000 
 539              	.LVL57:
  45:C:/Users/stapi/OneDrive/Desktop/GD32VW553/V1_MQTT_OK/GD32VW55X_Wifi_BLE_SDK/GD32VW55x_RELEASE_V1.0.2/MSDK/cloud/alicloud/src/services/linkkit/dm\dm_cota.c ****     IOT_OTA_Ioctl(ota_handle, IOT_OTAG_COTA_SIGN, (void *)&sign, 1);
 540              		.loc 1 45 5
 541 009a 9146     		li	a3,4
 542 009c 3008     		addi	a2,sp,24
 543 009e 8545     		li	a1,1
 544 00a0 2285     		mv	a0,s0
 545 00a2 97000000 		call	IOT_OTA_Ioctl
 545      E7800000 
 546              	.LVL58:
  46:C:/Users/stapi/OneDrive/Desktop/GD32VW553/V1_MQTT_OK/GD32VW55X_Wifi_BLE_SDK/GD32VW55x_RELEASE_V1.0.2/MSDK/cloud/alicloud/src/services/linkkit/dm\dm_cota.c ****     IOT_OTA_Ioctl(ota_handle, IOT_OTAG_COTA_SIGN_METHOD, (void *)&sign_method, 1);
 547              		.loc 1 46 5
 548 00aa 8546     		li	a3,1
 549 00ac 1010     		addi	a2,sp,32
 550 00ae 8945     		li	a1,2
 551 00b0 2285     		mv	a0,s0
 552 00b2 97000000 		call	IOT_OTA_Ioctl
 552      E7800000 
 553              	.LVL59:
  47:C:/Users/stapi/OneDrive/Desktop/GD32VW553/V1_MQTT_OK/GD32VW55X_Wifi_BLE_SDK/GD32VW55x_RELEASE_V1.0.2/MSDK/cloud/alicloud/src/services/linkkit/dm\dm_cota.c ****     IOT_OTA_Ioctl(ota_handle, IOT_OTAG_COTA_URL, (void *)&url, 1);
 554              		.loc 1 47 5
 555 00ba 8546     		li	a3,1
 556 00bc 5010     		addi	a2,sp,36
 557 00be 8D45     		li	a1,3
 558 00c0 2285     		mv	a0,s0
 559 00c2 97000000 		call	IOT_OTA_Ioctl
 559      E7800000 
 560              	.LVL60:
  48:C:/Users/stapi/OneDrive/Desktop/GD32VW553/V1_MQTT_OK/GD32VW55X_Wifi_BLE_SDK/GD32VW55x_RELEASE_V1.0.2/MSDK/cloud/alicloud/src/services/linkkit/dm\dm_cota.c ****     IOT_OTA_Ioctl(ota_handle, IOT_OTAG_COTA_GETTYPE, (void *)&get_type, 1);
 561              		.loc 1 48 5
 562 00ca 8546     		li	a3,1
 563 00cc 3010     		addi	a2,sp,40
 564 00ce 9145     		li	a1,4
 565 00d0 2285     		mv	a0,s0
 566 00d2 97000000 		call	IOT_OTA_Ioctl
 566      E7800000 
 567              	.LVL61:
  49:C:/Users/stapi/OneDrive/Desktop/GD32VW553/V1_MQTT_OK/GD32VW55X_Wifi_BLE_SDK/GD32VW55x_RELEASE_V1.0.2/MSDK/cloud/alicloud/src/services/linkkit/dm\dm_cota.c **** 
 568              		.loc 1 49 5
 569 00da 8546     		li	a3,1
 570 00dc 7010     		addi	a2,sp,44
 571 00de 9545     		li	a1,5
 572 00e0 2285     		mv	a0,s0
 573 00e2 97000000 		call	IOT_OTA_Ioctl
 573      E7800000 
 574              	.LVL62:
  51:C:/Users/stapi/OneDrive/Desktop/GD32VW553/V1_MQTT_OK/GD32VW55X_Wifi_BLE_SDK/GD32VW55x_RELEASE_V1.0.2/MSDK/cloud/alicloud/src/services/linkkit/dm\dm_cota.c ****         res = FAIL_RETURN;
 575              		.loc 1 51 5
  51:C:/Users/stapi/OneDrive/Desktop/GD32VW553/V1_MQTT_OK/GD32VW55X_Wifi_BLE_SDK/GD32VW55x_RELEASE_V1.0.2/MSDK/cloud/alicloud/src/services/linkkit/dm\dm_cota.c ****         res = FAIL_RETURN;
 576              		.loc 1 51 19 is_stmt 0
 577 00ea 7245     		lw	a0,28(sp)
  52:C:/Users/stapi/OneDrive/Desktop/GD32VW553/V1_MQTT_OK/GD32VW55X_Wifi_BLE_SDK/GD32VW55x_RELEASE_V1.0.2/MSDK/cloud/alicloud/src/services/linkkit/dm\dm_cota.c ****         goto ERROR;
 578              		.loc 1 52 13
 579 00ec FD54     		li	s1,-1
  51:C:/Users/stapi/OneDrive/Desktop/GD32VW553/V1_MQTT_OK/GD32VW55X_Wifi_BLE_SDK/GD32VW55x_RELEASE_V1.0.2/MSDK/cloud/alicloud/src/services/linkkit/dm\dm_cota.c ****         res = FAIL_RETURN;
 580              		.loc 1 51 8
 581 00ee 7DC5     		beq	a0,zero,.L35
  51:C:/Users/stapi/OneDrive/Desktop/GD32VW553/V1_MQTT_OK/GD32VW55X_Wifi_BLE_SDK/GD32VW55x_RELEASE_V1.0.2/MSDK/cloud/alicloud/src/services/linkkit/dm\dm_cota.c ****         res = FAIL_RETURN;
 582              		.loc 1 51 35
 583 00f0 0254     		lw	s0,32(sp)
 584              	.LVL63:
  51:C:/Users/stapi/OneDrive/Desktop/GD32VW553/V1_MQTT_OK/GD32VW55X_Wifi_BLE_SDK/GD32VW55x_RELEASE_V1.0.2/MSDK/cloud/alicloud/src/services/linkkit/dm\dm_cota.c ****         res = FAIL_RETURN;
 585              		.loc 1 51 27
 586 00f2 6DC4     		beq	s0,zero,.L35
  51:C:/Users/stapi/OneDrive/Desktop/GD32VW553/V1_MQTT_OK/GD32VW55X_Wifi_BLE_SDK/GD32VW55x_RELEASE_V1.0.2/MSDK/cloud/alicloud/src/services/linkkit/dm\dm_cota.c ****         res = FAIL_RETURN;
 587              		.loc 1 51 58
 588 00f4 1259     		lw	s2,36(sp)
  51:C:/Users/stapi/OneDrive/Desktop/GD32VW553/V1_MQTT_OK/GD32VW55X_Wifi_BLE_SDK/GD32VW55x_RELEASE_V1.0.2/MSDK/cloud/alicloud/src/services/linkkit/dm\dm_cota.c ****         res = FAIL_RETURN;
 589              		.loc 1 51 43
 590 00f6 6303090E 		beq	s2,zero,.L35
  51:C:/Users/stapi/OneDrive/Desktop/GD32VW553/V1_MQTT_OK/GD32VW55X_Wifi_BLE_SDK/GD32VW55x_RELEASE_V1.0.2/MSDK/cloud/alicloud/src/services/linkkit/dm\dm_cota.c ****         res = FAIL_RETURN;
 591              		.loc 1 51 73
 592 00fa A25A     		lw	s5,40(sp)
  51:C:/Users/stapi/OneDrive/Desktop/GD32VW553/V1_MQTT_OK/GD32VW55X_Wifi_BLE_SDK/GD32VW55x_RELEASE_V1.0.2/MSDK/cloud/alicloud/src/services/linkkit/dm\dm_cota.c ****         res = FAIL_RETURN;
 593              		.loc 1 51 66
 594 00fc 63800A0E 		beq	s5,zero,.L35
  51:C:/Users/stapi/OneDrive/Desktop/GD32VW553/V1_MQTT_OK/GD32VW55X_Wifi_BLE_SDK/GD32VW55x_RELEASE_V1.0.2/MSDK/cloud/alicloud/src/services/linkkit/dm\dm_cota.c ****         res = FAIL_RETURN;
 595              		.loc 1 51 93
 596 0100 325A     		lw	s4,44(sp)
  51:C:/Users/stapi/OneDrive/Desktop/GD32VW553/V1_MQTT_OK/GD32VW55X_Wifi_BLE_SDK/GD32VW55x_RELEASE_V1.0.2/MSDK/cloud/alicloud/src/services/linkkit/dm\dm_cota.c ****         res = FAIL_RETURN;
 597              		.loc 1 51 81
 598 0102 630D0A0C 		beq	s4,zero,.L35
  56:C:/Users/stapi/OneDrive/Desktop/GD32VW553/V1_MQTT_OK/GD32VW55X_Wifi_BLE_SDK/GD32VW55x_RELEASE_V1.0.2/MSDK/cloud/alicloud/src/services/linkkit/dm\dm_cota.c ****                   strlen(sign) + strlen(sign_method) + strlen(url) + 1;
 599              		.loc 1 56 5 is_stmt 1
  56:C:/Users/stapi/OneDrive/Desktop/GD32VW553/V1_MQTT_OK/GD32VW55X_Wifi_BLE_SDK/GD32VW55x_RELEASE_V1.0.2/MSDK/cloud/alicloud/src/services/linkkit/dm\dm_cota.c ****                   strlen(sign) + strlen(sign_method) + strlen(url) + 1;
 600              		.loc 1 56 49 is_stmt 0
 601 0106 97000000 		call	strlen
 601      E7800000 
 602              	.LVL64:
 603 010e AA84     		mv	s1,a0
  56:C:/Users/stapi/OneDrive/Desktop/GD32VW553/V1_MQTT_OK/GD32VW55X_Wifi_BLE_SDK/GD32VW55x_RELEASE_V1.0.2/MSDK/cloud/alicloud/src/services/linkkit/dm\dm_cota.c ****                   strlen(sign) + strlen(sign_method) + strlen(url) + 1;
 604              		.loc 1 56 94
 605 0110 5285     		mv	a0,s4
 606 0112 97000000 		call	strlen
 606      E7800000 
 607              	.LVL65:
 608 011a 2A8A     		mv	s4,a0
  57:C:/Users/stapi/OneDrive/Desktop/GD32VW553/V1_MQTT_OK/GD32VW55X_Wifi_BLE_SDK/GD32VW55x_RELEASE_V1.0.2/MSDK/cloud/alicloud/src/services/linkkit/dm\dm_cota.c **** 
 609              		.loc 1 57 19
 610 011c 2285     		mv	a0,s0
 611 011e 97000000 		call	strlen
 611      E7800000 
 612              	.LVL66:
 613 0126 2A84     		mv	s0,a0
  57:C:/Users/stapi/OneDrive/Desktop/GD32VW553/V1_MQTT_OK/GD32VW55X_Wifi_BLE_SDK/GD32VW55x_RELEASE_V1.0.2/MSDK/cloud/alicloud/src/services/linkkit/dm\dm_cota.c **** 
 614              		.loc 1 57 68
 615 0128 D294     		add	s1,s1,s4
  57:C:/Users/stapi/OneDrive/Desktop/GD32VW553/V1_MQTT_OK/GD32VW55X_Wifi_BLE_SDK/GD32VW55x_RELEASE_V1.0.2/MSDK/cloud/alicloud/src/services/linkkit/dm\dm_cota.c **** 
 616              		.loc 1 57 34
 617 012a 4A85     		mv	a0,s2
 618 012c 97000000 		call	strlen
 618      E7800000 
 619              	.LVL67:
  57:C:/Users/stapi/OneDrive/Desktop/GD32VW553/V1_MQTT_OK/GD32VW55X_Wifi_BLE_SDK/GD32VW55x_RELEASE_V1.0.2/MSDK/cloud/alicloud/src/services/linkkit/dm\dm_cota.c **** 
 620              		.loc 1 57 68
 621 0134 93844406 		addi	s1,s1,100
  57:C:/Users/stapi/OneDrive/Desktop/GD32VW553/V1_MQTT_OK/GD32VW55X_Wifi_BLE_SDK/GD32VW55x_RELEASE_V1.0.2/MSDK/cloud/alicloud/src/services/linkkit/dm\dm_cota.c **** 
 622              		.loc 1 57 34
 623 0138 2A89     		mv	s2,a0
  57:C:/Users/stapi/OneDrive/Desktop/GD32VW553/V1_MQTT_OK/GD32VW55X_Wifi_BLE_SDK/GD32VW55x_RELEASE_V1.0.2/MSDK/cloud/alicloud/src/services/linkkit/dm\dm_cota.c **** 
 624              		.loc 1 57 68
 625 013a 2694     		add	s0,s1,s0
  57:C:/Users/stapi/OneDrive/Desktop/GD32VW553/V1_MQTT_OK/GD32VW55X_Wifi_BLE_SDK/GD32VW55x_RELEASE_V1.0.2/MSDK/cloud/alicloud/src/services/linkkit/dm\dm_cota.c **** 
 626              		.loc 1 57 56
 627 013c 5685     		mv	a0,s5
 628 013e 97000000 		call	strlen
 628      E7800000 
 629              	.LVL68:
  57:C:/Users/stapi/OneDrive/Desktop/GD32VW553/V1_MQTT_OK/GD32VW55X_Wifi_BLE_SDK/GD32VW55x_RELEASE_V1.0.2/MSDK/cloud/alicloud/src/services/linkkit/dm\dm_cota.c **** 
 630              		.loc 1 57 68
 631 0146 4A94     		add	s0,s0,s2
 632 0148 2A94     		add	s0,s0,a0
 633              	.LVL69:
  59:C:/Users/stapi/OneDrive/Desktop/GD32VW553/V1_MQTT_OK/GD32VW55X_Wifi_BLE_SDK/GD32VW55x_RELEASE_V1.0.2/MSDK/cloud/alicloud/src/services/linkkit/dm\dm_cota.c ****     if (message == NULL) {
 634              		.loc 1 59 5 is_stmt 1
  59:C:/Users/stapi/OneDrive/Desktop/GD32VW553/V1_MQTT_OK/GD32VW55X_Wifi_BLE_SDK/GD32VW55x_RELEASE_V1.0.2/MSDK/cloud/alicloud/src/services/linkkit/dm\dm_cota.c ****     if (message == NULL) {
 635              		.loc 1 59 15 is_stmt 0
 636 014a 2286     		mv	a2,s0
 637 014c 8145     		li	a1,0
 638 014e 0145     		li	a0,0
 639 0150 97000000 		call	LITE_malloc_internal
 639      E7800000 
 640              	.LVL70:
 641 0158 2A89     		mv	s2,a0
 642              	.LVL71:
  60:C:/Users/stapi/OneDrive/Desktop/GD32VW553/V1_MQTT_OK/GD32VW55X_Wifi_BLE_SDK/GD32VW55x_RELEASE_V1.0.2/MSDK/cloud/alicloud/src/services/linkkit/dm\dm_cota.c ****         res = DM_MEMORY_NOT_ENOUGH;
 643              		.loc 1 60 5 is_stmt 1
  61:C:/Users/stapi/OneDrive/Desktop/GD32VW553/V1_MQTT_OK/GD32VW55X_Wifi_BLE_SDK/GD32VW55x_RELEASE_V1.0.2/MSDK/cloud/alicloud/src/services/linkkit/dm\dm_cota.c ****         goto ERROR;
 644              		.loc 1 61 13 is_stmt 0
 645 015a F554     		li	s1,-3
  60:C:/Users/stapi/OneDrive/Desktop/GD32VW553/V1_MQTT_OK/GD32VW55X_Wifi_BLE_SDK/GD32VW55x_RELEASE_V1.0.2/MSDK/cloud/alicloud/src/services/linkkit/dm\dm_cota.c ****         res = DM_MEMORY_NOT_ENOUGH;
 646              		.loc 1 60 8
 647 015c 41C1     		beq	a0,zero,.L35
  64:C:/Users/stapi/OneDrive/Desktop/GD32VW553/V1_MQTT_OK/GD32VW55X_Wifi_BLE_SDK/GD32VW55x_RELEASE_V1.0.2/MSDK/cloud/alicloud/src/services/linkkit/dm\dm_cota.c ****     HAL_Snprintf(message, message_len, cota_new_config_fmt, config_id, config_size, get_type, sign,
 648              		.loc 1 64 5 is_stmt 1
 649 015e 2286     		mv	a2,s0
 650 0160 8145     		li	a1,0
 651 0162 97000000 		call	memset
 651      E7800000 
 652              	.LVL72:
  65:C:/Users/stapi/OneDrive/Desktop/GD32VW553/V1_MQTT_OK/GD32VW55X_Wifi_BLE_SDK/GD32VW55x_RELEASE_V1.0.2/MSDK/cloud/alicloud/src/services/linkkit/dm\dm_cota.c **** 
 653              		.loc 1 65 5
 654 016a A257     		lw	a5,40(sp)
 655 016c 9258     		lw	a7,36(sp)
 656 016e 0258     		lw	a6,32(sp)
 657 0170 6247     		lw	a4,24(sp)
 658 0172 F246     		lw	a3,28(sp)
 659 0174 3EC0     		sw	a5,0(sp)
 660 0176 B257     		lw	a5,44(sp)
 661 0178 37060000 		lui	a2,%hi(.LC2)
 662 017c 13060600 		addi	a2,a2,%lo(.LC2)
 663 0180 A285     		mv	a1,s0
 664 0182 4A85     		mv	a0,s2
 665 0184 97000000 		call	HAL_Snprintf
 665      E7800000 
 666              	.LVL73:
  67:C:/Users/stapi/OneDrive/Desktop/GD32VW553/V1_MQTT_OK/GD32VW55X_Wifi_BLE_SDK/GD32VW55x_RELEASE_V1.0.2/MSDK/cloud/alicloud/src/services/linkkit/dm\dm_cota.c **** 
 667              		.loc 1 67 5
  67:C:/Users/stapi/OneDrive/Desktop/GD32VW553/V1_MQTT_OK/GD32VW55X_Wifi_BLE_SDK/GD32VW55x_RELEASE_V1.0.2/MSDK/cloud/alicloud/src/services/linkkit/dm\dm_cota.c **** 
 668              		.loc 1 67 5
 669 018c 37050000 		lui	a0,%hi(.LC3)
 670 0190 13050500 		addi	a0,a0,%lo(.LC3)
 671 0194 97000000 		call	HAL_Printf
 671      E7800000 
 672              	.LVL74:
  67:C:/Users/stapi/OneDrive/Desktop/GD32VW553/V1_MQTT_OK/GD32VW55X_Wifi_BLE_SDK/GD32VW55x_RELEASE_V1.0.2/MSDK/cloud/alicloud/src/services/linkkit/dm\dm_cota.c **** 
 673              		.loc 1 67 5
 674 019c 37050000 		lui	a0,%hi(.LC4)
 675 01a0 CA85     		mv	a1,s2
 676 01a2 13050500 		addi	a0,a0,%lo(.LC4)
 677 01a6 97000000 		call	HAL_Printf
 677      E7800000 
 678              	.LVL75:
  67:C:/Users/stapi/OneDrive/Desktop/GD32VW553/V1_MQTT_OK/GD32VW55X_Wifi_BLE_SDK/GD32VW55x_RELEASE_V1.0.2/MSDK/cloud/alicloud/src/services/linkkit/dm\dm_cota.c **** 
 679              		.loc 1 67 5
 680 01ae 37050000 		lui	a0,%hi(.LC5)
 681 01b2 13050500 		addi	a0,a0,%lo(.LC5)
 682 01b6 97000000 		call	HAL_Printf
 682      E7800000 
 683              	.LVL76:
  67:C:/Users/stapi/OneDrive/Desktop/GD32VW553/V1_MQTT_OK/GD32VW55X_Wifi_BLE_SDK/GD32VW55x_RELEASE_V1.0.2/MSDK/cloud/alicloud/src/services/linkkit/dm\dm_cota.c **** 
 684              		.loc 1 67 5
  69:C:/Users/stapi/OneDrive/Desktop/GD32VW553/V1_MQTT_OK/GD32VW55X_Wifi_BLE_SDK/GD32VW55x_RELEASE_V1.0.2/MSDK/cloud/alicloud/src/services/linkkit/dm\dm_cota.c ****     if (res != SUCCESS_RETURN) {
 685              		.loc 1 69 5
  69:C:/Users/stapi/OneDrive/Desktop/GD32VW553/V1_MQTT_OK/GD32VW55X_Wifi_BLE_SDK/GD32VW55x_RELEASE_V1.0.2/MSDK/cloud/alicloud/src/services/linkkit/dm\dm_cota.c ****     if (res != SUCCESS_RETURN) {
 686              		.loc 1 69 11 is_stmt 0
 687 01be CA85     		mv	a1,s2
 688 01c0 1305B002 		li	a0,43
 689 01c4 97000000 		call	_dm_msg_send_to_user
 689      E7800000 
 690              	.LVL77:
 691 01cc AA84     		mv	s1,a0
 692              	.LVL78:
  70:C:/Users/stapi/OneDrive/Desktop/GD32VW553/V1_MQTT_OK/GD32VW55X_Wifi_BLE_SDK/GD32VW55x_RELEASE_V1.0.2/MSDK/cloud/alicloud/src/services/linkkit/dm\dm_cota.c ****         if (message) {
 693              		.loc 1 70 5 is_stmt 1
  70:C:/Users/stapi/OneDrive/Desktop/GD32VW553/V1_MQTT_OK/GD32VW55X_Wifi_BLE_SDK/GD32VW55x_RELEASE_V1.0.2/MSDK/cloud/alicloud/src/services/linkkit/dm\dm_cota.c ****         if (message) {
 694              		.loc 1 70 8 is_stmt 0
 695 01ce 19C5     		beq	a0,zero,.L35
  71:C:/Users/stapi/OneDrive/Desktop/GD32VW553/V1_MQTT_OK/GD32VW55X_Wifi_BLE_SDK/GD32VW55x_RELEASE_V1.0.2/MSDK/cloud/alicloud/src/services/linkkit/dm\dm_cota.c ****             DM_free(message);
 696              		.loc 1 71 9 is_stmt 1
  72:C:/Users/stapi/OneDrive/Desktop/GD32VW553/V1_MQTT_OK/GD32VW55X_Wifi_BLE_SDK/GD32VW55x_RELEASE_V1.0.2/MSDK/cloud/alicloud/src/services/linkkit/dm\dm_cota.c ****         }
 697              		.loc 1 72 13
 698 01d0 4A85     		mv	a0,s2
 699 01d2 97000000 		call	LITE_free_internal
 699      E7800000 
 700              	.LVL79:
  72:C:/Users/stapi/OneDrive/Desktop/GD32VW553/V1_MQTT_OK/GD32VW55X_Wifi_BLE_SDK/GD32VW55x_RELEASE_V1.0.2/MSDK/cloud/alicloud/src/services/linkkit/dm\dm_cota.c ****         }
 701              		.loc 1 72 13
  72:C:/Users/stapi/OneDrive/Desktop/GD32VW553/V1_MQTT_OK/GD32VW55X_Wifi_BLE_SDK/GD32VW55x_RELEASE_V1.0.2/MSDK/cloud/alicloud/src/services/linkkit/dm\dm_cota.c ****         }
 702              		.loc 1 72 29
  74:C:/Users/stapi/OneDrive/Desktop/GD32VW553/V1_MQTT_OK/GD32VW55X_Wifi_BLE_SDK/GD32VW55x_RELEASE_V1.0.2/MSDK/cloud/alicloud/src/services/linkkit/dm\dm_cota.c ****         goto ERROR;
 703              		.loc 1 74 9
  75:C:/Users/stapi/OneDrive/Desktop/GD32VW553/V1_MQTT_OK/GD32VW55X_Wifi_BLE_SDK/GD32VW55x_RELEASE_V1.0.2/MSDK/cloud/alicloud/src/services/linkkit/dm\dm_cota.c ****     }
 704              		.loc 1 75 9
  74:C:/Users/stapi/OneDrive/Desktop/GD32VW553/V1_MQTT_OK/GD32VW55X_Wifi_BLE_SDK/GD32VW55x_RELEASE_V1.0.2/MSDK/cloud/alicloud/src/services/linkkit/dm\dm_cota.c ****         goto ERROR;
 705              		.loc 1 74 13 is_stmt 0
 706 01da FD54     		li	s1,-1
 707              	.LVL80:
 708              	.L35:
  80:C:/Users/stapi/OneDrive/Desktop/GD32VW553/V1_MQTT_OK/GD32VW55X_Wifi_BLE_SDK/GD32VW55x_RELEASE_V1.0.2/MSDK/cloud/alicloud/src/services/linkkit/dm\dm_cota.c ****         DM_COTA_FREE(config_id);
 709              		.loc 1 80 5 is_stmt 1
  80:C:/Users/stapi/OneDrive/Desktop/GD32VW553/V1_MQTT_OK/GD32VW55X_Wifi_BLE_SDK/GD32VW55x_RELEASE_V1.0.2/MSDK/cloud/alicloud/src/services/linkkit/dm\dm_cota.c ****         DM_COTA_FREE(config_id);
 710              		.loc 1 80 9 is_stmt 0
 711 01dc 7245     		lw	a0,28(sp)
  80:C:/Users/stapi/OneDrive/Desktop/GD32VW553/V1_MQTT_OK/GD32VW55X_Wifi_BLE_SDK/GD32VW55x_RELEASE_V1.0.2/MSDK/cloud/alicloud/src/services/linkkit/dm\dm_cota.c ****         DM_COTA_FREE(config_id);
 712              		.loc 1 80 8
 713 01de 09C5     		beq	a0,zero,.L36
  81:C:/Users/stapi/OneDrive/Desktop/GD32VW553/V1_MQTT_OK/GD32VW55X_Wifi_BLE_SDK/GD32VW55x_RELEASE_V1.0.2/MSDK/cloud/alicloud/src/services/linkkit/dm\dm_cota.c ****     }
 714              		.loc 1 81 9 is_stmt 1
 715 01e0 97000000 		call	LITE_free_internal
 715      E7800000 
 716              	.LVL81:
 717              	.L36:
  83:C:/Users/stapi/OneDrive/Desktop/GD32VW553/V1_MQTT_OK/GD32VW55X_Wifi_BLE_SDK/GD32VW55x_RELEASE_V1.0.2/MSDK/cloud/alicloud/src/services/linkkit/dm\dm_cota.c ****         DM_COTA_FREE(sign);
 718              		.loc 1 83 5
  83:C:/Users/stapi/OneDrive/Desktop/GD32VW553/V1_MQTT_OK/GD32VW55X_Wifi_BLE_SDK/GD32VW55x_RELEASE_V1.0.2/MSDK/cloud/alicloud/src/services/linkkit/dm\dm_cota.c ****         DM_COTA_FREE(sign);
 719              		.loc 1 83 9 is_stmt 0
 720 01e8 0255     		lw	a0,32(sp)
  83:C:/Users/stapi/OneDrive/Desktop/GD32VW553/V1_MQTT_OK/GD32VW55X_Wifi_BLE_SDK/GD32VW55x_RELEASE_V1.0.2/MSDK/cloud/alicloud/src/services/linkkit/dm\dm_cota.c ****         DM_COTA_FREE(sign);
 721              		.loc 1 83 8
 722 01ea 09C5     		beq	a0,zero,.L37
  84:C:/Users/stapi/OneDrive/Desktop/GD32VW553/V1_MQTT_OK/GD32VW55X_Wifi_BLE_SDK/GD32VW55x_RELEASE_V1.0.2/MSDK/cloud/alicloud/src/services/linkkit/dm\dm_cota.c ****     }
 723              		.loc 1 84 9 is_stmt 1
 724 01ec 97000000 		call	LITE_free_internal
 724      E7800000 
 725              	.LVL82:
 726              	.L37:
  86:C:/Users/stapi/OneDrive/Desktop/GD32VW553/V1_MQTT_OK/GD32VW55X_Wifi_BLE_SDK/GD32VW55x_RELEASE_V1.0.2/MSDK/cloud/alicloud/src/services/linkkit/dm\dm_cota.c ****         DM_COTA_FREE(sign_method);
 727              		.loc 1 86 5
  86:C:/Users/stapi/OneDrive/Desktop/GD32VW553/V1_MQTT_OK/GD32VW55X_Wifi_BLE_SDK/GD32VW55x_RELEASE_V1.0.2/MSDK/cloud/alicloud/src/services/linkkit/dm\dm_cota.c ****         DM_COTA_FREE(sign_method);
 728              		.loc 1 86 9 is_stmt 0
 729 01f4 1255     		lw	a0,36(sp)
  86:C:/Users/stapi/OneDrive/Desktop/GD32VW553/V1_MQTT_OK/GD32VW55X_Wifi_BLE_SDK/GD32VW55x_RELEASE_V1.0.2/MSDK/cloud/alicloud/src/services/linkkit/dm\dm_cota.c ****         DM_COTA_FREE(sign_method);
 730              		.loc 1 86 8
 731 01f6 09C5     		beq	a0,zero,.L38
  87:C:/Users/stapi/OneDrive/Desktop/GD32VW553/V1_MQTT_OK/GD32VW55X_Wifi_BLE_SDK/GD32VW55x_RELEASE_V1.0.2/MSDK/cloud/alicloud/src/services/linkkit/dm\dm_cota.c ****     }
 732              		.loc 1 87 9 is_stmt 1
 733 01f8 97000000 		call	LITE_free_internal
 733      E7800000 
 734              	.LVL83:
 735              	.L38:
  89:C:/Users/stapi/OneDrive/Desktop/GD32VW553/V1_MQTT_OK/GD32VW55X_Wifi_BLE_SDK/GD32VW55x_RELEASE_V1.0.2/MSDK/cloud/alicloud/src/services/linkkit/dm\dm_cota.c ****         DM_COTA_FREE(url);
 736              		.loc 1 89 5
  89:C:/Users/stapi/OneDrive/Desktop/GD32VW553/V1_MQTT_OK/GD32VW55X_Wifi_BLE_SDK/GD32VW55x_RELEASE_V1.0.2/MSDK/cloud/alicloud/src/services/linkkit/dm\dm_cota.c ****         DM_COTA_FREE(url);
 737              		.loc 1 89 9 is_stmt 0
 738 0200 2255     		lw	a0,40(sp)
  89:C:/Users/stapi/OneDrive/Desktop/GD32VW553/V1_MQTT_OK/GD32VW55X_Wifi_BLE_SDK/GD32VW55x_RELEASE_V1.0.2/MSDK/cloud/alicloud/src/services/linkkit/dm\dm_cota.c ****         DM_COTA_FREE(url);
 739              		.loc 1 89 8
 740 0202 09C5     		beq	a0,zero,.L39
  90:C:/Users/stapi/OneDrive/Desktop/GD32VW553/V1_MQTT_OK/GD32VW55X_Wifi_BLE_SDK/GD32VW55x_RELEASE_V1.0.2/MSDK/cloud/alicloud/src/services/linkkit/dm\dm_cota.c ****     }
 741              		.loc 1 90 9 is_stmt 1
 742 0204 97000000 		call	LITE_free_internal
 742      E7800000 
 743              	.LVL84:
 744              	.L39:
  92:C:/Users/stapi/OneDrive/Desktop/GD32VW553/V1_MQTT_OK/GD32VW55X_Wifi_BLE_SDK/GD32VW55x_RELEASE_V1.0.2/MSDK/cloud/alicloud/src/services/linkkit/dm\dm_cota.c ****         DM_COTA_FREE(get_type);
 745              		.loc 1 92 5
  92:C:/Users/stapi/OneDrive/Desktop/GD32VW553/V1_MQTT_OK/GD32VW55X_Wifi_BLE_SDK/GD32VW55x_RELEASE_V1.0.2/MSDK/cloud/alicloud/src/services/linkkit/dm\dm_cota.c ****         DM_COTA_FREE(get_type);
 746              		.loc 1 92 9 is_stmt 0
 747 020c 3255     		lw	a0,44(sp)
  92:C:/Users/stapi/OneDrive/Desktop/GD32VW553/V1_MQTT_OK/GD32VW55X_Wifi_BLE_SDK/GD32VW55x_RELEASE_V1.0.2/MSDK/cloud/alicloud/src/services/linkkit/dm\dm_cota.c ****         DM_COTA_FREE(get_type);
 748              		.loc 1 92 8
 749 020e 09C5     		beq	a0,zero,.L40
  93:C:/Users/stapi/OneDrive/Desktop/GD32VW553/V1_MQTT_OK/GD32VW55X_Wifi_BLE_SDK/GD32VW55x_RELEASE_V1.0.2/MSDK/cloud/alicloud/src/services/linkkit/dm\dm_cota.c ****     }
 750              		.loc 1 93 9 is_stmt 1
 751 0210 97000000 		call	LITE_free_internal
 751      E7800000 
 752              	.LVL85:
 753              	.L40:
  96:C:/Users/stapi/OneDrive/Desktop/GD32VW553/V1_MQTT_OK/GD32VW55X_Wifi_BLE_SDK/GD32VW55x_RELEASE_V1.0.2/MSDK/cloud/alicloud/src/services/linkkit/dm\dm_cota.c **** }
 754              		.loc 1 96 5
 755              	.LBE18:
 756              	.LBE17:
 220:C:/Users/stapi/OneDrive/Desktop/GD32VW553/V1_MQTT_OK/GD32VW55X_Wifi_BLE_SDK/GD32VW55x_RELEASE_V1.0.2/MSDK/cloud/alicloud/src/services/linkkit/dm\dm_cota.c ****                 if (res == SUCCESS_RETURN) {
 757              		.loc 1 220 17
 758              		.loc 1 220 20 is_stmt 0
 759 0218 81E4     		bne	s1,zero,.L33
 221:C:/Users/stapi/OneDrive/Desktop/GD32VW553/V1_MQTT_OK/GD32VW55X_Wifi_BLE_SDK/GD32VW55x_RELEASE_V1.0.2/MSDK/cloud/alicloud/src/services/linkkit/dm\dm_cota.c ****                     ctx->is_report_new_config = 1;
 760              		.loc 1 221 21 is_stmt 1
 761              		.loc 1 221 47 is_stmt 0
 762 021a 8547     		li	a5,1
 763 021c 23A0F900 		sw	a5,0(s3)
 764              	.LVL86:
 765              	.L33:
 766              	.LBE16:
 222:C:/Users/stapi/OneDrive/Desktop/GD32VW553/V1_MQTT_OK/GD32VW55X_Wifi_BLE_SDK/GD32VW55x_RELEASE_V1.0.2/MSDK/cloud/alicloud/src/services/linkkit/dm\dm_cota.c ****                 }
 223:C:/Users/stapi/OneDrive/Desktop/GD32VW553/V1_MQTT_OK/GD32VW55X_Wifi_BLE_SDK/GD32VW55x_RELEASE_V1.0.2/MSDK/cloud/alicloud/src/services/linkkit/dm\dm_cota.c ****             }
 224:C:/Users/stapi/OneDrive/Desktop/GD32VW553/V1_MQTT_OK/GD32VW55X_Wifi_BLE_SDK/GD32VW55x_RELEASE_V1.0.2/MSDK/cloud/alicloud/src/services/linkkit/dm\dm_cota.c ****         }
 225:C:/Users/stapi/OneDrive/Desktop/GD32VW553/V1_MQTT_OK/GD32VW55X_Wifi_BLE_SDK/GD32VW55x_RELEASE_V1.0.2/MSDK/cloud/alicloud/src/services/linkkit/dm\dm_cota.c ****     }
 226:C:/Users/stapi/OneDrive/Desktop/GD32VW553/V1_MQTT_OK/GD32VW55X_Wifi_BLE_SDK/GD32VW55x_RELEASE_V1.0.2/MSDK/cloud/alicloud/src/services/linkkit/dm\dm_cota.c **** 
 227:C:/Users/stapi/OneDrive/Desktop/GD32VW553/V1_MQTT_OK/GD32VW55X_Wifi_BLE_SDK/GD32VW55x_RELEASE_V1.0.2/MSDK/cloud/alicloud/src/services/linkkit/dm\dm_cota.c ****     return SUCCESS_RETURN;
 767              		.loc 1 227 12
 768 0220 0145     		li	a0,0
 769              	.L30:
 228:C:/Users/stapi/OneDrive/Desktop/GD32VW553/V1_MQTT_OK/GD32VW55X_Wifi_BLE_SDK/GD32VW55x_RELEASE_V1.0.2/MSDK/cloud/alicloud/src/services/linkkit/dm\dm_cota.c **** }
 770              		.loc 1 228 1
 771 0222 4561     		addi	sp,sp,48
 772              		.cfi_def_cfa_offset 0
 773 0224 17030000 		tail	__riscv_restore_6
 773      67000300 
 774              		.cfi_restore 21
 775              		.cfi_restore 20
 776              		.cfi_restore 19
 777              		.cfi_restore 18
 778              		.cfi_restore 9
 779              		.cfi_restore 8
 780              		.cfi_restore 1
 781              		.cfi_def_cfa_offset -32
 782              		.cfi_endproc
 783              	.LFE26:
 785              		.section	.rodata.__FUNCTION__.0,"a"
 786              		.align	2
 787              		.set	.LANCHOR1,. + 0
 790              	__FUNCTION__.0:
 791 0000 646D5F63 		.string	"dm_cota_status_check"
 791      6F74615F 
 791      73746174 
 791      75735F63 
 791      6865636B 
 792              		.section	.sbss.g_dm_cota_ctx,"aw",@nobits
 793              		.align	2
 794              		.set	.LANCHOR0,. + 0
 797              	g_dm_cota_ctx:
 798 0000 00000000 		.zero	4
 799              		.text
 800              	.Letext0:
 801              		.file 2 "c:\\users\\stapi\\onedrive\\desktop\\gd32vw553\\embeddedbuilder_v1.4.7.26843\\tools\\nucl
 802              		.file 3 "c:\\users\\stapi\\onedrive\\desktop\\gd32vw553\\embeddedbuilder_v1.4.7.26843\\tools\\nucl
 803              		.file 4 "..\\..\\..\\..\\cloud\\alicloud\\include/exports/iot_export_ota.h"
 804              		.file 5 "C:/Users/stapi/OneDrive/Desktop/GD32VW553/V1_MQTT_OK/GD32VW55X_Wifi_BLE_SDK/GD32VW55x_REL
 805              		.file 6 "C:/Users/stapi/OneDrive/Desktop/GD32VW553/V1_MQTT_OK/GD32VW55X_Wifi_BLE_SDK/GD32VW55x_REL
 806              		.file 7 "c:\\users\\stapi\\onedrive\\desktop\\gd32vw553\\embeddedbuilder_v1.4.7.26843\\tools\\nucl
 807              		.file 8 "..\\..\\..\\..\\cloud\\alicloud\\src\\infra\\utils/iotx_utils.h"
 808              		.file 9 "..\\..\\..\\..\\cloud\\alicloud\\include/iot_import.h"
 809              		.file 10 "C:/Users/stapi/OneDrive/Desktop/GD32VW553/V1_MQTT_OK/GD32VW55X_Wifi_BLE_SDK/GD32VW55x_RE
 810              		.file 11 "..\\..\\..\\..\\cloud\\alicloud\\src\\infra\\log/iotx_log.h"
 811              		.file 12 "C:/Users/stapi/OneDrive/Desktop/GD32VW553/V1_MQTT_OK/GD32VW55X_Wifi_BLE_SDK/GD32VW55x_RE
 812              		.file 13 "..\\..\\..\\..\\cloud\\alicloud\\src\\services\\ota/iotx_ota.h"
 813              		.file 14 "..\\..\\..\\..\\cloud\\alicloud\\include/imports/iot_import_ota.h"
 814              		.file 15 "..\\..\\..\\..\\cloud\\alicloud\\include/exports/iot_export_errno.h"
 815              		.file 16 "<built-in>"
DEFINED SYMBOLS
                            *ABS*:0000000000000000 dm_cota.c
C:\Users\stapi\AppData\Local\Temp\ccOlTTki.s:13     .text.dm_cota_init:0000000000000000 dm_cota_init
C:\Users\stapi\AppData\Local\Temp\ccOlTTki.s:17     .text.dm_cota_init:0000000000000000 .L0 
C:\Users\stapi\AppData\Local\Temp\ccOlTTki.s:18     .text.dm_cota_init:0000000000000000 .L0 
C:\Users\stapi\AppData\Local\Temp\ccOlTTki.s:19     .text.dm_cota_init:0000000000000000 .L0 
C:\Users\stapi\AppData\Local\Temp\ccOlTTki.s:21     .text.dm_cota_init:0000000000000000 .L0 
C:\Users\stapi\AppData\Local\Temp\ccOlTTki.s:22     .text.dm_cota_init:0000000000000000 .L0 
C:\Users\stapi\AppData\Local\Temp\ccOlTTki.s:25     .text.dm_cota_init:0000000000000008 .L0 
C:\Users\stapi\AppData\Local\Temp\ccOlTTki.s:26     .text.dm_cota_init:0000000000000008 .L0 
C:\Users\stapi\AppData\Local\Temp\ccOlTTki.s:28     .text.dm_cota_init:000000000000000c .L0 
C:\Users\stapi\AppData\Local\Temp\ccOlTTki.s:35     .text.dm_cota_deinit:0000000000000000 dm_cota_deinit
C:\Users\stapi\AppData\Local\Temp\ccOlTTki.s:37     .text.dm_cota_deinit:0000000000000000 .L0 
C:\Users\stapi\AppData\Local\Temp\ccOlTTki.s:39     .text.dm_cota_deinit:0000000000000008 .L0 
C:\Users\stapi\AppData\Local\Temp\ccOlTTki.s:46     .text.dm_cota_perform_sync:0000000000000000 dm_cota_perform_sync
C:\Users\stapi\AppData\Local\Temp\ccOlTTki.s:49     .text.dm_cota_perform_sync:0000000000000000 .L0 
C:\Users\stapi\AppData\Local\Temp\ccOlTTki.s:51     .text.dm_cota_perform_sync:0000000000000000 .L0 
C:\Users\stapi\AppData\Local\Temp\ccOlTTki.s:52     .text.dm_cota_perform_sync:0000000000000000 .L0 
C:\Users\stapi\AppData\Local\Temp\ccOlTTki.s:53     .text.dm_cota_perform_sync:0000000000000008 .L0 
C:\Users\stapi\AppData\Local\Temp\ccOlTTki.s:54     .text.dm_cota_perform_sync:0000000000000008 .L0 
C:\Users\stapi\AppData\Local\Temp\ccOlTTki.s:55     .text.dm_cota_perform_sync:0000000000000008 .L0 
C:\Users\stapi\AppData\Local\Temp\ccOlTTki.s:56     .text.dm_cota_perform_sync:0000000000000008 .L0 
C:\Users\stapi\AppData\Local\Temp\ccOlTTki.s:57     .text.dm_cota_perform_sync:0000000000000008 .L0 
C:\Users\stapi\AppData\Local\Temp\ccOlTTki.s:58     .text.dm_cota_perform_sync:0000000000000008 .L0 
C:\Users\stapi\AppData\Local\Temp\ccOlTTki.s:59     .text.dm_cota_perform_sync:0000000000000008 .L0 
C:\Users\stapi\AppData\Local\Temp\ccOlTTki.s:60     .text.dm_cota_perform_sync:0000000000000008 .L0 
C:\Users\stapi\AppData\Local\Temp\ccOlTTki.s:61     .text.dm_cota_perform_sync:0000000000000008 .L0 
C:\Users\stapi\AppData\Local\Temp\ccOlTTki.s:62     .text.dm_cota_perform_sync:0000000000000008 .L0 
C:\Users\stapi\AppData\Local\Temp\ccOlTTki.s:63     .text.dm_cota_perform_sync:0000000000000008 .L0 
C:\Users\stapi\AppData\Local\Temp\ccOlTTki.s:64     .text.dm_cota_perform_sync:0000000000000008 .L0 
C:\Users\stapi\AppData\Local\Temp\ccOlTTki.s:65     .text.dm_cota_perform_sync:0000000000000008 .L0 
C:\Users\stapi\AppData\Local\Temp\ccOlTTki.s:66     .text.dm_cota_perform_sync:0000000000000008 .L0 
C:\Users\stapi\AppData\Local\Temp\ccOlTTki.s:69     .text.dm_cota_perform_sync:0000000000000008 .L0 
C:\Users\stapi\AppData\Local\Temp\ccOlTTki.s:70     .text.dm_cota_perform_sync:0000000000000008 .L0 
C:\Users\stapi\AppData\Local\Temp\ccOlTTki.s:71     .text.dm_cota_perform_sync:0000000000000008 .L0 
C:\Users\stapi\AppData\Local\Temp\ccOlTTki.s:72     .text.dm_cota_perform_sync:000000000000000a .L0 
C:\Users\stapi\AppData\Local\Temp\ccOlTTki.s:74     .text.dm_cota_perform_sync:000000000000000a .L0 
C:\Users\stapi\AppData\Local\Temp\ccOlTTki.s:76     .text.dm_cota_perform_sync:000000000000000c .L0 
C:\Users\stapi\AppData\Local\Temp\ccOlTTki.s:79     .text.dm_cota_perform_sync:000000000000000e .L0 
C:\Users\stapi\AppData\Local\Temp\ccOlTTki.s:80     .text.dm_cota_perform_sync:000000000000000e .L0 
C:\Users\stapi\AppData\Local\Temp\ccOlTTki.s:81     .text.dm_cota_perform_sync:000000000000000e .L0 
C:\Users\stapi\AppData\Local\Temp\ccOlTTki.s:82     .text.dm_cota_perform_sync:000000000000000e .L0 
C:\Users\stapi\AppData\Local\Temp\ccOlTTki.s:83     .text.dm_cota_perform_sync:000000000000000e .L0 
C:\Users\stapi\AppData\Local\Temp\ccOlTTki.s:84     .text.dm_cota_perform_sync:000000000000000e .L0 
C:\Users\stapi\AppData\Local\Temp\ccOlTTki.s:86     .text.dm_cota_perform_sync:0000000000000010 .L0 
C:\Users\stapi\AppData\Local\Temp\ccOlTTki.s:87     .text.dm_cota_perform_sync:0000000000000010 .L0 
C:\Users\stapi\AppData\Local\Temp\ccOlTTki.s:89     .text.dm_cota_perform_sync:0000000000000012 .L0 
C:\Users\stapi\AppData\Local\Temp\ccOlTTki.s:90     .text.dm_cota_perform_sync:0000000000000012 .L0 
C:\Users\stapi\AppData\Local\Temp\ccOlTTki.s:92     .text.dm_cota_perform_sync:0000000000000014 .L0 
C:\Users\stapi\AppData\Local\Temp\ccOlTTki.s:95     .text.dm_cota_perform_sync:0000000000000018 .L0 
C:\Users\stapi\AppData\Local\Temp\ccOlTTki.s:97     .text.dm_cota_perform_sync:000000000000001a .L0 
C:\Users\stapi\AppData\Local\Temp\ccOlTTki.s:100    .text.dm_cota_perform_sync:0000000000000020 .L0 
C:\Users\stapi\AppData\Local\Temp\ccOlTTki.s:101    .text.dm_cota_perform_sync:0000000000000020 .L0 
C:\Users\stapi\AppData\Local\Temp\ccOlTTki.s:108    .text.dm_cota_perform_sync:000000000000002c .L0 
C:\Users\stapi\AppData\Local\Temp\ccOlTTki.s:109    .text.dm_cota_perform_sync:000000000000002c .L0 
C:\Users\stapi\AppData\Local\Temp\ccOlTTki.s:113    .text.dm_cota_perform_sync:000000000000002e .L0 
C:\Users\stapi\AppData\Local\Temp\ccOlTTki.s:114    .text.dm_cota_perform_sync:000000000000002e .L0 
C:\Users\stapi\AppData\Local\Temp\ccOlTTki.s:118    .text.dm_cota_perform_sync:0000000000000030 .L0 
C:\Users\stapi\AppData\Local\Temp\ccOlTTki.s:120    .text.dm_cota_perform_sync:0000000000000034 .L0 
C:\Users\stapi\AppData\Local\Temp\ccOlTTki.s:121    .text.dm_cota_perform_sync:0000000000000034 .L0 
C:\Users\stapi\AppData\Local\Temp\ccOlTTki.s:123    .text.dm_cota_perform_sync:000000000000003c .L0 
C:\Users\stapi\AppData\Local\Temp\ccOlTTki.s:124    .text.dm_cota_perform_sync:000000000000003c .L0 
C:\Users\stapi\AppData\Local\Temp\ccOlTTki.s:125    .text.dm_cota_perform_sync:000000000000003c .L0 
C:\Users\stapi\AppData\Local\Temp\ccOlTTki.s:126    .text.dm_cota_perform_sync:000000000000003c .L0 
C:\Users\stapi\AppData\Local\Temp\ccOlTTki.s:127    .text.dm_cota_perform_sync:000000000000003c .L0 
C:\Users\stapi\AppData\Local\Temp\ccOlTTki.s:128    .text.dm_cota_perform_sync:000000000000003c .L0 
C:\Users\stapi\AppData\Local\Temp\ccOlTTki.s:129    .text.dm_cota_perform_sync:000000000000003c .L0 
C:\Users\stapi\AppData\Local\Temp\ccOlTTki.s:130    .text.dm_cota_perform_sync:000000000000003c .L0 
C:\Users\stapi\AppData\Local\Temp\ccOlTTki.s:131    .text.dm_cota_perform_sync:000000000000003c .L0 
C:\Users\stapi\AppData\Local\Temp\ccOlTTki.s:132    .text.dm_cota_perform_sync:000000000000003c .L0 
C:\Users\stapi\AppData\Local\Temp\ccOlTTki.s:133    .text.dm_cota_perform_sync:000000000000003c .L0 
C:\Users\stapi\AppData\Local\Temp\ccOlTTki.s:134    .text.dm_cota_perform_sync:000000000000003c .L0 
C:\Users\stapi\AppData\Local\Temp\ccOlTTki.s:135    .text.dm_cota_perform_sync:000000000000003c .L0 
C:\Users\stapi\AppData\Local\Temp\ccOlTTki.s:136    .text.dm_cota_perform_sync:000000000000003c .L0 
C:\Users\stapi\AppData\Local\Temp\ccOlTTki.s:139    .text.dm_cota_perform_sync:000000000000003c .L0 
C:\Users\stapi\AppData\Local\Temp\ccOlTTki.s:141    .text.dm_cota_perform_sync:000000000000003c .L0 
C:\Users\stapi\AppData\Local\Temp\ccOlTTki.s:142    .text.dm_cota_perform_sync:000000000000003c .L0 
C:\Users\stapi\AppData\Local\Temp\ccOlTTki.s:144    .text.dm_cota_perform_sync:000000000000003e .L0 
C:\Users\stapi\AppData\Local\Temp\ccOlTTki.s:146    .text.dm_cota_perform_sync:0000000000000040 .L0 
C:\Users\stapi\AppData\Local\Temp\ccOlTTki.s:152    .text.dm_cota_perform_sync:000000000000004e .L0 
C:\Users\stapi\AppData\Local\Temp\ccOlTTki.s:153    .text.dm_cota_perform_sync:000000000000004e .L0 
C:\Users\stapi\AppData\Local\Temp\ccOlTTki.s:157    .text.dm_cota_perform_sync:0000000000000056 .L0 
C:\Users\stapi\AppData\Local\Temp\ccOlTTki.s:164    .text.dm_cota_perform_sync:0000000000000066 .L0 
C:\Users\stapi\AppData\Local\Temp\ccOlTTki.s:167    .text.dm_cota_perform_sync:000000000000006e .L0 
C:\Users\stapi\AppData\Local\Temp\ccOlTTki.s:170    .text.dm_cota_perform_sync:0000000000000072 .L0 
C:\Users\stapi\AppData\Local\Temp\ccOlTTki.s:172    .text.dm_cota_perform_sync:0000000000000074 .L0 
C:\Users\stapi\AppData\Local\Temp\ccOlTTki.s:174    .text.dm_cota_perform_sync:0000000000000076 .L0 
C:\Users\stapi\AppData\Local\Temp\ccOlTTki.s:176    .text.dm_cota_perform_sync:000000000000007a .L0 
C:\Users\stapi\AppData\Local\Temp\ccOlTTki.s:180    .text.dm_cota_perform_sync:000000000000007e .L0 
C:\Users\stapi\AppData\Local\Temp\ccOlTTki.s:181    .text.dm_cota_perform_sync:000000000000007e .L0 
C:\Users\stapi\AppData\Local\Temp\ccOlTTki.s:182    .text.dm_cota_perform_sync:000000000000007e .L0 
C:\Users\stapi\AppData\Local\Temp\ccOlTTki.s:191    .text.dm_cota_perform_sync:0000000000000090 .L0 
C:\Users\stapi\AppData\Local\Temp\ccOlTTki.s:192    .text.dm_cota_perform_sync:0000000000000090 .L0 
C:\Users\stapi\AppData\Local\Temp\ccOlTTki.s:194    .text.dm_cota_perform_sync:0000000000000094 .L0 
C:\Users\stapi\AppData\Local\Temp\ccOlTTki.s:202    .text.dm_cota_perform_sync:00000000000000a2 .L0 
C:\Users\stapi\AppData\Local\Temp\ccOlTTki.s:205    .text.dm_cota_perform_sync:00000000000000aa .L0 
C:\Users\stapi\AppData\Local\Temp\ccOlTTki.s:206    .text.dm_cota_perform_sync:00000000000000aa .L0 
C:\Users\stapi\AppData\Local\Temp\ccOlTTki.s:212    .text.dm_cota_perform_sync:00000000000000b4 .L0 
C:\Users\stapi\AppData\Local\Temp\ccOlTTki.s:217    .text.dm_cota_perform_sync:00000000000000be .L0 
C:\Users\stapi\AppData\Local\Temp\ccOlTTki.s:224    .text.dm_cota_perform_sync:00000000000000ce .L0 
C:\Users\stapi\AppData\Local\Temp\ccOlTTki.s:231    .text.dm_cota_perform_sync:00000000000000de .L0 
C:\Users\stapi\AppData\Local\Temp\ccOlTTki.s:232    .text.dm_cota_perform_sync:00000000000000de .L0 
C:\Users\stapi\AppData\Local\Temp\ccOlTTki.s:235    .text.dm_cota_perform_sync:00000000000000e4 .L0 
C:\Users\stapi\AppData\Local\Temp\ccOlTTki.s:237    .text.dm_cota_perform_sync:00000000000000e6 .L0 
C:\Users\stapi\AppData\Local\Temp\ccOlTTki.s:239    .text.dm_cota_perform_sync:00000000000000ea .L0 
C:\Users\stapi\AppData\Local\Temp\ccOlTTki.s:242    .text.dm_cota_perform_sync:00000000000000ee .L0 
C:\Users\stapi\AppData\Local\Temp\ccOlTTki.s:243    .text.dm_cota_perform_sync:00000000000000ee .L0 
C:\Users\stapi\AppData\Local\Temp\ccOlTTki.s:249    .text.dm_cota_perform_sync:00000000000000fa .L0 
C:\Users\stapi\AppData\Local\Temp\ccOlTTki.s:259    .text.dm_cota_perform_sync:000000000000010a .L0 
C:\Users\stapi\AppData\Local\Temp\ccOlTTki.s:260    .text.dm_cota_perform_sync:000000000000010a .L0 
C:\Users\stapi\AppData\Local\Temp\ccOlTTki.s:262    .text.dm_cota_perform_sync:000000000000010e .L0 
C:\Users\stapi\AppData\Local\Temp\ccOlTTki.s:264    .text.dm_cota_perform_sync:0000000000000112 .L0 
C:\Users\stapi\AppData\Local\Temp\ccOlTTki.s:268    .text.dm_cota_perform_sync:000000000000011e .L0 
C:\Users\stapi\AppData\Local\Temp\ccOlTTki.s:272    .text.dm_cota_perform_sync:0000000000000126 .L0 
C:\Users\stapi\AppData\Local\Temp\ccOlTTki.s:275    .text.dm_cota_perform_sync:000000000000012a .L0 
C:\Users\stapi\AppData\Local\Temp\ccOlTTki.s:283    .text.dm_cota_perform_sync:0000000000000138 .L0 
C:\Users\stapi\AppData\Local\Temp\ccOlTTki.s:284    .text.dm_cota_perform_sync:0000000000000138 .L0 
C:\Users\stapi\AppData\Local\Temp\ccOlTTki.s:285    .text.dm_cota_perform_sync:0000000000000138 .L0 
C:\Users\stapi\AppData\Local\Temp\ccOlTTki.s:288    .text.dm_cota_perform_sync:000000000000013c .L0 
C:\Users\stapi\AppData\Local\Temp\ccOlTTki.s:292    .text.dm_cota_perform_sync:000000000000013e .L0 
C:\Users\stapi\AppData\Local\Temp\ccOlTTki.s:293    .text.dm_cota_perform_sync:000000000000013e .L0 
C:\Users\stapi\AppData\Local\Temp\ccOlTTki.s:297    .text.dm_cota_perform_sync:0000000000000148 .L0 
C:\Users\stapi\AppData\Local\Temp\ccOlTTki.s:300    .text.dm_cota_perform_sync:000000000000014a .L0 
C:\Users\stapi\AppData\Local\Temp\ccOlTTki.s:301    .text.dm_cota_perform_sync:000000000000014a .L0 
C:\Users\stapi\AppData\Local\Temp\ccOlTTki.s:306    .text.dm_cota_perform_sync:0000000000000152 .L0 
C:\Users\stapi\AppData\Local\Temp\ccOlTTki.s:308    .text.dm_cota_perform_sync:0000000000000154 .L0 
C:\Users\stapi\AppData\Local\Temp\ccOlTTki.s:311    .text.dm_cota_perform_sync:000000000000015c .L0 
C:\Users\stapi\AppData\Local\Temp\ccOlTTki.s:312    .text.dm_cota_perform_sync:000000000000015c .L0 
C:\Users\stapi\AppData\Local\Temp\ccOlTTki.s:318    .text.dm_cota_perform_sync:0000000000000168 .L0 
C:\Users\stapi\AppData\Local\Temp\ccOlTTki.s:321    .text.dm_cota_perform_sync:0000000000000170 .L0 
C:\Users\stapi\AppData\Local\Temp\ccOlTTki.s:322    .text.dm_cota_perform_sync:0000000000000170 .L0 
C:\Users\stapi\AppData\Local\Temp\ccOlTTki.s:324    .text.dm_cota_perform_sync:0000000000000174 .L0 
C:\Users\stapi\AppData\Local\Temp\ccOlTTki.s:328    .text.dm_cota_perform_sync:0000000000000176 .L0 
C:\Users\stapi\AppData\Local\Temp\ccOlTTki.s:331    .text.dm_cota_perform_sync:000000000000017e .L0 
C:\Users\stapi\AppData\Local\Temp\ccOlTTki.s:332    .text.dm_cota_perform_sync:000000000000017e .L0 
C:\Users\stapi\AppData\Local\Temp\ccOlTTki.s:334    .text.dm_cota_perform_sync:0000000000000182 .L0 
C:\Users\stapi\AppData\Local\Temp\ccOlTTki.s:335    .text.dm_cota_perform_sync:0000000000000182 .L0 
C:\Users\stapi\AppData\Local\Temp\ccOlTTki.s:336    .text.dm_cota_perform_sync:0000000000000184 .L0 
C:\Users\stapi\AppData\Local\Temp\ccOlTTki.s:343    .text.dm_cota_get_config:0000000000000000 dm_cota_get_config
C:\Users\stapi\AppData\Local\Temp\ccOlTTki.s:346    .text.dm_cota_get_config:0000000000000000 .L0 
C:\Users\stapi\AppData\Local\Temp\ccOlTTki.s:348    .text.dm_cota_get_config:0000000000000000 .L0 
C:\Users\stapi\AppData\Local\Temp\ccOlTTki.s:349    .text.dm_cota_get_config:0000000000000008 .L0 
C:\Users\stapi\AppData\Local\Temp\ccOlTTki.s:350    .text.dm_cota_get_config:0000000000000008 .L0 
C:\Users\stapi\AppData\Local\Temp\ccOlTTki.s:351    .text.dm_cota_get_config:0000000000000008 .L0 
C:\Users\stapi\AppData\Local\Temp\ccOlTTki.s:352    .text.dm_cota_get_config:0000000000000008 .L0 
C:\Users\stapi\AppData\Local\Temp\ccOlTTki.s:355    .text.dm_cota_get_config:0000000000000008 .L0 
C:\Users\stapi\AppData\Local\Temp\ccOlTTki.s:356    .text.dm_cota_get_config:0000000000000008 .L0 
C:\Users\stapi\AppData\Local\Temp\ccOlTTki.s:357    .text.dm_cota_get_config:0000000000000008 .L0 
C:\Users\stapi\AppData\Local\Temp\ccOlTTki.s:358    .text.dm_cota_get_config:000000000000000a .L0 
C:\Users\stapi\AppData\Local\Temp\ccOlTTki.s:360    .text.dm_cota_get_config:000000000000000a .L0 
C:\Users\stapi\AppData\Local\Temp\ccOlTTki.s:362    .text.dm_cota_get_config:000000000000000c .L0 
C:\Users\stapi\AppData\Local\Temp\ccOlTTki.s:365    .text.dm_cota_get_config:000000000000000e .L0 
C:\Users\stapi\AppData\Local\Temp\ccOlTTki.s:368    .text.dm_cota_get_config:0000000000000012 .L0 
C:\Users\stapi\AppData\Local\Temp\ccOlTTki.s:370    .text.dm_cota_get_config:0000000000000014 .L0 
C:\Users\stapi\AppData\Local\Temp\ccOlTTki.s:371    .text.dm_cota_get_config:0000000000000014 .L0 
C:\Users\stapi\AppData\Local\Temp\ccOlTTki.s:374    .text.dm_cota_get_config:000000000000001c .L0 
C:\Users\stapi\AppData\Local\Temp\ccOlTTki.s:375    .text.dm_cota_get_config:000000000000001c .L0 
C:\Users\stapi\AppData\Local\Temp\ccOlTTki.s:377    .text.dm_cota_get_config:000000000000001e .L0 
C:\Users\stapi\AppData\Local\Temp\ccOlTTki.s:378    .text.dm_cota_get_config:000000000000001e .L0 
C:\Users\stapi\AppData\Local\Temp\ccOlTTki.s:387    .text.dm_cota_get_config:000000000000002e .L0 
C:\Users\stapi\AppData\Local\Temp\ccOlTTki.s:388    .text.dm_cota_get_config:0000000000000030 .L0 
C:\Users\stapi\AppData\Local\Temp\ccOlTTki.s:389    .text.dm_cota_get_config:0000000000000030 .L0 
C:\Users\stapi\AppData\Local\Temp\ccOlTTki.s:392    .text.dm_cota_get_config:0000000000000038 .L0 
C:\Users\stapi\AppData\Local\Temp\ccOlTTki.s:393    .text.dm_cota_get_config:0000000000000038 .L0 
C:\Users\stapi\AppData\Local\Temp\ccOlTTki.s:394    .text.dm_cota_get_config:0000000000000038 .L0 
C:\Users\stapi\AppData\Local\Temp\ccOlTTki.s:395    .text.dm_cota_get_config:0000000000000038 .L0 
C:\Users\stapi\AppData\Local\Temp\ccOlTTki.s:398    .text.dm_cota_get_config:0000000000000038 .L0 
C:\Users\stapi\AppData\Local\Temp\ccOlTTki.s:400    .text.dm_cota_get_config:0000000000000038 .L0 
C:\Users\stapi\AppData\Local\Temp\ccOlTTki.s:403    .text.dm_cota_get_config:000000000000003c .L0 
C:\Users\stapi\AppData\Local\Temp\ccOlTTki.s:429    .text.dm_cota_status_check:0000000000000000 dm_cota_status_check
C:\Users\stapi\AppData\Local\Temp\ccOlTTki.s:432    .text.dm_cota_status_check:0000000000000000 .L0 
C:\Users\stapi\AppData\Local\Temp\ccOlTTki.s:433    .text.dm_cota_status_check:0000000000000000 .L0 
C:\Users\stapi\AppData\Local\Temp\ccOlTTki.s:434    .text.dm_cota_status_check:0000000000000008 .L0 
C:\Users\stapi\AppData\Local\Temp\ccOlTTki.s:435    .text.dm_cota_status_check:0000000000000008 .L0 
C:\Users\stapi\AppData\Local\Temp\ccOlTTki.s:436    .text.dm_cota_status_check:0000000000000008 .L0 
C:\Users\stapi\AppData\Local\Temp\ccOlTTki.s:437    .text.dm_cota_status_check:0000000000000008 .L0 
C:\Users\stapi\AppData\Local\Temp\ccOlTTki.s:438    .text.dm_cota_status_check:0000000000000008 .L0 
C:\Users\stapi\AppData\Local\Temp\ccOlTTki.s:439    .text.dm_cota_status_check:0000000000000008 .L0 
C:\Users\stapi\AppData\Local\Temp\ccOlTTki.s:440    .text.dm_cota_status_check:0000000000000008 .L0 
C:\Users\stapi\AppData\Local\Temp\ccOlTTki.s:441    .text.dm_cota_status_check:0000000000000008 .L0 
C:\Users\stapi\AppData\Local\Temp\ccOlTTki.s:444    .text.dm_cota_status_check:0000000000000008 .L0 
C:\Users\stapi\AppData\Local\Temp\ccOlTTki.s:445    .text.dm_cota_status_check:0000000000000008 .L0 
C:\Users\stapi\AppData\Local\Temp\ccOlTTki.s:446    .text.dm_cota_status_check:0000000000000008 .L0 
C:\Users\stapi\AppData\Local\Temp\ccOlTTki.s:447    .text.dm_cota_status_check:0000000000000008 .L0 
C:\Users\stapi\AppData\Local\Temp\ccOlTTki.s:448    .text.dm_cota_status_check:0000000000000008 .L0 
C:\Users\stapi\AppData\Local\Temp\ccOlTTki.s:449    .text.dm_cota_status_check:000000000000000a .L0 
C:\Users\stapi\AppData\Local\Temp\ccOlTTki.s:451    .text.dm_cota_status_check:000000000000000a .L0 
C:\Users\stapi\AppData\Local\Temp\ccOlTTki.s:453    .text.dm_cota_status_check:000000000000000c .L0 
C:\Users\stapi\AppData\Local\Temp\ccOlTTki.s:455    .text.dm_cota_status_check:000000000000000e .L0 
C:\Users\stapi\AppData\Local\Temp\ccOlTTki.s:456    .text.dm_cota_status_check:000000000000000e .L0 
C:\Users\stapi\AppData\Local\Temp\ccOlTTki.s:461    .text.dm_cota_status_check:0000000000000018 .L0 
C:\Users\stapi\AppData\Local\Temp\ccOlTTki.s:462    .text.dm_cota_status_check:0000000000000018 .L0 
C:\Users\stapi\AppData\Local\Temp\ccOlTTki.s:465    .text.dm_cota_status_check:000000000000001a .L0 
C:\Users\stapi\AppData\Local\Temp\ccOlTTki.s:467    .text.dm_cota_status_check:000000000000001e .L0 
C:\Users\stapi\AppData\Local\Temp\ccOlTTki.s:468    .text.dm_cota_status_check:000000000000001e .L0 
C:\Users\stapi\AppData\Local\Temp\ccOlTTki.s:472    .text.dm_cota_status_check:0000000000000028 .L0 
C:\Users\stapi\AppData\Local\Temp\ccOlTTki.s:475    .text.dm_cota_status_check:000000000000002c .L0 
C:\Users\stapi\AppData\Local\Temp\ccOlTTki.s:476    .text.dm_cota_status_check:000000000000002c .L0 
C:\Users\stapi\AppData\Local\Temp\ccOlTTki.s:481    .text.dm_cota_status_check:0000000000000034 .L0 
C:\Users\stapi\AppData\Local\Temp\ccOlTTki.s:483    .text.dm_cota_status_check:0000000000000036 .L0 
C:\Users\stapi\AppData\Local\Temp\ccOlTTki.s:486    .text.dm_cota_status_check:000000000000003e .L0 
C:\Users\stapi\AppData\Local\Temp\ccOlTTki.s:487    .text.dm_cota_status_check:000000000000003e .L0 
C:\Users\stapi\AppData\Local\Temp\ccOlTTki.s:491    .text.dm_cota_status_check:0000000000000046 .L0 
C:\Users\stapi\AppData\Local\Temp\ccOlTTki.s:492    .text.dm_cota_status_check:0000000000000046 .L0 
C:\Users\stapi\AppData\Local\Temp\ccOlTTki.s:494    .text.dm_cota_status_check:000000000000004a .L0 
C:\Users\stapi\AppData\Local\Temp\ccOlTTki.s:498    .text.dm_cota_status_check:0000000000000056 .L0 
C:\Users\stapi\AppData\Local\Temp\ccOlTTki.s:509    .text.dm_cota_status_check:000000000000007c .L0 
C:\Users\stapi\AppData\Local\Temp\ccOlTTki.s:510    .text.dm_cota_status_check:000000000000007c .L0 
C:\Users\stapi\AppData\Local\Temp\ccOlTTki.s:515    .text.dm_cota_status_check:000000000000007e .L0 
C:\Users\stapi\AppData\Local\Temp\ccOlTTki.s:516    .text.dm_cota_status_check:000000000000007e .L0 
C:\Users\stapi\AppData\Local\Temp\ccOlTTki.s:517    .text.dm_cota_status_check:000000000000007e .L0 
C:\Users\stapi\AppData\Local\Temp\ccOlTTki.s:518    .text.dm_cota_status_check:000000000000007e .L0 
C:\Users\stapi\AppData\Local\Temp\ccOlTTki.s:523    .text.dm_cota_status_check:0000000000000086 .L0 
C:\Users\stapi\AppData\Local\Temp\ccOlTTki.s:525    .text.dm_cota_status_check:0000000000000088 .L0 
C:\Users\stapi\AppData\Local\Temp\ccOlTTki.s:526    .text.dm_cota_status_check:0000000000000088 .L0 
C:\Users\stapi\AppData\Local\Temp\ccOlTTki.s:528    .text.dm_cota_status_check:000000000000008a .L0 
C:\Users\stapi\AppData\Local\Temp\ccOlTTki.s:530    .text.dm_cota_status_check:000000000000008c .L0 
C:\Users\stapi\AppData\Local\Temp\ccOlTTki.s:532    .text.dm_cota_status_check:000000000000008e .L0 
C:\Users\stapi\AppData\Local\Temp\ccOlTTki.s:534    .text.dm_cota_status_check:0000000000000090 .L0 
C:\Users\stapi\AppData\Local\Temp\ccOlTTki.s:537    .text.dm_cota_status_check:0000000000000092 .L0 
C:\Users\stapi\AppData\Local\Temp\ccOlTTki.s:538    .text.dm_cota_status_check:0000000000000092 .L0 
C:\Users\stapi\AppData\Local\Temp\ccOlTTki.s:541    .text.dm_cota_status_check:000000000000009a .L0 
C:\Users\stapi\AppData\Local\Temp\ccOlTTki.s:548    .text.dm_cota_status_check:00000000000000aa .L0 
C:\Users\stapi\AppData\Local\Temp\ccOlTTki.s:555    .text.dm_cota_status_check:00000000000000ba .L0 
C:\Users\stapi\AppData\Local\Temp\ccOlTTki.s:562    .text.dm_cota_status_check:00000000000000ca .L0 
C:\Users\stapi\AppData\Local\Temp\ccOlTTki.s:569    .text.dm_cota_status_check:00000000000000da .L0 
C:\Users\stapi\AppData\Local\Temp\ccOlTTki.s:576    .text.dm_cota_status_check:00000000000000ea .L0 
C:\Users\stapi\AppData\Local\Temp\ccOlTTki.s:577    .text.dm_cota_status_check:00000000000000ea .L0 
C:\Users\stapi\AppData\Local\Temp\ccOlTTki.s:579    .text.dm_cota_status_check:00000000000000ec .L0 
C:\Users\stapi\AppData\Local\Temp\ccOlTTki.s:581    .text.dm_cota_status_check:00000000000000ee .L0 
C:\Users\stapi\AppData\Local\Temp\ccOlTTki.s:583    .text.dm_cota_status_check:00000000000000f0 .L0 
C:\Users\stapi\AppData\Local\Temp\ccOlTTki.s:586    .text.dm_cota_status_check:00000000000000f2 .L0 
C:\Users\stapi\AppData\Local\Temp\ccOlTTki.s:588    .text.dm_cota_status_check:00000000000000f4 .L0 
C:\Users\stapi\AppData\Local\Temp\ccOlTTki.s:590    .text.dm_cota_status_check:00000000000000f6 .L0 
C:\Users\stapi\AppData\Local\Temp\ccOlTTki.s:592    .text.dm_cota_status_check:00000000000000fa .L0 
C:\Users\stapi\AppData\Local\Temp\ccOlTTki.s:594    .text.dm_cota_status_check:00000000000000fc .L0 
C:\Users\stapi\AppData\Local\Temp\ccOlTTki.s:596    .text.dm_cota_status_check:0000000000000100 .L0 
C:\Users\stapi\AppData\Local\Temp\ccOlTTki.s:598    .text.dm_cota_status_check:0000000000000102 .L0 
C:\Users\stapi\AppData\Local\Temp\ccOlTTki.s:600    .text.dm_cota_status_check:0000000000000106 .L0 
C:\Users\stapi\AppData\Local\Temp\ccOlTTki.s:601    .text.dm_cota_status_check:0000000000000106 .L0 
C:\Users\stapi\AppData\Local\Temp\ccOlTTki.s:605    .text.dm_cota_status_check:0000000000000110 .L0 
C:\Users\stapi\AppData\Local\Temp\ccOlTTki.s:610    .text.dm_cota_status_check:000000000000011c .L0 
C:\Users\stapi\AppData\Local\Temp\ccOlTTki.s:615    .text.dm_cota_status_check:0000000000000128 .L0 
C:\Users\stapi\AppData\Local\Temp\ccOlTTki.s:617    .text.dm_cota_status_check:000000000000012a .L0 
C:\Users\stapi\AppData\Local\Temp\ccOlTTki.s:621    .text.dm_cota_status_check:0000000000000134 .L0 
C:\Users\stapi\AppData\Local\Temp\ccOlTTki.s:623    .text.dm_cota_status_check:0000000000000138 .L0 
C:\Users\stapi\AppData\Local\Temp\ccOlTTki.s:625    .text.dm_cota_status_check:000000000000013a .L0 
C:\Users\stapi\AppData\Local\Temp\ccOlTTki.s:627    .text.dm_cota_status_check:000000000000013c .L0 
C:\Users\stapi\AppData\Local\Temp\ccOlTTki.s:631    .text.dm_cota_status_check:0000000000000146 .L0 
C:\Users\stapi\AppData\Local\Temp\ccOlTTki.s:635    .text.dm_cota_status_check:000000000000014a .L0 
C:\Users\stapi\AppData\Local\Temp\ccOlTTki.s:636    .text.dm_cota_status_check:000000000000014a .L0 
C:\Users\stapi\AppData\Local\Temp\ccOlTTki.s:644    .text.dm_cota_status_check:000000000000015a .L0 
C:\Users\stapi\AppData\Local\Temp\ccOlTTki.s:645    .text.dm_cota_status_check:000000000000015a .L0 
C:\Users\stapi\AppData\Local\Temp\ccOlTTki.s:647    .text.dm_cota_status_check:000000000000015c .L0 
C:\Users\stapi\AppData\Local\Temp\ccOlTTki.s:649    .text.dm_cota_status_check:000000000000015e .L0 
C:\Users\stapi\AppData\Local\Temp\ccOlTTki.s:654    .text.dm_cota_status_check:000000000000016a .L0 
C:\Users\stapi\AppData\Local\Temp\ccOlTTki.s:668    .text.dm_cota_status_check:000000000000018c .L0 
C:\Users\stapi\AppData\Local\Temp\ccOlTTki.s:669    .text.dm_cota_status_check:000000000000018c .L0 
C:\Users\stapi\AppData\Local\Temp\ccOlTTki.s:674    .text.dm_cota_status_check:000000000000019c .L0 
C:\Users\stapi\AppData\Local\Temp\ccOlTTki.s:680    .text.dm_cota_status_check:00000000000001ae .L0 
C:\Users\stapi\AppData\Local\Temp\ccOlTTki.s:685    .text.dm_cota_status_check:00000000000001be .L0 
C:\Users\stapi\AppData\Local\Temp\ccOlTTki.s:686    .text.dm_cota_status_check:00000000000001be .L0 
C:\Users\stapi\AppData\Local\Temp\ccOlTTki.s:687    .text.dm_cota_status_check:00000000000001be .L0 
C:\Users\stapi\AppData\Local\Temp\ccOlTTki.s:694    .text.dm_cota_status_check:00000000000001ce .L0 
C:\Users\stapi\AppData\Local\Temp\ccOlTTki.s:695    .text.dm_cota_status_check:00000000000001ce .L0 
C:\Users\stapi\AppData\Local\Temp\ccOlTTki.s:697    .text.dm_cota_status_check:00000000000001d0 .L0 
C:\Users\stapi\AppData\Local\Temp\ccOlTTki.s:698    .text.dm_cota_status_check:00000000000001d0 .L0 
C:\Users\stapi\AppData\Local\Temp\ccOlTTki.s:702    .text.dm_cota_status_check:00000000000001da .L0 
C:\Users\stapi\AppData\Local\Temp\ccOlTTki.s:703    .text.dm_cota_status_check:00000000000001da .L0 
C:\Users\stapi\AppData\Local\Temp\ccOlTTki.s:704    .text.dm_cota_status_check:00000000000001da .L0 
C:\Users\stapi\AppData\Local\Temp\ccOlTTki.s:705    .text.dm_cota_status_check:00000000000001da .L0 
C:\Users\stapi\AppData\Local\Temp\ccOlTTki.s:706    .text.dm_cota_status_check:00000000000001da .L0 
C:\Users\stapi\AppData\Local\Temp\ccOlTTki.s:710    .text.dm_cota_status_check:00000000000001dc .L0 
C:\Users\stapi\AppData\Local\Temp\ccOlTTki.s:711    .text.dm_cota_status_check:00000000000001dc .L0 
C:\Users\stapi\AppData\Local\Temp\ccOlTTki.s:713    .text.dm_cota_status_check:00000000000001de .L0 
C:\Users\stapi\AppData\Local\Temp\ccOlTTki.s:715    .text.dm_cota_status_check:00000000000001e0 .L0 
C:\Users\stapi\AppData\Local\Temp\ccOlTTki.s:719    .text.dm_cota_status_check:00000000000001e8 .L0 
C:\Users\stapi\AppData\Local\Temp\ccOlTTki.s:720    .text.dm_cota_status_check:00000000000001e8 .L0 
C:\Users\stapi\AppData\Local\Temp\ccOlTTki.s:722    .text.dm_cota_status_check:00000000000001ea .L0 
C:\Users\stapi\AppData\Local\Temp\ccOlTTki.s:724    .text.dm_cota_status_check:00000000000001ec .L0 
C:\Users\stapi\AppData\Local\Temp\ccOlTTki.s:728    .text.dm_cota_status_check:00000000000001f4 .L0 
C:\Users\stapi\AppData\Local\Temp\ccOlTTki.s:729    .text.dm_cota_status_check:00000000000001f4 .L0 
C:\Users\stapi\AppData\Local\Temp\ccOlTTki.s:731    .text.dm_cota_status_check:00000000000001f6 .L0 
C:\Users\stapi\AppData\Local\Temp\ccOlTTki.s:733    .text.dm_cota_status_check:00000000000001f8 .L0 
C:\Users\stapi\AppData\Local\Temp\ccOlTTki.s:737    .text.dm_cota_status_check:0000000000000200 .L0 
C:\Users\stapi\AppData\Local\Temp\ccOlTTki.s:738    .text.dm_cota_status_check:0000000000000200 .L0 
C:\Users\stapi\AppData\Local\Temp\ccOlTTki.s:740    .text.dm_cota_status_check:0000000000000202 .L0 
C:\Users\stapi\AppData\Local\Temp\ccOlTTki.s:742    .text.dm_cota_status_check:0000000000000204 .L0 
C:\Users\stapi\AppData\Local\Temp\ccOlTTki.s:746    .text.dm_cota_status_check:000000000000020c .L0 
C:\Users\stapi\AppData\Local\Temp\ccOlTTki.s:747    .text.dm_cota_status_check:000000000000020c .L0 
C:\Users\stapi\AppData\Local\Temp\ccOlTTki.s:749    .text.dm_cota_status_check:000000000000020e .L0 
C:\Users\stapi\AppData\Local\Temp\ccOlTTki.s:751    .text.dm_cota_status_check:0000000000000210 .L0 
C:\Users\stapi\AppData\Local\Temp\ccOlTTki.s:757    .text.dm_cota_status_check:0000000000000218 .L0 
C:\Users\stapi\AppData\Local\Temp\ccOlTTki.s:758    .text.dm_cota_status_check:0000000000000218 .L0 
C:\Users\stapi\AppData\Local\Temp\ccOlTTki.s:759    .text.dm_cota_status_check:0000000000000218 .L0 
C:\Users\stapi\AppData\Local\Temp\ccOlTTki.s:761    .text.dm_cota_status_check:000000000000021a .L0 
C:\Users\stapi\AppData\Local\Temp\ccOlTTki.s:762    .text.dm_cota_status_check:000000000000021a .L0 
C:\Users\stapi\AppData\Local\Temp\ccOlTTki.s:768    .text.dm_cota_status_check:0000000000000220 .L0 
C:\Users\stapi\AppData\Local\Temp\ccOlTTki.s:771    .text.dm_cota_status_check:0000000000000222 .L0 
C:\Users\stapi\AppData\Local\Temp\ccOlTTki.s:772    .text.dm_cota_status_check:0000000000000224 .L0 
C:\Users\stapi\AppData\Local\Temp\ccOlTTki.s:774    .text.dm_cota_status_check:000000000000022c .L0 
C:\Users\stapi\AppData\Local\Temp\ccOlTTki.s:775    .text.dm_cota_status_check:000000000000022c .L0 
C:\Users\stapi\AppData\Local\Temp\ccOlTTki.s:776    .text.dm_cota_status_check:000000000000022c .L0 
C:\Users\stapi\AppData\Local\Temp\ccOlTTki.s:777    .text.dm_cota_status_check:000000000000022c .L0 
C:\Users\stapi\AppData\Local\Temp\ccOlTTki.s:778    .text.dm_cota_status_check:000000000000022c .L0 
C:\Users\stapi\AppData\Local\Temp\ccOlTTki.s:779    .text.dm_cota_status_check:000000000000022c .L0 
C:\Users\stapi\AppData\Local\Temp\ccOlTTki.s:780    .text.dm_cota_status_check:000000000000022c .L0 
C:\Users\stapi\AppData\Local\Temp\ccOlTTki.s:781    .text.dm_cota_status_check:000000000000022c .L0 
C:\Users\stapi\AppData\Local\Temp\ccOlTTki.s:782    .text.dm_cota_status_check:000000000000022c .L0 
C:\Users\stapi\AppData\Local\Temp\ccOlTTki.s:787    .rodata.__FUNCTION__.0:0000000000000000 .LANCHOR1
C:\Users\stapi\AppData\Local\Temp\ccOlTTki.s:790    .rodata.__FUNCTION__.0:0000000000000000 __FUNCTION__.0
C:\Users\stapi\AppData\Local\Temp\ccOlTTki.s:794    .sbss.g_dm_cota_ctx:0000000000000000 .LANCHOR0
C:\Users\stapi\AppData\Local\Temp\ccOlTTki.s:797    .sbss.g_dm_cota_ctx:0000000000000000 g_dm_cota_ctx
C:\Users\stapi\AppData\Local\Temp\ccOlTTki.s:31     .text.dm_cota_init:000000000000000c .L0 
C:\Users\stapi\AppData\Local\Temp\ccOlTTki.s:339    .text.dm_cota_perform_sync:0000000000000184 .L0 
C:\Users\stapi\AppData\Local\Temp\ccOlTTki.s:406    .text.dm_cota_get_config:000000000000003c .L0 
C:\Users\stapi\AppData\Local\Temp\ccOlTTki.s:785    .text.dm_cota_status_check:000000000000022c .L0 
                     .debug_frame:0000000000000000 .L0 
C:\Users\stapi\AppData\Local\Temp\ccOlTTki.s:116    .text.dm_cota_perform_sync:0000000000000030 .L4
C:\Users\stapi\AppData\Local\Temp\ccOlTTki.s:138    .text.dm_cota_perform_sync:000000000000003c .L6
C:\Users\stapi\AppData\Local\Temp\ccOlTTki.s:111    .text.dm_cota_perform_sync:000000000000002e .L25
C:\Users\stapi\AppData\Local\Temp\ccOlTTki.s:210    .text.dm_cota_perform_sync:00000000000000b4 .L8
C:\Users\stapi\AppData\Local\Temp\ccOlTTki.s:252    .text.dm_cota_perform_sync:0000000000000106 .L10
C:\Users\stapi\AppData\Local\Temp\ccOlTTki.s:256    .text.dm_cota_perform_sync:000000000000010a .L9
C:\Users\stapi\AppData\Local\Temp\ccOlTTki.s:270    .text.dm_cota_perform_sync:0000000000000126 .L11
C:\Users\stapi\AppData\Local\Temp\ccOlTTki.s:273    .text.dm_cota_perform_sync:000000000000012a .L12
C:\Users\stapi\AppData\Local\Temp\ccOlTTki.s:290    .text.dm_cota_perform_sync:000000000000013e .L14
C:\Users\stapi\AppData\Local\Temp\ccOlTTki.s:178    .text.dm_cota_perform_sync:000000000000007e .L15
C:\Users\stapi\AppData\Local\Temp\ccOlTTki.s:325    .text.dm_cota_perform_sync:0000000000000176 .L16
C:\Users\stapi\AppData\Local\Temp\ccOlTTki.s:397    .text.dm_cota_get_config:0000000000000038 .L28
C:\Users\stapi\AppData\Local\Temp\ccOlTTki.s:385    .text.dm_cota_get_config:000000000000002e .L26
C:\Users\stapi\AppData\Local\Temp\ccOlTTki.s:408    .rodata.dm_cota_status_check.str1.4:0000000000000000 .LC0
C:\Users\stapi\AppData\Local\Temp\ccOlTTki.s:411    .rodata.dm_cota_status_check.str1.4:0000000000000014 .LC1
C:\Users\stapi\AppData\Local\Temp\ccOlTTki.s:414    .rodata.dm_cota_status_check.str1.4:0000000000000018 .LC2
C:\Users\stapi\AppData\Local\Temp\ccOlTTki.s:417    .rodata.dm_cota_status_check.str1.4:0000000000000074 .LC3
C:\Users\stapi\AppData\Local\Temp\ccOlTTki.s:420    .rodata.dm_cota_status_check.str1.4:000000000000007c .LC4
C:\Users\stapi\AppData\Local\Temp\ccOlTTki.s:423    .rodata.dm_cota_status_check.str1.4:0000000000000090 .LC5
C:\Users\stapi\AppData\Local\Temp\ccOlTTki.s:769    .text.dm_cota_status_check:0000000000000222 .L30
C:\Users\stapi\AppData\Local\Temp\ccOlTTki.s:765    .text.dm_cota_status_check:0000000000000220 .L33
C:\Users\stapi\AppData\Local\Temp\ccOlTTki.s:708    .text.dm_cota_status_check:00000000000001dc .L35
C:\Users\stapi\AppData\Local\Temp\ccOlTTki.s:717    .text.dm_cota_status_check:00000000000001e8 .L36
C:\Users\stapi\AppData\Local\Temp\ccOlTTki.s:726    .text.dm_cota_status_check:00000000000001f4 .L37
C:\Users\stapi\AppData\Local\Temp\ccOlTTki.s:735    .text.dm_cota_status_check:0000000000000200 .L38
C:\Users\stapi\AppData\Local\Temp\ccOlTTki.s:744    .text.dm_cota_status_check:000000000000020c .L39
C:\Users\stapi\AppData\Local\Temp\ccOlTTki.s:753    .text.dm_cota_status_check:0000000000000218 .L40
C:\Users\stapi\AppData\Local\Temp\ccOlTTki.s:3000   .debug_abbrev:0000000000000000 .Ldebug_abbrev0
C:\Users\stapi\AppData\Local\Temp\ccOlTTki.s:4032   .debug_str:000000000000015d .LASF333
C:\Users\stapi\AppData\Local\Temp\ccOlTTki.s:4498   .debug_str:000000000000196a .LASF334
C:\Users\stapi\AppData\Local\Temp\ccOlTTki.s:4408   .debug_str:0000000000001487 .LASF335
C:\Users\stapi\AppData\Local\Temp\ccOlTTki.s:3990   .debug_ranges:0000000000000000 .Ldebug_ranges0
C:\Users\stapi\AppData\Local\Temp\ccOlTTki.s:4002   .debug_line:0000000000000000 .Ldebug_line0
C:\Users\stapi\AppData\Local\Temp\ccOlTTki.s:4138   .debug_str:0000000000000781 .LASF0
C:\Users\stapi\AppData\Local\Temp\ccOlTTki.s:4146   .debug_str:00000000000007df .LASF1
C:\Users\stapi\AppData\Local\Temp\ccOlTTki.s:4526   .debug_str:0000000000001b59 .LASF2
C:\Users\stapi\AppData\Local\Temp\ccOlTTki.s:4630   .debug_str:00000000000020e0 .LASF3
C:\Users\stapi\AppData\Local\Temp\ccOlTTki.s:4098   .debug_str:00000000000005a4 .LASF4
C:\Users\stapi\AppData\Local\Temp\ccOlTTki.s:4332   .debug_str:00000000000010f2 .LASF10
C:\Users\stapi\AppData\Local\Temp\ccOlTTki.s:4290   .debug_str:0000000000000efe .LASF5
C:\Users\stapi\AppData\Local\Temp\ccOlTTki.s:4334   .debug_str:00000000000010fd .LASF6
C:\Users\stapi\AppData\Local\Temp\ccOlTTki.s:4444   .debug_str:0000000000001709 .LASF7
C:\Users\stapi\AppData\Local\Temp\ccOlTTki.s:4378   .debug_str:000000000000131a .LASF8
C:\Users\stapi\AppData\Local\Temp\ccOlTTki.s:4180   .debug_str:000000000000098a .LASF9
C:\Users\stapi\AppData\Local\Temp\ccOlTTki.s:4604   .debug_str:0000000000001f89 .LASF11
C:\Users\stapi\AppData\Local\Temp\ccOlTTki.s:4016   .debug_str:0000000000000081 .LASF336
C:\Users\stapi\AppData\Local\Temp\ccOlTTki.s:4140   .debug_str:000000000000078d .LASF12
C:\Users\stapi\AppData\Local\Temp\ccOlTTki.s:4350   .debug_str:00000000000011ba .LASF13
C:\Users\stapi\AppData\Local\Temp\ccOlTTki.s:4410   .debug_str:0000000000001518 .LASF14
C:\Users\stapi\AppData\Local\Temp\ccOlTTki.s:4228   .debug_str:0000000000000bd4 .LASF15
C:\Users\stapi\AppData\Local\Temp\ccOlTTki.s:4598   .debug_str:0000000000001f46 .LASF16
C:\Users\stapi\AppData\Local\Temp\ccOlTTki.s:4326   .debug_str:00000000000010a6 .LASF17
C:\Users\stapi\AppData\Local\Temp\ccOlTTki.s:4004   .debug_str:0000000000000000 .LASF18
C:\Users\stapi\AppData\Local\Temp\ccOlTTki.s:4486   .debug_str:00000000000018cc .LASF19
C:\Users\stapi\AppData\Local\Temp\ccOlTTki.s:4626   .debug_str:00000000000020c0 .LASF20
C:\Users\stapi\AppData\Local\Temp\ccOlTTki.s:4502   .debug_str:0000000000001a1d .LASF21
C:\Users\stapi\AppData\Local\Temp\ccOlTTki.s:4464   .debug_str:00000000000017e4 .LASF22
C:\Users\stapi\AppData\Local\Temp\ccOlTTki.s:4194   .debug_str:0000000000000a04 .LASF23
C:\Users\stapi\AppData\Local\Temp\ccOlTTki.s:4414   .debug_str:000000000000154e .LASF24
C:\Users\stapi\AppData\Local\Temp\ccOlTTki.s:4466   .debug_str:00000000000017f3 .LASF25
C:\Users\stapi\AppData\Local\Temp\ccOlTTki.s:4286   .debug_str:0000000000000ed8 .LASF26
C:\Users\stapi\AppData\Local\Temp\ccOlTTki.s:4640   .debug_str:000000000000213d .LASF27
C:\Users\stapi\AppData\Local\Temp\ccOlTTki.s:4336   .debug_str:000000000000110b .LASF28
C:\Users\stapi\AppData\Local\Temp\ccOlTTki.s:4434   .debug_str:0000000000001667 .LASF29
C:\Users\stapi\AppData\Local\Temp\ccOlTTki.s:4162   .debug_str:000000000000089c .LASF30
C:\Users\stapi\AppData\Local\Temp\ccOlTTki.s:4504   .debug_str:0000000000001a2c .LASF31
C:\Users\stapi\AppData\Local\Temp\ccOlTTki.s:4022   .debug_str:00000000000000c0 .LASF32
C:\Users\stapi\AppData\Local\Temp\ccOlTTki.s:4094   .debug_str:0000000000000565 .LASF33
C:\Users\stapi\AppData\Local\Temp\ccOlTTki.s:4470   .debug_str:0000000000001820 .LASF34
C:\Users\stapi\AppData\Local\Temp\ccOlTTki.s:4154   .debug_str:0000000000000838 .LASF35
C:\Users\stapi\AppData\Local\Temp\ccOlTTki.s:4280   .debug_str:0000000000000e92 .LASF36
C:\Users\stapi\AppData\Local\Temp\ccOlTTki.s:4448   .debug_str:0000000000001746 .LASF37
C:\Users\stapi\AppData\Local\Temp\ccOlTTki.s:4042   .debug_str:00000000000002af .LASF38
C:\Users\stapi\AppData\Local\Temp\ccOlTTki.s:4540   .debug_str:0000000000001c17 .LASF39
C:\Users\stapi\AppData\Local\Temp\ccOlTTki.s:4386   .debug_str:000000000000137a .LASF40
C:\Users\stapi\AppData\Local\Temp\ccOlTTki.s:4188   .debug_str:00000000000009ad .LASF41
C:\Users\stapi\AppData\Local\Temp\ccOlTTki.s:4110   .debug_str:0000000000000628 .LASF42
C:\Users\stapi\AppData\Local\Temp\ccOlTTki.s:4072   .debug_str:000000000000044b .LASF43
C:\Users\stapi\AppData\Local\Temp\ccOlTTki.s:4432   .debug_str:000000000000164e .LASF44
C:\Users\stapi\AppData\Local\Temp\ccOlTTki.s:4566   .debug_str:0000000000001d9e .LASF45
C:\Users\stapi\AppData\Local\Temp\ccOlTTki.s:4422   .debug_str:00000000000015c9 .LASF46
C:\Users\stapi\AppData\Local\Temp\ccOlTTki.s:4006   .debug_str:000000000000000f .LASF47
C:\Users\stapi\AppData\Local\Temp\ccOlTTki.s:4058   .debug_str:000000000000037c .LASF48
C:\Users\stapi\AppData\Local\Temp\ccOlTTki.s:4070   .debug_str:000000000000042c .LASF49
C:\Users\stapi\AppData\Local\Temp\ccOlTTki.s:4440   .debug_str:00000000000016c7 .LASF50
C:\Users\stapi\AppData\Local\Temp\ccOlTTki.s:4202   .debug_str:0000000000000a66 .LASF51
C:\Users\stapi\AppData\Local\Temp\ccOlTTki.s:4330   .debug_str:00000000000010d0 .LASF52
C:\Users\stapi\AppData\Local\Temp\ccOlTTki.s:4116   .debug_str:000000000000067a .LASF53
C:\Users\stapi\AppData\Local\Temp\ccOlTTki.s:4624   .debug_str:00000000000020a4 .LASF54
C:\Users\stapi\AppData\Local\Temp\ccOlTTki.s:4644   .debug_str:000000000000216f .LASF55
C:\Users\stapi\AppData\Local\Temp\ccOlTTki.s:4524   .debug_str:0000000000001b41 .LASF56
C:\Users\stapi\AppData\Local\Temp\ccOlTTki.s:4606   .debug_str:0000000000001f92 .LASF57
C:\Users\stapi\AppData\Local\Temp\ccOlTTki.s:4152   .debug_str:000000000000081f .LASF58
C:\Users\stapi\AppData\Local\Temp\ccOlTTki.s:4206   .debug_str:0000000000000a9a .LASF59
C:\Users\stapi\AppData\Local\Temp\ccOlTTki.s:4398   .debug_str:000000000000141c .LASF60
C:\Users\stapi\AppData\Local\Temp\ccOlTTki.s:4500   .debug_str:0000000000001a05 .LASF61
C:\Users\stapi\AppData\Local\Temp\ccOlTTki.s:4224   .debug_str:0000000000000b8e .LASF62
C:\Users\stapi\AppData\Local\Temp\ccOlTTki.s:4198   .debug_str:0000000000000a30 .LASF63
C:\Users\stapi\AppData\Local\Temp\ccOlTTki.s:4476   .debug_str:0000000000001877 .LASF64
C:\Users\stapi\AppData\Local\Temp\ccOlTTki.s:4174   .debug_str:0000000000000930 .LASF65
C:\Users\stapi\AppData\Local\Temp\ccOlTTki.s:4068   .debug_str:000000000000040d .LASF66
C:\Users\stapi\AppData\Local\Temp\ccOlTTki.s:4536   .debug_str:0000000000001bd5 .LASF67
C:\Users\stapi\AppData\Local\Temp\ccOlTTki.s:4272   .debug_str:0000000000000e1c .LASF68
C:\Users\stapi\AppData\Local\Temp\ccOlTTki.s:4266   .debug_str:0000000000000dc4 .LASF69
C:\Users\stapi\AppData\Local\Temp\ccOlTTki.s:4158   .debug_str:0000000000000871 .LASF70
C:\Users\stapi\AppData\Local\Temp\ccOlTTki.s:4514   .debug_str:0000000000001ac3 .LASF71
C:\Users\stapi\AppData\Local\Temp\ccOlTTki.s:4532   .debug_str:0000000000001b92 .LASF72
C:\Users\stapi\AppData\Local\Temp\ccOlTTki.s:4516   .debug_str:0000000000001add .LASF73
C:\Users\stapi\AppData\Local\Temp\ccOlTTki.s:4136   .debug_str:0000000000000769 .LASF74
C:\Users\stapi\AppData\Local\Temp\ccOlTTki.s:4610   .debug_str:0000000000001fcb .LASF75
C:\Users\stapi\AppData\Local\Temp\ccOlTTki.s:4608   .debug_str:0000000000001fae .LASF76
C:\Users\stapi\AppData\Local\Temp\ccOlTTki.s:4576   .debug_str:0000000000001e1a .LASF77
C:\Users\stapi\AppData\Local\Temp\ccOlTTki.s:4620   .debug_str:0000000000002069 .LASF78
C:\Users\stapi\AppData\Local\Temp\ccOlTTki.s:4362   .debug_str:000000000000124d .LASF79
C:\Users\stapi\AppData\Local\Temp\ccOlTTki.s:4366   .debug_str:0000000000001284 .LASF80
C:\Users\stapi\AppData\Local\Temp\ccOlTTki.s:4238   .debug_str:0000000000000c45 .LASF81
C:\Users\stapi\AppData\Local\Temp\ccOlTTki.s:4024   .debug_str:00000000000000e0 .LASF82
C:\Users\stapi\AppData\Local\Temp\ccOlTTki.s:4564   .debug_str:0000000000001d82 .LASF83
C:\Users\stapi\AppData\Local\Temp\ccOlTTki.s:4416   .debug_str:000000000000156c .LASF84
C:\Users\stapi\AppData\Local\Temp\ccOlTTki.s:4270   .debug_str:0000000000000dfc .LASF85
C:\Users\stapi\AppData\Local\Temp\ccOlTTki.s:4264   .debug_str:0000000000000da5 .LASF86
C:\Users\stapi\AppData\Local\Temp\ccOlTTki.s:4340   .debug_str:0000000000001146 .LASF87
C:\Users\stapi\AppData\Local\Temp\ccOlTTki.s:4052   .debug_str:000000000000033e .LASF88
C:\Users\stapi\AppData\Local\Temp\ccOlTTki.s:4614   .debug_str:0000000000002016 .LASF89
C:\Users\stapi\AppData\Local\Temp\ccOlTTki.s:4100   .debug_str:00000000000005ad .LASF90
C:\Users\stapi\AppData\Local\Temp\ccOlTTki.s:4402   .debug_str:0000000000001453 .LASF91
C:\Users\stapi\AppData\Local\Temp\ccOlTTki.s:4592   .debug_str:0000000000001f01 .LASF92
C:\Users\stapi\AppData\Local\Temp\ccOlTTki.s:4036   .debug_str:0000000000000261 .LASF93
C:\Users\stapi\AppData\Local\Temp\ccOlTTki.s:4568   .debug_str:0000000000001dbc .LASF94
C:\Users\stapi\AppData\Local\Temp\ccOlTTki.s:4618   .debug_str:000000000000204b .LASF95
C:\Users\stapi\AppData\Local\Temp\ccOlTTki.s:4014   .debug_str:0000000000000067 .LASF96
C:\Users\stapi\AppData\Local\Temp\ccOlTTki.s:4324   .debug_str:000000000000108e .LASF97
C:\Users\stapi\AppData\Local\Temp\ccOlTTki.s:4114   .debug_str:0000000000000659 .LASF98
C:\Users\stapi\AppData\Local\Temp\ccOlTTki.s:4682   .debug_str:000000000000233a .LASF99
C:\Users\stapi\AppData\Local\Temp\ccOlTTki.s:4122   .debug_str:00000000000006ad .LASF100
C:\Users\stapi\AppData\Local\Temp\ccOlTTki.s:4424   .debug_str:00000000000015e3 .LASF101
C:\Users\stapi\AppData\Local\Temp\ccOlTTki.s:4674   .debug_str:00000000000022bb .LASF102
C:\Users\stapi\AppData\Local\Temp\ccOlTTki.s:4662   .debug_str:0000000000002226 .LASF103
C:\Users\stapi\AppData\Local\Temp\ccOlTTki.s:4102   .debug_str:00000000000005c6 .LASF104
C:\Users\stapi\AppData\Local\Temp\ccOlTTki.s:4364   .debug_str:000000000000126c .LASF105
C:\Users\stapi\AppData\Local\Temp\ccOlTTki.s:4256   .debug_str:0000000000000d47 .LASF106
C:\Users\stapi\AppData\Local\Temp\ccOlTTki.s:4090   .debug_str:0000000000000535 .LASF107
C:\Users\stapi\AppData\Local\Temp\ccOlTTki.s:4178   .debug_str:000000000000096c .LASF108
C:\Users\stapi\AppData\Local\Temp\ccOlTTki.s:4076   .debug_str:000000000000048d .LASF109
C:\Users\stapi\AppData\Local\Temp\ccOlTTki.s:4120   .debug_str:0000000000000695 .LASF110
C:\Users\stapi\AppData\Local\Temp\ccOlTTki.s:4596   .debug_str:0000000000001f32 .LASF111
C:\Users\stapi\AppData\Local\Temp\ccOlTTki.s:4046   .debug_str:00000000000002e7 .LASF112
C:\Users\stapi\AppData\Local\Temp\ccOlTTki.s:4010   .debug_str:000000000000003e .LASF113
C:\Users\stapi\AppData\Local\Temp\ccOlTTki.s:4132   .debug_str:0000000000000741 .LASF114
C:\Users\stapi\AppData\Local\Temp\ccOlTTki.s:4600   .debug_str:0000000000001f57 .LASF115
C:\Users\stapi\AppData\Local\Temp\ccOlTTki.s:4092   .debug_str:000000000000054d .LASF116
C:\Users\stapi\AppData\Local\Temp\ccOlTTki.s:4252   .debug_str:0000000000000d09 .LASF117
C:\Users\stapi\AppData\Local\Temp\ccOlTTki.s:4030   .debug_str:0000000000000147 .LASF118
C:\Users\stapi\AppData\Local\Temp\ccOlTTki.s:4130   .debug_str:0000000000000724 .LASF119
C:\Users\stapi\AppData\Local\Temp\ccOlTTki.s:4538   .debug_str:0000000000001bf9 .LASF120
C:\Users\stapi\AppData\Local\Temp\ccOlTTki.s:4222   .debug_str:0000000000000b66 .LASF121
C:\Users\stapi\AppData\Local\Temp\ccOlTTki.s:4586   .debug_str:0000000000001eb0 .LASF122
C:\Users\stapi\AppData\Local\Temp\ccOlTTki.s:4192   .debug_str:00000000000009ec .LASF123
C:\Users\stapi\AppData\Local\Temp\ccOlTTki.s:4588   .debug_str:0000000000001ed8 .LASF124
C:\Users\stapi\AppData\Local\Temp\ccOlTTki.s:4244   .debug_str:0000000000000c9b .LASF125
C:\Users\stapi\AppData\Local\Temp\ccOlTTki.s:4156   .debug_str:0000000000000851 .LASF126
C:\Users\stapi\AppData\Local\Temp\ccOlTTki.s:4074   .debug_str:0000000000000466 .LASF127
C:\Users\stapi\AppData\Local\Temp\ccOlTTki.s:4328   .debug_str:00000000000010b8 .LASF128
C:\Users\stapi\AppData\Local\Temp\ccOlTTki.s:4418   .debug_str:0000000000001588 .LASF129
C:\Users\stapi\AppData\Local\Temp\ccOlTTki.s:4200   .debug_str:0000000000000a4b .LASF130
C:\Users\stapi\AppData\Local\Temp\ccOlTTki.s:4436   .debug_str:0000000000001698 .LASF131
C:\Users\stapi\AppData\Local\Temp\ccOlTTki.s:4166   .debug_str:00000000000008dd .LASF132
C:\Users\stapi\AppData\Local\Temp\ccOlTTki.s:4412   .debug_str:000000000000152f .LASF133
C:\Users\stapi\AppData\Local\Temp\ccOlTTki.s:4096   .debug_str:0000000000000587 .LASF134
C:\Users\stapi\AppData\Local\Temp\ccOlTTki.s:4082   .debug_str:00000000000004db .LASF135
C:\Users\stapi\AppData\Local\Temp\ccOlTTki.s:4240   .debug_str:0000000000000c66 .LASF136
C:\Users\stapi\AppData\Local\Temp\ccOlTTki.s:4298   .debug_str:0000000000000f76 .LASF137
C:\Users\stapi\AppData\Local\Temp\ccOlTTki.s:4594   .debug_str:0000000000001f1b .LASF138
C:\Users\stapi\AppData\Local\Temp\ccOlTTki.s:4658   .debug_str:0000000000002206 .LASF139
C:\Users\stapi\AppData\Local\Temp\ccOlTTki.s:4346   .debug_str:0000000000001174 .LASF140
C:\Users\stapi\AppData\Local\Temp\ccOlTTki.s:4126   .debug_str:00000000000006e5 .LASF141
C:\Users\stapi\AppData\Local\Temp\ccOlTTki.s:4248   .debug_str:0000000000000cda .LASF142
C:\Users\stapi\AppData\Local\Temp\ccOlTTki.s:4478   .debug_str:000000000000188f .LASF143
C:\Users\stapi\AppData\Local\Temp\ccOlTTki.s:4064   .debug_str:00000000000003c1 .LASF144
C:\Users\stapi\AppData\Local\Temp\ccOlTTki.s:4648   .debug_str:0000000000002191 .LASF145
C:\Users\stapi\AppData\Local\Temp\ccOlTTki.s:4552   .debug_str:0000000000001cc8 .LASF146
C:\Users\stapi\AppData\Local\Temp\ccOlTTki.s:4214   .debug_str:0000000000000aee .LASF147
C:\Users\stapi\AppData\Local\Temp\ccOlTTki.s:4144   .debug_str:00000000000007bc .LASF148
C:\Users\stapi\AppData\Local\Temp\ccOlTTki.s:4584   .debug_str:0000000000001e8c .LASF149
C:\Users\stapi\AppData\Local\Temp\ccOlTTki.s:4254   .debug_str:0000000000000d26 .LASF150
C:\Users\stapi\AppData\Local\Temp\ccOlTTki.s:4318   .debug_str:0000000000001038 .LASF151
C:\Users\stapi\AppData\Local\Temp\ccOlTTki.s:4338   .debug_str:0000000000001126 .LASF152
C:\Users\stapi\AppData\Local\Temp\ccOlTTki.s:4054   .debug_str:0000000000000355 .LASF153
C:\Users\stapi\AppData\Local\Temp\ccOlTTki.s:4556   .debug_str:0000000000001d06 .LASF154
C:\Users\stapi\AppData\Local\Temp\ccOlTTki.s:4680   .debug_str:0000000000002319 .LASF155
C:\Users\stapi\AppData\Local\Temp\ccOlTTki.s:4190   .debug_str:00000000000009c9 .LASF156
C:\Users\stapi\AppData\Local\Temp\ccOlTTki.s:4276   .debug_str:0000000000000e5c .LASF157
C:\Users\stapi\AppData\Local\Temp\ccOlTTki.s:4040   .debug_str:000000000000028c .LASF158
C:\Users\stapi\AppData\Local\Temp\ccOlTTki.s:4380   .debug_str:0000000000001327 .LASF159
C:\Users\stapi\AppData\Local\Temp\ccOlTTki.s:4446   .debug_str:0000000000001720 .LASF160
C:\Users\stapi\AppData\Local\Temp\ccOlTTki.s:4676   .debug_str:00000000000022da .LASF161
C:\Users\stapi\AppData\Local\Temp\ccOlTTki.s:4354   .debug_str:00000000000011ea .LASF162
C:\Users\stapi\AppData\Local\Temp\ccOlTTki.s:4148   .debug_str:00000000000007ed .LASF163
C:\Users\stapi\AppData\Local\Temp\ccOlTTki.s:4232   .debug_str:0000000000000c0b .LASF164
C:\Users\stapi\AppData\Local\Temp\ccOlTTki.s:4518   .debug_str:0000000000001af2 .LASF165
C:\Users\stapi\AppData\Local\Temp\ccOlTTki.s:4316   .debug_str:000000000000101c .LASF166
C:\Users\stapi\AppData\Local\Temp\ccOlTTki.s:4396   .debug_str:00000000000013f9 .LASF167
C:\Users\stapi\AppData\Local\Temp\ccOlTTki.s:4226   .debug_str:0000000000000bae .LASF168
C:\Users\stapi\AppData\Local\Temp\ccOlTTki.s:4472   .debug_str:0000000000001833 .LASF169
C:\Users\stapi\AppData\Local\Temp\ccOlTTki.s:4460   .debug_str:00000000000017bb .LASF170
C:\Users\stapi\AppData\Local\Temp\ccOlTTki.s:4542   .debug_str:0000000000001c32 .LASF171
C:\Users\stapi\AppData\Local\Temp\ccOlTTki.s:4124   .debug_str:00000000000006c8 .LASF172
C:\Users\stapi\AppData\Local\Temp\ccOlTTki.s:4292   .debug_str:0000000000000f10 .LASF173
C:\Users\stapi\AppData\Local\Temp\ccOlTTki.s:4578   .debug_str:0000000000001e3d .LASF174
C:\Users\stapi\AppData\Local\Temp\ccOlTTki.s:4242   .debug_str:0000000000000c7d .LASF175
C:\Users\stapi\AppData\Local\Temp\ccOlTTki.s:4690   .debug_str:000000000000238f .LASF176
C:\Users\stapi\AppData\Local\Temp\ccOlTTki.s:4168   .debug_str:00000000000008f8 .LASF177
C:\Users\stapi\AppData\Local\Temp\ccOlTTki.s:4034   .debug_str:0000000000000244 .LASF178
C:\Users\stapi\AppData\Local\Temp\ccOlTTki.s:4308   .debug_str:0000000000000fe1 .LASF179
C:\Users\stapi\AppData\Local\Temp\ccOlTTki.s:4164   .debug_str:00000000000008c3 .LASF180
C:\Users\stapi\AppData\Local\Temp\ccOlTTki.s:4134   .debug_str:000000000000075c .LASF181
C:\Users\stapi\AppData\Local\Temp\ccOlTTki.s:4668   .debug_str:0000000000002256 .LASF182
C:\Users\stapi\AppData\Local\Temp\ccOlTTki.s:4494   .debug_str:0000000000001925 .LASF183
C:\Users\stapi\AppData\Local\Temp\ccOlTTki.s:4066   .debug_str:00000000000003e0 .LASF184
C:\Users\stapi\AppData\Local\Temp\ccOlTTki.s:4672   .debug_str:0000000000002289 .LASF185
C:\Users\stapi\AppData\Local\Temp\ccOlTTki.s:4492   .debug_str:0000000000001914 .LASF186
C:\Users\stapi\AppData\Local\Temp\ccOlTTki.s:4382   .debug_str:0000000000001347 .LASF187
C:\Users\stapi\AppData\Local\Temp\ccOlTTki.s:4322   .debug_str:000000000000107d .LASF188
C:\Users\stapi\AppData\Local\Temp\ccOlTTki.s:4048   .debug_str:0000000000000307 .LASF189
C:\Users\stapi\AppData\Local\Temp\ccOlTTki.s:4184   .debug_str:0000000000000996 .LASF190
C:\Users\stapi\AppData\Local\Temp\ccOlTTki.s:4628   .debug_str:00000000000020cf .LASF191
C:\Users\stapi\AppData\Local\Temp\ccOlTTki.s:4390   .debug_str:00000000000013b3 .LASF192
C:\Users\stapi\AppData\Local\Temp\ccOlTTki.s:4282   .debug_str:0000000000000ea9 .LASF193
C:\Users\stapi\AppData\Local\Temp\ccOlTTki.s:4646   .debug_str:0000000000002186 .LASF194
C:\Users\stapi\AppData\Local\Temp\ccOlTTki.s:4508   .debug_str:0000000000001a72 .LASF195
C:\Users\stapi\AppData\Local\Temp\ccOlTTki.s:4654   .debug_str:00000000000021da .LASF196
C:\Users\stapi\AppData\Local\Temp\ccOlTTki.s:4372   .debug_str:00000000000012c5 .LASF197
C:\Users\stapi\AppData\Local\Temp\ccOlTTki.s:4306   .debug_str:0000000000000fd2 .LASF198
C:\Users\stapi\AppData\Local\Temp\ccOlTTki.s:4172   .debug_str:0000000000000922 .LASF199
C:\Users\stapi\AppData\Local\Temp\ccOlTTki.s:4590   .debug_str:0000000000001ef3 .LASF200
C:\Users\stapi\AppData\Local\Temp\ccOlTTki.s:4288   .debug_str:0000000000000ef0 .LASF201
C:\Users\stapi\AppData\Local\Temp\ccOlTTki.s:4560   .debug_str:0000000000001d4f .LASF202
C:\Users\stapi\AppData\Local\Temp\ccOlTTki.s:4430   .debug_str:0000000000001639 .LASF203
C:\Users\stapi\AppData\Local\Temp\ccOlTTki.s:4692   .debug_str:00000000000023b5 .LASF204
C:\Users\stapi\AppData\Local\Temp\ccOlTTki.s:4108   .debug_str:0000000000000612 .LASF205
C:\Users\stapi\AppData\Local\Temp\ccOlTTki.s:4008   .debug_str:0000000000000026 .LASF206
C:\Users\stapi\AppData\Local\Temp\ccOlTTki.s:4512   .debug_str:0000000000001aa5 .LASF207
C:\Users\stapi\AppData\Local\Temp\ccOlTTki.s:4384   .debug_str:000000000000135c .LASF208
C:\Users\stapi\AppData\Local\Temp\ccOlTTki.s:4084   .debug_str:00000000000004f9 .LASF209
C:\Users\stapi\AppData\Local\Temp\ccOlTTki.s:4044   .debug_str:00000000000002cd .LASF210
C:\Users\stapi\AppData\Local\Temp\ccOlTTki.s:4018   .debug_str:0000000000000092 .LASF211
C:\Users\stapi\AppData\Local\Temp\ccOlTTki.s:4236   .debug_str:0000000000000c2b .LASF212
C:\Users\stapi\AppData\Local\Temp\ccOlTTki.s:4438   .debug_str:00000000000016b5 .LASF213
C:\Users\stapi\AppData\Local\Temp\ccOlTTki.s:4220   .debug_str:0000000000000b50 .LASF214
C:\Users\stapi\AppData\Local\Temp\ccOlTTki.s:4496   .debug_str:0000000000001958 .LASF215
C:\Users\stapi\AppData\Local\Temp\ccOlTTki.s:4368   .debug_str:00000000000012a2 .LASF216
C:\Users\stapi\AppData\Local\Temp\ccOlTTki.s:4462   .debug_str:00000000000017d1 .LASF217
C:\Users\stapi\AppData\Local\Temp\ccOlTTki.s:4580   .debug_str:0000000000001e5e .LASF218
C:\Users\stapi\AppData\Local\Temp\ccOlTTki.s:4482   .debug_str:00000000000018af .LASF219
C:\Users\stapi\AppData\Local\Temp\ccOlTTki.s:4142   .debug_str:00000000000007a4 .LASF220
C:\Users\stapi\AppData\Local\Temp\ccOlTTki.s:4204   .debug_str:0000000000000a84 .LASF221
C:\Users\stapi\AppData\Local\Temp\ccOlTTki.s:4522   .debug_str:0000000000001b25 .LASF222
C:\Users\stapi\AppData\Local\Temp\ccOlTTki.s:4344   .debug_str:000000000000116d .LASF223
C:\Users\stapi\AppData\Local\Temp\ccOlTTki.s:4394   .debug_str:00000000000013db .LASF224
C:\Users\stapi\AppData\Local\Temp\ccOlTTki.s:4670   .debug_str:000000000000226a .LASF225
C:\Users\stapi\AppData\Local\Temp\ccOlTTki.s:4246   .debug_str:0000000000000cbc .LASF226
C:\Users\stapi\AppData\Local\Temp\ccOlTTki.s:4284   .debug_str:0000000000000eba .LASF227
C:\Users\stapi\AppData\Local\Temp\ccOlTTki.s:4544   .debug_str:0000000000001c4a .LASF228
C:\Users\stapi\AppData\Local\Temp\ccOlTTki.s:4128   .debug_str:0000000000000706 .LASF229
C:\Users\stapi\AppData\Local\Temp\ccOlTTki.s:4622   .debug_str:0000000000002089 .LASF230
C:\Users\stapi\AppData\Local\Temp\ccOlTTki.s:4400   .debug_str:0000000000001437 .LASF231
C:\Users\stapi\AppData\Local\Temp\ccOlTTki.s:4352   .debug_str:00000000000011cc .LASF232
C:\Users\stapi\AppData\Local\Temp\ccOlTTki.s:4218   .debug_str:0000000000000b30 .LASF233
C:\Users\stapi\AppData\Local\Temp\ccOlTTki.s:4488   .debug_str:00000000000018dd .LASF234
C:\Users\stapi\AppData\Local\Temp\ccOlTTki.s:4652   .debug_str:00000000000021c0 .LASF235
C:\Users\stapi\AppData\Local\Temp\ccOlTTki.s:4474   .debug_str:0000000000001856 .LASF236
C:\Users\stapi\AppData\Local\Temp\ccOlTTki.s:4530   .debug_str:0000000000001b6e .LASF237
C:\Users\stapi\AppData\Local\Temp\ccOlTTki.s:4506   .debug_str:0000000000001a52 .LASF238
C:\Users\stapi\AppData\Local\Temp\ccOlTTki.s:4260   .debug_str:0000000000000d72 .LASF239
C:\Users\stapi\AppData\Local\Temp\ccOlTTki.s:4656   .debug_str:00000000000021eb .LASF240
C:\Users\stapi\AppData\Local\Temp\ccOlTTki.s:4582   .debug_str:0000000000001e6e .LASF241
C:\Users\stapi\AppData\Local\Temp\ccOlTTki.s:4678   .debug_str:00000000000022f5 .LASF242
C:\Users\stapi\AppData\Local\Temp\ccOlTTki.s:4456   .debug_str:0000000000001784 .LASF243
C:\Users\stapi\AppData\Local\Temp\ccOlTTki.s:4458   .debug_str:00000000000017a0 .LASF244
C:\Users\stapi\AppData\Local\Temp\ccOlTTki.s:4616   .debug_str:0000000000002030 .LASF245
C:\Users\stapi\AppData\Local\Temp\ccOlTTki.s:4562   .debug_str:0000000000001d65 .LASF246
C:\Users\stapi\AppData\Local\Temp\ccOlTTki.s:4426   .debug_str:0000000000001605 .LASF247
C:\Users\stapi\AppData\Local\Temp\ccOlTTki.s:4442   .debug_str:00000000000016e5 .LASF248
C:\Users\stapi\AppData\Local\Temp\ccOlTTki.s:4050   .debug_str:0000000000000318 .LASF249
C:\Users\stapi\AppData\Local\Temp\ccOlTTki.s:4490   .debug_str:00000000000018f7 .LASF250
C:\Users\stapi\AppData\Local\Temp\ccOlTTki.s:4374   .debug_str:00000000000012d1 .LASF251
C:\Users\stapi\AppData\Local\Temp\ccOlTTki.s:4510   .debug_str:0000000000001a84 .LASF252
C:\Users\stapi\AppData\Local\Temp\ccOlTTki.s:4554   .debug_str:0000000000001ce9 .LASF253
C:\Users\stapi\AppData\Local\Temp\ccOlTTki.s:4602   .debug_str:0000000000001f6f .LASF254
C:\Users\stapi\AppData\Local\Temp\ccOlTTki.s:4574   .debug_str:0000000000001df6 .LASF255
C:\Users\stapi\AppData\Local\Temp\ccOlTTki.s:4558   .debug_str:0000000000001d27 .LASF256
C:\Users\stapi\AppData\Local\Temp\ccOlTTki.s:4612   .debug_str:0000000000001fee .LASF257
C:\Users\stapi\AppData\Local\Temp\ccOlTTki.s:4348   .debug_str:0000000000001194 .LASF258
C:\Users\stapi\AppData\Local\Temp\ccOlTTki.s:4546   .debug_str:0000000000001c69 .LASF259
C:\Users\stapi\AppData\Local\Temp\ccOlTTki.s:4534   .debug_str:0000000000001bb1 .LASF260
C:\Users\stapi\AppData\Local\Temp\ccOlTTki.s:4548   .debug_str:0000000000001c8f .LASF261
C:\Users\stapi\AppData\Local\Temp\ccOlTTki.s:4296   .debug_str:0000000000000f53 .LASF262
C:\Users\stapi\AppData\Local\Temp\ccOlTTki.s:4388   .debug_str:000000000000138b .LASF263
C:\Users\stapi\AppData\Local\Temp\ccOlTTki.s:4376   .debug_str:00000000000012f1 .LASF264
C:\Users\stapi\AppData\Local\Temp\ccOlTTki.s:4274   .debug_str:0000000000000e3b .LASF265
C:\Users\stapi\AppData\Local\Temp\ccOlTTki.s:4320   .debug_str:000000000000105a .LASF266
C:\Users\stapi\AppData\Local\Temp\ccOlTTki.s:4216   .debug_str:0000000000000b12 .LASF267
C:\Users\stapi\AppData\Local\Temp\ccOlTTki.s:4176   .debug_str:000000000000094c .LASF268
C:\Users\stapi\AppData\Local\Temp\ccOlTTki.s:4020   .debug_str:00000000000000a5 .LASF269
C:\Users\stapi\AppData\Local\Temp\ccOlTTki.s:4086   .debug_str:0000000000000511 .LASF270
C:\Users\stapi\AppData\Local\Temp\ccOlTTki.s:4080   .debug_str:00000000000004c1 .LASF271
C:\Users\stapi\AppData\Local\Temp\ccOlTTki.s:4420   .debug_str:00000000000015a8 .LASF272
C:\Users\stapi\AppData\Local\Temp\ccOlTTki.s:4028   .debug_str:0000000000000120 .LASF273
C:\Users\stapi\AppData\Local\Temp\ccOlTTki.s:4060   .debug_str:000000000000039a .LASF274
C:\Users\stapi\AppData\Local\Temp\ccOlTTki.s:4572   .debug_str:0000000000001ddc .LASF275
C:\Users\stapi\AppData\Local\Temp\ccOlTTki.s:4268   .debug_str:0000000000000de2 .LASF276
C:\Users\stapi\AppData\Local\Temp\ccOlTTki.s:4026   .debug_str:0000000000000108 .LASF277
C:\Users\stapi\AppData\Local\Temp\ccOlTTki.s:4262   .debug_str:0000000000000d8d .LASF278
C:\Users\stapi\AppData\Local\Temp\ccOlTTki.s:4294   .debug_str:0000000000000f38 .LASF279
C:\Users\stapi\AppData\Local\Temp\ccOlTTki.s:4634   .debug_str:00000000000020fe .LASF280
C:\Users\stapi\AppData\Local\Temp\ccOlTTki.s:4428   .debug_str:0000000000001622 .LASF281
C:\Users\stapi\AppData\Local\Temp\ccOlTTki.s:4212   .debug_str:0000000000000ad4 .LASF282
C:\Users\stapi\AppData\Local\Temp\ccOlTTki.s:4650   .debug_str:00000000000021a7 .LASF283
C:\Users\stapi\AppData\Local\Temp\ccOlTTki.s:4468   .debug_str:000000000000180b .LASF284
C:\Users\stapi\AppData\Local\Temp\ccOlTTki.s:4196   .debug_str:0000000000000a1b .LASF285
C:\Users\stapi\AppData\Local\Temp\ccOlTTki.s:4310   .debug_str:0000000000000fee .LASF286
C:\Users\stapi\AppData\Local\Temp\ccOlTTki.s:4210   .debug_str:0000000000000abf .LASF337
C:\Users\stapi\AppData\Local\Temp\ccOlTTki.s:4664   .debug_str:000000000000223c .LASF287
C:\Users\stapi\AppData\Local\Temp\ccOlTTki.s:4636   .debug_str:0000000000002119 .LASF288
C:\Users\stapi\AppData\Local\Temp\ccOlTTki.s:4250   .debug_str:0000000000000cf4 .LASF291
C:\Users\stapi\AppData\Local\Temp\ccOlTTki.s:430    .text.dm_cota_status_check:0000000000000000 .LFB26
C:\Users\stapi\AppData\Local\Temp\ccOlTTki.s:783    .text.dm_cota_status_check:000000000000022c .LFE26
C:\Users\stapi\AppData\Local\Temp\ccOlTTki.s:3596   .debug_loc:0000000000000000 .LLST12
C:\Users\stapi\AppData\Local\Temp\ccOlTTki.s:4160   .debug_str:0000000000000891 .LASF289
C:\Users\stapi\AppData\Local\Temp\ccOlTTki.s:4404   .debug_str:000000000000146d .LASF338
C:\Users\stapi\AppData\Local\Temp\ccOlTTki.s:473    .text.dm_cota_status_check:000000000000002c .LBB16
C:\Users\stapi\AppData\Local\Temp\ccOlTTki.s:766    .text.dm_cota_status_check:0000000000000220 .LBE16
C:\Users\stapi\AppData\Local\Temp\ccOlTTki.s:4660   .debug_str:000000000000221d .LASF290
C:\Users\stapi\AppData\Local\Temp\ccOlTTki.s:512    .text.dm_cota_status_check:000000000000007e .LBB17
C:\Users\stapi\AppData\Local\Temp\ccOlTTki.s:756    .text.dm_cota_status_check:0000000000000218 .LBE17
C:\Users\stapi\AppData\Local\Temp\ccOlTTki.s:3616   .debug_loc:0000000000000035 .LLST13
C:\Users\stapi\AppData\Local\Temp\ccOlTTki.s:3623   .debug_loc:0000000000000048 .LLST14
C:\Users\stapi\AppData\Local\Temp\ccOlTTki.s:3645   .debug_loc:000000000000007f .LLST15
C:\Users\stapi\AppData\Local\Temp\ccOlTTki.s:3657   .debug_loc:000000000000009e .LLST16
C:\Users\stapi\AppData\Local\Temp\ccOlTTki.s:3678   .debug_loc:00000000000000d4 .LLST17
C:\Users\stapi\AppData\Local\Temp\ccOlTTki.s:539    .text.dm_cota_status_check:000000000000009a .LVL57
C:\Users\stapi\AppData\Local\Temp\ccOlTTki.s:546    .text.dm_cota_status_check:00000000000000aa .LVL58
C:\Users\stapi\AppData\Local\Temp\ccOlTTki.s:553    .text.dm_cota_status_check:00000000000000ba .LVL59
C:\Users\stapi\AppData\Local\Temp\ccOlTTki.s:560    .text.dm_cota_status_check:00000000000000ca .LVL60
C:\Users\stapi\AppData\Local\Temp\ccOlTTki.s:567    .text.dm_cota_status_check:00000000000000da .LVL61
C:\Users\stapi\AppData\Local\Temp\ccOlTTki.s:574    .text.dm_cota_status_check:00000000000000ea .LVL62
C:\Users\stapi\AppData\Local\Temp\ccOlTTki.s:602    .text.dm_cota_status_check:000000000000010e .LVL64
C:\Users\stapi\AppData\Local\Temp\ccOlTTki.s:607    .text.dm_cota_status_check:000000000000011a .LVL65
C:\Users\stapi\AppData\Local\Temp\ccOlTTki.s:612    .text.dm_cota_status_check:0000000000000126 .LVL66
C:\Users\stapi\AppData\Local\Temp\ccOlTTki.s:619    .text.dm_cota_status_check:0000000000000134 .LVL67
C:\Users\stapi\AppData\Local\Temp\ccOlTTki.s:629    .text.dm_cota_status_check:0000000000000146 .LVL68
C:\Users\stapi\AppData\Local\Temp\ccOlTTki.s:640    .text.dm_cota_status_check:0000000000000158 .LVL70
C:\Users\stapi\AppData\Local\Temp\ccOlTTki.s:652    .text.dm_cota_status_check:000000000000016a .LVL72
C:\Users\stapi\AppData\Local\Temp\ccOlTTki.s:666    .text.dm_cota_status_check:000000000000018c .LVL73
C:\Users\stapi\AppData\Local\Temp\ccOlTTki.s:672    .text.dm_cota_status_check:000000000000019c .LVL74
C:\Users\stapi\AppData\Local\Temp\ccOlTTki.s:678    .text.dm_cota_status_check:00000000000001ae .LVL75
C:\Users\stapi\AppData\Local\Temp\ccOlTTki.s:683    .text.dm_cota_status_check:00000000000001be .LVL76
C:\Users\stapi\AppData\Local\Temp\ccOlTTki.s:690    .text.dm_cota_status_check:00000000000001cc .LVL77
C:\Users\stapi\AppData\Local\Temp\ccOlTTki.s:700    .text.dm_cota_status_check:00000000000001da .LVL79
C:\Users\stapi\AppData\Local\Temp\ccOlTTki.s:716    .text.dm_cota_status_check:00000000000001e8 .LVL81
C:\Users\stapi\AppData\Local\Temp\ccOlTTki.s:725    .text.dm_cota_status_check:00000000000001f4 .LVL82
C:\Users\stapi\AppData\Local\Temp\ccOlTTki.s:734    .text.dm_cota_status_check:0000000000000200 .LVL83
C:\Users\stapi\AppData\Local\Temp\ccOlTTki.s:743    .text.dm_cota_status_check:000000000000020c .LVL84
C:\Users\stapi\AppData\Local\Temp\ccOlTTki.s:752    .text.dm_cota_status_check:0000000000000218 .LVL85
C:\Users\stapi\AppData\Local\Temp\ccOlTTki.s:484    .text.dm_cota_status_check:000000000000003e .LVL53
C:\Users\stapi\AppData\Local\Temp\ccOlTTki.s:507    .text.dm_cota_status_check:000000000000007c .LVL54
C:\Users\stapi\AppData\Local\Temp\ccOlTTki.s:457    .text.dm_cota_status_check:0000000000000016 .LVL49
C:\Users\stapi\AppData\Local\Temp\ccOlTTki.s:470    .text.dm_cota_status_check:0000000000000028 .LVL52
C:\Users\stapi\AppData\Local\Temp\ccOlTTki.s:4688   .debug_str:000000000000237c .LASF292
C:\Users\stapi\AppData\Local\Temp\ccOlTTki.s:344    .text.dm_cota_get_config:0000000000000000 .LFB25
C:\Users\stapi\AppData\Local\Temp\ccOlTTki.s:404    .text.dm_cota_get_config:000000000000003c .LFE25
C:\Users\stapi\AppData\Local\Temp\ccOlTTki.s:4684   .debug_str:000000000000235b .LASF293
C:\Users\stapi\AppData\Local\Temp\ccOlTTki.s:3687   .debug_loc:00000000000000ec .LLST8
C:\Users\stapi\AppData\Local\Temp\ccOlTTki.s:4088   .debug_str:000000000000052c .LASF294
C:\Users\stapi\AppData\Local\Temp\ccOlTTki.s:3698   .debug_loc:000000000000010a .LLST9
C:\Users\stapi\AppData\Local\Temp\ccOlTTki.s:4356   .debug_str:0000000000001214 .LASF295
C:\Users\stapi\AppData\Local\Temp\ccOlTTki.s:3709   .debug_loc:0000000000000128 .LLST10
C:\Users\stapi\AppData\Local\Temp\ccOlTTki.s:3731   .debug_loc:000000000000015f .LLST11
C:\Users\stapi\AppData\Local\Temp\ccOlTTki.s:372    .text.dm_cota_get_config:000000000000001c .LVL42
C:\Users\stapi\AppData\Local\Temp\ccOlTTki.s:384    .text.dm_cota_get_config:000000000000002e .LVL44
C:\Users\stapi\AppData\Local\Temp\ccOlTTki.s:4062   .debug_str:00000000000003ac .LASF296
C:\Users\stapi\AppData\Local\Temp\ccOlTTki.s:47     .text.dm_cota_perform_sync:0000000000000000 .LFB24
C:\Users\stapi\AppData\Local\Temp\ccOlTTki.s:337    .text.dm_cota_perform_sync:0000000000000184 .LFE24
C:\Users\stapi\AppData\Local\Temp\ccOlTTki.s:4186   .debug_str:00000000000009a6 .LASF297
C:\Users\stapi\AppData\Local\Temp\ccOlTTki.s:3747   .debug_loc:0000000000000189 .LLST0
C:\Users\stapi\AppData\Local\Temp\ccOlTTki.s:4632   .debug_str:00000000000020f3 .LASF298
C:\Users\stapi\AppData\Local\Temp\ccOlTTki.s:3769   .debug_loc:00000000000001c0 .LLST1
C:\Users\stapi\AppData\Local\Temp\ccOlTTki.s:3791   .debug_loc:00000000000001f7 .LLST2
C:\Users\stapi\AppData\Local\Temp\ccOlTTki.s:4392   .debug_str:00000000000013cd .LASF299
C:\Users\stapi\AppData\Local\Temp\ccOlTTki.s:3807   .debug_loc:0000000000000221 .LLST3
C:\Users\stapi\AppData\Local\Temp\ccOlTTki.s:4258   .debug_str:0000000000000d68 .LASF300
C:\Users\stapi\AppData\Local\Temp\ccOlTTki.s:4642   .debug_str:000000000000215f .LASF301
C:\Users\stapi\AppData\Local\Temp\ccOlTTki.s:4234   .debug_str:0000000000000c1f .LASF302
C:\Users\stapi\AppData\Local\Temp\ccOlTTki.s:3836   .debug_loc:000000000000026d .LLST4
C:\Users\stapi\AppData\Local\Temp\ccOlTTki.s:4450   .debug_str:0000000000001760 .LASF303
C:\Users\stapi\AppData\Local\Temp\ccOlTTki.s:3861   .debug_loc:00000000000002ae .LLST5
C:\Users\stapi\AppData\Local\Temp\ccOlTTki.s:4208   .debug_str:0000000000000ab4 .LASF304
C:\Users\stapi\AppData\Local\Temp\ccOlTTki.s:3878   .debug_loc:00000000000002d9 .LLST6
C:\Users\stapi\AppData\Local\Temp\ccOlTTki.s:4528   .debug_str:0000000000001b63 .LASF305
C:\Users\stapi\AppData\Local\Temp\ccOlTTki.s:3929   .debug_loc:0000000000000349 .LLST7
C:\Users\stapi\AppData\Local\Temp\ccOlTTki.s:298    .text.dm_cota_perform_sync:000000000000014a .LBB12
C:\Users\stapi\AppData\Local\Temp\ccOlTTki.s:326    .text.dm_cota_perform_sync:0000000000000176 .LBE12
C:\Users\stapi\AppData\Local\Temp\ccOlTTki.s:4170   .debug_str:0000000000000915 .LASF306
C:\Users\stapi\AppData\Local\Temp\ccOlTTki.s:309    .text.dm_cota_perform_sync:000000000000015c .LVL35
C:\Users\stapi\AppData\Local\Temp\ccOlTTki.s:319    .text.dm_cota_perform_sync:0000000000000170 .LVL37
C:\Users\stapi\AppData\Local\Temp\ccOlTTki.s:104    .text.dm_cota_perform_sync:000000000000002a .LVL5
C:\Users\stapi\AppData\Local\Temp\ccOlTTki.s:150    .text.dm_cota_perform_sync:000000000000004e .LVL10
C:\Users\stapi\AppData\Local\Temp\ccOlTTki.s:162    .text.dm_cota_perform_sync:0000000000000066 .LVL11
C:\Users\stapi\AppData\Local\Temp\ccOlTTki.s:165    .text.dm_cota_perform_sync:000000000000006e .LVL12
C:\Users\stapi\AppData\Local\Temp\ccOlTTki.s:187    .text.dm_cota_perform_sync:000000000000008e .LVL14
C:\Users\stapi\AppData\Local\Temp\ccOlTTki.s:200    .text.dm_cota_perform_sync:00000000000000a2 .LVL18
C:\Users\stapi\AppData\Local\Temp\ccOlTTki.s:203    .text.dm_cota_perform_sync:00000000000000aa .LVL19
C:\Users\stapi\AppData\Local\Temp\ccOlTTki.s:215    .text.dm_cota_perform_sync:00000000000000be .LVL22
C:\Users\stapi\AppData\Local\Temp\ccOlTTki.s:222    .text.dm_cota_perform_sync:00000000000000ce .LVL23
C:\Users\stapi\AppData\Local\Temp\ccOlTTki.s:229    .text.dm_cota_perform_sync:00000000000000de .LVL24
C:\Users\stapi\AppData\Local\Temp\ccOlTTki.s:244    .text.dm_cota_perform_sync:00000000000000f6 .LVL26
C:\Users\stapi\AppData\Local\Temp\ccOlTTki.s:281    .text.dm_cota_perform_sync:0000000000000138 .LVL32
C:\Users\stapi\AppData\Local\Temp\ccOlTTki.s:295    .text.dm_cota_perform_sync:0000000000000148 .LVL34
C:\Users\stapi\AppData\Local\Temp\ccOlTTki.s:329    .text.dm_cota_perform_sync:000000000000017e .LVL38
C:\Users\stapi\AppData\Local\Temp\ccOlTTki.s:4302   .debug_str:0000000000000fa2 .LASF339
C:\Users\stapi\AppData\Local\Temp\ccOlTTki.s:4480   .debug_str:00000000000018a3 .LASF307
C:\Users\stapi\AppData\Local\Temp\ccOlTTki.s:4118   .debug_str:000000000000068d .LASF308
C:\Users\stapi\AppData\Local\Temp\ccOlTTki.s:4666   .debug_str:000000000000224a .LASF309
C:\Users\stapi\AppData\Local\Temp\ccOlTTki.s:4454   .debug_str:000000000000177a .LASF310
C:\Users\stapi\AppData\Local\Temp\ccOlTTki.s:4056   .debug_str:0000000000000377 .LASF311
C:\Users\stapi\AppData\Local\Temp\ccOlTTki.s:4484   .debug_str:00000000000018c0 .LASF312
C:\Users\stapi\AppData\Local\Temp\ccOlTTki.s:4104   .debug_str:00000000000005df .LASF313
C:\Users\stapi\AppData\Local\Temp\ccOlTTki.s:4314   .debug_str:0000000000001016 .LASF340
C:\Users\stapi\AppData\Local\Temp\ccOlTTki.s:4304   .debug_str:0000000000000fc3 .LASF341
C:\Users\stapi\AppData\Local\Temp\ccOlTTki.s:4370   .debug_str:00000000000012b8 .LASF314
C:\Users\stapi\AppData\Local\Temp\ccOlTTki.s:14     .text.dm_cota_init:0000000000000000 .LFB21
C:\Users\stapi\AppData\Local\Temp\ccOlTTki.s:29     .text.dm_cota_init:000000000000000c .LFE21
C:\Users\stapi\AppData\Local\Temp\ccOlTTki.s:4012   .debug_str:0000000000000056 .LASF342
C:\Users\stapi\AppData\Local\Temp\ccOlTTki.s:4452   .debug_str:000000000000176c .LASF315
C:\Users\stapi\AppData\Local\Temp\ccOlTTki.s:4570   .debug_str:0000000000001dd5 .LASF316
C:\Users\stapi\AppData\Local\Temp\ccOlTTki.s:4278   .debug_str:0000000000000e7d .LASF317
C:\Users\stapi\AppData\Local\Temp\ccOlTTki.s:4182   .debug_str:000000000000098f .LASF343
C:\Users\stapi\AppData\Local\Temp\ccOlTTki.s:4112   .debug_str:0000000000000648 .LASF344
C:\Users\stapi\AppData\Local\Temp\ccOlTTki.s:4520   .debug_str:0000000000001b18 .LASF318
C:\Users\stapi\AppData\Local\Temp\ccOlTTki.s:4360   .debug_str:0000000000001242 .LASF319
C:\Users\stapi\AppData\Local\Temp\ccOlTTki.s:4300   .debug_str:0000000000000f8d .LASF320
C:\Users\stapi\AppData\Local\Temp\ccOlTTki.s:4150   .debug_str:000000000000080c .LASF321
C:\Users\stapi\AppData\Local\Temp\ccOlTTki.s:4038   .debug_str:0000000000000280 .LASF322
C:\Users\stapi\AppData\Local\Temp\ccOlTTki.s:4638   .debug_str:0000000000002127 .LASF323
C:\Users\stapi\AppData\Local\Temp\ccOlTTki.s:4312   .debug_str:0000000000001003 .LASF324
C:\Users\stapi\AppData\Local\Temp\ccOlTTki.s:4686   .debug_str:0000000000002368 .LASF325
C:\Users\stapi\AppData\Local\Temp\ccOlTTki.s:4230   .debug_str:0000000000000bed .LASF326
C:\Users\stapi\AppData\Local\Temp\ccOlTTki.s:4358   .debug_str:0000000000001223 .LASF327
C:\Users\stapi\AppData\Local\Temp\ccOlTTki.s:4342   .debug_str:000000000000115a .LASF328
C:\Users\stapi\AppData\Local\Temp\ccOlTTki.s:4550   .debug_str:0000000000001cb1 .LASF329
C:\Users\stapi\AppData\Local\Temp\ccOlTTki.s:4106   .debug_str:00000000000005f3 .LASF330
C:\Users\stapi\AppData\Local\Temp\ccOlTTki.s:4406   .debug_str:000000000000147a .LASF331
C:\Users\stapi\AppData\Local\Temp\ccOlTTki.s:4078   .debug_str:00000000000004ab .LASF332
C:\Users\stapi\AppData\Local\Temp\ccOlTTki.s:443    .text.dm_cota_status_check:0000000000000008 .LVL48
C:\Users\stapi\AppData\Local\Temp\ccOlTTki.s:459    .text.dm_cota_status_check:0000000000000018 .LVL50
C:\Users\stapi\AppData\Local\Temp\ccOlTTki.s:463    .text.dm_cota_status_check:000000000000001a .LVL51
C:\Users\stapi\AppData\Local\Temp\ccOlTTki.s:764    .text.dm_cota_status_check:0000000000000220 .LVL86
C:\Users\stapi\AppData\Local\Temp\ccOlTTki.s:511    .text.dm_cota_status_check:000000000000007e .LVL55
C:\Users\stapi\AppData\Local\Temp\ccOlTTki.s:584    .text.dm_cota_status_check:00000000000000f2 .LVL63
C:\Users\stapi\AppData\Local\Temp\ccOlTTki.s:692    .text.dm_cota_status_check:00000000000001ce .LVL78
C:\Users\stapi\AppData\Local\Temp\ccOlTTki.s:707    .text.dm_cota_status_check:00000000000001dc .LVL80
C:\Users\stapi\AppData\Local\Temp\ccOlTTki.s:633    .text.dm_cota_status_check:000000000000014a .LVL69
C:\Users\stapi\AppData\Local\Temp\ccOlTTki.s:642    .text.dm_cota_status_check:000000000000015a .LVL71
C:\Users\stapi\AppData\Local\Temp\ccOlTTki.s:536    .text.dm_cota_status_check:0000000000000092 .LVL56
C:\Users\stapi\AppData\Local\Temp\ccOlTTki.s:347    .text.dm_cota_get_config:0000000000000000 .LVL39
C:\Users\stapi\AppData\Local\Temp\ccOlTTki.s:363    .text.dm_cota_get_config:000000000000000e .LVL41
C:\Users\stapi\AppData\Local\Temp\ccOlTTki.s:390    .text.dm_cota_get_config:0000000000000030 .LVL45
C:\Users\stapi\AppData\Local\Temp\ccOlTTki.s:396    .text.dm_cota_get_config:0000000000000038 .LVL46
C:\Users\stapi\AppData\Local\Temp\ccOlTTki.s:354    .text.dm_cota_get_config:0000000000000008 .LVL40
C:\Users\stapi\AppData\Local\Temp\ccOlTTki.s:380    .text.dm_cota_get_config:0000000000000022 .LVL43
C:\Users\stapi\AppData\Local\Temp\ccOlTTki.s:401    .text.dm_cota_get_config:000000000000003a .LVL47
C:\Users\stapi\AppData\Local\Temp\ccOlTTki.s:50     .text.dm_cota_perform_sync:0000000000000000 .LVL1
C:\Users\stapi\AppData\Local\Temp\ccOlTTki.s:102    .text.dm_cota_perform_sync:0000000000000022 .LVL4
C:\Users\stapi\AppData\Local\Temp\ccOlTTki.s:115    .text.dm_cota_perform_sync:0000000000000030 .LVL8
C:\Users\stapi\AppData\Local\Temp\ccOlTTki.s:137    .text.dm_cota_perform_sync:000000000000003c .LVL9
C:\Users\stapi\AppData\Local\Temp\ccOlTTki.s:68     .text.dm_cota_perform_sync:0000000000000008 .LVL2
C:\Users\stapi\AppData\Local\Temp\ccOlTTki.s:106    .text.dm_cota_perform_sync:000000000000002c .LVL6
C:\Users\stapi\AppData\Local\Temp\ccOlTTki.s:110    .text.dm_cota_perform_sync:000000000000002e .LVL7
C:\Users\stapi\AppData\Local\Temp\ccOlTTki.s:177    .text.dm_cota_perform_sync:000000000000007e .LVL13
C:\Users\stapi\AppData\Local\Temp\ccOlTTki.s:189    .text.dm_cota_perform_sync:0000000000000090 .LVL15
C:\Users\stapi\AppData\Local\Temp\ccOlTTki.s:195    .text.dm_cota_perform_sync:0000000000000096 .LVL16
C:\Users\stapi\AppData\Local\Temp\ccOlTTki.s:198    .text.dm_cota_perform_sync:000000000000009a .LVL17
C:\Users\stapi\AppData\Local\Temp\ccOlTTki.s:209    .text.dm_cota_perform_sync:00000000000000b4 .LVL20
C:\Users\stapi\AppData\Local\Temp\ccOlTTki.s:213    .text.dm_cota_perform_sync:00000000000000b6 .LVL21
C:\Users\stapi\AppData\Local\Temp\ccOlTTki.s:78     .text.dm_cota_perform_sync:000000000000000e .LVL3
C:\Users\stapi\AppData\Local\Temp\ccOlTTki.s:289    .text.dm_cota_perform_sync:000000000000013e .LVL33
C:\Users\stapi\AppData\Local\Temp\ccOlTTki.s:240    .text.dm_cota_perform_sync:00000000000000ee .LVL25
C:\Users\stapi\AppData\Local\Temp\ccOlTTki.s:314    .text.dm_cota_perform_sync:0000000000000162 .LVL36
C:\Users\stapi\AppData\Local\Temp\ccOlTTki.s:254    .text.dm_cota_perform_sync:0000000000000108 .LVL28
C:\Users\stapi\AppData\Local\Temp\ccOlTTki.s:257    .text.dm_cota_perform_sync:000000000000010a .LVL29
C:\Users\stapi\AppData\Local\Temp\ccOlTTki.s:247    .text.dm_cota_perform_sync:00000000000000fa .LVL27
C:\Users\stapi\AppData\Local\Temp\ccOlTTki.s:276    .text.dm_cota_perform_sync:000000000000012c .LVL30
C:\Users\stapi\AppData\Local\Temp\ccOlTTki.s:279    .text.dm_cota_perform_sync:0000000000000130 .LVL31
C:\Users\stapi\AppData\Local\Temp\ccOlTTki.s:817    .debug_info:0000000000000000 .Ldebug_info0

UNDEFINED SYMBOLS
__riscv_save_12
dm_ota_get_ota_handle
__riscv_restore_12
IOT_OTA_Ioctl
HAL_Firmware_Persistence_Start
IOT_OTA_FetchYield
IOT_OTA_ReportProgress
HAL_Firmware_Persistence_Stop
HAL_Firmware_Persistence_Write
HAL_UptimeMs
IOT_OTA_IsFetchFinish
__riscv_save_2
iotx_ota_get_config
__riscv_restore_2
__riscv_save_6
IOT_OTA_IsFetching
LITE_syslog
strlen
LITE_malloc_internal
memset
HAL_Snprintf
HAL_Printf
_dm_msg_send_to_user
LITE_free_internal
__riscv_restore_6
