   1              		.file	"dm_client.c"
   2              		.option nopic
   3              		.attribute arch, "rv32i2p0_m2p0_a2p0_f2p0_c2p0_b_p0p94"
   4              		.attribute unaligned_access, 0
   5              		.attribute stack_align, 16
   6              		.text
   7              	.Ltext0:
   8              		.cfi_sections	.debug_frame
   9              		.section	.text.dm_client_thing_model_down_raw,"ax",@progbits
  10              		.align	1
  11              		.globl	dm_client_thing_model_down_raw
  13              	dm_client_thing_model_down_raw:
  14              	.LFB25:
  15              		.file 1 "C:/Users/stapi/OneDrive/Desktop/GD32VW553/V1_MQTT_OK/GD32VW55X_Wifi_BLE_SDK/GD32VW55x_REL
   1:C:/Users/stapi/OneDrive/Desktop/GD32VW553/V1_MQTT_OK/GD32VW55X_Wifi_BLE_SDK/GD32VW55x_RELEASE_V1.0.2/MSDK/cloud/alicloud/src/services/linkkit/dm/client\dm_client.c **** #include "iotx_dm_internal.h"
   2:C:/Users/stapi/OneDrive/Desktop/GD32VW553/V1_MQTT_OK/GD32VW55X_Wifi_BLE_SDK/GD32VW55x_RELEASE_V1.0.2/MSDK/cloud/alicloud/src/services/linkkit/dm/client\dm_client.c **** #ifdef LOG_REPORT_TO_CLOUD
   3:C:/Users/stapi/OneDrive/Desktop/GD32VW553/V1_MQTT_OK/GD32VW55X_Wifi_BLE_SDK/GD32VW55x_RELEASE_V1.0.2/MSDK/cloud/alicloud/src/services/linkkit/dm/client\dm_client.c **** #include "iot_export_linkkit.h"
   4:C:/Users/stapi/OneDrive/Desktop/GD32VW553/V1_MQTT_OK/GD32VW55X_Wifi_BLE_SDK/GD32VW55x_RELEASE_V1.0.2/MSDK/cloud/alicloud/src/services/linkkit/dm/client\dm_client.c **** #endif
   5:C:/Users/stapi/OneDrive/Desktop/GD32VW553/V1_MQTT_OK/GD32VW55X_Wifi_BLE_SDK/GD32VW55x_RELEASE_V1.0.2/MSDK/cloud/alicloud/src/services/linkkit/dm/client\dm_client.c **** 
   6:C:/Users/stapi/OneDrive/Desktop/GD32VW553/V1_MQTT_OK/GD32VW55X_Wifi_BLE_SDK/GD32VW55x_RELEASE_V1.0.2/MSDK/cloud/alicloud/src/services/linkkit/dm/client\dm_client.c **** static dm_client_uri_map_t g_dm_client_uri_map[] = {
   7:C:/Users/stapi/OneDrive/Desktop/GD32VW553/V1_MQTT_OK/GD32VW55X_Wifi_BLE_SDK/GD32VW55x_RELEASE_V1.0.2/MSDK/cloud/alicloud/src/services/linkkit/dm/client\dm_client.c **** #if !defined(DEVICE_MODEL_RAWDATA_SOLO)
   8:C:/Users/stapi/OneDrive/Desktop/GD32VW553/V1_MQTT_OK/GD32VW55X_Wifi_BLE_SDK/GD32VW55x_RELEASE_V1.0.2/MSDK/cloud/alicloud/src/services/linkkit/dm/client\dm_client.c ****     {DM_URI_THING_EVENT_POST_REPLY_WILDCARD,  DM_URI_SYS_PREFIX,         IOTX_DM_DEVICE_ALL, (void 
   9:C:/Users/stapi/OneDrive/Desktop/GD32VW553/V1_MQTT_OK/GD32VW55X_Wifi_BLE_SDK/GD32VW55x_RELEASE_V1.0.2/MSDK/cloud/alicloud/src/services/linkkit/dm/client\dm_client.c **** #ifdef LINK_VISUAL_ENABLE /* caution:  index 1~n must be LV topic */
  10:C:/Users/stapi/OneDrive/Desktop/GD32VW553/V1_MQTT_OK/GD32VW55X_Wifi_BLE_SDK/GD32VW55x_RELEASE_V1.0.2/MSDK/cloud/alicloud/src/services/linkkit/dm/client\dm_client.c ****     {DM_URI_LINK_VISUAL_WILDCARD_DOWNSTREAM,  DM_URI_SYS_PREFIX,         IOTX_DM_DEVICE_ALL,     (v
  11:C:/Users/stapi/OneDrive/Desktop/GD32VW553/V1_MQTT_OK/GD32VW55X_Wifi_BLE_SDK/GD32VW55x_RELEASE_V1.0.2/MSDK/cloud/alicloud/src/services/linkkit/dm/client\dm_client.c ****     {DM_URI_LINK_VISUAL_WILDCARD_INVOKE,      DM_URI_SYS_PREFIX,         IOTX_DM_DEVICE_ALL,     (v
  12:C:/Users/stapi/OneDrive/Desktop/GD32VW553/V1_MQTT_OK/GD32VW55X_Wifi_BLE_SDK/GD32VW55x_RELEASE_V1.0.2/MSDK/cloud/alicloud/src/services/linkkit/dm/client\dm_client.c ****     {DM_URI_LINK_VISUAL_WILDCARD_DOWNSTREAM_2,DM_URI_SYS_PREFIX,         IOTX_DM_DEVICE_ALL,     (v
  13:C:/Users/stapi/OneDrive/Desktop/GD32VW553/V1_MQTT_OK/GD32VW55X_Wifi_BLE_SDK/GD32VW55x_RELEASE_V1.0.2/MSDK/cloud/alicloud/src/services/linkkit/dm/client\dm_client.c ****     {DM_URI_LINK_VISUAL_WILDCARD_INVOKE_2,    DM_URI_SYS_PREFIX,         IOTX_DM_DEVICE_ALL,     (v
  14:C:/Users/stapi/OneDrive/Desktop/GD32VW553/V1_MQTT_OK/GD32VW55X_Wifi_BLE_SDK/GD32VW55x_RELEASE_V1.0.2/MSDK/cloud/alicloud/src/services/linkkit/dm/client\dm_client.c **** #endif
  15:C:/Users/stapi/OneDrive/Desktop/GD32VW553/V1_MQTT_OK/GD32VW55X_Wifi_BLE_SDK/GD32VW55x_RELEASE_V1.0.2/MSDK/cloud/alicloud/src/services/linkkit/dm/client\dm_client.c ****     {DM_URI_THING_SERVICE_PROPERTY_SET,       DM_URI_SYS_PREFIX,         IOTX_DM_DEVICE_ALL, (void 
  16:C:/Users/stapi/OneDrive/Desktop/GD32VW553/V1_MQTT_OK/GD32VW55X_Wifi_BLE_SDK/GD32VW55x_RELEASE_V1.0.2/MSDK/cloud/alicloud/src/services/linkkit/dm/client\dm_client.c ****     {DM_URI_THING_SERVICE_REQUEST_WILDCARD,   DM_URI_SYS_PREFIX,         IOTX_DM_DEVICE_ALL, (void 
  17:C:/Users/stapi/OneDrive/Desktop/GD32VW553/V1_MQTT_OK/GD32VW55X_Wifi_BLE_SDK/GD32VW55x_RELEASE_V1.0.2/MSDK/cloud/alicloud/src/services/linkkit/dm/client\dm_client.c ****     {DM_URI_THING_DEVICEINFO_UPDATE_REPLY,    DM_URI_SYS_PREFIX,         IOTX_DM_DEVICE_ALL, (void 
  18:C:/Users/stapi/OneDrive/Desktop/GD32VW553/V1_MQTT_OK/GD32VW55X_Wifi_BLE_SDK/GD32VW55x_RELEASE_V1.0.2/MSDK/cloud/alicloud/src/services/linkkit/dm/client\dm_client.c ****     {DM_URI_THING_DEVICEINFO_DELETE_REPLY,    DM_URI_SYS_PREFIX,         IOTX_DM_DEVICE_ALL, (void 
  19:C:/Users/stapi/OneDrive/Desktop/GD32VW553/V1_MQTT_OK/GD32VW55X_Wifi_BLE_SDK/GD32VW55x_RELEASE_V1.0.2/MSDK/cloud/alicloud/src/services/linkkit/dm/client\dm_client.c **** #endif
  20:C:/Users/stapi/OneDrive/Desktop/GD32VW553/V1_MQTT_OK/GD32VW55X_Wifi_BLE_SDK/GD32VW55x_RELEASE_V1.0.2/MSDK/cloud/alicloud/src/services/linkkit/dm/client\dm_client.c **** 
  21:C:/Users/stapi/OneDrive/Desktop/GD32VW553/V1_MQTT_OK/GD32VW55X_Wifi_BLE_SDK/GD32VW55x_RELEASE_V1.0.2/MSDK/cloud/alicloud/src/services/linkkit/dm/client\dm_client.c ****     {DM_URI_THING_EVENT_NOTIFY,               DM_URI_SYS_PREFIX,         IOTX_DM_DEVICE_ALL, (void 
  22:C:/Users/stapi/OneDrive/Desktop/GD32VW553/V1_MQTT_OK/GD32VW55X_Wifi_BLE_SDK/GD32VW55x_RELEASE_V1.0.2/MSDK/cloud/alicloud/src/services/linkkit/dm/client\dm_client.c ****     {DM_URI_RRPC_REQUEST_WILDCARD,            DM_URI_SYS_PREFIX,         IOTX_DM_DEVICE_ALL, (void 
  23:C:/Users/stapi/OneDrive/Desktop/GD32VW553/V1_MQTT_OK/GD32VW55X_Wifi_BLE_SDK/GD32VW55x_RELEASE_V1.0.2/MSDK/cloud/alicloud/src/services/linkkit/dm/client\dm_client.c ****     {DM_URI_NTP_RESPONSE,                     DM_URI_EXT_NTP_PREFIX,     IOTX_DM_DEVICE_ALL, (void 
  24:C:/Users/stapi/OneDrive/Desktop/GD32VW553/V1_MQTT_OK/GD32VW55X_Wifi_BLE_SDK/GD32VW55x_RELEASE_V1.0.2/MSDK/cloud/alicloud/src/services/linkkit/dm/client\dm_client.c ****     {NULL,                                    DM_URI_EXT_ERROR_PREFIX,   IOTX_DM_DEVICE_ALL, (void 
  25:C:/Users/stapi/OneDrive/Desktop/GD32VW553/V1_MQTT_OK/GD32VW55X_Wifi_BLE_SDK/GD32VW55x_RELEASE_V1.0.2/MSDK/cloud/alicloud/src/services/linkkit/dm/client\dm_client.c **** 
  26:C:/Users/stapi/OneDrive/Desktop/GD32VW553/V1_MQTT_OK/GD32VW55X_Wifi_BLE_SDK/GD32VW55x_RELEASE_V1.0.2/MSDK/cloud/alicloud/src/services/linkkit/dm/client\dm_client.c ****     {DM_URI_THING_MODEL_DOWN_RAW,             DM_URI_SYS_PREFIX,         IOTX_DM_DEVICE_ALL, (void 
  27:C:/Users/stapi/OneDrive/Desktop/GD32VW553/V1_MQTT_OK/GD32VW55X_Wifi_BLE_SDK/GD32VW55x_RELEASE_V1.0.2/MSDK/cloud/alicloud/src/services/linkkit/dm/client\dm_client.c ****     {DM_URI_THING_MODEL_UP_RAW_REPLY,         DM_URI_SYS_PREFIX,         IOTX_DM_DEVICE_ALL, (void 
  28:C:/Users/stapi/OneDrive/Desktop/GD32VW553/V1_MQTT_OK/GD32VW55X_Wifi_BLE_SDK/GD32VW55x_RELEASE_V1.0.2/MSDK/cloud/alicloud/src/services/linkkit/dm/client\dm_client.c **** 
  29:C:/Users/stapi/OneDrive/Desktop/GD32VW553/V1_MQTT_OK/GD32VW55X_Wifi_BLE_SDK/GD32VW55x_RELEASE_V1.0.2/MSDK/cloud/alicloud/src/services/linkkit/dm/client\dm_client.c **** #ifdef DM_UNIFIED_SERVICE_POST
  30:C:/Users/stapi/OneDrive/Desktop/GD32VW553/V1_MQTT_OK/GD32VW55X_Wifi_BLE_SDK/GD32VW55x_RELEASE_V1.0.2/MSDK/cloud/alicloud/src/services/linkkit/dm/client\dm_client.c ****     {DM_URI_UNIFIED_SERVICE_POST_REPLY,       DM_URI_SYS_PREFIX,         IOTX_DM_DEVICE_ALL, (void 
  31:C:/Users/stapi/OneDrive/Desktop/GD32VW553/V1_MQTT_OK/GD32VW55X_Wifi_BLE_SDK/GD32VW55x_RELEASE_V1.0.2/MSDK/cloud/alicloud/src/services/linkkit/dm/client\dm_client.c **** #endif
  32:C:/Users/stapi/OneDrive/Desktop/GD32VW553/V1_MQTT_OK/GD32VW55X_Wifi_BLE_SDK/GD32VW55x_RELEASE_V1.0.2/MSDK/cloud/alicloud/src/services/linkkit/dm/client\dm_client.c **** 
  33:C:/Users/stapi/OneDrive/Desktop/GD32VW553/V1_MQTT_OK/GD32VW55X_Wifi_BLE_SDK/GD32VW55x_RELEASE_V1.0.2/MSDK/cloud/alicloud/src/services/linkkit/dm/client\dm_client.c **** #ifdef DEVICE_MODEL_GATEWAY
  34:C:/Users/stapi/OneDrive/Desktop/GD32VW553/V1_MQTT_OK/GD32VW55X_Wifi_BLE_SDK/GD32VW55x_RELEASE_V1.0.2/MSDK/cloud/alicloud/src/services/linkkit/dm/client\dm_client.c ****     {DM_URI_THING_TOPO_ADD_NOTIFY,            DM_URI_SYS_PREFIX,         IOTX_DM_DEVICE_GATEWAY, (v
  35:C:/Users/stapi/OneDrive/Desktop/GD32VW553/V1_MQTT_OK/GD32VW55X_Wifi_BLE_SDK/GD32VW55x_RELEASE_V1.0.2/MSDK/cloud/alicloud/src/services/linkkit/dm/client\dm_client.c ****     {DM_URI_THING_GATEWAY_PERMIT,             DM_URI_SYS_PREFIX,         IOTX_DM_DEVICE_GATEWAY, (v
  36:C:/Users/stapi/OneDrive/Desktop/GD32VW553/V1_MQTT_OK/GD32VW55X_Wifi_BLE_SDK/GD32VW55x_RELEASE_V1.0.2/MSDK/cloud/alicloud/src/services/linkkit/dm/client\dm_client.c ****     {DM_URI_THING_SUB_REGISTER_REPLY,         DM_URI_SYS_PREFIX,         IOTX_DM_DEVICE_GATEWAY, (v
  37:C:/Users/stapi/OneDrive/Desktop/GD32VW553/V1_MQTT_OK/GD32VW55X_Wifi_BLE_SDK/GD32VW55x_RELEASE_V1.0.2/MSDK/cloud/alicloud/src/services/linkkit/dm/client\dm_client.c ****     {DM_URI_THING_SUB_UNREGISTER_REPLY,       DM_URI_SYS_PREFIX,         IOTX_DM_DEVICE_GATEWAY, (v
  38:C:/Users/stapi/OneDrive/Desktop/GD32VW553/V1_MQTT_OK/GD32VW55X_Wifi_BLE_SDK/GD32VW55x_RELEASE_V1.0.2/MSDK/cloud/alicloud/src/services/linkkit/dm/client\dm_client.c ****     {DM_URI_THING_TOPO_ADD_REPLY,             DM_URI_SYS_PREFIX,         IOTX_DM_DEVICE_GATEWAY, (v
  39:C:/Users/stapi/OneDrive/Desktop/GD32VW553/V1_MQTT_OK/GD32VW55X_Wifi_BLE_SDK/GD32VW55x_RELEASE_V1.0.2/MSDK/cloud/alicloud/src/services/linkkit/dm/client\dm_client.c ****     {DM_URI_THING_TOPO_DELETE_REPLY,          DM_URI_SYS_PREFIX,         IOTX_DM_DEVICE_GATEWAY, (v
  40:C:/Users/stapi/OneDrive/Desktop/GD32VW553/V1_MQTT_OK/GD32VW55X_Wifi_BLE_SDK/GD32VW55x_RELEASE_V1.0.2/MSDK/cloud/alicloud/src/services/linkkit/dm/client\dm_client.c ****     {DM_URI_THING_SUB_RESET_REPLY,            DM_URI_SYS_PREFIX,         IOTX_DM_DEVICE_GATEWAY, (v
  41:C:/Users/stapi/OneDrive/Desktop/GD32VW553/V1_MQTT_OK/GD32VW55X_Wifi_BLE_SDK/GD32VW55x_RELEASE_V1.0.2/MSDK/cloud/alicloud/src/services/linkkit/dm/client\dm_client.c ****     {DM_URI_THING_TOPO_GET_REPLY,             DM_URI_SYS_PREFIX,         IOTX_DM_DEVICE_GATEWAY, (v
  42:C:/Users/stapi/OneDrive/Desktop/GD32VW553/V1_MQTT_OK/GD32VW55X_Wifi_BLE_SDK/GD32VW55x_RELEASE_V1.0.2/MSDK/cloud/alicloud/src/services/linkkit/dm/client\dm_client.c ****     //{DM_URI_THING_TOPO_CHANGE,                DM_URI_SYS_PREFIX,         IOTX_DM_DEVICE_GATEWAY, 
  43:C:/Users/stapi/OneDrive/Desktop/GD32VW553/V1_MQTT_OK/GD32VW55X_Wifi_BLE_SDK/GD32VW55x_RELEASE_V1.0.2/MSDK/cloud/alicloud/src/services/linkkit/dm/client\dm_client.c ****     {DM_URI_THING_LIST_FOUND_REPLY,           DM_URI_SYS_PREFIX,         IOTX_DM_DEVICE_GATEWAY, (v
  44:C:/Users/stapi/OneDrive/Desktop/GD32VW553/V1_MQTT_OK/GD32VW55X_Wifi_BLE_SDK/GD32VW55x_RELEASE_V1.0.2/MSDK/cloud/alicloud/src/services/linkkit/dm/client\dm_client.c **** 
  45:C:/Users/stapi/OneDrive/Desktop/GD32VW553/V1_MQTT_OK/GD32VW55X_Wifi_BLE_SDK/GD32VW55x_RELEASE_V1.0.2/MSDK/cloud/alicloud/src/services/linkkit/dm/client\dm_client.c ****     {DM_URI_COMBINE_BATCH_LOGIN_REPLY,        DM_URI_EXT_SESSION_PREFIX, IOTX_DM_DEVICE_GATEWAY, (v
  46:C:/Users/stapi/OneDrive/Desktop/GD32VW553/V1_MQTT_OK/GD32VW55X_Wifi_BLE_SDK/GD32VW55x_RELEASE_V1.0.2/MSDK/cloud/alicloud/src/services/linkkit/dm/client\dm_client.c ****     {DM_URI_COMBINE_BATCH_LOGOUT_REPLY,       DM_URI_EXT_SESSION_PREFIX, IOTX_DM_DEVICE_GATEWAY, (v
  47:C:/Users/stapi/OneDrive/Desktop/GD32VW553/V1_MQTT_OK/GD32VW55X_Wifi_BLE_SDK/GD32VW55x_RELEASE_V1.0.2/MSDK/cloud/alicloud/src/services/linkkit/dm/client\dm_client.c **** 
  48:C:/Users/stapi/OneDrive/Desktop/GD32VW553/V1_MQTT_OK/GD32VW55X_Wifi_BLE_SDK/GD32VW55x_RELEASE_V1.0.2/MSDK/cloud/alicloud/src/services/linkkit/dm/client\dm_client.c ****     {DM_URI_THING_DISABLE,                    DM_URI_SYS_PREFIX,         IOTX_DM_DEVICE_GATEWAY, (v
  49:C:/Users/stapi/OneDrive/Desktop/GD32VW553/V1_MQTT_OK/GD32VW55X_Wifi_BLE_SDK/GD32VW55x_RELEASE_V1.0.2/MSDK/cloud/alicloud/src/services/linkkit/dm/client\dm_client.c ****     {DM_URI_THING_ENABLE,                     DM_URI_SYS_PREFIX,         IOTX_DM_DEVICE_GATEWAY, (v
  50:C:/Users/stapi/OneDrive/Desktop/GD32VW553/V1_MQTT_OK/GD32VW55X_Wifi_BLE_SDK/GD32VW55x_RELEASE_V1.0.2/MSDK/cloud/alicloud/src/services/linkkit/dm/client\dm_client.c ****     {DM_URI_THING_DELETE,                     DM_URI_SYS_PREFIX,         IOTX_DM_DEVICE_GATEWAY, (v
  51:C:/Users/stapi/OneDrive/Desktop/GD32VW553/V1_MQTT_OK/GD32VW55X_Wifi_BLE_SDK/GD32VW55x_RELEASE_V1.0.2/MSDK/cloud/alicloud/src/services/linkkit/dm/client\dm_client.c **** #endif
  52:C:/Users/stapi/OneDrive/Desktop/GD32VW553/V1_MQTT_OK/GD32VW55X_Wifi_BLE_SDK/GD32VW55x_RELEASE_V1.0.2/MSDK/cloud/alicloud/src/services/linkkit/dm/client\dm_client.c **** };
  53:C:/Users/stapi/OneDrive/Desktop/GD32VW553/V1_MQTT_OK/GD32VW55X_Wifi_BLE_SDK/GD32VW55x_RELEASE_V1.0.2/MSDK/cloud/alicloud/src/services/linkkit/dm/client\dm_client.c **** 
  54:C:/Users/stapi/OneDrive/Desktop/GD32VW553/V1_MQTT_OK/GD32VW55X_Wifi_BLE_SDK/GD32VW55x_RELEASE_V1.0.2/MSDK/cloud/alicloud/src/services/linkkit/dm/client\dm_client.c **** #if !defined(DEVICE_MODEL_RAWDATA_SOLO)
  55:C:/Users/stapi/OneDrive/Desktop/GD32VW553/V1_MQTT_OK/GD32VW55X_Wifi_BLE_SDK/GD32VW55x_RELEASE_V1.0.2/MSDK/cloud/alicloud/src/services/linkkit/dm/client\dm_client.c **** /* property/event post reply filter */
  56:C:/Users/stapi/OneDrive/Desktop/GD32VW553/V1_MQTT_OK/GD32VW55X_Wifi_BLE_SDK/GD32VW55x_RELEASE_V1.0.2/MSDK/cloud/alicloud/src/services/linkkit/dm/client\dm_client.c **** static int _dm_client_subscribe_filter(char *uri, iotx_cm_data_handle_cb cb)
  57:C:/Users/stapi/OneDrive/Desktop/GD32VW553/V1_MQTT_OK/GD32VW55X_Wifi_BLE_SDK/GD32VW55x_RELEASE_V1.0.2/MSDK/cloud/alicloud/src/services/linkkit/dm/client\dm_client.c **** {
  58:C:/Users/stapi/OneDrive/Desktop/GD32VW553/V1_MQTT_OK/GD32VW55X_Wifi_BLE_SDK/GD32VW55x_RELEASE_V1.0.2/MSDK/cloud/alicloud/src/services/linkkit/dm/client\dm_client.c ****     int res = 0;
  59:C:/Users/stapi/OneDrive/Desktop/GD32VW553/V1_MQTT_OK/GD32VW55X_Wifi_BLE_SDK/GD32VW55x_RELEASE_V1.0.2/MSDK/cloud/alicloud/src/services/linkkit/dm/client\dm_client.c ****     int event_post_reply_opt = 0;
  60:C:/Users/stapi/OneDrive/Desktop/GD32VW553/V1_MQTT_OK/GD32VW55X_Wifi_BLE_SDK/GD32VW55x_RELEASE_V1.0.2/MSDK/cloud/alicloud/src/services/linkkit/dm/client\dm_client.c ****     int retry_cnt = IOTX_DM_CLIENT_SUB_RETRY_MAX_COUNTS;
  61:C:/Users/stapi/OneDrive/Desktop/GD32VW553/V1_MQTT_OK/GD32VW55X_Wifi_BLE_SDK/GD32VW55x_RELEASE_V1.0.2/MSDK/cloud/alicloud/src/services/linkkit/dm/client\dm_client.c **** 
  62:C:/Users/stapi/OneDrive/Desktop/GD32VW553/V1_MQTT_OK/GD32VW55X_Wifi_BLE_SDK/GD32VW55x_RELEASE_V1.0.2/MSDK/cloud/alicloud/src/services/linkkit/dm/client\dm_client.c ****     res = dm_opt_get(DM_OPT_DOWNSTREAM_EVENT_POST_REPLY, &event_post_reply_opt);
  63:C:/Users/stapi/OneDrive/Desktop/GD32VW553/V1_MQTT_OK/GD32VW55X_Wifi_BLE_SDK/GD32VW55x_RELEASE_V1.0.2/MSDK/cloud/alicloud/src/services/linkkit/dm/client\dm_client.c ****     if (res != SUCCESS_RETURN) {
  64:C:/Users/stapi/OneDrive/Desktop/GD32VW553/V1_MQTT_OK/GD32VW55X_Wifi_BLE_SDK/GD32VW55x_RELEASE_V1.0.2/MSDK/cloud/alicloud/src/services/linkkit/dm/client\dm_client.c ****         return res;
  65:C:/Users/stapi/OneDrive/Desktop/GD32VW553/V1_MQTT_OK/GD32VW55X_Wifi_BLE_SDK/GD32VW55x_RELEASE_V1.0.2/MSDK/cloud/alicloud/src/services/linkkit/dm/client\dm_client.c ****     }
  66:C:/Users/stapi/OneDrive/Desktop/GD32VW553/V1_MQTT_OK/GD32VW55X_Wifi_BLE_SDK/GD32VW55x_RELEASE_V1.0.2/MSDK/cloud/alicloud/src/services/linkkit/dm/client\dm_client.c **** 
  67:C:/Users/stapi/OneDrive/Desktop/GD32VW553/V1_MQTT_OK/GD32VW55X_Wifi_BLE_SDK/GD32VW55x_RELEASE_V1.0.2/MSDK/cloud/alicloud/src/services/linkkit/dm/client\dm_client.c ****     if (event_post_reply_opt == 0) {
  68:C:/Users/stapi/OneDrive/Desktop/GD32VW553/V1_MQTT_OK/GD32VW55X_Wifi_BLE_SDK/GD32VW55x_RELEASE_V1.0.2/MSDK/cloud/alicloud/src/services/linkkit/dm/client\dm_client.c ****         res = dm_client_unsubscribe(uri);
  69:C:/Users/stapi/OneDrive/Desktop/GD32VW553/V1_MQTT_OK/GD32VW55X_Wifi_BLE_SDK/GD32VW55x_RELEASE_V1.0.2/MSDK/cloud/alicloud/src/services/linkkit/dm/client\dm_client.c ****         return res;
  70:C:/Users/stapi/OneDrive/Desktop/GD32VW553/V1_MQTT_OK/GD32VW55X_Wifi_BLE_SDK/GD32VW55x_RELEASE_V1.0.2/MSDK/cloud/alicloud/src/services/linkkit/dm/client\dm_client.c ****     }
  71:C:/Users/stapi/OneDrive/Desktop/GD32VW553/V1_MQTT_OK/GD32VW55X_Wifi_BLE_SDK/GD32VW55x_RELEASE_V1.0.2/MSDK/cloud/alicloud/src/services/linkkit/dm/client\dm_client.c ****     else {
  72:C:/Users/stapi/OneDrive/Desktop/GD32VW553/V1_MQTT_OK/GD32VW55X_Wifi_BLE_SDK/GD32VW55x_RELEASE_V1.0.2/MSDK/cloud/alicloud/src/services/linkkit/dm/client\dm_client.c ****         res = -1;
  73:C:/Users/stapi/OneDrive/Desktop/GD32VW553/V1_MQTT_OK/GD32VW55X_Wifi_BLE_SDK/GD32VW55x_RELEASE_V1.0.2/MSDK/cloud/alicloud/src/services/linkkit/dm/client\dm_client.c ****         while (res < SUCCESS_RETURN && retry_cnt--) {
  74:C:/Users/stapi/OneDrive/Desktop/GD32VW553/V1_MQTT_OK/GD32VW55X_Wifi_BLE_SDK/GD32VW55x_RELEASE_V1.0.2/MSDK/cloud/alicloud/src/services/linkkit/dm/client\dm_client.c ****             res = dm_client_subscribe(uri, cb, 0);
  75:C:/Users/stapi/OneDrive/Desktop/GD32VW553/V1_MQTT_OK/GD32VW55X_Wifi_BLE_SDK/GD32VW55x_RELEASE_V1.0.2/MSDK/cloud/alicloud/src/services/linkkit/dm/client\dm_client.c ****         }
  76:C:/Users/stapi/OneDrive/Desktop/GD32VW553/V1_MQTT_OK/GD32VW55X_Wifi_BLE_SDK/GD32VW55x_RELEASE_V1.0.2/MSDK/cloud/alicloud/src/services/linkkit/dm/client\dm_client.c ****         return res;
  77:C:/Users/stapi/OneDrive/Desktop/GD32VW553/V1_MQTT_OK/GD32VW55X_Wifi_BLE_SDK/GD32VW55x_RELEASE_V1.0.2/MSDK/cloud/alicloud/src/services/linkkit/dm/client\dm_client.c ****     }
  78:C:/Users/stapi/OneDrive/Desktop/GD32VW553/V1_MQTT_OK/GD32VW55X_Wifi_BLE_SDK/GD32VW55x_RELEASE_V1.0.2/MSDK/cloud/alicloud/src/services/linkkit/dm/client\dm_client.c **** }
  79:C:/Users/stapi/OneDrive/Desktop/GD32VW553/V1_MQTT_OK/GD32VW55X_Wifi_BLE_SDK/GD32VW55x_RELEASE_V1.0.2/MSDK/cloud/alicloud/src/services/linkkit/dm/client\dm_client.c **** #endif /* #if !defined(DEVICE_MODEL_RAWDATA_SOLO) */
  80:C:/Users/stapi/OneDrive/Desktop/GD32VW553/V1_MQTT_OK/GD32VW55X_Wifi_BLE_SDK/GD32VW55x_RELEASE_V1.0.2/MSDK/cloud/alicloud/src/services/linkkit/dm/client\dm_client.c **** 
  81:C:/Users/stapi/OneDrive/Desktop/GD32VW553/V1_MQTT_OK/GD32VW55X_Wifi_BLE_SDK/GD32VW55x_RELEASE_V1.0.2/MSDK/cloud/alicloud/src/services/linkkit/dm/client\dm_client.c **** int dm_client_subscribe_all(int devid, char product_key[IOTX_PRODUCT_KEY_LEN + 1], char device_name
  82:C:/Users/stapi/OneDrive/Desktop/GD32VW553/V1_MQTT_OK/GD32VW55X_Wifi_BLE_SDK/GD32VW55x_RELEASE_V1.0.2/MSDK/cloud/alicloud/src/services/linkkit/dm/client\dm_client.c ****                             int dev_type)
  83:C:/Users/stapi/OneDrive/Desktop/GD32VW553/V1_MQTT_OK/GD32VW55X_Wifi_BLE_SDK/GD32VW55x_RELEASE_V1.0.2/MSDK/cloud/alicloud/src/services/linkkit/dm/client\dm_client.c **** {
  84:C:/Users/stapi/OneDrive/Desktop/GD32VW553/V1_MQTT_OK/GD32VW55X_Wifi_BLE_SDK/GD32VW55x_RELEASE_V1.0.2/MSDK/cloud/alicloud/src/services/linkkit/dm/client\dm_client.c ****     int res = 0, index = 0;
  85:C:/Users/stapi/OneDrive/Desktop/GD32VW553/V1_MQTT_OK/GD32VW55X_Wifi_BLE_SDK/GD32VW55x_RELEASE_V1.0.2/MSDK/cloud/alicloud/src/services/linkkit/dm/client\dm_client.c ****     int number = sizeof(g_dm_client_uri_map) / sizeof(dm_client_uri_map_t);
  86:C:/Users/stapi/OneDrive/Desktop/GD32VW553/V1_MQTT_OK/GD32VW55X_Wifi_BLE_SDK/GD32VW55x_RELEASE_V1.0.2/MSDK/cloud/alicloud/src/services/linkkit/dm/client\dm_client.c ****     char *uri = NULL;
  87:C:/Users/stapi/OneDrive/Desktop/GD32VW553/V1_MQTT_OK/GD32VW55X_Wifi_BLE_SDK/GD32VW55x_RELEASE_V1.0.2/MSDK/cloud/alicloud/src/services/linkkit/dm/client\dm_client.c ****     uint8_t local_sub = 0;
  88:C:/Users/stapi/OneDrive/Desktop/GD32VW553/V1_MQTT_OK/GD32VW55X_Wifi_BLE_SDK/GD32VW55x_RELEASE_V1.0.2/MSDK/cloud/alicloud/src/services/linkkit/dm/client\dm_client.c **** 
  89:C:/Users/stapi/OneDrive/Desktop/GD32VW553/V1_MQTT_OK/GD32VW55X_Wifi_BLE_SDK/GD32VW55x_RELEASE_V1.0.2/MSDK/cloud/alicloud/src/services/linkkit/dm/client\dm_client.c **** #if !defined(DEVICE_MODEL_RAWDATA_SOLO)
  90:C:/Users/stapi/OneDrive/Desktop/GD32VW553/V1_MQTT_OK/GD32VW55X_Wifi_BLE_SDK/GD32VW55x_RELEASE_V1.0.2/MSDK/cloud/alicloud/src/services/linkkit/dm/client\dm_client.c ****     #ifndef LINK_VISUAL_ENABLE
  91:C:/Users/stapi/OneDrive/Desktop/GD32VW553/V1_MQTT_OK/GD32VW55X_Wifi_BLE_SDK/GD32VW55x_RELEASE_V1.0.2/MSDK/cloud/alicloud/src/services/linkkit/dm/client\dm_client.c ****         /* index 0 must be DM_URI_THING_EVENT_POST_REPLY_WILDCARD */
  92:C:/Users/stapi/OneDrive/Desktop/GD32VW553/V1_MQTT_OK/GD32VW55X_Wifi_BLE_SDK/GD32VW55x_RELEASE_V1.0.2/MSDK/cloud/alicloud/src/services/linkkit/dm/client\dm_client.c ****         res = dm_utils_service_name((char *)g_dm_client_uri_map[0].uri_prefix, (char *)g_dm_client_
  93:C:/Users/stapi/OneDrive/Desktop/GD32VW553/V1_MQTT_OK/GD32VW55X_Wifi_BLE_SDK/GD32VW55x_RELEASE_V1.0.2/MSDK/cloud/alicloud/src/services/linkkit/dm/client\dm_client.c ****                         product_key, device_name, &uri);
  94:C:/Users/stapi/OneDrive/Desktop/GD32VW553/V1_MQTT_OK/GD32VW55X_Wifi_BLE_SDK/GD32VW55x_RELEASE_V1.0.2/MSDK/cloud/alicloud/src/services/linkkit/dm/client\dm_client.c ****         if (res == SUCCESS_RETURN) {
  95:C:/Users/stapi/OneDrive/Desktop/GD32VW553/V1_MQTT_OK/GD32VW55X_Wifi_BLE_SDK/GD32VW55x_RELEASE_V1.0.2/MSDK/cloud/alicloud/src/services/linkkit/dm/client\dm_client.c ****             _dm_client_subscribe_filter(uri, (iotx_cm_data_handle_cb)g_dm_client_uri_map[0].callbac
  96:C:/Users/stapi/OneDrive/Desktop/GD32VW553/V1_MQTT_OK/GD32VW55X_Wifi_BLE_SDK/GD32VW55x_RELEASE_V1.0.2/MSDK/cloud/alicloud/src/services/linkkit/dm/client\dm_client.c ****             DM_free(uri);
  97:C:/Users/stapi/OneDrive/Desktop/GD32VW553/V1_MQTT_OK/GD32VW55X_Wifi_BLE_SDK/GD32VW55x_RELEASE_V1.0.2/MSDK/cloud/alicloud/src/services/linkkit/dm/client\dm_client.c ****         }
  98:C:/Users/stapi/OneDrive/Desktop/GD32VW553/V1_MQTT_OK/GD32VW55X_Wifi_BLE_SDK/GD32VW55x_RELEASE_V1.0.2/MSDK/cloud/alicloud/src/services/linkkit/dm/client\dm_client.c ****         index = 1;
  99:C:/Users/stapi/OneDrive/Desktop/GD32VW553/V1_MQTT_OK/GD32VW55X_Wifi_BLE_SDK/GD32VW55x_RELEASE_V1.0.2/MSDK/cloud/alicloud/src/services/linkkit/dm/client\dm_client.c ****     #endif
 100:C:/Users/stapi/OneDrive/Desktop/GD32VW553/V1_MQTT_OK/GD32VW55X_Wifi_BLE_SDK/GD32VW55x_RELEASE_V1.0.2/MSDK/cloud/alicloud/src/services/linkkit/dm/client\dm_client.c **** #else
 101:C:/Users/stapi/OneDrive/Desktop/GD32VW553/V1_MQTT_OK/GD32VW55X_Wifi_BLE_SDK/GD32VW55x_RELEASE_V1.0.2/MSDK/cloud/alicloud/src/services/linkkit/dm/client\dm_client.c ****     index = 0;
 102:C:/Users/stapi/OneDrive/Desktop/GD32VW553/V1_MQTT_OK/GD32VW55X_Wifi_BLE_SDK/GD32VW55x_RELEASE_V1.0.2/MSDK/cloud/alicloud/src/services/linkkit/dm/client\dm_client.c **** #endif
 103:C:/Users/stapi/OneDrive/Desktop/GD32VW553/V1_MQTT_OK/GD32VW55X_Wifi_BLE_SDK/GD32VW55x_RELEASE_V1.0.2/MSDK/cloud/alicloud/src/services/linkkit/dm/client\dm_client.c **** 
 104:C:/Users/stapi/OneDrive/Desktop/GD32VW553/V1_MQTT_OK/GD32VW55X_Wifi_BLE_SDK/GD32VW55x_RELEASE_V1.0.2/MSDK/cloud/alicloud/src/services/linkkit/dm/client\dm_client.c ****     for (; index < number; index++) {
 105:C:/Users/stapi/OneDrive/Desktop/GD32VW553/V1_MQTT_OK/GD32VW55X_Wifi_BLE_SDK/GD32VW55x_RELEASE_V1.0.2/MSDK/cloud/alicloud/src/services/linkkit/dm/client\dm_client.c ****         if ((g_dm_client_uri_map[index].dev_type & dev_type) == 0) {
 106:C:/Users/stapi/OneDrive/Desktop/GD32VW553/V1_MQTT_OK/GD32VW55X_Wifi_BLE_SDK/GD32VW55x_RELEASE_V1.0.2/MSDK/cloud/alicloud/src/services/linkkit/dm/client\dm_client.c ****             continue;
 107:C:/Users/stapi/OneDrive/Desktop/GD32VW553/V1_MQTT_OK/GD32VW55X_Wifi_BLE_SDK/GD32VW55x_RELEASE_V1.0.2/MSDK/cloud/alicloud/src/services/linkkit/dm/client\dm_client.c ****         }
 108:C:/Users/stapi/OneDrive/Desktop/GD32VW553/V1_MQTT_OK/GD32VW55X_Wifi_BLE_SDK/GD32VW55x_RELEASE_V1.0.2/MSDK/cloud/alicloud/src/services/linkkit/dm/client\dm_client.c **** 
 109:C:/Users/stapi/OneDrive/Desktop/GD32VW553/V1_MQTT_OK/GD32VW55X_Wifi_BLE_SDK/GD32VW55x_RELEASE_V1.0.2/MSDK/cloud/alicloud/src/services/linkkit/dm/client\dm_client.c **** #ifdef MQTT_AUTO_SUBSCRIBE
 110:C:/Users/stapi/OneDrive/Desktop/GD32VW553/V1_MQTT_OK/GD32VW55X_Wifi_BLE_SDK/GD32VW55x_RELEASE_V1.0.2/MSDK/cloud/alicloud/src/services/linkkit/dm/client\dm_client.c ****         res = dm_utils_service_name((char *)g_dm_client_uri_map[index].uri_prefix, (char *)g_dm_cli
 111:C:/Users/stapi/OneDrive/Desktop/GD32VW553/V1_MQTT_OK/GD32VW55X_Wifi_BLE_SDK/GD32VW55x_RELEASE_V1.0.2/MSDK/cloud/alicloud/src/services/linkkit/dm/client\dm_client.c ****                                     "+", "+", &uri);    /* plus sign wildcards used */
 112:C:/Users/stapi/OneDrive/Desktop/GD32VW553/V1_MQTT_OK/GD32VW55X_Wifi_BLE_SDK/GD32VW55x_RELEASE_V1.0.2/MSDK/cloud/alicloud/src/services/linkkit/dm/client\dm_client.c ****         if (res < SUCCESS_RETURN) {
 113:C:/Users/stapi/OneDrive/Desktop/GD32VW553/V1_MQTT_OK/GD32VW55X_Wifi_BLE_SDK/GD32VW55x_RELEASE_V1.0.2/MSDK/cloud/alicloud/src/services/linkkit/dm/client\dm_client.c ****             continue;
 114:C:/Users/stapi/OneDrive/Desktop/GD32VW553/V1_MQTT_OK/GD32VW55X_Wifi_BLE_SDK/GD32VW55x_RELEASE_V1.0.2/MSDK/cloud/alicloud/src/services/linkkit/dm/client\dm_client.c ****         }
 115:C:/Users/stapi/OneDrive/Desktop/GD32VW553/V1_MQTT_OK/GD32VW55X_Wifi_BLE_SDK/GD32VW55x_RELEASE_V1.0.2/MSDK/cloud/alicloud/src/services/linkkit/dm/client\dm_client.c **** 
 116:C:/Users/stapi/OneDrive/Desktop/GD32VW553/V1_MQTT_OK/GD32VW55X_Wifi_BLE_SDK/GD32VW55x_RELEASE_V1.0.2/MSDK/cloud/alicloud/src/services/linkkit/dm/client\dm_client.c ****         local_sub = 1;
 117:C:/Users/stapi/OneDrive/Desktop/GD32VW553/V1_MQTT_OK/GD32VW55X_Wifi_BLE_SDK/GD32VW55x_RELEASE_V1.0.2/MSDK/cloud/alicloud/src/services/linkkit/dm/client\dm_client.c ****         res = dm_client_subscribe(uri, (iotx_cm_data_handle_cb)g_dm_client_uri_map[index].callback,
 118:C:/Users/stapi/OneDrive/Desktop/GD32VW553/V1_MQTT_OK/GD32VW55X_Wifi_BLE_SDK/GD32VW55x_RELEASE_V1.0.2/MSDK/cloud/alicloud/src/services/linkkit/dm/client\dm_client.c ****         DM_free(uri);
 119:C:/Users/stapi/OneDrive/Desktop/GD32VW553/V1_MQTT_OK/GD32VW55X_Wifi_BLE_SDK/GD32VW55x_RELEASE_V1.0.2/MSDK/cloud/alicloud/src/services/linkkit/dm/client\dm_client.c **** #else
 120:C:/Users/stapi/OneDrive/Desktop/GD32VW553/V1_MQTT_OK/GD32VW55X_Wifi_BLE_SDK/GD32VW55x_RELEASE_V1.0.2/MSDK/cloud/alicloud/src/services/linkkit/dm/client\dm_client.c ****         res = dm_utils_service_name((char *)g_dm_client_uri_map[index].uri_prefix, (char *)g_dm_cli
 121:C:/Users/stapi/OneDrive/Desktop/GD32VW553/V1_MQTT_OK/GD32VW55X_Wifi_BLE_SDK/GD32VW55x_RELEASE_V1.0.2/MSDK/cloud/alicloud/src/services/linkkit/dm/client\dm_client.c ****                                     product_key, device_name, &uri);
 122:C:/Users/stapi/OneDrive/Desktop/GD32VW553/V1_MQTT_OK/GD32VW55X_Wifi_BLE_SDK/GD32VW55x_RELEASE_V1.0.2/MSDK/cloud/alicloud/src/services/linkkit/dm/client\dm_client.c ****         if (res < SUCCESS_RETURN) {
 123:C:/Users/stapi/OneDrive/Desktop/GD32VW553/V1_MQTT_OK/GD32VW55X_Wifi_BLE_SDK/GD32VW55x_RELEASE_V1.0.2/MSDK/cloud/alicloud/src/services/linkkit/dm/client\dm_client.c ****             continue;
 124:C:/Users/stapi/OneDrive/Desktop/GD32VW553/V1_MQTT_OK/GD32VW55X_Wifi_BLE_SDK/GD32VW55x_RELEASE_V1.0.2/MSDK/cloud/alicloud/src/services/linkkit/dm/client\dm_client.c ****         }
 125:C:/Users/stapi/OneDrive/Desktop/GD32VW553/V1_MQTT_OK/GD32VW55X_Wifi_BLE_SDK/GD32VW55x_RELEASE_V1.0.2/MSDK/cloud/alicloud/src/services/linkkit/dm/client\dm_client.c **** 
 126:C:/Users/stapi/OneDrive/Desktop/GD32VW553/V1_MQTT_OK/GD32VW55X_Wifi_BLE_SDK/GD32VW55x_RELEASE_V1.0.2/MSDK/cloud/alicloud/src/services/linkkit/dm/client\dm_client.c ****         {
 127:C:/Users/stapi/OneDrive/Desktop/GD32VW553/V1_MQTT_OK/GD32VW55X_Wifi_BLE_SDK/GD32VW55x_RELEASE_V1.0.2/MSDK/cloud/alicloud/src/services/linkkit/dm/client\dm_client.c ****             int retry_cnt = IOTX_DM_CLIENT_SUB_RETRY_MAX_COUNTS;
 128:C:/Users/stapi/OneDrive/Desktop/GD32VW553/V1_MQTT_OK/GD32VW55X_Wifi_BLE_SDK/GD32VW55x_RELEASE_V1.0.2/MSDK/cloud/alicloud/src/services/linkkit/dm/client\dm_client.c ****             local_sub = 0;
 129:C:/Users/stapi/OneDrive/Desktop/GD32VW553/V1_MQTT_OK/GD32VW55X_Wifi_BLE_SDK/GD32VW55x_RELEASE_V1.0.2/MSDK/cloud/alicloud/src/services/linkkit/dm/client\dm_client.c ****             do {
 130:C:/Users/stapi/OneDrive/Desktop/GD32VW553/V1_MQTT_OK/GD32VW55X_Wifi_BLE_SDK/GD32VW55x_RELEASE_V1.0.2/MSDK/cloud/alicloud/src/services/linkkit/dm/client\dm_client.c ****                 res = dm_client_subscribe(uri, (iotx_cm_data_handle_cb)g_dm_client_uri_map[index].c
 131:C:/Users/stapi/OneDrive/Desktop/GD32VW553/V1_MQTT_OK/GD32VW55X_Wifi_BLE_SDK/GD32VW55x_RELEASE_V1.0.2/MSDK/cloud/alicloud/src/services/linkkit/dm/client\dm_client.c ****             } while (res < SUCCESS_RETURN && --retry_cnt);
 132:C:/Users/stapi/OneDrive/Desktop/GD32VW553/V1_MQTT_OK/GD32VW55X_Wifi_BLE_SDK/GD32VW55x_RELEASE_V1.0.2/MSDK/cloud/alicloud/src/services/linkkit/dm/client\dm_client.c ****             DM_free(uri);
 133:C:/Users/stapi/OneDrive/Desktop/GD32VW553/V1_MQTT_OK/GD32VW55X_Wifi_BLE_SDK/GD32VW55x_RELEASE_V1.0.2/MSDK/cloud/alicloud/src/services/linkkit/dm/client\dm_client.c ****         }
 134:C:/Users/stapi/OneDrive/Desktop/GD32VW553/V1_MQTT_OK/GD32VW55X_Wifi_BLE_SDK/GD32VW55x_RELEASE_V1.0.2/MSDK/cloud/alicloud/src/services/linkkit/dm/client\dm_client.c **** #endif /*  MQTT_AUTO_SUBSCRIBE */
 135:C:/Users/stapi/OneDrive/Desktop/GD32VW553/V1_MQTT_OK/GD32VW55X_Wifi_BLE_SDK/GD32VW55x_RELEASE_V1.0.2/MSDK/cloud/alicloud/src/services/linkkit/dm/client\dm_client.c ****     }
 136:C:/Users/stapi/OneDrive/Desktop/GD32VW553/V1_MQTT_OK/GD32VW55X_Wifi_BLE_SDK/GD32VW55x_RELEASE_V1.0.2/MSDK/cloud/alicloud/src/services/linkkit/dm/client\dm_client.c **** 
 137:C:/Users/stapi/OneDrive/Desktop/GD32VW553/V1_MQTT_OK/GD32VW55X_Wifi_BLE_SDK/GD32VW55x_RELEASE_V1.0.2/MSDK/cloud/alicloud/src/services/linkkit/dm/client\dm_client.c ****     return SUCCESS_RETURN;
 138:C:/Users/stapi/OneDrive/Desktop/GD32VW553/V1_MQTT_OK/GD32VW55X_Wifi_BLE_SDK/GD32VW55x_RELEASE_V1.0.2/MSDK/cloud/alicloud/src/services/linkkit/dm/client\dm_client.c **** }
 139:C:/Users/stapi/OneDrive/Desktop/GD32VW553/V1_MQTT_OK/GD32VW55X_Wifi_BLE_SDK/GD32VW55x_RELEASE_V1.0.2/MSDK/cloud/alicloud/src/services/linkkit/dm/client\dm_client.c **** 
 140:C:/Users/stapi/OneDrive/Desktop/GD32VW553/V1_MQTT_OK/GD32VW55X_Wifi_BLE_SDK/GD32VW55x_RELEASE_V1.0.2/MSDK/cloud/alicloud/src/services/linkkit/dm/client\dm_client.c **** static void _dm_client_event_cloud_connected_handle(void)
 141:C:/Users/stapi/OneDrive/Desktop/GD32VW553/V1_MQTT_OK/GD32VW55X_Wifi_BLE_SDK/GD32VW55x_RELEASE_V1.0.2/MSDK/cloud/alicloud/src/services/linkkit/dm/client\dm_client.c **** {
 142:C:/Users/stapi/OneDrive/Desktop/GD32VW553/V1_MQTT_OK/GD32VW55X_Wifi_BLE_SDK/GD32VW55x_RELEASE_V1.0.2/MSDK/cloud/alicloud/src/services/linkkit/dm/client\dm_client.c **** #ifdef MQTT_SHADOW
 143:C:/Users/stapi/OneDrive/Desktop/GD32VW553/V1_MQTT_OK/GD32VW55X_Wifi_BLE_SDK/GD32VW55x_RELEASE_V1.0.2/MSDK/cloud/alicloud/src/services/linkkit/dm/client\dm_client.c ****     dm_shadow_connect();
 144:C:/Users/stapi/OneDrive/Desktop/GD32VW553/V1_MQTT_OK/GD32VW55X_Wifi_BLE_SDK/GD32VW55x_RELEASE_V1.0.2/MSDK/cloud/alicloud/src/services/linkkit/dm/client\dm_client.c **** #ifdef CLOUD_OFFLINE_RESET
 145:C:/Users/stapi/OneDrive/Desktop/GD32VW553/V1_MQTT_OK/GD32VW55X_Wifi_BLE_SDK/GD32VW55x_RELEASE_V1.0.2/MSDK/cloud/alicloud/src/services/linkkit/dm/client\dm_client.c ****     offline_reset_init();
 146:C:/Users/stapi/OneDrive/Desktop/GD32VW553/V1_MQTT_OK/GD32VW55X_Wifi_BLE_SDK/GD32VW55x_RELEASE_V1.0.2/MSDK/cloud/alicloud/src/services/linkkit/dm/client\dm_client.c **** #endif
 147:C:/Users/stapi/OneDrive/Desktop/GD32VW553/V1_MQTT_OK/GD32VW55X_Wifi_BLE_SDK/GD32VW55x_RELEASE_V1.0.2/MSDK/cloud/alicloud/src/services/linkkit/dm/client\dm_client.c ****     //do first time update in iotx_dm_connect as no ctx init there.
 148:C:/Users/stapi/OneDrive/Desktop/GD32VW553/V1_MQTT_OK/GD32VW55X_Wifi_BLE_SDK/GD32VW55x_RELEASE_V1.0.2/MSDK/cloud/alicloud/src/services/linkkit/dm/client\dm_client.c ****     dm_shadow_update();
 149:C:/Users/stapi/OneDrive/Desktop/GD32VW553/V1_MQTT_OK/GD32VW55X_Wifi_BLE_SDK/GD32VW55x_RELEASE_V1.0.2/MSDK/cloud/alicloud/src/services/linkkit/dm/client\dm_client.c **** #endif
 150:C:/Users/stapi/OneDrive/Desktop/GD32VW553/V1_MQTT_OK/GD32VW55X_Wifi_BLE_SDK/GD32VW55x_RELEASE_V1.0.2/MSDK/cloud/alicloud/src/services/linkkit/dm/client\dm_client.c ****     dm_log_info("IOTX_CM_EVENT_CLOUD_CONNECTED");
 151:C:/Users/stapi/OneDrive/Desktop/GD32VW553/V1_MQTT_OK/GD32VW55X_Wifi_BLE_SDK/GD32VW55x_RELEASE_V1.0.2/MSDK/cloud/alicloud/src/services/linkkit/dm/client\dm_client.c ****     dm_msg_cloud_connected();
 152:C:/Users/stapi/OneDrive/Desktop/GD32VW553/V1_MQTT_OK/GD32VW55X_Wifi_BLE_SDK/GD32VW55x_RELEASE_V1.0.2/MSDK/cloud/alicloud/src/services/linkkit/dm/client\dm_client.c **** }
 153:C:/Users/stapi/OneDrive/Desktop/GD32VW553/V1_MQTT_OK/GD32VW55X_Wifi_BLE_SDK/GD32VW55x_RELEASE_V1.0.2/MSDK/cloud/alicloud/src/services/linkkit/dm/client\dm_client.c **** 
 154:C:/Users/stapi/OneDrive/Desktop/GD32VW553/V1_MQTT_OK/GD32VW55X_Wifi_BLE_SDK/GD32VW55x_RELEASE_V1.0.2/MSDK/cloud/alicloud/src/services/linkkit/dm/client\dm_client.c **** static void _dm_client_event_cloud_disconnect_handle(void)
 155:C:/Users/stapi/OneDrive/Desktop/GD32VW553/V1_MQTT_OK/GD32VW55X_Wifi_BLE_SDK/GD32VW55x_RELEASE_V1.0.2/MSDK/cloud/alicloud/src/services/linkkit/dm/client\dm_client.c **** {
 156:C:/Users/stapi/OneDrive/Desktop/GD32VW553/V1_MQTT_OK/GD32VW55X_Wifi_BLE_SDK/GD32VW55x_RELEASE_V1.0.2/MSDK/cloud/alicloud/src/services/linkkit/dm/client\dm_client.c ****     dm_log_info("IOTX_CM_EVENT_CLOUD_DISCONNECT");
 157:C:/Users/stapi/OneDrive/Desktop/GD32VW553/V1_MQTT_OK/GD32VW55X_Wifi_BLE_SDK/GD32VW55x_RELEASE_V1.0.2/MSDK/cloud/alicloud/src/services/linkkit/dm/client\dm_client.c **** 
 158:C:/Users/stapi/OneDrive/Desktop/GD32VW553/V1_MQTT_OK/GD32VW55X_Wifi_BLE_SDK/GD32VW55x_RELEASE_V1.0.2/MSDK/cloud/alicloud/src/services/linkkit/dm/client\dm_client.c ****     dm_msg_cloud_disconnect();
 159:C:/Users/stapi/OneDrive/Desktop/GD32VW553/V1_MQTT_OK/GD32VW55X_Wifi_BLE_SDK/GD32VW55x_RELEASE_V1.0.2/MSDK/cloud/alicloud/src/services/linkkit/dm/client\dm_client.c **** }
 160:C:/Users/stapi/OneDrive/Desktop/GD32VW553/V1_MQTT_OK/GD32VW55X_Wifi_BLE_SDK/GD32VW55x_RELEASE_V1.0.2/MSDK/cloud/alicloud/src/services/linkkit/dm/client\dm_client.c **** 
 161:C:/Users/stapi/OneDrive/Desktop/GD32VW553/V1_MQTT_OK/GD32VW55X_Wifi_BLE_SDK/GD32VW55x_RELEASE_V1.0.2/MSDK/cloud/alicloud/src/services/linkkit/dm/client\dm_client.c **** void dm_client_event_handle(int fd, iotx_cm_event_msg_t *event, void *context)
 162:C:/Users/stapi/OneDrive/Desktop/GD32VW553/V1_MQTT_OK/GD32VW55X_Wifi_BLE_SDK/GD32VW55x_RELEASE_V1.0.2/MSDK/cloud/alicloud/src/services/linkkit/dm/client\dm_client.c **** {
 163:C:/Users/stapi/OneDrive/Desktop/GD32VW553/V1_MQTT_OK/GD32VW55X_Wifi_BLE_SDK/GD32VW55x_RELEASE_V1.0.2/MSDK/cloud/alicloud/src/services/linkkit/dm/client\dm_client.c ****     switch (event->type) {
 164:C:/Users/stapi/OneDrive/Desktop/GD32VW553/V1_MQTT_OK/GD32VW55X_Wifi_BLE_SDK/GD32VW55x_RELEASE_V1.0.2/MSDK/cloud/alicloud/src/services/linkkit/dm/client\dm_client.c ****         case IOTX_CM_EVENT_CLOUD_CONNECTED: {
 165:C:/Users/stapi/OneDrive/Desktop/GD32VW553/V1_MQTT_OK/GD32VW55X_Wifi_BLE_SDK/GD32VW55x_RELEASE_V1.0.2/MSDK/cloud/alicloud/src/services/linkkit/dm/client\dm_client.c ****             _dm_client_event_cloud_connected_handle();
 166:C:/Users/stapi/OneDrive/Desktop/GD32VW553/V1_MQTT_OK/GD32VW55X_Wifi_BLE_SDK/GD32VW55x_RELEASE_V1.0.2/MSDK/cloud/alicloud/src/services/linkkit/dm/client\dm_client.c ****         }
 167:C:/Users/stapi/OneDrive/Desktop/GD32VW553/V1_MQTT_OK/GD32VW55X_Wifi_BLE_SDK/GD32VW55x_RELEASE_V1.0.2/MSDK/cloud/alicloud/src/services/linkkit/dm/client\dm_client.c ****         break;
 168:C:/Users/stapi/OneDrive/Desktop/GD32VW553/V1_MQTT_OK/GD32VW55X_Wifi_BLE_SDK/GD32VW55x_RELEASE_V1.0.2/MSDK/cloud/alicloud/src/services/linkkit/dm/client\dm_client.c ****         case IOTX_CM_EVENT_CLOUD_CONNECT_FAILED: {
 169:C:/Users/stapi/OneDrive/Desktop/GD32VW553/V1_MQTT_OK/GD32VW55X_Wifi_BLE_SDK/GD32VW55x_RELEASE_V1.0.2/MSDK/cloud/alicloud/src/services/linkkit/dm/client\dm_client.c **** 
 170:C:/Users/stapi/OneDrive/Desktop/GD32VW553/V1_MQTT_OK/GD32VW55X_Wifi_BLE_SDK/GD32VW55x_RELEASE_V1.0.2/MSDK/cloud/alicloud/src/services/linkkit/dm/client\dm_client.c ****         }
 171:C:/Users/stapi/OneDrive/Desktop/GD32VW553/V1_MQTT_OK/GD32VW55X_Wifi_BLE_SDK/GD32VW55x_RELEASE_V1.0.2/MSDK/cloud/alicloud/src/services/linkkit/dm/client\dm_client.c ****         break;
 172:C:/Users/stapi/OneDrive/Desktop/GD32VW553/V1_MQTT_OK/GD32VW55X_Wifi_BLE_SDK/GD32VW55x_RELEASE_V1.0.2/MSDK/cloud/alicloud/src/services/linkkit/dm/client\dm_client.c ****         case IOTX_CM_EVENT_CLOUD_DISCONNECT: {
 173:C:/Users/stapi/OneDrive/Desktop/GD32VW553/V1_MQTT_OK/GD32VW55X_Wifi_BLE_SDK/GD32VW55x_RELEASE_V1.0.2/MSDK/cloud/alicloud/src/services/linkkit/dm/client\dm_client.c ****             _dm_client_event_cloud_disconnect_handle();
 174:C:/Users/stapi/OneDrive/Desktop/GD32VW553/V1_MQTT_OK/GD32VW55X_Wifi_BLE_SDK/GD32VW55x_RELEASE_V1.0.2/MSDK/cloud/alicloud/src/services/linkkit/dm/client\dm_client.c ****         }
 175:C:/Users/stapi/OneDrive/Desktop/GD32VW553/V1_MQTT_OK/GD32VW55X_Wifi_BLE_SDK/GD32VW55x_RELEASE_V1.0.2/MSDK/cloud/alicloud/src/services/linkkit/dm/client\dm_client.c ****         break;
 176:C:/Users/stapi/OneDrive/Desktop/GD32VW553/V1_MQTT_OK/GD32VW55X_Wifi_BLE_SDK/GD32VW55x_RELEASE_V1.0.2/MSDK/cloud/alicloud/src/services/linkkit/dm/client\dm_client.c ****         default:
 177:C:/Users/stapi/OneDrive/Desktop/GD32VW553/V1_MQTT_OK/GD32VW55X_Wifi_BLE_SDK/GD32VW55x_RELEASE_V1.0.2/MSDK/cloud/alicloud/src/services/linkkit/dm/client\dm_client.c ****             break;
 178:C:/Users/stapi/OneDrive/Desktop/GD32VW553/V1_MQTT_OK/GD32VW55X_Wifi_BLE_SDK/GD32VW55x_RELEASE_V1.0.2/MSDK/cloud/alicloud/src/services/linkkit/dm/client\dm_client.c ****     }
 179:C:/Users/stapi/OneDrive/Desktop/GD32VW553/V1_MQTT_OK/GD32VW55X_Wifi_BLE_SDK/GD32VW55x_RELEASE_V1.0.2/MSDK/cloud/alicloud/src/services/linkkit/dm/client\dm_client.c **** }
 180:C:/Users/stapi/OneDrive/Desktop/GD32VW553/V1_MQTT_OK/GD32VW55X_Wifi_BLE_SDK/GD32VW55x_RELEASE_V1.0.2/MSDK/cloud/alicloud/src/services/linkkit/dm/client\dm_client.c **** 
 181:C:/Users/stapi/OneDrive/Desktop/GD32VW553/V1_MQTT_OK/GD32VW55X_Wifi_BLE_SDK/GD32VW55x_RELEASE_V1.0.2/MSDK/cloud/alicloud/src/services/linkkit/dm/client\dm_client.c **** void dm_client_thing_model_down_raw(int fd, const char *topic, const char *payload, unsigned int pa
 182:C:/Users/stapi/OneDrive/Desktop/GD32VW553/V1_MQTT_OK/GD32VW55X_Wifi_BLE_SDK/GD32VW55x_RELEASE_V1.0.2/MSDK/cloud/alicloud/src/services/linkkit/dm/client\dm_client.c ****                                     void *context)
 183:C:/Users/stapi/OneDrive/Desktop/GD32VW553/V1_MQTT_OK/GD32VW55X_Wifi_BLE_SDK/GD32VW55x_RELEASE_V1.0.2/MSDK/cloud/alicloud/src/services/linkkit/dm/client\dm_client.c **** {
  16              		.loc 1 183 1
  17              		.cfi_startproc
  18              	.LVL0:
  19 0000 17030000 		call	t0,__riscv_save_0
  19      E7020300 
  20              		.cfi_offset 1, -4
  21              		.cfi_def_cfa_offset 16
 184:C:/Users/stapi/OneDrive/Desktop/GD32VW553/V1_MQTT_OK/GD32VW55X_Wifi_BLE_SDK/GD32VW55x_RELEASE_V1.0.2/MSDK/cloud/alicloud/src/services/linkkit/dm/client\dm_client.c ****     dm_msg_source_t source;
  22              		.loc 1 184 5
 185:C:/Users/stapi/OneDrive/Desktop/GD32VW553/V1_MQTT_OK/GD32VW55X_Wifi_BLE_SDK/GD32VW55x_RELEASE_V1.0.2/MSDK/cloud/alicloud/src/services/linkkit/dm/client\dm_client.c **** 
 186:C:/Users/stapi/OneDrive/Desktop/GD32VW553/V1_MQTT_OK/GD32VW55X_Wifi_BLE_SDK/GD32VW55x_RELEASE_V1.0.2/MSDK/cloud/alicloud/src/services/linkkit/dm/client\dm_client.c ****     memset(&source, 0, sizeof(dm_msg_source_t));
  23              		.loc 1 186 5
 183:C:/Users/stapi/OneDrive/Desktop/GD32VW553/V1_MQTT_OK/GD32VW55X_Wifi_BLE_SDK/GD32VW55x_RELEASE_V1.0.2/MSDK/cloud/alicloud/src/services/linkkit/dm/client\dm_client.c ****     dm_msg_source_t source;
  24              		.loc 1 183 1 is_stmt 0
  25 0008 4111     		addi	sp,sp,-16
  26              		.cfi_def_cfa_offset 32
 187:C:/Users/stapi/OneDrive/Desktop/GD32VW553/V1_MQTT_OK/GD32VW55X_Wifi_BLE_SDK/GD32VW55x_RELEASE_V1.0.2/MSDK/cloud/alicloud/src/services/linkkit/dm/client\dm_client.c **** 
 188:C:/Users/stapi/OneDrive/Desktop/GD32VW553/V1_MQTT_OK/GD32VW55X_Wifi_BLE_SDK/GD32VW55x_RELEASE_V1.0.2/MSDK/cloud/alicloud/src/services/linkkit/dm/client\dm_client.c ****     source.uri = topic;
 189:C:/Users/stapi/OneDrive/Desktop/GD32VW553/V1_MQTT_OK/GD32VW55X_Wifi_BLE_SDK/GD32VW55x_RELEASE_V1.0.2/MSDK/cloud/alicloud/src/services/linkkit/dm/client\dm_client.c ****     source.payload = (unsigned char *)payload;
 190:C:/Users/stapi/OneDrive/Desktop/GD32VW553/V1_MQTT_OK/GD32VW55X_Wifi_BLE_SDK/GD32VW55x_RELEASE_V1.0.2/MSDK/cloud/alicloud/src/services/linkkit/dm/client\dm_client.c ****     source.payload_len = payload_len;
 191:C:/Users/stapi/OneDrive/Desktop/GD32VW553/V1_MQTT_OK/GD32VW55X_Wifi_BLE_SDK/GD32VW55x_RELEASE_V1.0.2/MSDK/cloud/alicloud/src/services/linkkit/dm/client\dm_client.c ****     source.context = NULL;
 192:C:/Users/stapi/OneDrive/Desktop/GD32VW553/V1_MQTT_OK/GD32VW55X_Wifi_BLE_SDK/GD32VW55x_RELEASE_V1.0.2/MSDK/cloud/alicloud/src/services/linkkit/dm/client\dm_client.c **** 
 193:C:/Users/stapi/OneDrive/Desktop/GD32VW553/V1_MQTT_OK/GD32VW55X_Wifi_BLE_SDK/GD32VW55x_RELEASE_V1.0.2/MSDK/cloud/alicloud/src/services/linkkit/dm/client\dm_client.c ****     dm_msg_proc_thing_model_down_raw(&source);
  27              		.loc 1 193 5
  28 000a 0A85     		mv	a0,sp
  29              	.LVL1:
 188:C:/Users/stapi/OneDrive/Desktop/GD32VW553/V1_MQTT_OK/GD32VW55X_Wifi_BLE_SDK/GD32VW55x_RELEASE_V1.0.2/MSDK/cloud/alicloud/src/services/linkkit/dm/client\dm_client.c ****     source.payload = (unsigned char *)payload;
  30              		.loc 1 188 16
  31 000c 2EC0     		sw	a1,0(sp)
 189:C:/Users/stapi/OneDrive/Desktop/GD32VW553/V1_MQTT_OK/GD32VW55X_Wifi_BLE_SDK/GD32VW55x_RELEASE_V1.0.2/MSDK/cloud/alicloud/src/services/linkkit/dm/client\dm_client.c ****     source.payload_len = payload_len;
  32              		.loc 1 189 20
  33 000e 32C2     		sw	a2,4(sp)
 190:C:/Users/stapi/OneDrive/Desktop/GD32VW553/V1_MQTT_OK/GD32VW55X_Wifi_BLE_SDK/GD32VW55x_RELEASE_V1.0.2/MSDK/cloud/alicloud/src/services/linkkit/dm/client\dm_client.c ****     source.context = NULL;
  34              		.loc 1 190 24
  35 0010 36C4     		sw	a3,8(sp)
 186:C:/Users/stapi/OneDrive/Desktop/GD32VW553/V1_MQTT_OK/GD32VW55X_Wifi_BLE_SDK/GD32VW55x_RELEASE_V1.0.2/MSDK/cloud/alicloud/src/services/linkkit/dm/client\dm_client.c **** 
  36              		.loc 1 186 5
  37 0012 02C6     		sw	zero,12(sp)
 188:C:/Users/stapi/OneDrive/Desktop/GD32VW553/V1_MQTT_OK/GD32VW55X_Wifi_BLE_SDK/GD32VW55x_RELEASE_V1.0.2/MSDK/cloud/alicloud/src/services/linkkit/dm/client\dm_client.c ****     source.payload = (unsigned char *)payload;
  38              		.loc 1 188 5 is_stmt 1
 189:C:/Users/stapi/OneDrive/Desktop/GD32VW553/V1_MQTT_OK/GD32VW55X_Wifi_BLE_SDK/GD32VW55x_RELEASE_V1.0.2/MSDK/cloud/alicloud/src/services/linkkit/dm/client\dm_client.c ****     source.payload_len = payload_len;
  39              		.loc 1 189 5
 190:C:/Users/stapi/OneDrive/Desktop/GD32VW553/V1_MQTT_OK/GD32VW55X_Wifi_BLE_SDK/GD32VW55x_RELEASE_V1.0.2/MSDK/cloud/alicloud/src/services/linkkit/dm/client\dm_client.c ****     source.context = NULL;
  40              		.loc 1 190 5
 191:C:/Users/stapi/OneDrive/Desktop/GD32VW553/V1_MQTT_OK/GD32VW55X_Wifi_BLE_SDK/GD32VW55x_RELEASE_V1.0.2/MSDK/cloud/alicloud/src/services/linkkit/dm/client\dm_client.c **** 
  41              		.loc 1 191 5
  42              		.loc 1 193 5
  43 0014 97000000 		call	dm_msg_proc_thing_model_down_raw
  43      E7800000 
  44              	.LVL2:
 194:C:/Users/stapi/OneDrive/Desktop/GD32VW553/V1_MQTT_OK/GD32VW55X_Wifi_BLE_SDK/GD32VW55x_RELEASE_V1.0.2/MSDK/cloud/alicloud/src/services/linkkit/dm/client\dm_client.c **** }
  45              		.loc 1 194 1 is_stmt 0
  46 001c 4101     		addi	sp,sp,16
  47              		.cfi_def_cfa_offset 0
  48 001e 17030000 		tail	__riscv_restore_0
  48      67000300 
  49              		.cfi_restore 1
  50              		.cfi_def_cfa_offset -16
  51              		.cfi_endproc
  52              	.LFE25:
  54              		.section	.text.dm_client_thing_model_up_raw_reply,"ax",@progbits
  55              		.align	1
  56              		.globl	dm_client_thing_model_up_raw_reply
  58              	dm_client_thing_model_up_raw_reply:
  59              	.LFB26:
 195:C:/Users/stapi/OneDrive/Desktop/GD32VW553/V1_MQTT_OK/GD32VW55X_Wifi_BLE_SDK/GD32VW55x_RELEASE_V1.0.2/MSDK/cloud/alicloud/src/services/linkkit/dm/client\dm_client.c **** 
 196:C:/Users/stapi/OneDrive/Desktop/GD32VW553/V1_MQTT_OK/GD32VW55X_Wifi_BLE_SDK/GD32VW55x_RELEASE_V1.0.2/MSDK/cloud/alicloud/src/services/linkkit/dm/client\dm_client.c **** void dm_client_thing_model_up_raw_reply(int fd, const char *topic, const char *payload, unsigned in
 197:C:/Users/stapi/OneDrive/Desktop/GD32VW553/V1_MQTT_OK/GD32VW55X_Wifi_BLE_SDK/GD32VW55x_RELEASE_V1.0.2/MSDK/cloud/alicloud/src/services/linkkit/dm/client\dm_client.c ****                                         void *context)
 198:C:/Users/stapi/OneDrive/Desktop/GD32VW553/V1_MQTT_OK/GD32VW55X_Wifi_BLE_SDK/GD32VW55x_RELEASE_V1.0.2/MSDK/cloud/alicloud/src/services/linkkit/dm/client\dm_client.c **** {
  60              		.loc 1 198 1 is_stmt 1
  61              		.cfi_startproc
  62              	.LVL3:
  63 0000 17030000 		call	t0,__riscv_save_0
  63      E7020300 
  64              		.cfi_offset 1, -4
  65              		.cfi_def_cfa_offset 16
 199:C:/Users/stapi/OneDrive/Desktop/GD32VW553/V1_MQTT_OK/GD32VW55X_Wifi_BLE_SDK/GD32VW55x_RELEASE_V1.0.2/MSDK/cloud/alicloud/src/services/linkkit/dm/client\dm_client.c ****     dm_msg_source_t source;
  66              		.loc 1 199 5
 200:C:/Users/stapi/OneDrive/Desktop/GD32VW553/V1_MQTT_OK/GD32VW55X_Wifi_BLE_SDK/GD32VW55x_RELEASE_V1.0.2/MSDK/cloud/alicloud/src/services/linkkit/dm/client\dm_client.c **** 
 201:C:/Users/stapi/OneDrive/Desktop/GD32VW553/V1_MQTT_OK/GD32VW55X_Wifi_BLE_SDK/GD32VW55x_RELEASE_V1.0.2/MSDK/cloud/alicloud/src/services/linkkit/dm/client\dm_client.c ****     memset(&source, 0, sizeof(dm_msg_source_t));
  67              		.loc 1 201 5
 198:C:/Users/stapi/OneDrive/Desktop/GD32VW553/V1_MQTT_OK/GD32VW55X_Wifi_BLE_SDK/GD32VW55x_RELEASE_V1.0.2/MSDK/cloud/alicloud/src/services/linkkit/dm/client\dm_client.c ****     dm_msg_source_t source;
  68              		.loc 1 198 1 is_stmt 0
  69 0008 4111     		addi	sp,sp,-16
  70              		.cfi_def_cfa_offset 32
 202:C:/Users/stapi/OneDrive/Desktop/GD32VW553/V1_MQTT_OK/GD32VW55X_Wifi_BLE_SDK/GD32VW55x_RELEASE_V1.0.2/MSDK/cloud/alicloud/src/services/linkkit/dm/client\dm_client.c **** 
 203:C:/Users/stapi/OneDrive/Desktop/GD32VW553/V1_MQTT_OK/GD32VW55X_Wifi_BLE_SDK/GD32VW55x_RELEASE_V1.0.2/MSDK/cloud/alicloud/src/services/linkkit/dm/client\dm_client.c ****     source.uri = topic;
 204:C:/Users/stapi/OneDrive/Desktop/GD32VW553/V1_MQTT_OK/GD32VW55X_Wifi_BLE_SDK/GD32VW55x_RELEASE_V1.0.2/MSDK/cloud/alicloud/src/services/linkkit/dm/client\dm_client.c ****     source.payload = (unsigned char *)payload;
 205:C:/Users/stapi/OneDrive/Desktop/GD32VW553/V1_MQTT_OK/GD32VW55X_Wifi_BLE_SDK/GD32VW55x_RELEASE_V1.0.2/MSDK/cloud/alicloud/src/services/linkkit/dm/client\dm_client.c ****     source.payload_len = payload_len;
 206:C:/Users/stapi/OneDrive/Desktop/GD32VW553/V1_MQTT_OK/GD32VW55X_Wifi_BLE_SDK/GD32VW55x_RELEASE_V1.0.2/MSDK/cloud/alicloud/src/services/linkkit/dm/client\dm_client.c ****     source.context = NULL;
 207:C:/Users/stapi/OneDrive/Desktop/GD32VW553/V1_MQTT_OK/GD32VW55X_Wifi_BLE_SDK/GD32VW55x_RELEASE_V1.0.2/MSDK/cloud/alicloud/src/services/linkkit/dm/client\dm_client.c **** 
 208:C:/Users/stapi/OneDrive/Desktop/GD32VW553/V1_MQTT_OK/GD32VW55X_Wifi_BLE_SDK/GD32VW55x_RELEASE_V1.0.2/MSDK/cloud/alicloud/src/services/linkkit/dm/client\dm_client.c ****     dm_msg_proc_thing_model_up_raw_reply(&source);
  71              		.loc 1 208 5
  72 000a 0A85     		mv	a0,sp
  73              	.LVL4:
 203:C:/Users/stapi/OneDrive/Desktop/GD32VW553/V1_MQTT_OK/GD32VW55X_Wifi_BLE_SDK/GD32VW55x_RELEASE_V1.0.2/MSDK/cloud/alicloud/src/services/linkkit/dm/client\dm_client.c ****     source.payload = (unsigned char *)payload;
  74              		.loc 1 203 16
  75 000c 2EC0     		sw	a1,0(sp)
 204:C:/Users/stapi/OneDrive/Desktop/GD32VW553/V1_MQTT_OK/GD32VW55X_Wifi_BLE_SDK/GD32VW55x_RELEASE_V1.0.2/MSDK/cloud/alicloud/src/services/linkkit/dm/client\dm_client.c ****     source.payload_len = payload_len;
  76              		.loc 1 204 20
  77 000e 32C2     		sw	a2,4(sp)
 205:C:/Users/stapi/OneDrive/Desktop/GD32VW553/V1_MQTT_OK/GD32VW55X_Wifi_BLE_SDK/GD32VW55x_RELEASE_V1.0.2/MSDK/cloud/alicloud/src/services/linkkit/dm/client\dm_client.c ****     source.context = NULL;
  78              		.loc 1 205 24
  79 0010 36C4     		sw	a3,8(sp)
 201:C:/Users/stapi/OneDrive/Desktop/GD32VW553/V1_MQTT_OK/GD32VW55X_Wifi_BLE_SDK/GD32VW55x_RELEASE_V1.0.2/MSDK/cloud/alicloud/src/services/linkkit/dm/client\dm_client.c **** 
  80              		.loc 1 201 5
  81 0012 02C6     		sw	zero,12(sp)
 203:C:/Users/stapi/OneDrive/Desktop/GD32VW553/V1_MQTT_OK/GD32VW55X_Wifi_BLE_SDK/GD32VW55x_RELEASE_V1.0.2/MSDK/cloud/alicloud/src/services/linkkit/dm/client\dm_client.c ****     source.payload = (unsigned char *)payload;
  82              		.loc 1 203 5 is_stmt 1
 204:C:/Users/stapi/OneDrive/Desktop/GD32VW553/V1_MQTT_OK/GD32VW55X_Wifi_BLE_SDK/GD32VW55x_RELEASE_V1.0.2/MSDK/cloud/alicloud/src/services/linkkit/dm/client\dm_client.c ****     source.payload_len = payload_len;
  83              		.loc 1 204 5
 205:C:/Users/stapi/OneDrive/Desktop/GD32VW553/V1_MQTT_OK/GD32VW55X_Wifi_BLE_SDK/GD32VW55x_RELEASE_V1.0.2/MSDK/cloud/alicloud/src/services/linkkit/dm/client\dm_client.c ****     source.context = NULL;
  84              		.loc 1 205 5
 206:C:/Users/stapi/OneDrive/Desktop/GD32VW553/V1_MQTT_OK/GD32VW55X_Wifi_BLE_SDK/GD32VW55x_RELEASE_V1.0.2/MSDK/cloud/alicloud/src/services/linkkit/dm/client\dm_client.c **** 
  85              		.loc 1 206 5
  86              		.loc 1 208 5
  87 0014 97000000 		call	dm_msg_proc_thing_model_up_raw_reply
  87      E7800000 
  88              	.LVL5:
 209:C:/Users/stapi/OneDrive/Desktop/GD32VW553/V1_MQTT_OK/GD32VW55X_Wifi_BLE_SDK/GD32VW55x_RELEASE_V1.0.2/MSDK/cloud/alicloud/src/services/linkkit/dm/client\dm_client.c **** }
  89              		.loc 1 209 1 is_stmt 0
  90 001c 4101     		addi	sp,sp,16
  91              		.cfi_def_cfa_offset 0
  92 001e 17030000 		tail	__riscv_restore_0
  92      67000300 
  93              		.cfi_restore 1
  94              		.cfi_def_cfa_offset -16
  95              		.cfi_endproc
  96              	.LFE26:
  98              		.section	.rodata.dm_client_thing_service_property_set.str1.4,"aMS",@progbits,1
  99              		.align	2
 100              	.LC0:
 101 0000 7B7D00   		.string	"{}"
 102              		.section	.text.dm_client_thing_service_property_set,"ax",@progbits
 103              		.align	1
 104              		.globl	dm_client_thing_service_property_set
 106              	dm_client_thing_service_property_set:
 107              	.LFB27:
 210:C:/Users/stapi/OneDrive/Desktop/GD32VW553/V1_MQTT_OK/GD32VW55X_Wifi_BLE_SDK/GD32VW55x_RELEASE_V1.0.2/MSDK/cloud/alicloud/src/services/linkkit/dm/client\dm_client.c **** 
 211:C:/Users/stapi/OneDrive/Desktop/GD32VW553/V1_MQTT_OK/GD32VW55X_Wifi_BLE_SDK/GD32VW55x_RELEASE_V1.0.2/MSDK/cloud/alicloud/src/services/linkkit/dm/client\dm_client.c **** #if !defined(DEVICE_MODEL_RAWDATA_SOLO)
 212:C:/Users/stapi/OneDrive/Desktop/GD32VW553/V1_MQTT_OK/GD32VW55X_Wifi_BLE_SDK/GD32VW55x_RELEASE_V1.0.2/MSDK/cloud/alicloud/src/services/linkkit/dm/client\dm_client.c **** void dm_client_thing_service_property_set(int fd, const char *topic, const char *payload, unsigned 
 213:C:/Users/stapi/OneDrive/Desktop/GD32VW553/V1_MQTT_OK/GD32VW55X_Wifi_BLE_SDK/GD32VW55x_RELEASE_V1.0.2/MSDK/cloud/alicloud/src/services/linkkit/dm/client\dm_client.c ****         void *context)
 214:C:/Users/stapi/OneDrive/Desktop/GD32VW553/V1_MQTT_OK/GD32VW55X_Wifi_BLE_SDK/GD32VW55x_RELEASE_V1.0.2/MSDK/cloud/alicloud/src/services/linkkit/dm/client\dm_client.c **** {
 108              		.loc 1 214 1 is_stmt 1
 109              		.cfi_startproc
 110              	.LVL6:
 111 0000 17030000 		call	t0,__riscv_save_3
 111      E7020300 
 112              		.cfi_offset 18, -16
 113              		.cfi_offset 9, -12
 114              		.cfi_offset 8, -8
 115              		.cfi_offset 1, -4
 116              		.cfi_def_cfa_offset 16
 215:C:/Users/stapi/OneDrive/Desktop/GD32VW553/V1_MQTT_OK/GD32VW55X_Wifi_BLE_SDK/GD32VW55x_RELEASE_V1.0.2/MSDK/cloud/alicloud/src/services/linkkit/dm/client\dm_client.c ****     int res = 0;
 117              		.loc 1 215 5
 118              	.LVL7:
 216:C:/Users/stapi/OneDrive/Desktop/GD32VW553/V1_MQTT_OK/GD32VW55X_Wifi_BLE_SDK/GD32VW55x_RELEASE_V1.0.2/MSDK/cloud/alicloud/src/services/linkkit/dm/client\dm_client.c ****     dm_msg_source_t source;
 119              		.loc 1 216 5
 217:C:/Users/stapi/OneDrive/Desktop/GD32VW553/V1_MQTT_OK/GD32VW55X_Wifi_BLE_SDK/GD32VW55x_RELEASE_V1.0.2/MSDK/cloud/alicloud/src/services/linkkit/dm/client\dm_client.c ****     dm_msg_dest_t dest;
 120              		.loc 1 217 5
 218:C:/Users/stapi/OneDrive/Desktop/GD32VW553/V1_MQTT_OK/GD32VW55X_Wifi_BLE_SDK/GD32VW55x_RELEASE_V1.0.2/MSDK/cloud/alicloud/src/services/linkkit/dm/client\dm_client.c ****     dm_msg_request_payload_t request;
 121              		.loc 1 218 5
 219:C:/Users/stapi/OneDrive/Desktop/GD32VW553/V1_MQTT_OK/GD32VW55X_Wifi_BLE_SDK/GD32VW55x_RELEASE_V1.0.2/MSDK/cloud/alicloud/src/services/linkkit/dm/client\dm_client.c ****     dm_msg_response_t response;
 122              		.loc 1 219 5
 220:C:/Users/stapi/OneDrive/Desktop/GD32VW553/V1_MQTT_OK/GD32VW55X_Wifi_BLE_SDK/GD32VW55x_RELEASE_V1.0.2/MSDK/cloud/alicloud/src/services/linkkit/dm/client\dm_client.c **** 
 221:C:/Users/stapi/OneDrive/Desktop/GD32VW553/V1_MQTT_OK/GD32VW55X_Wifi_BLE_SDK/GD32VW55x_RELEASE_V1.0.2/MSDK/cloud/alicloud/src/services/linkkit/dm/client\dm_client.c ****     memset(&source, 0, sizeof(dm_msg_source_t));
 123              		.loc 1 221 5
 214:C:/Users/stapi/OneDrive/Desktop/GD32VW553/V1_MQTT_OK/GD32VW55X_Wifi_BLE_SDK/GD32VW55x_RELEASE_V1.0.2/MSDK/cloud/alicloud/src/services/linkkit/dm/client\dm_client.c ****     int res = 0;
 124              		.loc 1 214 1 is_stmt 0
 125 0008 1571     		addi	sp,sp,-224
 126              		.cfi_def_cfa_offset 240
 214:C:/Users/stapi/OneDrive/Desktop/GD32VW553/V1_MQTT_OK/GD32VW55X_Wifi_BLE_SDK/GD32VW55x_RELEASE_V1.0.2/MSDK/cloud/alicloud/src/services/linkkit/dm/client\dm_client.c ****     int res = 0;
 127              		.loc 1 214 1
 128 000a 2E89     		mv	s2,a1
 129 000c B284     		mv	s1,a2
 222:C:/Users/stapi/OneDrive/Desktop/GD32VW553/V1_MQTT_OK/GD32VW55X_Wifi_BLE_SDK/GD32VW55x_RELEASE_V1.0.2/MSDK/cloud/alicloud/src/services/linkkit/dm/client\dm_client.c ****     memset(&dest, 0, sizeof(dm_msg_dest_t));
 223:C:/Users/stapi/OneDrive/Desktop/GD32VW553/V1_MQTT_OK/GD32VW55X_Wifi_BLE_SDK/GD32VW55x_RELEASE_V1.0.2/MSDK/cloud/alicloud/src/services/linkkit/dm/client\dm_client.c ****     memset(&request, 0, sizeof(dm_msg_request_payload_t));
 130              		.loc 1 223 5
 131 000e 8145     		li	a1,0
 132              	.LVL8:
 133 0010 13060008 		li	a2,128
 134              	.LVL9:
 135 0014 8810     		addi	a0,sp,96
 136              	.LVL10:
 214:C:/Users/stapi/OneDrive/Desktop/GD32VW553/V1_MQTT_OK/GD32VW55X_Wifi_BLE_SDK/GD32VW55x_RELEASE_V1.0.2/MSDK/cloud/alicloud/src/services/linkkit/dm/client\dm_client.c ****     int res = 0;
 137              		.loc 1 214 1
 138 0016 3684     		mv	s0,a3
 221:C:/Users/stapi/OneDrive/Desktop/GD32VW553/V1_MQTT_OK/GD32VW55X_Wifi_BLE_SDK/GD32VW55x_RELEASE_V1.0.2/MSDK/cloud/alicloud/src/services/linkkit/dm/client\dm_client.c ****     memset(&dest, 0, sizeof(dm_msg_dest_t));
 139              		.loc 1 221 5
 140 0018 02CC     		sw	zero,24(sp)
 222:C:/Users/stapi/OneDrive/Desktop/GD32VW553/V1_MQTT_OK/GD32VW55X_Wifi_BLE_SDK/GD32VW55x_RELEASE_V1.0.2/MSDK/cloud/alicloud/src/services/linkkit/dm/client\dm_client.c ****     memset(&dest, 0, sizeof(dm_msg_dest_t));
 141              		.loc 1 222 5 is_stmt 1
 142              		.loc 1 223 5
 143 001a 97000000 		call	memset
 143      E7800000 
 144              	.LVL11:
 224:C:/Users/stapi/OneDrive/Desktop/GD32VW553/V1_MQTT_OK/GD32VW55X_Wifi_BLE_SDK/GD32VW55x_RELEASE_V1.0.2/MSDK/cloud/alicloud/src/services/linkkit/dm/client\dm_client.c ****     memset(&response, 0, sizeof(dm_msg_response_t));
 145              		.loc 1 224 5
 146 0022 13064004 		li	a2,68
 147 0026 8145     		li	a1,0
 148 0028 6808     		addi	a0,sp,28
 149 002a 97000000 		call	memset
 149      E7800000 
 150              	.LVL12:
 225:C:/Users/stapi/OneDrive/Desktop/GD32VW553/V1_MQTT_OK/GD32VW55X_Wifi_BLE_SDK/GD32VW55x_RELEASE_V1.0.2/MSDK/cloud/alicloud/src/services/linkkit/dm/client\dm_client.c **** 
 226:C:/Users/stapi/OneDrive/Desktop/GD32VW553/V1_MQTT_OK/GD32VW55X_Wifi_BLE_SDK/GD32VW55x_RELEASE_V1.0.2/MSDK/cloud/alicloud/src/services/linkkit/dm/client\dm_client.c ****     source.uri = topic;
 151              		.loc 1 226 5
 227:C:/Users/stapi/OneDrive/Desktop/GD32VW553/V1_MQTT_OK/GD32VW55X_Wifi_BLE_SDK/GD32VW55x_RELEASE_V1.0.2/MSDK/cloud/alicloud/src/services/linkkit/dm/client\dm_client.c ****     source.payload = (unsigned char *)payload;
 228:C:/Users/stapi/OneDrive/Desktop/GD32VW553/V1_MQTT_OK/GD32VW55X_Wifi_BLE_SDK/GD32VW55x_RELEASE_V1.0.2/MSDK/cloud/alicloud/src/services/linkkit/dm/client\dm_client.c ****     source.payload_len = payload_len;
 229:C:/Users/stapi/OneDrive/Desktop/GD32VW553/V1_MQTT_OK/GD32VW55X_Wifi_BLE_SDK/GD32VW55x_RELEASE_V1.0.2/MSDK/cloud/alicloud/src/services/linkkit/dm/client\dm_client.c ****     source.context = NULL;
 230:C:/Users/stapi/OneDrive/Desktop/GD32VW553/V1_MQTT_OK/GD32VW55X_Wifi_BLE_SDK/GD32VW55x_RELEASE_V1.0.2/MSDK/cloud/alicloud/src/services/linkkit/dm/client\dm_client.c **** 
 231:C:/Users/stapi/OneDrive/Desktop/GD32VW553/V1_MQTT_OK/GD32VW55X_Wifi_BLE_SDK/GD32VW55x_RELEASE_V1.0.2/MSDK/cloud/alicloud/src/services/linkkit/dm/client\dm_client.c ****     dest.uri_name = DM_URI_THING_SERVICE_PROPERTY_SET_REPLY;
 152              		.loc 1 231 19 is_stmt 0
 153 0032 B7070000 		lui	a5,%hi(DM_URI_THING_SERVICE_PROPERTY_SET_REPLY)
 154 0036 93870700 		addi	a5,a5,%lo(DM_URI_THING_SERVICE_PROPERTY_SET_REPLY)
 232:C:/Users/stapi/OneDrive/Desktop/GD32VW553/V1_MQTT_OK/GD32VW55X_Wifi_BLE_SDK/GD32VW55x_RELEASE_V1.0.2/MSDK/cloud/alicloud/src/services/linkkit/dm/client\dm_client.c **** 
 233:C:/Users/stapi/OneDrive/Desktop/GD32VW553/V1_MQTT_OK/GD32VW55X_Wifi_BLE_SDK/GD32VW55x_RELEASE_V1.0.2/MSDK/cloud/alicloud/src/services/linkkit/dm/client\dm_client.c ****     res = dm_msg_proc_thing_service_property_set(&source, &dest, &request, &response);
 155              		.loc 1 233 11
 156 003a 7408     		addi	a3,sp,28
 157 003c 9010     		addi	a2,sp,96
 158 003e 4C00     		addi	a1,sp,4
 159 0040 6800     		addi	a0,sp,12
 226:C:/Users/stapi/OneDrive/Desktop/GD32VW553/V1_MQTT_OK/GD32VW55X_Wifi_BLE_SDK/GD32VW55x_RELEASE_V1.0.2/MSDK/cloud/alicloud/src/services/linkkit/dm/client\dm_client.c ****     source.payload = (unsigned char *)payload;
 160              		.loc 1 226 16
 161 0042 4AC6     		sw	s2,12(sp)
 227:C:/Users/stapi/OneDrive/Desktop/GD32VW553/V1_MQTT_OK/GD32VW55X_Wifi_BLE_SDK/GD32VW55x_RELEASE_V1.0.2/MSDK/cloud/alicloud/src/services/linkkit/dm/client\dm_client.c ****     source.payload = (unsigned char *)payload;
 162              		.loc 1 227 5 is_stmt 1
 227:C:/Users/stapi/OneDrive/Desktop/GD32VW553/V1_MQTT_OK/GD32VW55X_Wifi_BLE_SDK/GD32VW55x_RELEASE_V1.0.2/MSDK/cloud/alicloud/src/services/linkkit/dm/client\dm_client.c ****     source.payload = (unsigned char *)payload;
 163              		.loc 1 227 20 is_stmt 0
 164 0044 26C8     		sw	s1,16(sp)
 228:C:/Users/stapi/OneDrive/Desktop/GD32VW553/V1_MQTT_OK/GD32VW55X_Wifi_BLE_SDK/GD32VW55x_RELEASE_V1.0.2/MSDK/cloud/alicloud/src/services/linkkit/dm/client\dm_client.c ****     source.context = NULL;
 165              		.loc 1 228 5 is_stmt 1
 228:C:/Users/stapi/OneDrive/Desktop/GD32VW553/V1_MQTT_OK/GD32VW55X_Wifi_BLE_SDK/GD32VW55x_RELEASE_V1.0.2/MSDK/cloud/alicloud/src/services/linkkit/dm/client\dm_client.c ****     source.context = NULL;
 166              		.loc 1 228 24 is_stmt 0
 167 0046 22CA     		sw	s0,20(sp)
 229:C:/Users/stapi/OneDrive/Desktop/GD32VW553/V1_MQTT_OK/GD32VW55X_Wifi_BLE_SDK/GD32VW55x_RELEASE_V1.0.2/MSDK/cloud/alicloud/src/services/linkkit/dm/client\dm_client.c **** 
 168              		.loc 1 229 5 is_stmt 1
 231:C:/Users/stapi/OneDrive/Desktop/GD32VW553/V1_MQTT_OK/GD32VW55X_Wifi_BLE_SDK/GD32VW55x_RELEASE_V1.0.2/MSDK/cloud/alicloud/src/services/linkkit/dm/client\dm_client.c **** 
 169              		.loc 1 231 5
 231:C:/Users/stapi/OneDrive/Desktop/GD32VW553/V1_MQTT_OK/GD32VW55X_Wifi_BLE_SDK/GD32VW55x_RELEASE_V1.0.2/MSDK/cloud/alicloud/src/services/linkkit/dm/client\dm_client.c **** 
 170              		.loc 1 231 19 is_stmt 0
 171 0048 3EC2     		sw	a5,4(sp)
 172              		.loc 1 233 5 is_stmt 1
 173              		.loc 1 233 11 is_stmt 0
 174 004a 97000000 		call	dm_msg_proc_thing_service_property_set
 174      E7800000 
 175              	.LVL13:
 234:C:/Users/stapi/OneDrive/Desktop/GD32VW553/V1_MQTT_OK/GD32VW55X_Wifi_BLE_SDK/GD32VW55x_RELEASE_V1.0.2/MSDK/cloud/alicloud/src/services/linkkit/dm/client\dm_client.c ****     if (res < SUCCESS_RETURN) {
 176              		.loc 1 234 5 is_stmt 1
 177              		.loc 1 234 8 is_stmt 0
 178 0052 63490502 		blt	a0,zero,.L5
 235:C:/Users/stapi/OneDrive/Desktop/GD32VW553/V1_MQTT_OK/GD32VW55X_Wifi_BLE_SDK/GD32VW55x_RELEASE_V1.0.2/MSDK/cloud/alicloud/src/services/linkkit/dm/client\dm_client.c ****         return;
 236:C:/Users/stapi/OneDrive/Desktop/GD32VW553/V1_MQTT_OK/GD32VW55X_Wifi_BLE_SDK/GD32VW55x_RELEASE_V1.0.2/MSDK/cloud/alicloud/src/services/linkkit/dm/client\dm_client.c ****     }
 237:C:/Users/stapi/OneDrive/Desktop/GD32VW553/V1_MQTT_OK/GD32VW55X_Wifi_BLE_SDK/GD32VW55x_RELEASE_V1.0.2/MSDK/cloud/alicloud/src/services/linkkit/dm/client\dm_client.c **** 
 238:C:/Users/stapi/OneDrive/Desktop/GD32VW553/V1_MQTT_OK/GD32VW55X_Wifi_BLE_SDK/GD32VW55x_RELEASE_V1.0.2/MSDK/cloud/alicloud/src/services/linkkit/dm/client\dm_client.c ****     int prop_set_reply_opt = 0;
 179              		.loc 1 238 5 is_stmt 1
 239:C:/Users/stapi/OneDrive/Desktop/GD32VW553/V1_MQTT_OK/GD32VW55X_Wifi_BLE_SDK/GD32VW55x_RELEASE_V1.0.2/MSDK/cloud/alicloud/src/services/linkkit/dm/client\dm_client.c ****     res = dm_opt_get(DM_OPT_UPSTREAM_PROPERTY_SET_REPLY, &prop_set_reply_opt);
 180              		.loc 1 239 11 is_stmt 0
 181 0056 2C00     		addi	a1,sp,8
 182 0058 0945     		li	a0,2
 183              	.LVL14:
 238:C:/Users/stapi/OneDrive/Desktop/GD32VW553/V1_MQTT_OK/GD32VW55X_Wifi_BLE_SDK/GD32VW55x_RELEASE_V1.0.2/MSDK/cloud/alicloud/src/services/linkkit/dm/client\dm_client.c ****     res = dm_opt_get(DM_OPT_UPSTREAM_PROPERTY_SET_REPLY, &prop_set_reply_opt);
 184              		.loc 1 238 9
 185 005a 02C4     		sw	zero,8(sp)
 186              		.loc 1 239 5 is_stmt 1
 187              		.loc 1 239 11 is_stmt 0
 188 005c 97000000 		call	dm_opt_get
 188      E7800000 
 189              	.LVL15:
 240:C:/Users/stapi/OneDrive/Desktop/GD32VW553/V1_MQTT_OK/GD32VW55X_Wifi_BLE_SDK/GD32VW55x_RELEASE_V1.0.2/MSDK/cloud/alicloud/src/services/linkkit/dm/client\dm_client.c ****     if (res == SUCCESS_RETURN) {
 190              		.loc 1 240 5 is_stmt 1
 191              		.loc 1 240 8 is_stmt 0
 192 0064 05E1     		bne	a0,zero,.L5
 241:C:/Users/stapi/OneDrive/Desktop/GD32VW553/V1_MQTT_OK/GD32VW55X_Wifi_BLE_SDK/GD32VW55x_RELEASE_V1.0.2/MSDK/cloud/alicloud/src/services/linkkit/dm/client\dm_client.c ****         if (prop_set_reply_opt) {
 193              		.loc 1 241 9 is_stmt 1
 194              		.loc 1 241 12 is_stmt 0
 195 0066 A247     		lw	a5,8(sp)
 196 0068 91CF     		beq	a5,zero,.L5
 242:C:/Users/stapi/OneDrive/Desktop/GD32VW553/V1_MQTT_OK/GD32VW55X_Wifi_BLE_SDK/GD32VW55x_RELEASE_V1.0.2/MSDK/cloud/alicloud/src/services/linkkit/dm/client\dm_client.c ****             dm_msg_response(DM_MSG_DEST_CLOUD, &request, &response, "{}", strlen("{}"), NULL);
 197              		.loc 1 242 13 is_stmt 1
 198 006a B7060000 		lui	a3,%hi(.LC0)
 199 006e 8147     		li	a5,0
 200 0070 0947     		li	a4,2
 201 0072 93860600 		addi	a3,a3,%lo(.LC0)
 202 0076 7008     		addi	a2,sp,28
 203 0078 8C10     		addi	a1,sp,96
 204 007a 0545     		li	a0,1
 205              	.LVL16:
 206 007c 97000000 		call	dm_msg_response
 206      E7800000 
 207              	.LVL17:
 208              	.L5:
 243:C:/Users/stapi/OneDrive/Desktop/GD32VW553/V1_MQTT_OK/GD32VW55X_Wifi_BLE_SDK/GD32VW55x_RELEASE_V1.0.2/MSDK/cloud/alicloud/src/services/linkkit/dm/client\dm_client.c **** #ifdef LOG_REPORT_TO_CLOUD
 244:C:/Users/stapi/OneDrive/Desktop/GD32VW553/V1_MQTT_OK/GD32VW55X_Wifi_BLE_SDK/GD32VW55x_RELEASE_V1.0.2/MSDK/cloud/alicloud/src/services/linkkit/dm/client\dm_client.c ****             if (SUCCESS_RETURN == check_target_msg(request.id.value, request.id.value_length)) {
 245:C:/Users/stapi/OneDrive/Desktop/GD32VW553/V1_MQTT_OK/GD32VW55X_Wifi_BLE_SDK/GD32VW55x_RELEASE_V1.0.2/MSDK/cloud/alicloud/src/services/linkkit/dm/client\dm_client.c ****                 send_permance_info(request.id.value, request.id.value_length, "2", 1);
 246:C:/Users/stapi/OneDrive/Desktop/GD32VW553/V1_MQTT_OK/GD32VW55X_Wifi_BLE_SDK/GD32VW55x_RELEASE_V1.0.2/MSDK/cloud/alicloud/src/services/linkkit/dm/client\dm_client.c ****             }
 247:C:/Users/stapi/OneDrive/Desktop/GD32VW553/V1_MQTT_OK/GD32VW55X_Wifi_BLE_SDK/GD32VW55x_RELEASE_V1.0.2/MSDK/cloud/alicloud/src/services/linkkit/dm/client\dm_client.c **** #endif
 248:C:/Users/stapi/OneDrive/Desktop/GD32VW553/V1_MQTT_OK/GD32VW55X_Wifi_BLE_SDK/GD32VW55x_RELEASE_V1.0.2/MSDK/cloud/alicloud/src/services/linkkit/dm/client\dm_client.c ****         }
 249:C:/Users/stapi/OneDrive/Desktop/GD32VW553/V1_MQTT_OK/GD32VW55X_Wifi_BLE_SDK/GD32VW55x_RELEASE_V1.0.2/MSDK/cloud/alicloud/src/services/linkkit/dm/client\dm_client.c ****     }
 250:C:/Users/stapi/OneDrive/Desktop/GD32VW553/V1_MQTT_OK/GD32VW55X_Wifi_BLE_SDK/GD32VW55x_RELEASE_V1.0.2/MSDK/cloud/alicloud/src/services/linkkit/dm/client\dm_client.c **** }
 209              		.loc 1 250 1 is_stmt 0
 210 0084 2D61     		addi	sp,sp,224
 211              		.cfi_def_cfa_offset 0
 212 0086 17030000 		tail	__riscv_restore_3
 212      67000300 
 213              		.cfi_restore 18
 214              		.cfi_restore 9
 215              		.cfi_restore 8
 216              		.cfi_restore 1
 217              		.cfi_def_cfa_offset -16
 218              		.cfi_endproc
 219              	.LFE27:
 221              		.section	.text.dm_client_thing_service_request,"ax",@progbits
 222              		.align	1
 223              		.globl	dm_client_thing_service_request
 225              	dm_client_thing_service_request:
 226              	.LFB28:
 251:C:/Users/stapi/OneDrive/Desktop/GD32VW553/V1_MQTT_OK/GD32VW55X_Wifi_BLE_SDK/GD32VW55x_RELEASE_V1.0.2/MSDK/cloud/alicloud/src/services/linkkit/dm/client\dm_client.c **** 
 252:C:/Users/stapi/OneDrive/Desktop/GD32VW553/V1_MQTT_OK/GD32VW55X_Wifi_BLE_SDK/GD32VW55x_RELEASE_V1.0.2/MSDK/cloud/alicloud/src/services/linkkit/dm/client\dm_client.c **** #ifdef DM_UNIFIED_SERVICE_POST
 253:C:/Users/stapi/OneDrive/Desktop/GD32VW553/V1_MQTT_OK/GD32VW55X_Wifi_BLE_SDK/GD32VW55x_RELEASE_V1.0.2/MSDK/cloud/alicloud/src/services/linkkit/dm/client\dm_client.c **** void dm_client_unified_service_post_reply(int fd, const char *topic, const char *payload, unsigned 
 254:C:/Users/stapi/OneDrive/Desktop/GD32VW553/V1_MQTT_OK/GD32VW55X_Wifi_BLE_SDK/GD32VW55x_RELEASE_V1.0.2/MSDK/cloud/alicloud/src/services/linkkit/dm/client\dm_client.c ****                                       void *context)
 255:C:/Users/stapi/OneDrive/Desktop/GD32VW553/V1_MQTT_OK/GD32VW55X_Wifi_BLE_SDK/GD32VW55x_RELEASE_V1.0.2/MSDK/cloud/alicloud/src/services/linkkit/dm/client\dm_client.c **** {
 256:C:/Users/stapi/OneDrive/Desktop/GD32VW553/V1_MQTT_OK/GD32VW55X_Wifi_BLE_SDK/GD32VW55x_RELEASE_V1.0.2/MSDK/cloud/alicloud/src/services/linkkit/dm/client\dm_client.c ****     dm_msg_source_t source;
 257:C:/Users/stapi/OneDrive/Desktop/GD32VW553/V1_MQTT_OK/GD32VW55X_Wifi_BLE_SDK/GD32VW55x_RELEASE_V1.0.2/MSDK/cloud/alicloud/src/services/linkkit/dm/client\dm_client.c **** 
 258:C:/Users/stapi/OneDrive/Desktop/GD32VW553/V1_MQTT_OK/GD32VW55X_Wifi_BLE_SDK/GD32VW55x_RELEASE_V1.0.2/MSDK/cloud/alicloud/src/services/linkkit/dm/client\dm_client.c ****     memset(&source, 0, sizeof(dm_msg_source_t));
 259:C:/Users/stapi/OneDrive/Desktop/GD32VW553/V1_MQTT_OK/GD32VW55X_Wifi_BLE_SDK/GD32VW55x_RELEASE_V1.0.2/MSDK/cloud/alicloud/src/services/linkkit/dm/client\dm_client.c **** 
 260:C:/Users/stapi/OneDrive/Desktop/GD32VW553/V1_MQTT_OK/GD32VW55X_Wifi_BLE_SDK/GD32VW55x_RELEASE_V1.0.2/MSDK/cloud/alicloud/src/services/linkkit/dm/client\dm_client.c ****     source.uri = topic;
 261:C:/Users/stapi/OneDrive/Desktop/GD32VW553/V1_MQTT_OK/GD32VW55X_Wifi_BLE_SDK/GD32VW55x_RELEASE_V1.0.2/MSDK/cloud/alicloud/src/services/linkkit/dm/client\dm_client.c ****     source.payload = (unsigned char *)payload;
 262:C:/Users/stapi/OneDrive/Desktop/GD32VW553/V1_MQTT_OK/GD32VW55X_Wifi_BLE_SDK/GD32VW55x_RELEASE_V1.0.2/MSDK/cloud/alicloud/src/services/linkkit/dm/client\dm_client.c ****     source.payload_len = payload_len;
 263:C:/Users/stapi/OneDrive/Desktop/GD32VW553/V1_MQTT_OK/GD32VW55X_Wifi_BLE_SDK/GD32VW55x_RELEASE_V1.0.2/MSDK/cloud/alicloud/src/services/linkkit/dm/client\dm_client.c ****     source.context = NULL;
 264:C:/Users/stapi/OneDrive/Desktop/GD32VW553/V1_MQTT_OK/GD32VW55X_Wifi_BLE_SDK/GD32VW55x_RELEASE_V1.0.2/MSDK/cloud/alicloud/src/services/linkkit/dm/client\dm_client.c **** 
 265:C:/Users/stapi/OneDrive/Desktop/GD32VW553/V1_MQTT_OK/GD32VW55X_Wifi_BLE_SDK/GD32VW55x_RELEASE_V1.0.2/MSDK/cloud/alicloud/src/services/linkkit/dm/client\dm_client.c ****     dm_msg_proc_unified_service_post_reply(&source);
 266:C:/Users/stapi/OneDrive/Desktop/GD32VW553/V1_MQTT_OK/GD32VW55X_Wifi_BLE_SDK/GD32VW55x_RELEASE_V1.0.2/MSDK/cloud/alicloud/src/services/linkkit/dm/client\dm_client.c **** }
 267:C:/Users/stapi/OneDrive/Desktop/GD32VW553/V1_MQTT_OK/GD32VW55X_Wifi_BLE_SDK/GD32VW55x_RELEASE_V1.0.2/MSDK/cloud/alicloud/src/services/linkkit/dm/client\dm_client.c **** #endif
 268:C:/Users/stapi/OneDrive/Desktop/GD32VW553/V1_MQTT_OK/GD32VW55X_Wifi_BLE_SDK/GD32VW55x_RELEASE_V1.0.2/MSDK/cloud/alicloud/src/services/linkkit/dm/client\dm_client.c **** 
 269:C:/Users/stapi/OneDrive/Desktop/GD32VW553/V1_MQTT_OK/GD32VW55X_Wifi_BLE_SDK/GD32VW55x_RELEASE_V1.0.2/MSDK/cloud/alicloud/src/services/linkkit/dm/client\dm_client.c **** #ifdef LINK_VISUAL_ENABLE
 270:C:/Users/stapi/OneDrive/Desktop/GD32VW553/V1_MQTT_OK/GD32VW55X_Wifi_BLE_SDK/GD32VW55x_RELEASE_V1.0.2/MSDK/cloud/alicloud/src/services/linkkit/dm/client\dm_client.c **** void dm_client_link_visual_downstream(int fd, const char *topic, const char *payload, unsigned int 
 271:C:/Users/stapi/OneDrive/Desktop/GD32VW553/V1_MQTT_OK/GD32VW55X_Wifi_BLE_SDK/GD32VW55x_RELEASE_V1.0.2/MSDK/cloud/alicloud/src/services/linkkit/dm/client\dm_client.c ****                                       void *context)
 272:C:/Users/stapi/OneDrive/Desktop/GD32VW553/V1_MQTT_OK/GD32VW55X_Wifi_BLE_SDK/GD32VW55x_RELEASE_V1.0.2/MSDK/cloud/alicloud/src/services/linkkit/dm/client\dm_client.c **** {
 273:C:/Users/stapi/OneDrive/Desktop/GD32VW553/V1_MQTT_OK/GD32VW55X_Wifi_BLE_SDK/GD32VW55x_RELEASE_V1.0.2/MSDK/cloud/alicloud/src/services/linkkit/dm/client\dm_client.c ****     dm_msg_source_t source;
 274:C:/Users/stapi/OneDrive/Desktop/GD32VW553/V1_MQTT_OK/GD32VW55X_Wifi_BLE_SDK/GD32VW55x_RELEASE_V1.0.2/MSDK/cloud/alicloud/src/services/linkkit/dm/client\dm_client.c ****     memset(&source, 0, sizeof(dm_msg_source_t));
 275:C:/Users/stapi/OneDrive/Desktop/GD32VW553/V1_MQTT_OK/GD32VW55X_Wifi_BLE_SDK/GD32VW55x_RELEASE_V1.0.2/MSDK/cloud/alicloud/src/services/linkkit/dm/client\dm_client.c ****     source.uri = topic;
 276:C:/Users/stapi/OneDrive/Desktop/GD32VW553/V1_MQTT_OK/GD32VW55X_Wifi_BLE_SDK/GD32VW55x_RELEASE_V1.0.2/MSDK/cloud/alicloud/src/services/linkkit/dm/client\dm_client.c ****     source.payload = (unsigned char *)payload;
 277:C:/Users/stapi/OneDrive/Desktop/GD32VW553/V1_MQTT_OK/GD32VW55X_Wifi_BLE_SDK/GD32VW55x_RELEASE_V1.0.2/MSDK/cloud/alicloud/src/services/linkkit/dm/client\dm_client.c ****     source.payload_len = payload_len;
 278:C:/Users/stapi/OneDrive/Desktop/GD32VW553/V1_MQTT_OK/GD32VW55X_Wifi_BLE_SDK/GD32VW55x_RELEASE_V1.0.2/MSDK/cloud/alicloud/src/services/linkkit/dm/client\dm_client.c ****     source.context = NULL;
 279:C:/Users/stapi/OneDrive/Desktop/GD32VW553/V1_MQTT_OK/GD32VW55X_Wifi_BLE_SDK/GD32VW55x_RELEASE_V1.0.2/MSDK/cloud/alicloud/src/services/linkkit/dm/client\dm_client.c ****     dm_msg_proc_thing_model_link_visual(&source);
 280:C:/Users/stapi/OneDrive/Desktop/GD32VW553/V1_MQTT_OK/GD32VW55X_Wifi_BLE_SDK/GD32VW55x_RELEASE_V1.0.2/MSDK/cloud/alicloud/src/services/linkkit/dm/client\dm_client.c **** }
 281:C:/Users/stapi/OneDrive/Desktop/GD32VW553/V1_MQTT_OK/GD32VW55X_Wifi_BLE_SDK/GD32VW55x_RELEASE_V1.0.2/MSDK/cloud/alicloud/src/services/linkkit/dm/client\dm_client.c **** #endif
 282:C:/Users/stapi/OneDrive/Desktop/GD32VW553/V1_MQTT_OK/GD32VW55X_Wifi_BLE_SDK/GD32VW55x_RELEASE_V1.0.2/MSDK/cloud/alicloud/src/services/linkkit/dm/client\dm_client.c **** 
 283:C:/Users/stapi/OneDrive/Desktop/GD32VW553/V1_MQTT_OK/GD32VW55X_Wifi_BLE_SDK/GD32VW55x_RELEASE_V1.0.2/MSDK/cloud/alicloud/src/services/linkkit/dm/client\dm_client.c **** void dm_client_thing_service_request(int fd, const char *topic, const char *payload, unsigned int p
 284:C:/Users/stapi/OneDrive/Desktop/GD32VW553/V1_MQTT_OK/GD32VW55X_Wifi_BLE_SDK/GD32VW55x_RELEASE_V1.0.2/MSDK/cloud/alicloud/src/services/linkkit/dm/client\dm_client.c ****                                      void *context)
 285:C:/Users/stapi/OneDrive/Desktop/GD32VW553/V1_MQTT_OK/GD32VW55X_Wifi_BLE_SDK/GD32VW55x_RELEASE_V1.0.2/MSDK/cloud/alicloud/src/services/linkkit/dm/client\dm_client.c **** {
 227              		.loc 1 285 1 is_stmt 1
 228              		.cfi_startproc
 229              	.LVL18:
 230 0000 17030000 		call	t0,__riscv_save_0
 230      E7020300 
 231              		.cfi_offset 1, -4
 232              		.cfi_def_cfa_offset 16
 286:C:/Users/stapi/OneDrive/Desktop/GD32VW553/V1_MQTT_OK/GD32VW55X_Wifi_BLE_SDK/GD32VW55x_RELEASE_V1.0.2/MSDK/cloud/alicloud/src/services/linkkit/dm/client\dm_client.c ****     dm_msg_source_t source;
 233              		.loc 1 286 5
 287:C:/Users/stapi/OneDrive/Desktop/GD32VW553/V1_MQTT_OK/GD32VW55X_Wifi_BLE_SDK/GD32VW55x_RELEASE_V1.0.2/MSDK/cloud/alicloud/src/services/linkkit/dm/client\dm_client.c **** 
 288:C:/Users/stapi/OneDrive/Desktop/GD32VW553/V1_MQTT_OK/GD32VW55X_Wifi_BLE_SDK/GD32VW55x_RELEASE_V1.0.2/MSDK/cloud/alicloud/src/services/linkkit/dm/client\dm_client.c ****     memset(&source, 0, sizeof(dm_msg_source_t));
 234              		.loc 1 288 5
 285:C:/Users/stapi/OneDrive/Desktop/GD32VW553/V1_MQTT_OK/GD32VW55X_Wifi_BLE_SDK/GD32VW55x_RELEASE_V1.0.2/MSDK/cloud/alicloud/src/services/linkkit/dm/client\dm_client.c ****     dm_msg_source_t source;
 235              		.loc 1 285 1 is_stmt 0
 236 0008 4111     		addi	sp,sp,-16
 237              		.cfi_def_cfa_offset 32
 289:C:/Users/stapi/OneDrive/Desktop/GD32VW553/V1_MQTT_OK/GD32VW55X_Wifi_BLE_SDK/GD32VW55x_RELEASE_V1.0.2/MSDK/cloud/alicloud/src/services/linkkit/dm/client\dm_client.c **** 
 290:C:/Users/stapi/OneDrive/Desktop/GD32VW553/V1_MQTT_OK/GD32VW55X_Wifi_BLE_SDK/GD32VW55x_RELEASE_V1.0.2/MSDK/cloud/alicloud/src/services/linkkit/dm/client\dm_client.c ****     source.uri = topic;
 291:C:/Users/stapi/OneDrive/Desktop/GD32VW553/V1_MQTT_OK/GD32VW55X_Wifi_BLE_SDK/GD32VW55x_RELEASE_V1.0.2/MSDK/cloud/alicloud/src/services/linkkit/dm/client\dm_client.c ****     source.payload = (unsigned char *)payload;
 292:C:/Users/stapi/OneDrive/Desktop/GD32VW553/V1_MQTT_OK/GD32VW55X_Wifi_BLE_SDK/GD32VW55x_RELEASE_V1.0.2/MSDK/cloud/alicloud/src/services/linkkit/dm/client\dm_client.c ****     source.payload_len = payload_len;
 293:C:/Users/stapi/OneDrive/Desktop/GD32VW553/V1_MQTT_OK/GD32VW55X_Wifi_BLE_SDK/GD32VW55x_RELEASE_V1.0.2/MSDK/cloud/alicloud/src/services/linkkit/dm/client\dm_client.c ****     source.context = NULL;
 294:C:/Users/stapi/OneDrive/Desktop/GD32VW553/V1_MQTT_OK/GD32VW55X_Wifi_BLE_SDK/GD32VW55x_RELEASE_V1.0.2/MSDK/cloud/alicloud/src/services/linkkit/dm/client\dm_client.c **** 
 295:C:/Users/stapi/OneDrive/Desktop/GD32VW553/V1_MQTT_OK/GD32VW55X_Wifi_BLE_SDK/GD32VW55x_RELEASE_V1.0.2/MSDK/cloud/alicloud/src/services/linkkit/dm/client\dm_client.c ****     dm_msg_proc_thing_service_request(&source);
 238              		.loc 1 295 5
 239 000a 0A85     		mv	a0,sp
 240              	.LVL19:
 290:C:/Users/stapi/OneDrive/Desktop/GD32VW553/V1_MQTT_OK/GD32VW55X_Wifi_BLE_SDK/GD32VW55x_RELEASE_V1.0.2/MSDK/cloud/alicloud/src/services/linkkit/dm/client\dm_client.c ****     source.payload = (unsigned char *)payload;
 241              		.loc 1 290 16
 242 000c 2EC0     		sw	a1,0(sp)
 291:C:/Users/stapi/OneDrive/Desktop/GD32VW553/V1_MQTT_OK/GD32VW55X_Wifi_BLE_SDK/GD32VW55x_RELEASE_V1.0.2/MSDK/cloud/alicloud/src/services/linkkit/dm/client\dm_client.c ****     source.payload_len = payload_len;
 243              		.loc 1 291 20
 244 000e 32C2     		sw	a2,4(sp)
 292:C:/Users/stapi/OneDrive/Desktop/GD32VW553/V1_MQTT_OK/GD32VW55X_Wifi_BLE_SDK/GD32VW55x_RELEASE_V1.0.2/MSDK/cloud/alicloud/src/services/linkkit/dm/client\dm_client.c ****     source.context = NULL;
 245              		.loc 1 292 24
 246 0010 36C4     		sw	a3,8(sp)
 288:C:/Users/stapi/OneDrive/Desktop/GD32VW553/V1_MQTT_OK/GD32VW55X_Wifi_BLE_SDK/GD32VW55x_RELEASE_V1.0.2/MSDK/cloud/alicloud/src/services/linkkit/dm/client\dm_client.c **** 
 247              		.loc 1 288 5
 248 0012 02C6     		sw	zero,12(sp)
 290:C:/Users/stapi/OneDrive/Desktop/GD32VW553/V1_MQTT_OK/GD32VW55X_Wifi_BLE_SDK/GD32VW55x_RELEASE_V1.0.2/MSDK/cloud/alicloud/src/services/linkkit/dm/client\dm_client.c ****     source.payload = (unsigned char *)payload;
 249              		.loc 1 290 5 is_stmt 1
 291:C:/Users/stapi/OneDrive/Desktop/GD32VW553/V1_MQTT_OK/GD32VW55X_Wifi_BLE_SDK/GD32VW55x_RELEASE_V1.0.2/MSDK/cloud/alicloud/src/services/linkkit/dm/client\dm_client.c ****     source.payload_len = payload_len;
 250              		.loc 1 291 5
 292:C:/Users/stapi/OneDrive/Desktop/GD32VW553/V1_MQTT_OK/GD32VW55X_Wifi_BLE_SDK/GD32VW55x_RELEASE_V1.0.2/MSDK/cloud/alicloud/src/services/linkkit/dm/client\dm_client.c ****     source.context = NULL;
 251              		.loc 1 292 5
 293:C:/Users/stapi/OneDrive/Desktop/GD32VW553/V1_MQTT_OK/GD32VW55X_Wifi_BLE_SDK/GD32VW55x_RELEASE_V1.0.2/MSDK/cloud/alicloud/src/services/linkkit/dm/client\dm_client.c **** 
 252              		.loc 1 293 5
 253              		.loc 1 295 5
 254 0014 97000000 		call	dm_msg_proc_thing_service_request
 254      E7800000 
 255              	.LVL20:
 296:C:/Users/stapi/OneDrive/Desktop/GD32VW553/V1_MQTT_OK/GD32VW55X_Wifi_BLE_SDK/GD32VW55x_RELEASE_V1.0.2/MSDK/cloud/alicloud/src/services/linkkit/dm/client\dm_client.c **** }
 256              		.loc 1 296 1 is_stmt 0
 257 001c 4101     		addi	sp,sp,16
 258              		.cfi_def_cfa_offset 0
 259 001e 17030000 		tail	__riscv_restore_0
 259      67000300 
 260              		.cfi_restore 1
 261              		.cfi_def_cfa_offset -16
 262              		.cfi_endproc
 263              	.LFE28:
 265              		.section	.text.dm_client_thing_event_post_reply,"ax",@progbits
 266              		.align	1
 267              		.globl	dm_client_thing_event_post_reply
 269              	dm_client_thing_event_post_reply:
 270              	.LFB29:
 297:C:/Users/stapi/OneDrive/Desktop/GD32VW553/V1_MQTT_OK/GD32VW55X_Wifi_BLE_SDK/GD32VW55x_RELEASE_V1.0.2/MSDK/cloud/alicloud/src/services/linkkit/dm/client\dm_client.c **** 
 298:C:/Users/stapi/OneDrive/Desktop/GD32VW553/V1_MQTT_OK/GD32VW55X_Wifi_BLE_SDK/GD32VW55x_RELEASE_V1.0.2/MSDK/cloud/alicloud/src/services/linkkit/dm/client\dm_client.c **** void dm_client_thing_event_post_reply(int fd, const char *topic, const char *payload, unsigned int 
 299:C:/Users/stapi/OneDrive/Desktop/GD32VW553/V1_MQTT_OK/GD32VW55X_Wifi_BLE_SDK/GD32VW55x_RELEASE_V1.0.2/MSDK/cloud/alicloud/src/services/linkkit/dm/client\dm_client.c ****                                       void *context)
 300:C:/Users/stapi/OneDrive/Desktop/GD32VW553/V1_MQTT_OK/GD32VW55X_Wifi_BLE_SDK/GD32VW55x_RELEASE_V1.0.2/MSDK/cloud/alicloud/src/services/linkkit/dm/client\dm_client.c **** {
 271              		.loc 1 300 1 is_stmt 1
 272              		.cfi_startproc
 273              	.LVL21:
 274 0000 17030000 		call	t0,__riscv_save_0
 274      E7020300 
 275              		.cfi_offset 1, -4
 276              		.cfi_def_cfa_offset 16
 301:C:/Users/stapi/OneDrive/Desktop/GD32VW553/V1_MQTT_OK/GD32VW55X_Wifi_BLE_SDK/GD32VW55x_RELEASE_V1.0.2/MSDK/cloud/alicloud/src/services/linkkit/dm/client\dm_client.c ****     dm_msg_source_t source;
 277              		.loc 1 301 5
 302:C:/Users/stapi/OneDrive/Desktop/GD32VW553/V1_MQTT_OK/GD32VW55X_Wifi_BLE_SDK/GD32VW55x_RELEASE_V1.0.2/MSDK/cloud/alicloud/src/services/linkkit/dm/client\dm_client.c **** 
 303:C:/Users/stapi/OneDrive/Desktop/GD32VW553/V1_MQTT_OK/GD32VW55X_Wifi_BLE_SDK/GD32VW55x_RELEASE_V1.0.2/MSDK/cloud/alicloud/src/services/linkkit/dm/client\dm_client.c ****     memset(&source, 0, sizeof(dm_msg_source_t));
 278              		.loc 1 303 5
 300:C:/Users/stapi/OneDrive/Desktop/GD32VW553/V1_MQTT_OK/GD32VW55X_Wifi_BLE_SDK/GD32VW55x_RELEASE_V1.0.2/MSDK/cloud/alicloud/src/services/linkkit/dm/client\dm_client.c ****     dm_msg_source_t source;
 279              		.loc 1 300 1 is_stmt 0
 280 0008 4111     		addi	sp,sp,-16
 281              		.cfi_def_cfa_offset 32
 304:C:/Users/stapi/OneDrive/Desktop/GD32VW553/V1_MQTT_OK/GD32VW55X_Wifi_BLE_SDK/GD32VW55x_RELEASE_V1.0.2/MSDK/cloud/alicloud/src/services/linkkit/dm/client\dm_client.c **** 
 305:C:/Users/stapi/OneDrive/Desktop/GD32VW553/V1_MQTT_OK/GD32VW55X_Wifi_BLE_SDK/GD32VW55x_RELEASE_V1.0.2/MSDK/cloud/alicloud/src/services/linkkit/dm/client\dm_client.c ****     source.uri = topic;
 306:C:/Users/stapi/OneDrive/Desktop/GD32VW553/V1_MQTT_OK/GD32VW55X_Wifi_BLE_SDK/GD32VW55x_RELEASE_V1.0.2/MSDK/cloud/alicloud/src/services/linkkit/dm/client\dm_client.c ****     source.payload = (unsigned char *)payload;
 307:C:/Users/stapi/OneDrive/Desktop/GD32VW553/V1_MQTT_OK/GD32VW55X_Wifi_BLE_SDK/GD32VW55x_RELEASE_V1.0.2/MSDK/cloud/alicloud/src/services/linkkit/dm/client\dm_client.c ****     source.payload_len = payload_len;
 308:C:/Users/stapi/OneDrive/Desktop/GD32VW553/V1_MQTT_OK/GD32VW55X_Wifi_BLE_SDK/GD32VW55x_RELEASE_V1.0.2/MSDK/cloud/alicloud/src/services/linkkit/dm/client\dm_client.c ****     source.context = NULL;
 309:C:/Users/stapi/OneDrive/Desktop/GD32VW553/V1_MQTT_OK/GD32VW55X_Wifi_BLE_SDK/GD32VW55x_RELEASE_V1.0.2/MSDK/cloud/alicloud/src/services/linkkit/dm/client\dm_client.c **** 
 310:C:/Users/stapi/OneDrive/Desktop/GD32VW553/V1_MQTT_OK/GD32VW55X_Wifi_BLE_SDK/GD32VW55x_RELEASE_V1.0.2/MSDK/cloud/alicloud/src/services/linkkit/dm/client\dm_client.c ****     dm_msg_proc_thing_event_post_reply(&source);
 282              		.loc 1 310 5
 283 000a 0A85     		mv	a0,sp
 284              	.LVL22:
 305:C:/Users/stapi/OneDrive/Desktop/GD32VW553/V1_MQTT_OK/GD32VW55X_Wifi_BLE_SDK/GD32VW55x_RELEASE_V1.0.2/MSDK/cloud/alicloud/src/services/linkkit/dm/client\dm_client.c ****     source.payload = (unsigned char *)payload;
 285              		.loc 1 305 16
 286 000c 2EC0     		sw	a1,0(sp)
 306:C:/Users/stapi/OneDrive/Desktop/GD32VW553/V1_MQTT_OK/GD32VW55X_Wifi_BLE_SDK/GD32VW55x_RELEASE_V1.0.2/MSDK/cloud/alicloud/src/services/linkkit/dm/client\dm_client.c ****     source.payload_len = payload_len;
 287              		.loc 1 306 20
 288 000e 32C2     		sw	a2,4(sp)
 307:C:/Users/stapi/OneDrive/Desktop/GD32VW553/V1_MQTT_OK/GD32VW55X_Wifi_BLE_SDK/GD32VW55x_RELEASE_V1.0.2/MSDK/cloud/alicloud/src/services/linkkit/dm/client\dm_client.c ****     source.context = NULL;
 289              		.loc 1 307 24
 290 0010 36C4     		sw	a3,8(sp)
 303:C:/Users/stapi/OneDrive/Desktop/GD32VW553/V1_MQTT_OK/GD32VW55X_Wifi_BLE_SDK/GD32VW55x_RELEASE_V1.0.2/MSDK/cloud/alicloud/src/services/linkkit/dm/client\dm_client.c **** 
 291              		.loc 1 303 5
 292 0012 02C6     		sw	zero,12(sp)
 305:C:/Users/stapi/OneDrive/Desktop/GD32VW553/V1_MQTT_OK/GD32VW55X_Wifi_BLE_SDK/GD32VW55x_RELEASE_V1.0.2/MSDK/cloud/alicloud/src/services/linkkit/dm/client\dm_client.c ****     source.payload = (unsigned char *)payload;
 293              		.loc 1 305 5 is_stmt 1
 306:C:/Users/stapi/OneDrive/Desktop/GD32VW553/V1_MQTT_OK/GD32VW55X_Wifi_BLE_SDK/GD32VW55x_RELEASE_V1.0.2/MSDK/cloud/alicloud/src/services/linkkit/dm/client\dm_client.c ****     source.payload_len = payload_len;
 294              		.loc 1 306 5
 307:C:/Users/stapi/OneDrive/Desktop/GD32VW553/V1_MQTT_OK/GD32VW55X_Wifi_BLE_SDK/GD32VW55x_RELEASE_V1.0.2/MSDK/cloud/alicloud/src/services/linkkit/dm/client\dm_client.c ****     source.context = NULL;
 295              		.loc 1 307 5
 308:C:/Users/stapi/OneDrive/Desktop/GD32VW553/V1_MQTT_OK/GD32VW55X_Wifi_BLE_SDK/GD32VW55x_RELEASE_V1.0.2/MSDK/cloud/alicloud/src/services/linkkit/dm/client\dm_client.c **** 
 296              		.loc 1 308 5
 297              		.loc 1 310 5
 298 0014 97000000 		call	dm_msg_proc_thing_event_post_reply
 298      E7800000 
 299              	.LVL23:
 311:C:/Users/stapi/OneDrive/Desktop/GD32VW553/V1_MQTT_OK/GD32VW55X_Wifi_BLE_SDK/GD32VW55x_RELEASE_V1.0.2/MSDK/cloud/alicloud/src/services/linkkit/dm/client\dm_client.c **** }
 300              		.loc 1 311 1 is_stmt 0
 301 001c 4101     		addi	sp,sp,16
 302              		.cfi_def_cfa_offset 0
 303 001e 17030000 		tail	__riscv_restore_0
 303      67000300 
 304              		.cfi_restore 1
 305              		.cfi_def_cfa_offset -16
 306              		.cfi_endproc
 307              	.LFE29:
 309              		.section	.text.dm_client_thing_deviceinfo_update_reply,"ax",@progbits
 310              		.align	1
 311              		.globl	dm_client_thing_deviceinfo_update_reply
 313              	dm_client_thing_deviceinfo_update_reply:
 314              	.LFB30:
 312:C:/Users/stapi/OneDrive/Desktop/GD32VW553/V1_MQTT_OK/GD32VW55X_Wifi_BLE_SDK/GD32VW55x_RELEASE_V1.0.2/MSDK/cloud/alicloud/src/services/linkkit/dm/client\dm_client.c **** 
 313:C:/Users/stapi/OneDrive/Desktop/GD32VW553/V1_MQTT_OK/GD32VW55X_Wifi_BLE_SDK/GD32VW55x_RELEASE_V1.0.2/MSDK/cloud/alicloud/src/services/linkkit/dm/client\dm_client.c **** void dm_client_thing_deviceinfo_update_reply(int fd, const char *topic, const char *payload, unsign
 314:C:/Users/stapi/OneDrive/Desktop/GD32VW553/V1_MQTT_OK/GD32VW55X_Wifi_BLE_SDK/GD32VW55x_RELEASE_V1.0.2/MSDK/cloud/alicloud/src/services/linkkit/dm/client\dm_client.c ****         void *context)
 315:C:/Users/stapi/OneDrive/Desktop/GD32VW553/V1_MQTT_OK/GD32VW55X_Wifi_BLE_SDK/GD32VW55x_RELEASE_V1.0.2/MSDK/cloud/alicloud/src/services/linkkit/dm/client\dm_client.c **** {
 315              		.loc 1 315 1 is_stmt 1
 316              		.cfi_startproc
 317              	.LVL24:
 318 0000 17030000 		call	t0,__riscv_save_0
 318      E7020300 
 319              		.cfi_offset 1, -4
 320              		.cfi_def_cfa_offset 16
 316:C:/Users/stapi/OneDrive/Desktop/GD32VW553/V1_MQTT_OK/GD32VW55X_Wifi_BLE_SDK/GD32VW55x_RELEASE_V1.0.2/MSDK/cloud/alicloud/src/services/linkkit/dm/client\dm_client.c ****     dm_msg_source_t source;
 321              		.loc 1 316 5
 317:C:/Users/stapi/OneDrive/Desktop/GD32VW553/V1_MQTT_OK/GD32VW55X_Wifi_BLE_SDK/GD32VW55x_RELEASE_V1.0.2/MSDK/cloud/alicloud/src/services/linkkit/dm/client\dm_client.c **** 
 318:C:/Users/stapi/OneDrive/Desktop/GD32VW553/V1_MQTT_OK/GD32VW55X_Wifi_BLE_SDK/GD32VW55x_RELEASE_V1.0.2/MSDK/cloud/alicloud/src/services/linkkit/dm/client\dm_client.c ****     memset(&source, 0, sizeof(dm_msg_source_t));
 322              		.loc 1 318 5
 315:C:/Users/stapi/OneDrive/Desktop/GD32VW553/V1_MQTT_OK/GD32VW55X_Wifi_BLE_SDK/GD32VW55x_RELEASE_V1.0.2/MSDK/cloud/alicloud/src/services/linkkit/dm/client\dm_client.c ****     dm_msg_source_t source;
 323              		.loc 1 315 1 is_stmt 0
 324 0008 4111     		addi	sp,sp,-16
 325              		.cfi_def_cfa_offset 32
 319:C:/Users/stapi/OneDrive/Desktop/GD32VW553/V1_MQTT_OK/GD32VW55X_Wifi_BLE_SDK/GD32VW55x_RELEASE_V1.0.2/MSDK/cloud/alicloud/src/services/linkkit/dm/client\dm_client.c **** 
 320:C:/Users/stapi/OneDrive/Desktop/GD32VW553/V1_MQTT_OK/GD32VW55X_Wifi_BLE_SDK/GD32VW55x_RELEASE_V1.0.2/MSDK/cloud/alicloud/src/services/linkkit/dm/client\dm_client.c ****     source.uri = topic;
 321:C:/Users/stapi/OneDrive/Desktop/GD32VW553/V1_MQTT_OK/GD32VW55X_Wifi_BLE_SDK/GD32VW55x_RELEASE_V1.0.2/MSDK/cloud/alicloud/src/services/linkkit/dm/client\dm_client.c ****     source.payload = (unsigned char *)payload;
 322:C:/Users/stapi/OneDrive/Desktop/GD32VW553/V1_MQTT_OK/GD32VW55X_Wifi_BLE_SDK/GD32VW55x_RELEASE_V1.0.2/MSDK/cloud/alicloud/src/services/linkkit/dm/client\dm_client.c ****     source.payload_len = payload_len;
 323:C:/Users/stapi/OneDrive/Desktop/GD32VW553/V1_MQTT_OK/GD32VW55X_Wifi_BLE_SDK/GD32VW55x_RELEASE_V1.0.2/MSDK/cloud/alicloud/src/services/linkkit/dm/client\dm_client.c ****     source.context = NULL;
 324:C:/Users/stapi/OneDrive/Desktop/GD32VW553/V1_MQTT_OK/GD32VW55X_Wifi_BLE_SDK/GD32VW55x_RELEASE_V1.0.2/MSDK/cloud/alicloud/src/services/linkkit/dm/client\dm_client.c **** 
 325:C:/Users/stapi/OneDrive/Desktop/GD32VW553/V1_MQTT_OK/GD32VW55X_Wifi_BLE_SDK/GD32VW55x_RELEASE_V1.0.2/MSDK/cloud/alicloud/src/services/linkkit/dm/client\dm_client.c ****     dm_msg_proc_thing_deviceinfo_update_reply(&source);
 326              		.loc 1 325 5
 327 000a 0A85     		mv	a0,sp
 328              	.LVL25:
 320:C:/Users/stapi/OneDrive/Desktop/GD32VW553/V1_MQTT_OK/GD32VW55X_Wifi_BLE_SDK/GD32VW55x_RELEASE_V1.0.2/MSDK/cloud/alicloud/src/services/linkkit/dm/client\dm_client.c ****     source.payload = (unsigned char *)payload;
 329              		.loc 1 320 16
 330 000c 2EC0     		sw	a1,0(sp)
 321:C:/Users/stapi/OneDrive/Desktop/GD32VW553/V1_MQTT_OK/GD32VW55X_Wifi_BLE_SDK/GD32VW55x_RELEASE_V1.0.2/MSDK/cloud/alicloud/src/services/linkkit/dm/client\dm_client.c ****     source.payload_len = payload_len;
 331              		.loc 1 321 20
 332 000e 32C2     		sw	a2,4(sp)
 322:C:/Users/stapi/OneDrive/Desktop/GD32VW553/V1_MQTT_OK/GD32VW55X_Wifi_BLE_SDK/GD32VW55x_RELEASE_V1.0.2/MSDK/cloud/alicloud/src/services/linkkit/dm/client\dm_client.c ****     source.context = NULL;
 333              		.loc 1 322 24
 334 0010 36C4     		sw	a3,8(sp)
 318:C:/Users/stapi/OneDrive/Desktop/GD32VW553/V1_MQTT_OK/GD32VW55X_Wifi_BLE_SDK/GD32VW55x_RELEASE_V1.0.2/MSDK/cloud/alicloud/src/services/linkkit/dm/client\dm_client.c **** 
 335              		.loc 1 318 5
 336 0012 02C6     		sw	zero,12(sp)
 320:C:/Users/stapi/OneDrive/Desktop/GD32VW553/V1_MQTT_OK/GD32VW55X_Wifi_BLE_SDK/GD32VW55x_RELEASE_V1.0.2/MSDK/cloud/alicloud/src/services/linkkit/dm/client\dm_client.c ****     source.payload = (unsigned char *)payload;
 337              		.loc 1 320 5 is_stmt 1
 321:C:/Users/stapi/OneDrive/Desktop/GD32VW553/V1_MQTT_OK/GD32VW55X_Wifi_BLE_SDK/GD32VW55x_RELEASE_V1.0.2/MSDK/cloud/alicloud/src/services/linkkit/dm/client\dm_client.c ****     source.payload_len = payload_len;
 338              		.loc 1 321 5
 322:C:/Users/stapi/OneDrive/Desktop/GD32VW553/V1_MQTT_OK/GD32VW55X_Wifi_BLE_SDK/GD32VW55x_RELEASE_V1.0.2/MSDK/cloud/alicloud/src/services/linkkit/dm/client\dm_client.c ****     source.context = NULL;
 339              		.loc 1 322 5
 323:C:/Users/stapi/OneDrive/Desktop/GD32VW553/V1_MQTT_OK/GD32VW55X_Wifi_BLE_SDK/GD32VW55x_RELEASE_V1.0.2/MSDK/cloud/alicloud/src/services/linkkit/dm/client\dm_client.c **** 
 340              		.loc 1 323 5
 341              		.loc 1 325 5
 342 0014 97000000 		call	dm_msg_proc_thing_deviceinfo_update_reply
 342      E7800000 
 343              	.LVL26:
 326:C:/Users/stapi/OneDrive/Desktop/GD32VW553/V1_MQTT_OK/GD32VW55X_Wifi_BLE_SDK/GD32VW55x_RELEASE_V1.0.2/MSDK/cloud/alicloud/src/services/linkkit/dm/client\dm_client.c **** }
 344              		.loc 1 326 1 is_stmt 0
 345 001c 4101     		addi	sp,sp,16
 346              		.cfi_def_cfa_offset 0
 347 001e 17030000 		tail	__riscv_restore_0
 347      67000300 
 348              		.cfi_restore 1
 349              		.cfi_def_cfa_offset -16
 350              		.cfi_endproc
 351              	.LFE30:
 353              		.section	.text.dm_client_thing_deviceinfo_delete_reply,"ax",@progbits
 354              		.align	1
 355              		.globl	dm_client_thing_deviceinfo_delete_reply
 357              	dm_client_thing_deviceinfo_delete_reply:
 358              	.LFB31:
 327:C:/Users/stapi/OneDrive/Desktop/GD32VW553/V1_MQTT_OK/GD32VW55X_Wifi_BLE_SDK/GD32VW55x_RELEASE_V1.0.2/MSDK/cloud/alicloud/src/services/linkkit/dm/client\dm_client.c **** 
 328:C:/Users/stapi/OneDrive/Desktop/GD32VW553/V1_MQTT_OK/GD32VW55X_Wifi_BLE_SDK/GD32VW55x_RELEASE_V1.0.2/MSDK/cloud/alicloud/src/services/linkkit/dm/client\dm_client.c **** void dm_client_thing_deviceinfo_delete_reply(int fd, const char *topic, const char *payload, unsign
 329:C:/Users/stapi/OneDrive/Desktop/GD32VW553/V1_MQTT_OK/GD32VW55X_Wifi_BLE_SDK/GD32VW55x_RELEASE_V1.0.2/MSDK/cloud/alicloud/src/services/linkkit/dm/client\dm_client.c ****         void *context)
 330:C:/Users/stapi/OneDrive/Desktop/GD32VW553/V1_MQTT_OK/GD32VW55X_Wifi_BLE_SDK/GD32VW55x_RELEASE_V1.0.2/MSDK/cloud/alicloud/src/services/linkkit/dm/client\dm_client.c **** {
 359              		.loc 1 330 1 is_stmt 1
 360              		.cfi_startproc
 361              	.LVL27:
 362 0000 17030000 		call	t0,__riscv_save_0
 362      E7020300 
 363              		.cfi_offset 1, -4
 364              		.cfi_def_cfa_offset 16
 331:C:/Users/stapi/OneDrive/Desktop/GD32VW553/V1_MQTT_OK/GD32VW55X_Wifi_BLE_SDK/GD32VW55x_RELEASE_V1.0.2/MSDK/cloud/alicloud/src/services/linkkit/dm/client\dm_client.c ****     dm_msg_source_t source;
 365              		.loc 1 331 5
 332:C:/Users/stapi/OneDrive/Desktop/GD32VW553/V1_MQTT_OK/GD32VW55X_Wifi_BLE_SDK/GD32VW55x_RELEASE_V1.0.2/MSDK/cloud/alicloud/src/services/linkkit/dm/client\dm_client.c **** 
 333:C:/Users/stapi/OneDrive/Desktop/GD32VW553/V1_MQTT_OK/GD32VW55X_Wifi_BLE_SDK/GD32VW55x_RELEASE_V1.0.2/MSDK/cloud/alicloud/src/services/linkkit/dm/client\dm_client.c ****     memset(&source, 0, sizeof(dm_msg_source_t));
 366              		.loc 1 333 5
 330:C:/Users/stapi/OneDrive/Desktop/GD32VW553/V1_MQTT_OK/GD32VW55X_Wifi_BLE_SDK/GD32VW55x_RELEASE_V1.0.2/MSDK/cloud/alicloud/src/services/linkkit/dm/client\dm_client.c ****     dm_msg_source_t source;
 367              		.loc 1 330 1 is_stmt 0
 368 0008 4111     		addi	sp,sp,-16
 369              		.cfi_def_cfa_offset 32
 334:C:/Users/stapi/OneDrive/Desktop/GD32VW553/V1_MQTT_OK/GD32VW55X_Wifi_BLE_SDK/GD32VW55x_RELEASE_V1.0.2/MSDK/cloud/alicloud/src/services/linkkit/dm/client\dm_client.c **** 
 335:C:/Users/stapi/OneDrive/Desktop/GD32VW553/V1_MQTT_OK/GD32VW55X_Wifi_BLE_SDK/GD32VW55x_RELEASE_V1.0.2/MSDK/cloud/alicloud/src/services/linkkit/dm/client\dm_client.c ****     source.uri = topic;
 336:C:/Users/stapi/OneDrive/Desktop/GD32VW553/V1_MQTT_OK/GD32VW55X_Wifi_BLE_SDK/GD32VW55x_RELEASE_V1.0.2/MSDK/cloud/alicloud/src/services/linkkit/dm/client\dm_client.c ****     source.payload = (unsigned char *)payload;
 337:C:/Users/stapi/OneDrive/Desktop/GD32VW553/V1_MQTT_OK/GD32VW55X_Wifi_BLE_SDK/GD32VW55x_RELEASE_V1.0.2/MSDK/cloud/alicloud/src/services/linkkit/dm/client\dm_client.c ****     source.payload_len = payload_len;
 338:C:/Users/stapi/OneDrive/Desktop/GD32VW553/V1_MQTT_OK/GD32VW55X_Wifi_BLE_SDK/GD32VW55x_RELEASE_V1.0.2/MSDK/cloud/alicloud/src/services/linkkit/dm/client\dm_client.c ****     source.context = NULL;
 339:C:/Users/stapi/OneDrive/Desktop/GD32VW553/V1_MQTT_OK/GD32VW55X_Wifi_BLE_SDK/GD32VW55x_RELEASE_V1.0.2/MSDK/cloud/alicloud/src/services/linkkit/dm/client\dm_client.c **** 
 340:C:/Users/stapi/OneDrive/Desktop/GD32VW553/V1_MQTT_OK/GD32VW55X_Wifi_BLE_SDK/GD32VW55x_RELEASE_V1.0.2/MSDK/cloud/alicloud/src/services/linkkit/dm/client\dm_client.c ****     dm_msg_proc_thing_deviceinfo_delete_reply(&source);
 370              		.loc 1 340 5
 371 000a 0A85     		mv	a0,sp
 372              	.LVL28:
 335:C:/Users/stapi/OneDrive/Desktop/GD32VW553/V1_MQTT_OK/GD32VW55X_Wifi_BLE_SDK/GD32VW55x_RELEASE_V1.0.2/MSDK/cloud/alicloud/src/services/linkkit/dm/client\dm_client.c ****     source.payload = (unsigned char *)payload;
 373              		.loc 1 335 16
 374 000c 2EC0     		sw	a1,0(sp)
 336:C:/Users/stapi/OneDrive/Desktop/GD32VW553/V1_MQTT_OK/GD32VW55X_Wifi_BLE_SDK/GD32VW55x_RELEASE_V1.0.2/MSDK/cloud/alicloud/src/services/linkkit/dm/client\dm_client.c ****     source.payload_len = payload_len;
 375              		.loc 1 336 20
 376 000e 32C2     		sw	a2,4(sp)
 337:C:/Users/stapi/OneDrive/Desktop/GD32VW553/V1_MQTT_OK/GD32VW55X_Wifi_BLE_SDK/GD32VW55x_RELEASE_V1.0.2/MSDK/cloud/alicloud/src/services/linkkit/dm/client\dm_client.c ****     source.context = NULL;
 377              		.loc 1 337 24
 378 0010 36C4     		sw	a3,8(sp)
 333:C:/Users/stapi/OneDrive/Desktop/GD32VW553/V1_MQTT_OK/GD32VW55X_Wifi_BLE_SDK/GD32VW55x_RELEASE_V1.0.2/MSDK/cloud/alicloud/src/services/linkkit/dm/client\dm_client.c **** 
 379              		.loc 1 333 5
 380 0012 02C6     		sw	zero,12(sp)
 335:C:/Users/stapi/OneDrive/Desktop/GD32VW553/V1_MQTT_OK/GD32VW55X_Wifi_BLE_SDK/GD32VW55x_RELEASE_V1.0.2/MSDK/cloud/alicloud/src/services/linkkit/dm/client\dm_client.c ****     source.payload = (unsigned char *)payload;
 381              		.loc 1 335 5 is_stmt 1
 336:C:/Users/stapi/OneDrive/Desktop/GD32VW553/V1_MQTT_OK/GD32VW55X_Wifi_BLE_SDK/GD32VW55x_RELEASE_V1.0.2/MSDK/cloud/alicloud/src/services/linkkit/dm/client\dm_client.c ****     source.payload_len = payload_len;
 382              		.loc 1 336 5
 337:C:/Users/stapi/OneDrive/Desktop/GD32VW553/V1_MQTT_OK/GD32VW55X_Wifi_BLE_SDK/GD32VW55x_RELEASE_V1.0.2/MSDK/cloud/alicloud/src/services/linkkit/dm/client\dm_client.c ****     source.context = NULL;
 383              		.loc 1 337 5
 338:C:/Users/stapi/OneDrive/Desktop/GD32VW553/V1_MQTT_OK/GD32VW55X_Wifi_BLE_SDK/GD32VW55x_RELEASE_V1.0.2/MSDK/cloud/alicloud/src/services/linkkit/dm/client\dm_client.c **** 
 384              		.loc 1 338 5
 385              		.loc 1 340 5
 386 0014 97000000 		call	dm_msg_proc_thing_deviceinfo_delete_reply
 386      E7800000 
 387              	.LVL29:
 341:C:/Users/stapi/OneDrive/Desktop/GD32VW553/V1_MQTT_OK/GD32VW55X_Wifi_BLE_SDK/GD32VW55x_RELEASE_V1.0.2/MSDK/cloud/alicloud/src/services/linkkit/dm/client\dm_client.c **** }
 388              		.loc 1 341 1 is_stmt 0
 389 001c 4101     		addi	sp,sp,16
 390              		.cfi_def_cfa_offset 0
 391 001e 17030000 		tail	__riscv_restore_0
 391      67000300 
 392              		.cfi_restore 1
 393              		.cfi_def_cfa_offset -16
 394              		.cfi_endproc
 395              	.LFE31:
 397              		.section	.text.dm_client_thing_event_notify,"ax",@progbits
 398              		.align	1
 399              		.globl	dm_client_thing_event_notify
 401              	dm_client_thing_event_notify:
 402              	.LFB33:
 342:C:/Users/stapi/OneDrive/Desktop/GD32VW553/V1_MQTT_OK/GD32VW55X_Wifi_BLE_SDK/GD32VW55x_RELEASE_V1.0.2/MSDK/cloud/alicloud/src/services/linkkit/dm/client\dm_client.c **** #endif /*end of DEVICE_MODEL_RAWDATA_SOLO*/
 343:C:/Users/stapi/OneDrive/Desktop/GD32VW553/V1_MQTT_OK/GD32VW55X_Wifi_BLE_SDK/GD32VW55x_RELEASE_V1.0.2/MSDK/cloud/alicloud/src/services/linkkit/dm/client\dm_client.c **** 
 344:C:/Users/stapi/OneDrive/Desktop/GD32VW553/V1_MQTT_OK/GD32VW55X_Wifi_BLE_SDK/GD32VW55x_RELEASE_V1.0.2/MSDK/cloud/alicloud/src/services/linkkit/dm/client\dm_client.c **** void dm_client_thing_event_notify_reply(int fd, const char *topic, const char *payload, unsigned in
 345:C:/Users/stapi/OneDrive/Desktop/GD32VW553/V1_MQTT_OK/GD32VW55X_Wifi_BLE_SDK/GD32VW55x_RELEASE_V1.0.2/MSDK/cloud/alicloud/src/services/linkkit/dm/client\dm_client.c ****                                       void *context)
 346:C:/Users/stapi/OneDrive/Desktop/GD32VW553/V1_MQTT_OK/GD32VW55X_Wifi_BLE_SDK/GD32VW55x_RELEASE_V1.0.2/MSDK/cloud/alicloud/src/services/linkkit/dm/client\dm_client.c **** {
 347:C:/Users/stapi/OneDrive/Desktop/GD32VW553/V1_MQTT_OK/GD32VW55X_Wifi_BLE_SDK/GD32VW55x_RELEASE_V1.0.2/MSDK/cloud/alicloud/src/services/linkkit/dm/client\dm_client.c ****     dm_msg_source_t source;
 348:C:/Users/stapi/OneDrive/Desktop/GD32VW553/V1_MQTT_OK/GD32VW55X_Wifi_BLE_SDK/GD32VW55x_RELEASE_V1.0.2/MSDK/cloud/alicloud/src/services/linkkit/dm/client\dm_client.c **** 
 349:C:/Users/stapi/OneDrive/Desktop/GD32VW553/V1_MQTT_OK/GD32VW55X_Wifi_BLE_SDK/GD32VW55x_RELEASE_V1.0.2/MSDK/cloud/alicloud/src/services/linkkit/dm/client\dm_client.c ****     memset(&source, 0, sizeof(dm_msg_source_t));
 350:C:/Users/stapi/OneDrive/Desktop/GD32VW553/V1_MQTT_OK/GD32VW55X_Wifi_BLE_SDK/GD32VW55x_RELEASE_V1.0.2/MSDK/cloud/alicloud/src/services/linkkit/dm/client\dm_client.c **** 
 351:C:/Users/stapi/OneDrive/Desktop/GD32VW553/V1_MQTT_OK/GD32VW55X_Wifi_BLE_SDK/GD32VW55x_RELEASE_V1.0.2/MSDK/cloud/alicloud/src/services/linkkit/dm/client\dm_client.c ****     source.uri = topic;
 352:C:/Users/stapi/OneDrive/Desktop/GD32VW553/V1_MQTT_OK/GD32VW55X_Wifi_BLE_SDK/GD32VW55x_RELEASE_V1.0.2/MSDK/cloud/alicloud/src/services/linkkit/dm/client\dm_client.c ****     source.payload = (unsigned char *)payload;
 353:C:/Users/stapi/OneDrive/Desktop/GD32VW553/V1_MQTT_OK/GD32VW55X_Wifi_BLE_SDK/GD32VW55x_RELEASE_V1.0.2/MSDK/cloud/alicloud/src/services/linkkit/dm/client\dm_client.c ****     source.payload_len = payload_len;
 354:C:/Users/stapi/OneDrive/Desktop/GD32VW553/V1_MQTT_OK/GD32VW55X_Wifi_BLE_SDK/GD32VW55x_RELEASE_V1.0.2/MSDK/cloud/alicloud/src/services/linkkit/dm/client\dm_client.c ****     source.context = NULL;
 355:C:/Users/stapi/OneDrive/Desktop/GD32VW553/V1_MQTT_OK/GD32VW55X_Wifi_BLE_SDK/GD32VW55x_RELEASE_V1.0.2/MSDK/cloud/alicloud/src/services/linkkit/dm/client\dm_client.c **** 
 356:C:/Users/stapi/OneDrive/Desktop/GD32VW553/V1_MQTT_OK/GD32VW55X_Wifi_BLE_SDK/GD32VW55x_RELEASE_V1.0.2/MSDK/cloud/alicloud/src/services/linkkit/dm/client\dm_client.c ****     dm_msg_proc_thing_event_notify_reply(&source);
 357:C:/Users/stapi/OneDrive/Desktop/GD32VW553/V1_MQTT_OK/GD32VW55X_Wifi_BLE_SDK/GD32VW55x_RELEASE_V1.0.2/MSDK/cloud/alicloud/src/services/linkkit/dm/client\dm_client.c **** }
 358:C:/Users/stapi/OneDrive/Desktop/GD32VW553/V1_MQTT_OK/GD32VW55X_Wifi_BLE_SDK/GD32VW55x_RELEASE_V1.0.2/MSDK/cloud/alicloud/src/services/linkkit/dm/client\dm_client.c **** 
 359:C:/Users/stapi/OneDrive/Desktop/GD32VW553/V1_MQTT_OK/GD32VW55X_Wifi_BLE_SDK/GD32VW55x_RELEASE_V1.0.2/MSDK/cloud/alicloud/src/services/linkkit/dm/client\dm_client.c **** void dm_client_thing_event_notify(int fd, const char *topic, const char *payload, unsigned int payl
 360:C:/Users/stapi/OneDrive/Desktop/GD32VW553/V1_MQTT_OK/GD32VW55X_Wifi_BLE_SDK/GD32VW55x_RELEASE_V1.0.2/MSDK/cloud/alicloud/src/services/linkkit/dm/client\dm_client.c ****         void *context)
 361:C:/Users/stapi/OneDrive/Desktop/GD32VW553/V1_MQTT_OK/GD32VW55X_Wifi_BLE_SDK/GD32VW55x_RELEASE_V1.0.2/MSDK/cloud/alicloud/src/services/linkkit/dm/client\dm_client.c **** {
 403              		.loc 1 361 1 is_stmt 1
 404              		.cfi_startproc
 405              	.LVL30:
 406 0000 17030000 		call	t0,__riscv_save_3
 406      E7020300 
 407              		.cfi_offset 18, -16
 408              		.cfi_offset 9, -12
 409              		.cfi_offset 8, -8
 410              		.cfi_offset 1, -4
 411              		.cfi_def_cfa_offset 16
 362:C:/Users/stapi/OneDrive/Desktop/GD32VW553/V1_MQTT_OK/GD32VW55X_Wifi_BLE_SDK/GD32VW55x_RELEASE_V1.0.2/MSDK/cloud/alicloud/src/services/linkkit/dm/client\dm_client.c ****     int res = 0;
 412              		.loc 1 362 5
 413              	.LVL31:
 363:C:/Users/stapi/OneDrive/Desktop/GD32VW553/V1_MQTT_OK/GD32VW55X_Wifi_BLE_SDK/GD32VW55x_RELEASE_V1.0.2/MSDK/cloud/alicloud/src/services/linkkit/dm/client\dm_client.c ****     dm_msg_source_t source;
 414              		.loc 1 363 5
 364:C:/Users/stapi/OneDrive/Desktop/GD32VW553/V1_MQTT_OK/GD32VW55X_Wifi_BLE_SDK/GD32VW55x_RELEASE_V1.0.2/MSDK/cloud/alicloud/src/services/linkkit/dm/client\dm_client.c ****     dm_msg_dest_t dest;
 415              		.loc 1 364 5
 365:C:/Users/stapi/OneDrive/Desktop/GD32VW553/V1_MQTT_OK/GD32VW55X_Wifi_BLE_SDK/GD32VW55x_RELEASE_V1.0.2/MSDK/cloud/alicloud/src/services/linkkit/dm/client\dm_client.c ****     dm_msg_request_payload_t request;
 416              		.loc 1 365 5
 366:C:/Users/stapi/OneDrive/Desktop/GD32VW553/V1_MQTT_OK/GD32VW55X_Wifi_BLE_SDK/GD32VW55x_RELEASE_V1.0.2/MSDK/cloud/alicloud/src/services/linkkit/dm/client\dm_client.c ****     dm_msg_response_t response;
 417              		.loc 1 366 5
 367:C:/Users/stapi/OneDrive/Desktop/GD32VW553/V1_MQTT_OK/GD32VW55X_Wifi_BLE_SDK/GD32VW55x_RELEASE_V1.0.2/MSDK/cloud/alicloud/src/services/linkkit/dm/client\dm_client.c **** 
 368:C:/Users/stapi/OneDrive/Desktop/GD32VW553/V1_MQTT_OK/GD32VW55X_Wifi_BLE_SDK/GD32VW55x_RELEASE_V1.0.2/MSDK/cloud/alicloud/src/services/linkkit/dm/client\dm_client.c ****     memset(&source, 0, sizeof(dm_msg_source_t));
 418              		.loc 1 368 5
 361:C:/Users/stapi/OneDrive/Desktop/GD32VW553/V1_MQTT_OK/GD32VW55X_Wifi_BLE_SDK/GD32VW55x_RELEASE_V1.0.2/MSDK/cloud/alicloud/src/services/linkkit/dm/client\dm_client.c ****     int res = 0;
 419              		.loc 1 361 1 is_stmt 0
 420 0008 1571     		addi	sp,sp,-224
 421              		.cfi_def_cfa_offset 240
 361:C:/Users/stapi/OneDrive/Desktop/GD32VW553/V1_MQTT_OK/GD32VW55X_Wifi_BLE_SDK/GD32VW55x_RELEASE_V1.0.2/MSDK/cloud/alicloud/src/services/linkkit/dm/client\dm_client.c ****     int res = 0;
 422              		.loc 1 361 1
 423 000a 2E89     		mv	s2,a1
 424 000c B284     		mv	s1,a2
 369:C:/Users/stapi/OneDrive/Desktop/GD32VW553/V1_MQTT_OK/GD32VW55X_Wifi_BLE_SDK/GD32VW55x_RELEASE_V1.0.2/MSDK/cloud/alicloud/src/services/linkkit/dm/client\dm_client.c ****     memset(&dest, 0, sizeof(dm_msg_dest_t));
 370:C:/Users/stapi/OneDrive/Desktop/GD32VW553/V1_MQTT_OK/GD32VW55X_Wifi_BLE_SDK/GD32VW55x_RELEASE_V1.0.2/MSDK/cloud/alicloud/src/services/linkkit/dm/client\dm_client.c ****     memset(&request, 0, sizeof(dm_msg_request_payload_t));
 425              		.loc 1 370 5
 426 000e 8145     		li	a1,0
 427              	.LVL32:
 428 0010 13060008 		li	a2,128
 429              	.LVL33:
 430 0014 8810     		addi	a0,sp,96
 431              	.LVL34:
 361:C:/Users/stapi/OneDrive/Desktop/GD32VW553/V1_MQTT_OK/GD32VW55X_Wifi_BLE_SDK/GD32VW55x_RELEASE_V1.0.2/MSDK/cloud/alicloud/src/services/linkkit/dm/client\dm_client.c ****     int res = 0;
 432              		.loc 1 361 1
 433 0016 3684     		mv	s0,a3
 368:C:/Users/stapi/OneDrive/Desktop/GD32VW553/V1_MQTT_OK/GD32VW55X_Wifi_BLE_SDK/GD32VW55x_RELEASE_V1.0.2/MSDK/cloud/alicloud/src/services/linkkit/dm/client\dm_client.c ****     memset(&dest, 0, sizeof(dm_msg_dest_t));
 434              		.loc 1 368 5
 435 0018 02CC     		sw	zero,24(sp)
 369:C:/Users/stapi/OneDrive/Desktop/GD32VW553/V1_MQTT_OK/GD32VW55X_Wifi_BLE_SDK/GD32VW55x_RELEASE_V1.0.2/MSDK/cloud/alicloud/src/services/linkkit/dm/client\dm_client.c ****     memset(&dest, 0, sizeof(dm_msg_dest_t));
 436              		.loc 1 369 5 is_stmt 1
 437              		.loc 1 370 5
 438 001a 97000000 		call	memset
 438      E7800000 
 439              	.LVL35:
 371:C:/Users/stapi/OneDrive/Desktop/GD32VW553/V1_MQTT_OK/GD32VW55X_Wifi_BLE_SDK/GD32VW55x_RELEASE_V1.0.2/MSDK/cloud/alicloud/src/services/linkkit/dm/client\dm_client.c ****     memset(&response, 0, sizeof(dm_msg_response_t));
 440              		.loc 1 371 5
 441 0022 13064004 		li	a2,68
 442 0026 8145     		li	a1,0
 443 0028 6808     		addi	a0,sp,28
 444 002a 97000000 		call	memset
 444      E7800000 
 445              	.LVL36:
 372:C:/Users/stapi/OneDrive/Desktop/GD32VW553/V1_MQTT_OK/GD32VW55X_Wifi_BLE_SDK/GD32VW55x_RELEASE_V1.0.2/MSDK/cloud/alicloud/src/services/linkkit/dm/client\dm_client.c **** 
 373:C:/Users/stapi/OneDrive/Desktop/GD32VW553/V1_MQTT_OK/GD32VW55X_Wifi_BLE_SDK/GD32VW55x_RELEASE_V1.0.2/MSDK/cloud/alicloud/src/services/linkkit/dm/client\dm_client.c ****     source.uri = topic;
 446              		.loc 1 373 5
 374:C:/Users/stapi/OneDrive/Desktop/GD32VW553/V1_MQTT_OK/GD32VW55X_Wifi_BLE_SDK/GD32VW55x_RELEASE_V1.0.2/MSDK/cloud/alicloud/src/services/linkkit/dm/client\dm_client.c ****     source.payload = (unsigned char *)payload;
 375:C:/Users/stapi/OneDrive/Desktop/GD32VW553/V1_MQTT_OK/GD32VW55X_Wifi_BLE_SDK/GD32VW55x_RELEASE_V1.0.2/MSDK/cloud/alicloud/src/services/linkkit/dm/client\dm_client.c ****     source.payload_len = payload_len;
 376:C:/Users/stapi/OneDrive/Desktop/GD32VW553/V1_MQTT_OK/GD32VW55X_Wifi_BLE_SDK/GD32VW55x_RELEASE_V1.0.2/MSDK/cloud/alicloud/src/services/linkkit/dm/client\dm_client.c ****     source.context = NULL;
 377:C:/Users/stapi/OneDrive/Desktop/GD32VW553/V1_MQTT_OK/GD32VW55X_Wifi_BLE_SDK/GD32VW55x_RELEASE_V1.0.2/MSDK/cloud/alicloud/src/services/linkkit/dm/client\dm_client.c **** 
 378:C:/Users/stapi/OneDrive/Desktop/GD32VW553/V1_MQTT_OK/GD32VW55X_Wifi_BLE_SDK/GD32VW55x_RELEASE_V1.0.2/MSDK/cloud/alicloud/src/services/linkkit/dm/client\dm_client.c ****     dest.uri_name = DM_URI_THING_EVENT_NOTIFY_REPLY;
 447              		.loc 1 378 19 is_stmt 0
 448 0032 B7070000 		lui	a5,%hi(DM_URI_THING_EVENT_NOTIFY_REPLY)
 449 0036 93870700 		addi	a5,a5,%lo(DM_URI_THING_EVENT_NOTIFY_REPLY)
 379:C:/Users/stapi/OneDrive/Desktop/GD32VW553/V1_MQTT_OK/GD32VW55X_Wifi_BLE_SDK/GD32VW55x_RELEASE_V1.0.2/MSDK/cloud/alicloud/src/services/linkkit/dm/client\dm_client.c **** 
 380:C:/Users/stapi/OneDrive/Desktop/GD32VW553/V1_MQTT_OK/GD32VW55X_Wifi_BLE_SDK/GD32VW55x_RELEASE_V1.0.2/MSDK/cloud/alicloud/src/services/linkkit/dm/client\dm_client.c ****     res = dm_msg_proc_thing_event_notify(&source, &dest, &request, &response);
 450              		.loc 1 380 11
 451 003a 7408     		addi	a3,sp,28
 452 003c 9010     		addi	a2,sp,96
 453 003e 4C00     		addi	a1,sp,4
 454 0040 6800     		addi	a0,sp,12
 373:C:/Users/stapi/OneDrive/Desktop/GD32VW553/V1_MQTT_OK/GD32VW55X_Wifi_BLE_SDK/GD32VW55x_RELEASE_V1.0.2/MSDK/cloud/alicloud/src/services/linkkit/dm/client\dm_client.c ****     source.payload = (unsigned char *)payload;
 455              		.loc 1 373 16
 456 0042 4AC6     		sw	s2,12(sp)
 374:C:/Users/stapi/OneDrive/Desktop/GD32VW553/V1_MQTT_OK/GD32VW55X_Wifi_BLE_SDK/GD32VW55x_RELEASE_V1.0.2/MSDK/cloud/alicloud/src/services/linkkit/dm/client\dm_client.c ****     source.payload = (unsigned char *)payload;
 457              		.loc 1 374 5 is_stmt 1
 374:C:/Users/stapi/OneDrive/Desktop/GD32VW553/V1_MQTT_OK/GD32VW55X_Wifi_BLE_SDK/GD32VW55x_RELEASE_V1.0.2/MSDK/cloud/alicloud/src/services/linkkit/dm/client\dm_client.c ****     source.payload = (unsigned char *)payload;
 458              		.loc 1 374 20 is_stmt 0
 459 0044 26C8     		sw	s1,16(sp)
 375:C:/Users/stapi/OneDrive/Desktop/GD32VW553/V1_MQTT_OK/GD32VW55X_Wifi_BLE_SDK/GD32VW55x_RELEASE_V1.0.2/MSDK/cloud/alicloud/src/services/linkkit/dm/client\dm_client.c ****     source.context = NULL;
 460              		.loc 1 375 5 is_stmt 1
 375:C:/Users/stapi/OneDrive/Desktop/GD32VW553/V1_MQTT_OK/GD32VW55X_Wifi_BLE_SDK/GD32VW55x_RELEASE_V1.0.2/MSDK/cloud/alicloud/src/services/linkkit/dm/client\dm_client.c ****     source.context = NULL;
 461              		.loc 1 375 24 is_stmt 0
 462 0046 22CA     		sw	s0,20(sp)
 376:C:/Users/stapi/OneDrive/Desktop/GD32VW553/V1_MQTT_OK/GD32VW55X_Wifi_BLE_SDK/GD32VW55x_RELEASE_V1.0.2/MSDK/cloud/alicloud/src/services/linkkit/dm/client\dm_client.c **** 
 463              		.loc 1 376 5 is_stmt 1
 378:C:/Users/stapi/OneDrive/Desktop/GD32VW553/V1_MQTT_OK/GD32VW55X_Wifi_BLE_SDK/GD32VW55x_RELEASE_V1.0.2/MSDK/cloud/alicloud/src/services/linkkit/dm/client\dm_client.c **** 
 464              		.loc 1 378 5
 378:C:/Users/stapi/OneDrive/Desktop/GD32VW553/V1_MQTT_OK/GD32VW55X_Wifi_BLE_SDK/GD32VW55x_RELEASE_V1.0.2/MSDK/cloud/alicloud/src/services/linkkit/dm/client\dm_client.c **** 
 465              		.loc 1 378 19 is_stmt 0
 466 0048 3EC2     		sw	a5,4(sp)
 467              		.loc 1 380 5 is_stmt 1
 468              		.loc 1 380 11 is_stmt 0
 469 004a 97000000 		call	dm_msg_proc_thing_event_notify
 469      E7800000 
 470              	.LVL37:
 381:C:/Users/stapi/OneDrive/Desktop/GD32VW553/V1_MQTT_OK/GD32VW55X_Wifi_BLE_SDK/GD32VW55x_RELEASE_V1.0.2/MSDK/cloud/alicloud/src/services/linkkit/dm/client\dm_client.c ****     if (res < SUCCESS_RETURN) {
 471              		.loc 1 381 5 is_stmt 1
 472              		.loc 1 381 8 is_stmt 0
 473 0052 63490502 		blt	a0,zero,.L20
 382:C:/Users/stapi/OneDrive/Desktop/GD32VW553/V1_MQTT_OK/GD32VW55X_Wifi_BLE_SDK/GD32VW55x_RELEASE_V1.0.2/MSDK/cloud/alicloud/src/services/linkkit/dm/client\dm_client.c ****         return;
 383:C:/Users/stapi/OneDrive/Desktop/GD32VW553/V1_MQTT_OK/GD32VW55X_Wifi_BLE_SDK/GD32VW55x_RELEASE_V1.0.2/MSDK/cloud/alicloud/src/services/linkkit/dm/client\dm_client.c ****     }
 384:C:/Users/stapi/OneDrive/Desktop/GD32VW553/V1_MQTT_OK/GD32VW55X_Wifi_BLE_SDK/GD32VW55x_RELEASE_V1.0.2/MSDK/cloud/alicloud/src/services/linkkit/dm/client\dm_client.c **** 
 385:C:/Users/stapi/OneDrive/Desktop/GD32VW553/V1_MQTT_OK/GD32VW55X_Wifi_BLE_SDK/GD32VW55x_RELEASE_V1.0.2/MSDK/cloud/alicloud/src/services/linkkit/dm/client\dm_client.c ****     int event_notify_reply_opt = 0;
 474              		.loc 1 385 5 is_stmt 1
 386:C:/Users/stapi/OneDrive/Desktop/GD32VW553/V1_MQTT_OK/GD32VW55X_Wifi_BLE_SDK/GD32VW55x_RELEASE_V1.0.2/MSDK/cloud/alicloud/src/services/linkkit/dm/client\dm_client.c ****     res = dm_opt_get(DM_OPT_UPSTREAM_EVENT_NOTIFY_REPLY, &event_notify_reply_opt);
 475              		.loc 1 386 11 is_stmt 0
 476 0056 2C00     		addi	a1,sp,8
 477 0058 0D45     		li	a0,3
 478              	.LVL38:
 385:C:/Users/stapi/OneDrive/Desktop/GD32VW553/V1_MQTT_OK/GD32VW55X_Wifi_BLE_SDK/GD32VW55x_RELEASE_V1.0.2/MSDK/cloud/alicloud/src/services/linkkit/dm/client\dm_client.c ****     res = dm_opt_get(DM_OPT_UPSTREAM_EVENT_NOTIFY_REPLY, &event_notify_reply_opt);
 479              		.loc 1 385 9
 480 005a 02C4     		sw	zero,8(sp)
 481              		.loc 1 386 5 is_stmt 1
 482              		.loc 1 386 11 is_stmt 0
 483 005c 97000000 		call	dm_opt_get
 483      E7800000 
 484              	.LVL39:
 387:C:/Users/stapi/OneDrive/Desktop/GD32VW553/V1_MQTT_OK/GD32VW55X_Wifi_BLE_SDK/GD32VW55x_RELEASE_V1.0.2/MSDK/cloud/alicloud/src/services/linkkit/dm/client\dm_client.c ****     if (res == SUCCESS_RETURN) {
 485              		.loc 1 387 5 is_stmt 1
 486              		.loc 1 387 8 is_stmt 0
 487 0064 05E1     		bne	a0,zero,.L20
 388:C:/Users/stapi/OneDrive/Desktop/GD32VW553/V1_MQTT_OK/GD32VW55X_Wifi_BLE_SDK/GD32VW55x_RELEASE_V1.0.2/MSDK/cloud/alicloud/src/services/linkkit/dm/client\dm_client.c ****         if (event_notify_reply_opt) {
 488              		.loc 1 388 9 is_stmt 1
 489              		.loc 1 388 12 is_stmt 0
 490 0066 A247     		lw	a5,8(sp)
 491 0068 91CF     		beq	a5,zero,.L20
 389:C:/Users/stapi/OneDrive/Desktop/GD32VW553/V1_MQTT_OK/GD32VW55X_Wifi_BLE_SDK/GD32VW55x_RELEASE_V1.0.2/MSDK/cloud/alicloud/src/services/linkkit/dm/client\dm_client.c ****             dm_msg_response(DM_MSG_DEST_CLOUD, &request, &response, "{}", strlen("{}"), NULL);
 492              		.loc 1 389 13 is_stmt 1
 493 006a B7060000 		lui	a3,%hi(.LC0)
 494 006e 8147     		li	a5,0
 495 0070 0947     		li	a4,2
 496 0072 93860600 		addi	a3,a3,%lo(.LC0)
 497 0076 7008     		addi	a2,sp,28
 498 0078 8C10     		addi	a1,sp,96
 499 007a 0545     		li	a0,1
 500              	.LVL40:
 501 007c 97000000 		call	dm_msg_response
 501      E7800000 
 502              	.LVL41:
 503              	.L20:
 390:C:/Users/stapi/OneDrive/Desktop/GD32VW553/V1_MQTT_OK/GD32VW55X_Wifi_BLE_SDK/GD32VW55x_RELEASE_V1.0.2/MSDK/cloud/alicloud/src/services/linkkit/dm/client\dm_client.c **** #ifdef LOG_REPORT_TO_CLOUD
 391:C:/Users/stapi/OneDrive/Desktop/GD32VW553/V1_MQTT_OK/GD32VW55X_Wifi_BLE_SDK/GD32VW55x_RELEASE_V1.0.2/MSDK/cloud/alicloud/src/services/linkkit/dm/client\dm_client.c ****             if (SUCCESS_RETURN == check_target_msg(request.id.value, request.id.value_length)) {
 392:C:/Users/stapi/OneDrive/Desktop/GD32VW553/V1_MQTT_OK/GD32VW55X_Wifi_BLE_SDK/GD32VW55x_RELEASE_V1.0.2/MSDK/cloud/alicloud/src/services/linkkit/dm/client\dm_client.c ****                 send_permance_info(request.id.value, request.id.value_length, "2", 1);
 393:C:/Users/stapi/OneDrive/Desktop/GD32VW553/V1_MQTT_OK/GD32VW55X_Wifi_BLE_SDK/GD32VW55x_RELEASE_V1.0.2/MSDK/cloud/alicloud/src/services/linkkit/dm/client\dm_client.c ****             }
 394:C:/Users/stapi/OneDrive/Desktop/GD32VW553/V1_MQTT_OK/GD32VW55X_Wifi_BLE_SDK/GD32VW55x_RELEASE_V1.0.2/MSDK/cloud/alicloud/src/services/linkkit/dm/client\dm_client.c **** #endif
 395:C:/Users/stapi/OneDrive/Desktop/GD32VW553/V1_MQTT_OK/GD32VW55X_Wifi_BLE_SDK/GD32VW55x_RELEASE_V1.0.2/MSDK/cloud/alicloud/src/services/linkkit/dm/client\dm_client.c ****         }
 396:C:/Users/stapi/OneDrive/Desktop/GD32VW553/V1_MQTT_OK/GD32VW55X_Wifi_BLE_SDK/GD32VW55x_RELEASE_V1.0.2/MSDK/cloud/alicloud/src/services/linkkit/dm/client\dm_client.c ****     }
 397:C:/Users/stapi/OneDrive/Desktop/GD32VW553/V1_MQTT_OK/GD32VW55X_Wifi_BLE_SDK/GD32VW55x_RELEASE_V1.0.2/MSDK/cloud/alicloud/src/services/linkkit/dm/client\dm_client.c **** }
 504              		.loc 1 397 1 is_stmt 0
 505 0084 2D61     		addi	sp,sp,224
 506              		.cfi_def_cfa_offset 0
 507 0086 17030000 		tail	__riscv_restore_3
 507      67000300 
 508              		.cfi_restore 18
 509              		.cfi_restore 9
 510              		.cfi_restore 8
 511              		.cfi_restore 1
 512              		.cfi_def_cfa_offset -16
 513              		.cfi_endproc
 514              	.LFE33:
 516              		.section	.text.dm_client_rrpc_request_wildcard,"ax",@progbits
 517              		.align	1
 518              		.globl	dm_client_rrpc_request_wildcard
 520              	dm_client_rrpc_request_wildcard:
 521              	.LFB34:
 398:C:/Users/stapi/OneDrive/Desktop/GD32VW553/V1_MQTT_OK/GD32VW55X_Wifi_BLE_SDK/GD32VW55x_RELEASE_V1.0.2/MSDK/cloud/alicloud/src/services/linkkit/dm/client\dm_client.c **** 
 399:C:/Users/stapi/OneDrive/Desktop/GD32VW553/V1_MQTT_OK/GD32VW55X_Wifi_BLE_SDK/GD32VW55x_RELEASE_V1.0.2/MSDK/cloud/alicloud/src/services/linkkit/dm/client\dm_client.c **** void dm_client_rrpc_request_wildcard(int fd, const char *topic, const char *payload, unsigned int p
 400:C:/Users/stapi/OneDrive/Desktop/GD32VW553/V1_MQTT_OK/GD32VW55X_Wifi_BLE_SDK/GD32VW55x_RELEASE_V1.0.2/MSDK/cloud/alicloud/src/services/linkkit/dm/client\dm_client.c ****                                      void *context)
 401:C:/Users/stapi/OneDrive/Desktop/GD32VW553/V1_MQTT_OK/GD32VW55X_Wifi_BLE_SDK/GD32VW55x_RELEASE_V1.0.2/MSDK/cloud/alicloud/src/services/linkkit/dm/client\dm_client.c **** {
 522              		.loc 1 401 1 is_stmt 1
 523              		.cfi_startproc
 524              	.LVL42:
 525 0000 17030000 		call	t0,__riscv_save_0
 525      E7020300 
 526              		.cfi_offset 1, -4
 527              		.cfi_def_cfa_offset 16
 402:C:/Users/stapi/OneDrive/Desktop/GD32VW553/V1_MQTT_OK/GD32VW55X_Wifi_BLE_SDK/GD32VW55x_RELEASE_V1.0.2/MSDK/cloud/alicloud/src/services/linkkit/dm/client\dm_client.c ****     dm_msg_source_t source;
 528              		.loc 1 402 5
 403:C:/Users/stapi/OneDrive/Desktop/GD32VW553/V1_MQTT_OK/GD32VW55X_Wifi_BLE_SDK/GD32VW55x_RELEASE_V1.0.2/MSDK/cloud/alicloud/src/services/linkkit/dm/client\dm_client.c **** 
 404:C:/Users/stapi/OneDrive/Desktop/GD32VW553/V1_MQTT_OK/GD32VW55X_Wifi_BLE_SDK/GD32VW55x_RELEASE_V1.0.2/MSDK/cloud/alicloud/src/services/linkkit/dm/client\dm_client.c ****     memset(&source, 0, sizeof(dm_msg_source_t));
 529              		.loc 1 404 5
 401:C:/Users/stapi/OneDrive/Desktop/GD32VW553/V1_MQTT_OK/GD32VW55X_Wifi_BLE_SDK/GD32VW55x_RELEASE_V1.0.2/MSDK/cloud/alicloud/src/services/linkkit/dm/client\dm_client.c ****     dm_msg_source_t source;
 530              		.loc 1 401 1 is_stmt 0
 531 0008 4111     		addi	sp,sp,-16
 532              		.cfi_def_cfa_offset 32
 405:C:/Users/stapi/OneDrive/Desktop/GD32VW553/V1_MQTT_OK/GD32VW55X_Wifi_BLE_SDK/GD32VW55x_RELEASE_V1.0.2/MSDK/cloud/alicloud/src/services/linkkit/dm/client\dm_client.c **** 
 406:C:/Users/stapi/OneDrive/Desktop/GD32VW553/V1_MQTT_OK/GD32VW55X_Wifi_BLE_SDK/GD32VW55x_RELEASE_V1.0.2/MSDK/cloud/alicloud/src/services/linkkit/dm/client\dm_client.c ****     source.uri = topic;
 407:C:/Users/stapi/OneDrive/Desktop/GD32VW553/V1_MQTT_OK/GD32VW55X_Wifi_BLE_SDK/GD32VW55x_RELEASE_V1.0.2/MSDK/cloud/alicloud/src/services/linkkit/dm/client\dm_client.c ****     source.payload = (unsigned char *)payload;
 408:C:/Users/stapi/OneDrive/Desktop/GD32VW553/V1_MQTT_OK/GD32VW55X_Wifi_BLE_SDK/GD32VW55x_RELEASE_V1.0.2/MSDK/cloud/alicloud/src/services/linkkit/dm/client\dm_client.c ****     source.payload_len = payload_len;
 409:C:/Users/stapi/OneDrive/Desktop/GD32VW553/V1_MQTT_OK/GD32VW55X_Wifi_BLE_SDK/GD32VW55x_RELEASE_V1.0.2/MSDK/cloud/alicloud/src/services/linkkit/dm/client\dm_client.c ****     source.context = NULL;
 410:C:/Users/stapi/OneDrive/Desktop/GD32VW553/V1_MQTT_OK/GD32VW55X_Wifi_BLE_SDK/GD32VW55x_RELEASE_V1.0.2/MSDK/cloud/alicloud/src/services/linkkit/dm/client\dm_client.c **** 
 411:C:/Users/stapi/OneDrive/Desktop/GD32VW553/V1_MQTT_OK/GD32VW55X_Wifi_BLE_SDK/GD32VW55x_RELEASE_V1.0.2/MSDK/cloud/alicloud/src/services/linkkit/dm/client\dm_client.c ****     dm_msg_proc_rrpc_request(&source);
 533              		.loc 1 411 5
 534 000a 0A85     		mv	a0,sp
 535              	.LVL43:
 406:C:/Users/stapi/OneDrive/Desktop/GD32VW553/V1_MQTT_OK/GD32VW55X_Wifi_BLE_SDK/GD32VW55x_RELEASE_V1.0.2/MSDK/cloud/alicloud/src/services/linkkit/dm/client\dm_client.c ****     source.payload = (unsigned char *)payload;
 536              		.loc 1 406 16
 537 000c 2EC0     		sw	a1,0(sp)
 407:C:/Users/stapi/OneDrive/Desktop/GD32VW553/V1_MQTT_OK/GD32VW55X_Wifi_BLE_SDK/GD32VW55x_RELEASE_V1.0.2/MSDK/cloud/alicloud/src/services/linkkit/dm/client\dm_client.c ****     source.payload_len = payload_len;
 538              		.loc 1 407 20
 539 000e 32C2     		sw	a2,4(sp)
 408:C:/Users/stapi/OneDrive/Desktop/GD32VW553/V1_MQTT_OK/GD32VW55X_Wifi_BLE_SDK/GD32VW55x_RELEASE_V1.0.2/MSDK/cloud/alicloud/src/services/linkkit/dm/client\dm_client.c ****     source.context = NULL;
 540              		.loc 1 408 24
 541 0010 36C4     		sw	a3,8(sp)
 404:C:/Users/stapi/OneDrive/Desktop/GD32VW553/V1_MQTT_OK/GD32VW55X_Wifi_BLE_SDK/GD32VW55x_RELEASE_V1.0.2/MSDK/cloud/alicloud/src/services/linkkit/dm/client\dm_client.c **** 
 542              		.loc 1 404 5
 543 0012 02C6     		sw	zero,12(sp)
 406:C:/Users/stapi/OneDrive/Desktop/GD32VW553/V1_MQTT_OK/GD32VW55X_Wifi_BLE_SDK/GD32VW55x_RELEASE_V1.0.2/MSDK/cloud/alicloud/src/services/linkkit/dm/client\dm_client.c ****     source.payload = (unsigned char *)payload;
 544              		.loc 1 406 5 is_stmt 1
 407:C:/Users/stapi/OneDrive/Desktop/GD32VW553/V1_MQTT_OK/GD32VW55X_Wifi_BLE_SDK/GD32VW55x_RELEASE_V1.0.2/MSDK/cloud/alicloud/src/services/linkkit/dm/client\dm_client.c ****     source.payload_len = payload_len;
 545              		.loc 1 407 5
 408:C:/Users/stapi/OneDrive/Desktop/GD32VW553/V1_MQTT_OK/GD32VW55X_Wifi_BLE_SDK/GD32VW55x_RELEASE_V1.0.2/MSDK/cloud/alicloud/src/services/linkkit/dm/client\dm_client.c ****     source.context = NULL;
 546              		.loc 1 408 5
 409:C:/Users/stapi/OneDrive/Desktop/GD32VW553/V1_MQTT_OK/GD32VW55X_Wifi_BLE_SDK/GD32VW55x_RELEASE_V1.0.2/MSDK/cloud/alicloud/src/services/linkkit/dm/client\dm_client.c **** 
 547              		.loc 1 409 5
 548              		.loc 1 411 5
 549 0014 97000000 		call	dm_msg_proc_rrpc_request
 549      E7800000 
 550              	.LVL44:
 412:C:/Users/stapi/OneDrive/Desktop/GD32VW553/V1_MQTT_OK/GD32VW55X_Wifi_BLE_SDK/GD32VW55x_RELEASE_V1.0.2/MSDK/cloud/alicloud/src/services/linkkit/dm/client\dm_client.c **** }
 551              		.loc 1 412 1 is_stmt 0
 552 001c 4101     		addi	sp,sp,16
 553              		.cfi_def_cfa_offset 0
 554 001e 17030000 		tail	__riscv_restore_0
 554      67000300 
 555              		.cfi_restore 1
 556              		.cfi_def_cfa_offset -16
 557              		.cfi_endproc
 558              	.LFE34:
 560              		.section	.text.dm_client_ntp_response,"ax",@progbits
 561              		.align	1
 562              		.globl	dm_client_ntp_response
 564              	dm_client_ntp_response:
 565              	.LFB35:
 413:C:/Users/stapi/OneDrive/Desktop/GD32VW553/V1_MQTT_OK/GD32VW55X_Wifi_BLE_SDK/GD32VW55x_RELEASE_V1.0.2/MSDK/cloud/alicloud/src/services/linkkit/dm/client\dm_client.c **** 
 414:C:/Users/stapi/OneDrive/Desktop/GD32VW553/V1_MQTT_OK/GD32VW55X_Wifi_BLE_SDK/GD32VW55x_RELEASE_V1.0.2/MSDK/cloud/alicloud/src/services/linkkit/dm/client\dm_client.c **** void dm_client_ntp_response(int fd, const char *topic, const char *payload, unsigned int payload_le
 415:C:/Users/stapi/OneDrive/Desktop/GD32VW553/V1_MQTT_OK/GD32VW55X_Wifi_BLE_SDK/GD32VW55x_RELEASE_V1.0.2/MSDK/cloud/alicloud/src/services/linkkit/dm/client\dm_client.c **** {
 566              		.loc 1 415 1 is_stmt 1
 567              		.cfi_startproc
 568              	.LVL45:
 569 0000 17030000 		call	t0,__riscv_save_0
 569      E7020300 
 570              		.cfi_offset 1, -4
 571              		.cfi_def_cfa_offset 16
 416:C:/Users/stapi/OneDrive/Desktop/GD32VW553/V1_MQTT_OK/GD32VW55X_Wifi_BLE_SDK/GD32VW55x_RELEASE_V1.0.2/MSDK/cloud/alicloud/src/services/linkkit/dm/client\dm_client.c ****     dm_msg_source_t source;
 572              		.loc 1 416 5
 417:C:/Users/stapi/OneDrive/Desktop/GD32VW553/V1_MQTT_OK/GD32VW55X_Wifi_BLE_SDK/GD32VW55x_RELEASE_V1.0.2/MSDK/cloud/alicloud/src/services/linkkit/dm/client\dm_client.c **** 
 418:C:/Users/stapi/OneDrive/Desktop/GD32VW553/V1_MQTT_OK/GD32VW55X_Wifi_BLE_SDK/GD32VW55x_RELEASE_V1.0.2/MSDK/cloud/alicloud/src/services/linkkit/dm/client\dm_client.c ****     memset(&source, 0, sizeof(dm_msg_source_t));
 573              		.loc 1 418 5
 415:C:/Users/stapi/OneDrive/Desktop/GD32VW553/V1_MQTT_OK/GD32VW55X_Wifi_BLE_SDK/GD32VW55x_RELEASE_V1.0.2/MSDK/cloud/alicloud/src/services/linkkit/dm/client\dm_client.c ****     dm_msg_source_t source;
 574              		.loc 1 415 1 is_stmt 0
 575 0008 4111     		addi	sp,sp,-16
 576              		.cfi_def_cfa_offset 32
 419:C:/Users/stapi/OneDrive/Desktop/GD32VW553/V1_MQTT_OK/GD32VW55X_Wifi_BLE_SDK/GD32VW55x_RELEASE_V1.0.2/MSDK/cloud/alicloud/src/services/linkkit/dm/client\dm_client.c **** 
 420:C:/Users/stapi/OneDrive/Desktop/GD32VW553/V1_MQTT_OK/GD32VW55X_Wifi_BLE_SDK/GD32VW55x_RELEASE_V1.0.2/MSDK/cloud/alicloud/src/services/linkkit/dm/client\dm_client.c ****     source.uri = topic;
 421:C:/Users/stapi/OneDrive/Desktop/GD32VW553/V1_MQTT_OK/GD32VW55X_Wifi_BLE_SDK/GD32VW55x_RELEASE_V1.0.2/MSDK/cloud/alicloud/src/services/linkkit/dm/client\dm_client.c ****     source.payload = (unsigned char *)payload;
 422:C:/Users/stapi/OneDrive/Desktop/GD32VW553/V1_MQTT_OK/GD32VW55X_Wifi_BLE_SDK/GD32VW55x_RELEASE_V1.0.2/MSDK/cloud/alicloud/src/services/linkkit/dm/client\dm_client.c ****     source.payload_len = payload_len;
 423:C:/Users/stapi/OneDrive/Desktop/GD32VW553/V1_MQTT_OK/GD32VW55X_Wifi_BLE_SDK/GD32VW55x_RELEASE_V1.0.2/MSDK/cloud/alicloud/src/services/linkkit/dm/client\dm_client.c ****     source.context = NULL;
 424:C:/Users/stapi/OneDrive/Desktop/GD32VW553/V1_MQTT_OK/GD32VW55X_Wifi_BLE_SDK/GD32VW55x_RELEASE_V1.0.2/MSDK/cloud/alicloud/src/services/linkkit/dm/client\dm_client.c **** 
 425:C:/Users/stapi/OneDrive/Desktop/GD32VW553/V1_MQTT_OK/GD32VW55X_Wifi_BLE_SDK/GD32VW55x_RELEASE_V1.0.2/MSDK/cloud/alicloud/src/services/linkkit/dm/client\dm_client.c ****     dm_disp_ntp_response(&source);
 577              		.loc 1 425 5
 578 000a 0A85     		mv	a0,sp
 579              	.LVL46:
 420:C:/Users/stapi/OneDrive/Desktop/GD32VW553/V1_MQTT_OK/GD32VW55X_Wifi_BLE_SDK/GD32VW55x_RELEASE_V1.0.2/MSDK/cloud/alicloud/src/services/linkkit/dm/client\dm_client.c ****     source.payload = (unsigned char *)payload;
 580              		.loc 1 420 16
 581 000c 2EC0     		sw	a1,0(sp)
 421:C:/Users/stapi/OneDrive/Desktop/GD32VW553/V1_MQTT_OK/GD32VW55X_Wifi_BLE_SDK/GD32VW55x_RELEASE_V1.0.2/MSDK/cloud/alicloud/src/services/linkkit/dm/client\dm_client.c ****     source.payload_len = payload_len;
 582              		.loc 1 421 20
 583 000e 32C2     		sw	a2,4(sp)
 422:C:/Users/stapi/OneDrive/Desktop/GD32VW553/V1_MQTT_OK/GD32VW55X_Wifi_BLE_SDK/GD32VW55x_RELEASE_V1.0.2/MSDK/cloud/alicloud/src/services/linkkit/dm/client\dm_client.c ****     source.context = NULL;
 584              		.loc 1 422 24
 585 0010 36C4     		sw	a3,8(sp)
 418:C:/Users/stapi/OneDrive/Desktop/GD32VW553/V1_MQTT_OK/GD32VW55X_Wifi_BLE_SDK/GD32VW55x_RELEASE_V1.0.2/MSDK/cloud/alicloud/src/services/linkkit/dm/client\dm_client.c **** 
 586              		.loc 1 418 5
 587 0012 02C6     		sw	zero,12(sp)
 420:C:/Users/stapi/OneDrive/Desktop/GD32VW553/V1_MQTT_OK/GD32VW55X_Wifi_BLE_SDK/GD32VW55x_RELEASE_V1.0.2/MSDK/cloud/alicloud/src/services/linkkit/dm/client\dm_client.c ****     source.payload = (unsigned char *)payload;
 588              		.loc 1 420 5 is_stmt 1
 421:C:/Users/stapi/OneDrive/Desktop/GD32VW553/V1_MQTT_OK/GD32VW55X_Wifi_BLE_SDK/GD32VW55x_RELEASE_V1.0.2/MSDK/cloud/alicloud/src/services/linkkit/dm/client\dm_client.c ****     source.payload_len = payload_len;
 589              		.loc 1 421 5
 422:C:/Users/stapi/OneDrive/Desktop/GD32VW553/V1_MQTT_OK/GD32VW55X_Wifi_BLE_SDK/GD32VW55x_RELEASE_V1.0.2/MSDK/cloud/alicloud/src/services/linkkit/dm/client\dm_client.c ****     source.context = NULL;
 590              		.loc 1 422 5
 423:C:/Users/stapi/OneDrive/Desktop/GD32VW553/V1_MQTT_OK/GD32VW55X_Wifi_BLE_SDK/GD32VW55x_RELEASE_V1.0.2/MSDK/cloud/alicloud/src/services/linkkit/dm/client\dm_client.c **** 
 591              		.loc 1 423 5
 592              		.loc 1 425 5
 593 0014 97000000 		call	dm_disp_ntp_response
 593      E7800000 
 594              	.LVL47:
 426:C:/Users/stapi/OneDrive/Desktop/GD32VW553/V1_MQTT_OK/GD32VW55X_Wifi_BLE_SDK/GD32VW55x_RELEASE_V1.0.2/MSDK/cloud/alicloud/src/services/linkkit/dm/client\dm_client.c **** }
 595              		.loc 1 426 1 is_stmt 0
 596 001c 4101     		addi	sp,sp,16
 597              		.cfi_def_cfa_offset 0
 598 001e 17030000 		tail	__riscv_restore_0
 598      67000300 
 599              		.cfi_restore 1
 600              		.cfi_def_cfa_offset -16
 601              		.cfi_endproc
 602              	.LFE35:
 604              		.section	.text.dm_client_ext_error,"ax",@progbits
 605              		.align	1
 606              		.globl	dm_client_ext_error
 608              	dm_client_ext_error:
 609              	.LFB36:
 427:C:/Users/stapi/OneDrive/Desktop/GD32VW553/V1_MQTT_OK/GD32VW55X_Wifi_BLE_SDK/GD32VW55x_RELEASE_V1.0.2/MSDK/cloud/alicloud/src/services/linkkit/dm/client\dm_client.c **** 
 428:C:/Users/stapi/OneDrive/Desktop/GD32VW553/V1_MQTT_OK/GD32VW55X_Wifi_BLE_SDK/GD32VW55x_RELEASE_V1.0.2/MSDK/cloud/alicloud/src/services/linkkit/dm/client\dm_client.c **** void dm_client_ext_error(int fd, const char *topic, const char *payload, unsigned int payload_len, 
 429:C:/Users/stapi/OneDrive/Desktop/GD32VW553/V1_MQTT_OK/GD32VW55X_Wifi_BLE_SDK/GD32VW55x_RELEASE_V1.0.2/MSDK/cloud/alicloud/src/services/linkkit/dm/client\dm_client.c **** {
 610              		.loc 1 429 1 is_stmt 1
 611              		.cfi_startproc
 612              	.LVL48:
 613 0000 17030000 		call	t0,__riscv_save_0
 613      E7020300 
 614              		.cfi_offset 1, -4
 615              		.cfi_def_cfa_offset 16
 430:C:/Users/stapi/OneDrive/Desktop/GD32VW553/V1_MQTT_OK/GD32VW55X_Wifi_BLE_SDK/GD32VW55x_RELEASE_V1.0.2/MSDK/cloud/alicloud/src/services/linkkit/dm/client\dm_client.c ****     dm_msg_source_t source;
 616              		.loc 1 430 5
 431:C:/Users/stapi/OneDrive/Desktop/GD32VW553/V1_MQTT_OK/GD32VW55X_Wifi_BLE_SDK/GD32VW55x_RELEASE_V1.0.2/MSDK/cloud/alicloud/src/services/linkkit/dm/client\dm_client.c **** 
 432:C:/Users/stapi/OneDrive/Desktop/GD32VW553/V1_MQTT_OK/GD32VW55X_Wifi_BLE_SDK/GD32VW55x_RELEASE_V1.0.2/MSDK/cloud/alicloud/src/services/linkkit/dm/client\dm_client.c ****     memset(&source, 0, sizeof(dm_msg_source_t));
 617              		.loc 1 432 5
 429:C:/Users/stapi/OneDrive/Desktop/GD32VW553/V1_MQTT_OK/GD32VW55X_Wifi_BLE_SDK/GD32VW55x_RELEASE_V1.0.2/MSDK/cloud/alicloud/src/services/linkkit/dm/client\dm_client.c ****     dm_msg_source_t source;
 618              		.loc 1 429 1 is_stmt 0
 619 0008 4111     		addi	sp,sp,-16
 620              		.cfi_def_cfa_offset 32
 433:C:/Users/stapi/OneDrive/Desktop/GD32VW553/V1_MQTT_OK/GD32VW55X_Wifi_BLE_SDK/GD32VW55x_RELEASE_V1.0.2/MSDK/cloud/alicloud/src/services/linkkit/dm/client\dm_client.c **** 
 434:C:/Users/stapi/OneDrive/Desktop/GD32VW553/V1_MQTT_OK/GD32VW55X_Wifi_BLE_SDK/GD32VW55x_RELEASE_V1.0.2/MSDK/cloud/alicloud/src/services/linkkit/dm/client\dm_client.c ****     source.uri = topic;
 435:C:/Users/stapi/OneDrive/Desktop/GD32VW553/V1_MQTT_OK/GD32VW55X_Wifi_BLE_SDK/GD32VW55x_RELEASE_V1.0.2/MSDK/cloud/alicloud/src/services/linkkit/dm/client\dm_client.c ****     source.payload = (unsigned char *)payload;
 436:C:/Users/stapi/OneDrive/Desktop/GD32VW553/V1_MQTT_OK/GD32VW55X_Wifi_BLE_SDK/GD32VW55x_RELEASE_V1.0.2/MSDK/cloud/alicloud/src/services/linkkit/dm/client\dm_client.c ****     source.payload_len = payload_len;
 437:C:/Users/stapi/OneDrive/Desktop/GD32VW553/V1_MQTT_OK/GD32VW55X_Wifi_BLE_SDK/GD32VW55x_RELEASE_V1.0.2/MSDK/cloud/alicloud/src/services/linkkit/dm/client\dm_client.c ****     source.context = NULL;
 438:C:/Users/stapi/OneDrive/Desktop/GD32VW553/V1_MQTT_OK/GD32VW55X_Wifi_BLE_SDK/GD32VW55x_RELEASE_V1.0.2/MSDK/cloud/alicloud/src/services/linkkit/dm/client\dm_client.c **** 
 439:C:/Users/stapi/OneDrive/Desktop/GD32VW553/V1_MQTT_OK/GD32VW55X_Wifi_BLE_SDK/GD32VW55x_RELEASE_V1.0.2/MSDK/cloud/alicloud/src/services/linkkit/dm/client\dm_client.c ****     dm_disp_ext_error_response(&source);
 621              		.loc 1 439 5
 622 000a 0A85     		mv	a0,sp
 623              	.LVL49:
 434:C:/Users/stapi/OneDrive/Desktop/GD32VW553/V1_MQTT_OK/GD32VW55X_Wifi_BLE_SDK/GD32VW55x_RELEASE_V1.0.2/MSDK/cloud/alicloud/src/services/linkkit/dm/client\dm_client.c ****     source.payload = (unsigned char *)payload;
 624              		.loc 1 434 16
 625 000c 2EC0     		sw	a1,0(sp)
 435:C:/Users/stapi/OneDrive/Desktop/GD32VW553/V1_MQTT_OK/GD32VW55X_Wifi_BLE_SDK/GD32VW55x_RELEASE_V1.0.2/MSDK/cloud/alicloud/src/services/linkkit/dm/client\dm_client.c ****     source.payload_len = payload_len;
 626              		.loc 1 435 20
 627 000e 32C2     		sw	a2,4(sp)
 436:C:/Users/stapi/OneDrive/Desktop/GD32VW553/V1_MQTT_OK/GD32VW55X_Wifi_BLE_SDK/GD32VW55x_RELEASE_V1.0.2/MSDK/cloud/alicloud/src/services/linkkit/dm/client\dm_client.c ****     source.context = NULL;
 628              		.loc 1 436 24
 629 0010 36C4     		sw	a3,8(sp)
 432:C:/Users/stapi/OneDrive/Desktop/GD32VW553/V1_MQTT_OK/GD32VW55X_Wifi_BLE_SDK/GD32VW55x_RELEASE_V1.0.2/MSDK/cloud/alicloud/src/services/linkkit/dm/client\dm_client.c **** 
 630              		.loc 1 432 5
 631 0012 02C6     		sw	zero,12(sp)
 434:C:/Users/stapi/OneDrive/Desktop/GD32VW553/V1_MQTT_OK/GD32VW55X_Wifi_BLE_SDK/GD32VW55x_RELEASE_V1.0.2/MSDK/cloud/alicloud/src/services/linkkit/dm/client\dm_client.c ****     source.payload = (unsigned char *)payload;
 632              		.loc 1 434 5 is_stmt 1
 435:C:/Users/stapi/OneDrive/Desktop/GD32VW553/V1_MQTT_OK/GD32VW55X_Wifi_BLE_SDK/GD32VW55x_RELEASE_V1.0.2/MSDK/cloud/alicloud/src/services/linkkit/dm/client\dm_client.c ****     source.payload_len = payload_len;
 633              		.loc 1 435 5
 436:C:/Users/stapi/OneDrive/Desktop/GD32VW553/V1_MQTT_OK/GD32VW55X_Wifi_BLE_SDK/GD32VW55x_RELEASE_V1.0.2/MSDK/cloud/alicloud/src/services/linkkit/dm/client\dm_client.c ****     source.context = NULL;
 634              		.loc 1 436 5
 437:C:/Users/stapi/OneDrive/Desktop/GD32VW553/V1_MQTT_OK/GD32VW55X_Wifi_BLE_SDK/GD32VW55x_RELEASE_V1.0.2/MSDK/cloud/alicloud/src/services/linkkit/dm/client\dm_client.c **** 
 635              		.loc 1 437 5
 636              		.loc 1 439 5
 637 0014 97000000 		call	dm_disp_ext_error_response
 637      E7800000 
 638              	.LVL50:
 440:C:/Users/stapi/OneDrive/Desktop/GD32VW553/V1_MQTT_OK/GD32VW55X_Wifi_BLE_SDK/GD32VW55x_RELEASE_V1.0.2/MSDK/cloud/alicloud/src/services/linkkit/dm/client\dm_client.c **** }
 639              		.loc 1 440 1 is_stmt 0
 640 001c 4101     		addi	sp,sp,16
 641              		.cfi_def_cfa_offset 0
 642 001e 17030000 		tail	__riscv_restore_0
 642      67000300 
 643              		.cfi_restore 1
 644              		.cfi_def_cfa_offset -16
 645              		.cfi_endproc
 646              	.LFE36:
 648              		.section	.rodata.dm_client_subscribe_all.str1.4,"aMS",@progbits,1
 649              		.align	2
 650              	.LC1:
 651 0000 2B00     		.string	"+"
 652              		.section	.text.dm_client_subscribe_all,"ax",@progbits
 653              		.align	1
 654              		.globl	dm_client_subscribe_all
 656              	dm_client_subscribe_all:
 657              	.LFB21:
  83:C:/Users/stapi/OneDrive/Desktop/GD32VW553/V1_MQTT_OK/GD32VW55X_Wifi_BLE_SDK/GD32VW55x_RELEASE_V1.0.2/MSDK/cloud/alicloud/src/services/linkkit/dm/client\dm_client.c ****     int res = 0, index = 0;
 658              		.loc 1 83 1 is_stmt 1
 659              		.cfi_startproc
 660              	.LVL51:
 661 0000 17030000 		call	t0,__riscv_save_5
 661      E7020300 
 662              		.cfi_offset 20, -24
 663              		.cfi_offset 19, -20
 664              		.cfi_offset 18, -16
 665              		.cfi_offset 9, -12
 666              		.cfi_offset 8, -8
 667              		.cfi_offset 1, -4
 668              		.cfi_def_cfa_offset 32
  84:C:/Users/stapi/OneDrive/Desktop/GD32VW553/V1_MQTT_OK/GD32VW55X_Wifi_BLE_SDK/GD32VW55x_RELEASE_V1.0.2/MSDK/cloud/alicloud/src/services/linkkit/dm/client\dm_client.c ****     int number = sizeof(g_dm_client_uri_map) / sizeof(dm_client_uri_map_t);
 669              		.loc 1 84 5
 670              	.LVL52:
  85:C:/Users/stapi/OneDrive/Desktop/GD32VW553/V1_MQTT_OK/GD32VW55X_Wifi_BLE_SDK/GD32VW55x_RELEASE_V1.0.2/MSDK/cloud/alicloud/src/services/linkkit/dm/client\dm_client.c ****     char *uri = NULL;
 671              		.loc 1 85 5
  86:C:/Users/stapi/OneDrive/Desktop/GD32VW553/V1_MQTT_OK/GD32VW55X_Wifi_BLE_SDK/GD32VW55x_RELEASE_V1.0.2/MSDK/cloud/alicloud/src/services/linkkit/dm/client\dm_client.c ****     uint8_t local_sub = 0;
 672              		.loc 1 86 5
  83:C:/Users/stapi/OneDrive/Desktop/GD32VW553/V1_MQTT_OK/GD32VW55X_Wifi_BLE_SDK/GD32VW55x_RELEASE_V1.0.2/MSDK/cloud/alicloud/src/services/linkkit/dm/client\dm_client.c ****     int res = 0, index = 0;
 673              		.loc 1 83 1 is_stmt 0
 674 0008 4111     		addi	sp,sp,-16
 675              		.cfi_def_cfa_offset 48
  83:C:/Users/stapi/OneDrive/Desktop/GD32VW553/V1_MQTT_OK/GD32VW55X_Wifi_BLE_SDK/GD32VW55x_RELEASE_V1.0.2/MSDK/cloud/alicloud/src/services/linkkit/dm/client\dm_client.c ****     int res = 0, index = 0;
 676              		.loc 1 83 1
 677 000a B684     		mv	s1,a3
  92:C:/Users/stapi/OneDrive/Desktop/GD32VW553/V1_MQTT_OK/GD32VW55X_Wifi_BLE_SDK/GD32VW55x_RELEASE_V1.0.2/MSDK/cloud/alicloud/src/services/linkkit/dm/client\dm_client.c ****                         product_key, device_name, &uri);
 678              		.loc 1 92 15
 679 000c 37050000 		lui	a0,%hi(DM_URI_SYS_PREFIX)
 680              	.LVL53:
 681 0010 B286     		mv	a3,a2
 682              	.LVL54:
 683 0012 2E86     		mv	a2,a1
 684              	.LVL55:
 685 0014 B7050000 		lui	a1,%hi(DM_URI_THING_EVENT_POST_REPLY_WILDCARD)
 686              	.LVL56:
 687 0018 3800     		addi	a4,sp,8
 688 001a 93850500 		addi	a1,a1,%lo(DM_URI_THING_EVENT_POST_REPLY_WILDCARD)
 689 001e 13050500 		addi	a0,a0,%lo(DM_URI_SYS_PREFIX)
  86:C:/Users/stapi/OneDrive/Desktop/GD32VW553/V1_MQTT_OK/GD32VW55X_Wifi_BLE_SDK/GD32VW55x_RELEASE_V1.0.2/MSDK/cloud/alicloud/src/services/linkkit/dm/client\dm_client.c ****     uint8_t local_sub = 0;
 690              		.loc 1 86 11
 691 0022 02C4     		sw	zero,8(sp)
  87:C:/Users/stapi/OneDrive/Desktop/GD32VW553/V1_MQTT_OK/GD32VW55X_Wifi_BLE_SDK/GD32VW55x_RELEASE_V1.0.2/MSDK/cloud/alicloud/src/services/linkkit/dm/client\dm_client.c **** 
 692              		.loc 1 87 5 is_stmt 1
  87:C:/Users/stapi/OneDrive/Desktop/GD32VW553/V1_MQTT_OK/GD32VW55X_Wifi_BLE_SDK/GD32VW55x_RELEASE_V1.0.2/MSDK/cloud/alicloud/src/services/linkkit/dm/client\dm_client.c **** 
 693              		.loc 1 87 13 is_stmt 0
 694 0024 A3030100 		sb	zero,7(sp)
  92:C:/Users/stapi/OneDrive/Desktop/GD32VW553/V1_MQTT_OK/GD32VW55X_Wifi_BLE_SDK/GD32VW55x_RELEASE_V1.0.2/MSDK/cloud/alicloud/src/services/linkkit/dm/client\dm_client.c ****                         product_key, device_name, &uri);
 695              		.loc 1 92 9 is_stmt 1
  92:C:/Users/stapi/OneDrive/Desktop/GD32VW553/V1_MQTT_OK/GD32VW55X_Wifi_BLE_SDK/GD32VW55x_RELEASE_V1.0.2/MSDK/cloud/alicloud/src/services/linkkit/dm/client\dm_client.c ****                         product_key, device_name, &uri);
 696              		.loc 1 92 15 is_stmt 0
 697 0028 97000000 		call	dm_utils_service_name
 697      E7800000 
 698              	.LVL57:
  94:C:/Users/stapi/OneDrive/Desktop/GD32VW553/V1_MQTT_OK/GD32VW55X_Wifi_BLE_SDK/GD32VW55x_RELEASE_V1.0.2/MSDK/cloud/alicloud/src/services/linkkit/dm/client\dm_client.c ****             _dm_client_subscribe_filter(uri, (iotx_cm_data_handle_cb)g_dm_client_uri_map[0].callbac
 699              		.loc 1 94 9 is_stmt 1
  94:C:/Users/stapi/OneDrive/Desktop/GD32VW553/V1_MQTT_OK/GD32VW55X_Wifi_BLE_SDK/GD32VW55x_RELEASE_V1.0.2/MSDK/cloud/alicloud/src/services/linkkit/dm/client\dm_client.c ****             _dm_client_subscribe_filter(uri, (iotx_cm_data_handle_cb)g_dm_client_uri_map[0].callbac
 700              		.loc 1 94 12 is_stmt 0
 701 0030 39E5     		bne	a0,zero,.L34
  95:C:/Users/stapi/OneDrive/Desktop/GD32VW553/V1_MQTT_OK/GD32VW55X_Wifi_BLE_SDK/GD32VW55x_RELEASE_V1.0.2/MSDK/cloud/alicloud/src/services/linkkit/dm/client\dm_client.c ****             DM_free(uri);
 702              		.loc 1 95 13 is_stmt 1
 703              	.LBB4:
 704              	.LBB5:
  62:C:/Users/stapi/OneDrive/Desktop/GD32VW553/V1_MQTT_OK/GD32VW55X_Wifi_BLE_SDK/GD32VW55x_RELEASE_V1.0.2/MSDK/cloud/alicloud/src/services/linkkit/dm/client\dm_client.c ****     if (res != SUCCESS_RETURN) {
 705              		.loc 1 62 11 is_stmt 0
 706 0032 6C00     		addi	a1,sp,12
 707 0034 0545     		li	a0,1
 708              	.LVL58:
 709              	.LBE5:
 710              	.LBE4:
  95:C:/Users/stapi/OneDrive/Desktop/GD32VW553/V1_MQTT_OK/GD32VW55X_Wifi_BLE_SDK/GD32VW55x_RELEASE_V1.0.2/MSDK/cloud/alicloud/src/services/linkkit/dm/client\dm_client.c ****             DM_free(uri);
 711              		.loc 1 95 13
 712 0036 2249     		lw	s2,8(sp)
 713              	.LVL59:
 714              	.LBB7:
 715              	.LBB6:
  58:C:/Users/stapi/OneDrive/Desktop/GD32VW553/V1_MQTT_OK/GD32VW55X_Wifi_BLE_SDK/GD32VW55x_RELEASE_V1.0.2/MSDK/cloud/alicloud/src/services/linkkit/dm/client\dm_client.c ****     int event_post_reply_opt = 0;
 716              		.loc 1 58 5 is_stmt 1
  59:C:/Users/stapi/OneDrive/Desktop/GD32VW553/V1_MQTT_OK/GD32VW55X_Wifi_BLE_SDK/GD32VW55x_RELEASE_V1.0.2/MSDK/cloud/alicloud/src/services/linkkit/dm/client\dm_client.c ****     int retry_cnt = IOTX_DM_CLIENT_SUB_RETRY_MAX_COUNTS;
 717              		.loc 1 59 5
  59:C:/Users/stapi/OneDrive/Desktop/GD32VW553/V1_MQTT_OK/GD32VW55X_Wifi_BLE_SDK/GD32VW55x_RELEASE_V1.0.2/MSDK/cloud/alicloud/src/services/linkkit/dm/client\dm_client.c ****     int retry_cnt = IOTX_DM_CLIENT_SUB_RETRY_MAX_COUNTS;
 718              		.loc 1 59 9 is_stmt 0
 719 0038 02C6     		sw	zero,12(sp)
  60:C:/Users/stapi/OneDrive/Desktop/GD32VW553/V1_MQTT_OK/GD32VW55X_Wifi_BLE_SDK/GD32VW55x_RELEASE_V1.0.2/MSDK/cloud/alicloud/src/services/linkkit/dm/client\dm_client.c **** 
 720              		.loc 1 60 5 is_stmt 1
 721              	.LVL60:
  62:C:/Users/stapi/OneDrive/Desktop/GD32VW553/V1_MQTT_OK/GD32VW55X_Wifi_BLE_SDK/GD32VW55x_RELEASE_V1.0.2/MSDK/cloud/alicloud/src/services/linkkit/dm/client\dm_client.c ****     if (res != SUCCESS_RETURN) {
 722              		.loc 1 62 5
  62:C:/Users/stapi/OneDrive/Desktop/GD32VW553/V1_MQTT_OK/GD32VW55X_Wifi_BLE_SDK/GD32VW55x_RELEASE_V1.0.2/MSDK/cloud/alicloud/src/services/linkkit/dm/client\dm_client.c ****     if (res != SUCCESS_RETURN) {
 723              		.loc 1 62 11 is_stmt 0
 724 003a 97000000 		call	dm_opt_get
 724      E7800000 
 725              	.LVL61:
  63:C:/Users/stapi/OneDrive/Desktop/GD32VW553/V1_MQTT_OK/GD32VW55X_Wifi_BLE_SDK/GD32VW55x_RELEASE_V1.0.2/MSDK/cloud/alicloud/src/services/linkkit/dm/client\dm_client.c ****         return res;
 726              		.loc 1 63 5 is_stmt 1
  63:C:/Users/stapi/OneDrive/Desktop/GD32VW553/V1_MQTT_OK/GD32VW55X_Wifi_BLE_SDK/GD32VW55x_RELEASE_V1.0.2/MSDK/cloud/alicloud/src/services/linkkit/dm/client\dm_client.c ****         return res;
 727              		.loc 1 63 8 is_stmt 0
 728 0042 05E9     		bne	a0,zero,.L36
  67:C:/Users/stapi/OneDrive/Desktop/GD32VW553/V1_MQTT_OK/GD32VW55X_Wifi_BLE_SDK/GD32VW55x_RELEASE_V1.0.2/MSDK/cloud/alicloud/src/services/linkkit/dm/client\dm_client.c ****         res = dm_client_unsubscribe(uri);
 729              		.loc 1 67 5 is_stmt 1
  67:C:/Users/stapi/OneDrive/Desktop/GD32VW553/V1_MQTT_OK/GD32VW55X_Wifi_BLE_SDK/GD32VW55x_RELEASE_V1.0.2/MSDK/cloud/alicloud/src/services/linkkit/dm/client\dm_client.c ****         res = dm_client_unsubscribe(uri);
 730              		.loc 1 67 8 is_stmt 0
 731 0044 B247     		lw	a5,12(sp)
 732 0046 1144     		li	s0,4
 733 0048 85C3     		beq	a5,zero,.L47
  74:C:/Users/stapi/OneDrive/Desktop/GD32VW553/V1_MQTT_OK/GD32VW55X_Wifi_BLE_SDK/GD32VW55x_RELEASE_V1.0.2/MSDK/cloud/alicloud/src/services/linkkit/dm/client\dm_client.c ****         }
 734              		.loc 1 74 19
 735 004a B7090000 		lui	s3,%hi(dm_client_thing_event_post_reply)
 736              	.LVL62:
 737              	.L37:
  73:C:/Users/stapi/OneDrive/Desktop/GD32VW553/V1_MQTT_OK/GD32VW55X_Wifi_BLE_SDK/GD32VW55x_RELEASE_V1.0.2/MSDK/cloud/alicloud/src/services/linkkit/dm/client\dm_client.c ****             res = dm_client_subscribe(uri, cb, 0);
 738              		.loc 1 73 37
 739 004e 7D14     		addi	s0,s0,-1
 740              	.LVL63:
 741 0050 0DC0     		beq	s0,zero,.L36
 742              	.LVL64:
  74:C:/Users/stapi/OneDrive/Desktop/GD32VW553/V1_MQTT_OK/GD32VW55X_Wifi_BLE_SDK/GD32VW55x_RELEASE_V1.0.2/MSDK/cloud/alicloud/src/services/linkkit/dm/client\dm_client.c ****         }
 743              		.loc 1 74 13 is_stmt 1
  74:C:/Users/stapi/OneDrive/Desktop/GD32VW553/V1_MQTT_OK/GD32VW55X_Wifi_BLE_SDK/GD32VW55x_RELEASE_V1.0.2/MSDK/cloud/alicloud/src/services/linkkit/dm/client\dm_client.c ****         }
 744              		.loc 1 74 19 is_stmt 0
 745 0052 0146     		li	a2,0
 746 0054 93850900 		addi	a1,s3,%lo(dm_client_thing_event_post_reply)
 747 0058 4A85     		mv	a0,s2
 748 005a 97000000 		call	dm_client_subscribe
 748      E7800000 
 749              	.LVL65:
  73:C:/Users/stapi/OneDrive/Desktop/GD32VW553/V1_MQTT_OK/GD32VW55X_Wifi_BLE_SDK/GD32VW55x_RELEASE_V1.0.2/MSDK/cloud/alicloud/src/services/linkkit/dm/client\dm_client.c ****             res = dm_client_subscribe(uri, cb, 0);
 750              		.loc 1 73 15 is_stmt 1
 751 0062 E34605FE 		blt	a0,zero,.L37
 752 0066 31A0     		j	.L36
 753              	.LVL66:
 754              	.L47:
  68:C:/Users/stapi/OneDrive/Desktop/GD32VW553/V1_MQTT_OK/GD32VW55X_Wifi_BLE_SDK/GD32VW55x_RELEASE_V1.0.2/MSDK/cloud/alicloud/src/services/linkkit/dm/client\dm_client.c ****         return res;
 755              		.loc 1 68 9
  68:C:/Users/stapi/OneDrive/Desktop/GD32VW553/V1_MQTT_OK/GD32VW55X_Wifi_BLE_SDK/GD32VW55x_RELEASE_V1.0.2/MSDK/cloud/alicloud/src/services/linkkit/dm/client\dm_client.c ****         return res;
 756              		.loc 1 68 15 is_stmt 0
 757 0068 4A85     		mv	a0,s2
 758              	.LVL67:
 759 006a 97000000 		call	dm_client_unsubscribe
 759      E7800000 
 760              	.LVL68:
  69:C:/Users/stapi/OneDrive/Desktop/GD32VW553/V1_MQTT_OK/GD32VW55X_Wifi_BLE_SDK/GD32VW55x_RELEASE_V1.0.2/MSDK/cloud/alicloud/src/services/linkkit/dm/client\dm_client.c ****     }
 761              		.loc 1 69 9 is_stmt 1
 762              	.L36:
 763              	.LBE6:
 764              	.LBE7:
  96:C:/Users/stapi/OneDrive/Desktop/GD32VW553/V1_MQTT_OK/GD32VW55X_Wifi_BLE_SDK/GD32VW55x_RELEASE_V1.0.2/MSDK/cloud/alicloud/src/services/linkkit/dm/client\dm_client.c ****         }
 765              		.loc 1 96 13
 766 0072 2245     		lw	a0,8(sp)
 767 0074 97000000 		call	LITE_free_internal
 767      E7800000 
 768              	.LVL69:
  96:C:/Users/stapi/OneDrive/Desktop/GD32VW553/V1_MQTT_OK/GD32VW55X_Wifi_BLE_SDK/GD32VW55x_RELEASE_V1.0.2/MSDK/cloud/alicloud/src/services/linkkit/dm/client\dm_client.c ****         }
 769              		.loc 1 96 13
 770 007c 02C4     		sw	zero,8(sp)
 771              	.L34:
 772 007e 37040000 		lui	s0,%hi(.LANCHOR0)
 773 0082 13040400 		addi	s0,s0,%lo(.LANCHOR0)
 774 0086 9309040A 		addi	s3,s0,160
 110:C:/Users/stapi/OneDrive/Desktop/GD32VW553/V1_MQTT_OK/GD32VW55X_Wifi_BLE_SDK/GD32VW55x_RELEASE_V1.0.2/MSDK/cloud/alicloud/src/services/linkkit/dm/client\dm_client.c ****                                     "+", "+", &uri);    /* plus sign wildcards used */
 775              		.loc 1 110 15 is_stmt 0
 776 008a 37090000 		lui	s2,%hi(.LC1)
 116:C:/Users/stapi/OneDrive/Desktop/GD32VW553/V1_MQTT_OK/GD32VW55X_Wifi_BLE_SDK/GD32VW55x_RELEASE_V1.0.2/MSDK/cloud/alicloud/src/services/linkkit/dm/client\dm_client.c ****         res = dm_client_subscribe(uri, (iotx_cm_data_handle_cb)g_dm_client_uri_map[index].callback,
 777              		.loc 1 116 19
 778 008e 054A     		li	s4,1
 779              	.LVL70:
 780              	.L43:
 105:C:/Users/stapi/OneDrive/Desktop/GD32VW553/V1_MQTT_OK/GD32VW55X_Wifi_BLE_SDK/GD32VW55x_RELEASE_V1.0.2/MSDK/cloud/alicloud/src/services/linkkit/dm/client\dm_client.c ****             continue;
 781              		.loc 1 105 9 is_stmt 1
 105:C:/Users/stapi/OneDrive/Desktop/GD32VW553/V1_MQTT_OK/GD32VW55X_Wifi_BLE_SDK/GD32VW55x_RELEASE_V1.0.2/MSDK/cloud/alicloud/src/services/linkkit/dm/client\dm_client.c ****             continue;
 782              		.loc 1 105 50 is_stmt 0
 783 0090 1C4C     		lw	a5,24(s0)
 784 0092 E58F     		and	a5,s1,a5
 105:C:/Users/stapi/OneDrive/Desktop/GD32VW553/V1_MQTT_OK/GD32VW55X_Wifi_BLE_SDK/GD32VW55x_RELEASE_V1.0.2/MSDK/cloud/alicloud/src/services/linkkit/dm/client\dm_client.c ****             continue;
 785              		.loc 1 105 12
 786 0094 95CF     		beq	a5,zero,.L41
 110:C:/Users/stapi/OneDrive/Desktop/GD32VW553/V1_MQTT_OK/GD32VW55X_Wifi_BLE_SDK/GD32VW55x_RELEASE_V1.0.2/MSDK/cloud/alicloud/src/services/linkkit/dm/client\dm_client.c ****                                     "+", "+", &uri);    /* plus sign wildcards used */
 787              		.loc 1 110 9 is_stmt 1
 110:C:/Users/stapi/OneDrive/Desktop/GD32VW553/V1_MQTT_OK/GD32VW55X_Wifi_BLE_SDK/GD32VW55x_RELEASE_V1.0.2/MSDK/cloud/alicloud/src/services/linkkit/dm/client\dm_client.c ****                                     "+", "+", &uri);    /* plus sign wildcards used */
 788              		.loc 1 110 15 is_stmt 0
 789 0096 0C48     		lw	a1,16(s0)
 790 0098 4848     		lw	a0,20(s0)
 791 009a 3800     		addi	a4,sp,8
 792 009c 93060900 		addi	a3,s2,%lo(.LC1)
 793 00a0 13060900 		addi	a2,s2,%lo(.LC1)
 794 00a4 97000000 		call	dm_utils_service_name
 794      E7800000 
 795              	.LVL71:
 112:C:/Users/stapi/OneDrive/Desktop/GD32VW553/V1_MQTT_OK/GD32VW55X_Wifi_BLE_SDK/GD32VW55x_RELEASE_V1.0.2/MSDK/cloud/alicloud/src/services/linkkit/dm/client\dm_client.c ****             continue;
 796              		.loc 1 112 9 is_stmt 1
 112:C:/Users/stapi/OneDrive/Desktop/GD32VW553/V1_MQTT_OK/GD32VW55X_Wifi_BLE_SDK/GD32VW55x_RELEASE_V1.0.2/MSDK/cloud/alicloud/src/services/linkkit/dm/client\dm_client.c ****             continue;
 797              		.loc 1 112 12 is_stmt 0
 798 00ac 63420502 		blt	a0,zero,.L41
 116:C:/Users/stapi/OneDrive/Desktop/GD32VW553/V1_MQTT_OK/GD32VW55X_Wifi_BLE_SDK/GD32VW55x_RELEASE_V1.0.2/MSDK/cloud/alicloud/src/services/linkkit/dm/client\dm_client.c ****         res = dm_client_subscribe(uri, (iotx_cm_data_handle_cb)g_dm_client_uri_map[index].callback,
 799              		.loc 1 116 9 is_stmt 1
 117:C:/Users/stapi/OneDrive/Desktop/GD32VW553/V1_MQTT_OK/GD32VW55X_Wifi_BLE_SDK/GD32VW55x_RELEASE_V1.0.2/MSDK/cloud/alicloud/src/services/linkkit/dm/client\dm_client.c ****         DM_free(uri);
 800              		.loc 1 117 15 is_stmt 0
 801 00b0 4C4C     		lw	a1,28(s0)
 802 00b2 2245     		lw	a0,8(sp)
 803              	.LVL72:
 804 00b4 13067100 		addi	a2,sp,7
 116:C:/Users/stapi/OneDrive/Desktop/GD32VW553/V1_MQTT_OK/GD32VW55X_Wifi_BLE_SDK/GD32VW55x_RELEASE_V1.0.2/MSDK/cloud/alicloud/src/services/linkkit/dm/client\dm_client.c ****         res = dm_client_subscribe(uri, (iotx_cm_data_handle_cb)g_dm_client_uri_map[index].callback,
 805              		.loc 1 116 19
 806 00b8 A3034101 		sb	s4,7(sp)
 117:C:/Users/stapi/OneDrive/Desktop/GD32VW553/V1_MQTT_OK/GD32VW55X_Wifi_BLE_SDK/GD32VW55x_RELEASE_V1.0.2/MSDK/cloud/alicloud/src/services/linkkit/dm/client\dm_client.c ****         DM_free(uri);
 807              		.loc 1 117 9 is_stmt 1
 117:C:/Users/stapi/OneDrive/Desktop/GD32VW553/V1_MQTT_OK/GD32VW55X_Wifi_BLE_SDK/GD32VW55x_RELEASE_V1.0.2/MSDK/cloud/alicloud/src/services/linkkit/dm/client\dm_client.c ****         DM_free(uri);
 808              		.loc 1 117 15 is_stmt 0
 809 00bc 97000000 		call	dm_client_subscribe
 809      E7800000 
 810              	.LVL73:
 118:C:/Users/stapi/OneDrive/Desktop/GD32VW553/V1_MQTT_OK/GD32VW55X_Wifi_BLE_SDK/GD32VW55x_RELEASE_V1.0.2/MSDK/cloud/alicloud/src/services/linkkit/dm/client\dm_client.c **** #else
 811              		.loc 1 118 9 is_stmt 1
 812 00c4 2245     		lw	a0,8(sp)
 813 00c6 97000000 		call	LITE_free_internal
 813      E7800000 
 814              	.LVL74:
 118:C:/Users/stapi/OneDrive/Desktop/GD32VW553/V1_MQTT_OK/GD32VW55X_Wifi_BLE_SDK/GD32VW55x_RELEASE_V1.0.2/MSDK/cloud/alicloud/src/services/linkkit/dm/client\dm_client.c **** #else
 815              		.loc 1 118 9
 816 00ce 02C4     		sw	zero,8(sp)
 817              	.L41:
 118:C:/Users/stapi/OneDrive/Desktop/GD32VW553/V1_MQTT_OK/GD32VW55X_Wifi_BLE_SDK/GD32VW55x_RELEASE_V1.0.2/MSDK/cloud/alicloud/src/services/linkkit/dm/client\dm_client.c **** #else
 818              		.loc 1 118 21 discriminator 1
 104:C:/Users/stapi/OneDrive/Desktop/GD32VW553/V1_MQTT_OK/GD32VW55X_Wifi_BLE_SDK/GD32VW55x_RELEASE_V1.0.2/MSDK/cloud/alicloud/src/services/linkkit/dm/client\dm_client.c ****         if ((g_dm_client_uri_map[index].dev_type & dev_type) == 0) {
 819              		.loc 1 104 28 discriminator 1
 104:C:/Users/stapi/OneDrive/Desktop/GD32VW553/V1_MQTT_OK/GD32VW55X_Wifi_BLE_SDK/GD32VW55x_RELEASE_V1.0.2/MSDK/cloud/alicloud/src/services/linkkit/dm/client\dm_client.c ****         if ((g_dm_client_uri_map[index].dev_type & dev_type) == 0) {
 820              		.loc 1 104 12 discriminator 1
 104:C:/Users/stapi/OneDrive/Desktop/GD32VW553/V1_MQTT_OK/GD32VW55X_Wifi_BLE_SDK/GD32VW55x_RELEASE_V1.0.2/MSDK/cloud/alicloud/src/services/linkkit/dm/client\dm_client.c ****         if ((g_dm_client_uri_map[index].dev_type & dev_type) == 0) {
 821              		.loc 1 104 5 is_stmt 0 discriminator 1
 822 00d0 4104     		addi	s0,s0,16
 823 00d2 E39F89FA 		bne	s3,s0,.L43
 137:C:/Users/stapi/OneDrive/Desktop/GD32VW553/V1_MQTT_OK/GD32VW55X_Wifi_BLE_SDK/GD32VW55x_RELEASE_V1.0.2/MSDK/cloud/alicloud/src/services/linkkit/dm/client\dm_client.c **** }
 824              		.loc 1 137 5 is_stmt 1
 138:C:/Users/stapi/OneDrive/Desktop/GD32VW553/V1_MQTT_OK/GD32VW55X_Wifi_BLE_SDK/GD32VW55x_RELEASE_V1.0.2/MSDK/cloud/alicloud/src/services/linkkit/dm/client\dm_client.c **** 
 825              		.loc 1 138 1 is_stmt 0
 826 00d6 0145     		li	a0,0
 827 00d8 4101     		addi	sp,sp,16
 828              		.cfi_def_cfa_offset 0
 829 00da 17030000 		tail	__riscv_restore_5
 829      67000300 
 830              		.cfi_restore 20
 831              		.cfi_restore 19
 832              		.cfi_restore 18
 833              		.cfi_restore 9
 834              		.cfi_restore 8
 835              		.cfi_restore 1
 836              		.cfi_def_cfa_offset -32
 837              		.cfi_endproc
 838              	.LFE21:
 840              		.section	.rodata.dm_client_event_handle.str1.4,"aMS",@progbits,1
 841              		.align	2
 842              	.LC2:
 843 0000 5B696E66 		.string	"[inf] "
 843      5D2000
 844 0007 00       		.align	2
 845              	.LC3:
 846 0008 494F5458 		.string	"IOTX_CM_EVENT_CLOUD_CONNECTED"
 846      5F434D5F 
 846      4556454E 
 846      545F434C 
 846      4F55445F 
 847 0026 0000     		.align	2
 848              	.LC4:
 849 0028 0D0A00   		.string	"\r\n"
 850 002b 00       		.align	2
 851              	.LC5:
 852 002c 494F5458 		.string	"IOTX_CM_EVENT_CLOUD_DISCONNECT"
 852      5F434D5F 
 852      4556454E 
 852      545F434C 
 852      4F55445F 
 853              		.section	.text.dm_client_event_handle,"ax",@progbits
 854              		.align	1
 855              		.globl	dm_client_event_handle
 857              	dm_client_event_handle:
 858              	.LFB24:
 162:C:/Users/stapi/OneDrive/Desktop/GD32VW553/V1_MQTT_OK/GD32VW55X_Wifi_BLE_SDK/GD32VW55x_RELEASE_V1.0.2/MSDK/cloud/alicloud/src/services/linkkit/dm/client\dm_client.c ****     switch (event->type) {
 859              		.loc 1 162 1 is_stmt 1
 860              		.cfi_startproc
 861              	.LVL75:
 862 0000 17030000 		call	t0,__riscv_save_0
 862      E7020300 
 863              		.cfi_offset 1, -4
 864              		.cfi_def_cfa_offset 16
 163:C:/Users/stapi/OneDrive/Desktop/GD32VW553/V1_MQTT_OK/GD32VW55X_Wifi_BLE_SDK/GD32VW55x_RELEASE_V1.0.2/MSDK/cloud/alicloud/src/services/linkkit/dm/client\dm_client.c ****         case IOTX_CM_EVENT_CLOUD_CONNECTED: {
 865              		.loc 1 163 5
 163:C:/Users/stapi/OneDrive/Desktop/GD32VW553/V1_MQTT_OK/GD32VW55X_Wifi_BLE_SDK/GD32VW55x_RELEASE_V1.0.2/MSDK/cloud/alicloud/src/services/linkkit/dm/client\dm_client.c ****         case IOTX_CM_EVENT_CLOUD_CONNECTED: {
 866              		.loc 1 163 18 is_stmt 0
 867 0008 9C41     		lw	a5,0(a1)
 163:C:/Users/stapi/OneDrive/Desktop/GD32VW553/V1_MQTT_OK/GD32VW55X_Wifi_BLE_SDK/GD32VW55x_RELEASE_V1.0.2/MSDK/cloud/alicloud/src/services/linkkit/dm/client\dm_client.c ****         case IOTX_CM_EVENT_CLOUD_CONNECTED: {
 868              		.loc 1 163 5
 869 000a 81CB     		beq	a5,zero,.L50
 870 000c 0947     		li	a4,2
 871 000e 6383E704 		beq	a5,a4,.L51
 872              	.LVL76:
 873              	.L49:
 179:C:/Users/stapi/OneDrive/Desktop/GD32VW553/V1_MQTT_OK/GD32VW55X_Wifi_BLE_SDK/GD32VW55x_RELEASE_V1.0.2/MSDK/cloud/alicloud/src/services/linkkit/dm/client\dm_client.c **** 
 874              		.loc 1 179 1
 875 0012 17030000 		tail	__riscv_restore_0
 875      67000300 
 876              		.cfi_remember_state
 877              		.cfi_restore 1
 878              		.cfi_def_cfa_offset 0
 879              	.LVL77:
 880              	.L50:
 881              		.cfi_restore_state
 165:C:/Users/stapi/OneDrive/Desktop/GD32VW553/V1_MQTT_OK/GD32VW55X_Wifi_BLE_SDK/GD32VW55x_RELEASE_V1.0.2/MSDK/cloud/alicloud/src/services/linkkit/dm/client\dm_client.c ****         }
 882              		.loc 1 165 13 is_stmt 1
 883              	.LBB12:
 884              	.LBB13:
 150:C:/Users/stapi/OneDrive/Desktop/GD32VW553/V1_MQTT_OK/GD32VW55X_Wifi_BLE_SDK/GD32VW55x_RELEASE_V1.0.2/MSDK/cloud/alicloud/src/services/linkkit/dm/client\dm_client.c ****     dm_msg_cloud_connected();
 885              		.loc 1 150 5
 150:C:/Users/stapi/OneDrive/Desktop/GD32VW553/V1_MQTT_OK/GD32VW55X_Wifi_BLE_SDK/GD32VW55x_RELEASE_V1.0.2/MSDK/cloud/alicloud/src/services/linkkit/dm/client\dm_client.c ****     dm_msg_cloud_connected();
 886              		.loc 1 150 5
 887 001a 37050000 		lui	a0,%hi(.LC2)
 888              	.LVL78:
 889 001e 13050500 		addi	a0,a0,%lo(.LC2)
 890 0022 97000000 		call	HAL_Printf
 890      E7800000 
 891              	.LVL79:
 150:C:/Users/stapi/OneDrive/Desktop/GD32VW553/V1_MQTT_OK/GD32VW55X_Wifi_BLE_SDK/GD32VW55x_RELEASE_V1.0.2/MSDK/cloud/alicloud/src/services/linkkit/dm/client\dm_client.c ****     dm_msg_cloud_connected();
 892              		.loc 1 150 5
 893 002a 37050000 		lui	a0,%hi(.LC3)
 894 002e 13050500 		addi	a0,a0,%lo(.LC3)
 895 0032 97000000 		call	HAL_Printf
 895      E7800000 
 896              	.LVL80:
 150:C:/Users/stapi/OneDrive/Desktop/GD32VW553/V1_MQTT_OK/GD32VW55X_Wifi_BLE_SDK/GD32VW55x_RELEASE_V1.0.2/MSDK/cloud/alicloud/src/services/linkkit/dm/client\dm_client.c ****     dm_msg_cloud_connected();
 897              		.loc 1 150 5
 898 003a 37050000 		lui	a0,%hi(.LC4)
 899 003e 13050500 		addi	a0,a0,%lo(.LC4)
 900 0042 97000000 		call	HAL_Printf
 900      E7800000 
 901              	.LVL81:
 150:C:/Users/stapi/OneDrive/Desktop/GD32VW553/V1_MQTT_OK/GD32VW55X_Wifi_BLE_SDK/GD32VW55x_RELEASE_V1.0.2/MSDK/cloud/alicloud/src/services/linkkit/dm/client\dm_client.c ****     dm_msg_cloud_connected();
 902              		.loc 1 150 5
 151:C:/Users/stapi/OneDrive/Desktop/GD32VW553/V1_MQTT_OK/GD32VW55X_Wifi_BLE_SDK/GD32VW55x_RELEASE_V1.0.2/MSDK/cloud/alicloud/src/services/linkkit/dm/client\dm_client.c **** }
 903              		.loc 1 151 5
 904 004a 97000000 		call	dm_msg_cloud_connected
 904      E7800000 
 905              	.LVL82:
 152:C:/Users/stapi/OneDrive/Desktop/GD32VW553/V1_MQTT_OK/GD32VW55X_Wifi_BLE_SDK/GD32VW55x_RELEASE_V1.0.2/MSDK/cloud/alicloud/src/services/linkkit/dm/client\dm_client.c **** 
 906              		.loc 1 152 1 is_stmt 0
 907 0052 C1B7     		j	.L49
 908              	.LVL83:
 909              	.L51:
 910              	.LBE13:
 911              	.LBE12:
 173:C:/Users/stapi/OneDrive/Desktop/GD32VW553/V1_MQTT_OK/GD32VW55X_Wifi_BLE_SDK/GD32VW55x_RELEASE_V1.0.2/MSDK/cloud/alicloud/src/services/linkkit/dm/client\dm_client.c ****         }
 912              		.loc 1 173 13 is_stmt 1
 913              	.LBB14:
 914              	.LBB15:
 156:C:/Users/stapi/OneDrive/Desktop/GD32VW553/V1_MQTT_OK/GD32VW55X_Wifi_BLE_SDK/GD32VW55x_RELEASE_V1.0.2/MSDK/cloud/alicloud/src/services/linkkit/dm/client\dm_client.c **** 
 915              		.loc 1 156 5
 156:C:/Users/stapi/OneDrive/Desktop/GD32VW553/V1_MQTT_OK/GD32VW55X_Wifi_BLE_SDK/GD32VW55x_RELEASE_V1.0.2/MSDK/cloud/alicloud/src/services/linkkit/dm/client\dm_client.c **** 
 916              		.loc 1 156 5
 917 0054 37050000 		lui	a0,%hi(.LC2)
 918              	.LVL84:
 919 0058 13050500 		addi	a0,a0,%lo(.LC2)
 920 005c 97000000 		call	HAL_Printf
 920      E7800000 
 921              	.LVL85:
 156:C:/Users/stapi/OneDrive/Desktop/GD32VW553/V1_MQTT_OK/GD32VW55X_Wifi_BLE_SDK/GD32VW55x_RELEASE_V1.0.2/MSDK/cloud/alicloud/src/services/linkkit/dm/client\dm_client.c **** 
 922              		.loc 1 156 5
 923 0064 37050000 		lui	a0,%hi(.LC5)
 924 0068 13050500 		addi	a0,a0,%lo(.LC5)
 925 006c 97000000 		call	HAL_Printf
 925      E7800000 
 926              	.LVL86:
 156:C:/Users/stapi/OneDrive/Desktop/GD32VW553/V1_MQTT_OK/GD32VW55X_Wifi_BLE_SDK/GD32VW55x_RELEASE_V1.0.2/MSDK/cloud/alicloud/src/services/linkkit/dm/client\dm_client.c **** 
 927              		.loc 1 156 5
 928 0074 37050000 		lui	a0,%hi(.LC4)
 929 0078 13050500 		addi	a0,a0,%lo(.LC4)
 930 007c 97000000 		call	HAL_Printf
 930      E7800000 
 931              	.LVL87:
 156:C:/Users/stapi/OneDrive/Desktop/GD32VW553/V1_MQTT_OK/GD32VW55X_Wifi_BLE_SDK/GD32VW55x_RELEASE_V1.0.2/MSDK/cloud/alicloud/src/services/linkkit/dm/client\dm_client.c **** 
 932              		.loc 1 156 5
 158:C:/Users/stapi/OneDrive/Desktop/GD32VW553/V1_MQTT_OK/GD32VW55X_Wifi_BLE_SDK/GD32VW55x_RELEASE_V1.0.2/MSDK/cloud/alicloud/src/services/linkkit/dm/client\dm_client.c **** }
 933              		.loc 1 158 5
 934 0084 97000000 		call	dm_msg_cloud_disconnect
 934      E7800000 
 935              	.LVL88:
 936              	.LBE15:
 937              	.LBE14:
 179:C:/Users/stapi/OneDrive/Desktop/GD32VW553/V1_MQTT_OK/GD32VW55X_Wifi_BLE_SDK/GD32VW55x_RELEASE_V1.0.2/MSDK/cloud/alicloud/src/services/linkkit/dm/client\dm_client.c **** 
 938              		.loc 1 179 1 is_stmt 0
 939 008c 59B7     		j	.L49
 940              		.cfi_endproc
 941              	.LFE24:
 943              		.section	.text.dm_client_thing_event_notify_reply,"ax",@progbits
 944              		.align	1
 945              		.globl	dm_client_thing_event_notify_reply
 947              	dm_client_thing_event_notify_reply:
 948              	.LFB32:
 346:C:/Users/stapi/OneDrive/Desktop/GD32VW553/V1_MQTT_OK/GD32VW55X_Wifi_BLE_SDK/GD32VW55x_RELEASE_V1.0.2/MSDK/cloud/alicloud/src/services/linkkit/dm/client\dm_client.c ****     dm_msg_source_t source;
 949              		.loc 1 346 1 is_stmt 1
 950              		.cfi_startproc
 951              	.LVL89:
 952 0000 17030000 		call	t0,__riscv_save_0
 952      E7020300 
 953              		.cfi_offset 1, -4
 954              		.cfi_def_cfa_offset 16
 347:C:/Users/stapi/OneDrive/Desktop/GD32VW553/V1_MQTT_OK/GD32VW55X_Wifi_BLE_SDK/GD32VW55x_RELEASE_V1.0.2/MSDK/cloud/alicloud/src/services/linkkit/dm/client\dm_client.c **** 
 955              		.loc 1 347 5
 349:C:/Users/stapi/OneDrive/Desktop/GD32VW553/V1_MQTT_OK/GD32VW55X_Wifi_BLE_SDK/GD32VW55x_RELEASE_V1.0.2/MSDK/cloud/alicloud/src/services/linkkit/dm/client\dm_client.c **** 
 956              		.loc 1 349 5
 346:C:/Users/stapi/OneDrive/Desktop/GD32VW553/V1_MQTT_OK/GD32VW55X_Wifi_BLE_SDK/GD32VW55x_RELEASE_V1.0.2/MSDK/cloud/alicloud/src/services/linkkit/dm/client\dm_client.c ****     dm_msg_source_t source;
 957              		.loc 1 346 1 is_stmt 0
 958 0008 4111     		addi	sp,sp,-16
 959              		.cfi_def_cfa_offset 32
 356:C:/Users/stapi/OneDrive/Desktop/GD32VW553/V1_MQTT_OK/GD32VW55X_Wifi_BLE_SDK/GD32VW55x_RELEASE_V1.0.2/MSDK/cloud/alicloud/src/services/linkkit/dm/client\dm_client.c **** }
 960              		.loc 1 356 5
 961 000a 0A85     		mv	a0,sp
 962              	.LVL90:
 351:C:/Users/stapi/OneDrive/Desktop/GD32VW553/V1_MQTT_OK/GD32VW55X_Wifi_BLE_SDK/GD32VW55x_RELEASE_V1.0.2/MSDK/cloud/alicloud/src/services/linkkit/dm/client\dm_client.c ****     source.payload = (unsigned char *)payload;
 963              		.loc 1 351 16
 964 000c 2EC0     		sw	a1,0(sp)
 352:C:/Users/stapi/OneDrive/Desktop/GD32VW553/V1_MQTT_OK/GD32VW55X_Wifi_BLE_SDK/GD32VW55x_RELEASE_V1.0.2/MSDK/cloud/alicloud/src/services/linkkit/dm/client\dm_client.c ****     source.payload_len = payload_len;
 965              		.loc 1 352 20
 966 000e 32C2     		sw	a2,4(sp)
 353:C:/Users/stapi/OneDrive/Desktop/GD32VW553/V1_MQTT_OK/GD32VW55X_Wifi_BLE_SDK/GD32VW55x_RELEASE_V1.0.2/MSDK/cloud/alicloud/src/services/linkkit/dm/client\dm_client.c ****     source.context = NULL;
 967              		.loc 1 353 24
 968 0010 36C4     		sw	a3,8(sp)
 349:C:/Users/stapi/OneDrive/Desktop/GD32VW553/V1_MQTT_OK/GD32VW55X_Wifi_BLE_SDK/GD32VW55x_RELEASE_V1.0.2/MSDK/cloud/alicloud/src/services/linkkit/dm/client\dm_client.c **** 
 969              		.loc 1 349 5
 970 0012 02C6     		sw	zero,12(sp)
 351:C:/Users/stapi/OneDrive/Desktop/GD32VW553/V1_MQTT_OK/GD32VW55X_Wifi_BLE_SDK/GD32VW55x_RELEASE_V1.0.2/MSDK/cloud/alicloud/src/services/linkkit/dm/client\dm_client.c ****     source.payload = (unsigned char *)payload;
 971              		.loc 1 351 5 is_stmt 1
 352:C:/Users/stapi/OneDrive/Desktop/GD32VW553/V1_MQTT_OK/GD32VW55X_Wifi_BLE_SDK/GD32VW55x_RELEASE_V1.0.2/MSDK/cloud/alicloud/src/services/linkkit/dm/client\dm_client.c ****     source.payload_len = payload_len;
 972              		.loc 1 352 5
 353:C:/Users/stapi/OneDrive/Desktop/GD32VW553/V1_MQTT_OK/GD32VW55X_Wifi_BLE_SDK/GD32VW55x_RELEASE_V1.0.2/MSDK/cloud/alicloud/src/services/linkkit/dm/client\dm_client.c ****     source.context = NULL;
 973              		.loc 1 353 5
 354:C:/Users/stapi/OneDrive/Desktop/GD32VW553/V1_MQTT_OK/GD32VW55X_Wifi_BLE_SDK/GD32VW55x_RELEASE_V1.0.2/MSDK/cloud/alicloud/src/services/linkkit/dm/client\dm_client.c **** 
 974              		.loc 1 354 5
 356:C:/Users/stapi/OneDrive/Desktop/GD32VW553/V1_MQTT_OK/GD32VW55X_Wifi_BLE_SDK/GD32VW55x_RELEASE_V1.0.2/MSDK/cloud/alicloud/src/services/linkkit/dm/client\dm_client.c **** }
 975              		.loc 1 356 5
 976 0014 97000000 		call	dm_msg_proc_thing_event_notify_reply
 976      E7800000 
 977              	.LVL91:
 357:C:/Users/stapi/OneDrive/Desktop/GD32VW553/V1_MQTT_OK/GD32VW55X_Wifi_BLE_SDK/GD32VW55x_RELEASE_V1.0.2/MSDK/cloud/alicloud/src/services/linkkit/dm/client\dm_client.c **** 
 978              		.loc 1 357 1 is_stmt 0
 979 001c 4101     		addi	sp,sp,16
 980              		.cfi_def_cfa_offset 0
 981 001e 17030000 		tail	__riscv_restore_0
 981      67000300 
 982              		.cfi_restore 1
 983              		.cfi_def_cfa_offset -16
 984              		.cfi_endproc
 985              	.LFE32:
 987              		.section	.rodata.g_dm_client_uri_map,"a"
 988              		.align	2
 989              		.set	.LANCHOR0,. + 0
 992              	g_dm_client_uri_map:
 993 0000 00000000 		.word	DM_URI_THING_EVENT_POST_REPLY_WILDCARD
 994 0004 00000000 		.word	DM_URI_SYS_PREFIX
 995 0008 07000000 		.word	7
 996 000c 00000000 		.word	dm_client_thing_event_post_reply
 997 0010 00000000 		.word	DM_URI_THING_SERVICE_PROPERTY_SET
 998 0014 00000000 		.word	DM_URI_SYS_PREFIX
 999 0018 07000000 		.word	7
 1000 001c 00000000 		.word	dm_client_thing_service_property_set
 1001 0020 00000000 		.word	DM_URI_THING_SERVICE_REQUEST_WILDCARD
 1002 0024 00000000 		.word	DM_URI_SYS_PREFIX
 1003 0028 07000000 		.word	7
 1004 002c 00000000 		.word	dm_client_thing_service_request
 1005 0030 00000000 		.word	DM_URI_THING_DEVICEINFO_UPDATE_REPLY
 1006 0034 00000000 		.word	DM_URI_SYS_PREFIX
 1007 0038 07000000 		.word	7
 1008 003c 00000000 		.word	dm_client_thing_deviceinfo_update_reply
 1009 0040 00000000 		.word	DM_URI_THING_DEVICEINFO_DELETE_REPLY
 1010 0044 00000000 		.word	DM_URI_SYS_PREFIX
 1011 0048 07000000 		.word	7
 1012 004c 00000000 		.word	dm_client_thing_deviceinfo_delete_reply
 1013 0050 00000000 		.word	DM_URI_THING_EVENT_NOTIFY
 1014 0054 00000000 		.word	DM_URI_SYS_PREFIX
 1015 0058 07000000 		.word	7
 1016 005c 00000000 		.word	dm_client_thing_event_notify
 1017 0060 00000000 		.word	DM_URI_RRPC_REQUEST_WILDCARD
 1018 0064 00000000 		.word	DM_URI_SYS_PREFIX
 1019 0068 07000000 		.word	7
 1020 006c 00000000 		.word	dm_client_rrpc_request_wildcard
 1021 0070 00000000 		.word	DM_URI_NTP_RESPONSE
 1022 0074 00000000 		.word	DM_URI_EXT_NTP_PREFIX
 1023 0078 07000000 		.word	7
 1024 007c 00000000 		.word	dm_client_ntp_response
 1025 0080 00000000 		.word	0
 1026 0084 00000000 		.word	DM_URI_EXT_ERROR_PREFIX
 1027 0088 07000000 		.word	7
 1028 008c 00000000 		.word	dm_client_ext_error
 1029 0090 00000000 		.word	DM_URI_THING_MODEL_DOWN_RAW
 1030 0094 00000000 		.word	DM_URI_SYS_PREFIX
 1031 0098 07000000 		.word	7
 1032 009c 00000000 		.word	dm_client_thing_model_down_raw
 1033 00a0 00000000 		.word	DM_URI_THING_MODEL_UP_RAW_REPLY
 1034 00a4 00000000 		.word	DM_URI_SYS_PREFIX
 1035 00a8 07000000 		.word	7
 1036 00ac 00000000 		.word	dm_client_thing_model_up_raw_reply
 1037              		.text
 1038              	.Letext0:
 1039              		.file 2 "c:\\users\\stapi\\onedrive\\desktop\\gd32vw553\\embeddedbuilder_v1.4.7.26843\\tools\\nucl
 1040              		.file 3 "c:\\users\\stapi\\onedrive\\desktop\\gd32vw553\\embeddedbuilder_v1.4.7.26843\\tools\\nucl
 1041              		.file 4 "..\\..\\..\\..\\cloud\\alicloud\\src\\infra\\utils\\misc/lite-cjson.h"
 1042              		.file 5 "..\\..\\..\\..\\cloud\\alicloud\\include/exports/iot_export_errno.h"
 1043              		.file 6 "..\\..\\..\\..\\cloud\\alicloud\\src\\services\\linkkit\\cm\\include/iotx_cm.h"
 1044              		.file 7 "..\\..\\..\\..\\cloud\\alicloud\\src\\services\\linkkit\\dm/dm_opt.h"
 1045              		.file 8 "..\\..\\..\\..\\cloud\\alicloud\\src\\services\\linkkit\\dm/iotx_dm.h"
 1046              		.file 9 "..\\..\\..\\..\\cloud\\alicloud\\src\\services\\linkkit\\dm/dm_message.h"
 1047              		.file 10 "..\\..\\..\\..\\cloud\\alicloud\\src\\services\\linkkit\\dm/dm_msg_process.h"
 1048              		.file 11 "..\\..\\..\\..\\cloud\\alicloud\\src\\services\\linkkit\\dm\\client/dm_client.h"
 1049              		.file 12 "..\\..\\..\\..\\cloud\\alicloud\\include/iot_import.h"
 1050              		.file 13 "..\\..\\..\\..\\cloud\\alicloud\\src\\services\\linkkit\\dm\\client/dm_client_adapter.h"
 1051              		.file 14 "..\\..\\..\\..\\cloud\\alicloud\\src\\services\\linkkit\\dm/dm_utils.h"
 1052              		.file 15 "..\\..\\..\\..\\cloud\\alicloud\\src\\infra\\utils/iotx_utils.h"
 1053              		.file 16 "<built-in>"
DEFINED SYMBOLS
                            *ABS*:0000000000000000 dm_client.c
C:\Users\stapi\AppData\Local\Temp\cc4FYSW7.s:13     .text.dm_client_thing_model_down_raw:0000000000000000 dm_client_thing_model_down_raw
C:\Users\stapi\AppData\Local\Temp\cc4FYSW7.s:17     .text.dm_client_thing_model_down_raw:0000000000000000 .L0 
C:\Users\stapi\AppData\Local\Temp\cc4FYSW7.s:19     .text.dm_client_thing_model_down_raw:0000000000000000 .L0 
C:\Users\stapi\AppData\Local\Temp\cc4FYSW7.s:20     .text.dm_client_thing_model_down_raw:0000000000000008 .L0 
C:\Users\stapi\AppData\Local\Temp\cc4FYSW7.s:21     .text.dm_client_thing_model_down_raw:0000000000000008 .L0 
C:\Users\stapi\AppData\Local\Temp\cc4FYSW7.s:23     .text.dm_client_thing_model_down_raw:0000000000000008 .L0 
C:\Users\stapi\AppData\Local\Temp\cc4FYSW7.s:24     .text.dm_client_thing_model_down_raw:0000000000000008 .L0 
C:\Users\stapi\AppData\Local\Temp\cc4FYSW7.s:25     .text.dm_client_thing_model_down_raw:0000000000000008 .L0 
C:\Users\stapi\AppData\Local\Temp\cc4FYSW7.s:26     .text.dm_client_thing_model_down_raw:000000000000000a .L0 
C:\Users\stapi\AppData\Local\Temp\cc4FYSW7.s:28     .text.dm_client_thing_model_down_raw:000000000000000a .L0 
C:\Users\stapi\AppData\Local\Temp\cc4FYSW7.s:31     .text.dm_client_thing_model_down_raw:000000000000000c .L0 
C:\Users\stapi\AppData\Local\Temp\cc4FYSW7.s:33     .text.dm_client_thing_model_down_raw:000000000000000e .L0 
C:\Users\stapi\AppData\Local\Temp\cc4FYSW7.s:35     .text.dm_client_thing_model_down_raw:0000000000000010 .L0 
C:\Users\stapi\AppData\Local\Temp\cc4FYSW7.s:37     .text.dm_client_thing_model_down_raw:0000000000000012 .L0 
C:\Users\stapi\AppData\Local\Temp\cc4FYSW7.s:39     .text.dm_client_thing_model_down_raw:0000000000000014 .L0 
C:\Users\stapi\AppData\Local\Temp\cc4FYSW7.s:40     .text.dm_client_thing_model_down_raw:0000000000000014 .L0 
C:\Users\stapi\AppData\Local\Temp\cc4FYSW7.s:41     .text.dm_client_thing_model_down_raw:0000000000000014 .L0 
C:\Users\stapi\AppData\Local\Temp\cc4FYSW7.s:42     .text.dm_client_thing_model_down_raw:0000000000000014 .L0 
C:\Users\stapi\AppData\Local\Temp\cc4FYSW7.s:43     .text.dm_client_thing_model_down_raw:0000000000000014 .L0 
C:\Users\stapi\AppData\Local\Temp\cc4FYSW7.s:46     .text.dm_client_thing_model_down_raw:000000000000001c .L0 
C:\Users\stapi\AppData\Local\Temp\cc4FYSW7.s:47     .text.dm_client_thing_model_down_raw:000000000000001e .L0 
C:\Users\stapi\AppData\Local\Temp\cc4FYSW7.s:49     .text.dm_client_thing_model_down_raw:0000000000000026 .L0 
C:\Users\stapi\AppData\Local\Temp\cc4FYSW7.s:50     .text.dm_client_thing_model_down_raw:0000000000000026 .L0 
C:\Users\stapi\AppData\Local\Temp\cc4FYSW7.s:51     .text.dm_client_thing_model_down_raw:0000000000000026 .L0 
C:\Users\stapi\AppData\Local\Temp\cc4FYSW7.s:58     .text.dm_client_thing_model_up_raw_reply:0000000000000000 dm_client_thing_model_up_raw_reply
C:\Users\stapi\AppData\Local\Temp\cc4FYSW7.s:61     .text.dm_client_thing_model_up_raw_reply:0000000000000000 .L0 
C:\Users\stapi\AppData\Local\Temp\cc4FYSW7.s:63     .text.dm_client_thing_model_up_raw_reply:0000000000000000 .L0 
C:\Users\stapi\AppData\Local\Temp\cc4FYSW7.s:64     .text.dm_client_thing_model_up_raw_reply:0000000000000008 .L0 
C:\Users\stapi\AppData\Local\Temp\cc4FYSW7.s:65     .text.dm_client_thing_model_up_raw_reply:0000000000000008 .L0 
C:\Users\stapi\AppData\Local\Temp\cc4FYSW7.s:67     .text.dm_client_thing_model_up_raw_reply:0000000000000008 .L0 
C:\Users\stapi\AppData\Local\Temp\cc4FYSW7.s:68     .text.dm_client_thing_model_up_raw_reply:0000000000000008 .L0 
C:\Users\stapi\AppData\Local\Temp\cc4FYSW7.s:69     .text.dm_client_thing_model_up_raw_reply:0000000000000008 .L0 
C:\Users\stapi\AppData\Local\Temp\cc4FYSW7.s:70     .text.dm_client_thing_model_up_raw_reply:000000000000000a .L0 
C:\Users\stapi\AppData\Local\Temp\cc4FYSW7.s:72     .text.dm_client_thing_model_up_raw_reply:000000000000000a .L0 
C:\Users\stapi\AppData\Local\Temp\cc4FYSW7.s:75     .text.dm_client_thing_model_up_raw_reply:000000000000000c .L0 
C:\Users\stapi\AppData\Local\Temp\cc4FYSW7.s:77     .text.dm_client_thing_model_up_raw_reply:000000000000000e .L0 
C:\Users\stapi\AppData\Local\Temp\cc4FYSW7.s:79     .text.dm_client_thing_model_up_raw_reply:0000000000000010 .L0 
C:\Users\stapi\AppData\Local\Temp\cc4FYSW7.s:81     .text.dm_client_thing_model_up_raw_reply:0000000000000012 .L0 
C:\Users\stapi\AppData\Local\Temp\cc4FYSW7.s:83     .text.dm_client_thing_model_up_raw_reply:0000000000000014 .L0 
C:\Users\stapi\AppData\Local\Temp\cc4FYSW7.s:84     .text.dm_client_thing_model_up_raw_reply:0000000000000014 .L0 
C:\Users\stapi\AppData\Local\Temp\cc4FYSW7.s:85     .text.dm_client_thing_model_up_raw_reply:0000000000000014 .L0 
C:\Users\stapi\AppData\Local\Temp\cc4FYSW7.s:86     .text.dm_client_thing_model_up_raw_reply:0000000000000014 .L0 
C:\Users\stapi\AppData\Local\Temp\cc4FYSW7.s:87     .text.dm_client_thing_model_up_raw_reply:0000000000000014 .L0 
C:\Users\stapi\AppData\Local\Temp\cc4FYSW7.s:90     .text.dm_client_thing_model_up_raw_reply:000000000000001c .L0 
C:\Users\stapi\AppData\Local\Temp\cc4FYSW7.s:91     .text.dm_client_thing_model_up_raw_reply:000000000000001e .L0 
C:\Users\stapi\AppData\Local\Temp\cc4FYSW7.s:93     .text.dm_client_thing_model_up_raw_reply:0000000000000026 .L0 
C:\Users\stapi\AppData\Local\Temp\cc4FYSW7.s:94     .text.dm_client_thing_model_up_raw_reply:0000000000000026 .L0 
C:\Users\stapi\AppData\Local\Temp\cc4FYSW7.s:95     .text.dm_client_thing_model_up_raw_reply:0000000000000026 .L0 
C:\Users\stapi\AppData\Local\Temp\cc4FYSW7.s:106    .text.dm_client_thing_service_property_set:0000000000000000 dm_client_thing_service_property_set
C:\Users\stapi\AppData\Local\Temp\cc4FYSW7.s:109    .text.dm_client_thing_service_property_set:0000000000000000 .L0 
C:\Users\stapi\AppData\Local\Temp\cc4FYSW7.s:111    .text.dm_client_thing_service_property_set:0000000000000000 .L0 
C:\Users\stapi\AppData\Local\Temp\cc4FYSW7.s:112    .text.dm_client_thing_service_property_set:0000000000000008 .L0 
C:\Users\stapi\AppData\Local\Temp\cc4FYSW7.s:113    .text.dm_client_thing_service_property_set:0000000000000008 .L0 
C:\Users\stapi\AppData\Local\Temp\cc4FYSW7.s:114    .text.dm_client_thing_service_property_set:0000000000000008 .L0 
C:\Users\stapi\AppData\Local\Temp\cc4FYSW7.s:115    .text.dm_client_thing_service_property_set:0000000000000008 .L0 
C:\Users\stapi\AppData\Local\Temp\cc4FYSW7.s:116    .text.dm_client_thing_service_property_set:0000000000000008 .L0 
C:\Users\stapi\AppData\Local\Temp\cc4FYSW7.s:119    .text.dm_client_thing_service_property_set:0000000000000008 .L0 
C:\Users\stapi\AppData\Local\Temp\cc4FYSW7.s:120    .text.dm_client_thing_service_property_set:0000000000000008 .L0 
C:\Users\stapi\AppData\Local\Temp\cc4FYSW7.s:121    .text.dm_client_thing_service_property_set:0000000000000008 .L0 
C:\Users\stapi\AppData\Local\Temp\cc4FYSW7.s:122    .text.dm_client_thing_service_property_set:0000000000000008 .L0 
C:\Users\stapi\AppData\Local\Temp\cc4FYSW7.s:123    .text.dm_client_thing_service_property_set:0000000000000008 .L0 
C:\Users\stapi\AppData\Local\Temp\cc4FYSW7.s:124    .text.dm_client_thing_service_property_set:0000000000000008 .L0 
C:\Users\stapi\AppData\Local\Temp\cc4FYSW7.s:125    .text.dm_client_thing_service_property_set:0000000000000008 .L0 
C:\Users\stapi\AppData\Local\Temp\cc4FYSW7.s:126    .text.dm_client_thing_service_property_set:000000000000000a .L0 
C:\Users\stapi\AppData\Local\Temp\cc4FYSW7.s:128    .text.dm_client_thing_service_property_set:000000000000000a .L0 
C:\Users\stapi\AppData\Local\Temp\cc4FYSW7.s:131    .text.dm_client_thing_service_property_set:000000000000000e .L0 
C:\Users\stapi\AppData\Local\Temp\cc4FYSW7.s:138    .text.dm_client_thing_service_property_set:0000000000000016 .L0 
C:\Users\stapi\AppData\Local\Temp\cc4FYSW7.s:140    .text.dm_client_thing_service_property_set:0000000000000018 .L0 
C:\Users\stapi\AppData\Local\Temp\cc4FYSW7.s:142    .text.dm_client_thing_service_property_set:000000000000001a .L0 
C:\Users\stapi\AppData\Local\Temp\cc4FYSW7.s:143    .text.dm_client_thing_service_property_set:000000000000001a .L0 
C:\Users\stapi\AppData\Local\Temp\cc4FYSW7.s:146    .text.dm_client_thing_service_property_set:0000000000000022 .L0 
C:\Users\stapi\AppData\Local\Temp\cc4FYSW7.s:152    .text.dm_client_thing_service_property_set:0000000000000032 .L0 
C:\Users\stapi\AppData\Local\Temp\cc4FYSW7.s:153    .text.dm_client_thing_service_property_set:0000000000000032 .L0 
C:\Users\stapi\AppData\Local\Temp\cc4FYSW7.s:156    .text.dm_client_thing_service_property_set:000000000000003a .L0 
C:\Users\stapi\AppData\Local\Temp\cc4FYSW7.s:161    .text.dm_client_thing_service_property_set:0000000000000042 .L0 
C:\Users\stapi\AppData\Local\Temp\cc4FYSW7.s:163    .text.dm_client_thing_service_property_set:0000000000000044 .L0 
C:\Users\stapi\AppData\Local\Temp\cc4FYSW7.s:164    .text.dm_client_thing_service_property_set:0000000000000044 .L0 
C:\Users\stapi\AppData\Local\Temp\cc4FYSW7.s:166    .text.dm_client_thing_service_property_set:0000000000000046 .L0 
C:\Users\stapi\AppData\Local\Temp\cc4FYSW7.s:167    .text.dm_client_thing_service_property_set:0000000000000046 .L0 
C:\Users\stapi\AppData\Local\Temp\cc4FYSW7.s:169    .text.dm_client_thing_service_property_set:0000000000000048 .L0 
C:\Users\stapi\AppData\Local\Temp\cc4FYSW7.s:170    .text.dm_client_thing_service_property_set:0000000000000048 .L0 
C:\Users\stapi\AppData\Local\Temp\cc4FYSW7.s:171    .text.dm_client_thing_service_property_set:0000000000000048 .L0 
C:\Users\stapi\AppData\Local\Temp\cc4FYSW7.s:173    .text.dm_client_thing_service_property_set:000000000000004a .L0 
C:\Users\stapi\AppData\Local\Temp\cc4FYSW7.s:174    .text.dm_client_thing_service_property_set:000000000000004a .L0 
C:\Users\stapi\AppData\Local\Temp\cc4FYSW7.s:177    .text.dm_client_thing_service_property_set:0000000000000052 .L0 
C:\Users\stapi\AppData\Local\Temp\cc4FYSW7.s:178    .text.dm_client_thing_service_property_set:0000000000000052 .L0 
C:\Users\stapi\AppData\Local\Temp\cc4FYSW7.s:180    .text.dm_client_thing_service_property_set:0000000000000056 .L0 
C:\Users\stapi\AppData\Local\Temp\cc4FYSW7.s:181    .text.dm_client_thing_service_property_set:0000000000000056 .L0 
C:\Users\stapi\AppData\Local\Temp\cc4FYSW7.s:185    .text.dm_client_thing_service_property_set:000000000000005a .L0 
C:\Users\stapi\AppData\Local\Temp\cc4FYSW7.s:187    .text.dm_client_thing_service_property_set:000000000000005c .L0 
C:\Users\stapi\AppData\Local\Temp\cc4FYSW7.s:188    .text.dm_client_thing_service_property_set:000000000000005c .L0 
C:\Users\stapi\AppData\Local\Temp\cc4FYSW7.s:191    .text.dm_client_thing_service_property_set:0000000000000064 .L0 
C:\Users\stapi\AppData\Local\Temp\cc4FYSW7.s:192    .text.dm_client_thing_service_property_set:0000000000000064 .L0 
C:\Users\stapi\AppData\Local\Temp\cc4FYSW7.s:194    .text.dm_client_thing_service_property_set:0000000000000066 .L0 
C:\Users\stapi\AppData\Local\Temp\cc4FYSW7.s:195    .text.dm_client_thing_service_property_set:0000000000000066 .L0 
C:\Users\stapi\AppData\Local\Temp\cc4FYSW7.s:198    .text.dm_client_thing_service_property_set:000000000000006a .L0 
C:\Users\stapi\AppData\Local\Temp\cc4FYSW7.s:210    .text.dm_client_thing_service_property_set:0000000000000084 .L0 
C:\Users\stapi\AppData\Local\Temp\cc4FYSW7.s:211    .text.dm_client_thing_service_property_set:0000000000000086 .L0 
C:\Users\stapi\AppData\Local\Temp\cc4FYSW7.s:213    .text.dm_client_thing_service_property_set:000000000000008e .L0 
C:\Users\stapi\AppData\Local\Temp\cc4FYSW7.s:214    .text.dm_client_thing_service_property_set:000000000000008e .L0 
C:\Users\stapi\AppData\Local\Temp\cc4FYSW7.s:215    .text.dm_client_thing_service_property_set:000000000000008e .L0 
C:\Users\stapi\AppData\Local\Temp\cc4FYSW7.s:216    .text.dm_client_thing_service_property_set:000000000000008e .L0 
C:\Users\stapi\AppData\Local\Temp\cc4FYSW7.s:217    .text.dm_client_thing_service_property_set:000000000000008e .L0 
C:\Users\stapi\AppData\Local\Temp\cc4FYSW7.s:218    .text.dm_client_thing_service_property_set:000000000000008e .L0 
C:\Users\stapi\AppData\Local\Temp\cc4FYSW7.s:225    .text.dm_client_thing_service_request:0000000000000000 dm_client_thing_service_request
C:\Users\stapi\AppData\Local\Temp\cc4FYSW7.s:228    .text.dm_client_thing_service_request:0000000000000000 .L0 
C:\Users\stapi\AppData\Local\Temp\cc4FYSW7.s:230    .text.dm_client_thing_service_request:0000000000000000 .L0 
C:\Users\stapi\AppData\Local\Temp\cc4FYSW7.s:231    .text.dm_client_thing_service_request:0000000000000008 .L0 
C:\Users\stapi\AppData\Local\Temp\cc4FYSW7.s:232    .text.dm_client_thing_service_request:0000000000000008 .L0 
C:\Users\stapi\AppData\Local\Temp\cc4FYSW7.s:234    .text.dm_client_thing_service_request:0000000000000008 .L0 
C:\Users\stapi\AppData\Local\Temp\cc4FYSW7.s:235    .text.dm_client_thing_service_request:0000000000000008 .L0 
C:\Users\stapi\AppData\Local\Temp\cc4FYSW7.s:236    .text.dm_client_thing_service_request:0000000000000008 .L0 
C:\Users\stapi\AppData\Local\Temp\cc4FYSW7.s:237    .text.dm_client_thing_service_request:000000000000000a .L0 
C:\Users\stapi\AppData\Local\Temp\cc4FYSW7.s:239    .text.dm_client_thing_service_request:000000000000000a .L0 
C:\Users\stapi\AppData\Local\Temp\cc4FYSW7.s:242    .text.dm_client_thing_service_request:000000000000000c .L0 
C:\Users\stapi\AppData\Local\Temp\cc4FYSW7.s:244    .text.dm_client_thing_service_request:000000000000000e .L0 
C:\Users\stapi\AppData\Local\Temp\cc4FYSW7.s:246    .text.dm_client_thing_service_request:0000000000000010 .L0 
C:\Users\stapi\AppData\Local\Temp\cc4FYSW7.s:248    .text.dm_client_thing_service_request:0000000000000012 .L0 
C:\Users\stapi\AppData\Local\Temp\cc4FYSW7.s:250    .text.dm_client_thing_service_request:0000000000000014 .L0 
C:\Users\stapi\AppData\Local\Temp\cc4FYSW7.s:251    .text.dm_client_thing_service_request:0000000000000014 .L0 
C:\Users\stapi\AppData\Local\Temp\cc4FYSW7.s:252    .text.dm_client_thing_service_request:0000000000000014 .L0 
C:\Users\stapi\AppData\Local\Temp\cc4FYSW7.s:253    .text.dm_client_thing_service_request:0000000000000014 .L0 
C:\Users\stapi\AppData\Local\Temp\cc4FYSW7.s:254    .text.dm_client_thing_service_request:0000000000000014 .L0 
C:\Users\stapi\AppData\Local\Temp\cc4FYSW7.s:257    .text.dm_client_thing_service_request:000000000000001c .L0 
C:\Users\stapi\AppData\Local\Temp\cc4FYSW7.s:258    .text.dm_client_thing_service_request:000000000000001e .L0 
C:\Users\stapi\AppData\Local\Temp\cc4FYSW7.s:260    .text.dm_client_thing_service_request:0000000000000026 .L0 
C:\Users\stapi\AppData\Local\Temp\cc4FYSW7.s:261    .text.dm_client_thing_service_request:0000000000000026 .L0 
C:\Users\stapi\AppData\Local\Temp\cc4FYSW7.s:262    .text.dm_client_thing_service_request:0000000000000026 .L0 
C:\Users\stapi\AppData\Local\Temp\cc4FYSW7.s:269    .text.dm_client_thing_event_post_reply:0000000000000000 dm_client_thing_event_post_reply
C:\Users\stapi\AppData\Local\Temp\cc4FYSW7.s:272    .text.dm_client_thing_event_post_reply:0000000000000000 .L0 
C:\Users\stapi\AppData\Local\Temp\cc4FYSW7.s:274    .text.dm_client_thing_event_post_reply:0000000000000000 .L0 
C:\Users\stapi\AppData\Local\Temp\cc4FYSW7.s:275    .text.dm_client_thing_event_post_reply:0000000000000008 .L0 
C:\Users\stapi\AppData\Local\Temp\cc4FYSW7.s:276    .text.dm_client_thing_event_post_reply:0000000000000008 .L0 
C:\Users\stapi\AppData\Local\Temp\cc4FYSW7.s:278    .text.dm_client_thing_event_post_reply:0000000000000008 .L0 
C:\Users\stapi\AppData\Local\Temp\cc4FYSW7.s:279    .text.dm_client_thing_event_post_reply:0000000000000008 .L0 
C:\Users\stapi\AppData\Local\Temp\cc4FYSW7.s:280    .text.dm_client_thing_event_post_reply:0000000000000008 .L0 
C:\Users\stapi\AppData\Local\Temp\cc4FYSW7.s:281    .text.dm_client_thing_event_post_reply:000000000000000a .L0 
C:\Users\stapi\AppData\Local\Temp\cc4FYSW7.s:283    .text.dm_client_thing_event_post_reply:000000000000000a .L0 
C:\Users\stapi\AppData\Local\Temp\cc4FYSW7.s:286    .text.dm_client_thing_event_post_reply:000000000000000c .L0 
C:\Users\stapi\AppData\Local\Temp\cc4FYSW7.s:288    .text.dm_client_thing_event_post_reply:000000000000000e .L0 
C:\Users\stapi\AppData\Local\Temp\cc4FYSW7.s:290    .text.dm_client_thing_event_post_reply:0000000000000010 .L0 
C:\Users\stapi\AppData\Local\Temp\cc4FYSW7.s:292    .text.dm_client_thing_event_post_reply:0000000000000012 .L0 
C:\Users\stapi\AppData\Local\Temp\cc4FYSW7.s:294    .text.dm_client_thing_event_post_reply:0000000000000014 .L0 
C:\Users\stapi\AppData\Local\Temp\cc4FYSW7.s:295    .text.dm_client_thing_event_post_reply:0000000000000014 .L0 
C:\Users\stapi\AppData\Local\Temp\cc4FYSW7.s:296    .text.dm_client_thing_event_post_reply:0000000000000014 .L0 
C:\Users\stapi\AppData\Local\Temp\cc4FYSW7.s:297    .text.dm_client_thing_event_post_reply:0000000000000014 .L0 
C:\Users\stapi\AppData\Local\Temp\cc4FYSW7.s:298    .text.dm_client_thing_event_post_reply:0000000000000014 .L0 
C:\Users\stapi\AppData\Local\Temp\cc4FYSW7.s:301    .text.dm_client_thing_event_post_reply:000000000000001c .L0 
C:\Users\stapi\AppData\Local\Temp\cc4FYSW7.s:302    .text.dm_client_thing_event_post_reply:000000000000001e .L0 
C:\Users\stapi\AppData\Local\Temp\cc4FYSW7.s:304    .text.dm_client_thing_event_post_reply:0000000000000026 .L0 
C:\Users\stapi\AppData\Local\Temp\cc4FYSW7.s:305    .text.dm_client_thing_event_post_reply:0000000000000026 .L0 
C:\Users\stapi\AppData\Local\Temp\cc4FYSW7.s:306    .text.dm_client_thing_event_post_reply:0000000000000026 .L0 
C:\Users\stapi\AppData\Local\Temp\cc4FYSW7.s:313    .text.dm_client_thing_deviceinfo_update_reply:0000000000000000 dm_client_thing_deviceinfo_update_reply
C:\Users\stapi\AppData\Local\Temp\cc4FYSW7.s:316    .text.dm_client_thing_deviceinfo_update_reply:0000000000000000 .L0 
C:\Users\stapi\AppData\Local\Temp\cc4FYSW7.s:318    .text.dm_client_thing_deviceinfo_update_reply:0000000000000000 .L0 
C:\Users\stapi\AppData\Local\Temp\cc4FYSW7.s:319    .text.dm_client_thing_deviceinfo_update_reply:0000000000000008 .L0 
C:\Users\stapi\AppData\Local\Temp\cc4FYSW7.s:320    .text.dm_client_thing_deviceinfo_update_reply:0000000000000008 .L0 
C:\Users\stapi\AppData\Local\Temp\cc4FYSW7.s:322    .text.dm_client_thing_deviceinfo_update_reply:0000000000000008 .L0 
C:\Users\stapi\AppData\Local\Temp\cc4FYSW7.s:323    .text.dm_client_thing_deviceinfo_update_reply:0000000000000008 .L0 
C:\Users\stapi\AppData\Local\Temp\cc4FYSW7.s:324    .text.dm_client_thing_deviceinfo_update_reply:0000000000000008 .L0 
C:\Users\stapi\AppData\Local\Temp\cc4FYSW7.s:325    .text.dm_client_thing_deviceinfo_update_reply:000000000000000a .L0 
C:\Users\stapi\AppData\Local\Temp\cc4FYSW7.s:327    .text.dm_client_thing_deviceinfo_update_reply:000000000000000a .L0 
C:\Users\stapi\AppData\Local\Temp\cc4FYSW7.s:330    .text.dm_client_thing_deviceinfo_update_reply:000000000000000c .L0 
C:\Users\stapi\AppData\Local\Temp\cc4FYSW7.s:332    .text.dm_client_thing_deviceinfo_update_reply:000000000000000e .L0 
C:\Users\stapi\AppData\Local\Temp\cc4FYSW7.s:334    .text.dm_client_thing_deviceinfo_update_reply:0000000000000010 .L0 
C:\Users\stapi\AppData\Local\Temp\cc4FYSW7.s:336    .text.dm_client_thing_deviceinfo_update_reply:0000000000000012 .L0 
C:\Users\stapi\AppData\Local\Temp\cc4FYSW7.s:338    .text.dm_client_thing_deviceinfo_update_reply:0000000000000014 .L0 
C:\Users\stapi\AppData\Local\Temp\cc4FYSW7.s:339    .text.dm_client_thing_deviceinfo_update_reply:0000000000000014 .L0 
C:\Users\stapi\AppData\Local\Temp\cc4FYSW7.s:340    .text.dm_client_thing_deviceinfo_update_reply:0000000000000014 .L0 
C:\Users\stapi\AppData\Local\Temp\cc4FYSW7.s:341    .text.dm_client_thing_deviceinfo_update_reply:0000000000000014 .L0 
C:\Users\stapi\AppData\Local\Temp\cc4FYSW7.s:342    .text.dm_client_thing_deviceinfo_update_reply:0000000000000014 .L0 
C:\Users\stapi\AppData\Local\Temp\cc4FYSW7.s:345    .text.dm_client_thing_deviceinfo_update_reply:000000000000001c .L0 
C:\Users\stapi\AppData\Local\Temp\cc4FYSW7.s:346    .text.dm_client_thing_deviceinfo_update_reply:000000000000001e .L0 
C:\Users\stapi\AppData\Local\Temp\cc4FYSW7.s:348    .text.dm_client_thing_deviceinfo_update_reply:0000000000000026 .L0 
C:\Users\stapi\AppData\Local\Temp\cc4FYSW7.s:349    .text.dm_client_thing_deviceinfo_update_reply:0000000000000026 .L0 
C:\Users\stapi\AppData\Local\Temp\cc4FYSW7.s:350    .text.dm_client_thing_deviceinfo_update_reply:0000000000000026 .L0 
C:\Users\stapi\AppData\Local\Temp\cc4FYSW7.s:357    .text.dm_client_thing_deviceinfo_delete_reply:0000000000000000 dm_client_thing_deviceinfo_delete_reply
C:\Users\stapi\AppData\Local\Temp\cc4FYSW7.s:360    .text.dm_client_thing_deviceinfo_delete_reply:0000000000000000 .L0 
C:\Users\stapi\AppData\Local\Temp\cc4FYSW7.s:362    .text.dm_client_thing_deviceinfo_delete_reply:0000000000000000 .L0 
C:\Users\stapi\AppData\Local\Temp\cc4FYSW7.s:363    .text.dm_client_thing_deviceinfo_delete_reply:0000000000000008 .L0 
C:\Users\stapi\AppData\Local\Temp\cc4FYSW7.s:364    .text.dm_client_thing_deviceinfo_delete_reply:0000000000000008 .L0 
C:\Users\stapi\AppData\Local\Temp\cc4FYSW7.s:366    .text.dm_client_thing_deviceinfo_delete_reply:0000000000000008 .L0 
C:\Users\stapi\AppData\Local\Temp\cc4FYSW7.s:367    .text.dm_client_thing_deviceinfo_delete_reply:0000000000000008 .L0 
C:\Users\stapi\AppData\Local\Temp\cc4FYSW7.s:368    .text.dm_client_thing_deviceinfo_delete_reply:0000000000000008 .L0 
C:\Users\stapi\AppData\Local\Temp\cc4FYSW7.s:369    .text.dm_client_thing_deviceinfo_delete_reply:000000000000000a .L0 
C:\Users\stapi\AppData\Local\Temp\cc4FYSW7.s:371    .text.dm_client_thing_deviceinfo_delete_reply:000000000000000a .L0 
C:\Users\stapi\AppData\Local\Temp\cc4FYSW7.s:374    .text.dm_client_thing_deviceinfo_delete_reply:000000000000000c .L0 
C:\Users\stapi\AppData\Local\Temp\cc4FYSW7.s:376    .text.dm_client_thing_deviceinfo_delete_reply:000000000000000e .L0 
C:\Users\stapi\AppData\Local\Temp\cc4FYSW7.s:378    .text.dm_client_thing_deviceinfo_delete_reply:0000000000000010 .L0 
C:\Users\stapi\AppData\Local\Temp\cc4FYSW7.s:380    .text.dm_client_thing_deviceinfo_delete_reply:0000000000000012 .L0 
C:\Users\stapi\AppData\Local\Temp\cc4FYSW7.s:382    .text.dm_client_thing_deviceinfo_delete_reply:0000000000000014 .L0 
C:\Users\stapi\AppData\Local\Temp\cc4FYSW7.s:383    .text.dm_client_thing_deviceinfo_delete_reply:0000000000000014 .L0 
C:\Users\stapi\AppData\Local\Temp\cc4FYSW7.s:384    .text.dm_client_thing_deviceinfo_delete_reply:0000000000000014 .L0 
C:\Users\stapi\AppData\Local\Temp\cc4FYSW7.s:385    .text.dm_client_thing_deviceinfo_delete_reply:0000000000000014 .L0 
C:\Users\stapi\AppData\Local\Temp\cc4FYSW7.s:386    .text.dm_client_thing_deviceinfo_delete_reply:0000000000000014 .L0 
C:\Users\stapi\AppData\Local\Temp\cc4FYSW7.s:389    .text.dm_client_thing_deviceinfo_delete_reply:000000000000001c .L0 
C:\Users\stapi\AppData\Local\Temp\cc4FYSW7.s:390    .text.dm_client_thing_deviceinfo_delete_reply:000000000000001e .L0 
C:\Users\stapi\AppData\Local\Temp\cc4FYSW7.s:392    .text.dm_client_thing_deviceinfo_delete_reply:0000000000000026 .L0 
C:\Users\stapi\AppData\Local\Temp\cc4FYSW7.s:393    .text.dm_client_thing_deviceinfo_delete_reply:0000000000000026 .L0 
C:\Users\stapi\AppData\Local\Temp\cc4FYSW7.s:394    .text.dm_client_thing_deviceinfo_delete_reply:0000000000000026 .L0 
C:\Users\stapi\AppData\Local\Temp\cc4FYSW7.s:401    .text.dm_client_thing_event_notify:0000000000000000 dm_client_thing_event_notify
C:\Users\stapi\AppData\Local\Temp\cc4FYSW7.s:404    .text.dm_client_thing_event_notify:0000000000000000 .L0 
C:\Users\stapi\AppData\Local\Temp\cc4FYSW7.s:406    .text.dm_client_thing_event_notify:0000000000000000 .L0 
C:\Users\stapi\AppData\Local\Temp\cc4FYSW7.s:407    .text.dm_client_thing_event_notify:0000000000000008 .L0 
C:\Users\stapi\AppData\Local\Temp\cc4FYSW7.s:408    .text.dm_client_thing_event_notify:0000000000000008 .L0 
C:\Users\stapi\AppData\Local\Temp\cc4FYSW7.s:409    .text.dm_client_thing_event_notify:0000000000000008 .L0 
C:\Users\stapi\AppData\Local\Temp\cc4FYSW7.s:410    .text.dm_client_thing_event_notify:0000000000000008 .L0 
C:\Users\stapi\AppData\Local\Temp\cc4FYSW7.s:411    .text.dm_client_thing_event_notify:0000000000000008 .L0 
C:\Users\stapi\AppData\Local\Temp\cc4FYSW7.s:414    .text.dm_client_thing_event_notify:0000000000000008 .L0 
C:\Users\stapi\AppData\Local\Temp\cc4FYSW7.s:415    .text.dm_client_thing_event_notify:0000000000000008 .L0 
C:\Users\stapi\AppData\Local\Temp\cc4FYSW7.s:416    .text.dm_client_thing_event_notify:0000000000000008 .L0 
C:\Users\stapi\AppData\Local\Temp\cc4FYSW7.s:417    .text.dm_client_thing_event_notify:0000000000000008 .L0 
C:\Users\stapi\AppData\Local\Temp\cc4FYSW7.s:418    .text.dm_client_thing_event_notify:0000000000000008 .L0 
C:\Users\stapi\AppData\Local\Temp\cc4FYSW7.s:419    .text.dm_client_thing_event_notify:0000000000000008 .L0 
C:\Users\stapi\AppData\Local\Temp\cc4FYSW7.s:420    .text.dm_client_thing_event_notify:0000000000000008 .L0 
C:\Users\stapi\AppData\Local\Temp\cc4FYSW7.s:421    .text.dm_client_thing_event_notify:000000000000000a .L0 
C:\Users\stapi\AppData\Local\Temp\cc4FYSW7.s:423    .text.dm_client_thing_event_notify:000000000000000a .L0 
C:\Users\stapi\AppData\Local\Temp\cc4FYSW7.s:426    .text.dm_client_thing_event_notify:000000000000000e .L0 
C:\Users\stapi\AppData\Local\Temp\cc4FYSW7.s:433    .text.dm_client_thing_event_notify:0000000000000016 .L0 
C:\Users\stapi\AppData\Local\Temp\cc4FYSW7.s:435    .text.dm_client_thing_event_notify:0000000000000018 .L0 
C:\Users\stapi\AppData\Local\Temp\cc4FYSW7.s:437    .text.dm_client_thing_event_notify:000000000000001a .L0 
C:\Users\stapi\AppData\Local\Temp\cc4FYSW7.s:438    .text.dm_client_thing_event_notify:000000000000001a .L0 
C:\Users\stapi\AppData\Local\Temp\cc4FYSW7.s:441    .text.dm_client_thing_event_notify:0000000000000022 .L0 
C:\Users\stapi\AppData\Local\Temp\cc4FYSW7.s:447    .text.dm_client_thing_event_notify:0000000000000032 .L0 
C:\Users\stapi\AppData\Local\Temp\cc4FYSW7.s:448    .text.dm_client_thing_event_notify:0000000000000032 .L0 
C:\Users\stapi\AppData\Local\Temp\cc4FYSW7.s:451    .text.dm_client_thing_event_notify:000000000000003a .L0 
C:\Users\stapi\AppData\Local\Temp\cc4FYSW7.s:456    .text.dm_client_thing_event_notify:0000000000000042 .L0 
C:\Users\stapi\AppData\Local\Temp\cc4FYSW7.s:458    .text.dm_client_thing_event_notify:0000000000000044 .L0 
C:\Users\stapi\AppData\Local\Temp\cc4FYSW7.s:459    .text.dm_client_thing_event_notify:0000000000000044 .L0 
C:\Users\stapi\AppData\Local\Temp\cc4FYSW7.s:461    .text.dm_client_thing_event_notify:0000000000000046 .L0 
C:\Users\stapi\AppData\Local\Temp\cc4FYSW7.s:462    .text.dm_client_thing_event_notify:0000000000000046 .L0 
C:\Users\stapi\AppData\Local\Temp\cc4FYSW7.s:464    .text.dm_client_thing_event_notify:0000000000000048 .L0 
C:\Users\stapi\AppData\Local\Temp\cc4FYSW7.s:465    .text.dm_client_thing_event_notify:0000000000000048 .L0 
C:\Users\stapi\AppData\Local\Temp\cc4FYSW7.s:466    .text.dm_client_thing_event_notify:0000000000000048 .L0 
C:\Users\stapi\AppData\Local\Temp\cc4FYSW7.s:468    .text.dm_client_thing_event_notify:000000000000004a .L0 
C:\Users\stapi\AppData\Local\Temp\cc4FYSW7.s:469    .text.dm_client_thing_event_notify:000000000000004a .L0 
C:\Users\stapi\AppData\Local\Temp\cc4FYSW7.s:472    .text.dm_client_thing_event_notify:0000000000000052 .L0 
C:\Users\stapi\AppData\Local\Temp\cc4FYSW7.s:473    .text.dm_client_thing_event_notify:0000000000000052 .L0 
C:\Users\stapi\AppData\Local\Temp\cc4FYSW7.s:475    .text.dm_client_thing_event_notify:0000000000000056 .L0 
C:\Users\stapi\AppData\Local\Temp\cc4FYSW7.s:476    .text.dm_client_thing_event_notify:0000000000000056 .L0 
C:\Users\stapi\AppData\Local\Temp\cc4FYSW7.s:480    .text.dm_client_thing_event_notify:000000000000005a .L0 
C:\Users\stapi\AppData\Local\Temp\cc4FYSW7.s:482    .text.dm_client_thing_event_notify:000000000000005c .L0 
C:\Users\stapi\AppData\Local\Temp\cc4FYSW7.s:483    .text.dm_client_thing_event_notify:000000000000005c .L0 
C:\Users\stapi\AppData\Local\Temp\cc4FYSW7.s:486    .text.dm_client_thing_event_notify:0000000000000064 .L0 
C:\Users\stapi\AppData\Local\Temp\cc4FYSW7.s:487    .text.dm_client_thing_event_notify:0000000000000064 .L0 
C:\Users\stapi\AppData\Local\Temp\cc4FYSW7.s:489    .text.dm_client_thing_event_notify:0000000000000066 .L0 
C:\Users\stapi\AppData\Local\Temp\cc4FYSW7.s:490    .text.dm_client_thing_event_notify:0000000000000066 .L0 
C:\Users\stapi\AppData\Local\Temp\cc4FYSW7.s:493    .text.dm_client_thing_event_notify:000000000000006a .L0 
C:\Users\stapi\AppData\Local\Temp\cc4FYSW7.s:505    .text.dm_client_thing_event_notify:0000000000000084 .L0 
C:\Users\stapi\AppData\Local\Temp\cc4FYSW7.s:506    .text.dm_client_thing_event_notify:0000000000000086 .L0 
C:\Users\stapi\AppData\Local\Temp\cc4FYSW7.s:508    .text.dm_client_thing_event_notify:000000000000008e .L0 
C:\Users\stapi\AppData\Local\Temp\cc4FYSW7.s:509    .text.dm_client_thing_event_notify:000000000000008e .L0 
C:\Users\stapi\AppData\Local\Temp\cc4FYSW7.s:510    .text.dm_client_thing_event_notify:000000000000008e .L0 
C:\Users\stapi\AppData\Local\Temp\cc4FYSW7.s:511    .text.dm_client_thing_event_notify:000000000000008e .L0 
C:\Users\stapi\AppData\Local\Temp\cc4FYSW7.s:512    .text.dm_client_thing_event_notify:000000000000008e .L0 
C:\Users\stapi\AppData\Local\Temp\cc4FYSW7.s:513    .text.dm_client_thing_event_notify:000000000000008e .L0 
C:\Users\stapi\AppData\Local\Temp\cc4FYSW7.s:520    .text.dm_client_rrpc_request_wildcard:0000000000000000 dm_client_rrpc_request_wildcard
C:\Users\stapi\AppData\Local\Temp\cc4FYSW7.s:523    .text.dm_client_rrpc_request_wildcard:0000000000000000 .L0 
C:\Users\stapi\AppData\Local\Temp\cc4FYSW7.s:525    .text.dm_client_rrpc_request_wildcard:0000000000000000 .L0 
C:\Users\stapi\AppData\Local\Temp\cc4FYSW7.s:526    .text.dm_client_rrpc_request_wildcard:0000000000000008 .L0 
C:\Users\stapi\AppData\Local\Temp\cc4FYSW7.s:527    .text.dm_client_rrpc_request_wildcard:0000000000000008 .L0 
C:\Users\stapi\AppData\Local\Temp\cc4FYSW7.s:529    .text.dm_client_rrpc_request_wildcard:0000000000000008 .L0 
C:\Users\stapi\AppData\Local\Temp\cc4FYSW7.s:530    .text.dm_client_rrpc_request_wildcard:0000000000000008 .L0 
C:\Users\stapi\AppData\Local\Temp\cc4FYSW7.s:531    .text.dm_client_rrpc_request_wildcard:0000000000000008 .L0 
C:\Users\stapi\AppData\Local\Temp\cc4FYSW7.s:532    .text.dm_client_rrpc_request_wildcard:000000000000000a .L0 
C:\Users\stapi\AppData\Local\Temp\cc4FYSW7.s:534    .text.dm_client_rrpc_request_wildcard:000000000000000a .L0 
C:\Users\stapi\AppData\Local\Temp\cc4FYSW7.s:537    .text.dm_client_rrpc_request_wildcard:000000000000000c .L0 
C:\Users\stapi\AppData\Local\Temp\cc4FYSW7.s:539    .text.dm_client_rrpc_request_wildcard:000000000000000e .L0 
C:\Users\stapi\AppData\Local\Temp\cc4FYSW7.s:541    .text.dm_client_rrpc_request_wildcard:0000000000000010 .L0 
C:\Users\stapi\AppData\Local\Temp\cc4FYSW7.s:543    .text.dm_client_rrpc_request_wildcard:0000000000000012 .L0 
C:\Users\stapi\AppData\Local\Temp\cc4FYSW7.s:545    .text.dm_client_rrpc_request_wildcard:0000000000000014 .L0 
C:\Users\stapi\AppData\Local\Temp\cc4FYSW7.s:546    .text.dm_client_rrpc_request_wildcard:0000000000000014 .L0 
C:\Users\stapi\AppData\Local\Temp\cc4FYSW7.s:547    .text.dm_client_rrpc_request_wildcard:0000000000000014 .L0 
C:\Users\stapi\AppData\Local\Temp\cc4FYSW7.s:548    .text.dm_client_rrpc_request_wildcard:0000000000000014 .L0 
C:\Users\stapi\AppData\Local\Temp\cc4FYSW7.s:549    .text.dm_client_rrpc_request_wildcard:0000000000000014 .L0 
C:\Users\stapi\AppData\Local\Temp\cc4FYSW7.s:552    .text.dm_client_rrpc_request_wildcard:000000000000001c .L0 
C:\Users\stapi\AppData\Local\Temp\cc4FYSW7.s:553    .text.dm_client_rrpc_request_wildcard:000000000000001e .L0 
C:\Users\stapi\AppData\Local\Temp\cc4FYSW7.s:555    .text.dm_client_rrpc_request_wildcard:0000000000000026 .L0 
C:\Users\stapi\AppData\Local\Temp\cc4FYSW7.s:556    .text.dm_client_rrpc_request_wildcard:0000000000000026 .L0 
C:\Users\stapi\AppData\Local\Temp\cc4FYSW7.s:557    .text.dm_client_rrpc_request_wildcard:0000000000000026 .L0 
C:\Users\stapi\AppData\Local\Temp\cc4FYSW7.s:564    .text.dm_client_ntp_response:0000000000000000 dm_client_ntp_response
C:\Users\stapi\AppData\Local\Temp\cc4FYSW7.s:567    .text.dm_client_ntp_response:0000000000000000 .L0 
C:\Users\stapi\AppData\Local\Temp\cc4FYSW7.s:569    .text.dm_client_ntp_response:0000000000000000 .L0 
C:\Users\stapi\AppData\Local\Temp\cc4FYSW7.s:570    .text.dm_client_ntp_response:0000000000000008 .L0 
C:\Users\stapi\AppData\Local\Temp\cc4FYSW7.s:571    .text.dm_client_ntp_response:0000000000000008 .L0 
C:\Users\stapi\AppData\Local\Temp\cc4FYSW7.s:573    .text.dm_client_ntp_response:0000000000000008 .L0 
C:\Users\stapi\AppData\Local\Temp\cc4FYSW7.s:574    .text.dm_client_ntp_response:0000000000000008 .L0 
C:\Users\stapi\AppData\Local\Temp\cc4FYSW7.s:575    .text.dm_client_ntp_response:0000000000000008 .L0 
C:\Users\stapi\AppData\Local\Temp\cc4FYSW7.s:576    .text.dm_client_ntp_response:000000000000000a .L0 
C:\Users\stapi\AppData\Local\Temp\cc4FYSW7.s:578    .text.dm_client_ntp_response:000000000000000a .L0 
C:\Users\stapi\AppData\Local\Temp\cc4FYSW7.s:581    .text.dm_client_ntp_response:000000000000000c .L0 
C:\Users\stapi\AppData\Local\Temp\cc4FYSW7.s:583    .text.dm_client_ntp_response:000000000000000e .L0 
C:\Users\stapi\AppData\Local\Temp\cc4FYSW7.s:585    .text.dm_client_ntp_response:0000000000000010 .L0 
C:\Users\stapi\AppData\Local\Temp\cc4FYSW7.s:587    .text.dm_client_ntp_response:0000000000000012 .L0 
C:\Users\stapi\AppData\Local\Temp\cc4FYSW7.s:589    .text.dm_client_ntp_response:0000000000000014 .L0 
C:\Users\stapi\AppData\Local\Temp\cc4FYSW7.s:590    .text.dm_client_ntp_response:0000000000000014 .L0 
C:\Users\stapi\AppData\Local\Temp\cc4FYSW7.s:591    .text.dm_client_ntp_response:0000000000000014 .L0 
C:\Users\stapi\AppData\Local\Temp\cc4FYSW7.s:592    .text.dm_client_ntp_response:0000000000000014 .L0 
C:\Users\stapi\AppData\Local\Temp\cc4FYSW7.s:593    .text.dm_client_ntp_response:0000000000000014 .L0 
C:\Users\stapi\AppData\Local\Temp\cc4FYSW7.s:596    .text.dm_client_ntp_response:000000000000001c .L0 
C:\Users\stapi\AppData\Local\Temp\cc4FYSW7.s:597    .text.dm_client_ntp_response:000000000000001e .L0 
C:\Users\stapi\AppData\Local\Temp\cc4FYSW7.s:599    .text.dm_client_ntp_response:0000000000000026 .L0 
C:\Users\stapi\AppData\Local\Temp\cc4FYSW7.s:600    .text.dm_client_ntp_response:0000000000000026 .L0 
C:\Users\stapi\AppData\Local\Temp\cc4FYSW7.s:601    .text.dm_client_ntp_response:0000000000000026 .L0 
C:\Users\stapi\AppData\Local\Temp\cc4FYSW7.s:608    .text.dm_client_ext_error:0000000000000000 dm_client_ext_error
C:\Users\stapi\AppData\Local\Temp\cc4FYSW7.s:611    .text.dm_client_ext_error:0000000000000000 .L0 
C:\Users\stapi\AppData\Local\Temp\cc4FYSW7.s:613    .text.dm_client_ext_error:0000000000000000 .L0 
C:\Users\stapi\AppData\Local\Temp\cc4FYSW7.s:614    .text.dm_client_ext_error:0000000000000008 .L0 
C:\Users\stapi\AppData\Local\Temp\cc4FYSW7.s:615    .text.dm_client_ext_error:0000000000000008 .L0 
C:\Users\stapi\AppData\Local\Temp\cc4FYSW7.s:617    .text.dm_client_ext_error:0000000000000008 .L0 
C:\Users\stapi\AppData\Local\Temp\cc4FYSW7.s:618    .text.dm_client_ext_error:0000000000000008 .L0 
C:\Users\stapi\AppData\Local\Temp\cc4FYSW7.s:619    .text.dm_client_ext_error:0000000000000008 .L0 
C:\Users\stapi\AppData\Local\Temp\cc4FYSW7.s:620    .text.dm_client_ext_error:000000000000000a .L0 
C:\Users\stapi\AppData\Local\Temp\cc4FYSW7.s:622    .text.dm_client_ext_error:000000000000000a .L0 
C:\Users\stapi\AppData\Local\Temp\cc4FYSW7.s:625    .text.dm_client_ext_error:000000000000000c .L0 
C:\Users\stapi\AppData\Local\Temp\cc4FYSW7.s:627    .text.dm_client_ext_error:000000000000000e .L0 
C:\Users\stapi\AppData\Local\Temp\cc4FYSW7.s:629    .text.dm_client_ext_error:0000000000000010 .L0 
C:\Users\stapi\AppData\Local\Temp\cc4FYSW7.s:631    .text.dm_client_ext_error:0000000000000012 .L0 
C:\Users\stapi\AppData\Local\Temp\cc4FYSW7.s:633    .text.dm_client_ext_error:0000000000000014 .L0 
C:\Users\stapi\AppData\Local\Temp\cc4FYSW7.s:634    .text.dm_client_ext_error:0000000000000014 .L0 
C:\Users\stapi\AppData\Local\Temp\cc4FYSW7.s:635    .text.dm_client_ext_error:0000000000000014 .L0 
C:\Users\stapi\AppData\Local\Temp\cc4FYSW7.s:636    .text.dm_client_ext_error:0000000000000014 .L0 
C:\Users\stapi\AppData\Local\Temp\cc4FYSW7.s:637    .text.dm_client_ext_error:0000000000000014 .L0 
C:\Users\stapi\AppData\Local\Temp\cc4FYSW7.s:640    .text.dm_client_ext_error:000000000000001c .L0 
C:\Users\stapi\AppData\Local\Temp\cc4FYSW7.s:641    .text.dm_client_ext_error:000000000000001e .L0 
C:\Users\stapi\AppData\Local\Temp\cc4FYSW7.s:643    .text.dm_client_ext_error:0000000000000026 .L0 
C:\Users\stapi\AppData\Local\Temp\cc4FYSW7.s:644    .text.dm_client_ext_error:0000000000000026 .L0 
C:\Users\stapi\AppData\Local\Temp\cc4FYSW7.s:645    .text.dm_client_ext_error:0000000000000026 .L0 
C:\Users\stapi\AppData\Local\Temp\cc4FYSW7.s:656    .text.dm_client_subscribe_all:0000000000000000 dm_client_subscribe_all
C:\Users\stapi\AppData\Local\Temp\cc4FYSW7.s:659    .text.dm_client_subscribe_all:0000000000000000 .L0 
C:\Users\stapi\AppData\Local\Temp\cc4FYSW7.s:661    .text.dm_client_subscribe_all:0000000000000000 .L0 
C:\Users\stapi\AppData\Local\Temp\cc4FYSW7.s:662    .text.dm_client_subscribe_all:0000000000000008 .L0 
C:\Users\stapi\AppData\Local\Temp\cc4FYSW7.s:663    .text.dm_client_subscribe_all:0000000000000008 .L0 
C:\Users\stapi\AppData\Local\Temp\cc4FYSW7.s:664    .text.dm_client_subscribe_all:0000000000000008 .L0 
C:\Users\stapi\AppData\Local\Temp\cc4FYSW7.s:665    .text.dm_client_subscribe_all:0000000000000008 .L0 
C:\Users\stapi\AppData\Local\Temp\cc4FYSW7.s:666    .text.dm_client_subscribe_all:0000000000000008 .L0 
C:\Users\stapi\AppData\Local\Temp\cc4FYSW7.s:667    .text.dm_client_subscribe_all:0000000000000008 .L0 
C:\Users\stapi\AppData\Local\Temp\cc4FYSW7.s:668    .text.dm_client_subscribe_all:0000000000000008 .L0 
C:\Users\stapi\AppData\Local\Temp\cc4FYSW7.s:671    .text.dm_client_subscribe_all:0000000000000008 .L0 
C:\Users\stapi\AppData\Local\Temp\cc4FYSW7.s:672    .text.dm_client_subscribe_all:0000000000000008 .L0 
C:\Users\stapi\AppData\Local\Temp\cc4FYSW7.s:673    .text.dm_client_subscribe_all:0000000000000008 .L0 
C:\Users\stapi\AppData\Local\Temp\cc4FYSW7.s:674    .text.dm_client_subscribe_all:0000000000000008 .L0 
C:\Users\stapi\AppData\Local\Temp\cc4FYSW7.s:675    .text.dm_client_subscribe_all:000000000000000a .L0 
C:\Users\stapi\AppData\Local\Temp\cc4FYSW7.s:677    .text.dm_client_subscribe_all:000000000000000a .L0 
C:\Users\stapi\AppData\Local\Temp\cc4FYSW7.s:679    .text.dm_client_subscribe_all:000000000000000c .L0 
C:\Users\stapi\AppData\Local\Temp\cc4FYSW7.s:691    .text.dm_client_subscribe_all:0000000000000022 .L0 
C:\Users\stapi\AppData\Local\Temp\cc4FYSW7.s:693    .text.dm_client_subscribe_all:0000000000000024 .L0 
C:\Users\stapi\AppData\Local\Temp\cc4FYSW7.s:694    .text.dm_client_subscribe_all:0000000000000024 .L0 
C:\Users\stapi\AppData\Local\Temp\cc4FYSW7.s:696    .text.dm_client_subscribe_all:0000000000000028 .L0 
C:\Users\stapi\AppData\Local\Temp\cc4FYSW7.s:697    .text.dm_client_subscribe_all:0000000000000028 .L0 
C:\Users\stapi\AppData\Local\Temp\cc4FYSW7.s:700    .text.dm_client_subscribe_all:0000000000000030 .L0 
C:\Users\stapi\AppData\Local\Temp\cc4FYSW7.s:701    .text.dm_client_subscribe_all:0000000000000030 .L0 
C:\Users\stapi\AppData\Local\Temp\cc4FYSW7.s:705    .text.dm_client_subscribe_all:0000000000000032 .L0 
C:\Users\stapi\AppData\Local\Temp\cc4FYSW7.s:706    .text.dm_client_subscribe_all:0000000000000032 .L0 
C:\Users\stapi\AppData\Local\Temp\cc4FYSW7.s:712    .text.dm_client_subscribe_all:0000000000000036 .L0 
C:\Users\stapi\AppData\Local\Temp\cc4FYSW7.s:717    .text.dm_client_subscribe_all:0000000000000038 .L0 
C:\Users\stapi\AppData\Local\Temp\cc4FYSW7.s:718    .text.dm_client_subscribe_all:0000000000000038 .L0 
C:\Users\stapi\AppData\Local\Temp\cc4FYSW7.s:719    .text.dm_client_subscribe_all:0000000000000038 .L0 
C:\Users\stapi\AppData\Local\Temp\cc4FYSW7.s:722    .text.dm_client_subscribe_all:000000000000003a .L0 
C:\Users\stapi\AppData\Local\Temp\cc4FYSW7.s:723    .text.dm_client_subscribe_all:000000000000003a .L0 
C:\Users\stapi\AppData\Local\Temp\cc4FYSW7.s:724    .text.dm_client_subscribe_all:000000000000003a .L0 
C:\Users\stapi\AppData\Local\Temp\cc4FYSW7.s:727    .text.dm_client_subscribe_all:0000000000000042 .L0 
C:\Users\stapi\AppData\Local\Temp\cc4FYSW7.s:728    .text.dm_client_subscribe_all:0000000000000042 .L0 
C:\Users\stapi\AppData\Local\Temp\cc4FYSW7.s:730    .text.dm_client_subscribe_all:0000000000000044 .L0 
C:\Users\stapi\AppData\Local\Temp\cc4FYSW7.s:731    .text.dm_client_subscribe_all:0000000000000044 .L0 
C:\Users\stapi\AppData\Local\Temp\cc4FYSW7.s:735    .text.dm_client_subscribe_all:000000000000004a .L0 
C:\Users\stapi\AppData\Local\Temp\cc4FYSW7.s:739    .text.dm_client_subscribe_all:000000000000004e .L0 
C:\Users\stapi\AppData\Local\Temp\cc4FYSW7.s:744    .text.dm_client_subscribe_all:0000000000000052 .L0 
C:\Users\stapi\AppData\Local\Temp\cc4FYSW7.s:745    .text.dm_client_subscribe_all:0000000000000052 .L0 
C:\Users\stapi\AppData\Local\Temp\cc4FYSW7.s:751    .text.dm_client_subscribe_all:0000000000000062 .L0 
C:\Users\stapi\AppData\Local\Temp\cc4FYSW7.s:756    .text.dm_client_subscribe_all:0000000000000068 .L0 
C:\Users\stapi\AppData\Local\Temp\cc4FYSW7.s:757    .text.dm_client_subscribe_all:0000000000000068 .L0 
C:\Users\stapi\AppData\Local\Temp\cc4FYSW7.s:765    .text.dm_client_subscribe_all:0000000000000072 .L0 
C:\Users\stapi\AppData\Local\Temp\cc4FYSW7.s:766    .text.dm_client_subscribe_all:0000000000000072 .L0 
C:\Users\stapi\AppData\Local\Temp\cc4FYSW7.s:770    .text.dm_client_subscribe_all:000000000000007c .L0 
C:\Users\stapi\AppData\Local\Temp\cc4FYSW7.s:776    .text.dm_client_subscribe_all:000000000000008a .L0 
C:\Users\stapi\AppData\Local\Temp\cc4FYSW7.s:778    .text.dm_client_subscribe_all:000000000000008e .L0 
C:\Users\stapi\AppData\Local\Temp\cc4FYSW7.s:782    .text.dm_client_subscribe_all:0000000000000090 .L0 
C:\Users\stapi\AppData\Local\Temp\cc4FYSW7.s:783    .text.dm_client_subscribe_all:0000000000000090 .L0 
C:\Users\stapi\AppData\Local\Temp\cc4FYSW7.s:786    .text.dm_client_subscribe_all:0000000000000094 .L0 
C:\Users\stapi\AppData\Local\Temp\cc4FYSW7.s:788    .text.dm_client_subscribe_all:0000000000000096 .L0 
C:\Users\stapi\AppData\Local\Temp\cc4FYSW7.s:789    .text.dm_client_subscribe_all:0000000000000096 .L0 
C:\Users\stapi\AppData\Local\Temp\cc4FYSW7.s:797    .text.dm_client_subscribe_all:00000000000000ac .L0 
C:\Users\stapi\AppData\Local\Temp\cc4FYSW7.s:798    .text.dm_client_subscribe_all:00000000000000ac .L0 
C:\Users\stapi\AppData\Local\Temp\cc4FYSW7.s:800    .text.dm_client_subscribe_all:00000000000000b0 .L0 
C:\Users\stapi\AppData\Local\Temp\cc4FYSW7.s:801    .text.dm_client_subscribe_all:00000000000000b0 .L0 
C:\Users\stapi\AppData\Local\Temp\cc4FYSW7.s:806    .text.dm_client_subscribe_all:00000000000000b8 .L0 
C:\Users\stapi\AppData\Local\Temp\cc4FYSW7.s:808    .text.dm_client_subscribe_all:00000000000000bc .L0 
C:\Users\stapi\AppData\Local\Temp\cc4FYSW7.s:809    .text.dm_client_subscribe_all:00000000000000bc .L0 
C:\Users\stapi\AppData\Local\Temp\cc4FYSW7.s:812    .text.dm_client_subscribe_all:00000000000000c4 .L0 
C:\Users\stapi\AppData\Local\Temp\cc4FYSW7.s:816    .text.dm_client_subscribe_all:00000000000000ce .L0 
C:\Users\stapi\AppData\Local\Temp\cc4FYSW7.s:819    .text.dm_client_subscribe_all:00000000000000d0 .L0 
C:\Users\stapi\AppData\Local\Temp\cc4FYSW7.s:820    .text.dm_client_subscribe_all:00000000000000d0 .L0 
C:\Users\stapi\AppData\Local\Temp\cc4FYSW7.s:821    .text.dm_client_subscribe_all:00000000000000d0 .L0 
C:\Users\stapi\AppData\Local\Temp\cc4FYSW7.s:822    .text.dm_client_subscribe_all:00000000000000d0 .L0 
C:\Users\stapi\AppData\Local\Temp\cc4FYSW7.s:825    .text.dm_client_subscribe_all:00000000000000d6 .L0 
C:\Users\stapi\AppData\Local\Temp\cc4FYSW7.s:826    .text.dm_client_subscribe_all:00000000000000d6 .L0 
C:\Users\stapi\AppData\Local\Temp\cc4FYSW7.s:828    .text.dm_client_subscribe_all:00000000000000da .L0 
C:\Users\stapi\AppData\Local\Temp\cc4FYSW7.s:830    .text.dm_client_subscribe_all:00000000000000e2 .L0 
C:\Users\stapi\AppData\Local\Temp\cc4FYSW7.s:831    .text.dm_client_subscribe_all:00000000000000e2 .L0 
C:\Users\stapi\AppData\Local\Temp\cc4FYSW7.s:832    .text.dm_client_subscribe_all:00000000000000e2 .L0 
C:\Users\stapi\AppData\Local\Temp\cc4FYSW7.s:833    .text.dm_client_subscribe_all:00000000000000e2 .L0 
C:\Users\stapi\AppData\Local\Temp\cc4FYSW7.s:834    .text.dm_client_subscribe_all:00000000000000e2 .L0 
C:\Users\stapi\AppData\Local\Temp\cc4FYSW7.s:835    .text.dm_client_subscribe_all:00000000000000e2 .L0 
C:\Users\stapi\AppData\Local\Temp\cc4FYSW7.s:836    .text.dm_client_subscribe_all:00000000000000e2 .L0 
C:\Users\stapi\AppData\Local\Temp\cc4FYSW7.s:837    .text.dm_client_subscribe_all:00000000000000e2 .L0 
C:\Users\stapi\AppData\Local\Temp\cc4FYSW7.s:857    .text.dm_client_event_handle:0000000000000000 dm_client_event_handle
C:\Users\stapi\AppData\Local\Temp\cc4FYSW7.s:860    .text.dm_client_event_handle:0000000000000000 .L0 
C:\Users\stapi\AppData\Local\Temp\cc4FYSW7.s:862    .text.dm_client_event_handle:0000000000000000 .L0 
C:\Users\stapi\AppData\Local\Temp\cc4FYSW7.s:863    .text.dm_client_event_handle:0000000000000008 .L0 
C:\Users\stapi\AppData\Local\Temp\cc4FYSW7.s:864    .text.dm_client_event_handle:0000000000000008 .L0 
C:\Users\stapi\AppData\Local\Temp\cc4FYSW7.s:866    .text.dm_client_event_handle:0000000000000008 .L0 
C:\Users\stapi\AppData\Local\Temp\cc4FYSW7.s:867    .text.dm_client_event_handle:0000000000000008 .L0 
C:\Users\stapi\AppData\Local\Temp\cc4FYSW7.s:869    .text.dm_client_event_handle:000000000000000a .L0 
C:\Users\stapi\AppData\Local\Temp\cc4FYSW7.s:875    .text.dm_client_event_handle:0000000000000012 .L0 
C:\Users\stapi\AppData\Local\Temp\cc4FYSW7.s:876    .text.dm_client_event_handle:000000000000001a .L0 
C:\Users\stapi\AppData\Local\Temp\cc4FYSW7.s:877    .text.dm_client_event_handle:000000000000001a .L0 
C:\Users\stapi\AppData\Local\Temp\cc4FYSW7.s:878    .text.dm_client_event_handle:000000000000001a .L0 
C:\Users\stapi\AppData\Local\Temp\cc4FYSW7.s:881    .text.dm_client_event_handle:000000000000001a .L0 
C:\Users\stapi\AppData\Local\Temp\cc4FYSW7.s:885    .text.dm_client_event_handle:000000000000001a .L0 
C:\Users\stapi\AppData\Local\Temp\cc4FYSW7.s:886    .text.dm_client_event_handle:000000000000001a .L0 
C:\Users\stapi\AppData\Local\Temp\cc4FYSW7.s:887    .text.dm_client_event_handle:000000000000001a .L0 
C:\Users\stapi\AppData\Local\Temp\cc4FYSW7.s:893    .text.dm_client_event_handle:000000000000002a .L0 
C:\Users\stapi\AppData\Local\Temp\cc4FYSW7.s:898    .text.dm_client_event_handle:000000000000003a .L0 
C:\Users\stapi\AppData\Local\Temp\cc4FYSW7.s:903    .text.dm_client_event_handle:000000000000004a .L0 
C:\Users\stapi\AppData\Local\Temp\cc4FYSW7.s:904    .text.dm_client_event_handle:000000000000004a .L0 
C:\Users\stapi\AppData\Local\Temp\cc4FYSW7.s:907    .text.dm_client_event_handle:0000000000000052 .L0 
C:\Users\stapi\AppData\Local\Temp\cc4FYSW7.s:915    .text.dm_client_event_handle:0000000000000054 .L0 
C:\Users\stapi\AppData\Local\Temp\cc4FYSW7.s:916    .text.dm_client_event_handle:0000000000000054 .L0 
C:\Users\stapi\AppData\Local\Temp\cc4FYSW7.s:917    .text.dm_client_event_handle:0000000000000054 .L0 
C:\Users\stapi\AppData\Local\Temp\cc4FYSW7.s:923    .text.dm_client_event_handle:0000000000000064 .L0 
C:\Users\stapi\AppData\Local\Temp\cc4FYSW7.s:928    .text.dm_client_event_handle:0000000000000074 .L0 
C:\Users\stapi\AppData\Local\Temp\cc4FYSW7.s:933    .text.dm_client_event_handle:0000000000000084 .L0 
C:\Users\stapi\AppData\Local\Temp\cc4FYSW7.s:934    .text.dm_client_event_handle:0000000000000084 .L0 
C:\Users\stapi\AppData\Local\Temp\cc4FYSW7.s:939    .text.dm_client_event_handle:000000000000008c .L0 
C:\Users\stapi\AppData\Local\Temp\cc4FYSW7.s:940    .text.dm_client_event_handle:000000000000008e .L0 
C:\Users\stapi\AppData\Local\Temp\cc4FYSW7.s:947    .text.dm_client_thing_event_notify_reply:0000000000000000 dm_client_thing_event_notify_reply
C:\Users\stapi\AppData\Local\Temp\cc4FYSW7.s:950    .text.dm_client_thing_event_notify_reply:0000000000000000 .L0 
C:\Users\stapi\AppData\Local\Temp\cc4FYSW7.s:952    .text.dm_client_thing_event_notify_reply:0000000000000000 .L0 
C:\Users\stapi\AppData\Local\Temp\cc4FYSW7.s:953    .text.dm_client_thing_event_notify_reply:0000000000000008 .L0 
C:\Users\stapi\AppData\Local\Temp\cc4FYSW7.s:954    .text.dm_client_thing_event_notify_reply:0000000000000008 .L0 
C:\Users\stapi\AppData\Local\Temp\cc4FYSW7.s:956    .text.dm_client_thing_event_notify_reply:0000000000000008 .L0 
C:\Users\stapi\AppData\Local\Temp\cc4FYSW7.s:957    .text.dm_client_thing_event_notify_reply:0000000000000008 .L0 
C:\Users\stapi\AppData\Local\Temp\cc4FYSW7.s:958    .text.dm_client_thing_event_notify_reply:0000000000000008 .L0 
C:\Users\stapi\AppData\Local\Temp\cc4FYSW7.s:959    .text.dm_client_thing_event_notify_reply:000000000000000a .L0 
C:\Users\stapi\AppData\Local\Temp\cc4FYSW7.s:961    .text.dm_client_thing_event_notify_reply:000000000000000a .L0 
C:\Users\stapi\AppData\Local\Temp\cc4FYSW7.s:964    .text.dm_client_thing_event_notify_reply:000000000000000c .L0 
C:\Users\stapi\AppData\Local\Temp\cc4FYSW7.s:966    .text.dm_client_thing_event_notify_reply:000000000000000e .L0 
C:\Users\stapi\AppData\Local\Temp\cc4FYSW7.s:968    .text.dm_client_thing_event_notify_reply:0000000000000010 .L0 
C:\Users\stapi\AppData\Local\Temp\cc4FYSW7.s:970    .text.dm_client_thing_event_notify_reply:0000000000000012 .L0 
C:\Users\stapi\AppData\Local\Temp\cc4FYSW7.s:972    .text.dm_client_thing_event_notify_reply:0000000000000014 .L0 
C:\Users\stapi\AppData\Local\Temp\cc4FYSW7.s:973    .text.dm_client_thing_event_notify_reply:0000000000000014 .L0 
C:\Users\stapi\AppData\Local\Temp\cc4FYSW7.s:974    .text.dm_client_thing_event_notify_reply:0000000000000014 .L0 
C:\Users\stapi\AppData\Local\Temp\cc4FYSW7.s:975    .text.dm_client_thing_event_notify_reply:0000000000000014 .L0 
C:\Users\stapi\AppData\Local\Temp\cc4FYSW7.s:976    .text.dm_client_thing_event_notify_reply:0000000000000014 .L0 
C:\Users\stapi\AppData\Local\Temp\cc4FYSW7.s:979    .text.dm_client_thing_event_notify_reply:000000000000001c .L0 
C:\Users\stapi\AppData\Local\Temp\cc4FYSW7.s:980    .text.dm_client_thing_event_notify_reply:000000000000001e .L0 
C:\Users\stapi\AppData\Local\Temp\cc4FYSW7.s:982    .text.dm_client_thing_event_notify_reply:0000000000000026 .L0 
C:\Users\stapi\AppData\Local\Temp\cc4FYSW7.s:983    .text.dm_client_thing_event_notify_reply:0000000000000026 .L0 
C:\Users\stapi\AppData\Local\Temp\cc4FYSW7.s:984    .text.dm_client_thing_event_notify_reply:0000000000000026 .L0 
C:\Users\stapi\AppData\Local\Temp\cc4FYSW7.s:989    .rodata.g_dm_client_uri_map:0000000000000000 .LANCHOR0
C:\Users\stapi\AppData\Local\Temp\cc4FYSW7.s:992    .rodata.g_dm_client_uri_map:0000000000000000 g_dm_client_uri_map
C:\Users\stapi\AppData\Local\Temp\cc4FYSW7.s:54     .text.dm_client_thing_model_down_raw:0000000000000026 .L0 
C:\Users\stapi\AppData\Local\Temp\cc4FYSW7.s:98     .text.dm_client_thing_model_up_raw_reply:0000000000000026 .L0 
C:\Users\stapi\AppData\Local\Temp\cc4FYSW7.s:221    .text.dm_client_thing_service_property_set:000000000000008e .L0 
C:\Users\stapi\AppData\Local\Temp\cc4FYSW7.s:265    .text.dm_client_thing_service_request:0000000000000026 .L0 
C:\Users\stapi\AppData\Local\Temp\cc4FYSW7.s:309    .text.dm_client_thing_event_post_reply:0000000000000026 .L0 
C:\Users\stapi\AppData\Local\Temp\cc4FYSW7.s:353    .text.dm_client_thing_deviceinfo_update_reply:0000000000000026 .L0 
C:\Users\stapi\AppData\Local\Temp\cc4FYSW7.s:397    .text.dm_client_thing_deviceinfo_delete_reply:0000000000000026 .L0 
C:\Users\stapi\AppData\Local\Temp\cc4FYSW7.s:516    .text.dm_client_thing_event_notify:000000000000008e .L0 
C:\Users\stapi\AppData\Local\Temp\cc4FYSW7.s:560    .text.dm_client_rrpc_request_wildcard:0000000000000026 .L0 
C:\Users\stapi\AppData\Local\Temp\cc4FYSW7.s:604    .text.dm_client_ntp_response:0000000000000026 .L0 
C:\Users\stapi\AppData\Local\Temp\cc4FYSW7.s:648    .text.dm_client_ext_error:0000000000000026 .L0 
C:\Users\stapi\AppData\Local\Temp\cc4FYSW7.s:840    .text.dm_client_subscribe_all:00000000000000e2 .L0 
C:\Users\stapi\AppData\Local\Temp\cc4FYSW7.s:943    .text.dm_client_event_handle:000000000000008e .L0 
C:\Users\stapi\AppData\Local\Temp\cc4FYSW7.s:987    .text.dm_client_thing_event_notify_reply:0000000000000026 .L0 
                     .debug_frame:0000000000000000 .L0 
C:\Users\stapi\AppData\Local\Temp\cc4FYSW7.s:100    .rodata.dm_client_thing_service_property_set.str1.4:0000000000000000 .LC0
C:\Users\stapi\AppData\Local\Temp\cc4FYSW7.s:208    .text.dm_client_thing_service_property_set:0000000000000084 .L5
C:\Users\stapi\AppData\Local\Temp\cc4FYSW7.s:503    .text.dm_client_thing_event_notify:0000000000000084 .L20
C:\Users\stapi\AppData\Local\Temp\cc4FYSW7.s:650    .rodata.dm_client_subscribe_all.str1.4:0000000000000000 .LC1
C:\Users\stapi\AppData\Local\Temp\cc4FYSW7.s:771    .text.dm_client_subscribe_all:000000000000007e .L34
C:\Users\stapi\AppData\Local\Temp\cc4FYSW7.s:762    .text.dm_client_subscribe_all:0000000000000072 .L36
C:\Users\stapi\AppData\Local\Temp\cc4FYSW7.s:754    .text.dm_client_subscribe_all:0000000000000068 .L47
C:\Users\stapi\AppData\Local\Temp\cc4FYSW7.s:737    .text.dm_client_subscribe_all:000000000000004e .L37
C:\Users\stapi\AppData\Local\Temp\cc4FYSW7.s:817    .text.dm_client_subscribe_all:00000000000000d0 .L41
C:\Users\stapi\AppData\Local\Temp\cc4FYSW7.s:780    .text.dm_client_subscribe_all:0000000000000090 .L43
C:\Users\stapi\AppData\Local\Temp\cc4FYSW7.s:842    .rodata.dm_client_event_handle.str1.4:0000000000000000 .LC2
C:\Users\stapi\AppData\Local\Temp\cc4FYSW7.s:845    .rodata.dm_client_event_handle.str1.4:0000000000000008 .LC3
C:\Users\stapi\AppData\Local\Temp\cc4FYSW7.s:848    .rodata.dm_client_event_handle.str1.4:0000000000000028 .LC4
C:\Users\stapi\AppData\Local\Temp\cc4FYSW7.s:851    .rodata.dm_client_event_handle.str1.4:000000000000002c .LC5
C:\Users\stapi\AppData\Local\Temp\cc4FYSW7.s:880    .text.dm_client_event_handle:000000000000001a .L50
C:\Users\stapi\AppData\Local\Temp\cc4FYSW7.s:909    .text.dm_client_event_handle:0000000000000054 .L51
C:\Users\stapi\AppData\Local\Temp\cc4FYSW7.s:873    .text.dm_client_event_handle:0000000000000012 .L49
C:\Users\stapi\AppData\Local\Temp\cc4FYSW7.s:3879   .debug_abbrev:0000000000000000 .Ldebug_abbrev0
C:\Users\stapi\AppData\Local\Temp\cc4FYSW7.s:5910   .debug_str:0000000000000124 .LASF322
C:\Users\stapi\AppData\Local\Temp\cc4FYSW7.s:6138   .debug_str:0000000000000d83 .LASF323
C:\Users\stapi\AppData\Local\Temp\cc4FYSW7.s:6294   .debug_str:0000000000001583 .LASF324
C:\Users\stapi\AppData\Local\Temp\cc4FYSW7.s:5844   .debug_ranges:0000000000000000 .Ldebug_ranges0
C:\Users\stapi\AppData\Local\Temp\cc4FYSW7.s:5882   .debug_line:0000000000000000 .Ldebug_line0
C:\Users\stapi\AppData\Local\Temp\cc4FYSW7.s:6022   .debug_str:00000000000007c5 .LASF0
C:\Users\stapi\AppData\Local\Temp\cc4FYSW7.s:5968   .debug_str:0000000000000513 .LASF10
C:\Users\stapi\AppData\Local\Temp\cc4FYSW7.s:6042   .debug_str:00000000000008b1 .LASF1
C:\Users\stapi\AppData\Local\Temp\cc4FYSW7.s:6422   .debug_str:0000000000001c09 .LASF2
C:\Users\stapi\AppData\Local\Temp\cc4FYSW7.s:6500   .debug_str:0000000000002021 .LASF3
C:\Users\stapi\AppData\Local\Temp\cc4FYSW7.s:5984   .debug_str:00000000000005e0 .LASF4
C:\Users\stapi\AppData\Local\Temp\cc4FYSW7.s:6178   .debug_str:0000000000001013 .LASF5
C:\Users\stapi\AppData\Local\Temp\cc4FYSW7.s:6226   .debug_str:0000000000001283 .LASF6
C:\Users\stapi\AppData\Local\Temp\cc4FYSW7.s:6342   .debug_str:0000000000001893 .LASF7
C:\Users\stapi\AppData\Local\Temp\cc4FYSW7.s:6260   .debug_str:00000000000013e0 .LASF8
C:\Users\stapi\AppData\Local\Temp\cc4FYSW7.s:6080   .debug_str:0000000000000a9a .LASF9
C:\Users\stapi\AppData\Local\Temp\cc4FYSW7.s:6024   .debug_str:00000000000007d1 .LASF11
C:\Users\stapi\AppData\Local\Temp\cc4FYSW7.s:5896   .debug_str:0000000000000076 .LASF207
C:\Users\stapi\AppData\Local\Temp\cc4FYSW7.s:6026   .debug_str:00000000000007d9 .LASF12
C:\Users\stapi\AppData\Local\Temp\cc4FYSW7.s:6240   .debug_str:0000000000001329 .LASF13
C:\Users\stapi\AppData\Local\Temp\cc4FYSW7.s:6302   .debug_str:000000000000166d .LASF14
C:\Users\stapi\AppData\Local\Temp\cc4FYSW7.s:6120   .debug_str:0000000000000c9d .LASF15
C:\Users\stapi\AppData\Local\Temp\cc4FYSW7.s:6474   .debug_str:0000000000001ec6 .LASF16
C:\Users\stapi\AppData\Local\Temp\cc4FYSW7.s:6216   .debug_str:00000000000011f2 .LASF17
C:\Users\stapi\AppData\Local\Temp\cc4FYSW7.s:5886   .debug_str:0000000000000015 .LASF18
C:\Users\stapi\AppData\Local\Temp\cc4FYSW7.s:6376   .debug_str:0000000000001a12 .LASF19
C:\Users\stapi\AppData\Local\Temp\cc4FYSW7.s:6496   .debug_str:0000000000002001 .LASF20
C:\Users\stapi\AppData\Local\Temp\cc4FYSW7.s:6394   .debug_str:0000000000001adb .LASF21
C:\Users\stapi\AppData\Local\Temp\cc4FYSW7.s:6354   .debug_str:0000000000001922 .LASF22
C:\Users\stapi\AppData\Local\Temp\cc4FYSW7.s:6092   .debug_str:0000000000000b0d .LASF23
C:\Users\stapi\AppData\Local\Temp\cc4FYSW7.s:6310   .debug_str:00000000000016e3 .LASF24
C:\Users\stapi\AppData\Local\Temp\cc4FYSW7.s:6356   .debug_str:0000000000001931 .LASF25
C:\Users\stapi\AppData\Local\Temp\cc4FYSW7.s:6176   .debug_str:0000000000000ffb .LASF26
C:\Users\stapi\AppData\Local\Temp\cc4FYSW7.s:6506   .debug_str:000000000000205b .LASF27
C:\Users\stapi\AppData\Local\Temp\cc4FYSW7.s:6228   .debug_str:0000000000001291 .LASF28
C:\Users\stapi\AppData\Local\Temp\cc4FYSW7.s:6328   .debug_str:00000000000017d2 .LASF29
C:\Users\stapi\AppData\Local\Temp\cc4FYSW7.s:6066   .debug_str:00000000000009e1 .LASF30
C:\Users\stapi\AppData\Local\Temp\cc4FYSW7.s:6396   .debug_str:0000000000001aea .LASF31
C:\Users\stapi\AppData\Local\Temp\cc4FYSW7.s:5902   .debug_str:00000000000000af .LASF32
C:\Users\stapi\AppData\Local\Temp\cc4FYSW7.s:5980   .debug_str:00000000000005a1 .LASF33
C:\Users\stapi\AppData\Local\Temp\cc4FYSW7.s:6358   .debug_str:0000000000001949 .LASF34
C:\Users\stapi\AppData\Local\Temp\cc4FYSW7.s:6058   .debug_str:0000000000000973 .LASF35
C:\Users\stapi\AppData\Local\Temp\cc4FYSW7.s:6172   .debug_str:0000000000000fd3 .LASF36
C:\Users\stapi\AppData\Local\Temp\cc4FYSW7.s:6348   .debug_str:00000000000018d7 .LASF37
C:\Users\stapi\AppData\Local\Temp\cc4FYSW7.s:5922   .debug_str:0000000000000289 .LASF38
C:\Users\stapi\AppData\Local\Temp\cc4FYSW7.s:6436   .debug_str:0000000000001cb0 .LASF39
C:\Users\stapi\AppData\Local\Temp\cc4FYSW7.s:6270   .debug_str:0000000000001448 .LASF40
C:\Users\stapi\AppData\Local\Temp\cc4FYSW7.s:6086   .debug_str:0000000000000ab6 .LASF41
C:\Users\stapi\AppData\Local\Temp\cc4FYSW7.s:5990   .debug_str:000000000000061b .LASF42
C:\Users\stapi\AppData\Local\Temp\cc4FYSW7.s:5952   .debug_str:0000000000000424 .LASF43
C:\Users\stapi\AppData\Local\Temp\cc4FYSW7.s:6326   .debug_str:00000000000017b9 .LASF44
C:\Users\stapi\AppData\Local\Temp\cc4FYSW7.s:6450   .debug_str:0000000000001d6e .LASF45
C:\Users\stapi\AppData\Local\Temp\cc4FYSW7.s:6316   .debug_str:000000000000173d .LASF46
C:\Users\stapi\AppData\Local\Temp\cc4FYSW7.s:5888   .debug_str:0000000000000024 .LASF47
C:\Users\stapi\AppData\Local\Temp\cc4FYSW7.s:5934   .debug_str:0000000000000337 .LASF48
C:\Users\stapi\AppData\Local\Temp\cc4FYSW7.s:5950   .debug_str:0000000000000405 .LASF49
C:\Users\stapi\AppData\Local\Temp\cc4FYSW7.s:6336   .debug_str:000000000000184d .LASF50
C:\Users\stapi\AppData\Local\Temp\cc4FYSW7.s:6108   .debug_str:0000000000000bd3 .LASF51
C:\Users\stapi\AppData\Local\Temp\cc4FYSW7.s:6222   .debug_str:0000000000001238 .LASF52
C:\Users\stapi\AppData\Local\Temp\cc4FYSW7.s:5996   .debug_str:000000000000066d .LASF53
C:\Users\stapi\AppData\Local\Temp\cc4FYSW7.s:6494   .debug_str:0000000000001fe5 .LASF54
C:\Users\stapi\AppData\Local\Temp\cc4FYSW7.s:6508   .debug_str:000000000000207d .LASF55
C:\Users\stapi\AppData\Local\Temp\cc4FYSW7.s:6418   .debug_str:0000000000001be7 .LASF56
C:\Users\stapi\AppData\Local\Temp\cc4FYSW7.s:6478   .debug_str:0000000000001eef .LASF57
C:\Users\stapi\AppData\Local\Temp\cc4FYSW7.s:6056   .debug_str:000000000000095a .LASF58
C:\Users\stapi\AppData\Local\Temp\cc4FYSW7.s:6110   .debug_str:0000000000000bf1 .LASF59
C:\Users\stapi\AppData\Local\Temp\cc4FYSW7.s:6288   .debug_str:0000000000001545 .LASF60
C:\Users\stapi\AppData\Local\Temp\cc4FYSW7.s:6392   .debug_str:0000000000001ac3 .LASF61
C:\Users\stapi\AppData\Local\Temp\cc4FYSW7.s:6116   .debug_str:0000000000000c57 .LASF62
C:\Users\stapi\AppData\Local\Temp\cc4FYSW7.s:6100   .debug_str:0000000000000b70 .LASF63
C:\Users\stapi\AppData\Local\Temp\cc4FYSW7.s:6362   .debug_str:000000000000197f .LASF64
C:\Users\stapi\AppData\Local\Temp\cc4FYSW7.s:6074   .debug_str:0000000000000a5a .LASF65
C:\Users\stapi\AppData\Local\Temp\cc4FYSW7.s:5946   .debug_str:00000000000003e1 .LASF66
C:\Users\stapi\AppData\Local\Temp\cc4FYSW7.s:6428   .debug_str:0000000000001c3d .LASF67
C:\Users\stapi\AppData\Local\Temp\cc4FYSW7.s:6162   .debug_str:0000000000000f4c .LASF68
C:\Users\stapi\AppData\Local\Temp\cc4FYSW7.s:6158   .debug_str:0000000000000f0e .LASF69
C:\Users\stapi\AppData\Local\Temp\cc4FYSW7.s:6064   .debug_str:00000000000009c1 .LASF70
C:\Users\stapi\AppData\Local\Temp\cc4FYSW7.s:6404   .debug_str:0000000000001b38 .LASF71
C:\Users\stapi\AppData\Local\Temp\cc4FYSW7.s:6426   .debug_str:0000000000001c1e .LASF72
C:\Users\stapi\AppData\Local\Temp\cc4FYSW7.s:6406   .debug_str:0000000000001b52 .LASF73
C:\Users\stapi\AppData\Local\Temp\cc4FYSW7.s:6020   .debug_str:00000000000007ad .LASF74
C:\Users\stapi\AppData\Local\Temp\cc4FYSW7.s:6484   .debug_str:0000000000001f4b .LASF75
C:\Users\stapi\AppData\Local\Temp\cc4FYSW7.s:6482   .debug_str:0000000000001f2e .LASF76
C:\Users\stapi\AppData\Local\Temp\cc4FYSW7.s:6456   .debug_str:0000000000001dba .LASF77
C:\Users\stapi\AppData\Local\Temp\cc4FYSW7.s:6492   .debug_str:0000000000001fc5 .LASF78
C:\Users\stapi\AppData\Local\Temp\cc4FYSW7.s:6246   .debug_str:000000000000134f .LASF79
C:\Users\stapi\AppData\Local\Temp\cc4FYSW7.s:6250   .debug_str:0000000000001386 .LASF80
C:\Users\stapi\AppData\Local\Temp\cc4FYSW7.s:6130   .debug_str:0000000000000d0f .LASF81
C:\Users\stapi\AppData\Local\Temp\cc4FYSW7.s:5904   .debug_str:00000000000000cf .LASF82
C:\Users\stapi\AppData\Local\Temp\cc4FYSW7.s:6448   .debug_str:0000000000001d52 .LASF83
C:\Users\stapi\AppData\Local\Temp\cc4FYSW7.s:6312   .debug_str:0000000000001701 .LASF84
C:\Users\stapi\AppData\Local\Temp\cc4FYSW7.s:6160   .debug_str:0000000000000f2c .LASF85
C:\Users\stapi\AppData\Local\Temp\cc4FYSW7.s:6156   .debug_str:0000000000000eef .LASF86
C:\Users\stapi\AppData\Local\Temp\cc4FYSW7.s:6234   .debug_str:00000000000012ee .LASF87
C:\Users\stapi\AppData\Local\Temp\cc4FYSW7.s:5928   .debug_str:00000000000002d8 .LASF88
C:\Users\stapi\AppData\Local\Temp\cc4FYSW7.s:6488   .debug_str:0000000000001f8d .LASF89
C:\Users\stapi\AppData\Local\Temp\cc4FYSW7.s:5986   .debug_str:00000000000005e9 .LASF90
C:\Users\stapi\AppData\Local\Temp\cc4FYSW7.s:6290   .debug_str:0000000000001560 .LASF91
C:\Users\stapi\AppData\Local\Temp\cc4FYSW7.s:6468   .debug_str:0000000000001e81 .LASF92
C:\Users\stapi\AppData\Local\Temp\cc4FYSW7.s:5916   .debug_str:0000000000000230 .LASF93
C:\Users\stapi\AppData\Local\Temp\cc4FYSW7.s:6452   .debug_str:0000000000001d8c .LASF94
C:\Users\stapi\AppData\Local\Temp\cc4FYSW7.s:6490   .debug_str:0000000000001fa7 .LASF95
C:\Users\stapi\AppData\Local\Temp\cc4FYSW7.s:5894   .debug_str:000000000000005c .LASF96
C:\Users\stapi\AppData\Local\Temp\cc4FYSW7.s:6214   .debug_str:00000000000011da .LASF97
C:\Users\stapi\AppData\Local\Temp\cc4FYSW7.s:5994   .debug_str:000000000000064c .LASF98
C:\Users\stapi\AppData\Local\Temp\cc4FYSW7.s:6538   .debug_str:00000000000021e4 .LASF99
C:\Users\stapi\AppData\Local\Temp\cc4FYSW7.s:6002   .debug_str:00000000000006b1 .LASF100
C:\Users\stapi\AppData\Local\Temp\cc4FYSW7.s:6320   .debug_str:0000000000001770 .LASF101
C:\Users\stapi\AppData\Local\Temp\cc4FYSW7.s:6530   .debug_str:0000000000002175 .LASF102
C:\Users\stapi\AppData\Local\Temp\cc4FYSW7.s:6524   .debug_str:0000000000002119 .LASF103
C:\Users\stapi\AppData\Local\Temp\cc4FYSW7.s:5988   .debug_str:0000000000000602 .LASF104
C:\Users\stapi\AppData\Local\Temp\cc4FYSW7.s:6248   .debug_str:000000000000136e .LASF105
C:\Users\stapi\AppData\Local\Temp\cc4FYSW7.s:6152   .debug_str:0000000000000eb8 .LASF106
C:\Users\stapi\AppData\Local\Temp\cc4FYSW7.s:5976   .debug_str:0000000000000571 .LASF107
C:\Users\stapi\AppData\Local\Temp\cc4FYSW7.s:6078   .debug_str:0000000000000a7c .LASF108
C:\Users\stapi\AppData\Local\Temp\cc4FYSW7.s:5958   .debug_str:0000000000000489 .LASF109
C:\Users\stapi\AppData\Local\Temp\cc4FYSW7.s:6000   .debug_str:0000000000000699 .LASF110
C:\Users\stapi\AppData\Local\Temp\cc4FYSW7.s:6472   .debug_str:0000000000001eb2 .LASF111
C:\Users\stapi\AppData\Local\Temp\cc4FYSW7.s:5924   .debug_str:00000000000002a7 .LASF112
C:\Users\stapi\AppData\Local\Temp\cc4FYSW7.s:5890   .debug_str:000000000000003b .LASF113
C:\Users\stapi\AppData\Local\Temp\cc4FYSW7.s:6014   .debug_str:0000000000000775 .LASF114
C:\Users\stapi\AppData\Local\Temp\cc4FYSW7.s:6476   .debug_str:0000000000001ed7 .LASF115
C:\Users\stapi\AppData\Local\Temp\cc4FYSW7.s:5978   .debug_str:0000000000000589 .LASF116
C:\Users\stapi\AppData\Local\Temp\cc4FYSW7.s:6146   .debug_str:0000000000000e74 .LASF117
C:\Users\stapi\AppData\Local\Temp\cc4FYSW7.s:5908   .debug_str:000000000000010e .LASF118
C:\Users\stapi\AppData\Local\Temp\cc4FYSW7.s:6008   .debug_str:000000000000070a .LASF119
C:\Users\stapi\AppData\Local\Temp\cc4FYSW7.s:6432   .debug_str:0000000000001c7e .LASF120
C:\Users\stapi\AppData\Local\Temp\cc4FYSW7.s:6114   .debug_str:0000000000000c2f .LASF121
C:\Users\stapi\AppData\Local\Temp\cc4FYSW7.s:6464   .debug_str:0000000000001e3e .LASF122
C:\Users\stapi\AppData\Local\Temp\cc4FYSW7.s:6090   .debug_str:0000000000000af5 .LASF123
C:\Users\stapi\AppData\Local\Temp\cc4FYSW7.s:6466   .debug_str:0000000000001e66 .LASF124
C:\Users\stapi\AppData\Local\Temp\cc4FYSW7.s:6140   .debug_str:0000000000000e27 .LASF125
C:\Users\stapi\AppData\Local\Temp\cc4FYSW7.s:6060   .debug_str:000000000000098c .LASF126
C:\Users\stapi\AppData\Local\Temp\cc4FYSW7.s:5954   .debug_str:000000000000043f .LASF127
C:\Users\stapi\AppData\Local\Temp\cc4FYSW7.s:6220   .debug_str:0000000000001220 .LASF128
C:\Users\stapi\AppData\Local\Temp\cc4FYSW7.s:6314   .debug_str:000000000000171d .LASF129
C:\Users\stapi\AppData\Local\Temp\cc4FYSW7.s:6104   .debug_str:0000000000000bb1 .LASF130
C:\Users\stapi\AppData\Local\Temp\cc4FYSW7.s:6330   .debug_str:0000000000001803 .LASF131
C:\Users\stapi\AppData\Local\Temp\cc4FYSW7.s:6070   .debug_str:0000000000000a22 .LASF132
C:\Users\stapi\AppData\Local\Temp\cc4FYSW7.s:6306   .debug_str:000000000000169f .LASF133
C:\Users\stapi\AppData\Local\Temp\cc4FYSW7.s:5982   .debug_str:00000000000005c3 .LASF134
C:\Users\stapi\AppData\Local\Temp\cc4FYSW7.s:5964   .debug_str:00000000000004ce .LASF135
C:\Users\stapi\AppData\Local\Temp\cc4FYSW7.s:6132   .debug_str:0000000000000d30 .LASF136
C:\Users\stapi\AppData\Local\Temp\cc4FYSW7.s:6184   .debug_str:000000000000105c .LASF137
C:\Users\stapi\AppData\Local\Temp\cc4FYSW7.s:6470   .debug_str:0000000000001e9b .LASF138
C:\Users\stapi\AppData\Local\Temp\cc4FYSW7.s:6518   .debug_str:00000000000020da .LASF139
C:\Users\stapi\AppData\Local\Temp\cc4FYSW7.s:6238   .debug_str:0000000000001309 .LASF140
C:\Users\stapi\AppData\Local\Temp\cc4FYSW7.s:6006   .debug_str:00000000000006e9 .LASF141
C:\Users\stapi\AppData\Local\Temp\cc4FYSW7.s:6142   .debug_str:0000000000000e48 .LASF142
C:\Users\stapi\AppData\Local\Temp\cc4FYSW7.s:6366   .debug_str:000000000000199f .LASF143
C:\Users\stapi\AppData\Local\Temp\cc4FYSW7.s:5938   .debug_str:0000000000000367 .LASF144
C:\Users\stapi\AppData\Local\Temp\cc4FYSW7.s:6514   .debug_str:00000000000020b3 .LASF145
C:\Users\stapi\AppData\Local\Temp\cc4FYSW7.s:6444   .debug_str:0000000000001d10 .LASF146
C:\Users\stapi\AppData\Local\Temp\cc4FYSW7.s:6112   .debug_str:0000000000000c0b .LASF147
C:\Users\stapi\AppData\Local\Temp\cc4FYSW7.s:6034   .debug_str:0000000000000846 .LASF148
C:\Users\stapi\AppData\Local\Temp\cc4FYSW7.s:6462   .debug_str:0000000000001e1a .LASF149
C:\Users\stapi\AppData\Local\Temp\cc4FYSW7.s:6150   .debug_str:0000000000000e97 .LASF150
C:\Users\stapi\AppData\Local\Temp\cc4FYSW7.s:6202   .debug_str:0000000000001116 .LASF151
C:\Users\stapi\AppData\Local\Temp\cc4FYSW7.s:6232   .debug_str:00000000000012ce .LASF152
C:\Users\stapi\AppData\Local\Temp\cc4FYSW7.s:5930   .debug_str:00000000000002ef .LASF153
C:\Users\stapi\AppData\Local\Temp\cc4FYSW7.s:6446   .debug_str:0000000000001d31 .LASF154
C:\Users\stapi\AppData\Local\Temp\cc4FYSW7.s:6534   .debug_str:00000000000021af .LASF155
C:\Users\stapi\AppData\Local\Temp\cc4FYSW7.s:6088   .debug_str:0000000000000ad2 .LASF156
C:\Users\stapi\AppData\Local\Temp\cc4FYSW7.s:6168   .debug_str:0000000000000f90 .LASF157
C:\Users\stapi\AppData\Local\Temp\cc4FYSW7.s:5920   .debug_str:0000000000000266 .LASF158
C:\Users\stapi\AppData\Local\Temp\cc4FYSW7.s:6262   .debug_str:00000000000013ed .LASF159
C:\Users\stapi\AppData\Local\Temp\cc4FYSW7.s:6344   .debug_str:00000000000018aa .LASF160
C:\Users\stapi\AppData\Local\Temp\cc4FYSW7.s:6532   .debug_str:0000000000002194 .LASF161
C:\Users\stapi\AppData\Local\Temp\cc4FYSW7.s:6388   .debug_str:0000000000001a7c .LASF162
C:\Users\stapi\AppData\Local\Temp\cc4FYSW7.s:6048   .debug_str:00000000000008f8 .LASF163
C:\Users\stapi\AppData\Local\Temp\cc4FYSW7.s:6124   .debug_str:0000000000000cd9 .LASF164
C:\Users\stapi\AppData\Local\Temp\cc4FYSW7.s:6408   .debug_str:0000000000001b67 .LASF165
C:\Users\stapi\AppData\Local\Temp\cc4FYSW7.s:6200   .debug_str:00000000000010fa .LASF166
C:\Users\stapi\AppData\Local\Temp\cc4FYSW7.s:6286   .debug_str:0000000000001522 .LASF167
C:\Users\stapi\AppData\Local\Temp\cc4FYSW7.s:6118   .debug_str:0000000000000c77 .LASF168
C:\Users\stapi\AppData\Local\Temp\cc4FYSW7.s:6360   .debug_str:000000000000195c .LASF169
C:\Users\stapi\AppData\Local\Temp\cc4FYSW7.s:6352   .debug_str:000000000000190c .LASF170
C:\Users\stapi\AppData\Local\Temp\cc4FYSW7.s:6438   .debug_str:0000000000001ccb .LASF171
C:\Users\stapi\AppData\Local\Temp\cc4FYSW7.s:6004   .debug_str:00000000000006cc .LASF172
C:\Users\stapi\AppData\Local\Temp\cc4FYSW7.s:6180   .debug_str:0000000000001025 .LASF173
C:\Users\stapi\AppData\Local\Temp\cc4FYSW7.s:6458   .debug_str:0000000000001ddd .LASF174
C:\Users\stapi\AppData\Local\Temp\cc4FYSW7.s:6136   .debug_str:0000000000000d65 .LASF175
C:\Users\stapi\AppData\Local\Temp\cc4FYSW7.s:6540   .debug_str:0000000000002205 .LASF176
C:\Users\stapi\AppData\Local\Temp\cc4FYSW7.s:6072   .debug_str:0000000000000a3d .LASF177
C:\Users\stapi\AppData\Local\Temp\cc4FYSW7.s:5914   .debug_str:0000000000000213 .LASF178
C:\Users\stapi\AppData\Local\Temp\cc4FYSW7.s:6190   .debug_str:00000000000010a3 .LASF179
C:\Users\stapi\AppData\Local\Temp\cc4FYSW7.s:6068   .debug_str:0000000000000a08 .LASF180
C:\Users\stapi\AppData\Local\Temp\cc4FYSW7.s:6018   .debug_str:00000000000007a0 .LASF181
C:\Users\stapi\AppData\Local\Temp\cc4FYSW7.s:6526   .debug_str:000000000000212f .LASF182
C:\Users\stapi\AppData\Local\Temp\cc4FYSW7.s:6386   .debug_str:0000000000001a49 .LASF183
C:\Users\stapi\AppData\Local\Temp\cc4FYSW7.s:5940   .debug_str:0000000000000386 .LASF184
C:\Users\stapi\AppData\Local\Temp\cc4FYSW7.s:6528   .debug_str:0000000000002143 .LASF185
C:\Users\stapi\AppData\Local\Temp\cc4FYSW7.s:6384   .debug_str:0000000000001a38 .LASF186
C:\Users\stapi\AppData\Local\Temp\cc4FYSW7.s:6264   .debug_str:000000000000140d .LASF187
C:\Users\stapi\AppData\Local\Temp\cc4FYSW7.s:6212   .debug_str:00000000000011c9 .LASF188
C:\Users\stapi\AppData\Local\Temp\cc4FYSW7.s:5926   .debug_str:00000000000002c7 .LASF189
C:\Users\stapi\AppData\Local\Temp\cc4FYSW7.s:6084   .debug_str:0000000000000aa6 .LASF190
C:\Users\stapi\AppData\Local\Temp\cc4FYSW7.s:6498   .debug_str:0000000000002010 .LASF191
C:\Users\stapi\AppData\Local\Temp\cc4FYSW7.s:6274   .debug_str:000000000000146c .LASF192
C:\Users\stapi\AppData\Local\Temp\cc4FYSW7.s:6174   .debug_str:0000000000000fea .LASF193
C:\Users\stapi\AppData\Local\Temp\cc4FYSW7.s:6510   .debug_str:0000000000002094 .LASF194
C:\Users\stapi\AppData\Local\Temp\cc4FYSW7.s:6400   .debug_str:0000000000001b20 .LASF195
C:\Users\stapi\AppData\Local\Temp\cc4FYSW7.s:6516   .debug_str:00000000000020c9 .LASF196
C:\Users\stapi\AppData\Local\Temp\cc4FYSW7.s:6256   .debug_str:00000000000013b4 .LASF197
C:\Users\stapi\AppData\Local\Temp\cc4FYSW7.s:6188   .debug_str:0000000000001094 .LASF198
C:\Users\stapi\AppData\Local\Temp\cc4FYSW7.s:6126   .debug_str:0000000000000ced .LASF325
C:\Users\stapi\AppData\Local\Temp\cc4FYSW7.s:5948   .debug_str:0000000000000400 .LASF199
C:\Users\stapi\AppData\Local\Temp\cc4FYSW7.s:6076   .debug_str:0000000000000a76 .LASF200
C:\Users\stapi\AppData\Local\Temp\cc4FYSW7.s:6442   .debug_str:0000000000001d03 .LASF201
C:\Users\stapi\AppData\Local\Temp\cc4FYSW7.s:6340   .debug_str:000000000000188e .LASF202
C:\Users\stapi\AppData\Local\Temp\cc4FYSW7.s:6322   .debug_str:0000000000001792 .LASF203
C:\Users\stapi\AppData\Local\Temp\cc4FYSW7.s:6254   .debug_str:00000000000013aa .LASF204
C:\Users\stapi\AppData\Local\Temp\cc4FYSW7.s:6236   .debug_str:0000000000001302 .LASF205
C:\Users\stapi\AppData\Local\Temp\cc4FYSW7.s:6268   .debug_str:000000000000143b .LASF206
C:\Users\stapi\AppData\Local\Temp\cc4FYSW7.s:6046   .debug_str:00000000000008e4 .LASF208
C:\Users\stapi\AppData\Local\Temp\cc4FYSW7.s:5900   .debug_str:0000000000000091 .LASF209
C:\Users\stapi\AppData\Local\Temp\cc4FYSW7.s:5972   .debug_str:000000000000052f .LASF210
C:\Users\stapi\AppData\Local\Temp\cc4FYSW7.s:5974   .debug_str:0000000000000552 .LASF211
C:\Users\stapi\AppData\Local\Temp\cc4FYSW7.s:6196   .debug_str:00000000000010d3 .LASF212
C:\Users\stapi\AppData\Local\Temp\cc4FYSW7.s:5962   .debug_str:00000000000004b0 .LASF213
C:\Users\stapi\AppData\Local\Temp\cc4FYSW7.s:6218   .debug_str:0000000000001204 .LASF214
C:\Users\stapi\AppData\Local\Temp\cc4FYSW7.s:6350   .debug_str:00000000000018f1 .LASF215
C:\Users\stapi\AppData\Local\Temp\cc4FYSW7.s:6134   .debug_str:0000000000000d47 .LASF216
C:\Users\stapi\AppData\Local\Temp\cc4FYSW7.s:6430   .debug_str:0000000000001c61 .LASF217
C:\Users\stapi\AppData\Local\Temp\cc4FYSW7.s:6522   .debug_str:0000000000002107 .LASF218
C:\Users\stapi\AppData\Local\Temp\cc4FYSW7.s:6154   .debug_str:0000000000000ed9 .LASF219
C:\Users\stapi\AppData\Local\Temp\cc4FYSW7.s:6280   .debug_str:00000000000014ce .LASF220
C:\Users\stapi\AppData\Local\Temp\cc4FYSW7.s:5906   .debug_str:00000000000000f7 .LASF221
C:\Users\stapi\AppData\Local\Temp\cc4FYSW7.s:5932   .debug_str:0000000000000311 .LASF222
C:\Users\stapi\AppData\Local\Temp\cc4FYSW7.s:6480   .debug_str:0000000000001f0b .LASF223
C:\Users\stapi\AppData\Local\Temp\cc4FYSW7.s:6370   .debug_str:00000000000019d6 .LASF224
C:\Users\stapi\AppData\Local\Temp\cc4FYSW7.s:6122   .debug_str:0000000000000cb6 .LASF225
C:\Users\stapi\AppData\Local\Temp\cc4FYSW7.s:6318   .debug_str:0000000000001757 .LASF226
C:\Users\stapi\AppData\Local\Temp\cc4FYSW7.s:6164   .debug_str:0000000000000f6b .LASF227
C:\Users\stapi\AppData\Local\Temp\cc4FYSW7.s:6102   .debug_str:0000000000000b8b .LASF228
C:\Users\stapi\AppData\Local\Temp\cc4FYSW7.s:6334   .debug_str:000000000000182b .LASF229
C:\Users\stapi\AppData\Local\Temp\cc4FYSW7.s:6298   .debug_str:000000000000162b .LASF230
C:\Users\stapi\AppData\Local\Temp\cc4FYSW7.s:6266   .debug_str:0000000000001422 .LASF231
C:\Users\stapi\AppData\Local\Temp\cc4FYSW7.s:5884   .debug_str:0000000000000000 .LASF232
C:\Users\stapi\AppData\Local\Temp\cc4FYSW7.s:5936   .debug_str:0000000000000355 .LASF233
C:\Users\stapi\AppData\Local\Temp\cc4FYSW7.s:5970   .debug_str:000000000000051d .LASF234
C:\Users\stapi\AppData\Local\Temp\cc4FYSW7.s:6016   .debug_str:0000000000000790 .LASF235
C:\Users\stapi\AppData\Local\Temp\cc4FYSW7.s:6198   .debug_str:00000000000010f2 .LASF236
C:\Users\stapi\AppData\Local\Temp\cc4FYSW7.s:6194   .debug_str:00000000000010c7 .LASF237
C:\Users\stapi\AppData\Local\Temp\cc4FYSW7.s:6038   .debug_str:0000000000000881 .LASF238
C:\Users\stapi\AppData\Local\Temp\cc4FYSW7.s:6398   .debug_str:0000000000001b10 .LASF239
C:\Users\stapi\AppData\Local\Temp\cc4FYSW7.s:6292   .debug_str:000000000000157a .LASF240
C:\Users\stapi\AppData\Local\Temp\cc4FYSW7.s:6412   .debug_str:0000000000001bad .LASF241
C:\Users\stapi\AppData\Local\Temp\cc4FYSW7.s:6364   .debug_str:0000000000001997 .LASF242
C:\Users\stapi\AppData\Local\Temp\cc4FYSW7.s:6244   .debug_str:0000000000001348 .LASF243
C:\Users\stapi\AppData\Local\Temp\cc4FYSW7.s:6346   .debug_str:00000000000018d0 .LASF244
C:\Users\stapi\AppData\Local\Temp\cc4FYSW7.s:6542   .debug_str:000000000000222b .LASF245
C:\Users\stapi\AppData\Local\Temp\cc4FYSW7.s:6182   .debug_str:000000000000104d .LASF246
C:\Users\stapi\AppData\Local\Temp\cc4FYSW7.s:6242   .debug_str:000000000000133b .LASF247
C:\Users\stapi\AppData\Local\Temp\cc4FYSW7.s:6098   .debug_str:0000000000000b64 .LASF248
C:\Users\stapi\AppData\Local\Temp\cc4FYSW7.s:6028   .debug_str:00000000000007f0 .LASF249
C:\Users\stapi\AppData\Local\Temp\cc4FYSW7.s:6380   .debug_str:0000000000001a2c .LASF250
C:\Users\stapi\AppData\Local\Temp\cc4FYSW7.s:6144   .debug_str:0000000000000e62 .LASF251
C:\Users\stapi\AppData\Local\Temp\cc4FYSW7.s:5944   .debug_str:00000000000003cf .LASF252
C:\Users\stapi\AppData\Local\Temp\cc4FYSW7.s:6520   .debug_str:00000000000020f1 .LASF253
C:\Users\stapi\AppData\Local\Temp\cc4FYSW7.s:6036   .debug_str:0000000000000869 .LASF254
C:\Users\stapi\AppData\Local\Temp\cc4FYSW7.s:6460   .debug_str:0000000000001dfe .LASF255
C:\Users\stapi\AppData\Local\Temp\cc4FYSW7.s:6204   .debug_str:0000000000001138 .LASF256
C:\Users\stapi\AppData\Local\Temp\cc4FYSW7.s:6170   .debug_str:0000000000000fb1 .LASF257
C:\Users\stapi\AppData\Local\Temp\cc4FYSW7.s:6040   .debug_str:0000000000000889 .LASF258
C:\Users\stapi\AppData\Local\Temp\cc4FYSW7.s:6010   .debug_str:0000000000000727 .LASF259
C:\Users\stapi\AppData\Local\Temp\cc4FYSW7.s:5966   .debug_str:00000000000004ec .LASF260
C:\Users\stapi\AppData\Local\Temp\cc4FYSW7.s:6032   .debug_str:0000000000000821 .LASF261
C:\Users\stapi\AppData\Local\Temp\cc4FYSW7.s:6030   .debug_str:00000000000007fc .LASF262
C:\Users\stapi\AppData\Local\Temp\cc4FYSW7.s:6208   .debug_str:0000000000001182 .LASF263
C:\Users\stapi\AppData\Local\Temp\cc4FYSW7.s:6128   .debug_str:0000000000000cfb .LASF264
C:\Users\stapi\AppData\Local\Temp\cc4FYSW7.s:6324   .debug_str:000000000000179f .LASF265
C:\Users\stapi\AppData\Local\Temp\cc4FYSW7.s:6440   .debug_str:0000000000001ce3 .LASF266
C:\Users\stapi\AppData\Local\Temp\cc4FYSW7.s:6050   .debug_str:0000000000000917 .LASF267
C:\Users\stapi\AppData\Local\Temp\cc4FYSW7.s:6378   .debug_str:0000000000001a23 .LASF268
C:\Users\stapi\AppData\Local\Temp\cc4FYSW7.s:5960   .debug_str:00000000000004a7 .LASF269
C:\Users\stapi\AppData\Local\Temp\cc4FYSW7.s:6372   .debug_str:00000000000019f9 .LASF270
C:\Users\stapi\AppData\Local\Temp\cc4FYSW7.s:6434   .debug_str:0000000000001c9c .LASF272
C:\Users\stapi\AppData\Local\Temp\cc4FYSW7.s:6536   .debug_str:00000000000021d0 .LASF274
C:\Users\stapi\AppData\Local\Temp\cc4FYSW7.s:609    .text.dm_client_ext_error:0000000000000000 .LFB36
C:\Users\stapi\AppData\Local\Temp\cc4FYSW7.s:646    .text.dm_client_ext_error:0000000000000026 .LFE36
C:\Users\stapi\AppData\Local\Temp\cc4FYSW7.s:4704   .debug_loc:0000000000000000 .LLST52
C:\Users\stapi\AppData\Local\Temp\cc4FYSW7.s:6402   .debug_str:0000000000001b32 .LASF271
C:\Users\stapi\AppData\Local\Temp\cc4FYSW7.s:4718   .debug_loc:0000000000000021 .LLST53
C:\Users\stapi\AppData\Local\Temp\cc4FYSW7.s:4732   .debug_loc:0000000000000042 .LLST54
C:\Users\stapi\AppData\Local\Temp\cc4FYSW7.s:4746   .debug_loc:0000000000000063 .LLST55
C:\Users\stapi\AppData\Local\Temp\cc4FYSW7.s:4760   .debug_loc:0000000000000084 .LLST56
C:\Users\stapi\AppData\Local\Temp\cc4FYSW7.s:6106   .debug_str:0000000000000bcc .LASF273
C:\Users\stapi\AppData\Local\Temp\cc4FYSW7.s:638    .text.dm_client_ext_error:000000000000001c .LVL50
C:\Users\stapi\AppData\Local\Temp\cc4FYSW7.s:6296   .debug_str:0000000000001614 .LASF275
C:\Users\stapi\AppData\Local\Temp\cc4FYSW7.s:565    .text.dm_client_ntp_response:0000000000000000 .LFB35
C:\Users\stapi\AppData\Local\Temp\cc4FYSW7.s:602    .text.dm_client_ntp_response:0000000000000026 .LFE35
C:\Users\stapi\AppData\Local\Temp\cc4FYSW7.s:4774   .debug_loc:00000000000000a5 .LLST47
C:\Users\stapi\AppData\Local\Temp\cc4FYSW7.s:4788   .debug_loc:00000000000000c6 .LLST48
C:\Users\stapi\AppData\Local\Temp\cc4FYSW7.s:4802   .debug_loc:00000000000000e7 .LLST49
C:\Users\stapi\AppData\Local\Temp\cc4FYSW7.s:4816   .debug_loc:0000000000000108 .LLST50
C:\Users\stapi\AppData\Local\Temp\cc4FYSW7.s:4830   .debug_loc:0000000000000129 .LLST51
C:\Users\stapi\AppData\Local\Temp\cc4FYSW7.s:594    .text.dm_client_ntp_response:000000000000001c .LVL47
C:\Users\stapi\AppData\Local\Temp\cc4FYSW7.s:6258   .debug_str:00000000000013c0 .LASF276
C:\Users\stapi\AppData\Local\Temp\cc4FYSW7.s:521    .text.dm_client_rrpc_request_wildcard:0000000000000000 .LFB34
C:\Users\stapi\AppData\Local\Temp\cc4FYSW7.s:558    .text.dm_client_rrpc_request_wildcard:0000000000000026 .LFE34
C:\Users\stapi\AppData\Local\Temp\cc4FYSW7.s:4844   .debug_loc:000000000000014a .LLST42
C:\Users\stapi\AppData\Local\Temp\cc4FYSW7.s:4858   .debug_loc:000000000000016b .LLST43
C:\Users\stapi\AppData\Local\Temp\cc4FYSW7.s:4872   .debug_loc:000000000000018c .LLST44
C:\Users\stapi\AppData\Local\Temp\cc4FYSW7.s:4886   .debug_loc:00000000000001ad .LLST45
C:\Users\stapi\AppData\Local\Temp\cc4FYSW7.s:4900   .debug_loc:00000000000001ce .LLST46
C:\Users\stapi\AppData\Local\Temp\cc4FYSW7.s:550    .text.dm_client_rrpc_request_wildcard:000000000000001c .LVL44
C:\Users\stapi\AppData\Local\Temp\cc4FYSW7.s:6390   .debug_str:0000000000001aa6 .LASF277
C:\Users\stapi\AppData\Local\Temp\cc4FYSW7.s:402    .text.dm_client_thing_event_notify:0000000000000000 .LFB33
C:\Users\stapi\AppData\Local\Temp\cc4FYSW7.s:514    .text.dm_client_thing_event_notify:000000000000008e .LFE33
C:\Users\stapi\AppData\Local\Temp\cc4FYSW7.s:4914   .debug_loc:00000000000001ef .LLST36
C:\Users\stapi\AppData\Local\Temp\cc4FYSW7.s:4928   .debug_loc:0000000000000210 .LLST37
C:\Users\stapi\AppData\Local\Temp\cc4FYSW7.s:4939   .debug_loc:000000000000022e .LLST38
C:\Users\stapi\AppData\Local\Temp\cc4FYSW7.s:4950   .debug_loc:000000000000024c .LLST39
C:\Users\stapi\AppData\Local\Temp\cc4FYSW7.s:4961   .debug_loc:000000000000026a .LLST40
C:\Users\stapi\AppData\Local\Temp\cc4FYSW7.s:4975   .debug_loc:000000000000028b .LLST41
C:\Users\stapi\AppData\Local\Temp\cc4FYSW7.s:6374   .debug_str:0000000000001a0d .LASF278
C:\Users\stapi\AppData\Local\Temp\cc4FYSW7.s:5912   .debug_str:000000000000020b .LASF279
C:\Users\stapi\AppData\Local\Temp\cc4FYSW7.s:5892   .debug_str:0000000000000053 .LASF280
C:\Users\stapi\AppData\Local\Temp\cc4FYSW7.s:5918   .debug_str:000000000000024f .LASF281
C:\Users\stapi\AppData\Local\Temp\cc4FYSW7.s:439    .text.dm_client_thing_event_notify:0000000000000022 .LVL35
C:\Users\stapi\AppData\Local\Temp\cc4FYSW7.s:445    .text.dm_client_thing_event_notify:0000000000000032 .LVL36
C:\Users\stapi\AppData\Local\Temp\cc4FYSW7.s:470    .text.dm_client_thing_event_notify:0000000000000052 .LVL37
C:\Users\stapi\AppData\Local\Temp\cc4FYSW7.s:484    .text.dm_client_thing_event_notify:0000000000000064 .LVL39
C:\Users\stapi\AppData\Local\Temp\cc4FYSW7.s:502    .text.dm_client_thing_event_notify:0000000000000084 .LVL41
C:\Users\stapi\AppData\Local\Temp\cc4FYSW7.s:5956   .debug_str:0000000000000466 .LASF282
C:\Users\stapi\AppData\Local\Temp\cc4FYSW7.s:948    .text.dm_client_thing_event_notify_reply:0000000000000000 .LFB32
C:\Users\stapi\AppData\Local\Temp\cc4FYSW7.s:985    .text.dm_client_thing_event_notify_reply:0000000000000026 .LFE32
C:\Users\stapi\AppData\Local\Temp\cc4FYSW7.s:4991   .debug_loc:00000000000002b5 .LLST69
C:\Users\stapi\AppData\Local\Temp\cc4FYSW7.s:5005   .debug_loc:00000000000002d6 .LLST70
C:\Users\stapi\AppData\Local\Temp\cc4FYSW7.s:5019   .debug_loc:00000000000002f7 .LLST71
C:\Users\stapi\AppData\Local\Temp\cc4FYSW7.s:5033   .debug_loc:0000000000000318 .LLST72
C:\Users\stapi\AppData\Local\Temp\cc4FYSW7.s:5047   .debug_loc:0000000000000339 .LLST73
C:\Users\stapi\AppData\Local\Temp\cc4FYSW7.s:977    .text.dm_client_thing_event_notify_reply:000000000000001c .LVL91
C:\Users\stapi\AppData\Local\Temp\cc4FYSW7.s:6284   .debug_str:00000000000014fa .LASF283
C:\Users\stapi\AppData\Local\Temp\cc4FYSW7.s:358    .text.dm_client_thing_deviceinfo_delete_reply:0000000000000000 .LFB31
C:\Users\stapi\AppData\Local\Temp\cc4FYSW7.s:395    .text.dm_client_thing_deviceinfo_delete_reply:0000000000000026 .LFE31
C:\Users\stapi\AppData\Local\Temp\cc4FYSW7.s:5061   .debug_loc:000000000000035a .LLST31
C:\Users\stapi\AppData\Local\Temp\cc4FYSW7.s:5075   .debug_loc:000000000000037b .LLST32
C:\Users\stapi\AppData\Local\Temp\cc4FYSW7.s:5089   .debug_loc:000000000000039c .LLST33
C:\Users\stapi\AppData\Local\Temp\cc4FYSW7.s:5103   .debug_loc:00000000000003bd .LLST34
C:\Users\stapi\AppData\Local\Temp\cc4FYSW7.s:5117   .debug_loc:00000000000003de .LLST35
C:\Users\stapi\AppData\Local\Temp\cc4FYSW7.s:387    .text.dm_client_thing_deviceinfo_delete_reply:000000000000001c .LVL29
C:\Users\stapi\AppData\Local\Temp\cc4FYSW7.s:6094   .debug_str:0000000000000b24 .LASF284
C:\Users\stapi\AppData\Local\Temp\cc4FYSW7.s:314    .text.dm_client_thing_deviceinfo_update_reply:0000000000000000 .LFB30
C:\Users\stapi\AppData\Local\Temp\cc4FYSW7.s:351    .text.dm_client_thing_deviceinfo_update_reply:0000000000000026 .LFE30
C:\Users\stapi\AppData\Local\Temp\cc4FYSW7.s:5131   .debug_loc:00000000000003ff .LLST26
C:\Users\stapi\AppData\Local\Temp\cc4FYSW7.s:5145   .debug_loc:0000000000000420 .LLST27
C:\Users\stapi\AppData\Local\Temp\cc4FYSW7.s:5159   .debug_loc:0000000000000441 .LLST28
C:\Users\stapi\AppData\Local\Temp\cc4FYSW7.s:5173   .debug_loc:0000000000000462 .LLST29
C:\Users\stapi\AppData\Local\Temp\cc4FYSW7.s:5187   .debug_loc:0000000000000483 .LLST30
C:\Users\stapi\AppData\Local\Temp\cc4FYSW7.s:343    .text.dm_client_thing_deviceinfo_update_reply:000000000000001c .LVL26
C:\Users\stapi\AppData\Local\Temp\cc4FYSW7.s:6276   .debug_str:0000000000001486 .LASF285
C:\Users\stapi\AppData\Local\Temp\cc4FYSW7.s:270    .text.dm_client_thing_event_post_reply:0000000000000000 .LFB29
C:\Users\stapi\AppData\Local\Temp\cc4FYSW7.s:307    .text.dm_client_thing_event_post_reply:0000000000000026 .LFE29
C:\Users\stapi\AppData\Local\Temp\cc4FYSW7.s:5201   .debug_loc:00000000000004a4 .LLST21
C:\Users\stapi\AppData\Local\Temp\cc4FYSW7.s:5215   .debug_loc:00000000000004c5 .LLST22
C:\Users\stapi\AppData\Local\Temp\cc4FYSW7.s:5229   .debug_loc:00000000000004e6 .LLST23
C:\Users\stapi\AppData\Local\Temp\cc4FYSW7.s:5243   .debug_loc:0000000000000507 .LLST24
C:\Users\stapi\AppData\Local\Temp\cc4FYSW7.s:5257   .debug_loc:0000000000000528 .LLST25
C:\Users\stapi\AppData\Local\Temp\cc4FYSW7.s:299    .text.dm_client_thing_event_post_reply:000000000000001c .LVL23
C:\Users\stapi\AppData\Local\Temp\cc4FYSW7.s:6410   .debug_str:0000000000001b8d .LASF286
C:\Users\stapi\AppData\Local\Temp\cc4FYSW7.s:226    .text.dm_client_thing_service_request:0000000000000000 .LFB28
C:\Users\stapi\AppData\Local\Temp\cc4FYSW7.s:263    .text.dm_client_thing_service_request:0000000000000026 .LFE28
C:\Users\stapi\AppData\Local\Temp\cc4FYSW7.s:5271   .debug_loc:0000000000000549 .LLST16
C:\Users\stapi\AppData\Local\Temp\cc4FYSW7.s:5285   .debug_loc:000000000000056a .LLST17
C:\Users\stapi\AppData\Local\Temp\cc4FYSW7.s:5299   .debug_loc:000000000000058b .LLST18
C:\Users\stapi\AppData\Local\Temp\cc4FYSW7.s:5313   .debug_loc:00000000000005ac .LLST19
C:\Users\stapi\AppData\Local\Temp\cc4FYSW7.s:5327   .debug_loc:00000000000005cd .LLST20
C:\Users\stapi\AppData\Local\Temp\cc4FYSW7.s:255    .text.dm_client_thing_service_request:000000000000001c .LVL20
C:\Users\stapi\AppData\Local\Temp\cc4FYSW7.s:6308   .debug_str:00000000000016be .LASF287
C:\Users\stapi\AppData\Local\Temp\cc4FYSW7.s:107    .text.dm_client_thing_service_property_set:0000000000000000 .LFB27
C:\Users\stapi\AppData\Local\Temp\cc4FYSW7.s:219    .text.dm_client_thing_service_property_set:000000000000008e .LFE27
C:\Users\stapi\AppData\Local\Temp\cc4FYSW7.s:5341   .debug_loc:00000000000005ee .LLST10
C:\Users\stapi\AppData\Local\Temp\cc4FYSW7.s:5355   .debug_loc:000000000000060f .LLST11
C:\Users\stapi\AppData\Local\Temp\cc4FYSW7.s:5366   .debug_loc:000000000000062d .LLST12
C:\Users\stapi\AppData\Local\Temp\cc4FYSW7.s:5377   .debug_loc:000000000000064b .LLST13
C:\Users\stapi\AppData\Local\Temp\cc4FYSW7.s:5388   .debug_loc:0000000000000669 .LLST14
C:\Users\stapi\AppData\Local\Temp\cc4FYSW7.s:5402   .debug_loc:000000000000068a .LLST15
C:\Users\stapi\AppData\Local\Temp\cc4FYSW7.s:6272   .debug_str:0000000000001459 .LASF288
C:\Users\stapi\AppData\Local\Temp\cc4FYSW7.s:144    .text.dm_client_thing_service_property_set:0000000000000022 .LVL11
C:\Users\stapi\AppData\Local\Temp\cc4FYSW7.s:150    .text.dm_client_thing_service_property_set:0000000000000032 .LVL12
C:\Users\stapi\AppData\Local\Temp\cc4FYSW7.s:175    .text.dm_client_thing_service_property_set:0000000000000052 .LVL13
C:\Users\stapi\AppData\Local\Temp\cc4FYSW7.s:189    .text.dm_client_thing_service_property_set:0000000000000064 .LVL15
C:\Users\stapi\AppData\Local\Temp\cc4FYSW7.s:207    .text.dm_client_thing_service_property_set:0000000000000084 .LVL17
C:\Users\stapi\AppData\Local\Temp\cc4FYSW7.s:6368   .debug_str:00000000000019b3 .LASF289
C:\Users\stapi\AppData\Local\Temp\cc4FYSW7.s:59     .text.dm_client_thing_model_up_raw_reply:0000000000000000 .LFB26
C:\Users\stapi\AppData\Local\Temp\cc4FYSW7.s:96     .text.dm_client_thing_model_up_raw_reply:0000000000000026 .LFE26
C:\Users\stapi\AppData\Local\Temp\cc4FYSW7.s:5418   .debug_loc:00000000000006b4 .LLST5
C:\Users\stapi\AppData\Local\Temp\cc4FYSW7.s:5432   .debug_loc:00000000000006d5 .LLST6
C:\Users\stapi\AppData\Local\Temp\cc4FYSW7.s:5446   .debug_loc:00000000000006f6 .LLST7
C:\Users\stapi\AppData\Local\Temp\cc4FYSW7.s:5460   .debug_loc:0000000000000717 .LLST8
C:\Users\stapi\AppData\Local\Temp\cc4FYSW7.s:5474   .debug_loc:0000000000000738 .LLST9
C:\Users\stapi\AppData\Local\Temp\cc4FYSW7.s:88     .text.dm_client_thing_model_up_raw_reply:000000000000001c .LVL5
C:\Users\stapi\AppData\Local\Temp\cc4FYSW7.s:6300   .debug_str:000000000000164e .LASF290
C:\Users\stapi\AppData\Local\Temp\cc4FYSW7.s:14     .text.dm_client_thing_model_down_raw:0000000000000000 .LFB25
C:\Users\stapi\AppData\Local\Temp\cc4FYSW7.s:52     .text.dm_client_thing_model_down_raw:0000000000000026 .LFE25
C:\Users\stapi\AppData\Local\Temp\cc4FYSW7.s:5488   .debug_loc:0000000000000759 .LLST0
C:\Users\stapi\AppData\Local\Temp\cc4FYSW7.s:5502   .debug_loc:000000000000077a .LLST1
C:\Users\stapi\AppData\Local\Temp\cc4FYSW7.s:5516   .debug_loc:000000000000079b .LLST2
C:\Users\stapi\AppData\Local\Temp\cc4FYSW7.s:5530   .debug_loc:00000000000007bc .LLST3
C:\Users\stapi\AppData\Local\Temp\cc4FYSW7.s:5544   .debug_loc:00000000000007dd .LLST4
C:\Users\stapi\AppData\Local\Temp\cc4FYSW7.s:44     .text.dm_client_thing_model_down_raw:000000000000001c .LVL2
C:\Users\stapi\AppData\Local\Temp\cc4FYSW7.s:6192   .debug_str:00000000000010b0 .LASF291
C:\Users\stapi\AppData\Local\Temp\cc4FYSW7.s:858    .text.dm_client_event_handle:0000000000000000 .LFB24
C:\Users\stapi\AppData\Local\Temp\cc4FYSW7.s:941    .text.dm_client_event_handle:000000000000008e .LFE24
C:\Users\stapi\AppData\Local\Temp\cc4FYSW7.s:5558   .debug_loc:00000000000007fe .LLST66
C:\Users\stapi\AppData\Local\Temp\cc4FYSW7.s:6252   .debug_str:00000000000013a4 .LASF292
C:\Users\stapi\AppData\Local\Temp\cc4FYSW7.s:5594   .debug_loc:0000000000000851 .LLST67
C:\Users\stapi\AppData\Local\Temp\cc4FYSW7.s:5630   .debug_loc:00000000000008a4 .LLST68
C:\Users\stapi\AppData\Local\Temp\cc4FYSW7.s:883    .text.dm_client_event_handle:000000000000001a .LBB12
C:\Users\stapi\AppData\Local\Temp\cc4FYSW7.s:911    .text.dm_client_event_handle:0000000000000054 .LBE12
C:\Users\stapi\AppData\Local\Temp\cc4FYSW7.s:891    .text.dm_client_event_handle:000000000000002a .LVL79
C:\Users\stapi\AppData\Local\Temp\cc4FYSW7.s:896    .text.dm_client_event_handle:000000000000003a .LVL80
C:\Users\stapi\AppData\Local\Temp\cc4FYSW7.s:901    .text.dm_client_event_handle:000000000000004a .LVL81
C:\Users\stapi\AppData\Local\Temp\cc4FYSW7.s:905    .text.dm_client_event_handle:0000000000000052 .LVL82
C:\Users\stapi\AppData\Local\Temp\cc4FYSW7.s:913    .text.dm_client_event_handle:0000000000000054 .LBB14
C:\Users\stapi\AppData\Local\Temp\cc4FYSW7.s:937    .text.dm_client_event_handle:000000000000008c .LBE14
C:\Users\stapi\AppData\Local\Temp\cc4FYSW7.s:921    .text.dm_client_event_handle:0000000000000064 .LVL85
C:\Users\stapi\AppData\Local\Temp\cc4FYSW7.s:926    .text.dm_client_event_handle:0000000000000074 .LVL86
C:\Users\stapi\AppData\Local\Temp\cc4FYSW7.s:931    .text.dm_client_event_handle:0000000000000084 .LVL87
C:\Users\stapi\AppData\Local\Temp\cc4FYSW7.s:935    .text.dm_client_event_handle:000000000000008c .LVL88
C:\Users\stapi\AppData\Local\Temp\cc4FYSW7.s:6224   .debug_str:000000000000125a .LASF293
C:\Users\stapi\AppData\Local\Temp\cc4FYSW7.s:6012   .debug_str:000000000000074d .LASF294
C:\Users\stapi\AppData\Local\Temp\cc4FYSW7.s:6096   .debug_str:0000000000000b4c .LASF326
C:\Users\stapi\AppData\Local\Temp\cc4FYSW7.s:657    .text.dm_client_subscribe_all:0000000000000000 .LFB21
C:\Users\stapi\AppData\Local\Temp\cc4FYSW7.s:838    .text.dm_client_subscribe_all:00000000000000e2 .LFE21
C:\Users\stapi\AppData\Local\Temp\cc4FYSW7.s:6148   .debug_str:0000000000000e91 .LASF295
C:\Users\stapi\AppData\Local\Temp\cc4FYSW7.s:5666   .debug_loc:00000000000008f7 .LLST57
C:\Users\stapi\AppData\Local\Temp\cc4FYSW7.s:5680   .debug_loc:0000000000000918 .LLST58
C:\Users\stapi\AppData\Local\Temp\cc4FYSW7.s:5698   .debug_loc:0000000000000944 .LLST59
C:\Users\stapi\AppData\Local\Temp\cc4FYSW7.s:5716   .debug_loc:0000000000000970 .LLST60
C:\Users\stapi\AppData\Local\Temp\cc4FYSW7.s:5727   .debug_loc:000000000000098e .LLST61
C:\Users\stapi\AppData\Local\Temp\cc4FYSW7.s:6166   .debug_str:0000000000000f8a .LASF296
C:\Users\stapi\AppData\Local\Temp\cc4FYSW7.s:5743   .debug_loc:00000000000009b8 .LLST62
C:\Users\stapi\AppData\Local\Temp\cc4FYSW7.s:6382   .debug_str:0000000000001a31 .LASF297
C:\Users\stapi\AppData\Local\Temp\cc4FYSW7.s:5898   .debug_str:0000000000000087 .LASF298
C:\Users\stapi\AppData\Local\Temp\cc4FYSW7.s:703    .text.dm_client_subscribe_all:0000000000000032 .LBB4
C:\Users\stapi\AppData\Local\Temp\cc4FYSW7.s:5751   .debug_loc:00000000000009cc .LLST63
C:\Users\stapi\AppData\Local\Temp\cc4FYSW7.s:5758   .debug_loc:00000000000009df .LLST64
C:\Users\stapi\AppData\Local\Temp\cc4FYSW7.s:5774   .debug_loc:0000000000000a09 .LLST65
C:\Users\stapi\AppData\Local\Temp\cc4FYSW7.s:725    .text.dm_client_subscribe_all:0000000000000042 .LVL61
C:\Users\stapi\AppData\Local\Temp\cc4FYSW7.s:749    .text.dm_client_subscribe_all:0000000000000062 .LVL65
C:\Users\stapi\AppData\Local\Temp\cc4FYSW7.s:760    .text.dm_client_subscribe_all:0000000000000072 .LVL68
C:\Users\stapi\AppData\Local\Temp\cc4FYSW7.s:698    .text.dm_client_subscribe_all:0000000000000030 .LVL57
C:\Users\stapi\AppData\Local\Temp\cc4FYSW7.s:768    .text.dm_client_subscribe_all:000000000000007c .LVL69
C:\Users\stapi\AppData\Local\Temp\cc4FYSW7.s:795    .text.dm_client_subscribe_all:00000000000000ac .LVL71
C:\Users\stapi\AppData\Local\Temp\cc4FYSW7.s:810    .text.dm_client_subscribe_all:00000000000000c4 .LVL73
C:\Users\stapi\AppData\Local\Temp\cc4FYSW7.s:814    .text.dm_client_subscribe_all:00000000000000ce .LVL74
C:\Users\stapi\AppData\Local\Temp\cc4FYSW7.s:5942   .debug_str:00000000000003b3 .LASF327
C:\Users\stapi\AppData\Local\Temp\cc4FYSW7.s:6454   .debug_str:0000000000001da5 .LASF299
C:\Users\stapi\AppData\Local\Temp\cc4FYSW7.s:6420   .debug_str:0000000000001bff .LASF300
C:\Users\stapi\AppData\Local\Temp\cc4FYSW7.s:6304   .debug_str:0000000000001684 .LASF301
C:\Users\stapi\AppData\Local\Temp\cc4FYSW7.s:6062   .debug_str:00000000000009ac .LASF302
C:\Users\stapi\AppData\Local\Temp\cc4FYSW7.s:5998   .debug_str:0000000000000680 .LASF303
C:\Users\stapi\AppData\Local\Temp\cc4FYSW7.s:6082   .debug_str:0000000000000a9f .LASF328
C:\Users\stapi\AppData\Local\Temp\cc4FYSW7.s:5992   .debug_str:000000000000063b .LASF329
C:\Users\stapi\AppData\Local\Temp\cc4FYSW7.s:6486   .debug_str:0000000000001f6e .LASF304
C:\Users\stapi\AppData\Local\Temp\cc4FYSW7.s:6332   .debug_str:0000000000001820 .LASF305
C:\Users\stapi\AppData\Local\Temp\cc4FYSW7.s:6502   .debug_str:0000000000002034 .LASF306
C:\Users\stapi\AppData\Local\Temp\cc4FYSW7.s:6044   .debug_str:00000000000008bf .LASF307
C:\Users\stapi\AppData\Local\Temp\cc4FYSW7.s:6206   .debug_str:0000000000001158 .LASF308
C:\Users\stapi\AppData\Local\Temp\cc4FYSW7.s:6210   .debug_str:000000000000119f .LASF309
C:\Users\stapi\AppData\Local\Temp\cc4FYSW7.s:6338   .debug_str:000000000000186b .LASF310
C:\Users\stapi\AppData\Local\Temp\cc4FYSW7.s:6230   .debug_str:00000000000012ac .LASF311
C:\Users\stapi\AppData\Local\Temp\cc4FYSW7.s:6278   .debug_str:00000000000014a7 .LASF312
C:\Users\stapi\AppData\Local\Temp\cc4FYSW7.s:6054   .debug_str:0000000000000935 .LASF313
C:\Users\stapi\AppData\Local\Temp\cc4FYSW7.s:6186   .debug_str:0000000000001073 .LASF314
C:\Users\stapi\AppData\Local\Temp\cc4FYSW7.s:6424   .debug_str:0000000000001c13 .LASF315
C:\Users\stapi\AppData\Local\Temp\cc4FYSW7.s:6504   .debug_str:0000000000002044 .LASF316
C:\Users\stapi\AppData\Local\Temp\cc4FYSW7.s:6282   .debug_str:00000000000014e2 .LASF317
C:\Users\stapi\AppData\Local\Temp\cc4FYSW7.s:6512   .debug_str:000000000000209f .LASF318
C:\Users\stapi\AppData\Local\Temp\cc4FYSW7.s:6416   .debug_str:0000000000001bd1 .LASF319
C:\Users\stapi\AppData\Local\Temp\cc4FYSW7.s:6414   .debug_str:0000000000001bbb .LASF320
C:\Users\stapi\AppData\Local\Temp\cc4FYSW7.s:6052   .debug_str:0000000000000922 .LASF321
C:\Users\stapi\AppData\Local\Temp\cc4FYSW7.s:612    .text.dm_client_ext_error:0000000000000000 .LVL48
C:\Users\stapi\AppData\Local\Temp\cc4FYSW7.s:623    .text.dm_client_ext_error:000000000000000c .LVL49
C:\Users\stapi\AppData\Local\Temp\cc4FYSW7.s:568    .text.dm_client_ntp_response:0000000000000000 .LVL45
C:\Users\stapi\AppData\Local\Temp\cc4FYSW7.s:579    .text.dm_client_ntp_response:000000000000000c .LVL46
C:\Users\stapi\AppData\Local\Temp\cc4FYSW7.s:524    .text.dm_client_rrpc_request_wildcard:0000000000000000 .LVL42
C:\Users\stapi\AppData\Local\Temp\cc4FYSW7.s:535    .text.dm_client_rrpc_request_wildcard:000000000000000c .LVL43
C:\Users\stapi\AppData\Local\Temp\cc4FYSW7.s:405    .text.dm_client_thing_event_notify:0000000000000000 .LVL30
C:\Users\stapi\AppData\Local\Temp\cc4FYSW7.s:431    .text.dm_client_thing_event_notify:0000000000000016 .LVL34
C:\Users\stapi\AppData\Local\Temp\cc4FYSW7.s:427    .text.dm_client_thing_event_notify:0000000000000010 .LVL32
C:\Users\stapi\AppData\Local\Temp\cc4FYSW7.s:429    .text.dm_client_thing_event_notify:0000000000000014 .LVL33
C:\Users\stapi\AppData\Local\Temp\cc4FYSW7.s:413    .text.dm_client_thing_event_notify:0000000000000008 .LVL31
C:\Users\stapi\AppData\Local\Temp\cc4FYSW7.s:478    .text.dm_client_thing_event_notify:000000000000005a .LVL38
C:\Users\stapi\AppData\Local\Temp\cc4FYSW7.s:500    .text.dm_client_thing_event_notify:000000000000007c .LVL40
C:\Users\stapi\AppData\Local\Temp\cc4FYSW7.s:951    .text.dm_client_thing_event_notify_reply:0000000000000000 .LVL89
C:\Users\stapi\AppData\Local\Temp\cc4FYSW7.s:962    .text.dm_client_thing_event_notify_reply:000000000000000c .LVL90
C:\Users\stapi\AppData\Local\Temp\cc4FYSW7.s:361    .text.dm_client_thing_deviceinfo_delete_reply:0000000000000000 .LVL27
C:\Users\stapi\AppData\Local\Temp\cc4FYSW7.s:372    .text.dm_client_thing_deviceinfo_delete_reply:000000000000000c .LVL28
C:\Users\stapi\AppData\Local\Temp\cc4FYSW7.s:317    .text.dm_client_thing_deviceinfo_update_reply:0000000000000000 .LVL24
C:\Users\stapi\AppData\Local\Temp\cc4FYSW7.s:328    .text.dm_client_thing_deviceinfo_update_reply:000000000000000c .LVL25
C:\Users\stapi\AppData\Local\Temp\cc4FYSW7.s:273    .text.dm_client_thing_event_post_reply:0000000000000000 .LVL21
C:\Users\stapi\AppData\Local\Temp\cc4FYSW7.s:284    .text.dm_client_thing_event_post_reply:000000000000000c .LVL22
C:\Users\stapi\AppData\Local\Temp\cc4FYSW7.s:229    .text.dm_client_thing_service_request:0000000000000000 .LVL18
C:\Users\stapi\AppData\Local\Temp\cc4FYSW7.s:240    .text.dm_client_thing_service_request:000000000000000c .LVL19
C:\Users\stapi\AppData\Local\Temp\cc4FYSW7.s:110    .text.dm_client_thing_service_property_set:0000000000000000 .LVL6
C:\Users\stapi\AppData\Local\Temp\cc4FYSW7.s:136    .text.dm_client_thing_service_property_set:0000000000000016 .LVL10
C:\Users\stapi\AppData\Local\Temp\cc4FYSW7.s:132    .text.dm_client_thing_service_property_set:0000000000000010 .LVL8
C:\Users\stapi\AppData\Local\Temp\cc4FYSW7.s:134    .text.dm_client_thing_service_property_set:0000000000000014 .LVL9
C:\Users\stapi\AppData\Local\Temp\cc4FYSW7.s:118    .text.dm_client_thing_service_property_set:0000000000000008 .LVL7
C:\Users\stapi\AppData\Local\Temp\cc4FYSW7.s:183    .text.dm_client_thing_service_property_set:000000000000005a .LVL14
C:\Users\stapi\AppData\Local\Temp\cc4FYSW7.s:205    .text.dm_client_thing_service_property_set:000000000000007c .LVL16
C:\Users\stapi\AppData\Local\Temp\cc4FYSW7.s:62     .text.dm_client_thing_model_up_raw_reply:0000000000000000 .LVL3
C:\Users\stapi\AppData\Local\Temp\cc4FYSW7.s:73     .text.dm_client_thing_model_up_raw_reply:000000000000000c .LVL4
C:\Users\stapi\AppData\Local\Temp\cc4FYSW7.s:18     .text.dm_client_thing_model_down_raw:0000000000000000 .LVL0
C:\Users\stapi\AppData\Local\Temp\cc4FYSW7.s:29     .text.dm_client_thing_model_down_raw:000000000000000c .LVL1
C:\Users\stapi\AppData\Local\Temp\cc4FYSW7.s:861    .text.dm_client_event_handle:0000000000000000 .LVL75
C:\Users\stapi\AppData\Local\Temp\cc4FYSW7.s:872    .text.dm_client_event_handle:0000000000000012 .LVL76
C:\Users\stapi\AppData\Local\Temp\cc4FYSW7.s:879    .text.dm_client_event_handle:000000000000001a .LVL77
C:\Users\stapi\AppData\Local\Temp\cc4FYSW7.s:888    .text.dm_client_event_handle:000000000000001e .LVL78
C:\Users\stapi\AppData\Local\Temp\cc4FYSW7.s:908    .text.dm_client_event_handle:0000000000000054 .LVL83
C:\Users\stapi\AppData\Local\Temp\cc4FYSW7.s:918    .text.dm_client_event_handle:0000000000000058 .LVL84
C:\Users\stapi\AppData\Local\Temp\cc4FYSW7.s:660    .text.dm_client_subscribe_all:0000000000000000 .LVL51
C:\Users\stapi\AppData\Local\Temp\cc4FYSW7.s:680    .text.dm_client_subscribe_all:0000000000000010 .LVL53
C:\Users\stapi\AppData\Local\Temp\cc4FYSW7.s:686    .text.dm_client_subscribe_all:0000000000000018 .LVL56
C:\Users\stapi\AppData\Local\Temp\cc4FYSW7.s:684    .text.dm_client_subscribe_all:0000000000000014 .LVL55
C:\Users\stapi\AppData\Local\Temp\cc4FYSW7.s:682    .text.dm_client_subscribe_all:0000000000000012 .LVL54
C:\Users\stapi\AppData\Local\Temp\cc4FYSW7.s:670    .text.dm_client_subscribe_all:0000000000000008 .LVL52
C:\Users\stapi\AppData\Local\Temp\cc4FYSW7.s:708    .text.dm_client_subscribe_all:0000000000000036 .LVL58
C:\Users\stapi\AppData\Local\Temp\cc4FYSW7.s:803    .text.dm_client_subscribe_all:00000000000000b4 .LVL72
C:\Users\stapi\AppData\Local\Temp\cc4FYSW7.s:779    .text.dm_client_subscribe_all:0000000000000090 .LVL70
C:\Users\stapi\AppData\Local\Temp\cc4FYSW7.s:713    .text.dm_client_subscribe_all:0000000000000038 .LVL59
C:\Users\stapi\AppData\Local\Temp\cc4FYSW7.s:736    .text.dm_client_subscribe_all:000000000000004e .LVL62
C:\Users\stapi\AppData\Local\Temp\cc4FYSW7.s:758    .text.dm_client_subscribe_all:000000000000006a .LVL67
C:\Users\stapi\AppData\Local\Temp\cc4FYSW7.s:721    .text.dm_client_subscribe_all:000000000000003a .LVL60
C:\Users\stapi\AppData\Local\Temp\cc4FYSW7.s:740    .text.dm_client_subscribe_all:0000000000000050 .LVL63
C:\Users\stapi\AppData\Local\Temp\cc4FYSW7.s:742    .text.dm_client_subscribe_all:0000000000000052 .LVL64
C:\Users\stapi\AppData\Local\Temp\cc4FYSW7.s:753    .text.dm_client_subscribe_all:0000000000000068 .LVL66
C:\Users\stapi\AppData\Local\Temp\cc4FYSW7.s:1055   .debug_info:0000000000000000 .Ldebug_info0
C:\Users\stapi\AppData\Local\Temp\cc4FYSW7.s:710    .text.dm_client_subscribe_all:0000000000000036 .LBE4
C:\Users\stapi\AppData\Local\Temp\cc4FYSW7.s:714    .text.dm_client_subscribe_all:0000000000000038 .LBB7
C:\Users\stapi\AppData\Local\Temp\cc4FYSW7.s:764    .text.dm_client_subscribe_all:0000000000000072 .LBE7

UNDEFINED SYMBOLS
__riscv_save_0
dm_msg_proc_thing_model_down_raw
__riscv_restore_0
dm_msg_proc_thing_model_up_raw_reply
__riscv_save_3
memset
DM_URI_THING_SERVICE_PROPERTY_SET_REPLY
dm_msg_proc_thing_service_property_set
dm_opt_get
dm_msg_response
__riscv_restore_3
dm_msg_proc_thing_service_request
dm_msg_proc_thing_event_post_reply
dm_msg_proc_thing_deviceinfo_update_reply
dm_msg_proc_thing_deviceinfo_delete_reply
DM_URI_THING_EVENT_NOTIFY_REPLY
dm_msg_proc_thing_event_notify
dm_msg_proc_rrpc_request
dm_disp_ntp_response
dm_disp_ext_error_response
__riscv_save_5
DM_URI_SYS_PREFIX
DM_URI_THING_EVENT_POST_REPLY_WILDCARD
dm_utils_service_name
dm_client_subscribe
dm_client_unsubscribe
LITE_free_internal
__riscv_restore_5
HAL_Printf
dm_msg_cloud_connected
dm_msg_cloud_disconnect
dm_msg_proc_thing_event_notify_reply
DM_URI_THING_SERVICE_PROPERTY_SET
DM_URI_THING_SERVICE_REQUEST_WILDCARD
DM_URI_THING_DEVICEINFO_UPDATE_REPLY
DM_URI_THING_DEVICEINFO_DELETE_REPLY
DM_URI_THING_EVENT_NOTIFY
DM_URI_RRPC_REQUEST_WILDCARD
DM_URI_NTP_RESPONSE
DM_URI_EXT_NTP_PREFIX
DM_URI_EXT_ERROR_PREFIX
DM_URI_THING_MODEL_DOWN_RAW
DM_URI_THING_MODEL_UP_RAW_REPLY
