   1              		.file	"dm_client_adapter.c"
   2              		.option nopic
   3              		.attribute arch, "rv32i2p0_m2p0_a2p0_f2p0_c2p0_b_p0p94"
   4              		.attribute unaligned_access, 0
   5              		.attribute stack_align, 16
   6              		.text
   7              	.Ltext0:
   8              		.cfi_sections	.debug_frame
   9              		.section	.rodata.dm_client_open.str1.4,"aMS",@progbits,1
  10              		.align	2
  11              	.LC0:
  12 0000 5B696E66 		.string	"[inf] "
  12      5D2000
  13 0007 00       		.align	2
  14              	.LC1:
  15 0008 434D2046 		.string	"CM Fd: %d"
  15      643A2025 
  15      6400
  16 0012 0000     		.align	2
  17              	.LC2:
  18 0014 0D0A00   		.string	"\r\n"
  19              		.section	.text.dm_client_open,"ax",@progbits
  20              		.align	1
  21              		.globl	dm_client_open
  23              	dm_client_open:
  24              	.LFB21:
  25              		.file 1 "C:/Users/stapi/OneDrive/Desktop/GD32VW553/V1_MQTT_OK/GD32VW55X_Wifi_BLE_SDK/GD32VW55x_REL
   1:C:/Users/stapi/OneDrive/Desktop/GD32VW553/V1_MQTT_OK/GD32VW55X_Wifi_BLE_SDK/GD32VW55x_RELEASE_V1.0.2/MSDK/cloud/alicloud/src/services/linkkit/dm/client\dm_client_adapter.c **** #include "iotx_dm_internal.h"
   2:C:/Users/stapi/OneDrive/Desktop/GD32VW553/V1_MQTT_OK/GD32VW55X_Wifi_BLE_SDK/GD32VW55x_RELEASE_V1.0.2/MSDK/cloud/alicloud/src/services/linkkit/dm/client\dm_client_adapter.c **** 
   3:C:/Users/stapi/OneDrive/Desktop/GD32VW553/V1_MQTT_OK/GD32VW55X_Wifi_BLE_SDK/GD32VW55x_RELEASE_V1.0.2/MSDK/cloud/alicloud/src/services/linkkit/dm/client\dm_client_adapter.c **** static dm_client_ctx_t g_dm_client_ctx = {0};
   4:C:/Users/stapi/OneDrive/Desktop/GD32VW553/V1_MQTT_OK/GD32VW55X_Wifi_BLE_SDK/GD32VW55x_RELEASE_V1.0.2/MSDK/cloud/alicloud/src/services/linkkit/dm/client\dm_client_adapter.c **** 
   5:C:/Users/stapi/OneDrive/Desktop/GD32VW553/V1_MQTT_OK/GD32VW55X_Wifi_BLE_SDK/GD32VW55x_RELEASE_V1.0.2/MSDK/cloud/alicloud/src/services/linkkit/dm/client\dm_client_adapter.c **** static dm_client_ctx_t *dm_client_get_ctx(void)
   6:C:/Users/stapi/OneDrive/Desktop/GD32VW553/V1_MQTT_OK/GD32VW55X_Wifi_BLE_SDK/GD32VW55x_RELEASE_V1.0.2/MSDK/cloud/alicloud/src/services/linkkit/dm/client\dm_client_adapter.c **** {
   7:C:/Users/stapi/OneDrive/Desktop/GD32VW553/V1_MQTT_OK/GD32VW55X_Wifi_BLE_SDK/GD32VW55x_RELEASE_V1.0.2/MSDK/cloud/alicloud/src/services/linkkit/dm/client\dm_client_adapter.c ****     return &g_dm_client_ctx;
   8:C:/Users/stapi/OneDrive/Desktop/GD32VW553/V1_MQTT_OK/GD32VW55X_Wifi_BLE_SDK/GD32VW55x_RELEASE_V1.0.2/MSDK/cloud/alicloud/src/services/linkkit/dm/client\dm_client_adapter.c **** }
   9:C:/Users/stapi/OneDrive/Desktop/GD32VW553/V1_MQTT_OK/GD32VW55X_Wifi_BLE_SDK/GD32VW55x_RELEASE_V1.0.2/MSDK/cloud/alicloud/src/services/linkkit/dm/client\dm_client_adapter.c **** 
  10:C:/Users/stapi/OneDrive/Desktop/GD32VW553/V1_MQTT_OK/GD32VW55X_Wifi_BLE_SDK/GD32VW55x_RELEASE_V1.0.2/MSDK/cloud/alicloud/src/services/linkkit/dm/client\dm_client_adapter.c **** int dm_client_open(void)
  11:C:/Users/stapi/OneDrive/Desktop/GD32VW553/V1_MQTT_OK/GD32VW55X_Wifi_BLE_SDK/GD32VW55x_RELEASE_V1.0.2/MSDK/cloud/alicloud/src/services/linkkit/dm/client\dm_client_adapter.c **** {
  26              		.loc 1 11 1
  27              		.cfi_startproc
  28 0000 17030000 		call	t0,__riscv_save_1
  28      E7020300 
  29              		.cfi_offset 8, -8
  30              		.cfi_offset 1, -4
  31              		.cfi_def_cfa_offset 16
  12:C:/Users/stapi/OneDrive/Desktop/GD32VW553/V1_MQTT_OK/GD32VW55X_Wifi_BLE_SDK/GD32VW55x_RELEASE_V1.0.2/MSDK/cloud/alicloud/src/services/linkkit/dm/client\dm_client_adapter.c ****     int res = 0;
  32              		.loc 1 12 5
  33              	.LVL0:
  13:C:/Users/stapi/OneDrive/Desktop/GD32VW553/V1_MQTT_OK/GD32VW55X_Wifi_BLE_SDK/GD32VW55x_RELEASE_V1.0.2/MSDK/cloud/alicloud/src/services/linkkit/dm/client\dm_client_adapter.c ****     dm_client_ctx_t *ctx = dm_client_get_ctx();
  34              		.loc 1 13 5
   7:C:/Users/stapi/OneDrive/Desktop/GD32VW553/V1_MQTT_OK/GD32VW55X_Wifi_BLE_SDK/GD32VW55x_RELEASE_V1.0.2/MSDK/cloud/alicloud/src/services/linkkit/dm/client\dm_client_adapter.c **** }
  35              		.loc 1 7 5
  14:C:/Users/stapi/OneDrive/Desktop/GD32VW553/V1_MQTT_OK/GD32VW55X_Wifi_BLE_SDK/GD32VW55x_RELEASE_V1.0.2/MSDK/cloud/alicloud/src/services/linkkit/dm/client\dm_client_adapter.c ****     iotx_cm_init_param_t cm_param;
  36              		.loc 1 14 5
  15:C:/Users/stapi/OneDrive/Desktop/GD32VW553/V1_MQTT_OK/GD32VW55X_Wifi_BLE_SDK/GD32VW55x_RELEASE_V1.0.2/MSDK/cloud/alicloud/src/services/linkkit/dm/client\dm_client_adapter.c **** 
  16:C:/Users/stapi/OneDrive/Desktop/GD32VW553/V1_MQTT_OK/GD32VW55X_Wifi_BLE_SDK/GD32VW55x_RELEASE_V1.0.2/MSDK/cloud/alicloud/src/services/linkkit/dm/client\dm_client_adapter.c ****     memset(ctx, 0, sizeof(dm_client_ctx_t));
  37              		.loc 1 16 5
  17:C:/Users/stapi/OneDrive/Desktop/GD32VW553/V1_MQTT_OK/GD32VW55X_Wifi_BLE_SDK/GD32VW55x_RELEASE_V1.0.2/MSDK/cloud/alicloud/src/services/linkkit/dm/client\dm_client_adapter.c ****     memset(&cm_param, 0, sizeof(iotx_cm_init_param_t));
  18:C:/Users/stapi/OneDrive/Desktop/GD32VW553/V1_MQTT_OK/GD32VW55X_Wifi_BLE_SDK/GD32VW55x_RELEASE_V1.0.2/MSDK/cloud/alicloud/src/services/linkkit/dm/client\dm_client_adapter.c **** 
  19:C:/Users/stapi/OneDrive/Desktop/GD32VW553/V1_MQTT_OK/GD32VW55X_Wifi_BLE_SDK/GD32VW55x_RELEASE_V1.0.2/MSDK/cloud/alicloud/src/services/linkkit/dm/client\dm_client_adapter.c ****     cm_param.request_timeout_ms = IOTX_DM_CLIENT_REQUEST_TIMEOUT_MS;
  38              		.loc 1 19 33 is_stmt 0
  39 0008 8567     		li	a5,4096
  11:C:/Users/stapi/OneDrive/Desktop/GD32VW553/V1_MQTT_OK/GD32VW55X_Wifi_BLE_SDK/GD32VW55x_RELEASE_V1.0.2/MSDK/cloud/alicloud/src/services/linkkit/dm/client\dm_client_adapter.c ****     int res = 0;
  40              		.loc 1 11 1
  41 000a 0111     		addi	sp,sp,-32
  42              		.cfi_def_cfa_offset 48
  43              		.loc 1 19 33
  44 000c 13870777 		addi	a4,a5,1904
  20:C:/Users/stapi/OneDrive/Desktop/GD32VW553/V1_MQTT_OK/GD32VW55X_Wifi_BLE_SDK/GD32VW55x_RELEASE_V1.0.2/MSDK/cloud/alicloud/src/services/linkkit/dm/client\dm_client_adapter.c ****     cm_param.keepalive_interval_ms = IOTX_DM_CLIENT_KEEPALIVE_INTERVAL_MS;
  21:C:/Users/stapi/OneDrive/Desktop/GD32VW553/V1_MQTT_OK/GD32VW55X_Wifi_BLE_SDK/GD32VW55x_RELEASE_V1.0.2/MSDK/cloud/alicloud/src/services/linkkit/dm/client\dm_client_adapter.c ****     cm_param.write_buf_size = CONFIG_MQTT_TX_MAXLEN;
  45              		.loc 1 21 29
  46 0010 93870780 		addi	a5,a5,-2048
  47 0014 3EC6     		sw	a5,12(sp)
  22:C:/Users/stapi/OneDrive/Desktop/GD32VW553/V1_MQTT_OK/GD32VW55X_Wifi_BLE_SDK/GD32VW55x_RELEASE_V1.0.2/MSDK/cloud/alicloud/src/services/linkkit/dm/client\dm_client_adapter.c ****     cm_param.read_buf_size = CONFIG_MQTT_RX_MAXLEN;
  48              		.loc 1 22 28
  49 0016 3EC8     		sw	a5,16(sp)
  23:C:/Users/stapi/OneDrive/Desktop/GD32VW553/V1_MQTT_OK/GD32VW55X_Wifi_BLE_SDK/GD32VW55x_RELEASE_V1.0.2/MSDK/cloud/alicloud/src/services/linkkit/dm/client\dm_client_adapter.c **** #if defined(COAP_COMM_ENABLED) && !defined(MQTT_COMM_ENABLED)
  24:C:/Users/stapi/OneDrive/Desktop/GD32VW553/V1_MQTT_OK/GD32VW55X_Wifi_BLE_SDK/GD32VW55x_RELEASE_V1.0.2/MSDK/cloud/alicloud/src/services/linkkit/dm/client\dm_client_adapter.c ****     cm_param.protocol_type = IOTX_CM_PROTOCOL_TYPE_COAP;
  25:C:/Users/stapi/OneDrive/Desktop/GD32VW553/V1_MQTT_OK/GD32VW55X_Wifi_BLE_SDK/GD32VW55x_RELEASE_V1.0.2/MSDK/cloud/alicloud/src/services/linkkit/dm/client\dm_client_adapter.c **** #else
  26:C:/Users/stapi/OneDrive/Desktop/GD32VW553/V1_MQTT_OK/GD32VW55X_Wifi_BLE_SDK/GD32VW55x_RELEASE_V1.0.2/MSDK/cloud/alicloud/src/services/linkkit/dm/client\dm_client_adapter.c ****     cm_param.protocol_type = IOTX_CM_PROTOCOL_TYPE_MQTT;
  50              		.loc 1 26 28
  51 0018 8547     		li	a5,1
  16:C:/Users/stapi/OneDrive/Desktop/GD32VW553/V1_MQTT_OK/GD32VW55X_Wifi_BLE_SDK/GD32VW55x_RELEASE_V1.0.2/MSDK/cloud/alicloud/src/services/linkkit/dm/client\dm_client_adapter.c ****     memset(&cm_param, 0, sizeof(iotx_cm_init_param_t));
  52              		.loc 1 16 5
  53 001a 37040000 		lui	s0,%hi(.LANCHOR0)
  19:C:/Users/stapi/OneDrive/Desktop/GD32VW553/V1_MQTT_OK/GD32VW55X_Wifi_BLE_SDK/GD32VW55x_RELEASE_V1.0.2/MSDK/cloud/alicloud/src/services/linkkit/dm/client\dm_client_adapter.c ****     cm_param.keepalive_interval_ms = IOTX_DM_CLIENT_KEEPALIVE_INTERVAL_MS;
  54              		.loc 1 19 33
  55 001e 3AC2     		sw	a4,4(sp)
  56              		.loc 1 26 28
  57 0020 3ECA     		sw	a5,20(sp)
  20:C:/Users/stapi/OneDrive/Desktop/GD32VW553/V1_MQTT_OK/GD32VW55X_Wifi_BLE_SDK/GD32VW55x_RELEASE_V1.0.2/MSDK/cloud/alicloud/src/services/linkkit/dm/client\dm_client_adapter.c ****     cm_param.write_buf_size = CONFIG_MQTT_TX_MAXLEN;
  58              		.loc 1 20 36
  59 0022 3D67     		li	a4,61440
  27:C:/Users/stapi/OneDrive/Desktop/GD32VW553/V1_MQTT_OK/GD32VW55X_Wifi_BLE_SDK/GD32VW55x_RELEASE_V1.0.2/MSDK/cloud/alicloud/src/services/linkkit/dm/client\dm_client_adapter.c **** #endif
  28:C:/Users/stapi/OneDrive/Desktop/GD32VW553/V1_MQTT_OK/GD32VW55X_Wifi_BLE_SDK/GD32VW55x_RELEASE_V1.0.2/MSDK/cloud/alicloud/src/services/linkkit/dm/client\dm_client_adapter.c ****     cm_param.handle_event = dm_client_event_handle;
  60              		.loc 1 28 27
  61 0024 B7070000 		lui	a5,%hi(dm_client_event_handle)
  16:C:/Users/stapi/OneDrive/Desktop/GD32VW553/V1_MQTT_OK/GD32VW55X_Wifi_BLE_SDK/GD32VW55x_RELEASE_V1.0.2/MSDK/cloud/alicloud/src/services/linkkit/dm/client\dm_client_adapter.c ****     memset(&cm_param, 0, sizeof(iotx_cm_init_param_t));
  62              		.loc 1 16 5
  63 0028 13040400 		addi	s0,s0,%lo(.LANCHOR0)
  20:C:/Users/stapi/OneDrive/Desktop/GD32VW553/V1_MQTT_OK/GD32VW55X_Wifi_BLE_SDK/GD32VW55x_RELEASE_V1.0.2/MSDK/cloud/alicloud/src/services/linkkit/dm/client\dm_client_adapter.c ****     cm_param.write_buf_size = CONFIG_MQTT_TX_MAXLEN;
  64              		.loc 1 20 36
  65 002c 130707A6 		addi	a4,a4,-1440
  66              		.loc 1 28 27
  67 0030 93870700 		addi	a5,a5,%lo(dm_client_event_handle)
  29:C:/Users/stapi/OneDrive/Desktop/GD32VW553/V1_MQTT_OK/GD32VW55X_Wifi_BLE_SDK/GD32VW55x_RELEASE_V1.0.2/MSDK/cloud/alicloud/src/services/linkkit/dm/client\dm_client_adapter.c **** 
  30:C:/Users/stapi/OneDrive/Desktop/GD32VW553/V1_MQTT_OK/GD32VW55X_Wifi_BLE_SDK/GD32VW55x_RELEASE_V1.0.2/MSDK/cloud/alicloud/src/services/linkkit/dm/client\dm_client_adapter.c ****     res = iotx_cm_open(&cm_param);
  68              		.loc 1 30 11
  69 0034 4800     		addi	a0,sp,4
  16:C:/Users/stapi/OneDrive/Desktop/GD32VW553/V1_MQTT_OK/GD32VW55X_Wifi_BLE_SDK/GD32VW55x_RELEASE_V1.0.2/MSDK/cloud/alicloud/src/services/linkkit/dm/client\dm_client_adapter.c ****     memset(&cm_param, 0, sizeof(iotx_cm_init_param_t));
  70              		.loc 1 16 5
  71 0036 23200400 		sw	zero,0(s0)
  72 003a 23220400 		sw	zero,4(s0)
  73 003e 23240400 		sw	zero,8(s0)
  17:C:/Users/stapi/OneDrive/Desktop/GD32VW553/V1_MQTT_OK/GD32VW55X_Wifi_BLE_SDK/GD32VW55x_RELEASE_V1.0.2/MSDK/cloud/alicloud/src/services/linkkit/dm/client\dm_client_adapter.c **** 
  74              		.loc 1 17 5 is_stmt 1
  75 0042 02CE     		sw	zero,28(sp)
  19:C:/Users/stapi/OneDrive/Desktop/GD32VW553/V1_MQTT_OK/GD32VW55X_Wifi_BLE_SDK/GD32VW55x_RELEASE_V1.0.2/MSDK/cloud/alicloud/src/services/linkkit/dm/client\dm_client_adapter.c ****     cm_param.keepalive_interval_ms = IOTX_DM_CLIENT_KEEPALIVE_INTERVAL_MS;
  76              		.loc 1 19 5
  20:C:/Users/stapi/OneDrive/Desktop/GD32VW553/V1_MQTT_OK/GD32VW55X_Wifi_BLE_SDK/GD32VW55x_RELEASE_V1.0.2/MSDK/cloud/alicloud/src/services/linkkit/dm/client\dm_client_adapter.c ****     cm_param.write_buf_size = CONFIG_MQTT_TX_MAXLEN;
  77              		.loc 1 20 5
  20:C:/Users/stapi/OneDrive/Desktop/GD32VW553/V1_MQTT_OK/GD32VW55X_Wifi_BLE_SDK/GD32VW55x_RELEASE_V1.0.2/MSDK/cloud/alicloud/src/services/linkkit/dm/client\dm_client_adapter.c ****     cm_param.write_buf_size = CONFIG_MQTT_TX_MAXLEN;
  78              		.loc 1 20 36 is_stmt 0
  79 0044 3AC4     		sw	a4,8(sp)
  21:C:/Users/stapi/OneDrive/Desktop/GD32VW553/V1_MQTT_OK/GD32VW55X_Wifi_BLE_SDK/GD32VW55x_RELEASE_V1.0.2/MSDK/cloud/alicloud/src/services/linkkit/dm/client\dm_client_adapter.c ****     cm_param.read_buf_size = CONFIG_MQTT_RX_MAXLEN;
  80              		.loc 1 21 5 is_stmt 1
  22:C:/Users/stapi/OneDrive/Desktop/GD32VW553/V1_MQTT_OK/GD32VW55X_Wifi_BLE_SDK/GD32VW55x_RELEASE_V1.0.2/MSDK/cloud/alicloud/src/services/linkkit/dm/client\dm_client_adapter.c **** #if defined(COAP_COMM_ENABLED) && !defined(MQTT_COMM_ENABLED)
  81              		.loc 1 22 5
  26:C:/Users/stapi/OneDrive/Desktop/GD32VW553/V1_MQTT_OK/GD32VW55X_Wifi_BLE_SDK/GD32VW55x_RELEASE_V1.0.2/MSDK/cloud/alicloud/src/services/linkkit/dm/client\dm_client_adapter.c **** #endif
  82              		.loc 1 26 5
  28:C:/Users/stapi/OneDrive/Desktop/GD32VW553/V1_MQTT_OK/GD32VW55X_Wifi_BLE_SDK/GD32VW55x_RELEASE_V1.0.2/MSDK/cloud/alicloud/src/services/linkkit/dm/client\dm_client_adapter.c **** 
  83              		.loc 1 28 5
  28:C:/Users/stapi/OneDrive/Desktop/GD32VW553/V1_MQTT_OK/GD32VW55X_Wifi_BLE_SDK/GD32VW55x_RELEASE_V1.0.2/MSDK/cloud/alicloud/src/services/linkkit/dm/client\dm_client_adapter.c **** 
  84              		.loc 1 28 27 is_stmt 0
  85 0046 3ECC     		sw	a5,24(sp)
  86              		.loc 1 30 5 is_stmt 1
  87              		.loc 1 30 11 is_stmt 0
  88 0048 97000000 		call	iotx_cm_open
  88      E7800000 
  89              	.LVL1:
  31:C:/Users/stapi/OneDrive/Desktop/GD32VW553/V1_MQTT_OK/GD32VW55X_Wifi_BLE_SDK/GD32VW55x_RELEASE_V1.0.2/MSDK/cloud/alicloud/src/services/linkkit/dm/client\dm_client_adapter.c **** 
  32:C:/Users/stapi/OneDrive/Desktop/GD32VW553/V1_MQTT_OK/GD32VW55X_Wifi_BLE_SDK/GD32VW55x_RELEASE_V1.0.2/MSDK/cloud/alicloud/src/services/linkkit/dm/client\dm_client_adapter.c ****     if (res < SUCCESS_RETURN) {
  90              		.loc 1 32 5 is_stmt 1
  91              		.loc 1 32 8 is_stmt 0
  92 0050 634D0502 		blt	a0,zero,.L1
  33:C:/Users/stapi/OneDrive/Desktop/GD32VW553/V1_MQTT_OK/GD32VW55X_Wifi_BLE_SDK/GD32VW55x_RELEASE_V1.0.2/MSDK/cloud/alicloud/src/services/linkkit/dm/client\dm_client_adapter.c ****         return res;
  34:C:/Users/stapi/OneDrive/Desktop/GD32VW553/V1_MQTT_OK/GD32VW55X_Wifi_BLE_SDK/GD32VW55x_RELEASE_V1.0.2/MSDK/cloud/alicloud/src/services/linkkit/dm/client\dm_client_adapter.c ****     }
  35:C:/Users/stapi/OneDrive/Desktop/GD32VW553/V1_MQTT_OK/GD32VW55X_Wifi_BLE_SDK/GD32VW55x_RELEASE_V1.0.2/MSDK/cloud/alicloud/src/services/linkkit/dm/client\dm_client_adapter.c ****     ctx->fd = res;
  93              		.loc 1 35 5 is_stmt 1
  94              		.loc 1 35 13 is_stmt 0
  95 0054 08C0     		sw	a0,0(s0)
  36:C:/Users/stapi/OneDrive/Desktop/GD32VW553/V1_MQTT_OK/GD32VW55X_Wifi_BLE_SDK/GD32VW55x_RELEASE_V1.0.2/MSDK/cloud/alicloud/src/services/linkkit/dm/client\dm_client_adapter.c **** 
  37:C:/Users/stapi/OneDrive/Desktop/GD32VW553/V1_MQTT_OK/GD32VW55X_Wifi_BLE_SDK/GD32VW55x_RELEASE_V1.0.2/MSDK/cloud/alicloud/src/services/linkkit/dm/client\dm_client_adapter.c ****     dm_log_info("CM Fd: %d", ctx->fd);
  96              		.loc 1 37 5 is_stmt 1
  97              		.loc 1 37 5
  98 0056 37050000 		lui	a0,%hi(.LC0)
  99              	.LVL2:
 100 005a 13050500 		addi	a0,a0,%lo(.LC0)
 101 005e 97000000 		call	HAL_Printf
 101      E7800000 
 102              	.LVL3:
 103              		.loc 1 37 5
 104 0066 0C40     		lw	a1,0(s0)
 105 0068 37050000 		lui	a0,%hi(.LC1)
 106 006c 13050500 		addi	a0,a0,%lo(.LC1)
 107 0070 97000000 		call	HAL_Printf
 107      E7800000 
 108              	.LVL4:
 109              		.loc 1 37 5
 110 0078 37050000 		lui	a0,%hi(.LC2)
 111 007c 13050500 		addi	a0,a0,%lo(.LC2)
 112 0080 97000000 		call	HAL_Printf
 112      E7800000 
 113              	.LVL5:
 114              		.loc 1 37 5
  38:C:/Users/stapi/OneDrive/Desktop/GD32VW553/V1_MQTT_OK/GD32VW55X_Wifi_BLE_SDK/GD32VW55x_RELEASE_V1.0.2/MSDK/cloud/alicloud/src/services/linkkit/dm/client\dm_client_adapter.c **** 
  39:C:/Users/stapi/OneDrive/Desktop/GD32VW553/V1_MQTT_OK/GD32VW55X_Wifi_BLE_SDK/GD32VW55x_RELEASE_V1.0.2/MSDK/cloud/alicloud/src/services/linkkit/dm/client\dm_client_adapter.c ****     return SUCCESS_RETURN;
 115              		.loc 1 39 5
 116              		.loc 1 39 12 is_stmt 0
 117 0088 0145     		li	a0,0
 118              	.L1:
  40:C:/Users/stapi/OneDrive/Desktop/GD32VW553/V1_MQTT_OK/GD32VW55X_Wifi_BLE_SDK/GD32VW55x_RELEASE_V1.0.2/MSDK/cloud/alicloud/src/services/linkkit/dm/client\dm_client_adapter.c **** }
 119              		.loc 1 40 1
 120 008a 0561     		addi	sp,sp,32
 121              		.cfi_def_cfa_offset 0
 122 008c 17030000 		tail	__riscv_restore_1
 122      67000300 
 123              		.cfi_restore 8
 124              		.cfi_restore 1
 125              		.cfi_def_cfa_offset -16
 126              		.cfi_endproc
 127              	.LFE21:
 129              		.section	.text.dm_client_connect,"ax",@progbits
 130              		.align	1
 131              		.globl	dm_client_connect
 133              	dm_client_connect:
 134              	.LFB22:
  41:C:/Users/stapi/OneDrive/Desktop/GD32VW553/V1_MQTT_OK/GD32VW55X_Wifi_BLE_SDK/GD32VW55x_RELEASE_V1.0.2/MSDK/cloud/alicloud/src/services/linkkit/dm/client\dm_client_adapter.c **** 
  42:C:/Users/stapi/OneDrive/Desktop/GD32VW553/V1_MQTT_OK/GD32VW55X_Wifi_BLE_SDK/GD32VW55x_RELEASE_V1.0.2/MSDK/cloud/alicloud/src/services/linkkit/dm/client\dm_client_adapter.c **** #if (CONFIG_SDK_THREAD_COST == 1)
  43:C:/Users/stapi/OneDrive/Desktop/GD32VW553/V1_MQTT_OK/GD32VW55X_Wifi_BLE_SDK/GD32VW55x_RELEASE_V1.0.2/MSDK/cloud/alicloud/src/services/linkkit/dm/client\dm_client_adapter.c **** static void *_iotx_cm_reconnect_thread_func(void *params);
  44:C:/Users/stapi/OneDrive/Desktop/GD32VW553/V1_MQTT_OK/GD32VW55X_Wifi_BLE_SDK/GD32VW55x_RELEASE_V1.0.2/MSDK/cloud/alicloud/src/services/linkkit/dm/client\dm_client_adapter.c **** static void *reconnect_thread = NULL;
  45:C:/Users/stapi/OneDrive/Desktop/GD32VW553/V1_MQTT_OK/GD32VW55X_Wifi_BLE_SDK/GD32VW55x_RELEASE_V1.0.2/MSDK/cloud/alicloud/src/services/linkkit/dm/client\dm_client_adapter.c **** static int reconnect_task_leave = 1;
  46:C:/Users/stapi/OneDrive/Desktop/GD32VW553/V1_MQTT_OK/GD32VW55X_Wifi_BLE_SDK/GD32VW55x_RELEASE_V1.0.2/MSDK/cloud/alicloud/src/services/linkkit/dm/client\dm_client_adapter.c **** static int reconnect_task_exit = 0;
  47:C:/Users/stapi/OneDrive/Desktop/GD32VW553/V1_MQTT_OK/GD32VW55X_Wifi_BLE_SDK/GD32VW55x_RELEASE_V1.0.2/MSDK/cloud/alicloud/src/services/linkkit/dm/client\dm_client_adapter.c **** 
  48:C:/Users/stapi/OneDrive/Desktop/GD32VW553/V1_MQTT_OK/GD32VW55X_Wifi_BLE_SDK/GD32VW55x_RELEASE_V1.0.2/MSDK/cloud/alicloud/src/services/linkkit/dm/client\dm_client_adapter.c **** static void *_iotx_cm_reconnect_thread_func(void *params)
  49:C:/Users/stapi/OneDrive/Desktop/GD32VW553/V1_MQTT_OK/GD32VW55X_Wifi_BLE_SDK/GD32VW55x_RELEASE_V1.0.2/MSDK/cloud/alicloud/src/services/linkkit/dm/client\dm_client_adapter.c **** {
  50:C:/Users/stapi/OneDrive/Desktop/GD32VW553/V1_MQTT_OK/GD32VW55X_Wifi_BLE_SDK/GD32VW55x_RELEASE_V1.0.2/MSDK/cloud/alicloud/src/services/linkkit/dm/client\dm_client_adapter.c ****     int res = -1;
  51:C:/Users/stapi/OneDrive/Desktop/GD32VW553/V1_MQTT_OK/GD32VW55X_Wifi_BLE_SDK/GD32VW55x_RELEASE_V1.0.2/MSDK/cloud/alicloud/src/services/linkkit/dm/client\dm_client_adapter.c ****     int timeout_ms = IOTX_DM_CLIENT_CONNECT_TIMEOUT_MS;
  52:C:/Users/stapi/OneDrive/Desktop/GD32VW553/V1_MQTT_OK/GD32VW55X_Wifi_BLE_SDK/GD32VW55x_RELEASE_V1.0.2/MSDK/cloud/alicloud/src/services/linkkit/dm/client\dm_client_adapter.c ****     dm_client_ctx_t *ctx = dm_client_get_ctx();
  53:C:/Users/stapi/OneDrive/Desktop/GD32VW553/V1_MQTT_OK/GD32VW55X_Wifi_BLE_SDK/GD32VW55x_RELEASE_V1.0.2/MSDK/cloud/alicloud/src/services/linkkit/dm/client\dm_client_adapter.c **** 
  54:C:/Users/stapi/OneDrive/Desktop/GD32VW553/V1_MQTT_OK/GD32VW55X_Wifi_BLE_SDK/GD32VW55x_RELEASE_V1.0.2/MSDK/cloud/alicloud/src/services/linkkit/dm/client\dm_client_adapter.c ****     reconnect_task_exit = 0;
  55:C:/Users/stapi/OneDrive/Desktop/GD32VW553/V1_MQTT_OK/GD32VW55X_Wifi_BLE_SDK/GD32VW55x_RELEASE_V1.0.2/MSDK/cloud/alicloud/src/services/linkkit/dm/client\dm_client_adapter.c ****     reconnect_task_leave = 0;
  56:C:/Users/stapi/OneDrive/Desktop/GD32VW553/V1_MQTT_OK/GD32VW55X_Wifi_BLE_SDK/GD32VW55x_RELEASE_V1.0.2/MSDK/cloud/alicloud/src/services/linkkit/dm/client\dm_client_adapter.c ****     while (res < SUCCESS_RETURN && (reconnect_task_exit == 0)) {
  57:C:/Users/stapi/OneDrive/Desktop/GD32VW553/V1_MQTT_OK/GD32VW55X_Wifi_BLE_SDK/GD32VW55x_RELEASE_V1.0.2/MSDK/cloud/alicloud/src/services/linkkit/dm/client\dm_client_adapter.c ****         dm_log_info("iotx_cm_connect, timeout_ms:%d", timeout_ms);
  58:C:/Users/stapi/OneDrive/Desktop/GD32VW553/V1_MQTT_OK/GD32VW55X_Wifi_BLE_SDK/GD32VW55x_RELEASE_V1.0.2/MSDK/cloud/alicloud/src/services/linkkit/dm/client\dm_client_adapter.c ****         res = iotx_cm_connect(ctx->fd, timeout_ms);
  59:C:/Users/stapi/OneDrive/Desktop/GD32VW553/V1_MQTT_OK/GD32VW55X_Wifi_BLE_SDK/GD32VW55x_RELEASE_V1.0.2/MSDK/cloud/alicloud/src/services/linkkit/dm/client\dm_client_adapter.c ****         dm_log_info("iotx_cm_connect, res:%d", res);
  60:C:/Users/stapi/OneDrive/Desktop/GD32VW553/V1_MQTT_OK/GD32VW55X_Wifi_BLE_SDK/GD32VW55x_RELEASE_V1.0.2/MSDK/cloud/alicloud/src/services/linkkit/dm/client\dm_client_adapter.c ****         HAL_SleepMs(10000);
  61:C:/Users/stapi/OneDrive/Desktop/GD32VW553/V1_MQTT_OK/GD32VW55X_Wifi_BLE_SDK/GD32VW55x_RELEASE_V1.0.2/MSDK/cloud/alicloud/src/services/linkkit/dm/client\dm_client_adapter.c ****     }
  62:C:/Users/stapi/OneDrive/Desktop/GD32VW553/V1_MQTT_OK/GD32VW55X_Wifi_BLE_SDK/GD32VW55x_RELEASE_V1.0.2/MSDK/cloud/alicloud/src/services/linkkit/dm/client\dm_client_adapter.c ****     reconnect_task_leave = 1;
  63:C:/Users/stapi/OneDrive/Desktop/GD32VW553/V1_MQTT_OK/GD32VW55X_Wifi_BLE_SDK/GD32VW55x_RELEASE_V1.0.2/MSDK/cloud/alicloud/src/services/linkkit/dm/client\dm_client_adapter.c **** 
  64:C:/Users/stapi/OneDrive/Desktop/GD32VW553/V1_MQTT_OK/GD32VW55X_Wifi_BLE_SDK/GD32VW55x_RELEASE_V1.0.2/MSDK/cloud/alicloud/src/services/linkkit/dm/client\dm_client_adapter.c ****     if (reconnect_thread != NULL) {
  65:C:/Users/stapi/OneDrive/Desktop/GD32VW553/V1_MQTT_OK/GD32VW55X_Wifi_BLE_SDK/GD32VW55x_RELEASE_V1.0.2/MSDK/cloud/alicloud/src/services/linkkit/dm/client\dm_client_adapter.c ****         HAL_ThreadDelete(reconnect_thread);
  66:C:/Users/stapi/OneDrive/Desktop/GD32VW553/V1_MQTT_OK/GD32VW55X_Wifi_BLE_SDK/GD32VW55x_RELEASE_V1.0.2/MSDK/cloud/alicloud/src/services/linkkit/dm/client\dm_client_adapter.c ****         reconnect_thread = NULL;
  67:C:/Users/stapi/OneDrive/Desktop/GD32VW553/V1_MQTT_OK/GD32VW55X_Wifi_BLE_SDK/GD32VW55x_RELEASE_V1.0.2/MSDK/cloud/alicloud/src/services/linkkit/dm/client\dm_client_adapter.c ****     }
  68:C:/Users/stapi/OneDrive/Desktop/GD32VW553/V1_MQTT_OK/GD32VW55X_Wifi_BLE_SDK/GD32VW55x_RELEASE_V1.0.2/MSDK/cloud/alicloud/src/services/linkkit/dm/client\dm_client_adapter.c ****     return NULL;
  69:C:/Users/stapi/OneDrive/Desktop/GD32VW553/V1_MQTT_OK/GD32VW55X_Wifi_BLE_SDK/GD32VW55x_RELEASE_V1.0.2/MSDK/cloud/alicloud/src/services/linkkit/dm/client\dm_client_adapter.c **** }
  70:C:/Users/stapi/OneDrive/Desktop/GD32VW553/V1_MQTT_OK/GD32VW55X_Wifi_BLE_SDK/GD32VW55x_RELEASE_V1.0.2/MSDK/cloud/alicloud/src/services/linkkit/dm/client\dm_client_adapter.c **** #endif
  71:C:/Users/stapi/OneDrive/Desktop/GD32VW553/V1_MQTT_OK/GD32VW55X_Wifi_BLE_SDK/GD32VW55x_RELEASE_V1.0.2/MSDK/cloud/alicloud/src/services/linkkit/dm/client\dm_client_adapter.c **** 
  72:C:/Users/stapi/OneDrive/Desktop/GD32VW553/V1_MQTT_OK/GD32VW55X_Wifi_BLE_SDK/GD32VW55x_RELEASE_V1.0.2/MSDK/cloud/alicloud/src/services/linkkit/dm/client\dm_client_adapter.c **** int dm_client_connect(int timeout_ms)
  73:C:/Users/stapi/OneDrive/Desktop/GD32VW553/V1_MQTT_OK/GD32VW55X_Wifi_BLE_SDK/GD32VW55x_RELEASE_V1.0.2/MSDK/cloud/alicloud/src/services/linkkit/dm/client\dm_client_adapter.c **** {
 135              		.loc 1 73 1 is_stmt 1
 136              		.cfi_startproc
 137              	.LVL6:
 138 0000 17030000 		call	t0,__riscv_save_1
 138      E7020300 
 139              		.cfi_offset 8, -8
 140              		.cfi_offset 1, -4
 141              		.cfi_def_cfa_offset 16
  74:C:/Users/stapi/OneDrive/Desktop/GD32VW553/V1_MQTT_OK/GD32VW55X_Wifi_BLE_SDK/GD32VW55x_RELEASE_V1.0.2/MSDK/cloud/alicloud/src/services/linkkit/dm/client\dm_client_adapter.c ****     int res = SUCCESS_RETURN;
 142              		.loc 1 74 5
 143              	.LVL7:
  75:C:/Users/stapi/OneDrive/Desktop/GD32VW553/V1_MQTT_OK/GD32VW55X_Wifi_BLE_SDK/GD32VW55x_RELEASE_V1.0.2/MSDK/cloud/alicloud/src/services/linkkit/dm/client\dm_client_adapter.c ****     dm_client_ctx_t *ctx = dm_client_get_ctx();
 144              		.loc 1 75 5
   7:C:/Users/stapi/OneDrive/Desktop/GD32VW553/V1_MQTT_OK/GD32VW55X_Wifi_BLE_SDK/GD32VW55x_RELEASE_V1.0.2/MSDK/cloud/alicloud/src/services/linkkit/dm/client\dm_client_adapter.c **** }
 145              		.loc 1 7 5
  76:C:/Users/stapi/OneDrive/Desktop/GD32VW553/V1_MQTT_OK/GD32VW55X_Wifi_BLE_SDK/GD32VW55x_RELEASE_V1.0.2/MSDK/cloud/alicloud/src/services/linkkit/dm/client\dm_client_adapter.c **** 
  77:C:/Users/stapi/OneDrive/Desktop/GD32VW553/V1_MQTT_OK/GD32VW55X_Wifi_BLE_SDK/GD32VW55x_RELEASE_V1.0.2/MSDK/cloud/alicloud/src/services/linkkit/dm/client\dm_client_adapter.c ****     if (ctx->fd == -1) {
 146              		.loc 1 77 5
 147              		.loc 1 77 12 is_stmt 0
 148 0008 B7070000 		lui	a5,%hi(.LANCHOR0)
 149              		.loc 1 77 8
 150 000c 83A60700 		lw	a3,%lo(.LANCHOR0)(a5)
 151 0010 7D57     		li	a4,-1
  73:C:/Users/stapi/OneDrive/Desktop/GD32VW553/V1_MQTT_OK/GD32VW55X_Wifi_BLE_SDK/GD32VW55x_RELEASE_V1.0.2/MSDK/cloud/alicloud/src/services/linkkit/dm/client\dm_client_adapter.c ****     int res = SUCCESS_RETURN;
 152              		.loc 1 73 1
 153 0012 4111     		addi	sp,sp,-16
 154              		.cfi_def_cfa_offset 32
  73:C:/Users/stapi/OneDrive/Desktop/GD32VW553/V1_MQTT_OK/GD32VW55X_Wifi_BLE_SDK/GD32VW55x_RELEASE_V1.0.2/MSDK/cloud/alicloud/src/services/linkkit/dm/client\dm_client_adapter.c ****     int res = SUCCESS_RETURN;
 155              		.loc 1 73 1
 156 0014 AA85     		mv	a1,a0
 157 0016 13840700 		addi	s0,a5,%lo(.LANCHOR0)
 158              		.loc 1 77 8
 159 001a 638CE600 		beq	a3,a4,.L5
 160              	.LVL8:
 161              	.L7:
  78:C:/Users/stapi/OneDrive/Desktop/GD32VW553/V1_MQTT_OK/GD32VW55X_Wifi_BLE_SDK/GD32VW55x_RELEASE_V1.0.2/MSDK/cloud/alicloud/src/services/linkkit/dm/client\dm_client_adapter.c ****         res = dm_client_open();
  79:C:/Users/stapi/OneDrive/Desktop/GD32VW553/V1_MQTT_OK/GD32VW55X_Wifi_BLE_SDK/GD32VW55x_RELEASE_V1.0.2/MSDK/cloud/alicloud/src/services/linkkit/dm/client\dm_client_adapter.c ****     }
  80:C:/Users/stapi/OneDrive/Desktop/GD32VW553/V1_MQTT_OK/GD32VW55X_Wifi_BLE_SDK/GD32VW55x_RELEASE_V1.0.2/MSDK/cloud/alicloud/src/services/linkkit/dm/client\dm_client_adapter.c **** 
  81:C:/Users/stapi/OneDrive/Desktop/GD32VW553/V1_MQTT_OK/GD32VW55X_Wifi_BLE_SDK/GD32VW55x_RELEASE_V1.0.2/MSDK/cloud/alicloud/src/services/linkkit/dm/client\dm_client_adapter.c ****     if (res != SUCCESS_RETURN) {
  82:C:/Users/stapi/OneDrive/Desktop/GD32VW553/V1_MQTT_OK/GD32VW55X_Wifi_BLE_SDK/GD32VW55x_RELEASE_V1.0.2/MSDK/cloud/alicloud/src/services/linkkit/dm/client\dm_client_adapter.c ****         return res;
  83:C:/Users/stapi/OneDrive/Desktop/GD32VW553/V1_MQTT_OK/GD32VW55X_Wifi_BLE_SDK/GD32VW55x_RELEASE_V1.0.2/MSDK/cloud/alicloud/src/services/linkkit/dm/client\dm_client_adapter.c ****     }
  84:C:/Users/stapi/OneDrive/Desktop/GD32VW553/V1_MQTT_OK/GD32VW55X_Wifi_BLE_SDK/GD32VW55x_RELEASE_V1.0.2/MSDK/cloud/alicloud/src/services/linkkit/dm/client\dm_client_adapter.c **** 
  85:C:/Users/stapi/OneDrive/Desktop/GD32VW553/V1_MQTT_OK/GD32VW55X_Wifi_BLE_SDK/GD32VW55x_RELEASE_V1.0.2/MSDK/cloud/alicloud/src/services/linkkit/dm/client\dm_client_adapter.c **** #if (CONFIG_SDK_THREAD_COST == 1)
  86:C:/Users/stapi/OneDrive/Desktop/GD32VW553/V1_MQTT_OK/GD32VW55X_Wifi_BLE_SDK/GD32VW55x_RELEASE_V1.0.2/MSDK/cloud/alicloud/src/services/linkkit/dm/client\dm_client_adapter.c ****     int stack_used;
  87:C:/Users/stapi/OneDrive/Desktop/GD32VW553/V1_MQTT_OK/GD32VW55X_Wifi_BLE_SDK/GD32VW55x_RELEASE_V1.0.2/MSDK/cloud/alicloud/src/services/linkkit/dm/client\dm_client_adapter.c ****     hal_os_thread_param_t task_parms = {0};
  88:C:/Users/stapi/OneDrive/Desktop/GD32VW553/V1_MQTT_OK/GD32VW55X_Wifi_BLE_SDK/GD32VW55x_RELEASE_V1.0.2/MSDK/cloud/alicloud/src/services/linkkit/dm/client\dm_client_adapter.c **** #if (defined (TG7100CEVB))
  89:C:/Users/stapi/OneDrive/Desktop/GD32VW553/V1_MQTT_OK/GD32VW55X_Wifi_BLE_SDK/GD32VW55x_RELEASE_V1.0.2/MSDK/cloud/alicloud/src/services/linkkit/dm/client\dm_client_adapter.c ****     task_parms.stack_size = 6144 + 128;
  90:C:/Users/stapi/OneDrive/Desktop/GD32VW553/V1_MQTT_OK/GD32VW55X_Wifi_BLE_SDK/GD32VW55x_RELEASE_V1.0.2/MSDK/cloud/alicloud/src/services/linkkit/dm/client\dm_client_adapter.c **** #else
  91:C:/Users/stapi/OneDrive/Desktop/GD32VW553/V1_MQTT_OK/GD32VW55X_Wifi_BLE_SDK/GD32VW55x_RELEASE_V1.0.2/MSDK/cloud/alicloud/src/services/linkkit/dm/client\dm_client_adapter.c ****     task_parms.stack_size = 6144;
  92:C:/Users/stapi/OneDrive/Desktop/GD32VW553/V1_MQTT_OK/GD32VW55X_Wifi_BLE_SDK/GD32VW55x_RELEASE_V1.0.2/MSDK/cloud/alicloud/src/services/linkkit/dm/client\dm_client_adapter.c **** #endif
  93:C:/Users/stapi/OneDrive/Desktop/GD32VW553/V1_MQTT_OK/GD32VW55X_Wifi_BLE_SDK/GD32VW55x_RELEASE_V1.0.2/MSDK/cloud/alicloud/src/services/linkkit/dm/client\dm_client_adapter.c ****     task_parms.name = "cm_reconnect";
  94:C:/Users/stapi/OneDrive/Desktop/GD32VW553/V1_MQTT_OK/GD32VW55X_Wifi_BLE_SDK/GD32VW55x_RELEASE_V1.0.2/MSDK/cloud/alicloud/src/services/linkkit/dm/client\dm_client_adapter.c ****     res = HAL_ThreadCreate(&reconnect_thread, _iotx_cm_reconnect_thread_func, NULL, &task_parms, &s
  95:C:/Users/stapi/OneDrive/Desktop/GD32VW553/V1_MQTT_OK/GD32VW55X_Wifi_BLE_SDK/GD32VW55x_RELEASE_V1.0.2/MSDK/cloud/alicloud/src/services/linkkit/dm/client\dm_client_adapter.c **** #else
  96:C:/Users/stapi/OneDrive/Desktop/GD32VW553/V1_MQTT_OK/GD32VW55X_Wifi_BLE_SDK/GD32VW55x_RELEASE_V1.0.2/MSDK/cloud/alicloud/src/services/linkkit/dm/client\dm_client_adapter.c ****     res = iotx_cm_connect(ctx->fd, timeout_ms);
 162              		.loc 1 96 5 is_stmt 1
 163              		.loc 1 96 11 is_stmt 0
 164 001e 0840     		lw	a0,0(s0)
 165 0020 97000000 		call	iotx_cm_connect
 165      E7800000 
 166              	.LVL9:
  97:C:/Users/stapi/OneDrive/Desktop/GD32VW553/V1_MQTT_OK/GD32VW55X_Wifi_BLE_SDK/GD32VW55x_RELEASE_V1.0.2/MSDK/cloud/alicloud/src/services/linkkit/dm/client\dm_client_adapter.c ****     if (res < SUCCESS_RETURN) {
 167              		.loc 1 97 5 is_stmt 1
 168              	.L4:
  98:C:/Users/stapi/OneDrive/Desktop/GD32VW553/V1_MQTT_OK/GD32VW55X_Wifi_BLE_SDK/GD32VW55x_RELEASE_V1.0.2/MSDK/cloud/alicloud/src/services/linkkit/dm/client\dm_client_adapter.c ****         return res;
  99:C:/Users/stapi/OneDrive/Desktop/GD32VW553/V1_MQTT_OK/GD32VW55X_Wifi_BLE_SDK/GD32VW55x_RELEASE_V1.0.2/MSDK/cloud/alicloud/src/services/linkkit/dm/client\dm_client_adapter.c ****     }
 100:C:/Users/stapi/OneDrive/Desktop/GD32VW553/V1_MQTT_OK/GD32VW55X_Wifi_BLE_SDK/GD32VW55x_RELEASE_V1.0.2/MSDK/cloud/alicloud/src/services/linkkit/dm/client\dm_client_adapter.c **** #endif
 101:C:/Users/stapi/OneDrive/Desktop/GD32VW553/V1_MQTT_OK/GD32VW55X_Wifi_BLE_SDK/GD32VW55x_RELEASE_V1.0.2/MSDK/cloud/alicloud/src/services/linkkit/dm/client\dm_client_adapter.c **** 
 102:C:/Users/stapi/OneDrive/Desktop/GD32VW553/V1_MQTT_OK/GD32VW55X_Wifi_BLE_SDK/GD32VW55x_RELEASE_V1.0.2/MSDK/cloud/alicloud/src/services/linkkit/dm/client\dm_client_adapter.c ****     return res;
 103:C:/Users/stapi/OneDrive/Desktop/GD32VW553/V1_MQTT_OK/GD32VW55X_Wifi_BLE_SDK/GD32VW55x_RELEASE_V1.0.2/MSDK/cloud/alicloud/src/services/linkkit/dm/client\dm_client_adapter.c **** }
 169              		.loc 1 103 1 is_stmt 0
 170 0028 4101     		addi	sp,sp,16
 171              		.cfi_remember_state
 172              		.cfi_def_cfa_offset 0
 173 002a 17030000 		tail	__riscv_restore_1
 173      67000300 
 174              		.cfi_restore 8
 175              		.cfi_restore 1
 176              		.cfi_def_cfa_offset -16
 177              	.LVL10:
 178              	.L5:
 179              		.cfi_restore_state
 180 0032 2AC6     		sw	a0,12(sp)
  78:C:/Users/stapi/OneDrive/Desktop/GD32VW553/V1_MQTT_OK/GD32VW55X_Wifi_BLE_SDK/GD32VW55x_RELEASE_V1.0.2/MSDK/cloud/alicloud/src/services/linkkit/dm/client\dm_client_adapter.c ****     }
 181              		.loc 1 78 9 is_stmt 1
  78:C:/Users/stapi/OneDrive/Desktop/GD32VW553/V1_MQTT_OK/GD32VW55X_Wifi_BLE_SDK/GD32VW55x_RELEASE_V1.0.2/MSDK/cloud/alicloud/src/services/linkkit/dm/client\dm_client_adapter.c ****     }
 182              		.loc 1 78 15 is_stmt 0
 183 0034 97000000 		call	dm_client_open
 183      E7800000 
 184              	.LVL11:
  81:C:/Users/stapi/OneDrive/Desktop/GD32VW553/V1_MQTT_OK/GD32VW55X_Wifi_BLE_SDK/GD32VW55x_RELEASE_V1.0.2/MSDK/cloud/alicloud/src/services/linkkit/dm/client\dm_client_adapter.c ****         return res;
 185              		.loc 1 81 5 is_stmt 1
  81:C:/Users/stapi/OneDrive/Desktop/GD32VW553/V1_MQTT_OK/GD32VW55X_Wifi_BLE_SDK/GD32VW55x_RELEASE_V1.0.2/MSDK/cloud/alicloud/src/services/linkkit/dm/client\dm_client_adapter.c ****         return res;
 186              		.loc 1 81 8 is_stmt 0
 187 003c B245     		lw	a1,12(sp)
 188 003e 65D1     		beq	a0,zero,.L7
 189 0040 E5B7     		j	.L4
 190              		.cfi_endproc
 191              	.LFE22:
 193              		.section	.text.dm_client_close,"ax",@progbits
 194              		.align	1
 195              		.globl	dm_client_close
 197              	dm_client_close:
 198              	.LFB23:
 104:C:/Users/stapi/OneDrive/Desktop/GD32VW553/V1_MQTT_OK/GD32VW55X_Wifi_BLE_SDK/GD32VW55x_RELEASE_V1.0.2/MSDK/cloud/alicloud/src/services/linkkit/dm/client\dm_client_adapter.c **** 
 105:C:/Users/stapi/OneDrive/Desktop/GD32VW553/V1_MQTT_OK/GD32VW55X_Wifi_BLE_SDK/GD32VW55x_RELEASE_V1.0.2/MSDK/cloud/alicloud/src/services/linkkit/dm/client\dm_client_adapter.c **** int dm_client_close(void)
 106:C:/Users/stapi/OneDrive/Desktop/GD32VW553/V1_MQTT_OK/GD32VW55X_Wifi_BLE_SDK/GD32VW55x_RELEASE_V1.0.2/MSDK/cloud/alicloud/src/services/linkkit/dm/client\dm_client_adapter.c **** {
 199              		.loc 1 106 1 is_stmt 1
 200              		.cfi_startproc
 201 0000 17030000 		call	t0,__riscv_save_1
 201      E7020300 
 202              		.cfi_offset 8, -8
 203              		.cfi_offset 1, -4
 204              		.cfi_def_cfa_offset 16
 107:C:/Users/stapi/OneDrive/Desktop/GD32VW553/V1_MQTT_OK/GD32VW55X_Wifi_BLE_SDK/GD32VW55x_RELEASE_V1.0.2/MSDK/cloud/alicloud/src/services/linkkit/dm/client\dm_client_adapter.c ****     int ret;
 205              		.loc 1 107 5
 108:C:/Users/stapi/OneDrive/Desktop/GD32VW553/V1_MQTT_OK/GD32VW55X_Wifi_BLE_SDK/GD32VW55x_RELEASE_V1.0.2/MSDK/cloud/alicloud/src/services/linkkit/dm/client\dm_client_adapter.c **** 
 109:C:/Users/stapi/OneDrive/Desktop/GD32VW553/V1_MQTT_OK/GD32VW55X_Wifi_BLE_SDK/GD32VW55x_RELEASE_V1.0.2/MSDK/cloud/alicloud/src/services/linkkit/dm/client\dm_client_adapter.c ****     dm_client_ctx_t *ctx = dm_client_get_ctx();
 206              		.loc 1 109 5
   7:C:/Users/stapi/OneDrive/Desktop/GD32VW553/V1_MQTT_OK/GD32VW55X_Wifi_BLE_SDK/GD32VW55x_RELEASE_V1.0.2/MSDK/cloud/alicloud/src/services/linkkit/dm/client\dm_client_adapter.c **** }
 207              		.loc 1 7 5
 208              	.LVL12:
 110:C:/Users/stapi/OneDrive/Desktop/GD32VW553/V1_MQTT_OK/GD32VW55X_Wifi_BLE_SDK/GD32VW55x_RELEASE_V1.0.2/MSDK/cloud/alicloud/src/services/linkkit/dm/client\dm_client_adapter.c **** 
 111:C:/Users/stapi/OneDrive/Desktop/GD32VW553/V1_MQTT_OK/GD32VW55X_Wifi_BLE_SDK/GD32VW55x_RELEASE_V1.0.2/MSDK/cloud/alicloud/src/services/linkkit/dm/client\dm_client_adapter.c **** #if (CONFIG_SDK_THREAD_COST == 1)
 112:C:/Users/stapi/OneDrive/Desktop/GD32VW553/V1_MQTT_OK/GD32VW55X_Wifi_BLE_SDK/GD32VW55x_RELEASE_V1.0.2/MSDK/cloud/alicloud/src/services/linkkit/dm/client\dm_client_adapter.c ****     reconnect_task_exit = 1;
 113:C:/Users/stapi/OneDrive/Desktop/GD32VW553/V1_MQTT_OK/GD32VW55X_Wifi_BLE_SDK/GD32VW55x_RELEASE_V1.0.2/MSDK/cloud/alicloud/src/services/linkkit/dm/client\dm_client_adapter.c ****     while (!reconnect_task_leave) {
 114:C:/Users/stapi/OneDrive/Desktop/GD32VW553/V1_MQTT_OK/GD32VW55X_Wifi_BLE_SDK/GD32VW55x_RELEASE_V1.0.2/MSDK/cloud/alicloud/src/services/linkkit/dm/client\dm_client_adapter.c ****         HAL_SleepMs(10);
 115:C:/Users/stapi/OneDrive/Desktop/GD32VW553/V1_MQTT_OK/GD32VW55X_Wifi_BLE_SDK/GD32VW55x_RELEASE_V1.0.2/MSDK/cloud/alicloud/src/services/linkkit/dm/client\dm_client_adapter.c ****     }
 116:C:/Users/stapi/OneDrive/Desktop/GD32VW553/V1_MQTT_OK/GD32VW55X_Wifi_BLE_SDK/GD32VW55x_RELEASE_V1.0.2/MSDK/cloud/alicloud/src/services/linkkit/dm/client\dm_client_adapter.c ****     if (reconnect_thread != NULL) {
 117:C:/Users/stapi/OneDrive/Desktop/GD32VW553/V1_MQTT_OK/GD32VW55X_Wifi_BLE_SDK/GD32VW55x_RELEASE_V1.0.2/MSDK/cloud/alicloud/src/services/linkkit/dm/client\dm_client_adapter.c ****         HAL_ThreadDelete(reconnect_thread);
 118:C:/Users/stapi/OneDrive/Desktop/GD32VW553/V1_MQTT_OK/GD32VW55X_Wifi_BLE_SDK/GD32VW55x_RELEASE_V1.0.2/MSDK/cloud/alicloud/src/services/linkkit/dm/client\dm_client_adapter.c ****         reconnect_thread = NULL;
 119:C:/Users/stapi/OneDrive/Desktop/GD32VW553/V1_MQTT_OK/GD32VW55X_Wifi_BLE_SDK/GD32VW55x_RELEASE_V1.0.2/MSDK/cloud/alicloud/src/services/linkkit/dm/client\dm_client_adapter.c ****     }
 120:C:/Users/stapi/OneDrive/Desktop/GD32VW553/V1_MQTT_OK/GD32VW55X_Wifi_BLE_SDK/GD32VW55x_RELEASE_V1.0.2/MSDK/cloud/alicloud/src/services/linkkit/dm/client\dm_client_adapter.c **** #endif
 121:C:/Users/stapi/OneDrive/Desktop/GD32VW553/V1_MQTT_OK/GD32VW55X_Wifi_BLE_SDK/GD32VW55x_RELEASE_V1.0.2/MSDK/cloud/alicloud/src/services/linkkit/dm/client\dm_client_adapter.c ****     ret = iotx_cm_close(ctx->fd);
 209              		.loc 1 121 5
 210              		.loc 1 121 11 is_stmt 0
 211 0008 37040000 		lui	s0,%hi(.LANCHOR0)
 212 000c 13040400 		addi	s0,s0,%lo(.LANCHOR0)
 213 0010 0840     		lw	a0,0(s0)
 214 0012 97000000 		call	iotx_cm_close
 214      E7800000 
 215              	.LVL13:
 122:C:/Users/stapi/OneDrive/Desktop/GD32VW553/V1_MQTT_OK/GD32VW55X_Wifi_BLE_SDK/GD32VW55x_RELEASE_V1.0.2/MSDK/cloud/alicloud/src/services/linkkit/dm/client\dm_client_adapter.c ****     if (ret == 0) {
 216              		.loc 1 122 5 is_stmt 1
 217              		.loc 1 122 8 is_stmt 0
 218 001a 19E1     		bne	a0,zero,.L12
 123:C:/Users/stapi/OneDrive/Desktop/GD32VW553/V1_MQTT_OK/GD32VW55X_Wifi_BLE_SDK/GD32VW55x_RELEASE_V1.0.2/MSDK/cloud/alicloud/src/services/linkkit/dm/client\dm_client_adapter.c ****         ctx->fd = -1;
 219              		.loc 1 123 9 is_stmt 1
 220              		.loc 1 123 17 is_stmt 0
 221 001c FD57     		li	a5,-1
 222 001e 1CC0     		sw	a5,0(s0)
 124:C:/Users/stapi/OneDrive/Desktop/GD32VW553/V1_MQTT_OK/GD32VW55X_Wifi_BLE_SDK/GD32VW55x_RELEASE_V1.0.2/MSDK/cloud/alicloud/src/services/linkkit/dm/client\dm_client_adapter.c ****     }
 125:C:/Users/stapi/OneDrive/Desktop/GD32VW553/V1_MQTT_OK/GD32VW55X_Wifi_BLE_SDK/GD32VW55x_RELEASE_V1.0.2/MSDK/cloud/alicloud/src/services/linkkit/dm/client\dm_client_adapter.c **** 
 126:C:/Users/stapi/OneDrive/Desktop/GD32VW553/V1_MQTT_OK/GD32VW55X_Wifi_BLE_SDK/GD32VW55x_RELEASE_V1.0.2/MSDK/cloud/alicloud/src/services/linkkit/dm/client\dm_client_adapter.c ****     return ret;
 223              		.loc 1 126 5 is_stmt 1
 224              	.L12:
 127:C:/Users/stapi/OneDrive/Desktop/GD32VW553/V1_MQTT_OK/GD32VW55X_Wifi_BLE_SDK/GD32VW55x_RELEASE_V1.0.2/MSDK/cloud/alicloud/src/services/linkkit/dm/client\dm_client_adapter.c **** }
 225              		.loc 1 127 1 is_stmt 0
 226 0020 17030000 		tail	__riscv_restore_1
 226      67000300 
 227              		.cfi_restore 8
 228              		.cfi_restore 1
 229              		.cfi_def_cfa_offset 0
 230              		.cfi_endproc
 231              	.LFE23:
 233              		.section	.rodata.dm_client_subscribe.str1.4,"aMS",@progbits,1
 234              		.align	2
 235              	.LC3:
 236 0000 53756273 		.string	"Subscribe Result: %d"
 236      63726962 
 236      65205265 
 236      73756C74 
 236      3A202564 
 237              		.section	.text.dm_client_subscribe,"ax",@progbits
 238              		.align	1
 239              		.globl	dm_client_subscribe
 241              	dm_client_subscribe:
 242              	.LFB24:
 128:C:/Users/stapi/OneDrive/Desktop/GD32VW553/V1_MQTT_OK/GD32VW55X_Wifi_BLE_SDK/GD32VW55x_RELEASE_V1.0.2/MSDK/cloud/alicloud/src/services/linkkit/dm/client\dm_client_adapter.c **** 
 129:C:/Users/stapi/OneDrive/Desktop/GD32VW553/V1_MQTT_OK/GD32VW55X_Wifi_BLE_SDK/GD32VW55x_RELEASE_V1.0.2/MSDK/cloud/alicloud/src/services/linkkit/dm/client\dm_client_adapter.c **** int dm_client_subscribe(char *uri, iotx_cm_data_handle_cb callback, void *context)
 130:C:/Users/stapi/OneDrive/Desktop/GD32VW553/V1_MQTT_OK/GD32VW55X_Wifi_BLE_SDK/GD32VW55x_RELEASE_V1.0.2/MSDK/cloud/alicloud/src/services/linkkit/dm/client\dm_client_adapter.c **** {
 243              		.loc 1 130 1 is_stmt 1
 244              		.cfi_startproc
 245              	.LVL14:
 246 0000 17030000 		call	t0,__riscv_save_1
 246      E7020300 
 247              		.cfi_offset 8, -8
 248              		.cfi_offset 1, -4
 249              		.cfi_def_cfa_offset 16
 131:C:/Users/stapi/OneDrive/Desktop/GD32VW553/V1_MQTT_OK/GD32VW55X_Wifi_BLE_SDK/GD32VW55x_RELEASE_V1.0.2/MSDK/cloud/alicloud/src/services/linkkit/dm/client\dm_client_adapter.c ****     int res = 0;
 250              		.loc 1 131 5
 251              	.LVL15:
 132:C:/Users/stapi/OneDrive/Desktop/GD32VW553/V1_MQTT_OK/GD32VW55X_Wifi_BLE_SDK/GD32VW55x_RELEASE_V1.0.2/MSDK/cloud/alicloud/src/services/linkkit/dm/client\dm_client_adapter.c ****     uint8_t local_sub = 0;
 252              		.loc 1 132 5
 133:C:/Users/stapi/OneDrive/Desktop/GD32VW553/V1_MQTT_OK/GD32VW55X_Wifi_BLE_SDK/GD32VW55x_RELEASE_V1.0.2/MSDK/cloud/alicloud/src/services/linkkit/dm/client\dm_client_adapter.c ****     dm_client_ctx_t *ctx = dm_client_get_ctx();
 253              		.loc 1 133 5
   7:C:/Users/stapi/OneDrive/Desktop/GD32VW553/V1_MQTT_OK/GD32VW55X_Wifi_BLE_SDK/GD32VW55x_RELEASE_V1.0.2/MSDK/cloud/alicloud/src/services/linkkit/dm/client\dm_client_adapter.c **** }
 254              		.loc 1 7 5
 134:C:/Users/stapi/OneDrive/Desktop/GD32VW553/V1_MQTT_OK/GD32VW55X_Wifi_BLE_SDK/GD32VW55x_RELEASE_V1.0.2/MSDK/cloud/alicloud/src/services/linkkit/dm/client\dm_client_adapter.c ****     iotx_cm_ext_params_t sub_params;
 255              		.loc 1 134 5
 135:C:/Users/stapi/OneDrive/Desktop/GD32VW553/V1_MQTT_OK/GD32VW55X_Wifi_BLE_SDK/GD32VW55x_RELEASE_V1.0.2/MSDK/cloud/alicloud/src/services/linkkit/dm/client\dm_client_adapter.c **** 
 136:C:/Users/stapi/OneDrive/Desktop/GD32VW553/V1_MQTT_OK/GD32VW55X_Wifi_BLE_SDK/GD32VW55x_RELEASE_V1.0.2/MSDK/cloud/alicloud/src/services/linkkit/dm/client\dm_client_adapter.c ****     memset(&sub_params, 0, sizeof(iotx_cm_ext_params_t));
 256              		.loc 1 136 5
 130:C:/Users/stapi/OneDrive/Desktop/GD32VW553/V1_MQTT_OK/GD32VW55X_Wifi_BLE_SDK/GD32VW55x_RELEASE_V1.0.2/MSDK/cloud/alicloud/src/services/linkkit/dm/client\dm_client_adapter.c ****     int res = 0;
 257              		.loc 1 130 1 is_stmt 0
 258 0008 0111     		addi	sp,sp,-32
 259              		.cfi_def_cfa_offset 48
 260              		.loc 1 136 5
 261 000a 02C6     		sw	zero,12(sp)
 262 000c 02C8     		sw	zero,16(sp)
 263 000e 02CC     		sw	zero,24(sp)
 264 0010 02CE     		sw	zero,28(sp)
 137:C:/Users/stapi/OneDrive/Desktop/GD32VW553/V1_MQTT_OK/GD32VW55X_Wifi_BLE_SDK/GD32VW55x_RELEASE_V1.0.2/MSDK/cloud/alicloud/src/services/linkkit/dm/client\dm_client_adapter.c ****     if (context != NULL) {
 265              		.loc 1 137 5 is_stmt 1
 130:C:/Users/stapi/OneDrive/Desktop/GD32VW553/V1_MQTT_OK/GD32VW55X_Wifi_BLE_SDK/GD32VW55x_RELEASE_V1.0.2/MSDK/cloud/alicloud/src/services/linkkit/dm/client\dm_client_adapter.c ****     int res = 0;
 266              		.loc 1 130 1 is_stmt 0
 267 0012 AE86     		mv	a3,a1
 268              		.loc 1 137 8
 269 0014 2DCA     		beq	a2,zero,.L16
 138:C:/Users/stapi/OneDrive/Desktop/GD32VW553/V1_MQTT_OK/GD32VW55X_Wifi_BLE_SDK/GD32VW55x_RELEASE_V1.0.2/MSDK/cloud/alicloud/src/services/linkkit/dm/client\dm_client_adapter.c ****         local_sub = *((uint8_t *)context);
 270              		.loc 1 138 9 is_stmt 1
 271              	.LVL16:
 139:C:/Users/stapi/OneDrive/Desktop/GD32VW553/V1_MQTT_OK/GD32VW55X_Wifi_BLE_SDK/GD32VW55x_RELEASE_V1.0.2/MSDK/cloud/alicloud/src/services/linkkit/dm/client\dm_client_adapter.c ****     }
 140:C:/Users/stapi/OneDrive/Desktop/GD32VW553/V1_MQTT_OK/GD32VW55X_Wifi_BLE_SDK/GD32VW55x_RELEASE_V1.0.2/MSDK/cloud/alicloud/src/services/linkkit/dm/client\dm_client_adapter.c **** 
 141:C:/Users/stapi/OneDrive/Desktop/GD32VW553/V1_MQTT_OK/GD32VW55X_Wifi_BLE_SDK/GD32VW55x_RELEASE_V1.0.2/MSDK/cloud/alicloud/src/services/linkkit/dm/client\dm_client_adapter.c ****     if (local_sub == 1) {
 272              		.loc 1 141 5
 273              		.loc 1 141 8 is_stmt 0
 274 0016 03470600 		lbu	a4,0(a2)
 275 001a 8547     		li	a5,1
 276 001c 6315F706 		bne	a4,a5,.L16
 142:C:/Users/stapi/OneDrive/Desktop/GD32VW553/V1_MQTT_OK/GD32VW55X_Wifi_BLE_SDK/GD32VW55x_RELEASE_V1.0.2/MSDK/cloud/alicloud/src/services/linkkit/dm/client\dm_client_adapter.c ****         sub_params.ack_type = IOTX_CM_MESSAGE_SUB_LOCAL;
 277              		.loc 1 142 9 is_stmt 1
 278              		.loc 1 142 29 is_stmt 0
 279 0020 8947     		li	a5,2
 280 0022 3EC6     		sw	a5,12(sp)
 143:C:/Users/stapi/OneDrive/Desktop/GD32VW553/V1_MQTT_OK/GD32VW55X_Wifi_BLE_SDK/GD32VW55x_RELEASE_V1.0.2/MSDK/cloud/alicloud/src/services/linkkit/dm/client\dm_client_adapter.c ****         sub_params.sync_mode = IOTX_CM_ASYNC;
 281              		.loc 1 143 9 is_stmt 1
 282              	.LVL17:
 283              	.L17:
 144:C:/Users/stapi/OneDrive/Desktop/GD32VW553/V1_MQTT_OK/GD32VW55X_Wifi_BLE_SDK/GD32VW55x_RELEASE_V1.0.2/MSDK/cloud/alicloud/src/services/linkkit/dm/client\dm_client_adapter.c ****     } else {
 145:C:/Users/stapi/OneDrive/Desktop/GD32VW553/V1_MQTT_OK/GD32VW55X_Wifi_BLE_SDK/GD32VW55x_RELEASE_V1.0.2/MSDK/cloud/alicloud/src/services/linkkit/dm/client\dm_client_adapter.c ****         sub_params.ack_type = IOTX_CM_MESSAGE_NO_ACK;
 146:C:/Users/stapi/OneDrive/Desktop/GD32VW553/V1_MQTT_OK/GD32VW55X_Wifi_BLE_SDK/GD32VW55x_RELEASE_V1.0.2/MSDK/cloud/alicloud/src/services/linkkit/dm/client\dm_client_adapter.c ****         sub_params.sync_mode = IOTX_CM_SYNC;
 147:C:/Users/stapi/OneDrive/Desktop/GD32VW553/V1_MQTT_OK/GD32VW55X_Wifi_BLE_SDK/GD32VW55x_RELEASE_V1.0.2/MSDK/cloud/alicloud/src/services/linkkit/dm/client\dm_client_adapter.c ****     }
 148:C:/Users/stapi/OneDrive/Desktop/GD32VW553/V1_MQTT_OK/GD32VW55X_Wifi_BLE_SDK/GD32VW55x_RELEASE_V1.0.2/MSDK/cloud/alicloud/src/services/linkkit/dm/client\dm_client_adapter.c **** 
 149:C:/Users/stapi/OneDrive/Desktop/GD32VW553/V1_MQTT_OK/GD32VW55X_Wifi_BLE_SDK/GD32VW55x_RELEASE_V1.0.2/MSDK/cloud/alicloud/src/services/linkkit/dm/client\dm_client_adapter.c ****     sub_params.sync_timeout = IOTX_DM_CLIENT_SUB_TIMEOUT_MS;
 284              		.loc 1 149 5
 285              		.loc 1 149 29 is_stmt 0
 286 0024 8567     		li	a5,4096
 287 0026 93878738 		addi	a5,a5,904
 288 002a 3ECA     		sw	a5,20(sp)
 150:C:/Users/stapi/OneDrive/Desktop/GD32VW553/V1_MQTT_OK/GD32VW55X_Wifi_BLE_SDK/GD32VW55x_RELEASE_V1.0.2/MSDK/cloud/alicloud/src/services/linkkit/dm/client\dm_client_adapter.c ****     sub_params.ack_cb = NULL;
 289              		.loc 1 150 5 is_stmt 1
 151:C:/Users/stapi/OneDrive/Desktop/GD32VW553/V1_MQTT_OK/GD32VW55X_Wifi_BLE_SDK/GD32VW55x_RELEASE_V1.0.2/MSDK/cloud/alicloud/src/services/linkkit/dm/client\dm_client_adapter.c **** 
 152:C:/Users/stapi/OneDrive/Desktop/GD32VW553/V1_MQTT_OK/GD32VW55X_Wifi_BLE_SDK/GD32VW55x_RELEASE_V1.0.2/MSDK/cloud/alicloud/src/services/linkkit/dm/client\dm_client_adapter.c ****     res = iotx_cm_sub(ctx->fd, &sub_params, (const char *)uri, callback, NULL);
 290              		.loc 1 152 5
 291              		.loc 1 152 11 is_stmt 0
 292 002c B7070000 		lui	a5,%hi(.LANCHOR0)
 293 0030 2A86     		mv	a2,a0
 294              	.LVL18:
 295 0032 03A50700 		lw	a0,%lo(.LANCHOR0)(a5)
 296              	.LVL19:
 297 0036 0147     		li	a4,0
 298 0038 6C00     		addi	a1,sp,12
 299              	.LVL20:
 300 003a 97000000 		call	iotx_cm_sub
 300      E7800000 
 301              	.LVL21:
 302 0042 2A84     		mv	s0,a0
 303              	.LVL22:
 153:C:/Users/stapi/OneDrive/Desktop/GD32VW553/V1_MQTT_OK/GD32VW55X_Wifi_BLE_SDK/GD32VW55x_RELEASE_V1.0.2/MSDK/cloud/alicloud/src/services/linkkit/dm/client\dm_client_adapter.c ****     dm_log_info("Subscribe Result: %d", res);
 304              		.loc 1 153 5 is_stmt 1
 305              		.loc 1 153 5
 306 0044 37050000 		lui	a0,%hi(.LC0)
 307 0048 13050500 		addi	a0,a0,%lo(.LC0)
 308 004c 97000000 		call	HAL_Printf
 308      E7800000 
 309              	.LVL23:
 310              		.loc 1 153 5
 311 0054 37050000 		lui	a0,%hi(.LC3)
 312 0058 A285     		mv	a1,s0
 313 005a 13050500 		addi	a0,a0,%lo(.LC3)
 314 005e 97000000 		call	HAL_Printf
 314      E7800000 
 315              	.LVL24:
 316              		.loc 1 153 5
 317 0066 37050000 		lui	a0,%hi(.LC2)
 318 006a 13050500 		addi	a0,a0,%lo(.LC2)
 319 006e 97000000 		call	HAL_Printf
 319      E7800000 
 320              	.LVL25:
 321              		.loc 1 153 5
 154:C:/Users/stapi/OneDrive/Desktop/GD32VW553/V1_MQTT_OK/GD32VW55X_Wifi_BLE_SDK/GD32VW55x_RELEASE_V1.0.2/MSDK/cloud/alicloud/src/services/linkkit/dm/client\dm_client_adapter.c **** 
 155:C:/Users/stapi/OneDrive/Desktop/GD32VW553/V1_MQTT_OK/GD32VW55X_Wifi_BLE_SDK/GD32VW55x_RELEASE_V1.0.2/MSDK/cloud/alicloud/src/services/linkkit/dm/client\dm_client_adapter.c ****     if (res < SUCCESS_RETURN) {
 322              		.loc 1 155 5
 156:C:/Users/stapi/OneDrive/Desktop/GD32VW553/V1_MQTT_OK/GD32VW55X_Wifi_BLE_SDK/GD32VW55x_RELEASE_V1.0.2/MSDK/cloud/alicloud/src/services/linkkit/dm/client\dm_client_adapter.c ****         return res;
 157:C:/Users/stapi/OneDrive/Desktop/GD32VW553/V1_MQTT_OK/GD32VW55X_Wifi_BLE_SDK/GD32VW55x_RELEASE_V1.0.2/MSDK/cloud/alicloud/src/services/linkkit/dm/client\dm_client_adapter.c ****     }
 158:C:/Users/stapi/OneDrive/Desktop/GD32VW553/V1_MQTT_OK/GD32VW55X_Wifi_BLE_SDK/GD32VW55x_RELEASE_V1.0.2/MSDK/cloud/alicloud/src/services/linkkit/dm/client\dm_client_adapter.c **** 
 159:C:/Users/stapi/OneDrive/Desktop/GD32VW553/V1_MQTT_OK/GD32VW55X_Wifi_BLE_SDK/GD32VW55x_RELEASE_V1.0.2/MSDK/cloud/alicloud/src/services/linkkit/dm/client\dm_client_adapter.c ****     return SUCCESS_RETURN;
 160:C:/Users/stapi/OneDrive/Desktop/GD32VW553/V1_MQTT_OK/GD32VW55X_Wifi_BLE_SDK/GD32VW55x_RELEASE_V1.0.2/MSDK/cloud/alicloud/src/services/linkkit/dm/client\dm_client_adapter.c **** }
 323              		.loc 1 160 1 is_stmt 0
 324 0076 0145     		li	a0,0
 325 0078 0561     		addi	sp,sp,32
 326              		.cfi_remember_state
 327              		.cfi_def_cfa_offset 0
 328 007a 3345A40A 		min	a0,s0,a0
 329 007e 17030000 		tail	__riscv_restore_1
 329      67000300 
 330              		.cfi_restore 8
 331              		.cfi_restore 1
 332              		.cfi_def_cfa_offset -16
 333              	.LVL26:
 334              	.L16:
 335              		.cfi_restore_state
 145:C:/Users/stapi/OneDrive/Desktop/GD32VW553/V1_MQTT_OK/GD32VW55X_Wifi_BLE_SDK/GD32VW55x_RELEASE_V1.0.2/MSDK/cloud/alicloud/src/services/linkkit/dm/client\dm_client_adapter.c ****         sub_params.sync_mode = IOTX_CM_SYNC;
 336              		.loc 1 145 9 is_stmt 1
 146:C:/Users/stapi/OneDrive/Desktop/GD32VW553/V1_MQTT_OK/GD32VW55X_Wifi_BLE_SDK/GD32VW55x_RELEASE_V1.0.2/MSDK/cloud/alicloud/src/services/linkkit/dm/client\dm_client_adapter.c ****     }
 337              		.loc 1 146 9
 146:C:/Users/stapi/OneDrive/Desktop/GD32VW553/V1_MQTT_OK/GD32VW55X_Wifi_BLE_SDK/GD32VW55x_RELEASE_V1.0.2/MSDK/cloud/alicloud/src/services/linkkit/dm/client\dm_client_adapter.c ****     }
 338              		.loc 1 146 30 is_stmt 0
 339 0086 8547     		li	a5,1
 340 0088 3EC8     		sw	a5,16(sp)
 341 008a 69BF     		j	.L17
 342              		.cfi_endproc
 343              	.LFE24:
 345              		.section	.rodata.dm_client_unsubscribe.str1.4,"aMS",@progbits,1
 346              		.align	2
 347              	.LC4:
 348 0000 556E7375 		.string	"Unsubscribe Result: %d"
 348      62736372 
 348      69626520 
 348      52657375 
 348      6C743A20 
 349              		.section	.text.dm_client_unsubscribe,"ax",@progbits
 350              		.align	1
 351              		.globl	dm_client_unsubscribe
 353              	dm_client_unsubscribe:
 354              	.LFB25:
 161:C:/Users/stapi/OneDrive/Desktop/GD32VW553/V1_MQTT_OK/GD32VW55X_Wifi_BLE_SDK/GD32VW55x_RELEASE_V1.0.2/MSDK/cloud/alicloud/src/services/linkkit/dm/client\dm_client_adapter.c **** 
 162:C:/Users/stapi/OneDrive/Desktop/GD32VW553/V1_MQTT_OK/GD32VW55X_Wifi_BLE_SDK/GD32VW55x_RELEASE_V1.0.2/MSDK/cloud/alicloud/src/services/linkkit/dm/client\dm_client_adapter.c **** int dm_client_unsubscribe(char *uri)
 163:C:/Users/stapi/OneDrive/Desktop/GD32VW553/V1_MQTT_OK/GD32VW55X_Wifi_BLE_SDK/GD32VW55x_RELEASE_V1.0.2/MSDK/cloud/alicloud/src/services/linkkit/dm/client\dm_client_adapter.c **** {
 355              		.loc 1 163 1 is_stmt 1
 356              		.cfi_startproc
 357              	.LVL27:
 358 0000 17030000 		call	t0,__riscv_save_1
 358      E7020300 
 359              		.cfi_offset 8, -8
 360              		.cfi_offset 1, -4
 361              		.cfi_def_cfa_offset 16
 164:C:/Users/stapi/OneDrive/Desktop/GD32VW553/V1_MQTT_OK/GD32VW55X_Wifi_BLE_SDK/GD32VW55x_RELEASE_V1.0.2/MSDK/cloud/alicloud/src/services/linkkit/dm/client\dm_client_adapter.c ****     int res = 0;
 362              		.loc 1 164 5
 363              	.LVL28:
 165:C:/Users/stapi/OneDrive/Desktop/GD32VW553/V1_MQTT_OK/GD32VW55X_Wifi_BLE_SDK/GD32VW55x_RELEASE_V1.0.2/MSDK/cloud/alicloud/src/services/linkkit/dm/client\dm_client_adapter.c ****     dm_client_ctx_t *ctx = dm_client_get_ctx();
 364              		.loc 1 165 5
   7:C:/Users/stapi/OneDrive/Desktop/GD32VW553/V1_MQTT_OK/GD32VW55X_Wifi_BLE_SDK/GD32VW55x_RELEASE_V1.0.2/MSDK/cloud/alicloud/src/services/linkkit/dm/client\dm_client_adapter.c **** }
 365              		.loc 1 7 5
 166:C:/Users/stapi/OneDrive/Desktop/GD32VW553/V1_MQTT_OK/GD32VW55X_Wifi_BLE_SDK/GD32VW55x_RELEASE_V1.0.2/MSDK/cloud/alicloud/src/services/linkkit/dm/client\dm_client_adapter.c **** 
 167:C:/Users/stapi/OneDrive/Desktop/GD32VW553/V1_MQTT_OK/GD32VW55X_Wifi_BLE_SDK/GD32VW55x_RELEASE_V1.0.2/MSDK/cloud/alicloud/src/services/linkkit/dm/client\dm_client_adapter.c ****     res = iotx_cm_unsub(ctx->fd, uri);
 366              		.loc 1 167 5
 367              		.loc 1 167 11 is_stmt 0
 368 0008 B7070000 		lui	a5,%hi(.LANCHOR0)
 163:C:/Users/stapi/OneDrive/Desktop/GD32VW553/V1_MQTT_OK/GD32VW55X_Wifi_BLE_SDK/GD32VW55x_RELEASE_V1.0.2/MSDK/cloud/alicloud/src/services/linkkit/dm/client\dm_client_adapter.c ****     int res = 0;
 369              		.loc 1 163 1
 370 000c AA85     		mv	a1,a0
 371              		.loc 1 167 11
 372 000e 03A50700 		lw	a0,%lo(.LANCHOR0)(a5)
 373              	.LVL29:
 374 0012 97000000 		call	iotx_cm_unsub
 374      E7800000 
 375              	.LVL30:
 376 001a 2A84     		mv	s0,a0
 377              	.LVL31:
 168:C:/Users/stapi/OneDrive/Desktop/GD32VW553/V1_MQTT_OK/GD32VW55X_Wifi_BLE_SDK/GD32VW55x_RELEASE_V1.0.2/MSDK/cloud/alicloud/src/services/linkkit/dm/client\dm_client_adapter.c **** 
 169:C:/Users/stapi/OneDrive/Desktop/GD32VW553/V1_MQTT_OK/GD32VW55X_Wifi_BLE_SDK/GD32VW55x_RELEASE_V1.0.2/MSDK/cloud/alicloud/src/services/linkkit/dm/client\dm_client_adapter.c ****     dm_log_info("Unsubscribe Result: %d", res);
 378              		.loc 1 169 5 is_stmt 1
 379              		.loc 1 169 5
 380 001c 37050000 		lui	a0,%hi(.LC0)
 381 0020 13050500 		addi	a0,a0,%lo(.LC0)
 382 0024 97000000 		call	HAL_Printf
 382      E7800000 
 383              	.LVL32:
 384              		.loc 1 169 5
 385 002c 37050000 		lui	a0,%hi(.LC4)
 386 0030 A285     		mv	a1,s0
 387 0032 13050500 		addi	a0,a0,%lo(.LC4)
 388 0036 97000000 		call	HAL_Printf
 388      E7800000 
 389              	.LVL33:
 390              		.loc 1 169 5
 391 003e 37050000 		lui	a0,%hi(.LC2)
 392 0042 13050500 		addi	a0,a0,%lo(.LC2)
 393 0046 97000000 		call	HAL_Printf
 393      E7800000 
 394              	.LVL34:
 395              		.loc 1 169 5
 170:C:/Users/stapi/OneDrive/Desktop/GD32VW553/V1_MQTT_OK/GD32VW55X_Wifi_BLE_SDK/GD32VW55x_RELEASE_V1.0.2/MSDK/cloud/alicloud/src/services/linkkit/dm/client\dm_client_adapter.c **** 
 171:C:/Users/stapi/OneDrive/Desktop/GD32VW553/V1_MQTT_OK/GD32VW55X_Wifi_BLE_SDK/GD32VW55x_RELEASE_V1.0.2/MSDK/cloud/alicloud/src/services/linkkit/dm/client\dm_client_adapter.c ****     return res;
 396              		.loc 1 171 5
 172:C:/Users/stapi/OneDrive/Desktop/GD32VW553/V1_MQTT_OK/GD32VW55X_Wifi_BLE_SDK/GD32VW55x_RELEASE_V1.0.2/MSDK/cloud/alicloud/src/services/linkkit/dm/client\dm_client_adapter.c **** }
 397              		.loc 1 172 1 is_stmt 0
 398 004e 2285     		mv	a0,s0
 399 0050 17030000 		tail	__riscv_restore_1
 399      67000300 
 400              		.cfi_restore 8
 401              		.cfi_restore 1
 402              		.cfi_def_cfa_offset 0
 403              		.cfi_endproc
 404              	.LFE25:
 406              		.section	.rodata.dm_client_publish.str1.4,"aMS",@progbits,1
 407              		.align	2
 408              	.LC5:
 409 0000 5075626C 		.string	"Publish Result: %d"
 409      69736820 
 409      52657375 
 409      6C743A20 
 409      256400
 410              		.section	.text.dm_client_publish,"ax",@progbits
 411              		.align	1
 412              		.globl	dm_client_publish
 414              	dm_client_publish:
 415              	.LFB26:
 173:C:/Users/stapi/OneDrive/Desktop/GD32VW553/V1_MQTT_OK/GD32VW55X_Wifi_BLE_SDK/GD32VW55x_RELEASE_V1.0.2/MSDK/cloud/alicloud/src/services/linkkit/dm/client\dm_client_adapter.c **** 
 174:C:/Users/stapi/OneDrive/Desktop/GD32VW553/V1_MQTT_OK/GD32VW55X_Wifi_BLE_SDK/GD32VW55x_RELEASE_V1.0.2/MSDK/cloud/alicloud/src/services/linkkit/dm/client\dm_client_adapter.c **** int dm_client_publish(char *uri, unsigned char *payload, int payload_len, iotx_cm_data_handle_cb ca
 175:C:/Users/stapi/OneDrive/Desktop/GD32VW553/V1_MQTT_OK/GD32VW55X_Wifi_BLE_SDK/GD32VW55x_RELEASE_V1.0.2/MSDK/cloud/alicloud/src/services/linkkit/dm/client\dm_client_adapter.c **** {
 416              		.loc 1 175 1 is_stmt 1
 417              		.cfi_startproc
 418              	.LVL35:
 419 0000 17030000 		call	t0,__riscv_save_1
 419      E7020300 
 420              		.cfi_offset 8, -8
 421              		.cfi_offset 1, -4
 422              		.cfi_def_cfa_offset 16
 176:C:/Users/stapi/OneDrive/Desktop/GD32VW553/V1_MQTT_OK/GD32VW55X_Wifi_BLE_SDK/GD32VW55x_RELEASE_V1.0.2/MSDK/cloud/alicloud/src/services/linkkit/dm/client\dm_client_adapter.c ****     int res = 0;
 423              		.loc 1 176 5
 424              	.LVL36:
 177:C:/Users/stapi/OneDrive/Desktop/GD32VW553/V1_MQTT_OK/GD32VW55X_Wifi_BLE_SDK/GD32VW55x_RELEASE_V1.0.2/MSDK/cloud/alicloud/src/services/linkkit/dm/client\dm_client_adapter.c ****     char *pub_uri = NULL;
 425              		.loc 1 177 5
 178:C:/Users/stapi/OneDrive/Desktop/GD32VW553/V1_MQTT_OK/GD32VW55X_Wifi_BLE_SDK/GD32VW55x_RELEASE_V1.0.2/MSDK/cloud/alicloud/src/services/linkkit/dm/client\dm_client_adapter.c ****     dm_client_ctx_t *ctx = dm_client_get_ctx();
 426              		.loc 1 178 5
   7:C:/Users/stapi/OneDrive/Desktop/GD32VW553/V1_MQTT_OK/GD32VW55X_Wifi_BLE_SDK/GD32VW55x_RELEASE_V1.0.2/MSDK/cloud/alicloud/src/services/linkkit/dm/client\dm_client_adapter.c **** }
 427              		.loc 1 7 5
 179:C:/Users/stapi/OneDrive/Desktop/GD32VW553/V1_MQTT_OK/GD32VW55X_Wifi_BLE_SDK/GD32VW55x_RELEASE_V1.0.2/MSDK/cloud/alicloud/src/services/linkkit/dm/client\dm_client_adapter.c ****     iotx_cm_ext_params_t pub_param;
 428              		.loc 1 179 5
 180:C:/Users/stapi/OneDrive/Desktop/GD32VW553/V1_MQTT_OK/GD32VW55X_Wifi_BLE_SDK/GD32VW55x_RELEASE_V1.0.2/MSDK/cloud/alicloud/src/services/linkkit/dm/client\dm_client_adapter.c **** 
 181:C:/Users/stapi/OneDrive/Desktop/GD32VW553/V1_MQTT_OK/GD32VW55X_Wifi_BLE_SDK/GD32VW55x_RELEASE_V1.0.2/MSDK/cloud/alicloud/src/services/linkkit/dm/client\dm_client_adapter.c ****     memset(&pub_param, 0, sizeof(iotx_cm_ext_params_t));
 429              		.loc 1 181 5
 182:C:/Users/stapi/OneDrive/Desktop/GD32VW553/V1_MQTT_OK/GD32VW55X_Wifi_BLE_SDK/GD32VW55x_RELEASE_V1.0.2/MSDK/cloud/alicloud/src/services/linkkit/dm/client\dm_client_adapter.c ****     pub_param.ack_type = IOTX_CM_MESSAGE_NO_ACK;
 183:C:/Users/stapi/OneDrive/Desktop/GD32VW553/V1_MQTT_OK/GD32VW55X_Wifi_BLE_SDK/GD32VW55x_RELEASE_V1.0.2/MSDK/cloud/alicloud/src/services/linkkit/dm/client\dm_client_adapter.c ****     pub_param.sync_mode = IOTX_CM_ASYNC;
 184:C:/Users/stapi/OneDrive/Desktop/GD32VW553/V1_MQTT_OK/GD32VW55X_Wifi_BLE_SDK/GD32VW55x_RELEASE_V1.0.2/MSDK/cloud/alicloud/src/services/linkkit/dm/client\dm_client_adapter.c ****     pub_param.sync_timeout = 0;
 185:C:/Users/stapi/OneDrive/Desktop/GD32VW553/V1_MQTT_OK/GD32VW55X_Wifi_BLE_SDK/GD32VW55x_RELEASE_V1.0.2/MSDK/cloud/alicloud/src/services/linkkit/dm/client\dm_client_adapter.c ****     pub_param.ack_cb = NULL;
 186:C:/Users/stapi/OneDrive/Desktop/GD32VW553/V1_MQTT_OK/GD32VW55X_Wifi_BLE_SDK/GD32VW55x_RELEASE_V1.0.2/MSDK/cloud/alicloud/src/services/linkkit/dm/client\dm_client_adapter.c **** 
 187:C:/Users/stapi/OneDrive/Desktop/GD32VW553/V1_MQTT_OK/GD32VW55X_Wifi_BLE_SDK/GD32VW55x_RELEASE_V1.0.2/MSDK/cloud/alicloud/src/services/linkkit/dm/client\dm_client_adapter.c **** #if defined(COAP_COMM_ENABLED) && !defined(MQTT_COMM_ENABLED)
 188:C:/Users/stapi/OneDrive/Desktop/GD32VW553/V1_MQTT_OK/GD32VW55X_Wifi_BLE_SDK/GD32VW55x_RELEASE_V1.0.2/MSDK/cloud/alicloud/src/services/linkkit/dm/client\dm_client_adapter.c ****     pub_param.ack_cb = callback;
 189:C:/Users/stapi/OneDrive/Desktop/GD32VW553/V1_MQTT_OK/GD32VW55X_Wifi_BLE_SDK/GD32VW55x_RELEASE_V1.0.2/MSDK/cloud/alicloud/src/services/linkkit/dm/client\dm_client_adapter.c ****     res = dm_utils_uri_add_prefix("/topic", uri, &pub_uri);
 190:C:/Users/stapi/OneDrive/Desktop/GD32VW553/V1_MQTT_OK/GD32VW55X_Wifi_BLE_SDK/GD32VW55x_RELEASE_V1.0.2/MSDK/cloud/alicloud/src/services/linkkit/dm/client\dm_client_adapter.c ****     if (res < SUCCESS_RETURN) {
 191:C:/Users/stapi/OneDrive/Desktop/GD32VW553/V1_MQTT_OK/GD32VW55X_Wifi_BLE_SDK/GD32VW55x_RELEASE_V1.0.2/MSDK/cloud/alicloud/src/services/linkkit/dm/client\dm_client_adapter.c ****         return FAIL_RETURN;
 192:C:/Users/stapi/OneDrive/Desktop/GD32VW553/V1_MQTT_OK/GD32VW55X_Wifi_BLE_SDK/GD32VW55x_RELEASE_V1.0.2/MSDK/cloud/alicloud/src/services/linkkit/dm/client\dm_client_adapter.c ****     }
 193:C:/Users/stapi/OneDrive/Desktop/GD32VW553/V1_MQTT_OK/GD32VW55X_Wifi_BLE_SDK/GD32VW55x_RELEASE_V1.0.2/MSDK/cloud/alicloud/src/services/linkkit/dm/client\dm_client_adapter.c **** #else
 194:C:/Users/stapi/OneDrive/Desktop/GD32VW553/V1_MQTT_OK/GD32VW55X_Wifi_BLE_SDK/GD32VW55x_RELEASE_V1.0.2/MSDK/cloud/alicloud/src/services/linkkit/dm/client\dm_client_adapter.c ****     pub_uri = uri;
 195:C:/Users/stapi/OneDrive/Desktop/GD32VW553/V1_MQTT_OK/GD32VW55X_Wifi_BLE_SDK/GD32VW55x_RELEASE_V1.0.2/MSDK/cloud/alicloud/src/services/linkkit/dm/client\dm_client_adapter.c **** #endif
 196:C:/Users/stapi/OneDrive/Desktop/GD32VW553/V1_MQTT_OK/GD32VW55X_Wifi_BLE_SDK/GD32VW55x_RELEASE_V1.0.2/MSDK/cloud/alicloud/src/services/linkkit/dm/client\dm_client_adapter.c **** 
 197:C:/Users/stapi/OneDrive/Desktop/GD32VW553/V1_MQTT_OK/GD32VW55X_Wifi_BLE_SDK/GD32VW55x_RELEASE_V1.0.2/MSDK/cloud/alicloud/src/services/linkkit/dm/client\dm_client_adapter.c ****     res = iotx_cm_pub(ctx->fd, &pub_param, (const char *)pub_uri, (const char *)payload, (unsigned 
 430              		.loc 1 197 11 is_stmt 0
 431 0008 B7070000 		lui	a5,%hi(.LANCHOR0)
 175:C:/Users/stapi/OneDrive/Desktop/GD32VW553/V1_MQTT_OK/GD32VW55X_Wifi_BLE_SDK/GD32VW55x_RELEASE_V1.0.2/MSDK/cloud/alicloud/src/services/linkkit/dm/client\dm_client_adapter.c ****     int res = 0;
 432              		.loc 1 175 1
 433 000c 3287     		mv	a4,a2
 434              		.loc 1 197 11
 435 000e 2A86     		mv	a2,a0
 436              	.LVL37:
 437 0010 03A50700 		lw	a0,%lo(.LANCHOR0)(a5)
 438              	.LVL38:
 175:C:/Users/stapi/OneDrive/Desktop/GD32VW553/V1_MQTT_OK/GD32VW55X_Wifi_BLE_SDK/GD32VW55x_RELEASE_V1.0.2/MSDK/cloud/alicloud/src/services/linkkit/dm/client\dm_client_adapter.c ****     int res = 0;
 439              		.loc 1 175 1
 440 0014 0111     		addi	sp,sp,-32
 441              		.cfi_def_cfa_offset 48
 175:C:/Users/stapi/OneDrive/Desktop/GD32VW553/V1_MQTT_OK/GD32VW55X_Wifi_BLE_SDK/GD32VW55x_RELEASE_V1.0.2/MSDK/cloud/alicloud/src/services/linkkit/dm/client\dm_client_adapter.c ****     int res = 0;
 442              		.loc 1 175 1
 443 0016 AE86     		mv	a3,a1
 444              	.LVL39:
 445              		.loc 1 197 11
 446 0018 6C00     		addi	a1,sp,12
 447              	.LVL40:
 181:C:/Users/stapi/OneDrive/Desktop/GD32VW553/V1_MQTT_OK/GD32VW55X_Wifi_BLE_SDK/GD32VW55x_RELEASE_V1.0.2/MSDK/cloud/alicloud/src/services/linkkit/dm/client\dm_client_adapter.c ****     pub_param.ack_type = IOTX_CM_MESSAGE_NO_ACK;
 448              		.loc 1 181 5
 449 001a 02C6     		sw	zero,12(sp)
 450 001c 02C8     		sw	zero,16(sp)
 451 001e 02CA     		sw	zero,20(sp)
 452 0020 02CC     		sw	zero,24(sp)
 453 0022 02CE     		sw	zero,28(sp)
 182:C:/Users/stapi/OneDrive/Desktop/GD32VW553/V1_MQTT_OK/GD32VW55X_Wifi_BLE_SDK/GD32VW55x_RELEASE_V1.0.2/MSDK/cloud/alicloud/src/services/linkkit/dm/client\dm_client_adapter.c ****     pub_param.ack_type = IOTX_CM_MESSAGE_NO_ACK;
 454              		.loc 1 182 5 is_stmt 1
 183:C:/Users/stapi/OneDrive/Desktop/GD32VW553/V1_MQTT_OK/GD32VW55X_Wifi_BLE_SDK/GD32VW55x_RELEASE_V1.0.2/MSDK/cloud/alicloud/src/services/linkkit/dm/client\dm_client_adapter.c ****     pub_param.sync_timeout = 0;
 455              		.loc 1 183 5
 184:C:/Users/stapi/OneDrive/Desktop/GD32VW553/V1_MQTT_OK/GD32VW55X_Wifi_BLE_SDK/GD32VW55x_RELEASE_V1.0.2/MSDK/cloud/alicloud/src/services/linkkit/dm/client\dm_client_adapter.c ****     pub_param.ack_cb = NULL;
 456              		.loc 1 184 5
 185:C:/Users/stapi/OneDrive/Desktop/GD32VW553/V1_MQTT_OK/GD32VW55X_Wifi_BLE_SDK/GD32VW55x_RELEASE_V1.0.2/MSDK/cloud/alicloud/src/services/linkkit/dm/client\dm_client_adapter.c **** 
 457              		.loc 1 185 5
 194:C:/Users/stapi/OneDrive/Desktop/GD32VW553/V1_MQTT_OK/GD32VW55X_Wifi_BLE_SDK/GD32VW55x_RELEASE_V1.0.2/MSDK/cloud/alicloud/src/services/linkkit/dm/client\dm_client_adapter.c **** #endif
 458              		.loc 1 194 5
 459              	.LVL41:
 460              		.loc 1 197 5
 461              		.loc 1 197 11 is_stmt 0
 462 0024 97000000 		call	iotx_cm_pub
 462      E7800000 
 463              	.LVL42:
 464 002c 2A84     		mv	s0,a0
 465              	.LVL43:
 198:C:/Users/stapi/OneDrive/Desktop/GD32VW553/V1_MQTT_OK/GD32VW55X_Wifi_BLE_SDK/GD32VW55x_RELEASE_V1.0.2/MSDK/cloud/alicloud/src/services/linkkit/dm/client\dm_client_adapter.c ****     dm_log_info("Publish Result: %d", res);
 466              		.loc 1 198 5 is_stmt 1
 467              		.loc 1 198 5
 468 002e 37050000 		lui	a0,%hi(.LC0)
 469 0032 13050500 		addi	a0,a0,%lo(.LC0)
 470 0036 97000000 		call	HAL_Printf
 470      E7800000 
 471              	.LVL44:
 472              		.loc 1 198 5
 473 003e 37050000 		lui	a0,%hi(.LC5)
 474 0042 A285     		mv	a1,s0
 475 0044 13050500 		addi	a0,a0,%lo(.LC5)
 476 0048 97000000 		call	HAL_Printf
 476      E7800000 
 477              	.LVL45:
 478              		.loc 1 198 5
 479 0050 37050000 		lui	a0,%hi(.LC2)
 480 0054 13050500 		addi	a0,a0,%lo(.LC2)
 481 0058 97000000 		call	HAL_Printf
 481      E7800000 
 482              	.LVL46:
 483              		.loc 1 198 5
 199:C:/Users/stapi/OneDrive/Desktop/GD32VW553/V1_MQTT_OK/GD32VW55X_Wifi_BLE_SDK/GD32VW55x_RELEASE_V1.0.2/MSDK/cloud/alicloud/src/services/linkkit/dm/client\dm_client_adapter.c **** 
 200:C:/Users/stapi/OneDrive/Desktop/GD32VW553/V1_MQTT_OK/GD32VW55X_Wifi_BLE_SDK/GD32VW55x_RELEASE_V1.0.2/MSDK/cloud/alicloud/src/services/linkkit/dm/client\dm_client_adapter.c **** #if defined(COAP_COMM_ENABLED) && !defined(MQTT_COMM_ENABLED)
 201:C:/Users/stapi/OneDrive/Desktop/GD32VW553/V1_MQTT_OK/GD32VW55X_Wifi_BLE_SDK/GD32VW55x_RELEASE_V1.0.2/MSDK/cloud/alicloud/src/services/linkkit/dm/client\dm_client_adapter.c ****     DM_free(pub_uri);
 202:C:/Users/stapi/OneDrive/Desktop/GD32VW553/V1_MQTT_OK/GD32VW55X_Wifi_BLE_SDK/GD32VW55x_RELEASE_V1.0.2/MSDK/cloud/alicloud/src/services/linkkit/dm/client\dm_client_adapter.c **** #endif
 203:C:/Users/stapi/OneDrive/Desktop/GD32VW553/V1_MQTT_OK/GD32VW55X_Wifi_BLE_SDK/GD32VW55x_RELEASE_V1.0.2/MSDK/cloud/alicloud/src/services/linkkit/dm/client\dm_client_adapter.c **** 
 204:C:/Users/stapi/OneDrive/Desktop/GD32VW553/V1_MQTT_OK/GD32VW55X_Wifi_BLE_SDK/GD32VW55x_RELEASE_V1.0.2/MSDK/cloud/alicloud/src/services/linkkit/dm/client\dm_client_adapter.c ****     return res;
 484              		.loc 1 204 5
 205:C:/Users/stapi/OneDrive/Desktop/GD32VW553/V1_MQTT_OK/GD32VW55X_Wifi_BLE_SDK/GD32VW55x_RELEASE_V1.0.2/MSDK/cloud/alicloud/src/services/linkkit/dm/client\dm_client_adapter.c **** }
 485              		.loc 1 205 1 is_stmt 0
 486 0060 2285     		mv	a0,s0
 487 0062 0561     		addi	sp,sp,32
 488              		.cfi_def_cfa_offset 0
 489 0064 17030000 		tail	__riscv_restore_1
 489      67000300 
 490              		.cfi_restore 8
 491              		.cfi_restore 1
 492              		.cfi_def_cfa_offset -16
 493              		.cfi_endproc
 494              	.LFE26:
 496              		.section	.text.dm_client_yield,"ax",@progbits
 497              		.align	1
 498              		.globl	dm_client_yield
 500              	dm_client_yield:
 501              	.LFB27:
 206:C:/Users/stapi/OneDrive/Desktop/GD32VW553/V1_MQTT_OK/GD32VW55X_Wifi_BLE_SDK/GD32VW55x_RELEASE_V1.0.2/MSDK/cloud/alicloud/src/services/linkkit/dm/client\dm_client_adapter.c **** 
 207:C:/Users/stapi/OneDrive/Desktop/GD32VW553/V1_MQTT_OK/GD32VW55X_Wifi_BLE_SDK/GD32VW55x_RELEASE_V1.0.2/MSDK/cloud/alicloud/src/services/linkkit/dm/client\dm_client_adapter.c **** int dm_client_yield(unsigned int timeout)
 208:C:/Users/stapi/OneDrive/Desktop/GD32VW553/V1_MQTT_OK/GD32VW55X_Wifi_BLE_SDK/GD32VW55x_RELEASE_V1.0.2/MSDK/cloud/alicloud/src/services/linkkit/dm/client\dm_client_adapter.c **** {
 502              		.loc 1 208 1 is_stmt 1
 503              		.cfi_startproc
 504              	.LVL47:
 209:C:/Users/stapi/OneDrive/Desktop/GD32VW553/V1_MQTT_OK/GD32VW55X_Wifi_BLE_SDK/GD32VW55x_RELEASE_V1.0.2/MSDK/cloud/alicloud/src/services/linkkit/dm/client\dm_client_adapter.c ****     dm_client_ctx_t *ctx = dm_client_get_ctx();
 505              		.loc 1 209 5
   7:C:/Users/stapi/OneDrive/Desktop/GD32VW553/V1_MQTT_OK/GD32VW55X_Wifi_BLE_SDK/GD32VW55x_RELEASE_V1.0.2/MSDK/cloud/alicloud/src/services/linkkit/dm/client\dm_client_adapter.c **** }
 506              		.loc 1 7 5
 210:C:/Users/stapi/OneDrive/Desktop/GD32VW553/V1_MQTT_OK/GD32VW55X_Wifi_BLE_SDK/GD32VW55x_RELEASE_V1.0.2/MSDK/cloud/alicloud/src/services/linkkit/dm/client\dm_client_adapter.c **** 
 211:C:/Users/stapi/OneDrive/Desktop/GD32VW553/V1_MQTT_OK/GD32VW55X_Wifi_BLE_SDK/GD32VW55x_RELEASE_V1.0.2/MSDK/cloud/alicloud/src/services/linkkit/dm/client\dm_client_adapter.c ****     return iotx_cm_yield(ctx->fd, timeout);
 507              		.loc 1 211 5
 508              		.loc 1 211 12 is_stmt 0
 509 0000 B7070000 		lui	a5,%hi(.LANCHOR0)
 208:C:/Users/stapi/OneDrive/Desktop/GD32VW553/V1_MQTT_OK/GD32VW55X_Wifi_BLE_SDK/GD32VW55x_RELEASE_V1.0.2/MSDK/cloud/alicloud/src/services/linkkit/dm/client\dm_client_adapter.c ****     dm_client_ctx_t *ctx = dm_client_get_ctx();
 510              		.loc 1 208 1
 511 0004 AA85     		mv	a1,a0
 512              		.loc 1 211 12
 513 0006 03A50700 		lw	a0,%lo(.LANCHOR0)(a5)
 514              	.LVL48:
 515 000a 17030000 		tail	iotx_cm_yield
 515      67000300 
 516              	.LVL49:
 517              		.cfi_endproc
 518              	.LFE27:
 520              		.section	.bss.g_dm_client_ctx,"aw",@nobits
 521              		.align	2
 522              		.set	.LANCHOR0,. + 0
 525              	g_dm_client_ctx:
 526 0000 00000000 		.zero	12
 526      00000000 
 526      00000000 
 527              		.text
 528              	.Letext0:
 529              		.file 2 "c:\\users\\stapi\\onedrive\\desktop\\gd32vw553\\embeddedbuilder_v1.4.7.26843\\tools\\nucl
 530              		.file 3 "c:\\users\\stapi\\onedrive\\desktop\\gd32vw553\\embeddedbuilder_v1.4.7.26843\\tools\\nucl
 531              		.file 4 "..\\..\\..\\..\\cloud\\alicloud\\include/iot_export.h"
 532              		.file 5 "..\\..\\..\\..\\cloud\\alicloud\\src\\services\\linkkit\\cm\\include/iotx_cm.h"
 533              		.file 6 "..\\..\\..\\..\\cloud\\alicloud\\include/exports/iot_export_errno.h"
 534              		.file 7 "..\\..\\..\\..\\cloud\\alicloud\\src\\services\\linkkit\\dm\\client/dm_client_adapter.h"
 535              		.file 8 "..\\..\\..\\..\\cloud\\alicloud\\include/iot_import.h"