   1              		.file	"dm_client_adapter.c"
   2              		.option nopic
   3              		.attribute arch, "rv32i2p0_m2p0_a2p0_f2p0_c2p0_b_p0p94"
   4              		.attribute unaligned_access, 0
   5              		.attribute stack_align, 16
   6              		.text
   7              	.Ltext0:
   8              		.cfi_sections	.debug_frame
   9              		.section	.rodata.dm_client_open.str1.4,"aMS",@progbits,1
  10              		.align	2
  11              	.LC0:
  12 0000 5B696E66 		.string	"[inf] "
  12      5D2000
  13 0007 00       		.align	2
  14              	.LC1:
  15 0008 434D2046 		.string	"CM Fd: %d"
  15      643A2025 
  15      6400
  16 0012 0000     		.align	2
  17              	.LC2:
  18 0014 0D0A00   		.string	"\r\n"
  19              		.section	.text.dm_client_open,"ax",@progbits
  20              		.align	1
  21              		.globl	dm_client_open
  23              	dm_client_open:
  24              	.LFB21:
  25              		.file 1 "C:/Users/stapi/OneDrive/Desktop/GD32VW553/V1_MQTT_OK/GD32VW55X_Wifi_BLE_SDK/GD32VW55x_REL
   1:C:/Users/stapi/OneDrive/Desktop/GD32VW553/V1_MQTT_OK/GD32VW55X_Wifi_BLE_SDK/GD32VW55x_RELEASE_V1.0.2/MSDK/cloud/alicloud/src/services/linkkit/dm/client\dm_client_adapter.c **** #include "iotx_dm_internal.h"
   2:C:/Users/stapi/OneDrive/Desktop/GD32VW553/V1_MQTT_OK/GD32VW55X_Wifi_BLE_SDK/GD32VW55x_RELEASE_V1.0.2/MSDK/cloud/alicloud/src/services/linkkit/dm/client\dm_client_adapter.c **** 
   3:C:/Users/stapi/OneDrive/Desktop/GD32VW553/V1_MQTT_OK/GD32VW55X_Wifi_BLE_SDK/GD32VW55x_RELEASE_V1.0.2/MSDK/cloud/alicloud/src/services/linkkit/dm/client\dm_client_adapter.c **** static dm_client_ctx_t g_dm_client_ctx = {0};
   4:C:/Users/stapi/OneDrive/Desktop/GD32VW553/V1_MQTT_OK/GD32VW55X_Wifi_BLE_SDK/GD32VW55x_RELEASE_V1.0.2/MSDK/cloud/alicloud/src/services/linkkit/dm/client\dm_client_adapter.c **** 
   5:C:/Users/stapi/OneDrive/Desktop/GD32VW553/V1_MQTT_OK/GD32VW55X_Wifi_BLE_SDK/GD32VW55x_RELEASE_V1.0.2/MSDK/cloud/alicloud/src/services/linkkit/dm/client\dm_client_adapter.c **** static dm_client_ctx_t *dm_client_get_ctx(void)
   6:C:/Users/stapi/OneDrive/Desktop/GD32VW553/V1_MQTT_OK/GD32VW55X_Wifi_BLE_SDK/GD32VW55x_RELEASE_V1.0.2/MSDK/cloud/alicloud/src/services/linkkit/dm/client\dm_client_adapter.c **** {
   7:C:/Users/stapi/OneDrive/Desktop/GD32VW553/V1_MQTT_OK/GD32VW55X_Wifi_BLE_SDK/GD32VW55x_RELEASE_V1.0.2/MSDK/cloud/alicloud/src/services/linkkit/dm/client\dm_client_adapter.c ****     return &g_dm_client_ctx;
   8:C:/Users/stapi/OneDrive/Desktop/GD32VW553/V1_MQTT_OK/GD32VW55X_Wifi_BLE_SDK/GD32VW55x_RELEASE_V1.0.2/MSDK/cloud/alicloud/src/services/linkkit/dm/client\dm_client_adapter.c **** }
   9:C:/Users/stapi/OneDrive/Desktop/GD32VW553/V1_MQTT_OK/GD32VW55X_Wifi_BLE_SDK/GD32VW55x_RELEASE_V1.0.2/MSDK/cloud/alicloud/src/services/linkkit/dm/client\dm_client_adapter.c **** 
  10:C:/Users/stapi/OneDrive/Desktop/GD32VW553/V1_MQTT_OK/GD32VW55X_Wifi_BLE_SDK/GD32VW55x_RELEASE_V1.0.2/MSDK/cloud/alicloud/src/services/linkkit/dm/client\dm_client_adapter.c **** int dm_client_open(void)
  11:C:/Users/stapi/OneDrive/Desktop/GD32VW553/V1_MQTT_OK/GD32VW55X_Wifi_BLE_SDK/GD32VW55x_RELEASE_V1.0.2/MSDK/cloud/alicloud/src/services/linkkit/dm/client\dm_client_adapter.c **** {
  26              		.loc 1 11 1
  27              		.cfi_startproc
  28 0000 17030000 		call	t0,__riscv_save_1
  28      E7020300 
  29              		.cfi_offset 8, -8
  30              		.cfi_offset 1, -4
  31              		.cfi_def_cfa_offset 16
  12:C:/Users/stapi/OneDrive/Desktop/GD32VW553/V1_MQTT_OK/GD32VW55X_Wifi_BLE_SDK/GD32VW55x_RELEASE_V1.0.2/MSDK/cloud/alicloud/src/services/linkkit/dm/client\dm_client_adapter.c ****     int res = 0;
  32              		.loc 1 12 5
  33              	.LVL0:
  13:C:/Users/stapi/OneDrive/Desktop/GD32VW553/V1_MQTT_OK/GD32VW55X_Wifi_BLE_SDK/GD32VW55x_RELEASE_V1.0.2/MSDK/cloud/alicloud/src/services/linkkit/dm/client\dm_client_adapter.c ****     dm_client_ctx_t *ctx = dm_client_get_ctx();
  34              		.loc 1 13 5
   7:C:/Users/stapi/OneDrive/Desktop/GD32VW553/V1_MQTT_OK/GD32VW55X_Wifi_BLE_SDK/GD32VW55x_RELEASE_V1.0.2/MSDK/cloud/alicloud/src/services/linkkit/dm/client\dm_client_adapter.c **** }
  35              		.loc 1 7 5
  14:C:/Users/stapi/OneDrive/Desktop/GD32VW553/V1_MQTT_OK/GD32VW55X_Wifi_BLE_SDK/GD32VW55x_RELEASE_V1.0.2/MSDK/cloud/alicloud/src/services/linkkit/dm/client\dm_client_adapter.c ****     iotx_cm_init_param_t cm_param;
  36              		.loc 1 14 5
  15:C:/Users/stapi/OneDrive/Desktop/GD32VW553/V1_MQTT_OK/GD32VW55X_Wifi_BLE_SDK/GD32VW55x_RELEASE_V1.0.2/MSDK/cloud/alicloud/src/services/linkkit/dm/client\dm_client_adapter.c **** 
  16:C:/Users/stapi/OneDrive/Desktop/GD32VW553/V1_MQTT_OK/GD32VW55X_Wifi_BLE_SDK/GD32VW55x_RELEASE_V1.0.2/MSDK/cloud/alicloud/src/services/linkkit/dm/client\dm_client_adapter.c ****     memset(ctx, 0, sizeof(dm_client_ctx_t));
  37              		.loc 1 16 5
  17:C:/Users/stapi/OneDrive/Desktop/GD32VW553/V1_MQTT_OK/GD32VW55X_Wifi_BLE_SDK/GD32VW55x_RELEASE_V1.0.2/MSDK/cloud/alicloud/src/services/linkkit/dm/client\dm_client_adapter.c ****     memset(&cm_param, 0, sizeof(iotx_cm_init_param_t));
  18:C:/Users/stapi/OneDrive/Desktop/GD32VW553/V1_MQTT_OK/GD32VW55X_Wifi_BLE_SDK/GD32VW55x_RELEASE_V1.0.2/MSDK/cloud/alicloud/src/services/linkkit/dm/client\dm_client_adapter.c **** 
  19:C:/Users/stapi/OneDrive/Desktop/GD32VW553/V1_MQTT_OK/GD32VW55X_Wifi_BLE_SDK/GD32VW55x_RELEASE_V1.0.2/MSDK/cloud/alicloud/src/services/linkkit/dm/client\dm_client_adapter.c ****     cm_param.request_timeout_ms = IOTX_DM_CLIENT_REQUEST_TIMEOUT_MS;
  38              		.loc 1 19 33 is_stmt 0
  39 0008 8567     		li	a5,4096
  11:C:/Users/stapi/OneDrive/Desktop/GD32VW553/V1_MQTT_OK/GD32VW55X_Wifi_BLE_SDK/GD32VW55x_RELEASE_V1.0.2/MSDK/cloud/alicloud/src/services/linkkit/dm/client\dm_client_adapter.c ****     int res = 0;
  40              		.loc 1 11 1
  41 000a 0111     		addi	sp,sp,-32
  42              		.cfi_def_cfa_offset 48
  43              		.loc 1 19 33
  44 000c 13870777 		addi	a4,a5,1904
  20:C:/Users/stapi/OneDrive/Desktop/GD32VW553/V1_MQTT_OK/GD32VW55X_Wifi_BLE_SDK/GD32VW55x_RELEASE_V1.0.2/MSDK/cloud/alicloud/src/services/linkkit/dm/client\dm_client_adapter.c ****     cm_param.keepalive_interval_ms = IOTX_DM_CLIENT_KEEPALIVE_INTERVAL_MS;
  21:C:/Users/stapi/OneDrive/Desktop/GD32VW553/V1_MQTT_OK/GD32VW55X_Wifi_BLE_SDK/GD32VW55x_RELEASE_V1.0.2/MSDK/cloud/alicloud/src/services/linkkit/dm/client\dm_client_adapter.c ****     cm_param.write_buf_size = CONFIG_MQTT_TX_MAXLEN;
  45              		.loc 1 21 29
  46 0010 93870780 		addi	a5,a5,-2048
  47 0014 3EC6     		sw	a5,12(sp)
  22:C:/Users/stapi/OneDrive/Desktop/GD32VW553/V1_MQTT_OK/GD32VW55X_Wifi_BLE_SDK/GD32VW55x_RELEASE_V1.0.2/MSDK/cloud/alicloud/src/services/linkkit/dm/client\dm_client_adapter.c ****     cm_param.read_buf_size = CONFIG_MQTT_RX_MAXLEN;
  48              		.loc 1 22 28
  49 0016 3EC8     		sw	a5,16(sp)
  23:C:/Users/stapi/OneDrive/Desktop/GD32VW553/V1_MQTT_OK/GD32VW55X_Wifi_BLE_SDK/GD32VW55x_RELEASE_V1.0.2/MSDK/cloud/alicloud/src/services/linkkit/dm/client\dm_client_adapter.c **** #if defined(COAP_COMM_ENABLED) && !defined(MQTT_COMM_ENABLED)
  24:C:/Users/stapi/OneDrive/Desktop/GD32VW553/V1_MQTT_OK/GD32VW55X_Wifi_BLE_SDK/GD32VW55x_RELEASE_V1.0.2/MSDK/cloud/alicloud/src/services/linkkit/dm/client\dm_client_adapter.c ****     cm_param.protocol_type = IOTX_CM_PROTOCOL_TYPE_COAP;
  25:C:/Users/stapi/OneDrive/Desktop/GD32VW553/V1_MQTT_OK/GD32VW55X_Wifi_BLE_SDK/GD32VW55x_RELEASE_V1.0.2/MSDK/cloud/alicloud/src/services/linkkit/dm/client\dm_client_adapter.c **** #else
  26:C:/Users/stapi/OneDrive/Desktop/GD32VW553/V1_MQTT_OK/GD32VW55X_Wifi_BLE_SDK/GD32VW55x_RELEASE_V1.0.2/MSDK/cloud/alicloud/src/services/linkkit/dm/client\dm_client_adapter.c ****     cm_param.protocol_type = IOTX_CM_PROTOCOL_TYPE_MQTT;
  50              		.loc 1 26 28
  51 0018 8547     		li	a5,1
  16:C:/Users/stapi/OneDrive/Desktop/GD32VW553/V1_MQTT_OK/GD32VW55X_Wifi_BLE_SDK/GD32VW55x_RELEASE_V1.0.2/MSDK/cloud/alicloud/src/services/linkkit/dm/client\dm_client_adapter.c ****     memset(&cm_param, 0, sizeof(iotx_cm_init_param_t));
  52              		.loc 1 16 5
  53 001a 37040000 		lui	s0,%hi(.LANCHOR0)
  19:C:/Users/stapi/OneDrive/Desktop/GD32VW553/V1_MQTT_OK/GD32VW55X_Wifi_BLE_SDK/GD32VW55x_RELEASE_V1.0.2/MSDK/cloud/alicloud/src/services/linkkit/dm/client\dm_client_adapter.c ****     cm_param.keepalive_interval_ms = IOTX_DM_CLIENT_KEEPALIVE_INTERVAL_MS;
  54              		.loc 1 19 33
  55 001e 3AC2     		sw	a4,4(sp)
  56              		.loc 1 26 28
  57 0020 3ECA     		sw	a5,20(sp)
  20:C:/Users/stapi/OneDrive/Desktop/GD32VW553/V1_MQTT_OK/GD32VW55X_Wifi_BLE_SDK/GD32VW55x_RELEASE_V1.0.2/MSDK/cloud/alicloud/src/services/linkkit/dm/client\dm_client_adapter.c ****     cm_param.write_buf_size = CONFIG_MQTT_TX_MAXLEN;
  58              		.loc 1 20 36
  59 0022 3D67     		li	a4,61440
  27:C:/Users/stapi/OneDrive/Desktop/GD32VW553/V1_MQTT_OK/GD32VW55X_Wifi_BLE_SDK/GD32VW55x_RELEASE_V1.0.2/MSDK/cloud/alicloud/src/services/linkkit/dm/client\dm_client_adapter.c **** #endif
  28:C:/Users/stapi/OneDrive/Desktop/GD32VW553/V1_MQTT_OK/GD32VW55X_Wifi_BLE_SDK/GD32VW55x_RELEASE_V1.0.2/MSDK/cloud/alicloud/src/services/linkkit/dm/client\dm_client_adapter.c ****     cm_param.handle_event = dm_client_event_handle;
  60              		.loc 1 28 27
  61 0024 B7070000 		lui	a5,%hi(dm_client_event_handle)
  16:C:/Users/stapi/OneDrive/Desktop/GD32VW553/V1_MQTT_OK/GD32VW55X_Wifi_BLE_SDK/GD32VW55x_RELEASE_V1.0.2/MSDK/cloud/alicloud/src/services/linkkit/dm/client\dm_client_adapter.c ****     memset(&cm_param, 0, sizeof(iotx_cm_init_param_t));
  62              		.loc 1 16 5
  63 0028 13040400 		addi	s0,s0,%lo(.LANCHOR0)
  20:C:/Users/stapi/OneDrive/Desktop/GD32VW553/V1_MQTT_OK/GD32VW55X_Wifi_BLE_SDK/GD32VW55x_RELEASE_V1.0.2/MSDK/cloud/alicloud/src/services/linkkit/dm/client\dm_client_adapter.c ****     cm_param.write_buf_size = CONFIG_MQTT_TX_MAXLEN;
  64              		.loc 1 20 36
  65 002c 130707A6 		addi	a4,a4,-1440
  66              		.loc 1 28 27
  67 0030 93870700 		addi	a5,a5,%lo(dm_client_event_handle)
  29:C:/Users/stapi/OneDrive/Desktop/GD32VW553/V1_MQTT_OK/GD32VW55X_Wifi_BLE_SDK/GD32VW55x_RELEASE_V1.0.2/MSDK/cloud/alicloud/src/services/linkkit/dm/client\dm_client_adapter.c **** 
  30:C:/Users/stapi/OneDrive/Desktop/GD32VW553/V1_MQTT_OK/GD32VW55X_Wifi_BLE_SDK/GD32VW55x_RELEASE_V1.0.2/MSDK/cloud/alicloud/src/services/linkkit/dm/client\dm_client_adapter.c ****     res = iotx_cm_open(&cm_param);
  68              		.loc 1 30 11
  69 0034 4800     		addi	a0,sp,4
  16:C:/Users/stapi/OneDrive/Desktop/GD32VW553/V1_MQTT_OK/GD32VW55X_Wifi_BLE_SDK/GD32VW55x_RELEASE_V1.0.2/MSDK/cloud/alicloud/src/services/linkkit/dm/client\dm_client_adapter.c ****     memset(&cm_param, 0, sizeof(iotx_cm_init_param_t));
  70              		.loc 1 16 5
  71 0036 23200400 		sw	zero,0(s0)
  72 003a 23220400 		sw	zero,4(s0)
  73 003e 23240400 		sw	zero,8(s0)
  17:C:/Users/stapi/OneDrive/Desktop/GD32VW553/V1_MQTT_OK/GD32VW55X_Wifi_BLE_SDK/GD32VW55x_RELEASE_V1.0.2/MSDK/cloud/alicloud/src/services/linkkit/dm/client\dm_client_adapter.c **** 
  74              		.loc 1 17 5 is_stmt 1
  75 0042 02CE     		sw	zero,28(sp)
  19:C:/Users/stapi/OneDrive/Desktop/GD32VW553/V1_MQTT_OK/GD32VW55X_Wifi_BLE_SDK/GD32VW55x_RELEASE_V1.0.2/MSDK/cloud/alicloud/src/services/linkkit/dm/client\dm_client_adapter.c ****     cm_param.keepalive_interval_ms = IOTX_DM_CLIENT_KEEPALIVE_INTERVAL_MS;
  76              		.loc 1 19 5
  20:C:/Users/stapi/OneDrive/Desktop/GD32VW553/V1_MQTT_OK/GD32VW55X_Wifi_BLE_SDK/GD32VW55x_RELEASE_V1.0.2/MSDK/cloud/alicloud/src/services/linkkit/dm/client\dm_client_adapter.c ****     cm_param.write_buf_size = CONFIG_MQTT_TX_MAXLEN;
  77              		.loc 1 20 5
  20:C:/Users/stapi/OneDrive/Desktop/GD32VW553/V1_MQTT_OK/GD32VW55X_Wifi_BLE_SDK/GD32VW55x_RELEASE_V1.0.2/MSDK/cloud/alicloud/src/services/linkkit/dm/client\dm_client_adapter.c ****     cm_param.write_buf_size = CONFIG_MQTT_TX_MAXLEN;
  78              		.loc 1 20 36 is_stmt 0
  79 0044 3AC4     		sw	a4,8(sp)
  21:C:/Users/stapi/OneDrive/Desktop/GD32VW553/V1_MQTT_OK/GD32VW55X_Wifi_BLE_SDK/GD32VW55x_RELEASE_V1.0.2/MSDK/cloud/alicloud/src/services/linkkit/dm/client\dm_client_adapter.c ****     cm_param.read_buf_size = CONFIG_MQTT_RX_MAXLEN;
  80              		.loc 1 21 5 is_stmt 1
  22:C:/Users/stapi/OneDrive/Desktop/GD32VW553/V1_MQTT_OK/GD32VW55X_Wifi_BLE_SDK/GD32VW55x_RELEASE_V1.0.2/MSDK/cloud/alicloud/src/services/linkkit/dm/client\dm_client_adapter.c **** #if defined(COAP_COMM_ENABLED) && !defined(MQTT_COMM_ENABLED)
  81              		.loc 1 22 5
  26:C:/Users/stapi/OneDrive/Desktop/GD32VW553/V1_MQTT_OK/GD32VW55X_Wifi_BLE_SDK/GD32VW55x_RELEASE_V1.0.2/MSDK/cloud/alicloud/src/services/linkkit/dm/client\dm_client_adapter.c **** #endif
  82              		.loc 1 26 5
  28:C:/Users/stapi/OneDrive/Desktop/GD32VW553/V1_MQTT_OK/GD32VW55X_Wifi_BLE_SDK/GD32VW55x_RELEASE_V1.0.2/MSDK/cloud/alicloud/src/services/linkkit/dm/client\dm_client_adapter.c **** 
  83              		.loc 1 28 5
  28:C:/Users/stapi/OneDrive/Desktop/GD32VW553/V1_MQTT_OK/GD32VW55X_Wifi_BLE_SDK/GD32VW55x_RELEASE_V1.0.2/MSDK/cloud/alicloud/src/services/linkkit/dm/client\dm_client_adapter.c **** 
  84              		.loc 1 28 27 is_stmt 0
  85 0046 3ECC     		sw	a5,24(sp)
  86              		.loc 1 30 5 is_stmt 1
  87              		.loc 1 30 11 is_stmt 0
  88 0048 97000000 		call	iotx_cm_open
  88      E7800000 
  89              	.LVL1:
  31:C:/Users/stapi/OneDrive/Desktop/GD32VW553/V1_MQTT_OK/GD32VW55X_Wifi_BLE_SDK/GD32VW55x_RELEASE_V1.0.2/MSDK/cloud/alicloud/src/services/linkkit/dm/client\dm_client_adapter.c **** 
  32:C:/Users/stapi/OneDrive/Desktop/GD32VW553/V1_MQTT_OK/GD32VW55X_Wifi_BLE_SDK/GD32VW55x_RELEASE_V1.0.2/MSDK/cloud/alicloud/src/services/linkkit/dm/client\dm_client_adapter.c ****     if (res < SUCCESS_RETURN) {
  90              		.loc 1 32 5 is_stmt 1
  91              		.loc 1 32 8 is_stmt 0
  92 0050 634D0502 		blt	a0,zero,.L1
  33:C:/Users/stapi/OneDrive/Desktop/GD32VW553/V1_MQTT_OK/GD32VW55X_Wifi_BLE_SDK/GD32VW55x_RELEASE_V1.0.2/MSDK/cloud/alicloud/src/services/linkkit/dm/client\dm_client_adapter.c ****         return res;
  34:C:/Users/stapi/OneDrive/Desktop/GD32VW553/V1_MQTT_OK/GD32VW55X_Wifi_BLE_SDK/GD32VW55x_RELEASE_V1.0.2/MSDK/cloud/alicloud/src/services/linkkit/dm/client\dm_client_adapter.c ****     }
  35:C:/Users/stapi/OneDrive/Desktop/GD32VW553/V1_MQTT_OK/GD32VW55X_Wifi_BLE_SDK/GD32VW55x_RELEASE_V1.0.2/MSDK/cloud/alicloud/src/services/linkkit/dm/client\dm_client_adapter.c ****     ctx->fd = res;
  93              		.loc 1 35 5 is_stmt 1
  94              		.loc 1 35 13 is_stmt 0
  95 0054 08C0     		sw	a0,0(s0)
  36:C:/Users/stapi/OneDrive/Desktop/GD32VW553/V1_MQTT_OK/GD32VW55X_Wifi_BLE_SDK/GD32VW55x_RELEASE_V1.0.2/MSDK/cloud/alicloud/src/services/linkkit/dm/client\dm_client_adapter.c **** 
  37:C:/Users/stapi/OneDrive/Desktop/GD32VW553/V1_MQTT_OK/GD32VW55X_Wifi_BLE_SDK/GD32VW55x_RELEASE_V1.0.2/MSDK/cloud/alicloud/src/services/linkkit/dm/client\dm_client_adapter.c ****     dm_log_info("CM Fd: %d", ctx->fd);
  96              		.loc 1 37 5 is_stmt 1
  97              		.loc 1 37 5
  98 0056 37050000 		lui	a0,%hi(.LC0)
  99              	.LVL2:
 100 005a 13050500 		addi	a0,a0,%lo(.LC0)
 101 005e 97000000 		call	HAL_Printf
 101      E7800000 
 102              	.LVL3:
 103              		.loc 1 37 5
 104 0066 0C40     		lw	a1,0(s0)
 105 0068 37050000 		lui	a0,%hi(.LC1)
 106 006c 13050500 		addi	a0,a0,%lo(.LC1)
 107 0070 97000000 		call	HAL_Printf
 107      E7800000 
 108              	.LVL4:
 109              		.loc 1 37 5
 110 0078 37050000 		lui	a0,%hi(.LC2)
 111 007c 13050500 		addi	a0,a0,%lo(.LC2)
 112 0080 97000000 		call	HAL_Printf
 112      E7800000 
 113              	.LVL5:
 114              		.loc 1 37 5
  38:C:/Users/stapi/OneDrive/Desktop/GD32VW553/V1_MQTT_OK/GD32VW55X_Wifi_BLE_SDK/GD32VW55x_RELEASE_V1.0.2/MSDK/cloud/alicloud/src/services/linkkit/dm/client\dm_client_adapter.c **** 
  39:C:/Users/stapi/OneDrive/Desktop/GD32VW553/V1_MQTT_OK/GD32VW55X_Wifi_BLE_SDK/GD32VW55x_RELEASE_V1.0.2/MSDK/cloud/alicloud/src/services/linkkit/dm/client\dm_client_adapter.c ****     return SUCCESS_RETURN;
 115              		.loc 1 39 5
 116              		.loc 1 39 12 is_stmt 0
 117 0088 0145     		li	a0,0
 118              	.L1:
  40:C:/Users/stapi/OneDrive/Desktop/GD32VW553/V1_MQTT_OK/GD32VW55X_Wifi_BLE_SDK/GD32VW55x_RELEASE_V1.0.2/MSDK/cloud/alicloud/src/services/linkkit/dm/client\dm_client_adapter.c **** }
 119              		.loc 1 40 1
 120 008a 0561     		addi	sp,sp,32
 121              		.cfi_def_cfa_offset 0
 122 008c 17030000 		tail	__riscv_restore_1
 122      67000300 
 123              		.cfi_restore 8
 124              		.cfi_restore 1
 125              		.cfi_def_cfa_offset -16
 126              		.cfi_endproc
 127              	.LFE21:
 129              		.section	.text.dm_client_connect,"ax",@progbits
 130              		.align	1
 131              		.globl	dm_client_connect
 133              	dm_client_connect:
 134              	.LFB22:
  41:C:/Users/stapi/OneDrive/Desktop/GD32VW553/V1_MQTT_OK/GD32VW55X_Wifi_BLE_SDK/GD32VW55x_RELEASE_V1.0.2/MSDK/cloud/alicloud/src/services/linkkit/dm/client\dm_client_adapter.c **** 
  42:C:/Users/stapi/OneDrive/Desktop/GD32VW553/V1_MQTT_OK/GD32VW55X_Wifi_BLE_SDK/GD32VW55x_RELEASE_V1.0.2/MSDK/cloud/alicloud/src/services/linkkit/dm/client\dm_client_adapter.c **** #if (CONFIG_SDK_THREAD_COST == 1)
  43:C:/Users/stapi/OneDrive/Desktop/GD32VW553/V1_MQTT_OK/GD32VW55X_Wifi_BLE_SDK/GD32VW55x_RELEASE_V1.0.2/MSDK/cloud/alicloud/src/services/linkkit/dm/client\dm_client_adapter.c **** static void *_iotx_cm_reconnect_thread_func(void *params);
  44:C:/Users/stapi/OneDrive/Desktop/GD32VW553/V1_MQTT_OK/GD32VW55X_Wifi_BLE_SDK/GD32VW55x_RELEASE_V1.0.2/MSDK/cloud/alicloud/src/services/linkkit/dm/client\dm_client_adapter.c **** static void *reconnect_thread = NULL;
  45:C:/Users/stapi/OneDrive/Desktop/GD32VW553/V1_MQTT_OK/GD32VW55X_Wifi_BLE_SDK/GD32VW55x_RELEASE_V1.0.2/MSDK/cloud/alicloud/src/services/linkkit/dm/client\dm_client_adapter.c **** static int reconnect_task_leave = 1;
  46:C:/Users/stapi/OneDrive/Desktop/GD32VW553/V1_MQTT_OK/GD32VW55X_Wifi_BLE_SDK/GD32VW55x_RELEASE_V1.0.2/MSDK/cloud/alicloud/src/services/linkkit/dm/client\dm_client_adapter.c **** static int reconnect_task_exit = 0;
  47:C:/Users/stapi/OneDrive/Desktop/GD32VW553/V1_MQTT_OK/GD32VW55X_Wifi_BLE_SDK/GD32VW55x_RELEASE_V1.0.2/MSDK/cloud/alicloud/src/services/linkkit/dm/client\dm_client_adapter.c **** 
  48:C:/Users/stapi/OneDrive/Desktop/GD32VW553/V1_MQTT_OK/GD32VW55X_Wifi_BLE_SDK/GD32VW55x_RELEASE_V1.0.2/MSDK/cloud/alicloud/src/services/linkkit/dm/client\dm_client_adapter.c **** static void *_iotx_cm_reconnect_thread_func(void *params)
  49:C:/Users/stapi/OneDrive/Desktop/GD32VW553/V1_MQTT_OK/GD32VW55X_Wifi_BLE_SDK/GD32VW55x_RELEASE_V1.0.2/MSDK/cloud/alicloud/src/services/linkkit/dm/client\dm_client_adapter.c **** {
  50:C:/Users/stapi/OneDrive/Desktop/GD32VW553/V1_MQTT_OK/GD32VW55X_Wifi_BLE_SDK/GD32VW55x_RELEASE_V1.0.2/MSDK/cloud/alicloud/src/services/linkkit/dm/client\dm_client_adapter.c ****     int res = -1;
  51:C:/Users/stapi/OneDrive/Desktop/GD32VW553/V1_MQTT_OK/GD32VW55X_Wifi_BLE_SDK/GD32VW55x_RELEASE_V1.0.2/MSDK/cloud/alicloud/src/services/linkkit/dm/client\dm_client_adapter.c ****     int timeout_ms = IOTX_DM_CLIENT_CONNECT_TIMEOUT_MS;
  52:C:/Users/stapi/OneDrive/Desktop/GD32VW553/V1_MQTT_OK/GD32VW55X_Wifi_BLE_SDK/GD32VW55x_RELEASE_V1.0.2/MSDK/cloud/alicloud/src/services/linkkit/dm/client\dm_client_adapter.c ****     dm_client_ctx_t *ctx = dm_client_get_ctx();
  53:C:/Users/stapi/OneDrive/Desktop/GD32VW553/V1_MQTT_OK/GD32VW55X_Wifi_BLE_SDK/GD32VW55x_RELEASE_V1.0.2/MSDK/cloud/alicloud/src/services/linkkit/dm/client\dm_client_adapter.c **** 
  54:C:/Users/stapi/OneDrive/Desktop/GD32VW553/V1_MQTT_OK/GD32VW55X_Wifi_BLE_SDK/GD32VW55x_RELEASE_V1.0.2/MSDK/cloud/alicloud/src/services/linkkit/dm/client\dm_client_adapter.c ****     reconnect_task_exit = 0;
  55:C:/Users/stapi/OneDrive/Desktop/GD32VW553/V1_MQTT_OK/GD32VW55X_Wifi_BLE_SDK/GD32VW55x_RELEASE_V1.0.2/MSDK/cloud/alicloud/src/services/linkkit/dm/client\dm_client_adapter.c ****     reconnect_task_leave = 0;
  56:C:/Users/stapi/OneDrive/Desktop/GD32VW553/V1_MQTT_OK/GD32VW55X_Wifi_BLE_SDK/GD32VW55x_RELEASE_V1.0.2/MSDK/cloud/alicloud/src/services/linkkit/dm/client\dm_client_adapter.c ****     while (res < SUCCESS_RETURN && (reconnect_task_exit == 0)) {
  57:C:/Users/stapi/OneDrive/Desktop/GD32VW553/V1_MQTT_OK/GD32VW55X_Wifi_BLE_SDK/GD32VW55x_RELEASE_V1.0.2/MSDK/cloud/alicloud/src/services/linkkit/dm/client\dm_client_adapter.c ****         dm_log_info("iotx_cm_connect, timeout_ms:%d", timeout_ms);
  58:C:/Users/stapi/OneDrive/Desktop/GD32VW553/V1_MQTT_OK/GD32VW55X_Wifi_BLE_SDK/GD32VW55x_RELEASE_V1.0.2/MSDK/cloud/alicloud/src/services/linkkit/dm/client\dm_client_adapter.c ****         res = iotx_cm_connect(ctx->fd, timeout_ms);
  59:C:/Users/stapi/OneDrive/Desktop/GD32VW553/V1_MQTT_OK/GD32VW55X_Wifi_BLE_SDK/GD32VW55x_RELEASE_V1.0.2/MSDK/cloud/alicloud/src/services/linkkit/dm/client\dm_client_adapter.c ****         dm_log_info("iotx_cm_connect, res:%d", res);
  60:C:/Users/stapi/OneDrive/Desktop/GD32VW553/V1_MQTT_OK/GD32VW55X_Wifi_BLE_SDK/GD32VW55x_RELEASE_V1.0.2/MSDK/cloud/alicloud/src/services/linkkit/dm/client\dm_client_adapter.c ****         HAL_SleepMs(10000);
  61:C:/Users/stapi/OneDrive/Desktop/GD32VW553/V1_MQTT_OK/GD32VW55X_Wifi_BLE_SDK/GD32VW55x_RELEASE_V1.0.2/MSDK/cloud/alicloud/src/services/linkkit/dm/client\dm_client_adapter.c ****     }
  62:C:/Users/stapi/OneDrive/Desktop/GD32VW553/V1_MQTT_OK/GD32VW55X_Wifi_BLE_SDK/GD32VW55x_RELEASE_V1.0.2/MSDK/cloud/alicloud/src/services/linkkit/dm/client\dm_client_adapter.c ****     reconnect_task_leave = 1;
  63:C:/Users/stapi/OneDrive/Desktop/GD32VW553/V1_MQTT_OK/GD32VW55X_Wifi_BLE_SDK/GD32VW55x_RELEASE_V1.0.2/MSDK/cloud/alicloud/src/services/linkkit/dm/client\dm_client_adapter.c **** 
  64:C:/Users/stapi/OneDrive/Desktop/GD32VW553/V1_MQTT_OK/GD32VW55X_Wifi_BLE_SDK/GD32VW55x_RELEASE_V1.0.2/MSDK/cloud/alicloud/src/services/linkkit/dm/client\dm_client_adapter.c ****     if (reconnect_thread != NULL) {
  65:C:/Users/stapi/OneDrive/Desktop/GD32VW553/V1_MQTT_OK/GD32VW55X_Wifi_BLE_SDK/GD32VW55x_RELEASE_V1.0.2/MSDK/cloud/alicloud/src/services/linkkit/dm/client\dm_client_adapter.c ****         HAL_ThreadDelete(reconnect_thread);
  66:C:/Users/stapi/OneDrive/Desktop/GD32VW553/V1_MQTT_OK/GD32VW55X_Wifi_BLE_SDK/GD32VW55x_RELEASE_V1.0.2/MSDK/cloud/alicloud/src/services/linkkit/dm/client\dm_client_adapter.c ****         reconnect_thread = NULL;
  67:C:/Users/stapi/OneDrive/Desktop/GD32VW553/V1_MQTT_OK/GD32VW55X_Wifi_BLE_SDK/GD32VW55x_RELEASE_V1.0.2/MSDK/cloud/alicloud/src/services/linkkit/dm/client\dm_client_adapter.c ****     }
  68:C:/Users/stapi/OneDrive/Desktop/GD32VW553/V1_MQTT_OK/GD32VW55X_Wifi_BLE_SDK/GD32VW55x_RELEASE_V1.0.2/MSDK/cloud/alicloud/src/services/linkkit/dm/client\dm_client_adapter.c ****     return NULL;
  69:C:/Users/stapi/OneDrive/Desktop/GD32VW553/V1_MQTT_OK/GD32VW55X_Wifi_BLE_SDK/GD32VW55x_RELEASE_V1.0.2/MSDK/cloud/alicloud/src/services/linkkit/dm/client\dm_client_adapter.c **** }
  70:C:/Users/stapi/OneDrive/Desktop/GD32VW553/V1_MQTT_OK/GD32VW55X_Wifi_BLE_SDK/GD32VW55x_RELEASE_V1.0.2/MSDK/cloud/alicloud/src/services/linkkit/dm/client\dm_client_adapter.c **** #endif
  71:C:/Users/stapi/OneDrive/Desktop/GD32VW553/V1_MQTT_OK/GD32VW55X_Wifi_BLE_SDK/GD32VW55x_RELEASE_V1.0.2/MSDK/cloud/alicloud/src/services/linkkit/dm/client\dm_client_adapter.c **** 
  72:C:/Users/stapi/OneDrive/Desktop/GD32VW553/V1_MQTT_OK/GD32VW55X_Wifi_BLE_SDK/GD32VW55x_RELEASE_V1.0.2/MSDK/cloud/alicloud/src/services/linkkit/dm/client\dm_client_adapter.c **** int dm_client_connect(int timeout_ms)
  73:C:/Users/stapi/OneDrive/Desktop/GD32VW553/V1_MQTT_OK/GD32VW55X_Wifi_BLE_SDK/GD32VW55x_RELEASE_V1.0.2/MSDK/cloud/alicloud/src/services/linkkit/dm/client\dm_client_adapter.c **** {
 135              		.loc 1 73 1 is_stmt 1
 136              		.cfi_startproc
 137              	.LVL6:
 138 0000 17030000 		call	t0,__riscv_save_1
 138      E7020300 
 139              		.cfi_offset 8, -8
 140              		.cfi_offset 1, -4
 141              		.cfi_def_cfa_offset 16
  74:C:/Users/stapi/OneDrive/Desktop/GD32VW553/V1_MQTT_OK/GD32VW55X_Wifi_BLE_SDK/GD32VW55x_RELEASE_V1.0.2/MSDK/cloud/alicloud/src/services/linkkit/dm/client\dm_client_adapter.c ****     int res = SUCCESS_RETURN;
 142              		.loc 1 74 5
 143              	.LVL7:
  75:C:/Users/stapi/OneDrive/Desktop/GD32VW553/V1_MQTT_OK/GD32VW55X_Wifi_BLE_SDK/GD32VW55x_RELEASE_V1.0.2/MSDK/cloud/alicloud/src/services/linkkit/dm/client\dm_client_adapter.c ****     dm_client_ctx_t *ctx = dm_client_get_ctx();
 144              		.loc 1 75 5
   7:C:/Users/stapi/OneDrive/Desktop/GD32VW553/V1_MQTT_OK/GD32VW55X_Wifi_BLE_SDK/GD32VW55x_RELEASE_V1.0.2/MSDK/cloud/alicloud/src/services/linkkit/dm/client\dm_client_adapter.c **** }
 145              		.loc 1 7 5
  76:C:/Users/stapi/OneDrive/Desktop/GD32VW553/V1_MQTT_OK/GD32VW55X_Wifi_BLE_SDK/GD32VW55x_RELEASE_V1.0.2/MSDK/cloud/alicloud/src/services/linkkit/dm/client\dm_client_adapter.c **** 
  77:C:/Users/stapi/OneDrive/Desktop/GD32VW553/V1_MQTT_OK/GD32VW55X_Wifi_BLE_SDK/GD32VW55x_RELEASE_V1.0.2/MSDK/cloud/alicloud/src/services/linkkit/dm/client\dm_client_adapter.c ****     if (ctx->fd == -1) {
 146              		.loc 1 77 5
 147              		.loc 1 77 12 is_stmt 0
 148 0008 B7070000 		lui	a5,%hi(.LANCHOR0)
 149              		.loc 1 77 8
 150 000c 83A60700 		lw	a3,%lo(.LANCHOR0)(a5)
 151 0010 7D57     		li	a4,-1
  73:C:/Users/stapi/OneDrive/Desktop/GD32VW553/V1_MQTT_OK/GD32VW55X_Wifi_BLE_SDK/GD32VW55x_RELEASE_V1.0.2/MSDK/cloud/alicloud/src/services/linkkit/dm/client\dm_client_adapter.c ****     int res = SUCCESS_RETURN;
 152              		.loc 1 73 1
 153 0012 4111     		addi	sp,sp,-16
 154              		.cfi_def_cfa_offset 32
  73:C:/Users/stapi/OneDrive/Desktop/GD32VW553/V1_MQTT_OK/GD32VW55X_Wifi_BLE_SDK/GD32VW55x_RELEASE_V1.0.2/MSDK/cloud/alicloud/src/services/linkkit/dm/client\dm_client_adapter.c ****     int res = SUCCESS_RETURN;
 155              		.loc 1 73 1
 156 0014 AA85     		mv	a1,a0
 157 0016 13840700 		addi	s0,a5,%lo(.LANCHOR0)
 158              		.loc 1 77 8
 159 001a 638CE600 		beq	a3,a4,.L5
 160              	.LVL8:
 161              	.L7:
  78:C:/Users/stapi/OneDrive/Desktop/GD32VW553/V1_MQTT_OK/GD32VW55X_Wifi_BLE_SDK/GD32VW55x_RELEASE_V1.0.2/MSDK/cloud/alicloud/src/services/linkkit/dm/client\dm_client_adapter.c ****         res = dm_client_open();
  79:C:/Users/stapi/OneDrive/Desktop/GD32VW553/V1_MQTT_OK/GD32VW55X_Wifi_BLE_SDK/GD32VW55x_RELEASE_V1.0.2/MSDK/cloud/alicloud/src/services/linkkit/dm/client\dm_client_adapter.c ****     }
  80:C:/Users/stapi/OneDrive/Desktop/GD32VW553/V1_MQTT_OK/GD32VW55X_Wifi_BLE_SDK/GD32VW55x_RELEASE_V1.0.2/MSDK/cloud/alicloud/src/services/linkkit/dm/client\dm_client_adapter.c **** 
  81:C:/Users/stapi/OneDrive/Desktop/GD32VW553/V1_MQTT_OK/GD32VW55X_Wifi_BLE_SDK/GD32VW55x_RELEASE_V1.0.2/MSDK/cloud/alicloud/src/services/linkkit/dm/client\dm_client_adapter.c ****     if (res != SUCCESS_RETURN) {
  82:C:/Users/stapi/OneDrive/Desktop/GD32VW553/V1_MQTT_OK/GD32VW55X_Wifi_BLE_SDK/GD32VW55x_RELEASE_V1.0.2/MSDK/cloud/alicloud/src/services/linkkit/dm/client\dm_client_adapter.c ****         return res;
  83:C:/Users/stapi/OneDrive/Desktop/GD32VW553/V1_MQTT_OK/GD32VW55X_Wifi_BLE_SDK/GD32VW55x_RELEASE_V1.0.2/MSDK/cloud/alicloud/src/services/linkkit/dm/client\dm_client_adapter.c ****     }
  84:C:/Users/stapi/OneDrive/Desktop/GD32VW553/V1_MQTT_OK/GD32VW55X_Wifi_BLE_SDK/GD32VW55x_RELEASE_V1.0.2/MSDK/cloud/alicloud/src/services/linkkit/dm/client\dm_client_adapter.c **** 
  85:C:/Users/stapi/OneDrive/Desktop/GD32VW553/V1_MQTT_OK/GD32VW55X_Wifi_BLE_SDK/GD32VW55x_RELEASE_V1.0.2/MSDK/cloud/alicloud/src/services/linkkit/dm/client\dm_client_adapter.c **** #if (CONFIG_SDK_THREAD_COST == 1)
  86:C:/Users/stapi/OneDrive/Desktop/GD32VW553/V1_MQTT_OK/GD32VW55X_Wifi_BLE_SDK/GD32VW55x_RELEASE_V1.0.2/MSDK/cloud/alicloud/src/services/linkkit/dm/client\dm_client_adapter.c ****     int stack_used;
  87:C:/Users/stapi/OneDrive/Desktop/GD32VW553/V1_MQTT_OK/GD32VW55X_Wifi_BLE_SDK/GD32VW55x_RELEASE_V1.0.2/MSDK/cloud/alicloud/src/services/linkkit/dm/client\dm_client_adapter.c ****     hal_os_thread_param_t task_parms = {0};
  88:C:/Users/stapi/OneDrive/Desktop/GD32VW553/V1_MQTT_OK/GD32VW55X_Wifi_BLE_SDK/GD32VW55x_RELEASE_V1.0.2/MSDK/cloud/alicloud/src/services/linkkit/dm/client\dm_client_adapter.c **** #if (defined (TG7100CEVB))
  89:C:/Users/stapi/OneDrive/Desktop/GD32VW553/V1_MQTT_OK/GD32VW55X_Wifi_BLE_SDK/GD32VW55x_RELEASE_V1.0.2/MSDK/cloud/alicloud/src/services/linkkit/dm/client\dm_client_adapter.c ****     task_parms.stack_size = 6144 + 128;
  90:C:/Users/stapi/OneDrive/Desktop/GD32VW553/V1_MQTT_OK/GD32VW55X_Wifi_BLE_SDK/GD32VW55x_RELEASE_V1.0.2/MSDK/cloud/alicloud/src/services/linkkit/dm/client\dm_client_adapter.c **** #else
  91:C:/Users/stapi/OneDrive/Desktop/GD32VW553/V1_MQTT_OK/GD32VW55X_Wifi_BLE_SDK/GD32VW55x_RELEASE_V1.0.2/MSDK/cloud/alicloud/src/services/linkkit/dm/client\dm_client_adapter.c ****     task_parms.stack_size = 6144;
  92:C:/Users/stapi/OneDrive/Desktop/GD32VW553/V1_MQTT_OK/GD32VW55X_Wifi_BLE_SDK/GD32VW55x_RELEASE_V1.0.2/MSDK/cloud/alicloud/src/services/linkkit/dm/client\dm_client_adapter.c **** #endif
  93:C:/Users/stapi/OneDrive/Desktop/GD32VW553/V1_MQTT_OK/GD32VW55X_Wifi_BLE_SDK/GD32VW55x_RELEASE_V1.0.2/MSDK/cloud/alicloud/src/services/linkkit/dm/client\dm_client_adapter.c ****     task_parms.name = "cm_reconnect";
  94:C:/Users/stapi/OneDrive/Desktop/GD32VW553/V1_MQTT_OK/GD32VW55X_Wifi_BLE_SDK/GD32VW55x_RELEASE_V1.0.2/MSDK/cloud/alicloud/src/services/linkkit/dm/client\dm_client_adapter.c ****     res = HAL_ThreadCreate(&reconnect_thread, _iotx_cm_reconnect_thread_func, NULL, &task_parms, &s
  95:C:/Users/stapi/OneDrive/Desktop/GD32VW553/V1_MQTT_OK/GD32VW55X_Wifi_BLE_SDK/GD32VW55x_RELEASE_V1.0.2/MSDK/cloud/alicloud/src/services/linkkit/dm/client\dm_client_adapter.c **** #else
  96:C:/Users/stapi/OneDrive/Desktop/GD32VW553/V1_MQTT_OK/GD32VW55X_Wifi_BLE_SDK/GD32VW55x_RELEASE_V1.0.2/MSDK/cloud/alicloud/src/services/linkkit/dm/client\dm_client_adapter.c ****     res = iotx_cm_connect(ctx->fd, timeout_ms);
 162              		.loc 1 96 5 is_stmt 1
 163              		.loc 1 96 11 is_stmt 0
 164 001e 0840     		lw	a0,0(s0)
 165 0020 97000000 		call	iotx_cm_connect
 165      E7800000 
 166              	.LVL9:
  97:C:/Users/stapi/OneDrive/Desktop/GD32VW553/V1_MQTT_OK/GD32VW55X_Wifi_BLE_SDK/GD32VW55x_RELEASE_V1.0.2/MSDK/cloud/alicloud/src/services/linkkit/dm/client\dm_client_adapter.c ****     if (res < SUCCESS_RETURN) {
 167              		.loc 1 97 5 is_stmt 1
 168              	.L4:
  98:C:/Users/stapi/OneDrive/Desktop/GD32VW553/V1_MQTT_OK/GD32VW55X_Wifi_BLE_SDK/GD32VW55x_RELEASE_V1.0.2/MSDK/cloud/alicloud/src/services/linkkit/dm/client\dm_client_adapter.c ****         return res;
  99:C:/Users/stapi/OneDrive/Desktop/GD32VW553/V1_MQTT_OK/GD32VW55X_Wifi_BLE_SDK/GD32VW55x_RELEASE_V1.0.2/MSDK/cloud/alicloud/src/services/linkkit/dm/client\dm_client_adapter.c ****     }
 100:C:/Users/stapi/OneDrive/Desktop/GD32VW553/V1_MQTT_OK/GD32VW55X_Wifi_BLE_SDK/GD32VW55x_RELEASE_V1.0.2/MSDK/cloud/alicloud/src/services/linkkit/dm/client\dm_client_adapter.c **** #endif
 101:C:/Users/stapi/OneDrive/Desktop/GD32VW553/V1_MQTT_OK/GD32VW55X_Wifi_BLE_SDK/GD32VW55x_RELEASE_V1.0.2/MSDK/cloud/alicloud/src/services/linkkit/dm/client\dm_client_adapter.c **** 
 102:C:/Users/stapi/OneDrive/Desktop/GD32VW553/V1_MQTT_OK/GD32VW55X_Wifi_BLE_SDK/GD32VW55x_RELEASE_V1.0.2/MSDK/cloud/alicloud/src/services/linkkit/dm/client\dm_client_adapter.c ****     return res;
 103:C:/Users/stapi/OneDrive/Desktop/GD32VW553/V1_MQTT_OK/GD32VW55X_Wifi_BLE_SDK/GD32VW55x_RELEASE_V1.0.2/MSDK/cloud/alicloud/src/services/linkkit/dm/client\dm_client_adapter.c **** }
 169              		.loc 1 103 1 is_stmt 0
 170 0028 4101     		addi	sp,sp,16
 171              		.cfi_remember_state
 172              		.cfi_def_cfa_offset 0
 173 002a 17030000 		tail	__riscv_restore_1
 173      67000300 
 174              		.cfi_restore 8
 175              		.cfi_restore 1
 176              		.cfi_def_cfa_offset -16
 177              	.LVL10:
 178              	.L5:
 179              		.cfi_restore_state
 180 0032 2AC6     		sw	a0,12(sp)
  78:C:/Users/stapi/OneDrive/Desktop/GD32VW553/V1_MQTT_OK/GD32VW55X_Wifi_BLE_SDK/GD32VW55x_RELEASE_V1.0.2/MSDK/cloud/alicloud/src/services/linkkit/dm/client\dm_client_adapter.c ****     }
 181              		.loc 1 78 9 is_stmt 1
  78:C:/Users/stapi/OneDrive/Desktop/GD32VW553/V1_MQTT_OK/GD32VW55X_Wifi_BLE_SDK/GD32VW55x_RELEASE_V1.0.2/MSDK/cloud/alicloud/src/services/linkkit/dm/client\dm_client_adapter.c ****     }
 182              		.loc 1 78 15 is_stmt 0
 183 0034 97000000 		call	dm_client_open
 183      E7800000 
 184              	.LVL11:
  81:C:/Users/stapi/OneDrive/Desktop/GD32VW553/V1_MQTT_OK/GD32VW55X_Wifi_BLE_SDK/GD32VW55x_RELEASE_V1.0.2/MSDK/cloud/alicloud/src/services/linkkit/dm/client\dm_client_adapter.c ****         return res;
 185              		.loc 1 81 5 is_stmt 1
  81:C:/Users/stapi/OneDrive/Desktop/GD32VW553/V1_MQTT_OK/GD32VW55X_Wifi_BLE_SDK/GD32VW55x_RELEASE_V1.0.2/MSDK/cloud/alicloud/src/services/linkkit/dm/client\dm_client_adapter.c ****         return res;
 186              		.loc 1 81 8 is_stmt 0
 187 003c B245     		lw	a1,12(sp)
 188 003e 65D1     		beq	a0,zero,.L7
 189 0040 E5B7     		j	.L4
 190              		.cfi_endproc
 191              	.LFE22:
 193              		.section	.text.dm_client_close,"ax",@progbits
 194              		.align	1
 195              		.globl	dm_client_close
 197              	dm_client_close:
 198              	.LFB23:
 104:C:/Users/stapi/OneDrive/Desktop/GD32VW553/V1_MQTT_OK/GD32VW55X_Wifi_BLE_SDK/GD32VW55x_RELEASE_V1.0.2/MSDK/cloud/alicloud/src/services/linkkit/dm/client\dm_client_adapter.c **** 
 105:C:/Users/stapi/OneDrive/Desktop/GD32VW553/V1_MQTT_OK/GD32VW55X_Wifi_BLE_SDK/GD32VW55x_RELEASE_V1.0.2/MSDK/cloud/alicloud/src/services/linkkit/dm/client\dm_client_adapter.c **** int dm_client_close(void)
 106:C:/Users/stapi/OneDrive/Desktop/GD32VW553/V1_MQTT_OK/GD32VW55X_Wifi_BLE_SDK/GD32VW55x_RELEASE_V1.0.2/MSDK/cloud/alicloud/src/services/linkkit/dm/client\dm_client_adapter.c **** {
 199              		.loc 1 106 1 is_stmt 1
 200              		.cfi_startproc
 201 0000 17030000 		call	t0,__riscv_save_1
 201      E7020300 
 202              		.cfi_offset 8, -8
 203              		.cfi_offset 1, -4
 204              		.cfi_def_cfa_offset 16
 107:C:/Users/stapi/OneDrive/Desktop/GD32VW553/V1_MQTT_OK/GD32VW55X_Wifi_BLE_SDK/GD32VW55x_RELEASE_V1.0.2/MSDK/cloud/alicloud/src/services/linkkit/dm/client\dm_client_adapter.c ****     int ret;
 205              		.loc 1 107 5
 108:C:/Users/stapi/OneDrive/Desktop/GD32VW553/V1_MQTT_OK/GD32VW55X_Wifi_BLE_SDK/GD32VW55x_RELEASE_V1.0.2/MSDK/cloud/alicloud/src/services/linkkit/dm/client\dm_client_adapter.c **** 
 109:C:/Users/stapi/OneDrive/Desktop/GD32VW553/V1_MQTT_OK/GD32VW55X_Wifi_BLE_SDK/GD32VW55x_RELEASE_V1.0.2/MSDK/cloud/alicloud/src/services/linkkit/dm/client\dm_client_adapter.c ****     dm_client_ctx_t *ctx = dm_client_get_ctx();
 206              		.loc 1 109 5
   7:C:/Users/stapi/OneDrive/Desktop/GD32VW553/V1_MQTT_OK/GD32VW55X_Wifi_BLE_SDK/GD32VW55x_RELEASE_V1.0.2/MSDK/cloud/alicloud/src/services/linkkit/dm/client\dm_client_adapter.c **** }
 207              		.loc 1 7 5
 208              	.LVL12:
 110:C:/Users/stapi/OneDrive/Desktop/GD32VW553/V1_MQTT_OK/GD32VW55X_Wifi_BLE_SDK/GD32VW55x_RELEASE_V1.0.2/MSDK/cloud/alicloud/src/services/linkkit/dm/client\dm_client_adapter.c **** 
 111:C:/Users/stapi/OneDrive/Desktop/GD32VW553/V1_MQTT_OK/GD32VW55X_Wifi_BLE_SDK/GD32VW55x_RELEASE_V1.0.2/MSDK/cloud/alicloud/src/services/linkkit/dm/client\dm_client_adapter.c **** #if (CONFIG_SDK_THREAD_COST == 1)
 112:C:/Users/stapi/OneDrive/Desktop/GD32VW553/V1_MQTT_OK/GD32VW55X_Wifi_BLE_SDK/GD32VW55x_RELEASE_V1.0.2/MSDK/cloud/alicloud/src/services/linkkit/dm/client\dm_client_adapter.c ****     reconnect_task_exit = 1;
 113:C:/Users/stapi/OneDrive/Desktop/GD32VW553/V1_MQTT_OK/GD32VW55X_Wifi_BLE_SDK/GD32VW55x_RELEASE_V1.0.2/MSDK/cloud/alicloud/src/services/linkkit/dm/client\dm_client_adapter.c ****     while (!reconnect_task_leave) {
 114:C:/Users/stapi/OneDrive/Desktop/GD32VW553/V1_MQTT_OK/GD32VW55X_Wifi_BLE_SDK/GD32VW55x_RELEASE_V1.0.2/MSDK/cloud/alicloud/src/services/linkkit/dm/client\dm_client_adapter.c ****         HAL_SleepMs(10);
 115:C:/Users/stapi/OneDrive/Desktop/GD32VW553/V1_MQTT_OK/GD32VW55X_Wifi_BLE_SDK/GD32VW55x_RELEASE_V1.0.2/MSDK/cloud/alicloud/src/services/linkkit/dm/client\dm_client_adapter.c ****     }
 116:C:/Users/stapi/OneDrive/Desktop/GD32VW553/V1_MQTT_OK/GD32VW55X_Wifi_BLE_SDK/GD32VW55x_RELEASE_V1.0.2/MSDK/cloud/alicloud/src/services/linkkit/dm/client\dm_client_adapter.c ****     if (reconnect_thread != NULL) {
 117:C:/Users/stapi/OneDrive/Desktop/GD32VW553/V1_MQTT_OK/GD32VW55X_Wifi_BLE_SDK/GD32VW55x_RELEASE_V1.0.2/MSDK/cloud/alicloud/src/services/linkkit/dm/client\dm_client_adapter.c ****         HAL_ThreadDelete(reconnect_thread);
 118:C:/Users/stapi/OneDrive/Desktop/GD32VW553/V1_MQTT_OK/GD32VW55X_Wifi_BLE_SDK/GD32VW55x_RELEASE_V1.0.2/MSDK/cloud/alicloud/src/services/linkkit/dm/client\dm_client_adapter.c ****         reconnect_thread = NULL;
 119:C:/Users/stapi/OneDrive/Desktop/GD32VW553/V1_MQTT_OK/GD32VW55X_Wifi_BLE_SDK/GD32VW55x_RELEASE_V1.0.2/MSDK/cloud/alicloud/src/services/linkkit/dm/client\dm_client_adapter.c ****     }
 120:C:/Users/stapi/OneDrive/Desktop/GD32VW553/V1_MQTT_OK/GD32VW55X_Wifi_BLE_SDK/GD32VW55x_RELEASE_V1.0.2/MSDK/cloud/alicloud/src/services/linkkit/dm/client\dm_client_adapter.c **** #endif
 121:C:/Users/stapi/OneDrive/Desktop/GD32VW553/V1_MQTT_OK/GD32VW55X_Wifi_BLE_SDK/GD32VW55x_RELEASE_V1.0.2/MSDK/cloud/alicloud/src/services/linkkit/dm/client\dm_client_adapter.c ****     ret = iotx_cm_close(ctx->fd);
 209              		.loc 1 121 5
 210              		.loc 1 121 11 is_stmt 0
 211 0008 37040000 		lui	s0,%hi(.LANCHOR0)
 212 000c 13040400 		addi	s0,s0,%lo(.LANCHOR0)
 213 0010 0840     		lw	a0,0(s0)
 214 0012 97000000 		call	iotx_cm_close
 214      E7800000 
 215              	.LVL13:
 122:C:/Users/stapi/OneDrive/Desktop/GD32VW553/V1_MQTT_OK/GD32VW55X_Wifi_BLE_SDK/GD32VW55x_RELEASE_V1.0.2/MSDK/cloud/alicloud/src/services/linkkit/dm/client\dm_client_adapter.c ****     if (ret == 0) {
 216              		.loc 1 122 5 is_stmt 1
 217              		.loc 1 122 8 is_stmt 0
 218 001a 19E1     		bne	a0,zero,.L12
 123:C:/Users/stapi/OneDrive/Desktop/GD32VW553/V1_MQTT_OK/GD32VW55X_Wifi_BLE_SDK/GD32VW55x_RELEASE_V1.0.2/MSDK/cloud/alicloud/src/services/linkkit/dm/client\dm_client_adapter.c ****         ctx->fd = -1;
 219              		.loc 1 123 9 is_stmt 1
 220              		.loc 1 123 17 is_stmt 0
 221 001c FD57     		li	a5,-1
 222 001e 1CC0     		sw	a5,0(s0)
 124:C:/Users/stapi/OneDrive/Desktop/GD32VW553/V1_MQTT_OK/GD32VW55X_Wifi_BLE_SDK/GD32VW55x_RELEASE_V1.0.2/MSDK/cloud/alicloud/src/services/linkkit/dm/client\dm_client_adapter.c ****     }
 125:C:/Users/stapi/OneDrive/Desktop/GD32VW553/V1_MQTT_OK/GD32VW55X_Wifi_BLE_SDK/GD32VW55x_RELEASE_V1.0.2/MSDK/cloud/alicloud/src/services/linkkit/dm/client\dm_client_adapter.c **** 
 126:C:/Users/stapi/OneDrive/Desktop/GD32VW553/V1_MQTT_OK/GD32VW55X_Wifi_BLE_SDK/GD32VW55x_RELEASE_V1.0.2/MSDK/cloud/alicloud/src/services/linkkit/dm/client\dm_client_adapter.c ****     return ret;
 223              		.loc 1 126 5 is_stmt 1
 224              	.L12:
 127:C:/Users/stapi/OneDrive/Desktop/GD32VW553/V1_MQTT_OK/GD32VW55X_Wifi_BLE_SDK/GD32VW55x_RELEASE_V1.0.2/MSDK/cloud/alicloud/src/services/linkkit/dm/client\dm_client_adapter.c **** }
 225              		.loc 1 127 1 is_stmt 0
 226 0020 17030000 		tail	__riscv_restore_1
 226      67000300 
 227              		.cfi_restore 8
 228              		.cfi_restore 1
 229              		.cfi_def_cfa_offset 0
 230              		.cfi_endproc
 231              	.LFE23:
 233              		.section	.rodata.dm_client_subscribe.str1.4,"aMS",@progbits,1
 234              		.align	2
 235              	.LC3:
 236 0000 53756273 		.string	"Subscribe Result: %d"
 236      63726962 
 236      65205265 
 236      73756C74 
 236      3A202564 
 237              		.section	.text.dm_client_subscribe,"ax",@progbits
 238              		.align	1
 239              		.globl	dm_client_subscribe
 241              	dm_client_subscribe:
 242              	.LFB24:
 128:C:/Users/stapi/OneDrive/Desktop/GD32VW553/V1_MQTT_OK/GD32VW55X_Wifi_BLE_SDK/GD32VW55x_RELEASE_V1.0.2/MSDK/cloud/alicloud/src/services/linkkit/dm/client\dm_client_adapter.c **** 
 129:C:/Users/stapi/OneDrive/Desktop/GD32VW553/V1_MQTT_OK/GD32VW55X_Wifi_BLE_SDK/GD32VW55x_RELEASE_V1.0.2/MSDK/cloud/alicloud/src/services/linkkit/dm/client\dm_client_adapter.c **** int dm_client_subscribe(char *uri, iotx_cm_data_handle_cb callback, void *context)
 130:C:/Users/stapi/OneDrive/Desktop/GD32VW553/V1_MQTT_OK/GD32VW55X_Wifi_BLE_SDK/GD32VW55x_RELEASE_V1.0.2/MSDK/cloud/alicloud/src/services/linkkit/dm/client\dm_client_adapter.c **** {
 243              		.loc 1 130 1 is_stmt 1
 244              		.cfi_startproc
 245              	.LVL14:
 246 0000 17030000 		call	t0,__riscv_save_1
 246      E7020300 
 247              		.cfi_offset 8, -8
 248              		.cfi_offset 1, -4
 249              		.cfi_def_cfa_offset 16
 131:C:/Users/stapi/OneDrive/Desktop/GD32VW553/V1_MQTT_OK/GD32VW55X_Wifi_BLE_SDK/GD32VW55x_RELEASE_V1.0.2/MSDK/cloud/alicloud/src/services/linkkit/dm/client\dm_client_adapter.c ****     int res = 0;
 250              		.loc 1 131 5
 251              	.LVL15:
 132:C:/Users/stapi/OneDrive/Desktop/GD32VW553/V1_MQTT_OK/GD32VW55X_Wifi_BLE_SDK/GD32VW55x_RELEASE_V1.0.2/MSDK/cloud/alicloud/src/services/linkkit/dm/client\dm_client_adapter.c ****     uint8_t local_sub = 0;
 252              		.loc 1 132 5
 133:C:/Users/stapi/OneDrive/Desktop/GD32VW553/V1_MQTT_OK/GD32VW55X_Wifi_BLE_SDK/GD32VW55x_RELEASE_V1.0.2/MSDK/cloud/alicloud/src/services/linkkit/dm/client\dm_client_adapter.c ****     dm_client_ctx_t *ctx = dm_client_get_ctx();
 253              		.loc 1 133 5
   7:C:/Users/stapi/OneDrive/Desktop/GD32VW553/V1_MQTT_OK/GD32VW55X_Wifi_BLE_SDK/GD32VW55x_RELEASE_V1.0.2/MSDK/cloud/alicloud/src/services/linkkit/dm/client\dm_client_adapter.c **** }
 254              		.loc 1 7 5
 134:C:/Users/stapi/OneDrive/Desktop/GD32VW553/V1_MQTT_OK/GD32VW55X_Wifi_BLE_SDK/GD32VW55x_RELEASE_V1.0.2/MSDK/cloud/alicloud/src/services/linkkit/dm/client\dm_client_adapter.c ****     iotx_cm_ext_params_t sub_params;
 255              		.loc 1 134 5
 135:C:/Users/stapi/OneDrive/Desktop/GD32VW553/V1_MQTT_OK/GD32VW55X_Wifi_BLE_SDK/GD32VW55x_RELEASE_V1.0.2/MSDK/cloud/alicloud/src/services/linkkit/dm/client\dm_client_adapter.c **** 
 136:C:/Users/stapi/OneDrive/Desktop/GD32VW553/V1_MQTT_OK/GD32VW55X_Wifi_BLE_SDK/GD32VW55x_RELEASE_V1.0.2/MSDK/cloud/alicloud/src/services/linkkit/dm/client\dm_client_adapter.c ****     memset(&sub_params, 0, sizeof(iotx_cm_ext_params_t));
 256              		.loc 1 136 5
 130:C:/Users/stapi/OneDrive/Desktop/GD32VW553/V1_MQTT_OK/GD32VW55X_Wifi_BLE_SDK/GD32VW55x_RELEASE_V1.0.2/MSDK/cloud/alicloud/src/services/linkkit/dm/client\dm_client_adapter.c ****     int res = 0;
 257              		.loc 1 130 1 is_stmt 0
 258 0008 0111     		addi	sp,sp,-32
 259              		.cfi_def_cfa_offset 48
 260              		.loc 1 136 5
 261 000a 02C6     		sw	zero,12(sp)
 262 000c 02C8     		sw	zero,16(sp)
 263 000e 02CC     		sw	zero,24(sp)
 264 0010 02CE     		sw	zero,28(sp)
 137:C:/Users/stapi/OneDrive/Desktop/GD32VW553/V1_MQTT_OK/GD32VW55X_Wifi_BLE_SDK/GD32VW55x_RELEASE_V1.0.2/MSDK/cloud/alicloud/src/services/linkkit/dm/client\dm_client_adapter.c ****     if (context != NULL) {
 265              		.loc 1 137 5 is_stmt 1
 130:C:/Users/stapi/OneDrive/Desktop/GD32VW553/V1_MQTT_OK/GD32VW55X_Wifi_BLE_SDK/GD32VW55x_RELEASE_V1.0.2/MSDK/cloud/alicloud/src/services/linkkit/dm/client\dm_client_adapter.c ****     int res = 0;
 266              		.loc 1 130 1 is_stmt 0
 267 0012 AE86     		mv	a3,a1
 268              		.loc 1 137 8
 269 0014 2DCA     		beq	a2,zero,.L16
 138:C:/Users/stapi/OneDrive/Desktop/GD32VW553/V1_MQTT_OK/GD32VW55X_Wifi_BLE_SDK/GD32VW55x_RELEASE_V1.0.2/MSDK/cloud/alicloud/src/services/linkkit/dm/client\dm_client_adapter.c ****         local_sub = *((uint8_t *)context);
 270              		.loc 1 138 9 is_stmt 1
 271              	.LVL16:
 139:C:/Users/stapi/OneDrive/Desktop/GD32VW553/V1_MQTT_OK/GD32VW55X_Wifi_BLE_SDK/GD32VW55x_RELEASE_V1.0.2/MSDK/cloud/alicloud/src/services/linkkit/dm/client\dm_client_adapter.c ****     }
 140:C:/Users/stapi/OneDrive/Desktop/GD32VW553/V1_MQTT_OK/GD32VW55X_Wifi_BLE_SDK/GD32VW55x_RELEASE_V1.0.2/MSDK/cloud/alicloud/src/services/linkkit/dm/client\dm_client_adapter.c **** 
 141:C:/Users/stapi/OneDrive/Desktop/GD32VW553/V1_MQTT_OK/GD32VW55X_Wifi_BLE_SDK/GD32VW55x_RELEASE_V1.0.2/MSDK/cloud/alicloud/src/services/linkkit/dm/client\dm_client_adapter.c ****     if (local_sub == 1) {
 272              		.loc 1 141 5
 273              		.loc 1 141 8 is_stmt 0
 274 0016 03470600 		lbu	a4,0(a2)
 275 001a 8547     		li	a5,1
 276 001c 6315F706 		bne	a4,a5,.L16
 142:C:/Users/stapi/OneDrive/Desktop/GD32VW553/V1_MQTT_OK/GD32VW55X_Wifi_BLE_SDK/GD32VW55x_RELEASE_V1.0.2/MSDK/cloud/alicloud/src/services/linkkit/dm/client\dm_client_adapter.c ****         sub_params.ack_type = IOTX_CM_MESSAGE_SUB_LOCAL;
 277              		.loc 1 142 9 is_stmt 1
 278              		.loc 1 142 29 is_stmt 0
 279 0020 8947     		li	a5,2
 280 0022 3EC6     		sw	a5,12(sp)
 143:C:/Users/stapi/OneDrive/Desktop/GD32VW553/V1_MQTT_OK/GD32VW55X_Wifi_BLE_SDK/GD32VW55x_RELEASE_V1.0.2/MSDK/cloud/alicloud/src/services/linkkit/dm/client\dm_client_adapter.c ****         sub_params.sync_mode = IOTX_CM_ASYNC;
 281              		.loc 1 143 9 is_stmt 1
 282              	.LVL17:
 283              	.L17:
 144:C:/Users/stapi/OneDrive/Desktop/GD32VW553/V1_MQTT_OK/GD32VW55X_Wifi_BLE_SDK/GD32VW55x_RELEASE_V1.0.2/MSDK/cloud/alicloud/src/services/linkkit/dm/client\dm_client_adapter.c ****     } else {
 145:C:/Users/stapi/OneDrive/Desktop/GD32VW553/V1_MQTT_OK/GD32VW55X_Wifi_BLE_SDK/GD32VW55x_RELEASE_V1.0.2/MSDK/cloud/alicloud/src/services/linkkit/dm/client\dm_client_adapter.c ****         sub_params.ack_type = IOTX_CM_MESSAGE_NO_ACK;
 146:C:/Users/stapi/OneDrive/Desktop/GD32VW553/V1_MQTT_OK/GD32VW55X_Wifi_BLE_SDK/GD32VW55x_RELEASE_V1.0.2/MSDK/cloud/alicloud/src/services/linkkit/dm/client\dm_client_adapter.c ****         sub_params.sync_mode = IOTX_CM_SYNC;
 147:C:/Users/stapi/OneDrive/Desktop/GD32VW553/V1_MQTT_OK/GD32VW55X_Wifi_BLE_SDK/GD32VW55x_RELEASE_V1.0.2/MSDK/cloud/alicloud/src/services/linkkit/dm/client\dm_client_adapter.c ****     }
 148:C:/Users/stapi/OneDrive/Desktop/GD32VW553/V1_MQTT_OK/GD32VW55X_Wifi_BLE_SDK/GD32VW55x_RELEASE_V1.0.2/MSDK/cloud/alicloud/src/services/linkkit/dm/client\dm_client_adapter.c **** 
 149:C:/Users/stapi/OneDrive/Desktop/GD32VW553/V1_MQTT_OK/GD32VW55X_Wifi_BLE_SDK/GD32VW55x_RELEASE_V1.0.2/MSDK/cloud/alicloud/src/services/linkkit/dm/client\dm_client_adapter.c ****     sub_params.sync_timeout = IOTX_DM_CLIENT_SUB_TIMEOUT_MS;
 284              		.loc 1 149 5
 285              		.loc 1 149 29 is_stmt 0
 286 0024 8567     		li	a5,4096
 287 0026 93878738 		addi	a5,a5,904
 288 002a 3ECA     		sw	a5,20(sp)
 150:C:/Users/stapi/OneDrive/Desktop/GD32VW553/V1_MQTT_OK/GD32VW55X_Wifi_BLE_SDK/GD32VW55x_RELEASE_V1.0.2/MSDK/cloud/alicloud/src/services/linkkit/dm/client\dm_client_adapter.c ****     sub_params.ack_cb = NULL;
 289              		.loc 1 150 5 is_stmt 1
 151:C:/Users/stapi/OneDrive/Desktop/GD32VW553/V1_MQTT_OK/GD32VW55X_Wifi_BLE_SDK/GD32VW55x_RELEASE_V1.0.2/MSDK/cloud/alicloud/src/services/linkkit/dm/client\dm_client_adapter.c **** 
 152:C:/Users/stapi/OneDrive/Desktop/GD32VW553/V1_MQTT_OK/GD32VW55X_Wifi_BLE_SDK/GD32VW55x_RELEASE_V1.0.2/MSDK/cloud/alicloud/src/services/linkkit/dm/client\dm_client_adapter.c ****     res = iotx_cm_sub(ctx->fd, &sub_params, (const char *)uri, callback, NULL);
 290              		.loc 1 152 5
 291              		.loc 1 152 11 is_stmt 0
 292 002c B7070000 		lui	a5,%hi(.LANCHOR0)
 293 0030 2A86     		mv	a2,a0
 294              	.LVL18:
 295 0032 03A50700 		lw	a0,%lo(.LANCHOR0)(a5)
 296              	.LVL19:
 297 0036 0147     		li	a4,0
 298 0038 6C00     		addi	a1,sp,12
 299              	.LVL20:
 300 003a 97000000 		call	iotx_cm_sub
 300      E7800000 
 301              	.LVL21:
 302 0042 2A84     		mv	s0,a0
 303              	.LVL22:
 153:C:/Users/stapi/OneDrive/Desktop/GD32VW553/V1_MQTT_OK/GD32VW55X_Wifi_BLE_SDK/GD32VW55x_RELEASE_V1.0.2/MSDK/cloud/alicloud/src/services/linkkit/dm/client\dm_client_adapter.c ****     dm_log_info("Subscribe Result: %d", res);
 304              		.loc 1 153 5 is_stmt 1
 305              		.loc 1 153 5
 306 0044 37050000 		lui	a0,%hi(.LC0)
 307 0048 13050500 		addi	a0,a0,%lo(.LC0)
 308 004c 97000000 		call	HAL_Printf
 308      E7800000 
 309              	.LVL23:
 310              		.loc 1 153 5
 311 0054 37050000 		lui	a0,%hi(.LC3)
 312 0058 A285     		mv	a1,s0
 313 005a 13050500 		addi	a0,a0,%lo(.LC3)
 314 005e 97000000 		call	HAL_Printf
 314      E7800000 
 315              	.LVL24:
 316              		.loc 1 153 5
 317 0066 37050000 		lui	a0,%hi(.LC2)
 318 006a 13050500 		addi	a0,a0,%lo(.LC2)
 319 006e 97000000 		call	HAL_Printf
 319      E7800000 
 320              	.LVL25:
 321              		.loc 1 153 5
 154:C:/Users/stapi/OneDrive/Desktop/GD32VW553/V1_MQTT_OK/GD32VW55X_Wifi_BLE_SDK/GD32VW55x_RELEASE_V1.0.2/MSDK/cloud/alicloud/src/services/linkkit/dm/client\dm_client_adapter.c **** 
 155:C:/Users/stapi/OneDrive/Desktop/GD32VW553/V1_MQTT_OK/GD32VW55X_Wifi_BLE_SDK/GD32VW55x_RELEASE_V1.0.2/MSDK/cloud/alicloud/src/services/linkkit/dm/client\dm_client_adapter.c ****     if (res < SUCCESS_RETURN) {
 322              		.loc 1 155 5
 156:C:/Users/stapi/OneDrive/Desktop/GD32VW553/V1_MQTT_OK/GD32VW55X_Wifi_BLE_SDK/GD32VW55x_RELEASE_V1.0.2/MSDK/cloud/alicloud/src/services/linkkit/dm/client\dm_client_adapter.c ****         return res;
 157:C:/Users/stapi/OneDrive/Desktop/GD32VW553/V1_MQTT_OK/GD32VW55X_Wifi_BLE_SDK/GD32VW55x_RELEASE_V1.0.2/MSDK/cloud/alicloud/src/services/linkkit/dm/client\dm_client_adapter.c ****     }
 158:C:/Users/stapi/OneDrive/Desktop/GD32VW553/V1_MQTT_OK/GD32VW55X_Wifi_BLE_SDK/GD32VW55x_RELEASE_V1.0.2/MSDK/cloud/alicloud/src/services/linkkit/dm/client\dm_client_adapter.c **** 
 159:C:/Users/stapi/OneDrive/Desktop/GD32VW553/V1_MQTT_OK/GD32VW55X_Wifi_BLE_SDK/GD32VW55x_RELEASE_V1.0.2/MSDK/cloud/alicloud/src/services/linkkit/dm/client\dm_client_adapter.c ****     return SUCCESS_RETURN;
 160:C:/Users/stapi/OneDrive/Desktop/GD32VW553/V1_MQTT_OK/GD32VW55X_Wifi_BLE_SDK/GD32VW55x_RELEASE_V1.0.2/MSDK/cloud/alicloud/src/services/linkkit/dm/client\dm_client_adapter.c **** }
 323              		.loc 1 160 1 is_stmt 0
 324 0076 0145     		li	a0,0
 325 0078 0561     		addi	sp,sp,32
 326              		.cfi_remember_state
 327              		.cfi_def_cfa_offset 0
 328 007a 3345A40A 		min	a0,s0,a0
 329 007e 17030000 		tail	__riscv_restore_1
 329      67000300 
 330              		.cfi_restore 8
 331              		.cfi_restore 1
 332              		.cfi_def_cfa_offset -16
 333              	.LVL26:
 334              	.L16:
 335              		.cfi_restore_state
 145:C:/Users/stapi/OneDrive/Desktop/GD32VW553/V1_MQTT_OK/GD32VW55X_Wifi_BLE_SDK/GD32VW55x_RELEASE_V1.0.2/MSDK/cloud/alicloud/src/services/linkkit/dm/client\dm_client_adapter.c ****         sub_params.sync_mode = IOTX_CM_SYNC;
 336              		.loc 1 145 9 is_stmt 1
 146:C:/Users/stapi/OneDrive/Desktop/GD32VW553/V1_MQTT_OK/GD32VW55X_Wifi_BLE_SDK/GD32VW55x_RELEASE_V1.0.2/MSDK/cloud/alicloud/src/services/linkkit/dm/client\dm_client_adapter.c ****     }
 337              		.loc 1 146 9
 146:C:/Users/stapi/OneDrive/Desktop/GD32VW553/V1_MQTT_OK/GD32VW55X_Wifi_BLE_SDK/GD32VW55x_RELEASE_V1.0.2/MSDK/cloud/alicloud/src/services/linkkit/dm/client\dm_client_adapter.c ****     }
 338              		.loc 1 146 30 is_stmt 0
 339 0086 8547     		li	a5,1
 340 0088 3EC8     		sw	a5,16(sp)
 341 008a 69BF     		j	.L17
 342              		.cfi_endproc
 343              	.LFE24:
 345              		.section	.rodata.dm_client_unsubscribe.str1.4,"aMS",@progbits,1
 346              		.align	2
 347              	.LC4:
 348 0000 556E7375 		.string	"Unsubscribe Result: %d"
 348      62736372 
 348      69626520 
 348      52657375 
 348      6C743A20 
 349              		.section	.text.dm_client_unsubscribe,"ax",@progbits
 350              		.align	1
 351              		.globl	dm_client_unsubscribe
 353              	dm_client_unsubscribe:
 354              	.LFB25:
 161:C:/Users/stapi/OneDrive/Desktop/GD32VW553/V1_MQTT_OK/GD32VW55X_Wifi_BLE_SDK/GD32VW55x_RELEASE_V1.0.2/MSDK/cloud/alicloud/src/services/linkkit/dm/client\dm_client_adapter.c **** 
 162:C:/Users/stapi/OneDrive/Desktop/GD32VW553/V1_MQTT_OK/GD32VW55X_Wifi_BLE_SDK/GD32VW55x_RELEASE_V1.0.2/MSDK/cloud/alicloud/src/services/linkkit/dm/client\dm_client_adapter.c **** int dm_client_unsubscribe(char *uri)
 163:C:/Users/stapi/OneDrive/Desktop/GD32VW553/V1_MQTT_OK/GD32VW55X_Wifi_BLE_SDK/GD32VW55x_RELEASE_V1.0.2/MSDK/cloud/alicloud/src/services/linkkit/dm/client\dm_client_adapter.c **** {
 355              		.loc 1 163 1 is_stmt 1
 356              		.cfi_startproc
 357              	.LVL27:
 358 0000 17030000 		call	t0,__riscv_save_1
 358      E7020300 
 359              		.cfi_offset 8, -8
 360              		.cfi_offset 1, -4
 361              		.cfi_def_cfa_offset 16
 164:C:/Users/stapi/OneDrive/Desktop/GD32VW553/V1_MQTT_OK/GD32VW55X_Wifi_BLE_SDK/GD32VW55x_RELEASE_V1.0.2/MSDK/cloud/alicloud/src/services/linkkit/dm/client\dm_client_adapter.c ****     int res = 0;
 362              		.loc 1 164 5
 363              	.LVL28:
 165:C:/Users/stapi/OneDrive/Desktop/GD32VW553/V1_MQTT_OK/GD32VW55X_Wifi_BLE_SDK/GD32VW55x_RELEASE_V1.0.2/MSDK/cloud/alicloud/src/services/linkkit/dm/client\dm_client_adapter.c ****     dm_client_ctx_t *ctx = dm_client_get_ctx();
 364              		.loc 1 165 5
   7:C:/Users/stapi/OneDrive/Desktop/GD32VW553/V1_MQTT_OK/GD32VW55X_Wifi_BLE_SDK/GD32VW55x_RELEASE_V1.0.2/MSDK/cloud/alicloud/src/services/linkkit/dm/client\dm_client_adapter.c **** }
 365              		.loc 1 7 5
 166:C:/Users/stapi/OneDrive/Desktop/GD32VW553/V1_MQTT_OK/GD32VW55X_Wifi_BLE_SDK/GD32VW55x_RELEASE_V1.0.2/MSDK/cloud/alicloud/src/services/linkkit/dm/client\dm_client_adapter.c **** 
 167:C:/Users/stapi/OneDrive/Desktop/GD32VW553/V1_MQTT_OK/GD32VW55X_Wifi_BLE_SDK/GD32VW55x_RELEASE_V1.0.2/MSDK/cloud/alicloud/src/services/linkkit/dm/client\dm_client_adapter.c ****     res = iotx_cm_unsub(ctx->fd, uri);
 366              		.loc 1 167 5
 367              		.loc 1 167 11 is_stmt 0
 368 0008 B7070000 		lui	a5,%hi(.LANCHOR0)
 163:C:/Users/stapi/OneDrive/Desktop/GD32VW553/V1_MQTT_OK/GD32VW55X_Wifi_BLE_SDK/GD32VW55x_RELEASE_V1.0.2/MSDK/cloud/alicloud/src/services/linkkit/dm/client\dm_client_adapter.c ****     int res = 0;
 369              		.loc 1 163 1
 370 000c AA85     		mv	a1,a0
 371              		.loc 1 167 11
 372 000e 03A50700 		lw	a0,%lo(.LANCHOR0)(a5)
 373              	.LVL29:
 374 0012 97000000 		call	iotx_cm_unsub
 374      E7800000 
 375              	.LVL30:
 376 001a 2A84     		mv	s0,a0
 377              	.LVL31:
 168:C:/Users/stapi/OneDrive/Desktop/GD32VW553/V1_MQTT_OK/GD32VW55X_Wifi_BLE_SDK/GD32VW55x_RELEASE_V1.0.2/MSDK/cloud/alicloud/src/services/linkkit/dm/client\dm_client_adapter.c **** 
 169:C:/Users/stapi/OneDrive/Desktop/GD32VW553/V1_MQTT_OK/GD32VW55X_Wifi_BLE_SDK/GD32VW55x_RELEASE_V1.0.2/MSDK/cloud/alicloud/src/services/linkkit/dm/client\dm_client_adapter.c ****     dm_log_info("Unsubscribe Result: %d", res);
 378              		.loc 1 169 5 is_stmt 1
 379              		.loc 1 169 5
 380 001c 37050000 		lui	a0,%hi(.LC0)
 381 0020 13050500 		addi	a0,a0,%lo(.LC0)
 382 0024 97000000 		call	HAL_Printf
 382      E7800000 
 383              	.LVL32:
 384              		.loc 1 169 5
 385 002c 37050000 		lui	a0,%hi(.LC4)
 386 0030 A285     		mv	a1,s0
 387 0032 13050500 		addi	a0,a0,%lo(.LC4)
 388 0036 97000000 		call	HAL_Printf
 388      E7800000 
 389              	.LVL33:
 390              		.loc 1 169 5
 391 003e 37050000 		lui	a0,%hi(.LC2)
 392 0042 13050500 		addi	a0,a0,%lo(.LC2)
 393 0046 97000000 		call	HAL_Printf
 393      E7800000 
 394              	.LVL34:
 395              		.loc 1 169 5
 170:C:/Users/stapi/OneDrive/Desktop/GD32VW553/V1_MQTT_OK/GD32VW55X_Wifi_BLE_SDK/GD32VW55x_RELEASE_V1.0.2/MSDK/cloud/alicloud/src/services/linkkit/dm/client\dm_client_adapter.c **** 
 171:C:/Users/stapi/OneDrive/Desktop/GD32VW553/V1_MQTT_OK/GD32VW55X_Wifi_BLE_SDK/GD32VW55x_RELEASE_V1.0.2/MSDK/cloud/alicloud/src/services/linkkit/dm/client\dm_client_adapter.c ****     return res;
 396              		.loc 1 171 5
 172:C:/Users/stapi/OneDrive/Desktop/GD32VW553/V1_MQTT_OK/GD32VW55X_Wifi_BLE_SDK/GD32VW55x_RELEASE_V1.0.2/MSDK/cloud/alicloud/src/services/linkkit/dm/client\dm_client_adapter.c **** }
 397              		.loc 1 172 1 is_stmt 0
 398 004e 2285     		mv	a0,s0
 399 0050 17030000 		tail	__riscv_restore_1
 399      67000300 
 400              		.cfi_restore 8
 401              		.cfi_restore 1
 402              		.cfi_def_cfa_offset 0
 403              		.cfi_endproc
 404              	.LFE25:
 406              		.section	.rodata.dm_client_publish.str1.4,"aMS",@progbits,1
 407              		.align	2
 408              	.LC5:
 409 0000 5075626C 		.string	"Publish Result: %d"
 409      69736820 
 409      52657375 
 409      6C743A20 
 409      256400
 410              		.section	.text.dm_client_publish,"ax",@progbits
 411              		.align	1
 412              		.globl	dm_client_publish
 414              	dm_client_publish:
 415              	.LFB26:
 173:C:/Users/stapi/OneDrive/Desktop/GD32VW553/V1_MQTT_OK/GD32VW55X_Wifi_BLE_SDK/GD32VW55x_RELEASE_V1.0.2/MSDK/cloud/alicloud/src/services/linkkit/dm/client\dm_client_adapter.c **** 
 174:C:/Users/stapi/OneDrive/Desktop/GD32VW553/V1_MQTT_OK/GD32VW55X_Wifi_BLE_SDK/GD32VW55x_RELEASE_V1.0.2/MSDK/cloud/alicloud/src/services/linkkit/dm/client\dm_client_adapter.c **** int dm_client_publish(char *uri, unsigned char *payload, int payload_len, iotx_cm_data_handle_cb ca
 175:C:/Users/stapi/OneDrive/Desktop/GD32VW553/V1_MQTT_OK/GD32VW55X_Wifi_BLE_SDK/GD32VW55x_RELEASE_V1.0.2/MSDK/cloud/alicloud/src/services/linkkit/dm/client\dm_client_adapter.c **** {
 416              		.loc 1 175 1 is_stmt 1
 417              		.cfi_startproc
 418              	.LVL35:
 419 0000 17030000 		call	t0,__riscv_save_1
 419      E7020300 
 420              		.cfi_offset 8, -8
 421              		.cfi_offset 1, -4
 422              		.cfi_def_cfa_offset 16
 176:C:/Users/stapi/OneDrive/Desktop/GD32VW553/V1_MQTT_OK/GD32VW55X_Wifi_BLE_SDK/GD32VW55x_RELEASE_V1.0.2/MSDK/cloud/alicloud/src/services/linkkit/dm/client\dm_client_adapter.c ****     int res = 0;
 423              		.loc 1 176 5
 424              	.LVL36:
 177:C:/Users/stapi/OneDrive/Desktop/GD32VW553/V1_MQTT_OK/GD32VW55X_Wifi_BLE_SDK/GD32VW55x_RELEASE_V1.0.2/MSDK/cloud/alicloud/src/services/linkkit/dm/client\dm_client_adapter.c ****     char *pub_uri = NULL;
 425              		.loc 1 177 5
 178:C:/Users/stapi/OneDrive/Desktop/GD32VW553/V1_MQTT_OK/GD32VW55X_Wifi_BLE_SDK/GD32VW55x_RELEASE_V1.0.2/MSDK/cloud/alicloud/src/services/linkkit/dm/client\dm_client_adapter.c ****     dm_client_ctx_t *ctx = dm_client_get_ctx();
 426              		.loc 1 178 5
   7:C:/Users/stapi/OneDrive/Desktop/GD32VW553/V1_MQTT_OK/GD32VW55X_Wifi_BLE_SDK/GD32VW55x_RELEASE_V1.0.2/MSDK/cloud/alicloud/src/services/linkkit/dm/client\dm_client_adapter.c **** }
 427              		.loc 1 7 5
 179:C:/Users/stapi/OneDrive/Desktop/GD32VW553/V1_MQTT_OK/GD32VW55X_Wifi_BLE_SDK/GD32VW55x_RELEASE_V1.0.2/MSDK/cloud/alicloud/src/services/linkkit/dm/client\dm_client_adapter.c ****     iotx_cm_ext_params_t pub_param;
 428              		.loc 1 179 5
 180:C:/Users/stapi/OneDrive/Desktop/GD32VW553/V1_MQTT_OK/GD32VW55X_Wifi_BLE_SDK/GD32VW55x_RELEASE_V1.0.2/MSDK/cloud/alicloud/src/services/linkkit/dm/client\dm_client_adapter.c **** 
 181:C:/Users/stapi/OneDrive/Desktop/GD32VW553/V1_MQTT_OK/GD32VW55X_Wifi_BLE_SDK/GD32VW55x_RELEASE_V1.0.2/MSDK/cloud/alicloud/src/services/linkkit/dm/client\dm_client_adapter.c ****     memset(&pub_param, 0, sizeof(iotx_cm_ext_params_t));
 429              		.loc 1 181 5
 182:C:/Users/stapi/OneDrive/Desktop/GD32VW553/V1_MQTT_OK/GD32VW55X_Wifi_BLE_SDK/GD32VW55x_RELEASE_V1.0.2/MSDK/cloud/alicloud/src/services/linkkit/dm/client\dm_client_adapter.c ****     pub_param.ack_type = IOTX_CM_MESSAGE_NO_ACK;
 183:C:/Users/stapi/OneDrive/Desktop/GD32VW553/V1_MQTT_OK/GD32VW55X_Wifi_BLE_SDK/GD32VW55x_RELEASE_V1.0.2/MSDK/cloud/alicloud/src/services/linkkit/dm/client\dm_client_adapter.c ****     pub_param.sync_mode = IOTX_CM_ASYNC;
 184:C:/Users/stapi/OneDrive/Desktop/GD32VW553/V1_MQTT_OK/GD32VW55X_Wifi_BLE_SDK/GD32VW55x_RELEASE_V1.0.2/MSDK/cloud/alicloud/src/services/linkkit/dm/client\dm_client_adapter.c ****     pub_param.sync_timeout = 0;
 185:C:/Users/stapi/OneDrive/Desktop/GD32VW553/V1_MQTT_OK/GD32VW55X_Wifi_BLE_SDK/GD32VW55x_RELEASE_V1.0.2/MSDK/cloud/alicloud/src/services/linkkit/dm/client\dm_client_adapter.c ****     pub_param.ack_cb = NULL;
 186:C:/Users/stapi/OneDrive/Desktop/GD32VW553/V1_MQTT_OK/GD32VW55X_Wifi_BLE_SDK/GD32VW55x_RELEASE_V1.0.2/MSDK/cloud/alicloud/src/services/linkkit/dm/client\dm_client_adapter.c **** 
 187:C:/Users/stapi/OneDrive/Desktop/GD32VW553/V1_MQTT_OK/GD32VW55X_Wifi_BLE_SDK/GD32VW55x_RELEASE_V1.0.2/MSDK/cloud/alicloud/src/services/linkkit/dm/client\dm_client_adapter.c **** #if defined(COAP_COMM_ENABLED) && !defined(MQTT_COMM_ENABLED)
 188:C:/Users/stapi/OneDrive/Desktop/GD32VW553/V1_MQTT_OK/GD32VW55X_Wifi_BLE_SDK/GD32VW55x_RELEASE_V1.0.2/MSDK/cloud/alicloud/src/services/linkkit/dm/client\dm_client_adapter.c ****     pub_param.ack_cb = callback;
 189:C:/Users/stapi/OneDrive/Desktop/GD32VW553/V1_MQTT_OK/GD32VW55X_Wifi_BLE_SDK/GD32VW55x_RELEASE_V1.0.2/MSDK/cloud/alicloud/src/services/linkkit/dm/client\dm_client_adapter.c ****     res = dm_utils_uri_add_prefix("/topic", uri, &pub_uri);
 190:C:/Users/stapi/OneDrive/Desktop/GD32VW553/V1_MQTT_OK/GD32VW55X_Wifi_BLE_SDK/GD32VW55x_RELEASE_V1.0.2/MSDK/cloud/alicloud/src/services/linkkit/dm/client\dm_client_adapter.c ****     if (res < SUCCESS_RETURN) {
 191:C:/Users/stapi/OneDrive/Desktop/GD32VW553/V1_MQTT_OK/GD32VW55X_Wifi_BLE_SDK/GD32VW55x_RELEASE_V1.0.2/MSDK/cloud/alicloud/src/services/linkkit/dm/client\dm_client_adapter.c ****         return FAIL_RETURN;
 192:C:/Users/stapi/OneDrive/Desktop/GD32VW553/V1_MQTT_OK/GD32VW55X_Wifi_BLE_SDK/GD32VW55x_RELEASE_V1.0.2/MSDK/cloud/alicloud/src/services/linkkit/dm/client\dm_client_adapter.c ****     }
 193:C:/Users/stapi/OneDrive/Desktop/GD32VW553/V1_MQTT_OK/GD32VW55X_Wifi_BLE_SDK/GD32VW55x_RELEASE_V1.0.2/MSDK/cloud/alicloud/src/services/linkkit/dm/client\dm_client_adapter.c **** #else
 194:C:/Users/stapi/OneDrive/Desktop/GD32VW553/V1_MQTT_OK/GD32VW55X_Wifi_BLE_SDK/GD32VW55x_RELEASE_V1.0.2/MSDK/cloud/alicloud/src/services/linkkit/dm/client\dm_client_adapter.c ****     pub_uri = uri;
 195:C:/Users/stapi/OneDrive/Desktop/GD32VW553/V1_MQTT_OK/GD32VW55X_Wifi_BLE_SDK/GD32VW55x_RELEASE_V1.0.2/MSDK/cloud/alicloud/src/services/linkkit/dm/client\dm_client_adapter.c **** #endif
 196:C:/Users/stapi/OneDrive/Desktop/GD32VW553/V1_MQTT_OK/GD32VW55X_Wifi_BLE_SDK/GD32VW55x_RELEASE_V1.0.2/MSDK/cloud/alicloud/src/services/linkkit/dm/client\dm_client_adapter.c **** 
 197:C:/Users/stapi/OneDrive/Desktop/GD32VW553/V1_MQTT_OK/GD32VW55X_Wifi_BLE_SDK/GD32VW55x_RELEASE_V1.0.2/MSDK/cloud/alicloud/src/services/linkkit/dm/client\dm_client_adapter.c ****     res = iotx_cm_pub(ctx->fd, &pub_param, (const char *)pub_uri, (const char *)payload, (unsigned 
 430              		.loc 1 197 11 is_stmt 0
 431 0008 B7070000 		lui	a5,%hi(.LANCHOR0)
 175:C:/Users/stapi/OneDrive/Desktop/GD32VW553/V1_MQTT_OK/GD32VW55X_Wifi_BLE_SDK/GD32VW55x_RELEASE_V1.0.2/MSDK/cloud/alicloud/src/services/linkkit/dm/client\dm_client_adapter.c ****     int res = 0;
 432              		.loc 1 175 1
 433 000c 3287     		mv	a4,a2
 434              		.loc 1 197 11
 435 000e 2A86     		mv	a2,a0
 436              	.LVL37:
 437 0010 03A50700 		lw	a0,%lo(.LANCHOR0)(a5)
 438              	.LVL38:
 175:C:/Users/stapi/OneDrive/Desktop/GD32VW553/V1_MQTT_OK/GD32VW55X_Wifi_BLE_SDK/GD32VW55x_RELEASE_V1.0.2/MSDK/cloud/alicloud/src/services/linkkit/dm/client\dm_client_adapter.c ****     int res = 0;
 439              		.loc 1 175 1
 440 0014 0111     		addi	sp,sp,-32
 441              		.cfi_def_cfa_offset 48
 175:C:/Users/stapi/OneDrive/Desktop/GD32VW553/V1_MQTT_OK/GD32VW55X_Wifi_BLE_SDK/GD32VW55x_RELEASE_V1.0.2/MSDK/cloud/alicloud/src/services/linkkit/dm/client\dm_client_adapter.c ****     int res = 0;
 442              		.loc 1 175 1
 443 0016 AE86     		mv	a3,a1
 444              	.LVL39:
 445              		.loc 1 197 11
 446 0018 6C00     		addi	a1,sp,12
 447              	.LVL40:
 181:C:/Users/stapi/OneDrive/Desktop/GD32VW553/V1_MQTT_OK/GD32VW55X_Wifi_BLE_SDK/GD32VW55x_RELEASE_V1.0.2/MSDK/cloud/alicloud/src/services/linkkit/dm/client\dm_client_adapter.c ****     pub_param.ack_type = IOTX_CM_MESSAGE_NO_ACK;
 448              		.loc 1 181 5
 449 001a 02C6     		sw	zero,12(sp)
 450 001c 02C8     		sw	zero,16(sp)
 451 001e 02CA     		sw	zero,20(sp)
 452 0020 02CC     		sw	zero,24(sp)
 453 0022 02CE     		sw	zero,28(sp)
 182:C:/Users/stapi/OneDrive/Desktop/GD32VW553/V1_MQTT_OK/GD32VW55X_Wifi_BLE_SDK/GD32VW55x_RELEASE_V1.0.2/MSDK/cloud/alicloud/src/services/linkkit/dm/client\dm_client_adapter.c ****     pub_param.ack_type = IOTX_CM_MESSAGE_NO_ACK;
 454              		.loc 1 182 5 is_stmt 1
 183:C:/Users/stapi/OneDrive/Desktop/GD32VW553/V1_MQTT_OK/GD32VW55X_Wifi_BLE_SDK/GD32VW55x_RELEASE_V1.0.2/MSDK/cloud/alicloud/src/services/linkkit/dm/client\dm_client_adapter.c ****     pub_param.sync_timeout = 0;
 455              		.loc 1 183 5
 184:C:/Users/stapi/OneDrive/Desktop/GD32VW553/V1_MQTT_OK/GD32VW55X_Wifi_BLE_SDK/GD32VW55x_RELEASE_V1.0.2/MSDK/cloud/alicloud/src/services/linkkit/dm/client\dm_client_adapter.c ****     pub_param.ack_cb = NULL;
 456              		.loc 1 184 5
 185:C:/Users/stapi/OneDrive/Desktop/GD32VW553/V1_MQTT_OK/GD32VW55X_Wifi_BLE_SDK/GD32VW55x_RELEASE_V1.0.2/MSDK/cloud/alicloud/src/services/linkkit/dm/client\dm_client_adapter.c **** 
 457              		.loc 1 185 5
 194:C:/Users/stapi/OneDrive/Desktop/GD32VW553/V1_MQTT_OK/GD32VW55X_Wifi_BLE_SDK/GD32VW55x_RELEASE_V1.0.2/MSDK/cloud/alicloud/src/services/linkkit/dm/client\dm_client_adapter.c **** #endif
 458              		.loc 1 194 5
 459              	.LVL41:
 460              		.loc 1 197 5
 461              		.loc 1 197 11 is_stmt 0
 462 0024 97000000 		call	iotx_cm_pub
 462      E7800000 
 463              	.LVL42:
 464 002c 2A84     		mv	s0,a0
 465              	.LVL43:
 198:C:/Users/stapi/OneDrive/Desktop/GD32VW553/V1_MQTT_OK/GD32VW55X_Wifi_BLE_SDK/GD32VW55x_RELEASE_V1.0.2/MSDK/cloud/alicloud/src/services/linkkit/dm/client\dm_client_adapter.c ****     dm_log_info("Publish Result: %d", res);
 466              		.loc 1 198 5 is_stmt 1
 467              		.loc 1 198 5
 468 002e 37050000 		lui	a0,%hi(.LC0)
 469 0032 13050500 		addi	a0,a0,%lo(.LC0)
 470 0036 97000000 		call	HAL_Printf
 470      E7800000 
 471              	.LVL44:
 472              		.loc 1 198 5
 473 003e 37050000 		lui	a0,%hi(.LC5)
 474 0042 A285     		mv	a1,s0
 475 0044 13050500 		addi	a0,a0,%lo(.LC5)
 476 0048 97000000 		call	HAL_Printf
 476      E7800000 
 477              	.LVL45:
 478              		.loc 1 198 5
 479 0050 37050000 		lui	a0,%hi(.LC2)
 480 0054 13050500 		addi	a0,a0,%lo(.LC2)
 481 0058 97000000 		call	HAL_Printf
 481      E7800000 
 482              	.LVL46:
 483              		.loc 1 198 5
 199:C:/Users/stapi/OneDrive/Desktop/GD32VW553/V1_MQTT_OK/GD32VW55X_Wifi_BLE_SDK/GD32VW55x_RELEASE_V1.0.2/MSDK/cloud/alicloud/src/services/linkkit/dm/client\dm_client_adapter.c **** 
 200:C:/Users/stapi/OneDrive/Desktop/GD32VW553/V1_MQTT_OK/GD32VW55X_Wifi_BLE_SDK/GD32VW55x_RELEASE_V1.0.2/MSDK/cloud/alicloud/src/services/linkkit/dm/client\dm_client_adapter.c **** #if defined(COAP_COMM_ENABLED) && !defined(MQTT_COMM_ENABLED)
 201:C:/Users/stapi/OneDrive/Desktop/GD32VW553/V1_MQTT_OK/GD32VW55X_Wifi_BLE_SDK/GD32VW55x_RELEASE_V1.0.2/MSDK/cloud/alicloud/src/services/linkkit/dm/client\dm_client_adapter.c ****     DM_free(pub_uri);
 202:C:/Users/stapi/OneDrive/Desktop/GD32VW553/V1_MQTT_OK/GD32VW55X_Wifi_BLE_SDK/GD32VW55x_RELEASE_V1.0.2/MSDK/cloud/alicloud/src/services/linkkit/dm/client\dm_client_adapter.c **** #endif
 203:C:/Users/stapi/OneDrive/Desktop/GD32VW553/V1_MQTT_OK/GD32VW55X_Wifi_BLE_SDK/GD32VW55x_RELEASE_V1.0.2/MSDK/cloud/alicloud/src/services/linkkit/dm/client\dm_client_adapter.c **** 
 204:C:/Users/stapi/OneDrive/Desktop/GD32VW553/V1_MQTT_OK/GD32VW55X_Wifi_BLE_SDK/GD32VW55x_RELEASE_V1.0.2/MSDK/cloud/alicloud/src/services/linkkit/dm/client\dm_client_adapter.c ****     return res;
 484              		.loc 1 204 5
 205:C:/Users/stapi/OneDrive/Desktop/GD32VW553/V1_MQTT_OK/GD32VW55X_Wifi_BLE_SDK/GD32VW55x_RELEASE_V1.0.2/MSDK/cloud/alicloud/src/services/linkkit/dm/client\dm_client_adapter.c **** }
 485              		.loc 1 205 1 is_stmt 0
 486 0060 2285     		mv	a0,s0
 487 0062 0561     		addi	sp,sp,32
 488              		.cfi_def_cfa_offset 0
 489 0064 17030000 		tail	__riscv_restore_1
 489      67000300 
 490              		.cfi_restore 8
 491              		.cfi_restore 1
 492              		.cfi_def_cfa_offset -16
 493              		.cfi_endproc
 494              	.LFE26:
 496              		.section	.text.dm_client_yield,"ax",@progbits
 497              		.align	1
 498              		.globl	dm_client_yield
 500              	dm_client_yield:
 501              	.LFB27:
 206:C:/Users/stapi/OneDrive/Desktop/GD32VW553/V1_MQTT_OK/GD32VW55X_Wifi_BLE_SDK/GD32VW55x_RELEASE_V1.0.2/MSDK/cloud/alicloud/src/services/linkkit/dm/client\dm_client_adapter.c **** 
 207:C:/Users/stapi/OneDrive/Desktop/GD32VW553/V1_MQTT_OK/GD32VW55X_Wifi_BLE_SDK/GD32VW55x_RELEASE_V1.0.2/MSDK/cloud/alicloud/src/services/linkkit/dm/client\dm_client_adapter.c **** int dm_client_yield(unsigned int timeout)
 208:C:/Users/stapi/OneDrive/Desktop/GD32VW553/V1_MQTT_OK/GD32VW55X_Wifi_BLE_SDK/GD32VW55x_RELEASE_V1.0.2/MSDK/cloud/alicloud/src/services/linkkit/dm/client\dm_client_adapter.c **** {
 502              		.loc 1 208 1 is_stmt 1
 503              		.cfi_startproc
 504              	.LVL47:
 209:C:/Users/stapi/OneDrive/Desktop/GD32VW553/V1_MQTT_OK/GD32VW55X_Wifi_BLE_SDK/GD32VW55x_RELEASE_V1.0.2/MSDK/cloud/alicloud/src/services/linkkit/dm/client\dm_client_adapter.c ****     dm_client_ctx_t *ctx = dm_client_get_ctx();
 505              		.loc 1 209 5
   7:C:/Users/stapi/OneDrive/Desktop/GD32VW553/V1_MQTT_OK/GD32VW55X_Wifi_BLE_SDK/GD32VW55x_RELEASE_V1.0.2/MSDK/cloud/alicloud/src/services/linkkit/dm/client\dm_client_adapter.c **** }
 506              		.loc 1 7 5
 210:C:/Users/stapi/OneDrive/Desktop/GD32VW553/V1_MQTT_OK/GD32VW55X_Wifi_BLE_SDK/GD32VW55x_RELEASE_V1.0.2/MSDK/cloud/alicloud/src/services/linkkit/dm/client\dm_client_adapter.c **** 
 211:C:/Users/stapi/OneDrive/Desktop/GD32VW553/V1_MQTT_OK/GD32VW55X_Wifi_BLE_SDK/GD32VW55x_RELEASE_V1.0.2/MSDK/cloud/alicloud/src/services/linkkit/dm/client\dm_client_adapter.c ****     return iotx_cm_yield(ctx->fd, timeout);
 507              		.loc 1 211 5
 508              		.loc 1 211 12 is_stmt 0
 509 0000 B7070000 		lui	a5,%hi(.LANCHOR0)
 208:C:/Users/stapi/OneDrive/Desktop/GD32VW553/V1_MQTT_OK/GD32VW55X_Wifi_BLE_SDK/GD32VW55x_RELEASE_V1.0.2/MSDK/cloud/alicloud/src/services/linkkit/dm/client\dm_client_adapter.c ****     dm_client_ctx_t *ctx = dm_client_get_ctx();
 510              		.loc 1 208 1
 511 0004 AA85     		mv	a1,a0
 512              		.loc 1 211 12
 513 0006 03A50700 		lw	a0,%lo(.LANCHOR0)(a5)
 514              	.LVL48:
 515 000a 17030000 		tail	iotx_cm_yield
 515      67000300 
 516              	.LVL49:
 517              		.cfi_endproc
 518              	.LFE27:
 520              		.section	.bss.g_dm_client_ctx,"aw",@nobits
 521              		.align	2
 522              		.set	.LANCHOR0,. + 0
 525              	g_dm_client_ctx:
 526 0000 00000000 		.zero	12
 526      00000000 
 526      00000000 
 527              		.text
 528              	.Letext0:
 529              		.file 2 "c:\\users\\stapi\\onedrive\\desktop\\gd32vw553\\embeddedbuilder_v1.4.7.26843\\tools\\nucl
 530              		.file 3 "c:\\users\\stapi\\onedrive\\desktop\\gd32vw553\\embeddedbuilder_v1.4.7.26843\\tools\\nucl
 531              		.file 4 "..\\..\\..\\..\\cloud\\alicloud\\include/iot_export.h"
 532              		.file 5 "..\\..\\..\\..\\cloud\\alicloud\\src\\services\\linkkit\\cm\\include/iotx_cm.h"
 533              		.file 6 "..\\..\\..\\..\\cloud\\alicloud\\include/exports/iot_export_errno.h"
 534              		.file 7 "..\\..\\..\\..\\cloud\\alicloud\\src\\services\\linkkit\\dm\\client/dm_client_adapter.h"
 535              		.file 8 "..\\..\\..\\..\\cloud\\alicloud\\include/iot_import.h"
DEFINED SYMBOLS
                            *ABS*:0000000000000000 dm_client_adapter.c
C:\Users\stapi\AppData\Local\Temp\ccAC15cc.s:23     .text.dm_client_open:0000000000000000 dm_client_open
C:\Users\stapi\AppData\Local\Temp\ccAC15cc.s:27     .text.dm_client_open:0000000000000000 .L0 
C:\Users\stapi\AppData\Local\Temp\ccAC15cc.s:28     .text.dm_client_open:0000000000000000 .L0 
C:\Users\stapi\AppData\Local\Temp\ccAC15cc.s:29     .text.dm_client_open:0000000000000008 .L0 
C:\Users\stapi\AppData\Local\Temp\ccAC15cc.s:30     .text.dm_client_open:0000000000000008 .L0 
C:\Users\stapi\AppData\Local\Temp\ccAC15cc.s:31     .text.dm_client_open:0000000000000008 .L0 
C:\Users\stapi\AppData\Local\Temp\ccAC15cc.s:34     .text.dm_client_open:0000000000000008 .L0 
C:\Users\stapi\AppData\Local\Temp\ccAC15cc.s:35     .text.dm_client_open:0000000000000008 .L0 
C:\Users\stapi\AppData\Local\Temp\ccAC15cc.s:36     .text.dm_client_open:0000000000000008 .L0 
C:\Users\stapi\AppData\Local\Temp\ccAC15cc.s:37     .text.dm_client_open:0000000000000008 .L0 
C:\Users\stapi\AppData\Local\Temp\ccAC15cc.s:38     .text.dm_client_open:0000000000000008 .L0 
C:\Users\stapi\AppData\Local\Temp\ccAC15cc.s:39     .text.dm_client_open:0000000000000008 .L0 
C:\Users\stapi\AppData\Local\Temp\ccAC15cc.s:41     .text.dm_client_open:000000000000000a .L0 
C:\Users\stapi\AppData\Local\Temp\ccAC15cc.s:42     .text.dm_client_open:000000000000000c .L0 
C:\Users\stapi\AppData\Local\Temp\ccAC15cc.s:44     .text.dm_client_open:000000000000000c .L0 
C:\Users\stapi\AppData\Local\Temp\ccAC15cc.s:46     .text.dm_client_open:0000000000000010 .L0 
C:\Users\stapi\AppData\Local\Temp\ccAC15cc.s:49     .text.dm_client_open:0000000000000016 .L0 
C:\Users\stapi\AppData\Local\Temp\ccAC15cc.s:51     .text.dm_client_open:0000000000000018 .L0 
C:\Users\stapi\AppData\Local\Temp\ccAC15cc.s:53     .text.dm_client_open:000000000000001a .L0 
C:\Users\stapi\AppData\Local\Temp\ccAC15cc.s:55     .text.dm_client_open:000000000000001e .L0 
C:\Users\stapi\AppData\Local\Temp\ccAC15cc.s:57     .text.dm_client_open:0000000000000020 .L0 
C:\Users\stapi\AppData\Local\Temp\ccAC15cc.s:59     .text.dm_client_open:0000000000000022 .L0 
C:\Users\stapi\AppData\Local\Temp\ccAC15cc.s:61     .text.dm_client_open:0000000000000024 .L0 
C:\Users\stapi\AppData\Local\Temp\ccAC15cc.s:63     .text.dm_client_open:0000000000000028 .L0 
C:\Users\stapi\AppData\Local\Temp\ccAC15cc.s:65     .text.dm_client_open:000000000000002c .L0 
C:\Users\stapi\AppData\Local\Temp\ccAC15cc.s:67     .text.dm_client_open:0000000000000030 .L0 
C:\Users\stapi\AppData\Local\Temp\ccAC15cc.s:69     .text.dm_client_open:0000000000000034 .L0 
C:\Users\stapi\AppData\Local\Temp\ccAC15cc.s:71     .text.dm_client_open:0000000000000036 .L0 
C:\Users\stapi\AppData\Local\Temp\ccAC15cc.s:75     .text.dm_client_open:0000000000000042 .L0 
C:\Users\stapi\AppData\Local\Temp\ccAC15cc.s:77     .text.dm_client_open:0000000000000044 .L0 
C:\Users\stapi\AppData\Local\Temp\ccAC15cc.s:78     .text.dm_client_open:0000000000000044 .L0 
C:\Users\stapi\AppData\Local\Temp\ccAC15cc.s:79     .text.dm_client_open:0000000000000044 .L0 
C:\Users\stapi\AppData\Local\Temp\ccAC15cc.s:81     .text.dm_client_open:0000000000000046 .L0 
C:\Users\stapi\AppData\Local\Temp\ccAC15cc.s:82     .text.dm_client_open:0000000000000046 .L0 
C:\Users\stapi\AppData\Local\Temp\ccAC15cc.s:83     .text.dm_client_open:0000000000000046 .L0 
C:\Users\stapi\AppData\Local\Temp\ccAC15cc.s:84     .text.dm_client_open:0000000000000046 .L0 
C:\Users\stapi\AppData\Local\Temp\ccAC15cc.s:85     .text.dm_client_open:0000000000000046 .L0 
C:\Users\stapi\AppData\Local\Temp\ccAC15cc.s:87     .text.dm_client_open:0000000000000048 .L0 
C:\Users\stapi\AppData\Local\Temp\ccAC15cc.s:88     .text.dm_client_open:0000000000000048 .L0 
C:\Users\stapi\AppData\Local\Temp\ccAC15cc.s:91     .text.dm_client_open:0000000000000050 .L0 
C:\Users\stapi\AppData\Local\Temp\ccAC15cc.s:92     .text.dm_client_open:0000000000000050 .L0 
C:\Users\stapi\AppData\Local\Temp\ccAC15cc.s:94     .text.dm_client_open:0000000000000054 .L0 
C:\Users\stapi\AppData\Local\Temp\ccAC15cc.s:95     .text.dm_client_open:0000000000000054 .L0 
C:\Users\stapi\AppData\Local\Temp\ccAC15cc.s:97     .text.dm_client_open:0000000000000056 .L0 
C:\Users\stapi\AppData\Local\Temp\ccAC15cc.s:98     .text.dm_client_open:0000000000000056 .L0 
C:\Users\stapi\AppData\Local\Temp\ccAC15cc.s:104    .text.dm_client_open:0000000000000066 .L0 
C:\Users\stapi\AppData\Local\Temp\ccAC15cc.s:110    .text.dm_client_open:0000000000000078 .L0 
C:\Users\stapi\AppData\Local\Temp\ccAC15cc.s:115    .text.dm_client_open:0000000000000088 .L0 
C:\Users\stapi\AppData\Local\Temp\ccAC15cc.s:116    .text.dm_client_open:0000000000000088 .L0 
C:\Users\stapi\AppData\Local\Temp\ccAC15cc.s:117    .text.dm_client_open:0000000000000088 .L0 
C:\Users\stapi\AppData\Local\Temp\ccAC15cc.s:120    .text.dm_client_open:000000000000008a .L0 
C:\Users\stapi\AppData\Local\Temp\ccAC15cc.s:121    .text.dm_client_open:000000000000008c .L0 
C:\Users\stapi\AppData\Local\Temp\ccAC15cc.s:123    .text.dm_client_open:0000000000000094 .L0 
C:\Users\stapi\AppData\Local\Temp\ccAC15cc.s:124    .text.dm_client_open:0000000000000094 .L0 
C:\Users\stapi\AppData\Local\Temp\ccAC15cc.s:125    .text.dm_client_open:0000000000000094 .L0 
C:\Users\stapi\AppData\Local\Temp\ccAC15cc.s:126    .text.dm_client_open:0000000000000094 .L0 
C:\Users\stapi\AppData\Local\Temp\ccAC15cc.s:133    .text.dm_client_connect:0000000000000000 dm_client_connect
C:\Users\stapi\AppData\Local\Temp\ccAC15cc.s:136    .text.dm_client_connect:0000000000000000 .L0 
C:\Users\stapi\AppData\Local\Temp\ccAC15cc.s:138    .text.dm_client_connect:0000000000000000 .L0 
C:\Users\stapi\AppData\Local\Temp\ccAC15cc.s:139    .text.dm_client_connect:0000000000000008 .L0 
C:\Users\stapi\AppData\Local\Temp\ccAC15cc.s:140    .text.dm_client_connect:0000000000000008 .L0 
C:\Users\stapi\AppData\Local\Temp\ccAC15cc.s:141    .text.dm_client_connect:0000000000000008 .L0 
C:\Users\stapi\AppData\Local\Temp\ccAC15cc.s:144    .text.dm_client_connect:0000000000000008 .L0 
C:\Users\stapi\AppData\Local\Temp\ccAC15cc.s:145    .text.dm_client_connect:0000000000000008 .L0 
C:\Users\stapi\AppData\Local\Temp\ccAC15cc.s:146    .text.dm_client_connect:0000000000000008 .L0 
C:\Users\stapi\AppData\Local\Temp\ccAC15cc.s:147    .text.dm_client_connect:0000000000000008 .L0 
C:\Users\stapi\AppData\Local\Temp\ccAC15cc.s:148    .text.dm_client_connect:0000000000000008 .L0 
C:\Users\stapi\AppData\Local\Temp\ccAC15cc.s:150    .text.dm_client_connect:000000000000000c .L0 
C:\Users\stapi\AppData\Local\Temp\ccAC15cc.s:153    .text.dm_client_connect:0000000000000012 .L0 
C:\Users\stapi\AppData\Local\Temp\ccAC15cc.s:154    .text.dm_client_connect:0000000000000014 .L0 
C:\Users\stapi\AppData\Local\Temp\ccAC15cc.s:156    .text.dm_client_connect:0000000000000014 .L0 
C:\Users\stapi\AppData\Local\Temp\ccAC15cc.s:159    .text.dm_client_connect:000000000000001a .L0 
C:\Users\stapi\AppData\Local\Temp\ccAC15cc.s:163    .text.dm_client_connect:000000000000001e .L0 
C:\Users\stapi\AppData\Local\Temp\ccAC15cc.s:164    .text.dm_client_connect:000000000000001e .L0 
C:\Users\stapi\AppData\Local\Temp\ccAC15cc.s:169    .text.dm_client_connect:0000000000000028 .L0 
C:\Users\stapi\AppData\Local\Temp\ccAC15cc.s:170    .text.dm_client_connect:0000000000000028 .L0 
C:\Users\stapi\AppData\Local\Temp\ccAC15cc.s:171    .text.dm_client_connect:000000000000002a .L0 
C:\Users\stapi\AppData\Local\Temp\ccAC15cc.s:172    .text.dm_client_connect:000000000000002a .L0 
C:\Users\stapi\AppData\Local\Temp\ccAC15cc.s:174    .text.dm_client_connect:0000000000000032 .L0 
C:\Users\stapi\AppData\Local\Temp\ccAC15cc.s:175    .text.dm_client_connect:0000000000000032 .L0 
C:\Users\stapi\AppData\Local\Temp\ccAC15cc.s:176    .text.dm_client_connect:0000000000000032 .L0 
C:\Users\stapi\AppData\Local\Temp\ccAC15cc.s:179    .text.dm_client_connect:0000000000000032 .L0 
C:\Users\stapi\AppData\Local\Temp\ccAC15cc.s:182    .text.dm_client_connect:0000000000000034 .L0 
C:\Users\stapi\AppData\Local\Temp\ccAC15cc.s:183    .text.dm_client_connect:0000000000000034 .L0 
C:\Users\stapi\AppData\Local\Temp\ccAC15cc.s:186    .text.dm_client_connect:000000000000003c .L0 
C:\Users\stapi\AppData\Local\Temp\ccAC15cc.s:187    .text.dm_client_connect:000000000000003c .L0 
C:\Users\stapi\AppData\Local\Temp\ccAC15cc.s:190    .text.dm_client_connect:0000000000000042 .L0 
C:\Users\stapi\AppData\Local\Temp\ccAC15cc.s:197    .text.dm_client_close:0000000000000000 dm_client_close
C:\Users\stapi\AppData\Local\Temp\ccAC15cc.s:200    .text.dm_client_close:0000000000000000 .L0 
C:\Users\stapi\AppData\Local\Temp\ccAC15cc.s:201    .text.dm_client_close:0000000000000000 .L0 
C:\Users\stapi\AppData\Local\Temp\ccAC15cc.s:202    .text.dm_client_close:0000000000000008 .L0 
C:\Users\stapi\AppData\Local\Temp\ccAC15cc.s:203    .text.dm_client_close:0000000000000008 .L0 
C:\Users\stapi\AppData\Local\Temp\ccAC15cc.s:204    .text.dm_client_close:0000000000000008 .L0 
C:\Users\stapi\AppData\Local\Temp\ccAC15cc.s:206    .text.dm_client_close:0000000000000008 .L0 
C:\Users\stapi\AppData\Local\Temp\ccAC15cc.s:207    .text.dm_client_close:0000000000000008 .L0 
C:\Users\stapi\AppData\Local\Temp\ccAC15cc.s:209    .text.dm_client_close:0000000000000008 .L0 
C:\Users\stapi\AppData\Local\Temp\ccAC15cc.s:210    .text.dm_client_close:0000000000000008 .L0 
C:\Users\stapi\AppData\Local\Temp\ccAC15cc.s:211    .text.dm_client_close:0000000000000008 .L0 
C:\Users\stapi\AppData\Local\Temp\ccAC15cc.s:217    .text.dm_client_close:000000000000001a .L0 
C:\Users\stapi\AppData\Local\Temp\ccAC15cc.s:218    .text.dm_client_close:000000000000001a .L0 
C:\Users\stapi\AppData\Local\Temp\ccAC15cc.s:220    .text.dm_client_close:000000000000001c .L0 
C:\Users\stapi\AppData\Local\Temp\ccAC15cc.s:221    .text.dm_client_close:000000000000001c .L0 
C:\Users\stapi\AppData\Local\Temp\ccAC15cc.s:225    .text.dm_client_close:0000000000000020 .L0 
C:\Users\stapi\AppData\Local\Temp\ccAC15cc.s:226    .text.dm_client_close:0000000000000020 .L0 
C:\Users\stapi\AppData\Local\Temp\ccAC15cc.s:227    .text.dm_client_close:0000000000000028 .L0 
C:\Users\stapi\AppData\Local\Temp\ccAC15cc.s:228    .text.dm_client_close:0000000000000028 .L0 
C:\Users\stapi\AppData\Local\Temp\ccAC15cc.s:229    .text.dm_client_close:0000000000000028 .L0 
C:\Users\stapi\AppData\Local\Temp\ccAC15cc.s:230    .text.dm_client_close:0000000000000028 .L0 
C:\Users\stapi\AppData\Local\Temp\ccAC15cc.s:241    .text.dm_client_subscribe:0000000000000000 dm_client_subscribe
C:\Users\stapi\AppData\Local\Temp\ccAC15cc.s:244    .text.dm_client_subscribe:0000000000000000 .L0 
C:\Users\stapi\AppData\Local\Temp\ccAC15cc.s:246    .text.dm_client_subscribe:0000000000000000 .L0 
C:\Users\stapi\AppData\Local\Temp\ccAC15cc.s:247    .text.dm_client_subscribe:0000000000000008 .L0 
C:\Users\stapi\AppData\Local\Temp\ccAC15cc.s:248    .text.dm_client_subscribe:0000000000000008 .L0 
C:\Users\stapi\AppData\Local\Temp\ccAC15cc.s:249    .text.dm_client_subscribe:0000000000000008 .L0 
C:\Users\stapi\AppData\Local\Temp\ccAC15cc.s:252    .text.dm_client_subscribe:0000000000000008 .L0 
C:\Users\stapi\AppData\Local\Temp\ccAC15cc.s:253    .text.dm_client_subscribe:0000000000000008 .L0 
C:\Users\stapi\AppData\Local\Temp\ccAC15cc.s:254    .text.dm_client_subscribe:0000000000000008 .L0 
C:\Users\stapi\AppData\Local\Temp\ccAC15cc.s:255    .text.dm_client_subscribe:0000000000000008 .L0 
C:\Users\stapi\AppData\Local\Temp\ccAC15cc.s:256    .text.dm_client_subscribe:0000000000000008 .L0 
C:\Users\stapi\AppData\Local\Temp\ccAC15cc.s:257    .text.dm_client_subscribe:0000000000000008 .L0 
C:\Users\stapi\AppData\Local\Temp\ccAC15cc.s:258    .text.dm_client_subscribe:0000000000000008 .L0 
C:\Users\stapi\AppData\Local\Temp\ccAC15cc.s:259    .text.dm_client_subscribe:000000000000000a .L0 
C:\Users\stapi\AppData\Local\Temp\ccAC15cc.s:261    .text.dm_client_subscribe:000000000000000a .L0 
C:\Users\stapi\AppData\Local\Temp\ccAC15cc.s:266    .text.dm_client_subscribe:0000000000000012 .L0 
C:\Users\stapi\AppData\Local\Temp\ccAC15cc.s:267    .text.dm_client_subscribe:0000000000000012 .L0 
C:\Users\stapi\AppData\Local\Temp\ccAC15cc.s:269    .text.dm_client_subscribe:0000000000000014 .L0 
C:\Users\stapi\AppData\Local\Temp\ccAC15cc.s:272    .text.dm_client_subscribe:0000000000000016 .L0 
C:\Users\stapi\AppData\Local\Temp\ccAC15cc.s:273    .text.dm_client_subscribe:0000000000000016 .L0 
C:\Users\stapi\AppData\Local\Temp\ccAC15cc.s:274    .text.dm_client_subscribe:0000000000000016 .L0 
C:\Users\stapi\AppData\Local\Temp\ccAC15cc.s:278    .text.dm_client_subscribe:0000000000000020 .L0 
C:\Users\stapi\AppData\Local\Temp\ccAC15cc.s:279    .text.dm_client_subscribe:0000000000000020 .L0 
C:\Users\stapi\AppData\Local\Temp\ccAC15cc.s:284    .text.dm_client_subscribe:0000000000000024 .L0 
C:\Users\stapi\AppData\Local\Temp\ccAC15cc.s:285    .text.dm_client_subscribe:0000000000000024 .L0 
C:\Users\stapi\AppData\Local\Temp\ccAC15cc.s:286    .text.dm_client_subscribe:0000000000000024 .L0 
C:\Users\stapi\AppData\Local\Temp\ccAC15cc.s:290    .text.dm_client_subscribe:000000000000002c .L0 
C:\Users\stapi\AppData\Local\Temp\ccAC15cc.s:291    .text.dm_client_subscribe:000000000000002c .L0 
C:\Users\stapi\AppData\Local\Temp\ccAC15cc.s:292    .text.dm_client_subscribe:000000000000002c .L0 
C:\Users\stapi\AppData\Local\Temp\ccAC15cc.s:305    .text.dm_client_subscribe:0000000000000044 .L0 
C:\Users\stapi\AppData\Local\Temp\ccAC15cc.s:306    .text.dm_client_subscribe:0000000000000044 .L0 
C:\Users\stapi\AppData\Local\Temp\ccAC15cc.s:311    .text.dm_client_subscribe:0000000000000054 .L0 
C:\Users\stapi\AppData\Local\Temp\ccAC15cc.s:317    .text.dm_client_subscribe:0000000000000066 .L0 
C:\Users\stapi\AppData\Local\Temp\ccAC15cc.s:322    .text.dm_client_subscribe:0000000000000076 .L0 
C:\Users\stapi\AppData\Local\Temp\ccAC15cc.s:323    .text.dm_client_subscribe:0000000000000076 .L0 
C:\Users\stapi\AppData\Local\Temp\ccAC15cc.s:324    .text.dm_client_subscribe:0000000000000076 .L0 
C:\Users\stapi\AppData\Local\Temp\ccAC15cc.s:326    .text.dm_client_subscribe:000000000000007a .L0 
C:\Users\stapi\AppData\Local\Temp\ccAC15cc.s:327    .text.dm_client_subscribe:000000000000007a .L0 
C:\Users\stapi\AppData\Local\Temp\ccAC15cc.s:330    .text.dm_client_subscribe:0000000000000086 .L0 
C:\Users\stapi\AppData\Local\Temp\ccAC15cc.s:331    .text.dm_client_subscribe:0000000000000086 .L0 
C:\Users\stapi\AppData\Local\Temp\ccAC15cc.s:332    .text.dm_client_subscribe:0000000000000086 .L0 
C:\Users\stapi\AppData\Local\Temp\ccAC15cc.s:335    .text.dm_client_subscribe:0000000000000086 .L0 
C:\Users\stapi\AppData\Local\Temp\ccAC15cc.s:337    .text.dm_client_subscribe:0000000000000086 .L0 
C:\Users\stapi\AppData\Local\Temp\ccAC15cc.s:338    .text.dm_client_subscribe:0000000000000086 .L0 
C:\Users\stapi\AppData\Local\Temp\ccAC15cc.s:339    .text.dm_client_subscribe:0000000000000086 .L0 
C:\Users\stapi\AppData\Local\Temp\ccAC15cc.s:342    .text.dm_client_subscribe:000000000000008c .L0 
C:\Users\stapi\AppData\Local\Temp\ccAC15cc.s:353    .text.dm_client_unsubscribe:0000000000000000 dm_client_unsubscribe
C:\Users\stapi\AppData\Local\Temp\ccAC15cc.s:356    .text.dm_client_unsubscribe:0000000000000000 .L0 
C:\Users\stapi\AppData\Local\Temp\ccAC15cc.s:358    .text.dm_client_unsubscribe:0000000000000000 .L0 
C:\Users\stapi\AppData\Local\Temp\ccAC15cc.s:359    .text.dm_client_unsubscribe:0000000000000008 .L0 
C:\Users\stapi\AppData\Local\Temp\ccAC15cc.s:360    .text.dm_client_unsubscribe:0000000000000008 .L0 
C:\Users\stapi\AppData\Local\Temp\ccAC15cc.s:361    .text.dm_client_unsubscribe:0000000000000008 .L0 
C:\Users\stapi\AppData\Local\Temp\ccAC15cc.s:364    .text.dm_client_unsubscribe:0000000000000008 .L0 
C:\Users\stapi\AppData\Local\Temp\ccAC15cc.s:365    .text.dm_client_unsubscribe:0000000000000008 .L0 
C:\Users\stapi\AppData\Local\Temp\ccAC15cc.s:366    .text.dm_client_unsubscribe:0000000000000008 .L0 
C:\Users\stapi\AppData\Local\Temp\ccAC15cc.s:367    .text.dm_client_unsubscribe:0000000000000008 .L0 
C:\Users\stapi\AppData\Local\Temp\ccAC15cc.s:368    .text.dm_client_unsubscribe:0000000000000008 .L0 
C:\Users\stapi\AppData\Local\Temp\ccAC15cc.s:370    .text.dm_client_unsubscribe:000000000000000c .L0 
C:\Users\stapi\AppData\Local\Temp\ccAC15cc.s:372    .text.dm_client_unsubscribe:000000000000000e .L0 
C:\Users\stapi\AppData\Local\Temp\ccAC15cc.s:379    .text.dm_client_unsubscribe:000000000000001c .L0 
C:\Users\stapi\AppData\Local\Temp\ccAC15cc.s:380    .text.dm_client_unsubscribe:000000000000001c .L0 
C:\Users\stapi\AppData\Local\Temp\ccAC15cc.s:385    .text.dm_client_unsubscribe:000000000000002c .L0 
C:\Users\stapi\AppData\Local\Temp\ccAC15cc.s:391    .text.dm_client_unsubscribe:000000000000003e .L0 
C:\Users\stapi\AppData\Local\Temp\ccAC15cc.s:396    .text.dm_client_unsubscribe:000000000000004e .L0 
C:\Users\stapi\AppData\Local\Temp\ccAC15cc.s:397    .text.dm_client_unsubscribe:000000000000004e .L0 
C:\Users\stapi\AppData\Local\Temp\ccAC15cc.s:398    .text.dm_client_unsubscribe:000000000000004e .L0 
C:\Users\stapi\AppData\Local\Temp\ccAC15cc.s:400    .text.dm_client_unsubscribe:0000000000000058 .L0 
C:\Users\stapi\AppData\Local\Temp\ccAC15cc.s:401    .text.dm_client_unsubscribe:0000000000000058 .L0 
C:\Users\stapi\AppData\Local\Temp\ccAC15cc.s:402    .text.dm_client_unsubscribe:0000000000000058 .L0 
C:\Users\stapi\AppData\Local\Temp\ccAC15cc.s:403    .text.dm_client_unsubscribe:0000000000000058 .L0 
C:\Users\stapi\AppData\Local\Temp\ccAC15cc.s:414    .text.dm_client_publish:0000000000000000 dm_client_publish
C:\Users\stapi\AppData\Local\Temp\ccAC15cc.s:417    .text.dm_client_publish:0000000000000000 .L0 
C:\Users\stapi\AppData\Local\Temp\ccAC15cc.s:419    .text.dm_client_publish:0000000000000000 .L0 
C:\Users\stapi\AppData\Local\Temp\ccAC15cc.s:420    .text.dm_client_publish:0000000000000008 .L0 
C:\Users\stapi\AppData\Local\Temp\ccAC15cc.s:421    .text.dm_client_publish:0000000000000008 .L0 
C:\Users\stapi\AppData\Local\Temp\ccAC15cc.s:422    .text.dm_client_publish:0000000000000008 .L0 
C:\Users\stapi\AppData\Local\Temp\ccAC15cc.s:425    .text.dm_client_publish:0000000000000008 .L0 
C:\Users\stapi\AppData\Local\Temp\ccAC15cc.s:426    .text.dm_client_publish:0000000000000008 .L0 
C:\Users\stapi\AppData\Local\Temp\ccAC15cc.s:427    .text.dm_client_publish:0000000000000008 .L0 
C:\Users\stapi\AppData\Local\Temp\ccAC15cc.s:428    .text.dm_client_publish:0000000000000008 .L0 
C:\Users\stapi\AppData\Local\Temp\ccAC15cc.s:429    .text.dm_client_publish:0000000000000008 .L0 
C:\Users\stapi\AppData\Local\Temp\ccAC15cc.s:430    .text.dm_client_publish:0000000000000008 .L0 
C:\Users\stapi\AppData\Local\Temp\ccAC15cc.s:431    .text.dm_client_publish:0000000000000008 .L0 
C:\Users\stapi\AppData\Local\Temp\ccAC15cc.s:433    .text.dm_client_publish:000000000000000c .L0 
C:\Users\stapi\AppData\Local\Temp\ccAC15cc.s:435    .text.dm_client_publish:000000000000000e .L0 
C:\Users\stapi\AppData\Local\Temp\ccAC15cc.s:440    .text.dm_client_publish:0000000000000014 .L0 
C:\Users\stapi\AppData\Local\Temp\ccAC15cc.s:441    .text.dm_client_publish:0000000000000016 .L0 
C:\Users\stapi\AppData\Local\Temp\ccAC15cc.s:443    .text.dm_client_publish:0000000000000016 .L0 
C:\Users\stapi\AppData\Local\Temp\ccAC15cc.s:446    .text.dm_client_publish:0000000000000018 .L0 
C:\Users\stapi\AppData\Local\Temp\ccAC15cc.s:449    .text.dm_client_publish:000000000000001a .L0 
C:\Users\stapi\AppData\Local\Temp\ccAC15cc.s:455    .text.dm_client_publish:0000000000000024 .L0 
C:\Users\stapi\AppData\Local\Temp\ccAC15cc.s:456    .text.dm_client_publish:0000000000000024 .L0 
C:\Users\stapi\AppData\Local\Temp\ccAC15cc.s:457    .text.dm_client_publish:0000000000000024 .L0 
C:\Users\stapi\AppData\Local\Temp\ccAC15cc.s:458    .text.dm_client_publish:0000000000000024 .L0 
C:\Users\stapi\AppData\Local\Temp\ccAC15cc.s:460    .text.dm_client_publish:0000000000000024 .L0 
C:\Users\stapi\AppData\Local\Temp\ccAC15cc.s:461    .text.dm_client_publish:0000000000000024 .L0 
C:\Users\stapi\AppData\Local\Temp\ccAC15cc.s:462    .text.dm_client_publish:0000000000000024 .L0 
C:\Users\stapi\AppData\Local\Temp\ccAC15cc.s:467    .text.dm_client_publish:000000000000002e .L0 
C:\Users\stapi\AppData\Local\Temp\ccAC15cc.s:468    .text.dm_client_publish:000000000000002e .L0 
C:\Users\stapi\AppData\Local\Temp\ccAC15cc.s:473    .text.dm_client_publish:000000000000003e .L0 
C:\Users\stapi\AppData\Local\Temp\ccAC15cc.s:479    .text.dm_client_publish:0000000000000050 .L0 
C:\Users\stapi\AppData\Local\Temp\ccAC15cc.s:484    .text.dm_client_publish:0000000000000060 .L0 
C:\Users\stapi\AppData\Local\Temp\ccAC15cc.s:485    .text.dm_client_publish:0000000000000060 .L0 
C:\Users\stapi\AppData\Local\Temp\ccAC15cc.s:486    .text.dm_client_publish:0000000000000060 .L0 
C:\Users\stapi\AppData\Local\Temp\ccAC15cc.s:488    .text.dm_client_publish:0000000000000064 .L0 
C:\Users\stapi\AppData\Local\Temp\ccAC15cc.s:490    .text.dm_client_publish:000000000000006c .L0 
C:\Users\stapi\AppData\Local\Temp\ccAC15cc.s:491    .text.dm_client_publish:000000000000006c .L0 
C:\Users\stapi\AppData\Local\Temp\ccAC15cc.s:492    .text.dm_client_publish:000000000000006c .L0 
C:\Users\stapi\AppData\Local\Temp\ccAC15cc.s:493    .text.dm_client_publish:000000000000006c .L0 
C:\Users\stapi\AppData\Local\Temp\ccAC15cc.s:500    .text.dm_client_yield:0000000000000000 dm_client_yield
C:\Users\stapi\AppData\Local\Temp\ccAC15cc.s:503    .text.dm_client_yield:0000000000000000 .L0 
C:\Users\stapi\AppData\Local\Temp\ccAC15cc.s:505    .text.dm_client_yield:0000000000000000 .L0 
C:\Users\stapi\AppData\Local\Temp\ccAC15cc.s:506    .text.dm_client_yield:0000000000000000 .L0 
C:\Users\stapi\AppData\Local\Temp\ccAC15cc.s:507    .text.dm_client_yield:0000000000000000 .L0 
C:\Users\stapi\AppData\Local\Temp\ccAC15cc.s:508    .text.dm_client_yield:0000000000000000 .L0 
C:\Users\stapi\AppData\Local\Temp\ccAC15cc.s:509    .text.dm_client_yield:0000000000000000 .L0 
C:\Users\stapi\AppData\Local\Temp\ccAC15cc.s:511    .text.dm_client_yield:0000000000000004 .L0 
C:\Users\stapi\AppData\Local\Temp\ccAC15cc.s:513    .text.dm_client_yield:0000000000000006 .L0 
C:\Users\stapi\AppData\Local\Temp\ccAC15cc.s:517    .text.dm_client_yield:0000000000000012 .L0 
C:\Users\stapi\AppData\Local\Temp\ccAC15cc.s:522    .bss.g_dm_client_ctx:0000000000000000 .LANCHOR0
C:\Users\stapi\AppData\Local\Temp\ccAC15cc.s:525    .bss.g_dm_client_ctx:0000000000000000 g_dm_client_ctx
C:\Users\stapi\AppData\Local\Temp\ccAC15cc.s:129    .text.dm_client_open:0000000000000094 .L0 
C:\Users\stapi\AppData\Local\Temp\ccAC15cc.s:193    .text.dm_client_connect:0000000000000042 .L0 
C:\Users\stapi\AppData\Local\Temp\ccAC15cc.s:233    .text.dm_client_close:0000000000000028 .L0 
C:\Users\stapi\AppData\Local\Temp\ccAC15cc.s:345    .text.dm_client_subscribe:000000000000008c .L0 
C:\Users\stapi\AppData\Local\Temp\ccAC15cc.s:406    .text.dm_client_unsubscribe:0000000000000058 .L0 
C:\Users\stapi\AppData\Local\Temp\ccAC15cc.s:496    .text.dm_client_publish:000000000000006c .L0 
C:\Users\stapi\AppData\Local\Temp\ccAC15cc.s:520    .text.dm_client_yield:0000000000000012 .L0 
                     .debug_frame:0000000000000000 .L0 
C:\Users\stapi\AppData\Local\Temp\ccAC15cc.s:11     .rodata.dm_client_open.str1.4:0000000000000000 .LC0
C:\Users\stapi\AppData\Local\Temp\ccAC15cc.s:14     .rodata.dm_client_open.str1.4:0000000000000008 .LC1
C:\Users\stapi\AppData\Local\Temp\ccAC15cc.s:17     .rodata.dm_client_open.str1.4:0000000000000014 .LC2
C:\Users\stapi\AppData\Local\Temp\ccAC15cc.s:118    .text.dm_client_open:000000000000008a .L1
C:\Users\stapi\AppData\Local\Temp\ccAC15cc.s:178    .text.dm_client_connect:0000000000000032 .L5
C:\Users\stapi\AppData\Local\Temp\ccAC15cc.s:161    .text.dm_client_connect:000000000000001e .L7
C:\Users\stapi\AppData\Local\Temp\ccAC15cc.s:168    .text.dm_client_connect:0000000000000028 .L4
C:\Users\stapi\AppData\Local\Temp\ccAC15cc.s:224    .text.dm_client_close:0000000000000020 .L12
C:\Users\stapi\AppData\Local\Temp\ccAC15cc.s:235    .rodata.dm_client_subscribe.str1.4:0000000000000000 .LC3
C:\Users\stapi\AppData\Local\Temp\ccAC15cc.s:334    .text.dm_client_subscribe:0000000000000086 .L16
C:\Users\stapi\AppData\Local\Temp\ccAC15cc.s:283    .text.dm_client_subscribe:0000000000000024 .L17
C:\Users\stapi\AppData\Local\Temp\ccAC15cc.s:347    .rodata.dm_client_unsubscribe.str1.4:0000000000000000 .LC4
C:\Users\stapi\AppData\Local\Temp\ccAC15cc.s:408    .rodata.dm_client_publish.str1.4:0000000000000000 .LC5
C:\Users\stapi\AppData\Local\Temp\ccAC15cc.s:2246   .debug_abbrev:0000000000000000 .Ldebug_abbrev0
C:\Users\stapi\AppData\Local\Temp\ccAC15cc.s:3051   .debug_str:000000000000013d .LASF287
C:\Users\stapi\AppData\Local\Temp\ccAC15cc.s:3453   .debug_str:000000000000151c .LASF288
C:\Users\stapi\AppData\Local\Temp\ccAC15cc.s:3385   .debug_str:0000000000001178 .LASF289
C:\Users\stapi\AppData\Local\Temp\ccAC15cc.s:3003   .debug_ranges:0000000000000000 .Ldebug_ranges0
C:\Users\stapi\AppData\Local\Temp\ccAC15cc.s:3021   .debug_line:0000000000000000 .Ldebug_line0
C:\Users\stapi\AppData\Local\Temp\ccAC15cc.s:3149   .debug_str:00000000000006ef .LASF0
C:\Users\stapi\AppData\Local\Temp\ccAC15cc.s:3099   .debug_str:0000000000000492 .LASF3
C:\Users\stapi\AppData\Local\Temp\ccAC15cc.s:3161   .debug_str:0000000000000760 .LASF1
C:\Users\stapi\AppData\Local\Temp\ccAC15cc.s:3487   .debug_str:0000000000001742 .LASF2
C:\Users\stapi\AppData\Local\Temp\ccAC15cc.s:3207   .debug_str:000000000000097d .LASF4
C:\Users\stapi\AppData\Local\Temp\ccAC15cc.s:3561   .debug_str:0000000000001aed .LASF5
C:\Users\stapi\AppData\Local\Temp\ccAC15cc.s:3117   .debug_str:0000000000000574 .LASF6
C:\Users\stapi\AppData\Local\Temp\ccAC15cc.s:3327   .debug_str:0000000000000f0d .LASF7
C:\Users\stapi\AppData\Local\Temp\ccAC15cc.s:3283   .debug_str:0000000000000d2f .LASF8
C:\Users\stapi\AppData\Local\Temp\ccAC15cc.s:3329   .debug_str:0000000000000f18 .LASF9
C:\Users\stapi\AppData\Local\Temp\ccAC15cc.s:3419   .debug_str:00000000000013af .LASF10
C:\Users\stapi\AppData\Local\Temp\ccAC15cc.s:3355   .debug_str:000000000000102c .LASF11
C:\Users\stapi\AppData\Local\Temp\ccAC15cc.s:3195   .debug_str:00000000000008fa .LASF12
C:\Users\stapi\AppData\Local\Temp\ccAC15cc.s:3151   .debug_str:00000000000006fb .LASF13
C:\Users\stapi\AppData\Local\Temp\ccAC15cc.s:3425   .debug_str:0000000000001406 .LASF14
C:\Users\stapi\AppData\Local\Temp\ccAC15cc.s:3539   .debug_str:00000000000019d9 .LASF15
C:\Users\stapi\AppData\Local\Temp\ccAC15cc.s:3479   .debug_str:00000000000016fd .LASF16
C:\Users\stapi\AppData\Local\Temp\ccAC15cc.s:3451   .debug_str:0000000000001517 .LASF17
C:\Users\stapi\AppData\Local\Temp\ccAC15cc.s:3375   .debug_str:00000000000010fc .LASF18
C:\Users\stapi\AppData\Local\Temp\ccAC15cc.s:3277   .debug_str:0000000000000d03 .LASF19
C:\Users\stapi\AppData\Local\Temp\ccAC15cc.s:3563   .debug_str:0000000000001b00 .LASF20
C:\Users\stapi\AppData\Local\Temp\ccAC15cc.s:3489   .debug_str:000000000000174c .LASF21
C:\Users\stapi\AppData\Local\Temp\ccAC15cc.s:3253   .debug_str:0000000000000bce .LASF22
C:\Users\stapi\AppData\Local\Temp\ccAC15cc.s:3209   .debug_str:0000000000000988 .LASF23
C:\Users\stapi\AppData\Local\Temp\ccAC15cc.s:3033   .debug_str:0000000000000067 .LASF221
C:\Users\stapi\AppData\Local\Temp\ccAC15cc.s:3153   .debug_str:0000000000000703 .LASF24
C:\Users\stapi\AppData\Local\Temp\ccAC15cc.s:3341   .debug_str:0000000000000f9c .LASF25
C:\Users\stapi\AppData\Local\Temp\ccAC15cc.s:3387   .debug_str:0000000000001209 .LASF26
C:\Users\stapi\AppData\Local\Temp\ccAC15cc.s:3231   .debug_str:0000000000000aae .LASF27
C:\Users\stapi\AppData\Local\Temp\ccAC15cc.s:3535   .debug_str:00000000000019b0 .LASF28
C:\Users\stapi\AppData\Local\Temp\ccAC15cc.s:3319   .debug_str:0000000000000ea5 .LASF29
C:\Users\stapi\AppData\Local\Temp\ccAC15cc.s:3025   .debug_str:000000000000000f .LASF30
C:\Users\stapi\AppData\Local\Temp\ccAC15cc.s:3447   .debug_str:00000000000014fc .LASF31
C:\Users\stapi\AppData\Local\Temp\ccAC15cc.s:3555   .debug_str:0000000000001ab2 .LASF32
C:\Users\stapi\AppData\Local\Temp\ccAC15cc.s:3463   .debug_str:000000000000164e .LASF33
C:\Users\stapi\AppData\Local\Temp\ccAC15cc.s:3433   .debug_str:000000000000145b .LASF34
C:\Users\stapi\AppData\Local\Temp\ccAC15cc.s:3205   .debug_str:0000000000000966 .LASF35
C:\Users\stapi\AppData\Local\Temp\ccAC15cc.s:3391   .debug_str:000000000000123f .LASF36
C:\Users\stapi\AppData\Local\Temp\ccAC15cc.s:3435   .debug_str:000000000000146a .LASF37
C:\Users\stapi\AppData\Local\Temp\ccAC15cc.s:3281   .debug_str:0000000000000d17 .LASF38
C:\Users\stapi\AppData\Local\Temp\ccAC15cc.s:3565   .debug_str:0000000000001b09 .LASF39
C:\Users\stapi\AppData\Local\Temp\ccAC15cc.s:3331   .debug_str:0000000000000f26 .LASF40
C:\Users\stapi\AppData\Local\Temp\ccAC15cc.s:3411   .debug_str:000000000000133a .LASF41
C:\Users\stapi\AppData\Local\Temp\ccAC15cc.s:3179   .debug_str:000000000000082e .LASF42
C:\Users\stapi\AppData\Local\Temp\ccAC15cc.s:3465   .debug_str:000000000000165d .LASF43
C:\Users\stapi\AppData\Local\Temp\ccAC15cc.s:3043   .debug_str:00000000000000c8 .LASF44
C:\Users\stapi\AppData\Local\Temp\ccAC15cc.s:3111   .debug_str:0000000000000525 .LASF45
C:\Users\stapi\AppData\Local\Temp\ccAC15cc.s:3437   .debug_str:0000000000001482 .LASF46
C:\Users\stapi\AppData\Local\Temp\ccAC15cc.s:3171   .debug_str:00000000000007c7 .LASF47
C:\Users\stapi\AppData\Local\Temp\ccAC15cc.s:3273   .debug_str:0000000000000cdb .LASF48
C:\Users\stapi\AppData\Local\Temp\ccAC15cc.s:3423   .debug_str:00000000000013ec .LASF49
C:\Users\stapi\AppData\Local\Temp\ccAC15cc.s:3061   .debug_str:0000000000000297 .LASF50
C:\Users\stapi\AppData\Local\Temp\ccAC15cc.s:3501   .debug_str:00000000000017de .LASF51
C:\Users\stapi\AppData\Local\Temp\ccAC15cc.s:3365   .debug_str:00000000000010a1 .LASF52
C:\Users\stapi\AppData\Local\Temp\ccAC15cc.s:3199   .debug_str:000000000000090f .LASF53
C:\Users\stapi\AppData\Local\Temp\ccAC15cc.s:3123   .debug_str:00000000000005af .LASF54
C:\Users\stapi\AppData\Local\Temp\ccAC15cc.s:3085   .debug_str:00000000000003de .LASF55
C:\Users\stapi\AppData\Local\Temp\ccAC15cc.s:3409   .debug_str:0000000000001321 .LASF56
C:\Users\stapi\AppData\Local\Temp\ccAC15cc.s:3513   .debug_str:000000000000187c .LASF57
C:\Users\stapi\AppData\Local\Temp\ccAC15cc.s:3405   .debug_str:00000000000012e5 .LASF58
C:\Users\stapi\AppData\Local\Temp\ccAC15cc.s:3027   .debug_str:000000000000001e .LASF59
C:\Users\stapi\AppData\Local\Temp\ccAC15cc.s:3071   .debug_str:000000000000031f .LASF60
C:\Users\stapi\AppData\Local\Temp\ccAC15cc.s:3083   .debug_str:00000000000003bf .LASF61
C:\Users\stapi\AppData\Local\Temp\ccAC15cc.s:3415   .debug_str:0000000000001388 .LASF62
C:\Users\stapi\AppData\Local\Temp\ccAC15cc.s:3213   .debug_str:00000000000009b4 .LASF63
C:\Users\stapi\AppData\Local\Temp\ccAC15cc.s:3325   .debug_str:0000000000000eeb .LASF64
C:\Users\stapi\AppData\Local\Temp\ccAC15cc.s:3127   .debug_str:00000000000005f0 .LASF65
C:\Users\stapi\AppData\Local\Temp\ccAC15cc.s:3553   .debug_str:0000000000001a96 .LASF66
C:\Users\stapi\AppData\Local\Temp\ccAC15cc.s:3567   .debug_str:0000000000001b2b .LASF67
C:\Users\stapi\AppData\Local\Temp\ccAC15cc.s:3485   .debug_str:000000000000172a .LASF68
C:\Users\stapi\AppData\Local\Temp\ccAC15cc.s:3541   .debug_str:00000000000019e2 .LASF69
C:\Users\stapi\AppData\Local\Temp\ccAC15cc.s:3169   .debug_str:00000000000007ae .LASF70
C:\Users\stapi\AppData\Local\Temp\ccAC15cc.s:3215   .debug_str:00000000000009d2 .LASF71
C:\Users\stapi\AppData\Local\Temp\ccAC15cc.s:3379   .debug_str:0000000000001129 .LASF72
C:\Users\stapi\AppData\Local\Temp\ccAC15cc.s:3461   .debug_str:0000000000001636 .LASF73
C:\Users\stapi\AppData\Local\Temp\ccAC15cc.s:3227   .debug_str:0000000000000a68 .LASF74
C:\Users\stapi\AppData\Local\Temp\ccAC15cc.s:3155   .debug_str:000000000000071a .LASF75
C:\Users\stapi\AppData\Local\Temp\ccAC15cc.s:3441   .debug_str:00000000000014b8 .LASF76
C:\Users\stapi\AppData\Local\Temp\ccAC15cc.s:3191   .debug_str:00000000000008c0 .LASF77
C:\Users\stapi\AppData\Local\Temp\ccAC15cc.s:3077   .debug_str:0000000000000389 .LASF78
C:\Users\stapi\AppData\Local\Temp\ccAC15cc.s:3495   .debug_str:000000000000177f .LASF79
C:\Users\stapi\AppData\Local\Temp\ccAC15cc.s:3269   .debug_str:0000000000000c9b .LASF80
C:\Users\stapi\AppData\Local\Temp\ccAC15cc.s:3265   .debug_str:0000000000000c5d .LASF81
C:\Users\stapi\AppData\Local\Temp\ccAC15cc.s:3175   .debug_str:0000000000000800 .LASF82
C:\Users\stapi\AppData\Local\Temp\ccAC15cc.s:3469   .debug_str:0000000000001695 .LASF83
C:\Users\stapi\AppData\Local\Temp\ccAC15cc.s:3493   .debug_str:0000000000001760 .LASF84
C:\Users\stapi\AppData\Local\Temp\ccAC15cc.s:3471   .debug_str:00000000000016af .LASF85
C:\Users\stapi\AppData\Local\Temp\ccAC15cc.s:3145   .debug_str:00000000000006c7 .LASF86
C:\Users\stapi\AppData\Local\Temp\ccAC15cc.s:3545   .debug_str:0000000000001a1b .LASF87
C:\Users\stapi\AppData\Local\Temp\ccAC15cc.s:3543   .debug_str:00000000000019fe .LASF88
C:\Users\stapi\AppData\Local\Temp\ccAC15cc.s:3519   .debug_str:00000000000018c0 .LASF89
C:\Users\stapi\AppData\Local\Temp\ccAC15cc.s:3551   .debug_str:0000000000001a76 .LASF90
C:\Users\stapi\AppData\Local\Temp\ccAC15cc.s:3345   .debug_str:0000000000000fc3 .LASF91
C:\Users\stapi\AppData\Local\Temp\ccAC15cc.s:3351   .debug_str:0000000000001002 .LASF92
C:\Users\stapi\AppData\Local\Temp\ccAC15cc.s:3237   .debug_str:0000000000000af4 .LASF93
C:\Users\stapi\AppData\Local\Temp\ccAC15cc.s:3045   .debug_str:00000000000000e8 .LASF94
C:\Users\stapi\AppData\Local\Temp\ccAC15cc.s:3511   .debug_str:0000000000001860 .LASF95
C:\Users\stapi\AppData\Local\Temp\ccAC15cc.s:3395   .debug_str:0000000000001267 .LASF96
C:\Users\stapi\AppData\Local\Temp\ccAC15cc.s:3267   .debug_str:0000000000000c7b .LASF97
C:\Users\stapi\AppData\Local\Temp\ccAC15cc.s:3263   .debug_str:0000000000000c3e .LASF98
C:\Users\stapi\AppData\Local\Temp\ccAC15cc.s:3335   .debug_str:0000000000000f61 .LASF99
C:\Users\stapi\AppData\Local\Temp\ccAC15cc.s:3067   .debug_str:00000000000002e6 .LASF100
C:\Users\stapi\AppData\Local\Temp\ccAC15cc.s:3547   .debug_str:0000000000001a3e .LASF101
C:\Users\stapi\AppData\Local\Temp\ccAC15cc.s:3119   .debug_str:000000000000057d .LASF102
C:\Users\stapi\AppData\Local\Temp\ccAC15cc.s:3381   .debug_str:0000000000001144 .LASF103
C:\Users\stapi\AppData\Local\Temp\ccAC15cc.s:3529   .debug_str:000000000000196b .LASF104
C:\Users\stapi\AppData\Local\Temp\ccAC15cc.s:3057   .debug_str:0000000000000255 .LASF105
C:\Users\stapi\AppData\Local\Temp\ccAC15cc.s:3515   .debug_str:000000000000189a .LASF106
C:\Users\stapi\AppData\Local\Temp\ccAC15cc.s:3549   .debug_str:0000000000001a58 .LASF107
C:\Users\stapi\AppData\Local\Temp\ccAC15cc.s:3031   .debug_str:000000000000004d .LASF108
C:\Users\stapi\AppData\Local\Temp\ccAC15cc.s:3315   .debug_str:0000000000000e82 .LASF109
C:\Users\stapi\AppData\Local\Temp\ccAC15cc.s:3125   .debug_str:00000000000005cf .LASF110
C:\Users\stapi\AppData\Local\Temp\ccAC15cc.s:3597   .debug_str:0000000000001c84 .LASF111
C:\Users\stapi\AppData\Local\Temp\ccAC15cc.s:3131   .debug_str:000000000000061b .LASF112
C:\Users\stapi\AppData\Local\Temp\ccAC15cc.s:3407   .debug_str:00000000000012ff .LASF113
C:\Users\stapi\AppData\Local\Temp\ccAC15cc.s:3591   .debug_str:0000000000001c29 .LASF114
C:\Users\stapi\AppData\Local\Temp\ccAC15cc.s:3581   .debug_str:0000000000001bb1 .LASF115
C:\Users\stapi\AppData\Local\Temp\ccAC15cc.s:3121   .debug_str:0000000000000596 .LASF116
C:\Users\stapi\AppData\Local\Temp\ccAC15cc.s:3349   .debug_str:0000000000000fea .LASF117
C:\Users\stapi\AppData\Local\Temp\ccAC15cc.s:3257   .debug_str:0000000000000bf7 .LASF118
C:\Users\stapi\AppData\Local\Temp\ccAC15cc.s:3105   .debug_str:00000000000004de .LASF119
C:\Users\stapi\AppData\Local\Temp\ccAC15cc.s:3193   .debug_str:00000000000008dc .LASF120
C:\Users\stapi\AppData\Local\Temp\ccAC15cc.s:3091   .debug_str:000000000000042f .LASF121
C:\Users\stapi\AppData\Local\Temp\ccAC15cc.s:3129   .debug_str:0000000000000603 .LASF122
C:\Users\stapi\AppData\Local\Temp\ccAC15cc.s:3533   .debug_str:000000000000199c .LASF123
C:\Users\stapi\AppData\Local\Temp\ccAC15cc.s:3063   .debug_str:00000000000002b5 .LASF124
C:\Users\stapi\AppData\Local\Temp\ccAC15cc.s:3029   .debug_str:0000000000000035 .LASF125
C:\Users\stapi\AppData\Local\Temp\ccAC15cc.s:3141   .debug_str:000000000000069f .LASF126
C:\Users\stapi\AppData\Local\Temp\ccAC15cc.s:3537   .debug_str:00000000000019c1 .LASF127
C:\Users\stapi\AppData\Local\Temp\ccAC15cc.s:3107   .debug_str:00000000000004f6 .LASF128
C:\Users\stapi\AppData\Local\Temp\ccAC15cc.s:3251   .debug_str:0000000000000bb1 .LASF129
C:\Users\stapi\AppData\Local\Temp\ccAC15cc.s:3049   .debug_str:0000000000000127 .LASF130
C:\Users\stapi\AppData\Local\Temp\ccAC15cc.s:3137   .debug_str:0000000000000674 .LASF131
C:\Users\stapi\AppData\Local\Temp\ccAC15cc.s:3499   .debug_str:00000000000017c0 .LASF132
C:\Users\stapi\AppData\Local\Temp\ccAC15cc.s:3225   .debug_str:0000000000000a40 .LASF133
C:\Users\stapi\AppData\Local\Temp\ccAC15cc.s:3525   .debug_str:0000000000001928 .LASF134
C:\Users\stapi\AppData\Local\Temp\ccAC15cc.s:3203   .debug_str:000000000000094e .LASF135
C:\Users\stapi\AppData\Local\Temp\ccAC15cc.s:3527   .debug_str:0000000000001950 .LASF136
C:\Users\stapi\AppData\Local\Temp\ccAC15cc.s:3247   .debug_str:0000000000000b76 .LASF137
C:\Users\stapi\AppData\Local\Temp\ccAC15cc.s:3173   .debug_str:00000000000007e0 .LASF138
C:\Users\stapi\AppData\Local\Temp\ccAC15cc.s:3087   .debug_str:00000000000003f9 .LASF139
C:\Users\stapi\AppData\Local\Temp\ccAC15cc.s:3323   .debug_str:0000000000000ed3 .LASF140
C:\Users\stapi\AppData\Local\Temp\ccAC15cc.s:3401   .debug_str:00000000000012ba .LASF141
C:\Users\stapi\AppData\Local\Temp\ccAC15cc.s:3211   .debug_str:0000000000000999 .LASF142
C:\Users\stapi\AppData\Local\Temp\ccAC15cc.s:3413   .debug_str:000000000000136b .LASF143
C:\Users\stapi\AppData\Local\Temp\ccAC15cc.s:3183   .debug_str:000000000000086f .LASF144
C:\Users\stapi\AppData\Local\Temp\ccAC15cc.s:3389   .debug_str:0000000000001220 .LASF145
C:\Users\stapi\AppData\Local\Temp\ccAC15cc.s:3113   .debug_str:0000000000000547 .LASF146
C:\Users\stapi\AppData\Local\Temp\ccAC15cc.s:3097   .debug_str:0000000000000474 .LASF147
C:\Users\stapi\AppData\Local\Temp\ccAC15cc.s:3239   .debug_str:0000000000000b15 .LASF148
C:\Users\stapi\AppData\Local\Temp\ccAC15cc.s:3289   .debug_str:0000000000000d7f .LASF149
C:\Users\stapi\AppData\Local\Temp\ccAC15cc.s:3531   .debug_str:0000000000001985 .LASF150
C:\Users\stapi\AppData\Local\Temp\ccAC15cc.s:3577   .debug_str:0000000000001b88 .LASF151
C:\Users\stapi\AppData\Local\Temp\ccAC15cc.s:3339   .debug_str:0000000000000f7c .LASF152
C:\Users\stapi\AppData\Local\Temp\ccAC15cc.s:3135   .debug_str:0000000000000653 .LASF153
C:\Users\stapi\AppData\Local\Temp\ccAC15cc.s:3249   .debug_str:0000000000000b97 .LASF154
C:\Users\stapi\AppData\Local\Temp\ccAC15cc.s:3443   .debug_str:00000000000014d0 .LASF155
C:\Users\stapi\AppData\Local\Temp\ccAC15cc.s:3073   .debug_str:000000000000033d .LASF156
C:\Users\stapi\AppData\Local\Temp\ccAC15cc.s:3573   .debug_str:0000000000001b61 .LASF157
C:\Users\stapi\AppData\Local\Temp\ccAC15cc.s:3505   .debug_str:0000000000001811 .LASF158
C:\Users\stapi\AppData\Local\Temp\ccAC15cc.s:3221   .debug_str:0000000000000a07 .LASF159
C:\Users\stapi\AppData\Local\Temp\ccAC15cc.s:3157   .debug_str:0000000000000735 .LASF160
C:\Users\stapi\AppData\Local\Temp\ccAC15cc.s:3523   .debug_str:0000000000001904 .LASF161
C:\Users\stapi\AppData\Local\Temp\ccAC15cc.s:3255   .debug_str:0000000000000bd6 .LASF162
C:\Users\stapi\AppData\Local\Temp\ccAC15cc.s:3309   .debug_str:0000000000000e3e .LASF163
C:\Users\stapi\AppData\Local\Temp\ccAC15cc.s:3333   .debug_str:0000000000000f41 .LASF164
C:\Users\stapi\AppData\Local\Temp\ccAC15cc.s:3069   .debug_str:00000000000002fd .LASF165
C:\Users\stapi\AppData\Local\Temp\ccAC15cc.s:3507   .debug_str:0000000000001832 .LASF166
C:\Users\stapi\AppData\Local\Temp\ccAC15cc.s:3595   .debug_str:0000000000001c63 .LASF167
C:\Users\stapi\AppData\Local\Temp\ccAC15cc.s:3201   .debug_str:000000000000092b .LASF168
C:\Users\stapi\AppData\Local\Temp\ccAC15cc.s:3271   .debug_str:0000000000000cba .LASF169
C:\Users\stapi\AppData\Local\Temp\ccAC15cc.s:3059   .debug_str:0000000000000274 .LASF170
C:\Users\stapi\AppData\Local\Temp\ccAC15cc.s:3357   .debug_str:0000000000001039 .LASF171
C:\Users\stapi\AppData\Local\Temp\ccAC15cc.s:3421   .debug_str:00000000000013c6 .LASF172
C:\Users\stapi\AppData\Local\Temp\ccAC15cc.s:3593   .debug_str:0000000000001c48 .LASF173
C:\Users\stapi\AppData\Local\Temp\ccAC15cc.s:3459   .debug_str:000000000000160c .LASF174
C:\Users\stapi\AppData\Local\Temp\ccAC15cc.s:3165   .debug_str:0000000000000782 .LASF175
C:\Users\stapi\AppData\Local\Temp\ccAC15cc.s:3235   .debug_str:0000000000000ae0 .LASF176
C:\Users\stapi\AppData\Local\Temp\ccAC15cc.s:3473   .debug_str:00000000000016c4 .LASF177
C:\Users\stapi\AppData\Local\Temp\ccAC15cc.s:3307   .debug_str:0000000000000e22 .LASF178
C:\Users\stapi\AppData\Local\Temp\ccAC15cc.s:3377   .debug_str:0000000000001106 .LASF179
C:\Users\stapi\AppData\Local\Temp\ccAC15cc.s:3229   .debug_str:0000000000000a88 .LASF180
C:\Users\stapi\AppData\Local\Temp\ccAC15cc.s:3439   .debug_str:0000000000001495 .LASF181
C:\Users\stapi\AppData\Local\Temp\ccAC15cc.s:3429   .debug_str:000000000000142a .LASF182
C:\Users\stapi\AppData\Local\Temp\ccAC15cc.s:3503   .debug_str:00000000000017f9 .LASF183
C:\Users\stapi\AppData\Local\Temp\ccAC15cc.s:3133   .debug_str:0000000000000636 .LASF184
C:\Users\stapi\AppData\Local\Temp\ccAC15cc.s:3285   .debug_str:0000000000000d41 .LASF185
C:\Users\stapi\AppData\Local\Temp\ccAC15cc.s:3521   .debug_str:00000000000018e3 .LASF186
C:\Users\stapi\AppData\Local\Temp\ccAC15cc.s:3243   .debug_str:0000000000000b4a .LASF187
C:\Users\stapi\AppData\Local\Temp\ccAC15cc.s:3603   .debug_str:0000000000001cc1 .LASF188
C:\Users\stapi\AppData\Local\Temp\ccAC15cc.s:3187   .debug_str:0000000000000891 .LASF189
C:\Users\stapi\AppData\Local\Temp\ccAC15cc.s:3055   .debug_str:0000000000000238 .LASF190
C:\Users\stapi\AppData\Local\Temp\ccAC15cc.s:3293   .debug_str:0000000000000da5 .LASF191
C:\Users\stapi\AppData\Local\Temp\ccAC15cc.s:3181   .debug_str:0000000000000855 .LASF192
C:\Users\stapi\AppData\Local\Temp\ccAC15cc.s:3143   .debug_str:00000000000006ba .LASF193
C:\Users\stapi\AppData\Local\Temp\ccAC15cc.s:3587   .debug_str:0000000000001be3 .LASF194
C:\Users\stapi\AppData\Local\Temp\ccAC15cc.s:3457   .debug_str:00000000000015d9 .LASF195
C:\Users\stapi\AppData\Local\Temp\ccAC15cc.s:3075   .debug_str:000000000000035c .LASF196
C:\Users\stapi\AppData\Local\Temp\ccAC15cc.s:3589   .debug_str:0000000000001bf7 .LASF197
C:\Users\stapi\AppData\Local\Temp\ccAC15cc.s:3455   .debug_str:00000000000015c8 .LASF198
C:\Users\stapi\AppData\Local\Temp\ccAC15cc.s:3361   .debug_str:0000000000001073 .LASF199
C:\Users\stapi\AppData\Local\Temp\ccAC15cc.s:3313   .debug_str:0000000000000e71 .LASF200
C:\Users\stapi\AppData\Local\Temp\ccAC15cc.s:3065   .debug_str:00000000000002d5 .LASF201
C:\Users\stapi\AppData\Local\Temp\ccAC15cc.s:3197   .debug_str:00000000000008ff .LASF202
C:\Users\stapi\AppData\Local\Temp\ccAC15cc.s:3559   .debug_str:0000000000001adc .LASF203
C:\Users\stapi\AppData\Local\Temp\ccAC15cc.s:3367   .debug_str:00000000000010b2 .LASF204
C:\Users\stapi\AppData\Local\Temp\ccAC15cc.s:3275   .debug_str:0000000000000cf2 .LASF205
C:\Users\stapi\AppData\Local\Temp\ccAC15cc.s:3569   .debug_str:0000000000001b42 .LASF206
C:\Users\stapi\AppData\Local\Temp\ccAC15cc.s:3467   .debug_str:0000000000001683 .LASF207
C:\Users\stapi\AppData\Local\Temp\ccAC15cc.s:3575   .debug_str:0000000000001b77 .LASF208
C:\Users\stapi\AppData\Local\Temp\ccAC15cc.s:3353   .debug_str:0000000000001020 .LASF209
C:\Users\stapi\AppData\Local\Temp\ccAC15cc.s:3291   .debug_str:0000000000000d96 .LASF210
C:\Users\stapi\AppData\Local\Temp\ccAC15cc.s:3337   .debug_str:0000000000000f75 .LASF211
C:\Users\stapi\AppData\Local\Temp\ccAC15cc.s:3303   .debug_str:0000000000000e03 .LASF212
C:\Users\stapi\AppData\Local\Temp\ccAC15cc.s:3233   .debug_str:0000000000000ac7 .LASF213
C:\Users\stapi\AppData\Local\Temp\ccAC15cc.s:3359   .debug_str:0000000000001059 .LASF214
C:\Users\stapi\AppData\Local\Temp\ccAC15cc.s:3445   .debug_str:00000000000014e4 .LASF215
C:\Users\stapi\AppData\Local\Temp\ccAC15cc.s:3053   .debug_str:0000000000000224 .LASF216
C:\Users\stapi\AppData\Local\Temp\ccAC15cc.s:3217   .debug_str:00000000000009ec .LASF217
C:\Users\stapi\AppData\Local\Temp\ccAC15cc.s:3219   .debug_str:00000000000009fa .LASF218
C:\Users\stapi\AppData\Local\Temp\ccAC15cc.s:3311   .debug_str:0000000000000e60 .LASF219
C:\Users\stapi\AppData\Local\Temp\ccAC15cc.s:3035   .debug_str:0000000000000078 .LASF220
C:\Users\stapi\AppData\Local\Temp\ccAC15cc.s:3109   .debug_str:000000000000050e .LASF222
C:\Users\stapi\AppData\Local\Temp\ccAC15cc.s:3397   .debug_str:0000000000001283 .LASF223
C:\Users\stapi\AppData\Local\Temp\ccAC15cc.s:3557   .debug_str:0000000000001ac1 .LASF224
C:\Users\stapi\AppData\Local\Temp\ccAC15cc.s:3431   .debug_str:0000000000001440 .LASF225
C:\Users\stapi\AppData\Local\Temp\ccAC15cc.s:3399   .debug_str:000000000000129e .LASF226
C:\Users\stapi\AppData\Local\Temp\ccAC15cc.s:3383   .debug_str:000000000000115e .LASF227
C:\Users\stapi\AppData\Local\Temp\ccAC15cc.s:3363   .debug_str:0000000000001088 .LASF228
C:\Users\stapi\AppData\Local\Temp\ccAC15cc.s:3163   .debug_str:000000000000076e .LASF229
C:\Users\stapi\AppData\Local\Temp\ccAC15cc.s:3041   .debug_str:00000000000000aa .LASF230
C:\Users\stapi\AppData\Local\Temp\ccAC15cc.s:3101   .debug_str:000000000000049c .LASF231
C:\Users\stapi\AppData\Local\Temp\ccAC15cc.s:3103   .debug_str:00000000000004bf .LASF232
C:\Users\stapi\AppData\Local\Temp\ccAC15cc.s:3297   .debug_str:0000000000000dbe .LASF233
C:\Users\stapi\AppData\Local\Temp\ccAC15cc.s:3095   .debug_str:0000000000000456 .LASF234
C:\Users\stapi\AppData\Local\Temp\ccAC15cc.s:3321   .debug_str:0000000000000eb7 .LASF235
C:\Users\stapi\AppData\Local\Temp\ccAC15cc.s:3427   .debug_str:000000000000140f .LASF236
C:\Users\stapi\AppData\Local\Temp\ccAC15cc.s:3241   .debug_str:0000000000000b2c .LASF237
C:\Users\stapi\AppData\Local\Temp\ccAC15cc.s:3497   .debug_str:00000000000017a3 .LASF238
C:\Users\stapi\AppData\Local\Temp\ccAC15cc.s:3579   .debug_str:0000000000001b9f .LASF239
C:\Users\stapi\AppData\Local\Temp\ccAC15cc.s:3261   .debug_str:0000000000000c28 .LASF240
C:\Users\stapi\AppData\Local\Temp\ccAC15cc.s:3081   .debug_str:00000000000003ba .LASF241
C:\Users\stapi\AppData\Local\Temp\ccAC15cc.s:3371   .debug_str:00000000000010dc .LASF242
C:\Users\stapi\AppData\Local\Temp\ccAC15cc.s:3047   .debug_str:0000000000000110 .LASF243
C:\Users\stapi\AppData\Local\Temp\ccAC15cc.s:3299   .debug_str:0000000000000ddd .LASF244
C:\Users\stapi\AppData\Local\Temp\ccAC15cc.s:3585   .debug_str:0000000000001bd0 .LASF245
C:\Users\stapi\AppData\Local\Temp\ccAC15cc.s:3287   .debug_str:0000000000000d69 .LASF246
C:\Users\stapi\AppData\Local\Temp\ccAC15cc.s:3089   .debug_str:0000000000000420 .LASF247
C:\Users\stapi\AppData\Local\Temp\ccAC15cc.s:3037   .debug_str:0000000000000092 .LASF248
C:\Users\stapi\AppData\Local\Temp\ccAC15cc.s:3177   .debug_str:0000000000000820 .LASF249
C:\Users\stapi\AppData\Local\Temp\ccAC15cc.s:3517   .debug_str:00000000000018b3 .LASF250
C:\Users\stapi\AppData\Local\Temp\ccAC15cc.s:3159   .debug_str:0000000000000758 .LASF251
C:\Users\stapi\AppData\Local\Temp\ccAC15cc.s:3343   .debug_str:0000000000000fae .LASF252
C:\Users\stapi\AppData\Local\Temp\ccAC15cc.s:3417   .debug_str:00000000000013a6 .LASF253
C:\Users\stapi\AppData\Local\Temp\ccAC15cc.s:3279   .debug_str:0000000000000d0d .LASF254
C:\Users\stapi\AppData\Local\Temp\ccAC15cc.s:3167   .debug_str:00000000000007a1 .LASF255
C:\Users\stapi\AppData\Local\Temp\ccAC15cc.s:3185   .debug_str:000000000000088a .LASF256
C:\Users\stapi\AppData\Local\Temp\ccAC15cc.s:3403   .debug_str:00000000000012da .LASF257
C:\Users\stapi\AppData\Local\Temp\ccAC15cc.s:3223   .debug_str:0000000000000a2b .LASF258
C:\Users\stapi\AppData\Local\Temp\ccAC15cc.s:3449   .debug_str:000000000000150d .LASF259
C:\Users\stapi\AppData\Local\Temp\ccAC15cc.s:3093   .debug_str:000000000000044d .LASF260
C:\Users\stapi\AppData\Local\Temp\ccAC15cc.s:3369   .debug_str:00000000000010cc .LASF261
C:\Users\stapi\AppData\Local\Temp\ccAC15cc.s:3115   .debug_str:0000000000000564 .LASF262
C:\Users\stapi\AppData\Local\Temp\ccAC15cc.s:3147   .debug_str:00000000000006df .LASF263
C:\Users\stapi\AppData\Local\Temp\ccAC15cc.s:501    .text.dm_client_yield:0000000000000000 .LFB27
C:\Users\stapi\AppData\Local\Temp\ccAC15cc.s:518    .text.dm_client_yield:0000000000000012 .LFE27
C:\Users\stapi\AppData\Local\Temp\ccAC15cc.s:3347   .debug_str:0000000000000fe2 .LASF265
C:\Users\stapi\AppData\Local\Temp\ccAC15cc.s:2689   .debug_loc:0000000000000000 .LLST16
C:\Users\stapi\AppData\Local\Temp\ccAC15cc.s:516    .text.dm_client_yield:0000000000000012 .LVL49
C:\Users\stapi\AppData\Local\Temp\ccAC15cc.s:3189   .debug_str:00000000000008ae .LASF264
C:\Users\stapi\AppData\Local\Temp\ccAC15cc.s:415    .text.dm_client_publish:0000000000000000 .LFB26
C:\Users\stapi\AppData\Local\Temp\ccAC15cc.s:494    .text.dm_client_publish:000000000000006c .LFE26
C:\Users\stapi\AppData\Local\Temp\ccAC15cc.s:2707   .debug_loc:000000000000002c .LLST10
C:\Users\stapi\AppData\Local\Temp\ccAC15cc.s:3305   .debug_str:0000000000000e1a .LASF266
C:\Users\stapi\AppData\Local\Temp\ccAC15cc.s:2725   .debug_loc:0000000000000058 .LLST11
C:\Users\stapi\AppData\Local\Temp\ccAC15cc.s:3295   .debug_str:0000000000000db2 .LASF267
C:\Users\stapi\AppData\Local\Temp\ccAC15cc.s:2743   .debug_loc:0000000000000084 .LLST12
C:\Users\stapi\AppData\Local\Temp\ccAC15cc.s:2761   .debug_loc:00000000000000b0 .LLST13
C:\Users\stapi\AppData\Local\Temp\ccAC15cc.s:2775   .debug_loc:00000000000000d1 .LLST14
C:\Users\stapi\AppData\Local\Temp\ccAC15cc.s:3477   .debug_str:00000000000016f5 .LASF268
C:\Users\stapi\AppData\Local\Temp\ccAC15cc.s:2787   .debug_loc:00000000000000f0 .LLST15
C:\Users\stapi\AppData\Local\Temp\ccAC15cc.s:3393   .debug_str:000000000000125d .LASF269
C:\Users\stapi\AppData\Local\Temp\ccAC15cc.s:463    .text.dm_client_publish:000000000000002c .LVL42
C:\Users\stapi\AppData\Local\Temp\ccAC15cc.s:471    .text.dm_client_publish:000000000000003e .LVL44
C:\Users\stapi\AppData\Local\Temp\ccAC15cc.s:477    .text.dm_client_publish:0000000000000050 .LVL45
C:\Users\stapi\AppData\Local\Temp\ccAC15cc.s:482    .text.dm_client_publish:0000000000000060 .LVL46
C:\Users\stapi\AppData\Local\Temp\ccAC15cc.s:3483   .debug_str:0000000000001714 .LASF270
C:\Users\stapi\AppData\Local\Temp\ccAC15cc.s:354    .text.dm_client_unsubscribe:0000000000000000 .LFB25
C:\Users\stapi\AppData\Local\Temp\ccAC15cc.s:404    .text.dm_client_unsubscribe:0000000000000058 .LFE25
C:\Users\stapi\AppData\Local\Temp\ccAC15cc.s:2795   .debug_loc:0000000000000104 .LLST8
C:\Users\stapi\AppData\Local\Temp\ccAC15cc.s:2813   .debug_loc:0000000000000130 .LLST9
C:\Users\stapi\AppData\Local\Temp\ccAC15cc.s:375    .text.dm_client_unsubscribe:000000000000001a .LVL30
C:\Users\stapi\AppData\Local\Temp\ccAC15cc.s:383    .text.dm_client_unsubscribe:000000000000002c .LVL32
C:\Users\stapi\AppData\Local\Temp\ccAC15cc.s:389    .text.dm_client_unsubscribe:000000000000003e .LVL33
C:\Users\stapi\AppData\Local\Temp\ccAC15cc.s:394    .text.dm_client_unsubscribe:000000000000004e .LVL34
C:\Users\stapi\AppData\Local\Temp\ccAC15cc.s:3571   .debug_str:0000000000001b4d .LASF271
C:\Users\stapi\AppData\Local\Temp\ccAC15cc.s:242    .text.dm_client_subscribe:0000000000000000 .LFB24
C:\Users\stapi\AppData\Local\Temp\ccAC15cc.s:343    .text.dm_client_subscribe:000000000000008c .LFE24
C:\Users\stapi\AppData\Local\Temp\ccAC15cc.s:2825   .debug_loc:000000000000014f .LLST3
C:\Users\stapi\AppData\Local\Temp\ccAC15cc.s:2847   .debug_loc:0000000000000186 .LLST4
C:\Users\stapi\AppData\Local\Temp\ccAC15cc.s:2869   .debug_loc:00000000000001bd .LLST5
C:\Users\stapi\AppData\Local\Temp\ccAC15cc.s:2887   .debug_loc:00000000000001e9 .LLST6
C:\Users\stapi\AppData\Local\Temp\ccAC15cc.s:3039   .debug_str:00000000000000a0 .LASF272
C:\Users\stapi\AppData\Local\Temp\ccAC15cc.s:2904   .debug_loc:0000000000000214 .LLST7
C:\Users\stapi\AppData\Local\Temp\ccAC15cc.s:3475   .debug_str:00000000000016ea .LASF273
C:\Users\stapi\AppData\Local\Temp\ccAC15cc.s:301    .text.dm_client_subscribe:0000000000000042 .LVL21
C:\Users\stapi\AppData\Local\Temp\ccAC15cc.s:309    .text.dm_client_subscribe:0000000000000054 .LVL23
C:\Users\stapi\AppData\Local\Temp\ccAC15cc.s:315    .text.dm_client_subscribe:0000000000000066 .LVL24
C:\Users\stapi\AppData\Local\Temp\ccAC15cc.s:320    .text.dm_client_subscribe:0000000000000076 .LVL25
C:\Users\stapi\AppData\Local\Temp\ccAC15cc.s:3259   .debug_str:0000000000000c18 .LASF274
C:\Users\stapi\AppData\Local\Temp\ccAC15cc.s:198    .text.dm_client_close:0000000000000000 .LFB23
C:\Users\stapi\AppData\Local\Temp\ccAC15cc.s:231    .text.dm_client_close:0000000000000028 .LFE23
C:\Users\stapi\AppData\Local\Temp\ccAC15cc.s:215    .text.dm_client_close:000000000000001a .LVL13
C:\Users\stapi\AppData\Local\Temp\ccAC15cc.s:3079   .debug_str:00000000000003a8 .LASF275
C:\Users\stapi\AppData\Local\Temp\ccAC15cc.s:134    .text.dm_client_connect:0000000000000000 .LFB22
C:\Users\stapi\AppData\Local\Temp\ccAC15cc.s:191    .text.dm_client_connect:0000000000000042 .LFE22
C:\Users\stapi\AppData\Local\Temp\ccAC15cc.s:3317   .debug_str:0000000000000e9a .LASF276
C:\Users\stapi\AppData\Local\Temp\ccAC15cc.s:2917   .debug_loc:0000000000000234 .LLST1
C:\Users\stapi\AppData\Local\Temp\ccAC15cc.s:2940   .debug_loc:000000000000026c .LLST2
C:\Users\stapi\AppData\Local\Temp\ccAC15cc.s:166    .text.dm_client_connect:0000000000000028 .LVL9
C:\Users\stapi\AppData\Local\Temp\ccAC15cc.s:184    .text.dm_client_connect:000000000000003c .LVL11
C:\Users\stapi\AppData\Local\Temp\ccAC15cc.s:3023   .debug_str:0000000000000000 .LASF277
C:\Users\stapi\AppData\Local\Temp\ccAC15cc.s:24     .text.dm_client_open:0000000000000000 .LFB21
C:\Users\stapi\AppData\Local\Temp\ccAC15cc.s:127    .text.dm_client_open:0000000000000094 .LFE21
C:\Users\stapi\AppData\Local\Temp\ccAC15cc.s:2961   .debug_loc:00000000000002a2 .LLST0
C:\Users\stapi\AppData\Local\Temp\ccAC15cc.s:3583   .debug_str:0000000000001bc7 .LASF278
C:\Users\stapi\AppData\Local\Temp\ccAC15cc.s:89     .text.dm_client_open:0000000000000050 .LVL1
C:\Users\stapi\AppData\Local\Temp\ccAC15cc.s:102    .text.dm_client_open:0000000000000066 .LVL3
C:\Users\stapi\AppData\Local\Temp\ccAC15cc.s:108    .text.dm_client_open:0000000000000078 .LVL4
C:\Users\stapi\AppData\Local\Temp\ccAC15cc.s:113    .text.dm_client_open:0000000000000088 .LVL5
C:\Users\stapi\AppData\Local\Temp\ccAC15cc.s:3481   .debug_str:0000000000001702 .LASF290
C:\Users\stapi\AppData\Local\Temp\ccAC15cc.s:3139   .debug_str:0000000000000691 .LASF279
C:\Users\stapi\AppData\Local\Temp\ccAC15cc.s:3599   .debug_str:0000000000001ca5 .LASF280
C:\Users\stapi\AppData\Local\Temp\ccAC15cc.s:3491   .debug_str:0000000000001755 .LASF281
C:\Users\stapi\AppData\Local\Temp\ccAC15cc.s:3301   .debug_str:0000000000000df5 .LASF282
C:\Users\stapi\AppData\Local\Temp\ccAC15cc.s:3373   .debug_str:00000000000010f0 .LASF283
C:\Users\stapi\AppData\Local\Temp\ccAC15cc.s:3245   .debug_str:0000000000000b68 .LASF284
C:\Users\stapi\AppData\Local\Temp\ccAC15cc.s:3601   .debug_str:0000000000001cb1 .LASF285
C:\Users\stapi\AppData\Local\Temp\ccAC15cc.s:3509   .debug_str:0000000000001853 .LASF286
C:\Users\stapi\AppData\Local\Temp\ccAC15cc.s:504    .text.dm_client_yield:0000000000000000 .LVL47
C:\Users\stapi\AppData\Local\Temp\ccAC15cc.s:514    .text.dm_client_yield:000000000000000a .LVL48
C:\Users\stapi\AppData\Local\Temp\ccAC15cc.s:418    .text.dm_client_publish:0000000000000000 .LVL35
C:\Users\stapi\AppData\Local\Temp\ccAC15cc.s:438    .text.dm_client_publish:0000000000000014 .LVL38
C:\Users\stapi\AppData\Local\Temp\ccAC15cc.s:447    .text.dm_client_publish:000000000000001a .LVL40
C:\Users\stapi\AppData\Local\Temp\ccAC15cc.s:436    .text.dm_client_publish:0000000000000010 .LVL37
C:\Users\stapi\AppData\Local\Temp\ccAC15cc.s:444    .text.dm_client_publish:0000000000000018 .LVL39
C:\Users\stapi\AppData\Local\Temp\ccAC15cc.s:424    .text.dm_client_publish:0000000000000008 .LVL36
C:\Users\stapi\AppData\Local\Temp\ccAC15cc.s:465    .text.dm_client_publish:000000000000002e .LVL43
C:\Users\stapi\AppData\Local\Temp\ccAC15cc.s:459    .text.dm_client_publish:0000000000000024 .LVL41
C:\Users\stapi\AppData\Local\Temp\ccAC15cc.s:357    .text.dm_client_unsubscribe:0000000000000000 .LVL27
C:\Users\stapi\AppData\Local\Temp\ccAC15cc.s:373    .text.dm_client_unsubscribe:0000000000000012 .LVL29
C:\Users\stapi\AppData\Local\Temp\ccAC15cc.s:363    .text.dm_client_unsubscribe:0000000000000008 .LVL28
C:\Users\stapi\AppData\Local\Temp\ccAC15cc.s:377    .text.dm_client_unsubscribe:000000000000001c .LVL31
C:\Users\stapi\AppData\Local\Temp\ccAC15cc.s:245    .text.dm_client_subscribe:0000000000000000 .LVL14
C:\Users\stapi\AppData\Local\Temp\ccAC15cc.s:296    .text.dm_client_subscribe:0000000000000036 .LVL19
C:\Users\stapi\AppData\Local\Temp\ccAC15cc.s:333    .text.dm_client_subscribe:0000000000000086 .LVL26
C:\Users\stapi\AppData\Local\Temp\ccAC15cc.s:299    .text.dm_client_subscribe:000000000000003a .LVL20
C:\Users\stapi\AppData\Local\Temp\ccAC15cc.s:294    .text.dm_client_subscribe:0000000000000032 .LVL18
C:\Users\stapi\AppData\Local\Temp\ccAC15cc.s:251    .text.dm_client_subscribe:0000000000000008 .LVL15
C:\Users\stapi\AppData\Local\Temp\ccAC15cc.s:303    .text.dm_client_subscribe:0000000000000044 .LVL22
C:\Users\stapi\AppData\Local\Temp\ccAC15cc.s:271    .text.dm_client_subscribe:0000000000000016 .LVL16
C:\Users\stapi\AppData\Local\Temp\ccAC15cc.s:282    .text.dm_client_subscribe:0000000000000024 .LVL17
C:\Users\stapi\AppData\Local\Temp\ccAC15cc.s:137    .text.dm_client_connect:0000000000000000 .LVL6
C:\Users\stapi\AppData\Local\Temp\ccAC15cc.s:160    .text.dm_client_connect:000000000000001e .LVL8
C:\Users\stapi\AppData\Local\Temp\ccAC15cc.s:177    .text.dm_client_connect:0000000000000032 .LVL10
C:\Users\stapi\AppData\Local\Temp\ccAC15cc.s:143    .text.dm_client_connect:0000000000000008 .LVL7
C:\Users\stapi\AppData\Local\Temp\ccAC15cc.s:33     .text.dm_client_open:0000000000000008 .LVL0
C:\Users\stapi\AppData\Local\Temp\ccAC15cc.s:99     .text.dm_client_open:000000000000005a .LVL2
C:\Users\stapi\AppData\Local\Temp\ccAC15cc.s:537    .debug_info:0000000000000000 .Ldebug_info0

UNDEFINED SYMBOLS
__riscv_save_1
dm_client_event_handle
iotx_cm_open
HAL_Printf
__riscv_restore_1
iotx_cm_connect
iotx_cm_close
iotx_cm_sub
iotx_cm_unsub
iotx_cm_pub
iotx_cm_yield
