   1              		.file	"dm_client.c"
   2              		.option nopic
   3              		.attribute arch, "rv32i2p0_m2p0_a2p0_f2p0_c2p0_b_p0p94"
   4              		.attribute unaligned_access, 0
   5              		.attribute stack_align, 16
   6              		.text
   7              	.Ltext0:
   8              		.cfi_sections	.debug_frame
   9              		.section	.text.dm_client_thing_model_down_raw,"ax",@progbits
  10              		.align	1
  11              		.globl	dm_client_thing_model_down_raw
  13              	dm_client_thing_model_down_raw:
  14              	.LFB25:
  15              		.file 1 "C:/Users/stapi/OneDrive/Desktop/GD32VW553/V1_MQTT_OK/GD32VW55X_Wifi_BLE_SDK/GD32VW55x_REL
   1:C:/Users/stapi/OneDrive/Desktop/GD32VW553/V1_MQTT_OK/GD32VW55X_Wifi_BLE_SDK/GD32VW55x_RELEASE_V1.0.2/MSDK/cloud/alicloud/src/services/linkkit/dm/client\dm_client.c **** #include "iotx_dm_internal.h"
   2:C:/Users/stapi/OneDrive/Desktop/GD32VW553/V1_MQTT_OK/GD32VW55X_Wifi_BLE_SDK/GD32VW55x_RELEASE_V1.0.2/MSDK/cloud/alicloud/src/services/linkkit/dm/client\dm_client.c **** #ifdef LOG_REPORT_TO_CLOUD
   3:C:/Users/stapi/OneDrive/Desktop/GD32VW553/V1_MQTT_OK/GD32VW55X_Wifi_BLE_SDK/GD32VW55x_RELEASE_V1.0.2/MSDK/cloud/alicloud/src/services/linkkit/dm/client\dm_client.c **** #include "iot_export_linkkit.h"
   4:C:/Users/stapi/OneDrive/Desktop/GD32VW553/V1_MQTT_OK/GD32VW55X_Wifi_BLE_SDK/GD32VW55x_RELEASE_V1.0.2/MSDK/cloud/alicloud/src/services/linkkit/dm/client\dm_client.c **** #endif
   5:C:/Users/stapi/OneDrive/Desktop/GD32VW553/V1_MQTT_OK/GD32VW55X_Wifi_BLE_SDK/GD32VW55x_RELEASE_V1.0.2/MSDK/cloud/alicloud/src/services/linkkit/dm/client\dm_client.c **** 
   6:C:/Users/stapi/OneDrive/Desktop/GD32VW553/V1_MQTT_OK/GD32VW55X_Wifi_BLE_SDK/GD32VW55x_RELEASE_V1.0.2/MSDK/cloud/alicloud/src/services/linkkit/dm/client\dm_client.c **** static dm_client_uri_map_t g_dm_client_uri_map[] = {
   7:C:/Users/stapi/OneDrive/Desktop/GD32VW553/V1_MQTT_OK/GD32VW55X_Wifi_BLE_SDK/GD32VW55x_RELEASE_V1.0.2/MSDK/cloud/alicloud/src/services/linkkit/dm/client\dm_client.c **** #if !defined(DEVICE_MODEL_RAWDATA_SOLO)
   8:C:/Users/stapi/OneDrive/Desktop/GD32VW553/V1_MQTT_OK/GD32VW55X_Wifi_BLE_SDK/GD32VW55x_RELEASE_V1.0.2/MSDK/cloud/alicloud/src/services/linkkit/dm/client\dm_client.c ****     {DM_URI_THING_EVENT_POST_REPLY_WILDCARD,  DM_URI_SYS_PREFIX,         IOTX_DM_DEVICE_ALL, (void 
   9:C:/Users/stapi/OneDrive/Desktop/GD32VW553/V1_MQTT_OK/GD32VW55X_Wifi_BLE_SDK/GD32VW55x_RELEASE_V1.0.2/MSDK/cloud/alicloud/src/services/linkkit/dm/client\dm_client.c **** #ifdef LINK_VISUAL_ENABLE /* caution:  index 1~n must be LV topic */
  10:C:/Users/stapi/OneDrive/Desktop/GD32VW553/V1_MQTT_OK/GD32VW55X_Wifi_BLE_SDK/GD32VW55x_RELEASE_V1.0.2/MSDK/cloud/alicloud/src/services/linkkit/dm/client\dm_client.c ****     {DM_URI_LINK_VISUAL_WILDCARD_DOWNSTREAM,  DM_URI_SYS_PREFIX,         IOTX_DM_DEVICE_ALL,     (v
  11:C:/Users/stapi/OneDrive/Desktop/GD32VW553/V1_MQTT_OK/GD32VW55X_Wifi_BLE_SDK/GD32VW55x_RELEASE_V1.0.2/MSDK/cloud/alicloud/src/services/linkkit/dm/client\dm_client.c ****     {DM_URI_LINK_VISUAL_WILDCARD_INVOKE,      DM_URI_SYS_PREFIX,         IOTX_DM_DEVICE_ALL,     (v
  12:C:/Users/stapi/OneDrive/Desktop/GD32VW553/V1_MQTT_OK/GD32VW55X_Wifi_BLE_SDK/GD32VW55x_RELEASE_V1.0.2/MSDK/cloud/alicloud/src/services/linkkit/dm/client\dm_client.c ****     {DM_URI_LINK_VISUAL_WILDCARD_DOWNSTREAM_2,DM_URI_SYS_PREFIX,         IOTX_DM_DEVICE_ALL,     (v
  13:C:/Users/stapi/OneDrive/Desktop/GD32VW553/V1_MQTT_OK/GD32VW55X_Wifi_BLE_SDK/GD32VW55x_RELEASE_V1.0.2/MSDK/cloud/alicloud/src/services/linkkit/dm/client\dm_client.c ****     {DM_URI_LINK_VISUAL_WILDCARD_INVOKE_2,    DM_URI_SYS_PREFIX,         IOTX_DM_DEVICE_ALL,     (v
  14:C:/Users/stapi/OneDrive/Desktop/GD32VW553/V1_MQTT_OK/GD32VW55X_Wifi_BLE_SDK/GD32VW55x_RELEASE_V1.0.2/MSDK/cloud/alicloud/src/services/linkkit/dm/client\dm_client.c **** #endif
  15:C:/Users/stapi/OneDrive/Desktop/GD32VW553/V1_MQTT_OK/GD32VW55X_Wifi_BLE_SDK/GD32VW55x_RELEASE_V1.0.2/MSDK/cloud/alicloud/src/services/linkkit/dm/client\dm_client.c ****     {DM_URI_THING_SERVICE_PROPERTY_SET,       DM_URI_SYS_PREFIX,         IOTX_DM_DEVICE_ALL, (void 
  16:C:/Users/stapi/OneDrive/Desktop/GD32VW553/V1_MQTT_OK/GD32VW55X_Wifi_BLE_SDK/GD32VW55x_RELEASE_V1.0.2/MSDK/cloud/alicloud/src/services/linkkit/dm/client\dm_client.c ****     {DM_URI_THING_SERVICE_REQUEST_WILDCARD,   DM_URI_SYS_PREFIX,         IOTX_DM_DEVICE_ALL, (void 
  17:C:/Users/stapi/OneDrive/Desktop/GD32VW553/V1_MQTT_OK/GD32VW55X_Wifi_BLE_SDK/GD32VW55x_RELEASE_V1.0.2/MSDK/cloud/alicloud/src/services/linkkit/dm/client\dm_client.c ****     {DM_URI_THING_DEVICEINFO_UPDATE_REPLY,    DM_URI_SYS_PREFIX,         IOTX_DM_DEVICE_ALL, (void 
  18:C:/Users/stapi/OneDrive/Desktop/GD32VW553/V1_MQTT_OK/GD32VW55X_Wifi_BLE_SDK/GD32VW55x_RELEASE_V1.0.2/MSDK/cloud/alicloud/src/services/linkkit/dm/client\dm_client.c ****     {DM_URI_THING_DEVICEINFO_DELETE_REPLY,    DM_URI_SYS_PREFIX,         IOTX_DM_DEVICE_ALL, (void 
  19:C:/Users/stapi/OneDrive/Desktop/GD32VW553/V1_MQTT_OK/GD32VW55X_Wifi_BLE_SDK/GD32VW55x_RELEASE_V1.0.2/MSDK/cloud/alicloud/src/services/linkkit/dm/client\dm_client.c **** #endif
  20:C:/Users/stapi/OneDrive/Desktop/GD32VW553/V1_MQTT_OK/GD32VW55X_Wifi_BLE_SDK/GD32VW55x_RELEASE_V1.0.2/MSDK/cloud/alicloud/src/services/linkkit/dm/client\dm_client.c **** 
  21:C:/Users/stapi/OneDrive/Desktop/GD32VW553/V1_MQTT_OK/GD32VW55X_Wifi_BLE_SDK/GD32VW55x_RELEASE_V1.0.2/MSDK/cloud/alicloud/src/services/linkkit/dm/client\dm_client.c ****     {DM_URI_THING_EVENT_NOTIFY,               DM_URI_SYS_PREFIX,         IOTX_DM_DEVICE_ALL, (void 
  22:C:/Users/stapi/OneDrive/Desktop/GD32VW553/V1_MQTT_OK/GD32VW55X_Wifi_BLE_SDK/GD32VW55x_RELEASE_V1.0.2/MSDK/cloud/alicloud/src/services/linkkit/dm/client\dm_client.c ****     {DM_URI_RRPC_REQUEST_WILDCARD,            DM_URI_SYS_PREFIX,         IOTX_DM_DEVICE_ALL, (void 
  23:C:/Users/stapi/OneDrive/Desktop/GD32VW553/V1_MQTT_OK/GD32VW55X_Wifi_BLE_SDK/GD32VW55x_RELEASE_V1.0.2/MSDK/cloud/alicloud/src/services/linkkit/dm/client\dm_client.c ****     {DM_URI_NTP_RESPONSE,                     DM_URI_EXT_NTP_PREFIX,     IOTX_DM_DEVICE_ALL, (void 
  24:C:/Users/stapi/OneDrive/Desktop/GD32VW553/V1_MQTT_OK/GD32VW55X_Wifi_BLE_SDK/GD32VW55x_RELEASE_V1.0.2/MSDK/cloud/alicloud/src/services/linkkit/dm/client\dm_client.c ****     {NULL,                                    DM_URI_EXT_ERROR_PREFIX,   IOTX_DM_DEVICE_ALL, (void 
  25:C:/Users/stapi/OneDrive/Desktop/GD32VW553/V1_MQTT_OK/GD32VW55X_Wifi_BLE_SDK/GD32VW55x_RELEASE_V1.0.2/MSDK/cloud/alicloud/src/services/linkkit/dm/client\dm_client.c **** 
  26:C:/Users/stapi/OneDrive/Desktop/GD32VW553/V1_MQTT_OK/GD32VW55X_Wifi_BLE_SDK/GD32VW55x_RELEASE_V1.0.2/MSDK/cloud/alicloud/src/services/linkkit/dm/client\dm_client.c ****     {DM_URI_THING_MODEL_DOWN_RAW,             DM_URI_SYS_PREFIX,         IOTX_DM_DEVICE_ALL, (void 
  27:C:/Users/stapi/OneDrive/Desktop/GD32VW553/V1_MQTT_OK/GD32VW55X_Wifi_BLE_SDK/GD32VW55x_RELEASE_V1.0.2/MSDK/cloud/alicloud/src/services/linkkit/dm/client\dm_client.c ****     {DM_URI_THING_MODEL_UP_RAW_REPLY,         DM_URI_SYS_PREFIX,         IOTX_DM_DEVICE_ALL, (void 
  28:C:/Users/stapi/OneDrive/Desktop/GD32VW553/V1_MQTT_OK/GD32VW55X_Wifi_BLE_SDK/GD32VW55x_RELEASE_V1.0.2/MSDK/cloud/alicloud/src/services/linkkit/dm/client\dm_client.c **** 
  29:C:/Users/stapi/OneDrive/Desktop/GD32VW553/V1_MQTT_OK/GD32VW55X_Wifi_BLE_SDK/GD32VW55x_RELEASE_V1.0.2/MSDK/cloud/alicloud/src/services/linkkit/dm/client\dm_client.c **** #ifdef DM_UNIFIED_SERVICE_POST
  30:C:/Users/stapi/OneDrive/Desktop/GD32VW553/V1_MQTT_OK/GD32VW55X_Wifi_BLE_SDK/GD32VW55x_RELEASE_V1.0.2/MSDK/cloud/alicloud/src/services/linkkit/dm/client\dm_client.c ****     {DM_URI_UNIFIED_SERVICE_POST_REPLY,       DM_URI_SYS_PREFIX,         IOTX_DM_DEVICE_ALL, (void 
  31:C:/Users/stapi/OneDrive/Desktop/GD32VW553/V1_MQTT_OK/GD32VW55X_Wifi_BLE_SDK/GD32VW55x_RELEASE_V1.0.2/MSDK/cloud/alicloud/src/services/linkkit/dm/client\dm_client.c **** #endif
  32:C:/Users/stapi/OneDrive/Desktop/GD32VW553/V1_MQTT_OK/GD32VW55X_Wifi_BLE_SDK/GD32VW55x_RELEASE_V1.0.2/MSDK/cloud/alicloud/src/services/linkkit/dm/client\dm_client.c **** 
  33:C:/Users/stapi/OneDrive/Desktop/GD32VW553/V1_MQTT_OK/GD32VW55X_Wifi_BLE_SDK/GD32VW55x_RELEASE_V1.0.2/MSDK/cloud/alicloud/src/services/linkkit/dm/client\dm_client.c **** #ifdef DEVICE_MODEL_GATEWAY
  34:C:/Users/stapi/OneDrive/Desktop/GD32VW553/V1_MQTT_OK/GD32VW55X_Wifi_BLE_SDK/GD32VW55x_RELEASE_V1.0.2/MSDK/cloud/alicloud/src/services/linkkit/dm/client\dm_client.c ****     {DM_URI_THING_TOPO_ADD_NOTIFY,            DM_URI_SYS_PREFIX,         IOTX_DM_DEVICE_GATEWAY, (v
  35:C:/Users/stapi/OneDrive/Desktop/GD32VW553/V1_MQTT_OK/GD32VW55X_Wifi_BLE_SDK/GD32VW55x_RELEASE_V1.0.2/MSDK/cloud/alicloud/src/services/linkkit/dm/client\dm_client.c ****     {DM_URI_THING_GATEWAY_PERMIT,             DM_URI_SYS_PREFIX,         IOTX_DM_DEVICE_GATEWAY, (v
  36:C:/Users/stapi/OneDrive/Desktop/GD32VW553/V1_MQTT_OK/GD32VW55X_Wifi_BLE_SDK/GD32VW55x_RELEASE_V1.0.2/MSDK/cloud/alicloud/src/services/linkkit/dm/client\dm_client.c ****     {DM_URI_THING_SUB_REGISTER_REPLY,         DM_URI_SYS_PREFIX,         IOTX_DM_DEVICE_GATEWAY, (v
  37:C:/Users/stapi/OneDrive/Desktop/GD32VW553/V1_MQTT_OK/GD32VW55X_Wifi_BLE_SDK/GD32VW55x_RELEASE_V1.0.2/MSDK/cloud/alicloud/src/services/linkkit/dm/client\dm_client.c ****     {DM_URI_THING_SUB_UNREGISTER_REPLY,       DM_URI_SYS_PREFIX,         IOTX_DM_DEVICE_GATEWAY, (v
  38:C:/Users/stapi/OneDrive/Desktop/GD32VW553/V1_MQTT_OK/GD32VW55X_Wifi_BLE_SDK/GD32VW55x_RELEASE_V1.0.2/MSDK/cloud/alicloud/src/services/linkkit/dm/client\dm_client.c ****     {DM_URI_THING_TOPO_ADD_REPLY,             DM_URI_SYS_PREFIX,         IOTX_DM_DEVICE_GATEWAY, (v
  39:C:/Users/stapi/OneDrive/Desktop/GD32VW553/V1_MQTT_OK/GD32VW55X_Wifi_BLE_SDK/GD32VW55x_RELEASE_V1.0.2/MSDK/cloud/alicloud/src/services/linkkit/dm/client\dm_client.c ****     {DM_URI_THING_TOPO_DELETE_REPLY,          DM_URI_SYS_PREFIX,         IOTX_DM_DEVICE_GATEWAY, (v
  40:C:/Users/stapi/OneDrive/Desktop/GD32VW553/V1_MQTT_OK/GD32VW55X_Wifi_BLE_SDK/GD32VW55x_RELEASE_V1.0.2/MSDK/cloud/alicloud/src/services/linkkit/dm/client\dm_client.c ****     {DM_URI_THING_SUB_RESET_REPLY,            DM_URI_SYS_PREFIX,         IOTX_DM_DEVICE_GATEWAY, (v
  41:C:/Users/stapi/OneDrive/Desktop/GD32VW553/V1_MQTT_OK/GD32VW55X_Wifi_BLE_SDK/GD32VW55x_RELEASE_V1.0.2/MSDK/cloud/alicloud/src/services/linkkit/dm/client\dm_client.c ****     {DM_URI_THING_TOPO_GET_REPLY,             DM_URI_SYS_PREFIX,         IOTX_DM_DEVICE_GATEWAY, (v
  42:C:/Users/stapi/OneDrive/Desktop/GD32VW553/V1_MQTT_OK/GD32VW55X_Wifi_BLE_SDK/GD32VW55x_RELEASE_V1.0.2/MSDK/cloud/alicloud/src/services/linkkit/dm/client\dm_client.c ****     //{DM_URI_THING_TOPO_CHANGE,                DM_URI_SYS_PREFIX,         IOTX_DM_DEVICE_GATEWAY, 
  43:C:/Users/stapi/OneDrive/Desktop/GD32VW553/V1_MQTT_OK/GD32VW55X_Wifi_BLE_SDK/GD32VW55x_RELEASE_V1.0.2/MSDK/cloud/alicloud/src/services/linkkit/dm/client\dm_client.c ****     {DM_URI_THING_LIST_FOUND_REPLY,           DM_URI_SYS_PREFIX,         IOTX_DM_DEVICE_GATEWAY, (v
  44:C:/Users/stapi/OneDrive/Desktop/GD32VW553/V1_MQTT_OK/GD32VW55X_Wifi_BLE_SDK/GD32VW55x_RELEASE_V1.0.2/MSDK/cloud/alicloud/src/services/linkkit/dm/client\dm_client.c **** 
  45:C:/Users/stapi/OneDrive/Desktop/GD32VW553/V1_MQTT_OK/GD32VW55X_Wifi_BLE_SDK/GD32VW55x_RELEASE_V1.0.2/MSDK/cloud/alicloud/src/services/linkkit/dm/client\dm_client.c ****     {DM_URI_COMBINE_BATCH_LOGIN_REPLY,        DM_URI_EXT_SESSION_PREFIX, IOTX_DM_DEVICE_GATEWAY, (v
  46:C:/Users/stapi/OneDrive/Desktop/GD32VW553/V1_MQTT_OK/GD32VW55X_Wifi_BLE_SDK/GD32VW55x_RELEASE_V1.0.2/MSDK/cloud/alicloud/src/services/linkkit/dm/client\dm_client.c ****     {DM_URI_COMBINE_BATCH_LOGOUT_REPLY,       DM_URI_EXT_SESSION_PREFIX, IOTX_DM_DEVICE_GATEWAY, (v
  47:C:/Users/stapi/OneDrive/Desktop/GD32VW553/V1_MQTT_OK/GD32VW55X_Wifi_BLE_SDK/GD32VW55x_RELEASE_V1.0.2/MSDK/cloud/alicloud/src/services/linkkit/dm/client\dm_client.c **** 
  48:C:/Users/stapi/OneDrive/Desktop/GD32VW553/V1_MQTT_OK/GD32VW55X_Wifi_BLE_SDK/GD32VW55x_RELEASE_V1.0.2/MSDK/cloud/alicloud/src/services/linkkit/dm/client\dm_client.c ****     {DM_URI_THING_DISABLE,                    DM_URI_SYS_PREFIX,         IOTX_DM_DEVICE_GATEWAY, (v
  49:C:/Users/stapi/OneDrive/Desktop/GD32VW553/V1_MQTT_OK/GD32VW55X_Wifi_BLE_SDK/GD32VW55x_RELEASE_V1.0.2/MSDK/cloud/alicloud/src/services/linkkit/dm/client\dm_client.c ****     {DM_URI_THING_ENABLE,                     DM_URI_SYS_PREFIX,         IOTX_DM_DEVICE_GATEWAY, (v
  50:C:/Users/stapi/OneDrive/Desktop/GD32VW553/V1_MQTT_OK/GD32VW55X_Wifi_BLE_SDK/GD32VW55x_RELEASE_V1.0.2/MSDK/cloud/alicloud/src/services/linkkit/dm/client\dm_client.c ****     {DM_URI_THING_DELETE,                     DM_URI_SYS_PREFIX,         IOTX_DM_DEVICE_GATEWAY, (v
  51:C:/Users/stapi/OneDrive/Desktop/GD32VW553/V1_MQTT_OK/GD32VW55X_Wifi_BLE_SDK/GD32VW55x_RELEASE_V1.0.2/MSDK/cloud/alicloud/src/services/linkkit/dm/client\dm_client.c **** #endif
  52:C:/Users/stapi/OneDrive/Desktop/GD32VW553/V1_MQTT_OK/GD32VW55X_Wifi_BLE_SDK/GD32VW55x_RELEASE_V1.0.2/MSDK/cloud/alicloud/src/services/linkkit/dm/client\dm_client.c **** };
  53:C:/Users/stapi/OneDrive/Desktop/GD32VW553/V1_MQTT_OK/GD32VW55X_Wifi_BLE_SDK/GD32VW55x_RELEASE_V1.0.2/MSDK/cloud/alicloud/src/services/linkkit/dm/client\dm_client.c **** 
  54:C:/Users/stapi/OneDrive/Desktop/GD32VW553/V1_MQTT_OK/GD32VW55X_Wifi_BLE_SDK/GD32VW55x_RELEASE_V1.0.2/MSDK/cloud/alicloud/src/services/linkkit/dm/client\dm_client.c **** #if !defined(DEVICE_MODEL_RAWDATA_SOLO)
  55:C:/Users/stapi/OneDrive/Desktop/GD32VW553/V1_MQTT_OK/GD32VW55X_Wifi_BLE_SDK/GD32VW55x_RELEASE_V1.0.2/MSDK/cloud/alicloud/src/services/linkkit/dm/client\dm_client.c **** /* property/event post reply filter */
  56:C:/Users/stapi/OneDrive/Desktop/GD32VW553/V1_MQTT_OK/GD32VW55X_Wifi_BLE_SDK/GD32VW55x_RELEASE_V1.0.2/MSDK/cloud/alicloud/src/services/linkkit/dm/client\dm_client.c **** static int _dm_client_subscribe_filter(char *uri, iotx_cm_data_handle_cb cb)
  57:C:/Users/stapi/OneDrive/Desktop/GD32VW553/V1_MQTT_OK/GD32VW55X_Wifi_BLE_SDK/GD32VW55x_RELEASE_V1.0.2/MSDK/cloud/alicloud/src/services/linkkit/dm/client\dm_client.c **** {
  58:C:/Users/stapi/OneDrive/Desktop/GD32VW553/V1_MQTT_OK/GD32VW55X_Wifi_BLE_SDK/GD32VW55x_RELEASE_V1.0.2/MSDK/cloud/alicloud/src/services/linkkit/dm/client\dm_client.c ****     int res = 0;
  59:C:/Users/stapi/OneDrive/Desktop/GD32VW553/V1_MQTT_OK/GD32VW55X_Wifi_BLE_SDK/GD32VW55x_RELEASE_V1.0.2/MSDK/cloud/alicloud/src/services/linkkit/dm/client\dm_client.c ****     int event_post_reply_opt = 0;
  60:C:/Users/stapi/OneDrive/Desktop/GD32VW553/V1_MQTT_OK/GD32VW55X_Wifi_BLE_SDK/GD32VW55x_RELEASE_V1.0.2/MSDK/cloud/alicloud/src/services/linkkit/dm/client\dm_client.c ****     int retry_cnt = IOTX_DM_CLIENT_SUB_RETRY_MAX_COUNTS;
  61:C:/Users/stapi/OneDrive/Desktop/GD32VW553/V1_MQTT_OK/GD32VW55X_Wifi_BLE_SDK/GD32VW55x_RELEASE_V1.0.2/MSDK/cloud/alicloud/src/services/linkkit/dm/client\dm_client.c **** 
  62:C:/Users/stapi/OneDrive/Desktop/GD32VW553/V1_MQTT_OK/GD32VW55X_Wifi_BLE_SDK/GD32VW55x_RELEASE_V1.0.2/MSDK/cloud/alicloud/src/services/linkkit/dm/client\dm_client.c ****     res = dm_opt_get(DM_OPT_DOWNSTREAM_EVENT_POST_REPLY, &event_post_reply_opt);
  63:C:/Users/stapi/OneDrive/Desktop/GD32VW553/V1_MQTT_OK/GD32VW55X_Wifi_BLE_SDK/GD32VW55x_RELEASE_V1.0.2/MSDK/cloud/alicloud/src/services/linkkit/dm/client\dm_client.c ****     if (res != SUCCESS_RETURN) {
  64:C:/Users/stapi/OneDrive/Desktop/GD32VW553/V1_MQTT_OK/GD32VW55X_Wifi_BLE_SDK/GD32VW55x_RELEASE_V1.0.2/MSDK/cloud/alicloud/src/services/linkkit/dm/client\dm_client.c ****         return res;
  65:C:/Users/stapi/OneDrive/Desktop/GD32VW553/V1_MQTT_OK/GD32VW55X_Wifi_BLE_SDK/GD32VW55x_RELEASE_V1.0.2/MSDK/cloud/alicloud/src/services/linkkit/dm/client\dm_client.c ****     }
  66:C:/Users/stapi/OneDrive/Desktop/GD32VW553/V1_MQTT_OK/GD32VW55X_Wifi_BLE_SDK/GD32VW55x_RELEASE_V1.0.2/MSDK/cloud/alicloud/src/services/linkkit/dm/client\dm_client.c **** 
  67:C:/Users/stapi/OneDrive/Desktop/GD32VW553/V1_MQTT_OK/GD32VW55X_Wifi_BLE_SDK/GD32VW55x_RELEASE_V1.0.2/MSDK/cloud/alicloud/src/services/linkkit/dm/client\dm_client.c ****     if (event_post_reply_opt == 0) {
  68:C:/Users/stapi/OneDrive/Desktop/GD32VW553/V1_MQTT_OK/GD32VW55X_Wifi_BLE_SDK/GD32VW55x_RELEASE_V1.0.2/MSDK/cloud/alicloud/src/services/linkkit/dm/client\dm_client.c ****         res = dm_client_unsubscribe(uri);
  69:C:/Users/stapi/OneDrive/Desktop/GD32VW553/V1_MQTT_OK/GD32VW55X_Wifi_BLE_SDK/GD32VW55x_RELEASE_V1.0.2/MSDK/cloud/alicloud/src/services/linkkit/dm/client\dm_client.c ****         return res;
  70:C:/Users/stapi/OneDrive/Desktop/GD32VW553/V1_MQTT_OK/GD32VW55X_Wifi_BLE_SDK/GD32VW55x_RELEASE_V1.0.2/MSDK/cloud/alicloud/src/services/linkkit/dm/client\dm_client.c ****     }
  71:C:/Users/stapi/OneDrive/Desktop/GD32VW553/V1_MQTT_OK/GD32VW55X_Wifi_BLE_SDK/GD32VW55x_RELEASE_V1.0.2/MSDK/cloud/alicloud/src/services/linkkit/dm/client\dm_client.c ****     else {
  72:C:/Users/stapi/OneDrive/Desktop/GD32VW553/V1_MQTT_OK/GD32VW55X_Wifi_BLE_SDK/GD32VW55x_RELEASE_V1.0.2/MSDK/cloud/alicloud/src/services/linkkit/dm/client\dm_client.c ****         res = -1;
  73:C:/Users/stapi/OneDrive/Desktop/GD32VW553/V1_MQTT_OK/GD32VW55X_Wifi_BLE_SDK/GD32VW55x_RELEASE_V1.0.2/MSDK/cloud/alicloud/src/services/linkkit/dm/client\dm_client.c ****         while (res < SUCCESS_RETURN && retry_cnt--) {
  74:C:/Users/stapi/OneDrive/Desktop/GD32VW553/V1_MQTT_OK/GD32VW55X_Wifi_BLE_SDK/GD32VW55x_RELEASE_V1.0.2/MSDK/cloud/alicloud/src/services/linkkit/dm/client\dm_client.c ****             res = dm_client_subscribe(uri, cb, 0);
  75:C:/Users/stapi/OneDrive/Desktop/GD32VW553/V1_MQTT_OK/GD32VW55X_Wifi_BLE_SDK/GD32VW55x_RELEASE_V1.0.2/MSDK/cloud/alicloud/src/services/linkkit/dm/client\dm_client.c ****         }
  76:C:/Users/stapi/OneDrive/Desktop/GD32VW553/V1_MQTT_OK/GD32VW55X_Wifi_BLE_SDK/GD32VW55x_RELEASE_V1.0.2/MSDK/cloud/alicloud/src/services/linkkit/dm/client\dm_client.c ****         return res;
  77:C:/Users/stapi/OneDrive/Desktop/GD32VW553/V1_MQTT_OK/GD32VW55X_Wifi_BLE_SDK/GD32VW55x_RELEASE_V1.0.2/MSDK/cloud/alicloud/src/services/linkkit/dm/client\dm_client.c ****     }
  78:C:/Users/stapi/OneDrive/Desktop/GD32VW553/V1_MQTT_OK/GD32VW55X_Wifi_BLE_SDK/GD32VW55x_RELEASE_V1.0.2/MSDK/cloud/alicloud/src/services/linkkit/dm/client\dm_client.c **** }
  79:C:/Users/stapi/OneDrive/Desktop/GD32VW553/V1_MQTT_OK/GD32VW55X_Wifi_BLE_SDK/GD32VW55x_RELEASE_V1.0.2/MSDK/cloud/alicloud/src/services/linkkit/dm/client\dm_client.c **** #endif /* #if !defined(DEVICE_MODEL_RAWDATA_SOLO) */
  80:C:/Users/stapi/OneDrive/Desktop/GD32VW553/V1_MQTT_OK/GD32VW55X_Wifi_BLE_SDK/GD32VW55x_RELEASE_V1.0.2/MSDK/cloud/alicloud/src/services/linkkit/dm/client\dm_client.c **** 
  81:C:/Users/stapi/OneDrive/Desktop/GD32VW553/V1_MQTT_OK/GD32VW55X_Wifi_BLE_SDK/GD32VW55x_RELEASE_V1.0.2/MSDK/cloud/alicloud/src/services/linkkit/dm/client\dm_client.c **** int dm_client_subscribe_all(int devid, char product_key[IOTX_PRODUCT_KEY_LEN + 1], char device_name
  82:C:/Users/stapi/OneDrive/Desktop/GD32VW553/V1_MQTT_OK/GD32VW55X_Wifi_BLE_SDK/GD32VW55x_RELEASE_V1.0.2/MSDK/cloud/alicloud/src/services/linkkit/dm/client\dm_client.c ****                             int dev_type)
  83:C:/Users/stapi/OneDrive/Desktop/GD32VW553/V1_MQTT_OK/GD32VW55X_Wifi_BLE_SDK/GD32VW55x_RELEASE_V1.0.2/MSDK/cloud/alicloud/src/services/linkkit/dm/client\dm_client.c **** {
  84:C:/Users/stapi/OneDrive/Desktop/GD32VW553/V1_MQTT_OK/GD32VW55X_Wifi_BLE_SDK/GD32VW55x_RELEASE_V1.0.2/MSDK/cloud/alicloud/src/services/linkkit/dm/client\dm_client.c ****     int res = 0, index = 0;
  85:C:/Users/stapi/OneDrive/Desktop/GD32VW553/V1_MQTT_OK/GD32VW55X_Wifi_BLE_SDK/GD32VW55x_RELEASE_V1.0.2/MSDK/cloud/alicloud/src/services/linkkit/dm/client\dm_client.c ****     int number = sizeof(g_dm_client_uri_map) / sizeof(dm_client_uri_map_t);
  86:C:/Users/stapi/OneDrive/Desktop/GD32VW553/V1_MQTT_OK/GD32VW55X_Wifi_BLE_SDK/GD32VW55x_RELEASE_V1.0.2/MSDK/cloud/alicloud/src/services/linkkit/dm/client\dm_client.c ****     char *uri = NULL;
  87:C:/Users/stapi/OneDrive/Desktop/GD32VW553/V1_MQTT_OK/GD32VW55X_Wifi_BLE_SDK/GD32VW55x_RELEASE_V1.0.2/MSDK/cloud/alicloud/src/services/linkkit/dm/client\dm_client.c ****     uint8_t local_sub = 0;
  88:C:/Users/stapi/OneDrive/Desktop/GD32VW553/V1_MQTT_OK/GD32VW55X_Wifi_BLE_SDK/GD32VW55x_RELEASE_V1.0.2/MSDK/cloud/alicloud/src/services/linkkit/dm/client\dm_client.c **** 
  89:C:/Users/stapi/OneDrive/Desktop/GD32VW553/V1_MQTT_OK/GD32VW55X_Wifi_BLE_SDK/GD32VW55x_RELEASE_V1.0.2/MSDK/cloud/alicloud/src/services/linkkit/dm/client\dm_client.c **** #if !defined(DEVICE_MODEL_RAWDATA_SOLO)
  90:C:/Users/stapi/OneDrive/Desktop/GD32VW553/V1_MQTT_OK/GD32VW55X_Wifi_BLE_SDK/GD32VW55x_RELEASE_V1.0.2/MSDK/cloud/alicloud/src/services/linkkit/dm/client\dm_client.c ****     #ifndef LINK_VISUAL_ENABLE
  91:C:/Users/stapi/OneDrive/Desktop/GD32VW553/V1_MQTT_OK/GD32VW55X_Wifi_BLE_SDK/GD32VW55x_RELEASE_V1.0.2/MSDK/cloud/alicloud/src/services/linkkit/dm/client\dm_client.c ****         /* index 0 must be DM_URI_THING_EVENT_POST_REPLY_WILDCARD */
  92:C:/Users/stapi/OneDrive/Desktop/GD32VW553/V1_MQTT_OK/GD32VW55X_Wifi_BLE_SDK/GD32VW55x_RELEASE_V1.0.2/MSDK/cloud/alicloud/src/services/linkkit/dm/client\dm_client.c ****         res = dm_utils_service_name((char *)g_dm_client_uri_map[0].uri_prefix, (char *)g_dm_client_
  93:C:/Users/stapi/OneDrive/Desktop/GD32VW553/V1_MQTT_OK/GD32VW55X_Wifi_BLE_SDK/GD32VW55x_RELEASE_V1.0.2/MSDK/cloud/alicloud/src/services/linkkit/dm/client\dm_client.c ****                         product_key, device_name, &uri);
  94:C:/Users/stapi/OneDrive/Desktop/GD32VW553/V1_MQTT_OK/GD32VW55X_Wifi_BLE_SDK/GD32VW55x_RELEASE_V1.0.2/MSDK/cloud/alicloud/src/services/linkkit/dm/client\dm_client.c ****         if (res == SUCCESS_RETURN) {
  95:C:/Users/stapi/OneDrive/Desktop/GD32VW553/V1_MQTT_OK/GD32VW55X_Wifi_BLE_SDK/GD32VW55x_RELEASE_V1.0.2/MSDK/cloud/alicloud/src/services/linkkit/dm/client\dm_client.c ****             _dm_client_subscribe_filter(uri, (iotx_cm_data_handle_cb)g_dm_client_uri_map[0].callbac
  96:C:/Users/stapi/OneDrive/Desktop/GD32VW553/V1_MQTT_OK/GD32VW55X_Wifi_BLE_SDK/GD32VW55x_RELEASE_V1.0.2/MSDK/cloud/alicloud/src/services/linkkit/dm/client\dm_client.c ****             DM_free(uri);
  97:C:/Users/stapi/OneDrive/Desktop/GD32VW553/V1_MQTT_OK/GD32VW55X_Wifi_BLE_SDK/GD32VW55x_RELEASE_V1.0.2/MSDK/cloud/alicloud/src/services/linkkit/dm/client\dm_client.c ****         }
  98:C:/Users/stapi/OneDrive/Desktop/GD32VW553/V1_MQTT_OK/GD32VW55X_Wifi_BLE_SDK/GD32VW55x_RELEASE_V1.0.2/MSDK/cloud/alicloud/src/services/linkkit/dm/client\dm_client.c ****         index = 1;
  99:C:/Users/stapi/OneDrive/Desktop/GD32VW553/V1_MQTT_OK/GD32VW55X_Wifi_BLE_SDK/GD32VW55x_RELEASE_V1.0.2/MSDK/cloud/alicloud/src/services/linkkit/dm/client\dm_client.c ****     #endif
 100:C:/Users/stapi/OneDrive/Desktop/GD32VW553/V1_MQTT_OK/GD32VW55X_Wifi_BLE_SDK/GD32VW55x_RELEASE_V1.0.2/MSDK/cloud/alicloud/src/services/linkkit/dm/client\dm_client.c **** #else
 101:C:/Users/stapi/OneDrive/Desktop/GD32VW553/V1_MQTT_OK/GD32VW55X_Wifi_BLE_SDK/GD32VW55x_RELEASE_V1.0.2/MSDK/cloud/alicloud/src/services/linkkit/dm/client\dm_client.c ****     index = 0;
 102:C:/Users/stapi/OneDrive/Desktop/GD32VW553/V1_MQTT_OK/GD32VW55X_Wifi_BLE_SDK/GD32VW55x_RELEASE_V1.0.2/MSDK/cloud/alicloud/src/services/linkkit/dm/client\dm_client.c **** #endif
 103:C:/Users/stapi/OneDrive/Desktop/GD32VW553/V1_MQTT_OK/GD32VW55X_Wifi_BLE_SDK/GD32VW55x_RELEASE_V1.0.2/MSDK/cloud/alicloud/src/services/linkkit/dm/client\dm_client.c **** 
 104:C:/Users/stapi/OneDrive/Desktop/GD32VW553/V1_MQTT_OK/GD32VW55X_Wifi_BLE_SDK/GD32VW55x_RELEASE_V1.0.2/MSDK/cloud/alicloud/src/services/linkkit/dm/client\dm_client.c ****     for (; index < number; index++) {
 105:C:/Users/stapi/OneDrive/Desktop/GD32VW553/V1_MQTT_OK/GD32VW55X_Wifi_BLE_SDK/GD32VW55x_RELEASE_V1.0.2/MSDK/cloud/alicloud/src/services/linkkit/dm/client\dm_client.c ****         if ((g_dm_client_uri_map[index].dev_type & dev_type) == 0) {
 106:C:/Users/stapi/OneDrive/Desktop/GD32VW553/V1_MQTT_OK/GD32VW55X_Wifi_BLE_SDK/GD32VW55x_RELEASE_V1.0.2/MSDK/cloud/alicloud/src/services/linkkit/dm/client\dm_client.c ****             continue;
 107:C:/Users/stapi/OneDrive/Desktop/GD32VW553/V1_MQTT_OK/GD32VW55X_Wifi_BLE_SDK/GD32VW55x_RELEASE_V1.0.2/MSDK/cloud/alicloud/src/services/linkkit/dm/client\dm_client.c ****         }
 108:C:/Users/stapi/OneDrive/Desktop/GD32VW553/V1_MQTT_OK/GD32VW55X_Wifi_BLE_SDK/GD32VW55x_RELEASE_V1.0.2/MSDK/cloud/alicloud/src/services/linkkit/dm/client\dm_client.c **** 
 109:C:/Users/stapi/OneDrive/Desktop/GD32VW553/V1_MQTT_OK/GD32VW55X_Wifi_BLE_SDK/GD32VW55x_RELEASE_V1.0.2/MSDK/cloud/alicloud/src/services/linkkit/dm/client\dm_client.c **** #ifdef MQTT_AUTO_SUBSCRIBE
 110:C:/Users/stapi/OneDrive/Desktop/GD32VW553/V1_MQTT_OK/GD32VW55X_Wifi_BLE_SDK/GD32VW55x_RELEASE_V1.0.2/MSDK/cloud/alicloud/src/services/linkkit/dm/client\dm_client.c ****         res = dm_utils_service_name((char *)g_dm_client_uri_map[index].uri_prefix, (char *)g_dm_cli
 111:C:/Users/stapi/OneDrive/Desktop/GD32VW553/V1_MQTT_OK/GD32VW55X_Wifi_BLE_SDK/GD32VW55x_RELEASE_V1.0.2/MSDK/cloud/alicloud/src/services/linkkit/dm/client\dm_client.c ****                                     "+", "+", &uri);    /* plus sign wildcards used */
 112:C:/Users/stapi/OneDrive/Desktop/GD32VW553/V1_MQTT_OK/GD32VW55X_Wifi_BLE_SDK/GD32VW55x_RELEASE_V1.0.2/MSDK/cloud/alicloud/src/services/linkkit/dm/client\dm_client.c ****         if (res < SUCCESS_RETURN) {
 113:C:/Users/stapi/OneDrive/Desktop/GD32VW553/V1_MQTT_OK/GD32VW55X_Wifi_BLE_SDK/GD32VW55x_RELEASE_V1.0.2/MSDK/cloud/alicloud/src/services/linkkit/dm/client\dm_client.c ****             continue;
 114:C:/Users/stapi/OneDrive/Desktop/GD32VW553/V1_MQTT_OK/GD32VW55X_Wifi_BLE_SDK/GD32VW55x_RELEASE_V1.0.2/MSDK/cloud/alicloud/src/services/linkkit/dm/client\dm_client.c ****         }
 115:C:/Users/stapi/OneDrive/Desktop/GD32VW553/V1_MQTT_OK/GD32VW55X_Wifi_BLE_SDK/GD32VW55x_RELEASE_V1.0.2/MSDK/cloud/alicloud/src/services/linkkit/dm/client\dm_client.c **** 
 116:C:/Users/stapi/OneDrive/Desktop/GD32VW553/V1_MQTT_OK/GD32VW55X_Wifi_BLE_SDK/GD32VW55x_RELEASE_V1.0.2/MSDK/cloud/alicloud/src/services/linkkit/dm/client\dm_client.c ****         local_sub = 1;
 117:C:/Users/stapi/OneDrive/Desktop/GD32VW553/V1_MQTT_OK/GD32VW55X_Wifi_BLE_SDK/GD32VW55x_RELEASE_V1.0.2/MSDK/cloud/alicloud/src/services/linkkit/dm/client\dm_client.c ****         res = dm_client_subscribe(uri, (iotx_cm_data_handle_cb)g_dm_client_uri_map[index].callback,
 118:C:/Users/stapi/OneDrive/Desktop/GD32VW553/V1_MQTT_OK/GD32VW55X_Wifi_BLE_SDK/GD32VW55x_RELEASE_V1.0.2/MSDK/cloud/alicloud/src/services/linkkit/dm/client\dm_client.c ****         DM_free(uri);
 119:C:/Users/stapi/OneDrive/Desktop/GD32VW553/V1_MQTT_OK/GD32VW55X_Wifi_BLE_SDK/GD32VW55x_RELEASE_V1.0.2/MSDK/cloud/alicloud/src/services/linkkit/dm/client\dm_client.c **** #else
 120:C:/Users/stapi/OneDrive/Desktop/GD32VW553/V1_MQTT_OK/GD32VW55X_Wifi_BLE_SDK/GD32VW55x_RELEASE_V1.0.2/MSDK/cloud/alicloud/src/services/linkkit/dm/client\dm_client.c ****         res = dm_utils_service_name((char *)g_dm_client_uri_map[index].uri_prefix, (char *)g_dm_cli
 121:C:/Users/stapi/OneDrive/Desktop/GD32VW553/V1_MQTT_OK/GD32VW55X_Wifi_BLE_SDK/GD32VW55x_RELEASE_V1.0.2/MSDK/cloud/alicloud/src/services/linkkit/dm/client\dm_client.c ****                                     product_key, device_name, &uri);
 122:C:/Users/stapi/OneDrive/Desktop/GD32VW553/V1_MQTT_OK/GD32VW55X_Wifi_BLE_SDK/GD32VW55x_RELEASE_V1.0.2/MSDK/cloud/alicloud/src/services/linkkit/dm/client\dm_client.c ****         if (res < SUCCESS_RETURN) {
 123:C:/Users/stapi/OneDrive/Desktop/GD32VW553/V1_MQTT_OK/GD32VW55X_Wifi_BLE_SDK/GD32VW55x_RELEASE_V1.0.2/MSDK/cloud/alicloud/src/services/linkkit/dm/client\dm_client.c ****             continue;
 124:C:/Users/stapi/OneDrive/Desktop/GD32VW553/V1_MQTT_OK/GD32VW55X_Wifi_BLE_SDK/GD32VW55x_RELEASE_V1.0.2/MSDK/cloud/alicloud/src/services/linkkit/dm/client\dm_client.c ****         }
 125:C:/Users/stapi/OneDrive/Desktop/GD32VW553/V1_MQTT_OK/GD32VW55X_Wifi_BLE_SDK/GD32VW55x_RELEASE_V1.0.2/MSDK/cloud/alicloud/src/services/linkkit/dm/client\dm_client.c **** 
 126:C:/Users/stapi/OneDrive/Desktop/GD32VW553/V1_MQTT_OK/GD32VW55X_Wifi_BLE_SDK/GD32VW55x_RELEASE_V1.0.2/MSDK/cloud/alicloud/src/services/linkkit/dm/client\dm_client.c ****         {
 127:C:/Users/stapi/OneDrive/Desktop/GD32VW553/V1_MQTT_OK/GD32VW55X_Wifi_BLE_SDK/GD32VW55x_RELEASE_V1.0.2/MSDK/cloud/alicloud/src/services/linkkit/dm/client\dm_client.c ****             int retry_cnt = IOTX_DM_CLIENT_SUB_RETRY_MAX_COUNTS;
 128:C:/Users/stapi/OneDrive/Desktop/GD32VW553/V1_MQTT_OK/GD32VW55X_Wifi_BLE_SDK/GD32VW55x_RELEASE_V1.0.2/MSDK/cloud/alicloud/src/services/linkkit/dm/client\dm_client.c ****             local_sub = 0;
 129:C:/Users/stapi/OneDrive/Desktop/GD32VW553/V1_MQTT_OK/GD32VW55X_Wifi_BLE_SDK/GD32VW55x_RELEASE_V1.0.2/MSDK/cloud/alicloud/src/services/linkkit/dm/client\dm_client.c ****             do {
 130:C:/Users/stapi/OneDrive/Desktop/GD32VW553/V1_MQTT_OK/GD32VW55X_Wifi_BLE_SDK/GD32VW55x_RELEASE_V1.0.2/MSDK/cloud/alicloud/src/services/linkkit/dm/client\dm_client.c ****                 res = dm_client_subscribe(uri, (iotx_cm_data_handle_cb)g_dm_client_uri_map[index].c
 131:C:/Users/stapi/OneDrive/Desktop/GD32VW553/V1_MQTT_OK/GD32VW55X_Wifi_BLE_SDK/GD32VW55x_RELEASE_V1.0.2/MSDK/cloud/alicloud/src/services/linkkit/dm/client\dm_client.c ****             } while (res < SUCCESS_RETURN && --retry_cnt);
 132:C:/Users/stapi/OneDrive/Desktop/GD32VW553/V1_MQTT_OK/GD32VW55X_Wifi_BLE_SDK/GD32VW55x_RELEASE_V1.0.2/MSDK/cloud/alicloud/src/services/linkkit/dm/client\dm_client.c ****             DM_free(uri);
 133:C:/Users/stapi/OneDrive/Desktop/GD32VW553/V1_MQTT_OK/GD32VW55X_Wifi_BLE_SDK/GD32VW55x_RELEASE_V1.0.2/MSDK/cloud/alicloud/src/services/linkkit/dm/client\dm_client.c ****         }
 134:C:/Users/stapi/OneDrive/Desktop/GD32VW553/V1_MQTT_OK/GD32VW55X_Wifi_BLE_SDK/GD32VW55x_RELEASE_V1.0.2/MSDK/cloud/alicloud/src/services/linkkit/dm/client\dm_client.c **** #endif /*  MQTT_AUTO_SUBSCRIBE */
 135:C:/Users/stapi/OneDrive/Desktop/GD32VW553/V1_MQTT_OK/GD32VW55X_Wifi_BLE_SDK/GD32VW55x_RELEASE_V1.0.2/MSDK/cloud/alicloud/src/services/linkkit/dm/client\dm_client.c ****     }
 136:C:/Users/stapi/OneDrive/Desktop/GD32VW553/V1_MQTT_OK/GD32VW55X_Wifi_BLE_SDK/GD32VW55x_RELEASE_V1.0.2/MSDK/cloud/alicloud/src/services/linkkit/dm/client\dm_client.c **** 
 137:C:/Users/stapi/OneDrive/Desktop/GD32VW553/V1_MQTT_OK/GD32VW55X_Wifi_BLE_SDK/GD32VW55x_RELEASE_V1.0.2/MSDK/cloud/alicloud/src/services/linkkit/dm/client\dm_client.c ****     return SUCCESS_RETURN;
 138:C:/Users/stapi/OneDrive/Desktop/GD32VW553/V1_MQTT_OK/GD32VW55X_Wifi_BLE_SDK/GD32VW55x_RELEASE_V1.0.2/MSDK/cloud/alicloud/src/services/linkkit/dm/client\dm_client.c **** }
 139:C:/Users/stapi/OneDrive/Desktop/GD32VW553/V1_MQTT_OK/GD32VW55X_Wifi_BLE_SDK/GD32VW55x_RELEASE_V1.0.2/MSDK/cloud/alicloud/src/services/linkkit/dm/client\dm_client.c **** 
 140:C:/Users/stapi/OneDrive/Desktop/GD32VW553/V1_MQTT_OK/GD32VW55X_Wifi_BLE_SDK/GD32VW55x_RELEASE_V1.0.2/MSDK/cloud/alicloud/src/services/linkkit/dm/client\dm_client.c **** static void _dm_client_event_cloud_connected_handle(void)
 141:C:/Users/stapi/OneDrive/Desktop/GD32VW553/V1_MQTT_OK/GD32VW55X_Wifi_BLE_SDK/GD32VW55x_RELEASE_V1.0.2/MSDK/cloud/alicloud/src/services/linkkit/dm/client\dm_client.c **** {
 142:C:/Users/stapi/OneDrive/Desktop/GD32VW553/V1_MQTT_OK/GD32VW55X_Wifi_BLE_SDK/GD32VW55x_RELEASE_V1.0.2/MSDK/cloud/alicloud/src/services/linkkit/dm/client\dm_client.c **** #ifdef MQTT_SHADOW
 143:C:/Users/stapi/OneDrive/Desktop/GD32VW553/V1_MQTT_OK/GD32VW55X_Wifi_BLE_SDK/GD32VW55x_RELEASE_V1.0.2/MSDK/cloud/alicloud/src/services/linkkit/dm/client\dm_client.c ****     dm_shadow_connect();
 144:C:/Users/stapi/OneDrive/Desktop/GD32VW553/V1_MQTT_OK/GD32VW55X_Wifi_BLE_SDK/GD32VW55x_RELEASE_V1.0.2/MSDK/cloud/alicloud/src/services/linkkit/dm/client\dm_client.c **** #ifdef CLOUD_OFFLINE_RESET
 145:C:/Users/stapi/OneDrive/Desktop/GD32VW553/V1_MQTT_OK/GD32VW55X_Wifi_BLE_SDK/GD32VW55x_RELEASE_V1.0.2/MSDK/cloud/alicloud/src/services/linkkit/dm/client\dm_client.c ****     offline_reset_init();
 146:C:/Users/stapi/OneDrive/Desktop/GD32VW553/V1_MQTT_OK/GD32VW55X_Wifi_BLE_SDK/GD32VW55x_RELEASE_V1.0.2/MSDK/cloud/alicloud/src/services/linkkit/dm/client\dm_client.c **** #endif
 147:C:/Users/stapi/OneDrive/Desktop/GD32VW553/V1_MQTT_OK/GD32VW55X_Wifi_BLE_SDK/GD32VW55x_RELEASE_V1.0.2/MSDK/cloud/alicloud/src/services/linkkit/dm/client\dm_client.c ****     //do first time update in iotx_dm_connect as no ctx init there.
 148:C:/Users/stapi/OneDrive/Desktop/GD32VW553/V1_MQTT_OK/GD32VW55X_Wifi_BLE_SDK/GD32VW55x_RELEASE_V1.0.2/MSDK/cloud/alicloud/src/services/linkkit/dm/client\dm_client.c ****     dm_shadow_update();
 149:C:/Users/stapi/OneDrive/Desktop/GD32VW553/V1_MQTT_OK/GD32VW55X_Wifi_BLE_SDK/GD32VW55x_RELEASE_V1.0.2/MSDK/cloud/alicloud/src/services/linkkit/dm/client\dm_client.c **** #endif
 150:C:/Users/stapi/OneDrive/Desktop/GD32VW553/V1_MQTT_OK/GD32VW55X_Wifi_BLE_SDK/GD32VW55x_RELEASE_V1.0.2/MSDK/cloud/alicloud/src/services/linkkit/dm/client\dm_client.c ****     dm_log_info("IOTX_CM_EVENT_CLOUD_CONNECTED");
 151:C:/Users/stapi/OneDrive/Desktop/GD32VW553/V1_MQTT_OK/GD32VW55X_Wifi_BLE_SDK/GD32VW55x_RELEASE_V1.0.2/MSDK/cloud/alicloud/src/services/linkkit/dm/client\dm_client.c ****     dm_msg_cloud_connected();
 152:C:/Users/stapi/OneDrive/Desktop/GD32VW553/V1_MQTT_OK/GD32VW55X_Wifi_BLE_SDK/GD32VW55x_RELEASE_V1.0.2/MSDK/cloud/alicloud/src/services/linkkit/dm/client\dm_client.c **** }
 153:C:/Users/stapi/OneDrive/Desktop/GD32VW553/V1_MQTT_OK/GD32VW55X_Wifi_BLE_SDK/GD32VW55x_RELEASE_V1.0.2/MSDK/cloud/alicloud/src/services/linkkit/dm/client\dm_client.c **** 
 154:C:/Users/stapi/OneDrive/Desktop/GD32VW553/V1_MQTT_OK/GD32VW55X_Wifi_BLE_SDK/GD32VW55x_RELEASE_V1.0.2/MSDK/cloud/alicloud/src/services/linkkit/dm/client\dm_client.c **** static void _dm_client_event_cloud_disconnect_handle(void)
 155:C:/Users/stapi/OneDrive/Desktop/GD32VW553/V1_MQTT_OK/GD32VW55X_Wifi_BLE_SDK/GD32VW55x_RELEASE_V1.0.2/MSDK/cloud/alicloud/src/services/linkkit/dm/client\dm_client.c **** {
 156:C:/Users/stapi/OneDrive/Desktop/GD32VW553/V1_MQTT_OK/GD32VW55X_Wifi_BLE_SDK/GD32VW55x_RELEASE_V1.0.2/MSDK/cloud/alicloud/src/services/linkkit/dm/client\dm_client.c ****     dm_log_info("IOTX_CM_EVENT_CLOUD_DISCONNECT");
 157:C:/Users/stapi/OneDrive/Desktop/GD32VW553/V1_MQTT_OK/GD32VW55X_Wifi_BLE_SDK/GD32VW55x_RELEASE_V1.0.2/MSDK/cloud/alicloud/src/services/linkkit/dm/client\dm_client.c **** 
 158:C:/Users/stapi/OneDrive/Desktop/GD32VW553/V1_MQTT_OK/GD32VW55X_Wifi_BLE_SDK/GD32VW55x_RELEASE_V1.0.2/MSDK/cloud/alicloud/src/services/linkkit/dm/client\dm_client.c ****     dm_msg_cloud_disconnect();
 159:C:/Users/stapi/OneDrive/Desktop/GD32VW553/V1_MQTT_OK/GD32VW55X_Wifi_BLE_SDK/GD32VW55x_RELEASE_V1.0.2/MSDK/cloud/alicloud/src/services/linkkit/dm/client\dm_client.c **** }
 160:C:/Users/stapi/OneDrive/Desktop/GD32VW553/V1_MQTT_OK/GD32VW55X_Wifi_BLE_SDK/GD32VW55x_RELEASE_V1.0.2/MSDK/cloud/alicloud/src/services/linkkit/dm/client\dm_client.c **** 
 161:C:/Users/stapi/OneDrive/Desktop/GD32VW553/V1_MQTT_OK/GD32VW55X_Wifi_BLE_SDK/GD32VW55x_RELEASE_V1.0.2/MSDK/cloud/alicloud/src/services/linkkit/dm/client\dm_client.c **** void dm_client_event_handle(int fd, iotx_cm_event_msg_t *event, void *context)
 162:C:/Users/stapi/OneDrive/Desktop/GD32VW553/V1_MQTT_OK/GD32VW55X_Wifi_BLE_SDK/GD32VW55x_RELEASE_V1.0.2/MSDK/cloud/alicloud/src/services/linkkit/dm/client\dm_client.c **** {
 163:C:/Users/stapi/OneDrive/Desktop/GD32VW553/V1_MQTT_OK/GD32VW55X_Wifi_BLE_SDK/GD32VW55x_RELEASE_V1.0.2/MSDK/cloud/alicloud/src/services/linkkit/dm/client\dm_client.c ****     switch (event->type) {
 164:C:/Users/stapi/OneDrive/Desktop/GD32VW553/V1_MQTT_OK/GD32VW55X_Wifi_BLE_SDK/GD32VW55x_RELEASE_V1.0.2/MSDK/cloud/alicloud/src/services/linkkit/dm/client\dm_client.c ****         case IOTX_CM_EVENT_CLOUD_CONNECTED: {
 165:C:/Users/stapi/OneDrive/Desktop/GD32VW553/V1_MQTT_OK/GD32VW55X_Wifi_BLE_SDK/GD32VW55x_RELEASE_V1.0.2/MSDK/cloud/alicloud/src/services/linkkit/dm/client\dm_client.c ****             _dm_client_event_cloud_connected_handle();
 166:C:/Users/stapi/OneDrive/Desktop/GD32VW553/V1_MQTT_OK/GD32VW55X_Wifi_BLE_SDK/GD32VW55x_RELEASE_V1.0.2/MSDK/cloud/alicloud/src/services/linkkit/dm/client\dm_client.c ****         }
 167:C:/Users/stapi/OneDrive/Desktop/GD32VW553/V1_MQTT_OK/GD32VW55X_Wifi_BLE_SDK/GD32VW55x_RELEASE_V1.0.2/MSDK/cloud/alicloud/src/services/linkkit/dm/client\dm_client.c ****         break;
 168:C:/Users/stapi/OneDrive/Desktop/GD32VW553/V1_MQTT_OK/GD32VW55X_Wifi_BLE_SDK/GD32VW55x_RELEASE_V1.0.2/MSDK/cloud/alicloud/src/services/linkkit/dm/client\dm_client.c ****         case IOTX_CM_EVENT_CLOUD_CONNECT_FAILED: {
 169:C:/Users/stapi/OneDrive/Desktop/GD32VW553/V1_MQTT_OK/GD32VW55X_Wifi_BLE_SDK/GD32VW55x_RELEASE_V1.0.2/MSDK/cloud/alicloud/src/services/linkkit/dm/client\dm_client.c **** 
 170:C:/Users/stapi/OneDrive/Desktop/GD32VW553/V1_MQTT_OK/GD32VW55X_Wifi_BLE_SDK/GD32VW55x_RELEASE_V1.0.2/MSDK/cloud/alicloud/src/services/linkkit/dm/client\dm_client.c ****         }
 171:C:/Users/stapi/OneDrive/Desktop/GD32VW553/V1_MQTT_OK/GD32VW55X_Wifi_BLE_SDK/GD32VW55x_RELEASE_V1.0.2/MSDK/cloud/alicloud/src/services/linkkit/dm/client\dm_client.c ****         break;
 172:C:/Users/stapi/OneDrive/Desktop/GD32VW553/V1_MQTT_OK/GD32VW55X_Wifi_BLE_SDK/GD32VW55x_RELEASE_V1.0.2/MSDK/cloud/alicloud/src/services/linkkit/dm/client\dm_client.c ****         case IOTX_CM_EVENT_CLOUD_DISCONNECT: {
 173:C:/Users/stapi/OneDrive/Desktop/GD32VW553/V1_MQTT_OK/GD32VW55X_Wifi_BLE_SDK/GD32VW55x_RELEASE_V1.0.2/MSDK/cloud/alicloud/src/services/linkkit/dm/client\dm_client.c ****             _dm_client_event_cloud_disconnect_handle();
 174:C:/Users/stapi/OneDrive/Desktop/GD32VW553/V1_MQTT_OK/GD32VW55X_Wifi_BLE_SDK/GD32VW55x_RELEASE_V1.0.2/MSDK/cloud/alicloud/src/services/linkkit/dm/client\dm_client.c ****         }
 175:C:/Users/stapi/OneDrive/Desktop/GD32VW553/V1_MQTT_OK/GD32VW55X_Wifi_BLE_SDK/GD32VW55x_RELEASE_V1.0.2/MSDK/cloud/alicloud/src/services/linkkit/dm/client\dm_client.c ****         break;
 176:C:/Users/stapi/OneDrive/Desktop/GD32VW553/V1_MQTT_OK/GD32VW55X_Wifi_BLE_SDK/GD32VW55x_RELEASE_V1.0.2/MSDK/cloud/alicloud/src/services/linkkit/dm/client\dm_client.c ****         default:
 177:C:/Users/stapi/OneDrive/Desktop/GD32VW553/V1_MQTT_OK/GD32VW55X_Wifi_BLE_SDK/GD32VW55x_RELEASE_V1.0.2/MSDK/cloud/alicloud/src/services/linkkit/dm/client\dm_client.c ****             break;
 178:C:/Users/stapi/OneDrive/Desktop/GD32VW553/V1_MQTT_OK/GD32VW55X_Wifi_BLE_SDK/GD32VW55x_RELEASE_V1.0.2/MSDK/cloud/alicloud/src/services/linkkit/dm/client\dm_client.c ****     }
 179:C:/Users/stapi/OneDrive/Desktop/GD32VW553/V1_MQTT_OK/GD32VW55X_Wifi_BLE_SDK/GD32VW55x_RELEASE_V1.0.2/MSDK/cloud/alicloud/src/services/linkkit/dm/client\dm_client.c **** }
 180:C:/Users/stapi/OneDrive/Desktop/GD32VW553/V1_MQTT_OK/GD32VW55X_Wifi_BLE_SDK/GD32VW55x_RELEASE_V1.0.2/MSDK/cloud/alicloud/src/services/linkkit/dm/client\dm_client.c **** 
 181:C:/Users/stapi/OneDrive/Desktop/GD32VW553/V1_MQTT_OK/GD32VW55X_Wifi_BLE_SDK/GD32VW55x_RELEASE_V1.0.2/MSDK/cloud/alicloud/src/services/linkkit/dm/client\dm_client.c **** void dm_client_thing_model_down_raw(int fd, const char *topic, const char *payload, unsigned int pa
 182:C:/Users/stapi/OneDrive/Desktop/GD32VW553/V1_MQTT_OK/GD32VW55X_Wifi_BLE_SDK/GD32VW55x_RELEASE_V1.0.2/MSDK/cloud/alicloud/src/services/linkkit/dm/client\dm_client.c ****                                     void *context)
 183:C:/Users/stapi/OneDrive/Desktop/GD32VW553/V1_MQTT_OK/GD32VW55X_Wifi_BLE_SDK/GD32VW55x_RELEASE_V1.0.2/MSDK/cloud/alicloud/src/services/linkkit/dm/client\dm_client.c **** {
  16              		.loc 1 183 1
  17              		.cfi_startproc
  18              	.LVL0:
  19 0000 17030000 		call	t0,__riscv_save_0
  19      E7020300 
  20              		.cfi_offset 1, -4
  21              		.cfi_def_cfa_offset 16
 184:C:/Users/stapi/OneDrive/Desktop/GD32VW553/V1_MQTT_OK/GD32VW55X_Wifi_BLE_SDK/GD32VW55x_RELEASE_V1.0.2/MSDK/cloud/alicloud/src/services/linkkit/dm/client\dm_client.c ****     dm_msg_source_t source;
  22              		.loc 1 184 5
 185:C:/Users/stapi/OneDrive/Desktop/GD32VW553/V1_MQTT_OK/GD32VW55X_Wifi_BLE_SDK/GD32VW55x_RELEASE_V1.0.2/MSDK/cloud/alicloud/src/services/linkkit/dm/client\dm_client.c **** 
 186:C:/Users/stapi/OneDrive/Desktop/GD32VW553/V1_MQTT_OK/GD32VW55X_Wifi_BLE_SDK/GD32VW55x_RELEASE_V1.0.2/MSDK/cloud/alicloud/src/services/linkkit/dm/client\dm_client.c ****     memset(&source, 0, sizeof(dm_msg_source_t));
  23              		.loc 1 186 5
 183:C:/Users/stapi/OneDrive/Desktop/GD32VW553/V1_MQTT_OK/GD32VW55X_Wifi_BLE_SDK/GD32VW55x_RELEASE_V1.0.2/MSDK/cloud/alicloud/src/services/linkkit/dm/client\dm_client.c ****     dm_msg_source_t source;
  24              		.loc 1 183 1 is_stmt 0
  25 0008 4111     		addi	sp,sp,-16
  26              		.cfi_def_cfa_offset 32
 187:C:/Users/stapi/OneDrive/Desktop/GD32VW553/V1_MQTT_OK/GD32VW55X_Wifi_BLE_SDK/GD32VW55x_RELEASE_V1.0.2/MSDK/cloud/alicloud/src/services/linkkit/dm/client\dm_client.c **** 
 188:C:/Users/stapi/OneDrive/Desktop/GD32VW553/V1_MQTT_OK/GD32VW55X_Wifi_BLE_SDK/GD32VW55x_RELEASE_V1.0.2/MSDK/cloud/alicloud/src/services/linkkit/dm/client\dm_client.c ****     source.uri = topic;
 189:C:/Users/stapi/OneDrive/Desktop/GD32VW553/V1_MQTT_OK/GD32VW55X_Wifi_BLE_SDK/GD32VW55x_RELEASE_V1.0.2/MSDK/cloud/alicloud/src/services/linkkit/dm/client\dm_client.c ****     source.payload = (unsigned char *)payload;
 190:C:/Users/stapi/OneDrive/Desktop/GD32VW553/V1_MQTT_OK/GD32VW55X_Wifi_BLE_SDK/GD32VW55x_RELEASE_V1.0.2/MSDK/cloud/alicloud/src/services/linkkit/dm/client\dm_client.c ****     source.payload_len = payload_len;
 191:C:/Users/stapi/OneDrive/Desktop/GD32VW553/V1_MQTT_OK/GD32VW55X_Wifi_BLE_SDK/GD32VW55x_RELEASE_V1.0.2/MSDK/cloud/alicloud/src/services/linkkit/dm/client\dm_client.c ****     source.context = NULL;
 192:C:/Users/stapi/OneDrive/Desktop/GD32VW553/V1_MQTT_OK/GD32VW55X_Wifi_BLE_SDK/GD32VW55x_RELEASE_V1.0.2/MSDK/cloud/alicloud/src/services/linkkit/dm/client\dm_client.c **** 
 193:C:/Users/stapi/OneDrive/Desktop/GD32VW553/V1_MQTT_OK/GD32VW55X_Wifi_BLE_SDK/GD32VW55x_RELEASE_V1.0.2/MSDK/cloud/alicloud/src/services/linkkit/dm/client\dm_client.c ****     dm_msg_proc_thing_model_down_raw(&source);
  27              		.loc 1 193 5
  28 000a 0A85     		mv	a0,sp
  29              	.LVL1:
 188:C:/Users/stapi/OneDrive/Desktop/GD32VW553/V1_MQTT_OK/GD32VW55X_Wifi_BLE_SDK/GD32VW55x_RELEASE_V1.0.2/MSDK/cloud/alicloud/src/services/linkkit/dm/client\dm_client.c ****     source.payload = (unsigned char *)payload;
  30              		.loc 1 188 16
  31 000c 2EC0     		sw	a1,0(sp)
 189:C:/Users/stapi/OneDrive/Desktop/GD32VW553/V1_MQTT_OK/GD32VW55X_Wifi_BLE_SDK/GD32VW55x_RELEASE_V1.0.2/MSDK/cloud/alicloud/src/services/linkkit/dm/client\dm_client.c ****     source.payload_len = payload_len;
  32              		.loc 1 189 20
  33 000e 32C2     		sw	a2,4(sp)
 190:C:/Users/stapi/OneDrive/Desktop/GD32VW553/V1_MQTT_OK/GD32VW55X_Wifi_BLE_SDK/GD32VW55x_RELEASE_V1.0.2/MSDK/cloud/alicloud/src/services/linkkit/dm/client\dm_client.c ****     source.context = NULL;
  34              		.loc 1 190 24
  35 0010 36C4     		sw	a3,8(sp)
 186:C:/Users/stapi/OneDrive/Desktop/GD32VW553/V1_MQTT_OK/GD32VW55X_Wifi_BLE_SDK/GD32VW55x_RELEASE_V1.0.2/MSDK/cloud/alicloud/src/services/linkkit/dm/client\dm_client.c **** 
  36              		.loc 1 186 5
  37 0012 02C6     		sw	zero,12(sp)
 188:C:/Users/stapi/OneDrive/Desktop/GD32VW553/V1_MQTT_OK/GD32VW55X_Wifi_BLE_SDK/GD32VW55x_RELEASE_V1.0.2/MSDK/cloud/alicloud/src/services/linkkit/dm/client\dm_client.c ****     source.payload = (unsigned char *)payload;
  38              		.loc 1 188 5 is_stmt 1
 189:C:/Users/stapi/OneDrive/Desktop/GD32VW553/V1_MQTT_OK/GD32VW55X_Wifi_BLE_SDK/GD32VW55x_RELEASE_V1.0.2/MSDK/cloud/alicloud/src/services/linkkit/dm/client\dm_client.c ****     source.payload_len = payload_len;
  39              		.loc 1 189 5
 190:C:/Users/stapi/OneDrive/Desktop/GD32VW553/V1_MQTT_OK/GD32VW55X_Wifi_BLE_SDK/GD32VW55x_RELEASE_V1.0.2/MSDK/cloud/alicloud/src/services/linkkit/dm/client\dm_client.c ****     source.context = NULL;
  40              		.loc 1 190 5
 191:C:/Users/stapi/OneDrive/Desktop/GD32VW553/V1_MQTT_OK/GD32VW55X_Wifi_BLE_SDK/GD32VW55x_RELEASE_V1.0.2/MSDK/cloud/alicloud/src/services/linkkit/dm/client\dm_client.c **** 
  41              		.loc 1 191 5
  42              		.loc 1 193 5
  43 0014 97000000 		call	dm_msg_proc_thing_model_down_raw
  43      E7800000 
  44              	.LVL2:
 194:C:/Users/stapi/OneDrive/Desktop/GD32VW553/V1_MQTT_OK/GD32VW55X_Wifi_BLE_SDK/GD32VW55x_RELEASE_V1.0.2/MSDK/cloud/alicloud/src/services/linkkit/dm/client\dm_client.c **** }
  45              		.loc 1 194 1 is_stmt 0
  46 001c 4101     		addi	sp,sp,16
  47              		.cfi_def_cfa_offset 0
  48 001e 17030000 		tail	__riscv_restore_0
  48      67000300 
  49              		.cfi_restore 1
  50              		.cfi_def_cfa_offset -16
  51              		.cfi_endproc
  52              	.LFE25:
  54              		.section	.text.dm_client_thing_model_up_raw_reply,"ax",@progbits
  55              		.align	1
  56              		.globl	dm_client_thing_model_up_raw_reply
  58              	dm_client_thing_model_up_raw_reply:
  59              	.LFB26:
 195:C:/Users/stapi/OneDrive/Desktop/GD32VW553/V1_MQTT_OK/GD32VW55X_Wifi_BLE_SDK/GD32VW55x_RELEASE_V1.0.2/MSDK/cloud/alicloud/src/services/linkkit/dm/client\dm_client.c **** 
 196:C:/Users/stapi/OneDrive/Desktop/GD32VW553/V1_MQTT_OK/GD32VW55X_Wifi_BLE_SDK/GD32VW55x_RELEASE_V1.0.2/MSDK/cloud/alicloud/src/services/linkkit/dm/client\dm_client.c **** void dm_client_thing_model_up_raw_reply(int fd, const char *topic, const char *payload, unsigned in
 197:C:/Users/stapi/OneDrive/Desktop/GD32VW553/V1_MQTT_OK/GD32VW55X_Wifi_BLE_SDK/GD32VW55x_RELEASE_V1.0.2/MSDK/cloud/alicloud/src/services/linkkit/dm/client\dm_client.c ****                                         void *context)
 198:C:/Users/stapi/OneDrive/Desktop/GD32VW553/V1_MQTT_OK/GD32VW55X_Wifi_BLE_SDK/GD32VW55x_RELEASE_V1.0.2/MSDK/cloud/alicloud/src/services/linkkit/dm/client\dm_client.c **** {
  60              		.loc 1 198 1 is_stmt 1
  61              		.cfi_startproc
  62              	.LVL3:
  63 0000 17030000 		call	t0,__riscv_save_0
  63      E7020300 
  64              		.cfi_offset 1, -4
  65              		.cfi_def_cfa_offset 16
 199:C:/Users/stapi/OneDrive/Desktop/GD32VW553/V1_MQTT_OK/GD32VW55X_Wifi_BLE_SDK/GD32VW55x_RELEASE_V1.0.2/MSDK/cloud/alicloud/src/services/linkkit/dm/client\dm_client.c ****     dm_msg_source_t source;
  66              		.loc 1 199 5
 200:C:/Users/stapi/OneDrive/Desktop/GD32VW553/V1_MQTT_OK/GD32VW55X_Wifi_BLE_SDK/GD32VW55x_RELEASE_V1.0.2/MSDK/cloud/alicloud/src/services/linkkit/dm/client\dm_client.c **** 
 201:C:/Users/stapi/OneDrive/Desktop/GD32VW553/V1_MQTT_OK/GD32VW55X_Wifi_BLE_SDK/GD32VW55x_RELEASE_V1.0.2/MSDK/cloud/alicloud/src/services/linkkit/dm/client\dm_client.c ****     memset(&source, 0, sizeof(dm_msg_source_t));
  67              		.loc 1 201 5
 198:C:/Users/stapi/OneDrive/Desktop/GD32VW553/V1_MQTT_OK/GD32VW55X_Wifi_BLE_SDK/GD32VW55x_RELEASE_V1.0.2/MSDK/cloud/alicloud/src/services/linkkit/dm/client\dm_client.c ****     dm_msg_source_t source;
  68              		.loc 1 198 1 is_stmt 0
  69 0008 4111     		addi	sp,sp,-16
  70              		.cfi_def_cfa_offset 32
 202:C:/Users/stapi/OneDrive/Desktop/GD32VW553/V1_MQTT_OK/GD32VW55X_Wifi_BLE_SDK/GD32VW55x_RELEASE_V1.0.2/MSDK/cloud/alicloud/src/services/linkkit/dm/client\dm_client.c **** 
 203:C:/Users/stapi/OneDrive/Desktop/GD32VW553/V1_MQTT_OK/GD32VW55X_Wifi_BLE_SDK/GD32VW55x_RELEASE_V1.0.2/MSDK/cloud/alicloud/src/services/linkkit/dm/client\dm_client.c ****     source.uri = topic;
 204:C:/Users/stapi/OneDrive/Desktop/GD32VW553/V1_MQTT_OK/GD32VW55X_Wifi_BLE_SDK/GD32VW55x_RELEASE_V1.0.2/MSDK/cloud/alicloud/src/services/linkkit/dm/client\dm_client.c ****     source.payload = (unsigned char *)payload;
 205:C:/Users/stapi/OneDrive/Desktop/GD32VW553/V1_MQTT_OK/GD32VW55X_Wifi_BLE_SDK/GD32VW55x_RELEASE_V1.0.2/MSDK/cloud/alicloud/src/services/linkkit/dm/client\dm_client.c ****     source.payload_len = payload_len;
 206:C:/Users/stapi/OneDrive/Desktop/GD32VW553/V1_MQTT_OK/GD32VW55X_Wifi_BLE_SDK/GD32VW55x_RELEASE_V1.0.2/MSDK/cloud/alicloud/src/services/linkkit/dm/client\dm_client.c ****     source.context = NULL;
 207:C:/Users/stapi/OneDrive/Desktop/GD32VW553/V1_MQTT_OK/GD32VW55X_Wifi_BLE_SDK/GD32VW55x_RELEASE_V1.0.2/MSDK/cloud/alicloud/src/services/linkkit/dm/client\dm_client.c **** 
 208:C:/Users/stapi/OneDrive/Desktop/GD32VW553/V1_MQTT_OK/GD32VW55X_Wifi_BLE_SDK/GD32VW55x_RELEASE_V1.0.2/MSDK/cloud/alicloud/src/services/linkkit/dm/client\dm_client.c ****     dm_msg_proc_thing_model_up_raw_reply(&source);
  71              		.loc 1 208 5
  72 000a 0A85     		mv	a0,sp
  73              	.LVL4:
 203:C:/Users/stapi/OneDrive/Desktop/GD32VW553/V1_MQTT_OK/GD32VW55X_Wifi_BLE_SDK/GD32VW55x_RELEASE_V1.0.2/MSDK/cloud/alicloud/src/services/linkkit/dm/client\dm_client.c ****     source.payload = (unsigned char *)payload;
  74              		.loc 1 203 16
  75 000c 2EC0     		sw	a1,0(sp)
 204:C:/Users/stapi/OneDrive/Desktop/GD32VW553/V1_MQTT_OK/GD32VW55X_Wifi_BLE_SDK/GD32VW55x_RELEASE_V1.0.2/MSDK/cloud/alicloud/src/services/linkkit/dm/client\dm_client.c ****     source.payload_len = payload_len;
  76              		.loc 1 204 20
  77 000e 32C2     		sw	a2,4(sp)
 205:C:/Users/stapi/OneDrive/Desktop/GD32VW553/V1_MQTT_OK/GD32VW55X_Wifi_BLE_SDK/GD32VW55x_RELEASE_V1.0.2/MSDK/cloud/alicloud/src/services/linkkit/dm/client\dm_client.c ****     source.context = NULL;
  78              		.loc 1 205 24
  79 0010 36C4     		sw	a3,8(sp)
 201:C:/Users/stapi/OneDrive/Desktop/GD32VW553/V1_MQTT_OK/GD32VW55X_Wifi_BLE_SDK/GD32VW55x_RELEASE_V1.0.2/MSDK/cloud/alicloud/src/services/linkkit/dm/client\dm_client.c **** 
  80              		.loc 1 201 5
  81 0012 02C6     		sw	zero,12(sp)
 203:C:/Users/stapi/OneDrive/Desktop/GD32VW553/V1_MQTT_OK/GD32VW55X_Wifi_BLE_SDK/GD32VW55x_RELEASE_V1.0.2/MSDK/cloud/alicloud/src/services/linkkit/dm/client\dm_client.c ****     source.payload = (unsigned char *)payload;
  82              		.loc 1 203 5 is_stmt 1
 204:C:/Users/stapi/OneDrive/Desktop/GD32VW553/V1_MQTT_OK/GD32VW55X_Wifi_BLE_SDK/GD32VW55x_RELEASE_V1.0.2/MSDK/cloud/alicloud/src/services/linkkit/dm/client\dm_client.c ****     source.payload_len = payload_len;
  83              		.loc 1 204 5
 205:C:/Users/stapi/OneDrive/Desktop/GD32VW553/V1_MQTT_OK/GD32VW55X_Wifi_BLE_SDK/GD32VW55x_RELEASE_V1.0.2/MSDK/cloud/alicloud/src/services/linkkit/dm/client\dm_client.c ****     source.context = NULL;
  84              		.loc 1 205 5
 206:C:/Users/stapi/OneDrive/Desktop/GD32VW553/V1_MQTT_OK/GD32VW55X_Wifi_BLE_SDK/GD32VW55x_RELEASE_V1.0.2/MSDK/cloud/alicloud/src/services/linkkit/dm/client\dm_client.c **** 
  85              		.loc 1 206 5
  86              		.loc 1 208 5
  87 0014 97000000 		call	dm_msg_proc_thing_model_up_raw_reply
  87      E7800000 
  88              	.LVL5:
 209:C:/Users/stapi/OneDrive/Desktop/GD32VW553/V1_MQTT_OK/GD32VW55X_Wifi_BLE_SDK/GD32VW55x_RELEASE_V1.0.2/MSDK/cloud/alicloud/src/services/linkkit/dm/client\dm_client.c **** }
  89              		.loc 1 209 1 is_stmt 0
  90 001c 4101     		addi	sp,sp,16
  91              		.cfi_def_cfa_offset 0
  92 001e 17030000 		tail	__riscv_restore_0
  92      67000300 
  93              		.cfi_restore 1
  94              		.cfi_def_cfa_offset -16
  95              		.cfi_endproc
  96              	.LFE26:
  98              		.section	.rodata.dm_client_thing_service_property_set.str1.4,"aMS",@progbits,1
  99              		.align	2
 100              	.LC0:
 101 0000 7B7D00   		.string	"{}"
 102              		.section	.text.dm_client_thing_service_property_set,"ax",@progbits
 103              		.align	1
 104              		.globl	dm_client_thing_service_property_set
 106              	dm_client_thing_service_property_set:
 107              	.LFB27:
 210:C:/Users/stapi/OneDrive/Desktop/GD32VW553/V1_MQTT_OK/GD32VW55X_Wifi_BLE_SDK/GD32VW55x_RELEASE_V1.0.2/MSDK/cloud/alicloud/src/services/linkkit/dm/client\dm_client.c **** 
 211:C:/Users/stapi/OneDrive/Desktop/GD32VW553/V1_MQTT_OK/GD32VW55X_Wifi_BLE_SDK/GD32VW55x_RELEASE_V1.0.2/MSDK/cloud/alicloud/src/services/linkkit/dm/client\dm_client.c **** #if !defined(DEVICE_MODEL_RAWDATA_SOLO)
 212:C:/Users/stapi/OneDrive/Desktop/GD32VW553/V1_MQTT_OK/GD32VW55X_Wifi_BLE_SDK/GD32VW55x_RELEASE_V1.0.2/MSDK/cloud/alicloud/src/services/linkkit/dm/client\dm_client.c **** void dm_client_thing_service_property_set(int fd, const char *topic, const char *payload, unsigned 
 213:C:/Users/stapi/OneDrive/Desktop/GD32VW553/V1_MQTT_OK/GD32VW55X_Wifi_BLE_SDK/GD32VW55x_RELEASE_V1.0.2/MSDK/cloud/alicloud/src/services/linkkit/dm/client\dm_client.c ****         void *context)
 214:C:/Users/stapi/OneDrive/Desktop/GD32VW553/V1_MQTT_OK/GD32VW55X_Wifi_BLE_SDK/GD32VW55x_RELEASE_V1.0.2/MSDK/cloud/alicloud/src/services/linkkit/dm/client\dm_client.c **** {
 108              		.loc 1 214 1 is_stmt 1
 109              		.cfi_startproc
 110              	.LVL6:
 111 0000 17030000 		call	t0,__riscv_save_3
 111      E7020300 
 112              		.cfi_offset 18, -16
 113              		.cfi_offset 9, -12
 114              		.cfi_offset 8, -8
 115              		.cfi_offset 1, -4
 116              		.cfi_def_cfa_offset 16
 215:C:/Users/stapi/OneDrive/Desktop/GD32VW553/V1_MQTT_OK/GD32VW55X_Wifi_BLE_SDK/GD32VW55x_RELEASE_V1.0.2/MSDK/cloud/alicloud/src/services/linkkit/dm/client\dm_client.c ****     int res = 0;
 117              		.loc 1 215 5
 118              	.LVL7:
 216:C:/Users/stapi/OneDrive/Desktop/GD32VW553/V1_MQTT_OK/GD32VW55X_Wifi_BLE_SDK/GD32VW55x_RELEASE_V1.0.2/MSDK/cloud/alicloud/src/services/linkkit/dm/client\dm_client.c ****     dm_msg_source_t source;
 119              		.loc 1 216 5
 217:C:/Users/stapi/OneDrive/Desktop/GD32VW553/V1_MQTT_OK/GD32VW55X_Wifi_BLE_SDK/GD32VW55x_RELEASE_V1.0.2/MSDK/cloud/alicloud/src/services/linkkit/dm/client\dm_client.c ****     dm_msg_dest_t dest;
 120              		.loc 1 217 5
 218:C:/Users/stapi/OneDrive/Desktop/GD32VW553/V1_MQTT_OK/GD32VW55X_Wifi_BLE_SDK/GD32VW55x_RELEASE_V1.0.2/MSDK/cloud/alicloud/src/services/linkkit/dm/client\dm_client.c ****     dm_msg_request_payload_t request;
 121              		.loc 1 218 5
 219:C:/Users/stapi/OneDrive/Desktop/GD32VW553/V1_MQTT_OK/GD32VW55X_Wifi_BLE_SDK/GD32VW55x_RELEASE_V1.0.2/MSDK/cloud/alicloud/src/services/linkkit/dm/client\dm_client.c ****     dm_msg_response_t response;
 122              		.loc 1 219 5
 220:C:/Users/stapi/OneDrive/Desktop/GD32VW553/V1_MQTT_OK/GD32VW55X_Wifi_BLE_SDK/GD32VW55x_RELEASE_V1.0.2/MSDK/cloud/alicloud/src/services/linkkit/dm/client\dm_client.c **** 
 221:C:/Users/stapi/OneDrive/Desktop/GD32VW553/V1_MQTT_OK/GD32VW55X_Wifi_BLE_SDK/GD32VW55x_RELEASE_V1.0.2/MSDK/cloud/alicloud/src/services/linkkit/dm/client\dm_client.c ****     memset(&source, 0, sizeof(dm_msg_source_t));
 123              		.loc 1 221 5
 214:C:/Users/stapi/OneDrive/Desktop/GD32VW553/V1_MQTT_OK/GD32VW55X_Wifi_BLE_SDK/GD32VW55x_RELEASE_V1.0.2/MSDK/cloud/alicloud/src/services/linkkit/dm/client\dm_client.c ****     int res = 0;
 124              		.loc 1 214 1 is_stmt 0
 125 0008 1571     		addi	sp,sp,-224
 126              		.cfi_def_cfa_offset 240
 214:C:/Users/stapi/OneDrive/Desktop/GD32VW553/V1_MQTT_OK/GD32VW55X_Wifi_BLE_SDK/GD32VW55x_RELEASE_V1.0.2/MSDK/cloud/alicloud/src/services/linkkit/dm/client\dm_client.c ****     int res = 0;
 127              		.loc 1 214 1
 128 000a 2E89     		mv	s2,a1
 129 000c B284     		mv	s1,a2
 222:C:/Users/stapi/OneDrive/Desktop/GD32VW553/V1_MQTT_OK/GD32VW55X_Wifi_BLE_SDK/GD32VW55x_RELEASE_V1.0.2/MSDK/cloud/alicloud/src/services/linkkit/dm/client\dm_client.c ****     memset(&dest, 0, sizeof(dm_msg_dest_t));
 223:C:/Users/stapi/OneDrive/Desktop/GD32VW553/V1_MQTT_OK/GD32VW55X_Wifi_BLE_SDK/GD32VW55x_RELEASE_V1.0.2/MSDK/cloud/alicloud/src/services/linkkit/dm/client\dm_client.c ****     memset(&request, 0, sizeof(dm_msg_request_payload_t));
 130              		.loc 1 223 5
 131 000e 8145     		li	a1,0
 132              	.LVL8:
 133 0010 13060008 		li	a2,128
 134              	.LVL9:
 135 0014 8810     		addi	a0,sp,96
 136              	.LVL10:
 214:C:/Users/stapi/OneDrive/Desktop/GD32VW553/V1_MQTT_OK/GD32VW55X_Wifi_BLE_SDK/GD32VW55x_RELEASE_V1.0.2/MSDK/cloud/alicloud/src/services/linkkit/dm/client\dm_client.c ****     int res = 0;
 137              		.loc 1 214 1
 138 0016 3684     		mv	s0,a3
 221:C:/Users/stapi/OneDrive/Desktop/GD32VW553/V1_MQTT_OK/GD32VW55X_Wifi_BLE_SDK/GD32VW55x_RELEASE_V1.0.2/MSDK/cloud/alicloud/src/services/linkkit/dm/client\dm_client.c ****     memset(&dest, 0, sizeof(dm_msg_dest_t));
 139              		.loc 1 221 5
 140 0018 02CC     		sw	zero,24(sp)
 222:C:/Users/stapi/OneDrive/Desktop/GD32VW553/V1_MQTT_OK/GD32VW55X_Wifi_BLE_SDK/GD32VW55x_RELEASE_V1.0.2/MSDK/cloud/alicloud/src/services/linkkit/dm/client\dm_client.c ****     memset(&dest, 0, sizeof(dm_msg_dest_t));
 141              		.loc 1 222 5 is_stmt 1
 142              		.loc 1 223 5
 143 001a 97000000 		call	memset
 143      E7800000 
 144              	.LVL11:
 224:C:/Users/stapi/OneDrive/Desktop/GD32VW553/V1_MQTT_OK/GD32VW55X_Wifi_BLE_SDK/GD32VW55x_RELEASE_V1.0.2/MSDK/cloud/alicloud/src/services/linkkit/dm/client\dm_client.c ****     memset(&response, 0, sizeof(dm_msg_response_t));
 145              		.loc 1 224 5
 146 0022 13064004 		li	a2,68
 147 0026 8145     		li	a1,0
 148 0028 6808     		addi	a0,sp,28
 149 002a 97000000 		call	memset
 149      E7800000 
 150              	.LVL12:
 225:C:/Users/stapi/OneDrive/Desktop/GD32VW553/V1_MQTT_OK/GD32VW55X_Wifi_BLE_SDK/GD32VW55x_RELEASE_V1.0.2/MSDK/cloud/alicloud/src/services/linkkit/dm/client\dm_client.c **** 
 226:C:/Users/stapi/OneDrive/Desktop/GD32VW553/V1_MQTT_OK/GD32VW55X_Wifi_BLE_SDK/GD32VW55x_RELEASE_V1.0.2/MSDK/cloud/alicloud/src/services/linkkit/dm/client\dm_client.c ****     source.uri = topic;
 151              		.loc 1 226 5
 227:C:/Users/stapi/OneDrive/Desktop/GD32VW553/V1_MQTT_OK/GD32VW55X_Wifi_BLE_SDK/GD32VW55x_RELEASE_V1.0.2/MSDK/cloud/alicloud/src/services/linkkit/dm/client\dm_client.c ****     source.payload = (unsigned char *)payload;
 228:C:/Users/stapi/OneDrive/Desktop/GD32VW553/V1_MQTT_OK/GD32VW55X_Wifi_BLE_SDK/GD32VW55x_RELEASE_V1.0.2/MSDK/cloud/alicloud/src/services/linkkit/dm/client\dm_client.c ****     source.payload_len = payload_len;
 229:C:/Users/stapi/OneDrive/Desktop/GD32VW553/V1_MQTT_OK/GD32VW55X_Wifi_BLE_SDK/GD32VW55x_RELEASE_V1.0.2/MSDK/cloud/alicloud/src/services/linkkit/dm/client\dm_client.c ****     source.context = NULL;
 230:C:/Users/stapi/OneDrive/Desktop/GD32VW553/V1_MQTT_OK/GD32VW55X_Wifi_BLE_SDK/GD32VW55x_RELEASE_V1.0.2/MSDK/cloud/alicloud/src/services/linkkit/dm/client\dm_client.c **** 
 231:C:/Users/stapi/OneDrive/Desktop/GD32VW553/V1_MQTT_OK/GD32VW55X_Wifi_BLE_SDK/GD32VW55x_RELEASE_V1.0.2/MSDK/cloud/alicloud/src/services/linkkit/dm/client\dm_client.c ****     dest.uri_name = DM_URI_THING_SERVICE_PROPERTY_SET_REPLY;
 152              		.loc 1 231 19 is_stmt 0
 153 0032 B7070000 		lui	a5,%hi(DM_URI_THING_SERVICE_PROPERTY_SET_REPLY)
 154 0036 93870700 		addi	a5,a5,%lo(DM_URI_THING_SERVICE_PROPERTY_SET_REPLY)
 232:C:/Users/stapi/OneDrive/Desktop/GD32VW553/V1_MQTT_OK/GD32VW55X_Wifi_BLE_SDK/GD32VW55x_RELEASE_V1.0.2/MSDK/cloud/alicloud/src/services/linkkit/dm/client\dm_client.c **** 
 233:C:/Users/stapi/OneDrive/Desktop/GD32VW553/V1_MQTT_OK/GD32VW55X_Wifi_BLE_SDK/GD32VW55x_RELEASE_V1.0.2/MSDK/cloud/alicloud/src/services/linkkit/dm/client\dm_client.c ****     res = dm_msg_proc_thing_service_property_set(&source, &dest, &request, &response);
 155              		.loc 1 233 11
 156 003a 7408     		addi	a3,sp,28
 157 003c 9010     		addi	a2,sp,96
 158 003e 4C00     		addi	a1,sp,4
 159 0040 6800     		addi	a0,sp,12
 226:C:/Users/stapi/OneDrive/Desktop/GD32VW553/V1_MQTT_OK/GD32VW55X_Wifi_BLE_SDK/GD32VW55x_RELEASE_V1.0.2/MSDK/cloud/alicloud/src/services/linkkit/dm/client\dm_client.c ****     source.payload = (unsigned char *)payload;
 160              		.loc 1 226 16
 161 0042 4AC6     		sw	s2,12(sp)
 227:C:/Users/stapi/OneDrive/Desktop/GD32VW553/V1_MQTT_OK/GD32VW55X_Wifi_BLE_SDK/GD32VW55x_RELEASE_V1.0.2/MSDK/cloud/alicloud/src/services/linkkit/dm/client\dm_client.c ****     source.payload = (unsigned char *)payload;
 162              		.loc 1 227 5 is_stmt 1
 227:C:/Users/stapi/OneDrive/Desktop/GD32VW553/V1_MQTT_OK/GD32VW55X_Wifi_BLE_SDK/GD32VW55x_RELEASE_V1.0.2/MSDK/cloud/alicloud/src/services/linkkit/dm/client\dm_client.c ****     source.payload = (unsigned char *)payload;
 163              		.loc 1 227 20 is_stmt 0
 164 0044 26C8     		sw	s1,16(sp)
 228:C:/Users/stapi/OneDrive/Desktop/GD32VW553/V1_MQTT_OK/GD32VW55X_Wifi_BLE_SDK/GD32VW55x_RELEASE_V1.0.2/MSDK/cloud/alicloud/src/services/linkkit/dm/client\dm_client.c ****     source.context = NULL;
 165              		.loc 1 228 5 is_stmt 1
 228:C:/Users/stapi/OneDrive/Desktop/GD32VW553/V1_MQTT_OK/GD32VW55X_Wifi_BLE_SDK/GD32VW55x_RELEASE_V1.0.2/MSDK/cloud/alicloud/src/services/linkkit/dm/client\dm_client.c ****     source.context = NULL;
 166              		.loc 1 228 24 is_stmt 0
 167 0046 22CA     		sw	s0,20(sp)
 229:C:/Users/stapi/OneDrive/Desktop/GD32VW553/V1_MQTT_OK/GD32VW55X_Wifi_BLE_SDK/GD32VW55x_RELEASE_V1.0.2/MSDK/cloud/alicloud/src/services/linkkit/dm/client\dm_client.c **** 
 168              		.loc 1 229 5 is_stmt 1
 231:C:/Users/stapi/OneDrive/Desktop/GD32VW553/V1_MQTT_OK/GD32VW55X_Wifi_BLE_SDK/GD32VW55x_RELEASE_V1.0.2/MSDK/cloud/alicloud/src/services/linkkit/dm/client\dm_client.c **** 
 169              		.loc 1 231 5
 231:C:/Users/stapi/OneDrive/Desktop/GD32VW553/V1_MQTT_OK/GD32VW55X_Wifi_BLE_SDK/GD32VW55x_RELEASE_V1.0.2/MSDK/cloud/alicloud/src/services/linkkit/dm/client\dm_client.c **** 
 170              		.loc 1 231 19 is_stmt 0
 171 0048 3EC2     		sw	a5,4(sp)
 172              		.loc 1 233 5 is_stmt 1
 173              		.loc 1 233 11 is_stmt 0
 174 004a 97000000 		call	dm_msg_proc_thing_service_property_set
 174      E7800000 
 175              	.LVL13:
 234:C:/Users/stapi/OneDrive/Desktop/GD32VW553/V1_MQTT_OK/GD32VW55X_Wifi_BLE_SDK/GD32VW55x_RELEASE_V1.0.2/MSDK/cloud/alicloud/src/services/linkkit/dm/client\dm_client.c ****     if (res < SUCCESS_RETURN) {
 176              		.loc 1 234 5 is_stmt 1
 177              		.loc 1 234 8 is_stmt 0
 178 0052 63490502 		blt	a0,zero,.L5
 235:C:/Users/stapi/OneDrive/Desktop/GD32VW553/V1_MQTT_OK/GD32VW55X_Wifi_BLE_SDK/GD32VW55x_RELEASE_V1.0.2/MSDK/cloud/alicloud/src/services/linkkit/dm/client\dm_client.c ****         return;
 236:C:/Users/stapi/OneDrive/Desktop/GD32VW553/V1_MQTT_OK/GD32VW55X_Wifi_BLE_SDK/GD32VW55x_RELEASE_V1.0.2/MSDK/cloud/alicloud/src/services/linkkit/dm/client\dm_client.c ****     }
 237:C:/Users/stapi/OneDrive/Desktop/GD32VW553/V1_MQTT_OK/GD32VW55X_Wifi_BLE_SDK/GD32VW55x_RELEASE_V1.0.2/MSDK/cloud/alicloud/src/services/linkkit/dm/client\dm_client.c **** 
 238:C:/Users/stapi/OneDrive/Desktop/GD32VW553/V1_MQTT_OK/GD32VW55X_Wifi_BLE_SDK/GD32VW55x_RELEASE_V1.0.2/MSDK/cloud/alicloud/src/services/linkkit/dm/client\dm_client.c ****     int prop_set_reply_opt = 0;
 179              		.loc 1 238 5 is_stmt 1
 239:C:/Users/stapi/OneDrive/Desktop/GD32VW553/V1_MQTT_OK/GD32VW55X_Wifi_BLE_SDK/GD32VW55x_RELEASE_V1.0.2/MSDK/cloud/alicloud/src/services/linkkit/dm/client\dm_client.c ****     res = dm_opt_get(DM_OPT_UPSTREAM_PROPERTY_SET_REPLY, &prop_set_reply_opt);
 180              		.loc 1 239 11 is_stmt 0
 181 0056 2C00     		addi	a1,sp,8
 182 0058 0945     		li	a0,2
 183              	.LVL14:
 238:C:/Users/stapi/OneDrive/Desktop/GD32VW553/V1_MQTT_OK/GD32VW55X_Wifi_BLE_SDK/GD32VW55x_RELEASE_V1.0.2/MSDK/cloud/alicloud/src/services/linkkit/dm/client\dm_client.c ****     res = dm_opt_get(DM_OPT_UPSTREAM_PROPERTY_SET_REPLY, &prop_set_reply_opt);
 184              		.loc 1 238 9
 185 005a 02C4     		sw	zero,8(sp)
 186              		.loc 1 239 5 is_stmt 1
 187              		.loc 1 239 11 is_stmt 0
 188 005c 97000000 		call	dm_opt_get
 188      E7800000 
 189              	.LVL15:
 240:C:/Users/stapi/OneDrive/Desktop/GD32VW553/V1_MQTT_OK/GD32VW55X_Wifi_BLE_SDK/GD32VW55x_RELEASE_V1.0.2/MSDK/cloud/alicloud/src/services/linkkit/dm/client\dm_client.c ****     if (res == SUCCESS_RETURN) {
 190              		.loc 1 240 5 is_stmt 1
 191              		.loc 1 240 8 is_stmt 0
 192 0064 05E1     		bne	a0,zero,.L5
 241:C:/Users/stapi/OneDrive/Desktop/GD32VW553/V1_MQTT_OK/GD32VW55X_Wifi_BLE_SDK/GD32VW55x_RELEASE_V1.0.2/MSDK/cloud/alicloud/src/services/linkkit/dm/client\dm_client.c ****         if (prop_set_reply_opt) {
 193              		.loc 1 241 9 is_stmt 1
 194              		.loc 1 241 12 is_stmt 0
 195 0066 A247     		lw	a5,8(sp)
 196 0068 91CF     		beq	a5,zero,.L5
 242:C:/Users/stapi/OneDrive/Desktop/GD32VW553/V1_MQTT_OK/GD32VW55X_Wifi_BLE_SDK/GD32VW55x_RELEASE_V1.0.2/MSDK/cloud/alicloud/src/services/linkkit/dm/client\dm_client.c ****             dm_msg_response(DM_MSG_DEST_CLOUD, &request, &response, "{}", strlen("{}"), NULL);
 197              		.loc 1 242 13 is_stmt 1
 198 006a B7060000 		lui	a3,%hi(.LC0)
 199 006e 8147     		li	a5,0
 200 0070 0947     		li	a4,2
 201 0072 93860600 		addi	a3,a3,%lo(.LC0)
 202 0076 7008     		addi	a2,sp,28
 203 0078 8C10     		addi	a1,sp,96
 204 007a 0545     		li	a0,1
 205              	.LVL16:
 206 007c 97000000 		call	dm_msg_response
 206      E7800000 
 207              	.LVL17:
 208              	.L5:
 243:C:/Users/stapi/OneDrive/Desktop/GD32VW553/V1_MQTT_OK/GD32VW55X_Wifi_BLE_SDK/GD32VW55x_RELEASE_V1.0.2/MSDK/cloud/alicloud/src/services/linkkit/dm/client\dm_client.c **** #ifdef LOG_REPORT_TO_CLOUD
 244:C:/Users/stapi/OneDrive/Desktop/GD32VW553/V1_MQTT_OK/GD32VW55X_Wifi_BLE_SDK/GD32VW55x_RELEASE_V1.0.2/MSDK/cloud/alicloud/src/services/linkkit/dm/client\dm_client.c ****             if (SUCCESS_RETURN == check_target_msg(request.id.value, request.id.value_length)) {
 245:C:/Users/stapi/OneDrive/Desktop/GD32VW553/V1_MQTT_OK/GD32VW55X_Wifi_BLE_SDK/GD32VW55x_RELEASE_V1.0.2/MSDK/cloud/alicloud/src/services/linkkit/dm/client\dm_client.c ****                 send_permance_info(request.id.value, request.id.value_length, "2", 1);
 246:C:/Users/stapi/OneDrive/Desktop/GD32VW553/V1_MQTT_OK/GD32VW55X_Wifi_BLE_SDK/GD32VW55x_RELEASE_V1.0.2/MSDK/cloud/alicloud/src/services/linkkit/dm/client\dm_client.c ****             }
 247:C:/Users/stapi/OneDrive/Desktop/GD32VW553/V1_MQTT_OK/GD32VW55X_Wifi_BLE_SDK/GD32VW55x_RELEASE_V1.0.2/MSDK/cloud/alicloud/src/services/linkkit/dm/client\dm_client.c **** #endif
 248:C:/Users/stapi/OneDrive/Desktop/GD32VW553/V1_MQTT_OK/GD32VW55X_Wifi_BLE_SDK/GD32VW55x_RELEASE_V1.0.2/MSDK/cloud/alicloud/src/services/linkkit/dm/client\dm_client.c ****         }
 249:C:/Users/stapi/OneDrive/Desktop/GD32VW553/V1_MQTT_OK/GD32VW55X_Wifi_BLE_SDK/GD32VW55x_RELEASE_V1.0.2/MSDK/cloud/alicloud/src/services/linkkit/dm/client\dm_client.c ****     }
 250:C:/Users/stapi/OneDrive/Desktop/GD32VW553/V1_MQTT_OK/GD32VW55X_Wifi_BLE_SDK/GD32VW55x_RELEASE_V1.0.2/MSDK/cloud/alicloud/src/services/linkkit/dm/client\dm_client.c **** }
 209              		.loc 1 250 1 is_stmt 0
 210 0084 2D61     		addi	sp,sp,224
 211              		.cfi_def_cfa_offset 0
 212 0086 17030000 		tail	__riscv_restore_3
 212      67000300 
 213              		.cfi_restore 18
 214              		.cfi_restore 9
 215              		.cfi_restore 8
 216              		.cfi_restore 1
 217              		.cfi_def_cfa_offset -16
 218              		.cfi_endproc
 219              	.LFE27:
 221              		.section	.text.dm_client_thing_service_request,"ax",@progbits
 222              		.align	1
 223              		.globl	dm_client_thing_service_request
 225              	dm_client_thing_service_request:
 226              	.LFB28:
 251:C:/Users/stapi/OneDrive/Desktop/GD32VW553/V1_MQTT_OK/GD32VW55X_Wifi_BLE_SDK/GD32VW55x_RELEASE_V1.0.2/MSDK/cloud/alicloud/src/services/linkkit/dm/client\dm_client.c **** 
 252:C:/Users/stapi/OneDrive/Desktop/GD32VW553/V1_MQTT_OK/GD32VW55X_Wifi_BLE_SDK/GD32VW55x_RELEASE_V1.0.2/MSDK/cloud/alicloud/src/services/linkkit/dm/client\dm_client.c **** #ifdef DM_UNIFIED_SERVICE_POST
 253:C:/Users/stapi/OneDrive/Desktop/GD32VW553/V1_MQTT_OK/GD32VW55X_Wifi_BLE_SDK/GD32VW55x_RELEASE_V1.0.2/MSDK/cloud/alicloud/src/services/linkkit/dm/client\dm_client.c **** void dm_client_unified_service_post_reply(int fd, const char *topic, const char *payload, unsigned 
 254:C:/Users/stapi/OneDrive/Desktop/GD32VW553/V1_MQTT_OK/GD32VW55X_Wifi_BLE_SDK/GD32VW55x_RELEASE_V1.0.2/MSDK/cloud/alicloud/src/services/linkkit/dm/client\dm_client.c ****                                       void *context)
 255:C:/Users/stapi/OneDrive/Desktop/GD32VW553/V1_MQTT_OK/GD32VW55X_Wifi_BLE_SDK/GD32VW55x_RELEASE_V1.0.2/MSDK/cloud/alicloud/src/services/linkkit/dm/client\dm_client.c **** {
 256:C:/Users/stapi/OneDrive/Desktop/GD32VW553/V1_MQTT_OK/GD32VW55X_Wifi_BLE_SDK/GD32VW55x_RELEASE_V1.0.2/MSDK/cloud/alicloud/src/services/linkkit/dm/client\dm_client.c ****     dm_msg_source_t source;
 257:C:/Users/stapi/OneDrive/Desktop/GD32VW553/V1_MQTT_OK/GD32VW55X_Wifi_BLE_SDK/GD32VW55x_RELEASE_V1.0.2/MSDK/cloud/alicloud/src/services/linkkit/dm/client\dm_client.c **** 
 258:C:/Users/stapi/OneDrive/Desktop/GD32VW553/V1_MQTT_OK/GD32VW55X_Wifi_BLE_SDK/GD32VW55x_RELEASE_V1.0.2/MSDK/cloud/alicloud/src/services/linkkit/dm/client\dm_client.c ****     memset(&source, 0, sizeof(dm_msg_source_t));
 259:C:/Users/stapi/OneDrive/Desktop/GD32VW553/V1_MQTT_OK/GD32VW55X_Wifi_BLE_SDK/GD32VW55x_RELEASE_V1.0.2/MSDK/cloud/alicloud/src/services/linkkit/dm/client\dm_client.c **** 
 260:C:/Users/stapi/OneDrive/Desktop/GD32VW553/V1_MQTT_OK/GD32VW55X_Wifi_BLE_SDK/GD32VW55x_RELEASE_V1.0.2/MSDK/cloud/alicloud/src/services/linkkit/dm/client\dm_client.c ****     source.uri = topic;
 261:C:/Users/stapi/OneDrive/Desktop/GD32VW553/V1_MQTT_OK/GD32VW55X_Wifi_BLE_SDK/GD32VW55x_RELEASE_V1.0.2/MSDK/cloud/alicloud/src/services/linkkit/dm/client\dm_client.c ****     source.payload = (unsigned char *)payload;
 262:C:/Users/stapi/OneDrive/Desktop/GD32VW553/V1_MQTT_OK/GD32VW55X_Wifi_BLE_SDK/GD32VW55x_RELEASE_V1.0.2/MSDK/cloud/alicloud/src/services/linkkit/dm/client\dm_client.c ****     source.payload_len = payload_len;
 263:C:/Users/stapi/OneDrive/Desktop/GD32VW553/V1_MQTT_OK/GD32VW55X_Wifi_BLE_SDK/GD32VW55x_RELEASE_V1.0.2/MSDK/cloud/alicloud/src/services/linkkit/dm/client\dm_client.c ****     source.context = NULL;
 264:C:/Users/stapi/OneDrive/Desktop/GD32VW553/V1_MQTT_OK/GD32VW55X_Wifi_BLE_SDK/GD32VW55x_RELEASE_V1.0.2/MSDK/cloud/alicloud/src/services/linkkit/dm/client\dm_client.c **** 
 265:C:/Users/stapi/OneDrive/Desktop/GD32VW553/V1_MQTT_OK/GD32VW55X_Wifi_BLE_SDK/GD32VW55x_RELEASE_V1.0.2/MSDK/cloud/alicloud/src/services/linkkit/dm/client\dm_client.c ****     dm_msg_proc_unified_service_post_reply(&source);
 266:C:/Users/stapi/OneDrive/Desktop/GD32VW553/V1_MQTT_OK/GD32VW55X_Wifi_BLE_SDK/GD32VW55x_RELEASE_V1.0.2/MSDK/cloud/alicloud/src/services/linkkit/dm/client\dm_client.c **** }
 267:C:/Users/stapi/OneDrive/Desktop/GD32VW553/V1_MQTT_OK/GD32VW55X_Wifi_BLE_SDK/GD32VW55x_RELEASE_V1.0.2/MSDK/cloud/alicloud/src/services/linkkit/dm/client\dm_client.c **** #endif
 268:C:/Users/stapi/OneDrive/Desktop/GD32VW553/V1_MQTT_OK/GD32VW55X_Wifi_BLE_SDK/GD32VW55x_RELEASE_V1.0.2/MSDK/cloud/alicloud/src/services/linkkit/dm/client\dm_client.c **** 
 269:C:/Users/stapi/OneDrive/Desktop/GD32VW553/V1_MQTT_OK/GD32VW55X_Wifi_BLE_SDK/GD32VW55x_RELEASE_V1.0.2/MSDK/cloud/alicloud/src/services/linkkit/dm/client\dm_client.c **** #ifdef LINK_VISUAL_ENABLE
 270:C:/Users/stapi/OneDrive/Desktop/GD32VW553/V1_MQTT_OK/GD32VW55X_Wifi_BLE_SDK/GD32VW55x_RELEASE_V1.0.2/MSDK/cloud/alicloud/src/services/linkkit/dm/client\dm_client.c **** void dm_client_link_visual_downstream(int fd, const char *topic, const char *payload, unsigned int 
 271:C:/Users/stapi/OneDrive/Desktop/GD32VW553/V1_MQTT_OK/GD32VW55X_Wifi_BLE_SDK/GD32VW55x_RELEASE_V1.0.2/MSDK/cloud/alicloud/src/services/linkkit/dm/client\dm_client.c ****                                       void *context)
 272:C:/Users/stapi/OneDrive/Desktop/GD32VW553/V1_MQTT_OK/GD32VW55X_Wifi_BLE_SDK/GD32VW55x_RELEASE_V1.0.2/MSDK/cloud/alicloud/src/services/linkkit/dm/client\dm_client.c **** {
 273:C:/Users/stapi/OneDrive/Desktop/GD32VW553/V1_MQTT_OK/GD32VW55X_Wifi_BLE_SDK/GD32VW55x_RELEASE_V1.0.2/MSDK/cloud/alicloud/src/services/linkkit/dm/client\dm_client.c ****     dm_msg_source_t source;
 274:C:/Users/stapi/OneDrive/Desktop/GD32VW553/V1_MQTT_OK/GD32VW55X_Wifi_BLE_SDK/GD32VW55x_RELEASE_V1.0.2/MSDK/cloud/alicloud/src/services/linkkit/dm/client\dm_client.c ****     memset(&source, 0, sizeof(dm_msg_source_t));
 275:C:/Users/stapi/OneDrive/Desktop/GD32VW553/V1_MQTT_OK/GD32VW55X_Wifi_BLE_SDK/GD32VW55x_RELEASE_V1.0.2/MSDK/cloud/alicloud/src/services/linkkit/dm/client\dm_client.c ****     source.uri = topic;
 276:C:/Users/stapi/OneDrive/Desktop/GD32VW553/V1_MQTT_OK/GD32VW55X_Wifi_BLE_SDK/GD32VW55x_RELEASE_V1.0.2/MSDK/cloud/alicloud/src/services/linkkit/dm/client\dm_client.c ****     source.payload = (unsigned char *)payload;
 277:C:/Users/stapi/OneDrive/Desktop/GD32VW553/V1_MQTT_OK/GD32VW55X_Wifi_BLE_SDK/GD32VW55x_RELEASE_V1.0.2/MSDK/cloud/alicloud/src/services/linkkit/dm/client\dm_client.c ****     source.payload_len = payload_len;
 278:C:/Users/stapi/OneDrive/Desktop/GD32VW553/V1_MQTT_OK/GD32VW55X_Wifi_BLE_SDK/GD32VW55x_RELEASE_V1.0.2/MSDK/cloud/alicloud/src/services/linkkit/dm/client\dm_client.c ****     source.context = NULL;
 279:C:/Users/stapi/OneDrive/Desktop/GD32VW553/V1_MQTT_OK/GD32VW55X_Wifi_BLE_SDK/GD32VW55x_RELEASE_V1.0.2/MSDK/cloud/alicloud/src/services/linkkit/dm/client\dm_client.c ****     dm_msg_proc_thing_model_link_visual(&source);
 280:C:/Users/stapi/OneDrive/Desktop/GD32VW553/V1_MQTT_OK/GD32VW55X_Wifi_BLE_SDK/GD32VW55x_RELEASE_V1.0.2/MSDK/cloud/alicloud/src/services/linkkit/dm/client\dm_client.c **** }
 281:C:/Users/stapi/OneDrive/Desktop/GD32VW553/V1_MQTT_OK/GD32VW55X_Wifi_BLE_SDK/GD32VW55x_RELEASE_V1.0.2/MSDK/cloud/alicloud/src/services/linkkit/dm/client\dm_client.c **** #endif
 282:C:/Users/stapi/OneDrive/Desktop/GD32VW553/V1_MQTT_OK/GD32VW55X_Wifi_BLE_SDK/GD32VW55x_RELEASE_V1.0.2/MSDK/cloud/alicloud/src/services/linkkit/dm/client\dm_client.c **** 
 283:C:/Users/stapi/OneDrive/Desktop/GD32VW553/V1_MQTT_OK/GD32VW55X_Wifi_BLE_SDK/GD32VW55x_RELEASE_V1.0.2/MSDK/cloud/alicloud/src/services/linkkit/dm/client\dm_client.c **** void dm_client_thing_service_request(int fd, const char *topic, const char *payload, unsigned int p
 284:C:/Users/stapi/OneDrive/Desktop/GD32VW553/V1_MQTT_OK/GD32VW55X_Wifi_BLE_SDK/GD32VW55x_RELEASE_V1.0.2/MSDK/cloud/alicloud/src/services/linkkit/dm/client\dm_client.c ****                                      void *context)
 285:C:/Users/stapi/OneDrive/Desktop/GD32VW553/V1_MQTT_OK/GD32VW55X_Wifi_BLE_SDK/GD32VW55x_RELEASE_V1.0.2/MSDK/cloud/alicloud/src/services/linkkit/dm/client\dm_client.c **** {
 227              		.loc 1 285 1 is_stmt 1
 228              		.cfi_startproc
 229              	.LVL18:
 230 0000 17030000 		call	t0,__riscv_save_0
 230      E7020300 
 231              		.cfi_offset 1, -4
 232              		.cfi_def_cfa_offset 16
 286:C:/Users/stapi/OneDrive/Desktop/GD32VW553/V1_MQTT_OK/GD32VW55X_Wifi_BLE_SDK/GD32VW55x_RELEASE_V1.0.2/MSDK/cloud/alicloud/src/services/linkkit/dm/client\dm_client.c ****     dm_msg_source_t source;
 233              		.loc 1 286 5
 287:C:/Users/stapi/OneDrive/Desktop/GD32VW553/V1_MQTT_OK/GD32VW55X_Wifi_BLE_SDK/GD32VW55x_RELEASE_V1.0.2/MSDK/cloud/alicloud/src/services/linkkit/dm/client\dm_client.c **** 
 288:C:/Users/stapi/OneDrive/Desktop/GD32VW553/V1_MQTT_OK/GD32VW55X_Wifi_BLE_SDK/GD32VW55x_RELEASE_V1.0.2/MSDK/cloud/alicloud/src/services/linkkit/dm/client\dm_client.c ****     memset(&source, 0, sizeof(dm_msg_source_t));
 234              		.loc 1 288 5
 285:C:/Users/stapi/OneDrive/Desktop/GD32VW553/V1_MQTT_OK/GD32VW55X_Wifi_BLE_SDK/GD32VW55x_RELEASE_V1.0.2/MSDK/cloud/alicloud/src/services/linkkit/dm/client\dm_client.c ****     dm_msg_source_t source;
 235              		.loc 1 285 1 is_stmt 0
 236 0008 4111     		addi	sp,sp,-16
 237              		.cfi_def_cfa_offset 32
 289:C:/Users/stapi/OneDrive/Desktop/GD32VW553/V1_MQTT_OK/GD32VW55X_Wifi_BLE_SDK/GD32VW55x_RELEASE_V1.0.2/MSDK/cloud/alicloud/src/services/linkkit/dm/client\dm_client.c **** 
 290:C:/Users/stapi/OneDrive/Desktop/GD32VW553/V1_MQTT_OK/GD32VW55X_Wifi_BLE_SDK/GD32VW55x_RELEASE_V1.0.2/MSDK/cloud/alicloud/src/services/linkkit/dm/client\dm_client.c ****     source.uri = topic;
 291:C:/Users/stapi/OneDrive/Desktop/GD32VW553/V1_MQTT_OK/GD32VW55X_Wifi_BLE_SDK/GD32VW55x_RELEASE_V1.0.2/MSDK/cloud/alicloud/src/services/linkkit/dm/client\dm_client.c ****     source.payload = (unsigned char *)payload;
 292:C:/Users/stapi/OneDrive/Desktop/GD32VW553/V1_MQTT_OK/GD32VW55X_Wifi_BLE_SDK/GD32VW55x_RELEASE_V1.0.2/MSDK/cloud/alicloud/src/services/linkkit/dm/client\dm_client.c ****     source.payload_len = payload_len;
 293:C:/Users/stapi/OneDrive/Desktop/GD32VW553/V1_MQTT_OK/GD32VW55X_Wifi_BLE_SDK/GD32VW55x_RELEASE_V1.0.2/MSDK/cloud/alicloud/src/services/linkkit/dm/client\dm_client.c ****     source.context = NULL;
 294:C:/Users/stapi/OneDrive/Desktop/GD32VW553/V1_MQTT_OK/GD32VW55X_Wifi_BLE_SDK/GD32VW55x_RELEASE_V1.0.2/MSDK/cloud/alicloud/src/services/linkkit/dm/client\dm_client.c **** 
 295:C:/Users/stapi/OneDrive/Desktop/GD32VW553/V1_MQTT_OK/GD32VW55X_Wifi_BLE_SDK/GD32VW55x_RELEASE_V1.0.2/MSDK/cloud/alicloud/src/services/linkkit/dm/client\dm_client.c ****     dm_msg_proc_thing_service_request(&source);
 238              		.loc 1 295 5
 239 000a 0A85     		mv	a0,sp
 240              	.LVL19:
 290:C:/Users/stapi/OneDrive/Desktop/GD32VW553/V1_MQTT_OK/GD32VW55X_Wifi_BLE_SDK/GD32VW55x_RELEASE_V1.0.2/MSDK/cloud/alicloud/src/services/linkkit/dm/client\dm_client.c ****     source.payload = (unsigned char *)payload;
 241              		.loc 1 290 16
 242 000c 2EC0     		sw	a1,0(sp)
 291:C:/Users/stapi/OneDrive/Desktop/GD32VW553/V1_MQTT_OK/GD32VW55X_Wifi_BLE_SDK/GD32VW55x_RELEASE_V1.0.2/MSDK/cloud/alicloud/src/services/linkkit/dm/client\dm_client.c ****     source.payload_len = payload_len;
 243              		.loc 1 291 20
 244 000e 32C2     		sw	a2,4(sp)
 292:C:/Users/stapi/OneDrive/Desktop/GD32VW553/V1_MQTT_OK/GD32VW55X_Wifi_BLE_SDK/GD32VW55x_RELEASE_V1.0.2/MSDK/cloud/alicloud/src/services/linkkit/dm/client\dm_client.c ****     source.context = NULL;
 245              		.loc 1 292 24
 246 0010 36C4     		sw	a3,8(sp)
 288:C:/Users/stapi/OneDrive/Desktop/GD32VW553/V1_MQTT_OK/GD32VW55X_Wifi_BLE_SDK/GD32VW55x_RELEASE_V1.0.2/MSDK/cloud/alicloud/src/services/linkkit/dm/client\dm_client.c **** 
 247              		.loc 1 288 5
 248 0012 02C6     		sw	zero,12(sp)
 290:C:/Users/stapi/OneDrive/Desktop/GD32VW553/V1_MQTT_OK/GD32VW55X_Wifi_BLE_SDK/GD32VW55x_RELEASE_V1.0.2/MSDK/cloud/alicloud/src/services/linkkit/dm/client\dm_client.c ****     source.payload = (unsigned char *)payload;
 249              		.loc 1 290 5 is_stmt 1
 291:C:/Users/stapi/OneDrive/Desktop/GD32VW553/V1_MQTT_OK/GD32VW55X_Wifi_BLE_SDK/GD32VW55x_RELEASE_V1.0.2/MSDK/cloud/alicloud/src/services/linkkit/dm/client\dm_client.c ****     source.payload_len = payload_len;
 250              		.loc 1 291 5
 292:C:/Users/stapi/OneDrive/Desktop/GD32VW553/V1_MQTT_OK/GD32VW55X_Wifi_BLE_SDK/GD32VW55x_RELEASE_V1.0.2/MSDK/cloud/alicloud/src/services/linkkit/dm/client\dm_client.c ****     source.context = NULL;
 251              		.loc 1 292 5
 293:C:/Users/stapi/OneDrive/Desktop/GD32VW553/V1_MQTT_OK/GD32VW55X_Wifi_BLE_SDK/GD32VW55x_RELEASE_V1.0.2/MSDK/cloud/alicloud/src/services/linkkit/dm/client\dm_client.c **** 
 252              		.loc 1 293 5
 253              		.loc 1 295 5
 254 0014 97000000 		call	dm_msg_proc_thing_service_request
 254      E7800000 
 255              	.LVL20:
 296:C:/Users/stapi/OneDrive/Desktop/GD32VW553/V1_MQTT_OK/GD32VW55X_Wifi_BLE_SDK/GD32VW55x_RELEASE_V1.0.2/MSDK/cloud/alicloud/src/services/linkkit/dm/client\dm_client.c **** }
 256              		.loc 1 296 1 is_stmt 0
 257 001c 4101     		addi	sp,sp,16
 258              		.cfi_def_cfa_offset 0
 259 001e 17030000 		tail	__riscv_restore_0
 259      67000300 
 260              		.cfi_restore 1
 261              		.cfi_def_cfa_offset -16
 262              		.cfi_endproc
 263              	.LFE28:
 265              		.section	.text.dm_client_thing_event_post_reply,"ax",@progbits
 266              		.align	1
 267              		.globl	dm_client_thing_event_post_reply
 269              	dm_client_thing_event_post_reply:
 270              	.LFB29:
 297:C:/Users/stapi/OneDrive/Desktop/GD32VW553/V1_MQTT_OK/GD32VW55X_Wifi_BLE_SDK/GD32VW55x_RELEASE_V1.0.2/MSDK/cloud/alicloud/src/services/linkkit/dm/client\dm_client.c **** 
 298:C:/Users/stapi/OneDrive/Desktop/GD32VW553/V1_MQTT_OK/GD32VW55X_Wifi_BLE_SDK/GD32VW55x_RELEASE_V1.0.2/MSDK/cloud/alicloud/src/services/linkkit/dm/client\dm_client.c **** void dm_client_thing_event_post_reply(int fd, const char *topic, const char *payload, unsigned int 
 299:C:/Users/stapi/OneDrive/Desktop/GD32VW553/V1_MQTT_OK/GD32VW55X_Wifi_BLE_SDK/GD32VW55x_RELEASE_V1.0.2/MSDK/cloud/alicloud/src/services/linkkit/dm/client\dm_client.c ****                                       void *context)
 300:C:/Users/stapi/OneDrive/Desktop/GD32VW553/V1_MQTT_OK/GD32VW55X_Wifi_BLE_SDK/GD32VW55x_RELEASE_V1.0.2/MSDK/cloud/alicloud/src/services/linkkit/dm/client\dm_client.c **** {
 271              		.loc 1 300 1 is_stmt 1
 272              		.cfi_startproc
 273              	.LVL21:
 274 0000 17030000 		call	t0,__riscv_save_0
 274      E7020300 
 275              		.cfi_offset 1, -4
 276              		.cfi_def_cfa_offset 16
 301:C:/Users/stapi/OneDrive/Desktop/GD32VW553/V1_MQTT_OK/GD32VW55X_Wifi_BLE_SDK/GD32VW55x_RELEASE_V1.0.2/MSDK/cloud/alicloud/src/services/linkkit/dm/client\dm_client.c ****     dm_msg_source_t source;
 277              		.loc 1 301 5
 302:C:/Users/stapi/OneDrive/Desktop/GD32VW553/V1_MQTT_OK/GD32VW55X_Wifi_BLE_SDK/GD32VW55x_RELEASE_V1.0.2/MSDK/cloud/alicloud/src/services/linkkit/dm/client\dm_client.c **** 
 303:C:/Users/stapi/OneDrive/Desktop/GD32VW553/V1_MQTT_OK/GD32VW55X_Wifi_BLE_SDK/GD32VW55x_RELEASE_V1.0.2/MSDK/cloud/alicloud/src/services/linkkit/dm/client\dm_client.c ****     memset(&source, 0, sizeof(dm_msg_source_t));
 278              		.loc 1 303 5
 300:C:/Users/stapi/OneDrive/Desktop/GD32VW553/V1_MQTT_OK/GD32VW55X_Wifi_BLE_SDK/GD32VW55x_RELEASE_V1.0.2/MSDK/cloud/alicloud/src/services/linkkit/dm/client\dm_client.c ****     dm_msg_source_t source;
 279              		.loc 1 300 1 is_stmt 0
 280 0008 4111     		addi	sp,sp,-16
 281              		.cfi_def_cfa_offset 32
 304:C:/Users/stapi/OneDrive/Desktop/GD32VW553/V1_MQTT_OK/GD32VW55X_Wifi_BLE_SDK/GD32VW55x_RELEASE_V1.0.2/MSDK/cloud/alicloud/src/services/linkkit/dm/client\dm_client.c **** 
 305:C:/Users/stapi/OneDrive/Desktop/GD32VW553/V1_MQTT_OK/GD32VW55X_Wifi_BLE_SDK/GD32VW55x_RELEASE_V1.0.2/MSDK/cloud/alicloud/src/services/linkkit/dm/client\dm_client.c ****     source.uri = topic;
 306:C:/Users/stapi/OneDrive/Desktop/GD32VW553/V1_MQTT_OK/GD32VW55X_Wifi_BLE_SDK/GD32VW55x_RELEASE_V1.0.2/MSDK/cloud/alicloud/src/services/linkkit/dm/client\dm_client.c ****     source.payload = (unsigned char *)payload;
 307:C:/Users/stapi/OneDrive/Desktop/GD32VW553/V1_MQTT_OK/GD32VW55X_Wifi_BLE_SDK/GD32VW55x_RELEASE_V1.0.2/MSDK/cloud/alicloud/src/services/linkkit/dm/client\dm_client.c ****     source.payload_len = payload_len;
 308:C:/Users/stapi/OneDrive/Desktop/GD32VW553/V1_MQTT_OK/GD32VW55X_Wifi_BLE_SDK/GD32VW55x_RELEASE_V1.0.2/MSDK/cloud/alicloud/src/services/linkkit/dm/client\dm_client.c ****     source.context = NULL;
 309:C:/Users/stapi/OneDrive/Desktop/GD32VW553/V1_MQTT_OK/GD32VW55X_Wifi_BLE_SDK/GD32VW55x_RELEASE_V1.0.2/MSDK/cloud/alicloud/src/services/linkkit/dm/client\dm_client.c **** 
 310:C:/Users/stapi/OneDrive/Desktop/GD32VW553/V1_MQTT_OK/GD32VW55X_Wifi_BLE_SDK/GD32VW55x_RELEASE_V1.0.2/MSDK/cloud/alicloud/src/services/linkkit/dm/client\dm_client.c ****     dm_msg_proc_thing_event_post_reply(&source);
 282              		.loc 1 310 5
 283 000a 0A85     		mv	a0,sp
 284              	.LVL22:
 305:C:/Users/stapi/OneDrive/Desktop/GD32VW553/V1_MQTT_OK/GD32VW55X_Wifi_BLE_SDK/GD32VW55x_RELEASE_V1.0.2/MSDK/cloud/alicloud/src/services/linkkit/dm/client\dm_client.c ****     source.payload = (unsigned char *)payload;
 285              		.loc 1 305 16
 286 000c 2EC0     		sw	a1,0(sp)
 306:C:/Users/stapi/OneDrive/Desktop/GD32VW553/V1_MQTT_OK/GD32VW55X_Wifi_BLE_SDK/GD32VW55x_RELEASE_V1.0.2/MSDK/cloud/alicloud/src/services/linkkit/dm/client\dm_client.c ****     source.payload_len = payload_len;
 287              		.loc 1 306 20
 288 000e 32C2     		sw	a2,4(sp)
 307:C:/Users/stapi/OneDrive/Desktop/GD32VW553/V1_MQTT_OK/GD32VW55X_Wifi_BLE_SDK/GD32VW55x_RELEASE_V1.0.2/MSDK/cloud/alicloud/src/services/linkkit/dm/client\dm_client.c ****     source.context = NULL;
 289              		.loc 1 307 24
 290 0010 36C4     		sw	a3,8(sp)
 303:C:/Users/stapi/OneDrive/Desktop/GD32VW553/V1_MQTT_OK/GD32VW55X_Wifi_BLE_SDK/GD32VW55x_RELEASE_V1.0.2/MSDK/cloud/alicloud/src/services/linkkit/dm/client\dm_client.c **** 
 291              		.loc 1 303 5
 292 0012 02C6     		sw	zero,12(sp)
 305:C:/Users/stapi/OneDrive/Desktop/GD32VW553/V1_MQTT_OK/GD32VW55X_Wifi_BLE_SDK/GD32VW55x_RELEASE_V1.0.2/MSDK/cloud/alicloud/src/services/linkkit/dm/client\dm_client.c ****     source.payload = (unsigned char *)payload;
 293              		.loc 1 305 5 is_stmt 1
 306:C:/Users/stapi/OneDrive/Desktop/GD32VW553/V1_MQTT_OK/GD32VW55X_Wifi_BLE_SDK/GD32VW55x_RELEASE_V1.0.2/MSDK/cloud/alicloud/src/services/linkkit/dm/client\dm_client.c ****     source.payload_len = payload_len;
 294              		.loc 1 306 5
 307:C:/Users/stapi/OneDrive/Desktop/GD32VW553/V1_MQTT_OK/GD32VW55X_Wifi_BLE_SDK/GD32VW55x_RELEASE_V1.0.2/MSDK/cloud/alicloud/src/services/linkkit/dm/client\dm_client.c ****     source.context = NULL;
 295              		.loc 1 307 5
 308:C:/Users/stapi/OneDrive/Desktop/GD32VW553/V1_MQTT_OK/GD32VW55X_Wifi_BLE_SDK/GD32VW55x_RELEASE_V1.0.2/MSDK/cloud/alicloud/src/services/linkkit/dm/client\dm_client.c **** 
 296              		.loc 1 308 5
 297              		.loc 1 310 5
 298 0014 97000000 		call	dm_msg_proc_thing_event_post_reply
 298      E7800000 
 299              	.LVL23:
 311:C:/Users/stapi/OneDrive/Desktop/GD32VW553/V1_MQTT_OK/GD32VW55X_Wifi_BLE_SDK/GD32VW55x_RELEASE_V1.0.2/MSDK/cloud/alicloud/src/services/linkkit/dm/client\dm_client.c **** }
 300              		.loc 1 311 1 is_stmt 0
 301 001c 4101     		addi	sp,sp,16
 302              		.cfi_def_cfa_offset 0
 303 001e 17030000 		tail	__riscv_restore_0
 303      67000300 
 304              		.cfi_restore 1
 305              		.cfi_def_cfa_offset -16
 306              		.cfi_endproc
 307              	.LFE29:
 309              		.section	.text.dm_client_thing_deviceinfo_update_reply,"ax",@progbits
 310              		.align	1
 311              		.globl	dm_client_thing_deviceinfo_update_reply
 313              	dm_client_thing_deviceinfo_update_reply:
 314              	.LFB30:
 312:C:/Users/stapi/OneDrive/Desktop/GD32VW553/V1_MQTT_OK/GD32VW55X_Wifi_BLE_SDK/GD32VW55x_RELEASE_V1.0.2/MSDK/cloud/alicloud/src/services/linkkit/dm/client\dm_client.c **** 
 313:C:/Users/stapi/OneDrive/Desktop/GD32VW553/V1_MQTT_OK/GD32VW55X_Wifi_BLE_SDK/GD32VW55x_RELEASE_V1.0.2/MSDK/cloud/alicloud/src/services/linkkit/dm/client\dm_client.c **** void dm_client_thing_deviceinfo_update_reply(int fd, const char *topic, const char *payload, unsign
 314:C:/Users/stapi/OneDrive/Desktop/GD32VW553/V1_MQTT_OK/GD32VW55X_Wifi_BLE_SDK/GD32VW55x_RELEASE_V1.0.2/MSDK/cloud/alicloud/src/services/linkkit/dm/client\dm_client.c ****         void *context)
 315:C:/Users/stapi/OneDrive/Desktop/GD32VW553/V1_MQTT_OK/GD32VW55X_Wifi_BLE_SDK/GD32VW55x_RELEASE_V1.0.2/MSDK/cloud/alicloud/src/services/linkkit/dm/client\dm_client.c **** {
 315              		.loc 1 315 1 is_stmt 1
 316              		.cfi_startproc
 317              	.LVL24:
 318 0000 17030000 		call	t0,__riscv_save_0
 318      E7020300 
 319              		.cfi_offset 1, -4
 320              		.cfi_def_cfa_offset 16
 316:C:/Users/stapi/OneDrive/Desktop/GD32VW553/V1_MQTT_OK/GD32VW55X_Wifi_BLE_SDK/GD32VW55x_RELEASE_V1.0.2/MSDK/cloud/alicloud/src/services/linkkit/dm/client\dm_client.c ****     dm_msg_source_t source;
 321              		.loc 1 316 5
 317:C:/Users/stapi/OneDrive/Desktop/GD32VW553/V1_MQTT_OK/GD32VW55X_Wifi_BLE_SDK/GD32VW55x_RELEASE_V1.0.2/MSDK/cloud/alicloud/src/services/linkkit/dm/client\dm_client.c **** 
 318:C:/Users/stapi/OneDrive/Desktop/GD32VW553/V1_MQTT_OK/GD32VW55X_Wifi_BLE_SDK/GD32VW55x_RELEASE_V1.0.2/MSDK/cloud/alicloud/src/services/linkkit/dm/client\dm_client.c ****     memset(&source, 0, sizeof(dm_msg_source_t));
 322              		.loc 1 318 5
 315:C:/Users/stapi/OneDrive/Desktop/GD32VW553/V1_MQTT_OK/GD32VW55X_Wifi_BLE_SDK/GD32VW55x_RELEASE_V1.0.2/MSDK/cloud/alicloud/src/services/linkkit/dm/client\dm_client.c ****     dm_msg_source_t source;
 323              		.loc 1 315 1 is_stmt 0
 324 0008 4111     		addi	sp,sp,-16
 325              		.cfi_def_cfa_offset 32
 319:C:/Users/stapi/OneDrive/Desktop/GD32VW553/V1_MQTT_OK/GD32VW55X_Wifi_BLE_SDK/GD32VW55x_RELEASE_V1.0.2/MSDK/cloud/alicloud/src/services/linkkit/dm/client\dm_client.c **** 
 320:C:/Users/stapi/OneDrive/Desktop/GD32VW553/V1_MQTT_OK/GD32VW55X_Wifi_BLE_SDK/GD32VW55x_RELEASE_V1.0.2/MSDK/cloud/alicloud/src/services/linkkit/dm/client\dm_client.c ****     source.uri = topic;
 321:C:/Users/stapi/OneDrive/Desktop/GD32VW553/V1_MQTT_OK/GD32VW55X_Wifi_BLE_SDK/GD32VW55x_RELEASE_V1.0.2/MSDK/cloud/alicloud/src/services/linkkit/dm/client\dm_client.c ****     source.payload = (unsigned char *)payload;
 322:C:/Users/stapi/OneDrive/Desktop/GD32VW553/V1_MQTT_OK/GD32VW55X_Wifi_BLE_SDK/GD32VW55x_RELEASE_V1.0.2/MSDK/cloud/alicloud/src/services/linkkit/dm/client\dm_client.c ****     source.payload_len = payload_len;
 323:C:/Users/stapi/OneDrive/Desktop/GD32VW553/V1_MQTT_OK/GD32VW55X_Wifi_BLE_SDK/GD32VW55x_RELEASE_V1.0.2/MSDK/cloud/alicloud/src/services/linkkit/dm/client\dm_client.c ****     source.context = NULL;
 324:C:/Users/stapi/OneDrive/Desktop/GD32VW553/V1_MQTT_OK/GD32VW55X_Wifi_BLE_SDK/GD32VW55x_RELEASE_V1.0.2/MSDK/cloud/alicloud/src/services/linkkit/dm/client\dm_client.c **** 
 325:C:/Users/stapi/OneDrive/Desktop/GD32VW553/V1_MQTT_OK/GD32VW55X_Wifi_BLE_SDK/GD32VW55x_RELEASE_V1.0.2/MSDK/cloud/alicloud/src/services/linkkit/dm/client\dm_client.c ****     dm_msg_proc_thing_deviceinfo_update_reply(&source);
 326              		.loc 1 325 5
 327 000a 0A85     		mv	a0,sp
 328              	.LVL25:
 320:C:/Users/stapi/OneDrive/Desktop/GD32VW553/V1_MQTT_OK/GD32VW55X_Wifi_BLE_SDK/GD32VW55x_RELEASE_V1.0.2/MSDK/cloud/alicloud/src/services/linkkit/dm/client\dm_client.c ****     source.payload = (unsigned char *)payload;
 329              		.loc 1 320 16
 330 000c 2EC0     		sw	a1,0(sp)
 321:C:/Users/stapi/OneDrive/Desktop/GD32VW553/V1_MQTT_OK/GD32VW55X_Wifi_BLE_SDK/GD32VW55x_RELEASE_V1.0.2/MSDK/cloud/alicloud/src/services/linkkit/dm/client\dm_client.c ****     source.payload_len = payload_len;
 331              		.loc 1 321 20
 332 000e 32C2     		sw	a2,4(sp)
 322:C:/Users/stapi/OneDrive/Desktop/GD32VW553/V1_MQTT_OK/GD32VW55X_Wifi_BLE_SDK/GD32VW55x_RELEASE_V1.0.2/MSDK/cloud/alicloud/src/services/linkkit/dm/client\dm_client.c ****     source.context = NULL;
 333              		.loc 1 322 24
 334 0010 36C4     		sw	a3,8(sp)
 318:C:/Users/stapi/OneDrive/Desktop/GD32VW553/V1_MQTT_OK/GD32VW55X_Wifi_BLE_SDK/GD32VW55x_RELEASE_V1.0.2/MSDK/cloud/alicloud/src/services/linkkit/dm/client\dm_client.c **** 
 335              		.loc 1 318 5
 336 0012 02C6     		sw	zero,12(sp)
 320:C:/Users/stapi/OneDrive/Desktop/GD32VW553/V1_MQTT_OK/GD32VW55X_Wifi_BLE_SDK/GD32VW55x_RELEASE_V1.0.2/MSDK/cloud/alicloud/src/services/linkkit/dm/client\dm_client.c ****     source.payload = (unsigned char *)payload;
 337              		.loc 1 320 5 is_stmt 1
 321:C:/Users/stapi/OneDrive/Desktop/GD32VW553/V1_MQTT_OK/GD32VW55X_Wifi_BLE_SDK/GD32VW55x_RELEASE_V1.0.2/MSDK/cloud/alicloud/src/services/linkkit/dm/client\dm_client.c ****     source.payload_len = payload_len;
 338              		.loc 1 321 5
 322:C:/Users/stapi/OneDrive/Desktop/GD32VW553/V1_MQTT_OK/GD32VW55X_Wifi_BLE_SDK/GD32VW55x_RELEASE_V1.0.2/MSDK/cloud/alicloud/src/services/linkkit/dm/client\dm_client.c ****     source.context = NULL;
 339              		.loc 1 322 5
 323:C:/Users/stapi/OneDrive/Desktop/GD32VW553/V1_MQTT_OK/GD32VW55X_Wifi_BLE_SDK/GD32VW55x_RELEASE_V1.0.2/MSDK/cloud/alicloud/src/services/linkkit/dm/client\dm_client.c **** 
 340              		.loc 1 323 5
 341              		.loc 1 325 5
 342 0014 97000000 		call	dm_msg_proc_thing_deviceinfo_update_reply
 342      E7800000 
 343              	.LVL26:
 326:C:/Users/stapi/OneDrive/Desktop/GD32VW553/V1_MQTT_OK/GD32VW55X_Wifi_BLE_SDK/GD32VW55x_RELEASE_V1.0.2/MSDK/cloud/alicloud/src/services/linkkit/dm/client\dm_client.c **** }
 344              		.loc 1 326 1 is_stmt 0
 345 001c 4101     		addi	sp,sp,16
 346              		.cfi_def_cfa_offset 0
 347 001e 17030000 		tail	__riscv_restore_0
 347      67000300 
 348              		.cfi_restore 1
 349              		.cfi_def_cfa_offset -16
 350              		.cfi_endproc
 351              	.LFE30:
 353              		.section	.text.dm_client_thing_deviceinfo_delete_reply,"ax",@progbits
 354              		.align	1
 355              		.globl	dm_client_thing_deviceinfo_delete_reply
 357              	dm_client_thing_deviceinfo_delete_reply:
 358              	.LFB31:
 327:C:/Users/stapi/OneDrive/Desktop/GD32VW553/V1_MQTT_OK/GD32VW55X_Wifi_BLE_SDK/GD32VW55x_RELEASE_V1.0.2/MSDK/cloud/alicloud/src/services/linkkit/dm/client\dm_client.c **** 
 328:C:/Users/stapi/OneDrive/Desktop/GD32VW553/V1_MQTT_OK/GD32VW55X_Wifi_BLE_SDK/GD32VW55x_RELEASE_V1.0.2/MSDK/cloud/alicloud/src/services/linkkit/dm/client\dm_client.c **** void dm_client_thing_deviceinfo_delete_reply(int fd, const char *topic, const char *payload, unsign
 329:C:/Users/stapi/OneDrive/Desktop/GD32VW553/V1_MQTT_OK/GD32VW55X_Wifi_BLE_SDK/GD32VW55x_RELEASE_V1.0.2/MSDK/cloud/alicloud/src/services/linkkit/dm/client\dm_client.c ****         void *context)
 330:C:/Users/stapi/OneDrive/Desktop/GD32VW553/V1_MQTT_OK/GD32VW55X_Wifi_BLE_SDK/GD32VW55x_RELEASE_V1.0.2/MSDK/cloud/alicloud/src/services/linkkit/dm/client\dm_client.c **** {
 359              		.loc 1 330 1 is_stmt 1
 360              		.cfi_startproc
 361              	.LVL27:
 362 0000 17030000 		call	t0,__riscv_save_0
 362      E7020300 
 363              		.cfi_offset 1, -4
 364              		.cfi_def_cfa_offset 16
 331:C:/Users/stapi/OneDrive/Desktop/GD32VW553/V1_MQTT_OK/GD32VW55X_Wifi_BLE_SDK/GD32VW55x_RELEASE_V1.0.2/MSDK/cloud/alicloud/src/services/linkkit/dm/client\dm_client.c ****     dm_msg_source_t source;
 365              		.loc 1 331 5
 332:C:/Users/stapi/OneDrive/Desktop/GD32VW553/V1_MQTT_OK/GD32VW55X_Wifi_BLE_SDK/GD32VW55x_RELEASE_V1.0.2/MSDK/cloud/alicloud/src/services/linkkit/dm/client\dm_client.c **** 
 333:C:/Users/stapi/OneDrive/Desktop/GD32VW553/V1_MQTT_OK/GD32VW55X_Wifi_BLE_SDK/GD32VW55x_RELEASE_V1.0.2/MSDK/cloud/alicloud/src/services/linkkit/dm/client\dm_client.c ****     memset(&source, 0, sizeof(dm_msg_source_t));
 366              		.loc 1 333 5
 330:C:/Users/stapi/OneDrive/Desktop/GD32VW553/V1_MQTT_OK/GD32VW55X_Wifi_BLE_SDK/GD32VW55x_RELEASE_V1.0.2/MSDK/cloud/alicloud/src/services/linkkit/dm/client\dm_client.c ****     dm_msg_source_t source;
 367              		.loc 1 330 1 is_stmt 0
 368 0008 4111     		addi	sp,sp,-16
 369              		.cfi_def_cfa_offset 32
 334:C:/Users/stapi/OneDrive/Desktop/GD32VW553/V1_MQTT_OK/GD32VW55X_Wifi_BLE_SDK/GD32VW55x_RELEASE_V1.0.2/MSDK/cloud/alicloud/src/services/linkkit/dm/client\dm_client.c **** 
 335:C:/Users/stapi/OneDrive/Desktop/GD32VW553/V1_MQTT_OK/GD32VW55X_Wifi_BLE_SDK/GD32VW55x_RELEASE_V1.0.2/MSDK/cloud/alicloud/src/services/linkkit/dm/client\dm_client.c ****     source.uri = topic;
 336:C:/Users/stapi/OneDrive/Desktop/GD32VW553/V1_MQTT_OK/GD32VW55X_Wifi_BLE_SDK/GD32VW55x_RELEASE_V1.0.2/MSDK/cloud/alicloud/src/services/linkkit/dm/client\dm_client.c ****     source.payload = (unsigned char *)payload;
 337:C:/Users/stapi/OneDrive/Desktop/GD32VW553/V1_MQTT_OK/GD32VW55X_Wifi_BLE_SDK/GD32VW55x_RELEASE_V1.0.2/MSDK/cloud/alicloud/src/services/linkkit/dm/client\dm_client.c ****     source.payload_len = payload_len;
 338:C:/Users/stapi/OneDrive/Desktop/GD32VW553/V1_MQTT_OK/GD32VW55X_Wifi_BLE_SDK/GD32VW55x_RELEASE_V1.0.2/MSDK/cloud/alicloud/src/services/linkkit/dm/client\dm_client.c ****     source.context = NULL;
 339:C:/Users/stapi/OneDrive/Desktop/GD32VW553/V1_MQTT_OK/GD32VW55X_Wifi_BLE_SDK/GD32VW55x_RELEASE_V1.0.2/MSDK/cloud/alicloud/src/services/linkkit/dm/client\dm_client.c **** 
 340:C:/Users/stapi/OneDrive/Desktop/GD32VW553/V1_MQTT_OK/GD32VW55X_Wifi_BLE_SDK/GD32VW55x_RELEASE_V1.0.2/MSDK/cloud/alicloud/src/services/linkkit/dm/client\dm_client.c ****     dm_msg_proc_thing_deviceinfo_delete_reply(&source);
 370              		.loc 1 340 5
 371 000a 0A85     		mv	a0,sp
 372              	.LVL28:
 335:C:/Users/stapi/OneDrive/Desktop/GD32VW553/V1_MQTT_OK/GD32VW55X_Wifi_BLE_SDK/GD32VW55x_RELEASE_V1.0.2/MSDK/cloud/alicloud/src/services/linkkit/dm/client\dm_client.c ****     source.payload = (unsigned char *)payload;
 373              		.loc 1 335 16
 374 000c 2EC0     		sw	a1,0(sp)
 336:C:/Users/stapi/OneDrive/Desktop/GD32VW553/V1_MQTT_OK/GD32VW55X_Wifi_BLE_SDK/GD32VW55x_RELEASE_V1.0.2/MSDK/cloud/alicloud/src/services/linkkit/dm/client\dm_client.c ****     source.payload_len = payload_len;
 375              		.loc 1 336 20
 376 000e 32C2     		sw	a2,4(sp)
 337:C:/Users/stapi/OneDrive/Desktop/GD32VW553/V1_MQTT_OK/GD32VW55X_Wifi_BLE_SDK/GD32VW55x_RELEASE_V1.0.2/MSDK/cloud/alicloud/src/services/linkkit/dm/client\dm_client.c ****     source.context = NULL;
 377              		.loc 1 337 24
 378 0010 36C4     		sw	a3,8(sp)
 333:C:/Users/stapi/OneDrive/Desktop/GD32VW553/V1_MQTT_OK/GD32VW55X_Wifi_BLE_SDK/GD32VW55x_RELEASE_V1.0.2/MSDK/cloud/alicloud/src/services/linkkit/dm/client\dm_client.c **** 
 379              		.loc 1 333 5
 380 0012 02C6     		sw	zero,12(sp)
 335:C:/Users/stapi/OneDrive/Desktop/GD32VW553/V1_MQTT_OK/GD32VW55X_Wifi_BLE_SDK/GD32VW55x_RELEASE_V1.0.2/MSDK/cloud/alicloud/src/services/linkkit/dm/client\dm_client.c ****     source.payload = (unsigned char *)payload;
 381              		.loc 1 335 5 is_stmt 1
 336:C:/Users/stapi/OneDrive/Desktop/GD32VW553/V1_MQTT_OK/GD32VW55X_Wifi_BLE_SDK/GD32VW55x_RELEASE_V1.0.2/MSDK/cloud/alicloud/src/services/linkkit/dm/client\dm_client.c ****     source.payload_len = payload_len;
 382              		.loc 1 336 5
 337:C:/Users/stapi/OneDrive/Desktop/GD32VW553/V1_MQTT_OK/GD32VW55X_Wifi_BLE_SDK/GD32VW55x_RELEASE_V1.0.2/MSDK/cloud/alicloud/src/services/linkkit/dm/client\dm_client.c ****     source.context = NULL;
 383              		.loc 1 337 5
 338:C:/Users/stapi/OneDrive/Desktop/GD32VW553/V1_MQTT_OK/GD32VW55X_Wifi_BLE_SDK/GD32VW55x_RELEASE_V1.0.2/MSDK/cloud/alicloud/src/services/linkkit/dm/client\dm_client.c **** 
 384              		.loc 1 338 5
 385              		.loc 1 340 5
 386 0014 97000000 		call	dm_msg_proc_thing_deviceinfo_delete_reply
 386      E7800000 
 387              	.LVL29:
 341:C:/Users/stapi/OneDrive/Desktop/GD32VW553/V1_MQTT_OK/GD32VW55X_Wifi_BLE_SDK/GD32VW55x_RELEASE_V1.0.2/MSDK/cloud/alicloud/src/services/linkkit/dm/client\dm_client.c **** }
 388              		.loc 1 341 1 is_stmt 0
 389 001c 4101     		addi	sp,sp,16
 390              		.cfi_def_cfa_offset 0
 391 001e 17030000 		tail	__riscv_restore_0
 391      67000300 
 392              		.cfi_restore 1
 393              		.cfi_def_cfa_offset -16
 394              		.cfi_endproc
 395              	.LFE31:
 397              		.section	.text.dm_client_thing_event_notify,"ax",@progbits
 398              		.align	1
 399              		.globl	dm_client_thing_event_notify
 401              	dm_client_thing_event_notify:
 402              	.LFB33:
 342:C:/Users/stapi/OneDrive/Desktop/GD32VW553/V1_MQTT_OK/GD32VW55X_Wifi_BLE_SDK/GD32VW55x_RELEASE_V1.0.2/MSDK/cloud/alicloud/src/services/linkkit/dm/client\dm_client.c **** #endif /*end of DEVICE_MODEL_RAWDATA_SOLO*/
 343:C:/Users/stapi/OneDrive/Desktop/GD32VW553/V1_MQTT_OK/GD32VW55X_Wifi_BLE_SDK/GD32VW55x_RELEASE_V1.0.2/MSDK/cloud/alicloud/src/services/linkkit/dm/client\dm_client.c **** 
 344:C:/Users/stapi/OneDrive/Desktop/GD32VW553/V1_MQTT_OK/GD32VW55X_Wifi_BLE_SDK/GD32VW55x_RELEASE_V1.0.2/MSDK/cloud/alicloud/src/services/linkkit/dm/client\dm_client.c **** void dm_client_thing_event_notify_reply(int fd, const char *topic, const char *payload, unsigned in
 345:C:/Users/stapi/OneDrive/Desktop/GD32VW553/V1_MQTT_OK/GD32VW55X_Wifi_BLE_SDK/GD32VW55x_RELEASE_V1.0.2/MSDK/cloud/alicloud/src/services/linkkit/dm/client\dm_client.c ****                                       void *context)
 346:C:/Users/stapi/OneDrive/Desktop/GD32VW553/V1_MQTT_OK/GD32VW55X_Wifi_BLE_SDK/GD32VW55x_RELEASE_V1.0.2/MSDK/cloud/alicloud/src/services/linkkit/dm/client\dm_client.c **** {
 347:C:/Users/stapi/OneDrive/Desktop/GD32VW553/V1_MQTT_OK/GD32VW55X_Wifi_BLE_SDK/GD32VW55x_RELEASE_V1.0.2/MSDK/cloud/alicloud/src/services/linkkit/dm/client\dm_client.c ****     dm_msg_source_t source;
 348:C:/Users/stapi/OneDrive/Desktop/GD32VW553/V1_MQTT_OK/GD32VW55X_Wifi_BLE_SDK/GD32VW55x_RELEASE_V1.0.2/MSDK/cloud/alicloud/src/services/linkkit/dm/client\dm_client.c **** 
 349:C:/Users/stapi/OneDrive/Desktop/GD32VW553/V1_MQTT_OK/GD32VW55X_Wifi_BLE_SDK/GD32VW55x_RELEASE_V1.0.2/MSDK/cloud/alicloud/src/services/linkkit/dm/client\dm_client.c ****     memset(&source, 0, sizeof(dm_msg_source_t));
 350:C:/Users/stapi/OneDrive/Desktop/GD32VW553/V1_MQTT_OK/GD32VW55X_Wifi_BLE_SDK/GD32VW55x_RELEASE_V1.0.2/MSDK/cloud/alicloud/src/services/linkkit/dm/client\dm_client.c **** 
 351:C:/Users/stapi/OneDrive/Desktop/GD32VW553/V1_MQTT_OK/GD32VW55X_Wifi_BLE_SDK/GD32VW55x_RELEASE_V1.0.2/MSDK/cloud/alicloud/src/services/linkkit/dm/client\dm_client.c ****     source.uri = topic;
 352:C:/Users/stapi/OneDrive/Desktop/GD32VW553/V1_MQTT_OK/GD32VW55X_Wifi_BLE_SDK/GD32VW55x_RELEASE_V1.0.2/MSDK/cloud/alicloud/src/services/linkkit/dm/client\dm_client.c ****     source.payload = (unsigned char *)payload;
 353:C:/Users/stapi/OneDrive/Desktop/GD32VW553/V1_MQTT_OK/GD32VW55X_Wifi_BLE_SDK/GD32VW55x_RELEASE_V1.0.2/MSDK/cloud/alicloud/src/services/linkkit/dm/client\dm_client.c ****     source.payload_len = payload_len;
 354:C:/Users/stapi/OneDrive/Desktop/GD32VW553/V1_MQTT_OK/GD32VW55X_Wifi_BLE_SDK/GD32VW55x_RELEASE_V1.0.2/MSDK/cloud/alicloud/src/services/linkkit/dm/client\dm_client.c ****     source.context = NULL;
 355:C:/Users/stapi/OneDrive/Desktop/GD32VW553/V1_MQTT_OK/GD32VW55X_Wifi_BLE_SDK/GD32VW55x_RELEASE_V1.0.2/MSDK/cloud/alicloud/src/services/linkkit/dm/client\dm_client.c **** 
 356:C:/Users/stapi/OneDrive/Desktop/GD32VW553/V1_MQTT_OK/GD32VW55X_Wifi_BLE_SDK/GD32VW55x_RELEASE_V1.0.2/MSDK/cloud/alicloud/src/services/linkkit/dm/client\dm_client.c ****     dm_msg_proc_thing_event_notify_reply(&source);
 357:C:/Users/stapi/OneDrive/Desktop/GD32VW553/V1_MQTT_OK/GD32VW55X_Wifi_BLE_SDK/GD32VW55x_RELEASE_V1.0.2/MSDK/cloud/alicloud/src/services/linkkit/dm/client\dm_client.c **** }
 358:C:/Users/stapi/OneDrive/Desktop/GD32VW553/V1_MQTT_OK/GD32VW55X_Wifi_BLE_SDK/GD32VW55x_RELEASE_V1.0.2/MSDK/cloud/alicloud/src/services/linkkit/dm/client\dm_client.c **** 
 359:C:/Users/stapi/OneDrive/Desktop/GD32VW553/V1_MQTT_OK/GD32VW55X_Wifi_BLE_SDK/GD32VW55x_RELEASE_V1.0.2/MSDK/cloud/alicloud/src/services/linkkit/dm/client\dm_client.c **** void dm_client_thing_event_notify(int fd, const char *topic, const char *payload, unsigned int payl
 360:C:/Users/stapi/OneDrive/Desktop/GD32VW553/V1_MQTT_OK/GD32VW55X_Wifi_BLE_SDK/GD32VW55x_RELEASE_V1.0.2/MSDK/cloud/alicloud/src/services/linkkit/dm/client\dm_client.c ****         void *context)
 361:C:/Users/stapi/OneDrive/Desktop/GD32VW553/V1_MQTT_OK/GD32VW55X_Wifi_BLE_SDK/GD32VW55x_RELEASE_V1.0.2/MSDK/cloud/alicloud/src/services/linkkit/dm/client\dm_client.c **** {
 403              		.loc 1 361 1 is_stmt 1
 404              		.cfi_startproc
 405              	.LVL30:
 406 0000 17030000 		call	t0,__riscv_save_3
 406      E7020300 
 407              		.cfi_offset 18, -16
 408              		.cfi_offset 9, -12
 409              		.cfi_offset 8, -8
 410              		.cfi_offset 1, -4
 411              		.cfi_def_cfa_offset 16
 362:C:/Users/stapi/OneDrive/Desktop/GD32VW553/V1_MQTT_OK/GD32VW55X_Wifi_BLE_SDK/GD32VW55x_RELEASE_V1.0.2/MSDK/cloud/alicloud/src/services/linkkit/dm/client\dm_client.c ****     int res = 0;
 412              		.loc 1 362 5
 413              	.LVL31:
 363:C:/Users/stapi/OneDrive/Desktop/GD32VW553/V1_MQTT_OK/GD32VW55X_Wifi_BLE_SDK/GD32VW55x_RELEASE_V1.0.2/MSDK/cloud/alicloud/src/services/linkkit/dm/client\dm_client.c ****     dm_msg_source_t source;
 414              		.loc 1 363 5
 364:C:/Users/stapi/OneDrive/Desktop/GD32VW553/V1_MQTT_OK/GD32VW55X_Wifi_BLE_SDK/GD32VW55x_RELEASE_V1.0.2/MSDK/cloud/alicloud/src/services/linkkit/dm/client\dm_client.c ****     dm_msg_dest_t dest;
 415              		.loc 1 364 5
 365:C:/Users/stapi/OneDrive/Desktop/GD32VW553/V1_MQTT_OK/GD32VW55X_Wifi_BLE_SDK/GD32VW55x_RELEASE_V1.0.2/MSDK/cloud/alicloud/src/services/linkkit/dm/client\dm_client.c ****     dm_msg_request_payload_t request;
 416              		.loc 1 365 5
 366:C:/Users/stapi/OneDrive/Desktop/GD32VW553/V1_MQTT_OK/GD32VW55X_Wifi_BLE_SDK/GD32VW55x_RELEASE_V1.0.2/MSDK/cloud/alicloud/src/services/linkkit/dm/client\dm_client.c ****     dm_msg_response_t response;
 417              		.loc 1 366 5
 367:C:/Users/stapi/OneDrive/Desktop/GD32VW553/V1_MQTT_OK/GD32VW55X_Wifi_BLE_SDK/GD32VW55x_RELEASE_V1.0.2/MSDK/cloud/alicloud/src/services/linkkit/dm/client\dm_client.c **** 
 368:C:/Users/stapi/OneDrive/Desktop/GD32VW553/V1_MQTT_OK/GD32VW55X_Wifi_BLE_SDK/GD32VW55x_RELEASE_V1.0.2/MSDK/cloud/alicloud/src/services/linkkit/dm/client\dm_client.c ****     memset(&source, 0, sizeof(dm_msg_source_t));
 418              		.loc 1 368 5
 361:C:/Users/stapi/OneDrive/Desktop/GD32VW553/V1_MQTT_OK/GD32VW55X_Wifi_BLE_SDK/GD32VW55x_RELEASE_V1.0.2/MSDK/cloud/alicloud/src/services/linkkit/dm/client\dm_client.c ****     int res = 0;
 419              		.loc 1 361 1 is_stmt 0
 420 0008 1571     		addi	sp,sp,-224
 421              		.cfi_def_cfa_offset 240
 361:C:/Users/stapi/OneDrive/Desktop/GD32VW553/V1_MQTT_OK/GD32VW55X_Wifi_BLE_SDK/GD32VW55x_RELEASE_V1.0.2/MSDK/cloud/alicloud/src/services/linkkit/dm/client\dm_client.c ****     int res = 0;
 422              		.loc 1 361 1
 423 000a 2E89     		mv	s2,a1
 424 000c B284     		mv	s1,a2
 369:C:/Users/stapi/OneDrive/Desktop/GD32VW553/V1_MQTT_OK/GD32VW55X_Wifi_BLE_SDK/GD32VW55x_RELEASE_V1.0.2/MSDK/cloud/alicloud/src/services/linkkit/dm/client\dm_client.c ****     memset(&dest, 0, sizeof(dm_msg_dest_t));
 370:C:/Users/stapi/OneDrive/Desktop/GD32VW553/V1_MQTT_OK/GD32VW55X_Wifi_BLE_SDK/GD32VW55x_RELEASE_V1.0.2/MSDK/cloud/alicloud/src/services/linkkit/dm/client\dm_client.c ****     memset(&request, 0, sizeof(dm_msg_request_payload_t));
 425              		.loc 1 370 5
 426 000e 8145     		li	a1,0
 427              	.LVL32:
 428 0010 13060008 		li	a2,128
 429              	.LVL33:
 430 0014 8810     		addi	a0,sp,96
 431              	.LVL34:
 361:C:/Users/stapi/OneDrive/Desktop/GD32VW553/V1_MQTT_OK/GD32VW55X_Wifi_BLE_SDK/GD32VW55x_RELEASE_V1.0.2/MSDK/cloud/alicloud/src/services/linkkit/dm/client\dm_client.c ****     int res = 0;
 432              		.loc 1 361 1
 433 0016 3684     		mv	s0,a3
 368:C:/Users/stapi/OneDrive/Desktop/GD32VW553/V1_MQTT_OK/GD32VW55X_Wifi_BLE_SDK/GD32VW55x_RELEASE_V1.0.2/MSDK/cloud/alicloud/src/services/linkkit/dm/client\dm_client.c ****     memset(&dest, 0, sizeof(dm_msg_dest_t));
 434              		.loc 1 368 5
 435 0018 02CC     		sw	zero,24(sp)
 369:C:/Users/stapi/OneDrive/Desktop/GD32VW553/V1_MQTT_OK/GD32VW55X_Wifi_BLE_SDK/GD32VW55x_RELEASE_V1.0.2/MSDK/cloud/alicloud/src/services/linkkit/dm/client\dm_client.c ****     memset(&dest, 0, sizeof(dm_msg_dest_t));
 436              		.loc 1 369 5 is_stmt 1
 437              		.loc 1 370 5
 438 001a 97000000 		call	memset
 438      E7800000 
 439              	.LVL35:
 371:C:/Users/stapi/OneDrive/Desktop/GD32VW553/V1_MQTT_OK/GD32VW55X_Wifi_BLE_SDK/GD32VW55x_RELEASE_V1.0.2/MSDK/cloud/alicloud/src/services/linkkit/dm/client\dm_client.c ****     memset(&response, 0, sizeof(dm_msg_response_t));
 440              		.loc 1 371 5
 441 0022 13064004 		li	a2,68
 442 0026 8145     		li	a1,0
 443 0028 6808     		addi	a0,sp,28
 444 002a 97000000 		call	memset
 444      E7800000 
 445              	.LVL36:
 372:C:/Users/stapi/OneDrive/Desktop/GD32VW553/V1_MQTT_OK/GD32VW55X_Wifi_BLE_SDK/GD32VW55x_RELEASE_V1.0.2/MSDK/cloud/alicloud/src/services/linkkit/dm/client\dm_client.c **** 
 373:C:/Users/stapi/OneDrive/Desktop/GD32VW553/V1_MQTT_OK/GD32VW55X_Wifi_BLE_SDK/GD32VW55x_RELEASE_V1.0.2/MSDK/cloud/alicloud/src/services/linkkit/dm/client\dm_client.c ****     source.uri = topic;
 446              		.loc 1 373 5
 374:C:/Users/stapi/OneDrive/Desktop/GD32VW553/V1_MQTT_OK/GD32VW55X_Wifi_BLE_SDK/GD32VW55x_RELEASE_V1.0.2/MSDK/cloud/alicloud/src/services/linkkit/dm/client\dm_client.c ****     source.payload = (unsigned char *)payload;
 375:C:/Users/stapi/OneDrive/Desktop/GD32VW553/V1_MQTT_OK/GD32VW55X_Wifi_BLE_SDK/GD32VW55x_RELEASE_V1.0.2/MSDK/cloud/alicloud/src/services/linkkit/dm/client\dm_client.c ****     source.payload_len = payload_len;
 376:C:/Users/stapi/OneDrive/Desktop/GD32VW553/V1_MQTT_OK/GD32VW55X_Wifi_BLE_SDK/GD32VW55x_RELEASE_V1.0.2/MSDK/cloud/alicloud/src/services/linkkit/dm/client\dm_client.c ****     source.context = NULL;
 377:C:/Users/stapi/OneDrive/Desktop/GD32VW553/V1_MQTT_OK/GD32VW55X_Wifi_BLE_SDK/GD32VW55x_RELEASE_V1.0.2/MSDK/cloud/alicloud/src/services/linkkit/dm/client\dm_client.c **** 
 378:C:/Users/stapi/OneDrive/Desktop/GD32VW553/V1_MQTT_OK/GD32VW55X_Wifi_BLE_SDK/GD32VW55x_RELEASE_V1.0.2/MSDK/cloud/alicloud/src/services/linkkit/dm/client\dm_client.c ****     dest.uri_name = DM_URI_THING_EVENT_NOTIFY_REPLY;
 447              		.loc 1 378 19 is_stmt 0
 448 0032 B7070000 		lui	a5,%hi(DM_URI_THING_EVENT_NOTIFY_REPLY)
 449 0036 93870700 		addi	a5,a5,%lo(DM_URI_THING_EVENT_NOTIFY_REPLY)
 379:C:/Users/stapi/OneDrive/Desktop/GD32VW553/V1_MQTT_OK/GD32VW55X_Wifi_BLE_SDK/GD32VW55x_RELEASE_V1.0.2/MSDK/cloud/alicloud/src/services/linkkit/dm/client\dm_client.c **** 
 380:C:/Users/stapi/OneDrive/Desktop/GD32VW553/V1_MQTT_OK/GD32VW55X_Wifi_BLE_SDK/GD32VW55x_RELEASE_V1.0.2/MSDK/cloud/alicloud/src/services/linkkit/dm/client\dm_client.c ****     res = dm_msg_proc_thing_event_notify(&source, &dest, &request, &response);
 450              		.loc 1 380 11
 451 003a 7408     		addi	a3,sp,28
 452 003c 9010     		addi	a2,sp,96
 453 003e 4C00     		addi	a1,sp,4
 454 0040 6800     		addi	a0,sp,12
 373:C:/Users/stapi/OneDrive/Desktop/GD32VW553/V1_MQTT_OK/GD32VW55X_Wifi_BLE_SDK/GD32VW55x_RELEASE_V1.0.2/MSDK/cloud/alicloud/src/services/linkkit/dm/client\dm_client.c ****     source.payload = (unsigned char *)payload;
 455              		.loc 1 373 16
 456 0042 4AC6     		sw	s2,12(sp)
 374:C:/Users/stapi/OneDrive/Desktop/GD32VW553/V1_MQTT_OK/GD32VW55X_Wifi_BLE_SDK/GD32VW55x_RELEASE_V1.0.2/MSDK/cloud/alicloud/src/services/linkkit/dm/client\dm_client.c ****     source.payload = (unsigned char *)payload;
 457              		.loc 1 374 5 is_stmt 1
 374:C:/Users/stapi/OneDrive/Desktop/GD32VW553/V1_MQTT_OK/GD32VW55X_Wifi_BLE_SDK/GD32VW55x_RELEASE_V1.0.2/MSDK/cloud/alicloud/src/services/linkkit/dm/client\dm_client.c ****     source.payload = (unsigned char *)payload;
 458              		.loc 1 374 20 is_stmt 0
 459 0044 26C8     		sw	s1,16(sp)
 375:C:/Users/stapi/OneDrive/Desktop/GD32VW553/V1_MQTT_OK/GD32VW55X_Wifi_BLE_SDK/GD32VW55x_RELEASE_V1.0.2/MSDK/cloud/alicloud/src/services/linkkit/dm/client\dm_client.c ****     source.context = NULL;
 460              		.loc 1 375 5 is_stmt 1
 375:C:/Users/stapi/OneDrive/Desktop/GD32VW553/V1_MQTT_OK/GD32VW55X_Wifi_BLE_SDK/GD32VW55x_RELEASE_V1.0.2/MSDK/cloud/alicloud/src/services/linkkit/dm/client\dm_client.c ****     source.context = NULL;
 461              		.loc 1 375 24 is_stmt 0
 462 0046 22CA     		sw	s0,20(sp)
 376:C:/Users/stapi/OneDrive/Desktop/GD32VW553/V1_MQTT_OK/GD32VW55X_Wifi_BLE_SDK/GD32VW55x_RELEASE_V1.0.2/MSDK/cloud/alicloud/src/services/linkkit/dm/client\dm_client.c **** 
 463              		.loc 1 376 5 is_stmt 1
 378:C:/Users/stapi/OneDrive/Desktop/GD32VW553/V1_MQTT_OK/GD32VW55X_Wifi_BLE_SDK/GD32VW55x_RELEASE_V1.0.2/MSDK/cloud/alicloud/src/services/linkkit/dm/client\dm_client.c **** 
 464              		.loc 1 378 5
 378:C:/Users/stapi/OneDrive/Desktop/GD32VW553/V1_MQTT_OK/GD32VW55X_Wifi_BLE_SDK/GD32VW55x_RELEASE_V1.0.2/MSDK/cloud/alicloud/src/services/linkkit/dm/client\dm_client.c **** 
 465              		.loc 1 378 19 is_stmt 0
 466 0048 3EC2     		sw	a5,4(sp)
 467              		.loc 1 380 5 is_stmt 1
 468              		.loc 1 380 11 is_stmt 0
 469 004a 97000000 		call	dm_msg_proc_thing_event_notify
 469      E7800000 
 470              	.LVL37:
 381:C:/Users/stapi/OneDrive/Desktop/GD32VW553/V1_MQTT_OK/GD32VW55X_Wifi_BLE_SDK/GD32VW55x_RELEASE_V1.0.2/MSDK/cloud/alicloud/src/services/linkkit/dm/client\dm_client.c ****     if (res < SUCCESS_RETURN) {
 471              		.loc 1 381 5 is_stmt 1
 472              		.loc 1 381 8 is_stmt 0
 473 0052 63490502 		blt	a0,zero,.L20
 382:C:/Users/stapi/OneDrive/Desktop/GD32VW553/V1_MQTT_OK/GD32VW55X_Wifi_BLE_SDK/GD32VW55x_RELEASE_V1.0.2/MSDK/cloud/alicloud/src/services/linkkit/dm/client\dm_client.c ****         return;
 383:C:/Users/stapi/OneDrive/Desktop/GD32VW553/V1_MQTT_OK/GD32VW55X_Wifi_BLE_SDK/GD32VW55x_RELEASE_V1.0.2/MSDK/cloud/alicloud/src/services/linkkit/dm/client\dm_client.c ****     }
 384:C:/Users/stapi/OneDrive/Desktop/GD32VW553/V1_MQTT_OK/GD32VW55X_Wifi_BLE_SDK/GD32VW55x_RELEASE_V1.0.2/MSDK/cloud/alicloud/src/services/linkkit/dm/client\dm_client.c **** 
 385:C:/Users/stapi/OneDrive/Desktop/GD32VW553/V1_MQTT_OK/GD32VW55X_Wifi_BLE_SDK/GD32VW55x_RELEASE_V1.0.2/MSDK/cloud/alicloud/src/services/linkkit/dm/client\dm_client.c ****     int event_notify_reply_opt = 0;
 474              		.loc 1 385 5 is_stmt 1
 386:C:/Users/stapi/OneDrive/Desktop/GD32VW553/V1_MQTT_OK/GD32VW55X_Wifi_BLE_SDK/GD32VW55x_RELEASE_V1.0.2/MSDK/cloud/alicloud/src/services/linkkit/dm/client\dm_client.c ****     res = dm_opt_get(DM_OPT_UPSTREAM_EVENT_NOTIFY_REPLY, &event_notify_reply_opt);
 475              		.loc 1 386 11 is_stmt 0
 476 0056 2C00     		addi	a1,sp,8
 477 0058 0D45     		li	a0,3
 478              	.LVL38:
 385:C:/Users/stapi/OneDrive/Desktop/GD32VW553/V1_MQTT_OK/GD32VW55X_Wifi_BLE_SDK/GD32VW55x_RELEASE_V1.0.2/MSDK/cloud/alicloud/src/services/linkkit/dm/client\dm_client.c ****     res = dm_opt_get(DM_OPT_UPSTREAM_EVENT_NOTIFY_REPLY, &event_notify_reply_opt);
 479              		.loc 1 385 9
 480 005a 02C4     		sw	zero,8(sp)
 481              		.loc 1 386 5 is_stmt 1
 482              		.loc 1 386 11 is_stmt 0
 483 005c 97000000 		call	dm_opt_get
 483      E7800000 
 484              	.LVL39:
 387:C:/Users/stapi/OneDrive/Desktop/GD32VW553/V1_MQTT_OK/GD32VW55X_Wifi_BLE_SDK/GD32VW55x_RELEASE_V1.0.2/MSDK/cloud/alicloud/src/services/linkkit/dm/client\dm_client.c ****     if (res == SUCCESS_RETURN) {
 485              		.loc 1 387 5 is_stmt 1
 486              		.loc 1 387 8 is_stmt 0
 487 0064 05E1     		bne	a0,zero,.L20
 388:C:/Users/stapi/OneDrive/Desktop/GD32VW553/V1_MQTT_OK/GD32VW55X_Wifi_BLE_SDK/GD32VW55x_RELEASE_V1.0.2/MSDK/cloud/alicloud/src/services/linkkit/dm/client\dm_client.c ****         if (event_notify_reply_opt) {
 488              		.loc 1 388 9 is_stmt 1
 489              		.loc 1 388 12 is_stmt 0
 490 0066 A247     		lw	a5,8(sp)
 491 0068 91CF     		beq	a5,zero,.L20
 389:C:/Users/stapi/OneDrive/Desktop/GD32VW553/V1_MQTT_OK/GD32VW55X_Wifi_BLE_SDK/GD32VW55x_RELEASE_V1.0.2/MSDK/cloud/alicloud/src/services/linkkit/dm/client\dm_client.c ****             dm_msg_response(DM_MSG_DEST_CLOUD, &request, &response, "{}", strlen("{}"), NULL);
 492              		.loc 1 389 13 is_stmt 1
 493 006a B7060000 		lui	a3,%hi(.LC0)
 494 006e 8147     		li	a5,0
 495 0070 0947     		li	a4,2
 496 0072 93860600 		addi	a3,a3,%lo(.LC0)
 497 0076 7008     		addi	a2,sp,28
 498 0078 8C10     		addi	a1,sp,96
 499 007a 0545     		li	a0,1
 500              	.LVL40:
 501 007c 97000000 		call	dm_msg_response
 501      E7800000 
 502              	.LVL41:
 503              	.L20:
 390:C:/Users/stapi/OneDrive/Desktop/GD32VW553/V1_MQTT_OK/GD32VW55X_Wifi_BLE_SDK/GD32VW55x_RELEASE_V1.0.2/MSDK/cloud/alicloud/src/services/linkkit/dm/client\dm_client.c **** #ifdef LOG_REPORT_TO_CLOUD
 391:C:/Users/stapi/OneDrive/Desktop/GD32VW553/V1_MQTT_OK/GD32VW55X_Wifi_BLE_SDK/GD32VW55x_RELEASE_V1.0.2/MSDK/cloud/alicloud/src/services/linkkit/dm/client\dm_client.c ****             if (SUCCESS_RETURN == check_target_msg(request.id.value, request.id.value_length)) {
 392:C:/Users/stapi/OneDrive/Desktop/GD32VW553/V1_MQTT_OK/GD32VW55X_Wifi_BLE_SDK/GD32VW55x_RELEASE_V1.0.2/MSDK/cloud/alicloud/src/services/linkkit/dm/client\dm_client.c ****                 send_permance_info(request.id.value, request.id.value_length, "2", 1);
 393:C:/Users/stapi/OneDrive/Desktop/GD32VW553/V1_MQTT_OK/GD32VW55X_Wifi_BLE_SDK/GD32VW55x_RELEASE_V1.0.2/MSDK/cloud/alicloud/src/services/linkkit/dm/client\dm_client.c ****             }
 394:C:/Users/stapi/OneDrive/Desktop/GD32VW553/V1_MQTT_OK/GD32VW55X_Wifi_BLE_SDK/GD32VW55x_RELEASE_V1.0.2/MSDK/cloud/alicloud/src/services/linkkit/dm/client\dm_client.c **** #endif
 395:C:/Users/stapi/OneDrive/Desktop/GD32VW553/V1_MQTT_OK/GD32VW55X_Wifi_BLE_SDK/GD32VW55x_RELEASE_V1.0.2/MSDK/cloud/alicloud/src/services/linkkit/dm/client\dm_client.c ****         }
 396:C:/Users/stapi/OneDrive/Desktop/GD32VW553/V1_MQTT_OK/GD32VW55X_Wifi_BLE_SDK/GD32VW55x_RELEASE_V1.0.2/MSDK/cloud/alicloud/src/services/linkkit/dm/client\dm_client.c ****     }
 397:C:/Users/stapi/OneDrive/Desktop/GD32VW553/V1_MQTT_OK/GD32VW55X_Wifi_BLE_SDK/GD32VW55x_RELEASE_V1.0.2/MSDK/cloud/alicloud/src/services/linkkit/dm/client\dm_client.c **** }
 504              		.loc 1 397 1 is_stmt 0
 505 0084 2D61     		addi	sp,sp,224
 506              		.cfi_def_cfa_offset 0
 507 0086 17030000 		tail	__riscv_restore_3
 507      67000300 
 508              		.cfi_restore 18
 509              		.cfi_restore 9
 510              		.cfi_restore 8
 511              		.cfi_restore 1
 512              		.cfi_def_cfa_offset -16
 513              		.cfi_endproc
 514              	.LFE33:
 516              		.section	.text.dm_client_rrpc_request_wildcard,"ax",@progbits
 517              		.align	1
 518              		.globl	dm_client_rrpc_request_wildcard
 520              	dm_client_rrpc_request_wildcard:
 521              	.LFB34:
 398:C:/Users/stapi/OneDrive/Desktop/GD32VW553/V1_MQTT_OK/GD32VW55X_Wifi_BLE_SDK/GD32VW55x_RELEASE_V1.0.2/MSDK/cloud/alicloud/src/services/linkkit/dm/client\dm_client.c **** 
 399:C:/Users/stapi/OneDrive/Desktop/GD32VW553/V1_MQTT_OK/GD32VW55X_Wifi_BLE_SDK/GD32VW55x_RELEASE_V1.0.2/MSDK/cloud/alicloud/src/services/linkkit/dm/client\dm_client.c **** void dm_client_rrpc_request_wildcard(int fd, const char *topic, const char *payload, unsigned int p
 400:C:/Users/stapi/OneDrive/Desktop/GD32VW553/V1_MQTT_OK/GD32VW55X_Wifi_BLE_SDK/GD32VW55x_RELEASE_V1.0.2/MSDK/cloud/alicloud/src/services/linkkit/dm/client\dm_client.c ****                                      void *context)
 401:C:/Users/stapi/OneDrive/Desktop/GD32VW553/V1_MQTT_OK/GD32VW55X_Wifi_BLE_SDK/GD32VW55x_RELEASE_V1.0.2/MSDK/cloud/alicloud/src/services/linkkit/dm/client\dm_client.c **** {
 522              		.loc 1 401 1 is_stmt 1
 523              		.cfi_startproc
 524              	.LVL42:
 525 0000 17030000 		call	t0,__riscv_save_0
 525      E7020300 
 526              		.cfi_offset 1, -4
 527              		.cfi_def_cfa_offset 16
 402:C:/Users/stapi/OneDrive/Desktop/GD32VW553/V1_MQTT_OK/GD32VW55X_Wifi_BLE_SDK/GD32VW55x_RELEASE_V1.0.2/MSDK/cloud/alicloud/src/services/linkkit/dm/client\dm_client.c ****     dm_msg_source_t source;
 528              		.loc 1 402 5
 403:C:/Users/stapi/OneDrive/Desktop/GD32VW553/V1_MQTT_OK/GD32VW55X_Wifi_BLE_SDK/GD32VW55x_RELEASE_V1.0.2/MSDK/cloud/alicloud/src/services/linkkit/dm/client\dm_client.c **** 
 404:C:/Users/stapi/OneDrive/Desktop/GD32VW553/V1_MQTT_OK/GD32VW55X_Wifi_BLE_SDK/GD32VW55x_RELEASE_V1.0.2/MSDK/cloud/alicloud/src/services/linkkit/dm/client\dm_client.c ****     memset(&source, 0, sizeof(dm_msg_source_t));
 529              		.loc 1 404 5
 401:C:/Users/stapi/OneDrive/Desktop/GD32VW553/V1_MQTT_OK/GD32VW55X_Wifi_BLE_SDK/GD32VW55x_RELEASE_V1.0.2/MSDK/cloud/alicloud/src/services/linkkit/dm/client\dm_client.c ****     dm_msg_source_t source;
 530              		.loc 1 401 1 is_stmt 0
 531 0008 4111     		addi	sp,sp,-16
 532              		.cfi_def_cfa_offset 32
 405:C:/Users/stapi/OneDrive/Desktop/GD32VW553/V1_MQTT_OK/GD32VW55X_Wifi_BLE_SDK/GD32VW55x_RELEASE_V1.0.2/MSDK/cloud/alicloud/src/services/linkkit/dm/client\dm_client.c **** 
 406:C:/Users/stapi/OneDrive/Desktop/GD32VW553/V1_MQTT_OK/GD32VW55X_Wifi_BLE_SDK/GD32VW55x_RELEASE_V1.0.2/MSDK/cloud/alicloud/src/services/linkkit/dm/client\dm_client.c ****     source.uri = topic;
 407:C:/Users/stapi/OneDrive/Desktop/GD32VW553/V1_MQTT_OK/GD32VW55X_Wifi_BLE_SDK/GD32VW55x_RELEASE_V1.0.2/MSDK/cloud/alicloud/src/services/linkkit/dm/client\dm_client.c ****     source.payload = (unsigned char *)payload;
 408:C:/Users/stapi/OneDrive/Desktop/GD32VW553/V1_MQTT_OK/GD32VW55X_Wifi_BLE_SDK/GD32VW55x_RELEASE_V1.0.2/MSDK/cloud/alicloud/src/services/linkkit/dm/client\dm_client.c ****     source.payload_len = payload_len;
 409:C:/Users/stapi/OneDrive/Desktop/GD32VW553/V1_MQTT_OK/GD32VW55X_Wifi_BLE_SDK/GD32VW55x_RELEASE_V1.0.2/MSDK/cloud/alicloud/src/services/linkkit/dm/client\dm_client.c ****     source.context = NULL;
 410:C:/Users/stapi/OneDrive/Desktop/GD32VW553/V1_MQTT_OK/GD32VW55X_Wifi_BLE_SDK/GD32VW55x_RELEASE_V1.0.2/MSDK/cloud/alicloud/src/services/linkkit/dm/client\dm_client.c **** 
 411:C:/Users/stapi/OneDrive/Desktop/GD32VW553/V1_MQTT_OK/GD32VW55X_Wifi_BLE_SDK/GD32VW55x_RELEASE_V1.0.2/MSDK/cloud/alicloud/src/services/linkkit/dm/client\dm_client.c ****     dm_msg_proc_rrpc_request(&source);
 533              		.loc 1 411 5
 534 000a 0A85     		mv	a0,sp
 535              	.LVL43:
 406:C:/Users/stapi/OneDrive/Desktop/GD32VW553/V1_MQTT_OK/GD32VW55X_Wifi_BLE_SDK/GD32VW55x_RELEASE_V1.0.2/MSDK/cloud/alicloud/src/services/linkkit/dm/client\dm_client.c ****     source.payload = (unsigned char *)payload;
 536              		.loc 1 406 16
 537 000c 2EC0     		sw	a1,0(sp)
 407:C:/Users/stapi/OneDrive/Desktop/GD32VW553/V1_MQTT_OK/GD32VW55X_Wifi_BLE_SDK/GD32VW55x_RELEASE_V1.0.2/MSDK/cloud/alicloud/src/services/linkkit/dm/client\dm_client.c ****     source.payload_len = payload_len;
 538              		.loc 1 407 20
 539 000e 32C2     		sw	a2,4(sp)
 408:C:/Users/stapi/OneDrive/Desktop/GD32VW553/V1_MQTT_OK/GD32VW55X_Wifi_BLE_SDK/GD32VW55x_RELEASE_V1.0.2/MSDK/cloud/alicloud/src/services/linkkit/dm/client\dm_client.c ****     source.context = NULL;
 540              		.loc 1 408 24
 541 0010 36C4     		sw	a3,8(sp)
 404:C:/Users/stapi/OneDrive/Desktop/GD32VW553/V1_MQTT_OK/GD32VW55X_Wifi_BLE_SDK/GD32VW55x_RELEASE_V1.0.2/MSDK/cloud/alicloud/src/services/linkkit/dm/client\dm_client.c **** 
 542              		.loc 1 404 5
 543 0012 02C6     		sw	zero,12(sp)
 406:C:/Users/stapi/OneDrive/Desktop/GD32VW553/V1_MQTT_OK/GD32VW55X_Wifi_BLE_SDK/GD32VW55x_RELEASE_V1.0.2/MSDK/cloud/alicloud/src/services/linkkit/dm/client\dm_client.c ****     source.payload = (unsigned char *)payload;
 544              		.loc 1 406 5 is_stmt 1
 407:C:/Users/stapi/OneDrive/Desktop/GD32VW553/V1_MQTT_OK/GD32VW55X_Wifi_BLE_SDK/GD32VW55x_RELEASE_V1.0.2/MSDK/cloud/alicloud/src/services/linkkit/dm/client\dm_client.c ****     source.payload_len = payload_len;
 545              		.loc 1 407 5
 408:C:/Users/stapi/OneDrive/Desktop/GD32VW553/V1_MQTT_OK/GD32VW55X_Wifi_BLE_SDK/GD32VW55x_RELEASE_V1.0.2/MSDK/cloud/alicloud/src/services/linkkit/dm/client\dm_client.c ****     source.context = NULL;
 546              		.loc 1 408 5
 409:C:/Users/stapi/OneDrive/Desktop/GD32VW553/V1_MQTT_OK/GD32VW55X_Wifi_BLE_SDK/GD32VW55x_RELEASE_V1.0.2/MSDK/cloud/alicloud/src/services/linkkit/dm/client\dm_client.c **** 
 547              		.loc 1 409 5
 548              		.loc 1 411 5
 549 0014 97000000 		call	dm_msg_proc_rrpc_request
 549      E7800000 
 550              	.LVL44:
 412:C:/Users/stapi/OneDrive/Desktop/GD32VW553/V1_MQTT_OK/GD32VW55X_Wifi_BLE_SDK/GD32VW55x_RELEASE_V1.0.2/MSDK/cloud/alicloud/src/services/linkkit/dm/client\dm_client.c **** }
 551              		.loc 1 412 1 is_stmt 0
 552 001c 4101     		addi	sp,sp,16
 553              		.cfi_def_cfa_offset 0
 554 001e 17030000 		tail	__riscv_restore_0
 554      67000300 
 555              		.cfi_restore 1
 556              		.cfi_def_cfa_offset -16
 557              		.cfi_endproc
 558              	.LFE34:
 560              		.section	.text.dm_client_ntp_response,"ax",@progbits
 561              		.align	1
 562              		.globl	dm_client_ntp_response
 564              	dm_client_ntp_response:
 565              	.LFB35:
 413:C:/Users/stapi/OneDrive/Desktop/GD32VW553/V1_MQTT_OK/GD32VW55X_Wifi_BLE_SDK/GD32VW55x_RELEASE_V1.0.2/MSDK/cloud/alicloud/src/services/linkkit/dm/client\dm_client.c **** 
 414:C:/Users/stapi/OneDrive/Desktop/GD32VW553/V1_MQTT_OK/GD32VW55X_Wifi_BLE_SDK/GD32VW55x_RELEASE_V1.0.2/MSDK/cloud/alicloud/src/services/linkkit/dm/client\dm_client.c **** void dm_client_ntp_response(int fd, const char *topic, const char *payload, unsigned int payload_le
 415:C:/Users/stapi/OneDrive/Desktop/GD32VW553/V1_MQTT_OK/GD32VW55X_Wifi_BLE_SDK/GD32VW55x_RELEASE_V1.0.2/MSDK/cloud/alicloud/src/services/linkkit/dm/client\dm_client.c **** {
 566              		.loc 1 415 1 is_stmt 1
 567              		.cfi_startproc
 568              	.LVL45:
 569 0000 17030000 		call	t0,__riscv_save_0
 569      E7020300 
 570              		.cfi_offset 1, -4
 571              		.cfi_def_cfa_offset 16
 416:C:/Users/stapi/OneDrive/Desktop/GD32VW553/V1_MQTT_OK/GD32VW55X_Wifi_BLE_SDK/GD32VW55x_RELEASE_V1.0.2/MSDK/cloud/alicloud/src/services/linkkit/dm/client\dm_client.c ****     dm_msg_source_t source;
 572              		.loc 1 416 5
 417:C:/Users/stapi/OneDrive/Desktop/GD32VW553/V1_MQTT_OK/GD32VW55X_Wifi_BLE_SDK/GD32VW55x_RELEASE_V1.0.2/MSDK/cloud/alicloud/src/services/linkkit/dm/client\dm_client.c **** 
 418:C:/Users/stapi/OneDrive/Desktop/GD32VW553/V1_MQTT_OK/GD32VW55X_Wifi_BLE_SDK/GD32VW55x_RELEASE_V1.0.2/MSDK/cloud/alicloud/src/services/linkkit/dm/client\dm_client.c ****     memset(&source, 0, sizeof(dm_msg_source_t));
 573              		.loc 1 418 5
 415:C:/Users/stapi/OneDrive/Desktop/GD32VW553/V1_MQTT_OK/GD32VW55X_Wifi_BLE_SDK/GD32VW55x_RELEASE_V1.0.2/MSDK/cloud/alicloud/src/services/linkkit/dm/client\dm_client.c ****     dm_msg_source_t source;
 574              		.loc 1 415 1 is_stmt 0
 575 0008 4111     		addi	sp,sp,-16
 576              		.cfi_def_cfa_offset 32
 419:C:/Users/stapi/OneDrive/Desktop/GD32VW553/V1_MQTT_OK/GD32VW55X_Wifi_BLE_SDK/GD32VW55x_RELEASE_V1.0.2/MSDK/cloud/alicloud/src/services/linkkit/dm/client\dm_client.c **** 
 420:C:/Users/stapi/OneDrive/Desktop/GD32VW553/V1_MQTT_OK/GD32VW55X_Wifi_BLE_SDK/GD32VW55x_RELEASE_V1.0.2/MSDK/cloud/alicloud/src/services/linkkit/dm/client\dm_client.c ****     source.uri = topic;
 421:C:/Users/stapi/OneDrive/Desktop/GD32VW553/V1_MQTT_OK/GD32VW55X_Wifi_BLE_SDK/GD32VW55x_RELEASE_V1.0.2/MSDK/cloud/alicloud/src/services/linkkit/dm/client\dm_client.c ****     source.payload = (unsigned char *)payload;
 422:C:/Users/stapi/OneDrive/Desktop/GD32VW553/V1_MQTT_OK/GD32VW55X_Wifi_BLE_SDK/GD32VW55x_RELEASE_V1.0.2/MSDK/cloud/alicloud/src/services/linkkit/dm/client\dm_client.c ****     source.payload_len = payload_len;
 423:C:/Users/stapi/OneDrive/Desktop/GD32VW553/V1_MQTT_OK/GD32VW55X_Wifi_BLE_SDK/GD32VW55x_RELEASE_V1.0.2/MSDK/cloud/alicloud/src/services/linkkit/dm/client\dm_client.c ****     source.context = NULL;
 424:C:/Users/stapi/OneDrive/Desktop/GD32VW553/V1_MQTT_OK/GD32VW55X_Wifi_BLE_SDK/GD32VW55x_RELEASE_V1.0.2/MSDK/cloud/alicloud/src/services/linkkit/dm/client\dm_client.c **** 
 425:C:/Users/stapi/OneDrive/Desktop/GD32VW553/V1_MQTT_OK/GD32VW55X_Wifi_BLE_SDK/GD32VW55x_RELEASE_V1.0.2/MSDK/cloud/alicloud/src/services/linkkit/dm/client\dm_client.c ****     dm_disp_ntp_response(&source);
 577              		.loc 1 425 5
 578 000a 0A85     		mv	a0,sp
 579              	.LVL46:
 420:C:/Users/stapi/OneDrive/Desktop/GD32VW553/V1_MQTT_OK/GD32VW55X_Wifi_BLE_SDK/GD32VW55x_RELEASE_V1.0.2/MSDK/cloud/alicloud/src/services/linkkit/dm/client\dm_client.c ****     source.payload = (unsigned char *)payload;
 580              		.loc 1 420 16
 581 000c 2EC0     		sw	a1,0(sp)
 421:C:/Users/stapi/OneDrive/Desktop/GD32VW553/V1_MQTT_OK/GD32VW55X_Wifi_BLE_SDK/GD32VW55x_RELEASE_V1.0.2/MSDK/cloud/alicloud/src/services/linkkit/dm/client\dm_client.c ****     source.payload_len = payload_len;
 582              		.loc 1 421 20
 583 000e 32C2     		sw	a2,4(sp)
 422:C:/Users/stapi/OneDrive/Desktop/GD32VW553/V1_MQTT_OK/GD32VW55X_Wifi_BLE_SDK/GD32VW55x_RELEASE_V1.0.2/MSDK/cloud/alicloud/src/services/linkkit/dm/client\dm_client.c ****     source.context = NULL;
 584              		.loc 1 422 24
 585 0010 36C4     		sw	a3,8(sp)
 418:C:/Users/stapi/OneDrive/Desktop/GD32VW553/V1_MQTT_OK/GD32VW55X_Wifi_BLE_SDK/GD32VW55x_RELEASE_V1.0.2/MSDK/cloud/alicloud/src/services/linkkit/dm/client\dm_client.c **** 
 586              		.loc 1 418 5
 587 0012 02C6     		sw	zero,12(sp)
 420:C:/Users/stapi/OneDrive/Desktop/GD32VW553/V1_MQTT_OK/GD32VW55X_Wifi_BLE_SDK/GD32VW55x_RELEASE_V1.0.2/MSDK/cloud/alicloud/src/services/linkkit/dm/client\dm_client.c ****     source.payload = (unsigned char *)payload;
 588              		.loc 1 420 5 is_stmt 1
 421:C:/Users/stapi/OneDrive/Desktop/GD32VW553/V1_MQTT_OK/GD32VW55X_Wifi_BLE_SDK/GD32VW55x_RELEASE_V1.0.2/MSDK/cloud/alicloud/src/services/linkkit/dm/client\dm_client.c ****     source.payload_len = payload_len;
 589              		.loc 1 421 5
 422:C:/Users/stapi/OneDrive/Desktop/GD32VW553/V1_MQTT_OK/GD32VW55X_Wifi_BLE_SDK/GD32VW55x_RELEASE_V1.0.2/MSDK/cloud/alicloud/src/services/linkkit/dm/client\dm_client.c ****     source.context = NULL;
 590              		.loc 1 422 5
 423:C:/Users/stapi/OneDrive/Desktop/GD32VW553/V1_MQTT_OK/GD32VW55X_Wifi_BLE_SDK/GD32VW55x_RELEASE_V1.0.2/MSDK/cloud/alicloud/src/services/linkkit/dm/client\dm_client.c **** 
 591              		.loc 1 423 5
 592              		.loc 1 425 5
 593 0014 97000000 		call	dm_disp_ntp_response
 593      E7800000 
 594              	.LVL47:
 426:C:/Users/stapi/OneDrive/Desktop/GD32VW553/V1_MQTT_OK/GD32VW55X_Wifi_BLE_SDK/GD32VW55x_RELEASE_V1.0.2/MSDK/cloud/alicloud/src/services/linkkit/dm/client\dm_client.c **** }
 595              		.loc 1 426 1 is_stmt 0
 596 001c 4101     		addi	sp,sp,16
 597              		.cfi_def_cfa_offset 0
 598 001e 17030000 		tail	__riscv_restore_0
 598      67000300 
 599              		.cfi_restore 1
 600              		.cfi_def_cfa_offset -16
 601              		.cfi_endproc
 602              	.LFE35:
 604              		.section	.text.dm_client_ext_error,"ax",@progbits
 605              		.align	1
 606              		.globl	dm_client_ext_error
 608              	dm_client_ext_error:
 609              	.LFB36:
 427:C:/Users/stapi/OneDrive/Desktop/GD32VW553/V1_MQTT_OK/GD32VW55X_Wifi_BLE_SDK/GD32VW55x_RELEASE_V1.0.2/MSDK/cloud/alicloud/src/services/linkkit/dm/client\dm_client.c **** 
 428:C:/Users/stapi/OneDrive/Desktop/GD32VW553/V1_MQTT_OK/GD32VW55X_Wifi_BLE_SDK/GD32VW55x_RELEASE_V1.0.2/MSDK/cloud/alicloud/src/services/linkkit/dm/client\dm_client.c **** void dm_client_ext_error(int fd, const char *topic, const char *payload, unsigned int payload_len, 
 429:C:/Users/stapi/OneDrive/Desktop/GD32VW553/V1_MQTT_OK/GD32VW55X_Wifi_BLE_SDK/GD32VW55x_RELEASE_V1.0.2/MSDK/cloud/alicloud/src/services/linkkit/dm/client\dm_client.c **** {
 610              		.loc 1 429 1 is_stmt 1
 611              		.cfi_startproc
 612              	.LVL48:
 613 0000 17030000 		call	t0,__riscv_save_0
 613      E7020300 
 614              		.cfi_offset 1, -4
 615              		.cfi_def_cfa_offset 16
 430:C:/Users/stapi/OneDrive/Desktop/GD32VW553/V1_MQTT_OK/GD32VW55X_Wifi_BLE_SDK/GD32VW55x_RELEASE_V1.0.2/MSDK/cloud/alicloud/src/services/linkkit/dm/client\dm_client.c ****     dm_msg_source_t source;
 616              		.loc 1 430 5
 431:C:/Users/stapi/OneDrive/Desktop/GD32VW553/V1_MQTT_OK/GD32VW55X_Wifi_BLE_SDK/GD32VW55x_RELEASE_V1.0.2/MSDK/cloud/alicloud/src/services/linkkit/dm/client\dm_client.c **** 
 432:C:/Users/stapi/OneDrive/Desktop/GD32VW553/V1_MQTT_OK/GD32VW55X_Wifi_BLE_SDK/GD32VW55x_RELEASE_V1.0.2/MSDK/cloud/alicloud/src/services/linkkit/dm/client\dm_client.c ****     memset(&source, 0, sizeof(dm_msg_source_t));
 617              		.loc 1 432 5
 429:C:/Users/stapi/OneDrive/Desktop/GD32VW553/V1_MQTT_OK/GD32VW55X_Wifi_BLE_SDK/GD32VW55x_RELEASE_V1.0.2/MSDK/cloud/alicloud/src/services/linkkit/dm/client\dm_client.c ****     dm_msg_source_t source;
 618              		.loc 1 429 1 is_stmt 0
 619 0008 4111     		addi	sp,sp,-16
 620              		.cfi_def_cfa_offset 32
 433:C:/Users/stapi/OneDrive/Desktop/GD32VW553/V1_MQTT_OK/GD32VW55X_Wifi_BLE_SDK/GD32VW55x_RELEASE_V1.0.2/MSDK/cloud/alicloud/src/services/linkkit/dm/client\dm_client.c **** 
 434:C:/Users/stapi/OneDrive/Desktop/GD32VW553/V1_MQTT_OK/GD32VW55X_Wifi_BLE_SDK/GD32VW55x_RELEASE_V1.0.2/MSDK/cloud/alicloud/src/services/linkkit/dm/client\dm_client.c ****     source.uri = topic;
 435:C:/Users/stapi/OneDrive/Desktop/GD32VW553/V1_MQTT_OK/GD32VW55X_Wifi_BLE_SDK/GD32VW55x_RELEASE_V1.0.2/MSDK/cloud/alicloud/src/services/linkkit/dm/client\dm_client.c ****     source.payload = (unsigned char *)payload;
 436:C:/Users/stapi/OneDrive/Desktop/GD32VW553/V1_MQTT_OK/GD32VW55X_Wifi_BLE_SDK/GD32VW55x_RELEASE_V1.0.2/MSDK/cloud/alicloud/src/services/linkkit/dm/client\dm_client.c ****     source.payload_len = payload_len;
 437:C:/Users/stapi/OneDrive/Desktop/GD32VW553/V1_MQTT_OK/GD32VW55X_Wifi_BLE_SDK/GD32VW55x_RELEASE_V1.0.2/MSDK/cloud/alicloud/src/services/linkkit/dm/client\dm_client.c ****     source.context = NULL;
 438:C:/Users/stapi/OneDrive/Desktop/GD32VW553/V1_MQTT_OK/GD32VW55X_Wifi_BLE_SDK/GD32VW55x_RELEASE_V1.0.2/MSDK/cloud/alicloud/src/services/linkkit/dm/client\dm_client.c **** 
 439:C:/Users/stapi/OneDrive/Desktop/GD32VW553/V1_MQTT_OK/GD32VW55X_Wifi_BLE_SDK/GD32VW55x_RELEASE_V1.0.2/MSDK/cloud/alicloud/src/services/linkkit/dm/client\dm_client.c ****     dm_disp_ext_error_response(&source);
 621              		.loc 1 439 5
 622 000a 0A85     		mv	a0,sp
 623              	.LVL49:
 434:C:/Users/stapi/OneDrive/Desktop/GD32VW553/V1_MQTT_OK/GD32VW55X_Wifi_BLE_SDK/GD32VW55x_RELEASE_V1.0.2/MSDK/cloud/alicloud/src/services/linkkit/dm/client\dm_client.c ****     source.payload = (unsigned char *)payload;
 624              		.loc 1 434 16
 625 000c 2EC0     		sw	a1,0(sp)
 435:C:/Users/stapi/OneDrive/Desktop/GD32VW553/V1_MQTT_OK/GD32VW55X_Wifi_BLE_SDK/GD32VW55x_RELEASE_V1.0.2/MSDK/cloud/alicloud/src/services/linkkit/dm/client\dm_client.c ****     source.payload_len = payload_len;
 626              		.loc 1 435 20
 627 000e 32C2     		sw	a2,4(sp)
 436:C:/Users/stapi/OneDrive/Desktop/GD32VW553/V1_MQTT_OK/GD32VW55X_Wifi_BLE_SDK/GD32VW55x_RELEASE_V1.0.2/MSDK/cloud/alicloud/src/services/linkkit/dm/client\dm_client.c ****     source.context = NULL;
 628              		.loc 1 436 24
 629 0010 36C4     		sw	a3,8(sp)
 432:C:/Users/stapi/OneDrive/Desktop/GD32VW553/V1_MQTT_OK/GD32VW55X_Wifi_BLE_SDK/GD32VW55x_RELEASE_V1.0.2/MSDK/cloud/alicloud/src/services/linkkit/dm/client\dm_client.c **** 
 630              		.loc 1 432 5
 631 0012 02C6     		sw	zero,12(sp)
 434:C:/Users/stapi/OneDrive/Desktop/GD32VW553/V1_MQTT_OK/GD32VW55X_Wifi_BLE_SDK/GD32VW55x_RELEASE_V1.0.2/MSDK/cloud/alicloud/src/services/linkkit/dm/client\dm_client.c ****     source.payload = (unsigned char *)payload;
 632              		.loc 1 434 5 is_stmt 1
 435:C:/Users/stapi/OneDrive/Desktop/GD32VW553/V1_MQTT_OK/GD32VW55X_Wifi_BLE_SDK/GD32VW55x_RELEASE_V1.0.2/MSDK/cloud/alicloud/src/services/linkkit/dm/client\dm_client.c ****     source.payload_len = payload_len;
 633              		.loc 1 435 5
 436:C:/Users/stapi/OneDrive/Desktop/GD32VW553/V1_MQTT_OK/GD32VW55X_Wifi_BLE_SDK/GD32VW55x_RELEASE_V1.0.2/MSDK/cloud/alicloud/src/services/linkkit/dm/client\dm_client.c ****     source.context = NULL;
 634              		.loc 1 436 5
 437:C:/Users/stapi/OneDrive/Desktop/GD32VW553/V1_MQTT_OK/GD32VW55X_Wifi_BLE_SDK/GD32VW55x_RELEASE_V1.0.2/MSDK/cloud/alicloud/src/services/linkkit/dm/client\dm_client.c **** 
 635              		.loc 1 437 5
 636              		.loc 1 439 5
 637 0014 97000000 		call	dm_disp_ext_error_response
 637      E7800000 
 638              	.LVL50:
 440:C:/Users/stapi/OneDrive/Desktop/GD32VW553/V1_MQTT_OK/GD32VW55X_Wifi_BLE_SDK/GD32VW55x_RELEASE_V1.0.2/MSDK/cloud/alicloud/src/services/linkkit/dm/client\dm_client.c **** }
 639              		.loc 1 440 1 is_stmt 0
 640 001c 4101     		addi	sp,sp,16
 641              		.cfi_def_cfa_offset 0
 642 001e 17030000 		tail	__riscv_restore_0
 642      67000300 
 643              		.cfi_restore 1
 644              		.cfi_def_cfa_offset -16
 645              		.cfi_endproc
 646              	.LFE36:
 648              		.section	.rodata.dm_client_subscribe_all.str1.4,"aMS",@progbits,1
 649              		.align	2
 650              	.LC1:
 651 0000 2B00     		.string	"+"
 652              		.section	.text.dm_client_subscribe_all,"ax",@progbits
 653              		.align	1
 654              		.globl	dm_client_subscribe_all
 656              	dm_client_subscribe_all:
 657              	.LFB21:
  83:C:/Users/stapi/OneDrive/Desktop/GD32VW553/V1_MQTT_OK/GD32VW55X_Wifi_BLE_SDK/GD32VW55x_RELEASE_V1.0.2/MSDK/cloud/alicloud/src/services/linkkit/dm/client\dm_client.c ****     int res = 0, index = 0;
 658              		.loc 1 83 1 is_stmt 1
 659              		.cfi_startproc
 660              	.LVL51:
 661 0000 17030000 		call	t0,__riscv_save_5
 661      E7020300 
 662              		.cfi_offset 20, -24
 663              		.cfi_offset 19, -20
 664              		.cfi_offset 18, -16
 665              		.cfi_offset 9, -12
 666              		.cfi_offset 8, -8
 667              		.cfi_offset 1, -4
 668              		.cfi_def_cfa_offset 32
  84:C:/Users/stapi/OneDrive/Desktop/GD32VW553/V1_MQTT_OK/GD32VW55X_Wifi_BLE_SDK/GD32VW55x_RELEASE_V1.0.2/MSDK/cloud/alicloud/src/services/linkkit/dm/client\dm_client.c ****     int number = sizeof(g_dm_client_uri_map) / sizeof(dm_client_uri_map_t);
 669              		.loc 1 84 5
 670              	.LVL52:
  85:C:/Users/stapi/OneDrive/Desktop/GD32VW553/V1_MQTT_OK/GD32VW55X_Wifi_BLE_SDK/GD32VW55x_RELEASE_V1.0.2/MSDK/cloud/alicloud/src/services/linkkit/dm/client\dm_client.c ****     char *uri = NULL;
 671              		.loc 1 85 5
  86:C:/Users/stapi/OneDrive/Desktop/GD32VW553/V1_MQTT_OK/GD32VW55X_Wifi_BLE_SDK/GD32VW55x_RELEASE_V1.0.2/MSDK/cloud/alicloud/src/services/linkkit/dm/client\dm_client.c ****     uint8_t local_sub = 0;
 672              		.loc 1 86 5
  83:C:/Users/stapi/OneDrive/Desktop/GD32VW553/V1_MQTT_OK/GD32VW55X_Wifi_BLE_SDK/GD32VW55x_RELEASE_V1.0.2/MSDK/cloud/alicloud/src/services/linkkit/dm/client\dm_client.c ****     int res = 0, index = 0;
 673              		.loc 1 83 1 is_stmt 0
 674 0008 4111     		addi	sp,sp,-16
 675              		.cfi_def_cfa_offset 48
  83:C:/Users/stapi/OneDrive/Desktop/GD32VW553/V1_MQTT_OK/GD32VW55X_Wifi_BLE_SDK/GD32VW55x_RELEASE_V1.0.2/MSDK/cloud/alicloud/src/services/linkkit/dm/client\dm_client.c ****     int res = 0, index = 0;
 676              		.loc 1 83 1
 677 000a B684     		mv	s1,a3
  92:C:/Users/stapi/OneDrive/Desktop/GD32VW553/V1_MQTT_OK/GD32VW55X_Wifi_BLE_SDK/GD32VW55x_RELEASE_V1.0.2/MSDK/cloud/alicloud/src/services/linkkit/dm/client\dm_client.c ****                         product_key, device_name, &uri);
 678              		.loc 1 92 15
 679 000c 37050000 		lui	a0,%hi(DM_URI_SYS_PREFIX)
 680              	.LVL53:
 681 0010 B286     		mv	a3,a2
 682              	.LVL54:
 683 0012 2E86     		mv	a2,a1
 684              	.LVL55:
 685 0014 B7050000 		lui	a1,%hi(DM_URI_THING_EVENT_POST_REPLY_WILDCARD)
 686              	.LVL56:
 687 0018 3800     		addi	a4,sp,8
 688 001a 93850500 		addi	a1,a1,%lo(DM_URI_THING_EVENT_POST_REPLY_WILDCARD)
 689 001e 13050500 		addi	a0,a0,%lo(DM_URI_SYS_PREFIX)
  86:C:/Users/stapi/OneDrive/Desktop/GD32VW553/V1_MQTT_OK/GD32VW55X_Wifi_BLE_SDK/GD32VW55x_RELEASE_V1.0.2/MSDK/cloud/alicloud/src/services/linkkit/dm/client\dm_client.c ****     uint8_t local_sub = 0;
 690              		.loc 1 86 11
 691 0022 02C4     		sw	zero,8(sp)
  87:C:/Users/stapi/OneDrive/Desktop/GD32VW553/V1_MQTT_OK/GD32VW55X_Wifi_BLE_SDK/GD32VW55x_RELEASE_V1.0.2/MSDK/cloud/alicloud/src/services/linkkit/dm/client\dm_client.c **** 
 692              		.loc 1 87 5 is_stmt 1
  87:C:/Users/stapi/OneDrive/Desktop/GD32VW553/V1_MQTT_OK/GD32VW55X_Wifi_BLE_SDK/GD32VW55x_RELEASE_V1.0.2/MSDK/cloud/alicloud/src/services/linkkit/dm/client\dm_client.c **** 
 693              		.loc 1 87 13 is_stmt 0
 694 0024 A3030100 		sb	zero,7(sp)
  92:C:/Users/stapi/OneDrive/Desktop/GD32VW553/V1_MQTT_OK/GD32VW55X_Wifi_BLE_SDK/GD32VW55x_RELEASE_V1.0.2/MSDK/cloud/alicloud/src/services/linkkit/dm/client\dm_client.c ****                         product_key, device_name, &uri);
 695              		.loc 1 92 9 is_stmt 1
  92:C:/Users/stapi/OneDrive/Desktop/GD32VW553/V1_MQTT_OK/GD32VW55X_Wifi_BLE_SDK/GD32VW55x_RELEASE_V1.0.2/MSDK/cloud/alicloud/src/services/linkkit/dm/client\dm_client.c ****                         product_key, device_name, &uri);
 696              		.loc 1 92 15 is_stmt 0
 697 0028 97000000 		call	dm_utils_service_name
 697      E7800000 
 698              	.LVL57:
  94:C:/Users/stapi/OneDrive/Desktop/GD32VW553/V1_MQTT_OK/GD32VW55X_Wifi_BLE_SDK/GD32VW55x_RELEASE_V1.0.2/MSDK/cloud/alicloud/src/services/linkkit/dm/client\dm_client.c ****             _dm_client_subscribe_filter(uri, (iotx_cm_data_handle_cb)g_dm_client_uri_map[0].callbac
 699              		.loc 1 94 9 is_stmt 1
  94:C:/Users/stapi/OneDrive/Desktop/GD32VW553/V1_MQTT_OK/GD32VW55X_Wifi_BLE_SDK/GD32VW55x_RELEASE_V1.0.2/MSDK/cloud/alicloud/src/services/linkkit/dm/client\dm_client.c ****             _dm_client_subscribe_filter(uri, (iotx_cm_data_handle_cb)g_dm_client_uri_map[0].callbac
 700              		.loc 1 94 12 is_stmt 0
 701 0030 39E5     		bne	a0,zero,.L34
  95:C:/Users/stapi/OneDrive/Desktop/GD32VW553/V1_MQTT_OK/GD32VW55X_Wifi_BLE_SDK/GD32VW55x_RELEASE_V1.0.2/MSDK/cloud/alicloud/src/services/linkkit/dm/client\dm_client.c ****             DM_free(uri);
 702              		.loc 1 95 13 is_stmt 1
 703              	.LBB4:
 704              	.LBB5:
  62:C:/Users/stapi/OneDrive/Desktop/GD32VW553/V1_MQTT_OK/GD32VW55X_Wifi_BLE_SDK/GD32VW55x_RELEASE_V1.0.2/MSDK/cloud/alicloud/src/services/linkkit/dm/client\dm_client.c ****     if (res != SUCCESS_RETURN) {
 705              		.loc 1 62 11 is_stmt 0
 706 0032 6C00     		addi	a1,sp,12
 707 0034 0545     		li	a0,1
 708              	.LVL58:
 709              	.LBE5:
 710              	.LBE4:
  95:C:/Users/stapi/OneDrive/Desktop/GD32VW553/V1_MQTT_OK/GD32VW55X_Wifi_BLE_SDK/GD32VW55x_RELEASE_V1.0.2/MSDK/cloud/alicloud/src/services/linkkit/dm/client\dm_client.c ****             DM_free(uri);
 711              		.loc 1 95 13
 712 0036 2249     		lw	s2,8(sp)
 713              	.LVL59:
 714              	.LBB7:
 715              	.LBB6:
  58:C:/Users/stapi/OneDrive/Desktop/GD32VW553/V1_MQTT_OK/GD32VW55X_Wifi_BLE_SDK/GD32VW55x_RELEASE_V1.0.2/MSDK/cloud/alicloud/src/services/linkkit/dm/client\dm_client.c ****     int event_post_reply_opt = 0;
 716              		.loc 1 58 5 is_stmt 1
  59:C:/Users/stapi/OneDrive/Desktop/GD32VW553/V1_MQTT_OK/GD32VW55X_Wifi_BLE_SDK/GD32VW55x_RELEASE_V1.0.2/MSDK/cloud/alicloud/src/services/linkkit/dm/client\dm_client.c ****     int retry_cnt = IOTX_DM_CLIENT_SUB_RETRY_MAX_COUNTS;
 717              		.loc 1 59 5
  59:C:/Users/stapi/OneDrive/Desktop/GD32VW553/V1_MQTT_OK/GD32VW55X_Wifi_BLE_SDK/GD32VW55x_RELEASE_V1.0.2/MSDK/cloud/alicloud/src/services/linkkit/dm/client\dm_client.c ****     int retry_cnt = IOTX_DM_CLIENT_SUB_RETRY_MAX_COUNTS;
 718              		.loc 1 59 9 is_stmt 0
 719 0038 02C6     		sw	zero,12(sp)
  60:C:/Users/stapi/OneDrive/Desktop/GD32VW553/V1_MQTT_OK/GD32VW55X_Wifi_BLE_SDK/GD32VW55x_RELEASE_V1.0.2/MSDK/cloud/alicloud/src/services/linkkit/dm/client\dm_client.c **** 
 720              		.loc 1 60 5 is_stmt 1
 721              	.LVL60:
  62:C:/Users/stapi/OneDrive/Desktop/GD32VW553/V1_MQTT_OK/GD32VW55X_Wifi_BLE_SDK/GD32VW55x_RELEASE_V1.0.2/MSDK/cloud/alicloud/src/services/linkkit/dm/client\dm_client.c ****     if (res != SUCCESS_RETURN) {
 722              		.loc 1 62 5
  62:C:/Users/stapi/OneDrive/Desktop/GD32VW553/V1_MQTT_OK/GD32VW55X_Wifi_BLE_SDK/GD32VW55x_RELEASE_V1.0.2/MSDK/cloud/alicloud/src/services/linkkit/dm/client\dm_client.c ****     if (res != SUCCESS_RETURN) {
 723              		.loc 1 62 11 is_stmt 0
 724 003a 97000000 		call	dm_opt_get
 724      E7800000 
 725              	.LVL61:
  63:C:/Users/stapi/OneDrive/Desktop/GD32VW553/V1_MQTT_OK/GD32VW55X_Wifi_BLE_SDK/GD32VW55x_RELEASE_V1.0.2/MSDK/cloud/alicloud/src/services/linkkit/dm/client\dm_client.c ****         return res;
 726              		.loc 1 63 5 is_stmt 1
  63:C:/Users/stapi/OneDrive/Desktop/GD32VW553/V1_MQTT_OK/GD32VW55X_Wifi_BLE_SDK/GD32VW55x_RELEASE_V1.0.2/MSDK/cloud/alicloud/src/services/linkkit/dm/client\dm_client.c ****         return res;
 727              		.loc 1 63 8 is_stmt 0
 728 0042 05E9     		bne	a0,zero,.L36
  67:C:/Users/stapi/OneDrive/Desktop/GD32VW553/V1_MQTT_OK/GD32VW55X_Wifi_BLE_SDK/GD32VW55x_RELEASE_V1.0.2/MSDK/cloud/alicloud/src/services/linkkit/dm/client\dm_client.c ****         res = dm_client_unsubscribe(uri);
 729              		.loc 1 67 5 is_stmt 1
  67:C:/Users/stapi/OneDrive/Desktop/GD32VW553/V1_MQTT_OK/GD32VW55X_Wifi_BLE_SDK/GD32VW55x_RELEASE_V1.0.2/MSDK/cloud/alicloud/src/services/linkkit/dm/client\dm_client.c ****         res = dm_client_unsubscribe(uri);
 730              		.loc 1 67 8 is_stmt 0
 731 0044 B247     		lw	a5,12(sp)
 732 0046 1144     		li	s0,4
 733 0048 85C3     		beq	a5,zero,.L47
  74:C:/Users/stapi/OneDrive/Desktop/GD32VW553/V1_MQTT_OK/GD32VW55X_Wifi_BLE_SDK/GD32VW55x_RELEASE_V1.0.2/MSDK/cloud/alicloud/src/services/linkkit/dm/client\dm_client.c ****         }
 734              		.loc 1 74 19
 735 004a B7090000 		lui	s3,%hi(dm_client_thing_event_post_reply)
 736              	.LVL62:
 737              	.L37:
  73:C:/Users/stapi/OneDrive/Desktop/GD32VW553/V1_MQTT_OK/GD32VW55X_Wifi_BLE_SDK/GD32VW55x_RELEASE_V1.0.2/MSDK/cloud/alicloud/src/services/linkkit/dm/client\dm_client.c ****             res = dm_client_subscribe(uri, cb, 0);
 738              		.loc 1 73 37
 739 004e 7D14     		addi	s0,s0,-1
 740              	.LVL63:
 741 0050 0DC0     		beq	s0,zero,.L36
 742              	.LVL64:
  74:C:/Users/stapi/OneDrive/Desktop/GD32VW553/V1_MQTT_OK/GD32VW55X_Wifi_BLE_SDK/GD32VW55x_RELEASE_V1.0.2/MSDK/cloud/alicloud/src/services/linkkit/dm/client\dm_client.c ****         }
 743              		.loc 1 74 13 is_stmt 1
  74:C:/Users/stapi/OneDrive/Desktop/GD32VW553/V1_MQTT_OK/GD32VW55X_Wifi_BLE_SDK/GD32VW55x_RELEASE_V1.0.2/MSDK/cloud/alicloud/src/services/linkkit/dm/client\dm_client.c ****         }
 744              		.loc 1 74 19 is_stmt 0
 745 0052 0146     		li	a2,0
 746 0054 93850900 		addi	a1,s3,%lo(dm_client_thing_event_post_reply)
 747 0058 4A85     		mv	a0,s2
 748 005a 97000000 		call	dm_client_subscribe
 748      E7800000 
 749              	.LVL65:
  73:C:/Users/stapi/OneDrive/Desktop/GD32VW553/V1_MQTT_OK/GD32VW55X_Wifi_BLE_SDK/GD32VW55x_RELEASE_V1.0.2/MSDK/cloud/alicloud/src/services/linkkit/dm/client\dm_client.c ****             res = dm_client_subscribe(uri, cb, 0);
 750              		.loc 1 73 15 is_stmt 1
 751 0062 E34605FE 		blt	a0,zero,.L37
 752 0066 31A0     		j	.L36
 753              	.LVL66:
 754              	.L47:
  68:C:/Users/stapi/OneDrive/Desktop/GD32VW553/V1_MQTT_OK/GD32VW55X_Wifi_BLE_SDK/GD32VW55x_RELEASE_V1.0.2/MSDK/cloud/alicloud/src/services/linkkit/dm/client\dm_client.c ****         return res;
 755              		.loc 1 68 9
  68:C:/Users/stapi/OneDrive/Desktop/GD32VW553/V1_MQTT_OK/GD32VW55X_Wifi_BLE_SDK/GD32VW55x_RELEASE_V1.0.2/MSDK/cloud/alicloud/src/services/linkkit/dm/client\dm_client.c ****         return res;
 756              		.loc 1 68 15 is_stmt 0
 757 0068 4A85     		mv	a0,s2
 758              	.LVL67:
 759 006a 97000000 		call	dm_client_unsubscribe
 759      E7800000 
 760              	.LVL68:
  69:C:/Users/stapi/OneDrive/Desktop/GD32VW553/V1_MQTT_OK/GD32VW55X_Wifi_BLE_SDK/GD32VW55x_RELEASE_V1.0.2/MSDK/cloud/alicloud/src/services/linkkit/dm/client\dm_client.c ****     }
 761              		.loc 1 69 9 is_stmt 1
 762              	.L36:
 763              	.LBE6:
 764              	.LBE7:
  96:C:/Users/stapi/OneDrive/Desktop/GD32VW553/V1_MQTT_OK/GD32VW55X_Wifi_BLE_SDK/GD32VW55x_RELEASE_V1.0.2/MSDK/cloud/alicloud/src/services/linkkit/dm/client\dm_client.c ****         }
 765              		.loc 1 96 13
 766 0072 2245     		lw	a0,8(sp)
 767 0074 97000000 		call	LITE_free_internal
 767      E7800000 
 768              	.LVL69:
  96:C:/Users/stapi/OneDrive/Desktop/GD32VW553/V1_MQTT_OK/GD32VW55X_Wifi_BLE_SDK/GD32VW55x_RELEASE_V1.0.2/MSDK/cloud/alicloud/src/services/linkkit/dm/client\dm_client.c ****         }
 769              		.loc 1 96 13
 770 007c 02C4     		sw	zero,8(sp)
 771              	.L34:
 772 007e 37040000 		lui	s0,%hi(.LANCHOR0)
 773 0082 13040400 		addi	s0,s0,%lo(.LANCHOR0)
 774 0086 9309040A 		addi	s3,s0,160
 110:C:/Users/stapi/OneDrive/Desktop/GD32VW553/V1_MQTT_OK/GD32VW55X_Wifi_BLE_SDK/GD32VW55x_RELEASE_V1.0.2/MSDK/cloud/alicloud/src/services/linkkit/dm/client\dm_client.c ****                                     "+", "+", &uri);    /* plus sign wildcards used */
 775              		.loc 1 110 15 is_stmt 0
 776 008a 37090000 		lui	s2,%hi(.LC1)
 116:C:/Users/stapi/OneDrive/Desktop/GD32VW553/V1_MQTT_OK/GD32VW55X_Wifi_BLE_SDK/GD32VW55x_RELEASE_V1.0.2/MSDK/cloud/alicloud/src/services/linkkit/dm/client\dm_client.c ****         res = dm_client_subscribe(uri, (iotx_cm_data_handle_cb)g_dm_client_uri_map[index].callback,
 777              		.loc 1 116 19
 778 008e 054A     		li	s4,1
 779              	.LVL70:
 780              	.L43:
 105:C:/Users/stapi/OneDrive/Desktop/GD32VW553/V1_MQTT_OK/GD32VW55X_Wifi_BLE_SDK/GD32VW55x_RELEASE_V1.0.2/MSDK/cloud/alicloud/src/services/linkkit/dm/client\dm_client.c ****             continue;
 781              		.loc 1 105 9 is_stmt 1
 105:C:/Users/stapi/OneDrive/Desktop/GD32VW553/V1_MQTT_OK/GD32VW55X_Wifi_BLE_SDK/GD32VW55x_RELEASE_V1.0.2/MSDK/cloud/alicloud/src/services/linkkit/dm/client\dm_client.c ****             continue;
 782              		.loc 1 105 50 is_stmt 0
 783 0090 1C4C     		lw	a5,24(s0)
 784 0092 E58F     		and	a5,s1,a5
 105:C:/Users/stapi/OneDrive/Desktop/GD32VW553/V1_MQTT_OK/GD32VW55X_Wifi_BLE_SDK/GD32VW55x_RELEASE_V1.0.2/MSDK/cloud/alicloud/src/services/linkkit/dm/client\dm_client.c ****             continue;
 785              		.loc 1 105 12
 786 0094 95CF     		beq	a5,zero,.L41
 110:C:/Users/stapi/OneDrive/Desktop/GD32VW553/V1_MQTT_OK/GD32VW55X_Wifi_BLE_SDK/GD32VW55x_RELEASE_V1.0.2/MSDK/cloud/alicloud/src/services/linkkit/dm/client\dm_client.c ****                                     "+", "+", &uri);    /* plus sign wildcards used */
 787              		.loc 1 110 9 is_stmt 1
 110:C:/Users/stapi/OneDrive/Desktop/GD32VW553/V1_MQTT_OK/GD32VW55X_Wifi_BLE_SDK/GD32VW55x_RELEASE_V1.0.2/MSDK/cloud/alicloud/src/services/linkkit/dm/client\dm_client.c ****                                     "+", "+", &uri);    /* plus sign wildcards used */
 788              		.loc 1 110 15 is_stmt 0
 789 0096 0C48     		lw	a1,16(s0)
 790 0098 4848     		lw	a0,20(s0)
 791 009a 3800     		addi	a4,sp,8
 792 009c 93060900 		addi	a3,s2,%lo(.LC1)
 793 00a0 13060900 		addi	a2,s2,%lo(.LC1)
 794 00a4 97000000 		call	dm_utils_service_name
 794      E7800000 
 795              	.LVL71:
 112:C:/Users/stapi/OneDrive/Desktop/GD32VW553/V1_MQTT_OK/GD32VW55X_Wifi_BLE_SDK/GD32VW55x_RELEASE_V1.0.2/MSDK/cloud/alicloud/src/services/linkkit/dm/client\dm_client.c ****             continue;
 796              		.loc 1 112 9 is_stmt 1
 112:C:/Users/stapi/OneDrive/Desktop/GD32VW553/V1_MQTT_OK/GD32VW55X_Wifi_BLE_SDK/GD32VW55x_RELEASE_V1.0.2/MSDK/cloud/alicloud/src/services/linkkit/dm/client\dm_client.c ****             continue;
 797              		.loc 1 112 12 is_stmt 0
 798 00ac 63420502 		blt	a0,zero,.L41
 116:C:/Users/stapi/OneDrive/Desktop/GD32VW553/V1_MQTT_OK/GD32VW55X_Wifi_BLE_SDK/GD32VW55x_RELEASE_V1.0.2/MSDK/cloud/alicloud/src/services/linkkit/dm/client\dm_client.c ****         res = dm_client_subscribe(uri, (iotx_cm_data_handle_cb)g_dm_client_uri_map[index].callback,
 799              		.loc 1 116 9 is_stmt 1
 117:C:/Users/stapi/OneDrive/Desktop/GD32VW553/V1_MQTT_OK/GD32VW55X_Wifi_BLE_SDK/GD32VW55x_RELEASE_V1.0.2/MSDK/cloud/alicloud/src/services/linkkit/dm/client\dm_client.c ****         DM_free(uri);
 800              		.loc 1 117 15 is_stmt 0
 801 00b0 4C4C     		lw	a1,28(s0)
 802 00b2 2245     		lw	a0,8(sp)
 803              	.LVL72:
 804 00b4 13067100 		addi	a2,sp,7
 116:C:/Users/stapi/OneDrive/Desktop/GD32VW553/V1_MQTT_OK/GD32VW55X_Wifi_BLE_SDK/GD32VW55x_RELEASE_V1.0.2/MSDK/cloud/alicloud/src/services/linkkit/dm/client\dm_client.c ****         res = dm_client_subscribe(uri, (iotx_cm_data_handle_cb)g_dm_client_uri_map[index].callback,
 805              		.loc 1 116 19
 806 00b8 A3034101 		sb	s4,7(sp)
 117:C:/Users/stapi/OneDrive/Desktop/GD32VW553/V1_MQTT_OK/GD32VW55X_Wifi_BLE_SDK/GD32VW55x_RELEASE_V1.0.2/MSDK/cloud/alicloud/src/services/linkkit/dm/client\dm_client.c ****         DM_free(uri);
 807              		.loc 1 117 9 is_stmt 1
 117:C:/Users/stapi/OneDrive/Desktop/GD32VW553/V1_MQTT_OK/GD32VW55X_Wifi_BLE_SDK/GD32VW55x_RELEASE_V1.0.2/MSDK/cloud/alicloud/src/services/linkkit/dm/client\dm_client.c ****         DM_free(uri);
 808              		.loc 1 117 15 is_stmt 0
 809 00bc 97000000 		call	dm_client_subscribe
 809      E7800000 
 810              	.LVL73:
 118:C:/Users/stapi/OneDrive/Desktop/GD32VW553/V1_MQTT_OK/GD32VW55X_Wifi_BLE_SDK/GD32VW55x_RELEASE_V1.0.2/MSDK/cloud/alicloud/src/services/linkkit/dm/client\dm_client.c **** #else
 811              		.loc 1 118 9 is_stmt 1
 812 00c4 2245     		lw	a0,8(sp)
 813 00c6 97000000 		call	LITE_free_internal
 813      E7800000 
 814              	.LVL74:
 118:C:/Users/stapi/OneDrive/Desktop/GD32VW553/V1_MQTT_OK/GD32VW55X_Wifi_BLE_SDK/GD32VW55x_RELEASE_V1.0.2/MSDK/cloud/alicloud/src/services/linkkit/dm/client\dm_client.c **** #else
 815              		.loc 1 118 9
 816 00ce 02C4     		sw	zero,8(sp)
 817              	.L41:
 118:C:/Users/stapi/OneDrive/Desktop/GD32VW553/V1_MQTT_OK/GD32VW55X_Wifi_BLE_SDK/GD32VW55x_RELEASE_V1.0.2/MSDK/cloud/alicloud/src/services/linkkit/dm/client\dm_client.c **** #else
 818              		.loc 1 118 21 discriminator 1
 104:C:/Users/stapi/OneDrive/Desktop/GD32VW553/V1_MQTT_OK/GD32VW55X_Wifi_BLE_SDK/GD32VW55x_RELEASE_V1.0.2/MSDK/cloud/alicloud/src/services/linkkit/dm/client\dm_client.c ****         if ((g_dm_client_uri_map[index].dev_type & dev_type) == 0) {
 819              		.loc 1 104 28 discriminator 1
 104:C:/Users/stapi/OneDrive/Desktop/GD32VW553/V1_MQTT_OK/GD32VW55X_Wifi_BLE_SDK/GD32VW55x_RELEASE_V1.0.2/MSDK/cloud/alicloud/src/services/linkkit/dm/client\dm_client.c ****         if ((g_dm_client_uri_map[index].dev_type & dev_type) == 0) {
 820              		.loc 1 104 12 discriminator 1
 104:C:/Users/stapi/OneDrive/Desktop/GD32VW553/V1_MQTT_OK/GD32VW55X_Wifi_BLE_SDK/GD32VW55x_RELEASE_V1.0.2/MSDK/cloud/alicloud/src/services/linkkit/dm/client\dm_client.c ****         if ((g_dm_client_uri_map[index].dev_type & dev_type) == 0) {
 821              		.loc 1 104 5 is_stmt 0 discriminator 1
 822 00d0 4104     		addi	s0,s0,16
 823 00d2 E39F89FA 		bne	s3,s0,.L43
 137:C:/Users/stapi/OneDrive/Desktop/GD32VW553/V1_MQTT_OK/GD32VW55X_Wifi_BLE_SDK/GD32VW55x_RELEASE_V1.0.2/MSDK/cloud/alicloud/src/services/linkkit/dm/client\dm_client.c **** }
 824              		.loc 1 137 5 is_stmt 1
 138:C:/Users/stapi/OneDrive/Desktop/GD32VW553/V1_MQTT_OK/GD32VW55X_Wifi_BLE_SDK/GD32VW55x_RELEASE_V1.0.2/MSDK/cloud/alicloud/src/services/linkkit/dm/client\dm_client.c **** 
 825              		.loc 1 138 1 is_stmt 0
 826 00d6 0145     		li	a0,0
 827 00d8 4101     		addi	sp,sp,16
 828              		.cfi_def_cfa_offset 0
 829 00da 17030000 		tail	__riscv_restore_5
 829      67000300 
 830              		.cfi_restore 20
 831              		.cfi_restore 19
 832              		.cfi_restore 18
 833              		.cfi_restore 9
 834              		.cfi_restore 8
 835              		.cfi_restore 1
 836              		.cfi_def_cfa_offset -32
 837              		.cfi_endproc
 838              	.LFE21:
 840              		.section	.rodata.dm_client_event_handle.str1.4,"aMS",@progbits,1
 841              		.align	2
 842              	.LC2:
 843 0000 5B696E66 		.string	"[inf] "
 843      5D2000
 844 0007 00       		.align	2
 845              	.LC3:
 846 0008 494F5458 		.string	"IOTX_CM_EVENT_CLOUD_CONNECTED"
 846      5F434D5F 
 846      4556454E 
 846      545F434C 
 846      4F55445F 
 847 0026 0000     		.align	2
 848              	.LC4:
 849 0028 0D0A00   		.string	"\r\n"
 850 002b 00       		.align	2
 851              	.LC5:
 852 002c 494F5458 		.string	"IOTX_CM_EVENT_CLOUD_DISCONNECT"
 852      5F434D5F 
 852      4556454E 
 852      545F434C 
 852      4F55445F 
 853              		.section	.text.dm_client_event_handle,"ax",@progbits
 854              		.align	1
 855              		.globl	dm_client_event_handle
 857              	dm_client_event_handle:
 858              	.LFB24:
 162:C:/Users/stapi/OneDrive/Desktop/GD32VW553/V1_MQTT_OK/GD32VW55X_Wifi_BLE_SDK/GD32VW55x_RELEASE_V1.0.2/MSDK/cloud/alicloud/src/services/linkkit/dm/client\dm_client.c ****     switch (event->type) {
 859              		.loc 1 162 1 is_stmt 1
 860              		.cfi_startproc
 861              	.LVL75:
 862 0000 17030000 		call	t0,__riscv_save_0
 862      E7020300 
 863              		.cfi_offset 1, -4
 864              		.cfi_def_cfa_offset 16
 163:C:/Users/stapi/OneDrive/Desktop/GD32VW553/V1_MQTT_OK/GD32VW55X_Wifi_BLE_SDK/GD32VW55x_RELEASE_V1.0.2/MSDK/cloud/alicloud/src/services/linkkit/dm/client\dm_client.c ****         case IOTX_CM_EVENT_CLOUD_CONNECTED: {
 865              		.loc 1 163 5
 163:C:/Users/stapi/OneDrive/Desktop/GD32VW553/V1_MQTT_OK/GD32VW55X_Wifi_BLE_SDK/GD32VW55x_RELEASE_V1.0.2/MSDK/cloud/alicloud/src/services/linkkit/dm/client\dm_client.c ****         case IOTX_CM_EVENT_CLOUD_CONNECTED: {
 866              		.loc 1 163 18 is_stmt 0
 867 0008 9C41     		lw	a5,0(a1)
 163:C:/Users/stapi/OneDrive/Desktop/GD32VW553/V1_MQTT_OK/GD32VW55X_Wifi_BLE_SDK/GD32VW55x_RELEASE_V1.0.2/MSDK/cloud/alicloud/src/services/linkkit/dm/client\dm_client.c ****         case IOTX_CM_EVENT_CLOUD_CONNECTED: {
 868              		.loc 1 163 5
 869 000a 81CB     		beq	a5,zero,.L50
 870 000c 0947     		li	a4,2
 871 000e 6383E704 		beq	a5,a4,.L51
 872              	.LVL76:
 873              	.L49:
 179:C:/Users/stapi/OneDrive/Desktop/GD32VW553/V1_MQTT_OK/GD32VW55X_Wifi_BLE_SDK/GD32VW55x_RELEASE_V1.0.2/MSDK/cloud/alicloud/src/services/linkkit/dm/client\dm_client.c **** 
 874              		.loc 1 179 1
 875 0012 17030000 		tail	__riscv_restore_0
 875      67000300 
 876              		.cfi_remember_state
 877              		.cfi_restore 1
 878              		.cfi_def_cfa_offset 0
 879              	.LVL77:
 880              	.L50:
 881              		.cfi_restore_state
 165:C:/Users/stapi/OneDrive/Desktop/GD32VW553/V1_MQTT_OK/GD32VW55X_Wifi_BLE_SDK/GD32VW55x_RELEASE_V1.0.2/MSDK/cloud/alicloud/src/services/linkkit/dm/client\dm_client.c ****         }
 882              		.loc 1 165 13 is_stmt 1
 883              	.LBB12:
 884              	.LBB13:
 150:C:/Users/stapi/OneDrive/Desktop/GD32VW553/V1_MQTT_OK/GD32VW55X_Wifi_BLE_SDK/GD32VW55x_RELEASE_V1.0.2/MSDK/cloud/alicloud/src/services/linkkit/dm/client\dm_client.c ****     dm_msg_cloud_connected();
 885              		.loc 1 150 5
 150:C:/Users/stapi/OneDrive/Desktop/GD32VW553/V1_MQTT_OK/GD32VW55X_Wifi_BLE_SDK/GD32VW55x_RELEASE_V1.0.2/MSDK/cloud/alicloud/src/services/linkkit/dm/client\dm_client.c ****     dm_msg_cloud_connected();
 886              		.loc 1 150 5
 887 001a 37050000 		lui	a0,%hi(.LC2)
 888              	.LVL78:
 889 001e 13050500 		addi	a0,a0,%lo(.LC2)
 890 0022 97000000 		call	HAL_Printf
 890      E7800000 
 891              	.LVL79:
 150:C:/Users/stapi/OneDrive/Desktop/GD32VW553/V1_MQTT_OK/GD32VW55X_Wifi_BLE_SDK/GD32VW55x_RELEASE_V1.0.2/MSDK/cloud/alicloud/src/services/linkkit/dm/client\dm_client.c ****     dm_msg_cloud_connected();
 892              		.loc 1 150 5
 893 002a 37050000 		lui	a0,%hi(.LC3)
 894 002e 13050500 		addi	a0,a0,%lo(.LC3)
 895 0032 97000000 		call	HAL_Printf
 895      E7800000 
 896              	.LVL80:
 150:C:/Users/stapi/OneDrive/Desktop/GD32VW553/V1_MQTT_OK/GD32VW55X_Wifi_BLE_SDK/GD32VW55x_RELEASE_V1.0.2/MSDK/cloud/alicloud/src/services/linkkit/dm/client\dm_client.c ****     dm_msg_cloud_connected();
 897              		.loc 1 150 5
 898 003a 37050000 		lui	a0,%hi(.LC4)
 899 003e 13050500 		addi	a0,a0,%lo(.LC4)
 900 0042 97000000 		call	HAL_Printf
 900      E7800000 
 901              	.LVL81:
 150:C:/Users/stapi/OneDrive/Desktop/GD32VW553/V1_MQTT_OK/GD32VW55X_Wifi_BLE_SDK/GD32VW55x_RELEASE_V1.0.2/MSDK/cloud/alicloud/src/services/linkkit/dm/client\dm_client.c ****     dm_msg_cloud_connected();
 902              		.loc 1 150 5
 151:C:/Users/stapi/OneDrive/Desktop/GD32VW553/V1_MQTT_OK/GD32VW55X_Wifi_BLE_SDK/GD32VW55x_RELEASE_V1.0.2/MSDK/cloud/alicloud/src/services/linkkit/dm/client\dm_client.c **** }
 903              		.loc 1 151 5
 904 004a 97000000 		call	dm_msg_cloud_connected
 904      E7800000 
 905              	.LVL82:
 152:C:/Users/stapi/OneDrive/Desktop/GD32VW553/V1_MQTT_OK/GD32VW55X_Wifi_BLE_SDK/GD32VW55x_RELEASE_V1.0.2/MSDK/cloud/alicloud/src/services/linkkit/dm/client\dm_client.c **** 
 906              		.loc 1 152 1 is_stmt 0
 907 0052 C1B7     		j	.L49
 908              	.LVL83:
 909              	.L51:
 910              	.LBE13:
 911              	.LBE12:
 173:C:/Users/stapi/OneDrive/Desktop/GD32VW553/V1_MQTT_OK/GD32VW55X_Wifi_BLE_SDK/GD32VW55x_RELEASE_V1.0.2/MSDK/cloud/alicloud/src/services/linkkit/dm/client\dm_client.c ****         }
 912              		.loc 1 173 13 is_stmt 1
 913              	.LBB14:
 914              	.LBB15:
 156:C:/Users/stapi/OneDrive/Desktop/GD32VW553/V1_MQTT_OK/GD32VW55X_Wifi_BLE_SDK/GD32VW55x_RELEASE_V1.0.2/MSDK/cloud/alicloud/src/services/linkkit/dm/client\dm_client.c **** 
 915              		.loc 1 156 5
 156:C:/Users/stapi/OneDrive/Desktop/GD32VW553/V1_MQTT_OK/GD32VW55X_Wifi_BLE_SDK/GD32VW55x_RELEASE_V1.0.2/MSDK/cloud/alicloud/src/services/linkkit/dm/client\dm_client.c **** 
 916              		.loc 1 156 5
 917 0054 37050000 		lui	a0,%hi(.LC2)
 918              	.LVL84:
 919 0058 13050500 		addi	a0,a0,%lo(.LC2)
 920 005c 97000000 		call	HAL_Printf
 920      E7800000 
 921              	.LVL85:
 156:C:/Users/stapi/OneDrive/Desktop/GD32VW553/V1_MQTT_OK/GD32VW55X_Wifi_BLE_SDK/GD32VW55x_RELEASE_V1.0.2/MSDK/cloud/alicloud/src/services/linkkit/dm/client\dm_client.c **** 
 922              		.loc 1 156 5
 923 0064 37050000 		lui	a0,%hi(.LC5)
 924 0068 13050500 		addi	a0,a0,%lo(.LC5)
 925 006c 97000000 		call	HAL_Printf
 925      E7800000 
 926              	.LVL86:
 156:C:/Users/stapi/OneDrive/Desktop/GD32VW553/V1_MQTT_OK/GD32VW55X_Wifi_BLE_SDK/GD32VW55x_RELEASE_V1.0.2/MSDK/cloud/alicloud/src/services/linkkit/dm/client\dm_client.c **** 
 927              		.loc 1 156 5
 928 0074 37050000 		lui	a0,%hi(.LC4)
 929 0078 13050500 		addi	a0,a0,%lo(.LC4)
 930 007c 97000000 		call	HAL_Printf
 930      E7800000 
 931              	.LVL87:
 156:C:/Users/stapi/OneDrive/Desktop/GD32VW553/V1_MQTT_OK/GD32VW55X_Wifi_BLE_SDK/GD32VW55x_RELEASE_V1.0.2/MSDK/cloud/alicloud/src/services/linkkit/dm/client\dm_client.c **** 
 932              		.loc 1 156 5
 158:C:/Users/stapi/OneDrive/Desktop/GD32VW553/V1_MQTT_OK/GD32VW55X_Wifi_BLE_SDK/GD32VW55x_RELEASE_V1.0.2/MSDK/cloud/alicloud/src/services/linkkit/dm/client\dm_client.c **** }
 933              		.loc 1 158 5
 934 0084 97000000 		call	dm_msg_cloud_disconnect
 934      E7800000 
 935              	.LVL88:
 936              	.LBE15:
 937              	.LBE14:
 179:C:/Users/stapi/OneDrive/Desktop/GD32VW553/V1_MQTT_OK/GD32VW55X_Wifi_BLE_SDK/GD32VW55x_RELEASE_V1.0.2/MSDK/cloud/alicloud/src/services/linkkit/dm/client\dm_client.c **** 
 938              		.loc 1 179 1 is_stmt 0
 939 008c 59B7     		j	.L49
 940              		.cfi_endproc
 941              	.LFE24:
 943              		.section	.text.dm_client_thing_event_notify_reply,"ax",@progbits
 944              		.align	1
 945              		.globl	dm_client_thing_event_notify_reply
 947              	dm_client_thing_event_notify_reply:
 948              	.LFB32:
 346:C:/Users/stapi/OneDrive/Desktop/GD32VW553/V1_MQTT_OK/GD32VW55X_Wifi_BLE_SDK/GD32VW55x_RELEASE_V1.0.2/MSDK/cloud/alicloud/src/services/linkkit/dm/client\dm_client.c ****     dm_msg_source_t source;
 949              		.loc 1 346 1 is_stmt 1
 950              		.cfi_startproc
 951              	.LVL89:
 952 0000 17030000 		call	t0,__riscv_save_0
 952      E7020300 
 953              		.cfi_offset 1, -4
 954              		.cfi_def_cfa_offset 16
 347:C:/Users/stapi/OneDrive/Desktop/GD32VW553/V1_MQTT_OK/GD32VW55X_Wifi_BLE_SDK/GD32VW55x_RELEASE_V1.0.2/MSDK/cloud/alicloud/src/services/linkkit/dm/client\dm_client.c **** 
 955              		.loc 1 347 5
 349:C:/Users/stapi/OneDrive/Desktop/GD32VW553/V1_MQTT_OK/GD32VW55X_Wifi_BLE_SDK/GD32VW55x_RELEASE_V1.0.2/MSDK/cloud/alicloud/src/services/linkkit/dm/client\dm_client.c **** 
 956              		.loc 1 349 5
 346:C:/Users/stapi/OneDrive/Desktop/GD32VW553/V1_MQTT_OK/GD32VW55X_Wifi_BLE_SDK/GD32VW55x_RELEASE_V1.0.2/MSDK/cloud/alicloud/src/services/linkkit/dm/client\dm_client.c ****     dm_msg_source_t source;
 957              		.loc 1 346 1 is_stmt 0
 958 0008 4111     		addi	sp,sp,-16
 959              		.cfi_def_cfa_offset 32
 356:C:/Users/stapi/OneDrive/Desktop/GD32VW553/V1_MQTT_OK/GD32VW55X_Wifi_BLE_SDK/GD32VW55x_RELEASE_V1.0.2/MSDK/cloud/alicloud/src/services/linkkit/dm/client\dm_client.c **** }
 960              		.loc 1 356 5
 961 000a 0A85     		mv	a0,sp
 962              	.LVL90:
 351:C:/Users/stapi/OneDrive/Desktop/GD32VW553/V1_MQTT_OK/GD32VW55X_Wifi_BLE_SDK/GD32VW55x_RELEASE_V1.0.2/MSDK/cloud/alicloud/src/services/linkkit/dm/client\dm_client.c ****     source.payload = (unsigned char *)payload;
 963              		.loc 1 351 16
 964 000c 2EC0     		sw	a1,0(sp)
 352:C:/Users/stapi/OneDrive/Desktop/GD32VW553/V1_MQTT_OK/GD32VW55X_Wifi_BLE_SDK/GD32VW55x_RELEASE_V1.0.2/MSDK/cloud/alicloud/src/services/linkkit/dm/client\dm_client.c ****     source.payload_len = payload_len;
 965              		.loc 1 352 20
 966 000e 32C2     		sw	a2,4(sp)
 353:C:/Users/stapi/OneDrive/Desktop/GD32VW553/V1_MQTT_OK/GD32VW55X_Wifi_BLE_SDK/GD32VW55x_RELEASE_V1.0.2/MSDK/cloud/alicloud/src/services/linkkit/dm/client\dm_client.c ****     source.context = NULL;
 967              		.loc 1 353 24
 968 0010 36C4     		sw	a3,8(sp)
 349:C:/Users/stapi/OneDrive/Desktop/GD32VW553/V1_MQTT_OK/GD32VW55X_Wifi_BLE_SDK/GD32VW55x_RELEASE_V1.0.2/MSDK/cloud/alicloud/src/services/linkkit/dm/client\dm_client.c **** 
 969              		.loc 1 349 5
 970 0012 02C6     		sw	zero,12(sp)
 351:C:/Users/stapi/OneDrive/Desktop/GD32VW553/V1_MQTT_OK/GD32VW55X_Wifi_BLE_SDK/GD32VW55x_RELEASE_V1.0.2/MSDK/cloud/alicloud/src/services/linkkit/dm/client\dm_client.c ****     source.payload = (unsigned char *)payload;
 971              		.loc 1 351 5 is_stmt 1
 352:C:/Users/stapi/OneDrive/Desktop/GD32VW553/V1_MQTT_OK/GD32VW55X_Wifi_BLE_SDK/GD32VW55x_RELEASE_V1.0.2/MSDK/cloud/alicloud/src/services/linkkit/dm/client\dm_client.c ****     source.payload_len = payload_len;
 972              		.loc 1 352 5
 353:C:/Users/stapi/OneDrive/Desktop/GD32VW553/V1_MQTT_OK/GD32VW55X_Wifi_BLE_SDK/GD32VW55x_RELEASE_V1.0.2/MSDK/cloud/alicloud/src/services/linkkit/dm/client\dm_client.c ****     source.context = NULL;
 973              		.loc 1 353 5
 354:C:/Users/stapi/OneDrive/Desktop/GD32VW553/V1_MQTT_OK/GD32VW55X_Wifi_BLE_SDK/GD32VW55x_RELEASE_V1.0.2/MSDK/cloud/alicloud/src/services/linkkit/dm/client\dm_client.c **** 
 974              		.loc 1 354 5
 356:C:/Users/stapi/OneDrive/Desktop/GD32VW553/V1_MQTT_OK/GD32VW55X_Wifi_BLE_SDK/GD32VW55x_RELEASE_V1.0.2/MSDK/cloud/alicloud/src/services/linkkit/dm/client\dm_client.c **** }
 975              		.loc 1 356 5
 976 0014 97000000 		call	dm_msg_proc_thing_event_notify_reply
 976      E7800000 
 977              	.LVL91:
 357:C:/Users/stapi/OneDrive/Desktop/GD32VW553/V1_MQTT_OK/GD32VW55X_Wifi_BLE_SDK/GD32VW55x_RELEASE_V1.0.2/MSDK/cloud/alicloud/src/services/linkkit/dm/client\dm_client.c **** 
 978              		.loc 1 357 1 is_stmt 0
 979 001c 4101     		addi	sp,sp,16
 980              		.cfi_def_cfa_offset 0
 981 001e 17030000 		tail	__riscv_restore_0
 981      67000300 
 982              		.cfi_restore 1
 983              		.cfi_def_cfa_offset -16
 984              		.cfi_endproc
 985              	.LFE32:
 987              		.section	.rodata.g_dm_client_uri_map,"a"
 988              		.align	2
 989              		.set	.LANCHOR0,. + 0
 992              	g_dm_client_uri_map:
 993 0000 00000000 		.word	DM_URI_THING_EVENT_POST_REPLY_WILDCARD
 994 0004 00000000 		.word	DM_URI_SYS_PREFIX
 995 0008 07000000 		.word	7
 996 000c 00000000 		.word	dm_client_thing_event_post_reply
 997 0010 00000000 		.word	DM_URI_THING_SERVICE_PROPERTY_SET
 998 0014 00000000 		.word	DM_URI_SYS_PREFIX
 999 0018 07000000 		.word	7
 1000 001c 00000000 		.word	dm_client_thing_service_property_set
 1001 0020 00000000 		.word	DM_URI_THING_SERVICE_REQUEST_WILDCARD
 1002 0024 00000000 		.word	DM_URI_SYS_PREFIX
 1003 0028 07000000 		.word	7
 1004 002c 00000000 		.word	dm_client_thing_service_request
 1005 0030 00000000 		.word	DM_URI_THING_DEVICEINFO_UPDATE_REPLY
 1006 0034 00000000 		.word	DM_URI_SYS_PREFIX
 1007 0038 07000000 		.word	7
 1008 003c 00000000 		.word	dm_client_thing_deviceinfo_update_reply
 1009 0040 00000000 		.word	DM_URI_THING_DEVICEINFO_DELETE_REPLY
 1010 0044 00000000 		.word	DM_URI_SYS_PREFIX
 1011 0048 07000000 		.word	7
 1012 004c 00000000 		.word	dm_client_thing_deviceinfo_delete_reply
 1013 0050 00000000 		.word	DM_URI_THING_EVENT_NOTIFY
 1014 0054 00000000 		.word	DM_URI_SYS_PREFIX
 1015 0058 07000000 		.word	7
 1016 005c 00000000 		.word	dm_client_thing_event_notify
 1017 0060 00000000 		.word	DM_URI_RRPC_REQUEST_WILDCARD
 1018 0064 00000000 		.word	DM_URI_SYS_PREFIX
 1019 0068 07000000 		.word	7
 1020 006c 00000000 		.word	dm_client_rrpc_request_wildcard
 1021 0070 00000000 		.word	DM_URI_NTP_RESPONSE
 1022 0074 00000000 		.word	DM_URI_EXT_NTP_PREFIX
 1023 0078 07000000 		.word	7
 1024 007c 00000000 		.word	dm_client_ntp_response
 1025 0080 00000000 		.word	0
 1026 0084 00000000 		.word	DM_URI_EXT_ERROR_PREFIX
 1027 0088 07000000 		.word	7
 1028 008c 00000000 		.word	dm_client_ext_error
 1029 0090 00000000 		.word	DM_URI_THING_MODEL_DOWN_RAW
 1030 0094 00000000 		.word	DM_URI_SYS_PREFIX
 1031 0098 07000000 		.word	7
 1032 009c 00000000 		.word	dm_client_thing_model_down_raw
 1033 00a0 00000000 		.word	DM_URI_THING_MODEL_UP_RAW_REPLY
 1034 00a4 00000000 		.word	DM_URI_SYS_PREFIX
 1035 00a8 07000000 		.word	7
 1036 00ac 00000000 		.word	dm_client_thing_model_up_raw_reply
 1037              		.text
 1038              	.Letext0:
 1039              		.file 2 "c:\\users\\stapi\\onedrive\\desktop\\gd32vw553\\embeddedbuilder_v1.4.7.26843\\tools\\nucl
 1040              		.file 3 "c:\\users\\stapi\\onedrive\\desktop\\gd32vw553\\embeddedbuilder_v1.4.7.26843\\tools\\nucl
 1041              		.file 4 "..\\..\\..\\..\\cloud\\alicloud\\src\\infra\\utils\\misc/lite-cjson.h"
 1042              		.file 5 "..\\..\\..\\..\\cloud\\alicloud\\include/exports/iot_export_errno.h"
 1043              		.file 6 "..\\..\\..\\..\\cloud\\alicloud\\src\\services\\linkkit\\cm\\include/iotx_cm.h"
 1044              		.file 7 "..\\..\\..\\..\\cloud\\alicloud\\src\\services\\linkkit\\dm/dm_opt.h"
 1045              		.file 8 "..\\..\\..\\..\\cloud\\alicloud\\src\\services\\linkkit\\dm/iotx_dm.h"
 1046              		.file 9 "..\\..\\..\\..\\cloud\\alicloud\\src\\services\\linkkit\\dm/dm_message.h"
 1047              		.file 10 "..\\..\\..\\..\\cloud\\alicloud\\src\\services\\linkkit\\dm/dm_msg_process.h"
 1048              		.file 11 "..\\..\\..\\..\\cloud\\alicloud\\src\\services\\linkkit\\dm\\client/dm_client.h"
 1049              		.file 12 "..\\..\\..\\..\\cloud\\alicloud\\include/iot_import.h"
 1050              		.file 13 "..\\..\\..\\..\\cloud\\alicloud\\src\\services\\linkkit\\dm\\client/dm_client_adapter.h"
 1051              		.file 14 "..\\..\\..\\..\\cloud\\alicloud\\src\\services\\linkkit\\dm/dm_utils.h"
 1052              		.file 15 "..\\..\\..\\..\\cloud\\alicloud\\src\\infra\\utils/iotx_utils.h"
 1053              		.file 16 "<built-in>"