   1              		.file	"dm_fota.c"
   2              		.option nopic
   3              		.attribute arch, "rv32i2p0_m2p0_a2p0_f2p0_c2p0_b_p0p94"
   4              		.attribute unaligned_access, 0
   5              		.attribute stack_align, 16
   6              		.text
   7              	.Ltext0:
   8              		.cfi_sections	.debug_frame
   9              		.section	.text.dm_fota_init,"ax",@progbits
  10              		.align	1
  11              		.globl	dm_fota_init
  13              	dm_fota_init:
  14              	.LFB21:
  15              		.file 1 "C:/Users/stapi/OneDrive/Desktop/GD32VW553/V1_MQTT_OK/GD32VW55X_Wifi_BLE_SDK/GD32VW55x_REL
   1:C:/Users/stapi/OneDrive/Desktop/GD32VW553/V1_MQTT_OK/GD32VW55X_Wifi_BLE_SDK/GD32VW55x_RELEASE_V1.0.2/MSDK/cloud/alicloud/src/services/linkkit/dm\dm_fota.c **** /*
   2:C:/Users/stapi/OneDrive/Desktop/GD32VW553/V1_MQTT_OK/GD32VW55X_Wifi_BLE_SDK/GD32VW55x_RELEASE_V1.0.2/MSDK/cloud/alicloud/src/services/linkkit/dm\dm_fota.c ****  * Copyright (C) 2015-2018 Alibaba Group Holding Limited
   3:C:/Users/stapi/OneDrive/Desktop/GD32VW553/V1_MQTT_OK/GD32VW55X_Wifi_BLE_SDK/GD32VW55x_RELEASE_V1.0.2/MSDK/cloud/alicloud/src/services/linkkit/dm\dm_fota.c ****  */
   4:C:/Users/stapi/OneDrive/Desktop/GD32VW553/V1_MQTT_OK/GD32VW55X_Wifi_BLE_SDK/GD32VW55x_RELEASE_V1.0.2/MSDK/cloud/alicloud/src/services/linkkit/dm\dm_fota.c **** #if defined(OTA_ENABLED) && !defined(BUILD_AOS)
   5:C:/Users/stapi/OneDrive/Desktop/GD32VW553/V1_MQTT_OK/GD32VW55X_Wifi_BLE_SDK/GD32VW55x_RELEASE_V1.0.2/MSDK/cloud/alicloud/src/services/linkkit/dm\dm_fota.c **** #include "iotx_dm_internal.h"
   6:C:/Users/stapi/OneDrive/Desktop/GD32VW553/V1_MQTT_OK/GD32VW55X_Wifi_BLE_SDK/GD32VW55x_RELEASE_V1.0.2/MSDK/cloud/alicloud/src/services/linkkit/dm\dm_fota.c **** 
   7:C:/Users/stapi/OneDrive/Desktop/GD32VW553/V1_MQTT_OK/GD32VW55X_Wifi_BLE_SDK/GD32VW55x_RELEASE_V1.0.2/MSDK/cloud/alicloud/src/services/linkkit/dm\dm_fota.c **** static dm_fota_ctx_t g_dm_fota_ctx;
   8:C:/Users/stapi/OneDrive/Desktop/GD32VW553/V1_MQTT_OK/GD32VW55X_Wifi_BLE_SDK/GD32VW55x_RELEASE_V1.0.2/MSDK/cloud/alicloud/src/services/linkkit/dm\dm_fota.c **** 
   9:C:/Users/stapi/OneDrive/Desktop/GD32VW553/V1_MQTT_OK/GD32VW55X_Wifi_BLE_SDK/GD32VW55x_RELEASE_V1.0.2/MSDK/cloud/alicloud/src/services/linkkit/dm\dm_fota.c **** static dm_fota_ctx_t *_dm_fota_get_ctx(void)
  10:C:/Users/stapi/OneDrive/Desktop/GD32VW553/V1_MQTT_OK/GD32VW55X_Wifi_BLE_SDK/GD32VW55x_RELEASE_V1.0.2/MSDK/cloud/alicloud/src/services/linkkit/dm\dm_fota.c **** {
  11:C:/Users/stapi/OneDrive/Desktop/GD32VW553/V1_MQTT_OK/GD32VW55X_Wifi_BLE_SDK/GD32VW55x_RELEASE_V1.0.2/MSDK/cloud/alicloud/src/services/linkkit/dm\dm_fota.c ****     return &g_dm_fota_ctx;
  12:C:/Users/stapi/OneDrive/Desktop/GD32VW553/V1_MQTT_OK/GD32VW55X_Wifi_BLE_SDK/GD32VW55x_RELEASE_V1.0.2/MSDK/cloud/alicloud/src/services/linkkit/dm\dm_fota.c **** }
  13:C:/Users/stapi/OneDrive/Desktop/GD32VW553/V1_MQTT_OK/GD32VW55X_Wifi_BLE_SDK/GD32VW55x_RELEASE_V1.0.2/MSDK/cloud/alicloud/src/services/linkkit/dm\dm_fota.c **** 
  14:C:/Users/stapi/OneDrive/Desktop/GD32VW553/V1_MQTT_OK/GD32VW55X_Wifi_BLE_SDK/GD32VW55x_RELEASE_V1.0.2/MSDK/cloud/alicloud/src/services/linkkit/dm\dm_fota.c **** int dm_fota_init(void)
  15:C:/Users/stapi/OneDrive/Desktop/GD32VW553/V1_MQTT_OK/GD32VW55X_Wifi_BLE_SDK/GD32VW55x_RELEASE_V1.0.2/MSDK/cloud/alicloud/src/services/linkkit/dm\dm_fota.c **** {
  16              		.loc 1 15 1
  17              		.cfi_startproc
  16:C:/Users/stapi/OneDrive/Desktop/GD32VW553/V1_MQTT_OK/GD32VW55X_Wifi_BLE_SDK/GD32VW55x_RELEASE_V1.0.2/MSDK/cloud/alicloud/src/services/linkkit/dm\dm_fota.c ****     dm_fota_ctx_t *ctx = _dm_fota_get_ctx();
  18              		.loc 1 16 5
  11:C:/Users/stapi/OneDrive/Desktop/GD32VW553/V1_MQTT_OK/GD32VW55X_Wifi_BLE_SDK/GD32VW55x_RELEASE_V1.0.2/MSDK/cloud/alicloud/src/services/linkkit/dm\dm_fota.c **** }
  19              		.loc 1 11 5
  20              	.LVL0:
  17:C:/Users/stapi/OneDrive/Desktop/GD32VW553/V1_MQTT_OK/GD32VW55X_Wifi_BLE_SDK/GD32VW55x_RELEASE_V1.0.2/MSDK/cloud/alicloud/src/services/linkkit/dm\dm_fota.c **** 
  18:C:/Users/stapi/OneDrive/Desktop/GD32VW553/V1_MQTT_OK/GD32VW55X_Wifi_BLE_SDK/GD32VW55x_RELEASE_V1.0.2/MSDK/cloud/alicloud/src/services/linkkit/dm\dm_fota.c ****     memset(ctx, 0, sizeof(dm_fota_ctx_t));
  21              		.loc 1 18 5
  22 0000 B7070000 		lui	a5,%hi(.LANCHOR0)
  23 0004 23A00700 		sw	zero,%lo(.LANCHOR0)(a5)
  19:C:/Users/stapi/OneDrive/Desktop/GD32VW553/V1_MQTT_OK/GD32VW55X_Wifi_BLE_SDK/GD32VW55x_RELEASE_V1.0.2/MSDK/cloud/alicloud/src/services/linkkit/dm\dm_fota.c **** 
  20:C:/Users/stapi/OneDrive/Desktop/GD32VW553/V1_MQTT_OK/GD32VW55X_Wifi_BLE_SDK/GD32VW55x_RELEASE_V1.0.2/MSDK/cloud/alicloud/src/services/linkkit/dm\dm_fota.c ****     return SUCCESS_RETURN;
  24              		.loc 1 20 5
  21:C:/Users/stapi/OneDrive/Desktop/GD32VW553/V1_MQTT_OK/GD32VW55X_Wifi_BLE_SDK/GD32VW55x_RELEASE_V1.0.2/MSDK/cloud/alicloud/src/services/linkkit/dm\dm_fota.c **** }
  25              		.loc 1 21 1 is_stmt 0
  26 0008 0145     		li	a0,0
  27 000a 8280     		ret
  28              		.cfi_endproc
  29              	.LFE21:
  31              		.section	.text.dm_fota_deinit,"ax",@progbits
  32              		.align	1
  33              		.globl	dm_fota_deinit
  35              	dm_fota_deinit:
  36              	.LFB28:
  37              		.cfi_startproc
  38 0000 17030000 		tail	dm_fota_init
  38      67000300 
  39              		.cfi_endproc
  40              	.LFE28:
  42              		.section	.rodata.dm_fota_perform_sync.str1.4,"aMS",@progbits,1
  43              		.align	2
  44              	.LC0:
  45 0000 5B657272 		.string	"[err] "
  45      5D2000
  46 0007 00       		.align	2
  47              	.LC1:
  48 0008 466F7461 		.string	"Fota write firmware failed"
  48      20777269 
  48      74652066 
  48      69726D77 
  48      61726520 
  49 0023 00       		.align	2
  50              	.LC2:
  51 0024 0D0A00   		.string	"\r\n"
  52              		.section	.text.dm_fota_perform_sync,"ax",@progbits
  53              		.align	1
  54              		.globl	dm_fota_perform_sync
  56              	dm_fota_perform_sync:
  57              	.LFB24:
  22:C:/Users/stapi/OneDrive/Desktop/GD32VW553/V1_MQTT_OK/GD32VW55X_Wifi_BLE_SDK/GD32VW55x_RELEASE_V1.0.2/MSDK/cloud/alicloud/src/services/linkkit/dm\dm_fota.c **** 
  23:C:/Users/stapi/OneDrive/Desktop/GD32VW553/V1_MQTT_OK/GD32VW55X_Wifi_BLE_SDK/GD32VW55x_RELEASE_V1.0.2/MSDK/cloud/alicloud/src/services/linkkit/dm\dm_fota.c **** int dm_fota_deinit(void)
  24:C:/Users/stapi/OneDrive/Desktop/GD32VW553/V1_MQTT_OK/GD32VW55X_Wifi_BLE_SDK/GD32VW55x_RELEASE_V1.0.2/MSDK/cloud/alicloud/src/services/linkkit/dm\dm_fota.c **** {
  25:C:/Users/stapi/OneDrive/Desktop/GD32VW553/V1_MQTT_OK/GD32VW55X_Wifi_BLE_SDK/GD32VW55x_RELEASE_V1.0.2/MSDK/cloud/alicloud/src/services/linkkit/dm\dm_fota.c ****     dm_fota_ctx_t *ctx = _dm_fota_get_ctx();
  26:C:/Users/stapi/OneDrive/Desktop/GD32VW553/V1_MQTT_OK/GD32VW55X_Wifi_BLE_SDK/GD32VW55x_RELEASE_V1.0.2/MSDK/cloud/alicloud/src/services/linkkit/dm\dm_fota.c **** 
  27:C:/Users/stapi/OneDrive/Desktop/GD32VW553/V1_MQTT_OK/GD32VW55X_Wifi_BLE_SDK/GD32VW55x_RELEASE_V1.0.2/MSDK/cloud/alicloud/src/services/linkkit/dm\dm_fota.c ****     memset(ctx, 0, sizeof(dm_fota_ctx_t));
  28:C:/Users/stapi/OneDrive/Desktop/GD32VW553/V1_MQTT_OK/GD32VW55X_Wifi_BLE_SDK/GD32VW55x_RELEASE_V1.0.2/MSDK/cloud/alicloud/src/services/linkkit/dm\dm_fota.c **** 
  29:C:/Users/stapi/OneDrive/Desktop/GD32VW553/V1_MQTT_OK/GD32VW55X_Wifi_BLE_SDK/GD32VW55x_RELEASE_V1.0.2/MSDK/cloud/alicloud/src/services/linkkit/dm\dm_fota.c ****     return SUCCESS_RETURN;
  30:C:/Users/stapi/OneDrive/Desktop/GD32VW553/V1_MQTT_OK/GD32VW55X_Wifi_BLE_SDK/GD32VW55x_RELEASE_V1.0.2/MSDK/cloud/alicloud/src/services/linkkit/dm\dm_fota.c **** }
  31:C:/Users/stapi/OneDrive/Desktop/GD32VW553/V1_MQTT_OK/GD32VW55X_Wifi_BLE_SDK/GD32VW55x_RELEASE_V1.0.2/MSDK/cloud/alicloud/src/services/linkkit/dm\dm_fota.c **** 
  32:C:/Users/stapi/OneDrive/Desktop/GD32VW553/V1_MQTT_OK/GD32VW55X_Wifi_BLE_SDK/GD32VW55x_RELEASE_V1.0.2/MSDK/cloud/alicloud/src/services/linkkit/dm\dm_fota.c **** static int _dm_fota_send_new_config_to_user(void *ota_handle)
  33:C:/Users/stapi/OneDrive/Desktop/GD32VW553/V1_MQTT_OK/GD32VW55X_Wifi_BLE_SDK/GD32VW55x_RELEASE_V1.0.2/MSDK/cloud/alicloud/src/services/linkkit/dm\dm_fota.c **** {
  34:C:/Users/stapi/OneDrive/Desktop/GD32VW553/V1_MQTT_OK/GD32VW55X_Wifi_BLE_SDK/GD32VW55x_RELEASE_V1.0.2/MSDK/cloud/alicloud/src/services/linkkit/dm\dm_fota.c ****     int res = 0, message_len = 0;
  35:C:/Users/stapi/OneDrive/Desktop/GD32VW553/V1_MQTT_OK/GD32VW55X_Wifi_BLE_SDK/GD32VW55x_RELEASE_V1.0.2/MSDK/cloud/alicloud/src/services/linkkit/dm\dm_fota.c ****     char *message = NULL;
  36:C:/Users/stapi/OneDrive/Desktop/GD32VW553/V1_MQTT_OK/GD32VW55X_Wifi_BLE_SDK/GD32VW55x_RELEASE_V1.0.2/MSDK/cloud/alicloud/src/services/linkkit/dm\dm_fota.c ****     char version[128] = {0};
  37:C:/Users/stapi/OneDrive/Desktop/GD32VW553/V1_MQTT_OK/GD32VW55X_Wifi_BLE_SDK/GD32VW55x_RELEASE_V1.0.2/MSDK/cloud/alicloud/src/services/linkkit/dm\dm_fota.c ****     const char *fota_new_config_fmt = "{\"version\":\"%s\"}";
  38:C:/Users/stapi/OneDrive/Desktop/GD32VW553/V1_MQTT_OK/GD32VW55X_Wifi_BLE_SDK/GD32VW55x_RELEASE_V1.0.2/MSDK/cloud/alicloud/src/services/linkkit/dm\dm_fota.c **** 
  39:C:/Users/stapi/OneDrive/Desktop/GD32VW553/V1_MQTT_OK/GD32VW55X_Wifi_BLE_SDK/GD32VW55x_RELEASE_V1.0.2/MSDK/cloud/alicloud/src/services/linkkit/dm\dm_fota.c ****     IOT_OTA_Ioctl(ota_handle, IOT_OTAG_VERSION, version, 128);
  40:C:/Users/stapi/OneDrive/Desktop/GD32VW553/V1_MQTT_OK/GD32VW55X_Wifi_BLE_SDK/GD32VW55x_RELEASE_V1.0.2/MSDK/cloud/alicloud/src/services/linkkit/dm\dm_fota.c **** 
  41:C:/Users/stapi/OneDrive/Desktop/GD32VW553/V1_MQTT_OK/GD32VW55X_Wifi_BLE_SDK/GD32VW55x_RELEASE_V1.0.2/MSDK/cloud/alicloud/src/services/linkkit/dm\dm_fota.c ****     message_len = strlen(fota_new_config_fmt) + strlen(version) + 1;
  42:C:/Users/stapi/OneDrive/Desktop/GD32VW553/V1_MQTT_OK/GD32VW55X_Wifi_BLE_SDK/GD32VW55x_RELEASE_V1.0.2/MSDK/cloud/alicloud/src/services/linkkit/dm\dm_fota.c **** 
  43:C:/Users/stapi/OneDrive/Desktop/GD32VW553/V1_MQTT_OK/GD32VW55X_Wifi_BLE_SDK/GD32VW55x_RELEASE_V1.0.2/MSDK/cloud/alicloud/src/services/linkkit/dm\dm_fota.c ****     message = DM_malloc(message_len);
  44:C:/Users/stapi/OneDrive/Desktop/GD32VW553/V1_MQTT_OK/GD32VW55X_Wifi_BLE_SDK/GD32VW55x_RELEASE_V1.0.2/MSDK/cloud/alicloud/src/services/linkkit/dm\dm_fota.c ****     if (message == NULL) {
  45:C:/Users/stapi/OneDrive/Desktop/GD32VW553/V1_MQTT_OK/GD32VW55X_Wifi_BLE_SDK/GD32VW55x_RELEASE_V1.0.2/MSDK/cloud/alicloud/src/services/linkkit/dm\dm_fota.c ****         return DM_MEMORY_NOT_ENOUGH;
  46:C:/Users/stapi/OneDrive/Desktop/GD32VW553/V1_MQTT_OK/GD32VW55X_Wifi_BLE_SDK/GD32VW55x_RELEASE_V1.0.2/MSDK/cloud/alicloud/src/services/linkkit/dm\dm_fota.c ****     }
  47:C:/Users/stapi/OneDrive/Desktop/GD32VW553/V1_MQTT_OK/GD32VW55X_Wifi_BLE_SDK/GD32VW55x_RELEASE_V1.0.2/MSDK/cloud/alicloud/src/services/linkkit/dm\dm_fota.c ****     memset(message, 0, message_len);
  48:C:/Users/stapi/OneDrive/Desktop/GD32VW553/V1_MQTT_OK/GD32VW55X_Wifi_BLE_SDK/GD32VW55x_RELEASE_V1.0.2/MSDK/cloud/alicloud/src/services/linkkit/dm\dm_fota.c ****     HAL_Snprintf(message, message_len, fota_new_config_fmt, version);
  49:C:/Users/stapi/OneDrive/Desktop/GD32VW553/V1_MQTT_OK/GD32VW55X_Wifi_BLE_SDK/GD32VW55x_RELEASE_V1.0.2/MSDK/cloud/alicloud/src/services/linkkit/dm\dm_fota.c **** 
  50:C:/Users/stapi/OneDrive/Desktop/GD32VW553/V1_MQTT_OK/GD32VW55X_Wifi_BLE_SDK/GD32VW55x_RELEASE_V1.0.2/MSDK/cloud/alicloud/src/services/linkkit/dm\dm_fota.c ****     dm_log_info("Send To User: %s", message);
  51:C:/Users/stapi/OneDrive/Desktop/GD32VW553/V1_MQTT_OK/GD32VW55X_Wifi_BLE_SDK/GD32VW55x_RELEASE_V1.0.2/MSDK/cloud/alicloud/src/services/linkkit/dm\dm_fota.c **** 
  52:C:/Users/stapi/OneDrive/Desktop/GD32VW553/V1_MQTT_OK/GD32VW55X_Wifi_BLE_SDK/GD32VW55x_RELEASE_V1.0.2/MSDK/cloud/alicloud/src/services/linkkit/dm\dm_fota.c ****     res = _dm_msg_send_to_user(IOTX_DM_EVENT_FOTA_NEW_FIRMWARE, message);
  53:C:/Users/stapi/OneDrive/Desktop/GD32VW553/V1_MQTT_OK/GD32VW55X_Wifi_BLE_SDK/GD32VW55x_RELEASE_V1.0.2/MSDK/cloud/alicloud/src/services/linkkit/dm\dm_fota.c ****     if (res != SUCCESS_RETURN) {
  54:C:/Users/stapi/OneDrive/Desktop/GD32VW553/V1_MQTT_OK/GD32VW55X_Wifi_BLE_SDK/GD32VW55x_RELEASE_V1.0.2/MSDK/cloud/alicloud/src/services/linkkit/dm\dm_fota.c ****         if (message) {
  55:C:/Users/stapi/OneDrive/Desktop/GD32VW553/V1_MQTT_OK/GD32VW55X_Wifi_BLE_SDK/GD32VW55x_RELEASE_V1.0.2/MSDK/cloud/alicloud/src/services/linkkit/dm\dm_fota.c ****             DM_free(message);
  56:C:/Users/stapi/OneDrive/Desktop/GD32VW553/V1_MQTT_OK/GD32VW55X_Wifi_BLE_SDK/GD32VW55x_RELEASE_V1.0.2/MSDK/cloud/alicloud/src/services/linkkit/dm\dm_fota.c ****         }
  57:C:/Users/stapi/OneDrive/Desktop/GD32VW553/V1_MQTT_OK/GD32VW55X_Wifi_BLE_SDK/GD32VW55x_RELEASE_V1.0.2/MSDK/cloud/alicloud/src/services/linkkit/dm\dm_fota.c ****         return FAIL_RETURN;
  58:C:/Users/stapi/OneDrive/Desktop/GD32VW553/V1_MQTT_OK/GD32VW55X_Wifi_BLE_SDK/GD32VW55x_RELEASE_V1.0.2/MSDK/cloud/alicloud/src/services/linkkit/dm\dm_fota.c ****     }
  59:C:/Users/stapi/OneDrive/Desktop/GD32VW553/V1_MQTT_OK/GD32VW55X_Wifi_BLE_SDK/GD32VW55x_RELEASE_V1.0.2/MSDK/cloud/alicloud/src/services/linkkit/dm\dm_fota.c **** 
  60:C:/Users/stapi/OneDrive/Desktop/GD32VW553/V1_MQTT_OK/GD32VW55X_Wifi_BLE_SDK/GD32VW55x_RELEASE_V1.0.2/MSDK/cloud/alicloud/src/services/linkkit/dm\dm_fota.c ****     return SUCCESS_RETURN;
  61:C:/Users/stapi/OneDrive/Desktop/GD32VW553/V1_MQTT_OK/GD32VW55X_Wifi_BLE_SDK/GD32VW55x_RELEASE_V1.0.2/MSDK/cloud/alicloud/src/services/linkkit/dm\dm_fota.c **** }
  62:C:/Users/stapi/OneDrive/Desktop/GD32VW553/V1_MQTT_OK/GD32VW55X_Wifi_BLE_SDK/GD32VW55x_RELEASE_V1.0.2/MSDK/cloud/alicloud/src/services/linkkit/dm\dm_fota.c **** 
  63:C:/Users/stapi/OneDrive/Desktop/GD32VW553/V1_MQTT_OK/GD32VW55X_Wifi_BLE_SDK/GD32VW55x_RELEASE_V1.0.2/MSDK/cloud/alicloud/src/services/linkkit/dm\dm_fota.c **** int dm_fota_perform_sync(_OU_ char *output, _IN_ int output_len)
  64:C:/Users/stapi/OneDrive/Desktop/GD32VW553/V1_MQTT_OK/GD32VW55X_Wifi_BLE_SDK/GD32VW55x_RELEASE_V1.0.2/MSDK/cloud/alicloud/src/services/linkkit/dm\dm_fota.c **** {
  58              		.loc 1 64 1 is_stmt 1
  59              		.cfi_startproc
  60              	.LVL1:
  61              		.loc 1 64 1 is_stmt 0
  62 0000 17030000 		call	t0,__riscv_save_12
  62      E7020300 
  63              		.cfi_offset 27, -52
  64              		.cfi_offset 26, -48
  65              		.cfi_offset 25, -44
  66              		.cfi_offset 24, -40
  67              		.cfi_offset 23, -36
  68              		.cfi_offset 22, -32
  69              		.cfi_offset 21, -28
  70              		.cfi_offset 20, -24
  71              		.cfi_offset 19, -20
  72              		.cfi_offset 18, -16
  73              		.cfi_offset 9, -12
  74              		.cfi_offset 8, -8
  75              		.cfi_offset 1, -4
  76              		.cfi_def_cfa_offset 64
  65:C:/Users/stapi/OneDrive/Desktop/GD32VW553/V1_MQTT_OK/GD32VW55X_Wifi_BLE_SDK/GD32VW55x_RELEASE_V1.0.2/MSDK/cloud/alicloud/src/services/linkkit/dm\dm_fota.c ****     int res = 0, file_download = 0;
  77              		.loc 1 65 5 is_stmt 1
  78              	.LVL2:
  66:C:/Users/stapi/OneDrive/Desktop/GD32VW553/V1_MQTT_OK/GD32VW55X_Wifi_BLE_SDK/GD32VW55x_RELEASE_V1.0.2/MSDK/cloud/alicloud/src/services/linkkit/dm\dm_fota.c ****     uint32_t file_size = 0, file_downloaded = 0;
  79              		.loc 1 66 5
  64:C:/Users/stapi/OneDrive/Desktop/GD32VW553/V1_MQTT_OK/GD32VW55X_Wifi_BLE_SDK/GD32VW55x_RELEASE_V1.0.2/MSDK/cloud/alicloud/src/services/linkkit/dm\dm_fota.c ****     int res = 0, file_download = 0;
  80              		.loc 1 64 1 is_stmt 0
  81 0008 7971     		addi	sp,sp,-48
  82              		.cfi_def_cfa_offset 112
  83              		.loc 1 66 14
  84 000a 02CE     		sw	zero,28(sp)
  85              		.loc 1 66 29
  86 000c 02D0     		sw	zero,32(sp)
  67:C:/Users/stapi/OneDrive/Desktop/GD32VW553/V1_MQTT_OK/GD32VW55X_Wifi_BLE_SDK/GD32VW55x_RELEASE_V1.0.2/MSDK/cloud/alicloud/src/services/linkkit/dm\dm_fota.c ****     uint32_t percent_pre = 0, percent_now = 0;
  87              		.loc 1 67 5 is_stmt 1
  88              	.LVL3:
  68:C:/Users/stapi/OneDrive/Desktop/GD32VW553/V1_MQTT_OK/GD32VW55X_Wifi_BLE_SDK/GD32VW55x_RELEASE_V1.0.2/MSDK/cloud/alicloud/src/services/linkkit/dm\dm_fota.c ****     unsigned long long report_pre = 0, report_now = 0;
  89              		.loc 1 68 5
  69:C:/Users/stapi/OneDrive/Desktop/GD32VW553/V1_MQTT_OK/GD32VW55X_Wifi_BLE_SDK/GD32VW55x_RELEASE_V1.0.2/MSDK/cloud/alicloud/src/services/linkkit/dm\dm_fota.c ****     dm_fota_ctx_t *ctx = _dm_fota_get_ctx();
  90              		.loc 1 69 5
  11:C:/Users/stapi/OneDrive/Desktop/GD32VW553/V1_MQTT_OK/GD32VW55X_Wifi_BLE_SDK/GD32VW55x_RELEASE_V1.0.2/MSDK/cloud/alicloud/src/services/linkkit/dm\dm_fota.c **** }
  91              		.loc 1 11 5
  70:C:/Users/stapi/OneDrive/Desktop/GD32VW553/V1_MQTT_OK/GD32VW55X_Wifi_BLE_SDK/GD32VW55x_RELEASE_V1.0.2/MSDK/cloud/alicloud/src/services/linkkit/dm\dm_fota.c ****     void *ota_handle = NULL;
  92              		.loc 1 70 5
  93              		.loc 1 70 11 is_stmt 0
  94 000e 02D2     		sw	zero,36(sp)
  71:C:/Users/stapi/OneDrive/Desktop/GD32VW553/V1_MQTT_OK/GD32VW55X_Wifi_BLE_SDK/GD32VW55x_RELEASE_V1.0.2/MSDK/cloud/alicloud/src/services/linkkit/dm\dm_fota.c ****     uint32_t ota_type = IOT_OTAT_NONE;
  95              		.loc 1 71 5 is_stmt 1
  96              		.loc 1 71 14 is_stmt 0
  97 0010 02D4     		sw	zero,40(sp)
  72:C:/Users/stapi/OneDrive/Desktop/GD32VW553/V1_MQTT_OK/GD32VW55X_Wifi_BLE_SDK/GD32VW55x_RELEASE_V1.0.2/MSDK/cloud/alicloud/src/services/linkkit/dm\dm_fota.c **** 
  73:C:/Users/stapi/OneDrive/Desktop/GD32VW553/V1_MQTT_OK/GD32VW55X_Wifi_BLE_SDK/GD32VW55x_RELEASE_V1.0.2/MSDK/cloud/alicloud/src/services/linkkit/dm\dm_fota.c ****     if (output == NULL || output_len <= 0) {
  98              		.loc 1 73 5 is_stmt 1
  74:C:/Users/stapi/OneDrive/Desktop/GD32VW553/V1_MQTT_OK/GD32VW55X_Wifi_BLE_SDK/GD32VW55x_RELEASE_V1.0.2/MSDK/cloud/alicloud/src/services/linkkit/dm\dm_fota.c ****         return DM_INVALID_PARAMETER;
  99              		.loc 1 74 16 is_stmt 0
 100 0012 7954     		li	s0,-2
  73:C:/Users/stapi/OneDrive/Desktop/GD32VW553/V1_MQTT_OK/GD32VW55X_Wifi_BLE_SDK/GD32VW55x_RELEASE_V1.0.2/MSDK/cloud/alicloud/src/services/linkkit/dm\dm_fota.c ****         return DM_INVALID_PARAMETER;
 101              		.loc 1 73 8
 102 0014 11CD     		beq	a0,zero,.L4
 103 0016 2E8A     		mv	s4,a1
 104              		.loc 1 74 16 discriminator 1
 105 0018 7954     		li	s0,-2
  73:C:/Users/stapi/OneDrive/Desktop/GD32VW553/V1_MQTT_OK/GD32VW55X_Wifi_BLE_SDK/GD32VW55x_RELEASE_V1.0.2/MSDK/cloud/alicloud/src/services/linkkit/dm\dm_fota.c ****         return DM_INVALID_PARAMETER;
 106              		.loc 1 73 24 discriminator 1
 107 001a 635BB000 		ble	a1,zero,.L4
 108 001e 2A89     		mv	s2,a0
  75:C:/Users/stapi/OneDrive/Desktop/GD32VW553/V1_MQTT_OK/GD32VW55X_Wifi_BLE_SDK/GD32VW55x_RELEASE_V1.0.2/MSDK/cloud/alicloud/src/services/linkkit/dm\dm_fota.c ****     }
  76:C:/Users/stapi/OneDrive/Desktop/GD32VW553/V1_MQTT_OK/GD32VW55X_Wifi_BLE_SDK/GD32VW55x_RELEASE_V1.0.2/MSDK/cloud/alicloud/src/services/linkkit/dm\dm_fota.c **** 
  77:C:/Users/stapi/OneDrive/Desktop/GD32VW553/V1_MQTT_OK/GD32VW55X_Wifi_BLE_SDK/GD32VW55x_RELEASE_V1.0.2/MSDK/cloud/alicloud/src/services/linkkit/dm\dm_fota.c ****     /* Get Ota Handle */
  78:C:/Users/stapi/OneDrive/Desktop/GD32VW553/V1_MQTT_OK/GD32VW55X_Wifi_BLE_SDK/GD32VW55x_RELEASE_V1.0.2/MSDK/cloud/alicloud/src/services/linkkit/dm\dm_fota.c ****     res = dm_ota_get_ota_handle(&ota_handle);
 109              		.loc 1 78 5 is_stmt 1
 110              		.loc 1 78 11 is_stmt 0
 111 0020 4810     		addi	a0,sp,36
 112              	.LVL4:
 113 0022 97000000 		call	dm_ota_get_ota_handle
 113      E7800000 
 114              	.LVL5:
 115 002a 2A84     		mv	s0,a0
 116              	.LVL6:
  79:C:/Users/stapi/OneDrive/Desktop/GD32VW553/V1_MQTT_OK/GD32VW55X_Wifi_BLE_SDK/GD32VW55x_RELEASE_V1.0.2/MSDK/cloud/alicloud/src/services/linkkit/dm\dm_fota.c ****     if (res != SUCCESS_RETURN) {
 117              		.loc 1 79 5 is_stmt 1
 118              		.loc 1 79 8 is_stmt 0
 119 002c 01C9     		beq	a0,zero,.L6
 120              	.LVL7:
 121              	.L26:
  80:C:/Users/stapi/OneDrive/Desktop/GD32VW553/V1_MQTT_OK/GD32VW55X_Wifi_BLE_SDK/GD32VW55x_RELEASE_V1.0.2/MSDK/cloud/alicloud/src/services/linkkit/dm\dm_fota.c ****         return FAIL_RETURN;
  81:C:/Users/stapi/OneDrive/Desktop/GD32VW553/V1_MQTT_OK/GD32VW55X_Wifi_BLE_SDK/GD32VW55x_RELEASE_V1.0.2/MSDK/cloud/alicloud/src/services/linkkit/dm\dm_fota.c ****     }
  82:C:/Users/stapi/OneDrive/Desktop/GD32VW553/V1_MQTT_OK/GD32VW55X_Wifi_BLE_SDK/GD32VW55x_RELEASE_V1.0.2/MSDK/cloud/alicloud/src/services/linkkit/dm\dm_fota.c **** 
  83:C:/Users/stapi/OneDrive/Desktop/GD32VW553/V1_MQTT_OK/GD32VW55X_Wifi_BLE_SDK/GD32VW55x_RELEASE_V1.0.2/MSDK/cloud/alicloud/src/services/linkkit/dm\dm_fota.c ****     if (ota_handle == NULL) {
  84:C:/Users/stapi/OneDrive/Desktop/GD32VW553/V1_MQTT_OK/GD32VW55X_Wifi_BLE_SDK/GD32VW55x_RELEASE_V1.0.2/MSDK/cloud/alicloud/src/services/linkkit/dm\dm_fota.c ****         return FAIL_RETURN;
  85:C:/Users/stapi/OneDrive/Desktop/GD32VW553/V1_MQTT_OK/GD32VW55X_Wifi_BLE_SDK/GD32VW55x_RELEASE_V1.0.2/MSDK/cloud/alicloud/src/services/linkkit/dm\dm_fota.c ****     }
  86:C:/Users/stapi/OneDrive/Desktop/GD32VW553/V1_MQTT_OK/GD32VW55X_Wifi_BLE_SDK/GD32VW55x_RELEASE_V1.0.2/MSDK/cloud/alicloud/src/services/linkkit/dm\dm_fota.c ****     IOT_OTA_Ioctl(ota_handle, IOT_OTAG_OTA_TYPE, &ota_type, 4);
  87:C:/Users/stapi/OneDrive/Desktop/GD32VW553/V1_MQTT_OK/GD32VW55X_Wifi_BLE_SDK/GD32VW55x_RELEASE_V1.0.2/MSDK/cloud/alicloud/src/services/linkkit/dm\dm_fota.c **** 
  88:C:/Users/stapi/OneDrive/Desktop/GD32VW553/V1_MQTT_OK/GD32VW55X_Wifi_BLE_SDK/GD32VW55x_RELEASE_V1.0.2/MSDK/cloud/alicloud/src/services/linkkit/dm\dm_fota.c ****     if ((ota_type != IOT_OTAT_FOTA) && (ota_type != IOT_OTAT_FOTA_OFFLINE)) {
  89:C:/Users/stapi/OneDrive/Desktop/GD32VW553/V1_MQTT_OK/GD32VW55X_Wifi_BLE_SDK/GD32VW55x_RELEASE_V1.0.2/MSDK/cloud/alicloud/src/services/linkkit/dm\dm_fota.c ****         return FAIL_RETURN;
  90:C:/Users/stapi/OneDrive/Desktop/GD32VW553/V1_MQTT_OK/GD32VW55X_Wifi_BLE_SDK/GD32VW55x_RELEASE_V1.0.2/MSDK/cloud/alicloud/src/services/linkkit/dm\dm_fota.c ****     }
  91:C:/Users/stapi/OneDrive/Desktop/GD32VW553/V1_MQTT_OK/GD32VW55X_Wifi_BLE_SDK/GD32VW55x_RELEASE_V1.0.2/MSDK/cloud/alicloud/src/services/linkkit/dm\dm_fota.c **** 
  92:C:/Users/stapi/OneDrive/Desktop/GD32VW553/V1_MQTT_OK/GD32VW55X_Wifi_BLE_SDK/GD32VW55x_RELEASE_V1.0.2/MSDK/cloud/alicloud/src/services/linkkit/dm\dm_fota.c ****     /* reset the size_fetched in ota_handle to be 0 */
  93:C:/Users/stapi/OneDrive/Desktop/GD32VW553/V1_MQTT_OK/GD32VW55X_Wifi_BLE_SDK/GD32VW55x_RELEASE_V1.0.2/MSDK/cloud/alicloud/src/services/linkkit/dm\dm_fota.c ****     IOT_OTA_Ioctl(ota_handle, IOT_OTAG_RESET_FETCHED_SIZE, ota_handle, 4);
  94:C:/Users/stapi/OneDrive/Desktop/GD32VW553/V1_MQTT_OK/GD32VW55X_Wifi_BLE_SDK/GD32VW55x_RELEASE_V1.0.2/MSDK/cloud/alicloud/src/services/linkkit/dm\dm_fota.c ****     /* Prepare Write Data To Storage */
  95:C:/Users/stapi/OneDrive/Desktop/GD32VW553/V1_MQTT_OK/GD32VW55X_Wifi_BLE_SDK/GD32VW55x_RELEASE_V1.0.2/MSDK/cloud/alicloud/src/services/linkkit/dm\dm_fota.c ****     HAL_Firmware_Persistence_Start();
  96:C:/Users/stapi/OneDrive/Desktop/GD32VW553/V1_MQTT_OK/GD32VW55X_Wifi_BLE_SDK/GD32VW55x_RELEASE_V1.0.2/MSDK/cloud/alicloud/src/services/linkkit/dm\dm_fota.c ****     while (1) {
  97:C:/Users/stapi/OneDrive/Desktop/GD32VW553/V1_MQTT_OK/GD32VW55X_Wifi_BLE_SDK/GD32VW55x_RELEASE_V1.0.2/MSDK/cloud/alicloud/src/services/linkkit/dm\dm_fota.c ****         file_download = IOT_OTA_FetchYield(ota_handle, output, output_len, 1);
  98:C:/Users/stapi/OneDrive/Desktop/GD32VW553/V1_MQTT_OK/GD32VW55X_Wifi_BLE_SDK/GD32VW55x_RELEASE_V1.0.2/MSDK/cloud/alicloud/src/services/linkkit/dm\dm_fota.c ****         if (file_download < 0) {
  99:C:/Users/stapi/OneDrive/Desktop/GD32VW553/V1_MQTT_OK/GD32VW55X_Wifi_BLE_SDK/GD32VW55x_RELEASE_V1.0.2/MSDK/cloud/alicloud/src/services/linkkit/dm\dm_fota.c ****             IOT_OTA_ReportProgress(ota_handle, IOT_OTAP_FETCH_FAILED, NULL);
 100:C:/Users/stapi/OneDrive/Desktop/GD32VW553/V1_MQTT_OK/GD32VW55X_Wifi_BLE_SDK/GD32VW55x_RELEASE_V1.0.2/MSDK/cloud/alicloud/src/services/linkkit/dm\dm_fota.c ****             HAL_Firmware_Persistence_Stop();
 101:C:/Users/stapi/OneDrive/Desktop/GD32VW553/V1_MQTT_OK/GD32VW55X_Wifi_BLE_SDK/GD32VW55x_RELEASE_V1.0.2/MSDK/cloud/alicloud/src/services/linkkit/dm\dm_fota.c ****             ctx->is_report_new_config = 0;
 102:C:/Users/stapi/OneDrive/Desktop/GD32VW553/V1_MQTT_OK/GD32VW55X_Wifi_BLE_SDK/GD32VW55x_RELEASE_V1.0.2/MSDK/cloud/alicloud/src/services/linkkit/dm\dm_fota.c ****             return FAIL_RETURN;
 122              		.loc 1 102 13 is_stmt 1
 123              		.loc 1 102 20 is_stmt 0
 124 002e 7D54     		li	s0,-1
 125              	.LVL8:
 126              	.L4:
 103:C:/Users/stapi/OneDrive/Desktop/GD32VW553/V1_MQTT_OK/GD32VW55X_Wifi_BLE_SDK/GD32VW55x_RELEASE_V1.0.2/MSDK/cloud/alicloud/src/services/linkkit/dm\dm_fota.c ****         }
 104:C:/Users/stapi/OneDrive/Desktop/GD32VW553/V1_MQTT_OK/GD32VW55X_Wifi_BLE_SDK/GD32VW55x_RELEASE_V1.0.2/MSDK/cloud/alicloud/src/services/linkkit/dm\dm_fota.c **** 
 105:C:/Users/stapi/OneDrive/Desktop/GD32VW553/V1_MQTT_OK/GD32VW55X_Wifi_BLE_SDK/GD32VW55x_RELEASE_V1.0.2/MSDK/cloud/alicloud/src/services/linkkit/dm\dm_fota.c ****         /* Write Config File Into Stroage */
 106:C:/Users/stapi/OneDrive/Desktop/GD32VW553/V1_MQTT_OK/GD32VW55X_Wifi_BLE_SDK/GD32VW55x_RELEASE_V1.0.2/MSDK/cloud/alicloud/src/services/linkkit/dm\dm_fota.c ****         res = HAL_Firmware_Persistence_Write(output, file_download);
 107:C:/Users/stapi/OneDrive/Desktop/GD32VW553/V1_MQTT_OK/GD32VW55X_Wifi_BLE_SDK/GD32VW55x_RELEASE_V1.0.2/MSDK/cloud/alicloud/src/services/linkkit/dm\dm_fota.c ****         if (res < 0) {
 108:C:/Users/stapi/OneDrive/Desktop/GD32VW553/V1_MQTT_OK/GD32VW55X_Wifi_BLE_SDK/GD32VW55x_RELEASE_V1.0.2/MSDK/cloud/alicloud/src/services/linkkit/dm\dm_fota.c ****             IOT_OTA_ReportProgress(ota_handle, IOT_OTAP_BURN_FAILED, NULL);
 109:C:/Users/stapi/OneDrive/Desktop/GD32VW553/V1_MQTT_OK/GD32VW55X_Wifi_BLE_SDK/GD32VW55x_RELEASE_V1.0.2/MSDK/cloud/alicloud/src/services/linkkit/dm\dm_fota.c ****             dm_log_err("Fota write firmware failed");
 110:C:/Users/stapi/OneDrive/Desktop/GD32VW553/V1_MQTT_OK/GD32VW55X_Wifi_BLE_SDK/GD32VW55x_RELEASE_V1.0.2/MSDK/cloud/alicloud/src/services/linkkit/dm\dm_fota.c ****             HAL_Firmware_Persistence_Stop();
 111:C:/Users/stapi/OneDrive/Desktop/GD32VW553/V1_MQTT_OK/GD32VW55X_Wifi_BLE_SDK/GD32VW55x_RELEASE_V1.0.2/MSDK/cloud/alicloud/src/services/linkkit/dm\dm_fota.c ****             ctx->is_report_new_config = 0;
 112:C:/Users/stapi/OneDrive/Desktop/GD32VW553/V1_MQTT_OK/GD32VW55X_Wifi_BLE_SDK/GD32VW55x_RELEASE_V1.0.2/MSDK/cloud/alicloud/src/services/linkkit/dm\dm_fota.c ****             return FAIL_RETURN;
 113:C:/Users/stapi/OneDrive/Desktop/GD32VW553/V1_MQTT_OK/GD32VW55X_Wifi_BLE_SDK/GD32VW55x_RELEASE_V1.0.2/MSDK/cloud/alicloud/src/services/linkkit/dm\dm_fota.c ****         }
 114:C:/Users/stapi/OneDrive/Desktop/GD32VW553/V1_MQTT_OK/GD32VW55X_Wifi_BLE_SDK/GD32VW55x_RELEASE_V1.0.2/MSDK/cloud/alicloud/src/services/linkkit/dm\dm_fota.c **** 
 115:C:/Users/stapi/OneDrive/Desktop/GD32VW553/V1_MQTT_OK/GD32VW55X_Wifi_BLE_SDK/GD32VW55x_RELEASE_V1.0.2/MSDK/cloud/alicloud/src/services/linkkit/dm\dm_fota.c ****         /* Get OTA information */
 116:C:/Users/stapi/OneDrive/Desktop/GD32VW553/V1_MQTT_OK/GD32VW55X_Wifi_BLE_SDK/GD32VW55x_RELEASE_V1.0.2/MSDK/cloud/alicloud/src/services/linkkit/dm\dm_fota.c ****         IOT_OTA_Ioctl(ota_handle, IOT_OTAG_FETCHED_SIZE, &file_downloaded, 4);
 117:C:/Users/stapi/OneDrive/Desktop/GD32VW553/V1_MQTT_OK/GD32VW55X_Wifi_BLE_SDK/GD32VW55x_RELEASE_V1.0.2/MSDK/cloud/alicloud/src/services/linkkit/dm\dm_fota.c ****         IOT_OTA_Ioctl(ota_handle, IOT_OTAG_FILE_SIZE, &file_size, 4);
 118:C:/Users/stapi/OneDrive/Desktop/GD32VW553/V1_MQTT_OK/GD32VW55X_Wifi_BLE_SDK/GD32VW55x_RELEASE_V1.0.2/MSDK/cloud/alicloud/src/services/linkkit/dm\dm_fota.c **** 
 119:C:/Users/stapi/OneDrive/Desktop/GD32VW553/V1_MQTT_OK/GD32VW55X_Wifi_BLE_SDK/GD32VW55x_RELEASE_V1.0.2/MSDK/cloud/alicloud/src/services/linkkit/dm\dm_fota.c ****         /* Calculate Download Percent And Update Report Timestamp*/
 120:C:/Users/stapi/OneDrive/Desktop/GD32VW553/V1_MQTT_OK/GD32VW55X_Wifi_BLE_SDK/GD32VW55x_RELEASE_V1.0.2/MSDK/cloud/alicloud/src/services/linkkit/dm\dm_fota.c ****         percent_now = (file_downloaded * 100) / file_size;
 121:C:/Users/stapi/OneDrive/Desktop/GD32VW553/V1_MQTT_OK/GD32VW55X_Wifi_BLE_SDK/GD32VW55x_RELEASE_V1.0.2/MSDK/cloud/alicloud/src/services/linkkit/dm\dm_fota.c ****         report_now = HAL_UptimeMs();
 122:C:/Users/stapi/OneDrive/Desktop/GD32VW553/V1_MQTT_OK/GD32VW55X_Wifi_BLE_SDK/GD32VW55x_RELEASE_V1.0.2/MSDK/cloud/alicloud/src/services/linkkit/dm\dm_fota.c **** 
 123:C:/Users/stapi/OneDrive/Desktop/GD32VW553/V1_MQTT_OK/GD32VW55X_Wifi_BLE_SDK/GD32VW55x_RELEASE_V1.0.2/MSDK/cloud/alicloud/src/services/linkkit/dm\dm_fota.c ****         /* Report Download Process To Cloud */
 124:C:/Users/stapi/OneDrive/Desktop/GD32VW553/V1_MQTT_OK/GD32VW55X_Wifi_BLE_SDK/GD32VW55x_RELEASE_V1.0.2/MSDK/cloud/alicloud/src/services/linkkit/dm\dm_fota.c ****         if (report_now < report_pre) {
 125:C:/Users/stapi/OneDrive/Desktop/GD32VW553/V1_MQTT_OK/GD32VW55X_Wifi_BLE_SDK/GD32VW55x_RELEASE_V1.0.2/MSDK/cloud/alicloud/src/services/linkkit/dm\dm_fota.c ****             report_pre = report_now;
 126:C:/Users/stapi/OneDrive/Desktop/GD32VW553/V1_MQTT_OK/GD32VW55X_Wifi_BLE_SDK/GD32VW55x_RELEASE_V1.0.2/MSDK/cloud/alicloud/src/services/linkkit/dm\dm_fota.c ****         }
 127:C:/Users/stapi/OneDrive/Desktop/GD32VW553/V1_MQTT_OK/GD32VW55X_Wifi_BLE_SDK/GD32VW55x_RELEASE_V1.0.2/MSDK/cloud/alicloud/src/services/linkkit/dm\dm_fota.c ****         if ((((percent_now - percent_pre) > 5) &&
 128:C:/Users/stapi/OneDrive/Desktop/GD32VW553/V1_MQTT_OK/GD32VW55X_Wifi_BLE_SDK/GD32VW55x_RELEASE_V1.0.2/MSDK/cloud/alicloud/src/services/linkkit/dm\dm_fota.c ****              ((report_now - report_pre) > 50)) || (percent_now >= IOT_OTAP_FETCH_PERCENTAGE_MAX)) {
 129:C:/Users/stapi/OneDrive/Desktop/GD32VW553/V1_MQTT_OK/GD32VW55X_Wifi_BLE_SDK/GD32VW55x_RELEASE_V1.0.2/MSDK/cloud/alicloud/src/services/linkkit/dm\dm_fota.c ****             IOT_OTA_ReportProgress(ota_handle, percent_now, NULL);
 130:C:/Users/stapi/OneDrive/Desktop/GD32VW553/V1_MQTT_OK/GD32VW55X_Wifi_BLE_SDK/GD32VW55x_RELEASE_V1.0.2/MSDK/cloud/alicloud/src/services/linkkit/dm\dm_fota.c ****             percent_pre = percent_now;
 131:C:/Users/stapi/OneDrive/Desktop/GD32VW553/V1_MQTT_OK/GD32VW55X_Wifi_BLE_SDK/GD32VW55x_RELEASE_V1.0.2/MSDK/cloud/alicloud/src/services/linkkit/dm\dm_fota.c ****             report_pre = report_now;
 132:C:/Users/stapi/OneDrive/Desktop/GD32VW553/V1_MQTT_OK/GD32VW55X_Wifi_BLE_SDK/GD32VW55x_RELEASE_V1.0.2/MSDK/cloud/alicloud/src/services/linkkit/dm\dm_fota.c ****         }
 133:C:/Users/stapi/OneDrive/Desktop/GD32VW553/V1_MQTT_OK/GD32VW55X_Wifi_BLE_SDK/GD32VW55x_RELEASE_V1.0.2/MSDK/cloud/alicloud/src/services/linkkit/dm\dm_fota.c **** 
 134:C:/Users/stapi/OneDrive/Desktop/GD32VW553/V1_MQTT_OK/GD32VW55X_Wifi_BLE_SDK/GD32VW55x_RELEASE_V1.0.2/MSDK/cloud/alicloud/src/services/linkkit/dm\dm_fota.c ****         /* Check If OTA Finished */
 135:C:/Users/stapi/OneDrive/Desktop/GD32VW553/V1_MQTT_OK/GD32VW55X_Wifi_BLE_SDK/GD32VW55x_RELEASE_V1.0.2/MSDK/cloud/alicloud/src/services/linkkit/dm\dm_fota.c ****         if (IOT_OTA_IsFetchFinish(ota_handle)) {
 136:C:/Users/stapi/OneDrive/Desktop/GD32VW553/V1_MQTT_OK/GD32VW55X_Wifi_BLE_SDK/GD32VW55x_RELEASE_V1.0.2/MSDK/cloud/alicloud/src/services/linkkit/dm\dm_fota.c ****             uint32_t file_isvalid = 0;
 137:C:/Users/stapi/OneDrive/Desktop/GD32VW553/V1_MQTT_OK/GD32VW55X_Wifi_BLE_SDK/GD32VW55x_RELEASE_V1.0.2/MSDK/cloud/alicloud/src/services/linkkit/dm\dm_fota.c ****             IOT_OTA_Ioctl(ota_handle, IOT_OTAG_CHECK_FIRMWARE, &file_isvalid, 4);
 138:C:/Users/stapi/OneDrive/Desktop/GD32VW553/V1_MQTT_OK/GD32VW55X_Wifi_BLE_SDK/GD32VW55x_RELEASE_V1.0.2/MSDK/cloud/alicloud/src/services/linkkit/dm\dm_fota.c ****             if (file_isvalid == 0) {
 139:C:/Users/stapi/OneDrive/Desktop/GD32VW553/V1_MQTT_OK/GD32VW55X_Wifi_BLE_SDK/GD32VW55x_RELEASE_V1.0.2/MSDK/cloud/alicloud/src/services/linkkit/dm\dm_fota.c ****                 HAL_Firmware_Persistence_Stop();
 140:C:/Users/stapi/OneDrive/Desktop/GD32VW553/V1_MQTT_OK/GD32VW55X_Wifi_BLE_SDK/GD32VW55x_RELEASE_V1.0.2/MSDK/cloud/alicloud/src/services/linkkit/dm\dm_fota.c ****                 IOT_OTA_ReportProgress(ota_handle, IOT_OTAP_CHECK_FALIED, NULL);
 141:C:/Users/stapi/OneDrive/Desktop/GD32VW553/V1_MQTT_OK/GD32VW55X_Wifi_BLE_SDK/GD32VW55x_RELEASE_V1.0.2/MSDK/cloud/alicloud/src/services/linkkit/dm\dm_fota.c ****                 ctx->is_report_new_config = 0;
 142:C:/Users/stapi/OneDrive/Desktop/GD32VW553/V1_MQTT_OK/GD32VW55X_Wifi_BLE_SDK/GD32VW55x_RELEASE_V1.0.2/MSDK/cloud/alicloud/src/services/linkkit/dm\dm_fota.c ****                 return FAIL_RETURN;
 143:C:/Users/stapi/OneDrive/Desktop/GD32VW553/V1_MQTT_OK/GD32VW55X_Wifi_BLE_SDK/GD32VW55x_RELEASE_V1.0.2/MSDK/cloud/alicloud/src/services/linkkit/dm\dm_fota.c ****             } else {
 144:C:/Users/stapi/OneDrive/Desktop/GD32VW553/V1_MQTT_OK/GD32VW55X_Wifi_BLE_SDK/GD32VW55x_RELEASE_V1.0.2/MSDK/cloud/alicloud/src/services/linkkit/dm\dm_fota.c ****                 break;
 145:C:/Users/stapi/OneDrive/Desktop/GD32VW553/V1_MQTT_OK/GD32VW55X_Wifi_BLE_SDK/GD32VW55x_RELEASE_V1.0.2/MSDK/cloud/alicloud/src/services/linkkit/dm\dm_fota.c ****             }
 146:C:/Users/stapi/OneDrive/Desktop/GD32VW553/V1_MQTT_OK/GD32VW55X_Wifi_BLE_SDK/GD32VW55x_RELEASE_V1.0.2/MSDK/cloud/alicloud/src/services/linkkit/dm\dm_fota.c ****         }
 147:C:/Users/stapi/OneDrive/Desktop/GD32VW553/V1_MQTT_OK/GD32VW55X_Wifi_BLE_SDK/GD32VW55x_RELEASE_V1.0.2/MSDK/cloud/alicloud/src/services/linkkit/dm\dm_fota.c ****     }
 148:C:/Users/stapi/OneDrive/Desktop/GD32VW553/V1_MQTT_OK/GD32VW55X_Wifi_BLE_SDK/GD32VW55x_RELEASE_V1.0.2/MSDK/cloud/alicloud/src/services/linkkit/dm\dm_fota.c **** 
 149:C:/Users/stapi/OneDrive/Desktop/GD32VW553/V1_MQTT_OK/GD32VW55X_Wifi_BLE_SDK/GD32VW55x_RELEASE_V1.0.2/MSDK/cloud/alicloud/src/services/linkkit/dm\dm_fota.c ****     HAL_Firmware_Persistence_Stop();
 150:C:/Users/stapi/OneDrive/Desktop/GD32VW553/V1_MQTT_OK/GD32VW55X_Wifi_BLE_SDK/GD32VW55x_RELEASE_V1.0.2/MSDK/cloud/alicloud/src/services/linkkit/dm\dm_fota.c ****     ctx->is_report_new_config = 0;
 151:C:/Users/stapi/OneDrive/Desktop/GD32VW553/V1_MQTT_OK/GD32VW55X_Wifi_BLE_SDK/GD32VW55x_RELEASE_V1.0.2/MSDK/cloud/alicloud/src/services/linkkit/dm\dm_fota.c **** 
 152:C:/Users/stapi/OneDrive/Desktop/GD32VW553/V1_MQTT_OK/GD32VW55X_Wifi_BLE_SDK/GD32VW55x_RELEASE_V1.0.2/MSDK/cloud/alicloud/src/services/linkkit/dm\dm_fota.c ****     return SUCCESS_RETURN;
 153:C:/Users/stapi/OneDrive/Desktop/GD32VW553/V1_MQTT_OK/GD32VW55X_Wifi_BLE_SDK/GD32VW55x_RELEASE_V1.0.2/MSDK/cloud/alicloud/src/services/linkkit/dm\dm_fota.c **** }
 127              		.loc 1 153 1
 128 0030 2285     		mv	a0,s0
 129 0032 4561     		addi	sp,sp,48
 130              		.cfi_remember_state
 131              		.cfi_def_cfa_offset 0
 132 0034 17030000 		tail	__riscv_restore_12
 132      67000300 
 133              		.cfi_restore 27
 134              		.cfi_restore 26
 135              		.cfi_restore 25
 136              		.cfi_restore 24
 137              		.cfi_restore 23
 138              		.cfi_restore 22
 139              		.cfi_restore 21
 140              		.cfi_restore 20
 141              		.cfi_restore 19
 142              		.cfi_restore 18
 143              		.cfi_restore 9
 144              		.cfi_restore 8
 145              		.cfi_restore 1
 146              		.cfi_def_cfa_offset -64
 147              	.LVL9:
 148              	.L6:
 149              		.cfi_restore_state
  83:C:/Users/stapi/OneDrive/Desktop/GD32VW553/V1_MQTT_OK/GD32VW55X_Wifi_BLE_SDK/GD32VW55x_RELEASE_V1.0.2/MSDK/cloud/alicloud/src/services/linkkit/dm\dm_fota.c ****         return FAIL_RETURN;
 150              		.loc 1 83 5 is_stmt 1
  83:C:/Users/stapi/OneDrive/Desktop/GD32VW553/V1_MQTT_OK/GD32VW55X_Wifi_BLE_SDK/GD32VW55x_RELEASE_V1.0.2/MSDK/cloud/alicloud/src/services/linkkit/dm\dm_fota.c ****         return FAIL_RETURN;
 151              		.loc 1 83 20 is_stmt 0
 152 003c 1255     		lw	a0,36(sp)
  83:C:/Users/stapi/OneDrive/Desktop/GD32VW553/V1_MQTT_OK/GD32VW55X_Wifi_BLE_SDK/GD32VW55x_RELEASE_V1.0.2/MSDK/cloud/alicloud/src/services/linkkit/dm\dm_fota.c ****         return FAIL_RETURN;
 153              		.loc 1 83 8
 154 003e 65D9     		beq	a0,zero,.L26
  86:C:/Users/stapi/OneDrive/Desktop/GD32VW553/V1_MQTT_OK/GD32VW55X_Wifi_BLE_SDK/GD32VW55x_RELEASE_V1.0.2/MSDK/cloud/alicloud/src/services/linkkit/dm\dm_fota.c **** 
 155              		.loc 1 86 5 is_stmt 1
 156 0040 9146     		li	a3,4
 157 0042 3010     		addi	a2,sp,40
 158 0044 9945     		li	a1,6
 159 0046 97000000 		call	IOT_OTA_Ioctl
 159      E7800000 
 160              	.LVL10:
  88:C:/Users/stapi/OneDrive/Desktop/GD32VW553/V1_MQTT_OK/GD32VW55X_Wifi_BLE_SDK/GD32VW55x_RELEASE_V1.0.2/MSDK/cloud/alicloud/src/services/linkkit/dm\dm_fota.c ****         return FAIL_RETURN;
 161              		.loc 1 88 5
  88:C:/Users/stapi/OneDrive/Desktop/GD32VW553/V1_MQTT_OK/GD32VW55X_Wifi_BLE_SDK/GD32VW55x_RELEASE_V1.0.2/MSDK/cloud/alicloud/src/services/linkkit/dm\dm_fota.c ****         return FAIL_RETURN;
 162              		.loc 1 88 37 is_stmt 0
 163 004e A257     		lw	a5,40(sp)
  88:C:/Users/stapi/OneDrive/Desktop/GD32VW553/V1_MQTT_OK/GD32VW55X_Wifi_BLE_SDK/GD32VW55x_RELEASE_V1.0.2/MSDK/cloud/alicloud/src/services/linkkit/dm\dm_fota.c ****         return FAIL_RETURN;
 164              		.loc 1 88 8
 165 0050 0547     		li	a4,1
  88:C:/Users/stapi/OneDrive/Desktop/GD32VW553/V1_MQTT_OK/GD32VW55X_Wifi_BLE_SDK/GD32VW55x_RELEASE_V1.0.2/MSDK/cloud/alicloud/src/services/linkkit/dm\dm_fota.c ****         return FAIL_RETURN;
 166              		.loc 1 88 37
 167 0052 F917     		addi	a5,a5,-2
  88:C:/Users/stapi/OneDrive/Desktop/GD32VW553/V1_MQTT_OK/GD32VW55X_Wifi_BLE_SDK/GD32VW55x_RELEASE_V1.0.2/MSDK/cloud/alicloud/src/services/linkkit/dm\dm_fota.c ****         return FAIL_RETURN;
 168              		.loc 1 88 8
 169 0054 E36DF7FC 		bgtu	a5,a4,.L26
  93:C:/Users/stapi/OneDrive/Desktop/GD32VW553/V1_MQTT_OK/GD32VW55X_Wifi_BLE_SDK/GD32VW55x_RELEASE_V1.0.2/MSDK/cloud/alicloud/src/services/linkkit/dm\dm_fota.c ****     /* Prepare Write Data To Storage */
 170              		.loc 1 93 5 is_stmt 1
 171 0058 1256     		lw	a2,36(sp)
 172 005a 9146     		li	a3,4
 173 005c B545     		li	a1,13
 174 005e 3285     		mv	a0,a2
 175 0060 97000000 		call	IOT_OTA_Ioctl
 175      E7800000 
 176              	.LVL11:
  95:C:/Users/stapi/OneDrive/Desktop/GD32VW553/V1_MQTT_OK/GD32VW55X_Wifi_BLE_SDK/GD32VW55x_RELEASE_V1.0.2/MSDK/cloud/alicloud/src/services/linkkit/dm\dm_fota.c ****     while (1) {
 177              		.loc 1 95 5
 178 0068 97000000 		call	HAL_Firmware_Persistence_Start
 178      E7800000 
 179              	.LVL12:
  68:C:/Users/stapi/OneDrive/Desktop/GD32VW553/V1_MQTT_OK/GD32VW55X_Wifi_BLE_SDK/GD32VW55x_RELEASE_V1.0.2/MSDK/cloud/alicloud/src/services/linkkit/dm\dm_fota.c ****     dm_fota_ctx_t *ctx = _dm_fota_get_ctx();
 180              		.loc 1 68 24 is_stmt 0
 181 0070 814A     		li	s5,0
 182 0072 8149     		li	s3,0
  67:C:/Users/stapi/OneDrive/Desktop/GD32VW553/V1_MQTT_OK/GD32VW55X_Wifi_BLE_SDK/GD32VW55x_RELEASE_V1.0.2/MSDK/cloud/alicloud/src/services/linkkit/dm\dm_fota.c ****     unsigned long long report_pre = 0, report_now = 0;
 183              		.loc 1 67 14
 184 0074 014B     		li	s6,0
 120:C:/Users/stapi/OneDrive/Desktop/GD32VW553/V1_MQTT_OK/GD32VW55X_Wifi_BLE_SDK/GD32VW55x_RELEASE_V1.0.2/MSDK/cloud/alicloud/src/services/linkkit/dm\dm_fota.c ****         report_now = HAL_UptimeMs();
 185              		.loc 1 120 40
 186 0076 930B4006 		li	s7,100
 127:C:/Users/stapi/OneDrive/Desktop/GD32VW553/V1_MQTT_OK/GD32VW55X_Wifi_BLE_SDK/GD32VW55x_RELEASE_V1.0.2/MSDK/cloud/alicloud/src/services/linkkit/dm\dm_fota.c ****              ((report_now - report_pre) > 50)) || (percent_now >= IOT_OTAP_FETCH_PERCENTAGE_MAX)) {
 187              		.loc 1 127 12
 188 007a 154C     		li	s8,5
 128:C:/Users/stapi/OneDrive/Desktop/GD32VW553/V1_MQTT_OK/GD32VW55X_Wifi_BLE_SDK/GD32VW55x_RELEASE_V1.0.2/MSDK/cloud/alicloud/src/services/linkkit/dm\dm_fota.c ****             IOT_OTA_ReportProgress(ota_handle, percent_now, NULL);
 189              		.loc 1 128 48
 190 007c 930C3006 		li	s9,99
 127:C:/Users/stapi/OneDrive/Desktop/GD32VW553/V1_MQTT_OK/GD32VW55X_Wifi_BLE_SDK/GD32VW55x_RELEASE_V1.0.2/MSDK/cloud/alicloud/src/services/linkkit/dm\dm_fota.c ****              ((report_now - report_pre) > 50)) || (percent_now >= IOT_OTAP_FETCH_PERCENTAGE_MAX)) {
 191              		.loc 1 127 48
 192 0080 130D2003 		li	s10,50
 193              	.LVL13:
 194              	.L16:
  96:C:/Users/stapi/OneDrive/Desktop/GD32VW553/V1_MQTT_OK/GD32VW55X_Wifi_BLE_SDK/GD32VW55x_RELEASE_V1.0.2/MSDK/cloud/alicloud/src/services/linkkit/dm\dm_fota.c ****         file_download = IOT_OTA_FetchYield(ota_handle, output, output_len, 1);
 195              		.loc 1 96 5 is_stmt 1
  97:C:/Users/stapi/OneDrive/Desktop/GD32VW553/V1_MQTT_OK/GD32VW55X_Wifi_BLE_SDK/GD32VW55x_RELEASE_V1.0.2/MSDK/cloud/alicloud/src/services/linkkit/dm\dm_fota.c ****         if (file_download < 0) {
 196              		.loc 1 97 9
  97:C:/Users/stapi/OneDrive/Desktop/GD32VW553/V1_MQTT_OK/GD32VW55X_Wifi_BLE_SDK/GD32VW55x_RELEASE_V1.0.2/MSDK/cloud/alicloud/src/services/linkkit/dm\dm_fota.c ****         if (file_download < 0) {
 197              		.loc 1 97 25 is_stmt 0
 198 0084 1255     		lw	a0,36(sp)
 199 0086 CA85     		mv	a1,s2
 200 0088 8546     		li	a3,1
 201 008a 5286     		mv	a2,s4
 202 008c 97000000 		call	IOT_OTA_FetchYield
 202      E7800000 
 203              	.LVL14:
 204 0094 AA85     		mv	a1,a0
 205              	.LVL15:
  98:C:/Users/stapi/OneDrive/Desktop/GD32VW553/V1_MQTT_OK/GD32VW55X_Wifi_BLE_SDK/GD32VW55x_RELEASE_V1.0.2/MSDK/cloud/alicloud/src/services/linkkit/dm\dm_fota.c ****             IOT_OTA_ReportProgress(ota_handle, IOT_OTAP_FETCH_FAILED, NULL);
 206              		.loc 1 98 9 is_stmt 1
  98:C:/Users/stapi/OneDrive/Desktop/GD32VW553/V1_MQTT_OK/GD32VW55X_Wifi_BLE_SDK/GD32VW55x_RELEASE_V1.0.2/MSDK/cloud/alicloud/src/services/linkkit/dm\dm_fota.c ****             IOT_OTA_ReportProgress(ota_handle, IOT_OTAP_FETCH_FAILED, NULL);
 207              		.loc 1 98 12 is_stmt 0
 208 0096 63520502 		bge	a0,zero,.L8
  99:C:/Users/stapi/OneDrive/Desktop/GD32VW553/V1_MQTT_OK/GD32VW55X_Wifi_BLE_SDK/GD32VW55x_RELEASE_V1.0.2/MSDK/cloud/alicloud/src/services/linkkit/dm\dm_fota.c ****             HAL_Firmware_Persistence_Stop();
 209              		.loc 1 99 13 is_stmt 1
 210 009a 1255     		lw	a0,36(sp)
 211              	.LVL16:
 212 009c 0146     		li	a2,0
 213 009e F955     		li	a1,-2
 214              	.LVL17:
 215 00a0 97000000 		call	IOT_OTA_ReportProgress
 215      E7800000 
 216              	.LVL18:
 217              	.L27:
 100:C:/Users/stapi/OneDrive/Desktop/GD32VW553/V1_MQTT_OK/GD32VW55X_Wifi_BLE_SDK/GD32VW55x_RELEASE_V1.0.2/MSDK/cloud/alicloud/src/services/linkkit/dm\dm_fota.c ****             ctx->is_report_new_config = 0;
 218              		.loc 1 100 13
 219 00a8 97000000 		call	HAL_Firmware_Persistence_Stop
 219      E7800000 
 220              	.LVL19:
 101:C:/Users/stapi/OneDrive/Desktop/GD32VW553/V1_MQTT_OK/GD32VW55X_Wifi_BLE_SDK/GD32VW55x_RELEASE_V1.0.2/MSDK/cloud/alicloud/src/services/linkkit/dm\dm_fota.c ****             return FAIL_RETURN;
 221              		.loc 1 101 13
 101:C:/Users/stapi/OneDrive/Desktop/GD32VW553/V1_MQTT_OK/GD32VW55X_Wifi_BLE_SDK/GD32VW55x_RELEASE_V1.0.2/MSDK/cloud/alicloud/src/services/linkkit/dm\dm_fota.c ****             return FAIL_RETURN;
 222              		.loc 1 101 39 is_stmt 0
 223 00b0 B7070000 		lui	a5,%hi(.LANCHOR0)
 224 00b4 23A00700 		sw	zero,%lo(.LANCHOR0)(a5)
 225 00b8 9DBF     		j	.L26
 226              	.LVL20:
 227              	.L8:
 106:C:/Users/stapi/OneDrive/Desktop/GD32VW553/V1_MQTT_OK/GD32VW55X_Wifi_BLE_SDK/GD32VW55x_RELEASE_V1.0.2/MSDK/cloud/alicloud/src/services/linkkit/dm\dm_fota.c ****         if (res < 0) {
 228              		.loc 1 106 9 is_stmt 1
 106:C:/Users/stapi/OneDrive/Desktop/GD32VW553/V1_MQTT_OK/GD32VW55X_Wifi_BLE_SDK/GD32VW55x_RELEASE_V1.0.2/MSDK/cloud/alicloud/src/services/linkkit/dm\dm_fota.c ****         if (res < 0) {
 229              		.loc 1 106 15 is_stmt 0
 230 00ba 4A85     		mv	a0,s2
 231              	.LVL21:
 232 00bc 97000000 		call	HAL_Firmware_Persistence_Write
 232      E7800000 
 233              	.LVL22:
 234 00c4 AA87     		mv	a5,a0
 235              	.LVL23:
 107:C:/Users/stapi/OneDrive/Desktop/GD32VW553/V1_MQTT_OK/GD32VW55X_Wifi_BLE_SDK/GD32VW55x_RELEASE_V1.0.2/MSDK/cloud/alicloud/src/services/linkkit/dm\dm_fota.c ****             IOT_OTA_ReportProgress(ota_handle, IOT_OTAP_BURN_FAILED, NULL);
 236              		.loc 1 107 9 is_stmt 1
 237 00c6 1255     		lw	a0,36(sp)
 238              	.LVL24:
 107:C:/Users/stapi/OneDrive/Desktop/GD32VW553/V1_MQTT_OK/GD32VW55X_Wifi_BLE_SDK/GD32VW55x_RELEASE_V1.0.2/MSDK/cloud/alicloud/src/services/linkkit/dm\dm_fota.c ****             IOT_OTA_ReportProgress(ota_handle, IOT_OTAP_BURN_FAILED, NULL);
 239              		.loc 1 107 12 is_stmt 0
 240 00c8 63D10704 		bge	a5,zero,.L9
 108:C:/Users/stapi/OneDrive/Desktop/GD32VW553/V1_MQTT_OK/GD32VW55X_Wifi_BLE_SDK/GD32VW55x_RELEASE_V1.0.2/MSDK/cloud/alicloud/src/services/linkkit/dm\dm_fota.c ****             dm_log_err("Fota write firmware failed");
 241              		.loc 1 108 13 is_stmt 1
 242 00cc 0146     		li	a2,0
 243 00ce F155     		li	a1,-4
 244 00d0 97000000 		call	IOT_OTA_ReportProgress
 244      E7800000 
 245              	.LVL25:
 109:C:/Users/stapi/OneDrive/Desktop/GD32VW553/V1_MQTT_OK/GD32VW55X_Wifi_BLE_SDK/GD32VW55x_RELEASE_V1.0.2/MSDK/cloud/alicloud/src/services/linkkit/dm\dm_fota.c ****             HAL_Firmware_Persistence_Stop();
 246              		.loc 1 109 13
 109:C:/Users/stapi/OneDrive/Desktop/GD32VW553/V1_MQTT_OK/GD32VW55X_Wifi_BLE_SDK/GD32VW55x_RELEASE_V1.0.2/MSDK/cloud/alicloud/src/services/linkkit/dm\dm_fota.c ****             HAL_Firmware_Persistence_Stop();
 247              		.loc 1 109 13
 248 00d8 37050000 		lui	a0,%hi(.LC0)
 249 00dc 13050500 		addi	a0,a0,%lo(.LC0)
 250 00e0 97000000 		call	HAL_Printf
 250      E7800000 
 251              	.LVL26:
 109:C:/Users/stapi/OneDrive/Desktop/GD32VW553/V1_MQTT_OK/GD32VW55X_Wifi_BLE_SDK/GD32VW55x_RELEASE_V1.0.2/MSDK/cloud/alicloud/src/services/linkkit/dm\dm_fota.c ****             HAL_Firmware_Persistence_Stop();
 252              		.loc 1 109 13
 253 00e8 37050000 		lui	a0,%hi(.LC1)
 254 00ec 13050500 		addi	a0,a0,%lo(.LC1)
 255 00f0 97000000 		call	HAL_Printf
 255      E7800000 
 256              	.LVL27:
 109:C:/Users/stapi/OneDrive/Desktop/GD32VW553/V1_MQTT_OK/GD32VW55X_Wifi_BLE_SDK/GD32VW55x_RELEASE_V1.0.2/MSDK/cloud/alicloud/src/services/linkkit/dm\dm_fota.c ****             HAL_Firmware_Persistence_Stop();
 257              		.loc 1 109 13
 258 00f8 37050000 		lui	a0,%hi(.LC2)
 259 00fc 13050500 		addi	a0,a0,%lo(.LC2)
 260 0100 97000000 		call	HAL_Printf
 260      E7800000 
 261              	.LVL28:
 109:C:/Users/stapi/OneDrive/Desktop/GD32VW553/V1_MQTT_OK/GD32VW55X_Wifi_BLE_SDK/GD32VW55x_RELEASE_V1.0.2/MSDK/cloud/alicloud/src/services/linkkit/dm\dm_fota.c ****             HAL_Firmware_Persistence_Stop();
 262              		.loc 1 109 13
 110:C:/Users/stapi/OneDrive/Desktop/GD32VW553/V1_MQTT_OK/GD32VW55X_Wifi_BLE_SDK/GD32VW55x_RELEASE_V1.0.2/MSDK/cloud/alicloud/src/services/linkkit/dm\dm_fota.c ****             ctx->is_report_new_config = 0;
 263              		.loc 1 110 13
 264 0108 45B7     		j	.L27
 265              	.LVL29:
 266              	.L9:
 116:C:/Users/stapi/OneDrive/Desktop/GD32VW553/V1_MQTT_OK/GD32VW55X_Wifi_BLE_SDK/GD32VW55x_RELEASE_V1.0.2/MSDK/cloud/alicloud/src/services/linkkit/dm\dm_fota.c ****         IOT_OTA_Ioctl(ota_handle, IOT_OTAG_FILE_SIZE, &file_size, 4);
 267              		.loc 1 116 9
 268 010a 9146     		li	a3,4
 269 010c 1010     		addi	a2,sp,32
 270 010e 9D45     		li	a1,7
 271 0110 97000000 		call	IOT_OTA_Ioctl
 271      E7800000 
 272              	.LVL30:
 117:C:/Users/stapi/OneDrive/Desktop/GD32VW553/V1_MQTT_OK/GD32VW55X_Wifi_BLE_SDK/GD32VW55x_RELEASE_V1.0.2/MSDK/cloud/alicloud/src/services/linkkit/dm\dm_fota.c **** 
 273              		.loc 1 117 9
 274 0118 1255     		lw	a0,36(sp)
 275 011a 9146     		li	a3,4
 276 011c 7008     		addi	a2,sp,28
 277 011e A145     		li	a1,8
 278 0120 97000000 		call	IOT_OTA_Ioctl
 278      E7800000 
 279              	.LVL31:
 120:C:/Users/stapi/OneDrive/Desktop/GD32VW553/V1_MQTT_OK/GD32VW55X_Wifi_BLE_SDK/GD32VW55x_RELEASE_V1.0.2/MSDK/cloud/alicloud/src/services/linkkit/dm\dm_fota.c ****         report_now = HAL_UptimeMs();
 280              		.loc 1 120 9
 120:C:/Users/stapi/OneDrive/Desktop/GD32VW553/V1_MQTT_OK/GD32VW55X_Wifi_BLE_SDK/GD32VW55x_RELEASE_V1.0.2/MSDK/cloud/alicloud/src/services/linkkit/dm\dm_fota.c ****         report_now = HAL_UptimeMs();
 281              		.loc 1 120 40 is_stmt 0
 282 0128 8254     		lw	s1,32(sp)
 120:C:/Users/stapi/OneDrive/Desktop/GD32VW553/V1_MQTT_OK/GD32VW55X_Wifi_BLE_SDK/GD32VW55x_RELEASE_V1.0.2/MSDK/cloud/alicloud/src/services/linkkit/dm\dm_fota.c ****         report_now = HAL_UptimeMs();
 283              		.loc 1 120 21
 284 012a F247     		lw	a5,28(sp)
 120:C:/Users/stapi/OneDrive/Desktop/GD32VW553/V1_MQTT_OK/GD32VW55X_Wifi_BLE_SDK/GD32VW55x_RELEASE_V1.0.2/MSDK/cloud/alicloud/src/services/linkkit/dm\dm_fota.c ****         report_now = HAL_UptimeMs();
 285              		.loc 1 120 40
 286 012c B3849B02 		mul	s1,s7,s1
 120:C:/Users/stapi/OneDrive/Desktop/GD32VW553/V1_MQTT_OK/GD32VW55X_Wifi_BLE_SDK/GD32VW55x_RELEASE_V1.0.2/MSDK/cloud/alicloud/src/services/linkkit/dm\dm_fota.c ****         report_now = HAL_UptimeMs();
 287              		.loc 1 120 21
 288 0130 B3D4F402 		divu	s1,s1,a5
 289              	.LVL32:
 121:C:/Users/stapi/OneDrive/Desktop/GD32VW553/V1_MQTT_OK/GD32VW55X_Wifi_BLE_SDK/GD32VW55x_RELEASE_V1.0.2/MSDK/cloud/alicloud/src/services/linkkit/dm\dm_fota.c **** 
 290              		.loc 1 121 9 is_stmt 1
 121:C:/Users/stapi/OneDrive/Desktop/GD32VW553/V1_MQTT_OK/GD32VW55X_Wifi_BLE_SDK/GD32VW55x_RELEASE_V1.0.2/MSDK/cloud/alicloud/src/services/linkkit/dm\dm_fota.c **** 
 291              		.loc 1 121 22 is_stmt 0
 292 0134 97000000 		call	HAL_UptimeMs
 292      E7800000 
 293              	.LVL33:
 294 013c AA87     		mv	a5,a0
 295 013e AE8D     		mv	s11,a1
 296              	.LVL34:
 124:C:/Users/stapi/OneDrive/Desktop/GD32VW553/V1_MQTT_OK/GD32VW55X_Wifi_BLE_SDK/GD32VW55x_RELEASE_V1.0.2/MSDK/cloud/alicloud/src/services/linkkit/dm\dm_fota.c ****             report_pre = report_now;
 297              		.loc 1 124 9 is_stmt 1
 298 0140 63E63501 		bgtu	s3,a1,.L11
 299 0144 6396B900 		bne	s3,a1,.L10
 300 0148 63745501 		bleu	s5,a0,.L10
 301              	.L11:
 302 014c BE8A     		mv	s5,a5
 303              	.LVL35:
 304 014e EE89     		mv	s3,s11
 305              	.L10:
 306              	.LVL36:
 127:C:/Users/stapi/OneDrive/Desktop/GD32VW553/V1_MQTT_OK/GD32VW55X_Wifi_BLE_SDK/GD32VW55x_RELEASE_V1.0.2/MSDK/cloud/alicloud/src/services/linkkit/dm\dm_fota.c ****              ((report_now - report_pre) > 50)) || (percent_now >= IOT_OTAP_FETCH_PERCENTAGE_MAX)) {
 307              		.loc 1 127 9
 127:C:/Users/stapi/OneDrive/Desktop/GD32VW553/V1_MQTT_OK/GD32VW55X_Wifi_BLE_SDK/GD32VW55x_RELEASE_V1.0.2/MSDK/cloud/alicloud/src/services/linkkit/dm\dm_fota.c ****              ((report_now - report_pre) > 50)) || (percent_now >= IOT_OTAP_FETCH_PERCENTAGE_MAX)) {
 308              		.loc 1 127 28 is_stmt 0
 309 0150 33876441 		sub	a4,s1,s6
 127:C:/Users/stapi/OneDrive/Desktop/GD32VW553/V1_MQTT_OK/GD32VW55X_Wifi_BLE_SDK/GD32VW55x_RELEASE_V1.0.2/MSDK/cloud/alicloud/src/services/linkkit/dm\dm_fota.c ****              ((report_now - report_pre) > 50)) || (percent_now >= IOT_OTAP_FETCH_PERCENTAGE_MAX)) {
 310              		.loc 1 127 12
 311 0154 637CEC00 		bleu	a4,s8,.L12
 128:C:/Users/stapi/OneDrive/Desktop/GD32VW553/V1_MQTT_OK/GD32VW55X_Wifi_BLE_SDK/GD32VW55x_RELEASE_V1.0.2/MSDK/cloud/alicloud/src/services/linkkit/dm\dm_fota.c ****             IOT_OTA_ReportProgress(ota_handle, percent_now, NULL);
 312              		.loc 1 128 27 discriminator 1
 313 0158 33875741 		sub	a4,a5,s5
 314 015c B3B6E700 		sgtu	a3,a4,a5
 315 0160 33863D41 		sub	a2,s11,s3
 127:C:/Users/stapi/OneDrive/Desktop/GD32VW553/V1_MQTT_OK/GD32VW55X_Wifi_BLE_SDK/GD32VW55x_RELEASE_V1.0.2/MSDK/cloud/alicloud/src/services/linkkit/dm\dm_fota.c ****              ((report_now - report_pre) > 50)) || (percent_now >= IOT_OTAP_FETCH_PERCENTAGE_MAX)) {
 316              		.loc 1 127 48 discriminator 1
 317 0164 6316D600 		bne	a2,a3,.L13
 318 0168 6364ED00 		bgtu	a4,s10,.L13
 319              	.L12:
 128:C:/Users/stapi/OneDrive/Desktop/GD32VW553/V1_MQTT_OK/GD32VW55X_Wifi_BLE_SDK/GD32VW55x_RELEASE_V1.0.2/MSDK/cloud/alicloud/src/services/linkkit/dm\dm_fota.c ****             IOT_OTA_ReportProgress(ota_handle, percent_now, NULL);
 320              		.loc 1 128 48
 321 016c 63FE9C00 		bleu	s1,s9,.L15
 322              	.L13:
 129:C:/Users/stapi/OneDrive/Desktop/GD32VW553/V1_MQTT_OK/GD32VW55X_Wifi_BLE_SDK/GD32VW55x_RELEASE_V1.0.2/MSDK/cloud/alicloud/src/services/linkkit/dm\dm_fota.c ****             percent_pre = percent_now;
 323              		.loc 1 129 13
 324 0170 1255     		lw	a0,36(sp)
 325              	.LVL37:
 326 0172 0146     		li	a2,0
 327 0174 A685     		mv	a1,s1
 328              	.LVL38:
 329 0176 3EC6     		sw	a5,12(sp)
 129:C:/Users/stapi/OneDrive/Desktop/GD32VW553/V1_MQTT_OK/GD32VW55X_Wifi_BLE_SDK/GD32VW55x_RELEASE_V1.0.2/MSDK/cloud/alicloud/src/services/linkkit/dm\dm_fota.c ****             percent_pre = percent_now;
 330              		.loc 1 129 13 is_stmt 1
 331 0178 97000000 		call	IOT_OTA_ReportProgress
 331      E7800000 
 332              	.LVL39:
 130:C:/Users/stapi/OneDrive/Desktop/GD32VW553/V1_MQTT_OK/GD32VW55X_Wifi_BLE_SDK/GD32VW55x_RELEASE_V1.0.2/MSDK/cloud/alicloud/src/services/linkkit/dm\dm_fota.c ****             report_pre = report_now;
 333              		.loc 1 130 13
 131:C:/Users/stapi/OneDrive/Desktop/GD32VW553/V1_MQTT_OK/GD32VW55X_Wifi_BLE_SDK/GD32VW55x_RELEASE_V1.0.2/MSDK/cloud/alicloud/src/services/linkkit/dm\dm_fota.c ****         }
 334              		.loc 1 131 13
 131:C:/Users/stapi/OneDrive/Desktop/GD32VW553/V1_MQTT_OK/GD32VW55X_Wifi_BLE_SDK/GD32VW55x_RELEASE_V1.0.2/MSDK/cloud/alicloud/src/services/linkkit/dm\dm_fota.c ****         }
 335              		.loc 1 131 24 is_stmt 0
 336 0180 B247     		lw	a5,12(sp)
 337 0182 EE89     		mv	s3,s11
 120:C:/Users/stapi/OneDrive/Desktop/GD32VW553/V1_MQTT_OK/GD32VW55X_Wifi_BLE_SDK/GD32VW55x_RELEASE_V1.0.2/MSDK/cloud/alicloud/src/services/linkkit/dm\dm_fota.c ****         report_now = HAL_UptimeMs();
 338              		.loc 1 120 21
 339 0184 268B     		mv	s6,s1
 131:C:/Users/stapi/OneDrive/Desktop/GD32VW553/V1_MQTT_OK/GD32VW55X_Wifi_BLE_SDK/GD32VW55x_RELEASE_V1.0.2/MSDK/cloud/alicloud/src/services/linkkit/dm\dm_fota.c ****         }
 340              		.loc 1 131 24
 341 0186 BE8A     		mv	s5,a5
 342              	.LVL40:
 343              	.L15:
 135:C:/Users/stapi/OneDrive/Desktop/GD32VW553/V1_MQTT_OK/GD32VW55X_Wifi_BLE_SDK/GD32VW55x_RELEASE_V1.0.2/MSDK/cloud/alicloud/src/services/linkkit/dm\dm_fota.c ****             uint32_t file_isvalid = 0;
 344              		.loc 1 135 9 is_stmt 1
 135:C:/Users/stapi/OneDrive/Desktop/GD32VW553/V1_MQTT_OK/GD32VW55X_Wifi_BLE_SDK/GD32VW55x_RELEASE_V1.0.2/MSDK/cloud/alicloud/src/services/linkkit/dm\dm_fota.c ****             uint32_t file_isvalid = 0;
 345              		.loc 1 135 13 is_stmt 0
 346 0188 1255     		lw	a0,36(sp)
 347 018a 97000000 		call	IOT_OTA_IsFetchFinish
 347      E7800000 
 348              	.LVL41:
 135:C:/Users/stapi/OneDrive/Desktop/GD32VW553/V1_MQTT_OK/GD32VW55X_Wifi_BLE_SDK/GD32VW55x_RELEASE_V1.0.2/MSDK/cloud/alicloud/src/services/linkkit/dm\dm_fota.c ****             uint32_t file_isvalid = 0;
 349              		.loc 1 135 12
 350 0192 E30905EE 		beq	a0,zero,.L16
 351              	.LBB12:
 136:C:/Users/stapi/OneDrive/Desktop/GD32VW553/V1_MQTT_OK/GD32VW55X_Wifi_BLE_SDK/GD32VW55x_RELEASE_V1.0.2/MSDK/cloud/alicloud/src/services/linkkit/dm\dm_fota.c ****             IOT_OTA_Ioctl(ota_handle, IOT_OTAG_CHECK_FIRMWARE, &file_isvalid, 4);
 352              		.loc 1 136 13 is_stmt 1
 137:C:/Users/stapi/OneDrive/Desktop/GD32VW553/V1_MQTT_OK/GD32VW55X_Wifi_BLE_SDK/GD32VW55x_RELEASE_V1.0.2/MSDK/cloud/alicloud/src/services/linkkit/dm\dm_fota.c ****             if (file_isvalid == 0) {
 353              		.loc 1 137 13 is_stmt 0
 354 0196 1255     		lw	a0,36(sp)
 355 0198 9146     		li	a3,4
 356 019a 7010     		addi	a2,sp,44
 357 019c AD45     		li	a1,11
 136:C:/Users/stapi/OneDrive/Desktop/GD32VW553/V1_MQTT_OK/GD32VW55X_Wifi_BLE_SDK/GD32VW55x_RELEASE_V1.0.2/MSDK/cloud/alicloud/src/services/linkkit/dm\dm_fota.c ****             IOT_OTA_Ioctl(ota_handle, IOT_OTAG_CHECK_FIRMWARE, &file_isvalid, 4);
 358              		.loc 1 136 22
 359 019e 02D6     		sw	zero,44(sp)
 137:C:/Users/stapi/OneDrive/Desktop/GD32VW553/V1_MQTT_OK/GD32VW55X_Wifi_BLE_SDK/GD32VW55x_RELEASE_V1.0.2/MSDK/cloud/alicloud/src/services/linkkit/dm\dm_fota.c ****             if (file_isvalid == 0) {
 360              		.loc 1 137 13 is_stmt 1
 361 01a0 97000000 		call	IOT_OTA_Ioctl
 361      E7800000 
 362              	.LVL42:
 138:C:/Users/stapi/OneDrive/Desktop/GD32VW553/V1_MQTT_OK/GD32VW55X_Wifi_BLE_SDK/GD32VW55x_RELEASE_V1.0.2/MSDK/cloud/alicloud/src/services/linkkit/dm\dm_fota.c ****                 HAL_Firmware_Persistence_Stop();
 363              		.loc 1 138 13
 138:C:/Users/stapi/OneDrive/Desktop/GD32VW553/V1_MQTT_OK/GD32VW55X_Wifi_BLE_SDK/GD32VW55x_RELEASE_V1.0.2/MSDK/cloud/alicloud/src/services/linkkit/dm\dm_fota.c ****                 HAL_Firmware_Persistence_Stop();
 364              		.loc 1 138 16 is_stmt 0
 365 01a8 B257     		lw	a5,44(sp)
 366 01aa B7040000 		lui	s1,%hi(.LANCHOR0)
 367              	.LVL43:
 368 01ae 93840400 		addi	s1,s1,%lo(.LANCHOR0)
 369 01b2 99EF     		bne	a5,zero,.L17
 139:C:/Users/stapi/OneDrive/Desktop/GD32VW553/V1_MQTT_OK/GD32VW55X_Wifi_BLE_SDK/GD32VW55x_RELEASE_V1.0.2/MSDK/cloud/alicloud/src/services/linkkit/dm\dm_fota.c ****                 IOT_OTA_ReportProgress(ota_handle, IOT_OTAP_CHECK_FALIED, NULL);
 370              		.loc 1 139 17 is_stmt 1
 371 01b4 97000000 		call	HAL_Firmware_Persistence_Stop
 371      E7800000 
 372              	.LVL44:
 140:C:/Users/stapi/OneDrive/Desktop/GD32VW553/V1_MQTT_OK/GD32VW55X_Wifi_BLE_SDK/GD32VW55x_RELEASE_V1.0.2/MSDK/cloud/alicloud/src/services/linkkit/dm\dm_fota.c ****                 ctx->is_report_new_config = 0;
 373              		.loc 1 140 17
 374 01bc 1255     		lw	a0,36(sp)
 375 01be 0146     		li	a2,0
 376 01c0 F555     		li	a1,-3
 377 01c2 97000000 		call	IOT_OTA_ReportProgress
 377      E7800000 
 378              	.LVL45:
 141:C:/Users/stapi/OneDrive/Desktop/GD32VW553/V1_MQTT_OK/GD32VW55X_Wifi_BLE_SDK/GD32VW55x_RELEASE_V1.0.2/MSDK/cloud/alicloud/src/services/linkkit/dm\dm_fota.c ****                 return FAIL_RETURN;
 379              		.loc 1 141 17
 141:C:/Users/stapi/OneDrive/Desktop/GD32VW553/V1_MQTT_OK/GD32VW55X_Wifi_BLE_SDK/GD32VW55x_RELEASE_V1.0.2/MSDK/cloud/alicloud/src/services/linkkit/dm\dm_fota.c ****                 return FAIL_RETURN;
 380              		.loc 1 141 43 is_stmt 0
 381 01ca 23A00400 		sw	zero,0(s1)
 142:C:/Users/stapi/OneDrive/Desktop/GD32VW553/V1_MQTT_OK/GD32VW55X_Wifi_BLE_SDK/GD32VW55x_RELEASE_V1.0.2/MSDK/cloud/alicloud/src/services/linkkit/dm\dm_fota.c ****             } else {
 382              		.loc 1 142 17 is_stmt 1
 383 01ce 85B5     		j	.L26
 384              	.L17:
 385              	.LBE12:
 149:C:/Users/stapi/OneDrive/Desktop/GD32VW553/V1_MQTT_OK/GD32VW55X_Wifi_BLE_SDK/GD32VW55x_RELEASE_V1.0.2/MSDK/cloud/alicloud/src/services/linkkit/dm\dm_fota.c ****     ctx->is_report_new_config = 0;
 386              		.loc 1 149 5
 387 01d0 97000000 		call	HAL_Firmware_Persistence_Stop
 387      E7800000 
 388              	.LVL46:
 150:C:/Users/stapi/OneDrive/Desktop/GD32VW553/V1_MQTT_OK/GD32VW55X_Wifi_BLE_SDK/GD32VW55x_RELEASE_V1.0.2/MSDK/cloud/alicloud/src/services/linkkit/dm\dm_fota.c **** 
 389              		.loc 1 150 5
 150:C:/Users/stapi/OneDrive/Desktop/GD32VW553/V1_MQTT_OK/GD32VW55X_Wifi_BLE_SDK/GD32VW55x_RELEASE_V1.0.2/MSDK/cloud/alicloud/src/services/linkkit/dm\dm_fota.c **** 
 390              		.loc 1 150 31 is_stmt 0
 391 01d8 23A00400 		sw	zero,0(s1)
 152:C:/Users/stapi/OneDrive/Desktop/GD32VW553/V1_MQTT_OK/GD32VW55X_Wifi_BLE_SDK/GD32VW55x_RELEASE_V1.0.2/MSDK/cloud/alicloud/src/services/linkkit/dm\dm_fota.c **** }
 392              		.loc 1 152 5 is_stmt 1
 152:C:/Users/stapi/OneDrive/Desktop/GD32VW553/V1_MQTT_OK/GD32VW55X_Wifi_BLE_SDK/GD32VW55x_RELEASE_V1.0.2/MSDK/cloud/alicloud/src/services/linkkit/dm\dm_fota.c **** }
 393              		.loc 1 152 12 is_stmt 0
 394 01dc 91BD     		j	.L4
 395              		.cfi_endproc
 396              	.LFE24:
 398              		.section	.rodata.dm_fota_status_check.str1.4,"aMS",@progbits,1
 399              		.align	2
 400              	.LC3:
 401 0000 466F7461 		.string	"Fota Status Check"
 401      20537461 
 401      74757320 
 401      43686563 
 401      6B00
 402 0012 0000     		.align	2
 403              	.LC4:
 404 0014 444D00   		.string	"DM"
 405 0017 00       		.align	2
 406              	.LC5:
 407 0018 7B227665 		.string	"{\"version\":\"%s\"}"
 407      7273696F 
 407      6E223A22 
 407      2573227D 
 407      00
 408 0029 000000   		.align	2
 409              	.LC6:
 410 002c 5B696E66 		.string	"[inf] "
 410      5D2000
 411 0033 00       		.align	2
 412              	.LC7:
 413 0034 53656E64 		.string	"Send To User: %s"
 413      20546F20 
 413      55736572 
 413      3A202573 
 413      00
 414              		.section	.text.dm_fota_status_check,"ax",@progbits
 415              		.align	1
 416              		.globl	dm_fota_status_check
 418              	dm_fota_status_check:
 419              	.LFB25:
 154:C:/Users/stapi/OneDrive/Desktop/GD32VW553/V1_MQTT_OK/GD32VW55X_Wifi_BLE_SDK/GD32VW55x_RELEASE_V1.0.2/MSDK/cloud/alicloud/src/services/linkkit/dm\dm_fota.c **** 
 155:C:/Users/stapi/OneDrive/Desktop/GD32VW553/V1_MQTT_OK/GD32VW55X_Wifi_BLE_SDK/GD32VW55x_RELEASE_V1.0.2/MSDK/cloud/alicloud/src/services/linkkit/dm\dm_fota.c **** int dm_fota_status_check(void)
 156:C:/Users/stapi/OneDrive/Desktop/GD32VW553/V1_MQTT_OK/GD32VW55X_Wifi_BLE_SDK/GD32VW55x_RELEASE_V1.0.2/MSDK/cloud/alicloud/src/services/linkkit/dm\dm_fota.c **** {
 420              		.loc 1 156 1 is_stmt 1
 421              		.cfi_startproc
 422 0000 17030000 		call	t0,__riscv_save_4
 422      E7020300 
 423              		.cfi_offset 19, -20
 424              		.cfi_offset 18, -16
 425              		.cfi_offset 9, -12
 426              		.cfi_offset 8, -8
 427              		.cfi_offset 1, -4
 428              		.cfi_def_cfa_offset 32
 157:C:/Users/stapi/OneDrive/Desktop/GD32VW553/V1_MQTT_OK/GD32VW55X_Wifi_BLE_SDK/GD32VW55x_RELEASE_V1.0.2/MSDK/cloud/alicloud/src/services/linkkit/dm\dm_fota.c ****     int res = 0;
 429              		.loc 1 157 5
 430              	.LVL47:
 158:C:/Users/stapi/OneDrive/Desktop/GD32VW553/V1_MQTT_OK/GD32VW55X_Wifi_BLE_SDK/GD32VW55x_RELEASE_V1.0.2/MSDK/cloud/alicloud/src/services/linkkit/dm\dm_fota.c ****     dm_fota_ctx_t *ctx = _dm_fota_get_ctx();
 431              		.loc 1 158 5
  11:C:/Users/stapi/OneDrive/Desktop/GD32VW553/V1_MQTT_OK/GD32VW55X_Wifi_BLE_SDK/GD32VW55x_RELEASE_V1.0.2/MSDK/cloud/alicloud/src/services/linkkit/dm\dm_fota.c **** }
 432              		.loc 1 11 5
 159:C:/Users/stapi/OneDrive/Desktop/GD32VW553/V1_MQTT_OK/GD32VW55X_Wifi_BLE_SDK/GD32VW55x_RELEASE_V1.0.2/MSDK/cloud/alicloud/src/services/linkkit/dm\dm_fota.c ****     void *ota_handle = NULL;
 433              		.loc 1 159 5
 156:C:/Users/stapi/OneDrive/Desktop/GD32VW553/V1_MQTT_OK/GD32VW55X_Wifi_BLE_SDK/GD32VW55x_RELEASE_V1.0.2/MSDK/cloud/alicloud/src/services/linkkit/dm\dm_fota.c ****     int res = 0;
 434              		.loc 1 156 1 is_stmt 0
 435 0008 7571     		addi	sp,sp,-144
 436              		.cfi_def_cfa_offset 176
 160:C:/Users/stapi/OneDrive/Desktop/GD32VW553/V1_MQTT_OK/GD32VW55X_Wifi_BLE_SDK/GD32VW55x_RELEASE_V1.0.2/MSDK/cloud/alicloud/src/services/linkkit/dm\dm_fota.c **** 
 161:C:/Users/stapi/OneDrive/Desktop/GD32VW553/V1_MQTT_OK/GD32VW55X_Wifi_BLE_SDK/GD32VW55x_RELEASE_V1.0.2/MSDK/cloud/alicloud/src/services/linkkit/dm\dm_fota.c ****     /* Get Ota Handle */
 162:C:/Users/stapi/OneDrive/Desktop/GD32VW553/V1_MQTT_OK/GD32VW55X_Wifi_BLE_SDK/GD32VW55x_RELEASE_V1.0.2/MSDK/cloud/alicloud/src/services/linkkit/dm\dm_fota.c ****     res = dm_ota_get_ota_handle(&ota_handle);
 437              		.loc 1 162 11
 438 000a 2800     		addi	a0,sp,8
 159:C:/Users/stapi/OneDrive/Desktop/GD32VW553/V1_MQTT_OK/GD32VW55X_Wifi_BLE_SDK/GD32VW55x_RELEASE_V1.0.2/MSDK/cloud/alicloud/src/services/linkkit/dm\dm_fota.c **** 
 439              		.loc 1 159 11
 440 000c 02C4     		sw	zero,8(sp)
 441              		.loc 1 162 5 is_stmt 1
 442              		.loc 1 162 11 is_stmt 0
 443 000e 97000000 		call	dm_ota_get_ota_handle
 443      E7800000 
 444              	.LVL48:
 445 0016 AA87     		mv	a5,a0
 446              	.LVL49:
 163:C:/Users/stapi/OneDrive/Desktop/GD32VW553/V1_MQTT_OK/GD32VW55X_Wifi_BLE_SDK/GD32VW55x_RELEASE_V1.0.2/MSDK/cloud/alicloud/src/services/linkkit/dm\dm_fota.c ****     if (res != SUCCESS_RETURN) {
 447              		.loc 1 163 5 is_stmt 1
 164:C:/Users/stapi/OneDrive/Desktop/GD32VW553/V1_MQTT_OK/GD32VW55X_Wifi_BLE_SDK/GD32VW55x_RELEASE_V1.0.2/MSDK/cloud/alicloud/src/services/linkkit/dm\dm_fota.c ****         return FAIL_RETURN;
 448              		.loc 1 164 16 is_stmt 0
 449 0018 7D55     		li	a0,-1
 450              	.LVL50:
 163:C:/Users/stapi/OneDrive/Desktop/GD32VW553/V1_MQTT_OK/GD32VW55X_Wifi_BLE_SDK/GD32VW55x_RELEASE_V1.0.2/MSDK/cloud/alicloud/src/services/linkkit/dm\dm_fota.c ****     if (res != SUCCESS_RETURN) {
 451              		.loc 1 163 8
 452 001a 639C0710 		bne	a5,zero,.L28
 165:C:/Users/stapi/OneDrive/Desktop/GD32VW553/V1_MQTT_OK/GD32VW55X_Wifi_BLE_SDK/GD32VW55x_RELEASE_V1.0.2/MSDK/cloud/alicloud/src/services/linkkit/dm\dm_fota.c ****     }
 166:C:/Users/stapi/OneDrive/Desktop/GD32VW553/V1_MQTT_OK/GD32VW55X_Wifi_BLE_SDK/GD32VW55x_RELEASE_V1.0.2/MSDK/cloud/alicloud/src/services/linkkit/dm\dm_fota.c **** 
 167:C:/Users/stapi/OneDrive/Desktop/GD32VW553/V1_MQTT_OK/GD32VW55X_Wifi_BLE_SDK/GD32VW55x_RELEASE_V1.0.2/MSDK/cloud/alicloud/src/services/linkkit/dm\dm_fota.c ****     if (IOT_OTA_IsFetching(ota_handle)) {
 453              		.loc 1 167 5 is_stmt 1
 454              		.loc 1 167 9 is_stmt 0
 455 001e 2245     		lw	a0,8(sp)
 456 0020 97000000 		call	IOT_OTA_IsFetching
 456      E7800000 
 457              	.LVL51:
 458              		.loc 1 167 8
 459 0028 63050510 		beq	a0,zero,.L28
 460              	.LBB16:
 168:C:/Users/stapi/OneDrive/Desktop/GD32VW553/V1_MQTT_OK/GD32VW55X_Wifi_BLE_SDK/GD32VW55x_RELEASE_V1.0.2/MSDK/cloud/alicloud/src/services/linkkit/dm\dm_fota.c ****         uint32_t ota_type = IOT_OTAT_NONE;
 461              		.loc 1 168 9 is_stmt 1
 169:C:/Users/stapi/OneDrive/Desktop/GD32VW553/V1_MQTT_OK/GD32VW55X_Wifi_BLE_SDK/GD32VW55x_RELEASE_V1.0.2/MSDK/cloud/alicloud/src/services/linkkit/dm\dm_fota.c **** 
 170:C:/Users/stapi/OneDrive/Desktop/GD32VW553/V1_MQTT_OK/GD32VW55X_Wifi_BLE_SDK/GD32VW55x_RELEASE_V1.0.2/MSDK/cloud/alicloud/src/services/linkkit/dm\dm_fota.c ****         IOT_OTA_Ioctl(ota_handle, IOT_OTAG_OTA_TYPE, &ota_type, 4);
 462              		.loc 1 170 9 is_stmt 0
 463 002c 2245     		lw	a0,8(sp)
 464 002e 9146     		li	a3,4
 465 0030 7000     		addi	a2,sp,12
 466 0032 9945     		li	a1,6
 168:C:/Users/stapi/OneDrive/Desktop/GD32VW553/V1_MQTT_OK/GD32VW55X_Wifi_BLE_SDK/GD32VW55x_RELEASE_V1.0.2/MSDK/cloud/alicloud/src/services/linkkit/dm\dm_fota.c ****         uint32_t ota_type = IOT_OTAT_NONE;
 467              		.loc 1 168 18
 468 0034 02C6     		sw	zero,12(sp)
 469              		.loc 1 170 9 is_stmt 1
 470 0036 97000000 		call	IOT_OTA_Ioctl
 470      E7800000 
 471              	.LVL52:
 171:C:/Users/stapi/OneDrive/Desktop/GD32VW553/V1_MQTT_OK/GD32VW55X_Wifi_BLE_SDK/GD32VW55x_RELEASE_V1.0.2/MSDK/cloud/alicloud/src/services/linkkit/dm\dm_fota.c **** 
 172:C:/Users/stapi/OneDrive/Desktop/GD32VW553/V1_MQTT_OK/GD32VW55X_Wifi_BLE_SDK/GD32VW55x_RELEASE_V1.0.2/MSDK/cloud/alicloud/src/services/linkkit/dm\dm_fota.c ****         if ((ota_type == IOT_OTAT_FOTA) ||(ota_type == IOT_OTAT_FOTA_OFFLINE)){
 472              		.loc 1 172 9
 473              		.loc 1 172 41 is_stmt 0
 474 003e B247     		lw	a5,12(sp)
 475              		.loc 1 172 12
 476 0040 8549     		li	s3,1
 477              		.loc 1 172 41
 478 0042 F917     		addi	a5,a5,-2
 479              		.loc 1 172 12
 480 0044 63E6F90E 		bgtu	a5,s3,.L30
 173:C:/Users/stapi/OneDrive/Desktop/GD32VW553/V1_MQTT_OK/GD32VW55X_Wifi_BLE_SDK/GD32VW55x_RELEASE_V1.0.2/MSDK/cloud/alicloud/src/services/linkkit/dm\dm_fota.c ****             /* Send New Config Information To User */
 174:C:/Users/stapi/OneDrive/Desktop/GD32VW553/V1_MQTT_OK/GD32VW55X_Wifi_BLE_SDK/GD32VW55x_RELEASE_V1.0.2/MSDK/cloud/alicloud/src/services/linkkit/dm\dm_fota.c ****             if (ctx->is_report_new_config == 0) {
 481              		.loc 1 174 13 is_stmt 1
 482              		.loc 1 174 20 is_stmt 0
 483 0048 37090000 		lui	s2,%hi(.LANCHOR0)
 484 004c 13090900 		addi	s2,s2,%lo(.LANCHOR0)
 485              		.loc 1 174 16
 486 0050 83270900 		lw	a5,0(s2)
 487 0054 F1EF     		bne	a5,zero,.L30
 175:C:/Users/stapi/OneDrive/Desktop/GD32VW553/V1_MQTT_OK/GD32VW55X_Wifi_BLE_SDK/GD32VW55x_RELEASE_V1.0.2/MSDK/cloud/alicloud/src/services/linkkit/dm\dm_fota.c ****                 dm_log_debug("Fota Status Check");
 488              		.loc 1 175 17 is_stmt 1
 489 0056 37070000 		lui	a4,%hi(.LC3)
 490 005a B7050000 		lui	a1,%hi(.LANCHOR1)
 491 005e 37050000 		lui	a0,%hi(.LC4)
 492 0062 13070700 		addi	a4,a4,%lo(.LC3)
 493 0066 9546     		li	a3,5
 494 0068 1306F00A 		li	a2,175
 495 006c 93850500 		addi	a1,a1,%lo(.LANCHOR1)
 496 0070 13050500 		addi	a0,a0,%lo(.LC4)
 497 0074 97000000 		call	LITE_syslog
 497      E7800000 
 498              	.LVL53:
 176:C:/Users/stapi/OneDrive/Desktop/GD32VW553/V1_MQTT_OK/GD32VW55X_Wifi_BLE_SDK/GD32VW55x_RELEASE_V1.0.2/MSDK/cloud/alicloud/src/services/linkkit/dm\dm_fota.c ****                 res = _dm_fota_send_new_config_to_user(ota_handle);
 499              		.loc 1 176 17
 500              		.loc 1 176 23 is_stmt 0
 501 007c 2244     		lw	s0,8(sp)
 502              	.LVL54:
 503              	.LBB17:
 504              	.LBB18:
  34:C:/Users/stapi/OneDrive/Desktop/GD32VW553/V1_MQTT_OK/GD32VW55X_Wifi_BLE_SDK/GD32VW55x_RELEASE_V1.0.2/MSDK/cloud/alicloud/src/services/linkkit/dm\dm_fota.c ****     char *message = NULL;
 505              		.loc 1 34 5 is_stmt 1
  35:C:/Users/stapi/OneDrive/Desktop/GD32VW553/V1_MQTT_OK/GD32VW55X_Wifi_BLE_SDK/GD32VW55x_RELEASE_V1.0.2/MSDK/cloud/alicloud/src/services/linkkit/dm\dm_fota.c ****     char version[128] = {0};
 506              		.loc 1 35 5
  36:C:/Users/stapi/OneDrive/Desktop/GD32VW553/V1_MQTT_OK/GD32VW55X_Wifi_BLE_SDK/GD32VW55x_RELEASE_V1.0.2/MSDK/cloud/alicloud/src/services/linkkit/dm\dm_fota.c ****     const char *fota_new_config_fmt = "{\"version\":\"%s\"}";
 507              		.loc 1 36 5
  36:C:/Users/stapi/OneDrive/Desktop/GD32VW553/V1_MQTT_OK/GD32VW55X_Wifi_BLE_SDK/GD32VW55x_RELEASE_V1.0.2/MSDK/cloud/alicloud/src/services/linkkit/dm\dm_fota.c ****     const char *fota_new_config_fmt = "{\"version\":\"%s\"}";
 508              		.loc 1 36 10 is_stmt 0
 509 007e 1306C007 		li	a2,124
 510 0082 8145     		li	a1,0
 511 0084 4808     		addi	a0,sp,20
 512 0086 02C8     		sw	zero,16(sp)
 513 0088 97000000 		call	memset
 513      E7800000 
 514              	.LVL55:
  37:C:/Users/stapi/OneDrive/Desktop/GD32VW553/V1_MQTT_OK/GD32VW55X_Wifi_BLE_SDK/GD32VW55x_RELEASE_V1.0.2/MSDK/cloud/alicloud/src/services/linkkit/dm\dm_fota.c **** 
 515              		.loc 1 37 5 is_stmt 1
  39:C:/Users/stapi/OneDrive/Desktop/GD32VW553/V1_MQTT_OK/GD32VW55X_Wifi_BLE_SDK/GD32VW55x_RELEASE_V1.0.2/MSDK/cloud/alicloud/src/services/linkkit/dm\dm_fota.c **** 
 516              		.loc 1 39 5
 517 0090 93060008 		li	a3,128
 518 0094 1008     		addi	a2,sp,16
 519 0096 A945     		li	a1,10
 520 0098 2285     		mv	a0,s0
 521 009a 97000000 		call	IOT_OTA_Ioctl
 521      E7800000 
 522              	.LVL56:
  41:C:/Users/stapi/OneDrive/Desktop/GD32VW553/V1_MQTT_OK/GD32VW55X_Wifi_BLE_SDK/GD32VW55x_RELEASE_V1.0.2/MSDK/cloud/alicloud/src/services/linkkit/dm\dm_fota.c **** 
 523              		.loc 1 41 5
  41:C:/Users/stapi/OneDrive/Desktop/GD32VW553/V1_MQTT_OK/GD32VW55X_Wifi_BLE_SDK/GD32VW55x_RELEASE_V1.0.2/MSDK/cloud/alicloud/src/services/linkkit/dm\dm_fota.c **** 
 524              		.loc 1 41 49 is_stmt 0
 525 00a2 0808     		addi	a0,sp,16
 526 00a4 97000000 		call	strlen
 526      E7800000 
 527              	.LVL57:
  41:C:/Users/stapi/OneDrive/Desktop/GD32VW553/V1_MQTT_OK/GD32VW55X_Wifi_BLE_SDK/GD32VW55x_RELEASE_V1.0.2/MSDK/cloud/alicloud/src/services/linkkit/dm\dm_fota.c **** 
 528              		.loc 1 41 65
 529 00ac 93041501 		addi	s1,a0,17
 530              	.LVL58:
  43:C:/Users/stapi/OneDrive/Desktop/GD32VW553/V1_MQTT_OK/GD32VW55X_Wifi_BLE_SDK/GD32VW55x_RELEASE_V1.0.2/MSDK/cloud/alicloud/src/services/linkkit/dm\dm_fota.c ****     if (message == NULL) {
 531              		.loc 1 43 5 is_stmt 1
  43:C:/Users/stapi/OneDrive/Desktop/GD32VW553/V1_MQTT_OK/GD32VW55X_Wifi_BLE_SDK/GD32VW55x_RELEASE_V1.0.2/MSDK/cloud/alicloud/src/services/linkkit/dm\dm_fota.c ****     if (message == NULL) {
 532              		.loc 1 43 15 is_stmt 0
 533 00b0 2686     		mv	a2,s1
 534 00b2 8145     		li	a1,0
 535 00b4 0145     		li	a0,0
 536 00b6 97000000 		call	LITE_malloc_internal
 536      E7800000 
 537              	.LVL59:
 538 00be 2A84     		mv	s0,a0
 539              	.LVL60:
  44:C:/Users/stapi/OneDrive/Desktop/GD32VW553/V1_MQTT_OK/GD32VW55X_Wifi_BLE_SDK/GD32VW55x_RELEASE_V1.0.2/MSDK/cloud/alicloud/src/services/linkkit/dm\dm_fota.c ****         return DM_MEMORY_NOT_ENOUGH;
 540              		.loc 1 44 5 is_stmt 1
  44:C:/Users/stapi/OneDrive/Desktop/GD32VW553/V1_MQTT_OK/GD32VW55X_Wifi_BLE_SDK/GD32VW55x_RELEASE_V1.0.2/MSDK/cloud/alicloud/src/services/linkkit/dm\dm_fota.c ****         return DM_MEMORY_NOT_ENOUGH;
 541              		.loc 1 44 8 is_stmt 0
 542 00c0 25C9     		beq	a0,zero,.L30
  47:C:/Users/stapi/OneDrive/Desktop/GD32VW553/V1_MQTT_OK/GD32VW55X_Wifi_BLE_SDK/GD32VW55x_RELEASE_V1.0.2/MSDK/cloud/alicloud/src/services/linkkit/dm\dm_fota.c ****     HAL_Snprintf(message, message_len, fota_new_config_fmt, version);
 543              		.loc 1 47 5 is_stmt 1
 544 00c2 2686     		mv	a2,s1
 545 00c4 8145     		li	a1,0
 546 00c6 97000000 		call	memset
 546      E7800000 
 547              	.LVL61:
  48:C:/Users/stapi/OneDrive/Desktop/GD32VW553/V1_MQTT_OK/GD32VW55X_Wifi_BLE_SDK/GD32VW55x_RELEASE_V1.0.2/MSDK/cloud/alicloud/src/services/linkkit/dm\dm_fota.c **** 
 548              		.loc 1 48 5
 549 00ce 37060000 		lui	a2,%hi(.LC5)
 550 00d2 1408     		addi	a3,sp,16
 551 00d4 13060600 		addi	a2,a2,%lo(.LC5)
 552 00d8 A685     		mv	a1,s1
 553 00da 2285     		mv	a0,s0
 554 00dc 97000000 		call	HAL_Snprintf
 554      E7800000 
 555              	.LVL62:
  50:C:/Users/stapi/OneDrive/Desktop/GD32VW553/V1_MQTT_OK/GD32VW55X_Wifi_BLE_SDK/GD32VW55x_RELEASE_V1.0.2/MSDK/cloud/alicloud/src/services/linkkit/dm\dm_fota.c **** 
 556              		.loc 1 50 5
  50:C:/Users/stapi/OneDrive/Desktop/GD32VW553/V1_MQTT_OK/GD32VW55X_Wifi_BLE_SDK/GD32VW55x_RELEASE_V1.0.2/MSDK/cloud/alicloud/src/services/linkkit/dm\dm_fota.c **** 
 557              		.loc 1 50 5
 558 00e4 37050000 		lui	a0,%hi(.LC6)
 559 00e8 13050500 		addi	a0,a0,%lo(.LC6)
 560 00ec 97000000 		call	HAL_Printf
 560      E7800000 
 561              	.LVL63:
  50:C:/Users/stapi/OneDrive/Desktop/GD32VW553/V1_MQTT_OK/GD32VW55X_Wifi_BLE_SDK/GD32VW55x_RELEASE_V1.0.2/MSDK/cloud/alicloud/src/services/linkkit/dm\dm_fota.c **** 
 562              		.loc 1 50 5
 563 00f4 37050000 		lui	a0,%hi(.LC7)
 564 00f8 A285     		mv	a1,s0
 565 00fa 13050500 		addi	a0,a0,%lo(.LC7)
 566 00fe 97000000 		call	HAL_Printf
 566      E7800000 
 567              	.LVL64:
  50:C:/Users/stapi/OneDrive/Desktop/GD32VW553/V1_MQTT_OK/GD32VW55X_Wifi_BLE_SDK/GD32VW55x_RELEASE_V1.0.2/MSDK/cloud/alicloud/src/services/linkkit/dm\dm_fota.c **** 
 568              		.loc 1 50 5
 569 0106 37050000 		lui	a0,%hi(.LC2)
 570 010a 13050500 		addi	a0,a0,%lo(.LC2)
 571 010e 97000000 		call	HAL_Printf
 571      E7800000 
 572              	.LVL65:
  50:C:/Users/stapi/OneDrive/Desktop/GD32VW553/V1_MQTT_OK/GD32VW55X_Wifi_BLE_SDK/GD32VW55x_RELEASE_V1.0.2/MSDK/cloud/alicloud/src/services/linkkit/dm\dm_fota.c **** 
 573              		.loc 1 50 5
  52:C:/Users/stapi/OneDrive/Desktop/GD32VW553/V1_MQTT_OK/GD32VW55X_Wifi_BLE_SDK/GD32VW55x_RELEASE_V1.0.2/MSDK/cloud/alicloud/src/services/linkkit/dm\dm_fota.c ****     if (res != SUCCESS_RETURN) {
 574              		.loc 1 52 5
  52:C:/Users/stapi/OneDrive/Desktop/GD32VW553/V1_MQTT_OK/GD32VW55X_Wifi_BLE_SDK/GD32VW55x_RELEASE_V1.0.2/MSDK/cloud/alicloud/src/services/linkkit/dm\dm_fota.c ****     if (res != SUCCESS_RETURN) {
 575              		.loc 1 52 11 is_stmt 0
 576 0116 A285     		mv	a1,s0
 577 0118 1305C002 		li	a0,44
 578 011c 97000000 		call	_dm_msg_send_to_user
 578      E7800000 
 579              	.LVL66:
  53:C:/Users/stapi/OneDrive/Desktop/GD32VW553/V1_MQTT_OK/GD32VW55X_Wifi_BLE_SDK/GD32VW55x_RELEASE_V1.0.2/MSDK/cloud/alicloud/src/services/linkkit/dm\dm_fota.c ****         if (message) {
 580              		.loc 1 53 5 is_stmt 1
  53:C:/Users/stapi/OneDrive/Desktop/GD32VW553/V1_MQTT_OK/GD32VW55X_Wifi_BLE_SDK/GD32VW55x_RELEASE_V1.0.2/MSDK/cloud/alicloud/src/services/linkkit/dm\dm_fota.c ****         if (message) {
 581              		.loc 1 53 8 is_stmt 0
 582 0124 01CD     		beq	a0,zero,.L32
  54:C:/Users/stapi/OneDrive/Desktop/GD32VW553/V1_MQTT_OK/GD32VW55X_Wifi_BLE_SDK/GD32VW55x_RELEASE_V1.0.2/MSDK/cloud/alicloud/src/services/linkkit/dm\dm_fota.c ****             DM_free(message);
 583              		.loc 1 54 9 is_stmt 1
  55:C:/Users/stapi/OneDrive/Desktop/GD32VW553/V1_MQTT_OK/GD32VW55X_Wifi_BLE_SDK/GD32VW55x_RELEASE_V1.0.2/MSDK/cloud/alicloud/src/services/linkkit/dm\dm_fota.c ****         }
 584              		.loc 1 55 13
 585 0126 2285     		mv	a0,s0
 586              	.LVL67:
 587 0128 97000000 		call	LITE_free_internal
 587      E7800000 
 588              	.LVL68:
  55:C:/Users/stapi/OneDrive/Desktop/GD32VW553/V1_MQTT_OK/GD32VW55X_Wifi_BLE_SDK/GD32VW55x_RELEASE_V1.0.2/MSDK/cloud/alicloud/src/services/linkkit/dm\dm_fota.c ****         }
 589              		.loc 1 55 13
  55:C:/Users/stapi/OneDrive/Desktop/GD32VW553/V1_MQTT_OK/GD32VW55X_Wifi_BLE_SDK/GD32VW55x_RELEASE_V1.0.2/MSDK/cloud/alicloud/src/services/linkkit/dm\dm_fota.c ****         }
 590              		.loc 1 55 29
  57:C:/Users/stapi/OneDrive/Desktop/GD32VW553/V1_MQTT_OK/GD32VW55X_Wifi_BLE_SDK/GD32VW55x_RELEASE_V1.0.2/MSDK/cloud/alicloud/src/services/linkkit/dm\dm_fota.c ****     }
 591              		.loc 1 57 9
 592              	.LBE18:
 593              	.LBE17:
 177:C:/Users/stapi/OneDrive/Desktop/GD32VW553/V1_MQTT_OK/GD32VW55X_Wifi_BLE_SDK/GD32VW55x_RELEASE_V1.0.2/MSDK/cloud/alicloud/src/services/linkkit/dm\dm_fota.c ****                 if (res == SUCCESS_RETURN) {
 594              		.loc 1 177 17
 595              	.L30:
 596              	.LBE16:
 178:C:/Users/stapi/OneDrive/Desktop/GD32VW553/V1_MQTT_OK/GD32VW55X_Wifi_BLE_SDK/GD32VW55x_RELEASE_V1.0.2/MSDK/cloud/alicloud/src/services/linkkit/dm\dm_fota.c ****                     ctx->is_report_new_config = 1;
 179:C:/Users/stapi/OneDrive/Desktop/GD32VW553/V1_MQTT_OK/GD32VW55X_Wifi_BLE_SDK/GD32VW55x_RELEASE_V1.0.2/MSDK/cloud/alicloud/src/services/linkkit/dm\dm_fota.c ****                 }
 180:C:/Users/stapi/OneDrive/Desktop/GD32VW553/V1_MQTT_OK/GD32VW55X_Wifi_BLE_SDK/GD32VW55x_RELEASE_V1.0.2/MSDK/cloud/alicloud/src/services/linkkit/dm\dm_fota.c ****             }
 181:C:/Users/stapi/OneDrive/Desktop/GD32VW553/V1_MQTT_OK/GD32VW55X_Wifi_BLE_SDK/GD32VW55x_RELEASE_V1.0.2/MSDK/cloud/alicloud/src/services/linkkit/dm\dm_fota.c ****         }
 182:C:/Users/stapi/OneDrive/Desktop/GD32VW553/V1_MQTT_OK/GD32VW55X_Wifi_BLE_SDK/GD32VW55x_RELEASE_V1.0.2/MSDK/cloud/alicloud/src/services/linkkit/dm\dm_fota.c ****     }
 183:C:/Users/stapi/OneDrive/Desktop/GD32VW553/V1_MQTT_OK/GD32VW55X_Wifi_BLE_SDK/GD32VW55x_RELEASE_V1.0.2/MSDK/cloud/alicloud/src/services/linkkit/dm\dm_fota.c **** 
 184:C:/Users/stapi/OneDrive/Desktop/GD32VW553/V1_MQTT_OK/GD32VW55X_Wifi_BLE_SDK/GD32VW55x_RELEASE_V1.0.2/MSDK/cloud/alicloud/src/services/linkkit/dm\dm_fota.c ****     return SUCCESS_RETURN;
 597              		.loc 1 184 12 is_stmt 0
 598 0130 0145     		li	a0,0
 599              	.L28:
 185:C:/Users/stapi/OneDrive/Desktop/GD32VW553/V1_MQTT_OK/GD32VW55X_Wifi_BLE_SDK/GD32VW55x_RELEASE_V1.0.2/MSDK/cloud/alicloud/src/services/linkkit/dm\dm_fota.c **** }
 600              		.loc 1 185 1
 601 0132 4961     		addi	sp,sp,144
 602              		.cfi_remember_state
 603              		.cfi_def_cfa_offset 0
 604 0134 17030000 		tail	__riscv_restore_4
 604      67000300 
 605              		.cfi_restore 19
 606              		.cfi_restore 18
 607              		.cfi_restore 9
 608              		.cfi_restore 8
 609              		.cfi_restore 1
 610              		.cfi_def_cfa_offset -32
 611              	.LVL69:
 612              	.L32:
 613              		.cfi_restore_state
 614              	.LBB19:
 177:C:/Users/stapi/OneDrive/Desktop/GD32VW553/V1_MQTT_OK/GD32VW55X_Wifi_BLE_SDK/GD32VW55x_RELEASE_V1.0.2/MSDK/cloud/alicloud/src/services/linkkit/dm\dm_fota.c ****                 if (res == SUCCESS_RETURN) {
 615              		.loc 1 177 17 is_stmt 1
 178:C:/Users/stapi/OneDrive/Desktop/GD32VW553/V1_MQTT_OK/GD32VW55X_Wifi_BLE_SDK/GD32VW55x_RELEASE_V1.0.2/MSDK/cloud/alicloud/src/services/linkkit/dm\dm_fota.c ****                     ctx->is_report_new_config = 1;
 616              		.loc 1 178 21
 178:C:/Users/stapi/OneDrive/Desktop/GD32VW553/V1_MQTT_OK/GD32VW55X_Wifi_BLE_SDK/GD32VW55x_RELEASE_V1.0.2/MSDK/cloud/alicloud/src/services/linkkit/dm\dm_fota.c ****                     ctx->is_report_new_config = 1;
 617              		.loc 1 178 47 is_stmt 0
 618 013c 23203901 		sw	s3,0(s2)
 619 0140 C5BF     		j	.L30
 620              	.LBE19:
 621              		.cfi_endproc
 622              	.LFE25:
 624              		.section	.rodata.dm_fota_request_image.str1.4,"aMS",@progbits,1
 625              		.align	2
 626              	.LC8:
 627 0000 696E7661 		.string	"invalid input"
 627      6C696420 
 627      696E7075 
 627      7400
 628 000e 0000     		.align	2
 629              	.LC9:
 630 0010 6661696C 		.string	"failed to malloc"
 630      65642074 
 630      6F206D61 
 630      6C6C6F63 
 630      00
 631              		.section	.text.dm_fota_request_image,"ax",@progbits
 632              		.align	1
 633              		.globl	dm_fota_request_image
 635              	dm_fota_request_image:
 636              	.LFB26:
 186:C:/Users/stapi/OneDrive/Desktop/GD32VW553/V1_MQTT_OK/GD32VW55X_Wifi_BLE_SDK/GD32VW55x_RELEASE_V1.0.2/MSDK/cloud/alicloud/src/services/linkkit/dm\dm_fota.c **** 
 187:C:/Users/stapi/OneDrive/Desktop/GD32VW553/V1_MQTT_OK/GD32VW55X_Wifi_BLE_SDK/GD32VW55x_RELEASE_V1.0.2/MSDK/cloud/alicloud/src/services/linkkit/dm\dm_fota.c **** int dm_fota_request_image(const char *version, int buffer_len)
 188:C:/Users/stapi/OneDrive/Desktop/GD32VW553/V1_MQTT_OK/GD32VW55X_Wifi_BLE_SDK/GD32VW55x_RELEASE_V1.0.2/MSDK/cloud/alicloud/src/services/linkkit/dm\dm_fota.c **** {
 637              		.loc 1 188 1 is_stmt 1
 638              		.cfi_startproc
 639              	.LVL70:
 640 0000 17030000 		call	t0,__riscv_save_4
 640      E7020300 
 641              		.cfi_offset 19, -20
 642              		.cfi_offset 18, -16
 643              		.cfi_offset 9, -12
 644              		.cfi_offset 8, -8
 645              		.cfi_offset 1, -4
 646              		.cfi_def_cfa_offset 32
 189:C:/Users/stapi/OneDrive/Desktop/GD32VW553/V1_MQTT_OK/GD32VW55X_Wifi_BLE_SDK/GD32VW55x_RELEASE_V1.0.2/MSDK/cloud/alicloud/src/services/linkkit/dm\dm_fota.c ****     int res = 0;
 647              		.loc 1 189 5
 648              	.LVL71:
 190:C:/Users/stapi/OneDrive/Desktop/GD32VW553/V1_MQTT_OK/GD32VW55X_Wifi_BLE_SDK/GD32VW55x_RELEASE_V1.0.2/MSDK/cloud/alicloud/src/services/linkkit/dm\dm_fota.c ****     void *ota_handle = NULL;
 649              		.loc 1 190 5
 188:C:/Users/stapi/OneDrive/Desktop/GD32VW553/V1_MQTT_OK/GD32VW55X_Wifi_BLE_SDK/GD32VW55x_RELEASE_V1.0.2/MSDK/cloud/alicloud/src/services/linkkit/dm\dm_fota.c ****     int res = 0;
 650              		.loc 1 188 1 is_stmt 0
 651 0008 0111     		addi	sp,sp,-32
 652              		.cfi_def_cfa_offset 64
 653              		.loc 1 190 11
 654 000a 02CE     		sw	zero,28(sp)
 191:C:/Users/stapi/OneDrive/Desktop/GD32VW553/V1_MQTT_OK/GD32VW55X_Wifi_BLE_SDK/GD32VW55x_RELEASE_V1.0.2/MSDK/cloud/alicloud/src/services/linkkit/dm\dm_fota.c **** 
 192:C:/Users/stapi/OneDrive/Desktop/GD32VW553/V1_MQTT_OK/GD32VW55X_Wifi_BLE_SDK/GD32VW55x_RELEASE_V1.0.2/MSDK/cloud/alicloud/src/services/linkkit/dm\dm_fota.c ****     if (NULL == version || buffer_len <= 0) {
 655              		.loc 1 192 5 is_stmt 1
 656              		.loc 1 192 8 is_stmt 0
 657 000c 01C5     		beq	a0,zero,.L39
 658 000e 2E89     		mv	s2,a1
 659              		.loc 1 192 25 discriminator 1
 660 0010 6341B004 		bgt	a1,zero,.L40
 661              	.L39:
 193:C:/Users/stapi/OneDrive/Desktop/GD32VW553/V1_MQTT_OK/GD32VW55X_Wifi_BLE_SDK/GD32VW55x_RELEASE_V1.0.2/MSDK/cloud/alicloud/src/services/linkkit/dm\dm_fota.c ****         dm_log_info("invalid input");
 662              		.loc 1 193 9 is_stmt 1
 663              		.loc 1 193 9
 664 0014 37050000 		lui	a0,%hi(.LC6)
 665              	.LVL72:
 666 0018 13050500 		addi	a0,a0,%lo(.LC6)
 667 001c 97000000 		call	HAL_Printf
 667      E7800000 
 668              	.LVL73:
 669              		.loc 1 193 9
 670 0024 37050000 		lui	a0,%hi(.LC8)
 671 0028 13050500 		addi	a0,a0,%lo(.LC8)
 672 002c 97000000 		call	HAL_Printf
 672      E7800000 
 673              	.LVL74:
 674              		.loc 1 193 9
 675 0034 37050000 		lui	a0,%hi(.LC2)
 676 0038 13050500 		addi	a0,a0,%lo(.LC2)
 677 003c 97000000 		call	HAL_Printf
 677      E7800000 
 678              	.LVL75:
 679              		.loc 1 193 9
 194:C:/Users/stapi/OneDrive/Desktop/GD32VW553/V1_MQTT_OK/GD32VW55X_Wifi_BLE_SDK/GD32VW55x_RELEASE_V1.0.2/MSDK/cloud/alicloud/src/services/linkkit/dm\dm_fota.c ****         return FAIL_RETURN;
 680              		.loc 1 194 9
 681              		.loc 1 194 16 is_stmt 0
 682 0044 7D54     		li	s0,-1
 683              	.LVL76:
 684              	.L38:
 195:C:/Users/stapi/OneDrive/Desktop/GD32VW553/V1_MQTT_OK/GD32VW55X_Wifi_BLE_SDK/GD32VW55x_RELEASE_V1.0.2/MSDK/cloud/alicloud/src/services/linkkit/dm\dm_fota.c ****     }
 196:C:/Users/stapi/OneDrive/Desktop/GD32VW553/V1_MQTT_OK/GD32VW55X_Wifi_BLE_SDK/GD32VW55x_RELEASE_V1.0.2/MSDK/cloud/alicloud/src/services/linkkit/dm\dm_fota.c **** 
 197:C:/Users/stapi/OneDrive/Desktop/GD32VW553/V1_MQTT_OK/GD32VW55X_Wifi_BLE_SDK/GD32VW55x_RELEASE_V1.0.2/MSDK/cloud/alicloud/src/services/linkkit/dm\dm_fota.c ****     /* Get Ota Handle */
 198:C:/Users/stapi/OneDrive/Desktop/GD32VW553/V1_MQTT_OK/GD32VW55X_Wifi_BLE_SDK/GD32VW55x_RELEASE_V1.0.2/MSDK/cloud/alicloud/src/services/linkkit/dm\dm_fota.c ****     res = dm_ota_get_ota_handle(&ota_handle);
 199:C:/Users/stapi/OneDrive/Desktop/GD32VW553/V1_MQTT_OK/GD32VW55X_Wifi_BLE_SDK/GD32VW55x_RELEASE_V1.0.2/MSDK/cloud/alicloud/src/services/linkkit/dm\dm_fota.c ****     if (res != SUCCESS_RETURN) {
 200:C:/Users/stapi/OneDrive/Desktop/GD32VW553/V1_MQTT_OK/GD32VW55X_Wifi_BLE_SDK/GD32VW55x_RELEASE_V1.0.2/MSDK/cloud/alicloud/src/services/linkkit/dm\dm_fota.c ****         return FAIL_RETURN;
 201:C:/Users/stapi/OneDrive/Desktop/GD32VW553/V1_MQTT_OK/GD32VW55X_Wifi_BLE_SDK/GD32VW55x_RELEASE_V1.0.2/MSDK/cloud/alicloud/src/services/linkkit/dm\dm_fota.c ****     }
 202:C:/Users/stapi/OneDrive/Desktop/GD32VW553/V1_MQTT_OK/GD32VW55X_Wifi_BLE_SDK/GD32VW55x_RELEASE_V1.0.2/MSDK/cloud/alicloud/src/services/linkkit/dm\dm_fota.c **** 
 203:C:/Users/stapi/OneDrive/Desktop/GD32VW553/V1_MQTT_OK/GD32VW55X_Wifi_BLE_SDK/GD32VW55x_RELEASE_V1.0.2/MSDK/cloud/alicloud/src/services/linkkit/dm\dm_fota.c ****     char *version_str = DM_malloc(buffer_len + 1);
 204:C:/Users/stapi/OneDrive/Desktop/GD32VW553/V1_MQTT_OK/GD32VW55X_Wifi_BLE_SDK/GD32VW55x_RELEASE_V1.0.2/MSDK/cloud/alicloud/src/services/linkkit/dm\dm_fota.c ****     if (NULL == version_str) {
 205:C:/Users/stapi/OneDrive/Desktop/GD32VW553/V1_MQTT_OK/GD32VW55X_Wifi_BLE_SDK/GD32VW55x_RELEASE_V1.0.2/MSDK/cloud/alicloud/src/services/linkkit/dm\dm_fota.c ****         dm_log_info("failed to malloc");
 206:C:/Users/stapi/OneDrive/Desktop/GD32VW553/V1_MQTT_OK/GD32VW55X_Wifi_BLE_SDK/GD32VW55x_RELEASE_V1.0.2/MSDK/cloud/alicloud/src/services/linkkit/dm\dm_fota.c ****         return FAIL_RETURN;
 207:C:/Users/stapi/OneDrive/Desktop/GD32VW553/V1_MQTT_OK/GD32VW55X_Wifi_BLE_SDK/GD32VW55x_RELEASE_V1.0.2/MSDK/cloud/alicloud/src/services/linkkit/dm\dm_fota.c ****     }
 208:C:/Users/stapi/OneDrive/Desktop/GD32VW553/V1_MQTT_OK/GD32VW55X_Wifi_BLE_SDK/GD32VW55x_RELEASE_V1.0.2/MSDK/cloud/alicloud/src/services/linkkit/dm\dm_fota.c ****     memset(version_str, 0, buffer_len + 1);
 209:C:/Users/stapi/OneDrive/Desktop/GD32VW553/V1_MQTT_OK/GD32VW55X_Wifi_BLE_SDK/GD32VW55x_RELEASE_V1.0.2/MSDK/cloud/alicloud/src/services/linkkit/dm\dm_fota.c ****     memcpy(version_str, version, buffer_len);
 210:C:/Users/stapi/OneDrive/Desktop/GD32VW553/V1_MQTT_OK/GD32VW55X_Wifi_BLE_SDK/GD32VW55x_RELEASE_V1.0.2/MSDK/cloud/alicloud/src/services/linkkit/dm\dm_fota.c **** 
 211:C:/Users/stapi/OneDrive/Desktop/GD32VW553/V1_MQTT_OK/GD32VW55X_Wifi_BLE_SDK/GD32VW55x_RELEASE_V1.0.2/MSDK/cloud/alicloud/src/services/linkkit/dm\dm_fota.c ****     int ret = iotx_req_image(ota_handle, version_str);
 212:C:/Users/stapi/OneDrive/Desktop/GD32VW553/V1_MQTT_OK/GD32VW55X_Wifi_BLE_SDK/GD32VW55x_RELEASE_V1.0.2/MSDK/cloud/alicloud/src/services/linkkit/dm\dm_fota.c ****     DM_free(version_str);
 213:C:/Users/stapi/OneDrive/Desktop/GD32VW553/V1_MQTT_OK/GD32VW55X_Wifi_BLE_SDK/GD32VW55x_RELEASE_V1.0.2/MSDK/cloud/alicloud/src/services/linkkit/dm\dm_fota.c ****     return ret;
 214:C:/Users/stapi/OneDrive/Desktop/GD32VW553/V1_MQTT_OK/GD32VW55X_Wifi_BLE_SDK/GD32VW55x_RELEASE_V1.0.2/MSDK/cloud/alicloud/src/services/linkkit/dm\dm_fota.c **** }
 685              		.loc 1 214 1
 686 0046 2285     		mv	a0,s0
 687 0048 0561     		addi	sp,sp,32
 688              		.cfi_remember_state
 689              		.cfi_def_cfa_offset 0
 690 004a 17030000 		tail	__riscv_restore_4
 690      67000300 
 691              		.cfi_restore 19
 692              		.cfi_restore 18
 693              		.cfi_restore 9
 694              		.cfi_restore 8
 695              		.cfi_restore 1
 696              		.cfi_def_cfa_offset -32
 697              	.LVL77:
 698              	.L40:
 699              		.cfi_restore_state
 700 0052 AA89     		mv	s3,a0
 198:C:/Users/stapi/OneDrive/Desktop/GD32VW553/V1_MQTT_OK/GD32VW55X_Wifi_BLE_SDK/GD32VW55x_RELEASE_V1.0.2/MSDK/cloud/alicloud/src/services/linkkit/dm\dm_fota.c ****     if (res != SUCCESS_RETURN) {
 701              		.loc 1 198 5 is_stmt 1
 198:C:/Users/stapi/OneDrive/Desktop/GD32VW553/V1_MQTT_OK/GD32VW55X_Wifi_BLE_SDK/GD32VW55x_RELEASE_V1.0.2/MSDK/cloud/alicloud/src/services/linkkit/dm\dm_fota.c ****     if (res != SUCCESS_RETURN) {
 702              		.loc 1 198 11 is_stmt 0
 703 0054 6808     		addi	a0,sp,28
 704              	.LVL78:
 705 0056 97000000 		call	dm_ota_get_ota_handle
 705      E7800000 
 706              	.LVL79:
 199:C:/Users/stapi/OneDrive/Desktop/GD32VW553/V1_MQTT_OK/GD32VW55X_Wifi_BLE_SDK/GD32VW55x_RELEASE_V1.0.2/MSDK/cloud/alicloud/src/services/linkkit/dm\dm_fota.c ****         return FAIL_RETURN;
 707              		.loc 1 199 5 is_stmt 1
 200:C:/Users/stapi/OneDrive/Desktop/GD32VW553/V1_MQTT_OK/GD32VW55X_Wifi_BLE_SDK/GD32VW55x_RELEASE_V1.0.2/MSDK/cloud/alicloud/src/services/linkkit/dm\dm_fota.c ****     }
 708              		.loc 1 200 16 is_stmt 0
 709 005e 7D54     		li	s0,-1
 199:C:/Users/stapi/OneDrive/Desktop/GD32VW553/V1_MQTT_OK/GD32VW55X_Wifi_BLE_SDK/GD32VW55x_RELEASE_V1.0.2/MSDK/cloud/alicloud/src/services/linkkit/dm\dm_fota.c ****         return FAIL_RETURN;
 710              		.loc 1 199 8
 711 0060 7DF1     		bne	a0,zero,.L38
 203:C:/Users/stapi/OneDrive/Desktop/GD32VW553/V1_MQTT_OK/GD32VW55X_Wifi_BLE_SDK/GD32VW55x_RELEASE_V1.0.2/MSDK/cloud/alicloud/src/services/linkkit/dm\dm_fota.c ****     if (NULL == version_str) {
 712              		.loc 1 203 5 is_stmt 1
 203:C:/Users/stapi/OneDrive/Desktop/GD32VW553/V1_MQTT_OK/GD32VW55X_Wifi_BLE_SDK/GD32VW55x_RELEASE_V1.0.2/MSDK/cloud/alicloud/src/services/linkkit/dm\dm_fota.c ****     if (NULL == version_str) {
 713              		.loc 1 203 25 is_stmt 0
 714 0062 13061900 		addi	a2,s2,1
 715 0066 8145     		li	a1,0
 716 0068 32C6     		sw	a2,12(sp)
 717 006a 97000000 		call	LITE_malloc_internal
 717      E7800000 
 718              	.LVL80:
 204:C:/Users/stapi/OneDrive/Desktop/GD32VW553/V1_MQTT_OK/GD32VW55X_Wifi_BLE_SDK/GD32VW55x_RELEASE_V1.0.2/MSDK/cloud/alicloud/src/services/linkkit/dm\dm_fota.c ****         dm_log_info("failed to malloc");
 719              		.loc 1 204 8
 720 0072 3246     		lw	a2,12(sp)
 203:C:/Users/stapi/OneDrive/Desktop/GD32VW553/V1_MQTT_OK/GD32VW55X_Wifi_BLE_SDK/GD32VW55x_RELEASE_V1.0.2/MSDK/cloud/alicloud/src/services/linkkit/dm\dm_fota.c ****     if (NULL == version_str) {
 721              		.loc 1 203 25
 722 0074 AA84     		mv	s1,a0
 723              	.LVL81:
 204:C:/Users/stapi/OneDrive/Desktop/GD32VW553/V1_MQTT_OK/GD32VW55X_Wifi_BLE_SDK/GD32VW55x_RELEASE_V1.0.2/MSDK/cloud/alicloud/src/services/linkkit/dm\dm_fota.c ****         dm_log_info("failed to malloc");
 724              		.loc 1 204 5 is_stmt 1
 204:C:/Users/stapi/OneDrive/Desktop/GD32VW553/V1_MQTT_OK/GD32VW55X_Wifi_BLE_SDK/GD32VW55x_RELEASE_V1.0.2/MSDK/cloud/alicloud/src/services/linkkit/dm\dm_fota.c ****         dm_log_info("failed to malloc");
 725              		.loc 1 204 8 is_stmt 0
 726 0076 15E9     		bne	a0,zero,.L42
 205:C:/Users/stapi/OneDrive/Desktop/GD32VW553/V1_MQTT_OK/GD32VW55X_Wifi_BLE_SDK/GD32VW55x_RELEASE_V1.0.2/MSDK/cloud/alicloud/src/services/linkkit/dm\dm_fota.c ****         return FAIL_RETURN;
 727              		.loc 1 205 9 is_stmt 1
 205:C:/Users/stapi/OneDrive/Desktop/GD32VW553/V1_MQTT_OK/GD32VW55X_Wifi_BLE_SDK/GD32VW55x_RELEASE_V1.0.2/MSDK/cloud/alicloud/src/services/linkkit/dm\dm_fota.c ****         return FAIL_RETURN;
 728              		.loc 1 205 9
 729 0078 37050000 		lui	a0,%hi(.LC6)
 730 007c 13050500 		addi	a0,a0,%lo(.LC6)
 731 0080 97000000 		call	HAL_Printf
 731      E7800000 
 732              	.LVL82:
 205:C:/Users/stapi/OneDrive/Desktop/GD32VW553/V1_MQTT_OK/GD32VW55X_Wifi_BLE_SDK/GD32VW55x_RELEASE_V1.0.2/MSDK/cloud/alicloud/src/services/linkkit/dm\dm_fota.c ****         return FAIL_RETURN;
 733              		.loc 1 205 9
 734 0088 37050000 		lui	a0,%hi(.LC9)
 735 008c 13050500 		addi	a0,a0,%lo(.LC9)
 736 0090 97000000 		call	HAL_Printf
 736      E7800000 
 737              	.LVL83:
 205:C:/Users/stapi/OneDrive/Desktop/GD32VW553/V1_MQTT_OK/GD32VW55X_Wifi_BLE_SDK/GD32VW55x_RELEASE_V1.0.2/MSDK/cloud/alicloud/src/services/linkkit/dm\dm_fota.c ****         return FAIL_RETURN;
 738              		.loc 1 205 9
 739 0098 37050000 		lui	a0,%hi(.LC2)
 740 009c 13050500 		addi	a0,a0,%lo(.LC2)
 741 00a0 97000000 		call	HAL_Printf
 741      E7800000 
 742              	.LVL84:
 205:C:/Users/stapi/OneDrive/Desktop/GD32VW553/V1_MQTT_OK/GD32VW55X_Wifi_BLE_SDK/GD32VW55x_RELEASE_V1.0.2/MSDK/cloud/alicloud/src/services/linkkit/dm\dm_fota.c ****         return FAIL_RETURN;
 743              		.loc 1 205 9
 206:C:/Users/stapi/OneDrive/Desktop/GD32VW553/V1_MQTT_OK/GD32VW55X_Wifi_BLE_SDK/GD32VW55x_RELEASE_V1.0.2/MSDK/cloud/alicloud/src/services/linkkit/dm\dm_fota.c ****     }
 744              		.loc 1 206 9
 206:C:/Users/stapi/OneDrive/Desktop/GD32VW553/V1_MQTT_OK/GD32VW55X_Wifi_BLE_SDK/GD32VW55x_RELEASE_V1.0.2/MSDK/cloud/alicloud/src/services/linkkit/dm\dm_fota.c ****     }
 745              		.loc 1 206 16 is_stmt 0
 746 00a8 79BF     		j	.L38
 747              	.L42:
 208:C:/Users/stapi/OneDrive/Desktop/GD32VW553/V1_MQTT_OK/GD32VW55X_Wifi_BLE_SDK/GD32VW55x_RELEASE_V1.0.2/MSDK/cloud/alicloud/src/services/linkkit/dm\dm_fota.c ****     memcpy(version_str, version, buffer_len);
 748              		.loc 1 208 5 is_stmt 1
 749 00aa 8145     		li	a1,0
 750 00ac 97000000 		call	memset
 750      E7800000 
 751              	.LVL85:
 209:C:/Users/stapi/OneDrive/Desktop/GD32VW553/V1_MQTT_OK/GD32VW55X_Wifi_BLE_SDK/GD32VW55x_RELEASE_V1.0.2/MSDK/cloud/alicloud/src/services/linkkit/dm\dm_fota.c **** 
 752              		.loc 1 209 5
 753 00b4 4A86     		mv	a2,s2
 754 00b6 CE85     		mv	a1,s3
 755 00b8 2685     		mv	a0,s1
 756 00ba 97000000 		call	memcpy
 756      E7800000 
 757              	.LVL86:
 211:C:/Users/stapi/OneDrive/Desktop/GD32VW553/V1_MQTT_OK/GD32VW55X_Wifi_BLE_SDK/GD32VW55x_RELEASE_V1.0.2/MSDK/cloud/alicloud/src/services/linkkit/dm\dm_fota.c ****     DM_free(version_str);
 758              		.loc 1 211 5
 211:C:/Users/stapi/OneDrive/Desktop/GD32VW553/V1_MQTT_OK/GD32VW55X_Wifi_BLE_SDK/GD32VW55x_RELEASE_V1.0.2/MSDK/cloud/alicloud/src/services/linkkit/dm\dm_fota.c ****     DM_free(version_str);
 759              		.loc 1 211 15 is_stmt 0
 760 00c2 7245     		lw	a0,28(sp)
 761 00c4 A685     		mv	a1,s1
 762 00c6 97000000 		call	iotx_req_image
 762      E7800000 
 763              	.LVL87:
 764 00ce 2A84     		mv	s0,a0
 765              	.LVL88:
 212:C:/Users/stapi/OneDrive/Desktop/GD32VW553/V1_MQTT_OK/GD32VW55X_Wifi_BLE_SDK/GD32VW55x_RELEASE_V1.0.2/MSDK/cloud/alicloud/src/services/linkkit/dm\dm_fota.c ****     return ret;
 766              		.loc 1 212 5 is_stmt 1
 767 00d0 2685     		mv	a0,s1
 768 00d2 97000000 		call	LITE_free_internal
 768      E7800000 
 769              	.LVL89:
 212:C:/Users/stapi/OneDrive/Desktop/GD32VW553/V1_MQTT_OK/GD32VW55X_Wifi_BLE_SDK/GD32VW55x_RELEASE_V1.0.2/MSDK/cloud/alicloud/src/services/linkkit/dm\dm_fota.c ****     return ret;
 770              		.loc 1 212 5
 212:C:/Users/stapi/OneDrive/Desktop/GD32VW553/V1_MQTT_OK/GD32VW55X_Wifi_BLE_SDK/GD32VW55x_RELEASE_V1.0.2/MSDK/cloud/alicloud/src/services/linkkit/dm\dm_fota.c ****     return ret;
 771              		.loc 1 212 25
 213:C:/Users/stapi/OneDrive/Desktop/GD32VW553/V1_MQTT_OK/GD32VW55X_Wifi_BLE_SDK/GD32VW55x_RELEASE_V1.0.2/MSDK/cloud/alicloud/src/services/linkkit/dm\dm_fota.c **** }
 772              		.loc 1 213 5
 213:C:/Users/stapi/OneDrive/Desktop/GD32VW553/V1_MQTT_OK/GD32VW55X_Wifi_BLE_SDK/GD32VW55x_RELEASE_V1.0.2/MSDK/cloud/alicloud/src/services/linkkit/dm\dm_fota.c **** }
 773              		.loc 1 213 12 is_stmt 0
 774 00da B5B7     		j	.L38
 775              		.cfi_endproc
 776              	.LFE26:
 778              		.section	.rodata.__FUNCTION__.0,"a"
 779              		.align	2
 780              		.set	.LANCHOR1,. + 0
 783              	__FUNCTION__.0:
 784 0000 646D5F66 		.string	"dm_fota_status_check"
 784      6F74615F 
 784      73746174 
 784      75735F63 
 784      6865636B 
 785              		.section	.sbss.g_dm_fota_ctx,"aw",@nobits
 786              		.align	2
 787              		.set	.LANCHOR0,. + 0
 790              	g_dm_fota_ctx:
 791 0000 00000000 		.zero	4
 792              		.text
 793              	.Letext0:
 794              		.file 2 "c:\\users\\stapi\\onedrive\\desktop\\gd32vw553\\embeddedbuilder_v1.4.7.26843\\tools\\nucl
 795              		.file 3 "c:\\users\\stapi\\onedrive\\desktop\\gd32vw553\\embeddedbuilder_v1.4.7.26843\\tools\\nucl
 796              		.file 4 "..\\..\\..\\..\\cloud\\alicloud\\include/exports/iot_export_ota.h"
 797              		.file 5 "C:/Users/stapi/OneDrive/Desktop/GD32VW553/V1_MQTT_OK/GD32VW55X_Wifi_BLE_SDK/GD32VW55x_REL
 798              		.file 6 "C:/Users/stapi/OneDrive/Desktop/GD32VW553/V1_MQTT_OK/GD32VW55X_Wifi_BLE_SDK/GD32VW55x_REL
 799              		.file 7 "..\\..\\..\\..\\cloud\\alicloud\\include/iot_import.h"
 800              		.file 8 "C:/Users/stapi/OneDrive/Desktop/GD32VW553/V1_MQTT_OK/GD32VW55X_Wifi_BLE_SDK/GD32VW55x_REL
 801              		.file 9 "..\\..\\..\\..\\cloud\\alicloud\\src\\infra\\utils/iotx_utils.h"
 802              		.file 10 "<built-in>"
 803              		.file 11 "..\\..\\..\\..\\cloud\\alicloud\\src\\services\\ota/iotx_ota.h"
 804              		.file 12 "c:\\users\\stapi\\onedrive\\desktop\\gd32vw553\\embeddedbuilder_v1.4.7.26843\\tools\\nuc
 805              		.file 13 "C:/Users/stapi/OneDrive/Desktop/GD32VW553/V1_MQTT_OK/GD32VW55X_Wifi_BLE_SDK/GD32VW55x_RE
 806              		.file 14 "..\\..\\..\\..\\cloud\\alicloud\\src\\infra\\log/iotx_log.h"
 807              		.file 15 "..\\..\\..\\..\\cloud\\alicloud\\include/imports/iot_import_ota.h"
 808              		.file 16 "..\\..\\..\\..\\cloud\\alicloud\\include/exports/iot_export_errno.h"