   1              		.file	"dm_ipc.c"
   2              		.option nopic
   3              		.attribute arch, "rv32i2p0_m2p0_a2p0_f2p0_c2p0_b_p0p94"
   4              		.attribute unaligned_access, 0
   5              		.attribute stack_align, 16
   6              		.text
   7              	.Ltext0:
   8              		.cfi_sections	.debug_frame
   9              		.section	.text._dm_ipc_unlock,"ax",@progbits
  10              		.align	1
  12              	_dm_ipc_unlock:
  13              	.LFB22:
  14              		.file 1 "C:/Users/stapi/OneDrive/Desktop/GD32VW553/V1_MQTT_OK/GD32VW55X_Wifi_BLE_SDK/GD32VW55x_REL
   1:C:/Users/stapi/OneDrive/Desktop/GD32VW553/V1_MQTT_OK/GD32VW55X_Wifi_BLE_SDK/GD32VW55x_RELEASE_V1.0.2/MSDK/cloud/alicloud/src/services/linkkit/dm\dm_ipc.c **** /*
   2:C:/Users/stapi/OneDrive/Desktop/GD32VW553/V1_MQTT_OK/GD32VW55X_Wifi_BLE_SDK/GD32VW55x_RELEASE_V1.0.2/MSDK/cloud/alicloud/src/services/linkkit/dm\dm_ipc.c ****  * Copyright (C) 2015-2018 Alibaba Group Holding Limited
   3:C:/Users/stapi/OneDrive/Desktop/GD32VW553/V1_MQTT_OK/GD32VW55X_Wifi_BLE_SDK/GD32VW55x_RELEASE_V1.0.2/MSDK/cloud/alicloud/src/services/linkkit/dm\dm_ipc.c ****  */
   4:C:/Users/stapi/OneDrive/Desktop/GD32VW553/V1_MQTT_OK/GD32VW55X_Wifi_BLE_SDK/GD32VW55x_RELEASE_V1.0.2/MSDK/cloud/alicloud/src/services/linkkit/dm\dm_ipc.c **** 
   5:C:/Users/stapi/OneDrive/Desktop/GD32VW553/V1_MQTT_OK/GD32VW55X_Wifi_BLE_SDK/GD32VW55x_RELEASE_V1.0.2/MSDK/cloud/alicloud/src/services/linkkit/dm\dm_ipc.c **** 
   6:C:/Users/stapi/OneDrive/Desktop/GD32VW553/V1_MQTT_OK/GD32VW55X_Wifi_BLE_SDK/GD32VW55x_RELEASE_V1.0.2/MSDK/cloud/alicloud/src/services/linkkit/dm\dm_ipc.c **** 
   7:C:/Users/stapi/OneDrive/Desktop/GD32VW553/V1_MQTT_OK/GD32VW55X_Wifi_BLE_SDK/GD32VW55x_RELEASE_V1.0.2/MSDK/cloud/alicloud/src/services/linkkit/dm\dm_ipc.c **** #include "iotx_dm_internal.h"
   8:C:/Users/stapi/OneDrive/Desktop/GD32VW553/V1_MQTT_OK/GD32VW55X_Wifi_BLE_SDK/GD32VW55x_RELEASE_V1.0.2/MSDK/cloud/alicloud/src/services/linkkit/dm\dm_ipc.c **** 
   9:C:/Users/stapi/OneDrive/Desktop/GD32VW553/V1_MQTT_OK/GD32VW55X_Wifi_BLE_SDK/GD32VW55x_RELEASE_V1.0.2/MSDK/cloud/alicloud/src/services/linkkit/dm\dm_ipc.c **** dm_ipc_t g_dm_ipc;
  10:C:/Users/stapi/OneDrive/Desktop/GD32VW553/V1_MQTT_OK/GD32VW55X_Wifi_BLE_SDK/GD32VW55x_RELEASE_V1.0.2/MSDK/cloud/alicloud/src/services/linkkit/dm\dm_ipc.c **** 
  11:C:/Users/stapi/OneDrive/Desktop/GD32VW553/V1_MQTT_OK/GD32VW55X_Wifi_BLE_SDK/GD32VW55x_RELEASE_V1.0.2/MSDK/cloud/alicloud/src/services/linkkit/dm\dm_ipc.c **** static dm_ipc_t *_dm_ipc_get_ctx(void)
  12:C:/Users/stapi/OneDrive/Desktop/GD32VW553/V1_MQTT_OK/GD32VW55X_Wifi_BLE_SDK/GD32VW55x_RELEASE_V1.0.2/MSDK/cloud/alicloud/src/services/linkkit/dm\dm_ipc.c **** {
  13:C:/Users/stapi/OneDrive/Desktop/GD32VW553/V1_MQTT_OK/GD32VW55X_Wifi_BLE_SDK/GD32VW55x_RELEASE_V1.0.2/MSDK/cloud/alicloud/src/services/linkkit/dm\dm_ipc.c ****     return &g_dm_ipc;
  14:C:/Users/stapi/OneDrive/Desktop/GD32VW553/V1_MQTT_OK/GD32VW55X_Wifi_BLE_SDK/GD32VW55x_RELEASE_V1.0.2/MSDK/cloud/alicloud/src/services/linkkit/dm\dm_ipc.c **** }
  15:C:/Users/stapi/OneDrive/Desktop/GD32VW553/V1_MQTT_OK/GD32VW55X_Wifi_BLE_SDK/GD32VW55x_RELEASE_V1.0.2/MSDK/cloud/alicloud/src/services/linkkit/dm\dm_ipc.c **** 
  16:C:/Users/stapi/OneDrive/Desktop/GD32VW553/V1_MQTT_OK/GD32VW55X_Wifi_BLE_SDK/GD32VW55x_RELEASE_V1.0.2/MSDK/cloud/alicloud/src/services/linkkit/dm\dm_ipc.c **** static void _dm_ipc_lock(void)
  17:C:/Users/stapi/OneDrive/Desktop/GD32VW553/V1_MQTT_OK/GD32VW55X_Wifi_BLE_SDK/GD32VW55x_RELEASE_V1.0.2/MSDK/cloud/alicloud/src/services/linkkit/dm\dm_ipc.c **** {
  18:C:/Users/stapi/OneDrive/Desktop/GD32VW553/V1_MQTT_OK/GD32VW55X_Wifi_BLE_SDK/GD32VW55x_RELEASE_V1.0.2/MSDK/cloud/alicloud/src/services/linkkit/dm\dm_ipc.c ****     dm_ipc_t *ctx = _dm_ipc_get_ctx();
  19:C:/Users/stapi/OneDrive/Desktop/GD32VW553/V1_MQTT_OK/GD32VW55X_Wifi_BLE_SDK/GD32VW55x_RELEASE_V1.0.2/MSDK/cloud/alicloud/src/services/linkkit/dm\dm_ipc.c ****     if (ctx->mutex) {
  20:C:/Users/stapi/OneDrive/Desktop/GD32VW553/V1_MQTT_OK/GD32VW55X_Wifi_BLE_SDK/GD32VW55x_RELEASE_V1.0.2/MSDK/cloud/alicloud/src/services/linkkit/dm\dm_ipc.c ****         HAL_MutexLock(ctx->mutex);
  21:C:/Users/stapi/OneDrive/Desktop/GD32VW553/V1_MQTT_OK/GD32VW55X_Wifi_BLE_SDK/GD32VW55x_RELEASE_V1.0.2/MSDK/cloud/alicloud/src/services/linkkit/dm\dm_ipc.c ****     }
  22:C:/Users/stapi/OneDrive/Desktop/GD32VW553/V1_MQTT_OK/GD32VW55X_Wifi_BLE_SDK/GD32VW55x_RELEASE_V1.0.2/MSDK/cloud/alicloud/src/services/linkkit/dm\dm_ipc.c **** }
  23:C:/Users/stapi/OneDrive/Desktop/GD32VW553/V1_MQTT_OK/GD32VW55X_Wifi_BLE_SDK/GD32VW55x_RELEASE_V1.0.2/MSDK/cloud/alicloud/src/services/linkkit/dm\dm_ipc.c **** 
  24:C:/Users/stapi/OneDrive/Desktop/GD32VW553/V1_MQTT_OK/GD32VW55X_Wifi_BLE_SDK/GD32VW55x_RELEASE_V1.0.2/MSDK/cloud/alicloud/src/services/linkkit/dm\dm_ipc.c **** static void _dm_ipc_unlock(void)
  25:C:/Users/stapi/OneDrive/Desktop/GD32VW553/V1_MQTT_OK/GD32VW55X_Wifi_BLE_SDK/GD32VW55x_RELEASE_V1.0.2/MSDK/cloud/alicloud/src/services/linkkit/dm\dm_ipc.c **** {
  15              		.loc 1 25 1
  16              		.cfi_startproc
  26:C:/Users/stapi/OneDrive/Desktop/GD32VW553/V1_MQTT_OK/GD32VW55X_Wifi_BLE_SDK/GD32VW55x_RELEASE_V1.0.2/MSDK/cloud/alicloud/src/services/linkkit/dm\dm_ipc.c ****     dm_ipc_t *ctx = _dm_ipc_get_ctx();
  17              		.loc 1 26 5
  13:C:/Users/stapi/OneDrive/Desktop/GD32VW553/V1_MQTT_OK/GD32VW55X_Wifi_BLE_SDK/GD32VW55x_RELEASE_V1.0.2/MSDK/cloud/alicloud/src/services/linkkit/dm\dm_ipc.c **** }
  18              		.loc 1 13 5
  19              	.LVL0:
  27:C:/Users/stapi/OneDrive/Desktop/GD32VW553/V1_MQTT_OK/GD32VW55X_Wifi_BLE_SDK/GD32VW55x_RELEASE_V1.0.2/MSDK/cloud/alicloud/src/services/linkkit/dm\dm_ipc.c ****     if (ctx->mutex) {
  20              		.loc 1 27 5
  21              		.loc 1 27 12 is_stmt 0
  22 0000 B7070000 		lui	a5,%hi(.LANCHOR0)
  23 0004 03A50700 		lw	a0,%lo(.LANCHOR0)(a5)
  24              		.loc 1 27 8
  25 0008 09C5     		beq	a0,zero,.L7
  28:C:/Users/stapi/OneDrive/Desktop/GD32VW553/V1_MQTT_OK/GD32VW55X_Wifi_BLE_SDK/GD32VW55x_RELEASE_V1.0.2/MSDK/cloud/alicloud/src/services/linkkit/dm\dm_ipc.c ****         HAL_MutexUnlock(ctx->mutex);
  26              		.loc 1 28 9 is_stmt 1
  27 000a 17030000 		tail	HAL_MutexUnlock
  27      67000300 
  28              	.LVL1:
  29              	.L7:
  30 0012 8280     		ret
  31              		.cfi_endproc
  32              	.LFE22:
  34              		.section	.text.dm_ipc_init,"ax",@progbits
  35              		.align	1
  36              		.globl	dm_ipc_init
  38              	dm_ipc_init:
  39              	.LFB23:
  29:C:/Users/stapi/OneDrive/Desktop/GD32VW553/V1_MQTT_OK/GD32VW55X_Wifi_BLE_SDK/GD32VW55x_RELEASE_V1.0.2/MSDK/cloud/alicloud/src/services/linkkit/dm\dm_ipc.c ****     }
  30:C:/Users/stapi/OneDrive/Desktop/GD32VW553/V1_MQTT_OK/GD32VW55X_Wifi_BLE_SDK/GD32VW55x_RELEASE_V1.0.2/MSDK/cloud/alicloud/src/services/linkkit/dm\dm_ipc.c **** }
  31:C:/Users/stapi/OneDrive/Desktop/GD32VW553/V1_MQTT_OK/GD32VW55X_Wifi_BLE_SDK/GD32VW55x_RELEASE_V1.0.2/MSDK/cloud/alicloud/src/services/linkkit/dm\dm_ipc.c **** 
  32:C:/Users/stapi/OneDrive/Desktop/GD32VW553/V1_MQTT_OK/GD32VW55X_Wifi_BLE_SDK/GD32VW55x_RELEASE_V1.0.2/MSDK/cloud/alicloud/src/services/linkkit/dm\dm_ipc.c **** int dm_ipc_init(int max_size)
  33:C:/Users/stapi/OneDrive/Desktop/GD32VW553/V1_MQTT_OK/GD32VW55X_Wifi_BLE_SDK/GD32VW55x_RELEASE_V1.0.2/MSDK/cloud/alicloud/src/services/linkkit/dm\dm_ipc.c **** {
  40              		.loc 1 33 1
  41              		.cfi_startproc
  42              	.LVL2:
  43 0000 17030000 		call	t0,__riscv_save_2
  43      E7020300 
  44              		.cfi_offset 9, -12
  45              		.cfi_offset 8, -8
  46              		.cfi_offset 1, -4
  47              		.cfi_def_cfa_offset 16
  34:C:/Users/stapi/OneDrive/Desktop/GD32VW553/V1_MQTT_OK/GD32VW55X_Wifi_BLE_SDK/GD32VW55x_RELEASE_V1.0.2/MSDK/cloud/alicloud/src/services/linkkit/dm\dm_ipc.c ****     dm_ipc_t *ctx = _dm_ipc_get_ctx();
  48              		.loc 1 34 5
  13:C:/Users/stapi/OneDrive/Desktop/GD32VW553/V1_MQTT_OK/GD32VW55X_Wifi_BLE_SDK/GD32VW55x_RELEASE_V1.0.2/MSDK/cloud/alicloud/src/services/linkkit/dm\dm_ipc.c **** }
  49              		.loc 1 13 5
  50              	.LVL3:
  35:C:/Users/stapi/OneDrive/Desktop/GD32VW553/V1_MQTT_OK/GD32VW55X_Wifi_BLE_SDK/GD32VW55x_RELEASE_V1.0.2/MSDK/cloud/alicloud/src/services/linkkit/dm\dm_ipc.c **** 
  36:C:/Users/stapi/OneDrive/Desktop/GD32VW553/V1_MQTT_OK/GD32VW55X_Wifi_BLE_SDK/GD32VW55x_RELEASE_V1.0.2/MSDK/cloud/alicloud/src/services/linkkit/dm\dm_ipc.c ****     memset(ctx, 0, sizeof(dm_ipc_t));
  51              		.loc 1 36 5
  52 0008 37040000 		lui	s0,%hi(.LANCHOR0)
  53 000c 13040400 		addi	s0,s0,%lo(.LANCHOR0)
  33:C:/Users/stapi/OneDrive/Desktop/GD32VW553/V1_MQTT_OK/GD32VW55X_Wifi_BLE_SDK/GD32VW55x_RELEASE_V1.0.2/MSDK/cloud/alicloud/src/services/linkkit/dm\dm_ipc.c ****     dm_ipc_t *ctx = _dm_ipc_get_ctx();
  54              		.loc 1 33 1 is_stmt 0
  55 0010 AA84     		mv	s1,a0
  56              		.loc 1 36 5
  57 0012 23200400 		sw	zero,0(s0)
  58 0016 23220400 		sw	zero,4(s0)
  59 001a 23240400 		sw	zero,8(s0)
  60 001e 23260400 		sw	zero,12(s0)
  61 0022 23280400 		sw	zero,16(s0)
  37:C:/Users/stapi/OneDrive/Desktop/GD32VW553/V1_MQTT_OK/GD32VW55X_Wifi_BLE_SDK/GD32VW55x_RELEASE_V1.0.2/MSDK/cloud/alicloud/src/services/linkkit/dm\dm_ipc.c **** 
  38:C:/Users/stapi/OneDrive/Desktop/GD32VW553/V1_MQTT_OK/GD32VW55X_Wifi_BLE_SDK/GD32VW55x_RELEASE_V1.0.2/MSDK/cloud/alicloud/src/services/linkkit/dm\dm_ipc.c ****     //Create Mutex
  39:C:/Users/stapi/OneDrive/Desktop/GD32VW553/V1_MQTT_OK/GD32VW55X_Wifi_BLE_SDK/GD32VW55x_RELEASE_V1.0.2/MSDK/cloud/alicloud/src/services/linkkit/dm\dm_ipc.c ****     ctx->mutex = HAL_MutexCreate();
  62              		.loc 1 39 5 is_stmt 1
  63              		.loc 1 39 18 is_stmt 0
  64 0026 97000000 		call	HAL_MutexCreate
  64      E7800000 
  65              	.LVL4:
  66              		.loc 1 39 16
  67 002e 08C0     		sw	a0,0(s0)
  40:C:/Users/stapi/OneDrive/Desktop/GD32VW553/V1_MQTT_OK/GD32VW55X_Wifi_BLE_SDK/GD32VW55x_RELEASE_V1.0.2/MSDK/cloud/alicloud/src/services/linkkit/dm\dm_ipc.c ****     if (ctx->mutex == NULL) {
  68              		.loc 1 40 5 is_stmt 1
  69              		.loc 1 40 8 is_stmt 0
  70 0030 19C9     		beq	a0,zero,.L12
  41:C:/Users/stapi/OneDrive/Desktop/GD32VW553/V1_MQTT_OK/GD32VW55X_Wifi_BLE_SDK/GD32VW55x_RELEASE_V1.0.2/MSDK/cloud/alicloud/src/services/linkkit/dm\dm_ipc.c ****         return DM_INVALID_PARAMETER;
  42:C:/Users/stapi/OneDrive/Desktop/GD32VW553/V1_MQTT_OK/GD32VW55X_Wifi_BLE_SDK/GD32VW55x_RELEASE_V1.0.2/MSDK/cloud/alicloud/src/services/linkkit/dm\dm_ipc.c ****     }
  43:C:/Users/stapi/OneDrive/Desktop/GD32VW553/V1_MQTT_OK/GD32VW55X_Wifi_BLE_SDK/GD32VW55x_RELEASE_V1.0.2/MSDK/cloud/alicloud/src/services/linkkit/dm\dm_ipc.c **** 
  44:C:/Users/stapi/OneDrive/Desktop/GD32VW553/V1_MQTT_OK/GD32VW55X_Wifi_BLE_SDK/GD32VW55x_RELEASE_V1.0.2/MSDK/cloud/alicloud/src/services/linkkit/dm\dm_ipc.c ****     //Init List
  45:C:/Users/stapi/OneDrive/Desktop/GD32VW553/V1_MQTT_OK/GD32VW55X_Wifi_BLE_SDK/GD32VW55x_RELEASE_V1.0.2/MSDK/cloud/alicloud/src/services/linkkit/dm\dm_ipc.c ****     ctx->msg_list.max_size = max_size;
  71              		.loc 1 45 5 is_stmt 1
  72              	.LBB26:
  73              	.LBB27:
  74              		.file 2 "..\\..\\..\\..\\cloud\\alicloud\\src\\infra\\utils\\misc/lite-list.h"
   1:..\..\..\..\cloud\alicloud\src\infra\utils\misc/lite-list.h **** /*
   2:..\..\..\..\cloud\alicloud\src\infra\utils\misc/lite-list.h ****  * Copyright (C) 2015-2018 Alibaba Group Holding Limited
   3:..\..\..\..\cloud\alicloud\src\infra\utils\misc/lite-list.h ****  */
   4:..\..\..\..\cloud\alicloud\src\infra\utils\misc/lite-list.h **** 
   5:..\..\..\..\cloud\alicloud\src\infra\utils\misc/lite-list.h **** #ifndef AOS_LIST_H
   6:..\..\..\..\cloud\alicloud\src\infra\utils\misc/lite-list.h **** #define AOS_LIST_H
   7:..\..\..\..\cloud\alicloud\src\infra\utils\misc/lite-list.h **** 
   8:..\..\..\..\cloud\alicloud\src\infra\utils\misc/lite-list.h **** #ifdef __cplusplus
   9:..\..\..\..\cloud\alicloud\src\infra\utils\misc/lite-list.h **** extern "C" {
  10:..\..\..\..\cloud\alicloud\src\infra\utils\misc/lite-list.h **** #endif
  11:..\..\..\..\cloud\alicloud\src\infra\utils\misc/lite-list.h **** 
  12:..\..\..\..\cloud\alicloud\src\infra\utils\misc/lite-list.h **** /*
  13:..\..\..\..\cloud\alicloud\src\infra\utils\misc/lite-list.h ****  * Get offset of a member variable.
  14:..\..\..\..\cloud\alicloud\src\infra\utils\misc/lite-list.h ****  *
  15:..\..\..\..\cloud\alicloud\src\infra\utils\misc/lite-list.h ****  * @param[in]   type     the type of the struct this is embedded in.
  16:..\..\..\..\cloud\alicloud\src\infra\utils\misc/lite-list.h ****  * @param[in]   member   the name of the variable within the struct.
  17:..\..\..\..\cloud\alicloud\src\infra\utils\misc/lite-list.h ****  */
  18:..\..\..\..\cloud\alicloud\src\infra\utils\misc/lite-list.h **** #define aos_offsetof(type, member)   ((size_t)&(((type *)0)->member))
  19:..\..\..\..\cloud\alicloud\src\infra\utils\misc/lite-list.h **** 
  20:..\..\..\..\cloud\alicloud\src\infra\utils\misc/lite-list.h **** /*
  21:..\..\..\..\cloud\alicloud\src\infra\utils\misc/lite-list.h ****  * Get the struct for this entry.
  22:..\..\..\..\cloud\alicloud\src\infra\utils\misc/lite-list.h ****  *
  23:..\..\..\..\cloud\alicloud\src\infra\utils\misc/lite-list.h ****  * @param[in]   ptr     the list head to take the element from.
  24:..\..\..\..\cloud\alicloud\src\infra\utils\misc/lite-list.h ****  * @param[in]   type    the type of the struct this is embedded in.
  25:..\..\..\..\cloud\alicloud\src\infra\utils\misc/lite-list.h ****  * @param[in]   member  the name of the variable within the struct.
  26:..\..\..\..\cloud\alicloud\src\infra\utils\misc/lite-list.h ****  */
  27:..\..\..\..\cloud\alicloud\src\infra\utils\misc/lite-list.h **** #define aos_container_of(ptr, type, member) \
  28:..\..\..\..\cloud\alicloud\src\infra\utils\misc/lite-list.h ****     ((type *) ((char *) (ptr) - aos_offsetof(type, member)))
  29:..\..\..\..\cloud\alicloud\src\infra\utils\misc/lite-list.h **** 
  30:..\..\..\..\cloud\alicloud\src\infra\utils\misc/lite-list.h **** /* for double link list */
  31:..\..\..\..\cloud\alicloud\src\infra\utils\misc/lite-list.h **** typedef struct dlist_s {
  32:..\..\..\..\cloud\alicloud\src\infra\utils\misc/lite-list.h ****     struct dlist_s *prev;
  33:..\..\..\..\cloud\alicloud\src\infra\utils\misc/lite-list.h ****     struct dlist_s *next;
  34:..\..\..\..\cloud\alicloud\src\infra\utils\misc/lite-list.h **** } dlist_t;
  35:..\..\..\..\cloud\alicloud\src\infra\utils\misc/lite-list.h **** 
  36:..\..\..\..\cloud\alicloud\src\infra\utils\misc/lite-list.h **** static inline void __dlist_add(dlist_t *node, dlist_t *prev, dlist_t *next)
  37:..\..\..\..\cloud\alicloud\src\infra\utils\misc/lite-list.h **** {
  38:..\..\..\..\cloud\alicloud\src\infra\utils\misc/lite-list.h ****     node->next = next;
  39:..\..\..\..\cloud\alicloud\src\infra\utils\misc/lite-list.h ****     node->prev = prev;
  40:..\..\..\..\cloud\alicloud\src\infra\utils\misc/lite-list.h **** 
  41:..\..\..\..\cloud\alicloud\src\infra\utils\misc/lite-list.h ****     prev->next = node;
  42:..\..\..\..\cloud\alicloud\src\infra\utils\misc/lite-list.h ****     next->prev = node;
  43:..\..\..\..\cloud\alicloud\src\infra\utils\misc/lite-list.h **** }
  44:..\..\..\..\cloud\alicloud\src\infra\utils\misc/lite-list.h **** 
  45:..\..\..\..\cloud\alicloud\src\infra\utils\misc/lite-list.h **** /*
  46:..\..\..\..\cloud\alicloud\src\infra\utils\misc/lite-list.h ****  * Get the struct for this entry.
  47:..\..\..\..\cloud\alicloud\src\infra\utils\misc/lite-list.h ****  *
  48:..\..\..\..\cloud\alicloud\src\infra\utils\misc/lite-list.h ****  * @param[in]   addr    the list head to take the element from.
  49:..\..\..\..\cloud\alicloud\src\infra\utils\misc/lite-list.h ****  * @param[in]   type    the type of the struct this is embedded in.
  50:..\..\..\..\cloud\alicloud\src\infra\utils\misc/lite-list.h ****  * @param[in]   member  the name of the dlist_t within the struct.
  51:..\..\..\..\cloud\alicloud\src\infra\utils\misc/lite-list.h ****  */
  52:..\..\..\..\cloud\alicloud\src\infra\utils\misc/lite-list.h **** #define dlist_entry(addr, type, member) \
  53:..\..\..\..\cloud\alicloud\src\infra\utils\misc/lite-list.h ****     ((type *)((long)addr - aos_offsetof(type, member)))
  54:..\..\..\..\cloud\alicloud\src\infra\utils\misc/lite-list.h **** 
  55:..\..\..\..\cloud\alicloud\src\infra\utils\misc/lite-list.h **** 
  56:..\..\..\..\cloud\alicloud\src\infra\utils\misc/lite-list.h **** static inline void dlist_add(dlist_t *node, dlist_t *queue)
  57:..\..\..\..\cloud\alicloud\src\infra\utils\misc/lite-list.h **** {
  58:..\..\..\..\cloud\alicloud\src\infra\utils\misc/lite-list.h ****     __dlist_add(node, queue, queue->next);
  59:..\..\..\..\cloud\alicloud\src\infra\utils\misc/lite-list.h **** }
  60:..\..\..\..\cloud\alicloud\src\infra\utils\misc/lite-list.h **** 
  61:..\..\..\..\cloud\alicloud\src\infra\utils\misc/lite-list.h **** static inline void dlist_add_tail(dlist_t *node, dlist_t *queue)
  62:..\..\..\..\cloud\alicloud\src\infra\utils\misc/lite-list.h **** {
  63:..\..\..\..\cloud\alicloud\src\infra\utils\misc/lite-list.h ****     __dlist_add(node, queue->prev, queue);
  64:..\..\..\..\cloud\alicloud\src\infra\utils\misc/lite-list.h **** }
  65:..\..\..\..\cloud\alicloud\src\infra\utils\misc/lite-list.h **** 
  66:..\..\..\..\cloud\alicloud\src\infra\utils\misc/lite-list.h **** static inline void dlist_del(dlist_t *node)
  67:..\..\..\..\cloud\alicloud\src\infra\utils\misc/lite-list.h **** {
  68:..\..\..\..\cloud\alicloud\src\infra\utils\misc/lite-list.h ****     dlist_t *prev = node->prev;
  69:..\..\..\..\cloud\alicloud\src\infra\utils\misc/lite-list.h ****     dlist_t *next = node->next;
  70:..\..\..\..\cloud\alicloud\src\infra\utils\misc/lite-list.h **** 
  71:..\..\..\..\cloud\alicloud\src\infra\utils\misc/lite-list.h ****     prev->next = next;
  72:..\..\..\..\cloud\alicloud\src\infra\utils\misc/lite-list.h ****     next->prev = prev;
  73:..\..\..\..\cloud\alicloud\src\infra\utils\misc/lite-list.h **** }
  74:..\..\..\..\cloud\alicloud\src\infra\utils\misc/lite-list.h **** 
  75:..\..\..\..\cloud\alicloud\src\infra\utils\misc/lite-list.h **** static inline void dlist_init(dlist_t *node)
  76:..\..\..\..\cloud\alicloud\src\infra\utils\misc/lite-list.h **** {
  77:..\..\..\..\cloud\alicloud\src\infra\utils\misc/lite-list.h ****     node->next = node->prev = node;
  78:..\..\..\..\cloud\alicloud\src\infra\utils\misc/lite-list.h **** }
  79:..\..\..\..\cloud\alicloud\src\infra\utils\misc/lite-list.h **** 
  80:..\..\..\..\cloud\alicloud\src\infra\utils\misc/lite-list.h **** static inline void INIT_AOS_DLIST_HEAD(dlist_t *list)
  81:..\..\..\..\cloud\alicloud\src\infra\utils\misc/lite-list.h **** {
  82:..\..\..\..\cloud\alicloud\src\infra\utils\misc/lite-list.h ****     list->next = list;
  75              		.loc 2 82 16 is_stmt 0
  76 0032 9307C400 		addi	a5,s0,12
  77              	.LBE27:
  78              	.LBE26:
  79              		.loc 1 45 28
  80 0036 44C0     		sw	s1,4(s0)
  46:C:/Users/stapi/OneDrive/Desktop/GD32VW553/V1_MQTT_OK/GD32VW55X_Wifi_BLE_SDK/GD32VW55x_RELEASE_V1.0.2/MSDK/cloud/alicloud/src/services/linkkit/dm\dm_ipc.c ****     INIT_LIST_HEAD(&ctx->msg_list.message_list);
  81              		.loc 1 46 5 is_stmt 1
  82              	.LVL5:
  83              	.LBB29:
  84              	.LBB28:
  85              		.loc 2 82 5
  86              		.loc 2 82 16 is_stmt 0
  87 0038 1CC8     		sw	a5,16(s0)
  83:..\..\..\..\cloud\alicloud\src\infra\utils\misc/lite-list.h ****     list->prev = list;
  88              		.loc 2 83 5 is_stmt 1
  89              		.loc 2 83 16 is_stmt 0
  90 003a 5CC4     		sw	a5,12(s0)
  91              	.LVL6:
  92              	.LBE28:
  93              	.LBE29:
  47:C:/Users/stapi/OneDrive/Desktop/GD32VW553/V1_MQTT_OK/GD32VW55X_Wifi_BLE_SDK/GD32VW55x_RELEASE_V1.0.2/MSDK/cloud/alicloud/src/services/linkkit/dm\dm_ipc.c **** 
  48:C:/Users/stapi/OneDrive/Desktop/GD32VW553/V1_MQTT_OK/GD32VW55X_Wifi_BLE_SDK/GD32VW55x_RELEASE_V1.0.2/MSDK/cloud/alicloud/src/services/linkkit/dm\dm_ipc.c ****     return SUCCESS_RETURN;
  94              		.loc 1 48 5 is_stmt 1
  95              		.loc 1 48 12 is_stmt 0
  96 003c 0145     		li	a0,0
  97              	.L10:
  49:C:/Users/stapi/OneDrive/Desktop/GD32VW553/V1_MQTT_OK/GD32VW55X_Wifi_BLE_SDK/GD32VW55x_RELEASE_V1.0.2/MSDK/cloud/alicloud/src/services/linkkit/dm\dm_ipc.c **** }
  98              		.loc 1 49 1
  99 003e 17030000 		tail	__riscv_restore_2
  99      67000300 
 100              		.cfi_remember_state
 101              		.cfi_restore 9
 102              		.cfi_restore 8
 103              		.cfi_restore 1
 104              		.cfi_def_cfa_offset 0
 105              	.L12:
 106              		.cfi_restore_state
  41:C:/Users/stapi/OneDrive/Desktop/GD32VW553/V1_MQTT_OK/GD32VW55X_Wifi_BLE_SDK/GD32VW55x_RELEASE_V1.0.2/MSDK/cloud/alicloud/src/services/linkkit/dm\dm_ipc.c ****     }
 107              		.loc 1 41 16
 108 0046 7955     		li	a0,-2
 109 0048 DDBF     		j	.L10
 110              		.cfi_endproc
 111              	.LFE23:
 113              		.section	.text.dm_ipc_deinit,"ax",@progbits
 114              		.align	1
 115              		.globl	dm_ipc_deinit
 117              	dm_ipc_deinit:
 118              	.LFB24:
  50:C:/Users/stapi/OneDrive/Desktop/GD32VW553/V1_MQTT_OK/GD32VW55X_Wifi_BLE_SDK/GD32VW55x_RELEASE_V1.0.2/MSDK/cloud/alicloud/src/services/linkkit/dm\dm_ipc.c **** 
  51:C:/Users/stapi/OneDrive/Desktop/GD32VW553/V1_MQTT_OK/GD32VW55X_Wifi_BLE_SDK/GD32VW55x_RELEASE_V1.0.2/MSDK/cloud/alicloud/src/services/linkkit/dm\dm_ipc.c **** void dm_ipc_deinit(void)
  52:C:/Users/stapi/OneDrive/Desktop/GD32VW553/V1_MQTT_OK/GD32VW55X_Wifi_BLE_SDK/GD32VW55x_RELEASE_V1.0.2/MSDK/cloud/alicloud/src/services/linkkit/dm\dm_ipc.c **** {
 119              		.loc 1 52 1 is_stmt 1
 120              		.cfi_startproc
 121 0000 17030000 		call	t0,__riscv_save_4
 121      E7020300 
 122              		.cfi_offset 19, -20
 123              		.cfi_offset 18, -16
 124              		.cfi_offset 9, -12
 125              		.cfi_offset 8, -8
 126              		.cfi_offset 1, -4
 127              		.cfi_def_cfa_offset 32
  53:C:/Users/stapi/OneDrive/Desktop/GD32VW553/V1_MQTT_OK/GD32VW55X_Wifi_BLE_SDK/GD32VW55x_RELEASE_V1.0.2/MSDK/cloud/alicloud/src/services/linkkit/dm\dm_ipc.c ****     dm_ipc_t *ctx = _dm_ipc_get_ctx();
 128              		.loc 1 53 5
  13:C:/Users/stapi/OneDrive/Desktop/GD32VW553/V1_MQTT_OK/GD32VW55X_Wifi_BLE_SDK/GD32VW55x_RELEASE_V1.0.2/MSDK/cloud/alicloud/src/services/linkkit/dm\dm_ipc.c **** }
 129              		.loc 1 13 5
 130              	.LVL7:
  54:C:/Users/stapi/OneDrive/Desktop/GD32VW553/V1_MQTT_OK/GD32VW55X_Wifi_BLE_SDK/GD32VW55x_RELEASE_V1.0.2/MSDK/cloud/alicloud/src/services/linkkit/dm\dm_ipc.c ****     dm_ipc_msg_node_t *del_node = NULL;
 131              		.loc 1 54 5
  55:C:/Users/stapi/OneDrive/Desktop/GD32VW553/V1_MQTT_OK/GD32VW55X_Wifi_BLE_SDK/GD32VW55x_RELEASE_V1.0.2/MSDK/cloud/alicloud/src/services/linkkit/dm\dm_ipc.c ****     dm_ipc_msg_node_t *next_node = NULL;
 132              		.loc 1 55 5
  56:C:/Users/stapi/OneDrive/Desktop/GD32VW553/V1_MQTT_OK/GD32VW55X_Wifi_BLE_SDK/GD32VW55x_RELEASE_V1.0.2/MSDK/cloud/alicloud/src/services/linkkit/dm\dm_ipc.c ****     dm_ipc_msg_t *del_msg = NULL;
 133              		.loc 1 56 5
  57:C:/Users/stapi/OneDrive/Desktop/GD32VW553/V1_MQTT_OK/GD32VW55X_Wifi_BLE_SDK/GD32VW55x_RELEASE_V1.0.2/MSDK/cloud/alicloud/src/services/linkkit/dm\dm_ipc.c **** 
  58:C:/Users/stapi/OneDrive/Desktop/GD32VW553/V1_MQTT_OK/GD32VW55X_Wifi_BLE_SDK/GD32VW55x_RELEASE_V1.0.2/MSDK/cloud/alicloud/src/services/linkkit/dm\dm_ipc.c ****     if (ctx->mutex) {
 134              		.loc 1 58 5
 135              		.loc 1 58 12 is_stmt 0
 136 0008 37040000 		lui	s0,%hi(.LANCHOR0)
 137 000c 03250400 		lw	a0,%lo(.LANCHOR0)(s0)
 138 0010 13040400 		addi	s0,s0,%lo(.LANCHOR0)
 139              		.loc 1 58 8
 140 0014 09C5     		beq	a0,zero,.L15
  59:C:/Users/stapi/OneDrive/Desktop/GD32VW553/V1_MQTT_OK/GD32VW55X_Wifi_BLE_SDK/GD32VW55x_RELEASE_V1.0.2/MSDK/cloud/alicloud/src/services/linkkit/dm\dm_ipc.c ****         HAL_MutexDestroy(ctx->mutex);
 141              		.loc 1 59 9 is_stmt 1
 142 0016 97000000 		call	HAL_MutexDestroy
 142      E7800000 
 143              	.LVL8:
 144              	.L15:
  60:C:/Users/stapi/OneDrive/Desktop/GD32VW553/V1_MQTT_OK/GD32VW55X_Wifi_BLE_SDK/GD32VW55x_RELEASE_V1.0.2/MSDK/cloud/alicloud/src/services/linkkit/dm\dm_ipc.c ****     }
  61:C:/Users/stapi/OneDrive/Desktop/GD32VW553/V1_MQTT_OK/GD32VW55X_Wifi_BLE_SDK/GD32VW55x_RELEASE_V1.0.2/MSDK/cloud/alicloud/src/services/linkkit/dm\dm_ipc.c **** 
  62:C:/Users/stapi/OneDrive/Desktop/GD32VW553/V1_MQTT_OK/GD32VW55X_Wifi_BLE_SDK/GD32VW55x_RELEASE_V1.0.2/MSDK/cloud/alicloud/src/services/linkkit/dm\dm_ipc.c ****     list_for_each_entry_safe(del_node, next_node, &ctx->msg_list.message_list, linked_list, dm_ipc_
 145              		.loc 1 62 5
 146 001e 1C48     		lw	a5,16(s0)
 147 0020 3104     		addi	s0,s0,12
 148 0022 03A94700 		lw	s2,4(a5)
 149 0026 9384C7FF 		addi	s1,a5,-4
 150              	.LVL9:
 151 002a 7119     		addi	s2,s2,-4
 152              	.LVL10:
 153              	.L16:
 154              		.loc 1 62 5 discriminator 2
 155 002c 93874400 		addi	a5,s1,4
 156 0030 63968700 		bne	a5,s0,.L18
  63:C:/Users/stapi/OneDrive/Desktop/GD32VW553/V1_MQTT_OK/GD32VW55X_Wifi_BLE_SDK/GD32VW55x_RELEASE_V1.0.2/MSDK/cloud/alicloud/src/services/linkkit/dm\dm_ipc.c ****         //Free Message
  64:C:/Users/stapi/OneDrive/Desktop/GD32VW553/V1_MQTT_OK/GD32VW55X_Wifi_BLE_SDK/GD32VW55x_RELEASE_V1.0.2/MSDK/cloud/alicloud/src/services/linkkit/dm\dm_ipc.c ****         del_msg = (dm_ipc_msg_t *)del_node->data;
  65:C:/Users/stapi/OneDrive/Desktop/GD32VW553/V1_MQTT_OK/GD32VW55X_Wifi_BLE_SDK/GD32VW55x_RELEASE_V1.0.2/MSDK/cloud/alicloud/src/services/linkkit/dm\dm_ipc.c ****         if (del_msg->data) {
  66:C:/Users/stapi/OneDrive/Desktop/GD32VW553/V1_MQTT_OK/GD32VW55X_Wifi_BLE_SDK/GD32VW55x_RELEASE_V1.0.2/MSDK/cloud/alicloud/src/services/linkkit/dm\dm_ipc.c ****             DM_free(del_msg->data);
  67:C:/Users/stapi/OneDrive/Desktop/GD32VW553/V1_MQTT_OK/GD32VW55X_Wifi_BLE_SDK/GD32VW55x_RELEASE_V1.0.2/MSDK/cloud/alicloud/src/services/linkkit/dm\dm_ipc.c ****         }
  68:C:/Users/stapi/OneDrive/Desktop/GD32VW553/V1_MQTT_OK/GD32VW55X_Wifi_BLE_SDK/GD32VW55x_RELEASE_V1.0.2/MSDK/cloud/alicloud/src/services/linkkit/dm\dm_ipc.c ****         DM_free(del_msg);
  69:C:/Users/stapi/OneDrive/Desktop/GD32VW553/V1_MQTT_OK/GD32VW55X_Wifi_BLE_SDK/GD32VW55x_RELEASE_V1.0.2/MSDK/cloud/alicloud/src/services/linkkit/dm\dm_ipc.c ****         del_msg = NULL;
  70:C:/Users/stapi/OneDrive/Desktop/GD32VW553/V1_MQTT_OK/GD32VW55X_Wifi_BLE_SDK/GD32VW55x_RELEASE_V1.0.2/MSDK/cloud/alicloud/src/services/linkkit/dm\dm_ipc.c **** 
  71:C:/Users/stapi/OneDrive/Desktop/GD32VW553/V1_MQTT_OK/GD32VW55X_Wifi_BLE_SDK/GD32VW55x_RELEASE_V1.0.2/MSDK/cloud/alicloud/src/services/linkkit/dm\dm_ipc.c ****         //Free Node
  72:C:/Users/stapi/OneDrive/Desktop/GD32VW553/V1_MQTT_OK/GD32VW55X_Wifi_BLE_SDK/GD32VW55x_RELEASE_V1.0.2/MSDK/cloud/alicloud/src/services/linkkit/dm\dm_ipc.c ****         list_del(&del_node->linked_list);
  73:C:/Users/stapi/OneDrive/Desktop/GD32VW553/V1_MQTT_OK/GD32VW55X_Wifi_BLE_SDK/GD32VW55x_RELEASE_V1.0.2/MSDK/cloud/alicloud/src/services/linkkit/dm\dm_ipc.c ****         DM_free(del_node);
  74:C:/Users/stapi/OneDrive/Desktop/GD32VW553/V1_MQTT_OK/GD32VW55X_Wifi_BLE_SDK/GD32VW55x_RELEASE_V1.0.2/MSDK/cloud/alicloud/src/services/linkkit/dm\dm_ipc.c ****     }
  75:C:/Users/stapi/OneDrive/Desktop/GD32VW553/V1_MQTT_OK/GD32VW55X_Wifi_BLE_SDK/GD32VW55x_RELEASE_V1.0.2/MSDK/cloud/alicloud/src/services/linkkit/dm\dm_ipc.c **** }
 157              		.loc 1 75 1 is_stmt 0
 158 0034 17030000 		tail	__riscv_restore_4
 158      67000300 
 159              		.cfi_remember_state
 160              		.cfi_restore 19
 161              		.cfi_restore 18
 162              		.cfi_restore 9
 163              		.cfi_restore 8
 164              		.cfi_restore 1
 165              		.cfi_def_cfa_offset 0
 166              	.L18:
 167              		.cfi_restore_state
  64:C:/Users/stapi/OneDrive/Desktop/GD32VW553/V1_MQTT_OK/GD32VW55X_Wifi_BLE_SDK/GD32VW55x_RELEASE_V1.0.2/MSDK/cloud/alicloud/src/services/linkkit/dm\dm_ipc.c ****         if (del_msg->data) {
 168              		.loc 1 64 9 is_stmt 1
  64:C:/Users/stapi/OneDrive/Desktop/GD32VW553/V1_MQTT_OK/GD32VW55X_Wifi_BLE_SDK/GD32VW55x_RELEASE_V1.0.2/MSDK/cloud/alicloud/src/services/linkkit/dm\dm_ipc.c ****         if (del_msg->data) {
 169              		.loc 1 64 17 is_stmt 0
 170 003c 83A90400 		lw	s3,0(s1)
 171              	.LVL11:
  65:C:/Users/stapi/OneDrive/Desktop/GD32VW553/V1_MQTT_OK/GD32VW55X_Wifi_BLE_SDK/GD32VW55x_RELEASE_V1.0.2/MSDK/cloud/alicloud/src/services/linkkit/dm\dm_ipc.c ****             DM_free(del_msg->data);
 172              		.loc 1 65 9 is_stmt 1
  65:C:/Users/stapi/OneDrive/Desktop/GD32VW553/V1_MQTT_OK/GD32VW55X_Wifi_BLE_SDK/GD32VW55x_RELEASE_V1.0.2/MSDK/cloud/alicloud/src/services/linkkit/dm\dm_ipc.c ****             DM_free(del_msg->data);
 173              		.loc 1 65 20 is_stmt 0
 174 0040 03A54900 		lw	a0,4(s3)
  65:C:/Users/stapi/OneDrive/Desktop/GD32VW553/V1_MQTT_OK/GD32VW55X_Wifi_BLE_SDK/GD32VW55x_RELEASE_V1.0.2/MSDK/cloud/alicloud/src/services/linkkit/dm\dm_ipc.c ****             DM_free(del_msg->data);
 175              		.loc 1 65 12
 176 0044 19C5     		beq	a0,zero,.L17
  66:C:/Users/stapi/OneDrive/Desktop/GD32VW553/V1_MQTT_OK/GD32VW55X_Wifi_BLE_SDK/GD32VW55x_RELEASE_V1.0.2/MSDK/cloud/alicloud/src/services/linkkit/dm\dm_ipc.c ****         }
 177              		.loc 1 66 13 is_stmt 1
 178 0046 97000000 		call	LITE_free_internal
 178      E7800000 
 179              	.LVL12:
  66:C:/Users/stapi/OneDrive/Desktop/GD32VW553/V1_MQTT_OK/GD32VW55X_Wifi_BLE_SDK/GD32VW55x_RELEASE_V1.0.2/MSDK/cloud/alicloud/src/services/linkkit/dm\dm_ipc.c ****         }
 180              		.loc 1 66 13
 181 004e 23A20900 		sw	zero,4(s3)
 182              	.L17:
  66:C:/Users/stapi/OneDrive/Desktop/GD32VW553/V1_MQTT_OK/GD32VW55X_Wifi_BLE_SDK/GD32VW55x_RELEASE_V1.0.2/MSDK/cloud/alicloud/src/services/linkkit/dm\dm_ipc.c ****         }
 183              		.loc 1 66 35 discriminator 1
  68:C:/Users/stapi/OneDrive/Desktop/GD32VW553/V1_MQTT_OK/GD32VW55X_Wifi_BLE_SDK/GD32VW55x_RELEASE_V1.0.2/MSDK/cloud/alicloud/src/services/linkkit/dm\dm_ipc.c ****         del_msg = NULL;
 184              		.loc 1 68 9 discriminator 1
 185 0052 4E85     		mv	a0,s3
 186 0054 97000000 		call	LITE_free_internal
 186      E7800000 
 187              	.LVL13:
  68:C:/Users/stapi/OneDrive/Desktop/GD32VW553/V1_MQTT_OK/GD32VW55X_Wifi_BLE_SDK/GD32VW55x_RELEASE_V1.0.2/MSDK/cloud/alicloud/src/services/linkkit/dm\dm_ipc.c ****         del_msg = NULL;
 188              		.loc 1 68 9 discriminator 1
  68:C:/Users/stapi/OneDrive/Desktop/GD32VW553/V1_MQTT_OK/GD32VW55X_Wifi_BLE_SDK/GD32VW55x_RELEASE_V1.0.2/MSDK/cloud/alicloud/src/services/linkkit/dm\dm_ipc.c ****         del_msg = NULL;
 189              		.loc 1 68 25 discriminator 1
  69:C:/Users/stapi/OneDrive/Desktop/GD32VW553/V1_MQTT_OK/GD32VW55X_Wifi_BLE_SDK/GD32VW55x_RELEASE_V1.0.2/MSDK/cloud/alicloud/src/services/linkkit/dm\dm_ipc.c **** 
 190              		.loc 1 69 9 discriminator 1
  72:C:/Users/stapi/OneDrive/Desktop/GD32VW553/V1_MQTT_OK/GD32VW55X_Wifi_BLE_SDK/GD32VW55x_RELEASE_V1.0.2/MSDK/cloud/alicloud/src/services/linkkit/dm\dm_ipc.c ****         DM_free(del_node);
 191              		.loc 1 72 9 discriminator 1
 192              	.LBB32:
 193              	.LBB33:
  68:..\..\..\..\cloud\alicloud\src\infra\utils\misc/lite-list.h ****     dlist_t *next = node->next;
 194              		.loc 2 68 5 discriminator 1
  69:..\..\..\..\cloud\alicloud\src\infra\utils\misc/lite-list.h **** 
 195              		.loc 2 69 14 is_stmt 0 discriminator 1
 196 005c 9C44     		lw	a5,8(s1)
  68:..\..\..\..\cloud\alicloud\src\infra\utils\misc/lite-list.h ****     dlist_t *next = node->next;
 197              		.loc 2 68 14 discriminator 1
 198 005e D840     		lw	a4,4(s1)
 199              	.LVL14:
  69:..\..\..\..\cloud\alicloud\src\infra\utils\misc/lite-list.h **** 
 200              		.loc 2 69 5 is_stmt 1 discriminator 1
  71:..\..\..\..\cloud\alicloud\src\infra\utils\misc/lite-list.h ****     next->prev = prev;
 201              		.loc 2 71 5 discriminator 1
 202              	.LBE33:
 203              	.LBE32:
  73:C:/Users/stapi/OneDrive/Desktop/GD32VW553/V1_MQTT_OK/GD32VW55X_Wifi_BLE_SDK/GD32VW55x_RELEASE_V1.0.2/MSDK/cloud/alicloud/src/services/linkkit/dm\dm_ipc.c ****     }
 204              		.loc 1 73 9 is_stmt 0 discriminator 1
 205 0060 2685     		mv	a0,s1
  62:C:/Users/stapi/OneDrive/Desktop/GD32VW553/V1_MQTT_OK/GD32VW55X_Wifi_BLE_SDK/GD32VW55x_RELEASE_V1.0.2/MSDK/cloud/alicloud/src/services/linkkit/dm\dm_ipc.c ****         //Free Message
 206              		.loc 1 62 5 discriminator 1
 207 0062 CA84     		mv	s1,s2
 208              	.LVL15:
 209              	.LBB35:
 210              	.LBB34:
  71:..\..\..\..\cloud\alicloud\src\infra\utils\misc/lite-list.h ****     next->prev = prev;
 211              		.loc 2 71 16 discriminator 1
 212 0064 5CC3     		sw	a5,4(a4)
  72:..\..\..\..\cloud\alicloud\src\infra\utils\misc/lite-list.h **** }
 213              		.loc 2 72 5 is_stmt 1 discriminator 1
  72:..\..\..\..\cloud\alicloud\src\infra\utils\misc/lite-list.h **** }
 214              		.loc 2 72 16 is_stmt 0 discriminator 1
 215 0066 98C3     		sw	a4,0(a5)
 216              	.LVL16:
 217              	.LBE34:
 218              	.LBE35:
  73:C:/Users/stapi/OneDrive/Desktop/GD32VW553/V1_MQTT_OK/GD32VW55X_Wifi_BLE_SDK/GD32VW55x_RELEASE_V1.0.2/MSDK/cloud/alicloud/src/services/linkkit/dm\dm_ipc.c ****     }
 219              		.loc 1 73 9 is_stmt 1 discriminator 1
 220 0068 97000000 		call	LITE_free_internal
 220      E7800000 
 221              	.LVL17:
  73:C:/Users/stapi/OneDrive/Desktop/GD32VW553/V1_MQTT_OK/GD32VW55X_Wifi_BLE_SDK/GD32VW55x_RELEASE_V1.0.2/MSDK/cloud/alicloud/src/services/linkkit/dm\dm_ipc.c ****     }
 222              		.loc 1 73 9 discriminator 1
  73:C:/Users/stapi/OneDrive/Desktop/GD32VW553/V1_MQTT_OK/GD32VW55X_Wifi_BLE_SDK/GD32VW55x_RELEASE_V1.0.2/MSDK/cloud/alicloud/src/services/linkkit/dm\dm_ipc.c ****     }
 223              		.loc 1 73 26 discriminator 1
  62:C:/Users/stapi/OneDrive/Desktop/GD32VW553/V1_MQTT_OK/GD32VW55X_Wifi_BLE_SDK/GD32VW55x_RELEASE_V1.0.2/MSDK/cloud/alicloud/src/services/linkkit/dm\dm_ipc.c ****         //Free Message
 224              		.loc 1 62 5 discriminator 1
 225 0070 83278900 		lw	a5,8(s2)
 226              	.LVL18:
 227 0074 1389C7FF 		addi	s2,a5,-4
 228              	.LVL19:
 229 0078 55BF     		j	.L16
 230              		.cfi_endproc
 231              	.LFE24:
 233              		.section	.rodata.dm_ipc_msg_insert.str1.4,"aMS",@progbits,1
 234              		.align	2
 235              	.LC0:
 236 0000 646D206D 		.string	"dm msg list size: %d, max size: %d"
 236      7367206C 
 236      69737420 
 236      73697A65 
 236      3A202564 
 237 0023 00       		.align	2
 238              	.LC1:
 239 0024 444D00   		.string	"DM"
 240 0027 00       		.align	2
 241              	.LC2:
 242 0028 5B77726E 		.string	"[wrn] "
 242      5D2000
 243 002f 00       		.align	2
 244              	.LC3:
 245 0030 646D2069 		.string	"dm ipc list full"
 245      7063206C 
 245      69737420 
 245      66756C6C 
 245      00
 246 0041 000000   		.align	2
 247              	.LC4:
 248 0044 0D0A00   		.string	"\r\n"
 249              		.section	.text.dm_ipc_msg_insert,"ax",@progbits
 250              		.align	1
 251              		.globl	dm_ipc_msg_insert
 253              	dm_ipc_msg_insert:
 254              	.LFB25:
  76:C:/Users/stapi/OneDrive/Desktop/GD32VW553/V1_MQTT_OK/GD32VW55X_Wifi_BLE_SDK/GD32VW55x_RELEASE_V1.0.2/MSDK/cloud/alicloud/src/services/linkkit/dm\dm_ipc.c **** 
  77:C:/Users/stapi/OneDrive/Desktop/GD32VW553/V1_MQTT_OK/GD32VW55X_Wifi_BLE_SDK/GD32VW55x_RELEASE_V1.0.2/MSDK/cloud/alicloud/src/services/linkkit/dm\dm_ipc.c **** int dm_ipc_msg_insert(void *data)
  78:C:/Users/stapi/OneDrive/Desktop/GD32VW553/V1_MQTT_OK/GD32VW55X_Wifi_BLE_SDK/GD32VW55x_RELEASE_V1.0.2/MSDK/cloud/alicloud/src/services/linkkit/dm\dm_ipc.c **** {
 255              		.loc 1 78 1
 256              		.cfi_startproc
 257              	.LVL20:
  79:C:/Users/stapi/OneDrive/Desktop/GD32VW553/V1_MQTT_OK/GD32VW55X_Wifi_BLE_SDK/GD32VW55x_RELEASE_V1.0.2/MSDK/cloud/alicloud/src/services/linkkit/dm\dm_ipc.c ****     dm_ipc_t *ctx = _dm_ipc_get_ctx();
 258              		.loc 1 79 5
  13:C:/Users/stapi/OneDrive/Desktop/GD32VW553/V1_MQTT_OK/GD32VW55X_Wifi_BLE_SDK/GD32VW55x_RELEASE_V1.0.2/MSDK/cloud/alicloud/src/services/linkkit/dm\dm_ipc.c **** }
 259              		.loc 1 13 5
  80:C:/Users/stapi/OneDrive/Desktop/GD32VW553/V1_MQTT_OK/GD32VW55X_Wifi_BLE_SDK/GD32VW55x_RELEASE_V1.0.2/MSDK/cloud/alicloud/src/services/linkkit/dm\dm_ipc.c ****     dm_ipc_msg_node_t *node = NULL;
 260              		.loc 1 80 5
  81:C:/Users/stapi/OneDrive/Desktop/GD32VW553/V1_MQTT_OK/GD32VW55X_Wifi_BLE_SDK/GD32VW55x_RELEASE_V1.0.2/MSDK/cloud/alicloud/src/services/linkkit/dm\dm_ipc.c **** 
  82:C:/Users/stapi/OneDrive/Desktop/GD32VW553/V1_MQTT_OK/GD32VW55X_Wifi_BLE_SDK/GD32VW55x_RELEASE_V1.0.2/MSDK/cloud/alicloud/src/services/linkkit/dm\dm_ipc.c ****     if (data == NULL) {
 261              		.loc 1 82 5
 262              		.loc 1 82 8 is_stmt 0
 263 0000 7DC5     		beq	a0,zero,.L31
  78:C:/Users/stapi/OneDrive/Desktop/GD32VW553/V1_MQTT_OK/GD32VW55X_Wifi_BLE_SDK/GD32VW55x_RELEASE_V1.0.2/MSDK/cloud/alicloud/src/services/linkkit/dm\dm_ipc.c ****     dm_ipc_t *ctx = _dm_ipc_get_ctx();
 264              		.loc 1 78 1
 265 0002 17030000 		call	t0,__riscv_save_3
 265      E7020300 
 266              		.cfi_offset 18, -16
 267              		.cfi_offset 9, -12
 268              		.cfi_offset 8, -8
 269              		.cfi_offset 1, -4
 270              		.cfi_def_cfa_offset 16
 271              	.LBB44:
 272              	.LBB45:
  19:C:/Users/stapi/OneDrive/Desktop/GD32VW553/V1_MQTT_OK/GD32VW55X_Wifi_BLE_SDK/GD32VW55x_RELEASE_V1.0.2/MSDK/cloud/alicloud/src/services/linkkit/dm\dm_ipc.c ****         HAL_MutexLock(ctx->mutex);
 273              		.loc 1 19 12
 274 000a 37040000 		lui	s0,%hi(.LANCHOR0)
 275 000e 2A89     		mv	s2,a0
 276              	.LBE45:
 277              	.LBE44:
  83:C:/Users/stapi/OneDrive/Desktop/GD32VW553/V1_MQTT_OK/GD32VW55X_Wifi_BLE_SDK/GD32VW55x_RELEASE_V1.0.2/MSDK/cloud/alicloud/src/services/linkkit/dm\dm_ipc.c ****         return DM_INVALID_PARAMETER;
  84:C:/Users/stapi/OneDrive/Desktop/GD32VW553/V1_MQTT_OK/GD32VW55X_Wifi_BLE_SDK/GD32VW55x_RELEASE_V1.0.2/MSDK/cloud/alicloud/src/services/linkkit/dm\dm_ipc.c ****     }
  85:C:/Users/stapi/OneDrive/Desktop/GD32VW553/V1_MQTT_OK/GD32VW55X_Wifi_BLE_SDK/GD32VW55x_RELEASE_V1.0.2/MSDK/cloud/alicloud/src/services/linkkit/dm\dm_ipc.c **** 
  86:C:/Users/stapi/OneDrive/Desktop/GD32VW553/V1_MQTT_OK/GD32VW55X_Wifi_BLE_SDK/GD32VW55x_RELEASE_V1.0.2/MSDK/cloud/alicloud/src/services/linkkit/dm\dm_ipc.c ****     _dm_ipc_lock();
 278              		.loc 1 86 5 is_stmt 1
 279              	.LBB48:
 280              	.LBB46:
  18:C:/Users/stapi/OneDrive/Desktop/GD32VW553/V1_MQTT_OK/GD32VW55X_Wifi_BLE_SDK/GD32VW55x_RELEASE_V1.0.2/MSDK/cloud/alicloud/src/services/linkkit/dm\dm_ipc.c ****     if (ctx->mutex) {
 281              		.loc 1 18 5
 282              	.LBE46:
 283              	.LBE48:
  13:C:/Users/stapi/OneDrive/Desktop/GD32VW553/V1_MQTT_OK/GD32VW55X_Wifi_BLE_SDK/GD32VW55x_RELEASE_V1.0.2/MSDK/cloud/alicloud/src/services/linkkit/dm\dm_ipc.c **** }
 284              		.loc 1 13 5
 285              	.LVL21:
 286              	.LBB49:
 287              	.LBB47:
  19:C:/Users/stapi/OneDrive/Desktop/GD32VW553/V1_MQTT_OK/GD32VW55X_Wifi_BLE_SDK/GD32VW55x_RELEASE_V1.0.2/MSDK/cloud/alicloud/src/services/linkkit/dm\dm_ipc.c ****         HAL_MutexLock(ctx->mutex);
 288              		.loc 1 19 5
  19:C:/Users/stapi/OneDrive/Desktop/GD32VW553/V1_MQTT_OK/GD32VW55X_Wifi_BLE_SDK/GD32VW55x_RELEASE_V1.0.2/MSDK/cloud/alicloud/src/services/linkkit/dm\dm_ipc.c ****         HAL_MutexLock(ctx->mutex);
 289              		.loc 1 19 12 is_stmt 0
 290 0010 03250400 		lw	a0,%lo(.LANCHOR0)(s0)
 291              	.LVL22:
 292 0014 13040400 		addi	s0,s0,%lo(.LANCHOR0)
  19:C:/Users/stapi/OneDrive/Desktop/GD32VW553/V1_MQTT_OK/GD32VW55X_Wifi_BLE_SDK/GD32VW55x_RELEASE_V1.0.2/MSDK/cloud/alicloud/src/services/linkkit/dm\dm_ipc.c ****         HAL_MutexLock(ctx->mutex);
 293              		.loc 1 19 8
 294 0018 09C5     		beq	a0,zero,.L28
  20:C:/Users/stapi/OneDrive/Desktop/GD32VW553/V1_MQTT_OK/GD32VW55X_Wifi_BLE_SDK/GD32VW55x_RELEASE_V1.0.2/MSDK/cloud/alicloud/src/services/linkkit/dm\dm_ipc.c ****     }
 295              		.loc 1 20 9 is_stmt 1
 296 001a 97000000 		call	HAL_MutexLock
 296      E7800000 
 297              	.LVL23:
 298              	.L28:
 299              	.LBE47:
 300              	.LBE49:
  87:C:/Users/stapi/OneDrive/Desktop/GD32VW553/V1_MQTT_OK/GD32VW55X_Wifi_BLE_SDK/GD32VW55x_RELEASE_V1.0.2/MSDK/cloud/alicloud/src/services/linkkit/dm\dm_ipc.c ****     dm_log_debug("dm msg list size: %d, max size: %d", ctx->msg_list.size, ctx->msg_list.max_size);
 301              		.loc 1 87 5
 302 0022 1C44     		lw	a5,8(s0)
 303 0024 03284400 		lw	a6,4(s0)
 304 0028 37070000 		lui	a4,%hi(.LC0)
 305 002c B7050000 		lui	a1,%hi(.LANCHOR1)
 306 0030 37050000 		lui	a0,%hi(.LC1)
 307 0034 13070700 		addi	a4,a4,%lo(.LC0)
 308 0038 9546     		li	a3,5
 309 003a 13067005 		li	a2,87
 310 003e 93850500 		addi	a1,a1,%lo(.LANCHOR1)
 311 0042 13050500 		addi	a0,a0,%lo(.LC1)
 312 0046 97000000 		call	LITE_syslog
 312      E7800000 
 313              	.LVL24:
  88:C:/Users/stapi/OneDrive/Desktop/GD32VW553/V1_MQTT_OK/GD32VW55X_Wifi_BLE_SDK/GD32VW55x_RELEASE_V1.0.2/MSDK/cloud/alicloud/src/services/linkkit/dm\dm_ipc.c ****     if (ctx->msg_list.size >= ctx->msg_list.max_size) {
 314              		.loc 1 88 5
 315              		.loc 1 88 8 is_stmt 0
 316 004e 1844     		lw	a4,8(s0)
 317 0050 5C40     		lw	a5,4(s0)
 318 0052 6343F704 		blt	a4,a5,.L29
  89:C:/Users/stapi/OneDrive/Desktop/GD32VW553/V1_MQTT_OK/GD32VW55X_Wifi_BLE_SDK/GD32VW55x_RELEASE_V1.0.2/MSDK/cloud/alicloud/src/services/linkkit/dm\dm_ipc.c ****         dm_log_warning("dm ipc list full");
 319              		.loc 1 89 9 is_stmt 1
 320              		.loc 1 89 9
 321 0056 37050000 		lui	a0,%hi(.LC2)
 322 005a 13050500 		addi	a0,a0,%lo(.LC2)
 323 005e 97000000 		call	HAL_Printf
 323      E7800000 
 324              	.LVL25:
 325              		.loc 1 89 9
 326 0066 37050000 		lui	a0,%hi(.LC3)
 327 006a 13050500 		addi	a0,a0,%lo(.LC3)
 328 006e 97000000 		call	HAL_Printf
 328      E7800000 
 329              	.LVL26:
 330              		.loc 1 89 9
 331 0076 37050000 		lui	a0,%hi(.LC4)
 332 007a 13050500 		addi	a0,a0,%lo(.LC4)
 333 007e 97000000 		call	HAL_Printf
 333      E7800000 
 334              	.LVL27:
 335              		.loc 1 89 9
  90:C:/Users/stapi/OneDrive/Desktop/GD32VW553/V1_MQTT_OK/GD32VW55X_Wifi_BLE_SDK/GD32VW55x_RELEASE_V1.0.2/MSDK/cloud/alicloud/src/services/linkkit/dm\dm_ipc.c ****         _dm_ipc_unlock();
 336              		.loc 1 90 9
 337 0086 97000000 		call	_dm_ipc_unlock
 337      E7800000 
 338              	.LVL28:
  91:C:/Users/stapi/OneDrive/Desktop/GD32VW553/V1_MQTT_OK/GD32VW55X_Wifi_BLE_SDK/GD32VW55x_RELEASE_V1.0.2/MSDK/cloud/alicloud/src/services/linkkit/dm\dm_ipc.c ****         return FAIL_RETURN;
 339              		.loc 1 91 9
 340              		.loc 1 91 16 is_stmt 0
 341 008e 7D55     		li	a0,-1
 342              	.LVL29:
 343              	.L26:
  92:C:/Users/stapi/OneDrive/Desktop/GD32VW553/V1_MQTT_OK/GD32VW55X_Wifi_BLE_SDK/GD32VW55x_RELEASE_V1.0.2/MSDK/cloud/alicloud/src/services/linkkit/dm\dm_ipc.c ****     }
  93:C:/Users/stapi/OneDrive/Desktop/GD32VW553/V1_MQTT_OK/GD32VW55X_Wifi_BLE_SDK/GD32VW55x_RELEASE_V1.0.2/MSDK/cloud/alicloud/src/services/linkkit/dm\dm_ipc.c **** 
  94:C:/Users/stapi/OneDrive/Desktop/GD32VW553/V1_MQTT_OK/GD32VW55X_Wifi_BLE_SDK/GD32VW55x_RELEASE_V1.0.2/MSDK/cloud/alicloud/src/services/linkkit/dm\dm_ipc.c ****     node = DM_malloc(sizeof(dm_ipc_msg_node_t));
  95:C:/Users/stapi/OneDrive/Desktop/GD32VW553/V1_MQTT_OK/GD32VW55X_Wifi_BLE_SDK/GD32VW55x_RELEASE_V1.0.2/MSDK/cloud/alicloud/src/services/linkkit/dm\dm_ipc.c ****     if (node == NULL) {
  96:C:/Users/stapi/OneDrive/Desktop/GD32VW553/V1_MQTT_OK/GD32VW55X_Wifi_BLE_SDK/GD32VW55x_RELEASE_V1.0.2/MSDK/cloud/alicloud/src/services/linkkit/dm\dm_ipc.c ****         _dm_ipc_unlock();
  97:C:/Users/stapi/OneDrive/Desktop/GD32VW553/V1_MQTT_OK/GD32VW55X_Wifi_BLE_SDK/GD32VW55x_RELEASE_V1.0.2/MSDK/cloud/alicloud/src/services/linkkit/dm\dm_ipc.c ****         return DM_MEMORY_NOT_ENOUGH;
  98:C:/Users/stapi/OneDrive/Desktop/GD32VW553/V1_MQTT_OK/GD32VW55X_Wifi_BLE_SDK/GD32VW55x_RELEASE_V1.0.2/MSDK/cloud/alicloud/src/services/linkkit/dm\dm_ipc.c ****     }
  99:C:/Users/stapi/OneDrive/Desktop/GD32VW553/V1_MQTT_OK/GD32VW55X_Wifi_BLE_SDK/GD32VW55x_RELEASE_V1.0.2/MSDK/cloud/alicloud/src/services/linkkit/dm\dm_ipc.c ****     memset(node, 0, sizeof(dm_ipc_msg_node_t));
 100:C:/Users/stapi/OneDrive/Desktop/GD32VW553/V1_MQTT_OK/GD32VW55X_Wifi_BLE_SDK/GD32VW55x_RELEASE_V1.0.2/MSDK/cloud/alicloud/src/services/linkkit/dm\dm_ipc.c **** 
 101:C:/Users/stapi/OneDrive/Desktop/GD32VW553/V1_MQTT_OK/GD32VW55X_Wifi_BLE_SDK/GD32VW55x_RELEASE_V1.0.2/MSDK/cloud/alicloud/src/services/linkkit/dm\dm_ipc.c ****     node->data = data;
 102:C:/Users/stapi/OneDrive/Desktop/GD32VW553/V1_MQTT_OK/GD32VW55X_Wifi_BLE_SDK/GD32VW55x_RELEASE_V1.0.2/MSDK/cloud/alicloud/src/services/linkkit/dm\dm_ipc.c ****     INIT_LIST_HEAD(&node->linked_list);
 103:C:/Users/stapi/OneDrive/Desktop/GD32VW553/V1_MQTT_OK/GD32VW55X_Wifi_BLE_SDK/GD32VW55x_RELEASE_V1.0.2/MSDK/cloud/alicloud/src/services/linkkit/dm\dm_ipc.c ****     ctx->msg_list.size++;
 104:C:/Users/stapi/OneDrive/Desktop/GD32VW553/V1_MQTT_OK/GD32VW55X_Wifi_BLE_SDK/GD32VW55x_RELEASE_V1.0.2/MSDK/cloud/alicloud/src/services/linkkit/dm\dm_ipc.c ****     list_add_tail(&node->linked_list, &ctx->msg_list.message_list);
 105:C:/Users/stapi/OneDrive/Desktop/GD32VW553/V1_MQTT_OK/GD32VW55X_Wifi_BLE_SDK/GD32VW55x_RELEASE_V1.0.2/MSDK/cloud/alicloud/src/services/linkkit/dm\dm_ipc.c **** 
 106:C:/Users/stapi/OneDrive/Desktop/GD32VW553/V1_MQTT_OK/GD32VW55X_Wifi_BLE_SDK/GD32VW55x_RELEASE_V1.0.2/MSDK/cloud/alicloud/src/services/linkkit/dm\dm_ipc.c ****     _dm_ipc_unlock();
 107:C:/Users/stapi/OneDrive/Desktop/GD32VW553/V1_MQTT_OK/GD32VW55X_Wifi_BLE_SDK/GD32VW55x_RELEASE_V1.0.2/MSDK/cloud/alicloud/src/services/linkkit/dm\dm_ipc.c ****     return SUCCESS_RETURN;
 108:C:/Users/stapi/OneDrive/Desktop/GD32VW553/V1_MQTT_OK/GD32VW55X_Wifi_BLE_SDK/GD32VW55x_RELEASE_V1.0.2/MSDK/cloud/alicloud/src/services/linkkit/dm\dm_ipc.c **** }
 344              		.loc 1 108 1
 345 0090 17030000 		tail	__riscv_restore_3
 345      67000300 
 346              		.cfi_remember_state
 347              		.cfi_restore 18
 348              		.cfi_restore 9
 349              		.cfi_restore 8
 350              		.cfi_restore 1
 351              		.cfi_def_cfa_offset 0
 352              	.LVL30:
 353              	.L29:
 354              		.cfi_restore_state
  94:C:/Users/stapi/OneDrive/Desktop/GD32VW553/V1_MQTT_OK/GD32VW55X_Wifi_BLE_SDK/GD32VW55x_RELEASE_V1.0.2/MSDK/cloud/alicloud/src/services/linkkit/dm\dm_ipc.c ****     if (node == NULL) {
 355              		.loc 1 94 5 is_stmt 1
  94:C:/Users/stapi/OneDrive/Desktop/GD32VW553/V1_MQTT_OK/GD32VW55X_Wifi_BLE_SDK/GD32VW55x_RELEASE_V1.0.2/MSDK/cloud/alicloud/src/services/linkkit/dm\dm_ipc.c ****     if (node == NULL) {
 356              		.loc 1 94 12 is_stmt 0
 357 0098 3146     		li	a2,12
 358 009a 8145     		li	a1,0
 359 009c 0145     		li	a0,0
 360 009e 97000000 		call	LITE_malloc_internal
 360      E7800000 
 361              	.LVL31:
 362 00a6 AA84     		mv	s1,a0
 363              	.LVL32:
  95:C:/Users/stapi/OneDrive/Desktop/GD32VW553/V1_MQTT_OK/GD32VW55X_Wifi_BLE_SDK/GD32VW55x_RELEASE_V1.0.2/MSDK/cloud/alicloud/src/services/linkkit/dm\dm_ipc.c ****         _dm_ipc_unlock();
 364              		.loc 1 95 5 is_stmt 1
  95:C:/Users/stapi/OneDrive/Desktop/GD32VW553/V1_MQTT_OK/GD32VW55X_Wifi_BLE_SDK/GD32VW55x_RELEASE_V1.0.2/MSDK/cloud/alicloud/src/services/linkkit/dm\dm_ipc.c ****         _dm_ipc_unlock();
 365              		.loc 1 95 8 is_stmt 0
 366 00a8 19E5     		bne	a0,zero,.L30
  96:C:/Users/stapi/OneDrive/Desktop/GD32VW553/V1_MQTT_OK/GD32VW55X_Wifi_BLE_SDK/GD32VW55x_RELEASE_V1.0.2/MSDK/cloud/alicloud/src/services/linkkit/dm\dm_ipc.c ****         return DM_MEMORY_NOT_ENOUGH;
 367              		.loc 1 96 9 is_stmt 1
 368 00aa 97000000 		call	_dm_ipc_unlock
 368      E7800000 
 369              	.LVL33:
  97:C:/Users/stapi/OneDrive/Desktop/GD32VW553/V1_MQTT_OK/GD32VW55X_Wifi_BLE_SDK/GD32VW55x_RELEASE_V1.0.2/MSDK/cloud/alicloud/src/services/linkkit/dm\dm_ipc.c ****     }
 370              		.loc 1 97 9
  97:C:/Users/stapi/OneDrive/Desktop/GD32VW553/V1_MQTT_OK/GD32VW55X_Wifi_BLE_SDK/GD32VW55x_RELEASE_V1.0.2/MSDK/cloud/alicloud/src/services/linkkit/dm\dm_ipc.c ****     }
 371              		.loc 1 97 16 is_stmt 0
 372 00b2 7555     		li	a0,-3
 373 00b4 F1BF     		j	.L26
 374              	.L30:
  99:C:/Users/stapi/OneDrive/Desktop/GD32VW553/V1_MQTT_OK/GD32VW55X_Wifi_BLE_SDK/GD32VW55x_RELEASE_V1.0.2/MSDK/cloud/alicloud/src/services/linkkit/dm\dm_ipc.c **** 
 375              		.loc 1 99 5 is_stmt 1
 376 00b6 93074500 		addi	a5,a0,4
 377 00ba 2146     		li	a2,8
 378 00bc 8145     		li	a1,0
 379 00be 3E85     		mv	a0,a5
 380 00c0 97000000 		call	memset
 380      E7800000 
 381              	.LVL34:
 101:C:/Users/stapi/OneDrive/Desktop/GD32VW553/V1_MQTT_OK/GD32VW55X_Wifi_BLE_SDK/GD32VW55x_RELEASE_V1.0.2/MSDK/cloud/alicloud/src/services/linkkit/dm\dm_ipc.c ****     INIT_LIST_HEAD(&node->linked_list);
 382              		.loc 1 101 5
 103:C:/Users/stapi/OneDrive/Desktop/GD32VW553/V1_MQTT_OK/GD32VW55X_Wifi_BLE_SDK/GD32VW55x_RELEASE_V1.0.2/MSDK/cloud/alicloud/src/services/linkkit/dm\dm_ipc.c ****     list_add_tail(&node->linked_list, &ctx->msg_list.message_list);
 383              		.loc 1 103 23 is_stmt 0
 384 00c8 1844     		lw	a4,8(s0)
 385              	.LBB50:
 386              	.LBB51:
 387              		.loc 2 83 16
 388 00ca C8C0     		sw	a0,4(s1)
 389              	.LBE51:
 390              	.LBE50:
 101:C:/Users/stapi/OneDrive/Desktop/GD32VW553/V1_MQTT_OK/GD32VW55X_Wifi_BLE_SDK/GD32VW55x_RELEASE_V1.0.2/MSDK/cloud/alicloud/src/services/linkkit/dm\dm_ipc.c ****     INIT_LIST_HEAD(&node->linked_list);
 391              		.loc 1 101 16
 392 00cc 23A02401 		sw	s2,0(s1)
 102:C:/Users/stapi/OneDrive/Desktop/GD32VW553/V1_MQTT_OK/GD32VW55X_Wifi_BLE_SDK/GD32VW55x_RELEASE_V1.0.2/MSDK/cloud/alicloud/src/services/linkkit/dm\dm_ipc.c ****     ctx->msg_list.size++;
 393              		.loc 1 102 5 is_stmt 1
 394              	.LVL35:
 395              	.LBB53:
 396              	.LBB52:
  82:..\..\..\..\cloud\alicloud\src\infra\utils\misc/lite-list.h ****     list->prev = list;
 397              		.loc 2 82 5
 398              		.loc 2 83 5
 399              	.LBE52:
 400              	.LBE53:
 103:C:/Users/stapi/OneDrive/Desktop/GD32VW553/V1_MQTT_OK/GD32VW55X_Wifi_BLE_SDK/GD32VW55x_RELEASE_V1.0.2/MSDK/cloud/alicloud/src/services/linkkit/dm\dm_ipc.c ****     list_add_tail(&node->linked_list, &ctx->msg_list.message_list);
 401              		.loc 1 103 5
 103:C:/Users/stapi/OneDrive/Desktop/GD32VW553/V1_MQTT_OK/GD32VW55X_Wifi_BLE_SDK/GD32VW55x_RELEASE_V1.0.2/MSDK/cloud/alicloud/src/services/linkkit/dm\dm_ipc.c ****     list_add_tail(&node->linked_list, &ctx->msg_list.message_list);
 402              		.loc 1 103 23 is_stmt 0
 403 00d0 0507     		addi	a4,a4,1
 404 00d2 18C4     		sw	a4,8(s0)
 104:C:/Users/stapi/OneDrive/Desktop/GD32VW553/V1_MQTT_OK/GD32VW55X_Wifi_BLE_SDK/GD32VW55x_RELEASE_V1.0.2/MSDK/cloud/alicloud/src/services/linkkit/dm\dm_ipc.c **** 
 405              		.loc 1 104 5 is_stmt 1
 406              	.LVL36:
 407              	.LBB54:
 408              	.LBB55:
  63:..\..\..\..\cloud\alicloud\src\infra\utils\misc/lite-list.h **** }
 409              		.loc 2 63 5
  63:..\..\..\..\cloud\alicloud\src\infra\utils\misc/lite-list.h **** }
 410              		.loc 2 63 28 is_stmt 0
 411 00d4 5844     		lw	a4,12(s0)
 412              	.LVL37:
 413              	.LBB56:
 414              	.LBB57:
  38:..\..\..\..\cloud\alicloud\src\infra\utils\misc/lite-list.h ****     node->prev = prev;
 415              		.loc 2 38 5 is_stmt 1
  38:..\..\..\..\cloud\alicloud\src\infra\utils\misc/lite-list.h ****     node->prev = prev;
 416              		.loc 2 38 16 is_stmt 0
 417 00d6 9306C400 		addi	a3,s0,12
 418 00da 94C4     		sw	a3,8(s1)
  39:..\..\..\..\cloud\alicloud\src\infra\utils\misc/lite-list.h **** 
 419              		.loc 2 39 5 is_stmt 1
  39:..\..\..\..\cloud\alicloud\src\infra\utils\misc/lite-list.h **** 
 420              		.loc 2 39 16 is_stmt 0
 421 00dc D8C0     		sw	a4,4(s1)
  41:..\..\..\..\cloud\alicloud\src\infra\utils\misc/lite-list.h ****     next->prev = node;
 422              		.loc 2 41 5 is_stmt 1
  41:..\..\..\..\cloud\alicloud\src\infra\utils\misc/lite-list.h ****     next->prev = node;
 423              		.loc 2 41 16 is_stmt 0
 424 00de 48C3     		sw	a0,4(a4)
  42:..\..\..\..\cloud\alicloud\src\infra\utils\misc/lite-list.h **** }
 425              		.loc 2 42 5 is_stmt 1
  42:..\..\..\..\cloud\alicloud\src\infra\utils\misc/lite-list.h **** }
 426              		.loc 2 42 16 is_stmt 0
 427 00e0 48C4     		sw	a0,12(s0)
 428              	.LVL38:
 429              	.LBE57:
 430              	.LBE56:
 431              	.LBE55:
 432              	.LBE54:
 106:C:/Users/stapi/OneDrive/Desktop/GD32VW553/V1_MQTT_OK/GD32VW55X_Wifi_BLE_SDK/GD32VW55x_RELEASE_V1.0.2/MSDK/cloud/alicloud/src/services/linkkit/dm\dm_ipc.c ****     return SUCCESS_RETURN;
 433              		.loc 1 106 5 is_stmt 1
 434 00e2 97000000 		call	_dm_ipc_unlock
 434      E7800000 
 435              	.LVL39:
 107:C:/Users/stapi/OneDrive/Desktop/GD32VW553/V1_MQTT_OK/GD32VW55X_Wifi_BLE_SDK/GD32VW55x_RELEASE_V1.0.2/MSDK/cloud/alicloud/src/services/linkkit/dm\dm_ipc.c **** }
 436              		.loc 1 107 5
 107:C:/Users/stapi/OneDrive/Desktop/GD32VW553/V1_MQTT_OK/GD32VW55X_Wifi_BLE_SDK/GD32VW55x_RELEASE_V1.0.2/MSDK/cloud/alicloud/src/services/linkkit/dm\dm_ipc.c **** }
 437              		.loc 1 107 12 is_stmt 0
 438 00ea 0145     		li	a0,0
 439 00ec 55B7     		j	.L26
 440              	.LVL40:
 441              	.L31:
 442              		.cfi_def_cfa_offset 0
 443              		.cfi_restore 1
 444              		.cfi_restore 8
 445              		.cfi_restore 9
 446              		.cfi_restore 18
  83:C:/Users/stapi/OneDrive/Desktop/GD32VW553/V1_MQTT_OK/GD32VW55X_Wifi_BLE_SDK/GD32VW55x_RELEASE_V1.0.2/MSDK/cloud/alicloud/src/services/linkkit/dm\dm_ipc.c ****     }
 447              		.loc 1 83 16
 448 00ee 7955     		li	a0,-2
 449              	.LVL41:
 450              		.loc 1 108 1
 451 00f0 8280     		ret
 452              		.cfi_endproc
 453              	.LFE25:
 455              		.section	.text.dm_ipc_msg_next,"ax",@progbits
 456              		.align	1
 457              		.globl	dm_ipc_msg_next
 459              	dm_ipc_msg_next:
 460              	.LFB26:
 109:C:/Users/stapi/OneDrive/Desktop/GD32VW553/V1_MQTT_OK/GD32VW55X_Wifi_BLE_SDK/GD32VW55x_RELEASE_V1.0.2/MSDK/cloud/alicloud/src/services/linkkit/dm\dm_ipc.c **** 
 110:C:/Users/stapi/OneDrive/Desktop/GD32VW553/V1_MQTT_OK/GD32VW55X_Wifi_BLE_SDK/GD32VW55x_RELEASE_V1.0.2/MSDK/cloud/alicloud/src/services/linkkit/dm\dm_ipc.c **** int dm_ipc_msg_next(void **data)
 111:C:/Users/stapi/OneDrive/Desktop/GD32VW553/V1_MQTT_OK/GD32VW55X_Wifi_BLE_SDK/GD32VW55x_RELEASE_V1.0.2/MSDK/cloud/alicloud/src/services/linkkit/dm\dm_ipc.c **** {
 461              		.loc 1 111 1 is_stmt 1
 462              		.cfi_startproc
 463              	.LVL42:
 112:C:/Users/stapi/OneDrive/Desktop/GD32VW553/V1_MQTT_OK/GD32VW55X_Wifi_BLE_SDK/GD32VW55x_RELEASE_V1.0.2/MSDK/cloud/alicloud/src/services/linkkit/dm\dm_ipc.c ****     dm_ipc_t *ctx = _dm_ipc_get_ctx();
 464              		.loc 1 112 5
  13:C:/Users/stapi/OneDrive/Desktop/GD32VW553/V1_MQTT_OK/GD32VW55X_Wifi_BLE_SDK/GD32VW55x_RELEASE_V1.0.2/MSDK/cloud/alicloud/src/services/linkkit/dm\dm_ipc.c **** }
 465              		.loc 1 13 5
 113:C:/Users/stapi/OneDrive/Desktop/GD32VW553/V1_MQTT_OK/GD32VW55X_Wifi_BLE_SDK/GD32VW55x_RELEASE_V1.0.2/MSDK/cloud/alicloud/src/services/linkkit/dm\dm_ipc.c **** 
 114:C:/Users/stapi/OneDrive/Desktop/GD32VW553/V1_MQTT_OK/GD32VW55X_Wifi_BLE_SDK/GD32VW55x_RELEASE_V1.0.2/MSDK/cloud/alicloud/src/services/linkkit/dm\dm_ipc.c ****     if (data == NULL || *data != NULL) {
 466              		.loc 1 114 5
 467              		.loc 1 114 8 is_stmt 0
 468 0000 25C9     		beq	a0,zero,.L43
 111:C:/Users/stapi/OneDrive/Desktop/GD32VW553/V1_MQTT_OK/GD32VW55X_Wifi_BLE_SDK/GD32VW55x_RELEASE_V1.0.2/MSDK/cloud/alicloud/src/services/linkkit/dm\dm_ipc.c ****     dm_ipc_t *ctx = _dm_ipc_get_ctx();
 469              		.loc 1 111 1 discriminator 1
 470 0002 17030000 		call	t0,__riscv_save_2
 470      E7020300 
 471              		.cfi_offset 9, -12
 472              		.cfi_offset 8, -8
 473              		.cfi_offset 1, -4
 474              		.cfi_def_cfa_offset 16
 475              		.loc 1 114 22 discriminator 1
 476 000a 1C41     		lw	a5,0(a0)
 477 000c AA84     		mv	s1,a0
 115:C:/Users/stapi/OneDrive/Desktop/GD32VW553/V1_MQTT_OK/GD32VW55X_Wifi_BLE_SDK/GD32VW55x_RELEASE_V1.0.2/MSDK/cloud/alicloud/src/services/linkkit/dm\dm_ipc.c ****         return DM_INVALID_PARAMETER;
 478              		.loc 1 115 16 discriminator 1
 479 000e 7955     		li	a0,-2
 480              	.LVL43:
 114:C:/Users/stapi/OneDrive/Desktop/GD32VW553/V1_MQTT_OK/GD32VW55X_Wifi_BLE_SDK/GD32VW55x_RELEASE_V1.0.2/MSDK/cloud/alicloud/src/services/linkkit/dm\dm_ipc.c ****         return DM_INVALID_PARAMETER;
 481              		.loc 1 114 22 discriminator 1
 482 0010 95E7     		bne	a5,zero,.L39
 116:C:/Users/stapi/OneDrive/Desktop/GD32VW553/V1_MQTT_OK/GD32VW55X_Wifi_BLE_SDK/GD32VW55x_RELEASE_V1.0.2/MSDK/cloud/alicloud/src/services/linkkit/dm\dm_ipc.c ****     }
 117:C:/Users/stapi/OneDrive/Desktop/GD32VW553/V1_MQTT_OK/GD32VW55X_Wifi_BLE_SDK/GD32VW55x_RELEASE_V1.0.2/MSDK/cloud/alicloud/src/services/linkkit/dm\dm_ipc.c **** 
 118:C:/Users/stapi/OneDrive/Desktop/GD32VW553/V1_MQTT_OK/GD32VW55X_Wifi_BLE_SDK/GD32VW55x_RELEASE_V1.0.2/MSDK/cloud/alicloud/src/services/linkkit/dm\dm_ipc.c ****     _dm_ipc_lock();
 483              		.loc 1 118 5 is_stmt 1
 484              	.LBB64:
 485              	.LBB65:
  18:C:/Users/stapi/OneDrive/Desktop/GD32VW553/V1_MQTT_OK/GD32VW55X_Wifi_BLE_SDK/GD32VW55x_RELEASE_V1.0.2/MSDK/cloud/alicloud/src/services/linkkit/dm\dm_ipc.c ****     if (ctx->mutex) {
 486              		.loc 1 18 5
 487              	.LBE65:
 488              	.LBE64:
  13:C:/Users/stapi/OneDrive/Desktop/GD32VW553/V1_MQTT_OK/GD32VW55X_Wifi_BLE_SDK/GD32VW55x_RELEASE_V1.0.2/MSDK/cloud/alicloud/src/services/linkkit/dm\dm_ipc.c **** }
 489              		.loc 1 13 5
 490              	.LVL44:
 491              	.LBB67:
 492              	.LBB66:
  19:C:/Users/stapi/OneDrive/Desktop/GD32VW553/V1_MQTT_OK/GD32VW55X_Wifi_BLE_SDK/GD32VW55x_RELEASE_V1.0.2/MSDK/cloud/alicloud/src/services/linkkit/dm\dm_ipc.c ****         HAL_MutexLock(ctx->mutex);
 493              		.loc 1 19 5
  19:C:/Users/stapi/OneDrive/Desktop/GD32VW553/V1_MQTT_OK/GD32VW55X_Wifi_BLE_SDK/GD32VW55x_RELEASE_V1.0.2/MSDK/cloud/alicloud/src/services/linkkit/dm\dm_ipc.c ****         HAL_MutexLock(ctx->mutex);
 494              		.loc 1 19 12 is_stmt 0
 495 0012 37040000 		lui	s0,%hi(.LANCHOR0)
 496 0016 03250400 		lw	a0,%lo(.LANCHOR0)(s0)
 497 001a 13040400 		addi	s0,s0,%lo(.LANCHOR0)
  19:C:/Users/stapi/OneDrive/Desktop/GD32VW553/V1_MQTT_OK/GD32VW55X_Wifi_BLE_SDK/GD32VW55x_RELEASE_V1.0.2/MSDK/cloud/alicloud/src/services/linkkit/dm\dm_ipc.c ****         HAL_MutexLock(ctx->mutex);
 498              		.loc 1 19 8
 499 001e 09C5     		beq	a0,zero,.L41
  20:C:/Users/stapi/OneDrive/Desktop/GD32VW553/V1_MQTT_OK/GD32VW55X_Wifi_BLE_SDK/GD32VW55x_RELEASE_V1.0.2/MSDK/cloud/alicloud/src/services/linkkit/dm\dm_ipc.c ****     }
 500              		.loc 1 20 9 is_stmt 1
 501 0020 97000000 		call	HAL_MutexLock
 501      E7800000 
 502              	.LVL45:
 503              	.L41:
 504              	.LBE66:
 505              	.LBE67:
 119:C:/Users/stapi/OneDrive/Desktop/GD32VW553/V1_MQTT_OK/GD32VW55X_Wifi_BLE_SDK/GD32VW55x_RELEASE_V1.0.2/MSDK/cloud/alicloud/src/services/linkkit/dm\dm_ipc.c **** 
 120:C:/Users/stapi/OneDrive/Desktop/GD32VW553/V1_MQTT_OK/GD32VW55X_Wifi_BLE_SDK/GD32VW55x_RELEASE_V1.0.2/MSDK/cloud/alicloud/src/services/linkkit/dm\dm_ipc.c ****     if (list_empty(&ctx->msg_list.message_list)) {
 506              		.loc 1 120 5
 507              	.LBB68:
 508              	.LBB69:
  84:..\..\..\..\cloud\alicloud\src\infra\utils\misc/lite-list.h **** }
  85:..\..\..\..\cloud\alicloud\src\infra\utils\misc/lite-list.h **** 
  86:..\..\..\..\cloud\alicloud\src\infra\utils\misc/lite-list.h **** static inline int dlist_empty(const dlist_t *head)
  87:..\..\..\..\cloud\alicloud\src\infra\utils\misc/lite-list.h **** {
  88:..\..\..\..\cloud\alicloud\src\infra\utils\misc/lite-list.h ****     return head->next == head;
 509              		.loc 2 88 5
 510              		.loc 2 88 16 is_stmt 0
 511 0028 1C48     		lw	a5,16(s0)
 512              	.LVL46:
 513              	.LBE69:
 514              	.LBE68:
 515              		.loc 1 120 8
 516 002a 1307C400 		addi	a4,s0,12
 517 002e 639BE700 		bne	a5,a4,.L42
 121:C:/Users/stapi/OneDrive/Desktop/GD32VW553/V1_MQTT_OK/GD32VW55X_Wifi_BLE_SDK/GD32VW55x_RELEASE_V1.0.2/MSDK/cloud/alicloud/src/services/linkkit/dm\dm_ipc.c ****         _dm_ipc_unlock();
 518              		.loc 1 121 9 is_stmt 1
 519 0032 97000000 		call	_dm_ipc_unlock
 519      E7800000 
 520              	.LVL47:
 122:C:/Users/stapi/OneDrive/Desktop/GD32VW553/V1_MQTT_OK/GD32VW55X_Wifi_BLE_SDK/GD32VW55x_RELEASE_V1.0.2/MSDK/cloud/alicloud/src/services/linkkit/dm\dm_ipc.c ****         return FAIL_RETURN;
 521              		.loc 1 122 9
 522              		.loc 1 122 16 is_stmt 0
 523 003a 7D55     		li	a0,-1
 524              	.LVL48:
 525              	.L39:
 123:C:/Users/stapi/OneDrive/Desktop/GD32VW553/V1_MQTT_OK/GD32VW55X_Wifi_BLE_SDK/GD32VW55x_RELEASE_V1.0.2/MSDK/cloud/alicloud/src/services/linkkit/dm\dm_ipc.c ****     }
 124:C:/Users/stapi/OneDrive/Desktop/GD32VW553/V1_MQTT_OK/GD32VW55X_Wifi_BLE_SDK/GD32VW55x_RELEASE_V1.0.2/MSDK/cloud/alicloud/src/services/linkkit/dm\dm_ipc.c **** 
 125:C:/Users/stapi/OneDrive/Desktop/GD32VW553/V1_MQTT_OK/GD32VW55X_Wifi_BLE_SDK/GD32VW55x_RELEASE_V1.0.2/MSDK/cloud/alicloud/src/services/linkkit/dm\dm_ipc.c ****     dm_ipc_msg_node_t *node = list_first_entry(&ctx->msg_list.message_list, dm_ipc_msg_node_t, link
 126:C:/Users/stapi/OneDrive/Desktop/GD32VW553/V1_MQTT_OK/GD32VW55X_Wifi_BLE_SDK/GD32VW55x_RELEASE_V1.0.2/MSDK/cloud/alicloud/src/services/linkkit/dm\dm_ipc.c ****     list_del(&node->linked_list);
 127:C:/Users/stapi/OneDrive/Desktop/GD32VW553/V1_MQTT_OK/GD32VW55X_Wifi_BLE_SDK/GD32VW55x_RELEASE_V1.0.2/MSDK/cloud/alicloud/src/services/linkkit/dm\dm_ipc.c ****     ctx->msg_list.size--;
 128:C:/Users/stapi/OneDrive/Desktop/GD32VW553/V1_MQTT_OK/GD32VW55X_Wifi_BLE_SDK/GD32VW55x_RELEASE_V1.0.2/MSDK/cloud/alicloud/src/services/linkkit/dm\dm_ipc.c **** 
 129:C:/Users/stapi/OneDrive/Desktop/GD32VW553/V1_MQTT_OK/GD32VW55X_Wifi_BLE_SDK/GD32VW55x_RELEASE_V1.0.2/MSDK/cloud/alicloud/src/services/linkkit/dm\dm_ipc.c ****     *data = node->data;
 130:C:/Users/stapi/OneDrive/Desktop/GD32VW553/V1_MQTT_OK/GD32VW55X_Wifi_BLE_SDK/GD32VW55x_RELEASE_V1.0.2/MSDK/cloud/alicloud/src/services/linkkit/dm\dm_ipc.c ****     DM_free(node);
 131:C:/Users/stapi/OneDrive/Desktop/GD32VW553/V1_MQTT_OK/GD32VW55X_Wifi_BLE_SDK/GD32VW55x_RELEASE_V1.0.2/MSDK/cloud/alicloud/src/services/linkkit/dm\dm_ipc.c **** 
 132:C:/Users/stapi/OneDrive/Desktop/GD32VW553/V1_MQTT_OK/GD32VW55X_Wifi_BLE_SDK/GD32VW55x_RELEASE_V1.0.2/MSDK/cloud/alicloud/src/services/linkkit/dm\dm_ipc.c ****     _dm_ipc_unlock();
 133:C:/Users/stapi/OneDrive/Desktop/GD32VW553/V1_MQTT_OK/GD32VW55X_Wifi_BLE_SDK/GD32VW55x_RELEASE_V1.0.2/MSDK/cloud/alicloud/src/services/linkkit/dm\dm_ipc.c ****     return SUCCESS_RETURN;
 134:C:/Users/stapi/OneDrive/Desktop/GD32VW553/V1_MQTT_OK/GD32VW55X_Wifi_BLE_SDK/GD32VW55x_RELEASE_V1.0.2/MSDK/cloud/alicloud/src/services/linkkit/dm\dm_ipc.c **** }
 526              		.loc 1 134 1
 527 003c 17030000 		tail	__riscv_restore_2
 527      67000300 
 528              		.cfi_remember_state
 529              		.cfi_restore 9
 530              		.cfi_restore 8
 531              		.cfi_restore 1
 532              		.cfi_def_cfa_offset 0
 533              	.LVL49:
 534              	.L42:
 535              		.cfi_restore_state
 125:C:/Users/stapi/OneDrive/Desktop/GD32VW553/V1_MQTT_OK/GD32VW55X_Wifi_BLE_SDK/GD32VW55x_RELEASE_V1.0.2/MSDK/cloud/alicloud/src/services/linkkit/dm\dm_ipc.c ****     list_del(&node->linked_list);
 536              		.loc 1 125 5 is_stmt 1
 537              	.LBB70:
 538              	.LBB71:
  69:..\..\..\..\cloud\alicloud\src\infra\utils\misc/lite-list.h **** 
 539              		.loc 2 69 14 is_stmt 0
 540 0044 D843     		lw	a4,4(a5)
  68:..\..\..\..\cloud\alicloud\src\infra\utils\misc/lite-list.h ****     dlist_t *next = node->next;
 541              		.loc 2 68 14
 542 0046 9443     		lw	a3,0(a5)
 543              	.LBE71:
 544              	.LBE70:
 125:C:/Users/stapi/OneDrive/Desktop/GD32VW553/V1_MQTT_OK/GD32VW55X_Wifi_BLE_SDK/GD32VW55x_RELEASE_V1.0.2/MSDK/cloud/alicloud/src/services/linkkit/dm\dm_ipc.c ****     list_del(&node->linked_list);
 545              		.loc 1 125 31
 546 0048 1385C7FF 		addi	a0,a5,-4
 547              	.LVL50:
 126:C:/Users/stapi/OneDrive/Desktop/GD32VW553/V1_MQTT_OK/GD32VW55X_Wifi_BLE_SDK/GD32VW55x_RELEASE_V1.0.2/MSDK/cloud/alicloud/src/services/linkkit/dm\dm_ipc.c ****     ctx->msg_list.size--;
 548              		.loc 1 126 5 is_stmt 1
 549              	.LBB74:
 550              	.LBB72:
  68:..\..\..\..\cloud\alicloud\src\infra\utils\misc/lite-list.h ****     dlist_t *next = node->next;
 551              		.loc 2 68 5
  69:..\..\..\..\cloud\alicloud\src\infra\utils\misc/lite-list.h **** 
 552              		.loc 2 69 5
  71:..\..\..\..\cloud\alicloud\src\infra\utils\misc/lite-list.h ****     next->prev = prev;
 553              		.loc 2 71 5
 554              	.LBE72:
 555              	.LBE74:
 129:C:/Users/stapi/OneDrive/Desktop/GD32VW553/V1_MQTT_OK/GD32VW55X_Wifi_BLE_SDK/GD32VW55x_RELEASE_V1.0.2/MSDK/cloud/alicloud/src/services/linkkit/dm\dm_ipc.c ****     DM_free(node);
 556              		.loc 1 129 17 is_stmt 0
 557 004c 83A7C7FF 		lw	a5,-4(a5)
 558              	.LVL51:
 559              	.LBB75:
 560              	.LBB73:
  71:..\..\..\..\cloud\alicloud\src\infra\utils\misc/lite-list.h ****     next->prev = prev;
 561              		.loc 2 71 16
 562 0050 D8C2     		sw	a4,4(a3)
 563              	.LVL52:
  72:..\..\..\..\cloud\alicloud\src\infra\utils\misc/lite-list.h **** }
 564              		.loc 2 72 5 is_stmt 1
  72:..\..\..\..\cloud\alicloud\src\infra\utils\misc/lite-list.h **** }
 565              		.loc 2 72 16 is_stmt 0
 566 0052 14C3     		sw	a3,0(a4)
 567              	.LVL53:
 568              	.LBE73:
 569              	.LBE75:
 127:C:/Users/stapi/OneDrive/Desktop/GD32VW553/V1_MQTT_OK/GD32VW55X_Wifi_BLE_SDK/GD32VW55x_RELEASE_V1.0.2/MSDK/cloud/alicloud/src/services/linkkit/dm\dm_ipc.c **** 
 570              		.loc 1 127 5 is_stmt 1
 127:C:/Users/stapi/OneDrive/Desktop/GD32VW553/V1_MQTT_OK/GD32VW55X_Wifi_BLE_SDK/GD32VW55x_RELEASE_V1.0.2/MSDK/cloud/alicloud/src/services/linkkit/dm\dm_ipc.c **** 
 571              		.loc 1 127 23 is_stmt 0
 572 0054 1844     		lw	a4,8(s0)
 573 0056 7D17     		addi	a4,a4,-1
 574 0058 18C4     		sw	a4,8(s0)
 129:C:/Users/stapi/OneDrive/Desktop/GD32VW553/V1_MQTT_OK/GD32VW55X_Wifi_BLE_SDK/GD32VW55x_RELEASE_V1.0.2/MSDK/cloud/alicloud/src/services/linkkit/dm\dm_ipc.c ****     DM_free(node);
 575              		.loc 1 129 5 is_stmt 1
 129:C:/Users/stapi/OneDrive/Desktop/GD32VW553/V1_MQTT_OK/GD32VW55X_Wifi_BLE_SDK/GD32VW55x_RELEASE_V1.0.2/MSDK/cloud/alicloud/src/services/linkkit/dm\dm_ipc.c ****     DM_free(node);
 576              		.loc 1 129 11 is_stmt 0
 577 005a 9CC0     		sw	a5,0(s1)
 130:C:/Users/stapi/OneDrive/Desktop/GD32VW553/V1_MQTT_OK/GD32VW55X_Wifi_BLE_SDK/GD32VW55x_RELEASE_V1.0.2/MSDK/cloud/alicloud/src/services/linkkit/dm\dm_ipc.c **** 
 578              		.loc 1 130 5 is_stmt 1
 579 005c 97000000 		call	LITE_free_internal
 579      E7800000 
 580              	.LVL54:
 130:C:/Users/stapi/OneDrive/Desktop/GD32VW553/V1_MQTT_OK/GD32VW55X_Wifi_BLE_SDK/GD32VW55x_RELEASE_V1.0.2/MSDK/cloud/alicloud/src/services/linkkit/dm\dm_ipc.c **** 
 581              		.loc 1 130 5
 130:C:/Users/stapi/OneDrive/Desktop/GD32VW553/V1_MQTT_OK/GD32VW55X_Wifi_BLE_SDK/GD32VW55x_RELEASE_V1.0.2/MSDK/cloud/alicloud/src/services/linkkit/dm\dm_ipc.c **** 
 582              		.loc 1 130 18
 132:C:/Users/stapi/OneDrive/Desktop/GD32VW553/V1_MQTT_OK/GD32VW55X_Wifi_BLE_SDK/GD32VW55x_RELEASE_V1.0.2/MSDK/cloud/alicloud/src/services/linkkit/dm\dm_ipc.c ****     return SUCCESS_RETURN;
 583              		.loc 1 132 5
 584 0064 97000000 		call	_dm_ipc_unlock
 584      E7800000 
 585              	.LVL55:
 133:C:/Users/stapi/OneDrive/Desktop/GD32VW553/V1_MQTT_OK/GD32VW55X_Wifi_BLE_SDK/GD32VW55x_RELEASE_V1.0.2/MSDK/cloud/alicloud/src/services/linkkit/dm\dm_ipc.c **** }
 586              		.loc 1 133 5
 133:C:/Users/stapi/OneDrive/Desktop/GD32VW553/V1_MQTT_OK/GD32VW55X_Wifi_BLE_SDK/GD32VW55x_RELEASE_V1.0.2/MSDK/cloud/alicloud/src/services/linkkit/dm\dm_ipc.c **** }
 587              		.loc 1 133 12 is_stmt 0
 588 006c 0145     		li	a0,0
 589 006e F9B7     		j	.L39
 590              	.LVL56:
 591              	.L43:
 592              		.cfi_def_cfa_offset 0
 593              		.cfi_restore 1
 594              		.cfi_restore 8
 595              		.cfi_restore 9
 115:C:/Users/stapi/OneDrive/Desktop/GD32VW553/V1_MQTT_OK/GD32VW55X_Wifi_BLE_SDK/GD32VW55x_RELEASE_V1.0.2/MSDK/cloud/alicloud/src/services/linkkit/dm\dm_ipc.c ****     }
 596              		.loc 1 115 16
 597 0070 7955     		li	a0,-2
 598              	.LVL57:
 599              		.loc 1 134 1
 600 0072 8280     		ret
 601              		.cfi_endproc
 602              	.LFE26:
 604              		.globl	g_dm_ipc
 605              		.section	.bss.g_dm_ipc,"aw",@nobits
 606              		.align	2
 607              		.set	.LANCHOR0,. + 0
 610              	g_dm_ipc:
 611 0000 00000000 		.zero	20
 611      00000000 
 611      00000000 
 611      00000000 
 611      00000000 
 612              		.section	.rodata.__FUNCTION__.0,"a"
 613              		.align	2
 614              		.set	.LANCHOR1,. + 0
 617              	__FUNCTION__.0:
 618 0000 646D5F69 		.string	"dm_ipc_msg_insert"
 618      70635F6D 
 618      73675F69 
 618      6E736572 
 618      7400
 619              		.text
 620              	.Letext0:
 621              		.file 3 "c:\\users\\stapi\\onedrive\\desktop\\gd32vw553\\embeddedbuilder_v1.4.7.26843\\tools\\nucl
 622              		.file 4 "C:/Users/stapi/OneDrive/Desktop/GD32VW553/V1_MQTT_OK/GD32VW55X_Wifi_BLE_SDK/GD32VW55x_REL
 623              		.file 5 "C:/Users/stapi/OneDrive/Desktop/GD32VW553/V1_MQTT_OK/GD32VW55X_Wifi_BLE_SDK/GD32VW55x_REL
 624              		.file 6 "..\\..\\..\\..\\cloud\\alicloud\\include/iot_import.h"
 625              		.file 7 "..\\..\\..\\..\\cloud\\alicloud\\src\\infra\\utils/iotx_utils.h"
 626              		.file 8 "..\\..\\..\\..\\cloud\\alicloud\\src\\infra\\log/iotx_log.h"
 627              		.file 9 "..\\..\\..\\..\\cloud\\alicloud\\include/exports/iot_export_errno.h"
 628              		.file 10 "<built-in>"
DEFINED SYMBOLS
                            *ABS*:0000000000000000 dm_ipc.c
C:\Users\stapi\AppData\Local\Temp\cciDKFtg.s:12     .text._dm_ipc_unlock:0000000000000000 _dm_ipc_unlock
C:\Users\stapi\AppData\Local\Temp\cciDKFtg.s:16     .text._dm_ipc_unlock:0000000000000000 .L0 
C:\Users\stapi\AppData\Local\Temp\cciDKFtg.s:17     .text._dm_ipc_unlock:0000000000000000 .L0 
C:\Users\stapi\AppData\Local\Temp\cciDKFtg.s:18     .text._dm_ipc_unlock:0000000000000000 .L0 
C:\Users\stapi\AppData\Local\Temp\cciDKFtg.s:20     .text._dm_ipc_unlock:0000000000000000 .L0 
C:\Users\stapi\AppData\Local\Temp\cciDKFtg.s:21     .text._dm_ipc_unlock:0000000000000000 .L0 
C:\Users\stapi\AppData\Local\Temp\cciDKFtg.s:22     .text._dm_ipc_unlock:0000000000000000 .L0 
C:\Users\stapi\AppData\Local\Temp\cciDKFtg.s:25     .text._dm_ipc_unlock:0000000000000008 .L0 
C:\Users\stapi\AppData\Local\Temp\cciDKFtg.s:27     .text._dm_ipc_unlock:000000000000000a .L0 
C:\Users\stapi\AppData\Local\Temp\cciDKFtg.s:31     .text._dm_ipc_unlock:0000000000000014 .L0 
C:\Users\stapi\AppData\Local\Temp\cciDKFtg.s:38     .text.dm_ipc_init:0000000000000000 dm_ipc_init
C:\Users\stapi\AppData\Local\Temp\cciDKFtg.s:41     .text.dm_ipc_init:0000000000000000 .L0 
C:\Users\stapi\AppData\Local\Temp\cciDKFtg.s:43     .text.dm_ipc_init:0000000000000000 .L0 
C:\Users\stapi\AppData\Local\Temp\cciDKFtg.s:44     .text.dm_ipc_init:0000000000000008 .L0 
C:\Users\stapi\AppData\Local\Temp\cciDKFtg.s:45     .text.dm_ipc_init:0000000000000008 .L0 
C:\Users\stapi\AppData\Local\Temp\cciDKFtg.s:46     .text.dm_ipc_init:0000000000000008 .L0 
C:\Users\stapi\AppData\Local\Temp\cciDKFtg.s:47     .text.dm_ipc_init:0000000000000008 .L0 
C:\Users\stapi\AppData\Local\Temp\cciDKFtg.s:49     .text.dm_ipc_init:0000000000000008 .L0 
C:\Users\stapi\AppData\Local\Temp\cciDKFtg.s:51     .text.dm_ipc_init:0000000000000008 .L0 
C:\Users\stapi\AppData\Local\Temp\cciDKFtg.s:52     .text.dm_ipc_init:0000000000000008 .L0 
C:\Users\stapi\AppData\Local\Temp\cciDKFtg.s:55     .text.dm_ipc_init:0000000000000010 .L0 
C:\Users\stapi\AppData\Local\Temp\cciDKFtg.s:57     .text.dm_ipc_init:0000000000000012 .L0 
C:\Users\stapi\AppData\Local\Temp\cciDKFtg.s:63     .text.dm_ipc_init:0000000000000026 .L0 
C:\Users\stapi\AppData\Local\Temp\cciDKFtg.s:64     .text.dm_ipc_init:0000000000000026 .L0 
C:\Users\stapi\AppData\Local\Temp\cciDKFtg.s:67     .text.dm_ipc_init:000000000000002e .L0 
C:\Users\stapi\AppData\Local\Temp\cciDKFtg.s:69     .text.dm_ipc_init:0000000000000030 .L0 
C:\Users\stapi\AppData\Local\Temp\cciDKFtg.s:70     .text.dm_ipc_init:0000000000000030 .L0 
C:\Users\stapi\AppData\Local\Temp\cciDKFtg.s:75     .text.dm_ipc_init:0000000000000032 .L0 
C:\Users\stapi\AppData\Local\Temp\cciDKFtg.s:76     .text.dm_ipc_init:0000000000000032 .L0 
C:\Users\stapi\AppData\Local\Temp\cciDKFtg.s:80     .text.dm_ipc_init:0000000000000036 .L0 
C:\Users\stapi\AppData\Local\Temp\cciDKFtg.s:85     .text.dm_ipc_init:0000000000000038 .L0 
C:\Users\stapi\AppData\Local\Temp\cciDKFtg.s:86     .text.dm_ipc_init:0000000000000038 .L0 
C:\Users\stapi\AppData\Local\Temp\cciDKFtg.s:87     .text.dm_ipc_init:0000000000000038 .L0 
C:\Users\stapi\AppData\Local\Temp\cciDKFtg.s:89     .text.dm_ipc_init:000000000000003a .L0 
C:\Users\stapi\AppData\Local\Temp\cciDKFtg.s:90     .text.dm_ipc_init:000000000000003a .L0 
C:\Users\stapi\AppData\Local\Temp\cciDKFtg.s:95     .text.dm_ipc_init:000000000000003c .L0 
C:\Users\stapi\AppData\Local\Temp\cciDKFtg.s:96     .text.dm_ipc_init:000000000000003c .L0 
C:\Users\stapi\AppData\Local\Temp\cciDKFtg.s:99     .text.dm_ipc_init:000000000000003e .L0 
C:\Users\stapi\AppData\Local\Temp\cciDKFtg.s:100    .text.dm_ipc_init:0000000000000046 .L0 
C:\Users\stapi\AppData\Local\Temp\cciDKFtg.s:101    .text.dm_ipc_init:0000000000000046 .L0 
C:\Users\stapi\AppData\Local\Temp\cciDKFtg.s:102    .text.dm_ipc_init:0000000000000046 .L0 
C:\Users\stapi\AppData\Local\Temp\cciDKFtg.s:103    .text.dm_ipc_init:0000000000000046 .L0 
C:\Users\stapi\AppData\Local\Temp\cciDKFtg.s:104    .text.dm_ipc_init:0000000000000046 .L0 
C:\Users\stapi\AppData\Local\Temp\cciDKFtg.s:106    .text.dm_ipc_init:0000000000000046 .L0 
C:\Users\stapi\AppData\Local\Temp\cciDKFtg.s:108    .text.dm_ipc_init:0000000000000046 .L0 
C:\Users\stapi\AppData\Local\Temp\cciDKFtg.s:110    .text.dm_ipc_init:000000000000004a .L0 
C:\Users\stapi\AppData\Local\Temp\cciDKFtg.s:117    .text.dm_ipc_deinit:0000000000000000 dm_ipc_deinit
C:\Users\stapi\AppData\Local\Temp\cciDKFtg.s:120    .text.dm_ipc_deinit:0000000000000000 .L0 
C:\Users\stapi\AppData\Local\Temp\cciDKFtg.s:121    .text.dm_ipc_deinit:0000000000000000 .L0 
C:\Users\stapi\AppData\Local\Temp\cciDKFtg.s:122    .text.dm_ipc_deinit:0000000000000008 .L0 
C:\Users\stapi\AppData\Local\Temp\cciDKFtg.s:123    .text.dm_ipc_deinit:0000000000000008 .L0 
C:\Users\stapi\AppData\Local\Temp\cciDKFtg.s:124    .text.dm_ipc_deinit:0000000000000008 .L0 
C:\Users\stapi\AppData\Local\Temp\cciDKFtg.s:125    .text.dm_ipc_deinit:0000000000000008 .L0 
C:\Users\stapi\AppData\Local\Temp\cciDKFtg.s:126    .text.dm_ipc_deinit:0000000000000008 .L0 
C:\Users\stapi\AppData\Local\Temp\cciDKFtg.s:127    .text.dm_ipc_deinit:0000000000000008 .L0 
C:\Users\stapi\AppData\Local\Temp\cciDKFtg.s:129    .text.dm_ipc_deinit:0000000000000008 .L0 
C:\Users\stapi\AppData\Local\Temp\cciDKFtg.s:131    .text.dm_ipc_deinit:0000000000000008 .L0 
C:\Users\stapi\AppData\Local\Temp\cciDKFtg.s:132    .text.dm_ipc_deinit:0000000000000008 .L0 
C:\Users\stapi\AppData\Local\Temp\cciDKFtg.s:133    .text.dm_ipc_deinit:0000000000000008 .L0 
C:\Users\stapi\AppData\Local\Temp\cciDKFtg.s:134    .text.dm_ipc_deinit:0000000000000008 .L0 
C:\Users\stapi\AppData\Local\Temp\cciDKFtg.s:135    .text.dm_ipc_deinit:0000000000000008 .L0 
C:\Users\stapi\AppData\Local\Temp\cciDKFtg.s:136    .text.dm_ipc_deinit:0000000000000008 .L0 
C:\Users\stapi\AppData\Local\Temp\cciDKFtg.s:140    .text.dm_ipc_deinit:0000000000000014 .L0 
C:\Users\stapi\AppData\Local\Temp\cciDKFtg.s:142    .text.dm_ipc_deinit:0000000000000016 .L0 
C:\Users\stapi\AppData\Local\Temp\cciDKFtg.s:146    .text.dm_ipc_deinit:000000000000001e .L0 
C:\Users\stapi\AppData\Local\Temp\cciDKFtg.s:155    .text.dm_ipc_deinit:000000000000002c .L0 
C:\Users\stapi\AppData\Local\Temp\cciDKFtg.s:158    .text.dm_ipc_deinit:0000000000000034 .L0 
C:\Users\stapi\AppData\Local\Temp\cciDKFtg.s:159    .text.dm_ipc_deinit:000000000000003c .L0 
C:\Users\stapi\AppData\Local\Temp\cciDKFtg.s:160    .text.dm_ipc_deinit:000000000000003c .L0 
C:\Users\stapi\AppData\Local\Temp\cciDKFtg.s:161    .text.dm_ipc_deinit:000000000000003c .L0 
C:\Users\stapi\AppData\Local\Temp\cciDKFtg.s:162    .text.dm_ipc_deinit:000000000000003c .L0 
C:\Users\stapi\AppData\Local\Temp\cciDKFtg.s:163    .text.dm_ipc_deinit:000000000000003c .L0 
C:\Users\stapi\AppData\Local\Temp\cciDKFtg.s:164    .text.dm_ipc_deinit:000000000000003c .L0 
C:\Users\stapi\AppData\Local\Temp\cciDKFtg.s:165    .text.dm_ipc_deinit:000000000000003c .L0 
C:\Users\stapi\AppData\Local\Temp\cciDKFtg.s:167    .text.dm_ipc_deinit:000000000000003c .L0 
C:\Users\stapi\AppData\Local\Temp\cciDKFtg.s:169    .text.dm_ipc_deinit:000000000000003c .L0 
C:\Users\stapi\AppData\Local\Temp\cciDKFtg.s:170    .text.dm_ipc_deinit:000000000000003c .L0 
C:\Users\stapi\AppData\Local\Temp\cciDKFtg.s:173    .text.dm_ipc_deinit:0000000000000040 .L0 
C:\Users\stapi\AppData\Local\Temp\cciDKFtg.s:174    .text.dm_ipc_deinit:0000000000000040 .L0 
C:\Users\stapi\AppData\Local\Temp\cciDKFtg.s:176    .text.dm_ipc_deinit:0000000000000044 .L0 
C:\Users\stapi\AppData\Local\Temp\cciDKFtg.s:178    .text.dm_ipc_deinit:0000000000000046 .L0 
C:\Users\stapi\AppData\Local\Temp\cciDKFtg.s:181    .text.dm_ipc_deinit:000000000000004e .L0 
C:\Users\stapi\AppData\Local\Temp\cciDKFtg.s:184    .text.dm_ipc_deinit:0000000000000052 .L0 
C:\Users\stapi\AppData\Local\Temp\cciDKFtg.s:185    .text.dm_ipc_deinit:0000000000000052 .L0 
C:\Users\stapi\AppData\Local\Temp\cciDKFtg.s:189    .text.dm_ipc_deinit:000000000000005c .L0 
C:\Users\stapi\AppData\Local\Temp\cciDKFtg.s:190    .text.dm_ipc_deinit:000000000000005c .L0 
C:\Users\stapi\AppData\Local\Temp\cciDKFtg.s:191    .text.dm_ipc_deinit:000000000000005c .L0 
C:\Users\stapi\AppData\Local\Temp\cciDKFtg.s:194    .text.dm_ipc_deinit:000000000000005c .L0 
C:\Users\stapi\AppData\Local\Temp\cciDKFtg.s:195    .text.dm_ipc_deinit:000000000000005c .L0 
C:\Users\stapi\AppData\Local\Temp\cciDKFtg.s:196    .text.dm_ipc_deinit:000000000000005c .L0 
C:\Users\stapi\AppData\Local\Temp\cciDKFtg.s:198    .text.dm_ipc_deinit:000000000000005e .L0 
C:\Users\stapi\AppData\Local\Temp\cciDKFtg.s:201    .text.dm_ipc_deinit:0000000000000060 .L0 
C:\Users\stapi\AppData\Local\Temp\cciDKFtg.s:204    .text.dm_ipc_deinit:0000000000000060 .L0 
C:\Users\stapi\AppData\Local\Temp\cciDKFtg.s:205    .text.dm_ipc_deinit:0000000000000060 .L0 
C:\Users\stapi\AppData\Local\Temp\cciDKFtg.s:207    .text.dm_ipc_deinit:0000000000000062 .L0 
C:\Users\stapi\AppData\Local\Temp\cciDKFtg.s:212    .text.dm_ipc_deinit:0000000000000064 .L0 
C:\Users\stapi\AppData\Local\Temp\cciDKFtg.s:214    .text.dm_ipc_deinit:0000000000000066 .L0 
C:\Users\stapi\AppData\Local\Temp\cciDKFtg.s:215    .text.dm_ipc_deinit:0000000000000066 .L0 
C:\Users\stapi\AppData\Local\Temp\cciDKFtg.s:220    .text.dm_ipc_deinit:0000000000000068 .L0 
C:\Users\stapi\AppData\Local\Temp\cciDKFtg.s:223    .text.dm_ipc_deinit:0000000000000070 .L0 
C:\Users\stapi\AppData\Local\Temp\cciDKFtg.s:224    .text.dm_ipc_deinit:0000000000000070 .L0 
C:\Users\stapi\AppData\Local\Temp\cciDKFtg.s:225    .text.dm_ipc_deinit:0000000000000070 .L0 
C:\Users\stapi\AppData\Local\Temp\cciDKFtg.s:230    .text.dm_ipc_deinit:000000000000007a .L0 
C:\Users\stapi\AppData\Local\Temp\cciDKFtg.s:253    .text.dm_ipc_msg_insert:0000000000000000 dm_ipc_msg_insert
C:\Users\stapi\AppData\Local\Temp\cciDKFtg.s:256    .text.dm_ipc_msg_insert:0000000000000000 .L0 
C:\Users\stapi\AppData\Local\Temp\cciDKFtg.s:258    .text.dm_ipc_msg_insert:0000000000000000 .L0 
C:\Users\stapi\AppData\Local\Temp\cciDKFtg.s:259    .text.dm_ipc_msg_insert:0000000000000000 .L0 
C:\Users\stapi\AppData\Local\Temp\cciDKFtg.s:260    .text.dm_ipc_msg_insert:0000000000000000 .L0 
C:\Users\stapi\AppData\Local\Temp\cciDKFtg.s:261    .text.dm_ipc_msg_insert:0000000000000000 .L0 
C:\Users\stapi\AppData\Local\Temp\cciDKFtg.s:262    .text.dm_ipc_msg_insert:0000000000000000 .L0 
C:\Users\stapi\AppData\Local\Temp\cciDKFtg.s:263    .text.dm_ipc_msg_insert:0000000000000000 .L0 
C:\Users\stapi\AppData\Local\Temp\cciDKFtg.s:265    .text.dm_ipc_msg_insert:0000000000000002 .L0 
C:\Users\stapi\AppData\Local\Temp\cciDKFtg.s:266    .text.dm_ipc_msg_insert:000000000000000a .L0 
C:\Users\stapi\AppData\Local\Temp\cciDKFtg.s:267    .text.dm_ipc_msg_insert:000000000000000a .L0 
C:\Users\stapi\AppData\Local\Temp\cciDKFtg.s:268    .text.dm_ipc_msg_insert:000000000000000a .L0 
C:\Users\stapi\AppData\Local\Temp\cciDKFtg.s:269    .text.dm_ipc_msg_insert:000000000000000a .L0 
C:\Users\stapi\AppData\Local\Temp\cciDKFtg.s:270    .text.dm_ipc_msg_insert:000000000000000a .L0 
C:\Users\stapi\AppData\Local\Temp\cciDKFtg.s:274    .text.dm_ipc_msg_insert:000000000000000a .L0 
C:\Users\stapi\AppData\Local\Temp\cciDKFtg.s:281    .text.dm_ipc_msg_insert:0000000000000010 .L0 
C:\Users\stapi\AppData\Local\Temp\cciDKFtg.s:284    .text.dm_ipc_msg_insert:0000000000000010 .L0 
C:\Users\stapi\AppData\Local\Temp\cciDKFtg.s:288    .text.dm_ipc_msg_insert:0000000000000010 .L0 
C:\Users\stapi\AppData\Local\Temp\cciDKFtg.s:289    .text.dm_ipc_msg_insert:0000000000000010 .L0 
C:\Users\stapi\AppData\Local\Temp\cciDKFtg.s:290    .text.dm_ipc_msg_insert:0000000000000010 .L0 
C:\Users\stapi\AppData\Local\Temp\cciDKFtg.s:294    .text.dm_ipc_msg_insert:0000000000000018 .L0 
C:\Users\stapi\AppData\Local\Temp\cciDKFtg.s:296    .text.dm_ipc_msg_insert:000000000000001a .L0 
C:\Users\stapi\AppData\Local\Temp\cciDKFtg.s:302    .text.dm_ipc_msg_insert:0000000000000022 .L0 
C:\Users\stapi\AppData\Local\Temp\cciDKFtg.s:315    .text.dm_ipc_msg_insert:000000000000004e .L0 
C:\Users\stapi\AppData\Local\Temp\cciDKFtg.s:316    .text.dm_ipc_msg_insert:000000000000004e .L0 
C:\Users\stapi\AppData\Local\Temp\cciDKFtg.s:320    .text.dm_ipc_msg_insert:0000000000000056 .L0 
C:\Users\stapi\AppData\Local\Temp\cciDKFtg.s:321    .text.dm_ipc_msg_insert:0000000000000056 .L0 
C:\Users\stapi\AppData\Local\Temp\cciDKFtg.s:326    .text.dm_ipc_msg_insert:0000000000000066 .L0 
C:\Users\stapi\AppData\Local\Temp\cciDKFtg.s:331    .text.dm_ipc_msg_insert:0000000000000076 .L0 
C:\Users\stapi\AppData\Local\Temp\cciDKFtg.s:336    .text.dm_ipc_msg_insert:0000000000000086 .L0 
C:\Users\stapi\AppData\Local\Temp\cciDKFtg.s:337    .text.dm_ipc_msg_insert:0000000000000086 .L0 
C:\Users\stapi\AppData\Local\Temp\cciDKFtg.s:340    .text.dm_ipc_msg_insert:000000000000008e .L0 
C:\Users\stapi\AppData\Local\Temp\cciDKFtg.s:341    .text.dm_ipc_msg_insert:000000000000008e .L0 
C:\Users\stapi\AppData\Local\Temp\cciDKFtg.s:345    .text.dm_ipc_msg_insert:0000000000000090 .L0 
C:\Users\stapi\AppData\Local\Temp\cciDKFtg.s:346    .text.dm_ipc_msg_insert:0000000000000098 .L0 
C:\Users\stapi\AppData\Local\Temp\cciDKFtg.s:347    .text.dm_ipc_msg_insert:0000000000000098 .L0 
C:\Users\stapi\AppData\Local\Temp\cciDKFtg.s:348    .text.dm_ipc_msg_insert:0000000000000098 .L0 
C:\Users\stapi\AppData\Local\Temp\cciDKFtg.s:349    .text.dm_ipc_msg_insert:0000000000000098 .L0 
C:\Users\stapi\AppData\Local\Temp\cciDKFtg.s:350    .text.dm_ipc_msg_insert:0000000000000098 .L0 
C:\Users\stapi\AppData\Local\Temp\cciDKFtg.s:351    .text.dm_ipc_msg_insert:0000000000000098 .L0 
C:\Users\stapi\AppData\Local\Temp\cciDKFtg.s:354    .text.dm_ipc_msg_insert:0000000000000098 .L0 
C:\Users\stapi\AppData\Local\Temp\cciDKFtg.s:356    .text.dm_ipc_msg_insert:0000000000000098 .L0 
C:\Users\stapi\AppData\Local\Temp\cciDKFtg.s:357    .text.dm_ipc_msg_insert:0000000000000098 .L0 
C:\Users\stapi\AppData\Local\Temp\cciDKFtg.s:365    .text.dm_ipc_msg_insert:00000000000000a8 .L0 
C:\Users\stapi\AppData\Local\Temp\cciDKFtg.s:366    .text.dm_ipc_msg_insert:00000000000000a8 .L0 
C:\Users\stapi\AppData\Local\Temp\cciDKFtg.s:368    .text.dm_ipc_msg_insert:00000000000000aa .L0 
C:\Users\stapi\AppData\Local\Temp\cciDKFtg.s:371    .text.dm_ipc_msg_insert:00000000000000b2 .L0 
C:\Users\stapi\AppData\Local\Temp\cciDKFtg.s:372    .text.dm_ipc_msg_insert:00000000000000b2 .L0 
C:\Users\stapi\AppData\Local\Temp\cciDKFtg.s:376    .text.dm_ipc_msg_insert:00000000000000b6 .L0 
C:\Users\stapi\AppData\Local\Temp\cciDKFtg.s:383    .text.dm_ipc_msg_insert:00000000000000c8 .L0 
C:\Users\stapi\AppData\Local\Temp\cciDKFtg.s:384    .text.dm_ipc_msg_insert:00000000000000c8 .L0 
C:\Users\stapi\AppData\Local\Temp\cciDKFtg.s:388    .text.dm_ipc_msg_insert:00000000000000ca .L0 
C:\Users\stapi\AppData\Local\Temp\cciDKFtg.s:392    .text.dm_ipc_msg_insert:00000000000000cc .L0 
C:\Users\stapi\AppData\Local\Temp\cciDKFtg.s:397    .text.dm_ipc_msg_insert:00000000000000d0 .L0 
C:\Users\stapi\AppData\Local\Temp\cciDKFtg.s:398    .text.dm_ipc_msg_insert:00000000000000d0 .L0 
C:\Users\stapi\AppData\Local\Temp\cciDKFtg.s:401    .text.dm_ipc_msg_insert:00000000000000d0 .L0 
C:\Users\stapi\AppData\Local\Temp\cciDKFtg.s:402    .text.dm_ipc_msg_insert:00000000000000d0 .L0 
C:\Users\stapi\AppData\Local\Temp\cciDKFtg.s:403    .text.dm_ipc_msg_insert:00000000000000d0 .L0 
C:\Users\stapi\AppData\Local\Temp\cciDKFtg.s:409    .text.dm_ipc_msg_insert:00000000000000d4 .L0 
C:\Users\stapi\AppData\Local\Temp\cciDKFtg.s:410    .text.dm_ipc_msg_insert:00000000000000d4 .L0 
C:\Users\stapi\AppData\Local\Temp\cciDKFtg.s:411    .text.dm_ipc_msg_insert:00000000000000d4 .L0 
C:\Users\stapi\AppData\Local\Temp\cciDKFtg.s:416    .text.dm_ipc_msg_insert:00000000000000d6 .L0 
C:\Users\stapi\AppData\Local\Temp\cciDKFtg.s:417    .text.dm_ipc_msg_insert:00000000000000d6 .L0 
C:\Users\stapi\AppData\Local\Temp\cciDKFtg.s:420    .text.dm_ipc_msg_insert:00000000000000dc .L0 
C:\Users\stapi\AppData\Local\Temp\cciDKFtg.s:421    .text.dm_ipc_msg_insert:00000000000000dc .L0 
C:\Users\stapi\AppData\Local\Temp\cciDKFtg.s:423    .text.dm_ipc_msg_insert:00000000000000de .L0 
C:\Users\stapi\AppData\Local\Temp\cciDKFtg.s:424    .text.dm_ipc_msg_insert:00000000000000de .L0 
C:\Users\stapi\AppData\Local\Temp\cciDKFtg.s:426    .text.dm_ipc_msg_insert:00000000000000e0 .L0 
C:\Users\stapi\AppData\Local\Temp\cciDKFtg.s:427    .text.dm_ipc_msg_insert:00000000000000e0 .L0 
C:\Users\stapi\AppData\Local\Temp\cciDKFtg.s:434    .text.dm_ipc_msg_insert:00000000000000e2 .L0 
C:\Users\stapi\AppData\Local\Temp\cciDKFtg.s:437    .text.dm_ipc_msg_insert:00000000000000ea .L0 
C:\Users\stapi\AppData\Local\Temp\cciDKFtg.s:438    .text.dm_ipc_msg_insert:00000000000000ea .L0 
C:\Users\stapi\AppData\Local\Temp\cciDKFtg.s:442    .text.dm_ipc_msg_insert:00000000000000ee .L0 
C:\Users\stapi\AppData\Local\Temp\cciDKFtg.s:443    .text.dm_ipc_msg_insert:00000000000000ee .L0 
C:\Users\stapi\AppData\Local\Temp\cciDKFtg.s:444    .text.dm_ipc_msg_insert:00000000000000ee .L0 
C:\Users\stapi\AppData\Local\Temp\cciDKFtg.s:445    .text.dm_ipc_msg_insert:00000000000000ee .L0 
C:\Users\stapi\AppData\Local\Temp\cciDKFtg.s:446    .text.dm_ipc_msg_insert:00000000000000ee .L0 
C:\Users\stapi\AppData\Local\Temp\cciDKFtg.s:448    .text.dm_ipc_msg_insert:00000000000000ee .L0 
C:\Users\stapi\AppData\Local\Temp\cciDKFtg.s:451    .text.dm_ipc_msg_insert:00000000000000f0 .L0 
C:\Users\stapi\AppData\Local\Temp\cciDKFtg.s:452    .text.dm_ipc_msg_insert:00000000000000f2 .L0 
C:\Users\stapi\AppData\Local\Temp\cciDKFtg.s:459    .text.dm_ipc_msg_next:0000000000000000 dm_ipc_msg_next
C:\Users\stapi\AppData\Local\Temp\cciDKFtg.s:462    .text.dm_ipc_msg_next:0000000000000000 .L0 
C:\Users\stapi\AppData\Local\Temp\cciDKFtg.s:464    .text.dm_ipc_msg_next:0000000000000000 .L0 
C:\Users\stapi\AppData\Local\Temp\cciDKFtg.s:465    .text.dm_ipc_msg_next:0000000000000000 .L0 
C:\Users\stapi\AppData\Local\Temp\cciDKFtg.s:466    .text.dm_ipc_msg_next:0000000000000000 .L0 
C:\Users\stapi\AppData\Local\Temp\cciDKFtg.s:467    .text.dm_ipc_msg_next:0000000000000000 .L0 
C:\Users\stapi\AppData\Local\Temp\cciDKFtg.s:468    .text.dm_ipc_msg_next:0000000000000000 .L0 
C:\Users\stapi\AppData\Local\Temp\cciDKFtg.s:470    .text.dm_ipc_msg_next:0000000000000002 .L0 
C:\Users\stapi\AppData\Local\Temp\cciDKFtg.s:471    .text.dm_ipc_msg_next:000000000000000a .L0 
C:\Users\stapi\AppData\Local\Temp\cciDKFtg.s:472    .text.dm_ipc_msg_next:000000000000000a .L0 
C:\Users\stapi\AppData\Local\Temp\cciDKFtg.s:473    .text.dm_ipc_msg_next:000000000000000a .L0 
C:\Users\stapi\AppData\Local\Temp\cciDKFtg.s:474    .text.dm_ipc_msg_next:000000000000000a .L0 
C:\Users\stapi\AppData\Local\Temp\cciDKFtg.s:476    .text.dm_ipc_msg_next:000000000000000a .L0 
C:\Users\stapi\AppData\Local\Temp\cciDKFtg.s:479    .text.dm_ipc_msg_next:000000000000000e .L0 
C:\Users\stapi\AppData\Local\Temp\cciDKFtg.s:482    .text.dm_ipc_msg_next:0000000000000010 .L0 
C:\Users\stapi\AppData\Local\Temp\cciDKFtg.s:486    .text.dm_ipc_msg_next:0000000000000012 .L0 
C:\Users\stapi\AppData\Local\Temp\cciDKFtg.s:489    .text.dm_ipc_msg_next:0000000000000012 .L0 
C:\Users\stapi\AppData\Local\Temp\cciDKFtg.s:493    .text.dm_ipc_msg_next:0000000000000012 .L0 
C:\Users\stapi\AppData\Local\Temp\cciDKFtg.s:494    .text.dm_ipc_msg_next:0000000000000012 .L0 
C:\Users\stapi\AppData\Local\Temp\cciDKFtg.s:495    .text.dm_ipc_msg_next:0000000000000012 .L0 
C:\Users\stapi\AppData\Local\Temp\cciDKFtg.s:499    .text.dm_ipc_msg_next:000000000000001e .L0 
C:\Users\stapi\AppData\Local\Temp\cciDKFtg.s:501    .text.dm_ipc_msg_next:0000000000000020 .L0 
C:\Users\stapi\AppData\Local\Temp\cciDKFtg.s:509    .text.dm_ipc_msg_next:0000000000000028 .L0 
C:\Users\stapi\AppData\Local\Temp\cciDKFtg.s:510    .text.dm_ipc_msg_next:0000000000000028 .L0 
C:\Users\stapi\AppData\Local\Temp\cciDKFtg.s:511    .text.dm_ipc_msg_next:0000000000000028 .L0 
C:\Users\stapi\AppData\Local\Temp\cciDKFtg.s:516    .text.dm_ipc_msg_next:000000000000002a .L0 
C:\Users\stapi\AppData\Local\Temp\cciDKFtg.s:519    .text.dm_ipc_msg_next:0000000000000032 .L0 
C:\Users\stapi\AppData\Local\Temp\cciDKFtg.s:522    .text.dm_ipc_msg_next:000000000000003a .L0 
C:\Users\stapi\AppData\Local\Temp\cciDKFtg.s:523    .text.dm_ipc_msg_next:000000000000003a .L0 
C:\Users\stapi\AppData\Local\Temp\cciDKFtg.s:527    .text.dm_ipc_msg_next:000000000000003c .L0 
C:\Users\stapi\AppData\Local\Temp\cciDKFtg.s:528    .text.dm_ipc_msg_next:0000000000000044 .L0 
C:\Users\stapi\AppData\Local\Temp\cciDKFtg.s:529    .text.dm_ipc_msg_next:0000000000000044 .L0 
C:\Users\stapi\AppData\Local\Temp\cciDKFtg.s:530    .text.dm_ipc_msg_next:0000000000000044 .L0 
C:\Users\stapi\AppData\Local\Temp\cciDKFtg.s:531    .text.dm_ipc_msg_next:0000000000000044 .L0 
C:\Users\stapi\AppData\Local\Temp\cciDKFtg.s:532    .text.dm_ipc_msg_next:0000000000000044 .L0 
C:\Users\stapi\AppData\Local\Temp\cciDKFtg.s:535    .text.dm_ipc_msg_next:0000000000000044 .L0 
C:\Users\stapi\AppData\Local\Temp\cciDKFtg.s:539    .text.dm_ipc_msg_next:0000000000000044 .L0 
C:\Users\stapi\AppData\Local\Temp\cciDKFtg.s:540    .text.dm_ipc_msg_next:0000000000000044 .L0 
C:\Users\stapi\AppData\Local\Temp\cciDKFtg.s:542    .text.dm_ipc_msg_next:0000000000000046 .L0 
C:\Users\stapi\AppData\Local\Temp\cciDKFtg.s:546    .text.dm_ipc_msg_next:0000000000000048 .L0 
C:\Users\stapi\AppData\Local\Temp\cciDKFtg.s:551    .text.dm_ipc_msg_next:000000000000004c .L0 
C:\Users\stapi\AppData\Local\Temp\cciDKFtg.s:552    .text.dm_ipc_msg_next:000000000000004c .L0 
C:\Users\stapi\AppData\Local\Temp\cciDKFtg.s:553    .text.dm_ipc_msg_next:000000000000004c .L0 
C:\Users\stapi\AppData\Local\Temp\cciDKFtg.s:556    .text.dm_ipc_msg_next:000000000000004c .L0 
C:\Users\stapi\AppData\Local\Temp\cciDKFtg.s:557    .text.dm_ipc_msg_next:000000000000004c .L0 
C:\Users\stapi\AppData\Local\Temp\cciDKFtg.s:562    .text.dm_ipc_msg_next:0000000000000050 .L0 
C:\Users\stapi\AppData\Local\Temp\cciDKFtg.s:565    .text.dm_ipc_msg_next:0000000000000052 .L0 
C:\Users\stapi\AppData\Local\Temp\cciDKFtg.s:566    .text.dm_ipc_msg_next:0000000000000052 .L0 
C:\Users\stapi\AppData\Local\Temp\cciDKFtg.s:571    .text.dm_ipc_msg_next:0000000000000054 .L0 
C:\Users\stapi\AppData\Local\Temp\cciDKFtg.s:572    .text.dm_ipc_msg_next:0000000000000054 .L0 
C:\Users\stapi\AppData\Local\Temp\cciDKFtg.s:576    .text.dm_ipc_msg_next:000000000000005a .L0 
C:\Users\stapi\AppData\Local\Temp\cciDKFtg.s:577    .text.dm_ipc_msg_next:000000000000005a .L0 
C:\Users\stapi\AppData\Local\Temp\cciDKFtg.s:579    .text.dm_ipc_msg_next:000000000000005c .L0 
C:\Users\stapi\AppData\Local\Temp\cciDKFtg.s:582    .text.dm_ipc_msg_next:0000000000000064 .L0 
C:\Users\stapi\AppData\Local\Temp\cciDKFtg.s:583    .text.dm_ipc_msg_next:0000000000000064 .L0 
C:\Users\stapi\AppData\Local\Temp\cciDKFtg.s:584    .text.dm_ipc_msg_next:0000000000000064 .L0 
C:\Users\stapi\AppData\Local\Temp\cciDKFtg.s:587    .text.dm_ipc_msg_next:000000000000006c .L0 
C:\Users\stapi\AppData\Local\Temp\cciDKFtg.s:588    .text.dm_ipc_msg_next:000000000000006c .L0 
C:\Users\stapi\AppData\Local\Temp\cciDKFtg.s:592    .text.dm_ipc_msg_next:0000000000000070 .L0 
C:\Users\stapi\AppData\Local\Temp\cciDKFtg.s:593    .text.dm_ipc_msg_next:0000000000000070 .L0 
C:\Users\stapi\AppData\Local\Temp\cciDKFtg.s:594    .text.dm_ipc_msg_next:0000000000000070 .L0 
C:\Users\stapi\AppData\Local\Temp\cciDKFtg.s:595    .text.dm_ipc_msg_next:0000000000000070 .L0 
C:\Users\stapi\AppData\Local\Temp\cciDKFtg.s:597    .text.dm_ipc_msg_next:0000000000000070 .L0 
C:\Users\stapi\AppData\Local\Temp\cciDKFtg.s:600    .text.dm_ipc_msg_next:0000000000000072 .L0 
C:\Users\stapi\AppData\Local\Temp\cciDKFtg.s:601    .text.dm_ipc_msg_next:0000000000000074 .L0 
C:\Users\stapi\AppData\Local\Temp\cciDKFtg.s:610    .bss.g_dm_ipc:0000000000000000 g_dm_ipc
C:\Users\stapi\AppData\Local\Temp\cciDKFtg.s:607    .bss.g_dm_ipc:0000000000000000 .LANCHOR0
C:\Users\stapi\AppData\Local\Temp\cciDKFtg.s:614    .rodata.__FUNCTION__.0:0000000000000000 .LANCHOR1
C:\Users\stapi\AppData\Local\Temp\cciDKFtg.s:617    .rodata.__FUNCTION__.0:0000000000000000 __FUNCTION__.0
C:\Users\stapi\AppData\Local\Temp\cciDKFtg.s:34     .text._dm_ipc_unlock:0000000000000014 .L0 
C:\Users\stapi\AppData\Local\Temp\cciDKFtg.s:113    .text.dm_ipc_init:000000000000004a .L0 
C:\Users\stapi\AppData\Local\Temp\cciDKFtg.s:233    .text.dm_ipc_deinit:000000000000007a .L0 
C:\Users\stapi\AppData\Local\Temp\cciDKFtg.s:455    .text.dm_ipc_msg_insert:00000000000000f2 .L0 
C:\Users\stapi\AppData\Local\Temp\cciDKFtg.s:605    .text.dm_ipc_msg_next:0000000000000074 .L0 
                     .debug_frame:0000000000000000 .L0 
C:\Users\stapi\AppData\Local\Temp\cciDKFtg.s:29     .text._dm_ipc_unlock:0000000000000012 .L7
C:\Users\stapi\AppData\Local\Temp\cciDKFtg.s:105    .text.dm_ipc_init:0000000000000046 .L12
C:\Users\stapi\AppData\Local\Temp\cciDKFtg.s:97     .text.dm_ipc_init:000000000000003e .L10
C:\Users\stapi\AppData\Local\Temp\cciDKFtg.s:144    .text.dm_ipc_deinit:000000000000001e .L15
C:\Users\stapi\AppData\Local\Temp\cciDKFtg.s:166    .text.dm_ipc_deinit:000000000000003c .L18
C:\Users\stapi\AppData\Local\Temp\cciDKFtg.s:182    .text.dm_ipc_deinit:0000000000000052 .L17
C:\Users\stapi\AppData\Local\Temp\cciDKFtg.s:153    .text.dm_ipc_deinit:000000000000002c .L16
C:\Users\stapi\AppData\Local\Temp\cciDKFtg.s:235    .rodata.dm_ipc_msg_insert.str1.4:0000000000000000 .LC0
C:\Users\stapi\AppData\Local\Temp\cciDKFtg.s:238    .rodata.dm_ipc_msg_insert.str1.4:0000000000000024 .LC1
C:\Users\stapi\AppData\Local\Temp\cciDKFtg.s:241    .rodata.dm_ipc_msg_insert.str1.4:0000000000000028 .LC2
C:\Users\stapi\AppData\Local\Temp\cciDKFtg.s:244    .rodata.dm_ipc_msg_insert.str1.4:0000000000000030 .LC3
C:\Users\stapi\AppData\Local\Temp\cciDKFtg.s:247    .rodata.dm_ipc_msg_insert.str1.4:0000000000000044 .LC4
C:\Users\stapi\AppData\Local\Temp\cciDKFtg.s:441    .text.dm_ipc_msg_insert:00000000000000ee .L31
C:\Users\stapi\AppData\Local\Temp\cciDKFtg.s:298    .text.dm_ipc_msg_insert:0000000000000022 .L28
C:\Users\stapi\AppData\Local\Temp\cciDKFtg.s:353    .text.dm_ipc_msg_insert:0000000000000098 .L29
C:\Users\stapi\AppData\Local\Temp\cciDKFtg.s:374    .text.dm_ipc_msg_insert:00000000000000b6 .L30
C:\Users\stapi\AppData\Local\Temp\cciDKFtg.s:343    .text.dm_ipc_msg_insert:0000000000000090 .L26
C:\Users\stapi\AppData\Local\Temp\cciDKFtg.s:591    .text.dm_ipc_msg_next:0000000000000070 .L43
C:\Users\stapi\AppData\Local\Temp\cciDKFtg.s:525    .text.dm_ipc_msg_next:000000000000003c .L39
C:\Users\stapi\AppData\Local\Temp\cciDKFtg.s:503    .text.dm_ipc_msg_next:0000000000000028 .L41
C:\Users\stapi\AppData\Local\Temp\cciDKFtg.s:534    .text.dm_ipc_msg_next:0000000000000044 .L42
C:\Users\stapi\AppData\Local\Temp\cciDKFtg.s:2316   .debug_abbrev:0000000000000000 .Ldebug_abbrev0
C:\Users\stapi\AppData\Local\Temp\cciDKFtg.s:3371   .debug_str:00000000000001d9 .LASF301
C:\Users\stapi\AppData\Local\Temp\cciDKFtg.s:3341   .debug_str:0000000000000000 .LASF302
C:\Users\stapi\AppData\Local\Temp\cciDKFtg.s:3713   .debug_str:000000000000131d .LASF303
C:\Users\stapi\AppData\Local\Temp\cciDKFtg.s:3285   .debug_ranges:0000000000000000 .Ldebug_ranges0
C:\Users\stapi\AppData\Local\Temp\cciDKFtg.s:3339   .debug_line:0000000000000000 .Ldebug_line0
C:\Users\stapi\AppData\Local\Temp\cciDKFtg.s:3471   .debug_str:0000000000000794 .LASF0
C:\Users\stapi\AppData\Local\Temp\cciDKFtg.s:3479   .debug_str:00000000000007e9 .LASF1
C:\Users\stapi\AppData\Local\Temp\cciDKFtg.s:3813   .debug_str:00000000000018be .LASF2
C:\Users\stapi\AppData\Local\Temp\cciDKFtg.s:3919   .debug_str:0000000000001e48 .LASF3
C:\Users\stapi\AppData\Local\Temp\cciDKFtg.s:3433   .debug_str:00000000000005f1 .LASF4
C:\Users\stapi\AppData\Local\Temp\cciDKFtg.s:3603   .debug_str:0000000000000e37 .LASF5
C:\Users\stapi\AppData\Local\Temp\cciDKFtg.s:3643   .debug_str:000000000000100a .LASF6
C:\Users\stapi\AppData\Local\Temp\cciDKFtg.s:3751   .debug_str:0000000000001592 .LASF7
C:\Users\stapi\AppData\Local\Temp\cciDKFtg.s:3681   .debug_str:00000000000011c8 .LASF8
C:\Users\stapi\AppData\Local\Temp\cciDKFtg.s:3349   .debug_str:00000000000000d8 .LASF200
C:\Users\stapi\AppData\Local\Temp\cciDKFtg.s:3509   .debug_str:000000000000097b .LASF9
C:\Users\stapi\AppData\Local\Temp\cciDKFtg.s:3353   .debug_str:00000000000000f9 .LASF304
C:\Users\stapi\AppData\Local\Temp\cciDKFtg.s:3473   .debug_str:00000000000007a0 .LASF10
C:\Users\stapi\AppData\Local\Temp\cciDKFtg.s:3657   .debug_str:00000000000010b4 .LASF11
C:\Users\stapi\AppData\Local\Temp\cciDKFtg.s:3715   .debug_str:00000000000013ae .LASF12
C:\Users\stapi\AppData\Local\Temp\cciDKFtg.s:3551   .debug_str:0000000000000b7f .LASF13
C:\Users\stapi\AppData\Local\Temp\cciDKFtg.s:3885   .debug_str:0000000000001c9f .LASF14
C:\Users\stapi\AppData\Local\Temp\cciDKFtg.s:3637   .debug_str:0000000000000fbe .LASF15
C:\Users\stapi\AppData\Local\Temp\cciDKFtg.s:3343   .debug_str:000000000000009a .LASF16
C:\Users\stapi\AppData\Local\Temp\cciDKFtg.s:3781   .debug_str:00000000000016fb .LASF17
C:\Users\stapi\AppData\Local\Temp\cciDKFtg.s:3915   .debug_str:0000000000001e28 .LASF18
C:\Users\stapi\AppData\Local\Temp\cciDKFtg.s:3795   .debug_str:00000000000017c9 .LASF19
C:\Users\stapi\AppData\Local\Temp\cciDKFtg.s:3763   .debug_str:0000000000001636 .LASF20
C:\Users\stapi\AppData\Local\Temp\cciDKFtg.s:3521   .debug_str:00000000000009ee .LASF21
C:\Users\stapi\AppData\Local\Temp\cciDKFtg.s:3719   .debug_str:00000000000013e4 .LASF22
C:\Users\stapi\AppData\Local\Temp\cciDKFtg.s:3765   .debug_str:0000000000001645 .LASF23
C:\Users\stapi\AppData\Local\Temp\cciDKFtg.s:3601   .debug_str:0000000000000e1f .LASF24
C:\Users\stapi\AppData\Local\Temp\cciDKFtg.s:3923   .debug_str:0000000000001e76 .LASF25
C:\Users\stapi\AppData\Local\Temp\cciDKFtg.s:3645   .debug_str:0000000000001018 .LASF26
C:\Users\stapi\AppData\Local\Temp\cciDKFtg.s:3741   .debug_str:00000000000014fd .LASF27
C:\Users\stapi\AppData\Local\Temp\cciDKFtg.s:3493   .debug_str:000000000000089b .LASF28
C:\Users\stapi\AppData\Local\Temp\cciDKFtg.s:3797   .debug_str:00000000000017d8 .LASF29
C:\Users\stapi\AppData\Local\Temp\cciDKFtg.s:3361   .debug_str:000000000000013c .LASF30
C:\Users\stapi\AppData\Local\Temp\cciDKFtg.s:3429   .debug_str:00000000000005b2 .LASF31
C:\Users\stapi\AppData\Local\Temp\cciDKFtg.s:3771   .debug_str:0000000000001678 .LASF32
C:\Users\stapi\AppData\Local\Temp\cciDKFtg.s:3487   .debug_str:0000000000000842 .LASF33
C:\Users\stapi\AppData\Local\Temp\cciDKFtg.s:3595   .debug_str:0000000000000dd9 .LASF34
C:\Users\stapi\AppData\Local\Temp\cciDKFtg.s:3755   .debug_str:00000000000015cf .LASF35
C:\Users\stapi\AppData\Local\Temp\cciDKFtg.s:3381   .debug_str:000000000000032b .LASF36
C:\Users\stapi\AppData\Local\Temp\cciDKFtg.s:3829   .debug_str:000000000000198c .LASF37
C:\Users\stapi\AppData\Local\Temp\cciDKFtg.s:3689   .debug_str:0000000000001216 .LASF38
C:\Users\stapi\AppData\Local\Temp\cciDKFtg.s:3515   .debug_str:0000000000000997 .LASF39
C:\Users\stapi\AppData\Local\Temp\cciDKFtg.s:3439   .debug_str:000000000000062c .LASF40
C:\Users\stapi\AppData\Local\Temp\cciDKFtg.s:3411   .debug_str:00000000000004b9 .LASF41
C:\Users\stapi\AppData\Local\Temp\cciDKFtg.s:3739   .debug_str:00000000000014e4 .LASF42
C:\Users\stapi\AppData\Local\Temp\cciDKFtg.s:3855   .debug_str:0000000000001b06 .LASF43
C:\Users\stapi\AppData\Local\Temp\cciDKFtg.s:3731   .debug_str:0000000000001474 .LASF44
C:\Users\stapi\AppData\Local\Temp\cciDKFtg.s:3345   .debug_str:00000000000000a9 .LASF45
C:\Users\stapi\AppData\Local\Temp\cciDKFtg.s:3395   .debug_str:00000000000003e6 .LASF46
C:\Users\stapi\AppData\Local\Temp\cciDKFtg.s:3409   .debug_str:000000000000049a .LASF47
C:\Users\stapi\AppData\Local\Temp\cciDKFtg.s:3745   .debug_str:000000000000154b .LASF48
C:\Users\stapi\AppData\Local\Temp\cciDKFtg.s:3531   .debug_str:0000000000000a58 .LASF49
C:\Users\stapi\AppData\Local\Temp\cciDKFtg.s:3641   .debug_str:0000000000000fe8 .LASF50
C:\Users\stapi\AppData\Local\Temp\cciDKFtg.s:3445   .debug_str:000000000000067e .LASF51
C:\Users\stapi\AppData\Local\Temp\cciDKFtg.s:3913   .debug_str:0000000000001e0c .LASF52
C:\Users\stapi\AppData\Local\Temp\cciDKFtg.s:3925   .debug_str:0000000000001e98 .LASF53
C:\Users\stapi\AppData\Local\Temp\cciDKFtg.s:3811   .debug_str:00000000000018a6 .LASF54
C:\Users\stapi\AppData\Local\Temp\cciDKFtg.s:3891   .debug_str:0000000000001ce2 .LASF55
C:\Users\stapi\AppData\Local\Temp\cciDKFtg.s:3485   .debug_str:0000000000000829 .LASF56
C:\Users\stapi\AppData\Local\Temp\cciDKFtg.s:3533   .debug_str:0000000000000a76 .LASF57
C:\Users\stapi\AppData\Local\Temp\cciDKFtg.s:3703   .debug_str:00000000000012ba .LASF58
C:\Users\stapi\AppData\Local\Temp\cciDKFtg.s:3793   .debug_str:00000000000017b1 .LASF59
C:\Users\stapi\AppData\Local\Temp\cciDKFtg.s:3547   .debug_str:0000000000000b39 .LASF60
C:\Users\stapi\AppData\Local\Temp\cciDKFtg.s:3527   .debug_str:0000000000000a22 .LASF61
C:\Users\stapi\AppData\Local\Temp\cciDKFtg.s:3777   .debug_str:00000000000016cf .LASF62
C:\Users\stapi\AppData\Local\Temp\cciDKFtg.s:3503   .debug_str:0000000000000921 .LASF63
C:\Users\stapi\AppData\Local\Temp\cciDKFtg.s:3403   .debug_str:0000000000000462 .LASF64
C:\Users\stapi\AppData\Local\Temp\cciDKFtg.s:3825   .debug_str:000000000000194a .LASF65
C:\Users\stapi\AppData\Local\Temp\cciDKFtg.s:3585   .debug_str:0000000000000d55 .LASF66
C:\Users\stapi\AppData\Local\Temp\cciDKFtg.s:3579   .debug_str:0000000000000cfd .LASF67
C:\Users\stapi\AppData\Local\Temp\cciDKFtg.s:3491   .debug_str:000000000000087b .LASF68
C:\Users\stapi\AppData\Local\Temp\cciDKFtg.s:3805   .debug_str:0000000000001851 .LASF69
C:\Users\stapi\AppData\Local\Temp\cciDKFtg.s:3821   .debug_str:0000000000001907 .LASF70
C:\Users\stapi\AppData\Local\Temp\cciDKFtg.s:3807   .debug_str:000000000000186b .LASF71
C:\Users\stapi\AppData\Local\Temp\cciDKFtg.s:3469   .debug_str:000000000000077c .LASF72
C:\Users\stapi\AppData\Local\Temp\cciDKFtg.s:3895   .debug_str:0000000000001d1b .LASF73
C:\Users\stapi\AppData\Local\Temp\cciDKFtg.s:3893   .debug_str:0000000000001cfe .LASF74
C:\Users\stapi\AppData\Local\Temp\cciDKFtg.s:3863   .debug_str:0000000000001b7b .LASF75
C:\Users\stapi\AppData\Local\Temp\cciDKFtg.s:3909   .debug_str:0000000000001dd1 .LASF76
C:\Users\stapi\AppData\Local\Temp\cciDKFtg.s:3667   .debug_str:000000000000110d .LASF77
C:\Users\stapi\AppData\Local\Temp\cciDKFtg.s:3671   .debug_str:0000000000001144 .LASF78
C:\Users\stapi\AppData\Local\Temp\cciDKFtg.s:3557   .debug_str:0000000000000bb5 .LASF79
C:\Users\stapi\AppData\Local\Temp\cciDKFtg.s:3363   .debug_str:000000000000015c .LASF80
C:\Users\stapi\AppData\Local\Temp\cciDKFtg.s:3851   .debug_str:0000000000001ada .LASF81
C:\Users\stapi\AppData\Local\Temp\cciDKFtg.s:3723   .debug_str:0000000000001412 .LASF82
C:\Users\stapi\AppData\Local\Temp\cciDKFtg.s:3583   .debug_str:0000000000000d35 .LASF83
C:\Users\stapi\AppData\Local\Temp\cciDKFtg.s:3577   .debug_str:0000000000000cde .LASF84
C:\Users\stapi\AppData\Local\Temp\cciDKFtg.s:3649   .debug_str:0000000000001053 .LASF85
C:\Users\stapi\AppData\Local\Temp\cciDKFtg.s:3389   .debug_str:00000000000003a0 .LASF86
C:\Users\stapi\AppData\Local\Temp\cciDKFtg.s:3901   .debug_str:0000000000001d72 .LASF87
C:\Users\stapi\AppData\Local\Temp\cciDKFtg.s:3435   .debug_str:00000000000005fa .LASF88
C:\Users\stapi\AppData\Local\Temp\cciDKFtg.s:3707   .debug_str:00000000000012f1 .LASF89
C:\Users\stapi\AppData\Local\Temp\cciDKFtg.s:3879   .debug_str:0000000000001c5a .LASF90
C:\Users\stapi\AppData\Local\Temp\cciDKFtg.s:3375   .debug_str:00000000000002dd .LASF91
C:\Users\stapi\AppData\Local\Temp\cciDKFtg.s:3857   .debug_str:0000000000001b24 .LASF92
C:\Users\stapi\AppData\Local\Temp\cciDKFtg.s:3907   .debug_str:0000000000001db3 .LASF93
C:\Users\stapi\AppData\Local\Temp\cciDKFtg.s:3351   .debug_str:00000000000000df .LASF94
C:\Users\stapi\AppData\Local\Temp\cciDKFtg.s:3635   .debug_str:0000000000000fa6 .LASF95
C:\Users\stapi\AppData\Local\Temp\cciDKFtg.s:3443   .debug_str:000000000000065d .LASF96
C:\Users\stapi\AppData\Local\Temp\cciDKFtg.s:3961   .debug_str:000000000000204a .LASF97
C:\Users\stapi\AppData\Local\Temp\cciDKFtg.s:3453   .debug_str:00000000000006b7 .LASF98
C:\Users\stapi\AppData\Local\Temp\cciDKFtg.s:3733   .debug_str:000000000000148e .LASF99
C:\Users\stapi\AppData\Local\Temp\cciDKFtg.s:3949   .debug_str:0000000000001fc1 .LASF100
C:\Users\stapi\AppData\Local\Temp\cciDKFtg.s:3941   .debug_str:0000000000001f46 .LASF101
C:\Users\stapi\AppData\Local\Temp\cciDKFtg.s:3437   .debug_str:0000000000000613 .LASF102
C:\Users\stapi\AppData\Local\Temp\cciDKFtg.s:3669   .debug_str:000000000000112c .LASF103
C:\Users\stapi\AppData\Local\Temp\cciDKFtg.s:3573   .debug_str:0000000000000ca2 .LASF104
C:\Users\stapi\AppData\Local\Temp\cciDKFtg.s:3425   .debug_str:0000000000000582 .LASF105
C:\Users\stapi\AppData\Local\Temp\cciDKFtg.s:3507   .debug_str:000000000000095d .LASF106
C:\Users\stapi\AppData\Local\Temp\cciDKFtg.s:3415   .debug_str:00000000000004fb .LASF107
C:\Users\stapi\AppData\Local\Temp\cciDKFtg.s:3447   .debug_str:0000000000000691 .LASF108
C:\Users\stapi\AppData\Local\Temp\cciDKFtg.s:3883   .debug_str:0000000000001c8b .LASF109
C:\Users\stapi\AppData\Local\Temp\cciDKFtg.s:3383   .debug_str:0000000000000349 .LASF110
C:\Users\stapi\AppData\Local\Temp\cciDKFtg.s:3347   .debug_str:00000000000000c0 .LASF111
C:\Users\stapi\AppData\Local\Temp\cciDKFtg.s:3463   .debug_str:000000000000074b .LASF112
C:\Users\stapi\AppData\Local\Temp\cciDKFtg.s:3887   .debug_str:0000000000001cb0 .LASF113
C:\Users\stapi\AppData\Local\Temp\cciDKFtg.s:3427   .debug_str:000000000000059a .LASF114
C:\Users\stapi\AppData\Local\Temp\cciDKFtg.s:3569   .debug_str:0000000000000c64 .LASF115
C:\Users\stapi\AppData\Local\Temp\cciDKFtg.s:3369   .debug_str:00000000000001c3 .LASF116
C:\Users\stapi\AppData\Local\Temp\cciDKFtg.s:3461   .debug_str:000000000000072e .LASF117
C:\Users\stapi\AppData\Local\Temp\cciDKFtg.s:3827   .debug_str:000000000000196e .LASF118
C:\Users\stapi\AppData\Local\Temp\cciDKFtg.s:3545   .debug_str:0000000000000b11 .LASF119
C:\Users\stapi\AppData\Local\Temp\cciDKFtg.s:3875   .debug_str:0000000000001c17 .LASF120
C:\Users\stapi\AppData\Local\Temp\cciDKFtg.s:3519   .debug_str:00000000000009d6 .LASF121
C:\Users\stapi\AppData\Local\Temp\cciDKFtg.s:3877   .debug_str:0000000000001c3f .LASF122
C:\Users\stapi\AppData\Local\Temp\cciDKFtg.s:3563   .debug_str:0000000000000c0b .LASF123
C:\Users\stapi\AppData\Local\Temp\cciDKFtg.s:3489   .debug_str:000000000000085b .LASF124
C:\Users\stapi\AppData\Local\Temp\cciDKFtg.s:3413   .debug_str:00000000000004d4 .LASF125
C:\Users\stapi\AppData\Local\Temp\cciDKFtg.s:3639   .debug_str:0000000000000fd0 .LASF126
C:\Users\stapi\AppData\Local\Temp\cciDKFtg.s:3727   .debug_str:0000000000001433 .LASF127
C:\Users\stapi\AppData\Local\Temp\cciDKFtg.s:3529   .debug_str:0000000000000a3d .LASF128
C:\Users\stapi\AppData\Local\Temp\cciDKFtg.s:3743   .debug_str:000000000000152e .LASF129
C:\Users\stapi\AppData\Local\Temp\cciDKFtg.s:3497   .debug_str:00000000000008dc .LASF130
C:\Users\stapi\AppData\Local\Temp\cciDKFtg.s:3717   .debug_str:00000000000013c5 .LASF131
C:\Users\stapi\AppData\Local\Temp\cciDKFtg.s:3431   .debug_str:00000000000005d4 .LASF132
C:\Users\stapi\AppData\Local\Temp\cciDKFtg.s:3419   .debug_str:0000000000000533 .LASF133
C:\Users\stapi\AppData\Local\Temp\cciDKFtg.s:3559   .debug_str:0000000000000bd6 .LASF134
C:\Users\stapi\AppData\Local\Temp\cciDKFtg.s:3613   .debug_str:0000000000000ebf .LASF135
C:\Users\stapi\AppData\Local\Temp\cciDKFtg.s:3881   .debug_str:0000000000001c74 .LASF136
C:\Users\stapi\AppData\Local\Temp\cciDKFtg.s:3939   .debug_str:0000000000001f2f .LASF137
C:\Users\stapi\AppData\Local\Temp\cciDKFtg.s:3653   .debug_str:000000000000106e .LASF138
C:\Users\stapi\AppData\Local\Temp\cciDKFtg.s:3457   .debug_str:00000000000006ef .LASF139
C:\Users\stapi\AppData\Local\Temp\cciDKFtg.s:3567   .debug_str:0000000000000c4a .LASF140
C:\Users\stapi\AppData\Local\Temp\cciDKFtg.s:3779   .debug_str:00000000000016e7 .LASF141
C:\Users\stapi\AppData\Local\Temp\cciDKFtg.s:3399   .debug_str:0000000000000416 .LASF142
C:\Users\stapi\AppData\Local\Temp\cciDKFtg.s:3929   .debug_str:0000000000001eba .LASF143
C:\Users\stapi\AppData\Local\Temp\cciDKFtg.s:3839   .debug_str:0000000000001a26 .LASF144
C:\Users\stapi\AppData\Local\Temp\cciDKFtg.s:3537   .debug_str:0000000000000aaa .LASF145
C:\Users\stapi\AppData\Local\Temp\cciDKFtg.s:3475   .debug_str:00000000000007b7 .LASF146
C:\Users\stapi\AppData\Local\Temp\cciDKFtg.s:3871   .debug_str:0000000000001be7 .LASF147
C:\Users\stapi\AppData\Local\Temp\cciDKFtg.s:3571   .debug_str:0000000000000c81 .LASF148
C:\Users\stapi\AppData\Local\Temp\cciDKFtg.s:3629   .debug_str:0000000000000f50 .LASF149
C:\Users\stapi\AppData\Local\Temp\cciDKFtg.s:3647   .debug_str:0000000000001033 .LASF150
C:\Users\stapi\AppData\Local\Temp\cciDKFtg.s:3391   .debug_str:00000000000003b7 .LASF151
C:\Users\stapi\AppData\Local\Temp\cciDKFtg.s:3845   .debug_str:0000000000001a74 .LASF152
C:\Users\stapi\AppData\Local\Temp\cciDKFtg.s:3957   .debug_str:0000000000002024 .LASF153
C:\Users\stapi\AppData\Local\Temp\cciDKFtg.s:3517   .debug_str:00000000000009b3 .LASF154
C:\Users\stapi\AppData\Local\Temp\cciDKFtg.s:3591   .debug_str:0000000000000da3 .LASF155
C:\Users\stapi\AppData\Local\Temp\cciDKFtg.s:3379   .debug_str:0000000000000308 .LASF156
C:\Users\stapi\AppData\Local\Temp\cciDKFtg.s:3683   .debug_str:00000000000011d5 .LASF157
C:\Users\stapi\AppData\Local\Temp\cciDKFtg.s:3753   .debug_str:00000000000015a9 .LASF158
C:\Users\stapi\AppData\Local\Temp\cciDKFtg.s:3953   .debug_str:0000000000001fe5 .LASF159
C:\Users\stapi\AppData\Local\Temp\cciDKFtg.s:3791   .debug_str:0000000000001787 .LASF160
C:\Users\stapi\AppData\Local\Temp\cciDKFtg.s:3481   .debug_str:00000000000007f7 .LASF161
C:\Users\stapi\AppData\Local\Temp\cciDKFtg.s:3555   .debug_str:0000000000000ba1 .LASF162
C:\Users\stapi\AppData\Local\Temp\cciDKFtg.s:3809   .debug_str:0000000000001880 .LASF163
C:\Users\stapi\AppData\Local\Temp\cciDKFtg.s:3627   .debug_str:0000000000000f34 .LASF164
C:\Users\stapi\AppData\Local\Temp\cciDKFtg.s:3701   .debug_str:0000000000001297 .LASF165
C:\Users\stapi\AppData\Local\Temp\cciDKFtg.s:3549   .debug_str:0000000000000b59 .LASF166
C:\Users\stapi\AppData\Local\Temp\cciDKFtg.s:3773   .debug_str:000000000000168b .LASF167
C:\Users\stapi\AppData\Local\Temp\cciDKFtg.s:3761   .debug_str:0000000000001620 .LASF168
C:\Users\stapi\AppData\Local\Temp\cciDKFtg.s:3831   .debug_str:00000000000019a7 .LASF169
C:\Users\stapi\AppData\Local\Temp\cciDKFtg.s:3455   .debug_str:00000000000006d2 .LASF170
C:\Users\stapi\AppData\Local\Temp\cciDKFtg.s:3605   .debug_str:0000000000000e49 .LASF171
C:\Users\stapi\AppData\Local\Temp\cciDKFtg.s:3867   .debug_str:0000000000001ba8 .LASF172
C:\Users\stapi\AppData\Local\Temp\cciDKFtg.s:3561   .debug_str:0000000000000bed .LASF173
C:\Users\stapi\AppData\Local\Temp\cciDKFtg.s:3963   .debug_str:000000000000206b .LASF174
C:\Users\stapi\AppData\Local\Temp\cciDKFtg.s:3501   .debug_str:0000000000000904 .LASF175
C:\Users\stapi\AppData\Local\Temp\cciDKFtg.s:3373   .debug_str:00000000000002c0 .LASF176
C:\Users\stapi\AppData\Local\Temp\cciDKFtg.s:3617   .debug_str:0000000000000ee5 .LASF177
C:\Users\stapi\AppData\Local\Temp\cciDKFtg.s:3495   .debug_str:00000000000008c2 .LASF178
C:\Users\stapi\AppData\Local\Temp\cciDKFtg.s:3467   .debug_str:000000000000076f .LASF179
C:\Users\stapi\AppData\Local\Temp\cciDKFtg.s:3943   .debug_str:0000000000001f5c .LASF180
C:\Users\stapi\AppData\Local\Temp\cciDKFtg.s:3789   .debug_str:0000000000001754 .LASF181
C:\Users\stapi\AppData\Local\Temp\cciDKFtg.s:3401   .debug_str:0000000000000435 .LASF182
C:\Users\stapi\AppData\Local\Temp\cciDKFtg.s:3947   .debug_str:0000000000001f8f .LASF183
C:\Users\stapi\AppData\Local\Temp\cciDKFtg.s:3787   .debug_str:0000000000001743 .LASF184
C:\Users\stapi\AppData\Local\Temp\cciDKFtg.s:3685   .debug_str:00000000000011f5 .LASF185
C:\Users\stapi\AppData\Local\Temp\cciDKFtg.s:3633   .debug_str:0000000000000f95 .LASF186
C:\Users\stapi\AppData\Local\Temp\cciDKFtg.s:3385   .debug_str:0000000000000369 .LASF187
C:\Users\stapi\AppData\Local\Temp\cciDKFtg.s:3513   .debug_str:0000000000000987 .LASF188
C:\Users\stapi\AppData\Local\Temp\cciDKFtg.s:3917   .debug_str:0000000000001e37 .LASF189
C:\Users\stapi\AppData\Local\Temp\cciDKFtg.s:3695   .debug_str:0000000000001257 .LASF190
C:\Users\stapi\AppData\Local\Temp\cciDKFtg.s:3597   .debug_str:0000000000000df0 .LASF191
C:\Users\stapi\AppData\Local\Temp\cciDKFtg.s:3927   .debug_str:0000000000001eaf .LASF192
C:\Users\stapi\AppData\Local\Temp\cciDKFtg.s:3801   .debug_str:000000000000181e .LASF193
C:\Users\stapi\AppData\Local\Temp\cciDKFtg.s:3935   .debug_str:0000000000001f03 .LASF194
C:\Users\stapi\AppData\Local\Temp\cciDKFtg.s:3675   .debug_str:0000000000001173 .LASF195
C:\Users\stapi\AppData\Local\Temp\cciDKFtg.s:3615   .debug_str:0000000000000ed6 .LASF196
C:\Users\stapi\AppData\Local\Temp\cciDKFtg.s:3651   .debug_str:0000000000001067 .LASF197
C:\Users\stapi\AppData\Local\Temp\cciDKFtg.s:3699   .debug_str:000000000000128f .LASF305
C:\Users\stapi\AppData\Local\Temp\cciDKFtg.s:3959   .debug_str:0000000000002045 .LASF198
C:\Users\stapi\AppData\Local\Temp\cciDKFtg.s:3725   .debug_str:000000000000142e .LASF199
C:\Users\stapi\AppData\Local\Temp\cciDKFtg.s:3691   .debug_str:0000000000001227 .LASF201
C:\Users\stapi\AppData\Local\Temp\cciDKFtg.s:3697   .debug_str:0000000000001271 .LASF202
C:\Users\stapi\AppData\Local\Temp\cciDKFtg.s:3945   .debug_str:0000000000001f70 .LASF203
C:\Users\stapi\AppData\Local\Temp\cciDKFtg.s:3565   .debug_str:0000000000000c2c .LASF204
C:\Users\stapi\AppData\Local\Temp\cciDKFtg.s:3599   .debug_str:0000000000000e01 .LASF205
C:\Users\stapi\AppData\Local\Temp\cciDKFtg.s:3833   .debug_str:00000000000019bf .LASF206
C:\Users\stapi\AppData\Local\Temp\cciDKFtg.s:3459   .debug_str:0000000000000710 .LASF207
C:\Users\stapi\AppData\Local\Temp\cciDKFtg.s:3911   .debug_str:0000000000001df1 .LASF208
C:\Users\stapi\AppData\Local\Temp\cciDKFtg.s:3705   .debug_str:00000000000012d5 .LASF209
C:\Users\stapi\AppData\Local\Temp\cciDKFtg.s:3659   .debug_str:00000000000010c6 .LASF210
C:\Users\stapi\AppData\Local\Temp\cciDKFtg.s:3541   .debug_str:0000000000000aec .LASF211
C:\Users\stapi\AppData\Local\Temp\cciDKFtg.s:3783   .debug_str:000000000000170c .LASF212
C:\Users\stapi\AppData\Local\Temp\cciDKFtg.s:3933   .debug_str:0000000000001ee9 .LASF213
C:\Users\stapi\AppData\Local\Temp\cciDKFtg.s:3775   .debug_str:00000000000016ae .LASF214
C:\Users\stapi\AppData\Local\Temp\cciDKFtg.s:3817   .debug_str:00000000000018da .LASF215
C:\Users\stapi\AppData\Local\Temp\cciDKFtg.s:3799   .debug_str:00000000000017fe .LASF216
C:\Users\stapi\AppData\Local\Temp\cciDKFtg.s:3575   .debug_str:0000000000000cc3 .LASF217
C:\Users\stapi\AppData\Local\Temp\cciDKFtg.s:3937   .debug_str:0000000000001f14 .LASF218
C:\Users\stapi\AppData\Local\Temp\cciDKFtg.s:3869   .debug_str:0000000000001bc9 .LASF219
C:\Users\stapi\AppData\Local\Temp\cciDKFtg.s:3955   .debug_str:0000000000002000 .LASF220
C:\Users\stapi\AppData\Local\Temp\cciDKFtg.s:3757   .debug_str:00000000000015e9 .LASF221
C:\Users\stapi\AppData\Local\Temp\cciDKFtg.s:3759   .debug_str:0000000000001605 .LASF222
C:\Users\stapi\AppData\Local\Temp\cciDKFtg.s:3905   .debug_str:0000000000001d98 .LASF223
C:\Users\stapi\AppData\Local\Temp\cciDKFtg.s:3849   .debug_str:0000000000001abd .LASF224
C:\Users\stapi\AppData\Local\Temp\cciDKFtg.s:3735   .debug_str:00000000000014b0 .LASF225
C:\Users\stapi\AppData\Local\Temp\cciDKFtg.s:3747   .debug_str:0000000000001569 .LASF226
C:\Users\stapi\AppData\Local\Temp\cciDKFtg.s:3387   .debug_str:000000000000037a .LASF227
C:\Users\stapi\AppData\Local\Temp\cciDKFtg.s:3785   .debug_str:0000000000001726 .LASF228
C:\Users\stapi\AppData\Local\Temp\cciDKFtg.s:3677   .debug_str:000000000000117f .LASF229
C:\Users\stapi\AppData\Local\Temp\cciDKFtg.s:3803   .debug_str:0000000000001830 .LASF230
C:\Users\stapi\AppData\Local\Temp\cciDKFtg.s:3843   .debug_str:0000000000001a57 .LASF231
C:\Users\stapi\AppData\Local\Temp\cciDKFtg.s:3889   .debug_str:0000000000001cc8 .LASF232
C:\Users\stapi\AppData\Local\Temp\cciDKFtg.s:3861   .debug_str:0000000000001b57 .LASF233
C:\Users\stapi\AppData\Local\Temp\cciDKFtg.s:3847   .debug_str:0000000000001a95 .LASF234
C:\Users\stapi\AppData\Local\Temp\cciDKFtg.s:3899   .debug_str:0000000000001d4a .LASF235
C:\Users\stapi\AppData\Local\Temp\cciDKFtg.s:3655   .debug_str:000000000000108e .LASF236
C:\Users\stapi\AppData\Local\Temp\cciDKFtg.s:3835   .debug_str:00000000000019de .LASF237
C:\Users\stapi\AppData\Local\Temp\cciDKFtg.s:3823   .debug_str:0000000000001926 .LASF238
C:\Users\stapi\AppData\Local\Temp\cciDKFtg.s:3837   .debug_str:0000000000001a04 .LASF239
C:\Users\stapi\AppData\Local\Temp\cciDKFtg.s:3609   .debug_str:0000000000000e8c .LASF240
C:\Users\stapi\AppData\Local\Temp\cciDKFtg.s:3693   .debug_str:000000000000122f .LASF241
C:\Users\stapi\AppData\Local\Temp\cciDKFtg.s:3679   .debug_str:000000000000119f .LASF242
C:\Users\stapi\AppData\Local\Temp\cciDKFtg.s:3589   .debug_str:0000000000000d82 .LASF243
C:\Users\stapi\AppData\Local\Temp\cciDKFtg.s:3631   .debug_str:0000000000000f72 .LASF244
C:\Users\stapi\AppData\Local\Temp\cciDKFtg.s:3539   .debug_str:0000000000000ace .LASF245
C:\Users\stapi\AppData\Local\Temp\cciDKFtg.s:3505   .debug_str:000000000000093d .LASF246
C:\Users\stapi\AppData\Local\Temp\cciDKFtg.s:3359   .debug_str:0000000000000121 .LASF247
C:\Users\stapi\AppData\Local\Temp\cciDKFtg.s:3421   .debug_str:0000000000000551 .LASF248
C:\Users\stapi\AppData\Local\Temp\cciDKFtg.s:3417   .debug_str:0000000000000519 .LASF249
C:\Users\stapi\AppData\Local\Temp\cciDKFtg.s:3729   .debug_str:0000000000001453 .LASF250
C:\Users\stapi\AppData\Local\Temp\cciDKFtg.s:3367   .debug_str:000000000000019c .LASF251
C:\Users\stapi\AppData\Local\Temp\cciDKFtg.s:3397   .debug_str:0000000000000404 .LASF252
C:\Users\stapi\AppData\Local\Temp\cciDKFtg.s:3423   .debug_str:000000000000056c .LASF253
C:\Users\stapi\AppData\Local\Temp\cciDKFtg.s:3859   .debug_str:0000000000001b3d .LASF254
C:\Users\stapi\AppData\Local\Temp\cciDKFtg.s:3581   .debug_str:0000000000000d1b .LASF255
C:\Users\stapi\AppData\Local\Temp\cciDKFtg.s:3365   .debug_str:0000000000000184 .LASF256
C:\Users\stapi\AppData\Local\Temp\cciDKFtg.s:3663   .debug_str:00000000000010ea .LASF257
C:\Users\stapi\AppData\Local\Temp\cciDKFtg.s:3607   .debug_str:0000000000000e71 .LASF258
C:\Users\stapi\AppData\Local\Temp\cciDKFtg.s:3921   .debug_str:0000000000001e5b .LASF259
C:\Users\stapi\AppData\Local\Temp\cciDKFtg.s:3737   .debug_str:00000000000014cd .LASF260
C:\Users\stapi\AppData\Local\Temp\cciDKFtg.s:3535   .debug_str:0000000000000a90 .LASF261
C:\Users\stapi\AppData\Local\Temp\cciDKFtg.s:3931   .debug_str:0000000000001ed0 .LASF262
C:\Users\stapi\AppData\Local\Temp\cciDKFtg.s:3769   .debug_str:0000000000001663 .LASF263
C:\Users\stapi\AppData\Local\Temp\cciDKFtg.s:3525   .debug_str:0000000000000a0d .LASF264
C:\Users\stapi\AppData\Local\Temp\cciDKFtg.s:3619   .debug_str:0000000000000ef2 .LASF265
C:\Users\stapi\AppData\Local\Temp\cciDKFtg.s:3405   .debug_str:0000000000000481 .LASF266
C:\Users\stapi\AppData\Local\Temp\cciDKFtg.s:3951   .debug_str:0000000000001fe0 .LASF267
C:\Users\stapi\AppData\Local\Temp\cciDKFtg.s:3499   .debug_str:00000000000008f7 .LASF268
C:\Users\stapi\AppData\Local\Temp\cciDKFtg.s:3903   .debug_str:0000000000001d8c .LASF269
C:\Users\stapi\AppData\Local\Temp\cciDKFtg.s:3815   .debug_str:00000000000018c8 .LASF270
C:\Users\stapi\AppData\Local\Temp\cciDKFtg.s:3621   .debug_str:0000000000000f07 .LASF271
C:\Users\stapi\AppData\Local\Temp\cciDKFtg.s:3749   .debug_str:000000000000158d .LASF272
C:\Users\stapi\AppData\Local\Temp\cciDKFtg.s:3355   .debug_str:000000000000010a .LASF273
C:\Users\stapi\AppData\Local\Temp\cciDKFtg.s:3625   .debug_str:0000000000000f22 .LASF274
C:\Users\stapi\AppData\Local\Temp\cciDKFtg.s:3661   .debug_str:00000000000010e4 .LASF275
C:\Users\stapi\AppData\Local\Temp\cciDKFtg.s:3819   .debug_str:00000000000018fe .LASF276
C:\Users\stapi\AppData\Local\Temp\cciDKFtg.s:3451   .debug_str:00000000000006ae .LASF277
C:\Users\stapi\AppData\Local\Temp\cciDKFtg.s:3553   .debug_str:0000000000000b98 .LASF306
C:\Users\stapi\AppData\Local\Temp\cciDKFtg.s:3721   .debug_str:0000000000001402 .LASF279
C:\Users\stapi\AppData\Local\Temp\cciDKFtg.s:460    .text.dm_ipc_msg_next:0000000000000000 .LFB26
C:\Users\stapi\AppData\Local\Temp\cciDKFtg.s:602    .text.dm_ipc_msg_next:0000000000000074 .LFE26
C:\Users\stapi\AppData\Local\Temp\cciDKFtg.s:2974   .debug_loc:0000000000000000 .LLST16
C:\Users\stapi\AppData\Local\Temp\cciDKFtg.s:3543   .debug_str:0000000000000b0c .LASF278
C:\Users\stapi\AppData\Local\Temp\cciDKFtg.s:2996   .debug_loc:0000000000000037 .LLST17
C:\Users\stapi\AppData\Local\Temp\cciDKFtg.s:484    .text.dm_ipc_msg_next:0000000000000012 .LBB64
C:\Users\stapi\AppData\Local\Temp\cciDKFtg.s:3008   .debug_loc:0000000000000056 .LLST18
C:\Users\stapi\AppData\Local\Temp\cciDKFtg.s:502    .text.dm_ipc_msg_next:0000000000000028 .LVL45
C:\Users\stapi\AppData\Local\Temp\cciDKFtg.s:507    .text.dm_ipc_msg_next:0000000000000028 .LBB68
C:\Users\stapi\AppData\Local\Temp\cciDKFtg.s:514    .text.dm_ipc_msg_next:000000000000002a .LBE68
C:\Users\stapi\AppData\Local\Temp\cciDKFtg.s:3023   .debug_loc:000000000000007e .LLST19
C:\Users\stapi\AppData\Local\Temp\cciDKFtg.s:537    .text.dm_ipc_msg_next:0000000000000044 .LBB70
C:\Users\stapi\AppData\Local\Temp\cciDKFtg.s:3032   .debug_loc:0000000000000096 .LLST20
C:\Users\stapi\AppData\Local\Temp\cciDKFtg.s:3050   .debug_loc:00000000000000c5 .LLST21
C:\Users\stapi\AppData\Local\Temp\cciDKFtg.s:3057   .debug_loc:00000000000000d8 .LLST22
C:\Users\stapi\AppData\Local\Temp\cciDKFtg.s:520    .text.dm_ipc_msg_next:000000000000003a .LVL47
C:\Users\stapi\AppData\Local\Temp\cciDKFtg.s:580    .text.dm_ipc_msg_next:0000000000000064 .LVL54
C:\Users\stapi\AppData\Local\Temp\cciDKFtg.s:585    .text.dm_ipc_msg_next:000000000000006c .LVL55
C:\Users\stapi\AppData\Local\Temp\cciDKFtg.s:3623   .debug_str:0000000000000f10 .LASF280
C:\Users\stapi\AppData\Local\Temp\cciDKFtg.s:254    .text.dm_ipc_msg_insert:0000000000000000 .LFB25
C:\Users\stapi\AppData\Local\Temp\cciDKFtg.s:453    .text.dm_ipc_msg_insert:00000000000000f2 .LFE25
C:\Users\stapi\AppData\Local\Temp\cciDKFtg.s:3064   .debug_loc:00000000000000eb .LLST8
C:\Users\stapi\AppData\Local\Temp\cciDKFtg.s:3086   .debug_loc:0000000000000122 .LLST9
C:\Users\stapi\AppData\Local\Temp\cciDKFtg.s:3709   .debug_str:000000000000130b .LASF307
C:\Users\stapi\AppData\Local\Temp\cciDKFtg.s:271    .text.dm_ipc_msg_insert:000000000000000a .LBB44
C:\Users\stapi\AppData\Local\Temp\cciDKFtg.s:3108   .debug_loc:0000000000000159 .LLST10
C:\Users\stapi\AppData\Local\Temp\cciDKFtg.s:297    .text.dm_ipc_msg_insert:0000000000000022 .LVL23
C:\Users\stapi\AppData\Local\Temp\cciDKFtg.s:385    .text.dm_ipc_msg_insert:00000000000000ca .LBB50
C:\Users\stapi\AppData\Local\Temp\cciDKFtg.s:407    .text.dm_ipc_msg_insert:00000000000000d4 .LBB54
C:\Users\stapi\AppData\Local\Temp\cciDKFtg.s:432    .text.dm_ipc_msg_insert:00000000000000e2 .LBE54
C:\Users\stapi\AppData\Local\Temp\cciDKFtg.s:3117   .debug_loc:0000000000000171 .LLST11
C:\Users\stapi\AppData\Local\Temp\cciDKFtg.s:3126   .debug_loc:0000000000000189 .LLST12
C:\Users\stapi\AppData\Local\Temp\cciDKFtg.s:413    .text.dm_ipc_msg_insert:00000000000000d6 .LBB56
C:\Users\stapi\AppData\Local\Temp\cciDKFtg.s:430    .text.dm_ipc_msg_insert:00000000000000e2 .LBE56
C:\Users\stapi\AppData\Local\Temp\cciDKFtg.s:3133   .debug_loc:000000000000019c .LLST13
C:\Users\stapi\AppData\Local\Temp\cciDKFtg.s:3142   .debug_loc:00000000000001b4 .LLST14
C:\Users\stapi\AppData\Local\Temp\cciDKFtg.s:3149   .debug_loc:00000000000001c7 .LLST15
C:\Users\stapi\AppData\Local\Temp\cciDKFtg.s:313    .text.dm_ipc_msg_insert:000000000000004e .LVL24
C:\Users\stapi\AppData\Local\Temp\cciDKFtg.s:324    .text.dm_ipc_msg_insert:0000000000000066 .LVL25
C:\Users\stapi\AppData\Local\Temp\cciDKFtg.s:329    .text.dm_ipc_msg_insert:0000000000000076 .LVL26
C:\Users\stapi\AppData\Local\Temp\cciDKFtg.s:334    .text.dm_ipc_msg_insert:0000000000000086 .LVL27
C:\Users\stapi\AppData\Local\Temp\cciDKFtg.s:338    .text.dm_ipc_msg_insert:000000000000008e .LVL28
C:\Users\stapi\AppData\Local\Temp\cciDKFtg.s:361    .text.dm_ipc_msg_insert:00000000000000a6 .LVL31
C:\Users\stapi\AppData\Local\Temp\cciDKFtg.s:369    .text.dm_ipc_msg_insert:00000000000000b2 .LVL33
C:\Users\stapi\AppData\Local\Temp\cciDKFtg.s:381    .text.dm_ipc_msg_insert:00000000000000c8 .LVL34
C:\Users\stapi\AppData\Local\Temp\cciDKFtg.s:435    .text.dm_ipc_msg_insert:00000000000000ea .LVL39
C:\Users\stapi\AppData\Local\Temp\cciDKFtg.s:3587   .debug_str:0000000000000d74 .LASF308
C:\Users\stapi\AppData\Local\Temp\cciDKFtg.s:118    .text.dm_ipc_deinit:0000000000000000 .LFB24
C:\Users\stapi\AppData\Local\Temp\cciDKFtg.s:231    .text.dm_ipc_deinit:000000000000007a .LFE24
C:\Users\stapi\AppData\Local\Temp\cciDKFtg.s:3465   .debug_str:0000000000000766 .LASF281
C:\Users\stapi\AppData\Local\Temp\cciDKFtg.s:3156   .debug_loc:00000000000001da .LLST2
C:\Users\stapi\AppData\Local\Temp\cciDKFtg.s:3357   .debug_str:0000000000000117 .LASF282
C:\Users\stapi\AppData\Local\Temp\cciDKFtg.s:3176   .debug_loc:000000000000020f .LLST3
C:\Users\stapi\AppData\Local\Temp\cciDKFtg.s:3523   .debug_str:0000000000000a05 .LASF283
C:\Users\stapi\AppData\Local\Temp\cciDKFtg.s:3198   .debug_loc:0000000000000246 .LLST4
C:\Users\stapi\AppData\Local\Temp\cciDKFtg.s:192    .text.dm_ipc_deinit:000000000000005c .LBB32
C:\Users\stapi\AppData\Local\Temp\cciDKFtg.s:3215   .debug_loc:0000000000000271 .LLST5
C:\Users\stapi\AppData\Local\Temp\cciDKFtg.s:3230   .debug_loc:0000000000000293 .LLST6
C:\Users\stapi\AppData\Local\Temp\cciDKFtg.s:3237   .debug_loc:00000000000002a6 .LLST7
C:\Users\stapi\AppData\Local\Temp\cciDKFtg.s:143    .text.dm_ipc_deinit:000000000000001e .LVL8
C:\Users\stapi\AppData\Local\Temp\cciDKFtg.s:179    .text.dm_ipc_deinit:000000000000004e .LVL12
C:\Users\stapi\AppData\Local\Temp\cciDKFtg.s:187    .text.dm_ipc_deinit:000000000000005c .LVL13
C:\Users\stapi\AppData\Local\Temp\cciDKFtg.s:221    .text.dm_ipc_deinit:0000000000000070 .LVL17
C:\Users\stapi\AppData\Local\Temp\cciDKFtg.s:3873   .debug_str:0000000000001c0b .LASF284
C:\Users\stapi\AppData\Local\Temp\cciDKFtg.s:39     .text.dm_ipc_init:0000000000000000 .LFB23
C:\Users\stapi\AppData\Local\Temp\cciDKFtg.s:111    .text.dm_ipc_init:000000000000004a .LFE23
C:\Users\stapi\AppData\Local\Temp\cciDKFtg.s:3244   .debug_loc:00000000000002b9 .LLST0
C:\Users\stapi\AppData\Local\Temp\cciDKFtg.s:72     .text.dm_ipc_init:0000000000000032 .LBB26
C:\Users\stapi\AppData\Local\Temp\cciDKFtg.s:3255   .debug_loc:00000000000002d7 .LLST1
C:\Users\stapi\AppData\Local\Temp\cciDKFtg.s:65     .text.dm_ipc_init:000000000000002e .LVL4
C:\Users\stapi\AppData\Local\Temp\cciDKFtg.s:3965   .debug_str:0000000000002091 .LASF309
C:\Users\stapi\AppData\Local\Temp\cciDKFtg.s:13     .text._dm_ipc_unlock:0000000000000000 .LFB22
C:\Users\stapi\AppData\Local\Temp\cciDKFtg.s:32     .text._dm_ipc_unlock:0000000000000014 .LFE22
C:\Users\stapi\AppData\Local\Temp\cciDKFtg.s:28     .text._dm_ipc_unlock:0000000000000012 .LVL1
C:\Users\stapi\AppData\Local\Temp\cciDKFtg.s:3393   .debug_str:00000000000003d9 .LASF285
C:\Users\stapi\AppData\Local\Temp\cciDKFtg.s:3841   .debug_str:0000000000001a47 .LASF310
C:\Users\stapi\AppData\Local\Temp\cciDKFtg.s:3687   .debug_str:000000000000120a .LASF311
C:\Users\stapi\AppData\Local\Temp\cciDKFtg.s:3449   .debug_str:00000000000006a9 .LASF287
C:\Users\stapi\AppData\Local\Temp\cciDKFtg.s:3407   .debug_str:0000000000000486 .LASF286
C:\Users\stapi\AppData\Local\Temp\cciDKFtg.s:3711   .debug_str:0000000000001318 .LASF288
C:\Users\stapi\AppData\Local\Temp\cciDKFtg.s:3865   .debug_str:0000000000001b9e .LASF289
C:\Users\stapi\AppData\Local\Temp\cciDKFtg.s:3477   .debug_str:00000000000007da .LASF290
C:\Users\stapi\AppData\Local\Temp\cciDKFtg.s:3767   .debug_str:000000000000165d .LASF291
C:\Users\stapi\AppData\Local\Temp\cciDKFtg.s:3897   .debug_str:0000000000001d3e .LASF292
C:\Users\stapi\AppData\Local\Temp\cciDKFtg.s:3967   .debug_str:00000000000020a0 .LASF293
C:\Users\stapi\AppData\Local\Temp\cciDKFtg.s:3483   .debug_str:0000000000000816 .LASF294
C:\Users\stapi\AppData\Local\Temp\cciDKFtg.s:3377   .debug_str:00000000000002fc .LASF295
C:\Users\stapi\AppData\Local\Temp\cciDKFtg.s:3665   .debug_str:0000000000001102 .LASF296
C:\Users\stapi\AppData\Local\Temp\cciDKFtg.s:3593   .debug_str:0000000000000dc4 .LASF297
C:\Users\stapi\AppData\Local\Temp\cciDKFtg.s:3511   .debug_str:0000000000000980 .LASF312
C:\Users\stapi\AppData\Local\Temp\cciDKFtg.s:3441   .debug_str:000000000000064c .LASF313
C:\Users\stapi\AppData\Local\Temp\cciDKFtg.s:3673   .debug_str:0000000000001162 .LASF298
C:\Users\stapi\AppData\Local\Temp\cciDKFtg.s:3611   .debug_str:0000000000000eaf .LASF299
C:\Users\stapi\AppData\Local\Temp\cciDKFtg.s:3853   .debug_str:0000000000001af6 .LASF300
C:\Users\stapi\AppData\Local\Temp\cciDKFtg.s:463    .text.dm_ipc_msg_next:0000000000000000 .LVL42
C:\Users\stapi\AppData\Local\Temp\cciDKFtg.s:480    .text.dm_ipc_msg_next:0000000000000010 .LVL43
C:\Users\stapi\AppData\Local\Temp\cciDKFtg.s:590    .text.dm_ipc_msg_next:0000000000000070 .LVL56
C:\Users\stapi\AppData\Local\Temp\cciDKFtg.s:598    .text.dm_ipc_msg_next:0000000000000072 .LVL57
C:\Users\stapi\AppData\Local\Temp\cciDKFtg.s:547    .text.dm_ipc_msg_next:000000000000004c .LVL50
C:\Users\stapi\AppData\Local\Temp\cciDKFtg.s:490    .text.dm_ipc_msg_next:0000000000000012 .LVL44
C:\Users\stapi\AppData\Local\Temp\cciDKFtg.s:524    .text.dm_ipc_msg_next:000000000000003c .LVL48
C:\Users\stapi\AppData\Local\Temp\cciDKFtg.s:533    .text.dm_ipc_msg_next:0000000000000044 .LVL49
C:\Users\stapi\AppData\Local\Temp\cciDKFtg.s:512    .text.dm_ipc_msg_next:000000000000002a .LVL46
C:\Users\stapi\AppData\Local\Temp\cciDKFtg.s:558    .text.dm_ipc_msg_next:0000000000000050 .LVL51
C:\Users\stapi\AppData\Local\Temp\cciDKFtg.s:563    .text.dm_ipc_msg_next:0000000000000052 .LVL52
C:\Users\stapi\AppData\Local\Temp\cciDKFtg.s:567    .text.dm_ipc_msg_next:0000000000000054 .LVL53
C:\Users\stapi\AppData\Local\Temp\cciDKFtg.s:257    .text.dm_ipc_msg_insert:0000000000000000 .LVL20
C:\Users\stapi\AppData\Local\Temp\cciDKFtg.s:291    .text.dm_ipc_msg_insert:0000000000000014 .LVL22
C:\Users\stapi\AppData\Local\Temp\cciDKFtg.s:440    .text.dm_ipc_msg_insert:00000000000000ee .LVL40
C:\Users\stapi\AppData\Local\Temp\cciDKFtg.s:449    .text.dm_ipc_msg_insert:00000000000000f0 .LVL41
C:\Users\stapi\AppData\Local\Temp\cciDKFtg.s:342    .text.dm_ipc_msg_insert:0000000000000090 .LVL29
C:\Users\stapi\AppData\Local\Temp\cciDKFtg.s:352    .text.dm_ipc_msg_insert:0000000000000098 .LVL30
C:\Users\stapi\AppData\Local\Temp\cciDKFtg.s:363    .text.dm_ipc_msg_insert:00000000000000a8 .LVL32
C:\Users\stapi\AppData\Local\Temp\cciDKFtg.s:285    .text.dm_ipc_msg_insert:0000000000000010 .LVL21
C:\Users\stapi\AppData\Local\Temp\cciDKFtg.s:406    .text.dm_ipc_msg_insert:00000000000000d4 .LVL36
C:\Users\stapi\AppData\Local\Temp\cciDKFtg.s:428    .text.dm_ipc_msg_insert:00000000000000e2 .LVL38
C:\Users\stapi\AppData\Local\Temp\cciDKFtg.s:412    .text.dm_ipc_msg_insert:00000000000000d6 .LVL37
C:\Users\stapi\AppData\Local\Temp\cciDKFtg.s:130    .text.dm_ipc_deinit:0000000000000008 .LVL7
C:\Users\stapi\AppData\Local\Temp\cciDKFtg.s:150    .text.dm_ipc_deinit:000000000000002a .LVL9
C:\Users\stapi\AppData\Local\Temp\cciDKFtg.s:208    .text.dm_ipc_deinit:0000000000000064 .LVL15
C:\Users\stapi\AppData\Local\Temp\cciDKFtg.s:152    .text.dm_ipc_deinit:000000000000002c .LVL10
C:\Users\stapi\AppData\Local\Temp\cciDKFtg.s:226    .text.dm_ipc_deinit:0000000000000074 .LVL18
C:\Users\stapi\AppData\Local\Temp\cciDKFtg.s:228    .text.dm_ipc_deinit:0000000000000078 .LVL19
C:\Users\stapi\AppData\Local\Temp\cciDKFtg.s:171    .text.dm_ipc_deinit:0000000000000040 .LVL11
C:\Users\stapi\AppData\Local\Temp\cciDKFtg.s:216    .text.dm_ipc_deinit:0000000000000068 .LVL16
C:\Users\stapi\AppData\Local\Temp\cciDKFtg.s:199    .text.dm_ipc_deinit:0000000000000060 .LVL14
C:\Users\stapi\AppData\Local\Temp\cciDKFtg.s:42     .text.dm_ipc_init:0000000000000000 .LVL2
C:\Users\stapi\AppData\Local\Temp\cciDKFtg.s:82     .text.dm_ipc_init:0000000000000038 .LVL5
C:\Users\stapi\AppData\Local\Temp\cciDKFtg.s:91     .text.dm_ipc_init:000000000000003c .LVL6
C:\Users\stapi\AppData\Local\Temp\cciDKFtg.s:630    .debug_info:0000000000000000 .Ldebug_info0
C:\Users\stapi\AppData\Local\Temp\cciDKFtg.s:78     .text.dm_ipc_init:0000000000000036 .LBE26
C:\Users\stapi\AppData\Local\Temp\cciDKFtg.s:83     .text.dm_ipc_init:0000000000000038 .LBB29
C:\Users\stapi\AppData\Local\Temp\cciDKFtg.s:93     .text.dm_ipc_init:000000000000003c .LBE29
C:\Users\stapi\AppData\Local\Temp\cciDKFtg.s:203    .text.dm_ipc_deinit:0000000000000060 .LBE32
C:\Users\stapi\AppData\Local\Temp\cciDKFtg.s:209    .text.dm_ipc_deinit:0000000000000064 .LBB35
C:\Users\stapi\AppData\Local\Temp\cciDKFtg.s:218    .text.dm_ipc_deinit:0000000000000068 .LBE35
C:\Users\stapi\AppData\Local\Temp\cciDKFtg.s:277    .text.dm_ipc_msg_insert:0000000000000010 .LBE44
C:\Users\stapi\AppData\Local\Temp\cciDKFtg.s:279    .text.dm_ipc_msg_insert:0000000000000010 .LBB48
C:\Users\stapi\AppData\Local\Temp\cciDKFtg.s:283    .text.dm_ipc_msg_insert:0000000000000010 .LBE48
C:\Users\stapi\AppData\Local\Temp\cciDKFtg.s:286    .text.dm_ipc_msg_insert:0000000000000010 .LBB49
C:\Users\stapi\AppData\Local\Temp\cciDKFtg.s:300    .text.dm_ipc_msg_insert:0000000000000022 .LBE49
C:\Users\stapi\AppData\Local\Temp\cciDKFtg.s:390    .text.dm_ipc_msg_insert:00000000000000cc .LBE50
C:\Users\stapi\AppData\Local\Temp\cciDKFtg.s:395    .text.dm_ipc_msg_insert:00000000000000d0 .LBB53
C:\Users\stapi\AppData\Local\Temp\cciDKFtg.s:400    .text.dm_ipc_msg_insert:00000000000000d0 .LBE53
C:\Users\stapi\AppData\Local\Temp\cciDKFtg.s:488    .text.dm_ipc_msg_next:0000000000000012 .LBE64
C:\Users\stapi\AppData\Local\Temp\cciDKFtg.s:491    .text.dm_ipc_msg_next:0000000000000012 .LBB67
C:\Users\stapi\AppData\Local\Temp\cciDKFtg.s:505    .text.dm_ipc_msg_next:0000000000000028 .LBE67
C:\Users\stapi\AppData\Local\Temp\cciDKFtg.s:544    .text.dm_ipc_msg_next:0000000000000048 .LBE70
C:\Users\stapi\AppData\Local\Temp\cciDKFtg.s:549    .text.dm_ipc_msg_next:000000000000004c .LBB74
C:\Users\stapi\AppData\Local\Temp\cciDKFtg.s:555    .text.dm_ipc_msg_next:000000000000004c .LBE74
C:\Users\stapi\AppData\Local\Temp\cciDKFtg.s:559    .text.dm_ipc_msg_next:0000000000000050 .LBB75
C:\Users\stapi\AppData\Local\Temp\cciDKFtg.s:569    .text.dm_ipc_msg_next:0000000000000054 .LBE75

UNDEFINED SYMBOLS
HAL_MutexUnlock
__riscv_save_2
HAL_MutexCreate
__riscv_restore_2
__riscv_save_4
HAL_MutexDestroy
__riscv_restore_4
LITE_free_internal
__riscv_save_3
HAL_MutexLock
LITE_syslog
HAL_Printf
__riscv_restore_3
LITE_malloc_internal
memset
