   1              		.file	"dm_msg_process.c"
   2              		.option nopic
   3              		.attribute arch, "rv32i2p0_m2p0_a2p0_f2p0_c2p0_b_p0p94"
   4              		.attribute unaligned_access, 0
   5              		.attribute stack_align, 16
   6              		.text
   7              	.Ltext0:
   8              		.cfi_sections	.debug_frame
   9              		.section	.text.dm_msg_proc_thing_model_down_raw,"ax",@progbits
  10              		.align	1
  11              		.globl	dm_msg_proc_thing_model_down_raw
  13              	dm_msg_proc_thing_model_down_raw:
  14              	.LFB20:
  15              		.file 1 "C:/Users/stapi/OneDrive/Desktop/GD32VW553/V1_MQTT_OK/GD32VW55X_Wifi_BLE_SDK/GD32VW55x_REL
   1:C:/Users/stapi/OneDrive/Desktop/GD32VW553/V1_MQTT_OK/GD32VW55X_Wifi_BLE_SDK/GD32VW55x_RELEASE_V1.0.2/MSDK/cloud/alicloud/src/services/linkkit/dm\dm_msg_process.c **** /*
   2:C:/Users/stapi/OneDrive/Desktop/GD32VW553/V1_MQTT_OK/GD32VW55X_Wifi_BLE_SDK/GD32VW55x_RELEASE_V1.0.2/MSDK/cloud/alicloud/src/services/linkkit/dm\dm_msg_process.c ****  * Copyright (C) 2015-2018 Alibaba Group Holding Limited
   3:C:/Users/stapi/OneDrive/Desktop/GD32VW553/V1_MQTT_OK/GD32VW55X_Wifi_BLE_SDK/GD32VW55x_RELEASE_V1.0.2/MSDK/cloud/alicloud/src/services/linkkit/dm\dm_msg_process.c ****  */
   4:C:/Users/stapi/OneDrive/Desktop/GD32VW553/V1_MQTT_OK/GD32VW55X_Wifi_BLE_SDK/GD32VW55x_RELEASE_V1.0.2/MSDK/cloud/alicloud/src/services/linkkit/dm\dm_msg_process.c **** 
   5:C:/Users/stapi/OneDrive/Desktop/GD32VW553/V1_MQTT_OK/GD32VW55X_Wifi_BLE_SDK/GD32VW55x_RELEASE_V1.0.2/MSDK/cloud/alicloud/src/services/linkkit/dm\dm_msg_process.c **** 
   6:C:/Users/stapi/OneDrive/Desktop/GD32VW553/V1_MQTT_OK/GD32VW55X_Wifi_BLE_SDK/GD32VW55x_RELEASE_V1.0.2/MSDK/cloud/alicloud/src/services/linkkit/dm\dm_msg_process.c **** 
   7:C:/Users/stapi/OneDrive/Desktop/GD32VW553/V1_MQTT_OK/GD32VW55X_Wifi_BLE_SDK/GD32VW55x_RELEASE_V1.0.2/MSDK/cloud/alicloud/src/services/linkkit/dm\dm_msg_process.c **** #include "iotx_dm_internal.h"
   8:C:/Users/stapi/OneDrive/Desktop/GD32VW553/V1_MQTT_OK/GD32VW55X_Wifi_BLE_SDK/GD32VW55x_RELEASE_V1.0.2/MSDK/cloud/alicloud/src/services/linkkit/dm\dm_msg_process.c **** #ifdef AIOT_AUTHORIZE_ENABLE
   9:C:/Users/stapi/OneDrive/Desktop/GD32VW553/V1_MQTT_OK/GD32VW55X_Wifi_BLE_SDK/GD32VW55x_RELEASE_V1.0.2/MSDK/cloud/alicloud/src/services/linkkit/dm\dm_msg_process.c **** #include "aiot_authorize_api.h"
  10:C:/Users/stapi/OneDrive/Desktop/GD32VW553/V1_MQTT_OK/GD32VW55X_Wifi_BLE_SDK/GD32VW55x_RELEASE_V1.0.2/MSDK/cloud/alicloud/src/services/linkkit/dm\dm_msg_process.c **** #endif
  11:C:/Users/stapi/OneDrive/Desktop/GD32VW553/V1_MQTT_OK/GD32VW55X_Wifi_BLE_SDK/GD32VW55x_RELEASE_V1.0.2/MSDK/cloud/alicloud/src/services/linkkit/dm\dm_msg_process.c **** 
  12:C:/Users/stapi/OneDrive/Desktop/GD32VW553/V1_MQTT_OK/GD32VW55X_Wifi_BLE_SDK/GD32VW55x_RELEASE_V1.0.2/MSDK/cloud/alicloud/src/services/linkkit/dm\dm_msg_process.c **** const char DM_URI_SYS_PREFIX[]                        DM_READ_ONLY = "/sys/%s/%s/";
  13:C:/Users/stapi/OneDrive/Desktop/GD32VW553/V1_MQTT_OK/GD32VW55X_Wifi_BLE_SDK/GD32VW55x_RELEASE_V1.0.2/MSDK/cloud/alicloud/src/services/linkkit/dm\dm_msg_process.c **** const char DM_URI_EXT_SESSION_PREFIX[]                DM_READ_ONLY = "/ext/session/%s/%s/";
  14:C:/Users/stapi/OneDrive/Desktop/GD32VW553/V1_MQTT_OK/GD32VW55X_Wifi_BLE_SDK/GD32VW55x_RELEASE_V1.0.2/MSDK/cloud/alicloud/src/services/linkkit/dm\dm_msg_process.c **** const char DM_URI_EXT_NTP_PREFIX[]                    DM_READ_ONLY = "/ext/ntp/%s/%s/";
  15:C:/Users/stapi/OneDrive/Desktop/GD32VW553/V1_MQTT_OK/GD32VW55X_Wifi_BLE_SDK/GD32VW55x_RELEASE_V1.0.2/MSDK/cloud/alicloud/src/services/linkkit/dm\dm_msg_process.c **** const char DM_URI_EXT_ERROR_PREFIX[]                  DM_READ_ONLY = "/ext/error/%s/%s";
  16:C:/Users/stapi/OneDrive/Desktop/GD32VW553/V1_MQTT_OK/GD32VW55X_Wifi_BLE_SDK/GD32VW55x_RELEASE_V1.0.2/MSDK/cloud/alicloud/src/services/linkkit/dm\dm_msg_process.c **** const char DM_URI_REPLY_SUFFIX[]                      DM_READ_ONLY = "_reply";
  17:C:/Users/stapi/OneDrive/Desktop/GD32VW553/V1_MQTT_OK/GD32VW55X_Wifi_BLE_SDK/GD32VW55x_RELEASE_V1.0.2/MSDK/cloud/alicloud/src/services/linkkit/dm\dm_msg_process.c **** 
  18:C:/Users/stapi/OneDrive/Desktop/GD32VW553/V1_MQTT_OK/GD32VW55X_Wifi_BLE_SDK/GD32VW55x_RELEASE_V1.0.2/MSDK/cloud/alicloud/src/services/linkkit/dm\dm_msg_process.c **** /* From Cloud To Local Request And Response*/
  19:C:/Users/stapi/OneDrive/Desktop/GD32VW553/V1_MQTT_OK/GD32VW55X_Wifi_BLE_SDK/GD32VW55x_RELEASE_V1.0.2/MSDK/cloud/alicloud/src/services/linkkit/dm\dm_msg_process.c **** const char DM_URI_THING_MODEL_DOWN_RAW[]              DM_READ_ONLY = "thing/model/down_raw";
  20:C:/Users/stapi/OneDrive/Desktop/GD32VW553/V1_MQTT_OK/GD32VW55X_Wifi_BLE_SDK/GD32VW55x_RELEASE_V1.0.2/MSDK/cloud/alicloud/src/services/linkkit/dm\dm_msg_process.c **** const char DM_URI_THING_MODEL_DOWN_RAW_REPLY[]        DM_READ_ONLY = "thing/model/down_raw_reply";
  21:C:/Users/stapi/OneDrive/Desktop/GD32VW553/V1_MQTT_OK/GD32VW55X_Wifi_BLE_SDK/GD32VW55x_RELEASE_V1.0.2/MSDK/cloud/alicloud/src/services/linkkit/dm\dm_msg_process.c **** 
  22:C:/Users/stapi/OneDrive/Desktop/GD32VW553/V1_MQTT_OK/GD32VW55X_Wifi_BLE_SDK/GD32VW55x_RELEASE_V1.0.2/MSDK/cloud/alicloud/src/services/linkkit/dm\dm_msg_process.c **** /* From Local To Cloud Request And Response*/
  23:C:/Users/stapi/OneDrive/Desktop/GD32VW553/V1_MQTT_OK/GD32VW55X_Wifi_BLE_SDK/GD32VW55x_RELEASE_V1.0.2/MSDK/cloud/alicloud/src/services/linkkit/dm\dm_msg_process.c **** const char DM_URI_THING_MODEL_UP_RAW[]                DM_READ_ONLY = "thing/model/up_raw";
  24:C:/Users/stapi/OneDrive/Desktop/GD32VW553/V1_MQTT_OK/GD32VW55X_Wifi_BLE_SDK/GD32VW55x_RELEASE_V1.0.2/MSDK/cloud/alicloud/src/services/linkkit/dm\dm_msg_process.c **** const char DM_URI_THING_MODEL_UP_RAW_REPLY[]          DM_READ_ONLY = "thing/model/up_raw_reply";
  25:C:/Users/stapi/OneDrive/Desktop/GD32VW553/V1_MQTT_OK/GD32VW55X_Wifi_BLE_SDK/GD32VW55x_RELEASE_V1.0.2/MSDK/cloud/alicloud/src/services/linkkit/dm\dm_msg_process.c **** 
  26:C:/Users/stapi/OneDrive/Desktop/GD32VW553/V1_MQTT_OK/GD32VW55X_Wifi_BLE_SDK/GD32VW55x_RELEASE_V1.0.2/MSDK/cloud/alicloud/src/services/linkkit/dm\dm_msg_process.c **** const char DM_URI_RRPC_REQUEST_WILDCARD[]             DM_READ_ONLY = "rrpc/request/+";
  27:C:/Users/stapi/OneDrive/Desktop/GD32VW553/V1_MQTT_OK/GD32VW55X_Wifi_BLE_SDK/GD32VW55x_RELEASE_V1.0.2/MSDK/cloud/alicloud/src/services/linkkit/dm\dm_msg_process.c **** #if !defined(DEVICE_MODEL_RAWDATA_SOLO)
  28:C:/Users/stapi/OneDrive/Desktop/GD32VW553/V1_MQTT_OK/GD32VW55X_Wifi_BLE_SDK/GD32VW55x_RELEASE_V1.0.2/MSDK/cloud/alicloud/src/services/linkkit/dm\dm_msg_process.c **** #ifdef LINK_VISUAL_ENABLE
  29:C:/Users/stapi/OneDrive/Desktop/GD32VW553/V1_MQTT_OK/GD32VW55X_Wifi_BLE_SDK/GD32VW55x_RELEASE_V1.0.2/MSDK/cloud/alicloud/src/services/linkkit/dm\dm_msg_process.c ****     const char DM_URI_LINK_VISUAL_WILDCARD_DOWNSTREAM[]   DM_READ_ONLY = "vision/+/+/+/downstream";
  30:C:/Users/stapi/OneDrive/Desktop/GD32VW553/V1_MQTT_OK/GD32VW55X_Wifi_BLE_SDK/GD32VW55x_RELEASE_V1.0.2/MSDK/cloud/alicloud/src/services/linkkit/dm\dm_msg_process.c ****     const char DM_URI_LINK_VISUAL_WILDCARD_INVOKE[]       DM_READ_ONLY = "vision/+/+/+/invoke";
  31:C:/Users/stapi/OneDrive/Desktop/GD32VW553/V1_MQTT_OK/GD32VW55X_Wifi_BLE_SDK/GD32VW55x_RELEASE_V1.0.2/MSDK/cloud/alicloud/src/services/linkkit/dm\dm_msg_process.c ****     const char DM_URI_LINK_VISUAL_WILDCARD_DOWNSTREAM_2[]   DM_READ_ONLY = "vision/+/+/downstream";
  32:C:/Users/stapi/OneDrive/Desktop/GD32VW553/V1_MQTT_OK/GD32VW55X_Wifi_BLE_SDK/GD32VW55x_RELEASE_V1.0.2/MSDK/cloud/alicloud/src/services/linkkit/dm\dm_msg_process.c ****     const char DM_URI_LINK_VISUAL_WILDCARD_INVOKE_2[]       DM_READ_ONLY = "vision/+/+/invoke";
  33:C:/Users/stapi/OneDrive/Desktop/GD32VW553/V1_MQTT_OK/GD32VW55X_Wifi_BLE_SDK/GD32VW55x_RELEASE_V1.0.2/MSDK/cloud/alicloud/src/services/linkkit/dm\dm_msg_process.c **** #endif
  34:C:/Users/stapi/OneDrive/Desktop/GD32VW553/V1_MQTT_OK/GD32VW55X_Wifi_BLE_SDK/GD32VW55x_RELEASE_V1.0.2/MSDK/cloud/alicloud/src/services/linkkit/dm\dm_msg_process.c **** 
  35:C:/Users/stapi/OneDrive/Desktop/GD32VW553/V1_MQTT_OK/GD32VW55X_Wifi_BLE_SDK/GD32VW55x_RELEASE_V1.0.2/MSDK/cloud/alicloud/src/services/linkkit/dm\dm_msg_process.c **** /* From Cloud To Local Request And Response*/
  36:C:/Users/stapi/OneDrive/Desktop/GD32VW553/V1_MQTT_OK/GD32VW55X_Wifi_BLE_SDK/GD32VW55x_RELEASE_V1.0.2/MSDK/cloud/alicloud/src/services/linkkit/dm\dm_msg_process.c ****     const char DM_URI_THING_SERVICE_PROPERTY_SET[]        DM_READ_ONLY = "thing/service/property/se
  37:C:/Users/stapi/OneDrive/Desktop/GD32VW553/V1_MQTT_OK/GD32VW55X_Wifi_BLE_SDK/GD32VW55x_RELEASE_V1.0.2/MSDK/cloud/alicloud/src/services/linkkit/dm\dm_msg_process.c ****     const char DM_URI_THING_SERVICE_PROPERTY_SET_REPLY[]  DM_READ_ONLY = "thing/service/property/se
  38:C:/Users/stapi/OneDrive/Desktop/GD32VW553/V1_MQTT_OK/GD32VW55X_Wifi_BLE_SDK/GD32VW55x_RELEASE_V1.0.2/MSDK/cloud/alicloud/src/services/linkkit/dm\dm_msg_process.c ****     const char DM_URI_THING_SERVICE_PROPERTY_GET[]        DM_READ_ONLY = "thing/service/property/ge
  39:C:/Users/stapi/OneDrive/Desktop/GD32VW553/V1_MQTT_OK/GD32VW55X_Wifi_BLE_SDK/GD32VW55x_RELEASE_V1.0.2/MSDK/cloud/alicloud/src/services/linkkit/dm\dm_msg_process.c ****     const char DM_URI_THING_SERVICE_PROPERTY_GET_REPLY[]  DM_READ_ONLY = "thing/service/property/ge
  40:C:/Users/stapi/OneDrive/Desktop/GD32VW553/V1_MQTT_OK/GD32VW55X_Wifi_BLE_SDK/GD32VW55x_RELEASE_V1.0.2/MSDK/cloud/alicloud/src/services/linkkit/dm\dm_msg_process.c ****     const char DM_URI_THING_SERVICE_REQUEST_WILDCARD[]    DM_READ_ONLY = "thing/service/+";
  41:C:/Users/stapi/OneDrive/Desktop/GD32VW553/V1_MQTT_OK/GD32VW55X_Wifi_BLE_SDK/GD32VW55x_RELEASE_V1.0.2/MSDK/cloud/alicloud/src/services/linkkit/dm\dm_msg_process.c ****     const char DM_URI_THING_SERVICE_REQUEST_WILDCARD2[]   DM_READ_ONLY = "thing/service/#";
  42:C:/Users/stapi/OneDrive/Desktop/GD32VW553/V1_MQTT_OK/GD32VW55X_Wifi_BLE_SDK/GD32VW55x_RELEASE_V1.0.2/MSDK/cloud/alicloud/src/services/linkkit/dm\dm_msg_process.c ****     const char DM_URI_THING_SERVICE_REQUEST[]             DM_READ_ONLY = "thing/service/%s";
  43:C:/Users/stapi/OneDrive/Desktop/GD32VW553/V1_MQTT_OK/GD32VW55X_Wifi_BLE_SDK/GD32VW55x_RELEASE_V1.0.2/MSDK/cloud/alicloud/src/services/linkkit/dm\dm_msg_process.c ****     const char DM_URI_THING_SERVICE_RESPONSE[]            DM_READ_ONLY = "thing/service/%.*s_reply"
  44:C:/Users/stapi/OneDrive/Desktop/GD32VW553/V1_MQTT_OK/GD32VW55X_Wifi_BLE_SDK/GD32VW55x_RELEASE_V1.0.2/MSDK/cloud/alicloud/src/services/linkkit/dm\dm_msg_process.c **** 
  45:C:/Users/stapi/OneDrive/Desktop/GD32VW553/V1_MQTT_OK/GD32VW55X_Wifi_BLE_SDK/GD32VW55x_RELEASE_V1.0.2/MSDK/cloud/alicloud/src/services/linkkit/dm\dm_msg_process.c ****     /* From Local To Cloud Request And Response*/
  46:C:/Users/stapi/OneDrive/Desktop/GD32VW553/V1_MQTT_OK/GD32VW55X_Wifi_BLE_SDK/GD32VW55x_RELEASE_V1.0.2/MSDK/cloud/alicloud/src/services/linkkit/dm\dm_msg_process.c ****     const char DM_URI_THING_EVENT_PROPERTY_POST[]         DM_READ_ONLY = "thing/event/property/post
  47:C:/Users/stapi/OneDrive/Desktop/GD32VW553/V1_MQTT_OK/GD32VW55X_Wifi_BLE_SDK/GD32VW55x_RELEASE_V1.0.2/MSDK/cloud/alicloud/src/services/linkkit/dm\dm_msg_process.c ****     const char DM_URI_THING_EVENT_PROPERTY_POST_REPLY[]   DM_READ_ONLY = "thing/event/property/post
  48:C:/Users/stapi/OneDrive/Desktop/GD32VW553/V1_MQTT_OK/GD32VW55X_Wifi_BLE_SDK/GD32VW55x_RELEASE_V1.0.2/MSDK/cloud/alicloud/src/services/linkkit/dm\dm_msg_process.c ****     const char DM_URI_THING_EVENT_POST[]                  DM_READ_ONLY = "thing/event/%.*s/post";
  49:C:/Users/stapi/OneDrive/Desktop/GD32VW553/V1_MQTT_OK/GD32VW55X_Wifi_BLE_SDK/GD32VW55x_RELEASE_V1.0.2/MSDK/cloud/alicloud/src/services/linkkit/dm\dm_msg_process.c ****     const char DM_URI_THING_EVENT_POST_REPLY[]            DM_READ_ONLY = "thing/event/%s/post_reply
  50:C:/Users/stapi/OneDrive/Desktop/GD32VW553/V1_MQTT_OK/GD32VW55X_Wifi_BLE_SDK/GD32VW55x_RELEASE_V1.0.2/MSDK/cloud/alicloud/src/services/linkkit/dm\dm_msg_process.c ****     const char DM_URI_THING_EVENT_POST_REPLY_WILDCARD[]   DM_READ_ONLY = "thing/event/+/post_reply"
  51:C:/Users/stapi/OneDrive/Desktop/GD32VW553/V1_MQTT_OK/GD32VW55X_Wifi_BLE_SDK/GD32VW55x_RELEASE_V1.0.2/MSDK/cloud/alicloud/src/services/linkkit/dm\dm_msg_process.c ****     #ifdef LOG_REPORT_TO_CLOUD
  52:C:/Users/stapi/OneDrive/Desktop/GD32VW553/V1_MQTT_OK/GD32VW55X_Wifi_BLE_SDK/GD32VW55x_RELEASE_V1.0.2/MSDK/cloud/alicloud/src/services/linkkit/dm\dm_msg_process.c ****         const char DM_URI_THING_LOG_POST[]                    DM_READ_ONLY = "thing/log/post";
  53:C:/Users/stapi/OneDrive/Desktop/GD32VW553/V1_MQTT_OK/GD32VW55X_Wifi_BLE_SDK/GD32VW55x_RELEASE_V1.0.2/MSDK/cloud/alicloud/src/services/linkkit/dm\dm_msg_process.c ****     #endif
  54:C:/Users/stapi/OneDrive/Desktop/GD32VW553/V1_MQTT_OK/GD32VW55X_Wifi_BLE_SDK/GD32VW55x_RELEASE_V1.0.2/MSDK/cloud/alicloud/src/services/linkkit/dm\dm_msg_process.c ****     const char DM_URI_THING_DEVICEINFO_UPDATE[]           DM_READ_ONLY = "thing/deviceinfo/update";
  55:C:/Users/stapi/OneDrive/Desktop/GD32VW553/V1_MQTT_OK/GD32VW55X_Wifi_BLE_SDK/GD32VW55x_RELEASE_V1.0.2/MSDK/cloud/alicloud/src/services/linkkit/dm\dm_msg_process.c ****     const char DM_URI_THING_DEVICEINFO_UPDATE_REPLY[]     DM_READ_ONLY = "thing/deviceinfo/update_r
  56:C:/Users/stapi/OneDrive/Desktop/GD32VW553/V1_MQTT_OK/GD32VW55X_Wifi_BLE_SDK/GD32VW55x_RELEASE_V1.0.2/MSDK/cloud/alicloud/src/services/linkkit/dm\dm_msg_process.c ****     const char DM_URI_THING_DEVICEINFO_DELETE[]           DM_READ_ONLY = "thing/deviceinfo/delete";
  57:C:/Users/stapi/OneDrive/Desktop/GD32VW553/V1_MQTT_OK/GD32VW55X_Wifi_BLE_SDK/GD32VW55x_RELEASE_V1.0.2/MSDK/cloud/alicloud/src/services/linkkit/dm\dm_msg_process.c ****     const char DM_URI_THING_DEVICEINFO_DELETE_REPLY[]     DM_READ_ONLY = "thing/deviceinfo/delete_r
  58:C:/Users/stapi/OneDrive/Desktop/GD32VW553/V1_MQTT_OK/GD32VW55X_Wifi_BLE_SDK/GD32VW55x_RELEASE_V1.0.2/MSDK/cloud/alicloud/src/services/linkkit/dm\dm_msg_process.c **** #endif
  59:C:/Users/stapi/OneDrive/Desktop/GD32VW553/V1_MQTT_OK/GD32VW55X_Wifi_BLE_SDK/GD32VW55x_RELEASE_V1.0.2/MSDK/cloud/alicloud/src/services/linkkit/dm\dm_msg_process.c **** 
  60:C:/Users/stapi/OneDrive/Desktop/GD32VW553/V1_MQTT_OK/GD32VW55X_Wifi_BLE_SDK/GD32VW55x_RELEASE_V1.0.2/MSDK/cloud/alicloud/src/services/linkkit/dm\dm_msg_process.c **** const char DM_URI_THING_EVENT_NOTIFY[]                DM_READ_ONLY = "_thing/event/notify";
  61:C:/Users/stapi/OneDrive/Desktop/GD32VW553/V1_MQTT_OK/GD32VW55X_Wifi_BLE_SDK/GD32VW55x_RELEASE_V1.0.2/MSDK/cloud/alicloud/src/services/linkkit/dm\dm_msg_process.c **** const char DM_URI_THING_EVENT_NOTIFY_REPLY[]          DM_READ_ONLY = "_thing/event/notify_reply";
  62:C:/Users/stapi/OneDrive/Desktop/GD32VW553/V1_MQTT_OK/GD32VW55X_Wifi_BLE_SDK/GD32VW55x_RELEASE_V1.0.2/MSDK/cloud/alicloud/src/services/linkkit/dm\dm_msg_process.c **** const char DM_URI_NTP_REQUEST[]                       DM_READ_ONLY = "request";
  63:C:/Users/stapi/OneDrive/Desktop/GD32VW553/V1_MQTT_OK/GD32VW55X_Wifi_BLE_SDK/GD32VW55x_RELEASE_V1.0.2/MSDK/cloud/alicloud/src/services/linkkit/dm\dm_msg_process.c **** const char DM_URI_NTP_RESPONSE[]                      DM_READ_ONLY = "response";
  64:C:/Users/stapi/OneDrive/Desktop/GD32VW553/V1_MQTT_OK/GD32VW55X_Wifi_BLE_SDK/GD32VW55x_RELEASE_V1.0.2/MSDK/cloud/alicloud/src/services/linkkit/dm\dm_msg_process.c **** 
  65:C:/Users/stapi/OneDrive/Desktop/GD32VW553/V1_MQTT_OK/GD32VW55X_Wifi_BLE_SDK/GD32VW55x_RELEASE_V1.0.2/MSDK/cloud/alicloud/src/services/linkkit/dm\dm_msg_process.c **** #ifdef DM_UNIFIED_SERVICE_POST
  66:C:/Users/stapi/OneDrive/Desktop/GD32VW553/V1_MQTT_OK/GD32VW55X_Wifi_BLE_SDK/GD32VW55x_RELEASE_V1.0.2/MSDK/cloud/alicloud/src/services/linkkit/dm\dm_msg_process.c **** const char DM_URI_UNIFIED_SERVICE_POST[]              DM_READ_ONLY = "_thing/service/post";
  67:C:/Users/stapi/OneDrive/Desktop/GD32VW553/V1_MQTT_OK/GD32VW55X_Wifi_BLE_SDK/GD32VW55x_RELEASE_V1.0.2/MSDK/cloud/alicloud/src/services/linkkit/dm\dm_msg_process.c **** const char DM_URI_UNIFIED_SERVICE_POST_REPLY[]        DM_READ_ONLY = "_thing/service/post_reply";
  68:C:/Users/stapi/OneDrive/Desktop/GD32VW553/V1_MQTT_OK/GD32VW55X_Wifi_BLE_SDK/GD32VW55x_RELEASE_V1.0.2/MSDK/cloud/alicloud/src/services/linkkit/dm\dm_msg_process.c **** #endif
  69:C:/Users/stapi/OneDrive/Desktop/GD32VW553/V1_MQTT_OK/GD32VW55X_Wifi_BLE_SDK/GD32VW55x_RELEASE_V1.0.2/MSDK/cloud/alicloud/src/services/linkkit/dm\dm_msg_process.c **** 
  70:C:/Users/stapi/OneDrive/Desktop/GD32VW553/V1_MQTT_OK/GD32VW55X_Wifi_BLE_SDK/GD32VW55x_RELEASE_V1.0.2/MSDK/cloud/alicloud/src/services/linkkit/dm\dm_msg_process.c **** const char DM_URI_DEV_CORE_SERVICE_DEV[]              DM_READ_ONLY = "/dev/core/service/dev";
  71:C:/Users/stapi/OneDrive/Desktop/GD32VW553/V1_MQTT_OK/GD32VW55X_Wifi_BLE_SDK/GD32VW55x_RELEASE_V1.0.2/MSDK/cloud/alicloud/src/services/linkkit/dm\dm_msg_process.c **** 
  72:C:/Users/stapi/OneDrive/Desktop/GD32VW553/V1_MQTT_OK/GD32VW55X_Wifi_BLE_SDK/GD32VW55x_RELEASE_V1.0.2/MSDK/cloud/alicloud/src/services/linkkit/dm\dm_msg_process.c **** #ifdef DEVICE_MODEL_GATEWAY
  73:C:/Users/stapi/OneDrive/Desktop/GD32VW553/V1_MQTT_OK/GD32VW55X_Wifi_BLE_SDK/GD32VW55x_RELEASE_V1.0.2/MSDK/cloud/alicloud/src/services/linkkit/dm\dm_msg_process.c ****     /* From Cloud To Local Request And Response*/
  74:C:/Users/stapi/OneDrive/Desktop/GD32VW553/V1_MQTT_OK/GD32VW55X_Wifi_BLE_SDK/GD32VW55x_RELEASE_V1.0.2/MSDK/cloud/alicloud/src/services/linkkit/dm\dm_msg_process.c ****     const char DM_URI_THING_TOPO_ADD_NOTIFY[]             DM_READ_ONLY = "thing/topo/add/notify";
  75:C:/Users/stapi/OneDrive/Desktop/GD32VW553/V1_MQTT_OK/GD32VW55X_Wifi_BLE_SDK/GD32VW55x_RELEASE_V1.0.2/MSDK/cloud/alicloud/src/services/linkkit/dm\dm_msg_process.c ****     const char DM_URI_THING_TOPO_ADD_NOTIFY_REPLY[]       DM_READ_ONLY = "thing/topo/add/notify_rep
  76:C:/Users/stapi/OneDrive/Desktop/GD32VW553/V1_MQTT_OK/GD32VW55X_Wifi_BLE_SDK/GD32VW55x_RELEASE_V1.0.2/MSDK/cloud/alicloud/src/services/linkkit/dm\dm_msg_process.c ****     const char DM_URI_THING_DELETE[]                      DM_READ_ONLY = "thing/delete";
  77:C:/Users/stapi/OneDrive/Desktop/GD32VW553/V1_MQTT_OK/GD32VW55X_Wifi_BLE_SDK/GD32VW55x_RELEASE_V1.0.2/MSDK/cloud/alicloud/src/services/linkkit/dm\dm_msg_process.c ****     const char DM_URI_THING_DELETE_REPLY[]                DM_READ_ONLY = "thing/delete_reply";
  78:C:/Users/stapi/OneDrive/Desktop/GD32VW553/V1_MQTT_OK/GD32VW55X_Wifi_BLE_SDK/GD32VW55x_RELEASE_V1.0.2/MSDK/cloud/alicloud/src/services/linkkit/dm\dm_msg_process.c ****     const char DM_URI_THING_DISABLE[]                     DM_READ_ONLY = "thing/disable";
  79:C:/Users/stapi/OneDrive/Desktop/GD32VW553/V1_MQTT_OK/GD32VW55X_Wifi_BLE_SDK/GD32VW55x_RELEASE_V1.0.2/MSDK/cloud/alicloud/src/services/linkkit/dm\dm_msg_process.c ****     const char DM_URI_THING_DISABLE_REPLY[]               DM_READ_ONLY = "thing/disable_reply";
  80:C:/Users/stapi/OneDrive/Desktop/GD32VW553/V1_MQTT_OK/GD32VW55X_Wifi_BLE_SDK/GD32VW55x_RELEASE_V1.0.2/MSDK/cloud/alicloud/src/services/linkkit/dm\dm_msg_process.c ****     const char DM_URI_THING_ENABLE[]                      DM_READ_ONLY = "thing/enable";
  81:C:/Users/stapi/OneDrive/Desktop/GD32VW553/V1_MQTT_OK/GD32VW55X_Wifi_BLE_SDK/GD32VW55x_RELEASE_V1.0.2/MSDK/cloud/alicloud/src/services/linkkit/dm\dm_msg_process.c ****     const char DM_URI_THING_ENABLE_REPLY[]                DM_READ_ONLY = "thing/enable_reply";
  82:C:/Users/stapi/OneDrive/Desktop/GD32VW553/V1_MQTT_OK/GD32VW55X_Wifi_BLE_SDK/GD32VW55x_RELEASE_V1.0.2/MSDK/cloud/alicloud/src/services/linkkit/dm\dm_msg_process.c ****     const char DM_URI_THING_GATEWAY_PERMIT[]              DM_READ_ONLY = "thing/gateway/permit";
  83:C:/Users/stapi/OneDrive/Desktop/GD32VW553/V1_MQTT_OK/GD32VW55X_Wifi_BLE_SDK/GD32VW55x_RELEASE_V1.0.2/MSDK/cloud/alicloud/src/services/linkkit/dm\dm_msg_process.c ****     const char DM_URI_THING_GATEWAY_PERMIT_REPLY[]        DM_READ_ONLY = "thing/gateway/permit_repl
  84:C:/Users/stapi/OneDrive/Desktop/GD32VW553/V1_MQTT_OK/GD32VW55X_Wifi_BLE_SDK/GD32VW55x_RELEASE_V1.0.2/MSDK/cloud/alicloud/src/services/linkkit/dm\dm_msg_process.c **** 
  85:C:/Users/stapi/OneDrive/Desktop/GD32VW553/V1_MQTT_OK/GD32VW55X_Wifi_BLE_SDK/GD32VW55x_RELEASE_V1.0.2/MSDK/cloud/alicloud/src/services/linkkit/dm\dm_msg_process.c ****     /* From Local To Cloud Request And Response*/
  86:C:/Users/stapi/OneDrive/Desktop/GD32VW553/V1_MQTT_OK/GD32VW55X_Wifi_BLE_SDK/GD32VW55x_RELEASE_V1.0.2/MSDK/cloud/alicloud/src/services/linkkit/dm\dm_msg_process.c ****     const char DM_URI_THING_SUB_REGISTER[]                DM_READ_ONLY = "thing/sub/register";
  87:C:/Users/stapi/OneDrive/Desktop/GD32VW553/V1_MQTT_OK/GD32VW55X_Wifi_BLE_SDK/GD32VW55x_RELEASE_V1.0.2/MSDK/cloud/alicloud/src/services/linkkit/dm\dm_msg_process.c ****     const char DM_URI_THING_SUB_REGISTER_REPLY[]          DM_READ_ONLY = "thing/sub/register_reply"
  88:C:/Users/stapi/OneDrive/Desktop/GD32VW553/V1_MQTT_OK/GD32VW55X_Wifi_BLE_SDK/GD32VW55x_RELEASE_V1.0.2/MSDK/cloud/alicloud/src/services/linkkit/dm\dm_msg_process.c ****     const char DM_URI_THING_SUB_UNREGISTER[]              DM_READ_ONLY = "thing/sub/unregister";
  89:C:/Users/stapi/OneDrive/Desktop/GD32VW553/V1_MQTT_OK/GD32VW55X_Wifi_BLE_SDK/GD32VW55x_RELEASE_V1.0.2/MSDK/cloud/alicloud/src/services/linkkit/dm\dm_msg_process.c ****     const char DM_URI_THING_SUB_UNREGISTER_REPLY[]        DM_READ_ONLY = "thing/sub/unregister_repl
  90:C:/Users/stapi/OneDrive/Desktop/GD32VW553/V1_MQTT_OK/GD32VW55X_Wifi_BLE_SDK/GD32VW55x_RELEASE_V1.0.2/MSDK/cloud/alicloud/src/services/linkkit/dm\dm_msg_process.c ****     const char DM_URI_THING_TOPO_ADD[]                    DM_READ_ONLY = "thing/topo/add";
  91:C:/Users/stapi/OneDrive/Desktop/GD32VW553/V1_MQTT_OK/GD32VW55X_Wifi_BLE_SDK/GD32VW55x_RELEASE_V1.0.2/MSDK/cloud/alicloud/src/services/linkkit/dm\dm_msg_process.c ****     const char DM_URI_THING_TOPO_ADD_REPLY[]              DM_READ_ONLY = "thing/topo/add_reply";
  92:C:/Users/stapi/OneDrive/Desktop/GD32VW553/V1_MQTT_OK/GD32VW55X_Wifi_BLE_SDK/GD32VW55x_RELEASE_V1.0.2/MSDK/cloud/alicloud/src/services/linkkit/dm\dm_msg_process.c ****     const char DM_URI_THING_TOPO_DELETE[]                 DM_READ_ONLY = "thing/topo/delete";
  93:C:/Users/stapi/OneDrive/Desktop/GD32VW553/V1_MQTT_OK/GD32VW55X_Wifi_BLE_SDK/GD32VW55x_RELEASE_V1.0.2/MSDK/cloud/alicloud/src/services/linkkit/dm\dm_msg_process.c ****     const char DM_URI_THING_TOPO_DELETE_REPLY[]           DM_READ_ONLY = "thing/topo/delete_reply";
  94:C:/Users/stapi/OneDrive/Desktop/GD32VW553/V1_MQTT_OK/GD32VW55X_Wifi_BLE_SDK/GD32VW55x_RELEASE_V1.0.2/MSDK/cloud/alicloud/src/services/linkkit/dm\dm_msg_process.c ****     const char DM_URI_THING_SUB_RESET[]                   DM_READ_ONLY = "thing/reset";
  95:C:/Users/stapi/OneDrive/Desktop/GD32VW553/V1_MQTT_OK/GD32VW55X_Wifi_BLE_SDK/GD32VW55x_RELEASE_V1.0.2/MSDK/cloud/alicloud/src/services/linkkit/dm\dm_msg_process.c ****     const char DM_URI_THING_SUB_RESET_REPLY[]             DM_READ_ONLY = "thing/reset_reply";
  96:C:/Users/stapi/OneDrive/Desktop/GD32VW553/V1_MQTT_OK/GD32VW55X_Wifi_BLE_SDK/GD32VW55x_RELEASE_V1.0.2/MSDK/cloud/alicloud/src/services/linkkit/dm\dm_msg_process.c ****     const char DM_URI_THING_TOPO_GET[]                    DM_READ_ONLY = "thing/topo/get";
  97:C:/Users/stapi/OneDrive/Desktop/GD32VW553/V1_MQTT_OK/GD32VW55X_Wifi_BLE_SDK/GD32VW55x_RELEASE_V1.0.2/MSDK/cloud/alicloud/src/services/linkkit/dm\dm_msg_process.c ****     const char DM_URI_THING_TOPO_GET_REPLY[]              DM_READ_ONLY = "thing/topo/get_reply";
  98:C:/Users/stapi/OneDrive/Desktop/GD32VW553/V1_MQTT_OK/GD32VW55X_Wifi_BLE_SDK/GD32VW55x_RELEASE_V1.0.2/MSDK/cloud/alicloud/src/services/linkkit/dm\dm_msg_process.c ****     const char DM_URI_THING_TOPO_CHANGE[]                 DM_READ_ONLY = "thing/topo/change";
  99:C:/Users/stapi/OneDrive/Desktop/GD32VW553/V1_MQTT_OK/GD32VW55X_Wifi_BLE_SDK/GD32VW55x_RELEASE_V1.0.2/MSDK/cloud/alicloud/src/services/linkkit/dm\dm_msg_process.c ****     const char DM_URI_THING_LIST_FOUND[]                  DM_READ_ONLY = "thing/list/found";
 100:C:/Users/stapi/OneDrive/Desktop/GD32VW553/V1_MQTT_OK/GD32VW55X_Wifi_BLE_SDK/GD32VW55x_RELEASE_V1.0.2/MSDK/cloud/alicloud/src/services/linkkit/dm\dm_msg_process.c ****     const char DM_URI_THING_LIST_FOUND_REPLY[]            DM_READ_ONLY = "thing/list/found_reply";
 101:C:/Users/stapi/OneDrive/Desktop/GD32VW553/V1_MQTT_OK/GD32VW55X_Wifi_BLE_SDK/GD32VW55x_RELEASE_V1.0.2/MSDK/cloud/alicloud/src/services/linkkit/dm\dm_msg_process.c **** 
 102:C:/Users/stapi/OneDrive/Desktop/GD32VW553/V1_MQTT_OK/GD32VW55X_Wifi_BLE_SDK/GD32VW55x_RELEASE_V1.0.2/MSDK/cloud/alicloud/src/services/linkkit/dm\dm_msg_process.c ****     const char DM_URI_COMBINE_BATCH_LOGIN[]               DM_READ_ONLY = "combine/batch_login";
 103:C:/Users/stapi/OneDrive/Desktop/GD32VW553/V1_MQTT_OK/GD32VW55X_Wifi_BLE_SDK/GD32VW55x_RELEASE_V1.0.2/MSDK/cloud/alicloud/src/services/linkkit/dm\dm_msg_process.c ****     const char DM_URI_COMBINE_BATCH_LOGIN_REPLY[]         DM_READ_ONLY = "combine/batch_login_reply
 104:C:/Users/stapi/OneDrive/Desktop/GD32VW553/V1_MQTT_OK/GD32VW55X_Wifi_BLE_SDK/GD32VW55x_RELEASE_V1.0.2/MSDK/cloud/alicloud/src/services/linkkit/dm\dm_msg_process.c ****     const char DM_URI_COMBINE_BATCH_LOGOUT[]              DM_READ_ONLY = "combine/batch_logout";
 105:C:/Users/stapi/OneDrive/Desktop/GD32VW553/V1_MQTT_OK/GD32VW55X_Wifi_BLE_SDK/GD32VW55x_RELEASE_V1.0.2/MSDK/cloud/alicloud/src/services/linkkit/dm\dm_msg_process.c ****     const char DM_URI_COMBINE_BATCH_LOGOUT_REPLY[]        DM_READ_ONLY = "combine/batch_logout_repl
 106:C:/Users/stapi/OneDrive/Desktop/GD32VW553/V1_MQTT_OK/GD32VW55X_Wifi_BLE_SDK/GD32VW55x_RELEASE_V1.0.2/MSDK/cloud/alicloud/src/services/linkkit/dm\dm_msg_process.c **** #endif
 107:C:/Users/stapi/OneDrive/Desktop/GD32VW553/V1_MQTT_OK/GD32VW55X_Wifi_BLE_SDK/GD32VW55x_RELEASE_V1.0.2/MSDK/cloud/alicloud/src/services/linkkit/dm\dm_msg_process.c **** 
 108:C:/Users/stapi/OneDrive/Desktop/GD32VW553/V1_MQTT_OK/GD32VW55X_Wifi_BLE_SDK/GD32VW55x_RELEASE_V1.0.2/MSDK/cloud/alicloud/src/services/linkkit/dm\dm_msg_process.c **** int dm_msg_proc_thing_model_down_raw(_IN_ dm_msg_source_t *source)
 109:C:/Users/stapi/OneDrive/Desktop/GD32VW553/V1_MQTT_OK/GD32VW55X_Wifi_BLE_SDK/GD32VW55x_RELEASE_V1.0.2/MSDK/cloud/alicloud/src/services/linkkit/dm\dm_msg_process.c **** {
  16              		.loc 1 109 1
  17              		.cfi_startproc
  18              	.LVL0:
  19 0000 17030000 		call	t0,__riscv_save_2
  19      E7020300 
  20              		.cfi_offset 9, -12
  21              		.cfi_offset 8, -8
  22              		.cfi_offset 1, -4
  23              		.cfi_def_cfa_offset 16
 110:C:/Users/stapi/OneDrive/Desktop/GD32VW553/V1_MQTT_OK/GD32VW55X_Wifi_BLE_SDK/GD32VW55x_RELEASE_V1.0.2/MSDK/cloud/alicloud/src/services/linkkit/dm\dm_msg_process.c ****     int res = 0;
  24              		.loc 1 110 5
  25              	.LVL1:
 111:C:/Users/stapi/OneDrive/Desktop/GD32VW553/V1_MQTT_OK/GD32VW55X_Wifi_BLE_SDK/GD32VW55x_RELEASE_V1.0.2/MSDK/cloud/alicloud/src/services/linkkit/dm\dm_msg_process.c ****     char product_key[PRODUCT_KEY_MAXLEN] = {0};
  26              		.loc 1 111 5
 109:C:/Users/stapi/OneDrive/Desktop/GD32VW553/V1_MQTT_OK/GD32VW55X_Wifi_BLE_SDK/GD32VW55x_RELEASE_V1.0.2/MSDK/cloud/alicloud/src/services/linkkit/dm\dm_msg_process.c ****     int res = 0;
  27              		.loc 1 109 1 is_stmt 0
  28 0008 3971     		addi	sp,sp,-64
  29              		.cfi_def_cfa_offset 80
 112:C:/Users/stapi/OneDrive/Desktop/GD32VW553/V1_MQTT_OK/GD32VW55X_Wifi_BLE_SDK/GD32VW55x_RELEASE_V1.0.2/MSDK/cloud/alicloud/src/services/linkkit/dm\dm_msg_process.c ****     char device_name[DEVICE_NAME_MAXLEN] = {0};
  30              		.loc 1 112 10
  31 000a 7546     		li	a2,29
  32 000c 8145     		li	a1,0
 109:C:/Users/stapi/OneDrive/Desktop/GD32VW553/V1_MQTT_OK/GD32VW55X_Wifi_BLE_SDK/GD32VW55x_RELEASE_V1.0.2/MSDK/cloud/alicloud/src/services/linkkit/dm\dm_msg_process.c ****     int res = 0;
  33              		.loc 1 109 1
  34 000e 2A84     		mv	s0,a0
  35              		.loc 1 112 10
  36 0010 0810     		addi	a0,sp,32
  37              	.LVL2:
 111:C:/Users/stapi/OneDrive/Desktop/GD32VW553/V1_MQTT_OK/GD32VW55X_Wifi_BLE_SDK/GD32VW55x_RELEASE_V1.0.2/MSDK/cloud/alicloud/src/services/linkkit/dm\dm_msg_process.c ****     char product_key[PRODUCT_KEY_MAXLEN] = {0};
  38              		.loc 1 111 10
  39 0012 02C2     		sw	zero,4(sp)
  40 0014 02C4     		sw	zero,8(sp)
  41 0016 02C6     		sw	zero,12(sp)
  42 0018 02C8     		sw	zero,16(sp)
  43 001a 02CA     		sw	zero,20(sp)
  44 001c 230C0100 		sb	zero,24(sp)
  45              		.loc 1 112 5 is_stmt 1
  46              		.loc 1 112 10 is_stmt 0
  47 0020 02CE     		sw	zero,28(sp)
  48 0022 97000000 		call	memset
  48      E7800000 
  49              	.LVL3:
 113:C:/Users/stapi/OneDrive/Desktop/GD32VW553/V1_MQTT_OK/GD32VW55X_Wifi_BLE_SDK/GD32VW55x_RELEASE_V1.0.2/MSDK/cloud/alicloud/src/services/linkkit/dm\dm_msg_process.c **** 
 114:C:/Users/stapi/OneDrive/Desktop/GD32VW553/V1_MQTT_OK/GD32VW55X_Wifi_BLE_SDK/GD32VW55x_RELEASE_V1.0.2/MSDK/cloud/alicloud/src/services/linkkit/dm\dm_msg_process.c ****     /* Parse Product Key And Device Name */
 115:C:/Users/stapi/OneDrive/Desktop/GD32VW553/V1_MQTT_OK/GD32VW55X_Wifi_BLE_SDK/GD32VW55x_RELEASE_V1.0.2/MSDK/cloud/alicloud/src/services/linkkit/dm\dm_msg_process.c ****     res = dm_msg_uri_parse_pkdn((char *)source->uri, strlen(source->uri), 2 + DM_URI_OFFSET, 4 + DM
  50              		.loc 1 115 5 is_stmt 1
  51              		.loc 1 115 47 is_stmt 0
  52 002a 0440     		lw	s1,0(s0)
  53              		.loc 1 115 54
  54 002c 2685     		mv	a0,s1
  55 002e 97000000 		call	strlen
  55      E7800000 
  56              	.LVL4:
  57 0036 AA85     		mv	a1,a0
  58              		.loc 1 115 11
  59 0038 7C08     		addi	a5,sp,28
  60 003a 5800     		addi	a4,sp,4
  61 003c 9146     		li	a3,4
  62 003e 0946     		li	a2,2
  63 0040 2685     		mv	a0,s1
  64 0042 97000000 		call	dm_msg_uri_parse_pkdn
  64      E7800000 
  65              	.LVL5:
 116:C:/Users/stapi/OneDrive/Desktop/GD32VW553/V1_MQTT_OK/GD32VW55X_Wifi_BLE_SDK/GD32VW55x_RELEASE_V1.0.2/MSDK/cloud/alicloud/src/services/linkkit/dm\dm_msg_process.c ****                                 device_name);
 117:C:/Users/stapi/OneDrive/Desktop/GD32VW553/V1_MQTT_OK/GD32VW55X_Wifi_BLE_SDK/GD32VW55x_RELEASE_V1.0.2/MSDK/cloud/alicloud/src/services/linkkit/dm\dm_msg_process.c ****     if (res != SUCCESS_RETURN) {
  66              		.loc 1 117 5 is_stmt 1
  67              		.loc 1 117 8 is_stmt 0
  68 004a 11ED     		bne	a0,zero,.L3
 118:C:/Users/stapi/OneDrive/Desktop/GD32VW553/V1_MQTT_OK/GD32VW55X_Wifi_BLE_SDK/GD32VW55x_RELEASE_V1.0.2/MSDK/cloud/alicloud/src/services/linkkit/dm\dm_msg_process.c ****         return FAIL_RETURN;
 119:C:/Users/stapi/OneDrive/Desktop/GD32VW553/V1_MQTT_OK/GD32VW55X_Wifi_BLE_SDK/GD32VW55x_RELEASE_V1.0.2/MSDK/cloud/alicloud/src/services/linkkit/dm\dm_msg_process.c ****     }
 120:C:/Users/stapi/OneDrive/Desktop/GD32VW553/V1_MQTT_OK/GD32VW55X_Wifi_BLE_SDK/GD32VW55x_RELEASE_V1.0.2/MSDK/cloud/alicloud/src/services/linkkit/dm\dm_msg_process.c **** 
 121:C:/Users/stapi/OneDrive/Desktop/GD32VW553/V1_MQTT_OK/GD32VW55X_Wifi_BLE_SDK/GD32VW55x_RELEASE_V1.0.2/MSDK/cloud/alicloud/src/services/linkkit/dm\dm_msg_process.c ****     return dm_msg_thing_model_down_raw(product_key, device_name, (char *)source->payload, source->p
  69              		.loc 1 121 5 is_stmt 1
  70              		.loc 1 121 12 is_stmt 0
  71 004c 1444     		lw	a3,8(s0)
  72 004e 5040     		lw	a2,4(s0)
  73 0050 6C08     		addi	a1,sp,28
  74 0052 4800     		addi	a0,sp,4
  75              	.LVL6:
  76 0054 97000000 		call	dm_msg_thing_model_down_raw
  76      E7800000 
  77              	.LVL7:
  78              	.L1:
 122:C:/Users/stapi/OneDrive/Desktop/GD32VW553/V1_MQTT_OK/GD32VW55X_Wifi_BLE_SDK/GD32VW55x_RELEASE_V1.0.2/MSDK/cloud/alicloud/src/services/linkkit/dm\dm_msg_process.c **** }
  79              		.loc 1 122 1
  80 005c 2161     		addi	sp,sp,64
  81              		.cfi_remember_state
  82              		.cfi_def_cfa_offset 0
  83 005e 17030000 		tail	__riscv_restore_2
  83      67000300 
  84              		.cfi_restore 9
  85              		.cfi_restore 8
  86              		.cfi_restore 1
  87              		.cfi_def_cfa_offset -16
  88              	.LVL8:
  89              	.L3:
  90              		.cfi_restore_state
 118:C:/Users/stapi/OneDrive/Desktop/GD32VW553/V1_MQTT_OK/GD32VW55X_Wifi_BLE_SDK/GD32VW55x_RELEASE_V1.0.2/MSDK/cloud/alicloud/src/services/linkkit/dm\dm_msg_process.c ****         return FAIL_RETURN;
  91              		.loc 1 118 16
  92 0066 7D55     		li	a0,-1
  93              	.LVL9:
  94 0068 D5BF     		j	.L1
  95              		.cfi_endproc
  96              	.LFE20:
  98              		.section	.rodata.dm_msg_proc_thing_model_up_raw_reply.str1.4,"aMS",@progbits,1
  99              		.align	2
 100              	.LC0:
 101 0000 5B696E66 		.string	"[inf] "
 101      5D2000
 102 0007 00       		.align	2
 103              	.LC1:
 104 0008 0D0A00   		.string	"\r\n"
 105              		.section	.text.dm_msg_proc_thing_model_up_raw_reply,"ax",@progbits
 106              		.align	1
 107              		.globl	dm_msg_proc_thing_model_up_raw_reply
 109              	dm_msg_proc_thing_model_up_raw_reply:
 110              	.LFB21:
 123:C:/Users/stapi/OneDrive/Desktop/GD32VW553/V1_MQTT_OK/GD32VW55X_Wifi_BLE_SDK/GD32VW55x_RELEASE_V1.0.2/MSDK/cloud/alicloud/src/services/linkkit/dm\dm_msg_process.c **** 
 124:C:/Users/stapi/OneDrive/Desktop/GD32VW553/V1_MQTT_OK/GD32VW55X_Wifi_BLE_SDK/GD32VW55x_RELEASE_V1.0.2/MSDK/cloud/alicloud/src/services/linkkit/dm\dm_msg_process.c **** #ifdef LINK_VISUAL_ENABLE
 125:C:/Users/stapi/OneDrive/Desktop/GD32VW553/V1_MQTT_OK/GD32VW55X_Wifi_BLE_SDK/GD32VW55x_RELEASE_V1.0.2/MSDK/cloud/alicloud/src/services/linkkit/dm\dm_msg_process.c **** int dm_msg_proc_thing_model_link_visual(_IN_ dm_msg_source_t *source)
 126:C:/Users/stapi/OneDrive/Desktop/GD32VW553/V1_MQTT_OK/GD32VW55X_Wifi_BLE_SDK/GD32VW55x_RELEASE_V1.0.2/MSDK/cloud/alicloud/src/services/linkkit/dm\dm_msg_process.c **** {
 127:C:/Users/stapi/OneDrive/Desktop/GD32VW553/V1_MQTT_OK/GD32VW55X_Wifi_BLE_SDK/GD32VW55x_RELEASE_V1.0.2/MSDK/cloud/alicloud/src/services/linkkit/dm\dm_msg_process.c ****     int res = 0, topic_pos = 0;
 128:C:/Users/stapi/OneDrive/Desktop/GD32VW553/V1_MQTT_OK/GD32VW55X_Wifi_BLE_SDK/GD32VW55x_RELEASE_V1.0.2/MSDK/cloud/alicloud/src/services/linkkit/dm\dm_msg_process.c ****     char product_key[PRODUCT_KEY_MAXLEN] = {0};
 129:C:/Users/stapi/OneDrive/Desktop/GD32VW553/V1_MQTT_OK/GD32VW55X_Wifi_BLE_SDK/GD32VW55x_RELEASE_V1.0.2/MSDK/cloud/alicloud/src/services/linkkit/dm\dm_msg_process.c ****     char device_name[DEVICE_NAME_MAXLEN] = {0};
 130:C:/Users/stapi/OneDrive/Desktop/GD32VW553/V1_MQTT_OK/GD32VW55X_Wifi_BLE_SDK/GD32VW55x_RELEASE_V1.0.2/MSDK/cloud/alicloud/src/services/linkkit/dm\dm_msg_process.c **** 
 131:C:/Users/stapi/OneDrive/Desktop/GD32VW553/V1_MQTT_OK/GD32VW55X_Wifi_BLE_SDK/GD32VW55x_RELEASE_V1.0.2/MSDK/cloud/alicloud/src/services/linkkit/dm\dm_msg_process.c ****     res = dm_utils_memtok((char *)source->uri, strlen(source->uri), DM_URI_SERVICE_DELIMITER, 4, &t
 132:C:/Users/stapi/OneDrive/Desktop/GD32VW553/V1_MQTT_OK/GD32VW55X_Wifi_BLE_SDK/GD32VW55x_RELEASE_V1.0.2/MSDK/cloud/alicloud/src/services/linkkit/dm\dm_msg_process.c ****     if (res != SUCCESS_RETURN) {
 133:C:/Users/stapi/OneDrive/Desktop/GD32VW553/V1_MQTT_OK/GD32VW55X_Wifi_BLE_SDK/GD32VW55x_RELEASE_V1.0.2/MSDK/cloud/alicloud/src/services/linkkit/dm\dm_msg_process.c ****         return FAIL_RETURN;
 134:C:/Users/stapi/OneDrive/Desktop/GD32VW553/V1_MQTT_OK/GD32VW55X_Wifi_BLE_SDK/GD32VW55x_RELEASE_V1.0.2/MSDK/cloud/alicloud/src/services/linkkit/dm\dm_msg_process.c ****     }
 135:C:/Users/stapi/OneDrive/Desktop/GD32VW553/V1_MQTT_OK/GD32VW55X_Wifi_BLE_SDK/GD32VW55x_RELEASE_V1.0.2/MSDK/cloud/alicloud/src/services/linkkit/dm\dm_msg_process.c **** 
 136:C:/Users/stapi/OneDrive/Desktop/GD32VW553/V1_MQTT_OK/GD32VW55X_Wifi_BLE_SDK/GD32VW55x_RELEASE_V1.0.2/MSDK/cloud/alicloud/src/services/linkkit/dm\dm_msg_process.c ****     /* Parse Product Key And Device Name */
 137:C:/Users/stapi/OneDrive/Desktop/GD32VW553/V1_MQTT_OK/GD32VW55X_Wifi_BLE_SDK/GD32VW55x_RELEASE_V1.0.2/MSDK/cloud/alicloud/src/services/linkkit/dm\dm_msg_process.c ****     res = dm_msg_uri_parse_pkdn((char *)source->uri, strlen(source->uri), 2 + DM_URI_OFFSET, 4 + DM
 138:C:/Users/stapi/OneDrive/Desktop/GD32VW553/V1_MQTT_OK/GD32VW55X_Wifi_BLE_SDK/GD32VW55x_RELEASE_V1.0.2/MSDK/cloud/alicloud/src/services/linkkit/dm\dm_msg_process.c ****                                 device_name);
 139:C:/Users/stapi/OneDrive/Desktop/GD32VW553/V1_MQTT_OK/GD32VW55X_Wifi_BLE_SDK/GD32VW55x_RELEASE_V1.0.2/MSDK/cloud/alicloud/src/services/linkkit/dm\dm_msg_process.c ****     if (res != SUCCESS_RETURN) {
 140:C:/Users/stapi/OneDrive/Desktop/GD32VW553/V1_MQTT_OK/GD32VW55X_Wifi_BLE_SDK/GD32VW55x_RELEASE_V1.0.2/MSDK/cloud/alicloud/src/services/linkkit/dm\dm_msg_process.c ****         return FAIL_RETURN;
 141:C:/Users/stapi/OneDrive/Desktop/GD32VW553/V1_MQTT_OK/GD32VW55X_Wifi_BLE_SDK/GD32VW55x_RELEASE_V1.0.2/MSDK/cloud/alicloud/src/services/linkkit/dm\dm_msg_process.c ****     }
 142:C:/Users/stapi/OneDrive/Desktop/GD32VW553/V1_MQTT_OK/GD32VW55X_Wifi_BLE_SDK/GD32VW55x_RELEASE_V1.0.2/MSDK/cloud/alicloud/src/services/linkkit/dm\dm_msg_process.c **** 
 143:C:/Users/stapi/OneDrive/Desktop/GD32VW553/V1_MQTT_OK/GD32VW55X_Wifi_BLE_SDK/GD32VW55x_RELEASE_V1.0.2/MSDK/cloud/alicloud/src/services/linkkit/dm\dm_msg_process.c ****     return dm_msg_thing_model_link_visual(product_key, device_name, (char *)source->uri + topic_pos
 144:C:/Users/stapi/OneDrive/Desktop/GD32VW553/V1_MQTT_OK/GD32VW55X_Wifi_BLE_SDK/GD32VW55x_RELEASE_V1.0.2/MSDK/cloud/alicloud/src/services/linkkit/dm\dm_msg_process.c ****         strlen(source->uri) - topic_pos, (char *)source->payload, source->payload_len);
 145:C:/Users/stapi/OneDrive/Desktop/GD32VW553/V1_MQTT_OK/GD32VW55X_Wifi_BLE_SDK/GD32VW55x_RELEASE_V1.0.2/MSDK/cloud/alicloud/src/services/linkkit/dm\dm_msg_process.c **** }
 146:C:/Users/stapi/OneDrive/Desktop/GD32VW553/V1_MQTT_OK/GD32VW55X_Wifi_BLE_SDK/GD32VW55x_RELEASE_V1.0.2/MSDK/cloud/alicloud/src/services/linkkit/dm\dm_msg_process.c **** #endif
 147:C:/Users/stapi/OneDrive/Desktop/GD32VW553/V1_MQTT_OK/GD32VW55X_Wifi_BLE_SDK/GD32VW55x_RELEASE_V1.0.2/MSDK/cloud/alicloud/src/services/linkkit/dm\dm_msg_process.c **** int dm_msg_proc_thing_model_up_raw_reply(_IN_ dm_msg_source_t *source)
 148:C:/Users/stapi/OneDrive/Desktop/GD32VW553/V1_MQTT_OK/GD32VW55X_Wifi_BLE_SDK/GD32VW55x_RELEASE_V1.0.2/MSDK/cloud/alicloud/src/services/linkkit/dm\dm_msg_process.c **** {
 111              		.loc 1 148 1 is_stmt 1
 112              		.cfi_startproc
 113              	.LVL10:
 114 0000 17030000 		call	t0,__riscv_save_2
 114      E7020300 
 115              		.cfi_offset 9, -12
 116              		.cfi_offset 8, -8
 117              		.cfi_offset 1, -4
 118              		.cfi_def_cfa_offset 16
 149:C:/Users/stapi/OneDrive/Desktop/GD32VW553/V1_MQTT_OK/GD32VW55X_Wifi_BLE_SDK/GD32VW55x_RELEASE_V1.0.2/MSDK/cloud/alicloud/src/services/linkkit/dm\dm_msg_process.c ****     int res = 0;
 119              		.loc 1 149 5
 120              	.LVL11:
 150:C:/Users/stapi/OneDrive/Desktop/GD32VW553/V1_MQTT_OK/GD32VW55X_Wifi_BLE_SDK/GD32VW55x_RELEASE_V1.0.2/MSDK/cloud/alicloud/src/services/linkkit/dm\dm_msg_process.c ****     char product_key[PRODUCT_KEY_MAXLEN] = {0};
 121              		.loc 1 150 5
 148:C:/Users/stapi/OneDrive/Desktop/GD32VW553/V1_MQTT_OK/GD32VW55X_Wifi_BLE_SDK/GD32VW55x_RELEASE_V1.0.2/MSDK/cloud/alicloud/src/services/linkkit/dm\dm_msg_process.c ****     int res = 0;
 122              		.loc 1 148 1 is_stmt 0
 123 0008 3971     		addi	sp,sp,-64
 124              		.cfi_def_cfa_offset 80
 151:C:/Users/stapi/OneDrive/Desktop/GD32VW553/V1_MQTT_OK/GD32VW55X_Wifi_BLE_SDK/GD32VW55x_RELEASE_V1.0.2/MSDK/cloud/alicloud/src/services/linkkit/dm\dm_msg_process.c ****     char device_name[DEVICE_NAME_MAXLEN] = {0};
 125              		.loc 1 151 10
 126 000a 7546     		li	a2,29
 127 000c 8145     		li	a1,0
 148:C:/Users/stapi/OneDrive/Desktop/GD32VW553/V1_MQTT_OK/GD32VW55X_Wifi_BLE_SDK/GD32VW55x_RELEASE_V1.0.2/MSDK/cloud/alicloud/src/services/linkkit/dm\dm_msg_process.c ****     int res = 0;
 128              		.loc 1 148 1
 129 000e 2A84     		mv	s0,a0
 130              		.loc 1 151 10
 131 0010 0810     		addi	a0,sp,32
 132              	.LVL12:
 150:C:/Users/stapi/OneDrive/Desktop/GD32VW553/V1_MQTT_OK/GD32VW55X_Wifi_BLE_SDK/GD32VW55x_RELEASE_V1.0.2/MSDK/cloud/alicloud/src/services/linkkit/dm\dm_msg_process.c ****     char product_key[PRODUCT_KEY_MAXLEN] = {0};
 133              		.loc 1 150 10
 134 0012 02C2     		sw	zero,4(sp)
 135 0014 02C4     		sw	zero,8(sp)
 136 0016 02C6     		sw	zero,12(sp)
 137 0018 02C8     		sw	zero,16(sp)
 138 001a 02CA     		sw	zero,20(sp)
 139 001c 230C0100 		sb	zero,24(sp)
 140              		.loc 1 151 5 is_stmt 1
 141              		.loc 1 151 10 is_stmt 0
 142 0020 02CE     		sw	zero,28(sp)
 143 0022 97000000 		call	memset
 143      E7800000 
 144              	.LVL13:
 152:C:/Users/stapi/OneDrive/Desktop/GD32VW553/V1_MQTT_OK/GD32VW55X_Wifi_BLE_SDK/GD32VW55x_RELEASE_V1.0.2/MSDK/cloud/alicloud/src/services/linkkit/dm\dm_msg_process.c **** 
 153:C:/Users/stapi/OneDrive/Desktop/GD32VW553/V1_MQTT_OK/GD32VW55X_Wifi_BLE_SDK/GD32VW55x_RELEASE_V1.0.2/MSDK/cloud/alicloud/src/services/linkkit/dm\dm_msg_process.c ****     dm_log_info(DM_URI_THING_MODEL_UP_RAW_REPLY);
 145              		.loc 1 153 5 is_stmt 1
 146              		.loc 1 153 5
 147 002a 37050000 		lui	a0,%hi(.LC0)
 148 002e 13050500 		addi	a0,a0,%lo(.LC0)
 149 0032 97000000 		call	HAL_Printf
 149      E7800000 
 150              	.LVL14:
 151              		.loc 1 153 5
 152 003a 37050000 		lui	a0,%hi(.LANCHOR0)
 153 003e 13050500 		addi	a0,a0,%lo(.LANCHOR0)
 154 0042 97000000 		call	HAL_Printf
 154      E7800000 
 155              	.LVL15:
 156              		.loc 1 153 5
 157 004a 37050000 		lui	a0,%hi(.LC1)
 158 004e 13050500 		addi	a0,a0,%lo(.LC1)
 159 0052 97000000 		call	HAL_Printf
 159      E7800000 
 160              	.LVL16:
 161              		.loc 1 153 5
 154:C:/Users/stapi/OneDrive/Desktop/GD32VW553/V1_MQTT_OK/GD32VW55X_Wifi_BLE_SDK/GD32VW55x_RELEASE_V1.0.2/MSDK/cloud/alicloud/src/services/linkkit/dm\dm_msg_process.c **** 
 155:C:/Users/stapi/OneDrive/Desktop/GD32VW553/V1_MQTT_OK/GD32VW55X_Wifi_BLE_SDK/GD32VW55x_RELEASE_V1.0.2/MSDK/cloud/alicloud/src/services/linkkit/dm\dm_msg_process.c ****     res = dm_msg_uri_parse_pkdn((char *)source->uri, strlen(source->uri), 2 + DM_URI_OFFSET, 4 + DM
 162              		.loc 1 155 5
 163              		.loc 1 155 47 is_stmt 0
 164 005a 0440     		lw	s1,0(s0)
 165              		.loc 1 155 54
 166 005c 2685     		mv	a0,s1
 167 005e 97000000 		call	strlen
 167      E7800000 
 168              	.LVL17:
 169 0066 AA85     		mv	a1,a0
 170              		.loc 1 155 11
 171 0068 7C08     		addi	a5,sp,28
 172 006a 5800     		addi	a4,sp,4
 173 006c 9146     		li	a3,4
 174 006e 0946     		li	a2,2
 175 0070 2685     		mv	a0,s1
 176 0072 97000000 		call	dm_msg_uri_parse_pkdn
 176      E7800000 
 177              	.LVL18:
 156:C:/Users/stapi/OneDrive/Desktop/GD32VW553/V1_MQTT_OK/GD32VW55X_Wifi_BLE_SDK/GD32VW55x_RELEASE_V1.0.2/MSDK/cloud/alicloud/src/services/linkkit/dm\dm_msg_process.c ****                                 device_name);
 157:C:/Users/stapi/OneDrive/Desktop/GD32VW553/V1_MQTT_OK/GD32VW55X_Wifi_BLE_SDK/GD32VW55x_RELEASE_V1.0.2/MSDK/cloud/alicloud/src/services/linkkit/dm\dm_msg_process.c ****     if (res != SUCCESS_RETURN) {
 178              		.loc 1 157 5 is_stmt 1
 179              		.loc 1 157 8 is_stmt 0
 180 007a 15E1     		bne	a0,zero,.L7
 158:C:/Users/stapi/OneDrive/Desktop/GD32VW553/V1_MQTT_OK/GD32VW55X_Wifi_BLE_SDK/GD32VW55x_RELEASE_V1.0.2/MSDK/cloud/alicloud/src/services/linkkit/dm\dm_msg_process.c ****         return FAIL_RETURN;
 159:C:/Users/stapi/OneDrive/Desktop/GD32VW553/V1_MQTT_OK/GD32VW55X_Wifi_BLE_SDK/GD32VW55x_RELEASE_V1.0.2/MSDK/cloud/alicloud/src/services/linkkit/dm\dm_msg_process.c ****     }
 160:C:/Users/stapi/OneDrive/Desktop/GD32VW553/V1_MQTT_OK/GD32VW55X_Wifi_BLE_SDK/GD32VW55x_RELEASE_V1.0.2/MSDK/cloud/alicloud/src/services/linkkit/dm\dm_msg_process.c **** 
 161:C:/Users/stapi/OneDrive/Desktop/GD32VW553/V1_MQTT_OK/GD32VW55X_Wifi_BLE_SDK/GD32VW55x_RELEASE_V1.0.2/MSDK/cloud/alicloud/src/services/linkkit/dm\dm_msg_process.c ****     /* Operation */
 162:C:/Users/stapi/OneDrive/Desktop/GD32VW553/V1_MQTT_OK/GD32VW55X_Wifi_BLE_SDK/GD32VW55x_RELEASE_V1.0.2/MSDK/cloud/alicloud/src/services/linkkit/dm\dm_msg_process.c ****     res = dm_msg_thing_model_up_raw_reply(product_key, device_name, (char *)source->payload, source
 181              		.loc 1 162 5 is_stmt 1
 182              		.loc 1 162 11 is_stmt 0
 183 007c 1444     		lw	a3,8(s0)
 184 007e 5040     		lw	a2,4(s0)
 185 0080 6C08     		addi	a1,sp,28
 186 0082 4800     		addi	a0,sp,4
 187              	.LVL19:
 188 0084 97000000 		call	dm_msg_thing_model_up_raw_reply
 188      E7800000 
 189              	.LVL20:
 163:C:/Users/stapi/OneDrive/Desktop/GD32VW553/V1_MQTT_OK/GD32VW55X_Wifi_BLE_SDK/GD32VW55x_RELEASE_V1.0.2/MSDK/cloud/alicloud/src/services/linkkit/dm\dm_msg_process.c ****     if (res != SUCCESS_RETURN) {
 190              		.loc 1 163 5 is_stmt 1
 191              		.loc 1 163 8 is_stmt 0
 192 008c 3335A000 		snez	a0,a0
 193              	.LVL21:
 194 0090 3305A040 		neg	a0,a0
 195              	.L5:
 164:C:/Users/stapi/OneDrive/Desktop/GD32VW553/V1_MQTT_OK/GD32VW55X_Wifi_BLE_SDK/GD32VW55x_RELEASE_V1.0.2/MSDK/cloud/alicloud/src/services/linkkit/dm\dm_msg_process.c ****         return FAIL_RETURN;
 165:C:/Users/stapi/OneDrive/Desktop/GD32VW553/V1_MQTT_OK/GD32VW55X_Wifi_BLE_SDK/GD32VW55x_RELEASE_V1.0.2/MSDK/cloud/alicloud/src/services/linkkit/dm\dm_msg_process.c ****     }
 166:C:/Users/stapi/OneDrive/Desktop/GD32VW553/V1_MQTT_OK/GD32VW55X_Wifi_BLE_SDK/GD32VW55x_RELEASE_V1.0.2/MSDK/cloud/alicloud/src/services/linkkit/dm\dm_msg_process.c **** 
 167:C:/Users/stapi/OneDrive/Desktop/GD32VW553/V1_MQTT_OK/GD32VW55X_Wifi_BLE_SDK/GD32VW55x_RELEASE_V1.0.2/MSDK/cloud/alicloud/src/services/linkkit/dm\dm_msg_process.c ****     return SUCCESS_RETURN;
 168:C:/Users/stapi/OneDrive/Desktop/GD32VW553/V1_MQTT_OK/GD32VW55X_Wifi_BLE_SDK/GD32VW55x_RELEASE_V1.0.2/MSDK/cloud/alicloud/src/services/linkkit/dm\dm_msg_process.c **** }
 196              		.loc 1 168 1
 197 0094 2161     		addi	sp,sp,64
 198              		.cfi_remember_state
 199              		.cfi_def_cfa_offset 0
 200 0096 17030000 		tail	__riscv_restore_2
 200      67000300 
 201              		.cfi_restore 9
 202              		.cfi_restore 8
 203              		.cfi_restore 1
 204              		.cfi_def_cfa_offset -16
 205              	.LVL22:
 206              	.L7:
 207              		.cfi_restore_state
 158:C:/Users/stapi/OneDrive/Desktop/GD32VW553/V1_MQTT_OK/GD32VW55X_Wifi_BLE_SDK/GD32VW55x_RELEASE_V1.0.2/MSDK/cloud/alicloud/src/services/linkkit/dm\dm_msg_process.c ****     }
 208              		.loc 1 158 16
 209 009e 7D55     		li	a0,-1
 210              	.LVL23:
 211 00a0 D5BF     		j	.L5
 212              		.cfi_endproc
 213              	.LFE21:
 215              		.section	.text.dm_msg_proc_thing_service_property_set,"ax",@progbits
 216              		.align	1
 217              		.globl	dm_msg_proc_thing_service_property_set
 219              	dm_msg_proc_thing_service_property_set:
 220              	.LFB22:
 169:C:/Users/stapi/OneDrive/Desktop/GD32VW553/V1_MQTT_OK/GD32VW55X_Wifi_BLE_SDK/GD32VW55x_RELEASE_V1.0.2/MSDK/cloud/alicloud/src/services/linkkit/dm\dm_msg_process.c **** 
 170:C:/Users/stapi/OneDrive/Desktop/GD32VW553/V1_MQTT_OK/GD32VW55X_Wifi_BLE_SDK/GD32VW55x_RELEASE_V1.0.2/MSDK/cloud/alicloud/src/services/linkkit/dm\dm_msg_process.c **** #if !defined(DEVICE_MODEL_RAWDATA_SOLO)
 171:C:/Users/stapi/OneDrive/Desktop/GD32VW553/V1_MQTT_OK/GD32VW55X_Wifi_BLE_SDK/GD32VW55x_RELEASE_V1.0.2/MSDK/cloud/alicloud/src/services/linkkit/dm\dm_msg_process.c **** int dm_msg_proc_thing_service_property_set(_IN_ dm_msg_source_t *source, _IN_ dm_msg_dest_t *dest,
 172:C:/Users/stapi/OneDrive/Desktop/GD32VW553/V1_MQTT_OK/GD32VW55X_Wifi_BLE_SDK/GD32VW55x_RELEASE_V1.0.2/MSDK/cloud/alicloud/src/services/linkkit/dm\dm_msg_process.c ****         _OU_ dm_msg_request_payload_t *request, _OU_ dm_msg_response_t *response)
 173:C:/Users/stapi/OneDrive/Desktop/GD32VW553/V1_MQTT_OK/GD32VW55X_Wifi_BLE_SDK/GD32VW55x_RELEASE_V1.0.2/MSDK/cloud/alicloud/src/services/linkkit/dm\dm_msg_process.c **** {
 221              		.loc 1 173 1 is_stmt 1
 222              		.cfi_startproc
 223              	.LVL24:
 224 0000 17030000 		call	t0,__riscv_save_5
 224      E7020300 
 225              		.cfi_offset 20, -24
 226              		.cfi_offset 19, -20
 227              		.cfi_offset 18, -16
 228              		.cfi_offset 9, -12
 229              		.cfi_offset 8, -8
 230              		.cfi_offset 1, -4
 231              		.cfi_def_cfa_offset 32
 174:C:/Users/stapi/OneDrive/Desktop/GD32VW553/V1_MQTT_OK/GD32VW55X_Wifi_BLE_SDK/GD32VW55x_RELEASE_V1.0.2/MSDK/cloud/alicloud/src/services/linkkit/dm\dm_msg_process.c ****     int res = 0, devid = 0;
 232              		.loc 1 174 5
 233              	.LVL25:
 173:C:/Users/stapi/OneDrive/Desktop/GD32VW553/V1_MQTT_OK/GD32VW55X_Wifi_BLE_SDK/GD32VW55x_RELEASE_V1.0.2/MSDK/cloud/alicloud/src/services/linkkit/dm\dm_msg_process.c ****     int res = 0, devid = 0;
 234              		.loc 1 173 1 is_stmt 0
 235 0008 3971     		addi	sp,sp,-64
 236              		.cfi_def_cfa_offset 96
 173:C:/Users/stapi/OneDrive/Desktop/GD32VW553/V1_MQTT_OK/GD32VW55X_Wifi_BLE_SDK/GD32VW55x_RELEASE_V1.0.2/MSDK/cloud/alicloud/src/services/linkkit/dm\dm_msg_process.c ****     int res = 0, devid = 0;
 237              		.loc 1 173 1
 238 000a AA84     		mv	s1,a0
 239 000c AE89     		mv	s3,a1
 240 000e 3289     		mv	s2,a2
 175:C:/Users/stapi/OneDrive/Desktop/GD32VW553/V1_MQTT_OK/GD32VW55X_Wifi_BLE_SDK/GD32VW55x_RELEASE_V1.0.2/MSDK/cloud/alicloud/src/services/linkkit/dm\dm_msg_process.c ****     char product_key[PRODUCT_KEY_MAXLEN] = {0};
 176:C:/Users/stapi/OneDrive/Desktop/GD32VW553/V1_MQTT_OK/GD32VW55X_Wifi_BLE_SDK/GD32VW55x_RELEASE_V1.0.2/MSDK/cloud/alicloud/src/services/linkkit/dm\dm_msg_process.c ****     char device_name[DEVICE_NAME_MAXLEN] = {0};
 241              		.loc 1 176 10
 242 0010 8145     		li	a1,0
 243              	.LVL26:
 244 0012 7546     		li	a2,29
 245              	.LVL27:
 246 0014 0810     		addi	a0,sp,32
 247              	.LVL28:
 173:C:/Users/stapi/OneDrive/Desktop/GD32VW553/V1_MQTT_OK/GD32VW55X_Wifi_BLE_SDK/GD32VW55x_RELEASE_V1.0.2/MSDK/cloud/alicloud/src/services/linkkit/dm\dm_msg_process.c ****     int res = 0, devid = 0;
 248              		.loc 1 173 1
 249 0016 3684     		mv	s0,a3
 174:C:/Users/stapi/OneDrive/Desktop/GD32VW553/V1_MQTT_OK/GD32VW55X_Wifi_BLE_SDK/GD32VW55x_RELEASE_V1.0.2/MSDK/cloud/alicloud/src/services/linkkit/dm\dm_msg_process.c ****     char product_key[PRODUCT_KEY_MAXLEN] = {0};
 250              		.loc 1 174 18
 251 0018 02C0     		sw	zero,0(sp)
 175:C:/Users/stapi/OneDrive/Desktop/GD32VW553/V1_MQTT_OK/GD32VW55X_Wifi_BLE_SDK/GD32VW55x_RELEASE_V1.0.2/MSDK/cloud/alicloud/src/services/linkkit/dm\dm_msg_process.c ****     char product_key[PRODUCT_KEY_MAXLEN] = {0};
 252              		.loc 1 175 5 is_stmt 1
 175:C:/Users/stapi/OneDrive/Desktop/GD32VW553/V1_MQTT_OK/GD32VW55X_Wifi_BLE_SDK/GD32VW55x_RELEASE_V1.0.2/MSDK/cloud/alicloud/src/services/linkkit/dm\dm_msg_process.c ****     char product_key[PRODUCT_KEY_MAXLEN] = {0};
 253              		.loc 1 175 10 is_stmt 0
 254 001a 02C2     		sw	zero,4(sp)
 255 001c 02C4     		sw	zero,8(sp)
 256 001e 02C6     		sw	zero,12(sp)
 257 0020 02C8     		sw	zero,16(sp)
 258 0022 02CA     		sw	zero,20(sp)
 259 0024 230C0100 		sb	zero,24(sp)
 260              		.loc 1 176 5 is_stmt 1
 261              		.loc 1 176 10 is_stmt 0
 262 0028 02CE     		sw	zero,28(sp)
 263 002a 97000000 		call	memset
 263      E7800000 
 264              	.LVL29:
 177:C:/Users/stapi/OneDrive/Desktop/GD32VW553/V1_MQTT_OK/GD32VW55X_Wifi_BLE_SDK/GD32VW55x_RELEASE_V1.0.2/MSDK/cloud/alicloud/src/services/linkkit/dm\dm_msg_process.c **** 
 178:C:/Users/stapi/OneDrive/Desktop/GD32VW553/V1_MQTT_OK/GD32VW55X_Wifi_BLE_SDK/GD32VW55x_RELEASE_V1.0.2/MSDK/cloud/alicloud/src/services/linkkit/dm\dm_msg_process.c ****     dm_log_info(DM_URI_THING_SERVICE_PROPERTY_SET);
 265              		.loc 1 178 5 is_stmt 1
 266              		.loc 1 178 5
 267 0032 37050000 		lui	a0,%hi(.LC0)
 268 0036 13050500 		addi	a0,a0,%lo(.LC0)
 269 003a 97000000 		call	HAL_Printf
 269      E7800000 
 270              	.LVL30:
 271              		.loc 1 178 5
 272 0042 37050000 		lui	a0,%hi(.LANCHOR1)
 273 0046 13050500 		addi	a0,a0,%lo(.LANCHOR1)
 274 004a 97000000 		call	HAL_Printf
 274      E7800000 
 275              	.LVL31:
 276              		.loc 1 178 5
 277 0052 37050000 		lui	a0,%hi(.LC1)
 278 0056 13050500 		addi	a0,a0,%lo(.LC1)
 279 005a 97000000 		call	HAL_Printf
 279      E7800000 
 280              	.LVL32:
 281              		.loc 1 178 5
 179:C:/Users/stapi/OneDrive/Desktop/GD32VW553/V1_MQTT_OK/GD32VW55X_Wifi_BLE_SDK/GD32VW55x_RELEASE_V1.0.2/MSDK/cloud/alicloud/src/services/linkkit/dm\dm_msg_process.c **** 
 180:C:/Users/stapi/OneDrive/Desktop/GD32VW553/V1_MQTT_OK/GD32VW55X_Wifi_BLE_SDK/GD32VW55x_RELEASE_V1.0.2/MSDK/cloud/alicloud/src/services/linkkit/dm\dm_msg_process.c ****     /* Request */
 181:C:/Users/stapi/OneDrive/Desktop/GD32VW553/V1_MQTT_OK/GD32VW55X_Wifi_BLE_SDK/GD32VW55x_RELEASE_V1.0.2/MSDK/cloud/alicloud/src/services/linkkit/dm\dm_msg_process.c ****     res = dm_msg_uri_parse_pkdn((char *)source->uri, strlen(source->uri), 2 + DM_URI_OFFSET, 4 + DM
 282              		.loc 1 181 5
 283              		.loc 1 181 47 is_stmt 0
 284 0062 03AA0400 		lw	s4,0(s1)
 285              		.loc 1 181 54
 286 0066 5285     		mv	a0,s4
 287 0068 97000000 		call	strlen
 287      E7800000 
 288              	.LVL33:
 289 0070 AA85     		mv	a1,a0
 290              		.loc 1 181 11
 291 0072 7C08     		addi	a5,sp,28
 292 0074 5800     		addi	a4,sp,4
 293 0076 9146     		li	a3,4
 294 0078 0946     		li	a2,2
 295 007a 5285     		mv	a0,s4
 296 007c 97000000 		call	dm_msg_uri_parse_pkdn
 296      E7800000 
 297              	.LVL34:
 182:C:/Users/stapi/OneDrive/Desktop/GD32VW553/V1_MQTT_OK/GD32VW55X_Wifi_BLE_SDK/GD32VW55x_RELEASE_V1.0.2/MSDK/cloud/alicloud/src/services/linkkit/dm\dm_msg_process.c ****                                 device_name);
 183:C:/Users/stapi/OneDrive/Desktop/GD32VW553/V1_MQTT_OK/GD32VW55X_Wifi_BLE_SDK/GD32VW55x_RELEASE_V1.0.2/MSDK/cloud/alicloud/src/services/linkkit/dm\dm_msg_process.c ****     if (res < SUCCESS_RETURN) {
 298              		.loc 1 183 5 is_stmt 1
 299              		.loc 1 183 8 is_stmt 0
 300 0084 63440508 		blt	a0,zero,.L9
 184:C:/Users/stapi/OneDrive/Desktop/GD32VW553/V1_MQTT_OK/GD32VW55X_Wifi_BLE_SDK/GD32VW55x_RELEASE_V1.0.2/MSDK/cloud/alicloud/src/services/linkkit/dm\dm_msg_process.c ****         return res;
 185:C:/Users/stapi/OneDrive/Desktop/GD32VW553/V1_MQTT_OK/GD32VW55X_Wifi_BLE_SDK/GD32VW55x_RELEASE_V1.0.2/MSDK/cloud/alicloud/src/services/linkkit/dm\dm_msg_process.c ****     }
 186:C:/Users/stapi/OneDrive/Desktop/GD32VW553/V1_MQTT_OK/GD32VW55X_Wifi_BLE_SDK/GD32VW55x_RELEASE_V1.0.2/MSDK/cloud/alicloud/src/services/linkkit/dm\dm_msg_process.c **** #ifdef ALCS_GROUP_COMM_ENABLE
 187:C:/Users/stapi/OneDrive/Desktop/GD32VW553/V1_MQTT_OK/GD32VW55X_Wifi_BLE_SDK/GD32VW55x_RELEASE_V1.0.2/MSDK/cloud/alicloud/src/services/linkkit/dm\dm_msg_process.c ****     if (strcmp(product_key,"service") == 0 && strcmp(device_name,"property") == 0){
 188:C:/Users/stapi/OneDrive/Desktop/GD32VW553/V1_MQTT_OK/GD32VW55X_Wifi_BLE_SDK/GD32VW55x_RELEASE_V1.0.2/MSDK/cloud/alicloud/src/services/linkkit/dm\dm_msg_process.c ****         res = HAL_GetProductKey(product_key);
 189:C:/Users/stapi/OneDrive/Desktop/GD32VW553/V1_MQTT_OK/GD32VW55X_Wifi_BLE_SDK/GD32VW55x_RELEASE_V1.0.2/MSDK/cloud/alicloud/src/services/linkkit/dm\dm_msg_process.c ****         res = HAL_GetDeviceName(device_name);
 190:C:/Users/stapi/OneDrive/Desktop/GD32VW553/V1_MQTT_OK/GD32VW55X_Wifi_BLE_SDK/GD32VW55x_RELEASE_V1.0.2/MSDK/cloud/alicloud/src/services/linkkit/dm\dm_msg_process.c ****     }
 191:C:/Users/stapi/OneDrive/Desktop/GD32VW553/V1_MQTT_OK/GD32VW55X_Wifi_BLE_SDK/GD32VW55x_RELEASE_V1.0.2/MSDK/cloud/alicloud/src/services/linkkit/dm\dm_msg_process.c **** #endif
 192:C:/Users/stapi/OneDrive/Desktop/GD32VW553/V1_MQTT_OK/GD32VW55X_Wifi_BLE_SDK/GD32VW55x_RELEASE_V1.0.2/MSDK/cloud/alicloud/src/services/linkkit/dm\dm_msg_process.c ****     res = dm_mgr_search_device_by_pkdn(product_key, device_name, &devid);
 301              		.loc 1 192 5 is_stmt 1
 302              		.loc 1 192 11 is_stmt 0
 303 0088 0A86     		mv	a2,sp
 304 008a 6C08     		addi	a1,sp,28
 305 008c 4800     		addi	a0,sp,4
 306              	.LVL35:
 307 008e 97000000 		call	dm_mgr_search_device_by_pkdn
 307      E7800000 
 308              	.LVL36:
 193:C:/Users/stapi/OneDrive/Desktop/GD32VW553/V1_MQTT_OK/GD32VW55X_Wifi_BLE_SDK/GD32VW55x_RELEASE_V1.0.2/MSDK/cloud/alicloud/src/services/linkkit/dm\dm_msg_process.c ****     if (res < SUCCESS_RETURN) {
 309              		.loc 1 193 5 is_stmt 1
 310              		.loc 1 193 8 is_stmt 0
 311 0096 634B0506 		blt	a0,zero,.L9
 194:C:/Users/stapi/OneDrive/Desktop/GD32VW553/V1_MQTT_OK/GD32VW55X_Wifi_BLE_SDK/GD32VW55x_RELEASE_V1.0.2/MSDK/cloud/alicloud/src/services/linkkit/dm\dm_msg_process.c ****         return res;
 195:C:/Users/stapi/OneDrive/Desktop/GD32VW553/V1_MQTT_OK/GD32VW55X_Wifi_BLE_SDK/GD32VW55x_RELEASE_V1.0.2/MSDK/cloud/alicloud/src/services/linkkit/dm\dm_msg_process.c ****     }
 196:C:/Users/stapi/OneDrive/Desktop/GD32VW553/V1_MQTT_OK/GD32VW55X_Wifi_BLE_SDK/GD32VW55x_RELEASE_V1.0.2/MSDK/cloud/alicloud/src/services/linkkit/dm\dm_msg_process.c **** 
 197:C:/Users/stapi/OneDrive/Desktop/GD32VW553/V1_MQTT_OK/GD32VW55X_Wifi_BLE_SDK/GD32VW55x_RELEASE_V1.0.2/MSDK/cloud/alicloud/src/services/linkkit/dm\dm_msg_process.c ****     res = dm_msg_request_parse((char *)source->payload, source->payload_len, request);
 312              		.loc 1 197 5 is_stmt 1
 313              		.loc 1 197 11 is_stmt 0
 314 009a 8C44     		lw	a1,8(s1)
 315 009c C840     		lw	a0,4(s1)
 316              	.LVL37:
 317 009e 4A86     		mv	a2,s2
 318 00a0 97000000 		call	dm_msg_request_parse
 318      E7800000 
 319              	.LVL38:
 198:C:/Users/stapi/OneDrive/Desktop/GD32VW553/V1_MQTT_OK/GD32VW55X_Wifi_BLE_SDK/GD32VW55x_RELEASE_V1.0.2/MSDK/cloud/alicloud/src/services/linkkit/dm\dm_msg_process.c ****     if (res < SUCCESS_RETURN) {
 320              		.loc 1 198 5 is_stmt 1
 321              		.loc 1 198 8 is_stmt 0
 322 00a8 63420506 		blt	a0,zero,.L9
 199:C:/Users/stapi/OneDrive/Desktop/GD32VW553/V1_MQTT_OK/GD32VW55X_Wifi_BLE_SDK/GD32VW55x_RELEASE_V1.0.2/MSDK/cloud/alicloud/src/services/linkkit/dm\dm_msg_process.c ****         return res ;
 200:C:/Users/stapi/OneDrive/Desktop/GD32VW553/V1_MQTT_OK/GD32VW55X_Wifi_BLE_SDK/GD32VW55x_RELEASE_V1.0.2/MSDK/cloud/alicloud/src/services/linkkit/dm\dm_msg_process.c ****     }
 201:C:/Users/stapi/OneDrive/Desktop/GD32VW553/V1_MQTT_OK/GD32VW55X_Wifi_BLE_SDK/GD32VW55x_RELEASE_V1.0.2/MSDK/cloud/alicloud/src/services/linkkit/dm\dm_msg_process.c **** 
 202:C:/Users/stapi/OneDrive/Desktop/GD32VW553/V1_MQTT_OK/GD32VW55X_Wifi_BLE_SDK/GD32VW55x_RELEASE_V1.0.2/MSDK/cloud/alicloud/src/services/linkkit/dm\dm_msg_process.c ****     /* Operation */
 203:C:/Users/stapi/OneDrive/Desktop/GD32VW553/V1_MQTT_OK/GD32VW55X_Wifi_BLE_SDK/GD32VW55x_RELEASE_V1.0.2/MSDK/cloud/alicloud/src/services/linkkit/dm\dm_msg_process.c ****     res = dm_msg_property_set(devid, request);
 323              		.loc 1 203 5 is_stmt 1
 324              		.loc 1 203 11 is_stmt 0
 325 00ac 0245     		lw	a0,0(sp)
 326              	.LVL39:
 327 00ae CA85     		mv	a1,s2
 328 00b0 97000000 		call	dm_msg_property_set
 328      E7800000 
 329              	.LVL40:
 204:C:/Users/stapi/OneDrive/Desktop/GD32VW553/V1_MQTT_OK/GD32VW55X_Wifi_BLE_SDK/GD32VW55x_RELEASE_V1.0.2/MSDK/cloud/alicloud/src/services/linkkit/dm\dm_msg_process.c **** 
 205:C:/Users/stapi/OneDrive/Desktop/GD32VW553/V1_MQTT_OK/GD32VW55X_Wifi_BLE_SDK/GD32VW55x_RELEASE_V1.0.2/MSDK/cloud/alicloud/src/services/linkkit/dm\dm_msg_process.c ****     /* Response */
 206:C:/Users/stapi/OneDrive/Desktop/GD32VW553/V1_MQTT_OK/GD32VW55X_Wifi_BLE_SDK/GD32VW55x_RELEASE_V1.0.2/MSDK/cloud/alicloud/src/services/linkkit/dm\dm_msg_process.c ****     response->service_prefix = DM_URI_SYS_PREFIX;
 330              		.loc 1 206 30
 331 00b8 B7070000 		lui	a5,%hi(.LANCHOR2)
 332 00bc 93870700 		addi	a5,a5,%lo(.LANCHOR2)
 333 00c0 1CC0     		sw	a5,0(s0)
 207:C:/Users/stapi/OneDrive/Desktop/GD32VW553/V1_MQTT_OK/GD32VW55X_Wifi_BLE_SDK/GD32VW55x_RELEASE_V1.0.2/MSDK/cloud/alicloud/src/services/linkkit/dm\dm_msg_process.c ****     response->service_name = dest->uri_name;
 334              		.loc 1 207 28
 335 00c2 83A70900 		lw	a5,0(s3)
 203:C:/Users/stapi/OneDrive/Desktop/GD32VW553/V1_MQTT_OK/GD32VW55X_Wifi_BLE_SDK/GD32VW55x_RELEASE_V1.0.2/MSDK/cloud/alicloud/src/services/linkkit/dm\dm_msg_process.c **** 
 336              		.loc 1 203 11
 337 00c6 AA84     		mv	s1,a0
 338              	.LVL41:
 206:C:/Users/stapi/OneDrive/Desktop/GD32VW553/V1_MQTT_OK/GD32VW55X_Wifi_BLE_SDK/GD32VW55x_RELEASE_V1.0.2/MSDK/cloud/alicloud/src/services/linkkit/dm\dm_msg_process.c ****     response->service_name = dest->uri_name;
 339              		.loc 1 206 5 is_stmt 1
 340              		.loc 1 207 5
 208:C:/Users/stapi/OneDrive/Desktop/GD32VW553/V1_MQTT_OK/GD32VW55X_Wifi_BLE_SDK/GD32VW55x_RELEASE_V1.0.2/MSDK/cloud/alicloud/src/services/linkkit/dm\dm_msg_process.c ****     memcpy(response->product_key, product_key, strlen(product_key));
 341              		.loc 1 208 5 is_stmt 0
 342 00c8 4800     		addi	a0,sp,4
 207:C:/Users/stapi/OneDrive/Desktop/GD32VW553/V1_MQTT_OK/GD32VW55X_Wifi_BLE_SDK/GD32VW55x_RELEASE_V1.0.2/MSDK/cloud/alicloud/src/services/linkkit/dm\dm_msg_process.c ****     memcpy(response->product_key, product_key, strlen(product_key));
 343              		.loc 1 207 28
 344 00ca 5CC0     		sw	a5,4(s0)
 345              		.loc 1 208 5 is_stmt 1
 346 00cc 97000000 		call	strlen
 346      E7800000 
 347              	.LVL42:
 348 00d4 2A86     		mv	a2,a0
 349 00d6 4C00     		addi	a1,sp,4
 350 00d8 13058400 		addi	a0,s0,8
 351 00dc 97000000 		call	memcpy
 351      E7800000 
 352              	.LVL43:
 209:C:/Users/stapi/OneDrive/Desktop/GD32VW553/V1_MQTT_OK/GD32VW55X_Wifi_BLE_SDK/GD32VW55x_RELEASE_V1.0.2/MSDK/cloud/alicloud/src/services/linkkit/dm\dm_msg_process.c ****     memcpy(response->device_name, device_name, strlen(device_name));
 353              		.loc 1 209 5
 354 00e4 6808     		addi	a0,sp,28
 355 00e6 97000000 		call	strlen
 355      E7800000 
 356              	.LVL44:
 357 00ee 2A86     		mv	a2,a0
 358 00f0 6C08     		addi	a1,sp,28
 359 00f2 1305D401 		addi	a0,s0,29
 360 00f6 97000000 		call	memcpy
 360      E7800000 
 361              	.LVL45:
 210:C:/Users/stapi/OneDrive/Desktop/GD32VW553/V1_MQTT_OK/GD32VW55X_Wifi_BLE_SDK/GD32VW55x_RELEASE_V1.0.2/MSDK/cloud/alicloud/src/services/linkkit/dm\dm_msg_process.c ****     response->code = (res == SUCCESS_RETURN) ? (IOTX_DM_ERR_CODE_SUCCESS) : (IOTX_DM_ERR_CODE_REQUE
 362              		.loc 1 210 5
 363              		.loc 1 210 75 is_stmt 0
 364 00fe 9307800C 		li	a5,200
 365 0102 99C0     		beq	s1,zero,.L11
 366 0104 93070019 		li	a5,400
 367              	.L11:
 368              		.loc 1 210 20 discriminator 4
 369 0108 3CC0     		sw	a5,64(s0)
 211:C:/Users/stapi/OneDrive/Desktop/GD32VW553/V1_MQTT_OK/GD32VW55X_Wifi_BLE_SDK/GD32VW55x_RELEASE_V1.0.2/MSDK/cloud/alicloud/src/services/linkkit/dm\dm_msg_process.c **** 
 212:C:/Users/stapi/OneDrive/Desktop/GD32VW553/V1_MQTT_OK/GD32VW55X_Wifi_BLE_SDK/GD32VW55x_RELEASE_V1.0.2/MSDK/cloud/alicloud/src/services/linkkit/dm\dm_msg_process.c ****     return SUCCESS_RETURN;
 370              		.loc 1 212 5 is_stmt 1 discriminator 4
 371              		.loc 1 212 12 is_stmt 0 discriminator 4
 372 010a 0145     		li	a0,0
 373              	.LVL46:
 374              	.L9:
 213:C:/Users/stapi/OneDrive/Desktop/GD32VW553/V1_MQTT_OK/GD32VW55X_Wifi_BLE_SDK/GD32VW55x_RELEASE_V1.0.2/MSDK/cloud/alicloud/src/services/linkkit/dm\dm_msg_process.c **** }
 375              		.loc 1 213 1
 376 010c 2161     		addi	sp,sp,64
 377              		.cfi_def_cfa_offset 0
 378 010e 17030000 		tail	__riscv_restore_5
 378      67000300 
 379              		.cfi_restore 20
 380              		.cfi_restore 19
 381              		.cfi_restore 18
 382              		.cfi_restore 9
 383              		.cfi_restore 8
 384              		.cfi_restore 1
 385              		.cfi_def_cfa_offset -32
 386              		.cfi_endproc
 387              	.LFE22:
 389              		.section	.rodata.dm_msg_proc_thing_service_property_get.str1.4,"aMS",@progbits,1
 390              		.align	2
 391              	.LC2:
 392 0000 5B657272 		.string	"[err] "
 392      5D2000
 393 0007 00       		.align	2
 394              	.LC3:
 395 0008 444D2050 		.string	"DM Property Get Failed"
 395      726F7065 
 395      72747920 
 395      47657420 
 395      4661696C 
 396              		.section	.text.dm_msg_proc_thing_service_property_get,"ax",@progbits
 397              		.align	1
 398              		.globl	dm_msg_proc_thing_service_property_get
 400              	dm_msg_proc_thing_service_property_get:
 401              	.LFB23:
 214:C:/Users/stapi/OneDrive/Desktop/GD32VW553/V1_MQTT_OK/GD32VW55X_Wifi_BLE_SDK/GD32VW55x_RELEASE_V1.0.2/MSDK/cloud/alicloud/src/services/linkkit/dm\dm_msg_process.c **** 
 215:C:/Users/stapi/OneDrive/Desktop/GD32VW553/V1_MQTT_OK/GD32VW55X_Wifi_BLE_SDK/GD32VW55x_RELEASE_V1.0.2/MSDK/cloud/alicloud/src/services/linkkit/dm\dm_msg_process.c **** int dm_msg_proc_thing_service_property_get(_IN_ dm_msg_source_t *source, _IN_ dm_msg_dest_t *dest,
 216:C:/Users/stapi/OneDrive/Desktop/GD32VW553/V1_MQTT_OK/GD32VW55X_Wifi_BLE_SDK/GD32VW55x_RELEASE_V1.0.2/MSDK/cloud/alicloud/src/services/linkkit/dm\dm_msg_process.c ****         _OU_ dm_msg_request_payload_t *request, _OU_ dm_msg_response_t *response,
 217:C:/Users/stapi/OneDrive/Desktop/GD32VW553/V1_MQTT_OK/GD32VW55X_Wifi_BLE_SDK/GD32VW55x_RELEASE_V1.0.2/MSDK/cloud/alicloud/src/services/linkkit/dm\dm_msg_process.c ****         _OU_ unsigned char **data, int *data_len)
 218:C:/Users/stapi/OneDrive/Desktop/GD32VW553/V1_MQTT_OK/GD32VW55X_Wifi_BLE_SDK/GD32VW55x_RELEASE_V1.0.2/MSDK/cloud/alicloud/src/services/linkkit/dm\dm_msg_process.c **** {
 402              		.loc 1 218 1 is_stmt 1
 403              		.cfi_startproc
 404              	.LVL47:
 405 0000 17030000 		call	t0,__riscv_save_4
 405      E7020300 
 406              		.cfi_offset 19, -20
 407              		.cfi_offset 18, -16
 408              		.cfi_offset 9, -12
 409              		.cfi_offset 8, -8
 410              		.cfi_offset 1, -4
 411              		.cfi_def_cfa_offset 32
 219:C:/Users/stapi/OneDrive/Desktop/GD32VW553/V1_MQTT_OK/GD32VW55X_Wifi_BLE_SDK/GD32VW55x_RELEASE_V1.0.2/MSDK/cloud/alicloud/src/services/linkkit/dm\dm_msg_process.c ****     int res = 0, devid = 0;
 412              		.loc 1 219 5
 413              	.LVL48:
 218:C:/Users/stapi/OneDrive/Desktop/GD32VW553/V1_MQTT_OK/GD32VW55X_Wifi_BLE_SDK/GD32VW55x_RELEASE_V1.0.2/MSDK/cloud/alicloud/src/services/linkkit/dm\dm_msg_process.c ****     int res = 0, devid = 0;
 414              		.loc 1 218 1 is_stmt 0
 415 0008 3971     		addi	sp,sp,-64
 416              		.cfi_def_cfa_offset 96
 220:C:/Users/stapi/OneDrive/Desktop/GD32VW553/V1_MQTT_OK/GD32VW55X_Wifi_BLE_SDK/GD32VW55x_RELEASE_V1.0.2/MSDK/cloud/alicloud/src/services/linkkit/dm\dm_msg_process.c ****     char product_key[PRODUCT_KEY_MAXLEN] = {0};
 221:C:/Users/stapi/OneDrive/Desktop/GD32VW553/V1_MQTT_OK/GD32VW55X_Wifi_BLE_SDK/GD32VW55x_RELEASE_V1.0.2/MSDK/cloud/alicloud/src/services/linkkit/dm\dm_msg_process.c ****     char device_name[DEVICE_NAME_MAXLEN] = {0};
 417              		.loc 1 221 10
 418 000a 8145     		li	a1,0
 419              	.LVL49:
 218:C:/Users/stapi/OneDrive/Desktop/GD32VW553/V1_MQTT_OK/GD32VW55X_Wifi_BLE_SDK/GD32VW55x_RELEASE_V1.0.2/MSDK/cloud/alicloud/src/services/linkkit/dm\dm_msg_process.c ****     int res = 0, devid = 0;
 420              		.loc 1 218 1
 421 000c AA84     		mv	s1,a0
 422 000e 3289     		mv	s2,a2
 423              		.loc 1 221 10
 424 0010 0810     		addi	a0,sp,32
 425              	.LVL50:
 426 0012 7546     		li	a2,29
 427              	.LVL51:
 219:C:/Users/stapi/OneDrive/Desktop/GD32VW553/V1_MQTT_OK/GD32VW55X_Wifi_BLE_SDK/GD32VW55x_RELEASE_V1.0.2/MSDK/cloud/alicloud/src/services/linkkit/dm\dm_msg_process.c ****     char product_key[PRODUCT_KEY_MAXLEN] = {0};
 428              		.loc 1 219 18
 429 0014 02C0     		sw	zero,0(sp)
 220:C:/Users/stapi/OneDrive/Desktop/GD32VW553/V1_MQTT_OK/GD32VW55X_Wifi_BLE_SDK/GD32VW55x_RELEASE_V1.0.2/MSDK/cloud/alicloud/src/services/linkkit/dm\dm_msg_process.c ****     char product_key[PRODUCT_KEY_MAXLEN] = {0};
 430              		.loc 1 220 5 is_stmt 1
 220:C:/Users/stapi/OneDrive/Desktop/GD32VW553/V1_MQTT_OK/GD32VW55X_Wifi_BLE_SDK/GD32VW55x_RELEASE_V1.0.2/MSDK/cloud/alicloud/src/services/linkkit/dm\dm_msg_process.c ****     char product_key[PRODUCT_KEY_MAXLEN] = {0};
 431              		.loc 1 220 10 is_stmt 0
 432 0016 02C2     		sw	zero,4(sp)
 433 0018 02C4     		sw	zero,8(sp)
 434 001a 02C6     		sw	zero,12(sp)
 435 001c 02C8     		sw	zero,16(sp)
 436 001e 02CA     		sw	zero,20(sp)
 437 0020 230C0100 		sb	zero,24(sp)
 438              		.loc 1 221 5 is_stmt 1
 439              		.loc 1 221 10 is_stmt 0
 440 0024 02CE     		sw	zero,28(sp)
 441 0026 97000000 		call	memset
 441      E7800000 
 442              	.LVL52:
 222:C:/Users/stapi/OneDrive/Desktop/GD32VW553/V1_MQTT_OK/GD32VW55X_Wifi_BLE_SDK/GD32VW55x_RELEASE_V1.0.2/MSDK/cloud/alicloud/src/services/linkkit/dm\dm_msg_process.c **** 
 223:C:/Users/stapi/OneDrive/Desktop/GD32VW553/V1_MQTT_OK/GD32VW55X_Wifi_BLE_SDK/GD32VW55x_RELEASE_V1.0.2/MSDK/cloud/alicloud/src/services/linkkit/dm\dm_msg_process.c ****     dm_log_info(DM_URI_THING_SERVICE_PROPERTY_GET);
 443              		.loc 1 223 5 is_stmt 1
 444              		.loc 1 223 5
 445 002e 37050000 		lui	a0,%hi(.LC0)
 446 0032 13050500 		addi	a0,a0,%lo(.LC0)
 447 0036 97000000 		call	HAL_Printf
 447      E7800000 
 448              	.LVL53:
 449              		.loc 1 223 5
 450 003e 37050000 		lui	a0,%hi(.LANCHOR3)
 451 0042 13050500 		addi	a0,a0,%lo(.LANCHOR3)
 452 0046 97000000 		call	HAL_Printf
 452      E7800000 
 453              	.LVL54:
 454              		.loc 1 223 5
 455 004e B7090000 		lui	s3,%hi(.LC1)
 456 0052 13850900 		addi	a0,s3,%lo(.LC1)
 457 0056 97000000 		call	HAL_Printf
 457      E7800000 
 458              	.LVL55:
 459              		.loc 1 223 5
 224:C:/Users/stapi/OneDrive/Desktop/GD32VW553/V1_MQTT_OK/GD32VW55X_Wifi_BLE_SDK/GD32VW55x_RELEASE_V1.0.2/MSDK/cloud/alicloud/src/services/linkkit/dm\dm_msg_process.c **** 
 225:C:/Users/stapi/OneDrive/Desktop/GD32VW553/V1_MQTT_OK/GD32VW55X_Wifi_BLE_SDK/GD32VW55x_RELEASE_V1.0.2/MSDK/cloud/alicloud/src/services/linkkit/dm\dm_msg_process.c ****     /* Request */
 226:C:/Users/stapi/OneDrive/Desktop/GD32VW553/V1_MQTT_OK/GD32VW55X_Wifi_BLE_SDK/GD32VW55x_RELEASE_V1.0.2/MSDK/cloud/alicloud/src/services/linkkit/dm\dm_msg_process.c ****     res = dm_msg_uri_parse_pkdn((char *)source->uri, strlen(source->uri), 2 + DM_URI_OFFSET, 4 + DM
 460              		.loc 1 226 5
 461              		.loc 1 226 47 is_stmt 0
 462 005e 8040     		lw	s0,0(s1)
 463              		.loc 1 226 54
 464 0060 2285     		mv	a0,s0
 465 0062 97000000 		call	strlen
 465      E7800000 
 466              	.LVL56:
 467 006a AA85     		mv	a1,a0
 468              		.loc 1 226 11
 469 006c 7C08     		addi	a5,sp,28
 470 006e 2285     		mv	a0,s0
 471 0070 5800     		addi	a4,sp,4
 472 0072 9146     		li	a3,4
 473 0074 0946     		li	a2,2
 474 0076 97000000 		call	dm_msg_uri_parse_pkdn
 474      E7800000 
 475              	.LVL57:
 476 007e 2A84     		mv	s0,a0
 477              	.LVL58:
 227:C:/Users/stapi/OneDrive/Desktop/GD32VW553/V1_MQTT_OK/GD32VW55X_Wifi_BLE_SDK/GD32VW55x_RELEASE_V1.0.2/MSDK/cloud/alicloud/src/services/linkkit/dm\dm_msg_process.c ****                                 device_name);
 228:C:/Users/stapi/OneDrive/Desktop/GD32VW553/V1_MQTT_OK/GD32VW55X_Wifi_BLE_SDK/GD32VW55x_RELEASE_V1.0.2/MSDK/cloud/alicloud/src/services/linkkit/dm\dm_msg_process.c ****     if (res < SUCCESS_RETURN) {
 478              		.loc 1 228 5 is_stmt 1
 479              		.loc 1 228 8 is_stmt 0
 480 0080 63450506 		blt	a0,zero,.L15
 229:C:/Users/stapi/OneDrive/Desktop/GD32VW553/V1_MQTT_OK/GD32VW55X_Wifi_BLE_SDK/GD32VW55x_RELEASE_V1.0.2/MSDK/cloud/alicloud/src/services/linkkit/dm\dm_msg_process.c ****         return res;
 230:C:/Users/stapi/OneDrive/Desktop/GD32VW553/V1_MQTT_OK/GD32VW55X_Wifi_BLE_SDK/GD32VW55x_RELEASE_V1.0.2/MSDK/cloud/alicloud/src/services/linkkit/dm\dm_msg_process.c ****     }
 231:C:/Users/stapi/OneDrive/Desktop/GD32VW553/V1_MQTT_OK/GD32VW55X_Wifi_BLE_SDK/GD32VW55x_RELEASE_V1.0.2/MSDK/cloud/alicloud/src/services/linkkit/dm\dm_msg_process.c **** 
 232:C:/Users/stapi/OneDrive/Desktop/GD32VW553/V1_MQTT_OK/GD32VW55X_Wifi_BLE_SDK/GD32VW55x_RELEASE_V1.0.2/MSDK/cloud/alicloud/src/services/linkkit/dm\dm_msg_process.c ****     res = dm_mgr_search_device_by_pkdn(product_key, device_name, &devid);
 481              		.loc 1 232 5 is_stmt 1
 482              		.loc 1 232 11 is_stmt 0
 483 0084 0A86     		mv	a2,sp
 484 0086 6C08     		addi	a1,sp,28
 485 0088 4800     		addi	a0,sp,4
 486 008a 97000000 		call	dm_mgr_search_device_by_pkdn
 486      E7800000 
 487              	.LVL59:
 488 0092 2A84     		mv	s0,a0
 489              	.LVL60:
 233:C:/Users/stapi/OneDrive/Desktop/GD32VW553/V1_MQTT_OK/GD32VW55X_Wifi_BLE_SDK/GD32VW55x_RELEASE_V1.0.2/MSDK/cloud/alicloud/src/services/linkkit/dm\dm_msg_process.c ****     if (res < SUCCESS_RETURN) {
 490              		.loc 1 233 5 is_stmt 1
 491              		.loc 1 233 8 is_stmt 0
 492 0094 634B0504 		blt	a0,zero,.L15
 234:C:/Users/stapi/OneDrive/Desktop/GD32VW553/V1_MQTT_OK/GD32VW55X_Wifi_BLE_SDK/GD32VW55x_RELEASE_V1.0.2/MSDK/cloud/alicloud/src/services/linkkit/dm\dm_msg_process.c ****         return res;
 235:C:/Users/stapi/OneDrive/Desktop/GD32VW553/V1_MQTT_OK/GD32VW55X_Wifi_BLE_SDK/GD32VW55x_RELEASE_V1.0.2/MSDK/cloud/alicloud/src/services/linkkit/dm\dm_msg_process.c ****     }
 236:C:/Users/stapi/OneDrive/Desktop/GD32VW553/V1_MQTT_OK/GD32VW55X_Wifi_BLE_SDK/GD32VW55x_RELEASE_V1.0.2/MSDK/cloud/alicloud/src/services/linkkit/dm\dm_msg_process.c **** 
 237:C:/Users/stapi/OneDrive/Desktop/GD32VW553/V1_MQTT_OK/GD32VW55X_Wifi_BLE_SDK/GD32VW55x_RELEASE_V1.0.2/MSDK/cloud/alicloud/src/services/linkkit/dm\dm_msg_process.c ****     res = dm_msg_request_parse((char *)source->payload, source->payload_len, request);
 493              		.loc 1 237 5 is_stmt 1
 494              		.loc 1 237 11 is_stmt 0
 495 0098 8C44     		lw	a1,8(s1)
 496 009a C840     		lw	a0,4(s1)
 497 009c 4A86     		mv	a2,s2
 498 009e 97000000 		call	dm_msg_request_parse
 498      E7800000 
 499              	.LVL61:
 500 00a6 2A84     		mv	s0,a0
 501              	.LVL62:
 238:C:/Users/stapi/OneDrive/Desktop/GD32VW553/V1_MQTT_OK/GD32VW55X_Wifi_BLE_SDK/GD32VW55x_RELEASE_V1.0.2/MSDK/cloud/alicloud/src/services/linkkit/dm\dm_msg_process.c ****     if (res < SUCCESS_RETURN) {
 502              		.loc 1 238 5 is_stmt 1
 503              		.loc 1 238 8 is_stmt 0
 504 00a8 63410504 		blt	a0,zero,.L15
 239:C:/Users/stapi/OneDrive/Desktop/GD32VW553/V1_MQTT_OK/GD32VW55X_Wifi_BLE_SDK/GD32VW55x_RELEASE_V1.0.2/MSDK/cloud/alicloud/src/services/linkkit/dm\dm_msg_process.c ****         return res ;
 240:C:/Users/stapi/OneDrive/Desktop/GD32VW553/V1_MQTT_OK/GD32VW55X_Wifi_BLE_SDK/GD32VW55x_RELEASE_V1.0.2/MSDK/cloud/alicloud/src/services/linkkit/dm\dm_msg_process.c ****     }
 241:C:/Users/stapi/OneDrive/Desktop/GD32VW553/V1_MQTT_OK/GD32VW55X_Wifi_BLE_SDK/GD32VW55x_RELEASE_V1.0.2/MSDK/cloud/alicloud/src/services/linkkit/dm\dm_msg_process.c **** 
 242:C:/Users/stapi/OneDrive/Desktop/GD32VW553/V1_MQTT_OK/GD32VW55X_Wifi_BLE_SDK/GD32VW55x_RELEASE_V1.0.2/MSDK/cloud/alicloud/src/services/linkkit/dm\dm_msg_process.c ****     /* Operation */
 243:C:/Users/stapi/OneDrive/Desktop/GD32VW553/V1_MQTT_OK/GD32VW55X_Wifi_BLE_SDK/GD32VW55x_RELEASE_V1.0.2/MSDK/cloud/alicloud/src/services/linkkit/dm\dm_msg_process.c ****     res = dm_msg_property_get(devid, request, source->context);
 505              		.loc 1 243 5 is_stmt 1
 506              		.loc 1 243 11 is_stmt 0
 507 00ac D044     		lw	a2,12(s1)
 508 00ae 0245     		lw	a0,0(sp)
 509 00b0 CA85     		mv	a1,s2
 510 00b2 97000000 		call	dm_msg_property_get
 510      E7800000 
 511              	.LVL63:
 512 00ba 2A84     		mv	s0,a0
 513              	.LVL64:
 244:C:/Users/stapi/OneDrive/Desktop/GD32VW553/V1_MQTT_OK/GD32VW55X_Wifi_BLE_SDK/GD32VW55x_RELEASE_V1.0.2/MSDK/cloud/alicloud/src/services/linkkit/dm\dm_msg_process.c **** 
 245:C:/Users/stapi/OneDrive/Desktop/GD32VW553/V1_MQTT_OK/GD32VW55X_Wifi_BLE_SDK/GD32VW55x_RELEASE_V1.0.2/MSDK/cloud/alicloud/src/services/linkkit/dm\dm_msg_process.c ****     if (res != SUCCESS_RETURN) {
 514              		.loc 1 245 5 is_stmt 1
 515              		.loc 1 245 8 is_stmt 0
 516 00bc 1DC5     		beq	a0,zero,.L15
 246:C:/Users/stapi/OneDrive/Desktop/GD32VW553/V1_MQTT_OK/GD32VW55X_Wifi_BLE_SDK/GD32VW55x_RELEASE_V1.0.2/MSDK/cloud/alicloud/src/services/linkkit/dm\dm_msg_process.c ****         dm_log_err("DM Property Get Failed");
 517              		.loc 1 246 9 is_stmt 1
 518              		.loc 1 246 9
 519 00be 37050000 		lui	a0,%hi(.LC2)
 520 00c2 13050500 		addi	a0,a0,%lo(.LC2)
 521 00c6 97000000 		call	HAL_Printf
 521      E7800000 
 522              	.LVL65:
 523              		.loc 1 246 9
 524 00ce 37050000 		lui	a0,%hi(.LC3)
 525 00d2 13050500 		addi	a0,a0,%lo(.LC3)
 526 00d6 97000000 		call	HAL_Printf
 526      E7800000 
 527              	.LVL66:
 528              		.loc 1 246 9
 529 00de 13850900 		addi	a0,s3,%lo(.LC1)
 530 00e2 97000000 		call	HAL_Printf
 530      E7800000 
 531              	.LVL67:
 532              	.L15:
 247:C:/Users/stapi/OneDrive/Desktop/GD32VW553/V1_MQTT_OK/GD32VW55X_Wifi_BLE_SDK/GD32VW55x_RELEASE_V1.0.2/MSDK/cloud/alicloud/src/services/linkkit/dm\dm_msg_process.c ****     }
 248:C:/Users/stapi/OneDrive/Desktop/GD32VW553/V1_MQTT_OK/GD32VW55X_Wifi_BLE_SDK/GD32VW55x_RELEASE_V1.0.2/MSDK/cloud/alicloud/src/services/linkkit/dm\dm_msg_process.c **** 
 249:C:/Users/stapi/OneDrive/Desktop/GD32VW553/V1_MQTT_OK/GD32VW55X_Wifi_BLE_SDK/GD32VW55x_RELEASE_V1.0.2/MSDK/cloud/alicloud/src/services/linkkit/dm\dm_msg_process.c ****     return res;
 250:C:/Users/stapi/OneDrive/Desktop/GD32VW553/V1_MQTT_OK/GD32VW55X_Wifi_BLE_SDK/GD32VW55x_RELEASE_V1.0.2/MSDK/cloud/alicloud/src/services/linkkit/dm\dm_msg_process.c **** }
 533              		.loc 1 250 1 is_stmt 0
 534 00ea 2285     		mv	a0,s0
 535 00ec 2161     		addi	sp,sp,64
 536              		.cfi_def_cfa_offset 0
 537 00ee 17030000 		tail	__riscv_restore_4
 537      67000300 
 538              		.cfi_restore 19
 539              		.cfi_restore 18
 540              		.cfi_restore 9
 541              		.cfi_restore 8
 542              		.cfi_restore 1
 543              		.cfi_def_cfa_offset -32
 544              		.cfi_endproc
 545              	.LFE23:
 547              		.section	.text.dm_msg_proc_thing_service_property_post,"ax",@progbits
 548              		.align	1
 549              		.globl	dm_msg_proc_thing_service_property_post
 551              	dm_msg_proc_thing_service_property_post:
 552              	.LFB24:
 251:C:/Users/stapi/OneDrive/Desktop/GD32VW553/V1_MQTT_OK/GD32VW55X_Wifi_BLE_SDK/GD32VW55x_RELEASE_V1.0.2/MSDK/cloud/alicloud/src/services/linkkit/dm\dm_msg_process.c **** 
 252:C:/Users/stapi/OneDrive/Desktop/GD32VW553/V1_MQTT_OK/GD32VW55X_Wifi_BLE_SDK/GD32VW55x_RELEASE_V1.0.2/MSDK/cloud/alicloud/src/services/linkkit/dm\dm_msg_process.c **** int dm_msg_proc_thing_service_property_post(_IN_ dm_msg_source_t *source, _IN_ dm_msg_dest_t *dest,
 253:C:/Users/stapi/OneDrive/Desktop/GD32VW553/V1_MQTT_OK/GD32VW55X_Wifi_BLE_SDK/GD32VW55x_RELEASE_V1.0.2/MSDK/cloud/alicloud/src/services/linkkit/dm\dm_msg_process.c ****         _OU_ dm_msg_request_payload_t *request, _OU_ dm_msg_response_t *response)
 254:C:/Users/stapi/OneDrive/Desktop/GD32VW553/V1_MQTT_OK/GD32VW55X_Wifi_BLE_SDK/GD32VW55x_RELEASE_V1.0.2/MSDK/cloud/alicloud/src/services/linkkit/dm\dm_msg_process.c **** {
 553              		.loc 1 254 1 is_stmt 1
 554              		.cfi_startproc
 555              	.LVL68:
 556 0000 17030000 		call	t0,__riscv_save_5
 556      E7020300 
 557              		.cfi_offset 20, -24
 558              		.cfi_offset 19, -20
 559              		.cfi_offset 18, -16
 560              		.cfi_offset 9, -12
 561              		.cfi_offset 8, -8
 562              		.cfi_offset 1, -4
 563              		.cfi_def_cfa_offset 32
 255:C:/Users/stapi/OneDrive/Desktop/GD32VW553/V1_MQTT_OK/GD32VW55X_Wifi_BLE_SDK/GD32VW55x_RELEASE_V1.0.2/MSDK/cloud/alicloud/src/services/linkkit/dm\dm_msg_process.c ****     int res = 0;
 564              		.loc 1 255 5
 565              	.LVL69:
 256:C:/Users/stapi/OneDrive/Desktop/GD32VW553/V1_MQTT_OK/GD32VW55X_Wifi_BLE_SDK/GD32VW55x_RELEASE_V1.0.2/MSDK/cloud/alicloud/src/services/linkkit/dm\dm_msg_process.c ****     char product_key[PRODUCT_KEY_MAXLEN] = {0};
 566              		.loc 1 256 5
 254:C:/Users/stapi/OneDrive/Desktop/GD32VW553/V1_MQTT_OK/GD32VW55X_Wifi_BLE_SDK/GD32VW55x_RELEASE_V1.0.2/MSDK/cloud/alicloud/src/services/linkkit/dm\dm_msg_process.c ****     int res = 0;
 567              		.loc 1 254 1 is_stmt 0
 568 0008 3971     		addi	sp,sp,-64
 569              		.cfi_def_cfa_offset 96
 254:C:/Users/stapi/OneDrive/Desktop/GD32VW553/V1_MQTT_OK/GD32VW55X_Wifi_BLE_SDK/GD32VW55x_RELEASE_V1.0.2/MSDK/cloud/alicloud/src/services/linkkit/dm\dm_msg_process.c ****     int res = 0;
 570              		.loc 1 254 1
 571 000a 2A89     		mv	s2,a0
 572 000c AE89     		mv	s3,a1
 573 000e 328A     		mv	s4,a2
 257:C:/Users/stapi/OneDrive/Desktop/GD32VW553/V1_MQTT_OK/GD32VW55X_Wifi_BLE_SDK/GD32VW55x_RELEASE_V1.0.2/MSDK/cloud/alicloud/src/services/linkkit/dm\dm_msg_process.c ****     char device_name[DEVICE_NAME_MAXLEN] = {0};
 574              		.loc 1 257 10
 575 0010 8145     		li	a1,0
 576              	.LVL70:
 577 0012 7546     		li	a2,29
 578              	.LVL71:
 579 0014 0810     		addi	a0,sp,32
 580              	.LVL72:
 254:C:/Users/stapi/OneDrive/Desktop/GD32VW553/V1_MQTT_OK/GD32VW55X_Wifi_BLE_SDK/GD32VW55x_RELEASE_V1.0.2/MSDK/cloud/alicloud/src/services/linkkit/dm\dm_msg_process.c ****     int res = 0;
 581              		.loc 1 254 1
 582 0016 3684     		mv	s0,a3
 256:C:/Users/stapi/OneDrive/Desktop/GD32VW553/V1_MQTT_OK/GD32VW55X_Wifi_BLE_SDK/GD32VW55x_RELEASE_V1.0.2/MSDK/cloud/alicloud/src/services/linkkit/dm\dm_msg_process.c ****     char product_key[PRODUCT_KEY_MAXLEN] = {0};
 583              		.loc 1 256 10
 584 0018 02C2     		sw	zero,4(sp)
 585 001a 02C4     		sw	zero,8(sp)
 586 001c 02C6     		sw	zero,12(sp)
 587 001e 02C8     		sw	zero,16(sp)
 588 0020 02CA     		sw	zero,20(sp)
 589 0022 230C0100 		sb	zero,24(sp)
 590              		.loc 1 257 5 is_stmt 1
 591              		.loc 1 257 10 is_stmt 0
 592 0026 02CE     		sw	zero,28(sp)
 593 0028 97000000 		call	memset
 593      E7800000 
 594              	.LVL73:
 258:C:/Users/stapi/OneDrive/Desktop/GD32VW553/V1_MQTT_OK/GD32VW55X_Wifi_BLE_SDK/GD32VW55x_RELEASE_V1.0.2/MSDK/cloud/alicloud/src/services/linkkit/dm\dm_msg_process.c **** 
 259:C:/Users/stapi/OneDrive/Desktop/GD32VW553/V1_MQTT_OK/GD32VW55X_Wifi_BLE_SDK/GD32VW55x_RELEASE_V1.0.2/MSDK/cloud/alicloud/src/services/linkkit/dm\dm_msg_process.c ****     dm_log_info(DM_URI_THING_EVENT_PROPERTY_POST);
 595              		.loc 1 259 5 is_stmt 1
 596              		.loc 1 259 5
 597 0030 37050000 		lui	a0,%hi(.LC0)
 598 0034 13050500 		addi	a0,a0,%lo(.LC0)
 599 0038 97000000 		call	HAL_Printf
 599      E7800000 
 600              	.LVL74:
 601              		.loc 1 259 5
 602 0040 37050000 		lui	a0,%hi(.LANCHOR4)
 603 0044 13050500 		addi	a0,a0,%lo(.LANCHOR4)
 604 0048 97000000 		call	HAL_Printf
 604      E7800000 
 605              	.LVL75:
 606              		.loc 1 259 5
 607 0050 37050000 		lui	a0,%hi(.LC1)
 608 0054 13050500 		addi	a0,a0,%lo(.LC1)
 609 0058 97000000 		call	HAL_Printf
 609      E7800000 
 610              	.LVL76:
 611              		.loc 1 259 5
 260:C:/Users/stapi/OneDrive/Desktop/GD32VW553/V1_MQTT_OK/GD32VW55X_Wifi_BLE_SDK/GD32VW55x_RELEASE_V1.0.2/MSDK/cloud/alicloud/src/services/linkkit/dm\dm_msg_process.c **** 
 261:C:/Users/stapi/OneDrive/Desktop/GD32VW553/V1_MQTT_OK/GD32VW55X_Wifi_BLE_SDK/GD32VW55x_RELEASE_V1.0.2/MSDK/cloud/alicloud/src/services/linkkit/dm\dm_msg_process.c ****     /* Request */
 262:C:/Users/stapi/OneDrive/Desktop/GD32VW553/V1_MQTT_OK/GD32VW55X_Wifi_BLE_SDK/GD32VW55x_RELEASE_V1.0.2/MSDK/cloud/alicloud/src/services/linkkit/dm\dm_msg_process.c ****     res = dm_msg_uri_parse_pkdn((char *)source->uri, strlen(source->uri), 2 + DM_URI_OFFSET, 4 + DM
 612              		.loc 1 262 5
 613              		.loc 1 262 47 is_stmt 0
 614 0060 83240900 		lw	s1,0(s2)
 615              		.loc 1 262 54
 616 0064 2685     		mv	a0,s1
 617 0066 97000000 		call	strlen
 617      E7800000 
 618              	.LVL77:
 619 006e AA85     		mv	a1,a0
 620              		.loc 1 262 11
 621 0070 7C08     		addi	a5,sp,28
 622 0072 2685     		mv	a0,s1
 623 0074 5800     		addi	a4,sp,4
 624 0076 9146     		li	a3,4
 625 0078 0946     		li	a2,2
 626 007a 97000000 		call	dm_msg_uri_parse_pkdn
 626      E7800000 
 627              	.LVL78:
 263:C:/Users/stapi/OneDrive/Desktop/GD32VW553/V1_MQTT_OK/GD32VW55X_Wifi_BLE_SDK/GD32VW55x_RELEASE_V1.0.2/MSDK/cloud/alicloud/src/services/linkkit/dm\dm_msg_process.c ****                                 device_name);
 264:C:/Users/stapi/OneDrive/Desktop/GD32VW553/V1_MQTT_OK/GD32VW55X_Wifi_BLE_SDK/GD32VW55x_RELEASE_V1.0.2/MSDK/cloud/alicloud/src/services/linkkit/dm\dm_msg_process.c ****     if (res != SUCCESS_RETURN) {
 628              		.loc 1 264 5 is_stmt 1
 265:C:/Users/stapi/OneDrive/Desktop/GD32VW553/V1_MQTT_OK/GD32VW55X_Wifi_BLE_SDK/GD32VW55x_RELEASE_V1.0.2/MSDK/cloud/alicloud/src/services/linkkit/dm\dm_msg_process.c ****         return FAIL_RETURN;
 629              		.loc 1 265 16 is_stmt 0
 630 0082 FD54     		li	s1,-1
 264:C:/Users/stapi/OneDrive/Desktop/GD32VW553/V1_MQTT_OK/GD32VW55X_Wifi_BLE_SDK/GD32VW55x_RELEASE_V1.0.2/MSDK/cloud/alicloud/src/services/linkkit/dm\dm_msg_process.c ****         return FAIL_RETURN;
 631              		.loc 1 264 8
 632 0084 2DE5     		bne	a0,zero,.L21
 266:C:/Users/stapi/OneDrive/Desktop/GD32VW553/V1_MQTT_OK/GD32VW55X_Wifi_BLE_SDK/GD32VW55x_RELEASE_V1.0.2/MSDK/cloud/alicloud/src/services/linkkit/dm\dm_msg_process.c ****     }
 267:C:/Users/stapi/OneDrive/Desktop/GD32VW553/V1_MQTT_OK/GD32VW55X_Wifi_BLE_SDK/GD32VW55x_RELEASE_V1.0.2/MSDK/cloud/alicloud/src/services/linkkit/dm\dm_msg_process.c **** 
 268:C:/Users/stapi/OneDrive/Desktop/GD32VW553/V1_MQTT_OK/GD32VW55X_Wifi_BLE_SDK/GD32VW55x_RELEASE_V1.0.2/MSDK/cloud/alicloud/src/services/linkkit/dm\dm_msg_process.c ****     res = dm_msg_request_parse((char *)source->payload, source->payload_len, request);
 633              		.loc 1 268 11
 634 0086 83258900 		lw	a1,8(s2)
 635 008a AA84     		mv	s1,a0
 636              		.loc 1 268 5 is_stmt 1
 637              		.loc 1 268 11 is_stmt 0
 638 008c 03254900 		lw	a0,4(s2)
 639              	.LVL79:
 640 0090 5286     		mv	a2,s4
 641 0092 97000000 		call	dm_msg_request_parse
 641      E7800000 
 642              	.LVL80:
 269:C:/Users/stapi/OneDrive/Desktop/GD32VW553/V1_MQTT_OK/GD32VW55X_Wifi_BLE_SDK/GD32VW55x_RELEASE_V1.0.2/MSDK/cloud/alicloud/src/services/linkkit/dm\dm_msg_process.c **** 
 270:C:/Users/stapi/OneDrive/Desktop/GD32VW553/V1_MQTT_OK/GD32VW55X_Wifi_BLE_SDK/GD32VW55x_RELEASE_V1.0.2/MSDK/cloud/alicloud/src/services/linkkit/dm\dm_msg_process.c ****     /* Response */
 271:C:/Users/stapi/OneDrive/Desktop/GD32VW553/V1_MQTT_OK/GD32VW55X_Wifi_BLE_SDK/GD32VW55x_RELEASE_V1.0.2/MSDK/cloud/alicloud/src/services/linkkit/dm\dm_msg_process.c ****     response->service_prefix = DM_URI_SYS_PREFIX;
 643              		.loc 1 271 30
 644 009a B7070000 		lui	a5,%hi(.LANCHOR2)
 645 009e 93870700 		addi	a5,a5,%lo(.LANCHOR2)
 646 00a2 1CC0     		sw	a5,0(s0)
 272:C:/Users/stapi/OneDrive/Desktop/GD32VW553/V1_MQTT_OK/GD32VW55X_Wifi_BLE_SDK/GD32VW55x_RELEASE_V1.0.2/MSDK/cloud/alicloud/src/services/linkkit/dm\dm_msg_process.c ****     response->service_name = dest->uri_name;
 647              		.loc 1 272 28
 648 00a4 83A70900 		lw	a5,0(s3)
 268:C:/Users/stapi/OneDrive/Desktop/GD32VW553/V1_MQTT_OK/GD32VW55X_Wifi_BLE_SDK/GD32VW55x_RELEASE_V1.0.2/MSDK/cloud/alicloud/src/services/linkkit/dm\dm_msg_process.c **** 
 649              		.loc 1 268 11
 650 00a8 2A89     		mv	s2,a0
 651              	.LVL81:
 271:C:/Users/stapi/OneDrive/Desktop/GD32VW553/V1_MQTT_OK/GD32VW55X_Wifi_BLE_SDK/GD32VW55x_RELEASE_V1.0.2/MSDK/cloud/alicloud/src/services/linkkit/dm\dm_msg_process.c ****     response->service_name = dest->uri_name;
 652              		.loc 1 271 5 is_stmt 1
 653              		.loc 1 272 5
 273:C:/Users/stapi/OneDrive/Desktop/GD32VW553/V1_MQTT_OK/GD32VW55X_Wifi_BLE_SDK/GD32VW55x_RELEASE_V1.0.2/MSDK/cloud/alicloud/src/services/linkkit/dm\dm_msg_process.c ****     memcpy(response->product_key, product_key, strlen(product_key));
 654              		.loc 1 273 5 is_stmt 0
 655 00aa 4800     		addi	a0,sp,4
 656              	.LVL82:
 272:C:/Users/stapi/OneDrive/Desktop/GD32VW553/V1_MQTT_OK/GD32VW55X_Wifi_BLE_SDK/GD32VW55x_RELEASE_V1.0.2/MSDK/cloud/alicloud/src/services/linkkit/dm\dm_msg_process.c ****     memcpy(response->product_key, product_key, strlen(product_key));
 657              		.loc 1 272 28
 658 00ac 5CC0     		sw	a5,4(s0)
 659              		.loc 1 273 5 is_stmt 1
 660 00ae 97000000 		call	strlen
 660      E7800000 
 661              	.LVL83:
 662 00b6 2A86     		mv	a2,a0
 663 00b8 4C00     		addi	a1,sp,4
 664 00ba 13058400 		addi	a0,s0,8
 665 00be 97000000 		call	memcpy
 665      E7800000 
 666              	.LVL84:
 274:C:/Users/stapi/OneDrive/Desktop/GD32VW553/V1_MQTT_OK/GD32VW55X_Wifi_BLE_SDK/GD32VW55x_RELEASE_V1.0.2/MSDK/cloud/alicloud/src/services/linkkit/dm\dm_msg_process.c ****     memcpy(response->device_name, device_name, strlen(device_name));
 667              		.loc 1 274 5
 668 00c6 6808     		addi	a0,sp,28
 669 00c8 97000000 		call	strlen
 669      E7800000 
 670              	.LVL85:
 671 00d0 2A86     		mv	a2,a0
 672 00d2 6C08     		addi	a1,sp,28
 673 00d4 1305D401 		addi	a0,s0,29
 674 00d8 97000000 		call	memcpy
 674      E7800000 
 675              	.LVL86:
 275:C:/Users/stapi/OneDrive/Desktop/GD32VW553/V1_MQTT_OK/GD32VW55X_Wifi_BLE_SDK/GD32VW55x_RELEASE_V1.0.2/MSDK/cloud/alicloud/src/services/linkkit/dm\dm_msg_process.c ****     response->code = (res == SUCCESS_RETURN) ? (IOTX_DM_ERR_CODE_SUCCESS) : (IOTX_DM_ERR_CODE_REQUE
 676              		.loc 1 275 5
 677              		.loc 1 275 75 is_stmt 0
 678 00e0 9307800C 		li	a5,200
 679 00e4 63040900 		beq	s2,zero,.L23
 680 00e8 93070019 		li	a5,400
 681              	.L23:
 682              		.loc 1 275 20 discriminator 4
 683 00ec 3CC0     		sw	a5,64(s0)
 276:C:/Users/stapi/OneDrive/Desktop/GD32VW553/V1_MQTT_OK/GD32VW55X_Wifi_BLE_SDK/GD32VW55x_RELEASE_V1.0.2/MSDK/cloud/alicloud/src/services/linkkit/dm\dm_msg_process.c **** 
 277:C:/Users/stapi/OneDrive/Desktop/GD32VW553/V1_MQTT_OK/GD32VW55X_Wifi_BLE_SDK/GD32VW55x_RELEASE_V1.0.2/MSDK/cloud/alicloud/src/services/linkkit/dm\dm_msg_process.c ****     return SUCCESS_RETURN;
 684              		.loc 1 277 5 is_stmt 1 discriminator 4
 685              	.LVL87:
 686              	.L21:
 278:C:/Users/stapi/OneDrive/Desktop/GD32VW553/V1_MQTT_OK/GD32VW55X_Wifi_BLE_SDK/GD32VW55x_RELEASE_V1.0.2/MSDK/cloud/alicloud/src/services/linkkit/dm\dm_msg_process.c **** }
 687              		.loc 1 278 1 is_stmt 0
 688 00ee 2685     		mv	a0,s1
 689 00f0 2161     		addi	sp,sp,64
 690              		.cfi_def_cfa_offset 0
 691 00f2 17030000 		tail	__riscv_restore_5
 691      67000300 
 692              		.cfi_restore 20
 693              		.cfi_restore 19
 694              		.cfi_restore 18
 695              		.cfi_restore 9
 696              		.cfi_restore 8
 697              		.cfi_restore 1
 698              		.cfi_def_cfa_offset -32
 699              		.cfi_endproc
 700              	.LFE24:
 702              		.section	.rodata.dm_msg_proc_thing_service_request.str1.4,"aMS",@progbits,1
 703              		.align	2
 704              	.LC4:
 705 0000 53657276 		.string	"Service Identifier: %.*s"
 705      69636520 
 705      4964656E 
 705      74696669 
 705      65723A20 
 706              		.section	.text.dm_msg_proc_thing_service_request,"ax",@progbits
 707              		.align	1
 708              		.globl	dm_msg_proc_thing_service_request
 710              	dm_msg_proc_thing_service_request:
 711              	.LFB25:
 279:C:/Users/stapi/OneDrive/Desktop/GD32VW553/V1_MQTT_OK/GD32VW55X_Wifi_BLE_SDK/GD32VW55x_RELEASE_V1.0.2/MSDK/cloud/alicloud/src/services/linkkit/dm\dm_msg_process.c **** 
 280:C:/Users/stapi/OneDrive/Desktop/GD32VW553/V1_MQTT_OK/GD32VW55X_Wifi_BLE_SDK/GD32VW55x_RELEASE_V1.0.2/MSDK/cloud/alicloud/src/services/linkkit/dm\dm_msg_process.c **** int dm_msg_proc_thing_service_request(_IN_ dm_msg_source_t *source)
 281:C:/Users/stapi/OneDrive/Desktop/GD32VW553/V1_MQTT_OK/GD32VW55X_Wifi_BLE_SDK/GD32VW55x_RELEASE_V1.0.2/MSDK/cloud/alicloud/src/services/linkkit/dm\dm_msg_process.c **** {
 712              		.loc 1 281 1 is_stmt 1
 713              		.cfi_startproc
 714              	.LVL88:
 715 0000 17030000 		call	t0,__riscv_save_3
 715      E7020300 
 716              		.cfi_offset 18, -16
 717              		.cfi_offset 9, -12
 718              		.cfi_offset 8, -8
 719              		.cfi_offset 1, -4
 720              		.cfi_def_cfa_offset 16
 282:C:/Users/stapi/OneDrive/Desktop/GD32VW553/V1_MQTT_OK/GD32VW55X_Wifi_BLE_SDK/GD32VW55x_RELEASE_V1.0.2/MSDK/cloud/alicloud/src/services/linkkit/dm\dm_msg_process.c ****     int res = 0, serviceid_pos = 0;
 721              		.loc 1 282 5
 722              	.LVL89:
 281:C:/Users/stapi/OneDrive/Desktop/GD32VW553/V1_MQTT_OK/GD32VW55X_Wifi_BLE_SDK/GD32VW55x_RELEASE_V1.0.2/MSDK/cloud/alicloud/src/services/linkkit/dm\dm_msg_process.c ****     int res = 0, serviceid_pos = 0;
 723              		.loc 1 281 1 is_stmt 0
 724 0008 3171     		addi	sp,sp,-192
 725              		.cfi_def_cfa_offset 208
 281:C:/Users/stapi/OneDrive/Desktop/GD32VW553/V1_MQTT_OK/GD32VW55X_Wifi_BLE_SDK/GD32VW55x_RELEASE_V1.0.2/MSDK/cloud/alicloud/src/services/linkkit/dm\dm_msg_process.c ****     int res = 0, serviceid_pos = 0;
 726              		.loc 1 281 1
 727 000a 2A84     		mv	s0,a0
 283:C:/Users/stapi/OneDrive/Desktop/GD32VW553/V1_MQTT_OK/GD32VW55X_Wifi_BLE_SDK/GD32VW55x_RELEASE_V1.0.2/MSDK/cloud/alicloud/src/services/linkkit/dm\dm_msg_process.c ****     char product_key[PRODUCT_KEY_MAXLEN] = {0};
 284:C:/Users/stapi/OneDrive/Desktop/GD32VW553/V1_MQTT_OK/GD32VW55X_Wifi_BLE_SDK/GD32VW55x_RELEASE_V1.0.2/MSDK/cloud/alicloud/src/services/linkkit/dm\dm_msg_process.c ****     char device_name[DEVICE_NAME_MAXLEN] = {0};
 728              		.loc 1 284 10
 729 000c 7546     		li	a2,29
 730 000e 8145     		li	a1,0
 731 0010 0810     		addi	a0,sp,32
 732              	.LVL90:
 282:C:/Users/stapi/OneDrive/Desktop/GD32VW553/V1_MQTT_OK/GD32VW55X_Wifi_BLE_SDK/GD32VW55x_RELEASE_V1.0.2/MSDK/cloud/alicloud/src/services/linkkit/dm\dm_msg_process.c ****     char product_key[PRODUCT_KEY_MAXLEN] = {0};
 733              		.loc 1 282 18
 734 0012 02C0     		sw	zero,0(sp)
 283:C:/Users/stapi/OneDrive/Desktop/GD32VW553/V1_MQTT_OK/GD32VW55X_Wifi_BLE_SDK/GD32VW55x_RELEASE_V1.0.2/MSDK/cloud/alicloud/src/services/linkkit/dm\dm_msg_process.c ****     char product_key[PRODUCT_KEY_MAXLEN] = {0};
 735              		.loc 1 283 5 is_stmt 1
 283:C:/Users/stapi/OneDrive/Desktop/GD32VW553/V1_MQTT_OK/GD32VW55X_Wifi_BLE_SDK/GD32VW55x_RELEASE_V1.0.2/MSDK/cloud/alicloud/src/services/linkkit/dm\dm_msg_process.c ****     char product_key[PRODUCT_KEY_MAXLEN] = {0};
 736              		.loc 1 283 10 is_stmt 0
 737 0014 02C2     		sw	zero,4(sp)
 738 0016 02C4     		sw	zero,8(sp)
 739 0018 02C6     		sw	zero,12(sp)
 740 001a 02C8     		sw	zero,16(sp)
 741 001c 02CA     		sw	zero,20(sp)
 742 001e 230C0100 		sb	zero,24(sp)
 743              		.loc 1 284 5 is_stmt 1
 744              		.loc 1 284 10 is_stmt 0
 745 0022 02CE     		sw	zero,28(sp)
 746 0024 97000000 		call	memset
 746      E7800000 
 747              	.LVL91:
 285:C:/Users/stapi/OneDrive/Desktop/GD32VW553/V1_MQTT_OK/GD32VW55X_Wifi_BLE_SDK/GD32VW55x_RELEASE_V1.0.2/MSDK/cloud/alicloud/src/services/linkkit/dm\dm_msg_process.c ****     dm_msg_request_payload_t request;
 748              		.loc 1 285 5 is_stmt 1
 286:C:/Users/stapi/OneDrive/Desktop/GD32VW553/V1_MQTT_OK/GD32VW55X_Wifi_BLE_SDK/GD32VW55x_RELEASE_V1.0.2/MSDK/cloud/alicloud/src/services/linkkit/dm\dm_msg_process.c **** 
 287:C:/Users/stapi/OneDrive/Desktop/GD32VW553/V1_MQTT_OK/GD32VW55X_Wifi_BLE_SDK/GD32VW55x_RELEASE_V1.0.2/MSDK/cloud/alicloud/src/services/linkkit/dm\dm_msg_process.c ****     memset(&request, 0, sizeof(dm_msg_request_payload_t));
 749              		.loc 1 287 5
 750 002c 13060008 		li	a2,128
 751 0030 8145     		li	a1,0
 752 0032 8800     		addi	a0,sp,64
 753 0034 97000000 		call	memset
 753      E7800000 
 754              	.LVL92:
 288:C:/Users/stapi/OneDrive/Desktop/GD32VW553/V1_MQTT_OK/GD32VW55X_Wifi_BLE_SDK/GD32VW55x_RELEASE_V1.0.2/MSDK/cloud/alicloud/src/services/linkkit/dm\dm_msg_process.c **** 
 289:C:/Users/stapi/OneDrive/Desktop/GD32VW553/V1_MQTT_OK/GD32VW55X_Wifi_BLE_SDK/GD32VW55x_RELEASE_V1.0.2/MSDK/cloud/alicloud/src/services/linkkit/dm\dm_msg_process.c **** #ifdef ALCS_GROUP_COMM_ENABLE
 290:C:/Users/stapi/OneDrive/Desktop/GD32VW553/V1_MQTT_OK/GD32VW55X_Wifi_BLE_SDK/GD32VW55x_RELEASE_V1.0.2/MSDK/cloud/alicloud/src/services/linkkit/dm\dm_msg_process.c ****     char *group = "/thing/service/", url[128] = {0};
 291:C:/Users/stapi/OneDrive/Desktop/GD32VW553/V1_MQTT_OK/GD32VW55X_Wifi_BLE_SDK/GD32VW55x_RELEASE_V1.0.2/MSDK/cloud/alicloud/src/services/linkkit/dm\dm_msg_process.c ****     if (strncmp(source->uri, group, strlen(group)) == 0){
 292:C:/Users/stapi/OneDrive/Desktop/GD32VW553/V1_MQTT_OK/GD32VW55X_Wifi_BLE_SDK/GD32VW55x_RELEASE_V1.0.2/MSDK/cloud/alicloud/src/services/linkkit/dm\dm_msg_process.c ****         res = HAL_GetProductKey(product_key);
 293:C:/Users/stapi/OneDrive/Desktop/GD32VW553/V1_MQTT_OK/GD32VW55X_Wifi_BLE_SDK/GD32VW55x_RELEASE_V1.0.2/MSDK/cloud/alicloud/src/services/linkkit/dm\dm_msg_process.c ****         res = HAL_GetDeviceName(device_name);
 294:C:/Users/stapi/OneDrive/Desktop/GD32VW553/V1_MQTT_OK/GD32VW55X_Wifi_BLE_SDK/GD32VW55x_RELEASE_V1.0.2/MSDK/cloud/alicloud/src/services/linkkit/dm\dm_msg_process.c ****         sprintf(url,"/sys/%s/%s%s", product_key, device_name, source->uri);
 295:C:/Users/stapi/OneDrive/Desktop/GD32VW553/V1_MQTT_OK/GD32VW55X_Wifi_BLE_SDK/GD32VW55x_RELEASE_V1.0.2/MSDK/cloud/alicloud/src/services/linkkit/dm\dm_msg_process.c ****         source->uri = url;
 296:C:/Users/stapi/OneDrive/Desktop/GD32VW553/V1_MQTT_OK/GD32VW55X_Wifi_BLE_SDK/GD32VW55x_RELEASE_V1.0.2/MSDK/cloud/alicloud/src/services/linkkit/dm\dm_msg_process.c ****     }
 297:C:/Users/stapi/OneDrive/Desktop/GD32VW553/V1_MQTT_OK/GD32VW55X_Wifi_BLE_SDK/GD32VW55x_RELEASE_V1.0.2/MSDK/cloud/alicloud/src/services/linkkit/dm\dm_msg_process.c **** #endif
 298:C:/Users/stapi/OneDrive/Desktop/GD32VW553/V1_MQTT_OK/GD32VW55X_Wifi_BLE_SDK/GD32VW55x_RELEASE_V1.0.2/MSDK/cloud/alicloud/src/services/linkkit/dm\dm_msg_process.c ****     res = dm_utils_memtok((char *)source->uri, strlen(source->uri), DM_URI_SERVICE_DELIMITER, 6, &s
 755              		.loc 1 298 5
 756              		.loc 1 298 41 is_stmt 0
 757 003c 0440     		lw	s1,0(s0)
 758              		.loc 1 298 48
 759 003e 2685     		mv	a0,s1
 760 0040 97000000 		call	strlen
 760      E7800000 
 761              	.LVL93:
 762 0048 AA85     		mv	a1,a0
 763              		.loc 1 298 11
 764 004a 0A87     		mv	a4,sp
 765 004c 9946     		li	a3,6
 766 004e 1306F002 		li	a2,47
 767 0052 2685     		mv	a0,s1
 768 0054 97000000 		call	dm_utils_memtok
 768      E7800000 
 769              	.LVL94:
 299:C:/Users/stapi/OneDrive/Desktop/GD32VW553/V1_MQTT_OK/GD32VW55X_Wifi_BLE_SDK/GD32VW55x_RELEASE_V1.0.2/MSDK/cloud/alicloud/src/services/linkkit/dm\dm_msg_process.c ****     if (res != SUCCESS_RETURN) {
 770              		.loc 1 299 5 is_stmt 1
 771              		.loc 1 299 8 is_stmt 0
 772 005c 19C5     		beq	a0,zero,.L29
 773              	.L31:
 300:C:/Users/stapi/OneDrive/Desktop/GD32VW553/V1_MQTT_OK/GD32VW55X_Wifi_BLE_SDK/GD32VW55x_RELEASE_V1.0.2/MSDK/cloud/alicloud/src/services/linkkit/dm\dm_msg_process.c ****         return FAIL_RETURN;
 774              		.loc 1 300 16
 775 005e 7D55     		li	a0,-1
 776              	.LVL95:
 777              	.L28:
 301:C:/Users/stapi/OneDrive/Desktop/GD32VW553/V1_MQTT_OK/GD32VW55X_Wifi_BLE_SDK/GD32VW55x_RELEASE_V1.0.2/MSDK/cloud/alicloud/src/services/linkkit/dm\dm_msg_process.c ****     }
 302:C:/Users/stapi/OneDrive/Desktop/GD32VW553/V1_MQTT_OK/GD32VW55X_Wifi_BLE_SDK/GD32VW55x_RELEASE_V1.0.2/MSDK/cloud/alicloud/src/services/linkkit/dm\dm_msg_process.c ****     dm_log_info("Service Identifier: %.*s", strlen(source->uri) - serviceid_pos - 1, source->uri + 
 303:C:/Users/stapi/OneDrive/Desktop/GD32VW553/V1_MQTT_OK/GD32VW55X_Wifi_BLE_SDK/GD32VW55x_RELEASE_V1.0.2/MSDK/cloud/alicloud/src/services/linkkit/dm\dm_msg_process.c **** 
 304:C:/Users/stapi/OneDrive/Desktop/GD32VW553/V1_MQTT_OK/GD32VW55X_Wifi_BLE_SDK/GD32VW55x_RELEASE_V1.0.2/MSDK/cloud/alicloud/src/services/linkkit/dm\dm_msg_process.c ****     /* Parse Product Key And Device Name */
 305:C:/Users/stapi/OneDrive/Desktop/GD32VW553/V1_MQTT_OK/GD32VW55X_Wifi_BLE_SDK/GD32VW55x_RELEASE_V1.0.2/MSDK/cloud/alicloud/src/services/linkkit/dm\dm_msg_process.c ****     res = dm_msg_uri_parse_pkdn((char *)source->uri, strlen(source->uri), 2 + DM_URI_OFFSET, 4 + DM
 306:C:/Users/stapi/OneDrive/Desktop/GD32VW553/V1_MQTT_OK/GD32VW55X_Wifi_BLE_SDK/GD32VW55x_RELEASE_V1.0.2/MSDK/cloud/alicloud/src/services/linkkit/dm\dm_msg_process.c ****                                 device_name);
 307:C:/Users/stapi/OneDrive/Desktop/GD32VW553/V1_MQTT_OK/GD32VW55X_Wifi_BLE_SDK/GD32VW55x_RELEASE_V1.0.2/MSDK/cloud/alicloud/src/services/linkkit/dm\dm_msg_process.c ****     if (res != SUCCESS_RETURN) {
 308:C:/Users/stapi/OneDrive/Desktop/GD32VW553/V1_MQTT_OK/GD32VW55X_Wifi_BLE_SDK/GD32VW55x_RELEASE_V1.0.2/MSDK/cloud/alicloud/src/services/linkkit/dm\dm_msg_process.c ****         return FAIL_RETURN;
 309:C:/Users/stapi/OneDrive/Desktop/GD32VW553/V1_MQTT_OK/GD32VW55X_Wifi_BLE_SDK/GD32VW55x_RELEASE_V1.0.2/MSDK/cloud/alicloud/src/services/linkkit/dm\dm_msg_process.c ****     }
 310:C:/Users/stapi/OneDrive/Desktop/GD32VW553/V1_MQTT_OK/GD32VW55X_Wifi_BLE_SDK/GD32VW55x_RELEASE_V1.0.2/MSDK/cloud/alicloud/src/services/linkkit/dm\dm_msg_process.c **** 
 311:C:/Users/stapi/OneDrive/Desktop/GD32VW553/V1_MQTT_OK/GD32VW55X_Wifi_BLE_SDK/GD32VW55x_RELEASE_V1.0.2/MSDK/cloud/alicloud/src/services/linkkit/dm\dm_msg_process.c ****     /* Request */
 312:C:/Users/stapi/OneDrive/Desktop/GD32VW553/V1_MQTT_OK/GD32VW55X_Wifi_BLE_SDK/GD32VW55x_RELEASE_V1.0.2/MSDK/cloud/alicloud/src/services/linkkit/dm\dm_msg_process.c ****     res = dm_msg_request_parse((char *)source->payload, source->payload_len, &request);
 313:C:/Users/stapi/OneDrive/Desktop/GD32VW553/V1_MQTT_OK/GD32VW55X_Wifi_BLE_SDK/GD32VW55x_RELEASE_V1.0.2/MSDK/cloud/alicloud/src/services/linkkit/dm\dm_msg_process.c ****     if (res != SUCCESS_RETURN) {
 314:C:/Users/stapi/OneDrive/Desktop/GD32VW553/V1_MQTT_OK/GD32VW55X_Wifi_BLE_SDK/GD32VW55x_RELEASE_V1.0.2/MSDK/cloud/alicloud/src/services/linkkit/dm\dm_msg_process.c ****         return FAIL_RETURN;
 315:C:/Users/stapi/OneDrive/Desktop/GD32VW553/V1_MQTT_OK/GD32VW55X_Wifi_BLE_SDK/GD32VW55x_RELEASE_V1.0.2/MSDK/cloud/alicloud/src/services/linkkit/dm\dm_msg_process.c ****     }
 316:C:/Users/stapi/OneDrive/Desktop/GD32VW553/V1_MQTT_OK/GD32VW55X_Wifi_BLE_SDK/GD32VW55x_RELEASE_V1.0.2/MSDK/cloud/alicloud/src/services/linkkit/dm\dm_msg_process.c **** 
 317:C:/Users/stapi/OneDrive/Desktop/GD32VW553/V1_MQTT_OK/GD32VW55X_Wifi_BLE_SDK/GD32VW55x_RELEASE_V1.0.2/MSDK/cloud/alicloud/src/services/linkkit/dm\dm_msg_process.c ****     /* Operation */
 318:C:/Users/stapi/OneDrive/Desktop/GD32VW553/V1_MQTT_OK/GD32VW55X_Wifi_BLE_SDK/GD32VW55x_RELEASE_V1.0.2/MSDK/cloud/alicloud/src/services/linkkit/dm\dm_msg_process.c ****     return dm_msg_thing_service_request(product_key, device_name, (char *)source->uri + serviceid_p
 319:C:/Users/stapi/OneDrive/Desktop/GD32VW553/V1_MQTT_OK/GD32VW55X_Wifi_BLE_SDK/GD32VW55x_RELEASE_V1.0.2/MSDK/cloud/alicloud/src/services/linkkit/dm\dm_msg_process.c ****                                         strlen(source->uri) - serviceid_pos - 1, &request, source->
 320:C:/Users/stapi/OneDrive/Desktop/GD32VW553/V1_MQTT_OK/GD32VW55X_Wifi_BLE_SDK/GD32VW55x_RELEASE_V1.0.2/MSDK/cloud/alicloud/src/services/linkkit/dm\dm_msg_process.c **** }
 778              		.loc 1 320 1
 779 0060 2961     		addi	sp,sp,192
 780              		.cfi_remember_state
 781              		.cfi_def_cfa_offset 0
 782 0062 17030000 		tail	__riscv_restore_3
 782      67000300 
 783              		.cfi_restore 18
 784              		.cfi_restore 9
 785              		.cfi_restore 8
 786              		.cfi_restore 1
 787              		.cfi_def_cfa_offset -16
 788              	.LVL96:
 789              	.L29:
 790              		.cfi_restore_state
 302:C:/Users/stapi/OneDrive/Desktop/GD32VW553/V1_MQTT_OK/GD32VW55X_Wifi_BLE_SDK/GD32VW55x_RELEASE_V1.0.2/MSDK/cloud/alicloud/src/services/linkkit/dm\dm_msg_process.c **** 
 791              		.loc 1 302 5 is_stmt 1
 302:C:/Users/stapi/OneDrive/Desktop/GD32VW553/V1_MQTT_OK/GD32VW55X_Wifi_BLE_SDK/GD32VW55x_RELEASE_V1.0.2/MSDK/cloud/alicloud/src/services/linkkit/dm\dm_msg_process.c **** 
 792              		.loc 1 302 5
 793 006a 37050000 		lui	a0,%hi(.LC0)
 794              	.LVL97:
 795 006e 13050500 		addi	a0,a0,%lo(.LC0)
 796 0072 97000000 		call	HAL_Printf
 796      E7800000 
 797              	.LVL98:
 302:C:/Users/stapi/OneDrive/Desktop/GD32VW553/V1_MQTT_OK/GD32VW55X_Wifi_BLE_SDK/GD32VW55x_RELEASE_V1.0.2/MSDK/cloud/alicloud/src/services/linkkit/dm\dm_msg_process.c **** 
 798              		.loc 1 302 5
 799 007a 0440     		lw	s1,0(s0)
 800 007c 2685     		mv	a0,s1
 801 007e 97000000 		call	strlen
 801      E7800000 
 802              	.LVL99:
 803 0086 8247     		lw	a5,0(sp)
 804 0088 13861700 		addi	a2,a5,1
 805 008c 93C7F7FF 		not	a5,a5
 806 0090 B385A700 		add	a1,a5,a0
 807 0094 37050000 		lui	a0,%hi(.LC4)
 808 0098 2696     		add	a2,s1,a2
 809 009a 13050500 		addi	a0,a0,%lo(.LC4)
 810 009e 97000000 		call	HAL_Printf
 810      E7800000 
 811              	.LVL100:
 302:C:/Users/stapi/OneDrive/Desktop/GD32VW553/V1_MQTT_OK/GD32VW55X_Wifi_BLE_SDK/GD32VW55x_RELEASE_V1.0.2/MSDK/cloud/alicloud/src/services/linkkit/dm\dm_msg_process.c **** 
 812              		.loc 1 302 5
 813 00a6 37050000 		lui	a0,%hi(.LC1)
 814 00aa 13050500 		addi	a0,a0,%lo(.LC1)
 815 00ae 97000000 		call	HAL_Printf
 815      E7800000 
 816              	.LVL101:
 302:C:/Users/stapi/OneDrive/Desktop/GD32VW553/V1_MQTT_OK/GD32VW55X_Wifi_BLE_SDK/GD32VW55x_RELEASE_V1.0.2/MSDK/cloud/alicloud/src/services/linkkit/dm\dm_msg_process.c **** 
 817              		.loc 1 302 5
 305:C:/Users/stapi/OneDrive/Desktop/GD32VW553/V1_MQTT_OK/GD32VW55X_Wifi_BLE_SDK/GD32VW55x_RELEASE_V1.0.2/MSDK/cloud/alicloud/src/services/linkkit/dm\dm_msg_process.c ****                                 device_name);
 818              		.loc 1 305 5
 305:C:/Users/stapi/OneDrive/Desktop/GD32VW553/V1_MQTT_OK/GD32VW55X_Wifi_BLE_SDK/GD32VW55x_RELEASE_V1.0.2/MSDK/cloud/alicloud/src/services/linkkit/dm\dm_msg_process.c ****                                 device_name);
 819              		.loc 1 305 47 is_stmt 0
 820 00b6 0440     		lw	s1,0(s0)
 305:C:/Users/stapi/OneDrive/Desktop/GD32VW553/V1_MQTT_OK/GD32VW55X_Wifi_BLE_SDK/GD32VW55x_RELEASE_V1.0.2/MSDK/cloud/alicloud/src/services/linkkit/dm\dm_msg_process.c ****                                 device_name);
 821              		.loc 1 305 54
 822 00b8 2685     		mv	a0,s1
 823 00ba 97000000 		call	strlen
 823      E7800000 
 824              	.LVL102:
 825 00c2 AA85     		mv	a1,a0
 305:C:/Users/stapi/OneDrive/Desktop/GD32VW553/V1_MQTT_OK/GD32VW55X_Wifi_BLE_SDK/GD32VW55x_RELEASE_V1.0.2/MSDK/cloud/alicloud/src/services/linkkit/dm\dm_msg_process.c ****                                 device_name);
 826              		.loc 1 305 11
 827 00c4 7C08     		addi	a5,sp,28
 828 00c6 5800     		addi	a4,sp,4
 829 00c8 9146     		li	a3,4
 830 00ca 0946     		li	a2,2
 831 00cc 2685     		mv	a0,s1
 832 00ce 97000000 		call	dm_msg_uri_parse_pkdn
 832      E7800000 
 833              	.LVL103:
 307:C:/Users/stapi/OneDrive/Desktop/GD32VW553/V1_MQTT_OK/GD32VW55X_Wifi_BLE_SDK/GD32VW55x_RELEASE_V1.0.2/MSDK/cloud/alicloud/src/services/linkkit/dm\dm_msg_process.c ****         return FAIL_RETURN;
 834              		.loc 1 307 5 is_stmt 1
 307:C:/Users/stapi/OneDrive/Desktop/GD32VW553/V1_MQTT_OK/GD32VW55X_Wifi_BLE_SDK/GD32VW55x_RELEASE_V1.0.2/MSDK/cloud/alicloud/src/services/linkkit/dm\dm_msg_process.c ****         return FAIL_RETURN;
 835              		.loc 1 307 8 is_stmt 0
 836 00d6 41F5     		bne	a0,zero,.L31
 312:C:/Users/stapi/OneDrive/Desktop/GD32VW553/V1_MQTT_OK/GD32VW55X_Wifi_BLE_SDK/GD32VW55x_RELEASE_V1.0.2/MSDK/cloud/alicloud/src/services/linkkit/dm\dm_msg_process.c ****     if (res != SUCCESS_RETURN) {
 837              		.loc 1 312 5 is_stmt 1
 312:C:/Users/stapi/OneDrive/Desktop/GD32VW553/V1_MQTT_OK/GD32VW55X_Wifi_BLE_SDK/GD32VW55x_RELEASE_V1.0.2/MSDK/cloud/alicloud/src/services/linkkit/dm\dm_msg_process.c ****     if (res != SUCCESS_RETURN) {
 838              		.loc 1 312 11 is_stmt 0
 839 00d8 0C44     		lw	a1,8(s0)
 840 00da 4840     		lw	a0,4(s0)
 841              	.LVL104:
 842 00dc 9000     		addi	a2,sp,64
 843 00de 97000000 		call	dm_msg_request_parse
 843      E7800000 
 844              	.LVL105:
 313:C:/Users/stapi/OneDrive/Desktop/GD32VW553/V1_MQTT_OK/GD32VW55X_Wifi_BLE_SDK/GD32VW55x_RELEASE_V1.0.2/MSDK/cloud/alicloud/src/services/linkkit/dm\dm_msg_process.c ****         return FAIL_RETURN;
 845              		.loc 1 313 5 is_stmt 1
 313:C:/Users/stapi/OneDrive/Desktop/GD32VW553/V1_MQTT_OK/GD32VW55X_Wifi_BLE_SDK/GD32VW55x_RELEASE_V1.0.2/MSDK/cloud/alicloud/src/services/linkkit/dm\dm_msg_process.c ****         return FAIL_RETURN;
 846              		.loc 1 313 8 is_stmt 0
 847 00e6 25FD     		bne	a0,zero,.L31
 318:C:/Users/stapi/OneDrive/Desktop/GD32VW553/V1_MQTT_OK/GD32VW55X_Wifi_BLE_SDK/GD32VW55x_RELEASE_V1.0.2/MSDK/cloud/alicloud/src/services/linkkit/dm\dm_msg_process.c ****                                         strlen(source->uri) - serviceid_pos - 1, &request, source->
 848              		.loc 1 318 5 is_stmt 1
 318:C:/Users/stapi/OneDrive/Desktop/GD32VW553/V1_MQTT_OK/GD32VW55X_Wifi_BLE_SDK/GD32VW55x_RELEASE_V1.0.2/MSDK/cloud/alicloud/src/services/linkkit/dm\dm_msg_process.c ****                                         strlen(source->uri) - serviceid_pos - 1, &request, source->
 849              		.loc 1 318 81 is_stmt 0
 850 00e8 03290400 		lw	s2,0(s0)
 318:C:/Users/stapi/OneDrive/Desktop/GD32VW553/V1_MQTT_OK/GD32VW55X_Wifi_BLE_SDK/GD32VW55x_RELEASE_V1.0.2/MSDK/cloud/alicloud/src/services/linkkit/dm\dm_msg_process.c ****                                         strlen(source->uri) - serviceid_pos - 1, &request, source->
 851              		.loc 1 318 103
 852 00ec 8244     		lw	s1,0(sp)
 319:C:/Users/stapi/OneDrive/Desktop/GD32VW553/V1_MQTT_OK/GD32VW55X_Wifi_BLE_SDK/GD32VW55x_RELEASE_V1.0.2/MSDK/cloud/alicloud/src/services/linkkit/dm\dm_msg_process.c **** }
 853              		.loc 1 319 41
 854 00ee 4A85     		mv	a0,s2
 855              	.LVL106:
 856 00f0 97000000 		call	strlen
 856      E7800000 
 857              	.LVL107:
 318:C:/Users/stapi/OneDrive/Desktop/GD32VW553/V1_MQTT_OK/GD32VW55X_Wifi_BLE_SDK/GD32VW55x_RELEASE_V1.0.2/MSDK/cloud/alicloud/src/services/linkkit/dm\dm_msg_process.c ****                                         strlen(source->uri) - serviceid_pos - 1, &request, source->
 858              		.loc 1 318 12
 859 00f8 5C44     		lw	a5,12(s0)
 319:C:/Users/stapi/OneDrive/Desktop/GD32VW553/V1_MQTT_OK/GD32VW55X_Wifi_BLE_SDK/GD32VW55x_RELEASE_V1.0.2/MSDK/cloud/alicloud/src/services/linkkit/dm\dm_msg_process.c **** }
 860              		.loc 1 319 77
 861 00fa 93C6F4FF 		not	a3,s1
 318:C:/Users/stapi/OneDrive/Desktop/GD32VW553/V1_MQTT_OK/GD32VW55X_Wifi_BLE_SDK/GD32VW55x_RELEASE_V1.0.2/MSDK/cloud/alicloud/src/services/linkkit/dm\dm_msg_process.c ****                                         strlen(source->uri) - serviceid_pos - 1, &request, source->
 862              		.loc 1 318 103
 863 00fe 8504     		addi	s1,s1,1
 318:C:/Users/stapi/OneDrive/Desktop/GD32VW553/V1_MQTT_OK/GD32VW55X_Wifi_BLE_SDK/GD32VW55x_RELEASE_V1.0.2/MSDK/cloud/alicloud/src/services/linkkit/dm\dm_msg_process.c ****                                         strlen(source->uri) - serviceid_pos - 1, &request, source->
 864              		.loc 1 318 12
 865 0100 AA96     		add	a3,a3,a0
 866 0102 9800     		addi	a4,sp,64
 867 0104 33069900 		add	a2,s2,s1
 868 0108 6C08     		addi	a1,sp,28
 869 010a 4800     		addi	a0,sp,4
 870 010c 97000000 		call	dm_msg_thing_service_request
 870      E7800000 
 871              	.LVL108:
 872 0114 B1B7     		j	.L28
 873              		.cfi_endproc
 874              	.LFE25:
 876              		.section	.rodata.dm_msg_proc_thing_event_post_reply.str1.4,"aMS",@progbits,1
 877              		.align	2
 878              	.LC5:
 879 0000 4576656E 		.string	"Event Id: %.*s"
 879      74204964 
 879      3A20252E 
 879      2A7300
 880 000f 00       		.align	2
 881              	.LC6:
 882 0010 444D00   		.string	"DM"
 883 0013 00       		.align	2
 884              	.LC7:
 885 0014 70726F70 		.string	"property"
 885      65727479 
 885      00
 886              		.section	.text.dm_msg_proc_thing_event_post_reply,"ax",@progbits
 887              		.align	1
 888              		.globl	dm_msg_proc_thing_event_post_reply
 890              	dm_msg_proc_thing_event_post_reply:
 891              	.LFB26:
 321:C:/Users/stapi/OneDrive/Desktop/GD32VW553/V1_MQTT_OK/GD32VW55X_Wifi_BLE_SDK/GD32VW55x_RELEASE_V1.0.2/MSDK/cloud/alicloud/src/services/linkkit/dm\dm_msg_process.c **** 
 322:C:/Users/stapi/OneDrive/Desktop/GD32VW553/V1_MQTT_OK/GD32VW55X_Wifi_BLE_SDK/GD32VW55x_RELEASE_V1.0.2/MSDK/cloud/alicloud/src/services/linkkit/dm\dm_msg_process.c **** int dm_msg_proc_thing_event_post_reply(_IN_ dm_msg_source_t *source)
 323:C:/Users/stapi/OneDrive/Desktop/GD32VW553/V1_MQTT_OK/GD32VW55X_Wifi_BLE_SDK/GD32VW55x_RELEASE_V1.0.2/MSDK/cloud/alicloud/src/services/linkkit/dm\dm_msg_process.c **** {
 892              		.loc 1 323 1 is_stmt 1
 893              		.cfi_startproc
 894              	.LVL109:
 895 0000 17030000 		call	t0,__riscv_save_3
 895      E7020300 
 896              		.cfi_offset 18, -16
 897              		.cfi_offset 9, -12
 898              		.cfi_offset 8, -8
 899              		.cfi_offset 1, -4
 900              		.cfi_def_cfa_offset 16
 324:C:/Users/stapi/OneDrive/Desktop/GD32VW553/V1_MQTT_OK/GD32VW55X_Wifi_BLE_SDK/GD32VW55x_RELEASE_V1.0.2/MSDK/cloud/alicloud/src/services/linkkit/dm\dm_msg_process.c ****     int res = 0, eventid_start_pos = 0, eventid_end_pos = 0;
 901              		.loc 1 324 5
 902              	.LVL110:
 325:C:/Users/stapi/OneDrive/Desktop/GD32VW553/V1_MQTT_OK/GD32VW55X_Wifi_BLE_SDK/GD32VW55x_RELEASE_V1.0.2/MSDK/cloud/alicloud/src/services/linkkit/dm\dm_msg_process.c ****     dm_msg_response_payload_t response;
 326:C:/Users/stapi/OneDrive/Desktop/GD32VW553/V1_MQTT_OK/GD32VW55X_Wifi_BLE_SDK/GD32VW55x_RELEASE_V1.0.2/MSDK/cloud/alicloud/src/services/linkkit/dm\dm_msg_process.c **** 
 327:C:/Users/stapi/OneDrive/Desktop/GD32VW553/V1_MQTT_OK/GD32VW55X_Wifi_BLE_SDK/GD32VW55x_RELEASE_V1.0.2/MSDK/cloud/alicloud/src/services/linkkit/dm\dm_msg_process.c ****     res = dm_utils_memtok((char *)source->uri, strlen(source->uri), DM_URI_SERVICE_DELIMITER, 6 + D
 903              		.loc 1 327 41 is_stmt 0
 904 0008 0041     		lw	s0,0(a0)
 323:C:/Users/stapi/OneDrive/Desktop/GD32VW553/V1_MQTT_OK/GD32VW55X_Wifi_BLE_SDK/GD32VW55x_RELEASE_V1.0.2/MSDK/cloud/alicloud/src/services/linkkit/dm\dm_msg_process.c ****     int res = 0, eventid_start_pos = 0, eventid_end_pos = 0;
 905              		.loc 1 323 1
 906 000a 3571     		addi	sp,sp,-160
 907              		.cfi_def_cfa_offset 176
 323:C:/Users/stapi/OneDrive/Desktop/GD32VW553/V1_MQTT_OK/GD32VW55X_Wifi_BLE_SDK/GD32VW55x_RELEASE_V1.0.2/MSDK/cloud/alicloud/src/services/linkkit/dm\dm_msg_process.c ****     int res = 0, eventid_start_pos = 0, eventid_end_pos = 0;
 908              		.loc 1 323 1
 909 000c AA84     		mv	s1,a0
 910              		.loc 1 327 48
 911 000e 2285     		mv	a0,s0
 912              	.LVL111:
 324:C:/Users/stapi/OneDrive/Desktop/GD32VW553/V1_MQTT_OK/GD32VW55X_Wifi_BLE_SDK/GD32VW55x_RELEASE_V1.0.2/MSDK/cloud/alicloud/src/services/linkkit/dm\dm_msg_process.c ****     int res = 0, eventid_start_pos = 0, eventid_end_pos = 0;
 913              		.loc 1 324 18
 914 0010 02C6     		sw	zero,12(sp)
 324:C:/Users/stapi/OneDrive/Desktop/GD32VW553/V1_MQTT_OK/GD32VW55X_Wifi_BLE_SDK/GD32VW55x_RELEASE_V1.0.2/MSDK/cloud/alicloud/src/services/linkkit/dm\dm_msg_process.c ****     int res = 0, eventid_start_pos = 0, eventid_end_pos = 0;
 915              		.loc 1 324 41
 916 0012 02C8     		sw	zero,16(sp)
 325:C:/Users/stapi/OneDrive/Desktop/GD32VW553/V1_MQTT_OK/GD32VW55X_Wifi_BLE_SDK/GD32VW55x_RELEASE_V1.0.2/MSDK/cloud/alicloud/src/services/linkkit/dm\dm_msg_process.c ****     dm_msg_response_payload_t response;
 917              		.loc 1 325 5 is_stmt 1
 918              		.loc 1 327 5
 919              		.loc 1 327 48 is_stmt 0
 920 0014 97000000 		call	strlen
 920      E7800000 
 921              	.LVL112:
 922 001c AA85     		mv	a1,a0
 923              		.loc 1 327 11
 924 001e 7800     		addi	a4,sp,12
 925 0020 9946     		li	a3,6
 926 0022 1306F002 		li	a2,47
 927 0026 2285     		mv	a0,s0
 928 0028 97000000 		call	dm_utils_memtok
 928      E7800000 
 929              	.LVL113:
 328:C:/Users/stapi/OneDrive/Desktop/GD32VW553/V1_MQTT_OK/GD32VW55X_Wifi_BLE_SDK/GD32VW55x_RELEASE_V1.0.2/MSDK/cloud/alicloud/src/services/linkkit/dm\dm_msg_process.c ****                           &eventid_start_pos);
 329:C:/Users/stapi/OneDrive/Desktop/GD32VW553/V1_MQTT_OK/GD32VW55X_Wifi_BLE_SDK/GD32VW55x_RELEASE_V1.0.2/MSDK/cloud/alicloud/src/services/linkkit/dm\dm_msg_process.c ****     if (res != SUCCESS_RETURN) {
 930              		.loc 1 329 5 is_stmt 1
 931              		.loc 1 329 8 is_stmt 0
 932 0030 01C9     		beq	a0,zero,.L34
 933              	.L36:
 330:C:/Users/stapi/OneDrive/Desktop/GD32VW553/V1_MQTT_OK/GD32VW55X_Wifi_BLE_SDK/GD32VW55x_RELEASE_V1.0.2/MSDK/cloud/alicloud/src/services/linkkit/dm\dm_msg_process.c ****         return FAIL_RETURN;
 934              		.loc 1 330 16
 935 0032 7D54     		li	s0,-1
 936              	.LVL114:
 937              	.L33:
 331:C:/Users/stapi/OneDrive/Desktop/GD32VW553/V1_MQTT_OK/GD32VW55X_Wifi_BLE_SDK/GD32VW55x_RELEASE_V1.0.2/MSDK/cloud/alicloud/src/services/linkkit/dm\dm_msg_process.c ****     }
 332:C:/Users/stapi/OneDrive/Desktop/GD32VW553/V1_MQTT_OK/GD32VW55X_Wifi_BLE_SDK/GD32VW55x_RELEASE_V1.0.2/MSDK/cloud/alicloud/src/services/linkkit/dm\dm_msg_process.c **** 
 333:C:/Users/stapi/OneDrive/Desktop/GD32VW553/V1_MQTT_OK/GD32VW55X_Wifi_BLE_SDK/GD32VW55x_RELEASE_V1.0.2/MSDK/cloud/alicloud/src/services/linkkit/dm\dm_msg_process.c ****     res = dm_utils_memtok((char *)source->uri, strlen(source->uri), DM_URI_SERVICE_DELIMITER, 7 + D
 334:C:/Users/stapi/OneDrive/Desktop/GD32VW553/V1_MQTT_OK/GD32VW55X_Wifi_BLE_SDK/GD32VW55x_RELEASE_V1.0.2/MSDK/cloud/alicloud/src/services/linkkit/dm\dm_msg_process.c ****                           &eventid_end_pos);
 335:C:/Users/stapi/OneDrive/Desktop/GD32VW553/V1_MQTT_OK/GD32VW55X_Wifi_BLE_SDK/GD32VW55x_RELEASE_V1.0.2/MSDK/cloud/alicloud/src/services/linkkit/dm\dm_msg_process.c ****     if (res != SUCCESS_RETURN) {
 336:C:/Users/stapi/OneDrive/Desktop/GD32VW553/V1_MQTT_OK/GD32VW55X_Wifi_BLE_SDK/GD32VW55x_RELEASE_V1.0.2/MSDK/cloud/alicloud/src/services/linkkit/dm\dm_msg_process.c ****         return FAIL_RETURN;
 337:C:/Users/stapi/OneDrive/Desktop/GD32VW553/V1_MQTT_OK/GD32VW55X_Wifi_BLE_SDK/GD32VW55x_RELEASE_V1.0.2/MSDK/cloud/alicloud/src/services/linkkit/dm\dm_msg_process.c ****     }
 338:C:/Users/stapi/OneDrive/Desktop/GD32VW553/V1_MQTT_OK/GD32VW55X_Wifi_BLE_SDK/GD32VW55x_RELEASE_V1.0.2/MSDK/cloud/alicloud/src/services/linkkit/dm\dm_msg_process.c ****     dm_log_debug("Event Id: %.*s", eventid_end_pos - eventid_start_pos - 1, source->uri + eventid_s
 339:C:/Users/stapi/OneDrive/Desktop/GD32VW553/V1_MQTT_OK/GD32VW55X_Wifi_BLE_SDK/GD32VW55x_RELEASE_V1.0.2/MSDK/cloud/alicloud/src/services/linkkit/dm\dm_msg_process.c **** 
 340:C:/Users/stapi/OneDrive/Desktop/GD32VW553/V1_MQTT_OK/GD32VW55X_Wifi_BLE_SDK/GD32VW55x_RELEASE_V1.0.2/MSDK/cloud/alicloud/src/services/linkkit/dm\dm_msg_process.c ****     /* Response */
 341:C:/Users/stapi/OneDrive/Desktop/GD32VW553/V1_MQTT_OK/GD32VW55X_Wifi_BLE_SDK/GD32VW55x_RELEASE_V1.0.2/MSDK/cloud/alicloud/src/services/linkkit/dm\dm_msg_process.c ****     res = dm_msg_response_parse((char *)source->payload, source->payload_len, &response);
 342:C:/Users/stapi/OneDrive/Desktop/GD32VW553/V1_MQTT_OK/GD32VW55X_Wifi_BLE_SDK/GD32VW55x_RELEASE_V1.0.2/MSDK/cloud/alicloud/src/services/linkkit/dm\dm_msg_process.c ****     if (res != SUCCESS_RETURN) {
 343:C:/Users/stapi/OneDrive/Desktop/GD32VW553/V1_MQTT_OK/GD32VW55X_Wifi_BLE_SDK/GD32VW55x_RELEASE_V1.0.2/MSDK/cloud/alicloud/src/services/linkkit/dm\dm_msg_process.c ****         return FAIL_RETURN;
 344:C:/Users/stapi/OneDrive/Desktop/GD32VW553/V1_MQTT_OK/GD32VW55X_Wifi_BLE_SDK/GD32VW55x_RELEASE_V1.0.2/MSDK/cloud/alicloud/src/services/linkkit/dm\dm_msg_process.c ****     }
 345:C:/Users/stapi/OneDrive/Desktop/GD32VW553/V1_MQTT_OK/GD32VW55X_Wifi_BLE_SDK/GD32VW55x_RELEASE_V1.0.2/MSDK/cloud/alicloud/src/services/linkkit/dm\dm_msg_process.c **** 
 346:C:/Users/stapi/OneDrive/Desktop/GD32VW553/V1_MQTT_OK/GD32VW55X_Wifi_BLE_SDK/GD32VW55x_RELEASE_V1.0.2/MSDK/cloud/alicloud/src/services/linkkit/dm\dm_msg_process.c ****     /* Operation */
 347:C:/Users/stapi/OneDrive/Desktop/GD32VW553/V1_MQTT_OK/GD32VW55X_Wifi_BLE_SDK/GD32VW55x_RELEASE_V1.0.2/MSDK/cloud/alicloud/src/services/linkkit/dm\dm_msg_process.c ****     if ((strlen("property") == eventid_end_pos - eventid_start_pos - 1) &&
 348:C:/Users/stapi/OneDrive/Desktop/GD32VW553/V1_MQTT_OK/GD32VW55X_Wifi_BLE_SDK/GD32VW55x_RELEASE_V1.0.2/MSDK/cloud/alicloud/src/services/linkkit/dm\dm_msg_process.c ****         (memcmp("property", source->uri + eventid_start_pos + 1, eventid_end_pos - eventid_start_po
 349:C:/Users/stapi/OneDrive/Desktop/GD32VW553/V1_MQTT_OK/GD32VW55X_Wifi_BLE_SDK/GD32VW55x_RELEASE_V1.0.2/MSDK/cloud/alicloud/src/services/linkkit/dm\dm_msg_process.c ****         dm_msg_thing_event_property_post_reply(&response);
 350:C:/Users/stapi/OneDrive/Desktop/GD32VW553/V1_MQTT_OK/GD32VW55X_Wifi_BLE_SDK/GD32VW55x_RELEASE_V1.0.2/MSDK/cloud/alicloud/src/services/linkkit/dm\dm_msg_process.c ****     } else {
 351:C:/Users/stapi/OneDrive/Desktop/GD32VW553/V1_MQTT_OK/GD32VW55X_Wifi_BLE_SDK/GD32VW55x_RELEASE_V1.0.2/MSDK/cloud/alicloud/src/services/linkkit/dm\dm_msg_process.c ****         dm_msg_thing_event_post_reply((char *)source->uri + eventid_start_pos + 1, eventid_end_pos 
 352:C:/Users/stapi/OneDrive/Desktop/GD32VW553/V1_MQTT_OK/GD32VW55X_Wifi_BLE_SDK/GD32VW55x_RELEASE_V1.0.2/MSDK/cloud/alicloud/src/services/linkkit/dm\dm_msg_process.c ****                                       &response);
 353:C:/Users/stapi/OneDrive/Desktop/GD32VW553/V1_MQTT_OK/GD32VW55X_Wifi_BLE_SDK/GD32VW55x_RELEASE_V1.0.2/MSDK/cloud/alicloud/src/services/linkkit/dm\dm_msg_process.c ****     }
 354:C:/Users/stapi/OneDrive/Desktop/GD32VW553/V1_MQTT_OK/GD32VW55X_Wifi_BLE_SDK/GD32VW55x_RELEASE_V1.0.2/MSDK/cloud/alicloud/src/services/linkkit/dm\dm_msg_process.c **** 
 355:C:/Users/stapi/OneDrive/Desktop/GD32VW553/V1_MQTT_OK/GD32VW55X_Wifi_BLE_SDK/GD32VW55x_RELEASE_V1.0.2/MSDK/cloud/alicloud/src/services/linkkit/dm\dm_msg_process.c ****     /* Remove Message From Cache */
 356:C:/Users/stapi/OneDrive/Desktop/GD32VW553/V1_MQTT_OK/GD32VW55X_Wifi_BLE_SDK/GD32VW55x_RELEASE_V1.0.2/MSDK/cloud/alicloud/src/services/linkkit/dm\dm_msg_process.c **** #if !defined(DM_MESSAGE_CACHE_DISABLED)
 357:C:/Users/stapi/OneDrive/Desktop/GD32VW553/V1_MQTT_OK/GD32VW55X_Wifi_BLE_SDK/GD32VW55x_RELEASE_V1.0.2/MSDK/cloud/alicloud/src/services/linkkit/dm\dm_msg_process.c ****     char int_id[DM_UTILS_UINT32_STRLEN+1] = {0};
 358:C:/Users/stapi/OneDrive/Desktop/GD32VW553/V1_MQTT_OK/GD32VW55X_Wifi_BLE_SDK/GD32VW55x_RELEASE_V1.0.2/MSDK/cloud/alicloud/src/services/linkkit/dm\dm_msg_process.c ****     if (response.id.value_length > DM_UTILS_UINT32_STRLEN) {
 359:C:/Users/stapi/OneDrive/Desktop/GD32VW553/V1_MQTT_OK/GD32VW55X_Wifi_BLE_SDK/GD32VW55x_RELEASE_V1.0.2/MSDK/cloud/alicloud/src/services/linkkit/dm\dm_msg_process.c ****         return STATE_DEV_MODEL_WRONG_JSON_FORMAT;
 360:C:/Users/stapi/OneDrive/Desktop/GD32VW553/V1_MQTT_OK/GD32VW55X_Wifi_BLE_SDK/GD32VW55x_RELEASE_V1.0.2/MSDK/cloud/alicloud/src/services/linkkit/dm\dm_msg_process.c ****     }
 361:C:/Users/stapi/OneDrive/Desktop/GD32VW553/V1_MQTT_OK/GD32VW55X_Wifi_BLE_SDK/GD32VW55x_RELEASE_V1.0.2/MSDK/cloud/alicloud/src/services/linkkit/dm\dm_msg_process.c ****     memcpy(int_id, response.id.value, response.id.value_length);
 362:C:/Users/stapi/OneDrive/Desktop/GD32VW553/V1_MQTT_OK/GD32VW55X_Wifi_BLE_SDK/GD32VW55x_RELEASE_V1.0.2/MSDK/cloud/alicloud/src/services/linkkit/dm\dm_msg_process.c ****     dm_msg_cache_remove(atoi(int_id));
 363:C:/Users/stapi/OneDrive/Desktop/GD32VW553/V1_MQTT_OK/GD32VW55X_Wifi_BLE_SDK/GD32VW55x_RELEASE_V1.0.2/MSDK/cloud/alicloud/src/services/linkkit/dm\dm_msg_process.c **** #endif
 364:C:/Users/stapi/OneDrive/Desktop/GD32VW553/V1_MQTT_OK/GD32VW55X_Wifi_BLE_SDK/GD32VW55x_RELEASE_V1.0.2/MSDK/cloud/alicloud/src/services/linkkit/dm\dm_msg_process.c ****     return SUCCESS_RETURN;
 365:C:/Users/stapi/OneDrive/Desktop/GD32VW553/V1_MQTT_OK/GD32VW55X_Wifi_BLE_SDK/GD32VW55x_RELEASE_V1.0.2/MSDK/cloud/alicloud/src/services/linkkit/dm\dm_msg_process.c **** }
 938              		.loc 1 365 1
 939 0034 2285     		mv	a0,s0
 940 0036 0D61     		addi	sp,sp,160
 941              		.cfi_remember_state
 942              		.cfi_def_cfa_offset 0
 943 0038 17030000 		tail	__riscv_restore_3
 943      67000300 
 944              		.cfi_restore 18
 945              		.cfi_restore 9
 946              		.cfi_restore 8
 947              		.cfi_restore 1
 948              		.cfi_def_cfa_offset -16
 949              	.LVL115:
 950              	.L34:
 951              		.cfi_restore_state
 333:C:/Users/stapi/OneDrive/Desktop/GD32VW553/V1_MQTT_OK/GD32VW55X_Wifi_BLE_SDK/GD32VW55x_RELEASE_V1.0.2/MSDK/cloud/alicloud/src/services/linkkit/dm\dm_msg_process.c ****                           &eventid_end_pos);
 952              		.loc 1 333 5 is_stmt 1
 333:C:/Users/stapi/OneDrive/Desktop/GD32VW553/V1_MQTT_OK/GD32VW55X_Wifi_BLE_SDK/GD32VW55x_RELEASE_V1.0.2/MSDK/cloud/alicloud/src/services/linkkit/dm\dm_msg_process.c ****                           &eventid_end_pos);
 953              		.loc 1 333 41 is_stmt 0
 954 0040 8040     		lw	s0,0(s1)
 333:C:/Users/stapi/OneDrive/Desktop/GD32VW553/V1_MQTT_OK/GD32VW55X_Wifi_BLE_SDK/GD32VW55x_RELEASE_V1.0.2/MSDK/cloud/alicloud/src/services/linkkit/dm\dm_msg_process.c ****                           &eventid_end_pos);
 955              		.loc 1 333 48
 956 0042 2285     		mv	a0,s0
 957              	.LVL116:
 958 0044 97000000 		call	strlen
 958      E7800000 
 959              	.LVL117:
 960 004c AA85     		mv	a1,a0
 333:C:/Users/stapi/OneDrive/Desktop/GD32VW553/V1_MQTT_OK/GD32VW55X_Wifi_BLE_SDK/GD32VW55x_RELEASE_V1.0.2/MSDK/cloud/alicloud/src/services/linkkit/dm\dm_msg_process.c ****                           &eventid_end_pos);
 961              		.loc 1 333 11
 962 004e 1808     		addi	a4,sp,16
 963 0050 9D46     		li	a3,7
 964 0052 1306F002 		li	a2,47
 965 0056 2285     		mv	a0,s0
 966 0058 97000000 		call	dm_utils_memtok
 966      E7800000 
 967              	.LVL118:
 335:C:/Users/stapi/OneDrive/Desktop/GD32VW553/V1_MQTT_OK/GD32VW55X_Wifi_BLE_SDK/GD32VW55x_RELEASE_V1.0.2/MSDK/cloud/alicloud/src/services/linkkit/dm\dm_msg_process.c ****         return FAIL_RETURN;
 968              		.loc 1 335 5 is_stmt 1
 335:C:/Users/stapi/OneDrive/Desktop/GD32VW553/V1_MQTT_OK/GD32VW55X_Wifi_BLE_SDK/GD32VW55x_RELEASE_V1.0.2/MSDK/cloud/alicloud/src/services/linkkit/dm\dm_msg_process.c ****         return FAIL_RETURN;
 969              		.loc 1 335 8 is_stmt 0
 970 0060 69F9     		bne	a0,zero,.L36
 338:C:/Users/stapi/OneDrive/Desktop/GD32VW553/V1_MQTT_OK/GD32VW55X_Wifi_BLE_SDK/GD32VW55x_RELEASE_V1.0.2/MSDK/cloud/alicloud/src/services/linkkit/dm\dm_msg_process.c **** 
 971              		.loc 1 338 5 is_stmt 1
 972 0062 3247     		lw	a4,12(sp)
 973 0064 C247     		lw	a5,16(sp)
 974 0066 03A80400 		lw	a6,0(s1)
 975 006a 93061700 		addi	a3,a4,1
 976 006e 998F     		sub	a5,a5,a4
 977 0070 B7050000 		lui	a1,%hi(.LANCHOR5)
 978 0074 37070000 		lui	a4,%hi(.LC5)
 979 0078 37050000 		lui	a0,%hi(.LC6)
 980              	.LVL119:
 981 007c 3698     		add	a6,a6,a3
 982 007e FD17     		addi	a5,a5,-1
 983 0080 13070700 		addi	a4,a4,%lo(.LC5)
 984 0084 9546     		li	a3,5
 985 0086 13062015 		li	a2,338
 986 008a 93850500 		addi	a1,a1,%lo(.LANCHOR5)
 987 008e 13050500 		addi	a0,a0,%lo(.LC6)
 988 0092 97000000 		call	LITE_syslog
 988      E7800000 
 989              	.LVL120:
 341:C:/Users/stapi/OneDrive/Desktop/GD32VW553/V1_MQTT_OK/GD32VW55X_Wifi_BLE_SDK/GD32VW55x_RELEASE_V1.0.2/MSDK/cloud/alicloud/src/services/linkkit/dm\dm_msg_process.c ****     if (res != SUCCESS_RETURN) {
 990              		.loc 1 341 5
 341:C:/Users/stapi/OneDrive/Desktop/GD32VW553/V1_MQTT_OK/GD32VW55X_Wifi_BLE_SDK/GD32VW55x_RELEASE_V1.0.2/MSDK/cloud/alicloud/src/services/linkkit/dm\dm_msg_process.c ****     if (res != SUCCESS_RETURN) {
 991              		.loc 1 341 11 is_stmt 0
 992 009a 8C44     		lw	a1,8(s1)
 993 009c C840     		lw	a0,4(s1)
 994 009e 1010     		addi	a2,sp,32
 995 00a0 97000000 		call	dm_msg_response_parse
 995      E7800000 
 996              	.LVL121:
 997 00a8 2A84     		mv	s0,a0
 998              	.LVL122:
 342:C:/Users/stapi/OneDrive/Desktop/GD32VW553/V1_MQTT_OK/GD32VW55X_Wifi_BLE_SDK/GD32VW55x_RELEASE_V1.0.2/MSDK/cloud/alicloud/src/services/linkkit/dm\dm_msg_process.c ****         return FAIL_RETURN;
 999              		.loc 1 342 5 is_stmt 1
 342:C:/Users/stapi/OneDrive/Desktop/GD32VW553/V1_MQTT_OK/GD32VW55X_Wifi_BLE_SDK/GD32VW55x_RELEASE_V1.0.2/MSDK/cloud/alicloud/src/services/linkkit/dm\dm_msg_process.c ****         return FAIL_RETURN;
 1000              		.loc 1 342 8 is_stmt 0
 1001 00aa 41F5     		bne	a0,zero,.L36
 347:C:/Users/stapi/OneDrive/Desktop/GD32VW553/V1_MQTT_OK/GD32VW55X_Wifi_BLE_SDK/GD32VW55x_RELEASE_V1.0.2/MSDK/cloud/alicloud/src/services/linkkit/dm\dm_msg_process.c ****         (memcmp("property", source->uri + eventid_start_pos + 1, eventid_end_pos - eventid_start_po
 1002              		.loc 1 347 5 is_stmt 1
 347:C:/Users/stapi/OneDrive/Desktop/GD32VW553/V1_MQTT_OK/GD32VW55X_Wifi_BLE_SDK/GD32VW55x_RELEASE_V1.0.2/MSDK/cloud/alicloud/src/services/linkkit/dm\dm_msg_process.c ****         (memcmp("property", source->uri + eventid_start_pos + 1, eventid_end_pos - eventid_start_po
 1003              		.loc 1 347 48 is_stmt 0
 1004 00ac B247     		lw	a5,12(sp)
 1005 00ae 4249     		lw	s2,16(sp)
 348:C:/Users/stapi/OneDrive/Desktop/GD32VW553/V1_MQTT_OK/GD32VW55X_Wifi_BLE_SDK/GD32VW55x_RELEASE_V1.0.2/MSDK/cloud/alicloud/src/services/linkkit/dm\dm_msg_process.c ****         dm_msg_thing_event_property_post_reply(&response);
 1006              		.loc 1 348 61
 1007 00b0 8440     		lw	s1,0(s1)
 1008              	.LVL123:
 347:C:/Users/stapi/OneDrive/Desktop/GD32VW553/V1_MQTT_OK/GD32VW55X_Wifi_BLE_SDK/GD32VW55x_RELEASE_V1.0.2/MSDK/cloud/alicloud/src/services/linkkit/dm\dm_msg_process.c ****         (memcmp("property", source->uri + eventid_start_pos + 1, eventid_end_pos - eventid_start_po
 1009              		.loc 1 347 48
 1010 00b2 3309F940 		sub	s2,s2,a5
 348:C:/Users/stapi/OneDrive/Desktop/GD32VW553/V1_MQTT_OK/GD32VW55X_Wifi_BLE_SDK/GD32VW55x_RELEASE_V1.0.2/MSDK/cloud/alicloud/src/services/linkkit/dm\dm_msg_process.c ****         dm_msg_thing_event_property_post_reply(&response);
 1011              		.loc 1 348 61
 1012 00b6 8507     		addi	a5,a5,1
 1013 00b8 BE94     		add	s1,s1,a5
 347:C:/Users/stapi/OneDrive/Desktop/GD32VW553/V1_MQTT_OK/GD32VW55X_Wifi_BLE_SDK/GD32VW55x_RELEASE_V1.0.2/MSDK/cloud/alicloud/src/services/linkkit/dm\dm_msg_process.c ****         (memcmp("property", source->uri + eventid_start_pos + 1, eventid_end_pos - eventid_start_po
 1014              		.loc 1 347 8
 1015 00ba A547     		li	a5,9
 1016 00bc 631CF904 		bne	s2,a5,.L37
 348:C:/Users/stapi/OneDrive/Desktop/GD32VW553/V1_MQTT_OK/GD32VW55X_Wifi_BLE_SDK/GD32VW55x_RELEASE_V1.0.2/MSDK/cloud/alicloud/src/services/linkkit/dm\dm_msg_process.c ****         dm_msg_thing_event_property_post_reply(&response);
 1017              		.loc 1 348 10 discriminator 1
 1018 00c0 37050000 		lui	a0,%hi(.LC7)
 1019 00c4 2146     		li	a2,8
 1020 00c6 A685     		mv	a1,s1
 1021 00c8 13050500 		addi	a0,a0,%lo(.LC7)
 1022 00cc 97000000 		call	memcmp
 1022      E7800000 
 1023              	.LVL124:
 347:C:/Users/stapi/OneDrive/Desktop/GD32VW553/V1_MQTT_OK/GD32VW55X_Wifi_BLE_SDK/GD32VW55x_RELEASE_V1.0.2/MSDK/cloud/alicloud/src/services/linkkit/dm\dm_msg_process.c ****         (memcmp("property", source->uri + eventid_start_pos + 1, eventid_end_pos - eventid_start_po
 1024              		.loc 1 347 73 discriminator 1
 1025 00d4 21E1     		bne	a0,zero,.L37
 349:C:/Users/stapi/OneDrive/Desktop/GD32VW553/V1_MQTT_OK/GD32VW55X_Wifi_BLE_SDK/GD32VW55x_RELEASE_V1.0.2/MSDK/cloud/alicloud/src/services/linkkit/dm\dm_msg_process.c ****     } else {
 1026              		.loc 1 349 9 is_stmt 1
 1027 00d6 0810     		addi	a0,sp,32
 1028 00d8 97000000 		call	dm_msg_thing_event_property_post_reply
 1028      E7800000 
 1029              	.LVL125:
 1030              	.L38:
 357:C:/Users/stapi/OneDrive/Desktop/GD32VW553/V1_MQTT_OK/GD32VW55X_Wifi_BLE_SDK/GD32VW55x_RELEASE_V1.0.2/MSDK/cloud/alicloud/src/services/linkkit/dm\dm_msg_process.c ****     if (response.id.value_length > DM_UTILS_UINT32_STRLEN) {
 1031              		.loc 1 357 5
 358:C:/Users/stapi/OneDrive/Desktop/GD32VW553/V1_MQTT_OK/GD32VW55X_Wifi_BLE_SDK/GD32VW55x_RELEASE_V1.0.2/MSDK/cloud/alicloud/src/services/linkkit/dm\dm_msg_process.c ****         return STATE_DEV_MODEL_WRONG_JSON_FORMAT;
 1032              		.loc 1 358 20 is_stmt 0
 1033 00e0 2256     		lw	a2,40(sp)
 357:C:/Users/stapi/OneDrive/Desktop/GD32VW553/V1_MQTT_OK/GD32VW55X_Wifi_BLE_SDK/GD32VW55x_RELEASE_V1.0.2/MSDK/cloud/alicloud/src/services/linkkit/dm\dm_msg_process.c ****     if (response.id.value_length > DM_UTILS_UINT32_STRLEN) {
 1034              		.loc 1 357 10
 1035 00e2 02CA     		sw	zero,20(sp)
 1036 00e4 02CC     		sw	zero,24(sp)
 1037 00e6 231E0100 		sh	zero,28(sp)
 1038 00ea 230F0100 		sb	zero,30(sp)
 358:C:/Users/stapi/OneDrive/Desktop/GD32VW553/V1_MQTT_OK/GD32VW55X_Wifi_BLE_SDK/GD32VW55x_RELEASE_V1.0.2/MSDK/cloud/alicloud/src/services/linkkit/dm\dm_msg_process.c ****         return STATE_DEV_MODEL_WRONG_JSON_FORMAT;
 1039              		.loc 1 358 5 is_stmt 1
 358:C:/Users/stapi/OneDrive/Desktop/GD32VW553/V1_MQTT_OK/GD32VW55X_Wifi_BLE_SDK/GD32VW55x_RELEASE_V1.0.2/MSDK/cloud/alicloud/src/services/linkkit/dm\dm_msg_process.c ****         return STATE_DEV_MODEL_WRONG_JSON_FORMAT;
 1040              		.loc 1 358 8 is_stmt 0
 1041 00ee A947     		li	a5,10
 1042 00f0 63CBC702 		bgt	a2,a5,.L39
 361:C:/Users/stapi/OneDrive/Desktop/GD32VW553/V1_MQTT_OK/GD32VW55X_Wifi_BLE_SDK/GD32VW55x_RELEASE_V1.0.2/MSDK/cloud/alicloud/src/services/linkkit/dm\dm_msg_process.c ****     dm_msg_cache_remove(atoi(int_id));
 1043              		.loc 1 361 5 is_stmt 1
 1044 00f4 9255     		lw	a1,36(sp)
 1045 00f6 4808     		addi	a0,sp,20
 1046 00f8 97000000 		call	memcpy
 1046      E7800000 
 1047              	.LVL126:
 362:C:/Users/stapi/OneDrive/Desktop/GD32VW553/V1_MQTT_OK/GD32VW55X_Wifi_BLE_SDK/GD32VW55x_RELEASE_V1.0.2/MSDK/cloud/alicloud/src/services/linkkit/dm\dm_msg_process.c **** #endif
 1048              		.loc 1 362 5
 1049 0100 4808     		addi	a0,sp,20
 1050 0102 97000000 		call	atoi
 1050      E7800000 
 1051              	.LVL127:
 1052 010a 97000000 		call	dm_msg_cache_remove
 1052      E7800000 
 1053              	.LVL128:
 364:C:/Users/stapi/OneDrive/Desktop/GD32VW553/V1_MQTT_OK/GD32VW55X_Wifi_BLE_SDK/GD32VW55x_RELEASE_V1.0.2/MSDK/cloud/alicloud/src/services/linkkit/dm\dm_msg_process.c **** }
 1054              		.loc 1 364 5
 364:C:/Users/stapi/OneDrive/Desktop/GD32VW553/V1_MQTT_OK/GD32VW55X_Wifi_BLE_SDK/GD32VW55x_RELEASE_V1.0.2/MSDK/cloud/alicloud/src/services/linkkit/dm\dm_msg_process.c **** }
 1055              		.loc 1 364 12 is_stmt 0
 1056 0112 0DB7     		j	.L33
 1057              	.L37:
 351:C:/Users/stapi/OneDrive/Desktop/GD32VW553/V1_MQTT_OK/GD32VW55X_Wifi_BLE_SDK/GD32VW55x_RELEASE_V1.0.2/MSDK/cloud/alicloud/src/services/linkkit/dm\dm_msg_process.c ****                                       &response);
 1058              		.loc 1 351 9 is_stmt 1
 1059 0114 1010     		addi	a2,sp,32
 1060 0116 9305F9FF 		addi	a1,s2,-1
 1061 011a 2685     		mv	a0,s1
 1062 011c 97000000 		call	dm_msg_thing_event_post_reply
 1062      E7800000 
 1063              	.LVL129:
 1064 0124 75BF     		j	.L38
 1065              	.L39:
 359:C:/Users/stapi/OneDrive/Desktop/GD32VW553/V1_MQTT_OK/GD32VW55X_Wifi_BLE_SDK/GD32VW55x_RELEASE_V1.0.2/MSDK/cloud/alicloud/src/services/linkkit/dm\dm_msg_process.c ****     }
 1066              		.loc 1 359 16 is_stmt 0
 1067 0126 7D74     		li	s0,-4096
 1068              	.LVL130:
 1069 0128 1304F46E 		addi	s0,s0,1775
 1070 012c 21B7     		j	.L33
 1071              		.cfi_endproc
 1072              	.LFE26:
 1074              		.section	.text.dm_msg_proc_thing_deviceinfo_update_reply,"ax",@progbits
 1075              		.align	1
 1076              		.globl	dm_msg_proc_thing_deviceinfo_update_reply
 1078              	dm_msg_proc_thing_deviceinfo_update_reply:
 1079              	.LFB27:
 366:C:/Users/stapi/OneDrive/Desktop/GD32VW553/V1_MQTT_OK/GD32VW55X_Wifi_BLE_SDK/GD32VW55x_RELEASE_V1.0.2/MSDK/cloud/alicloud/src/services/linkkit/dm\dm_msg_process.c **** 
 367:C:/Users/stapi/OneDrive/Desktop/GD32VW553/V1_MQTT_OK/GD32VW55X_Wifi_BLE_SDK/GD32VW55x_RELEASE_V1.0.2/MSDK/cloud/alicloud/src/services/linkkit/dm\dm_msg_process.c **** #ifdef DM_UNIFIED_SERVICE_POST
 368:C:/Users/stapi/OneDrive/Desktop/GD32VW553/V1_MQTT_OK/GD32VW55X_Wifi_BLE_SDK/GD32VW55x_RELEASE_V1.0.2/MSDK/cloud/alicloud/src/services/linkkit/dm\dm_msg_process.c **** int dm_msg_proc_unified_service_post_reply(_IN_ dm_msg_source_t *source)
 369:C:/Users/stapi/OneDrive/Desktop/GD32VW553/V1_MQTT_OK/GD32VW55X_Wifi_BLE_SDK/GD32VW55x_RELEASE_V1.0.2/MSDK/cloud/alicloud/src/services/linkkit/dm\dm_msg_process.c **** {
 370:C:/Users/stapi/OneDrive/Desktop/GD32VW553/V1_MQTT_OK/GD32VW55X_Wifi_BLE_SDK/GD32VW55x_RELEASE_V1.0.2/MSDK/cloud/alicloud/src/services/linkkit/dm\dm_msg_process.c ****     int res = 0;
 371:C:/Users/stapi/OneDrive/Desktop/GD32VW553/V1_MQTT_OK/GD32VW55X_Wifi_BLE_SDK/GD32VW55x_RELEASE_V1.0.2/MSDK/cloud/alicloud/src/services/linkkit/dm\dm_msg_process.c ****     dm_msg_response_payload_t response;
 372:C:/Users/stapi/OneDrive/Desktop/GD32VW553/V1_MQTT_OK/GD32VW55X_Wifi_BLE_SDK/GD32VW55x_RELEASE_V1.0.2/MSDK/cloud/alicloud/src/services/linkkit/dm\dm_msg_process.c **** #ifdef AIOT_AUTHORIZE_ENABLE
 373:C:/Users/stapi/OneDrive/Desktop/GD32VW553/V1_MQTT_OK/GD32VW55X_Wifi_BLE_SDK/GD32VW55x_RELEASE_V1.0.2/MSDK/cloud/alicloud/src/services/linkkit/dm\dm_msg_process.c ****     if(strstr((char *)source->payload, "ServerCodeAuth.reply") != NULL){
 374:C:/Users/stapi/OneDrive/Desktop/GD32VW553/V1_MQTT_OK/GD32VW55X_Wifi_BLE_SDK/GD32VW55x_RELEASE_V1.0.2/MSDK/cloud/alicloud/src/services/linkkit/dm\dm_msg_process.c ****         aiot_authorize_setopt((void *)&(source->payload_len), AUTHORIZEOPT_AUTHORIZE_PARSE, (char *
 375:C:/Users/stapi/OneDrive/Desktop/GD32VW553/V1_MQTT_OK/GD32VW55X_Wifi_BLE_SDK/GD32VW55x_RELEASE_V1.0.2/MSDK/cloud/alicloud/src/services/linkkit/dm\dm_msg_process.c ****         return SUCCESS_RETURN;
 376:C:/Users/stapi/OneDrive/Desktop/GD32VW553/V1_MQTT_OK/GD32VW55X_Wifi_BLE_SDK/GD32VW55x_RELEASE_V1.0.2/MSDK/cloud/alicloud/src/services/linkkit/dm\dm_msg_process.c ****     }
 377:C:/Users/stapi/OneDrive/Desktop/GD32VW553/V1_MQTT_OK/GD32VW55X_Wifi_BLE_SDK/GD32VW55x_RELEASE_V1.0.2/MSDK/cloud/alicloud/src/services/linkkit/dm\dm_msg_process.c **** #endif
 378:C:/Users/stapi/OneDrive/Desktop/GD32VW553/V1_MQTT_OK/GD32VW55X_Wifi_BLE_SDK/GD32VW55x_RELEASE_V1.0.2/MSDK/cloud/alicloud/src/services/linkkit/dm\dm_msg_process.c ****     memset(&response, 0, sizeof(dm_msg_response_payload_t));
 379:C:/Users/stapi/OneDrive/Desktop/GD32VW553/V1_MQTT_OK/GD32VW55X_Wifi_BLE_SDK/GD32VW55x_RELEASE_V1.0.2/MSDK/cloud/alicloud/src/services/linkkit/dm\dm_msg_process.c **** 
 380:C:/Users/stapi/OneDrive/Desktop/GD32VW553/V1_MQTT_OK/GD32VW55X_Wifi_BLE_SDK/GD32VW55x_RELEASE_V1.0.2/MSDK/cloud/alicloud/src/services/linkkit/dm\dm_msg_process.c ****     /* Response */
 381:C:/Users/stapi/OneDrive/Desktop/GD32VW553/V1_MQTT_OK/GD32VW55X_Wifi_BLE_SDK/GD32VW55x_RELEASE_V1.0.2/MSDK/cloud/alicloud/src/services/linkkit/dm\dm_msg_process.c ****     res = dm_msg_response_parse((char *)source->payload, source->payload_len, &response);
 382:C:/Users/stapi/OneDrive/Desktop/GD32VW553/V1_MQTT_OK/GD32VW55X_Wifi_BLE_SDK/GD32VW55x_RELEASE_V1.0.2/MSDK/cloud/alicloud/src/services/linkkit/dm\dm_msg_process.c ****     if (res != SUCCESS_RETURN) {
 383:C:/Users/stapi/OneDrive/Desktop/GD32VW553/V1_MQTT_OK/GD32VW55X_Wifi_BLE_SDK/GD32VW55x_RELEASE_V1.0.2/MSDK/cloud/alicloud/src/services/linkkit/dm\dm_msg_process.c ****         return FAIL_RETURN;
 384:C:/Users/stapi/OneDrive/Desktop/GD32VW553/V1_MQTT_OK/GD32VW55X_Wifi_BLE_SDK/GD32VW55x_RELEASE_V1.0.2/MSDK/cloud/alicloud/src/services/linkkit/dm\dm_msg_process.c ****     }
 385:C:/Users/stapi/OneDrive/Desktop/GD32VW553/V1_MQTT_OK/GD32VW55X_Wifi_BLE_SDK/GD32VW55x_RELEASE_V1.0.2/MSDK/cloud/alicloud/src/services/linkkit/dm\dm_msg_process.c **** 
 386:C:/Users/stapi/OneDrive/Desktop/GD32VW553/V1_MQTT_OK/GD32VW55X_Wifi_BLE_SDK/GD32VW55x_RELEASE_V1.0.2/MSDK/cloud/alicloud/src/services/linkkit/dm\dm_msg_process.c ****     /* Operation */
 387:C:/Users/stapi/OneDrive/Desktop/GD32VW553/V1_MQTT_OK/GD32VW55X_Wifi_BLE_SDK/GD32VW55x_RELEASE_V1.0.2/MSDK/cloud/alicloud/src/services/linkkit/dm\dm_msg_process.c ****     dm_msg_unified_service_post_reply(&response);
 388:C:/Users/stapi/OneDrive/Desktop/GD32VW553/V1_MQTT_OK/GD32VW55X_Wifi_BLE_SDK/GD32VW55x_RELEASE_V1.0.2/MSDK/cloud/alicloud/src/services/linkkit/dm\dm_msg_process.c **** 
 389:C:/Users/stapi/OneDrive/Desktop/GD32VW553/V1_MQTT_OK/GD32VW55X_Wifi_BLE_SDK/GD32VW55x_RELEASE_V1.0.2/MSDK/cloud/alicloud/src/services/linkkit/dm\dm_msg_process.c ****     /* Remove Message From Cache */
 390:C:/Users/stapi/OneDrive/Desktop/GD32VW553/V1_MQTT_OK/GD32VW55X_Wifi_BLE_SDK/GD32VW55x_RELEASE_V1.0.2/MSDK/cloud/alicloud/src/services/linkkit/dm\dm_msg_process.c **** #if !defined(DM_MESSAGE_CACHE_DISABLED)
 391:C:/Users/stapi/OneDrive/Desktop/GD32VW553/V1_MQTT_OK/GD32VW55X_Wifi_BLE_SDK/GD32VW55x_RELEASE_V1.0.2/MSDK/cloud/alicloud/src/services/linkkit/dm\dm_msg_process.c ****     char int_id[DM_UTILS_UINT32_STRLEN+1] = {0};
 392:C:/Users/stapi/OneDrive/Desktop/GD32VW553/V1_MQTT_OK/GD32VW55X_Wifi_BLE_SDK/GD32VW55x_RELEASE_V1.0.2/MSDK/cloud/alicloud/src/services/linkkit/dm\dm_msg_process.c ****     if (response.id.value_length > DM_UTILS_UINT32_STRLEN) {
 393:C:/Users/stapi/OneDrive/Desktop/GD32VW553/V1_MQTT_OK/GD32VW55X_Wifi_BLE_SDK/GD32VW55x_RELEASE_V1.0.2/MSDK/cloud/alicloud/src/services/linkkit/dm\dm_msg_process.c ****         return STATE_DEV_MODEL_WRONG_JSON_FORMAT;
 394:C:/Users/stapi/OneDrive/Desktop/GD32VW553/V1_MQTT_OK/GD32VW55X_Wifi_BLE_SDK/GD32VW55x_RELEASE_V1.0.2/MSDK/cloud/alicloud/src/services/linkkit/dm\dm_msg_process.c ****     }
 395:C:/Users/stapi/OneDrive/Desktop/GD32VW553/V1_MQTT_OK/GD32VW55X_Wifi_BLE_SDK/GD32VW55x_RELEASE_V1.0.2/MSDK/cloud/alicloud/src/services/linkkit/dm\dm_msg_process.c ****     memcpy(int_id, response.id.value, response.id.value_length);
 396:C:/Users/stapi/OneDrive/Desktop/GD32VW553/V1_MQTT_OK/GD32VW55X_Wifi_BLE_SDK/GD32VW55x_RELEASE_V1.0.2/MSDK/cloud/alicloud/src/services/linkkit/dm\dm_msg_process.c ****     dm_msg_cache_remove(atoi(int_id));
 397:C:/Users/stapi/OneDrive/Desktop/GD32VW553/V1_MQTT_OK/GD32VW55X_Wifi_BLE_SDK/GD32VW55x_RELEASE_V1.0.2/MSDK/cloud/alicloud/src/services/linkkit/dm\dm_msg_process.c **** #endif
 398:C:/Users/stapi/OneDrive/Desktop/GD32VW553/V1_MQTT_OK/GD32VW55X_Wifi_BLE_SDK/GD32VW55x_RELEASE_V1.0.2/MSDK/cloud/alicloud/src/services/linkkit/dm\dm_msg_process.c **** 
 399:C:/Users/stapi/OneDrive/Desktop/GD32VW553/V1_MQTT_OK/GD32VW55X_Wifi_BLE_SDK/GD32VW55x_RELEASE_V1.0.2/MSDK/cloud/alicloud/src/services/linkkit/dm\dm_msg_process.c ****     return SUCCESS_RETURN;
 400:C:/Users/stapi/OneDrive/Desktop/GD32VW553/V1_MQTT_OK/GD32VW55X_Wifi_BLE_SDK/GD32VW55x_RELEASE_V1.0.2/MSDK/cloud/alicloud/src/services/linkkit/dm\dm_msg_process.c **** }
 401:C:/Users/stapi/OneDrive/Desktop/GD32VW553/V1_MQTT_OK/GD32VW55X_Wifi_BLE_SDK/GD32VW55x_RELEASE_V1.0.2/MSDK/cloud/alicloud/src/services/linkkit/dm\dm_msg_process.c **** #endif
 402:C:/Users/stapi/OneDrive/Desktop/GD32VW553/V1_MQTT_OK/GD32VW55X_Wifi_BLE_SDK/GD32VW55x_RELEASE_V1.0.2/MSDK/cloud/alicloud/src/services/linkkit/dm\dm_msg_process.c **** 
 403:C:/Users/stapi/OneDrive/Desktop/GD32VW553/V1_MQTT_OK/GD32VW55X_Wifi_BLE_SDK/GD32VW55x_RELEASE_V1.0.2/MSDK/cloud/alicloud/src/services/linkkit/dm\dm_msg_process.c **** int dm_msg_proc_thing_deviceinfo_update_reply(_IN_ dm_msg_source_t *source)
 404:C:/Users/stapi/OneDrive/Desktop/GD32VW553/V1_MQTT_OK/GD32VW55X_Wifi_BLE_SDK/GD32VW55x_RELEASE_V1.0.2/MSDK/cloud/alicloud/src/services/linkkit/dm\dm_msg_process.c **** {
 1080              		.loc 1 404 1 is_stmt 1
 1081              		.cfi_startproc
 1082              	.LVL131:
 1083 0000 17030000 		call	t0,__riscv_save_1
 1083      E7020300 
 1084              		.cfi_offset 8, -8
 1085              		.cfi_offset 1, -4
 1086              		.cfi_def_cfa_offset 16
 405:C:/Users/stapi/OneDrive/Desktop/GD32VW553/V1_MQTT_OK/GD32VW55X_Wifi_BLE_SDK/GD32VW55x_RELEASE_V1.0.2/MSDK/cloud/alicloud/src/services/linkkit/dm\dm_msg_process.c ****     int res = 0;
 1087              		.loc 1 405 5
 1088              	.LVL132:
 406:C:/Users/stapi/OneDrive/Desktop/GD32VW553/V1_MQTT_OK/GD32VW55X_Wifi_BLE_SDK/GD32VW55x_RELEASE_V1.0.2/MSDK/cloud/alicloud/src/services/linkkit/dm\dm_msg_process.c ****     dm_msg_response_payload_t response;
 1089              		.loc 1 406 5
 407:C:/Users/stapi/OneDrive/Desktop/GD32VW553/V1_MQTT_OK/GD32VW55X_Wifi_BLE_SDK/GD32VW55x_RELEASE_V1.0.2/MSDK/cloud/alicloud/src/services/linkkit/dm\dm_msg_process.c **** 
 408:C:/Users/stapi/OneDrive/Desktop/GD32VW553/V1_MQTT_OK/GD32VW55X_Wifi_BLE_SDK/GD32VW55x_RELEASE_V1.0.2/MSDK/cloud/alicloud/src/services/linkkit/dm\dm_msg_process.c ****     dm_log_info(DM_URI_THING_DEVICEINFO_UPDATE_REPLY);
 1090              		.loc 1 408 5
 1091              		.loc 1 408 5
 404:C:/Users/stapi/OneDrive/Desktop/GD32VW553/V1_MQTT_OK/GD32VW55X_Wifi_BLE_SDK/GD32VW55x_RELEASE_V1.0.2/MSDK/cloud/alicloud/src/services/linkkit/dm\dm_msg_process.c ****     int res = 0;
 1092              		.loc 1 404 1 is_stmt 0
 1093 0008 2A84     		mv	s0,a0
 1094              		.loc 1 408 5
 1095 000a 37050000 		lui	a0,%hi(.LC0)
 1096              	.LVL133:
 404:C:/Users/stapi/OneDrive/Desktop/GD32VW553/V1_MQTT_OK/GD32VW55X_Wifi_BLE_SDK/GD32VW55x_RELEASE_V1.0.2/MSDK/cloud/alicloud/src/services/linkkit/dm\dm_msg_process.c ****     int res = 0;
 1097              		.loc 1 404 1
 1098 000e 7571     		addi	sp,sp,-144
 1099              		.cfi_def_cfa_offset 160
 1100              		.loc 1 408 5
 1101 0010 13050500 		addi	a0,a0,%lo(.LC0)
 1102 0014 97000000 		call	HAL_Printf
 1102      E7800000 
 1103              	.LVL134:
 1104              		.loc 1 408 5 is_stmt 1
 1105 001c 37050000 		lui	a0,%hi(.LANCHOR6)
 1106 0020 13050500 		addi	a0,a0,%lo(.LANCHOR6)
 1107 0024 97000000 		call	HAL_Printf
 1107      E7800000 
 1108              	.LVL135:
 1109              		.loc 1 408 5
 1110 002c 37050000 		lui	a0,%hi(.LC1)
 1111 0030 13050500 		addi	a0,a0,%lo(.LC1)
 1112 0034 97000000 		call	HAL_Printf
 1112      E7800000 
 1113              	.LVL136:
 1114              		.loc 1 408 5
 409:C:/Users/stapi/OneDrive/Desktop/GD32VW553/V1_MQTT_OK/GD32VW55X_Wifi_BLE_SDK/GD32VW55x_RELEASE_V1.0.2/MSDK/cloud/alicloud/src/services/linkkit/dm\dm_msg_process.c **** 
 410:C:/Users/stapi/OneDrive/Desktop/GD32VW553/V1_MQTT_OK/GD32VW55X_Wifi_BLE_SDK/GD32VW55x_RELEASE_V1.0.2/MSDK/cloud/alicloud/src/services/linkkit/dm\dm_msg_process.c ****     /* Response */
 411:C:/Users/stapi/OneDrive/Desktop/GD32VW553/V1_MQTT_OK/GD32VW55X_Wifi_BLE_SDK/GD32VW55x_RELEASE_V1.0.2/MSDK/cloud/alicloud/src/services/linkkit/dm\dm_msg_process.c ****     res = dm_msg_response_parse((char *)source->payload, source->payload_len, &response);
 1115              		.loc 1 411 5
 1116              		.loc 1 411 11 is_stmt 0
 1117 003c 0C44     		lw	a1,8(s0)
 1118 003e 4840     		lw	a0,4(s0)
 1119 0040 1008     		addi	a2,sp,16
 412:C:/Users/stapi/OneDrive/Desktop/GD32VW553/V1_MQTT_OK/GD32VW55X_Wifi_BLE_SDK/GD32VW55x_RELEASE_V1.0.2/MSDK/cloud/alicloud/src/services/linkkit/dm\dm_msg_process.c ****     if (res != SUCCESS_RETURN) {
 413:C:/Users/stapi/OneDrive/Desktop/GD32VW553/V1_MQTT_OK/GD32VW55X_Wifi_BLE_SDK/GD32VW55x_RELEASE_V1.0.2/MSDK/cloud/alicloud/src/services/linkkit/dm\dm_msg_process.c ****         return FAIL_RETURN;
 1120              		.loc 1 413 16
 1121 0042 7D54     		li	s0,-1
 1122              	.LVL137:
 411:C:/Users/stapi/OneDrive/Desktop/GD32VW553/V1_MQTT_OK/GD32VW55X_Wifi_BLE_SDK/GD32VW55x_RELEASE_V1.0.2/MSDK/cloud/alicloud/src/services/linkkit/dm\dm_msg_process.c ****     if (res != SUCCESS_RETURN) {
 1123              		.loc 1 411 11
 1124 0044 97000000 		call	dm_msg_response_parse
 1124      E7800000 
 1125              	.LVL138:
 412:C:/Users/stapi/OneDrive/Desktop/GD32VW553/V1_MQTT_OK/GD32VW55X_Wifi_BLE_SDK/GD32VW55x_RELEASE_V1.0.2/MSDK/cloud/alicloud/src/services/linkkit/dm\dm_msg_process.c ****     if (res != SUCCESS_RETURN) {
 1126              		.loc 1 412 5 is_stmt 1
 412:C:/Users/stapi/OneDrive/Desktop/GD32VW553/V1_MQTT_OK/GD32VW55X_Wifi_BLE_SDK/GD32VW55x_RELEASE_V1.0.2/MSDK/cloud/alicloud/src/services/linkkit/dm\dm_msg_process.c ****     if (res != SUCCESS_RETURN) {
 1127              		.loc 1 412 8 is_stmt 0
 1128 004c 21E1     		bne	a0,zero,.L41
 1129 004e 2A84     		mv	s0,a0
 414:C:/Users/stapi/OneDrive/Desktop/GD32VW553/V1_MQTT_OK/GD32VW55X_Wifi_BLE_SDK/GD32VW55x_RELEASE_V1.0.2/MSDK/cloud/alicloud/src/services/linkkit/dm\dm_msg_process.c ****     }
 415:C:/Users/stapi/OneDrive/Desktop/GD32VW553/V1_MQTT_OK/GD32VW55X_Wifi_BLE_SDK/GD32VW55x_RELEASE_V1.0.2/MSDK/cloud/alicloud/src/services/linkkit/dm\dm_msg_process.c **** 
 416:C:/Users/stapi/OneDrive/Desktop/GD32VW553/V1_MQTT_OK/GD32VW55X_Wifi_BLE_SDK/GD32VW55x_RELEASE_V1.0.2/MSDK/cloud/alicloud/src/services/linkkit/dm\dm_msg_process.c ****     /* Operation */
 417:C:/Users/stapi/OneDrive/Desktop/GD32VW553/V1_MQTT_OK/GD32VW55X_Wifi_BLE_SDK/GD32VW55x_RELEASE_V1.0.2/MSDK/cloud/alicloud/src/services/linkkit/dm\dm_msg_process.c ****     dm_msg_thing_deviceinfo_update_reply(&response);
 1130              		.loc 1 417 5 is_stmt 1
 1131 0050 0808     		addi	a0,sp,16
 1132              	.LVL139:
 1133 0052 97000000 		call	dm_msg_thing_deviceinfo_update_reply
 1133      E7800000 
 1134              	.LVL140:
 418:C:/Users/stapi/OneDrive/Desktop/GD32VW553/V1_MQTT_OK/GD32VW55X_Wifi_BLE_SDK/GD32VW55x_RELEASE_V1.0.2/MSDK/cloud/alicloud/src/services/linkkit/dm\dm_msg_process.c **** 
 419:C:/Users/stapi/OneDrive/Desktop/GD32VW553/V1_MQTT_OK/GD32VW55X_Wifi_BLE_SDK/GD32VW55x_RELEASE_V1.0.2/MSDK/cloud/alicloud/src/services/linkkit/dm\dm_msg_process.c ****     /* Remove Message From Cache */
 420:C:/Users/stapi/OneDrive/Desktop/GD32VW553/V1_MQTT_OK/GD32VW55X_Wifi_BLE_SDK/GD32VW55x_RELEASE_V1.0.2/MSDK/cloud/alicloud/src/services/linkkit/dm\dm_msg_process.c **** #if !defined(DM_MESSAGE_CACHE_DISABLED)
 421:C:/Users/stapi/OneDrive/Desktop/GD32VW553/V1_MQTT_OK/GD32VW55X_Wifi_BLE_SDK/GD32VW55x_RELEASE_V1.0.2/MSDK/cloud/alicloud/src/services/linkkit/dm\dm_msg_process.c ****     char int_id[DM_UTILS_UINT32_STRLEN+1] = {0};
 1135              		.loc 1 421 5
 422:C:/Users/stapi/OneDrive/Desktop/GD32VW553/V1_MQTT_OK/GD32VW55X_Wifi_BLE_SDK/GD32VW55x_RELEASE_V1.0.2/MSDK/cloud/alicloud/src/services/linkkit/dm\dm_msg_process.c ****     if (response.id.value_length > DM_UTILS_UINT32_STRLEN) {
 1136              		.loc 1 422 20 is_stmt 0
 1137 005a 6246     		lw	a2,24(sp)
 421:C:/Users/stapi/OneDrive/Desktop/GD32VW553/V1_MQTT_OK/GD32VW55X_Wifi_BLE_SDK/GD32VW55x_RELEASE_V1.0.2/MSDK/cloud/alicloud/src/services/linkkit/dm\dm_msg_process.c ****     if (response.id.value_length > DM_UTILS_UINT32_STRLEN) {
 1138              		.loc 1 421 10
 1139 005c 02C2     		sw	zero,4(sp)
 1140 005e 02C4     		sw	zero,8(sp)
 1141 0060 23160100 		sh	zero,12(sp)
 1142 0064 23070100 		sb	zero,14(sp)
 1143              		.loc 1 422 5 is_stmt 1
 1144              		.loc 1 422 8 is_stmt 0
 1145 0068 A947     		li	a5,10
 1146 006a 63C7C702 		bgt	a2,a5,.L44
 423:C:/Users/stapi/OneDrive/Desktop/GD32VW553/V1_MQTT_OK/GD32VW55X_Wifi_BLE_SDK/GD32VW55x_RELEASE_V1.0.2/MSDK/cloud/alicloud/src/services/linkkit/dm\dm_msg_process.c ****         return STATE_DEV_MODEL_WRONG_JSON_FORMAT;
 424:C:/Users/stapi/OneDrive/Desktop/GD32VW553/V1_MQTT_OK/GD32VW55X_Wifi_BLE_SDK/GD32VW55x_RELEASE_V1.0.2/MSDK/cloud/alicloud/src/services/linkkit/dm\dm_msg_process.c ****     }
 425:C:/Users/stapi/OneDrive/Desktop/GD32VW553/V1_MQTT_OK/GD32VW55X_Wifi_BLE_SDK/GD32VW55x_RELEASE_V1.0.2/MSDK/cloud/alicloud/src/services/linkkit/dm\dm_msg_process.c ****     memcpy(int_id, response.id.value, response.id.value_length);
 1147              		.loc 1 425 5 is_stmt 1
 1148 006e D245     		lw	a1,20(sp)
 1149 0070 4800     		addi	a0,sp,4
 1150 0072 97000000 		call	memcpy
 1150      E7800000 
 1151              	.LVL141:
 426:C:/Users/stapi/OneDrive/Desktop/GD32VW553/V1_MQTT_OK/GD32VW55X_Wifi_BLE_SDK/GD32VW55x_RELEASE_V1.0.2/MSDK/cloud/alicloud/src/services/linkkit/dm\dm_msg_process.c ****     dm_msg_cache_remove(atoi(int_id));
 1152              		.loc 1 426 5
 1153 007a 4800     		addi	a0,sp,4
 1154 007c 97000000 		call	atoi
 1154      E7800000 
 1155              	.LVL142:
 1156 0084 97000000 		call	dm_msg_cache_remove
 1156      E7800000 
 1157              	.LVL143:
 427:C:/Users/stapi/OneDrive/Desktop/GD32VW553/V1_MQTT_OK/GD32VW55X_Wifi_BLE_SDK/GD32VW55x_RELEASE_V1.0.2/MSDK/cloud/alicloud/src/services/linkkit/dm\dm_msg_process.c **** #endif
 428:C:/Users/stapi/OneDrive/Desktop/GD32VW553/V1_MQTT_OK/GD32VW55X_Wifi_BLE_SDK/GD32VW55x_RELEASE_V1.0.2/MSDK/cloud/alicloud/src/services/linkkit/dm\dm_msg_process.c ****     return SUCCESS_RETURN;
 1158              		.loc 1 428 5
 1159              	.L41:
 429:C:/Users/stapi/OneDrive/Desktop/GD32VW553/V1_MQTT_OK/GD32VW55X_Wifi_BLE_SDK/GD32VW55x_RELEASE_V1.0.2/MSDK/cloud/alicloud/src/services/linkkit/dm\dm_msg_process.c **** }
 1160              		.loc 1 429 1 is_stmt 0
 1161 008c 2285     		mv	a0,s0
 1162 008e 4961     		addi	sp,sp,144
 1163              		.cfi_remember_state
 1164              		.cfi_def_cfa_offset 0
 1165 0090 17030000 		tail	__riscv_restore_1
 1165      67000300 
 1166              		.cfi_restore 8
 1167              		.cfi_restore 1
 1168              		.cfi_def_cfa_offset -16
 1169              	.LVL144:
 1170              	.L44:
 1171              		.cfi_restore_state
 423:C:/Users/stapi/OneDrive/Desktop/GD32VW553/V1_MQTT_OK/GD32VW55X_Wifi_BLE_SDK/GD32VW55x_RELEASE_V1.0.2/MSDK/cloud/alicloud/src/services/linkkit/dm\dm_msg_process.c ****     }
 1172              		.loc 1 423 16
 1173 0098 7D74     		li	s0,-4096
 1174              	.LVL145:
 1175 009a 1304F46E 		addi	s0,s0,1775
 1176 009e FDB7     		j	.L41
 1177              		.cfi_endproc
 1178              	.LFE27:
 1180              		.section	.text.dm_msg_proc_thing_deviceinfo_delete_reply,"ax",@progbits
 1181              		.align	1
 1182              		.globl	dm_msg_proc_thing_deviceinfo_delete_reply
 1184              	dm_msg_proc_thing_deviceinfo_delete_reply:
 1185              	.LFB28:
 430:C:/Users/stapi/OneDrive/Desktop/GD32VW553/V1_MQTT_OK/GD32VW55X_Wifi_BLE_SDK/GD32VW55x_RELEASE_V1.0.2/MSDK/cloud/alicloud/src/services/linkkit/dm\dm_msg_process.c **** 
 431:C:/Users/stapi/OneDrive/Desktop/GD32VW553/V1_MQTT_OK/GD32VW55X_Wifi_BLE_SDK/GD32VW55x_RELEASE_V1.0.2/MSDK/cloud/alicloud/src/services/linkkit/dm\dm_msg_process.c **** int dm_msg_proc_thing_deviceinfo_delete_reply(_IN_ dm_msg_source_t *source)
 432:C:/Users/stapi/OneDrive/Desktop/GD32VW553/V1_MQTT_OK/GD32VW55X_Wifi_BLE_SDK/GD32VW55x_RELEASE_V1.0.2/MSDK/cloud/alicloud/src/services/linkkit/dm\dm_msg_process.c **** {
 1186              		.loc 1 432 1 is_stmt 1
 1187              		.cfi_startproc
 1188              	.LVL146:
 1189 0000 17030000 		call	t0,__riscv_save_1
 1189      E7020300 
 1190              		.cfi_offset 8, -8
 1191              		.cfi_offset 1, -4
 1192              		.cfi_def_cfa_offset 16
 433:C:/Users/stapi/OneDrive/Desktop/GD32VW553/V1_MQTT_OK/GD32VW55X_Wifi_BLE_SDK/GD32VW55x_RELEASE_V1.0.2/MSDK/cloud/alicloud/src/services/linkkit/dm\dm_msg_process.c ****     int res = 0;
 1193              		.loc 1 433 5
 1194              	.LVL147:
 434:C:/Users/stapi/OneDrive/Desktop/GD32VW553/V1_MQTT_OK/GD32VW55X_Wifi_BLE_SDK/GD32VW55x_RELEASE_V1.0.2/MSDK/cloud/alicloud/src/services/linkkit/dm\dm_msg_process.c ****     dm_msg_response_payload_t response;
 1195              		.loc 1 434 5
 435:C:/Users/stapi/OneDrive/Desktop/GD32VW553/V1_MQTT_OK/GD32VW55X_Wifi_BLE_SDK/GD32VW55x_RELEASE_V1.0.2/MSDK/cloud/alicloud/src/services/linkkit/dm\dm_msg_process.c **** 
 436:C:/Users/stapi/OneDrive/Desktop/GD32VW553/V1_MQTT_OK/GD32VW55X_Wifi_BLE_SDK/GD32VW55x_RELEASE_V1.0.2/MSDK/cloud/alicloud/src/services/linkkit/dm\dm_msg_process.c ****     dm_log_info(DM_URI_THING_DEVICEINFO_DELETE_REPLY);
 1196              		.loc 1 436 5
 1197              		.loc 1 436 5
 432:C:/Users/stapi/OneDrive/Desktop/GD32VW553/V1_MQTT_OK/GD32VW55X_Wifi_BLE_SDK/GD32VW55x_RELEASE_V1.0.2/MSDK/cloud/alicloud/src/services/linkkit/dm\dm_msg_process.c ****     int res = 0;
 1198              		.loc 1 432 1 is_stmt 0
 1199 0008 2A84     		mv	s0,a0
 1200              		.loc 1 436 5
 1201 000a 37050000 		lui	a0,%hi(.LC0)
 1202              	.LVL148:
 432:C:/Users/stapi/OneDrive/Desktop/GD32VW553/V1_MQTT_OK/GD32VW55X_Wifi_BLE_SDK/GD32VW55x_RELEASE_V1.0.2/MSDK/cloud/alicloud/src/services/linkkit/dm\dm_msg_process.c ****     int res = 0;
 1203              		.loc 1 432 1
 1204 000e 7571     		addi	sp,sp,-144
 1205              		.cfi_def_cfa_offset 160
 1206              		.loc 1 436 5
 1207 0010 13050500 		addi	a0,a0,%lo(.LC0)
 1208 0014 97000000 		call	HAL_Printf
 1208      E7800000 
 1209              	.LVL149:
 1210              		.loc 1 436 5 is_stmt 1
 1211 001c 37050000 		lui	a0,%hi(.LANCHOR7)
 1212 0020 13050500 		addi	a0,a0,%lo(.LANCHOR7)
 1213 0024 97000000 		call	HAL_Printf
 1213      E7800000 
 1214              	.LVL150:
 1215              		.loc 1 436 5
 1216 002c 37050000 		lui	a0,%hi(.LC1)
 1217 0030 13050500 		addi	a0,a0,%lo(.LC1)
 1218 0034 97000000 		call	HAL_Printf
 1218      E7800000 
 1219              	.LVL151:
 1220              		.loc 1 436 5
 437:C:/Users/stapi/OneDrive/Desktop/GD32VW553/V1_MQTT_OK/GD32VW55X_Wifi_BLE_SDK/GD32VW55x_RELEASE_V1.0.2/MSDK/cloud/alicloud/src/services/linkkit/dm\dm_msg_process.c **** 
 438:C:/Users/stapi/OneDrive/Desktop/GD32VW553/V1_MQTT_OK/GD32VW55X_Wifi_BLE_SDK/GD32VW55x_RELEASE_V1.0.2/MSDK/cloud/alicloud/src/services/linkkit/dm\dm_msg_process.c ****     /* Response */
 439:C:/Users/stapi/OneDrive/Desktop/GD32VW553/V1_MQTT_OK/GD32VW55X_Wifi_BLE_SDK/GD32VW55x_RELEASE_V1.0.2/MSDK/cloud/alicloud/src/services/linkkit/dm\dm_msg_process.c ****     res = dm_msg_response_parse((char *)source->payload, source->payload_len, &response);
 1221              		.loc 1 439 5
 1222              		.loc 1 439 11 is_stmt 0
 1223 003c 0C44     		lw	a1,8(s0)
 1224 003e 4840     		lw	a0,4(s0)
 1225 0040 1008     		addi	a2,sp,16
 440:C:/Users/stapi/OneDrive/Desktop/GD32VW553/V1_MQTT_OK/GD32VW55X_Wifi_BLE_SDK/GD32VW55x_RELEASE_V1.0.2/MSDK/cloud/alicloud/src/services/linkkit/dm\dm_msg_process.c ****     if (res != SUCCESS_RETURN) {
 441:C:/Users/stapi/OneDrive/Desktop/GD32VW553/V1_MQTT_OK/GD32VW55X_Wifi_BLE_SDK/GD32VW55x_RELEASE_V1.0.2/MSDK/cloud/alicloud/src/services/linkkit/dm\dm_msg_process.c ****         return FAIL_RETURN;
 1226              		.loc 1 441 16
 1227 0042 7D54     		li	s0,-1
 1228              	.LVL152:
 439:C:/Users/stapi/OneDrive/Desktop/GD32VW553/V1_MQTT_OK/GD32VW55X_Wifi_BLE_SDK/GD32VW55x_RELEASE_V1.0.2/MSDK/cloud/alicloud/src/services/linkkit/dm\dm_msg_process.c ****     if (res != SUCCESS_RETURN) {
 1229              		.loc 1 439 11
 1230 0044 97000000 		call	dm_msg_response_parse
 1230      E7800000 
 1231              	.LVL153:
 440:C:/Users/stapi/OneDrive/Desktop/GD32VW553/V1_MQTT_OK/GD32VW55X_Wifi_BLE_SDK/GD32VW55x_RELEASE_V1.0.2/MSDK/cloud/alicloud/src/services/linkkit/dm\dm_msg_process.c ****     if (res != SUCCESS_RETURN) {
 1232              		.loc 1 440 5 is_stmt 1
 440:C:/Users/stapi/OneDrive/Desktop/GD32VW553/V1_MQTT_OK/GD32VW55X_Wifi_BLE_SDK/GD32VW55x_RELEASE_V1.0.2/MSDK/cloud/alicloud/src/services/linkkit/dm\dm_msg_process.c ****     if (res != SUCCESS_RETURN) {
 1233              		.loc 1 440 8 is_stmt 0
 1234 004c 21E1     		bne	a0,zero,.L46
 1235 004e 2A84     		mv	s0,a0
 442:C:/Users/stapi/OneDrive/Desktop/GD32VW553/V1_MQTT_OK/GD32VW55X_Wifi_BLE_SDK/GD32VW55x_RELEASE_V1.0.2/MSDK/cloud/alicloud/src/services/linkkit/dm\dm_msg_process.c ****     }
 443:C:/Users/stapi/OneDrive/Desktop/GD32VW553/V1_MQTT_OK/GD32VW55X_Wifi_BLE_SDK/GD32VW55x_RELEASE_V1.0.2/MSDK/cloud/alicloud/src/services/linkkit/dm\dm_msg_process.c **** 
 444:C:/Users/stapi/OneDrive/Desktop/GD32VW553/V1_MQTT_OK/GD32VW55X_Wifi_BLE_SDK/GD32VW55x_RELEASE_V1.0.2/MSDK/cloud/alicloud/src/services/linkkit/dm\dm_msg_process.c ****     /* Operation */
 445:C:/Users/stapi/OneDrive/Desktop/GD32VW553/V1_MQTT_OK/GD32VW55X_Wifi_BLE_SDK/GD32VW55x_RELEASE_V1.0.2/MSDK/cloud/alicloud/src/services/linkkit/dm\dm_msg_process.c ****     dm_msg_thing_deviceinfo_delete_reply(&response);
 1236              		.loc 1 445 5 is_stmt 1
 1237 0050 0808     		addi	a0,sp,16
 1238              	.LVL154:
 1239 0052 97000000 		call	dm_msg_thing_deviceinfo_delete_reply
 1239      E7800000 
 1240              	.LVL155:
 446:C:/Users/stapi/OneDrive/Desktop/GD32VW553/V1_MQTT_OK/GD32VW55X_Wifi_BLE_SDK/GD32VW55x_RELEASE_V1.0.2/MSDK/cloud/alicloud/src/services/linkkit/dm\dm_msg_process.c **** 
 447:C:/Users/stapi/OneDrive/Desktop/GD32VW553/V1_MQTT_OK/GD32VW55X_Wifi_BLE_SDK/GD32VW55x_RELEASE_V1.0.2/MSDK/cloud/alicloud/src/services/linkkit/dm\dm_msg_process.c ****     /* Remove Message From Cache */
 448:C:/Users/stapi/OneDrive/Desktop/GD32VW553/V1_MQTT_OK/GD32VW55X_Wifi_BLE_SDK/GD32VW55x_RELEASE_V1.0.2/MSDK/cloud/alicloud/src/services/linkkit/dm\dm_msg_process.c **** #if !defined(DM_MESSAGE_CACHE_DISABLED)
 449:C:/Users/stapi/OneDrive/Desktop/GD32VW553/V1_MQTT_OK/GD32VW55X_Wifi_BLE_SDK/GD32VW55x_RELEASE_V1.0.2/MSDK/cloud/alicloud/src/services/linkkit/dm\dm_msg_process.c ****     char int_id[DM_UTILS_UINT32_STRLEN+1] = {0};
 1241              		.loc 1 449 5
 450:C:/Users/stapi/OneDrive/Desktop/GD32VW553/V1_MQTT_OK/GD32VW55X_Wifi_BLE_SDK/GD32VW55x_RELEASE_V1.0.2/MSDK/cloud/alicloud/src/services/linkkit/dm\dm_msg_process.c ****     if (response.id.value_length > DM_UTILS_UINT32_STRLEN) {
 1242              		.loc 1 450 20 is_stmt 0
 1243 005a 6246     		lw	a2,24(sp)
 449:C:/Users/stapi/OneDrive/Desktop/GD32VW553/V1_MQTT_OK/GD32VW55X_Wifi_BLE_SDK/GD32VW55x_RELEASE_V1.0.2/MSDK/cloud/alicloud/src/services/linkkit/dm\dm_msg_process.c ****     if (response.id.value_length > DM_UTILS_UINT32_STRLEN) {
 1244              		.loc 1 449 10
 1245 005c 02C2     		sw	zero,4(sp)
 1246 005e 02C4     		sw	zero,8(sp)
 1247 0060 23160100 		sh	zero,12(sp)
 1248 0064 23070100 		sb	zero,14(sp)
 1249              		.loc 1 450 5 is_stmt 1
 1250              		.loc 1 450 8 is_stmt 0
 1251 0068 A947     		li	a5,10
 1252 006a 63C7C702 		bgt	a2,a5,.L49
 451:C:/Users/stapi/OneDrive/Desktop/GD32VW553/V1_MQTT_OK/GD32VW55X_Wifi_BLE_SDK/GD32VW55x_RELEASE_V1.0.2/MSDK/cloud/alicloud/src/services/linkkit/dm\dm_msg_process.c ****         return STATE_DEV_MODEL_WRONG_JSON_FORMAT;
 452:C:/Users/stapi/OneDrive/Desktop/GD32VW553/V1_MQTT_OK/GD32VW55X_Wifi_BLE_SDK/GD32VW55x_RELEASE_V1.0.2/MSDK/cloud/alicloud/src/services/linkkit/dm\dm_msg_process.c ****     }
 453:C:/Users/stapi/OneDrive/Desktop/GD32VW553/V1_MQTT_OK/GD32VW55X_Wifi_BLE_SDK/GD32VW55x_RELEASE_V1.0.2/MSDK/cloud/alicloud/src/services/linkkit/dm\dm_msg_process.c ****     memcpy(int_id, response.id.value, response.id.value_length);
 1253              		.loc 1 453 5 is_stmt 1
 1254 006e D245     		lw	a1,20(sp)
 1255 0070 4800     		addi	a0,sp,4
 1256 0072 97000000 		call	memcpy
 1256      E7800000 
 1257              	.LVL156:
 454:C:/Users/stapi/OneDrive/Desktop/GD32VW553/V1_MQTT_OK/GD32VW55X_Wifi_BLE_SDK/GD32VW55x_RELEASE_V1.0.2/MSDK/cloud/alicloud/src/services/linkkit/dm\dm_msg_process.c ****     dm_msg_cache_remove(atoi(int_id));
 1258              		.loc 1 454 5
 1259 007a 4800     		addi	a0,sp,4
 1260 007c 97000000 		call	atoi
 1260      E7800000 
 1261              	.LVL157:
 1262 0084 97000000 		call	dm_msg_cache_remove
 1262      E7800000 
 1263              	.LVL158:
 455:C:/Users/stapi/OneDrive/Desktop/GD32VW553/V1_MQTT_OK/GD32VW55X_Wifi_BLE_SDK/GD32VW55x_RELEASE_V1.0.2/MSDK/cloud/alicloud/src/services/linkkit/dm\dm_msg_process.c **** #endif
 456:C:/Users/stapi/OneDrive/Desktop/GD32VW553/V1_MQTT_OK/GD32VW55X_Wifi_BLE_SDK/GD32VW55x_RELEASE_V1.0.2/MSDK/cloud/alicloud/src/services/linkkit/dm\dm_msg_process.c ****     return SUCCESS_RETURN;
 1264              		.loc 1 456 5
 1265              	.L46:
 457:C:/Users/stapi/OneDrive/Desktop/GD32VW553/V1_MQTT_OK/GD32VW55X_Wifi_BLE_SDK/GD32VW55x_RELEASE_V1.0.2/MSDK/cloud/alicloud/src/services/linkkit/dm\dm_msg_process.c **** }
 1266              		.loc 1 457 1 is_stmt 0
 1267 008c 2285     		mv	a0,s0
 1268 008e 4961     		addi	sp,sp,144
 1269              		.cfi_remember_state
 1270              		.cfi_def_cfa_offset 0
 1271 0090 17030000 		tail	__riscv_restore_1
 1271      67000300 
 1272              		.cfi_restore 8
 1273              		.cfi_restore 1
 1274              		.cfi_def_cfa_offset -16
 1275              	.LVL159:
 1276              	.L49:
 1277              		.cfi_restore_state
 451:C:/Users/stapi/OneDrive/Desktop/GD32VW553/V1_MQTT_OK/GD32VW55X_Wifi_BLE_SDK/GD32VW55x_RELEASE_V1.0.2/MSDK/cloud/alicloud/src/services/linkkit/dm\dm_msg_process.c ****     }
 1278              		.loc 1 451 16
 1279 0098 7D74     		li	s0,-4096
 1280              	.LVL160:
 1281 009a 1304F46E 		addi	s0,s0,1775
 1282 009e FDB7     		j	.L46
 1283              		.cfi_endproc
 1284              	.LFE28:
 1286              		.section	.text.dm_msg_proc_thing_event_notify_reply,"ax",@progbits
 1287              		.align	1
 1288              		.globl	dm_msg_proc_thing_event_notify_reply
 1290              	dm_msg_proc_thing_event_notify_reply:
 1291              	.LFB29:
 458:C:/Users/stapi/OneDrive/Desktop/GD32VW553/V1_MQTT_OK/GD32VW55X_Wifi_BLE_SDK/GD32VW55x_RELEASE_V1.0.2/MSDK/cloud/alicloud/src/services/linkkit/dm\dm_msg_process.c **** #endif /*end of DEVICE_MODEL_RAWDATA_SOLO*/
 459:C:/Users/stapi/OneDrive/Desktop/GD32VW553/V1_MQTT_OK/GD32VW55X_Wifi_BLE_SDK/GD32VW55x_RELEASE_V1.0.2/MSDK/cloud/alicloud/src/services/linkkit/dm\dm_msg_process.c **** 
 460:C:/Users/stapi/OneDrive/Desktop/GD32VW553/V1_MQTT_OK/GD32VW55X_Wifi_BLE_SDK/GD32VW55x_RELEASE_V1.0.2/MSDK/cloud/alicloud/src/services/linkkit/dm\dm_msg_process.c **** int dm_msg_proc_thing_event_notify_reply(_IN_ dm_msg_source_t *source)
 461:C:/Users/stapi/OneDrive/Desktop/GD32VW553/V1_MQTT_OK/GD32VW55X_Wifi_BLE_SDK/GD32VW55x_RELEASE_V1.0.2/MSDK/cloud/alicloud/src/services/linkkit/dm\dm_msg_process.c **** {
 1292              		.loc 1 461 1 is_stmt 1
 1293              		.cfi_startproc
 1294              	.LVL161:
 1295 0000 17030000 		call	t0,__riscv_save_2
 1295      E7020300 
 1296              		.cfi_offset 9, -12
 1297              		.cfi_offset 8, -8
 1298              		.cfi_offset 1, -4
 1299              		.cfi_def_cfa_offset 16
 462:C:/Users/stapi/OneDrive/Desktop/GD32VW553/V1_MQTT_OK/GD32VW55X_Wifi_BLE_SDK/GD32VW55x_RELEASE_V1.0.2/MSDK/cloud/alicloud/src/services/linkkit/dm\dm_msg_process.c ****     int res = 0, eventid_start_pos = 0, eventid_end_pos = 0;
 1300              		.loc 1 462 5
 1301              	.LVL162:
 463:C:/Users/stapi/OneDrive/Desktop/GD32VW553/V1_MQTT_OK/GD32VW55X_Wifi_BLE_SDK/GD32VW55x_RELEASE_V1.0.2/MSDK/cloud/alicloud/src/services/linkkit/dm\dm_msg_process.c ****     dm_msg_response_payload_t response;
 464:C:/Users/stapi/OneDrive/Desktop/GD32VW553/V1_MQTT_OK/GD32VW55X_Wifi_BLE_SDK/GD32VW55x_RELEASE_V1.0.2/MSDK/cloud/alicloud/src/services/linkkit/dm\dm_msg_process.c **** 
 465:C:/Users/stapi/OneDrive/Desktop/GD32VW553/V1_MQTT_OK/GD32VW55X_Wifi_BLE_SDK/GD32VW55x_RELEASE_V1.0.2/MSDK/cloud/alicloud/src/services/linkkit/dm\dm_msg_process.c ****     res = dm_utils_memtok((char *)source->uri, strlen(source->uri), DM_URI_SERVICE_DELIMITER, 6 + D
 1302              		.loc 1 465 41 is_stmt 0
 1303 0008 0441     		lw	s1,0(a0)
 461:C:/Users/stapi/OneDrive/Desktop/GD32VW553/V1_MQTT_OK/GD32VW55X_Wifi_BLE_SDK/GD32VW55x_RELEASE_V1.0.2/MSDK/cloud/alicloud/src/services/linkkit/dm\dm_msg_process.c ****     int res = 0, eventid_start_pos = 0, eventid_end_pos = 0;
 1304              		.loc 1 461 1
 1305 000a 3571     		addi	sp,sp,-160
 1306              		.cfi_def_cfa_offset 176
 461:C:/Users/stapi/OneDrive/Desktop/GD32VW553/V1_MQTT_OK/GD32VW55X_Wifi_BLE_SDK/GD32VW55x_RELEASE_V1.0.2/MSDK/cloud/alicloud/src/services/linkkit/dm\dm_msg_process.c ****     int res = 0, eventid_start_pos = 0, eventid_end_pos = 0;
 1307              		.loc 1 461 1
 1308 000c 2A84     		mv	s0,a0
 1309              		.loc 1 465 48
 1310 000e 2685     		mv	a0,s1
 1311              	.LVL163:
 462:C:/Users/stapi/OneDrive/Desktop/GD32VW553/V1_MQTT_OK/GD32VW55X_Wifi_BLE_SDK/GD32VW55x_RELEASE_V1.0.2/MSDK/cloud/alicloud/src/services/linkkit/dm\dm_msg_process.c ****     int res = 0, eventid_start_pos = 0, eventid_end_pos = 0;
 1312              		.loc 1 462 18
 1313 0010 02C6     		sw	zero,12(sp)
 462:C:/Users/stapi/OneDrive/Desktop/GD32VW553/V1_MQTT_OK/GD32VW55X_Wifi_BLE_SDK/GD32VW55x_RELEASE_V1.0.2/MSDK/cloud/alicloud/src/services/linkkit/dm\dm_msg_process.c ****     int res = 0, eventid_start_pos = 0, eventid_end_pos = 0;
 1314              		.loc 1 462 41
 1315 0012 02C8     		sw	zero,16(sp)
 463:C:/Users/stapi/OneDrive/Desktop/GD32VW553/V1_MQTT_OK/GD32VW55X_Wifi_BLE_SDK/GD32VW55x_RELEASE_V1.0.2/MSDK/cloud/alicloud/src/services/linkkit/dm\dm_msg_process.c ****     dm_msg_response_payload_t response;
 1316              		.loc 1 463 5 is_stmt 1
 1317              		.loc 1 465 5
 1318              		.loc 1 465 48 is_stmt 0
 1319 0014 97000000 		call	strlen
 1319      E7800000 
 1320              	.LVL164:
 1321 001c AA85     		mv	a1,a0
 1322              		.loc 1 465 11
 1323 001e 7800     		addi	a4,sp,12
 1324 0020 9946     		li	a3,6
 1325 0022 1306F002 		li	a2,47
 1326 0026 2685     		mv	a0,s1
 1327 0028 97000000 		call	dm_utils_memtok
 1327      E7800000 
 1328              	.LVL165:
 466:C:/Users/stapi/OneDrive/Desktop/GD32VW553/V1_MQTT_OK/GD32VW55X_Wifi_BLE_SDK/GD32VW55x_RELEASE_V1.0.2/MSDK/cloud/alicloud/src/services/linkkit/dm\dm_msg_process.c ****                           &eventid_start_pos);
 467:C:/Users/stapi/OneDrive/Desktop/GD32VW553/V1_MQTT_OK/GD32VW55X_Wifi_BLE_SDK/GD32VW55x_RELEASE_V1.0.2/MSDK/cloud/alicloud/src/services/linkkit/dm\dm_msg_process.c ****     if (res != SUCCESS_RETURN) {
 1329              		.loc 1 467 5 is_stmt 1
 1330              		.loc 1 467 8 is_stmt 0
 1331 0030 01C9     		beq	a0,zero,.L52
 1332              	.LVL166:
 1333              	.L54:
 468:C:/Users/stapi/OneDrive/Desktop/GD32VW553/V1_MQTT_OK/GD32VW55X_Wifi_BLE_SDK/GD32VW55x_RELEASE_V1.0.2/MSDK/cloud/alicloud/src/services/linkkit/dm\dm_msg_process.c ****         return FAIL_RETURN;
 1334              		.loc 1 468 16
 1335 0032 7D54     		li	s0,-1
 1336              	.LVL167:
 1337              	.L51:
 469:C:/Users/stapi/OneDrive/Desktop/GD32VW553/V1_MQTT_OK/GD32VW55X_Wifi_BLE_SDK/GD32VW55x_RELEASE_V1.0.2/MSDK/cloud/alicloud/src/services/linkkit/dm\dm_msg_process.c ****     }
 470:C:/Users/stapi/OneDrive/Desktop/GD32VW553/V1_MQTT_OK/GD32VW55X_Wifi_BLE_SDK/GD32VW55x_RELEASE_V1.0.2/MSDK/cloud/alicloud/src/services/linkkit/dm\dm_msg_process.c **** 
 471:C:/Users/stapi/OneDrive/Desktop/GD32VW553/V1_MQTT_OK/GD32VW55X_Wifi_BLE_SDK/GD32VW55x_RELEASE_V1.0.2/MSDK/cloud/alicloud/src/services/linkkit/dm\dm_msg_process.c ****     res = dm_utils_memtok((char *)source->uri, strlen(source->uri), DM_URI_SERVICE_DELIMITER, 7 + D
 472:C:/Users/stapi/OneDrive/Desktop/GD32VW553/V1_MQTT_OK/GD32VW55X_Wifi_BLE_SDK/GD32VW55x_RELEASE_V1.0.2/MSDK/cloud/alicloud/src/services/linkkit/dm\dm_msg_process.c ****                           &eventid_end_pos);
 473:C:/Users/stapi/OneDrive/Desktop/GD32VW553/V1_MQTT_OK/GD32VW55X_Wifi_BLE_SDK/GD32VW55x_RELEASE_V1.0.2/MSDK/cloud/alicloud/src/services/linkkit/dm\dm_msg_process.c ****     if (res != SUCCESS_RETURN) {
 474:C:/Users/stapi/OneDrive/Desktop/GD32VW553/V1_MQTT_OK/GD32VW55X_Wifi_BLE_SDK/GD32VW55x_RELEASE_V1.0.2/MSDK/cloud/alicloud/src/services/linkkit/dm\dm_msg_process.c ****         return FAIL_RETURN;
 475:C:/Users/stapi/OneDrive/Desktop/GD32VW553/V1_MQTT_OK/GD32VW55X_Wifi_BLE_SDK/GD32VW55x_RELEASE_V1.0.2/MSDK/cloud/alicloud/src/services/linkkit/dm\dm_msg_process.c ****     }
 476:C:/Users/stapi/OneDrive/Desktop/GD32VW553/V1_MQTT_OK/GD32VW55X_Wifi_BLE_SDK/GD32VW55x_RELEASE_V1.0.2/MSDK/cloud/alicloud/src/services/linkkit/dm\dm_msg_process.c ****     dm_log_info("Event Id: %.*s", eventid_end_pos - eventid_start_pos - 1, source->uri + eventid_st
 477:C:/Users/stapi/OneDrive/Desktop/GD32VW553/V1_MQTT_OK/GD32VW55X_Wifi_BLE_SDK/GD32VW55x_RELEASE_V1.0.2/MSDK/cloud/alicloud/src/services/linkkit/dm\dm_msg_process.c **** 
 478:C:/Users/stapi/OneDrive/Desktop/GD32VW553/V1_MQTT_OK/GD32VW55X_Wifi_BLE_SDK/GD32VW55x_RELEASE_V1.0.2/MSDK/cloud/alicloud/src/services/linkkit/dm\dm_msg_process.c ****     /* Response */
 479:C:/Users/stapi/OneDrive/Desktop/GD32VW553/V1_MQTT_OK/GD32VW55X_Wifi_BLE_SDK/GD32VW55x_RELEASE_V1.0.2/MSDK/cloud/alicloud/src/services/linkkit/dm\dm_msg_process.c ****     res = dm_msg_response_parse((char *)source->payload, source->payload_len, &response);
 480:C:/Users/stapi/OneDrive/Desktop/GD32VW553/V1_MQTT_OK/GD32VW55X_Wifi_BLE_SDK/GD32VW55x_RELEASE_V1.0.2/MSDK/cloud/alicloud/src/services/linkkit/dm\dm_msg_process.c ****     if (res != SUCCESS_RETURN) {
 481:C:/Users/stapi/OneDrive/Desktop/GD32VW553/V1_MQTT_OK/GD32VW55X_Wifi_BLE_SDK/GD32VW55x_RELEASE_V1.0.2/MSDK/cloud/alicloud/src/services/linkkit/dm\dm_msg_process.c ****         return FAIL_RETURN;
 482:C:/Users/stapi/OneDrive/Desktop/GD32VW553/V1_MQTT_OK/GD32VW55X_Wifi_BLE_SDK/GD32VW55x_RELEASE_V1.0.2/MSDK/cloud/alicloud/src/services/linkkit/dm\dm_msg_process.c ****     }
 483:C:/Users/stapi/OneDrive/Desktop/GD32VW553/V1_MQTT_OK/GD32VW55X_Wifi_BLE_SDK/GD32VW55x_RELEASE_V1.0.2/MSDK/cloud/alicloud/src/services/linkkit/dm\dm_msg_process.c **** 
 484:C:/Users/stapi/OneDrive/Desktop/GD32VW553/V1_MQTT_OK/GD32VW55X_Wifi_BLE_SDK/GD32VW55x_RELEASE_V1.0.2/MSDK/cloud/alicloud/src/services/linkkit/dm\dm_msg_process.c ****     /* Operation */
 485:C:/Users/stapi/OneDrive/Desktop/GD32VW553/V1_MQTT_OK/GD32VW55X_Wifi_BLE_SDK/GD32VW55x_RELEASE_V1.0.2/MSDK/cloud/alicloud/src/services/linkkit/dm\dm_msg_process.c ****     // if ((strlen("property") == eventid_end_pos - eventid_start_pos - 1) &&
 486:C:/Users/stapi/OneDrive/Desktop/GD32VW553/V1_MQTT_OK/GD32VW55X_Wifi_BLE_SDK/GD32VW55x_RELEASE_V1.0.2/MSDK/cloud/alicloud/src/services/linkkit/dm\dm_msg_process.c ****     //     (memcmp("property", source->uri + eventid_start_pos + 1, eventid_end_pos - eventid_start
 487:C:/Users/stapi/OneDrive/Desktop/GD32VW553/V1_MQTT_OK/GD32VW55X_Wifi_BLE_SDK/GD32VW55x_RELEASE_V1.0.2/MSDK/cloud/alicloud/src/services/linkkit/dm\dm_msg_process.c ****         dm_msg_thing_event_notify_reply(&response);
 488:C:/Users/stapi/OneDrive/Desktop/GD32VW553/V1_MQTT_OK/GD32VW55X_Wifi_BLE_SDK/GD32VW55x_RELEASE_V1.0.2/MSDK/cloud/alicloud/src/services/linkkit/dm\dm_msg_process.c ****     // } else {
 489:C:/Users/stapi/OneDrive/Desktop/GD32VW553/V1_MQTT_OK/GD32VW55X_Wifi_BLE_SDK/GD32VW55x_RELEASE_V1.0.2/MSDK/cloud/alicloud/src/services/linkkit/dm\dm_msg_process.c ****     //     dm_msg_thing_event_post_reply((char *)source->uri + eventid_start_pos + 1, eventid_end_p
 490:C:/Users/stapi/OneDrive/Desktop/GD32VW553/V1_MQTT_OK/GD32VW55X_Wifi_BLE_SDK/GD32VW55x_RELEASE_V1.0.2/MSDK/cloud/alicloud/src/services/linkkit/dm\dm_msg_process.c ****     //                                   &response);
 491:C:/Users/stapi/OneDrive/Desktop/GD32VW553/V1_MQTT_OK/GD32VW55X_Wifi_BLE_SDK/GD32VW55x_RELEASE_V1.0.2/MSDK/cloud/alicloud/src/services/linkkit/dm\dm_msg_process.c ****     // }
 492:C:/Users/stapi/OneDrive/Desktop/GD32VW553/V1_MQTT_OK/GD32VW55X_Wifi_BLE_SDK/GD32VW55x_RELEASE_V1.0.2/MSDK/cloud/alicloud/src/services/linkkit/dm\dm_msg_process.c **** 
 493:C:/Users/stapi/OneDrive/Desktop/GD32VW553/V1_MQTT_OK/GD32VW55X_Wifi_BLE_SDK/GD32VW55x_RELEASE_V1.0.2/MSDK/cloud/alicloud/src/services/linkkit/dm\dm_msg_process.c ****     /* Remove Message From Cache */
 494:C:/Users/stapi/OneDrive/Desktop/GD32VW553/V1_MQTT_OK/GD32VW55X_Wifi_BLE_SDK/GD32VW55x_RELEASE_V1.0.2/MSDK/cloud/alicloud/src/services/linkkit/dm\dm_msg_process.c **** #if !defined(DM_MESSAGE_CACHE_DISABLED)
 495:C:/Users/stapi/OneDrive/Desktop/GD32VW553/V1_MQTT_OK/GD32VW55X_Wifi_BLE_SDK/GD32VW55x_RELEASE_V1.0.2/MSDK/cloud/alicloud/src/services/linkkit/dm\dm_msg_process.c ****     char int_id[DM_UTILS_UINT32_STRLEN+1] = {0};
 496:C:/Users/stapi/OneDrive/Desktop/GD32VW553/V1_MQTT_OK/GD32VW55X_Wifi_BLE_SDK/GD32VW55x_RELEASE_V1.0.2/MSDK/cloud/alicloud/src/services/linkkit/dm\dm_msg_process.c ****     if (response.id.value_length > DM_UTILS_UINT32_STRLEN) {
 497:C:/Users/stapi/OneDrive/Desktop/GD32VW553/V1_MQTT_OK/GD32VW55X_Wifi_BLE_SDK/GD32VW55x_RELEASE_V1.0.2/MSDK/cloud/alicloud/src/services/linkkit/dm\dm_msg_process.c ****         return STATE_DEV_MODEL_WRONG_JSON_FORMAT;
 498:C:/Users/stapi/OneDrive/Desktop/GD32VW553/V1_MQTT_OK/GD32VW55X_Wifi_BLE_SDK/GD32VW55x_RELEASE_V1.0.2/MSDK/cloud/alicloud/src/services/linkkit/dm\dm_msg_process.c ****     }
 499:C:/Users/stapi/OneDrive/Desktop/GD32VW553/V1_MQTT_OK/GD32VW55X_Wifi_BLE_SDK/GD32VW55x_RELEASE_V1.0.2/MSDK/cloud/alicloud/src/services/linkkit/dm\dm_msg_process.c ****     memcpy(int_id, response.id.value, response.id.value_length);
 500:C:/Users/stapi/OneDrive/Desktop/GD32VW553/V1_MQTT_OK/GD32VW55X_Wifi_BLE_SDK/GD32VW55x_RELEASE_V1.0.2/MSDK/cloud/alicloud/src/services/linkkit/dm\dm_msg_process.c ****     dm_msg_cache_remove(atoi(int_id));
 501:C:/Users/stapi/OneDrive/Desktop/GD32VW553/V1_MQTT_OK/GD32VW55X_Wifi_BLE_SDK/GD32VW55x_RELEASE_V1.0.2/MSDK/cloud/alicloud/src/services/linkkit/dm\dm_msg_process.c **** #endif
 502:C:/Users/stapi/OneDrive/Desktop/GD32VW553/V1_MQTT_OK/GD32VW55X_Wifi_BLE_SDK/GD32VW55x_RELEASE_V1.0.2/MSDK/cloud/alicloud/src/services/linkkit/dm\dm_msg_process.c ****     return SUCCESS_RETURN;
 503:C:/Users/stapi/OneDrive/Desktop/GD32VW553/V1_MQTT_OK/GD32VW55X_Wifi_BLE_SDK/GD32VW55x_RELEASE_V1.0.2/MSDK/cloud/alicloud/src/services/linkkit/dm\dm_msg_process.c **** }
 1338              		.loc 1 503 1
 1339 0034 2285     		mv	a0,s0
 1340 0036 0D61     		addi	sp,sp,160
 1341              		.cfi_remember_state
 1342              		.cfi_def_cfa_offset 0
 1343 0038 17030000 		tail	__riscv_restore_2
 1343      67000300 
 1344              		.cfi_restore 9
 1345              		.cfi_restore 8
 1346              		.cfi_restore 1
 1347              		.cfi_def_cfa_offset -16
 1348              	.LVL168:
 1349              	.L52:
 1350              		.cfi_restore_state
 471:C:/Users/stapi/OneDrive/Desktop/GD32VW553/V1_MQTT_OK/GD32VW55X_Wifi_BLE_SDK/GD32VW55x_RELEASE_V1.0.2/MSDK/cloud/alicloud/src/services/linkkit/dm\dm_msg_process.c ****                           &eventid_end_pos);
 1351              		.loc 1 471 5 is_stmt 1
 471:C:/Users/stapi/OneDrive/Desktop/GD32VW553/V1_MQTT_OK/GD32VW55X_Wifi_BLE_SDK/GD32VW55x_RELEASE_V1.0.2/MSDK/cloud/alicloud/src/services/linkkit/dm\dm_msg_process.c ****                           &eventid_end_pos);
 1352              		.loc 1 471 41 is_stmt 0
 1353 0040 0440     		lw	s1,0(s0)
 471:C:/Users/stapi/OneDrive/Desktop/GD32VW553/V1_MQTT_OK/GD32VW55X_Wifi_BLE_SDK/GD32VW55x_RELEASE_V1.0.2/MSDK/cloud/alicloud/src/services/linkkit/dm\dm_msg_process.c ****                           &eventid_end_pos);
 1354              		.loc 1 471 48
 1355 0042 2685     		mv	a0,s1
 1356              	.LVL169:
 1357 0044 97000000 		call	strlen
 1357      E7800000 
 1358              	.LVL170:
 1359 004c AA85     		mv	a1,a0
 471:C:/Users/stapi/OneDrive/Desktop/GD32VW553/V1_MQTT_OK/GD32VW55X_Wifi_BLE_SDK/GD32VW55x_RELEASE_V1.0.2/MSDK/cloud/alicloud/src/services/linkkit/dm\dm_msg_process.c ****                           &eventid_end_pos);
 1360              		.loc 1 471 11
 1361 004e 1808     		addi	a4,sp,16
 1362 0050 9D46     		li	a3,7
 1363 0052 1306F002 		li	a2,47
 1364 0056 2685     		mv	a0,s1
 1365 0058 97000000 		call	dm_utils_memtok
 1365      E7800000 
 1366              	.LVL171:
 473:C:/Users/stapi/OneDrive/Desktop/GD32VW553/V1_MQTT_OK/GD32VW55X_Wifi_BLE_SDK/GD32VW55x_RELEASE_V1.0.2/MSDK/cloud/alicloud/src/services/linkkit/dm\dm_msg_process.c ****         return FAIL_RETURN;
 1367              		.loc 1 473 5 is_stmt 1
 473:C:/Users/stapi/OneDrive/Desktop/GD32VW553/V1_MQTT_OK/GD32VW55X_Wifi_BLE_SDK/GD32VW55x_RELEASE_V1.0.2/MSDK/cloud/alicloud/src/services/linkkit/dm\dm_msg_process.c ****         return FAIL_RETURN;
 1368              		.loc 1 473 8 is_stmt 0
 1369 0060 69F9     		bne	a0,zero,.L54
 476:C:/Users/stapi/OneDrive/Desktop/GD32VW553/V1_MQTT_OK/GD32VW55X_Wifi_BLE_SDK/GD32VW55x_RELEASE_V1.0.2/MSDK/cloud/alicloud/src/services/linkkit/dm\dm_msg_process.c **** 
 1370              		.loc 1 476 5 is_stmt 1
 476:C:/Users/stapi/OneDrive/Desktop/GD32VW553/V1_MQTT_OK/GD32VW55X_Wifi_BLE_SDK/GD32VW55x_RELEASE_V1.0.2/MSDK/cloud/alicloud/src/services/linkkit/dm\dm_msg_process.c **** 
 1371              		.loc 1 476 5
 1372 0062 37050000 		lui	a0,%hi(.LC0)
 1373              	.LVL172:
 1374 0066 13050500 		addi	a0,a0,%lo(.LC0)
 1375 006a 97000000 		call	HAL_Printf
 1375      E7800000 
 1376              	.LVL173:
 476:C:/Users/stapi/OneDrive/Desktop/GD32VW553/V1_MQTT_OK/GD32VW55X_Wifi_BLE_SDK/GD32VW55x_RELEASE_V1.0.2/MSDK/cloud/alicloud/src/services/linkkit/dm\dm_msg_process.c **** 
 1377              		.loc 1 476 5
 1378 0072 B247     		lw	a5,12(sp)
 1379 0074 C245     		lw	a1,16(sp)
 1380 0076 1040     		lw	a2,0(s0)
 1381 0078 13871700 		addi	a4,a5,1
 1382 007c 9D8D     		sub	a1,a1,a5
 1383 007e 37050000 		lui	a0,%hi(.LC5)
 1384 0082 3A96     		add	a2,a2,a4
 1385 0084 FD15     		addi	a1,a1,-1
 1386 0086 13050500 		addi	a0,a0,%lo(.LC5)
 1387 008a 97000000 		call	HAL_Printf
 1387      E7800000 
 1388              	.LVL174:
 476:C:/Users/stapi/OneDrive/Desktop/GD32VW553/V1_MQTT_OK/GD32VW55X_Wifi_BLE_SDK/GD32VW55x_RELEASE_V1.0.2/MSDK/cloud/alicloud/src/services/linkkit/dm\dm_msg_process.c **** 
 1389              		.loc 1 476 5
 1390 0092 37050000 		lui	a0,%hi(.LC1)
 1391 0096 13050500 		addi	a0,a0,%lo(.LC1)
 1392 009a 97000000 		call	HAL_Printf
 1392      E7800000 
 1393              	.LVL175:
 476:C:/Users/stapi/OneDrive/Desktop/GD32VW553/V1_MQTT_OK/GD32VW55X_Wifi_BLE_SDK/GD32VW55x_RELEASE_V1.0.2/MSDK/cloud/alicloud/src/services/linkkit/dm\dm_msg_process.c **** 
 1394              		.loc 1 476 5
 479:C:/Users/stapi/OneDrive/Desktop/GD32VW553/V1_MQTT_OK/GD32VW55X_Wifi_BLE_SDK/GD32VW55x_RELEASE_V1.0.2/MSDK/cloud/alicloud/src/services/linkkit/dm\dm_msg_process.c ****     if (res != SUCCESS_RETURN) {
 1395              		.loc 1 479 5
 479:C:/Users/stapi/OneDrive/Desktop/GD32VW553/V1_MQTT_OK/GD32VW55X_Wifi_BLE_SDK/GD32VW55x_RELEASE_V1.0.2/MSDK/cloud/alicloud/src/services/linkkit/dm\dm_msg_process.c ****     if (res != SUCCESS_RETURN) {
 1396              		.loc 1 479 11 is_stmt 0
 1397 00a2 0C44     		lw	a1,8(s0)
 1398 00a4 4840     		lw	a0,4(s0)
 1399 00a6 1010     		addi	a2,sp,32
 1400 00a8 97000000 		call	dm_msg_response_parse
 1400      E7800000 
 1401              	.LVL176:
 1402 00b0 2A84     		mv	s0,a0
 1403              	.LVL177:
 480:C:/Users/stapi/OneDrive/Desktop/GD32VW553/V1_MQTT_OK/GD32VW55X_Wifi_BLE_SDK/GD32VW55x_RELEASE_V1.0.2/MSDK/cloud/alicloud/src/services/linkkit/dm\dm_msg_process.c ****         return FAIL_RETURN;
 1404              		.loc 1 480 5 is_stmt 1
 480:C:/Users/stapi/OneDrive/Desktop/GD32VW553/V1_MQTT_OK/GD32VW55X_Wifi_BLE_SDK/GD32VW55x_RELEASE_V1.0.2/MSDK/cloud/alicloud/src/services/linkkit/dm\dm_msg_process.c ****         return FAIL_RETURN;
 1405              		.loc 1 480 8 is_stmt 0
 1406 00b2 41F1     		bne	a0,zero,.L54
 487:C:/Users/stapi/OneDrive/Desktop/GD32VW553/V1_MQTT_OK/GD32VW55X_Wifi_BLE_SDK/GD32VW55x_RELEASE_V1.0.2/MSDK/cloud/alicloud/src/services/linkkit/dm\dm_msg_process.c ****     // } else {
 1407              		.loc 1 487 9 is_stmt 1
 1408 00b4 0810     		addi	a0,sp,32
 1409 00b6 97000000 		call	dm_msg_thing_event_notify_reply
 1409      E7800000 
 1410              	.LVL178:
 495:C:/Users/stapi/OneDrive/Desktop/GD32VW553/V1_MQTT_OK/GD32VW55X_Wifi_BLE_SDK/GD32VW55x_RELEASE_V1.0.2/MSDK/cloud/alicloud/src/services/linkkit/dm\dm_msg_process.c ****     if (response.id.value_length > DM_UTILS_UINT32_STRLEN) {
 1411              		.loc 1 495 5
 496:C:/Users/stapi/OneDrive/Desktop/GD32VW553/V1_MQTT_OK/GD32VW55X_Wifi_BLE_SDK/GD32VW55x_RELEASE_V1.0.2/MSDK/cloud/alicloud/src/services/linkkit/dm\dm_msg_process.c ****         return STATE_DEV_MODEL_WRONG_JSON_FORMAT;
 1412              		.loc 1 496 20 is_stmt 0
 1413 00be 2256     		lw	a2,40(sp)
 495:C:/Users/stapi/OneDrive/Desktop/GD32VW553/V1_MQTT_OK/GD32VW55X_Wifi_BLE_SDK/GD32VW55x_RELEASE_V1.0.2/MSDK/cloud/alicloud/src/services/linkkit/dm\dm_msg_process.c ****     if (response.id.value_length > DM_UTILS_UINT32_STRLEN) {
 1414              		.loc 1 495 10
 1415 00c0 02CA     		sw	zero,20(sp)
 1416 00c2 02CC     		sw	zero,24(sp)
 1417 00c4 231E0100 		sh	zero,28(sp)
 1418 00c8 230F0100 		sb	zero,30(sp)
 496:C:/Users/stapi/OneDrive/Desktop/GD32VW553/V1_MQTT_OK/GD32VW55X_Wifi_BLE_SDK/GD32VW55x_RELEASE_V1.0.2/MSDK/cloud/alicloud/src/services/linkkit/dm\dm_msg_process.c ****         return STATE_DEV_MODEL_WRONG_JSON_FORMAT;
 1419              		.loc 1 496 5 is_stmt 1
 496:C:/Users/stapi/OneDrive/Desktop/GD32VW553/V1_MQTT_OK/GD32VW55X_Wifi_BLE_SDK/GD32VW55x_RELEASE_V1.0.2/MSDK/cloud/alicloud/src/services/linkkit/dm\dm_msg_process.c ****         return STATE_DEV_MODEL_WRONG_JSON_FORMAT;
 1420              		.loc 1 496 8 is_stmt 0
 1421 00cc A947     		li	a5,10
 1422 00ce 63C2C702 		bgt	a2,a5,.L55
 499:C:/Users/stapi/OneDrive/Desktop/GD32VW553/V1_MQTT_OK/GD32VW55X_Wifi_BLE_SDK/GD32VW55x_RELEASE_V1.0.2/MSDK/cloud/alicloud/src/services/linkkit/dm\dm_msg_process.c ****     dm_msg_cache_remove(atoi(int_id));
 1423              		.loc 1 499 5 is_stmt 1
 1424 00d2 9255     		lw	a1,36(sp)
 1425 00d4 4808     		addi	a0,sp,20
 1426 00d6 97000000 		call	memcpy
 1426      E7800000 
 1427              	.LVL179:
 500:C:/Users/stapi/OneDrive/Desktop/GD32VW553/V1_MQTT_OK/GD32VW55X_Wifi_BLE_SDK/GD32VW55x_RELEASE_V1.0.2/MSDK/cloud/alicloud/src/services/linkkit/dm\dm_msg_process.c **** #endif
 1428              		.loc 1 500 5
 1429 00de 4808     		addi	a0,sp,20
 1430 00e0 97000000 		call	atoi
 1430      E7800000 
 1431              	.LVL180:
 1432 00e8 97000000 		call	dm_msg_cache_remove
 1432      E7800000 
 1433              	.LVL181:
 502:C:/Users/stapi/OneDrive/Desktop/GD32VW553/V1_MQTT_OK/GD32VW55X_Wifi_BLE_SDK/GD32VW55x_RELEASE_V1.0.2/MSDK/cloud/alicloud/src/services/linkkit/dm\dm_msg_process.c **** }
 1434              		.loc 1 502 5
 502:C:/Users/stapi/OneDrive/Desktop/GD32VW553/V1_MQTT_OK/GD32VW55X_Wifi_BLE_SDK/GD32VW55x_RELEASE_V1.0.2/MSDK/cloud/alicloud/src/services/linkkit/dm\dm_msg_process.c **** }
 1435              		.loc 1 502 12 is_stmt 0
 1436 00f0 91B7     		j	.L51
 1437              	.L55:
 497:C:/Users/stapi/OneDrive/Desktop/GD32VW553/V1_MQTT_OK/GD32VW55X_Wifi_BLE_SDK/GD32VW55x_RELEASE_V1.0.2/MSDK/cloud/alicloud/src/services/linkkit/dm\dm_msg_process.c ****     }
 1438              		.loc 1 497 16
 1439 00f2 7D74     		li	s0,-4096
 1440              	.LVL182:
 1441 00f4 1304F46E 		addi	s0,s0,1775
 1442 00f8 35BF     		j	.L51
 1443              		.cfi_endproc
 1444              	.LFE29:
 1446              		.section	.text.dm_msg_proc_thing_event_notify,"ax",@progbits
 1447              		.align	1
 1448              		.globl	dm_msg_proc_thing_event_notify
 1450              	dm_msg_proc_thing_event_notify:
 1451              	.LFB30:
 504:C:/Users/stapi/OneDrive/Desktop/GD32VW553/V1_MQTT_OK/GD32VW55X_Wifi_BLE_SDK/GD32VW55x_RELEASE_V1.0.2/MSDK/cloud/alicloud/src/services/linkkit/dm\dm_msg_process.c **** 
 505:C:/Users/stapi/OneDrive/Desktop/GD32VW553/V1_MQTT_OK/GD32VW55X_Wifi_BLE_SDK/GD32VW55x_RELEASE_V1.0.2/MSDK/cloud/alicloud/src/services/linkkit/dm\dm_msg_process.c **** int dm_msg_proc_thing_event_notify(_IN_ dm_msg_source_t *source, _IN_ dm_msg_dest_t *dest,
 506:C:/Users/stapi/OneDrive/Desktop/GD32VW553/V1_MQTT_OK/GD32VW55X_Wifi_BLE_SDK/GD32VW55x_RELEASE_V1.0.2/MSDK/cloud/alicloud/src/services/linkkit/dm\dm_msg_process.c ****         _OU_ dm_msg_request_payload_t *request, _OU_ dm_msg_response_t *response)
 507:C:/Users/stapi/OneDrive/Desktop/GD32VW553/V1_MQTT_OK/GD32VW55X_Wifi_BLE_SDK/GD32VW55x_RELEASE_V1.0.2/MSDK/cloud/alicloud/src/services/linkkit/dm\dm_msg_process.c **** {
 1452              		.loc 1 507 1 is_stmt 1
 1453              		.cfi_startproc
 1454              	.LVL183:
 1455 0000 17030000 		call	t0,__riscv_save_5
 1455      E7020300 
 1456              		.cfi_offset 20, -24
 1457              		.cfi_offset 19, -20
 1458              		.cfi_offset 18, -16
 1459              		.cfi_offset 9, -12
 1460              		.cfi_offset 8, -8
 1461              		.cfi_offset 1, -4
 1462              		.cfi_def_cfa_offset 32
 508:C:/Users/stapi/OneDrive/Desktop/GD32VW553/V1_MQTT_OK/GD32VW55X_Wifi_BLE_SDK/GD32VW55x_RELEASE_V1.0.2/MSDK/cloud/alicloud/src/services/linkkit/dm\dm_msg_process.c ****     int res = 0, devid = 0;
 1463              		.loc 1 508 5
 1464              	.LVL184:
 507:C:/Users/stapi/OneDrive/Desktop/GD32VW553/V1_MQTT_OK/GD32VW55X_Wifi_BLE_SDK/GD32VW55x_RELEASE_V1.0.2/MSDK/cloud/alicloud/src/services/linkkit/dm\dm_msg_process.c ****     int res = 0, devid = 0;
 1465              		.loc 1 507 1 is_stmt 0
 1466 0008 3971     		addi	sp,sp,-64
 1467              		.cfi_def_cfa_offset 96
 507:C:/Users/stapi/OneDrive/Desktop/GD32VW553/V1_MQTT_OK/GD32VW55X_Wifi_BLE_SDK/GD32VW55x_RELEASE_V1.0.2/MSDK/cloud/alicloud/src/services/linkkit/dm\dm_msg_process.c ****     int res = 0, devid = 0;
 1468              		.loc 1 507 1
 1469 000a AA84     		mv	s1,a0
 1470 000c AE89     		mv	s3,a1
 1471 000e 3289     		mv	s2,a2
 509:C:/Users/stapi/OneDrive/Desktop/GD32VW553/V1_MQTT_OK/GD32VW55X_Wifi_BLE_SDK/GD32VW55x_RELEASE_V1.0.2/MSDK/cloud/alicloud/src/services/linkkit/dm\dm_msg_process.c ****     char product_key[PRODUCT_KEY_MAXLEN] = {0};
 510:C:/Users/stapi/OneDrive/Desktop/GD32VW553/V1_MQTT_OK/GD32VW55X_Wifi_BLE_SDK/GD32VW55x_RELEASE_V1.0.2/MSDK/cloud/alicloud/src/services/linkkit/dm\dm_msg_process.c ****     char device_name[DEVICE_NAME_MAXLEN] = {0};
 1472              		.loc 1 510 10
 1473 0010 8145     		li	a1,0
 1474              	.LVL185:
 1475 0012 7546     		li	a2,29
 1476              	.LVL186:
 1477 0014 0810     		addi	a0,sp,32
 1478              	.LVL187:
 507:C:/Users/stapi/OneDrive/Desktop/GD32VW553/V1_MQTT_OK/GD32VW55X_Wifi_BLE_SDK/GD32VW55x_RELEASE_V1.0.2/MSDK/cloud/alicloud/src/services/linkkit/dm\dm_msg_process.c ****     int res = 0, devid = 0;
 1479              		.loc 1 507 1
 1480 0016 3684     		mv	s0,a3
 508:C:/Users/stapi/OneDrive/Desktop/GD32VW553/V1_MQTT_OK/GD32VW55X_Wifi_BLE_SDK/GD32VW55x_RELEASE_V1.0.2/MSDK/cloud/alicloud/src/services/linkkit/dm\dm_msg_process.c ****     char product_key[PRODUCT_KEY_MAXLEN] = {0};
 1481              		.loc 1 508 18
 1482 0018 02C0     		sw	zero,0(sp)
 509:C:/Users/stapi/OneDrive/Desktop/GD32VW553/V1_MQTT_OK/GD32VW55X_Wifi_BLE_SDK/GD32VW55x_RELEASE_V1.0.2/MSDK/cloud/alicloud/src/services/linkkit/dm\dm_msg_process.c ****     char product_key[PRODUCT_KEY_MAXLEN] = {0};
 1483              		.loc 1 509 5 is_stmt 1
 509:C:/Users/stapi/OneDrive/Desktop/GD32VW553/V1_MQTT_OK/GD32VW55X_Wifi_BLE_SDK/GD32VW55x_RELEASE_V1.0.2/MSDK/cloud/alicloud/src/services/linkkit/dm\dm_msg_process.c ****     char product_key[PRODUCT_KEY_MAXLEN] = {0};
 1484              		.loc 1 509 10 is_stmt 0
 1485 001a 02C2     		sw	zero,4(sp)
 1486 001c 02C4     		sw	zero,8(sp)
 1487 001e 02C6     		sw	zero,12(sp)
 1488 0020 02C8     		sw	zero,16(sp)
 1489 0022 02CA     		sw	zero,20(sp)
 1490 0024 230C0100 		sb	zero,24(sp)
 1491              		.loc 1 510 5 is_stmt 1
 1492              		.loc 1 510 10 is_stmt 0
 1493 0028 02CE     		sw	zero,28(sp)
 1494 002a 97000000 		call	memset
 1494      E7800000 
 1495              	.LVL188:
 511:C:/Users/stapi/OneDrive/Desktop/GD32VW553/V1_MQTT_OK/GD32VW55X_Wifi_BLE_SDK/GD32VW55x_RELEASE_V1.0.2/MSDK/cloud/alicloud/src/services/linkkit/dm\dm_msg_process.c **** 
 512:C:/Users/stapi/OneDrive/Desktop/GD32VW553/V1_MQTT_OK/GD32VW55X_Wifi_BLE_SDK/GD32VW55x_RELEASE_V1.0.2/MSDK/cloud/alicloud/src/services/linkkit/dm\dm_msg_process.c ****     dm_log_info(DM_URI_THING_EVENT_NOTIFY);
 1496              		.loc 1 512 5 is_stmt 1
 1497              		.loc 1 512 5
 1498 0032 37050000 		lui	a0,%hi(.LC0)
 1499 0036 13050500 		addi	a0,a0,%lo(.LC0)
 1500 003a 97000000 		call	HAL_Printf
 1500      E7800000 
 1501              	.LVL189:
 1502              		.loc 1 512 5
 1503 0042 37050000 		lui	a0,%hi(.LANCHOR8)
 1504 0046 13050500 		addi	a0,a0,%lo(.LANCHOR8)
 1505 004a 97000000 		call	HAL_Printf
 1505      E7800000 
 1506              	.LVL190:
 1507              		.loc 1 512 5
 1508 0052 37050000 		lui	a0,%hi(.LC1)
 1509 0056 13050500 		addi	a0,a0,%lo(.LC1)
 1510 005a 97000000 		call	HAL_Printf
 1510      E7800000 
 1511              	.LVL191:
 1512              		.loc 1 512 5
 513:C:/Users/stapi/OneDrive/Desktop/GD32VW553/V1_MQTT_OK/GD32VW55X_Wifi_BLE_SDK/GD32VW55x_RELEASE_V1.0.2/MSDK/cloud/alicloud/src/services/linkkit/dm\dm_msg_process.c **** 
 514:C:/Users/stapi/OneDrive/Desktop/GD32VW553/V1_MQTT_OK/GD32VW55X_Wifi_BLE_SDK/GD32VW55x_RELEASE_V1.0.2/MSDK/cloud/alicloud/src/services/linkkit/dm\dm_msg_process.c ****     /* Request */
 515:C:/Users/stapi/OneDrive/Desktop/GD32VW553/V1_MQTT_OK/GD32VW55X_Wifi_BLE_SDK/GD32VW55x_RELEASE_V1.0.2/MSDK/cloud/alicloud/src/services/linkkit/dm\dm_msg_process.c ****     res = dm_msg_uri_parse_pkdn((char *)source->uri, strlen(source->uri), 2 + DM_URI_OFFSET, 4 + DM
 1513              		.loc 1 515 5
 1514              		.loc 1 515 47 is_stmt 0
 1515 0062 03AA0400 		lw	s4,0(s1)
 1516              		.loc 1 515 54
 1517 0066 5285     		mv	a0,s4
 1518 0068 97000000 		call	strlen
 1518      E7800000 
 1519              	.LVL192:
 1520 0070 AA85     		mv	a1,a0
 1521              		.loc 1 515 11
 1522 0072 7C08     		addi	a5,sp,28
 1523 0074 5800     		addi	a4,sp,4
 1524 0076 9146     		li	a3,4
 1525 0078 0946     		li	a2,2
 1526 007a 5285     		mv	a0,s4
 1527 007c 97000000 		call	dm_msg_uri_parse_pkdn
 1527      E7800000 
 1528              	.LVL193:
 516:C:/Users/stapi/OneDrive/Desktop/GD32VW553/V1_MQTT_OK/GD32VW55X_Wifi_BLE_SDK/GD32VW55x_RELEASE_V1.0.2/MSDK/cloud/alicloud/src/services/linkkit/dm\dm_msg_process.c ****                                 device_name);
 517:C:/Users/stapi/OneDrive/Desktop/GD32VW553/V1_MQTT_OK/GD32VW55X_Wifi_BLE_SDK/GD32VW55x_RELEASE_V1.0.2/MSDK/cloud/alicloud/src/services/linkkit/dm\dm_msg_process.c ****     if (res < SUCCESS_RETURN) {
 1529              		.loc 1 517 5 is_stmt 1
 1530              		.loc 1 517 8 is_stmt 0
 1531 0084 63440508 		blt	a0,zero,.L57
 518:C:/Users/stapi/OneDrive/Desktop/GD32VW553/V1_MQTT_OK/GD32VW55X_Wifi_BLE_SDK/GD32VW55x_RELEASE_V1.0.2/MSDK/cloud/alicloud/src/services/linkkit/dm\dm_msg_process.c ****         return res;
 519:C:/Users/stapi/OneDrive/Desktop/GD32VW553/V1_MQTT_OK/GD32VW55X_Wifi_BLE_SDK/GD32VW55x_RELEASE_V1.0.2/MSDK/cloud/alicloud/src/services/linkkit/dm\dm_msg_process.c ****     }
 520:C:/Users/stapi/OneDrive/Desktop/GD32VW553/V1_MQTT_OK/GD32VW55X_Wifi_BLE_SDK/GD32VW55x_RELEASE_V1.0.2/MSDK/cloud/alicloud/src/services/linkkit/dm\dm_msg_process.c **** 
 521:C:/Users/stapi/OneDrive/Desktop/GD32VW553/V1_MQTT_OK/GD32VW55X_Wifi_BLE_SDK/GD32VW55x_RELEASE_V1.0.2/MSDK/cloud/alicloud/src/services/linkkit/dm\dm_msg_process.c ****     res = dm_mgr_search_device_by_pkdn(product_key, device_name, &devid);
 1532              		.loc 1 521 5 is_stmt 1
 1533              		.loc 1 521 11 is_stmt 0
 1534 0088 0A86     		mv	a2,sp
 1535 008a 6C08     		addi	a1,sp,28
 1536 008c 4800     		addi	a0,sp,4
 1537              	.LVL194:
 1538 008e 97000000 		call	dm_mgr_search_device_by_pkdn
 1538      E7800000 
 1539              	.LVL195:
 522:C:/Users/stapi/OneDrive/Desktop/GD32VW553/V1_MQTT_OK/GD32VW55X_Wifi_BLE_SDK/GD32VW55x_RELEASE_V1.0.2/MSDK/cloud/alicloud/src/services/linkkit/dm\dm_msg_process.c ****     if (res < SUCCESS_RETURN) {
 1540              		.loc 1 522 5 is_stmt 1
 1541              		.loc 1 522 8 is_stmt 0
 1542 0096 634B0506 		blt	a0,zero,.L57
 523:C:/Users/stapi/OneDrive/Desktop/GD32VW553/V1_MQTT_OK/GD32VW55X_Wifi_BLE_SDK/GD32VW55x_RELEASE_V1.0.2/MSDK/cloud/alicloud/src/services/linkkit/dm\dm_msg_process.c ****         return res;
 524:C:/Users/stapi/OneDrive/Desktop/GD32VW553/V1_MQTT_OK/GD32VW55X_Wifi_BLE_SDK/GD32VW55x_RELEASE_V1.0.2/MSDK/cloud/alicloud/src/services/linkkit/dm\dm_msg_process.c ****     }
 525:C:/Users/stapi/OneDrive/Desktop/GD32VW553/V1_MQTT_OK/GD32VW55X_Wifi_BLE_SDK/GD32VW55x_RELEASE_V1.0.2/MSDK/cloud/alicloud/src/services/linkkit/dm\dm_msg_process.c **** 
 526:C:/Users/stapi/OneDrive/Desktop/GD32VW553/V1_MQTT_OK/GD32VW55X_Wifi_BLE_SDK/GD32VW55x_RELEASE_V1.0.2/MSDK/cloud/alicloud/src/services/linkkit/dm\dm_msg_process.c ****     res = dm_msg_request_parse((char *)source->payload, source->payload_len, request);
 1543              		.loc 1 526 5 is_stmt 1
 1544              		.loc 1 526 11 is_stmt 0
 1545 009a 8C44     		lw	a1,8(s1)
 1546 009c C840     		lw	a0,4(s1)
 1547              	.LVL196:
 1548 009e 4A86     		mv	a2,s2
 1549 00a0 97000000 		call	dm_msg_request_parse
 1549      E7800000 
 1550              	.LVL197:
 527:C:/Users/stapi/OneDrive/Desktop/GD32VW553/V1_MQTT_OK/GD32VW55X_Wifi_BLE_SDK/GD32VW55x_RELEASE_V1.0.2/MSDK/cloud/alicloud/src/services/linkkit/dm\dm_msg_process.c ****     if (res < SUCCESS_RETURN) {
 1551              		.loc 1 527 5 is_stmt 1
 1552              		.loc 1 527 8 is_stmt 0
 1553 00a8 63420506 		blt	a0,zero,.L57
 528:C:/Users/stapi/OneDrive/Desktop/GD32VW553/V1_MQTT_OK/GD32VW55X_Wifi_BLE_SDK/GD32VW55x_RELEASE_V1.0.2/MSDK/cloud/alicloud/src/services/linkkit/dm\dm_msg_process.c ****         return res ;
 529:C:/Users/stapi/OneDrive/Desktop/GD32VW553/V1_MQTT_OK/GD32VW55X_Wifi_BLE_SDK/GD32VW55x_RELEASE_V1.0.2/MSDK/cloud/alicloud/src/services/linkkit/dm\dm_msg_process.c ****     }
 530:C:/Users/stapi/OneDrive/Desktop/GD32VW553/V1_MQTT_OK/GD32VW55X_Wifi_BLE_SDK/GD32VW55x_RELEASE_V1.0.2/MSDK/cloud/alicloud/src/services/linkkit/dm\dm_msg_process.c **** 
 531:C:/Users/stapi/OneDrive/Desktop/GD32VW553/V1_MQTT_OK/GD32VW55X_Wifi_BLE_SDK/GD32VW55x_RELEASE_V1.0.2/MSDK/cloud/alicloud/src/services/linkkit/dm\dm_msg_process.c ****     /* Operation */
 532:C:/Users/stapi/OneDrive/Desktop/GD32VW553/V1_MQTT_OK/GD32VW55X_Wifi_BLE_SDK/GD32VW55x_RELEASE_V1.0.2/MSDK/cloud/alicloud/src/services/linkkit/dm\dm_msg_process.c ****     res = dm_msg_thing_event_notify(devid, request);
 1554              		.loc 1 532 5 is_stmt 1
 1555              		.loc 1 532 11 is_stmt 0
 1556 00ac 0245     		lw	a0,0(sp)
 1557              	.LVL198:
 1558 00ae CA85     		mv	a1,s2
 1559 00b0 97000000 		call	dm_msg_thing_event_notify
 1559      E7800000 
 1560              	.LVL199:
 533:C:/Users/stapi/OneDrive/Desktop/GD32VW553/V1_MQTT_OK/GD32VW55X_Wifi_BLE_SDK/GD32VW55x_RELEASE_V1.0.2/MSDK/cloud/alicloud/src/services/linkkit/dm\dm_msg_process.c **** 
 534:C:/Users/stapi/OneDrive/Desktop/GD32VW553/V1_MQTT_OK/GD32VW55X_Wifi_BLE_SDK/GD32VW55x_RELEASE_V1.0.2/MSDK/cloud/alicloud/src/services/linkkit/dm\dm_msg_process.c ****     /* Response */
 535:C:/Users/stapi/OneDrive/Desktop/GD32VW553/V1_MQTT_OK/GD32VW55X_Wifi_BLE_SDK/GD32VW55x_RELEASE_V1.0.2/MSDK/cloud/alicloud/src/services/linkkit/dm\dm_msg_process.c ****     response->service_prefix = DM_URI_SYS_PREFIX;
 1561              		.loc 1 535 30
 1562 00b8 B7070000 		lui	a5,%hi(.LANCHOR2)
 1563 00bc 93870700 		addi	a5,a5,%lo(.LANCHOR2)
 1564 00c0 1CC0     		sw	a5,0(s0)
 536:C:/Users/stapi/OneDrive/Desktop/GD32VW553/V1_MQTT_OK/GD32VW55X_Wifi_BLE_SDK/GD32VW55x_RELEASE_V1.0.2/MSDK/cloud/alicloud/src/services/linkkit/dm\dm_msg_process.c ****     response->service_name = dest->uri_name;
 1565              		.loc 1 536 28
 1566 00c2 83A70900 		lw	a5,0(s3)
 532:C:/Users/stapi/OneDrive/Desktop/GD32VW553/V1_MQTT_OK/GD32VW55X_Wifi_BLE_SDK/GD32VW55x_RELEASE_V1.0.2/MSDK/cloud/alicloud/src/services/linkkit/dm\dm_msg_process.c **** 
 1567              		.loc 1 532 11
 1568 00c6 AA84     		mv	s1,a0
 1569              	.LVL200:
 535:C:/Users/stapi/OneDrive/Desktop/GD32VW553/V1_MQTT_OK/GD32VW55X_Wifi_BLE_SDK/GD32VW55x_RELEASE_V1.0.2/MSDK/cloud/alicloud/src/services/linkkit/dm\dm_msg_process.c ****     response->service_name = dest->uri_name;
 1570              		.loc 1 535 5 is_stmt 1
 1571              		.loc 1 536 5
 537:C:/Users/stapi/OneDrive/Desktop/GD32VW553/V1_MQTT_OK/GD32VW55X_Wifi_BLE_SDK/GD32VW55x_RELEASE_V1.0.2/MSDK/cloud/alicloud/src/services/linkkit/dm\dm_msg_process.c ****     memcpy(response->product_key, product_key, strlen(product_key));
 1572              		.loc 1 537 5 is_stmt 0
 1573 00c8 4800     		addi	a0,sp,4
 536:C:/Users/stapi/OneDrive/Desktop/GD32VW553/V1_MQTT_OK/GD32VW55X_Wifi_BLE_SDK/GD32VW55x_RELEASE_V1.0.2/MSDK/cloud/alicloud/src/services/linkkit/dm\dm_msg_process.c ****     memcpy(response->product_key, product_key, strlen(product_key));
 1574              		.loc 1 536 28
 1575 00ca 5CC0     		sw	a5,4(s0)
 1576              		.loc 1 537 5 is_stmt 1
 1577 00cc 97000000 		call	strlen
 1577      E7800000 
 1578              	.LVL201:
 1579 00d4 2A86     		mv	a2,a0
 1580 00d6 4C00     		addi	a1,sp,4
 1581 00d8 13058400 		addi	a0,s0,8
 1582 00dc 97000000 		call	memcpy
 1582      E7800000 
 1583              	.LVL202:
 538:C:/Users/stapi/OneDrive/Desktop/GD32VW553/V1_MQTT_OK/GD32VW55X_Wifi_BLE_SDK/GD32VW55x_RELEASE_V1.0.2/MSDK/cloud/alicloud/src/services/linkkit/dm\dm_msg_process.c ****     memcpy(response->device_name, device_name, strlen(device_name));
 1584              		.loc 1 538 5
 1585 00e4 6808     		addi	a0,sp,28
 1586 00e6 97000000 		call	strlen
 1586      E7800000 
 1587              	.LVL203:
 1588 00ee 2A86     		mv	a2,a0
 1589 00f0 6C08     		addi	a1,sp,28
 1590 00f2 1305D401 		addi	a0,s0,29
 1591 00f6 97000000 		call	memcpy
 1591      E7800000 
 1592              	.LVL204:
 539:C:/Users/stapi/OneDrive/Desktop/GD32VW553/V1_MQTT_OK/GD32VW55X_Wifi_BLE_SDK/GD32VW55x_RELEASE_V1.0.2/MSDK/cloud/alicloud/src/services/linkkit/dm\dm_msg_process.c ****     response->code = (res == SUCCESS_RETURN) ? (IOTX_DM_ERR_CODE_SUCCESS) : (IOTX_DM_ERR_CODE_REQUE
 1593              		.loc 1 539 5
 1594              		.loc 1 539 75 is_stmt 0
 1595 00fe 9307800C 		li	a5,200
 1596 0102 99C0     		beq	s1,zero,.L59
 1597 0104 93070019 		li	a5,400
 1598              	.L59:
 1599              		.loc 1 539 20 discriminator 4
 1600 0108 3CC0     		sw	a5,64(s0)
 540:C:/Users/stapi/OneDrive/Desktop/GD32VW553/V1_MQTT_OK/GD32VW55X_Wifi_BLE_SDK/GD32VW55x_RELEASE_V1.0.2/MSDK/cloud/alicloud/src/services/linkkit/dm\dm_msg_process.c **** 
 541:C:/Users/stapi/OneDrive/Desktop/GD32VW553/V1_MQTT_OK/GD32VW55X_Wifi_BLE_SDK/GD32VW55x_RELEASE_V1.0.2/MSDK/cloud/alicloud/src/services/linkkit/dm\dm_msg_process.c ****     return SUCCESS_RETURN;
 1601              		.loc 1 541 5 is_stmt 1 discriminator 4
 1602              		.loc 1 541 12 is_stmt 0 discriminator 4
 1603 010a 0145     		li	a0,0
 1604              	.LVL205:
 1605              	.L57:
 542:C:/Users/stapi/OneDrive/Desktop/GD32VW553/V1_MQTT_OK/GD32VW55X_Wifi_BLE_SDK/GD32VW55x_RELEASE_V1.0.2/MSDK/cloud/alicloud/src/services/linkkit/dm\dm_msg_process.c **** }
 1606              		.loc 1 542 1
 1607 010c 2161     		addi	sp,sp,64
 1608              		.cfi_def_cfa_offset 0
 1609 010e 17030000 		tail	__riscv_restore_5
 1609      67000300 
 1610              		.cfi_restore 20
 1611              		.cfi_restore 19
 1612              		.cfi_restore 18
 1613              		.cfi_restore 9
 1614              		.cfi_restore 8
 1615              		.cfi_restore 1
 1616              		.cfi_def_cfa_offset -32
 1617              		.cfi_endproc
 1618              	.LFE30:
 1620              		.section	.rodata.dm_msg_proc_rrpc_request.str1.4,"aMS",@progbits,1
 1621              		.align	2
 1622              	.LC8:
 1623 0000 52727063 		.string	"Rrpc Id: %.*s"
 1623      2049643A 
 1623      20252E2A 
 1623      7300
 1624              		.section	.text.dm_msg_proc_rrpc_request,"ax",@progbits
 1625              		.align	1
 1626              		.globl	dm_msg_proc_rrpc_request
 1628              	dm_msg_proc_rrpc_request:
 1629              	.LFB31:
 543:C:/Users/stapi/OneDrive/Desktop/GD32VW553/V1_MQTT_OK/GD32VW55X_Wifi_BLE_SDK/GD32VW55x_RELEASE_V1.0.2/MSDK/cloud/alicloud/src/services/linkkit/dm\dm_msg_process.c **** 
 544:C:/Users/stapi/OneDrive/Desktop/GD32VW553/V1_MQTT_OK/GD32VW55X_Wifi_BLE_SDK/GD32VW55x_RELEASE_V1.0.2/MSDK/cloud/alicloud/src/services/linkkit/dm\dm_msg_process.c **** int dm_msg_proc_rrpc_request(_IN_ dm_msg_source_t *source)
 545:C:/Users/stapi/OneDrive/Desktop/GD32VW553/V1_MQTT_OK/GD32VW55X_Wifi_BLE_SDK/GD32VW55x_RELEASE_V1.0.2/MSDK/cloud/alicloud/src/services/linkkit/dm\dm_msg_process.c **** {
 1630              		.loc 1 545 1 is_stmt 1
 1631              		.cfi_startproc
 1632              	.LVL206:
 1633 0000 17030000 		call	t0,__riscv_save_2
 1633      E7020300 
 1634              		.cfi_offset 9, -12
 1635              		.cfi_offset 8, -8
 1636              		.cfi_offset 1, -4
 1637              		.cfi_def_cfa_offset 16
 546:C:/Users/stapi/OneDrive/Desktop/GD32VW553/V1_MQTT_OK/GD32VW55X_Wifi_BLE_SDK/GD32VW55x_RELEASE_V1.0.2/MSDK/cloud/alicloud/src/services/linkkit/dm\dm_msg_process.c ****     int res = 0, rrpcid_pos = 0;
 1638              		.loc 1 546 5
 1639              	.LVL207:
 545:C:/Users/stapi/OneDrive/Desktop/GD32VW553/V1_MQTT_OK/GD32VW55X_Wifi_BLE_SDK/GD32VW55x_RELEASE_V1.0.2/MSDK/cloud/alicloud/src/services/linkkit/dm\dm_msg_process.c ****     int res = 0, rrpcid_pos = 0;
 1640              		.loc 1 545 1 is_stmt 0
 1641 0008 3171     		addi	sp,sp,-192
 1642              		.cfi_def_cfa_offset 208
 545:C:/Users/stapi/OneDrive/Desktop/GD32VW553/V1_MQTT_OK/GD32VW55X_Wifi_BLE_SDK/GD32VW55x_RELEASE_V1.0.2/MSDK/cloud/alicloud/src/services/linkkit/dm\dm_msg_process.c ****     int res = 0, rrpcid_pos = 0;
 1643              		.loc 1 545 1
 1644 000a 2A84     		mv	s0,a0
 547:C:/Users/stapi/OneDrive/Desktop/GD32VW553/V1_MQTT_OK/GD32VW55X_Wifi_BLE_SDK/GD32VW55x_RELEASE_V1.0.2/MSDK/cloud/alicloud/src/services/linkkit/dm\dm_msg_process.c ****     char product_key[PRODUCT_KEY_MAXLEN] = {0};
 548:C:/Users/stapi/OneDrive/Desktop/GD32VW553/V1_MQTT_OK/GD32VW55X_Wifi_BLE_SDK/GD32VW55x_RELEASE_V1.0.2/MSDK/cloud/alicloud/src/services/linkkit/dm\dm_msg_process.c ****     char device_name[DEVICE_NAME_MAXLEN] = {0};
 1645              		.loc 1 548 10
 1646 000c 7546     		li	a2,29
 1647 000e 8145     		li	a1,0
 1648 0010 0810     		addi	a0,sp,32
 1649              	.LVL208:
 546:C:/Users/stapi/OneDrive/Desktop/GD32VW553/V1_MQTT_OK/GD32VW55X_Wifi_BLE_SDK/GD32VW55x_RELEASE_V1.0.2/MSDK/cloud/alicloud/src/services/linkkit/dm\dm_msg_process.c ****     char product_key[PRODUCT_KEY_MAXLEN] = {0};
 1650              		.loc 1 546 18
 1651 0012 02C0     		sw	zero,0(sp)
 547:C:/Users/stapi/OneDrive/Desktop/GD32VW553/V1_MQTT_OK/GD32VW55X_Wifi_BLE_SDK/GD32VW55x_RELEASE_V1.0.2/MSDK/cloud/alicloud/src/services/linkkit/dm\dm_msg_process.c ****     char product_key[PRODUCT_KEY_MAXLEN] = {0};
 1652              		.loc 1 547 5 is_stmt 1
 547:C:/Users/stapi/OneDrive/Desktop/GD32VW553/V1_MQTT_OK/GD32VW55X_Wifi_BLE_SDK/GD32VW55x_RELEASE_V1.0.2/MSDK/cloud/alicloud/src/services/linkkit/dm\dm_msg_process.c ****     char product_key[PRODUCT_KEY_MAXLEN] = {0};
 1653              		.loc 1 547 10 is_stmt 0
 1654 0014 02C2     		sw	zero,4(sp)
 1655 0016 02C4     		sw	zero,8(sp)
 1656 0018 02C6     		sw	zero,12(sp)
 1657 001a 02C8     		sw	zero,16(sp)
 1658 001c 02CA     		sw	zero,20(sp)
 1659 001e 230C0100 		sb	zero,24(sp)
 1660              		.loc 1 548 5 is_stmt 1
 1661              		.loc 1 548 10 is_stmt 0
 1662 0022 02CE     		sw	zero,28(sp)
 1663 0024 97000000 		call	memset
 1663      E7800000 
 1664              	.LVL209:
 549:C:/Users/stapi/OneDrive/Desktop/GD32VW553/V1_MQTT_OK/GD32VW55X_Wifi_BLE_SDK/GD32VW55x_RELEASE_V1.0.2/MSDK/cloud/alicloud/src/services/linkkit/dm\dm_msg_process.c ****     dm_msg_request_payload_t request;
 1665              		.loc 1 549 5 is_stmt 1
 550:C:/Users/stapi/OneDrive/Desktop/GD32VW553/V1_MQTT_OK/GD32VW55X_Wifi_BLE_SDK/GD32VW55x_RELEASE_V1.0.2/MSDK/cloud/alicloud/src/services/linkkit/dm\dm_msg_process.c **** 
 551:C:/Users/stapi/OneDrive/Desktop/GD32VW553/V1_MQTT_OK/GD32VW55X_Wifi_BLE_SDK/GD32VW55x_RELEASE_V1.0.2/MSDK/cloud/alicloud/src/services/linkkit/dm\dm_msg_process.c ****     memset(&request, 0, sizeof(dm_msg_request_payload_t));
 1666              		.loc 1 551 5
 1667 002c 13060008 		li	a2,128
 1668 0030 8145     		li	a1,0
 1669 0032 8800     		addi	a0,sp,64
 1670 0034 97000000 		call	memset
 1670      E7800000 
 1671              	.LVL210:
 552:C:/Users/stapi/OneDrive/Desktop/GD32VW553/V1_MQTT_OK/GD32VW55X_Wifi_BLE_SDK/GD32VW55x_RELEASE_V1.0.2/MSDK/cloud/alicloud/src/services/linkkit/dm\dm_msg_process.c **** 
 553:C:/Users/stapi/OneDrive/Desktop/GD32VW553/V1_MQTT_OK/GD32VW55X_Wifi_BLE_SDK/GD32VW55x_RELEASE_V1.0.2/MSDK/cloud/alicloud/src/services/linkkit/dm\dm_msg_process.c ****     res = dm_utils_memtok((char *)source->uri, strlen(source->uri), DM_URI_SERVICE_DELIMITER, 6, &r
 1672              		.loc 1 553 5
 1673              		.loc 1 553 41 is_stmt 0
 1674 003c 0440     		lw	s1,0(s0)
 1675              		.loc 1 553 48
 1676 003e 2685     		mv	a0,s1
 1677 0040 97000000 		call	strlen
 1677      E7800000 
 1678              	.LVL211:
 1679 0048 AA85     		mv	a1,a0
 1680              		.loc 1 553 11
 1681 004a 0A87     		mv	a4,sp
 1682 004c 9946     		li	a3,6
 1683 004e 1306F002 		li	a2,47
 1684 0052 2685     		mv	a0,s1
 1685 0054 97000000 		call	dm_utils_memtok
 1685      E7800000 
 1686              	.LVL212:
 554:C:/Users/stapi/OneDrive/Desktop/GD32VW553/V1_MQTT_OK/GD32VW55X_Wifi_BLE_SDK/GD32VW55x_RELEASE_V1.0.2/MSDK/cloud/alicloud/src/services/linkkit/dm\dm_msg_process.c ****     if (res != SUCCESS_RETURN) {
 1687              		.loc 1 554 5 is_stmt 1
 1688              		.loc 1 554 8 is_stmt 0
 1689 005c 19C5     		beq	a0,zero,.L64
 1690              	.L66:
 555:C:/Users/stapi/OneDrive/Desktop/GD32VW553/V1_MQTT_OK/GD32VW55X_Wifi_BLE_SDK/GD32VW55x_RELEASE_V1.0.2/MSDK/cloud/alicloud/src/services/linkkit/dm\dm_msg_process.c ****         return FAIL_RETURN;
 1691              		.loc 1 555 16
 1692 005e 7D55     		li	a0,-1
 1693              	.LVL213:
 1694              	.L63:
 556:C:/Users/stapi/OneDrive/Desktop/GD32VW553/V1_MQTT_OK/GD32VW55X_Wifi_BLE_SDK/GD32VW55x_RELEASE_V1.0.2/MSDK/cloud/alicloud/src/services/linkkit/dm\dm_msg_process.c ****     }
 557:C:/Users/stapi/OneDrive/Desktop/GD32VW553/V1_MQTT_OK/GD32VW55X_Wifi_BLE_SDK/GD32VW55x_RELEASE_V1.0.2/MSDK/cloud/alicloud/src/services/linkkit/dm\dm_msg_process.c ****     dm_log_info("Rrpc Id: %.*s", strlen(source->uri) - rrpcid_pos - 1, source->uri + rrpcid_pos + 1
 558:C:/Users/stapi/OneDrive/Desktop/GD32VW553/V1_MQTT_OK/GD32VW55X_Wifi_BLE_SDK/GD32VW55x_RELEASE_V1.0.2/MSDK/cloud/alicloud/src/services/linkkit/dm\dm_msg_process.c **** 
 559:C:/Users/stapi/OneDrive/Desktop/GD32VW553/V1_MQTT_OK/GD32VW55X_Wifi_BLE_SDK/GD32VW55x_RELEASE_V1.0.2/MSDK/cloud/alicloud/src/services/linkkit/dm\dm_msg_process.c ****     /* Parse Product Key And Device Name */
 560:C:/Users/stapi/OneDrive/Desktop/GD32VW553/V1_MQTT_OK/GD32VW55X_Wifi_BLE_SDK/GD32VW55x_RELEASE_V1.0.2/MSDK/cloud/alicloud/src/services/linkkit/dm\dm_msg_process.c ****     res = dm_msg_uri_parse_pkdn((char *)source->uri, strlen(source->uri), 2 + DM_URI_OFFSET, 4 + DM
 561:C:/Users/stapi/OneDrive/Desktop/GD32VW553/V1_MQTT_OK/GD32VW55X_Wifi_BLE_SDK/GD32VW55x_RELEASE_V1.0.2/MSDK/cloud/alicloud/src/services/linkkit/dm\dm_msg_process.c ****                                 device_name);
 562:C:/Users/stapi/OneDrive/Desktop/GD32VW553/V1_MQTT_OK/GD32VW55X_Wifi_BLE_SDK/GD32VW55x_RELEASE_V1.0.2/MSDK/cloud/alicloud/src/services/linkkit/dm\dm_msg_process.c ****     if (res != SUCCESS_RETURN) {
 563:C:/Users/stapi/OneDrive/Desktop/GD32VW553/V1_MQTT_OK/GD32VW55X_Wifi_BLE_SDK/GD32VW55x_RELEASE_V1.0.2/MSDK/cloud/alicloud/src/services/linkkit/dm\dm_msg_process.c ****         return FAIL_RETURN;
 564:C:/Users/stapi/OneDrive/Desktop/GD32VW553/V1_MQTT_OK/GD32VW55X_Wifi_BLE_SDK/GD32VW55x_RELEASE_V1.0.2/MSDK/cloud/alicloud/src/services/linkkit/dm\dm_msg_process.c ****     }
 565:C:/Users/stapi/OneDrive/Desktop/GD32VW553/V1_MQTT_OK/GD32VW55X_Wifi_BLE_SDK/GD32VW55x_RELEASE_V1.0.2/MSDK/cloud/alicloud/src/services/linkkit/dm\dm_msg_process.c **** 
 566:C:/Users/stapi/OneDrive/Desktop/GD32VW553/V1_MQTT_OK/GD32VW55X_Wifi_BLE_SDK/GD32VW55x_RELEASE_V1.0.2/MSDK/cloud/alicloud/src/services/linkkit/dm\dm_msg_process.c ****     /* Request */
 567:C:/Users/stapi/OneDrive/Desktop/GD32VW553/V1_MQTT_OK/GD32VW55X_Wifi_BLE_SDK/GD32VW55x_RELEASE_V1.0.2/MSDK/cloud/alicloud/src/services/linkkit/dm\dm_msg_process.c ****     res = dm_msg_request_parse((char *)source->payload, source->payload_len, &request);
 568:C:/Users/stapi/OneDrive/Desktop/GD32VW553/V1_MQTT_OK/GD32VW55X_Wifi_BLE_SDK/GD32VW55x_RELEASE_V1.0.2/MSDK/cloud/alicloud/src/services/linkkit/dm\dm_msg_process.c ****     if (res != SUCCESS_RETURN) {
 569:C:/Users/stapi/OneDrive/Desktop/GD32VW553/V1_MQTT_OK/GD32VW55X_Wifi_BLE_SDK/GD32VW55x_RELEASE_V1.0.2/MSDK/cloud/alicloud/src/services/linkkit/dm\dm_msg_process.c ****         return FAIL_RETURN;
 570:C:/Users/stapi/OneDrive/Desktop/GD32VW553/V1_MQTT_OK/GD32VW55X_Wifi_BLE_SDK/GD32VW55x_RELEASE_V1.0.2/MSDK/cloud/alicloud/src/services/linkkit/dm\dm_msg_process.c ****     }
 571:C:/Users/stapi/OneDrive/Desktop/GD32VW553/V1_MQTT_OK/GD32VW55X_Wifi_BLE_SDK/GD32VW55x_RELEASE_V1.0.2/MSDK/cloud/alicloud/src/services/linkkit/dm\dm_msg_process.c **** 
 572:C:/Users/stapi/OneDrive/Desktop/GD32VW553/V1_MQTT_OK/GD32VW55X_Wifi_BLE_SDK/GD32VW55x_RELEASE_V1.0.2/MSDK/cloud/alicloud/src/services/linkkit/dm\dm_msg_process.c ****     /* Operation */
 573:C:/Users/stapi/OneDrive/Desktop/GD32VW553/V1_MQTT_OK/GD32VW55X_Wifi_BLE_SDK/GD32VW55x_RELEASE_V1.0.2/MSDK/cloud/alicloud/src/services/linkkit/dm\dm_msg_process.c ****     return dm_msg_rrpc_request(product_key, device_name, (char *)source->uri + rrpcid_pos + 1,
 574:C:/Users/stapi/OneDrive/Desktop/GD32VW553/V1_MQTT_OK/GD32VW55X_Wifi_BLE_SDK/GD32VW55x_RELEASE_V1.0.2/MSDK/cloud/alicloud/src/services/linkkit/dm\dm_msg_process.c ****                                strlen(source->uri) - rrpcid_pos - 1, &request);
 575:C:/Users/stapi/OneDrive/Desktop/GD32VW553/V1_MQTT_OK/GD32VW55X_Wifi_BLE_SDK/GD32VW55x_RELEASE_V1.0.2/MSDK/cloud/alicloud/src/services/linkkit/dm\dm_msg_process.c **** }
 1695              		.loc 1 575 1
 1696 0060 2961     		addi	sp,sp,192
 1697              		.cfi_remember_state
 1698              		.cfi_def_cfa_offset 0
 1699 0062 17030000 		tail	__riscv_restore_2
 1699      67000300 
 1700              		.cfi_restore 9
 1701              		.cfi_restore 8
 1702              		.cfi_restore 1
 1703              		.cfi_def_cfa_offset -16
 1704              	.LVL214:
 1705              	.L64:
 1706              		.cfi_restore_state
 557:C:/Users/stapi/OneDrive/Desktop/GD32VW553/V1_MQTT_OK/GD32VW55X_Wifi_BLE_SDK/GD32VW55x_RELEASE_V1.0.2/MSDK/cloud/alicloud/src/services/linkkit/dm\dm_msg_process.c **** 
 1707              		.loc 1 557 5 is_stmt 1
 557:C:/Users/stapi/OneDrive/Desktop/GD32VW553/V1_MQTT_OK/GD32VW55X_Wifi_BLE_SDK/GD32VW55x_RELEASE_V1.0.2/MSDK/cloud/alicloud/src/services/linkkit/dm\dm_msg_process.c **** 
 1708              		.loc 1 557 5
 1709 006a 37050000 		lui	a0,%hi(.LC0)
 1710              	.LVL215:
 1711 006e 13050500 		addi	a0,a0,%lo(.LC0)
 1712 0072 97000000 		call	HAL_Printf
 1712      E7800000 
 1713              	.LVL216:
 557:C:/Users/stapi/OneDrive/Desktop/GD32VW553/V1_MQTT_OK/GD32VW55X_Wifi_BLE_SDK/GD32VW55x_RELEASE_V1.0.2/MSDK/cloud/alicloud/src/services/linkkit/dm\dm_msg_process.c **** 
 1714              		.loc 1 557 5
 1715 007a 0440     		lw	s1,0(s0)
 1716 007c 2685     		mv	a0,s1
 1717 007e 97000000 		call	strlen
 1717      E7800000 
 1718              	.LVL217:
 1719 0086 8247     		lw	a5,0(sp)
 1720 0088 13861700 		addi	a2,a5,1
 1721 008c 93C7F7FF 		not	a5,a5
 1722 0090 B385A700 		add	a1,a5,a0
 1723 0094 37050000 		lui	a0,%hi(.LC8)
 1724 0098 2696     		add	a2,s1,a2
 1725 009a 13050500 		addi	a0,a0,%lo(.LC8)
 1726 009e 97000000 		call	HAL_Printf
 1726      E7800000 
 1727              	.LVL218:
 557:C:/Users/stapi/OneDrive/Desktop/GD32VW553/V1_MQTT_OK/GD32VW55X_Wifi_BLE_SDK/GD32VW55x_RELEASE_V1.0.2/MSDK/cloud/alicloud/src/services/linkkit/dm\dm_msg_process.c **** 
 1728              		.loc 1 557 5
 1729 00a6 37050000 		lui	a0,%hi(.LC1)
 1730 00aa 13050500 		addi	a0,a0,%lo(.LC1)
 1731 00ae 97000000 		call	HAL_Printf
 1731      E7800000 
 1732              	.LVL219:
 557:C:/Users/stapi/OneDrive/Desktop/GD32VW553/V1_MQTT_OK/GD32VW55X_Wifi_BLE_SDK/GD32VW55x_RELEASE_V1.0.2/MSDK/cloud/alicloud/src/services/linkkit/dm\dm_msg_process.c **** 
 1733              		.loc 1 557 5
 560:C:/Users/stapi/OneDrive/Desktop/GD32VW553/V1_MQTT_OK/GD32VW55X_Wifi_BLE_SDK/GD32VW55x_RELEASE_V1.0.2/MSDK/cloud/alicloud/src/services/linkkit/dm\dm_msg_process.c ****                                 device_name);
 1734              		.loc 1 560 5
 560:C:/Users/stapi/OneDrive/Desktop/GD32VW553/V1_MQTT_OK/GD32VW55X_Wifi_BLE_SDK/GD32VW55x_RELEASE_V1.0.2/MSDK/cloud/alicloud/src/services/linkkit/dm\dm_msg_process.c ****                                 device_name);
 1735              		.loc 1 560 47 is_stmt 0
 1736 00b6 0440     		lw	s1,0(s0)
 560:C:/Users/stapi/OneDrive/Desktop/GD32VW553/V1_MQTT_OK/GD32VW55X_Wifi_BLE_SDK/GD32VW55x_RELEASE_V1.0.2/MSDK/cloud/alicloud/src/services/linkkit/dm\dm_msg_process.c ****                                 device_name);
 1737              		.loc 1 560 54
 1738 00b8 2685     		mv	a0,s1
 1739 00ba 97000000 		call	strlen
 1739      E7800000 
 1740              	.LVL220:
 1741 00c2 AA85     		mv	a1,a0
 560:C:/Users/stapi/OneDrive/Desktop/GD32VW553/V1_MQTT_OK/GD32VW55X_Wifi_BLE_SDK/GD32VW55x_RELEASE_V1.0.2/MSDK/cloud/alicloud/src/services/linkkit/dm\dm_msg_process.c ****                                 device_name);
 1742              		.loc 1 560 11
 1743 00c4 7C08     		addi	a5,sp,28
 1744 00c6 5800     		addi	a4,sp,4
 1745 00c8 9146     		li	a3,4
 1746 00ca 0946     		li	a2,2
 1747 00cc 2685     		mv	a0,s1
 1748 00ce 97000000 		call	dm_msg_uri_parse_pkdn
 1748      E7800000 
 1749              	.LVL221:
 562:C:/Users/stapi/OneDrive/Desktop/GD32VW553/V1_MQTT_OK/GD32VW55X_Wifi_BLE_SDK/GD32VW55x_RELEASE_V1.0.2/MSDK/cloud/alicloud/src/services/linkkit/dm\dm_msg_process.c ****         return FAIL_RETURN;
 1750              		.loc 1 562 5 is_stmt 1
 562:C:/Users/stapi/OneDrive/Desktop/GD32VW553/V1_MQTT_OK/GD32VW55X_Wifi_BLE_SDK/GD32VW55x_RELEASE_V1.0.2/MSDK/cloud/alicloud/src/services/linkkit/dm\dm_msg_process.c ****         return FAIL_RETURN;
 1751              		.loc 1 562 8 is_stmt 0
 1752 00d6 41F5     		bne	a0,zero,.L66
 567:C:/Users/stapi/OneDrive/Desktop/GD32VW553/V1_MQTT_OK/GD32VW55X_Wifi_BLE_SDK/GD32VW55x_RELEASE_V1.0.2/MSDK/cloud/alicloud/src/services/linkkit/dm\dm_msg_process.c ****     if (res != SUCCESS_RETURN) {
 1753              		.loc 1 567 5 is_stmt 1
 567:C:/Users/stapi/OneDrive/Desktop/GD32VW553/V1_MQTT_OK/GD32VW55X_Wifi_BLE_SDK/GD32VW55x_RELEASE_V1.0.2/MSDK/cloud/alicloud/src/services/linkkit/dm\dm_msg_process.c ****     if (res != SUCCESS_RETURN) {
 1754              		.loc 1 567 11 is_stmt 0
 1755 00d8 0C44     		lw	a1,8(s0)
 1756 00da 4840     		lw	a0,4(s0)
 1757              	.LVL222:
 1758 00dc 9000     		addi	a2,sp,64
 1759 00de 97000000 		call	dm_msg_request_parse
 1759      E7800000 
 1760              	.LVL223:
 568:C:/Users/stapi/OneDrive/Desktop/GD32VW553/V1_MQTT_OK/GD32VW55X_Wifi_BLE_SDK/GD32VW55x_RELEASE_V1.0.2/MSDK/cloud/alicloud/src/services/linkkit/dm\dm_msg_process.c ****         return FAIL_RETURN;
 1761              		.loc 1 568 5 is_stmt 1
 568:C:/Users/stapi/OneDrive/Desktop/GD32VW553/V1_MQTT_OK/GD32VW55X_Wifi_BLE_SDK/GD32VW55x_RELEASE_V1.0.2/MSDK/cloud/alicloud/src/services/linkkit/dm\dm_msg_process.c ****         return FAIL_RETURN;
 1762              		.loc 1 568 8 is_stmt 0
 1763 00e6 25FD     		bne	a0,zero,.L66
 573:C:/Users/stapi/OneDrive/Desktop/GD32VW553/V1_MQTT_OK/GD32VW55X_Wifi_BLE_SDK/GD32VW55x_RELEASE_V1.0.2/MSDK/cloud/alicloud/src/services/linkkit/dm\dm_msg_process.c ****                                strlen(source->uri) - rrpcid_pos - 1, &request);
 1764              		.loc 1 573 5 is_stmt 1
 573:C:/Users/stapi/OneDrive/Desktop/GD32VW553/V1_MQTT_OK/GD32VW55X_Wifi_BLE_SDK/GD32VW55x_RELEASE_V1.0.2/MSDK/cloud/alicloud/src/services/linkkit/dm\dm_msg_process.c ****                                strlen(source->uri) - rrpcid_pos - 1, &request);
 1765              		.loc 1 573 72 is_stmt 0
 1766 00e8 0440     		lw	s1,0(s0)
 573:C:/Users/stapi/OneDrive/Desktop/GD32VW553/V1_MQTT_OK/GD32VW55X_Wifi_BLE_SDK/GD32VW55x_RELEASE_V1.0.2/MSDK/cloud/alicloud/src/services/linkkit/dm\dm_msg_process.c ****                                strlen(source->uri) - rrpcid_pos - 1, &request);
 1767              		.loc 1 573 91
 1768 00ea 0244     		lw	s0,0(sp)
 1769              	.LVL224:
 574:C:/Users/stapi/OneDrive/Desktop/GD32VW553/V1_MQTT_OK/GD32VW55X_Wifi_BLE_SDK/GD32VW55x_RELEASE_V1.0.2/MSDK/cloud/alicloud/src/services/linkkit/dm\dm_msg_process.c **** }
 1770              		.loc 1 574 32
 1771 00ec 2685     		mv	a0,s1
 1772              	.LVL225:
 1773 00ee 97000000 		call	strlen
 1773      E7800000 
 1774              	.LVL226:
 574:C:/Users/stapi/OneDrive/Desktop/GD32VW553/V1_MQTT_OK/GD32VW55X_Wifi_BLE_SDK/GD32VW55x_RELEASE_V1.0.2/MSDK/cloud/alicloud/src/services/linkkit/dm\dm_msg_process.c **** }
 1775              		.loc 1 574 65
 1776 00f6 9346F4FF 		not	a3,s0
 573:C:/Users/stapi/OneDrive/Desktop/GD32VW553/V1_MQTT_OK/GD32VW55X_Wifi_BLE_SDK/GD32VW55x_RELEASE_V1.0.2/MSDK/cloud/alicloud/src/services/linkkit/dm\dm_msg_process.c ****                                strlen(source->uri) - rrpcid_pos - 1, &request);
 1777              		.loc 1 573 91
 1778 00fa 0504     		addi	s0,s0,1
 573:C:/Users/stapi/OneDrive/Desktop/GD32VW553/V1_MQTT_OK/GD32VW55X_Wifi_BLE_SDK/GD32VW55x_RELEASE_V1.0.2/MSDK/cloud/alicloud/src/services/linkkit/dm\dm_msg_process.c ****                                strlen(source->uri) - rrpcid_pos - 1, &request);
 1779              		.loc 1 573 12
 1780 00fc AA96     		add	a3,a3,a0
 1781 00fe 9800     		addi	a4,sp,64
 1782 0100 33868400 		add	a2,s1,s0
 1783 0104 6C08     		addi	a1,sp,28
 1784 0106 4800     		addi	a0,sp,4
 1785 0108 97000000 		call	dm_msg_rrpc_request
 1785      E7800000 
 1786              	.LVL227:
 1787 0110 81BF     		j	.L63
 1788              		.cfi_endproc
 1789              	.LFE31:
 1791              		.section	.text.dm_disp_ntp_response,"ax",@progbits
 1792              		.align	1
 1793              		.globl	dm_disp_ntp_response
 1795              	dm_disp_ntp_response:
 1796              	.LFB32:
 576:C:/Users/stapi/OneDrive/Desktop/GD32VW553/V1_MQTT_OK/GD32VW55X_Wifi_BLE_SDK/GD32VW55x_RELEASE_V1.0.2/MSDK/cloud/alicloud/src/services/linkkit/dm\dm_msg_process.c **** 
 577:C:/Users/stapi/OneDrive/Desktop/GD32VW553/V1_MQTT_OK/GD32VW55X_Wifi_BLE_SDK/GD32VW55x_RELEASE_V1.0.2/MSDK/cloud/alicloud/src/services/linkkit/dm\dm_msg_process.c **** int dm_disp_ntp_response(_IN_ dm_msg_source_t *source)
 578:C:/Users/stapi/OneDrive/Desktop/GD32VW553/V1_MQTT_OK/GD32VW55X_Wifi_BLE_SDK/GD32VW55x_RELEASE_V1.0.2/MSDK/cloud/alicloud/src/services/linkkit/dm\dm_msg_process.c **** {
 1797              		.loc 1 578 1 is_stmt 1
 1798              		.cfi_startproc
 1799              	.LVL228:
 1800 0000 17030000 		call	t0,__riscv_save_1
 1800      E7020300 
 1801              		.cfi_offset 8, -8
 1802              		.cfi_offset 1, -4
 1803              		.cfi_def_cfa_offset 16
 579:C:/Users/stapi/OneDrive/Desktop/GD32VW553/V1_MQTT_OK/GD32VW55X_Wifi_BLE_SDK/GD32VW55x_RELEASE_V1.0.2/MSDK/cloud/alicloud/src/services/linkkit/dm\dm_msg_process.c ****     dm_log_info(DM_URI_NTP_RESPONSE);
 1804              		.loc 1 579 5
 1805              		.loc 1 579 5
 578:C:/Users/stapi/OneDrive/Desktop/GD32VW553/V1_MQTT_OK/GD32VW55X_Wifi_BLE_SDK/GD32VW55x_RELEASE_V1.0.2/MSDK/cloud/alicloud/src/services/linkkit/dm\dm_msg_process.c ****     dm_log_info(DM_URI_NTP_RESPONSE);
 1806              		.loc 1 578 1 is_stmt 0
 1807 0008 2A84     		mv	s0,a0
 1808              		.loc 1 579 5
 1809 000a 37050000 		lui	a0,%hi(.LC0)
 1810              	.LVL229:
 1811 000e 13050500 		addi	a0,a0,%lo(.LC0)
 1812 0012 97000000 		call	HAL_Printf
 1812      E7800000 
 1813              	.LVL230:
 1814              		.loc 1 579 5 is_stmt 1
 1815 001a 37050000 		lui	a0,%hi(.LANCHOR9)
 1816 001e 13050500 		addi	a0,a0,%lo(.LANCHOR9)
 1817 0022 97000000 		call	HAL_Printf
 1817      E7800000 
 1818              	.LVL231:
 1819              		.loc 1 579 5
 1820 002a 37050000 		lui	a0,%hi(.LC1)
 1821 002e 13050500 		addi	a0,a0,%lo(.LC1)
 1822 0032 97000000 		call	HAL_Printf
 1822      E7800000 
 1823              	.LVL232:
 1824              		.loc 1 579 5
 580:C:/Users/stapi/OneDrive/Desktop/GD32VW553/V1_MQTT_OK/GD32VW55X_Wifi_BLE_SDK/GD32VW55x_RELEASE_V1.0.2/MSDK/cloud/alicloud/src/services/linkkit/dm\dm_msg_process.c **** 
 581:C:/Users/stapi/OneDrive/Desktop/GD32VW553/V1_MQTT_OK/GD32VW55X_Wifi_BLE_SDK/GD32VW55x_RELEASE_V1.0.2/MSDK/cloud/alicloud/src/services/linkkit/dm\dm_msg_process.c ****     /* Operation */
 582:C:/Users/stapi/OneDrive/Desktop/GD32VW553/V1_MQTT_OK/GD32VW55X_Wifi_BLE_SDK/GD32VW55x_RELEASE_V1.0.2/MSDK/cloud/alicloud/src/services/linkkit/dm\dm_msg_process.c ****     return dm_msg_ntp_response((char *)source->payload, source->payload_len);
 1825              		.loc 1 582 5
 1826              		.loc 1 582 12 is_stmt 0
 1827 003a 0C44     		lw	a1,8(s0)
 1828 003c 4840     		lw	a0,4(s0)
 1829 003e 97000000 		call	dm_msg_ntp_response
 1829      E7800000 
 1830              	.LVL233:
 583:C:/Users/stapi/OneDrive/Desktop/GD32VW553/V1_MQTT_OK/GD32VW55X_Wifi_BLE_SDK/GD32VW55x_RELEASE_V1.0.2/MSDK/cloud/alicloud/src/services/linkkit/dm\dm_msg_process.c **** }
 1831              		.loc 1 583 1
 1832 0046 17030000 		tail	__riscv_restore_1
 1832      67000300 
 1833              		.cfi_restore 8
 1834              		.cfi_restore 1
 1835              		.cfi_def_cfa_offset 0
 1836              		.cfi_endproc
 1837              	.LFE32:
 1839              		.section	.text.dm_disp_ext_error_response,"ax",@progbits
 1840              		.align	1
 1841              		.globl	dm_disp_ext_error_response
 1843              	dm_disp_ext_error_response:
 1844              	.LFB33:
 584:C:/Users/stapi/OneDrive/Desktop/GD32VW553/V1_MQTT_OK/GD32VW55X_Wifi_BLE_SDK/GD32VW55x_RELEASE_V1.0.2/MSDK/cloud/alicloud/src/services/linkkit/dm\dm_msg_process.c **** 
 585:C:/Users/stapi/OneDrive/Desktop/GD32VW553/V1_MQTT_OK/GD32VW55X_Wifi_BLE_SDK/GD32VW55x_RELEASE_V1.0.2/MSDK/cloud/alicloud/src/services/linkkit/dm\dm_msg_process.c **** int dm_disp_ext_error_response(_IN_ dm_msg_source_t *source)
 586:C:/Users/stapi/OneDrive/Desktop/GD32VW553/V1_MQTT_OK/GD32VW55X_Wifi_BLE_SDK/GD32VW55x_RELEASE_V1.0.2/MSDK/cloud/alicloud/src/services/linkkit/dm\dm_msg_process.c **** {
 1845              		.loc 1 586 1 is_stmt 1
 1846              		.cfi_startproc
 1847              	.LVL234:
 587:C:/Users/stapi/OneDrive/Desktop/GD32VW553/V1_MQTT_OK/GD32VW55X_Wifi_BLE_SDK/GD32VW55x_RELEASE_V1.0.2/MSDK/cloud/alicloud/src/services/linkkit/dm\dm_msg_process.c ****     return dm_msg_ext_error_response((char *)source->payload, source->payload_len);
 1848              		.loc 1 587 5
 1849              		.loc 1 587 12 is_stmt 0
 1850 0000 0C45     		lw	a1,8(a0)
 1851 0002 4841     		lw	a0,4(a0)
 1852              	.LVL235:
 1853 0004 17030000 		tail	dm_msg_ext_error_response
 1853      67000300 
 1854              	.LVL236:
 1855              		.cfi_endproc
 1856              	.LFE33:
 1858              		.globl	DM_URI_DEV_CORE_SERVICE_DEV
 1859              		.globl	DM_URI_NTP_RESPONSE
 1860              		.globl	DM_URI_NTP_REQUEST
 1861              		.globl	DM_URI_THING_EVENT_NOTIFY_REPLY
 1862              		.globl	DM_URI_THING_EVENT_NOTIFY
 1863              		.globl	DM_URI_THING_DEVICEINFO_DELETE_REPLY
 1864              		.globl	DM_URI_THING_DEVICEINFO_DELETE
 1865              		.globl	DM_URI_THING_DEVICEINFO_UPDATE_REPLY
 1866              		.globl	DM_URI_THING_DEVICEINFO_UPDATE
 1867              		.globl	DM_URI_THING_EVENT_POST_REPLY_WILDCARD
 1868              		.globl	DM_URI_THING_EVENT_POST_REPLY
 1869              		.globl	DM_URI_THING_EVENT_POST
 1870              		.globl	DM_URI_THING_EVENT_PROPERTY_POST_REPLY
 1871              		.globl	DM_URI_THING_EVENT_PROPERTY_POST
 1872              		.globl	DM_URI_THING_SERVICE_RESPONSE
 1873              		.globl	DM_URI_THING_SERVICE_REQUEST
 1874              		.globl	DM_URI_THING_SERVICE_REQUEST_WILDCARD2
 1875              		.globl	DM_URI_THING_SERVICE_REQUEST_WILDCARD
 1876              		.globl	DM_URI_THING_SERVICE_PROPERTY_GET_REPLY
 1877              		.globl	DM_URI_THING_SERVICE_PROPERTY_GET
 1878              		.globl	DM_URI_THING_SERVICE_PROPERTY_SET_REPLY
 1879              		.globl	DM_URI_THING_SERVICE_PROPERTY_SET
 1880              		.globl	DM_URI_RRPC_REQUEST_WILDCARD
 1881              		.globl	DM_URI_THING_MODEL_UP_RAW_REPLY
 1882              		.globl	DM_URI_THING_MODEL_UP_RAW
 1883              		.globl	DM_URI_THING_MODEL_DOWN_RAW_REPLY
 1884              		.globl	DM_URI_THING_MODEL_DOWN_RAW
 1885              		.globl	DM_URI_REPLY_SUFFIX
 1886              		.globl	DM_URI_EXT_ERROR_PREFIX
 1887              		.globl	DM_URI_EXT_NTP_PREFIX
 1888              		.globl	DM_URI_EXT_SESSION_PREFIX
 1889              		.globl	DM_URI_SYS_PREFIX
 1890              		.section	.rodata.DM_URI_DEV_CORE_SERVICE_DEV,"a"
 1891              		.align	2
 1894              	DM_URI_DEV_CORE_SERVICE_DEV:
 1895 0000 2F646576 		.string	"/dev/core/service/dev"
 1895      2F636F72 
 1895      652F7365 
 1895      72766963 
 1895      652F6465 
 1896              		.section	.rodata.DM_URI_EXT_ERROR_PREFIX,"a"
 1897              		.align	2
 1900              	DM_URI_EXT_ERROR_PREFIX:
 1901 0000 2F657874 		.string	"/ext/error/%s/%s"
 1901      2F657272 
 1901      6F722F25 
 1901      732F2573 
 1901      00
 1902              		.section	.rodata.DM_URI_EXT_NTP_PREFIX,"a"
 1903              		.align	2
 1906              	DM_URI_EXT_NTP_PREFIX:
 1907 0000 2F657874 		.string	"/ext/ntp/%s/%s/"
 1907      2F6E7470 
 1907      2F25732F 
 1907      25732F00 
 1908              		.section	.rodata.DM_URI_EXT_SESSION_PREFIX,"a"
 1909              		.align	2
 1912              	DM_URI_EXT_SESSION_PREFIX:
 1913 0000 2F657874 		.string	"/ext/session/%s/%s/"
 1913      2F736573 
 1913      73696F6E 
 1913      2F25732F 
 1913      25732F00 
 1914              		.section	.rodata.DM_URI_NTP_RESPONSE,"a"
 1915              		.align	2
 1916              		.set	.LANCHOR9,. + 0
 1919              	DM_URI_NTP_RESPONSE:
 1920 0000 72657370 		.string	"response"
 1920      6F6E7365 
 1920      00
 1921              		.section	.rodata.DM_URI_RRPC_REQUEST_WILDCARD,"a"
 1922              		.align	2
 1925              	DM_URI_RRPC_REQUEST_WILDCARD:
 1926 0000 72727063 		.string	"rrpc/request/+"
 1926      2F726571 
 1926      75657374 
 1926      2F2B00
 1927              		.section	.rodata.DM_URI_SYS_PREFIX,"a"
 1928              		.align	2
 1929              		.set	.LANCHOR2,. + 0
 1932              	DM_URI_SYS_PREFIX:
 1933 0000 2F737973 		.string	"/sys/%s/%s/"
 1933      2F25732F 
 1933      25732F00 
 1934              		.section	.rodata.DM_URI_THING_DEVICEINFO_DELETE,"a"
 1935              		.align	2
 1938              	DM_URI_THING_DEVICEINFO_DELETE:
 1939 0000 7468696E 		.string	"thing/deviceinfo/delete"
 1939      672F6465 
 1939      76696365 
 1939      696E666F 
 1939      2F64656C 
 1940              		.section	.rodata.DM_URI_THING_DEVICEINFO_DELETE_REPLY,"a"
 1941              		.align	2
 1942              		.set	.LANCHOR7,. + 0
 1945              	DM_URI_THING_DEVICEINFO_DELETE_REPLY:
 1946 0000 7468696E 		.string	"thing/deviceinfo/delete_reply"
 1946      672F6465 
 1946      76696365 
 1946      696E666F 
 1946      2F64656C 
 1947              		.section	.rodata.DM_URI_THING_DEVICEINFO_UPDATE,"a"
 1948              		.align	2
 1951              	DM_URI_THING_DEVICEINFO_UPDATE:
 1952 0000 7468696E 		.string	"thing/deviceinfo/update"
 1952      672F6465 
 1952      76696365 
 1952      696E666F 
 1952      2F757064 
 1953              		.section	.rodata.DM_URI_THING_DEVICEINFO_UPDATE_REPLY,"a"
 1954              		.align	2
 1955              		.set	.LANCHOR6,. + 0
 1958              	DM_URI_THING_DEVICEINFO_UPDATE_REPLY:
 1959 0000 7468696E 		.string	"thing/deviceinfo/update_reply"
 1959      672F6465 
 1959      76696365 
 1959      696E666F 
 1959      2F757064 
 1960              		.section	.rodata.DM_URI_THING_EVENT_NOTIFY,"a"
 1961              		.align	2
 1962              		.set	.LANCHOR8,. + 0
 1965              	DM_URI_THING_EVENT_NOTIFY:
 1966 0000 5F746869 		.string	"_thing/event/notify"
 1966      6E672F65 
 1966      76656E74 
 1966      2F6E6F74 
 1966      69667900 
 1967              		.section	.rodata.DM_URI_THING_EVENT_NOTIFY_REPLY,"a"
 1968              		.align	2
 1971              	DM_URI_THING_EVENT_NOTIFY_REPLY:
 1972 0000 5F746869 		.string	"_thing/event/notify_reply"
 1972      6E672F65 
 1972      76656E74 
 1972      2F6E6F74 
 1972      6966795F 
 1973              		.section	.rodata.DM_URI_THING_EVENT_POST,"a"
 1974              		.align	2
 1977              	DM_URI_THING_EVENT_POST:
 1978 0000 7468696E 		.string	"thing/event/%.*s/post"
 1978      672F6576 
 1978      656E742F 
 1978      252E2A73 
 1978      2F706F73 
 1979              		.section	.rodata.DM_URI_THING_EVENT_POST_REPLY,"a"
 1980              		.align	2
 1983              	DM_URI_THING_EVENT_POST_REPLY:
 1984 0000 7468696E 		.string	"thing/event/%s/post_reply"
 1984      672F6576 
 1984      656E742F 
 1984      25732F70 
 1984      6F73745F 
 1985              		.section	.rodata.DM_URI_THING_EVENT_POST_REPLY_WILDCARD,"a"
 1986              		.align	2
 1989              	DM_URI_THING_EVENT_POST_REPLY_WILDCARD:
 1990 0000 7468696E 		.string	"thing/event/+/post_reply"
 1990      672F6576 
 1990      656E742F 
 1990      2B2F706F 
 1990      73745F72 
 1991              		.section	.rodata.DM_URI_THING_EVENT_PROPERTY_POST,"a"
 1992              		.align	2
 1993              		.set	.LANCHOR4,. + 0
 1996              	DM_URI_THING_EVENT_PROPERTY_POST:
 1997 0000 7468696E 		.string	"thing/event/property/post"
 1997      672F6576 
 1997      656E742F 
 1997      70726F70 
 1997      65727479 
 1998              		.section	.rodata.DM_URI_THING_EVENT_PROPERTY_POST_REPLY,"a"
 1999              		.align	2
 2002              	DM_URI_THING_EVENT_PROPERTY_POST_REPLY:
 2003 0000 7468696E 		.string	"thing/event/property/post_reply"
 2003      672F6576 
 2003      656E742F 
 2003      70726F70 
 2003      65727479 
 2004              		.section	.rodata.DM_URI_THING_MODEL_DOWN_RAW,"a"
 2005              		.align	2
 2008              	DM_URI_THING_MODEL_DOWN_RAW:
 2009 0000 7468696E 		.string	"thing/model/down_raw"
 2009      672F6D6F 
 2009      64656C2F 
 2009      646F776E 
 2009      5F726177 
 2010              		.section	.rodata.DM_URI_THING_MODEL_DOWN_RAW_REPLY,"a"
 2011              		.align	2
 2014              	DM_URI_THING_MODEL_DOWN_RAW_REPLY:
 2015 0000 7468696E 		.string	"thing/model/down_raw_reply"
 2015      672F6D6F 
 2015      64656C2F 
 2015      646F776E 
 2015      5F726177 
 2016              		.section	.rodata.DM_URI_THING_MODEL_UP_RAW,"a"
 2017              		.align	2
 2020              	DM_URI_THING_MODEL_UP_RAW:
 2021 0000 7468696E 		.string	"thing/model/up_raw"
 2021      672F6D6F 
 2021      64656C2F 
 2021      75705F72 
 2021      617700
 2022              		.section	.rodata.DM_URI_THING_MODEL_UP_RAW_REPLY,"a"
 2023              		.align	2
 2024              		.set	.LANCHOR0,. + 0
 2027              	DM_URI_THING_MODEL_UP_RAW_REPLY:
 2028 0000 7468696E 		.string	"thing/model/up_raw_reply"
 2028      672F6D6F 
 2028      64656C2F 
 2028      75705F72 
 2028      61775F72 
 2029              		.section	.rodata.DM_URI_THING_SERVICE_PROPERTY_GET,"a"
 2030              		.align	2
 2031              		.set	.LANCHOR3,. + 0
 2034              	DM_URI_THING_SERVICE_PROPERTY_GET:
 2035 0000 7468696E 		.string	"thing/service/property/get"
 2035      672F7365 
 2035      72766963 
 2035      652F7072 
 2035      6F706572 
 2036              		.section	.rodata.DM_URI_THING_SERVICE_PROPERTY_GET_REPLY,"a"
 2037              		.align	2
 2040              	DM_URI_THING_SERVICE_PROPERTY_GET_REPLY:
 2041 0000 7468696E 		.string	"thing/service/property/get_reply"
 2041      672F7365 
 2041      72766963 
 2041      652F7072 
 2041      6F706572 
 2042              		.section	.rodata.DM_URI_THING_SERVICE_PROPERTY_SET,"a"
 2043              		.align	2
 2044              		.set	.LANCHOR1,. + 0
 2047              	DM_URI_THING_SERVICE_PROPERTY_SET:
 2048 0000 7468696E 		.string	"thing/service/property/set"
 2048      672F7365 
 2048      72766963 
 2048      652F7072 
 2048      6F706572 
 2049              		.section	.rodata.DM_URI_THING_SERVICE_PROPERTY_SET_REPLY,"a"
 2050              		.align	2
 2053              	DM_URI_THING_SERVICE_PROPERTY_SET_REPLY:
 2054 0000 7468696E 		.string	"thing/service/property/set_reply"
 2054      672F7365 
 2054      72766963 
 2054      652F7072 
 2054      6F706572 
 2055              		.section	.rodata.DM_URI_THING_SERVICE_REQUEST,"a"
 2056              		.align	2
 2059              	DM_URI_THING_SERVICE_REQUEST:
 2060 0000 7468696E 		.string	"thing/service/%s"
 2060      672F7365 
 2060      72766963 
 2060      652F2573 
 2060      00
 2061              		.section	.rodata.DM_URI_THING_SERVICE_REQUEST_WILDCARD,"a"
 2062              		.align	2
 2065              	DM_URI_THING_SERVICE_REQUEST_WILDCARD:
 2066 0000 7468696E 		.string	"thing/service/+"
 2066      672F7365 
 2066      72766963 
 2066      652F2B00 
 2067              		.section	.rodata.DM_URI_THING_SERVICE_REQUEST_WILDCARD2,"a"
 2068              		.align	2
 2071              	DM_URI_THING_SERVICE_REQUEST_WILDCARD2:
 2072 0000 7468696E 		.string	"thing/service/#"
 2072      672F7365 
 2072      72766963 
 2072      652F2300 
 2073              		.section	.rodata.DM_URI_THING_SERVICE_RESPONSE,"a"
 2074              		.align	2
 2077              	DM_URI_THING_SERVICE_RESPONSE:
 2078 0000 7468696E 		.string	"thing/service/%.*s_reply"
 2078      672F7365 
 2078      72766963 
 2078      652F252E 
 2078      2A735F72 
 2079              		.section	.rodata.__FUNCTION__.0,"a"
 2080              		.align	2
 2081              		.set	.LANCHOR5,. + 0
 2084              	__FUNCTION__.0:
 2085 0000 646D5F6D 		.string	"dm_msg_proc_thing_event_post_reply"
 2085      73675F70 
 2085      726F635F 
 2085      7468696E 
 2085      675F6576 
 2086              		.section	.srodata.DM_URI_NTP_REQUEST,"a"
 2087              		.align	2
 2090              	DM_URI_NTP_REQUEST:
 2091 0000 72657175 		.string	"request"
 2091      65737400 
 2092              		.section	.srodata.DM_URI_REPLY_SUFFIX,"a"
 2093              		.align	2
 2096              	DM_URI_REPLY_SUFFIX:
 2097 0000 5F726570 		.string	"_reply"
 2097      6C7900
 2098              		.text
 2099              	.Letext0:
 2100              		.file 2 "..\\..\\..\\..\\cloud\\alicloud\\src\\infra\\utils\\misc/lite-cjson.h"
 2101              		.file 3 "C:/Users/stapi/OneDrive/Desktop/GD32VW553/V1_MQTT_OK/GD32VW55X_Wifi_BLE_SDK/GD32VW55x_REL
 2102              		.file 4 "C:/Users/stapi/OneDrive/Desktop/GD32VW553/V1_MQTT_OK/GD32VW55X_Wifi_BLE_SDK/GD32VW55x_REL
 2103              		.file 5 "C:/Users/stapi/OneDrive/Desktop/GD32VW553/V1_MQTT_OK/GD32VW55X_Wifi_BLE_SDK/GD32VW55x_REL
 2104              		.file 6 "..\\..\\..\\..\\cloud\\alicloud\\include/iot_import.h"
 2105              		.file 7 "c:\\users\\stapi\\onedrive\\desktop\\gd32vw553\\embeddedbuilder_v1.4.7.26843\\tools\\nucl
 2106              		.file 8 "C:/Users/stapi/OneDrive/Desktop/GD32VW553/V1_MQTT_OK/GD32VW55X_Wifi_BLE_SDK/GD32VW55x_REL
 2107              		.file 9 "C:/Users/stapi/OneDrive/Desktop/GD32VW553/V1_MQTT_OK/GD32VW55X_Wifi_BLE_SDK/GD32VW55x_REL
 2108              		.file 10 "<built-in>"
 2109              		.file 11 "c:\\users\\stapi\\onedrive\\desktop\\gd32vw553\\embeddedbuilder_v1.4.7.26843\\tools\\nuc
 2110              		.file 12 "C:/Users/stapi/OneDrive/Desktop/GD32VW553/V1_MQTT_OK/GD32VW55X_Wifi_BLE_SDK/GD32VW55x_RE
 2111              		.file 13 "..\\..\\..\\..\\cloud\\alicloud\\src\\infra\\log/iotx_log.h"
 2112              		.file 14 "..\\..\\..\\..\\cloud\\alicloud\\include/exports/iot_export_errno.h"