   1              		.file	"dm_message_cache.c"
   2              		.option nopic
   3              		.attribute arch, "rv32i2p0_m2p0_a2p0_f2p0_c2p0_b_p0p94"
   4              		.attribute unaligned_access, 0
   5              		.attribute stack_align, 16
   6              		.text
   7              	.Ltext0:
   8              		.cfi_sections	.debug_frame
   9              		.section	.text._dm_msg_cache_mutex_lock,"ax",@progbits
  10              		.align	1
  12              	_dm_msg_cache_mutex_lock:
  13              	.LFB21:
  14              		.file 1 "C:/Users/stapi/OneDrive/Desktop/GD32VW553/V1_MQTT_OK/GD32VW55X_Wifi_BLE_SDK/GD32VW55x_REL
   1:C:/Users/stapi/OneDrive/Desktop/GD32VW553/V1_MQTT_OK/GD32VW55X_Wifi_BLE_SDK/GD32VW55x_RELEASE_V1.0.2/MSDK/cloud/alicloud/src/services/linkkit/dm\dm_message_cache.c **** /*
   2:C:/Users/stapi/OneDrive/Desktop/GD32VW553/V1_MQTT_OK/GD32VW55X_Wifi_BLE_SDK/GD32VW55x_RELEASE_V1.0.2/MSDK/cloud/alicloud/src/services/linkkit/dm\dm_message_cache.c ****  * Copyright (C) 2015-2018 Alibaba Group Holding Limited
   3:C:/Users/stapi/OneDrive/Desktop/GD32VW553/V1_MQTT_OK/GD32VW55X_Wifi_BLE_SDK/GD32VW55x_RELEASE_V1.0.2/MSDK/cloud/alicloud/src/services/linkkit/dm\dm_message_cache.c ****  */
   4:C:/Users/stapi/OneDrive/Desktop/GD32VW553/V1_MQTT_OK/GD32VW55X_Wifi_BLE_SDK/GD32VW55x_RELEASE_V1.0.2/MSDK/cloud/alicloud/src/services/linkkit/dm\dm_message_cache.c **** #if !defined(DM_MESSAGE_CACHE_DISABLED)
   5:C:/Users/stapi/OneDrive/Desktop/GD32VW553/V1_MQTT_OK/GD32VW55X_Wifi_BLE_SDK/GD32VW55x_RELEASE_V1.0.2/MSDK/cloud/alicloud/src/services/linkkit/dm\dm_message_cache.c **** #include "iotx_dm_internal.h"
   6:C:/Users/stapi/OneDrive/Desktop/GD32VW553/V1_MQTT_OK/GD32VW55X_Wifi_BLE_SDK/GD32VW55x_RELEASE_V1.0.2/MSDK/cloud/alicloud/src/services/linkkit/dm\dm_message_cache.c **** 
   7:C:/Users/stapi/OneDrive/Desktop/GD32VW553/V1_MQTT_OK/GD32VW55X_Wifi_BLE_SDK/GD32VW55x_RELEASE_V1.0.2/MSDK/cloud/alicloud/src/services/linkkit/dm\dm_message_cache.c **** dm_msg_cache_ctx_t g_dm_msg_cache_ctx;
   8:C:/Users/stapi/OneDrive/Desktop/GD32VW553/V1_MQTT_OK/GD32VW55X_Wifi_BLE_SDK/GD32VW55x_RELEASE_V1.0.2/MSDK/cloud/alicloud/src/services/linkkit/dm\dm_message_cache.c **** 
   9:C:/Users/stapi/OneDrive/Desktop/GD32VW553/V1_MQTT_OK/GD32VW55X_Wifi_BLE_SDK/GD32VW55x_RELEASE_V1.0.2/MSDK/cloud/alicloud/src/services/linkkit/dm\dm_message_cache.c **** dm_msg_cache_ctx_t *_dm_msg_cache_get_ctx(void)
  10:C:/Users/stapi/OneDrive/Desktop/GD32VW553/V1_MQTT_OK/GD32VW55X_Wifi_BLE_SDK/GD32VW55x_RELEASE_V1.0.2/MSDK/cloud/alicloud/src/services/linkkit/dm\dm_message_cache.c **** {
  11:C:/Users/stapi/OneDrive/Desktop/GD32VW553/V1_MQTT_OK/GD32VW55X_Wifi_BLE_SDK/GD32VW55x_RELEASE_V1.0.2/MSDK/cloud/alicloud/src/services/linkkit/dm\dm_message_cache.c ****     return &g_dm_msg_cache_ctx;
  12:C:/Users/stapi/OneDrive/Desktop/GD32VW553/V1_MQTT_OK/GD32VW55X_Wifi_BLE_SDK/GD32VW55x_RELEASE_V1.0.2/MSDK/cloud/alicloud/src/services/linkkit/dm\dm_message_cache.c **** }
  13:C:/Users/stapi/OneDrive/Desktop/GD32VW553/V1_MQTT_OK/GD32VW55X_Wifi_BLE_SDK/GD32VW55x_RELEASE_V1.0.2/MSDK/cloud/alicloud/src/services/linkkit/dm\dm_message_cache.c **** 
  14:C:/Users/stapi/OneDrive/Desktop/GD32VW553/V1_MQTT_OK/GD32VW55X_Wifi_BLE_SDK/GD32VW55x_RELEASE_V1.0.2/MSDK/cloud/alicloud/src/services/linkkit/dm\dm_message_cache.c **** static void _dm_msg_cache_mutex_lock(void)
  15:C:/Users/stapi/OneDrive/Desktop/GD32VW553/V1_MQTT_OK/GD32VW55X_Wifi_BLE_SDK/GD32VW55x_RELEASE_V1.0.2/MSDK/cloud/alicloud/src/services/linkkit/dm\dm_message_cache.c **** {
  15              		.loc 1 15 1
  16              		.cfi_startproc
  16:C:/Users/stapi/OneDrive/Desktop/GD32VW553/V1_MQTT_OK/GD32VW55X_Wifi_BLE_SDK/GD32VW55x_RELEASE_V1.0.2/MSDK/cloud/alicloud/src/services/linkkit/dm\dm_message_cache.c ****     dm_msg_cache_ctx_t *ctx = _dm_msg_cache_get_ctx();
  17              		.loc 1 16 5
  11:C:/Users/stapi/OneDrive/Desktop/GD32VW553/V1_MQTT_OK/GD32VW55X_Wifi_BLE_SDK/GD32VW55x_RELEASE_V1.0.2/MSDK/cloud/alicloud/src/services/linkkit/dm\dm_message_cache.c **** }
  18              		.loc 1 11 5
  19              	.LVL0:
  17:C:/Users/stapi/OneDrive/Desktop/GD32VW553/V1_MQTT_OK/GD32VW55X_Wifi_BLE_SDK/GD32VW55x_RELEASE_V1.0.2/MSDK/cloud/alicloud/src/services/linkkit/dm\dm_message_cache.c ****     if (ctx->mutex) {
  20              		.loc 1 17 5
  21              		.loc 1 17 12 is_stmt 0
  22 0000 B7070000 		lui	a5,%hi(.LANCHOR0)
  23 0004 03A50700 		lw	a0,%lo(.LANCHOR0)(a5)
  24              		.loc 1 17 8
  25 0008 09C5     		beq	a0,zero,.L7
  18:C:/Users/stapi/OneDrive/Desktop/GD32VW553/V1_MQTT_OK/GD32VW55X_Wifi_BLE_SDK/GD32VW55x_RELEASE_V1.0.2/MSDK/cloud/alicloud/src/services/linkkit/dm\dm_message_cache.c ****         HAL_MutexLock(ctx->mutex);
  26              		.loc 1 18 9 is_stmt 1
  27 000a 17030000 		tail	HAL_MutexLock
  27      67000300 
  28              	.LVL1:
  29              	.L7:
  30 0012 8280     		ret
  31              		.cfi_endproc
  32              	.LFE21:
  34              		.section	.text._dm_msg_cache_mutex_unlock,"ax",@progbits
  35              		.align	1
  37              	_dm_msg_cache_mutex_unlock:
  38              	.LFB22:
  19:C:/Users/stapi/OneDrive/Desktop/GD32VW553/V1_MQTT_OK/GD32VW55X_Wifi_BLE_SDK/GD32VW55x_RELEASE_V1.0.2/MSDK/cloud/alicloud/src/services/linkkit/dm\dm_message_cache.c ****     }
  20:C:/Users/stapi/OneDrive/Desktop/GD32VW553/V1_MQTT_OK/GD32VW55X_Wifi_BLE_SDK/GD32VW55x_RELEASE_V1.0.2/MSDK/cloud/alicloud/src/services/linkkit/dm\dm_message_cache.c **** }
  21:C:/Users/stapi/OneDrive/Desktop/GD32VW553/V1_MQTT_OK/GD32VW55X_Wifi_BLE_SDK/GD32VW55x_RELEASE_V1.0.2/MSDK/cloud/alicloud/src/services/linkkit/dm\dm_message_cache.c **** 
  22:C:/Users/stapi/OneDrive/Desktop/GD32VW553/V1_MQTT_OK/GD32VW55X_Wifi_BLE_SDK/GD32VW55x_RELEASE_V1.0.2/MSDK/cloud/alicloud/src/services/linkkit/dm\dm_message_cache.c **** static void _dm_msg_cache_mutex_unlock(void)
  23:C:/Users/stapi/OneDrive/Desktop/GD32VW553/V1_MQTT_OK/GD32VW55X_Wifi_BLE_SDK/GD32VW55x_RELEASE_V1.0.2/MSDK/cloud/alicloud/src/services/linkkit/dm\dm_message_cache.c **** {
  39              		.loc 1 23 1
  40              		.cfi_startproc
  24:C:/Users/stapi/OneDrive/Desktop/GD32VW553/V1_MQTT_OK/GD32VW55X_Wifi_BLE_SDK/GD32VW55x_RELEASE_V1.0.2/MSDK/cloud/alicloud/src/services/linkkit/dm\dm_message_cache.c ****     dm_msg_cache_ctx_t *ctx = _dm_msg_cache_get_ctx();
  41              		.loc 1 24 5
  11:C:/Users/stapi/OneDrive/Desktop/GD32VW553/V1_MQTT_OK/GD32VW55X_Wifi_BLE_SDK/GD32VW55x_RELEASE_V1.0.2/MSDK/cloud/alicloud/src/services/linkkit/dm\dm_message_cache.c **** }
  42              		.loc 1 11 5
  43              	.LVL2:
  25:C:/Users/stapi/OneDrive/Desktop/GD32VW553/V1_MQTT_OK/GD32VW55X_Wifi_BLE_SDK/GD32VW55x_RELEASE_V1.0.2/MSDK/cloud/alicloud/src/services/linkkit/dm\dm_message_cache.c ****     if (ctx->mutex) {
  44              		.loc 1 25 5
  45              		.loc 1 25 12 is_stmt 0
  46 0000 B7070000 		lui	a5,%hi(.LANCHOR0)
  47 0004 03A50700 		lw	a0,%lo(.LANCHOR0)(a5)
  48              		.loc 1 25 8
  49 0008 09C5     		beq	a0,zero,.L16
  26:C:/Users/stapi/OneDrive/Desktop/GD32VW553/V1_MQTT_OK/GD32VW55X_Wifi_BLE_SDK/GD32VW55x_RELEASE_V1.0.2/MSDK/cloud/alicloud/src/services/linkkit/dm\dm_message_cache.c ****         HAL_MutexUnlock(ctx->mutex);
  50              		.loc 1 26 9 is_stmt 1
  51 000a 17030000 		tail	HAL_MutexUnlock
  51      67000300 
  52              	.LVL3:
  53              	.L16:
  54 0012 8280     		ret
  55              		.cfi_endproc
  56              	.LFE22:
  58              		.section	.text._dm_msg_cache_get_ctx,"ax",@progbits
  59              		.align	1
  60              		.globl	_dm_msg_cache_get_ctx
  62              	_dm_msg_cache_get_ctx:
  63              	.LFB20:
  10:C:/Users/stapi/OneDrive/Desktop/GD32VW553/V1_MQTT_OK/GD32VW55X_Wifi_BLE_SDK/GD32VW55x_RELEASE_V1.0.2/MSDK/cloud/alicloud/src/services/linkkit/dm\dm_message_cache.c ****     return &g_dm_msg_cache_ctx;
  64              		.loc 1 10 1
  65              		.cfi_startproc
  11:C:/Users/stapi/OneDrive/Desktop/GD32VW553/V1_MQTT_OK/GD32VW55X_Wifi_BLE_SDK/GD32VW55x_RELEASE_V1.0.2/MSDK/cloud/alicloud/src/services/linkkit/dm\dm_message_cache.c **** }
  66              		.loc 1 11 5
  11:C:/Users/stapi/OneDrive/Desktop/GD32VW553/V1_MQTT_OK/GD32VW55X_Wifi_BLE_SDK/GD32VW55x_RELEASE_V1.0.2/MSDK/cloud/alicloud/src/services/linkkit/dm\dm_message_cache.c **** }
  67              		.loc 1 11 12 is_stmt 0
  68 0000 37050000 		lui	a0,%hi(.LANCHOR0)
  12:C:/Users/stapi/OneDrive/Desktop/GD32VW553/V1_MQTT_OK/GD32VW55X_Wifi_BLE_SDK/GD32VW55x_RELEASE_V1.0.2/MSDK/cloud/alicloud/src/services/linkkit/dm\dm_message_cache.c **** 
  69              		.loc 1 12 1
  70 0004 13050500 		addi	a0,a0,%lo(.LANCHOR0)
  71 0008 8280     		ret
  72              		.cfi_endproc
  73              	.LFE20:
  75              		.section	.text.dm_msg_cache_init,"ax",@progbits
  76              		.align	1
  77              		.globl	dm_msg_cache_init
  79              	dm_msg_cache_init:
  80              	.LFB23:
  27:C:/Users/stapi/OneDrive/Desktop/GD32VW553/V1_MQTT_OK/GD32VW55X_Wifi_BLE_SDK/GD32VW55x_RELEASE_V1.0.2/MSDK/cloud/alicloud/src/services/linkkit/dm\dm_message_cache.c ****     }
  28:C:/Users/stapi/OneDrive/Desktop/GD32VW553/V1_MQTT_OK/GD32VW55X_Wifi_BLE_SDK/GD32VW55x_RELEASE_V1.0.2/MSDK/cloud/alicloud/src/services/linkkit/dm\dm_message_cache.c **** }
  29:C:/Users/stapi/OneDrive/Desktop/GD32VW553/V1_MQTT_OK/GD32VW55X_Wifi_BLE_SDK/GD32VW55x_RELEASE_V1.0.2/MSDK/cloud/alicloud/src/services/linkkit/dm\dm_message_cache.c **** 
  30:C:/Users/stapi/OneDrive/Desktop/GD32VW553/V1_MQTT_OK/GD32VW55X_Wifi_BLE_SDK/GD32VW55x_RELEASE_V1.0.2/MSDK/cloud/alicloud/src/services/linkkit/dm\dm_message_cache.c **** int dm_msg_cache_init(void)
  31:C:/Users/stapi/OneDrive/Desktop/GD32VW553/V1_MQTT_OK/GD32VW55X_Wifi_BLE_SDK/GD32VW55x_RELEASE_V1.0.2/MSDK/cloud/alicloud/src/services/linkkit/dm\dm_message_cache.c **** {
  81              		.loc 1 31 1 is_stmt 1
  82              		.cfi_startproc
  83 0000 17030000 		call	t0,__riscv_save_1
  83      E7020300 
  84              		.cfi_offset 8, -8
  85              		.cfi_offset 1, -4
  86              		.cfi_def_cfa_offset 16
  32:C:/Users/stapi/OneDrive/Desktop/GD32VW553/V1_MQTT_OK/GD32VW55X_Wifi_BLE_SDK/GD32VW55x_RELEASE_V1.0.2/MSDK/cloud/alicloud/src/services/linkkit/dm\dm_message_cache.c ****     dm_msg_cache_ctx_t *ctx = _dm_msg_cache_get_ctx();
  87              		.loc 1 32 5
  11:C:/Users/stapi/OneDrive/Desktop/GD32VW553/V1_MQTT_OK/GD32VW55X_Wifi_BLE_SDK/GD32VW55x_RELEASE_V1.0.2/MSDK/cloud/alicloud/src/services/linkkit/dm\dm_message_cache.c **** }
  88              		.loc 1 11 5
  89              	.LVL4:
  33:C:/Users/stapi/OneDrive/Desktop/GD32VW553/V1_MQTT_OK/GD32VW55X_Wifi_BLE_SDK/GD32VW55x_RELEASE_V1.0.2/MSDK/cloud/alicloud/src/services/linkkit/dm\dm_message_cache.c **** 
  34:C:/Users/stapi/OneDrive/Desktop/GD32VW553/V1_MQTT_OK/GD32VW55X_Wifi_BLE_SDK/GD32VW55x_RELEASE_V1.0.2/MSDK/cloud/alicloud/src/services/linkkit/dm\dm_message_cache.c ****     memset(ctx, 0, sizeof(dm_msg_cache_ctx_t));
  90              		.loc 1 34 5
  91 0008 37040000 		lui	s0,%hi(.LANCHOR0)
  92 000c 13040400 		addi	s0,s0,%lo(.LANCHOR0)
  93 0010 23200400 		sw	zero,0(s0)
  94 0014 23220400 		sw	zero,4(s0)
  95 0018 23240400 		sw	zero,8(s0)
  96 001c 23260400 		sw	zero,12(s0)
  35:C:/Users/stapi/OneDrive/Desktop/GD32VW553/V1_MQTT_OK/GD32VW55X_Wifi_BLE_SDK/GD32VW55x_RELEASE_V1.0.2/MSDK/cloud/alicloud/src/services/linkkit/dm\dm_message_cache.c **** 
  36:C:/Users/stapi/OneDrive/Desktop/GD32VW553/V1_MQTT_OK/GD32VW55X_Wifi_BLE_SDK/GD32VW55x_RELEASE_V1.0.2/MSDK/cloud/alicloud/src/services/linkkit/dm\dm_message_cache.c ****     /* Create Mutex */
  37:C:/Users/stapi/OneDrive/Desktop/GD32VW553/V1_MQTT_OK/GD32VW55X_Wifi_BLE_SDK/GD32VW55x_RELEASE_V1.0.2/MSDK/cloud/alicloud/src/services/linkkit/dm\dm_message_cache.c ****     ctx->mutex = HAL_MutexCreate();
  97              		.loc 1 37 5
  98              		.loc 1 37 18 is_stmt 0
  99 0020 97000000 		call	HAL_MutexCreate
  99      E7800000 
 100              	.LVL5:
 101 0028 AA87     		mv	a5,a0
 102              		.loc 1 37 16
 103 002a 08C0     		sw	a0,0(s0)
  38:C:/Users/stapi/OneDrive/Desktop/GD32VW553/V1_MQTT_OK/GD32VW55X_Wifi_BLE_SDK/GD32VW55x_RELEASE_V1.0.2/MSDK/cloud/alicloud/src/services/linkkit/dm\dm_message_cache.c ****     if (ctx->mutex == NULL) {
 104              		.loc 1 38 5 is_stmt 1
 105 002c 7555     		li	a0,-3
 106              		.loc 1 38 8 is_stmt 0
 107 002e 91C7     		beq	a5,zero,.L20
  39:C:/Users/stapi/OneDrive/Desktop/GD32VW553/V1_MQTT_OK/GD32VW55X_Wifi_BLE_SDK/GD32VW55x_RELEASE_V1.0.2/MSDK/cloud/alicloud/src/services/linkkit/dm\dm_message_cache.c ****         return DM_MEMORY_NOT_ENOUGH;
  40:C:/Users/stapi/OneDrive/Desktop/GD32VW553/V1_MQTT_OK/GD32VW55X_Wifi_BLE_SDK/GD32VW55x_RELEASE_V1.0.2/MSDK/cloud/alicloud/src/services/linkkit/dm\dm_message_cache.c ****     }
  41:C:/Users/stapi/OneDrive/Desktop/GD32VW553/V1_MQTT_OK/GD32VW55X_Wifi_BLE_SDK/GD32VW55x_RELEASE_V1.0.2/MSDK/cloud/alicloud/src/services/linkkit/dm\dm_message_cache.c **** 
  42:C:/Users/stapi/OneDrive/Desktop/GD32VW553/V1_MQTT_OK/GD32VW55X_Wifi_BLE_SDK/GD32VW55x_RELEASE_V1.0.2/MSDK/cloud/alicloud/src/services/linkkit/dm\dm_message_cache.c ****     /* Init Message Cache List */
  43:C:/Users/stapi/OneDrive/Desktop/GD32VW553/V1_MQTT_OK/GD32VW55X_Wifi_BLE_SDK/GD32VW55x_RELEASE_V1.0.2/MSDK/cloud/alicloud/src/services/linkkit/dm\dm_message_cache.c ****     INIT_LIST_HEAD(&ctx->dmc_list);
 108              		.loc 1 43 5 is_stmt 1
 109              	.LVL6:
 110              	.LBB28:
 111              	.LBB29:
 112              		.file 2 "..\\..\\..\\..\\cloud\\alicloud\\src\\infra\\utils\\misc/lite-list.h"
   1:..\..\..\..\cloud\alicloud\src\infra\utils\misc/lite-list.h **** /*
   2:..\..\..\..\cloud\alicloud\src\infra\utils\misc/lite-list.h ****  * Copyright (C) 2015-2018 Alibaba Group Holding Limited
   3:..\..\..\..\cloud\alicloud\src\infra\utils\misc/lite-list.h ****  */
   4:..\..\..\..\cloud\alicloud\src\infra\utils\misc/lite-list.h **** 
   5:..\..\..\..\cloud\alicloud\src\infra\utils\misc/lite-list.h **** #ifndef AOS_LIST_H
   6:..\..\..\..\cloud\alicloud\src\infra\utils\misc/lite-list.h **** #define AOS_LIST_H
   7:..\..\..\..\cloud\alicloud\src\infra\utils\misc/lite-list.h **** 
   8:..\..\..\..\cloud\alicloud\src\infra\utils\misc/lite-list.h **** #ifdef __cplusplus
   9:..\..\..\..\cloud\alicloud\src\infra\utils\misc/lite-list.h **** extern "C" {
  10:..\..\..\..\cloud\alicloud\src\infra\utils\misc/lite-list.h **** #endif
  11:..\..\..\..\cloud\alicloud\src\infra\utils\misc/lite-list.h **** 
  12:..\..\..\..\cloud\alicloud\src\infra\utils\misc/lite-list.h **** /*
  13:..\..\..\..\cloud\alicloud\src\infra\utils\misc/lite-list.h ****  * Get offset of a member variable.
  14:..\..\..\..\cloud\alicloud\src\infra\utils\misc/lite-list.h ****  *
  15:..\..\..\..\cloud\alicloud\src\infra\utils\misc/lite-list.h ****  * @param[in]   type     the type of the struct this is embedded in.
  16:..\..\..\..\cloud\alicloud\src\infra\utils\misc/lite-list.h ****  * @param[in]   member   the name of the variable within the struct.
  17:..\..\..\..\cloud\alicloud\src\infra\utils\misc/lite-list.h ****  */
  18:..\..\..\..\cloud\alicloud\src\infra\utils\misc/lite-list.h **** #define aos_offsetof(type, member)   ((size_t)&(((type *)0)->member))
  19:..\..\..\..\cloud\alicloud\src\infra\utils\misc/lite-list.h **** 
  20:..\..\..\..\cloud\alicloud\src\infra\utils\misc/lite-list.h **** /*
  21:..\..\..\..\cloud\alicloud\src\infra\utils\misc/lite-list.h ****  * Get the struct for this entry.
  22:..\..\..\..\cloud\alicloud\src\infra\utils\misc/lite-list.h ****  *
  23:..\..\..\..\cloud\alicloud\src\infra\utils\misc/lite-list.h ****  * @param[in]   ptr     the list head to take the element from.
  24:..\..\..\..\cloud\alicloud\src\infra\utils\misc/lite-list.h ****  * @param[in]   type    the type of the struct this is embedded in.
  25:..\..\..\..\cloud\alicloud\src\infra\utils\misc/lite-list.h ****  * @param[in]   member  the name of the variable within the struct.
  26:..\..\..\..\cloud\alicloud\src\infra\utils\misc/lite-list.h ****  */
  27:..\..\..\..\cloud\alicloud\src\infra\utils\misc/lite-list.h **** #define aos_container_of(ptr, type, member) \
  28:..\..\..\..\cloud\alicloud\src\infra\utils\misc/lite-list.h ****     ((type *) ((char *) (ptr) - aos_offsetof(type, member)))
  29:..\..\..\..\cloud\alicloud\src\infra\utils\misc/lite-list.h **** 
  30:..\..\..\..\cloud\alicloud\src\infra\utils\misc/lite-list.h **** /* for double link list */
  31:..\..\..\..\cloud\alicloud\src\infra\utils\misc/lite-list.h **** typedef struct dlist_s {
  32:..\..\..\..\cloud\alicloud\src\infra\utils\misc/lite-list.h ****     struct dlist_s *prev;
  33:..\..\..\..\cloud\alicloud\src\infra\utils\misc/lite-list.h ****     struct dlist_s *next;
  34:..\..\..\..\cloud\alicloud\src\infra\utils\misc/lite-list.h **** } dlist_t;
  35:..\..\..\..\cloud\alicloud\src\infra\utils\misc/lite-list.h **** 
  36:..\..\..\..\cloud\alicloud\src\infra\utils\misc/lite-list.h **** static inline void __dlist_add(dlist_t *node, dlist_t *prev, dlist_t *next)
  37:..\..\..\..\cloud\alicloud\src\infra\utils\misc/lite-list.h **** {
  38:..\..\..\..\cloud\alicloud\src\infra\utils\misc/lite-list.h ****     node->next = next;
  39:..\..\..\..\cloud\alicloud\src\infra\utils\misc/lite-list.h ****     node->prev = prev;
  40:..\..\..\..\cloud\alicloud\src\infra\utils\misc/lite-list.h **** 
  41:..\..\..\..\cloud\alicloud\src\infra\utils\misc/lite-list.h ****     prev->next = node;
  42:..\..\..\..\cloud\alicloud\src\infra\utils\misc/lite-list.h ****     next->prev = node;
  43:..\..\..\..\cloud\alicloud\src\infra\utils\misc/lite-list.h **** }
  44:..\..\..\..\cloud\alicloud\src\infra\utils\misc/lite-list.h **** 
  45:..\..\..\..\cloud\alicloud\src\infra\utils\misc/lite-list.h **** /*
  46:..\..\..\..\cloud\alicloud\src\infra\utils\misc/lite-list.h ****  * Get the struct for this entry.
  47:..\..\..\..\cloud\alicloud\src\infra\utils\misc/lite-list.h ****  *
  48:..\..\..\..\cloud\alicloud\src\infra\utils\misc/lite-list.h ****  * @param[in]   addr    the list head to take the element from.
  49:..\..\..\..\cloud\alicloud\src\infra\utils\misc/lite-list.h ****  * @param[in]   type    the type of the struct this is embedded in.
  50:..\..\..\..\cloud\alicloud\src\infra\utils\misc/lite-list.h ****  * @param[in]   member  the name of the dlist_t within the struct.
  51:..\..\..\..\cloud\alicloud\src\infra\utils\misc/lite-list.h ****  */
  52:..\..\..\..\cloud\alicloud\src\infra\utils\misc/lite-list.h **** #define dlist_entry(addr, type, member) \
  53:..\..\..\..\cloud\alicloud\src\infra\utils\misc/lite-list.h ****     ((type *)((long)addr - aos_offsetof(type, member)))
  54:..\..\..\..\cloud\alicloud\src\infra\utils\misc/lite-list.h **** 
  55:..\..\..\..\cloud\alicloud\src\infra\utils\misc/lite-list.h **** 
  56:..\..\..\..\cloud\alicloud\src\infra\utils\misc/lite-list.h **** static inline void dlist_add(dlist_t *node, dlist_t *queue)
  57:..\..\..\..\cloud\alicloud\src\infra\utils\misc/lite-list.h **** {
  58:..\..\..\..\cloud\alicloud\src\infra\utils\misc/lite-list.h ****     __dlist_add(node, queue, queue->next);
  59:..\..\..\..\cloud\alicloud\src\infra\utils\misc/lite-list.h **** }
  60:..\..\..\..\cloud\alicloud\src\infra\utils\misc/lite-list.h **** 
  61:..\..\..\..\cloud\alicloud\src\infra\utils\misc/lite-list.h **** static inline void dlist_add_tail(dlist_t *node, dlist_t *queue)
  62:..\..\..\..\cloud\alicloud\src\infra\utils\misc/lite-list.h **** {
  63:..\..\..\..\cloud\alicloud\src\infra\utils\misc/lite-list.h ****     __dlist_add(node, queue->prev, queue);
  64:..\..\..\..\cloud\alicloud\src\infra\utils\misc/lite-list.h **** }
  65:..\..\..\..\cloud\alicloud\src\infra\utils\misc/lite-list.h **** 
  66:..\..\..\..\cloud\alicloud\src\infra\utils\misc/lite-list.h **** static inline void dlist_del(dlist_t *node)
  67:..\..\..\..\cloud\alicloud\src\infra\utils\misc/lite-list.h **** {
  68:..\..\..\..\cloud\alicloud\src\infra\utils\misc/lite-list.h ****     dlist_t *prev = node->prev;
  69:..\..\..\..\cloud\alicloud\src\infra\utils\misc/lite-list.h ****     dlist_t *next = node->next;
  70:..\..\..\..\cloud\alicloud\src\infra\utils\misc/lite-list.h **** 
  71:..\..\..\..\cloud\alicloud\src\infra\utils\misc/lite-list.h ****     prev->next = next;
  72:..\..\..\..\cloud\alicloud\src\infra\utils\misc/lite-list.h ****     next->prev = prev;
  73:..\..\..\..\cloud\alicloud\src\infra\utils\misc/lite-list.h **** }
  74:..\..\..\..\cloud\alicloud\src\infra\utils\misc/lite-list.h **** 
  75:..\..\..\..\cloud\alicloud\src\infra\utils\misc/lite-list.h **** static inline void dlist_init(dlist_t *node)
  76:..\..\..\..\cloud\alicloud\src\infra\utils\misc/lite-list.h **** {
  77:..\..\..\..\cloud\alicloud\src\infra\utils\misc/lite-list.h ****     node->next = node->prev = node;
  78:..\..\..\..\cloud\alicloud\src\infra\utils\misc/lite-list.h **** }
  79:..\..\..\..\cloud\alicloud\src\infra\utils\misc/lite-list.h **** 
  80:..\..\..\..\cloud\alicloud\src\infra\utils\misc/lite-list.h **** static inline void INIT_AOS_DLIST_HEAD(dlist_t *list)
  81:..\..\..\..\cloud\alicloud\src\infra\utils\misc/lite-list.h **** {
  82:..\..\..\..\cloud\alicloud\src\infra\utils\misc/lite-list.h ****     list->next = list;
 113              		.loc 2 82 5
 114              		.loc 2 82 16 is_stmt 0
 115 0030 93078400 		addi	a5,s0,8
 116 0034 5CC4     		sw	a5,12(s0)
  83:..\..\..\..\cloud\alicloud\src\infra\utils\misc/lite-list.h ****     list->prev = list;
 117              		.loc 2 83 5 is_stmt 1
 118              		.loc 2 83 16 is_stmt 0
 119 0036 1CC4     		sw	a5,8(s0)
 120              	.LVL7:
 121              	.LBE29:
 122              	.LBE28:
  44:C:/Users/stapi/OneDrive/Desktop/GD32VW553/V1_MQTT_OK/GD32VW55X_Wifi_BLE_SDK/GD32VW55x_RELEASE_V1.0.2/MSDK/cloud/alicloud/src/services/linkkit/dm\dm_message_cache.c **** 
  45:C:/Users/stapi/OneDrive/Desktop/GD32VW553/V1_MQTT_OK/GD32VW55X_Wifi_BLE_SDK/GD32VW55x_RELEASE_V1.0.2/MSDK/cloud/alicloud/src/services/linkkit/dm\dm_message_cache.c ****     return SUCCESS_RETURN;
 123              		.loc 1 45 5 is_stmt 1
 124              		.loc 1 45 12 is_stmt 0
 125 0038 0145     		li	a0,0
 126              	.L20:
  46:C:/Users/stapi/OneDrive/Desktop/GD32VW553/V1_MQTT_OK/GD32VW55X_Wifi_BLE_SDK/GD32VW55x_RELEASE_V1.0.2/MSDK/cloud/alicloud/src/services/linkkit/dm\dm_message_cache.c **** }
 127              		.loc 1 46 1
 128 003a 17030000 		tail	__riscv_restore_1
 128      67000300 
 129              		.cfi_restore 8
 130              		.cfi_restore 1
 131              		.cfi_def_cfa_offset 0
 132              		.cfi_endproc
 133              	.LFE23:
 135              		.section	.text.dm_msg_cache_deinit,"ax",@progbits
 136              		.align	1
 137              		.globl	dm_msg_cache_deinit
 139              	dm_msg_cache_deinit:
 140              	.LFB24:
  47:C:/Users/stapi/OneDrive/Desktop/GD32VW553/V1_MQTT_OK/GD32VW55X_Wifi_BLE_SDK/GD32VW55x_RELEASE_V1.0.2/MSDK/cloud/alicloud/src/services/linkkit/dm\dm_message_cache.c **** 
  48:C:/Users/stapi/OneDrive/Desktop/GD32VW553/V1_MQTT_OK/GD32VW55X_Wifi_BLE_SDK/GD32VW55x_RELEASE_V1.0.2/MSDK/cloud/alicloud/src/services/linkkit/dm\dm_message_cache.c **** int dm_msg_cache_deinit(void)
  49:C:/Users/stapi/OneDrive/Desktop/GD32VW553/V1_MQTT_OK/GD32VW55X_Wifi_BLE_SDK/GD32VW55x_RELEASE_V1.0.2/MSDK/cloud/alicloud/src/services/linkkit/dm\dm_message_cache.c **** {
 141              		.loc 1 49 1 is_stmt 1
 142              		.cfi_startproc
 143 0000 17030000 		call	t0,__riscv_save_4
 143      E7020300 
 144              		.cfi_offset 19, -20
 145              		.cfi_offset 18, -16
 146              		.cfi_offset 9, -12
 147              		.cfi_offset 8, -8
 148              		.cfi_offset 1, -4
 149              		.cfi_def_cfa_offset 32
  50:C:/Users/stapi/OneDrive/Desktop/GD32VW553/V1_MQTT_OK/GD32VW55X_Wifi_BLE_SDK/GD32VW55x_RELEASE_V1.0.2/MSDK/cloud/alicloud/src/services/linkkit/dm\dm_message_cache.c ****     dm_msg_cache_ctx_t *ctx = _dm_msg_cache_get_ctx();
 150              		.loc 1 50 5
  11:C:/Users/stapi/OneDrive/Desktop/GD32VW553/V1_MQTT_OK/GD32VW55X_Wifi_BLE_SDK/GD32VW55x_RELEASE_V1.0.2/MSDK/cloud/alicloud/src/services/linkkit/dm\dm_message_cache.c **** }
 151              		.loc 1 11 5
 152              	.LVL8:
  51:C:/Users/stapi/OneDrive/Desktop/GD32VW553/V1_MQTT_OK/GD32VW55X_Wifi_BLE_SDK/GD32VW55x_RELEASE_V1.0.2/MSDK/cloud/alicloud/src/services/linkkit/dm\dm_message_cache.c ****     dm_msg_cache_node_t *node = NULL;
 153              		.loc 1 51 5
  52:C:/Users/stapi/OneDrive/Desktop/GD32VW553/V1_MQTT_OK/GD32VW55X_Wifi_BLE_SDK/GD32VW55x_RELEASE_V1.0.2/MSDK/cloud/alicloud/src/services/linkkit/dm\dm_message_cache.c ****     dm_msg_cache_node_t *next = NULL;
 154              		.loc 1 52 5
  53:C:/Users/stapi/OneDrive/Desktop/GD32VW553/V1_MQTT_OK/GD32VW55X_Wifi_BLE_SDK/GD32VW55x_RELEASE_V1.0.2/MSDK/cloud/alicloud/src/services/linkkit/dm\dm_message_cache.c **** 
  54:C:/Users/stapi/OneDrive/Desktop/GD32VW553/V1_MQTT_OK/GD32VW55X_Wifi_BLE_SDK/GD32VW55x_RELEASE_V1.0.2/MSDK/cloud/alicloud/src/services/linkkit/dm\dm_message_cache.c ****     _dm_msg_cache_mutex_lock();
 155              		.loc 1 54 5
 156 0008 97000000 		call	_dm_msg_cache_mutex_lock
 156      E7800000 
 157              	.LVL9:
  55:C:/Users/stapi/OneDrive/Desktop/GD32VW553/V1_MQTT_OK/GD32VW55X_Wifi_BLE_SDK/GD32VW55x_RELEASE_V1.0.2/MSDK/cloud/alicloud/src/services/linkkit/dm\dm_message_cache.c ****     list_for_each_entry_safe(node, next, &ctx->dmc_list, linked_list, dm_msg_cache_node_t) {
 158              		.loc 1 55 5
 159 0010 B7040000 		lui	s1,%hi(.LANCHOR0)
 160 0014 93870400 		addi	a5,s1,%lo(.LANCHOR0)
 161 0018 DC47     		lw	a5,12(a5)
 162 001a 93840400 		addi	s1,s1,%lo(.LANCHOR0)
 163 001e 93898400 		addi	s3,s1,8
 164 0022 03A94700 		lw	s2,4(a5)
 165 0026 138487FE 		addi	s0,a5,-24
 166              	.LVL10:
 167 002a 2119     		addi	s2,s2,-24
 168              	.LVL11:
 169              	.L26:
 170              		.loc 1 55 5 discriminator 2
 171 002c 93078401 		addi	a5,s0,24
 172 0030 63913703 		bne	a5,s3,.L28
  56:C:/Users/stapi/OneDrive/Desktop/GD32VW553/V1_MQTT_OK/GD32VW55X_Wifi_BLE_SDK/GD32VW55x_RELEASE_V1.0.2/MSDK/cloud/alicloud/src/services/linkkit/dm\dm_message_cache.c ****         list_del(&node->linked_list);
  57:C:/Users/stapi/OneDrive/Desktop/GD32VW553/V1_MQTT_OK/GD32VW55X_Wifi_BLE_SDK/GD32VW55x_RELEASE_V1.0.2/MSDK/cloud/alicloud/src/services/linkkit/dm\dm_message_cache.c ****         if (node->data) {
  58:C:/Users/stapi/OneDrive/Desktop/GD32VW553/V1_MQTT_OK/GD32VW55X_Wifi_BLE_SDK/GD32VW55x_RELEASE_V1.0.2/MSDK/cloud/alicloud/src/services/linkkit/dm\dm_message_cache.c ****             DM_free(node->data);
  59:C:/Users/stapi/OneDrive/Desktop/GD32VW553/V1_MQTT_OK/GD32VW55X_Wifi_BLE_SDK/GD32VW55x_RELEASE_V1.0.2/MSDK/cloud/alicloud/src/services/linkkit/dm\dm_message_cache.c ****         }
  60:C:/Users/stapi/OneDrive/Desktop/GD32VW553/V1_MQTT_OK/GD32VW55X_Wifi_BLE_SDK/GD32VW55x_RELEASE_V1.0.2/MSDK/cloud/alicloud/src/services/linkkit/dm\dm_message_cache.c ****         DM_free(node);
  61:C:/Users/stapi/OneDrive/Desktop/GD32VW553/V1_MQTT_OK/GD32VW55X_Wifi_BLE_SDK/GD32VW55x_RELEASE_V1.0.2/MSDK/cloud/alicloud/src/services/linkkit/dm\dm_message_cache.c ****         // _dm_msg_cache_mutex_unlock();
  62:C:/Users/stapi/OneDrive/Desktop/GD32VW553/V1_MQTT_OK/GD32VW55X_Wifi_BLE_SDK/GD32VW55x_RELEASE_V1.0.2/MSDK/cloud/alicloud/src/services/linkkit/dm\dm_message_cache.c ****     }
  63:C:/Users/stapi/OneDrive/Desktop/GD32VW553/V1_MQTT_OK/GD32VW55X_Wifi_BLE_SDK/GD32VW55x_RELEASE_V1.0.2/MSDK/cloud/alicloud/src/services/linkkit/dm\dm_message_cache.c ****     _dm_msg_cache_mutex_unlock();
 173              		.loc 1 63 5
 174 0034 97000000 		call	_dm_msg_cache_mutex_unlock
 174      E7800000 
 175              	.LVL12:
  64:C:/Users/stapi/OneDrive/Desktop/GD32VW553/V1_MQTT_OK/GD32VW55X_Wifi_BLE_SDK/GD32VW55x_RELEASE_V1.0.2/MSDK/cloud/alicloud/src/services/linkkit/dm\dm_message_cache.c **** 
  65:C:/Users/stapi/OneDrive/Desktop/GD32VW553/V1_MQTT_OK/GD32VW55X_Wifi_BLE_SDK/GD32VW55x_RELEASE_V1.0.2/MSDK/cloud/alicloud/src/services/linkkit/dm\dm_message_cache.c ****     if (ctx->mutex) {
 176              		.loc 1 65 5
 177              		.loc 1 65 12 is_stmt 0
 178 003c 8840     		lw	a0,0(s1)
 179              		.loc 1 65 8
 180 003e 09C5     		beq	a0,zero,.L29
  66:C:/Users/stapi/OneDrive/Desktop/GD32VW553/V1_MQTT_OK/GD32VW55X_Wifi_BLE_SDK/GD32VW55x_RELEASE_V1.0.2/MSDK/cloud/alicloud/src/services/linkkit/dm\dm_message_cache.c ****         HAL_MutexDestroy(ctx->mutex);
 181              		.loc 1 66 9 is_stmt 1
 182 0040 97000000 		call	HAL_MutexDestroy
 182      E7800000 
 183              	.LVL13:
 184              	.L29:
  67:C:/Users/stapi/OneDrive/Desktop/GD32VW553/V1_MQTT_OK/GD32VW55X_Wifi_BLE_SDK/GD32VW55x_RELEASE_V1.0.2/MSDK/cloud/alicloud/src/services/linkkit/dm\dm_message_cache.c ****     }
  68:C:/Users/stapi/OneDrive/Desktop/GD32VW553/V1_MQTT_OK/GD32VW55X_Wifi_BLE_SDK/GD32VW55x_RELEASE_V1.0.2/MSDK/cloud/alicloud/src/services/linkkit/dm\dm_message_cache.c **** 
  69:C:/Users/stapi/OneDrive/Desktop/GD32VW553/V1_MQTT_OK/GD32VW55X_Wifi_BLE_SDK/GD32VW55x_RELEASE_V1.0.2/MSDK/cloud/alicloud/src/services/linkkit/dm\dm_message_cache.c ****     return SUCCESS_RETURN;
 185              		.loc 1 69 5
  70:C:/Users/stapi/OneDrive/Desktop/GD32VW553/V1_MQTT_OK/GD32VW55X_Wifi_BLE_SDK/GD32VW55x_RELEASE_V1.0.2/MSDK/cloud/alicloud/src/services/linkkit/dm\dm_message_cache.c **** }
 186              		.loc 1 70 1 is_stmt 0
 187 0048 0145     		li	a0,0
 188 004a 17030000 		tail	__riscv_restore_4
 188      67000300 
 189              		.cfi_remember_state
 190              		.cfi_restore 19
 191              		.cfi_restore 18
 192              		.cfi_restore 9
 193              		.cfi_restore 8
 194              		.cfi_restore 1
 195              		.cfi_def_cfa_offset 0
 196              	.L28:
 197              		.cfi_restore_state
  56:C:/Users/stapi/OneDrive/Desktop/GD32VW553/V1_MQTT_OK/GD32VW55X_Wifi_BLE_SDK/GD32VW55x_RELEASE_V1.0.2/MSDK/cloud/alicloud/src/services/linkkit/dm\dm_message_cache.c ****         if (node->data) {
 198              		.loc 1 56 9 is_stmt 1
 199              	.LVL14:
 200              	.LBB32:
 201              	.LBB33:
  68:..\..\..\..\cloud\alicloud\src\infra\utils\misc/lite-list.h ****     dlist_t *next = node->next;
 202              		.loc 2 68 5
  68:..\..\..\..\cloud\alicloud\src\infra\utils\misc/lite-list.h ****     dlist_t *next = node->next;
 203              		.loc 2 68 14 is_stmt 0
 204 0052 184C     		lw	a4,24(s0)
 205              	.LVL15:
  69:..\..\..\..\cloud\alicloud\src\infra\utils\misc/lite-list.h **** 
 206              		.loc 2 69 5 is_stmt 1
  69:..\..\..\..\cloud\alicloud\src\infra\utils\misc/lite-list.h **** 
 207              		.loc 2 69 14 is_stmt 0
 208 0054 5C4C     		lw	a5,28(s0)
 209              	.LVL16:
  71:..\..\..\..\cloud\alicloud\src\infra\utils\misc/lite-list.h ****     next->prev = prev;
 210              		.loc 2 71 5 is_stmt 1
 211              	.LBE33:
 212              	.LBE32:
  57:C:/Users/stapi/OneDrive/Desktop/GD32VW553/V1_MQTT_OK/GD32VW55X_Wifi_BLE_SDK/GD32VW55x_RELEASE_V1.0.2/MSDK/cloud/alicloud/src/services/linkkit/dm\dm_message_cache.c ****             DM_free(node->data);
 213              		.loc 1 57 17 is_stmt 0
 214 0056 4844     		lw	a0,12(s0)
 215              	.LBB35:
 216              	.LBB34:
  71:..\..\..\..\cloud\alicloud\src\infra\utils\misc/lite-list.h ****     next->prev = prev;
 217              		.loc 2 71 16
 218 0058 5CC3     		sw	a5,4(a4)
  72:..\..\..\..\cloud\alicloud\src\infra\utils\misc/lite-list.h **** }
 219              		.loc 2 72 5 is_stmt 1
  72:..\..\..\..\cloud\alicloud\src\infra\utils\misc/lite-list.h **** }
 220              		.loc 2 72 16 is_stmt 0
 221 005a 98C3     		sw	a4,0(a5)
 222              	.LVL17:
 223              	.LBE34:
 224              	.LBE35:
  57:C:/Users/stapi/OneDrive/Desktop/GD32VW553/V1_MQTT_OK/GD32VW55X_Wifi_BLE_SDK/GD32VW55x_RELEASE_V1.0.2/MSDK/cloud/alicloud/src/services/linkkit/dm\dm_message_cache.c ****             DM_free(node->data);
 225              		.loc 1 57 9 is_stmt 1
  57:C:/Users/stapi/OneDrive/Desktop/GD32VW553/V1_MQTT_OK/GD32VW55X_Wifi_BLE_SDK/GD32VW55x_RELEASE_V1.0.2/MSDK/cloud/alicloud/src/services/linkkit/dm\dm_message_cache.c ****             DM_free(node->data);
 226              		.loc 1 57 12 is_stmt 0
 227 005c 19C5     		beq	a0,zero,.L27
  58:C:/Users/stapi/OneDrive/Desktop/GD32VW553/V1_MQTT_OK/GD32VW55X_Wifi_BLE_SDK/GD32VW55x_RELEASE_V1.0.2/MSDK/cloud/alicloud/src/services/linkkit/dm\dm_message_cache.c ****         }
 228              		.loc 1 58 13 is_stmt 1
 229 005e 97000000 		call	LITE_free_internal
 229      E7800000 
 230              	.LVL18:
  58:C:/Users/stapi/OneDrive/Desktop/GD32VW553/V1_MQTT_OK/GD32VW55X_Wifi_BLE_SDK/GD32VW55x_RELEASE_V1.0.2/MSDK/cloud/alicloud/src/services/linkkit/dm\dm_message_cache.c ****         }
 231              		.loc 1 58 13
 232 0066 23260400 		sw	zero,12(s0)
 233              	.L27:
  58:C:/Users/stapi/OneDrive/Desktop/GD32VW553/V1_MQTT_OK/GD32VW55X_Wifi_BLE_SDK/GD32VW55x_RELEASE_V1.0.2/MSDK/cloud/alicloud/src/services/linkkit/dm\dm_message_cache.c ****         }
 234              		.loc 1 58 32 discriminator 1
  60:C:/Users/stapi/OneDrive/Desktop/GD32VW553/V1_MQTT_OK/GD32VW55X_Wifi_BLE_SDK/GD32VW55x_RELEASE_V1.0.2/MSDK/cloud/alicloud/src/services/linkkit/dm\dm_message_cache.c ****         // _dm_msg_cache_mutex_unlock();
 235              		.loc 1 60 9 discriminator 1
 236 006a 2285     		mv	a0,s0
 237 006c 97000000 		call	LITE_free_internal
 237      E7800000 
 238              	.LVL19:
  60:C:/Users/stapi/OneDrive/Desktop/GD32VW553/V1_MQTT_OK/GD32VW55X_Wifi_BLE_SDK/GD32VW55x_RELEASE_V1.0.2/MSDK/cloud/alicloud/src/services/linkkit/dm\dm_message_cache.c ****         // _dm_msg_cache_mutex_unlock();
 239              		.loc 1 60 9 discriminator 1
  60:C:/Users/stapi/OneDrive/Desktop/GD32VW553/V1_MQTT_OK/GD32VW55X_Wifi_BLE_SDK/GD32VW55x_RELEASE_V1.0.2/MSDK/cloud/alicloud/src/services/linkkit/dm\dm_message_cache.c ****         // _dm_msg_cache_mutex_unlock();
 240              		.loc 1 60 22 discriminator 1
  55:C:/Users/stapi/OneDrive/Desktop/GD32VW553/V1_MQTT_OK/GD32VW55X_Wifi_BLE_SDK/GD32VW55x_RELEASE_V1.0.2/MSDK/cloud/alicloud/src/services/linkkit/dm\dm_message_cache.c ****         list_del(&node->linked_list);
 241              		.loc 1 55 5 discriminator 1
 242 0074 8327C901 		lw	a5,28(s2)
 243              	.LVL20:
 244 0078 4A84     		mv	s0,s2
 245 007a 138987FE 		addi	s2,a5,-24
 246              	.LVL21:
 247 007e 7DB7     		j	.L26
 248              		.cfi_endproc
 249              	.LFE24:
 251              		.section	.rodata.dm_msg_cache_insert.str1.4,"aMS",@progbits,1
 252              		.align	2
 253              	.LC0:
 254 0000 646D6320 		.string	"dmc list size: %d"
 254      6C697374 
 254      2073697A 
 254      653A2025 
 254      6400
 255 0012 0000     		.align	2
 256              	.LC1:
 257 0014 444D00   		.string	"DM"
 258              		.section	.text.dm_msg_cache_insert,"ax",@progbits
 259              		.align	1
 260              		.globl	dm_msg_cache_insert
 262              	dm_msg_cache_insert:
 263              	.LFB25:
  71:C:/Users/stapi/OneDrive/Desktop/GD32VW553/V1_MQTT_OK/GD32VW55X_Wifi_BLE_SDK/GD32VW55x_RELEASE_V1.0.2/MSDK/cloud/alicloud/src/services/linkkit/dm\dm_message_cache.c **** 
  72:C:/Users/stapi/OneDrive/Desktop/GD32VW553/V1_MQTT_OK/GD32VW55X_Wifi_BLE_SDK/GD32VW55x_RELEASE_V1.0.2/MSDK/cloud/alicloud/src/services/linkkit/dm\dm_message_cache.c **** int dm_msg_cache_insert(int msgid, int devid, iotx_dm_event_types_t type, char *data)
  73:C:/Users/stapi/OneDrive/Desktop/GD32VW553/V1_MQTT_OK/GD32VW55X_Wifi_BLE_SDK/GD32VW55x_RELEASE_V1.0.2/MSDK/cloud/alicloud/src/services/linkkit/dm\dm_message_cache.c **** {
 264              		.loc 1 73 1
 265              		.cfi_startproc
 266              	.LVL22:
 267 0000 17030000 		call	t0,__riscv_save_6
 267      E7020300 
 268              		.cfi_offset 21, -28
 269              		.cfi_offset 20, -24
 270              		.cfi_offset 19, -20
 271              		.cfi_offset 18, -16
 272              		.cfi_offset 9, -12
 273              		.cfi_offset 8, -8
 274              		.cfi_offset 1, -4
 275              		.cfi_def_cfa_offset 32
  74:C:/Users/stapi/OneDrive/Desktop/GD32VW553/V1_MQTT_OK/GD32VW55X_Wifi_BLE_SDK/GD32VW55x_RELEASE_V1.0.2/MSDK/cloud/alicloud/src/services/linkkit/dm\dm_message_cache.c ****     dm_msg_cache_ctx_t *ctx = _dm_msg_cache_get_ctx();
 276              		.loc 1 74 5
  11:C:/Users/stapi/OneDrive/Desktop/GD32VW553/V1_MQTT_OK/GD32VW55X_Wifi_BLE_SDK/GD32VW55x_RELEASE_V1.0.2/MSDK/cloud/alicloud/src/services/linkkit/dm\dm_message_cache.c **** }
 277              		.loc 1 11 5
 278              	.LVL23:
  75:C:/Users/stapi/OneDrive/Desktop/GD32VW553/V1_MQTT_OK/GD32VW55X_Wifi_BLE_SDK/GD32VW55x_RELEASE_V1.0.2/MSDK/cloud/alicloud/src/services/linkkit/dm\dm_message_cache.c ****     dm_msg_cache_node_t *node = NULL;
 279              		.loc 1 75 5
  76:C:/Users/stapi/OneDrive/Desktop/GD32VW553/V1_MQTT_OK/GD32VW55X_Wifi_BLE_SDK/GD32VW55x_RELEASE_V1.0.2/MSDK/cloud/alicloud/src/services/linkkit/dm\dm_message_cache.c **** 
  77:C:/Users/stapi/OneDrive/Desktop/GD32VW553/V1_MQTT_OK/GD32VW55X_Wifi_BLE_SDK/GD32VW55x_RELEASE_V1.0.2/MSDK/cloud/alicloud/src/services/linkkit/dm\dm_message_cache.c ****     dm_log_debug("dmc list size: %d", ctx->dmc_list_size);
 280              		.loc 1 77 5
 281 0008 B7040000 		lui	s1,%hi(.LANCHOR0)
 282 000c 93840400 		addi	s1,s1,%lo(.LANCHOR0)
 283 0010 DC40     		lw	a5,4(s1)
  73:C:/Users/stapi/OneDrive/Desktop/GD32VW553/V1_MQTT_OK/GD32VW55X_Wifi_BLE_SDK/GD32VW55x_RELEASE_V1.0.2/MSDK/cloud/alicloud/src/services/linkkit/dm\dm_message_cache.c ****     dm_msg_cache_ctx_t *ctx = _dm_msg_cache_get_ctx();
 284              		.loc 1 73 1 is_stmt 0
 285 0012 AA8A     		mv	s5,a0
 286 0014 2E8A     		mv	s4,a1
 287              		.loc 1 77 5
 288 0016 37070000 		lui	a4,%hi(.LC0)
 289 001a B7050000 		lui	a1,%hi(.LANCHOR1)
 290              	.LVL24:
 291 001e 37050000 		lui	a0,%hi(.LC1)
 292              	.LVL25:
 293 0022 13070700 		addi	a4,a4,%lo(.LC0)
 294 0026 13050500 		addi	a0,a0,%lo(.LC1)
  73:C:/Users/stapi/OneDrive/Desktop/GD32VW553/V1_MQTT_OK/GD32VW55X_Wifi_BLE_SDK/GD32VW55x_RELEASE_V1.0.2/MSDK/cloud/alicloud/src/services/linkkit/dm\dm_message_cache.c ****     dm_msg_cache_ctx_t *ctx = _dm_msg_cache_get_ctx();
 295              		.loc 1 73 1
 296 002a B289     		mv	s3,a2
 297 002c 3689     		mv	s2,a3
 298              		.loc 1 77 5
 299 002e 1306D004 		li	a2,77
 300              	.LVL26:
 301 0032 9546     		li	a3,5
 302              	.LVL27:
 303 0034 93850500 		addi	a1,a1,%lo(.LANCHOR1)
 304 0038 97000000 		call	LITE_syslog
 304      E7800000 
 305              	.LVL28:
  78:C:/Users/stapi/OneDrive/Desktop/GD32VW553/V1_MQTT_OK/GD32VW55X_Wifi_BLE_SDK/GD32VW55x_RELEASE_V1.0.2/MSDK/cloud/alicloud/src/services/linkkit/dm\dm_message_cache.c ****     if (ctx->dmc_list_size >= CONFIG_MSGCACHE_QUEUE_MAXLEN) {
 306              		.loc 1 78 5 is_stmt 1
 307              		.loc 1 78 8 is_stmt 0
 308 0040 D840     		lw	a4,4(s1)
 309 0042 CD47     		li	a5,19
  79:C:/Users/stapi/OneDrive/Desktop/GD32VW553/V1_MQTT_OK/GD32VW55X_Wifi_BLE_SDK/GD32VW55x_RELEASE_V1.0.2/MSDK/cloud/alicloud/src/services/linkkit/dm\dm_message_cache.c ****         return FAIL_RETURN;
 310              		.loc 1 79 16
 311 0044 7D55     		li	a0,-1
  78:C:/Users/stapi/OneDrive/Desktop/GD32VW553/V1_MQTT_OK/GD32VW55X_Wifi_BLE_SDK/GD32VW55x_RELEASE_V1.0.2/MSDK/cloud/alicloud/src/services/linkkit/dm\dm_message_cache.c ****     if (ctx->dmc_list_size >= CONFIG_MSGCACHE_QUEUE_MAXLEN) {
 312              		.loc 1 78 8
 313 0046 63CEE706 		bgt	a4,a5,.L37
  80:C:/Users/stapi/OneDrive/Desktop/GD32VW553/V1_MQTT_OK/GD32VW55X_Wifi_BLE_SDK/GD32VW55x_RELEASE_V1.0.2/MSDK/cloud/alicloud/src/services/linkkit/dm\dm_message_cache.c ****     }
  81:C:/Users/stapi/OneDrive/Desktop/GD32VW553/V1_MQTT_OK/GD32VW55X_Wifi_BLE_SDK/GD32VW55x_RELEASE_V1.0.2/MSDK/cloud/alicloud/src/services/linkkit/dm\dm_message_cache.c **** 
  82:C:/Users/stapi/OneDrive/Desktop/GD32VW553/V1_MQTT_OK/GD32VW55X_Wifi_BLE_SDK/GD32VW55x_RELEASE_V1.0.2/MSDK/cloud/alicloud/src/services/linkkit/dm\dm_message_cache.c ****     node = DM_malloc(sizeof(dm_msg_cache_node_t));
 314              		.loc 1 82 5 is_stmt 1
 315              		.loc 1 82 12 is_stmt 0
 316 004a 13060002 		li	a2,32
 317 004e 8145     		li	a1,0
 318 0050 0145     		li	a0,0
 319 0052 97000000 		call	LITE_malloc_internal
 319      E7800000 
 320              	.LVL29:
 321 005a 2A84     		mv	s0,a0
 322              	.LVL30:
  83:C:/Users/stapi/OneDrive/Desktop/GD32VW553/V1_MQTT_OK/GD32VW55X_Wifi_BLE_SDK/GD32VW55x_RELEASE_V1.0.2/MSDK/cloud/alicloud/src/services/linkkit/dm\dm_message_cache.c ****     if (node == NULL) {
 323              		.loc 1 83 5 is_stmt 1
  84:C:/Users/stapi/OneDrive/Desktop/GD32VW553/V1_MQTT_OK/GD32VW55X_Wifi_BLE_SDK/GD32VW55x_RELEASE_V1.0.2/MSDK/cloud/alicloud/src/services/linkkit/dm\dm_message_cache.c ****         return DM_MEMORY_NOT_ENOUGH;
 324              		.loc 1 84 16 is_stmt 0
 325 005c 7555     		li	a0,-3
  83:C:/Users/stapi/OneDrive/Desktop/GD32VW553/V1_MQTT_OK/GD32VW55X_Wifi_BLE_SDK/GD32VW55x_RELEASE_V1.0.2/MSDK/cloud/alicloud/src/services/linkkit/dm\dm_message_cache.c ****     if (node == NULL) {
 326              		.loc 1 83 8
 327 005e 35C0     		beq	s0,zero,.L37
  85:C:/Users/stapi/OneDrive/Desktop/GD32VW553/V1_MQTT_OK/GD32VW55X_Wifi_BLE_SDK/GD32VW55x_RELEASE_V1.0.2/MSDK/cloud/alicloud/src/services/linkkit/dm\dm_message_cache.c ****     }
  86:C:/Users/stapi/OneDrive/Desktop/GD32VW553/V1_MQTT_OK/GD32VW55X_Wifi_BLE_SDK/GD32VW55x_RELEASE_V1.0.2/MSDK/cloud/alicloud/src/services/linkkit/dm\dm_message_cache.c ****     memset(node, 0, sizeof(dm_msg_cache_node_t));
 328              		.loc 1 86 5 is_stmt 1
 329 0060 4146     		li	a2,16
 330 0062 8145     		li	a1,0
 331 0064 13050401 		addi	a0,s0,16
 332 0068 97000000 		call	memset
 332      E7800000 
 333              	.LVL31:
  87:C:/Users/stapi/OneDrive/Desktop/GD32VW553/V1_MQTT_OK/GD32VW55X_Wifi_BLE_SDK/GD32VW55x_RELEASE_V1.0.2/MSDK/cloud/alicloud/src/services/linkkit/dm\dm_message_cache.c **** 
  88:C:/Users/stapi/OneDrive/Desktop/GD32VW553/V1_MQTT_OK/GD32VW55X_Wifi_BLE_SDK/GD32VW55x_RELEASE_V1.0.2/MSDK/cloud/alicloud/src/services/linkkit/dm\dm_message_cache.c ****     node->msgid = msgid;
 334              		.loc 1 88 5
  89:C:/Users/stapi/OneDrive/Desktop/GD32VW553/V1_MQTT_OK/GD32VW55X_Wifi_BLE_SDK/GD32VW55x_RELEASE_V1.0.2/MSDK/cloud/alicloud/src/services/linkkit/dm\dm_message_cache.c ****     node->devid = devid;
  90:C:/Users/stapi/OneDrive/Desktop/GD32VW553/V1_MQTT_OK/GD32VW55X_Wifi_BLE_SDK/GD32VW55x_RELEASE_V1.0.2/MSDK/cloud/alicloud/src/services/linkkit/dm\dm_message_cache.c ****     node->response_type = type;
  91:C:/Users/stapi/OneDrive/Desktop/GD32VW553/V1_MQTT_OK/GD32VW55X_Wifi_BLE_SDK/GD32VW55x_RELEASE_V1.0.2/MSDK/cloud/alicloud/src/services/linkkit/dm\dm_message_cache.c ****     node->data = data;
 335              		.loc 1 91 16 is_stmt 0
 336 0070 23262401 		sw	s2,12(s0)
  88:C:/Users/stapi/OneDrive/Desktop/GD32VW553/V1_MQTT_OK/GD32VW55X_Wifi_BLE_SDK/GD32VW55x_RELEASE_V1.0.2/MSDK/cloud/alicloud/src/services/linkkit/dm\dm_message_cache.c ****     node->devid = devid;
 337              		.loc 1 88 17
 338 0074 23205401 		sw	s5,0(s0)
  89:C:/Users/stapi/OneDrive/Desktop/GD32VW553/V1_MQTT_OK/GD32VW55X_Wifi_BLE_SDK/GD32VW55x_RELEASE_V1.0.2/MSDK/cloud/alicloud/src/services/linkkit/dm\dm_message_cache.c ****     node->devid = devid;
 339              		.loc 1 89 5 is_stmt 1
  89:C:/Users/stapi/OneDrive/Desktop/GD32VW553/V1_MQTT_OK/GD32VW55X_Wifi_BLE_SDK/GD32VW55x_RELEASE_V1.0.2/MSDK/cloud/alicloud/src/services/linkkit/dm\dm_message_cache.c ****     node->devid = devid;
 340              		.loc 1 89 17 is_stmt 0
 341 0078 23224401 		sw	s4,4(s0)
  90:C:/Users/stapi/OneDrive/Desktop/GD32VW553/V1_MQTT_OK/GD32VW55X_Wifi_BLE_SDK/GD32VW55x_RELEASE_V1.0.2/MSDK/cloud/alicloud/src/services/linkkit/dm\dm_message_cache.c ****     node->data = data;
 342              		.loc 1 90 5 is_stmt 1
  90:C:/Users/stapi/OneDrive/Desktop/GD32VW553/V1_MQTT_OK/GD32VW55X_Wifi_BLE_SDK/GD32VW55x_RELEASE_V1.0.2/MSDK/cloud/alicloud/src/services/linkkit/dm\dm_message_cache.c ****     node->data = data;
 343              		.loc 1 90 25 is_stmt 0
 344 007c 23243401 		sw	s3,8(s0)
 345              		.loc 1 91 5 is_stmt 1
  92:C:/Users/stapi/OneDrive/Desktop/GD32VW553/V1_MQTT_OK/GD32VW55X_Wifi_BLE_SDK/GD32VW55x_RELEASE_V1.0.2/MSDK/cloud/alicloud/src/services/linkkit/dm\dm_message_cache.c ****     node->ctime = HAL_UptimeMs();
 346              		.loc 1 92 5
 347              		.loc 1 92 19 is_stmt 0
 348 0080 97000000 		call	HAL_UptimeMs
 348      E7800000 
 349              	.LVL32:
  93:C:/Users/stapi/OneDrive/Desktop/GD32VW553/V1_MQTT_OK/GD32VW55X_Wifi_BLE_SDK/GD32VW55x_RELEASE_V1.0.2/MSDK/cloud/alicloud/src/services/linkkit/dm\dm_message_cache.c ****     INIT_LIST_HEAD(&node->linked_list);
 350              		.loc 1 93 20
 351 0088 13098401 		addi	s2,s0,24
 352              	.LVL33:
  92:C:/Users/stapi/OneDrive/Desktop/GD32VW553/V1_MQTT_OK/GD32VW55X_Wifi_BLE_SDK/GD32VW55x_RELEASE_V1.0.2/MSDK/cloud/alicloud/src/services/linkkit/dm\dm_message_cache.c ****     node->ctime = HAL_UptimeMs();
 353              		.loc 1 92 17
 354 008c 08C8     		sw	a0,16(s0)
 355 008e 4CC8     		sw	a1,20(s0)
 356              		.loc 1 93 5 is_stmt 1
 357              	.LVL34:
 358              	.LBB36:
 359              	.LBB37:
  82:..\..\..\..\cloud\alicloud\src\infra\utils\misc/lite-list.h ****     list->prev = list;
 360              		.loc 2 82 5
  82:..\..\..\..\cloud\alicloud\src\infra\utils\misc/lite-list.h ****     list->prev = list;
 361              		.loc 2 82 16 is_stmt 0
 362 0090 232E2401 		sw	s2,28(s0)
 363              		.loc 2 83 5 is_stmt 1
 364              		.loc 2 83 16 is_stmt 0
 365 0094 232C2401 		sw	s2,24(s0)
 366              	.LVL35:
 367              	.LBE37:
 368              	.LBE36:
  94:C:/Users/stapi/OneDrive/Desktop/GD32VW553/V1_MQTT_OK/GD32VW55X_Wifi_BLE_SDK/GD32VW55x_RELEASE_V1.0.2/MSDK/cloud/alicloud/src/services/linkkit/dm\dm_message_cache.c **** 
  95:C:/Users/stapi/OneDrive/Desktop/GD32VW553/V1_MQTT_OK/GD32VW55X_Wifi_BLE_SDK/GD32VW55x_RELEASE_V1.0.2/MSDK/cloud/alicloud/src/services/linkkit/dm\dm_message_cache.c ****     _dm_msg_cache_mutex_lock();
 369              		.loc 1 95 5 is_stmt 1
 370 0098 97000000 		call	_dm_msg_cache_mutex_lock
 370      E7800000 
 371              	.LVL36:
  96:C:/Users/stapi/OneDrive/Desktop/GD32VW553/V1_MQTT_OK/GD32VW55X_Wifi_BLE_SDK/GD32VW55x_RELEASE_V1.0.2/MSDK/cloud/alicloud/src/services/linkkit/dm\dm_message_cache.c ****     list_add_tail(&node->linked_list, &ctx->dmc_list);
 372              		.loc 1 96 5
 373              	.LBB38:
 374              	.LBB39:
  63:..\..\..\..\cloud\alicloud\src\infra\utils\misc/lite-list.h **** }
 375              		.loc 2 63 5
  63:..\..\..\..\cloud\alicloud\src\infra\utils\misc/lite-list.h **** }
 376              		.loc 2 63 28 is_stmt 0
 377 00a0 9C44     		lw	a5,8(s1)
 378              	.LVL37:
 379              	.LBB40:
 380              	.LBB41:
  38:..\..\..\..\cloud\alicloud\src\infra\utils\misc/lite-list.h ****     node->prev = prev;
 381              		.loc 2 38 5 is_stmt 1
  38:..\..\..\..\cloud\alicloud\src\infra\utils\misc/lite-list.h ****     node->prev = prev;
 382              		.loc 2 38 16 is_stmt 0
 383 00a2 13878400 		addi	a4,s1,8
 384 00a6 58CC     		sw	a4,28(s0)
  39:..\..\..\..\cloud\alicloud\src\infra\utils\misc/lite-list.h **** 
 385              		.loc 2 39 5 is_stmt 1
  39:..\..\..\..\cloud\alicloud\src\infra\utils\misc/lite-list.h **** 
 386              		.loc 2 39 16 is_stmt 0
 387 00a8 1CCC     		sw	a5,24(s0)
  41:..\..\..\..\cloud\alicloud\src\infra\utils\misc/lite-list.h ****     next->prev = node;
 388              		.loc 2 41 5 is_stmt 1
  41:..\..\..\..\cloud\alicloud\src\infra\utils\misc/lite-list.h ****     next->prev = node;
 389              		.loc 2 41 16 is_stmt 0
 390 00aa 23A22701 		sw	s2,4(a5)
  42:..\..\..\..\cloud\alicloud\src\infra\utils\misc/lite-list.h **** }
 391              		.loc 2 42 5 is_stmt 1
 392              	.LBE41:
 393              	.LBE40:
 394              	.LBE39:
 395              	.LBE38:
  97:C:/Users/stapi/OneDrive/Desktop/GD32VW553/V1_MQTT_OK/GD32VW55X_Wifi_BLE_SDK/GD32VW55x_RELEASE_V1.0.2/MSDK/cloud/alicloud/src/services/linkkit/dm\dm_message_cache.c ****     ctx->dmc_list_size++;
 396              		.loc 1 97 23 is_stmt 0
 397 00ae DC40     		lw	a5,4(s1)
 398              	.LVL38:
 399              	.LBB45:
 400              	.LBB44:
 401              	.LBB43:
 402              	.LBB42:
  42:..\..\..\..\cloud\alicloud\src\infra\utils\misc/lite-list.h **** }
 403              		.loc 2 42 16
 404 00b0 23A42401 		sw	s2,8(s1)
 405              	.LVL39:
 406              	.LBE42:
 407              	.LBE43:
 408              	.LBE44:
 409              	.LBE45:
 410              		.loc 1 97 5 is_stmt 1
 411              		.loc 1 97 23 is_stmt 0
 412 00b4 8507     		addi	a5,a5,1
 413 00b6 DCC0     		sw	a5,4(s1)
  98:C:/Users/stapi/OneDrive/Desktop/GD32VW553/V1_MQTT_OK/GD32VW55X_Wifi_BLE_SDK/GD32VW55x_RELEASE_V1.0.2/MSDK/cloud/alicloud/src/services/linkkit/dm\dm_message_cache.c ****     _dm_msg_cache_mutex_unlock();
 414              		.loc 1 98 5 is_stmt 1
 415 00b8 97000000 		call	_dm_msg_cache_mutex_unlock
 415      E7800000 
 416              	.LVL40:
  99:C:/Users/stapi/OneDrive/Desktop/GD32VW553/V1_MQTT_OK/GD32VW55X_Wifi_BLE_SDK/GD32VW55x_RELEASE_V1.0.2/MSDK/cloud/alicloud/src/services/linkkit/dm\dm_message_cache.c **** 
 100:C:/Users/stapi/OneDrive/Desktop/GD32VW553/V1_MQTT_OK/GD32VW55X_Wifi_BLE_SDK/GD32VW55x_RELEASE_V1.0.2/MSDK/cloud/alicloud/src/services/linkkit/dm\dm_message_cache.c ****     return SUCCESS_RETURN;
 417              		.loc 1 100 5
 418              		.loc 1 100 12 is_stmt 0
 419 00c0 0145     		li	a0,0
 420              	.LVL41:
 421              	.L37:
 101:C:/Users/stapi/OneDrive/Desktop/GD32VW553/V1_MQTT_OK/GD32VW55X_Wifi_BLE_SDK/GD32VW55x_RELEASE_V1.0.2/MSDK/cloud/alicloud/src/services/linkkit/dm\dm_message_cache.c **** }
 422              		.loc 1 101 1
 423 00c2 17030000 		tail	__riscv_restore_6
 423      67000300 
 424              		.cfi_restore 21
 425              		.cfi_restore 20
 426              		.cfi_restore 19
 427              		.cfi_restore 18
 428              		.cfi_restore 9
 429              		.cfi_restore 8
 430              		.cfi_restore 1
 431              		.cfi_def_cfa_offset 0
 432              		.cfi_endproc
 433              	.LFE25:
 435              		.section	.text.dm_msg_cache_search,"ax",@progbits
 436              		.align	1
 437              		.globl	dm_msg_cache_search
 439              	dm_msg_cache_search:
 440              	.LFB26:
 102:C:/Users/stapi/OneDrive/Desktop/GD32VW553/V1_MQTT_OK/GD32VW55X_Wifi_BLE_SDK/GD32VW55x_RELEASE_V1.0.2/MSDK/cloud/alicloud/src/services/linkkit/dm\dm_message_cache.c **** 
 103:C:/Users/stapi/OneDrive/Desktop/GD32VW553/V1_MQTT_OK/GD32VW55X_Wifi_BLE_SDK/GD32VW55x_RELEASE_V1.0.2/MSDK/cloud/alicloud/src/services/linkkit/dm\dm_message_cache.c **** int dm_msg_cache_search(_IN_ int msgid, _OU_ dm_msg_cache_node_t **node)
 104:C:/Users/stapi/OneDrive/Desktop/GD32VW553/V1_MQTT_OK/GD32VW55X_Wifi_BLE_SDK/GD32VW55x_RELEASE_V1.0.2/MSDK/cloud/alicloud/src/services/linkkit/dm\dm_message_cache.c **** {
 441              		.loc 1 104 1 is_stmt 1
 442              		.cfi_startproc
 443              	.LVL42:
 105:C:/Users/stapi/OneDrive/Desktop/GD32VW553/V1_MQTT_OK/GD32VW55X_Wifi_BLE_SDK/GD32VW55x_RELEASE_V1.0.2/MSDK/cloud/alicloud/src/services/linkkit/dm\dm_message_cache.c ****     dm_msg_cache_ctx_t *ctx = _dm_msg_cache_get_ctx();
 444              		.loc 1 105 5
  11:C:/Users/stapi/OneDrive/Desktop/GD32VW553/V1_MQTT_OK/GD32VW55X_Wifi_BLE_SDK/GD32VW55x_RELEASE_V1.0.2/MSDK/cloud/alicloud/src/services/linkkit/dm\dm_message_cache.c **** }
 445              		.loc 1 11 5
 106:C:/Users/stapi/OneDrive/Desktop/GD32VW553/V1_MQTT_OK/GD32VW55X_Wifi_BLE_SDK/GD32VW55x_RELEASE_V1.0.2/MSDK/cloud/alicloud/src/services/linkkit/dm\dm_message_cache.c ****     dm_msg_cache_node_t *search_node = NULL;
 446              		.loc 1 106 5
 107:C:/Users/stapi/OneDrive/Desktop/GD32VW553/V1_MQTT_OK/GD32VW55X_Wifi_BLE_SDK/GD32VW55x_RELEASE_V1.0.2/MSDK/cloud/alicloud/src/services/linkkit/dm\dm_message_cache.c **** 
 108:C:/Users/stapi/OneDrive/Desktop/GD32VW553/V1_MQTT_OK/GD32VW55X_Wifi_BLE_SDK/GD32VW55x_RELEASE_V1.0.2/MSDK/cloud/alicloud/src/services/linkkit/dm\dm_message_cache.c ****     if (msgid <= 0 || node == NULL || *node != NULL) {
 447              		.loc 1 108 5
 448              		.loc 1 108 8 is_stmt 0
 449 0000 6351A006 		ble	a0,zero,.L47
 104:C:/Users/stapi/OneDrive/Desktop/GD32VW553/V1_MQTT_OK/GD32VW55X_Wifi_BLE_SDK/GD32VW55x_RELEASE_V1.0.2/MSDK/cloud/alicloud/src/services/linkkit/dm\dm_message_cache.c ****     dm_msg_cache_ctx_t *ctx = _dm_msg_cache_get_ctx();
 450              		.loc 1 104 1 discriminator 1
 451 0004 17030000 		call	t0,__riscv_save_2
 451      E7020300 
 452              		.cfi_offset 9, -12
 453              		.cfi_offset 8, -8
 454              		.cfi_offset 1, -4
 455              		.cfi_def_cfa_offset 16
 456 000c AA84     		mv	s1,a0
 457 000e 2E84     		mv	s0,a1
 109:C:/Users/stapi/OneDrive/Desktop/GD32VW553/V1_MQTT_OK/GD32VW55X_Wifi_BLE_SDK/GD32VW55x_RELEASE_V1.0.2/MSDK/cloud/alicloud/src/services/linkkit/dm\dm_message_cache.c ****         return DM_INVALID_PARAMETER;
 458              		.loc 1 109 16 discriminator 1
 459 0010 7955     		li	a0,-2
 460              	.LVL43:
 108:C:/Users/stapi/OneDrive/Desktop/GD32VW553/V1_MQTT_OK/GD32VW55X_Wifi_BLE_SDK/GD32VW55x_RELEASE_V1.0.2/MSDK/cloud/alicloud/src/services/linkkit/dm\dm_message_cache.c ****         return DM_INVALID_PARAMETER;
 461              		.loc 1 108 20 discriminator 1
 462 0012 A9C1     		beq	a1,zero,.L42
 108:C:/Users/stapi/OneDrive/Desktop/GD32VW553/V1_MQTT_OK/GD32VW55X_Wifi_BLE_SDK/GD32VW55x_RELEASE_V1.0.2/MSDK/cloud/alicloud/src/services/linkkit/dm\dm_message_cache.c ****         return DM_INVALID_PARAMETER;
 463              		.loc 1 108 36 discriminator 2
 464 0014 9C41     		lw	a5,0(a1)
 465 0016 9DEF     		bne	a5,zero,.L42
 110:C:/Users/stapi/OneDrive/Desktop/GD32VW553/V1_MQTT_OK/GD32VW55X_Wifi_BLE_SDK/GD32VW55x_RELEASE_V1.0.2/MSDK/cloud/alicloud/src/services/linkkit/dm\dm_message_cache.c ****     }
 111:C:/Users/stapi/OneDrive/Desktop/GD32VW553/V1_MQTT_OK/GD32VW55X_Wifi_BLE_SDK/GD32VW55x_RELEASE_V1.0.2/MSDK/cloud/alicloud/src/services/linkkit/dm\dm_message_cache.c **** 
 112:C:/Users/stapi/OneDrive/Desktop/GD32VW553/V1_MQTT_OK/GD32VW55X_Wifi_BLE_SDK/GD32VW55x_RELEASE_V1.0.2/MSDK/cloud/alicloud/src/services/linkkit/dm\dm_message_cache.c ****     _dm_msg_cache_mutex_lock();
 466              		.loc 1 112 5 is_stmt 1
 467 0018 97000000 		call	_dm_msg_cache_mutex_lock
 467      E7800000 
 468              	.LVL44:
 113:C:/Users/stapi/OneDrive/Desktop/GD32VW553/V1_MQTT_OK/GD32VW55X_Wifi_BLE_SDK/GD32VW55x_RELEASE_V1.0.2/MSDK/cloud/alicloud/src/services/linkkit/dm\dm_message_cache.c ****     list_for_each_entry(search_node, &ctx->dmc_list, linked_list, dm_msg_cache_node_t) {
 469              		.loc 1 113 5
 470 0020 37070000 		lui	a4,%hi(.LANCHOR0)
 471 0024 13070700 		addi	a4,a4,%lo(.LANCHOR0)
 472 0028 5C47     		lw	a5,12(a4)
 473 002a 2107     		addi	a4,a4,8
 474 002c A117     		addi	a5,a5,-24
 475              	.LVL45:
 476              	.L44:
 477              		.loc 1 113 5 discriminator 1
 478 002e 93868701 		addi	a3,a5,24
 479 0032 6398E600 		bne	a3,a4,.L46
 114:C:/Users/stapi/OneDrive/Desktop/GD32VW553/V1_MQTT_OK/GD32VW55X_Wifi_BLE_SDK/GD32VW55x_RELEASE_V1.0.2/MSDK/cloud/alicloud/src/services/linkkit/dm\dm_message_cache.c ****         if (search_node->msgid == msgid) {
 115:C:/Users/stapi/OneDrive/Desktop/GD32VW553/V1_MQTT_OK/GD32VW55X_Wifi_BLE_SDK/GD32VW55x_RELEASE_V1.0.2/MSDK/cloud/alicloud/src/services/linkkit/dm\dm_message_cache.c ****             *node = search_node;
 116:C:/Users/stapi/OneDrive/Desktop/GD32VW553/V1_MQTT_OK/GD32VW55X_Wifi_BLE_SDK/GD32VW55x_RELEASE_V1.0.2/MSDK/cloud/alicloud/src/services/linkkit/dm\dm_message_cache.c ****             _dm_msg_cache_mutex_unlock();
 117:C:/Users/stapi/OneDrive/Desktop/GD32VW553/V1_MQTT_OK/GD32VW55X_Wifi_BLE_SDK/GD32VW55x_RELEASE_V1.0.2/MSDK/cloud/alicloud/src/services/linkkit/dm\dm_message_cache.c ****             return SUCCESS_RETURN;
 118:C:/Users/stapi/OneDrive/Desktop/GD32VW553/V1_MQTT_OK/GD32VW55X_Wifi_BLE_SDK/GD32VW55x_RELEASE_V1.0.2/MSDK/cloud/alicloud/src/services/linkkit/dm\dm_message_cache.c ****         }
 119:C:/Users/stapi/OneDrive/Desktop/GD32VW553/V1_MQTT_OK/GD32VW55X_Wifi_BLE_SDK/GD32VW55x_RELEASE_V1.0.2/MSDK/cloud/alicloud/src/services/linkkit/dm\dm_message_cache.c ****     }
 120:C:/Users/stapi/OneDrive/Desktop/GD32VW553/V1_MQTT_OK/GD32VW55X_Wifi_BLE_SDK/GD32VW55x_RELEASE_V1.0.2/MSDK/cloud/alicloud/src/services/linkkit/dm\dm_message_cache.c **** 
 121:C:/Users/stapi/OneDrive/Desktop/GD32VW553/V1_MQTT_OK/GD32VW55X_Wifi_BLE_SDK/GD32VW55x_RELEASE_V1.0.2/MSDK/cloud/alicloud/src/services/linkkit/dm\dm_message_cache.c ****     _dm_msg_cache_mutex_unlock();
 480              		.loc 1 121 5
 481 0036 97000000 		call	_dm_msg_cache_mutex_unlock
 481      E7800000 
 482              	.LVL46:
 122:C:/Users/stapi/OneDrive/Desktop/GD32VW553/V1_MQTT_OK/GD32VW55X_Wifi_BLE_SDK/GD32VW55x_RELEASE_V1.0.2/MSDK/cloud/alicloud/src/services/linkkit/dm\dm_message_cache.c ****     return FAIL_RETURN;
 483              		.loc 1 122 5
 484              		.loc 1 122 12 is_stmt 0
 485 003e 7D55     		li	a0,-1
 486 0040 11A8     		j	.L42
 487              	.LVL47:
 488              	.L46:
 114:C:/Users/stapi/OneDrive/Desktop/GD32VW553/V1_MQTT_OK/GD32VW55X_Wifi_BLE_SDK/GD32VW55x_RELEASE_V1.0.2/MSDK/cloud/alicloud/src/services/linkkit/dm\dm_message_cache.c ****         if (search_node->msgid == msgid) {
 489              		.loc 1 114 9 is_stmt 1
 114:C:/Users/stapi/OneDrive/Desktop/GD32VW553/V1_MQTT_OK/GD32VW55X_Wifi_BLE_SDK/GD32VW55x_RELEASE_V1.0.2/MSDK/cloud/alicloud/src/services/linkkit/dm\dm_message_cache.c ****         if (search_node->msgid == msgid) {
 490              		.loc 1 114 12 is_stmt 0
 491 0042 9443     		lw	a3,0(a5)
 492 0044 639C9600 		bne	a3,s1,.L45
 115:C:/Users/stapi/OneDrive/Desktop/GD32VW553/V1_MQTT_OK/GD32VW55X_Wifi_BLE_SDK/GD32VW55x_RELEASE_V1.0.2/MSDK/cloud/alicloud/src/services/linkkit/dm\dm_message_cache.c ****             _dm_msg_cache_mutex_unlock();
 493              		.loc 1 115 13 is_stmt 1
 115:C:/Users/stapi/OneDrive/Desktop/GD32VW553/V1_MQTT_OK/GD32VW55X_Wifi_BLE_SDK/GD32VW55x_RELEASE_V1.0.2/MSDK/cloud/alicloud/src/services/linkkit/dm\dm_message_cache.c ****             _dm_msg_cache_mutex_unlock();
 494              		.loc 1 115 19 is_stmt 0
 495 0048 1CC0     		sw	a5,0(s0)
 116:C:/Users/stapi/OneDrive/Desktop/GD32VW553/V1_MQTT_OK/GD32VW55X_Wifi_BLE_SDK/GD32VW55x_RELEASE_V1.0.2/MSDK/cloud/alicloud/src/services/linkkit/dm\dm_message_cache.c ****             return SUCCESS_RETURN;
 496              		.loc 1 116 13 is_stmt 1
 497 004a 97000000 		call	_dm_msg_cache_mutex_unlock
 497      E7800000 
 498              	.LVL48:
 117:C:/Users/stapi/OneDrive/Desktop/GD32VW553/V1_MQTT_OK/GD32VW55X_Wifi_BLE_SDK/GD32VW55x_RELEASE_V1.0.2/MSDK/cloud/alicloud/src/services/linkkit/dm\dm_message_cache.c ****         }
 499              		.loc 1 117 13
 117:C:/Users/stapi/OneDrive/Desktop/GD32VW553/V1_MQTT_OK/GD32VW55X_Wifi_BLE_SDK/GD32VW55x_RELEASE_V1.0.2/MSDK/cloud/alicloud/src/services/linkkit/dm\dm_message_cache.c ****         }
 500              		.loc 1 117 20 is_stmt 0
 501 0052 0145     		li	a0,0
 502              	.L42:
 123:C:/Users/stapi/OneDrive/Desktop/GD32VW553/V1_MQTT_OK/GD32VW55X_Wifi_BLE_SDK/GD32VW55x_RELEASE_V1.0.2/MSDK/cloud/alicloud/src/services/linkkit/dm\dm_message_cache.c **** }
 503              		.loc 1 123 1
 504 0054 17030000 		tail	__riscv_restore_2
 504      67000300 
 505              		.cfi_remember_state
 506              		.cfi_restore 9
 507              		.cfi_restore 8
 508              		.cfi_restore 1
 509              		.cfi_def_cfa_offset 0
 510              	.LVL49:
 511              	.L45:
 512              		.cfi_restore_state
 113:C:/Users/stapi/OneDrive/Desktop/GD32VW553/V1_MQTT_OK/GD32VW55X_Wifi_BLE_SDK/GD32VW55x_RELEASE_V1.0.2/MSDK/cloud/alicloud/src/services/linkkit/dm\dm_message_cache.c ****         if (search_node->msgid == msgid) {
 513              		.loc 1 113 5 is_stmt 1 discriminator 2
 514 005c DC4F     		lw	a5,28(a5)
 515              	.LVL50:
 516 005e A117     		addi	a5,a5,-24
 517              	.LVL51:
 518 0060 F9B7     		j	.L44
 519              	.LVL52:
 520              	.L47:
 521              		.cfi_def_cfa_offset 0
 522              		.cfi_restore 1
 523              		.cfi_restore 8
 524              		.cfi_restore 9
 109:C:/Users/stapi/OneDrive/Desktop/GD32VW553/V1_MQTT_OK/GD32VW55X_Wifi_BLE_SDK/GD32VW55x_RELEASE_V1.0.2/MSDK/cloud/alicloud/src/services/linkkit/dm\dm_message_cache.c ****     }
 525              		.loc 1 109 16 is_stmt 0
 526 0062 7955     		li	a0,-2
 527              	.LVL53:
 528              		.loc 1 123 1
 529 0064 8280     		ret
 530              		.cfi_endproc
 531              	.LFE26:
 533              		.section	.rodata.dm_msg_cache_remove.str1.4,"aMS",@progbits,1
 534              		.align	2
 535              	.LC2:
 536 0000 52656D6F 		.string	"Remove Message ID: %d"
 536      7665204D 
 536      65737361 
 536      67652049 
 536      443A2025 
 537              		.section	.text.dm_msg_cache_remove,"ax",@progbits
 538              		.align	1
 539              		.globl	dm_msg_cache_remove
 541              	dm_msg_cache_remove:
 542              	.LFB27:
 124:C:/Users/stapi/OneDrive/Desktop/GD32VW553/V1_MQTT_OK/GD32VW55X_Wifi_BLE_SDK/GD32VW55x_RELEASE_V1.0.2/MSDK/cloud/alicloud/src/services/linkkit/dm\dm_message_cache.c **** 
 125:C:/Users/stapi/OneDrive/Desktop/GD32VW553/V1_MQTT_OK/GD32VW55X_Wifi_BLE_SDK/GD32VW55x_RELEASE_V1.0.2/MSDK/cloud/alicloud/src/services/linkkit/dm\dm_message_cache.c **** int dm_msg_cache_remove(int msgid)
 126:C:/Users/stapi/OneDrive/Desktop/GD32VW553/V1_MQTT_OK/GD32VW55X_Wifi_BLE_SDK/GD32VW55x_RELEASE_V1.0.2/MSDK/cloud/alicloud/src/services/linkkit/dm\dm_message_cache.c **** {
 543              		.loc 1 126 1 is_stmt 1
 544              		.cfi_startproc
 545              	.LVL54:
 546 0000 17030000 		call	t0,__riscv_save_3
 546      E7020300 
 547              		.cfi_offset 18, -16
 548              		.cfi_offset 9, -12
 549              		.cfi_offset 8, -8
 550              		.cfi_offset 1, -4
 551              		.cfi_def_cfa_offset 16
 127:C:/Users/stapi/OneDrive/Desktop/GD32VW553/V1_MQTT_OK/GD32VW55X_Wifi_BLE_SDK/GD32VW55x_RELEASE_V1.0.2/MSDK/cloud/alicloud/src/services/linkkit/dm\dm_message_cache.c ****     dm_msg_cache_ctx_t *ctx = _dm_msg_cache_get_ctx();
 552              		.loc 1 127 5
  11:C:/Users/stapi/OneDrive/Desktop/GD32VW553/V1_MQTT_OK/GD32VW55X_Wifi_BLE_SDK/GD32VW55x_RELEASE_V1.0.2/MSDK/cloud/alicloud/src/services/linkkit/dm\dm_message_cache.c **** }
 553              		.loc 1 11 5
 554              	.LVL55:
 128:C:/Users/stapi/OneDrive/Desktop/GD32VW553/V1_MQTT_OK/GD32VW55X_Wifi_BLE_SDK/GD32VW55x_RELEASE_V1.0.2/MSDK/cloud/alicloud/src/services/linkkit/dm\dm_message_cache.c ****     dm_msg_cache_node_t *node = NULL;
 555              		.loc 1 128 5
 129:C:/Users/stapi/OneDrive/Desktop/GD32VW553/V1_MQTT_OK/GD32VW55X_Wifi_BLE_SDK/GD32VW55x_RELEASE_V1.0.2/MSDK/cloud/alicloud/src/services/linkkit/dm\dm_message_cache.c ****     dm_msg_cache_node_t *next = NULL;
 556              		.loc 1 129 5
 130:C:/Users/stapi/OneDrive/Desktop/GD32VW553/V1_MQTT_OK/GD32VW55X_Wifi_BLE_SDK/GD32VW55x_RELEASE_V1.0.2/MSDK/cloud/alicloud/src/services/linkkit/dm\dm_message_cache.c **** 
 131:C:/Users/stapi/OneDrive/Desktop/GD32VW553/V1_MQTT_OK/GD32VW55X_Wifi_BLE_SDK/GD32VW55x_RELEASE_V1.0.2/MSDK/cloud/alicloud/src/services/linkkit/dm\dm_message_cache.c ****     _dm_msg_cache_mutex_lock();
 557              		.loc 1 131 5
 132:C:/Users/stapi/OneDrive/Desktop/GD32VW553/V1_MQTT_OK/GD32VW55X_Wifi_BLE_SDK/GD32VW55x_RELEASE_V1.0.2/MSDK/cloud/alicloud/src/services/linkkit/dm\dm_message_cache.c ****     list_for_each_entry_safe(node, next, &ctx->dmc_list, linked_list, dm_msg_cache_node_t) {
 558              		.loc 1 132 5 is_stmt 0
 559 0008 B7040000 		lui	s1,%hi(.LANCHOR0)
 126:C:/Users/stapi/OneDrive/Desktop/GD32VW553/V1_MQTT_OK/GD32VW55X_Wifi_BLE_SDK/GD32VW55x_RELEASE_V1.0.2/MSDK/cloud/alicloud/src/services/linkkit/dm\dm_message_cache.c ****     dm_msg_cache_ctx_t *ctx = _dm_msg_cache_get_ctx();
 560              		.loc 1 126 1
 561 000c 2A89     		mv	s2,a0
 131:C:/Users/stapi/OneDrive/Desktop/GD32VW553/V1_MQTT_OK/GD32VW55X_Wifi_BLE_SDK/GD32VW55x_RELEASE_V1.0.2/MSDK/cloud/alicloud/src/services/linkkit/dm\dm_message_cache.c ****     list_for_each_entry_safe(node, next, &ctx->dmc_list, linked_list, dm_msg_cache_node_t) {
 562              		.loc 1 131 5
 563 000e 97000000 		call	_dm_msg_cache_mutex_lock
 563      E7800000 
 564              	.LVL56:
 565              		.loc 1 132 5 is_stmt 1
 566 0016 93870400 		addi	a5,s1,%lo(.LANCHOR0)
 567 001a DC47     		lw	a5,12(a5)
 568 001c 93840400 		addi	s1,s1,%lo(.LANCHOR0)
 569 0020 D843     		lw	a4,4(a5)
 570 0022 138487FE 		addi	s0,a5,-24
 571              	.LVL57:
 572 0026 93878400 		addi	a5,s1,8
 573 002a 2117     		addi	a4,a4,-24
 574              	.LVL58:
 575              	.L55:
 576              		.loc 1 132 5 discriminator 1
 577 002c 93068401 		addi	a3,s0,24
 578 0030 6398F600 		bne	a3,a5,.L59
 133:C:/Users/stapi/OneDrive/Desktop/GD32VW553/V1_MQTT_OK/GD32VW55X_Wifi_BLE_SDK/GD32VW55x_RELEASE_V1.0.2/MSDK/cloud/alicloud/src/services/linkkit/dm\dm_message_cache.c ****         if (node->msgid == msgid) {
 134:C:/Users/stapi/OneDrive/Desktop/GD32VW553/V1_MQTT_OK/GD32VW55X_Wifi_BLE_SDK/GD32VW55x_RELEASE_V1.0.2/MSDK/cloud/alicloud/src/services/linkkit/dm\dm_message_cache.c ****             list_del(&node->linked_list);
 135:C:/Users/stapi/OneDrive/Desktop/GD32VW553/V1_MQTT_OK/GD32VW55X_Wifi_BLE_SDK/GD32VW55x_RELEASE_V1.0.2/MSDK/cloud/alicloud/src/services/linkkit/dm\dm_message_cache.c ****             if (node->data) {
 136:C:/Users/stapi/OneDrive/Desktop/GD32VW553/V1_MQTT_OK/GD32VW55X_Wifi_BLE_SDK/GD32VW55x_RELEASE_V1.0.2/MSDK/cloud/alicloud/src/services/linkkit/dm\dm_message_cache.c ****                 DM_free(node->data);
 137:C:/Users/stapi/OneDrive/Desktop/GD32VW553/V1_MQTT_OK/GD32VW55X_Wifi_BLE_SDK/GD32VW55x_RELEASE_V1.0.2/MSDK/cloud/alicloud/src/services/linkkit/dm\dm_message_cache.c ****             }
 138:C:/Users/stapi/OneDrive/Desktop/GD32VW553/V1_MQTT_OK/GD32VW55X_Wifi_BLE_SDK/GD32VW55x_RELEASE_V1.0.2/MSDK/cloud/alicloud/src/services/linkkit/dm\dm_message_cache.c ****             ctx->dmc_list_size--;
 139:C:/Users/stapi/OneDrive/Desktop/GD32VW553/V1_MQTT_OK/GD32VW55X_Wifi_BLE_SDK/GD32VW55x_RELEASE_V1.0.2/MSDK/cloud/alicloud/src/services/linkkit/dm\dm_message_cache.c ****             DM_free(node);
 140:C:/Users/stapi/OneDrive/Desktop/GD32VW553/V1_MQTT_OK/GD32VW55X_Wifi_BLE_SDK/GD32VW55x_RELEASE_V1.0.2/MSDK/cloud/alicloud/src/services/linkkit/dm\dm_message_cache.c ****             dm_log_debug("Remove Message ID: %d", msgid);
 141:C:/Users/stapi/OneDrive/Desktop/GD32VW553/V1_MQTT_OK/GD32VW55X_Wifi_BLE_SDK/GD32VW55x_RELEASE_V1.0.2/MSDK/cloud/alicloud/src/services/linkkit/dm\dm_message_cache.c ****             _dm_msg_cache_mutex_unlock();
 142:C:/Users/stapi/OneDrive/Desktop/GD32VW553/V1_MQTT_OK/GD32VW55X_Wifi_BLE_SDK/GD32VW55x_RELEASE_V1.0.2/MSDK/cloud/alicloud/src/services/linkkit/dm\dm_message_cache.c ****             return SUCCESS_RETURN;
 143:C:/Users/stapi/OneDrive/Desktop/GD32VW553/V1_MQTT_OK/GD32VW55X_Wifi_BLE_SDK/GD32VW55x_RELEASE_V1.0.2/MSDK/cloud/alicloud/src/services/linkkit/dm\dm_message_cache.c ****         }
 144:C:/Users/stapi/OneDrive/Desktop/GD32VW553/V1_MQTT_OK/GD32VW55X_Wifi_BLE_SDK/GD32VW55x_RELEASE_V1.0.2/MSDK/cloud/alicloud/src/services/linkkit/dm\dm_message_cache.c ****     }
 145:C:/Users/stapi/OneDrive/Desktop/GD32VW553/V1_MQTT_OK/GD32VW55X_Wifi_BLE_SDK/GD32VW55x_RELEASE_V1.0.2/MSDK/cloud/alicloud/src/services/linkkit/dm\dm_message_cache.c **** 
 146:C:/Users/stapi/OneDrive/Desktop/GD32VW553/V1_MQTT_OK/GD32VW55X_Wifi_BLE_SDK/GD32VW55x_RELEASE_V1.0.2/MSDK/cloud/alicloud/src/services/linkkit/dm\dm_message_cache.c ****     _dm_msg_cache_mutex_unlock();
 579              		.loc 1 146 5
 580 0034 97000000 		call	_dm_msg_cache_mutex_unlock
 580      E7800000 
 581              	.LVL59:
 147:C:/Users/stapi/OneDrive/Desktop/GD32VW553/V1_MQTT_OK/GD32VW55X_Wifi_BLE_SDK/GD32VW55x_RELEASE_V1.0.2/MSDK/cloud/alicloud/src/services/linkkit/dm\dm_message_cache.c ****     return FAIL_RETURN;
 582              		.loc 1 147 5
 583              		.loc 1 147 12 is_stmt 0
 584 003c 7D55     		li	a0,-1
 585 003e 8DA0     		j	.L54
 586              	.LVL60:
 587              	.L59:
 133:C:/Users/stapi/OneDrive/Desktop/GD32VW553/V1_MQTT_OK/GD32VW55X_Wifi_BLE_SDK/GD32VW55x_RELEASE_V1.0.2/MSDK/cloud/alicloud/src/services/linkkit/dm\dm_message_cache.c ****         if (node->msgid == msgid) {
 588              		.loc 1 133 9 is_stmt 1
 133:C:/Users/stapi/OneDrive/Desktop/GD32VW553/V1_MQTT_OK/GD32VW55X_Wifi_BLE_SDK/GD32VW55x_RELEASE_V1.0.2/MSDK/cloud/alicloud/src/services/linkkit/dm\dm_message_cache.c ****         if (node->msgid == msgid) {
 589              		.loc 1 133 12 is_stmt 0
 590 0040 1440     		lw	a3,0(s0)
 591 0042 63932607 		bne	a3,s2,.L56
 134:C:/Users/stapi/OneDrive/Desktop/GD32VW553/V1_MQTT_OK/GD32VW55X_Wifi_BLE_SDK/GD32VW55x_RELEASE_V1.0.2/MSDK/cloud/alicloud/src/services/linkkit/dm\dm_message_cache.c ****             if (node->data) {
 592              		.loc 1 134 13 is_stmt 1
 593              	.LVL61:
 594              	.LBB48:
 595              	.LBB49:
  68:..\..\..\..\cloud\alicloud\src\infra\utils\misc/lite-list.h ****     dlist_t *next = node->next;
 596              		.loc 2 68 5
  68:..\..\..\..\cloud\alicloud\src\infra\utils\misc/lite-list.h ****     dlist_t *next = node->next;
 597              		.loc 2 68 14 is_stmt 0
 598 0046 184C     		lw	a4,24(s0)
 599              	.LVL62:
  69:..\..\..\..\cloud\alicloud\src\infra\utils\misc/lite-list.h **** 
 600              		.loc 2 69 5 is_stmt 1
  69:..\..\..\..\cloud\alicloud\src\infra\utils\misc/lite-list.h **** 
 601              		.loc 2 69 14 is_stmt 0
 602 0048 5C4C     		lw	a5,28(s0)
 603              	.LVL63:
  71:..\..\..\..\cloud\alicloud\src\infra\utils\misc/lite-list.h ****     next->prev = prev;
 604              		.loc 2 71 5 is_stmt 1
 605              	.LBE49:
 606              	.LBE48:
 135:C:/Users/stapi/OneDrive/Desktop/GD32VW553/V1_MQTT_OK/GD32VW55X_Wifi_BLE_SDK/GD32VW55x_RELEASE_V1.0.2/MSDK/cloud/alicloud/src/services/linkkit/dm\dm_message_cache.c ****                 DM_free(node->data);
 607              		.loc 1 135 21 is_stmt 0
 608 004a 4844     		lw	a0,12(s0)
 609              	.LBB51:
 610              	.LBB50:
  71:..\..\..\..\cloud\alicloud\src\infra\utils\misc/lite-list.h ****     next->prev = prev;
 611              		.loc 2 71 16
 612 004c 5CC3     		sw	a5,4(a4)
  72:..\..\..\..\cloud\alicloud\src\infra\utils\misc/lite-list.h **** }
 613              		.loc 2 72 5 is_stmt 1
  72:..\..\..\..\cloud\alicloud\src\infra\utils\misc/lite-list.h **** }
 614              		.loc 2 72 16 is_stmt 0
 615 004e 98C3     		sw	a4,0(a5)
 616              	.LVL64:
 617              	.LBE50:
 618              	.LBE51:
 135:C:/Users/stapi/OneDrive/Desktop/GD32VW553/V1_MQTT_OK/GD32VW55X_Wifi_BLE_SDK/GD32VW55x_RELEASE_V1.0.2/MSDK/cloud/alicloud/src/services/linkkit/dm\dm_message_cache.c ****                 DM_free(node->data);
 619              		.loc 1 135 13 is_stmt 1
 135:C:/Users/stapi/OneDrive/Desktop/GD32VW553/V1_MQTT_OK/GD32VW55X_Wifi_BLE_SDK/GD32VW55x_RELEASE_V1.0.2/MSDK/cloud/alicloud/src/services/linkkit/dm\dm_message_cache.c ****                 DM_free(node->data);
 620              		.loc 1 135 16 is_stmt 0
 621 0050 19C5     		beq	a0,zero,.L57
 136:C:/Users/stapi/OneDrive/Desktop/GD32VW553/V1_MQTT_OK/GD32VW55X_Wifi_BLE_SDK/GD32VW55x_RELEASE_V1.0.2/MSDK/cloud/alicloud/src/services/linkkit/dm\dm_message_cache.c ****             }
 622              		.loc 1 136 17 is_stmt 1
 623 0052 97000000 		call	LITE_free_internal
 623      E7800000 
 624              	.LVL65:
 136:C:/Users/stapi/OneDrive/Desktop/GD32VW553/V1_MQTT_OK/GD32VW55X_Wifi_BLE_SDK/GD32VW55x_RELEASE_V1.0.2/MSDK/cloud/alicloud/src/services/linkkit/dm\dm_message_cache.c ****             }
 625              		.loc 1 136 17
 626 005a 23260400 		sw	zero,12(s0)
 627              	.L57:
 136:C:/Users/stapi/OneDrive/Desktop/GD32VW553/V1_MQTT_OK/GD32VW55X_Wifi_BLE_SDK/GD32VW55x_RELEASE_V1.0.2/MSDK/cloud/alicloud/src/services/linkkit/dm\dm_message_cache.c ****             }
 628              		.loc 1 136 36 discriminator 1
 138:C:/Users/stapi/OneDrive/Desktop/GD32VW553/V1_MQTT_OK/GD32VW55X_Wifi_BLE_SDK/GD32VW55x_RELEASE_V1.0.2/MSDK/cloud/alicloud/src/services/linkkit/dm\dm_message_cache.c ****             DM_free(node);
 629              		.loc 1 138 13 discriminator 1
 138:C:/Users/stapi/OneDrive/Desktop/GD32VW553/V1_MQTT_OK/GD32VW55X_Wifi_BLE_SDK/GD32VW55x_RELEASE_V1.0.2/MSDK/cloud/alicloud/src/services/linkkit/dm\dm_message_cache.c ****             DM_free(node);
 630              		.loc 1 138 31 is_stmt 0 discriminator 1
 631 005e DC40     		lw	a5,4(s1)
 139:C:/Users/stapi/OneDrive/Desktop/GD32VW553/V1_MQTT_OK/GD32VW55X_Wifi_BLE_SDK/GD32VW55x_RELEASE_V1.0.2/MSDK/cloud/alicloud/src/services/linkkit/dm\dm_message_cache.c ****             dm_log_debug("Remove Message ID: %d", msgid);
 632              		.loc 1 139 13 discriminator 1
 633 0060 2285     		mv	a0,s0
 138:C:/Users/stapi/OneDrive/Desktop/GD32VW553/V1_MQTT_OK/GD32VW55X_Wifi_BLE_SDK/GD32VW55x_RELEASE_V1.0.2/MSDK/cloud/alicloud/src/services/linkkit/dm\dm_message_cache.c ****             DM_free(node);
 634              		.loc 1 138 31 discriminator 1
 635 0062 FD17     		addi	a5,a5,-1
 636 0064 DCC0     		sw	a5,4(s1)
 139:C:/Users/stapi/OneDrive/Desktop/GD32VW553/V1_MQTT_OK/GD32VW55X_Wifi_BLE_SDK/GD32VW55x_RELEASE_V1.0.2/MSDK/cloud/alicloud/src/services/linkkit/dm\dm_message_cache.c ****             dm_log_debug("Remove Message ID: %d", msgid);
 637              		.loc 1 139 13 is_stmt 1 discriminator 1
 638 0066 97000000 		call	LITE_free_internal
 638      E7800000 
 639              	.LVL66:
 139:C:/Users/stapi/OneDrive/Desktop/GD32VW553/V1_MQTT_OK/GD32VW55X_Wifi_BLE_SDK/GD32VW55x_RELEASE_V1.0.2/MSDK/cloud/alicloud/src/services/linkkit/dm\dm_message_cache.c ****             dm_log_debug("Remove Message ID: %d", msgid);
 640              		.loc 1 139 13 discriminator 1
 139:C:/Users/stapi/OneDrive/Desktop/GD32VW553/V1_MQTT_OK/GD32VW55X_Wifi_BLE_SDK/GD32VW55x_RELEASE_V1.0.2/MSDK/cloud/alicloud/src/services/linkkit/dm\dm_message_cache.c ****             dm_log_debug("Remove Message ID: %d", msgid);
 641              		.loc 1 139 26 discriminator 1
 140:C:/Users/stapi/OneDrive/Desktop/GD32VW553/V1_MQTT_OK/GD32VW55X_Wifi_BLE_SDK/GD32VW55x_RELEASE_V1.0.2/MSDK/cloud/alicloud/src/services/linkkit/dm\dm_message_cache.c ****             _dm_msg_cache_mutex_unlock();
 642              		.loc 1 140 13 discriminator 1
 643 006e 37070000 		lui	a4,%hi(.LC2)
 644 0072 B7050000 		lui	a1,%hi(.LANCHOR2)
 645 0076 37050000 		lui	a0,%hi(.LC1)
 646 007a 13050500 		addi	a0,a0,%lo(.LC1)
 647 007e CA87     		mv	a5,s2
 648 0080 13070700 		addi	a4,a4,%lo(.LC2)
 649 0084 9546     		li	a3,5
 650 0086 1306C008 		li	a2,140
 651 008a 93850500 		addi	a1,a1,%lo(.LANCHOR2)
 652 008e 97000000 		call	LITE_syslog
 652      E7800000 
 653              	.LVL67:
 141:C:/Users/stapi/OneDrive/Desktop/GD32VW553/V1_MQTT_OK/GD32VW55X_Wifi_BLE_SDK/GD32VW55x_RELEASE_V1.0.2/MSDK/cloud/alicloud/src/services/linkkit/dm\dm_message_cache.c ****             return SUCCESS_RETURN;
 654              		.loc 1 141 13 discriminator 1
 655 0096 97000000 		call	_dm_msg_cache_mutex_unlock
 655      E7800000 
 656              	.LVL68:
 142:C:/Users/stapi/OneDrive/Desktop/GD32VW553/V1_MQTT_OK/GD32VW55X_Wifi_BLE_SDK/GD32VW55x_RELEASE_V1.0.2/MSDK/cloud/alicloud/src/services/linkkit/dm\dm_message_cache.c ****         }
 657              		.loc 1 142 13 discriminator 1
 142:C:/Users/stapi/OneDrive/Desktop/GD32VW553/V1_MQTT_OK/GD32VW55X_Wifi_BLE_SDK/GD32VW55x_RELEASE_V1.0.2/MSDK/cloud/alicloud/src/services/linkkit/dm\dm_message_cache.c ****         }
 658              		.loc 1 142 20 is_stmt 0 discriminator 1
 659 009e 0145     		li	a0,0
 660              	.LVL69:
 661              	.L54:
 148:C:/Users/stapi/OneDrive/Desktop/GD32VW553/V1_MQTT_OK/GD32VW55X_Wifi_BLE_SDK/GD32VW55x_RELEASE_V1.0.2/MSDK/cloud/alicloud/src/services/linkkit/dm\dm_message_cache.c **** }
 662              		.loc 1 148 1
 663 00a0 17030000 		tail	__riscv_restore_3
 663      67000300 
 664              		.cfi_remember_state
 665              		.cfi_restore 18
 666              		.cfi_restore 9
 667              		.cfi_restore 8
 668              		.cfi_restore 1
 669              		.cfi_def_cfa_offset 0
 670              	.LVL70:
 671              	.L56:
 672              		.cfi_restore_state
 132:C:/Users/stapi/OneDrive/Desktop/GD32VW553/V1_MQTT_OK/GD32VW55X_Wifi_BLE_SDK/GD32VW55x_RELEASE_V1.0.2/MSDK/cloud/alicloud/src/services/linkkit/dm\dm_message_cache.c ****         if (node->msgid == msgid) {
 673              		.loc 1 132 5 is_stmt 1 discriminator 2
 674 00a8 544F     		lw	a3,28(a4)
 675              	.LVL71:
 676 00aa 3A84     		mv	s0,a4
 677 00ac 138786FE 		addi	a4,a3,-24
 678              	.LVL72:
 679 00b0 B5BF     		j	.L55
 680              		.cfi_endproc
 681              	.LFE27:
 683              		.section	.rodata.dm_msg_cache_tick.str1.4,"aMS",@progbits,1
 684              		.align	2
 685              	.LC3:
 686 0000 4D657373 		.string	"Message ID Timeout: %d"
 686      61676520 
 686      49442054 
 686      696D656F 
 686      75743A20 
 687              		.section	.text.dm_msg_cache_tick,"ax",@progbits
 688              		.align	1
 689              		.globl	dm_msg_cache_tick
 691              	dm_msg_cache_tick:
 692              	.LFB28:
 149:C:/Users/stapi/OneDrive/Desktop/GD32VW553/V1_MQTT_OK/GD32VW55X_Wifi_BLE_SDK/GD32VW55x_RELEASE_V1.0.2/MSDK/cloud/alicloud/src/services/linkkit/dm\dm_message_cache.c **** 
 150:C:/Users/stapi/OneDrive/Desktop/GD32VW553/V1_MQTT_OK/GD32VW55X_Wifi_BLE_SDK/GD32VW55x_RELEASE_V1.0.2/MSDK/cloud/alicloud/src/services/linkkit/dm\dm_message_cache.c **** void dm_msg_cache_tick(void)
 151:C:/Users/stapi/OneDrive/Desktop/GD32VW553/V1_MQTT_OK/GD32VW55X_Wifi_BLE_SDK/GD32VW55x_RELEASE_V1.0.2/MSDK/cloud/alicloud/src/services/linkkit/dm\dm_message_cache.c **** {
 693              		.loc 1 151 1
 694              		.cfi_startproc
 695 0000 17030000 		call	t0,__riscv_save_10
 695      E7020300 
 696              		.cfi_offset 25, -44
 697              		.cfi_offset 24, -40
 698              		.cfi_offset 23, -36
 699              		.cfi_offset 22, -32
 700              		.cfi_offset 21, -28
 701              		.cfi_offset 20, -24
 702              		.cfi_offset 19, -20
 703              		.cfi_offset 18, -16
 704              		.cfi_offset 9, -12
 705              		.cfi_offset 8, -8
 706              		.cfi_offset 1, -4
 707              		.cfi_def_cfa_offset 48
 152:C:/Users/stapi/OneDrive/Desktop/GD32VW553/V1_MQTT_OK/GD32VW55X_Wifi_BLE_SDK/GD32VW55x_RELEASE_V1.0.2/MSDK/cloud/alicloud/src/services/linkkit/dm\dm_message_cache.c ****     dm_msg_cache_ctx_t *ctx = _dm_msg_cache_get_ctx();
 708              		.loc 1 152 5
  11:C:/Users/stapi/OneDrive/Desktop/GD32VW553/V1_MQTT_OK/GD32VW55X_Wifi_BLE_SDK/GD32VW55x_RELEASE_V1.0.2/MSDK/cloud/alicloud/src/services/linkkit/dm\dm_message_cache.c **** }
 709              		.loc 1 11 5
 710              	.LVL73:
 153:C:/Users/stapi/OneDrive/Desktop/GD32VW553/V1_MQTT_OK/GD32VW55X_Wifi_BLE_SDK/GD32VW55x_RELEASE_V1.0.2/MSDK/cloud/alicloud/src/services/linkkit/dm\dm_message_cache.c ****     dm_msg_cache_node_t *node = NULL;
 711              		.loc 1 153 5
 154:C:/Users/stapi/OneDrive/Desktop/GD32VW553/V1_MQTT_OK/GD32VW55X_Wifi_BLE_SDK/GD32VW55x_RELEASE_V1.0.2/MSDK/cloud/alicloud/src/services/linkkit/dm\dm_message_cache.c ****     dm_msg_cache_node_t *next = NULL;
 712              		.loc 1 154 5
 155:C:/Users/stapi/OneDrive/Desktop/GD32VW553/V1_MQTT_OK/GD32VW55X_Wifi_BLE_SDK/GD32VW55x_RELEASE_V1.0.2/MSDK/cloud/alicloud/src/services/linkkit/dm\dm_message_cache.c ****     uint64_t current_time = HAL_UptimeMs();
 713              		.loc 1 155 5
 714              		.loc 1 155 29 is_stmt 0
 715 0008 97000000 		call	HAL_UptimeMs
 715      E7800000 
 716              	.LVL74:
 156:C:/Users/stapi/OneDrive/Desktop/GD32VW553/V1_MQTT_OK/GD32VW55X_Wifi_BLE_SDK/GD32VW55x_RELEASE_V1.0.2/MSDK/cloud/alicloud/src/services/linkkit/dm\dm_message_cache.c **** 
 157:C:/Users/stapi/OneDrive/Desktop/GD32VW553/V1_MQTT_OK/GD32VW55X_Wifi_BLE_SDK/GD32VW55x_RELEASE_V1.0.2/MSDK/cloud/alicloud/src/services/linkkit/dm\dm_message_cache.c ****     _dm_msg_cache_mutex_lock();
 158:C:/Users/stapi/OneDrive/Desktop/GD32VW553/V1_MQTT_OK/GD32VW55X_Wifi_BLE_SDK/GD32VW55x_RELEASE_V1.0.2/MSDK/cloud/alicloud/src/services/linkkit/dm\dm_message_cache.c ****     list_for_each_entry_safe(node, next, &ctx->dmc_list, linked_list, dm_msg_cache_node_t) {
 717              		.loc 1 158 5
 718 0010 B7090000 		lui	s3,%hi(.LANCHOR0)
 155:C:/Users/stapi/OneDrive/Desktop/GD32VW553/V1_MQTT_OK/GD32VW55X_Wifi_BLE_SDK/GD32VW55x_RELEASE_V1.0.2/MSDK/cloud/alicloud/src/services/linkkit/dm\dm_message_cache.c ****     uint64_t current_time = HAL_UptimeMs();
 719              		.loc 1 155 29
 720 0014 AA84     		mv	s1,a0
 721 0016 2E89     		mv	s2,a1
 722              	.LVL75:
 157:C:/Users/stapi/OneDrive/Desktop/GD32VW553/V1_MQTT_OK/GD32VW55X_Wifi_BLE_SDK/GD32VW55x_RELEASE_V1.0.2/MSDK/cloud/alicloud/src/services/linkkit/dm\dm_message_cache.c ****     list_for_each_entry_safe(node, next, &ctx->dmc_list, linked_list, dm_msg_cache_node_t) {
 723              		.loc 1 157 5 is_stmt 1
 724 0018 97000000 		call	_dm_msg_cache_mutex_lock
 724      E7800000 
 725              	.LVL76:
 726              		.loc 1 158 5
 727 0020 93870900 		addi	a5,s3,%lo(.LANCHOR0)
 728 0024 DC47     		lw	a5,12(a5)
 729 0026 93890900 		addi	s3,s3,%lo(.LANCHOR0)
 159:C:/Users/stapi/OneDrive/Desktop/GD32VW553/V1_MQTT_OK/GD32VW55X_Wifi_BLE_SDK/GD32VW55x_RELEASE_V1.0.2/MSDK/cloud/alicloud/src/services/linkkit/dm\dm_message_cache.c ****         if (current_time < node->ctime) {
 160:C:/Users/stapi/OneDrive/Desktop/GD32VW553/V1_MQTT_OK/GD32VW55X_Wifi_BLE_SDK/GD32VW55x_RELEASE_V1.0.2/MSDK/cloud/alicloud/src/services/linkkit/dm\dm_message_cache.c ****             node->ctime = current_time;
 161:C:/Users/stapi/OneDrive/Desktop/GD32VW553/V1_MQTT_OK/GD32VW55X_Wifi_BLE_SDK/GD32VW55x_RELEASE_V1.0.2/MSDK/cloud/alicloud/src/services/linkkit/dm\dm_message_cache.c ****         }
 162:C:/Users/stapi/OneDrive/Desktop/GD32VW553/V1_MQTT_OK/GD32VW55X_Wifi_BLE_SDK/GD32VW55x_RELEASE_V1.0.2/MSDK/cloud/alicloud/src/services/linkkit/dm\dm_message_cache.c ****         if (current_time - node->ctime >= DM_MSG_CACHE_TIMEOUT_MS_DEFAULT) {
 730              		.loc 1 162 12 is_stmt 0
 731 002a 896A     		li	s5,8192
 158:C:/Users/stapi/OneDrive/Desktop/GD32VW553/V1_MQTT_OK/GD32VW55X_Wifi_BLE_SDK/GD32VW55x_RELEASE_V1.0.2/MSDK/cloud/alicloud/src/services/linkkit/dm\dm_message_cache.c ****         if (current_time < node->ctime) {
 732              		.loc 1 158 5
 733 002c 03AA4700 		lw	s4,4(a5)
 734 0030 138487FE 		addi	s0,a5,-24
 735              	.LVL77:
 736 0034 138B8900 		addi	s6,s3,8
 737 0038 211A     		addi	s4,s4,-24
 738              	.LVL78:
 163:C:/Users/stapi/OneDrive/Desktop/GD32VW553/V1_MQTT_OK/GD32VW55X_Wifi_BLE_SDK/GD32VW55x_RELEASE_V1.0.2/MSDK/cloud/alicloud/src/services/linkkit/dm\dm_message_cache.c ****             dm_log_debug("Message ID Timeout: %d", node->msgid);
 739              		.loc 1 163 13
 740 003a B70B0000 		lui	s7,%hi(.LANCHOR3)
 741 003e 370C0000 		lui	s8,%hi(.LC3)
 742 0042 B70C0000 		lui	s9,%hi(.LC1)
 162:C:/Users/stapi/OneDrive/Desktop/GD32VW553/V1_MQTT_OK/GD32VW55X_Wifi_BLE_SDK/GD32VW55x_RELEASE_V1.0.2/MSDK/cloud/alicloud/src/services/linkkit/dm\dm_message_cache.c ****             dm_log_debug("Message ID Timeout: %d", node->msgid);
 743              		.loc 1 162 12
 744 0046 938AFA70 		addi	s5,s5,1807
 745              	.L65:
 158:C:/Users/stapi/OneDrive/Desktop/GD32VW553/V1_MQTT_OK/GD32VW55X_Wifi_BLE_SDK/GD32VW55x_RELEASE_V1.0.2/MSDK/cloud/alicloud/src/services/linkkit/dm\dm_message_cache.c ****         if (current_time < node->ctime) {
 746              		.loc 1 158 5 is_stmt 1 discriminator 1
 747 004a 93078401 		addi	a5,s0,24
 748 004e 639A6701 		bne	a5,s6,.L71
 164:C:/Users/stapi/OneDrive/Desktop/GD32VW553/V1_MQTT_OK/GD32VW55X_Wifi_BLE_SDK/GD32VW55x_RELEASE_V1.0.2/MSDK/cloud/alicloud/src/services/linkkit/dm\dm_message_cache.c ****             /* Send Timeout Message To User */
 165:C:/Users/stapi/OneDrive/Desktop/GD32VW553/V1_MQTT_OK/GD32VW55X_Wifi_BLE_SDK/GD32VW55x_RELEASE_V1.0.2/MSDK/cloud/alicloud/src/services/linkkit/dm\dm_message_cache.c ****             dm_msg_send_msg_timeout_to_user(node->msgid, node->devid, node->response_type);
 166:C:/Users/stapi/OneDrive/Desktop/GD32VW553/V1_MQTT_OK/GD32VW55X_Wifi_BLE_SDK/GD32VW55x_RELEASE_V1.0.2/MSDK/cloud/alicloud/src/services/linkkit/dm\dm_message_cache.c ****             list_del(&node->linked_list);
 167:C:/Users/stapi/OneDrive/Desktop/GD32VW553/V1_MQTT_OK/GD32VW55X_Wifi_BLE_SDK/GD32VW55x_RELEASE_V1.0.2/MSDK/cloud/alicloud/src/services/linkkit/dm\dm_message_cache.c ****             if (node->data) {
 168:C:/Users/stapi/OneDrive/Desktop/GD32VW553/V1_MQTT_OK/GD32VW55X_Wifi_BLE_SDK/GD32VW55x_RELEASE_V1.0.2/MSDK/cloud/alicloud/src/services/linkkit/dm\dm_message_cache.c ****                 DM_free(node->data);
 169:C:/Users/stapi/OneDrive/Desktop/GD32VW553/V1_MQTT_OK/GD32VW55X_Wifi_BLE_SDK/GD32VW55x_RELEASE_V1.0.2/MSDK/cloud/alicloud/src/services/linkkit/dm\dm_message_cache.c ****             }
 170:C:/Users/stapi/OneDrive/Desktop/GD32VW553/V1_MQTT_OK/GD32VW55X_Wifi_BLE_SDK/GD32VW55x_RELEASE_V1.0.2/MSDK/cloud/alicloud/src/services/linkkit/dm\dm_message_cache.c ****             DM_free(node);
 171:C:/Users/stapi/OneDrive/Desktop/GD32VW553/V1_MQTT_OK/GD32VW55X_Wifi_BLE_SDK/GD32VW55x_RELEASE_V1.0.2/MSDK/cloud/alicloud/src/services/linkkit/dm\dm_message_cache.c ****             ctx->dmc_list_size--;
 172:C:/Users/stapi/OneDrive/Desktop/GD32VW553/V1_MQTT_OK/GD32VW55X_Wifi_BLE_SDK/GD32VW55x_RELEASE_V1.0.2/MSDK/cloud/alicloud/src/services/linkkit/dm\dm_message_cache.c ****         }
 173:C:/Users/stapi/OneDrive/Desktop/GD32VW553/V1_MQTT_OK/GD32VW55X_Wifi_BLE_SDK/GD32VW55x_RELEASE_V1.0.2/MSDK/cloud/alicloud/src/services/linkkit/dm\dm_message_cache.c ****     }
 174:C:/Users/stapi/OneDrive/Desktop/GD32VW553/V1_MQTT_OK/GD32VW55X_Wifi_BLE_SDK/GD32VW55x_RELEASE_V1.0.2/MSDK/cloud/alicloud/src/services/linkkit/dm\dm_message_cache.c ****     _dm_msg_cache_mutex_unlock();
 749              		.loc 1 174 5
 750 0052 97000000 		call	_dm_msg_cache_mutex_unlock
 750      E7800000 
 751              	.LVL79:
 175:C:/Users/stapi/OneDrive/Desktop/GD32VW553/V1_MQTT_OK/GD32VW55X_Wifi_BLE_SDK/GD32VW55x_RELEASE_V1.0.2/MSDK/cloud/alicloud/src/services/linkkit/dm\dm_message_cache.c **** }
 752              		.loc 1 175 1 is_stmt 0
 753 005a 17030000 		tail	__riscv_restore_10
 753      67000300 
 754              		.cfi_remember_state
 755              		.cfi_restore 25
 756              		.cfi_restore 24
 757              		.cfi_restore 23
 758              		.cfi_restore 22
 759              		.cfi_restore 21
 760              		.cfi_restore 20
 761              		.cfi_restore 19
 762              		.cfi_restore 18
 763              		.cfi_restore 9
 764              		.cfi_restore 8
 765              		.cfi_restore 1
 766              		.cfi_def_cfa_offset 0
 767              	.L71:
 768              		.cfi_restore_state
 159:C:/Users/stapi/OneDrive/Desktop/GD32VW553/V1_MQTT_OK/GD32VW55X_Wifi_BLE_SDK/GD32VW55x_RELEASE_V1.0.2/MSDK/cloud/alicloud/src/services/linkkit/dm\dm_message_cache.c ****             node->ctime = current_time;
 769              		.loc 1 159 9 is_stmt 1
 159:C:/Users/stapi/OneDrive/Desktop/GD32VW553/V1_MQTT_OK/GD32VW55X_Wifi_BLE_SDK/GD32VW55x_RELEASE_V1.0.2/MSDK/cloud/alicloud/src/services/linkkit/dm\dm_message_cache.c ****             node->ctime = current_time;
 770              		.loc 1 159 32 is_stmt 0
 771 0062 5848     		lw	a4,20(s0)
 772 0064 1C48     		lw	a5,16(s0)
 159:C:/Users/stapi/OneDrive/Desktop/GD32VW553/V1_MQTT_OK/GD32VW55X_Wifi_BLE_SDK/GD32VW55x_RELEASE_V1.0.2/MSDK/cloud/alicloud/src/services/linkkit/dm\dm_message_cache.c ****             node->ctime = current_time;
 773              		.loc 1 159 12
 774 0066 6366E900 		bgtu	a4,s2,.L72
 775 006a 631D2701 		bne	a4,s2,.L66
 776 006e 63FBF400 		bleu	a5,s1,.L66
 777              	.L72:
 160:C:/Users/stapi/OneDrive/Desktop/GD32VW553/V1_MQTT_OK/GD32VW55X_Wifi_BLE_SDK/GD32VW55x_RELEASE_V1.0.2/MSDK/cloud/alicloud/src/services/linkkit/dm\dm_message_cache.c ****         }
 778              		.loc 1 160 13 is_stmt 1
 160:C:/Users/stapi/OneDrive/Desktop/GD32VW553/V1_MQTT_OK/GD32VW55X_Wifi_BLE_SDK/GD32VW55x_RELEASE_V1.0.2/MSDK/cloud/alicloud/src/services/linkkit/dm\dm_message_cache.c ****         }
 779              		.loc 1 160 25 is_stmt 0
 780 0072 04C8     		sw	s1,16(s0)
 781 0074 232A2401 		sw	s2,20(s0)
 162:C:/Users/stapi/OneDrive/Desktop/GD32VW553/V1_MQTT_OK/GD32VW55X_Wifi_BLE_SDK/GD32VW55x_RELEASE_V1.0.2/MSDK/cloud/alicloud/src/services/linkkit/dm\dm_message_cache.c ****             dm_log_debug("Message ID Timeout: %d", node->msgid);
 782              		.loc 1 162 9 is_stmt 1
 783              	.LVL80:
 784              	.L68:
 158:C:/Users/stapi/OneDrive/Desktop/GD32VW553/V1_MQTT_OK/GD32VW55X_Wifi_BLE_SDK/GD32VW55x_RELEASE_V1.0.2/MSDK/cloud/alicloud/src/services/linkkit/dm\dm_message_cache.c ****         if (current_time < node->ctime) {
 785              		.loc 1 158 5 discriminator 2
 786 0078 8327CA01 		lw	a5,28(s4)
 787              	.LVL81:
 788 007c 5284     		mv	s0,s4
 789 007e 138A87FE 		addi	s4,a5,-24
 790              	.LVL82:
 791 0082 E1B7     		j	.L65
 792              	.L66:
 162:C:/Users/stapi/OneDrive/Desktop/GD32VW553/V1_MQTT_OK/GD32VW55X_Wifi_BLE_SDK/GD32VW55x_RELEASE_V1.0.2/MSDK/cloud/alicloud/src/services/linkkit/dm\dm_message_cache.c ****             dm_log_debug("Message ID Timeout: %d", node->msgid);
 793              		.loc 1 162 9
 162:C:/Users/stapi/OneDrive/Desktop/GD32VW553/V1_MQTT_OK/GD32VW55X_Wifi_BLE_SDK/GD32VW55x_RELEASE_V1.0.2/MSDK/cloud/alicloud/src/services/linkkit/dm\dm_message_cache.c ****             dm_log_debug("Message ID Timeout: %d", node->msgid);
 794              		.loc 1 162 26 is_stmt 0
 795 0084 B387F440 		sub	a5,s1,a5
 796 0088 B3B6F400 		sgtu	a3,a5,s1
 797 008c 3307E940 		sub	a4,s2,a4
 162:C:/Users/stapi/OneDrive/Desktop/GD32VW553/V1_MQTT_OK/GD32VW55X_Wifi_BLE_SDK/GD32VW55x_RELEASE_V1.0.2/MSDK/cloud/alicloud/src/services/linkkit/dm\dm_message_cache.c ****             dm_log_debug("Message ID Timeout: %d", node->msgid);
 798              		.loc 1 162 12
 799 0090 6314D700 		bne	a4,a3,.L73
 800 0094 E3F2FAFE 		bleu	a5,s5,.L68
 801              	.L73:
 163:C:/Users/stapi/OneDrive/Desktop/GD32VW553/V1_MQTT_OK/GD32VW55X_Wifi_BLE_SDK/GD32VW55x_RELEASE_V1.0.2/MSDK/cloud/alicloud/src/services/linkkit/dm\dm_message_cache.c ****             /* Send Timeout Message To User */
 802              		.loc 1 163 13 is_stmt 1
 803 0098 1C40     		lw	a5,0(s0)
 804 009a 13070C00 		addi	a4,s8,%lo(.LC3)
 805 009e 9546     		li	a3,5
 806 00a0 1306300A 		li	a2,163
 807 00a4 93850B00 		addi	a1,s7,%lo(.LANCHOR3)
 808 00a8 13850C00 		addi	a0,s9,%lo(.LC1)
 809 00ac 97000000 		call	LITE_syslog
 809      E7800000 
 810              	.LVL83:
 165:C:/Users/stapi/OneDrive/Desktop/GD32VW553/V1_MQTT_OK/GD32VW55X_Wifi_BLE_SDK/GD32VW55x_RELEASE_V1.0.2/MSDK/cloud/alicloud/src/services/linkkit/dm\dm_message_cache.c ****             list_del(&node->linked_list);
 811              		.loc 1 165 13
 812 00b4 1044     		lw	a2,8(s0)
 813 00b6 4C40     		lw	a1,4(s0)
 814 00b8 0840     		lw	a0,0(s0)
 815 00ba 97000000 		call	dm_msg_send_msg_timeout_to_user
 815      E7800000 
 816              	.LVL84:
 166:C:/Users/stapi/OneDrive/Desktop/GD32VW553/V1_MQTT_OK/GD32VW55X_Wifi_BLE_SDK/GD32VW55x_RELEASE_V1.0.2/MSDK/cloud/alicloud/src/services/linkkit/dm\dm_message_cache.c ****             if (node->data) {
 817              		.loc 1 166 13
 818              	.LBB54:
 819              	.LBB55:
  68:..\..\..\..\cloud\alicloud\src\infra\utils\misc/lite-list.h ****     dlist_t *next = node->next;
 820              		.loc 2 68 5
  68:..\..\..\..\cloud\alicloud\src\infra\utils\misc/lite-list.h ****     dlist_t *next = node->next;
 821              		.loc 2 68 14 is_stmt 0
 822 00c2 184C     		lw	a4,24(s0)
 823              	.LVL85:
  69:..\..\..\..\cloud\alicloud\src\infra\utils\misc/lite-list.h **** 
 824              		.loc 2 69 5 is_stmt 1
  69:..\..\..\..\cloud\alicloud\src\infra\utils\misc/lite-list.h **** 
 825              		.loc 2 69 14 is_stmt 0
 826 00c4 5C4C     		lw	a5,28(s0)
 827              	.LVL86:
  71:..\..\..\..\cloud\alicloud\src\infra\utils\misc/lite-list.h ****     next->prev = prev;
 828              		.loc 2 71 5 is_stmt 1
 829              	.LBE55:
 830              	.LBE54:
 167:C:/Users/stapi/OneDrive/Desktop/GD32VW553/V1_MQTT_OK/GD32VW55X_Wifi_BLE_SDK/GD32VW55x_RELEASE_V1.0.2/MSDK/cloud/alicloud/src/services/linkkit/dm\dm_message_cache.c ****                 DM_free(node->data);
 831              		.loc 1 167 21 is_stmt 0
 832 00c6 4844     		lw	a0,12(s0)
 833              	.LBB57:
 834              	.LBB56:
  71:..\..\..\..\cloud\alicloud\src\infra\utils\misc/lite-list.h ****     next->prev = prev;
 835              		.loc 2 71 16
 836 00c8 5CC3     		sw	a5,4(a4)
  72:..\..\..\..\cloud\alicloud\src\infra\utils\misc/lite-list.h **** }
 837              		.loc 2 72 5 is_stmt 1
  72:..\..\..\..\cloud\alicloud\src\infra\utils\misc/lite-list.h **** }
 838              		.loc 2 72 16 is_stmt 0
 839 00ca 98C3     		sw	a4,0(a5)
 840              	.LVL87:
 841              	.LBE56:
 842              	.LBE57:
 167:C:/Users/stapi/OneDrive/Desktop/GD32VW553/V1_MQTT_OK/GD32VW55X_Wifi_BLE_SDK/GD32VW55x_RELEASE_V1.0.2/MSDK/cloud/alicloud/src/services/linkkit/dm\dm_message_cache.c ****                 DM_free(node->data);
 843              		.loc 1 167 13 is_stmt 1
 167:C:/Users/stapi/OneDrive/Desktop/GD32VW553/V1_MQTT_OK/GD32VW55X_Wifi_BLE_SDK/GD32VW55x_RELEASE_V1.0.2/MSDK/cloud/alicloud/src/services/linkkit/dm\dm_message_cache.c ****                 DM_free(node->data);
 844              		.loc 1 167 16 is_stmt 0
 845 00cc 19C5     		beq	a0,zero,.L70
 168:C:/Users/stapi/OneDrive/Desktop/GD32VW553/V1_MQTT_OK/GD32VW55X_Wifi_BLE_SDK/GD32VW55x_RELEASE_V1.0.2/MSDK/cloud/alicloud/src/services/linkkit/dm\dm_message_cache.c ****             }
 846              		.loc 1 168 17 is_stmt 1
 847 00ce 97000000 		call	LITE_free_internal
 847      E7800000 
 848              	.LVL88:
 168:C:/Users/stapi/OneDrive/Desktop/GD32VW553/V1_MQTT_OK/GD32VW55X_Wifi_BLE_SDK/GD32VW55x_RELEASE_V1.0.2/MSDK/cloud/alicloud/src/services/linkkit/dm\dm_message_cache.c ****             }
 849              		.loc 1 168 17
 850 00d6 23260400 		sw	zero,12(s0)
 851              	.L70:
 168:C:/Users/stapi/OneDrive/Desktop/GD32VW553/V1_MQTT_OK/GD32VW55X_Wifi_BLE_SDK/GD32VW55x_RELEASE_V1.0.2/MSDK/cloud/alicloud/src/services/linkkit/dm\dm_message_cache.c ****             }
 852              		.loc 1 168 36 discriminator 1
 170:C:/Users/stapi/OneDrive/Desktop/GD32VW553/V1_MQTT_OK/GD32VW55X_Wifi_BLE_SDK/GD32VW55x_RELEASE_V1.0.2/MSDK/cloud/alicloud/src/services/linkkit/dm\dm_message_cache.c ****             ctx->dmc_list_size--;
 853              		.loc 1 170 13 discriminator 1
 854 00da 2285     		mv	a0,s0
 855 00dc 97000000 		call	LITE_free_internal
 855      E7800000 
 856              	.LVL89:
 170:C:/Users/stapi/OneDrive/Desktop/GD32VW553/V1_MQTT_OK/GD32VW55X_Wifi_BLE_SDK/GD32VW55x_RELEASE_V1.0.2/MSDK/cloud/alicloud/src/services/linkkit/dm\dm_message_cache.c ****             ctx->dmc_list_size--;
 857              		.loc 1 170 13 discriminator 1
 170:C:/Users/stapi/OneDrive/Desktop/GD32VW553/V1_MQTT_OK/GD32VW55X_Wifi_BLE_SDK/GD32VW55x_RELEASE_V1.0.2/MSDK/cloud/alicloud/src/services/linkkit/dm\dm_message_cache.c ****             ctx->dmc_list_size--;
 858              		.loc 1 170 26 discriminator 1
 171:C:/Users/stapi/OneDrive/Desktop/GD32VW553/V1_MQTT_OK/GD32VW55X_Wifi_BLE_SDK/GD32VW55x_RELEASE_V1.0.2/MSDK/cloud/alicloud/src/services/linkkit/dm\dm_message_cache.c ****         }
 859              		.loc 1 171 13 discriminator 1
 171:C:/Users/stapi/OneDrive/Desktop/GD32VW553/V1_MQTT_OK/GD32VW55X_Wifi_BLE_SDK/GD32VW55x_RELEASE_V1.0.2/MSDK/cloud/alicloud/src/services/linkkit/dm\dm_message_cache.c ****         }
 860              		.loc 1 171 31 is_stmt 0 discriminator 1
 861 00e4 83A74900 		lw	a5,4(s3)
 862 00e8 FD17     		addi	a5,a5,-1
 863 00ea 23A2F900 		sw	a5,4(s3)
 864 00ee 69B7     		j	.L68
 865              		.cfi_endproc
 866              	.LFE28:
 868              		.globl	g_dm_msg_cache_ctx
 869              		.section	.bss.g_dm_msg_cache_ctx,"aw",@nobits
 870              		.align	2
 871              		.set	.LANCHOR0,. + 0
 874              	g_dm_msg_cache_ctx:
 875 0000 00000000 		.zero	16
 875      00000000 
 875      00000000 
 875      00000000 
 876              		.section	.rodata.__FUNCTION__.0,"a"
 877              		.align	2
 878              		.set	.LANCHOR3,. + 0
 881              	__FUNCTION__.0:
 882 0000 646D5F6D 		.string	"dm_msg_cache_tick"
 882      73675F63 
 882      61636865 
 882      5F746963 
 882      6B00
 883              		.section	.rodata.__FUNCTION__.1,"a"
 884              		.align	2
 885              		.set	.LANCHOR2,. + 0
 888              	__FUNCTION__.1:
 889 0000 646D5F6D 		.string	"dm_msg_cache_remove"
 889      73675F63 
 889      61636865 
 889      5F72656D 
 889      6F766500 
 890              		.section	.rodata.__FUNCTION__.2,"a"
 891              		.align	2
 892              		.set	.LANCHOR1,. + 0
 895              	__FUNCTION__.2:
 896 0000 646D5F6D 		.string	"dm_msg_cache_insert"
 896      73675F63 
 896      61636865 
 896      5F696E73 
 896      65727400 
 897              		.text
 898              	.Letext0:
 899              		.file 3 "c:\\users\\stapi\\onedrive\\desktop\\gd32vw553\\embeddedbuilder_v1.4.7.26843\\tools\\nucl
 900              		.file 4 "c:\\users\\stapi\\onedrive\\desktop\\gd32vw553\\embeddedbuilder_v1.4.7.26843\\tools\\nucl
 901              		.file 5 "c:\\users\\stapi\\onedrive\\desktop\\gd32vw553\\embeddedbuilder_v1.4.7.26843\\tools\\nucl
 902              		.file 6 "C:/Users/stapi/OneDrive/Desktop/GD32VW553/V1_MQTT_OK/GD32VW55X_Wifi_BLE_SDK/GD32VW55x_REL
 903              		.file 7 "C:/Users/stapi/OneDrive/Desktop/GD32VW553/V1_MQTT_OK/GD32VW55X_Wifi_BLE_SDK/GD32VW55x_REL
 904              		.file 8 "..\\..\\..\\..\\cloud\\alicloud\\include/iot_import.h"
 905              		.file 9 "..\\..\\..\\..\\cloud\\alicloud\\src\\infra\\log/iotx_log.h"
 906              		.file 10 "C:/Users/stapi/OneDrive/Desktop/GD32VW553/V1_MQTT_OK/GD32VW55X_Wifi_BLE_SDK/GD32VW55x_RE
 907              		.file 11 "..\\..\\..\\..\\cloud\\alicloud\\src\\infra\\utils/iotx_utils.h"
 908              		.file 12 "..\\..\\..\\..\\cloud\\alicloud\\include/exports/iot_export_errno.h"
 909              		.file 13 "<built-in>"
DEFINED SYMBOLS
                            *ABS*:0000000000000000 dm_message_cache.c
C:\Users\stapi\AppData\Local\Temp\ccXPBA0K.s:12     .text._dm_msg_cache_mutex_lock:0000000000000000 _dm_msg_cache_mutex_lock
C:\Users\stapi\AppData\Local\Temp\ccXPBA0K.s:16     .text._dm_msg_cache_mutex_lock:0000000000000000 .L0 
C:\Users\stapi\AppData\Local\Temp\ccXPBA0K.s:17     .text._dm_msg_cache_mutex_lock:0000000000000000 .L0 
C:\Users\stapi\AppData\Local\Temp\ccXPBA0K.s:18     .text._dm_msg_cache_mutex_lock:0000000000000000 .L0 
C:\Users\stapi\AppData\Local\Temp\ccXPBA0K.s:20     .text._dm_msg_cache_mutex_lock:0000000000000000 .L0 
C:\Users\stapi\AppData\Local\Temp\ccXPBA0K.s:21     .text._dm_msg_cache_mutex_lock:0000000000000000 .L0 
C:\Users\stapi\AppData\Local\Temp\ccXPBA0K.s:22     .text._dm_msg_cache_mutex_lock:0000000000000000 .L0 
C:\Users\stapi\AppData\Local\Temp\ccXPBA0K.s:25     .text._dm_msg_cache_mutex_lock:0000000000000008 .L0 
C:\Users\stapi\AppData\Local\Temp\ccXPBA0K.s:27     .text._dm_msg_cache_mutex_lock:000000000000000a .L0 
C:\Users\stapi\AppData\Local\Temp\ccXPBA0K.s:31     .text._dm_msg_cache_mutex_lock:0000000000000014 .L0 
C:\Users\stapi\AppData\Local\Temp\ccXPBA0K.s:37     .text._dm_msg_cache_mutex_unlock:0000000000000000 _dm_msg_cache_mutex_unlock
C:\Users\stapi\AppData\Local\Temp\ccXPBA0K.s:40     .text._dm_msg_cache_mutex_unlock:0000000000000000 .L0 
C:\Users\stapi\AppData\Local\Temp\ccXPBA0K.s:41     .text._dm_msg_cache_mutex_unlock:0000000000000000 .L0 
C:\Users\stapi\AppData\Local\Temp\ccXPBA0K.s:42     .text._dm_msg_cache_mutex_unlock:0000000000000000 .L0 
C:\Users\stapi\AppData\Local\Temp\ccXPBA0K.s:44     .text._dm_msg_cache_mutex_unlock:0000000000000000 .L0 
C:\Users\stapi\AppData\Local\Temp\ccXPBA0K.s:45     .text._dm_msg_cache_mutex_unlock:0000000000000000 .L0 
C:\Users\stapi\AppData\Local\Temp\ccXPBA0K.s:46     .text._dm_msg_cache_mutex_unlock:0000000000000000 .L0 
C:\Users\stapi\AppData\Local\Temp\ccXPBA0K.s:49     .text._dm_msg_cache_mutex_unlock:0000000000000008 .L0 
C:\Users\stapi\AppData\Local\Temp\ccXPBA0K.s:51     .text._dm_msg_cache_mutex_unlock:000000000000000a .L0 
C:\Users\stapi\AppData\Local\Temp\ccXPBA0K.s:55     .text._dm_msg_cache_mutex_unlock:0000000000000014 .L0 
C:\Users\stapi\AppData\Local\Temp\ccXPBA0K.s:62     .text._dm_msg_cache_get_ctx:0000000000000000 _dm_msg_cache_get_ctx
C:\Users\stapi\AppData\Local\Temp\ccXPBA0K.s:65     .text._dm_msg_cache_get_ctx:0000000000000000 .L0 
C:\Users\stapi\AppData\Local\Temp\ccXPBA0K.s:66     .text._dm_msg_cache_get_ctx:0000000000000000 .L0 
C:\Users\stapi\AppData\Local\Temp\ccXPBA0K.s:67     .text._dm_msg_cache_get_ctx:0000000000000000 .L0 
C:\Users\stapi\AppData\Local\Temp\ccXPBA0K.s:68     .text._dm_msg_cache_get_ctx:0000000000000000 .L0 
C:\Users\stapi\AppData\Local\Temp\ccXPBA0K.s:70     .text._dm_msg_cache_get_ctx:0000000000000004 .L0 
C:\Users\stapi\AppData\Local\Temp\ccXPBA0K.s:72     .text._dm_msg_cache_get_ctx:000000000000000a .L0 
C:\Users\stapi\AppData\Local\Temp\ccXPBA0K.s:79     .text.dm_msg_cache_init:0000000000000000 dm_msg_cache_init
C:\Users\stapi\AppData\Local\Temp\ccXPBA0K.s:82     .text.dm_msg_cache_init:0000000000000000 .L0 
C:\Users\stapi\AppData\Local\Temp\ccXPBA0K.s:83     .text.dm_msg_cache_init:0000000000000000 .L0 
C:\Users\stapi\AppData\Local\Temp\ccXPBA0K.s:84     .text.dm_msg_cache_init:0000000000000008 .L0 
C:\Users\stapi\AppData\Local\Temp\ccXPBA0K.s:85     .text.dm_msg_cache_init:0000000000000008 .L0 
C:\Users\stapi\AppData\Local\Temp\ccXPBA0K.s:86     .text.dm_msg_cache_init:0000000000000008 .L0 
C:\Users\stapi\AppData\Local\Temp\ccXPBA0K.s:88     .text.dm_msg_cache_init:0000000000000008 .L0 
C:\Users\stapi\AppData\Local\Temp\ccXPBA0K.s:90     .text.dm_msg_cache_init:0000000000000008 .L0 
C:\Users\stapi\AppData\Local\Temp\ccXPBA0K.s:91     .text.dm_msg_cache_init:0000000000000008 .L0 
C:\Users\stapi\AppData\Local\Temp\ccXPBA0K.s:98     .text.dm_msg_cache_init:0000000000000020 .L0 
C:\Users\stapi\AppData\Local\Temp\ccXPBA0K.s:99     .text.dm_msg_cache_init:0000000000000020 .L0 
C:\Users\stapi\AppData\Local\Temp\ccXPBA0K.s:103    .text.dm_msg_cache_init:000000000000002a .L0 
C:\Users\stapi\AppData\Local\Temp\ccXPBA0K.s:105    .text.dm_msg_cache_init:000000000000002c .L0 
C:\Users\stapi\AppData\Local\Temp\ccXPBA0K.s:107    .text.dm_msg_cache_init:000000000000002e .L0 
C:\Users\stapi\AppData\Local\Temp\ccXPBA0K.s:113    .text.dm_msg_cache_init:0000000000000030 .L0 
C:\Users\stapi\AppData\Local\Temp\ccXPBA0K.s:114    .text.dm_msg_cache_init:0000000000000030 .L0 
C:\Users\stapi\AppData\Local\Temp\ccXPBA0K.s:115    .text.dm_msg_cache_init:0000000000000030 .L0 
C:\Users\stapi\AppData\Local\Temp\ccXPBA0K.s:118    .text.dm_msg_cache_init:0000000000000036 .L0 
C:\Users\stapi\AppData\Local\Temp\ccXPBA0K.s:119    .text.dm_msg_cache_init:0000000000000036 .L0 
C:\Users\stapi\AppData\Local\Temp\ccXPBA0K.s:124    .text.dm_msg_cache_init:0000000000000038 .L0 
C:\Users\stapi\AppData\Local\Temp\ccXPBA0K.s:125    .text.dm_msg_cache_init:0000000000000038 .L0 
C:\Users\stapi\AppData\Local\Temp\ccXPBA0K.s:128    .text.dm_msg_cache_init:000000000000003a .L0 
C:\Users\stapi\AppData\Local\Temp\ccXPBA0K.s:129    .text.dm_msg_cache_init:0000000000000042 .L0 
C:\Users\stapi\AppData\Local\Temp\ccXPBA0K.s:130    .text.dm_msg_cache_init:0000000000000042 .L0 
C:\Users\stapi\AppData\Local\Temp\ccXPBA0K.s:131    .text.dm_msg_cache_init:0000000000000042 .L0 
C:\Users\stapi\AppData\Local\Temp\ccXPBA0K.s:132    .text.dm_msg_cache_init:0000000000000042 .L0 
C:\Users\stapi\AppData\Local\Temp\ccXPBA0K.s:139    .text.dm_msg_cache_deinit:0000000000000000 dm_msg_cache_deinit
C:\Users\stapi\AppData\Local\Temp\ccXPBA0K.s:142    .text.dm_msg_cache_deinit:0000000000000000 .L0 
C:\Users\stapi\AppData\Local\Temp\ccXPBA0K.s:143    .text.dm_msg_cache_deinit:0000000000000000 .L0 
C:\Users\stapi\AppData\Local\Temp\ccXPBA0K.s:144    .text.dm_msg_cache_deinit:0000000000000008 .L0 
C:\Users\stapi\AppData\Local\Temp\ccXPBA0K.s:145    .text.dm_msg_cache_deinit:0000000000000008 .L0 
C:\Users\stapi\AppData\Local\Temp\ccXPBA0K.s:146    .text.dm_msg_cache_deinit:0000000000000008 .L0 
C:\Users\stapi\AppData\Local\Temp\ccXPBA0K.s:147    .text.dm_msg_cache_deinit:0000000000000008 .L0 
C:\Users\stapi\AppData\Local\Temp\ccXPBA0K.s:148    .text.dm_msg_cache_deinit:0000000000000008 .L0 
C:\Users\stapi\AppData\Local\Temp\ccXPBA0K.s:149    .text.dm_msg_cache_deinit:0000000000000008 .L0 
C:\Users\stapi\AppData\Local\Temp\ccXPBA0K.s:151    .text.dm_msg_cache_deinit:0000000000000008 .L0 
C:\Users\stapi\AppData\Local\Temp\ccXPBA0K.s:153    .text.dm_msg_cache_deinit:0000000000000008 .L0 
C:\Users\stapi\AppData\Local\Temp\ccXPBA0K.s:154    .text.dm_msg_cache_deinit:0000000000000008 .L0 
C:\Users\stapi\AppData\Local\Temp\ccXPBA0K.s:155    .text.dm_msg_cache_deinit:0000000000000008 .L0 
C:\Users\stapi\AppData\Local\Temp\ccXPBA0K.s:156    .text.dm_msg_cache_deinit:0000000000000008 .L0 
C:\Users\stapi\AppData\Local\Temp\ccXPBA0K.s:159    .text.dm_msg_cache_deinit:0000000000000010 .L0 
C:\Users\stapi\AppData\Local\Temp\ccXPBA0K.s:171    .text.dm_msg_cache_deinit:000000000000002c .L0 
C:\Users\stapi\AppData\Local\Temp\ccXPBA0K.s:174    .text.dm_msg_cache_deinit:0000000000000034 .L0 
C:\Users\stapi\AppData\Local\Temp\ccXPBA0K.s:177    .text.dm_msg_cache_deinit:000000000000003c .L0 
C:\Users\stapi\AppData\Local\Temp\ccXPBA0K.s:178    .text.dm_msg_cache_deinit:000000000000003c .L0 
C:\Users\stapi\AppData\Local\Temp\ccXPBA0K.s:180    .text.dm_msg_cache_deinit:000000000000003e .L0 
C:\Users\stapi\AppData\Local\Temp\ccXPBA0K.s:182    .text.dm_msg_cache_deinit:0000000000000040 .L0 
C:\Users\stapi\AppData\Local\Temp\ccXPBA0K.s:186    .text.dm_msg_cache_deinit:0000000000000048 .L0 
C:\Users\stapi\AppData\Local\Temp\ccXPBA0K.s:187    .text.dm_msg_cache_deinit:0000000000000048 .L0 
C:\Users\stapi\AppData\Local\Temp\ccXPBA0K.s:189    .text.dm_msg_cache_deinit:0000000000000052 .L0 
C:\Users\stapi\AppData\Local\Temp\ccXPBA0K.s:190    .text.dm_msg_cache_deinit:0000000000000052 .L0 
C:\Users\stapi\AppData\Local\Temp\ccXPBA0K.s:191    .text.dm_msg_cache_deinit:0000000000000052 .L0 
C:\Users\stapi\AppData\Local\Temp\ccXPBA0K.s:192    .text.dm_msg_cache_deinit:0000000000000052 .L0 
C:\Users\stapi\AppData\Local\Temp\ccXPBA0K.s:193    .text.dm_msg_cache_deinit:0000000000000052 .L0 
C:\Users\stapi\AppData\Local\Temp\ccXPBA0K.s:194    .text.dm_msg_cache_deinit:0000000000000052 .L0 
C:\Users\stapi\AppData\Local\Temp\ccXPBA0K.s:195    .text.dm_msg_cache_deinit:0000000000000052 .L0 
C:\Users\stapi\AppData\Local\Temp\ccXPBA0K.s:197    .text.dm_msg_cache_deinit:0000000000000052 .L0 
C:\Users\stapi\AppData\Local\Temp\ccXPBA0K.s:202    .text.dm_msg_cache_deinit:0000000000000052 .L0 
C:\Users\stapi\AppData\Local\Temp\ccXPBA0K.s:203    .text.dm_msg_cache_deinit:0000000000000052 .L0 
C:\Users\stapi\AppData\Local\Temp\ccXPBA0K.s:204    .text.dm_msg_cache_deinit:0000000000000052 .L0 
C:\Users\stapi\AppData\Local\Temp\ccXPBA0K.s:207    .text.dm_msg_cache_deinit:0000000000000054 .L0 
C:\Users\stapi\AppData\Local\Temp\ccXPBA0K.s:208    .text.dm_msg_cache_deinit:0000000000000054 .L0 
C:\Users\stapi\AppData\Local\Temp\ccXPBA0K.s:213    .text.dm_msg_cache_deinit:0000000000000056 .L0 
C:\Users\stapi\AppData\Local\Temp\ccXPBA0K.s:214    .text.dm_msg_cache_deinit:0000000000000056 .L0 
C:\Users\stapi\AppData\Local\Temp\ccXPBA0K.s:218    .text.dm_msg_cache_deinit:0000000000000058 .L0 
C:\Users\stapi\AppData\Local\Temp\ccXPBA0K.s:220    .text.dm_msg_cache_deinit:000000000000005a .L0 
C:\Users\stapi\AppData\Local\Temp\ccXPBA0K.s:221    .text.dm_msg_cache_deinit:000000000000005a .L0 
C:\Users\stapi\AppData\Local\Temp\ccXPBA0K.s:226    .text.dm_msg_cache_deinit:000000000000005c .L0 
C:\Users\stapi\AppData\Local\Temp\ccXPBA0K.s:227    .text.dm_msg_cache_deinit:000000000000005c .L0 
C:\Users\stapi\AppData\Local\Temp\ccXPBA0K.s:229    .text.dm_msg_cache_deinit:000000000000005e .L0 
C:\Users\stapi\AppData\Local\Temp\ccXPBA0K.s:232    .text.dm_msg_cache_deinit:0000000000000066 .L0 
C:\Users\stapi\AppData\Local\Temp\ccXPBA0K.s:235    .text.dm_msg_cache_deinit:000000000000006a .L0 
C:\Users\stapi\AppData\Local\Temp\ccXPBA0K.s:236    .text.dm_msg_cache_deinit:000000000000006a .L0 
C:\Users\stapi\AppData\Local\Temp\ccXPBA0K.s:240    .text.dm_msg_cache_deinit:0000000000000074 .L0 
C:\Users\stapi\AppData\Local\Temp\ccXPBA0K.s:241    .text.dm_msg_cache_deinit:0000000000000074 .L0 
C:\Users\stapi\AppData\Local\Temp\ccXPBA0K.s:242    .text.dm_msg_cache_deinit:0000000000000074 .L0 
C:\Users\stapi\AppData\Local\Temp\ccXPBA0K.s:248    .text.dm_msg_cache_deinit:0000000000000080 .L0 
C:\Users\stapi\AppData\Local\Temp\ccXPBA0K.s:262    .text.dm_msg_cache_insert:0000000000000000 dm_msg_cache_insert
C:\Users\stapi\AppData\Local\Temp\ccXPBA0K.s:265    .text.dm_msg_cache_insert:0000000000000000 .L0 
C:\Users\stapi\AppData\Local\Temp\ccXPBA0K.s:267    .text.dm_msg_cache_insert:0000000000000000 .L0 
C:\Users\stapi\AppData\Local\Temp\ccXPBA0K.s:268    .text.dm_msg_cache_insert:0000000000000008 .L0 
C:\Users\stapi\AppData\Local\Temp\ccXPBA0K.s:269    .text.dm_msg_cache_insert:0000000000000008 .L0 
C:\Users\stapi\AppData\Local\Temp\ccXPBA0K.s:270    .text.dm_msg_cache_insert:0000000000000008 .L0 
C:\Users\stapi\AppData\Local\Temp\ccXPBA0K.s:271    .text.dm_msg_cache_insert:0000000000000008 .L0 
C:\Users\stapi\AppData\Local\Temp\ccXPBA0K.s:272    .text.dm_msg_cache_insert:0000000000000008 .L0 
C:\Users\stapi\AppData\Local\Temp\ccXPBA0K.s:273    .text.dm_msg_cache_insert:0000000000000008 .L0 
C:\Users\stapi\AppData\Local\Temp\ccXPBA0K.s:274    .text.dm_msg_cache_insert:0000000000000008 .L0 
C:\Users\stapi\AppData\Local\Temp\ccXPBA0K.s:275    .text.dm_msg_cache_insert:0000000000000008 .L0 
C:\Users\stapi\AppData\Local\Temp\ccXPBA0K.s:277    .text.dm_msg_cache_insert:0000000000000008 .L0 
C:\Users\stapi\AppData\Local\Temp\ccXPBA0K.s:279    .text.dm_msg_cache_insert:0000000000000008 .L0 
C:\Users\stapi\AppData\Local\Temp\ccXPBA0K.s:280    .text.dm_msg_cache_insert:0000000000000008 .L0 
C:\Users\stapi\AppData\Local\Temp\ccXPBA0K.s:281    .text.dm_msg_cache_insert:0000000000000008 .L0 
C:\Users\stapi\AppData\Local\Temp\ccXPBA0K.s:285    .text.dm_msg_cache_insert:0000000000000012 .L0 
C:\Users\stapi\AppData\Local\Temp\ccXPBA0K.s:288    .text.dm_msg_cache_insert:0000000000000016 .L0 
C:\Users\stapi\AppData\Local\Temp\ccXPBA0K.s:296    .text.dm_msg_cache_insert:000000000000002a .L0 
C:\Users\stapi\AppData\Local\Temp\ccXPBA0K.s:299    .text.dm_msg_cache_insert:000000000000002e .L0 
C:\Users\stapi\AppData\Local\Temp\ccXPBA0K.s:307    .text.dm_msg_cache_insert:0000000000000040 .L0 
C:\Users\stapi\AppData\Local\Temp\ccXPBA0K.s:308    .text.dm_msg_cache_insert:0000000000000040 .L0 
C:\Users\stapi\AppData\Local\Temp\ccXPBA0K.s:311    .text.dm_msg_cache_insert:0000000000000044 .L0 
C:\Users\stapi\AppData\Local\Temp\ccXPBA0K.s:313    .text.dm_msg_cache_insert:0000000000000046 .L0 
C:\Users\stapi\AppData\Local\Temp\ccXPBA0K.s:315    .text.dm_msg_cache_insert:000000000000004a .L0 
C:\Users\stapi\AppData\Local\Temp\ccXPBA0K.s:316    .text.dm_msg_cache_insert:000000000000004a .L0 
C:\Users\stapi\AppData\Local\Temp\ccXPBA0K.s:324    .text.dm_msg_cache_insert:000000000000005c .L0 
C:\Users\stapi\AppData\Local\Temp\ccXPBA0K.s:325    .text.dm_msg_cache_insert:000000000000005c .L0 
C:\Users\stapi\AppData\Local\Temp\ccXPBA0K.s:327    .text.dm_msg_cache_insert:000000000000005e .L0 
C:\Users\stapi\AppData\Local\Temp\ccXPBA0K.s:329    .text.dm_msg_cache_insert:0000000000000060 .L0 
C:\Users\stapi\AppData\Local\Temp\ccXPBA0K.s:335    .text.dm_msg_cache_insert:0000000000000070 .L0 
C:\Users\stapi\AppData\Local\Temp\ccXPBA0K.s:336    .text.dm_msg_cache_insert:0000000000000070 .L0 
C:\Users\stapi\AppData\Local\Temp\ccXPBA0K.s:338    .text.dm_msg_cache_insert:0000000000000074 .L0 
C:\Users\stapi\AppData\Local\Temp\ccXPBA0K.s:340    .text.dm_msg_cache_insert:0000000000000078 .L0 
C:\Users\stapi\AppData\Local\Temp\ccXPBA0K.s:341    .text.dm_msg_cache_insert:0000000000000078 .L0 
C:\Users\stapi\AppData\Local\Temp\ccXPBA0K.s:343    .text.dm_msg_cache_insert:000000000000007c .L0 
C:\Users\stapi\AppData\Local\Temp\ccXPBA0K.s:344    .text.dm_msg_cache_insert:000000000000007c .L0 
C:\Users\stapi\AppData\Local\Temp\ccXPBA0K.s:346    .text.dm_msg_cache_insert:0000000000000080 .L0 
C:\Users\stapi\AppData\Local\Temp\ccXPBA0K.s:347    .text.dm_msg_cache_insert:0000000000000080 .L0 
C:\Users\stapi\AppData\Local\Temp\ccXPBA0K.s:348    .text.dm_msg_cache_insert:0000000000000080 .L0 
C:\Users\stapi\AppData\Local\Temp\ccXPBA0K.s:351    .text.dm_msg_cache_insert:0000000000000088 .L0 
C:\Users\stapi\AppData\Local\Temp\ccXPBA0K.s:354    .text.dm_msg_cache_insert:000000000000008c .L0 
C:\Users\stapi\AppData\Local\Temp\ccXPBA0K.s:360    .text.dm_msg_cache_insert:0000000000000090 .L0 
C:\Users\stapi\AppData\Local\Temp\ccXPBA0K.s:361    .text.dm_msg_cache_insert:0000000000000090 .L0 
C:\Users\stapi\AppData\Local\Temp\ccXPBA0K.s:362    .text.dm_msg_cache_insert:0000000000000090 .L0 
C:\Users\stapi\AppData\Local\Temp\ccXPBA0K.s:364    .text.dm_msg_cache_insert:0000000000000094 .L0 
C:\Users\stapi\AppData\Local\Temp\ccXPBA0K.s:365    .text.dm_msg_cache_insert:0000000000000094 .L0 
C:\Users\stapi\AppData\Local\Temp\ccXPBA0K.s:370    .text.dm_msg_cache_insert:0000000000000098 .L0 
C:\Users\stapi\AppData\Local\Temp\ccXPBA0K.s:375    .text.dm_msg_cache_insert:00000000000000a0 .L0 
C:\Users\stapi\AppData\Local\Temp\ccXPBA0K.s:376    .text.dm_msg_cache_insert:00000000000000a0 .L0 
C:\Users\stapi\AppData\Local\Temp\ccXPBA0K.s:377    .text.dm_msg_cache_insert:00000000000000a0 .L0 
C:\Users\stapi\AppData\Local\Temp\ccXPBA0K.s:382    .text.dm_msg_cache_insert:00000000000000a2 .L0 
C:\Users\stapi\AppData\Local\Temp\ccXPBA0K.s:383    .text.dm_msg_cache_insert:00000000000000a2 .L0 
C:\Users\stapi\AppData\Local\Temp\ccXPBA0K.s:386    .text.dm_msg_cache_insert:00000000000000a8 .L0 
C:\Users\stapi\AppData\Local\Temp\ccXPBA0K.s:387    .text.dm_msg_cache_insert:00000000000000a8 .L0 
C:\Users\stapi\AppData\Local\Temp\ccXPBA0K.s:389    .text.dm_msg_cache_insert:00000000000000aa .L0 
C:\Users\stapi\AppData\Local\Temp\ccXPBA0K.s:390    .text.dm_msg_cache_insert:00000000000000aa .L0 
C:\Users\stapi\AppData\Local\Temp\ccXPBA0K.s:396    .text.dm_msg_cache_insert:00000000000000ae .L0 
C:\Users\stapi\AppData\Local\Temp\ccXPBA0K.s:397    .text.dm_msg_cache_insert:00000000000000ae .L0 
C:\Users\stapi\AppData\Local\Temp\ccXPBA0K.s:404    .text.dm_msg_cache_insert:00000000000000b0 .L0 
C:\Users\stapi\AppData\Local\Temp\ccXPBA0K.s:411    .text.dm_msg_cache_insert:00000000000000b4 .L0 
C:\Users\stapi\AppData\Local\Temp\ccXPBA0K.s:412    .text.dm_msg_cache_insert:00000000000000b4 .L0 
C:\Users\stapi\AppData\Local\Temp\ccXPBA0K.s:415    .text.dm_msg_cache_insert:00000000000000b8 .L0 
C:\Users\stapi\AppData\Local\Temp\ccXPBA0K.s:418    .text.dm_msg_cache_insert:00000000000000c0 .L0 
C:\Users\stapi\AppData\Local\Temp\ccXPBA0K.s:419    .text.dm_msg_cache_insert:00000000000000c0 .L0 
C:\Users\stapi\AppData\Local\Temp\ccXPBA0K.s:423    .text.dm_msg_cache_insert:00000000000000c2 .L0 
C:\Users\stapi\AppData\Local\Temp\ccXPBA0K.s:424    .text.dm_msg_cache_insert:00000000000000ca .L0 
C:\Users\stapi\AppData\Local\Temp\ccXPBA0K.s:425    .text.dm_msg_cache_insert:00000000000000ca .L0 
C:\Users\stapi\AppData\Local\Temp\ccXPBA0K.s:426    .text.dm_msg_cache_insert:00000000000000ca .L0 
C:\Users\stapi\AppData\Local\Temp\ccXPBA0K.s:427    .text.dm_msg_cache_insert:00000000000000ca .L0 
C:\Users\stapi\AppData\Local\Temp\ccXPBA0K.s:428    .text.dm_msg_cache_insert:00000000000000ca .L0 
C:\Users\stapi\AppData\Local\Temp\ccXPBA0K.s:429    .text.dm_msg_cache_insert:00000000000000ca .L0 
C:\Users\stapi\AppData\Local\Temp\ccXPBA0K.s:430    .text.dm_msg_cache_insert:00000000000000ca .L0 
C:\Users\stapi\AppData\Local\Temp\ccXPBA0K.s:431    .text.dm_msg_cache_insert:00000000000000ca .L0 
C:\Users\stapi\AppData\Local\Temp\ccXPBA0K.s:432    .text.dm_msg_cache_insert:00000000000000ca .L0 
C:\Users\stapi\AppData\Local\Temp\ccXPBA0K.s:439    .text.dm_msg_cache_search:0000000000000000 dm_msg_cache_search
C:\Users\stapi\AppData\Local\Temp\ccXPBA0K.s:442    .text.dm_msg_cache_search:0000000000000000 .L0 
C:\Users\stapi\AppData\Local\Temp\ccXPBA0K.s:444    .text.dm_msg_cache_search:0000000000000000 .L0 
C:\Users\stapi\AppData\Local\Temp\ccXPBA0K.s:445    .text.dm_msg_cache_search:0000000000000000 .L0 
C:\Users\stapi\AppData\Local\Temp\ccXPBA0K.s:446    .text.dm_msg_cache_search:0000000000000000 .L0 
C:\Users\stapi\AppData\Local\Temp\ccXPBA0K.s:447    .text.dm_msg_cache_search:0000000000000000 .L0 
C:\Users\stapi\AppData\Local\Temp\ccXPBA0K.s:448    .text.dm_msg_cache_search:0000000000000000 .L0 
C:\Users\stapi\AppData\Local\Temp\ccXPBA0K.s:449    .text.dm_msg_cache_search:0000000000000000 .L0 
C:\Users\stapi\AppData\Local\Temp\ccXPBA0K.s:451    .text.dm_msg_cache_search:0000000000000004 .L0 
C:\Users\stapi\AppData\Local\Temp\ccXPBA0K.s:452    .text.dm_msg_cache_search:000000000000000c .L0 
C:\Users\stapi\AppData\Local\Temp\ccXPBA0K.s:453    .text.dm_msg_cache_search:000000000000000c .L0 
C:\Users\stapi\AppData\Local\Temp\ccXPBA0K.s:454    .text.dm_msg_cache_search:000000000000000c .L0 
C:\Users\stapi\AppData\Local\Temp\ccXPBA0K.s:455    .text.dm_msg_cache_search:000000000000000c .L0 
C:\Users\stapi\AppData\Local\Temp\ccXPBA0K.s:459    .text.dm_msg_cache_search:0000000000000010 .L0 
C:\Users\stapi\AppData\Local\Temp\ccXPBA0K.s:462    .text.dm_msg_cache_search:0000000000000012 .L0 
C:\Users\stapi\AppData\Local\Temp\ccXPBA0K.s:464    .text.dm_msg_cache_search:0000000000000014 .L0 
C:\Users\stapi\AppData\Local\Temp\ccXPBA0K.s:467    .text.dm_msg_cache_search:0000000000000018 .L0 
C:\Users\stapi\AppData\Local\Temp\ccXPBA0K.s:470    .text.dm_msg_cache_search:0000000000000020 .L0 
C:\Users\stapi\AppData\Local\Temp\ccXPBA0K.s:478    .text.dm_msg_cache_search:000000000000002e .L0 
C:\Users\stapi\AppData\Local\Temp\ccXPBA0K.s:481    .text.dm_msg_cache_search:0000000000000036 .L0 
C:\Users\stapi\AppData\Local\Temp\ccXPBA0K.s:484    .text.dm_msg_cache_search:000000000000003e .L0 
C:\Users\stapi\AppData\Local\Temp\ccXPBA0K.s:485    .text.dm_msg_cache_search:000000000000003e .L0 
C:\Users\stapi\AppData\Local\Temp\ccXPBA0K.s:490    .text.dm_msg_cache_search:0000000000000042 .L0 
C:\Users\stapi\AppData\Local\Temp\ccXPBA0K.s:491    .text.dm_msg_cache_search:0000000000000042 .L0 
C:\Users\stapi\AppData\Local\Temp\ccXPBA0K.s:494    .text.dm_msg_cache_search:0000000000000048 .L0 
C:\Users\stapi\AppData\Local\Temp\ccXPBA0K.s:495    .text.dm_msg_cache_search:0000000000000048 .L0 
C:\Users\stapi\AppData\Local\Temp\ccXPBA0K.s:497    .text.dm_msg_cache_search:000000000000004a .L0 
C:\Users\stapi\AppData\Local\Temp\ccXPBA0K.s:500    .text.dm_msg_cache_search:0000000000000052 .L0 
C:\Users\stapi\AppData\Local\Temp\ccXPBA0K.s:501    .text.dm_msg_cache_search:0000000000000052 .L0 
C:\Users\stapi\AppData\Local\Temp\ccXPBA0K.s:504    .text.dm_msg_cache_search:0000000000000054 .L0 
C:\Users\stapi\AppData\Local\Temp\ccXPBA0K.s:505    .text.dm_msg_cache_search:000000000000005c .L0 
C:\Users\stapi\AppData\Local\Temp\ccXPBA0K.s:506    .text.dm_msg_cache_search:000000000000005c .L0 
C:\Users\stapi\AppData\Local\Temp\ccXPBA0K.s:507    .text.dm_msg_cache_search:000000000000005c .L0 
C:\Users\stapi\AppData\Local\Temp\ccXPBA0K.s:508    .text.dm_msg_cache_search:000000000000005c .L0 
C:\Users\stapi\AppData\Local\Temp\ccXPBA0K.s:509    .text.dm_msg_cache_search:000000000000005c .L0 
C:\Users\stapi\AppData\Local\Temp\ccXPBA0K.s:512    .text.dm_msg_cache_search:000000000000005c .L0 
C:\Users\stapi\AppData\Local\Temp\ccXPBA0K.s:514    .text.dm_msg_cache_search:000000000000005c .L0 
C:\Users\stapi\AppData\Local\Temp\ccXPBA0K.s:521    .text.dm_msg_cache_search:0000000000000062 .L0 
C:\Users\stapi\AppData\Local\Temp\ccXPBA0K.s:522    .text.dm_msg_cache_search:0000000000000062 .L0 
C:\Users\stapi\AppData\Local\Temp\ccXPBA0K.s:523    .text.dm_msg_cache_search:0000000000000062 .L0 
C:\Users\stapi\AppData\Local\Temp\ccXPBA0K.s:524    .text.dm_msg_cache_search:0000000000000062 .L0 
C:\Users\stapi\AppData\Local\Temp\ccXPBA0K.s:526    .text.dm_msg_cache_search:0000000000000062 .L0 
C:\Users\stapi\AppData\Local\Temp\ccXPBA0K.s:529    .text.dm_msg_cache_search:0000000000000064 .L0 
C:\Users\stapi\AppData\Local\Temp\ccXPBA0K.s:530    .text.dm_msg_cache_search:0000000000000066 .L0 
C:\Users\stapi\AppData\Local\Temp\ccXPBA0K.s:541    .text.dm_msg_cache_remove:0000000000000000 dm_msg_cache_remove
C:\Users\stapi\AppData\Local\Temp\ccXPBA0K.s:544    .text.dm_msg_cache_remove:0000000000000000 .L0 
C:\Users\stapi\AppData\Local\Temp\ccXPBA0K.s:546    .text.dm_msg_cache_remove:0000000000000000 .L0 
C:\Users\stapi\AppData\Local\Temp\ccXPBA0K.s:547    .text.dm_msg_cache_remove:0000000000000008 .L0 
C:\Users\stapi\AppData\Local\Temp\ccXPBA0K.s:548    .text.dm_msg_cache_remove:0000000000000008 .L0 
C:\Users\stapi\AppData\Local\Temp\ccXPBA0K.s:549    .text.dm_msg_cache_remove:0000000000000008 .L0 
C:\Users\stapi\AppData\Local\Temp\ccXPBA0K.s:550    .text.dm_msg_cache_remove:0000000000000008 .L0 
C:\Users\stapi\AppData\Local\Temp\ccXPBA0K.s:551    .text.dm_msg_cache_remove:0000000000000008 .L0 
C:\Users\stapi\AppData\Local\Temp\ccXPBA0K.s:553    .text.dm_msg_cache_remove:0000000000000008 .L0 
C:\Users\stapi\AppData\Local\Temp\ccXPBA0K.s:555    .text.dm_msg_cache_remove:0000000000000008 .L0 
C:\Users\stapi\AppData\Local\Temp\ccXPBA0K.s:556    .text.dm_msg_cache_remove:0000000000000008 .L0 
C:\Users\stapi\AppData\Local\Temp\ccXPBA0K.s:557    .text.dm_msg_cache_remove:0000000000000008 .L0 
C:\Users\stapi\AppData\Local\Temp\ccXPBA0K.s:558    .text.dm_msg_cache_remove:0000000000000008 .L0 
C:\Users\stapi\AppData\Local\Temp\ccXPBA0K.s:559    .text.dm_msg_cache_remove:0000000000000008 .L0 
C:\Users\stapi\AppData\Local\Temp\ccXPBA0K.s:561    .text.dm_msg_cache_remove:000000000000000c .L0 
C:\Users\stapi\AppData\Local\Temp\ccXPBA0K.s:563    .text.dm_msg_cache_remove:000000000000000e .L0 
C:\Users\stapi\AppData\Local\Temp\ccXPBA0K.s:566    .text.dm_msg_cache_remove:0000000000000016 .L0 
C:\Users\stapi\AppData\Local\Temp\ccXPBA0K.s:577    .text.dm_msg_cache_remove:000000000000002c .L0 
C:\Users\stapi\AppData\Local\Temp\ccXPBA0K.s:580    .text.dm_msg_cache_remove:0000000000000034 .L0 
C:\Users\stapi\AppData\Local\Temp\ccXPBA0K.s:583    .text.dm_msg_cache_remove:000000000000003c .L0 
C:\Users\stapi\AppData\Local\Temp\ccXPBA0K.s:584    .text.dm_msg_cache_remove:000000000000003c .L0 
C:\Users\stapi\AppData\Local\Temp\ccXPBA0K.s:589    .text.dm_msg_cache_remove:0000000000000040 .L0 
C:\Users\stapi\AppData\Local\Temp\ccXPBA0K.s:590    .text.dm_msg_cache_remove:0000000000000040 .L0 
C:\Users\stapi\AppData\Local\Temp\ccXPBA0K.s:596    .text.dm_msg_cache_remove:0000000000000046 .L0 
C:\Users\stapi\AppData\Local\Temp\ccXPBA0K.s:597    .text.dm_msg_cache_remove:0000000000000046 .L0 
C:\Users\stapi\AppData\Local\Temp\ccXPBA0K.s:598    .text.dm_msg_cache_remove:0000000000000046 .L0 
C:\Users\stapi\AppData\Local\Temp\ccXPBA0K.s:601    .text.dm_msg_cache_remove:0000000000000048 .L0 
C:\Users\stapi\AppData\Local\Temp\ccXPBA0K.s:602    .text.dm_msg_cache_remove:0000000000000048 .L0 
C:\Users\stapi\AppData\Local\Temp\ccXPBA0K.s:607    .text.dm_msg_cache_remove:000000000000004a .L0 
C:\Users\stapi\AppData\Local\Temp\ccXPBA0K.s:608    .text.dm_msg_cache_remove:000000000000004a .L0 
C:\Users\stapi\AppData\Local\Temp\ccXPBA0K.s:612    .text.dm_msg_cache_remove:000000000000004c .L0 
C:\Users\stapi\AppData\Local\Temp\ccXPBA0K.s:614    .text.dm_msg_cache_remove:000000000000004e .L0 
C:\Users\stapi\AppData\Local\Temp\ccXPBA0K.s:615    .text.dm_msg_cache_remove:000000000000004e .L0 
C:\Users\stapi\AppData\Local\Temp\ccXPBA0K.s:620    .text.dm_msg_cache_remove:0000000000000050 .L0 
C:\Users\stapi\AppData\Local\Temp\ccXPBA0K.s:621    .text.dm_msg_cache_remove:0000000000000050 .L0 
C:\Users\stapi\AppData\Local\Temp\ccXPBA0K.s:623    .text.dm_msg_cache_remove:0000000000000052 .L0 
C:\Users\stapi\AppData\Local\Temp\ccXPBA0K.s:626    .text.dm_msg_cache_remove:000000000000005a .L0 
C:\Users\stapi\AppData\Local\Temp\ccXPBA0K.s:629    .text.dm_msg_cache_remove:000000000000005e .L0 
C:\Users\stapi\AppData\Local\Temp\ccXPBA0K.s:630    .text.dm_msg_cache_remove:000000000000005e .L0 
C:\Users\stapi\AppData\Local\Temp\ccXPBA0K.s:631    .text.dm_msg_cache_remove:000000000000005e .L0 
C:\Users\stapi\AppData\Local\Temp\ccXPBA0K.s:633    .text.dm_msg_cache_remove:0000000000000060 .L0 
C:\Users\stapi\AppData\Local\Temp\ccXPBA0K.s:635    .text.dm_msg_cache_remove:0000000000000062 .L0 
C:\Users\stapi\AppData\Local\Temp\ccXPBA0K.s:638    .text.dm_msg_cache_remove:0000000000000066 .L0 
C:\Users\stapi\AppData\Local\Temp\ccXPBA0K.s:641    .text.dm_msg_cache_remove:000000000000006e .L0 
C:\Users\stapi\AppData\Local\Temp\ccXPBA0K.s:642    .text.dm_msg_cache_remove:000000000000006e .L0 
C:\Users\stapi\AppData\Local\Temp\ccXPBA0K.s:643    .text.dm_msg_cache_remove:000000000000006e .L0 
C:\Users\stapi\AppData\Local\Temp\ccXPBA0K.s:655    .text.dm_msg_cache_remove:0000000000000096 .L0 
C:\Users\stapi\AppData\Local\Temp\ccXPBA0K.s:658    .text.dm_msg_cache_remove:000000000000009e .L0 
C:\Users\stapi\AppData\Local\Temp\ccXPBA0K.s:659    .text.dm_msg_cache_remove:000000000000009e .L0 
C:\Users\stapi\AppData\Local\Temp\ccXPBA0K.s:663    .text.dm_msg_cache_remove:00000000000000a0 .L0 
C:\Users\stapi\AppData\Local\Temp\ccXPBA0K.s:664    .text.dm_msg_cache_remove:00000000000000a8 .L0 
C:\Users\stapi\AppData\Local\Temp\ccXPBA0K.s:665    .text.dm_msg_cache_remove:00000000000000a8 .L0 
C:\Users\stapi\AppData\Local\Temp\ccXPBA0K.s:666    .text.dm_msg_cache_remove:00000000000000a8 .L0 
C:\Users\stapi\AppData\Local\Temp\ccXPBA0K.s:667    .text.dm_msg_cache_remove:00000000000000a8 .L0 
C:\Users\stapi\AppData\Local\Temp\ccXPBA0K.s:668    .text.dm_msg_cache_remove:00000000000000a8 .L0 
C:\Users\stapi\AppData\Local\Temp\ccXPBA0K.s:669    .text.dm_msg_cache_remove:00000000000000a8 .L0 
C:\Users\stapi\AppData\Local\Temp\ccXPBA0K.s:672    .text.dm_msg_cache_remove:00000000000000a8 .L0 
C:\Users\stapi\AppData\Local\Temp\ccXPBA0K.s:674    .text.dm_msg_cache_remove:00000000000000a8 .L0 
C:\Users\stapi\AppData\Local\Temp\ccXPBA0K.s:680    .text.dm_msg_cache_remove:00000000000000b2 .L0 
C:\Users\stapi\AppData\Local\Temp\ccXPBA0K.s:691    .text.dm_msg_cache_tick:0000000000000000 dm_msg_cache_tick
C:\Users\stapi\AppData\Local\Temp\ccXPBA0K.s:694    .text.dm_msg_cache_tick:0000000000000000 .L0 
C:\Users\stapi\AppData\Local\Temp\ccXPBA0K.s:695    .text.dm_msg_cache_tick:0000000000000000 .L0 
C:\Users\stapi\AppData\Local\Temp\ccXPBA0K.s:696    .text.dm_msg_cache_tick:0000000000000008 .L0 
C:\Users\stapi\AppData\Local\Temp\ccXPBA0K.s:697    .text.dm_msg_cache_tick:0000000000000008 .L0 
C:\Users\stapi\AppData\Local\Temp\ccXPBA0K.s:698    .text.dm_msg_cache_tick:0000000000000008 .L0 
C:\Users\stapi\AppData\Local\Temp\ccXPBA0K.s:699    .text.dm_msg_cache_tick:0000000000000008 .L0 
C:\Users\stapi\AppData\Local\Temp\ccXPBA0K.s:700    .text.dm_msg_cache_tick:0000000000000008 .L0 
C:\Users\stapi\AppData\Local\Temp\ccXPBA0K.s:701    .text.dm_msg_cache_tick:0000000000000008 .L0 
C:\Users\stapi\AppData\Local\Temp\ccXPBA0K.s:702    .text.dm_msg_cache_tick:0000000000000008 .L0 
C:\Users\stapi\AppData\Local\Temp\ccXPBA0K.s:703    .text.dm_msg_cache_tick:0000000000000008 .L0 
C:\Users\stapi\AppData\Local\Temp\ccXPBA0K.s:704    .text.dm_msg_cache_tick:0000000000000008 .L0 
C:\Users\stapi\AppData\Local\Temp\ccXPBA0K.s:705    .text.dm_msg_cache_tick:0000000000000008 .L0 
C:\Users\stapi\AppData\Local\Temp\ccXPBA0K.s:706    .text.dm_msg_cache_tick:0000000000000008 .L0 
C:\Users\stapi\AppData\Local\Temp\ccXPBA0K.s:707    .text.dm_msg_cache_tick:0000000000000008 .L0 
C:\Users\stapi\AppData\Local\Temp\ccXPBA0K.s:709    .text.dm_msg_cache_tick:0000000000000008 .L0 
C:\Users\stapi\AppData\Local\Temp\ccXPBA0K.s:711    .text.dm_msg_cache_tick:0000000000000008 .L0 
C:\Users\stapi\AppData\Local\Temp\ccXPBA0K.s:712    .text.dm_msg_cache_tick:0000000000000008 .L0 
C:\Users\stapi\AppData\Local\Temp\ccXPBA0K.s:713    .text.dm_msg_cache_tick:0000000000000008 .L0 
C:\Users\stapi\AppData\Local\Temp\ccXPBA0K.s:714    .text.dm_msg_cache_tick:0000000000000008 .L0 
C:\Users\stapi\AppData\Local\Temp\ccXPBA0K.s:715    .text.dm_msg_cache_tick:0000000000000008 .L0 
C:\Users\stapi\AppData\Local\Temp\ccXPBA0K.s:718    .text.dm_msg_cache_tick:0000000000000010 .L0 
C:\Users\stapi\AppData\Local\Temp\ccXPBA0K.s:720    .text.dm_msg_cache_tick:0000000000000014 .L0 
C:\Users\stapi\AppData\Local\Temp\ccXPBA0K.s:724    .text.dm_msg_cache_tick:0000000000000018 .L0 
C:\Users\stapi\AppData\Local\Temp\ccXPBA0K.s:727    .text.dm_msg_cache_tick:0000000000000020 .L0 
C:\Users\stapi\AppData\Local\Temp\ccXPBA0K.s:731    .text.dm_msg_cache_tick:000000000000002a .L0 
C:\Users\stapi\AppData\Local\Temp\ccXPBA0K.s:733    .text.dm_msg_cache_tick:000000000000002c .L0 
C:\Users\stapi\AppData\Local\Temp\ccXPBA0K.s:740    .text.dm_msg_cache_tick:000000000000003a .L0 
C:\Users\stapi\AppData\Local\Temp\ccXPBA0K.s:744    .text.dm_msg_cache_tick:0000000000000046 .L0 
C:\Users\stapi\AppData\Local\Temp\ccXPBA0K.s:747    .text.dm_msg_cache_tick:000000000000004a .L0 
C:\Users\stapi\AppData\Local\Temp\ccXPBA0K.s:750    .text.dm_msg_cache_tick:0000000000000052 .L0 
C:\Users\stapi\AppData\Local\Temp\ccXPBA0K.s:753    .text.dm_msg_cache_tick:000000000000005a .L0 
C:\Users\stapi\AppData\Local\Temp\ccXPBA0K.s:754    .text.dm_msg_cache_tick:0000000000000062 .L0 
C:\Users\stapi\AppData\Local\Temp\ccXPBA0K.s:755    .text.dm_msg_cache_tick:0000000000000062 .L0 
C:\Users\stapi\AppData\Local\Temp\ccXPBA0K.s:756    .text.dm_msg_cache_tick:0000000000000062 .L0 
C:\Users\stapi\AppData\Local\Temp\ccXPBA0K.s:757    .text.dm_msg_cache_tick:0000000000000062 .L0 
C:\Users\stapi\AppData\Local\Temp\ccXPBA0K.s:758    .text.dm_msg_cache_tick:0000000000000062 .L0 
C:\Users\stapi\AppData\Local\Temp\ccXPBA0K.s:759    .text.dm_msg_cache_tick:0000000000000062 .L0 
C:\Users\stapi\AppData\Local\Temp\ccXPBA0K.s:760    .text.dm_msg_cache_tick:0000000000000062 .L0 
C:\Users\stapi\AppData\Local\Temp\ccXPBA0K.s:761    .text.dm_msg_cache_tick:0000000000000062 .L0 
C:\Users\stapi\AppData\Local\Temp\ccXPBA0K.s:762    .text.dm_msg_cache_tick:0000000000000062 .L0 
C:\Users\stapi\AppData\Local\Temp\ccXPBA0K.s:763    .text.dm_msg_cache_tick:0000000000000062 .L0 
C:\Users\stapi\AppData\Local\Temp\ccXPBA0K.s:764    .text.dm_msg_cache_tick:0000000000000062 .L0 
C:\Users\stapi\AppData\Local\Temp\ccXPBA0K.s:765    .text.dm_msg_cache_tick:0000000000000062 .L0 
C:\Users\stapi\AppData\Local\Temp\ccXPBA0K.s:766    .text.dm_msg_cache_tick:0000000000000062 .L0 
C:\Users\stapi\AppData\Local\Temp\ccXPBA0K.s:768    .text.dm_msg_cache_tick:0000000000000062 .L0 
C:\Users\stapi\AppData\Local\Temp\ccXPBA0K.s:770    .text.dm_msg_cache_tick:0000000000000062 .L0 
C:\Users\stapi\AppData\Local\Temp\ccXPBA0K.s:771    .text.dm_msg_cache_tick:0000000000000062 .L0 
C:\Users\stapi\AppData\Local\Temp\ccXPBA0K.s:774    .text.dm_msg_cache_tick:0000000000000066 .L0 
C:\Users\stapi\AppData\Local\Temp\ccXPBA0K.s:779    .text.dm_msg_cache_tick:0000000000000072 .L0 
C:\Users\stapi\AppData\Local\Temp\ccXPBA0K.s:780    .text.dm_msg_cache_tick:0000000000000072 .L0 
C:\Users\stapi\AppData\Local\Temp\ccXPBA0K.s:785    .text.dm_msg_cache_tick:0000000000000078 .L0 
C:\Users\stapi\AppData\Local\Temp\ccXPBA0K.s:786    .text.dm_msg_cache_tick:0000000000000078 .L0 
C:\Users\stapi\AppData\Local\Temp\ccXPBA0K.s:794    .text.dm_msg_cache_tick:0000000000000084 .L0 
C:\Users\stapi\AppData\Local\Temp\ccXPBA0K.s:795    .text.dm_msg_cache_tick:0000000000000084 .L0 
C:\Users\stapi\AppData\Local\Temp\ccXPBA0K.s:799    .text.dm_msg_cache_tick:0000000000000090 .L0 
C:\Users\stapi\AppData\Local\Temp\ccXPBA0K.s:803    .text.dm_msg_cache_tick:0000000000000098 .L0 
C:\Users\stapi\AppData\Local\Temp\ccXPBA0K.s:812    .text.dm_msg_cache_tick:00000000000000b4 .L0 
C:\Users\stapi\AppData\Local\Temp\ccXPBA0K.s:820    .text.dm_msg_cache_tick:00000000000000c2 .L0 
C:\Users\stapi\AppData\Local\Temp\ccXPBA0K.s:821    .text.dm_msg_cache_tick:00000000000000c2 .L0 
C:\Users\stapi\AppData\Local\Temp\ccXPBA0K.s:822    .text.dm_msg_cache_tick:00000000000000c2 .L0 
C:\Users\stapi\AppData\Local\Temp\ccXPBA0K.s:825    .text.dm_msg_cache_tick:00000000000000c4 .L0 
C:\Users\stapi\AppData\Local\Temp\ccXPBA0K.s:826    .text.dm_msg_cache_tick:00000000000000c4 .L0 
C:\Users\stapi\AppData\Local\Temp\ccXPBA0K.s:831    .text.dm_msg_cache_tick:00000000000000c6 .L0 
C:\Users\stapi\AppData\Local\Temp\ccXPBA0K.s:832    .text.dm_msg_cache_tick:00000000000000c6 .L0 
C:\Users\stapi\AppData\Local\Temp\ccXPBA0K.s:836    .text.dm_msg_cache_tick:00000000000000c8 .L0 
C:\Users\stapi\AppData\Local\Temp\ccXPBA0K.s:838    .text.dm_msg_cache_tick:00000000000000ca .L0 
C:\Users\stapi\AppData\Local\Temp\ccXPBA0K.s:839    .text.dm_msg_cache_tick:00000000000000ca .L0 
C:\Users\stapi\AppData\Local\Temp\ccXPBA0K.s:844    .text.dm_msg_cache_tick:00000000000000cc .L0 
C:\Users\stapi\AppData\Local\Temp\ccXPBA0K.s:845    .text.dm_msg_cache_tick:00000000000000cc .L0 
C:\Users\stapi\AppData\Local\Temp\ccXPBA0K.s:847    .text.dm_msg_cache_tick:00000000000000ce .L0 
C:\Users\stapi\AppData\Local\Temp\ccXPBA0K.s:850    .text.dm_msg_cache_tick:00000000000000d6 .L0 
C:\Users\stapi\AppData\Local\Temp\ccXPBA0K.s:853    .text.dm_msg_cache_tick:00000000000000da .L0 
C:\Users\stapi\AppData\Local\Temp\ccXPBA0K.s:854    .text.dm_msg_cache_tick:00000000000000da .L0 
C:\Users\stapi\AppData\Local\Temp\ccXPBA0K.s:858    .text.dm_msg_cache_tick:00000000000000e4 .L0 
C:\Users\stapi\AppData\Local\Temp\ccXPBA0K.s:859    .text.dm_msg_cache_tick:00000000000000e4 .L0 
C:\Users\stapi\AppData\Local\Temp\ccXPBA0K.s:860    .text.dm_msg_cache_tick:00000000000000e4 .L0 
C:\Users\stapi\AppData\Local\Temp\ccXPBA0K.s:861    .text.dm_msg_cache_tick:00000000000000e4 .L0 
C:\Users\stapi\AppData\Local\Temp\ccXPBA0K.s:865    .text.dm_msg_cache_tick:00000000000000f0 .L0 
C:\Users\stapi\AppData\Local\Temp\ccXPBA0K.s:874    .bss.g_dm_msg_cache_ctx:0000000000000000 g_dm_msg_cache_ctx
C:\Users\stapi\AppData\Local\Temp\ccXPBA0K.s:871    .bss.g_dm_msg_cache_ctx:0000000000000000 .LANCHOR0
C:\Users\stapi\AppData\Local\Temp\ccXPBA0K.s:878    .rodata.__FUNCTION__.0:0000000000000000 .LANCHOR3
C:\Users\stapi\AppData\Local\Temp\ccXPBA0K.s:881    .rodata.__FUNCTION__.0:0000000000000000 __FUNCTION__.0
C:\Users\stapi\AppData\Local\Temp\ccXPBA0K.s:885    .rodata.__FUNCTION__.1:0000000000000000 .LANCHOR2
C:\Users\stapi\AppData\Local\Temp\ccXPBA0K.s:888    .rodata.__FUNCTION__.1:0000000000000000 __FUNCTION__.1
C:\Users\stapi\AppData\Local\Temp\ccXPBA0K.s:892    .rodata.__FUNCTION__.2:0000000000000000 .LANCHOR1
C:\Users\stapi\AppData\Local\Temp\ccXPBA0K.s:895    .rodata.__FUNCTION__.2:0000000000000000 __FUNCTION__.2
C:\Users\stapi\AppData\Local\Temp\ccXPBA0K.s:34     .text._dm_msg_cache_mutex_lock:0000000000000014 .L0 
C:\Users\stapi\AppData\Local\Temp\ccXPBA0K.s:58     .text._dm_msg_cache_mutex_unlock:0000000000000014 .L0 
C:\Users\stapi\AppData\Local\Temp\ccXPBA0K.s:75     .text._dm_msg_cache_get_ctx:000000000000000a .L0 
C:\Users\stapi\AppData\Local\Temp\ccXPBA0K.s:135    .text.dm_msg_cache_init:0000000000000042 .L0 
C:\Users\stapi\AppData\Local\Temp\ccXPBA0K.s:251    .text.dm_msg_cache_deinit:0000000000000080 .L0 
C:\Users\stapi\AppData\Local\Temp\ccXPBA0K.s:435    .text.dm_msg_cache_insert:00000000000000ca .L0 
C:\Users\stapi\AppData\Local\Temp\ccXPBA0K.s:533    .text.dm_msg_cache_search:0000000000000066 .L0 
C:\Users\stapi\AppData\Local\Temp\ccXPBA0K.s:683    .text.dm_msg_cache_remove:00000000000000b2 .L0 
C:\Users\stapi\AppData\Local\Temp\ccXPBA0K.s:869    .text.dm_msg_cache_tick:00000000000000f0 .L0 
                     .debug_frame:0000000000000000 .L0 
C:\Users\stapi\AppData\Local\Temp\ccXPBA0K.s:29     .text._dm_msg_cache_mutex_lock:0000000000000012 .L7
C:\Users\stapi\AppData\Local\Temp\ccXPBA0K.s:53     .text._dm_msg_cache_mutex_unlock:0000000000000012 .L16
C:\Users\stapi\AppData\Local\Temp\ccXPBA0K.s:126    .text.dm_msg_cache_init:000000000000003a .L20
C:\Users\stapi\AppData\Local\Temp\ccXPBA0K.s:196    .text.dm_msg_cache_deinit:0000000000000052 .L28
C:\Users\stapi\AppData\Local\Temp\ccXPBA0K.s:184    .text.dm_msg_cache_deinit:0000000000000048 .L29
C:\Users\stapi\AppData\Local\Temp\ccXPBA0K.s:233    .text.dm_msg_cache_deinit:000000000000006a .L27
C:\Users\stapi\AppData\Local\Temp\ccXPBA0K.s:169    .text.dm_msg_cache_deinit:000000000000002c .L26
C:\Users\stapi\AppData\Local\Temp\ccXPBA0K.s:253    .rodata.dm_msg_cache_insert.str1.4:0000000000000000 .LC0
C:\Users\stapi\AppData\Local\Temp\ccXPBA0K.s:256    .rodata.dm_msg_cache_insert.str1.4:0000000000000014 .LC1
C:\Users\stapi\AppData\Local\Temp\ccXPBA0K.s:421    .text.dm_msg_cache_insert:00000000000000c2 .L37
C:\Users\stapi\AppData\Local\Temp\ccXPBA0K.s:520    .text.dm_msg_cache_search:0000000000000062 .L47
C:\Users\stapi\AppData\Local\Temp\ccXPBA0K.s:502    .text.dm_msg_cache_search:0000000000000054 .L42
C:\Users\stapi\AppData\Local\Temp\ccXPBA0K.s:488    .text.dm_msg_cache_search:0000000000000042 .L46
C:\Users\stapi\AppData\Local\Temp\ccXPBA0K.s:511    .text.dm_msg_cache_search:000000000000005c .L45
C:\Users\stapi\AppData\Local\Temp\ccXPBA0K.s:476    .text.dm_msg_cache_search:000000000000002e .L44
C:\Users\stapi\AppData\Local\Temp\ccXPBA0K.s:535    .rodata.dm_msg_cache_remove.str1.4:0000000000000000 .LC2
C:\Users\stapi\AppData\Local\Temp\ccXPBA0K.s:587    .text.dm_msg_cache_remove:0000000000000040 .L59
C:\Users\stapi\AppData\Local\Temp\ccXPBA0K.s:661    .text.dm_msg_cache_remove:00000000000000a0 .L54
C:\Users\stapi\AppData\Local\Temp\ccXPBA0K.s:671    .text.dm_msg_cache_remove:00000000000000a8 .L56
C:\Users\stapi\AppData\Local\Temp\ccXPBA0K.s:627    .text.dm_msg_cache_remove:000000000000005e .L57
C:\Users\stapi\AppData\Local\Temp\ccXPBA0K.s:575    .text.dm_msg_cache_remove:000000000000002c .L55
C:\Users\stapi\AppData\Local\Temp\ccXPBA0K.s:685    .rodata.dm_msg_cache_tick.str1.4:0000000000000000 .LC3
C:\Users\stapi\AppData\Local\Temp\ccXPBA0K.s:767    .text.dm_msg_cache_tick:0000000000000062 .L71
C:\Users\stapi\AppData\Local\Temp\ccXPBA0K.s:777    .text.dm_msg_cache_tick:0000000000000072 .L72
C:\Users\stapi\AppData\Local\Temp\ccXPBA0K.s:792    .text.dm_msg_cache_tick:0000000000000084 .L66
C:\Users\stapi\AppData\Local\Temp\ccXPBA0K.s:745    .text.dm_msg_cache_tick:000000000000004a .L65
C:\Users\stapi\AppData\Local\Temp\ccXPBA0K.s:801    .text.dm_msg_cache_tick:0000000000000098 .L73
C:\Users\stapi\AppData\Local\Temp\ccXPBA0K.s:784    .text.dm_msg_cache_tick:0000000000000078 .L68
C:\Users\stapi\AppData\Local\Temp\ccXPBA0K.s:851    .text.dm_msg_cache_tick:00000000000000da .L70
C:\Users\stapi\AppData\Local\Temp\ccXPBA0K.s:2769   .debug_abbrev:0000000000000000 .Ldebug_abbrev0
C:\Users\stapi\AppData\Local\Temp\ccXPBA0K.s:3957   .debug_str:0000000000000156 .LASF306
C:\Users\stapi\AppData\Local\Temp\ccXPBA0K.s:4441   .debug_str:0000000000001ada .LASF307
C:\Users\stapi\AppData\Local\Temp\ccXPBA0K.s:4297   .debug_str:00000000000012bf .LASF308
C:\Users\stapi\AppData\Local\Temp\ccXPBA0K.s:3873   .debug_ranges:0000000000000000 .Ldebug_ranges0
C:\Users\stapi\AppData\Local\Temp\ccXPBA0K.s:3925   .debug_line:0000000000000000 .Ldebug_line0
C:\Users\stapi\AppData\Local\Temp\ccXPBA0K.s:4053   .debug_str:0000000000000717 .LASF0
C:\Users\stapi\AppData\Local\Temp\ccXPBA0K.s:4061   .debug_str:000000000000076c .LASF1
C:\Users\stapi\AppData\Local\Temp\ccXPBA0K.s:4399   .debug_str:000000000000187d .LASF2
C:\Users\stapi\AppData\Local\Temp\ccXPBA0K.s:4505   .debug_str:0000000000001ea5 .LASF3
C:\Users\stapi\AppData\Local\Temp\ccXPBA0K.s:4021   .debug_str:000000000000058b .LASF4
C:\Users\stapi\AppData\Local\Temp\ccXPBA0K.s:4187   .debug_str:0000000000000dc4 .LASF5
C:\Users\stapi\AppData\Local\Temp\ccXPBA0K.s:4223   .debug_str:0000000000000f7c .LASF6
C:\Users\stapi\AppData\Local\Temp\ccXPBA0K.s:4185   .debug_str:0000000000000db9 .LASF9
C:\Users\stapi\AppData\Local\Temp\ccXPBA0K.s:4333   .debug_str:0000000000001525 .LASF7
C:\Users\stapi\AppData\Local\Temp\ccXPBA0K.s:4261   .debug_str:000000000000113c .LASF8
C:\Users\stapi\AppData\Local\Temp\ccXPBA0K.s:3935   .debug_str:0000000000000052 .LASF10
C:\Users\stapi\AppData\Local\Temp\ccXPBA0K.s:4091   .debug_str:00000000000008fa .LASF11
C:\Users\stapi\AppData\Local\Temp\ccXPBA0K.s:4403   .debug_str:00000000000018ab .LASF12
C:\Users\stapi\AppData\Local\Temp\ccXPBA0K.s:3939   .debug_str:0000000000000073 .LASF309
C:\Users\stapi\AppData\Local\Temp\ccXPBA0K.s:4055   .debug_str:0000000000000723 .LASF13
C:\Users\stapi\AppData\Local\Temp\ccXPBA0K.s:4239   .debug_str:0000000000001033 .LASF14
C:\Users\stapi\AppData\Local\Temp\ccXPBA0K.s:4301   .debug_str:0000000000001356 .LASF15
C:\Users\stapi\AppData\Local\Temp\ccXPBA0K.s:4135   .debug_str:0000000000000b12 .LASF16
C:\Users\stapi\AppData\Local\Temp\ccXPBA0K.s:4467   .debug_str:0000000000001cd4 .LASF17
C:\Users\stapi\AppData\Local\Temp\ccXPBA0K.s:4215   .debug_str:0000000000000f1e .LASF18
C:\Users\stapi\AppData\Local\Temp\ccXPBA0K.s:3929   .debug_str:0000000000000014 .LASF19
C:\Users\stapi\AppData\Local\Temp\ccXPBA0K.s:4363   .debug_str:000000000000168e .LASF20
C:\Users\stapi\AppData\Local\Temp\ccXPBA0K.s:4499   .debug_str:0000000000001e71 .LASF21
C:\Users\stapi\AppData\Local\Temp\ccXPBA0K.s:4381   .debug_str:0000000000001788 .LASF22
C:\Users\stapi\AppData\Local\Temp\ccXPBA0K.s:4345   .debug_str:00000000000015c9 .LASF23
C:\Users\stapi\AppData\Local\Temp\ccXPBA0K.s:4103   .debug_str:000000000000096d .LASF24
C:\Users\stapi\AppData\Local\Temp\ccXPBA0K.s:4305   .debug_str:000000000000138c .LASF25
C:\Users\stapi\AppData\Local\Temp\ccXPBA0K.s:4347   .debug_str:00000000000015d8 .LASF26
C:\Users\stapi\AppData\Local\Temp\ccXPBA0K.s:4183   .debug_str:0000000000000da1 .LASF27
C:\Users\stapi\AppData\Local\Temp\ccXPBA0K.s:4509   .debug_str:0000000000001ed3 .LASF28
C:\Users\stapi\AppData\Local\Temp\ccXPBA0K.s:4225   .debug_str:0000000000000f8a .LASF29
C:\Users\stapi\AppData\Local\Temp\ccXPBA0K.s:4325   .debug_str:0000000000001495 .LASF30
C:\Users\stapi\AppData\Local\Temp\ccXPBA0K.s:4075   .debug_str:000000000000081e .LASF31
C:\Users\stapi\AppData\Local\Temp\ccXPBA0K.s:4383   .debug_str:0000000000001797 .LASF32
C:\Users\stapi\AppData\Local\Temp\ccXPBA0K.s:3943   .debug_str:000000000000009f .LASF33
C:\Users\stapi\AppData\Local\Temp\ccXPBA0K.s:4017   .debug_str:000000000000054c .LASF34
C:\Users\stapi\AppData\Local\Temp\ccXPBA0K.s:4353   .debug_str:000000000000160b .LASF35
C:\Users\stapi\AppData\Local\Temp\ccXPBA0K.s:4069   .debug_str:00000000000007c5 .LASF36
C:\Users\stapi\AppData\Local\Temp\ccXPBA0K.s:4177   .debug_str:0000000000000d5b .LASF37
C:\Users\stapi\AppData\Local\Temp\ccXPBA0K.s:4337   .debug_str:0000000000001562 .LASF38
C:\Users\stapi\AppData\Local\Temp\ccXPBA0K.s:3967   .debug_str:00000000000002a8 .LASF39
C:\Users\stapi\AppData\Local\Temp\ccXPBA0K.s:4415   .debug_str:0000000000001952 .LASF40
C:\Users\stapi\AppData\Local\Temp\ccXPBA0K.s:4267   .debug_str:000000000000117e .LASF41
C:\Users\stapi\AppData\Local\Temp\ccXPBA0K.s:4097   .debug_str:0000000000000916 .LASF42
C:\Users\stapi\AppData\Local\Temp\ccXPBA0K.s:4027   .debug_str:00000000000005c6 .LASF43
C:\Users\stapi\AppData\Local\Temp\ccXPBA0K.s:3995   .debug_str:0000000000000429 .LASF44
C:\Users\stapi\AppData\Local\Temp\ccXPBA0K.s:4323   .debug_str:000000000000147c .LASF45
C:\Users\stapi\AppData\Local\Temp\ccXPBA0K.s:4439   .debug_str:0000000000001abc .LASF46
C:\Users\stapi\AppData\Local\Temp\ccXPBA0K.s:4315   .debug_str:000000000000140c .LASF47
C:\Users\stapi\AppData\Local\Temp\ccXPBA0K.s:3931   .debug_str:0000000000000023 .LASF48
C:\Users\stapi\AppData\Local\Temp\ccXPBA0K.s:3979   .debug_str:0000000000000356 .LASF49
C:\Users\stapi\AppData\Local\Temp\ccXPBA0K.s:3993   .debug_str:000000000000040a .LASF50
C:\Users\stapi\AppData\Local\Temp\ccXPBA0K.s:4329   .debug_str:00000000000014e3 .LASF51
C:\Users\stapi\AppData\Local\Temp\ccXPBA0K.s:4113   .debug_str:00000000000009dd .LASF52
C:\Users\stapi\AppData\Local\Temp\ccXPBA0K.s:4219   .debug_str:0000000000000f48 .LASF53
C:\Users\stapi\AppData\Local\Temp\ccXPBA0K.s:4033   .debug_str:0000000000000618 .LASF54
C:\Users\stapi\AppData\Local\Temp\ccXPBA0K.s:4497   .debug_str:0000000000001e55 .LASF55
C:\Users\stapi\AppData\Local\Temp\ccXPBA0K.s:4511   .debug_str:0000000000001ef5 .LASF56
C:\Users\stapi\AppData\Local\Temp\ccXPBA0K.s:4397   .debug_str:0000000000001865 .LASF57
C:\Users\stapi\AppData\Local\Temp\ccXPBA0K.s:4473   .debug_str:0000000000001d17 .LASF58
C:\Users\stapi\AppData\Local\Temp\ccXPBA0K.s:4067   .debug_str:00000000000007ac .LASF59
C:\Users\stapi\AppData\Local\Temp\ccXPBA0K.s:4115   .debug_str:00000000000009fb .LASF60
C:\Users\stapi\AppData\Local\Temp\ccXPBA0K.s:4285   .debug_str:000000000000124f .LASF61
C:\Users\stapi\AppData\Local\Temp\ccXPBA0K.s:4379   .debug_str:0000000000001770 .LASF62
C:\Users\stapi\AppData\Local\Temp\ccXPBA0K.s:4131   .debug_str:0000000000000acc .LASF63
C:\Users\stapi\AppData\Local\Temp\ccXPBA0K.s:4107   .debug_str:0000000000000999 .LASF64
C:\Users\stapi\AppData\Local\Temp\ccXPBA0K.s:4359   .debug_str:0000000000001662 .LASF65
C:\Users\stapi\AppData\Local\Temp\ccXPBA0K.s:4085   .debug_str:00000000000008a0 .LASF66
C:\Users\stapi\AppData\Local\Temp\ccXPBA0K.s:3987   .debug_str:00000000000003d2 .LASF67
C:\Users\stapi\AppData\Local\Temp\ccXPBA0K.s:4411   .debug_str:0000000000001910 .LASF68
C:\Users\stapi\AppData\Local\Temp\ccXPBA0K.s:4169   .debug_str:0000000000000ce5 .LASF69
C:\Users\stapi\AppData\Local\Temp\ccXPBA0K.s:4163   .debug_str:0000000000000c8d .LASF70
C:\Users\stapi\AppData\Local\Temp\ccXPBA0K.s:4073   .debug_str:00000000000007fe .LASF71
C:\Users\stapi\AppData\Local\Temp\ccXPBA0K.s:4391   .debug_str:0000000000001810 .LASF72
C:\Users\stapi\AppData\Local\Temp\ccXPBA0K.s:4407   .debug_str:00000000000018cd .LASF73
C:\Users\stapi\AppData\Local\Temp\ccXPBA0K.s:4393   .debug_str:000000000000182a .LASF74
C:\Users\stapi\AppData\Local\Temp\ccXPBA0K.s:4051   .debug_str:00000000000006ff .LASF75
C:\Users\stapi\AppData\Local\Temp\ccXPBA0K.s:4477   .debug_str:0000000000001d50 .LASF76
C:\Users\stapi\AppData\Local\Temp\ccXPBA0K.s:4475   .debug_str:0000000000001d33 .LASF77
C:\Users\stapi\AppData\Local\Temp\ccXPBA0K.s:4447   .debug_str:0000000000001bbc .LASF78
C:\Users\stapi\AppData\Local\Temp\ccXPBA0K.s:4493   .debug_str:0000000000001e1a .LASF79
C:\Users\stapi\AppData\Local\Temp\ccXPBA0K.s:4247   .debug_str:0000000000001081 .LASF80
C:\Users\stapi\AppData\Local\Temp\ccXPBA0K.s:4251   .debug_str:00000000000010b8 .LASF81
C:\Users\stapi\AppData\Local\Temp\ccXPBA0K.s:4139   .debug_str:0000000000000b3f .LASF82
C:\Users\stapi\AppData\Local\Temp\ccXPBA0K.s:3945   .debug_str:00000000000000bf .LASF83
C:\Users\stapi\AppData\Local\Temp\ccXPBA0K.s:4435   .debug_str:0000000000001a90 .LASF84
C:\Users\stapi\AppData\Local\Temp\ccXPBA0K.s:4307   .debug_str:00000000000013aa .LASF85
C:\Users\stapi\AppData\Local\Temp\ccXPBA0K.s:4167   .debug_str:0000000000000cc5 .LASF86
C:\Users\stapi\AppData\Local\Temp\ccXPBA0K.s:4161   .debug_str:0000000000000c6e .LASF87
C:\Users\stapi\AppData\Local\Temp\ccXPBA0K.s:4231   .debug_str:0000000000000fd2 .LASF88
C:\Users\stapi\AppData\Local\Temp\ccXPBA0K.s:3975   .debug_str:000000000000031d .LASF89
C:\Users\stapi\AppData\Local\Temp\ccXPBA0K.s:4485   .debug_str:0000000000001dbb .LASF90
C:\Users\stapi\AppData\Local\Temp\ccXPBA0K.s:4023   .debug_str:0000000000000594 .LASF91
C:\Users\stapi\AppData\Local\Temp\ccXPBA0K.s:4289   .debug_str:0000000000001286 .LASF92
C:\Users\stapi\AppData\Local\Temp\ccXPBA0K.s:4461   .debug_str:0000000000001c8f .LASF93
C:\Users\stapi\AppData\Local\Temp\ccXPBA0K.s:3961   .debug_str:000000000000025a .LASF94
C:\Users\stapi\AppData\Local\Temp\ccXPBA0K.s:4405   .debug_str:00000000000018b4 .LASF95
C:\Users\stapi\AppData\Local\Temp\ccXPBA0K.s:4491   .debug_str:0000000000001dfc .LASF96
C:\Users\stapi\AppData\Local\Temp\ccXPBA0K.s:3937   .debug_str:0000000000000059 .LASF97
C:\Users\stapi\AppData\Local\Temp\ccXPBA0K.s:4213   .debug_str:0000000000000f06 .LASF98
C:\Users\stapi\AppData\Local\Temp\ccXPBA0K.s:4031   .debug_str:00000000000005f7 .LASF99
C:\Users\stapi\AppData\Local\Temp\ccXPBA0K.s:4553   .debug_str:00000000000020e6 .LASF100
C:\Users\stapi\AppData\Local\Temp\ccXPBA0K.s:4037   .debug_str:0000000000000643 .LASF101
C:\Users\stapi\AppData\Local\Temp\ccXPBA0K.s:4317   .debug_str:0000000000001426 .LASF102
C:\Users\stapi\AppData\Local\Temp\ccXPBA0K.s:4539   .debug_str:000000000000204a .LASF103
C:\Users\stapi\AppData\Local\Temp\ccXPBA0K.s:4529   .debug_str:0000000000001fbc .LASF104
C:\Users\stapi\AppData\Local\Temp\ccXPBA0K.s:4025   .debug_str:00000000000005ad .LASF105
C:\Users\stapi\AppData\Local\Temp\ccXPBA0K.s:4249   .debug_str:00000000000010a0 .LASF106
C:\Users\stapi\AppData\Local\Temp\ccXPBA0K.s:4157   .debug_str:0000000000000c32 .LASF107
C:\Users\stapi\AppData\Local\Temp\ccXPBA0K.s:4013   .debug_str:000000000000051c .LASF108
C:\Users\stapi\AppData\Local\Temp\ccXPBA0K.s:4089   .debug_str:00000000000008dc .LASF109
C:\Users\stapi\AppData\Local\Temp\ccXPBA0K.s:3999   .debug_str:000000000000046b .LASF110
C:\Users\stapi\AppData\Local\Temp\ccXPBA0K.s:4035   .debug_str:000000000000062b .LASF111
C:\Users\stapi\AppData\Local\Temp\ccXPBA0K.s:4465   .debug_str:0000000000001cc0 .LASF112
C:\Users\stapi\AppData\Local\Temp\ccXPBA0K.s:3969   .debug_str:00000000000002c6 .LASF113
C:\Users\stapi\AppData\Local\Temp\ccXPBA0K.s:3933   .debug_str:000000000000003a .LASF114
C:\Users\stapi\AppData\Local\Temp\ccXPBA0K.s:4047   .debug_str:00000000000006d7 .LASF115
C:\Users\stapi\AppData\Local\Temp\ccXPBA0K.s:4469   .debug_str:0000000000001ce5 .LASF116
C:\Users\stapi\AppData\Local\Temp\ccXPBA0K.s:4015   .debug_str:0000000000000534 .LASF117
C:\Users\stapi\AppData\Local\Temp\ccXPBA0K.s:4151   .debug_str:0000000000000bee .LASF118
C:\Users\stapi\AppData\Local\Temp\ccXPBA0K.s:3953   .debug_str:000000000000012c .LASF119
C:\Users\stapi\AppData\Local\Temp\ccXPBA0K.s:4045   .debug_str:00000000000006ba .LASF120
C:\Users\stapi\AppData\Local\Temp\ccXPBA0K.s:4413   .debug_str:0000000000001934 .LASF121
C:\Users\stapi\AppData\Local\Temp\ccXPBA0K.s:4129   .debug_str:0000000000000aa4 .LASF122
C:\Users\stapi\AppData\Local\Temp\ccXPBA0K.s:4457   .debug_str:0000000000001c4c .LASF123
C:\Users\stapi\AppData\Local\Temp\ccXPBA0K.s:4101   .debug_str:0000000000000955 .LASF124
C:\Users\stapi\AppData\Local\Temp\ccXPBA0K.s:4459   .debug_str:0000000000001c74 .LASF125
C:\Users\stapi\AppData\Local\Temp\ccXPBA0K.s:4145   .debug_str:0000000000000b95 .LASF126
C:\Users\stapi\AppData\Local\Temp\ccXPBA0K.s:4071   .debug_str:00000000000007de .LASF127
C:\Users\stapi\AppData\Local\Temp\ccXPBA0K.s:3997   .debug_str:0000000000000444 .LASF128
C:\Users\stapi\AppData\Local\Temp\ccXPBA0K.s:4217   .debug_str:0000000000000f30 .LASF129
C:\Users\stapi\AppData\Local\Temp\ccXPBA0K.s:4311   .debug_str:00000000000013cb .LASF130
C:\Users\stapi\AppData\Local\Temp\ccXPBA0K.s:4111   .debug_str:00000000000009c2 .LASF131
C:\Users\stapi\AppData\Local\Temp\ccXPBA0K.s:4327   .debug_str:00000000000014c6 .LASF132
C:\Users\stapi\AppData\Local\Temp\ccXPBA0K.s:4079   .debug_str:000000000000085f .LASF133
C:\Users\stapi\AppData\Local\Temp\ccXPBA0K.s:4303   .debug_str:000000000000136d .LASF134
C:\Users\stapi\AppData\Local\Temp\ccXPBA0K.s:4019   .debug_str:000000000000056e .LASF135
C:\Users\stapi\AppData\Local\Temp\ccXPBA0K.s:4003   .debug_str:00000000000004a3 .LASF136
C:\Users\stapi\AppData\Local\Temp\ccXPBA0K.s:4141   .debug_str:0000000000000b60 .LASF137
C:\Users\stapi\AppData\Local\Temp\ccXPBA0K.s:4197   .debug_str:0000000000000e4c .LASF138
C:\Users\stapi\AppData\Local\Temp\ccXPBA0K.s:4463   .debug_str:0000000000001ca9 .LASF139
C:\Users\stapi\AppData\Local\Temp\ccXPBA0K.s:4527   .debug_str:0000000000001fa5 .LASF140
C:\Users\stapi\AppData\Local\Temp\ccXPBA0K.s:4235   .debug_str:0000000000000fed .LASF141
C:\Users\stapi\AppData\Local\Temp\ccXPBA0K.s:4041   .debug_str:000000000000067b .LASF142
C:\Users\stapi\AppData\Local\Temp\ccXPBA0K.s:4149   .debug_str:0000000000000bd4 .LASF143
C:\Users\stapi\AppData\Local\Temp\ccXPBA0K.s:4361   .debug_str:000000000000167a .LASF144
C:\Users\stapi\AppData\Local\Temp\ccXPBA0K.s:3983   .debug_str:0000000000000386 .LASF145
C:\Users\stapi\AppData\Local\Temp\ccXPBA0K.s:4515   .debug_str:0000000000001f17 .LASF146
C:\Users\stapi\AppData\Local\Temp\ccXPBA0K.s:4425   .debug_str:00000000000019ec .LASF147
C:\Users\stapi\AppData\Local\Temp\ccXPBA0K.s:4119   .debug_str:0000000000000a2f .LASF148
C:\Users\stapi\AppData\Local\Temp\ccXPBA0K.s:4057   .debug_str:000000000000073a .LASF149
C:\Users\stapi\AppData\Local\Temp\ccXPBA0K.s:4455   .debug_str:0000000000001c28 .LASF150
C:\Users\stapi\AppData\Local\Temp\ccXPBA0K.s:4155   .debug_str:0000000000000c11 .LASF151
C:\Users\stapi\AppData\Local\Temp\ccXPBA0K.s:4207   .debug_str:0000000000000eb0 .LASF152
C:\Users\stapi\AppData\Local\Temp\ccXPBA0K.s:4229   .debug_str:0000000000000fb2 .LASF153
C:\Users\stapi\AppData\Local\Temp\ccXPBA0K.s:3977   .debug_str:0000000000000334 .LASF154
C:\Users\stapi\AppData\Local\Temp\ccXPBA0K.s:4429   .debug_str:0000000000001a2a .LASF155
C:\Users\stapi\AppData\Local\Temp\ccXPBA0K.s:4549   .debug_str:00000000000020c0 .LASF156
C:\Users\stapi\AppData\Local\Temp\ccXPBA0K.s:4099   .debug_str:0000000000000932 .LASF157
C:\Users\stapi\AppData\Local\Temp\ccXPBA0K.s:4173   .debug_str:0000000000000d25 .LASF158
C:\Users\stapi\AppData\Local\Temp\ccXPBA0K.s:3965   .debug_str:0000000000000285 .LASF159
C:\Users\stapi\AppData\Local\Temp\ccXPBA0K.s:4263   .debug_str:0000000000001149 .LASF160
C:\Users\stapi\AppData\Local\Temp\ccXPBA0K.s:4335   .debug_str:000000000000153c .LASF161
C:\Users\stapi\AppData\Local\Temp\ccXPBA0K.s:4543   .debug_str:000000000000206e .LASF162
C:\Users\stapi\AppData\Local\Temp\ccXPBA0K.s:4377   .debug_str:0000000000001746 .LASF163
C:\Users\stapi\AppData\Local\Temp\ccXPBA0K.s:4063   .debug_str:000000000000077a .LASF164
C:\Users\stapi\AppData\Local\Temp\ccXPBA0K.s:4137   .debug_str:0000000000000b2b .LASF165
C:\Users\stapi\AppData\Local\Temp\ccXPBA0K.s:4395   .debug_str:000000000000183f .LASF166
C:\Users\stapi\AppData\Local\Temp\ccXPBA0K.s:4205   .debug_str:0000000000000e94 .LASF167
C:\Users\stapi\AppData\Local\Temp\ccXPBA0K.s:4283   .debug_str:000000000000122c .LASF168
C:\Users\stapi\AppData\Local\Temp\ccXPBA0K.s:4133   .debug_str:0000000000000aec .LASF169
C:\Users\stapi\AppData\Local\Temp\ccXPBA0K.s:4355   .debug_str:000000000000161e .LASF170
C:\Users\stapi\AppData\Local\Temp\ccXPBA0K.s:4343   .debug_str:00000000000015b3 .LASF171
C:\Users\stapi\AppData\Local\Temp\ccXPBA0K.s:4417   .debug_str:000000000000196d .LASF172
C:\Users\stapi\AppData\Local\Temp\ccXPBA0K.s:4039   .debug_str:000000000000065e .LASF173
C:\Users\stapi\AppData\Local\Temp\ccXPBA0K.s:4189   .debug_str:0000000000000dd6 .LASF174
C:\Users\stapi\AppData\Local\Temp\ccXPBA0K.s:4451   .debug_str:0000000000001be9 .LASF175
C:\Users\stapi\AppData\Local\Temp\ccXPBA0K.s:4143   .debug_str:0000000000000b77 .LASF176
C:\Users\stapi\AppData\Local\Temp\ccXPBA0K.s:4555   .debug_str:0000000000002107 .LASF177
C:\Users\stapi\AppData\Local\Temp\ccXPBA0K.s:4081   .debug_str:000000000000087a .LASF178
C:\Users\stapi\AppData\Local\Temp\ccXPBA0K.s:3959   .debug_str:000000000000023d .LASF179
C:\Users\stapi\AppData\Local\Temp\ccXPBA0K.s:4201   .debug_str:0000000000000e72 .LASF180
C:\Users\stapi\AppData\Local\Temp\ccXPBA0K.s:4077   .debug_str:0000000000000845 .LASF181
C:\Users\stapi\AppData\Local\Temp\ccXPBA0K.s:4049   .debug_str:00000000000006f2 .LASF182
C:\Users\stapi\AppData\Local\Temp\ccXPBA0K.s:4533   .debug_str:0000000000001fe5 .LASF183
C:\Users\stapi\AppData\Local\Temp\ccXPBA0K.s:4375   .debug_str:0000000000001713 .LASF184
C:\Users\stapi\AppData\Local\Temp\ccXPBA0K.s:3985   .debug_str:00000000000003a5 .LASF185
C:\Users\stapi\AppData\Local\Temp\ccXPBA0K.s:4537   .debug_str:0000000000002018 .LASF186
C:\Users\stapi\AppData\Local\Temp\ccXPBA0K.s:4373   .debug_str:0000000000001702 .LASF187
C:\Users\stapi\AppData\Local\Temp\ccXPBA0K.s:4265   .debug_str:0000000000001169 .LASF188
C:\Users\stapi\AppData\Local\Temp\ccXPBA0K.s:4211   .debug_str:0000000000000ef5 .LASF189
C:\Users\stapi\AppData\Local\Temp\ccXPBA0K.s:3971   .debug_str:00000000000002e6 .LASF190
C:\Users\stapi\AppData\Local\Temp\ccXPBA0K.s:4095   .debug_str:0000000000000906 .LASF191
C:\Users\stapi\AppData\Local\Temp\ccXPBA0K.s:4503   .debug_str:0000000000001e94 .LASF192
C:\Users\stapi\AppData\Local\Temp\ccXPBA0K.s:4273   .debug_str:00000000000011bf .LASF193
C:\Users\stapi\AppData\Local\Temp\ccXPBA0K.s:4179   .debug_str:0000000000000d72 .LASF194
C:\Users\stapi\AppData\Local\Temp\ccXPBA0K.s:4513   .debug_str:0000000000001f0c .LASF195
C:\Users\stapi\AppData\Local\Temp\ccXPBA0K.s:4387   .debug_str:00000000000017dd .LASF196
C:\Users\stapi\AppData\Local\Temp\ccXPBA0K.s:4523   .debug_str:0000000000001f79 .LASF197
C:\Users\stapi\AppData\Local\Temp\ccXPBA0K.s:4255   .debug_str:00000000000010e7 .LASF198
C:\Users\stapi\AppData\Local\Temp\ccXPBA0K.s:4199   .debug_str:0000000000000e63 .LASF199
C:\Users\stapi\AppData\Local\Temp\ccXPBA0K.s:4233   .debug_str:0000000000000fe6 .LASF200
C:\Users\stapi\AppData\Local\Temp\ccXPBA0K.s:4277   .debug_str:00000000000011f7 .LASF310
C:\Users\stapi\AppData\Local\Temp\ccXPBA0K.s:4551   .debug_str:00000000000020e1 .LASF201
C:\Users\stapi\AppData\Local\Temp\ccXPBA0K.s:4309   .debug_str:00000000000013c6 .LASF202
C:\Users\stapi\AppData\Local\Temp\ccXPBA0K.s:4269   .debug_str:000000000000118f .LASF203
C:\Users\stapi\AppData\Local\Temp\ccXPBA0K.s:4275   .debug_str:00000000000011d9 .LASF204
C:\Users\stapi\AppData\Local\Temp\ccXPBA0K.s:4535   .debug_str:0000000000001ff9 .LASF205
C:\Users\stapi\AppData\Local\Temp\ccXPBA0K.s:4147   .debug_str:0000000000000bb6 .LASF206
C:\Users\stapi\AppData\Local\Temp\ccXPBA0K.s:4181   .debug_str:0000000000000d83 .LASF207
C:\Users\stapi\AppData\Local\Temp\ccXPBA0K.s:4419   .debug_str:0000000000001985 .LASF208
C:\Users\stapi\AppData\Local\Temp\ccXPBA0K.s:4043   .debug_str:000000000000069c .LASF209
C:\Users\stapi\AppData\Local\Temp\ccXPBA0K.s:4495   .debug_str:0000000000001e3a .LASF210
C:\Users\stapi\AppData\Local\Temp\ccXPBA0K.s:4287   .debug_str:000000000000126a .LASF211
C:\Users\stapi\AppData\Local\Temp\ccXPBA0K.s:4241   .debug_str:0000000000001045 .LASF212
C:\Users\stapi\AppData\Local\Temp\ccXPBA0K.s:4123   .debug_str:0000000000000a71 .LASF213
C:\Users\stapi\AppData\Local\Temp\ccXPBA0K.s:4365   .debug_str:000000000000169f .LASF214
C:\Users\stapi\AppData\Local\Temp\ccXPBA0K.s:4521   .debug_str:0000000000001f5f .LASF215
C:\Users\stapi\AppData\Local\Temp\ccXPBA0K.s:4357   .debug_str:0000000000001641 .LASF216
C:\Users\stapi\AppData\Local\Temp\ccXPBA0K.s:4401   .debug_str:0000000000001887 .LASF217
C:\Users\stapi\AppData\Local\Temp\ccXPBA0K.s:4385   .debug_str:00000000000017bd .LASF218
C:\Users\stapi\AppData\Local\Temp\ccXPBA0K.s:4159   .debug_str:0000000000000c53 .LASF219
C:\Users\stapi\AppData\Local\Temp\ccXPBA0K.s:4525   .debug_str:0000000000001f8a .LASF220
C:\Users\stapi\AppData\Local\Temp\ccXPBA0K.s:4453   .debug_str:0000000000001c0a .LASF221
C:\Users\stapi\AppData\Local\Temp\ccXPBA0K.s:4545   .debug_str:0000000000002089 .LASF222
C:\Users\stapi\AppData\Local\Temp\ccXPBA0K.s:4339   .debug_str:000000000000157c .LASF223
C:\Users\stapi\AppData\Local\Temp\ccXPBA0K.s:4341   .debug_str:0000000000001598 .LASF224
C:\Users\stapi\AppData\Local\Temp\ccXPBA0K.s:4489   .debug_str:0000000000001de1 .LASF225
C:\Users\stapi\AppData\Local\Temp\ccXPBA0K.s:4433   .debug_str:0000000000001a73 .LASF226
C:\Users\stapi\AppData\Local\Temp\ccXPBA0K.s:4319   .debug_str:0000000000001448 .LASF227
C:\Users\stapi\AppData\Local\Temp\ccXPBA0K.s:4331   .debug_str:0000000000001501 .LASF228
C:\Users\stapi\AppData\Local\Temp\ccXPBA0K.s:3973   .debug_str:00000000000002f7 .LASF229
C:\Users\stapi\AppData\Local\Temp\ccXPBA0K.s:4369   .debug_str:00000000000016d9 .LASF230
C:\Users\stapi\AppData\Local\Temp\ccXPBA0K.s:4257   .debug_str:00000000000010f3 .LASF231
C:\Users\stapi\AppData\Local\Temp\ccXPBA0K.s:4389   .debug_str:00000000000017ef .LASF232
C:\Users\stapi\AppData\Local\Temp\ccXPBA0K.s:4427   .debug_str:0000000000001a0d .LASF233
C:\Users\stapi\AppData\Local\Temp\ccXPBA0K.s:4471   .debug_str:0000000000001cfd .LASF234
C:\Users\stapi\AppData\Local\Temp\ccXPBA0K.s:4445   .debug_str:0000000000001b98 .LASF235
C:\Users\stapi\AppData\Local\Temp\ccXPBA0K.s:4431   .debug_str:0000000000001a4b .LASF236
C:\Users\stapi\AppData\Local\Temp\ccXPBA0K.s:4481   .debug_str:0000000000001d7f .LASF237
C:\Users\stapi\AppData\Local\Temp\ccXPBA0K.s:4237   .debug_str:000000000000100d .LASF238
C:\Users\stapi\AppData\Local\Temp\ccXPBA0K.s:4421   .debug_str:00000000000019a4 .LASF239
C:\Users\stapi\AppData\Local\Temp\ccXPBA0K.s:4409   .debug_str:00000000000018ec .LASF240
C:\Users\stapi\AppData\Local\Temp\ccXPBA0K.s:4423   .debug_str:00000000000019ca .LASF241
C:\Users\stapi\AppData\Local\Temp\ccXPBA0K.s:4193   .debug_str:0000000000000e19 .LASF242
C:\Users\stapi\AppData\Local\Temp\ccXPBA0K.s:4271   .debug_str:0000000000001197 .LASF243
C:\Users\stapi\AppData\Local\Temp\ccXPBA0K.s:4259   .debug_str:0000000000001113 .LASF244
C:\Users\stapi\AppData\Local\Temp\ccXPBA0K.s:4171   .debug_str:0000000000000d04 .LASF245
C:\Users\stapi\AppData\Local\Temp\ccXPBA0K.s:4209   .debug_str:0000000000000ed2 .LASF246
C:\Users\stapi\AppData\Local\Temp\ccXPBA0K.s:4121   .debug_str:0000000000000a53 .LASF247
C:\Users\stapi\AppData\Local\Temp\ccXPBA0K.s:4087   .debug_str:00000000000008bc .LASF248
C:\Users\stapi\AppData\Local\Temp\ccXPBA0K.s:3941   .debug_str:0000000000000084 .LASF249
C:\Users\stapi\AppData\Local\Temp\ccXPBA0K.s:4007   .debug_str:00000000000004d7 .LASF250
C:\Users\stapi\AppData\Local\Temp\ccXPBA0K.s:4001   .debug_str:0000000000000489 .LASF251
C:\Users\stapi\AppData\Local\Temp\ccXPBA0K.s:4313   .debug_str:00000000000013eb .LASF252
C:\Users\stapi\AppData\Local\Temp\ccXPBA0K.s:3951   .debug_str:0000000000000105 .LASF253
C:\Users\stapi\AppData\Local\Temp\ccXPBA0K.s:3981   .debug_str:0000000000000374 .LASF254
C:\Users\stapi\AppData\Local\Temp\ccXPBA0K.s:4011   .debug_str:0000000000000506 .LASF255
C:\Users\stapi\AppData\Local\Temp\ccXPBA0K.s:4443   .debug_str:0000000000001b7e .LASF256
C:\Users\stapi\AppData\Local\Temp\ccXPBA0K.s:4165   .debug_str:0000000000000cab .LASF257
C:\Users\stapi\AppData\Local\Temp\ccXPBA0K.s:3949   .debug_str:00000000000000ed .LASF258
C:\Users\stapi\AppData\Local\Temp\ccXPBA0K.s:4245   .debug_str:0000000000001069 .LASF259
C:\Users\stapi\AppData\Local\Temp\ccXPBA0K.s:4191   .debug_str:0000000000000dfe .LASF260
C:\Users\stapi\AppData\Local\Temp\ccXPBA0K.s:4507   .debug_str:0000000000001eb8 .LASF261
C:\Users\stapi\AppData\Local\Temp\ccXPBA0K.s:4321   .debug_str:0000000000001465 .LASF262
C:\Users\stapi\AppData\Local\Temp\ccXPBA0K.s:4117   .debug_str:0000000000000a15 .LASF263
C:\Users\stapi\AppData\Local\Temp\ccXPBA0K.s:4517   .debug_str:0000000000001f2d .LASF264
C:\Users\stapi\AppData\Local\Temp\ccXPBA0K.s:4351   .debug_str:00000000000015f6 .LASF265
C:\Users\stapi\AppData\Local\Temp\ccXPBA0K.s:4105   .debug_str:0000000000000984 .LASF266
C:\Users\stapi\AppData\Local\Temp\ccXPBA0K.s:4203   .debug_str:0000000000000e7f .LASF267
C:\Users\stapi\AppData\Local\Temp\ccXPBA0K.s:3947   .debug_str:00000000000000e7 .LASF268
C:\Users\stapi\AppData\Local\Temp\ccXPBA0K.s:4153   .debug_str:0000000000000c0b .LASF269
C:\Users\stapi\AppData\Local\Temp\ccXPBA0K.s:4109   .debug_str:00000000000009b4 .LASF270
C:\Users\stapi\AppData\Local\Temp\ccXPBA0K.s:4541   .debug_str:0000000000002069 .LASF271
C:\Users\stapi\AppData\Local\Temp\ccXPBA0K.s:4299   .debug_str:0000000000001350 .LASF272
C:\Users\stapi\AppData\Local\Temp\ccXPBA0K.s:4487   .debug_str:0000000000001dd5 .LASF273
C:\Users\stapi\AppData\Local\Temp\ccXPBA0K.s:3955   .debug_str:0000000000000142 .LASF274
C:\Users\stapi\AppData\Local\Temp\ccXPBA0K.s:4243   .debug_str:0000000000001063 .LASF275
C:\Users\stapi\AppData\Local\Temp\ccXPBA0K.s:4127   .debug_str:0000000000000a96 .LASF276
C:\Users\stapi\AppData\Local\Temp\ccXPBA0K.s:4083   .debug_str:0000000000000897 .LASF277
C:\Users\stapi\AppData\Local\Temp\ccXPBA0K.s:4531   .debug_str:0000000000001fd2 .LASF278
C:\Users\stapi\AppData\Local\Temp\ccXPBA0K.s:4547   .debug_str:00000000000020ad .LASF311
C:\Users\stapi\AppData\Local\Temp\ccXPBA0K.s:4279   .debug_str:00000000000011ff .LASF312
C:\Users\stapi\AppData\Local\Temp\ccXPBA0K.s:692    .text.dm_msg_cache_tick:0000000000000000 .LFB28
C:\Users\stapi\AppData\Local\Temp\ccXPBA0K.s:866    .text.dm_msg_cache_tick:00000000000000f0 .LFE28
C:\Users\stapi\AppData\Local\Temp\ccXPBA0K.s:4125   .debug_str:0000000000000a91 .LASF279
C:\Users\stapi\AppData\Local\Temp\ccXPBA0K.s:3410   .debug_loc:0000000000000000 .LLST26
C:\Users\stapi\AppData\Local\Temp\ccXPBA0K.s:3435   .debug_loc:0000000000000041 .LLST27
C:\Users\stapi\AppData\Local\Temp\ccXPBA0K.s:4227   .debug_str:0000000000000fa5 .LASF280
C:\Users\stapi\AppData\Local\Temp\ccXPBA0K.s:3457   .debug_loc:0000000000000078 .LLST28
C:\Users\stapi\AppData\Local\Temp\ccXPBA0K.s:4291   .debug_str:00000000000012a0 .LASF281
C:\Users\stapi\AppData\Local\Temp\ccXPBA0K.s:818    .text.dm_msg_cache_tick:00000000000000c2 .LBB54
C:\Users\stapi\AppData\Local\Temp\ccXPBA0K.s:3478   .debug_loc:00000000000000a0 .LLST29
C:\Users\stapi\AppData\Local\Temp\ccXPBA0K.s:3487   .debug_loc:00000000000000b5 .LLST30
C:\Users\stapi\AppData\Local\Temp\ccXPBA0K.s:3494   .debug_loc:00000000000000c8 .LLST31
C:\Users\stapi\AppData\Local\Temp\ccXPBA0K.s:716    .text.dm_msg_cache_tick:0000000000000010 .LVL74
C:\Users\stapi\AppData\Local\Temp\ccXPBA0K.s:725    .text.dm_msg_cache_tick:0000000000000020 .LVL76
C:\Users\stapi\AppData\Local\Temp\ccXPBA0K.s:751    .text.dm_msg_cache_tick:000000000000005a .LVL79
C:\Users\stapi\AppData\Local\Temp\ccXPBA0K.s:810    .text.dm_msg_cache_tick:00000000000000b4 .LVL83
C:\Users\stapi\AppData\Local\Temp\ccXPBA0K.s:816    .text.dm_msg_cache_tick:00000000000000c2 .LVL84
C:\Users\stapi\AppData\Local\Temp\ccXPBA0K.s:848    .text.dm_msg_cache_tick:00000000000000d6 .LVL88
C:\Users\stapi\AppData\Local\Temp\ccXPBA0K.s:856    .text.dm_msg_cache_tick:00000000000000e4 .LVL89
C:\Users\stapi\AppData\Local\Temp\ccXPBA0K.s:3927   .debug_str:0000000000000000 .LASF282
C:\Users\stapi\AppData\Local\Temp\ccXPBA0K.s:542    .text.dm_msg_cache_remove:0000000000000000 .LFB27
C:\Users\stapi\AppData\Local\Temp\ccXPBA0K.s:681    .text.dm_msg_cache_remove:00000000000000b2 .LFE27
C:\Users\stapi\AppData\Local\Temp\ccXPBA0K.s:3501   .debug_loc:00000000000000db .LLST20
C:\Users\stapi\AppData\Local\Temp\ccXPBA0K.s:3512   .debug_loc:00000000000000f9 .LLST21
C:\Users\stapi\AppData\Local\Temp\ccXPBA0K.s:3537   .debug_loc:000000000000013a .LLST22
C:\Users\stapi\AppData\Local\Temp\ccXPBA0K.s:594    .text.dm_msg_cache_remove:0000000000000046 .LBB48
C:\Users\stapi\AppData\Local\Temp\ccXPBA0K.s:3567   .debug_loc:0000000000000187 .LLST23
C:\Users\stapi\AppData\Local\Temp\ccXPBA0K.s:3576   .debug_loc:000000000000019c .LLST24
C:\Users\stapi\AppData\Local\Temp\ccXPBA0K.s:3583   .debug_loc:00000000000001af .LLST25
C:\Users\stapi\AppData\Local\Temp\ccXPBA0K.s:564    .text.dm_msg_cache_remove:0000000000000016 .LVL56
C:\Users\stapi\AppData\Local\Temp\ccXPBA0K.s:581    .text.dm_msg_cache_remove:000000000000003c .LVL59
C:\Users\stapi\AppData\Local\Temp\ccXPBA0K.s:624    .text.dm_msg_cache_remove:000000000000005a .LVL65
C:\Users\stapi\AppData\Local\Temp\ccXPBA0K.s:639    .text.dm_msg_cache_remove:000000000000006e .LVL66
C:\Users\stapi\AppData\Local\Temp\ccXPBA0K.s:653    .text.dm_msg_cache_remove:0000000000000096 .LVL67
C:\Users\stapi\AppData\Local\Temp\ccXPBA0K.s:656    .text.dm_msg_cache_remove:000000000000009e .LVL68
C:\Users\stapi\AppData\Local\Temp\ccXPBA0K.s:4483   .debug_str:0000000000001da7 .LASF283
C:\Users\stapi\AppData\Local\Temp\ccXPBA0K.s:440    .text.dm_msg_cache_search:0000000000000000 .LFB26
C:\Users\stapi\AppData\Local\Temp\ccXPBA0K.s:531    .text.dm_msg_cache_search:0000000000000066 .LFE26
C:\Users\stapi\AppData\Local\Temp\ccXPBA0K.s:3590   .debug_loc:00000000000001c2 .LLST17
C:\Users\stapi\AppData\Local\Temp\ccXPBA0K.s:3612   .debug_loc:00000000000001f9 .LLST18
C:\Users\stapi\AppData\Local\Temp\ccXPBA0K.s:4371   .debug_str:00000000000016f6 .LASF284
C:\Users\stapi\AppData\Local\Temp\ccXPBA0K.s:3627   .debug_loc:0000000000000222 .LLST19
C:\Users\stapi\AppData\Local\Temp\ccXPBA0K.s:468    .text.dm_msg_cache_search:0000000000000020 .LVL44
C:\Users\stapi\AppData\Local\Temp\ccXPBA0K.s:482    .text.dm_msg_cache_search:000000000000003e .LVL46
C:\Users\stapi\AppData\Local\Temp\ccXPBA0K.s:498    .text.dm_msg_cache_search:0000000000000052 .LVL48
C:\Users\stapi\AppData\Local\Temp\ccXPBA0K.s:4501   .debug_str:0000000000001e80 .LASF285
C:\Users\stapi\AppData\Local\Temp\ccXPBA0K.s:263    .text.dm_msg_cache_insert:0000000000000000 .LFB25
C:\Users\stapi\AppData\Local\Temp\ccXPBA0K.s:433    .text.dm_msg_cache_insert:00000000000000ca .LFE25
C:\Users\stapi\AppData\Local\Temp\ccXPBA0K.s:3656   .debug_loc:000000000000026e .LLST6
C:\Users\stapi\AppData\Local\Temp\ccXPBA0K.s:3667   .debug_loc:000000000000028c .LLST7
C:\Users\stapi\AppData\Local\Temp\ccXPBA0K.s:3989   .debug_str:00000000000003f1 .LASF286
C:\Users\stapi\AppData\Local\Temp\ccXPBA0K.s:3678   .debug_loc:00000000000002aa .LLST8
C:\Users\stapi\AppData\Local\Temp\ccXPBA0K.s:3689   .debug_loc:00000000000002c8 .LLST9
C:\Users\stapi\AppData\Local\Temp\ccXPBA0K.s:3707   .debug_loc:00000000000002f4 .LLST10
C:\Users\stapi\AppData\Local\Temp\ccXPBA0K.s:358    .text.dm_msg_cache_insert:0000000000000090 .LBB36
C:\Users\stapi\AppData\Local\Temp\ccXPBA0K.s:368    .text.dm_msg_cache_insert:0000000000000098 .LBE36
C:\Users\stapi\AppData\Local\Temp\ccXPBA0K.s:3719   .debug_loc:0000000000000313 .LLST11
C:\Users\stapi\AppData\Local\Temp\ccXPBA0K.s:373    .text.dm_msg_cache_insert:00000000000000a0 .LBB38
C:\Users\stapi\AppData\Local\Temp\ccXPBA0K.s:3726   .debug_loc:0000000000000326 .LLST12
C:\Users\stapi\AppData\Local\Temp\ccXPBA0K.s:3735   .debug_loc:000000000000033e .LLST13
C:\Users\stapi\AppData\Local\Temp\ccXPBA0K.s:379    .text.dm_msg_cache_insert:00000000000000a2 .LBB40
C:\Users\stapi\AppData\Local\Temp\ccXPBA0K.s:3742   .debug_loc:0000000000000351 .LLST14
C:\Users\stapi\AppData\Local\Temp\ccXPBA0K.s:3751   .debug_loc:0000000000000369 .LLST15
C:\Users\stapi\AppData\Local\Temp\ccXPBA0K.s:3763   .debug_loc:0000000000000388 .LLST16
C:\Users\stapi\AppData\Local\Temp\ccXPBA0K.s:305    .text.dm_msg_cache_insert:0000000000000040 .LVL28
C:\Users\stapi\AppData\Local\Temp\ccXPBA0K.s:320    .text.dm_msg_cache_insert:000000000000005a .LVL29
C:\Users\stapi\AppData\Local\Temp\ccXPBA0K.s:333    .text.dm_msg_cache_insert:0000000000000070 .LVL31
C:\Users\stapi\AppData\Local\Temp\ccXPBA0K.s:349    .text.dm_msg_cache_insert:0000000000000088 .LVL32
C:\Users\stapi\AppData\Local\Temp\ccXPBA0K.s:371    .text.dm_msg_cache_insert:00000000000000a0 .LVL36
C:\Users\stapi\AppData\Local\Temp\ccXPBA0K.s:416    .text.dm_msg_cache_insert:00000000000000c0 .LVL40
C:\Users\stapi\AppData\Local\Temp\ccXPBA0K.s:4009   .debug_str:00000000000004f2 .LASF287
C:\Users\stapi\AppData\Local\Temp\ccXPBA0K.s:140    .text.dm_msg_cache_deinit:0000000000000000 .LFB24
C:\Users\stapi\AppData\Local\Temp\ccXPBA0K.s:249    .text.dm_msg_cache_deinit:0000000000000080 .LFE24
C:\Users\stapi\AppData\Local\Temp\ccXPBA0K.s:3770   .debug_loc:000000000000039b .LLST1
C:\Users\stapi\AppData\Local\Temp\ccXPBA0K.s:3790   .debug_loc:00000000000003d0 .LLST2
C:\Users\stapi\AppData\Local\Temp\ccXPBA0K.s:200    .text.dm_msg_cache_deinit:0000000000000052 .LBB32
C:\Users\stapi\AppData\Local\Temp\ccXPBA0K.s:3812   .debug_loc:0000000000000407 .LLST3
C:\Users\stapi\AppData\Local\Temp\ccXPBA0K.s:3821   .debug_loc:000000000000041c .LLST4
C:\Users\stapi\AppData\Local\Temp\ccXPBA0K.s:3828   .debug_loc:000000000000042f .LLST5
C:\Users\stapi\AppData\Local\Temp\ccXPBA0K.s:157    .text.dm_msg_cache_deinit:0000000000000010 .LVL9
C:\Users\stapi\AppData\Local\Temp\ccXPBA0K.s:175    .text.dm_msg_cache_deinit:000000000000003c .LVL12
C:\Users\stapi\AppData\Local\Temp\ccXPBA0K.s:183    .text.dm_msg_cache_deinit:0000000000000048 .LVL13
C:\Users\stapi\AppData\Local\Temp\ccXPBA0K.s:230    .text.dm_msg_cache_deinit:0000000000000066 .LVL18
C:\Users\stapi\AppData\Local\Temp\ccXPBA0K.s:238    .text.dm_msg_cache_deinit:0000000000000074 .LVL19
C:\Users\stapi\AppData\Local\Temp\ccXPBA0K.s:4221   .debug_str:0000000000000f6a .LASF288
C:\Users\stapi\AppData\Local\Temp\ccXPBA0K.s:80     .text.dm_msg_cache_init:0000000000000000 .LFB23
C:\Users\stapi\AppData\Local\Temp\ccXPBA0K.s:133    .text.dm_msg_cache_init:0000000000000042 .LFE23
C:\Users\stapi\AppData\Local\Temp\ccXPBA0K.s:110    .text.dm_msg_cache_init:0000000000000030 .LBB28
C:\Users\stapi\AppData\Local\Temp\ccXPBA0K.s:122    .text.dm_msg_cache_init:0000000000000038 .LBE28
C:\Users\stapi\AppData\Local\Temp\ccXPBA0K.s:3835   .debug_loc:0000000000000442 .LLST0
C:\Users\stapi\AppData\Local\Temp\ccXPBA0K.s:100    .text.dm_msg_cache_init:0000000000000028 .LVL5
C:\Users\stapi\AppData\Local\Temp\ccXPBA0K.s:4281   .debug_str:0000000000001211 .LASF289
C:\Users\stapi\AppData\Local\Temp\ccXPBA0K.s:38     .text._dm_msg_cache_mutex_unlock:0000000000000000 .LFB22
C:\Users\stapi\AppData\Local\Temp\ccXPBA0K.s:56     .text._dm_msg_cache_mutex_unlock:0000000000000014 .LFE22
C:\Users\stapi\AppData\Local\Temp\ccXPBA0K.s:52     .text._dm_msg_cache_mutex_unlock:0000000000000012 .LVL3
C:\Users\stapi\AppData\Local\Temp\ccXPBA0K.s:4519   .debug_str:0000000000001f46 .LASF290
C:\Users\stapi\AppData\Local\Temp\ccXPBA0K.s:13     .text._dm_msg_cache_mutex_lock:0000000000000000 .LFB21
C:\Users\stapi\AppData\Local\Temp\ccXPBA0K.s:32     .text._dm_msg_cache_mutex_lock:0000000000000014 .LFE21
C:\Users\stapi\AppData\Local\Temp\ccXPBA0K.s:28     .text._dm_msg_cache_mutex_lock:0000000000000012 .LVL1
C:\Users\stapi\AppData\Local\Temp\ccXPBA0K.s:4005   .debug_str:00000000000004c1 .LASF313
C:\Users\stapi\AppData\Local\Temp\ccXPBA0K.s:3991   .debug_str:00000000000003f6 .LASF291
C:\Users\stapi\AppData\Local\Temp\ccXPBA0K.s:4293   .debug_str:00000000000012ad .LASF293
C:\Users\stapi\AppData\Local\Temp\ccXPBA0K.s:4449   .debug_str:0000000000001bdf .LASF292
C:\Users\stapi\AppData\Local\Temp\ccXPBA0K.s:4059   .debug_str:000000000000075d .LASF294
C:\Users\stapi\AppData\Local\Temp\ccXPBA0K.s:4349   .debug_str:00000000000015f0 .LASF295
C:\Users\stapi\AppData\Local\Temp\ccXPBA0K.s:4479   .debug_str:0000000000001d73 .LASF296
C:\Users\stapi\AppData\Local\Temp\ccXPBA0K.s:63     .text._dm_msg_cache_get_ctx:0000000000000000 .LFB20
C:\Users\stapi\AppData\Local\Temp\ccXPBA0K.s:73     .text._dm_msg_cache_get_ctx:000000000000000a .LFE20
C:\Users\stapi\AppData\Local\Temp\ccXPBA0K.s:4295   .debug_str:00000000000012b2 .LASF297
C:\Users\stapi\AppData\Local\Temp\ccXPBA0K.s:3963   .debug_str:0000000000000279 .LASF298
C:\Users\stapi\AppData\Local\Temp\ccXPBA0K.s:4367   .debug_str:00000000000016b9 .LASF299
C:\Users\stapi\AppData\Local\Temp\ccXPBA0K.s:4065   .debug_str:0000000000000799 .LASF300
C:\Users\stapi\AppData\Local\Temp\ccXPBA0K.s:4175   .debug_str:0000000000000d46 .LASF301
C:\Users\stapi\AppData\Local\Temp\ccXPBA0K.s:4093   .debug_str:00000000000008ff .LASF314
C:\Users\stapi\AppData\Local\Temp\ccXPBA0K.s:4029   .debug_str:00000000000005e6 .LASF315
C:\Users\stapi\AppData\Local\Temp\ccXPBA0K.s:4253   .debug_str:00000000000010d6 .LASF302
C:\Users\stapi\AppData\Local\Temp\ccXPBA0K.s:4195   .debug_str:0000000000000e3c .LASF303
C:\Users\stapi\AppData\Local\Temp\ccXPBA0K.s:4437   .debug_str:0000000000001aac .LASF304
C:\Users\stapi\AppData\Local\Temp\ccXPBA0K.s:4557   .debug_str:000000000000212d .LASF305
C:\Users\stapi\AppData\Local\Temp\ccXPBA0K.s:710    .text.dm_msg_cache_tick:0000000000000008 .LVL73
C:\Users\stapi\AppData\Local\Temp\ccXPBA0K.s:735    .text.dm_msg_cache_tick:0000000000000034 .LVL77
C:\Users\stapi\AppData\Local\Temp\ccXPBA0K.s:783    .text.dm_msg_cache_tick:0000000000000078 .LVL80
C:\Users\stapi\AppData\Local\Temp\ccXPBA0K.s:790    .text.dm_msg_cache_tick:0000000000000082 .LVL82
C:\Users\stapi\AppData\Local\Temp\ccXPBA0K.s:738    .text.dm_msg_cache_tick:000000000000003a .LVL78
C:\Users\stapi\AppData\Local\Temp\ccXPBA0K.s:787    .text.dm_msg_cache_tick:000000000000007c .LVL81
C:\Users\stapi\AppData\Local\Temp\ccXPBA0K.s:722    .text.dm_msg_cache_tick:0000000000000018 .LVL75
C:\Users\stapi\AppData\Local\Temp\ccXPBA0K.s:840    .text.dm_msg_cache_tick:00000000000000cc .LVL87
C:\Users\stapi\AppData\Local\Temp\ccXPBA0K.s:823    .text.dm_msg_cache_tick:00000000000000c4 .LVL85
C:\Users\stapi\AppData\Local\Temp\ccXPBA0K.s:827    .text.dm_msg_cache_tick:00000000000000c6 .LVL86
C:\Users\stapi\AppData\Local\Temp\ccXPBA0K.s:545    .text.dm_msg_cache_remove:0000000000000000 .LVL54
C:\Users\stapi\AppData\Local\Temp\ccXPBA0K.s:554    .text.dm_msg_cache_remove:0000000000000008 .LVL55
C:\Users\stapi\AppData\Local\Temp\ccXPBA0K.s:571    .text.dm_msg_cache_remove:0000000000000026 .LVL57
C:\Users\stapi\AppData\Local\Temp\ccXPBA0K.s:660    .text.dm_msg_cache_remove:00000000000000a0 .LVL69
C:\Users\stapi\AppData\Local\Temp\ccXPBA0K.s:670    .text.dm_msg_cache_remove:00000000000000a8 .LVL70
C:\Users\stapi\AppData\Local\Temp\ccXPBA0K.s:678    .text.dm_msg_cache_remove:00000000000000b0 .LVL72
C:\Users\stapi\AppData\Local\Temp\ccXPBA0K.s:574    .text.dm_msg_cache_remove:000000000000002c .LVL58
C:\Users\stapi\AppData\Local\Temp\ccXPBA0K.s:586    .text.dm_msg_cache_remove:0000000000000040 .LVL60
C:\Users\stapi\AppData\Local\Temp\ccXPBA0K.s:599    .text.dm_msg_cache_remove:0000000000000048 .LVL62
C:\Users\stapi\AppData\Local\Temp\ccXPBA0K.s:675    .text.dm_msg_cache_remove:00000000000000aa .LVL71
C:\Users\stapi\AppData\Local\Temp\ccXPBA0K.s:593    .text.dm_msg_cache_remove:0000000000000046 .LVL61
C:\Users\stapi\AppData\Local\Temp\ccXPBA0K.s:616    .text.dm_msg_cache_remove:0000000000000050 .LVL64
C:\Users\stapi\AppData\Local\Temp\ccXPBA0K.s:603    .text.dm_msg_cache_remove:000000000000004a .LVL63
C:\Users\stapi\AppData\Local\Temp\ccXPBA0K.s:443    .text.dm_msg_cache_search:0000000000000000 .LVL42
C:\Users\stapi\AppData\Local\Temp\ccXPBA0K.s:460    .text.dm_msg_cache_search:0000000000000012 .LVL43
C:\Users\stapi\AppData\Local\Temp\ccXPBA0K.s:519    .text.dm_msg_cache_search:0000000000000062 .LVL52
C:\Users\stapi\AppData\Local\Temp\ccXPBA0K.s:527    .text.dm_msg_cache_search:0000000000000064 .LVL53
C:\Users\stapi\AppData\Local\Temp\ccXPBA0K.s:475    .text.dm_msg_cache_search:000000000000002e .LVL45
C:\Users\stapi\AppData\Local\Temp\ccXPBA0K.s:487    .text.dm_msg_cache_search:0000000000000042 .LVL47
C:\Users\stapi\AppData\Local\Temp\ccXPBA0K.s:510    .text.dm_msg_cache_search:000000000000005c .LVL49
C:\Users\stapi\AppData\Local\Temp\ccXPBA0K.s:515    .text.dm_msg_cache_search:000000000000005e .LVL50
C:\Users\stapi\AppData\Local\Temp\ccXPBA0K.s:517    .text.dm_msg_cache_search:0000000000000060 .LVL51
C:\Users\stapi\AppData\Local\Temp\ccXPBA0K.s:266    .text.dm_msg_cache_insert:0000000000000000 .LVL22
C:\Users\stapi\AppData\Local\Temp\ccXPBA0K.s:292    .text.dm_msg_cache_insert:0000000000000022 .LVL25
C:\Users\stapi\AppData\Local\Temp\ccXPBA0K.s:290    .text.dm_msg_cache_insert:000000000000001e .LVL24
C:\Users\stapi\AppData\Local\Temp\ccXPBA0K.s:300    .text.dm_msg_cache_insert:0000000000000032 .LVL26
C:\Users\stapi\AppData\Local\Temp\ccXPBA0K.s:302    .text.dm_msg_cache_insert:0000000000000034 .LVL27
C:\Users\stapi\AppData\Local\Temp\ccXPBA0K.s:352    .text.dm_msg_cache_insert:000000000000008c .LVL33
C:\Users\stapi\AppData\Local\Temp\ccXPBA0K.s:278    .text.dm_msg_cache_insert:0000000000000008 .LVL23
C:\Users\stapi\AppData\Local\Temp\ccXPBA0K.s:322    .text.dm_msg_cache_insert:000000000000005c .LVL30
C:\Users\stapi\AppData\Local\Temp\ccXPBA0K.s:420    .text.dm_msg_cache_insert:00000000000000c2 .LVL41
C:\Users\stapi\AppData\Local\Temp\ccXPBA0K.s:357    .text.dm_msg_cache_insert:0000000000000090 .LVL34
C:\Users\stapi\AppData\Local\Temp\ccXPBA0K.s:366    .text.dm_msg_cache_insert:0000000000000098 .LVL35
C:\Users\stapi\AppData\Local\Temp\ccXPBA0K.s:405    .text.dm_msg_cache_insert:00000000000000b4 .LVL39
C:\Users\stapi\AppData\Local\Temp\ccXPBA0K.s:378    .text.dm_msg_cache_insert:00000000000000a2 .LVL37
C:\Users\stapi\AppData\Local\Temp\ccXPBA0K.s:398    .text.dm_msg_cache_insert:00000000000000b0 .LVL38
C:\Users\stapi\AppData\Local\Temp\ccXPBA0K.s:152    .text.dm_msg_cache_deinit:0000000000000008 .LVL8
C:\Users\stapi\AppData\Local\Temp\ccXPBA0K.s:166    .text.dm_msg_cache_deinit:000000000000002a .LVL10
C:\Users\stapi\AppData\Local\Temp\ccXPBA0K.s:246    .text.dm_msg_cache_deinit:000000000000007e .LVL21
C:\Users\stapi\AppData\Local\Temp\ccXPBA0K.s:168    .text.dm_msg_cache_deinit:000000000000002c .LVL11
C:\Users\stapi\AppData\Local\Temp\ccXPBA0K.s:243    .text.dm_msg_cache_deinit:0000000000000078 .LVL20
C:\Users\stapi\AppData\Local\Temp\ccXPBA0K.s:199    .text.dm_msg_cache_deinit:0000000000000052 .LVL14
C:\Users\stapi\AppData\Local\Temp\ccXPBA0K.s:222    .text.dm_msg_cache_deinit:000000000000005c .LVL17
C:\Users\stapi\AppData\Local\Temp\ccXPBA0K.s:205    .text.dm_msg_cache_deinit:0000000000000054 .LVL15
C:\Users\stapi\AppData\Local\Temp\ccXPBA0K.s:209    .text.dm_msg_cache_deinit:0000000000000056 .LVL16
C:\Users\stapi\AppData\Local\Temp\ccXPBA0K.s:109    .text.dm_msg_cache_init:0000000000000030 .LVL6
C:\Users\stapi\AppData\Local\Temp\ccXPBA0K.s:120    .text.dm_msg_cache_init:0000000000000038 .LVL7
C:\Users\stapi\AppData\Local\Temp\ccXPBA0K.s:911    .debug_info:0000000000000000 .Ldebug_info0
C:\Users\stapi\AppData\Local\Temp\ccXPBA0K.s:212    .text.dm_msg_cache_deinit:0000000000000056 .LBE32
C:\Users\stapi\AppData\Local\Temp\ccXPBA0K.s:215    .text.dm_msg_cache_deinit:0000000000000058 .LBB35
C:\Users\stapi\AppData\Local\Temp\ccXPBA0K.s:224    .text.dm_msg_cache_deinit:000000000000005c .LBE35
C:\Users\stapi\AppData\Local\Temp\ccXPBA0K.s:395    .text.dm_msg_cache_insert:00000000000000ae .LBE38
C:\Users\stapi\AppData\Local\Temp\ccXPBA0K.s:399    .text.dm_msg_cache_insert:00000000000000b0 .LBB45
C:\Users\stapi\AppData\Local\Temp\ccXPBA0K.s:409    .text.dm_msg_cache_insert:00000000000000b4 .LBE45
C:\Users\stapi\AppData\Local\Temp\ccXPBA0K.s:393    .text.dm_msg_cache_insert:00000000000000ae .LBE40
C:\Users\stapi\AppData\Local\Temp\ccXPBA0K.s:401    .text.dm_msg_cache_insert:00000000000000b0 .LBB43
C:\Users\stapi\AppData\Local\Temp\ccXPBA0K.s:407    .text.dm_msg_cache_insert:00000000000000b4 .LBE43
C:\Users\stapi\AppData\Local\Temp\ccXPBA0K.s:606    .text.dm_msg_cache_remove:000000000000004a .LBE48
C:\Users\stapi\AppData\Local\Temp\ccXPBA0K.s:609    .text.dm_msg_cache_remove:000000000000004c .LBB51
C:\Users\stapi\AppData\Local\Temp\ccXPBA0K.s:618    .text.dm_msg_cache_remove:0000000000000050 .LBE51
C:\Users\stapi\AppData\Local\Temp\ccXPBA0K.s:830    .text.dm_msg_cache_tick:00000000000000c6 .LBE54
C:\Users\stapi\AppData\Local\Temp\ccXPBA0K.s:833    .text.dm_msg_cache_tick:00000000000000c8 .LBB57
C:\Users\stapi\AppData\Local\Temp\ccXPBA0K.s:842    .text.dm_msg_cache_tick:00000000000000cc .LBE57

UNDEFINED SYMBOLS
HAL_MutexLock
HAL_MutexUnlock
__riscv_save_1
HAL_MutexCreate
__riscv_restore_1
__riscv_save_4
HAL_MutexDestroy
__riscv_restore_4
LITE_free_internal
__riscv_save_6
LITE_syslog
LITE_malloc_internal
memset
HAL_UptimeMs
__riscv_restore_6
__riscv_save_2
__riscv_restore_2
__riscv_save_3
__riscv_restore_3
__riscv_save_10
__riscv_restore_10
dm_msg_send_msg_timeout_to_user
