   1              		.file	"dm_message.c"
   2              		.option nopic
   3              		.attribute arch, "rv32i2p0_m2p0_a2p0_f2p0_c2p0_b_p0p94"
   4              		.attribute unaligned_access, 0
   5              		.attribute stack_align, 16
   6              		.text
   7              	.Ltext0:
   8              		.cfi_sections	.debug_frame
   9              		.section	.text.dm_msg_init,"ax",@progbits
  10              		.align	1
  11              		.globl	dm_msg_init
  13              	dm_msg_init:
  14              	.LFB21:
  15              		.file 1 "C:/Users/stapi/OneDrive/Desktop/GD32VW553/V1_MQTT_OK/GD32VW55X_Wifi_BLE_SDK/GD32VW55x_REL
   1:C:/Users/stapi/OneDrive/Desktop/GD32VW553/V1_MQTT_OK/GD32VW55X_Wifi_BLE_SDK/GD32VW55x_RELEASE_V1.0.2/MSDK/cloud/alicloud/src/services/linkkit/dm\dm_message.c **** /*
   2:C:/Users/stapi/OneDrive/Desktop/GD32VW553/V1_MQTT_OK/GD32VW55X_Wifi_BLE_SDK/GD32VW55x_RELEASE_V1.0.2/MSDK/cloud/alicloud/src/services/linkkit/dm\dm_message.c ****  * Copyright (C) 2015-2018 Alibaba Group Holding Limited
   3:C:/Users/stapi/OneDrive/Desktop/GD32VW553/V1_MQTT_OK/GD32VW55X_Wifi_BLE_SDK/GD32VW55x_RELEASE_V1.0.2/MSDK/cloud/alicloud/src/services/linkkit/dm\dm_message.c ****  */
   4:C:/Users/stapi/OneDrive/Desktop/GD32VW553/V1_MQTT_OK/GD32VW55X_Wifi_BLE_SDK/GD32VW55x_RELEASE_V1.0.2/MSDK/cloud/alicloud/src/services/linkkit/dm\dm_message.c **** 
   5:C:/Users/stapi/OneDrive/Desktop/GD32VW553/V1_MQTT_OK/GD32VW55X_Wifi_BLE_SDK/GD32VW55x_RELEASE_V1.0.2/MSDK/cloud/alicloud/src/services/linkkit/dm\dm_message.c **** 
   6:C:/Users/stapi/OneDrive/Desktop/GD32VW553/V1_MQTT_OK/GD32VW55X_Wifi_BLE_SDK/GD32VW55x_RELEASE_V1.0.2/MSDK/cloud/alicloud/src/services/linkkit/dm\dm_message.c **** #include "iotx_dm_internal.h"
   7:C:/Users/stapi/OneDrive/Desktop/GD32VW553/V1_MQTT_OK/GD32VW55X_Wifi_BLE_SDK/GD32VW55x_RELEASE_V1.0.2/MSDK/cloud/alicloud/src/services/linkkit/dm\dm_message.c **** 
   8:C:/Users/stapi/OneDrive/Desktop/GD32VW553/V1_MQTT_OK/GD32VW55X_Wifi_BLE_SDK/GD32VW55x_RELEASE_V1.0.2/MSDK/cloud/alicloud/src/services/linkkit/dm\dm_message.c **** static dm_msg_ctx_t g_dm_msg_ctx;
   9:C:/Users/stapi/OneDrive/Desktop/GD32VW553/V1_MQTT_OK/GD32VW55X_Wifi_BLE_SDK/GD32VW55x_RELEASE_V1.0.2/MSDK/cloud/alicloud/src/services/linkkit/dm\dm_message.c **** 
  10:C:/Users/stapi/OneDrive/Desktop/GD32VW553/V1_MQTT_OK/GD32VW55X_Wifi_BLE_SDK/GD32VW55x_RELEASE_V1.0.2/MSDK/cloud/alicloud/src/services/linkkit/dm\dm_message.c **** static dm_msg_ctx_t *_dm_msg_get_ctx(void)
  11:C:/Users/stapi/OneDrive/Desktop/GD32VW553/V1_MQTT_OK/GD32VW55X_Wifi_BLE_SDK/GD32VW55x_RELEASE_V1.0.2/MSDK/cloud/alicloud/src/services/linkkit/dm\dm_message.c **** {
  12:C:/Users/stapi/OneDrive/Desktop/GD32VW553/V1_MQTT_OK/GD32VW55X_Wifi_BLE_SDK/GD32VW55x_RELEASE_V1.0.2/MSDK/cloud/alicloud/src/services/linkkit/dm\dm_message.c ****     return &g_dm_msg_ctx;
  13:C:/Users/stapi/OneDrive/Desktop/GD32VW553/V1_MQTT_OK/GD32VW55X_Wifi_BLE_SDK/GD32VW55x_RELEASE_V1.0.2/MSDK/cloud/alicloud/src/services/linkkit/dm\dm_message.c **** }
  14:C:/Users/stapi/OneDrive/Desktop/GD32VW553/V1_MQTT_OK/GD32VW55X_Wifi_BLE_SDK/GD32VW55x_RELEASE_V1.0.2/MSDK/cloud/alicloud/src/services/linkkit/dm\dm_message.c **** 
  15:C:/Users/stapi/OneDrive/Desktop/GD32VW553/V1_MQTT_OK/GD32VW55X_Wifi_BLE_SDK/GD32VW55x_RELEASE_V1.0.2/MSDK/cloud/alicloud/src/services/linkkit/dm\dm_message.c **** int dm_msg_init(void)
  16:C:/Users/stapi/OneDrive/Desktop/GD32VW553/V1_MQTT_OK/GD32VW55X_Wifi_BLE_SDK/GD32VW55x_RELEASE_V1.0.2/MSDK/cloud/alicloud/src/services/linkkit/dm\dm_message.c **** {
  16              		.loc 1 16 1
  17              		.cfi_startproc
  17:C:/Users/stapi/OneDrive/Desktop/GD32VW553/V1_MQTT_OK/GD32VW55X_Wifi_BLE_SDK/GD32VW55x_RELEASE_V1.0.2/MSDK/cloud/alicloud/src/services/linkkit/dm\dm_message.c ****     dm_msg_ctx_t *ctx = _dm_msg_get_ctx();
  18              		.loc 1 17 5
  12:C:/Users/stapi/OneDrive/Desktop/GD32VW553/V1_MQTT_OK/GD32VW55X_Wifi_BLE_SDK/GD32VW55x_RELEASE_V1.0.2/MSDK/cloud/alicloud/src/services/linkkit/dm\dm_message.c **** }
  19              		.loc 1 12 5
  20              	.LVL0:
  18:C:/Users/stapi/OneDrive/Desktop/GD32VW553/V1_MQTT_OK/GD32VW55X_Wifi_BLE_SDK/GD32VW55x_RELEASE_V1.0.2/MSDK/cloud/alicloud/src/services/linkkit/dm\dm_message.c ****     memset(ctx, 0, sizeof(dm_msg_ctx_t));
  21              		.loc 1 18 5
  22 0000 B7070000 		lui	a5,%hi(.LANCHOR0)
  23 0004 23A00700 		sw	zero,%lo(.LANCHOR0)(a5)
  19:C:/Users/stapi/OneDrive/Desktop/GD32VW553/V1_MQTT_OK/GD32VW55X_Wifi_BLE_SDK/GD32VW55x_RELEASE_V1.0.2/MSDK/cloud/alicloud/src/services/linkkit/dm\dm_message.c **** 
  20:C:/Users/stapi/OneDrive/Desktop/GD32VW553/V1_MQTT_OK/GD32VW55X_Wifi_BLE_SDK/GD32VW55x_RELEASE_V1.0.2/MSDK/cloud/alicloud/src/services/linkkit/dm\dm_message.c ****     return SUCCESS_RETURN;
  24              		.loc 1 20 5
  21:C:/Users/stapi/OneDrive/Desktop/GD32VW553/V1_MQTT_OK/GD32VW55X_Wifi_BLE_SDK/GD32VW55x_RELEASE_V1.0.2/MSDK/cloud/alicloud/src/services/linkkit/dm\dm_message.c **** }
  25              		.loc 1 21 1 is_stmt 0
  26 0008 0145     		li	a0,0
  27 000a 8280     		ret
  28              		.cfi_endproc
  29              	.LFE21:
  31              		.section	.text.dm_msg_deinit,"ax",@progbits
  32              		.align	1
  33              		.globl	dm_msg_deinit
  35              	dm_msg_deinit:
  36              	.LFB48:
  37              		.cfi_startproc
  38 0000 17030000 		tail	dm_msg_init
  38      67000300 
  39              		.cfi_endproc
  40              	.LFE48:
  42              		.section	.text._dm_msg_send_to_user,"ax",@progbits
  43              		.align	1
  44              		.globl	_dm_msg_send_to_user
  46              	_dm_msg_send_to_user:
  47              	.LFB23:
  22:C:/Users/stapi/OneDrive/Desktop/GD32VW553/V1_MQTT_OK/GD32VW55X_Wifi_BLE_SDK/GD32VW55x_RELEASE_V1.0.2/MSDK/cloud/alicloud/src/services/linkkit/dm\dm_message.c **** 
  23:C:/Users/stapi/OneDrive/Desktop/GD32VW553/V1_MQTT_OK/GD32VW55X_Wifi_BLE_SDK/GD32VW55x_RELEASE_V1.0.2/MSDK/cloud/alicloud/src/services/linkkit/dm\dm_message.c **** int dm_msg_deinit(void)
  24:C:/Users/stapi/OneDrive/Desktop/GD32VW553/V1_MQTT_OK/GD32VW55X_Wifi_BLE_SDK/GD32VW55x_RELEASE_V1.0.2/MSDK/cloud/alicloud/src/services/linkkit/dm\dm_message.c **** {
  25:C:/Users/stapi/OneDrive/Desktop/GD32VW553/V1_MQTT_OK/GD32VW55X_Wifi_BLE_SDK/GD32VW55x_RELEASE_V1.0.2/MSDK/cloud/alicloud/src/services/linkkit/dm\dm_message.c ****     dm_msg_ctx_t *ctx = _dm_msg_get_ctx();
  26:C:/Users/stapi/OneDrive/Desktop/GD32VW553/V1_MQTT_OK/GD32VW55X_Wifi_BLE_SDK/GD32VW55x_RELEASE_V1.0.2/MSDK/cloud/alicloud/src/services/linkkit/dm\dm_message.c ****     memset(ctx, 0, sizeof(dm_msg_ctx_t));
  27:C:/Users/stapi/OneDrive/Desktop/GD32VW553/V1_MQTT_OK/GD32VW55X_Wifi_BLE_SDK/GD32VW55x_RELEASE_V1.0.2/MSDK/cloud/alicloud/src/services/linkkit/dm\dm_message.c **** 
  28:C:/Users/stapi/OneDrive/Desktop/GD32VW553/V1_MQTT_OK/GD32VW55X_Wifi_BLE_SDK/GD32VW55x_RELEASE_V1.0.2/MSDK/cloud/alicloud/src/services/linkkit/dm\dm_message.c ****     return SUCCESS_RETURN;
  29:C:/Users/stapi/OneDrive/Desktop/GD32VW553/V1_MQTT_OK/GD32VW55X_Wifi_BLE_SDK/GD32VW55x_RELEASE_V1.0.2/MSDK/cloud/alicloud/src/services/linkkit/dm\dm_message.c **** }
  30:C:/Users/stapi/OneDrive/Desktop/GD32VW553/V1_MQTT_OK/GD32VW55X_Wifi_BLE_SDK/GD32VW55x_RELEASE_V1.0.2/MSDK/cloud/alicloud/src/services/linkkit/dm\dm_message.c **** 
  31:C:/Users/stapi/OneDrive/Desktop/GD32VW553/V1_MQTT_OK/GD32VW55X_Wifi_BLE_SDK/GD32VW55x_RELEASE_V1.0.2/MSDK/cloud/alicloud/src/services/linkkit/dm\dm_message.c **** int _dm_msg_send_to_user(iotx_dm_event_types_t type, char *message)
  32:C:/Users/stapi/OneDrive/Desktop/GD32VW553/V1_MQTT_OK/GD32VW55X_Wifi_BLE_SDK/GD32VW55x_RELEASE_V1.0.2/MSDK/cloud/alicloud/src/services/linkkit/dm\dm_message.c **** {
  48              		.loc 1 32 1 is_stmt 1
  49              		.cfi_startproc
  50              	.LVL1:
  51              		.loc 1 32 1 is_stmt 0
  52 0000 17030000 		call	t0,__riscv_save_3
  52      E7020300 
  53              		.cfi_offset 18, -16
  54              		.cfi_offset 9, -12
  55              		.cfi_offset 8, -8
  56              		.cfi_offset 1, -4
  57              		.cfi_def_cfa_offset 16
  33:C:/Users/stapi/OneDrive/Desktop/GD32VW553/V1_MQTT_OK/GD32VW55X_Wifi_BLE_SDK/GD32VW55x_RELEASE_V1.0.2/MSDK/cloud/alicloud/src/services/linkkit/dm\dm_message.c ****     int res = 0;
  58              		.loc 1 33 5 is_stmt 1
  59              	.LVL2:
  34:C:/Users/stapi/OneDrive/Desktop/GD32VW553/V1_MQTT_OK/GD32VW55X_Wifi_BLE_SDK/GD32VW55x_RELEASE_V1.0.2/MSDK/cloud/alicloud/src/services/linkkit/dm\dm_message.c ****     dm_ipc_msg_t *dipc_msg = NULL;
  60              		.loc 1 34 5
  35:C:/Users/stapi/OneDrive/Desktop/GD32VW553/V1_MQTT_OK/GD32VW55X_Wifi_BLE_SDK/GD32VW55x_RELEASE_V1.0.2/MSDK/cloud/alicloud/src/services/linkkit/dm\dm_message.c **** 
  36:C:/Users/stapi/OneDrive/Desktop/GD32VW553/V1_MQTT_OK/GD32VW55X_Wifi_BLE_SDK/GD32VW55x_RELEASE_V1.0.2/MSDK/cloud/alicloud/src/services/linkkit/dm\dm_message.c ****     dipc_msg = DM_malloc(sizeof(dm_ipc_msg_t));
  61              		.loc 1 36 5
  32:C:/Users/stapi/OneDrive/Desktop/GD32VW553/V1_MQTT_OK/GD32VW55X_Wifi_BLE_SDK/GD32VW55x_RELEASE_V1.0.2/MSDK/cloud/alicloud/src/services/linkkit/dm\dm_message.c ****     int res = 0;
  62              		.loc 1 32 1 is_stmt 0
  63 0008 2A89     		mv	s2,a0
  64 000a AE84     		mv	s1,a1
  65              		.loc 1 36 16
  66 000c 2146     		li	a2,8
  67 000e 8145     		li	a1,0
  68              	.LVL3:
  69 0010 0145     		li	a0,0
  70              	.LVL4:
  71 0012 97000000 		call	LITE_malloc_internal
  71      E7800000 
  72              	.LVL5:
  37:C:/Users/stapi/OneDrive/Desktop/GD32VW553/V1_MQTT_OK/GD32VW55X_Wifi_BLE_SDK/GD32VW55x_RELEASE_V1.0.2/MSDK/cloud/alicloud/src/services/linkkit/dm\dm_message.c ****     if (dipc_msg == NULL) {
  73              		.loc 1 37 5 is_stmt 1
  74              		.loc 1 37 8 is_stmt 0
  75 001a 05C5     		beq	a0,zero,.L6
  38:C:/Users/stapi/OneDrive/Desktop/GD32VW553/V1_MQTT_OK/GD32VW55X_Wifi_BLE_SDK/GD32VW55x_RELEASE_V1.0.2/MSDK/cloud/alicloud/src/services/linkkit/dm\dm_message.c ****         return DM_MEMORY_NOT_ENOUGH;
  39:C:/Users/stapi/OneDrive/Desktop/GD32VW553/V1_MQTT_OK/GD32VW55X_Wifi_BLE_SDK/GD32VW55x_RELEASE_V1.0.2/MSDK/cloud/alicloud/src/services/linkkit/dm\dm_message.c ****     }
  40:C:/Users/stapi/OneDrive/Desktop/GD32VW553/V1_MQTT_OK/GD32VW55X_Wifi_BLE_SDK/GD32VW55x_RELEASE_V1.0.2/MSDK/cloud/alicloud/src/services/linkkit/dm\dm_message.c ****     memset(dipc_msg, 0, sizeof(dm_ipc_msg_t));
  41:C:/Users/stapi/OneDrive/Desktop/GD32VW553/V1_MQTT_OK/GD32VW55X_Wifi_BLE_SDK/GD32VW55x_RELEASE_V1.0.2/MSDK/cloud/alicloud/src/services/linkkit/dm\dm_message.c **** 
  42:C:/Users/stapi/OneDrive/Desktop/GD32VW553/V1_MQTT_OK/GD32VW55X_Wifi_BLE_SDK/GD32VW55x_RELEASE_V1.0.2/MSDK/cloud/alicloud/src/services/linkkit/dm\dm_message.c ****     dipc_msg->type = type;
  76              		.loc 1 42 20
  77 001c 23202501 		sw	s2,0(a0)
  43:C:/Users/stapi/OneDrive/Desktop/GD32VW553/V1_MQTT_OK/GD32VW55X_Wifi_BLE_SDK/GD32VW55x_RELEASE_V1.0.2/MSDK/cloud/alicloud/src/services/linkkit/dm\dm_message.c ****     dipc_msg->data = message;
  78              		.loc 1 43 20
  79 0020 44C1     		sw	s1,4(a0)
  80 0022 2A84     		mv	s0,a0
  40:C:/Users/stapi/OneDrive/Desktop/GD32VW553/V1_MQTT_OK/GD32VW55X_Wifi_BLE_SDK/GD32VW55x_RELEASE_V1.0.2/MSDK/cloud/alicloud/src/services/linkkit/dm\dm_message.c **** 
  81              		.loc 1 40 5 is_stmt 1
  42:C:/Users/stapi/OneDrive/Desktop/GD32VW553/V1_MQTT_OK/GD32VW55X_Wifi_BLE_SDK/GD32VW55x_RELEASE_V1.0.2/MSDK/cloud/alicloud/src/services/linkkit/dm\dm_message.c ****     dipc_msg->data = message;
  82              		.loc 1 42 5
  83              		.loc 1 43 5
  44:C:/Users/stapi/OneDrive/Desktop/GD32VW553/V1_MQTT_OK/GD32VW55X_Wifi_BLE_SDK/GD32VW55x_RELEASE_V1.0.2/MSDK/cloud/alicloud/src/services/linkkit/dm\dm_message.c **** 
  45:C:/Users/stapi/OneDrive/Desktop/GD32VW553/V1_MQTT_OK/GD32VW55X_Wifi_BLE_SDK/GD32VW55x_RELEASE_V1.0.2/MSDK/cloud/alicloud/src/services/linkkit/dm\dm_message.c ****     res = dm_ipc_msg_insert((void *)dipc_msg);
  84              		.loc 1 45 5
  85              		.loc 1 45 11 is_stmt 0
  86 0024 97000000 		call	dm_ipc_msg_insert
  86      E7800000 
  87              	.LVL6:
  46:C:/Users/stapi/OneDrive/Desktop/GD32VW553/V1_MQTT_OK/GD32VW55X_Wifi_BLE_SDK/GD32VW55x_RELEASE_V1.0.2/MSDK/cloud/alicloud/src/services/linkkit/dm\dm_message.c ****     if (res != SUCCESS_RETURN) {
  88              		.loc 1 46 5 is_stmt 1
  89              		.loc 1 46 8 is_stmt 0
  90 002c 19C5     		beq	a0,zero,.L4
  47:C:/Users/stapi/OneDrive/Desktop/GD32VW553/V1_MQTT_OK/GD32VW55X_Wifi_BLE_SDK/GD32VW55x_RELEASE_V1.0.2/MSDK/cloud/alicloud/src/services/linkkit/dm\dm_message.c ****         DM_free(dipc_msg);
  91              		.loc 1 47 9 is_stmt 1
  92 002e 2285     		mv	a0,s0
  93              	.LVL7:
  94 0030 97000000 		call	LITE_free_internal
  94      E7800000 
  95              	.LVL8:
  96              		.loc 1 47 9
  97              		.loc 1 47 26
  48:C:/Users/stapi/OneDrive/Desktop/GD32VW553/V1_MQTT_OK/GD32VW55X_Wifi_BLE_SDK/GD32VW55x_RELEASE_V1.0.2/MSDK/cloud/alicloud/src/services/linkkit/dm\dm_message.c ****         return FAIL_RETURN;
  98              		.loc 1 48 9
  99              		.loc 1 48 16 is_stmt 0
 100 0038 7D55     		li	a0,-1
 101              	.LVL9:
 102              	.L4:
  49:C:/Users/stapi/OneDrive/Desktop/GD32VW553/V1_MQTT_OK/GD32VW55X_Wifi_BLE_SDK/GD32VW55x_RELEASE_V1.0.2/MSDK/cloud/alicloud/src/services/linkkit/dm\dm_message.c ****     }
  50:C:/Users/stapi/OneDrive/Desktop/GD32VW553/V1_MQTT_OK/GD32VW55X_Wifi_BLE_SDK/GD32VW55x_RELEASE_V1.0.2/MSDK/cloud/alicloud/src/services/linkkit/dm\dm_message.c **** 
  51:C:/Users/stapi/OneDrive/Desktop/GD32VW553/V1_MQTT_OK/GD32VW55X_Wifi_BLE_SDK/GD32VW55x_RELEASE_V1.0.2/MSDK/cloud/alicloud/src/services/linkkit/dm\dm_message.c ****     return SUCCESS_RETURN;
  52:C:/Users/stapi/OneDrive/Desktop/GD32VW553/V1_MQTT_OK/GD32VW55X_Wifi_BLE_SDK/GD32VW55x_RELEASE_V1.0.2/MSDK/cloud/alicloud/src/services/linkkit/dm\dm_message.c **** }
 103              		.loc 1 52 1
 104 003a 17030000 		tail	__riscv_restore_3
 104      67000300 
 105              		.cfi_remember_state
 106              		.cfi_restore 18
 107              		.cfi_restore 9
 108              		.cfi_restore 8
 109              		.cfi_restore 1
 110              		.cfi_def_cfa_offset 0
 111              	.LVL10:
 112              	.L6:
 113              		.cfi_restore_state
  38:C:/Users/stapi/OneDrive/Desktop/GD32VW553/V1_MQTT_OK/GD32VW55X_Wifi_BLE_SDK/GD32VW55x_RELEASE_V1.0.2/MSDK/cloud/alicloud/src/services/linkkit/dm\dm_message.c ****     }
 114              		.loc 1 38 16
 115 0042 7555     		li	a0,-3
 116              	.LVL11:
 117 0044 DDBF     		j	.L4
 118              		.cfi_endproc
 119              	.LFE23:
 121              		.section	.text.dm_msg_send_msg_timeout_to_user,"ax",@progbits
 122              		.align	1
 123              		.globl	dm_msg_send_msg_timeout_to_user
 125              	dm_msg_send_msg_timeout_to_user:
 126              	.LFB24:
  53:C:/Users/stapi/OneDrive/Desktop/GD32VW553/V1_MQTT_OK/GD32VW55X_Wifi_BLE_SDK/GD32VW55x_RELEASE_V1.0.2/MSDK/cloud/alicloud/src/services/linkkit/dm\dm_message.c **** 
  54:C:/Users/stapi/OneDrive/Desktop/GD32VW553/V1_MQTT_OK/GD32VW55X_Wifi_BLE_SDK/GD32VW55x_RELEASE_V1.0.2/MSDK/cloud/alicloud/src/services/linkkit/dm\dm_message.c **** const char DM_MSG_SEND_MSG_TIMEOUT_FMT[] DM_READ_ONLY = "{\"id\":%d,\"code\":%d,\"devid\":%d}";
  55:C:/Users/stapi/OneDrive/Desktop/GD32VW553/V1_MQTT_OK/GD32VW55X_Wifi_BLE_SDK/GD32VW55x_RELEASE_V1.0.2/MSDK/cloud/alicloud/src/services/linkkit/dm\dm_message.c **** int dm_msg_send_msg_timeout_to_user(int msg_id, int devid, iotx_dm_event_types_t type)
  56:C:/Users/stapi/OneDrive/Desktop/GD32VW553/V1_MQTT_OK/GD32VW55X_Wifi_BLE_SDK/GD32VW55x_RELEASE_V1.0.2/MSDK/cloud/alicloud/src/services/linkkit/dm\dm_message.c **** {
 127              		.loc 1 56 1 is_stmt 1
 128              		.cfi_startproc
 129              	.LVL12:
 130 0000 17030000 		call	t0,__riscv_save_4
 130      E7020300 
 131              		.cfi_offset 19, -20
 132              		.cfi_offset 18, -16
 133              		.cfi_offset 9, -12
 134              		.cfi_offset 8, -8
 135              		.cfi_offset 1, -4
 136              		.cfi_def_cfa_offset 32
  57:C:/Users/stapi/OneDrive/Desktop/GD32VW553/V1_MQTT_OK/GD32VW55X_Wifi_BLE_SDK/GD32VW55x_RELEASE_V1.0.2/MSDK/cloud/alicloud/src/services/linkkit/dm\dm_message.c ****     int res = 0, message_len = 0;
 137              		.loc 1 57 5
 138              	.LVL13:
  58:C:/Users/stapi/OneDrive/Desktop/GD32VW553/V1_MQTT_OK/GD32VW55X_Wifi_BLE_SDK/GD32VW55x_RELEASE_V1.0.2/MSDK/cloud/alicloud/src/services/linkkit/dm\dm_message.c ****     char *message = NULL;
 139              		.loc 1 58 5
  59:C:/Users/stapi/OneDrive/Desktop/GD32VW553/V1_MQTT_OK/GD32VW55X_Wifi_BLE_SDK/GD32VW55x_RELEASE_V1.0.2/MSDK/cloud/alicloud/src/services/linkkit/dm\dm_message.c **** 
  60:C:/Users/stapi/OneDrive/Desktop/GD32VW553/V1_MQTT_OK/GD32VW55X_Wifi_BLE_SDK/GD32VW55x_RELEASE_V1.0.2/MSDK/cloud/alicloud/src/services/linkkit/dm\dm_message.c ****     message_len = strlen(DM_MSG_SEND_MSG_TIMEOUT_FMT) + DM_UTILS_UINT32_STRLEN * 3 + 1;
 140              		.loc 1 60 5
  61:C:/Users/stapi/OneDrive/Desktop/GD32VW553/V1_MQTT_OK/GD32VW55X_Wifi_BLE_SDK/GD32VW55x_RELEASE_V1.0.2/MSDK/cloud/alicloud/src/services/linkkit/dm\dm_message.c ****     message = DM_malloc(message_len + 1);
 141              		.loc 1 61 5
  56:C:/Users/stapi/OneDrive/Desktop/GD32VW553/V1_MQTT_OK/GD32VW55X_Wifi_BLE_SDK/GD32VW55x_RELEASE_V1.0.2/MSDK/cloud/alicloud/src/services/linkkit/dm\dm_message.c ****     int res = 0, message_len = 0;
 142              		.loc 1 56 1 is_stmt 0
 143 0008 2A89     		mv	s2,a0
 144 000a AE89     		mv	s3,a1
 145 000c B284     		mv	s1,a2
 146              		.loc 1 61 15
 147 000e 8145     		li	a1,0
 148              	.LVL14:
 149 0010 1306E003 		li	a2,62
 150              	.LVL15:
 151 0014 0145     		li	a0,0
 152              	.LVL16:
 153 0016 97000000 		call	LITE_malloc_internal
 153      E7800000 
 154              	.LVL17:
  62:C:/Users/stapi/OneDrive/Desktop/GD32VW553/V1_MQTT_OK/GD32VW55X_Wifi_BLE_SDK/GD32VW55x_RELEASE_V1.0.2/MSDK/cloud/alicloud/src/services/linkkit/dm\dm_message.c ****     if (message == NULL) {
 155              		.loc 1 62 5 is_stmt 1
 156              		.loc 1 62 8 is_stmt 0
 157 001e 31C9     		beq	a0,zero,.L13
  63:C:/Users/stapi/OneDrive/Desktop/GD32VW553/V1_MQTT_OK/GD32VW55X_Wifi_BLE_SDK/GD32VW55x_RELEASE_V1.0.2/MSDK/cloud/alicloud/src/services/linkkit/dm\dm_message.c ****         return DM_MEMORY_NOT_ENOUGH;
  64:C:/Users/stapi/OneDrive/Desktop/GD32VW553/V1_MQTT_OK/GD32VW55X_Wifi_BLE_SDK/GD32VW55x_RELEASE_V1.0.2/MSDK/cloud/alicloud/src/services/linkkit/dm\dm_message.c ****     }
  65:C:/Users/stapi/OneDrive/Desktop/GD32VW553/V1_MQTT_OK/GD32VW55X_Wifi_BLE_SDK/GD32VW55x_RELEASE_V1.0.2/MSDK/cloud/alicloud/src/services/linkkit/dm\dm_message.c ****     memset(message, 0, message_len);
 158              		.loc 1 65 5
 159 0020 1306D003 		li	a2,61
 160 0024 8145     		li	a1,0
 161 0026 2A84     		mv	s0,a0
 162              		.loc 1 65 5 is_stmt 1
 163 0028 97000000 		call	memset
 163      E7800000 
 164              	.LVL18:
  66:C:/Users/stapi/OneDrive/Desktop/GD32VW553/V1_MQTT_OK/GD32VW55X_Wifi_BLE_SDK/GD32VW55x_RELEASE_V1.0.2/MSDK/cloud/alicloud/src/services/linkkit/dm\dm_message.c ****     HAL_Snprintf(message, message_len, DM_MSG_SEND_MSG_TIMEOUT_FMT, msg_id, IOTX_DM_ERR_CODE_TIMEOU
 165              		.loc 1 66 5
 166 0030 6167     		li	a4,98304
 167 0032 37060000 		lui	a2,%hi(.LANCHOR1)
 168 0036 9305D003 		li	a1,61
 169 003a CE87     		mv	a5,s3
 170 003c 1307076A 		addi	a4,a4,1696
 171 0040 CA86     		mv	a3,s2
 172 0042 13060600 		addi	a2,a2,%lo(.LANCHOR1)
 173 0046 2285     		mv	a0,s0
 174 0048 97000000 		call	HAL_Snprintf
 174      E7800000 
 175              	.LVL19:
  67:C:/Users/stapi/OneDrive/Desktop/GD32VW553/V1_MQTT_OK/GD32VW55X_Wifi_BLE_SDK/GD32VW55x_RELEASE_V1.0.2/MSDK/cloud/alicloud/src/services/linkkit/dm\dm_message.c **** 
  68:C:/Users/stapi/OneDrive/Desktop/GD32VW553/V1_MQTT_OK/GD32VW55X_Wifi_BLE_SDK/GD32VW55x_RELEASE_V1.0.2/MSDK/cloud/alicloud/src/services/linkkit/dm\dm_message.c ****     res = _dm_msg_send_to_user(type, message);
 176              		.loc 1 68 5
 177              		.loc 1 68 11 is_stmt 0
 178 0050 A285     		mv	a1,s0
 179 0052 2685     		mv	a0,s1
 180 0054 97000000 		call	_dm_msg_send_to_user
 180      E7800000 
 181              	.LVL20:
  69:C:/Users/stapi/OneDrive/Desktop/GD32VW553/V1_MQTT_OK/GD32VW55X_Wifi_BLE_SDK/GD32VW55x_RELEASE_V1.0.2/MSDK/cloud/alicloud/src/services/linkkit/dm\dm_message.c ****     if (res != SUCCESS_RETURN) {
 182              		.loc 1 69 5 is_stmt 1
 183              		.loc 1 69 8 is_stmt 0
 184 005c 19C5     		beq	a0,zero,.L11
  70:C:/Users/stapi/OneDrive/Desktop/GD32VW553/V1_MQTT_OK/GD32VW55X_Wifi_BLE_SDK/GD32VW55x_RELEASE_V1.0.2/MSDK/cloud/alicloud/src/services/linkkit/dm\dm_message.c ****         DM_free(message);
 185              		.loc 1 70 9 is_stmt 1
 186 005e 2285     		mv	a0,s0
 187              	.LVL21:
 188 0060 97000000 		call	LITE_free_internal
 188      E7800000 
 189              	.LVL22:
 190              		.loc 1 70 9
 191              		.loc 1 70 25
  71:C:/Users/stapi/OneDrive/Desktop/GD32VW553/V1_MQTT_OK/GD32VW55X_Wifi_BLE_SDK/GD32VW55x_RELEASE_V1.0.2/MSDK/cloud/alicloud/src/services/linkkit/dm\dm_message.c ****         return FAIL_RETURN;
 192              		.loc 1 71 9
 193              		.loc 1 71 16 is_stmt 0
 194 0068 7D55     		li	a0,-1
 195              	.LVL23:
 196              	.L11:
  72:C:/Users/stapi/OneDrive/Desktop/GD32VW553/V1_MQTT_OK/GD32VW55X_Wifi_BLE_SDK/GD32VW55x_RELEASE_V1.0.2/MSDK/cloud/alicloud/src/services/linkkit/dm\dm_message.c ****     }
  73:C:/Users/stapi/OneDrive/Desktop/GD32VW553/V1_MQTT_OK/GD32VW55X_Wifi_BLE_SDK/GD32VW55x_RELEASE_V1.0.2/MSDK/cloud/alicloud/src/services/linkkit/dm\dm_message.c **** 
  74:C:/Users/stapi/OneDrive/Desktop/GD32VW553/V1_MQTT_OK/GD32VW55X_Wifi_BLE_SDK/GD32VW55x_RELEASE_V1.0.2/MSDK/cloud/alicloud/src/services/linkkit/dm\dm_message.c ****     return SUCCESS_RETURN;
  75:C:/Users/stapi/OneDrive/Desktop/GD32VW553/V1_MQTT_OK/GD32VW55X_Wifi_BLE_SDK/GD32VW55x_RELEASE_V1.0.2/MSDK/cloud/alicloud/src/services/linkkit/dm\dm_message.c **** }
 197              		.loc 1 75 1
 198 006a 17030000 		tail	__riscv_restore_4
 198      67000300 
 199              		.cfi_remember_state
 200              		.cfi_restore 19
 201              		.cfi_restore 18
 202              		.cfi_restore 9
 203              		.cfi_restore 8
 204              		.cfi_restore 1
 205              		.cfi_def_cfa_offset 0
 206              	.LVL24:
 207              	.L13:
 208              		.cfi_restore_state
  63:C:/Users/stapi/OneDrive/Desktop/GD32VW553/V1_MQTT_OK/GD32VW55X_Wifi_BLE_SDK/GD32VW55x_RELEASE_V1.0.2/MSDK/cloud/alicloud/src/services/linkkit/dm\dm_message.c ****     }
 209              		.loc 1 63 16
 210 0072 7555     		li	a0,-3
 211              	.LVL25:
 212 0074 DDBF     		j	.L11
 213              		.cfi_endproc
 214              	.LFE24:
 216              		.section	.text.dm_msg_uri_parse_pkdn,"ax",@progbits
 217              		.align	1
 218              		.globl	dm_msg_uri_parse_pkdn
 220              	dm_msg_uri_parse_pkdn:
 221              	.LFB25:
  76:C:/Users/stapi/OneDrive/Desktop/GD32VW553/V1_MQTT_OK/GD32VW55X_Wifi_BLE_SDK/GD32VW55x_RELEASE_V1.0.2/MSDK/cloud/alicloud/src/services/linkkit/dm\dm_message.c **** 
  77:C:/Users/stapi/OneDrive/Desktop/GD32VW553/V1_MQTT_OK/GD32VW55X_Wifi_BLE_SDK/GD32VW55x_RELEASE_V1.0.2/MSDK/cloud/alicloud/src/services/linkkit/dm\dm_message.c **** int dm_msg_uri_parse_pkdn(_IN_ char *uri, _IN_ int uri_len, _IN_ int start_deli, _IN_ int end_deli,
  78:C:/Users/stapi/OneDrive/Desktop/GD32VW553/V1_MQTT_OK/GD32VW55X_Wifi_BLE_SDK/GD32VW55x_RELEASE_V1.0.2/MSDK/cloud/alicloud/src/services/linkkit/dm\dm_message.c ****                           _OU_ char product_key[PRODUCT_KEY_MAXLEN], _OU_ char device_name[DEVICE_N
  79:C:/Users/stapi/OneDrive/Desktop/GD32VW553/V1_MQTT_OK/GD32VW55X_Wifi_BLE_SDK/GD32VW55x_RELEASE_V1.0.2/MSDK/cloud/alicloud/src/services/linkkit/dm\dm_message.c **** {
 222              		.loc 1 79 1 is_stmt 1
 223              		.cfi_startproc
 224              	.LVL26:
 225 0000 17030000 		call	t0,__riscv_save_7
 225      E7020300 
 226              		.cfi_offset 22, -32
 227              		.cfi_offset 21, -28
 228              		.cfi_offset 20, -24
 229              		.cfi_offset 19, -20
 230              		.cfi_offset 18, -16
 231              		.cfi_offset 9, -12
 232              		.cfi_offset 8, -8
 233              		.cfi_offset 1, -4
 234              		.cfi_def_cfa_offset 32
  80:C:/Users/stapi/OneDrive/Desktop/GD32VW553/V1_MQTT_OK/GD32VW55X_Wifi_BLE_SDK/GD32VW55x_RELEASE_V1.0.2/MSDK/cloud/alicloud/src/services/linkkit/dm\dm_message.c ****     int res = 0, start = 0, end = 0, slice = 0;
 235              		.loc 1 80 5
 236              	.LVL27:
  79:C:/Users/stapi/OneDrive/Desktop/GD32VW553/V1_MQTT_OK/GD32VW55X_Wifi_BLE_SDK/GD32VW55x_RELEASE_V1.0.2/MSDK/cloud/alicloud/src/services/linkkit/dm\dm_message.c ****     int res = 0, start = 0, end = 0, slice = 0;
 237              		.loc 1 79 1 is_stmt 0
 238 0008 4111     		addi	sp,sp,-16
 239              		.cfi_def_cfa_offset 48
 240              		.loc 1 80 18
 241 000a 02C2     		sw	zero,4(sp)
 242              		.loc 1 80 29
 243 000c 02C4     		sw	zero,8(sp)
 244              		.loc 1 80 38
 245 000e 02C6     		sw	zero,12(sp)
  81:C:/Users/stapi/OneDrive/Desktop/GD32VW553/V1_MQTT_OK/GD32VW55X_Wifi_BLE_SDK/GD32VW55x_RELEASE_V1.0.2/MSDK/cloud/alicloud/src/services/linkkit/dm\dm_message.c **** 
  82:C:/Users/stapi/OneDrive/Desktop/GD32VW553/V1_MQTT_OK/GD32VW55X_Wifi_BLE_SDK/GD32VW55x_RELEASE_V1.0.2/MSDK/cloud/alicloud/src/services/linkkit/dm\dm_message.c ****     if (uri == NULL || uri_len <= 0 || product_key == NULL || device_name == NULL ||
 246              		.loc 1 82 5 is_stmt 1
  83:C:/Users/stapi/OneDrive/Desktop/GD32VW553/V1_MQTT_OK/GD32VW55X_Wifi_BLE_SDK/GD32VW55x_RELEASE_V1.0.2/MSDK/cloud/alicloud/src/services/linkkit/dm\dm_message.c ****         (strlen(product_key) >= PRODUCT_KEY_MAXLEN) || (strlen(device_name) >= DEVICE_NAME_MAXLEN))
  84:C:/Users/stapi/OneDrive/Desktop/GD32VW553/V1_MQTT_OK/GD32VW55X_Wifi_BLE_SDK/GD32VW55x_RELEASE_V1.0.2/MSDK/cloud/alicloud/src/services/linkkit/dm\dm_message.c ****         return DM_INVALID_PARAMETER;
 247              		.loc 1 84 16 is_stmt 0
 248 0010 7954     		li	s0,-2
  82:C:/Users/stapi/OneDrive/Desktop/GD32VW553/V1_MQTT_OK/GD32VW55X_Wifi_BLE_SDK/GD32VW55x_RELEASE_V1.0.2/MSDK/cloud/alicloud/src/services/linkkit/dm\dm_message.c ****         (strlen(product_key) >= PRODUCT_KEY_MAXLEN) || (strlen(device_name) >= DEVICE_NAME_MAXLEN))
 249              		.loc 1 82 8
 250 0012 29C9     		beq	a0,zero,.L18
 251 0014 2E89     		mv	s2,a1
 252              		.loc 1 84 16 discriminator 1
 253 0016 7954     		li	s0,-2
  82:C:/Users/stapi/OneDrive/Desktop/GD32VW553/V1_MQTT_OK/GD32VW55X_Wifi_BLE_SDK/GD32VW55x_RELEASE_V1.0.2/MSDK/cloud/alicloud/src/services/linkkit/dm\dm_message.c ****         (strlen(product_key) >= PRODUCT_KEY_MAXLEN) || (strlen(device_name) >= DEVICE_NAME_MAXLEN))
 254              		.loc 1 82 21 discriminator 1
 255 0018 6356B004 		ble	a1,zero,.L18
 256 001c 3A8A     		mv	s4,a4
  82:C:/Users/stapi/OneDrive/Desktop/GD32VW553/V1_MQTT_OK/GD32VW55X_Wifi_BLE_SDK/GD32VW55x_RELEASE_V1.0.2/MSDK/cloud/alicloud/src/services/linkkit/dm\dm_message.c ****         (strlen(product_key) >= PRODUCT_KEY_MAXLEN) || (strlen(device_name) >= DEVICE_NAME_MAXLEN))
 257              		.loc 1 82 37 discriminator 2
 258 001e 39C3     		beq	a4,zero,.L18
 259 0020 BE89     		mv	s3,a5
  82:C:/Users/stapi/OneDrive/Desktop/GD32VW553/V1_MQTT_OK/GD32VW55X_Wifi_BLE_SDK/GD32VW55x_RELEASE_V1.0.2/MSDK/cloud/alicloud/src/services/linkkit/dm\dm_message.c ****         (strlen(product_key) >= PRODUCT_KEY_MAXLEN) || (strlen(device_name) >= DEVICE_NAME_MAXLEN))
 260              		.loc 1 82 60 discriminator 3
 261 0022 A9C3     		beq	a5,zero,.L18
 262 0024 AA84     		mv	s1,a0
  83:C:/Users/stapi/OneDrive/Desktop/GD32VW553/V1_MQTT_OK/GD32VW55X_Wifi_BLE_SDK/GD32VW55x_RELEASE_V1.0.2/MSDK/cloud/alicloud/src/services/linkkit/dm\dm_message.c ****         (strlen(product_key) >= PRODUCT_KEY_MAXLEN) || (strlen(device_name) >= DEVICE_NAME_MAXLEN))
 263              		.loc 1 83 10 discriminator 4
 264 0026 3A85     		mv	a0,a4
 265              	.LVL28:
 266 0028 B28A     		mv	s5,a2
 267 002a 368B     		mv	s6,a3
 268 002c 97000000 		call	strlen
 268      E7800000 
 269              	.LVL29:
  82:C:/Users/stapi/OneDrive/Desktop/GD32VW553/V1_MQTT_OK/GD32VW55X_Wifi_BLE_SDK/GD32VW55x_RELEASE_V1.0.2/MSDK/cloud/alicloud/src/services/linkkit/dm\dm_message.c ****         (strlen(product_key) >= PRODUCT_KEY_MAXLEN) || (strlen(device_name) >= DEVICE_NAME_MAXLEN))
 270              		.loc 1 82 83 discriminator 4
 271 0034 D147     		li	a5,20
 272 0036 63E7A702 		bgtu	a0,a5,.L18
  83:C:/Users/stapi/OneDrive/Desktop/GD32VW553/V1_MQTT_OK/GD32VW55X_Wifi_BLE_SDK/GD32VW55x_RELEASE_V1.0.2/MSDK/cloud/alicloud/src/services/linkkit/dm\dm_message.c ****         (strlen(product_key) >= PRODUCT_KEY_MAXLEN) || (strlen(device_name) >= DEVICE_NAME_MAXLEN))
 273              		.loc 1 83 57
 274 003a 4E85     		mv	a0,s3
 275 003c 97000000 		call	strlen
 275      E7800000 
 276              	.LVL30:
  83:C:/Users/stapi/OneDrive/Desktop/GD32VW553/V1_MQTT_OK/GD32VW55X_Wifi_BLE_SDK/GD32VW55x_RELEASE_V1.0.2/MSDK/cloud/alicloud/src/services/linkkit/dm\dm_message.c ****         (strlen(product_key) >= PRODUCT_KEY_MAXLEN) || (strlen(device_name) >= DEVICE_NAME_MAXLEN))
 277              		.loc 1 83 53
 278 0044 93070002 		li	a5,32
 279 0048 63EEA700 		bgtu	a0,a5,.L18
  85:C:/Users/stapi/OneDrive/Desktop/GD32VW553/V1_MQTT_OK/GD32VW55X_Wifi_BLE_SDK/GD32VW55x_RELEASE_V1.0.2/MSDK/cloud/alicloud/src/services/linkkit/dm\dm_message.c ****     }
  86:C:/Users/stapi/OneDrive/Desktop/GD32VW553/V1_MQTT_OK/GD32VW55X_Wifi_BLE_SDK/GD32VW55x_RELEASE_V1.0.2/MSDK/cloud/alicloud/src/services/linkkit/dm\dm_message.c **** 
  87:C:/Users/stapi/OneDrive/Desktop/GD32VW553/V1_MQTT_OK/GD32VW55X_Wifi_BLE_SDK/GD32VW55x_RELEASE_V1.0.2/MSDK/cloud/alicloud/src/services/linkkit/dm\dm_message.c ****     res = dm_utils_memtok(uri, uri_len, DM_URI_SERVICE_DELIMITER, start_deli, &start);
 280              		.loc 1 87 5 is_stmt 1
 281              		.loc 1 87 11 is_stmt 0
 282 004c 5800     		addi	a4,sp,4
 283 004e D686     		mv	a3,s5
 284 0050 1306F002 		li	a2,47
 285 0054 CA85     		mv	a1,s2
 286 0056 2685     		mv	a0,s1
 287 0058 97000000 		call	dm_utils_memtok
 287      E7800000 
 288              	.LVL31:
  88:C:/Users/stapi/OneDrive/Desktop/GD32VW553/V1_MQTT_OK/GD32VW55X_Wifi_BLE_SDK/GD32VW55x_RELEASE_V1.0.2/MSDK/cloud/alicloud/src/services/linkkit/dm\dm_message.c ****     if (res != SUCCESS_RETURN) {
 289              		.loc 1 88 5 is_stmt 1
 290              		.loc 1 88 8 is_stmt 0
 291 0060 01C9     		beq	a0,zero,.L20
 292              	.L21:
  89:C:/Users/stapi/OneDrive/Desktop/GD32VW553/V1_MQTT_OK/GD32VW55X_Wifi_BLE_SDK/GD32VW55x_RELEASE_V1.0.2/MSDK/cloud/alicloud/src/services/linkkit/dm\dm_message.c ****         return FAIL_RETURN;
 293              		.loc 1 89 16
 294 0062 7D54     		li	s0,-1
 295              	.LVL32:
 296              	.L18:
  90:C:/Users/stapi/OneDrive/Desktop/GD32VW553/V1_MQTT_OK/GD32VW55X_Wifi_BLE_SDK/GD32VW55x_RELEASE_V1.0.2/MSDK/cloud/alicloud/src/services/linkkit/dm\dm_message.c ****     }
  91:C:/Users/stapi/OneDrive/Desktop/GD32VW553/V1_MQTT_OK/GD32VW55X_Wifi_BLE_SDK/GD32VW55x_RELEASE_V1.0.2/MSDK/cloud/alicloud/src/services/linkkit/dm\dm_message.c **** 
  92:C:/Users/stapi/OneDrive/Desktop/GD32VW553/V1_MQTT_OK/GD32VW55X_Wifi_BLE_SDK/GD32VW55x_RELEASE_V1.0.2/MSDK/cloud/alicloud/src/services/linkkit/dm\dm_message.c ****     res = dm_utils_memtok(uri, uri_len, DM_URI_SERVICE_DELIMITER, start_deli + 1, &slice);
  93:C:/Users/stapi/OneDrive/Desktop/GD32VW553/V1_MQTT_OK/GD32VW55X_Wifi_BLE_SDK/GD32VW55x_RELEASE_V1.0.2/MSDK/cloud/alicloud/src/services/linkkit/dm\dm_message.c ****     if (res != SUCCESS_RETURN) {
  94:C:/Users/stapi/OneDrive/Desktop/GD32VW553/V1_MQTT_OK/GD32VW55X_Wifi_BLE_SDK/GD32VW55x_RELEASE_V1.0.2/MSDK/cloud/alicloud/src/services/linkkit/dm\dm_message.c ****         return FAIL_RETURN;
  95:C:/Users/stapi/OneDrive/Desktop/GD32VW553/V1_MQTT_OK/GD32VW55X_Wifi_BLE_SDK/GD32VW55x_RELEASE_V1.0.2/MSDK/cloud/alicloud/src/services/linkkit/dm\dm_message.c ****     }
  96:C:/Users/stapi/OneDrive/Desktop/GD32VW553/V1_MQTT_OK/GD32VW55X_Wifi_BLE_SDK/GD32VW55x_RELEASE_V1.0.2/MSDK/cloud/alicloud/src/services/linkkit/dm\dm_message.c **** 
  97:C:/Users/stapi/OneDrive/Desktop/GD32VW553/V1_MQTT_OK/GD32VW55X_Wifi_BLE_SDK/GD32VW55x_RELEASE_V1.0.2/MSDK/cloud/alicloud/src/services/linkkit/dm\dm_message.c ****     res = dm_utils_memtok(uri, uri_len, DM_URI_SERVICE_DELIMITER, end_deli, &end);
  98:C:/Users/stapi/OneDrive/Desktop/GD32VW553/V1_MQTT_OK/GD32VW55X_Wifi_BLE_SDK/GD32VW55x_RELEASE_V1.0.2/MSDK/cloud/alicloud/src/services/linkkit/dm\dm_message.c ****     if (res != SUCCESS_RETURN) {
  99:C:/Users/stapi/OneDrive/Desktop/GD32VW553/V1_MQTT_OK/GD32VW55X_Wifi_BLE_SDK/GD32VW55x_RELEASE_V1.0.2/MSDK/cloud/alicloud/src/services/linkkit/dm\dm_message.c ****         return FAIL_RETURN;
 100:C:/Users/stapi/OneDrive/Desktop/GD32VW553/V1_MQTT_OK/GD32VW55X_Wifi_BLE_SDK/GD32VW55x_RELEASE_V1.0.2/MSDK/cloud/alicloud/src/services/linkkit/dm\dm_message.c ****     }
 101:C:/Users/stapi/OneDrive/Desktop/GD32VW553/V1_MQTT_OK/GD32VW55X_Wifi_BLE_SDK/GD32VW55x_RELEASE_V1.0.2/MSDK/cloud/alicloud/src/services/linkkit/dm\dm_message.c **** 
 102:C:/Users/stapi/OneDrive/Desktop/GD32VW553/V1_MQTT_OK/GD32VW55X_Wifi_BLE_SDK/GD32VW55x_RELEASE_V1.0.2/MSDK/cloud/alicloud/src/services/linkkit/dm\dm_message.c ****     /* dm_log_debug("URI Product Key: %.*s, Device Name: %.*s", slice - start - 1, uri + start + 1,
 103:C:/Users/stapi/OneDrive/Desktop/GD32VW553/V1_MQTT_OK/GD32VW55X_Wifi_BLE_SDK/GD32VW55x_RELEASE_V1.0.2/MSDK/cloud/alicloud/src/services/linkkit/dm\dm_message.c ****                  uri + slice + 1); */
 104:C:/Users/stapi/OneDrive/Desktop/GD32VW553/V1_MQTT_OK/GD32VW55X_Wifi_BLE_SDK/GD32VW55x_RELEASE_V1.0.2/MSDK/cloud/alicloud/src/services/linkkit/dm\dm_message.c **** 
 105:C:/Users/stapi/OneDrive/Desktop/GD32VW553/V1_MQTT_OK/GD32VW55X_Wifi_BLE_SDK/GD32VW55x_RELEASE_V1.0.2/MSDK/cloud/alicloud/src/services/linkkit/dm\dm_message.c ****     memcpy(product_key, uri + start + 1, slice - start - 1);
 106:C:/Users/stapi/OneDrive/Desktop/GD32VW553/V1_MQTT_OK/GD32VW55X_Wifi_BLE_SDK/GD32VW55x_RELEASE_V1.0.2/MSDK/cloud/alicloud/src/services/linkkit/dm\dm_message.c ****     memcpy(device_name, uri + slice + 1, end - slice - 1);
 107:C:/Users/stapi/OneDrive/Desktop/GD32VW553/V1_MQTT_OK/GD32VW55X_Wifi_BLE_SDK/GD32VW55x_RELEASE_V1.0.2/MSDK/cloud/alicloud/src/services/linkkit/dm\dm_message.c **** 
 108:C:/Users/stapi/OneDrive/Desktop/GD32VW553/V1_MQTT_OK/GD32VW55X_Wifi_BLE_SDK/GD32VW55x_RELEASE_V1.0.2/MSDK/cloud/alicloud/src/services/linkkit/dm\dm_message.c ****     return SUCCESS_RETURN;
 109:C:/Users/stapi/OneDrive/Desktop/GD32VW553/V1_MQTT_OK/GD32VW55X_Wifi_BLE_SDK/GD32VW55x_RELEASE_V1.0.2/MSDK/cloud/alicloud/src/services/linkkit/dm\dm_message.c **** }
 297              		.loc 1 109 1
 298 0064 2285     		mv	a0,s0
 299 0066 4101     		addi	sp,sp,16
 300              		.cfi_remember_state
 301              		.cfi_def_cfa_offset 0
 302 0068 17030000 		tail	__riscv_restore_7
 302      67000300 
 303              		.cfi_restore 22
 304              		.cfi_restore 21
 305              		.cfi_restore 20
 306              		.cfi_restore 19
 307              		.cfi_restore 18
 308              		.cfi_restore 9
 309              		.cfi_restore 8
 310              		.cfi_restore 1
 311              		.cfi_def_cfa_offset -32
 312              	.LVL33:
 313              	.L20:
 314              		.cfi_restore_state
  92:C:/Users/stapi/OneDrive/Desktop/GD32VW553/V1_MQTT_OK/GD32VW55X_Wifi_BLE_SDK/GD32VW55x_RELEASE_V1.0.2/MSDK/cloud/alicloud/src/services/linkkit/dm\dm_message.c ****     if (res != SUCCESS_RETURN) {
 315              		.loc 1 92 5 is_stmt 1
  92:C:/Users/stapi/OneDrive/Desktop/GD32VW553/V1_MQTT_OK/GD32VW55X_Wifi_BLE_SDK/GD32VW55x_RELEASE_V1.0.2/MSDK/cloud/alicloud/src/services/linkkit/dm\dm_message.c ****     if (res != SUCCESS_RETURN) {
 316              		.loc 1 92 11 is_stmt 0
 317 0070 7800     		addi	a4,sp,12
 318 0072 93861A00 		addi	a3,s5,1
 319 0076 1306F002 		li	a2,47
 320 007a CA85     		mv	a1,s2
 321 007c 2685     		mv	a0,s1
 322              	.LVL34:
 323 007e 97000000 		call	dm_utils_memtok
 323      E7800000 
 324              	.LVL35:
  93:C:/Users/stapi/OneDrive/Desktop/GD32VW553/V1_MQTT_OK/GD32VW55X_Wifi_BLE_SDK/GD32VW55x_RELEASE_V1.0.2/MSDK/cloud/alicloud/src/services/linkkit/dm\dm_message.c ****         return FAIL_RETURN;
 325              		.loc 1 93 5 is_stmt 1
  93:C:/Users/stapi/OneDrive/Desktop/GD32VW553/V1_MQTT_OK/GD32VW55X_Wifi_BLE_SDK/GD32VW55x_RELEASE_V1.0.2/MSDK/cloud/alicloud/src/services/linkkit/dm\dm_message.c ****         return FAIL_RETURN;
 326              		.loc 1 93 8 is_stmt 0
 327 0086 71FD     		bne	a0,zero,.L21
  97:C:/Users/stapi/OneDrive/Desktop/GD32VW553/V1_MQTT_OK/GD32VW55X_Wifi_BLE_SDK/GD32VW55x_RELEASE_V1.0.2/MSDK/cloud/alicloud/src/services/linkkit/dm\dm_message.c ****     if (res != SUCCESS_RETURN) {
 328              		.loc 1 97 5 is_stmt 1
  97:C:/Users/stapi/OneDrive/Desktop/GD32VW553/V1_MQTT_OK/GD32VW55X_Wifi_BLE_SDK/GD32VW55x_RELEASE_V1.0.2/MSDK/cloud/alicloud/src/services/linkkit/dm\dm_message.c ****     if (res != SUCCESS_RETURN) {
 329              		.loc 1 97 11 is_stmt 0
 330 0088 3800     		addi	a4,sp,8
 331 008a DA86     		mv	a3,s6
 332 008c 1306F002 		li	a2,47
 333 0090 CA85     		mv	a1,s2
 334 0092 2685     		mv	a0,s1
 335              	.LVL36:
 336 0094 97000000 		call	dm_utils_memtok
 336      E7800000 
 337              	.LVL37:
 338 009c 2A84     		mv	s0,a0
 339              	.LVL38:
  98:C:/Users/stapi/OneDrive/Desktop/GD32VW553/V1_MQTT_OK/GD32VW55X_Wifi_BLE_SDK/GD32VW55x_RELEASE_V1.0.2/MSDK/cloud/alicloud/src/services/linkkit/dm\dm_message.c ****         return FAIL_RETURN;
 340              		.loc 1 98 5 is_stmt 1
  98:C:/Users/stapi/OneDrive/Desktop/GD32VW553/V1_MQTT_OK/GD32VW55X_Wifi_BLE_SDK/GD32VW55x_RELEASE_V1.0.2/MSDK/cloud/alicloud/src/services/linkkit/dm\dm_message.c ****         return FAIL_RETURN;
 341              		.loc 1 98 8 is_stmt 0
 342 009e 71F1     		bne	a0,zero,.L21
 105:C:/Users/stapi/OneDrive/Desktop/GD32VW553/V1_MQTT_OK/GD32VW55X_Wifi_BLE_SDK/GD32VW55x_RELEASE_V1.0.2/MSDK/cloud/alicloud/src/services/linkkit/dm\dm_message.c ****     memcpy(device_name, uri + slice + 1, end - slice - 1);
 343              		.loc 1 105 5 is_stmt 1
 105:C:/Users/stapi/OneDrive/Desktop/GD32VW553/V1_MQTT_OK/GD32VW55X_Wifi_BLE_SDK/GD32VW55x_RELEASE_V1.0.2/MSDK/cloud/alicloud/src/services/linkkit/dm\dm_message.c ****     memcpy(device_name, uri + slice + 1, end - slice - 1);
 344              		.loc 1 105 48 is_stmt 0
 345 00a0 3249     		lw	s2,12(sp)
 346              	.LVL39:
 105:C:/Users/stapi/OneDrive/Desktop/GD32VW553/V1_MQTT_OK/GD32VW55X_Wifi_BLE_SDK/GD32VW55x_RELEASE_V1.0.2/MSDK/cloud/alicloud/src/services/linkkit/dm\dm_message.c ****     memcpy(device_name, uri + slice + 1, end - slice - 1);
 347              		.loc 1 105 37
 348 00a2 9245     		lw	a1,4(sp)
 105:C:/Users/stapi/OneDrive/Desktop/GD32VW553/V1_MQTT_OK/GD32VW55X_Wifi_BLE_SDK/GD32VW55x_RELEASE_V1.0.2/MSDK/cloud/alicloud/src/services/linkkit/dm\dm_message.c ****     memcpy(device_name, uri + slice + 1, end - slice - 1);
 349              		.loc 1 105 5
 350 00a4 5285     		mv	a0,s4
 105:C:/Users/stapi/OneDrive/Desktop/GD32VW553/V1_MQTT_OK/GD32VW55X_Wifi_BLE_SDK/GD32VW55x_RELEASE_V1.0.2/MSDK/cloud/alicloud/src/services/linkkit/dm\dm_message.c ****     memcpy(device_name, uri + slice + 1, end - slice - 1);
 351              		.loc 1 105 48
 352 00a6 3306B940 		sub	a2,s2,a1
 105:C:/Users/stapi/OneDrive/Desktop/GD32VW553/V1_MQTT_OK/GD32VW55X_Wifi_BLE_SDK/GD32VW55x_RELEASE_V1.0.2/MSDK/cloud/alicloud/src/services/linkkit/dm\dm_message.c ****     memcpy(device_name, uri + slice + 1, end - slice - 1);
 353              		.loc 1 105 37
 354 00aa 8505     		addi	a1,a1,1
 105:C:/Users/stapi/OneDrive/Desktop/GD32VW553/V1_MQTT_OK/GD32VW55X_Wifi_BLE_SDK/GD32VW55x_RELEASE_V1.0.2/MSDK/cloud/alicloud/src/services/linkkit/dm\dm_message.c ****     memcpy(device_name, uri + slice + 1, end - slice - 1);
 355              		.loc 1 105 5
 356 00ac A695     		add	a1,s1,a1
 357 00ae 7D16     		addi	a2,a2,-1
 358 00b0 97000000 		call	memcpy
 358      E7800000 
 359              	.LVL40:
 106:C:/Users/stapi/OneDrive/Desktop/GD32VW553/V1_MQTT_OK/GD32VW55X_Wifi_BLE_SDK/GD32VW55x_RELEASE_V1.0.2/MSDK/cloud/alicloud/src/services/linkkit/dm\dm_message.c **** 
 360              		.loc 1 106 5 is_stmt 1
 106:C:/Users/stapi/OneDrive/Desktop/GD32VW553/V1_MQTT_OK/GD32VW55X_Wifi_BLE_SDK/GD32VW55x_RELEASE_V1.0.2/MSDK/cloud/alicloud/src/services/linkkit/dm\dm_message.c **** 
 361              		.loc 1 106 46 is_stmt 0
 362 00b8 2246     		lw	a2,8(sp)
 106:C:/Users/stapi/OneDrive/Desktop/GD32VW553/V1_MQTT_OK/GD32VW55X_Wifi_BLE_SDK/GD32VW55x_RELEASE_V1.0.2/MSDK/cloud/alicloud/src/services/linkkit/dm\dm_message.c **** 
 363              		.loc 1 106 37
 364 00ba 93051900 		addi	a1,s2,1
 106:C:/Users/stapi/OneDrive/Desktop/GD32VW553/V1_MQTT_OK/GD32VW55X_Wifi_BLE_SDK/GD32VW55x_RELEASE_V1.0.2/MSDK/cloud/alicloud/src/services/linkkit/dm\dm_message.c **** 
 365              		.loc 1 106 5
 366 00be A695     		add	a1,s1,a1
 106:C:/Users/stapi/OneDrive/Desktop/GD32VW553/V1_MQTT_OK/GD32VW55X_Wifi_BLE_SDK/GD32VW55x_RELEASE_V1.0.2/MSDK/cloud/alicloud/src/services/linkkit/dm\dm_message.c **** 
 367              		.loc 1 106 46
 368 00c0 33062641 		sub	a2,a2,s2
 106:C:/Users/stapi/OneDrive/Desktop/GD32VW553/V1_MQTT_OK/GD32VW55X_Wifi_BLE_SDK/GD32VW55x_RELEASE_V1.0.2/MSDK/cloud/alicloud/src/services/linkkit/dm\dm_message.c **** 
 369              		.loc 1 106 5
 370 00c4 7D16     		addi	a2,a2,-1
 371 00c6 4E85     		mv	a0,s3
 372 00c8 97000000 		call	memcpy
 372      E7800000 
 373              	.LVL41:
 108:C:/Users/stapi/OneDrive/Desktop/GD32VW553/V1_MQTT_OK/GD32VW55X_Wifi_BLE_SDK/GD32VW55x_RELEASE_V1.0.2/MSDK/cloud/alicloud/src/services/linkkit/dm\dm_message.c **** }
 374              		.loc 1 108 5 is_stmt 1
 108:C:/Users/stapi/OneDrive/Desktop/GD32VW553/V1_MQTT_OK/GD32VW55X_Wifi_BLE_SDK/GD32VW55x_RELEASE_V1.0.2/MSDK/cloud/alicloud/src/services/linkkit/dm\dm_message.c **** }
 375              		.loc 1 108 12 is_stmt 0
 376 00d0 51BF     		j	.L18
 377              		.cfi_endproc
 378              	.LFE25:
 380              		.section	.rodata.dm_msg_request_parse.str1.4,"aMS",@progbits,1
 381              		.align	2
 382              	.LC0:
 383 0000 5B696E66 		.string	"[inf] "
 383      5D2000
 384 0007 00       		.align	2
 385              	.LC1:
 386 0008 6B6B6B3A 		.string	"kkk: len=%d %.*s"
 386      206C656E 
 386      3D256420 
 386      252E2A73 
 386      00
 387 0019 000000   		.align	2
 388              	.LC2:
 389 001c 0D0A00   		.string	"\r\n"
 390 001f 00       		.align	2
 391              	.LC3:
 392 0020 696400   		.string	"id"
 393 0023 00       		.align	2
 394              	.LC4:
 395 0024 76657273 		.string	"version"
 395      696F6E00 
 396              		.align	2
 397              	.LC5:
 398 002c 6D657468 		.string	"method"
 398      6F6400
 399 0033 00       		.align	2
 400              	.LC6:
 401 0034 70617261 		.string	"params"
 401      6D7300
 402 003b 00       		.align	2
 403              	.LC7:
 404 003c 43757272 		.string	"Current Request Message ID: %.*s"
 404      656E7420 
 404      52657175 
 404      65737420 
 404      4D657373 
 405 005d 000000   		.align	2
 406              	.LC8:
 407 0060 444D00   		.string	"DM"
 408 0063 00       		.align	2
 409              	.LC9:
 410 0064 43757272 		.string	"Current Request Message Version: %.*s"
 410      656E7420 
 410      52657175 
 410      65737420 
 410      4D657373 
 411 008a 0000     		.align	2
 412              	.LC10:
 413 008c 43757272 		.string	"Current Request Message Method: %.*s"
 413      656E7420 
 413      52657175 
 413      65737420 
 413      4D657373 
 414 00b1 000000   		.align	2
 415              	.LC11:
 416 00b4 43757272 		.string	"Current Request Message Params: %.*s"
 416      656E7420 
 416      52657175 
 416      65737420 
 416      4D657373 
 417              		.section	.text.dm_msg_request_parse,"ax",@progbits
 418              		.align	1
 419              		.globl	dm_msg_request_parse
 421              	dm_msg_request_parse:
 422              	.LFB26:
 110:C:/Users/stapi/OneDrive/Desktop/GD32VW553/V1_MQTT_OK/GD32VW55X_Wifi_BLE_SDK/GD32VW55x_RELEASE_V1.0.2/MSDK/cloud/alicloud/src/services/linkkit/dm\dm_message.c **** 
 111:C:/Users/stapi/OneDrive/Desktop/GD32VW553/V1_MQTT_OK/GD32VW55X_Wifi_BLE_SDK/GD32VW55x_RELEASE_V1.0.2/MSDK/cloud/alicloud/src/services/linkkit/dm\dm_message.c **** int dm_msg_request_parse(_IN_ char *payload, _IN_ int payload_len, _OU_ dm_msg_request_payload_t *r
 112:C:/Users/stapi/OneDrive/Desktop/GD32VW553/V1_MQTT_OK/GD32VW55X_Wifi_BLE_SDK/GD32VW55x_RELEASE_V1.0.2/MSDK/cloud/alicloud/src/services/linkkit/dm\dm_message.c **** {
 423              		.loc 1 112 1 is_stmt 1
 424              		.cfi_startproc
 425              	.LVL42:
 426 0000 17030000 		call	t0,__riscv_save_4
 426      E7020300 
 427              		.cfi_offset 19, -20
 428              		.cfi_offset 18, -16
 429              		.cfi_offset 9, -12
 430              		.cfi_offset 8, -8
 431              		.cfi_offset 1, -4
 432              		.cfi_def_cfa_offset 32
 113:C:/Users/stapi/OneDrive/Desktop/GD32VW553/V1_MQTT_OK/GD32VW55X_Wifi_BLE_SDK/GD32VW55x_RELEASE_V1.0.2/MSDK/cloud/alicloud/src/services/linkkit/dm\dm_message.c ****     lite_cjson_t lite;
 433              		.loc 1 113 5
 114:C:/Users/stapi/OneDrive/Desktop/GD32VW553/V1_MQTT_OK/GD32VW55X_Wifi_BLE_SDK/GD32VW55x_RELEASE_V1.0.2/MSDK/cloud/alicloud/src/services/linkkit/dm\dm_message.c **** 
 115:C:/Users/stapi/OneDrive/Desktop/GD32VW553/V1_MQTT_OK/GD32VW55X_Wifi_BLE_SDK/GD32VW55x_RELEASE_V1.0.2/MSDK/cloud/alicloud/src/services/linkkit/dm\dm_message.c ****     if (payload == NULL || payload_len <= 0 || request == NULL) {
 434              		.loc 1 115 5
 112:C:/Users/stapi/OneDrive/Desktop/GD32VW553/V1_MQTT_OK/GD32VW55X_Wifi_BLE_SDK/GD32VW55x_RELEASE_V1.0.2/MSDK/cloud/alicloud/src/services/linkkit/dm\dm_message.c ****     lite_cjson_t lite;
 435              		.loc 1 112 1 is_stmt 0
 436 0008 0111     		addi	sp,sp,-32
 437              		.cfi_def_cfa_offset 64
 116:C:/Users/stapi/OneDrive/Desktop/GD32VW553/V1_MQTT_OK/GD32VW55X_Wifi_BLE_SDK/GD32VW55x_RELEASE_V1.0.2/MSDK/cloud/alicloud/src/services/linkkit/dm\dm_message.c ****         return DM_INVALID_PARAMETER;
 438              		.loc 1 116 16
 439 000a F954     		li	s1,-2
 115:C:/Users/stapi/OneDrive/Desktop/GD32VW553/V1_MQTT_OK/GD32VW55X_Wifi_BLE_SDK/GD32VW55x_RELEASE_V1.0.2/MSDK/cloud/alicloud/src/services/linkkit/dm\dm_message.c ****         return DM_INVALID_PARAMETER;
 440              		.loc 1 115 8
 441 000c 21CD     		beq	a0,zero,.L29
 442 000e AE89     		mv	s3,a1
 443              		.loc 1 116 16 discriminator 1
 444 0010 F954     		li	s1,-2
 115:C:/Users/stapi/OneDrive/Desktop/GD32VW553/V1_MQTT_OK/GD32VW55X_Wifi_BLE_SDK/GD32VW55x_RELEASE_V1.0.2/MSDK/cloud/alicloud/src/services/linkkit/dm\dm_message.c ****         return DM_INVALID_PARAMETER;
 445              		.loc 1 115 25 discriminator 1
 446 0012 6359B004 		ble	a1,zero,.L29
 447 0016 3284     		mv	s0,a2
 115:C:/Users/stapi/OneDrive/Desktop/GD32VW553/V1_MQTT_OK/GD32VW55X_Wifi_BLE_SDK/GD32VW55x_RELEASE_V1.0.2/MSDK/cloud/alicloud/src/services/linkkit/dm\dm_message.c ****         return DM_INVALID_PARAMETER;
 448              		.loc 1 115 45 discriminator 2
 449 0018 31C6     		beq	a2,zero,.L29
 117:C:/Users/stapi/OneDrive/Desktop/GD32VW553/V1_MQTT_OK/GD32VW55X_Wifi_BLE_SDK/GD32VW55x_RELEASE_V1.0.2/MSDK/cloud/alicloud/src/services/linkkit/dm\dm_message.c ****     }
 118:C:/Users/stapi/OneDrive/Desktop/GD32VW553/V1_MQTT_OK/GD32VW55X_Wifi_BLE_SDK/GD32VW55x_RELEASE_V1.0.2/MSDK/cloud/alicloud/src/services/linkkit/dm\dm_message.c **** 
 119:C:/Users/stapi/OneDrive/Desktop/GD32VW553/V1_MQTT_OK/GD32VW55X_Wifi_BLE_SDK/GD32VW55x_RELEASE_V1.0.2/MSDK/cloud/alicloud/src/services/linkkit/dm\dm_message.c ****     if (dm_utils_json_parse(payload, payload_len, cJSON_Object, &lite) != SUCCESS_RETURN ||
 450              		.loc 1 119 9
 451 001a 8A86     		mv	a3,sp
 452 001c 13060004 		li	a2,64
 453              	.LVL43:
 454 0020 2A89     		mv	s2,a0
 455              		.loc 1 119 5 is_stmt 1
 456              		.loc 1 119 9 is_stmt 0
 457 0022 97000000 		call	dm_utils_json_parse
 457      E7800000 
 458              	.LVL44:
 459              		.loc 1 119 8
 460 002a 39C1     		beq	a0,zero,.L31
 461              	.L32:
 120:C:/Users/stapi/OneDrive/Desktop/GD32VW553/V1_MQTT_OK/GD32VW55X_Wifi_BLE_SDK/GD32VW55x_RELEASE_V1.0.2/MSDK/cloud/alicloud/src/services/linkkit/dm\dm_message.c ****         dm_utils_json_object_item(&lite, DM_MSG_KEY_ID, strlen(DM_MSG_KEY_ID), cJSON_String, &reque
 121:C:/Users/stapi/OneDrive/Desktop/GD32VW553/V1_MQTT_OK/GD32VW55X_Wifi_BLE_SDK/GD32VW55x_RELEASE_V1.0.2/MSDK/cloud/alicloud/src/services/linkkit/dm\dm_message.c ****         dm_utils_json_object_item(&lite, DM_MSG_KEY_VERSION, strlen(DM_MSG_KEY_VERSION), cJSON_Stri
 122:C:/Users/stapi/OneDrive/Desktop/GD32VW553/V1_MQTT_OK/GD32VW55X_Wifi_BLE_SDK/GD32VW55x_RELEASE_V1.0.2/MSDK/cloud/alicloud/src/services/linkkit/dm\dm_message.c ****                                   &request->version) != SUCCESS_RETURN ||
 123:C:/Users/stapi/OneDrive/Desktop/GD32VW553/V1_MQTT_OK/GD32VW55X_Wifi_BLE_SDK/GD32VW55x_RELEASE_V1.0.2/MSDK/cloud/alicloud/src/services/linkkit/dm\dm_message.c ****         dm_utils_json_object_item(&lite, DM_MSG_KEY_METHOD, strlen(DM_MSG_KEY_METHOD), cJSON_String
 124:C:/Users/stapi/OneDrive/Desktop/GD32VW553/V1_MQTT_OK/GD32VW55X_Wifi_BLE_SDK/GD32VW55x_RELEASE_V1.0.2/MSDK/cloud/alicloud/src/services/linkkit/dm\dm_message.c ****                                   &request->method) != SUCCESS_RETURN ||
 125:C:/Users/stapi/OneDrive/Desktop/GD32VW553/V1_MQTT_OK/GD32VW55X_Wifi_BLE_SDK/GD32VW55x_RELEASE_V1.0.2/MSDK/cloud/alicloud/src/services/linkkit/dm\dm_message.c ****         dm_utils_json_object_item(&lite, DM_MSG_KEY_PARAMS, strlen(DM_MSG_KEY_PARAMS), cJSON_Invali
 126:C:/Users/stapi/OneDrive/Desktop/GD32VW553/V1_MQTT_OK/GD32VW55X_Wifi_BLE_SDK/GD32VW55x_RELEASE_V1.0.2/MSDK/cloud/alicloud/src/services/linkkit/dm\dm_message.c ****                                   &request->params) != SUCCESS_RETURN) {
 127:C:/Users/stapi/OneDrive/Desktop/GD32VW553/V1_MQTT_OK/GD32VW55X_Wifi_BLE_SDK/GD32VW55x_RELEASE_V1.0.2/MSDK/cloud/alicloud/src/services/linkkit/dm\dm_message.c ****         dm_log_info("kkk: len=%d %.*s", payload_len, payload_len, payload);
 462              		.loc 1 127 9 is_stmt 1
 463              		.loc 1 127 9
 464 002c 37050000 		lui	a0,%hi(.LC0)
 465 0030 13050500 		addi	a0,a0,%lo(.LC0)
 466 0034 97000000 		call	HAL_Printf
 466      E7800000 
 467              	.LVL45:
 468              		.loc 1 127 9
 469 003c 37050000 		lui	a0,%hi(.LC1)
 470 0040 CA86     		mv	a3,s2
 471 0042 4E86     		mv	a2,s3
 472 0044 CE85     		mv	a1,s3
 473 0046 13050500 		addi	a0,a0,%lo(.LC1)
 474 004a 97000000 		call	HAL_Printf
 474      E7800000 
 475              	.LVL46:
 476              		.loc 1 127 9
 477 0052 37050000 		lui	a0,%hi(.LC2)
 478 0056 13050500 		addi	a0,a0,%lo(.LC2)
 479 005a 97000000 		call	HAL_Printf
 479      E7800000 
 480              	.LVL47:
 481              		.loc 1 127 9
 128:C:/Users/stapi/OneDrive/Desktop/GD32VW553/V1_MQTT_OK/GD32VW55X_Wifi_BLE_SDK/GD32VW55x_RELEASE_V1.0.2/MSDK/cloud/alicloud/src/services/linkkit/dm\dm_message.c ****         return FAIL_RETURN;
 482              		.loc 1 128 9
 483              		.loc 1 128 16 is_stmt 0
 484 0062 FD54     		li	s1,-1
 485              	.LVL48:
 486              	.L29:
 129:C:/Users/stapi/OneDrive/Desktop/GD32VW553/V1_MQTT_OK/GD32VW55X_Wifi_BLE_SDK/GD32VW55x_RELEASE_V1.0.2/MSDK/cloud/alicloud/src/services/linkkit/dm\dm_message.c ****     }
 130:C:/Users/stapi/OneDrive/Desktop/GD32VW553/V1_MQTT_OK/GD32VW55X_Wifi_BLE_SDK/GD32VW55x_RELEASE_V1.0.2/MSDK/cloud/alicloud/src/services/linkkit/dm\dm_message.c **** 
 131:C:/Users/stapi/OneDrive/Desktop/GD32VW553/V1_MQTT_OK/GD32VW55X_Wifi_BLE_SDK/GD32VW55x_RELEASE_V1.0.2/MSDK/cloud/alicloud/src/services/linkkit/dm\dm_message.c ****     dm_log_debug("Current Request Message ID: %.*s", request->id.value_length, request->id.value);
 132:C:/Users/stapi/OneDrive/Desktop/GD32VW553/V1_MQTT_OK/GD32VW55X_Wifi_BLE_SDK/GD32VW55x_RELEASE_V1.0.2/MSDK/cloud/alicloud/src/services/linkkit/dm\dm_message.c ****     dm_log_debug("Current Request Message Version: %.*s", request->version.value_length, request->v
 133:C:/Users/stapi/OneDrive/Desktop/GD32VW553/V1_MQTT_OK/GD32VW55X_Wifi_BLE_SDK/GD32VW55x_RELEASE_V1.0.2/MSDK/cloud/alicloud/src/services/linkkit/dm\dm_message.c ****     dm_log_debug("Current Request Message Method: %.*s", request->method.value_length, request->met
 134:C:/Users/stapi/OneDrive/Desktop/GD32VW553/V1_MQTT_OK/GD32VW55X_Wifi_BLE_SDK/GD32VW55x_RELEASE_V1.0.2/MSDK/cloud/alicloud/src/services/linkkit/dm\dm_message.c ****     dm_log_debug("Current Request Message Params: %.*s", request->params.value_length, request->par
 135:C:/Users/stapi/OneDrive/Desktop/GD32VW553/V1_MQTT_OK/GD32VW55X_Wifi_BLE_SDK/GD32VW55x_RELEASE_V1.0.2/MSDK/cloud/alicloud/src/services/linkkit/dm\dm_message.c **** 
 136:C:/Users/stapi/OneDrive/Desktop/GD32VW553/V1_MQTT_OK/GD32VW55X_Wifi_BLE_SDK/GD32VW55x_RELEASE_V1.0.2/MSDK/cloud/alicloud/src/services/linkkit/dm\dm_message.c ****     return SUCCESS_RETURN;
 137:C:/Users/stapi/OneDrive/Desktop/GD32VW553/V1_MQTT_OK/GD32VW55X_Wifi_BLE_SDK/GD32VW55x_RELEASE_V1.0.2/MSDK/cloud/alicloud/src/services/linkkit/dm\dm_message.c **** }
 487              		.loc 1 137 1
 488 0064 2685     		mv	a0,s1
 489 0066 0561     		addi	sp,sp,32
 490              		.cfi_remember_state
 491              		.cfi_def_cfa_offset 0
 492 0068 17030000 		tail	__riscv_restore_4
 492      67000300 
 493              		.cfi_restore 19
 494              		.cfi_restore 18
 495              		.cfi_restore 9
 496              		.cfi_restore 8
 497              		.cfi_restore 1
 498              		.cfi_def_cfa_offset -32
 499              	.LVL49:
 500              	.L31:
 501              		.cfi_restore_state
 120:C:/Users/stapi/OneDrive/Desktop/GD32VW553/V1_MQTT_OK/GD32VW55X_Wifi_BLE_SDK/GD32VW55x_RELEASE_V1.0.2/MSDK/cloud/alicloud/src/services/linkkit/dm\dm_message.c ****         dm_utils_json_object_item(&lite, DM_MSG_KEY_VERSION, strlen(DM_MSG_KEY_VERSION), cJSON_Stri
 502              		.loc 1 120 9 discriminator 1
 503 0070 B7050000 		lui	a1,%hi(.LC3)
 504 0074 2287     		mv	a4,s0
 505 0076 C146     		li	a3,16
 506 0078 0946     		li	a2,2
 507 007a 93850500 		addi	a1,a1,%lo(.LC3)
 508 007e 0A85     		mv	a0,sp
 509 0080 97000000 		call	dm_utils_json_object_item
 509      E7800000 
 510              	.LVL50:
 119:C:/Users/stapi/OneDrive/Desktop/GD32VW553/V1_MQTT_OK/GD32VW55X_Wifi_BLE_SDK/GD32VW55x_RELEASE_V1.0.2/MSDK/cloud/alicloud/src/services/linkkit/dm\dm_message.c ****         dm_utils_json_object_item(&lite, DM_MSG_KEY_ID, strlen(DM_MSG_KEY_ID), cJSON_String, &reque
 511              		.loc 1 119 90 discriminator 1
 512 0088 55F1     		bne	a0,zero,.L32
 121:C:/Users/stapi/OneDrive/Desktop/GD32VW553/V1_MQTT_OK/GD32VW55X_Wifi_BLE_SDK/GD32VW55x_RELEASE_V1.0.2/MSDK/cloud/alicloud/src/services/linkkit/dm\dm_message.c ****                                   &request->version) != SUCCESS_RETURN ||
 513              		.loc 1 121 9
 514 008a B7050000 		lui	a1,%hi(.LC4)
 515 008e 13070402 		addi	a4,s0,32
 516 0092 C146     		li	a3,16
 517 0094 1D46     		li	a2,7
 518 0096 93850500 		addi	a1,a1,%lo(.LC4)
 519 009a 0A85     		mv	a0,sp
 520 009c 97000000 		call	dm_utils_json_object_item
 520      E7800000 
 521              	.LVL51:
 120:C:/Users/stapi/OneDrive/Desktop/GD32VW553/V1_MQTT_OK/GD32VW55X_Wifi_BLE_SDK/GD32VW55x_RELEASE_V1.0.2/MSDK/cloud/alicloud/src/services/linkkit/dm\dm_message.c ****         dm_utils_json_object_item(&lite, DM_MSG_KEY_VERSION, strlen(DM_MSG_KEY_VERSION), cJSON_Stri
 522              		.loc 1 120 126
 523 00a4 41F5     		bne	a0,zero,.L32
 123:C:/Users/stapi/OneDrive/Desktop/GD32VW553/V1_MQTT_OK/GD32VW55X_Wifi_BLE_SDK/GD32VW55x_RELEASE_V1.0.2/MSDK/cloud/alicloud/src/services/linkkit/dm\dm_message.c ****                                   &request->method) != SUCCESS_RETURN ||
 524              		.loc 1 123 9
 525 00a6 B7050000 		lui	a1,%hi(.LC5)
 526 00aa 13070404 		addi	a4,s0,64
 527 00ae C146     		li	a3,16
 528 00b0 1946     		li	a2,6
 529 00b2 93850500 		addi	a1,a1,%lo(.LC5)
 530 00b6 0A85     		mv	a0,sp
 531 00b8 97000000 		call	dm_utils_json_object_item
 531      E7800000 
 532              	.LVL52:
 122:C:/Users/stapi/OneDrive/Desktop/GD32VW553/V1_MQTT_OK/GD32VW55X_Wifi_BLE_SDK/GD32VW55x_RELEASE_V1.0.2/MSDK/cloud/alicloud/src/services/linkkit/dm\dm_message.c ****         dm_utils_json_object_item(&lite, DM_MSG_KEY_METHOD, strlen(DM_MSG_KEY_METHOD), cJSON_String
 533              		.loc 1 122 72
 534 00c0 35F5     		bne	a0,zero,.L32
 125:C:/Users/stapi/OneDrive/Desktop/GD32VW553/V1_MQTT_OK/GD32VW55X_Wifi_BLE_SDK/GD32VW55x_RELEASE_V1.0.2/MSDK/cloud/alicloud/src/services/linkkit/dm\dm_message.c ****                                   &request->params) != SUCCESS_RETURN) {
 535              		.loc 1 125 9
 536 00c2 B7050000 		lui	a1,%hi(.LC6)
 537 00c6 13070406 		addi	a4,s0,96
 538 00ca 8146     		li	a3,0
 539 00cc 1946     		li	a2,6
 540 00ce 93850500 		addi	a1,a1,%lo(.LC6)
 541 00d2 0A85     		mv	a0,sp
 542 00d4 97000000 		call	dm_utils_json_object_item
 542      E7800000 
 543              	.LVL53:
 544 00dc AA84     		mv	s1,a0
 124:C:/Users/stapi/OneDrive/Desktop/GD32VW553/V1_MQTT_OK/GD32VW55X_Wifi_BLE_SDK/GD32VW55x_RELEASE_V1.0.2/MSDK/cloud/alicloud/src/services/linkkit/dm\dm_message.c ****         dm_utils_json_object_item(&lite, DM_MSG_KEY_PARAMS, strlen(DM_MSG_KEY_PARAMS), cJSON_Invali
 545              		.loc 1 124 71
 546 00de 39F5     		bne	a0,zero,.L32
 131:C:/Users/stapi/OneDrive/Desktop/GD32VW553/V1_MQTT_OK/GD32VW55X_Wifi_BLE_SDK/GD32VW55x_RELEASE_V1.0.2/MSDK/cloud/alicloud/src/services/linkkit/dm\dm_message.c ****     dm_log_debug("Current Request Message Version: %.*s", request->version.value_length, request->v
 547              		.loc 1 131 5 is_stmt 1
 548 00e0 03284400 		lw	a6,4(s0)
 549 00e4 1C44     		lw	a5,8(s0)
 550 00e6 B7090000 		lui	s3,%hi(.LANCHOR2)
 551              	.LVL54:
 552 00ea 37090000 		lui	s2,%hi(.LC8)
 553              	.LVL55:
 554 00ee 37070000 		lui	a4,%hi(.LC7)
 555 00f2 93850900 		addi	a1,s3,%lo(.LANCHOR2)
 556 00f6 13050900 		addi	a0,s2,%lo(.LC8)
 557 00fa 13070700 		addi	a4,a4,%lo(.LC7)
 558 00fe 9546     		li	a3,5
 559 0100 13063008 		li	a2,131
 560 0104 97000000 		call	LITE_syslog
 560      E7800000 
 561              	.LVL56:
 132:C:/Users/stapi/OneDrive/Desktop/GD32VW553/V1_MQTT_OK/GD32VW55X_Wifi_BLE_SDK/GD32VW55x_RELEASE_V1.0.2/MSDK/cloud/alicloud/src/services/linkkit/dm\dm_message.c ****     dm_log_debug("Current Request Message Method: %.*s", request->method.value_length, request->met
 562              		.loc 1 132 5
 563 010c 03284402 		lw	a6,36(s0)
 564 0110 1C54     		lw	a5,40(s0)
 565 0112 37070000 		lui	a4,%hi(.LC9)
 566 0116 93850900 		addi	a1,s3,%lo(.LANCHOR2)
 567 011a 13050900 		addi	a0,s2,%lo(.LC8)
 568 011e 13070700 		addi	a4,a4,%lo(.LC9)
 569 0122 9546     		li	a3,5
 570 0124 13064008 		li	a2,132
 571 0128 97000000 		call	LITE_syslog
 571      E7800000 
 572              	.LVL57:
 133:C:/Users/stapi/OneDrive/Desktop/GD32VW553/V1_MQTT_OK/GD32VW55X_Wifi_BLE_SDK/GD32VW55x_RELEASE_V1.0.2/MSDK/cloud/alicloud/src/services/linkkit/dm\dm_message.c ****     dm_log_debug("Current Request Message Params: %.*s", request->params.value_length, request->par
 573              		.loc 1 133 5
 574 0130 03284404 		lw	a6,68(s0)
 575 0134 3C44     		lw	a5,72(s0)
 576 0136 37070000 		lui	a4,%hi(.LC10)
 577 013a 93850900 		addi	a1,s3,%lo(.LANCHOR2)
 578 013e 13050900 		addi	a0,s2,%lo(.LC8)
 579 0142 13070700 		addi	a4,a4,%lo(.LC10)
 580 0146 9546     		li	a3,5
 581 0148 13065008 		li	a2,133
 582 014c 97000000 		call	LITE_syslog
 582      E7800000 
 583              	.LVL58:
 134:C:/Users/stapi/OneDrive/Desktop/GD32VW553/V1_MQTT_OK/GD32VW55X_Wifi_BLE_SDK/GD32VW55x_RELEASE_V1.0.2/MSDK/cloud/alicloud/src/services/linkkit/dm\dm_message.c **** 
 584              		.loc 1 134 5
 585 0154 03284406 		lw	a6,100(s0)
 586 0158 3C54     		lw	a5,104(s0)
 587 015a 37070000 		lui	a4,%hi(.LC11)
 588 015e 13070700 		addi	a4,a4,%lo(.LC11)
 589 0162 9546     		li	a3,5
 590 0164 13066008 		li	a2,134
 591 0168 93850900 		addi	a1,s3,%lo(.LANCHOR2)
 592 016c 13050900 		addi	a0,s2,%lo(.LC8)
 593 0170 97000000 		call	LITE_syslog
 593      E7800000 
 594              	.LVL59:
 136:C:/Users/stapi/OneDrive/Desktop/GD32VW553/V1_MQTT_OK/GD32VW55X_Wifi_BLE_SDK/GD32VW55x_RELEASE_V1.0.2/MSDK/cloud/alicloud/src/services/linkkit/dm\dm_message.c **** }
 595              		.loc 1 136 5
 136:C:/Users/stapi/OneDrive/Desktop/GD32VW553/V1_MQTT_OK/GD32VW55X_Wifi_BLE_SDK/GD32VW55x_RELEASE_V1.0.2/MSDK/cloud/alicloud/src/services/linkkit/dm\dm_message.c **** }
 596              		.loc 1 136 12 is_stmt 0
 597 0178 F5B5     		j	.L29
 598              		.cfi_endproc
 599              	.LFE26:
 601              		.section	.rodata.dm_msg_response_parse.str1.4,"aMS",@progbits,1
 602              		.align	2
 603              	.LC12:
 604 0000 636F6465 		.string	"code"
 604      00
 605 0005 000000   		.align	2
 606              	.LC13:
 607 0008 64617461 		.string	"data"
 607      00
 608 000d 000000   		.align	2
 609              	.LC14:
 610 0010 43757272 		.string	"Current Request Message Code: %d"
 610      656E7420 
 610      52657175 
 610      65737420 
 610      4D657373 
 611 0031 000000   		.align	2
 612              	.LC15:
 613 0034 43757272 		.string	"Current Request Message Data: %.*s"
 613      656E7420 
 613      52657175 
 613      65737420 
 613      4D657373 
 614 0057 00       		.align	2
 615              	.LC16:
 616 0058 6D657373 		.string	"message"
 616      61676500 
 617              		.align	2
 618              	.LC17:
 619 0060 43757272 		.string	"Current Request Message Desc: %.*s"
 619      656E7420 
 619      52657175 
 619      65737420 
 619      4D657373 
 620              		.section	.text.dm_msg_response_parse,"ax",@progbits
 621              		.align	1
 622              		.globl	dm_msg_response_parse
 624              	dm_msg_response_parse:
 625              	.LFB27:
 138:C:/Users/stapi/OneDrive/Desktop/GD32VW553/V1_MQTT_OK/GD32VW55X_Wifi_BLE_SDK/GD32VW55x_RELEASE_V1.0.2/MSDK/cloud/alicloud/src/services/linkkit/dm\dm_message.c **** 
 139:C:/Users/stapi/OneDrive/Desktop/GD32VW553/V1_MQTT_OK/GD32VW55X_Wifi_BLE_SDK/GD32VW55x_RELEASE_V1.0.2/MSDK/cloud/alicloud/src/services/linkkit/dm\dm_message.c **** int dm_msg_response_parse(_IN_ char *payload, _IN_ int payload_len, _OU_ dm_msg_response_payload_t 
 140:C:/Users/stapi/OneDrive/Desktop/GD32VW553/V1_MQTT_OK/GD32VW55X_Wifi_BLE_SDK/GD32VW55x_RELEASE_V1.0.2/MSDK/cloud/alicloud/src/services/linkkit/dm\dm_message.c **** {
 626              		.loc 1 140 1 is_stmt 1
 627              		.cfi_startproc
 628              	.LVL60:
 629 0000 17030000 		call	t0,__riscv_save_4
 629      E7020300 
 630              		.cfi_offset 19, -20
 631              		.cfi_offset 18, -16
 632              		.cfi_offset 9, -12
 633              		.cfi_offset 8, -8
 634              		.cfi_offset 1, -4
 635              		.cfi_def_cfa_offset 32
 141:C:/Users/stapi/OneDrive/Desktop/GD32VW553/V1_MQTT_OK/GD32VW55X_Wifi_BLE_SDK/GD32VW55x_RELEASE_V1.0.2/MSDK/cloud/alicloud/src/services/linkkit/dm\dm_message.c ****     lite_cjson_t lite, lite_message;
 636              		.loc 1 141 5
 142:C:/Users/stapi/OneDrive/Desktop/GD32VW553/V1_MQTT_OK/GD32VW55X_Wifi_BLE_SDK/GD32VW55x_RELEASE_V1.0.2/MSDK/cloud/alicloud/src/services/linkkit/dm\dm_message.c **** 
 143:C:/Users/stapi/OneDrive/Desktop/GD32VW553/V1_MQTT_OK/GD32VW55X_Wifi_BLE_SDK/GD32VW55x_RELEASE_V1.0.2/MSDK/cloud/alicloud/src/services/linkkit/dm\dm_message.c ****     if (payload == NULL || payload_len <= 0 || response == NULL) {
 637              		.loc 1 143 5
 140:C:/Users/stapi/OneDrive/Desktop/GD32VW553/V1_MQTT_OK/GD32VW55X_Wifi_BLE_SDK/GD32VW55x_RELEASE_V1.0.2/MSDK/cloud/alicloud/src/services/linkkit/dm\dm_message.c ****     lite_cjson_t lite, lite_message;
 638              		.loc 1 140 1 is_stmt 0
 639 0008 0111     		addi	sp,sp,-32
 640              		.cfi_def_cfa_offset 64
 144:C:/Users/stapi/OneDrive/Desktop/GD32VW553/V1_MQTT_OK/GD32VW55X_Wifi_BLE_SDK/GD32VW55x_RELEASE_V1.0.2/MSDK/cloud/alicloud/src/services/linkkit/dm\dm_message.c ****         return DM_INVALID_PARAMETER;
 641              		.loc 1 144 16
 642 000a F954     		li	s1,-2
 143:C:/Users/stapi/OneDrive/Desktop/GD32VW553/V1_MQTT_OK/GD32VW55X_Wifi_BLE_SDK/GD32VW55x_RELEASE_V1.0.2/MSDK/cloud/alicloud/src/services/linkkit/dm\dm_message.c ****         return DM_INVALID_PARAMETER;
 643              		.loc 1 143 8
 644 000c 19CD     		beq	a0,zero,.L37
 645              		.loc 1 144 16 discriminator 1
 646 000e F954     		li	s1,-2
 143:C:/Users/stapi/OneDrive/Desktop/GD32VW553/V1_MQTT_OK/GD32VW55X_Wifi_BLE_SDK/GD32VW55x_RELEASE_V1.0.2/MSDK/cloud/alicloud/src/services/linkkit/dm\dm_message.c ****         return DM_INVALID_PARAMETER;
 647              		.loc 1 143 25 discriminator 1
 648 0010 635DB000 		ble	a1,zero,.L37
 649 0014 3284     		mv	s0,a2
 143:C:/Users/stapi/OneDrive/Desktop/GD32VW553/V1_MQTT_OK/GD32VW55X_Wifi_BLE_SDK/GD32VW55x_RELEASE_V1.0.2/MSDK/cloud/alicloud/src/services/linkkit/dm\dm_message.c ****         return DM_INVALID_PARAMETER;
 650              		.loc 1 143 45 discriminator 2
 651 0016 11CA     		beq	a2,zero,.L37
 145:C:/Users/stapi/OneDrive/Desktop/GD32VW553/V1_MQTT_OK/GD32VW55X_Wifi_BLE_SDK/GD32VW55x_RELEASE_V1.0.2/MSDK/cloud/alicloud/src/services/linkkit/dm\dm_message.c ****     }
 146:C:/Users/stapi/OneDrive/Desktop/GD32VW553/V1_MQTT_OK/GD32VW55X_Wifi_BLE_SDK/GD32VW55x_RELEASE_V1.0.2/MSDK/cloud/alicloud/src/services/linkkit/dm\dm_message.c **** 
 147:C:/Users/stapi/OneDrive/Desktop/GD32VW553/V1_MQTT_OK/GD32VW55X_Wifi_BLE_SDK/GD32VW55x_RELEASE_V1.0.2/MSDK/cloud/alicloud/src/services/linkkit/dm\dm_message.c ****     if (dm_utils_json_parse(payload, payload_len, cJSON_Object, &lite) != SUCCESS_RETURN ||
 652              		.loc 1 147 5 is_stmt 1
 653              		.loc 1 147 9 is_stmt 0
 654 0018 8A86     		mv	a3,sp
 655 001a 13060004 		li	a2,64
 656              	.LVL61:
 657 001e 97000000 		call	dm_utils_json_parse
 657      E7800000 
 658              	.LVL62:
 659              		.loc 1 147 8
 660 0026 01C9     		beq	a0,zero,.L39
 661              	.L40:
 148:C:/Users/stapi/OneDrive/Desktop/GD32VW553/V1_MQTT_OK/GD32VW55X_Wifi_BLE_SDK/GD32VW55x_RELEASE_V1.0.2/MSDK/cloud/alicloud/src/services/linkkit/dm\dm_message.c ****         dm_utils_json_object_item(&lite, DM_MSG_KEY_ID, strlen(DM_MSG_KEY_ID), cJSON_String, &respo
 149:C:/Users/stapi/OneDrive/Desktop/GD32VW553/V1_MQTT_OK/GD32VW55X_Wifi_BLE_SDK/GD32VW55x_RELEASE_V1.0.2/MSDK/cloud/alicloud/src/services/linkkit/dm\dm_message.c ****         dm_utils_json_object_item(&lite, DM_MSG_KEY_CODE, strlen(DM_MSG_KEY_CODE), cJSON_Number,
 150:C:/Users/stapi/OneDrive/Desktop/GD32VW553/V1_MQTT_OK/GD32VW55X_Wifi_BLE_SDK/GD32VW55x_RELEASE_V1.0.2/MSDK/cloud/alicloud/src/services/linkkit/dm\dm_message.c ****                                   &response->code) != SUCCESS_RETURN ||
 151:C:/Users/stapi/OneDrive/Desktop/GD32VW553/V1_MQTT_OK/GD32VW55X_Wifi_BLE_SDK/GD32VW55x_RELEASE_V1.0.2/MSDK/cloud/alicloud/src/services/linkkit/dm\dm_message.c ****         dm_utils_json_object_item(&lite, DM_MSG_KEY_DATA, strlen(DM_MSG_KEY_DATA), cJSON_Invalid,
 152:C:/Users/stapi/OneDrive/Desktop/GD32VW553/V1_MQTT_OK/GD32VW55X_Wifi_BLE_SDK/GD32VW55x_RELEASE_V1.0.2/MSDK/cloud/alicloud/src/services/linkkit/dm\dm_message.c ****                                   &response->data) != SUCCESS_RETURN) {
 153:C:/Users/stapi/OneDrive/Desktop/GD32VW553/V1_MQTT_OK/GD32VW55X_Wifi_BLE_SDK/GD32VW55x_RELEASE_V1.0.2/MSDK/cloud/alicloud/src/services/linkkit/dm\dm_message.c ****         return FAIL_RETURN;
 662              		.loc 1 153 16
 663 0028 FD54     		li	s1,-1
 664              	.LVL63:
 665              	.L37:
 154:C:/Users/stapi/OneDrive/Desktop/GD32VW553/V1_MQTT_OK/GD32VW55X_Wifi_BLE_SDK/GD32VW55x_RELEASE_V1.0.2/MSDK/cloud/alicloud/src/services/linkkit/dm\dm_message.c ****     }
 155:C:/Users/stapi/OneDrive/Desktop/GD32VW553/V1_MQTT_OK/GD32VW55X_Wifi_BLE_SDK/GD32VW55x_RELEASE_V1.0.2/MSDK/cloud/alicloud/src/services/linkkit/dm\dm_message.c **** 
 156:C:/Users/stapi/OneDrive/Desktop/GD32VW553/V1_MQTT_OK/GD32VW55X_Wifi_BLE_SDK/GD32VW55x_RELEASE_V1.0.2/MSDK/cloud/alicloud/src/services/linkkit/dm\dm_message.c ****     dm_log_debug("Current Request Message ID: %.*s", response->id.value_length, response->id.value)
 157:C:/Users/stapi/OneDrive/Desktop/GD32VW553/V1_MQTT_OK/GD32VW55X_Wifi_BLE_SDK/GD32VW55x_RELEASE_V1.0.2/MSDK/cloud/alicloud/src/services/linkkit/dm\dm_message.c ****     dm_log_debug("Current Request Message Code: %d", response->code.value_int);
 158:C:/Users/stapi/OneDrive/Desktop/GD32VW553/V1_MQTT_OK/GD32VW55X_Wifi_BLE_SDK/GD32VW55x_RELEASE_V1.0.2/MSDK/cloud/alicloud/src/services/linkkit/dm\dm_message.c ****     dm_log_debug("Current Request Message Data: %.*s", response->data.value_length, response->data.
 159:C:/Users/stapi/OneDrive/Desktop/GD32VW553/V1_MQTT_OK/GD32VW55X_Wifi_BLE_SDK/GD32VW55x_RELEASE_V1.0.2/MSDK/cloud/alicloud/src/services/linkkit/dm\dm_message.c **** 
 160:C:/Users/stapi/OneDrive/Desktop/GD32VW553/V1_MQTT_OK/GD32VW55X_Wifi_BLE_SDK/GD32VW55x_RELEASE_V1.0.2/MSDK/cloud/alicloud/src/services/linkkit/dm\dm_message.c ****     memset(&lite_message, 0, sizeof(lite_cjson_t));
 161:C:/Users/stapi/OneDrive/Desktop/GD32VW553/V1_MQTT_OK/GD32VW55X_Wifi_BLE_SDK/GD32VW55x_RELEASE_V1.0.2/MSDK/cloud/alicloud/src/services/linkkit/dm\dm_message.c ****     if (dm_utils_json_object_item(&lite, DM_MSG_KEY_MESSAGE, strlen(DM_MSG_KEY_MESSAGE), cJSON_Inva
 162:C:/Users/stapi/OneDrive/Desktop/GD32VW553/V1_MQTT_OK/GD32VW55X_Wifi_BLE_SDK/GD32VW55x_RELEASE_V1.0.2/MSDK/cloud/alicloud/src/services/linkkit/dm\dm_message.c ****                                   &response->message) == SUCCESS_RETURN) {
 163:C:/Users/stapi/OneDrive/Desktop/GD32VW553/V1_MQTT_OK/GD32VW55X_Wifi_BLE_SDK/GD32VW55x_RELEASE_V1.0.2/MSDK/cloud/alicloud/src/services/linkkit/dm\dm_message.c ****         dm_log_debug("Current Request Message Desc: %.*s", response->message.value_length, response
 164:C:/Users/stapi/OneDrive/Desktop/GD32VW553/V1_MQTT_OK/GD32VW55X_Wifi_BLE_SDK/GD32VW55x_RELEASE_V1.0.2/MSDK/cloud/alicloud/src/services/linkkit/dm\dm_message.c ****     }
 165:C:/Users/stapi/OneDrive/Desktop/GD32VW553/V1_MQTT_OK/GD32VW55X_Wifi_BLE_SDK/GD32VW55x_RELEASE_V1.0.2/MSDK/cloud/alicloud/src/services/linkkit/dm\dm_message.c **** 
 166:C:/Users/stapi/OneDrive/Desktop/GD32VW553/V1_MQTT_OK/GD32VW55X_Wifi_BLE_SDK/GD32VW55x_RELEASE_V1.0.2/MSDK/cloud/alicloud/src/services/linkkit/dm\dm_message.c ****     return SUCCESS_RETURN;
 167:C:/Users/stapi/OneDrive/Desktop/GD32VW553/V1_MQTT_OK/GD32VW55X_Wifi_BLE_SDK/GD32VW55x_RELEASE_V1.0.2/MSDK/cloud/alicloud/src/services/linkkit/dm\dm_message.c **** }
 666              		.loc 1 167 1
 667 002a 2685     		mv	a0,s1
 668 002c 0561     		addi	sp,sp,32
 669              		.cfi_remember_state
 670              		.cfi_def_cfa_offset 0
 671 002e 17030000 		tail	__riscv_restore_4
 671      67000300 
 672              		.cfi_restore 19
 673              		.cfi_restore 18
 674              		.cfi_restore 9
 675              		.cfi_restore 8
 676              		.cfi_restore 1
 677              		.cfi_def_cfa_offset -32
 678              	.LVL64:
 679              	.L39:
 680              		.cfi_restore_state
 148:C:/Users/stapi/OneDrive/Desktop/GD32VW553/V1_MQTT_OK/GD32VW55X_Wifi_BLE_SDK/GD32VW55x_RELEASE_V1.0.2/MSDK/cloud/alicloud/src/services/linkkit/dm\dm_message.c ****         dm_utils_json_object_item(&lite, DM_MSG_KEY_ID, strlen(DM_MSG_KEY_ID), cJSON_String, &respo
 681              		.loc 1 148 9 discriminator 1
 682 0036 B7050000 		lui	a1,%hi(.LC3)
 683 003a 2287     		mv	a4,s0
 684 003c C146     		li	a3,16
 685 003e 0946     		li	a2,2
 686 0040 93850500 		addi	a1,a1,%lo(.LC3)
 687 0044 0A85     		mv	a0,sp
 688 0046 97000000 		call	dm_utils_json_object_item
 688      E7800000 
 689              	.LVL65:
 147:C:/Users/stapi/OneDrive/Desktop/GD32VW553/V1_MQTT_OK/GD32VW55X_Wifi_BLE_SDK/GD32VW55x_RELEASE_V1.0.2/MSDK/cloud/alicloud/src/services/linkkit/dm\dm_message.c ****         dm_utils_json_object_item(&lite, DM_MSG_KEY_ID, strlen(DM_MSG_KEY_ID), cJSON_String, &respo
 690              		.loc 1 147 90 discriminator 1
 691 004e 69FD     		bne	a0,zero,.L40
 149:C:/Users/stapi/OneDrive/Desktop/GD32VW553/V1_MQTT_OK/GD32VW55X_Wifi_BLE_SDK/GD32VW55x_RELEASE_V1.0.2/MSDK/cloud/alicloud/src/services/linkkit/dm\dm_message.c ****                                   &response->code) != SUCCESS_RETURN ||
 692              		.loc 1 149 9
 693 0050 B7050000 		lui	a1,%hi(.LC12)
 694 0054 13070402 		addi	a4,s0,32
 695 0058 A146     		li	a3,8
 696 005a 1146     		li	a2,4
 697 005c 93850500 		addi	a1,a1,%lo(.LC12)
 698 0060 0A85     		mv	a0,sp
 699 0062 97000000 		call	dm_utils_json_object_item
 699      E7800000 
 700              	.LVL66:
 148:C:/Users/stapi/OneDrive/Desktop/GD32VW553/V1_MQTT_OK/GD32VW55X_Wifi_BLE_SDK/GD32VW55x_RELEASE_V1.0.2/MSDK/cloud/alicloud/src/services/linkkit/dm\dm_message.c ****         dm_utils_json_object_item(&lite, DM_MSG_KEY_CODE, strlen(DM_MSG_KEY_CODE), cJSON_Number,
 701              		.loc 1 148 127
 702 006a 5DFD     		bne	a0,zero,.L40
 151:C:/Users/stapi/OneDrive/Desktop/GD32VW553/V1_MQTT_OK/GD32VW55X_Wifi_BLE_SDK/GD32VW55x_RELEASE_V1.0.2/MSDK/cloud/alicloud/src/services/linkkit/dm\dm_message.c ****                                   &response->data) != SUCCESS_RETURN) {
 703              		.loc 1 151 9
 704 006c B7050000 		lui	a1,%hi(.LC13)
 705 0070 13070404 		addi	a4,s0,64
 706 0074 8146     		li	a3,0
 707 0076 1146     		li	a2,4
 708 0078 93850500 		addi	a1,a1,%lo(.LC13)
 709 007c 0A85     		mv	a0,sp
 710 007e 97000000 		call	dm_utils_json_object_item
 710      E7800000 
 711              	.LVL67:
 712 0086 AA84     		mv	s1,a0
 150:C:/Users/stapi/OneDrive/Desktop/GD32VW553/V1_MQTT_OK/GD32VW55X_Wifi_BLE_SDK/GD32VW55x_RELEASE_V1.0.2/MSDK/cloud/alicloud/src/services/linkkit/dm\dm_message.c ****         dm_utils_json_object_item(&lite, DM_MSG_KEY_DATA, strlen(DM_MSG_KEY_DATA), cJSON_Invalid,
 713              		.loc 1 150 70
 714 0088 45F1     		bne	a0,zero,.L40
 156:C:/Users/stapi/OneDrive/Desktop/GD32VW553/V1_MQTT_OK/GD32VW55X_Wifi_BLE_SDK/GD32VW55x_RELEASE_V1.0.2/MSDK/cloud/alicloud/src/services/linkkit/dm\dm_message.c ****     dm_log_debug("Current Request Message Code: %d", response->code.value_int);
 715              		.loc 1 156 5 is_stmt 1
 716 008a 03284400 		lw	a6,4(s0)
 717 008e 1C44     		lw	a5,8(s0)
 718 0090 B7090000 		lui	s3,%hi(.LANCHOR3)
 719 0094 37090000 		lui	s2,%hi(.LC8)
 720 0098 37070000 		lui	a4,%hi(.LC7)
 721 009c 13070700 		addi	a4,a4,%lo(.LC7)
 722 00a0 9546     		li	a3,5
 723 00a2 1306C009 		li	a2,156
 724 00a6 93850900 		addi	a1,s3,%lo(.LANCHOR3)
 725 00aa 13050900 		addi	a0,s2,%lo(.LC8)
 726 00ae 97000000 		call	LITE_syslog
 726      E7800000 
 727              	.LVL68:
 157:C:/Users/stapi/OneDrive/Desktop/GD32VW553/V1_MQTT_OK/GD32VW55X_Wifi_BLE_SDK/GD32VW55x_RELEASE_V1.0.2/MSDK/cloud/alicloud/src/services/linkkit/dm\dm_message.c ****     dm_log_debug("Current Request Message Data: %.*s", response->data.value_length, response->data.
 728              		.loc 1 157 5
 729 00b6 1C5C     		lw	a5,56(s0)
 730 00b8 37070000 		lui	a4,%hi(.LC14)
 731 00bc 13070700 		addi	a4,a4,%lo(.LC14)
 732 00c0 9546     		li	a3,5
 733 00c2 1306D009 		li	a2,157
 734 00c6 93850900 		addi	a1,s3,%lo(.LANCHOR3)
 735 00ca 13050900 		addi	a0,s2,%lo(.LC8)
 736 00ce 97000000 		call	LITE_syslog
 736      E7800000 
 737              	.LVL69:
 158:C:/Users/stapi/OneDrive/Desktop/GD32VW553/V1_MQTT_OK/GD32VW55X_Wifi_BLE_SDK/GD32VW55x_RELEASE_V1.0.2/MSDK/cloud/alicloud/src/services/linkkit/dm\dm_message.c **** 
 738              		.loc 1 158 5
 739 00d6 03284404 		lw	a6,68(s0)
 740 00da 3C44     		lw	a5,72(s0)
 741 00dc 37070000 		lui	a4,%hi(.LC15)
 742 00e0 13070700 		addi	a4,a4,%lo(.LC15)
 743 00e4 9546     		li	a3,5
 744 00e6 1306E009 		li	a2,158
 745 00ea 93850900 		addi	a1,s3,%lo(.LANCHOR3)
 746 00ee 13050900 		addi	a0,s2,%lo(.LC8)
 747 00f2 97000000 		call	LITE_syslog
 747      E7800000 
 748              	.LVL70:
 160:C:/Users/stapi/OneDrive/Desktop/GD32VW553/V1_MQTT_OK/GD32VW55X_Wifi_BLE_SDK/GD32VW55x_RELEASE_V1.0.2/MSDK/cloud/alicloud/src/services/linkkit/dm\dm_message.c ****     if (dm_utils_json_object_item(&lite, DM_MSG_KEY_MESSAGE, strlen(DM_MSG_KEY_MESSAGE), cJSON_Inva
 749              		.loc 1 160 5
 161:C:/Users/stapi/OneDrive/Desktop/GD32VW553/V1_MQTT_OK/GD32VW55X_Wifi_BLE_SDK/GD32VW55x_RELEASE_V1.0.2/MSDK/cloud/alicloud/src/services/linkkit/dm\dm_message.c ****                                   &response->message) == SUCCESS_RETURN) {
 750              		.loc 1 161 5
 161:C:/Users/stapi/OneDrive/Desktop/GD32VW553/V1_MQTT_OK/GD32VW55X_Wifi_BLE_SDK/GD32VW55x_RELEASE_V1.0.2/MSDK/cloud/alicloud/src/services/linkkit/dm\dm_message.c ****                                   &response->message) == SUCCESS_RETURN) {
 751              		.loc 1 161 9 is_stmt 0
 752 00fa B7050000 		lui	a1,%hi(.LC16)
 753 00fe 13070406 		addi	a4,s0,96
 754 0102 8146     		li	a3,0
 755 0104 1D46     		li	a2,7
 756 0106 93850500 		addi	a1,a1,%lo(.LC16)
 757 010a 0A85     		mv	a0,sp
 758 010c 97000000 		call	dm_utils_json_object_item
 758      E7800000 
 759              	.LVL71:
 161:C:/Users/stapi/OneDrive/Desktop/GD32VW553/V1_MQTT_OK/GD32VW55X_Wifi_BLE_SDK/GD32VW55x_RELEASE_V1.0.2/MSDK/cloud/alicloud/src/services/linkkit/dm\dm_message.c ****                                   &response->message) == SUCCESS_RETURN) {
 760              		.loc 1 161 8
 761 0114 19F9     		bne	a0,zero,.L37
 163:C:/Users/stapi/OneDrive/Desktop/GD32VW553/V1_MQTT_OK/GD32VW55X_Wifi_BLE_SDK/GD32VW55x_RELEASE_V1.0.2/MSDK/cloud/alicloud/src/services/linkkit/dm\dm_message.c ****     }
 762              		.loc 1 163 9 is_stmt 1
 763 0116 03284406 		lw	a6,100(s0)
 764 011a 3C54     		lw	a5,104(s0)
 765 011c 37070000 		lui	a4,%hi(.LC17)
 766 0120 13070700 		addi	a4,a4,%lo(.LC17)
 767 0124 9546     		li	a3,5
 768 0126 1306300A 		li	a2,163
 769 012a 93850900 		addi	a1,s3,%lo(.LANCHOR3)
 770 012e 13050900 		addi	a0,s2,%lo(.LC8)
 771 0132 97000000 		call	LITE_syslog
 771      E7800000 
 772              	.LVL72:
 773 013a C5BD     		j	.L37
 774              		.cfi_endproc
 775              	.LFE27:
 777              		.section	.rodata.dm_msg_request.str1.4,"aMS",@progbits,1
 778              		.align	2
 779              	.LC18:
 780 0000 312E3000 		.string	"1.0"
 781              		.align	2
 782              	.LC19:
 783 0004 57726F6E 		.string	"Wrong JSON Format, URI: %s, Payload: %s"
 783      67204A53 
 783      4F4E2046 
 783      6F726D61 
 783      742C2055 
 784              		.align	2
 785              	.LC20:
 786 002c 444D2053 		.string	"DM Send Message, URI: %s, Payload: %s"
 786      656E6420 
 786      4D657373 
 786      6167652C 
 786      20555249 
 787              		.section	.text.dm_msg_request,"ax",@progbits
 788              		.align	1
 789              		.globl	dm_msg_request
 791              	dm_msg_request:
 792              	.LFB28:
 168:C:/Users/stapi/OneDrive/Desktop/GD32VW553/V1_MQTT_OK/GD32VW55X_Wifi_BLE_SDK/GD32VW55x_RELEASE_V1.0.2/MSDK/cloud/alicloud/src/services/linkkit/dm\dm_message.c **** 
 169:C:/Users/stapi/OneDrive/Desktop/GD32VW553/V1_MQTT_OK/GD32VW55X_Wifi_BLE_SDK/GD32VW55x_RELEASE_V1.0.2/MSDK/cloud/alicloud/src/services/linkkit/dm\dm_message.c **** const char DM_MSG_REQUEST[] DM_READ_ONLY = "{\"id\":\"%d\",\"version\":\"%s\",\"params\":%.*s,\"met
 170:C:/Users/stapi/OneDrive/Desktop/GD32VW553/V1_MQTT_OK/GD32VW55X_Wifi_BLE_SDK/GD32VW55x_RELEASE_V1.0.2/MSDK/cloud/alicloud/src/services/linkkit/dm\dm_message.c **** const char DM_MSG_REQUEST_NEW[] DM_READ_ONLY = "{\"id\":\"%d\",\"version\":\"%s\",\"data\":%.*s,\"m
 171:C:/Users/stapi/OneDrive/Desktop/GD32VW553/V1_MQTT_OK/GD32VW55X_Wifi_BLE_SDK/GD32VW55x_RELEASE_V1.0.2/MSDK/cloud/alicloud/src/services/linkkit/dm\dm_message.c **** int dm_msg_request(dm_msg_dest_type_t type, _IN_ dm_msg_request_t *request)
 172:C:/Users/stapi/OneDrive/Desktop/GD32VW553/V1_MQTT_OK/GD32VW55X_Wifi_BLE_SDK/GD32VW55x_RELEASE_V1.0.2/MSDK/cloud/alicloud/src/services/linkkit/dm\dm_message.c **** {
 793              		.loc 1 172 1
 794              		.cfi_startproc
 795              	.LVL73:
 796 0000 17030000 		call	t0,__riscv_save_5
 796      E7020300 
 797              		.cfi_offset 20, -24
 798              		.cfi_offset 19, -20
 799              		.cfi_offset 18, -16
 800              		.cfi_offset 9, -12
 801              		.cfi_offset 8, -8
 802              		.cfi_offset 1, -4
 803              		.cfi_def_cfa_offset 32
 173:C:/Users/stapi/OneDrive/Desktop/GD32VW553/V1_MQTT_OK/GD32VW55X_Wifi_BLE_SDK/GD32VW55x_RELEASE_V1.0.2/MSDK/cloud/alicloud/src/services/linkkit/dm\dm_message.c ****     int res = 0, payload_len = 0;
 804              		.loc 1 173 5
 805              	.LVL74:
 174:C:/Users/stapi/OneDrive/Desktop/GD32VW553/V1_MQTT_OK/GD32VW55X_Wifi_BLE_SDK/GD32VW55x_RELEASE_V1.0.2/MSDK/cloud/alicloud/src/services/linkkit/dm\dm_message.c ****     char *payload = NULL, *uri = NULL;
 806              		.loc 1 174 5
 172:C:/Users/stapi/OneDrive/Desktop/GD32VW553/V1_MQTT_OK/GD32VW55X_Wifi_BLE_SDK/GD32VW55x_RELEASE_V1.0.2/MSDK/cloud/alicloud/src/services/linkkit/dm\dm_message.c ****     int res = 0, payload_len = 0;
 807              		.loc 1 172 1 is_stmt 0
 808 0008 7971     		addi	sp,sp,-48
 809              		.cfi_def_cfa_offset 80
 810              		.loc 1 174 28
 811 000a 02C6     		sw	zero,12(sp)
 175:C:/Users/stapi/OneDrive/Desktop/GD32VW553/V1_MQTT_OK/GD32VW55X_Wifi_BLE_SDK/GD32VW55x_RELEASE_V1.0.2/MSDK/cloud/alicloud/src/services/linkkit/dm\dm_message.c ****     lite_cjson_t lite;
 812              		.loc 1 175 5 is_stmt 1
 176:C:/Users/stapi/OneDrive/Desktop/GD32VW553/V1_MQTT_OK/GD32VW55X_Wifi_BLE_SDK/GD32VW55x_RELEASE_V1.0.2/MSDK/cloud/alicloud/src/services/linkkit/dm\dm_message.c **** 
 177:C:/Users/stapi/OneDrive/Desktop/GD32VW553/V1_MQTT_OK/GD32VW55X_Wifi_BLE_SDK/GD32VW55x_RELEASE_V1.0.2/MSDK/cloud/alicloud/src/services/linkkit/dm\dm_message.c ****     if (request == NULL || request->params == NULL || request->method == NULL) {
 813              		.loc 1 177 5
 178:C:/Users/stapi/OneDrive/Desktop/GD32VW553/V1_MQTT_OK/GD32VW55X_Wifi_BLE_SDK/GD32VW55x_RELEASE_V1.0.2/MSDK/cloud/alicloud/src/services/linkkit/dm\dm_message.c ****         return DM_INVALID_PARAMETER;
 814              		.loc 1 178 16 is_stmt 0
 815 000c 7959     		li	s2,-2
 177:C:/Users/stapi/OneDrive/Desktop/GD32VW553/V1_MQTT_OK/GD32VW55X_Wifi_BLE_SDK/GD32VW55x_RELEASE_V1.0.2/MSDK/cloud/alicloud/src/services/linkkit/dm\dm_message.c ****         return DM_INVALID_PARAMETER;
 816              		.loc 1 177 8
 817 000e B1CD     		beq	a1,zero,.L45
 177:C:/Users/stapi/OneDrive/Desktop/GD32VW553/V1_MQTT_OK/GD32VW55X_Wifi_BLE_SDK/GD32VW55x_RELEASE_V1.0.2/MSDK/cloud/alicloud/src/services/linkkit/dm\dm_message.c ****         return DM_INVALID_PARAMETER;
 818              		.loc 1 177 25 discriminator 1
 819 0010 BC45     		lw	a5,72(a1)
 820 0012 2E84     		mv	s0,a1
 821              		.loc 1 178 16 discriminator 1
 822 0014 7959     		li	s2,-2
 177:C:/Users/stapi/OneDrive/Desktop/GD32VW553/V1_MQTT_OK/GD32VW55X_Wifi_BLE_SDK/GD32VW55x_RELEASE_V1.0.2/MSDK/cloud/alicloud/src/services/linkkit/dm\dm_message.c ****         return DM_INVALID_PARAMETER;
 823              		.loc 1 177 25 discriminator 1
 824 0016 B1CB     		beq	a5,zero,.L45
 177:C:/Users/stapi/OneDrive/Desktop/GD32VW553/V1_MQTT_OK/GD32VW55X_Wifi_BLE_SDK/GD32VW55x_RELEASE_V1.0.2/MSDK/cloud/alicloud/src/services/linkkit/dm\dm_message.c ****         return DM_INVALID_PARAMETER;
 825              		.loc 1 177 52 discriminator 2
 826 0018 BC49     		lw	a5,80(a1)
 827 001a A1CB     		beq	a5,zero,.L45
 179:C:/Users/stapi/OneDrive/Desktop/GD32VW553/V1_MQTT_OK/GD32VW55X_Wifi_BLE_SDK/GD32VW55x_RELEASE_V1.0.2/MSDK/cloud/alicloud/src/services/linkkit/dm\dm_message.c ****     }
 180:C:/Users/stapi/OneDrive/Desktop/GD32VW553/V1_MQTT_OK/GD32VW55X_Wifi_BLE_SDK/GD32VW55x_RELEASE_V1.0.2/MSDK/cloud/alicloud/src/services/linkkit/dm\dm_message.c **** 
 181:C:/Users/stapi/OneDrive/Desktop/GD32VW553/V1_MQTT_OK/GD32VW55X_Wifi_BLE_SDK/GD32VW55x_RELEASE_V1.0.2/MSDK/cloud/alicloud/src/services/linkkit/dm\dm_message.c ****     /* Request URI */
 182:C:/Users/stapi/OneDrive/Desktop/GD32VW553/V1_MQTT_OK/GD32VW55X_Wifi_BLE_SDK/GD32VW55x_RELEASE_V1.0.2/MSDK/cloud/alicloud/src/services/linkkit/dm\dm_message.c ****     res = dm_utils_service_name(request->service_prefix, request->service_name,
 828              		.loc 1 182 11
 829 001c 93865502 		addi	a3,a1,37
 830 0020 13860501 		addi	a2,a1,16
 831 0024 2A8A     		mv	s4,a0
 832              		.loc 1 182 5 is_stmt 1
 833              		.loc 1 182 11 is_stmt 0
 834 0026 CC45     		lw	a1,12(a1)
 835              	.LVL75:
 836 0028 0844     		lw	a0,8(s0)
 837              	.LVL76:
 838 002a 7800     		addi	a4,sp,12
 839 002c 97000000 		call	dm_utils_service_name
 839      E7800000 
 840              	.LVL77:
 841 0034 2A89     		mv	s2,a0
 842              	.LVL78:
 183:C:/Users/stapi/OneDrive/Desktop/GD32VW553/V1_MQTT_OK/GD32VW55X_Wifi_BLE_SDK/GD32VW55x_RELEASE_V1.0.2/MSDK/cloud/alicloud/src/services/linkkit/dm\dm_message.c ****                                 request->product_key, request->device_name, &uri);
 184:C:/Users/stapi/OneDrive/Desktop/GD32VW553/V1_MQTT_OK/GD32VW55X_Wifi_BLE_SDK/GD32VW55x_RELEASE_V1.0.2/MSDK/cloud/alicloud/src/services/linkkit/dm\dm_message.c ****     if (res != SUCCESS_RETURN) {
 843              		.loc 1 184 5 is_stmt 1
 844              		.loc 1 184 8 is_stmt 0
 845 0036 7DE5     		bne	a0,zero,.L55
 185:C:/Users/stapi/OneDrive/Desktop/GD32VW553/V1_MQTT_OK/GD32VW55X_Wifi_BLE_SDK/GD32VW55x_RELEASE_V1.0.2/MSDK/cloud/alicloud/src/services/linkkit/dm\dm_message.c ****         return FAIL_RETURN;
 186:C:/Users/stapi/OneDrive/Desktop/GD32VW553/V1_MQTT_OK/GD32VW55X_Wifi_BLE_SDK/GD32VW55x_RELEASE_V1.0.2/MSDK/cloud/alicloud/src/services/linkkit/dm\dm_message.c ****     }
 187:C:/Users/stapi/OneDrive/Desktop/GD32VW553/V1_MQTT_OK/GD32VW55X_Wifi_BLE_SDK/GD32VW55x_RELEASE_V1.0.2/MSDK/cloud/alicloud/src/services/linkkit/dm\dm_message.c **** 
 188:C:/Users/stapi/OneDrive/Desktop/GD32VW553/V1_MQTT_OK/GD32VW55X_Wifi_BLE_SDK/GD32VW55x_RELEASE_V1.0.2/MSDK/cloud/alicloud/src/services/linkkit/dm\dm_message.c ****     payload_len = strlen(DM_MSG_REQUEST) + 10 + strlen(DM_MSG_VERSION) + request->params_len + strl
 846              		.loc 1 188 5 is_stmt 1
 847              		.loc 1 188 96 is_stmt 0
 848 0038 2848     		lw	a0,80(s0)
 849              	.LVL79:
 850 003a 97000000 		call	strlen
 850      E7800000 
 851              	.LVL80:
 189:C:/Users/stapi/OneDrive/Desktop/GD32VW553/V1_MQTT_OK/GD32VW55X_Wifi_BLE_SDK/GD32VW55x_RELEASE_V1.0.2/MSDK/cloud/alicloud/src/services/linkkit/dm\dm_message.c ****                               request->method) + 1;
 852              		.loc 1 189 48
 853 0042 8329C404 		lw	s3,76(s0)
 190:C:/Users/stapi/OneDrive/Desktop/GD32VW553/V1_MQTT_OK/GD32VW55X_Wifi_BLE_SDK/GD32VW55x_RELEASE_V1.0.2/MSDK/cloud/alicloud/src/services/linkkit/dm\dm_message.c ****     payload = DM_malloc(payload_len);
 854              		.loc 1 190 15
 855 0046 8145     		li	a1,0
 189:C:/Users/stapi/OneDrive/Desktop/GD32VW553/V1_MQTT_OK/GD32VW55X_Wifi_BLE_SDK/GD32VW55x_RELEASE_V1.0.2/MSDK/cloud/alicloud/src/services/linkkit/dm\dm_message.c ****                               request->method) + 1;
 856              		.loc 1 189 48
 857 0048 93894904 		addi	s3,s3,68
 858 004c AA99     		add	s3,s3,a0
 859              	.LVL81:
 860              		.loc 1 190 5 is_stmt 1
 861              		.loc 1 190 15 is_stmt 0
 862 004e 4E86     		mv	a2,s3
 863 0050 0145     		li	a0,0
 864 0052 97000000 		call	LITE_malloc_internal
 864      E7800000 
 865              	.LVL82:
 866 005a AA84     		mv	s1,a0
 867              	.LVL83:
 191:C:/Users/stapi/OneDrive/Desktop/GD32VW553/V1_MQTT_OK/GD32VW55X_Wifi_BLE_SDK/GD32VW55x_RELEASE_V1.0.2/MSDK/cloud/alicloud/src/services/linkkit/dm\dm_message.c ****     if (payload == NULL) {
 868              		.loc 1 191 5 is_stmt 1
 869              		.loc 1 191 8 is_stmt 0
 870 005c 09ED     		bne	a0,zero,.L47
 192:C:/Users/stapi/OneDrive/Desktop/GD32VW553/V1_MQTT_OK/GD32VW55X_Wifi_BLE_SDK/GD32VW55x_RELEASE_V1.0.2/MSDK/cloud/alicloud/src/services/linkkit/dm\dm_message.c ****         DM_free(uri);
 871              		.loc 1 192 9 is_stmt 1
 872 005e 3245     		lw	a0,12(sp)
 193:C:/Users/stapi/OneDrive/Desktop/GD32VW553/V1_MQTT_OK/GD32VW55X_Wifi_BLE_SDK/GD32VW55x_RELEASE_V1.0.2/MSDK/cloud/alicloud/src/services/linkkit/dm\dm_message.c ****         return DM_MEMORY_NOT_ENOUGH;
 873              		.loc 1 193 16 is_stmt 0
 874 0060 7559     		li	s2,-3
 875              	.LVL84:
 192:C:/Users/stapi/OneDrive/Desktop/GD32VW553/V1_MQTT_OK/GD32VW55X_Wifi_BLE_SDK/GD32VW55x_RELEASE_V1.0.2/MSDK/cloud/alicloud/src/services/linkkit/dm\dm_message.c ****         DM_free(uri);
 876              		.loc 1 192 9
 877 0062 97000000 		call	LITE_free_internal
 877      E7800000 
 878              	.LVL85:
 192:C:/Users/stapi/OneDrive/Desktop/GD32VW553/V1_MQTT_OK/GD32VW55X_Wifi_BLE_SDK/GD32VW55x_RELEASE_V1.0.2/MSDK/cloud/alicloud/src/services/linkkit/dm\dm_message.c ****         DM_free(uri);
 879              		.loc 1 192 9 is_stmt 1
 192:C:/Users/stapi/OneDrive/Desktop/GD32VW553/V1_MQTT_OK/GD32VW55X_Wifi_BLE_SDK/GD32VW55x_RELEASE_V1.0.2/MSDK/cloud/alicloud/src/services/linkkit/dm\dm_message.c ****         DM_free(uri);
 880              		.loc 1 192 21
 881              		.loc 1 193 9
 882              	.L45:
 194:C:/Users/stapi/OneDrive/Desktop/GD32VW553/V1_MQTT_OK/GD32VW55X_Wifi_BLE_SDK/GD32VW55x_RELEASE_V1.0.2/MSDK/cloud/alicloud/src/services/linkkit/dm\dm_message.c ****     }
 195:C:/Users/stapi/OneDrive/Desktop/GD32VW553/V1_MQTT_OK/GD32VW55X_Wifi_BLE_SDK/GD32VW55x_RELEASE_V1.0.2/MSDK/cloud/alicloud/src/services/linkkit/dm\dm_message.c ****     memset(payload, 0, payload_len);
 196:C:/Users/stapi/OneDrive/Desktop/GD32VW553/V1_MQTT_OK/GD32VW55X_Wifi_BLE_SDK/GD32VW55x_RELEASE_V1.0.2/MSDK/cloud/alicloud/src/services/linkkit/dm\dm_message.c ****     if (request->callback == dm_client_thing_event_notify_reply){
 197:C:/Users/stapi/OneDrive/Desktop/GD32VW553/V1_MQTT_OK/GD32VW55X_Wifi_BLE_SDK/GD32VW55x_RELEASE_V1.0.2/MSDK/cloud/alicloud/src/services/linkkit/dm\dm_message.c ****         HAL_Snprintf(payload, payload_len, DM_MSG_REQUEST_NEW, request->msgid,
 198:C:/Users/stapi/OneDrive/Desktop/GD32VW553/V1_MQTT_OK/GD32VW55X_Wifi_BLE_SDK/GD32VW55x_RELEASE_V1.0.2/MSDK/cloud/alicloud/src/services/linkkit/dm\dm_message.c ****                      DM_MSG_VERSION, request->params_len, request->params, request->method);
 199:C:/Users/stapi/OneDrive/Desktop/GD32VW553/V1_MQTT_OK/GD32VW55X_Wifi_BLE_SDK/GD32VW55x_RELEASE_V1.0.2/MSDK/cloud/alicloud/src/services/linkkit/dm\dm_message.c ****     } else {
 200:C:/Users/stapi/OneDrive/Desktop/GD32VW553/V1_MQTT_OK/GD32VW55X_Wifi_BLE_SDK/GD32VW55x_RELEASE_V1.0.2/MSDK/cloud/alicloud/src/services/linkkit/dm\dm_message.c ****         HAL_Snprintf(payload, payload_len, DM_MSG_REQUEST, request->msgid,
 201:C:/Users/stapi/OneDrive/Desktop/GD32VW553/V1_MQTT_OK/GD32VW55X_Wifi_BLE_SDK/GD32VW55x_RELEASE_V1.0.2/MSDK/cloud/alicloud/src/services/linkkit/dm\dm_message.c ****                      DM_MSG_VERSION, request->params_len, request->params, request->method);
 202:C:/Users/stapi/OneDrive/Desktop/GD32VW553/V1_MQTT_OK/GD32VW55X_Wifi_BLE_SDK/GD32VW55x_RELEASE_V1.0.2/MSDK/cloud/alicloud/src/services/linkkit/dm\dm_message.c ****     }
 203:C:/Users/stapi/OneDrive/Desktop/GD32VW553/V1_MQTT_OK/GD32VW55X_Wifi_BLE_SDK/GD32VW55x_RELEASE_V1.0.2/MSDK/cloud/alicloud/src/services/linkkit/dm\dm_message.c ****     memset(&lite, 0, sizeof(lite_cjson_t));
 204:C:/Users/stapi/OneDrive/Desktop/GD32VW553/V1_MQTT_OK/GD32VW55X_Wifi_BLE_SDK/GD32VW55x_RELEASE_V1.0.2/MSDK/cloud/alicloud/src/services/linkkit/dm\dm_message.c ****     res = lite_cjson_parse(payload, payload_len, &lite);
 205:C:/Users/stapi/OneDrive/Desktop/GD32VW553/V1_MQTT_OK/GD32VW55X_Wifi_BLE_SDK/GD32VW55x_RELEASE_V1.0.2/MSDK/cloud/alicloud/src/services/linkkit/dm\dm_message.c ****     if (res < SUCCESS_RETURN) {
 206:C:/Users/stapi/OneDrive/Desktop/GD32VW553/V1_MQTT_OK/GD32VW55X_Wifi_BLE_SDK/GD32VW55x_RELEASE_V1.0.2/MSDK/cloud/alicloud/src/services/linkkit/dm\dm_message.c ****         dm_log_info("Wrong JSON Format, URI: %s, Payload: %s", uri, payload);
 207:C:/Users/stapi/OneDrive/Desktop/GD32VW553/V1_MQTT_OK/GD32VW55X_Wifi_BLE_SDK/GD32VW55x_RELEASE_V1.0.2/MSDK/cloud/alicloud/src/services/linkkit/dm\dm_message.c ****         DM_free(uri);
 208:C:/Users/stapi/OneDrive/Desktop/GD32VW553/V1_MQTT_OK/GD32VW55X_Wifi_BLE_SDK/GD32VW55x_RELEASE_V1.0.2/MSDK/cloud/alicloud/src/services/linkkit/dm\dm_message.c ****         DM_free(payload);
 209:C:/Users/stapi/OneDrive/Desktop/GD32VW553/V1_MQTT_OK/GD32VW55X_Wifi_BLE_SDK/GD32VW55x_RELEASE_V1.0.2/MSDK/cloud/alicloud/src/services/linkkit/dm\dm_message.c ****         return FAIL_RETURN;
 210:C:/Users/stapi/OneDrive/Desktop/GD32VW553/V1_MQTT_OK/GD32VW55X_Wifi_BLE_SDK/GD32VW55x_RELEASE_V1.0.2/MSDK/cloud/alicloud/src/services/linkkit/dm\dm_message.c ****     }
 211:C:/Users/stapi/OneDrive/Desktop/GD32VW553/V1_MQTT_OK/GD32VW55X_Wifi_BLE_SDK/GD32VW55x_RELEASE_V1.0.2/MSDK/cloud/alicloud/src/services/linkkit/dm\dm_message.c **** 
 212:C:/Users/stapi/OneDrive/Desktop/GD32VW553/V1_MQTT_OK/GD32VW55X_Wifi_BLE_SDK/GD32VW55x_RELEASE_V1.0.2/MSDK/cloud/alicloud/src/services/linkkit/dm\dm_message.c ****     dm_log_info("DM Send Message, URI: %s, Payload: %s", uri, payload);
 213:C:/Users/stapi/OneDrive/Desktop/GD32VW553/V1_MQTT_OK/GD32VW55X_Wifi_BLE_SDK/GD32VW55x_RELEASE_V1.0.2/MSDK/cloud/alicloud/src/services/linkkit/dm\dm_message.c **** 
 214:C:/Users/stapi/OneDrive/Desktop/GD32VW553/V1_MQTT_OK/GD32VW55X_Wifi_BLE_SDK/GD32VW55x_RELEASE_V1.0.2/MSDK/cloud/alicloud/src/services/linkkit/dm\dm_message.c ****     if (type & DM_MSG_DEST_CLOUD) {
 215:C:/Users/stapi/OneDrive/Desktop/GD32VW553/V1_MQTT_OK/GD32VW55X_Wifi_BLE_SDK/GD32VW55x_RELEASE_V1.0.2/MSDK/cloud/alicloud/src/services/linkkit/dm\dm_message.c ****         dm_client_publish(uri, (unsigned char *)payload, strlen(payload), request->callback);
 216:C:/Users/stapi/OneDrive/Desktop/GD32VW553/V1_MQTT_OK/GD32VW55X_Wifi_BLE_SDK/GD32VW55x_RELEASE_V1.0.2/MSDK/cloud/alicloud/src/services/linkkit/dm\dm_message.c ****     }
 217:C:/Users/stapi/OneDrive/Desktop/GD32VW553/V1_MQTT_OK/GD32VW55X_Wifi_BLE_SDK/GD32VW55x_RELEASE_V1.0.2/MSDK/cloud/alicloud/src/services/linkkit/dm\dm_message.c **** 
 218:C:/Users/stapi/OneDrive/Desktop/GD32VW553/V1_MQTT_OK/GD32VW55X_Wifi_BLE_SDK/GD32VW55x_RELEASE_V1.0.2/MSDK/cloud/alicloud/src/services/linkkit/dm\dm_message.c **** #ifdef ALCS_ENABLED
 219:C:/Users/stapi/OneDrive/Desktop/GD32VW553/V1_MQTT_OK/GD32VW55X_Wifi_BLE_SDK/GD32VW55x_RELEASE_V1.0.2/MSDK/cloud/alicloud/src/services/linkkit/dm\dm_message.c ****     if (type & DM_MSG_DEST_LOCAL) {
 220:C:/Users/stapi/OneDrive/Desktop/GD32VW553/V1_MQTT_OK/GD32VW55X_Wifi_BLE_SDK/GD32VW55x_RELEASE_V1.0.2/MSDK/cloud/alicloud/src/services/linkkit/dm\dm_message.c ****         dm_server_send(uri, (unsigned char *)payload, strlen(payload), NULL);
 221:C:/Users/stapi/OneDrive/Desktop/GD32VW553/V1_MQTT_OK/GD32VW55X_Wifi_BLE_SDK/GD32VW55x_RELEASE_V1.0.2/MSDK/cloud/alicloud/src/services/linkkit/dm\dm_message.c ****     }
 222:C:/Users/stapi/OneDrive/Desktop/GD32VW553/V1_MQTT_OK/GD32VW55X_Wifi_BLE_SDK/GD32VW55x_RELEASE_V1.0.2/MSDK/cloud/alicloud/src/services/linkkit/dm\dm_message.c **** #endif
 223:C:/Users/stapi/OneDrive/Desktop/GD32VW553/V1_MQTT_OK/GD32VW55X_Wifi_BLE_SDK/GD32VW55x_RELEASE_V1.0.2/MSDK/cloud/alicloud/src/services/linkkit/dm\dm_message.c **** 
 224:C:/Users/stapi/OneDrive/Desktop/GD32VW553/V1_MQTT_OK/GD32VW55X_Wifi_BLE_SDK/GD32VW55x_RELEASE_V1.0.2/MSDK/cloud/alicloud/src/services/linkkit/dm\dm_message.c ****     DM_free(uri);
 225:C:/Users/stapi/OneDrive/Desktop/GD32VW553/V1_MQTT_OK/GD32VW55X_Wifi_BLE_SDK/GD32VW55x_RELEASE_V1.0.2/MSDK/cloud/alicloud/src/services/linkkit/dm\dm_message.c ****     DM_free(payload);
 226:C:/Users/stapi/OneDrive/Desktop/GD32VW553/V1_MQTT_OK/GD32VW55X_Wifi_BLE_SDK/GD32VW55x_RELEASE_V1.0.2/MSDK/cloud/alicloud/src/services/linkkit/dm\dm_message.c ****     return SUCCESS_RETURN;
 227:C:/Users/stapi/OneDrive/Desktop/GD32VW553/V1_MQTT_OK/GD32VW55X_Wifi_BLE_SDK/GD32VW55x_RELEASE_V1.0.2/MSDK/cloud/alicloud/src/services/linkkit/dm\dm_message.c **** }
 883              		.loc 1 227 1 is_stmt 0
 884 006a 4A85     		mv	a0,s2
 885 006c 4561     		addi	sp,sp,48
 886              		.cfi_remember_state
 887              		.cfi_def_cfa_offset 0
 888 006e 17030000 		tail	__riscv_restore_5
 888      67000300 
 889              		.cfi_restore 20
 890              		.cfi_restore 19
 891              		.cfi_restore 18
 892              		.cfi_restore 9
 893              		.cfi_restore 8
 894              		.cfi_restore 1
 895              		.cfi_def_cfa_offset -32
 896              	.LVL86:
 897              	.L47:
 898              		.cfi_restore_state
 195:C:/Users/stapi/OneDrive/Desktop/GD32VW553/V1_MQTT_OK/GD32VW55X_Wifi_BLE_SDK/GD32VW55x_RELEASE_V1.0.2/MSDK/cloud/alicloud/src/services/linkkit/dm\dm_message.c ****     if (request->callback == dm_client_thing_event_notify_reply){
 899              		.loc 1 195 5 is_stmt 1
 900 0076 4E86     		mv	a2,s3
 901 0078 8145     		li	a1,0
 902 007a 97000000 		call	memset
 902      E7800000 
 903              	.LVL87:
 196:C:/Users/stapi/OneDrive/Desktop/GD32VW553/V1_MQTT_OK/GD32VW55X_Wifi_BLE_SDK/GD32VW55x_RELEASE_V1.0.2/MSDK/cloud/alicloud/src/services/linkkit/dm\dm_message.c ****         HAL_Snprintf(payload, payload_len, DM_MSG_REQUEST_NEW, request->msgid,
 904              		.loc 1 196 5
 196:C:/Users/stapi/OneDrive/Desktop/GD32VW553/V1_MQTT_OK/GD32VW55X_Wifi_BLE_SDK/GD32VW55x_RELEASE_V1.0.2/MSDK/cloud/alicloud/src/services/linkkit/dm\dm_message.c ****         HAL_Snprintf(payload, payload_len, DM_MSG_REQUEST_NEW, request->msgid,
 905              		.loc 1 196 8 is_stmt 0
 906 0082 6C48     		lw	a1,84(s0)
 907 0084 37060000 		lui	a2,%hi(dm_client_thing_event_notify_reply)
 908 0088 37070000 		lui	a4,%hi(.LC18)
 909 008c 13060600 		addi	a2,a2,%lo(dm_client_thing_event_notify_reply)
 910 0090 03288404 		lw	a6,72(s0)
 911 0094 83280405 		lw	a7,80(s0)
 912 0098 7C44     		lw	a5,76(s0)
 913 009a 1440     		lw	a3,0(s0)
 197:C:/Users/stapi/OneDrive/Desktop/GD32VW553/V1_MQTT_OK/GD32VW55X_Wifi_BLE_SDK/GD32VW55x_RELEASE_V1.0.2/MSDK/cloud/alicloud/src/services/linkkit/dm\dm_message.c ****                      DM_MSG_VERSION, request->params_len, request->params, request->method);
 914              		.loc 1 197 9
 915 009c 13070700 		addi	a4,a4,%lo(.LC18)
 196:C:/Users/stapi/OneDrive/Desktop/GD32VW553/V1_MQTT_OK/GD32VW55X_Wifi_BLE_SDK/GD32VW55x_RELEASE_V1.0.2/MSDK/cloud/alicloud/src/services/linkkit/dm\dm_message.c ****         HAL_Snprintf(payload, payload_len, DM_MSG_REQUEST_NEW, request->msgid,
 916              		.loc 1 196 8
 917 00a0 6394C508 		bne	a1,a2,.L48
 197:C:/Users/stapi/OneDrive/Desktop/GD32VW553/V1_MQTT_OK/GD32VW55X_Wifi_BLE_SDK/GD32VW55x_RELEASE_V1.0.2/MSDK/cloud/alicloud/src/services/linkkit/dm\dm_message.c ****                      DM_MSG_VERSION, request->params_len, request->params, request->method);
 918              		.loc 1 197 9 is_stmt 1
 919 00a4 37060000 		lui	a2,%hi(.LANCHOR4)
 920 00a8 13060600 		addi	a2,a2,%lo(.LANCHOR4)
 921              	.L60:
 200:C:/Users/stapi/OneDrive/Desktop/GD32VW553/V1_MQTT_OK/GD32VW55X_Wifi_BLE_SDK/GD32VW55x_RELEASE_V1.0.2/MSDK/cloud/alicloud/src/services/linkkit/dm\dm_message.c ****                      DM_MSG_VERSION, request->params_len, request->params, request->method);
 922              		.loc 1 200 9 is_stmt 0
 923 00ac CE85     		mv	a1,s3
 924 00ae 2685     		mv	a0,s1
 925 00b0 97000000 		call	HAL_Snprintf
 925      E7800000 
 926              	.LVL88:
 203:C:/Users/stapi/OneDrive/Desktop/GD32VW553/V1_MQTT_OK/GD32VW55X_Wifi_BLE_SDK/GD32VW55x_RELEASE_V1.0.2/MSDK/cloud/alicloud/src/services/linkkit/dm\dm_message.c ****     res = lite_cjson_parse(payload, payload_len, &lite);
 927              		.loc 1 203 5 is_stmt 1
 928 00b8 13060002 		li	a2,32
 929 00bc 8145     		li	a1,0
 930 00be 0808     		addi	a0,sp,16
 931 00c0 97000000 		call	memset
 931      E7800000 
 932              	.LVL89:
 204:C:/Users/stapi/OneDrive/Desktop/GD32VW553/V1_MQTT_OK/GD32VW55X_Wifi_BLE_SDK/GD32VW55x_RELEASE_V1.0.2/MSDK/cloud/alicloud/src/services/linkkit/dm\dm_message.c ****     if (res < SUCCESS_RETURN) {
 933              		.loc 1 204 5
 204:C:/Users/stapi/OneDrive/Desktop/GD32VW553/V1_MQTT_OK/GD32VW55X_Wifi_BLE_SDK/GD32VW55x_RELEASE_V1.0.2/MSDK/cloud/alicloud/src/services/linkkit/dm\dm_message.c ****     if (res < SUCCESS_RETURN) {
 934              		.loc 1 204 11 is_stmt 0
 935 00c8 CE85     		mv	a1,s3
 936 00ca 1008     		addi	a2,sp,16
 937 00cc 2685     		mv	a0,s1
 938 00ce 97000000 		call	lite_cjson_parse
 938      E7800000 
 939              	.LVL90:
 205:C:/Users/stapi/OneDrive/Desktop/GD32VW553/V1_MQTT_OK/GD32VW55X_Wifi_BLE_SDK/GD32VW55x_RELEASE_V1.0.2/MSDK/cloud/alicloud/src/services/linkkit/dm\dm_message.c ****         dm_log_info("Wrong JSON Format, URI: %s, Payload: %s", uri, payload);
 940              		.loc 1 205 5 is_stmt 1
 941 00d6 B7070000 		lui	a5,%hi(.LC0)
 942 00da B7090000 		lui	s3,%hi(.LC2)
 943              	.LVL91:
 205:C:/Users/stapi/OneDrive/Desktop/GD32VW553/V1_MQTT_OK/GD32VW55X_Wifi_BLE_SDK/GD32VW55x_RELEASE_V1.0.2/MSDK/cloud/alicloud/src/services/linkkit/dm\dm_message.c ****         dm_log_info("Wrong JSON Format, URI: %s, Payload: %s", uri, payload);
 944              		.loc 1 205 8 is_stmt 0
 945 00de 635A0504 		bge	a0,zero,.L50
 206:C:/Users/stapi/OneDrive/Desktop/GD32VW553/V1_MQTT_OK/GD32VW55X_Wifi_BLE_SDK/GD32VW55x_RELEASE_V1.0.2/MSDK/cloud/alicloud/src/services/linkkit/dm\dm_message.c ****         DM_free(uri);
 946              		.loc 1 206 9 is_stmt 1
 206:C:/Users/stapi/OneDrive/Desktop/GD32VW553/V1_MQTT_OK/GD32VW55X_Wifi_BLE_SDK/GD32VW55x_RELEASE_V1.0.2/MSDK/cloud/alicloud/src/services/linkkit/dm\dm_message.c ****         DM_free(uri);
 947              		.loc 1 206 9
 948 00e2 13850700 		addi	a0,a5,%lo(.LC0)
 949              	.LVL92:
 950 00e6 97000000 		call	HAL_Printf
 950      E7800000 
 951              	.LVL93:
 206:C:/Users/stapi/OneDrive/Desktop/GD32VW553/V1_MQTT_OK/GD32VW55X_Wifi_BLE_SDK/GD32VW55x_RELEASE_V1.0.2/MSDK/cloud/alicloud/src/services/linkkit/dm\dm_message.c ****         DM_free(uri);
 952              		.loc 1 206 9
 953 00ee B245     		lw	a1,12(sp)
 954 00f0 37050000 		lui	a0,%hi(.LC19)
 955 00f4 2686     		mv	a2,s1
 956 00f6 13050500 		addi	a0,a0,%lo(.LC19)
 957 00fa 97000000 		call	HAL_Printf
 957      E7800000 
 958              	.LVL94:
 206:C:/Users/stapi/OneDrive/Desktop/GD32VW553/V1_MQTT_OK/GD32VW55X_Wifi_BLE_SDK/GD32VW55x_RELEASE_V1.0.2/MSDK/cloud/alicloud/src/services/linkkit/dm\dm_message.c ****         DM_free(uri);
 959              		.loc 1 206 9
 960 0102 13850900 		addi	a0,s3,%lo(.LC2)
 961 0106 97000000 		call	HAL_Printf
 961      E7800000 
 962              	.LVL95:
 206:C:/Users/stapi/OneDrive/Desktop/GD32VW553/V1_MQTT_OK/GD32VW55X_Wifi_BLE_SDK/GD32VW55x_RELEASE_V1.0.2/MSDK/cloud/alicloud/src/services/linkkit/dm\dm_message.c ****         DM_free(uri);
 963              		.loc 1 206 9
 207:C:/Users/stapi/OneDrive/Desktop/GD32VW553/V1_MQTT_OK/GD32VW55X_Wifi_BLE_SDK/GD32VW55x_RELEASE_V1.0.2/MSDK/cloud/alicloud/src/services/linkkit/dm\dm_message.c ****         DM_free(payload);
 964              		.loc 1 207 9
 965 010e 3245     		lw	a0,12(sp)
 966 0110 97000000 		call	LITE_free_internal
 966      E7800000 
 967              	.LVL96:
 207:C:/Users/stapi/OneDrive/Desktop/GD32VW553/V1_MQTT_OK/GD32VW55X_Wifi_BLE_SDK/GD32VW55x_RELEASE_V1.0.2/MSDK/cloud/alicloud/src/services/linkkit/dm\dm_message.c ****         DM_free(payload);
 968              		.loc 1 207 9
 208:C:/Users/stapi/OneDrive/Desktop/GD32VW553/V1_MQTT_OK/GD32VW55X_Wifi_BLE_SDK/GD32VW55x_RELEASE_V1.0.2/MSDK/cloud/alicloud/src/services/linkkit/dm\dm_message.c ****         return FAIL_RETURN;
 969              		.loc 1 208 9 is_stmt 0
 970 0118 2685     		mv	a0,s1
 207:C:/Users/stapi/OneDrive/Desktop/GD32VW553/V1_MQTT_OK/GD32VW55X_Wifi_BLE_SDK/GD32VW55x_RELEASE_V1.0.2/MSDK/cloud/alicloud/src/services/linkkit/dm\dm_message.c ****         DM_free(payload);
 971              		.loc 1 207 9
 972 011a 02C6     		sw	zero,12(sp)
 207:C:/Users/stapi/OneDrive/Desktop/GD32VW553/V1_MQTT_OK/GD32VW55X_Wifi_BLE_SDK/GD32VW55x_RELEASE_V1.0.2/MSDK/cloud/alicloud/src/services/linkkit/dm\dm_message.c ****         DM_free(payload);
 973              		.loc 1 207 21 is_stmt 1
 208:C:/Users/stapi/OneDrive/Desktop/GD32VW553/V1_MQTT_OK/GD32VW55X_Wifi_BLE_SDK/GD32VW55x_RELEASE_V1.0.2/MSDK/cloud/alicloud/src/services/linkkit/dm\dm_message.c ****         return FAIL_RETURN;
 974              		.loc 1 208 9
 975 011c 97000000 		call	LITE_free_internal
 975      E7800000 
 976              	.LVL97:
 208:C:/Users/stapi/OneDrive/Desktop/GD32VW553/V1_MQTT_OK/GD32VW55X_Wifi_BLE_SDK/GD32VW55x_RELEASE_V1.0.2/MSDK/cloud/alicloud/src/services/linkkit/dm\dm_message.c ****         return FAIL_RETURN;
 977              		.loc 1 208 9
 208:C:/Users/stapi/OneDrive/Desktop/GD32VW553/V1_MQTT_OK/GD32VW55X_Wifi_BLE_SDK/GD32VW55x_RELEASE_V1.0.2/MSDK/cloud/alicloud/src/services/linkkit/dm\dm_message.c ****         return FAIL_RETURN;
 978              		.loc 1 208 25
 209:C:/Users/stapi/OneDrive/Desktop/GD32VW553/V1_MQTT_OK/GD32VW55X_Wifi_BLE_SDK/GD32VW55x_RELEASE_V1.0.2/MSDK/cloud/alicloud/src/services/linkkit/dm\dm_message.c ****     }
 979              		.loc 1 209 9
 980              	.L55:
 185:C:/Users/stapi/OneDrive/Desktop/GD32VW553/V1_MQTT_OK/GD32VW55X_Wifi_BLE_SDK/GD32VW55x_RELEASE_V1.0.2/MSDK/cloud/alicloud/src/services/linkkit/dm\dm_message.c ****     }
 981              		.loc 1 185 16 is_stmt 0
 982 0124 7D59     		li	s2,-1
 983 0126 91B7     		j	.L45
 984              	.LVL98:
 985              	.L48:
 200:C:/Users/stapi/OneDrive/Desktop/GD32VW553/V1_MQTT_OK/GD32VW55X_Wifi_BLE_SDK/GD32VW55x_RELEASE_V1.0.2/MSDK/cloud/alicloud/src/services/linkkit/dm\dm_message.c ****                      DM_MSG_VERSION, request->params_len, request->params, request->method);
 986              		.loc 1 200 9 is_stmt 1
 987 0128 37060000 		lui	a2,%hi(.LANCHOR5)
 988 012c 13060600 		addi	a2,a2,%lo(.LANCHOR5)
 989 0130 B5BF     		j	.L60
 990              	.LVL99:
 991              	.L50:
 212:C:/Users/stapi/OneDrive/Desktop/GD32VW553/V1_MQTT_OK/GD32VW55X_Wifi_BLE_SDK/GD32VW55x_RELEASE_V1.0.2/MSDK/cloud/alicloud/src/services/linkkit/dm\dm_message.c **** 
 992              		.loc 1 212 5
 212:C:/Users/stapi/OneDrive/Desktop/GD32VW553/V1_MQTT_OK/GD32VW55X_Wifi_BLE_SDK/GD32VW55x_RELEASE_V1.0.2/MSDK/cloud/alicloud/src/services/linkkit/dm\dm_message.c **** 
 993              		.loc 1 212 5
 994 0132 13850700 		addi	a0,a5,%lo(.LC0)
 995              	.LVL100:
 996 0136 97000000 		call	HAL_Printf
 996      E7800000 
 997              	.LVL101:
 212:C:/Users/stapi/OneDrive/Desktop/GD32VW553/V1_MQTT_OK/GD32VW55X_Wifi_BLE_SDK/GD32VW55x_RELEASE_V1.0.2/MSDK/cloud/alicloud/src/services/linkkit/dm\dm_message.c **** 
 998              		.loc 1 212 5
 999 013e B245     		lw	a1,12(sp)
 1000 0140 37050000 		lui	a0,%hi(.LC20)
 1001 0144 2686     		mv	a2,s1
 1002 0146 13050500 		addi	a0,a0,%lo(.LC20)
 1003 014a 97000000 		call	HAL_Printf
 1003      E7800000 
 1004              	.LVL102:
 212:C:/Users/stapi/OneDrive/Desktop/GD32VW553/V1_MQTT_OK/GD32VW55X_Wifi_BLE_SDK/GD32VW55x_RELEASE_V1.0.2/MSDK/cloud/alicloud/src/services/linkkit/dm\dm_message.c **** 
 1005              		.loc 1 212 5
 1006 0152 13850900 		addi	a0,s3,%lo(.LC2)
 1007 0156 97000000 		call	HAL_Printf
 1007      E7800000 
 1008              	.LVL103:
 212:C:/Users/stapi/OneDrive/Desktop/GD32VW553/V1_MQTT_OK/GD32VW55X_Wifi_BLE_SDK/GD32VW55x_RELEASE_V1.0.2/MSDK/cloud/alicloud/src/services/linkkit/dm\dm_message.c **** 
 1009              		.loc 1 212 5
 214:C:/Users/stapi/OneDrive/Desktop/GD32VW553/V1_MQTT_OK/GD32VW55X_Wifi_BLE_SDK/GD32VW55x_RELEASE_V1.0.2/MSDK/cloud/alicloud/src/services/linkkit/dm\dm_message.c ****         dm_client_publish(uri, (unsigned char *)payload, strlen(payload), request->callback);
 1010              		.loc 1 214 5
 214:C:/Users/stapi/OneDrive/Desktop/GD32VW553/V1_MQTT_OK/GD32VW55X_Wifi_BLE_SDK/GD32VW55x_RELEASE_V1.0.2/MSDK/cloud/alicloud/src/services/linkkit/dm\dm_message.c ****         dm_client_publish(uri, (unsigned char *)payload, strlen(payload), request->callback);
 1011              		.loc 1 214 14 is_stmt 0
 1012 015e 13751A00 		andi	a0,s4,1
 214:C:/Users/stapi/OneDrive/Desktop/GD32VW553/V1_MQTT_OK/GD32VW55X_Wifi_BLE_SDK/GD32VW55x_RELEASE_V1.0.2/MSDK/cloud/alicloud/src/services/linkkit/dm\dm_message.c ****         dm_client_publish(uri, (unsigned char *)payload, strlen(payload), request->callback);
 1013              		.loc 1 214 8
 1014 0162 11CD     		beq	a0,zero,.L51
 215:C:/Users/stapi/OneDrive/Desktop/GD32VW553/V1_MQTT_OK/GD32VW55X_Wifi_BLE_SDK/GD32VW55x_RELEASE_V1.0.2/MSDK/cloud/alicloud/src/services/linkkit/dm\dm_message.c ****     }
 1015              		.loc 1 215 9 is_stmt 1
 215:C:/Users/stapi/OneDrive/Desktop/GD32VW553/V1_MQTT_OK/GD32VW55X_Wifi_BLE_SDK/GD32VW55x_RELEASE_V1.0.2/MSDK/cloud/alicloud/src/services/linkkit/dm\dm_message.c ****     }
 1016              		.loc 1 215 58 is_stmt 0
 1017 0164 2685     		mv	a0,s1
 1018 0166 97000000 		call	strlen
 1018      E7800000 
 1019              	.LVL104:
 1020 016e 2A86     		mv	a2,a0
 215:C:/Users/stapi/OneDrive/Desktop/GD32VW553/V1_MQTT_OK/GD32VW55X_Wifi_BLE_SDK/GD32VW55x_RELEASE_V1.0.2/MSDK/cloud/alicloud/src/services/linkkit/dm\dm_message.c ****     }
 1021              		.loc 1 215 9
 1022 0170 7448     		lw	a3,84(s0)
 1023 0172 3245     		lw	a0,12(sp)
 1024 0174 A685     		mv	a1,s1
 1025 0176 97000000 		call	dm_client_publish
 1025      E7800000 
 1026              	.LVL105:
 1027              	.L51:
 224:C:/Users/stapi/OneDrive/Desktop/GD32VW553/V1_MQTT_OK/GD32VW55X_Wifi_BLE_SDK/GD32VW55x_RELEASE_V1.0.2/MSDK/cloud/alicloud/src/services/linkkit/dm\dm_message.c ****     DM_free(payload);
 1028              		.loc 1 224 5 is_stmt 1
 1029 017e 3245     		lw	a0,12(sp)
 1030 0180 97000000 		call	LITE_free_internal
 1030      E7800000 
 1031              	.LVL106:
 224:C:/Users/stapi/OneDrive/Desktop/GD32VW553/V1_MQTT_OK/GD32VW55X_Wifi_BLE_SDK/GD32VW55x_RELEASE_V1.0.2/MSDK/cloud/alicloud/src/services/linkkit/dm\dm_message.c ****     DM_free(payload);
 1032              		.loc 1 224 5
 225:C:/Users/stapi/OneDrive/Desktop/GD32VW553/V1_MQTT_OK/GD32VW55X_Wifi_BLE_SDK/GD32VW55x_RELEASE_V1.0.2/MSDK/cloud/alicloud/src/services/linkkit/dm\dm_message.c ****     return SUCCESS_RETURN;
 1033              		.loc 1 225 5 is_stmt 0
 1034 0188 2685     		mv	a0,s1
 224:C:/Users/stapi/OneDrive/Desktop/GD32VW553/V1_MQTT_OK/GD32VW55X_Wifi_BLE_SDK/GD32VW55x_RELEASE_V1.0.2/MSDK/cloud/alicloud/src/services/linkkit/dm\dm_message.c ****     DM_free(payload);
 1035              		.loc 1 224 5
 1036 018a 02C6     		sw	zero,12(sp)
 224:C:/Users/stapi/OneDrive/Desktop/GD32VW553/V1_MQTT_OK/GD32VW55X_Wifi_BLE_SDK/GD32VW55x_RELEASE_V1.0.2/MSDK/cloud/alicloud/src/services/linkkit/dm\dm_message.c ****     DM_free(payload);
 1037              		.loc 1 224 17 is_stmt 1
 225:C:/Users/stapi/OneDrive/Desktop/GD32VW553/V1_MQTT_OK/GD32VW55X_Wifi_BLE_SDK/GD32VW55x_RELEASE_V1.0.2/MSDK/cloud/alicloud/src/services/linkkit/dm\dm_message.c ****     return SUCCESS_RETURN;
 1038              		.loc 1 225 5
 1039 018c 97000000 		call	LITE_free_internal
 1039      E7800000 
 1040              	.LVL107:
 225:C:/Users/stapi/OneDrive/Desktop/GD32VW553/V1_MQTT_OK/GD32VW55X_Wifi_BLE_SDK/GD32VW55x_RELEASE_V1.0.2/MSDK/cloud/alicloud/src/services/linkkit/dm\dm_message.c ****     return SUCCESS_RETURN;
 1041              		.loc 1 225 5
 225:C:/Users/stapi/OneDrive/Desktop/GD32VW553/V1_MQTT_OK/GD32VW55X_Wifi_BLE_SDK/GD32VW55x_RELEASE_V1.0.2/MSDK/cloud/alicloud/src/services/linkkit/dm\dm_message.c ****     return SUCCESS_RETURN;
 1042              		.loc 1 225 21
 226:C:/Users/stapi/OneDrive/Desktop/GD32VW553/V1_MQTT_OK/GD32VW55X_Wifi_BLE_SDK/GD32VW55x_RELEASE_V1.0.2/MSDK/cloud/alicloud/src/services/linkkit/dm\dm_message.c **** }
 1043              		.loc 1 226 5
 226:C:/Users/stapi/OneDrive/Desktop/GD32VW553/V1_MQTT_OK/GD32VW55X_Wifi_BLE_SDK/GD32VW55x_RELEASE_V1.0.2/MSDK/cloud/alicloud/src/services/linkkit/dm\dm_message.c **** }
 1044              		.loc 1 226 12 is_stmt 0
 1045 0194 D9BD     		j	.L45
 1046              		.cfi_endproc
 1047              	.LFE28:
 1049              		.section	.rodata.dm_msg_response.str1.4,"aMS",@progbits,1
 1050              		.align	2
 1051              	.LC21:
 1052 0000 53656E64 		.string	"Send URI: %s, Payload: %s"
 1052      20555249 
 1052      3A202573 
 1052      2C205061 
 1052      796C6F61 
 1053              		.section	.text.dm_msg_response,"ax",@progbits
 1054              		.align	1
 1055              		.globl	dm_msg_response
 1057              	dm_msg_response:
 1058              	.LFB29:
 228:C:/Users/stapi/OneDrive/Desktop/GD32VW553/V1_MQTT_OK/GD32VW55X_Wifi_BLE_SDK/GD32VW55x_RELEASE_V1.0.2/MSDK/cloud/alicloud/src/services/linkkit/dm\dm_message.c **** 
 229:C:/Users/stapi/OneDrive/Desktop/GD32VW553/V1_MQTT_OK/GD32VW55X_Wifi_BLE_SDK/GD32VW55x_RELEASE_V1.0.2/MSDK/cloud/alicloud/src/services/linkkit/dm\dm_message.c **** const char DM_MSG_RESPONSE_WITH_DATA[] DM_READ_ONLY = "{\"id\":\"%.*s\",\"code\":%d,\"data\":%.*s}"
 230:C:/Users/stapi/OneDrive/Desktop/GD32VW553/V1_MQTT_OK/GD32VW55X_Wifi_BLE_SDK/GD32VW55x_RELEASE_V1.0.2/MSDK/cloud/alicloud/src/services/linkkit/dm\dm_message.c **** int dm_msg_response(dm_msg_dest_type_t type, _IN_ dm_msg_request_payload_t *request, _IN_ dm_msg_re
 231:C:/Users/stapi/OneDrive/Desktop/GD32VW553/V1_MQTT_OK/GD32VW55X_Wifi_BLE_SDK/GD32VW55x_RELEASE_V1.0.2/MSDK/cloud/alicloud/src/services/linkkit/dm\dm_message.c ****                     _IN_ char *data, _IN_ int data_len, _IN_ void *user_data)
 232:C:/Users/stapi/OneDrive/Desktop/GD32VW553/V1_MQTT_OK/GD32VW55X_Wifi_BLE_SDK/GD32VW55x_RELEASE_V1.0.2/MSDK/cloud/alicloud/src/services/linkkit/dm\dm_message.c **** {
 1059              		.loc 1 232 1 is_stmt 1
 1060              		.cfi_startproc
 1061              	.LVL108:
 1062 0000 17030000 		call	t0,__riscv_save_8
 1062      E7020300 
 1063              		.cfi_offset 23, -36
 1064              		.cfi_offset 22, -32
 1065              		.cfi_offset 21, -28
 1066              		.cfi_offset 20, -24
 1067              		.cfi_offset 19, -20
 1068              		.cfi_offset 18, -16
 1069              		.cfi_offset 9, -12
 1070              		.cfi_offset 8, -8
 1071              		.cfi_offset 1, -4
 1072              		.cfi_def_cfa_offset 48
 233:C:/Users/stapi/OneDrive/Desktop/GD32VW553/V1_MQTT_OK/GD32VW55X_Wifi_BLE_SDK/GD32VW55x_RELEASE_V1.0.2/MSDK/cloud/alicloud/src/services/linkkit/dm\dm_message.c ****     int res = 0, payload_len = 0;
 1073              		.loc 1 233 5
 1074              	.LVL109:
 234:C:/Users/stapi/OneDrive/Desktop/GD32VW553/V1_MQTT_OK/GD32VW55X_Wifi_BLE_SDK/GD32VW55x_RELEASE_V1.0.2/MSDK/cloud/alicloud/src/services/linkkit/dm\dm_message.c ****     char *uri = NULL, *payload = NULL;
 1075              		.loc 1 234 5
 232:C:/Users/stapi/OneDrive/Desktop/GD32VW553/V1_MQTT_OK/GD32VW55X_Wifi_BLE_SDK/GD32VW55x_RELEASE_V1.0.2/MSDK/cloud/alicloud/src/services/linkkit/dm\dm_message.c ****     int res = 0, payload_len = 0;
 1076              		.loc 1 232 1 is_stmt 0
 1077 0008 7971     		addi	sp,sp,-48
 1078              		.cfi_def_cfa_offset 96
 1079              		.loc 1 234 11
 1080 000a 02C6     		sw	zero,12(sp)
 1081              	.LVL110:
 235:C:/Users/stapi/OneDrive/Desktop/GD32VW553/V1_MQTT_OK/GD32VW55X_Wifi_BLE_SDK/GD32VW55x_RELEASE_V1.0.2/MSDK/cloud/alicloud/src/services/linkkit/dm\dm_message.c ****     lite_cjson_t lite;
 1082              		.loc 1 235 5 is_stmt 1
 236:C:/Users/stapi/OneDrive/Desktop/GD32VW553/V1_MQTT_OK/GD32VW55X_Wifi_BLE_SDK/GD32VW55x_RELEASE_V1.0.2/MSDK/cloud/alicloud/src/services/linkkit/dm\dm_message.c **** 
 237:C:/Users/stapi/OneDrive/Desktop/GD32VW553/V1_MQTT_OK/GD32VW55X_Wifi_BLE_SDK/GD32VW55x_RELEASE_V1.0.2/MSDK/cloud/alicloud/src/services/linkkit/dm\dm_message.c ****     if (request == NULL || response == NULL || data == NULL || data_len <= 0) {
 1083              		.loc 1 237 5
 238:C:/Users/stapi/OneDrive/Desktop/GD32VW553/V1_MQTT_OK/GD32VW55X_Wifi_BLE_SDK/GD32VW55x_RELEASE_V1.0.2/MSDK/cloud/alicloud/src/services/linkkit/dm\dm_message.c ****         return DM_INVALID_PARAMETER;
 1084              		.loc 1 238 16 is_stmt 0
 1085 000c 7954     		li	s0,-2
 237:C:/Users/stapi/OneDrive/Desktop/GD32VW553/V1_MQTT_OK/GD32VW55X_Wifi_BLE_SDK/GD32VW55x_RELEASE_V1.0.2/MSDK/cloud/alicloud/src/services/linkkit/dm\dm_message.c ****         return DM_INVALID_PARAMETER;
 1086              		.loc 1 237 8
 1087 000e A1CD     		beq	a1,zero,.L61
 1088 0010 B289     		mv	s3,a2
 1089              		.loc 1 238 16 discriminator 1
 1090 0012 7954     		li	s0,-2
 237:C:/Users/stapi/OneDrive/Desktop/GD32VW553/V1_MQTT_OK/GD32VW55X_Wifi_BLE_SDK/GD32VW55x_RELEASE_V1.0.2/MSDK/cloud/alicloud/src/services/linkkit/dm\dm_message.c ****         return DM_INVALID_PARAMETER;
 1091              		.loc 1 237 25 discriminator 1
 1092 0014 29CA     		beq	a2,zero,.L61
 1093 0016 B68B     		mv	s7,a3
 237:C:/Users/stapi/OneDrive/Desktop/GD32VW553/V1_MQTT_OK/GD32VW55X_Wifi_BLE_SDK/GD32VW55x_RELEASE_V1.0.2/MSDK/cloud/alicloud/src/services/linkkit/dm\dm_message.c ****         return DM_INVALID_PARAMETER;
 1094              		.loc 1 237 45 discriminator 2
 1095 0018 B9C6     		beq	a3,zero,.L61
 1096 001a 3A8B     		mv	s6,a4
 237:C:/Users/stapi/OneDrive/Desktop/GD32VW553/V1_MQTT_OK/GD32VW55X_Wifi_BLE_SDK/GD32VW55x_RELEASE_V1.0.2/MSDK/cloud/alicloud/src/services/linkkit/dm\dm_message.c ****         return DM_INVALID_PARAMETER;
 1097              		.loc 1 237 61 discriminator 3
 1098 001c 6355E004 		ble	a4,zero,.L61
 1099 0020 AA8A     		mv	s5,a0
 1100 0022 2E8A     		mv	s4,a1
 239:C:/Users/stapi/OneDrive/Desktop/GD32VW553/V1_MQTT_OK/GD32VW55X_Wifi_BLE_SDK/GD32VW55x_RELEASE_V1.0.2/MSDK/cloud/alicloud/src/services/linkkit/dm\dm_message.c ****     }
 240:C:/Users/stapi/OneDrive/Desktop/GD32VW553/V1_MQTT_OK/GD32VW55X_Wifi_BLE_SDK/GD32VW55x_RELEASE_V1.0.2/MSDK/cloud/alicloud/src/services/linkkit/dm\dm_message.c **** 
 241:C:/Users/stapi/OneDrive/Desktop/GD32VW553/V1_MQTT_OK/GD32VW55X_Wifi_BLE_SDK/GD32VW55x_RELEASE_V1.0.2/MSDK/cloud/alicloud/src/services/linkkit/dm\dm_message.c ****     /* Response URI */
 242:C:/Users/stapi/OneDrive/Desktop/GD32VW553/V1_MQTT_OK/GD32VW55X_Wifi_BLE_SDK/GD32VW55x_RELEASE_V1.0.2/MSDK/cloud/alicloud/src/services/linkkit/dm\dm_message.c ****     res = dm_utils_service_name(response->service_prefix, response->service_name,
 1101              		.loc 1 242 5 is_stmt 1
 1102              		.loc 1 242 11 is_stmt 0
 1103 0024 03A50900 		lw	a0,0(s3)
 1104              	.LVL111:
 1105 0028 83A54900 		lw	a1,4(s3)
 1106              	.LVL112:
 1107 002c 9306D601 		addi	a3,a2,29
 1108              	.LVL113:
 1109 0030 7800     		addi	a4,sp,12
 1110              	.LVL114:
 1111 0032 2106     		addi	a2,a2,8
 1112              	.LVL115:
 1113 0034 97000000 		call	dm_utils_service_name
 1113      E7800000 
 1114              	.LVL116:
 1115 003c 2A84     		mv	s0,a0
 1116              	.LVL117:
 243:C:/Users/stapi/OneDrive/Desktop/GD32VW553/V1_MQTT_OK/GD32VW55X_Wifi_BLE_SDK/GD32VW55x_RELEASE_V1.0.2/MSDK/cloud/alicloud/src/services/linkkit/dm\dm_message.c ****                                 response->product_key, response->device_name, &uri);
 244:C:/Users/stapi/OneDrive/Desktop/GD32VW553/V1_MQTT_OK/GD32VW55X_Wifi_BLE_SDK/GD32VW55x_RELEASE_V1.0.2/MSDK/cloud/alicloud/src/services/linkkit/dm\dm_message.c ****     if (res != SUCCESS_RETURN) {
 1117              		.loc 1 244 5 is_stmt 1
 1118              		.loc 1 244 8 is_stmt 0
 1119 003e 61E9     		bne	a0,zero,.L70
 245:C:/Users/stapi/OneDrive/Desktop/GD32VW553/V1_MQTT_OK/GD32VW55X_Wifi_BLE_SDK/GD32VW55x_RELEASE_V1.0.2/MSDK/cloud/alicloud/src/services/linkkit/dm\dm_message.c ****         return FAIL_RETURN;
 246:C:/Users/stapi/OneDrive/Desktop/GD32VW553/V1_MQTT_OK/GD32VW55X_Wifi_BLE_SDK/GD32VW55x_RELEASE_V1.0.2/MSDK/cloud/alicloud/src/services/linkkit/dm\dm_message.c ****     }
 247:C:/Users/stapi/OneDrive/Desktop/GD32VW553/V1_MQTT_OK/GD32VW55X_Wifi_BLE_SDK/GD32VW55x_RELEASE_V1.0.2/MSDK/cloud/alicloud/src/services/linkkit/dm\dm_message.c **** 
 248:C:/Users/stapi/OneDrive/Desktop/GD32VW553/V1_MQTT_OK/GD32VW55X_Wifi_BLE_SDK/GD32VW55x_RELEASE_V1.0.2/MSDK/cloud/alicloud/src/services/linkkit/dm\dm_message.c ****     /* Response Payload */
 249:C:/Users/stapi/OneDrive/Desktop/GD32VW553/V1_MQTT_OK/GD32VW55X_Wifi_BLE_SDK/GD32VW55x_RELEASE_V1.0.2/MSDK/cloud/alicloud/src/services/linkkit/dm\dm_message.c ****     payload_len = strlen(DM_MSG_RESPONSE_WITH_DATA) + request->id.value_length + DM_UTILS_UINT32_ST
 1120              		.loc 1 249 5 is_stmt 1
 1121              		.loc 1 249 116 is_stmt 0
 1122 0040 83278A00 		lw	a5,8(s4)
 1123 0044 1309EB02 		addi	s2,s6,46
 250:C:/Users/stapi/OneDrive/Desktop/GD32VW553/V1_MQTT_OK/GD32VW55X_Wifi_BLE_SDK/GD32VW55x_RELEASE_V1.0.2/MSDK/cloud/alicloud/src/services/linkkit/dm\dm_message.c ****     payload = DM_malloc(payload_len);
 1124              		.loc 1 250 15
 1125 0048 8145     		li	a1,0
 249:C:/Users/stapi/OneDrive/Desktop/GD32VW553/V1_MQTT_OK/GD32VW55X_Wifi_BLE_SDK/GD32VW55x_RELEASE_V1.0.2/MSDK/cloud/alicloud/src/services/linkkit/dm\dm_message.c ****     payload = DM_malloc(payload_len);
 1126              		.loc 1 249 116
 1127 004a 3E99     		add	s2,s2,a5
 1128              	.LVL118:
 1129              		.loc 1 250 5 is_stmt 1
 1130              		.loc 1 250 15 is_stmt 0
 1131 004c 4A86     		mv	a2,s2
 1132 004e 97000000 		call	LITE_malloc_internal
 1132      E7800000 
 1133              	.LVL119:
 1134 0056 AA84     		mv	s1,a0
 1135              	.LVL120:
 251:C:/Users/stapi/OneDrive/Desktop/GD32VW553/V1_MQTT_OK/GD32VW55X_Wifi_BLE_SDK/GD32VW55x_RELEASE_V1.0.2/MSDK/cloud/alicloud/src/services/linkkit/dm\dm_message.c ****     if (payload == NULL) {
 1136              		.loc 1 251 5 is_stmt 1
 1137              		.loc 1 251 8 is_stmt 0
 1138 0058 09ED     		bne	a0,zero,.L63
 252:C:/Users/stapi/OneDrive/Desktop/GD32VW553/V1_MQTT_OK/GD32VW55X_Wifi_BLE_SDK/GD32VW55x_RELEASE_V1.0.2/MSDK/cloud/alicloud/src/services/linkkit/dm\dm_message.c ****         DM_free(uri);
 1139              		.loc 1 252 9 is_stmt 1
 1140 005a 3245     		lw	a0,12(sp)
 253:C:/Users/stapi/OneDrive/Desktop/GD32VW553/V1_MQTT_OK/GD32VW55X_Wifi_BLE_SDK/GD32VW55x_RELEASE_V1.0.2/MSDK/cloud/alicloud/src/services/linkkit/dm\dm_message.c ****         return DM_MEMORY_NOT_ENOUGH;
 1141              		.loc 1 253 16 is_stmt 0
 1142 005c 7554     		li	s0,-3
 1143              	.LVL121:
 252:C:/Users/stapi/OneDrive/Desktop/GD32VW553/V1_MQTT_OK/GD32VW55X_Wifi_BLE_SDK/GD32VW55x_RELEASE_V1.0.2/MSDK/cloud/alicloud/src/services/linkkit/dm\dm_message.c ****         DM_free(uri);
 1144              		.loc 1 252 9
 1145 005e 97000000 		call	LITE_free_internal
 1145      E7800000 
 1146              	.LVL122:
 252:C:/Users/stapi/OneDrive/Desktop/GD32VW553/V1_MQTT_OK/GD32VW55X_Wifi_BLE_SDK/GD32VW55x_RELEASE_V1.0.2/MSDK/cloud/alicloud/src/services/linkkit/dm\dm_message.c ****         DM_free(uri);
 1147              		.loc 1 252 9 is_stmt 1
 252:C:/Users/stapi/OneDrive/Desktop/GD32VW553/V1_MQTT_OK/GD32VW55X_Wifi_BLE_SDK/GD32VW55x_RELEASE_V1.0.2/MSDK/cloud/alicloud/src/services/linkkit/dm\dm_message.c ****         DM_free(uri);
 1148              		.loc 1 252 21
 1149              		.loc 1 253 9
 1150              	.L61:
 254:C:/Users/stapi/OneDrive/Desktop/GD32VW553/V1_MQTT_OK/GD32VW55X_Wifi_BLE_SDK/GD32VW55x_RELEASE_V1.0.2/MSDK/cloud/alicloud/src/services/linkkit/dm\dm_message.c ****     }
 255:C:/Users/stapi/OneDrive/Desktop/GD32VW553/V1_MQTT_OK/GD32VW55X_Wifi_BLE_SDK/GD32VW55x_RELEASE_V1.0.2/MSDK/cloud/alicloud/src/services/linkkit/dm\dm_message.c ****     memset(payload, 0, payload_len);
 256:C:/Users/stapi/OneDrive/Desktop/GD32VW553/V1_MQTT_OK/GD32VW55X_Wifi_BLE_SDK/GD32VW55x_RELEASE_V1.0.2/MSDK/cloud/alicloud/src/services/linkkit/dm\dm_message.c ****     HAL_Snprintf(payload, payload_len, DM_MSG_RESPONSE_WITH_DATA,
 257:C:/Users/stapi/OneDrive/Desktop/GD32VW553/V1_MQTT_OK/GD32VW55X_Wifi_BLE_SDK/GD32VW55x_RELEASE_V1.0.2/MSDK/cloud/alicloud/src/services/linkkit/dm\dm_message.c ****                  request->id.value_length, request->id.value, response->code, data_len, data);
 258:C:/Users/stapi/OneDrive/Desktop/GD32VW553/V1_MQTT_OK/GD32VW55X_Wifi_BLE_SDK/GD32VW55x_RELEASE_V1.0.2/MSDK/cloud/alicloud/src/services/linkkit/dm\dm_message.c **** 
 259:C:/Users/stapi/OneDrive/Desktop/GD32VW553/V1_MQTT_OK/GD32VW55X_Wifi_BLE_SDK/GD32VW55x_RELEASE_V1.0.2/MSDK/cloud/alicloud/src/services/linkkit/dm\dm_message.c ****     memset(&lite, 0, sizeof(lite_cjson_t));
 260:C:/Users/stapi/OneDrive/Desktop/GD32VW553/V1_MQTT_OK/GD32VW55X_Wifi_BLE_SDK/GD32VW55x_RELEASE_V1.0.2/MSDK/cloud/alicloud/src/services/linkkit/dm\dm_message.c ****     res = lite_cjson_parse(payload, payload_len, &lite);
 261:C:/Users/stapi/OneDrive/Desktop/GD32VW553/V1_MQTT_OK/GD32VW55X_Wifi_BLE_SDK/GD32VW55x_RELEASE_V1.0.2/MSDK/cloud/alicloud/src/services/linkkit/dm\dm_message.c ****     if (res < SUCCESS_RETURN) {
 262:C:/Users/stapi/OneDrive/Desktop/GD32VW553/V1_MQTT_OK/GD32VW55X_Wifi_BLE_SDK/GD32VW55x_RELEASE_V1.0.2/MSDK/cloud/alicloud/src/services/linkkit/dm\dm_message.c ****         dm_log_info("Wrong JSON Format, URI: %s, Payload: %s", uri, payload);
 263:C:/Users/stapi/OneDrive/Desktop/GD32VW553/V1_MQTT_OK/GD32VW55X_Wifi_BLE_SDK/GD32VW55x_RELEASE_V1.0.2/MSDK/cloud/alicloud/src/services/linkkit/dm\dm_message.c ****         DM_free(uri);
 264:C:/Users/stapi/OneDrive/Desktop/GD32VW553/V1_MQTT_OK/GD32VW55X_Wifi_BLE_SDK/GD32VW55x_RELEASE_V1.0.2/MSDK/cloud/alicloud/src/services/linkkit/dm\dm_message.c ****         DM_free(payload);
 265:C:/Users/stapi/OneDrive/Desktop/GD32VW553/V1_MQTT_OK/GD32VW55X_Wifi_BLE_SDK/GD32VW55x_RELEASE_V1.0.2/MSDK/cloud/alicloud/src/services/linkkit/dm\dm_message.c ****         return FAIL_RETURN;
 266:C:/Users/stapi/OneDrive/Desktop/GD32VW553/V1_MQTT_OK/GD32VW55X_Wifi_BLE_SDK/GD32VW55x_RELEASE_V1.0.2/MSDK/cloud/alicloud/src/services/linkkit/dm\dm_message.c ****     }
 267:C:/Users/stapi/OneDrive/Desktop/GD32VW553/V1_MQTT_OK/GD32VW55X_Wifi_BLE_SDK/GD32VW55x_RELEASE_V1.0.2/MSDK/cloud/alicloud/src/services/linkkit/dm\dm_message.c **** 
 268:C:/Users/stapi/OneDrive/Desktop/GD32VW553/V1_MQTT_OK/GD32VW55X_Wifi_BLE_SDK/GD32VW55x_RELEASE_V1.0.2/MSDK/cloud/alicloud/src/services/linkkit/dm\dm_message.c ****     dm_log_info("Send URI: %s, Payload: %s", uri, payload);
 269:C:/Users/stapi/OneDrive/Desktop/GD32VW553/V1_MQTT_OK/GD32VW55X_Wifi_BLE_SDK/GD32VW55x_RELEASE_V1.0.2/MSDK/cloud/alicloud/src/services/linkkit/dm\dm_message.c **** 
 270:C:/Users/stapi/OneDrive/Desktop/GD32VW553/V1_MQTT_OK/GD32VW55X_Wifi_BLE_SDK/GD32VW55x_RELEASE_V1.0.2/MSDK/cloud/alicloud/src/services/linkkit/dm\dm_message.c ****     if (type & DM_MSG_DEST_CLOUD) {
 271:C:/Users/stapi/OneDrive/Desktop/GD32VW553/V1_MQTT_OK/GD32VW55X_Wifi_BLE_SDK/GD32VW55x_RELEASE_V1.0.2/MSDK/cloud/alicloud/src/services/linkkit/dm\dm_message.c ****         dm_client_publish(uri, (unsigned char *)payload, strlen(payload), NULL);
 272:C:/Users/stapi/OneDrive/Desktop/GD32VW553/V1_MQTT_OK/GD32VW55X_Wifi_BLE_SDK/GD32VW55x_RELEASE_V1.0.2/MSDK/cloud/alicloud/src/services/linkkit/dm\dm_message.c ****     }
 273:C:/Users/stapi/OneDrive/Desktop/GD32VW553/V1_MQTT_OK/GD32VW55X_Wifi_BLE_SDK/GD32VW55x_RELEASE_V1.0.2/MSDK/cloud/alicloud/src/services/linkkit/dm\dm_message.c **** 
 274:C:/Users/stapi/OneDrive/Desktop/GD32VW553/V1_MQTT_OK/GD32VW55X_Wifi_BLE_SDK/GD32VW55x_RELEASE_V1.0.2/MSDK/cloud/alicloud/src/services/linkkit/dm\dm_message.c **** #ifdef ALCS_ENABLED
 275:C:/Users/stapi/OneDrive/Desktop/GD32VW553/V1_MQTT_OK/GD32VW55X_Wifi_BLE_SDK/GD32VW55x_RELEASE_V1.0.2/MSDK/cloud/alicloud/src/services/linkkit/dm\dm_message.c ****     //if (type & DM_MSG_DEST_LOCAL) {
 276:C:/Users/stapi/OneDrive/Desktop/GD32VW553/V1_MQTT_OK/GD32VW55X_Wifi_BLE_SDK/GD32VW55x_RELEASE_V1.0.2/MSDK/cloud/alicloud/src/services/linkkit/dm\dm_message.c ****     if (type & DM_MSG_DEST_LOCAL && strstr(uri, "Rhythm_reply") == NULL) {
 277:C:/Users/stapi/OneDrive/Desktop/GD32VW553/V1_MQTT_OK/GD32VW55X_Wifi_BLE_SDK/GD32VW55x_RELEASE_V1.0.2/MSDK/cloud/alicloud/src/services/linkkit/dm\dm_message.c ****         do {
 278:C:/Users/stapi/OneDrive/Desktop/GD32VW553/V1_MQTT_OK/GD32VW55X_Wifi_BLE_SDK/GD32VW55x_RELEASE_V1.0.2/MSDK/cloud/alicloud/src/services/linkkit/dm\dm_message.c ****             if(strlen(uri) < 6) {
 279:C:/Users/stapi/OneDrive/Desktop/GD32VW553/V1_MQTT_OK/GD32VW55X_Wifi_BLE_SDK/GD32VW55x_RELEASE_V1.0.2/MSDK/cloud/alicloud/src/services/linkkit/dm\dm_message.c ****                 break;
 280:C:/Users/stapi/OneDrive/Desktop/GD32VW553/V1_MQTT_OK/GD32VW55X_Wifi_BLE_SDK/GD32VW55x_RELEASE_V1.0.2/MSDK/cloud/alicloud/src/services/linkkit/dm\dm_message.c ****             }
 281:C:/Users/stapi/OneDrive/Desktop/GD32VW553/V1_MQTT_OK/GD32VW55X_Wifi_BLE_SDK/GD32VW55x_RELEASE_V1.0.2/MSDK/cloud/alicloud/src/services/linkkit/dm\dm_message.c ****             char *end = uri + strlen(uri) - 6;
 282:C:/Users/stapi/OneDrive/Desktop/GD32VW553/V1_MQTT_OK/GD32VW55X_Wifi_BLE_SDK/GD32VW55x_RELEASE_V1.0.2/MSDK/cloud/alicloud/src/services/linkkit/dm\dm_message.c ****             if (strstr(end, "_reply") != 0) {
 283:C:/Users/stapi/OneDrive/Desktop/GD32VW553/V1_MQTT_OK/GD32VW55X_Wifi_BLE_SDK/GD32VW55x_RELEASE_V1.0.2/MSDK/cloud/alicloud/src/services/linkkit/dm\dm_message.c ****                 *end = '\0';
 284:C:/Users/stapi/OneDrive/Desktop/GD32VW553/V1_MQTT_OK/GD32VW55X_Wifi_BLE_SDK/GD32VW55x_RELEASE_V1.0.2/MSDK/cloud/alicloud/src/services/linkkit/dm\dm_message.c ****             }
 285:C:/Users/stapi/OneDrive/Desktop/GD32VW553/V1_MQTT_OK/GD32VW55X_Wifi_BLE_SDK/GD32VW55x_RELEASE_V1.0.2/MSDK/cloud/alicloud/src/services/linkkit/dm\dm_message.c ****             dm_server_send(uri, (unsigned char *)payload, strlen(payload), user_data);
 286:C:/Users/stapi/OneDrive/Desktop/GD32VW553/V1_MQTT_OK/GD32VW55X_Wifi_BLE_SDK/GD32VW55x_RELEASE_V1.0.2/MSDK/cloud/alicloud/src/services/linkkit/dm\dm_message.c ****         }while(0);
 287:C:/Users/stapi/OneDrive/Desktop/GD32VW553/V1_MQTT_OK/GD32VW55X_Wifi_BLE_SDK/GD32VW55x_RELEASE_V1.0.2/MSDK/cloud/alicloud/src/services/linkkit/dm\dm_message.c **** 
 288:C:/Users/stapi/OneDrive/Desktop/GD32VW553/V1_MQTT_OK/GD32VW55X_Wifi_BLE_SDK/GD32VW55x_RELEASE_V1.0.2/MSDK/cloud/alicloud/src/services/linkkit/dm\dm_message.c ****     }
 289:C:/Users/stapi/OneDrive/Desktop/GD32VW553/V1_MQTT_OK/GD32VW55X_Wifi_BLE_SDK/GD32VW55x_RELEASE_V1.0.2/MSDK/cloud/alicloud/src/services/linkkit/dm\dm_message.c **** #endif
 290:C:/Users/stapi/OneDrive/Desktop/GD32VW553/V1_MQTT_OK/GD32VW55X_Wifi_BLE_SDK/GD32VW55x_RELEASE_V1.0.2/MSDK/cloud/alicloud/src/services/linkkit/dm\dm_message.c **** 
 291:C:/Users/stapi/OneDrive/Desktop/GD32VW553/V1_MQTT_OK/GD32VW55X_Wifi_BLE_SDK/GD32VW55x_RELEASE_V1.0.2/MSDK/cloud/alicloud/src/services/linkkit/dm\dm_message.c ****     DM_free(uri);
 292:C:/Users/stapi/OneDrive/Desktop/GD32VW553/V1_MQTT_OK/GD32VW55X_Wifi_BLE_SDK/GD32VW55x_RELEASE_V1.0.2/MSDK/cloud/alicloud/src/services/linkkit/dm\dm_message.c ****     DM_free(payload);
 293:C:/Users/stapi/OneDrive/Desktop/GD32VW553/V1_MQTT_OK/GD32VW55X_Wifi_BLE_SDK/GD32VW55x_RELEASE_V1.0.2/MSDK/cloud/alicloud/src/services/linkkit/dm\dm_message.c **** 
 294:C:/Users/stapi/OneDrive/Desktop/GD32VW553/V1_MQTT_OK/GD32VW55X_Wifi_BLE_SDK/GD32VW55x_RELEASE_V1.0.2/MSDK/cloud/alicloud/src/services/linkkit/dm\dm_message.c ****     return SUCCESS_RETURN;
 295:C:/Users/stapi/OneDrive/Desktop/GD32VW553/V1_MQTT_OK/GD32VW55X_Wifi_BLE_SDK/GD32VW55x_RELEASE_V1.0.2/MSDK/cloud/alicloud/src/services/linkkit/dm\dm_message.c **** }
 1151              		.loc 1 295 1 is_stmt 0
 1152 0066 2285     		mv	a0,s0
 1153 0068 4561     		addi	sp,sp,48
 1154              		.cfi_remember_state
 1155              		.cfi_def_cfa_offset 0
 1156 006a 17030000 		tail	__riscv_restore_8
 1156      67000300 
 1157              		.cfi_restore 23
 1158              		.cfi_restore 22
 1159              		.cfi_restore 21
 1160              		.cfi_restore 20
 1161              		.cfi_restore 19
 1162              		.cfi_restore 18
 1163              		.cfi_restore 9
 1164              		.cfi_restore 8
 1165              		.cfi_restore 1
 1166              		.cfi_def_cfa_offset -48
 1167              	.LVL123:
 1168              	.L63:
 1169              		.cfi_restore_state
 255:C:/Users/stapi/OneDrive/Desktop/GD32VW553/V1_MQTT_OK/GD32VW55X_Wifi_BLE_SDK/GD32VW55x_RELEASE_V1.0.2/MSDK/cloud/alicloud/src/services/linkkit/dm\dm_message.c ****     HAL_Snprintf(payload, payload_len, DM_MSG_RESPONSE_WITH_DATA,
 1170              		.loc 1 255 5 is_stmt 1
 1171 0072 4A86     		mv	a2,s2
 1172 0074 8145     		li	a1,0
 1173 0076 97000000 		call	memset
 1173      E7800000 
 1174              	.LVL124:
 256:C:/Users/stapi/OneDrive/Desktop/GD32VW553/V1_MQTT_OK/GD32VW55X_Wifi_BLE_SDK/GD32VW55x_RELEASE_V1.0.2/MSDK/cloud/alicloud/src/services/linkkit/dm\dm_message.c ****                  request->id.value_length, request->id.value, response->code, data_len, data);
 1175              		.loc 1 256 5
 1176 007e 83A70904 		lw	a5,64(s3)
 1177 0082 03274A00 		lw	a4,4(s4)
 1178 0086 83268A00 		lw	a3,8(s4)
 1179 008a 37060000 		lui	a2,%hi(.LANCHOR6)
 1180 008e DE88     		mv	a7,s7
 1181 0090 5A88     		mv	a6,s6
 1182 0092 CA85     		mv	a1,s2
 1183 0094 13060600 		addi	a2,a2,%lo(.LANCHOR6)
 1184 0098 2685     		mv	a0,s1
 1185 009a 97000000 		call	HAL_Snprintf
 1185      E7800000 
 1186              	.LVL125:
 259:C:/Users/stapi/OneDrive/Desktop/GD32VW553/V1_MQTT_OK/GD32VW55X_Wifi_BLE_SDK/GD32VW55x_RELEASE_V1.0.2/MSDK/cloud/alicloud/src/services/linkkit/dm\dm_message.c ****     res = lite_cjson_parse(payload, payload_len, &lite);
 1187              		.loc 1 259 5
 1188 00a2 13060002 		li	a2,32
 1189 00a6 8145     		li	a1,0
 1190 00a8 0808     		addi	a0,sp,16
 1191 00aa 97000000 		call	memset
 1191      E7800000 
 1192              	.LVL126:
 260:C:/Users/stapi/OneDrive/Desktop/GD32VW553/V1_MQTT_OK/GD32VW55X_Wifi_BLE_SDK/GD32VW55x_RELEASE_V1.0.2/MSDK/cloud/alicloud/src/services/linkkit/dm\dm_message.c ****     if (res < SUCCESS_RETURN) {
 1193              		.loc 1 260 5
 260:C:/Users/stapi/OneDrive/Desktop/GD32VW553/V1_MQTT_OK/GD32VW55X_Wifi_BLE_SDK/GD32VW55x_RELEASE_V1.0.2/MSDK/cloud/alicloud/src/services/linkkit/dm\dm_message.c ****     if (res < SUCCESS_RETURN) {
 1194              		.loc 1 260 11 is_stmt 0
 1195 00b2 CA85     		mv	a1,s2
 1196 00b4 1008     		addi	a2,sp,16
 1197 00b6 2685     		mv	a0,s1
 1198 00b8 97000000 		call	lite_cjson_parse
 1198      E7800000 
 1199              	.LVL127:
 261:C:/Users/stapi/OneDrive/Desktop/GD32VW553/V1_MQTT_OK/GD32VW55X_Wifi_BLE_SDK/GD32VW55x_RELEASE_V1.0.2/MSDK/cloud/alicloud/src/services/linkkit/dm\dm_message.c ****         dm_log_info("Wrong JSON Format, URI: %s, Payload: %s", uri, payload);
 1200              		.loc 1 261 5 is_stmt 1
 1201 00c0 B7070000 		lui	a5,%hi(.LC0)
 1202 00c4 37090000 		lui	s2,%hi(.LC2)
 1203              	.LVL128:
 261:C:/Users/stapi/OneDrive/Desktop/GD32VW553/V1_MQTT_OK/GD32VW55X_Wifi_BLE_SDK/GD32VW55x_RELEASE_V1.0.2/MSDK/cloud/alicloud/src/services/linkkit/dm\dm_message.c ****         dm_log_info("Wrong JSON Format, URI: %s, Payload: %s", uri, payload);
 1204              		.loc 1 261 8 is_stmt 0
 1205 00c8 63550504 		bge	a0,zero,.L64
 262:C:/Users/stapi/OneDrive/Desktop/GD32VW553/V1_MQTT_OK/GD32VW55X_Wifi_BLE_SDK/GD32VW55x_RELEASE_V1.0.2/MSDK/cloud/alicloud/src/services/linkkit/dm\dm_message.c ****         DM_free(uri);
 1206              		.loc 1 262 9 is_stmt 1
 262:C:/Users/stapi/OneDrive/Desktop/GD32VW553/V1_MQTT_OK/GD32VW55X_Wifi_BLE_SDK/GD32VW55x_RELEASE_V1.0.2/MSDK/cloud/alicloud/src/services/linkkit/dm\dm_message.c ****         DM_free(uri);
 1207              		.loc 1 262 9
 1208 00cc 13850700 		addi	a0,a5,%lo(.LC0)
 1209              	.LVL129:
 1210 00d0 97000000 		call	HAL_Printf
 1210      E7800000 
 1211              	.LVL130:
 262:C:/Users/stapi/OneDrive/Desktop/GD32VW553/V1_MQTT_OK/GD32VW55X_Wifi_BLE_SDK/GD32VW55x_RELEASE_V1.0.2/MSDK/cloud/alicloud/src/services/linkkit/dm\dm_message.c ****         DM_free(uri);
 1212              		.loc 1 262 9
 1213 00d8 B245     		lw	a1,12(sp)
 1214 00da 37050000 		lui	a0,%hi(.LC19)
 1215 00de 2686     		mv	a2,s1
 1216 00e0 13050500 		addi	a0,a0,%lo(.LC19)
 1217 00e4 97000000 		call	HAL_Printf
 1217      E7800000 
 1218              	.LVL131:
 262:C:/Users/stapi/OneDrive/Desktop/GD32VW553/V1_MQTT_OK/GD32VW55X_Wifi_BLE_SDK/GD32VW55x_RELEASE_V1.0.2/MSDK/cloud/alicloud/src/services/linkkit/dm\dm_message.c ****         DM_free(uri);
 1219              		.loc 1 262 9
 1220 00ec 13050900 		addi	a0,s2,%lo(.LC2)
 1221 00f0 97000000 		call	HAL_Printf
 1221      E7800000 
 1222              	.LVL132:
 262:C:/Users/stapi/OneDrive/Desktop/GD32VW553/V1_MQTT_OK/GD32VW55X_Wifi_BLE_SDK/GD32VW55x_RELEASE_V1.0.2/MSDK/cloud/alicloud/src/services/linkkit/dm\dm_message.c ****         DM_free(uri);
 1223              		.loc 1 262 9
 263:C:/Users/stapi/OneDrive/Desktop/GD32VW553/V1_MQTT_OK/GD32VW55X_Wifi_BLE_SDK/GD32VW55x_RELEASE_V1.0.2/MSDK/cloud/alicloud/src/services/linkkit/dm\dm_message.c ****         DM_free(payload);
 1224              		.loc 1 263 9
 1225 00f8 3245     		lw	a0,12(sp)
 1226 00fa 97000000 		call	LITE_free_internal
 1226      E7800000 
 1227              	.LVL133:
 263:C:/Users/stapi/OneDrive/Desktop/GD32VW553/V1_MQTT_OK/GD32VW55X_Wifi_BLE_SDK/GD32VW55x_RELEASE_V1.0.2/MSDK/cloud/alicloud/src/services/linkkit/dm\dm_message.c ****         DM_free(payload);
 1228              		.loc 1 263 9
 264:C:/Users/stapi/OneDrive/Desktop/GD32VW553/V1_MQTT_OK/GD32VW55X_Wifi_BLE_SDK/GD32VW55x_RELEASE_V1.0.2/MSDK/cloud/alicloud/src/services/linkkit/dm\dm_message.c ****         return FAIL_RETURN;
 1229              		.loc 1 264 9 is_stmt 0
 1230 0102 2685     		mv	a0,s1
 263:C:/Users/stapi/OneDrive/Desktop/GD32VW553/V1_MQTT_OK/GD32VW55X_Wifi_BLE_SDK/GD32VW55x_RELEASE_V1.0.2/MSDK/cloud/alicloud/src/services/linkkit/dm\dm_message.c ****         DM_free(payload);
 1231              		.loc 1 263 9
 1232 0104 02C6     		sw	zero,12(sp)
 263:C:/Users/stapi/OneDrive/Desktop/GD32VW553/V1_MQTT_OK/GD32VW55X_Wifi_BLE_SDK/GD32VW55x_RELEASE_V1.0.2/MSDK/cloud/alicloud/src/services/linkkit/dm\dm_message.c ****         DM_free(payload);
 1233              		.loc 1 263 21 is_stmt 1
 264:C:/Users/stapi/OneDrive/Desktop/GD32VW553/V1_MQTT_OK/GD32VW55X_Wifi_BLE_SDK/GD32VW55x_RELEASE_V1.0.2/MSDK/cloud/alicloud/src/services/linkkit/dm\dm_message.c ****         return FAIL_RETURN;
 1234              		.loc 1 264 9
 1235 0106 97000000 		call	LITE_free_internal
 1235      E7800000 
 1236              	.LVL134:
 264:C:/Users/stapi/OneDrive/Desktop/GD32VW553/V1_MQTT_OK/GD32VW55X_Wifi_BLE_SDK/GD32VW55x_RELEASE_V1.0.2/MSDK/cloud/alicloud/src/services/linkkit/dm\dm_message.c ****         return FAIL_RETURN;
 1237              		.loc 1 264 9
 264:C:/Users/stapi/OneDrive/Desktop/GD32VW553/V1_MQTT_OK/GD32VW55X_Wifi_BLE_SDK/GD32VW55x_RELEASE_V1.0.2/MSDK/cloud/alicloud/src/services/linkkit/dm\dm_message.c ****         return FAIL_RETURN;
 1238              		.loc 1 264 25
 265:C:/Users/stapi/OneDrive/Desktop/GD32VW553/V1_MQTT_OK/GD32VW55X_Wifi_BLE_SDK/GD32VW55x_RELEASE_V1.0.2/MSDK/cloud/alicloud/src/services/linkkit/dm\dm_message.c ****     }
 1239              		.loc 1 265 9
 1240              	.L70:
 245:C:/Users/stapi/OneDrive/Desktop/GD32VW553/V1_MQTT_OK/GD32VW55X_Wifi_BLE_SDK/GD32VW55x_RELEASE_V1.0.2/MSDK/cloud/alicloud/src/services/linkkit/dm\dm_message.c ****     }
 1241              		.loc 1 245 16 is_stmt 0
 1242 010e 7D54     		li	s0,-1
 1243 0110 99BF     		j	.L61
 1244              	.LVL135:
 1245              	.L64:
 268:C:/Users/stapi/OneDrive/Desktop/GD32VW553/V1_MQTT_OK/GD32VW55X_Wifi_BLE_SDK/GD32VW55x_RELEASE_V1.0.2/MSDK/cloud/alicloud/src/services/linkkit/dm\dm_message.c **** 
 1246              		.loc 1 268 5 is_stmt 1
 268:C:/Users/stapi/OneDrive/Desktop/GD32VW553/V1_MQTT_OK/GD32VW55X_Wifi_BLE_SDK/GD32VW55x_RELEASE_V1.0.2/MSDK/cloud/alicloud/src/services/linkkit/dm\dm_message.c **** 
 1247              		.loc 1 268 5
 1248 0112 13850700 		addi	a0,a5,%lo(.LC0)
 1249              	.LVL136:
 1250 0116 97000000 		call	HAL_Printf
 1250      E7800000 
 1251              	.LVL137:
 268:C:/Users/stapi/OneDrive/Desktop/GD32VW553/V1_MQTT_OK/GD32VW55X_Wifi_BLE_SDK/GD32VW55x_RELEASE_V1.0.2/MSDK/cloud/alicloud/src/services/linkkit/dm\dm_message.c **** 
 1252              		.loc 1 268 5
 1253 011e B245     		lw	a1,12(sp)
 1254 0120 37050000 		lui	a0,%hi(.LC21)
 1255 0124 2686     		mv	a2,s1
 1256 0126 13050500 		addi	a0,a0,%lo(.LC21)
 1257 012a 97000000 		call	HAL_Printf
 1257      E7800000 
 1258              	.LVL138:
 268:C:/Users/stapi/OneDrive/Desktop/GD32VW553/V1_MQTT_OK/GD32VW55X_Wifi_BLE_SDK/GD32VW55x_RELEASE_V1.0.2/MSDK/cloud/alicloud/src/services/linkkit/dm\dm_message.c **** 
 1259              		.loc 1 268 5
 1260 0132 13050900 		addi	a0,s2,%lo(.LC2)
 270:C:/Users/stapi/OneDrive/Desktop/GD32VW553/V1_MQTT_OK/GD32VW55X_Wifi_BLE_SDK/GD32VW55x_RELEASE_V1.0.2/MSDK/cloud/alicloud/src/services/linkkit/dm\dm_message.c ****         dm_client_publish(uri, (unsigned char *)payload, strlen(payload), NULL);
 1261              		.loc 1 270 14 is_stmt 0
 1262 0136 93FA1A00 		andi	s5,s5,1
 1263              	.LVL139:
 268:C:/Users/stapi/OneDrive/Desktop/GD32VW553/V1_MQTT_OK/GD32VW55X_Wifi_BLE_SDK/GD32VW55x_RELEASE_V1.0.2/MSDK/cloud/alicloud/src/services/linkkit/dm\dm_message.c **** 
 1264              		.loc 1 268 5
 1265 013a 97000000 		call	HAL_Printf
 1265      E7800000 
 1266              	.LVL140:
 268:C:/Users/stapi/OneDrive/Desktop/GD32VW553/V1_MQTT_OK/GD32VW55X_Wifi_BLE_SDK/GD32VW55x_RELEASE_V1.0.2/MSDK/cloud/alicloud/src/services/linkkit/dm\dm_message.c **** 
 1267              		.loc 1 268 5 is_stmt 1
 270:C:/Users/stapi/OneDrive/Desktop/GD32VW553/V1_MQTT_OK/GD32VW55X_Wifi_BLE_SDK/GD32VW55x_RELEASE_V1.0.2/MSDK/cloud/alicloud/src/services/linkkit/dm\dm_message.c ****         dm_client_publish(uri, (unsigned char *)payload, strlen(payload), NULL);
 1268              		.loc 1 270 5
 270:C:/Users/stapi/OneDrive/Desktop/GD32VW553/V1_MQTT_OK/GD32VW55X_Wifi_BLE_SDK/GD32VW55x_RELEASE_V1.0.2/MSDK/cloud/alicloud/src/services/linkkit/dm\dm_message.c ****         dm_client_publish(uri, (unsigned char *)payload, strlen(payload), NULL);
 1269              		.loc 1 270 8 is_stmt 0
 1270 0142 638F0A00 		beq	s5,zero,.L65
 271:C:/Users/stapi/OneDrive/Desktop/GD32VW553/V1_MQTT_OK/GD32VW55X_Wifi_BLE_SDK/GD32VW55x_RELEASE_V1.0.2/MSDK/cloud/alicloud/src/services/linkkit/dm\dm_message.c ****     }
 1271              		.loc 1 271 9 is_stmt 1
 271:C:/Users/stapi/OneDrive/Desktop/GD32VW553/V1_MQTT_OK/GD32VW55X_Wifi_BLE_SDK/GD32VW55x_RELEASE_V1.0.2/MSDK/cloud/alicloud/src/services/linkkit/dm\dm_message.c ****     }
 1272              		.loc 1 271 58 is_stmt 0
 1273 0146 2685     		mv	a0,s1
 1274 0148 97000000 		call	strlen
 1274      E7800000 
 1275              	.LVL141:
 1276 0150 2A86     		mv	a2,a0
 271:C:/Users/stapi/OneDrive/Desktop/GD32VW553/V1_MQTT_OK/GD32VW55X_Wifi_BLE_SDK/GD32VW55x_RELEASE_V1.0.2/MSDK/cloud/alicloud/src/services/linkkit/dm\dm_message.c ****     }
 1277              		.loc 1 271 9
 1278 0152 3245     		lw	a0,12(sp)
 1279 0154 8146     		li	a3,0
 1280 0156 A685     		mv	a1,s1
 1281 0158 97000000 		call	dm_client_publish
 1281      E7800000 
 1282              	.LVL142:
 1283              	.L65:
 291:C:/Users/stapi/OneDrive/Desktop/GD32VW553/V1_MQTT_OK/GD32VW55X_Wifi_BLE_SDK/GD32VW55x_RELEASE_V1.0.2/MSDK/cloud/alicloud/src/services/linkkit/dm\dm_message.c ****     DM_free(payload);
 1284              		.loc 1 291 5 is_stmt 1
 1285 0160 3245     		lw	a0,12(sp)
 1286 0162 97000000 		call	LITE_free_internal
 1286      E7800000 
 1287              	.LVL143:
 291:C:/Users/stapi/OneDrive/Desktop/GD32VW553/V1_MQTT_OK/GD32VW55X_Wifi_BLE_SDK/GD32VW55x_RELEASE_V1.0.2/MSDK/cloud/alicloud/src/services/linkkit/dm\dm_message.c ****     DM_free(payload);
 1288              		.loc 1 291 5
 292:C:/Users/stapi/OneDrive/Desktop/GD32VW553/V1_MQTT_OK/GD32VW55X_Wifi_BLE_SDK/GD32VW55x_RELEASE_V1.0.2/MSDK/cloud/alicloud/src/services/linkkit/dm\dm_message.c **** 
 1289              		.loc 1 292 5 is_stmt 0
 1290 016a 2685     		mv	a0,s1
 291:C:/Users/stapi/OneDrive/Desktop/GD32VW553/V1_MQTT_OK/GD32VW55X_Wifi_BLE_SDK/GD32VW55x_RELEASE_V1.0.2/MSDK/cloud/alicloud/src/services/linkkit/dm\dm_message.c ****     DM_free(payload);
 1291              		.loc 1 291 5
 1292 016c 02C6     		sw	zero,12(sp)
 291:C:/Users/stapi/OneDrive/Desktop/GD32VW553/V1_MQTT_OK/GD32VW55X_Wifi_BLE_SDK/GD32VW55x_RELEASE_V1.0.2/MSDK/cloud/alicloud/src/services/linkkit/dm\dm_message.c ****     DM_free(payload);
 1293              		.loc 1 291 17 is_stmt 1
 292:C:/Users/stapi/OneDrive/Desktop/GD32VW553/V1_MQTT_OK/GD32VW55X_Wifi_BLE_SDK/GD32VW55x_RELEASE_V1.0.2/MSDK/cloud/alicloud/src/services/linkkit/dm\dm_message.c **** 
 1294              		.loc 1 292 5
 1295 016e 97000000 		call	LITE_free_internal
 1295      E7800000 
 1296              	.LVL144:
 292:C:/Users/stapi/OneDrive/Desktop/GD32VW553/V1_MQTT_OK/GD32VW55X_Wifi_BLE_SDK/GD32VW55x_RELEASE_V1.0.2/MSDK/cloud/alicloud/src/services/linkkit/dm\dm_message.c **** 
 1297              		.loc 1 292 5
 292:C:/Users/stapi/OneDrive/Desktop/GD32VW553/V1_MQTT_OK/GD32VW55X_Wifi_BLE_SDK/GD32VW55x_RELEASE_V1.0.2/MSDK/cloud/alicloud/src/services/linkkit/dm\dm_message.c **** 
 1298              		.loc 1 292 21
 294:C:/Users/stapi/OneDrive/Desktop/GD32VW553/V1_MQTT_OK/GD32VW55X_Wifi_BLE_SDK/GD32VW55x_RELEASE_V1.0.2/MSDK/cloud/alicloud/src/services/linkkit/dm\dm_message.c **** }
 1299              		.loc 1 294 5
 294:C:/Users/stapi/OneDrive/Desktop/GD32VW553/V1_MQTT_OK/GD32VW55X_Wifi_BLE_SDK/GD32VW55x_RELEASE_V1.0.2/MSDK/cloud/alicloud/src/services/linkkit/dm\dm_message.c **** }
 1300              		.loc 1 294 12 is_stmt 0
 1301 0176 C5BD     		j	.L61
 1302              		.cfi_endproc
 1303              	.LFE29:
 1305              		.section	.text.dm_msg_thing_model_down_raw,"ax",@progbits
 1306              		.align	1
 1307              		.globl	dm_msg_thing_model_down_raw
 1309              	dm_msg_thing_model_down_raw:
 1310              	.LFB30:
 296:C:/Users/stapi/OneDrive/Desktop/GD32VW553/V1_MQTT_OK/GD32VW55X_Wifi_BLE_SDK/GD32VW55x_RELEASE_V1.0.2/MSDK/cloud/alicloud/src/services/linkkit/dm\dm_message.c **** 
 297:C:/Users/stapi/OneDrive/Desktop/GD32VW553/V1_MQTT_OK/GD32VW55X_Wifi_BLE_SDK/GD32VW55x_RELEASE_V1.0.2/MSDK/cloud/alicloud/src/services/linkkit/dm\dm_message.c **** 
 298:C:/Users/stapi/OneDrive/Desktop/GD32VW553/V1_MQTT_OK/GD32VW55X_Wifi_BLE_SDK/GD32VW55x_RELEASE_V1.0.2/MSDK/cloud/alicloud/src/services/linkkit/dm\dm_message.c **** const char DM_MSG_THING_MODEL_DOWN_FMT[] DM_READ_ONLY = "{\"devid\":%d,\"payload\":\"%.*s\"}";
 299:C:/Users/stapi/OneDrive/Desktop/GD32VW553/V1_MQTT_OK/GD32VW55X_Wifi_BLE_SDK/GD32VW55x_RELEASE_V1.0.2/MSDK/cloud/alicloud/src/services/linkkit/dm\dm_message.c **** int dm_msg_thing_model_down_raw(_IN_ char product_key[PRODUCT_KEY_MAXLEN], _IN_ char device_name[DE
 300:C:/Users/stapi/OneDrive/Desktop/GD32VW553/V1_MQTT_OK/GD32VW55X_Wifi_BLE_SDK/GD32VW55x_RELEASE_V1.0.2/MSDK/cloud/alicloud/src/services/linkkit/dm\dm_message.c ****                                 _IN_ char *payload, _IN_ int payload_len)
 301:C:/Users/stapi/OneDrive/Desktop/GD32VW553/V1_MQTT_OK/GD32VW55X_Wifi_BLE_SDK/GD32VW55x_RELEASE_V1.0.2/MSDK/cloud/alicloud/src/services/linkkit/dm\dm_message.c **** {
 1311              		.loc 1 301 1 is_stmt 1
 1312              		.cfi_startproc
 1313              	.LVL145:
 1314 0000 17030000 		call	t0,__riscv_save_4
 1314      E7020300 
 1315              		.cfi_offset 19, -20
 1316              		.cfi_offset 18, -16
 1317              		.cfi_offset 9, -12
 1318              		.cfi_offset 8, -8
 1319              		.cfi_offset 1, -4
 1320              		.cfi_def_cfa_offset 32
 302:C:/Users/stapi/OneDrive/Desktop/GD32VW553/V1_MQTT_OK/GD32VW55X_Wifi_BLE_SDK/GD32VW55x_RELEASE_V1.0.2/MSDK/cloud/alicloud/src/services/linkkit/dm\dm_message.c ****     int res = 0, devid = 0, message_len = 0;
 1321              		.loc 1 302 5
 1322              	.LVL146:
 301:C:/Users/stapi/OneDrive/Desktop/GD32VW553/V1_MQTT_OK/GD32VW55X_Wifi_BLE_SDK/GD32VW55x_RELEASE_V1.0.2/MSDK/cloud/alicloud/src/services/linkkit/dm\dm_message.c ****     int res = 0, devid = 0, message_len = 0;
 1323              		.loc 1 301 1 is_stmt 0
 1324 0008 0111     		addi	sp,sp,-32
 1325              		.cfi_def_cfa_offset 64
 1326              		.loc 1 302 18
 1327 000a 02CC     		sw	zero,24(sp)
 1328              	.LVL147:
 303:C:/Users/stapi/OneDrive/Desktop/GD32VW553/V1_MQTT_OK/GD32VW55X_Wifi_BLE_SDK/GD32VW55x_RELEASE_V1.0.2/MSDK/cloud/alicloud/src/services/linkkit/dm\dm_message.c ****     char *hexstr = NULL, *message = NULL;
 1329              		.loc 1 303 5 is_stmt 1
 1330              		.loc 1 303 11 is_stmt 0
 1331 000c 02CE     		sw	zero,28(sp)
 1332              	.LVL148:
 304:C:/Users/stapi/OneDrive/Desktop/GD32VW553/V1_MQTT_OK/GD32VW55X_Wifi_BLE_SDK/GD32VW55x_RELEASE_V1.0.2/MSDK/cloud/alicloud/src/services/linkkit/dm\dm_message.c **** 
 305:C:/Users/stapi/OneDrive/Desktop/GD32VW553/V1_MQTT_OK/GD32VW55X_Wifi_BLE_SDK/GD32VW55x_RELEASE_V1.0.2/MSDK/cloud/alicloud/src/services/linkkit/dm\dm_message.c ****     if (product_key == NULL || device_name == NULL ||
 1333              		.loc 1 305 5 is_stmt 1
 306:C:/Users/stapi/OneDrive/Desktop/GD32VW553/V1_MQTT_OK/GD32VW55X_Wifi_BLE_SDK/GD32VW55x_RELEASE_V1.0.2/MSDK/cloud/alicloud/src/services/linkkit/dm\dm_message.c ****         (strlen(product_key) >= PRODUCT_KEY_MAXLEN) ||
 307:C:/Users/stapi/OneDrive/Desktop/GD32VW553/V1_MQTT_OK/GD32VW55X_Wifi_BLE_SDK/GD32VW55x_RELEASE_V1.0.2/MSDK/cloud/alicloud/src/services/linkkit/dm\dm_message.c ****         (strlen(device_name) >= DEVICE_NAME_MAXLEN) ||
 308:C:/Users/stapi/OneDrive/Desktop/GD32VW553/V1_MQTT_OK/GD32VW55X_Wifi_BLE_SDK/GD32VW55x_RELEASE_V1.0.2/MSDK/cloud/alicloud/src/services/linkkit/dm\dm_message.c ****         payload == NULL || payload_len <= 0) {
 309:C:/Users/stapi/OneDrive/Desktop/GD32VW553/V1_MQTT_OK/GD32VW55X_Wifi_BLE_SDK/GD32VW55x_RELEASE_V1.0.2/MSDK/cloud/alicloud/src/services/linkkit/dm\dm_message.c ****         return DM_INVALID_PARAMETER;
 1334              		.loc 1 309 16 is_stmt 0
 1335 000e F957     		li	a5,-2
 305:C:/Users/stapi/OneDrive/Desktop/GD32VW553/V1_MQTT_OK/GD32VW55X_Wifi_BLE_SDK/GD32VW55x_RELEASE_V1.0.2/MSDK/cloud/alicloud/src/services/linkkit/dm\dm_message.c ****         (strlen(product_key) >= PRODUCT_KEY_MAXLEN) ||
 1336              		.loc 1 305 8
 1337 0010 41C5     		beq	a0,zero,.L75
 1338 0012 2E84     		mv	s0,a1
 1339              		.loc 1 309 16 discriminator 1
 1340 0014 F957     		li	a5,-2
 305:C:/Users/stapi/OneDrive/Desktop/GD32VW553/V1_MQTT_OK/GD32VW55X_Wifi_BLE_SDK/GD32VW55x_RELEASE_V1.0.2/MSDK/cloud/alicloud/src/services/linkkit/dm\dm_message.c ****         (strlen(product_key) >= PRODUCT_KEY_MAXLEN) ||
 1341              		.loc 1 305 29 discriminator 1
 1342 0016 C9C1     		beq	a1,zero,.L75
 1343 0018 AA89     		mv	s3,a0
 1344 001a B284     		mv	s1,a2
 1345 001c 3689     		mv	s2,a3
 306:C:/Users/stapi/OneDrive/Desktop/GD32VW553/V1_MQTT_OK/GD32VW55X_Wifi_BLE_SDK/GD32VW55x_RELEASE_V1.0.2/MSDK/cloud/alicloud/src/services/linkkit/dm\dm_message.c ****         (strlen(product_key) >= PRODUCT_KEY_MAXLEN) ||
 1346              		.loc 1 306 10 discriminator 2
 1347 001e 97000000 		call	strlen
 1347      E7800000 
 1348              	.LVL149:
 305:C:/Users/stapi/OneDrive/Desktop/GD32VW553/V1_MQTT_OK/GD32VW55X_Wifi_BLE_SDK/GD32VW55x_RELEASE_V1.0.2/MSDK/cloud/alicloud/src/services/linkkit/dm\dm_message.c ****         (strlen(product_key) >= PRODUCT_KEY_MAXLEN) ||
 1349              		.loc 1 305 52 discriminator 2
 1350 0026 5147     		li	a4,20
 1351              		.loc 1 309 16 discriminator 2
 1352 0028 F957     		li	a5,-2
 305:C:/Users/stapi/OneDrive/Desktop/GD32VW553/V1_MQTT_OK/GD32VW55X_Wifi_BLE_SDK/GD32VW55x_RELEASE_V1.0.2/MSDK/cloud/alicloud/src/services/linkkit/dm\dm_message.c ****         (strlen(product_key) >= PRODUCT_KEY_MAXLEN) ||
 1353              		.loc 1 305 52 discriminator 2
 1354 002a 6367A706 		bgtu	a0,a4,.L75
 307:C:/Users/stapi/OneDrive/Desktop/GD32VW553/V1_MQTT_OK/GD32VW55X_Wifi_BLE_SDK/GD32VW55x_RELEASE_V1.0.2/MSDK/cloud/alicloud/src/services/linkkit/dm\dm_message.c ****         payload == NULL || payload_len <= 0) {
 1355              		.loc 1 307 10
 1356 002e 2285     		mv	a0,s0
 1357 0030 97000000 		call	strlen
 1357      E7800000 
 1358              	.LVL150:
 306:C:/Users/stapi/OneDrive/Desktop/GD32VW553/V1_MQTT_OK/GD32VW55X_Wifi_BLE_SDK/GD32VW55x_RELEASE_V1.0.2/MSDK/cloud/alicloud/src/services/linkkit/dm\dm_message.c ****         (strlen(product_key) >= PRODUCT_KEY_MAXLEN) ||
 1359              		.loc 1 306 53
 1360 0038 13070002 		li	a4,32
 1361              		.loc 1 309 16
 1362 003c F957     		li	a5,-2
 306:C:/Users/stapi/OneDrive/Desktop/GD32VW553/V1_MQTT_OK/GD32VW55X_Wifi_BLE_SDK/GD32VW55x_RELEASE_V1.0.2/MSDK/cloud/alicloud/src/services/linkkit/dm\dm_message.c ****         (strlen(product_key) >= PRODUCT_KEY_MAXLEN) ||
 1363              		.loc 1 306 53
 1364 003e 636DA704 		bgtu	a0,a4,.L75
 307:C:/Users/stapi/OneDrive/Desktop/GD32VW553/V1_MQTT_OK/GD32VW55X_Wifi_BLE_SDK/GD32VW55x_RELEASE_V1.0.2/MSDK/cloud/alicloud/src/services/linkkit/dm\dm_message.c ****         payload == NULL || payload_len <= 0) {
 1365              		.loc 1 307 53
 1366 0042 B9C8     		beq	s1,zero,.L75
 308:C:/Users/stapi/OneDrive/Desktop/GD32VW553/V1_MQTT_OK/GD32VW55X_Wifi_BLE_SDK/GD32VW55x_RELEASE_V1.0.2/MSDK/cloud/alicloud/src/services/linkkit/dm\dm_message.c ****         return DM_INVALID_PARAMETER;
 1367              		.loc 1 308 25
 1368 0044 635A2005 		ble	s2,zero,.L75
 310:C:/Users/stapi/OneDrive/Desktop/GD32VW553/V1_MQTT_OK/GD32VW55X_Wifi_BLE_SDK/GD32VW55x_RELEASE_V1.0.2/MSDK/cloud/alicloud/src/services/linkkit/dm\dm_message.c ****     }
 311:C:/Users/stapi/OneDrive/Desktop/GD32VW553/V1_MQTT_OK/GD32VW55X_Wifi_BLE_SDK/GD32VW55x_RELEASE_V1.0.2/MSDK/cloud/alicloud/src/services/linkkit/dm\dm_message.c **** 
 312:C:/Users/stapi/OneDrive/Desktop/GD32VW553/V1_MQTT_OK/GD32VW55X_Wifi_BLE_SDK/GD32VW55x_RELEASE_V1.0.2/MSDK/cloud/alicloud/src/services/linkkit/dm\dm_message.c ****     res = dm_mgr_search_device_by_pkdn(product_key, device_name, &devid);
 1369              		.loc 1 312 5 is_stmt 1
 1370              		.loc 1 312 11 is_stmt 0
 1371 0048 3008     		addi	a2,sp,24
 1372 004a A285     		mv	a1,s0
 1373 004c 4E85     		mv	a0,s3
 1374 004e 97000000 		call	dm_mgr_search_device_by_pkdn
 1374      E7800000 
 1375              	.LVL151:
 313:C:/Users/stapi/OneDrive/Desktop/GD32VW553/V1_MQTT_OK/GD32VW55X_Wifi_BLE_SDK/GD32VW55x_RELEASE_V1.0.2/MSDK/cloud/alicloud/src/services/linkkit/dm\dm_message.c ****     if (res != SUCCESS_RETURN) {
 1376              		.loc 1 313 5 is_stmt 1
 1377              		.loc 1 313 8 is_stmt 0
 1378 0056 19C1     		beq	a0,zero,.L77
 1379              	.LVL152:
 1380              	.L90:
 314:C:/Users/stapi/OneDrive/Desktop/GD32VW553/V1_MQTT_OK/GD32VW55X_Wifi_BLE_SDK/GD32VW55x_RELEASE_V1.0.2/MSDK/cloud/alicloud/src/services/linkkit/dm\dm_message.c ****         return FAIL_RETURN;
 315:C:/Users/stapi/OneDrive/Desktop/GD32VW553/V1_MQTT_OK/GD32VW55X_Wifi_BLE_SDK/GD32VW55x_RELEASE_V1.0.2/MSDK/cloud/alicloud/src/services/linkkit/dm\dm_message.c ****     }
 316:C:/Users/stapi/OneDrive/Desktop/GD32VW553/V1_MQTT_OK/GD32VW55X_Wifi_BLE_SDK/GD32VW55x_RELEASE_V1.0.2/MSDK/cloud/alicloud/src/services/linkkit/dm\dm_message.c **** 
 317:C:/Users/stapi/OneDrive/Desktop/GD32VW553/V1_MQTT_OK/GD32VW55X_Wifi_BLE_SDK/GD32VW55x_RELEASE_V1.0.2/MSDK/cloud/alicloud/src/services/linkkit/dm\dm_message.c ****     res = dm_utils_hex_to_str((unsigned char *)payload, payload_len, &hexstr);
 318:C:/Users/stapi/OneDrive/Desktop/GD32VW553/V1_MQTT_OK/GD32VW55X_Wifi_BLE_SDK/GD32VW55x_RELEASE_V1.0.2/MSDK/cloud/alicloud/src/services/linkkit/dm\dm_message.c ****     if (res != SUCCESS_RETURN) {
 319:C:/Users/stapi/OneDrive/Desktop/GD32VW553/V1_MQTT_OK/GD32VW55X_Wifi_BLE_SDK/GD32VW55x_RELEASE_V1.0.2/MSDK/cloud/alicloud/src/services/linkkit/dm\dm_message.c ****         return FAIL_RETURN;
 320:C:/Users/stapi/OneDrive/Desktop/GD32VW553/V1_MQTT_OK/GD32VW55X_Wifi_BLE_SDK/GD32VW55x_RELEASE_V1.0.2/MSDK/cloud/alicloud/src/services/linkkit/dm\dm_message.c ****     }
 321:C:/Users/stapi/OneDrive/Desktop/GD32VW553/V1_MQTT_OK/GD32VW55X_Wifi_BLE_SDK/GD32VW55x_RELEASE_V1.0.2/MSDK/cloud/alicloud/src/services/linkkit/dm\dm_message.c **** 
 322:C:/Users/stapi/OneDrive/Desktop/GD32VW553/V1_MQTT_OK/GD32VW55X_Wifi_BLE_SDK/GD32VW55x_RELEASE_V1.0.2/MSDK/cloud/alicloud/src/services/linkkit/dm\dm_message.c ****     message_len = strlen(DM_MSG_THING_MODEL_DOWN_FMT) + DM_UTILS_UINT32_STRLEN + strlen(hexstr) + 1
 323:C:/Users/stapi/OneDrive/Desktop/GD32VW553/V1_MQTT_OK/GD32VW55X_Wifi_BLE_SDK/GD32VW55x_RELEASE_V1.0.2/MSDK/cloud/alicloud/src/services/linkkit/dm\dm_message.c ****     message = DM_malloc(message_len);
 324:C:/Users/stapi/OneDrive/Desktop/GD32VW553/V1_MQTT_OK/GD32VW55X_Wifi_BLE_SDK/GD32VW55x_RELEASE_V1.0.2/MSDK/cloud/alicloud/src/services/linkkit/dm\dm_message.c ****     if (message == NULL) {
 325:C:/Users/stapi/OneDrive/Desktop/GD32VW553/V1_MQTT_OK/GD32VW55X_Wifi_BLE_SDK/GD32VW55x_RELEASE_V1.0.2/MSDK/cloud/alicloud/src/services/linkkit/dm\dm_message.c ****         DM_free(hexstr);
 326:C:/Users/stapi/OneDrive/Desktop/GD32VW553/V1_MQTT_OK/GD32VW55X_Wifi_BLE_SDK/GD32VW55x_RELEASE_V1.0.2/MSDK/cloud/alicloud/src/services/linkkit/dm\dm_message.c ****         return DM_MEMORY_NOT_ENOUGH;
 327:C:/Users/stapi/OneDrive/Desktop/GD32VW553/V1_MQTT_OK/GD32VW55X_Wifi_BLE_SDK/GD32VW55x_RELEASE_V1.0.2/MSDK/cloud/alicloud/src/services/linkkit/dm\dm_message.c ****     }
 328:C:/Users/stapi/OneDrive/Desktop/GD32VW553/V1_MQTT_OK/GD32VW55X_Wifi_BLE_SDK/GD32VW55x_RELEASE_V1.0.2/MSDK/cloud/alicloud/src/services/linkkit/dm\dm_message.c ****     memset(message, 0, message_len);
 329:C:/Users/stapi/OneDrive/Desktop/GD32VW553/V1_MQTT_OK/GD32VW55X_Wifi_BLE_SDK/GD32VW55x_RELEASE_V1.0.2/MSDK/cloud/alicloud/src/services/linkkit/dm\dm_message.c ****     HAL_Snprintf(message, message_len, DM_MSG_THING_MODEL_DOWN_FMT, devid, strlen(hexstr), hexstr);
 330:C:/Users/stapi/OneDrive/Desktop/GD32VW553/V1_MQTT_OK/GD32VW55X_Wifi_BLE_SDK/GD32VW55x_RELEASE_V1.0.2/MSDK/cloud/alicloud/src/services/linkkit/dm\dm_message.c ****     DM_free(hexstr);
 331:C:/Users/stapi/OneDrive/Desktop/GD32VW553/V1_MQTT_OK/GD32VW55X_Wifi_BLE_SDK/GD32VW55x_RELEASE_V1.0.2/MSDK/cloud/alicloud/src/services/linkkit/dm\dm_message.c **** 
 332:C:/Users/stapi/OneDrive/Desktop/GD32VW553/V1_MQTT_OK/GD32VW55X_Wifi_BLE_SDK/GD32VW55x_RELEASE_V1.0.2/MSDK/cloud/alicloud/src/services/linkkit/dm\dm_message.c ****     res = _dm_msg_send_to_user(IOTX_DM_EVENT_MODEL_DOWN_RAW, message);
 333:C:/Users/stapi/OneDrive/Desktop/GD32VW553/V1_MQTT_OK/GD32VW55X_Wifi_BLE_SDK/GD32VW55x_RELEASE_V1.0.2/MSDK/cloud/alicloud/src/services/linkkit/dm\dm_message.c ****     if (res != SUCCESS_RETURN) {
 334:C:/Users/stapi/OneDrive/Desktop/GD32VW553/V1_MQTT_OK/GD32VW55X_Wifi_BLE_SDK/GD32VW55x_RELEASE_V1.0.2/MSDK/cloud/alicloud/src/services/linkkit/dm\dm_message.c ****         DM_free(message);
 1381              		.loc 1 334 9 is_stmt 1
 1382              		.loc 1 334 25
 335:C:/Users/stapi/OneDrive/Desktop/GD32VW553/V1_MQTT_OK/GD32VW55X_Wifi_BLE_SDK/GD32VW55x_RELEASE_V1.0.2/MSDK/cloud/alicloud/src/services/linkkit/dm\dm_message.c ****         return FAIL_RETURN;
 1383              		.loc 1 335 9
 1384              		.loc 1 335 16 is_stmt 0
 1385 0058 FD57     		li	a5,-1
 1386 005a 3DA8     		j	.L75
 1387              	.LVL153:
 1388              	.L77:
 317:C:/Users/stapi/OneDrive/Desktop/GD32VW553/V1_MQTT_OK/GD32VW55X_Wifi_BLE_SDK/GD32VW55x_RELEASE_V1.0.2/MSDK/cloud/alicloud/src/services/linkkit/dm\dm_message.c ****     if (res != SUCCESS_RETURN) {
 1389              		.loc 1 317 5 is_stmt 1
 317:C:/Users/stapi/OneDrive/Desktop/GD32VW553/V1_MQTT_OK/GD32VW55X_Wifi_BLE_SDK/GD32VW55x_RELEASE_V1.0.2/MSDK/cloud/alicloud/src/services/linkkit/dm\dm_message.c ****     if (res != SUCCESS_RETURN) {
 1390              		.loc 1 317 11 is_stmt 0
 1391 005c 7008     		addi	a2,sp,28
 1392 005e CA85     		mv	a1,s2
 1393 0060 2685     		mv	a0,s1
 1394              	.LVL154:
 1395 0062 97000000 		call	dm_utils_hex_to_str
 1395      E7800000 
 1396              	.LVL155:
 318:C:/Users/stapi/OneDrive/Desktop/GD32VW553/V1_MQTT_OK/GD32VW55X_Wifi_BLE_SDK/GD32VW55x_RELEASE_V1.0.2/MSDK/cloud/alicloud/src/services/linkkit/dm\dm_message.c ****         return FAIL_RETURN;
 1397              		.loc 1 318 5 is_stmt 1
 318:C:/Users/stapi/OneDrive/Desktop/GD32VW553/V1_MQTT_OK/GD32VW55X_Wifi_BLE_SDK/GD32VW55x_RELEASE_V1.0.2/MSDK/cloud/alicloud/src/services/linkkit/dm\dm_message.c ****         return FAIL_RETURN;
 1398              		.loc 1 318 8 is_stmt 0
 1399 006a 7DF5     		bne	a0,zero,.L90
 322:C:/Users/stapi/OneDrive/Desktop/GD32VW553/V1_MQTT_OK/GD32VW55X_Wifi_BLE_SDK/GD32VW55x_RELEASE_V1.0.2/MSDK/cloud/alicloud/src/services/linkkit/dm\dm_message.c ****     message = DM_malloc(message_len);
 1400              		.loc 1 322 5 is_stmt 1
 322:C:/Users/stapi/OneDrive/Desktop/GD32VW553/V1_MQTT_OK/GD32VW55X_Wifi_BLE_SDK/GD32VW55x_RELEASE_V1.0.2/MSDK/cloud/alicloud/src/services/linkkit/dm\dm_message.c ****     message = DM_malloc(message_len);
 1401              		.loc 1 322 82 is_stmt 0
 1402 006c 7245     		lw	a0,28(sp)
 1403              	.LVL156:
 1404 006e 97000000 		call	strlen
 1404      E7800000 
 1405              	.LVL157:
 322:C:/Users/stapi/OneDrive/Desktop/GD32VW553/V1_MQTT_OK/GD32VW55X_Wifi_BLE_SDK/GD32VW55x_RELEASE_V1.0.2/MSDK/cloud/alicloud/src/services/linkkit/dm\dm_message.c ****     message = DM_malloc(message_len);
 1406              		.loc 1 322 97
 1407 0076 93048502 		addi	s1,a0,40
 1408              	.LVL158:
 323:C:/Users/stapi/OneDrive/Desktop/GD32VW553/V1_MQTT_OK/GD32VW55X_Wifi_BLE_SDK/GD32VW55x_RELEASE_V1.0.2/MSDK/cloud/alicloud/src/services/linkkit/dm\dm_message.c ****     if (message == NULL) {
 1409              		.loc 1 323 5 is_stmt 1
 323:C:/Users/stapi/OneDrive/Desktop/GD32VW553/V1_MQTT_OK/GD32VW55X_Wifi_BLE_SDK/GD32VW55x_RELEASE_V1.0.2/MSDK/cloud/alicloud/src/services/linkkit/dm\dm_message.c ****     if (message == NULL) {
 1410              		.loc 1 323 15 is_stmt 0
 1411 007a 2686     		mv	a2,s1
 1412 007c 8145     		li	a1,0
 1413 007e 0145     		li	a0,0
 1414 0080 97000000 		call	LITE_malloc_internal
 1414      E7800000 
 1415              	.LVL159:
 1416 0088 2A84     		mv	s0,a0
 1417              	.LVL160:
 324:C:/Users/stapi/OneDrive/Desktop/GD32VW553/V1_MQTT_OK/GD32VW55X_Wifi_BLE_SDK/GD32VW55x_RELEASE_V1.0.2/MSDK/cloud/alicloud/src/services/linkkit/dm\dm_message.c ****         DM_free(hexstr);
 1418              		.loc 1 324 5 is_stmt 1
 324:C:/Users/stapi/OneDrive/Desktop/GD32VW553/V1_MQTT_OK/GD32VW55X_Wifi_BLE_SDK/GD32VW55x_RELEASE_V1.0.2/MSDK/cloud/alicloud/src/services/linkkit/dm\dm_message.c ****         DM_free(hexstr);
 1419              		.loc 1 324 8 is_stmt 0
 1420 008a 09ED     		bne	a0,zero,.L79
 325:C:/Users/stapi/OneDrive/Desktop/GD32VW553/V1_MQTT_OK/GD32VW55X_Wifi_BLE_SDK/GD32VW55x_RELEASE_V1.0.2/MSDK/cloud/alicloud/src/services/linkkit/dm\dm_message.c ****         return DM_MEMORY_NOT_ENOUGH;
 1421              		.loc 1 325 9 is_stmt 1
 1422 008c 7245     		lw	a0,28(sp)
 1423 008e 97000000 		call	LITE_free_internal
 1423      E7800000 
 1424              	.LVL161:
 325:C:/Users/stapi/OneDrive/Desktop/GD32VW553/V1_MQTT_OK/GD32VW55X_Wifi_BLE_SDK/GD32VW55x_RELEASE_V1.0.2/MSDK/cloud/alicloud/src/services/linkkit/dm\dm_message.c ****         return DM_MEMORY_NOT_ENOUGH;
 1425              		.loc 1 325 9
 325:C:/Users/stapi/OneDrive/Desktop/GD32VW553/V1_MQTT_OK/GD32VW55X_Wifi_BLE_SDK/GD32VW55x_RELEASE_V1.0.2/MSDK/cloud/alicloud/src/services/linkkit/dm\dm_message.c ****         return DM_MEMORY_NOT_ENOUGH;
 1426              		.loc 1 325 24
 326:C:/Users/stapi/OneDrive/Desktop/GD32VW553/V1_MQTT_OK/GD32VW55X_Wifi_BLE_SDK/GD32VW55x_RELEASE_V1.0.2/MSDK/cloud/alicloud/src/services/linkkit/dm\dm_message.c ****     }
 1427              		.loc 1 326 9
 326:C:/Users/stapi/OneDrive/Desktop/GD32VW553/V1_MQTT_OK/GD32VW55X_Wifi_BLE_SDK/GD32VW55x_RELEASE_V1.0.2/MSDK/cloud/alicloud/src/services/linkkit/dm\dm_message.c ****     }
 1428              		.loc 1 326 16 is_stmt 0
 1429 0096 F557     		li	a5,-3
 1430              	.LVL162:
 1431              	.L75:
 336:C:/Users/stapi/OneDrive/Desktop/GD32VW553/V1_MQTT_OK/GD32VW55X_Wifi_BLE_SDK/GD32VW55x_RELEASE_V1.0.2/MSDK/cloud/alicloud/src/services/linkkit/dm\dm_message.c ****     }
 337:C:/Users/stapi/OneDrive/Desktop/GD32VW553/V1_MQTT_OK/GD32VW55X_Wifi_BLE_SDK/GD32VW55x_RELEASE_V1.0.2/MSDK/cloud/alicloud/src/services/linkkit/dm\dm_message.c **** 
 338:C:/Users/stapi/OneDrive/Desktop/GD32VW553/V1_MQTT_OK/GD32VW55X_Wifi_BLE_SDK/GD32VW55x_RELEASE_V1.0.2/MSDK/cloud/alicloud/src/services/linkkit/dm\dm_message.c ****     return SUCCESS_RETURN;
 339:C:/Users/stapi/OneDrive/Desktop/GD32VW553/V1_MQTT_OK/GD32VW55X_Wifi_BLE_SDK/GD32VW55x_RELEASE_V1.0.2/MSDK/cloud/alicloud/src/services/linkkit/dm\dm_message.c **** }
 1432              		.loc 1 339 1
 1433 0098 3E85     		mv	a0,a5
 1434 009a 0561     		addi	sp,sp,32
 1435              		.cfi_remember_state
 1436              		.cfi_def_cfa_offset 0
 1437 009c 17030000 		tail	__riscv_restore_4
 1437      67000300 
 1438              		.cfi_restore 19
 1439              		.cfi_restore 18
 1440              		.cfi_restore 9
 1441              		.cfi_restore 8
 1442              		.cfi_restore 1
 1443              		.cfi_def_cfa_offset -32
 1444              	.LVL163:
 1445              	.L79:
 1446              		.cfi_restore_state
 328:C:/Users/stapi/OneDrive/Desktop/GD32VW553/V1_MQTT_OK/GD32VW55X_Wifi_BLE_SDK/GD32VW55x_RELEASE_V1.0.2/MSDK/cloud/alicloud/src/services/linkkit/dm\dm_message.c ****     HAL_Snprintf(message, message_len, DM_MSG_THING_MODEL_DOWN_FMT, devid, strlen(hexstr), hexstr);
 1447              		.loc 1 328 5 is_stmt 1
 1448 00a4 2686     		mv	a2,s1
 1449 00a6 8145     		li	a1,0
 1450 00a8 97000000 		call	memset
 1450      E7800000 
 1451              	.LVL164:
 329:C:/Users/stapi/OneDrive/Desktop/GD32VW553/V1_MQTT_OK/GD32VW55X_Wifi_BLE_SDK/GD32VW55x_RELEASE_V1.0.2/MSDK/cloud/alicloud/src/services/linkkit/dm\dm_message.c ****     DM_free(hexstr);
 1452              		.loc 1 329 5
 1453 00b0 F247     		lw	a5,28(sp)
 1454 00b2 3E85     		mv	a0,a5
 1455 00b4 3EC6     		sw	a5,12(sp)
 1456 00b6 97000000 		call	strlen
 1456      E7800000 
 1457              	.LVL165:
 1458 00be B247     		lw	a5,12(sp)
 1459 00c0 E246     		lw	a3,24(sp)
 1460 00c2 37060000 		lui	a2,%hi(.LANCHOR7)
 1461 00c6 2A87     		mv	a4,a0
 1462 00c8 13060600 		addi	a2,a2,%lo(.LANCHOR7)
 1463 00cc A685     		mv	a1,s1
 1464 00ce 2285     		mv	a0,s0
 1465 00d0 97000000 		call	HAL_Snprintf
 1465      E7800000 
 1466              	.LVL166:
 330:C:/Users/stapi/OneDrive/Desktop/GD32VW553/V1_MQTT_OK/GD32VW55X_Wifi_BLE_SDK/GD32VW55x_RELEASE_V1.0.2/MSDK/cloud/alicloud/src/services/linkkit/dm\dm_message.c **** 
 1467              		.loc 1 330 5
 1468 00d8 7245     		lw	a0,28(sp)
 1469 00da 97000000 		call	LITE_free_internal
 1469      E7800000 
 1470              	.LVL167:
 330:C:/Users/stapi/OneDrive/Desktop/GD32VW553/V1_MQTT_OK/GD32VW55X_Wifi_BLE_SDK/GD32VW55x_RELEASE_V1.0.2/MSDK/cloud/alicloud/src/services/linkkit/dm\dm_message.c **** 
 1471              		.loc 1 330 5
 332:C:/Users/stapi/OneDrive/Desktop/GD32VW553/V1_MQTT_OK/GD32VW55X_Wifi_BLE_SDK/GD32VW55x_RELEASE_V1.0.2/MSDK/cloud/alicloud/src/services/linkkit/dm\dm_message.c ****     if (res != SUCCESS_RETURN) {
 1472              		.loc 1 332 11 is_stmt 0
 1473 00e2 A285     		mv	a1,s0
 1474 00e4 5945     		li	a0,22
 330:C:/Users/stapi/OneDrive/Desktop/GD32VW553/V1_MQTT_OK/GD32VW55X_Wifi_BLE_SDK/GD32VW55x_RELEASE_V1.0.2/MSDK/cloud/alicloud/src/services/linkkit/dm\dm_message.c **** 
 1475              		.loc 1 330 5
 1476 00e6 02CE     		sw	zero,28(sp)
 330:C:/Users/stapi/OneDrive/Desktop/GD32VW553/V1_MQTT_OK/GD32VW55X_Wifi_BLE_SDK/GD32VW55x_RELEASE_V1.0.2/MSDK/cloud/alicloud/src/services/linkkit/dm\dm_message.c **** 
 1477              		.loc 1 330 20 is_stmt 1
 332:C:/Users/stapi/OneDrive/Desktop/GD32VW553/V1_MQTT_OK/GD32VW55X_Wifi_BLE_SDK/GD32VW55x_RELEASE_V1.0.2/MSDK/cloud/alicloud/src/services/linkkit/dm\dm_message.c ****     if (res != SUCCESS_RETURN) {
 1478              		.loc 1 332 5
 332:C:/Users/stapi/OneDrive/Desktop/GD32VW553/V1_MQTT_OK/GD32VW55X_Wifi_BLE_SDK/GD32VW55x_RELEASE_V1.0.2/MSDK/cloud/alicloud/src/services/linkkit/dm\dm_message.c ****     if (res != SUCCESS_RETURN) {
 1479              		.loc 1 332 11 is_stmt 0
 1480 00e8 97000000 		call	_dm_msg_send_to_user
 1480      E7800000 
 1481              	.LVL168:
 1482 00f0 AA87     		mv	a5,a0
 1483              	.LVL169:
 333:C:/Users/stapi/OneDrive/Desktop/GD32VW553/V1_MQTT_OK/GD32VW55X_Wifi_BLE_SDK/GD32VW55x_RELEASE_V1.0.2/MSDK/cloud/alicloud/src/services/linkkit/dm\dm_message.c ****         DM_free(message);
 1484              		.loc 1 333 5 is_stmt 1
 333:C:/Users/stapi/OneDrive/Desktop/GD32VW553/V1_MQTT_OK/GD32VW55X_Wifi_BLE_SDK/GD32VW55x_RELEASE_V1.0.2/MSDK/cloud/alicloud/src/services/linkkit/dm\dm_message.c ****         DM_free(message);
 1485              		.loc 1 333 8 is_stmt 0
 1486 00f2 5DD1     		beq	a0,zero,.L75
 334:C:/Users/stapi/OneDrive/Desktop/GD32VW553/V1_MQTT_OK/GD32VW55X_Wifi_BLE_SDK/GD32VW55x_RELEASE_V1.0.2/MSDK/cloud/alicloud/src/services/linkkit/dm\dm_message.c ****         return FAIL_RETURN;
 1487              		.loc 1 334 9 is_stmt 1
 1488 00f4 2285     		mv	a0,s0
 1489              	.LVL170:
 1490 00f6 97000000 		call	LITE_free_internal
 1490      E7800000 
 1491              	.LVL171:
 1492 00fe A9BF     		j	.L90
 1493              		.cfi_endproc
 1494              	.LFE30:
 1496              		.section	.text.dm_msg_thing_model_up_raw_reply,"ax",@progbits
 1497              		.align	1
 1498              		.globl	dm_msg_thing_model_up_raw_reply
 1500              	dm_msg_thing_model_up_raw_reply:
 1501              	.LFB31:
 340:C:/Users/stapi/OneDrive/Desktop/GD32VW553/V1_MQTT_OK/GD32VW55X_Wifi_BLE_SDK/GD32VW55x_RELEASE_V1.0.2/MSDK/cloud/alicloud/src/services/linkkit/dm\dm_message.c **** 
 341:C:/Users/stapi/OneDrive/Desktop/GD32VW553/V1_MQTT_OK/GD32VW55X_Wifi_BLE_SDK/GD32VW55x_RELEASE_V1.0.2/MSDK/cloud/alicloud/src/services/linkkit/dm\dm_message.c **** #ifdef LINK_VISUAL_ENABLE
 342:C:/Users/stapi/OneDrive/Desktop/GD32VW553/V1_MQTT_OK/GD32VW55X_Wifi_BLE_SDK/GD32VW55x_RELEASE_V1.0.2/MSDK/cloud/alicloud/src/services/linkkit/dm\dm_message.c **** const char DM_MSG_LINK_VISUAL_FMT[] DM_READ_ONLY = "{\"devid\":%d,\"serviceid\":\"%.*s\",\"payload\
 343:C:/Users/stapi/OneDrive/Desktop/GD32VW553/V1_MQTT_OK/GD32VW55X_Wifi_BLE_SDK/GD32VW55x_RELEASE_V1.0.2/MSDK/cloud/alicloud/src/services/linkkit/dm\dm_message.c **** int dm_msg_thing_model_link_visual(_IN_ char product_key[PRODUCT_KEY_MAXLEN], _IN_ char device_name
 344:C:/Users/stapi/OneDrive/Desktop/GD32VW553/V1_MQTT_OK/GD32VW55X_Wifi_BLE_SDK/GD32VW55x_RELEASE_V1.0.2/MSDK/cloud/alicloud/src/services/linkkit/dm\dm_message.c ****                                    _IN_ char *service_id, _IN_ int service_id_len, _IN_ char *paylo
 345:C:/Users/stapi/OneDrive/Desktop/GD32VW553/V1_MQTT_OK/GD32VW55X_Wifi_BLE_SDK/GD32VW55x_RELEASE_V1.0.2/MSDK/cloud/alicloud/src/services/linkkit/dm\dm_message.c **** {
 346:C:/Users/stapi/OneDrive/Desktop/GD32VW553/V1_MQTT_OK/GD32VW55X_Wifi_BLE_SDK/GD32VW55x_RELEASE_V1.0.2/MSDK/cloud/alicloud/src/services/linkkit/dm\dm_message.c ****     int res = 0, devid = 0, message_len = 0;
 347:C:/Users/stapi/OneDrive/Desktop/GD32VW553/V1_MQTT_OK/GD32VW55X_Wifi_BLE_SDK/GD32VW55x_RELEASE_V1.0.2/MSDK/cloud/alicloud/src/services/linkkit/dm\dm_message.c ****     char *hexstr = NULL, *message = NULL;
 348:C:/Users/stapi/OneDrive/Desktop/GD32VW553/V1_MQTT_OK/GD32VW55X_Wifi_BLE_SDK/GD32VW55x_RELEASE_V1.0.2/MSDK/cloud/alicloud/src/services/linkkit/dm\dm_message.c **** 
 349:C:/Users/stapi/OneDrive/Desktop/GD32VW553/V1_MQTT_OK/GD32VW55X_Wifi_BLE_SDK/GD32VW55x_RELEASE_V1.0.2/MSDK/cloud/alicloud/src/services/linkkit/dm\dm_message.c ****     if (product_key == NULL || device_name == NULL ||
 350:C:/Users/stapi/OneDrive/Desktop/GD32VW553/V1_MQTT_OK/GD32VW55X_Wifi_BLE_SDK/GD32VW55x_RELEASE_V1.0.2/MSDK/cloud/alicloud/src/services/linkkit/dm\dm_message.c ****         (strlen(product_key) >= PRODUCT_KEY_MAXLEN) ||
 351:C:/Users/stapi/OneDrive/Desktop/GD32VW553/V1_MQTT_OK/GD32VW55X_Wifi_BLE_SDK/GD32VW55x_RELEASE_V1.0.2/MSDK/cloud/alicloud/src/services/linkkit/dm\dm_message.c ****         (strlen(device_name) >= DEVICE_NAME_MAXLEN) ||
 352:C:/Users/stapi/OneDrive/Desktop/GD32VW553/V1_MQTT_OK/GD32VW55X_Wifi_BLE_SDK/GD32VW55x_RELEASE_V1.0.2/MSDK/cloud/alicloud/src/services/linkkit/dm\dm_message.c ****         payload == NULL || payload_len <= 0) {
 353:C:/Users/stapi/OneDrive/Desktop/GD32VW553/V1_MQTT_OK/GD32VW55X_Wifi_BLE_SDK/GD32VW55x_RELEASE_V1.0.2/MSDK/cloud/alicloud/src/services/linkkit/dm\dm_message.c ****         return DM_INVALID_PARAMETER;
 354:C:/Users/stapi/OneDrive/Desktop/GD32VW553/V1_MQTT_OK/GD32VW55X_Wifi_BLE_SDK/GD32VW55x_RELEASE_V1.0.2/MSDK/cloud/alicloud/src/services/linkkit/dm\dm_message.c ****     }
 355:C:/Users/stapi/OneDrive/Desktop/GD32VW553/V1_MQTT_OK/GD32VW55X_Wifi_BLE_SDK/GD32VW55x_RELEASE_V1.0.2/MSDK/cloud/alicloud/src/services/linkkit/dm\dm_message.c ****     res = dm_mgr_search_device_by_pkdn(product_key, device_name, &devid);
 356:C:/Users/stapi/OneDrive/Desktop/GD32VW553/V1_MQTT_OK/GD32VW55X_Wifi_BLE_SDK/GD32VW55x_RELEASE_V1.0.2/MSDK/cloud/alicloud/src/services/linkkit/dm\dm_message.c ****     if (res != SUCCESS_RETURN) {
 357:C:/Users/stapi/OneDrive/Desktop/GD32VW553/V1_MQTT_OK/GD32VW55X_Wifi_BLE_SDK/GD32VW55x_RELEASE_V1.0.2/MSDK/cloud/alicloud/src/services/linkkit/dm\dm_message.c ****         return FAIL_RETURN;
 358:C:/Users/stapi/OneDrive/Desktop/GD32VW553/V1_MQTT_OK/GD32VW55X_Wifi_BLE_SDK/GD32VW55x_RELEASE_V1.0.2/MSDK/cloud/alicloud/src/services/linkkit/dm\dm_message.c ****     }
 359:C:/Users/stapi/OneDrive/Desktop/GD32VW553/V1_MQTT_OK/GD32VW55X_Wifi_BLE_SDK/GD32VW55x_RELEASE_V1.0.2/MSDK/cloud/alicloud/src/services/linkkit/dm\dm_message.c ****     message_len = strlen(DM_MSG_LINK_VISUAL_FMT) + DM_UTILS_UINT32_STRLEN + service_id_len + payloa
 360:C:/Users/stapi/OneDrive/Desktop/GD32VW553/V1_MQTT_OK/GD32VW55X_Wifi_BLE_SDK/GD32VW55x_RELEASE_V1.0.2/MSDK/cloud/alicloud/src/services/linkkit/dm\dm_message.c ****     message = DM_malloc(message_len);
 361:C:/Users/stapi/OneDrive/Desktop/GD32VW553/V1_MQTT_OK/GD32VW55X_Wifi_BLE_SDK/GD32VW55x_RELEASE_V1.0.2/MSDK/cloud/alicloud/src/services/linkkit/dm\dm_message.c ****     if (message == NULL) {
 362:C:/Users/stapi/OneDrive/Desktop/GD32VW553/V1_MQTT_OK/GD32VW55X_Wifi_BLE_SDK/GD32VW55x_RELEASE_V1.0.2/MSDK/cloud/alicloud/src/services/linkkit/dm\dm_message.c ****         return DM_MEMORY_NOT_ENOUGH;
 363:C:/Users/stapi/OneDrive/Desktop/GD32VW553/V1_MQTT_OK/GD32VW55X_Wifi_BLE_SDK/GD32VW55x_RELEASE_V1.0.2/MSDK/cloud/alicloud/src/services/linkkit/dm\dm_message.c ****     }
 364:C:/Users/stapi/OneDrive/Desktop/GD32VW553/V1_MQTT_OK/GD32VW55X_Wifi_BLE_SDK/GD32VW55x_RELEASE_V1.0.2/MSDK/cloud/alicloud/src/services/linkkit/dm\dm_message.c ****     memset(message, 0, message_len);
 365:C:/Users/stapi/OneDrive/Desktop/GD32VW553/V1_MQTT_OK/GD32VW55X_Wifi_BLE_SDK/GD32VW55x_RELEASE_V1.0.2/MSDK/cloud/alicloud/src/services/linkkit/dm\dm_message.c ****     HAL_Snprintf(message, message_len, DM_MSG_LINK_VISUAL_FMT, devid, service_id_len, service_id, p
 366:C:/Users/stapi/OneDrive/Desktop/GD32VW553/V1_MQTT_OK/GD32VW55X_Wifi_BLE_SDK/GD32VW55x_RELEASE_V1.0.2/MSDK/cloud/alicloud/src/services/linkkit/dm\dm_message.c ****     res = _dm_msg_send_to_user(IOTX_DM_EVENT_MODEL_LINK_VISUAL, message);
 367:C:/Users/stapi/OneDrive/Desktop/GD32VW553/V1_MQTT_OK/GD32VW55X_Wifi_BLE_SDK/GD32VW55x_RELEASE_V1.0.2/MSDK/cloud/alicloud/src/services/linkkit/dm\dm_message.c ****     if (res != SUCCESS_RETURN) {
 368:C:/Users/stapi/OneDrive/Desktop/GD32VW553/V1_MQTT_OK/GD32VW55X_Wifi_BLE_SDK/GD32VW55x_RELEASE_V1.0.2/MSDK/cloud/alicloud/src/services/linkkit/dm\dm_message.c ****         DM_free(message);
 369:C:/Users/stapi/OneDrive/Desktop/GD32VW553/V1_MQTT_OK/GD32VW55X_Wifi_BLE_SDK/GD32VW55x_RELEASE_V1.0.2/MSDK/cloud/alicloud/src/services/linkkit/dm\dm_message.c ****         return FAIL_RETURN;
 370:C:/Users/stapi/OneDrive/Desktop/GD32VW553/V1_MQTT_OK/GD32VW55X_Wifi_BLE_SDK/GD32VW55x_RELEASE_V1.0.2/MSDK/cloud/alicloud/src/services/linkkit/dm\dm_message.c ****     }
 371:C:/Users/stapi/OneDrive/Desktop/GD32VW553/V1_MQTT_OK/GD32VW55X_Wifi_BLE_SDK/GD32VW55x_RELEASE_V1.0.2/MSDK/cloud/alicloud/src/services/linkkit/dm\dm_message.c ****     return SUCCESS_RETURN;
 372:C:/Users/stapi/OneDrive/Desktop/GD32VW553/V1_MQTT_OK/GD32VW55X_Wifi_BLE_SDK/GD32VW55x_RELEASE_V1.0.2/MSDK/cloud/alicloud/src/services/linkkit/dm\dm_message.c **** }
 373:C:/Users/stapi/OneDrive/Desktop/GD32VW553/V1_MQTT_OK/GD32VW55X_Wifi_BLE_SDK/GD32VW55x_RELEASE_V1.0.2/MSDK/cloud/alicloud/src/services/linkkit/dm\dm_message.c **** #endif
 374:C:/Users/stapi/OneDrive/Desktop/GD32VW553/V1_MQTT_OK/GD32VW55X_Wifi_BLE_SDK/GD32VW55x_RELEASE_V1.0.2/MSDK/cloud/alicloud/src/services/linkkit/dm\dm_message.c **** const char DM_MSG_THING_MODEL_UP_RAW_REPLY_FMT[] DM_READ_ONLY = "{\"devid\":%d,\"payload\":\"%.*s\"
 375:C:/Users/stapi/OneDrive/Desktop/GD32VW553/V1_MQTT_OK/GD32VW55X_Wifi_BLE_SDK/GD32VW55x_RELEASE_V1.0.2/MSDK/cloud/alicloud/src/services/linkkit/dm\dm_message.c **** int dm_msg_thing_model_up_raw_reply(_IN_ char product_key[PRODUCT_KEY_MAXLEN],
 376:C:/Users/stapi/OneDrive/Desktop/GD32VW553/V1_MQTT_OK/GD32VW55X_Wifi_BLE_SDK/GD32VW55x_RELEASE_V1.0.2/MSDK/cloud/alicloud/src/services/linkkit/dm\dm_message.c ****                                     _IN_ char device_name[DEVICE_NAME_MAXLEN], char *payload, int p
 377:C:/Users/stapi/OneDrive/Desktop/GD32VW553/V1_MQTT_OK/GD32VW55X_Wifi_BLE_SDK/GD32VW55x_RELEASE_V1.0.2/MSDK/cloud/alicloud/src/services/linkkit/dm\dm_message.c **** {
 1502              		.loc 1 377 1
 1503              		.cfi_startproc
 1504              	.LVL172:
 1505 0000 17030000 		call	t0,__riscv_save_4
 1505      E7020300 
 1506              		.cfi_offset 19, -20
 1507              		.cfi_offset 18, -16
 1508              		.cfi_offset 9, -12
 1509              		.cfi_offset 8, -8
 1510              		.cfi_offset 1, -4
 1511              		.cfi_def_cfa_offset 32
 378:C:/Users/stapi/OneDrive/Desktop/GD32VW553/V1_MQTT_OK/GD32VW55X_Wifi_BLE_SDK/GD32VW55x_RELEASE_V1.0.2/MSDK/cloud/alicloud/src/services/linkkit/dm\dm_message.c ****     int res = 0, devid = 0, message_len = 0;
 1512              		.loc 1 378 5
 1513              	.LVL173:
 377:C:/Users/stapi/OneDrive/Desktop/GD32VW553/V1_MQTT_OK/GD32VW55X_Wifi_BLE_SDK/GD32VW55x_RELEASE_V1.0.2/MSDK/cloud/alicloud/src/services/linkkit/dm\dm_message.c ****     int res = 0, devid = 0, message_len = 0;
 1514              		.loc 1 377 1 is_stmt 0
 1515 0008 0111     		addi	sp,sp,-32
 1516              		.cfi_def_cfa_offset 64
 1517              		.loc 1 378 18
 1518 000a 02CC     		sw	zero,24(sp)
 1519              	.LVL174:
 379:C:/Users/stapi/OneDrive/Desktop/GD32VW553/V1_MQTT_OK/GD32VW55X_Wifi_BLE_SDK/GD32VW55x_RELEASE_V1.0.2/MSDK/cloud/alicloud/src/services/linkkit/dm\dm_message.c ****     char *hexstr = NULL, *message = NULL;
 1520              		.loc 1 379 5 is_stmt 1
 1521              		.loc 1 379 11 is_stmt 0
 1522 000c 02CE     		sw	zero,28(sp)
 1523              	.LVL175:
 380:C:/Users/stapi/OneDrive/Desktop/GD32VW553/V1_MQTT_OK/GD32VW55X_Wifi_BLE_SDK/GD32VW55x_RELEASE_V1.0.2/MSDK/cloud/alicloud/src/services/linkkit/dm\dm_message.c **** 
 381:C:/Users/stapi/OneDrive/Desktop/GD32VW553/V1_MQTT_OK/GD32VW55X_Wifi_BLE_SDK/GD32VW55x_RELEASE_V1.0.2/MSDK/cloud/alicloud/src/services/linkkit/dm\dm_message.c ****     if (product_key == NULL || device_name == NULL ||
 1524              		.loc 1 381 5 is_stmt 1
 382:C:/Users/stapi/OneDrive/Desktop/GD32VW553/V1_MQTT_OK/GD32VW55X_Wifi_BLE_SDK/GD32VW55x_RELEASE_V1.0.2/MSDK/cloud/alicloud/src/services/linkkit/dm\dm_message.c ****         (strlen(product_key) >= PRODUCT_KEY_MAXLEN) ||
 383:C:/Users/stapi/OneDrive/Desktop/GD32VW553/V1_MQTT_OK/GD32VW55X_Wifi_BLE_SDK/GD32VW55x_RELEASE_V1.0.2/MSDK/cloud/alicloud/src/services/linkkit/dm\dm_message.c ****         (strlen(device_name) >= DEVICE_NAME_MAXLEN) ||
 384:C:/Users/stapi/OneDrive/Desktop/GD32VW553/V1_MQTT_OK/GD32VW55X_Wifi_BLE_SDK/GD32VW55x_RELEASE_V1.0.2/MSDK/cloud/alicloud/src/services/linkkit/dm\dm_message.c ****         payload == NULL || payload_len <= 0) {
 385:C:/Users/stapi/OneDrive/Desktop/GD32VW553/V1_MQTT_OK/GD32VW55X_Wifi_BLE_SDK/GD32VW55x_RELEASE_V1.0.2/MSDK/cloud/alicloud/src/services/linkkit/dm\dm_message.c ****         return DM_INVALID_PARAMETER;
 1525              		.loc 1 385 16 is_stmt 0
 1526 000e F957     		li	a5,-2
 381:C:/Users/stapi/OneDrive/Desktop/GD32VW553/V1_MQTT_OK/GD32VW55X_Wifi_BLE_SDK/GD32VW55x_RELEASE_V1.0.2/MSDK/cloud/alicloud/src/services/linkkit/dm\dm_message.c ****         (strlen(product_key) >= PRODUCT_KEY_MAXLEN) ||
 1527              		.loc 1 381 8
 1528 0010 41C5     		beq	a0,zero,.L91
 1529 0012 2E84     		mv	s0,a1
 1530              		.loc 1 385 16 discriminator 1
 1531 0014 F957     		li	a5,-2
 381:C:/Users/stapi/OneDrive/Desktop/GD32VW553/V1_MQTT_OK/GD32VW55X_Wifi_BLE_SDK/GD32VW55x_RELEASE_V1.0.2/MSDK/cloud/alicloud/src/services/linkkit/dm\dm_message.c ****         (strlen(product_key) >= PRODUCT_KEY_MAXLEN) ||
 1532              		.loc 1 381 29 discriminator 1
 1533 0016 C9C1     		beq	a1,zero,.L91
 1534 0018 AA89     		mv	s3,a0
 1535 001a B284     		mv	s1,a2
 1536 001c 3689     		mv	s2,a3
 382:C:/Users/stapi/OneDrive/Desktop/GD32VW553/V1_MQTT_OK/GD32VW55X_Wifi_BLE_SDK/GD32VW55x_RELEASE_V1.0.2/MSDK/cloud/alicloud/src/services/linkkit/dm\dm_message.c ****         (strlen(product_key) >= PRODUCT_KEY_MAXLEN) ||
 1537              		.loc 1 382 10 discriminator 2
 1538 001e 97000000 		call	strlen
 1538      E7800000 
 1539              	.LVL176:
 381:C:/Users/stapi/OneDrive/Desktop/GD32VW553/V1_MQTT_OK/GD32VW55X_Wifi_BLE_SDK/GD32VW55x_RELEASE_V1.0.2/MSDK/cloud/alicloud/src/services/linkkit/dm\dm_message.c ****         (strlen(product_key) >= PRODUCT_KEY_MAXLEN) ||
 1540              		.loc 1 381 52 discriminator 2
 1541 0026 5147     		li	a4,20
 1542              		.loc 1 385 16 discriminator 2
 1543 0028 F957     		li	a5,-2
 381:C:/Users/stapi/OneDrive/Desktop/GD32VW553/V1_MQTT_OK/GD32VW55X_Wifi_BLE_SDK/GD32VW55x_RELEASE_V1.0.2/MSDK/cloud/alicloud/src/services/linkkit/dm\dm_message.c ****         (strlen(product_key) >= PRODUCT_KEY_MAXLEN) ||
 1544              		.loc 1 381 52 discriminator 2
 1545 002a 6367A706 		bgtu	a0,a4,.L91
 383:C:/Users/stapi/OneDrive/Desktop/GD32VW553/V1_MQTT_OK/GD32VW55X_Wifi_BLE_SDK/GD32VW55x_RELEASE_V1.0.2/MSDK/cloud/alicloud/src/services/linkkit/dm\dm_message.c ****         payload == NULL || payload_len <= 0) {
 1546              		.loc 1 383 10
 1547 002e 2285     		mv	a0,s0
 1548 0030 97000000 		call	strlen
 1548      E7800000 
 1549              	.LVL177:
 382:C:/Users/stapi/OneDrive/Desktop/GD32VW553/V1_MQTT_OK/GD32VW55X_Wifi_BLE_SDK/GD32VW55x_RELEASE_V1.0.2/MSDK/cloud/alicloud/src/services/linkkit/dm\dm_message.c ****         (strlen(product_key) >= PRODUCT_KEY_MAXLEN) ||
 1550              		.loc 1 382 53
 1551 0038 13070002 		li	a4,32
 1552              		.loc 1 385 16
 1553 003c F957     		li	a5,-2
 382:C:/Users/stapi/OneDrive/Desktop/GD32VW553/V1_MQTT_OK/GD32VW55X_Wifi_BLE_SDK/GD32VW55x_RELEASE_V1.0.2/MSDK/cloud/alicloud/src/services/linkkit/dm\dm_message.c ****         (strlen(product_key) >= PRODUCT_KEY_MAXLEN) ||
 1554              		.loc 1 382 53
 1555 003e 636DA704 		bgtu	a0,a4,.L91
 383:C:/Users/stapi/OneDrive/Desktop/GD32VW553/V1_MQTT_OK/GD32VW55X_Wifi_BLE_SDK/GD32VW55x_RELEASE_V1.0.2/MSDK/cloud/alicloud/src/services/linkkit/dm\dm_message.c ****         payload == NULL || payload_len <= 0) {
 1556              		.loc 1 383 53
 1557 0042 B9C8     		beq	s1,zero,.L91
 384:C:/Users/stapi/OneDrive/Desktop/GD32VW553/V1_MQTT_OK/GD32VW55X_Wifi_BLE_SDK/GD32VW55x_RELEASE_V1.0.2/MSDK/cloud/alicloud/src/services/linkkit/dm\dm_message.c ****         return DM_INVALID_PARAMETER;
 1558              		.loc 1 384 25
 1559 0044 635A2005 		ble	s2,zero,.L91
 386:C:/Users/stapi/OneDrive/Desktop/GD32VW553/V1_MQTT_OK/GD32VW55X_Wifi_BLE_SDK/GD32VW55x_RELEASE_V1.0.2/MSDK/cloud/alicloud/src/services/linkkit/dm\dm_message.c ****     }
 387:C:/Users/stapi/OneDrive/Desktop/GD32VW553/V1_MQTT_OK/GD32VW55X_Wifi_BLE_SDK/GD32VW55x_RELEASE_V1.0.2/MSDK/cloud/alicloud/src/services/linkkit/dm\dm_message.c **** 
 388:C:/Users/stapi/OneDrive/Desktop/GD32VW553/V1_MQTT_OK/GD32VW55X_Wifi_BLE_SDK/GD32VW55x_RELEASE_V1.0.2/MSDK/cloud/alicloud/src/services/linkkit/dm\dm_message.c ****     res = dm_mgr_search_device_by_pkdn(product_key, device_name, &devid);
 1560              		.loc 1 388 5 is_stmt 1
 1561              		.loc 1 388 11 is_stmt 0
 1562 0048 3008     		addi	a2,sp,24
 1563 004a A285     		mv	a1,s0
 1564 004c 4E85     		mv	a0,s3
 1565 004e 97000000 		call	dm_mgr_search_device_by_pkdn
 1565      E7800000 
 1566              	.LVL178:
 389:C:/Users/stapi/OneDrive/Desktop/GD32VW553/V1_MQTT_OK/GD32VW55X_Wifi_BLE_SDK/GD32VW55x_RELEASE_V1.0.2/MSDK/cloud/alicloud/src/services/linkkit/dm\dm_message.c ****     if (res != SUCCESS_RETURN) {
 1567              		.loc 1 389 5 is_stmt 1
 1568              		.loc 1 389 8 is_stmt 0
 1569 0056 19C1     		beq	a0,zero,.L93
 1570              	.LVL179:
 1571              	.L106:
 390:C:/Users/stapi/OneDrive/Desktop/GD32VW553/V1_MQTT_OK/GD32VW55X_Wifi_BLE_SDK/GD32VW55x_RELEASE_V1.0.2/MSDK/cloud/alicloud/src/services/linkkit/dm\dm_message.c ****         return FAIL_RETURN;
 391:C:/Users/stapi/OneDrive/Desktop/GD32VW553/V1_MQTT_OK/GD32VW55X_Wifi_BLE_SDK/GD32VW55x_RELEASE_V1.0.2/MSDK/cloud/alicloud/src/services/linkkit/dm\dm_message.c ****     }
 392:C:/Users/stapi/OneDrive/Desktop/GD32VW553/V1_MQTT_OK/GD32VW55X_Wifi_BLE_SDK/GD32VW55x_RELEASE_V1.0.2/MSDK/cloud/alicloud/src/services/linkkit/dm\dm_message.c **** 
 393:C:/Users/stapi/OneDrive/Desktop/GD32VW553/V1_MQTT_OK/GD32VW55X_Wifi_BLE_SDK/GD32VW55x_RELEASE_V1.0.2/MSDK/cloud/alicloud/src/services/linkkit/dm\dm_message.c ****     res = dm_utils_hex_to_str((unsigned char *)payload, payload_len, &hexstr);
 394:C:/Users/stapi/OneDrive/Desktop/GD32VW553/V1_MQTT_OK/GD32VW55X_Wifi_BLE_SDK/GD32VW55x_RELEASE_V1.0.2/MSDK/cloud/alicloud/src/services/linkkit/dm\dm_message.c ****     if (res != SUCCESS_RETURN) {
 395:C:/Users/stapi/OneDrive/Desktop/GD32VW553/V1_MQTT_OK/GD32VW55X_Wifi_BLE_SDK/GD32VW55x_RELEASE_V1.0.2/MSDK/cloud/alicloud/src/services/linkkit/dm\dm_message.c ****         return FAIL_RETURN;
 396:C:/Users/stapi/OneDrive/Desktop/GD32VW553/V1_MQTT_OK/GD32VW55X_Wifi_BLE_SDK/GD32VW55x_RELEASE_V1.0.2/MSDK/cloud/alicloud/src/services/linkkit/dm\dm_message.c ****     }
 397:C:/Users/stapi/OneDrive/Desktop/GD32VW553/V1_MQTT_OK/GD32VW55X_Wifi_BLE_SDK/GD32VW55x_RELEASE_V1.0.2/MSDK/cloud/alicloud/src/services/linkkit/dm\dm_message.c **** 
 398:C:/Users/stapi/OneDrive/Desktop/GD32VW553/V1_MQTT_OK/GD32VW55X_Wifi_BLE_SDK/GD32VW55x_RELEASE_V1.0.2/MSDK/cloud/alicloud/src/services/linkkit/dm\dm_message.c ****     message_len = strlen(DM_MSG_THING_MODEL_DOWN_FMT) + DM_UTILS_UINT32_STRLEN + strlen(hexstr) + 1
 399:C:/Users/stapi/OneDrive/Desktop/GD32VW553/V1_MQTT_OK/GD32VW55X_Wifi_BLE_SDK/GD32VW55x_RELEASE_V1.0.2/MSDK/cloud/alicloud/src/services/linkkit/dm\dm_message.c ****     message = DM_malloc(message_len);
 400:C:/Users/stapi/OneDrive/Desktop/GD32VW553/V1_MQTT_OK/GD32VW55X_Wifi_BLE_SDK/GD32VW55x_RELEASE_V1.0.2/MSDK/cloud/alicloud/src/services/linkkit/dm\dm_message.c ****     if (message == NULL) {
 401:C:/Users/stapi/OneDrive/Desktop/GD32VW553/V1_MQTT_OK/GD32VW55X_Wifi_BLE_SDK/GD32VW55x_RELEASE_V1.0.2/MSDK/cloud/alicloud/src/services/linkkit/dm\dm_message.c ****         DM_free(hexstr);
 402:C:/Users/stapi/OneDrive/Desktop/GD32VW553/V1_MQTT_OK/GD32VW55X_Wifi_BLE_SDK/GD32VW55x_RELEASE_V1.0.2/MSDK/cloud/alicloud/src/services/linkkit/dm\dm_message.c ****         return DM_MEMORY_NOT_ENOUGH;
 403:C:/Users/stapi/OneDrive/Desktop/GD32VW553/V1_MQTT_OK/GD32VW55X_Wifi_BLE_SDK/GD32VW55x_RELEASE_V1.0.2/MSDK/cloud/alicloud/src/services/linkkit/dm\dm_message.c ****     }
 404:C:/Users/stapi/OneDrive/Desktop/GD32VW553/V1_MQTT_OK/GD32VW55X_Wifi_BLE_SDK/GD32VW55x_RELEASE_V1.0.2/MSDK/cloud/alicloud/src/services/linkkit/dm\dm_message.c ****     memset(message, 0, message_len);
 405:C:/Users/stapi/OneDrive/Desktop/GD32VW553/V1_MQTT_OK/GD32VW55X_Wifi_BLE_SDK/GD32VW55x_RELEASE_V1.0.2/MSDK/cloud/alicloud/src/services/linkkit/dm\dm_message.c ****     HAL_Snprintf(message, message_len, DM_MSG_THING_MODEL_DOWN_FMT, devid, strlen(hexstr), hexstr);
 406:C:/Users/stapi/OneDrive/Desktop/GD32VW553/V1_MQTT_OK/GD32VW55X_Wifi_BLE_SDK/GD32VW55x_RELEASE_V1.0.2/MSDK/cloud/alicloud/src/services/linkkit/dm\dm_message.c ****     DM_free(hexstr);
 407:C:/Users/stapi/OneDrive/Desktop/GD32VW553/V1_MQTT_OK/GD32VW55X_Wifi_BLE_SDK/GD32VW55x_RELEASE_V1.0.2/MSDK/cloud/alicloud/src/services/linkkit/dm\dm_message.c **** 
 408:C:/Users/stapi/OneDrive/Desktop/GD32VW553/V1_MQTT_OK/GD32VW55X_Wifi_BLE_SDK/GD32VW55x_RELEASE_V1.0.2/MSDK/cloud/alicloud/src/services/linkkit/dm\dm_message.c ****     res = _dm_msg_send_to_user(IOTX_DM_EVENT_MODEL_UP_RAW_REPLY, message);
 409:C:/Users/stapi/OneDrive/Desktop/GD32VW553/V1_MQTT_OK/GD32VW55X_Wifi_BLE_SDK/GD32VW55x_RELEASE_V1.0.2/MSDK/cloud/alicloud/src/services/linkkit/dm\dm_message.c ****     if (res != SUCCESS_RETURN) {
 410:C:/Users/stapi/OneDrive/Desktop/GD32VW553/V1_MQTT_OK/GD32VW55X_Wifi_BLE_SDK/GD32VW55x_RELEASE_V1.0.2/MSDK/cloud/alicloud/src/services/linkkit/dm\dm_message.c ****         DM_free(message);
 1572              		.loc 1 410 9 is_stmt 1
 1573              		.loc 1 410 25
 411:C:/Users/stapi/OneDrive/Desktop/GD32VW553/V1_MQTT_OK/GD32VW55X_Wifi_BLE_SDK/GD32VW55x_RELEASE_V1.0.2/MSDK/cloud/alicloud/src/services/linkkit/dm\dm_message.c ****         return FAIL_RETURN;
 1574              		.loc 1 411 9
 1575              		.loc 1 411 16 is_stmt 0
 1576 0058 FD57     		li	a5,-1
 1577 005a 3DA8     		j	.L91
 1578              	.LVL180:
 1579              	.L93:
 393:C:/Users/stapi/OneDrive/Desktop/GD32VW553/V1_MQTT_OK/GD32VW55X_Wifi_BLE_SDK/GD32VW55x_RELEASE_V1.0.2/MSDK/cloud/alicloud/src/services/linkkit/dm\dm_message.c ****     if (res != SUCCESS_RETURN) {
 1580              		.loc 1 393 5 is_stmt 1
 393:C:/Users/stapi/OneDrive/Desktop/GD32VW553/V1_MQTT_OK/GD32VW55X_Wifi_BLE_SDK/GD32VW55x_RELEASE_V1.0.2/MSDK/cloud/alicloud/src/services/linkkit/dm\dm_message.c ****     if (res != SUCCESS_RETURN) {
 1581              		.loc 1 393 11 is_stmt 0
 1582 005c 7008     		addi	a2,sp,28
 1583 005e CA85     		mv	a1,s2
 1584 0060 2685     		mv	a0,s1
 1585              	.LVL181:
 1586 0062 97000000 		call	dm_utils_hex_to_str
 1586      E7800000 
 1587              	.LVL182:
 394:C:/Users/stapi/OneDrive/Desktop/GD32VW553/V1_MQTT_OK/GD32VW55X_Wifi_BLE_SDK/GD32VW55x_RELEASE_V1.0.2/MSDK/cloud/alicloud/src/services/linkkit/dm\dm_message.c ****         return FAIL_RETURN;
 1588              		.loc 1 394 5 is_stmt 1
 394:C:/Users/stapi/OneDrive/Desktop/GD32VW553/V1_MQTT_OK/GD32VW55X_Wifi_BLE_SDK/GD32VW55x_RELEASE_V1.0.2/MSDK/cloud/alicloud/src/services/linkkit/dm\dm_message.c ****         return FAIL_RETURN;
 1589              		.loc 1 394 8 is_stmt 0
 1590 006a 7DF5     		bne	a0,zero,.L106
 398:C:/Users/stapi/OneDrive/Desktop/GD32VW553/V1_MQTT_OK/GD32VW55X_Wifi_BLE_SDK/GD32VW55x_RELEASE_V1.0.2/MSDK/cloud/alicloud/src/services/linkkit/dm\dm_message.c ****     message = DM_malloc(message_len);
 1591              		.loc 1 398 5 is_stmt 1
 398:C:/Users/stapi/OneDrive/Desktop/GD32VW553/V1_MQTT_OK/GD32VW55X_Wifi_BLE_SDK/GD32VW55x_RELEASE_V1.0.2/MSDK/cloud/alicloud/src/services/linkkit/dm\dm_message.c ****     message = DM_malloc(message_len);
 1592              		.loc 1 398 82 is_stmt 0
 1593 006c 7245     		lw	a0,28(sp)
 1594              	.LVL183:
 1595 006e 97000000 		call	strlen
 1595      E7800000 
 1596              	.LVL184:
 398:C:/Users/stapi/OneDrive/Desktop/GD32VW553/V1_MQTT_OK/GD32VW55X_Wifi_BLE_SDK/GD32VW55x_RELEASE_V1.0.2/MSDK/cloud/alicloud/src/services/linkkit/dm\dm_message.c ****     message = DM_malloc(message_len);
 1597              		.loc 1 398 97
 1598 0076 93048502 		addi	s1,a0,40
 1599              	.LVL185:
 399:C:/Users/stapi/OneDrive/Desktop/GD32VW553/V1_MQTT_OK/GD32VW55X_Wifi_BLE_SDK/GD32VW55x_RELEASE_V1.0.2/MSDK/cloud/alicloud/src/services/linkkit/dm\dm_message.c ****     if (message == NULL) {
 1600              		.loc 1 399 5 is_stmt 1
 399:C:/Users/stapi/OneDrive/Desktop/GD32VW553/V1_MQTT_OK/GD32VW55X_Wifi_BLE_SDK/GD32VW55x_RELEASE_V1.0.2/MSDK/cloud/alicloud/src/services/linkkit/dm\dm_message.c ****     if (message == NULL) {
 1601              		.loc 1 399 15 is_stmt 0
 1602 007a 2686     		mv	a2,s1
 1603 007c 8145     		li	a1,0
 1604 007e 0145     		li	a0,0
 1605 0080 97000000 		call	LITE_malloc_internal
 1605      E7800000 
 1606              	.LVL186:
 1607 0088 2A84     		mv	s0,a0
 1608              	.LVL187:
 400:C:/Users/stapi/OneDrive/Desktop/GD32VW553/V1_MQTT_OK/GD32VW55X_Wifi_BLE_SDK/GD32VW55x_RELEASE_V1.0.2/MSDK/cloud/alicloud/src/services/linkkit/dm\dm_message.c ****         DM_free(hexstr);
 1609              		.loc 1 400 5 is_stmt 1
 400:C:/Users/stapi/OneDrive/Desktop/GD32VW553/V1_MQTT_OK/GD32VW55X_Wifi_BLE_SDK/GD32VW55x_RELEASE_V1.0.2/MSDK/cloud/alicloud/src/services/linkkit/dm\dm_message.c ****         DM_free(hexstr);
 1610              		.loc 1 400 8 is_stmt 0
 1611 008a 09ED     		bne	a0,zero,.L95
 401:C:/Users/stapi/OneDrive/Desktop/GD32VW553/V1_MQTT_OK/GD32VW55X_Wifi_BLE_SDK/GD32VW55x_RELEASE_V1.0.2/MSDK/cloud/alicloud/src/services/linkkit/dm\dm_message.c ****         return DM_MEMORY_NOT_ENOUGH;
 1612              		.loc 1 401 9 is_stmt 1
 1613 008c 7245     		lw	a0,28(sp)
 1614 008e 97000000 		call	LITE_free_internal
 1614      E7800000 
 1615              	.LVL188:
 401:C:/Users/stapi/OneDrive/Desktop/GD32VW553/V1_MQTT_OK/GD32VW55X_Wifi_BLE_SDK/GD32VW55x_RELEASE_V1.0.2/MSDK/cloud/alicloud/src/services/linkkit/dm\dm_message.c ****         return DM_MEMORY_NOT_ENOUGH;
 1616              		.loc 1 401 9
 401:C:/Users/stapi/OneDrive/Desktop/GD32VW553/V1_MQTT_OK/GD32VW55X_Wifi_BLE_SDK/GD32VW55x_RELEASE_V1.0.2/MSDK/cloud/alicloud/src/services/linkkit/dm\dm_message.c ****         return DM_MEMORY_NOT_ENOUGH;
 1617              		.loc 1 401 24
 402:C:/Users/stapi/OneDrive/Desktop/GD32VW553/V1_MQTT_OK/GD32VW55X_Wifi_BLE_SDK/GD32VW55x_RELEASE_V1.0.2/MSDK/cloud/alicloud/src/services/linkkit/dm\dm_message.c ****     }
 1618              		.loc 1 402 9
 402:C:/Users/stapi/OneDrive/Desktop/GD32VW553/V1_MQTT_OK/GD32VW55X_Wifi_BLE_SDK/GD32VW55x_RELEASE_V1.0.2/MSDK/cloud/alicloud/src/services/linkkit/dm\dm_message.c ****     }
 1619              		.loc 1 402 16 is_stmt 0
 1620 0096 F557     		li	a5,-3
 1621              	.LVL189:
 1622              	.L91:
 412:C:/Users/stapi/OneDrive/Desktop/GD32VW553/V1_MQTT_OK/GD32VW55X_Wifi_BLE_SDK/GD32VW55x_RELEASE_V1.0.2/MSDK/cloud/alicloud/src/services/linkkit/dm\dm_message.c ****     }
 413:C:/Users/stapi/OneDrive/Desktop/GD32VW553/V1_MQTT_OK/GD32VW55X_Wifi_BLE_SDK/GD32VW55x_RELEASE_V1.0.2/MSDK/cloud/alicloud/src/services/linkkit/dm\dm_message.c **** 
 414:C:/Users/stapi/OneDrive/Desktop/GD32VW553/V1_MQTT_OK/GD32VW55X_Wifi_BLE_SDK/GD32VW55x_RELEASE_V1.0.2/MSDK/cloud/alicloud/src/services/linkkit/dm\dm_message.c ****     return SUCCESS_RETURN;
 415:C:/Users/stapi/OneDrive/Desktop/GD32VW553/V1_MQTT_OK/GD32VW55X_Wifi_BLE_SDK/GD32VW55x_RELEASE_V1.0.2/MSDK/cloud/alicloud/src/services/linkkit/dm\dm_message.c **** }
 1623              		.loc 1 415 1
 1624 0098 3E85     		mv	a0,a5
 1625 009a 0561     		addi	sp,sp,32
 1626              		.cfi_remember_state
 1627              		.cfi_def_cfa_offset 0
 1628 009c 17030000 		tail	__riscv_restore_4
 1628      67000300 
 1629              		.cfi_restore 19
 1630              		.cfi_restore 18
 1631              		.cfi_restore 9
 1632              		.cfi_restore 8
 1633              		.cfi_restore 1
 1634              		.cfi_def_cfa_offset -32
 1635              	.LVL190:
 1636              	.L95:
 1637              		.cfi_restore_state
 404:C:/Users/stapi/OneDrive/Desktop/GD32VW553/V1_MQTT_OK/GD32VW55X_Wifi_BLE_SDK/GD32VW55x_RELEASE_V1.0.2/MSDK/cloud/alicloud/src/services/linkkit/dm\dm_message.c ****     HAL_Snprintf(message, message_len, DM_MSG_THING_MODEL_DOWN_FMT, devid, strlen(hexstr), hexstr);
 1638              		.loc 1 404 5 is_stmt 1
 1639 00a4 2686     		mv	a2,s1
 1640 00a6 8145     		li	a1,0
 1641 00a8 97000000 		call	memset
 1641      E7800000 
 1642              	.LVL191:
 405:C:/Users/stapi/OneDrive/Desktop/GD32VW553/V1_MQTT_OK/GD32VW55X_Wifi_BLE_SDK/GD32VW55x_RELEASE_V1.0.2/MSDK/cloud/alicloud/src/services/linkkit/dm\dm_message.c ****     DM_free(hexstr);
 1643              		.loc 1 405 5
 1644 00b0 F247     		lw	a5,28(sp)
 1645 00b2 3E85     		mv	a0,a5
 1646 00b4 3EC6     		sw	a5,12(sp)
 1647 00b6 97000000 		call	strlen
 1647      E7800000 
 1648              	.LVL192:
 1649 00be B247     		lw	a5,12(sp)
 1650 00c0 E246     		lw	a3,24(sp)
 1651 00c2 37060000 		lui	a2,%hi(.LANCHOR7)
 1652 00c6 2A87     		mv	a4,a0
 1653 00c8 13060600 		addi	a2,a2,%lo(.LANCHOR7)
 1654 00cc A685     		mv	a1,s1
 1655 00ce 2285     		mv	a0,s0
 1656 00d0 97000000 		call	HAL_Snprintf
 1656      E7800000 
 1657              	.LVL193:
 406:C:/Users/stapi/OneDrive/Desktop/GD32VW553/V1_MQTT_OK/GD32VW55X_Wifi_BLE_SDK/GD32VW55x_RELEASE_V1.0.2/MSDK/cloud/alicloud/src/services/linkkit/dm\dm_message.c **** 
 1658              		.loc 1 406 5
 1659 00d8 7245     		lw	a0,28(sp)
 1660 00da 97000000 		call	LITE_free_internal
 1660      E7800000 
 1661              	.LVL194:
 406:C:/Users/stapi/OneDrive/Desktop/GD32VW553/V1_MQTT_OK/GD32VW55X_Wifi_BLE_SDK/GD32VW55x_RELEASE_V1.0.2/MSDK/cloud/alicloud/src/services/linkkit/dm\dm_message.c **** 
 1662              		.loc 1 406 5
 408:C:/Users/stapi/OneDrive/Desktop/GD32VW553/V1_MQTT_OK/GD32VW55X_Wifi_BLE_SDK/GD32VW55x_RELEASE_V1.0.2/MSDK/cloud/alicloud/src/services/linkkit/dm\dm_message.c ****     if (res != SUCCESS_RETURN) {
 1663              		.loc 1 408 11 is_stmt 0
 1664 00e2 A285     		mv	a1,s0
 1665 00e4 13059002 		li	a0,41
 406:C:/Users/stapi/OneDrive/Desktop/GD32VW553/V1_MQTT_OK/GD32VW55X_Wifi_BLE_SDK/GD32VW55x_RELEASE_V1.0.2/MSDK/cloud/alicloud/src/services/linkkit/dm\dm_message.c **** 
 1666              		.loc 1 406 5
 1667 00e8 02CE     		sw	zero,28(sp)
 406:C:/Users/stapi/OneDrive/Desktop/GD32VW553/V1_MQTT_OK/GD32VW55X_Wifi_BLE_SDK/GD32VW55x_RELEASE_V1.0.2/MSDK/cloud/alicloud/src/services/linkkit/dm\dm_message.c **** 
 1668              		.loc 1 406 20 is_stmt 1
 408:C:/Users/stapi/OneDrive/Desktop/GD32VW553/V1_MQTT_OK/GD32VW55X_Wifi_BLE_SDK/GD32VW55x_RELEASE_V1.0.2/MSDK/cloud/alicloud/src/services/linkkit/dm\dm_message.c ****     if (res != SUCCESS_RETURN) {
 1669              		.loc 1 408 5
 408:C:/Users/stapi/OneDrive/Desktop/GD32VW553/V1_MQTT_OK/GD32VW55X_Wifi_BLE_SDK/GD32VW55x_RELEASE_V1.0.2/MSDK/cloud/alicloud/src/services/linkkit/dm\dm_message.c ****     if (res != SUCCESS_RETURN) {
 1670              		.loc 1 408 11 is_stmt 0
 1671 00ea 97000000 		call	_dm_msg_send_to_user
 1671      E7800000 
 1672              	.LVL195:
 1673 00f2 AA87     		mv	a5,a0
 1674              	.LVL196:
 409:C:/Users/stapi/OneDrive/Desktop/GD32VW553/V1_MQTT_OK/GD32VW55X_Wifi_BLE_SDK/GD32VW55x_RELEASE_V1.0.2/MSDK/cloud/alicloud/src/services/linkkit/dm\dm_message.c ****         DM_free(message);
 1675              		.loc 1 409 5 is_stmt 1
 409:C:/Users/stapi/OneDrive/Desktop/GD32VW553/V1_MQTT_OK/GD32VW55X_Wifi_BLE_SDK/GD32VW55x_RELEASE_V1.0.2/MSDK/cloud/alicloud/src/services/linkkit/dm\dm_message.c ****         DM_free(message);
 1676              		.loc 1 409 8 is_stmt 0
 1677 00f4 55D1     		beq	a0,zero,.L91
 410:C:/Users/stapi/OneDrive/Desktop/GD32VW553/V1_MQTT_OK/GD32VW55X_Wifi_BLE_SDK/GD32VW55x_RELEASE_V1.0.2/MSDK/cloud/alicloud/src/services/linkkit/dm\dm_message.c ****         return FAIL_RETURN;
 1678              		.loc 1 410 9 is_stmt 1
 1679 00f6 2285     		mv	a0,s0
 1680              	.LVL197:
 1681 00f8 97000000 		call	LITE_free_internal
 1681      E7800000 
 1682              	.LVL198:
 1683 0100 A1BF     		j	.L106
 1684              		.cfi_endproc
 1685              	.LFE31:
 1687              		.section	.text.dm_msg_property_set,"ax",@progbits
 1688              		.align	1
 1689              		.globl	dm_msg_property_set
 1691              	dm_msg_property_set:
 1692              	.LFB32:
 416:C:/Users/stapi/OneDrive/Desktop/GD32VW553/V1_MQTT_OK/GD32VW55X_Wifi_BLE_SDK/GD32VW55x_RELEASE_V1.0.2/MSDK/cloud/alicloud/src/services/linkkit/dm\dm_message.c **** 
 417:C:/Users/stapi/OneDrive/Desktop/GD32VW553/V1_MQTT_OK/GD32VW55X_Wifi_BLE_SDK/GD32VW55x_RELEASE_V1.0.2/MSDK/cloud/alicloud/src/services/linkkit/dm\dm_message.c **** #if !defined(DEVICE_MODEL_RAWDATA_SOLO)
 418:C:/Users/stapi/OneDrive/Desktop/GD32VW553/V1_MQTT_OK/GD32VW55X_Wifi_BLE_SDK/GD32VW55x_RELEASE_V1.0.2/MSDK/cloud/alicloud/src/services/linkkit/dm\dm_message.c **** #ifdef LOG_REPORT_TO_CLOUD
 419:C:/Users/stapi/OneDrive/Desktop/GD32VW553/V1_MQTT_OK/GD32VW55X_Wifi_BLE_SDK/GD32VW55x_RELEASE_V1.0.2/MSDK/cloud/alicloud/src/services/linkkit/dm\dm_message.c ****     const char DM_MSG_PROPERTY_SET_FMT[] DM_READ_ONLY = "{\"devid\":%d,\"payload\":%.*s,\"msgid\":%
 420:C:/Users/stapi/OneDrive/Desktop/GD32VW553/V1_MQTT_OK/GD32VW55X_Wifi_BLE_SDK/GD32VW55x_RELEASE_V1.0.2/MSDK/cloud/alicloud/src/services/linkkit/dm\dm_message.c **** #else
 421:C:/Users/stapi/OneDrive/Desktop/GD32VW553/V1_MQTT_OK/GD32VW55X_Wifi_BLE_SDK/GD32VW55x_RELEASE_V1.0.2/MSDK/cloud/alicloud/src/services/linkkit/dm\dm_message.c ****     const char DM_MSG_PROPERTY_SET_FMT[] DM_READ_ONLY = "{\"devid\":%d,\"payload\":%.*s}";
 422:C:/Users/stapi/OneDrive/Desktop/GD32VW553/V1_MQTT_OK/GD32VW55X_Wifi_BLE_SDK/GD32VW55x_RELEASE_V1.0.2/MSDK/cloud/alicloud/src/services/linkkit/dm\dm_message.c **** #endif
 423:C:/Users/stapi/OneDrive/Desktop/GD32VW553/V1_MQTT_OK/GD32VW55X_Wifi_BLE_SDK/GD32VW55x_RELEASE_V1.0.2/MSDK/cloud/alicloud/src/services/linkkit/dm\dm_message.c **** 
 424:C:/Users/stapi/OneDrive/Desktop/GD32VW553/V1_MQTT_OK/GD32VW55X_Wifi_BLE_SDK/GD32VW55x_RELEASE_V1.0.2/MSDK/cloud/alicloud/src/services/linkkit/dm\dm_message.c **** int dm_msg_property_set(int devid, dm_msg_request_payload_t *request)
 425:C:/Users/stapi/OneDrive/Desktop/GD32VW553/V1_MQTT_OK/GD32VW55X_Wifi_BLE_SDK/GD32VW55x_RELEASE_V1.0.2/MSDK/cloud/alicloud/src/services/linkkit/dm\dm_message.c **** {
 1693              		.loc 1 425 1
 1694              		.cfi_startproc
 1695              	.LVL199:
 1696 0000 17030000 		call	t0,__riscv_save_4
 1696      E7020300 
 1697              		.cfi_offset 19, -20
 1698              		.cfi_offset 18, -16
 1699              		.cfi_offset 9, -12
 1700              		.cfi_offset 8, -8
 1701              		.cfi_offset 1, -4
 1702              		.cfi_def_cfa_offset 32
 426:C:/Users/stapi/OneDrive/Desktop/GD32VW553/V1_MQTT_OK/GD32VW55X_Wifi_BLE_SDK/GD32VW55x_RELEASE_V1.0.2/MSDK/cloud/alicloud/src/services/linkkit/dm\dm_message.c ****     int res = 0, message_len = 0;
 1703              		.loc 1 426 5
 1704              	.LVL200:
 427:C:/Users/stapi/OneDrive/Desktop/GD32VW553/V1_MQTT_OK/GD32VW55X_Wifi_BLE_SDK/GD32VW55x_RELEASE_V1.0.2/MSDK/cloud/alicloud/src/services/linkkit/dm\dm_message.c ****     char *message = NULL;
 1705              		.loc 1 427 5
 428:C:/Users/stapi/OneDrive/Desktop/GD32VW553/V1_MQTT_OK/GD32VW55X_Wifi_BLE_SDK/GD32VW55x_RELEASE_V1.0.2/MSDK/cloud/alicloud/src/services/linkkit/dm\dm_message.c **** 
 429:C:/Users/stapi/OneDrive/Desktop/GD32VW553/V1_MQTT_OK/GD32VW55X_Wifi_BLE_SDK/GD32VW55x_RELEASE_V1.0.2/MSDK/cloud/alicloud/src/services/linkkit/dm\dm_message.c ****     message_len = strlen(DM_MSG_PROPERTY_SET_FMT) + DM_UTILS_UINT32_STRLEN + request->params.value_
 1706              		.loc 1 429 5
 1707              		.loc 1 429 107 is_stmt 0
 1708 0008 A455     		lw	s1,104(a1)
 425:C:/Users/stapi/OneDrive/Desktop/GD32VW553/V1_MQTT_OK/GD32VW55X_Wifi_BLE_SDK/GD32VW55x_RELEASE_V1.0.2/MSDK/cloud/alicloud/src/services/linkkit/dm\dm_message.c ****     int res = 0, message_len = 0;
 1709              		.loc 1 425 1
 1710 000a AA89     		mv	s3,a0
 1711 000c 2E89     		mv	s2,a1
 1712              		.loc 1 429 107
 1713 000e 93846402 		addi	s1,s1,38
 1714              	.LVL201:
 430:C:/Users/stapi/OneDrive/Desktop/GD32VW553/V1_MQTT_OK/GD32VW55X_Wifi_BLE_SDK/GD32VW55x_RELEASE_V1.0.2/MSDK/cloud/alicloud/src/services/linkkit/dm\dm_message.c ****     message = DM_malloc(message_len);
 1715              		.loc 1 430 5 is_stmt 1
 1716              		.loc 1 430 15 is_stmt 0
 1717 0012 2686     		mv	a2,s1
 1718 0014 8145     		li	a1,0
 1719              	.LVL202:
 1720 0016 0145     		li	a0,0
 1721              	.LVL203:
 1722 0018 97000000 		call	LITE_malloc_internal
 1722      E7800000 
 1723              	.LVL204:
 431:C:/Users/stapi/OneDrive/Desktop/GD32VW553/V1_MQTT_OK/GD32VW55X_Wifi_BLE_SDK/GD32VW55x_RELEASE_V1.0.2/MSDK/cloud/alicloud/src/services/linkkit/dm\dm_message.c ****     if (message == NULL) {
 1724              		.loc 1 431 5 is_stmt 1
 1725              		.loc 1 431 8 is_stmt 0
 1726 0020 21C9     		beq	a0,zero,.L109
 432:C:/Users/stapi/OneDrive/Desktop/GD32VW553/V1_MQTT_OK/GD32VW55X_Wifi_BLE_SDK/GD32VW55x_RELEASE_V1.0.2/MSDK/cloud/alicloud/src/services/linkkit/dm\dm_message.c ****         return DM_MEMORY_NOT_ENOUGH;
 433:C:/Users/stapi/OneDrive/Desktop/GD32VW553/V1_MQTT_OK/GD32VW55X_Wifi_BLE_SDK/GD32VW55x_RELEASE_V1.0.2/MSDK/cloud/alicloud/src/services/linkkit/dm\dm_message.c ****     }
 434:C:/Users/stapi/OneDrive/Desktop/GD32VW553/V1_MQTT_OK/GD32VW55X_Wifi_BLE_SDK/GD32VW55x_RELEASE_V1.0.2/MSDK/cloud/alicloud/src/services/linkkit/dm\dm_message.c ****     memset(message, 0, message_len);
 1727              		.loc 1 434 5
 1728 0022 2686     		mv	a2,s1
 1729 0024 8145     		li	a1,0
 1730 0026 2A84     		mv	s0,a0
 1731              		.loc 1 434 5 is_stmt 1
 1732 0028 97000000 		call	memset
 1732      E7800000 
 1733              	.LVL205:
 435:C:/Users/stapi/OneDrive/Desktop/GD32VW553/V1_MQTT_OK/GD32VW55X_Wifi_BLE_SDK/GD32VW55x_RELEASE_V1.0.2/MSDK/cloud/alicloud/src/services/linkkit/dm\dm_message.c **** #ifdef LOG_REPORT_TO_CLOUD
 436:C:/Users/stapi/OneDrive/Desktop/GD32VW553/V1_MQTT_OK/GD32VW55X_Wifi_BLE_SDK/GD32VW55x_RELEASE_V1.0.2/MSDK/cloud/alicloud/src/services/linkkit/dm\dm_message.c ****     HAL_Snprintf(message, message_len, DM_MSG_PROPERTY_SET_FMT, devid, request->params.value_length
 437:C:/Users/stapi/OneDrive/Desktop/GD32VW553/V1_MQTT_OK/GD32VW55X_Wifi_BLE_SDK/GD32VW55x_RELEASE_V1.0.2/MSDK/cloud/alicloud/src/services/linkkit/dm\dm_message.c ****                  request->id.value_length, request->id.value);
 438:C:/Users/stapi/OneDrive/Desktop/GD32VW553/V1_MQTT_OK/GD32VW55X_Wifi_BLE_SDK/GD32VW55x_RELEASE_V1.0.2/MSDK/cloud/alicloud/src/services/linkkit/dm\dm_message.c **** #else
 439:C:/Users/stapi/OneDrive/Desktop/GD32VW553/V1_MQTT_OK/GD32VW55X_Wifi_BLE_SDK/GD32VW55x_RELEASE_V1.0.2/MSDK/cloud/alicloud/src/services/linkkit/dm\dm_message.c ****     HAL_Snprintf(message, message_len, DM_MSG_PROPERTY_SET_FMT, devid, request->params.value_length
 1734              		.loc 1 439 5
 1735 0030 83274906 		lw	a5,100(s2)
 1736 0034 03278906 		lw	a4,104(s2)
 1737 0038 37060000 		lui	a2,%hi(.LANCHOR8)
 1738 003c A685     		mv	a1,s1
 1739 003e CE86     		mv	a3,s3
 1740 0040 13060600 		addi	a2,a2,%lo(.LANCHOR8)
 1741 0044 2285     		mv	a0,s0
 1742 0046 97000000 		call	HAL_Snprintf
 1742      E7800000 
 1743              	.LVL206:
 440:C:/Users/stapi/OneDrive/Desktop/GD32VW553/V1_MQTT_OK/GD32VW55X_Wifi_BLE_SDK/GD32VW55x_RELEASE_V1.0.2/MSDK/cloud/alicloud/src/services/linkkit/dm\dm_message.c **** #endif
 441:C:/Users/stapi/OneDrive/Desktop/GD32VW553/V1_MQTT_OK/GD32VW55X_Wifi_BLE_SDK/GD32VW55x_RELEASE_V1.0.2/MSDK/cloud/alicloud/src/services/linkkit/dm\dm_message.c ****     res = _dm_msg_send_to_user(IOTX_DM_EVENT_PROPERTY_SET, message);
 1744              		.loc 1 441 5
 1745              		.loc 1 441 11 is_stmt 0
 1746 004e A285     		mv	a1,s0
 1747 0050 3D45     		li	a0,15
 1748 0052 97000000 		call	_dm_msg_send_to_user
 1748      E7800000 
 1749              	.LVL207:
 442:C:/Users/stapi/OneDrive/Desktop/GD32VW553/V1_MQTT_OK/GD32VW55X_Wifi_BLE_SDK/GD32VW55x_RELEASE_V1.0.2/MSDK/cloud/alicloud/src/services/linkkit/dm\dm_message.c ****     if (res != SUCCESS_RETURN) {
 1750              		.loc 1 442 5 is_stmt 1
 1751              		.loc 1 442 8 is_stmt 0
 1752 005a 19C5     		beq	a0,zero,.L107
 443:C:/Users/stapi/OneDrive/Desktop/GD32VW553/V1_MQTT_OK/GD32VW55X_Wifi_BLE_SDK/GD32VW55x_RELEASE_V1.0.2/MSDK/cloud/alicloud/src/services/linkkit/dm\dm_message.c ****         DM_free(message);
 1753              		.loc 1 443 9 is_stmt 1
 1754 005c 2285     		mv	a0,s0
 1755              	.LVL208:
 1756 005e 97000000 		call	LITE_free_internal
 1756      E7800000 
 1757              	.LVL209:
 1758              		.loc 1 443 9
 1759              		.loc 1 443 25
 444:C:/Users/stapi/OneDrive/Desktop/GD32VW553/V1_MQTT_OK/GD32VW55X_Wifi_BLE_SDK/GD32VW55x_RELEASE_V1.0.2/MSDK/cloud/alicloud/src/services/linkkit/dm\dm_message.c ****         return FAIL_RETURN;
 1760              		.loc 1 444 9
 1761              		.loc 1 444 16 is_stmt 0
 1762 0066 7D55     		li	a0,-1
 1763              	.LVL210:
 1764              	.L107:
 445:C:/Users/stapi/OneDrive/Desktop/GD32VW553/V1_MQTT_OK/GD32VW55X_Wifi_BLE_SDK/GD32VW55x_RELEASE_V1.0.2/MSDK/cloud/alicloud/src/services/linkkit/dm\dm_message.c ****     }
 446:C:/Users/stapi/OneDrive/Desktop/GD32VW553/V1_MQTT_OK/GD32VW55X_Wifi_BLE_SDK/GD32VW55x_RELEASE_V1.0.2/MSDK/cloud/alicloud/src/services/linkkit/dm\dm_message.c ****     return SUCCESS_RETURN;
 447:C:/Users/stapi/OneDrive/Desktop/GD32VW553/V1_MQTT_OK/GD32VW55X_Wifi_BLE_SDK/GD32VW55x_RELEASE_V1.0.2/MSDK/cloud/alicloud/src/services/linkkit/dm\dm_message.c **** }
 1765              		.loc 1 447 1
 1766 0068 17030000 		tail	__riscv_restore_4
 1766      67000300 
 1767              		.cfi_remember_state
 1768              		.cfi_restore 19
 1769              		.cfi_restore 18
 1770              		.cfi_restore 9
 1771              		.cfi_restore 8
 1772              		.cfi_restore 1
 1773              		.cfi_def_cfa_offset 0
 1774              	.LVL211:
 1775              	.L109:
 1776              		.cfi_restore_state
 432:C:/Users/stapi/OneDrive/Desktop/GD32VW553/V1_MQTT_OK/GD32VW55X_Wifi_BLE_SDK/GD32VW55x_RELEASE_V1.0.2/MSDK/cloud/alicloud/src/services/linkkit/dm\dm_message.c ****     }
 1777              		.loc 1 432 16
 1778 0070 7555     		li	a0,-3
 1779              	.LVL212:
 1780 0072 DDBF     		j	.L107
 1781              		.cfi_endproc
 1782              	.LFE32:
 1784              		.section	.text.dm_msg_property_get,"ax",@progbits
 1785              		.align	1
 1786              		.globl	dm_msg_property_get
 1788              	dm_msg_property_get:
 1789              	.LFB33:
 448:C:/Users/stapi/OneDrive/Desktop/GD32VW553/V1_MQTT_OK/GD32VW55X_Wifi_BLE_SDK/GD32VW55x_RELEASE_V1.0.2/MSDK/cloud/alicloud/src/services/linkkit/dm\dm_message.c **** 
 449:C:/Users/stapi/OneDrive/Desktop/GD32VW553/V1_MQTT_OK/GD32VW55X_Wifi_BLE_SDK/GD32VW55x_RELEASE_V1.0.2/MSDK/cloud/alicloud/src/services/linkkit/dm\dm_message.c **** const char DM_MSG_THING_PROPERTY_GET_FMT[] DM_READ_ONLY =
 450:C:/Users/stapi/OneDrive/Desktop/GD32VW553/V1_MQTT_OK/GD32VW55X_Wifi_BLE_SDK/GD32VW55x_RELEASE_V1.0.2/MSDK/cloud/alicloud/src/services/linkkit/dm\dm_message.c ****             "{\"id\":\"%.*s\",\"devid\":%d,\"payload\":%.*s,\"ctx\":\"%s\"}";
 451:C:/Users/stapi/OneDrive/Desktop/GD32VW553/V1_MQTT_OK/GD32VW55X_Wifi_BLE_SDK/GD32VW55x_RELEASE_V1.0.2/MSDK/cloud/alicloud/src/services/linkkit/dm\dm_message.c **** int dm_msg_property_get(_IN_ int devid, _IN_ dm_msg_request_payload_t *request, _IN_ void *ctx)
 452:C:/Users/stapi/OneDrive/Desktop/GD32VW553/V1_MQTT_OK/GD32VW55X_Wifi_BLE_SDK/GD32VW55x_RELEASE_V1.0.2/MSDK/cloud/alicloud/src/services/linkkit/dm\dm_message.c **** {
 1790              		.loc 1 452 1 is_stmt 1
 1791              		.cfi_startproc
 1792              	.LVL213:
 1793 0000 17030000 		call	t0,__riscv_save_5
 1793      E7020300 
 1794              		.cfi_offset 20, -24
 1795              		.cfi_offset 19, -20
 1796              		.cfi_offset 18, -16
 1797              		.cfi_offset 9, -12
 1798              		.cfi_offset 8, -8
 1799              		.cfi_offset 1, -4
 1800              		.cfi_def_cfa_offset 32
 453:C:/Users/stapi/OneDrive/Desktop/GD32VW553/V1_MQTT_OK/GD32VW55X_Wifi_BLE_SDK/GD32VW55x_RELEASE_V1.0.2/MSDK/cloud/alicloud/src/services/linkkit/dm\dm_message.c ****     int res = 0, message_len = 0;
 1801              		.loc 1 453 5
 1802              	.LVL214:
 454:C:/Users/stapi/OneDrive/Desktop/GD32VW553/V1_MQTT_OK/GD32VW55X_Wifi_BLE_SDK/GD32VW55x_RELEASE_V1.0.2/MSDK/cloud/alicloud/src/services/linkkit/dm\dm_message.c ****     uintptr_t ctx_addr_num = (uintptr_t)ctx;
 1803              		.loc 1 454 5
 452:C:/Users/stapi/OneDrive/Desktop/GD32VW553/V1_MQTT_OK/GD32VW55X_Wifi_BLE_SDK/GD32VW55x_RELEASE_V1.0.2/MSDK/cloud/alicloud/src/services/linkkit/dm\dm_message.c ****     int res = 0, message_len = 0;
 1804              		.loc 1 452 1 is_stmt 0
 1805 0008 0111     		addi	sp,sp,-32
 1806              		.cfi_def_cfa_offset 64
 452:C:/Users/stapi/OneDrive/Desktop/GD32VW553/V1_MQTT_OK/GD32VW55X_Wifi_BLE_SDK/GD32VW55x_RELEASE_V1.0.2/MSDK/cloud/alicloud/src/services/linkkit/dm\dm_message.c ****     int res = 0, message_len = 0;
 1807              		.loc 1 452 1
 1808 000a 2A8A     		mv	s4,a0
 1809 000c 2E89     		mv	s2,a1
 1810              		.loc 1 454 15
 1811 000e 32CE     		sw	a2,28(sp)
 455:C:/Users/stapi/OneDrive/Desktop/GD32VW553/V1_MQTT_OK/GD32VW55X_Wifi_BLE_SDK/GD32VW55x_RELEASE_V1.0.2/MSDK/cloud/alicloud/src/services/linkkit/dm\dm_message.c ****     char *ctx_addr_str = NULL, *message = NULL;
 1812              		.loc 1 455 5 is_stmt 1
 1813              	.LVL215:
 456:C:/Users/stapi/OneDrive/Desktop/GD32VW553/V1_MQTT_OK/GD32VW55X_Wifi_BLE_SDK/GD32VW55x_RELEASE_V1.0.2/MSDK/cloud/alicloud/src/services/linkkit/dm\dm_message.c **** 
 457:C:/Users/stapi/OneDrive/Desktop/GD32VW553/V1_MQTT_OK/GD32VW55X_Wifi_BLE_SDK/GD32VW55x_RELEASE_V1.0.2/MSDK/cloud/alicloud/src/services/linkkit/dm\dm_message.c ****     ctx_addr_str = DM_malloc(sizeof(uintptr_t) * 2 + 1);
 1814              		.loc 1 457 5
 1815              		.loc 1 457 20 is_stmt 0
 1816 0010 8145     		li	a1,0
 1817              	.LVL216:
 1818 0012 2546     		li	a2,9
 1819              	.LVL217:
 1820 0014 0145     		li	a0,0
 1821              	.LVL218:
 1822 0016 97000000 		call	LITE_malloc_internal
 1822      E7800000 
 1823              	.LVL219:
 458:C:/Users/stapi/OneDrive/Desktop/GD32VW553/V1_MQTT_OK/GD32VW55X_Wifi_BLE_SDK/GD32VW55x_RELEASE_V1.0.2/MSDK/cloud/alicloud/src/services/linkkit/dm\dm_message.c ****     if (ctx_addr_str == NULL) {
 1824              		.loc 1 458 5 is_stmt 1
 1825              		.loc 1 458 8 is_stmt 0
 1826 001e 39C9     		beq	a0,zero,.L117
 459:C:/Users/stapi/OneDrive/Desktop/GD32VW553/V1_MQTT_OK/GD32VW55X_Wifi_BLE_SDK/GD32VW55x_RELEASE_V1.0.2/MSDK/cloud/alicloud/src/services/linkkit/dm\dm_message.c ****         return DM_MEMORY_NOT_ENOUGH;
 460:C:/Users/stapi/OneDrive/Desktop/GD32VW553/V1_MQTT_OK/GD32VW55X_Wifi_BLE_SDK/GD32VW55x_RELEASE_V1.0.2/MSDK/cloud/alicloud/src/services/linkkit/dm\dm_message.c ****     }
 461:C:/Users/stapi/OneDrive/Desktop/GD32VW553/V1_MQTT_OK/GD32VW55X_Wifi_BLE_SDK/GD32VW55x_RELEASE_V1.0.2/MSDK/cloud/alicloud/src/services/linkkit/dm\dm_message.c ****     memset(ctx_addr_str, 0, sizeof(uintptr_t) * 2 + 1);
 1827              		.loc 1 461 5
 1828 0020 2546     		li	a2,9
 1829 0022 8145     		li	a1,0
 1830 0024 AA84     		mv	s1,a0
 1831              		.loc 1 461 5 is_stmt 1
 1832 0026 97000000 		call	memset
 1832      E7800000 
 1833              	.LVL220:
 462:C:/Users/stapi/OneDrive/Desktop/GD32VW553/V1_MQTT_OK/GD32VW55X_Wifi_BLE_SDK/GD32VW55x_RELEASE_V1.0.2/MSDK/cloud/alicloud/src/services/linkkit/dm\dm_message.c **** 
 463:C:/Users/stapi/OneDrive/Desktop/GD32VW553/V1_MQTT_OK/GD32VW55X_Wifi_BLE_SDK/GD32VW55x_RELEASE_V1.0.2/MSDK/cloud/alicloud/src/services/linkkit/dm\dm_message.c ****     /*  dm_log_debug("ctx: %p", ctx);
 464:C:/Users/stapi/OneDrive/Desktop/GD32VW553/V1_MQTT_OK/GD32VW55X_Wifi_BLE_SDK/GD32VW55x_RELEASE_V1.0.2/MSDK/cloud/alicloud/src/services/linkkit/dm\dm_message.c ****      dm_log_debug("ctx_addr_num: %0x016llX", ctx_addr_num); */
 465:C:/Users/stapi/OneDrive/Desktop/GD32VW553/V1_MQTT_OK/GD32VW55X_Wifi_BLE_SDK/GD32VW55x_RELEASE_V1.0.2/MSDK/cloud/alicloud/src/services/linkkit/dm\dm_message.c ****     LITE_hexbuf_convert((unsigned char *)&ctx_addr_num, ctx_addr_str, sizeof(uintptr_t), 1);
 1834              		.loc 1 465 5
 1835 002e 8546     		li	a3,1
 1836 0030 1146     		li	a2,4
 1837 0032 A685     		mv	a1,s1
 1838 0034 6808     		addi	a0,sp,28
 1839 0036 97000000 		call	LITE_hexbuf_convert
 1839      E7800000 
 1840              	.LVL221:
 466:C:/Users/stapi/OneDrive/Desktop/GD32VW553/V1_MQTT_OK/GD32VW55X_Wifi_BLE_SDK/GD32VW55x_RELEASE_V1.0.2/MSDK/cloud/alicloud/src/services/linkkit/dm\dm_message.c ****     /* dm_log_debug("ctx_addr_str: %s", ctx_addr_str); */
 467:C:/Users/stapi/OneDrive/Desktop/GD32VW553/V1_MQTT_OK/GD32VW55X_Wifi_BLE_SDK/GD32VW55x_RELEASE_V1.0.2/MSDK/cloud/alicloud/src/services/linkkit/dm\dm_message.c **** 
 468:C:/Users/stapi/OneDrive/Desktop/GD32VW553/V1_MQTT_OK/GD32VW55X_Wifi_BLE_SDK/GD32VW55x_RELEASE_V1.0.2/MSDK/cloud/alicloud/src/services/linkkit/dm\dm_message.c ****     message_len = strlen(DM_MSG_THING_PROPERTY_GET_FMT) + request->id.value_length + DM_UTILS_UINT3
 1841              		.loc 1 468 5
 469:C:/Users/stapi/OneDrive/Desktop/GD32VW553/V1_MQTT_OK/GD32VW55X_Wifi_BLE_SDK/GD32VW55x_RELEASE_V1.0.2/MSDK/cloud/alicloud/src/services/linkkit/dm\dm_message.c ****                   request->params.value_length + strlen(ctx_addr_str) + 1;
 1842              		.loc 1 469 50 is_stmt 0
 1843 003e 2685     		mv	a0,s1
 1844 0040 97000000 		call	strlen
 1844      E7800000 
 1845              	.LVL222:
 468:C:/Users/stapi/OneDrive/Desktop/GD32VW553/V1_MQTT_OK/GD32VW55X_Wifi_BLE_SDK/GD32VW55x_RELEASE_V1.0.2/MSDK/cloud/alicloud/src/services/linkkit/dm\dm_message.c ****                   request->params.value_length + strlen(ctx_addr_str) + 1;
 1846              		.loc 1 468 109
 1847 0048 83278906 		lw	a5,104(s2)
 1848 004c 03248900 		lw	s0,8(s2)
 470:C:/Users/stapi/OneDrive/Desktop/GD32VW553/V1_MQTT_OK/GD32VW55X_Wifi_BLE_SDK/GD32VW55x_RELEASE_V1.0.2/MSDK/cloud/alicloud/src/services/linkkit/dm\dm_message.c ****     message = DM_malloc(message_len);
 1849              		.loc 1 470 15
 1850 0050 8145     		li	a1,0
 468:C:/Users/stapi/OneDrive/Desktop/GD32VW553/V1_MQTT_OK/GD32VW55X_Wifi_BLE_SDK/GD32VW55x_RELEASE_V1.0.2/MSDK/cloud/alicloud/src/services/linkkit/dm\dm_message.c ****                   request->params.value_length + strlen(ctx_addr_str) + 1;
 1851              		.loc 1 468 109
 1852 0052 3E94     		add	s0,s0,a5
 469:C:/Users/stapi/OneDrive/Desktop/GD32VW553/V1_MQTT_OK/GD32VW55X_Wifi_BLE_SDK/GD32VW55x_RELEASE_V1.0.2/MSDK/cloud/alicloud/src/services/linkkit/dm\dm_message.c ****                   request->params.value_length + strlen(ctx_addr_str) + 1;
 1853              		.loc 1 469 71
 1854 0054 1304D403 		addi	s0,s0,61
 1855 0058 2A94     		add	s0,s0,a0
 1856              	.LVL223:
 1857              		.loc 1 470 5 is_stmt 1
 1858              		.loc 1 470 15 is_stmt 0
 1859 005a 2286     		mv	a2,s0
 1860 005c 0145     		li	a0,0
 1861 005e 97000000 		call	LITE_malloc_internal
 1861      E7800000 
 1862              	.LVL224:
 1863 0066 AA89     		mv	s3,a0
 1864              	.LVL225:
 471:C:/Users/stapi/OneDrive/Desktop/GD32VW553/V1_MQTT_OK/GD32VW55X_Wifi_BLE_SDK/GD32VW55x_RELEASE_V1.0.2/MSDK/cloud/alicloud/src/services/linkkit/dm\dm_message.c ****     if (message == NULL) {
 1865              		.loc 1 471 5 is_stmt 1
 1866              		.loc 1 471 8 is_stmt 0
 1867 0068 01E9     		bne	a0,zero,.L116
 472:C:/Users/stapi/OneDrive/Desktop/GD32VW553/V1_MQTT_OK/GD32VW55X_Wifi_BLE_SDK/GD32VW55x_RELEASE_V1.0.2/MSDK/cloud/alicloud/src/services/linkkit/dm\dm_message.c ****         DM_free(ctx_addr_str);
 1868              		.loc 1 472 9 is_stmt 1
 1869 006a 2685     		mv	a0,s1
 1870              	.LVL226:
 1871 006c 97000000 		call	LITE_free_internal
 1871      E7800000 
 1872              	.LVL227:
 1873              		.loc 1 472 9
 1874              		.loc 1 472 30
 473:C:/Users/stapi/OneDrive/Desktop/GD32VW553/V1_MQTT_OK/GD32VW55X_Wifi_BLE_SDK/GD32VW55x_RELEASE_V1.0.2/MSDK/cloud/alicloud/src/services/linkkit/dm\dm_message.c ****         return DM_MEMORY_NOT_ENOUGH;
 1875              		.loc 1 473 9
 1876              	.L117:
 459:C:/Users/stapi/OneDrive/Desktop/GD32VW553/V1_MQTT_OK/GD32VW55X_Wifi_BLE_SDK/GD32VW55x_RELEASE_V1.0.2/MSDK/cloud/alicloud/src/services/linkkit/dm\dm_message.c ****     }
 1877              		.loc 1 459 16 is_stmt 0
 1878 0074 7555     		li	a0,-3
 1879 0076 A9A8     		j	.L114
 1880              	.LVL228:
 1881              	.L116:
 474:C:/Users/stapi/OneDrive/Desktop/GD32VW553/V1_MQTT_OK/GD32VW55X_Wifi_BLE_SDK/GD32VW55x_RELEASE_V1.0.2/MSDK/cloud/alicloud/src/services/linkkit/dm\dm_message.c ****     }
 475:C:/Users/stapi/OneDrive/Desktop/GD32VW553/V1_MQTT_OK/GD32VW55X_Wifi_BLE_SDK/GD32VW55x_RELEASE_V1.0.2/MSDK/cloud/alicloud/src/services/linkkit/dm\dm_message.c ****     memset(message, 0, message_len);
 1882              		.loc 1 475 5 is_stmt 1
 1883 0078 2286     		mv	a2,s0
 1884 007a 8145     		li	a1,0
 1885 007c 97000000 		call	memset
 1885      E7800000 
 1886              	.LVL229:
 476:C:/Users/stapi/OneDrive/Desktop/GD32VW553/V1_MQTT_OK/GD32VW55X_Wifi_BLE_SDK/GD32VW55x_RELEASE_V1.0.2/MSDK/cloud/alicloud/src/services/linkkit/dm\dm_message.c ****     HAL_Snprintf(message, message_len, DM_MSG_THING_PROPERTY_GET_FMT, request->id.value_length, req
 1887              		.loc 1 476 5
 1888 0084 83284906 		lw	a7,100(s2)
 1889 0088 03288906 		lw	a6,104(s2)
 1890 008c 03274900 		lw	a4,4(s2)
 1891 0090 83268900 		lw	a3,8(s2)
 1892 0094 37060000 		lui	a2,%hi(.LANCHOR9)
 1893 0098 A285     		mv	a1,s0
 1894 009a D287     		mv	a5,s4
 1895 009c 13060600 		addi	a2,a2,%lo(.LANCHOR9)
 1896 00a0 26C0     		sw	s1,0(sp)
 1897 00a2 4E85     		mv	a0,s3
 1898 00a4 97000000 		call	HAL_Snprintf
 1898      E7800000 
 1899              	.LVL230:
 477:C:/Users/stapi/OneDrive/Desktop/GD32VW553/V1_MQTT_OK/GD32VW55X_Wifi_BLE_SDK/GD32VW55x_RELEASE_V1.0.2/MSDK/cloud/alicloud/src/services/linkkit/dm\dm_message.c ****                  request->params.value_length, request->params.value, ctx_addr_str);
 478:C:/Users/stapi/OneDrive/Desktop/GD32VW553/V1_MQTT_OK/GD32VW55X_Wifi_BLE_SDK/GD32VW55x_RELEASE_V1.0.2/MSDK/cloud/alicloud/src/services/linkkit/dm\dm_message.c **** 
 479:C:/Users/stapi/OneDrive/Desktop/GD32VW553/V1_MQTT_OK/GD32VW55X_Wifi_BLE_SDK/GD32VW55x_RELEASE_V1.0.2/MSDK/cloud/alicloud/src/services/linkkit/dm\dm_message.c ****     DM_free(ctx_addr_str);
 1900              		.loc 1 479 5
 1901 00ac 2685     		mv	a0,s1
 1902 00ae 97000000 		call	LITE_free_internal
 1902      E7800000 
 1903              	.LVL231:
 1904              		.loc 1 479 5
 1905              		.loc 1 479 26
 480:C:/Users/stapi/OneDrive/Desktop/GD32VW553/V1_MQTT_OK/GD32VW55X_Wifi_BLE_SDK/GD32VW55x_RELEASE_V1.0.2/MSDK/cloud/alicloud/src/services/linkkit/dm\dm_message.c **** 
 481:C:/Users/stapi/OneDrive/Desktop/GD32VW553/V1_MQTT_OK/GD32VW55X_Wifi_BLE_SDK/GD32VW55x_RELEASE_V1.0.2/MSDK/cloud/alicloud/src/services/linkkit/dm\dm_message.c ****     res = _dm_msg_send_to_user(IOTX_DM_EVENT_PROPERTY_GET, message);
 1906              		.loc 1 481 5
 1907              		.loc 1 481 11 is_stmt 0
 1908 00b6 CE85     		mv	a1,s3
 1909 00b8 4145     		li	a0,16
 1910 00ba 97000000 		call	_dm_msg_send_to_user
 1910      E7800000 
 1911              	.LVL232:
 482:C:/Users/stapi/OneDrive/Desktop/GD32VW553/V1_MQTT_OK/GD32VW55X_Wifi_BLE_SDK/GD32VW55x_RELEASE_V1.0.2/MSDK/cloud/alicloud/src/services/linkkit/dm\dm_message.c ****     if (res != SUCCESS_RETURN) {
 1912              		.loc 1 482 5 is_stmt 1
 1913              		.loc 1 482 8 is_stmt 0
 1914 00c2 19C5     		beq	a0,zero,.L114
 483:C:/Users/stapi/OneDrive/Desktop/GD32VW553/V1_MQTT_OK/GD32VW55X_Wifi_BLE_SDK/GD32VW55x_RELEASE_V1.0.2/MSDK/cloud/alicloud/src/services/linkkit/dm\dm_message.c ****         DM_free(message);
 1915              		.loc 1 483 9 is_stmt 1
 1916 00c4 4E85     		mv	a0,s3
 1917              	.LVL233:
 1918 00c6 97000000 		call	LITE_free_internal
 1918      E7800000 
 1919              	.LVL234:
 1920              		.loc 1 483 9
 1921              		.loc 1 483 25
 484:C:/Users/stapi/OneDrive/Desktop/GD32VW553/V1_MQTT_OK/GD32VW55X_Wifi_BLE_SDK/GD32VW55x_RELEASE_V1.0.2/MSDK/cloud/alicloud/src/services/linkkit/dm\dm_message.c ****         return FAIL_RETURN;
 1922              		.loc 1 484 9
 1923              		.loc 1 484 16 is_stmt 0
 1924 00ce 7D55     		li	a0,-1
 1925              	.LVL235:
 1926              	.L114:
 485:C:/Users/stapi/OneDrive/Desktop/GD32VW553/V1_MQTT_OK/GD32VW55X_Wifi_BLE_SDK/GD32VW55x_RELEASE_V1.0.2/MSDK/cloud/alicloud/src/services/linkkit/dm\dm_message.c ****     }
 486:C:/Users/stapi/OneDrive/Desktop/GD32VW553/V1_MQTT_OK/GD32VW55X_Wifi_BLE_SDK/GD32VW55x_RELEASE_V1.0.2/MSDK/cloud/alicloud/src/services/linkkit/dm\dm_message.c **** 
 487:C:/Users/stapi/OneDrive/Desktop/GD32VW553/V1_MQTT_OK/GD32VW55X_Wifi_BLE_SDK/GD32VW55x_RELEASE_V1.0.2/MSDK/cloud/alicloud/src/services/linkkit/dm\dm_message.c ****     return SUCCESS_RETURN;
 488:C:/Users/stapi/OneDrive/Desktop/GD32VW553/V1_MQTT_OK/GD32VW55X_Wifi_BLE_SDK/GD32VW55x_RELEASE_V1.0.2/MSDK/cloud/alicloud/src/services/linkkit/dm\dm_message.c **** }
 1927              		.loc 1 488 1
 1928 00d0 0561     		addi	sp,sp,32
 1929              		.cfi_def_cfa_offset 0
 1930 00d2 17030000 		tail	__riscv_restore_5
 1930      67000300 
 1931              		.cfi_restore 20
 1932              		.cfi_restore 19
 1933              		.cfi_restore 18
 1934              		.cfi_restore 9
 1935              		.cfi_restore 8
 1936              		.cfi_restore 1
 1937              		.cfi_def_cfa_offset -32
 1938              		.cfi_endproc
 1939              	.LFE33:
 1941              		.section	.text.dm_msg_thing_service_request,"ax",@progbits
 1942              		.align	1
 1943              		.globl	dm_msg_thing_service_request
 1945              	dm_msg_thing_service_request:
 1946              	.LFB34:
 489:C:/Users/stapi/OneDrive/Desktop/GD32VW553/V1_MQTT_OK/GD32VW55X_Wifi_BLE_SDK/GD32VW55x_RELEASE_V1.0.2/MSDK/cloud/alicloud/src/services/linkkit/dm\dm_message.c **** 
 490:C:/Users/stapi/OneDrive/Desktop/GD32VW553/V1_MQTT_OK/GD32VW55X_Wifi_BLE_SDK/GD32VW55x_RELEASE_V1.0.2/MSDK/cloud/alicloud/src/services/linkkit/dm\dm_message.c **** const char DM_MSG_SERVICE_REQUEST_FMT[] DM_READ_ONLY =
 491:C:/Users/stapi/OneDrive/Desktop/GD32VW553/V1_MQTT_OK/GD32VW55X_Wifi_BLE_SDK/GD32VW55x_RELEASE_V1.0.2/MSDK/cloud/alicloud/src/services/linkkit/dm\dm_message.c ****             "{\"id\":\"%.*s\",\"devid\":%d,\"serviceid\":\"%.*s\",\"payload\":%.*s,\"ctx\":\"%s\"}"
 492:C:/Users/stapi/OneDrive/Desktop/GD32VW553/V1_MQTT_OK/GD32VW55X_Wifi_BLE_SDK/GD32VW55x_RELEASE_V1.0.2/MSDK/cloud/alicloud/src/services/linkkit/dm\dm_message.c **** int dm_msg_thing_service_request(_IN_ char product_key[PRODUCT_KEY_MAXLEN], _IN_ char device_name[D
 493:C:/Users/stapi/OneDrive/Desktop/GD32VW553/V1_MQTT_OK/GD32VW55X_Wifi_BLE_SDK/GD32VW55x_RELEASE_V1.0.2/MSDK/cloud/alicloud/src/services/linkkit/dm\dm_message.c ****                                  char *identifier, int identifier_len, dm_msg_request_payload_t *re
 494:C:/Users/stapi/OneDrive/Desktop/GD32VW553/V1_MQTT_OK/GD32VW55X_Wifi_BLE_SDK/GD32VW55x_RELEASE_V1.0.2/MSDK/cloud/alicloud/src/services/linkkit/dm\dm_message.c **** {
 1947              		.loc 1 494 1 is_stmt 1
 1948              		.cfi_startproc
 1949              	.LVL236:
 1950 0000 17030000 		call	t0,__riscv_save_6
 1950      E7020300 
 1951              		.cfi_offset 21, -28
 1952              		.cfi_offset 20, -24
 1953              		.cfi_offset 19, -20
 1954              		.cfi_offset 18, -16
 1955              		.cfi_offset 9, -12
 1956              		.cfi_offset 8, -8
 1957              		.cfi_offset 1, -4
 1958              		.cfi_def_cfa_offset 32
 495:C:/Users/stapi/OneDrive/Desktop/GD32VW553/V1_MQTT_OK/GD32VW55X_Wifi_BLE_SDK/GD32VW55x_RELEASE_V1.0.2/MSDK/cloud/alicloud/src/services/linkkit/dm\dm_message.c ****     int res = 0, devid = 0, message_len = 0;
 1959              		.loc 1 495 5
 1960              	.LVL237:
 494:C:/Users/stapi/OneDrive/Desktop/GD32VW553/V1_MQTT_OK/GD32VW55X_Wifi_BLE_SDK/GD32VW55x_RELEASE_V1.0.2/MSDK/cloud/alicloud/src/services/linkkit/dm\dm_message.c ****     int res = 0, devid = 0, message_len = 0;
 1961              		.loc 1 494 1 is_stmt 0
 1962 0008 0111     		addi	sp,sp,-32
 1963              		.cfi_def_cfa_offset 64
 496:C:/Users/stapi/OneDrive/Desktop/GD32VW553/V1_MQTT_OK/GD32VW55X_Wifi_BLE_SDK/GD32VW55x_RELEASE_V1.0.2/MSDK/cloud/alicloud/src/services/linkkit/dm\dm_message.c ****     char *message = NULL;
 497:C:/Users/stapi/OneDrive/Desktop/GD32VW553/V1_MQTT_OK/GD32VW55X_Wifi_BLE_SDK/GD32VW55x_RELEASE_V1.0.2/MSDK/cloud/alicloud/src/services/linkkit/dm\dm_message.c ****     uintptr_t ctx_addr_num = (uintptr_t)ctx;
 1964              		.loc 1 497 15
 1965 000a 3ECE     		sw	a5,28(sp)
 495:C:/Users/stapi/OneDrive/Desktop/GD32VW553/V1_MQTT_OK/GD32VW55X_Wifi_BLE_SDK/GD32VW55x_RELEASE_V1.0.2/MSDK/cloud/alicloud/src/services/linkkit/dm\dm_message.c ****     char *message = NULL;
 1966              		.loc 1 495 18
 1967 000c 02CC     		sw	zero,24(sp)
 1968              	.LVL238:
 496:C:/Users/stapi/OneDrive/Desktop/GD32VW553/V1_MQTT_OK/GD32VW55X_Wifi_BLE_SDK/GD32VW55x_RELEASE_V1.0.2/MSDK/cloud/alicloud/src/services/linkkit/dm\dm_message.c ****     char *message = NULL;
 1969              		.loc 1 496 5 is_stmt 1
 1970              		.loc 1 497 5
 498:C:/Users/stapi/OneDrive/Desktop/GD32VW553/V1_MQTT_OK/GD32VW55X_Wifi_BLE_SDK/GD32VW55x_RELEASE_V1.0.2/MSDK/cloud/alicloud/src/services/linkkit/dm\dm_message.c ****     char *ctx_addr_str = NULL;
 1971              		.loc 1 498 5
 499:C:/Users/stapi/OneDrive/Desktop/GD32VW553/V1_MQTT_OK/GD32VW55X_Wifi_BLE_SDK/GD32VW55x_RELEASE_V1.0.2/MSDK/cloud/alicloud/src/services/linkkit/dm\dm_message.c **** 
 500:C:/Users/stapi/OneDrive/Desktop/GD32VW553/V1_MQTT_OK/GD32VW55X_Wifi_BLE_SDK/GD32VW55x_RELEASE_V1.0.2/MSDK/cloud/alicloud/src/services/linkkit/dm\dm_message.c ****     if (product_key == NULL || device_name == NULL ||
 1972              		.loc 1 500 5
 501:C:/Users/stapi/OneDrive/Desktop/GD32VW553/V1_MQTT_OK/GD32VW55X_Wifi_BLE_SDK/GD32VW55x_RELEASE_V1.0.2/MSDK/cloud/alicloud/src/services/linkkit/dm\dm_message.c ****         (strlen(product_key) >= IOTX_PRODUCT_KEY_LEN + 1) ||
 502:C:/Users/stapi/OneDrive/Desktop/GD32VW553/V1_MQTT_OK/GD32VW55X_Wifi_BLE_SDK/GD32VW55x_RELEASE_V1.0.2/MSDK/cloud/alicloud/src/services/linkkit/dm\dm_message.c ****         (strlen(device_name) >= IOTX_DEVICE_NAME_LEN + 1) ||
 503:C:/Users/stapi/OneDrive/Desktop/GD32VW553/V1_MQTT_OK/GD32VW55X_Wifi_BLE_SDK/GD32VW55x_RELEASE_V1.0.2/MSDK/cloud/alicloud/src/services/linkkit/dm\dm_message.c ****         identifier == NULL || identifier_len == 0 || request == NULL) {
 504:C:/Users/stapi/OneDrive/Desktop/GD32VW553/V1_MQTT_OK/GD32VW55X_Wifi_BLE_SDK/GD32VW55x_RELEASE_V1.0.2/MSDK/cloud/alicloud/src/services/linkkit/dm\dm_message.c ****         return STATE_USER_INPUT_INVALID;
 1973              		.loc 1 504 16 is_stmt 0
 1974 000e 9307D0EE 		li	a5,-275
 1975              	.LVL239:
 500:C:/Users/stapi/OneDrive/Desktop/GD32VW553/V1_MQTT_OK/GD32VW55X_Wifi_BLE_SDK/GD32VW55x_RELEASE_V1.0.2/MSDK/cloud/alicloud/src/services/linkkit/dm\dm_message.c ****         (strlen(product_key) >= IOTX_PRODUCT_KEY_LEN + 1) ||
 1976              		.loc 1 500 8
 1977 0012 71C1     		beq	a0,zero,.L122
 1978 0014 2E84     		mv	s0,a1
 1979              		.loc 1 504 16 discriminator 1
 1980 0016 9307D0EE 		li	a5,-275
 500:C:/Users/stapi/OneDrive/Desktop/GD32VW553/V1_MQTT_OK/GD32VW55X_Wifi_BLE_SDK/GD32VW55x_RELEASE_V1.0.2/MSDK/cloud/alicloud/src/services/linkkit/dm\dm_message.c ****         (strlen(product_key) >= IOTX_PRODUCT_KEY_LEN + 1) ||
 1981              		.loc 1 500 29 discriminator 1
 1982 001a D5CD     		beq	a1,zero,.L122
 1983 001c BA84     		mv	s1,a4
 1984 001e 2A89     		mv	s2,a0
 1985 0020 B28A     		mv	s5,a2
 1986 0022 368A     		mv	s4,a3
 501:C:/Users/stapi/OneDrive/Desktop/GD32VW553/V1_MQTT_OK/GD32VW55X_Wifi_BLE_SDK/GD32VW55x_RELEASE_V1.0.2/MSDK/cloud/alicloud/src/services/linkkit/dm\dm_message.c ****         (strlen(product_key) >= IOTX_PRODUCT_KEY_LEN + 1) ||
 1987              		.loc 1 501 10 discriminator 2
 1988 0024 97000000 		call	strlen
 1988      E7800000 
 1989              	.LVL240:
 500:C:/Users/stapi/OneDrive/Desktop/GD32VW553/V1_MQTT_OK/GD32VW55X_Wifi_BLE_SDK/GD32VW55x_RELEASE_V1.0.2/MSDK/cloud/alicloud/src/services/linkkit/dm\dm_message.c ****         (strlen(product_key) >= IOTX_PRODUCT_KEY_LEN + 1) ||
 1990              		.loc 1 500 52 discriminator 2
 1991 002c 5147     		li	a4,20
 1992              		.loc 1 504 16 discriminator 2
 1993 002e 9307D0EE 		li	a5,-275
 500:C:/Users/stapi/OneDrive/Desktop/GD32VW553/V1_MQTT_OK/GD32VW55X_Wifi_BLE_SDK/GD32VW55x_RELEASE_V1.0.2/MSDK/cloud/alicloud/src/services/linkkit/dm\dm_message.c ****         (strlen(product_key) >= IOTX_PRODUCT_KEY_LEN + 1) ||
 1994              		.loc 1 500 52 discriminator 2
 1995 0032 6362A70A 		bgtu	a0,a4,.L122
 502:C:/Users/stapi/OneDrive/Desktop/GD32VW553/V1_MQTT_OK/GD32VW55X_Wifi_BLE_SDK/GD32VW55x_RELEASE_V1.0.2/MSDK/cloud/alicloud/src/services/linkkit/dm\dm_message.c ****         identifier == NULL || identifier_len == 0 || request == NULL) {
 1996              		.loc 1 502 10
 1997 0036 2285     		mv	a0,s0
 1998 0038 97000000 		call	strlen
 1998      E7800000 
 1999              	.LVL241:
 501:C:/Users/stapi/OneDrive/Desktop/GD32VW553/V1_MQTT_OK/GD32VW55X_Wifi_BLE_SDK/GD32VW55x_RELEASE_V1.0.2/MSDK/cloud/alicloud/src/services/linkkit/dm\dm_message.c ****         (strlen(product_key) >= IOTX_PRODUCT_KEY_LEN + 1) ||
 2000              		.loc 1 501 59
 2001 0040 13070002 		li	a4,32
 2002              		.loc 1 504 16
 2003 0044 9307D0EE 		li	a5,-275
 501:C:/Users/stapi/OneDrive/Desktop/GD32VW553/V1_MQTT_OK/GD32VW55X_Wifi_BLE_SDK/GD32VW55x_RELEASE_V1.0.2/MSDK/cloud/alicloud/src/services/linkkit/dm\dm_message.c ****         (strlen(product_key) >= IOTX_PRODUCT_KEY_LEN + 1) ||
 2004              		.loc 1 501 59
 2005 0048 6367A708 		bgtu	a0,a4,.L122
 502:C:/Users/stapi/OneDrive/Desktop/GD32VW553/V1_MQTT_OK/GD32VW55X_Wifi_BLE_SDK/GD32VW55x_RELEASE_V1.0.2/MSDK/cloud/alicloud/src/services/linkkit/dm\dm_message.c ****         identifier == NULL || identifier_len == 0 || request == NULL) {
 2006              		.loc 1 502 59
 2007 004c 63850A08 		beq	s5,zero,.L122
 503:C:/Users/stapi/OneDrive/Desktop/GD32VW553/V1_MQTT_OK/GD32VW55X_Wifi_BLE_SDK/GD32VW55x_RELEASE_V1.0.2/MSDK/cloud/alicloud/src/services/linkkit/dm\dm_message.c ****         return STATE_USER_INPUT_INVALID;
 2008              		.loc 1 503 28
 2009 0050 63030A08 		beq	s4,zero,.L122
 503:C:/Users/stapi/OneDrive/Desktop/GD32VW553/V1_MQTT_OK/GD32VW55X_Wifi_BLE_SDK/GD32VW55x_RELEASE_V1.0.2/MSDK/cloud/alicloud/src/services/linkkit/dm\dm_message.c ****         return STATE_USER_INPUT_INVALID;
 2010              		.loc 1 503 51 discriminator 1
 2011 0054 C9C0     		beq	s1,zero,.L122
 505:C:/Users/stapi/OneDrive/Desktop/GD32VW553/V1_MQTT_OK/GD32VW55X_Wifi_BLE_SDK/GD32VW55x_RELEASE_V1.0.2/MSDK/cloud/alicloud/src/services/linkkit/dm\dm_message.c ****     }
 506:C:/Users/stapi/OneDrive/Desktop/GD32VW553/V1_MQTT_OK/GD32VW55X_Wifi_BLE_SDK/GD32VW55x_RELEASE_V1.0.2/MSDK/cloud/alicloud/src/services/linkkit/dm\dm_message.c ****     /* Message ID */
 507:C:/Users/stapi/OneDrive/Desktop/GD32VW553/V1_MQTT_OK/GD32VW55X_Wifi_BLE_SDK/GD32VW55x_RELEASE_V1.0.2/MSDK/cloud/alicloud/src/services/linkkit/dm\dm_message.c ****     if (request->id.value_length > DM_UTILS_UINT32_STRLEN) {
 2012              		.loc 1 507 5 is_stmt 1
 2013              		.loc 1 507 8 is_stmt 0
 2014 0056 9844     		lw	a4,8(s1)
 2015 0058 A947     		li	a5,10
 2016 005a 63D4E700 		ble	a4,a5,.L124
 2017              	.LVL242:
 2018              	.L139:
 508:C:/Users/stapi/OneDrive/Desktop/GD32VW553/V1_MQTT_OK/GD32VW55X_Wifi_BLE_SDK/GD32VW55x_RELEASE_V1.0.2/MSDK/cloud/alicloud/src/services/linkkit/dm\dm_message.c ****         return FAIL_RETURN;
 509:C:/Users/stapi/OneDrive/Desktop/GD32VW553/V1_MQTT_OK/GD32VW55X_Wifi_BLE_SDK/GD32VW55x_RELEASE_V1.0.2/MSDK/cloud/alicloud/src/services/linkkit/dm\dm_message.c ****     }
 510:C:/Users/stapi/OneDrive/Desktop/GD32VW553/V1_MQTT_OK/GD32VW55X_Wifi_BLE_SDK/GD32VW55x_RELEASE_V1.0.2/MSDK/cloud/alicloud/src/services/linkkit/dm\dm_message.c **** 
 511:C:/Users/stapi/OneDrive/Desktop/GD32VW553/V1_MQTT_OK/GD32VW55X_Wifi_BLE_SDK/GD32VW55x_RELEASE_V1.0.2/MSDK/cloud/alicloud/src/services/linkkit/dm\dm_message.c ****     res = dm_mgr_search_device_by_pkdn(product_key, device_name, &devid);
 512:C:/Users/stapi/OneDrive/Desktop/GD32VW553/V1_MQTT_OK/GD32VW55X_Wifi_BLE_SDK/GD32VW55x_RELEASE_V1.0.2/MSDK/cloud/alicloud/src/services/linkkit/dm\dm_message.c ****     if (res != SUCCESS_RETURN) {
 513:C:/Users/stapi/OneDrive/Desktop/GD32VW553/V1_MQTT_OK/GD32VW55X_Wifi_BLE_SDK/GD32VW55x_RELEASE_V1.0.2/MSDK/cloud/alicloud/src/services/linkkit/dm\dm_message.c ****         return FAIL_RETURN;
 514:C:/Users/stapi/OneDrive/Desktop/GD32VW553/V1_MQTT_OK/GD32VW55X_Wifi_BLE_SDK/GD32VW55x_RELEASE_V1.0.2/MSDK/cloud/alicloud/src/services/linkkit/dm\dm_message.c ****     }
 515:C:/Users/stapi/OneDrive/Desktop/GD32VW553/V1_MQTT_OK/GD32VW55X_Wifi_BLE_SDK/GD32VW55x_RELEASE_V1.0.2/MSDK/cloud/alicloud/src/services/linkkit/dm\dm_message.c **** #ifdef LOG_REPORT_TO_CLOUD
 516:C:/Users/stapi/OneDrive/Desktop/GD32VW553/V1_MQTT_OK/GD32VW55X_Wifi_BLE_SDK/GD32VW55x_RELEASE_V1.0.2/MSDK/cloud/alicloud/src/services/linkkit/dm\dm_message.c ****     if (0 == strncmp(identifier, "SetProfilerOptions", identifier_len)) {
 517:C:/Users/stapi/OneDrive/Desktop/GD32VW553/V1_MQTT_OK/GD32VW55X_Wifi_BLE_SDK/GD32VW55x_RELEASE_V1.0.2/MSDK/cloud/alicloud/src/services/linkkit/dm\dm_message.c ****         extern void parse_switch_info(const char *input, int len);
 518:C:/Users/stapi/OneDrive/Desktop/GD32VW553/V1_MQTT_OK/GD32VW55X_Wifi_BLE_SDK/GD32VW55x_RELEASE_V1.0.2/MSDK/cloud/alicloud/src/services/linkkit/dm\dm_message.c ****         parse_switch_info(request->params.value, request->params.value_length);
 519:C:/Users/stapi/OneDrive/Desktop/GD32VW553/V1_MQTT_OK/GD32VW55X_Wifi_BLE_SDK/GD32VW55x_RELEASE_V1.0.2/MSDK/cloud/alicloud/src/services/linkkit/dm\dm_message.c ****         return SUCCESS_RETURN;
 520:C:/Users/stapi/OneDrive/Desktop/GD32VW553/V1_MQTT_OK/GD32VW55X_Wifi_BLE_SDK/GD32VW55x_RELEASE_V1.0.2/MSDK/cloud/alicloud/src/services/linkkit/dm\dm_message.c ****     }
 521:C:/Users/stapi/OneDrive/Desktop/GD32VW553/V1_MQTT_OK/GD32VW55X_Wifi_BLE_SDK/GD32VW55x_RELEASE_V1.0.2/MSDK/cloud/alicloud/src/services/linkkit/dm\dm_message.c **** #endif
 522:C:/Users/stapi/OneDrive/Desktop/GD32VW553/V1_MQTT_OK/GD32VW55X_Wifi_BLE_SDK/GD32VW55x_RELEASE_V1.0.2/MSDK/cloud/alicloud/src/services/linkkit/dm\dm_message.c ****     ctx_addr_str = DM_malloc(sizeof(uintptr_t) * 2 + 1);
 523:C:/Users/stapi/OneDrive/Desktop/GD32VW553/V1_MQTT_OK/GD32VW55X_Wifi_BLE_SDK/GD32VW55x_RELEASE_V1.0.2/MSDK/cloud/alicloud/src/services/linkkit/dm\dm_message.c ****     if (ctx_addr_str == NULL) {
 524:C:/Users/stapi/OneDrive/Desktop/GD32VW553/V1_MQTT_OK/GD32VW55X_Wifi_BLE_SDK/GD32VW55x_RELEASE_V1.0.2/MSDK/cloud/alicloud/src/services/linkkit/dm\dm_message.c ****         return DM_MEMORY_NOT_ENOUGH;
 525:C:/Users/stapi/OneDrive/Desktop/GD32VW553/V1_MQTT_OK/GD32VW55X_Wifi_BLE_SDK/GD32VW55x_RELEASE_V1.0.2/MSDK/cloud/alicloud/src/services/linkkit/dm\dm_message.c ****     }
 526:C:/Users/stapi/OneDrive/Desktop/GD32VW553/V1_MQTT_OK/GD32VW55X_Wifi_BLE_SDK/GD32VW55x_RELEASE_V1.0.2/MSDK/cloud/alicloud/src/services/linkkit/dm\dm_message.c ****     memset(ctx_addr_str, 0, sizeof(uintptr_t) * 2 + 1);
 527:C:/Users/stapi/OneDrive/Desktop/GD32VW553/V1_MQTT_OK/GD32VW55X_Wifi_BLE_SDK/GD32VW55x_RELEASE_V1.0.2/MSDK/cloud/alicloud/src/services/linkkit/dm\dm_message.c ****     LITE_hexbuf_convert((unsigned char *)&ctx_addr_num, ctx_addr_str, sizeof(uintptr_t), 1);
 528:C:/Users/stapi/OneDrive/Desktop/GD32VW553/V1_MQTT_OK/GD32VW55X_Wifi_BLE_SDK/GD32VW55x_RELEASE_V1.0.2/MSDK/cloud/alicloud/src/services/linkkit/dm\dm_message.c **** 
 529:C:/Users/stapi/OneDrive/Desktop/GD32VW553/V1_MQTT_OK/GD32VW55X_Wifi_BLE_SDK/GD32VW55x_RELEASE_V1.0.2/MSDK/cloud/alicloud/src/services/linkkit/dm\dm_message.c ****     message_len = strlen(DM_MSG_SERVICE_REQUEST_FMT) + request->id.value_length + DM_UTILS_UINT32_S
 530:C:/Users/stapi/OneDrive/Desktop/GD32VW553/V1_MQTT_OK/GD32VW55X_Wifi_BLE_SDK/GD32VW55x_RELEASE_V1.0.2/MSDK/cloud/alicloud/src/services/linkkit/dm\dm_message.c ****                   request->params.value_length + strlen(ctx_addr_str)  + 1;
 531:C:/Users/stapi/OneDrive/Desktop/GD32VW553/V1_MQTT_OK/GD32VW55X_Wifi_BLE_SDK/GD32VW55x_RELEASE_V1.0.2/MSDK/cloud/alicloud/src/services/linkkit/dm\dm_message.c ****     message = DM_malloc(message_len);
 532:C:/Users/stapi/OneDrive/Desktop/GD32VW553/V1_MQTT_OK/GD32VW55X_Wifi_BLE_SDK/GD32VW55x_RELEASE_V1.0.2/MSDK/cloud/alicloud/src/services/linkkit/dm\dm_message.c ****     if (message == NULL) {
 533:C:/Users/stapi/OneDrive/Desktop/GD32VW553/V1_MQTT_OK/GD32VW55X_Wifi_BLE_SDK/GD32VW55x_RELEASE_V1.0.2/MSDK/cloud/alicloud/src/services/linkkit/dm\dm_message.c ****         DM_free(ctx_addr_str);
 534:C:/Users/stapi/OneDrive/Desktop/GD32VW553/V1_MQTT_OK/GD32VW55X_Wifi_BLE_SDK/GD32VW55x_RELEASE_V1.0.2/MSDK/cloud/alicloud/src/services/linkkit/dm\dm_message.c ****         return DM_MEMORY_NOT_ENOUGH;
 535:C:/Users/stapi/OneDrive/Desktop/GD32VW553/V1_MQTT_OK/GD32VW55X_Wifi_BLE_SDK/GD32VW55x_RELEASE_V1.0.2/MSDK/cloud/alicloud/src/services/linkkit/dm\dm_message.c ****     }
 536:C:/Users/stapi/OneDrive/Desktop/GD32VW553/V1_MQTT_OK/GD32VW55X_Wifi_BLE_SDK/GD32VW55x_RELEASE_V1.0.2/MSDK/cloud/alicloud/src/services/linkkit/dm\dm_message.c **** 
 537:C:/Users/stapi/OneDrive/Desktop/GD32VW553/V1_MQTT_OK/GD32VW55X_Wifi_BLE_SDK/GD32VW55x_RELEASE_V1.0.2/MSDK/cloud/alicloud/src/services/linkkit/dm\dm_message.c ****     memset(message, 0, message_len);
 538:C:/Users/stapi/OneDrive/Desktop/GD32VW553/V1_MQTT_OK/GD32VW55X_Wifi_BLE_SDK/GD32VW55x_RELEASE_V1.0.2/MSDK/cloud/alicloud/src/services/linkkit/dm\dm_message.c ****     HAL_Snprintf(message, message_len, DM_MSG_SERVICE_REQUEST_FMT, request->id.value_length, reques
 539:C:/Users/stapi/OneDrive/Desktop/GD32VW553/V1_MQTT_OK/GD32VW55X_Wifi_BLE_SDK/GD32VW55x_RELEASE_V1.0.2/MSDK/cloud/alicloud/src/services/linkkit/dm\dm_message.c ****                  identifier_len, identifier,
 540:C:/Users/stapi/OneDrive/Desktop/GD32VW553/V1_MQTT_OK/GD32VW55X_Wifi_BLE_SDK/GD32VW55x_RELEASE_V1.0.2/MSDK/cloud/alicloud/src/services/linkkit/dm\dm_message.c ****                  request->params.value_length, request->params.value, ctx_addr_str);
 541:C:/Users/stapi/OneDrive/Desktop/GD32VW553/V1_MQTT_OK/GD32VW55X_Wifi_BLE_SDK/GD32VW55x_RELEASE_V1.0.2/MSDK/cloud/alicloud/src/services/linkkit/dm\dm_message.c **** 
 542:C:/Users/stapi/OneDrive/Desktop/GD32VW553/V1_MQTT_OK/GD32VW55X_Wifi_BLE_SDK/GD32VW55x_RELEASE_V1.0.2/MSDK/cloud/alicloud/src/services/linkkit/dm\dm_message.c ****     DM_free(ctx_addr_str);
 543:C:/Users/stapi/OneDrive/Desktop/GD32VW553/V1_MQTT_OK/GD32VW55X_Wifi_BLE_SDK/GD32VW55x_RELEASE_V1.0.2/MSDK/cloud/alicloud/src/services/linkkit/dm\dm_message.c ****     res = _dm_msg_send_to_user(IOTX_DM_EVENT_THING_SERVICE_REQUEST, message);
 544:C:/Users/stapi/OneDrive/Desktop/GD32VW553/V1_MQTT_OK/GD32VW55X_Wifi_BLE_SDK/GD32VW55x_RELEASE_V1.0.2/MSDK/cloud/alicloud/src/services/linkkit/dm\dm_message.c ****     if (res != SUCCESS_RETURN) {
 545:C:/Users/stapi/OneDrive/Desktop/GD32VW553/V1_MQTT_OK/GD32VW55X_Wifi_BLE_SDK/GD32VW55x_RELEASE_V1.0.2/MSDK/cloud/alicloud/src/services/linkkit/dm\dm_message.c ****         DM_free(message);
 2019              		.loc 1 545 9 is_stmt 1
 2020              		.loc 1 545 25
 546:C:/Users/stapi/OneDrive/Desktop/GD32VW553/V1_MQTT_OK/GD32VW55X_Wifi_BLE_SDK/GD32VW55x_RELEASE_V1.0.2/MSDK/cloud/alicloud/src/services/linkkit/dm\dm_message.c ****         return FAIL_RETURN;
 2021              		.loc 1 546 9
 2022              		.loc 1 546 16 is_stmt 0
 2023 005e FD57     		li	a5,-1
 2024 0060 9DA8     		j	.L122
 2025              	.LVL243:
 2026              	.L124:
 511:C:/Users/stapi/OneDrive/Desktop/GD32VW553/V1_MQTT_OK/GD32VW55X_Wifi_BLE_SDK/GD32VW55x_RELEASE_V1.0.2/MSDK/cloud/alicloud/src/services/linkkit/dm\dm_message.c ****     if (res != SUCCESS_RETURN) {
 2027              		.loc 1 511 5 is_stmt 1
 511:C:/Users/stapi/OneDrive/Desktop/GD32VW553/V1_MQTT_OK/GD32VW55X_Wifi_BLE_SDK/GD32VW55x_RELEASE_V1.0.2/MSDK/cloud/alicloud/src/services/linkkit/dm\dm_message.c ****     if (res != SUCCESS_RETURN) {
 2028              		.loc 1 511 11 is_stmt 0
 2029 0062 3008     		addi	a2,sp,24
 2030 0064 A285     		mv	a1,s0
 2031 0066 4A85     		mv	a0,s2
 2032 0068 97000000 		call	dm_mgr_search_device_by_pkdn
 2032      E7800000 
 2033              	.LVL244:
 512:C:/Users/stapi/OneDrive/Desktop/GD32VW553/V1_MQTT_OK/GD32VW55X_Wifi_BLE_SDK/GD32VW55x_RELEASE_V1.0.2/MSDK/cloud/alicloud/src/services/linkkit/dm\dm_message.c ****         return FAIL_RETURN;
 2034              		.loc 1 512 5 is_stmt 1
 512:C:/Users/stapi/OneDrive/Desktop/GD32VW553/V1_MQTT_OK/GD32VW55X_Wifi_BLE_SDK/GD32VW55x_RELEASE_V1.0.2/MSDK/cloud/alicloud/src/services/linkkit/dm\dm_message.c ****         return FAIL_RETURN;
 2035              		.loc 1 512 8 is_stmt 0
 2036 0070 7DF5     		bne	a0,zero,.L139
 522:C:/Users/stapi/OneDrive/Desktop/GD32VW553/V1_MQTT_OK/GD32VW55X_Wifi_BLE_SDK/GD32VW55x_RELEASE_V1.0.2/MSDK/cloud/alicloud/src/services/linkkit/dm\dm_message.c ****     if (ctx_addr_str == NULL) {
 2037              		.loc 1 522 5 is_stmt 1
 522:C:/Users/stapi/OneDrive/Desktop/GD32VW553/V1_MQTT_OK/GD32VW55X_Wifi_BLE_SDK/GD32VW55x_RELEASE_V1.0.2/MSDK/cloud/alicloud/src/services/linkkit/dm\dm_message.c ****     if (ctx_addr_str == NULL) {
 2038              		.loc 1 522 20 is_stmt 0
 2039 0072 2546     		li	a2,9
 2040 0074 8145     		li	a1,0
 2041 0076 97000000 		call	LITE_malloc_internal
 2041      E7800000 
 2042              	.LVL245:
 2043 007e 2A89     		mv	s2,a0
 2044              	.LVL246:
 523:C:/Users/stapi/OneDrive/Desktop/GD32VW553/V1_MQTT_OK/GD32VW55X_Wifi_BLE_SDK/GD32VW55x_RELEASE_V1.0.2/MSDK/cloud/alicloud/src/services/linkkit/dm\dm_message.c ****         return DM_MEMORY_NOT_ENOUGH;
 2045              		.loc 1 523 5 is_stmt 1
 524:C:/Users/stapi/OneDrive/Desktop/GD32VW553/V1_MQTT_OK/GD32VW55X_Wifi_BLE_SDK/GD32VW55x_RELEASE_V1.0.2/MSDK/cloud/alicloud/src/services/linkkit/dm\dm_message.c ****     }
 2046              		.loc 1 524 16 is_stmt 0
 2047 0080 F557     		li	a5,-3
 523:C:/Users/stapi/OneDrive/Desktop/GD32VW553/V1_MQTT_OK/GD32VW55X_Wifi_BLE_SDK/GD32VW55x_RELEASE_V1.0.2/MSDK/cloud/alicloud/src/services/linkkit/dm\dm_message.c ****         return DM_MEMORY_NOT_ENOUGH;
 2048              		.loc 1 523 8
 2049 0082 31C9     		beq	a0,zero,.L122
 526:C:/Users/stapi/OneDrive/Desktop/GD32VW553/V1_MQTT_OK/GD32VW55X_Wifi_BLE_SDK/GD32VW55x_RELEASE_V1.0.2/MSDK/cloud/alicloud/src/services/linkkit/dm\dm_message.c ****     LITE_hexbuf_convert((unsigned char *)&ctx_addr_num, ctx_addr_str, sizeof(uintptr_t), 1);
 2050              		.loc 1 526 5 is_stmt 1
 2051 0084 2546     		li	a2,9
 2052 0086 8145     		li	a1,0
 2053 0088 97000000 		call	memset
 2053      E7800000 
 2054              	.LVL247:
 527:C:/Users/stapi/OneDrive/Desktop/GD32VW553/V1_MQTT_OK/GD32VW55X_Wifi_BLE_SDK/GD32VW55x_RELEASE_V1.0.2/MSDK/cloud/alicloud/src/services/linkkit/dm\dm_message.c **** 
 2055              		.loc 1 527 5
 2056 0090 8546     		li	a3,1
 2057 0092 1146     		li	a2,4
 2058 0094 CA85     		mv	a1,s2
 2059 0096 6808     		addi	a0,sp,28
 2060 0098 97000000 		call	LITE_hexbuf_convert
 2060      E7800000 
 2061              	.LVL248:
 529:C:/Users/stapi/OneDrive/Desktop/GD32VW553/V1_MQTT_OK/GD32VW55X_Wifi_BLE_SDK/GD32VW55x_RELEASE_V1.0.2/MSDK/cloud/alicloud/src/services/linkkit/dm\dm_message.c ****                   request->params.value_length + strlen(ctx_addr_str)  + 1;
 2062              		.loc 1 529 5
 530:C:/Users/stapi/OneDrive/Desktop/GD32VW553/V1_MQTT_OK/GD32VW55X_Wifi_BLE_SDK/GD32VW55x_RELEASE_V1.0.2/MSDK/cloud/alicloud/src/services/linkkit/dm\dm_message.c ****     message = DM_malloc(message_len);
 2063              		.loc 1 530 50 is_stmt 0
 2064 00a0 4A85     		mv	a0,s2
 2065 00a2 97000000 		call	strlen
 2065      E7800000 
 2066              	.LVL249:
 529:C:/Users/stapi/OneDrive/Desktop/GD32VW553/V1_MQTT_OK/GD32VW55X_Wifi_BLE_SDK/GD32VW55x_RELEASE_V1.0.2/MSDK/cloud/alicloud/src/services/linkkit/dm\dm_message.c ****                   request->params.value_length + strlen(ctx_addr_str)  + 1;
 2067              		.loc 1 529 106
 2068 00aa 8044     		lw	s0,8(s1)
 2069              	.LVL250:
 530:C:/Users/stapi/OneDrive/Desktop/GD32VW553/V1_MQTT_OK/GD32VW55X_Wifi_BLE_SDK/GD32VW55x_RELEASE_V1.0.2/MSDK/cloud/alicloud/src/services/linkkit/dm\dm_message.c ****     message = DM_malloc(message_len);
 2070              		.loc 1 530 72
 2071 00ac BC54     		lw	a5,104(s1)
 531:C:/Users/stapi/OneDrive/Desktop/GD32VW553/V1_MQTT_OK/GD32VW55X_Wifi_BLE_SDK/GD32VW55x_RELEASE_V1.0.2/MSDK/cloud/alicloud/src/services/linkkit/dm\dm_message.c ****     if (message == NULL) {
 2072              		.loc 1 531 15
 2073 00ae 8145     		li	a1,0
 529:C:/Users/stapi/OneDrive/Desktop/GD32VW553/V1_MQTT_OK/GD32VW55X_Wifi_BLE_SDK/GD32VW55x_RELEASE_V1.0.2/MSDK/cloud/alicloud/src/services/linkkit/dm\dm_message.c ****                   request->params.value_length + strlen(ctx_addr_str)  + 1;
 2074              		.loc 1 529 106
 2075 00b0 5294     		add	s0,s4,s0
 530:C:/Users/stapi/OneDrive/Desktop/GD32VW553/V1_MQTT_OK/GD32VW55X_Wifi_BLE_SDK/GD32VW55x_RELEASE_V1.0.2/MSDK/cloud/alicloud/src/services/linkkit/dm\dm_message.c ****     message = DM_malloc(message_len);
 2076              		.loc 1 530 72
 2077 00b2 13040405 		addi	s0,s0,80
 2078 00b6 3E94     		add	s0,s0,a5
 2079 00b8 2A94     		add	s0,s0,a0
 2080              	.LVL251:
 531:C:/Users/stapi/OneDrive/Desktop/GD32VW553/V1_MQTT_OK/GD32VW55X_Wifi_BLE_SDK/GD32VW55x_RELEASE_V1.0.2/MSDK/cloud/alicloud/src/services/linkkit/dm\dm_message.c ****     if (message == NULL) {
 2081              		.loc 1 531 5 is_stmt 1
 531:C:/Users/stapi/OneDrive/Desktop/GD32VW553/V1_MQTT_OK/GD32VW55X_Wifi_BLE_SDK/GD32VW55x_RELEASE_V1.0.2/MSDK/cloud/alicloud/src/services/linkkit/dm\dm_message.c ****     if (message == NULL) {
 2082              		.loc 1 531 15 is_stmt 0
 2083 00ba 2286     		mv	a2,s0
 2084 00bc 0145     		li	a0,0
 2085 00be 97000000 		call	LITE_malloc_internal
 2085      E7800000 
 2086              	.LVL252:
 2087 00c6 AA89     		mv	s3,a0
 2088              	.LVL253:
 532:C:/Users/stapi/OneDrive/Desktop/GD32VW553/V1_MQTT_OK/GD32VW55X_Wifi_BLE_SDK/GD32VW55x_RELEASE_V1.0.2/MSDK/cloud/alicloud/src/services/linkkit/dm\dm_message.c ****         DM_free(ctx_addr_str);
 2089              		.loc 1 532 5 is_stmt 1
 532:C:/Users/stapi/OneDrive/Desktop/GD32VW553/V1_MQTT_OK/GD32VW55X_Wifi_BLE_SDK/GD32VW55x_RELEASE_V1.0.2/MSDK/cloud/alicloud/src/services/linkkit/dm\dm_message.c ****         DM_free(ctx_addr_str);
 2090              		.loc 1 532 8 is_stmt 0
 2091 00c8 09ED     		bne	a0,zero,.L126
 533:C:/Users/stapi/OneDrive/Desktop/GD32VW553/V1_MQTT_OK/GD32VW55X_Wifi_BLE_SDK/GD32VW55x_RELEASE_V1.0.2/MSDK/cloud/alicloud/src/services/linkkit/dm\dm_message.c ****         return DM_MEMORY_NOT_ENOUGH;
 2092              		.loc 1 533 9 is_stmt 1
 2093 00ca 4A85     		mv	a0,s2
 2094              	.LVL254:
 2095 00cc 97000000 		call	LITE_free_internal
 2095      E7800000 
 2096              	.LVL255:
 533:C:/Users/stapi/OneDrive/Desktop/GD32VW553/V1_MQTT_OK/GD32VW55X_Wifi_BLE_SDK/GD32VW55x_RELEASE_V1.0.2/MSDK/cloud/alicloud/src/services/linkkit/dm\dm_message.c ****         return DM_MEMORY_NOT_ENOUGH;
 2097              		.loc 1 533 9
 533:C:/Users/stapi/OneDrive/Desktop/GD32VW553/V1_MQTT_OK/GD32VW55X_Wifi_BLE_SDK/GD32VW55x_RELEASE_V1.0.2/MSDK/cloud/alicloud/src/services/linkkit/dm\dm_message.c ****         return DM_MEMORY_NOT_ENOUGH;
 2098              		.loc 1 533 30
 534:C:/Users/stapi/OneDrive/Desktop/GD32VW553/V1_MQTT_OK/GD32VW55X_Wifi_BLE_SDK/GD32VW55x_RELEASE_V1.0.2/MSDK/cloud/alicloud/src/services/linkkit/dm\dm_message.c ****     }
 2099              		.loc 1 534 9
 534:C:/Users/stapi/OneDrive/Desktop/GD32VW553/V1_MQTT_OK/GD32VW55X_Wifi_BLE_SDK/GD32VW55x_RELEASE_V1.0.2/MSDK/cloud/alicloud/src/services/linkkit/dm\dm_message.c ****     }
 2100              		.loc 1 534 16 is_stmt 0
 2101 00d4 F557     		li	a5,-3
 2102              	.LVL256:
 2103              	.L122:
 547:C:/Users/stapi/OneDrive/Desktop/GD32VW553/V1_MQTT_OK/GD32VW55X_Wifi_BLE_SDK/GD32VW55x_RELEASE_V1.0.2/MSDK/cloud/alicloud/src/services/linkkit/dm\dm_message.c ****     }
 548:C:/Users/stapi/OneDrive/Desktop/GD32VW553/V1_MQTT_OK/GD32VW55X_Wifi_BLE_SDK/GD32VW55x_RELEASE_V1.0.2/MSDK/cloud/alicloud/src/services/linkkit/dm\dm_message.c **** 
 549:C:/Users/stapi/OneDrive/Desktop/GD32VW553/V1_MQTT_OK/GD32VW55X_Wifi_BLE_SDK/GD32VW55x_RELEASE_V1.0.2/MSDK/cloud/alicloud/src/services/linkkit/dm\dm_message.c ****     return SUCCESS_RETURN;
 550:C:/Users/stapi/OneDrive/Desktop/GD32VW553/V1_MQTT_OK/GD32VW55X_Wifi_BLE_SDK/GD32VW55x_RELEASE_V1.0.2/MSDK/cloud/alicloud/src/services/linkkit/dm\dm_message.c **** }
 2104              		.loc 1 550 1
 2105 00d6 3E85     		mv	a0,a5
 2106 00d8 0561     		addi	sp,sp,32
 2107              		.cfi_remember_state
 2108              		.cfi_def_cfa_offset 0
 2109 00da 17030000 		tail	__riscv_restore_6
 2109      67000300 
 2110              		.cfi_restore 21
 2111              		.cfi_restore 20
 2112              		.cfi_restore 19
 2113              		.cfi_restore 18
 2114              		.cfi_restore 9
 2115              		.cfi_restore 8
 2116              		.cfi_restore 1
 2117              		.cfi_def_cfa_offset -32
 2118              	.LVL257:
 2119              	.L126:
 2120              		.cfi_restore_state
 537:C:/Users/stapi/OneDrive/Desktop/GD32VW553/V1_MQTT_OK/GD32VW55X_Wifi_BLE_SDK/GD32VW55x_RELEASE_V1.0.2/MSDK/cloud/alicloud/src/services/linkkit/dm\dm_message.c ****     HAL_Snprintf(message, message_len, DM_MSG_SERVICE_REQUEST_FMT, request->id.value_length, reques
 2121              		.loc 1 537 5 is_stmt 1
 2122 00e2 2286     		mv	a2,s0
 2123 00e4 8145     		li	a1,0
 2124 00e6 97000000 		call	memset
 2124      E7800000 
 2125              	.LVL258:
 538:C:/Users/stapi/OneDrive/Desktop/GD32VW553/V1_MQTT_OK/GD32VW55X_Wifi_BLE_SDK/GD32VW55x_RELEASE_V1.0.2/MSDK/cloud/alicloud/src/services/linkkit/dm\dm_message.c ****                  identifier_len, identifier,
 2126              		.loc 1 538 5
 2127 00ee 4AC4     		sw	s2,8(sp)
 2128 00f0 FC50     		lw	a5,100(s1)
 2129 00f2 37060000 		lui	a2,%hi(.LANCHOR10)
 2130 00f6 D688     		mv	a7,s5
 2131 00f8 3EC2     		sw	a5,4(sp)
 2132 00fa BC54     		lw	a5,104(s1)
 2133 00fc 5288     		mv	a6,s4
 2134 00fe 13060600 		addi	a2,a2,%lo(.LANCHOR10)
 2135 0102 3EC0     		sw	a5,0(sp)
 2136 0104 D840     		lw	a4,4(s1)
 2137 0106 E247     		lw	a5,24(sp)
 2138 0108 9444     		lw	a3,8(s1)
 2139 010a A285     		mv	a1,s0
 2140 010c 4E85     		mv	a0,s3
 2141 010e 97000000 		call	HAL_Snprintf
 2141      E7800000 
 2142              	.LVL259:
 542:C:/Users/stapi/OneDrive/Desktop/GD32VW553/V1_MQTT_OK/GD32VW55X_Wifi_BLE_SDK/GD32VW55x_RELEASE_V1.0.2/MSDK/cloud/alicloud/src/services/linkkit/dm\dm_message.c ****     res = _dm_msg_send_to_user(IOTX_DM_EVENT_THING_SERVICE_REQUEST, message);
 2143              		.loc 1 542 5
 2144 0116 4A85     		mv	a0,s2
 2145 0118 97000000 		call	LITE_free_internal
 2145      E7800000 
 2146              	.LVL260:
 542:C:/Users/stapi/OneDrive/Desktop/GD32VW553/V1_MQTT_OK/GD32VW55X_Wifi_BLE_SDK/GD32VW55x_RELEASE_V1.0.2/MSDK/cloud/alicloud/src/services/linkkit/dm\dm_message.c ****     res = _dm_msg_send_to_user(IOTX_DM_EVENT_THING_SERVICE_REQUEST, message);
 2147              		.loc 1 542 5
 542:C:/Users/stapi/OneDrive/Desktop/GD32VW553/V1_MQTT_OK/GD32VW55X_Wifi_BLE_SDK/GD32VW55x_RELEASE_V1.0.2/MSDK/cloud/alicloud/src/services/linkkit/dm\dm_message.c ****     res = _dm_msg_send_to_user(IOTX_DM_EVENT_THING_SERVICE_REQUEST, message);
 2148              		.loc 1 542 26
 543:C:/Users/stapi/OneDrive/Desktop/GD32VW553/V1_MQTT_OK/GD32VW55X_Wifi_BLE_SDK/GD32VW55x_RELEASE_V1.0.2/MSDK/cloud/alicloud/src/services/linkkit/dm\dm_message.c ****     if (res != SUCCESS_RETURN) {
 2149              		.loc 1 543 5
 543:C:/Users/stapi/OneDrive/Desktop/GD32VW553/V1_MQTT_OK/GD32VW55X_Wifi_BLE_SDK/GD32VW55x_RELEASE_V1.0.2/MSDK/cloud/alicloud/src/services/linkkit/dm\dm_message.c ****     if (res != SUCCESS_RETURN) {
 2150              		.loc 1 543 11 is_stmt 0
 2151 0120 CE85     		mv	a1,s3
 2152 0122 4945     		li	a0,18
 2153 0124 97000000 		call	_dm_msg_send_to_user
 2153      E7800000 
 2154              	.LVL261:
 2155 012c AA87     		mv	a5,a0
 2156              	.LVL262:
 544:C:/Users/stapi/OneDrive/Desktop/GD32VW553/V1_MQTT_OK/GD32VW55X_Wifi_BLE_SDK/GD32VW55x_RELEASE_V1.0.2/MSDK/cloud/alicloud/src/services/linkkit/dm\dm_message.c ****         DM_free(message);
 2157              		.loc 1 544 5 is_stmt 1
 544:C:/Users/stapi/OneDrive/Desktop/GD32VW553/V1_MQTT_OK/GD32VW55X_Wifi_BLE_SDK/GD32VW55x_RELEASE_V1.0.2/MSDK/cloud/alicloud/src/services/linkkit/dm\dm_message.c ****         DM_free(message);
 2158              		.loc 1 544 8 is_stmt 0
 2159 012e 45D5     		beq	a0,zero,.L122
 545:C:/Users/stapi/OneDrive/Desktop/GD32VW553/V1_MQTT_OK/GD32VW55X_Wifi_BLE_SDK/GD32VW55x_RELEASE_V1.0.2/MSDK/cloud/alicloud/src/services/linkkit/dm\dm_message.c ****         return FAIL_RETURN;
 2160              		.loc 1 545 9 is_stmt 1
 2161 0130 4E85     		mv	a0,s3
 2162              	.LVL263:
 2163 0132 97000000 		call	LITE_free_internal
 2163      E7800000 
 2164              	.LVL264:
 2165 013a 15B7     		j	.L139
 2166              		.cfi_endproc
 2167              	.LFE34:
 2169              		.section	.rodata.dm_msg_thing_event_property_post_reply.str1.4,"aMS",@progbits,1
 2170              		.align	2
 2171              	.LC22:
 2172 0000 73756363 		.string	"success"
 2172      65737300 
 2173              		.section	.text.dm_msg_thing_event_property_post_reply,"ax",@progbits
 2174              		.align	1
 2175              		.globl	dm_msg_thing_event_property_post_reply
 2177              	dm_msg_thing_event_property_post_reply:
 2178              	.LFB35:
 551:C:/Users/stapi/OneDrive/Desktop/GD32VW553/V1_MQTT_OK/GD32VW55X_Wifi_BLE_SDK/GD32VW55x_RELEASE_V1.0.2/MSDK/cloud/alicloud/src/services/linkkit/dm\dm_message.c **** 
 552:C:/Users/stapi/OneDrive/Desktop/GD32VW553/V1_MQTT_OK/GD32VW55X_Wifi_BLE_SDK/GD32VW55x_RELEASE_V1.0.2/MSDK/cloud/alicloud/src/services/linkkit/dm\dm_message.c **** const char DM_MSG_EVENT_PROPERTY_POST_REPLY_FMT[] DM_READ_ONLY =
 553:C:/Users/stapi/OneDrive/Desktop/GD32VW553/V1_MQTT_OK/GD32VW55X_Wifi_BLE_SDK/GD32VW55x_RELEASE_V1.0.2/MSDK/cloud/alicloud/src/services/linkkit/dm\dm_message.c ****             "{\"id\":%d,\"code\":%d,\"devid\":%d,\"payload\":%.*s}";
 554:C:/Users/stapi/OneDrive/Desktop/GD32VW553/V1_MQTT_OK/GD32VW55X_Wifi_BLE_SDK/GD32VW55x_RELEASE_V1.0.2/MSDK/cloud/alicloud/src/services/linkkit/dm\dm_message.c **** int dm_msg_thing_event_property_post_reply(dm_msg_response_payload_t *response)
 555:C:/Users/stapi/OneDrive/Desktop/GD32VW553/V1_MQTT_OK/GD32VW55X_Wifi_BLE_SDK/GD32VW55x_RELEASE_V1.0.2/MSDK/cloud/alicloud/src/services/linkkit/dm\dm_message.c **** {
 2179              		.loc 1 555 1
 2180              		.cfi_startproc
 2181              	.LVL265:
 2182 0000 17030000 		call	t0,__riscv_save_7
 2182      E7020300 
 2183              		.cfi_offset 22, -32
 2184              		.cfi_offset 21, -28
 2185              		.cfi_offset 20, -24
 2186              		.cfi_offset 19, -20
 2187              		.cfi_offset 18, -16
 2188              		.cfi_offset 9, -12
 2189              		.cfi_offset 8, -8
 2190              		.cfi_offset 1, -4
 2191              		.cfi_def_cfa_offset 32
 556:C:/Users/stapi/OneDrive/Desktop/GD32VW553/V1_MQTT_OK/GD32VW55X_Wifi_BLE_SDK/GD32VW55x_RELEASE_V1.0.2/MSDK/cloud/alicloud/src/services/linkkit/dm\dm_message.c ****     int res = 0, devid = 0, id = 0, message_len = 0, payload_len = 0;
 2192              		.loc 1 556 5
 2193              	.LVL266:
 557:C:/Users/stapi/OneDrive/Desktop/GD32VW553/V1_MQTT_OK/GD32VW55X_Wifi_BLE_SDK/GD32VW55x_RELEASE_V1.0.2/MSDK/cloud/alicloud/src/services/linkkit/dm\dm_message.c ****     char *message = NULL, *payload = NULL;
 2194              		.loc 1 557 5
 558:C:/Users/stapi/OneDrive/Desktop/GD32VW553/V1_MQTT_OK/GD32VW55X_Wifi_BLE_SDK/GD32VW55x_RELEASE_V1.0.2/MSDK/cloud/alicloud/src/services/linkkit/dm\dm_message.c ****     char int_id[DM_UTILS_UINT32_STRLEN+1] = {0};
 2195              		.loc 1 558 5
 559:C:/Users/stapi/OneDrive/Desktop/GD32VW553/V1_MQTT_OK/GD32VW55X_Wifi_BLE_SDK/GD32VW55x_RELEASE_V1.0.2/MSDK/cloud/alicloud/src/services/linkkit/dm\dm_message.c **** 
 560:C:/Users/stapi/OneDrive/Desktop/GD32VW553/V1_MQTT_OK/GD32VW55X_Wifi_BLE_SDK/GD32VW55x_RELEASE_V1.0.2/MSDK/cloud/alicloud/src/services/linkkit/dm\dm_message.c ****     /* Message ID */
 561:C:/Users/stapi/OneDrive/Desktop/GD32VW553/V1_MQTT_OK/GD32VW55X_Wifi_BLE_SDK/GD32VW55x_RELEASE_V1.0.2/MSDK/cloud/alicloud/src/services/linkkit/dm\dm_message.c ****     if (response->id.value_length > DM_UTILS_UINT32_STRLEN) {
 2196              		.loc 1 561 21 is_stmt 0
 2197 0008 1045     		lw	a2,8(a0)
 555:C:/Users/stapi/OneDrive/Desktop/GD32VW553/V1_MQTT_OK/GD32VW55X_Wifi_BLE_SDK/GD32VW55x_RELEASE_V1.0.2/MSDK/cloud/alicloud/src/services/linkkit/dm\dm_message.c ****     int res = 0, devid = 0, id = 0, message_len = 0, payload_len = 0;
 2198              		.loc 1 555 1
 2199 000a 4111     		addi	sp,sp,-16
 2200              		.cfi_def_cfa_offset 48
 558:C:/Users/stapi/OneDrive/Desktop/GD32VW553/V1_MQTT_OK/GD32VW55X_Wifi_BLE_SDK/GD32VW55x_RELEASE_V1.0.2/MSDK/cloud/alicloud/src/services/linkkit/dm\dm_message.c ****     char int_id[DM_UTILS_UINT32_STRLEN+1] = {0};
 2201              		.loc 1 558 10
 2202 000c 02C2     		sw	zero,4(sp)
 2203 000e 02C4     		sw	zero,8(sp)
 2204 0010 23160100 		sh	zero,12(sp)
 2205 0014 23070100 		sb	zero,14(sp)
 2206              		.loc 1 561 5 is_stmt 1
 2207              		.loc 1 561 8 is_stmt 0
 2208 0018 A947     		li	a5,10
 2209 001a 63D9C700 		ble	a2,a5,.L141
 2210              	.LVL267:
 2211              	.L150:
 562:C:/Users/stapi/OneDrive/Desktop/GD32VW553/V1_MQTT_OK/GD32VW55X_Wifi_BLE_SDK/GD32VW55x_RELEASE_V1.0.2/MSDK/cloud/alicloud/src/services/linkkit/dm\dm_message.c ****         return FAIL_RETURN;
 563:C:/Users/stapi/OneDrive/Desktop/GD32VW553/V1_MQTT_OK/GD32VW55X_Wifi_BLE_SDK/GD32VW55x_RELEASE_V1.0.2/MSDK/cloud/alicloud/src/services/linkkit/dm\dm_message.c ****     }
 564:C:/Users/stapi/OneDrive/Desktop/GD32VW553/V1_MQTT_OK/GD32VW55X_Wifi_BLE_SDK/GD32VW55x_RELEASE_V1.0.2/MSDK/cloud/alicloud/src/services/linkkit/dm\dm_message.c ****     memcpy(int_id, response->id.value, response->id.value_length);
 565:C:/Users/stapi/OneDrive/Desktop/GD32VW553/V1_MQTT_OK/GD32VW55X_Wifi_BLE_SDK/GD32VW55x_RELEASE_V1.0.2/MSDK/cloud/alicloud/src/services/linkkit/dm\dm_message.c ****     id = atoi(int_id);
 566:C:/Users/stapi/OneDrive/Desktop/GD32VW553/V1_MQTT_OK/GD32VW55X_Wifi_BLE_SDK/GD32VW55x_RELEASE_V1.0.2/MSDK/cloud/alicloud/src/services/linkkit/dm\dm_message.c **** 
 567:C:/Users/stapi/OneDrive/Desktop/GD32VW553/V1_MQTT_OK/GD32VW55X_Wifi_BLE_SDK/GD32VW55x_RELEASE_V1.0.2/MSDK/cloud/alicloud/src/services/linkkit/dm\dm_message.c ****     /* dm_log_debug("Current ID: %d", id); */
 568:C:/Users/stapi/OneDrive/Desktop/GD32VW553/V1_MQTT_OK/GD32VW55X_Wifi_BLE_SDK/GD32VW55x_RELEASE_V1.0.2/MSDK/cloud/alicloud/src/services/linkkit/dm\dm_message.c **** 
 569:C:/Users/stapi/OneDrive/Desktop/GD32VW553/V1_MQTT_OK/GD32VW55X_Wifi_BLE_SDK/GD32VW55x_RELEASE_V1.0.2/MSDK/cloud/alicloud/src/services/linkkit/dm\dm_message.c **** #if !defined(DM_MESSAGE_CACHE_DISABLED)
 570:C:/Users/stapi/OneDrive/Desktop/GD32VW553/V1_MQTT_OK/GD32VW55X_Wifi_BLE_SDK/GD32VW55x_RELEASE_V1.0.2/MSDK/cloud/alicloud/src/services/linkkit/dm\dm_message.c ****     dm_msg_cache_node_t *node = NULL;
 571:C:/Users/stapi/OneDrive/Desktop/GD32VW553/V1_MQTT_OK/GD32VW55X_Wifi_BLE_SDK/GD32VW55x_RELEASE_V1.0.2/MSDK/cloud/alicloud/src/services/linkkit/dm\dm_message.c ****     res = dm_msg_cache_search(id, &node);
 572:C:/Users/stapi/OneDrive/Desktop/GD32VW553/V1_MQTT_OK/GD32VW55X_Wifi_BLE_SDK/GD32VW55x_RELEASE_V1.0.2/MSDK/cloud/alicloud/src/services/linkkit/dm\dm_message.c ****     if (res != SUCCESS_RETURN) {
 573:C:/Users/stapi/OneDrive/Desktop/GD32VW553/V1_MQTT_OK/GD32VW55X_Wifi_BLE_SDK/GD32VW55x_RELEASE_V1.0.2/MSDK/cloud/alicloud/src/services/linkkit/dm\dm_message.c ****         return FAIL_RETURN;
 574:C:/Users/stapi/OneDrive/Desktop/GD32VW553/V1_MQTT_OK/GD32VW55X_Wifi_BLE_SDK/GD32VW55x_RELEASE_V1.0.2/MSDK/cloud/alicloud/src/services/linkkit/dm\dm_message.c ****     }
 575:C:/Users/stapi/OneDrive/Desktop/GD32VW553/V1_MQTT_OK/GD32VW55X_Wifi_BLE_SDK/GD32VW55x_RELEASE_V1.0.2/MSDK/cloud/alicloud/src/services/linkkit/dm\dm_message.c ****     devid = node->devid;
 576:C:/Users/stapi/OneDrive/Desktop/GD32VW553/V1_MQTT_OK/GD32VW55X_Wifi_BLE_SDK/GD32VW55x_RELEASE_V1.0.2/MSDK/cloud/alicloud/src/services/linkkit/dm\dm_message.c **** #endif
 577:C:/Users/stapi/OneDrive/Desktop/GD32VW553/V1_MQTT_OK/GD32VW55X_Wifi_BLE_SDK/GD32VW55x_RELEASE_V1.0.2/MSDK/cloud/alicloud/src/services/linkkit/dm\dm_message.c **** 
 578:C:/Users/stapi/OneDrive/Desktop/GD32VW553/V1_MQTT_OK/GD32VW55X_Wifi_BLE_SDK/GD32VW55x_RELEASE_V1.0.2/MSDK/cloud/alicloud/src/services/linkkit/dm\dm_message.c ****     if ((strlen("success") == response->message.value_length) &&
 579:C:/Users/stapi/OneDrive/Desktop/GD32VW553/V1_MQTT_OK/GD32VW55X_Wifi_BLE_SDK/GD32VW55x_RELEASE_V1.0.2/MSDK/cloud/alicloud/src/services/linkkit/dm\dm_message.c ****         (memcmp("success", response->message.value, response->message.value_length) == 0)) {
 580:C:/Users/stapi/OneDrive/Desktop/GD32VW553/V1_MQTT_OK/GD32VW55X_Wifi_BLE_SDK/GD32VW55x_RELEASE_V1.0.2/MSDK/cloud/alicloud/src/services/linkkit/dm\dm_message.c ****         payload = response->data.value;
 581:C:/Users/stapi/OneDrive/Desktop/GD32VW553/V1_MQTT_OK/GD32VW55X_Wifi_BLE_SDK/GD32VW55x_RELEASE_V1.0.2/MSDK/cloud/alicloud/src/services/linkkit/dm\dm_message.c ****         payload_len = response->data.value_length;
 582:C:/Users/stapi/OneDrive/Desktop/GD32VW553/V1_MQTT_OK/GD32VW55X_Wifi_BLE_SDK/GD32VW55x_RELEASE_V1.0.2/MSDK/cloud/alicloud/src/services/linkkit/dm\dm_message.c ****     } else {
 583:C:/Users/stapi/OneDrive/Desktop/GD32VW553/V1_MQTT_OK/GD32VW55X_Wifi_BLE_SDK/GD32VW55x_RELEASE_V1.0.2/MSDK/cloud/alicloud/src/services/linkkit/dm\dm_message.c ****         payload = response->message.value;
 584:C:/Users/stapi/OneDrive/Desktop/GD32VW553/V1_MQTT_OK/GD32VW55X_Wifi_BLE_SDK/GD32VW55x_RELEASE_V1.0.2/MSDK/cloud/alicloud/src/services/linkkit/dm\dm_message.c ****         payload_len = response->message.value_length;
 585:C:/Users/stapi/OneDrive/Desktop/GD32VW553/V1_MQTT_OK/GD32VW55X_Wifi_BLE_SDK/GD32VW55x_RELEASE_V1.0.2/MSDK/cloud/alicloud/src/services/linkkit/dm\dm_message.c ****     }
 586:C:/Users/stapi/OneDrive/Desktop/GD32VW553/V1_MQTT_OK/GD32VW55X_Wifi_BLE_SDK/GD32VW55x_RELEASE_V1.0.2/MSDK/cloud/alicloud/src/services/linkkit/dm\dm_message.c **** 
 587:C:/Users/stapi/OneDrive/Desktop/GD32VW553/V1_MQTT_OK/GD32VW55X_Wifi_BLE_SDK/GD32VW55x_RELEASE_V1.0.2/MSDK/cloud/alicloud/src/services/linkkit/dm\dm_message.c ****     message_len = strlen(DM_MSG_EVENT_PROPERTY_POST_REPLY_FMT) + DM_UTILS_UINT32_STRLEN * 3 + paylo
 588:C:/Users/stapi/OneDrive/Desktop/GD32VW553/V1_MQTT_OK/GD32VW55X_Wifi_BLE_SDK/GD32VW55x_RELEASE_V1.0.2/MSDK/cloud/alicloud/src/services/linkkit/dm\dm_message.c ****                   1;
 589:C:/Users/stapi/OneDrive/Desktop/GD32VW553/V1_MQTT_OK/GD32VW55X_Wifi_BLE_SDK/GD32VW55x_RELEASE_V1.0.2/MSDK/cloud/alicloud/src/services/linkkit/dm\dm_message.c ****     message = DM_malloc(message_len);
 590:C:/Users/stapi/OneDrive/Desktop/GD32VW553/V1_MQTT_OK/GD32VW55X_Wifi_BLE_SDK/GD32VW55x_RELEASE_V1.0.2/MSDK/cloud/alicloud/src/services/linkkit/dm\dm_message.c ****     if (message == NULL) {
 591:C:/Users/stapi/OneDrive/Desktop/GD32VW553/V1_MQTT_OK/GD32VW55X_Wifi_BLE_SDK/GD32VW55x_RELEASE_V1.0.2/MSDK/cloud/alicloud/src/services/linkkit/dm\dm_message.c ****         return DM_MEMORY_NOT_ENOUGH;
 592:C:/Users/stapi/OneDrive/Desktop/GD32VW553/V1_MQTT_OK/GD32VW55X_Wifi_BLE_SDK/GD32VW55x_RELEASE_V1.0.2/MSDK/cloud/alicloud/src/services/linkkit/dm\dm_message.c ****     }
 593:C:/Users/stapi/OneDrive/Desktop/GD32VW553/V1_MQTT_OK/GD32VW55X_Wifi_BLE_SDK/GD32VW55x_RELEASE_V1.0.2/MSDK/cloud/alicloud/src/services/linkkit/dm\dm_message.c ****     memset(message, 0, message_len);
 594:C:/Users/stapi/OneDrive/Desktop/GD32VW553/V1_MQTT_OK/GD32VW55X_Wifi_BLE_SDK/GD32VW55x_RELEASE_V1.0.2/MSDK/cloud/alicloud/src/services/linkkit/dm\dm_message.c ****     HAL_Snprintf(message, message_len, DM_MSG_EVENT_PROPERTY_POST_REPLY_FMT, id, response->code.val
 595:C:/Users/stapi/OneDrive/Desktop/GD32VW553/V1_MQTT_OK/GD32VW55X_Wifi_BLE_SDK/GD32VW55x_RELEASE_V1.0.2/MSDK/cloud/alicloud/src/services/linkkit/dm\dm_message.c ****                  payload_len, payload);
 596:C:/Users/stapi/OneDrive/Desktop/GD32VW553/V1_MQTT_OK/GD32VW55X_Wifi_BLE_SDK/GD32VW55x_RELEASE_V1.0.2/MSDK/cloud/alicloud/src/services/linkkit/dm\dm_message.c **** 
 597:C:/Users/stapi/OneDrive/Desktop/GD32VW553/V1_MQTT_OK/GD32VW55X_Wifi_BLE_SDK/GD32VW55x_RELEASE_V1.0.2/MSDK/cloud/alicloud/src/services/linkkit/dm\dm_message.c ****     res = _dm_msg_send_to_user(IOTX_DM_EVENT_EVENT_PROPERTY_POST_REPLY, message);
 598:C:/Users/stapi/OneDrive/Desktop/GD32VW553/V1_MQTT_OK/GD32VW55X_Wifi_BLE_SDK/GD32VW55x_RELEASE_V1.0.2/MSDK/cloud/alicloud/src/services/linkkit/dm\dm_message.c ****     if (res != SUCCESS_RETURN) {
 599:C:/Users/stapi/OneDrive/Desktop/GD32VW553/V1_MQTT_OK/GD32VW55X_Wifi_BLE_SDK/GD32VW55x_RELEASE_V1.0.2/MSDK/cloud/alicloud/src/services/linkkit/dm\dm_message.c ****         DM_free(message);
 2212              		.loc 1 599 9 is_stmt 1
 2213              		.loc 1 599 25
 600:C:/Users/stapi/OneDrive/Desktop/GD32VW553/V1_MQTT_OK/GD32VW55X_Wifi_BLE_SDK/GD32VW55x_RELEASE_V1.0.2/MSDK/cloud/alicloud/src/services/linkkit/dm\dm_message.c ****         return FAIL_RETURN;
 2214              		.loc 1 600 9
 2215              		.loc 1 600 16 is_stmt 0
 2216 001e FD57     		li	a5,-1
 2217              	.LVL268:
 2218              	.L140:
 601:C:/Users/stapi/OneDrive/Desktop/GD32VW553/V1_MQTT_OK/GD32VW55X_Wifi_BLE_SDK/GD32VW55x_RELEASE_V1.0.2/MSDK/cloud/alicloud/src/services/linkkit/dm\dm_message.c ****     }
 602:C:/Users/stapi/OneDrive/Desktop/GD32VW553/V1_MQTT_OK/GD32VW55X_Wifi_BLE_SDK/GD32VW55x_RELEASE_V1.0.2/MSDK/cloud/alicloud/src/services/linkkit/dm\dm_message.c **** 
 603:C:/Users/stapi/OneDrive/Desktop/GD32VW553/V1_MQTT_OK/GD32VW55X_Wifi_BLE_SDK/GD32VW55x_RELEASE_V1.0.2/MSDK/cloud/alicloud/src/services/linkkit/dm\dm_message.c ****     return SUCCESS_RETURN;
 604:C:/Users/stapi/OneDrive/Desktop/GD32VW553/V1_MQTT_OK/GD32VW55X_Wifi_BLE_SDK/GD32VW55x_RELEASE_V1.0.2/MSDK/cloud/alicloud/src/services/linkkit/dm\dm_message.c **** }
 2219              		.loc 1 604 1
 2220 0020 3E85     		mv	a0,a5
 2221 0022 4101     		addi	sp,sp,16
 2222              		.cfi_remember_state
 2223              		.cfi_def_cfa_offset 0
 2224 0024 17030000 		tail	__riscv_restore_7
 2224      67000300 
 2225              		.cfi_restore 22
 2226              		.cfi_restore 21
 2227              		.cfi_restore 20
 2228              		.cfi_restore 19
 2229              		.cfi_restore 18
 2230              		.cfi_restore 9
 2231              		.cfi_restore 8
 2232              		.cfi_restore 1
 2233              		.cfi_def_cfa_offset -32
 2234              	.LVL269:
 2235              	.L141:
 2236              		.cfi_restore_state
 564:C:/Users/stapi/OneDrive/Desktop/GD32VW553/V1_MQTT_OK/GD32VW55X_Wifi_BLE_SDK/GD32VW55x_RELEASE_V1.0.2/MSDK/cloud/alicloud/src/services/linkkit/dm\dm_message.c ****     id = atoi(int_id);
 2237              		.loc 1 564 5
 2238 002c 4C41     		lw	a1,4(a0)
 2239 002e 2A84     		mv	s0,a0
 564:C:/Users/stapi/OneDrive/Desktop/GD32VW553/V1_MQTT_OK/GD32VW55X_Wifi_BLE_SDK/GD32VW55x_RELEASE_V1.0.2/MSDK/cloud/alicloud/src/services/linkkit/dm\dm_message.c ****     id = atoi(int_id);
 2240              		.loc 1 564 5 is_stmt 1
 2241 0030 4800     		addi	a0,sp,4
 2242              	.LVL270:
 2243 0032 97000000 		call	memcpy
 2243      E7800000 
 2244              	.LVL271:
 565:C:/Users/stapi/OneDrive/Desktop/GD32VW553/V1_MQTT_OK/GD32VW55X_Wifi_BLE_SDK/GD32VW55x_RELEASE_V1.0.2/MSDK/cloud/alicloud/src/services/linkkit/dm\dm_message.c **** 
 2245              		.loc 1 565 5
 565:C:/Users/stapi/OneDrive/Desktop/GD32VW553/V1_MQTT_OK/GD32VW55X_Wifi_BLE_SDK/GD32VW55x_RELEASE_V1.0.2/MSDK/cloud/alicloud/src/services/linkkit/dm\dm_message.c **** 
 2246              		.loc 1 565 10 is_stmt 0
 2247 003a 4800     		addi	a0,sp,4
 2248 003c 97000000 		call	atoi
 2248      E7800000 
 2249              	.LVL272:
 571:C:/Users/stapi/OneDrive/Desktop/GD32VW553/V1_MQTT_OK/GD32VW55X_Wifi_BLE_SDK/GD32VW55x_RELEASE_V1.0.2/MSDK/cloud/alicloud/src/services/linkkit/dm\dm_message.c ****     if (res != SUCCESS_RETURN) {
 2250              		.loc 1 571 11
 2251 0044 8A85     		mv	a1,sp
 565:C:/Users/stapi/OneDrive/Desktop/GD32VW553/V1_MQTT_OK/GD32VW55X_Wifi_BLE_SDK/GD32VW55x_RELEASE_V1.0.2/MSDK/cloud/alicloud/src/services/linkkit/dm\dm_message.c **** 
 2252              		.loc 1 565 10
 2253 0046 2A8A     		mv	s4,a0
 2254              	.LVL273:
 570:C:/Users/stapi/OneDrive/Desktop/GD32VW553/V1_MQTT_OK/GD32VW55X_Wifi_BLE_SDK/GD32VW55x_RELEASE_V1.0.2/MSDK/cloud/alicloud/src/services/linkkit/dm\dm_message.c ****     res = dm_msg_cache_search(id, &node);
 2255              		.loc 1 570 5 is_stmt 1
 570:C:/Users/stapi/OneDrive/Desktop/GD32VW553/V1_MQTT_OK/GD32VW55X_Wifi_BLE_SDK/GD32VW55x_RELEASE_V1.0.2/MSDK/cloud/alicloud/src/services/linkkit/dm\dm_message.c ****     res = dm_msg_cache_search(id, &node);
 2256              		.loc 1 570 26 is_stmt 0
 2257 0048 02C0     		sw	zero,0(sp)
 571:C:/Users/stapi/OneDrive/Desktop/GD32VW553/V1_MQTT_OK/GD32VW55X_Wifi_BLE_SDK/GD32VW55x_RELEASE_V1.0.2/MSDK/cloud/alicloud/src/services/linkkit/dm\dm_message.c ****     if (res != SUCCESS_RETURN) {
 2258              		.loc 1 571 5 is_stmt 1
 571:C:/Users/stapi/OneDrive/Desktop/GD32VW553/V1_MQTT_OK/GD32VW55X_Wifi_BLE_SDK/GD32VW55x_RELEASE_V1.0.2/MSDK/cloud/alicloud/src/services/linkkit/dm\dm_message.c ****     if (res != SUCCESS_RETURN) {
 2259              		.loc 1 571 11 is_stmt 0
 2260 004a 97000000 		call	dm_msg_cache_search
 2260      E7800000 
 2261              	.LVL274:
 572:C:/Users/stapi/OneDrive/Desktop/GD32VW553/V1_MQTT_OK/GD32VW55X_Wifi_BLE_SDK/GD32VW55x_RELEASE_V1.0.2/MSDK/cloud/alicloud/src/services/linkkit/dm\dm_message.c ****         return FAIL_RETURN;
 2262              		.loc 1 572 5 is_stmt 1
 572:C:/Users/stapi/OneDrive/Desktop/GD32VW553/V1_MQTT_OK/GD32VW55X_Wifi_BLE_SDK/GD32VW55x_RELEASE_V1.0.2/MSDK/cloud/alicloud/src/services/linkkit/dm\dm_message.c ****         return FAIL_RETURN;
 2263              		.loc 1 572 8 is_stmt 0
 2264 0052 71F5     		bne	a0,zero,.L150
 575:C:/Users/stapi/OneDrive/Desktop/GD32VW553/V1_MQTT_OK/GD32VW55X_Wifi_BLE_SDK/GD32VW55x_RELEASE_V1.0.2/MSDK/cloud/alicloud/src/services/linkkit/dm\dm_message.c **** #endif
 2265              		.loc 1 575 5 is_stmt 1
 575:C:/Users/stapi/OneDrive/Desktop/GD32VW553/V1_MQTT_OK/GD32VW55X_Wifi_BLE_SDK/GD32VW55x_RELEASE_V1.0.2/MSDK/cloud/alicloud/src/services/linkkit/dm\dm_message.c **** #endif
 2266              		.loc 1 575 11 is_stmt 0
 2267 0054 8247     		lw	a5,0(sp)
 578:C:/Users/stapi/OneDrive/Desktop/GD32VW553/V1_MQTT_OK/GD32VW55X_Wifi_BLE_SDK/GD32VW55x_RELEASE_V1.0.2/MSDK/cloud/alicloud/src/services/linkkit/dm\dm_message.c ****         (memcmp("success", response->message.value, response->message.value_length) == 0)) {
 2268              		.loc 1 578 48
 2269 0056 03298406 		lw	s2,104(s0)
 579:C:/Users/stapi/OneDrive/Desktop/GD32VW553/V1_MQTT_OK/GD32VW55X_Wifi_BLE_SDK/GD32VW55x_RELEASE_V1.0.2/MSDK/cloud/alicloud/src/services/linkkit/dm\dm_message.c ****         payload = response->data.value;
 2270              		.loc 1 579 45
 2271 005a 832A4406 		lw	s5,100(s0)
 575:C:/Users/stapi/OneDrive/Desktop/GD32VW553/V1_MQTT_OK/GD32VW55X_Wifi_BLE_SDK/GD32VW55x_RELEASE_V1.0.2/MSDK/cloud/alicloud/src/services/linkkit/dm\dm_message.c **** #endif
 2272              		.loc 1 575 11
 2273 005e 03AB4700 		lw	s6,4(a5)
 2274              	.LVL275:
 578:C:/Users/stapi/OneDrive/Desktop/GD32VW553/V1_MQTT_OK/GD32VW55X_Wifi_BLE_SDK/GD32VW55x_RELEASE_V1.0.2/MSDK/cloud/alicloud/src/services/linkkit/dm\dm_message.c ****         (memcmp("success", response->message.value, response->message.value_length) == 0)) {
 2275              		.loc 1 578 5 is_stmt 1
 578:C:/Users/stapi/OneDrive/Desktop/GD32VW553/V1_MQTT_OK/GD32VW55X_Wifi_BLE_SDK/GD32VW55x_RELEASE_V1.0.2/MSDK/cloud/alicloud/src/services/linkkit/dm\dm_message.c ****         (memcmp("success", response->message.value, response->message.value_length) == 0)) {
 2276              		.loc 1 578 8 is_stmt 0
 2277 0062 9D47     		li	a5,7
 2278 0064 6311F902 		bne	s2,a5,.L144
 579:C:/Users/stapi/OneDrive/Desktop/GD32VW553/V1_MQTT_OK/GD32VW55X_Wifi_BLE_SDK/GD32VW55x_RELEASE_V1.0.2/MSDK/cloud/alicloud/src/services/linkkit/dm\dm_message.c ****         payload = response->data.value;
 2279              		.loc 1 579 10 discriminator 1
 2280 0068 37050000 		lui	a0,%hi(.LC22)
 2281              	.LVL276:
 2282 006c 1D46     		li	a2,7
 2283 006e D685     		mv	a1,s5
 2284 0070 13050500 		addi	a0,a0,%lo(.LC22)
 2285 0074 97000000 		call	memcmp
 2285      E7800000 
 2286              	.LVL277:
 578:C:/Users/stapi/OneDrive/Desktop/GD32VW553/V1_MQTT_OK/GD32VW55X_Wifi_BLE_SDK/GD32VW55x_RELEASE_V1.0.2/MSDK/cloud/alicloud/src/services/linkkit/dm\dm_message.c ****         (memcmp("success", response->message.value, response->message.value_length) == 0)) {
 2287              		.loc 1 578 63 discriminator 1
 2288 007c 09E5     		bne	a0,zero,.L144
 580:C:/Users/stapi/OneDrive/Desktop/GD32VW553/V1_MQTT_OK/GD32VW55X_Wifi_BLE_SDK/GD32VW55x_RELEASE_V1.0.2/MSDK/cloud/alicloud/src/services/linkkit/dm\dm_message.c ****         payload_len = response->data.value_length;
 2289              		.loc 1 580 9 is_stmt 1
 580:C:/Users/stapi/OneDrive/Desktop/GD32VW553/V1_MQTT_OK/GD32VW55X_Wifi_BLE_SDK/GD32VW55x_RELEASE_V1.0.2/MSDK/cloud/alicloud/src/services/linkkit/dm\dm_message.c ****         payload_len = response->data.value_length;
 2290              		.loc 1 580 17 is_stmt 0
 2291 007e 832A4404 		lw	s5,68(s0)
 2292              	.LVL278:
 581:C:/Users/stapi/OneDrive/Desktop/GD32VW553/V1_MQTT_OK/GD32VW55X_Wifi_BLE_SDK/GD32VW55x_RELEASE_V1.0.2/MSDK/cloud/alicloud/src/services/linkkit/dm\dm_message.c ****     } else {
 2293              		.loc 1 581 9 is_stmt 1
 581:C:/Users/stapi/OneDrive/Desktop/GD32VW553/V1_MQTT_OK/GD32VW55X_Wifi_BLE_SDK/GD32VW55x_RELEASE_V1.0.2/MSDK/cloud/alicloud/src/services/linkkit/dm\dm_message.c ****     } else {
 2294              		.loc 1 581 21 is_stmt 0
 2295 0082 03298404 		lw	s2,72(s0)
 2296              	.LVL279:
 2297              	.L144:
 587:C:/Users/stapi/OneDrive/Desktop/GD32VW553/V1_MQTT_OK/GD32VW55X_Wifi_BLE_SDK/GD32VW55x_RELEASE_V1.0.2/MSDK/cloud/alicloud/src/services/linkkit/dm\dm_message.c ****                   1;
 2298              		.loc 1 587 5 is_stmt 1
 587:C:/Users/stapi/OneDrive/Desktop/GD32VW553/V1_MQTT_OK/GD32VW55X_Wifi_BLE_SDK/GD32VW55x_RELEASE_V1.0.2/MSDK/cloud/alicloud/src/services/linkkit/dm\dm_message.c ****                   1;
 2299              		.loc 1 587 107 is_stmt 0
 2300 0086 9309C904 		addi	s3,s2,76
 2301              	.LVL280:
 589:C:/Users/stapi/OneDrive/Desktop/GD32VW553/V1_MQTT_OK/GD32VW55X_Wifi_BLE_SDK/GD32VW55x_RELEASE_V1.0.2/MSDK/cloud/alicloud/src/services/linkkit/dm\dm_message.c ****     if (message == NULL) {
 2302              		.loc 1 589 5 is_stmt 1
 589:C:/Users/stapi/OneDrive/Desktop/GD32VW553/V1_MQTT_OK/GD32VW55X_Wifi_BLE_SDK/GD32VW55x_RELEASE_V1.0.2/MSDK/cloud/alicloud/src/services/linkkit/dm\dm_message.c ****     if (message == NULL) {
 2303              		.loc 1 589 15 is_stmt 0
 2304 008a 4E86     		mv	a2,s3
 2305 008c 8145     		li	a1,0
 2306 008e 0145     		li	a0,0
 2307 0090 97000000 		call	LITE_malloc_internal
 2307      E7800000 
 2308              	.LVL281:
 2309 0098 AA84     		mv	s1,a0
 2310              	.LVL282:
 590:C:/Users/stapi/OneDrive/Desktop/GD32VW553/V1_MQTT_OK/GD32VW55X_Wifi_BLE_SDK/GD32VW55x_RELEASE_V1.0.2/MSDK/cloud/alicloud/src/services/linkkit/dm\dm_message.c ****         return DM_MEMORY_NOT_ENOUGH;
 2311              		.loc 1 590 5 is_stmt 1
 591:C:/Users/stapi/OneDrive/Desktop/GD32VW553/V1_MQTT_OK/GD32VW55X_Wifi_BLE_SDK/GD32VW55x_RELEASE_V1.0.2/MSDK/cloud/alicloud/src/services/linkkit/dm\dm_message.c ****     }
 2312              		.loc 1 591 16 is_stmt 0
 2313 009a F557     		li	a5,-3
 590:C:/Users/stapi/OneDrive/Desktop/GD32VW553/V1_MQTT_OK/GD32VW55X_Wifi_BLE_SDK/GD32VW55x_RELEASE_V1.0.2/MSDK/cloud/alicloud/src/services/linkkit/dm\dm_message.c ****         return DM_MEMORY_NOT_ENOUGH;
 2314              		.loc 1 590 8
 2315 009c 51D1     		beq	a0,zero,.L140
 593:C:/Users/stapi/OneDrive/Desktop/GD32VW553/V1_MQTT_OK/GD32VW55X_Wifi_BLE_SDK/GD32VW55x_RELEASE_V1.0.2/MSDK/cloud/alicloud/src/services/linkkit/dm\dm_message.c ****     HAL_Snprintf(message, message_len, DM_MSG_EVENT_PROPERTY_POST_REPLY_FMT, id, response->code.val
 2316              		.loc 1 593 5 is_stmt 1
 2317 009e 4E86     		mv	a2,s3
 2318 00a0 8145     		li	a1,0
 2319 00a2 97000000 		call	memset
 2319      E7800000 
 2320              	.LVL283:
 594:C:/Users/stapi/OneDrive/Desktop/GD32VW553/V1_MQTT_OK/GD32VW55X_Wifi_BLE_SDK/GD32VW55x_RELEASE_V1.0.2/MSDK/cloud/alicloud/src/services/linkkit/dm\dm_message.c ****                  payload_len, payload);
 2321              		.loc 1 594 5
 2322 00aa 185C     		lw	a4,56(s0)
 2323 00ac 37060000 		lui	a2,%hi(.LANCHOR11)
 2324 00b0 DA87     		mv	a5,s6
 2325 00b2 D688     		mv	a7,s5
 2326 00b4 4A88     		mv	a6,s2
 2327 00b6 D286     		mv	a3,s4
 2328 00b8 13060600 		addi	a2,a2,%lo(.LANCHOR11)
 2329 00bc CE85     		mv	a1,s3
 2330 00be 2685     		mv	a0,s1
 2331 00c0 97000000 		call	HAL_Snprintf
 2331      E7800000 
 2332              	.LVL284:
 597:C:/Users/stapi/OneDrive/Desktop/GD32VW553/V1_MQTT_OK/GD32VW55X_Wifi_BLE_SDK/GD32VW55x_RELEASE_V1.0.2/MSDK/cloud/alicloud/src/services/linkkit/dm\dm_message.c ****     if (res != SUCCESS_RETURN) {
 2333              		.loc 1 597 5
 597:C:/Users/stapi/OneDrive/Desktop/GD32VW553/V1_MQTT_OK/GD32VW55X_Wifi_BLE_SDK/GD32VW55x_RELEASE_V1.0.2/MSDK/cloud/alicloud/src/services/linkkit/dm\dm_message.c ****     if (res != SUCCESS_RETURN) {
 2334              		.loc 1 597 11 is_stmt 0
 2335 00c8 A685     		mv	a1,s1
 2336 00ca 13050002 		li	a0,32
 2337 00ce 97000000 		call	_dm_msg_send_to_user
 2337      E7800000 
 2338              	.LVL285:
 2339 00d6 AA87     		mv	a5,a0
 2340              	.LVL286:
 598:C:/Users/stapi/OneDrive/Desktop/GD32VW553/V1_MQTT_OK/GD32VW55X_Wifi_BLE_SDK/GD32VW55x_RELEASE_V1.0.2/MSDK/cloud/alicloud/src/services/linkkit/dm\dm_message.c ****         DM_free(message);
 2341              		.loc 1 598 5 is_stmt 1
 598:C:/Users/stapi/OneDrive/Desktop/GD32VW553/V1_MQTT_OK/GD32VW55X_Wifi_BLE_SDK/GD32VW55x_RELEASE_V1.0.2/MSDK/cloud/alicloud/src/services/linkkit/dm\dm_message.c ****         DM_free(message);
 2342              		.loc 1 598 8 is_stmt 0
 2343 00d8 21D5     		beq	a0,zero,.L140
 599:C:/Users/stapi/OneDrive/Desktop/GD32VW553/V1_MQTT_OK/GD32VW55X_Wifi_BLE_SDK/GD32VW55x_RELEASE_V1.0.2/MSDK/cloud/alicloud/src/services/linkkit/dm\dm_message.c ****         return FAIL_RETURN;
 2344              		.loc 1 599 9 is_stmt 1
 2345 00da 2685     		mv	a0,s1
 2346              	.LVL287:
 2347 00dc 97000000 		call	LITE_free_internal
 2347      E7800000 
 2348              	.LVL288:
 2349 00e4 2DBF     		j	.L150
 2350              		.cfi_endproc
 2351              	.LFE35:
 2353              		.section	.text.dm_msg_thing_deviceinfo_update_reply,"ax",@progbits
 2354              		.align	1
 2355              		.globl	dm_msg_thing_deviceinfo_update_reply
 2357              	dm_msg_thing_deviceinfo_update_reply:
 2358              	.LFB36:
 605:C:/Users/stapi/OneDrive/Desktop/GD32VW553/V1_MQTT_OK/GD32VW55X_Wifi_BLE_SDK/GD32VW55x_RELEASE_V1.0.2/MSDK/cloud/alicloud/src/services/linkkit/dm\dm_message.c **** 
 606:C:/Users/stapi/OneDrive/Desktop/GD32VW553/V1_MQTT_OK/GD32VW55X_Wifi_BLE_SDK/GD32VW55x_RELEASE_V1.0.2/MSDK/cloud/alicloud/src/services/linkkit/dm\dm_message.c **** #ifdef DM_UNIFIED_SERVICE_POST
 607:C:/Users/stapi/OneDrive/Desktop/GD32VW553/V1_MQTT_OK/GD32VW55X_Wifi_BLE_SDK/GD32VW55x_RELEASE_V1.0.2/MSDK/cloud/alicloud/src/services/linkkit/dm\dm_message.c **** const char DM_MSG_UNIFIED_SERVICE_POST_REPLY_FMT[] DM_READ_ONLY =
 608:C:/Users/stapi/OneDrive/Desktop/GD32VW553/V1_MQTT_OK/GD32VW55X_Wifi_BLE_SDK/GD32VW55x_RELEASE_V1.0.2/MSDK/cloud/alicloud/src/services/linkkit/dm\dm_message.c ****             "{\"id\":%d,\"code\":%d,\"devid\":%d,\"payload\":%.*s}";
 609:C:/Users/stapi/OneDrive/Desktop/GD32VW553/V1_MQTT_OK/GD32VW55X_Wifi_BLE_SDK/GD32VW55x_RELEASE_V1.0.2/MSDK/cloud/alicloud/src/services/linkkit/dm\dm_message.c **** int dm_msg_unified_service_post_reply(_IN_ dm_msg_response_payload_t *response)
 610:C:/Users/stapi/OneDrive/Desktop/GD32VW553/V1_MQTT_OK/GD32VW55X_Wifi_BLE_SDK/GD32VW55x_RELEASE_V1.0.2/MSDK/cloud/alicloud/src/services/linkkit/dm\dm_message.c **** {
 611:C:/Users/stapi/OneDrive/Desktop/GD32VW553/V1_MQTT_OK/GD32VW55X_Wifi_BLE_SDK/GD32VW55x_RELEASE_V1.0.2/MSDK/cloud/alicloud/src/services/linkkit/dm\dm_message.c ****     int res = 0, devid = 0, id = 0, message_len = 0;
 612:C:/Users/stapi/OneDrive/Desktop/GD32VW553/V1_MQTT_OK/GD32VW55X_Wifi_BLE_SDK/GD32VW55x_RELEASE_V1.0.2/MSDK/cloud/alicloud/src/services/linkkit/dm\dm_message.c ****     char *message = NULL;
 613:C:/Users/stapi/OneDrive/Desktop/GD32VW553/V1_MQTT_OK/GD32VW55X_Wifi_BLE_SDK/GD32VW55x_RELEASE_V1.0.2/MSDK/cloud/alicloud/src/services/linkkit/dm\dm_message.c ****     char int_id[DM_UTILS_UINT32_STRLEN+1] = {0};
 614:C:/Users/stapi/OneDrive/Desktop/GD32VW553/V1_MQTT_OK/GD32VW55X_Wifi_BLE_SDK/GD32VW55x_RELEASE_V1.0.2/MSDK/cloud/alicloud/src/services/linkkit/dm\dm_message.c **** 
 615:C:/Users/stapi/OneDrive/Desktop/GD32VW553/V1_MQTT_OK/GD32VW55X_Wifi_BLE_SDK/GD32VW55x_RELEASE_V1.0.2/MSDK/cloud/alicloud/src/services/linkkit/dm\dm_message.c ****     /* Message ID */
 616:C:/Users/stapi/OneDrive/Desktop/GD32VW553/V1_MQTT_OK/GD32VW55X_Wifi_BLE_SDK/GD32VW55x_RELEASE_V1.0.2/MSDK/cloud/alicloud/src/services/linkkit/dm\dm_message.c ****     if (response->id.value_length > DM_UTILS_UINT32_STRLEN) {
 617:C:/Users/stapi/OneDrive/Desktop/GD32VW553/V1_MQTT_OK/GD32VW55X_Wifi_BLE_SDK/GD32VW55x_RELEASE_V1.0.2/MSDK/cloud/alicloud/src/services/linkkit/dm\dm_message.c ****         return FAIL_RETURN;
 618:C:/Users/stapi/OneDrive/Desktop/GD32VW553/V1_MQTT_OK/GD32VW55X_Wifi_BLE_SDK/GD32VW55x_RELEASE_V1.0.2/MSDK/cloud/alicloud/src/services/linkkit/dm\dm_message.c ****     }
 619:C:/Users/stapi/OneDrive/Desktop/GD32VW553/V1_MQTT_OK/GD32VW55X_Wifi_BLE_SDK/GD32VW55x_RELEASE_V1.0.2/MSDK/cloud/alicloud/src/services/linkkit/dm\dm_message.c ****     memcpy(int_id, response->id.value, response->id.value_length);
 620:C:/Users/stapi/OneDrive/Desktop/GD32VW553/V1_MQTT_OK/GD32VW55X_Wifi_BLE_SDK/GD32VW55x_RELEASE_V1.0.2/MSDK/cloud/alicloud/src/services/linkkit/dm\dm_message.c ****     id = atoi(int_id);
 621:C:/Users/stapi/OneDrive/Desktop/GD32VW553/V1_MQTT_OK/GD32VW55X_Wifi_BLE_SDK/GD32VW55x_RELEASE_V1.0.2/MSDK/cloud/alicloud/src/services/linkkit/dm\dm_message.c **** 
 622:C:/Users/stapi/OneDrive/Desktop/GD32VW553/V1_MQTT_OK/GD32VW55X_Wifi_BLE_SDK/GD32VW55x_RELEASE_V1.0.2/MSDK/cloud/alicloud/src/services/linkkit/dm\dm_message.c ****     /* dm_log_debug("Current ID: %d", id); */
 623:C:/Users/stapi/OneDrive/Desktop/GD32VW553/V1_MQTT_OK/GD32VW55X_Wifi_BLE_SDK/GD32VW55x_RELEASE_V1.0.2/MSDK/cloud/alicloud/src/services/linkkit/dm\dm_message.c **** 
 624:C:/Users/stapi/OneDrive/Desktop/GD32VW553/V1_MQTT_OK/GD32VW55X_Wifi_BLE_SDK/GD32VW55x_RELEASE_V1.0.2/MSDK/cloud/alicloud/src/services/linkkit/dm\dm_message.c **** #if !defined(DM_MESSAGE_CACHE_DISABLED)
 625:C:/Users/stapi/OneDrive/Desktop/GD32VW553/V1_MQTT_OK/GD32VW55X_Wifi_BLE_SDK/GD32VW55x_RELEASE_V1.0.2/MSDK/cloud/alicloud/src/services/linkkit/dm\dm_message.c ****     dm_msg_cache_node_t *node = NULL;
 626:C:/Users/stapi/OneDrive/Desktop/GD32VW553/V1_MQTT_OK/GD32VW55X_Wifi_BLE_SDK/GD32VW55x_RELEASE_V1.0.2/MSDK/cloud/alicloud/src/services/linkkit/dm\dm_message.c ****     res = dm_msg_cache_search(id, &node);
 627:C:/Users/stapi/OneDrive/Desktop/GD32VW553/V1_MQTT_OK/GD32VW55X_Wifi_BLE_SDK/GD32VW55x_RELEASE_V1.0.2/MSDK/cloud/alicloud/src/services/linkkit/dm\dm_message.c ****     if (res != SUCCESS_RETURN) {
 628:C:/Users/stapi/OneDrive/Desktop/GD32VW553/V1_MQTT_OK/GD32VW55X_Wifi_BLE_SDK/GD32VW55x_RELEASE_V1.0.2/MSDK/cloud/alicloud/src/services/linkkit/dm\dm_message.c ****         return FAIL_RETURN;
 629:C:/Users/stapi/OneDrive/Desktop/GD32VW553/V1_MQTT_OK/GD32VW55X_Wifi_BLE_SDK/GD32VW55x_RELEASE_V1.0.2/MSDK/cloud/alicloud/src/services/linkkit/dm\dm_message.c ****     }
 630:C:/Users/stapi/OneDrive/Desktop/GD32VW553/V1_MQTT_OK/GD32VW55X_Wifi_BLE_SDK/GD32VW55x_RELEASE_V1.0.2/MSDK/cloud/alicloud/src/services/linkkit/dm\dm_message.c ****     devid = node->devid;
 631:C:/Users/stapi/OneDrive/Desktop/GD32VW553/V1_MQTT_OK/GD32VW55X_Wifi_BLE_SDK/GD32VW55x_RELEASE_V1.0.2/MSDK/cloud/alicloud/src/services/linkkit/dm\dm_message.c **** #endif
 632:C:/Users/stapi/OneDrive/Desktop/GD32VW553/V1_MQTT_OK/GD32VW55X_Wifi_BLE_SDK/GD32VW55x_RELEASE_V1.0.2/MSDK/cloud/alicloud/src/services/linkkit/dm\dm_message.c **** 
 633:C:/Users/stapi/OneDrive/Desktop/GD32VW553/V1_MQTT_OK/GD32VW55X_Wifi_BLE_SDK/GD32VW55x_RELEASE_V1.0.2/MSDK/cloud/alicloud/src/services/linkkit/dm\dm_message.c ****     message_len = strlen(DM_MSG_UNIFIED_SERVICE_POST_REPLY_FMT) + DM_UTILS_UINT32_STRLEN * 3 + resp
 634:C:/Users/stapi/OneDrive/Desktop/GD32VW553/V1_MQTT_OK/GD32VW55X_Wifi_BLE_SDK/GD32VW55x_RELEASE_V1.0.2/MSDK/cloud/alicloud/src/services/linkkit/dm\dm_message.c ****     message = DM_malloc(message_len);
 635:C:/Users/stapi/OneDrive/Desktop/GD32VW553/V1_MQTT_OK/GD32VW55X_Wifi_BLE_SDK/GD32VW55x_RELEASE_V1.0.2/MSDK/cloud/alicloud/src/services/linkkit/dm\dm_message.c ****     if (message == NULL) {
 636:C:/Users/stapi/OneDrive/Desktop/GD32VW553/V1_MQTT_OK/GD32VW55X_Wifi_BLE_SDK/GD32VW55x_RELEASE_V1.0.2/MSDK/cloud/alicloud/src/services/linkkit/dm\dm_message.c ****         return DM_MEMORY_NOT_ENOUGH;
 637:C:/Users/stapi/OneDrive/Desktop/GD32VW553/V1_MQTT_OK/GD32VW55X_Wifi_BLE_SDK/GD32VW55x_RELEASE_V1.0.2/MSDK/cloud/alicloud/src/services/linkkit/dm\dm_message.c ****     }
 638:C:/Users/stapi/OneDrive/Desktop/GD32VW553/V1_MQTT_OK/GD32VW55X_Wifi_BLE_SDK/GD32VW55x_RELEASE_V1.0.2/MSDK/cloud/alicloud/src/services/linkkit/dm\dm_message.c ****     memset(message, 0, message_len);
 639:C:/Users/stapi/OneDrive/Desktop/GD32VW553/V1_MQTT_OK/GD32VW55X_Wifi_BLE_SDK/GD32VW55x_RELEASE_V1.0.2/MSDK/cloud/alicloud/src/services/linkkit/dm\dm_message.c ****     HAL_Snprintf(message, message_len, DM_MSG_UNIFIED_SERVICE_POST_REPLY_FMT, id, response->code.va
 640:C:/Users/stapi/OneDrive/Desktop/GD32VW553/V1_MQTT_OK/GD32VW55X_Wifi_BLE_SDK/GD32VW55x_RELEASE_V1.0.2/MSDK/cloud/alicloud/src/services/linkkit/dm\dm_message.c ****                 response->data.value_length, response->data.value);
 641:C:/Users/stapi/OneDrive/Desktop/GD32VW553/V1_MQTT_OK/GD32VW55X_Wifi_BLE_SDK/GD32VW55x_RELEASE_V1.0.2/MSDK/cloud/alicloud/src/services/linkkit/dm\dm_message.c **** 
 642:C:/Users/stapi/OneDrive/Desktop/GD32VW553/V1_MQTT_OK/GD32VW55X_Wifi_BLE_SDK/GD32VW55x_RELEASE_V1.0.2/MSDK/cloud/alicloud/src/services/linkkit/dm\dm_message.c ****     res = _dm_msg_send_to_user(IOTX_DM_UNIFIED_SERVICE_POST_REPLY, message);
 643:C:/Users/stapi/OneDrive/Desktop/GD32VW553/V1_MQTT_OK/GD32VW55X_Wifi_BLE_SDK/GD32VW55x_RELEASE_V1.0.2/MSDK/cloud/alicloud/src/services/linkkit/dm\dm_message.c ****     if (res != SUCCESS_RETURN) {
 644:C:/Users/stapi/OneDrive/Desktop/GD32VW553/V1_MQTT_OK/GD32VW55X_Wifi_BLE_SDK/GD32VW55x_RELEASE_V1.0.2/MSDK/cloud/alicloud/src/services/linkkit/dm\dm_message.c ****         DM_free(message);
 645:C:/Users/stapi/OneDrive/Desktop/GD32VW553/V1_MQTT_OK/GD32VW55X_Wifi_BLE_SDK/GD32VW55x_RELEASE_V1.0.2/MSDK/cloud/alicloud/src/services/linkkit/dm\dm_message.c ****         return FAIL_RETURN;
 646:C:/Users/stapi/OneDrive/Desktop/GD32VW553/V1_MQTT_OK/GD32VW55X_Wifi_BLE_SDK/GD32VW55x_RELEASE_V1.0.2/MSDK/cloud/alicloud/src/services/linkkit/dm\dm_message.c ****     }
 647:C:/Users/stapi/OneDrive/Desktop/GD32VW553/V1_MQTT_OK/GD32VW55X_Wifi_BLE_SDK/GD32VW55x_RELEASE_V1.0.2/MSDK/cloud/alicloud/src/services/linkkit/dm\dm_message.c **** 
 648:C:/Users/stapi/OneDrive/Desktop/GD32VW553/V1_MQTT_OK/GD32VW55X_Wifi_BLE_SDK/GD32VW55x_RELEASE_V1.0.2/MSDK/cloud/alicloud/src/services/linkkit/dm\dm_message.c ****     return SUCCESS_RETURN;
 649:C:/Users/stapi/OneDrive/Desktop/GD32VW553/V1_MQTT_OK/GD32VW55X_Wifi_BLE_SDK/GD32VW55x_RELEASE_V1.0.2/MSDK/cloud/alicloud/src/services/linkkit/dm\dm_message.c **** }
 650:C:/Users/stapi/OneDrive/Desktop/GD32VW553/V1_MQTT_OK/GD32VW55X_Wifi_BLE_SDK/GD32VW55x_RELEASE_V1.0.2/MSDK/cloud/alicloud/src/services/linkkit/dm\dm_message.c **** #endif
 651:C:/Users/stapi/OneDrive/Desktop/GD32VW553/V1_MQTT_OK/GD32VW55X_Wifi_BLE_SDK/GD32VW55x_RELEASE_V1.0.2/MSDK/cloud/alicloud/src/services/linkkit/dm\dm_message.c **** 
 652:C:/Users/stapi/OneDrive/Desktop/GD32VW553/V1_MQTT_OK/GD32VW55X_Wifi_BLE_SDK/GD32VW55x_RELEASE_V1.0.2/MSDK/cloud/alicloud/src/services/linkkit/dm\dm_message.c **** const char DM_MSG_EVENT_DEVICEINFO_UPDATE_REPLY_FMT[] DM_READ_ONLY = "{\"id\":%d,\"code\":%d,\"devi
 653:C:/Users/stapi/OneDrive/Desktop/GD32VW553/V1_MQTT_OK/GD32VW55X_Wifi_BLE_SDK/GD32VW55x_RELEASE_V1.0.2/MSDK/cloud/alicloud/src/services/linkkit/dm\dm_message.c **** int dm_msg_thing_deviceinfo_update_reply(dm_msg_response_payload_t *response)
 654:C:/Users/stapi/OneDrive/Desktop/GD32VW553/V1_MQTT_OK/GD32VW55X_Wifi_BLE_SDK/GD32VW55x_RELEASE_V1.0.2/MSDK/cloud/alicloud/src/services/linkkit/dm\dm_message.c **** {
 2359              		.loc 1 654 1
 2360              		.cfi_startproc
 2361              	.LVL289:
 2362 0000 17030000 		call	t0,__riscv_save_4
 2362      E7020300 
 2363              		.cfi_offset 19, -20
 2364              		.cfi_offset 18, -16
 2365              		.cfi_offset 9, -12
 2366              		.cfi_offset 8, -8
 2367              		.cfi_offset 1, -4
 2368              		.cfi_def_cfa_offset 32
 655:C:/Users/stapi/OneDrive/Desktop/GD32VW553/V1_MQTT_OK/GD32VW55X_Wifi_BLE_SDK/GD32VW55x_RELEASE_V1.0.2/MSDK/cloud/alicloud/src/services/linkkit/dm\dm_message.c ****     int res = 0, devid = 0, id = 0, message_len = 0;
 2369              		.loc 1 655 5
 2370              	.LVL290:
 656:C:/Users/stapi/OneDrive/Desktop/GD32VW553/V1_MQTT_OK/GD32VW55X_Wifi_BLE_SDK/GD32VW55x_RELEASE_V1.0.2/MSDK/cloud/alicloud/src/services/linkkit/dm\dm_message.c ****     char *message = NULL;
 2371              		.loc 1 656 5
 657:C:/Users/stapi/OneDrive/Desktop/GD32VW553/V1_MQTT_OK/GD32VW55X_Wifi_BLE_SDK/GD32VW55x_RELEASE_V1.0.2/MSDK/cloud/alicloud/src/services/linkkit/dm\dm_message.c ****     char int_id[DM_UTILS_UINT32_STRLEN+1] = {0};
 2372              		.loc 1 657 5
 658:C:/Users/stapi/OneDrive/Desktop/GD32VW553/V1_MQTT_OK/GD32VW55X_Wifi_BLE_SDK/GD32VW55x_RELEASE_V1.0.2/MSDK/cloud/alicloud/src/services/linkkit/dm\dm_message.c **** 
 659:C:/Users/stapi/OneDrive/Desktop/GD32VW553/V1_MQTT_OK/GD32VW55X_Wifi_BLE_SDK/GD32VW55x_RELEASE_V1.0.2/MSDK/cloud/alicloud/src/services/linkkit/dm\dm_message.c ****     /* Message ID */
 660:C:/Users/stapi/OneDrive/Desktop/GD32VW553/V1_MQTT_OK/GD32VW55X_Wifi_BLE_SDK/GD32VW55x_RELEASE_V1.0.2/MSDK/cloud/alicloud/src/services/linkkit/dm\dm_message.c ****     if (response->id.value_length > DM_UTILS_UINT32_STRLEN) {
 2373              		.loc 1 660 21 is_stmt 0
 2374 0008 1045     		lw	a2,8(a0)
 654:C:/Users/stapi/OneDrive/Desktop/GD32VW553/V1_MQTT_OK/GD32VW55X_Wifi_BLE_SDK/GD32VW55x_RELEASE_V1.0.2/MSDK/cloud/alicloud/src/services/linkkit/dm\dm_message.c ****     int res = 0, devid = 0, id = 0, message_len = 0;
 2375              		.loc 1 654 1
 2376 000a 4111     		addi	sp,sp,-16
 2377              		.cfi_def_cfa_offset 48
 657:C:/Users/stapi/OneDrive/Desktop/GD32VW553/V1_MQTT_OK/GD32VW55X_Wifi_BLE_SDK/GD32VW55x_RELEASE_V1.0.2/MSDK/cloud/alicloud/src/services/linkkit/dm\dm_message.c ****     char int_id[DM_UTILS_UINT32_STRLEN+1] = {0};
 2378              		.loc 1 657 10
 2379 000c 02C2     		sw	zero,4(sp)
 2380 000e 02C4     		sw	zero,8(sp)
 2381 0010 23160100 		sh	zero,12(sp)
 2382 0014 23070100 		sb	zero,14(sp)
 2383              		.loc 1 660 5 is_stmt 1
 2384              		.loc 1 660 8 is_stmt 0
 2385 0018 A947     		li	a5,10
 2386 001a 63D9C700 		ble	a2,a5,.L152
 2387              	.LVL291:
 2388              	.L160:
 661:C:/Users/stapi/OneDrive/Desktop/GD32VW553/V1_MQTT_OK/GD32VW55X_Wifi_BLE_SDK/GD32VW55x_RELEASE_V1.0.2/MSDK/cloud/alicloud/src/services/linkkit/dm\dm_message.c ****         return FAIL_RETURN;
 662:C:/Users/stapi/OneDrive/Desktop/GD32VW553/V1_MQTT_OK/GD32VW55X_Wifi_BLE_SDK/GD32VW55x_RELEASE_V1.0.2/MSDK/cloud/alicloud/src/services/linkkit/dm\dm_message.c ****     }
 663:C:/Users/stapi/OneDrive/Desktop/GD32VW553/V1_MQTT_OK/GD32VW55X_Wifi_BLE_SDK/GD32VW55x_RELEASE_V1.0.2/MSDK/cloud/alicloud/src/services/linkkit/dm\dm_message.c ****     memcpy(int_id, response->id.value, response->id.value_length);
 664:C:/Users/stapi/OneDrive/Desktop/GD32VW553/V1_MQTT_OK/GD32VW55X_Wifi_BLE_SDK/GD32VW55x_RELEASE_V1.0.2/MSDK/cloud/alicloud/src/services/linkkit/dm\dm_message.c ****     id = atoi(int_id);
 665:C:/Users/stapi/OneDrive/Desktop/GD32VW553/V1_MQTT_OK/GD32VW55X_Wifi_BLE_SDK/GD32VW55x_RELEASE_V1.0.2/MSDK/cloud/alicloud/src/services/linkkit/dm\dm_message.c **** 
 666:C:/Users/stapi/OneDrive/Desktop/GD32VW553/V1_MQTT_OK/GD32VW55X_Wifi_BLE_SDK/GD32VW55x_RELEASE_V1.0.2/MSDK/cloud/alicloud/src/services/linkkit/dm\dm_message.c ****     /* dm_log_debug("Current ID: %d", id); */
 667:C:/Users/stapi/OneDrive/Desktop/GD32VW553/V1_MQTT_OK/GD32VW55X_Wifi_BLE_SDK/GD32VW55x_RELEASE_V1.0.2/MSDK/cloud/alicloud/src/services/linkkit/dm\dm_message.c **** 
 668:C:/Users/stapi/OneDrive/Desktop/GD32VW553/V1_MQTT_OK/GD32VW55X_Wifi_BLE_SDK/GD32VW55x_RELEASE_V1.0.2/MSDK/cloud/alicloud/src/services/linkkit/dm\dm_message.c **** #if !defined(DM_MESSAGE_CACHE_DISABLED)
 669:C:/Users/stapi/OneDrive/Desktop/GD32VW553/V1_MQTT_OK/GD32VW55X_Wifi_BLE_SDK/GD32VW55x_RELEASE_V1.0.2/MSDK/cloud/alicloud/src/services/linkkit/dm\dm_message.c ****     dm_msg_cache_node_t *node = NULL;
 670:C:/Users/stapi/OneDrive/Desktop/GD32VW553/V1_MQTT_OK/GD32VW55X_Wifi_BLE_SDK/GD32VW55x_RELEASE_V1.0.2/MSDK/cloud/alicloud/src/services/linkkit/dm\dm_message.c ****     res = dm_msg_cache_search(id, &node);
 671:C:/Users/stapi/OneDrive/Desktop/GD32VW553/V1_MQTT_OK/GD32VW55X_Wifi_BLE_SDK/GD32VW55x_RELEASE_V1.0.2/MSDK/cloud/alicloud/src/services/linkkit/dm\dm_message.c ****     if (res != SUCCESS_RETURN) {
 672:C:/Users/stapi/OneDrive/Desktop/GD32VW553/V1_MQTT_OK/GD32VW55X_Wifi_BLE_SDK/GD32VW55x_RELEASE_V1.0.2/MSDK/cloud/alicloud/src/services/linkkit/dm\dm_message.c ****         return FAIL_RETURN;
 673:C:/Users/stapi/OneDrive/Desktop/GD32VW553/V1_MQTT_OK/GD32VW55X_Wifi_BLE_SDK/GD32VW55x_RELEASE_V1.0.2/MSDK/cloud/alicloud/src/services/linkkit/dm\dm_message.c ****     }
 674:C:/Users/stapi/OneDrive/Desktop/GD32VW553/V1_MQTT_OK/GD32VW55X_Wifi_BLE_SDK/GD32VW55x_RELEASE_V1.0.2/MSDK/cloud/alicloud/src/services/linkkit/dm\dm_message.c ****     devid = node->devid;
 675:C:/Users/stapi/OneDrive/Desktop/GD32VW553/V1_MQTT_OK/GD32VW55X_Wifi_BLE_SDK/GD32VW55x_RELEASE_V1.0.2/MSDK/cloud/alicloud/src/services/linkkit/dm\dm_message.c **** #endif
 676:C:/Users/stapi/OneDrive/Desktop/GD32VW553/V1_MQTT_OK/GD32VW55X_Wifi_BLE_SDK/GD32VW55x_RELEASE_V1.0.2/MSDK/cloud/alicloud/src/services/linkkit/dm\dm_message.c **** 
 677:C:/Users/stapi/OneDrive/Desktop/GD32VW553/V1_MQTT_OK/GD32VW55X_Wifi_BLE_SDK/GD32VW55x_RELEASE_V1.0.2/MSDK/cloud/alicloud/src/services/linkkit/dm\dm_message.c ****     message_len = strlen(DM_MSG_EVENT_DEVICEINFO_UPDATE_REPLY_FMT) + DM_UTILS_UINT32_STRLEN * 3 + 1
 678:C:/Users/stapi/OneDrive/Desktop/GD32VW553/V1_MQTT_OK/GD32VW55X_Wifi_BLE_SDK/GD32VW55x_RELEASE_V1.0.2/MSDK/cloud/alicloud/src/services/linkkit/dm\dm_message.c ****     message = DM_malloc(message_len);
 679:C:/Users/stapi/OneDrive/Desktop/GD32VW553/V1_MQTT_OK/GD32VW55X_Wifi_BLE_SDK/GD32VW55x_RELEASE_V1.0.2/MSDK/cloud/alicloud/src/services/linkkit/dm\dm_message.c ****     if (message == NULL) {
 680:C:/Users/stapi/OneDrive/Desktop/GD32VW553/V1_MQTT_OK/GD32VW55X_Wifi_BLE_SDK/GD32VW55x_RELEASE_V1.0.2/MSDK/cloud/alicloud/src/services/linkkit/dm\dm_message.c ****         return DM_MEMORY_NOT_ENOUGH;
 681:C:/Users/stapi/OneDrive/Desktop/GD32VW553/V1_MQTT_OK/GD32VW55X_Wifi_BLE_SDK/GD32VW55x_RELEASE_V1.0.2/MSDK/cloud/alicloud/src/services/linkkit/dm\dm_message.c ****     }
 682:C:/Users/stapi/OneDrive/Desktop/GD32VW553/V1_MQTT_OK/GD32VW55X_Wifi_BLE_SDK/GD32VW55x_RELEASE_V1.0.2/MSDK/cloud/alicloud/src/services/linkkit/dm\dm_message.c ****     memset(message, 0, message_len);
 683:C:/Users/stapi/OneDrive/Desktop/GD32VW553/V1_MQTT_OK/GD32VW55X_Wifi_BLE_SDK/GD32VW55x_RELEASE_V1.0.2/MSDK/cloud/alicloud/src/services/linkkit/dm\dm_message.c ****     HAL_Snprintf(message, message_len, DM_MSG_EVENT_DEVICEINFO_UPDATE_REPLY_FMT, id, response->code
 684:C:/Users/stapi/OneDrive/Desktop/GD32VW553/V1_MQTT_OK/GD32VW55X_Wifi_BLE_SDK/GD32VW55x_RELEASE_V1.0.2/MSDK/cloud/alicloud/src/services/linkkit/dm\dm_message.c **** 
 685:C:/Users/stapi/OneDrive/Desktop/GD32VW553/V1_MQTT_OK/GD32VW55X_Wifi_BLE_SDK/GD32VW55x_RELEASE_V1.0.2/MSDK/cloud/alicloud/src/services/linkkit/dm\dm_message.c ****     res = _dm_msg_send_to_user(IOTX_DM_EVENT_DEVICEINFO_UPDATE_REPLY, message);
 686:C:/Users/stapi/OneDrive/Desktop/GD32VW553/V1_MQTT_OK/GD32VW55X_Wifi_BLE_SDK/GD32VW55x_RELEASE_V1.0.2/MSDK/cloud/alicloud/src/services/linkkit/dm\dm_message.c ****     if (res != SUCCESS_RETURN) {
 687:C:/Users/stapi/OneDrive/Desktop/GD32VW553/V1_MQTT_OK/GD32VW55X_Wifi_BLE_SDK/GD32VW55x_RELEASE_V1.0.2/MSDK/cloud/alicloud/src/services/linkkit/dm\dm_message.c ****         DM_free(message);
 2389              		.loc 1 687 9 is_stmt 1
 2390              		.loc 1 687 25
 688:C:/Users/stapi/OneDrive/Desktop/GD32VW553/V1_MQTT_OK/GD32VW55X_Wifi_BLE_SDK/GD32VW55x_RELEASE_V1.0.2/MSDK/cloud/alicloud/src/services/linkkit/dm\dm_message.c ****         return FAIL_RETURN;
 2391              		.loc 1 688 9
 2392              		.loc 1 688 16 is_stmt 0
 2393 001e 7D57     		li	a4,-1
 2394              	.LVL292:
 2395              	.L151:
 689:C:/Users/stapi/OneDrive/Desktop/GD32VW553/V1_MQTT_OK/GD32VW55X_Wifi_BLE_SDK/GD32VW55x_RELEASE_V1.0.2/MSDK/cloud/alicloud/src/services/linkkit/dm\dm_message.c ****     }
 690:C:/Users/stapi/OneDrive/Desktop/GD32VW553/V1_MQTT_OK/GD32VW55X_Wifi_BLE_SDK/GD32VW55x_RELEASE_V1.0.2/MSDK/cloud/alicloud/src/services/linkkit/dm\dm_message.c **** 
 691:C:/Users/stapi/OneDrive/Desktop/GD32VW553/V1_MQTT_OK/GD32VW55X_Wifi_BLE_SDK/GD32VW55x_RELEASE_V1.0.2/MSDK/cloud/alicloud/src/services/linkkit/dm\dm_message.c ****     return SUCCESS_RETURN;
 692:C:/Users/stapi/OneDrive/Desktop/GD32VW553/V1_MQTT_OK/GD32VW55X_Wifi_BLE_SDK/GD32VW55x_RELEASE_V1.0.2/MSDK/cloud/alicloud/src/services/linkkit/dm\dm_message.c **** }
 2396              		.loc 1 692 1
 2397 0020 3A85     		mv	a0,a4
 2398 0022 4101     		addi	sp,sp,16
 2399              		.cfi_remember_state
 2400              		.cfi_def_cfa_offset 0
 2401 0024 17030000 		tail	__riscv_restore_4
 2401      67000300 
 2402              		.cfi_restore 19
 2403              		.cfi_restore 18
 2404              		.cfi_restore 9
 2405              		.cfi_restore 8
 2406              		.cfi_restore 1
 2407              		.cfi_def_cfa_offset -32
 2408              	.LVL293:
 2409              	.L152:
 2410              		.cfi_restore_state
 663:C:/Users/stapi/OneDrive/Desktop/GD32VW553/V1_MQTT_OK/GD32VW55X_Wifi_BLE_SDK/GD32VW55x_RELEASE_V1.0.2/MSDK/cloud/alicloud/src/services/linkkit/dm\dm_message.c ****     id = atoi(int_id);
 2411              		.loc 1 663 5
 2412 002c 4C41     		lw	a1,4(a0)
 2413 002e AA84     		mv	s1,a0
 663:C:/Users/stapi/OneDrive/Desktop/GD32VW553/V1_MQTT_OK/GD32VW55X_Wifi_BLE_SDK/GD32VW55x_RELEASE_V1.0.2/MSDK/cloud/alicloud/src/services/linkkit/dm\dm_message.c ****     id = atoi(int_id);
 2414              		.loc 1 663 5 is_stmt 1
 2415 0030 4800     		addi	a0,sp,4
 2416              	.LVL294:
 2417 0032 97000000 		call	memcpy
 2417      E7800000 
 2418              	.LVL295:
 664:C:/Users/stapi/OneDrive/Desktop/GD32VW553/V1_MQTT_OK/GD32VW55X_Wifi_BLE_SDK/GD32VW55x_RELEASE_V1.0.2/MSDK/cloud/alicloud/src/services/linkkit/dm\dm_message.c **** 
 2419              		.loc 1 664 5
 664:C:/Users/stapi/OneDrive/Desktop/GD32VW553/V1_MQTT_OK/GD32VW55X_Wifi_BLE_SDK/GD32VW55x_RELEASE_V1.0.2/MSDK/cloud/alicloud/src/services/linkkit/dm\dm_message.c **** 
 2420              		.loc 1 664 10 is_stmt 0
 2421 003a 4800     		addi	a0,sp,4
 2422 003c 97000000 		call	atoi
 2422      E7800000 
 2423              	.LVL296:
 670:C:/Users/stapi/OneDrive/Desktop/GD32VW553/V1_MQTT_OK/GD32VW55X_Wifi_BLE_SDK/GD32VW55x_RELEASE_V1.0.2/MSDK/cloud/alicloud/src/services/linkkit/dm\dm_message.c ****     if (res != SUCCESS_RETURN) {
 2424              		.loc 1 670 11
 2425 0044 8A85     		mv	a1,sp
 664:C:/Users/stapi/OneDrive/Desktop/GD32VW553/V1_MQTT_OK/GD32VW55X_Wifi_BLE_SDK/GD32VW55x_RELEASE_V1.0.2/MSDK/cloud/alicloud/src/services/linkkit/dm\dm_message.c **** 
 2426              		.loc 1 664 10
 2427 0046 2A89     		mv	s2,a0
 2428              	.LVL297:
 669:C:/Users/stapi/OneDrive/Desktop/GD32VW553/V1_MQTT_OK/GD32VW55X_Wifi_BLE_SDK/GD32VW55x_RELEASE_V1.0.2/MSDK/cloud/alicloud/src/services/linkkit/dm\dm_message.c ****     res = dm_msg_cache_search(id, &node);
 2429              		.loc 1 669 5 is_stmt 1
 669:C:/Users/stapi/OneDrive/Desktop/GD32VW553/V1_MQTT_OK/GD32VW55X_Wifi_BLE_SDK/GD32VW55x_RELEASE_V1.0.2/MSDK/cloud/alicloud/src/services/linkkit/dm\dm_message.c ****     res = dm_msg_cache_search(id, &node);
 2430              		.loc 1 669 26 is_stmt 0
 2431 0048 02C0     		sw	zero,0(sp)
 670:C:/Users/stapi/OneDrive/Desktop/GD32VW553/V1_MQTT_OK/GD32VW55X_Wifi_BLE_SDK/GD32VW55x_RELEASE_V1.0.2/MSDK/cloud/alicloud/src/services/linkkit/dm\dm_message.c ****     if (res != SUCCESS_RETURN) {
 2432              		.loc 1 670 5 is_stmt 1
 670:C:/Users/stapi/OneDrive/Desktop/GD32VW553/V1_MQTT_OK/GD32VW55X_Wifi_BLE_SDK/GD32VW55x_RELEASE_V1.0.2/MSDK/cloud/alicloud/src/services/linkkit/dm\dm_message.c ****     if (res != SUCCESS_RETURN) {
 2433              		.loc 1 670 11 is_stmt 0
 2434 004a 97000000 		call	dm_msg_cache_search
 2434      E7800000 
 2435              	.LVL298:
 671:C:/Users/stapi/OneDrive/Desktop/GD32VW553/V1_MQTT_OK/GD32VW55X_Wifi_BLE_SDK/GD32VW55x_RELEASE_V1.0.2/MSDK/cloud/alicloud/src/services/linkkit/dm\dm_message.c ****         return FAIL_RETURN;
 2436              		.loc 1 671 5 is_stmt 1
 671:C:/Users/stapi/OneDrive/Desktop/GD32VW553/V1_MQTT_OK/GD32VW55X_Wifi_BLE_SDK/GD32VW55x_RELEASE_V1.0.2/MSDK/cloud/alicloud/src/services/linkkit/dm\dm_message.c ****         return FAIL_RETURN;
 2437              		.loc 1 671 8 is_stmt 0
 2438 0052 71F5     		bne	a0,zero,.L160
 674:C:/Users/stapi/OneDrive/Desktop/GD32VW553/V1_MQTT_OK/GD32VW55X_Wifi_BLE_SDK/GD32VW55x_RELEASE_V1.0.2/MSDK/cloud/alicloud/src/services/linkkit/dm\dm_message.c **** #endif
 2439              		.loc 1 674 5 is_stmt 1
 674:C:/Users/stapi/OneDrive/Desktop/GD32VW553/V1_MQTT_OK/GD32VW55X_Wifi_BLE_SDK/GD32VW55x_RELEASE_V1.0.2/MSDK/cloud/alicloud/src/services/linkkit/dm\dm_message.c **** #endif
 2440              		.loc 1 674 11 is_stmt 0
 2441 0054 8247     		lw	a5,0(sp)
 678:C:/Users/stapi/OneDrive/Desktop/GD32VW553/V1_MQTT_OK/GD32VW55X_Wifi_BLE_SDK/GD32VW55x_RELEASE_V1.0.2/MSDK/cloud/alicloud/src/services/linkkit/dm\dm_message.c ****     if (message == NULL) {
 2442              		.loc 1 678 15
 2443 0056 1306D003 		li	a2,61
 2444 005a 8145     		li	a1,0
 674:C:/Users/stapi/OneDrive/Desktop/GD32VW553/V1_MQTT_OK/GD32VW55X_Wifi_BLE_SDK/GD32VW55x_RELEASE_V1.0.2/MSDK/cloud/alicloud/src/services/linkkit/dm\dm_message.c **** #endif
 2445              		.loc 1 674 11
 2446 005c 83A94700 		lw	s3,4(a5)
 2447              	.LVL299:
 677:C:/Users/stapi/OneDrive/Desktop/GD32VW553/V1_MQTT_OK/GD32VW55X_Wifi_BLE_SDK/GD32VW55x_RELEASE_V1.0.2/MSDK/cloud/alicloud/src/services/linkkit/dm\dm_message.c ****     message = DM_malloc(message_len);
 2448              		.loc 1 677 5 is_stmt 1
 678:C:/Users/stapi/OneDrive/Desktop/GD32VW553/V1_MQTT_OK/GD32VW55X_Wifi_BLE_SDK/GD32VW55x_RELEASE_V1.0.2/MSDK/cloud/alicloud/src/services/linkkit/dm\dm_message.c ****     if (message == NULL) {
 2449              		.loc 1 678 5
 678:C:/Users/stapi/OneDrive/Desktop/GD32VW553/V1_MQTT_OK/GD32VW55X_Wifi_BLE_SDK/GD32VW55x_RELEASE_V1.0.2/MSDK/cloud/alicloud/src/services/linkkit/dm\dm_message.c ****     if (message == NULL) {
 2450              		.loc 1 678 15 is_stmt 0
 2451 0060 97000000 		call	LITE_malloc_internal
 2451      E7800000 
 2452              	.LVL300:
 2453 0068 2A84     		mv	s0,a0
 2454              	.LVL301:
 679:C:/Users/stapi/OneDrive/Desktop/GD32VW553/V1_MQTT_OK/GD32VW55X_Wifi_BLE_SDK/GD32VW55x_RELEASE_V1.0.2/MSDK/cloud/alicloud/src/services/linkkit/dm\dm_message.c ****         return DM_MEMORY_NOT_ENOUGH;
 2455              		.loc 1 679 5 is_stmt 1
 680:C:/Users/stapi/OneDrive/Desktop/GD32VW553/V1_MQTT_OK/GD32VW55X_Wifi_BLE_SDK/GD32VW55x_RELEASE_V1.0.2/MSDK/cloud/alicloud/src/services/linkkit/dm\dm_message.c ****     }
 2456              		.loc 1 680 16 is_stmt 0
 2457 006a 7557     		li	a4,-3
 679:C:/Users/stapi/OneDrive/Desktop/GD32VW553/V1_MQTT_OK/GD32VW55X_Wifi_BLE_SDK/GD32VW55x_RELEASE_V1.0.2/MSDK/cloud/alicloud/src/services/linkkit/dm\dm_message.c ****         return DM_MEMORY_NOT_ENOUGH;
 2458              		.loc 1 679 8
 2459 006c 55D9     		beq	a0,zero,.L151
 682:C:/Users/stapi/OneDrive/Desktop/GD32VW553/V1_MQTT_OK/GD32VW55X_Wifi_BLE_SDK/GD32VW55x_RELEASE_V1.0.2/MSDK/cloud/alicloud/src/services/linkkit/dm\dm_message.c ****     HAL_Snprintf(message, message_len, DM_MSG_EVENT_DEVICEINFO_UPDATE_REPLY_FMT, id, response->code
 2460              		.loc 1 682 5 is_stmt 1
 2461 006e 1306D003 		li	a2,61
 2462 0072 8145     		li	a1,0
 2463 0074 97000000 		call	memset
 2463      E7800000 
 2464              	.LVL302:
 683:C:/Users/stapi/OneDrive/Desktop/GD32VW553/V1_MQTT_OK/GD32VW55X_Wifi_BLE_SDK/GD32VW55x_RELEASE_V1.0.2/MSDK/cloud/alicloud/src/services/linkkit/dm\dm_message.c **** 
 2465              		.loc 1 683 5
 2466 007c 985C     		lw	a4,56(s1)
 2467 007e 37060000 		lui	a2,%hi(.LANCHOR12)
 2468 0082 CE87     		mv	a5,s3
 2469 0084 CA86     		mv	a3,s2
 2470 0086 13060600 		addi	a2,a2,%lo(.LANCHOR12)
 2471 008a 9305D003 		li	a1,61
 2472 008e 2285     		mv	a0,s0
 2473 0090 97000000 		call	HAL_Snprintf
 2473      E7800000 
 2474              	.LVL303:
 685:C:/Users/stapi/OneDrive/Desktop/GD32VW553/V1_MQTT_OK/GD32VW55X_Wifi_BLE_SDK/GD32VW55x_RELEASE_V1.0.2/MSDK/cloud/alicloud/src/services/linkkit/dm\dm_message.c ****     if (res != SUCCESS_RETURN) {
 2475              		.loc 1 685 5
 685:C:/Users/stapi/OneDrive/Desktop/GD32VW553/V1_MQTT_OK/GD32VW55X_Wifi_BLE_SDK/GD32VW55x_RELEASE_V1.0.2/MSDK/cloud/alicloud/src/services/linkkit/dm\dm_message.c ****     if (res != SUCCESS_RETURN) {
 2476              		.loc 1 685 11 is_stmt 0
 2477 0098 A285     		mv	a1,s0
 2478 009a 13052002 		li	a0,34
 2479 009e 97000000 		call	_dm_msg_send_to_user
 2479      E7800000 
 2480              	.LVL304:
 2481 00a6 2A87     		mv	a4,a0
 2482              	.LVL305:
 686:C:/Users/stapi/OneDrive/Desktop/GD32VW553/V1_MQTT_OK/GD32VW55X_Wifi_BLE_SDK/GD32VW55x_RELEASE_V1.0.2/MSDK/cloud/alicloud/src/services/linkkit/dm\dm_message.c ****         DM_free(message);
 2483              		.loc 1 686 5 is_stmt 1
 686:C:/Users/stapi/OneDrive/Desktop/GD32VW553/V1_MQTT_OK/GD32VW55X_Wifi_BLE_SDK/GD32VW55x_RELEASE_V1.0.2/MSDK/cloud/alicloud/src/services/linkkit/dm\dm_message.c ****         DM_free(message);
 2484              		.loc 1 686 8 is_stmt 0
 2485 00a8 25DD     		beq	a0,zero,.L151
 687:C:/Users/stapi/OneDrive/Desktop/GD32VW553/V1_MQTT_OK/GD32VW55X_Wifi_BLE_SDK/GD32VW55x_RELEASE_V1.0.2/MSDK/cloud/alicloud/src/services/linkkit/dm\dm_message.c ****         return FAIL_RETURN;
 2486              		.loc 1 687 9 is_stmt 1
 2487 00aa 2285     		mv	a0,s0
 2488              	.LVL306:
 2489 00ac 97000000 		call	LITE_free_internal
 2489      E7800000 
 2490              	.LVL307:
 2491 00b4 ADB7     		j	.L160
 2492              		.cfi_endproc
 2493              	.LFE36:
 2495              		.section	.text.dm_msg_thing_deviceinfo_delete_reply,"ax",@progbits
 2496              		.align	1
 2497              		.globl	dm_msg_thing_deviceinfo_delete_reply
 2499              	dm_msg_thing_deviceinfo_delete_reply:
 2500              	.LFB37:
 693:C:/Users/stapi/OneDrive/Desktop/GD32VW553/V1_MQTT_OK/GD32VW55X_Wifi_BLE_SDK/GD32VW55x_RELEASE_V1.0.2/MSDK/cloud/alicloud/src/services/linkkit/dm\dm_message.c **** 
 694:C:/Users/stapi/OneDrive/Desktop/GD32VW553/V1_MQTT_OK/GD32VW55X_Wifi_BLE_SDK/GD32VW55x_RELEASE_V1.0.2/MSDK/cloud/alicloud/src/services/linkkit/dm\dm_message.c **** const char DM_MSG_EVENT_DEVICEINFO_DELETE_REPLY_FMT[] DM_READ_ONLY = "{\"id\":%d,\"code\":%d,\"devi
 695:C:/Users/stapi/OneDrive/Desktop/GD32VW553/V1_MQTT_OK/GD32VW55X_Wifi_BLE_SDK/GD32VW55x_RELEASE_V1.0.2/MSDK/cloud/alicloud/src/services/linkkit/dm\dm_message.c **** int dm_msg_thing_deviceinfo_delete_reply(dm_msg_response_payload_t *response)
 696:C:/Users/stapi/OneDrive/Desktop/GD32VW553/V1_MQTT_OK/GD32VW55X_Wifi_BLE_SDK/GD32VW55x_RELEASE_V1.0.2/MSDK/cloud/alicloud/src/services/linkkit/dm\dm_message.c **** {
 2501              		.loc 1 696 1
 2502              		.cfi_startproc
 2503              	.LVL308:
 2504 0000 17030000 		call	t0,__riscv_save_4
 2504      E7020300 
 2505              		.cfi_offset 19, -20
 2506              		.cfi_offset 18, -16
 2507              		.cfi_offset 9, -12
 2508              		.cfi_offset 8, -8
 2509              		.cfi_offset 1, -4
 2510              		.cfi_def_cfa_offset 32
 697:C:/Users/stapi/OneDrive/Desktop/GD32VW553/V1_MQTT_OK/GD32VW55X_Wifi_BLE_SDK/GD32VW55x_RELEASE_V1.0.2/MSDK/cloud/alicloud/src/services/linkkit/dm\dm_message.c ****     int res = 0, devid = 0, id = 0, message_len = 0;
 2511              		.loc 1 697 5
 2512              	.LVL309:
 698:C:/Users/stapi/OneDrive/Desktop/GD32VW553/V1_MQTT_OK/GD32VW55X_Wifi_BLE_SDK/GD32VW55x_RELEASE_V1.0.2/MSDK/cloud/alicloud/src/services/linkkit/dm\dm_message.c ****     char *message = NULL;
 2513              		.loc 1 698 5
 699:C:/Users/stapi/OneDrive/Desktop/GD32VW553/V1_MQTT_OK/GD32VW55X_Wifi_BLE_SDK/GD32VW55x_RELEASE_V1.0.2/MSDK/cloud/alicloud/src/services/linkkit/dm\dm_message.c ****     char int_id[DM_UTILS_UINT32_STRLEN+1] = {0};
 2514              		.loc 1 699 5
 700:C:/Users/stapi/OneDrive/Desktop/GD32VW553/V1_MQTT_OK/GD32VW55X_Wifi_BLE_SDK/GD32VW55x_RELEASE_V1.0.2/MSDK/cloud/alicloud/src/services/linkkit/dm\dm_message.c **** 
 701:C:/Users/stapi/OneDrive/Desktop/GD32VW553/V1_MQTT_OK/GD32VW55X_Wifi_BLE_SDK/GD32VW55x_RELEASE_V1.0.2/MSDK/cloud/alicloud/src/services/linkkit/dm\dm_message.c ****     /* Message ID */
 702:C:/Users/stapi/OneDrive/Desktop/GD32VW553/V1_MQTT_OK/GD32VW55X_Wifi_BLE_SDK/GD32VW55x_RELEASE_V1.0.2/MSDK/cloud/alicloud/src/services/linkkit/dm\dm_message.c ****     if (response->id.value_length > DM_UTILS_UINT32_STRLEN) {
 2515              		.loc 1 702 21 is_stmt 0
 2516 0008 1045     		lw	a2,8(a0)
 696:C:/Users/stapi/OneDrive/Desktop/GD32VW553/V1_MQTT_OK/GD32VW55X_Wifi_BLE_SDK/GD32VW55x_RELEASE_V1.0.2/MSDK/cloud/alicloud/src/services/linkkit/dm\dm_message.c ****     int res = 0, devid = 0, id = 0, message_len = 0;
 2517              		.loc 1 696 1
 2518 000a 4111     		addi	sp,sp,-16
 2519              		.cfi_def_cfa_offset 48
 699:C:/Users/stapi/OneDrive/Desktop/GD32VW553/V1_MQTT_OK/GD32VW55X_Wifi_BLE_SDK/GD32VW55x_RELEASE_V1.0.2/MSDK/cloud/alicloud/src/services/linkkit/dm\dm_message.c ****     char int_id[DM_UTILS_UINT32_STRLEN+1] = {0};
 2520              		.loc 1 699 10
 2521 000c 02C2     		sw	zero,4(sp)
 2522 000e 02C4     		sw	zero,8(sp)
 2523 0010 23160100 		sh	zero,12(sp)
 2524 0014 23070100 		sb	zero,14(sp)
 2525              		.loc 1 702 5 is_stmt 1
 2526              		.loc 1 702 8 is_stmt 0
 2527 0018 A947     		li	a5,10
 2528 001a 63D9C700 		ble	a2,a5,.L162
 2529              	.LVL310:
 2530              	.L170:
 703:C:/Users/stapi/OneDrive/Desktop/GD32VW553/V1_MQTT_OK/GD32VW55X_Wifi_BLE_SDK/GD32VW55x_RELEASE_V1.0.2/MSDK/cloud/alicloud/src/services/linkkit/dm\dm_message.c ****         return FAIL_RETURN;
 704:C:/Users/stapi/OneDrive/Desktop/GD32VW553/V1_MQTT_OK/GD32VW55X_Wifi_BLE_SDK/GD32VW55x_RELEASE_V1.0.2/MSDK/cloud/alicloud/src/services/linkkit/dm\dm_message.c ****     }
 705:C:/Users/stapi/OneDrive/Desktop/GD32VW553/V1_MQTT_OK/GD32VW55X_Wifi_BLE_SDK/GD32VW55x_RELEASE_V1.0.2/MSDK/cloud/alicloud/src/services/linkkit/dm\dm_message.c ****     memcpy(int_id, response->id.value, response->id.value_length);
 706:C:/Users/stapi/OneDrive/Desktop/GD32VW553/V1_MQTT_OK/GD32VW55X_Wifi_BLE_SDK/GD32VW55x_RELEASE_V1.0.2/MSDK/cloud/alicloud/src/services/linkkit/dm\dm_message.c ****     id = atoi(int_id);
 707:C:/Users/stapi/OneDrive/Desktop/GD32VW553/V1_MQTT_OK/GD32VW55X_Wifi_BLE_SDK/GD32VW55x_RELEASE_V1.0.2/MSDK/cloud/alicloud/src/services/linkkit/dm\dm_message.c **** 
 708:C:/Users/stapi/OneDrive/Desktop/GD32VW553/V1_MQTT_OK/GD32VW55X_Wifi_BLE_SDK/GD32VW55x_RELEASE_V1.0.2/MSDK/cloud/alicloud/src/services/linkkit/dm\dm_message.c ****     /* dm_log_debug("Current ID: %d", id); */
 709:C:/Users/stapi/OneDrive/Desktop/GD32VW553/V1_MQTT_OK/GD32VW55X_Wifi_BLE_SDK/GD32VW55x_RELEASE_V1.0.2/MSDK/cloud/alicloud/src/services/linkkit/dm\dm_message.c **** 
 710:C:/Users/stapi/OneDrive/Desktop/GD32VW553/V1_MQTT_OK/GD32VW55X_Wifi_BLE_SDK/GD32VW55x_RELEASE_V1.0.2/MSDK/cloud/alicloud/src/services/linkkit/dm\dm_message.c **** #if !defined(DM_MESSAGE_CACHE_DISABLED)
 711:C:/Users/stapi/OneDrive/Desktop/GD32VW553/V1_MQTT_OK/GD32VW55X_Wifi_BLE_SDK/GD32VW55x_RELEASE_V1.0.2/MSDK/cloud/alicloud/src/services/linkkit/dm\dm_message.c ****     dm_msg_cache_node_t *node = NULL;
 712:C:/Users/stapi/OneDrive/Desktop/GD32VW553/V1_MQTT_OK/GD32VW55X_Wifi_BLE_SDK/GD32VW55x_RELEASE_V1.0.2/MSDK/cloud/alicloud/src/services/linkkit/dm\dm_message.c ****     res = dm_msg_cache_search(id, &node);
 713:C:/Users/stapi/OneDrive/Desktop/GD32VW553/V1_MQTT_OK/GD32VW55X_Wifi_BLE_SDK/GD32VW55x_RELEASE_V1.0.2/MSDK/cloud/alicloud/src/services/linkkit/dm\dm_message.c ****     if (res != SUCCESS_RETURN) {
 714:C:/Users/stapi/OneDrive/Desktop/GD32VW553/V1_MQTT_OK/GD32VW55X_Wifi_BLE_SDK/GD32VW55x_RELEASE_V1.0.2/MSDK/cloud/alicloud/src/services/linkkit/dm\dm_message.c ****         return FAIL_RETURN;
 715:C:/Users/stapi/OneDrive/Desktop/GD32VW553/V1_MQTT_OK/GD32VW55X_Wifi_BLE_SDK/GD32VW55x_RELEASE_V1.0.2/MSDK/cloud/alicloud/src/services/linkkit/dm\dm_message.c ****     }
 716:C:/Users/stapi/OneDrive/Desktop/GD32VW553/V1_MQTT_OK/GD32VW55X_Wifi_BLE_SDK/GD32VW55x_RELEASE_V1.0.2/MSDK/cloud/alicloud/src/services/linkkit/dm\dm_message.c ****     devid = node->devid;
 717:C:/Users/stapi/OneDrive/Desktop/GD32VW553/V1_MQTT_OK/GD32VW55X_Wifi_BLE_SDK/GD32VW55x_RELEASE_V1.0.2/MSDK/cloud/alicloud/src/services/linkkit/dm\dm_message.c **** #endif
 718:C:/Users/stapi/OneDrive/Desktop/GD32VW553/V1_MQTT_OK/GD32VW55X_Wifi_BLE_SDK/GD32VW55x_RELEASE_V1.0.2/MSDK/cloud/alicloud/src/services/linkkit/dm\dm_message.c **** 
 719:C:/Users/stapi/OneDrive/Desktop/GD32VW553/V1_MQTT_OK/GD32VW55X_Wifi_BLE_SDK/GD32VW55x_RELEASE_V1.0.2/MSDK/cloud/alicloud/src/services/linkkit/dm\dm_message.c ****     message_len = strlen(DM_MSG_EVENT_DEVICEINFO_DELETE_REPLY_FMT) + DM_UTILS_UINT32_STRLEN * 3 + 1
 720:C:/Users/stapi/OneDrive/Desktop/GD32VW553/V1_MQTT_OK/GD32VW55X_Wifi_BLE_SDK/GD32VW55x_RELEASE_V1.0.2/MSDK/cloud/alicloud/src/services/linkkit/dm\dm_message.c ****     message = DM_malloc(message_len);
 721:C:/Users/stapi/OneDrive/Desktop/GD32VW553/V1_MQTT_OK/GD32VW55X_Wifi_BLE_SDK/GD32VW55x_RELEASE_V1.0.2/MSDK/cloud/alicloud/src/services/linkkit/dm\dm_message.c ****     if (message == NULL) {
 722:C:/Users/stapi/OneDrive/Desktop/GD32VW553/V1_MQTT_OK/GD32VW55X_Wifi_BLE_SDK/GD32VW55x_RELEASE_V1.0.2/MSDK/cloud/alicloud/src/services/linkkit/dm\dm_message.c ****         return DM_MEMORY_NOT_ENOUGH;
 723:C:/Users/stapi/OneDrive/Desktop/GD32VW553/V1_MQTT_OK/GD32VW55X_Wifi_BLE_SDK/GD32VW55x_RELEASE_V1.0.2/MSDK/cloud/alicloud/src/services/linkkit/dm\dm_message.c ****     }
 724:C:/Users/stapi/OneDrive/Desktop/GD32VW553/V1_MQTT_OK/GD32VW55X_Wifi_BLE_SDK/GD32VW55x_RELEASE_V1.0.2/MSDK/cloud/alicloud/src/services/linkkit/dm\dm_message.c ****     memset(message, 0, message_len);
 725:C:/Users/stapi/OneDrive/Desktop/GD32VW553/V1_MQTT_OK/GD32VW55X_Wifi_BLE_SDK/GD32VW55x_RELEASE_V1.0.2/MSDK/cloud/alicloud/src/services/linkkit/dm\dm_message.c ****     HAL_Snprintf(message, message_len, DM_MSG_EVENT_DEVICEINFO_DELETE_REPLY_FMT, id, response->code
 726:C:/Users/stapi/OneDrive/Desktop/GD32VW553/V1_MQTT_OK/GD32VW55X_Wifi_BLE_SDK/GD32VW55x_RELEASE_V1.0.2/MSDK/cloud/alicloud/src/services/linkkit/dm\dm_message.c **** 
 727:C:/Users/stapi/OneDrive/Desktop/GD32VW553/V1_MQTT_OK/GD32VW55X_Wifi_BLE_SDK/GD32VW55x_RELEASE_V1.0.2/MSDK/cloud/alicloud/src/services/linkkit/dm\dm_message.c ****     res = _dm_msg_send_to_user(IOTX_DM_EVENT_DEVICEINFO_DELETE_REPLY, message);
 728:C:/Users/stapi/OneDrive/Desktop/GD32VW553/V1_MQTT_OK/GD32VW55X_Wifi_BLE_SDK/GD32VW55x_RELEASE_V1.0.2/MSDK/cloud/alicloud/src/services/linkkit/dm\dm_message.c ****     if (res != SUCCESS_RETURN) {
 729:C:/Users/stapi/OneDrive/Desktop/GD32VW553/V1_MQTT_OK/GD32VW55X_Wifi_BLE_SDK/GD32VW55x_RELEASE_V1.0.2/MSDK/cloud/alicloud/src/services/linkkit/dm\dm_message.c ****         DM_free(message);
 2531              		.loc 1 729 9 is_stmt 1
 2532              		.loc 1 729 25
 730:C:/Users/stapi/OneDrive/Desktop/GD32VW553/V1_MQTT_OK/GD32VW55X_Wifi_BLE_SDK/GD32VW55x_RELEASE_V1.0.2/MSDK/cloud/alicloud/src/services/linkkit/dm\dm_message.c ****         return FAIL_RETURN;
 2533              		.loc 1 730 9
 2534              		.loc 1 730 16 is_stmt 0
 2535 001e 7D57     		li	a4,-1
 2536              	.LVL311:
 2537              	.L161:
 731:C:/Users/stapi/OneDrive/Desktop/GD32VW553/V1_MQTT_OK/GD32VW55X_Wifi_BLE_SDK/GD32VW55x_RELEASE_V1.0.2/MSDK/cloud/alicloud/src/services/linkkit/dm\dm_message.c ****     }
 732:C:/Users/stapi/OneDrive/Desktop/GD32VW553/V1_MQTT_OK/GD32VW55X_Wifi_BLE_SDK/GD32VW55x_RELEASE_V1.0.2/MSDK/cloud/alicloud/src/services/linkkit/dm\dm_message.c **** 
 733:C:/Users/stapi/OneDrive/Desktop/GD32VW553/V1_MQTT_OK/GD32VW55X_Wifi_BLE_SDK/GD32VW55x_RELEASE_V1.0.2/MSDK/cloud/alicloud/src/services/linkkit/dm\dm_message.c ****     return SUCCESS_RETURN;
 734:C:/Users/stapi/OneDrive/Desktop/GD32VW553/V1_MQTT_OK/GD32VW55X_Wifi_BLE_SDK/GD32VW55x_RELEASE_V1.0.2/MSDK/cloud/alicloud/src/services/linkkit/dm\dm_message.c **** }
 2538              		.loc 1 734 1
 2539 0020 3A85     		mv	a0,a4
 2540 0022 4101     		addi	sp,sp,16
 2541              		.cfi_remember_state
 2542              		.cfi_def_cfa_offset 0
 2543 0024 17030000 		tail	__riscv_restore_4
 2543      67000300 
 2544              		.cfi_restore 19
 2545              		.cfi_restore 18
 2546              		.cfi_restore 9
 2547              		.cfi_restore 8
 2548              		.cfi_restore 1
 2549              		.cfi_def_cfa_offset -32
 2550              	.LVL312:
 2551              	.L162:
 2552              		.cfi_restore_state
 705:C:/Users/stapi/OneDrive/Desktop/GD32VW553/V1_MQTT_OK/GD32VW55X_Wifi_BLE_SDK/GD32VW55x_RELEASE_V1.0.2/MSDK/cloud/alicloud/src/services/linkkit/dm\dm_message.c ****     id = atoi(int_id);
 2553              		.loc 1 705 5
 2554 002c 4C41     		lw	a1,4(a0)
 2555 002e AA84     		mv	s1,a0
 705:C:/Users/stapi/OneDrive/Desktop/GD32VW553/V1_MQTT_OK/GD32VW55X_Wifi_BLE_SDK/GD32VW55x_RELEASE_V1.0.2/MSDK/cloud/alicloud/src/services/linkkit/dm\dm_message.c ****     id = atoi(int_id);
 2556              		.loc 1 705 5 is_stmt 1
 2557 0030 4800     		addi	a0,sp,4
 2558              	.LVL313:
 2559 0032 97000000 		call	memcpy
 2559      E7800000 
 2560              	.LVL314:
 706:C:/Users/stapi/OneDrive/Desktop/GD32VW553/V1_MQTT_OK/GD32VW55X_Wifi_BLE_SDK/GD32VW55x_RELEASE_V1.0.2/MSDK/cloud/alicloud/src/services/linkkit/dm\dm_message.c **** 
 2561              		.loc 1 706 5
 706:C:/Users/stapi/OneDrive/Desktop/GD32VW553/V1_MQTT_OK/GD32VW55X_Wifi_BLE_SDK/GD32VW55x_RELEASE_V1.0.2/MSDK/cloud/alicloud/src/services/linkkit/dm\dm_message.c **** 
 2562              		.loc 1 706 10 is_stmt 0
 2563 003a 4800     		addi	a0,sp,4
 2564 003c 97000000 		call	atoi
 2564      E7800000 
 2565              	.LVL315:
 712:C:/Users/stapi/OneDrive/Desktop/GD32VW553/V1_MQTT_OK/GD32VW55X_Wifi_BLE_SDK/GD32VW55x_RELEASE_V1.0.2/MSDK/cloud/alicloud/src/services/linkkit/dm\dm_message.c ****     if (res != SUCCESS_RETURN) {
 2566              		.loc 1 712 11
 2567 0044 8A85     		mv	a1,sp
 706:C:/Users/stapi/OneDrive/Desktop/GD32VW553/V1_MQTT_OK/GD32VW55X_Wifi_BLE_SDK/GD32VW55x_RELEASE_V1.0.2/MSDK/cloud/alicloud/src/services/linkkit/dm\dm_message.c **** 
 2568              		.loc 1 706 10
 2569 0046 2A89     		mv	s2,a0
 2570              	.LVL316:
 711:C:/Users/stapi/OneDrive/Desktop/GD32VW553/V1_MQTT_OK/GD32VW55X_Wifi_BLE_SDK/GD32VW55x_RELEASE_V1.0.2/MSDK/cloud/alicloud/src/services/linkkit/dm\dm_message.c ****     res = dm_msg_cache_search(id, &node);
 2571              		.loc 1 711 5 is_stmt 1
 711:C:/Users/stapi/OneDrive/Desktop/GD32VW553/V1_MQTT_OK/GD32VW55X_Wifi_BLE_SDK/GD32VW55x_RELEASE_V1.0.2/MSDK/cloud/alicloud/src/services/linkkit/dm\dm_message.c ****     res = dm_msg_cache_search(id, &node);
 2572              		.loc 1 711 26 is_stmt 0
 2573 0048 02C0     		sw	zero,0(sp)
 712:C:/Users/stapi/OneDrive/Desktop/GD32VW553/V1_MQTT_OK/GD32VW55X_Wifi_BLE_SDK/GD32VW55x_RELEASE_V1.0.2/MSDK/cloud/alicloud/src/services/linkkit/dm\dm_message.c ****     if (res != SUCCESS_RETURN) {
 2574              		.loc 1 712 5 is_stmt 1
 712:C:/Users/stapi/OneDrive/Desktop/GD32VW553/V1_MQTT_OK/GD32VW55X_Wifi_BLE_SDK/GD32VW55x_RELEASE_V1.0.2/MSDK/cloud/alicloud/src/services/linkkit/dm\dm_message.c ****     if (res != SUCCESS_RETURN) {
 2575              		.loc 1 712 11 is_stmt 0
 2576 004a 97000000 		call	dm_msg_cache_search
 2576      E7800000 
 2577              	.LVL317:
 713:C:/Users/stapi/OneDrive/Desktop/GD32VW553/V1_MQTT_OK/GD32VW55X_Wifi_BLE_SDK/GD32VW55x_RELEASE_V1.0.2/MSDK/cloud/alicloud/src/services/linkkit/dm\dm_message.c ****         return FAIL_RETURN;
 2578              		.loc 1 713 5 is_stmt 1
 713:C:/Users/stapi/OneDrive/Desktop/GD32VW553/V1_MQTT_OK/GD32VW55X_Wifi_BLE_SDK/GD32VW55x_RELEASE_V1.0.2/MSDK/cloud/alicloud/src/services/linkkit/dm\dm_message.c ****         return FAIL_RETURN;
 2579              		.loc 1 713 8 is_stmt 0
 2580 0052 71F5     		bne	a0,zero,.L170
 716:C:/Users/stapi/OneDrive/Desktop/GD32VW553/V1_MQTT_OK/GD32VW55X_Wifi_BLE_SDK/GD32VW55x_RELEASE_V1.0.2/MSDK/cloud/alicloud/src/services/linkkit/dm\dm_message.c **** #endif
 2581              		.loc 1 716 5 is_stmt 1
 716:C:/Users/stapi/OneDrive/Desktop/GD32VW553/V1_MQTT_OK/GD32VW55X_Wifi_BLE_SDK/GD32VW55x_RELEASE_V1.0.2/MSDK/cloud/alicloud/src/services/linkkit/dm\dm_message.c **** #endif
 2582              		.loc 1 716 11 is_stmt 0
 2583 0054 8247     		lw	a5,0(sp)
 720:C:/Users/stapi/OneDrive/Desktop/GD32VW553/V1_MQTT_OK/GD32VW55X_Wifi_BLE_SDK/GD32VW55x_RELEASE_V1.0.2/MSDK/cloud/alicloud/src/services/linkkit/dm\dm_message.c ****     if (message == NULL) {
 2584              		.loc 1 720 15
 2585 0056 1306D003 		li	a2,61
 2586 005a 8145     		li	a1,0
 716:C:/Users/stapi/OneDrive/Desktop/GD32VW553/V1_MQTT_OK/GD32VW55X_Wifi_BLE_SDK/GD32VW55x_RELEASE_V1.0.2/MSDK/cloud/alicloud/src/services/linkkit/dm\dm_message.c **** #endif
 2587              		.loc 1 716 11
 2588 005c 83A94700 		lw	s3,4(a5)
 2589              	.LVL318:
 719:C:/Users/stapi/OneDrive/Desktop/GD32VW553/V1_MQTT_OK/GD32VW55X_Wifi_BLE_SDK/GD32VW55x_RELEASE_V1.0.2/MSDK/cloud/alicloud/src/services/linkkit/dm\dm_message.c ****     message = DM_malloc(message_len);
 2590              		.loc 1 719 5 is_stmt 1
 720:C:/Users/stapi/OneDrive/Desktop/GD32VW553/V1_MQTT_OK/GD32VW55X_Wifi_BLE_SDK/GD32VW55x_RELEASE_V1.0.2/MSDK/cloud/alicloud/src/services/linkkit/dm\dm_message.c ****     if (message == NULL) {
 2591              		.loc 1 720 5
 720:C:/Users/stapi/OneDrive/Desktop/GD32VW553/V1_MQTT_OK/GD32VW55X_Wifi_BLE_SDK/GD32VW55x_RELEASE_V1.0.2/MSDK/cloud/alicloud/src/services/linkkit/dm\dm_message.c ****     if (message == NULL) {
 2592              		.loc 1 720 15 is_stmt 0
 2593 0060 97000000 		call	LITE_malloc_internal
 2593      E7800000 
 2594              	.LVL319:
 2595 0068 2A84     		mv	s0,a0
 2596              	.LVL320:
 721:C:/Users/stapi/OneDrive/Desktop/GD32VW553/V1_MQTT_OK/GD32VW55X_Wifi_BLE_SDK/GD32VW55x_RELEASE_V1.0.2/MSDK/cloud/alicloud/src/services/linkkit/dm\dm_message.c ****         return DM_MEMORY_NOT_ENOUGH;
 2597              		.loc 1 721 5 is_stmt 1
 722:C:/Users/stapi/OneDrive/Desktop/GD32VW553/V1_MQTT_OK/GD32VW55X_Wifi_BLE_SDK/GD32VW55x_RELEASE_V1.0.2/MSDK/cloud/alicloud/src/services/linkkit/dm\dm_message.c ****     }
 2598              		.loc 1 722 16 is_stmt 0
 2599 006a 7557     		li	a4,-3
 721:C:/Users/stapi/OneDrive/Desktop/GD32VW553/V1_MQTT_OK/GD32VW55X_Wifi_BLE_SDK/GD32VW55x_RELEASE_V1.0.2/MSDK/cloud/alicloud/src/services/linkkit/dm\dm_message.c ****         return DM_MEMORY_NOT_ENOUGH;
 2600              		.loc 1 721 8
 2601 006c 55D9     		beq	a0,zero,.L161
 724:C:/Users/stapi/OneDrive/Desktop/GD32VW553/V1_MQTT_OK/GD32VW55X_Wifi_BLE_SDK/GD32VW55x_RELEASE_V1.0.2/MSDK/cloud/alicloud/src/services/linkkit/dm\dm_message.c ****     HAL_Snprintf(message, message_len, DM_MSG_EVENT_DEVICEINFO_DELETE_REPLY_FMT, id, response->code
 2602              		.loc 1 724 5 is_stmt 1
 2603 006e 1306D003 		li	a2,61
 2604 0072 8145     		li	a1,0
 2605 0074 97000000 		call	memset
 2605      E7800000 
 2606              	.LVL321:
 725:C:/Users/stapi/OneDrive/Desktop/GD32VW553/V1_MQTT_OK/GD32VW55X_Wifi_BLE_SDK/GD32VW55x_RELEASE_V1.0.2/MSDK/cloud/alicloud/src/services/linkkit/dm\dm_message.c **** 
 2607              		.loc 1 725 5
 2608 007c 985C     		lw	a4,56(s1)
 2609 007e 37060000 		lui	a2,%hi(.LANCHOR13)
 2610 0082 CE87     		mv	a5,s3
 2611 0084 CA86     		mv	a3,s2
 2612 0086 13060600 		addi	a2,a2,%lo(.LANCHOR13)
 2613 008a 9305D003 		li	a1,61
 2614 008e 2285     		mv	a0,s0
 2615 0090 97000000 		call	HAL_Snprintf
 2615      E7800000 
 2616              	.LVL322:
 727:C:/Users/stapi/OneDrive/Desktop/GD32VW553/V1_MQTT_OK/GD32VW55X_Wifi_BLE_SDK/GD32VW55x_RELEASE_V1.0.2/MSDK/cloud/alicloud/src/services/linkkit/dm\dm_message.c ****     if (res != SUCCESS_RETURN) {
 2617              		.loc 1 727 5
 727:C:/Users/stapi/OneDrive/Desktop/GD32VW553/V1_MQTT_OK/GD32VW55X_Wifi_BLE_SDK/GD32VW55x_RELEASE_V1.0.2/MSDK/cloud/alicloud/src/services/linkkit/dm\dm_message.c ****     if (res != SUCCESS_RETURN) {
 2618              		.loc 1 727 11 is_stmt 0
 2619 0098 A285     		mv	a1,s0
 2620 009a 13053002 		li	a0,35
 2621 009e 97000000 		call	_dm_msg_send_to_user
 2621      E7800000 
 2622              	.LVL323:
 2623 00a6 2A87     		mv	a4,a0
 2624              	.LVL324:
 728:C:/Users/stapi/OneDrive/Desktop/GD32VW553/V1_MQTT_OK/GD32VW55X_Wifi_BLE_SDK/GD32VW55x_RELEASE_V1.0.2/MSDK/cloud/alicloud/src/services/linkkit/dm\dm_message.c ****         DM_free(message);
 2625              		.loc 1 728 5 is_stmt 1
 728:C:/Users/stapi/OneDrive/Desktop/GD32VW553/V1_MQTT_OK/GD32VW55X_Wifi_BLE_SDK/GD32VW55x_RELEASE_V1.0.2/MSDK/cloud/alicloud/src/services/linkkit/dm\dm_message.c ****         DM_free(message);
 2626              		.loc 1 728 8 is_stmt 0
 2627 00a8 25DD     		beq	a0,zero,.L161
 729:C:/Users/stapi/OneDrive/Desktop/GD32VW553/V1_MQTT_OK/GD32VW55X_Wifi_BLE_SDK/GD32VW55x_RELEASE_V1.0.2/MSDK/cloud/alicloud/src/services/linkkit/dm\dm_message.c ****         return FAIL_RETURN;
 2628              		.loc 1 729 9 is_stmt 1
 2629 00aa 2285     		mv	a0,s0
 2630              	.LVL325:
 2631 00ac 97000000 		call	LITE_free_internal
 2631      E7800000 
 2632              	.LVL326:
 2633 00b4 ADB7     		j	.L170
 2634              		.cfi_endproc
 2635              	.LFE37:
 2637              		.section	.text.dm_msg_thing_event_post_reply,"ax",@progbits
 2638              		.align	1
 2639              		.globl	dm_msg_thing_event_post_reply
 2641              	dm_msg_thing_event_post_reply:
 2642              	.LFB38:
 735:C:/Users/stapi/OneDrive/Desktop/GD32VW553/V1_MQTT_OK/GD32VW55X_Wifi_BLE_SDK/GD32VW55x_RELEASE_V1.0.2/MSDK/cloud/alicloud/src/services/linkkit/dm\dm_message.c **** 
 736:C:/Users/stapi/OneDrive/Desktop/GD32VW553/V1_MQTT_OK/GD32VW55X_Wifi_BLE_SDK/GD32VW55x_RELEASE_V1.0.2/MSDK/cloud/alicloud/src/services/linkkit/dm\dm_message.c **** const char DM_MSG_EVENT_SPECIFIC_POST_REPLY_FMT[] DM_READ_ONLY =
 737:C:/Users/stapi/OneDrive/Desktop/GD32VW553/V1_MQTT_OK/GD32VW55X_Wifi_BLE_SDK/GD32VW55x_RELEASE_V1.0.2/MSDK/cloud/alicloud/src/services/linkkit/dm\dm_message.c ****             "{\"id\":%d,\"code\":%d,\"devid\":%d,\"eventid\":\"%.*s\",\"payload\":\"%.*s\"}";
 738:C:/Users/stapi/OneDrive/Desktop/GD32VW553/V1_MQTT_OK/GD32VW55X_Wifi_BLE_SDK/GD32VW55x_RELEASE_V1.0.2/MSDK/cloud/alicloud/src/services/linkkit/dm\dm_message.c **** int dm_msg_thing_event_post_reply(_IN_ char *identifier, _IN_ int identifier_len,
 739:C:/Users/stapi/OneDrive/Desktop/GD32VW553/V1_MQTT_OK/GD32VW55X_Wifi_BLE_SDK/GD32VW55x_RELEASE_V1.0.2/MSDK/cloud/alicloud/src/services/linkkit/dm\dm_message.c ****                                   _IN_ dm_msg_response_payload_t *response)
 740:C:/Users/stapi/OneDrive/Desktop/GD32VW553/V1_MQTT_OK/GD32VW55X_Wifi_BLE_SDK/GD32VW55x_RELEASE_V1.0.2/MSDK/cloud/alicloud/src/services/linkkit/dm\dm_message.c **** {
 2643              		.loc 1 740 1
 2644              		.cfi_startproc
 2645              	.LVL327:
 2646 0000 17030000 		call	t0,__riscv_save_7
 2646      E7020300 
 2647              		.cfi_offset 22, -32
 2648              		.cfi_offset 21, -28
 2649              		.cfi_offset 20, -24
 2650              		.cfi_offset 19, -20
 2651              		.cfi_offset 18, -16
 2652              		.cfi_offset 9, -12
 2653              		.cfi_offset 8, -8
 2654              		.cfi_offset 1, -4
 2655              		.cfi_def_cfa_offset 32
 741:C:/Users/stapi/OneDrive/Desktop/GD32VW553/V1_MQTT_OK/GD32VW55X_Wifi_BLE_SDK/GD32VW55x_RELEASE_V1.0.2/MSDK/cloud/alicloud/src/services/linkkit/dm\dm_message.c ****     int res = 0, devid = 0, id = 0, message_len = 0;
 2656              		.loc 1 741 5
 2657              	.LVL328:
 742:C:/Users/stapi/OneDrive/Desktop/GD32VW553/V1_MQTT_OK/GD32VW55X_Wifi_BLE_SDK/GD32VW55x_RELEASE_V1.0.2/MSDK/cloud/alicloud/src/services/linkkit/dm\dm_message.c ****     char *message = NULL;
 2658              		.loc 1 742 5
 743:C:/Users/stapi/OneDrive/Desktop/GD32VW553/V1_MQTT_OK/GD32VW55X_Wifi_BLE_SDK/GD32VW55x_RELEASE_V1.0.2/MSDK/cloud/alicloud/src/services/linkkit/dm\dm_message.c ****     char int_id[DM_UTILS_UINT32_STRLEN+1] = {0};
 2659              		.loc 1 743 5
 740:C:/Users/stapi/OneDrive/Desktop/GD32VW553/V1_MQTT_OK/GD32VW55X_Wifi_BLE_SDK/GD32VW55x_RELEASE_V1.0.2/MSDK/cloud/alicloud/src/services/linkkit/dm\dm_message.c ****     int res = 0, devid = 0, id = 0, message_len = 0;
 2660              		.loc 1 740 1 is_stmt 0
 2661 0008 3284     		mv	s0,a2
 744:C:/Users/stapi/OneDrive/Desktop/GD32VW553/V1_MQTT_OK/GD32VW55X_Wifi_BLE_SDK/GD32VW55x_RELEASE_V1.0.2/MSDK/cloud/alicloud/src/services/linkkit/dm\dm_message.c **** 
 745:C:/Users/stapi/OneDrive/Desktop/GD32VW553/V1_MQTT_OK/GD32VW55X_Wifi_BLE_SDK/GD32VW55x_RELEASE_V1.0.2/MSDK/cloud/alicloud/src/services/linkkit/dm\dm_message.c ****     /* Message ID */
 746:C:/Users/stapi/OneDrive/Desktop/GD32VW553/V1_MQTT_OK/GD32VW55X_Wifi_BLE_SDK/GD32VW55x_RELEASE_V1.0.2/MSDK/cloud/alicloud/src/services/linkkit/dm\dm_message.c ****     if (response->id.value_length > DM_UTILS_UINT32_STRLEN) {
 2662              		.loc 1 746 21
 2663 000a 1046     		lw	a2,8(a2)
 2664              	.LVL329:
 740:C:/Users/stapi/OneDrive/Desktop/GD32VW553/V1_MQTT_OK/GD32VW55X_Wifi_BLE_SDK/GD32VW55x_RELEASE_V1.0.2/MSDK/cloud/alicloud/src/services/linkkit/dm\dm_message.c ****     int res = 0, devid = 0, id = 0, message_len = 0;
 2665              		.loc 1 740 1
 2666 000c 0111     		addi	sp,sp,-32
 2667              		.cfi_def_cfa_offset 64
 743:C:/Users/stapi/OneDrive/Desktop/GD32VW553/V1_MQTT_OK/GD32VW55X_Wifi_BLE_SDK/GD32VW55x_RELEASE_V1.0.2/MSDK/cloud/alicloud/src/services/linkkit/dm\dm_message.c **** 
 2668              		.loc 1 743 10
 2669 000e 02CA     		sw	zero,20(sp)
 2670 0010 02CC     		sw	zero,24(sp)
 2671 0012 231E0100 		sh	zero,28(sp)
 2672 0016 230F0100 		sb	zero,30(sp)
 2673              		.loc 1 746 5 is_stmt 1
 2674              		.loc 1 746 8 is_stmt 0
 2675 001a A947     		li	a5,10
 2676 001c 63D9C700 		ble	a2,a5,.L172
 2677              	.LVL330:
 2678              	.L180:
 747:C:/Users/stapi/OneDrive/Desktop/GD32VW553/V1_MQTT_OK/GD32VW55X_Wifi_BLE_SDK/GD32VW55x_RELEASE_V1.0.2/MSDK/cloud/alicloud/src/services/linkkit/dm\dm_message.c ****         return FAIL_RETURN;
 748:C:/Users/stapi/OneDrive/Desktop/GD32VW553/V1_MQTT_OK/GD32VW55X_Wifi_BLE_SDK/GD32VW55x_RELEASE_V1.0.2/MSDK/cloud/alicloud/src/services/linkkit/dm\dm_message.c ****     }
 749:C:/Users/stapi/OneDrive/Desktop/GD32VW553/V1_MQTT_OK/GD32VW55X_Wifi_BLE_SDK/GD32VW55x_RELEASE_V1.0.2/MSDK/cloud/alicloud/src/services/linkkit/dm\dm_message.c ****     memcpy(int_id, response->id.value, response->id.value_length);
 750:C:/Users/stapi/OneDrive/Desktop/GD32VW553/V1_MQTT_OK/GD32VW55X_Wifi_BLE_SDK/GD32VW55x_RELEASE_V1.0.2/MSDK/cloud/alicloud/src/services/linkkit/dm\dm_message.c ****     id = atoi(int_id);
 751:C:/Users/stapi/OneDrive/Desktop/GD32VW553/V1_MQTT_OK/GD32VW55X_Wifi_BLE_SDK/GD32VW55x_RELEASE_V1.0.2/MSDK/cloud/alicloud/src/services/linkkit/dm\dm_message.c **** 
 752:C:/Users/stapi/OneDrive/Desktop/GD32VW553/V1_MQTT_OK/GD32VW55X_Wifi_BLE_SDK/GD32VW55x_RELEASE_V1.0.2/MSDK/cloud/alicloud/src/services/linkkit/dm\dm_message.c ****     /* dm_log_debug("Current ID: %d", id); */
 753:C:/Users/stapi/OneDrive/Desktop/GD32VW553/V1_MQTT_OK/GD32VW55X_Wifi_BLE_SDK/GD32VW55x_RELEASE_V1.0.2/MSDK/cloud/alicloud/src/services/linkkit/dm\dm_message.c **** 
 754:C:/Users/stapi/OneDrive/Desktop/GD32VW553/V1_MQTT_OK/GD32VW55X_Wifi_BLE_SDK/GD32VW55x_RELEASE_V1.0.2/MSDK/cloud/alicloud/src/services/linkkit/dm\dm_message.c **** #if !defined(DM_MESSAGE_CACHE_DISABLED)
 755:C:/Users/stapi/OneDrive/Desktop/GD32VW553/V1_MQTT_OK/GD32VW55X_Wifi_BLE_SDK/GD32VW55x_RELEASE_V1.0.2/MSDK/cloud/alicloud/src/services/linkkit/dm\dm_message.c ****     dm_msg_cache_node_t *node = NULL;
 756:C:/Users/stapi/OneDrive/Desktop/GD32VW553/V1_MQTT_OK/GD32VW55X_Wifi_BLE_SDK/GD32VW55x_RELEASE_V1.0.2/MSDK/cloud/alicloud/src/services/linkkit/dm\dm_message.c ****     res = dm_msg_cache_search(id, &node);
 757:C:/Users/stapi/OneDrive/Desktop/GD32VW553/V1_MQTT_OK/GD32VW55X_Wifi_BLE_SDK/GD32VW55x_RELEASE_V1.0.2/MSDK/cloud/alicloud/src/services/linkkit/dm\dm_message.c ****     if (res != SUCCESS_RETURN) {
 758:C:/Users/stapi/OneDrive/Desktop/GD32VW553/V1_MQTT_OK/GD32VW55X_Wifi_BLE_SDK/GD32VW55x_RELEASE_V1.0.2/MSDK/cloud/alicloud/src/services/linkkit/dm\dm_message.c ****         return FAIL_RETURN;
 759:C:/Users/stapi/OneDrive/Desktop/GD32VW553/V1_MQTT_OK/GD32VW55X_Wifi_BLE_SDK/GD32VW55x_RELEASE_V1.0.2/MSDK/cloud/alicloud/src/services/linkkit/dm\dm_message.c ****     }
 760:C:/Users/stapi/OneDrive/Desktop/GD32VW553/V1_MQTT_OK/GD32VW55X_Wifi_BLE_SDK/GD32VW55x_RELEASE_V1.0.2/MSDK/cloud/alicloud/src/services/linkkit/dm\dm_message.c ****     devid = node->devid;
 761:C:/Users/stapi/OneDrive/Desktop/GD32VW553/V1_MQTT_OK/GD32VW55X_Wifi_BLE_SDK/GD32VW55x_RELEASE_V1.0.2/MSDK/cloud/alicloud/src/services/linkkit/dm\dm_message.c **** #endif
 762:C:/Users/stapi/OneDrive/Desktop/GD32VW553/V1_MQTT_OK/GD32VW55X_Wifi_BLE_SDK/GD32VW55x_RELEASE_V1.0.2/MSDK/cloud/alicloud/src/services/linkkit/dm\dm_message.c **** 
 763:C:/Users/stapi/OneDrive/Desktop/GD32VW553/V1_MQTT_OK/GD32VW55X_Wifi_BLE_SDK/GD32VW55x_RELEASE_V1.0.2/MSDK/cloud/alicloud/src/services/linkkit/dm\dm_message.c ****     message_len = strlen(DM_MSG_EVENT_SPECIFIC_POST_REPLY_FMT) + DM_UTILS_UINT32_STRLEN * 3 + strle
 764:C:/Users/stapi/OneDrive/Desktop/GD32VW553/V1_MQTT_OK/GD32VW55X_Wifi_BLE_SDK/GD32VW55x_RELEASE_V1.0.2/MSDK/cloud/alicloud/src/services/linkkit/dm\dm_message.c ****                               identifier) + response->message.value_length + 1;
 765:C:/Users/stapi/OneDrive/Desktop/GD32VW553/V1_MQTT_OK/GD32VW55X_Wifi_BLE_SDK/GD32VW55x_RELEASE_V1.0.2/MSDK/cloud/alicloud/src/services/linkkit/dm\dm_message.c ****     message = DM_malloc(message_len);
 766:C:/Users/stapi/OneDrive/Desktop/GD32VW553/V1_MQTT_OK/GD32VW55X_Wifi_BLE_SDK/GD32VW55x_RELEASE_V1.0.2/MSDK/cloud/alicloud/src/services/linkkit/dm\dm_message.c ****     if (message == NULL) {
 767:C:/Users/stapi/OneDrive/Desktop/GD32VW553/V1_MQTT_OK/GD32VW55X_Wifi_BLE_SDK/GD32VW55x_RELEASE_V1.0.2/MSDK/cloud/alicloud/src/services/linkkit/dm\dm_message.c ****         return DM_MEMORY_NOT_ENOUGH;
 768:C:/Users/stapi/OneDrive/Desktop/GD32VW553/V1_MQTT_OK/GD32VW55X_Wifi_BLE_SDK/GD32VW55x_RELEASE_V1.0.2/MSDK/cloud/alicloud/src/services/linkkit/dm\dm_message.c ****     }
 769:C:/Users/stapi/OneDrive/Desktop/GD32VW553/V1_MQTT_OK/GD32VW55X_Wifi_BLE_SDK/GD32VW55x_RELEASE_V1.0.2/MSDK/cloud/alicloud/src/services/linkkit/dm\dm_message.c ****     memset(message, 0, message_len);
 770:C:/Users/stapi/OneDrive/Desktop/GD32VW553/V1_MQTT_OK/GD32VW55X_Wifi_BLE_SDK/GD32VW55x_RELEASE_V1.0.2/MSDK/cloud/alicloud/src/services/linkkit/dm\dm_message.c ****     HAL_Snprintf(message, message_len, DM_MSG_EVENT_SPECIFIC_POST_REPLY_FMT, id, response->code.val
 771:C:/Users/stapi/OneDrive/Desktop/GD32VW553/V1_MQTT_OK/GD32VW55X_Wifi_BLE_SDK/GD32VW55x_RELEASE_V1.0.2/MSDK/cloud/alicloud/src/services/linkkit/dm\dm_message.c ****                  identifier_len, identifier, response->message.value_length, response->message.valu
 772:C:/Users/stapi/OneDrive/Desktop/GD32VW553/V1_MQTT_OK/GD32VW55X_Wifi_BLE_SDK/GD32VW55x_RELEASE_V1.0.2/MSDK/cloud/alicloud/src/services/linkkit/dm\dm_message.c **** 
 773:C:/Users/stapi/OneDrive/Desktop/GD32VW553/V1_MQTT_OK/GD32VW55X_Wifi_BLE_SDK/GD32VW55x_RELEASE_V1.0.2/MSDK/cloud/alicloud/src/services/linkkit/dm\dm_message.c ****     res = _dm_msg_send_to_user(IOTX_DM_EVENT_EVENT_SPECIFIC_POST_REPLY, message);
 774:C:/Users/stapi/OneDrive/Desktop/GD32VW553/V1_MQTT_OK/GD32VW55X_Wifi_BLE_SDK/GD32VW55x_RELEASE_V1.0.2/MSDK/cloud/alicloud/src/services/linkkit/dm\dm_message.c ****     if (res != SUCCESS_RETURN) {
 775:C:/Users/stapi/OneDrive/Desktop/GD32VW553/V1_MQTT_OK/GD32VW55X_Wifi_BLE_SDK/GD32VW55x_RELEASE_V1.0.2/MSDK/cloud/alicloud/src/services/linkkit/dm\dm_message.c ****         DM_free(message);
 2679              		.loc 1 775 9 is_stmt 1
 2680              		.loc 1 775 25
 776:C:/Users/stapi/OneDrive/Desktop/GD32VW553/V1_MQTT_OK/GD32VW55X_Wifi_BLE_SDK/GD32VW55x_RELEASE_V1.0.2/MSDK/cloud/alicloud/src/services/linkkit/dm\dm_message.c ****         return FAIL_RETURN;
 2681              		.loc 1 776 9
 2682              		.loc 1 776 16 is_stmt 0
 2683 0020 7D57     		li	a4,-1
 2684              	.LVL331:
 2685              	.L171:
 777:C:/Users/stapi/OneDrive/Desktop/GD32VW553/V1_MQTT_OK/GD32VW55X_Wifi_BLE_SDK/GD32VW55x_RELEASE_V1.0.2/MSDK/cloud/alicloud/src/services/linkkit/dm\dm_message.c ****     }
 778:C:/Users/stapi/OneDrive/Desktop/GD32VW553/V1_MQTT_OK/GD32VW55X_Wifi_BLE_SDK/GD32VW55x_RELEASE_V1.0.2/MSDK/cloud/alicloud/src/services/linkkit/dm\dm_message.c **** 
 779:C:/Users/stapi/OneDrive/Desktop/GD32VW553/V1_MQTT_OK/GD32VW55X_Wifi_BLE_SDK/GD32VW55x_RELEASE_V1.0.2/MSDK/cloud/alicloud/src/services/linkkit/dm\dm_message.c ****     return SUCCESS_RETURN;
 780:C:/Users/stapi/OneDrive/Desktop/GD32VW553/V1_MQTT_OK/GD32VW55X_Wifi_BLE_SDK/GD32VW55x_RELEASE_V1.0.2/MSDK/cloud/alicloud/src/services/linkkit/dm\dm_message.c **** }
 2686              		.loc 1 780 1
 2687 0022 3A85     		mv	a0,a4
 2688 0024 0561     		addi	sp,sp,32
 2689              		.cfi_remember_state
 2690              		.cfi_def_cfa_offset 0
 2691 0026 17030000 		tail	__riscv_restore_7
 2691      67000300 
 2692              		.cfi_restore 22
 2693              		.cfi_restore 21
 2694              		.cfi_restore 20
 2695              		.cfi_restore 19
 2696              		.cfi_restore 18
 2697              		.cfi_restore 9
 2698              		.cfi_restore 8
 2699              		.cfi_restore 1
 2700              		.cfi_def_cfa_offset -32
 2701              	.LVL332:
 2702              	.L172:
 2703              		.cfi_restore_state
 2704 002e AE8A     		mv	s5,a1
 749:C:/Users/stapi/OneDrive/Desktop/GD32VW553/V1_MQTT_OK/GD32VW55X_Wifi_BLE_SDK/GD32VW55x_RELEASE_V1.0.2/MSDK/cloud/alicloud/src/services/linkkit/dm\dm_message.c ****     id = atoi(int_id);
 2705              		.loc 1 749 5 is_stmt 1
 2706 0030 4C40     		lw	a1,4(s0)
 2707              	.LVL333:
 2708 0032 AA89     		mv	s3,a0
 2709 0034 4808     		addi	a0,sp,20
 2710              	.LVL334:
 2711 0036 97000000 		call	memcpy
 2711      E7800000 
 2712              	.LVL335:
 750:C:/Users/stapi/OneDrive/Desktop/GD32VW553/V1_MQTT_OK/GD32VW55X_Wifi_BLE_SDK/GD32VW55x_RELEASE_V1.0.2/MSDK/cloud/alicloud/src/services/linkkit/dm\dm_message.c **** 
 2713              		.loc 1 750 5
 750:C:/Users/stapi/OneDrive/Desktop/GD32VW553/V1_MQTT_OK/GD32VW55X_Wifi_BLE_SDK/GD32VW55x_RELEASE_V1.0.2/MSDK/cloud/alicloud/src/services/linkkit/dm\dm_message.c **** 
 2714              		.loc 1 750 10 is_stmt 0
 2715 003e 4808     		addi	a0,sp,20
 2716 0040 97000000 		call	atoi
 2716      E7800000 
 2717              	.LVL336:
 756:C:/Users/stapi/OneDrive/Desktop/GD32VW553/V1_MQTT_OK/GD32VW55X_Wifi_BLE_SDK/GD32VW55x_RELEASE_V1.0.2/MSDK/cloud/alicloud/src/services/linkkit/dm\dm_message.c ****     if (res != SUCCESS_RETURN) {
 2718              		.loc 1 756 11
 2719 0048 0C08     		addi	a1,sp,16
 750:C:/Users/stapi/OneDrive/Desktop/GD32VW553/V1_MQTT_OK/GD32VW55X_Wifi_BLE_SDK/GD32VW55x_RELEASE_V1.0.2/MSDK/cloud/alicloud/src/services/linkkit/dm\dm_message.c **** 
 2720              		.loc 1 750 10
 2721 004a 2A8A     		mv	s4,a0
 2722              	.LVL337:
 755:C:/Users/stapi/OneDrive/Desktop/GD32VW553/V1_MQTT_OK/GD32VW55X_Wifi_BLE_SDK/GD32VW55x_RELEASE_V1.0.2/MSDK/cloud/alicloud/src/services/linkkit/dm\dm_message.c ****     res = dm_msg_cache_search(id, &node);
 2723              		.loc 1 755 5 is_stmt 1
 755:C:/Users/stapi/OneDrive/Desktop/GD32VW553/V1_MQTT_OK/GD32VW55X_Wifi_BLE_SDK/GD32VW55x_RELEASE_V1.0.2/MSDK/cloud/alicloud/src/services/linkkit/dm\dm_message.c ****     res = dm_msg_cache_search(id, &node);
 2724              		.loc 1 755 26 is_stmt 0
 2725 004c 02C8     		sw	zero,16(sp)
 756:C:/Users/stapi/OneDrive/Desktop/GD32VW553/V1_MQTT_OK/GD32VW55X_Wifi_BLE_SDK/GD32VW55x_RELEASE_V1.0.2/MSDK/cloud/alicloud/src/services/linkkit/dm\dm_message.c ****     if (res != SUCCESS_RETURN) {
 2726              		.loc 1 756 5 is_stmt 1
 756:C:/Users/stapi/OneDrive/Desktop/GD32VW553/V1_MQTT_OK/GD32VW55X_Wifi_BLE_SDK/GD32VW55x_RELEASE_V1.0.2/MSDK/cloud/alicloud/src/services/linkkit/dm\dm_message.c ****     if (res != SUCCESS_RETURN) {
 2727              		.loc 1 756 11 is_stmt 0
 2728 004e 97000000 		call	dm_msg_cache_search
 2728      E7800000 
 2729              	.LVL338:
 757:C:/Users/stapi/OneDrive/Desktop/GD32VW553/V1_MQTT_OK/GD32VW55X_Wifi_BLE_SDK/GD32VW55x_RELEASE_V1.0.2/MSDK/cloud/alicloud/src/services/linkkit/dm\dm_message.c ****         return FAIL_RETURN;
 2730              		.loc 1 757 5 is_stmt 1
 757:C:/Users/stapi/OneDrive/Desktop/GD32VW553/V1_MQTT_OK/GD32VW55X_Wifi_BLE_SDK/GD32VW55x_RELEASE_V1.0.2/MSDK/cloud/alicloud/src/services/linkkit/dm\dm_message.c ****         return FAIL_RETURN;
 2731              		.loc 1 757 8 is_stmt 0
 2732 0056 69F5     		bne	a0,zero,.L180
 760:C:/Users/stapi/OneDrive/Desktop/GD32VW553/V1_MQTT_OK/GD32VW55X_Wifi_BLE_SDK/GD32VW55x_RELEASE_V1.0.2/MSDK/cloud/alicloud/src/services/linkkit/dm\dm_message.c **** #endif
 2733              		.loc 1 760 5 is_stmt 1
 760:C:/Users/stapi/OneDrive/Desktop/GD32VW553/V1_MQTT_OK/GD32VW55X_Wifi_BLE_SDK/GD32VW55x_RELEASE_V1.0.2/MSDK/cloud/alicloud/src/services/linkkit/dm\dm_message.c **** #endif
 2734              		.loc 1 760 11 is_stmt 0
 2735 0058 C247     		lw	a5,16(sp)
 763:C:/Users/stapi/OneDrive/Desktop/GD32VW553/V1_MQTT_OK/GD32VW55X_Wifi_BLE_SDK/GD32VW55x_RELEASE_V1.0.2/MSDK/cloud/alicloud/src/services/linkkit/dm\dm_message.c ****                               identifier) + response->message.value_length + 1;
 2736              		.loc 1 763 95
 2737 005a 4E85     		mv	a0,s3
 2738              	.LVL339:
 760:C:/Users/stapi/OneDrive/Desktop/GD32VW553/V1_MQTT_OK/GD32VW55X_Wifi_BLE_SDK/GD32VW55x_RELEASE_V1.0.2/MSDK/cloud/alicloud/src/services/linkkit/dm\dm_message.c **** #endif
 2739              		.loc 1 760 11
 2740 005c 03AB4700 		lw	s6,4(a5)
 2741              	.LVL340:
 763:C:/Users/stapi/OneDrive/Desktop/GD32VW553/V1_MQTT_OK/GD32VW55X_Wifi_BLE_SDK/GD32VW55x_RELEASE_V1.0.2/MSDK/cloud/alicloud/src/services/linkkit/dm\dm_message.c ****                               identifier) + response->message.value_length + 1;
 2742              		.loc 1 763 5 is_stmt 1
 763:C:/Users/stapi/OneDrive/Desktop/GD32VW553/V1_MQTT_OK/GD32VW55X_Wifi_BLE_SDK/GD32VW55x_RELEASE_V1.0.2/MSDK/cloud/alicloud/src/services/linkkit/dm\dm_message.c ****                               identifier) + response->message.value_length + 1;
 2743              		.loc 1 763 95 is_stmt 0
 2744 0060 97000000 		call	strlen
 2744      E7800000 
 2745              	.LVL341:
 764:C:/Users/stapi/OneDrive/Desktop/GD32VW553/V1_MQTT_OK/GD32VW55X_Wifi_BLE_SDK/GD32VW55x_RELEASE_V1.0.2/MSDK/cloud/alicloud/src/services/linkkit/dm\dm_message.c ****     message = DM_malloc(message_len);
 2746              		.loc 1 764 76
 2747 0068 2454     		lw	s1,104(s0)
 765:C:/Users/stapi/OneDrive/Desktop/GD32VW553/V1_MQTT_OK/GD32VW55X_Wifi_BLE_SDK/GD32VW55x_RELEASE_V1.0.2/MSDK/cloud/alicloud/src/services/linkkit/dm\dm_message.c ****     if (message == NULL) {
 2748              		.loc 1 765 15
 2749 006a 8145     		li	a1,0
 764:C:/Users/stapi/OneDrive/Desktop/GD32VW553/V1_MQTT_OK/GD32VW55X_Wifi_BLE_SDK/GD32VW55x_RELEASE_V1.0.2/MSDK/cloud/alicloud/src/services/linkkit/dm\dm_message.c ****     message = DM_malloc(message_len);
 2750              		.loc 1 764 76
 2751 006c 9384F405 		addi	s1,s1,95
 2752 0070 AA94     		add	s1,s1,a0
 2753              	.LVL342:
 765:C:/Users/stapi/OneDrive/Desktop/GD32VW553/V1_MQTT_OK/GD32VW55X_Wifi_BLE_SDK/GD32VW55x_RELEASE_V1.0.2/MSDK/cloud/alicloud/src/services/linkkit/dm\dm_message.c ****     if (message == NULL) {
 2754              		.loc 1 765 5 is_stmt 1
 765:C:/Users/stapi/OneDrive/Desktop/GD32VW553/V1_MQTT_OK/GD32VW55X_Wifi_BLE_SDK/GD32VW55x_RELEASE_V1.0.2/MSDK/cloud/alicloud/src/services/linkkit/dm\dm_message.c ****     if (message == NULL) {
 2755              		.loc 1 765 15 is_stmt 0
 2756 0072 2686     		mv	a2,s1
 2757 0074 0145     		li	a0,0
 2758 0076 97000000 		call	LITE_malloc_internal
 2758      E7800000 
 2759              	.LVL343:
 2760 007e 2A89     		mv	s2,a0
 2761              	.LVL344:
 766:C:/Users/stapi/OneDrive/Desktop/GD32VW553/V1_MQTT_OK/GD32VW55X_Wifi_BLE_SDK/GD32VW55x_RELEASE_V1.0.2/MSDK/cloud/alicloud/src/services/linkkit/dm\dm_message.c ****         return DM_MEMORY_NOT_ENOUGH;
 2762              		.loc 1 766 5 is_stmt 1
 767:C:/Users/stapi/OneDrive/Desktop/GD32VW553/V1_MQTT_OK/GD32VW55X_Wifi_BLE_SDK/GD32VW55x_RELEASE_V1.0.2/MSDK/cloud/alicloud/src/services/linkkit/dm\dm_message.c ****     }
 2763              		.loc 1 767 16 is_stmt 0
 2764 0080 7557     		li	a4,-3
 766:C:/Users/stapi/OneDrive/Desktop/GD32VW553/V1_MQTT_OK/GD32VW55X_Wifi_BLE_SDK/GD32VW55x_RELEASE_V1.0.2/MSDK/cloud/alicloud/src/services/linkkit/dm\dm_message.c ****         return DM_MEMORY_NOT_ENOUGH;
 2765              		.loc 1 766 8
 2766 0082 45D1     		beq	a0,zero,.L171
 769:C:/Users/stapi/OneDrive/Desktop/GD32VW553/V1_MQTT_OK/GD32VW55X_Wifi_BLE_SDK/GD32VW55x_RELEASE_V1.0.2/MSDK/cloud/alicloud/src/services/linkkit/dm\dm_message.c ****     HAL_Snprintf(message, message_len, DM_MSG_EVENT_SPECIFIC_POST_REPLY_FMT, id, response->code.val
 2767              		.loc 1 769 5 is_stmt 1
 2768 0084 2686     		mv	a2,s1
 2769 0086 8145     		li	a1,0
 2770 0088 97000000 		call	memset
 2770      E7800000 
 2771              	.LVL345:
 770:C:/Users/stapi/OneDrive/Desktop/GD32VW553/V1_MQTT_OK/GD32VW55X_Wifi_BLE_SDK/GD32VW55x_RELEASE_V1.0.2/MSDK/cloud/alicloud/src/services/linkkit/dm\dm_message.c ****                  identifier_len, identifier, response->message.value_length, response->message.valu
 2772              		.loc 1 770 5
 2773 0090 7C50     		lw	a5,100(s0)
 2774 0092 185C     		lw	a4,56(s0)
 2775 0094 37060000 		lui	a2,%hi(.LANCHOR14)
 2776 0098 3EC2     		sw	a5,4(sp)
 2777 009a 3C54     		lw	a5,104(s0)
 2778 009c CE88     		mv	a7,s3
 2779 009e 5688     		mv	a6,s5
 2780 00a0 3EC0     		sw	a5,0(sp)
 2781 00a2 D286     		mv	a3,s4
 2782 00a4 DA87     		mv	a5,s6
 2783 00a6 13060600 		addi	a2,a2,%lo(.LANCHOR14)
 2784 00aa A685     		mv	a1,s1
 2785 00ac 4A85     		mv	a0,s2
 2786 00ae 97000000 		call	HAL_Snprintf
 2786      E7800000 
 2787              	.LVL346:
 773:C:/Users/stapi/OneDrive/Desktop/GD32VW553/V1_MQTT_OK/GD32VW55X_Wifi_BLE_SDK/GD32VW55x_RELEASE_V1.0.2/MSDK/cloud/alicloud/src/services/linkkit/dm\dm_message.c ****     if (res != SUCCESS_RETURN) {
 2788              		.loc 1 773 5
 773:C:/Users/stapi/OneDrive/Desktop/GD32VW553/V1_MQTT_OK/GD32VW55X_Wifi_BLE_SDK/GD32VW55x_RELEASE_V1.0.2/MSDK/cloud/alicloud/src/services/linkkit/dm\dm_message.c ****     if (res != SUCCESS_RETURN) {
 2789              		.loc 1 773 11 is_stmt 0
 2790 00b6 CA85     		mv	a1,s2
 2791 00b8 13051002 		li	a0,33
 2792 00bc 97000000 		call	_dm_msg_send_to_user
 2792      E7800000 
 2793              	.LVL347:
 2794 00c4 2A87     		mv	a4,a0
 2795              	.LVL348:
 774:C:/Users/stapi/OneDrive/Desktop/GD32VW553/V1_MQTT_OK/GD32VW55X_Wifi_BLE_SDK/GD32VW55x_RELEASE_V1.0.2/MSDK/cloud/alicloud/src/services/linkkit/dm\dm_message.c ****         DM_free(message);
 2796              		.loc 1 774 5 is_stmt 1
 774:C:/Users/stapi/OneDrive/Desktop/GD32VW553/V1_MQTT_OK/GD32VW55X_Wifi_BLE_SDK/GD32VW55x_RELEASE_V1.0.2/MSDK/cloud/alicloud/src/services/linkkit/dm\dm_message.c ****         DM_free(message);
 2797              		.loc 1 774 8 is_stmt 0
 2798 00c6 31DD     		beq	a0,zero,.L171
 775:C:/Users/stapi/OneDrive/Desktop/GD32VW553/V1_MQTT_OK/GD32VW55X_Wifi_BLE_SDK/GD32VW55x_RELEASE_V1.0.2/MSDK/cloud/alicloud/src/services/linkkit/dm\dm_message.c ****         return FAIL_RETURN;
 2799              		.loc 1 775 9 is_stmt 1
 2800 00c8 4A85     		mv	a0,s2
 2801              	.LVL349:
 2802 00ca 97000000 		call	LITE_free_internal
 2802      E7800000 
 2803              	.LVL350:
 2804 00d2 B9B7     		j	.L180
 2805              		.cfi_endproc
 2806              	.LFE38:
 2808              		.section	.text.dm_msg_thing_event_notify_reply,"ax",@progbits
 2809              		.align	1
 2810              		.globl	dm_msg_thing_event_notify_reply
 2812              	dm_msg_thing_event_notify_reply:
 2813              	.LFB39:
 781:C:/Users/stapi/OneDrive/Desktop/GD32VW553/V1_MQTT_OK/GD32VW55X_Wifi_BLE_SDK/GD32VW55x_RELEASE_V1.0.2/MSDK/cloud/alicloud/src/services/linkkit/dm\dm_message.c **** #endif /* end of DEVICE_MODEL_RAWDATA_SOLO*/
 782:C:/Users/stapi/OneDrive/Desktop/GD32VW553/V1_MQTT_OK/GD32VW55X_Wifi_BLE_SDK/GD32VW55x_RELEASE_V1.0.2/MSDK/cloud/alicloud/src/services/linkkit/dm\dm_message.c **** 
 783:C:/Users/stapi/OneDrive/Desktop/GD32VW553/V1_MQTT_OK/GD32VW55X_Wifi_BLE_SDK/GD32VW55x_RELEASE_V1.0.2/MSDK/cloud/alicloud/src/services/linkkit/dm\dm_message.c **** const char DM_MSG_EVENT_EVENT_NOTIFY_REPLY_FMT[] DM_READ_ONLY =
 784:C:/Users/stapi/OneDrive/Desktop/GD32VW553/V1_MQTT_OK/GD32VW55X_Wifi_BLE_SDK/GD32VW55x_RELEASE_V1.0.2/MSDK/cloud/alicloud/src/services/linkkit/dm\dm_message.c ****             "{\"id\":%d,\"code\":%d,\"devid\":%d,\"payload\":%.*s}";
 785:C:/Users/stapi/OneDrive/Desktop/GD32VW553/V1_MQTT_OK/GD32VW55X_Wifi_BLE_SDK/GD32VW55x_RELEASE_V1.0.2/MSDK/cloud/alicloud/src/services/linkkit/dm\dm_message.c **** int dm_msg_thing_event_notify_reply(dm_msg_response_payload_t *response)
 786:C:/Users/stapi/OneDrive/Desktop/GD32VW553/V1_MQTT_OK/GD32VW55X_Wifi_BLE_SDK/GD32VW55x_RELEASE_V1.0.2/MSDK/cloud/alicloud/src/services/linkkit/dm\dm_message.c **** {
 2814              		.loc 1 786 1
 2815              		.cfi_startproc
 2816              	.LVL351:
 2817 0000 17030000 		call	t0,__riscv_save_7
 2817      E7020300 
 2818              		.cfi_offset 22, -32
 2819              		.cfi_offset 21, -28
 2820              		.cfi_offset 20, -24
 2821              		.cfi_offset 19, -20
 2822              		.cfi_offset 18, -16
 2823              		.cfi_offset 9, -12
 2824              		.cfi_offset 8, -8
 2825              		.cfi_offset 1, -4
 2826              		.cfi_def_cfa_offset 32
 787:C:/Users/stapi/OneDrive/Desktop/GD32VW553/V1_MQTT_OK/GD32VW55X_Wifi_BLE_SDK/GD32VW55x_RELEASE_V1.0.2/MSDK/cloud/alicloud/src/services/linkkit/dm\dm_message.c ****     int res = 0, devid = 0, id = 0, message_len = 0, payload_len = 0;
 2827              		.loc 1 787 5
 2828              	.LVL352:
 788:C:/Users/stapi/OneDrive/Desktop/GD32VW553/V1_MQTT_OK/GD32VW55X_Wifi_BLE_SDK/GD32VW55x_RELEASE_V1.0.2/MSDK/cloud/alicloud/src/services/linkkit/dm\dm_message.c ****     char *message = NULL, *payload = NULL;
 2829              		.loc 1 788 5
 789:C:/Users/stapi/OneDrive/Desktop/GD32VW553/V1_MQTT_OK/GD32VW55X_Wifi_BLE_SDK/GD32VW55x_RELEASE_V1.0.2/MSDK/cloud/alicloud/src/services/linkkit/dm\dm_message.c ****     char int_id[DM_UTILS_UINT32_STRLEN+1] = {0};
 2830              		.loc 1 789 5
 790:C:/Users/stapi/OneDrive/Desktop/GD32VW553/V1_MQTT_OK/GD32VW55X_Wifi_BLE_SDK/GD32VW55x_RELEASE_V1.0.2/MSDK/cloud/alicloud/src/services/linkkit/dm\dm_message.c **** 
 791:C:/Users/stapi/OneDrive/Desktop/GD32VW553/V1_MQTT_OK/GD32VW55X_Wifi_BLE_SDK/GD32VW55x_RELEASE_V1.0.2/MSDK/cloud/alicloud/src/services/linkkit/dm\dm_message.c ****     /* Message ID */
 792:C:/Users/stapi/OneDrive/Desktop/GD32VW553/V1_MQTT_OK/GD32VW55X_Wifi_BLE_SDK/GD32VW55x_RELEASE_V1.0.2/MSDK/cloud/alicloud/src/services/linkkit/dm\dm_message.c ****     if (response->id.value_length > DM_UTILS_UINT32_STRLEN) {
 2831              		.loc 1 792 21 is_stmt 0
 2832 0008 1045     		lw	a2,8(a0)
 786:C:/Users/stapi/OneDrive/Desktop/GD32VW553/V1_MQTT_OK/GD32VW55X_Wifi_BLE_SDK/GD32VW55x_RELEASE_V1.0.2/MSDK/cloud/alicloud/src/services/linkkit/dm\dm_message.c ****     int res = 0, devid = 0, id = 0, message_len = 0, payload_len = 0;
 2833              		.loc 1 786 1
 2834 000a 4111     		addi	sp,sp,-16
 2835              		.cfi_def_cfa_offset 48
 789:C:/Users/stapi/OneDrive/Desktop/GD32VW553/V1_MQTT_OK/GD32VW55X_Wifi_BLE_SDK/GD32VW55x_RELEASE_V1.0.2/MSDK/cloud/alicloud/src/services/linkkit/dm\dm_message.c ****     char int_id[DM_UTILS_UINT32_STRLEN+1] = {0};
 2836              		.loc 1 789 10
 2837 000c 02C2     		sw	zero,4(sp)
 2838 000e 02C4     		sw	zero,8(sp)
 2839 0010 23160100 		sh	zero,12(sp)
 2840 0014 23070100 		sb	zero,14(sp)
 2841              		.loc 1 792 5 is_stmt 1
 2842              		.loc 1 792 8 is_stmt 0
 2843 0018 A947     		li	a5,10
 2844 001a 63D9C700 		ble	a2,a5,.L182
 2845              	.LVL353:
 2846              	.L191:
 793:C:/Users/stapi/OneDrive/Desktop/GD32VW553/V1_MQTT_OK/GD32VW55X_Wifi_BLE_SDK/GD32VW55x_RELEASE_V1.0.2/MSDK/cloud/alicloud/src/services/linkkit/dm\dm_message.c ****         return FAIL_RETURN;
 794:C:/Users/stapi/OneDrive/Desktop/GD32VW553/V1_MQTT_OK/GD32VW55X_Wifi_BLE_SDK/GD32VW55x_RELEASE_V1.0.2/MSDK/cloud/alicloud/src/services/linkkit/dm\dm_message.c ****     }
 795:C:/Users/stapi/OneDrive/Desktop/GD32VW553/V1_MQTT_OK/GD32VW55X_Wifi_BLE_SDK/GD32VW55x_RELEASE_V1.0.2/MSDK/cloud/alicloud/src/services/linkkit/dm\dm_message.c ****     memcpy(int_id, response->id.value, response->id.value_length);
 796:C:/Users/stapi/OneDrive/Desktop/GD32VW553/V1_MQTT_OK/GD32VW55X_Wifi_BLE_SDK/GD32VW55x_RELEASE_V1.0.2/MSDK/cloud/alicloud/src/services/linkkit/dm\dm_message.c ****     id = atoi(int_id);
 797:C:/Users/stapi/OneDrive/Desktop/GD32VW553/V1_MQTT_OK/GD32VW55X_Wifi_BLE_SDK/GD32VW55x_RELEASE_V1.0.2/MSDK/cloud/alicloud/src/services/linkkit/dm\dm_message.c **** 
 798:C:/Users/stapi/OneDrive/Desktop/GD32VW553/V1_MQTT_OK/GD32VW55X_Wifi_BLE_SDK/GD32VW55x_RELEASE_V1.0.2/MSDK/cloud/alicloud/src/services/linkkit/dm\dm_message.c ****     /* dm_log_debug("Current ID: %d", id); */
 799:C:/Users/stapi/OneDrive/Desktop/GD32VW553/V1_MQTT_OK/GD32VW55X_Wifi_BLE_SDK/GD32VW55x_RELEASE_V1.0.2/MSDK/cloud/alicloud/src/services/linkkit/dm\dm_message.c **** 
 800:C:/Users/stapi/OneDrive/Desktop/GD32VW553/V1_MQTT_OK/GD32VW55X_Wifi_BLE_SDK/GD32VW55x_RELEASE_V1.0.2/MSDK/cloud/alicloud/src/services/linkkit/dm\dm_message.c **** #if !defined(DM_MESSAGE_CACHE_DISABLED)
 801:C:/Users/stapi/OneDrive/Desktop/GD32VW553/V1_MQTT_OK/GD32VW55X_Wifi_BLE_SDK/GD32VW55x_RELEASE_V1.0.2/MSDK/cloud/alicloud/src/services/linkkit/dm\dm_message.c ****     dm_msg_cache_node_t *node = NULL;
 802:C:/Users/stapi/OneDrive/Desktop/GD32VW553/V1_MQTT_OK/GD32VW55X_Wifi_BLE_SDK/GD32VW55x_RELEASE_V1.0.2/MSDK/cloud/alicloud/src/services/linkkit/dm\dm_message.c ****     res = dm_msg_cache_search(id, &node);
 803:C:/Users/stapi/OneDrive/Desktop/GD32VW553/V1_MQTT_OK/GD32VW55X_Wifi_BLE_SDK/GD32VW55x_RELEASE_V1.0.2/MSDK/cloud/alicloud/src/services/linkkit/dm\dm_message.c ****     if (res != SUCCESS_RETURN) {
 804:C:/Users/stapi/OneDrive/Desktop/GD32VW553/V1_MQTT_OK/GD32VW55X_Wifi_BLE_SDK/GD32VW55x_RELEASE_V1.0.2/MSDK/cloud/alicloud/src/services/linkkit/dm\dm_message.c ****         return FAIL_RETURN;
 805:C:/Users/stapi/OneDrive/Desktop/GD32VW553/V1_MQTT_OK/GD32VW55X_Wifi_BLE_SDK/GD32VW55x_RELEASE_V1.0.2/MSDK/cloud/alicloud/src/services/linkkit/dm\dm_message.c ****     }
 806:C:/Users/stapi/OneDrive/Desktop/GD32VW553/V1_MQTT_OK/GD32VW55X_Wifi_BLE_SDK/GD32VW55x_RELEASE_V1.0.2/MSDK/cloud/alicloud/src/services/linkkit/dm\dm_message.c ****     devid = node->devid;
 807:C:/Users/stapi/OneDrive/Desktop/GD32VW553/V1_MQTT_OK/GD32VW55X_Wifi_BLE_SDK/GD32VW55x_RELEASE_V1.0.2/MSDK/cloud/alicloud/src/services/linkkit/dm\dm_message.c **** #endif
 808:C:/Users/stapi/OneDrive/Desktop/GD32VW553/V1_MQTT_OK/GD32VW55X_Wifi_BLE_SDK/GD32VW55x_RELEASE_V1.0.2/MSDK/cloud/alicloud/src/services/linkkit/dm\dm_message.c **** 
 809:C:/Users/stapi/OneDrive/Desktop/GD32VW553/V1_MQTT_OK/GD32VW55X_Wifi_BLE_SDK/GD32VW55x_RELEASE_V1.0.2/MSDK/cloud/alicloud/src/services/linkkit/dm\dm_message.c ****     if ((strlen("success") == response->message.value_length) &&
 810:C:/Users/stapi/OneDrive/Desktop/GD32VW553/V1_MQTT_OK/GD32VW55X_Wifi_BLE_SDK/GD32VW55x_RELEASE_V1.0.2/MSDK/cloud/alicloud/src/services/linkkit/dm\dm_message.c ****         (memcmp("success", response->message.value, response->message.value_length) == 0)) {
 811:C:/Users/stapi/OneDrive/Desktop/GD32VW553/V1_MQTT_OK/GD32VW55X_Wifi_BLE_SDK/GD32VW55x_RELEASE_V1.0.2/MSDK/cloud/alicloud/src/services/linkkit/dm\dm_message.c ****         payload = response->data.value;
 812:C:/Users/stapi/OneDrive/Desktop/GD32VW553/V1_MQTT_OK/GD32VW55X_Wifi_BLE_SDK/GD32VW55x_RELEASE_V1.0.2/MSDK/cloud/alicloud/src/services/linkkit/dm\dm_message.c ****         payload_len = response->data.value_length;
 813:C:/Users/stapi/OneDrive/Desktop/GD32VW553/V1_MQTT_OK/GD32VW55X_Wifi_BLE_SDK/GD32VW55x_RELEASE_V1.0.2/MSDK/cloud/alicloud/src/services/linkkit/dm\dm_message.c ****     } else {
 814:C:/Users/stapi/OneDrive/Desktop/GD32VW553/V1_MQTT_OK/GD32VW55X_Wifi_BLE_SDK/GD32VW55x_RELEASE_V1.0.2/MSDK/cloud/alicloud/src/services/linkkit/dm\dm_message.c ****         payload = response->message.value;
 815:C:/Users/stapi/OneDrive/Desktop/GD32VW553/V1_MQTT_OK/GD32VW55X_Wifi_BLE_SDK/GD32VW55x_RELEASE_V1.0.2/MSDK/cloud/alicloud/src/services/linkkit/dm\dm_message.c ****         payload_len = response->message.value_length;
 816:C:/Users/stapi/OneDrive/Desktop/GD32VW553/V1_MQTT_OK/GD32VW55X_Wifi_BLE_SDK/GD32VW55x_RELEASE_V1.0.2/MSDK/cloud/alicloud/src/services/linkkit/dm\dm_message.c ****     }
 817:C:/Users/stapi/OneDrive/Desktop/GD32VW553/V1_MQTT_OK/GD32VW55X_Wifi_BLE_SDK/GD32VW55x_RELEASE_V1.0.2/MSDK/cloud/alicloud/src/services/linkkit/dm\dm_message.c **** 
 818:C:/Users/stapi/OneDrive/Desktop/GD32VW553/V1_MQTT_OK/GD32VW55X_Wifi_BLE_SDK/GD32VW55x_RELEASE_V1.0.2/MSDK/cloud/alicloud/src/services/linkkit/dm\dm_message.c ****     message_len = strlen(DM_MSG_EVENT_EVENT_NOTIFY_REPLY_FMT) + DM_UTILS_UINT32_STRLEN * 3 + payloa
 819:C:/Users/stapi/OneDrive/Desktop/GD32VW553/V1_MQTT_OK/GD32VW55X_Wifi_BLE_SDK/GD32VW55x_RELEASE_V1.0.2/MSDK/cloud/alicloud/src/services/linkkit/dm\dm_message.c ****                   1;
 820:C:/Users/stapi/OneDrive/Desktop/GD32VW553/V1_MQTT_OK/GD32VW55X_Wifi_BLE_SDK/GD32VW55x_RELEASE_V1.0.2/MSDK/cloud/alicloud/src/services/linkkit/dm\dm_message.c ****     message = DM_malloc(message_len);
 821:C:/Users/stapi/OneDrive/Desktop/GD32VW553/V1_MQTT_OK/GD32VW55X_Wifi_BLE_SDK/GD32VW55x_RELEASE_V1.0.2/MSDK/cloud/alicloud/src/services/linkkit/dm\dm_message.c ****     if (message == NULL) {
 822:C:/Users/stapi/OneDrive/Desktop/GD32VW553/V1_MQTT_OK/GD32VW55X_Wifi_BLE_SDK/GD32VW55x_RELEASE_V1.0.2/MSDK/cloud/alicloud/src/services/linkkit/dm\dm_message.c ****         return DM_MEMORY_NOT_ENOUGH;
 823:C:/Users/stapi/OneDrive/Desktop/GD32VW553/V1_MQTT_OK/GD32VW55X_Wifi_BLE_SDK/GD32VW55x_RELEASE_V1.0.2/MSDK/cloud/alicloud/src/services/linkkit/dm\dm_message.c ****     }
 824:C:/Users/stapi/OneDrive/Desktop/GD32VW553/V1_MQTT_OK/GD32VW55X_Wifi_BLE_SDK/GD32VW55x_RELEASE_V1.0.2/MSDK/cloud/alicloud/src/services/linkkit/dm\dm_message.c ****     memset(message, 0, message_len);
 825:C:/Users/stapi/OneDrive/Desktop/GD32VW553/V1_MQTT_OK/GD32VW55X_Wifi_BLE_SDK/GD32VW55x_RELEASE_V1.0.2/MSDK/cloud/alicloud/src/services/linkkit/dm\dm_message.c ****     HAL_Snprintf(message, message_len, DM_MSG_EVENT_EVENT_NOTIFY_REPLY_FMT, id, response->code.valu
 826:C:/Users/stapi/OneDrive/Desktop/GD32VW553/V1_MQTT_OK/GD32VW55X_Wifi_BLE_SDK/GD32VW55x_RELEASE_V1.0.2/MSDK/cloud/alicloud/src/services/linkkit/dm\dm_message.c ****                  payload_len, payload);
 827:C:/Users/stapi/OneDrive/Desktop/GD32VW553/V1_MQTT_OK/GD32VW55X_Wifi_BLE_SDK/GD32VW55x_RELEASE_V1.0.2/MSDK/cloud/alicloud/src/services/linkkit/dm\dm_message.c **** 
 828:C:/Users/stapi/OneDrive/Desktop/GD32VW553/V1_MQTT_OK/GD32VW55X_Wifi_BLE_SDK/GD32VW55x_RELEASE_V1.0.2/MSDK/cloud/alicloud/src/services/linkkit/dm\dm_message.c ****     res = _dm_msg_send_to_user(IOTX_DM_EVENT_THING_EVENT_NOTIFY_REPLY, message);
 829:C:/Users/stapi/OneDrive/Desktop/GD32VW553/V1_MQTT_OK/GD32VW55X_Wifi_BLE_SDK/GD32VW55x_RELEASE_V1.0.2/MSDK/cloud/alicloud/src/services/linkkit/dm\dm_message.c ****     if (res != SUCCESS_RETURN) {
 830:C:/Users/stapi/OneDrive/Desktop/GD32VW553/V1_MQTT_OK/GD32VW55X_Wifi_BLE_SDK/GD32VW55x_RELEASE_V1.0.2/MSDK/cloud/alicloud/src/services/linkkit/dm\dm_message.c ****         DM_free(message);
 2847              		.loc 1 830 9 is_stmt 1
 2848              		.loc 1 830 25
 831:C:/Users/stapi/OneDrive/Desktop/GD32VW553/V1_MQTT_OK/GD32VW55X_Wifi_BLE_SDK/GD32VW55x_RELEASE_V1.0.2/MSDK/cloud/alicloud/src/services/linkkit/dm\dm_message.c ****         return FAIL_RETURN;
 2849              		.loc 1 831 9
 2850              		.loc 1 831 16 is_stmt 0
 2851 001e FD57     		li	a5,-1
 2852              	.LVL354:
 2853              	.L181:
 832:C:/Users/stapi/OneDrive/Desktop/GD32VW553/V1_MQTT_OK/GD32VW55X_Wifi_BLE_SDK/GD32VW55x_RELEASE_V1.0.2/MSDK/cloud/alicloud/src/services/linkkit/dm\dm_message.c ****     }
 833:C:/Users/stapi/OneDrive/Desktop/GD32VW553/V1_MQTT_OK/GD32VW55X_Wifi_BLE_SDK/GD32VW55x_RELEASE_V1.0.2/MSDK/cloud/alicloud/src/services/linkkit/dm\dm_message.c **** 
 834:C:/Users/stapi/OneDrive/Desktop/GD32VW553/V1_MQTT_OK/GD32VW55X_Wifi_BLE_SDK/GD32VW55x_RELEASE_V1.0.2/MSDK/cloud/alicloud/src/services/linkkit/dm\dm_message.c ****     return SUCCESS_RETURN;
 835:C:/Users/stapi/OneDrive/Desktop/GD32VW553/V1_MQTT_OK/GD32VW55X_Wifi_BLE_SDK/GD32VW55x_RELEASE_V1.0.2/MSDK/cloud/alicloud/src/services/linkkit/dm\dm_message.c **** }
 2854              		.loc 1 835 1
 2855 0020 3E85     		mv	a0,a5
 2856 0022 4101     		addi	sp,sp,16
 2857              		.cfi_remember_state
 2858              		.cfi_def_cfa_offset 0
 2859 0024 17030000 		tail	__riscv_restore_7
 2859      67000300 
 2860              		.cfi_restore 22
 2861              		.cfi_restore 21
 2862              		.cfi_restore 20
 2863              		.cfi_restore 19
 2864              		.cfi_restore 18
 2865              		.cfi_restore 9
 2866              		.cfi_restore 8
 2867              		.cfi_restore 1
 2868              		.cfi_def_cfa_offset -32
 2869              	.LVL355:
 2870              	.L182:
 2871              		.cfi_restore_state
 795:C:/Users/stapi/OneDrive/Desktop/GD32VW553/V1_MQTT_OK/GD32VW55X_Wifi_BLE_SDK/GD32VW55x_RELEASE_V1.0.2/MSDK/cloud/alicloud/src/services/linkkit/dm\dm_message.c ****     id = atoi(int_id);
 2872              		.loc 1 795 5
 2873 002c 4C41     		lw	a1,4(a0)
 2874 002e 2A84     		mv	s0,a0
 795:C:/Users/stapi/OneDrive/Desktop/GD32VW553/V1_MQTT_OK/GD32VW55X_Wifi_BLE_SDK/GD32VW55x_RELEASE_V1.0.2/MSDK/cloud/alicloud/src/services/linkkit/dm\dm_message.c ****     id = atoi(int_id);
 2875              		.loc 1 795 5 is_stmt 1
 2876 0030 4800     		addi	a0,sp,4
 2877              	.LVL356:
 2878 0032 97000000 		call	memcpy
 2878      E7800000 
 2879              	.LVL357:
 796:C:/Users/stapi/OneDrive/Desktop/GD32VW553/V1_MQTT_OK/GD32VW55X_Wifi_BLE_SDK/GD32VW55x_RELEASE_V1.0.2/MSDK/cloud/alicloud/src/services/linkkit/dm\dm_message.c **** 
 2880              		.loc 1 796 5
 796:C:/Users/stapi/OneDrive/Desktop/GD32VW553/V1_MQTT_OK/GD32VW55X_Wifi_BLE_SDK/GD32VW55x_RELEASE_V1.0.2/MSDK/cloud/alicloud/src/services/linkkit/dm\dm_message.c **** 
 2881              		.loc 1 796 10 is_stmt 0
 2882 003a 4800     		addi	a0,sp,4
 2883 003c 97000000 		call	atoi
 2883      E7800000 
 2884              	.LVL358:
 802:C:/Users/stapi/OneDrive/Desktop/GD32VW553/V1_MQTT_OK/GD32VW55X_Wifi_BLE_SDK/GD32VW55x_RELEASE_V1.0.2/MSDK/cloud/alicloud/src/services/linkkit/dm\dm_message.c ****     if (res != SUCCESS_RETURN) {
 2885              		.loc 1 802 11
 2886 0044 8A85     		mv	a1,sp
 796:C:/Users/stapi/OneDrive/Desktop/GD32VW553/V1_MQTT_OK/GD32VW55X_Wifi_BLE_SDK/GD32VW55x_RELEASE_V1.0.2/MSDK/cloud/alicloud/src/services/linkkit/dm\dm_message.c **** 
 2887              		.loc 1 796 10
 2888 0046 2A8A     		mv	s4,a0
 2889              	.LVL359:
 801:C:/Users/stapi/OneDrive/Desktop/GD32VW553/V1_MQTT_OK/GD32VW55X_Wifi_BLE_SDK/GD32VW55x_RELEASE_V1.0.2/MSDK/cloud/alicloud/src/services/linkkit/dm\dm_message.c ****     res = dm_msg_cache_search(id, &node);
 2890              		.loc 1 801 5 is_stmt 1
 801:C:/Users/stapi/OneDrive/Desktop/GD32VW553/V1_MQTT_OK/GD32VW55X_Wifi_BLE_SDK/GD32VW55x_RELEASE_V1.0.2/MSDK/cloud/alicloud/src/services/linkkit/dm\dm_message.c ****     res = dm_msg_cache_search(id, &node);
 2891              		.loc 1 801 26 is_stmt 0
 2892 0048 02C0     		sw	zero,0(sp)
 802:C:/Users/stapi/OneDrive/Desktop/GD32VW553/V1_MQTT_OK/GD32VW55X_Wifi_BLE_SDK/GD32VW55x_RELEASE_V1.0.2/MSDK/cloud/alicloud/src/services/linkkit/dm\dm_message.c ****     if (res != SUCCESS_RETURN) {
 2893              		.loc 1 802 5 is_stmt 1
 802:C:/Users/stapi/OneDrive/Desktop/GD32VW553/V1_MQTT_OK/GD32VW55X_Wifi_BLE_SDK/GD32VW55x_RELEASE_V1.0.2/MSDK/cloud/alicloud/src/services/linkkit/dm\dm_message.c ****     if (res != SUCCESS_RETURN) {
 2894              		.loc 1 802 11 is_stmt 0
 2895 004a 97000000 		call	dm_msg_cache_search
 2895      E7800000 
 2896              	.LVL360:
 803:C:/Users/stapi/OneDrive/Desktop/GD32VW553/V1_MQTT_OK/GD32VW55X_Wifi_BLE_SDK/GD32VW55x_RELEASE_V1.0.2/MSDK/cloud/alicloud/src/services/linkkit/dm\dm_message.c ****         return FAIL_RETURN;
 2897              		.loc 1 803 5 is_stmt 1
 803:C:/Users/stapi/OneDrive/Desktop/GD32VW553/V1_MQTT_OK/GD32VW55X_Wifi_BLE_SDK/GD32VW55x_RELEASE_V1.0.2/MSDK/cloud/alicloud/src/services/linkkit/dm\dm_message.c ****         return FAIL_RETURN;
 2898              		.loc 1 803 8 is_stmt 0
 2899 0052 71F5     		bne	a0,zero,.L191
 806:C:/Users/stapi/OneDrive/Desktop/GD32VW553/V1_MQTT_OK/GD32VW55X_Wifi_BLE_SDK/GD32VW55x_RELEASE_V1.0.2/MSDK/cloud/alicloud/src/services/linkkit/dm\dm_message.c **** #endif
 2900              		.loc 1 806 5 is_stmt 1
 806:C:/Users/stapi/OneDrive/Desktop/GD32VW553/V1_MQTT_OK/GD32VW55X_Wifi_BLE_SDK/GD32VW55x_RELEASE_V1.0.2/MSDK/cloud/alicloud/src/services/linkkit/dm\dm_message.c **** #endif
 2901              		.loc 1 806 11 is_stmt 0
 2902 0054 8247     		lw	a5,0(sp)
 809:C:/Users/stapi/OneDrive/Desktop/GD32VW553/V1_MQTT_OK/GD32VW55X_Wifi_BLE_SDK/GD32VW55x_RELEASE_V1.0.2/MSDK/cloud/alicloud/src/services/linkkit/dm\dm_message.c ****         (memcmp("success", response->message.value, response->message.value_length) == 0)) {
 2903              		.loc 1 809 48
 2904 0056 03298406 		lw	s2,104(s0)
 810:C:/Users/stapi/OneDrive/Desktop/GD32VW553/V1_MQTT_OK/GD32VW55X_Wifi_BLE_SDK/GD32VW55x_RELEASE_V1.0.2/MSDK/cloud/alicloud/src/services/linkkit/dm\dm_message.c ****         payload = response->data.value;
 2905              		.loc 1 810 45
 2906 005a 832A4406 		lw	s5,100(s0)
 806:C:/Users/stapi/OneDrive/Desktop/GD32VW553/V1_MQTT_OK/GD32VW55X_Wifi_BLE_SDK/GD32VW55x_RELEASE_V1.0.2/MSDK/cloud/alicloud/src/services/linkkit/dm\dm_message.c **** #endif
 2907              		.loc 1 806 11
 2908 005e 03AB4700 		lw	s6,4(a5)
 2909              	.LVL361:
 809:C:/Users/stapi/OneDrive/Desktop/GD32VW553/V1_MQTT_OK/GD32VW55X_Wifi_BLE_SDK/GD32VW55x_RELEASE_V1.0.2/MSDK/cloud/alicloud/src/services/linkkit/dm\dm_message.c ****         (memcmp("success", response->message.value, response->message.value_length) == 0)) {
 2910              		.loc 1 809 5 is_stmt 1
 809:C:/Users/stapi/OneDrive/Desktop/GD32VW553/V1_MQTT_OK/GD32VW55X_Wifi_BLE_SDK/GD32VW55x_RELEASE_V1.0.2/MSDK/cloud/alicloud/src/services/linkkit/dm\dm_message.c ****         (memcmp("success", response->message.value, response->message.value_length) == 0)) {
 2911              		.loc 1 809 8 is_stmt 0
 2912 0062 9D47     		li	a5,7
 2913 0064 6311F902 		bne	s2,a5,.L185
 810:C:/Users/stapi/OneDrive/Desktop/GD32VW553/V1_MQTT_OK/GD32VW55X_Wifi_BLE_SDK/GD32VW55x_RELEASE_V1.0.2/MSDK/cloud/alicloud/src/services/linkkit/dm\dm_message.c ****         payload = response->data.value;
 2914              		.loc 1 810 10 discriminator 1
 2915 0068 37050000 		lui	a0,%hi(.LC22)
 2916              	.LVL362:
 2917 006c 1D46     		li	a2,7
 2918 006e D685     		mv	a1,s5
 2919 0070 13050500 		addi	a0,a0,%lo(.LC22)
 2920 0074 97000000 		call	memcmp
 2920      E7800000 
 2921              	.LVL363:
 809:C:/Users/stapi/OneDrive/Desktop/GD32VW553/V1_MQTT_OK/GD32VW55X_Wifi_BLE_SDK/GD32VW55x_RELEASE_V1.0.2/MSDK/cloud/alicloud/src/services/linkkit/dm\dm_message.c ****         (memcmp("success", response->message.value, response->message.value_length) == 0)) {
 2922              		.loc 1 809 63 discriminator 1
 2923 007c 09E5     		bne	a0,zero,.L185
 811:C:/Users/stapi/OneDrive/Desktop/GD32VW553/V1_MQTT_OK/GD32VW55X_Wifi_BLE_SDK/GD32VW55x_RELEASE_V1.0.2/MSDK/cloud/alicloud/src/services/linkkit/dm\dm_message.c ****         payload_len = response->data.value_length;
 2924              		.loc 1 811 9 is_stmt 1
 811:C:/Users/stapi/OneDrive/Desktop/GD32VW553/V1_MQTT_OK/GD32VW55X_Wifi_BLE_SDK/GD32VW55x_RELEASE_V1.0.2/MSDK/cloud/alicloud/src/services/linkkit/dm\dm_message.c ****         payload_len = response->data.value_length;
 2925              		.loc 1 811 17 is_stmt 0
 2926 007e 832A4404 		lw	s5,68(s0)
 2927              	.LVL364:
 812:C:/Users/stapi/OneDrive/Desktop/GD32VW553/V1_MQTT_OK/GD32VW55X_Wifi_BLE_SDK/GD32VW55x_RELEASE_V1.0.2/MSDK/cloud/alicloud/src/services/linkkit/dm\dm_message.c ****     } else {
 2928              		.loc 1 812 9 is_stmt 1
 812:C:/Users/stapi/OneDrive/Desktop/GD32VW553/V1_MQTT_OK/GD32VW55X_Wifi_BLE_SDK/GD32VW55x_RELEASE_V1.0.2/MSDK/cloud/alicloud/src/services/linkkit/dm\dm_message.c ****     } else {
 2929              		.loc 1 812 21 is_stmt 0
 2930 0082 03298404 		lw	s2,72(s0)
 2931              	.LVL365:
 2932              	.L185:
 818:C:/Users/stapi/OneDrive/Desktop/GD32VW553/V1_MQTT_OK/GD32VW55X_Wifi_BLE_SDK/GD32VW55x_RELEASE_V1.0.2/MSDK/cloud/alicloud/src/services/linkkit/dm\dm_message.c ****                   1;
 2933              		.loc 1 818 5 is_stmt 1
 818:C:/Users/stapi/OneDrive/Desktop/GD32VW553/V1_MQTT_OK/GD32VW55X_Wifi_BLE_SDK/GD32VW55x_RELEASE_V1.0.2/MSDK/cloud/alicloud/src/services/linkkit/dm\dm_message.c ****                   1;
 2934              		.loc 1 818 106 is_stmt 0
 2935 0086 9309C904 		addi	s3,s2,76
 2936              	.LVL366:
 820:C:/Users/stapi/OneDrive/Desktop/GD32VW553/V1_MQTT_OK/GD32VW55X_Wifi_BLE_SDK/GD32VW55x_RELEASE_V1.0.2/MSDK/cloud/alicloud/src/services/linkkit/dm\dm_message.c ****     if (message == NULL) {
 2937              		.loc 1 820 5 is_stmt 1
 820:C:/Users/stapi/OneDrive/Desktop/GD32VW553/V1_MQTT_OK/GD32VW55X_Wifi_BLE_SDK/GD32VW55x_RELEASE_V1.0.2/MSDK/cloud/alicloud/src/services/linkkit/dm\dm_message.c ****     if (message == NULL) {
 2938              		.loc 1 820 15 is_stmt 0
 2939 008a 4E86     		mv	a2,s3
 2940 008c 8145     		li	a1,0
 2941 008e 0145     		li	a0,0
 2942 0090 97000000 		call	LITE_malloc_internal
 2942      E7800000 
 2943              	.LVL367:
 2944 0098 AA84     		mv	s1,a0
 2945              	.LVL368:
 821:C:/Users/stapi/OneDrive/Desktop/GD32VW553/V1_MQTT_OK/GD32VW55X_Wifi_BLE_SDK/GD32VW55x_RELEASE_V1.0.2/MSDK/cloud/alicloud/src/services/linkkit/dm\dm_message.c ****         return DM_MEMORY_NOT_ENOUGH;
 2946              		.loc 1 821 5 is_stmt 1
 822:C:/Users/stapi/OneDrive/Desktop/GD32VW553/V1_MQTT_OK/GD32VW55X_Wifi_BLE_SDK/GD32VW55x_RELEASE_V1.0.2/MSDK/cloud/alicloud/src/services/linkkit/dm\dm_message.c ****     }
 2947              		.loc 1 822 16 is_stmt 0
 2948 009a F557     		li	a5,-3
 821:C:/Users/stapi/OneDrive/Desktop/GD32VW553/V1_MQTT_OK/GD32VW55X_Wifi_BLE_SDK/GD32VW55x_RELEASE_V1.0.2/MSDK/cloud/alicloud/src/services/linkkit/dm\dm_message.c ****         return DM_MEMORY_NOT_ENOUGH;
 2949              		.loc 1 821 8
 2950 009c 51D1     		beq	a0,zero,.L181
 824:C:/Users/stapi/OneDrive/Desktop/GD32VW553/V1_MQTT_OK/GD32VW55X_Wifi_BLE_SDK/GD32VW55x_RELEASE_V1.0.2/MSDK/cloud/alicloud/src/services/linkkit/dm\dm_message.c ****     HAL_Snprintf(message, message_len, DM_MSG_EVENT_EVENT_NOTIFY_REPLY_FMT, id, response->code.valu
 2951              		.loc 1 824 5 is_stmt 1
 2952 009e 4E86     		mv	a2,s3
 2953 00a0 8145     		li	a1,0
 2954 00a2 97000000 		call	memset
 2954      E7800000 
 2955              	.LVL369:
 825:C:/Users/stapi/OneDrive/Desktop/GD32VW553/V1_MQTT_OK/GD32VW55X_Wifi_BLE_SDK/GD32VW55x_RELEASE_V1.0.2/MSDK/cloud/alicloud/src/services/linkkit/dm\dm_message.c ****                  payload_len, payload);
 2956              		.loc 1 825 5
 2957 00aa 185C     		lw	a4,56(s0)
 2958 00ac 37060000 		lui	a2,%hi(.LANCHOR15)
 2959 00b0 DA87     		mv	a5,s6
 2960 00b2 D688     		mv	a7,s5
 2961 00b4 4A88     		mv	a6,s2
 2962 00b6 D286     		mv	a3,s4
 2963 00b8 13060600 		addi	a2,a2,%lo(.LANCHOR15)
 2964 00bc CE85     		mv	a1,s3
 2965 00be 2685     		mv	a0,s1
 2966 00c0 97000000 		call	HAL_Snprintf
 2966      E7800000 
 2967              	.LVL370:
 828:C:/Users/stapi/OneDrive/Desktop/GD32VW553/V1_MQTT_OK/GD32VW55X_Wifi_BLE_SDK/GD32VW55x_RELEASE_V1.0.2/MSDK/cloud/alicloud/src/services/linkkit/dm\dm_message.c ****     if (res != SUCCESS_RETURN) {
 2968              		.loc 1 828 5
 828:C:/Users/stapi/OneDrive/Desktop/GD32VW553/V1_MQTT_OK/GD32VW55X_Wifi_BLE_SDK/GD32VW55x_RELEASE_V1.0.2/MSDK/cloud/alicloud/src/services/linkkit/dm\dm_message.c ****     if (res != SUCCESS_RETURN) {
 2969              		.loc 1 828 11 is_stmt 0
 2970 00c8 A685     		mv	a1,s1
 2971 00ca 13051003 		li	a0,49
 2972 00ce 97000000 		call	_dm_msg_send_to_user
 2972      E7800000 
 2973              	.LVL371:
 2974 00d6 AA87     		mv	a5,a0
 2975              	.LVL372:
 829:C:/Users/stapi/OneDrive/Desktop/GD32VW553/V1_MQTT_OK/GD32VW55X_Wifi_BLE_SDK/GD32VW55x_RELEASE_V1.0.2/MSDK/cloud/alicloud/src/services/linkkit/dm\dm_message.c ****         DM_free(message);
 2976              		.loc 1 829 5 is_stmt 1
 829:C:/Users/stapi/OneDrive/Desktop/GD32VW553/V1_MQTT_OK/GD32VW55X_Wifi_BLE_SDK/GD32VW55x_RELEASE_V1.0.2/MSDK/cloud/alicloud/src/services/linkkit/dm\dm_message.c ****         DM_free(message);
 2977              		.loc 1 829 8 is_stmt 0
 2978 00d8 21D5     		beq	a0,zero,.L181
 830:C:/Users/stapi/OneDrive/Desktop/GD32VW553/V1_MQTT_OK/GD32VW55X_Wifi_BLE_SDK/GD32VW55x_RELEASE_V1.0.2/MSDK/cloud/alicloud/src/services/linkkit/dm\dm_message.c ****         return FAIL_RETURN;
 2979              		.loc 1 830 9 is_stmt 1
 2980 00da 2685     		mv	a0,s1
 2981              	.LVL373:
 2982 00dc 97000000 		call	LITE_free_internal
 2982      E7800000 
 2983              	.LVL374:
 2984 00e4 2DBF     		j	.L191
 2985              		.cfi_endproc
 2986              	.LFE39:
 2988              		.section	.text.dm_msg_rrpc_request,"ax",@progbits
 2989              		.align	1
 2990              		.globl	dm_msg_rrpc_request
 2992              	dm_msg_rrpc_request:
 2993              	.LFB40:
 836:C:/Users/stapi/OneDrive/Desktop/GD32VW553/V1_MQTT_OK/GD32VW55X_Wifi_BLE_SDK/GD32VW55x_RELEASE_V1.0.2/MSDK/cloud/alicloud/src/services/linkkit/dm\dm_message.c **** 
 837:C:/Users/stapi/OneDrive/Desktop/GD32VW553/V1_MQTT_OK/GD32VW55X_Wifi_BLE_SDK/GD32VW55x_RELEASE_V1.0.2/MSDK/cloud/alicloud/src/services/linkkit/dm\dm_message.c **** const char DM_MSG_EVENT_RRPC_REQUEST_FMT[] DM_READ_ONLY =
 838:C:/Users/stapi/OneDrive/Desktop/GD32VW553/V1_MQTT_OK/GD32VW55X_Wifi_BLE_SDK/GD32VW55x_RELEASE_V1.0.2/MSDK/cloud/alicloud/src/services/linkkit/dm\dm_message.c ****             "{\"id\":\"%.*s\",\"devid\":%d,\"serviceid\":\"%.*s\",\"rrpcid\":\"%.*s\",\"payload\":%
 839:C:/Users/stapi/OneDrive/Desktop/GD32VW553/V1_MQTT_OK/GD32VW55X_Wifi_BLE_SDK/GD32VW55x_RELEASE_V1.0.2/MSDK/cloud/alicloud/src/services/linkkit/dm\dm_message.c **** int dm_msg_rrpc_request(_IN_ char product_key[PRODUCT_KEY_MAXLEN], _IN_ char device_name[DEVICE_NAM
 840:C:/Users/stapi/OneDrive/Desktop/GD32VW553/V1_MQTT_OK/GD32VW55X_Wifi_BLE_SDK/GD32VW55x_RELEASE_V1.0.2/MSDK/cloud/alicloud/src/services/linkkit/dm\dm_message.c ****                         char *rrpcid, int rrpcid_len, dm_msg_request_payload_t *request)
 841:C:/Users/stapi/OneDrive/Desktop/GD32VW553/V1_MQTT_OK/GD32VW55X_Wifi_BLE_SDK/GD32VW55x_RELEASE_V1.0.2/MSDK/cloud/alicloud/src/services/linkkit/dm\dm_message.c **** {
 2994              		.loc 1 841 1
 2995              		.cfi_startproc
 2996              	.LVL375:
 2997 0000 17030000 		call	t0,__riscv_save_7
 2997      E7020300 
 2998              		.cfi_offset 22, -32
 2999              		.cfi_offset 21, -28
 3000              		.cfi_offset 20, -24
 3001              		.cfi_offset 19, -20
 3002              		.cfi_offset 18, -16
 3003              		.cfi_offset 9, -12
 3004              		.cfi_offset 8, -8
 3005              		.cfi_offset 1, -4
 3006              		.cfi_def_cfa_offset 32
 842:C:/Users/stapi/OneDrive/Desktop/GD32VW553/V1_MQTT_OK/GD32VW55X_Wifi_BLE_SDK/GD32VW55x_RELEASE_V1.0.2/MSDK/cloud/alicloud/src/services/linkkit/dm\dm_message.c ****     int res = 0, devid = 0, message_len = 0;
 3007              		.loc 1 842 5
 3008              	.LVL376:
 841:C:/Users/stapi/OneDrive/Desktop/GD32VW553/V1_MQTT_OK/GD32VW55X_Wifi_BLE_SDK/GD32VW55x_RELEASE_V1.0.2/MSDK/cloud/alicloud/src/services/linkkit/dm\dm_message.c ****     int res = 0, devid = 0, message_len = 0;
 3009              		.loc 1 841 1 is_stmt 0
 3010 0008 0111     		addi	sp,sp,-32
 3011              		.cfi_def_cfa_offset 64
 841:C:/Users/stapi/OneDrive/Desktop/GD32VW553/V1_MQTT_OK/GD32VW55X_Wifi_BLE_SDK/GD32VW55x_RELEASE_V1.0.2/MSDK/cloud/alicloud/src/services/linkkit/dm\dm_message.c ****     int res = 0, devid = 0, message_len = 0;
 3012              		.loc 1 841 1
 3013 000a B28A     		mv	s5,a2
 843:C:/Users/stapi/OneDrive/Desktop/GD32VW553/V1_MQTT_OK/GD32VW55X_Wifi_BLE_SDK/GD32VW55x_RELEASE_V1.0.2/MSDK/cloud/alicloud/src/services/linkkit/dm\dm_message.c ****     int service_offset = 0, serviceid_len = 0;
 844:C:/Users/stapi/OneDrive/Desktop/GD32VW553/V1_MQTT_OK/GD32VW55X_Wifi_BLE_SDK/GD32VW55x_RELEASE_V1.0.2/MSDK/cloud/alicloud/src/services/linkkit/dm\dm_message.c ****     char *serviceid = NULL, *message = NULL;
 845:C:/Users/stapi/OneDrive/Desktop/GD32VW553/V1_MQTT_OK/GD32VW55X_Wifi_BLE_SDK/GD32VW55x_RELEASE_V1.0.2/MSDK/cloud/alicloud/src/services/linkkit/dm\dm_message.c **** 
 846:C:/Users/stapi/OneDrive/Desktop/GD32VW553/V1_MQTT_OK/GD32VW55X_Wifi_BLE_SDK/GD32VW55x_RELEASE_V1.0.2/MSDK/cloud/alicloud/src/services/linkkit/dm\dm_message.c ****     /* Get Devid */
 847:C:/Users/stapi/OneDrive/Desktop/GD32VW553/V1_MQTT_OK/GD32VW55X_Wifi_BLE_SDK/GD32VW55x_RELEASE_V1.0.2/MSDK/cloud/alicloud/src/services/linkkit/dm\dm_message.c ****     res = dm_mgr_search_device_by_pkdn(product_key, device_name, &devid);
 3014              		.loc 1 847 11
 3015 000c 3008     		addi	a2,sp,24
 3016              	.LVL377:
 841:C:/Users/stapi/OneDrive/Desktop/GD32VW553/V1_MQTT_OK/GD32VW55X_Wifi_BLE_SDK/GD32VW55x_RELEASE_V1.0.2/MSDK/cloud/alicloud/src/services/linkkit/dm\dm_message.c ****     int res = 0, devid = 0, message_len = 0;
 3017              		.loc 1 841 1
 3018 000e 368A     		mv	s4,a3
 3019 0010 3A84     		mv	s0,a4
 842:C:/Users/stapi/OneDrive/Desktop/GD32VW553/V1_MQTT_OK/GD32VW55X_Wifi_BLE_SDK/GD32VW55x_RELEASE_V1.0.2/MSDK/cloud/alicloud/src/services/linkkit/dm\dm_message.c ****     int service_offset = 0, serviceid_len = 0;
 3020              		.loc 1 842 18
 3021 0012 02CC     		sw	zero,24(sp)
 3022              	.LVL378:
 843:C:/Users/stapi/OneDrive/Desktop/GD32VW553/V1_MQTT_OK/GD32VW55X_Wifi_BLE_SDK/GD32VW55x_RELEASE_V1.0.2/MSDK/cloud/alicloud/src/services/linkkit/dm\dm_message.c ****     int service_offset = 0, serviceid_len = 0;
 3023              		.loc 1 843 5 is_stmt 1
 843:C:/Users/stapi/OneDrive/Desktop/GD32VW553/V1_MQTT_OK/GD32VW55X_Wifi_BLE_SDK/GD32VW55x_RELEASE_V1.0.2/MSDK/cloud/alicloud/src/services/linkkit/dm\dm_message.c ****     int service_offset = 0, serviceid_len = 0;
 3024              		.loc 1 843 9 is_stmt 0
 3025 0014 02CE     		sw	zero,28(sp)
 3026              	.LVL379:
 844:C:/Users/stapi/OneDrive/Desktop/GD32VW553/V1_MQTT_OK/GD32VW55X_Wifi_BLE_SDK/GD32VW55x_RELEASE_V1.0.2/MSDK/cloud/alicloud/src/services/linkkit/dm\dm_message.c **** 
 3027              		.loc 1 844 5 is_stmt 1
 3028              		.loc 1 847 5
 3029              		.loc 1 847 11 is_stmt 0
 3030 0016 97000000 		call	dm_mgr_search_device_by_pkdn
 3030      E7800000 
 3031              	.LVL380:
 848:C:/Users/stapi/OneDrive/Desktop/GD32VW553/V1_MQTT_OK/GD32VW55X_Wifi_BLE_SDK/GD32VW55x_RELEASE_V1.0.2/MSDK/cloud/alicloud/src/services/linkkit/dm\dm_message.c ****     if (res != SUCCESS_RETURN) {
 3032              		.loc 1 848 5 is_stmt 1
 3033              		.loc 1 848 8 is_stmt 0
 3034 001e 01C9     		beq	a0,zero,.L193
 3035              	.LVL381:
 3036              	.L201:
 849:C:/Users/stapi/OneDrive/Desktop/GD32VW553/V1_MQTT_OK/GD32VW55X_Wifi_BLE_SDK/GD32VW55x_RELEASE_V1.0.2/MSDK/cloud/alicloud/src/services/linkkit/dm\dm_message.c ****         return FAIL_RETURN;
 850:C:/Users/stapi/OneDrive/Desktop/GD32VW553/V1_MQTT_OK/GD32VW55X_Wifi_BLE_SDK/GD32VW55x_RELEASE_V1.0.2/MSDK/cloud/alicloud/src/services/linkkit/dm\dm_message.c ****     }
 851:C:/Users/stapi/OneDrive/Desktop/GD32VW553/V1_MQTT_OK/GD32VW55X_Wifi_BLE_SDK/GD32VW55x_RELEASE_V1.0.2/MSDK/cloud/alicloud/src/services/linkkit/dm\dm_message.c **** 
 852:C:/Users/stapi/OneDrive/Desktop/GD32VW553/V1_MQTT_OK/GD32VW55X_Wifi_BLE_SDK/GD32VW55x_RELEASE_V1.0.2/MSDK/cloud/alicloud/src/services/linkkit/dm\dm_message.c ****     /* Get Service ID */
 853:C:/Users/stapi/OneDrive/Desktop/GD32VW553/V1_MQTT_OK/GD32VW55X_Wifi_BLE_SDK/GD32VW55x_RELEASE_V1.0.2/MSDK/cloud/alicloud/src/services/linkkit/dm\dm_message.c ****     res = dm_utils_memtok(request->method.value, request->method.value_length, '.', 2, &service_off
 854:C:/Users/stapi/OneDrive/Desktop/GD32VW553/V1_MQTT_OK/GD32VW55X_Wifi_BLE_SDK/GD32VW55x_RELEASE_V1.0.2/MSDK/cloud/alicloud/src/services/linkkit/dm\dm_message.c ****     if (res != SUCCESS_RETURN || service_offset >= request->method.value_length - 1) {
 855:C:/Users/stapi/OneDrive/Desktop/GD32VW553/V1_MQTT_OK/GD32VW55X_Wifi_BLE_SDK/GD32VW55x_RELEASE_V1.0.2/MSDK/cloud/alicloud/src/services/linkkit/dm\dm_message.c ****         return FAIL_RETURN;
 856:C:/Users/stapi/OneDrive/Desktop/GD32VW553/V1_MQTT_OK/GD32VW55X_Wifi_BLE_SDK/GD32VW55x_RELEASE_V1.0.2/MSDK/cloud/alicloud/src/services/linkkit/dm\dm_message.c ****     }
 857:C:/Users/stapi/OneDrive/Desktop/GD32VW553/V1_MQTT_OK/GD32VW55X_Wifi_BLE_SDK/GD32VW55x_RELEASE_V1.0.2/MSDK/cloud/alicloud/src/services/linkkit/dm\dm_message.c ****     serviceid_len = request->method.value_length - service_offset - 1;
 858:C:/Users/stapi/OneDrive/Desktop/GD32VW553/V1_MQTT_OK/GD32VW55X_Wifi_BLE_SDK/GD32VW55x_RELEASE_V1.0.2/MSDK/cloud/alicloud/src/services/linkkit/dm\dm_message.c ****     serviceid = request->method.value + service_offset + 1;
 859:C:/Users/stapi/OneDrive/Desktop/GD32VW553/V1_MQTT_OK/GD32VW55X_Wifi_BLE_SDK/GD32VW55x_RELEASE_V1.0.2/MSDK/cloud/alicloud/src/services/linkkit/dm\dm_message.c ****     /* dm_log_info("Current RRPC Service ID: %.*s", serviceid_len, serviceid); */
 860:C:/Users/stapi/OneDrive/Desktop/GD32VW553/V1_MQTT_OK/GD32VW55X_Wifi_BLE_SDK/GD32VW55x_RELEASE_V1.0.2/MSDK/cloud/alicloud/src/services/linkkit/dm\dm_message.c **** 
 861:C:/Users/stapi/OneDrive/Desktop/GD32VW553/V1_MQTT_OK/GD32VW55X_Wifi_BLE_SDK/GD32VW55x_RELEASE_V1.0.2/MSDK/cloud/alicloud/src/services/linkkit/dm\dm_message.c ****     /* Send Message To User */
 862:C:/Users/stapi/OneDrive/Desktop/GD32VW553/V1_MQTT_OK/GD32VW55X_Wifi_BLE_SDK/GD32VW55x_RELEASE_V1.0.2/MSDK/cloud/alicloud/src/services/linkkit/dm\dm_message.c ****     message_len = strlen(DM_MSG_EVENT_RRPC_REQUEST_FMT) + request->id.value_length + DM_UTILS_UINT3
 863:C:/Users/stapi/OneDrive/Desktop/GD32VW553/V1_MQTT_OK/GD32VW55X_Wifi_BLE_SDK/GD32VW55x_RELEASE_V1.0.2/MSDK/cloud/alicloud/src/services/linkkit/dm\dm_message.c ****                   + rrpcid_len +
 864:C:/Users/stapi/OneDrive/Desktop/GD32VW553/V1_MQTT_OK/GD32VW55X_Wifi_BLE_SDK/GD32VW55x_RELEASE_V1.0.2/MSDK/cloud/alicloud/src/services/linkkit/dm\dm_message.c ****                   request->params.value_length + 1;
 865:C:/Users/stapi/OneDrive/Desktop/GD32VW553/V1_MQTT_OK/GD32VW55X_Wifi_BLE_SDK/GD32VW55x_RELEASE_V1.0.2/MSDK/cloud/alicloud/src/services/linkkit/dm\dm_message.c ****     message = DM_malloc(message_len);
 866:C:/Users/stapi/OneDrive/Desktop/GD32VW553/V1_MQTT_OK/GD32VW55X_Wifi_BLE_SDK/GD32VW55x_RELEASE_V1.0.2/MSDK/cloud/alicloud/src/services/linkkit/dm\dm_message.c ****     if (message == NULL) {
 867:C:/Users/stapi/OneDrive/Desktop/GD32VW553/V1_MQTT_OK/GD32VW55X_Wifi_BLE_SDK/GD32VW55x_RELEASE_V1.0.2/MSDK/cloud/alicloud/src/services/linkkit/dm\dm_message.c ****         return DM_MEMORY_NOT_ENOUGH;
 868:C:/Users/stapi/OneDrive/Desktop/GD32VW553/V1_MQTT_OK/GD32VW55X_Wifi_BLE_SDK/GD32VW55x_RELEASE_V1.0.2/MSDK/cloud/alicloud/src/services/linkkit/dm\dm_message.c ****     }
 869:C:/Users/stapi/OneDrive/Desktop/GD32VW553/V1_MQTT_OK/GD32VW55X_Wifi_BLE_SDK/GD32VW55x_RELEASE_V1.0.2/MSDK/cloud/alicloud/src/services/linkkit/dm\dm_message.c ****     memset(message, 0, message_len);
 870:C:/Users/stapi/OneDrive/Desktop/GD32VW553/V1_MQTT_OK/GD32VW55X_Wifi_BLE_SDK/GD32VW55x_RELEASE_V1.0.2/MSDK/cloud/alicloud/src/services/linkkit/dm\dm_message.c ****     HAL_Snprintf(message, message_len, DM_MSG_EVENT_RRPC_REQUEST_FMT, request->id.value_length, req
 871:C:/Users/stapi/OneDrive/Desktop/GD32VW553/V1_MQTT_OK/GD32VW55X_Wifi_BLE_SDK/GD32VW55x_RELEASE_V1.0.2/MSDK/cloud/alicloud/src/services/linkkit/dm\dm_message.c ****                  serviceid_len, serviceid, rrpcid_len, rrpcid,
 872:C:/Users/stapi/OneDrive/Desktop/GD32VW553/V1_MQTT_OK/GD32VW55X_Wifi_BLE_SDK/GD32VW55x_RELEASE_V1.0.2/MSDK/cloud/alicloud/src/services/linkkit/dm\dm_message.c ****                  request->params.value_length, request->params.value);
 873:C:/Users/stapi/OneDrive/Desktop/GD32VW553/V1_MQTT_OK/GD32VW55X_Wifi_BLE_SDK/GD32VW55x_RELEASE_V1.0.2/MSDK/cloud/alicloud/src/services/linkkit/dm\dm_message.c **** 
 874:C:/Users/stapi/OneDrive/Desktop/GD32VW553/V1_MQTT_OK/GD32VW55X_Wifi_BLE_SDK/GD32VW55x_RELEASE_V1.0.2/MSDK/cloud/alicloud/src/services/linkkit/dm\dm_message.c ****     res = _dm_msg_send_to_user(IOTX_DM_EVENT_RRPC_REQUEST, message);
 875:C:/Users/stapi/OneDrive/Desktop/GD32VW553/V1_MQTT_OK/GD32VW55X_Wifi_BLE_SDK/GD32VW55x_RELEASE_V1.0.2/MSDK/cloud/alicloud/src/services/linkkit/dm\dm_message.c ****     if (res != SUCCESS_RETURN) {
 876:C:/Users/stapi/OneDrive/Desktop/GD32VW553/V1_MQTT_OK/GD32VW55X_Wifi_BLE_SDK/GD32VW55x_RELEASE_V1.0.2/MSDK/cloud/alicloud/src/services/linkkit/dm\dm_message.c ****         DM_free(message);
 3037              		.loc 1 876 9 is_stmt 1
 3038              		.loc 1 876 25
 877:C:/Users/stapi/OneDrive/Desktop/GD32VW553/V1_MQTT_OK/GD32VW55X_Wifi_BLE_SDK/GD32VW55x_RELEASE_V1.0.2/MSDK/cloud/alicloud/src/services/linkkit/dm\dm_message.c ****         return FAIL_RETURN;
 3039              		.loc 1 877 9
 3040              		.loc 1 877 16 is_stmt 0
 3041 0020 FD57     		li	a5,-1
 3042              	.LVL382:
 3043              	.L192:
 878:C:/Users/stapi/OneDrive/Desktop/GD32VW553/V1_MQTT_OK/GD32VW55X_Wifi_BLE_SDK/GD32VW55x_RELEASE_V1.0.2/MSDK/cloud/alicloud/src/services/linkkit/dm\dm_message.c ****     }
 879:C:/Users/stapi/OneDrive/Desktop/GD32VW553/V1_MQTT_OK/GD32VW55X_Wifi_BLE_SDK/GD32VW55x_RELEASE_V1.0.2/MSDK/cloud/alicloud/src/services/linkkit/dm\dm_message.c **** 
 880:C:/Users/stapi/OneDrive/Desktop/GD32VW553/V1_MQTT_OK/GD32VW55X_Wifi_BLE_SDK/GD32VW55x_RELEASE_V1.0.2/MSDK/cloud/alicloud/src/services/linkkit/dm\dm_message.c ****     return SUCCESS_RETURN;
 881:C:/Users/stapi/OneDrive/Desktop/GD32VW553/V1_MQTT_OK/GD32VW55X_Wifi_BLE_SDK/GD32VW55x_RELEASE_V1.0.2/MSDK/cloud/alicloud/src/services/linkkit/dm\dm_message.c **** }
 3044              		.loc 1 881 1
 3045 0022 3E85     		mv	a0,a5
 3046 0024 0561     		addi	sp,sp,32
 3047              		.cfi_remember_state
 3048              		.cfi_def_cfa_offset 0
 3049 0026 17030000 		tail	__riscv_restore_7
 3049      67000300 
 3050              		.cfi_restore 22
 3051              		.cfi_restore 21
 3052              		.cfi_restore 20
 3053              		.cfi_restore 19
 3054              		.cfi_restore 18
 3055              		.cfi_restore 9
 3056              		.cfi_restore 8
 3057              		.cfi_restore 1
 3058              		.cfi_def_cfa_offset -32
 3059              	.LVL383:
 3060              	.L193:
 3061              		.cfi_restore_state
 853:C:/Users/stapi/OneDrive/Desktop/GD32VW553/V1_MQTT_OK/GD32VW55X_Wifi_BLE_SDK/GD32VW55x_RELEASE_V1.0.2/MSDK/cloud/alicloud/src/services/linkkit/dm\dm_message.c ****     if (res != SUCCESS_RETURN || service_offset >= request->method.value_length - 1) {
 3062              		.loc 1 853 5 is_stmt 1
 853:C:/Users/stapi/OneDrive/Desktop/GD32VW553/V1_MQTT_OK/GD32VW55X_Wifi_BLE_SDK/GD32VW55x_RELEASE_V1.0.2/MSDK/cloud/alicloud/src/services/linkkit/dm\dm_message.c ****     if (res != SUCCESS_RETURN || service_offset >= request->method.value_length - 1) {
 3063              		.loc 1 853 11 is_stmt 0
 3064 002e 2C44     		lw	a1,72(s0)
 3065 0030 6840     		lw	a0,68(s0)
 3066              	.LVL384:
 3067 0032 7808     		addi	a4,sp,28
 3068 0034 8946     		li	a3,2
 3069 0036 1306E002 		li	a2,46
 3070 003a 97000000 		call	dm_utils_memtok
 3070      E7800000 
 3071              	.LVL385:
 854:C:/Users/stapi/OneDrive/Desktop/GD32VW553/V1_MQTT_OK/GD32VW55X_Wifi_BLE_SDK/GD32VW55x_RELEASE_V1.0.2/MSDK/cloud/alicloud/src/services/linkkit/dm\dm_message.c ****         return FAIL_RETURN;
 3072              		.loc 1 854 5 is_stmt 1
 854:C:/Users/stapi/OneDrive/Desktop/GD32VW553/V1_MQTT_OK/GD32VW55X_Wifi_BLE_SDK/GD32VW55x_RELEASE_V1.0.2/MSDK/cloud/alicloud/src/services/linkkit/dm\dm_message.c ****         return FAIL_RETURN;
 3073              		.loc 1 854 8 is_stmt 0
 3074 0042 79FD     		bne	a0,zero,.L201
 854:C:/Users/stapi/OneDrive/Desktop/GD32VW553/V1_MQTT_OK/GD32VW55X_Wifi_BLE_SDK/GD32VW55x_RELEASE_V1.0.2/MSDK/cloud/alicloud/src/services/linkkit/dm\dm_message.c ****         return FAIL_RETURN;
 3075              		.loc 1 854 67 discriminator 1
 3076 0044 03298404 		lw	s2,72(s0)
 854:C:/Users/stapi/OneDrive/Desktop/GD32VW553/V1_MQTT_OK/GD32VW55X_Wifi_BLE_SDK/GD32VW55x_RELEASE_V1.0.2/MSDK/cloud/alicloud/src/services/linkkit/dm\dm_message.c ****         return FAIL_RETURN;
 3077              		.loc 1 854 49 discriminator 1
 3078 0048 F248     		lw	a7,28(sp)
 854:C:/Users/stapi/OneDrive/Desktop/GD32VW553/V1_MQTT_OK/GD32VW55X_Wifi_BLE_SDK/GD32VW55x_RELEASE_V1.0.2/MSDK/cloud/alicloud/src/services/linkkit/dm\dm_message.c ****         return FAIL_RETURN;
 3079              		.loc 1 854 81 discriminator 1
 3080 004a 9307F9FF 		addi	a5,s2,-1
 854:C:/Users/stapi/OneDrive/Desktop/GD32VW553/V1_MQTT_OK/GD32VW55X_Wifi_BLE_SDK/GD32VW55x_RELEASE_V1.0.2/MSDK/cloud/alicloud/src/services/linkkit/dm\dm_message.c ****         return FAIL_RETURN;
 3081              		.loc 1 854 31 discriminator 1
 3082 004e E3D9F8FC 		ble	a5,a7,.L201
 857:C:/Users/stapi/OneDrive/Desktop/GD32VW553/V1_MQTT_OK/GD32VW55X_Wifi_BLE_SDK/GD32VW55x_RELEASE_V1.0.2/MSDK/cloud/alicloud/src/services/linkkit/dm\dm_message.c ****     serviceid = request->method.value + service_offset + 1;
 3083              		.loc 1 857 5 is_stmt 1
 864:C:/Users/stapi/OneDrive/Desktop/GD32VW553/V1_MQTT_OK/GD32VW55X_Wifi_BLE_SDK/GD32VW55x_RELEASE_V1.0.2/MSDK/cloud/alicloud/src/services/linkkit/dm\dm_message.c ****     message = DM_malloc(message_len);
 3084              		.loc 1 864 48 is_stmt 0
 3085 0052 1C44     		lw	a5,8(s0)
 3086 0054 93045A05 		addi	s1,s4,85
 857:C:/Users/stapi/OneDrive/Desktop/GD32VW553/V1_MQTT_OK/GD32VW55X_Wifi_BLE_SDK/GD32VW55x_RELEASE_V1.0.2/MSDK/cloud/alicloud/src/services/linkkit/dm\dm_message.c ****     serviceid = request->method.value + service_offset + 1;
 3087              		.loc 1 857 50
 3088 0058 33091941 		sub	s2,s2,a7
 864:C:/Users/stapi/OneDrive/Desktop/GD32VW553/V1_MQTT_OK/GD32VW55X_Wifi_BLE_SDK/GD32VW55x_RELEASE_V1.0.2/MSDK/cloud/alicloud/src/services/linkkit/dm\dm_message.c ****     message = DM_malloc(message_len);
 3089              		.loc 1 864 48
 3090 005c BE94     		add	s1,s1,a5
 3091 005e 3C54     		lw	a5,104(s0)
 858:C:/Users/stapi/OneDrive/Desktop/GD32VW553/V1_MQTT_OK/GD32VW55X_Wifi_BLE_SDK/GD32VW55x_RELEASE_V1.0.2/MSDK/cloud/alicloud/src/services/linkkit/dm\dm_message.c ****     /* dm_log_info("Current RRPC Service ID: %.*s", serviceid_len, serviceid); */
 3092              		.loc 1 858 15
 3093 0060 032B4404 		lw	s6,68(s0)
 857:C:/Users/stapi/OneDrive/Desktop/GD32VW553/V1_MQTT_OK/GD32VW55X_Wifi_BLE_SDK/GD32VW55x_RELEASE_V1.0.2/MSDK/cloud/alicloud/src/services/linkkit/dm\dm_message.c ****     serviceid = request->method.value + service_offset + 1;
 3094              		.loc 1 857 19
 3095 0064 7D19     		addi	s2,s2,-1
 3096              	.LVL386:
 858:C:/Users/stapi/OneDrive/Desktop/GD32VW553/V1_MQTT_OK/GD32VW55X_Wifi_BLE_SDK/GD32VW55x_RELEASE_V1.0.2/MSDK/cloud/alicloud/src/services/linkkit/dm\dm_message.c ****     /* dm_log_info("Current RRPC Service ID: %.*s", serviceid_len, serviceid); */
 3097              		.loc 1 858 5 is_stmt 1
 864:C:/Users/stapi/OneDrive/Desktop/GD32VW553/V1_MQTT_OK/GD32VW55X_Wifi_BLE_SDK/GD32VW55x_RELEASE_V1.0.2/MSDK/cloud/alicloud/src/services/linkkit/dm\dm_message.c ****     message = DM_malloc(message_len);
 3098              		.loc 1 864 48 is_stmt 0
 3099 0066 BE94     		add	s1,s1,a5
 3100 0068 CA94     		add	s1,s1,s2
 858:C:/Users/stapi/OneDrive/Desktop/GD32VW553/V1_MQTT_OK/GD32VW55X_Wifi_BLE_SDK/GD32VW55x_RELEASE_V1.0.2/MSDK/cloud/alicloud/src/services/linkkit/dm\dm_message.c ****     /* dm_log_info("Current RRPC Service ID: %.*s", serviceid_len, serviceid); */
 3101              		.loc 1 858 56
 3102 006a 8508     		addi	a7,a7,1
 865:C:/Users/stapi/OneDrive/Desktop/GD32VW553/V1_MQTT_OK/GD32VW55X_Wifi_BLE_SDK/GD32VW55x_RELEASE_V1.0.2/MSDK/cloud/alicloud/src/services/linkkit/dm\dm_message.c ****     if (message == NULL) {
 3103              		.loc 1 865 15
 3104 006c 2686     		mv	a2,s1
 3105 006e 8145     		li	a1,0
 858:C:/Users/stapi/OneDrive/Desktop/GD32VW553/V1_MQTT_OK/GD32VW55X_Wifi_BLE_SDK/GD32VW55x_RELEASE_V1.0.2/MSDK/cloud/alicloud/src/services/linkkit/dm\dm_message.c ****     /* dm_log_info("Current RRPC Service ID: %.*s", serviceid_len, serviceid); */
 3106              		.loc 1 858 15
 3107 0070 469B     		add	s6,s6,a7
 3108              	.LVL387:
 862:C:/Users/stapi/OneDrive/Desktop/GD32VW553/V1_MQTT_OK/GD32VW55X_Wifi_BLE_SDK/GD32VW55x_RELEASE_V1.0.2/MSDK/cloud/alicloud/src/services/linkkit/dm\dm_message.c ****                   + rrpcid_len +
 3109              		.loc 1 862 5 is_stmt 1
 865:C:/Users/stapi/OneDrive/Desktop/GD32VW553/V1_MQTT_OK/GD32VW55X_Wifi_BLE_SDK/GD32VW55x_RELEASE_V1.0.2/MSDK/cloud/alicloud/src/services/linkkit/dm\dm_message.c ****     if (message == NULL) {
 3110              		.loc 1 865 5
 865:C:/Users/stapi/OneDrive/Desktop/GD32VW553/V1_MQTT_OK/GD32VW55X_Wifi_BLE_SDK/GD32VW55x_RELEASE_V1.0.2/MSDK/cloud/alicloud/src/services/linkkit/dm\dm_message.c ****     if (message == NULL) {
 3111              		.loc 1 865 15 is_stmt 0
 3112 0072 97000000 		call	LITE_malloc_internal
 3112      E7800000 
 3113              	.LVL388:
 3114 007a AA89     		mv	s3,a0
 3115              	.LVL389:
 866:C:/Users/stapi/OneDrive/Desktop/GD32VW553/V1_MQTT_OK/GD32VW55X_Wifi_BLE_SDK/GD32VW55x_RELEASE_V1.0.2/MSDK/cloud/alicloud/src/services/linkkit/dm\dm_message.c ****         return DM_MEMORY_NOT_ENOUGH;
 3116              		.loc 1 866 5 is_stmt 1
 867:C:/Users/stapi/OneDrive/Desktop/GD32VW553/V1_MQTT_OK/GD32VW55X_Wifi_BLE_SDK/GD32VW55x_RELEASE_V1.0.2/MSDK/cloud/alicloud/src/services/linkkit/dm\dm_message.c ****     }
 3117              		.loc 1 867 16 is_stmt 0
 3118 007c F557     		li	a5,-3
 866:C:/Users/stapi/OneDrive/Desktop/GD32VW553/V1_MQTT_OK/GD32VW55X_Wifi_BLE_SDK/GD32VW55x_RELEASE_V1.0.2/MSDK/cloud/alicloud/src/services/linkkit/dm\dm_message.c ****         return DM_MEMORY_NOT_ENOUGH;
 3119              		.loc 1 866 8
 3120 007e 55D1     		beq	a0,zero,.L192
 869:C:/Users/stapi/OneDrive/Desktop/GD32VW553/V1_MQTT_OK/GD32VW55X_Wifi_BLE_SDK/GD32VW55x_RELEASE_V1.0.2/MSDK/cloud/alicloud/src/services/linkkit/dm\dm_message.c ****     HAL_Snprintf(message, message_len, DM_MSG_EVENT_RRPC_REQUEST_FMT, request->id.value_length, req
 3121              		.loc 1 869 5 is_stmt 1
 3122 0080 2686     		mv	a2,s1
 3123 0082 8145     		li	a1,0
 3124 0084 97000000 		call	memset
 3124      E7800000 
 3125              	.LVL390:
 870:C:/Users/stapi/OneDrive/Desktop/GD32VW553/V1_MQTT_OK/GD32VW55X_Wifi_BLE_SDK/GD32VW55x_RELEASE_V1.0.2/MSDK/cloud/alicloud/src/services/linkkit/dm\dm_message.c ****                  serviceid_len, serviceid, rrpcid_len, rrpcid,
 3126              		.loc 1 870 5
 3127 008c 7C50     		lw	a5,100(s0)
 3128 008e 5840     		lw	a4,4(s0)
 3129 0090 1444     		lw	a3,8(s0)
 3130 0092 3EC6     		sw	a5,12(sp)
 3131 0094 3C54     		lw	a5,104(s0)
 3132 0096 37060000 		lui	a2,%hi(.LANCHOR16)
 3133 009a DA88     		mv	a7,s6
 3134 009c 3EC4     		sw	a5,8(sp)
 3135 009e E247     		lw	a5,24(sp)
 3136 00a0 4A88     		mv	a6,s2
 3137 00a2 13060600 		addi	a2,a2,%lo(.LANCHOR16)
 3138 00a6 A685     		mv	a1,s1
 3139 00a8 56C2     		sw	s5,4(sp)
 3140 00aa 52C0     		sw	s4,0(sp)
 3141 00ac 4E85     		mv	a0,s3
 3142 00ae 97000000 		call	HAL_Snprintf
 3142      E7800000 
 3143              	.LVL391:
 874:C:/Users/stapi/OneDrive/Desktop/GD32VW553/V1_MQTT_OK/GD32VW55X_Wifi_BLE_SDK/GD32VW55x_RELEASE_V1.0.2/MSDK/cloud/alicloud/src/services/linkkit/dm\dm_message.c ****     if (res != SUCCESS_RETURN) {
 3144              		.loc 1 874 5
 874:C:/Users/stapi/OneDrive/Desktop/GD32VW553/V1_MQTT_OK/GD32VW55X_Wifi_BLE_SDK/GD32VW55x_RELEASE_V1.0.2/MSDK/cloud/alicloud/src/services/linkkit/dm\dm_message.c ****     if (res != SUCCESS_RETURN) {
 3145              		.loc 1 874 11 is_stmt 0
 3146 00b6 CE85     		mv	a1,s3
 3147 00b8 1305E002 		li	a0,46
 3148 00bc 97000000 		call	_dm_msg_send_to_user
 3148      E7800000 
 3149              	.LVL392:
 3150 00c4 AA87     		mv	a5,a0
 3151              	.LVL393:
 875:C:/Users/stapi/OneDrive/Desktop/GD32VW553/V1_MQTT_OK/GD32VW55X_Wifi_BLE_SDK/GD32VW55x_RELEASE_V1.0.2/MSDK/cloud/alicloud/src/services/linkkit/dm\dm_message.c ****         DM_free(message);
 3152              		.loc 1 875 5 is_stmt 1
 875:C:/Users/stapi/OneDrive/Desktop/GD32VW553/V1_MQTT_OK/GD32VW55X_Wifi_BLE_SDK/GD32VW55x_RELEASE_V1.0.2/MSDK/cloud/alicloud/src/services/linkkit/dm\dm_message.c ****         DM_free(message);
 3153              		.loc 1 875 8 is_stmt 0
 3154 00c6 31DD     		beq	a0,zero,.L192
 876:C:/Users/stapi/OneDrive/Desktop/GD32VW553/V1_MQTT_OK/GD32VW55X_Wifi_BLE_SDK/GD32VW55x_RELEASE_V1.0.2/MSDK/cloud/alicloud/src/services/linkkit/dm\dm_message.c ****         return FAIL_RETURN;
 3155              		.loc 1 876 9 is_stmt 1
 3156 00c8 4E85     		mv	a0,s3
 3157              	.LVL394:
 3158 00ca 97000000 		call	LITE_free_internal
 3158      E7800000 
 3159              	.LVL395:
 3160 00d2 B9B7     		j	.L201
 3161              		.cfi_endproc
 3162              	.LFE40:
 3164              		.section	.text.dm_msg_thing_event_notify,"ax",@progbits
 3165              		.align	1
 3166              		.globl	dm_msg_thing_event_notify
 3168              	dm_msg_thing_event_notify:
 3169              	.LFB41:
 882:C:/Users/stapi/OneDrive/Desktop/GD32VW553/V1_MQTT_OK/GD32VW55X_Wifi_BLE_SDK/GD32VW55x_RELEASE_V1.0.2/MSDK/cloud/alicloud/src/services/linkkit/dm\dm_message.c **** 
 883:C:/Users/stapi/OneDrive/Desktop/GD32VW553/V1_MQTT_OK/GD32VW55X_Wifi_BLE_SDK/GD32VW55x_RELEASE_V1.0.2/MSDK/cloud/alicloud/src/services/linkkit/dm\dm_message.c **** #ifdef LOG_REPORT_TO_CLOUD
 884:C:/Users/stapi/OneDrive/Desktop/GD32VW553/V1_MQTT_OK/GD32VW55X_Wifi_BLE_SDK/GD32VW55x_RELEASE_V1.0.2/MSDK/cloud/alicloud/src/services/linkkit/dm\dm_message.c ****     const char DM_MSG_EVENT_NOTIFY_FMT[] DM_READ_ONLY = "{\"devid\":%d,\"payload\":%.*s,\"msgid\":%
 885:C:/Users/stapi/OneDrive/Desktop/GD32VW553/V1_MQTT_OK/GD32VW55X_Wifi_BLE_SDK/GD32VW55x_RELEASE_V1.0.2/MSDK/cloud/alicloud/src/services/linkkit/dm\dm_message.c **** #else
 886:C:/Users/stapi/OneDrive/Desktop/GD32VW553/V1_MQTT_OK/GD32VW55X_Wifi_BLE_SDK/GD32VW55x_RELEASE_V1.0.2/MSDK/cloud/alicloud/src/services/linkkit/dm\dm_message.c ****     const char DM_MSG_EVENT_NOTIFY_FMT[] DM_READ_ONLY = "{\"devid\":%d,\"payload\":%.*s}";
 887:C:/Users/stapi/OneDrive/Desktop/GD32VW553/V1_MQTT_OK/GD32VW55X_Wifi_BLE_SDK/GD32VW55x_RELEASE_V1.0.2/MSDK/cloud/alicloud/src/services/linkkit/dm\dm_message.c **** #endif
 888:C:/Users/stapi/OneDrive/Desktop/GD32VW553/V1_MQTT_OK/GD32VW55X_Wifi_BLE_SDK/GD32VW55x_RELEASE_V1.0.2/MSDK/cloud/alicloud/src/services/linkkit/dm\dm_message.c **** int dm_msg_thing_event_notify(int devid, dm_msg_request_payload_t *request)
 889:C:/Users/stapi/OneDrive/Desktop/GD32VW553/V1_MQTT_OK/GD32VW55X_Wifi_BLE_SDK/GD32VW55x_RELEASE_V1.0.2/MSDK/cloud/alicloud/src/services/linkkit/dm\dm_message.c **** {
 3170              		.loc 1 889 1
 3171              		.cfi_startproc
 3172              	.LVL396:
 3173 0000 17030000 		call	t0,__riscv_save_4
 3173      E7020300 
 3174              		.cfi_offset 19, -20
 3175              		.cfi_offset 18, -16
 3176              		.cfi_offset 9, -12
 3177              		.cfi_offset 8, -8
 3178              		.cfi_offset 1, -4
 3179              		.cfi_def_cfa_offset 32
 890:C:/Users/stapi/OneDrive/Desktop/GD32VW553/V1_MQTT_OK/GD32VW55X_Wifi_BLE_SDK/GD32VW55x_RELEASE_V1.0.2/MSDK/cloud/alicloud/src/services/linkkit/dm\dm_message.c ****     int res = 0, message_len = 0;
 3180              		.loc 1 890 5
 3181              	.LVL397:
 891:C:/Users/stapi/OneDrive/Desktop/GD32VW553/V1_MQTT_OK/GD32VW55X_Wifi_BLE_SDK/GD32VW55x_RELEASE_V1.0.2/MSDK/cloud/alicloud/src/services/linkkit/dm\dm_message.c ****     char *message = NULL;
 3182              		.loc 1 891 5
 892:C:/Users/stapi/OneDrive/Desktop/GD32VW553/V1_MQTT_OK/GD32VW55X_Wifi_BLE_SDK/GD32VW55x_RELEASE_V1.0.2/MSDK/cloud/alicloud/src/services/linkkit/dm\dm_message.c **** 
 893:C:/Users/stapi/OneDrive/Desktop/GD32VW553/V1_MQTT_OK/GD32VW55X_Wifi_BLE_SDK/GD32VW55x_RELEASE_V1.0.2/MSDK/cloud/alicloud/src/services/linkkit/dm\dm_message.c ****     message_len = strlen(DM_MSG_EVENT_NOTIFY_FMT) + DM_UTILS_UINT32_STRLEN + request->params.value_
 3183              		.loc 1 893 5
 3184              		.loc 1 893 107 is_stmt 0
 3185 0008 A455     		lw	s1,104(a1)
 889:C:/Users/stapi/OneDrive/Desktop/GD32VW553/V1_MQTT_OK/GD32VW55X_Wifi_BLE_SDK/GD32VW55x_RELEASE_V1.0.2/MSDK/cloud/alicloud/src/services/linkkit/dm\dm_message.c ****     int res = 0, message_len = 0;
 3186              		.loc 1 889 1
 3187 000a AA89     		mv	s3,a0
 3188 000c 2E89     		mv	s2,a1
 3189              		.loc 1 893 107
 3190 000e 93846402 		addi	s1,s1,38
 3191              	.LVL398:
 894:C:/Users/stapi/OneDrive/Desktop/GD32VW553/V1_MQTT_OK/GD32VW55X_Wifi_BLE_SDK/GD32VW55x_RELEASE_V1.0.2/MSDK/cloud/alicloud/src/services/linkkit/dm\dm_message.c ****     message = DM_malloc(message_len);
 3192              		.loc 1 894 5 is_stmt 1
 3193              		.loc 1 894 15 is_stmt 0
 3194 0012 2686     		mv	a2,s1
 3195 0014 8145     		li	a1,0
 3196              	.LVL399:
 3197 0016 0145     		li	a0,0
 3198              	.LVL400:
 3199 0018 97000000 		call	LITE_malloc_internal
 3199      E7800000 
 3200              	.LVL401:
 895:C:/Users/stapi/OneDrive/Desktop/GD32VW553/V1_MQTT_OK/GD32VW55X_Wifi_BLE_SDK/GD32VW55x_RELEASE_V1.0.2/MSDK/cloud/alicloud/src/services/linkkit/dm\dm_message.c ****     if (message == NULL) {
 3201              		.loc 1 895 5 is_stmt 1
 3202              		.loc 1 895 8 is_stmt 0
 3203 0020 29C9     		beq	a0,zero,.L204
 896:C:/Users/stapi/OneDrive/Desktop/GD32VW553/V1_MQTT_OK/GD32VW55X_Wifi_BLE_SDK/GD32VW55x_RELEASE_V1.0.2/MSDK/cloud/alicloud/src/services/linkkit/dm\dm_message.c ****         return DM_MEMORY_NOT_ENOUGH;
 897:C:/Users/stapi/OneDrive/Desktop/GD32VW553/V1_MQTT_OK/GD32VW55X_Wifi_BLE_SDK/GD32VW55x_RELEASE_V1.0.2/MSDK/cloud/alicloud/src/services/linkkit/dm\dm_message.c ****     }
 898:C:/Users/stapi/OneDrive/Desktop/GD32VW553/V1_MQTT_OK/GD32VW55X_Wifi_BLE_SDK/GD32VW55x_RELEASE_V1.0.2/MSDK/cloud/alicloud/src/services/linkkit/dm\dm_message.c ****     memset(message, 0, message_len);
 3204              		.loc 1 898 5
 3205 0022 2686     		mv	a2,s1
 3206 0024 8145     		li	a1,0
 3207 0026 2A84     		mv	s0,a0
 3208              		.loc 1 898 5 is_stmt 1
 3209 0028 97000000 		call	memset
 3209      E7800000 
 3210              	.LVL402:
 899:C:/Users/stapi/OneDrive/Desktop/GD32VW553/V1_MQTT_OK/GD32VW55X_Wifi_BLE_SDK/GD32VW55x_RELEASE_V1.0.2/MSDK/cloud/alicloud/src/services/linkkit/dm\dm_message.c **** #ifdef LOG_REPORT_TO_CLOUD
 900:C:/Users/stapi/OneDrive/Desktop/GD32VW553/V1_MQTT_OK/GD32VW55X_Wifi_BLE_SDK/GD32VW55x_RELEASE_V1.0.2/MSDK/cloud/alicloud/src/services/linkkit/dm\dm_message.c ****     HAL_Snprintf(message, message_len, DM_MSG_EVENT_NOTIFY_FMT, devid, request->params.value_length
 901:C:/Users/stapi/OneDrive/Desktop/GD32VW553/V1_MQTT_OK/GD32VW55X_Wifi_BLE_SDK/GD32VW55x_RELEASE_V1.0.2/MSDK/cloud/alicloud/src/services/linkkit/dm\dm_message.c ****                  request->id.value_length, request->id.value);
 902:C:/Users/stapi/OneDrive/Desktop/GD32VW553/V1_MQTT_OK/GD32VW55X_Wifi_BLE_SDK/GD32VW55x_RELEASE_V1.0.2/MSDK/cloud/alicloud/src/services/linkkit/dm\dm_message.c **** #else
 903:C:/Users/stapi/OneDrive/Desktop/GD32VW553/V1_MQTT_OK/GD32VW55X_Wifi_BLE_SDK/GD32VW55x_RELEASE_V1.0.2/MSDK/cloud/alicloud/src/services/linkkit/dm\dm_message.c ****     HAL_Snprintf(message, message_len, DM_MSG_EVENT_NOTIFY_FMT, devid, request->params.value_length
 3211              		.loc 1 903 5
 3212 0030 83274906 		lw	a5,100(s2)
 3213 0034 03278906 		lw	a4,104(s2)
 3214 0038 37060000 		lui	a2,%hi(.LANCHOR17)
 3215 003c A685     		mv	a1,s1
 3216 003e CE86     		mv	a3,s3
 3217 0040 13060600 		addi	a2,a2,%lo(.LANCHOR17)
 3218 0044 2285     		mv	a0,s0
 3219 0046 97000000 		call	HAL_Snprintf
 3219      E7800000 
 3220              	.LVL403:
 904:C:/Users/stapi/OneDrive/Desktop/GD32VW553/V1_MQTT_OK/GD32VW55X_Wifi_BLE_SDK/GD32VW55x_RELEASE_V1.0.2/MSDK/cloud/alicloud/src/services/linkkit/dm\dm_message.c **** #endif
 905:C:/Users/stapi/OneDrive/Desktop/GD32VW553/V1_MQTT_OK/GD32VW55X_Wifi_BLE_SDK/GD32VW55x_RELEASE_V1.0.2/MSDK/cloud/alicloud/src/services/linkkit/dm\dm_message.c ****     res = _dm_msg_send_to_user(IOTX_DM_EVENT_THING_EVENT_NOTIFY, message);
 3221              		.loc 1 905 5
 3222              		.loc 1 905 11 is_stmt 0
 3223 004e A285     		mv	a1,s0
 3224 0050 13050003 		li	a0,48
 3225 0054 97000000 		call	_dm_msg_send_to_user
 3225      E7800000 
 3226              	.LVL404:
 906:C:/Users/stapi/OneDrive/Desktop/GD32VW553/V1_MQTT_OK/GD32VW55X_Wifi_BLE_SDK/GD32VW55x_RELEASE_V1.0.2/MSDK/cloud/alicloud/src/services/linkkit/dm\dm_message.c ****     if (res != SUCCESS_RETURN) {
 3227              		.loc 1 906 5 is_stmt 1
 3228              		.loc 1 906 8 is_stmt 0
 3229 005c 19C5     		beq	a0,zero,.L202
 907:C:/Users/stapi/OneDrive/Desktop/GD32VW553/V1_MQTT_OK/GD32VW55X_Wifi_BLE_SDK/GD32VW55x_RELEASE_V1.0.2/MSDK/cloud/alicloud/src/services/linkkit/dm\dm_message.c ****         DM_free(message);
 3230              		.loc 1 907 9 is_stmt 1
 3231 005e 2285     		mv	a0,s0
 3232              	.LVL405:
 3233 0060 97000000 		call	LITE_free_internal
 3233      E7800000 
 3234              	.LVL406:
 3235              		.loc 1 907 9
 3236              		.loc 1 907 25
 908:C:/Users/stapi/OneDrive/Desktop/GD32VW553/V1_MQTT_OK/GD32VW55X_Wifi_BLE_SDK/GD32VW55x_RELEASE_V1.0.2/MSDK/cloud/alicloud/src/services/linkkit/dm\dm_message.c ****         return FAIL_RETURN;
 3237              		.loc 1 908 9
 3238              		.loc 1 908 16 is_stmt 0
 3239 0068 7D55     		li	a0,-1
 3240              	.LVL407:
 3241              	.L202:
 909:C:/Users/stapi/OneDrive/Desktop/GD32VW553/V1_MQTT_OK/GD32VW55X_Wifi_BLE_SDK/GD32VW55x_RELEASE_V1.0.2/MSDK/cloud/alicloud/src/services/linkkit/dm\dm_message.c ****     }
 910:C:/Users/stapi/OneDrive/Desktop/GD32VW553/V1_MQTT_OK/GD32VW55X_Wifi_BLE_SDK/GD32VW55x_RELEASE_V1.0.2/MSDK/cloud/alicloud/src/services/linkkit/dm\dm_message.c ****     return SUCCESS_RETURN;
 911:C:/Users/stapi/OneDrive/Desktop/GD32VW553/V1_MQTT_OK/GD32VW55X_Wifi_BLE_SDK/GD32VW55x_RELEASE_V1.0.2/MSDK/cloud/alicloud/src/services/linkkit/dm\dm_message.c **** }
 3242              		.loc 1 911 1
 3243 006a 17030000 		tail	__riscv_restore_4
 3243      67000300 
 3244              		.cfi_remember_state
 3245              		.cfi_restore 19
 3246              		.cfi_restore 18
 3247              		.cfi_restore 9
 3248              		.cfi_restore 8
 3249              		.cfi_restore 1
 3250              		.cfi_def_cfa_offset 0
 3251              	.LVL408:
 3252              	.L204:
 3253              		.cfi_restore_state
 896:C:/Users/stapi/OneDrive/Desktop/GD32VW553/V1_MQTT_OK/GD32VW55X_Wifi_BLE_SDK/GD32VW55x_RELEASE_V1.0.2/MSDK/cloud/alicloud/src/services/linkkit/dm\dm_message.c ****     }
 3254              		.loc 1 896 16
 3255 0072 7555     		li	a0,-3
 3256              	.LVL409:
 3257 0074 DDBF     		j	.L202
 3258              		.cfi_endproc
 3259              	.LFE41:
 3261              		.section	.rodata.dm_msg_ntp_response.str1.4,"aMS",@progbits,1
 3262              		.align	2
 3263              	.LC23:
 3264 0000 73657276 		.string	"serverSendTime"
 3264      65725365 
 3264      6E645469 
 3264      6D6500
 3265              		.section	.text.dm_msg_ntp_response,"ax",@progbits
 3266              		.align	1
 3267              		.globl	dm_msg_ntp_response
 3269              	dm_msg_ntp_response:
 3270              	.LFB42:
 912:C:/Users/stapi/OneDrive/Desktop/GD32VW553/V1_MQTT_OK/GD32VW55X_Wifi_BLE_SDK/GD32VW55x_RELEASE_V1.0.2/MSDK/cloud/alicloud/src/services/linkkit/dm\dm_message.c **** 
 913:C:/Users/stapi/OneDrive/Desktop/GD32VW553/V1_MQTT_OK/GD32VW55X_Wifi_BLE_SDK/GD32VW55x_RELEASE_V1.0.2/MSDK/cloud/alicloud/src/services/linkkit/dm\dm_message.c **** const char DM_MSG_THING_NTP_RESPONSE_FMT[] DM_READ_ONLY = "{\"utc\":\"%.*s\"}";
 914:C:/Users/stapi/OneDrive/Desktop/GD32VW553/V1_MQTT_OK/GD32VW55X_Wifi_BLE_SDK/GD32VW55x_RELEASE_V1.0.2/MSDK/cloud/alicloud/src/services/linkkit/dm\dm_message.c **** int dm_msg_ntp_response(char *payload, int payload_len)
 915:C:/Users/stapi/OneDrive/Desktop/GD32VW553/V1_MQTT_OK/GD32VW55X_Wifi_BLE_SDK/GD32VW55x_RELEASE_V1.0.2/MSDK/cloud/alicloud/src/services/linkkit/dm\dm_message.c **** {
 3271              		.loc 1 915 1 is_stmt 1
 3272              		.cfi_startproc
 3273              	.LVL410:
 3274 0000 17030000 		call	t0,__riscv_save_2
 3274      E7020300 
 3275              		.cfi_offset 9, -12
 3276              		.cfi_offset 8, -8
 3277              		.cfi_offset 1, -4
 3278              		.cfi_def_cfa_offset 16
 916:C:/Users/stapi/OneDrive/Desktop/GD32VW553/V1_MQTT_OK/GD32VW55X_Wifi_BLE_SDK/GD32VW55x_RELEASE_V1.0.2/MSDK/cloud/alicloud/src/services/linkkit/dm\dm_message.c ****     int res = 0, message_len = 0;
 3279              		.loc 1 916 5
 3280              	.LVL411:
 917:C:/Users/stapi/OneDrive/Desktop/GD32VW553/V1_MQTT_OK/GD32VW55X_Wifi_BLE_SDK/GD32VW55x_RELEASE_V1.0.2/MSDK/cloud/alicloud/src/services/linkkit/dm\dm_message.c ****     char *message = NULL;
 3281              		.loc 1 917 5
 918:C:/Users/stapi/OneDrive/Desktop/GD32VW553/V1_MQTT_OK/GD32VW55X_Wifi_BLE_SDK/GD32VW55x_RELEASE_V1.0.2/MSDK/cloud/alicloud/src/services/linkkit/dm\dm_message.c ****     uint64_t utc = 0;
 3282              		.loc 1 918 5
 919:C:/Users/stapi/OneDrive/Desktop/GD32VW553/V1_MQTT_OK/GD32VW55X_Wifi_BLE_SDK/GD32VW55x_RELEASE_V1.0.2/MSDK/cloud/alicloud/src/services/linkkit/dm\dm_message.c ****     lite_cjson_t lite, lite_item_server_send_time;
 3283              		.loc 1 919 5
 920:C:/Users/stapi/OneDrive/Desktop/GD32VW553/V1_MQTT_OK/GD32VW55X_Wifi_BLE_SDK/GD32VW55x_RELEASE_V1.0.2/MSDK/cloud/alicloud/src/services/linkkit/dm\dm_message.c ****     const char *serverSendTime = "serverSendTime";
 3284              		.loc 1 920 5
 921:C:/Users/stapi/OneDrive/Desktop/GD32VW553/V1_MQTT_OK/GD32VW55X_Wifi_BLE_SDK/GD32VW55x_RELEASE_V1.0.2/MSDK/cloud/alicloud/src/services/linkkit/dm\dm_message.c ****     char uint64_str[DM_UTILS_UINT64_STRLEN] = {0};
 3285              		.loc 1 921 5
 915:C:/Users/stapi/OneDrive/Desktop/GD32VW553/V1_MQTT_OK/GD32VW55X_Wifi_BLE_SDK/GD32VW55x_RELEASE_V1.0.2/MSDK/cloud/alicloud/src/services/linkkit/dm\dm_message.c ****     int res = 0, message_len = 0;
 3286              		.loc 1 915 1 is_stmt 0
 3287 0008 1D71     		addi	sp,sp,-96
 3288              		.cfi_def_cfa_offset 112
 3289              		.loc 1 921 10
 3290 000a 02C6     		sw	zero,12(sp)
 3291 000c 02C8     		sw	zero,16(sp)
 3292 000e 02CA     		sw	zero,20(sp)
 3293 0010 02CC     		sw	zero,24(sp)
 3294 0012 02CE     		sw	zero,28(sp)
 922:C:/Users/stapi/OneDrive/Desktop/GD32VW553/V1_MQTT_OK/GD32VW55X_Wifi_BLE_SDK/GD32VW55x_RELEASE_V1.0.2/MSDK/cloud/alicloud/src/services/linkkit/dm\dm_message.c **** 
 923:C:/Users/stapi/OneDrive/Desktop/GD32VW553/V1_MQTT_OK/GD32VW55X_Wifi_BLE_SDK/GD32VW55x_RELEASE_V1.0.2/MSDK/cloud/alicloud/src/services/linkkit/dm\dm_message.c ****     if (payload == NULL || payload_len <= 0) {
 3295              		.loc 1 923 5 is_stmt 1
 924:C:/Users/stapi/OneDrive/Desktop/GD32VW553/V1_MQTT_OK/GD32VW55X_Wifi_BLE_SDK/GD32VW55x_RELEASE_V1.0.2/MSDK/cloud/alicloud/src/services/linkkit/dm\dm_message.c ****         return DM_INVALID_PARAMETER;
 3296              		.loc 1 924 16 is_stmt 0
 3297 0014 F957     		li	a5,-2
 923:C:/Users/stapi/OneDrive/Desktop/GD32VW553/V1_MQTT_OK/GD32VW55X_Wifi_BLE_SDK/GD32VW55x_RELEASE_V1.0.2/MSDK/cloud/alicloud/src/services/linkkit/dm\dm_message.c ****         return DM_INVALID_PARAMETER;
 3298              		.loc 1 923 8
 3299 0016 09CD     		beq	a0,zero,.L209
 3300              		.loc 1 924 16 discriminator 1
 3301 0018 F957     		li	a5,-2
 923:C:/Users/stapi/OneDrive/Desktop/GD32VW553/V1_MQTT_OK/GD32VW55X_Wifi_BLE_SDK/GD32VW55x_RELEASE_V1.0.2/MSDK/cloud/alicloud/src/services/linkkit/dm\dm_message.c ****         return DM_INVALID_PARAMETER;
 3302              		.loc 1 923 25 discriminator 1
 3303 001a 635BB000 		ble	a1,zero,.L209
 925:C:/Users/stapi/OneDrive/Desktop/GD32VW553/V1_MQTT_OK/GD32VW55X_Wifi_BLE_SDK/GD32VW55x_RELEASE_V1.0.2/MSDK/cloud/alicloud/src/services/linkkit/dm\dm_message.c ****     }
 926:C:/Users/stapi/OneDrive/Desktop/GD32VW553/V1_MQTT_OK/GD32VW55X_Wifi_BLE_SDK/GD32VW55x_RELEASE_V1.0.2/MSDK/cloud/alicloud/src/services/linkkit/dm\dm_message.c **** 
 927:C:/Users/stapi/OneDrive/Desktop/GD32VW553/V1_MQTT_OK/GD32VW55X_Wifi_BLE_SDK/GD32VW55x_RELEASE_V1.0.2/MSDK/cloud/alicloud/src/services/linkkit/dm\dm_message.c ****     if (dm_utils_json_parse(payload, payload_len, cJSON_Object, &lite) != SUCCESS_RETURN ||
 3304              		.loc 1 927 5 is_stmt 1
 3305              		.loc 1 927 9 is_stmt 0
 3306 001e 1410     		addi	a3,sp,32
 3307 0020 13060004 		li	a2,64
 3308 0024 97000000 		call	dm_utils_json_parse
 3308      E7800000 
 3309              	.LVL412:
 3310              		.loc 1 927 8
 3311 002c 01C9     		beq	a0,zero,.L211
 3312              	.LVL413:
 3313              	.L220:
 928:C:/Users/stapi/OneDrive/Desktop/GD32VW553/V1_MQTT_OK/GD32VW55X_Wifi_BLE_SDK/GD32VW55x_RELEASE_V1.0.2/MSDK/cloud/alicloud/src/services/linkkit/dm\dm_message.c ****         dm_utils_json_object_item(&lite, serverSendTime, strlen(serverSendTime), cJSON_String,
 929:C:/Users/stapi/OneDrive/Desktop/GD32VW553/V1_MQTT_OK/GD32VW55X_Wifi_BLE_SDK/GD32VW55x_RELEASE_V1.0.2/MSDK/cloud/alicloud/src/services/linkkit/dm\dm_message.c ****                                   &lite_item_server_send_time) != SUCCESS_RETURN) {
 930:C:/Users/stapi/OneDrive/Desktop/GD32VW553/V1_MQTT_OK/GD32VW55X_Wifi_BLE_SDK/GD32VW55x_RELEASE_V1.0.2/MSDK/cloud/alicloud/src/services/linkkit/dm\dm_message.c ****         return FAIL_RETURN;
 931:C:/Users/stapi/OneDrive/Desktop/GD32VW553/V1_MQTT_OK/GD32VW55X_Wifi_BLE_SDK/GD32VW55x_RELEASE_V1.0.2/MSDK/cloud/alicloud/src/services/linkkit/dm\dm_message.c ****     }
 932:C:/Users/stapi/OneDrive/Desktop/GD32VW553/V1_MQTT_OK/GD32VW55X_Wifi_BLE_SDK/GD32VW55x_RELEASE_V1.0.2/MSDK/cloud/alicloud/src/services/linkkit/dm\dm_message.c **** 
 933:C:/Users/stapi/OneDrive/Desktop/GD32VW553/V1_MQTT_OK/GD32VW55X_Wifi_BLE_SDK/GD32VW55x_RELEASE_V1.0.2/MSDK/cloud/alicloud/src/services/linkkit/dm\dm_message.c ****     /* dm_log_debug("NTP Time In String: %.*s", lite_item_server_send_time.value_length, lite_item_
 934:C:/Users/stapi/OneDrive/Desktop/GD32VW553/V1_MQTT_OK/GD32VW55X_Wifi_BLE_SDK/GD32VW55x_RELEASE_V1.0.2/MSDK/cloud/alicloud/src/services/linkkit/dm\dm_message.c **** 
 935:C:/Users/stapi/OneDrive/Desktop/GD32VW553/V1_MQTT_OK/GD32VW55X_Wifi_BLE_SDK/GD32VW55x_RELEASE_V1.0.2/MSDK/cloud/alicloud/src/services/linkkit/dm\dm_message.c ****     memcpy(uint64_str, lite_item_server_send_time.value, lite_item_server_send_time.value_length);
 936:C:/Users/stapi/OneDrive/Desktop/GD32VW553/V1_MQTT_OK/GD32VW55X_Wifi_BLE_SDK/GD32VW55x_RELEASE_V1.0.2/MSDK/cloud/alicloud/src/services/linkkit/dm\dm_message.c ****     utc = atoll(uint64_str);
 937:C:/Users/stapi/OneDrive/Desktop/GD32VW553/V1_MQTT_OK/GD32VW55X_Wifi_BLE_SDK/GD32VW55x_RELEASE_V1.0.2/MSDK/cloud/alicloud/src/services/linkkit/dm\dm_message.c **** 
 938:C:/Users/stapi/OneDrive/Desktop/GD32VW553/V1_MQTT_OK/GD32VW55X_Wifi_BLE_SDK/GD32VW55x_RELEASE_V1.0.2/MSDK/cloud/alicloud/src/services/linkkit/dm\dm_message.c ****     /* dm_log_debug("NTP Time In Number: %lld", utc); */
 939:C:/Users/stapi/OneDrive/Desktop/GD32VW553/V1_MQTT_OK/GD32VW55X_Wifi_BLE_SDK/GD32VW55x_RELEASE_V1.0.2/MSDK/cloud/alicloud/src/services/linkkit/dm\dm_message.c **** 
 940:C:/Users/stapi/OneDrive/Desktop/GD32VW553/V1_MQTT_OK/GD32VW55X_Wifi_BLE_SDK/GD32VW55x_RELEASE_V1.0.2/MSDK/cloud/alicloud/src/services/linkkit/dm\dm_message.c ****     HAL_UTC_Set(utc);
 941:C:/Users/stapi/OneDrive/Desktop/GD32VW553/V1_MQTT_OK/GD32VW55X_Wifi_BLE_SDK/GD32VW55x_RELEASE_V1.0.2/MSDK/cloud/alicloud/src/services/linkkit/dm\dm_message.c **** 
 942:C:/Users/stapi/OneDrive/Desktop/GD32VW553/V1_MQTT_OK/GD32VW55X_Wifi_BLE_SDK/GD32VW55x_RELEASE_V1.0.2/MSDK/cloud/alicloud/src/services/linkkit/dm\dm_message.c ****     /* Send Message To User */
 943:C:/Users/stapi/OneDrive/Desktop/GD32VW553/V1_MQTT_OK/GD32VW55X_Wifi_BLE_SDK/GD32VW55x_RELEASE_V1.0.2/MSDK/cloud/alicloud/src/services/linkkit/dm\dm_message.c ****     message_len = strlen(DM_MSG_THING_NTP_RESPONSE_FMT) + DM_UTILS_UINT32_STRLEN + lite_item_server
 944:C:/Users/stapi/OneDrive/Desktop/GD32VW553/V1_MQTT_OK/GD32VW55X_Wifi_BLE_SDK/GD32VW55x_RELEASE_V1.0.2/MSDK/cloud/alicloud/src/services/linkkit/dm\dm_message.c ****                   1;
 945:C:/Users/stapi/OneDrive/Desktop/GD32VW553/V1_MQTT_OK/GD32VW55X_Wifi_BLE_SDK/GD32VW55x_RELEASE_V1.0.2/MSDK/cloud/alicloud/src/services/linkkit/dm\dm_message.c ****     message = DM_malloc(message_len);
 946:C:/Users/stapi/OneDrive/Desktop/GD32VW553/V1_MQTT_OK/GD32VW55X_Wifi_BLE_SDK/GD32VW55x_RELEASE_V1.0.2/MSDK/cloud/alicloud/src/services/linkkit/dm\dm_message.c ****     if (message == NULL) {
 947:C:/Users/stapi/OneDrive/Desktop/GD32VW553/V1_MQTT_OK/GD32VW55X_Wifi_BLE_SDK/GD32VW55x_RELEASE_V1.0.2/MSDK/cloud/alicloud/src/services/linkkit/dm\dm_message.c ****         return DM_MEMORY_NOT_ENOUGH;
 948:C:/Users/stapi/OneDrive/Desktop/GD32VW553/V1_MQTT_OK/GD32VW55X_Wifi_BLE_SDK/GD32VW55x_RELEASE_V1.0.2/MSDK/cloud/alicloud/src/services/linkkit/dm\dm_message.c ****     }
 949:C:/Users/stapi/OneDrive/Desktop/GD32VW553/V1_MQTT_OK/GD32VW55X_Wifi_BLE_SDK/GD32VW55x_RELEASE_V1.0.2/MSDK/cloud/alicloud/src/services/linkkit/dm\dm_message.c ****     memset(message, 0, message_len);
 950:C:/Users/stapi/OneDrive/Desktop/GD32VW553/V1_MQTT_OK/GD32VW55X_Wifi_BLE_SDK/GD32VW55x_RELEASE_V1.0.2/MSDK/cloud/alicloud/src/services/linkkit/dm\dm_message.c ****     HAL_Snprintf(message, message_len, DM_MSG_THING_NTP_RESPONSE_FMT, lite_item_server_send_time.va
 951:C:/Users/stapi/OneDrive/Desktop/GD32VW553/V1_MQTT_OK/GD32VW55X_Wifi_BLE_SDK/GD32VW55x_RELEASE_V1.0.2/MSDK/cloud/alicloud/src/services/linkkit/dm\dm_message.c ****                  lite_item_server_send_time.value);
 952:C:/Users/stapi/OneDrive/Desktop/GD32VW553/V1_MQTT_OK/GD32VW55X_Wifi_BLE_SDK/GD32VW55x_RELEASE_V1.0.2/MSDK/cloud/alicloud/src/services/linkkit/dm\dm_message.c **** 
 953:C:/Users/stapi/OneDrive/Desktop/GD32VW553/V1_MQTT_OK/GD32VW55X_Wifi_BLE_SDK/GD32VW55x_RELEASE_V1.0.2/MSDK/cloud/alicloud/src/services/linkkit/dm\dm_message.c ****     res = _dm_msg_send_to_user(IOTX_DM_EVENT_NTP_RESPONSE, message);
 954:C:/Users/stapi/OneDrive/Desktop/GD32VW553/V1_MQTT_OK/GD32VW55X_Wifi_BLE_SDK/GD32VW55x_RELEASE_V1.0.2/MSDK/cloud/alicloud/src/services/linkkit/dm\dm_message.c ****     if (res != SUCCESS_RETURN) {
 955:C:/Users/stapi/OneDrive/Desktop/GD32VW553/V1_MQTT_OK/GD32VW55X_Wifi_BLE_SDK/GD32VW55x_RELEASE_V1.0.2/MSDK/cloud/alicloud/src/services/linkkit/dm\dm_message.c ****         DM_free(message);
 3314              		.loc 1 955 9 is_stmt 1
 3315              		.loc 1 955 25
 956:C:/Users/stapi/OneDrive/Desktop/GD32VW553/V1_MQTT_OK/GD32VW55X_Wifi_BLE_SDK/GD32VW55x_RELEASE_V1.0.2/MSDK/cloud/alicloud/src/services/linkkit/dm\dm_message.c ****         return FAIL_RETURN;
 3316              		.loc 1 956 9
 3317              		.loc 1 956 16 is_stmt 0
 3318 002e FD57     		li	a5,-1
 3319              	.LVL414:
 3320              	.L209:
 957:C:/Users/stapi/OneDrive/Desktop/GD32VW553/V1_MQTT_OK/GD32VW55X_Wifi_BLE_SDK/GD32VW55x_RELEASE_V1.0.2/MSDK/cloud/alicloud/src/services/linkkit/dm\dm_message.c ****     }
 958:C:/Users/stapi/OneDrive/Desktop/GD32VW553/V1_MQTT_OK/GD32VW55X_Wifi_BLE_SDK/GD32VW55x_RELEASE_V1.0.2/MSDK/cloud/alicloud/src/services/linkkit/dm\dm_message.c **** 
 959:C:/Users/stapi/OneDrive/Desktop/GD32VW553/V1_MQTT_OK/GD32VW55X_Wifi_BLE_SDK/GD32VW55x_RELEASE_V1.0.2/MSDK/cloud/alicloud/src/services/linkkit/dm\dm_message.c ****     return SUCCESS_RETURN;
 960:C:/Users/stapi/OneDrive/Desktop/GD32VW553/V1_MQTT_OK/GD32VW55X_Wifi_BLE_SDK/GD32VW55x_RELEASE_V1.0.2/MSDK/cloud/alicloud/src/services/linkkit/dm\dm_message.c **** }
 3321              		.loc 1 960 1
 3322 0030 3E85     		mv	a0,a5
 3323 0032 2561     		addi	sp,sp,96
 3324              		.cfi_remember_state
 3325              		.cfi_def_cfa_offset 0
 3326 0034 17030000 		tail	__riscv_restore_2
 3326      67000300 
 3327              		.cfi_restore 9
 3328              		.cfi_restore 8
 3329              		.cfi_restore 1
 3330              		.cfi_def_cfa_offset -16
 3331              	.LVL415:
 3332              	.L211:
 3333              		.cfi_restore_state
 928:C:/Users/stapi/OneDrive/Desktop/GD32VW553/V1_MQTT_OK/GD32VW55X_Wifi_BLE_SDK/GD32VW55x_RELEASE_V1.0.2/MSDK/cloud/alicloud/src/services/linkkit/dm\dm_message.c ****                                   &lite_item_server_send_time) != SUCCESS_RETURN) {
 3334              		.loc 1 928 9 discriminator 1
 3335 003c B7050000 		lui	a1,%hi(.LC23)
 3336 0040 9800     		addi	a4,sp,64
 3337 0042 C146     		li	a3,16
 3338 0044 3946     		li	a2,14
 3339 0046 93850500 		addi	a1,a1,%lo(.LC23)
 3340 004a 0810     		addi	a0,sp,32
 3341 004c 97000000 		call	dm_utils_json_object_item
 3341      E7800000 
 3342              	.LVL416:
 927:C:/Users/stapi/OneDrive/Desktop/GD32VW553/V1_MQTT_OK/GD32VW55X_Wifi_BLE_SDK/GD32VW55x_RELEASE_V1.0.2/MSDK/cloud/alicloud/src/services/linkkit/dm\dm_message.c ****         dm_utils_json_object_item(&lite, serverSendTime, strlen(serverSendTime), cJSON_String,
 3343              		.loc 1 927 90 discriminator 1
 3344 0054 69FD     		bne	a0,zero,.L220
 935:C:/Users/stapi/OneDrive/Desktop/GD32VW553/V1_MQTT_OK/GD32VW55X_Wifi_BLE_SDK/GD32VW55x_RELEASE_V1.0.2/MSDK/cloud/alicloud/src/services/linkkit/dm\dm_message.c ****     utc = atoll(uint64_str);
 3345              		.loc 1 935 5 is_stmt 1
 3346 0056 2646     		lw	a2,72(sp)
 3347 0058 9645     		lw	a1,68(sp)
 3348 005a 6800     		addi	a0,sp,12
 3349 005c 97000000 		call	memcpy
 3349      E7800000 
 3350              	.LVL417:
 936:C:/Users/stapi/OneDrive/Desktop/GD32VW553/V1_MQTT_OK/GD32VW55X_Wifi_BLE_SDK/GD32VW55x_RELEASE_V1.0.2/MSDK/cloud/alicloud/src/services/linkkit/dm\dm_message.c **** 
 3351              		.loc 1 936 5
 936:C:/Users/stapi/OneDrive/Desktop/GD32VW553/V1_MQTT_OK/GD32VW55X_Wifi_BLE_SDK/GD32VW55x_RELEASE_V1.0.2/MSDK/cloud/alicloud/src/services/linkkit/dm\dm_message.c **** 
 3352              		.loc 1 936 11 is_stmt 0
 3353 0064 6800     		addi	a0,sp,12
 3354 0066 97000000 		call	atoll
 3354      E7800000 
 3355              	.LVL418:
 940:C:/Users/stapi/OneDrive/Desktop/GD32VW553/V1_MQTT_OK/GD32VW55X_Wifi_BLE_SDK/GD32VW55x_RELEASE_V1.0.2/MSDK/cloud/alicloud/src/services/linkkit/dm\dm_message.c **** 
 3356              		.loc 1 940 5 is_stmt 1
 3357 006e 97000000 		call	HAL_UTC_Set
 3357      E7800000 
 3358              	.LVL419:
 943:C:/Users/stapi/OneDrive/Desktop/GD32VW553/V1_MQTT_OK/GD32VW55X_Wifi_BLE_SDK/GD32VW55x_RELEASE_V1.0.2/MSDK/cloud/alicloud/src/services/linkkit/dm\dm_message.c ****                   1;
 3359              		.loc 1 943 5
 943:C:/Users/stapi/OneDrive/Desktop/GD32VW553/V1_MQTT_OK/GD32VW55X_Wifi_BLE_SDK/GD32VW55x_RELEASE_V1.0.2/MSDK/cloud/alicloud/src/services/linkkit/dm\dm_message.c ****                   1;
 3360              		.loc 1 943 124 is_stmt 0
 3361 0076 A644     		lw	s1,72(sp)
 945:C:/Users/stapi/OneDrive/Desktop/GD32VW553/V1_MQTT_OK/GD32VW55X_Wifi_BLE_SDK/GD32VW55x_RELEASE_V1.0.2/MSDK/cloud/alicloud/src/services/linkkit/dm\dm_message.c ****     if (message == NULL) {
 3362              		.loc 1 945 15
 3363 0078 8145     		li	a1,0
 3364 007a 0145     		li	a0,0
 943:C:/Users/stapi/OneDrive/Desktop/GD32VW553/V1_MQTT_OK/GD32VW55X_Wifi_BLE_SDK/GD32VW55x_RELEASE_V1.0.2/MSDK/cloud/alicloud/src/services/linkkit/dm\dm_message.c ****                   1;
 3365              		.loc 1 943 124
 3366 007c E504     		addi	s1,s1,25
 3367              	.LVL420:
 945:C:/Users/stapi/OneDrive/Desktop/GD32VW553/V1_MQTT_OK/GD32VW55X_Wifi_BLE_SDK/GD32VW55x_RELEASE_V1.0.2/MSDK/cloud/alicloud/src/services/linkkit/dm\dm_message.c ****     if (message == NULL) {
 3368              		.loc 1 945 5 is_stmt 1
 945:C:/Users/stapi/OneDrive/Desktop/GD32VW553/V1_MQTT_OK/GD32VW55X_Wifi_BLE_SDK/GD32VW55x_RELEASE_V1.0.2/MSDK/cloud/alicloud/src/services/linkkit/dm\dm_message.c ****     if (message == NULL) {
 3369              		.loc 1 945 15 is_stmt 0
 3370 007e 2686     		mv	a2,s1
 3371 0080 97000000 		call	LITE_malloc_internal
 3371      E7800000 
 3372              	.LVL421:
 3373 0088 2A84     		mv	s0,a0
 3374              	.LVL422:
 946:C:/Users/stapi/OneDrive/Desktop/GD32VW553/V1_MQTT_OK/GD32VW55X_Wifi_BLE_SDK/GD32VW55x_RELEASE_V1.0.2/MSDK/cloud/alicloud/src/services/linkkit/dm\dm_message.c ****         return DM_MEMORY_NOT_ENOUGH;
 3375              		.loc 1 946 5 is_stmt 1
 947:C:/Users/stapi/OneDrive/Desktop/GD32VW553/V1_MQTT_OK/GD32VW55X_Wifi_BLE_SDK/GD32VW55x_RELEASE_V1.0.2/MSDK/cloud/alicloud/src/services/linkkit/dm\dm_message.c ****     }
 3376              		.loc 1 947 16 is_stmt 0
 3377 008a F557     		li	a5,-3
 946:C:/Users/stapi/OneDrive/Desktop/GD32VW553/V1_MQTT_OK/GD32VW55X_Wifi_BLE_SDK/GD32VW55x_RELEASE_V1.0.2/MSDK/cloud/alicloud/src/services/linkkit/dm\dm_message.c ****         return DM_MEMORY_NOT_ENOUGH;
 3378              		.loc 1 946 8
 3379 008c 55D1     		beq	a0,zero,.L209
 949:C:/Users/stapi/OneDrive/Desktop/GD32VW553/V1_MQTT_OK/GD32VW55X_Wifi_BLE_SDK/GD32VW55x_RELEASE_V1.0.2/MSDK/cloud/alicloud/src/services/linkkit/dm\dm_message.c ****     HAL_Snprintf(message, message_len, DM_MSG_THING_NTP_RESPONSE_FMT, lite_item_server_send_time.va
 3380              		.loc 1 949 5 is_stmt 1
 3381 008e 2686     		mv	a2,s1
 3382 0090 8145     		li	a1,0
 3383 0092 97000000 		call	memset
 3383      E7800000 
 3384              	.LVL423:
 950:C:/Users/stapi/OneDrive/Desktop/GD32VW553/V1_MQTT_OK/GD32VW55X_Wifi_BLE_SDK/GD32VW55x_RELEASE_V1.0.2/MSDK/cloud/alicloud/src/services/linkkit/dm\dm_message.c ****                  lite_item_server_send_time.value);
 3385              		.loc 1 950 5
 3386 009a 1647     		lw	a4,68(sp)
 3387 009c A646     		lw	a3,72(sp)
 3388 009e 37060000 		lui	a2,%hi(.LANCHOR18)
 3389 00a2 13060600 		addi	a2,a2,%lo(.LANCHOR18)
 3390 00a6 A685     		mv	a1,s1
 3391 00a8 2285     		mv	a0,s0
 3392 00aa 97000000 		call	HAL_Snprintf
 3392      E7800000 
 3393              	.LVL424:
 953:C:/Users/stapi/OneDrive/Desktop/GD32VW553/V1_MQTT_OK/GD32VW55X_Wifi_BLE_SDK/GD32VW55x_RELEASE_V1.0.2/MSDK/cloud/alicloud/src/services/linkkit/dm\dm_message.c ****     if (res != SUCCESS_RETURN) {
 3394              		.loc 1 953 5
 953:C:/Users/stapi/OneDrive/Desktop/GD32VW553/V1_MQTT_OK/GD32VW55X_Wifi_BLE_SDK/GD32VW55x_RELEASE_V1.0.2/MSDK/cloud/alicloud/src/services/linkkit/dm\dm_message.c ****     if (res != SUCCESS_RETURN) {
 3395              		.loc 1 953 11 is_stmt 0
 3396 00b2 A285     		mv	a1,s0
 3397 00b4 1305D002 		li	a0,45
 3398 00b8 97000000 		call	_dm_msg_send_to_user
 3398      E7800000 
 3399              	.LVL425:
 3400 00c0 AA87     		mv	a5,a0
 3401              	.LVL426:
 954:C:/Users/stapi/OneDrive/Desktop/GD32VW553/V1_MQTT_OK/GD32VW55X_Wifi_BLE_SDK/GD32VW55x_RELEASE_V1.0.2/MSDK/cloud/alicloud/src/services/linkkit/dm\dm_message.c ****         DM_free(message);
 3402              		.loc 1 954 5 is_stmt 1
 954:C:/Users/stapi/OneDrive/Desktop/GD32VW553/V1_MQTT_OK/GD32VW55X_Wifi_BLE_SDK/GD32VW55x_RELEASE_V1.0.2/MSDK/cloud/alicloud/src/services/linkkit/dm\dm_message.c ****         DM_free(message);
 3403              		.loc 1 954 8 is_stmt 0
 3404 00c2 3DD5     		beq	a0,zero,.L209
 955:C:/Users/stapi/OneDrive/Desktop/GD32VW553/V1_MQTT_OK/GD32VW55X_Wifi_BLE_SDK/GD32VW55x_RELEASE_V1.0.2/MSDK/cloud/alicloud/src/services/linkkit/dm\dm_message.c ****         return FAIL_RETURN;
 3405              		.loc 1 955 9 is_stmt 1
 3406 00c4 2285     		mv	a0,s0
 3407              	.LVL427:
 3408 00c6 97000000 		call	LITE_free_internal
 3408      E7800000 
 3409              	.LVL428:
 3410 00ce 85B7     		j	.L220
 3411              		.cfi_endproc
 3412              	.LFE42:
 3414              		.section	.text.dm_msg_ext_error_response,"ax",@progbits
 3415              		.align	1
 3416              		.globl	dm_msg_ext_error_response
 3418              	dm_msg_ext_error_response:
 3419              	.LFB43:
 961:C:/Users/stapi/OneDrive/Desktop/GD32VW553/V1_MQTT_OK/GD32VW55X_Wifi_BLE_SDK/GD32VW55x_RELEASE_V1.0.2/MSDK/cloud/alicloud/src/services/linkkit/dm\dm_message.c **** 
 962:C:/Users/stapi/OneDrive/Desktop/GD32VW553/V1_MQTT_OK/GD32VW55X_Wifi_BLE_SDK/GD32VW55x_RELEASE_V1.0.2/MSDK/cloud/alicloud/src/services/linkkit/dm\dm_message.c **** int dm_msg_ext_error_response(char *payload, int payload_len)
 963:C:/Users/stapi/OneDrive/Desktop/GD32VW553/V1_MQTT_OK/GD32VW55X_Wifi_BLE_SDK/GD32VW55x_RELEASE_V1.0.2/MSDK/cloud/alicloud/src/services/linkkit/dm\dm_message.c **** {
 3420              		.loc 1 963 1
 3421              		.cfi_startproc
 3422              	.LVL429:
 964:C:/Users/stapi/OneDrive/Desktop/GD32VW553/V1_MQTT_OK/GD32VW55X_Wifi_BLE_SDK/GD32VW55x_RELEASE_V1.0.2/MSDK/cloud/alicloud/src/services/linkkit/dm\dm_message.c ****     int res = 0, message_len = 0;
 3423              		.loc 1 964 5
 965:C:/Users/stapi/OneDrive/Desktop/GD32VW553/V1_MQTT_OK/GD32VW55X_Wifi_BLE_SDK/GD32VW55x_RELEASE_V1.0.2/MSDK/cloud/alicloud/src/services/linkkit/dm\dm_message.c ****     char *message = NULL;
 3424              		.loc 1 965 5
 966:C:/Users/stapi/OneDrive/Desktop/GD32VW553/V1_MQTT_OK/GD32VW55X_Wifi_BLE_SDK/GD32VW55x_RELEASE_V1.0.2/MSDK/cloud/alicloud/src/services/linkkit/dm\dm_message.c ****     if (payload == NULL || payload_len <= 0) {
 3425              		.loc 1 966 5
 3426              		.loc 1 966 8 is_stmt 0
 3427 0000 2DC9     		beq	a0,zero,.L223
 963:C:/Users/stapi/OneDrive/Desktop/GD32VW553/V1_MQTT_OK/GD32VW55X_Wifi_BLE_SDK/GD32VW55x_RELEASE_V1.0.2/MSDK/cloud/alicloud/src/services/linkkit/dm\dm_message.c ****     int res = 0, message_len = 0;
 3428              		.loc 1 963 1 discriminator 1
 3429 0002 17030000 		call	t0,__riscv_save_3
 3429      E7020300 
 3430              		.cfi_offset 18, -16
 3431              		.cfi_offset 9, -12
 3432              		.cfi_offset 8, -8
 3433              		.cfi_offset 1, -4
 3434              		.cfi_def_cfa_offset 16
 3435 000a 4111     		addi	sp,sp,-16
 3436              		.cfi_def_cfa_offset 32
 3437 000c AE84     		mv	s1,a1
 967:C:/Users/stapi/OneDrive/Desktop/GD32VW553/V1_MQTT_OK/GD32VW55X_Wifi_BLE_SDK/GD32VW55x_RELEASE_V1.0.2/MSDK/cloud/alicloud/src/services/linkkit/dm\dm_message.c ****         return DM_INVALID_PARAMETER;
 3438              		.loc 1 967 16 discriminator 1
 3439 000e F957     		li	a5,-2
 966:C:/Users/stapi/OneDrive/Desktop/GD32VW553/V1_MQTT_OK/GD32VW55X_Wifi_BLE_SDK/GD32VW55x_RELEASE_V1.0.2/MSDK/cloud/alicloud/src/services/linkkit/dm\dm_message.c ****     if (payload == NULL || payload_len <= 0) {
 3440              		.loc 1 966 25 discriminator 1
 3441 0010 635BB004 		ble	a1,zero,.L221
 968:C:/Users/stapi/OneDrive/Desktop/GD32VW553/V1_MQTT_OK/GD32VW55X_Wifi_BLE_SDK/GD32VW55x_RELEASE_V1.0.2/MSDK/cloud/alicloud/src/services/linkkit/dm\dm_message.c ****     }
 969:C:/Users/stapi/OneDrive/Desktop/GD32VW553/V1_MQTT_OK/GD32VW55X_Wifi_BLE_SDK/GD32VW55x_RELEASE_V1.0.2/MSDK/cloud/alicloud/src/services/linkkit/dm\dm_message.c **** 
 970:C:/Users/stapi/OneDrive/Desktop/GD32VW553/V1_MQTT_OK/GD32VW55X_Wifi_BLE_SDK/GD32VW55x_RELEASE_V1.0.2/MSDK/cloud/alicloud/src/services/linkkit/dm\dm_message.c ****     message_len = payload_len + 1;
 3442              		.loc 1 970 17
 3443 0014 13861500 		addi	a2,a1,1
 3444 0018 2A89     		mv	s2,a0
 3445              		.loc 1 970 5 is_stmt 1
 3446              	.LVL430:
 971:C:/Users/stapi/OneDrive/Desktop/GD32VW553/V1_MQTT_OK/GD32VW55X_Wifi_BLE_SDK/GD32VW55x_RELEASE_V1.0.2/MSDK/cloud/alicloud/src/services/linkkit/dm\dm_message.c ****     message = DM_malloc(message_len);
 3447              		.loc 1 971 5
 3448              		.loc 1 971 15 is_stmt 0
 3449 001a 8145     		li	a1,0
 3450              	.LVL431:
 3451 001c 0145     		li	a0,0
 3452              	.LVL432:
 3453 001e 32C6     		sw	a2,12(sp)
 3454 0020 97000000 		call	LITE_malloc_internal
 3454      E7800000 
 3455              	.LVL433:
 3456 0028 2A84     		mv	s0,a0
 3457              	.LVL434:
 972:C:/Users/stapi/OneDrive/Desktop/GD32VW553/V1_MQTT_OK/GD32VW55X_Wifi_BLE_SDK/GD32VW55x_RELEASE_V1.0.2/MSDK/cloud/alicloud/src/services/linkkit/dm\dm_message.c ****     if (message == NULL) {
 3458              		.loc 1 972 5 is_stmt 1
 973:C:/Users/stapi/OneDrive/Desktop/GD32VW553/V1_MQTT_OK/GD32VW55X_Wifi_BLE_SDK/GD32VW55x_RELEASE_V1.0.2/MSDK/cloud/alicloud/src/services/linkkit/dm\dm_message.c ****         return DM_MEMORY_NOT_ENOUGH;
 3459              		.loc 1 973 16 is_stmt 0
 3460 002a F557     		li	a5,-3
 972:C:/Users/stapi/OneDrive/Desktop/GD32VW553/V1_MQTT_OK/GD32VW55X_Wifi_BLE_SDK/GD32VW55x_RELEASE_V1.0.2/MSDK/cloud/alicloud/src/services/linkkit/dm\dm_message.c ****     if (message == NULL) {
 3461              		.loc 1 972 8
 3462 002c 0DCD     		beq	a0,zero,.L221
 974:C:/Users/stapi/OneDrive/Desktop/GD32VW553/V1_MQTT_OK/GD32VW55X_Wifi_BLE_SDK/GD32VW55x_RELEASE_V1.0.2/MSDK/cloud/alicloud/src/services/linkkit/dm\dm_message.c ****     }
 975:C:/Users/stapi/OneDrive/Desktop/GD32VW553/V1_MQTT_OK/GD32VW55X_Wifi_BLE_SDK/GD32VW55x_RELEASE_V1.0.2/MSDK/cloud/alicloud/src/services/linkkit/dm\dm_message.c ****     memset(message, 0, message_len);
 3463              		.loc 1 975 5 is_stmt 1
 3464 002e 3246     		lw	a2,12(sp)
 3465 0030 8145     		li	a1,0
 3466 0032 97000000 		call	memset
 3466      E7800000 
 3467              	.LVL435:
 976:C:/Users/stapi/OneDrive/Desktop/GD32VW553/V1_MQTT_OK/GD32VW55X_Wifi_BLE_SDK/GD32VW55x_RELEASE_V1.0.2/MSDK/cloud/alicloud/src/services/linkkit/dm\dm_message.c ****     strncpy(message, payload, payload_len);
 3468              		.loc 1 976 5
 3469 003a 2686     		mv	a2,s1
 3470 003c CA85     		mv	a1,s2
 3471 003e 2285     		mv	a0,s0
 3472 0040 97000000 		call	strncpy
 3472      E7800000 
 3473              	.LVL436:
 977:C:/Users/stapi/OneDrive/Desktop/GD32VW553/V1_MQTT_OK/GD32VW55X_Wifi_BLE_SDK/GD32VW55x_RELEASE_V1.0.2/MSDK/cloud/alicloud/src/services/linkkit/dm\dm_message.c ****     res = _dm_msg_send_to_user(IOTX_DM_EVENT_CLOUD_ERROR, message);
 3474              		.loc 1 977 5
 3475              		.loc 1 977 11 is_stmt 0
 3476 0048 A285     		mv	a1,s0
 3477 004a 1305F002 		li	a0,47
 3478 004e 97000000 		call	_dm_msg_send_to_user
 3478      E7800000 
 3479              	.LVL437:
 3480 0056 AA87     		mv	a5,a0
 3481              	.LVL438:
 978:C:/Users/stapi/OneDrive/Desktop/GD32VW553/V1_MQTT_OK/GD32VW55X_Wifi_BLE_SDK/GD32VW55x_RELEASE_V1.0.2/MSDK/cloud/alicloud/src/services/linkkit/dm\dm_message.c ****     if (res != SUCCESS_RETURN) {
 3482              		.loc 1 978 5 is_stmt 1
 3483              		.loc 1 978 8 is_stmt 0
 3484 0058 19C5     		beq	a0,zero,.L221
 979:C:/Users/stapi/OneDrive/Desktop/GD32VW553/V1_MQTT_OK/GD32VW55X_Wifi_BLE_SDK/GD32VW55x_RELEASE_V1.0.2/MSDK/cloud/alicloud/src/services/linkkit/dm\dm_message.c ****          DM_free(message);
 3485              		.loc 1 979 10 is_stmt 1
 3486 005a 2285     		mv	a0,s0
 3487              	.LVL439:
 3488 005c 97000000 		call	LITE_free_internal
 3488      E7800000 
 3489              	.LVL440:
 3490              		.loc 1 979 10
 3491              		.loc 1 979 26
 980:C:/Users/stapi/OneDrive/Desktop/GD32VW553/V1_MQTT_OK/GD32VW55X_Wifi_BLE_SDK/GD32VW55x_RELEASE_V1.0.2/MSDK/cloud/alicloud/src/services/linkkit/dm\dm_message.c ****         return FAIL_RETURN;
 3492              		.loc 1 980 9
 3493              		.loc 1 980 16 is_stmt 0
 3494 0064 FD57     		li	a5,-1
 3495              	.LVL441:
 3496              	.L221:
 981:C:/Users/stapi/OneDrive/Desktop/GD32VW553/V1_MQTT_OK/GD32VW55X_Wifi_BLE_SDK/GD32VW55x_RELEASE_V1.0.2/MSDK/cloud/alicloud/src/services/linkkit/dm\dm_message.c ****     }
 982:C:/Users/stapi/OneDrive/Desktop/GD32VW553/V1_MQTT_OK/GD32VW55X_Wifi_BLE_SDK/GD32VW55x_RELEASE_V1.0.2/MSDK/cloud/alicloud/src/services/linkkit/dm\dm_message.c **** 
 983:C:/Users/stapi/OneDrive/Desktop/GD32VW553/V1_MQTT_OK/GD32VW55X_Wifi_BLE_SDK/GD32VW55x_RELEASE_V1.0.2/MSDK/cloud/alicloud/src/services/linkkit/dm\dm_message.c ****     return SUCCESS_RETURN;
 984:C:/Users/stapi/OneDrive/Desktop/GD32VW553/V1_MQTT_OK/GD32VW55X_Wifi_BLE_SDK/GD32VW55x_RELEASE_V1.0.2/MSDK/cloud/alicloud/src/services/linkkit/dm\dm_message.c **** }
 3497              		.loc 1 984 1
 3498 0066 3E85     		mv	a0,a5
 3499 0068 4101     		addi	sp,sp,16
 3500              		.cfi_def_cfa_offset 0
 3501 006a 17030000 		tail	__riscv_restore_3
 3501      67000300 
 3502              		.cfi_restore 18
 3503              		.cfi_restore 9
 3504              		.cfi_restore 8
 3505              		.cfi_restore 1
 3506              		.cfi_def_cfa_offset -16
 3507              	.LVL442:
 3508              	.L223:
 3509              		.cfi_def_cfa_offset 0
 967:C:/Users/stapi/OneDrive/Desktop/GD32VW553/V1_MQTT_OK/GD32VW55X_Wifi_BLE_SDK/GD32VW55x_RELEASE_V1.0.2/MSDK/cloud/alicloud/src/services/linkkit/dm\dm_message.c ****     }
 3510              		.loc 1 967 16
 3511 0072 F957     		li	a5,-2
 3512              		.loc 1 984 1
 3513 0074 3E85     		mv	a0,a5
 3514              	.LVL443:
 3515 0076 8280     		ret
 3516              		.cfi_endproc
 3517              	.LFE43:
 3519              		.section	.text.dm_msg_cloud_connected,"ax",@progbits
 3520              		.align	1
 3521              		.globl	dm_msg_cloud_connected
 3523              	dm_msg_cloud_connected:
 3524              	.LFB44:
 985:C:/Users/stapi/OneDrive/Desktop/GD32VW553/V1_MQTT_OK/GD32VW55X_Wifi_BLE_SDK/GD32VW55x_RELEASE_V1.0.2/MSDK/cloud/alicloud/src/services/linkkit/dm\dm_message.c **** 
 986:C:/Users/stapi/OneDrive/Desktop/GD32VW553/V1_MQTT_OK/GD32VW55X_Wifi_BLE_SDK/GD32VW55x_RELEASE_V1.0.2/MSDK/cloud/alicloud/src/services/linkkit/dm\dm_message.c **** #ifdef DEVICE_MODEL_GATEWAY
 987:C:/Users/stapi/OneDrive/Desktop/GD32VW553/V1_MQTT_OK/GD32VW55X_Wifi_BLE_SDK/GD32VW55x_RELEASE_V1.0.2/MSDK/cloud/alicloud/src/services/linkkit/dm\dm_message.c **** const char DM_MSG_TOPO_ADD_NOTIFY_USER_PAYLOAD[] DM_READ_ONLY =
 988:C:/Users/stapi/OneDrive/Desktop/GD32VW553/V1_MQTT_OK/GD32VW55X_Wifi_BLE_SDK/GD32VW55x_RELEASE_V1.0.2/MSDK/cloud/alicloud/src/services/linkkit/dm\dm_message.c ****             "{\"result\":%d,\"devid\":%d,\"product_key\":\"%s\",\"device_name\":\"%s\"}";
 989:C:/Users/stapi/OneDrive/Desktop/GD32VW553/V1_MQTT_OK/GD32VW55X_Wifi_BLE_SDK/GD32VW55x_RELEASE_V1.0.2/MSDK/cloud/alicloud/src/services/linkkit/dm\dm_message.c **** int dm_msg_topo_add_notify(_IN_ char *payload, _IN_ int payload_len)
 990:C:/Users/stapi/OneDrive/Desktop/GD32VW553/V1_MQTT_OK/GD32VW55X_Wifi_BLE_SDK/GD32VW55x_RELEASE_V1.0.2/MSDK/cloud/alicloud/src/services/linkkit/dm\dm_message.c **** {
 991:C:/Users/stapi/OneDrive/Desktop/GD32VW553/V1_MQTT_OK/GD32VW55X_Wifi_BLE_SDK/GD32VW55x_RELEASE_V1.0.2/MSDK/cloud/alicloud/src/services/linkkit/dm\dm_message.c ****     int ret = SUCCESS_RETURN, res = 0, index = 0, devid = 0, message_len = 0;
 992:C:/Users/stapi/OneDrive/Desktop/GD32VW553/V1_MQTT_OK/GD32VW55X_Wifi_BLE_SDK/GD32VW55x_RELEASE_V1.0.2/MSDK/cloud/alicloud/src/services/linkkit/dm\dm_message.c ****     lite_cjson_t lite, lite_item, lite_item_pk, lite_item_dn;
 993:C:/Users/stapi/OneDrive/Desktop/GD32VW553/V1_MQTT_OK/GD32VW55X_Wifi_BLE_SDK/GD32VW55x_RELEASE_V1.0.2/MSDK/cloud/alicloud/src/services/linkkit/dm\dm_message.c ****     char product_key[PRODUCT_KEY_MAXLEN] = {0};
 994:C:/Users/stapi/OneDrive/Desktop/GD32VW553/V1_MQTT_OK/GD32VW55X_Wifi_BLE_SDK/GD32VW55x_RELEASE_V1.0.2/MSDK/cloud/alicloud/src/services/linkkit/dm\dm_message.c ****     char device_name[DEVICE_NAME_MAXLEN] = {0};
 995:C:/Users/stapi/OneDrive/Desktop/GD32VW553/V1_MQTT_OK/GD32VW55X_Wifi_BLE_SDK/GD32VW55x_RELEASE_V1.0.2/MSDK/cloud/alicloud/src/services/linkkit/dm\dm_message.c ****     char *message = NULL;
 996:C:/Users/stapi/OneDrive/Desktop/GD32VW553/V1_MQTT_OK/GD32VW55X_Wifi_BLE_SDK/GD32VW55x_RELEASE_V1.0.2/MSDK/cloud/alicloud/src/services/linkkit/dm\dm_message.c **** 
 997:C:/Users/stapi/OneDrive/Desktop/GD32VW553/V1_MQTT_OK/GD32VW55X_Wifi_BLE_SDK/GD32VW55x_RELEASE_V1.0.2/MSDK/cloud/alicloud/src/services/linkkit/dm\dm_message.c ****     memset(&lite, 0, sizeof(lite_cjson_t));
 998:C:/Users/stapi/OneDrive/Desktop/GD32VW553/V1_MQTT_OK/GD32VW55X_Wifi_BLE_SDK/GD32VW55x_RELEASE_V1.0.2/MSDK/cloud/alicloud/src/services/linkkit/dm\dm_message.c ****     res = lite_cjson_parse(payload, payload_len, &lite);
 999:C:/Users/stapi/OneDrive/Desktop/GD32VW553/V1_MQTT_OK/GD32VW55X_Wifi_BLE_SDK/GD32VW55x_RELEASE_V1.0.2/MSDK/cloud/alicloud/src/services/linkkit/dm\dm_message.c ****     if (res != SUCCESS_RETURN || !lite_cjson_is_array(&lite)) {
1000:C:/Users/stapi/OneDrive/Desktop/GD32VW553/V1_MQTT_OK/GD32VW55X_Wifi_BLE_SDK/GD32VW55x_RELEASE_V1.0.2/MSDK/cloud/alicloud/src/services/linkkit/dm\dm_message.c ****         return DM_JSON_PARSE_FAILED;
1001:C:/Users/stapi/OneDrive/Desktop/GD32VW553/V1_MQTT_OK/GD32VW55X_Wifi_BLE_SDK/GD32VW55x_RELEASE_V1.0.2/MSDK/cloud/alicloud/src/services/linkkit/dm\dm_message.c ****     }
1002:C:/Users/stapi/OneDrive/Desktop/GD32VW553/V1_MQTT_OK/GD32VW55X_Wifi_BLE_SDK/GD32VW55x_RELEASE_V1.0.2/MSDK/cloud/alicloud/src/services/linkkit/dm\dm_message.c **** 
1003:C:/Users/stapi/OneDrive/Desktop/GD32VW553/V1_MQTT_OK/GD32VW55X_Wifi_BLE_SDK/GD32VW55x_RELEASE_V1.0.2/MSDK/cloud/alicloud/src/services/linkkit/dm\dm_message.c ****     for (index = 0; index < lite.size; index++) {
1004:C:/Users/stapi/OneDrive/Desktop/GD32VW553/V1_MQTT_OK/GD32VW55X_Wifi_BLE_SDK/GD32VW55x_RELEASE_V1.0.2/MSDK/cloud/alicloud/src/services/linkkit/dm\dm_message.c ****         devid = 0;
1005:C:/Users/stapi/OneDrive/Desktop/GD32VW553/V1_MQTT_OK/GD32VW55X_Wifi_BLE_SDK/GD32VW55x_RELEASE_V1.0.2/MSDK/cloud/alicloud/src/services/linkkit/dm\dm_message.c ****         message_len = 0;
1006:C:/Users/stapi/OneDrive/Desktop/GD32VW553/V1_MQTT_OK/GD32VW55X_Wifi_BLE_SDK/GD32VW55x_RELEASE_V1.0.2/MSDK/cloud/alicloud/src/services/linkkit/dm\dm_message.c ****         message = NULL;
1007:C:/Users/stapi/OneDrive/Desktop/GD32VW553/V1_MQTT_OK/GD32VW55X_Wifi_BLE_SDK/GD32VW55x_RELEASE_V1.0.2/MSDK/cloud/alicloud/src/services/linkkit/dm\dm_message.c ****         memset(&lite_item, 0, sizeof(lite_cjson_t));
1008:C:/Users/stapi/OneDrive/Desktop/GD32VW553/V1_MQTT_OK/GD32VW55X_Wifi_BLE_SDK/GD32VW55x_RELEASE_V1.0.2/MSDK/cloud/alicloud/src/services/linkkit/dm\dm_message.c ****         memset(&lite_item_pk, 0, sizeof(lite_cjson_t));
1009:C:/Users/stapi/OneDrive/Desktop/GD32VW553/V1_MQTT_OK/GD32VW55X_Wifi_BLE_SDK/GD32VW55x_RELEASE_V1.0.2/MSDK/cloud/alicloud/src/services/linkkit/dm\dm_message.c ****         memset(&lite_item_dn, 0, sizeof(lite_cjson_t));
1010:C:/Users/stapi/OneDrive/Desktop/GD32VW553/V1_MQTT_OK/GD32VW55X_Wifi_BLE_SDK/GD32VW55x_RELEASE_V1.0.2/MSDK/cloud/alicloud/src/services/linkkit/dm\dm_message.c ****         memset(product_key, 0, PRODUCT_KEY_MAXLEN);
1011:C:/Users/stapi/OneDrive/Desktop/GD32VW553/V1_MQTT_OK/GD32VW55X_Wifi_BLE_SDK/GD32VW55x_RELEASE_V1.0.2/MSDK/cloud/alicloud/src/services/linkkit/dm\dm_message.c ****         memset(device_name, 0, DEVICE_NAME_MAXLEN);
1012:C:/Users/stapi/OneDrive/Desktop/GD32VW553/V1_MQTT_OK/GD32VW55X_Wifi_BLE_SDK/GD32VW55x_RELEASE_V1.0.2/MSDK/cloud/alicloud/src/services/linkkit/dm\dm_message.c **** 
1013:C:/Users/stapi/OneDrive/Desktop/GD32VW553/V1_MQTT_OK/GD32VW55X_Wifi_BLE_SDK/GD32VW55x_RELEASE_V1.0.2/MSDK/cloud/alicloud/src/services/linkkit/dm\dm_message.c ****         res = lite_cjson_array_item(&lite, index, &lite_item);
1014:C:/Users/stapi/OneDrive/Desktop/GD32VW553/V1_MQTT_OK/GD32VW55X_Wifi_BLE_SDK/GD32VW55x_RELEASE_V1.0.2/MSDK/cloud/alicloud/src/services/linkkit/dm\dm_message.c ****         if (res != SUCCESS_RETURN) {
1015:C:/Users/stapi/OneDrive/Desktop/GD32VW553/V1_MQTT_OK/GD32VW55X_Wifi_BLE_SDK/GD32VW55x_RELEASE_V1.0.2/MSDK/cloud/alicloud/src/services/linkkit/dm\dm_message.c ****             ret = FAIL_RETURN;
1016:C:/Users/stapi/OneDrive/Desktop/GD32VW553/V1_MQTT_OK/GD32VW55X_Wifi_BLE_SDK/GD32VW55x_RELEASE_V1.0.2/MSDK/cloud/alicloud/src/services/linkkit/dm\dm_message.c ****             continue;
1017:C:/Users/stapi/OneDrive/Desktop/GD32VW553/V1_MQTT_OK/GD32VW55X_Wifi_BLE_SDK/GD32VW55x_RELEASE_V1.0.2/MSDK/cloud/alicloud/src/services/linkkit/dm\dm_message.c ****         }
1018:C:/Users/stapi/OneDrive/Desktop/GD32VW553/V1_MQTT_OK/GD32VW55X_Wifi_BLE_SDK/GD32VW55x_RELEASE_V1.0.2/MSDK/cloud/alicloud/src/services/linkkit/dm\dm_message.c **** 
1019:C:/Users/stapi/OneDrive/Desktop/GD32VW553/V1_MQTT_OK/GD32VW55X_Wifi_BLE_SDK/GD32VW55x_RELEASE_V1.0.2/MSDK/cloud/alicloud/src/services/linkkit/dm\dm_message.c ****         res = lite_cjson_object_item(&lite_item, DM_MSG_KEY_PRODUCT_KEY, strlen(DM_MSG_KEY_PRODUCT_
1020:C:/Users/stapi/OneDrive/Desktop/GD32VW553/V1_MQTT_OK/GD32VW55X_Wifi_BLE_SDK/GD32VW55x_RELEASE_V1.0.2/MSDK/cloud/alicloud/src/services/linkkit/dm\dm_message.c ****         if (res != SUCCESS_RETURN) {
1021:C:/Users/stapi/OneDrive/Desktop/GD32VW553/V1_MQTT_OK/GD32VW55X_Wifi_BLE_SDK/GD32VW55x_RELEASE_V1.0.2/MSDK/cloud/alicloud/src/services/linkkit/dm\dm_message.c ****             ret = FAIL_RETURN;
1022:C:/Users/stapi/OneDrive/Desktop/GD32VW553/V1_MQTT_OK/GD32VW55X_Wifi_BLE_SDK/GD32VW55x_RELEASE_V1.0.2/MSDK/cloud/alicloud/src/services/linkkit/dm\dm_message.c ****             continue;
1023:C:/Users/stapi/OneDrive/Desktop/GD32VW553/V1_MQTT_OK/GD32VW55X_Wifi_BLE_SDK/GD32VW55x_RELEASE_V1.0.2/MSDK/cloud/alicloud/src/services/linkkit/dm\dm_message.c ****         }
1024:C:/Users/stapi/OneDrive/Desktop/GD32VW553/V1_MQTT_OK/GD32VW55X_Wifi_BLE_SDK/GD32VW55x_RELEASE_V1.0.2/MSDK/cloud/alicloud/src/services/linkkit/dm\dm_message.c **** 
1025:C:/Users/stapi/OneDrive/Desktop/GD32VW553/V1_MQTT_OK/GD32VW55X_Wifi_BLE_SDK/GD32VW55x_RELEASE_V1.0.2/MSDK/cloud/alicloud/src/services/linkkit/dm\dm_message.c ****         res = lite_cjson_object_item(&lite_item, DM_MSG_KEY_DEVICE_NAME, strlen(DM_MSG_KEY_DEVICE_N
1026:C:/Users/stapi/OneDrive/Desktop/GD32VW553/V1_MQTT_OK/GD32VW55X_Wifi_BLE_SDK/GD32VW55x_RELEASE_V1.0.2/MSDK/cloud/alicloud/src/services/linkkit/dm\dm_message.c ****         if (res != SUCCESS_RETURN) {
1027:C:/Users/stapi/OneDrive/Desktop/GD32VW553/V1_MQTT_OK/GD32VW55X_Wifi_BLE_SDK/GD32VW55x_RELEASE_V1.0.2/MSDK/cloud/alicloud/src/services/linkkit/dm\dm_message.c ****             ret = FAIL_RETURN;
1028:C:/Users/stapi/OneDrive/Desktop/GD32VW553/V1_MQTT_OK/GD32VW55X_Wifi_BLE_SDK/GD32VW55x_RELEASE_V1.0.2/MSDK/cloud/alicloud/src/services/linkkit/dm\dm_message.c ****             continue;
1029:C:/Users/stapi/OneDrive/Desktop/GD32VW553/V1_MQTT_OK/GD32VW55X_Wifi_BLE_SDK/GD32VW55x_RELEASE_V1.0.2/MSDK/cloud/alicloud/src/services/linkkit/dm\dm_message.c ****         }
1030:C:/Users/stapi/OneDrive/Desktop/GD32VW553/V1_MQTT_OK/GD32VW55X_Wifi_BLE_SDK/GD32VW55x_RELEASE_V1.0.2/MSDK/cloud/alicloud/src/services/linkkit/dm\dm_message.c **** 
1031:C:/Users/stapi/OneDrive/Desktop/GD32VW553/V1_MQTT_OK/GD32VW55X_Wifi_BLE_SDK/GD32VW55x_RELEASE_V1.0.2/MSDK/cloud/alicloud/src/services/linkkit/dm\dm_message.c ****         /* dm_log_debug("Current Product Key: %.*s, Device Name: %.*s",
1032:C:/Users/stapi/OneDrive/Desktop/GD32VW553/V1_MQTT_OK/GD32VW55X_Wifi_BLE_SDK/GD32VW55x_RELEASE_V1.0.2/MSDK/cloud/alicloud/src/services/linkkit/dm\dm_message.c ****                      lite_item_pk.value_length, lite_item_pk.value,
1033:C:/Users/stapi/OneDrive/Desktop/GD32VW553/V1_MQTT_OK/GD32VW55X_Wifi_BLE_SDK/GD32VW55x_RELEASE_V1.0.2/MSDK/cloud/alicloud/src/services/linkkit/dm\dm_message.c ****                      lite_item_dn.value_length, lite_item_dn.value); */
1034:C:/Users/stapi/OneDrive/Desktop/GD32VW553/V1_MQTT_OK/GD32VW55X_Wifi_BLE_SDK/GD32VW55x_RELEASE_V1.0.2/MSDK/cloud/alicloud/src/services/linkkit/dm\dm_message.c **** 
1035:C:/Users/stapi/OneDrive/Desktop/GD32VW553/V1_MQTT_OK/GD32VW55X_Wifi_BLE_SDK/GD32VW55x_RELEASE_V1.0.2/MSDK/cloud/alicloud/src/services/linkkit/dm\dm_message.c ****         if (lite_item_pk.value_length >= PRODUCT_KEY_MAXLEN ||
1036:C:/Users/stapi/OneDrive/Desktop/GD32VW553/V1_MQTT_OK/GD32VW55X_Wifi_BLE_SDK/GD32VW55x_RELEASE_V1.0.2/MSDK/cloud/alicloud/src/services/linkkit/dm\dm_message.c ****             lite_item_dn.value_length >= DEVICE_NAME_MAXLEN) {
1037:C:/Users/stapi/OneDrive/Desktop/GD32VW553/V1_MQTT_OK/GD32VW55X_Wifi_BLE_SDK/GD32VW55x_RELEASE_V1.0.2/MSDK/cloud/alicloud/src/services/linkkit/dm\dm_message.c ****             ret = FAIL_RETURN;
1038:C:/Users/stapi/OneDrive/Desktop/GD32VW553/V1_MQTT_OK/GD32VW55X_Wifi_BLE_SDK/GD32VW55x_RELEASE_V1.0.2/MSDK/cloud/alicloud/src/services/linkkit/dm\dm_message.c ****             continue;
1039:C:/Users/stapi/OneDrive/Desktop/GD32VW553/V1_MQTT_OK/GD32VW55X_Wifi_BLE_SDK/GD32VW55x_RELEASE_V1.0.2/MSDK/cloud/alicloud/src/services/linkkit/dm\dm_message.c ****         }
1040:C:/Users/stapi/OneDrive/Desktop/GD32VW553/V1_MQTT_OK/GD32VW55X_Wifi_BLE_SDK/GD32VW55x_RELEASE_V1.0.2/MSDK/cloud/alicloud/src/services/linkkit/dm\dm_message.c ****         memcpy(product_key, lite_item_pk.value, lite_item_pk.value_length);
1041:C:/Users/stapi/OneDrive/Desktop/GD32VW553/V1_MQTT_OK/GD32VW55X_Wifi_BLE_SDK/GD32VW55x_RELEASE_V1.0.2/MSDK/cloud/alicloud/src/services/linkkit/dm\dm_message.c ****         memcpy(device_name, lite_item_dn.value, lite_item_dn.value_length);
1042:C:/Users/stapi/OneDrive/Desktop/GD32VW553/V1_MQTT_OK/GD32VW55X_Wifi_BLE_SDK/GD32VW55x_RELEASE_V1.0.2/MSDK/cloud/alicloud/src/services/linkkit/dm\dm_message.c **** 
1043:C:/Users/stapi/OneDrive/Desktop/GD32VW553/V1_MQTT_OK/GD32VW55X_Wifi_BLE_SDK/GD32VW55x_RELEASE_V1.0.2/MSDK/cloud/alicloud/src/services/linkkit/dm\dm_message.c ****         res = dm_mgr_device_create(IOTX_DM_DEVICE_SUBDEV, product_key, device_name, NULL, &devid);
1044:C:/Users/stapi/OneDrive/Desktop/GD32VW553/V1_MQTT_OK/GD32VW55X_Wifi_BLE_SDK/GD32VW55x_RELEASE_V1.0.2/MSDK/cloud/alicloud/src/services/linkkit/dm\dm_message.c ****         if (res != SUCCESS_RETURN) {
1045:C:/Users/stapi/OneDrive/Desktop/GD32VW553/V1_MQTT_OK/GD32VW55X_Wifi_BLE_SDK/GD32VW55x_RELEASE_V1.0.2/MSDK/cloud/alicloud/src/services/linkkit/dm\dm_message.c ****             ret = FAIL_RETURN;
1046:C:/Users/stapi/OneDrive/Desktop/GD32VW553/V1_MQTT_OK/GD32VW55X_Wifi_BLE_SDK/GD32VW55x_RELEASE_V1.0.2/MSDK/cloud/alicloud/src/services/linkkit/dm\dm_message.c ****         }
1047:C:/Users/stapi/OneDrive/Desktop/GD32VW553/V1_MQTT_OK/GD32VW55X_Wifi_BLE_SDK/GD32VW55x_RELEASE_V1.0.2/MSDK/cloud/alicloud/src/services/linkkit/dm\dm_message.c **** 
1048:C:/Users/stapi/OneDrive/Desktop/GD32VW553/V1_MQTT_OK/GD32VW55X_Wifi_BLE_SDK/GD32VW55x_RELEASE_V1.0.2/MSDK/cloud/alicloud/src/services/linkkit/dm\dm_message.c ****         /* Send To User */
1049:C:/Users/stapi/OneDrive/Desktop/GD32VW553/V1_MQTT_OK/GD32VW55X_Wifi_BLE_SDK/GD32VW55x_RELEASE_V1.0.2/MSDK/cloud/alicloud/src/services/linkkit/dm\dm_message.c ****         message_len = strlen(DM_MSG_TOPO_ADD_NOTIFY_USER_PAYLOAD) + 20 +
1050:C:/Users/stapi/OneDrive/Desktop/GD32VW553/V1_MQTT_OK/GD32VW55X_Wifi_BLE_SDK/GD32VW55x_RELEASE_V1.0.2/MSDK/cloud/alicloud/src/services/linkkit/dm\dm_message.c ****                       strlen(product_key) + strlen(device_name) + 1;
1051:C:/Users/stapi/OneDrive/Desktop/GD32VW553/V1_MQTT_OK/GD32VW55X_Wifi_BLE_SDK/GD32VW55x_RELEASE_V1.0.2/MSDK/cloud/alicloud/src/services/linkkit/dm\dm_message.c ****         message = DM_malloc(message_len);
1052:C:/Users/stapi/OneDrive/Desktop/GD32VW553/V1_MQTT_OK/GD32VW55X_Wifi_BLE_SDK/GD32VW55x_RELEASE_V1.0.2/MSDK/cloud/alicloud/src/services/linkkit/dm\dm_message.c ****         if (message == NULL) {
1053:C:/Users/stapi/OneDrive/Desktop/GD32VW553/V1_MQTT_OK/GD32VW55X_Wifi_BLE_SDK/GD32VW55x_RELEASE_V1.0.2/MSDK/cloud/alicloud/src/services/linkkit/dm\dm_message.c ****             ret = DM_MEMORY_NOT_ENOUGH;
1054:C:/Users/stapi/OneDrive/Desktop/GD32VW553/V1_MQTT_OK/GD32VW55X_Wifi_BLE_SDK/GD32VW55x_RELEASE_V1.0.2/MSDK/cloud/alicloud/src/services/linkkit/dm\dm_message.c ****             continue;
1055:C:/Users/stapi/OneDrive/Desktop/GD32VW553/V1_MQTT_OK/GD32VW55X_Wifi_BLE_SDK/GD32VW55x_RELEASE_V1.0.2/MSDK/cloud/alicloud/src/services/linkkit/dm\dm_message.c ****         }
1056:C:/Users/stapi/OneDrive/Desktop/GD32VW553/V1_MQTT_OK/GD32VW55X_Wifi_BLE_SDK/GD32VW55x_RELEASE_V1.0.2/MSDK/cloud/alicloud/src/services/linkkit/dm\dm_message.c ****         memset(message, 0, message_len);
1057:C:/Users/stapi/OneDrive/Desktop/GD32VW553/V1_MQTT_OK/GD32VW55X_Wifi_BLE_SDK/GD32VW55x_RELEASE_V1.0.2/MSDK/cloud/alicloud/src/services/linkkit/dm\dm_message.c ****         HAL_Snprintf(message, message_len, DM_MSG_TOPO_ADD_NOTIFY_USER_PAYLOAD, res, devid, product
1058:C:/Users/stapi/OneDrive/Desktop/GD32VW553/V1_MQTT_OK/GD32VW55X_Wifi_BLE_SDK/GD32VW55x_RELEASE_V1.0.2/MSDK/cloud/alicloud/src/services/linkkit/dm\dm_message.c ****         res = _dm_msg_send_to_user(IOTX_DM_EVENT_TOPO_ADD_NOTIFY, message);
1059:C:/Users/stapi/OneDrive/Desktop/GD32VW553/V1_MQTT_OK/GD32VW55X_Wifi_BLE_SDK/GD32VW55x_RELEASE_V1.0.2/MSDK/cloud/alicloud/src/services/linkkit/dm\dm_message.c ****         if (res != SUCCESS_RETURN) {
1060:C:/Users/stapi/OneDrive/Desktop/GD32VW553/V1_MQTT_OK/GD32VW55X_Wifi_BLE_SDK/GD32VW55x_RELEASE_V1.0.2/MSDK/cloud/alicloud/src/services/linkkit/dm\dm_message.c ****             ret = FAIL_RETURN;
1061:C:/Users/stapi/OneDrive/Desktop/GD32VW553/V1_MQTT_OK/GD32VW55X_Wifi_BLE_SDK/GD32VW55x_RELEASE_V1.0.2/MSDK/cloud/alicloud/src/services/linkkit/dm\dm_message.c ****             DM_free(message);
1062:C:/Users/stapi/OneDrive/Desktop/GD32VW553/V1_MQTT_OK/GD32VW55X_Wifi_BLE_SDK/GD32VW55x_RELEASE_V1.0.2/MSDK/cloud/alicloud/src/services/linkkit/dm\dm_message.c ****         }
1063:C:/Users/stapi/OneDrive/Desktop/GD32VW553/V1_MQTT_OK/GD32VW55X_Wifi_BLE_SDK/GD32VW55x_RELEASE_V1.0.2/MSDK/cloud/alicloud/src/services/linkkit/dm\dm_message.c **** 
1064:C:/Users/stapi/OneDrive/Desktop/GD32VW553/V1_MQTT_OK/GD32VW55X_Wifi_BLE_SDK/GD32VW55x_RELEASE_V1.0.2/MSDK/cloud/alicloud/src/services/linkkit/dm\dm_message.c ****     }
1065:C:/Users/stapi/OneDrive/Desktop/GD32VW553/V1_MQTT_OK/GD32VW55X_Wifi_BLE_SDK/GD32VW55x_RELEASE_V1.0.2/MSDK/cloud/alicloud/src/services/linkkit/dm\dm_message.c **** 
1066:C:/Users/stapi/OneDrive/Desktop/GD32VW553/V1_MQTT_OK/GD32VW55X_Wifi_BLE_SDK/GD32VW55x_RELEASE_V1.0.2/MSDK/cloud/alicloud/src/services/linkkit/dm\dm_message.c ****     return ret;
1067:C:/Users/stapi/OneDrive/Desktop/GD32VW553/V1_MQTT_OK/GD32VW55X_Wifi_BLE_SDK/GD32VW55x_RELEASE_V1.0.2/MSDK/cloud/alicloud/src/services/linkkit/dm\dm_message.c **** }
1068:C:/Users/stapi/OneDrive/Desktop/GD32VW553/V1_MQTT_OK/GD32VW55X_Wifi_BLE_SDK/GD32VW55x_RELEASE_V1.0.2/MSDK/cloud/alicloud/src/services/linkkit/dm\dm_message.c **** 
1069:C:/Users/stapi/OneDrive/Desktop/GD32VW553/V1_MQTT_OK/GD32VW55X_Wifi_BLE_SDK/GD32VW55x_RELEASE_V1.0.2/MSDK/cloud/alicloud/src/services/linkkit/dm\dm_message.c **** const char DM_MSG_EVENT_THING_DISABLE_FMT[] DM_READ_ONLY = "{\"devid\":%d}";
1070:C:/Users/stapi/OneDrive/Desktop/GD32VW553/V1_MQTT_OK/GD32VW55X_Wifi_BLE_SDK/GD32VW55x_RELEASE_V1.0.2/MSDK/cloud/alicloud/src/services/linkkit/dm\dm_message.c **** int dm_msg_thing_disable(_IN_ char product_key[PRODUCT_KEY_MAXLEN], _IN_ char device_name[DEVICE_NA
1071:C:/Users/stapi/OneDrive/Desktop/GD32VW553/V1_MQTT_OK/GD32VW55X_Wifi_BLE_SDK/GD32VW55x_RELEASE_V1.0.2/MSDK/cloud/alicloud/src/services/linkkit/dm\dm_message.c **** {
1072:C:/Users/stapi/OneDrive/Desktop/GD32VW553/V1_MQTT_OK/GD32VW55X_Wifi_BLE_SDK/GD32VW55x_RELEASE_V1.0.2/MSDK/cloud/alicloud/src/services/linkkit/dm\dm_message.c ****     int res = 0, devid = 0, message_len = 0;
1073:C:/Users/stapi/OneDrive/Desktop/GD32VW553/V1_MQTT_OK/GD32VW55X_Wifi_BLE_SDK/GD32VW55x_RELEASE_V1.0.2/MSDK/cloud/alicloud/src/services/linkkit/dm\dm_message.c ****     char *message = NULL;
1074:C:/Users/stapi/OneDrive/Desktop/GD32VW553/V1_MQTT_OK/GD32VW55X_Wifi_BLE_SDK/GD32VW55x_RELEASE_V1.0.2/MSDK/cloud/alicloud/src/services/linkkit/dm\dm_message.c **** 
1075:C:/Users/stapi/OneDrive/Desktop/GD32VW553/V1_MQTT_OK/GD32VW55X_Wifi_BLE_SDK/GD32VW55x_RELEASE_V1.0.2/MSDK/cloud/alicloud/src/services/linkkit/dm\dm_message.c ****     if (product_key == NULL || device_name == NULL ||
1076:C:/Users/stapi/OneDrive/Desktop/GD32VW553/V1_MQTT_OK/GD32VW55X_Wifi_BLE_SDK/GD32VW55x_RELEASE_V1.0.2/MSDK/cloud/alicloud/src/services/linkkit/dm\dm_message.c ****         (strlen(product_key) >= PRODUCT_KEY_MAXLEN) ||
1077:C:/Users/stapi/OneDrive/Desktop/GD32VW553/V1_MQTT_OK/GD32VW55X_Wifi_BLE_SDK/GD32VW55x_RELEASE_V1.0.2/MSDK/cloud/alicloud/src/services/linkkit/dm\dm_message.c ****         (strlen(device_name) >= DEVICE_NAME_MAXLEN)) {
1078:C:/Users/stapi/OneDrive/Desktop/GD32VW553/V1_MQTT_OK/GD32VW55X_Wifi_BLE_SDK/GD32VW55x_RELEASE_V1.0.2/MSDK/cloud/alicloud/src/services/linkkit/dm\dm_message.c ****         return DM_INVALID_PARAMETER;
1079:C:/Users/stapi/OneDrive/Desktop/GD32VW553/V1_MQTT_OK/GD32VW55X_Wifi_BLE_SDK/GD32VW55x_RELEASE_V1.0.2/MSDK/cloud/alicloud/src/services/linkkit/dm\dm_message.c ****     }
1080:C:/Users/stapi/OneDrive/Desktop/GD32VW553/V1_MQTT_OK/GD32VW55X_Wifi_BLE_SDK/GD32VW55x_RELEASE_V1.0.2/MSDK/cloud/alicloud/src/services/linkkit/dm\dm_message.c **** 
1081:C:/Users/stapi/OneDrive/Desktop/GD32VW553/V1_MQTT_OK/GD32VW55X_Wifi_BLE_SDK/GD32VW55x_RELEASE_V1.0.2/MSDK/cloud/alicloud/src/services/linkkit/dm\dm_message.c ****     res = dm_mgr_search_device_by_pkdn(product_key, device_name, &devid);
1082:C:/Users/stapi/OneDrive/Desktop/GD32VW553/V1_MQTT_OK/GD32VW55X_Wifi_BLE_SDK/GD32VW55x_RELEASE_V1.0.2/MSDK/cloud/alicloud/src/services/linkkit/dm\dm_message.c ****     if (res != SUCCESS_RETURN) {
1083:C:/Users/stapi/OneDrive/Desktop/GD32VW553/V1_MQTT_OK/GD32VW55X_Wifi_BLE_SDK/GD32VW55x_RELEASE_V1.0.2/MSDK/cloud/alicloud/src/services/linkkit/dm\dm_message.c ****         return FAIL_RETURN;
1084:C:/Users/stapi/OneDrive/Desktop/GD32VW553/V1_MQTT_OK/GD32VW55X_Wifi_BLE_SDK/GD32VW55x_RELEASE_V1.0.2/MSDK/cloud/alicloud/src/services/linkkit/dm\dm_message.c ****     }
1085:C:/Users/stapi/OneDrive/Desktop/GD32VW553/V1_MQTT_OK/GD32VW55X_Wifi_BLE_SDK/GD32VW55x_RELEASE_V1.0.2/MSDK/cloud/alicloud/src/services/linkkit/dm\dm_message.c **** 
1086:C:/Users/stapi/OneDrive/Desktop/GD32VW553/V1_MQTT_OK/GD32VW55X_Wifi_BLE_SDK/GD32VW55x_RELEASE_V1.0.2/MSDK/cloud/alicloud/src/services/linkkit/dm\dm_message.c ****     res = dm_mgr_set_dev_disable(devid);
1087:C:/Users/stapi/OneDrive/Desktop/GD32VW553/V1_MQTT_OK/GD32VW55X_Wifi_BLE_SDK/GD32VW55x_RELEASE_V1.0.2/MSDK/cloud/alicloud/src/services/linkkit/dm\dm_message.c **** 
1088:C:/Users/stapi/OneDrive/Desktop/GD32VW553/V1_MQTT_OK/GD32VW55X_Wifi_BLE_SDK/GD32VW55x_RELEASE_V1.0.2/MSDK/cloud/alicloud/src/services/linkkit/dm\dm_message.c ****     message_len = strlen(DM_MSG_EVENT_THING_DISABLE_FMT) + DM_UTILS_UINT32_STRLEN + 1;
1089:C:/Users/stapi/OneDrive/Desktop/GD32VW553/V1_MQTT_OK/GD32VW55X_Wifi_BLE_SDK/GD32VW55x_RELEASE_V1.0.2/MSDK/cloud/alicloud/src/services/linkkit/dm\dm_message.c ****     message = DM_malloc(message_len);
1090:C:/Users/stapi/OneDrive/Desktop/GD32VW553/V1_MQTT_OK/GD32VW55X_Wifi_BLE_SDK/GD32VW55x_RELEASE_V1.0.2/MSDK/cloud/alicloud/src/services/linkkit/dm\dm_message.c ****     if (message == NULL) {
1091:C:/Users/stapi/OneDrive/Desktop/GD32VW553/V1_MQTT_OK/GD32VW55X_Wifi_BLE_SDK/GD32VW55x_RELEASE_V1.0.2/MSDK/cloud/alicloud/src/services/linkkit/dm\dm_message.c ****         return DM_MEMORY_NOT_ENOUGH;
1092:C:/Users/stapi/OneDrive/Desktop/GD32VW553/V1_MQTT_OK/GD32VW55X_Wifi_BLE_SDK/GD32VW55x_RELEASE_V1.0.2/MSDK/cloud/alicloud/src/services/linkkit/dm\dm_message.c ****     }
1093:C:/Users/stapi/OneDrive/Desktop/GD32VW553/V1_MQTT_OK/GD32VW55X_Wifi_BLE_SDK/GD32VW55x_RELEASE_V1.0.2/MSDK/cloud/alicloud/src/services/linkkit/dm\dm_message.c ****     memset(message, 0, message_len);
1094:C:/Users/stapi/OneDrive/Desktop/GD32VW553/V1_MQTT_OK/GD32VW55X_Wifi_BLE_SDK/GD32VW55x_RELEASE_V1.0.2/MSDK/cloud/alicloud/src/services/linkkit/dm\dm_message.c ****     HAL_Snprintf(message, message_len, DM_MSG_EVENT_THING_DISABLE_FMT, devid);
1095:C:/Users/stapi/OneDrive/Desktop/GD32VW553/V1_MQTT_OK/GD32VW55X_Wifi_BLE_SDK/GD32VW55x_RELEASE_V1.0.2/MSDK/cloud/alicloud/src/services/linkkit/dm\dm_message.c **** 
1096:C:/Users/stapi/OneDrive/Desktop/GD32VW553/V1_MQTT_OK/GD32VW55X_Wifi_BLE_SDK/GD32VW55x_RELEASE_V1.0.2/MSDK/cloud/alicloud/src/services/linkkit/dm\dm_message.c ****     res = _dm_msg_send_to_user(IOTX_DM_EVENT_THING_DISABLE, message);
1097:C:/Users/stapi/OneDrive/Desktop/GD32VW553/V1_MQTT_OK/GD32VW55X_Wifi_BLE_SDK/GD32VW55x_RELEASE_V1.0.2/MSDK/cloud/alicloud/src/services/linkkit/dm\dm_message.c ****     if (res != SUCCESS_RETURN) {
1098:C:/Users/stapi/OneDrive/Desktop/GD32VW553/V1_MQTT_OK/GD32VW55X_Wifi_BLE_SDK/GD32VW55x_RELEASE_V1.0.2/MSDK/cloud/alicloud/src/services/linkkit/dm\dm_message.c ****         DM_free(message);
1099:C:/Users/stapi/OneDrive/Desktop/GD32VW553/V1_MQTT_OK/GD32VW55X_Wifi_BLE_SDK/GD32VW55x_RELEASE_V1.0.2/MSDK/cloud/alicloud/src/services/linkkit/dm\dm_message.c ****         return FAIL_RETURN;
1100:C:/Users/stapi/OneDrive/Desktop/GD32VW553/V1_MQTT_OK/GD32VW55X_Wifi_BLE_SDK/GD32VW55x_RELEASE_V1.0.2/MSDK/cloud/alicloud/src/services/linkkit/dm\dm_message.c ****     }
1101:C:/Users/stapi/OneDrive/Desktop/GD32VW553/V1_MQTT_OK/GD32VW55X_Wifi_BLE_SDK/GD32VW55x_RELEASE_V1.0.2/MSDK/cloud/alicloud/src/services/linkkit/dm\dm_message.c **** 
1102:C:/Users/stapi/OneDrive/Desktop/GD32VW553/V1_MQTT_OK/GD32VW55X_Wifi_BLE_SDK/GD32VW55x_RELEASE_V1.0.2/MSDK/cloud/alicloud/src/services/linkkit/dm\dm_message.c ****     return SUCCESS_RETURN;
1103:C:/Users/stapi/OneDrive/Desktop/GD32VW553/V1_MQTT_OK/GD32VW55X_Wifi_BLE_SDK/GD32VW55x_RELEASE_V1.0.2/MSDK/cloud/alicloud/src/services/linkkit/dm\dm_message.c **** }
1104:C:/Users/stapi/OneDrive/Desktop/GD32VW553/V1_MQTT_OK/GD32VW55X_Wifi_BLE_SDK/GD32VW55x_RELEASE_V1.0.2/MSDK/cloud/alicloud/src/services/linkkit/dm\dm_message.c **** 
1105:C:/Users/stapi/OneDrive/Desktop/GD32VW553/V1_MQTT_OK/GD32VW55X_Wifi_BLE_SDK/GD32VW55x_RELEASE_V1.0.2/MSDK/cloud/alicloud/src/services/linkkit/dm\dm_message.c **** const char DM_MSG_EVENT_THING_ENABLE_FMT[] DM_READ_ONLY = "{\"devid\":%d}";
1106:C:/Users/stapi/OneDrive/Desktop/GD32VW553/V1_MQTT_OK/GD32VW55X_Wifi_BLE_SDK/GD32VW55x_RELEASE_V1.0.2/MSDK/cloud/alicloud/src/services/linkkit/dm\dm_message.c **** int dm_msg_thing_enable(_IN_ char product_key[PRODUCT_KEY_MAXLEN], _IN_ char device_name[DEVICE_NAM
1107:C:/Users/stapi/OneDrive/Desktop/GD32VW553/V1_MQTT_OK/GD32VW55X_Wifi_BLE_SDK/GD32VW55x_RELEASE_V1.0.2/MSDK/cloud/alicloud/src/services/linkkit/dm\dm_message.c **** {
1108:C:/Users/stapi/OneDrive/Desktop/GD32VW553/V1_MQTT_OK/GD32VW55X_Wifi_BLE_SDK/GD32VW55x_RELEASE_V1.0.2/MSDK/cloud/alicloud/src/services/linkkit/dm\dm_message.c ****     int res = 0, devid = 0, message_len = 0;
1109:C:/Users/stapi/OneDrive/Desktop/GD32VW553/V1_MQTT_OK/GD32VW55X_Wifi_BLE_SDK/GD32VW55x_RELEASE_V1.0.2/MSDK/cloud/alicloud/src/services/linkkit/dm\dm_message.c ****     char *message = NULL;
1110:C:/Users/stapi/OneDrive/Desktop/GD32VW553/V1_MQTT_OK/GD32VW55X_Wifi_BLE_SDK/GD32VW55x_RELEASE_V1.0.2/MSDK/cloud/alicloud/src/services/linkkit/dm\dm_message.c **** 
1111:C:/Users/stapi/OneDrive/Desktop/GD32VW553/V1_MQTT_OK/GD32VW55X_Wifi_BLE_SDK/GD32VW55x_RELEASE_V1.0.2/MSDK/cloud/alicloud/src/services/linkkit/dm\dm_message.c ****     if (product_key == NULL || device_name == NULL ||
1112:C:/Users/stapi/OneDrive/Desktop/GD32VW553/V1_MQTT_OK/GD32VW55X_Wifi_BLE_SDK/GD32VW55x_RELEASE_V1.0.2/MSDK/cloud/alicloud/src/services/linkkit/dm\dm_message.c ****         (strlen(product_key) >= PRODUCT_KEY_MAXLEN) ||
1113:C:/Users/stapi/OneDrive/Desktop/GD32VW553/V1_MQTT_OK/GD32VW55X_Wifi_BLE_SDK/GD32VW55x_RELEASE_V1.0.2/MSDK/cloud/alicloud/src/services/linkkit/dm\dm_message.c ****         (strlen(device_name) >= DEVICE_NAME_MAXLEN)) {
1114:C:/Users/stapi/OneDrive/Desktop/GD32VW553/V1_MQTT_OK/GD32VW55X_Wifi_BLE_SDK/GD32VW55x_RELEASE_V1.0.2/MSDK/cloud/alicloud/src/services/linkkit/dm\dm_message.c ****         return DM_INVALID_PARAMETER;
1115:C:/Users/stapi/OneDrive/Desktop/GD32VW553/V1_MQTT_OK/GD32VW55X_Wifi_BLE_SDK/GD32VW55x_RELEASE_V1.0.2/MSDK/cloud/alicloud/src/services/linkkit/dm\dm_message.c ****     }
1116:C:/Users/stapi/OneDrive/Desktop/GD32VW553/V1_MQTT_OK/GD32VW55X_Wifi_BLE_SDK/GD32VW55x_RELEASE_V1.0.2/MSDK/cloud/alicloud/src/services/linkkit/dm\dm_message.c **** 
1117:C:/Users/stapi/OneDrive/Desktop/GD32VW553/V1_MQTT_OK/GD32VW55X_Wifi_BLE_SDK/GD32VW55x_RELEASE_V1.0.2/MSDK/cloud/alicloud/src/services/linkkit/dm\dm_message.c ****     res = dm_mgr_search_device_by_pkdn(product_key, device_name, &devid);
1118:C:/Users/stapi/OneDrive/Desktop/GD32VW553/V1_MQTT_OK/GD32VW55X_Wifi_BLE_SDK/GD32VW55x_RELEASE_V1.0.2/MSDK/cloud/alicloud/src/services/linkkit/dm\dm_message.c ****     if (res != SUCCESS_RETURN) {
1119:C:/Users/stapi/OneDrive/Desktop/GD32VW553/V1_MQTT_OK/GD32VW55X_Wifi_BLE_SDK/GD32VW55x_RELEASE_V1.0.2/MSDK/cloud/alicloud/src/services/linkkit/dm\dm_message.c ****         return FAIL_RETURN;
1120:C:/Users/stapi/OneDrive/Desktop/GD32VW553/V1_MQTT_OK/GD32VW55X_Wifi_BLE_SDK/GD32VW55x_RELEASE_V1.0.2/MSDK/cloud/alicloud/src/services/linkkit/dm\dm_message.c ****     }
1121:C:/Users/stapi/OneDrive/Desktop/GD32VW553/V1_MQTT_OK/GD32VW55X_Wifi_BLE_SDK/GD32VW55x_RELEASE_V1.0.2/MSDK/cloud/alicloud/src/services/linkkit/dm\dm_message.c **** 
1122:C:/Users/stapi/OneDrive/Desktop/GD32VW553/V1_MQTT_OK/GD32VW55X_Wifi_BLE_SDK/GD32VW55x_RELEASE_V1.0.2/MSDK/cloud/alicloud/src/services/linkkit/dm\dm_message.c ****     res = dm_mgr_set_dev_enable(devid);
1123:C:/Users/stapi/OneDrive/Desktop/GD32VW553/V1_MQTT_OK/GD32VW55X_Wifi_BLE_SDK/GD32VW55x_RELEASE_V1.0.2/MSDK/cloud/alicloud/src/services/linkkit/dm\dm_message.c ****     if (res != SUCCESS_RETURN) {
1124:C:/Users/stapi/OneDrive/Desktop/GD32VW553/V1_MQTT_OK/GD32VW55X_Wifi_BLE_SDK/GD32VW55x_RELEASE_V1.0.2/MSDK/cloud/alicloud/src/services/linkkit/dm\dm_message.c ****         return FAIL_RETURN;
1125:C:/Users/stapi/OneDrive/Desktop/GD32VW553/V1_MQTT_OK/GD32VW55X_Wifi_BLE_SDK/GD32VW55x_RELEASE_V1.0.2/MSDK/cloud/alicloud/src/services/linkkit/dm\dm_message.c ****     }
1126:C:/Users/stapi/OneDrive/Desktop/GD32VW553/V1_MQTT_OK/GD32VW55X_Wifi_BLE_SDK/GD32VW55x_RELEASE_V1.0.2/MSDK/cloud/alicloud/src/services/linkkit/dm\dm_message.c **** 
1127:C:/Users/stapi/OneDrive/Desktop/GD32VW553/V1_MQTT_OK/GD32VW55X_Wifi_BLE_SDK/GD32VW55x_RELEASE_V1.0.2/MSDK/cloud/alicloud/src/services/linkkit/dm\dm_message.c ****     message_len = strlen(DM_MSG_EVENT_THING_ENABLE_FMT) + DM_UTILS_UINT32_STRLEN + 1;
1128:C:/Users/stapi/OneDrive/Desktop/GD32VW553/V1_MQTT_OK/GD32VW55X_Wifi_BLE_SDK/GD32VW55x_RELEASE_V1.0.2/MSDK/cloud/alicloud/src/services/linkkit/dm\dm_message.c ****     message = DM_malloc(message_len);
1129:C:/Users/stapi/OneDrive/Desktop/GD32VW553/V1_MQTT_OK/GD32VW55X_Wifi_BLE_SDK/GD32VW55x_RELEASE_V1.0.2/MSDK/cloud/alicloud/src/services/linkkit/dm\dm_message.c ****     if (message == NULL) {
1130:C:/Users/stapi/OneDrive/Desktop/GD32VW553/V1_MQTT_OK/GD32VW55X_Wifi_BLE_SDK/GD32VW55x_RELEASE_V1.0.2/MSDK/cloud/alicloud/src/services/linkkit/dm\dm_message.c ****         return DM_MEMORY_NOT_ENOUGH;
1131:C:/Users/stapi/OneDrive/Desktop/GD32VW553/V1_MQTT_OK/GD32VW55X_Wifi_BLE_SDK/GD32VW55x_RELEASE_V1.0.2/MSDK/cloud/alicloud/src/services/linkkit/dm\dm_message.c ****     }
1132:C:/Users/stapi/OneDrive/Desktop/GD32VW553/V1_MQTT_OK/GD32VW55X_Wifi_BLE_SDK/GD32VW55x_RELEASE_V1.0.2/MSDK/cloud/alicloud/src/services/linkkit/dm\dm_message.c ****     memset(message, 0, message_len);
1133:C:/Users/stapi/OneDrive/Desktop/GD32VW553/V1_MQTT_OK/GD32VW55X_Wifi_BLE_SDK/GD32VW55x_RELEASE_V1.0.2/MSDK/cloud/alicloud/src/services/linkkit/dm\dm_message.c ****     HAL_Snprintf(message, message_len, DM_MSG_EVENT_THING_ENABLE_FMT, devid);
1134:C:/Users/stapi/OneDrive/Desktop/GD32VW553/V1_MQTT_OK/GD32VW55X_Wifi_BLE_SDK/GD32VW55x_RELEASE_V1.0.2/MSDK/cloud/alicloud/src/services/linkkit/dm\dm_message.c **** 
1135:C:/Users/stapi/OneDrive/Desktop/GD32VW553/V1_MQTT_OK/GD32VW55X_Wifi_BLE_SDK/GD32VW55x_RELEASE_V1.0.2/MSDK/cloud/alicloud/src/services/linkkit/dm\dm_message.c ****     res = _dm_msg_send_to_user(IOTX_DM_EVENT_THING_ENABLE, message);
1136:C:/Users/stapi/OneDrive/Desktop/GD32VW553/V1_MQTT_OK/GD32VW55X_Wifi_BLE_SDK/GD32VW55x_RELEASE_V1.0.2/MSDK/cloud/alicloud/src/services/linkkit/dm\dm_message.c ****     if (res != SUCCESS_RETURN) {
1137:C:/Users/stapi/OneDrive/Desktop/GD32VW553/V1_MQTT_OK/GD32VW55X_Wifi_BLE_SDK/GD32VW55x_RELEASE_V1.0.2/MSDK/cloud/alicloud/src/services/linkkit/dm\dm_message.c ****         DM_free(message);
1138:C:/Users/stapi/OneDrive/Desktop/GD32VW553/V1_MQTT_OK/GD32VW55X_Wifi_BLE_SDK/GD32VW55x_RELEASE_V1.0.2/MSDK/cloud/alicloud/src/services/linkkit/dm\dm_message.c ****         return FAIL_RETURN;
1139:C:/Users/stapi/OneDrive/Desktop/GD32VW553/V1_MQTT_OK/GD32VW55X_Wifi_BLE_SDK/GD32VW55x_RELEASE_V1.0.2/MSDK/cloud/alicloud/src/services/linkkit/dm\dm_message.c ****     }
1140:C:/Users/stapi/OneDrive/Desktop/GD32VW553/V1_MQTT_OK/GD32VW55X_Wifi_BLE_SDK/GD32VW55x_RELEASE_V1.0.2/MSDK/cloud/alicloud/src/services/linkkit/dm\dm_message.c **** 
1141:C:/Users/stapi/OneDrive/Desktop/GD32VW553/V1_MQTT_OK/GD32VW55X_Wifi_BLE_SDK/GD32VW55x_RELEASE_V1.0.2/MSDK/cloud/alicloud/src/services/linkkit/dm\dm_message.c ****     return SUCCESS_RETURN;
1142:C:/Users/stapi/OneDrive/Desktop/GD32VW553/V1_MQTT_OK/GD32VW55X_Wifi_BLE_SDK/GD32VW55x_RELEASE_V1.0.2/MSDK/cloud/alicloud/src/services/linkkit/dm\dm_message.c **** }
1143:C:/Users/stapi/OneDrive/Desktop/GD32VW553/V1_MQTT_OK/GD32VW55X_Wifi_BLE_SDK/GD32VW55x_RELEASE_V1.0.2/MSDK/cloud/alicloud/src/services/linkkit/dm\dm_message.c **** 
1144:C:/Users/stapi/OneDrive/Desktop/GD32VW553/V1_MQTT_OK/GD32VW55X_Wifi_BLE_SDK/GD32VW55x_RELEASE_V1.0.2/MSDK/cloud/alicloud/src/services/linkkit/dm\dm_message.c **** const char DM_MSG_EVENT_THING_DELETE_FMT[] DM_READ_ONLY =
1145:C:/Users/stapi/OneDrive/Desktop/GD32VW553/V1_MQTT_OK/GD32VW55X_Wifi_BLE_SDK/GD32VW55x_RELEASE_V1.0.2/MSDK/cloud/alicloud/src/services/linkkit/dm\dm_message.c ****             "{\"res\":%d,\"productKey\":\"%s\",\"deviceName\":\"%s\",\"devid\":%d}";
1146:C:/Users/stapi/OneDrive/Desktop/GD32VW553/V1_MQTT_OK/GD32VW55X_Wifi_BLE_SDK/GD32VW55x_RELEASE_V1.0.2/MSDK/cloud/alicloud/src/services/linkkit/dm\dm_message.c **** int dm_msg_thing_delete(_IN_ char product_key[PRODUCT_KEY_MAXLEN], _IN_ char device_name[DEVICE_NAM
1147:C:/Users/stapi/OneDrive/Desktop/GD32VW553/V1_MQTT_OK/GD32VW55X_Wifi_BLE_SDK/GD32VW55x_RELEASE_V1.0.2/MSDK/cloud/alicloud/src/services/linkkit/dm\dm_message.c **** {
1148:C:/Users/stapi/OneDrive/Desktop/GD32VW553/V1_MQTT_OK/GD32VW55X_Wifi_BLE_SDK/GD32VW55x_RELEASE_V1.0.2/MSDK/cloud/alicloud/src/services/linkkit/dm\dm_message.c ****     int res = 0, message_len = 0, devid = 0;
1149:C:/Users/stapi/OneDrive/Desktop/GD32VW553/V1_MQTT_OK/GD32VW55X_Wifi_BLE_SDK/GD32VW55x_RELEASE_V1.0.2/MSDK/cloud/alicloud/src/services/linkkit/dm\dm_message.c ****     char *message = NULL;
1150:C:/Users/stapi/OneDrive/Desktop/GD32VW553/V1_MQTT_OK/GD32VW55X_Wifi_BLE_SDK/GD32VW55x_RELEASE_V1.0.2/MSDK/cloud/alicloud/src/services/linkkit/dm\dm_message.c **** 
1151:C:/Users/stapi/OneDrive/Desktop/GD32VW553/V1_MQTT_OK/GD32VW55X_Wifi_BLE_SDK/GD32VW55x_RELEASE_V1.0.2/MSDK/cloud/alicloud/src/services/linkkit/dm\dm_message.c ****     if (product_key == NULL || device_name == NULL ||
1152:C:/Users/stapi/OneDrive/Desktop/GD32VW553/V1_MQTT_OK/GD32VW55X_Wifi_BLE_SDK/GD32VW55x_RELEASE_V1.0.2/MSDK/cloud/alicloud/src/services/linkkit/dm\dm_message.c ****         (strlen(product_key) >= PRODUCT_KEY_MAXLEN) ||
1153:C:/Users/stapi/OneDrive/Desktop/GD32VW553/V1_MQTT_OK/GD32VW55X_Wifi_BLE_SDK/GD32VW55x_RELEASE_V1.0.2/MSDK/cloud/alicloud/src/services/linkkit/dm\dm_message.c ****         (strlen(device_name) >= DEVICE_NAME_MAXLEN)) {
1154:C:/Users/stapi/OneDrive/Desktop/GD32VW553/V1_MQTT_OK/GD32VW55X_Wifi_BLE_SDK/GD32VW55x_RELEASE_V1.0.2/MSDK/cloud/alicloud/src/services/linkkit/dm\dm_message.c ****         return DM_INVALID_PARAMETER;
1155:C:/Users/stapi/OneDrive/Desktop/GD32VW553/V1_MQTT_OK/GD32VW55X_Wifi_BLE_SDK/GD32VW55x_RELEASE_V1.0.2/MSDK/cloud/alicloud/src/services/linkkit/dm\dm_message.c ****     }
1156:C:/Users/stapi/OneDrive/Desktop/GD32VW553/V1_MQTT_OK/GD32VW55X_Wifi_BLE_SDK/GD32VW55x_RELEASE_V1.0.2/MSDK/cloud/alicloud/src/services/linkkit/dm\dm_message.c **** 
1157:C:/Users/stapi/OneDrive/Desktop/GD32VW553/V1_MQTT_OK/GD32VW55X_Wifi_BLE_SDK/GD32VW55x_RELEASE_V1.0.2/MSDK/cloud/alicloud/src/services/linkkit/dm\dm_message.c ****     res = dm_mgr_search_device_by_pkdn(product_key, device_name, &devid);
1158:C:/Users/stapi/OneDrive/Desktop/GD32VW553/V1_MQTT_OK/GD32VW55X_Wifi_BLE_SDK/GD32VW55x_RELEASE_V1.0.2/MSDK/cloud/alicloud/src/services/linkkit/dm\dm_message.c ****     if (res == SUCCESS_RETURN) {
1159:C:/Users/stapi/OneDrive/Desktop/GD32VW553/V1_MQTT_OK/GD32VW55X_Wifi_BLE_SDK/GD32VW55x_RELEASE_V1.0.2/MSDK/cloud/alicloud/src/services/linkkit/dm\dm_message.c ****         return FAIL_RETURN;
1160:C:/Users/stapi/OneDrive/Desktop/GD32VW553/V1_MQTT_OK/GD32VW55X_Wifi_BLE_SDK/GD32VW55x_RELEASE_V1.0.2/MSDK/cloud/alicloud/src/services/linkkit/dm\dm_message.c ****     }
1161:C:/Users/stapi/OneDrive/Desktop/GD32VW553/V1_MQTT_OK/GD32VW55X_Wifi_BLE_SDK/GD32VW55x_RELEASE_V1.0.2/MSDK/cloud/alicloud/src/services/linkkit/dm\dm_message.c **** 
1162:C:/Users/stapi/OneDrive/Desktop/GD32VW553/V1_MQTT_OK/GD32VW55X_Wifi_BLE_SDK/GD32VW55x_RELEASE_V1.0.2/MSDK/cloud/alicloud/src/services/linkkit/dm\dm_message.c ****     res = dm_mgr_device_destroy(devid);
1163:C:/Users/stapi/OneDrive/Desktop/GD32VW553/V1_MQTT_OK/GD32VW55X_Wifi_BLE_SDK/GD32VW55x_RELEASE_V1.0.2/MSDK/cloud/alicloud/src/services/linkkit/dm\dm_message.c ****     if (res != SUCCESS_RETURN) {
1164:C:/Users/stapi/OneDrive/Desktop/GD32VW553/V1_MQTT_OK/GD32VW55X_Wifi_BLE_SDK/GD32VW55x_RELEASE_V1.0.2/MSDK/cloud/alicloud/src/services/linkkit/dm\dm_message.c ****         return FAIL_RETURN;
1165:C:/Users/stapi/OneDrive/Desktop/GD32VW553/V1_MQTT_OK/GD32VW55X_Wifi_BLE_SDK/GD32VW55x_RELEASE_V1.0.2/MSDK/cloud/alicloud/src/services/linkkit/dm\dm_message.c ****     }
1166:C:/Users/stapi/OneDrive/Desktop/GD32VW553/V1_MQTT_OK/GD32VW55X_Wifi_BLE_SDK/GD32VW55x_RELEASE_V1.0.2/MSDK/cloud/alicloud/src/services/linkkit/dm\dm_message.c **** 
1167:C:/Users/stapi/OneDrive/Desktop/GD32VW553/V1_MQTT_OK/GD32VW55X_Wifi_BLE_SDK/GD32VW55x_RELEASE_V1.0.2/MSDK/cloud/alicloud/src/services/linkkit/dm\dm_message.c ****     message_len = strlen(DM_MSG_EVENT_THING_DELETE_FMT) + strlen(product_key) + strlen(device_name)
1168:C:/Users/stapi/OneDrive/Desktop/GD32VW553/V1_MQTT_OK/GD32VW55X_Wifi_BLE_SDK/GD32VW55x_RELEASE_V1.0.2/MSDK/cloud/alicloud/src/services/linkkit/dm\dm_message.c ****     message = DM_malloc(message_len);
1169:C:/Users/stapi/OneDrive/Desktop/GD32VW553/V1_MQTT_OK/GD32VW55X_Wifi_BLE_SDK/GD32VW55x_RELEASE_V1.0.2/MSDK/cloud/alicloud/src/services/linkkit/dm\dm_message.c ****     if (message == NULL) {
1170:C:/Users/stapi/OneDrive/Desktop/GD32VW553/V1_MQTT_OK/GD32VW55X_Wifi_BLE_SDK/GD32VW55x_RELEASE_V1.0.2/MSDK/cloud/alicloud/src/services/linkkit/dm\dm_message.c ****         return DM_MEMORY_NOT_ENOUGH;
1171:C:/Users/stapi/OneDrive/Desktop/GD32VW553/V1_MQTT_OK/GD32VW55X_Wifi_BLE_SDK/GD32VW55x_RELEASE_V1.0.2/MSDK/cloud/alicloud/src/services/linkkit/dm\dm_message.c ****     }
1172:C:/Users/stapi/OneDrive/Desktop/GD32VW553/V1_MQTT_OK/GD32VW55X_Wifi_BLE_SDK/GD32VW55x_RELEASE_V1.0.2/MSDK/cloud/alicloud/src/services/linkkit/dm\dm_message.c ****     memset(message, 0, message_len);
1173:C:/Users/stapi/OneDrive/Desktop/GD32VW553/V1_MQTT_OK/GD32VW55X_Wifi_BLE_SDK/GD32VW55x_RELEASE_V1.0.2/MSDK/cloud/alicloud/src/services/linkkit/dm\dm_message.c ****     HAL_Snprintf(message, message_len, DM_MSG_EVENT_THING_DELETE_FMT, res, product_key, device_name
1174:C:/Users/stapi/OneDrive/Desktop/GD32VW553/V1_MQTT_OK/GD32VW55X_Wifi_BLE_SDK/GD32VW55x_RELEASE_V1.0.2/MSDK/cloud/alicloud/src/services/linkkit/dm\dm_message.c **** 
1175:C:/Users/stapi/OneDrive/Desktop/GD32VW553/V1_MQTT_OK/GD32VW55X_Wifi_BLE_SDK/GD32VW55x_RELEASE_V1.0.2/MSDK/cloud/alicloud/src/services/linkkit/dm\dm_message.c ****     res = _dm_msg_send_to_user(IOTX_DM_EVENT_THING_DELETE, message);
1176:C:/Users/stapi/OneDrive/Desktop/GD32VW553/V1_MQTT_OK/GD32VW55X_Wifi_BLE_SDK/GD32VW55x_RELEASE_V1.0.2/MSDK/cloud/alicloud/src/services/linkkit/dm\dm_message.c ****     if (res != SUCCESS_RETURN) {
1177:C:/Users/stapi/OneDrive/Desktop/GD32VW553/V1_MQTT_OK/GD32VW55X_Wifi_BLE_SDK/GD32VW55x_RELEASE_V1.0.2/MSDK/cloud/alicloud/src/services/linkkit/dm\dm_message.c ****         DM_free(message);
1178:C:/Users/stapi/OneDrive/Desktop/GD32VW553/V1_MQTT_OK/GD32VW55X_Wifi_BLE_SDK/GD32VW55x_RELEASE_V1.0.2/MSDK/cloud/alicloud/src/services/linkkit/dm\dm_message.c ****         return FAIL_RETURN;
1179:C:/Users/stapi/OneDrive/Desktop/GD32VW553/V1_MQTT_OK/GD32VW55X_Wifi_BLE_SDK/GD32VW55x_RELEASE_V1.0.2/MSDK/cloud/alicloud/src/services/linkkit/dm\dm_message.c ****     }
1180:C:/Users/stapi/OneDrive/Desktop/GD32VW553/V1_MQTT_OK/GD32VW55X_Wifi_BLE_SDK/GD32VW55x_RELEASE_V1.0.2/MSDK/cloud/alicloud/src/services/linkkit/dm\dm_message.c **** 
1181:C:/Users/stapi/OneDrive/Desktop/GD32VW553/V1_MQTT_OK/GD32VW55X_Wifi_BLE_SDK/GD32VW55x_RELEASE_V1.0.2/MSDK/cloud/alicloud/src/services/linkkit/dm\dm_message.c ****     return SUCCESS_RETURN;
1182:C:/Users/stapi/OneDrive/Desktop/GD32VW553/V1_MQTT_OK/GD32VW55X_Wifi_BLE_SDK/GD32VW55x_RELEASE_V1.0.2/MSDK/cloud/alicloud/src/services/linkkit/dm\dm_message.c **** }
1183:C:/Users/stapi/OneDrive/Desktop/GD32VW553/V1_MQTT_OK/GD32VW55X_Wifi_BLE_SDK/GD32VW55x_RELEASE_V1.0.2/MSDK/cloud/alicloud/src/services/linkkit/dm\dm_message.c **** 
1184:C:/Users/stapi/OneDrive/Desktop/GD32VW553/V1_MQTT_OK/GD32VW55X_Wifi_BLE_SDK/GD32VW55x_RELEASE_V1.0.2/MSDK/cloud/alicloud/src/services/linkkit/dm\dm_message.c **** int dm_msg_thing_topo_change(_IN_ char *payload, _IN_ int payload_len)
1185:C:/Users/stapi/OneDrive/Desktop/GD32VW553/V1_MQTT_OK/GD32VW55X_Wifi_BLE_SDK/GD32VW55x_RELEASE_V1.0.2/MSDK/cloud/alicloud/src/services/linkkit/dm\dm_message.c **** {
1186:C:/Users/stapi/OneDrive/Desktop/GD32VW553/V1_MQTT_OK/GD32VW55X_Wifi_BLE_SDK/GD32VW55x_RELEASE_V1.0.2/MSDK/cloud/alicloud/src/services/linkkit/dm\dm_message.c ****     int res = 0, message_len = 0;
1187:C:/Users/stapi/OneDrive/Desktop/GD32VW553/V1_MQTT_OK/GD32VW55X_Wifi_BLE_SDK/GD32VW55x_RELEASE_V1.0.2/MSDK/cloud/alicloud/src/services/linkkit/dm\dm_message.c ****     char *message = NULL;
1188:C:/Users/stapi/OneDrive/Desktop/GD32VW553/V1_MQTT_OK/GD32VW55X_Wifi_BLE_SDK/GD32VW55x_RELEASE_V1.0.2/MSDK/cloud/alicloud/src/services/linkkit/dm\dm_message.c ****     char *topo_change_fmt = "{\"devid\":%d,\"code\":%d,\"payload\":%.*s}";
1189:C:/Users/stapi/OneDrive/Desktop/GD32VW553/V1_MQTT_OK/GD32VW55X_Wifi_BLE_SDK/GD32VW55x_RELEASE_V1.0.2/MSDK/cloud/alicloud/src/services/linkkit/dm\dm_message.c ****     lite_cjson_t lite;
1190:C:/Users/stapi/OneDrive/Desktop/GD32VW553/V1_MQTT_OK/GD32VW55X_Wifi_BLE_SDK/GD32VW55x_RELEASE_V1.0.2/MSDK/cloud/alicloud/src/services/linkkit/dm\dm_message.c **** 
1191:C:/Users/stapi/OneDrive/Desktop/GD32VW553/V1_MQTT_OK/GD32VW55X_Wifi_BLE_SDK/GD32VW55x_RELEASE_V1.0.2/MSDK/cloud/alicloud/src/services/linkkit/dm\dm_message.c ****     if (payload == NULL || payload_len <= 0) {
1192:C:/Users/stapi/OneDrive/Desktop/GD32VW553/V1_MQTT_OK/GD32VW55X_Wifi_BLE_SDK/GD32VW55x_RELEASE_V1.0.2/MSDK/cloud/alicloud/src/services/linkkit/dm\dm_message.c ****         return DM_INVALID_PARAMETER;
1193:C:/Users/stapi/OneDrive/Desktop/GD32VW553/V1_MQTT_OK/GD32VW55X_Wifi_BLE_SDK/GD32VW55x_RELEASE_V1.0.2/MSDK/cloud/alicloud/src/services/linkkit/dm\dm_message.c ****     }
1194:C:/Users/stapi/OneDrive/Desktop/GD32VW553/V1_MQTT_OK/GD32VW55X_Wifi_BLE_SDK/GD32VW55x_RELEASE_V1.0.2/MSDK/cloud/alicloud/src/services/linkkit/dm\dm_message.c **** 
1195:C:/Users/stapi/OneDrive/Desktop/GD32VW553/V1_MQTT_OK/GD32VW55X_Wifi_BLE_SDK/GD32VW55x_RELEASE_V1.0.2/MSDK/cloud/alicloud/src/services/linkkit/dm\dm_message.c ****     res = lite_cjson_parse(payload, payload_len, &lite);
1196:C:/Users/stapi/OneDrive/Desktop/GD32VW553/V1_MQTT_OK/GD32VW55X_Wifi_BLE_SDK/GD32VW55x_RELEASE_V1.0.2/MSDK/cloud/alicloud/src/services/linkkit/dm\dm_message.c ****     if (res != SUCCESS_RETURN || !lite_cjson_is_object(&lite)) {
1197:C:/Users/stapi/OneDrive/Desktop/GD32VW553/V1_MQTT_OK/GD32VW55X_Wifi_BLE_SDK/GD32VW55x_RELEASE_V1.0.2/MSDK/cloud/alicloud/src/services/linkkit/dm\dm_message.c ****         return DM_JSON_PARSE_FAILED;
1198:C:/Users/stapi/OneDrive/Desktop/GD32VW553/V1_MQTT_OK/GD32VW55X_Wifi_BLE_SDK/GD32VW55x_RELEASE_V1.0.2/MSDK/cloud/alicloud/src/services/linkkit/dm\dm_message.c ****     }
1199:C:/Users/stapi/OneDrive/Desktop/GD32VW553/V1_MQTT_OK/GD32VW55X_Wifi_BLE_SDK/GD32VW55x_RELEASE_V1.0.2/MSDK/cloud/alicloud/src/services/linkkit/dm\dm_message.c **** 
1200:C:/Users/stapi/OneDrive/Desktop/GD32VW553/V1_MQTT_OK/GD32VW55X_Wifi_BLE_SDK/GD32VW55x_RELEASE_V1.0.2/MSDK/cloud/alicloud/src/services/linkkit/dm\dm_message.c ****     message_len = strlen(topo_change_fmt) + payload_len + DM_UTILS_UINT32_STRLEN * 2 + 1;
1201:C:/Users/stapi/OneDrive/Desktop/GD32VW553/V1_MQTT_OK/GD32VW55X_Wifi_BLE_SDK/GD32VW55x_RELEASE_V1.0.2/MSDK/cloud/alicloud/src/services/linkkit/dm\dm_message.c ****     message = DM_malloc(message_len);
1202:C:/Users/stapi/OneDrive/Desktop/GD32VW553/V1_MQTT_OK/GD32VW55X_Wifi_BLE_SDK/GD32VW55x_RELEASE_V1.0.2/MSDK/cloud/alicloud/src/services/linkkit/dm\dm_message.c ****     if (message == NULL) {
1203:C:/Users/stapi/OneDrive/Desktop/GD32VW553/V1_MQTT_OK/GD32VW55X_Wifi_BLE_SDK/GD32VW55x_RELEASE_V1.0.2/MSDK/cloud/alicloud/src/services/linkkit/dm\dm_message.c ****         return DM_MEMORY_NOT_ENOUGH;
1204:C:/Users/stapi/OneDrive/Desktop/GD32VW553/V1_MQTT_OK/GD32VW55X_Wifi_BLE_SDK/GD32VW55x_RELEASE_V1.0.2/MSDK/cloud/alicloud/src/services/linkkit/dm\dm_message.c ****     }
1205:C:/Users/stapi/OneDrive/Desktop/GD32VW553/V1_MQTT_OK/GD32VW55X_Wifi_BLE_SDK/GD32VW55x_RELEASE_V1.0.2/MSDK/cloud/alicloud/src/services/linkkit/dm\dm_message.c ****     memset(message, 0, message_len);
1206:C:/Users/stapi/OneDrive/Desktop/GD32VW553/V1_MQTT_OK/GD32VW55X_Wifi_BLE_SDK/GD32VW55x_RELEASE_V1.0.2/MSDK/cloud/alicloud/src/services/linkkit/dm\dm_message.c ****     HAL_Snprintf(message, message_len, topo_change_fmt, IOTX_DM_LOCAL_NODE_DEVID, 200, payload_len,
1207:C:/Users/stapi/OneDrive/Desktop/GD32VW553/V1_MQTT_OK/GD32VW55X_Wifi_BLE_SDK/GD32VW55x_RELEASE_V1.0.2/MSDK/cloud/alicloud/src/services/linkkit/dm\dm_message.c **** 
1208:C:/Users/stapi/OneDrive/Desktop/GD32VW553/V1_MQTT_OK/GD32VW55X_Wifi_BLE_SDK/GD32VW55x_RELEASE_V1.0.2/MSDK/cloud/alicloud/src/services/linkkit/dm\dm_message.c ****     res = _dm_msg_send_to_user(IOTX_DM_EVENT_TOPO_CHANGE, message);
1209:C:/Users/stapi/OneDrive/Desktop/GD32VW553/V1_MQTT_OK/GD32VW55X_Wifi_BLE_SDK/GD32VW55x_RELEASE_V1.0.2/MSDK/cloud/alicloud/src/services/linkkit/dm\dm_message.c ****     if (res != SUCCESS_RETURN) {
1210:C:/Users/stapi/OneDrive/Desktop/GD32VW553/V1_MQTT_OK/GD32VW55X_Wifi_BLE_SDK/GD32VW55x_RELEASE_V1.0.2/MSDK/cloud/alicloud/src/services/linkkit/dm\dm_message.c ****         DM_free(message);
1211:C:/Users/stapi/OneDrive/Desktop/GD32VW553/V1_MQTT_OK/GD32VW55X_Wifi_BLE_SDK/GD32VW55x_RELEASE_V1.0.2/MSDK/cloud/alicloud/src/services/linkkit/dm\dm_message.c ****         return FAIL_RETURN;
1212:C:/Users/stapi/OneDrive/Desktop/GD32VW553/V1_MQTT_OK/GD32VW55X_Wifi_BLE_SDK/GD32VW55x_RELEASE_V1.0.2/MSDK/cloud/alicloud/src/services/linkkit/dm\dm_message.c ****     }
1213:C:/Users/stapi/OneDrive/Desktop/GD32VW553/V1_MQTT_OK/GD32VW55X_Wifi_BLE_SDK/GD32VW55x_RELEASE_V1.0.2/MSDK/cloud/alicloud/src/services/linkkit/dm\dm_message.c **** 
1214:C:/Users/stapi/OneDrive/Desktop/GD32VW553/V1_MQTT_OK/GD32VW55X_Wifi_BLE_SDK/GD32VW55x_RELEASE_V1.0.2/MSDK/cloud/alicloud/src/services/linkkit/dm\dm_message.c ****     return SUCCESS_RETURN;
1215:C:/Users/stapi/OneDrive/Desktop/GD32VW553/V1_MQTT_OK/GD32VW55X_Wifi_BLE_SDK/GD32VW55x_RELEASE_V1.0.2/MSDK/cloud/alicloud/src/services/linkkit/dm\dm_message.c **** }
1216:C:/Users/stapi/OneDrive/Desktop/GD32VW553/V1_MQTT_OK/GD32VW55X_Wifi_BLE_SDK/GD32VW55x_RELEASE_V1.0.2/MSDK/cloud/alicloud/src/services/linkkit/dm\dm_message.c **** 
1217:C:/Users/stapi/OneDrive/Desktop/GD32VW553/V1_MQTT_OK/GD32VW55X_Wifi_BLE_SDK/GD32VW55x_RELEASE_V1.0.2/MSDK/cloud/alicloud/src/services/linkkit/dm\dm_message.c **** int dm_msg_thing_gateway_permit(_IN_ char *payload, _IN_ int payload_len)
1218:C:/Users/stapi/OneDrive/Desktop/GD32VW553/V1_MQTT_OK/GD32VW55X_Wifi_BLE_SDK/GD32VW55x_RELEASE_V1.0.2/MSDK/cloud/alicloud/src/services/linkkit/dm\dm_message.c **** {
1219:C:/Users/stapi/OneDrive/Desktop/GD32VW553/V1_MQTT_OK/GD32VW55X_Wifi_BLE_SDK/GD32VW55x_RELEASE_V1.0.2/MSDK/cloud/alicloud/src/services/linkkit/dm\dm_message.c ****     int res = 0, message_len = 0;
1220:C:/Users/stapi/OneDrive/Desktop/GD32VW553/V1_MQTT_OK/GD32VW55X_Wifi_BLE_SDK/GD32VW55x_RELEASE_V1.0.2/MSDK/cloud/alicloud/src/services/linkkit/dm\dm_message.c ****     char *message = NULL;
1221:C:/Users/stapi/OneDrive/Desktop/GD32VW553/V1_MQTT_OK/GD32VW55X_Wifi_BLE_SDK/GD32VW55x_RELEASE_V1.0.2/MSDK/cloud/alicloud/src/services/linkkit/dm\dm_message.c ****     lite_cjson_t lite;
1222:C:/Users/stapi/OneDrive/Desktop/GD32VW553/V1_MQTT_OK/GD32VW55X_Wifi_BLE_SDK/GD32VW55x_RELEASE_V1.0.2/MSDK/cloud/alicloud/src/services/linkkit/dm\dm_message.c **** 
1223:C:/Users/stapi/OneDrive/Desktop/GD32VW553/V1_MQTT_OK/GD32VW55X_Wifi_BLE_SDK/GD32VW55x_RELEASE_V1.0.2/MSDK/cloud/alicloud/src/services/linkkit/dm\dm_message.c ****     if (payload == NULL || payload_len <= 0) {
1224:C:/Users/stapi/OneDrive/Desktop/GD32VW553/V1_MQTT_OK/GD32VW55X_Wifi_BLE_SDK/GD32VW55x_RELEASE_V1.0.2/MSDK/cloud/alicloud/src/services/linkkit/dm\dm_message.c ****         return DM_INVALID_PARAMETER;
1225:C:/Users/stapi/OneDrive/Desktop/GD32VW553/V1_MQTT_OK/GD32VW55X_Wifi_BLE_SDK/GD32VW55x_RELEASE_V1.0.2/MSDK/cloud/alicloud/src/services/linkkit/dm\dm_message.c ****     }
1226:C:/Users/stapi/OneDrive/Desktop/GD32VW553/V1_MQTT_OK/GD32VW55X_Wifi_BLE_SDK/GD32VW55x_RELEASE_V1.0.2/MSDK/cloud/alicloud/src/services/linkkit/dm\dm_message.c **** 
1227:C:/Users/stapi/OneDrive/Desktop/GD32VW553/V1_MQTT_OK/GD32VW55X_Wifi_BLE_SDK/GD32VW55x_RELEASE_V1.0.2/MSDK/cloud/alicloud/src/services/linkkit/dm\dm_message.c ****     res = lite_cjson_parse(payload, payload_len, &lite);
1228:C:/Users/stapi/OneDrive/Desktop/GD32VW553/V1_MQTT_OK/GD32VW55X_Wifi_BLE_SDK/GD32VW55x_RELEASE_V1.0.2/MSDK/cloud/alicloud/src/services/linkkit/dm\dm_message.c ****     if (res != SUCCESS_RETURN || !lite_cjson_is_object(&lite)) {
1229:C:/Users/stapi/OneDrive/Desktop/GD32VW553/V1_MQTT_OK/GD32VW55X_Wifi_BLE_SDK/GD32VW55x_RELEASE_V1.0.2/MSDK/cloud/alicloud/src/services/linkkit/dm\dm_message.c ****         return DM_JSON_PARSE_FAILED;
1230:C:/Users/stapi/OneDrive/Desktop/GD32VW553/V1_MQTT_OK/GD32VW55X_Wifi_BLE_SDK/GD32VW55x_RELEASE_V1.0.2/MSDK/cloud/alicloud/src/services/linkkit/dm\dm_message.c ****     }
1231:C:/Users/stapi/OneDrive/Desktop/GD32VW553/V1_MQTT_OK/GD32VW55X_Wifi_BLE_SDK/GD32VW55x_RELEASE_V1.0.2/MSDK/cloud/alicloud/src/services/linkkit/dm\dm_message.c **** 
1232:C:/Users/stapi/OneDrive/Desktop/GD32VW553/V1_MQTT_OK/GD32VW55X_Wifi_BLE_SDK/GD32VW55x_RELEASE_V1.0.2/MSDK/cloud/alicloud/src/services/linkkit/dm\dm_message.c ****     message_len = payload_len + 1;
1233:C:/Users/stapi/OneDrive/Desktop/GD32VW553/V1_MQTT_OK/GD32VW55X_Wifi_BLE_SDK/GD32VW55x_RELEASE_V1.0.2/MSDK/cloud/alicloud/src/services/linkkit/dm\dm_message.c ****     message = DM_malloc(message_len);
1234:C:/Users/stapi/OneDrive/Desktop/GD32VW553/V1_MQTT_OK/GD32VW55X_Wifi_BLE_SDK/GD32VW55x_RELEASE_V1.0.2/MSDK/cloud/alicloud/src/services/linkkit/dm\dm_message.c ****     if (message == NULL) {
1235:C:/Users/stapi/OneDrive/Desktop/GD32VW553/V1_MQTT_OK/GD32VW55X_Wifi_BLE_SDK/GD32VW55x_RELEASE_V1.0.2/MSDK/cloud/alicloud/src/services/linkkit/dm\dm_message.c ****         return DM_MEMORY_NOT_ENOUGH;
1236:C:/Users/stapi/OneDrive/Desktop/GD32VW553/V1_MQTT_OK/GD32VW55X_Wifi_BLE_SDK/GD32VW55x_RELEASE_V1.0.2/MSDK/cloud/alicloud/src/services/linkkit/dm\dm_message.c ****     }
1237:C:/Users/stapi/OneDrive/Desktop/GD32VW553/V1_MQTT_OK/GD32VW55X_Wifi_BLE_SDK/GD32VW55x_RELEASE_V1.0.2/MSDK/cloud/alicloud/src/services/linkkit/dm\dm_message.c ****     memcpy(message, payload, payload_len);
1238:C:/Users/stapi/OneDrive/Desktop/GD32VW553/V1_MQTT_OK/GD32VW55X_Wifi_BLE_SDK/GD32VW55x_RELEASE_V1.0.2/MSDK/cloud/alicloud/src/services/linkkit/dm\dm_message.c **** 
1239:C:/Users/stapi/OneDrive/Desktop/GD32VW553/V1_MQTT_OK/GD32VW55X_Wifi_BLE_SDK/GD32VW55x_RELEASE_V1.0.2/MSDK/cloud/alicloud/src/services/linkkit/dm\dm_message.c ****     res = _dm_msg_send_to_user(IOTX_DM_EVENT_GATEWAY_PERMIT, message);
1240:C:/Users/stapi/OneDrive/Desktop/GD32VW553/V1_MQTT_OK/GD32VW55X_Wifi_BLE_SDK/GD32VW55x_RELEASE_V1.0.2/MSDK/cloud/alicloud/src/services/linkkit/dm\dm_message.c ****     if (res != SUCCESS_RETURN) {
1241:C:/Users/stapi/OneDrive/Desktop/GD32VW553/V1_MQTT_OK/GD32VW55X_Wifi_BLE_SDK/GD32VW55x_RELEASE_V1.0.2/MSDK/cloud/alicloud/src/services/linkkit/dm\dm_message.c ****         DM_free(message);
1242:C:/Users/stapi/OneDrive/Desktop/GD32VW553/V1_MQTT_OK/GD32VW55X_Wifi_BLE_SDK/GD32VW55x_RELEASE_V1.0.2/MSDK/cloud/alicloud/src/services/linkkit/dm\dm_message.c ****         return FAIL_RETURN;
1243:C:/Users/stapi/OneDrive/Desktop/GD32VW553/V1_MQTT_OK/GD32VW55X_Wifi_BLE_SDK/GD32VW55x_RELEASE_V1.0.2/MSDK/cloud/alicloud/src/services/linkkit/dm\dm_message.c ****     }
1244:C:/Users/stapi/OneDrive/Desktop/GD32VW553/V1_MQTT_OK/GD32VW55X_Wifi_BLE_SDK/GD32VW55x_RELEASE_V1.0.2/MSDK/cloud/alicloud/src/services/linkkit/dm\dm_message.c **** 
1245:C:/Users/stapi/OneDrive/Desktop/GD32VW553/V1_MQTT_OK/GD32VW55X_Wifi_BLE_SDK/GD32VW55x_RELEASE_V1.0.2/MSDK/cloud/alicloud/src/services/linkkit/dm\dm_message.c ****     return SUCCESS_RETURN;
1246:C:/Users/stapi/OneDrive/Desktop/GD32VW553/V1_MQTT_OK/GD32VW55X_Wifi_BLE_SDK/GD32VW55x_RELEASE_V1.0.2/MSDK/cloud/alicloud/src/services/linkkit/dm\dm_message.c **** }
1247:C:/Users/stapi/OneDrive/Desktop/GD32VW553/V1_MQTT_OK/GD32VW55X_Wifi_BLE_SDK/GD32VW55x_RELEASE_V1.0.2/MSDK/cloud/alicloud/src/services/linkkit/dm\dm_message.c **** 
1248:C:/Users/stapi/OneDrive/Desktop/GD32VW553/V1_MQTT_OK/GD32VW55X_Wifi_BLE_SDK/GD32VW55x_RELEASE_V1.0.2/MSDK/cloud/alicloud/src/services/linkkit/dm\dm_message.c **** const char DM_MSG_EVENT_SUBDEV_REGISTER_REPLY_FMT[] DM_READ_ONLY = "{\"id\":%d,\"code\":%d,\"devid\
1249:C:/Users/stapi/OneDrive/Desktop/GD32VW553/V1_MQTT_OK/GD32VW55X_Wifi_BLE_SDK/GD32VW55x_RELEASE_V1.0.2/MSDK/cloud/alicloud/src/services/linkkit/dm\dm_message.c **** int dm_msg_thing_sub_register_reply(dm_msg_response_payload_t *response)
1250:C:/Users/stapi/OneDrive/Desktop/GD32VW553/V1_MQTT_OK/GD32VW55X_Wifi_BLE_SDK/GD32VW55x_RELEASE_V1.0.2/MSDK/cloud/alicloud/src/services/linkkit/dm\dm_message.c **** {
1251:C:/Users/stapi/OneDrive/Desktop/GD32VW553/V1_MQTT_OK/GD32VW55X_Wifi_BLE_SDK/GD32VW55x_RELEASE_V1.0.2/MSDK/cloud/alicloud/src/services/linkkit/dm\dm_message.c ****     int res = 0, index = 0, message_len = 0, devid = 0;
1252:C:/Users/stapi/OneDrive/Desktop/GD32VW553/V1_MQTT_OK/GD32VW55X_Wifi_BLE_SDK/GD32VW55x_RELEASE_V1.0.2/MSDK/cloud/alicloud/src/services/linkkit/dm\dm_message.c ****     lite_cjson_t lite, lite_item, lite_item_pk, lite_item_dn, lite_item_ds;
1253:C:/Users/stapi/OneDrive/Desktop/GD32VW553/V1_MQTT_OK/GD32VW55X_Wifi_BLE_SDK/GD32VW55x_RELEASE_V1.0.2/MSDK/cloud/alicloud/src/services/linkkit/dm\dm_message.c ****     char *message = NULL;
1254:C:/Users/stapi/OneDrive/Desktop/GD32VW553/V1_MQTT_OK/GD32VW55X_Wifi_BLE_SDK/GD32VW55x_RELEASE_V1.0.2/MSDK/cloud/alicloud/src/services/linkkit/dm\dm_message.c ****     char product_key[PRODUCT_KEY_MAXLEN] = {0};
1255:C:/Users/stapi/OneDrive/Desktop/GD32VW553/V1_MQTT_OK/GD32VW55X_Wifi_BLE_SDK/GD32VW55x_RELEASE_V1.0.2/MSDK/cloud/alicloud/src/services/linkkit/dm\dm_message.c ****     char device_name[DEVICE_NAME_MAXLEN] = {0};
1256:C:/Users/stapi/OneDrive/Desktop/GD32VW553/V1_MQTT_OK/GD32VW55X_Wifi_BLE_SDK/GD32VW55x_RELEASE_V1.0.2/MSDK/cloud/alicloud/src/services/linkkit/dm\dm_message.c ****     char device_secret[DEVICE_SECRET_MAXLEN] = {0};
1257:C:/Users/stapi/OneDrive/Desktop/GD32VW553/V1_MQTT_OK/GD32VW55X_Wifi_BLE_SDK/GD32VW55x_RELEASE_V1.0.2/MSDK/cloud/alicloud/src/services/linkkit/dm\dm_message.c ****     char temp_id[DM_UTILS_UINT32_STRLEN+1] = {0};
1258:C:/Users/stapi/OneDrive/Desktop/GD32VW553/V1_MQTT_OK/GD32VW55X_Wifi_BLE_SDK/GD32VW55x_RELEASE_V1.0.2/MSDK/cloud/alicloud/src/services/linkkit/dm\dm_message.c **** 
1259:C:/Users/stapi/OneDrive/Desktop/GD32VW553/V1_MQTT_OK/GD32VW55X_Wifi_BLE_SDK/GD32VW55x_RELEASE_V1.0.2/MSDK/cloud/alicloud/src/services/linkkit/dm\dm_message.c ****     if (response == NULL) {
1260:C:/Users/stapi/OneDrive/Desktop/GD32VW553/V1_MQTT_OK/GD32VW55X_Wifi_BLE_SDK/GD32VW55x_RELEASE_V1.0.2/MSDK/cloud/alicloud/src/services/linkkit/dm\dm_message.c ****         return DM_INVALID_PARAMETER;
1261:C:/Users/stapi/OneDrive/Desktop/GD32VW553/V1_MQTT_OK/GD32VW55X_Wifi_BLE_SDK/GD32VW55x_RELEASE_V1.0.2/MSDK/cloud/alicloud/src/services/linkkit/dm\dm_message.c ****     }
1262:C:/Users/stapi/OneDrive/Desktop/GD32VW553/V1_MQTT_OK/GD32VW55X_Wifi_BLE_SDK/GD32VW55x_RELEASE_V1.0.2/MSDK/cloud/alicloud/src/services/linkkit/dm\dm_message.c **** 
1263:C:/Users/stapi/OneDrive/Desktop/GD32VW553/V1_MQTT_OK/GD32VW55X_Wifi_BLE_SDK/GD32VW55x_RELEASE_V1.0.2/MSDK/cloud/alicloud/src/services/linkkit/dm\dm_message.c ****     res = lite_cjson_parse(response->data.value, response->data.value_length, &lite);
1264:C:/Users/stapi/OneDrive/Desktop/GD32VW553/V1_MQTT_OK/GD32VW55X_Wifi_BLE_SDK/GD32VW55x_RELEASE_V1.0.2/MSDK/cloud/alicloud/src/services/linkkit/dm\dm_message.c ****     if (res != SUCCESS_RETURN || !lite_cjson_is_array(&lite)) {
1265:C:/Users/stapi/OneDrive/Desktop/GD32VW553/V1_MQTT_OK/GD32VW55X_Wifi_BLE_SDK/GD32VW55x_RELEASE_V1.0.2/MSDK/cloud/alicloud/src/services/linkkit/dm\dm_message.c ****         return DM_JSON_PARSE_FAILED;
1266:C:/Users/stapi/OneDrive/Desktop/GD32VW553/V1_MQTT_OK/GD32VW55X_Wifi_BLE_SDK/GD32VW55x_RELEASE_V1.0.2/MSDK/cloud/alicloud/src/services/linkkit/dm\dm_message.c ****     }
1267:C:/Users/stapi/OneDrive/Desktop/GD32VW553/V1_MQTT_OK/GD32VW55X_Wifi_BLE_SDK/GD32VW55x_RELEASE_V1.0.2/MSDK/cloud/alicloud/src/services/linkkit/dm\dm_message.c **** 
1268:C:/Users/stapi/OneDrive/Desktop/GD32VW553/V1_MQTT_OK/GD32VW55X_Wifi_BLE_SDK/GD32VW55x_RELEASE_V1.0.2/MSDK/cloud/alicloud/src/services/linkkit/dm\dm_message.c ****     for (index = 0; index < lite.size; index++) {
1269:C:/Users/stapi/OneDrive/Desktop/GD32VW553/V1_MQTT_OK/GD32VW55X_Wifi_BLE_SDK/GD32VW55x_RELEASE_V1.0.2/MSDK/cloud/alicloud/src/services/linkkit/dm\dm_message.c ****         devid = 0;
1270:C:/Users/stapi/OneDrive/Desktop/GD32VW553/V1_MQTT_OK/GD32VW55X_Wifi_BLE_SDK/GD32VW55x_RELEASE_V1.0.2/MSDK/cloud/alicloud/src/services/linkkit/dm\dm_message.c ****         message_len = 0;
1271:C:/Users/stapi/OneDrive/Desktop/GD32VW553/V1_MQTT_OK/GD32VW55X_Wifi_BLE_SDK/GD32VW55x_RELEASE_V1.0.2/MSDK/cloud/alicloud/src/services/linkkit/dm\dm_message.c ****         message = NULL;
1272:C:/Users/stapi/OneDrive/Desktop/GD32VW553/V1_MQTT_OK/GD32VW55X_Wifi_BLE_SDK/GD32VW55x_RELEASE_V1.0.2/MSDK/cloud/alicloud/src/services/linkkit/dm\dm_message.c ****         memset(temp_id, 0, DM_UTILS_UINT32_STRLEN);
1273:C:/Users/stapi/OneDrive/Desktop/GD32VW553/V1_MQTT_OK/GD32VW55X_Wifi_BLE_SDK/GD32VW55x_RELEASE_V1.0.2/MSDK/cloud/alicloud/src/services/linkkit/dm\dm_message.c ****         memset(product_key, 0, PRODUCT_KEY_MAXLEN);
1274:C:/Users/stapi/OneDrive/Desktop/GD32VW553/V1_MQTT_OK/GD32VW55X_Wifi_BLE_SDK/GD32VW55x_RELEASE_V1.0.2/MSDK/cloud/alicloud/src/services/linkkit/dm\dm_message.c ****         memset(device_name, 0, DEVICE_NAME_MAXLEN);
1275:C:/Users/stapi/OneDrive/Desktop/GD32VW553/V1_MQTT_OK/GD32VW55X_Wifi_BLE_SDK/GD32VW55x_RELEASE_V1.0.2/MSDK/cloud/alicloud/src/services/linkkit/dm\dm_message.c ****         memset(&lite_item, 0, sizeof(lite_cjson_t));
1276:C:/Users/stapi/OneDrive/Desktop/GD32VW553/V1_MQTT_OK/GD32VW55X_Wifi_BLE_SDK/GD32VW55x_RELEASE_V1.0.2/MSDK/cloud/alicloud/src/services/linkkit/dm\dm_message.c ****         memset(&lite_item_pk, 0, sizeof(lite_cjson_t));
1277:C:/Users/stapi/OneDrive/Desktop/GD32VW553/V1_MQTT_OK/GD32VW55X_Wifi_BLE_SDK/GD32VW55x_RELEASE_V1.0.2/MSDK/cloud/alicloud/src/services/linkkit/dm\dm_message.c ****         memset(&lite_item_dn, 0, sizeof(lite_cjson_t));
1278:C:/Users/stapi/OneDrive/Desktop/GD32VW553/V1_MQTT_OK/GD32VW55X_Wifi_BLE_SDK/GD32VW55x_RELEASE_V1.0.2/MSDK/cloud/alicloud/src/services/linkkit/dm\dm_message.c ****         memset(&lite_item_ds, 0, sizeof(lite_cjson_t));
1279:C:/Users/stapi/OneDrive/Desktop/GD32VW553/V1_MQTT_OK/GD32VW55X_Wifi_BLE_SDK/GD32VW55x_RELEASE_V1.0.2/MSDK/cloud/alicloud/src/services/linkkit/dm\dm_message.c **** 
1280:C:/Users/stapi/OneDrive/Desktop/GD32VW553/V1_MQTT_OK/GD32VW55X_Wifi_BLE_SDK/GD32VW55x_RELEASE_V1.0.2/MSDK/cloud/alicloud/src/services/linkkit/dm\dm_message.c ****         /* dm_log_debug("Current Index: %d", index); */
1281:C:/Users/stapi/OneDrive/Desktop/GD32VW553/V1_MQTT_OK/GD32VW55X_Wifi_BLE_SDK/GD32VW55x_RELEASE_V1.0.2/MSDK/cloud/alicloud/src/services/linkkit/dm\dm_message.c ****         /* Item */
1282:C:/Users/stapi/OneDrive/Desktop/GD32VW553/V1_MQTT_OK/GD32VW55X_Wifi_BLE_SDK/GD32VW55x_RELEASE_V1.0.2/MSDK/cloud/alicloud/src/services/linkkit/dm\dm_message.c ****         res = lite_cjson_array_item(&lite, index, &lite_item);
1283:C:/Users/stapi/OneDrive/Desktop/GD32VW553/V1_MQTT_OK/GD32VW55X_Wifi_BLE_SDK/GD32VW55x_RELEASE_V1.0.2/MSDK/cloud/alicloud/src/services/linkkit/dm\dm_message.c ****         if (res != SUCCESS_RETURN || !lite_cjson_is_object(&lite_item)) {
1284:C:/Users/stapi/OneDrive/Desktop/GD32VW553/V1_MQTT_OK/GD32VW55X_Wifi_BLE_SDK/GD32VW55x_RELEASE_V1.0.2/MSDK/cloud/alicloud/src/services/linkkit/dm\dm_message.c ****             continue;
1285:C:/Users/stapi/OneDrive/Desktop/GD32VW553/V1_MQTT_OK/GD32VW55X_Wifi_BLE_SDK/GD32VW55x_RELEASE_V1.0.2/MSDK/cloud/alicloud/src/services/linkkit/dm\dm_message.c ****         }
1286:C:/Users/stapi/OneDrive/Desktop/GD32VW553/V1_MQTT_OK/GD32VW55X_Wifi_BLE_SDK/GD32VW55x_RELEASE_V1.0.2/MSDK/cloud/alicloud/src/services/linkkit/dm\dm_message.c **** 
1287:C:/Users/stapi/OneDrive/Desktop/GD32VW553/V1_MQTT_OK/GD32VW55X_Wifi_BLE_SDK/GD32VW55x_RELEASE_V1.0.2/MSDK/cloud/alicloud/src/services/linkkit/dm\dm_message.c ****         /* Product Key */
1288:C:/Users/stapi/OneDrive/Desktop/GD32VW553/V1_MQTT_OK/GD32VW55X_Wifi_BLE_SDK/GD32VW55x_RELEASE_V1.0.2/MSDK/cloud/alicloud/src/services/linkkit/dm\dm_message.c ****         res = lite_cjson_object_item(&lite_item, DM_MSG_KEY_PRODUCT_KEY, strlen(DM_MSG_KEY_PRODUCT_
1289:C:/Users/stapi/OneDrive/Desktop/GD32VW553/V1_MQTT_OK/GD32VW55X_Wifi_BLE_SDK/GD32VW55x_RELEASE_V1.0.2/MSDK/cloud/alicloud/src/services/linkkit/dm\dm_message.c ****         if (res != SUCCESS_RETURN || !lite_cjson_is_string(&lite_item_pk)) {
1290:C:/Users/stapi/OneDrive/Desktop/GD32VW553/V1_MQTT_OK/GD32VW55X_Wifi_BLE_SDK/GD32VW55x_RELEASE_V1.0.2/MSDK/cloud/alicloud/src/services/linkkit/dm\dm_message.c ****             continue;
1291:C:/Users/stapi/OneDrive/Desktop/GD32VW553/V1_MQTT_OK/GD32VW55X_Wifi_BLE_SDK/GD32VW55x_RELEASE_V1.0.2/MSDK/cloud/alicloud/src/services/linkkit/dm\dm_message.c ****         }
1292:C:/Users/stapi/OneDrive/Desktop/GD32VW553/V1_MQTT_OK/GD32VW55X_Wifi_BLE_SDK/GD32VW55x_RELEASE_V1.0.2/MSDK/cloud/alicloud/src/services/linkkit/dm\dm_message.c ****         /* dm_log_debug("Current Product Key: %.*s", lite_item_pk.value_length, lite_item_pk.value)
1293:C:/Users/stapi/OneDrive/Desktop/GD32VW553/V1_MQTT_OK/GD32VW55X_Wifi_BLE_SDK/GD32VW55x_RELEASE_V1.0.2/MSDK/cloud/alicloud/src/services/linkkit/dm\dm_message.c **** 
1294:C:/Users/stapi/OneDrive/Desktop/GD32VW553/V1_MQTT_OK/GD32VW55X_Wifi_BLE_SDK/GD32VW55x_RELEASE_V1.0.2/MSDK/cloud/alicloud/src/services/linkkit/dm\dm_message.c ****         /* Device Name */
1295:C:/Users/stapi/OneDrive/Desktop/GD32VW553/V1_MQTT_OK/GD32VW55X_Wifi_BLE_SDK/GD32VW55x_RELEASE_V1.0.2/MSDK/cloud/alicloud/src/services/linkkit/dm\dm_message.c ****         res = lite_cjson_object_item(&lite_item, DM_MSG_KEY_DEVICE_NAME, strlen(DM_MSG_KEY_DEVICE_N
1296:C:/Users/stapi/OneDrive/Desktop/GD32VW553/V1_MQTT_OK/GD32VW55X_Wifi_BLE_SDK/GD32VW55x_RELEASE_V1.0.2/MSDK/cloud/alicloud/src/services/linkkit/dm\dm_message.c ****         if (res != SUCCESS_RETURN || !lite_cjson_is_string(&lite_item_dn)) {
1297:C:/Users/stapi/OneDrive/Desktop/GD32VW553/V1_MQTT_OK/GD32VW55X_Wifi_BLE_SDK/GD32VW55x_RELEASE_V1.0.2/MSDK/cloud/alicloud/src/services/linkkit/dm\dm_message.c ****             continue;
1298:C:/Users/stapi/OneDrive/Desktop/GD32VW553/V1_MQTT_OK/GD32VW55X_Wifi_BLE_SDK/GD32VW55x_RELEASE_V1.0.2/MSDK/cloud/alicloud/src/services/linkkit/dm\dm_message.c ****         }
1299:C:/Users/stapi/OneDrive/Desktop/GD32VW553/V1_MQTT_OK/GD32VW55X_Wifi_BLE_SDK/GD32VW55x_RELEASE_V1.0.2/MSDK/cloud/alicloud/src/services/linkkit/dm\dm_message.c ****         /* dm_log_debug("Current Device Name: %.*s", lite_item_dn.value_length, lite_item_dn.value)
1300:C:/Users/stapi/OneDrive/Desktop/GD32VW553/V1_MQTT_OK/GD32VW55X_Wifi_BLE_SDK/GD32VW55x_RELEASE_V1.0.2/MSDK/cloud/alicloud/src/services/linkkit/dm\dm_message.c **** 
1301:C:/Users/stapi/OneDrive/Desktop/GD32VW553/V1_MQTT_OK/GD32VW55X_Wifi_BLE_SDK/GD32VW55x_RELEASE_V1.0.2/MSDK/cloud/alicloud/src/services/linkkit/dm\dm_message.c ****         /* Device Secret */
1302:C:/Users/stapi/OneDrive/Desktop/GD32VW553/V1_MQTT_OK/GD32VW55X_Wifi_BLE_SDK/GD32VW55x_RELEASE_V1.0.2/MSDK/cloud/alicloud/src/services/linkkit/dm\dm_message.c ****         res = lite_cjson_object_item(&lite_item, DM_MSG_KEY_DEVICE_SECRET, strlen(DM_MSG_KEY_DEVICE
1303:C:/Users/stapi/OneDrive/Desktop/GD32VW553/V1_MQTT_OK/GD32VW55X_Wifi_BLE_SDK/GD32VW55x_RELEASE_V1.0.2/MSDK/cloud/alicloud/src/services/linkkit/dm\dm_message.c ****         if (res != SUCCESS_RETURN || !lite_cjson_is_string(&lite_item_ds)) {
1304:C:/Users/stapi/OneDrive/Desktop/GD32VW553/V1_MQTT_OK/GD32VW55X_Wifi_BLE_SDK/GD32VW55x_RELEASE_V1.0.2/MSDK/cloud/alicloud/src/services/linkkit/dm\dm_message.c ****             continue;
1305:C:/Users/stapi/OneDrive/Desktop/GD32VW553/V1_MQTT_OK/GD32VW55X_Wifi_BLE_SDK/GD32VW55x_RELEASE_V1.0.2/MSDK/cloud/alicloud/src/services/linkkit/dm\dm_message.c ****         }
1306:C:/Users/stapi/OneDrive/Desktop/GD32VW553/V1_MQTT_OK/GD32VW55X_Wifi_BLE_SDK/GD32VW55x_RELEASE_V1.0.2/MSDK/cloud/alicloud/src/services/linkkit/dm\dm_message.c ****         /* dm_log_debug("Current Device Secret: %.*s", lite_item_ds.value_length, lite_item_ds.valu
1307:C:/Users/stapi/OneDrive/Desktop/GD32VW553/V1_MQTT_OK/GD32VW55X_Wifi_BLE_SDK/GD32VW55x_RELEASE_V1.0.2/MSDK/cloud/alicloud/src/services/linkkit/dm\dm_message.c **** 
1308:C:/Users/stapi/OneDrive/Desktop/GD32VW553/V1_MQTT_OK/GD32VW55X_Wifi_BLE_SDK/GD32VW55x_RELEASE_V1.0.2/MSDK/cloud/alicloud/src/services/linkkit/dm\dm_message.c ****         /* Get Device ID */
1309:C:/Users/stapi/OneDrive/Desktop/GD32VW553/V1_MQTT_OK/GD32VW55X_Wifi_BLE_SDK/GD32VW55x_RELEASE_V1.0.2/MSDK/cloud/alicloud/src/services/linkkit/dm\dm_message.c ****         memcpy(product_key, lite_item_pk.value, lite_item_pk.value_length);
1310:C:/Users/stapi/OneDrive/Desktop/GD32VW553/V1_MQTT_OK/GD32VW55X_Wifi_BLE_SDK/GD32VW55x_RELEASE_V1.0.2/MSDK/cloud/alicloud/src/services/linkkit/dm\dm_message.c ****         memcpy(device_name, lite_item_dn.value, lite_item_dn.value_length);
1311:C:/Users/stapi/OneDrive/Desktop/GD32VW553/V1_MQTT_OK/GD32VW55X_Wifi_BLE_SDK/GD32VW55x_RELEASE_V1.0.2/MSDK/cloud/alicloud/src/services/linkkit/dm\dm_message.c ****         memcpy(device_secret, lite_item_ds.value, lite_item_ds.value_length);
1312:C:/Users/stapi/OneDrive/Desktop/GD32VW553/V1_MQTT_OK/GD32VW55X_Wifi_BLE_SDK/GD32VW55x_RELEASE_V1.0.2/MSDK/cloud/alicloud/src/services/linkkit/dm\dm_message.c ****         res = dm_mgr_search_device_by_pkdn(product_key, device_name, &devid);
1313:C:/Users/stapi/OneDrive/Desktop/GD32VW553/V1_MQTT_OK/GD32VW55X_Wifi_BLE_SDK/GD32VW55x_RELEASE_V1.0.2/MSDK/cloud/alicloud/src/services/linkkit/dm\dm_message.c ****         if (res != SUCCESS_RETURN) {
1314:C:/Users/stapi/OneDrive/Desktop/GD32VW553/V1_MQTT_OK/GD32VW55X_Wifi_BLE_SDK/GD32VW55x_RELEASE_V1.0.2/MSDK/cloud/alicloud/src/services/linkkit/dm\dm_message.c ****             continue;
1315:C:/Users/stapi/OneDrive/Desktop/GD32VW553/V1_MQTT_OK/GD32VW55X_Wifi_BLE_SDK/GD32VW55x_RELEASE_V1.0.2/MSDK/cloud/alicloud/src/services/linkkit/dm\dm_message.c ****         }
1316:C:/Users/stapi/OneDrive/Desktop/GD32VW553/V1_MQTT_OK/GD32VW55X_Wifi_BLE_SDK/GD32VW55x_RELEASE_V1.0.2/MSDK/cloud/alicloud/src/services/linkkit/dm\dm_message.c **** 
1317:C:/Users/stapi/OneDrive/Desktop/GD32VW553/V1_MQTT_OK/GD32VW55X_Wifi_BLE_SDK/GD32VW55x_RELEASE_V1.0.2/MSDK/cloud/alicloud/src/services/linkkit/dm\dm_message.c ****         /* Update State Machine */
1318:C:/Users/stapi/OneDrive/Desktop/GD32VW553/V1_MQTT_OK/GD32VW55X_Wifi_BLE_SDK/GD32VW55x_RELEASE_V1.0.2/MSDK/cloud/alicloud/src/services/linkkit/dm\dm_message.c ****         if (response->code.value_int == IOTX_DM_ERR_CODE_SUCCESS) {
1319:C:/Users/stapi/OneDrive/Desktop/GD32VW553/V1_MQTT_OK/GD32VW55X_Wifi_BLE_SDK/GD32VW55x_RELEASE_V1.0.2/MSDK/cloud/alicloud/src/services/linkkit/dm\dm_message.c ****             dm_mgr_set_dev_status(devid, IOTX_DM_DEV_STATUS_REGISTERED);
1320:C:/Users/stapi/OneDrive/Desktop/GD32VW553/V1_MQTT_OK/GD32VW55X_Wifi_BLE_SDK/GD32VW55x_RELEASE_V1.0.2/MSDK/cloud/alicloud/src/services/linkkit/dm\dm_message.c ****         }
1321:C:/Users/stapi/OneDrive/Desktop/GD32VW553/V1_MQTT_OK/GD32VW55X_Wifi_BLE_SDK/GD32VW55x_RELEASE_V1.0.2/MSDK/cloud/alicloud/src/services/linkkit/dm\dm_message.c **** 
1322:C:/Users/stapi/OneDrive/Desktop/GD32VW553/V1_MQTT_OK/GD32VW55X_Wifi_BLE_SDK/GD32VW55x_RELEASE_V1.0.2/MSDK/cloud/alicloud/src/services/linkkit/dm\dm_message.c ****         /* Set Device Secret */
1323:C:/Users/stapi/OneDrive/Desktop/GD32VW553/V1_MQTT_OK/GD32VW55X_Wifi_BLE_SDK/GD32VW55x_RELEASE_V1.0.2/MSDK/cloud/alicloud/src/services/linkkit/dm\dm_message.c ****         res = dm_mgr_set_device_secret(devid, device_secret);
1324:C:/Users/stapi/OneDrive/Desktop/GD32VW553/V1_MQTT_OK/GD32VW55X_Wifi_BLE_SDK/GD32VW55x_RELEASE_V1.0.2/MSDK/cloud/alicloud/src/services/linkkit/dm\dm_message.c ****         if (res != SUCCESS_RETURN) {
1325:C:/Users/stapi/OneDrive/Desktop/GD32VW553/V1_MQTT_OK/GD32VW55X_Wifi_BLE_SDK/GD32VW55x_RELEASE_V1.0.2/MSDK/cloud/alicloud/src/services/linkkit/dm\dm_message.c ****             continue;
1326:C:/Users/stapi/OneDrive/Desktop/GD32VW553/V1_MQTT_OK/GD32VW55X_Wifi_BLE_SDK/GD32VW55x_RELEASE_V1.0.2/MSDK/cloud/alicloud/src/services/linkkit/dm\dm_message.c ****         }
1327:C:/Users/stapi/OneDrive/Desktop/GD32VW553/V1_MQTT_OK/GD32VW55X_Wifi_BLE_SDK/GD32VW55x_RELEASE_V1.0.2/MSDK/cloud/alicloud/src/services/linkkit/dm\dm_message.c **** 
1328:C:/Users/stapi/OneDrive/Desktop/GD32VW553/V1_MQTT_OK/GD32VW55X_Wifi_BLE_SDK/GD32VW55x_RELEASE_V1.0.2/MSDK/cloud/alicloud/src/services/linkkit/dm\dm_message.c ****         /* Send Message To User */
1329:C:/Users/stapi/OneDrive/Desktop/GD32VW553/V1_MQTT_OK/GD32VW55X_Wifi_BLE_SDK/GD32VW55x_RELEASE_V1.0.2/MSDK/cloud/alicloud/src/services/linkkit/dm\dm_message.c ****         memcpy(temp_id, response->id.value, response->id.value_length);
1330:C:/Users/stapi/OneDrive/Desktop/GD32VW553/V1_MQTT_OK/GD32VW55X_Wifi_BLE_SDK/GD32VW55x_RELEASE_V1.0.2/MSDK/cloud/alicloud/src/services/linkkit/dm\dm_message.c ****         message_len = strlen(DM_MSG_EVENT_SUBDEV_REGISTER_REPLY_FMT) + DM_UTILS_UINT32_STRLEN * 2 +
1331:C:/Users/stapi/OneDrive/Desktop/GD32VW553/V1_MQTT_OK/GD32VW55X_Wifi_BLE_SDK/GD32VW55x_RELEASE_V1.0.2/MSDK/cloud/alicloud/src/services/linkkit/dm\dm_message.c ****         message = DM_malloc(message_len);
1332:C:/Users/stapi/OneDrive/Desktop/GD32VW553/V1_MQTT_OK/GD32VW55X_Wifi_BLE_SDK/GD32VW55x_RELEASE_V1.0.2/MSDK/cloud/alicloud/src/services/linkkit/dm\dm_message.c ****         if (message == NULL) {
1333:C:/Users/stapi/OneDrive/Desktop/GD32VW553/V1_MQTT_OK/GD32VW55X_Wifi_BLE_SDK/GD32VW55x_RELEASE_V1.0.2/MSDK/cloud/alicloud/src/services/linkkit/dm\dm_message.c ****             dm_log_warning("Memory Not Enough");
1334:C:/Users/stapi/OneDrive/Desktop/GD32VW553/V1_MQTT_OK/GD32VW55X_Wifi_BLE_SDK/GD32VW55x_RELEASE_V1.0.2/MSDK/cloud/alicloud/src/services/linkkit/dm\dm_message.c ****             continue;
1335:C:/Users/stapi/OneDrive/Desktop/GD32VW553/V1_MQTT_OK/GD32VW55X_Wifi_BLE_SDK/GD32VW55x_RELEASE_V1.0.2/MSDK/cloud/alicloud/src/services/linkkit/dm\dm_message.c ****         }
1336:C:/Users/stapi/OneDrive/Desktop/GD32VW553/V1_MQTT_OK/GD32VW55X_Wifi_BLE_SDK/GD32VW55x_RELEASE_V1.0.2/MSDK/cloud/alicloud/src/services/linkkit/dm\dm_message.c ****         memset(message, 0, message_len);
1337:C:/Users/stapi/OneDrive/Desktop/GD32VW553/V1_MQTT_OK/GD32VW55X_Wifi_BLE_SDK/GD32VW55x_RELEASE_V1.0.2/MSDK/cloud/alicloud/src/services/linkkit/dm\dm_message.c ****         HAL_Snprintf(message, message_len, DM_MSG_EVENT_SUBDEV_REGISTER_REPLY_FMT, atoi(temp_id), r
1338:C:/Users/stapi/OneDrive/Desktop/GD32VW553/V1_MQTT_OK/GD32VW55X_Wifi_BLE_SDK/GD32VW55x_RELEASE_V1.0.2/MSDK/cloud/alicloud/src/services/linkkit/dm\dm_message.c ****                      devid);
1339:C:/Users/stapi/OneDrive/Desktop/GD32VW553/V1_MQTT_OK/GD32VW55X_Wifi_BLE_SDK/GD32VW55x_RELEASE_V1.0.2/MSDK/cloud/alicloud/src/services/linkkit/dm\dm_message.c **** 
1340:C:/Users/stapi/OneDrive/Desktop/GD32VW553/V1_MQTT_OK/GD32VW55X_Wifi_BLE_SDK/GD32VW55x_RELEASE_V1.0.2/MSDK/cloud/alicloud/src/services/linkkit/dm\dm_message.c ****         res = _dm_msg_send_to_user(IOTX_DM_EVENT_SUBDEV_REGISTER_REPLY, message);
1341:C:/Users/stapi/OneDrive/Desktop/GD32VW553/V1_MQTT_OK/GD32VW55X_Wifi_BLE_SDK/GD32VW55x_RELEASE_V1.0.2/MSDK/cloud/alicloud/src/services/linkkit/dm\dm_message.c ****         if (res != SUCCESS_RETURN) {
1342:C:/Users/stapi/OneDrive/Desktop/GD32VW553/V1_MQTT_OK/GD32VW55X_Wifi_BLE_SDK/GD32VW55x_RELEASE_V1.0.2/MSDK/cloud/alicloud/src/services/linkkit/dm\dm_message.c ****             DM_free(message);
1343:C:/Users/stapi/OneDrive/Desktop/GD32VW553/V1_MQTT_OK/GD32VW55X_Wifi_BLE_SDK/GD32VW55x_RELEASE_V1.0.2/MSDK/cloud/alicloud/src/services/linkkit/dm\dm_message.c ****         }
1344:C:/Users/stapi/OneDrive/Desktop/GD32VW553/V1_MQTT_OK/GD32VW55X_Wifi_BLE_SDK/GD32VW55x_RELEASE_V1.0.2/MSDK/cloud/alicloud/src/services/linkkit/dm\dm_message.c ****     }
1345:C:/Users/stapi/OneDrive/Desktop/GD32VW553/V1_MQTT_OK/GD32VW55X_Wifi_BLE_SDK/GD32VW55x_RELEASE_V1.0.2/MSDK/cloud/alicloud/src/services/linkkit/dm\dm_message.c **** 
1346:C:/Users/stapi/OneDrive/Desktop/GD32VW553/V1_MQTT_OK/GD32VW55X_Wifi_BLE_SDK/GD32VW55x_RELEASE_V1.0.2/MSDK/cloud/alicloud/src/services/linkkit/dm\dm_message.c ****     return SUCCESS_RETURN;
1347:C:/Users/stapi/OneDrive/Desktop/GD32VW553/V1_MQTT_OK/GD32VW55X_Wifi_BLE_SDK/GD32VW55x_RELEASE_V1.0.2/MSDK/cloud/alicloud/src/services/linkkit/dm\dm_message.c **** }
1348:C:/Users/stapi/OneDrive/Desktop/GD32VW553/V1_MQTT_OK/GD32VW55X_Wifi_BLE_SDK/GD32VW55x_RELEASE_V1.0.2/MSDK/cloud/alicloud/src/services/linkkit/dm\dm_message.c **** 
1349:C:/Users/stapi/OneDrive/Desktop/GD32VW553/V1_MQTT_OK/GD32VW55X_Wifi_BLE_SDK/GD32VW55x_RELEASE_V1.0.2/MSDK/cloud/alicloud/src/services/linkkit/dm\dm_message.c **** const char DM_MSG_EVENT_SUBDEV_UNREGISTER_REPLY_FMT[] DM_READ_ONLY = "{\"id\":%d,\"code\":%d,\"devi
1350:C:/Users/stapi/OneDrive/Desktop/GD32VW553/V1_MQTT_OK/GD32VW55X_Wifi_BLE_SDK/GD32VW55x_RELEASE_V1.0.2/MSDK/cloud/alicloud/src/services/linkkit/dm\dm_message.c **** int dm_msg_thing_sub_unregister_reply(dm_msg_response_payload_t *response)
1351:C:/Users/stapi/OneDrive/Desktop/GD32VW553/V1_MQTT_OK/GD32VW55X_Wifi_BLE_SDK/GD32VW55x_RELEASE_V1.0.2/MSDK/cloud/alicloud/src/services/linkkit/dm\dm_message.c **** {
1352:C:/Users/stapi/OneDrive/Desktop/GD32VW553/V1_MQTT_OK/GD32VW55X_Wifi_BLE_SDK/GD32VW55x_RELEASE_V1.0.2/MSDK/cloud/alicloud/src/services/linkkit/dm\dm_message.c ****     int res = 0, devid = 0, id, message_len = 0;
1353:C:/Users/stapi/OneDrive/Desktop/GD32VW553/V1_MQTT_OK/GD32VW55X_Wifi_BLE_SDK/GD32VW55x_RELEASE_V1.0.2/MSDK/cloud/alicloud/src/services/linkkit/dm\dm_message.c ****     char int_id[DM_UTILS_UINT32_STRLEN+1] = {0};
1354:C:/Users/stapi/OneDrive/Desktop/GD32VW553/V1_MQTT_OK/GD32VW55X_Wifi_BLE_SDK/GD32VW55x_RELEASE_V1.0.2/MSDK/cloud/alicloud/src/services/linkkit/dm\dm_message.c ****     char *message = NULL;
1355:C:/Users/stapi/OneDrive/Desktop/GD32VW553/V1_MQTT_OK/GD32VW55X_Wifi_BLE_SDK/GD32VW55x_RELEASE_V1.0.2/MSDK/cloud/alicloud/src/services/linkkit/dm\dm_message.c **** 
1356:C:/Users/stapi/OneDrive/Desktop/GD32VW553/V1_MQTT_OK/GD32VW55X_Wifi_BLE_SDK/GD32VW55x_RELEASE_V1.0.2/MSDK/cloud/alicloud/src/services/linkkit/dm\dm_message.c ****     if (response == NULL) {
1357:C:/Users/stapi/OneDrive/Desktop/GD32VW553/V1_MQTT_OK/GD32VW55X_Wifi_BLE_SDK/GD32VW55x_RELEASE_V1.0.2/MSDK/cloud/alicloud/src/services/linkkit/dm\dm_message.c ****         return DM_INVALID_PARAMETER;
1358:C:/Users/stapi/OneDrive/Desktop/GD32VW553/V1_MQTT_OK/GD32VW55X_Wifi_BLE_SDK/GD32VW55x_RELEASE_V1.0.2/MSDK/cloud/alicloud/src/services/linkkit/dm\dm_message.c ****     }
1359:C:/Users/stapi/OneDrive/Desktop/GD32VW553/V1_MQTT_OK/GD32VW55X_Wifi_BLE_SDK/GD32VW55x_RELEASE_V1.0.2/MSDK/cloud/alicloud/src/services/linkkit/dm\dm_message.c **** 
1360:C:/Users/stapi/OneDrive/Desktop/GD32VW553/V1_MQTT_OK/GD32VW55X_Wifi_BLE_SDK/GD32VW55x_RELEASE_V1.0.2/MSDK/cloud/alicloud/src/services/linkkit/dm\dm_message.c ****     if (response->id.value_length > DM_UTILS_UINT32_STRLEN) {
1361:C:/Users/stapi/OneDrive/Desktop/GD32VW553/V1_MQTT_OK/GD32VW55X_Wifi_BLE_SDK/GD32VW55x_RELEASE_V1.0.2/MSDK/cloud/alicloud/src/services/linkkit/dm\dm_message.c ****         return FAIL_RETURN;
1362:C:/Users/stapi/OneDrive/Desktop/GD32VW553/V1_MQTT_OK/GD32VW55X_Wifi_BLE_SDK/GD32VW55x_RELEASE_V1.0.2/MSDK/cloud/alicloud/src/services/linkkit/dm\dm_message.c ****     }
1363:C:/Users/stapi/OneDrive/Desktop/GD32VW553/V1_MQTT_OK/GD32VW55X_Wifi_BLE_SDK/GD32VW55x_RELEASE_V1.0.2/MSDK/cloud/alicloud/src/services/linkkit/dm\dm_message.c ****     memcpy(int_id, response->id.value, response->id.value_length);
1364:C:/Users/stapi/OneDrive/Desktop/GD32VW553/V1_MQTT_OK/GD32VW55X_Wifi_BLE_SDK/GD32VW55x_RELEASE_V1.0.2/MSDK/cloud/alicloud/src/services/linkkit/dm\dm_message.c ****     id = atoi(int_id);
1365:C:/Users/stapi/OneDrive/Desktop/GD32VW553/V1_MQTT_OK/GD32VW55X_Wifi_BLE_SDK/GD32VW55x_RELEASE_V1.0.2/MSDK/cloud/alicloud/src/services/linkkit/dm\dm_message.c **** 
1366:C:/Users/stapi/OneDrive/Desktop/GD32VW553/V1_MQTT_OK/GD32VW55X_Wifi_BLE_SDK/GD32VW55x_RELEASE_V1.0.2/MSDK/cloud/alicloud/src/services/linkkit/dm\dm_message.c ****     /* dm_log_debug("Current ID: %d", id); */
1367:C:/Users/stapi/OneDrive/Desktop/GD32VW553/V1_MQTT_OK/GD32VW55X_Wifi_BLE_SDK/GD32VW55x_RELEASE_V1.0.2/MSDK/cloud/alicloud/src/services/linkkit/dm\dm_message.c **** 
1368:C:/Users/stapi/OneDrive/Desktop/GD32VW553/V1_MQTT_OK/GD32VW55X_Wifi_BLE_SDK/GD32VW55x_RELEASE_V1.0.2/MSDK/cloud/alicloud/src/services/linkkit/dm\dm_message.c **** #if !defined(DM_MESSAGE_CACHE_DISABLED)
1369:C:/Users/stapi/OneDrive/Desktop/GD32VW553/V1_MQTT_OK/GD32VW55X_Wifi_BLE_SDK/GD32VW55x_RELEASE_V1.0.2/MSDK/cloud/alicloud/src/services/linkkit/dm\dm_message.c ****     dm_msg_cache_node_t *node = NULL;
1370:C:/Users/stapi/OneDrive/Desktop/GD32VW553/V1_MQTT_OK/GD32VW55X_Wifi_BLE_SDK/GD32VW55x_RELEASE_V1.0.2/MSDK/cloud/alicloud/src/services/linkkit/dm\dm_message.c ****     res = dm_msg_cache_search(id, &node);
1371:C:/Users/stapi/OneDrive/Desktop/GD32VW553/V1_MQTT_OK/GD32VW55X_Wifi_BLE_SDK/GD32VW55x_RELEASE_V1.0.2/MSDK/cloud/alicloud/src/services/linkkit/dm\dm_message.c ****     if (res != SUCCESS_RETURN) {
1372:C:/Users/stapi/OneDrive/Desktop/GD32VW553/V1_MQTT_OK/GD32VW55X_Wifi_BLE_SDK/GD32VW55x_RELEASE_V1.0.2/MSDK/cloud/alicloud/src/services/linkkit/dm\dm_message.c ****         return FAIL_RETURN;
1373:C:/Users/stapi/OneDrive/Desktop/GD32VW553/V1_MQTT_OK/GD32VW55X_Wifi_BLE_SDK/GD32VW55x_RELEASE_V1.0.2/MSDK/cloud/alicloud/src/services/linkkit/dm\dm_message.c ****     }
1374:C:/Users/stapi/OneDrive/Desktop/GD32VW553/V1_MQTT_OK/GD32VW55X_Wifi_BLE_SDK/GD32VW55x_RELEASE_V1.0.2/MSDK/cloud/alicloud/src/services/linkkit/dm\dm_message.c ****     devid = node->devid;
1375:C:/Users/stapi/OneDrive/Desktop/GD32VW553/V1_MQTT_OK/GD32VW55X_Wifi_BLE_SDK/GD32VW55x_RELEASE_V1.0.2/MSDK/cloud/alicloud/src/services/linkkit/dm\dm_message.c **** #endif
1376:C:/Users/stapi/OneDrive/Desktop/GD32VW553/V1_MQTT_OK/GD32VW55X_Wifi_BLE_SDK/GD32VW55x_RELEASE_V1.0.2/MSDK/cloud/alicloud/src/services/linkkit/dm\dm_message.c **** 
1377:C:/Users/stapi/OneDrive/Desktop/GD32VW553/V1_MQTT_OK/GD32VW55X_Wifi_BLE_SDK/GD32VW55x_RELEASE_V1.0.2/MSDK/cloud/alicloud/src/services/linkkit/dm\dm_message.c ****     message_len = strlen(DM_MSG_EVENT_SUBDEV_UNREGISTER_REPLY_FMT) + DM_UTILS_UINT32_STRLEN * 3 + 1
1378:C:/Users/stapi/OneDrive/Desktop/GD32VW553/V1_MQTT_OK/GD32VW55X_Wifi_BLE_SDK/GD32VW55x_RELEASE_V1.0.2/MSDK/cloud/alicloud/src/services/linkkit/dm\dm_message.c ****     message = DM_malloc(message_len);
1379:C:/Users/stapi/OneDrive/Desktop/GD32VW553/V1_MQTT_OK/GD32VW55X_Wifi_BLE_SDK/GD32VW55x_RELEASE_V1.0.2/MSDK/cloud/alicloud/src/services/linkkit/dm\dm_message.c ****     if (message == NULL) {
1380:C:/Users/stapi/OneDrive/Desktop/GD32VW553/V1_MQTT_OK/GD32VW55X_Wifi_BLE_SDK/GD32VW55x_RELEASE_V1.0.2/MSDK/cloud/alicloud/src/services/linkkit/dm\dm_message.c ****         return DM_MEMORY_NOT_ENOUGH;
1381:C:/Users/stapi/OneDrive/Desktop/GD32VW553/V1_MQTT_OK/GD32VW55X_Wifi_BLE_SDK/GD32VW55x_RELEASE_V1.0.2/MSDK/cloud/alicloud/src/services/linkkit/dm\dm_message.c ****     }
1382:C:/Users/stapi/OneDrive/Desktop/GD32VW553/V1_MQTT_OK/GD32VW55X_Wifi_BLE_SDK/GD32VW55x_RELEASE_V1.0.2/MSDK/cloud/alicloud/src/services/linkkit/dm\dm_message.c ****     memset(message, 0, message_len);
1383:C:/Users/stapi/OneDrive/Desktop/GD32VW553/V1_MQTT_OK/GD32VW55X_Wifi_BLE_SDK/GD32VW55x_RELEASE_V1.0.2/MSDK/cloud/alicloud/src/services/linkkit/dm\dm_message.c ****     HAL_Snprintf(message, message_len, DM_MSG_EVENT_SUBDEV_UNREGISTER_REPLY_FMT, id, response->code
1384:C:/Users/stapi/OneDrive/Desktop/GD32VW553/V1_MQTT_OK/GD32VW55X_Wifi_BLE_SDK/GD32VW55x_RELEASE_V1.0.2/MSDK/cloud/alicloud/src/services/linkkit/dm\dm_message.c **** 
1385:C:/Users/stapi/OneDrive/Desktop/GD32VW553/V1_MQTT_OK/GD32VW55X_Wifi_BLE_SDK/GD32VW55x_RELEASE_V1.0.2/MSDK/cloud/alicloud/src/services/linkkit/dm\dm_message.c ****     res = _dm_msg_send_to_user(IOTX_DM_EVENT_SUBDEV_UNREGISTER_REPLY, message);
1386:C:/Users/stapi/OneDrive/Desktop/GD32VW553/V1_MQTT_OK/GD32VW55X_Wifi_BLE_SDK/GD32VW55x_RELEASE_V1.0.2/MSDK/cloud/alicloud/src/services/linkkit/dm\dm_message.c ****     if (res != SUCCESS_RETURN) {
1387:C:/Users/stapi/OneDrive/Desktop/GD32VW553/V1_MQTT_OK/GD32VW55X_Wifi_BLE_SDK/GD32VW55x_RELEASE_V1.0.2/MSDK/cloud/alicloud/src/services/linkkit/dm\dm_message.c ****         DM_free(message);
1388:C:/Users/stapi/OneDrive/Desktop/GD32VW553/V1_MQTT_OK/GD32VW55X_Wifi_BLE_SDK/GD32VW55x_RELEASE_V1.0.2/MSDK/cloud/alicloud/src/services/linkkit/dm\dm_message.c ****     }
1389:C:/Users/stapi/OneDrive/Desktop/GD32VW553/V1_MQTT_OK/GD32VW55X_Wifi_BLE_SDK/GD32VW55x_RELEASE_V1.0.2/MSDK/cloud/alicloud/src/services/linkkit/dm\dm_message.c **** 
1390:C:/Users/stapi/OneDrive/Desktop/GD32VW553/V1_MQTT_OK/GD32VW55X_Wifi_BLE_SDK/GD32VW55x_RELEASE_V1.0.2/MSDK/cloud/alicloud/src/services/linkkit/dm\dm_message.c ****     return SUCCESS_RETURN;
1391:C:/Users/stapi/OneDrive/Desktop/GD32VW553/V1_MQTT_OK/GD32VW55X_Wifi_BLE_SDK/GD32VW55x_RELEASE_V1.0.2/MSDK/cloud/alicloud/src/services/linkkit/dm\dm_message.c **** }
1392:C:/Users/stapi/OneDrive/Desktop/GD32VW553/V1_MQTT_OK/GD32VW55X_Wifi_BLE_SDK/GD32VW55x_RELEASE_V1.0.2/MSDK/cloud/alicloud/src/services/linkkit/dm\dm_message.c **** 
1393:C:/Users/stapi/OneDrive/Desktop/GD32VW553/V1_MQTT_OK/GD32VW55X_Wifi_BLE_SDK/GD32VW55x_RELEASE_V1.0.2/MSDK/cloud/alicloud/src/services/linkkit/dm\dm_message.c **** const char DM_MSG_EVENT_THING_TOPO_ADD_REPLY_FMT[] DM_READ_ONLY = "{\"id\":%d,\"code\":%d,\"devid\"
1394:C:/Users/stapi/OneDrive/Desktop/GD32VW553/V1_MQTT_OK/GD32VW55X_Wifi_BLE_SDK/GD32VW55x_RELEASE_V1.0.2/MSDK/cloud/alicloud/src/services/linkkit/dm\dm_message.c **** int dm_msg_thing_topo_add_reply(dm_msg_response_payload_t *response)
1395:C:/Users/stapi/OneDrive/Desktop/GD32VW553/V1_MQTT_OK/GD32VW55X_Wifi_BLE_SDK/GD32VW55x_RELEASE_V1.0.2/MSDK/cloud/alicloud/src/services/linkkit/dm\dm_message.c **** {
1396:C:/Users/stapi/OneDrive/Desktop/GD32VW553/V1_MQTT_OK/GD32VW55X_Wifi_BLE_SDK/GD32VW55x_RELEASE_V1.0.2/MSDK/cloud/alicloud/src/services/linkkit/dm\dm_message.c ****     int res = 0, devid = 0, id = 0, message_len = 0;
1397:C:/Users/stapi/OneDrive/Desktop/GD32VW553/V1_MQTT_OK/GD32VW55X_Wifi_BLE_SDK/GD32VW55x_RELEASE_V1.0.2/MSDK/cloud/alicloud/src/services/linkkit/dm\dm_message.c ****     char int_id[DM_UTILS_UINT32_STRLEN+1] = {0};
1398:C:/Users/stapi/OneDrive/Desktop/GD32VW553/V1_MQTT_OK/GD32VW55X_Wifi_BLE_SDK/GD32VW55x_RELEASE_V1.0.2/MSDK/cloud/alicloud/src/services/linkkit/dm\dm_message.c ****     char *message = NULL;
1399:C:/Users/stapi/OneDrive/Desktop/GD32VW553/V1_MQTT_OK/GD32VW55X_Wifi_BLE_SDK/GD32VW55x_RELEASE_V1.0.2/MSDK/cloud/alicloud/src/services/linkkit/dm\dm_message.c **** 
1400:C:/Users/stapi/OneDrive/Desktop/GD32VW553/V1_MQTT_OK/GD32VW55X_Wifi_BLE_SDK/GD32VW55x_RELEASE_V1.0.2/MSDK/cloud/alicloud/src/services/linkkit/dm\dm_message.c ****     if (response->id.value_length > DM_UTILS_UINT32_STRLEN) {
1401:C:/Users/stapi/OneDrive/Desktop/GD32VW553/V1_MQTT_OK/GD32VW55X_Wifi_BLE_SDK/GD32VW55x_RELEASE_V1.0.2/MSDK/cloud/alicloud/src/services/linkkit/dm\dm_message.c ****         return FAIL_RETURN;
1402:C:/Users/stapi/OneDrive/Desktop/GD32VW553/V1_MQTT_OK/GD32VW55X_Wifi_BLE_SDK/GD32VW55x_RELEASE_V1.0.2/MSDK/cloud/alicloud/src/services/linkkit/dm\dm_message.c ****     }
1403:C:/Users/stapi/OneDrive/Desktop/GD32VW553/V1_MQTT_OK/GD32VW55X_Wifi_BLE_SDK/GD32VW55x_RELEASE_V1.0.2/MSDK/cloud/alicloud/src/services/linkkit/dm\dm_message.c ****     memcpy(int_id, response->id.value, response->id.value_length);
1404:C:/Users/stapi/OneDrive/Desktop/GD32VW553/V1_MQTT_OK/GD32VW55X_Wifi_BLE_SDK/GD32VW55x_RELEASE_V1.0.2/MSDK/cloud/alicloud/src/services/linkkit/dm\dm_message.c ****     id = atoi(int_id);
1405:C:/Users/stapi/OneDrive/Desktop/GD32VW553/V1_MQTT_OK/GD32VW55X_Wifi_BLE_SDK/GD32VW55x_RELEASE_V1.0.2/MSDK/cloud/alicloud/src/services/linkkit/dm\dm_message.c **** 
1406:C:/Users/stapi/OneDrive/Desktop/GD32VW553/V1_MQTT_OK/GD32VW55X_Wifi_BLE_SDK/GD32VW55x_RELEASE_V1.0.2/MSDK/cloud/alicloud/src/services/linkkit/dm\dm_message.c ****     /* dm_log_debug("Current ID: %d", id); */
1407:C:/Users/stapi/OneDrive/Desktop/GD32VW553/V1_MQTT_OK/GD32VW55X_Wifi_BLE_SDK/GD32VW55x_RELEASE_V1.0.2/MSDK/cloud/alicloud/src/services/linkkit/dm\dm_message.c **** 
1408:C:/Users/stapi/OneDrive/Desktop/GD32VW553/V1_MQTT_OK/GD32VW55X_Wifi_BLE_SDK/GD32VW55x_RELEASE_V1.0.2/MSDK/cloud/alicloud/src/services/linkkit/dm\dm_message.c **** #if !defined(DM_MESSAGE_CACHE_DISABLED)
1409:C:/Users/stapi/OneDrive/Desktop/GD32VW553/V1_MQTT_OK/GD32VW55X_Wifi_BLE_SDK/GD32VW55x_RELEASE_V1.0.2/MSDK/cloud/alicloud/src/services/linkkit/dm\dm_message.c ****     dm_msg_cache_node_t *node = NULL;
1410:C:/Users/stapi/OneDrive/Desktop/GD32VW553/V1_MQTT_OK/GD32VW55X_Wifi_BLE_SDK/GD32VW55x_RELEASE_V1.0.2/MSDK/cloud/alicloud/src/services/linkkit/dm\dm_message.c ****     res = dm_msg_cache_search(id, &node);
1411:C:/Users/stapi/OneDrive/Desktop/GD32VW553/V1_MQTT_OK/GD32VW55X_Wifi_BLE_SDK/GD32VW55x_RELEASE_V1.0.2/MSDK/cloud/alicloud/src/services/linkkit/dm\dm_message.c ****     if (res != SUCCESS_RETURN) {
1412:C:/Users/stapi/OneDrive/Desktop/GD32VW553/V1_MQTT_OK/GD32VW55X_Wifi_BLE_SDK/GD32VW55x_RELEASE_V1.0.2/MSDK/cloud/alicloud/src/services/linkkit/dm\dm_message.c ****         return FAIL_RETURN;
1413:C:/Users/stapi/OneDrive/Desktop/GD32VW553/V1_MQTT_OK/GD32VW55X_Wifi_BLE_SDK/GD32VW55x_RELEASE_V1.0.2/MSDK/cloud/alicloud/src/services/linkkit/dm\dm_message.c ****     }
1414:C:/Users/stapi/OneDrive/Desktop/GD32VW553/V1_MQTT_OK/GD32VW55X_Wifi_BLE_SDK/GD32VW55x_RELEASE_V1.0.2/MSDK/cloud/alicloud/src/services/linkkit/dm\dm_message.c ****     devid = node->devid;
1415:C:/Users/stapi/OneDrive/Desktop/GD32VW553/V1_MQTT_OK/GD32VW55X_Wifi_BLE_SDK/GD32VW55x_RELEASE_V1.0.2/MSDK/cloud/alicloud/src/services/linkkit/dm\dm_message.c **** 
1416:C:/Users/stapi/OneDrive/Desktop/GD32VW553/V1_MQTT_OK/GD32VW55X_Wifi_BLE_SDK/GD32VW55x_RELEASE_V1.0.2/MSDK/cloud/alicloud/src/services/linkkit/dm\dm_message.c ****     /* Update State Machine */
1417:C:/Users/stapi/OneDrive/Desktop/GD32VW553/V1_MQTT_OK/GD32VW55X_Wifi_BLE_SDK/GD32VW55x_RELEASE_V1.0.2/MSDK/cloud/alicloud/src/services/linkkit/dm\dm_message.c ****     if (response->code.value_int == IOTX_DM_ERR_CODE_SUCCESS) {
1418:C:/Users/stapi/OneDrive/Desktop/GD32VW553/V1_MQTT_OK/GD32VW55X_Wifi_BLE_SDK/GD32VW55x_RELEASE_V1.0.2/MSDK/cloud/alicloud/src/services/linkkit/dm\dm_message.c ****         dm_mgr_set_dev_status(node->devid, IOTX_DM_DEV_STATUS_ATTACHED);
1419:C:/Users/stapi/OneDrive/Desktop/GD32VW553/V1_MQTT_OK/GD32VW55X_Wifi_BLE_SDK/GD32VW55x_RELEASE_V1.0.2/MSDK/cloud/alicloud/src/services/linkkit/dm\dm_message.c ****     }
1420:C:/Users/stapi/OneDrive/Desktop/GD32VW553/V1_MQTT_OK/GD32VW55X_Wifi_BLE_SDK/GD32VW55x_RELEASE_V1.0.2/MSDK/cloud/alicloud/src/services/linkkit/dm\dm_message.c **** 
1421:C:/Users/stapi/OneDrive/Desktop/GD32VW553/V1_MQTT_OK/GD32VW55X_Wifi_BLE_SDK/GD32VW55x_RELEASE_V1.0.2/MSDK/cloud/alicloud/src/services/linkkit/dm\dm_message.c **** #endif
1422:C:/Users/stapi/OneDrive/Desktop/GD32VW553/V1_MQTT_OK/GD32VW55X_Wifi_BLE_SDK/GD32VW55x_RELEASE_V1.0.2/MSDK/cloud/alicloud/src/services/linkkit/dm\dm_message.c **** 
1423:C:/Users/stapi/OneDrive/Desktop/GD32VW553/V1_MQTT_OK/GD32VW55X_Wifi_BLE_SDK/GD32VW55x_RELEASE_V1.0.2/MSDK/cloud/alicloud/src/services/linkkit/dm\dm_message.c ****     message_len = strlen(DM_MSG_EVENT_THING_TOPO_ADD_REPLY_FMT) + DM_UTILS_UINT32_STRLEN * 3 + 1;
1424:C:/Users/stapi/OneDrive/Desktop/GD32VW553/V1_MQTT_OK/GD32VW55X_Wifi_BLE_SDK/GD32VW55x_RELEASE_V1.0.2/MSDK/cloud/alicloud/src/services/linkkit/dm\dm_message.c ****     message = DM_malloc(message_len);
1425:C:/Users/stapi/OneDrive/Desktop/GD32VW553/V1_MQTT_OK/GD32VW55X_Wifi_BLE_SDK/GD32VW55x_RELEASE_V1.0.2/MSDK/cloud/alicloud/src/services/linkkit/dm\dm_message.c ****     if (message == NULL) {
1426:C:/Users/stapi/OneDrive/Desktop/GD32VW553/V1_MQTT_OK/GD32VW55X_Wifi_BLE_SDK/GD32VW55x_RELEASE_V1.0.2/MSDK/cloud/alicloud/src/services/linkkit/dm\dm_message.c ****         return DM_MEMORY_NOT_ENOUGH;
1427:C:/Users/stapi/OneDrive/Desktop/GD32VW553/V1_MQTT_OK/GD32VW55X_Wifi_BLE_SDK/GD32VW55x_RELEASE_V1.0.2/MSDK/cloud/alicloud/src/services/linkkit/dm\dm_message.c ****     }
1428:C:/Users/stapi/OneDrive/Desktop/GD32VW553/V1_MQTT_OK/GD32VW55X_Wifi_BLE_SDK/GD32VW55x_RELEASE_V1.0.2/MSDK/cloud/alicloud/src/services/linkkit/dm\dm_message.c ****     memset(message, 0, message_len);
1429:C:/Users/stapi/OneDrive/Desktop/GD32VW553/V1_MQTT_OK/GD32VW55X_Wifi_BLE_SDK/GD32VW55x_RELEASE_V1.0.2/MSDK/cloud/alicloud/src/services/linkkit/dm\dm_message.c ****     HAL_Snprintf(message, message_len, DM_MSG_EVENT_THING_TOPO_ADD_REPLY_FMT, id, response->code.va
1430:C:/Users/stapi/OneDrive/Desktop/GD32VW553/V1_MQTT_OK/GD32VW55X_Wifi_BLE_SDK/GD32VW55x_RELEASE_V1.0.2/MSDK/cloud/alicloud/src/services/linkkit/dm\dm_message.c **** 
1431:C:/Users/stapi/OneDrive/Desktop/GD32VW553/V1_MQTT_OK/GD32VW55X_Wifi_BLE_SDK/GD32VW55x_RELEASE_V1.0.2/MSDK/cloud/alicloud/src/services/linkkit/dm\dm_message.c ****     res = _dm_msg_send_to_user(IOTX_DM_EVENT_TOPO_ADD_REPLY, message);
1432:C:/Users/stapi/OneDrive/Desktop/GD32VW553/V1_MQTT_OK/GD32VW55X_Wifi_BLE_SDK/GD32VW55x_RELEASE_V1.0.2/MSDK/cloud/alicloud/src/services/linkkit/dm\dm_message.c ****     if (res != SUCCESS_RETURN) {
1433:C:/Users/stapi/OneDrive/Desktop/GD32VW553/V1_MQTT_OK/GD32VW55X_Wifi_BLE_SDK/GD32VW55x_RELEASE_V1.0.2/MSDK/cloud/alicloud/src/services/linkkit/dm\dm_message.c ****         DM_free(message);
1434:C:/Users/stapi/OneDrive/Desktop/GD32VW553/V1_MQTT_OK/GD32VW55X_Wifi_BLE_SDK/GD32VW55x_RELEASE_V1.0.2/MSDK/cloud/alicloud/src/services/linkkit/dm\dm_message.c ****         return FAIL_RETURN;
1435:C:/Users/stapi/OneDrive/Desktop/GD32VW553/V1_MQTT_OK/GD32VW55X_Wifi_BLE_SDK/GD32VW55x_RELEASE_V1.0.2/MSDK/cloud/alicloud/src/services/linkkit/dm\dm_message.c ****     }
1436:C:/Users/stapi/OneDrive/Desktop/GD32VW553/V1_MQTT_OK/GD32VW55X_Wifi_BLE_SDK/GD32VW55x_RELEASE_V1.0.2/MSDK/cloud/alicloud/src/services/linkkit/dm\dm_message.c **** 
1437:C:/Users/stapi/OneDrive/Desktop/GD32VW553/V1_MQTT_OK/GD32VW55X_Wifi_BLE_SDK/GD32VW55x_RELEASE_V1.0.2/MSDK/cloud/alicloud/src/services/linkkit/dm\dm_message.c ****     return SUCCESS_RETURN;
1438:C:/Users/stapi/OneDrive/Desktop/GD32VW553/V1_MQTT_OK/GD32VW55X_Wifi_BLE_SDK/GD32VW55x_RELEASE_V1.0.2/MSDK/cloud/alicloud/src/services/linkkit/dm\dm_message.c **** }
1439:C:/Users/stapi/OneDrive/Desktop/GD32VW553/V1_MQTT_OK/GD32VW55X_Wifi_BLE_SDK/GD32VW55x_RELEASE_V1.0.2/MSDK/cloud/alicloud/src/services/linkkit/dm\dm_message.c **** 
1440:C:/Users/stapi/OneDrive/Desktop/GD32VW553/V1_MQTT_OK/GD32VW55X_Wifi_BLE_SDK/GD32VW55x_RELEASE_V1.0.2/MSDK/cloud/alicloud/src/services/linkkit/dm\dm_message.c **** const char DM_MSG_EVENT_THING_TOPO_DELETE_REPLY_FMT[] DM_READ_ONLY = "{\"id\":%d,\"code\":%d,\"devi
1441:C:/Users/stapi/OneDrive/Desktop/GD32VW553/V1_MQTT_OK/GD32VW55X_Wifi_BLE_SDK/GD32VW55x_RELEASE_V1.0.2/MSDK/cloud/alicloud/src/services/linkkit/dm\dm_message.c **** int dm_msg_thing_topo_delete_reply(dm_msg_response_payload_t *response)
1442:C:/Users/stapi/OneDrive/Desktop/GD32VW553/V1_MQTT_OK/GD32VW55X_Wifi_BLE_SDK/GD32VW55x_RELEASE_V1.0.2/MSDK/cloud/alicloud/src/services/linkkit/dm\dm_message.c **** {
1443:C:/Users/stapi/OneDrive/Desktop/GD32VW553/V1_MQTT_OK/GD32VW55X_Wifi_BLE_SDK/GD32VW55x_RELEASE_V1.0.2/MSDK/cloud/alicloud/src/services/linkkit/dm\dm_message.c ****     int res = 0, devid = 0, id = 0, message_len = 0;
1444:C:/Users/stapi/OneDrive/Desktop/GD32VW553/V1_MQTT_OK/GD32VW55X_Wifi_BLE_SDK/GD32VW55x_RELEASE_V1.0.2/MSDK/cloud/alicloud/src/services/linkkit/dm\dm_message.c ****     char int_id[DM_UTILS_UINT32_STRLEN+1] = {0};
1445:C:/Users/stapi/OneDrive/Desktop/GD32VW553/V1_MQTT_OK/GD32VW55X_Wifi_BLE_SDK/GD32VW55x_RELEASE_V1.0.2/MSDK/cloud/alicloud/src/services/linkkit/dm\dm_message.c ****     char *message = NULL;
1446:C:/Users/stapi/OneDrive/Desktop/GD32VW553/V1_MQTT_OK/GD32VW55X_Wifi_BLE_SDK/GD32VW55x_RELEASE_V1.0.2/MSDK/cloud/alicloud/src/services/linkkit/dm\dm_message.c **** 
1447:C:/Users/stapi/OneDrive/Desktop/GD32VW553/V1_MQTT_OK/GD32VW55X_Wifi_BLE_SDK/GD32VW55x_RELEASE_V1.0.2/MSDK/cloud/alicloud/src/services/linkkit/dm\dm_message.c ****     if (response->id.value_length > DM_UTILS_UINT32_STRLEN) {
1448:C:/Users/stapi/OneDrive/Desktop/GD32VW553/V1_MQTT_OK/GD32VW55X_Wifi_BLE_SDK/GD32VW55x_RELEASE_V1.0.2/MSDK/cloud/alicloud/src/services/linkkit/dm\dm_message.c ****         return FAIL_RETURN;
1449:C:/Users/stapi/OneDrive/Desktop/GD32VW553/V1_MQTT_OK/GD32VW55X_Wifi_BLE_SDK/GD32VW55x_RELEASE_V1.0.2/MSDK/cloud/alicloud/src/services/linkkit/dm\dm_message.c ****     }
1450:C:/Users/stapi/OneDrive/Desktop/GD32VW553/V1_MQTT_OK/GD32VW55X_Wifi_BLE_SDK/GD32VW55x_RELEASE_V1.0.2/MSDK/cloud/alicloud/src/services/linkkit/dm\dm_message.c ****     memcpy(int_id, response->id.value, response->id.value_length);
1451:C:/Users/stapi/OneDrive/Desktop/GD32VW553/V1_MQTT_OK/GD32VW55X_Wifi_BLE_SDK/GD32VW55x_RELEASE_V1.0.2/MSDK/cloud/alicloud/src/services/linkkit/dm\dm_message.c ****     id = atoi(int_id);
1452:C:/Users/stapi/OneDrive/Desktop/GD32VW553/V1_MQTT_OK/GD32VW55X_Wifi_BLE_SDK/GD32VW55x_RELEASE_V1.0.2/MSDK/cloud/alicloud/src/services/linkkit/dm\dm_message.c **** 
1453:C:/Users/stapi/OneDrive/Desktop/GD32VW553/V1_MQTT_OK/GD32VW55X_Wifi_BLE_SDK/GD32VW55x_RELEASE_V1.0.2/MSDK/cloud/alicloud/src/services/linkkit/dm\dm_message.c ****     /* dm_log_debug("Current ID: %d", id); */
1454:C:/Users/stapi/OneDrive/Desktop/GD32VW553/V1_MQTT_OK/GD32VW55X_Wifi_BLE_SDK/GD32VW55x_RELEASE_V1.0.2/MSDK/cloud/alicloud/src/services/linkkit/dm\dm_message.c **** 
1455:C:/Users/stapi/OneDrive/Desktop/GD32VW553/V1_MQTT_OK/GD32VW55X_Wifi_BLE_SDK/GD32VW55x_RELEASE_V1.0.2/MSDK/cloud/alicloud/src/services/linkkit/dm\dm_message.c **** #if !defined(DM_MESSAGE_CACHE_DISABLED)
1456:C:/Users/stapi/OneDrive/Desktop/GD32VW553/V1_MQTT_OK/GD32VW55X_Wifi_BLE_SDK/GD32VW55x_RELEASE_V1.0.2/MSDK/cloud/alicloud/src/services/linkkit/dm\dm_message.c ****     dm_msg_cache_node_t *node = NULL;
1457:C:/Users/stapi/OneDrive/Desktop/GD32VW553/V1_MQTT_OK/GD32VW55X_Wifi_BLE_SDK/GD32VW55x_RELEASE_V1.0.2/MSDK/cloud/alicloud/src/services/linkkit/dm\dm_message.c ****     res = dm_msg_cache_search(id, &node);
1458:C:/Users/stapi/OneDrive/Desktop/GD32VW553/V1_MQTT_OK/GD32VW55X_Wifi_BLE_SDK/GD32VW55x_RELEASE_V1.0.2/MSDK/cloud/alicloud/src/services/linkkit/dm\dm_message.c ****     if (res != SUCCESS_RETURN) {
1459:C:/Users/stapi/OneDrive/Desktop/GD32VW553/V1_MQTT_OK/GD32VW55X_Wifi_BLE_SDK/GD32VW55x_RELEASE_V1.0.2/MSDK/cloud/alicloud/src/services/linkkit/dm\dm_message.c ****         return FAIL_RETURN;
1460:C:/Users/stapi/OneDrive/Desktop/GD32VW553/V1_MQTT_OK/GD32VW55X_Wifi_BLE_SDK/GD32VW55x_RELEASE_V1.0.2/MSDK/cloud/alicloud/src/services/linkkit/dm\dm_message.c ****     }
1461:C:/Users/stapi/OneDrive/Desktop/GD32VW553/V1_MQTT_OK/GD32VW55X_Wifi_BLE_SDK/GD32VW55x_RELEASE_V1.0.2/MSDK/cloud/alicloud/src/services/linkkit/dm\dm_message.c ****     devid = node->devid;
1462:C:/Users/stapi/OneDrive/Desktop/GD32VW553/V1_MQTT_OK/GD32VW55X_Wifi_BLE_SDK/GD32VW55x_RELEASE_V1.0.2/MSDK/cloud/alicloud/src/services/linkkit/dm\dm_message.c **** 
1463:C:/Users/stapi/OneDrive/Desktop/GD32VW553/V1_MQTT_OK/GD32VW55X_Wifi_BLE_SDK/GD32VW55x_RELEASE_V1.0.2/MSDK/cloud/alicloud/src/services/linkkit/dm\dm_message.c ****     /* Update State Machine */
1464:C:/Users/stapi/OneDrive/Desktop/GD32VW553/V1_MQTT_OK/GD32VW55X_Wifi_BLE_SDK/GD32VW55x_RELEASE_V1.0.2/MSDK/cloud/alicloud/src/services/linkkit/dm\dm_message.c ****     if (response->code.value_int == IOTX_DM_ERR_CODE_SUCCESS) {
1465:C:/Users/stapi/OneDrive/Desktop/GD32VW553/V1_MQTT_OK/GD32VW55X_Wifi_BLE_SDK/GD32VW55x_RELEASE_V1.0.2/MSDK/cloud/alicloud/src/services/linkkit/dm\dm_message.c ****         dm_mgr_set_dev_status(node->devid, IOTX_DM_DEV_STATUS_ATTACHED);
1466:C:/Users/stapi/OneDrive/Desktop/GD32VW553/V1_MQTT_OK/GD32VW55X_Wifi_BLE_SDK/GD32VW55x_RELEASE_V1.0.2/MSDK/cloud/alicloud/src/services/linkkit/dm\dm_message.c ****     }
1467:C:/Users/stapi/OneDrive/Desktop/GD32VW553/V1_MQTT_OK/GD32VW55X_Wifi_BLE_SDK/GD32VW55x_RELEASE_V1.0.2/MSDK/cloud/alicloud/src/services/linkkit/dm\dm_message.c **** 
1468:C:/Users/stapi/OneDrive/Desktop/GD32VW553/V1_MQTT_OK/GD32VW55X_Wifi_BLE_SDK/GD32VW55x_RELEASE_V1.0.2/MSDK/cloud/alicloud/src/services/linkkit/dm\dm_message.c **** #endif
1469:C:/Users/stapi/OneDrive/Desktop/GD32VW553/V1_MQTT_OK/GD32VW55X_Wifi_BLE_SDK/GD32VW55x_RELEASE_V1.0.2/MSDK/cloud/alicloud/src/services/linkkit/dm\dm_message.c **** 
1470:C:/Users/stapi/OneDrive/Desktop/GD32VW553/V1_MQTT_OK/GD32VW55X_Wifi_BLE_SDK/GD32VW55x_RELEASE_V1.0.2/MSDK/cloud/alicloud/src/services/linkkit/dm\dm_message.c ****     message_len = strlen(DM_MSG_EVENT_THING_TOPO_DELETE_REPLY_FMT) + DM_UTILS_UINT32_STRLEN * 3 + 1
1471:C:/Users/stapi/OneDrive/Desktop/GD32VW553/V1_MQTT_OK/GD32VW55X_Wifi_BLE_SDK/GD32VW55x_RELEASE_V1.0.2/MSDK/cloud/alicloud/src/services/linkkit/dm\dm_message.c ****     message = DM_malloc(message_len);
1472:C:/Users/stapi/OneDrive/Desktop/GD32VW553/V1_MQTT_OK/GD32VW55X_Wifi_BLE_SDK/GD32VW55x_RELEASE_V1.0.2/MSDK/cloud/alicloud/src/services/linkkit/dm\dm_message.c ****     if (message == NULL) {
1473:C:/Users/stapi/OneDrive/Desktop/GD32VW553/V1_MQTT_OK/GD32VW55X_Wifi_BLE_SDK/GD32VW55x_RELEASE_V1.0.2/MSDK/cloud/alicloud/src/services/linkkit/dm\dm_message.c ****         return DM_MEMORY_NOT_ENOUGH;
1474:C:/Users/stapi/OneDrive/Desktop/GD32VW553/V1_MQTT_OK/GD32VW55X_Wifi_BLE_SDK/GD32VW55x_RELEASE_V1.0.2/MSDK/cloud/alicloud/src/services/linkkit/dm\dm_message.c ****     }
1475:C:/Users/stapi/OneDrive/Desktop/GD32VW553/V1_MQTT_OK/GD32VW55X_Wifi_BLE_SDK/GD32VW55x_RELEASE_V1.0.2/MSDK/cloud/alicloud/src/services/linkkit/dm\dm_message.c ****     memset(message, 0, message_len);
1476:C:/Users/stapi/OneDrive/Desktop/GD32VW553/V1_MQTT_OK/GD32VW55X_Wifi_BLE_SDK/GD32VW55x_RELEASE_V1.0.2/MSDK/cloud/alicloud/src/services/linkkit/dm\dm_message.c ****     HAL_Snprintf(message, message_len, DM_MSG_EVENT_THING_TOPO_DELETE_REPLY_FMT, id, response->code
1477:C:/Users/stapi/OneDrive/Desktop/GD32VW553/V1_MQTT_OK/GD32VW55X_Wifi_BLE_SDK/GD32VW55x_RELEASE_V1.0.2/MSDK/cloud/alicloud/src/services/linkkit/dm\dm_message.c **** 
1478:C:/Users/stapi/OneDrive/Desktop/GD32VW553/V1_MQTT_OK/GD32VW55X_Wifi_BLE_SDK/GD32VW55x_RELEASE_V1.0.2/MSDK/cloud/alicloud/src/services/linkkit/dm\dm_message.c ****     res = _dm_msg_send_to_user(IOTX_DM_EVENT_TOPO_DELETE_REPLY, message);
1479:C:/Users/stapi/OneDrive/Desktop/GD32VW553/V1_MQTT_OK/GD32VW55X_Wifi_BLE_SDK/GD32VW55x_RELEASE_V1.0.2/MSDK/cloud/alicloud/src/services/linkkit/dm\dm_message.c ****     if (res != SUCCESS_RETURN) {
1480:C:/Users/stapi/OneDrive/Desktop/GD32VW553/V1_MQTT_OK/GD32VW55X_Wifi_BLE_SDK/GD32VW55x_RELEASE_V1.0.2/MSDK/cloud/alicloud/src/services/linkkit/dm\dm_message.c ****         DM_free(message);
1481:C:/Users/stapi/OneDrive/Desktop/GD32VW553/V1_MQTT_OK/GD32VW55X_Wifi_BLE_SDK/GD32VW55x_RELEASE_V1.0.2/MSDK/cloud/alicloud/src/services/linkkit/dm\dm_message.c ****         return FAIL_RETURN;
1482:C:/Users/stapi/OneDrive/Desktop/GD32VW553/V1_MQTT_OK/GD32VW55X_Wifi_BLE_SDK/GD32VW55x_RELEASE_V1.0.2/MSDK/cloud/alicloud/src/services/linkkit/dm\dm_message.c ****     }
1483:C:/Users/stapi/OneDrive/Desktop/GD32VW553/V1_MQTT_OK/GD32VW55X_Wifi_BLE_SDK/GD32VW55x_RELEASE_V1.0.2/MSDK/cloud/alicloud/src/services/linkkit/dm\dm_message.c **** 
1484:C:/Users/stapi/OneDrive/Desktop/GD32VW553/V1_MQTT_OK/GD32VW55X_Wifi_BLE_SDK/GD32VW55x_RELEASE_V1.0.2/MSDK/cloud/alicloud/src/services/linkkit/dm\dm_message.c ****     return SUCCESS_RETURN;
1485:C:/Users/stapi/OneDrive/Desktop/GD32VW553/V1_MQTT_OK/GD32VW55X_Wifi_BLE_SDK/GD32VW55x_RELEASE_V1.0.2/MSDK/cloud/alicloud/src/services/linkkit/dm\dm_message.c **** }
1486:C:/Users/stapi/OneDrive/Desktop/GD32VW553/V1_MQTT_OK/GD32VW55X_Wifi_BLE_SDK/GD32VW55x_RELEASE_V1.0.2/MSDK/cloud/alicloud/src/services/linkkit/dm\dm_message.c **** 
1487:C:/Users/stapi/OneDrive/Desktop/GD32VW553/V1_MQTT_OK/GD32VW55X_Wifi_BLE_SDK/GD32VW55x_RELEASE_V1.0.2/MSDK/cloud/alicloud/src/services/linkkit/dm\dm_message.c **** const char DM_MSG_EVENT_THING_SUB_RESET_REPLY_FMT[] DM_READ_ONLY = "{\"id\":%d,\"code\":%d,\"devid\
1488:C:/Users/stapi/OneDrive/Desktop/GD32VW553/V1_MQTT_OK/GD32VW55X_Wifi_BLE_SDK/GD32VW55x_RELEASE_V1.0.2/MSDK/cloud/alicloud/src/services/linkkit/dm\dm_message.c **** int dm_msg_thing_subdev_reset_reply(dm_msg_response_payload_t *response)
1489:C:/Users/stapi/OneDrive/Desktop/GD32VW553/V1_MQTT_OK/GD32VW55X_Wifi_BLE_SDK/GD32VW55x_RELEASE_V1.0.2/MSDK/cloud/alicloud/src/services/linkkit/dm\dm_message.c **** {
1490:C:/Users/stapi/OneDrive/Desktop/GD32VW553/V1_MQTT_OK/GD32VW55X_Wifi_BLE_SDK/GD32VW55x_RELEASE_V1.0.2/MSDK/cloud/alicloud/src/services/linkkit/dm\dm_message.c ****     int res = 0, devid = 0, id = 0, message_len = 0;
1491:C:/Users/stapi/OneDrive/Desktop/GD32VW553/V1_MQTT_OK/GD32VW55X_Wifi_BLE_SDK/GD32VW55x_RELEASE_V1.0.2/MSDK/cloud/alicloud/src/services/linkkit/dm\dm_message.c ****     char int_id[DM_UTILS_UINT32_STRLEN+1] = {0};
1492:C:/Users/stapi/OneDrive/Desktop/GD32VW553/V1_MQTT_OK/GD32VW55X_Wifi_BLE_SDK/GD32VW55x_RELEASE_V1.0.2/MSDK/cloud/alicloud/src/services/linkkit/dm\dm_message.c ****     char *message = NULL;
1493:C:/Users/stapi/OneDrive/Desktop/GD32VW553/V1_MQTT_OK/GD32VW55X_Wifi_BLE_SDK/GD32VW55x_RELEASE_V1.0.2/MSDK/cloud/alicloud/src/services/linkkit/dm\dm_message.c **** 
1494:C:/Users/stapi/OneDrive/Desktop/GD32VW553/V1_MQTT_OK/GD32VW55X_Wifi_BLE_SDK/GD32VW55x_RELEASE_V1.0.2/MSDK/cloud/alicloud/src/services/linkkit/dm\dm_message.c ****     if (response->id.value_length > DM_UTILS_UINT32_STRLEN) {
1495:C:/Users/stapi/OneDrive/Desktop/GD32VW553/V1_MQTT_OK/GD32VW55X_Wifi_BLE_SDK/GD32VW55x_RELEASE_V1.0.2/MSDK/cloud/alicloud/src/services/linkkit/dm\dm_message.c ****         return FAIL_RETURN;
1496:C:/Users/stapi/OneDrive/Desktop/GD32VW553/V1_MQTT_OK/GD32VW55X_Wifi_BLE_SDK/GD32VW55x_RELEASE_V1.0.2/MSDK/cloud/alicloud/src/services/linkkit/dm\dm_message.c ****     }
1497:C:/Users/stapi/OneDrive/Desktop/GD32VW553/V1_MQTT_OK/GD32VW55X_Wifi_BLE_SDK/GD32VW55x_RELEASE_V1.0.2/MSDK/cloud/alicloud/src/services/linkkit/dm\dm_message.c ****     memcpy(int_id, response->id.value, response->id.value_length);
1498:C:/Users/stapi/OneDrive/Desktop/GD32VW553/V1_MQTT_OK/GD32VW55X_Wifi_BLE_SDK/GD32VW55x_RELEASE_V1.0.2/MSDK/cloud/alicloud/src/services/linkkit/dm\dm_message.c ****     id = atoi(int_id);
1499:C:/Users/stapi/OneDrive/Desktop/GD32VW553/V1_MQTT_OK/GD32VW55X_Wifi_BLE_SDK/GD32VW55x_RELEASE_V1.0.2/MSDK/cloud/alicloud/src/services/linkkit/dm\dm_message.c **** 
1500:C:/Users/stapi/OneDrive/Desktop/GD32VW553/V1_MQTT_OK/GD32VW55X_Wifi_BLE_SDK/GD32VW55x_RELEASE_V1.0.2/MSDK/cloud/alicloud/src/services/linkkit/dm\dm_message.c ****     /* dm_log_debug("Current ID: %d", id); */
1501:C:/Users/stapi/OneDrive/Desktop/GD32VW553/V1_MQTT_OK/GD32VW55X_Wifi_BLE_SDK/GD32VW55x_RELEASE_V1.0.2/MSDK/cloud/alicloud/src/services/linkkit/dm\dm_message.c **** 
1502:C:/Users/stapi/OneDrive/Desktop/GD32VW553/V1_MQTT_OK/GD32VW55X_Wifi_BLE_SDK/GD32VW55x_RELEASE_V1.0.2/MSDK/cloud/alicloud/src/services/linkkit/dm\dm_message.c **** #if !defined(DM_MESSAGE_CACHE_DISABLED)
1503:C:/Users/stapi/OneDrive/Desktop/GD32VW553/V1_MQTT_OK/GD32VW55X_Wifi_BLE_SDK/GD32VW55x_RELEASE_V1.0.2/MSDK/cloud/alicloud/src/services/linkkit/dm\dm_message.c ****     dm_msg_cache_node_t *node = NULL;
1504:C:/Users/stapi/OneDrive/Desktop/GD32VW553/V1_MQTT_OK/GD32VW55X_Wifi_BLE_SDK/GD32VW55x_RELEASE_V1.0.2/MSDK/cloud/alicloud/src/services/linkkit/dm\dm_message.c ****     res = dm_msg_cache_search(id, &node);
1505:C:/Users/stapi/OneDrive/Desktop/GD32VW553/V1_MQTT_OK/GD32VW55X_Wifi_BLE_SDK/GD32VW55x_RELEASE_V1.0.2/MSDK/cloud/alicloud/src/services/linkkit/dm\dm_message.c ****     if (res != SUCCESS_RETURN) {
1506:C:/Users/stapi/OneDrive/Desktop/GD32VW553/V1_MQTT_OK/GD32VW55X_Wifi_BLE_SDK/GD32VW55x_RELEASE_V1.0.2/MSDK/cloud/alicloud/src/services/linkkit/dm\dm_message.c ****         return FAIL_RETURN;
1507:C:/Users/stapi/OneDrive/Desktop/GD32VW553/V1_MQTT_OK/GD32VW55X_Wifi_BLE_SDK/GD32VW55x_RELEASE_V1.0.2/MSDK/cloud/alicloud/src/services/linkkit/dm\dm_message.c ****     }
1508:C:/Users/stapi/OneDrive/Desktop/GD32VW553/V1_MQTT_OK/GD32VW55X_Wifi_BLE_SDK/GD32VW55x_RELEASE_V1.0.2/MSDK/cloud/alicloud/src/services/linkkit/dm\dm_message.c ****     devid = node->devid;
1509:C:/Users/stapi/OneDrive/Desktop/GD32VW553/V1_MQTT_OK/GD32VW55X_Wifi_BLE_SDK/GD32VW55x_RELEASE_V1.0.2/MSDK/cloud/alicloud/src/services/linkkit/dm\dm_message.c **** 
1510:C:/Users/stapi/OneDrive/Desktop/GD32VW553/V1_MQTT_OK/GD32VW55X_Wifi_BLE_SDK/GD32VW55x_RELEASE_V1.0.2/MSDK/cloud/alicloud/src/services/linkkit/dm\dm_message.c ****     /* Update State Machine */
1511:C:/Users/stapi/OneDrive/Desktop/GD32VW553/V1_MQTT_OK/GD32VW55X_Wifi_BLE_SDK/GD32VW55x_RELEASE_V1.0.2/MSDK/cloud/alicloud/src/services/linkkit/dm\dm_message.c ****     if (response->code.value_int == IOTX_DM_ERR_CODE_SUCCESS) {
1512:C:/Users/stapi/OneDrive/Desktop/GD32VW553/V1_MQTT_OK/GD32VW55X_Wifi_BLE_SDK/GD32VW55x_RELEASE_V1.0.2/MSDK/cloud/alicloud/src/services/linkkit/dm\dm_message.c ****         dm_mgr_set_dev_status(node->devid, IOTX_DM_DEV_STATUS_UNAUTHORIZED);
1513:C:/Users/stapi/OneDrive/Desktop/GD32VW553/V1_MQTT_OK/GD32VW55X_Wifi_BLE_SDK/GD32VW55x_RELEASE_V1.0.2/MSDK/cloud/alicloud/src/services/linkkit/dm\dm_message.c ****     }
1514:C:/Users/stapi/OneDrive/Desktop/GD32VW553/V1_MQTT_OK/GD32VW55X_Wifi_BLE_SDK/GD32VW55x_RELEASE_V1.0.2/MSDK/cloud/alicloud/src/services/linkkit/dm\dm_message.c **** 
1515:C:/Users/stapi/OneDrive/Desktop/GD32VW553/V1_MQTT_OK/GD32VW55X_Wifi_BLE_SDK/GD32VW55x_RELEASE_V1.0.2/MSDK/cloud/alicloud/src/services/linkkit/dm\dm_message.c **** #endif
1516:C:/Users/stapi/OneDrive/Desktop/GD32VW553/V1_MQTT_OK/GD32VW55X_Wifi_BLE_SDK/GD32VW55x_RELEASE_V1.0.2/MSDK/cloud/alicloud/src/services/linkkit/dm\dm_message.c **** 
1517:C:/Users/stapi/OneDrive/Desktop/GD32VW553/V1_MQTT_OK/GD32VW55X_Wifi_BLE_SDK/GD32VW55x_RELEASE_V1.0.2/MSDK/cloud/alicloud/src/services/linkkit/dm\dm_message.c ****     message_len = strlen(DM_MSG_EVENT_THING_SUB_RESET_REPLY_FMT) + DM_UTILS_UINT32_STRLEN * 3 + 1;
1518:C:/Users/stapi/OneDrive/Desktop/GD32VW553/V1_MQTT_OK/GD32VW55X_Wifi_BLE_SDK/GD32VW55x_RELEASE_V1.0.2/MSDK/cloud/alicloud/src/services/linkkit/dm\dm_message.c ****     message = DM_malloc(message_len);
1519:C:/Users/stapi/OneDrive/Desktop/GD32VW553/V1_MQTT_OK/GD32VW55X_Wifi_BLE_SDK/GD32VW55x_RELEASE_V1.0.2/MSDK/cloud/alicloud/src/services/linkkit/dm\dm_message.c ****     if (message == NULL) {
1520:C:/Users/stapi/OneDrive/Desktop/GD32VW553/V1_MQTT_OK/GD32VW55X_Wifi_BLE_SDK/GD32VW55x_RELEASE_V1.0.2/MSDK/cloud/alicloud/src/services/linkkit/dm\dm_message.c ****         return DM_MEMORY_NOT_ENOUGH;
1521:C:/Users/stapi/OneDrive/Desktop/GD32VW553/V1_MQTT_OK/GD32VW55X_Wifi_BLE_SDK/GD32VW55x_RELEASE_V1.0.2/MSDK/cloud/alicloud/src/services/linkkit/dm\dm_message.c ****     }
1522:C:/Users/stapi/OneDrive/Desktop/GD32VW553/V1_MQTT_OK/GD32VW55X_Wifi_BLE_SDK/GD32VW55x_RELEASE_V1.0.2/MSDK/cloud/alicloud/src/services/linkkit/dm\dm_message.c ****     memset(message, 0, message_len);
1523:C:/Users/stapi/OneDrive/Desktop/GD32VW553/V1_MQTT_OK/GD32VW55X_Wifi_BLE_SDK/GD32VW55x_RELEASE_V1.0.2/MSDK/cloud/alicloud/src/services/linkkit/dm\dm_message.c ****     HAL_Snprintf(message, message_len, DM_MSG_EVENT_THING_SUB_RESET_REPLY_FMT, id, response->code.v
1524:C:/Users/stapi/OneDrive/Desktop/GD32VW553/V1_MQTT_OK/GD32VW55X_Wifi_BLE_SDK/GD32VW55x_RELEASE_V1.0.2/MSDK/cloud/alicloud/src/services/linkkit/dm\dm_message.c **** 
1525:C:/Users/stapi/OneDrive/Desktop/GD32VW553/V1_MQTT_OK/GD32VW55X_Wifi_BLE_SDK/GD32VW55x_RELEASE_V1.0.2/MSDK/cloud/alicloud/src/services/linkkit/dm\dm_message.c ****     res = _dm_msg_send_to_user(IOTX_DM_EVENT_SUBDEV_RESET_REPLY, message);
1526:C:/Users/stapi/OneDrive/Desktop/GD32VW553/V1_MQTT_OK/GD32VW55X_Wifi_BLE_SDK/GD32VW55x_RELEASE_V1.0.2/MSDK/cloud/alicloud/src/services/linkkit/dm\dm_message.c ****     if (res != SUCCESS_RETURN) {
1527:C:/Users/stapi/OneDrive/Desktop/GD32VW553/V1_MQTT_OK/GD32VW55X_Wifi_BLE_SDK/GD32VW55x_RELEASE_V1.0.2/MSDK/cloud/alicloud/src/services/linkkit/dm\dm_message.c ****         DM_free(message);
1528:C:/Users/stapi/OneDrive/Desktop/GD32VW553/V1_MQTT_OK/GD32VW55X_Wifi_BLE_SDK/GD32VW55x_RELEASE_V1.0.2/MSDK/cloud/alicloud/src/services/linkkit/dm\dm_message.c ****         return FAIL_RETURN;
1529:C:/Users/stapi/OneDrive/Desktop/GD32VW553/V1_MQTT_OK/GD32VW55X_Wifi_BLE_SDK/GD32VW55x_RELEASE_V1.0.2/MSDK/cloud/alicloud/src/services/linkkit/dm\dm_message.c ****     }
1530:C:/Users/stapi/OneDrive/Desktop/GD32VW553/V1_MQTT_OK/GD32VW55X_Wifi_BLE_SDK/GD32VW55x_RELEASE_V1.0.2/MSDK/cloud/alicloud/src/services/linkkit/dm\dm_message.c **** 
1531:C:/Users/stapi/OneDrive/Desktop/GD32VW553/V1_MQTT_OK/GD32VW55X_Wifi_BLE_SDK/GD32VW55x_RELEASE_V1.0.2/MSDK/cloud/alicloud/src/services/linkkit/dm\dm_message.c ****     return SUCCESS_RETURN;
1532:C:/Users/stapi/OneDrive/Desktop/GD32VW553/V1_MQTT_OK/GD32VW55X_Wifi_BLE_SDK/GD32VW55x_RELEASE_V1.0.2/MSDK/cloud/alicloud/src/services/linkkit/dm\dm_message.c **** }
1533:C:/Users/stapi/OneDrive/Desktop/GD32VW553/V1_MQTT_OK/GD32VW55X_Wifi_BLE_SDK/GD32VW55x_RELEASE_V1.0.2/MSDK/cloud/alicloud/src/services/linkkit/dm\dm_message.c **** 
1534:C:/Users/stapi/OneDrive/Desktop/GD32VW553/V1_MQTT_OK/GD32VW55X_Wifi_BLE_SDK/GD32VW55x_RELEASE_V1.0.2/MSDK/cloud/alicloud/src/services/linkkit/dm\dm_message.c **** const char DM_MSG_TOPO_GET_REPLY_FMT[] DM_READ_ONLY = "{\"id\":%d,\"code\":%d,\"devid\":%d,\"topo\"
1535:C:/Users/stapi/OneDrive/Desktop/GD32VW553/V1_MQTT_OK/GD32VW55X_Wifi_BLE_SDK/GD32VW55x_RELEASE_V1.0.2/MSDK/cloud/alicloud/src/services/linkkit/dm\dm_message.c **** int dm_msg_topo_get_reply(dm_msg_response_payload_t *response)
1536:C:/Users/stapi/OneDrive/Desktop/GD32VW553/V1_MQTT_OK/GD32VW55X_Wifi_BLE_SDK/GD32VW55x_RELEASE_V1.0.2/MSDK/cloud/alicloud/src/services/linkkit/dm\dm_message.c **** {
1537:C:/Users/stapi/OneDrive/Desktop/GD32VW553/V1_MQTT_OK/GD32VW55X_Wifi_BLE_SDK/GD32VW55x_RELEASE_V1.0.2/MSDK/cloud/alicloud/src/services/linkkit/dm\dm_message.c ****     int res = 0, id = 0, message_len = 0;
1538:C:/Users/stapi/OneDrive/Desktop/GD32VW553/V1_MQTT_OK/GD32VW55X_Wifi_BLE_SDK/GD32VW55x_RELEASE_V1.0.2/MSDK/cloud/alicloud/src/services/linkkit/dm\dm_message.c ****     char *message = NULL;
1539:C:/Users/stapi/OneDrive/Desktop/GD32VW553/V1_MQTT_OK/GD32VW55X_Wifi_BLE_SDK/GD32VW55x_RELEASE_V1.0.2/MSDK/cloud/alicloud/src/services/linkkit/dm\dm_message.c ****     char int_id[DM_UTILS_UINT32_STRLEN+1] = {0};
1540:C:/Users/stapi/OneDrive/Desktop/GD32VW553/V1_MQTT_OK/GD32VW55X_Wifi_BLE_SDK/GD32VW55x_RELEASE_V1.0.2/MSDK/cloud/alicloud/src/services/linkkit/dm\dm_message.c **** 
1541:C:/Users/stapi/OneDrive/Desktop/GD32VW553/V1_MQTT_OK/GD32VW55X_Wifi_BLE_SDK/GD32VW55x_RELEASE_V1.0.2/MSDK/cloud/alicloud/src/services/linkkit/dm\dm_message.c ****     if (response == NULL) {
1542:C:/Users/stapi/OneDrive/Desktop/GD32VW553/V1_MQTT_OK/GD32VW55X_Wifi_BLE_SDK/GD32VW55x_RELEASE_V1.0.2/MSDK/cloud/alicloud/src/services/linkkit/dm\dm_message.c ****         return DM_INVALID_PARAMETER;
1543:C:/Users/stapi/OneDrive/Desktop/GD32VW553/V1_MQTT_OK/GD32VW55X_Wifi_BLE_SDK/GD32VW55x_RELEASE_V1.0.2/MSDK/cloud/alicloud/src/services/linkkit/dm\dm_message.c ****     }
1544:C:/Users/stapi/OneDrive/Desktop/GD32VW553/V1_MQTT_OK/GD32VW55X_Wifi_BLE_SDK/GD32VW55x_RELEASE_V1.0.2/MSDK/cloud/alicloud/src/services/linkkit/dm\dm_message.c **** 
1545:C:/Users/stapi/OneDrive/Desktop/GD32VW553/V1_MQTT_OK/GD32VW55X_Wifi_BLE_SDK/GD32VW55x_RELEASE_V1.0.2/MSDK/cloud/alicloud/src/services/linkkit/dm\dm_message.c ****     /* Message ID */
1546:C:/Users/stapi/OneDrive/Desktop/GD32VW553/V1_MQTT_OK/GD32VW55X_Wifi_BLE_SDK/GD32VW55x_RELEASE_V1.0.2/MSDK/cloud/alicloud/src/services/linkkit/dm\dm_message.c ****     if (response->id.value_length > DM_UTILS_UINT32_STRLEN) {
1547:C:/Users/stapi/OneDrive/Desktop/GD32VW553/V1_MQTT_OK/GD32VW55X_Wifi_BLE_SDK/GD32VW55x_RELEASE_V1.0.2/MSDK/cloud/alicloud/src/services/linkkit/dm\dm_message.c ****         return FAIL_RETURN;
1548:C:/Users/stapi/OneDrive/Desktop/GD32VW553/V1_MQTT_OK/GD32VW55X_Wifi_BLE_SDK/GD32VW55x_RELEASE_V1.0.2/MSDK/cloud/alicloud/src/services/linkkit/dm\dm_message.c ****     }
1549:C:/Users/stapi/OneDrive/Desktop/GD32VW553/V1_MQTT_OK/GD32VW55X_Wifi_BLE_SDK/GD32VW55x_RELEASE_V1.0.2/MSDK/cloud/alicloud/src/services/linkkit/dm\dm_message.c ****     memcpy(int_id, response->id.value, response->id.value_length);
1550:C:/Users/stapi/OneDrive/Desktop/GD32VW553/V1_MQTT_OK/GD32VW55X_Wifi_BLE_SDK/GD32VW55x_RELEASE_V1.0.2/MSDK/cloud/alicloud/src/services/linkkit/dm\dm_message.c ****     id = atoi(int_id);
1551:C:/Users/stapi/OneDrive/Desktop/GD32VW553/V1_MQTT_OK/GD32VW55X_Wifi_BLE_SDK/GD32VW55x_RELEASE_V1.0.2/MSDK/cloud/alicloud/src/services/linkkit/dm\dm_message.c **** 
1552:C:/Users/stapi/OneDrive/Desktop/GD32VW553/V1_MQTT_OK/GD32VW55X_Wifi_BLE_SDK/GD32VW55x_RELEASE_V1.0.2/MSDK/cloud/alicloud/src/services/linkkit/dm\dm_message.c ****     /* dm_log_debug("Current ID: %d", id); */
1553:C:/Users/stapi/OneDrive/Desktop/GD32VW553/V1_MQTT_OK/GD32VW55X_Wifi_BLE_SDK/GD32VW55x_RELEASE_V1.0.2/MSDK/cloud/alicloud/src/services/linkkit/dm\dm_message.c **** 
1554:C:/Users/stapi/OneDrive/Desktop/GD32VW553/V1_MQTT_OK/GD32VW55X_Wifi_BLE_SDK/GD32VW55x_RELEASE_V1.0.2/MSDK/cloud/alicloud/src/services/linkkit/dm\dm_message.c ****     message_len = strlen(DM_MSG_TOPO_GET_REPLY_FMT) + DM_UTILS_UINT32_STRLEN * 3 + response->data.v
1555:C:/Users/stapi/OneDrive/Desktop/GD32VW553/V1_MQTT_OK/GD32VW55X_Wifi_BLE_SDK/GD32VW55x_RELEASE_V1.0.2/MSDK/cloud/alicloud/src/services/linkkit/dm\dm_message.c ****     message = DM_malloc(message_len);
1556:C:/Users/stapi/OneDrive/Desktop/GD32VW553/V1_MQTT_OK/GD32VW55X_Wifi_BLE_SDK/GD32VW55x_RELEASE_V1.0.2/MSDK/cloud/alicloud/src/services/linkkit/dm\dm_message.c ****     if (message == NULL) {
1557:C:/Users/stapi/OneDrive/Desktop/GD32VW553/V1_MQTT_OK/GD32VW55X_Wifi_BLE_SDK/GD32VW55x_RELEASE_V1.0.2/MSDK/cloud/alicloud/src/services/linkkit/dm\dm_message.c ****         return DM_MEMORY_NOT_ENOUGH;
1558:C:/Users/stapi/OneDrive/Desktop/GD32VW553/V1_MQTT_OK/GD32VW55X_Wifi_BLE_SDK/GD32VW55x_RELEASE_V1.0.2/MSDK/cloud/alicloud/src/services/linkkit/dm\dm_message.c ****     }
1559:C:/Users/stapi/OneDrive/Desktop/GD32VW553/V1_MQTT_OK/GD32VW55X_Wifi_BLE_SDK/GD32VW55x_RELEASE_V1.0.2/MSDK/cloud/alicloud/src/services/linkkit/dm\dm_message.c ****     memset(message, 0, message_len);
1560:C:/Users/stapi/OneDrive/Desktop/GD32VW553/V1_MQTT_OK/GD32VW55X_Wifi_BLE_SDK/GD32VW55x_RELEASE_V1.0.2/MSDK/cloud/alicloud/src/services/linkkit/dm\dm_message.c ****     HAL_Snprintf(message, message_len, DM_MSG_TOPO_GET_REPLY_FMT, id, response->code.value_int, IOT
1561:C:/Users/stapi/OneDrive/Desktop/GD32VW553/V1_MQTT_OK/GD32VW55X_Wifi_BLE_SDK/GD32VW55x_RELEASE_V1.0.2/MSDK/cloud/alicloud/src/services/linkkit/dm\dm_message.c ****                  response->data.value_length,
1562:C:/Users/stapi/OneDrive/Desktop/GD32VW553/V1_MQTT_OK/GD32VW55X_Wifi_BLE_SDK/GD32VW55x_RELEASE_V1.0.2/MSDK/cloud/alicloud/src/services/linkkit/dm\dm_message.c ****                  response->data.value);
1563:C:/Users/stapi/OneDrive/Desktop/GD32VW553/V1_MQTT_OK/GD32VW55X_Wifi_BLE_SDK/GD32VW55x_RELEASE_V1.0.2/MSDK/cloud/alicloud/src/services/linkkit/dm\dm_message.c **** 
1564:C:/Users/stapi/OneDrive/Desktop/GD32VW553/V1_MQTT_OK/GD32VW55X_Wifi_BLE_SDK/GD32VW55x_RELEASE_V1.0.2/MSDK/cloud/alicloud/src/services/linkkit/dm\dm_message.c ****     res = _dm_msg_send_to_user(IOTX_DM_EVENT_TOPO_GET_REPLY, message);
1565:C:/Users/stapi/OneDrive/Desktop/GD32VW553/V1_MQTT_OK/GD32VW55X_Wifi_BLE_SDK/GD32VW55x_RELEASE_V1.0.2/MSDK/cloud/alicloud/src/services/linkkit/dm\dm_message.c ****     if (res != SUCCESS_RETURN) {
1566:C:/Users/stapi/OneDrive/Desktop/GD32VW553/V1_MQTT_OK/GD32VW55X_Wifi_BLE_SDK/GD32VW55x_RELEASE_V1.0.2/MSDK/cloud/alicloud/src/services/linkkit/dm\dm_message.c ****         DM_free(message);
1567:C:/Users/stapi/OneDrive/Desktop/GD32VW553/V1_MQTT_OK/GD32VW55X_Wifi_BLE_SDK/GD32VW55x_RELEASE_V1.0.2/MSDK/cloud/alicloud/src/services/linkkit/dm\dm_message.c ****         return FAIL_RETURN;
1568:C:/Users/stapi/OneDrive/Desktop/GD32VW553/V1_MQTT_OK/GD32VW55X_Wifi_BLE_SDK/GD32VW55x_RELEASE_V1.0.2/MSDK/cloud/alicloud/src/services/linkkit/dm\dm_message.c ****     }
1569:C:/Users/stapi/OneDrive/Desktop/GD32VW553/V1_MQTT_OK/GD32VW55X_Wifi_BLE_SDK/GD32VW55x_RELEASE_V1.0.2/MSDK/cloud/alicloud/src/services/linkkit/dm\dm_message.c **** 
1570:C:/Users/stapi/OneDrive/Desktop/GD32VW553/V1_MQTT_OK/GD32VW55X_Wifi_BLE_SDK/GD32VW55x_RELEASE_V1.0.2/MSDK/cloud/alicloud/src/services/linkkit/dm\dm_message.c ****     return SUCCESS_RETURN;
1571:C:/Users/stapi/OneDrive/Desktop/GD32VW553/V1_MQTT_OK/GD32VW55X_Wifi_BLE_SDK/GD32VW55x_RELEASE_V1.0.2/MSDK/cloud/alicloud/src/services/linkkit/dm\dm_message.c **** }
1572:C:/Users/stapi/OneDrive/Desktop/GD32VW553/V1_MQTT_OK/GD32VW55X_Wifi_BLE_SDK/GD32VW55x_RELEASE_V1.0.2/MSDK/cloud/alicloud/src/services/linkkit/dm\dm_message.c **** 
1573:C:/Users/stapi/OneDrive/Desktop/GD32VW553/V1_MQTT_OK/GD32VW55X_Wifi_BLE_SDK/GD32VW55x_RELEASE_V1.0.2/MSDK/cloud/alicloud/src/services/linkkit/dm\dm_message.c **** int dm_msg_thing_list_found_reply(dm_msg_response_payload_t *response)
1574:C:/Users/stapi/OneDrive/Desktop/GD32VW553/V1_MQTT_OK/GD32VW55X_Wifi_BLE_SDK/GD32VW55x_RELEASE_V1.0.2/MSDK/cloud/alicloud/src/services/linkkit/dm\dm_message.c **** {
1575:C:/Users/stapi/OneDrive/Desktop/GD32VW553/V1_MQTT_OK/GD32VW55X_Wifi_BLE_SDK/GD32VW55x_RELEASE_V1.0.2/MSDK/cloud/alicloud/src/services/linkkit/dm\dm_message.c ****     return SUCCESS_RETURN;
1576:C:/Users/stapi/OneDrive/Desktop/GD32VW553/V1_MQTT_OK/GD32VW55X_Wifi_BLE_SDK/GD32VW55x_RELEASE_V1.0.2/MSDK/cloud/alicloud/src/services/linkkit/dm\dm_message.c **** }
1577:C:/Users/stapi/OneDrive/Desktop/GD32VW553/V1_MQTT_OK/GD32VW55X_Wifi_BLE_SDK/GD32VW55x_RELEASE_V1.0.2/MSDK/cloud/alicloud/src/services/linkkit/dm\dm_message.c **** 
1578:C:/Users/stapi/OneDrive/Desktop/GD32VW553/V1_MQTT_OK/GD32VW55X_Wifi_BLE_SDK/GD32VW55x_RELEASE_V1.0.2/MSDK/cloud/alicloud/src/services/linkkit/dm\dm_message.c **** const char DM_MSG_EVENT_COMBINE_BATCH_LOGIN_REPLY_FMT[] DM_READ_ONLY = "{\"id\":%d,\"code\":%d,\"de
1579:C:/Users/stapi/OneDrive/Desktop/GD32VW553/V1_MQTT_OK/GD32VW55X_Wifi_BLE_SDK/GD32VW55x_RELEASE_V1.0.2/MSDK/cloud/alicloud/src/services/linkkit/dm\dm_message.c **** int dm_msg_combine_batch_login_reply(dm_msg_response_payload_t *response)
1580:C:/Users/stapi/OneDrive/Desktop/GD32VW553/V1_MQTT_OK/GD32VW55X_Wifi_BLE_SDK/GD32VW55x_RELEASE_V1.0.2/MSDK/cloud/alicloud/src/services/linkkit/dm\dm_message.c **** {
1581:C:/Users/stapi/OneDrive/Desktop/GD32VW553/V1_MQTT_OK/GD32VW55X_Wifi_BLE_SDK/GD32VW55x_RELEASE_V1.0.2/MSDK/cloud/alicloud/src/services/linkkit/dm\dm_message.c ****     int res = 0, message_len = 0, devid = 0, index = 0;
1582:C:/Users/stapi/OneDrive/Desktop/GD32VW553/V1_MQTT_OK/GD32VW55X_Wifi_BLE_SDK/GD32VW55x_RELEASE_V1.0.2/MSDK/cloud/alicloud/src/services/linkkit/dm\dm_message.c ****     char *message = NULL, *payload = NULL;
1583:C:/Users/stapi/OneDrive/Desktop/GD32VW553/V1_MQTT_OK/GD32VW55X_Wifi_BLE_SDK/GD32VW55x_RELEASE_V1.0.2/MSDK/cloud/alicloud/src/services/linkkit/dm\dm_message.c ****     lite_cjson_t lite, lite_item, lite_item_pk, lite_item_dn;
1584:C:/Users/stapi/OneDrive/Desktop/GD32VW553/V1_MQTT_OK/GD32VW55X_Wifi_BLE_SDK/GD32VW55x_RELEASE_V1.0.2/MSDK/cloud/alicloud/src/services/linkkit/dm\dm_message.c ****     char product_key[PRODUCT_KEY_MAXLEN] = {0};
1585:C:/Users/stapi/OneDrive/Desktop/GD32VW553/V1_MQTT_OK/GD32VW55X_Wifi_BLE_SDK/GD32VW55x_RELEASE_V1.0.2/MSDK/cloud/alicloud/src/services/linkkit/dm\dm_message.c ****     char device_name[DEVICE_NAME_MAXLEN] = {0};
1586:C:/Users/stapi/OneDrive/Desktop/GD32VW553/V1_MQTT_OK/GD32VW55X_Wifi_BLE_SDK/GD32VW55x_RELEASE_V1.0.2/MSDK/cloud/alicloud/src/services/linkkit/dm\dm_message.c ****     char temp_id[DM_UTILS_UINT32_STRLEN+1] = {0};
1587:C:/Users/stapi/OneDrive/Desktop/GD32VW553/V1_MQTT_OK/GD32VW55X_Wifi_BLE_SDK/GD32VW55x_RELEASE_V1.0.2/MSDK/cloud/alicloud/src/services/linkkit/dm\dm_message.c **** 
1588:C:/Users/stapi/OneDrive/Desktop/GD32VW553/V1_MQTT_OK/GD32VW55X_Wifi_BLE_SDK/GD32VW55x_RELEASE_V1.0.2/MSDK/cloud/alicloud/src/services/linkkit/dm\dm_message.c ****     if (response == NULL) {
1589:C:/Users/stapi/OneDrive/Desktop/GD32VW553/V1_MQTT_OK/GD32VW55X_Wifi_BLE_SDK/GD32VW55x_RELEASE_V1.0.2/MSDK/cloud/alicloud/src/services/linkkit/dm\dm_message.c ****         return DM_MEMORY_NOT_ENOUGH;
1590:C:/Users/stapi/OneDrive/Desktop/GD32VW553/V1_MQTT_OK/GD32VW55X_Wifi_BLE_SDK/GD32VW55x_RELEASE_V1.0.2/MSDK/cloud/alicloud/src/services/linkkit/dm\dm_message.c ****     }
1591:C:/Users/stapi/OneDrive/Desktop/GD32VW553/V1_MQTT_OK/GD32VW55X_Wifi_BLE_SDK/GD32VW55x_RELEASE_V1.0.2/MSDK/cloud/alicloud/src/services/linkkit/dm\dm_message.c **** 
1592:C:/Users/stapi/OneDrive/Desktop/GD32VW553/V1_MQTT_OK/GD32VW55X_Wifi_BLE_SDK/GD32VW55x_RELEASE_V1.0.2/MSDK/cloud/alicloud/src/services/linkkit/dm\dm_message.c ****     if (response->code.value_int == IOTX_DM_ERR_CODE_SUCCESS)
1593:C:/Users/stapi/OneDrive/Desktop/GD32VW553/V1_MQTT_OK/GD32VW55X_Wifi_BLE_SDK/GD32VW55x_RELEASE_V1.0.2/MSDK/cloud/alicloud/src/services/linkkit/dm\dm_message.c ****     {
1594:C:/Users/stapi/OneDrive/Desktop/GD32VW553/V1_MQTT_OK/GD32VW55X_Wifi_BLE_SDK/GD32VW55x_RELEASE_V1.0.2/MSDK/cloud/alicloud/src/services/linkkit/dm\dm_message.c ****         memset(&lite, 0, sizeof(lite_cjson_t));
1595:C:/Users/stapi/OneDrive/Desktop/GD32VW553/V1_MQTT_OK/GD32VW55X_Wifi_BLE_SDK/GD32VW55x_RELEASE_V1.0.2/MSDK/cloud/alicloud/src/services/linkkit/dm\dm_message.c ****         res = lite_cjson_parse(response->data.value, response->data.value_length, &lite);
1596:C:/Users/stapi/OneDrive/Desktop/GD32VW553/V1_MQTT_OK/GD32VW55X_Wifi_BLE_SDK/GD32VW55x_RELEASE_V1.0.2/MSDK/cloud/alicloud/src/services/linkkit/dm\dm_message.c ****         if (res != SUCCESS_RETURN || !lite_cjson_is_array(&lite)) {
1597:C:/Users/stapi/OneDrive/Desktop/GD32VW553/V1_MQTT_OK/GD32VW55X_Wifi_BLE_SDK/GD32VW55x_RELEASE_V1.0.2/MSDK/cloud/alicloud/src/services/linkkit/dm\dm_message.c ****             return DM_JSON_PARSE_FAILED;
1598:C:/Users/stapi/OneDrive/Desktop/GD32VW553/V1_MQTT_OK/GD32VW55X_Wifi_BLE_SDK/GD32VW55x_RELEASE_V1.0.2/MSDK/cloud/alicloud/src/services/linkkit/dm\dm_message.c ****         }
1599:C:/Users/stapi/OneDrive/Desktop/GD32VW553/V1_MQTT_OK/GD32VW55X_Wifi_BLE_SDK/GD32VW55x_RELEASE_V1.0.2/MSDK/cloud/alicloud/src/services/linkkit/dm\dm_message.c **** 
1600:C:/Users/stapi/OneDrive/Desktop/GD32VW553/V1_MQTT_OK/GD32VW55X_Wifi_BLE_SDK/GD32VW55x_RELEASE_V1.0.2/MSDK/cloud/alicloud/src/services/linkkit/dm\dm_message.c ****         for (index = 0; index < lite.size; index++) {
1601:C:/Users/stapi/OneDrive/Desktop/GD32VW553/V1_MQTT_OK/GD32VW55X_Wifi_BLE_SDK/GD32VW55x_RELEASE_V1.0.2/MSDK/cloud/alicloud/src/services/linkkit/dm\dm_message.c ****             devid = -1;
1602:C:/Users/stapi/OneDrive/Desktop/GD32VW553/V1_MQTT_OK/GD32VW55X_Wifi_BLE_SDK/GD32VW55x_RELEASE_V1.0.2/MSDK/cloud/alicloud/src/services/linkkit/dm\dm_message.c **** 
1603:C:/Users/stapi/OneDrive/Desktop/GD32VW553/V1_MQTT_OK/GD32VW55X_Wifi_BLE_SDK/GD32VW55x_RELEASE_V1.0.2/MSDK/cloud/alicloud/src/services/linkkit/dm\dm_message.c ****             memset(&lite_item, 0, sizeof(lite_cjson_t));
1604:C:/Users/stapi/OneDrive/Desktop/GD32VW553/V1_MQTT_OK/GD32VW55X_Wifi_BLE_SDK/GD32VW55x_RELEASE_V1.0.2/MSDK/cloud/alicloud/src/services/linkkit/dm\dm_message.c ****             memset(&lite_item_pk, 0, sizeof(lite_cjson_t));
1605:C:/Users/stapi/OneDrive/Desktop/GD32VW553/V1_MQTT_OK/GD32VW55X_Wifi_BLE_SDK/GD32VW55x_RELEASE_V1.0.2/MSDK/cloud/alicloud/src/services/linkkit/dm\dm_message.c ****             memset(&lite_item_dn, 0, sizeof(lite_cjson_t));
1606:C:/Users/stapi/OneDrive/Desktop/GD32VW553/V1_MQTT_OK/GD32VW55X_Wifi_BLE_SDK/GD32VW55x_RELEASE_V1.0.2/MSDK/cloud/alicloud/src/services/linkkit/dm\dm_message.c ****             memset(product_key, 0, PRODUCT_KEY_MAXLEN);
1607:C:/Users/stapi/OneDrive/Desktop/GD32VW553/V1_MQTT_OK/GD32VW55X_Wifi_BLE_SDK/GD32VW55x_RELEASE_V1.0.2/MSDK/cloud/alicloud/src/services/linkkit/dm\dm_message.c ****             memset(device_name, 0, DEVICE_NAME_MAXLEN);
1608:C:/Users/stapi/OneDrive/Desktop/GD32VW553/V1_MQTT_OK/GD32VW55X_Wifi_BLE_SDK/GD32VW55x_RELEASE_V1.0.2/MSDK/cloud/alicloud/src/services/linkkit/dm\dm_message.c **** 
1609:C:/Users/stapi/OneDrive/Desktop/GD32VW553/V1_MQTT_OK/GD32VW55X_Wifi_BLE_SDK/GD32VW55x_RELEASE_V1.0.2/MSDK/cloud/alicloud/src/services/linkkit/dm\dm_message.c ****             res = lite_cjson_array_item(&lite, index, &lite_item);
1610:C:/Users/stapi/OneDrive/Desktop/GD32VW553/V1_MQTT_OK/GD32VW55X_Wifi_BLE_SDK/GD32VW55x_RELEASE_V1.0.2/MSDK/cloud/alicloud/src/services/linkkit/dm\dm_message.c ****             if (res != SUCCESS_RETURN) {
1611:C:/Users/stapi/OneDrive/Desktop/GD32VW553/V1_MQTT_OK/GD32VW55X_Wifi_BLE_SDK/GD32VW55x_RELEASE_V1.0.2/MSDK/cloud/alicloud/src/services/linkkit/dm\dm_message.c ****                 continue;
1612:C:/Users/stapi/OneDrive/Desktop/GD32VW553/V1_MQTT_OK/GD32VW55X_Wifi_BLE_SDK/GD32VW55x_RELEASE_V1.0.2/MSDK/cloud/alicloud/src/services/linkkit/dm\dm_message.c ****             }
1613:C:/Users/stapi/OneDrive/Desktop/GD32VW553/V1_MQTT_OK/GD32VW55X_Wifi_BLE_SDK/GD32VW55x_RELEASE_V1.0.2/MSDK/cloud/alicloud/src/services/linkkit/dm\dm_message.c **** 
1614:C:/Users/stapi/OneDrive/Desktop/GD32VW553/V1_MQTT_OK/GD32VW55X_Wifi_BLE_SDK/GD32VW55x_RELEASE_V1.0.2/MSDK/cloud/alicloud/src/services/linkkit/dm\dm_message.c ****             res = lite_cjson_object_item(&lite_item, DM_MSG_KEY_PRODUCT_KEY, strlen(DM_MSG_KEY_PROD
1615:C:/Users/stapi/OneDrive/Desktop/GD32VW553/V1_MQTT_OK/GD32VW55X_Wifi_BLE_SDK/GD32VW55x_RELEASE_V1.0.2/MSDK/cloud/alicloud/src/services/linkkit/dm\dm_message.c ****             if (res != SUCCESS_RETURN) {
1616:C:/Users/stapi/OneDrive/Desktop/GD32VW553/V1_MQTT_OK/GD32VW55X_Wifi_BLE_SDK/GD32VW55x_RELEASE_V1.0.2/MSDK/cloud/alicloud/src/services/linkkit/dm\dm_message.c ****                 continue;
1617:C:/Users/stapi/OneDrive/Desktop/GD32VW553/V1_MQTT_OK/GD32VW55X_Wifi_BLE_SDK/GD32VW55x_RELEASE_V1.0.2/MSDK/cloud/alicloud/src/services/linkkit/dm\dm_message.c ****             }
1618:C:/Users/stapi/OneDrive/Desktop/GD32VW553/V1_MQTT_OK/GD32VW55X_Wifi_BLE_SDK/GD32VW55x_RELEASE_V1.0.2/MSDK/cloud/alicloud/src/services/linkkit/dm\dm_message.c **** 
1619:C:/Users/stapi/OneDrive/Desktop/GD32VW553/V1_MQTT_OK/GD32VW55X_Wifi_BLE_SDK/GD32VW55x_RELEASE_V1.0.2/MSDK/cloud/alicloud/src/services/linkkit/dm\dm_message.c ****             memcpy(product_key, lite_item_pk.value, lite_item_pk.value_length);
1620:C:/Users/stapi/OneDrive/Desktop/GD32VW553/V1_MQTT_OK/GD32VW55X_Wifi_BLE_SDK/GD32VW55x_RELEASE_V1.0.2/MSDK/cloud/alicloud/src/services/linkkit/dm\dm_message.c **** 
1621:C:/Users/stapi/OneDrive/Desktop/GD32VW553/V1_MQTT_OK/GD32VW55X_Wifi_BLE_SDK/GD32VW55x_RELEASE_V1.0.2/MSDK/cloud/alicloud/src/services/linkkit/dm\dm_message.c ****             res = lite_cjson_object_item(&lite_item, DM_MSG_KEY_DEVICE_NAME, strlen(DM_MSG_KEY_DEVI
1622:C:/Users/stapi/OneDrive/Desktop/GD32VW553/V1_MQTT_OK/GD32VW55X_Wifi_BLE_SDK/GD32VW55x_RELEASE_V1.0.2/MSDK/cloud/alicloud/src/services/linkkit/dm\dm_message.c ****             if (res != SUCCESS_RETURN) {
1623:C:/Users/stapi/OneDrive/Desktop/GD32VW553/V1_MQTT_OK/GD32VW55X_Wifi_BLE_SDK/GD32VW55x_RELEASE_V1.0.2/MSDK/cloud/alicloud/src/services/linkkit/dm\dm_message.c ****                 continue;
1624:C:/Users/stapi/OneDrive/Desktop/GD32VW553/V1_MQTT_OK/GD32VW55X_Wifi_BLE_SDK/GD32VW55x_RELEASE_V1.0.2/MSDK/cloud/alicloud/src/services/linkkit/dm\dm_message.c ****             }
1625:C:/Users/stapi/OneDrive/Desktop/GD32VW553/V1_MQTT_OK/GD32VW55X_Wifi_BLE_SDK/GD32VW55x_RELEASE_V1.0.2/MSDK/cloud/alicloud/src/services/linkkit/dm\dm_message.c **** 
1626:C:/Users/stapi/OneDrive/Desktop/GD32VW553/V1_MQTT_OK/GD32VW55X_Wifi_BLE_SDK/GD32VW55x_RELEASE_V1.0.2/MSDK/cloud/alicloud/src/services/linkkit/dm\dm_message.c ****             memcpy(device_name, lite_item_dn.value, lite_item_dn.value_length);
1627:C:/Users/stapi/OneDrive/Desktop/GD32VW553/V1_MQTT_OK/GD32VW55X_Wifi_BLE_SDK/GD32VW55x_RELEASE_V1.0.2/MSDK/cloud/alicloud/src/services/linkkit/dm\dm_message.c **** 
1628:C:/Users/stapi/OneDrive/Desktop/GD32VW553/V1_MQTT_OK/GD32VW55X_Wifi_BLE_SDK/GD32VW55x_RELEASE_V1.0.2/MSDK/cloud/alicloud/src/services/linkkit/dm\dm_message.c ****             /* Get Device Id */
1629:C:/Users/stapi/OneDrive/Desktop/GD32VW553/V1_MQTT_OK/GD32VW55X_Wifi_BLE_SDK/GD32VW55x_RELEASE_V1.0.2/MSDK/cloud/alicloud/src/services/linkkit/dm\dm_message.c ****             res = dm_mgr_search_device_by_pkdn(product_key, device_name, &devid);
1630:C:/Users/stapi/OneDrive/Desktop/GD32VW553/V1_MQTT_OK/GD32VW55X_Wifi_BLE_SDK/GD32VW55x_RELEASE_V1.0.2/MSDK/cloud/alicloud/src/services/linkkit/dm\dm_message.c ****             if (res != SUCCESS_RETURN) {
1631:C:/Users/stapi/OneDrive/Desktop/GD32VW553/V1_MQTT_OK/GD32VW55X_Wifi_BLE_SDK/GD32VW55x_RELEASE_V1.0.2/MSDK/cloud/alicloud/src/services/linkkit/dm\dm_message.c ****                 continue;
1632:C:/Users/stapi/OneDrive/Desktop/GD32VW553/V1_MQTT_OK/GD32VW55X_Wifi_BLE_SDK/GD32VW55x_RELEASE_V1.0.2/MSDK/cloud/alicloud/src/services/linkkit/dm\dm_message.c ****             }
1633:C:/Users/stapi/OneDrive/Desktop/GD32VW553/V1_MQTT_OK/GD32VW55X_Wifi_BLE_SDK/GD32VW55x_RELEASE_V1.0.2/MSDK/cloud/alicloud/src/services/linkkit/dm\dm_message.c **** 
1634:C:/Users/stapi/OneDrive/Desktop/GD32VW553/V1_MQTT_OK/GD32VW55X_Wifi_BLE_SDK/GD32VW55x_RELEASE_V1.0.2/MSDK/cloud/alicloud/src/services/linkkit/dm\dm_message.c ****             if (devid > 0) {
1635:C:/Users/stapi/OneDrive/Desktop/GD32VW553/V1_MQTT_OK/GD32VW55X_Wifi_BLE_SDK/GD32VW55x_RELEASE_V1.0.2/MSDK/cloud/alicloud/src/services/linkkit/dm\dm_message.c ****                 dm_mgr_set_dev_status(devid, IOTX_DM_DEV_STATUS_LOGINED);
1636:C:/Users/stapi/OneDrive/Desktop/GD32VW553/V1_MQTT_OK/GD32VW55X_Wifi_BLE_SDK/GD32VW55x_RELEASE_V1.0.2/MSDK/cloud/alicloud/src/services/linkkit/dm\dm_message.c ****             }
1637:C:/Users/stapi/OneDrive/Desktop/GD32VW553/V1_MQTT_OK/GD32VW55X_Wifi_BLE_SDK/GD32VW55x_RELEASE_V1.0.2/MSDK/cloud/alicloud/src/services/linkkit/dm\dm_message.c ****         }
1638:C:/Users/stapi/OneDrive/Desktop/GD32VW553/V1_MQTT_OK/GD32VW55X_Wifi_BLE_SDK/GD32VW55x_RELEASE_V1.0.2/MSDK/cloud/alicloud/src/services/linkkit/dm\dm_message.c ****     }
1639:C:/Users/stapi/OneDrive/Desktop/GD32VW553/V1_MQTT_OK/GD32VW55X_Wifi_BLE_SDK/GD32VW55x_RELEASE_V1.0.2/MSDK/cloud/alicloud/src/services/linkkit/dm\dm_message.c **** 
1640:C:/Users/stapi/OneDrive/Desktop/GD32VW553/V1_MQTT_OK/GD32VW55X_Wifi_BLE_SDK/GD32VW55x_RELEASE_V1.0.2/MSDK/cloud/alicloud/src/services/linkkit/dm\dm_message.c ****     /* Message ID */
1641:C:/Users/stapi/OneDrive/Desktop/GD32VW553/V1_MQTT_OK/GD32VW55X_Wifi_BLE_SDK/GD32VW55x_RELEASE_V1.0.2/MSDK/cloud/alicloud/src/services/linkkit/dm\dm_message.c ****     memcpy(temp_id, response->id.value, response->id.value_length);
1642:C:/Users/stapi/OneDrive/Desktop/GD32VW553/V1_MQTT_OK/GD32VW55X_Wifi_BLE_SDK/GD32VW55x_RELEASE_V1.0.2/MSDK/cloud/alicloud/src/services/linkkit/dm\dm_message.c **** 
1643:C:/Users/stapi/OneDrive/Desktop/GD32VW553/V1_MQTT_OK/GD32VW55X_Wifi_BLE_SDK/GD32VW55x_RELEASE_V1.0.2/MSDK/cloud/alicloud/src/services/linkkit/dm\dm_message.c ****     payload = DM_malloc(response->data.value_length + 1);
1644:C:/Users/stapi/OneDrive/Desktop/GD32VW553/V1_MQTT_OK/GD32VW55X_Wifi_BLE_SDK/GD32VW55x_RELEASE_V1.0.2/MSDK/cloud/alicloud/src/services/linkkit/dm\dm_message.c ****     if (payload == NULL) {
1645:C:/Users/stapi/OneDrive/Desktop/GD32VW553/V1_MQTT_OK/GD32VW55X_Wifi_BLE_SDK/GD32VW55x_RELEASE_V1.0.2/MSDK/cloud/alicloud/src/services/linkkit/dm\dm_message.c ****         return DM_MEMORY_NOT_ENOUGH;
1646:C:/Users/stapi/OneDrive/Desktop/GD32VW553/V1_MQTT_OK/GD32VW55X_Wifi_BLE_SDK/GD32VW55x_RELEASE_V1.0.2/MSDK/cloud/alicloud/src/services/linkkit/dm\dm_message.c ****     }
1647:C:/Users/stapi/OneDrive/Desktop/GD32VW553/V1_MQTT_OK/GD32VW55X_Wifi_BLE_SDK/GD32VW55x_RELEASE_V1.0.2/MSDK/cloud/alicloud/src/services/linkkit/dm\dm_message.c **** 
1648:C:/Users/stapi/OneDrive/Desktop/GD32VW553/V1_MQTT_OK/GD32VW55X_Wifi_BLE_SDK/GD32VW55x_RELEASE_V1.0.2/MSDK/cloud/alicloud/src/services/linkkit/dm\dm_message.c ****     message_len = response->data.value_length + strlen(DM_MSG_EVENT_COMBINE_BATCH_LOGIN_REPLY_FMT) 
1649:C:/Users/stapi/OneDrive/Desktop/GD32VW553/V1_MQTT_OK/GD32VW55X_Wifi_BLE_SDK/GD32VW55x_RELEASE_V1.0.2/MSDK/cloud/alicloud/src/services/linkkit/dm\dm_message.c ****     message = DM_malloc(message_len);
1650:C:/Users/stapi/OneDrive/Desktop/GD32VW553/V1_MQTT_OK/GD32VW55X_Wifi_BLE_SDK/GD32VW55x_RELEASE_V1.0.2/MSDK/cloud/alicloud/src/services/linkkit/dm\dm_message.c ****     if (message == NULL) {
1651:C:/Users/stapi/OneDrive/Desktop/GD32VW553/V1_MQTT_OK/GD32VW55X_Wifi_BLE_SDK/GD32VW55x_RELEASE_V1.0.2/MSDK/cloud/alicloud/src/services/linkkit/dm\dm_message.c ****         DM_free(payload);
1652:C:/Users/stapi/OneDrive/Desktop/GD32VW553/V1_MQTT_OK/GD32VW55X_Wifi_BLE_SDK/GD32VW55x_RELEASE_V1.0.2/MSDK/cloud/alicloud/src/services/linkkit/dm\dm_message.c ****         return DM_MEMORY_NOT_ENOUGH;
1653:C:/Users/stapi/OneDrive/Desktop/GD32VW553/V1_MQTT_OK/GD32VW55X_Wifi_BLE_SDK/GD32VW55x_RELEASE_V1.0.2/MSDK/cloud/alicloud/src/services/linkkit/dm\dm_message.c ****     }
1654:C:/Users/stapi/OneDrive/Desktop/GD32VW553/V1_MQTT_OK/GD32VW55X_Wifi_BLE_SDK/GD32VW55x_RELEASE_V1.0.2/MSDK/cloud/alicloud/src/services/linkkit/dm\dm_message.c ****     memset(message, 0, message_len);
1655:C:/Users/stapi/OneDrive/Desktop/GD32VW553/V1_MQTT_OK/GD32VW55X_Wifi_BLE_SDK/GD32VW55x_RELEASE_V1.0.2/MSDK/cloud/alicloud/src/services/linkkit/dm\dm_message.c ****     memset(payload, 0, response->data.value_length + 1);
1656:C:/Users/stapi/OneDrive/Desktop/GD32VW553/V1_MQTT_OK/GD32VW55X_Wifi_BLE_SDK/GD32VW55x_RELEASE_V1.0.2/MSDK/cloud/alicloud/src/services/linkkit/dm\dm_message.c ****     memcpy(payload, response->data.value, response->data.value_length);
1657:C:/Users/stapi/OneDrive/Desktop/GD32VW553/V1_MQTT_OK/GD32VW55X_Wifi_BLE_SDK/GD32VW55x_RELEASE_V1.0.2/MSDK/cloud/alicloud/src/services/linkkit/dm\dm_message.c ****     HAL_Snprintf(message, message_len, DM_MSG_EVENT_COMBINE_BATCH_LOGIN_REPLY_FMT, atoi(temp_id), r
1658:C:/Users/stapi/OneDrive/Desktop/GD32VW553/V1_MQTT_OK/GD32VW55X_Wifi_BLE_SDK/GD32VW55x_RELEASE_V1.0.2/MSDK/cloud/alicloud/src/services/linkkit/dm\dm_message.c ****     DM_free(payload);
1659:C:/Users/stapi/OneDrive/Desktop/GD32VW553/V1_MQTT_OK/GD32VW55X_Wifi_BLE_SDK/GD32VW55x_RELEASE_V1.0.2/MSDK/cloud/alicloud/src/services/linkkit/dm\dm_message.c **** 
1660:C:/Users/stapi/OneDrive/Desktop/GD32VW553/V1_MQTT_OK/GD32VW55X_Wifi_BLE_SDK/GD32VW55x_RELEASE_V1.0.2/MSDK/cloud/alicloud/src/services/linkkit/dm\dm_message.c ****     res = _dm_msg_send_to_user(IOTX_DM_EVENT_COMBINE_BATCH_LOGIN_REPLY, message);
1661:C:/Users/stapi/OneDrive/Desktop/GD32VW553/V1_MQTT_OK/GD32VW55X_Wifi_BLE_SDK/GD32VW55x_RELEASE_V1.0.2/MSDK/cloud/alicloud/src/services/linkkit/dm\dm_message.c ****     if (res != SUCCESS_RETURN) {
1662:C:/Users/stapi/OneDrive/Desktop/GD32VW553/V1_MQTT_OK/GD32VW55X_Wifi_BLE_SDK/GD32VW55x_RELEASE_V1.0.2/MSDK/cloud/alicloud/src/services/linkkit/dm\dm_message.c ****         DM_free(message);
1663:C:/Users/stapi/OneDrive/Desktop/GD32VW553/V1_MQTT_OK/GD32VW55X_Wifi_BLE_SDK/GD32VW55x_RELEASE_V1.0.2/MSDK/cloud/alicloud/src/services/linkkit/dm\dm_message.c ****         return FAIL_RETURN;
1664:C:/Users/stapi/OneDrive/Desktop/GD32VW553/V1_MQTT_OK/GD32VW55X_Wifi_BLE_SDK/GD32VW55x_RELEASE_V1.0.2/MSDK/cloud/alicloud/src/services/linkkit/dm\dm_message.c ****     }
1665:C:/Users/stapi/OneDrive/Desktop/GD32VW553/V1_MQTT_OK/GD32VW55X_Wifi_BLE_SDK/GD32VW55x_RELEASE_V1.0.2/MSDK/cloud/alicloud/src/services/linkkit/dm\dm_message.c **** 
1666:C:/Users/stapi/OneDrive/Desktop/GD32VW553/V1_MQTT_OK/GD32VW55X_Wifi_BLE_SDK/GD32VW55x_RELEASE_V1.0.2/MSDK/cloud/alicloud/src/services/linkkit/dm\dm_message.c ****     if (response->code.value_int != IOTX_DM_ERR_CODE_SUCCESS) {
1667:C:/Users/stapi/OneDrive/Desktop/GD32VW553/V1_MQTT_OK/GD32VW55X_Wifi_BLE_SDK/GD32VW55x_RELEASE_V1.0.2/MSDK/cloud/alicloud/src/services/linkkit/dm\dm_message.c ****         return FAIL_RETURN;
1668:C:/Users/stapi/OneDrive/Desktop/GD32VW553/V1_MQTT_OK/GD32VW55X_Wifi_BLE_SDK/GD32VW55x_RELEASE_V1.0.2/MSDK/cloud/alicloud/src/services/linkkit/dm\dm_message.c ****     }
1669:C:/Users/stapi/OneDrive/Desktop/GD32VW553/V1_MQTT_OK/GD32VW55X_Wifi_BLE_SDK/GD32VW55x_RELEASE_V1.0.2/MSDK/cloud/alicloud/src/services/linkkit/dm\dm_message.c **** 
1670:C:/Users/stapi/OneDrive/Desktop/GD32VW553/V1_MQTT_OK/GD32VW55X_Wifi_BLE_SDK/GD32VW55x_RELEASE_V1.0.2/MSDK/cloud/alicloud/src/services/linkkit/dm\dm_message.c ****     return SUCCESS_RETURN;
1671:C:/Users/stapi/OneDrive/Desktop/GD32VW553/V1_MQTT_OK/GD32VW55X_Wifi_BLE_SDK/GD32VW55x_RELEASE_V1.0.2/MSDK/cloud/alicloud/src/services/linkkit/dm\dm_message.c **** }
1672:C:/Users/stapi/OneDrive/Desktop/GD32VW553/V1_MQTT_OK/GD32VW55X_Wifi_BLE_SDK/GD32VW55x_RELEASE_V1.0.2/MSDK/cloud/alicloud/src/services/linkkit/dm\dm_message.c **** 
1673:C:/Users/stapi/OneDrive/Desktop/GD32VW553/V1_MQTT_OK/GD32VW55X_Wifi_BLE_SDK/GD32VW55x_RELEASE_V1.0.2/MSDK/cloud/alicloud/src/services/linkkit/dm\dm_message.c **** const char DM_MSG_EVENT_COMBINE_BATCH_LOGOUT_REPLY_FMT[] DM_READ_ONLY = "{\"id\":%d,\"code\":%d,\"d
1674:C:/Users/stapi/OneDrive/Desktop/GD32VW553/V1_MQTT_OK/GD32VW55X_Wifi_BLE_SDK/GD32VW55x_RELEASE_V1.0.2/MSDK/cloud/alicloud/src/services/linkkit/dm\dm_message.c **** int dm_msg_combine_batch_logout_reply(dm_msg_response_payload_t *response)
1675:C:/Users/stapi/OneDrive/Desktop/GD32VW553/V1_MQTT_OK/GD32VW55X_Wifi_BLE_SDK/GD32VW55x_RELEASE_V1.0.2/MSDK/cloud/alicloud/src/services/linkkit/dm\dm_message.c **** {
1676:C:/Users/stapi/OneDrive/Desktop/GD32VW553/V1_MQTT_OK/GD32VW55X_Wifi_BLE_SDK/GD32VW55x_RELEASE_V1.0.2/MSDK/cloud/alicloud/src/services/linkkit/dm\dm_message.c ****     int res = 0, message_len = 0, devid = 0, index = 0;
1677:C:/Users/stapi/OneDrive/Desktop/GD32VW553/V1_MQTT_OK/GD32VW55X_Wifi_BLE_SDK/GD32VW55x_RELEASE_V1.0.2/MSDK/cloud/alicloud/src/services/linkkit/dm\dm_message.c ****     char *message = NULL, *payload = NULL;
1678:C:/Users/stapi/OneDrive/Desktop/GD32VW553/V1_MQTT_OK/GD32VW55X_Wifi_BLE_SDK/GD32VW55x_RELEASE_V1.0.2/MSDK/cloud/alicloud/src/services/linkkit/dm\dm_message.c ****     lite_cjson_t lite, lite_item, lite_item_pk, lite_item_dn;
1679:C:/Users/stapi/OneDrive/Desktop/GD32VW553/V1_MQTT_OK/GD32VW55X_Wifi_BLE_SDK/GD32VW55x_RELEASE_V1.0.2/MSDK/cloud/alicloud/src/services/linkkit/dm\dm_message.c ****     char product_key[PRODUCT_KEY_MAXLEN] = {0};
1680:C:/Users/stapi/OneDrive/Desktop/GD32VW553/V1_MQTT_OK/GD32VW55X_Wifi_BLE_SDK/GD32VW55x_RELEASE_V1.0.2/MSDK/cloud/alicloud/src/services/linkkit/dm\dm_message.c ****     char device_name[DEVICE_NAME_MAXLEN] = {0};
1681:C:/Users/stapi/OneDrive/Desktop/GD32VW553/V1_MQTT_OK/GD32VW55X_Wifi_BLE_SDK/GD32VW55x_RELEASE_V1.0.2/MSDK/cloud/alicloud/src/services/linkkit/dm\dm_message.c ****     char temp_id[DM_UTILS_UINT32_STRLEN+1] = {0};
1682:C:/Users/stapi/OneDrive/Desktop/GD32VW553/V1_MQTT_OK/GD32VW55X_Wifi_BLE_SDK/GD32VW55x_RELEASE_V1.0.2/MSDK/cloud/alicloud/src/services/linkkit/dm\dm_message.c **** 
1683:C:/Users/stapi/OneDrive/Desktop/GD32VW553/V1_MQTT_OK/GD32VW55X_Wifi_BLE_SDK/GD32VW55x_RELEASE_V1.0.2/MSDK/cloud/alicloud/src/services/linkkit/dm\dm_message.c ****     if (response == NULL) {
1684:C:/Users/stapi/OneDrive/Desktop/GD32VW553/V1_MQTT_OK/GD32VW55X_Wifi_BLE_SDK/GD32VW55x_RELEASE_V1.0.2/MSDK/cloud/alicloud/src/services/linkkit/dm\dm_message.c ****         return DM_MEMORY_NOT_ENOUGH;
1685:C:/Users/stapi/OneDrive/Desktop/GD32VW553/V1_MQTT_OK/GD32VW55X_Wifi_BLE_SDK/GD32VW55x_RELEASE_V1.0.2/MSDK/cloud/alicloud/src/services/linkkit/dm\dm_message.c ****     }
1686:C:/Users/stapi/OneDrive/Desktop/GD32VW553/V1_MQTT_OK/GD32VW55X_Wifi_BLE_SDK/GD32VW55x_RELEASE_V1.0.2/MSDK/cloud/alicloud/src/services/linkkit/dm\dm_message.c **** 
1687:C:/Users/stapi/OneDrive/Desktop/GD32VW553/V1_MQTT_OK/GD32VW55X_Wifi_BLE_SDK/GD32VW55x_RELEASE_V1.0.2/MSDK/cloud/alicloud/src/services/linkkit/dm\dm_message.c ****     if (response->code.value_int == IOTX_DM_ERR_CODE_SUCCESS)
1688:C:/Users/stapi/OneDrive/Desktop/GD32VW553/V1_MQTT_OK/GD32VW55X_Wifi_BLE_SDK/GD32VW55x_RELEASE_V1.0.2/MSDK/cloud/alicloud/src/services/linkkit/dm\dm_message.c ****     {
1689:C:/Users/stapi/OneDrive/Desktop/GD32VW553/V1_MQTT_OK/GD32VW55X_Wifi_BLE_SDK/GD32VW55x_RELEASE_V1.0.2/MSDK/cloud/alicloud/src/services/linkkit/dm\dm_message.c ****         memset(&lite, 0, sizeof(lite_cjson_t));
1690:C:/Users/stapi/OneDrive/Desktop/GD32VW553/V1_MQTT_OK/GD32VW55X_Wifi_BLE_SDK/GD32VW55x_RELEASE_V1.0.2/MSDK/cloud/alicloud/src/services/linkkit/dm\dm_message.c ****         res = lite_cjson_parse(response->data.value, response->data.value_length, &lite);
1691:C:/Users/stapi/OneDrive/Desktop/GD32VW553/V1_MQTT_OK/GD32VW55X_Wifi_BLE_SDK/GD32VW55x_RELEASE_V1.0.2/MSDK/cloud/alicloud/src/services/linkkit/dm\dm_message.c ****         if (res != SUCCESS_RETURN || !lite_cjson_is_array(&lite)) {
1692:C:/Users/stapi/OneDrive/Desktop/GD32VW553/V1_MQTT_OK/GD32VW55X_Wifi_BLE_SDK/GD32VW55x_RELEASE_V1.0.2/MSDK/cloud/alicloud/src/services/linkkit/dm\dm_message.c ****             return DM_JSON_PARSE_FAILED;
1693:C:/Users/stapi/OneDrive/Desktop/GD32VW553/V1_MQTT_OK/GD32VW55X_Wifi_BLE_SDK/GD32VW55x_RELEASE_V1.0.2/MSDK/cloud/alicloud/src/services/linkkit/dm\dm_message.c ****         }
1694:C:/Users/stapi/OneDrive/Desktop/GD32VW553/V1_MQTT_OK/GD32VW55X_Wifi_BLE_SDK/GD32VW55x_RELEASE_V1.0.2/MSDK/cloud/alicloud/src/services/linkkit/dm\dm_message.c **** 
1695:C:/Users/stapi/OneDrive/Desktop/GD32VW553/V1_MQTT_OK/GD32VW55X_Wifi_BLE_SDK/GD32VW55x_RELEASE_V1.0.2/MSDK/cloud/alicloud/src/services/linkkit/dm\dm_message.c ****         for (index = 0; index < lite.size; index++) {
1696:C:/Users/stapi/OneDrive/Desktop/GD32VW553/V1_MQTT_OK/GD32VW55X_Wifi_BLE_SDK/GD32VW55x_RELEASE_V1.0.2/MSDK/cloud/alicloud/src/services/linkkit/dm\dm_message.c ****             devid = -1;
1697:C:/Users/stapi/OneDrive/Desktop/GD32VW553/V1_MQTT_OK/GD32VW55X_Wifi_BLE_SDK/GD32VW55x_RELEASE_V1.0.2/MSDK/cloud/alicloud/src/services/linkkit/dm\dm_message.c **** 
1698:C:/Users/stapi/OneDrive/Desktop/GD32VW553/V1_MQTT_OK/GD32VW55X_Wifi_BLE_SDK/GD32VW55x_RELEASE_V1.0.2/MSDK/cloud/alicloud/src/services/linkkit/dm\dm_message.c ****             memset(&lite_item, 0, sizeof(lite_cjson_t));
1699:C:/Users/stapi/OneDrive/Desktop/GD32VW553/V1_MQTT_OK/GD32VW55X_Wifi_BLE_SDK/GD32VW55x_RELEASE_V1.0.2/MSDK/cloud/alicloud/src/services/linkkit/dm\dm_message.c ****             memset(&lite_item_pk, 0, sizeof(lite_cjson_t));
1700:C:/Users/stapi/OneDrive/Desktop/GD32VW553/V1_MQTT_OK/GD32VW55X_Wifi_BLE_SDK/GD32VW55x_RELEASE_V1.0.2/MSDK/cloud/alicloud/src/services/linkkit/dm\dm_message.c ****             memset(&lite_item_dn, 0, sizeof(lite_cjson_t));
1701:C:/Users/stapi/OneDrive/Desktop/GD32VW553/V1_MQTT_OK/GD32VW55X_Wifi_BLE_SDK/GD32VW55x_RELEASE_V1.0.2/MSDK/cloud/alicloud/src/services/linkkit/dm\dm_message.c ****             memset(product_key, 0, PRODUCT_KEY_MAXLEN);
1702:C:/Users/stapi/OneDrive/Desktop/GD32VW553/V1_MQTT_OK/GD32VW55X_Wifi_BLE_SDK/GD32VW55x_RELEASE_V1.0.2/MSDK/cloud/alicloud/src/services/linkkit/dm\dm_message.c ****             memset(device_name, 0, DEVICE_NAME_MAXLEN);
1703:C:/Users/stapi/OneDrive/Desktop/GD32VW553/V1_MQTT_OK/GD32VW55X_Wifi_BLE_SDK/GD32VW55x_RELEASE_V1.0.2/MSDK/cloud/alicloud/src/services/linkkit/dm\dm_message.c **** 
1704:C:/Users/stapi/OneDrive/Desktop/GD32VW553/V1_MQTT_OK/GD32VW55X_Wifi_BLE_SDK/GD32VW55x_RELEASE_V1.0.2/MSDK/cloud/alicloud/src/services/linkkit/dm\dm_message.c ****             res = lite_cjson_array_item(&lite, index, &lite_item);
1705:C:/Users/stapi/OneDrive/Desktop/GD32VW553/V1_MQTT_OK/GD32VW55X_Wifi_BLE_SDK/GD32VW55x_RELEASE_V1.0.2/MSDK/cloud/alicloud/src/services/linkkit/dm\dm_message.c ****             if (res != SUCCESS_RETURN) {
1706:C:/Users/stapi/OneDrive/Desktop/GD32VW553/V1_MQTT_OK/GD32VW55X_Wifi_BLE_SDK/GD32VW55x_RELEASE_V1.0.2/MSDK/cloud/alicloud/src/services/linkkit/dm\dm_message.c ****                 continue;
1707:C:/Users/stapi/OneDrive/Desktop/GD32VW553/V1_MQTT_OK/GD32VW55X_Wifi_BLE_SDK/GD32VW55x_RELEASE_V1.0.2/MSDK/cloud/alicloud/src/services/linkkit/dm\dm_message.c ****             }
1708:C:/Users/stapi/OneDrive/Desktop/GD32VW553/V1_MQTT_OK/GD32VW55X_Wifi_BLE_SDK/GD32VW55x_RELEASE_V1.0.2/MSDK/cloud/alicloud/src/services/linkkit/dm\dm_message.c **** 
1709:C:/Users/stapi/OneDrive/Desktop/GD32VW553/V1_MQTT_OK/GD32VW55X_Wifi_BLE_SDK/GD32VW55x_RELEASE_V1.0.2/MSDK/cloud/alicloud/src/services/linkkit/dm\dm_message.c ****             res = lite_cjson_object_item(&lite_item, DM_MSG_KEY_PRODUCT_KEY, strlen(DM_MSG_KEY_PROD
1710:C:/Users/stapi/OneDrive/Desktop/GD32VW553/V1_MQTT_OK/GD32VW55X_Wifi_BLE_SDK/GD32VW55x_RELEASE_V1.0.2/MSDK/cloud/alicloud/src/services/linkkit/dm\dm_message.c ****             if (res != SUCCESS_RETURN) {
1711:C:/Users/stapi/OneDrive/Desktop/GD32VW553/V1_MQTT_OK/GD32VW55X_Wifi_BLE_SDK/GD32VW55x_RELEASE_V1.0.2/MSDK/cloud/alicloud/src/services/linkkit/dm\dm_message.c ****                 continue;
1712:C:/Users/stapi/OneDrive/Desktop/GD32VW553/V1_MQTT_OK/GD32VW55X_Wifi_BLE_SDK/GD32VW55x_RELEASE_V1.0.2/MSDK/cloud/alicloud/src/services/linkkit/dm\dm_message.c ****             }
1713:C:/Users/stapi/OneDrive/Desktop/GD32VW553/V1_MQTT_OK/GD32VW55X_Wifi_BLE_SDK/GD32VW55x_RELEASE_V1.0.2/MSDK/cloud/alicloud/src/services/linkkit/dm\dm_message.c **** 
1714:C:/Users/stapi/OneDrive/Desktop/GD32VW553/V1_MQTT_OK/GD32VW55X_Wifi_BLE_SDK/GD32VW55x_RELEASE_V1.0.2/MSDK/cloud/alicloud/src/services/linkkit/dm\dm_message.c ****             memcpy(product_key, lite_item_pk.value, lite_item_pk.value_length);
1715:C:/Users/stapi/OneDrive/Desktop/GD32VW553/V1_MQTT_OK/GD32VW55X_Wifi_BLE_SDK/GD32VW55x_RELEASE_V1.0.2/MSDK/cloud/alicloud/src/services/linkkit/dm\dm_message.c **** 
1716:C:/Users/stapi/OneDrive/Desktop/GD32VW553/V1_MQTT_OK/GD32VW55X_Wifi_BLE_SDK/GD32VW55x_RELEASE_V1.0.2/MSDK/cloud/alicloud/src/services/linkkit/dm\dm_message.c ****             res = lite_cjson_object_item(&lite_item, DM_MSG_KEY_DEVICE_NAME, strlen(DM_MSG_KEY_DEVI
1717:C:/Users/stapi/OneDrive/Desktop/GD32VW553/V1_MQTT_OK/GD32VW55X_Wifi_BLE_SDK/GD32VW55x_RELEASE_V1.0.2/MSDK/cloud/alicloud/src/services/linkkit/dm\dm_message.c ****             if (res != SUCCESS_RETURN) {
1718:C:/Users/stapi/OneDrive/Desktop/GD32VW553/V1_MQTT_OK/GD32VW55X_Wifi_BLE_SDK/GD32VW55x_RELEASE_V1.0.2/MSDK/cloud/alicloud/src/services/linkkit/dm\dm_message.c ****                 continue;
1719:C:/Users/stapi/OneDrive/Desktop/GD32VW553/V1_MQTT_OK/GD32VW55X_Wifi_BLE_SDK/GD32VW55x_RELEASE_V1.0.2/MSDK/cloud/alicloud/src/services/linkkit/dm\dm_message.c ****             }
1720:C:/Users/stapi/OneDrive/Desktop/GD32VW553/V1_MQTT_OK/GD32VW55X_Wifi_BLE_SDK/GD32VW55x_RELEASE_V1.0.2/MSDK/cloud/alicloud/src/services/linkkit/dm\dm_message.c **** 
1721:C:/Users/stapi/OneDrive/Desktop/GD32VW553/V1_MQTT_OK/GD32VW55X_Wifi_BLE_SDK/GD32VW55x_RELEASE_V1.0.2/MSDK/cloud/alicloud/src/services/linkkit/dm\dm_message.c ****             memcpy(device_name, lite_item_dn.value, lite_item_dn.value_length);
1722:C:/Users/stapi/OneDrive/Desktop/GD32VW553/V1_MQTT_OK/GD32VW55X_Wifi_BLE_SDK/GD32VW55x_RELEASE_V1.0.2/MSDK/cloud/alicloud/src/services/linkkit/dm\dm_message.c **** 
1723:C:/Users/stapi/OneDrive/Desktop/GD32VW553/V1_MQTT_OK/GD32VW55X_Wifi_BLE_SDK/GD32VW55x_RELEASE_V1.0.2/MSDK/cloud/alicloud/src/services/linkkit/dm\dm_message.c ****             /* Get Device Id */
1724:C:/Users/stapi/OneDrive/Desktop/GD32VW553/V1_MQTT_OK/GD32VW55X_Wifi_BLE_SDK/GD32VW55x_RELEASE_V1.0.2/MSDK/cloud/alicloud/src/services/linkkit/dm\dm_message.c ****             res = dm_mgr_search_device_by_pkdn(product_key, device_name, &devid);
1725:C:/Users/stapi/OneDrive/Desktop/GD32VW553/V1_MQTT_OK/GD32VW55X_Wifi_BLE_SDK/GD32VW55x_RELEASE_V1.0.2/MSDK/cloud/alicloud/src/services/linkkit/dm\dm_message.c ****             if (res != SUCCESS_RETURN) {
1726:C:/Users/stapi/OneDrive/Desktop/GD32VW553/V1_MQTT_OK/GD32VW55X_Wifi_BLE_SDK/GD32VW55x_RELEASE_V1.0.2/MSDK/cloud/alicloud/src/services/linkkit/dm\dm_message.c ****                 continue;
1727:C:/Users/stapi/OneDrive/Desktop/GD32VW553/V1_MQTT_OK/GD32VW55X_Wifi_BLE_SDK/GD32VW55x_RELEASE_V1.0.2/MSDK/cloud/alicloud/src/services/linkkit/dm\dm_message.c ****             }
1728:C:/Users/stapi/OneDrive/Desktop/GD32VW553/V1_MQTT_OK/GD32VW55X_Wifi_BLE_SDK/GD32VW55x_RELEASE_V1.0.2/MSDK/cloud/alicloud/src/services/linkkit/dm\dm_message.c **** 
1729:C:/Users/stapi/OneDrive/Desktop/GD32VW553/V1_MQTT_OK/GD32VW55X_Wifi_BLE_SDK/GD32VW55x_RELEASE_V1.0.2/MSDK/cloud/alicloud/src/services/linkkit/dm\dm_message.c ****             if (devid > 0) {
1730:C:/Users/stapi/OneDrive/Desktop/GD32VW553/V1_MQTT_OK/GD32VW55X_Wifi_BLE_SDK/GD32VW55x_RELEASE_V1.0.2/MSDK/cloud/alicloud/src/services/linkkit/dm\dm_message.c ****                 dm_mgr_set_dev_status(devid, IOTX_DM_DEV_STATUS_ATTACHED);
1731:C:/Users/stapi/OneDrive/Desktop/GD32VW553/V1_MQTT_OK/GD32VW55X_Wifi_BLE_SDK/GD32VW55x_RELEASE_V1.0.2/MSDK/cloud/alicloud/src/services/linkkit/dm\dm_message.c ****             }
1732:C:/Users/stapi/OneDrive/Desktop/GD32VW553/V1_MQTT_OK/GD32VW55X_Wifi_BLE_SDK/GD32VW55x_RELEASE_V1.0.2/MSDK/cloud/alicloud/src/services/linkkit/dm\dm_message.c ****         }
1733:C:/Users/stapi/OneDrive/Desktop/GD32VW553/V1_MQTT_OK/GD32VW55X_Wifi_BLE_SDK/GD32VW55x_RELEASE_V1.0.2/MSDK/cloud/alicloud/src/services/linkkit/dm\dm_message.c ****     }
1734:C:/Users/stapi/OneDrive/Desktop/GD32VW553/V1_MQTT_OK/GD32VW55X_Wifi_BLE_SDK/GD32VW55x_RELEASE_V1.0.2/MSDK/cloud/alicloud/src/services/linkkit/dm\dm_message.c **** 
1735:C:/Users/stapi/OneDrive/Desktop/GD32VW553/V1_MQTT_OK/GD32VW55X_Wifi_BLE_SDK/GD32VW55x_RELEASE_V1.0.2/MSDK/cloud/alicloud/src/services/linkkit/dm\dm_message.c ****     /* Message ID */
1736:C:/Users/stapi/OneDrive/Desktop/GD32VW553/V1_MQTT_OK/GD32VW55X_Wifi_BLE_SDK/GD32VW55x_RELEASE_V1.0.2/MSDK/cloud/alicloud/src/services/linkkit/dm\dm_message.c ****     memcpy(temp_id, response->id.value, response->id.value_length);
1737:C:/Users/stapi/OneDrive/Desktop/GD32VW553/V1_MQTT_OK/GD32VW55X_Wifi_BLE_SDK/GD32VW55x_RELEASE_V1.0.2/MSDK/cloud/alicloud/src/services/linkkit/dm\dm_message.c **** 
1738:C:/Users/stapi/OneDrive/Desktop/GD32VW553/V1_MQTT_OK/GD32VW55X_Wifi_BLE_SDK/GD32VW55x_RELEASE_V1.0.2/MSDK/cloud/alicloud/src/services/linkkit/dm\dm_message.c ****     payload = DM_malloc(response->data.value_length + 1);
1739:C:/Users/stapi/OneDrive/Desktop/GD32VW553/V1_MQTT_OK/GD32VW55X_Wifi_BLE_SDK/GD32VW55x_RELEASE_V1.0.2/MSDK/cloud/alicloud/src/services/linkkit/dm\dm_message.c ****     if (payload == NULL) {
1740:C:/Users/stapi/OneDrive/Desktop/GD32VW553/V1_MQTT_OK/GD32VW55X_Wifi_BLE_SDK/GD32VW55x_RELEASE_V1.0.2/MSDK/cloud/alicloud/src/services/linkkit/dm\dm_message.c ****         return DM_MEMORY_NOT_ENOUGH;
1741:C:/Users/stapi/OneDrive/Desktop/GD32VW553/V1_MQTT_OK/GD32VW55X_Wifi_BLE_SDK/GD32VW55x_RELEASE_V1.0.2/MSDK/cloud/alicloud/src/services/linkkit/dm\dm_message.c ****     }
1742:C:/Users/stapi/OneDrive/Desktop/GD32VW553/V1_MQTT_OK/GD32VW55X_Wifi_BLE_SDK/GD32VW55x_RELEASE_V1.0.2/MSDK/cloud/alicloud/src/services/linkkit/dm\dm_message.c **** 
1743:C:/Users/stapi/OneDrive/Desktop/GD32VW553/V1_MQTT_OK/GD32VW55X_Wifi_BLE_SDK/GD32VW55x_RELEASE_V1.0.2/MSDK/cloud/alicloud/src/services/linkkit/dm\dm_message.c ****     message_len = response->data.value_length + strlen(DM_MSG_EVENT_COMBINE_BATCH_LOGOUT_REPLY_FMT)
1744:C:/Users/stapi/OneDrive/Desktop/GD32VW553/V1_MQTT_OK/GD32VW55X_Wifi_BLE_SDK/GD32VW55x_RELEASE_V1.0.2/MSDK/cloud/alicloud/src/services/linkkit/dm\dm_message.c ****     message = DM_malloc(message_len);
1745:C:/Users/stapi/OneDrive/Desktop/GD32VW553/V1_MQTT_OK/GD32VW55X_Wifi_BLE_SDK/GD32VW55x_RELEASE_V1.0.2/MSDK/cloud/alicloud/src/services/linkkit/dm\dm_message.c ****     if (message == NULL) {
1746:C:/Users/stapi/OneDrive/Desktop/GD32VW553/V1_MQTT_OK/GD32VW55X_Wifi_BLE_SDK/GD32VW55x_RELEASE_V1.0.2/MSDK/cloud/alicloud/src/services/linkkit/dm\dm_message.c ****         DM_free(payload);
1747:C:/Users/stapi/OneDrive/Desktop/GD32VW553/V1_MQTT_OK/GD32VW55X_Wifi_BLE_SDK/GD32VW55x_RELEASE_V1.0.2/MSDK/cloud/alicloud/src/services/linkkit/dm\dm_message.c ****         return DM_MEMORY_NOT_ENOUGH;
1748:C:/Users/stapi/OneDrive/Desktop/GD32VW553/V1_MQTT_OK/GD32VW55X_Wifi_BLE_SDK/GD32VW55x_RELEASE_V1.0.2/MSDK/cloud/alicloud/src/services/linkkit/dm\dm_message.c ****     }
1749:C:/Users/stapi/OneDrive/Desktop/GD32VW553/V1_MQTT_OK/GD32VW55X_Wifi_BLE_SDK/GD32VW55x_RELEASE_V1.0.2/MSDK/cloud/alicloud/src/services/linkkit/dm\dm_message.c ****     memset(message, 0, message_len);
1750:C:/Users/stapi/OneDrive/Desktop/GD32VW553/V1_MQTT_OK/GD32VW55X_Wifi_BLE_SDK/GD32VW55x_RELEASE_V1.0.2/MSDK/cloud/alicloud/src/services/linkkit/dm\dm_message.c ****     memset(payload, 0, response->data.value_length + 1);
1751:C:/Users/stapi/OneDrive/Desktop/GD32VW553/V1_MQTT_OK/GD32VW55X_Wifi_BLE_SDK/GD32VW55x_RELEASE_V1.0.2/MSDK/cloud/alicloud/src/services/linkkit/dm\dm_message.c ****     memcpy(payload, response->data.value, response->data.value_length);
1752:C:/Users/stapi/OneDrive/Desktop/GD32VW553/V1_MQTT_OK/GD32VW55X_Wifi_BLE_SDK/GD32VW55x_RELEASE_V1.0.2/MSDK/cloud/alicloud/src/services/linkkit/dm\dm_message.c ****     HAL_Snprintf(message, message_len, DM_MSG_EVENT_COMBINE_BATCH_LOGOUT_REPLY_FMT, atoi(temp_id), 
1753:C:/Users/stapi/OneDrive/Desktop/GD32VW553/V1_MQTT_OK/GD32VW55X_Wifi_BLE_SDK/GD32VW55x_RELEASE_V1.0.2/MSDK/cloud/alicloud/src/services/linkkit/dm\dm_message.c ****     DM_free(payload);
1754:C:/Users/stapi/OneDrive/Desktop/GD32VW553/V1_MQTT_OK/GD32VW55X_Wifi_BLE_SDK/GD32VW55x_RELEASE_V1.0.2/MSDK/cloud/alicloud/src/services/linkkit/dm\dm_message.c **** 
1755:C:/Users/stapi/OneDrive/Desktop/GD32VW553/V1_MQTT_OK/GD32VW55X_Wifi_BLE_SDK/GD32VW55x_RELEASE_V1.0.2/MSDK/cloud/alicloud/src/services/linkkit/dm\dm_message.c ****     res = _dm_msg_send_to_user(IOTX_DM_EVENT_COMBINE_BATCH_LOGOUT_REPLY, message);
1756:C:/Users/stapi/OneDrive/Desktop/GD32VW553/V1_MQTT_OK/GD32VW55X_Wifi_BLE_SDK/GD32VW55x_RELEASE_V1.0.2/MSDK/cloud/alicloud/src/services/linkkit/dm\dm_message.c ****     if (res != SUCCESS_RETURN) {
1757:C:/Users/stapi/OneDrive/Desktop/GD32VW553/V1_MQTT_OK/GD32VW55X_Wifi_BLE_SDK/GD32VW55x_RELEASE_V1.0.2/MSDK/cloud/alicloud/src/services/linkkit/dm\dm_message.c ****         DM_free(message);
1758:C:/Users/stapi/OneDrive/Desktop/GD32VW553/V1_MQTT_OK/GD32VW55X_Wifi_BLE_SDK/GD32VW55x_RELEASE_V1.0.2/MSDK/cloud/alicloud/src/services/linkkit/dm\dm_message.c ****         return FAIL_RETURN;
1759:C:/Users/stapi/OneDrive/Desktop/GD32VW553/V1_MQTT_OK/GD32VW55X_Wifi_BLE_SDK/GD32VW55x_RELEASE_V1.0.2/MSDK/cloud/alicloud/src/services/linkkit/dm\dm_message.c ****     }
1760:C:/Users/stapi/OneDrive/Desktop/GD32VW553/V1_MQTT_OK/GD32VW55X_Wifi_BLE_SDK/GD32VW55x_RELEASE_V1.0.2/MSDK/cloud/alicloud/src/services/linkkit/dm\dm_message.c **** 
1761:C:/Users/stapi/OneDrive/Desktop/GD32VW553/V1_MQTT_OK/GD32VW55X_Wifi_BLE_SDK/GD32VW55x_RELEASE_V1.0.2/MSDK/cloud/alicloud/src/services/linkkit/dm\dm_message.c ****     if (response->code.value_int != IOTX_DM_ERR_CODE_SUCCESS) {
1762:C:/Users/stapi/OneDrive/Desktop/GD32VW553/V1_MQTT_OK/GD32VW55X_Wifi_BLE_SDK/GD32VW55x_RELEASE_V1.0.2/MSDK/cloud/alicloud/src/services/linkkit/dm\dm_message.c ****         return FAIL_RETURN;
1763:C:/Users/stapi/OneDrive/Desktop/GD32VW553/V1_MQTT_OK/GD32VW55X_Wifi_BLE_SDK/GD32VW55x_RELEASE_V1.0.2/MSDK/cloud/alicloud/src/services/linkkit/dm\dm_message.c ****     }
1764:C:/Users/stapi/OneDrive/Desktop/GD32VW553/V1_MQTT_OK/GD32VW55X_Wifi_BLE_SDK/GD32VW55x_RELEASE_V1.0.2/MSDK/cloud/alicloud/src/services/linkkit/dm\dm_message.c **** 
1765:C:/Users/stapi/OneDrive/Desktop/GD32VW553/V1_MQTT_OK/GD32VW55X_Wifi_BLE_SDK/GD32VW55x_RELEASE_V1.0.2/MSDK/cloud/alicloud/src/services/linkkit/dm\dm_message.c ****     return SUCCESS_RETURN;
1766:C:/Users/stapi/OneDrive/Desktop/GD32VW553/V1_MQTT_OK/GD32VW55X_Wifi_BLE_SDK/GD32VW55x_RELEASE_V1.0.2/MSDK/cloud/alicloud/src/services/linkkit/dm\dm_message.c **** }
1767:C:/Users/stapi/OneDrive/Desktop/GD32VW553/V1_MQTT_OK/GD32VW55X_Wifi_BLE_SDK/GD32VW55x_RELEASE_V1.0.2/MSDK/cloud/alicloud/src/services/linkkit/dm\dm_message.c **** #endif
1768:C:/Users/stapi/OneDrive/Desktop/GD32VW553/V1_MQTT_OK/GD32VW55X_Wifi_BLE_SDK/GD32VW55x_RELEASE_V1.0.2/MSDK/cloud/alicloud/src/services/linkkit/dm\dm_message.c **** 
1769:C:/Users/stapi/OneDrive/Desktop/GD32VW553/V1_MQTT_OK/GD32VW55X_Wifi_BLE_SDK/GD32VW55x_RELEASE_V1.0.2/MSDK/cloud/alicloud/src/services/linkkit/dm\dm_message.c **** #ifdef ALCS_ENABLED
1770:C:/Users/stapi/OneDrive/Desktop/GD32VW553/V1_MQTT_OK/GD32VW55X_Wifi_BLE_SDK/GD32VW55x_RELEASE_V1.0.2/MSDK/cloud/alicloud/src/services/linkkit/dm\dm_message.c **** const char DM_MSG_DEV_CORE_SERVICE_DEV[] DM_READ_ONLY =
1771:C:/Users/stapi/OneDrive/Desktop/GD32VW553/V1_MQTT_OK/GD32VW55X_Wifi_BLE_SDK/GD32VW55x_RELEASE_V1.0.2/MSDK/cloud/alicloud/src/services/linkkit/dm\dm_message.c ****             "{\"devices\":{\"addr\":\"%s\",\"port\":%d,\"pal\":\"linkkit-ica\",\"profile\":%s}}";
1772:C:/Users/stapi/OneDrive/Desktop/GD32VW553/V1_MQTT_OK/GD32VW55X_Wifi_BLE_SDK/GD32VW55x_RELEASE_V1.0.2/MSDK/cloud/alicloud/src/services/linkkit/dm\dm_message.c **** int dm_msg_dev_core_service_dev(char **payload, int *payload_len)
1773:C:/Users/stapi/OneDrive/Desktop/GD32VW553/V1_MQTT_OK/GD32VW55X_Wifi_BLE_SDK/GD32VW55x_RELEASE_V1.0.2/MSDK/cloud/alicloud/src/services/linkkit/dm\dm_message.c **** {
1774:C:/Users/stapi/OneDrive/Desktop/GD32VW553/V1_MQTT_OK/GD32VW55X_Wifi_BLE_SDK/GD32VW55x_RELEASE_V1.0.2/MSDK/cloud/alicloud/src/services/linkkit/dm\dm_message.c ****     int res = 0, index = 0, search_devid = 0;
1775:C:/Users/stapi/OneDrive/Desktop/GD32VW553/V1_MQTT_OK/GD32VW55X_Wifi_BLE_SDK/GD32VW55x_RELEASE_V1.0.2/MSDK/cloud/alicloud/src/services/linkkit/dm\dm_message.c ****     char product_key[PRODUCT_KEY_MAXLEN] = {0};
1776:C:/Users/stapi/OneDrive/Desktop/GD32VW553/V1_MQTT_OK/GD32VW55X_Wifi_BLE_SDK/GD32VW55x_RELEASE_V1.0.2/MSDK/cloud/alicloud/src/services/linkkit/dm\dm_message.c ****     char device_name[DEVICE_NAME_MAXLEN] = {0};
1777:C:/Users/stapi/OneDrive/Desktop/GD32VW553/V1_MQTT_OK/GD32VW55X_Wifi_BLE_SDK/GD32VW55x_RELEASE_V1.0.2/MSDK/cloud/alicloud/src/services/linkkit/dm\dm_message.c ****     char device_secret[DEVICE_SECRET_MAXLEN] = {0};
1778:C:/Users/stapi/OneDrive/Desktop/GD32VW553/V1_MQTT_OK/GD32VW55X_Wifi_BLE_SDK/GD32VW55x_RELEASE_V1.0.2/MSDK/cloud/alicloud/src/services/linkkit/dm\dm_message.c ****     char ip_addr[16] = {0};
1779:C:/Users/stapi/OneDrive/Desktop/GD32VW553/V1_MQTT_OK/GD32VW55X_Wifi_BLE_SDK/GD32VW55x_RELEASE_V1.0.2/MSDK/cloud/alicloud/src/services/linkkit/dm\dm_message.c ****     char *device_array = NULL;
1780:C:/Users/stapi/OneDrive/Desktop/GD32VW553/V1_MQTT_OK/GD32VW55X_Wifi_BLE_SDK/GD32VW55x_RELEASE_V1.0.2/MSDK/cloud/alicloud/src/services/linkkit/dm\dm_message.c ****     lite_cjson_item_t *lite_array = NULL, *lite_object = NULL;
1781:C:/Users/stapi/OneDrive/Desktop/GD32VW553/V1_MQTT_OK/GD32VW55X_Wifi_BLE_SDK/GD32VW55x_RELEASE_V1.0.2/MSDK/cloud/alicloud/src/services/linkkit/dm\dm_message.c ****     uint16_t port = 5683;
1782:C:/Users/stapi/OneDrive/Desktop/GD32VW553/V1_MQTT_OK/GD32VW55X_Wifi_BLE_SDK/GD32VW55x_RELEASE_V1.0.2/MSDK/cloud/alicloud/src/services/linkkit/dm\dm_message.c **** 
1783:C:/Users/stapi/OneDrive/Desktop/GD32VW553/V1_MQTT_OK/GD32VW55X_Wifi_BLE_SDK/GD32VW55x_RELEASE_V1.0.2/MSDK/cloud/alicloud/src/services/linkkit/dm\dm_message.c ****     if (payload == NULL || *payload != NULL || payload_len == NULL) {
1784:C:/Users/stapi/OneDrive/Desktop/GD32VW553/V1_MQTT_OK/GD32VW55X_Wifi_BLE_SDK/GD32VW55x_RELEASE_V1.0.2/MSDK/cloud/alicloud/src/services/linkkit/dm\dm_message.c ****         return DM_INVALID_PARAMETER;
1785:C:/Users/stapi/OneDrive/Desktop/GD32VW553/V1_MQTT_OK/GD32VW55X_Wifi_BLE_SDK/GD32VW55x_RELEASE_V1.0.2/MSDK/cloud/alicloud/src/services/linkkit/dm\dm_message.c ****     }
1786:C:/Users/stapi/OneDrive/Desktop/GD32VW553/V1_MQTT_OK/GD32VW55X_Wifi_BLE_SDK/GD32VW55x_RELEASE_V1.0.2/MSDK/cloud/alicloud/src/services/linkkit/dm\dm_message.c **** 
1787:C:/Users/stapi/OneDrive/Desktop/GD32VW553/V1_MQTT_OK/GD32VW55X_Wifi_BLE_SDK/GD32VW55x_RELEASE_V1.0.2/MSDK/cloud/alicloud/src/services/linkkit/dm\dm_message.c ****     lite_array = lite_cjson_create_array();
1788:C:/Users/stapi/OneDrive/Desktop/GD32VW553/V1_MQTT_OK/GD32VW55X_Wifi_BLE_SDK/GD32VW55x_RELEASE_V1.0.2/MSDK/cloud/alicloud/src/services/linkkit/dm\dm_message.c ****     if (lite_array == NULL) {
1789:C:/Users/stapi/OneDrive/Desktop/GD32VW553/V1_MQTT_OK/GD32VW55X_Wifi_BLE_SDK/GD32VW55x_RELEASE_V1.0.2/MSDK/cloud/alicloud/src/services/linkkit/dm\dm_message.c ****         return DM_MEMORY_NOT_ENOUGH;
1790:C:/Users/stapi/OneDrive/Desktop/GD32VW553/V1_MQTT_OK/GD32VW55X_Wifi_BLE_SDK/GD32VW55x_RELEASE_V1.0.2/MSDK/cloud/alicloud/src/services/linkkit/dm\dm_message.c ****     }
1791:C:/Users/stapi/OneDrive/Desktop/GD32VW553/V1_MQTT_OK/GD32VW55X_Wifi_BLE_SDK/GD32VW55x_RELEASE_V1.0.2/MSDK/cloud/alicloud/src/services/linkkit/dm\dm_message.c **** 
1792:C:/Users/stapi/OneDrive/Desktop/GD32VW553/V1_MQTT_OK/GD32VW55X_Wifi_BLE_SDK/GD32VW55x_RELEASE_V1.0.2/MSDK/cloud/alicloud/src/services/linkkit/dm\dm_message.c ****     /* Get Product Key And Device Name Of All Device */
1793:C:/Users/stapi/OneDrive/Desktop/GD32VW553/V1_MQTT_OK/GD32VW55X_Wifi_BLE_SDK/GD32VW55x_RELEASE_V1.0.2/MSDK/cloud/alicloud/src/services/linkkit/dm\dm_message.c ****     for (index = 0; index < dm_mgr_device_number(); index++) {
1794:C:/Users/stapi/OneDrive/Desktop/GD32VW553/V1_MQTT_OK/GD32VW55X_Wifi_BLE_SDK/GD32VW55x_RELEASE_V1.0.2/MSDK/cloud/alicloud/src/services/linkkit/dm\dm_message.c ****         search_devid = 0;
1795:C:/Users/stapi/OneDrive/Desktop/GD32VW553/V1_MQTT_OK/GD32VW55X_Wifi_BLE_SDK/GD32VW55x_RELEASE_V1.0.2/MSDK/cloud/alicloud/src/services/linkkit/dm\dm_message.c ****         lite_object = NULL;
1796:C:/Users/stapi/OneDrive/Desktop/GD32VW553/V1_MQTT_OK/GD32VW55X_Wifi_BLE_SDK/GD32VW55x_RELEASE_V1.0.2/MSDK/cloud/alicloud/src/services/linkkit/dm\dm_message.c ****         memset(product_key, 0, PRODUCT_KEY_MAXLEN);
1797:C:/Users/stapi/OneDrive/Desktop/GD32VW553/V1_MQTT_OK/GD32VW55X_Wifi_BLE_SDK/GD32VW55x_RELEASE_V1.0.2/MSDK/cloud/alicloud/src/services/linkkit/dm\dm_message.c ****         memset(device_name, 0, DEVICE_NAME_MAXLEN);
1798:C:/Users/stapi/OneDrive/Desktop/GD32VW553/V1_MQTT_OK/GD32VW55X_Wifi_BLE_SDK/GD32VW55x_RELEASE_V1.0.2/MSDK/cloud/alicloud/src/services/linkkit/dm\dm_message.c ****         memset(device_secret, 0, DEVICE_SECRET_MAXLEN);
1799:C:/Users/stapi/OneDrive/Desktop/GD32VW553/V1_MQTT_OK/GD32VW55X_Wifi_BLE_SDK/GD32VW55x_RELEASE_V1.0.2/MSDK/cloud/alicloud/src/services/linkkit/dm\dm_message.c **** 
1800:C:/Users/stapi/OneDrive/Desktop/GD32VW553/V1_MQTT_OK/GD32VW55X_Wifi_BLE_SDK/GD32VW55x_RELEASE_V1.0.2/MSDK/cloud/alicloud/src/services/linkkit/dm\dm_message.c ****         res = dm_mgr_get_devid_by_index(index, &search_devid);
1801:C:/Users/stapi/OneDrive/Desktop/GD32VW553/V1_MQTT_OK/GD32VW55X_Wifi_BLE_SDK/GD32VW55x_RELEASE_V1.0.2/MSDK/cloud/alicloud/src/services/linkkit/dm\dm_message.c ****         if (res != SUCCESS_RETURN) {
1802:C:/Users/stapi/OneDrive/Desktop/GD32VW553/V1_MQTT_OK/GD32VW55X_Wifi_BLE_SDK/GD32VW55x_RELEASE_V1.0.2/MSDK/cloud/alicloud/src/services/linkkit/dm\dm_message.c ****             lite_cjson_delete(lite_array);
1803:C:/Users/stapi/OneDrive/Desktop/GD32VW553/V1_MQTT_OK/GD32VW55X_Wifi_BLE_SDK/GD32VW55x_RELEASE_V1.0.2/MSDK/cloud/alicloud/src/services/linkkit/dm\dm_message.c ****             return FAIL_RETURN;
1804:C:/Users/stapi/OneDrive/Desktop/GD32VW553/V1_MQTT_OK/GD32VW55X_Wifi_BLE_SDK/GD32VW55x_RELEASE_V1.0.2/MSDK/cloud/alicloud/src/services/linkkit/dm\dm_message.c ****         }
1805:C:/Users/stapi/OneDrive/Desktop/GD32VW553/V1_MQTT_OK/GD32VW55X_Wifi_BLE_SDK/GD32VW55x_RELEASE_V1.0.2/MSDK/cloud/alicloud/src/services/linkkit/dm\dm_message.c **** 
1806:C:/Users/stapi/OneDrive/Desktop/GD32VW553/V1_MQTT_OK/GD32VW55X_Wifi_BLE_SDK/GD32VW55x_RELEASE_V1.0.2/MSDK/cloud/alicloud/src/services/linkkit/dm\dm_message.c ****         res = dm_mgr_search_device_by_devid(search_devid, product_key, device_name, device_secret);
1807:C:/Users/stapi/OneDrive/Desktop/GD32VW553/V1_MQTT_OK/GD32VW55X_Wifi_BLE_SDK/GD32VW55x_RELEASE_V1.0.2/MSDK/cloud/alicloud/src/services/linkkit/dm\dm_message.c ****         if (res != SUCCESS_RETURN) {
1808:C:/Users/stapi/OneDrive/Desktop/GD32VW553/V1_MQTT_OK/GD32VW55X_Wifi_BLE_SDK/GD32VW55x_RELEASE_V1.0.2/MSDK/cloud/alicloud/src/services/linkkit/dm\dm_message.c ****             lite_cjson_delete(lite_array);
1809:C:/Users/stapi/OneDrive/Desktop/GD32VW553/V1_MQTT_OK/GD32VW55X_Wifi_BLE_SDK/GD32VW55x_RELEASE_V1.0.2/MSDK/cloud/alicloud/src/services/linkkit/dm\dm_message.c ****             return FAIL_RETURN;
1810:C:/Users/stapi/OneDrive/Desktop/GD32VW553/V1_MQTT_OK/GD32VW55X_Wifi_BLE_SDK/GD32VW55x_RELEASE_V1.0.2/MSDK/cloud/alicloud/src/services/linkkit/dm\dm_message.c ****         }
1811:C:/Users/stapi/OneDrive/Desktop/GD32VW553/V1_MQTT_OK/GD32VW55X_Wifi_BLE_SDK/GD32VW55x_RELEASE_V1.0.2/MSDK/cloud/alicloud/src/services/linkkit/dm\dm_message.c **** 
1812:C:/Users/stapi/OneDrive/Desktop/GD32VW553/V1_MQTT_OK/GD32VW55X_Wifi_BLE_SDK/GD32VW55x_RELEASE_V1.0.2/MSDK/cloud/alicloud/src/services/linkkit/dm\dm_message.c ****         lite_object = lite_cjson_create_object();
1813:C:/Users/stapi/OneDrive/Desktop/GD32VW553/V1_MQTT_OK/GD32VW55X_Wifi_BLE_SDK/GD32VW55x_RELEASE_V1.0.2/MSDK/cloud/alicloud/src/services/linkkit/dm\dm_message.c ****         if (lite_object == NULL) {
1814:C:/Users/stapi/OneDrive/Desktop/GD32VW553/V1_MQTT_OK/GD32VW55X_Wifi_BLE_SDK/GD32VW55x_RELEASE_V1.0.2/MSDK/cloud/alicloud/src/services/linkkit/dm\dm_message.c ****             lite_cjson_delete(lite_array);
1815:C:/Users/stapi/OneDrive/Desktop/GD32VW553/V1_MQTT_OK/GD32VW55X_Wifi_BLE_SDK/GD32VW55x_RELEASE_V1.0.2/MSDK/cloud/alicloud/src/services/linkkit/dm\dm_message.c ****             return FAIL_RETURN;
1816:C:/Users/stapi/OneDrive/Desktop/GD32VW553/V1_MQTT_OK/GD32VW55X_Wifi_BLE_SDK/GD32VW55x_RELEASE_V1.0.2/MSDK/cloud/alicloud/src/services/linkkit/dm\dm_message.c ****         }
1817:C:/Users/stapi/OneDrive/Desktop/GD32VW553/V1_MQTT_OK/GD32VW55X_Wifi_BLE_SDK/GD32VW55x_RELEASE_V1.0.2/MSDK/cloud/alicloud/src/services/linkkit/dm\dm_message.c ****         lite_cjson_add_string_to_object(lite_object, "productKey", product_key);
1818:C:/Users/stapi/OneDrive/Desktop/GD32VW553/V1_MQTT_OK/GD32VW55X_Wifi_BLE_SDK/GD32VW55x_RELEASE_V1.0.2/MSDK/cloud/alicloud/src/services/linkkit/dm\dm_message.c ****         lite_cjson_add_string_to_object(lite_object, "deviceName", device_name);
1819:C:/Users/stapi/OneDrive/Desktop/GD32VW553/V1_MQTT_OK/GD32VW55X_Wifi_BLE_SDK/GD32VW55x_RELEASE_V1.0.2/MSDK/cloud/alicloud/src/services/linkkit/dm\dm_message.c ****         lite_cjson_add_item_to_array(lite_array, lite_object);
1820:C:/Users/stapi/OneDrive/Desktop/GD32VW553/V1_MQTT_OK/GD32VW55X_Wifi_BLE_SDK/GD32VW55x_RELEASE_V1.0.2/MSDK/cloud/alicloud/src/services/linkkit/dm\dm_message.c ****     }
1821:C:/Users/stapi/OneDrive/Desktop/GD32VW553/V1_MQTT_OK/GD32VW55X_Wifi_BLE_SDK/GD32VW55x_RELEASE_V1.0.2/MSDK/cloud/alicloud/src/services/linkkit/dm\dm_message.c **** 
1822:C:/Users/stapi/OneDrive/Desktop/GD32VW553/V1_MQTT_OK/GD32VW55X_Wifi_BLE_SDK/GD32VW55x_RELEASE_V1.0.2/MSDK/cloud/alicloud/src/services/linkkit/dm\dm_message.c ****     device_array = lite_cjson_print_unformatted(lite_array);
1823:C:/Users/stapi/OneDrive/Desktop/GD32VW553/V1_MQTT_OK/GD32VW55X_Wifi_BLE_SDK/GD32VW55x_RELEASE_V1.0.2/MSDK/cloud/alicloud/src/services/linkkit/dm\dm_message.c ****     lite_cjson_delete(lite_array);
1824:C:/Users/stapi/OneDrive/Desktop/GD32VW553/V1_MQTT_OK/GD32VW55X_Wifi_BLE_SDK/GD32VW55x_RELEASE_V1.0.2/MSDK/cloud/alicloud/src/services/linkkit/dm\dm_message.c ****     if (device_array == NULL) {
1825:C:/Users/stapi/OneDrive/Desktop/GD32VW553/V1_MQTT_OK/GD32VW55X_Wifi_BLE_SDK/GD32VW55x_RELEASE_V1.0.2/MSDK/cloud/alicloud/src/services/linkkit/dm\dm_message.c ****         return DM_MEMORY_NOT_ENOUGH;
1826:C:/Users/stapi/OneDrive/Desktop/GD32VW553/V1_MQTT_OK/GD32VW55X_Wifi_BLE_SDK/GD32VW55x_RELEASE_V1.0.2/MSDK/cloud/alicloud/src/services/linkkit/dm\dm_message.c ****     }
1827:C:/Users/stapi/OneDrive/Desktop/GD32VW553/V1_MQTT_OK/GD32VW55X_Wifi_BLE_SDK/GD32VW55x_RELEASE_V1.0.2/MSDK/cloud/alicloud/src/services/linkkit/dm\dm_message.c **** 
1828:C:/Users/stapi/OneDrive/Desktop/GD32VW553/V1_MQTT_OK/GD32VW55X_Wifi_BLE_SDK/GD32VW55x_RELEASE_V1.0.2/MSDK/cloud/alicloud/src/services/linkkit/dm\dm_message.c ****     HAL_Wifi_Get_IP(ip_addr, 0);
1829:C:/Users/stapi/OneDrive/Desktop/GD32VW553/V1_MQTT_OK/GD32VW55X_Wifi_BLE_SDK/GD32VW55x_RELEASE_V1.0.2/MSDK/cloud/alicloud/src/services/linkkit/dm\dm_message.c **** 
1830:C:/Users/stapi/OneDrive/Desktop/GD32VW553/V1_MQTT_OK/GD32VW55X_Wifi_BLE_SDK/GD32VW55x_RELEASE_V1.0.2/MSDK/cloud/alicloud/src/services/linkkit/dm\dm_message.c ****     *payload_len = strlen(DM_MSG_DEV_CORE_SERVICE_DEV) + strlen(ip_addr) + DM_UTILS_UINT16_STRLEN +
1831:C:/Users/stapi/OneDrive/Desktop/GD32VW553/V1_MQTT_OK/GD32VW55X_Wifi_BLE_SDK/GD32VW55x_RELEASE_V1.0.2/MSDK/cloud/alicloud/src/services/linkkit/dm\dm_message.c ****                                device_array) + 1;
1832:C:/Users/stapi/OneDrive/Desktop/GD32VW553/V1_MQTT_OK/GD32VW55X_Wifi_BLE_SDK/GD32VW55x_RELEASE_V1.0.2/MSDK/cloud/alicloud/src/services/linkkit/dm\dm_message.c ****     *payload = DM_malloc(*payload_len);
1833:C:/Users/stapi/OneDrive/Desktop/GD32VW553/V1_MQTT_OK/GD32VW55X_Wifi_BLE_SDK/GD32VW55x_RELEASE_V1.0.2/MSDK/cloud/alicloud/src/services/linkkit/dm\dm_message.c ****     if (*payload == NULL) {
1834:C:/Users/stapi/OneDrive/Desktop/GD32VW553/V1_MQTT_OK/GD32VW55X_Wifi_BLE_SDK/GD32VW55x_RELEASE_V1.0.2/MSDK/cloud/alicloud/src/services/linkkit/dm\dm_message.c ****         HAL_Free(device_array);
1835:C:/Users/stapi/OneDrive/Desktop/GD32VW553/V1_MQTT_OK/GD32VW55X_Wifi_BLE_SDK/GD32VW55x_RELEASE_V1.0.2/MSDK/cloud/alicloud/src/services/linkkit/dm\dm_message.c ****         return DM_MEMORY_NOT_ENOUGH;
1836:C:/Users/stapi/OneDrive/Desktop/GD32VW553/V1_MQTT_OK/GD32VW55X_Wifi_BLE_SDK/GD32VW55x_RELEASE_V1.0.2/MSDK/cloud/alicloud/src/services/linkkit/dm\dm_message.c ****     }
1837:C:/Users/stapi/OneDrive/Desktop/GD32VW553/V1_MQTT_OK/GD32VW55X_Wifi_BLE_SDK/GD32VW55x_RELEASE_V1.0.2/MSDK/cloud/alicloud/src/services/linkkit/dm\dm_message.c ****     memset(*payload, 0, *payload_len);
1838:C:/Users/stapi/OneDrive/Desktop/GD32VW553/V1_MQTT_OK/GD32VW55X_Wifi_BLE_SDK/GD32VW55x_RELEASE_V1.0.2/MSDK/cloud/alicloud/src/services/linkkit/dm\dm_message.c ****     HAL_Snprintf(*payload, *payload_len, DM_MSG_DEV_CORE_SERVICE_DEV, ip_addr, port, device_array);
1839:C:/Users/stapi/OneDrive/Desktop/GD32VW553/V1_MQTT_OK/GD32VW55X_Wifi_BLE_SDK/GD32VW55x_RELEASE_V1.0.2/MSDK/cloud/alicloud/src/services/linkkit/dm\dm_message.c ****     DM_free(device_array);
1840:C:/Users/stapi/OneDrive/Desktop/GD32VW553/V1_MQTT_OK/GD32VW55X_Wifi_BLE_SDK/GD32VW55x_RELEASE_V1.0.2/MSDK/cloud/alicloud/src/services/linkkit/dm\dm_message.c **** 
1841:C:/Users/stapi/OneDrive/Desktop/GD32VW553/V1_MQTT_OK/GD32VW55X_Wifi_BLE_SDK/GD32VW55x_RELEASE_V1.0.2/MSDK/cloud/alicloud/src/services/linkkit/dm\dm_message.c ****     return SUCCESS_RETURN;
1842:C:/Users/stapi/OneDrive/Desktop/GD32VW553/V1_MQTT_OK/GD32VW55X_Wifi_BLE_SDK/GD32VW55x_RELEASE_V1.0.2/MSDK/cloud/alicloud/src/services/linkkit/dm\dm_message.c **** }
1843:C:/Users/stapi/OneDrive/Desktop/GD32VW553/V1_MQTT_OK/GD32VW55X_Wifi_BLE_SDK/GD32VW55x_RELEASE_V1.0.2/MSDK/cloud/alicloud/src/services/linkkit/dm\dm_message.c **** #endif
1844:C:/Users/stapi/OneDrive/Desktop/GD32VW553/V1_MQTT_OK/GD32VW55X_Wifi_BLE_SDK/GD32VW55x_RELEASE_V1.0.2/MSDK/cloud/alicloud/src/services/linkkit/dm\dm_message.c **** 
1845:C:/Users/stapi/OneDrive/Desktop/GD32VW553/V1_MQTT_OK/GD32VW55X_Wifi_BLE_SDK/GD32VW55x_RELEASE_V1.0.2/MSDK/cloud/alicloud/src/services/linkkit/dm\dm_message.c **** int dm_msg_cloud_connected(void)
1846:C:/Users/stapi/OneDrive/Desktop/GD32VW553/V1_MQTT_OK/GD32VW55X_Wifi_BLE_SDK/GD32VW55x_RELEASE_V1.0.2/MSDK/cloud/alicloud/src/services/linkkit/dm\dm_message.c **** {
 3525              		.loc 1 1846 1 is_stmt 1
 3526              		.cfi_startproc
1847:C:/Users/stapi/OneDrive/Desktop/GD32VW553/V1_MQTT_OK/GD32VW55X_Wifi_BLE_SDK/GD32VW55x_RELEASE_V1.0.2/MSDK/cloud/alicloud/src/services/linkkit/dm\dm_message.c ****     return _dm_msg_send_to_user(IOTX_DM_EVENT_CLOUD_CONNECTED, NULL);
 3527              		.loc 1 1847 5
 3528              		.loc 1 1847 12 is_stmt 0
 3529 0000 8145     		li	a1,0
 3530 0002 0145     		li	a0,0
 3531 0004 17030000 		tail	_dm_msg_send_to_user
 3531      67000300 
 3532              	.LVL444:
 3533              		.cfi_endproc
 3534              	.LFE44:
 3536              		.section	.text.dm_msg_cloud_disconnect,"ax",@progbits
 3537              		.align	1
 3538              		.globl	dm_msg_cloud_disconnect
 3540              	dm_msg_cloud_disconnect:
 3541              	.LFB45:
1848:C:/Users/stapi/OneDrive/Desktop/GD32VW553/V1_MQTT_OK/GD32VW55X_Wifi_BLE_SDK/GD32VW55x_RELEASE_V1.0.2/MSDK/cloud/alicloud/src/services/linkkit/dm\dm_message.c **** }
1849:C:/Users/stapi/OneDrive/Desktop/GD32VW553/V1_MQTT_OK/GD32VW55X_Wifi_BLE_SDK/GD32VW55x_RELEASE_V1.0.2/MSDK/cloud/alicloud/src/services/linkkit/dm\dm_message.c **** 
1850:C:/Users/stapi/OneDrive/Desktop/GD32VW553/V1_MQTT_OK/GD32VW55X_Wifi_BLE_SDK/GD32VW55x_RELEASE_V1.0.2/MSDK/cloud/alicloud/src/services/linkkit/dm\dm_message.c **** int dm_msg_cloud_disconnect(void)
1851:C:/Users/stapi/OneDrive/Desktop/GD32VW553/V1_MQTT_OK/GD32VW55X_Wifi_BLE_SDK/GD32VW55x_RELEASE_V1.0.2/MSDK/cloud/alicloud/src/services/linkkit/dm\dm_message.c **** {
 3542              		.loc 1 1851 1 is_stmt 1
 3543              		.cfi_startproc
1852:C:/Users/stapi/OneDrive/Desktop/GD32VW553/V1_MQTT_OK/GD32VW55X_Wifi_BLE_SDK/GD32VW55x_RELEASE_V1.0.2/MSDK/cloud/alicloud/src/services/linkkit/dm\dm_message.c ****     return _dm_msg_send_to_user(IOTX_DM_EVENT_CLOUD_DISCONNECT, NULL);
 3544              		.loc 1 1852 5
 3545              		.loc 1 1852 12 is_stmt 0
 3546 0000 8145     		li	a1,0
 3547 0002 0545     		li	a0,1
 3548 0004 17030000 		tail	_dm_msg_send_to_user
 3548      67000300 
 3549              	.LVL445:
 3550              		.cfi_endproc
 3551              	.LFE45:
 3553              		.section	.text.dm_msg_cloud_reconnect,"ax",@progbits
 3554              		.align	1
 3555              		.globl	dm_msg_cloud_reconnect
 3557              	dm_msg_cloud_reconnect:
 3558              	.LFB46:
1853:C:/Users/stapi/OneDrive/Desktop/GD32VW553/V1_MQTT_OK/GD32VW55X_Wifi_BLE_SDK/GD32VW55x_RELEASE_V1.0.2/MSDK/cloud/alicloud/src/services/linkkit/dm\dm_message.c **** }
1854:C:/Users/stapi/OneDrive/Desktop/GD32VW553/V1_MQTT_OK/GD32VW55X_Wifi_BLE_SDK/GD32VW55x_RELEASE_V1.0.2/MSDK/cloud/alicloud/src/services/linkkit/dm\dm_message.c **** 
1855:C:/Users/stapi/OneDrive/Desktop/GD32VW553/V1_MQTT_OK/GD32VW55X_Wifi_BLE_SDK/GD32VW55x_RELEASE_V1.0.2/MSDK/cloud/alicloud/src/services/linkkit/dm\dm_message.c **** int dm_msg_cloud_reconnect(void)
1856:C:/Users/stapi/OneDrive/Desktop/GD32VW553/V1_MQTT_OK/GD32VW55X_Wifi_BLE_SDK/GD32VW55x_RELEASE_V1.0.2/MSDK/cloud/alicloud/src/services/linkkit/dm\dm_message.c **** {
 3559              		.loc 1 1856 1 is_stmt 1
 3560              		.cfi_startproc
 3561 0000 17030000 		call	t0,__riscv_save_0
 3561      E7020300 
 3562              		.cfi_offset 1, -4
 3563              		.cfi_def_cfa_offset 16
1857:C:/Users/stapi/OneDrive/Desktop/GD32VW553/V1_MQTT_OK/GD32VW55X_Wifi_BLE_SDK/GD32VW55x_RELEASE_V1.0.2/MSDK/cloud/alicloud/src/services/linkkit/dm\dm_message.c ****     int res = 0;
 3564              		.loc 1 1857 5
 3565              	.LVL446:
1858:C:/Users/stapi/OneDrive/Desktop/GD32VW553/V1_MQTT_OK/GD32VW55X_Wifi_BLE_SDK/GD32VW55x_RELEASE_V1.0.2/MSDK/cloud/alicloud/src/services/linkkit/dm\dm_message.c ****     char product_key[PRODUCT_KEY_MAXLEN] = {0};
 3566              		.loc 1 1858 5
1856:C:/Users/stapi/OneDrive/Desktop/GD32VW553/V1_MQTT_OK/GD32VW55X_Wifi_BLE_SDK/GD32VW55x_RELEASE_V1.0.2/MSDK/cloud/alicloud/src/services/linkkit/dm\dm_message.c ****     int res = 0;
 3567              		.loc 1 1856 1 is_stmt 0
 3568 0008 3971     		addi	sp,sp,-64
 3569              		.cfi_def_cfa_offset 80
1859:C:/Users/stapi/OneDrive/Desktop/GD32VW553/V1_MQTT_OK/GD32VW55X_Wifi_BLE_SDK/GD32VW55x_RELEASE_V1.0.2/MSDK/cloud/alicloud/src/services/linkkit/dm\dm_message.c ****     char device_name[DEVICE_NAME_MAXLEN] = {0};
 3570              		.loc 1 1859 10
 3571 000a 7546     		li	a2,29
 3572 000c 8145     		li	a1,0
 3573 000e 0810     		addi	a0,sp,32
1858:C:/Users/stapi/OneDrive/Desktop/GD32VW553/V1_MQTT_OK/GD32VW55X_Wifi_BLE_SDK/GD32VW55x_RELEASE_V1.0.2/MSDK/cloud/alicloud/src/services/linkkit/dm\dm_message.c ****     char product_key[PRODUCT_KEY_MAXLEN] = {0};
 3574              		.loc 1 1858 10
 3575 0010 02C2     		sw	zero,4(sp)
 3576 0012 02C4     		sw	zero,8(sp)
 3577 0014 02C6     		sw	zero,12(sp)
 3578 0016 02C8     		sw	zero,16(sp)
 3579 0018 02CA     		sw	zero,20(sp)
 3580 001a 230C0100 		sb	zero,24(sp)
 3581              		.loc 1 1859 5 is_stmt 1
 3582              		.loc 1 1859 10 is_stmt 0
 3583 001e 02CE     		sw	zero,28(sp)
 3584 0020 97000000 		call	memset
 3584      E7800000 
 3585              	.LVL447:
1860:C:/Users/stapi/OneDrive/Desktop/GD32VW553/V1_MQTT_OK/GD32VW55X_Wifi_BLE_SDK/GD32VW55x_RELEASE_V1.0.2/MSDK/cloud/alicloud/src/services/linkkit/dm\dm_message.c **** 
1861:C:/Users/stapi/OneDrive/Desktop/GD32VW553/V1_MQTT_OK/GD32VW55X_Wifi_BLE_SDK/GD32VW55x_RELEASE_V1.0.2/MSDK/cloud/alicloud/src/services/linkkit/dm\dm_message.c ****     HAL_GetProductKey(product_key);
 3586              		.loc 1 1861 5 is_stmt 1
 3587 0028 4800     		addi	a0,sp,4
 3588 002a 97000000 		call	HAL_GetProductKey
 3588      E7800000 
 3589              	.LVL448:
1862:C:/Users/stapi/OneDrive/Desktop/GD32VW553/V1_MQTT_OK/GD32VW55X_Wifi_BLE_SDK/GD32VW55x_RELEASE_V1.0.2/MSDK/cloud/alicloud/src/services/linkkit/dm\dm_message.c ****     HAL_GetDeviceName(device_name);
 3590              		.loc 1 1862 5
 3591 0032 6808     		addi	a0,sp,28
 3592 0034 97000000 		call	HAL_GetDeviceName
 3592      E7800000 
 3593              	.LVL449:
1863:C:/Users/stapi/OneDrive/Desktop/GD32VW553/V1_MQTT_OK/GD32VW55X_Wifi_BLE_SDK/GD32VW55x_RELEASE_V1.0.2/MSDK/cloud/alicloud/src/services/linkkit/dm\dm_message.c **** 
1864:C:/Users/stapi/OneDrive/Desktop/GD32VW553/V1_MQTT_OK/GD32VW55X_Wifi_BLE_SDK/GD32VW55x_RELEASE_V1.0.2/MSDK/cloud/alicloud/src/services/linkkit/dm\dm_message.c ****     /* Send To User */
1865:C:/Users/stapi/OneDrive/Desktop/GD32VW553/V1_MQTT_OK/GD32VW55X_Wifi_BLE_SDK/GD32VW55x_RELEASE_V1.0.2/MSDK/cloud/alicloud/src/services/linkkit/dm\dm_message.c ****     res = _dm_msg_send_to_user(IOTX_DM_EVENT_CLOUD_RECONNECT, NULL);
 3594              		.loc 1 1865 5
 3595              		.loc 1 1865 11 is_stmt 0
 3596 003c 8145     		li	a1,0
 3597 003e 0945     		li	a0,2
 3598 0040 97000000 		call	_dm_msg_send_to_user
 3598      E7800000 
 3599              	.LVL450:
1866:C:/Users/stapi/OneDrive/Desktop/GD32VW553/V1_MQTT_OK/GD32VW55X_Wifi_BLE_SDK/GD32VW55x_RELEASE_V1.0.2/MSDK/cloud/alicloud/src/services/linkkit/dm\dm_message.c **** 
1867:C:/Users/stapi/OneDrive/Desktop/GD32VW553/V1_MQTT_OK/GD32VW55X_Wifi_BLE_SDK/GD32VW55x_RELEASE_V1.0.2/MSDK/cloud/alicloud/src/services/linkkit/dm\dm_message.c ****     return res;
 3600              		.loc 1 1867 5 is_stmt 1
1868:C:/Users/stapi/OneDrive/Desktop/GD32VW553/V1_MQTT_OK/GD32VW55X_Wifi_BLE_SDK/GD32VW55x_RELEASE_V1.0.2/MSDK/cloud/alicloud/src/services/linkkit/dm\dm_message.c **** }
 3601              		.loc 1 1868 1 is_stmt 0
 3602 0048 2161     		addi	sp,sp,64
 3603              		.cfi_def_cfa_offset 0
 3604 004a 17030000 		tail	__riscv_restore_0
 3604      67000300 
 3605              		.cfi_restore 1
 3606              		.cfi_def_cfa_offset -16
 3607              		.cfi_endproc
 3608              	.LFE46:
 3610              		.globl	DM_MSG_THING_NTP_RESPONSE_FMT
 3611              		.globl	DM_MSG_EVENT_NOTIFY_FMT
 3612              		.globl	DM_MSG_EVENT_RRPC_REQUEST_FMT
 3613              		.globl	DM_MSG_EVENT_EVENT_NOTIFY_REPLY_FMT
 3614              		.globl	DM_MSG_EVENT_SPECIFIC_POST_REPLY_FMT
 3615              		.globl	DM_MSG_EVENT_DEVICEINFO_DELETE_REPLY_FMT
 3616              		.globl	DM_MSG_EVENT_DEVICEINFO_UPDATE_REPLY_FMT
 3617              		.globl	DM_MSG_EVENT_PROPERTY_POST_REPLY_FMT
 3618              		.globl	DM_MSG_SERVICE_REQUEST_FMT
 3619              		.globl	DM_MSG_THING_PROPERTY_GET_FMT
 3620              		.globl	DM_MSG_PROPERTY_SET_FMT
 3621              		.globl	DM_MSG_THING_MODEL_UP_RAW_REPLY_FMT
 3622              		.globl	DM_MSG_THING_MODEL_DOWN_FMT
 3623              		.globl	DM_MSG_RESPONSE_WITH_DATA
 3624              		.globl	DM_MSG_REQUEST_NEW
 3625              		.globl	DM_MSG_REQUEST
 3626              		.globl	DM_MSG_SEND_MSG_TIMEOUT_FMT
 3627              		.section	.rodata.DM_MSG_EVENT_DEVICEINFO_DELETE_REPLY_FMT,"a"
 3628              		.align	2
 3629              		.set	.LANCHOR13,. + 0
 3632              	DM_MSG_EVENT_DEVICEINFO_DELETE_REPLY_FMT:
 3633 0000 7B226964 		.string	"{\"id\":%d,\"code\":%d,\"devid\":%d}"
 3633      223A2564 
 3633      2C22636F 
 3633      6465223A 
 3633      25642C22 
 3634              		.section	.rodata.DM_MSG_EVENT_DEVICEINFO_UPDATE_REPLY_FMT,"a"
 3635              		.align	2
 3636              		.set	.LANCHOR12,. + 0
 3639              	DM_MSG_EVENT_DEVICEINFO_UPDATE_REPLY_FMT:
 3640 0000 7B226964 		.string	"{\"id\":%d,\"code\":%d,\"devid\":%d}"
 3640      223A2564 
 3640      2C22636F 
 3640      6465223A 
 3640      25642C22 
 3641              		.section	.rodata.DM_MSG_EVENT_EVENT_NOTIFY_REPLY_FMT,"a"
 3642              		.align	2
 3643              		.set	.LANCHOR15,. + 0
 3646              	DM_MSG_EVENT_EVENT_NOTIFY_REPLY_FMT:
 3647 0000 7B226964 		.string	"{\"id\":%d,\"code\":%d,\"devid\":%d,\"payload\":%.*s}"
 3647      223A2564 
 3647      2C22636F 
 3647      6465223A 
 3647      25642C22 
 3648              		.section	.rodata.DM_MSG_EVENT_NOTIFY_FMT,"a"
 3649              		.align	2
 3650              		.set	.LANCHOR17,. + 0
 3653              	DM_MSG_EVENT_NOTIFY_FMT:
 3654 0000 7B226465 		.string	"{\"devid\":%d,\"payload\":%.*s}"
 3654      76696422 
 3654      3A25642C 
 3654      22706179 
 3654      6C6F6164 
 3655              		.section	.rodata.DM_MSG_EVENT_PROPERTY_POST_REPLY_FMT,"a"
 3656              		.align	2
 3657              		.set	.LANCHOR11,. + 0
 3660              	DM_MSG_EVENT_PROPERTY_POST_REPLY_FMT:
 3661 0000 7B226964 		.string	"{\"id\":%d,\"code\":%d,\"devid\":%d,\"payload\":%.*s}"
 3661      223A2564 
 3661      2C22636F 
 3661      6465223A 
 3661      25642C22 
 3662              		.section	.rodata.DM_MSG_EVENT_RRPC_REQUEST_FMT,"a"
 3663              		.align	2
 3664              		.set	.LANCHOR16,. + 0
 3667              	DM_MSG_EVENT_RRPC_REQUEST_FMT:
 3668 0000 7B226964 		.string	"{\"id\":\"%.*s\",\"devid\":%d,\"serviceid\":\"%.*s\",\"rrpcid\":\"%.*s\",\"payload\":%.*s
 3668      223A2225 
 3668      2E2A7322 
 3668      2C226465 
 3668      76696422 
 3669              		.section	.rodata.DM_MSG_EVENT_SPECIFIC_POST_REPLY_FMT,"a"
 3670              		.align	2
 3671              		.set	.LANCHOR14,. + 0
 3674              	DM_MSG_EVENT_SPECIFIC_POST_REPLY_FMT:
 3675 0000 7B226964 		.string	"{\"id\":%d,\"code\":%d,\"devid\":%d,\"eventid\":\"%.*s\",\"payload\":\"%.*s\"}"
 3675      223A2564 
 3675      2C22636F 
 3675      6465223A 
 3675      25642C22 
 3676              		.section	.rodata.DM_MSG_PROPERTY_SET_FMT,"a"
 3677              		.align	2
 3678              		.set	.LANCHOR8,. + 0
 3681              	DM_MSG_PROPERTY_SET_FMT:
 3682 0000 7B226465 		.string	"{\"devid\":%d,\"payload\":%.*s}"
 3682      76696422 
 3682      3A25642C 
 3682      22706179 
 3682      6C6F6164 
 3683              		.section	.rodata.DM_MSG_REQUEST,"a"
 3684              		.align	2
 3685              		.set	.LANCHOR5,. + 0
 3688              	DM_MSG_REQUEST:
 3689 0000 7B226964 		.string	"{\"id\":\"%d\",\"version\":\"%s\",\"params\":%.*s,\"method\":\"%s\"}"
 3689      223A2225 
 3689      64222C22 
 3689      76657273 
 3689      696F6E22 
 3690              		.section	.rodata.DM_MSG_REQUEST_NEW,"a"
 3691              		.align	2
 3692              		.set	.LANCHOR4,. + 0
 3695              	DM_MSG_REQUEST_NEW:
 3696 0000 7B226964 		.string	"{\"id\":\"%d\",\"version\":\"%s\",\"data\":%.*s,\"method\":\"%s\"}"
 3696      223A2225 
 3696      64222C22 
 3696      76657273 
 3696      696F6E22 
 3697              		.section	.rodata.DM_MSG_RESPONSE_WITH_DATA,"a"
 3698              		.align	2
 3699              		.set	.LANCHOR6,. + 0
 3702              	DM_MSG_RESPONSE_WITH_DATA:
 3703 0000 7B226964 		.string	"{\"id\":\"%.*s\",\"code\":%d,\"data\":%.*s}"
 3703      223A2225 
 3703      2E2A7322 
 3703      2C22636F 
 3703      6465223A 
 3704              		.section	.rodata.DM_MSG_SEND_MSG_TIMEOUT_FMT,"a"
 3705              		.align	2
 3706              		.set	.LANCHOR1,. + 0
 3709              	DM_MSG_SEND_MSG_TIMEOUT_FMT:
 3710 0000 7B226964 		.string	"{\"id\":%d,\"code\":%d,\"devid\":%d}"
 3710      223A2564 
 3710      2C22636F 
 3710      6465223A 
 3710      25642C22 
 3711              		.section	.rodata.DM_MSG_SERVICE_REQUEST_FMT,"a"
 3712              		.align	2
 3713              		.set	.LANCHOR10,. + 0
 3716              	DM_MSG_SERVICE_REQUEST_FMT:
 3717 0000 7B226964 		.string	"{\"id\":\"%.*s\",\"devid\":%d,\"serviceid\":\"%.*s\",\"payload\":%.*s,\"ctx\":\"%s\"}"
 3717      223A2225 
 3717      2E2A7322 
 3717      2C226465 
 3717      76696422 
 3718              		.section	.rodata.DM_MSG_THING_MODEL_DOWN_FMT,"a"
 3719              		.align	2
 3720              		.set	.LANCHOR7,. + 0
 3723              	DM_MSG_THING_MODEL_DOWN_FMT:
 3724 0000 7B226465 		.string	"{\"devid\":%d,\"payload\":\"%.*s\"}"
 3724      76696422 
 3724      3A25642C 
 3724      22706179 
 3724      6C6F6164 
 3725              		.section	.rodata.DM_MSG_THING_MODEL_UP_RAW_REPLY_FMT,"a"
 3726              		.align	2
 3729              	DM_MSG_THING_MODEL_UP_RAW_REPLY_FMT:
 3730 0000 7B226465 		.string	"{\"devid\":%d,\"payload\":\"%.*s\"}"
 3730      76696422 
 3730      3A25642C 
 3730      22706179 
 3730      6C6F6164 
 3731              		.section	.rodata.DM_MSG_THING_NTP_RESPONSE_FMT,"a"
 3732              		.align	2
 3733              		.set	.LANCHOR18,. + 0
 3736              	DM_MSG_THING_NTP_RESPONSE_FMT:
 3737 0000 7B227574 		.string	"{\"utc\":\"%.*s\"}"
 3737      63223A22 
 3737      252E2A73 
 3737      227D00
 3738              		.section	.rodata.DM_MSG_THING_PROPERTY_GET_FMT,"a"
 3739              		.align	2
 3740              		.set	.LANCHOR9,. + 0
 3743              	DM_MSG_THING_PROPERTY_GET_FMT:
 3744 0000 7B226964 		.string	"{\"id\":\"%.*s\",\"devid\":%d,\"payload\":%.*s,\"ctx\":\"%s\"}"
 3744      223A2225 
 3744      2E2A7322 
 3744      2C226465 
 3744      76696422 
 3745              		.section	.rodata.__FUNCTION__.0,"a"
 3746              		.align	2
 3747              		.set	.LANCHOR3,. + 0
 3750              	__FUNCTION__.0:
 3751 0000 646D5F6D 		.string	"dm_msg_response_parse"
 3751      73675F72 
 3751      6573706F 
 3751      6E73655F 
 3751      70617273 
 3752              		.section	.rodata.__FUNCTION__.1,"a"
 3753              		.align	2
 3754              		.set	.LANCHOR2,. + 0
 3757              	__FUNCTION__.1:
 3758 0000 646D5F6D 		.string	"dm_msg_request_parse"
 3758      73675F72 
 3758      65717565 
 3758      73745F70 
 3758      61727365 
 3759              		.section	.sbss.g_dm_msg_ctx,"aw",@nobits
 3760              		.align	2
 3761              		.set	.LANCHOR0,. + 0
 3764              	g_dm_msg_ctx:
 3765 0000 00000000 		.zero	4
 3766              		.text
 3767              	.Letext0:
 3768              		.file 2 "c:\\users\\stapi\\onedrive\\desktop\\gd32vw553\\embeddedbuilder_v1.4.7.26843\\tools\\nucl
 3769              		.file 3 "c:\\users\\stapi\\onedrive\\desktop\\gd32vw553\\embeddedbuilder_v1.4.7.26843\\tools\\nucl
 3770              		.file 4 "..\\..\\..\\..\\cloud\\alicloud\\src\\infra\\utils\\misc/lite-cjson.h"
 3771              		.file 5 "..\\..\\..\\..\\cloud\\alicloud\\src\\infra\\utils\\misc/lite-list.h"
 3772              		.file 6 "..\\..\\..\\..\\cloud\\alicloud\\src\\services\\linkkit\\cm\\include/iotx_cm.h"
 3773              		.file 7 "C:/Users/stapi/OneDrive/Desktop/GD32VW553/V1_MQTT_OK/GD32VW55X_Wifi_BLE_SDK/GD32VW55x_REL
 3774              		.file 8 "C:/Users/stapi/OneDrive/Desktop/GD32VW553/V1_MQTT_OK/GD32VW55X_Wifi_BLE_SDK/GD32VW55x_REL
 3775              		.file 9 "C:/Users/stapi/OneDrive/Desktop/GD32VW553/V1_MQTT_OK/GD32VW55X_Wifi_BLE_SDK/GD32VW55x_REL
 3776              		.file 10 "C:/Users/stapi/OneDrive/Desktop/GD32VW553/V1_MQTT_OK/GD32VW55X_Wifi_BLE_SDK/GD32VW55x_RE
 3777              		.file 11 "..\\..\\..\\..\\cloud\\alicloud\\include/imports/iot_import_product.h"
 3778              		.file 12 "..\\..\\..\\..\\cloud\\alicloud\\src\\infra\\utils/iotx_utils.h"
 3779              		.file 13 "c:\\users\\stapi\\onedrive\\desktop\\gd32vw553\\embeddedbuilder_v1.4.7.26843\\tools\\nuc
 3780              		.file 14 "C:/Users/stapi/OneDrive/Desktop/GD32VW553/V1_MQTT_OK/GD32VW55X_Wifi_BLE_SDK/GD32VW55x_RE
 3781              		.file 15 "<built-in>"
 3782              		.file 16 "c:\\users\\stapi\\onedrive\\desktop\\gd32vw553\\embeddedbuilder_v1.4.7.26843\\tools\\nuc
 3783              		.file 17 "..\\..\\..\\..\\cloud\\alicloud\\include/iot_import.h"
 3784              		.file 18 "C:/Users/stapi/OneDrive/Desktop/GD32VW553/V1_MQTT_OK/GD32VW55X_Wifi_BLE_SDK/GD32VW55x_RE
 3785              		.file 19 "..\\..\\..\\..\\cloud\\alicloud\\src\\services\\linkkit\\dm\\client/dm_client_adapter.h"
 3786              		.file 20 "..\\..\\..\\..\\cloud\\alicloud\\src\\infra\\log/iotx_log.h"
 3787              		.file 21 "..\\..\\..\\..\\cloud\\alicloud\\include/exports/iot_export_errno.h"
DEFINED SYMBOLS
                            *ABS*:0000000000000000 dm_message.c
C:\Users\stapi\AppData\Local\Temp\ccpaGqeF.s:13     .text.dm_msg_init:0000000000000000 dm_msg_init
C:\Users\stapi\AppData\Local\Temp\ccpaGqeF.s:17     .text.dm_msg_init:0000000000000000 .L0 
C:\Users\stapi\AppData\Local\Temp\ccpaGqeF.s:18     .text.dm_msg_init:0000000000000000 .L0 
C:\Users\stapi\AppData\Local\Temp\ccpaGqeF.s:19     .text.dm_msg_init:0000000000000000 .L0 
C:\Users\stapi\AppData\Local\Temp\ccpaGqeF.s:21     .text.dm_msg_init:0000000000000000 .L0 
C:\Users\stapi\AppData\Local\Temp\ccpaGqeF.s:22     .text.dm_msg_init:0000000000000000 .L0 
C:\Users\stapi\AppData\Local\Temp\ccpaGqeF.s:25     .text.dm_msg_init:0000000000000008 .L0 
C:\Users\stapi\AppData\Local\Temp\ccpaGqeF.s:26     .text.dm_msg_init:0000000000000008 .L0 
C:\Users\stapi\AppData\Local\Temp\ccpaGqeF.s:28     .text.dm_msg_init:000000000000000c .L0 
C:\Users\stapi\AppData\Local\Temp\ccpaGqeF.s:35     .text.dm_msg_deinit:0000000000000000 dm_msg_deinit
C:\Users\stapi\AppData\Local\Temp\ccpaGqeF.s:37     .text.dm_msg_deinit:0000000000000000 .L0 
C:\Users\stapi\AppData\Local\Temp\ccpaGqeF.s:39     .text.dm_msg_deinit:0000000000000008 .L0 
C:\Users\stapi\AppData\Local\Temp\ccpaGqeF.s:46     .text._dm_msg_send_to_user:0000000000000000 _dm_msg_send_to_user
C:\Users\stapi\AppData\Local\Temp\ccpaGqeF.s:49     .text._dm_msg_send_to_user:0000000000000000 .L0 
C:\Users\stapi\AppData\Local\Temp\ccpaGqeF.s:51     .text._dm_msg_send_to_user:0000000000000000 .L0 
C:\Users\stapi\AppData\Local\Temp\ccpaGqeF.s:52     .text._dm_msg_send_to_user:0000000000000000 .L0 
C:\Users\stapi\AppData\Local\Temp\ccpaGqeF.s:53     .text._dm_msg_send_to_user:0000000000000008 .L0 
C:\Users\stapi\AppData\Local\Temp\ccpaGqeF.s:54     .text._dm_msg_send_to_user:0000000000000008 .L0 
C:\Users\stapi\AppData\Local\Temp\ccpaGqeF.s:55     .text._dm_msg_send_to_user:0000000000000008 .L0 
C:\Users\stapi\AppData\Local\Temp\ccpaGqeF.s:56     .text._dm_msg_send_to_user:0000000000000008 .L0 
C:\Users\stapi\AppData\Local\Temp\ccpaGqeF.s:57     .text._dm_msg_send_to_user:0000000000000008 .L0 
C:\Users\stapi\AppData\Local\Temp\ccpaGqeF.s:60     .text._dm_msg_send_to_user:0000000000000008 .L0 
C:\Users\stapi\AppData\Local\Temp\ccpaGqeF.s:61     .text._dm_msg_send_to_user:0000000000000008 .L0 
C:\Users\stapi\AppData\Local\Temp\ccpaGqeF.s:62     .text._dm_msg_send_to_user:0000000000000008 .L0 
C:\Users\stapi\AppData\Local\Temp\ccpaGqeF.s:63     .text._dm_msg_send_to_user:0000000000000008 .L0 
C:\Users\stapi\AppData\Local\Temp\ccpaGqeF.s:66     .text._dm_msg_send_to_user:000000000000000c .L0 
C:\Users\stapi\AppData\Local\Temp\ccpaGqeF.s:74     .text._dm_msg_send_to_user:000000000000001a .L0 
C:\Users\stapi\AppData\Local\Temp\ccpaGqeF.s:75     .text._dm_msg_send_to_user:000000000000001a .L0 
C:\Users\stapi\AppData\Local\Temp\ccpaGqeF.s:77     .text._dm_msg_send_to_user:000000000000001c .L0 
C:\Users\stapi\AppData\Local\Temp\ccpaGqeF.s:79     .text._dm_msg_send_to_user:0000000000000020 .L0 
C:\Users\stapi\AppData\Local\Temp\ccpaGqeF.s:82     .text._dm_msg_send_to_user:0000000000000024 .L0 
C:\Users\stapi\AppData\Local\Temp\ccpaGqeF.s:83     .text._dm_msg_send_to_user:0000000000000024 .L0 
C:\Users\stapi\AppData\Local\Temp\ccpaGqeF.s:84     .text._dm_msg_send_to_user:0000000000000024 .L0 
C:\Users\stapi\AppData\Local\Temp\ccpaGqeF.s:85     .text._dm_msg_send_to_user:0000000000000024 .L0 
C:\Users\stapi\AppData\Local\Temp\ccpaGqeF.s:86     .text._dm_msg_send_to_user:0000000000000024 .L0 
C:\Users\stapi\AppData\Local\Temp\ccpaGqeF.s:89     .text._dm_msg_send_to_user:000000000000002c .L0 
C:\Users\stapi\AppData\Local\Temp\ccpaGqeF.s:90     .text._dm_msg_send_to_user:000000000000002c .L0 
C:\Users\stapi\AppData\Local\Temp\ccpaGqeF.s:92     .text._dm_msg_send_to_user:000000000000002e .L0 
C:\Users\stapi\AppData\Local\Temp\ccpaGqeF.s:97     .text._dm_msg_send_to_user:0000000000000038 .L0 
C:\Users\stapi\AppData\Local\Temp\ccpaGqeF.s:98     .text._dm_msg_send_to_user:0000000000000038 .L0 
C:\Users\stapi\AppData\Local\Temp\ccpaGqeF.s:99     .text._dm_msg_send_to_user:0000000000000038 .L0 
C:\Users\stapi\AppData\Local\Temp\ccpaGqeF.s:100    .text._dm_msg_send_to_user:0000000000000038 .L0 
C:\Users\stapi\AppData\Local\Temp\ccpaGqeF.s:104    .text._dm_msg_send_to_user:000000000000003a .L0 
C:\Users\stapi\AppData\Local\Temp\ccpaGqeF.s:105    .text._dm_msg_send_to_user:0000000000000042 .L0 
C:\Users\stapi\AppData\Local\Temp\ccpaGqeF.s:106    .text._dm_msg_send_to_user:0000000000000042 .L0 
C:\Users\stapi\AppData\Local\Temp\ccpaGqeF.s:107    .text._dm_msg_send_to_user:0000000000000042 .L0 
C:\Users\stapi\AppData\Local\Temp\ccpaGqeF.s:108    .text._dm_msg_send_to_user:0000000000000042 .L0 
C:\Users\stapi\AppData\Local\Temp\ccpaGqeF.s:109    .text._dm_msg_send_to_user:0000000000000042 .L0 
C:\Users\stapi\AppData\Local\Temp\ccpaGqeF.s:110    .text._dm_msg_send_to_user:0000000000000042 .L0 
C:\Users\stapi\AppData\Local\Temp\ccpaGqeF.s:113    .text._dm_msg_send_to_user:0000000000000042 .L0 
C:\Users\stapi\AppData\Local\Temp\ccpaGqeF.s:115    .text._dm_msg_send_to_user:0000000000000042 .L0 
C:\Users\stapi\AppData\Local\Temp\ccpaGqeF.s:118    .text._dm_msg_send_to_user:0000000000000046 .L0 
C:\Users\stapi\AppData\Local\Temp\ccpaGqeF.s:125    .text.dm_msg_send_msg_timeout_to_user:0000000000000000 dm_msg_send_msg_timeout_to_user
C:\Users\stapi\AppData\Local\Temp\ccpaGqeF.s:128    .text.dm_msg_send_msg_timeout_to_user:0000000000000000 .L0 
C:\Users\stapi\AppData\Local\Temp\ccpaGqeF.s:130    .text.dm_msg_send_msg_timeout_to_user:0000000000000000 .L0 
C:\Users\stapi\AppData\Local\Temp\ccpaGqeF.s:131    .text.dm_msg_send_msg_timeout_to_user:0000000000000008 .L0 
C:\Users\stapi\AppData\Local\Temp\ccpaGqeF.s:132    .text.dm_msg_send_msg_timeout_to_user:0000000000000008 .L0 
C:\Users\stapi\AppData\Local\Temp\ccpaGqeF.s:133    .text.dm_msg_send_msg_timeout_to_user:0000000000000008 .L0 
C:\Users\stapi\AppData\Local\Temp\ccpaGqeF.s:134    .text.dm_msg_send_msg_timeout_to_user:0000000000000008 .L0 
C:\Users\stapi\AppData\Local\Temp\ccpaGqeF.s:135    .text.dm_msg_send_msg_timeout_to_user:0000000000000008 .L0 
C:\Users\stapi\AppData\Local\Temp\ccpaGqeF.s:136    .text.dm_msg_send_msg_timeout_to_user:0000000000000008 .L0 
C:\Users\stapi\AppData\Local\Temp\ccpaGqeF.s:139    .text.dm_msg_send_msg_timeout_to_user:0000000000000008 .L0 
C:\Users\stapi\AppData\Local\Temp\ccpaGqeF.s:140    .text.dm_msg_send_msg_timeout_to_user:0000000000000008 .L0 
C:\Users\stapi\AppData\Local\Temp\ccpaGqeF.s:141    .text.dm_msg_send_msg_timeout_to_user:0000000000000008 .L0 
C:\Users\stapi\AppData\Local\Temp\ccpaGqeF.s:142    .text.dm_msg_send_msg_timeout_to_user:0000000000000008 .L0 
C:\Users\stapi\AppData\Local\Temp\ccpaGqeF.s:143    .text.dm_msg_send_msg_timeout_to_user:0000000000000008 .L0 
C:\Users\stapi\AppData\Local\Temp\ccpaGqeF.s:147    .text.dm_msg_send_msg_timeout_to_user:000000000000000e .L0 
C:\Users\stapi\AppData\Local\Temp\ccpaGqeF.s:156    .text.dm_msg_send_msg_timeout_to_user:000000000000001e .L0 
C:\Users\stapi\AppData\Local\Temp\ccpaGqeF.s:157    .text.dm_msg_send_msg_timeout_to_user:000000000000001e .L0 
C:\Users\stapi\AppData\Local\Temp\ccpaGqeF.s:159    .text.dm_msg_send_msg_timeout_to_user:0000000000000020 .L0 
C:\Users\stapi\AppData\Local\Temp\ccpaGqeF.s:163    .text.dm_msg_send_msg_timeout_to_user:0000000000000028 .L0 
C:\Users\stapi\AppData\Local\Temp\ccpaGqeF.s:166    .text.dm_msg_send_msg_timeout_to_user:0000000000000030 .L0 
C:\Users\stapi\AppData\Local\Temp\ccpaGqeF.s:177    .text.dm_msg_send_msg_timeout_to_user:0000000000000050 .L0 
C:\Users\stapi\AppData\Local\Temp\ccpaGqeF.s:178    .text.dm_msg_send_msg_timeout_to_user:0000000000000050 .L0 
C:\Users\stapi\AppData\Local\Temp\ccpaGqeF.s:183    .text.dm_msg_send_msg_timeout_to_user:000000000000005c .L0 
C:\Users\stapi\AppData\Local\Temp\ccpaGqeF.s:184    .text.dm_msg_send_msg_timeout_to_user:000000000000005c .L0 
C:\Users\stapi\AppData\Local\Temp\ccpaGqeF.s:186    .text.dm_msg_send_msg_timeout_to_user:000000000000005e .L0 
C:\Users\stapi\AppData\Local\Temp\ccpaGqeF.s:191    .text.dm_msg_send_msg_timeout_to_user:0000000000000068 .L0 
C:\Users\stapi\AppData\Local\Temp\ccpaGqeF.s:192    .text.dm_msg_send_msg_timeout_to_user:0000000000000068 .L0 
C:\Users\stapi\AppData\Local\Temp\ccpaGqeF.s:193    .text.dm_msg_send_msg_timeout_to_user:0000000000000068 .L0 
C:\Users\stapi\AppData\Local\Temp\ccpaGqeF.s:194    .text.dm_msg_send_msg_timeout_to_user:0000000000000068 .L0 
C:\Users\stapi\AppData\Local\Temp\ccpaGqeF.s:198    .text.dm_msg_send_msg_timeout_to_user:000000000000006a .L0 
C:\Users\stapi\AppData\Local\Temp\ccpaGqeF.s:199    .text.dm_msg_send_msg_timeout_to_user:0000000000000072 .L0 
C:\Users\stapi\AppData\Local\Temp\ccpaGqeF.s:200    .text.dm_msg_send_msg_timeout_to_user:0000000000000072 .L0 
C:\Users\stapi\AppData\Local\Temp\ccpaGqeF.s:201    .text.dm_msg_send_msg_timeout_to_user:0000000000000072 .L0 
C:\Users\stapi\AppData\Local\Temp\ccpaGqeF.s:202    .text.dm_msg_send_msg_timeout_to_user:0000000000000072 .L0 
C:\Users\stapi\AppData\Local\Temp\ccpaGqeF.s:203    .text.dm_msg_send_msg_timeout_to_user:0000000000000072 .L0 
C:\Users\stapi\AppData\Local\Temp\ccpaGqeF.s:204    .text.dm_msg_send_msg_timeout_to_user:0000000000000072 .L0 
C:\Users\stapi\AppData\Local\Temp\ccpaGqeF.s:205    .text.dm_msg_send_msg_timeout_to_user:0000000000000072 .L0 
C:\Users\stapi\AppData\Local\Temp\ccpaGqeF.s:208    .text.dm_msg_send_msg_timeout_to_user:0000000000000072 .L0 
C:\Users\stapi\AppData\Local\Temp\ccpaGqeF.s:210    .text.dm_msg_send_msg_timeout_to_user:0000000000000072 .L0 
C:\Users\stapi\AppData\Local\Temp\ccpaGqeF.s:213    .text.dm_msg_send_msg_timeout_to_user:0000000000000076 .L0 
C:\Users\stapi\AppData\Local\Temp\ccpaGqeF.s:220    .text.dm_msg_uri_parse_pkdn:0000000000000000 dm_msg_uri_parse_pkdn
C:\Users\stapi\AppData\Local\Temp\ccpaGqeF.s:223    .text.dm_msg_uri_parse_pkdn:0000000000000000 .L0 
C:\Users\stapi\AppData\Local\Temp\ccpaGqeF.s:225    .text.dm_msg_uri_parse_pkdn:0000000000000000 .L0 
C:\Users\stapi\AppData\Local\Temp\ccpaGqeF.s:226    .text.dm_msg_uri_parse_pkdn:0000000000000008 .L0 
C:\Users\stapi\AppData\Local\Temp\ccpaGqeF.s:227    .text.dm_msg_uri_parse_pkdn:0000000000000008 .L0 
C:\Users\stapi\AppData\Local\Temp\ccpaGqeF.s:228    .text.dm_msg_uri_parse_pkdn:0000000000000008 .L0 
C:\Users\stapi\AppData\Local\Temp\ccpaGqeF.s:229    .text.dm_msg_uri_parse_pkdn:0000000000000008 .L0 
C:\Users\stapi\AppData\Local\Temp\ccpaGqeF.s:230    .text.dm_msg_uri_parse_pkdn:0000000000000008 .L0 
C:\Users\stapi\AppData\Local\Temp\ccpaGqeF.s:231    .text.dm_msg_uri_parse_pkdn:0000000000000008 .L0 
C:\Users\stapi\AppData\Local\Temp\ccpaGqeF.s:232    .text.dm_msg_uri_parse_pkdn:0000000000000008 .L0 
C:\Users\stapi\AppData\Local\Temp\ccpaGqeF.s:233    .text.dm_msg_uri_parse_pkdn:0000000000000008 .L0 
C:\Users\stapi\AppData\Local\Temp\ccpaGqeF.s:234    .text.dm_msg_uri_parse_pkdn:0000000000000008 .L0 
C:\Users\stapi\AppData\Local\Temp\ccpaGqeF.s:237    .text.dm_msg_uri_parse_pkdn:0000000000000008 .L0 
C:\Users\stapi\AppData\Local\Temp\ccpaGqeF.s:238    .text.dm_msg_uri_parse_pkdn:0000000000000008 .L0 
C:\Users\stapi\AppData\Local\Temp\ccpaGqeF.s:239    .text.dm_msg_uri_parse_pkdn:000000000000000a .L0 
C:\Users\stapi\AppData\Local\Temp\ccpaGqeF.s:241    .text.dm_msg_uri_parse_pkdn:000000000000000a .L0 
C:\Users\stapi\AppData\Local\Temp\ccpaGqeF.s:243    .text.dm_msg_uri_parse_pkdn:000000000000000c .L0 
C:\Users\stapi\AppData\Local\Temp\ccpaGqeF.s:245    .text.dm_msg_uri_parse_pkdn:000000000000000e .L0 
C:\Users\stapi\AppData\Local\Temp\ccpaGqeF.s:247    .text.dm_msg_uri_parse_pkdn:0000000000000010 .L0 
C:\Users\stapi\AppData\Local\Temp\ccpaGqeF.s:248    .text.dm_msg_uri_parse_pkdn:0000000000000010 .L0 
C:\Users\stapi\AppData\Local\Temp\ccpaGqeF.s:250    .text.dm_msg_uri_parse_pkdn:0000000000000012 .L0 
C:\Users\stapi\AppData\Local\Temp\ccpaGqeF.s:253    .text.dm_msg_uri_parse_pkdn:0000000000000016 .L0 
C:\Users\stapi\AppData\Local\Temp\ccpaGqeF.s:255    .text.dm_msg_uri_parse_pkdn:0000000000000018 .L0 
C:\Users\stapi\AppData\Local\Temp\ccpaGqeF.s:258    .text.dm_msg_uri_parse_pkdn:000000000000001e .L0 
C:\Users\stapi\AppData\Local\Temp\ccpaGqeF.s:261    .text.dm_msg_uri_parse_pkdn:0000000000000022 .L0 
C:\Users\stapi\AppData\Local\Temp\ccpaGqeF.s:264    .text.dm_msg_uri_parse_pkdn:0000000000000026 .L0 
C:\Users\stapi\AppData\Local\Temp\ccpaGqeF.s:271    .text.dm_msg_uri_parse_pkdn:0000000000000034 .L0 
C:\Users\stapi\AppData\Local\Temp\ccpaGqeF.s:274    .text.dm_msg_uri_parse_pkdn:000000000000003a .L0 
C:\Users\stapi\AppData\Local\Temp\ccpaGqeF.s:278    .text.dm_msg_uri_parse_pkdn:0000000000000044 .L0 
C:\Users\stapi\AppData\Local\Temp\ccpaGqeF.s:281    .text.dm_msg_uri_parse_pkdn:000000000000004c .L0 
C:\Users\stapi\AppData\Local\Temp\ccpaGqeF.s:282    .text.dm_msg_uri_parse_pkdn:000000000000004c .L0 
C:\Users\stapi\AppData\Local\Temp\ccpaGqeF.s:290    .text.dm_msg_uri_parse_pkdn:0000000000000060 .L0 
C:\Users\stapi\AppData\Local\Temp\ccpaGqeF.s:291    .text.dm_msg_uri_parse_pkdn:0000000000000060 .L0 
C:\Users\stapi\AppData\Local\Temp\ccpaGqeF.s:294    .text.dm_msg_uri_parse_pkdn:0000000000000062 .L0 
C:\Users\stapi\AppData\Local\Temp\ccpaGqeF.s:298    .text.dm_msg_uri_parse_pkdn:0000000000000064 .L0 
C:\Users\stapi\AppData\Local\Temp\ccpaGqeF.s:300    .text.dm_msg_uri_parse_pkdn:0000000000000068 .L0 
C:\Users\stapi\AppData\Local\Temp\ccpaGqeF.s:301    .text.dm_msg_uri_parse_pkdn:0000000000000068 .L0 
C:\Users\stapi\AppData\Local\Temp\ccpaGqeF.s:303    .text.dm_msg_uri_parse_pkdn:0000000000000070 .L0 
C:\Users\stapi\AppData\Local\Temp\ccpaGqeF.s:304    .text.dm_msg_uri_parse_pkdn:0000000000000070 .L0 
C:\Users\stapi\AppData\Local\Temp\ccpaGqeF.s:305    .text.dm_msg_uri_parse_pkdn:0000000000000070 .L0 
C:\Users\stapi\AppData\Local\Temp\ccpaGqeF.s:306    .text.dm_msg_uri_parse_pkdn:0000000000000070 .L0 
C:\Users\stapi\AppData\Local\Temp\ccpaGqeF.s:307    .text.dm_msg_uri_parse_pkdn:0000000000000070 .L0 
C:\Users\stapi\AppData\Local\Temp\ccpaGqeF.s:308    .text.dm_msg_uri_parse_pkdn:0000000000000070 .L0 
C:\Users\stapi\AppData\Local\Temp\ccpaGqeF.s:309    .text.dm_msg_uri_parse_pkdn:0000000000000070 .L0 
C:\Users\stapi\AppData\Local\Temp\ccpaGqeF.s:310    .text.dm_msg_uri_parse_pkdn:0000000000000070 .L0 
C:\Users\stapi\AppData\Local\Temp\ccpaGqeF.s:311    .text.dm_msg_uri_parse_pkdn:0000000000000070 .L0 
C:\Users\stapi\AppData\Local\Temp\ccpaGqeF.s:314    .text.dm_msg_uri_parse_pkdn:0000000000000070 .L0 
C:\Users\stapi\AppData\Local\Temp\ccpaGqeF.s:316    .text.dm_msg_uri_parse_pkdn:0000000000000070 .L0 
C:\Users\stapi\AppData\Local\Temp\ccpaGqeF.s:317    .text.dm_msg_uri_parse_pkdn:0000000000000070 .L0 
C:\Users\stapi\AppData\Local\Temp\ccpaGqeF.s:326    .text.dm_msg_uri_parse_pkdn:0000000000000086 .L0 
C:\Users\stapi\AppData\Local\Temp\ccpaGqeF.s:327    .text.dm_msg_uri_parse_pkdn:0000000000000086 .L0 
C:\Users\stapi\AppData\Local\Temp\ccpaGqeF.s:329    .text.dm_msg_uri_parse_pkdn:0000000000000088 .L0 
C:\Users\stapi\AppData\Local\Temp\ccpaGqeF.s:330    .text.dm_msg_uri_parse_pkdn:0000000000000088 .L0 
C:\Users\stapi\AppData\Local\Temp\ccpaGqeF.s:341    .text.dm_msg_uri_parse_pkdn:000000000000009e .L0 
C:\Users\stapi\AppData\Local\Temp\ccpaGqeF.s:342    .text.dm_msg_uri_parse_pkdn:000000000000009e .L0 
C:\Users\stapi\AppData\Local\Temp\ccpaGqeF.s:344    .text.dm_msg_uri_parse_pkdn:00000000000000a0 .L0 
C:\Users\stapi\AppData\Local\Temp\ccpaGqeF.s:345    .text.dm_msg_uri_parse_pkdn:00000000000000a0 .L0 
C:\Users\stapi\AppData\Local\Temp\ccpaGqeF.s:348    .text.dm_msg_uri_parse_pkdn:00000000000000a2 .L0 
C:\Users\stapi\AppData\Local\Temp\ccpaGqeF.s:350    .text.dm_msg_uri_parse_pkdn:00000000000000a4 .L0 
C:\Users\stapi\AppData\Local\Temp\ccpaGqeF.s:352    .text.dm_msg_uri_parse_pkdn:00000000000000a6 .L0 
C:\Users\stapi\AppData\Local\Temp\ccpaGqeF.s:354    .text.dm_msg_uri_parse_pkdn:00000000000000aa .L0 
C:\Users\stapi\AppData\Local\Temp\ccpaGqeF.s:356    .text.dm_msg_uri_parse_pkdn:00000000000000ac .L0 
C:\Users\stapi\AppData\Local\Temp\ccpaGqeF.s:361    .text.dm_msg_uri_parse_pkdn:00000000000000b8 .L0 
C:\Users\stapi\AppData\Local\Temp\ccpaGqeF.s:362    .text.dm_msg_uri_parse_pkdn:00000000000000b8 .L0 
C:\Users\stapi\AppData\Local\Temp\ccpaGqeF.s:364    .text.dm_msg_uri_parse_pkdn:00000000000000ba .L0 
C:\Users\stapi\AppData\Local\Temp\ccpaGqeF.s:366    .text.dm_msg_uri_parse_pkdn:00000000000000be .L0 
C:\Users\stapi\AppData\Local\Temp\ccpaGqeF.s:368    .text.dm_msg_uri_parse_pkdn:00000000000000c0 .L0 
C:\Users\stapi\AppData\Local\Temp\ccpaGqeF.s:370    .text.dm_msg_uri_parse_pkdn:00000000000000c4 .L0 
C:\Users\stapi\AppData\Local\Temp\ccpaGqeF.s:375    .text.dm_msg_uri_parse_pkdn:00000000000000d0 .L0 
C:\Users\stapi\AppData\Local\Temp\ccpaGqeF.s:376    .text.dm_msg_uri_parse_pkdn:00000000000000d0 .L0 
C:\Users\stapi\AppData\Local\Temp\ccpaGqeF.s:377    .text.dm_msg_uri_parse_pkdn:00000000000000d2 .L0 
C:\Users\stapi\AppData\Local\Temp\ccpaGqeF.s:421    .text.dm_msg_request_parse:0000000000000000 dm_msg_request_parse
C:\Users\stapi\AppData\Local\Temp\ccpaGqeF.s:424    .text.dm_msg_request_parse:0000000000000000 .L0 
C:\Users\stapi\AppData\Local\Temp\ccpaGqeF.s:426    .text.dm_msg_request_parse:0000000000000000 .L0 
C:\Users\stapi\AppData\Local\Temp\ccpaGqeF.s:427    .text.dm_msg_request_parse:0000000000000008 .L0 
C:\Users\stapi\AppData\Local\Temp\ccpaGqeF.s:428    .text.dm_msg_request_parse:0000000000000008 .L0 
C:\Users\stapi\AppData\Local\Temp\ccpaGqeF.s:429    .text.dm_msg_request_parse:0000000000000008 .L0 
C:\Users\stapi\AppData\Local\Temp\ccpaGqeF.s:430    .text.dm_msg_request_parse:0000000000000008 .L0 
C:\Users\stapi\AppData\Local\Temp\ccpaGqeF.s:431    .text.dm_msg_request_parse:0000000000000008 .L0 
C:\Users\stapi\AppData\Local\Temp\ccpaGqeF.s:432    .text.dm_msg_request_parse:0000000000000008 .L0 
C:\Users\stapi\AppData\Local\Temp\ccpaGqeF.s:434    .text.dm_msg_request_parse:0000000000000008 .L0 
C:\Users\stapi\AppData\Local\Temp\ccpaGqeF.s:435    .text.dm_msg_request_parse:0000000000000008 .L0 
C:\Users\stapi\AppData\Local\Temp\ccpaGqeF.s:436    .text.dm_msg_request_parse:0000000000000008 .L0 
C:\Users\stapi\AppData\Local\Temp\ccpaGqeF.s:437    .text.dm_msg_request_parse:000000000000000a .L0 
C:\Users\stapi\AppData\Local\Temp\ccpaGqeF.s:439    .text.dm_msg_request_parse:000000000000000a .L0 
C:\Users\stapi\AppData\Local\Temp\ccpaGqeF.s:441    .text.dm_msg_request_parse:000000000000000c .L0 
C:\Users\stapi\AppData\Local\Temp\ccpaGqeF.s:444    .text.dm_msg_request_parse:0000000000000010 .L0 
C:\Users\stapi\AppData\Local\Temp\ccpaGqeF.s:446    .text.dm_msg_request_parse:0000000000000012 .L0 
C:\Users\stapi\AppData\Local\Temp\ccpaGqeF.s:449    .text.dm_msg_request_parse:0000000000000018 .L0 
C:\Users\stapi\AppData\Local\Temp\ccpaGqeF.s:451    .text.dm_msg_request_parse:000000000000001a .L0 
C:\Users\stapi\AppData\Local\Temp\ccpaGqeF.s:456    .text.dm_msg_request_parse:0000000000000022 .L0 
C:\Users\stapi\AppData\Local\Temp\ccpaGqeF.s:457    .text.dm_msg_request_parse:0000000000000022 .L0 
C:\Users\stapi\AppData\Local\Temp\ccpaGqeF.s:460    .text.dm_msg_request_parse:000000000000002a .L0 
C:\Users\stapi\AppData\Local\Temp\ccpaGqeF.s:463    .text.dm_msg_request_parse:000000000000002c .L0 
C:\Users\stapi\AppData\Local\Temp\ccpaGqeF.s:464    .text.dm_msg_request_parse:000000000000002c .L0 
C:\Users\stapi\AppData\Local\Temp\ccpaGqeF.s:469    .text.dm_msg_request_parse:000000000000003c .L0 
C:\Users\stapi\AppData\Local\Temp\ccpaGqeF.s:477    .text.dm_msg_request_parse:0000000000000052 .L0 
C:\Users\stapi\AppData\Local\Temp\ccpaGqeF.s:482    .text.dm_msg_request_parse:0000000000000062 .L0 
C:\Users\stapi\AppData\Local\Temp\ccpaGqeF.s:483    .text.dm_msg_request_parse:0000000000000062 .L0 
C:\Users\stapi\AppData\Local\Temp\ccpaGqeF.s:484    .text.dm_msg_request_parse:0000000000000062 .L0 
C:\Users\stapi\AppData\Local\Temp\ccpaGqeF.s:488    .text.dm_msg_request_parse:0000000000000064 .L0 
C:\Users\stapi\AppData\Local\Temp\ccpaGqeF.s:490    .text.dm_msg_request_parse:0000000000000068 .L0 
C:\Users\stapi\AppData\Local\Temp\ccpaGqeF.s:491    .text.dm_msg_request_parse:0000000000000068 .L0 
C:\Users\stapi\AppData\Local\Temp\ccpaGqeF.s:493    .text.dm_msg_request_parse:0000000000000070 .L0 
C:\Users\stapi\AppData\Local\Temp\ccpaGqeF.s:494    .text.dm_msg_request_parse:0000000000000070 .L0 
C:\Users\stapi\AppData\Local\Temp\ccpaGqeF.s:495    .text.dm_msg_request_parse:0000000000000070 .L0 
C:\Users\stapi\AppData\Local\Temp\ccpaGqeF.s:496    .text.dm_msg_request_parse:0000000000000070 .L0 
C:\Users\stapi\AppData\Local\Temp\ccpaGqeF.s:497    .text.dm_msg_request_parse:0000000000000070 .L0 
C:\Users\stapi\AppData\Local\Temp\ccpaGqeF.s:498    .text.dm_msg_request_parse:0000000000000070 .L0 
C:\Users\stapi\AppData\Local\Temp\ccpaGqeF.s:501    .text.dm_msg_request_parse:0000000000000070 .L0 
C:\Users\stapi\AppData\Local\Temp\ccpaGqeF.s:503    .text.dm_msg_request_parse:0000000000000070 .L0 
C:\Users\stapi\AppData\Local\Temp\ccpaGqeF.s:512    .text.dm_msg_request_parse:0000000000000088 .L0 
C:\Users\stapi\AppData\Local\Temp\ccpaGqeF.s:514    .text.dm_msg_request_parse:000000000000008a .L0 
C:\Users\stapi\AppData\Local\Temp\ccpaGqeF.s:523    .text.dm_msg_request_parse:00000000000000a4 .L0 
C:\Users\stapi\AppData\Local\Temp\ccpaGqeF.s:525    .text.dm_msg_request_parse:00000000000000a6 .L0 
C:\Users\stapi\AppData\Local\Temp\ccpaGqeF.s:534    .text.dm_msg_request_parse:00000000000000c0 .L0 
C:\Users\stapi\AppData\Local\Temp\ccpaGqeF.s:536    .text.dm_msg_request_parse:00000000000000c2 .L0 
C:\Users\stapi\AppData\Local\Temp\ccpaGqeF.s:546    .text.dm_msg_request_parse:00000000000000de .L0 
C:\Users\stapi\AppData\Local\Temp\ccpaGqeF.s:548    .text.dm_msg_request_parse:00000000000000e0 .L0 
C:\Users\stapi\AppData\Local\Temp\ccpaGqeF.s:563    .text.dm_msg_request_parse:000000000000010c .L0 
C:\Users\stapi\AppData\Local\Temp\ccpaGqeF.s:574    .text.dm_msg_request_parse:0000000000000130 .L0 
C:\Users\stapi\AppData\Local\Temp\ccpaGqeF.s:585    .text.dm_msg_request_parse:0000000000000154 .L0 
C:\Users\stapi\AppData\Local\Temp\ccpaGqeF.s:596    .text.dm_msg_request_parse:0000000000000178 .L0 
C:\Users\stapi\AppData\Local\Temp\ccpaGqeF.s:597    .text.dm_msg_request_parse:0000000000000178 .L0 
C:\Users\stapi\AppData\Local\Temp\ccpaGqeF.s:598    .text.dm_msg_request_parse:000000000000017a .L0 
C:\Users\stapi\AppData\Local\Temp\ccpaGqeF.s:624    .text.dm_msg_response_parse:0000000000000000 dm_msg_response_parse
C:\Users\stapi\AppData\Local\Temp\ccpaGqeF.s:627    .text.dm_msg_response_parse:0000000000000000 .L0 
C:\Users\stapi\AppData\Local\Temp\ccpaGqeF.s:629    .text.dm_msg_response_parse:0000000000000000 .L0 
C:\Users\stapi\AppData\Local\Temp\ccpaGqeF.s:630    .text.dm_msg_response_parse:0000000000000008 .L0 
C:\Users\stapi\AppData\Local\Temp\ccpaGqeF.s:631    .text.dm_msg_response_parse:0000000000000008 .L0 
C:\Users\stapi\AppData\Local\Temp\ccpaGqeF.s:632    .text.dm_msg_response_parse:0000000000000008 .L0 
C:\Users\stapi\AppData\Local\Temp\ccpaGqeF.s:633    .text.dm_msg_response_parse:0000000000000008 .L0 
C:\Users\stapi\AppData\Local\Temp\ccpaGqeF.s:634    .text.dm_msg_response_parse:0000000000000008 .L0 
C:\Users\stapi\AppData\Local\Temp\ccpaGqeF.s:635    .text.dm_msg_response_parse:0000000000000008 .L0 
C:\Users\stapi\AppData\Local\Temp\ccpaGqeF.s:637    .text.dm_msg_response_parse:0000000000000008 .L0 
C:\Users\stapi\AppData\Local\Temp\ccpaGqeF.s:638    .text.dm_msg_response_parse:0000000000000008 .L0 
C:\Users\stapi\AppData\Local\Temp\ccpaGqeF.s:639    .text.dm_msg_response_parse:0000000000000008 .L0 
C:\Users\stapi\AppData\Local\Temp\ccpaGqeF.s:640    .text.dm_msg_response_parse:000000000000000a .L0 
C:\Users\stapi\AppData\Local\Temp\ccpaGqeF.s:642    .text.dm_msg_response_parse:000000000000000a .L0 
C:\Users\stapi\AppData\Local\Temp\ccpaGqeF.s:644    .text.dm_msg_response_parse:000000000000000c .L0 
C:\Users\stapi\AppData\Local\Temp\ccpaGqeF.s:646    .text.dm_msg_response_parse:000000000000000e .L0 
C:\Users\stapi\AppData\Local\Temp\ccpaGqeF.s:648    .text.dm_msg_response_parse:0000000000000010 .L0 
C:\Users\stapi\AppData\Local\Temp\ccpaGqeF.s:651    .text.dm_msg_response_parse:0000000000000016 .L0 
C:\Users\stapi\AppData\Local\Temp\ccpaGqeF.s:653    .text.dm_msg_response_parse:0000000000000018 .L0 
C:\Users\stapi\AppData\Local\Temp\ccpaGqeF.s:654    .text.dm_msg_response_parse:0000000000000018 .L0 
C:\Users\stapi\AppData\Local\Temp\ccpaGqeF.s:660    .text.dm_msg_response_parse:0000000000000026 .L0 
C:\Users\stapi\AppData\Local\Temp\ccpaGqeF.s:663    .text.dm_msg_response_parse:0000000000000028 .L0 
C:\Users\stapi\AppData\Local\Temp\ccpaGqeF.s:667    .text.dm_msg_response_parse:000000000000002a .L0 
C:\Users\stapi\AppData\Local\Temp\ccpaGqeF.s:669    .text.dm_msg_response_parse:000000000000002e .L0 
C:\Users\stapi\AppData\Local\Temp\ccpaGqeF.s:670    .text.dm_msg_response_parse:000000000000002e .L0 
C:\Users\stapi\AppData\Local\Temp\ccpaGqeF.s:672    .text.dm_msg_response_parse:0000000000000036 .L0 
C:\Users\stapi\AppData\Local\Temp\ccpaGqeF.s:673    .text.dm_msg_response_parse:0000000000000036 .L0 
C:\Users\stapi\AppData\Local\Temp\ccpaGqeF.s:674    .text.dm_msg_response_parse:0000000000000036 .L0 
C:\Users\stapi\AppData\Local\Temp\ccpaGqeF.s:675    .text.dm_msg_response_parse:0000000000000036 .L0 
C:\Users\stapi\AppData\Local\Temp\ccpaGqeF.s:676    .text.dm_msg_response_parse:0000000000000036 .L0 
C:\Users\stapi\AppData\Local\Temp\ccpaGqeF.s:677    .text.dm_msg_response_parse:0000000000000036 .L0 
C:\Users\stapi\AppData\Local\Temp\ccpaGqeF.s:680    .text.dm_msg_response_parse:0000000000000036 .L0 
C:\Users\stapi\AppData\Local\Temp\ccpaGqeF.s:682    .text.dm_msg_response_parse:0000000000000036 .L0 
C:\Users\stapi\AppData\Local\Temp\ccpaGqeF.s:691    .text.dm_msg_response_parse:000000000000004e .L0 
C:\Users\stapi\AppData\Local\Temp\ccpaGqeF.s:693    .text.dm_msg_response_parse:0000000000000050 .L0 
C:\Users\stapi\AppData\Local\Temp\ccpaGqeF.s:702    .text.dm_msg_response_parse:000000000000006a .L0 
C:\Users\stapi\AppData\Local\Temp\ccpaGqeF.s:704    .text.dm_msg_response_parse:000000000000006c .L0 
C:\Users\stapi\AppData\Local\Temp\ccpaGqeF.s:714    .text.dm_msg_response_parse:0000000000000088 .L0 
C:\Users\stapi\AppData\Local\Temp\ccpaGqeF.s:716    .text.dm_msg_response_parse:000000000000008a .L0 
C:\Users\stapi\AppData\Local\Temp\ccpaGqeF.s:729    .text.dm_msg_response_parse:00000000000000b6 .L0 
C:\Users\stapi\AppData\Local\Temp\ccpaGqeF.s:739    .text.dm_msg_response_parse:00000000000000d6 .L0 
C:\Users\stapi\AppData\Local\Temp\ccpaGqeF.s:750    .text.dm_msg_response_parse:00000000000000fa .L0 
C:\Users\stapi\AppData\Local\Temp\ccpaGqeF.s:751    .text.dm_msg_response_parse:00000000000000fa .L0 
C:\Users\stapi\AppData\Local\Temp\ccpaGqeF.s:752    .text.dm_msg_response_parse:00000000000000fa .L0 
C:\Users\stapi\AppData\Local\Temp\ccpaGqeF.s:761    .text.dm_msg_response_parse:0000000000000114 .L0 
C:\Users\stapi\AppData\Local\Temp\ccpaGqeF.s:763    .text.dm_msg_response_parse:0000000000000116 .L0 
C:\Users\stapi\AppData\Local\Temp\ccpaGqeF.s:774    .text.dm_msg_response_parse:000000000000013c .L0 
C:\Users\stapi\AppData\Local\Temp\ccpaGqeF.s:791    .text.dm_msg_request:0000000000000000 dm_msg_request
C:\Users\stapi\AppData\Local\Temp\ccpaGqeF.s:794    .text.dm_msg_request:0000000000000000 .L0 
C:\Users\stapi\AppData\Local\Temp\ccpaGqeF.s:796    .text.dm_msg_request:0000000000000000 .L0 
C:\Users\stapi\AppData\Local\Temp\ccpaGqeF.s:797    .text.dm_msg_request:0000000000000008 .L0 
C:\Users\stapi\AppData\Local\Temp\ccpaGqeF.s:798    .text.dm_msg_request:0000000000000008 .L0 
C:\Users\stapi\AppData\Local\Temp\ccpaGqeF.s:799    .text.dm_msg_request:0000000000000008 .L0 
C:\Users\stapi\AppData\Local\Temp\ccpaGqeF.s:800    .text.dm_msg_request:0000000000000008 .L0 
C:\Users\stapi\AppData\Local\Temp\ccpaGqeF.s:801    .text.dm_msg_request:0000000000000008 .L0 
C:\Users\stapi\AppData\Local\Temp\ccpaGqeF.s:802    .text.dm_msg_request:0000000000000008 .L0 
C:\Users\stapi\AppData\Local\Temp\ccpaGqeF.s:803    .text.dm_msg_request:0000000000000008 .L0 
C:\Users\stapi\AppData\Local\Temp\ccpaGqeF.s:806    .text.dm_msg_request:0000000000000008 .L0 
C:\Users\stapi\AppData\Local\Temp\ccpaGqeF.s:807    .text.dm_msg_request:0000000000000008 .L0 
C:\Users\stapi\AppData\Local\Temp\ccpaGqeF.s:808    .text.dm_msg_request:0000000000000008 .L0 
C:\Users\stapi\AppData\Local\Temp\ccpaGqeF.s:809    .text.dm_msg_request:000000000000000a .L0 
C:\Users\stapi\AppData\Local\Temp\ccpaGqeF.s:811    .text.dm_msg_request:000000000000000a .L0 
C:\Users\stapi\AppData\Local\Temp\ccpaGqeF.s:813    .text.dm_msg_request:000000000000000c .L0 
C:\Users\stapi\AppData\Local\Temp\ccpaGqeF.s:814    .text.dm_msg_request:000000000000000c .L0 
C:\Users\stapi\AppData\Local\Temp\ccpaGqeF.s:815    .text.dm_msg_request:000000000000000c .L0 
C:\Users\stapi\AppData\Local\Temp\ccpaGqeF.s:817    .text.dm_msg_request:000000000000000e .L0 
C:\Users\stapi\AppData\Local\Temp\ccpaGqeF.s:819    .text.dm_msg_request:0000000000000010 .L0 
C:\Users\stapi\AppData\Local\Temp\ccpaGqeF.s:822    .text.dm_msg_request:0000000000000014 .L0 
C:\Users\stapi\AppData\Local\Temp\ccpaGqeF.s:824    .text.dm_msg_request:0000000000000016 .L0 
C:\Users\stapi\AppData\Local\Temp\ccpaGqeF.s:826    .text.dm_msg_request:0000000000000018 .L0 
C:\Users\stapi\AppData\Local\Temp\ccpaGqeF.s:829    .text.dm_msg_request:000000000000001c .L0 
C:\Users\stapi\AppData\Local\Temp\ccpaGqeF.s:833    .text.dm_msg_request:0000000000000026 .L0 
C:\Users\stapi\AppData\Local\Temp\ccpaGqeF.s:834    .text.dm_msg_request:0000000000000026 .L0 
C:\Users\stapi\AppData\Local\Temp\ccpaGqeF.s:844    .text.dm_msg_request:0000000000000036 .L0 
C:\Users\stapi\AppData\Local\Temp\ccpaGqeF.s:845    .text.dm_msg_request:0000000000000036 .L0 
C:\Users\stapi\AppData\Local\Temp\ccpaGqeF.s:847    .text.dm_msg_request:0000000000000038 .L0 
C:\Users\stapi\AppData\Local\Temp\ccpaGqeF.s:848    .text.dm_msg_request:0000000000000038 .L0 
C:\Users\stapi\AppData\Local\Temp\ccpaGqeF.s:853    .text.dm_msg_request:0000000000000042 .L0 
C:\Users\stapi\AppData\Local\Temp\ccpaGqeF.s:855    .text.dm_msg_request:0000000000000046 .L0 
C:\Users\stapi\AppData\Local\Temp\ccpaGqeF.s:857    .text.dm_msg_request:0000000000000048 .L0 
C:\Users\stapi\AppData\Local\Temp\ccpaGqeF.s:861    .text.dm_msg_request:000000000000004e .L0 
C:\Users\stapi\AppData\Local\Temp\ccpaGqeF.s:862    .text.dm_msg_request:000000000000004e .L0 
C:\Users\stapi\AppData\Local\Temp\ccpaGqeF.s:869    .text.dm_msg_request:000000000000005c .L0 
C:\Users\stapi\AppData\Local\Temp\ccpaGqeF.s:870    .text.dm_msg_request:000000000000005c .L0 
C:\Users\stapi\AppData\Local\Temp\ccpaGqeF.s:872    .text.dm_msg_request:000000000000005e .L0 
C:\Users\stapi\AppData\Local\Temp\ccpaGqeF.s:874    .text.dm_msg_request:0000000000000060 .L0 
C:\Users\stapi\AppData\Local\Temp\ccpaGqeF.s:877    .text.dm_msg_request:0000000000000062 .L0 
C:\Users\stapi\AppData\Local\Temp\ccpaGqeF.s:880    .text.dm_msg_request:000000000000006a .L0 
C:\Users\stapi\AppData\Local\Temp\ccpaGqeF.s:881    .text.dm_msg_request:000000000000006a .L0 
C:\Users\stapi\AppData\Local\Temp\ccpaGqeF.s:883    .text.dm_msg_request:000000000000006a .L0 
C:\Users\stapi\AppData\Local\Temp\ccpaGqeF.s:884    .text.dm_msg_request:000000000000006a .L0 
C:\Users\stapi\AppData\Local\Temp\ccpaGqeF.s:886    .text.dm_msg_request:000000000000006e .L0 
C:\Users\stapi\AppData\Local\Temp\ccpaGqeF.s:887    .text.dm_msg_request:000000000000006e .L0 
C:\Users\stapi\AppData\Local\Temp\ccpaGqeF.s:889    .text.dm_msg_request:0000000000000076 .L0 
C:\Users\stapi\AppData\Local\Temp\ccpaGqeF.s:890    .text.dm_msg_request:0000000000000076 .L0 
C:\Users\stapi\AppData\Local\Temp\ccpaGqeF.s:891    .text.dm_msg_request:0000000000000076 .L0 
C:\Users\stapi\AppData\Local\Temp\ccpaGqeF.s:892    .text.dm_msg_request:0000000000000076 .L0 
C:\Users\stapi\AppData\Local\Temp\ccpaGqeF.s:893    .text.dm_msg_request:0000000000000076 .L0 
C:\Users\stapi\AppData\Local\Temp\ccpaGqeF.s:894    .text.dm_msg_request:0000000000000076 .L0 
C:\Users\stapi\AppData\Local\Temp\ccpaGqeF.s:895    .text.dm_msg_request:0000000000000076 .L0 
C:\Users\stapi\AppData\Local\Temp\ccpaGqeF.s:898    .text.dm_msg_request:0000000000000076 .L0 
C:\Users\stapi\AppData\Local\Temp\ccpaGqeF.s:900    .text.dm_msg_request:0000000000000076 .L0 
C:\Users\stapi\AppData\Local\Temp\ccpaGqeF.s:905    .text.dm_msg_request:0000000000000082 .L0 
C:\Users\stapi\AppData\Local\Temp\ccpaGqeF.s:906    .text.dm_msg_request:0000000000000082 .L0 
C:\Users\stapi\AppData\Local\Temp\ccpaGqeF.s:915    .text.dm_msg_request:000000000000009c .L0 
C:\Users\stapi\AppData\Local\Temp\ccpaGqeF.s:917    .text.dm_msg_request:00000000000000a0 .L0 
C:\Users\stapi\AppData\Local\Temp\ccpaGqeF.s:919    .text.dm_msg_request:00000000000000a4 .L0 
C:\Users\stapi\AppData\Local\Temp\ccpaGqeF.s:923    .text.dm_msg_request:00000000000000ac .L0 
C:\Users\stapi\AppData\Local\Temp\ccpaGqeF.s:928    .text.dm_msg_request:00000000000000b8 .L0 
C:\Users\stapi\AppData\Local\Temp\ccpaGqeF.s:934    .text.dm_msg_request:00000000000000c8 .L0 
C:\Users\stapi\AppData\Local\Temp\ccpaGqeF.s:935    .text.dm_msg_request:00000000000000c8 .L0 
C:\Users\stapi\AppData\Local\Temp\ccpaGqeF.s:941    .text.dm_msg_request:00000000000000d6 .L0 
C:\Users\stapi\AppData\Local\Temp\ccpaGqeF.s:945    .text.dm_msg_request:00000000000000de .L0 
C:\Users\stapi\AppData\Local\Temp\ccpaGqeF.s:947    .text.dm_msg_request:00000000000000e2 .L0 
C:\Users\stapi\AppData\Local\Temp\ccpaGqeF.s:948    .text.dm_msg_request:00000000000000e2 .L0 
C:\Users\stapi\AppData\Local\Temp\ccpaGqeF.s:953    .text.dm_msg_request:00000000000000ee .L0 
C:\Users\stapi\AppData\Local\Temp\ccpaGqeF.s:960    .text.dm_msg_request:0000000000000102 .L0 
C:\Users\stapi\AppData\Local\Temp\ccpaGqeF.s:964    .text.dm_msg_request:000000000000010e .L0 
C:\Users\stapi\AppData\Local\Temp\ccpaGqeF.s:965    .text.dm_msg_request:000000000000010e .L0 
C:\Users\stapi\AppData\Local\Temp\ccpaGqeF.s:969    .text.dm_msg_request:0000000000000118 .L0 
C:\Users\stapi\AppData\Local\Temp\ccpaGqeF.s:970    .text.dm_msg_request:0000000000000118 .L0 
C:\Users\stapi\AppData\Local\Temp\ccpaGqeF.s:972    .text.dm_msg_request:000000000000011a .L0 
C:\Users\stapi\AppData\Local\Temp\ccpaGqeF.s:974    .text.dm_msg_request:000000000000011c .L0 
C:\Users\stapi\AppData\Local\Temp\ccpaGqeF.s:975    .text.dm_msg_request:000000000000011c .L0 
C:\Users\stapi\AppData\Local\Temp\ccpaGqeF.s:978    .text.dm_msg_request:0000000000000124 .L0 
C:\Users\stapi\AppData\Local\Temp\ccpaGqeF.s:979    .text.dm_msg_request:0000000000000124 .L0 
C:\Users\stapi\AppData\Local\Temp\ccpaGqeF.s:981    .text.dm_msg_request:0000000000000124 .L0 
C:\Users\stapi\AppData\Local\Temp\ccpaGqeF.s:982    .text.dm_msg_request:0000000000000124 .L0 
C:\Users\stapi\AppData\Local\Temp\ccpaGqeF.s:987    .text.dm_msg_request:0000000000000128 .L0 
C:\Users\stapi\AppData\Local\Temp\ccpaGqeF.s:993    .text.dm_msg_request:0000000000000132 .L0 
C:\Users\stapi\AppData\Local\Temp\ccpaGqeF.s:994    .text.dm_msg_request:0000000000000132 .L0 
C:\Users\stapi\AppData\Local\Temp\ccpaGqeF.s:999    .text.dm_msg_request:000000000000013e .L0 
C:\Users\stapi\AppData\Local\Temp\ccpaGqeF.s:1006   .text.dm_msg_request:0000000000000152 .L0 
C:\Users\stapi\AppData\Local\Temp\ccpaGqeF.s:1010   .text.dm_msg_request:000000000000015e .L0 
C:\Users\stapi\AppData\Local\Temp\ccpaGqeF.s:1011   .text.dm_msg_request:000000000000015e .L0 
C:\Users\stapi\AppData\Local\Temp\ccpaGqeF.s:1012   .text.dm_msg_request:000000000000015e .L0 
C:\Users\stapi\AppData\Local\Temp\ccpaGqeF.s:1014   .text.dm_msg_request:0000000000000162 .L0 
C:\Users\stapi\AppData\Local\Temp\ccpaGqeF.s:1016   .text.dm_msg_request:0000000000000164 .L0 
C:\Users\stapi\AppData\Local\Temp\ccpaGqeF.s:1017   .text.dm_msg_request:0000000000000164 .L0 
C:\Users\stapi\AppData\Local\Temp\ccpaGqeF.s:1022   .text.dm_msg_request:0000000000000170 .L0 
C:\Users\stapi\AppData\Local\Temp\ccpaGqeF.s:1029   .text.dm_msg_request:000000000000017e .L0 
C:\Users\stapi\AppData\Local\Temp\ccpaGqeF.s:1033   .text.dm_msg_request:0000000000000188 .L0 
C:\Users\stapi\AppData\Local\Temp\ccpaGqeF.s:1034   .text.dm_msg_request:0000000000000188 .L0 
C:\Users\stapi\AppData\Local\Temp\ccpaGqeF.s:1036   .text.dm_msg_request:000000000000018a .L0 
C:\Users\stapi\AppData\Local\Temp\ccpaGqeF.s:1038   .text.dm_msg_request:000000000000018c .L0 
C:\Users\stapi\AppData\Local\Temp\ccpaGqeF.s:1039   .text.dm_msg_request:000000000000018c .L0 
C:\Users\stapi\AppData\Local\Temp\ccpaGqeF.s:1042   .text.dm_msg_request:0000000000000194 .L0 
C:\Users\stapi\AppData\Local\Temp\ccpaGqeF.s:1043   .text.dm_msg_request:0000000000000194 .L0 
C:\Users\stapi\AppData\Local\Temp\ccpaGqeF.s:1044   .text.dm_msg_request:0000000000000194 .L0 
C:\Users\stapi\AppData\Local\Temp\ccpaGqeF.s:1045   .text.dm_msg_request:0000000000000194 .L0 
C:\Users\stapi\AppData\Local\Temp\ccpaGqeF.s:1046   .text.dm_msg_request:0000000000000196 .L0 
C:\Users\stapi\AppData\Local\Temp\ccpaGqeF.s:1057   .text.dm_msg_response:0000000000000000 dm_msg_response
C:\Users\stapi\AppData\Local\Temp\ccpaGqeF.s:1060   .text.dm_msg_response:0000000000000000 .L0 
C:\Users\stapi\AppData\Local\Temp\ccpaGqeF.s:1062   .text.dm_msg_response:0000000000000000 .L0 
C:\Users\stapi\AppData\Local\Temp\ccpaGqeF.s:1063   .text.dm_msg_response:0000000000000008 .L0 
C:\Users\stapi\AppData\Local\Temp\ccpaGqeF.s:1064   .text.dm_msg_response:0000000000000008 .L0 
C:\Users\stapi\AppData\Local\Temp\ccpaGqeF.s:1065   .text.dm_msg_response:0000000000000008 .L0 
C:\Users\stapi\AppData\Local\Temp\ccpaGqeF.s:1066   .text.dm_msg_response:0000000000000008 .L0 
C:\Users\stapi\AppData\Local\Temp\ccpaGqeF.s:1067   .text.dm_msg_response:0000000000000008 .L0 
C:\Users\stapi\AppData\Local\Temp\ccpaGqeF.s:1068   .text.dm_msg_response:0000000000000008 .L0 
C:\Users\stapi\AppData\Local\Temp\ccpaGqeF.s:1069   .text.dm_msg_response:0000000000000008 .L0 
C:\Users\stapi\AppData\Local\Temp\ccpaGqeF.s:1070   .text.dm_msg_response:0000000000000008 .L0 
C:\Users\stapi\AppData\Local\Temp\ccpaGqeF.s:1071   .text.dm_msg_response:0000000000000008 .L0 
C:\Users\stapi\AppData\Local\Temp\ccpaGqeF.s:1072   .text.dm_msg_response:0000000000000008 .L0 
C:\Users\stapi\AppData\Local\Temp\ccpaGqeF.s:1075   .text.dm_msg_response:0000000000000008 .L0 
C:\Users\stapi\AppData\Local\Temp\ccpaGqeF.s:1076   .text.dm_msg_response:0000000000000008 .L0 
C:\Users\stapi\AppData\Local\Temp\ccpaGqeF.s:1077   .text.dm_msg_response:0000000000000008 .L0 
C:\Users\stapi\AppData\Local\Temp\ccpaGqeF.s:1078   .text.dm_msg_response:000000000000000a .L0 
C:\Users\stapi\AppData\Local\Temp\ccpaGqeF.s:1080   .text.dm_msg_response:000000000000000a .L0 
C:\Users\stapi\AppData\Local\Temp\ccpaGqeF.s:1083   .text.dm_msg_response:000000000000000c .L0 
C:\Users\stapi\AppData\Local\Temp\ccpaGqeF.s:1084   .text.dm_msg_response:000000000000000c .L0 
C:\Users\stapi\AppData\Local\Temp\ccpaGqeF.s:1085   .text.dm_msg_response:000000000000000c .L0 
C:\Users\stapi\AppData\Local\Temp\ccpaGqeF.s:1087   .text.dm_msg_response:000000000000000e .L0 
C:\Users\stapi\AppData\Local\Temp\ccpaGqeF.s:1090   .text.dm_msg_response:0000000000000012 .L0 
C:\Users\stapi\AppData\Local\Temp\ccpaGqeF.s:1092   .text.dm_msg_response:0000000000000014 .L0 
C:\Users\stapi\AppData\Local\Temp\ccpaGqeF.s:1095   .text.dm_msg_response:0000000000000018 .L0 
C:\Users\stapi\AppData\Local\Temp\ccpaGqeF.s:1098   .text.dm_msg_response:000000000000001c .L0 
C:\Users\stapi\AppData\Local\Temp\ccpaGqeF.s:1102   .text.dm_msg_response:0000000000000024 .L0 
C:\Users\stapi\AppData\Local\Temp\ccpaGqeF.s:1103   .text.dm_msg_response:0000000000000024 .L0 
C:\Users\stapi\AppData\Local\Temp\ccpaGqeF.s:1118   .text.dm_msg_response:000000000000003e .L0 
C:\Users\stapi\AppData\Local\Temp\ccpaGqeF.s:1119   .text.dm_msg_response:000000000000003e .L0 
C:\Users\stapi\AppData\Local\Temp\ccpaGqeF.s:1121   .text.dm_msg_response:0000000000000040 .L0 
C:\Users\stapi\AppData\Local\Temp\ccpaGqeF.s:1122   .text.dm_msg_response:0000000000000040 .L0 
C:\Users\stapi\AppData\Local\Temp\ccpaGqeF.s:1125   .text.dm_msg_response:0000000000000048 .L0 
C:\Users\stapi\AppData\Local\Temp\ccpaGqeF.s:1127   .text.dm_msg_response:000000000000004a .L0 
C:\Users\stapi\AppData\Local\Temp\ccpaGqeF.s:1130   .text.dm_msg_response:000000000000004c .L0 
C:\Users\stapi\AppData\Local\Temp\ccpaGqeF.s:1131   .text.dm_msg_response:000000000000004c .L0 
C:\Users\stapi\AppData\Local\Temp\ccpaGqeF.s:1137   .text.dm_msg_response:0000000000000058 .L0 
C:\Users\stapi\AppData\Local\Temp\ccpaGqeF.s:1138   .text.dm_msg_response:0000000000000058 .L0 
C:\Users\stapi\AppData\Local\Temp\ccpaGqeF.s:1140   .text.dm_msg_response:000000000000005a .L0 
C:\Users\stapi\AppData\Local\Temp\ccpaGqeF.s:1142   .text.dm_msg_response:000000000000005c .L0 
C:\Users\stapi\AppData\Local\Temp\ccpaGqeF.s:1145   .text.dm_msg_response:000000000000005e .L0 
C:\Users\stapi\AppData\Local\Temp\ccpaGqeF.s:1148   .text.dm_msg_response:0000000000000066 .L0 
C:\Users\stapi\AppData\Local\Temp\ccpaGqeF.s:1149   .text.dm_msg_response:0000000000000066 .L0 
C:\Users\stapi\AppData\Local\Temp\ccpaGqeF.s:1151   .text.dm_msg_response:0000000000000066 .L0 
C:\Users\stapi\AppData\Local\Temp\ccpaGqeF.s:1152   .text.dm_msg_response:0000000000000066 .L0 
C:\Users\stapi\AppData\Local\Temp\ccpaGqeF.s:1154   .text.dm_msg_response:000000000000006a .L0 
C:\Users\stapi\AppData\Local\Temp\ccpaGqeF.s:1155   .text.dm_msg_response:000000000000006a .L0 
C:\Users\stapi\AppData\Local\Temp\ccpaGqeF.s:1157   .text.dm_msg_response:0000000000000072 .L0 
C:\Users\stapi\AppData\Local\Temp\ccpaGqeF.s:1158   .text.dm_msg_response:0000000000000072 .L0 
C:\Users\stapi\AppData\Local\Temp\ccpaGqeF.s:1159   .text.dm_msg_response:0000000000000072 .L0 
C:\Users\stapi\AppData\Local\Temp\ccpaGqeF.s:1160   .text.dm_msg_response:0000000000000072 .L0 
C:\Users\stapi\AppData\Local\Temp\ccpaGqeF.s:1161   .text.dm_msg_response:0000000000000072 .L0 
C:\Users\stapi\AppData\Local\Temp\ccpaGqeF.s:1162   .text.dm_msg_response:0000000000000072 .L0 
C:\Users\stapi\AppData\Local\Temp\ccpaGqeF.s:1163   .text.dm_msg_response:0000000000000072 .L0 
C:\Users\stapi\AppData\Local\Temp\ccpaGqeF.s:1164   .text.dm_msg_response:0000000000000072 .L0 
C:\Users\stapi\AppData\Local\Temp\ccpaGqeF.s:1165   .text.dm_msg_response:0000000000000072 .L0 
C:\Users\stapi\AppData\Local\Temp\ccpaGqeF.s:1166   .text.dm_msg_response:0000000000000072 .L0 
C:\Users\stapi\AppData\Local\Temp\ccpaGqeF.s:1169   .text.dm_msg_response:0000000000000072 .L0 
C:\Users\stapi\AppData\Local\Temp\ccpaGqeF.s:1171   .text.dm_msg_response:0000000000000072 .L0 
C:\Users\stapi\AppData\Local\Temp\ccpaGqeF.s:1176   .text.dm_msg_response:000000000000007e .L0 
C:\Users\stapi\AppData\Local\Temp\ccpaGqeF.s:1188   .text.dm_msg_response:00000000000000a2 .L0 
C:\Users\stapi\AppData\Local\Temp\ccpaGqeF.s:1194   .text.dm_msg_response:00000000000000b2 .L0 
C:\Users\stapi\AppData\Local\Temp\ccpaGqeF.s:1195   .text.dm_msg_response:00000000000000b2 .L0 
C:\Users\stapi\AppData\Local\Temp\ccpaGqeF.s:1201   .text.dm_msg_response:00000000000000c0 .L0 
C:\Users\stapi\AppData\Local\Temp\ccpaGqeF.s:1205   .text.dm_msg_response:00000000000000c8 .L0 
C:\Users\stapi\AppData\Local\Temp\ccpaGqeF.s:1207   .text.dm_msg_response:00000000000000cc .L0 
C:\Users\stapi\AppData\Local\Temp\ccpaGqeF.s:1208   .text.dm_msg_response:00000000000000cc .L0 
C:\Users\stapi\AppData\Local\Temp\ccpaGqeF.s:1213   .text.dm_msg_response:00000000000000d8 .L0 
C:\Users\stapi\AppData\Local\Temp\ccpaGqeF.s:1220   .text.dm_msg_response:00000000000000ec .L0 
C:\Users\stapi\AppData\Local\Temp\ccpaGqeF.s:1224   .text.dm_msg_response:00000000000000f8 .L0 
C:\Users\stapi\AppData\Local\Temp\ccpaGqeF.s:1225   .text.dm_msg_response:00000000000000f8 .L0 
C:\Users\stapi\AppData\Local\Temp\ccpaGqeF.s:1229   .text.dm_msg_response:0000000000000102 .L0 
C:\Users\stapi\AppData\Local\Temp\ccpaGqeF.s:1230   .text.dm_msg_response:0000000000000102 .L0 
C:\Users\stapi\AppData\Local\Temp\ccpaGqeF.s:1232   .text.dm_msg_response:0000000000000104 .L0 
C:\Users\stapi\AppData\Local\Temp\ccpaGqeF.s:1234   .text.dm_msg_response:0000000000000106 .L0 
C:\Users\stapi\AppData\Local\Temp\ccpaGqeF.s:1235   .text.dm_msg_response:0000000000000106 .L0 
C:\Users\stapi\AppData\Local\Temp\ccpaGqeF.s:1238   .text.dm_msg_response:000000000000010e .L0 
C:\Users\stapi\AppData\Local\Temp\ccpaGqeF.s:1239   .text.dm_msg_response:000000000000010e .L0 
C:\Users\stapi\AppData\Local\Temp\ccpaGqeF.s:1241   .text.dm_msg_response:000000000000010e .L0 
C:\Users\stapi\AppData\Local\Temp\ccpaGqeF.s:1242   .text.dm_msg_response:000000000000010e .L0 
C:\Users\stapi\AppData\Local\Temp\ccpaGqeF.s:1247   .text.dm_msg_response:0000000000000112 .L0 
C:\Users\stapi\AppData\Local\Temp\ccpaGqeF.s:1248   .text.dm_msg_response:0000000000000112 .L0 
C:\Users\stapi\AppData\Local\Temp\ccpaGqeF.s:1253   .text.dm_msg_response:000000000000011e .L0 
C:\Users\stapi\AppData\Local\Temp\ccpaGqeF.s:1260   .text.dm_msg_response:0000000000000132 .L0 
C:\Users\stapi\AppData\Local\Temp\ccpaGqeF.s:1262   .text.dm_msg_response:0000000000000136 .L0 
C:\Users\stapi\AppData\Local\Temp\ccpaGqeF.s:1265   .text.dm_msg_response:000000000000013a .L0 
C:\Users\stapi\AppData\Local\Temp\ccpaGqeF.s:1268   .text.dm_msg_response:0000000000000142 .L0 
C:\Users\stapi\AppData\Local\Temp\ccpaGqeF.s:1269   .text.dm_msg_response:0000000000000142 .L0 
C:\Users\stapi\AppData\Local\Temp\ccpaGqeF.s:1270   .text.dm_msg_response:0000000000000142 .L0 
C:\Users\stapi\AppData\Local\Temp\ccpaGqeF.s:1272   .text.dm_msg_response:0000000000000146 .L0 
C:\Users\stapi\AppData\Local\Temp\ccpaGqeF.s:1273   .text.dm_msg_response:0000000000000146 .L0 
C:\Users\stapi\AppData\Local\Temp\ccpaGqeF.s:1278   .text.dm_msg_response:0000000000000152 .L0 
C:\Users\stapi\AppData\Local\Temp\ccpaGqeF.s:1285   .text.dm_msg_response:0000000000000160 .L0 
C:\Users\stapi\AppData\Local\Temp\ccpaGqeF.s:1289   .text.dm_msg_response:000000000000016a .L0 
C:\Users\stapi\AppData\Local\Temp\ccpaGqeF.s:1290   .text.dm_msg_response:000000000000016a .L0 
C:\Users\stapi\AppData\Local\Temp\ccpaGqeF.s:1292   .text.dm_msg_response:000000000000016c .L0 
C:\Users\stapi\AppData\Local\Temp\ccpaGqeF.s:1294   .text.dm_msg_response:000000000000016e .L0 
C:\Users\stapi\AppData\Local\Temp\ccpaGqeF.s:1295   .text.dm_msg_response:000000000000016e .L0 
C:\Users\stapi\AppData\Local\Temp\ccpaGqeF.s:1298   .text.dm_msg_response:0000000000000176 .L0 
C:\Users\stapi\AppData\Local\Temp\ccpaGqeF.s:1299   .text.dm_msg_response:0000000000000176 .L0 
C:\Users\stapi\AppData\Local\Temp\ccpaGqeF.s:1300   .text.dm_msg_response:0000000000000176 .L0 
C:\Users\stapi\AppData\Local\Temp\ccpaGqeF.s:1301   .text.dm_msg_response:0000000000000176 .L0 
C:\Users\stapi\AppData\Local\Temp\ccpaGqeF.s:1302   .text.dm_msg_response:0000000000000178 .L0 
C:\Users\stapi\AppData\Local\Temp\ccpaGqeF.s:1309   .text.dm_msg_thing_model_down_raw:0000000000000000 dm_msg_thing_model_down_raw
C:\Users\stapi\AppData\Local\Temp\ccpaGqeF.s:1312   .text.dm_msg_thing_model_down_raw:0000000000000000 .L0 
C:\Users\stapi\AppData\Local\Temp\ccpaGqeF.s:1314   .text.dm_msg_thing_model_down_raw:0000000000000000 .L0 
C:\Users\stapi\AppData\Local\Temp\ccpaGqeF.s:1315   .text.dm_msg_thing_model_down_raw:0000000000000008 .L0 
C:\Users\stapi\AppData\Local\Temp\ccpaGqeF.s:1316   .text.dm_msg_thing_model_down_raw:0000000000000008 .L0 
C:\Users\stapi\AppData\Local\Temp\ccpaGqeF.s:1317   .text.dm_msg_thing_model_down_raw:0000000000000008 .L0 
C:\Users\stapi\AppData\Local\Temp\ccpaGqeF.s:1318   .text.dm_msg_thing_model_down_raw:0000000000000008 .L0 
C:\Users\stapi\AppData\Local\Temp\ccpaGqeF.s:1319   .text.dm_msg_thing_model_down_raw:0000000000000008 .L0 
C:\Users\stapi\AppData\Local\Temp\ccpaGqeF.s:1320   .text.dm_msg_thing_model_down_raw:0000000000000008 .L0 
C:\Users\stapi\AppData\Local\Temp\ccpaGqeF.s:1323   .text.dm_msg_thing_model_down_raw:0000000000000008 .L0 
C:\Users\stapi\AppData\Local\Temp\ccpaGqeF.s:1324   .text.dm_msg_thing_model_down_raw:0000000000000008 .L0 
C:\Users\stapi\AppData\Local\Temp\ccpaGqeF.s:1325   .text.dm_msg_thing_model_down_raw:000000000000000a .L0 
C:\Users\stapi\AppData\Local\Temp\ccpaGqeF.s:1327   .text.dm_msg_thing_model_down_raw:000000000000000a .L0 
C:\Users\stapi\AppData\Local\Temp\ccpaGqeF.s:1330   .text.dm_msg_thing_model_down_raw:000000000000000c .L0 
C:\Users\stapi\AppData\Local\Temp\ccpaGqeF.s:1331   .text.dm_msg_thing_model_down_raw:000000000000000c .L0 
C:\Users\stapi\AppData\Local\Temp\ccpaGqeF.s:1334   .text.dm_msg_thing_model_down_raw:000000000000000e .L0 
C:\Users\stapi\AppData\Local\Temp\ccpaGqeF.s:1335   .text.dm_msg_thing_model_down_raw:000000000000000e .L0 
C:\Users\stapi\AppData\Local\Temp\ccpaGqeF.s:1337   .text.dm_msg_thing_model_down_raw:0000000000000010 .L0 
C:\Users\stapi\AppData\Local\Temp\ccpaGqeF.s:1340   .text.dm_msg_thing_model_down_raw:0000000000000014 .L0 
C:\Users\stapi\AppData\Local\Temp\ccpaGqeF.s:1342   .text.dm_msg_thing_model_down_raw:0000000000000016 .L0 
C:\Users\stapi\AppData\Local\Temp\ccpaGqeF.s:1347   .text.dm_msg_thing_model_down_raw:000000000000001e .L0 
C:\Users\stapi\AppData\Local\Temp\ccpaGqeF.s:1350   .text.dm_msg_thing_model_down_raw:0000000000000026 .L0 
C:\Users\stapi\AppData\Local\Temp\ccpaGqeF.s:1352   .text.dm_msg_thing_model_down_raw:0000000000000028 .L0 
C:\Users\stapi\AppData\Local\Temp\ccpaGqeF.s:1354   .text.dm_msg_thing_model_down_raw:000000000000002a .L0 
C:\Users\stapi\AppData\Local\Temp\ccpaGqeF.s:1356   .text.dm_msg_thing_model_down_raw:000000000000002e .L0 
C:\Users\stapi\AppData\Local\Temp\ccpaGqeF.s:1360   .text.dm_msg_thing_model_down_raw:0000000000000038 .L0 
C:\Users\stapi\AppData\Local\Temp\ccpaGqeF.s:1362   .text.dm_msg_thing_model_down_raw:000000000000003c .L0 
C:\Users\stapi\AppData\Local\Temp\ccpaGqeF.s:1364   .text.dm_msg_thing_model_down_raw:000000000000003e .L0 
C:\Users\stapi\AppData\Local\Temp\ccpaGqeF.s:1366   .text.dm_msg_thing_model_down_raw:0000000000000042 .L0 
C:\Users\stapi\AppData\Local\Temp\ccpaGqeF.s:1368   .text.dm_msg_thing_model_down_raw:0000000000000044 .L0 
C:\Users\stapi\AppData\Local\Temp\ccpaGqeF.s:1370   .text.dm_msg_thing_model_down_raw:0000000000000048 .L0 
C:\Users\stapi\AppData\Local\Temp\ccpaGqeF.s:1371   .text.dm_msg_thing_model_down_raw:0000000000000048 .L0 
C:\Users\stapi\AppData\Local\Temp\ccpaGqeF.s:1377   .text.dm_msg_thing_model_down_raw:0000000000000056 .L0 
C:\Users\stapi\AppData\Local\Temp\ccpaGqeF.s:1378   .text.dm_msg_thing_model_down_raw:0000000000000056 .L0 
C:\Users\stapi\AppData\Local\Temp\ccpaGqeF.s:1382   .text.dm_msg_thing_model_down_raw:0000000000000058 .L0 
C:\Users\stapi\AppData\Local\Temp\ccpaGqeF.s:1383   .text.dm_msg_thing_model_down_raw:0000000000000058 .L0 
C:\Users\stapi\AppData\Local\Temp\ccpaGqeF.s:1384   .text.dm_msg_thing_model_down_raw:0000000000000058 .L0 
C:\Users\stapi\AppData\Local\Temp\ccpaGqeF.s:1385   .text.dm_msg_thing_model_down_raw:0000000000000058 .L0 
C:\Users\stapi\AppData\Local\Temp\ccpaGqeF.s:1390   .text.dm_msg_thing_model_down_raw:000000000000005c .L0 
C:\Users\stapi\AppData\Local\Temp\ccpaGqeF.s:1391   .text.dm_msg_thing_model_down_raw:000000000000005c .L0 
C:\Users\stapi\AppData\Local\Temp\ccpaGqeF.s:1398   .text.dm_msg_thing_model_down_raw:000000000000006a .L0 
C:\Users\stapi\AppData\Local\Temp\ccpaGqeF.s:1399   .text.dm_msg_thing_model_down_raw:000000000000006a .L0 
C:\Users\stapi\AppData\Local\Temp\ccpaGqeF.s:1401   .text.dm_msg_thing_model_down_raw:000000000000006c .L0 
C:\Users\stapi\AppData\Local\Temp\ccpaGqeF.s:1402   .text.dm_msg_thing_model_down_raw:000000000000006c .L0 
C:\Users\stapi\AppData\Local\Temp\ccpaGqeF.s:1407   .text.dm_msg_thing_model_down_raw:0000000000000076 .L0 
C:\Users\stapi\AppData\Local\Temp\ccpaGqeF.s:1410   .text.dm_msg_thing_model_down_raw:000000000000007a .L0 
C:\Users\stapi\AppData\Local\Temp\ccpaGqeF.s:1411   .text.dm_msg_thing_model_down_raw:000000000000007a .L0 
C:\Users\stapi\AppData\Local\Temp\ccpaGqeF.s:1419   .text.dm_msg_thing_model_down_raw:000000000000008a .L0 
C:\Users\stapi\AppData\Local\Temp\ccpaGqeF.s:1420   .text.dm_msg_thing_model_down_raw:000000000000008a .L0 
C:\Users\stapi\AppData\Local\Temp\ccpaGqeF.s:1422   .text.dm_msg_thing_model_down_raw:000000000000008c .L0 
C:\Users\stapi\AppData\Local\Temp\ccpaGqeF.s:1426   .text.dm_msg_thing_model_down_raw:0000000000000096 .L0 
C:\Users\stapi\AppData\Local\Temp\ccpaGqeF.s:1427   .text.dm_msg_thing_model_down_raw:0000000000000096 .L0 
C:\Users\stapi\AppData\Local\Temp\ccpaGqeF.s:1428   .text.dm_msg_thing_model_down_raw:0000000000000096 .L0 
C:\Users\stapi\AppData\Local\Temp\ccpaGqeF.s:1429   .text.dm_msg_thing_model_down_raw:0000000000000096 .L0 
C:\Users\stapi\AppData\Local\Temp\ccpaGqeF.s:1433   .text.dm_msg_thing_model_down_raw:0000000000000098 .L0 
C:\Users\stapi\AppData\Local\Temp\ccpaGqeF.s:1435   .text.dm_msg_thing_model_down_raw:000000000000009c .L0 
C:\Users\stapi\AppData\Local\Temp\ccpaGqeF.s:1436   .text.dm_msg_thing_model_down_raw:000000000000009c .L0 
C:\Users\stapi\AppData\Local\Temp\ccpaGqeF.s:1438   .text.dm_msg_thing_model_down_raw:00000000000000a4 .L0 
C:\Users\stapi\AppData\Local\Temp\ccpaGqeF.s:1439   .text.dm_msg_thing_model_down_raw:00000000000000a4 .L0 
C:\Users\stapi\AppData\Local\Temp\ccpaGqeF.s:1440   .text.dm_msg_thing_model_down_raw:00000000000000a4 .L0 
C:\Users\stapi\AppData\Local\Temp\ccpaGqeF.s:1441   .text.dm_msg_thing_model_down_raw:00000000000000a4 .L0 
C:\Users\stapi\AppData\Local\Temp\ccpaGqeF.s:1442   .text.dm_msg_thing_model_down_raw:00000000000000a4 .L0 
C:\Users\stapi\AppData\Local\Temp\ccpaGqeF.s:1443   .text.dm_msg_thing_model_down_raw:00000000000000a4 .L0 
C:\Users\stapi\AppData\Local\Temp\ccpaGqeF.s:1446   .text.dm_msg_thing_model_down_raw:00000000000000a4 .L0 
C:\Users\stapi\AppData\Local\Temp\ccpaGqeF.s:1448   .text.dm_msg_thing_model_down_raw:00000000000000a4 .L0 
C:\Users\stapi\AppData\Local\Temp\ccpaGqeF.s:1453   .text.dm_msg_thing_model_down_raw:00000000000000b0 .L0 
C:\Users\stapi\AppData\Local\Temp\ccpaGqeF.s:1468   .text.dm_msg_thing_model_down_raw:00000000000000d8 .L0 
C:\Users\stapi\AppData\Local\Temp\ccpaGqeF.s:1472   .text.dm_msg_thing_model_down_raw:00000000000000e2 .L0 
C:\Users\stapi\AppData\Local\Temp\ccpaGqeF.s:1473   .text.dm_msg_thing_model_down_raw:00000000000000e2 .L0 
C:\Users\stapi\AppData\Local\Temp\ccpaGqeF.s:1476   .text.dm_msg_thing_model_down_raw:00000000000000e6 .L0 
C:\Users\stapi\AppData\Local\Temp\ccpaGqeF.s:1478   .text.dm_msg_thing_model_down_raw:00000000000000e8 .L0 
C:\Users\stapi\AppData\Local\Temp\ccpaGqeF.s:1479   .text.dm_msg_thing_model_down_raw:00000000000000e8 .L0 
C:\Users\stapi\AppData\Local\Temp\ccpaGqeF.s:1480   .text.dm_msg_thing_model_down_raw:00000000000000e8 .L0 
C:\Users\stapi\AppData\Local\Temp\ccpaGqeF.s:1485   .text.dm_msg_thing_model_down_raw:00000000000000f2 .L0 
C:\Users\stapi\AppData\Local\Temp\ccpaGqeF.s:1486   .text.dm_msg_thing_model_down_raw:00000000000000f2 .L0 
C:\Users\stapi\AppData\Local\Temp\ccpaGqeF.s:1488   .text.dm_msg_thing_model_down_raw:00000000000000f4 .L0 
C:\Users\stapi\AppData\Local\Temp\ccpaGqeF.s:1493   .text.dm_msg_thing_model_down_raw:0000000000000100 .L0 
C:\Users\stapi\AppData\Local\Temp\ccpaGqeF.s:1500   .text.dm_msg_thing_model_up_raw_reply:0000000000000000 dm_msg_thing_model_up_raw_reply
C:\Users\stapi\AppData\Local\Temp\ccpaGqeF.s:1503   .text.dm_msg_thing_model_up_raw_reply:0000000000000000 .L0 
C:\Users\stapi\AppData\Local\Temp\ccpaGqeF.s:1505   .text.dm_msg_thing_model_up_raw_reply:0000000000000000 .L0 
C:\Users\stapi\AppData\Local\Temp\ccpaGqeF.s:1506   .text.dm_msg_thing_model_up_raw_reply:0000000000000008 .L0 
C:\Users\stapi\AppData\Local\Temp\ccpaGqeF.s:1507   .text.dm_msg_thing_model_up_raw_reply:0000000000000008 .L0 
C:\Users\stapi\AppData\Local\Temp\ccpaGqeF.s:1508   .text.dm_msg_thing_model_up_raw_reply:0000000000000008 .L0 
C:\Users\stapi\AppData\Local\Temp\ccpaGqeF.s:1509   .text.dm_msg_thing_model_up_raw_reply:0000000000000008 .L0 
C:\Users\stapi\AppData\Local\Temp\ccpaGqeF.s:1510   .text.dm_msg_thing_model_up_raw_reply:0000000000000008 .L0 
C:\Users\stapi\AppData\Local\Temp\ccpaGqeF.s:1511   .text.dm_msg_thing_model_up_raw_reply:0000000000000008 .L0 
C:\Users\stapi\AppData\Local\Temp\ccpaGqeF.s:1514   .text.dm_msg_thing_model_up_raw_reply:0000000000000008 .L0 
C:\Users\stapi\AppData\Local\Temp\ccpaGqeF.s:1515   .text.dm_msg_thing_model_up_raw_reply:0000000000000008 .L0 
C:\Users\stapi\AppData\Local\Temp\ccpaGqeF.s:1516   .text.dm_msg_thing_model_up_raw_reply:000000000000000a .L0 
C:\Users\stapi\AppData\Local\Temp\ccpaGqeF.s:1518   .text.dm_msg_thing_model_up_raw_reply:000000000000000a .L0 
C:\Users\stapi\AppData\Local\Temp\ccpaGqeF.s:1521   .text.dm_msg_thing_model_up_raw_reply:000000000000000c .L0 
C:\Users\stapi\AppData\Local\Temp\ccpaGqeF.s:1522   .text.dm_msg_thing_model_up_raw_reply:000000000000000c .L0 
C:\Users\stapi\AppData\Local\Temp\ccpaGqeF.s:1525   .text.dm_msg_thing_model_up_raw_reply:000000000000000e .L0 
C:\Users\stapi\AppData\Local\Temp\ccpaGqeF.s:1526   .text.dm_msg_thing_model_up_raw_reply:000000000000000e .L0 
C:\Users\stapi\AppData\Local\Temp\ccpaGqeF.s:1528   .text.dm_msg_thing_model_up_raw_reply:0000000000000010 .L0 
C:\Users\stapi\AppData\Local\Temp\ccpaGqeF.s:1531   .text.dm_msg_thing_model_up_raw_reply:0000000000000014 .L0 
C:\Users\stapi\AppData\Local\Temp\ccpaGqeF.s:1533   .text.dm_msg_thing_model_up_raw_reply:0000000000000016 .L0 
C:\Users\stapi\AppData\Local\Temp\ccpaGqeF.s:1538   .text.dm_msg_thing_model_up_raw_reply:000000000000001e .L0 
C:\Users\stapi\AppData\Local\Temp\ccpaGqeF.s:1541   .text.dm_msg_thing_model_up_raw_reply:0000000000000026 .L0 
C:\Users\stapi\AppData\Local\Temp\ccpaGqeF.s:1543   .text.dm_msg_thing_model_up_raw_reply:0000000000000028 .L0 
C:\Users\stapi\AppData\Local\Temp\ccpaGqeF.s:1545   .text.dm_msg_thing_model_up_raw_reply:000000000000002a .L0 
C:\Users\stapi\AppData\Local\Temp\ccpaGqeF.s:1547   .text.dm_msg_thing_model_up_raw_reply:000000000000002e .L0 
C:\Users\stapi\AppData\Local\Temp\ccpaGqeF.s:1551   .text.dm_msg_thing_model_up_raw_reply:0000000000000038 .L0 
C:\Users\stapi\AppData\Local\Temp\ccpaGqeF.s:1553   .text.dm_msg_thing_model_up_raw_reply:000000000000003c .L0 
C:\Users\stapi\AppData\Local\Temp\ccpaGqeF.s:1555   .text.dm_msg_thing_model_up_raw_reply:000000000000003e .L0 
C:\Users\stapi\AppData\Local\Temp\ccpaGqeF.s:1557   .text.dm_msg_thing_model_up_raw_reply:0000000000000042 .L0 
C:\Users\stapi\AppData\Local\Temp\ccpaGqeF.s:1559   .text.dm_msg_thing_model_up_raw_reply:0000000000000044 .L0 
C:\Users\stapi\AppData\Local\Temp\ccpaGqeF.s:1561   .text.dm_msg_thing_model_up_raw_reply:0000000000000048 .L0 
C:\Users\stapi\AppData\Local\Temp\ccpaGqeF.s:1562   .text.dm_msg_thing_model_up_raw_reply:0000000000000048 .L0 
C:\Users\stapi\AppData\Local\Temp\ccpaGqeF.s:1568   .text.dm_msg_thing_model_up_raw_reply:0000000000000056 .L0 
C:\Users\stapi\AppData\Local\Temp\ccpaGqeF.s:1569   .text.dm_msg_thing_model_up_raw_reply:0000000000000056 .L0 
C:\Users\stapi\AppData\Local\Temp\ccpaGqeF.s:1573   .text.dm_msg_thing_model_up_raw_reply:0000000000000058 .L0 
C:\Users\stapi\AppData\Local\Temp\ccpaGqeF.s:1574   .text.dm_msg_thing_model_up_raw_reply:0000000000000058 .L0 
C:\Users\stapi\AppData\Local\Temp\ccpaGqeF.s:1575   .text.dm_msg_thing_model_up_raw_reply:0000000000000058 .L0 
C:\Users\stapi\AppData\Local\Temp\ccpaGqeF.s:1576   .text.dm_msg_thing_model_up_raw_reply:0000000000000058 .L0 
C:\Users\stapi\AppData\Local\Temp\ccpaGqeF.s:1581   .text.dm_msg_thing_model_up_raw_reply:000000000000005c .L0 
C:\Users\stapi\AppData\Local\Temp\ccpaGqeF.s:1582   .text.dm_msg_thing_model_up_raw_reply:000000000000005c .L0 
C:\Users\stapi\AppData\Local\Temp\ccpaGqeF.s:1589   .text.dm_msg_thing_model_up_raw_reply:000000000000006a .L0 
C:\Users\stapi\AppData\Local\Temp\ccpaGqeF.s:1590   .text.dm_msg_thing_model_up_raw_reply:000000000000006a .L0 
C:\Users\stapi\AppData\Local\Temp\ccpaGqeF.s:1592   .text.dm_msg_thing_model_up_raw_reply:000000000000006c .L0 
C:\Users\stapi\AppData\Local\Temp\ccpaGqeF.s:1593   .text.dm_msg_thing_model_up_raw_reply:000000000000006c .L0 
C:\Users\stapi\AppData\Local\Temp\ccpaGqeF.s:1598   .text.dm_msg_thing_model_up_raw_reply:0000000000000076 .L0 
C:\Users\stapi\AppData\Local\Temp\ccpaGqeF.s:1601   .text.dm_msg_thing_model_up_raw_reply:000000000000007a .L0 
C:\Users\stapi\AppData\Local\Temp\ccpaGqeF.s:1602   .text.dm_msg_thing_model_up_raw_reply:000000000000007a .L0 
C:\Users\stapi\AppData\Local\Temp\ccpaGqeF.s:1610   .text.dm_msg_thing_model_up_raw_reply:000000000000008a .L0 
C:\Users\stapi\AppData\Local\Temp\ccpaGqeF.s:1611   .text.dm_msg_thing_model_up_raw_reply:000000000000008a .L0 
C:\Users\stapi\AppData\Local\Temp\ccpaGqeF.s:1613   .text.dm_msg_thing_model_up_raw_reply:000000000000008c .L0 
C:\Users\stapi\AppData\Local\Temp\ccpaGqeF.s:1617   .text.dm_msg_thing_model_up_raw_reply:0000000000000096 .L0 
C:\Users\stapi\AppData\Local\Temp\ccpaGqeF.s:1618   .text.dm_msg_thing_model_up_raw_reply:0000000000000096 .L0 
C:\Users\stapi\AppData\Local\Temp\ccpaGqeF.s:1619   .text.dm_msg_thing_model_up_raw_reply:0000000000000096 .L0 
C:\Users\stapi\AppData\Local\Temp\ccpaGqeF.s:1620   .text.dm_msg_thing_model_up_raw_reply:0000000000000096 .L0 
C:\Users\stapi\AppData\Local\Temp\ccpaGqeF.s:1624   .text.dm_msg_thing_model_up_raw_reply:0000000000000098 .L0 
C:\Users\stapi\AppData\Local\Temp\ccpaGqeF.s:1626   .text.dm_msg_thing_model_up_raw_reply:000000000000009c .L0 
C:\Users\stapi\AppData\Local\Temp\ccpaGqeF.s:1627   .text.dm_msg_thing_model_up_raw_reply:000000000000009c .L0 
C:\Users\stapi\AppData\Local\Temp\ccpaGqeF.s:1629   .text.dm_msg_thing_model_up_raw_reply:00000000000000a4 .L0 
C:\Users\stapi\AppData\Local\Temp\ccpaGqeF.s:1630   .text.dm_msg_thing_model_up_raw_reply:00000000000000a4 .L0 
C:\Users\stapi\AppData\Local\Temp\ccpaGqeF.s:1631   .text.dm_msg_thing_model_up_raw_reply:00000000000000a4 .L0 
C:\Users\stapi\AppData\Local\Temp\ccpaGqeF.s:1632   .text.dm_msg_thing_model_up_raw_reply:00000000000000a4 .L0 
C:\Users\stapi\AppData\Local\Temp\ccpaGqeF.s:1633   .text.dm_msg_thing_model_up_raw_reply:00000000000000a4 .L0 
C:\Users\stapi\AppData\Local\Temp\ccpaGqeF.s:1634   .text.dm_msg_thing_model_up_raw_reply:00000000000000a4 .L0 
C:\Users\stapi\AppData\Local\Temp\ccpaGqeF.s:1637   .text.dm_msg_thing_model_up_raw_reply:00000000000000a4 .L0 
C:\Users\stapi\AppData\Local\Temp\ccpaGqeF.s:1639   .text.dm_msg_thing_model_up_raw_reply:00000000000000a4 .L0 
C:\Users\stapi\AppData\Local\Temp\ccpaGqeF.s:1644   .text.dm_msg_thing_model_up_raw_reply:00000000000000b0 .L0 
C:\Users\stapi\AppData\Local\Temp\ccpaGqeF.s:1659   .text.dm_msg_thing_model_up_raw_reply:00000000000000d8 .L0 
C:\Users\stapi\AppData\Local\Temp\ccpaGqeF.s:1663   .text.dm_msg_thing_model_up_raw_reply:00000000000000e2 .L0 
C:\Users\stapi\AppData\Local\Temp\ccpaGqeF.s:1664   .text.dm_msg_thing_model_up_raw_reply:00000000000000e2 .L0 
C:\Users\stapi\AppData\Local\Temp\ccpaGqeF.s:1667   .text.dm_msg_thing_model_up_raw_reply:00000000000000e8 .L0 
C:\Users\stapi\AppData\Local\Temp\ccpaGqeF.s:1669   .text.dm_msg_thing_model_up_raw_reply:00000000000000ea .L0 
C:\Users\stapi\AppData\Local\Temp\ccpaGqeF.s:1670   .text.dm_msg_thing_model_up_raw_reply:00000000000000ea .L0 
C:\Users\stapi\AppData\Local\Temp\ccpaGqeF.s:1671   .text.dm_msg_thing_model_up_raw_reply:00000000000000ea .L0 
C:\Users\stapi\AppData\Local\Temp\ccpaGqeF.s:1676   .text.dm_msg_thing_model_up_raw_reply:00000000000000f4 .L0 
C:\Users\stapi\AppData\Local\Temp\ccpaGqeF.s:1677   .text.dm_msg_thing_model_up_raw_reply:00000000000000f4 .L0 
C:\Users\stapi\AppData\Local\Temp\ccpaGqeF.s:1679   .text.dm_msg_thing_model_up_raw_reply:00000000000000f6 .L0 
C:\Users\stapi\AppData\Local\Temp\ccpaGqeF.s:1684   .text.dm_msg_thing_model_up_raw_reply:0000000000000102 .L0 
C:\Users\stapi\AppData\Local\Temp\ccpaGqeF.s:1691   .text.dm_msg_property_set:0000000000000000 dm_msg_property_set
C:\Users\stapi\AppData\Local\Temp\ccpaGqeF.s:1694   .text.dm_msg_property_set:0000000000000000 .L0 
C:\Users\stapi\AppData\Local\Temp\ccpaGqeF.s:1696   .text.dm_msg_property_set:0000000000000000 .L0 
C:\Users\stapi\AppData\Local\Temp\ccpaGqeF.s:1697   .text.dm_msg_property_set:0000000000000008 .L0 
C:\Users\stapi\AppData\Local\Temp\ccpaGqeF.s:1698   .text.dm_msg_property_set:0000000000000008 .L0 
C:\Users\stapi\AppData\Local\Temp\ccpaGqeF.s:1699   .text.dm_msg_property_set:0000000000000008 .L0 
C:\Users\stapi\AppData\Local\Temp\ccpaGqeF.s:1700   .text.dm_msg_property_set:0000000000000008 .L0 
C:\Users\stapi\AppData\Local\Temp\ccpaGqeF.s:1701   .text.dm_msg_property_set:0000000000000008 .L0 
C:\Users\stapi\AppData\Local\Temp\ccpaGqeF.s:1702   .text.dm_msg_property_set:0000000000000008 .L0 
C:\Users\stapi\AppData\Local\Temp\ccpaGqeF.s:1705   .text.dm_msg_property_set:0000000000000008 .L0 
C:\Users\stapi\AppData\Local\Temp\ccpaGqeF.s:1706   .text.dm_msg_property_set:0000000000000008 .L0 
C:\Users\stapi\AppData\Local\Temp\ccpaGqeF.s:1707   .text.dm_msg_property_set:0000000000000008 .L0 
C:\Users\stapi\AppData\Local\Temp\ccpaGqeF.s:1708   .text.dm_msg_property_set:0000000000000008 .L0 
C:\Users\stapi\AppData\Local\Temp\ccpaGqeF.s:1710   .text.dm_msg_property_set:000000000000000a .L0 
C:\Users\stapi\AppData\Local\Temp\ccpaGqeF.s:1713   .text.dm_msg_property_set:000000000000000e .L0 
C:\Users\stapi\AppData\Local\Temp\ccpaGqeF.s:1716   .text.dm_msg_property_set:0000000000000012 .L0 
C:\Users\stapi\AppData\Local\Temp\ccpaGqeF.s:1717   .text.dm_msg_property_set:0000000000000012 .L0 
C:\Users\stapi\AppData\Local\Temp\ccpaGqeF.s:1725   .text.dm_msg_property_set:0000000000000020 .L0 
C:\Users\stapi\AppData\Local\Temp\ccpaGqeF.s:1726   .text.dm_msg_property_set:0000000000000020 .L0 
C:\Users\stapi\AppData\Local\Temp\ccpaGqeF.s:1728   .text.dm_msg_property_set:0000000000000022 .L0 
C:\Users\stapi\AppData\Local\Temp\ccpaGqeF.s:1732   .text.dm_msg_property_set:0000000000000028 .L0 
C:\Users\stapi\AppData\Local\Temp\ccpaGqeF.s:1735   .text.dm_msg_property_set:0000000000000030 .L0 
C:\Users\stapi\AppData\Local\Temp\ccpaGqeF.s:1745   .text.dm_msg_property_set:000000000000004e .L0 
C:\Users\stapi\AppData\Local\Temp\ccpaGqeF.s:1746   .text.dm_msg_property_set:000000000000004e .L0 
C:\Users\stapi\AppData\Local\Temp\ccpaGqeF.s:1751   .text.dm_msg_property_set:000000000000005a .L0 
C:\Users\stapi\AppData\Local\Temp\ccpaGqeF.s:1752   .text.dm_msg_property_set:000000000000005a .L0 
C:\Users\stapi\AppData\Local\Temp\ccpaGqeF.s:1754   .text.dm_msg_property_set:000000000000005c .L0 
C:\Users\stapi\AppData\Local\Temp\ccpaGqeF.s:1759   .text.dm_msg_property_set:0000000000000066 .L0 
C:\Users\stapi\AppData\Local\Temp\ccpaGqeF.s:1760   .text.dm_msg_property_set:0000000000000066 .L0 
C:\Users\stapi\AppData\Local\Temp\ccpaGqeF.s:1761   .text.dm_msg_property_set:0000000000000066 .L0 
C:\Users\stapi\AppData\Local\Temp\ccpaGqeF.s:1762   .text.dm_msg_property_set:0000000000000066 .L0 
C:\Users\stapi\AppData\Local\Temp\ccpaGqeF.s:1766   .text.dm_msg_property_set:0000000000000068 .L0 
C:\Users\stapi\AppData\Local\Temp\ccpaGqeF.s:1767   .text.dm_msg_property_set:0000000000000070 .L0 
C:\Users\stapi\AppData\Local\Temp\ccpaGqeF.s:1768   .text.dm_msg_property_set:0000000000000070 .L0 
C:\Users\stapi\AppData\Local\Temp\ccpaGqeF.s:1769   .text.dm_msg_property_set:0000000000000070 .L0 
C:\Users\stapi\AppData\Local\Temp\ccpaGqeF.s:1770   .text.dm_msg_property_set:0000000000000070 .L0 
C:\Users\stapi\AppData\Local\Temp\ccpaGqeF.s:1771   .text.dm_msg_property_set:0000000000000070 .L0 
C:\Users\stapi\AppData\Local\Temp\ccpaGqeF.s:1772   .text.dm_msg_property_set:0000000000000070 .L0 
C:\Users\stapi\AppData\Local\Temp\ccpaGqeF.s:1773   .text.dm_msg_property_set:0000000000000070 .L0 
C:\Users\stapi\AppData\Local\Temp\ccpaGqeF.s:1776   .text.dm_msg_property_set:0000000000000070 .L0 
C:\Users\stapi\AppData\Local\Temp\ccpaGqeF.s:1778   .text.dm_msg_property_set:0000000000000070 .L0 
C:\Users\stapi\AppData\Local\Temp\ccpaGqeF.s:1781   .text.dm_msg_property_set:0000000000000074 .L0 
C:\Users\stapi\AppData\Local\Temp\ccpaGqeF.s:1788   .text.dm_msg_property_get:0000000000000000 dm_msg_property_get
C:\Users\stapi\AppData\Local\Temp\ccpaGqeF.s:1791   .text.dm_msg_property_get:0000000000000000 .L0 
C:\Users\stapi\AppData\Local\Temp\ccpaGqeF.s:1793   .text.dm_msg_property_get:0000000000000000 .L0 
C:\Users\stapi\AppData\Local\Temp\ccpaGqeF.s:1794   .text.dm_msg_property_get:0000000000000008 .L0 
C:\Users\stapi\AppData\Local\Temp\ccpaGqeF.s:1795   .text.dm_msg_property_get:0000000000000008 .L0 
C:\Users\stapi\AppData\Local\Temp\ccpaGqeF.s:1796   .text.dm_msg_property_get:0000000000000008 .L0 
C:\Users\stapi\AppData\Local\Temp\ccpaGqeF.s:1797   .text.dm_msg_property_get:0000000000000008 .L0 
C:\Users\stapi\AppData\Local\Temp\ccpaGqeF.s:1798   .text.dm_msg_property_get:0000000000000008 .L0 
C:\Users\stapi\AppData\Local\Temp\ccpaGqeF.s:1799   .text.dm_msg_property_get:0000000000000008 .L0 
C:\Users\stapi\AppData\Local\Temp\ccpaGqeF.s:1800   .text.dm_msg_property_get:0000000000000008 .L0 
C:\Users\stapi\AppData\Local\Temp\ccpaGqeF.s:1803   .text.dm_msg_property_get:0000000000000008 .L0 
C:\Users\stapi\AppData\Local\Temp\ccpaGqeF.s:1804   .text.dm_msg_property_get:0000000000000008 .L0 
C:\Users\stapi\AppData\Local\Temp\ccpaGqeF.s:1805   .text.dm_msg_property_get:0000000000000008 .L0 
C:\Users\stapi\AppData\Local\Temp\ccpaGqeF.s:1806   .text.dm_msg_property_get:000000000000000a .L0 
C:\Users\stapi\AppData\Local\Temp\ccpaGqeF.s:1808   .text.dm_msg_property_get:000000000000000a .L0 
C:\Users\stapi\AppData\Local\Temp\ccpaGqeF.s:1811   .text.dm_msg_property_get:000000000000000e .L0 
C:\Users\stapi\AppData\Local\Temp\ccpaGqeF.s:1814   .text.dm_msg_property_get:0000000000000010 .L0 
C:\Users\stapi\AppData\Local\Temp\ccpaGqeF.s:1815   .text.dm_msg_property_get:0000000000000010 .L0 
C:\Users\stapi\AppData\Local\Temp\ccpaGqeF.s:1816   .text.dm_msg_property_get:0000000000000010 .L0 
C:\Users\stapi\AppData\Local\Temp\ccpaGqeF.s:1825   .text.dm_msg_property_get:000000000000001e .L0 
C:\Users\stapi\AppData\Local\Temp\ccpaGqeF.s:1826   .text.dm_msg_property_get:000000000000001e .L0 
C:\Users\stapi\AppData\Local\Temp\ccpaGqeF.s:1828   .text.dm_msg_property_get:0000000000000020 .L0 
C:\Users\stapi\AppData\Local\Temp\ccpaGqeF.s:1832   .text.dm_msg_property_get:0000000000000026 .L0 
C:\Users\stapi\AppData\Local\Temp\ccpaGqeF.s:1835   .text.dm_msg_property_get:000000000000002e .L0 
C:\Users\stapi\AppData\Local\Temp\ccpaGqeF.s:1842   .text.dm_msg_property_get:000000000000003e .L0 
C:\Users\stapi\AppData\Local\Temp\ccpaGqeF.s:1843   .text.dm_msg_property_get:000000000000003e .L0 
C:\Users\stapi\AppData\Local\Temp\ccpaGqeF.s:1847   .text.dm_msg_property_get:0000000000000048 .L0 
C:\Users\stapi\AppData\Local\Temp\ccpaGqeF.s:1850   .text.dm_msg_property_get:0000000000000050 .L0 
C:\Users\stapi\AppData\Local\Temp\ccpaGqeF.s:1852   .text.dm_msg_property_get:0000000000000052 .L0 
C:\Users\stapi\AppData\Local\Temp\ccpaGqeF.s:1854   .text.dm_msg_property_get:0000000000000054 .L0 
C:\Users\stapi\AppData\Local\Temp\ccpaGqeF.s:1858   .text.dm_msg_property_get:000000000000005a .L0 
C:\Users\stapi\AppData\Local\Temp\ccpaGqeF.s:1859   .text.dm_msg_property_get:000000000000005a .L0 
C:\Users\stapi\AppData\Local\Temp\ccpaGqeF.s:1866   .text.dm_msg_property_get:0000000000000068 .L0 
C:\Users\stapi\AppData\Local\Temp\ccpaGqeF.s:1867   .text.dm_msg_property_get:0000000000000068 .L0 
C:\Users\stapi\AppData\Local\Temp\ccpaGqeF.s:1869   .text.dm_msg_property_get:000000000000006a .L0 
C:\Users\stapi\AppData\Local\Temp\ccpaGqeF.s:1874   .text.dm_msg_property_get:0000000000000074 .L0 
C:\Users\stapi\AppData\Local\Temp\ccpaGqeF.s:1875   .text.dm_msg_property_get:0000000000000074 .L0 
C:\Users\stapi\AppData\Local\Temp\ccpaGqeF.s:1877   .text.dm_msg_property_get:0000000000000074 .L0 
C:\Users\stapi\AppData\Local\Temp\ccpaGqeF.s:1878   .text.dm_msg_property_get:0000000000000074 .L0 
C:\Users\stapi\AppData\Local\Temp\ccpaGqeF.s:1883   .text.dm_msg_property_get:0000000000000078 .L0 
C:\Users\stapi\AppData\Local\Temp\ccpaGqeF.s:1888   .text.dm_msg_property_get:0000000000000084 .L0 
C:\Users\stapi\AppData\Local\Temp\ccpaGqeF.s:1901   .text.dm_msg_property_get:00000000000000ac .L0 
C:\Users\stapi\AppData\Local\Temp\ccpaGqeF.s:1905   .text.dm_msg_property_get:00000000000000b6 .L0 
C:\Users\stapi\AppData\Local\Temp\ccpaGqeF.s:1906   .text.dm_msg_property_get:00000000000000b6 .L0 
C:\Users\stapi\AppData\Local\Temp\ccpaGqeF.s:1907   .text.dm_msg_property_get:00000000000000b6 .L0 
C:\Users\stapi\AppData\Local\Temp\ccpaGqeF.s:1908   .text.dm_msg_property_get:00000000000000b6 .L0 
C:\Users\stapi\AppData\Local\Temp\ccpaGqeF.s:1913   .text.dm_msg_property_get:00000000000000c2 .L0 
C:\Users\stapi\AppData\Local\Temp\ccpaGqeF.s:1914   .text.dm_msg_property_get:00000000000000c2 .L0 
C:\Users\stapi\AppData\Local\Temp\ccpaGqeF.s:1916   .text.dm_msg_property_get:00000000000000c4 .L0 
C:\Users\stapi\AppData\Local\Temp\ccpaGqeF.s:1921   .text.dm_msg_property_get:00000000000000ce .L0 
C:\Users\stapi\AppData\Local\Temp\ccpaGqeF.s:1922   .text.dm_msg_property_get:00000000000000ce .L0 
C:\Users\stapi\AppData\Local\Temp\ccpaGqeF.s:1923   .text.dm_msg_property_get:00000000000000ce .L0 
C:\Users\stapi\AppData\Local\Temp\ccpaGqeF.s:1924   .text.dm_msg_property_get:00000000000000ce .L0 
C:\Users\stapi\AppData\Local\Temp\ccpaGqeF.s:1928   .text.dm_msg_property_get:00000000000000d0 .L0 
C:\Users\stapi\AppData\Local\Temp\ccpaGqeF.s:1929   .text.dm_msg_property_get:00000000000000d2 .L0 
C:\Users\stapi\AppData\Local\Temp\ccpaGqeF.s:1931   .text.dm_msg_property_get:00000000000000da .L0 
C:\Users\stapi\AppData\Local\Temp\ccpaGqeF.s:1932   .text.dm_msg_property_get:00000000000000da .L0 
C:\Users\stapi\AppData\Local\Temp\ccpaGqeF.s:1933   .text.dm_msg_property_get:00000000000000da .L0 
C:\Users\stapi\AppData\Local\Temp\ccpaGqeF.s:1934   .text.dm_msg_property_get:00000000000000da .L0 
C:\Users\stapi\AppData\Local\Temp\ccpaGqeF.s:1935   .text.dm_msg_property_get:00000000000000da .L0 
C:\Users\stapi\AppData\Local\Temp\ccpaGqeF.s:1936   .text.dm_msg_property_get:00000000000000da .L0 
C:\Users\stapi\AppData\Local\Temp\ccpaGqeF.s:1937   .text.dm_msg_property_get:00000000000000da .L0 
C:\Users\stapi\AppData\Local\Temp\ccpaGqeF.s:1938   .text.dm_msg_property_get:00000000000000da .L0 
C:\Users\stapi\AppData\Local\Temp\ccpaGqeF.s:1945   .text.dm_msg_thing_service_request:0000000000000000 dm_msg_thing_service_request
C:\Users\stapi\AppData\Local\Temp\ccpaGqeF.s:1948   .text.dm_msg_thing_service_request:0000000000000000 .L0 
C:\Users\stapi\AppData\Local\Temp\ccpaGqeF.s:1950   .text.dm_msg_thing_service_request:0000000000000000 .L0 
C:\Users\stapi\AppData\Local\Temp\ccpaGqeF.s:1951   .text.dm_msg_thing_service_request:0000000000000008 .L0 
C:\Users\stapi\AppData\Local\Temp\ccpaGqeF.s:1952   .text.dm_msg_thing_service_request:0000000000000008 .L0 
C:\Users\stapi\AppData\Local\Temp\ccpaGqeF.s:1953   .text.dm_msg_thing_service_request:0000000000000008 .L0 
C:\Users\stapi\AppData\Local\Temp\ccpaGqeF.s:1954   .text.dm_msg_thing_service_request:0000000000000008 .L0 
C:\Users\stapi\AppData\Local\Temp\ccpaGqeF.s:1955   .text.dm_msg_thing_service_request:0000000000000008 .L0 
C:\Users\stapi\AppData\Local\Temp\ccpaGqeF.s:1956   .text.dm_msg_thing_service_request:0000000000000008 .L0 
C:\Users\stapi\AppData\Local\Temp\ccpaGqeF.s:1957   .text.dm_msg_thing_service_request:0000000000000008 .L0 
C:\Users\stapi\AppData\Local\Temp\ccpaGqeF.s:1958   .text.dm_msg_thing_service_request:0000000000000008 .L0 
C:\Users\stapi\AppData\Local\Temp\ccpaGqeF.s:1961   .text.dm_msg_thing_service_request:0000000000000008 .L0 
C:\Users\stapi\AppData\Local\Temp\ccpaGqeF.s:1962   .text.dm_msg_thing_service_request:0000000000000008 .L0 
C:\Users\stapi\AppData\Local\Temp\ccpaGqeF.s:1963   .text.dm_msg_thing_service_request:000000000000000a .L0 
C:\Users\stapi\AppData\Local\Temp\ccpaGqeF.s:1965   .text.dm_msg_thing_service_request:000000000000000a .L0 
C:\Users\stapi\AppData\Local\Temp\ccpaGqeF.s:1967   .text.dm_msg_thing_service_request:000000000000000c .L0 
C:\Users\stapi\AppData\Local\Temp\ccpaGqeF.s:1970   .text.dm_msg_thing_service_request:000000000000000e .L0 
C:\Users\stapi\AppData\Local\Temp\ccpaGqeF.s:1971   .text.dm_msg_thing_service_request:000000000000000e .L0 
C:\Users\stapi\AppData\Local\Temp\ccpaGqeF.s:1972   .text.dm_msg_thing_service_request:000000000000000e .L0 
C:\Users\stapi\AppData\Local\Temp\ccpaGqeF.s:1973   .text.dm_msg_thing_service_request:000000000000000e .L0 
C:\Users\stapi\AppData\Local\Temp\ccpaGqeF.s:1974   .text.dm_msg_thing_service_request:000000000000000e .L0 
C:\Users\stapi\AppData\Local\Temp\ccpaGqeF.s:1977   .text.dm_msg_thing_service_request:0000000000000012 .L0 
C:\Users\stapi\AppData\Local\Temp\ccpaGqeF.s:1980   .text.dm_msg_thing_service_request:0000000000000016 .L0 
C:\Users\stapi\AppData\Local\Temp\ccpaGqeF.s:1982   .text.dm_msg_thing_service_request:000000000000001a .L0 
C:\Users\stapi\AppData\Local\Temp\ccpaGqeF.s:1988   .text.dm_msg_thing_service_request:0000000000000024 .L0 
C:\Users\stapi\AppData\Local\Temp\ccpaGqeF.s:1991   .text.dm_msg_thing_service_request:000000000000002c .L0 
C:\Users\stapi\AppData\Local\Temp\ccpaGqeF.s:1993   .text.dm_msg_thing_service_request:000000000000002e .L0 
C:\Users\stapi\AppData\Local\Temp\ccpaGqeF.s:1995   .text.dm_msg_thing_service_request:0000000000000032 .L0 
C:\Users\stapi\AppData\Local\Temp\ccpaGqeF.s:1997   .text.dm_msg_thing_service_request:0000000000000036 .L0 
C:\Users\stapi\AppData\Local\Temp\ccpaGqeF.s:2001   .text.dm_msg_thing_service_request:0000000000000040 .L0 
C:\Users\stapi\AppData\Local\Temp\ccpaGqeF.s:2003   .text.dm_msg_thing_service_request:0000000000000044 .L0 
C:\Users\stapi\AppData\Local\Temp\ccpaGqeF.s:2005   .text.dm_msg_thing_service_request:0000000000000048 .L0 
C:\Users\stapi\AppData\Local\Temp\ccpaGqeF.s:2007   .text.dm_msg_thing_service_request:000000000000004c .L0 
C:\Users\stapi\AppData\Local\Temp\ccpaGqeF.s:2009   .text.dm_msg_thing_service_request:0000000000000050 .L0 
C:\Users\stapi\AppData\Local\Temp\ccpaGqeF.s:2011   .text.dm_msg_thing_service_request:0000000000000054 .L0 
C:\Users\stapi\AppData\Local\Temp\ccpaGqeF.s:2013   .text.dm_msg_thing_service_request:0000000000000056 .L0 
C:\Users\stapi\AppData\Local\Temp\ccpaGqeF.s:2014   .text.dm_msg_thing_service_request:0000000000000056 .L0 
C:\Users\stapi\AppData\Local\Temp\ccpaGqeF.s:2020   .text.dm_msg_thing_service_request:000000000000005e .L0 
C:\Users\stapi\AppData\Local\Temp\ccpaGqeF.s:2021   .text.dm_msg_thing_service_request:000000000000005e .L0 
C:\Users\stapi\AppData\Local\Temp\ccpaGqeF.s:2022   .text.dm_msg_thing_service_request:000000000000005e .L0 
C:\Users\stapi\AppData\Local\Temp\ccpaGqeF.s:2023   .text.dm_msg_thing_service_request:000000000000005e .L0 
C:\Users\stapi\AppData\Local\Temp\ccpaGqeF.s:2028   .text.dm_msg_thing_service_request:0000000000000062 .L0 
C:\Users\stapi\AppData\Local\Temp\ccpaGqeF.s:2029   .text.dm_msg_thing_service_request:0000000000000062 .L0 
C:\Users\stapi\AppData\Local\Temp\ccpaGqeF.s:2035   .text.dm_msg_thing_service_request:0000000000000070 .L0 
C:\Users\stapi\AppData\Local\Temp\ccpaGqeF.s:2036   .text.dm_msg_thing_service_request:0000000000000070 .L0 
C:\Users\stapi\AppData\Local\Temp\ccpaGqeF.s:2038   .text.dm_msg_thing_service_request:0000000000000072 .L0 
C:\Users\stapi\AppData\Local\Temp\ccpaGqeF.s:2039   .text.dm_msg_thing_service_request:0000000000000072 .L0 
C:\Users\stapi\AppData\Local\Temp\ccpaGqeF.s:2046   .text.dm_msg_thing_service_request:0000000000000080 .L0 
C:\Users\stapi\AppData\Local\Temp\ccpaGqeF.s:2047   .text.dm_msg_thing_service_request:0000000000000080 .L0 
C:\Users\stapi\AppData\Local\Temp\ccpaGqeF.s:2049   .text.dm_msg_thing_service_request:0000000000000082 .L0 
C:\Users\stapi\AppData\Local\Temp\ccpaGqeF.s:2051   .text.dm_msg_thing_service_request:0000000000000084 .L0 
C:\Users\stapi\AppData\Local\Temp\ccpaGqeF.s:2056   .text.dm_msg_thing_service_request:0000000000000090 .L0 
C:\Users\stapi\AppData\Local\Temp\ccpaGqeF.s:2063   .text.dm_msg_thing_service_request:00000000000000a0 .L0 
C:\Users\stapi\AppData\Local\Temp\ccpaGqeF.s:2064   .text.dm_msg_thing_service_request:00000000000000a0 .L0 
C:\Users\stapi\AppData\Local\Temp\ccpaGqeF.s:2068   .text.dm_msg_thing_service_request:00000000000000aa .L0 
C:\Users\stapi\AppData\Local\Temp\ccpaGqeF.s:2071   .text.dm_msg_thing_service_request:00000000000000ac .L0 
C:\Users\stapi\AppData\Local\Temp\ccpaGqeF.s:2073   .text.dm_msg_thing_service_request:00000000000000ae .L0 
C:\Users\stapi\AppData\Local\Temp\ccpaGqeF.s:2075   .text.dm_msg_thing_service_request:00000000000000b0 .L0 
C:\Users\stapi\AppData\Local\Temp\ccpaGqeF.s:2077   .text.dm_msg_thing_service_request:00000000000000b2 .L0 
C:\Users\stapi\AppData\Local\Temp\ccpaGqeF.s:2082   .text.dm_msg_thing_service_request:00000000000000ba .L0 
C:\Users\stapi\AppData\Local\Temp\ccpaGqeF.s:2083   .text.dm_msg_thing_service_request:00000000000000ba .L0 
C:\Users\stapi\AppData\Local\Temp\ccpaGqeF.s:2090   .text.dm_msg_thing_service_request:00000000000000c8 .L0 
C:\Users\stapi\AppData\Local\Temp\ccpaGqeF.s:2091   .text.dm_msg_thing_service_request:00000000000000c8 .L0 
C:\Users\stapi\AppData\Local\Temp\ccpaGqeF.s:2093   .text.dm_msg_thing_service_request:00000000000000ca .L0 
C:\Users\stapi\AppData\Local\Temp\ccpaGqeF.s:2098   .text.dm_msg_thing_service_request:00000000000000d4 .L0 
C:\Users\stapi\AppData\Local\Temp\ccpaGqeF.s:2099   .text.dm_msg_thing_service_request:00000000000000d4 .L0 
C:\Users\stapi\AppData\Local\Temp\ccpaGqeF.s:2100   .text.dm_msg_thing_service_request:00000000000000d4 .L0 
C:\Users\stapi\AppData\Local\Temp\ccpaGqeF.s:2101   .text.dm_msg_thing_service_request:00000000000000d4 .L0 
C:\Users\stapi\AppData\Local\Temp\ccpaGqeF.s:2105   .text.dm_msg_thing_service_request:00000000000000d6 .L0 
C:\Users\stapi\AppData\Local\Temp\ccpaGqeF.s:2107   .text.dm_msg_thing_service_request:00000000000000da .L0 
C:\Users\stapi\AppData\Local\Temp\ccpaGqeF.s:2108   .text.dm_msg_thing_service_request:00000000000000da .L0 
C:\Users\stapi\AppData\Local\Temp\ccpaGqeF.s:2110   .text.dm_msg_thing_service_request:00000000000000e2 .L0 
C:\Users\stapi\AppData\Local\Temp\ccpaGqeF.s:2111   .text.dm_msg_thing_service_request:00000000000000e2 .L0 
C:\Users\stapi\AppData\Local\Temp\ccpaGqeF.s:2112   .text.dm_msg_thing_service_request:00000000000000e2 .L0 
C:\Users\stapi\AppData\Local\Temp\ccpaGqeF.s:2113   .text.dm_msg_thing_service_request:00000000000000e2 .L0 
C:\Users\stapi\AppData\Local\Temp\ccpaGqeF.s:2114   .text.dm_msg_thing_service_request:00000000000000e2 .L0 
C:\Users\stapi\AppData\Local\Temp\ccpaGqeF.s:2115   .text.dm_msg_thing_service_request:00000000000000e2 .L0 
C:\Users\stapi\AppData\Local\Temp\ccpaGqeF.s:2116   .text.dm_msg_thing_service_request:00000000000000e2 .L0 
C:\Users\stapi\AppData\Local\Temp\ccpaGqeF.s:2117   .text.dm_msg_thing_service_request:00000000000000e2 .L0 
C:\Users\stapi\AppData\Local\Temp\ccpaGqeF.s:2120   .text.dm_msg_thing_service_request:00000000000000e2 .L0 
C:\Users\stapi\AppData\Local\Temp\ccpaGqeF.s:2122   .text.dm_msg_thing_service_request:00000000000000e2 .L0 
C:\Users\stapi\AppData\Local\Temp\ccpaGqeF.s:2127   .text.dm_msg_thing_service_request:00000000000000ee .L0 
C:\Users\stapi\AppData\Local\Temp\ccpaGqeF.s:2144   .text.dm_msg_thing_service_request:0000000000000116 .L0 
C:\Users\stapi\AppData\Local\Temp\ccpaGqeF.s:2148   .text.dm_msg_thing_service_request:0000000000000120 .L0 
C:\Users\stapi\AppData\Local\Temp\ccpaGqeF.s:2149   .text.dm_msg_thing_service_request:0000000000000120 .L0 
C:\Users\stapi\AppData\Local\Temp\ccpaGqeF.s:2150   .text.dm_msg_thing_service_request:0000000000000120 .L0 
C:\Users\stapi\AppData\Local\Temp\ccpaGqeF.s:2151   .text.dm_msg_thing_service_request:0000000000000120 .L0 
C:\Users\stapi\AppData\Local\Temp\ccpaGqeF.s:2158   .text.dm_msg_thing_service_request:000000000000012e .L0 
C:\Users\stapi\AppData\Local\Temp\ccpaGqeF.s:2159   .text.dm_msg_thing_service_request:000000000000012e .L0 
C:\Users\stapi\AppData\Local\Temp\ccpaGqeF.s:2161   .text.dm_msg_thing_service_request:0000000000000130 .L0 
C:\Users\stapi\AppData\Local\Temp\ccpaGqeF.s:2166   .text.dm_msg_thing_service_request:000000000000013c .L0 
C:\Users\stapi\AppData\Local\Temp\ccpaGqeF.s:2177   .text.dm_msg_thing_event_property_post_reply:0000000000000000 dm_msg_thing_event_property_post_reply
C:\Users\stapi\AppData\Local\Temp\ccpaGqeF.s:2180   .text.dm_msg_thing_event_property_post_reply:0000000000000000 .L0 
C:\Users\stapi\AppData\Local\Temp\ccpaGqeF.s:2182   .text.dm_msg_thing_event_property_post_reply:0000000000000000 .L0 
C:\Users\stapi\AppData\Local\Temp\ccpaGqeF.s:2183   .text.dm_msg_thing_event_property_post_reply:0000000000000008 .L0 
C:\Users\stapi\AppData\Local\Temp\ccpaGqeF.s:2184   .text.dm_msg_thing_event_property_post_reply:0000000000000008 .L0 
C:\Users\stapi\AppData\Local\Temp\ccpaGqeF.s:2185   .text.dm_msg_thing_event_property_post_reply:0000000000000008 .L0 
C:\Users\stapi\AppData\Local\Temp\ccpaGqeF.s:2186   .text.dm_msg_thing_event_property_post_reply:0000000000000008 .L0 
C:\Users\stapi\AppData\Local\Temp\ccpaGqeF.s:2187   .text.dm_msg_thing_event_property_post_reply:0000000000000008 .L0 
C:\Users\stapi\AppData\Local\Temp\ccpaGqeF.s:2188   .text.dm_msg_thing_event_property_post_reply:0000000000000008 .L0 
C:\Users\stapi\AppData\Local\Temp\ccpaGqeF.s:2189   .text.dm_msg_thing_event_property_post_reply:0000000000000008 .L0 
C:\Users\stapi\AppData\Local\Temp\ccpaGqeF.s:2190   .text.dm_msg_thing_event_property_post_reply:0000000000000008 .L0 
C:\Users\stapi\AppData\Local\Temp\ccpaGqeF.s:2191   .text.dm_msg_thing_event_property_post_reply:0000000000000008 .L0 
C:\Users\stapi\AppData\Local\Temp\ccpaGqeF.s:2194   .text.dm_msg_thing_event_property_post_reply:0000000000000008 .L0 
C:\Users\stapi\AppData\Local\Temp\ccpaGqeF.s:2195   .text.dm_msg_thing_event_property_post_reply:0000000000000008 .L0 
C:\Users\stapi\AppData\Local\Temp\ccpaGqeF.s:2196   .text.dm_msg_thing_event_property_post_reply:0000000000000008 .L0 
C:\Users\stapi\AppData\Local\Temp\ccpaGqeF.s:2197   .text.dm_msg_thing_event_property_post_reply:0000000000000008 .L0 
C:\Users\stapi\AppData\Local\Temp\ccpaGqeF.s:2199   .text.dm_msg_thing_event_property_post_reply:000000000000000a .L0 
C:\Users\stapi\AppData\Local\Temp\ccpaGqeF.s:2200   .text.dm_msg_thing_event_property_post_reply:000000000000000c .L0 
C:\Users\stapi\AppData\Local\Temp\ccpaGqeF.s:2202   .text.dm_msg_thing_event_property_post_reply:000000000000000c .L0 
C:\Users\stapi\AppData\Local\Temp\ccpaGqeF.s:2207   .text.dm_msg_thing_event_property_post_reply:0000000000000018 .L0 
C:\Users\stapi\AppData\Local\Temp\ccpaGqeF.s:2208   .text.dm_msg_thing_event_property_post_reply:0000000000000018 .L0 
C:\Users\stapi\AppData\Local\Temp\ccpaGqeF.s:2213   .text.dm_msg_thing_event_property_post_reply:000000000000001e .L0 
C:\Users\stapi\AppData\Local\Temp\ccpaGqeF.s:2214   .text.dm_msg_thing_event_property_post_reply:000000000000001e .L0 
C:\Users\stapi\AppData\Local\Temp\ccpaGqeF.s:2215   .text.dm_msg_thing_event_property_post_reply:000000000000001e .L0 
C:\Users\stapi\AppData\Local\Temp\ccpaGqeF.s:2216   .text.dm_msg_thing_event_property_post_reply:000000000000001e .L0 
C:\Users\stapi\AppData\Local\Temp\ccpaGqeF.s:2220   .text.dm_msg_thing_event_property_post_reply:0000000000000020 .L0 
C:\Users\stapi\AppData\Local\Temp\ccpaGqeF.s:2222   .text.dm_msg_thing_event_property_post_reply:0000000000000024 .L0 
C:\Users\stapi\AppData\Local\Temp\ccpaGqeF.s:2223   .text.dm_msg_thing_event_property_post_reply:0000000000000024 .L0 
C:\Users\stapi\AppData\Local\Temp\ccpaGqeF.s:2225   .text.dm_msg_thing_event_property_post_reply:000000000000002c .L0 
C:\Users\stapi\AppData\Local\Temp\ccpaGqeF.s:2226   .text.dm_msg_thing_event_property_post_reply:000000000000002c .L0 
C:\Users\stapi\AppData\Local\Temp\ccpaGqeF.s:2227   .text.dm_msg_thing_event_property_post_reply:000000000000002c .L0 
C:\Users\stapi\AppData\Local\Temp\ccpaGqeF.s:2228   .text.dm_msg_thing_event_property_post_reply:000000000000002c .L0 
C:\Users\stapi\AppData\Local\Temp\ccpaGqeF.s:2229   .text.dm_msg_thing_event_property_post_reply:000000000000002c .L0 
C:\Users\stapi\AppData\Local\Temp\ccpaGqeF.s:2230   .text.dm_msg_thing_event_property_post_reply:000000000000002c .L0 
C:\Users\stapi\AppData\Local\Temp\ccpaGqeF.s:2231   .text.dm_msg_thing_event_property_post_reply:000000000000002c .L0 
C:\Users\stapi\AppData\Local\Temp\ccpaGqeF.s:2232   .text.dm_msg_thing_event_property_post_reply:000000000000002c .L0 
C:\Users\stapi\AppData\Local\Temp\ccpaGqeF.s:2233   .text.dm_msg_thing_event_property_post_reply:000000000000002c .L0 
C:\Users\stapi\AppData\Local\Temp\ccpaGqeF.s:2236   .text.dm_msg_thing_event_property_post_reply:000000000000002c .L0 
C:\Users\stapi\AppData\Local\Temp\ccpaGqeF.s:2238   .text.dm_msg_thing_event_property_post_reply:000000000000002c .L0 
C:\Users\stapi\AppData\Local\Temp\ccpaGqeF.s:2241   .text.dm_msg_thing_event_property_post_reply:0000000000000030 .L0 
C:\Users\stapi\AppData\Local\Temp\ccpaGqeF.s:2246   .text.dm_msg_thing_event_property_post_reply:000000000000003a .L0 
C:\Users\stapi\AppData\Local\Temp\ccpaGqeF.s:2247   .text.dm_msg_thing_event_property_post_reply:000000000000003a .L0 
C:\Users\stapi\AppData\Local\Temp\ccpaGqeF.s:2251   .text.dm_msg_thing_event_property_post_reply:0000000000000044 .L0 
C:\Users\stapi\AppData\Local\Temp\ccpaGqeF.s:2253   .text.dm_msg_thing_event_property_post_reply:0000000000000046 .L0 
C:\Users\stapi\AppData\Local\Temp\ccpaGqeF.s:2256   .text.dm_msg_thing_event_property_post_reply:0000000000000048 .L0 
C:\Users\stapi\AppData\Local\Temp\ccpaGqeF.s:2257   .text.dm_msg_thing_event_property_post_reply:0000000000000048 .L0 
C:\Users\stapi\AppData\Local\Temp\ccpaGqeF.s:2259   .text.dm_msg_thing_event_property_post_reply:000000000000004a .L0 
C:\Users\stapi\AppData\Local\Temp\ccpaGqeF.s:2260   .text.dm_msg_thing_event_property_post_reply:000000000000004a .L0 
C:\Users\stapi\AppData\Local\Temp\ccpaGqeF.s:2263   .text.dm_msg_thing_event_property_post_reply:0000000000000052 .L0 
C:\Users\stapi\AppData\Local\Temp\ccpaGqeF.s:2264   .text.dm_msg_thing_event_property_post_reply:0000000000000052 .L0 
C:\Users\stapi\AppData\Local\Temp\ccpaGqeF.s:2266   .text.dm_msg_thing_event_property_post_reply:0000000000000054 .L0 
C:\Users\stapi\AppData\Local\Temp\ccpaGqeF.s:2267   .text.dm_msg_thing_event_property_post_reply:0000000000000054 .L0 
C:\Users\stapi\AppData\Local\Temp\ccpaGqeF.s:2269   .text.dm_msg_thing_event_property_post_reply:0000000000000056 .L0 
C:\Users\stapi\AppData\Local\Temp\ccpaGqeF.s:2271   .text.dm_msg_thing_event_property_post_reply:000000000000005a .L0 
C:\Users\stapi\AppData\Local\Temp\ccpaGqeF.s:2273   .text.dm_msg_thing_event_property_post_reply:000000000000005e .L0 
C:\Users\stapi\AppData\Local\Temp\ccpaGqeF.s:2276   .text.dm_msg_thing_event_property_post_reply:0000000000000062 .L0 
C:\Users\stapi\AppData\Local\Temp\ccpaGqeF.s:2277   .text.dm_msg_thing_event_property_post_reply:0000000000000062 .L0 
C:\Users\stapi\AppData\Local\Temp\ccpaGqeF.s:2280   .text.dm_msg_thing_event_property_post_reply:0000000000000068 .L0 
C:\Users\stapi\AppData\Local\Temp\ccpaGqeF.s:2288   .text.dm_msg_thing_event_property_post_reply:000000000000007c .L0 
C:\Users\stapi\AppData\Local\Temp\ccpaGqeF.s:2290   .text.dm_msg_thing_event_property_post_reply:000000000000007e .L0 
C:\Users\stapi\AppData\Local\Temp\ccpaGqeF.s:2291   .text.dm_msg_thing_event_property_post_reply:000000000000007e .L0 
C:\Users\stapi\AppData\Local\Temp\ccpaGqeF.s:2294   .text.dm_msg_thing_event_property_post_reply:0000000000000082 .L0 
C:\Users\stapi\AppData\Local\Temp\ccpaGqeF.s:2295   .text.dm_msg_thing_event_property_post_reply:0000000000000082 .L0 
C:\Users\stapi\AppData\Local\Temp\ccpaGqeF.s:2299   .text.dm_msg_thing_event_property_post_reply:0000000000000086 .L0 
C:\Users\stapi\AppData\Local\Temp\ccpaGqeF.s:2300   .text.dm_msg_thing_event_property_post_reply:0000000000000086 .L0 
C:\Users\stapi\AppData\Local\Temp\ccpaGqeF.s:2303   .text.dm_msg_thing_event_property_post_reply:000000000000008a .L0 
C:\Users\stapi\AppData\Local\Temp\ccpaGqeF.s:2304   .text.dm_msg_thing_event_property_post_reply:000000000000008a .L0 
C:\Users\stapi\AppData\Local\Temp\ccpaGqeF.s:2312   .text.dm_msg_thing_event_property_post_reply:000000000000009a .L0 
C:\Users\stapi\AppData\Local\Temp\ccpaGqeF.s:2313   .text.dm_msg_thing_event_property_post_reply:000000000000009a .L0 
C:\Users\stapi\AppData\Local\Temp\ccpaGqeF.s:2315   .text.dm_msg_thing_event_property_post_reply:000000000000009c .L0 
C:\Users\stapi\AppData\Local\Temp\ccpaGqeF.s:2317   .text.dm_msg_thing_event_property_post_reply:000000000000009e .L0 
C:\Users\stapi\AppData\Local\Temp\ccpaGqeF.s:2322   .text.dm_msg_thing_event_property_post_reply:00000000000000aa .L0 
C:\Users\stapi\AppData\Local\Temp\ccpaGqeF.s:2334   .text.dm_msg_thing_event_property_post_reply:00000000000000c8 .L0 
C:\Users\stapi\AppData\Local\Temp\ccpaGqeF.s:2335   .text.dm_msg_thing_event_property_post_reply:00000000000000c8 .L0 
C:\Users\stapi\AppData\Local\Temp\ccpaGqeF.s:2342   .text.dm_msg_thing_event_property_post_reply:00000000000000d8 .L0 
C:\Users\stapi\AppData\Local\Temp\ccpaGqeF.s:2343   .text.dm_msg_thing_event_property_post_reply:00000000000000d8 .L0 
C:\Users\stapi\AppData\Local\Temp\ccpaGqeF.s:2345   .text.dm_msg_thing_event_property_post_reply:00000000000000da .L0 
C:\Users\stapi\AppData\Local\Temp\ccpaGqeF.s:2350   .text.dm_msg_thing_event_property_post_reply:00000000000000e6 .L0 
C:\Users\stapi\AppData\Local\Temp\ccpaGqeF.s:2357   .text.dm_msg_thing_deviceinfo_update_reply:0000000000000000 dm_msg_thing_deviceinfo_update_reply
C:\Users\stapi\AppData\Local\Temp\ccpaGqeF.s:2360   .text.dm_msg_thing_deviceinfo_update_reply:0000000000000000 .L0 
C:\Users\stapi\AppData\Local\Temp\ccpaGqeF.s:2362   .text.dm_msg_thing_deviceinfo_update_reply:0000000000000000 .L0 
C:\Users\stapi\AppData\Local\Temp\ccpaGqeF.s:2363   .text.dm_msg_thing_deviceinfo_update_reply:0000000000000008 .L0 
C:\Users\stapi\AppData\Local\Temp\ccpaGqeF.s:2364   .text.dm_msg_thing_deviceinfo_update_reply:0000000000000008 .L0 
C:\Users\stapi\AppData\Local\Temp\ccpaGqeF.s:2365   .text.dm_msg_thing_deviceinfo_update_reply:0000000000000008 .L0 
C:\Users\stapi\AppData\Local\Temp\ccpaGqeF.s:2366   .text.dm_msg_thing_deviceinfo_update_reply:0000000000000008 .L0 
C:\Users\stapi\AppData\Local\Temp\ccpaGqeF.s:2367   .text.dm_msg_thing_deviceinfo_update_reply:0000000000000008 .L0 
C:\Users\stapi\AppData\Local\Temp\ccpaGqeF.s:2368   .text.dm_msg_thing_deviceinfo_update_reply:0000000000000008 .L0 
C:\Users\stapi\AppData\Local\Temp\ccpaGqeF.s:2371   .text.dm_msg_thing_deviceinfo_update_reply:0000000000000008 .L0 
C:\Users\stapi\AppData\Local\Temp\ccpaGqeF.s:2372   .text.dm_msg_thing_deviceinfo_update_reply:0000000000000008 .L0 
C:\Users\stapi\AppData\Local\Temp\ccpaGqeF.s:2373   .text.dm_msg_thing_deviceinfo_update_reply:0000000000000008 .L0 
C:\Users\stapi\AppData\Local\Temp\ccpaGqeF.s:2374   .text.dm_msg_thing_deviceinfo_update_reply:0000000000000008 .L0 
C:\Users\stapi\AppData\Local\Temp\ccpaGqeF.s:2376   .text.dm_msg_thing_deviceinfo_update_reply:000000000000000a .L0 
C:\Users\stapi\AppData\Local\Temp\ccpaGqeF.s:2377   .text.dm_msg_thing_deviceinfo_update_reply:000000000000000c .L0 
C:\Users\stapi\AppData\Local\Temp\ccpaGqeF.s:2379   .text.dm_msg_thing_deviceinfo_update_reply:000000000000000c .L0 
C:\Users\stapi\AppData\Local\Temp\ccpaGqeF.s:2384   .text.dm_msg_thing_deviceinfo_update_reply:0000000000000018 .L0 
C:\Users\stapi\AppData\Local\Temp\ccpaGqeF.s:2385   .text.dm_msg_thing_deviceinfo_update_reply:0000000000000018 .L0 
C:\Users\stapi\AppData\Local\Temp\ccpaGqeF.s:2390   .text.dm_msg_thing_deviceinfo_update_reply:000000000000001e .L0 
C:\Users\stapi\AppData\Local\Temp\ccpaGqeF.s:2391   .text.dm_msg_thing_deviceinfo_update_reply:000000000000001e .L0 
C:\Users\stapi\AppData\Local\Temp\ccpaGqeF.s:2392   .text.dm_msg_thing_deviceinfo_update_reply:000000000000001e .L0 
C:\Users\stapi\AppData\Local\Temp\ccpaGqeF.s:2393   .text.dm_msg_thing_deviceinfo_update_reply:000000000000001e .L0 
C:\Users\stapi\AppData\Local\Temp\ccpaGqeF.s:2397   .text.dm_msg_thing_deviceinfo_update_reply:0000000000000020 .L0 
C:\Users\stapi\AppData\Local\Temp\ccpaGqeF.s:2399   .text.dm_msg_thing_deviceinfo_update_reply:0000000000000024 .L0 
C:\Users\stapi\AppData\Local\Temp\ccpaGqeF.s:2400   .text.dm_msg_thing_deviceinfo_update_reply:0000000000000024 .L0 
C:\Users\stapi\AppData\Local\Temp\ccpaGqeF.s:2402   .text.dm_msg_thing_deviceinfo_update_reply:000000000000002c .L0 
C:\Users\stapi\AppData\Local\Temp\ccpaGqeF.s:2403   .text.dm_msg_thing_deviceinfo_update_reply:000000000000002c .L0 
C:\Users\stapi\AppData\Local\Temp\ccpaGqeF.s:2404   .text.dm_msg_thing_deviceinfo_update_reply:000000000000002c .L0 
C:\Users\stapi\AppData\Local\Temp\ccpaGqeF.s:2405   .text.dm_msg_thing_deviceinfo_update_reply:000000000000002c .L0 
C:\Users\stapi\AppData\Local\Temp\ccpaGqeF.s:2406   .text.dm_msg_thing_deviceinfo_update_reply:000000000000002c .L0 
C:\Users\stapi\AppData\Local\Temp\ccpaGqeF.s:2407   .text.dm_msg_thing_deviceinfo_update_reply:000000000000002c .L0 
C:\Users\stapi\AppData\Local\Temp\ccpaGqeF.s:2410   .text.dm_msg_thing_deviceinfo_update_reply:000000000000002c .L0 
C:\Users\stapi\AppData\Local\Temp\ccpaGqeF.s:2412   .text.dm_msg_thing_deviceinfo_update_reply:000000000000002c .L0 
C:\Users\stapi\AppData\Local\Temp\ccpaGqeF.s:2415   .text.dm_msg_thing_deviceinfo_update_reply:0000000000000030 .L0 
C:\Users\stapi\AppData\Local\Temp\ccpaGqeF.s:2420   .text.dm_msg_thing_deviceinfo_update_reply:000000000000003a .L0 
C:\Users\stapi\AppData\Local\Temp\ccpaGqeF.s:2421   .text.dm_msg_thing_deviceinfo_update_reply:000000000000003a .L0 
C:\Users\stapi\AppData\Local\Temp\ccpaGqeF.s:2425   .text.dm_msg_thing_deviceinfo_update_reply:0000000000000044 .L0 
C:\Users\stapi\AppData\Local\Temp\ccpaGqeF.s:2427   .text.dm_msg_thing_deviceinfo_update_reply:0000000000000046 .L0 
C:\Users\stapi\AppData\Local\Temp\ccpaGqeF.s:2430   .text.dm_msg_thing_deviceinfo_update_reply:0000000000000048 .L0 
C:\Users\stapi\AppData\Local\Temp\ccpaGqeF.s:2431   .text.dm_msg_thing_deviceinfo_update_reply:0000000000000048 .L0 
C:\Users\stapi\AppData\Local\Temp\ccpaGqeF.s:2433   .text.dm_msg_thing_deviceinfo_update_reply:000000000000004a .L0 
C:\Users\stapi\AppData\Local\Temp\ccpaGqeF.s:2434   .text.dm_msg_thing_deviceinfo_update_reply:000000000000004a .L0 
C:\Users\stapi\AppData\Local\Temp\ccpaGqeF.s:2437   .text.dm_msg_thing_deviceinfo_update_reply:0000000000000052 .L0 
C:\Users\stapi\AppData\Local\Temp\ccpaGqeF.s:2438   .text.dm_msg_thing_deviceinfo_update_reply:0000000000000052 .L0 
C:\Users\stapi\AppData\Local\Temp\ccpaGqeF.s:2440   .text.dm_msg_thing_deviceinfo_update_reply:0000000000000054 .L0 
C:\Users\stapi\AppData\Local\Temp\ccpaGqeF.s:2441   .text.dm_msg_thing_deviceinfo_update_reply:0000000000000054 .L0 
C:\Users\stapi\AppData\Local\Temp\ccpaGqeF.s:2443   .text.dm_msg_thing_deviceinfo_update_reply:0000000000000056 .L0 
C:\Users\stapi\AppData\Local\Temp\ccpaGqeF.s:2446   .text.dm_msg_thing_deviceinfo_update_reply:000000000000005c .L0 
C:\Users\stapi\AppData\Local\Temp\ccpaGqeF.s:2449   .text.dm_msg_thing_deviceinfo_update_reply:0000000000000060 .L0 
C:\Users\stapi\AppData\Local\Temp\ccpaGqeF.s:2450   .text.dm_msg_thing_deviceinfo_update_reply:0000000000000060 .L0 
C:\Users\stapi\AppData\Local\Temp\ccpaGqeF.s:2451   .text.dm_msg_thing_deviceinfo_update_reply:0000000000000060 .L0 
C:\Users\stapi\AppData\Local\Temp\ccpaGqeF.s:2456   .text.dm_msg_thing_deviceinfo_update_reply:000000000000006a .L0 
C:\Users\stapi\AppData\Local\Temp\ccpaGqeF.s:2457   .text.dm_msg_thing_deviceinfo_update_reply:000000000000006a .L0 
C:\Users\stapi\AppData\Local\Temp\ccpaGqeF.s:2459   .text.dm_msg_thing_deviceinfo_update_reply:000000000000006c .L0 
C:\Users\stapi\AppData\Local\Temp\ccpaGqeF.s:2461   .text.dm_msg_thing_deviceinfo_update_reply:000000000000006e .L0 
C:\Users\stapi\AppData\Local\Temp\ccpaGqeF.s:2466   .text.dm_msg_thing_deviceinfo_update_reply:000000000000007c .L0 
C:\Users\stapi\AppData\Local\Temp\ccpaGqeF.s:2476   .text.dm_msg_thing_deviceinfo_update_reply:0000000000000098 .L0 
C:\Users\stapi\AppData\Local\Temp\ccpaGqeF.s:2477   .text.dm_msg_thing_deviceinfo_update_reply:0000000000000098 .L0 
C:\Users\stapi\AppData\Local\Temp\ccpaGqeF.s:2484   .text.dm_msg_thing_deviceinfo_update_reply:00000000000000a8 .L0 
C:\Users\stapi\AppData\Local\Temp\ccpaGqeF.s:2485   .text.dm_msg_thing_deviceinfo_update_reply:00000000000000a8 .L0 
C:\Users\stapi\AppData\Local\Temp\ccpaGqeF.s:2487   .text.dm_msg_thing_deviceinfo_update_reply:00000000000000aa .L0 
C:\Users\stapi\AppData\Local\Temp\ccpaGqeF.s:2492   .text.dm_msg_thing_deviceinfo_update_reply:00000000000000b6 .L0 
C:\Users\stapi\AppData\Local\Temp\ccpaGqeF.s:2499   .text.dm_msg_thing_deviceinfo_delete_reply:0000000000000000 dm_msg_thing_deviceinfo_delete_reply
C:\Users\stapi\AppData\Local\Temp\ccpaGqeF.s:2502   .text.dm_msg_thing_deviceinfo_delete_reply:0000000000000000 .L0 
C:\Users\stapi\AppData\Local\Temp\ccpaGqeF.s:2504   .text.dm_msg_thing_deviceinfo_delete_reply:0000000000000000 .L0 
C:\Users\stapi\AppData\Local\Temp\ccpaGqeF.s:2505   .text.dm_msg_thing_deviceinfo_delete_reply:0000000000000008 .L0 
C:\Users\stapi\AppData\Local\Temp\ccpaGqeF.s:2506   .text.dm_msg_thing_deviceinfo_delete_reply:0000000000000008 .L0 
C:\Users\stapi\AppData\Local\Temp\ccpaGqeF.s:2507   .text.dm_msg_thing_deviceinfo_delete_reply:0000000000000008 .L0 
C:\Users\stapi\AppData\Local\Temp\ccpaGqeF.s:2508   .text.dm_msg_thing_deviceinfo_delete_reply:0000000000000008 .L0 
C:\Users\stapi\AppData\Local\Temp\ccpaGqeF.s:2509   .text.dm_msg_thing_deviceinfo_delete_reply:0000000000000008 .L0 
C:\Users\stapi\AppData\Local\Temp\ccpaGqeF.s:2510   .text.dm_msg_thing_deviceinfo_delete_reply:0000000000000008 .L0 
C:\Users\stapi\AppData\Local\Temp\ccpaGqeF.s:2513   .text.dm_msg_thing_deviceinfo_delete_reply:0000000000000008 .L0 
C:\Users\stapi\AppData\Local\Temp\ccpaGqeF.s:2514   .text.dm_msg_thing_deviceinfo_delete_reply:0000000000000008 .L0 
C:\Users\stapi\AppData\Local\Temp\ccpaGqeF.s:2515   .text.dm_msg_thing_deviceinfo_delete_reply:0000000000000008 .L0 
C:\Users\stapi\AppData\Local\Temp\ccpaGqeF.s:2516   .text.dm_msg_thing_deviceinfo_delete_reply:0000000000000008 .L0 
C:\Users\stapi\AppData\Local\Temp\ccpaGqeF.s:2518   .text.dm_msg_thing_deviceinfo_delete_reply:000000000000000a .L0 
C:\Users\stapi\AppData\Local\Temp\ccpaGqeF.s:2519   .text.dm_msg_thing_deviceinfo_delete_reply:000000000000000c .L0 
C:\Users\stapi\AppData\Local\Temp\ccpaGqeF.s:2521   .text.dm_msg_thing_deviceinfo_delete_reply:000000000000000c .L0 
C:\Users\stapi\AppData\Local\Temp\ccpaGqeF.s:2526   .text.dm_msg_thing_deviceinfo_delete_reply:0000000000000018 .L0 
C:\Users\stapi\AppData\Local\Temp\ccpaGqeF.s:2527   .text.dm_msg_thing_deviceinfo_delete_reply:0000000000000018 .L0 
C:\Users\stapi\AppData\Local\Temp\ccpaGqeF.s:2532   .text.dm_msg_thing_deviceinfo_delete_reply:000000000000001e .L0 
C:\Users\stapi\AppData\Local\Temp\ccpaGqeF.s:2533   .text.dm_msg_thing_deviceinfo_delete_reply:000000000000001e .L0 
C:\Users\stapi\AppData\Local\Temp\ccpaGqeF.s:2534   .text.dm_msg_thing_deviceinfo_delete_reply:000000000000001e .L0 
C:\Users\stapi\AppData\Local\Temp\ccpaGqeF.s:2535   .text.dm_msg_thing_deviceinfo_delete_reply:000000000000001e .L0 
C:\Users\stapi\AppData\Local\Temp\ccpaGqeF.s:2539   .text.dm_msg_thing_deviceinfo_delete_reply:0000000000000020 .L0 
C:\Users\stapi\AppData\Local\Temp\ccpaGqeF.s:2541   .text.dm_msg_thing_deviceinfo_delete_reply:0000000000000024 .L0 
C:\Users\stapi\AppData\Local\Temp\ccpaGqeF.s:2542   .text.dm_msg_thing_deviceinfo_delete_reply:0000000000000024 .L0 
C:\Users\stapi\AppData\Local\Temp\ccpaGqeF.s:2544   .text.dm_msg_thing_deviceinfo_delete_reply:000000000000002c .L0 
C:\Users\stapi\AppData\Local\Temp\ccpaGqeF.s:2545   .text.dm_msg_thing_deviceinfo_delete_reply:000000000000002c .L0 
C:\Users\stapi\AppData\Local\Temp\ccpaGqeF.s:2546   .text.dm_msg_thing_deviceinfo_delete_reply:000000000000002c .L0 
C:\Users\stapi\AppData\Local\Temp\ccpaGqeF.s:2547   .text.dm_msg_thing_deviceinfo_delete_reply:000000000000002c .L0 
C:\Users\stapi\AppData\Local\Temp\ccpaGqeF.s:2548   .text.dm_msg_thing_deviceinfo_delete_reply:000000000000002c .L0 
C:\Users\stapi\AppData\Local\Temp\ccpaGqeF.s:2549   .text.dm_msg_thing_deviceinfo_delete_reply:000000000000002c .L0 
C:\Users\stapi\AppData\Local\Temp\ccpaGqeF.s:2552   .text.dm_msg_thing_deviceinfo_delete_reply:000000000000002c .L0 
C:\Users\stapi\AppData\Local\Temp\ccpaGqeF.s:2554   .text.dm_msg_thing_deviceinfo_delete_reply:000000000000002c .L0 
C:\Users\stapi\AppData\Local\Temp\ccpaGqeF.s:2557   .text.dm_msg_thing_deviceinfo_delete_reply:0000000000000030 .L0 
C:\Users\stapi\AppData\Local\Temp\ccpaGqeF.s:2562   .text.dm_msg_thing_deviceinfo_delete_reply:000000000000003a .L0 
C:\Users\stapi\AppData\Local\Temp\ccpaGqeF.s:2563   .text.dm_msg_thing_deviceinfo_delete_reply:000000000000003a .L0 
C:\Users\stapi\AppData\Local\Temp\ccpaGqeF.s:2567   .text.dm_msg_thing_deviceinfo_delete_reply:0000000000000044 .L0 
C:\Users\stapi\AppData\Local\Temp\ccpaGqeF.s:2569   .text.dm_msg_thing_deviceinfo_delete_reply:0000000000000046 .L0 
C:\Users\stapi\AppData\Local\Temp\ccpaGqeF.s:2572   .text.dm_msg_thing_deviceinfo_delete_reply:0000000000000048 .L0 
C:\Users\stapi\AppData\Local\Temp\ccpaGqeF.s:2573   .text.dm_msg_thing_deviceinfo_delete_reply:0000000000000048 .L0 
C:\Users\stapi\AppData\Local\Temp\ccpaGqeF.s:2575   .text.dm_msg_thing_deviceinfo_delete_reply:000000000000004a .L0 
C:\Users\stapi\AppData\Local\Temp\ccpaGqeF.s:2576   .text.dm_msg_thing_deviceinfo_delete_reply:000000000000004a .L0 
C:\Users\stapi\AppData\Local\Temp\ccpaGqeF.s:2579   .text.dm_msg_thing_deviceinfo_delete_reply:0000000000000052 .L0 
C:\Users\stapi\AppData\Local\Temp\ccpaGqeF.s:2580   .text.dm_msg_thing_deviceinfo_delete_reply:0000000000000052 .L0 
C:\Users\stapi\AppData\Local\Temp\ccpaGqeF.s:2582   .text.dm_msg_thing_deviceinfo_delete_reply:0000000000000054 .L0 
C:\Users\stapi\AppData\Local\Temp\ccpaGqeF.s:2583   .text.dm_msg_thing_deviceinfo_delete_reply:0000000000000054 .L0 
C:\Users\stapi\AppData\Local\Temp\ccpaGqeF.s:2585   .text.dm_msg_thing_deviceinfo_delete_reply:0000000000000056 .L0 
C:\Users\stapi\AppData\Local\Temp\ccpaGqeF.s:2588   .text.dm_msg_thing_deviceinfo_delete_reply:000000000000005c .L0 
C:\Users\stapi\AppData\Local\Temp\ccpaGqeF.s:2591   .text.dm_msg_thing_deviceinfo_delete_reply:0000000000000060 .L0 
C:\Users\stapi\AppData\Local\Temp\ccpaGqeF.s:2592   .text.dm_msg_thing_deviceinfo_delete_reply:0000000000000060 .L0 
C:\Users\stapi\AppData\Local\Temp\ccpaGqeF.s:2593   .text.dm_msg_thing_deviceinfo_delete_reply:0000000000000060 .L0 
C:\Users\stapi\AppData\Local\Temp\ccpaGqeF.s:2598   .text.dm_msg_thing_deviceinfo_delete_reply:000000000000006a .L0 
C:\Users\stapi\AppData\Local\Temp\ccpaGqeF.s:2599   .text.dm_msg_thing_deviceinfo_delete_reply:000000000000006a .L0 
C:\Users\stapi\AppData\Local\Temp\ccpaGqeF.s:2601   .text.dm_msg_thing_deviceinfo_delete_reply:000000000000006c .L0 
C:\Users\stapi\AppData\Local\Temp\ccpaGqeF.s:2603   .text.dm_msg_thing_deviceinfo_delete_reply:000000000000006e .L0 
C:\Users\stapi\AppData\Local\Temp\ccpaGqeF.s:2608   .text.dm_msg_thing_deviceinfo_delete_reply:000000000000007c .L0 
C:\Users\stapi\AppData\Local\Temp\ccpaGqeF.s:2618   .text.dm_msg_thing_deviceinfo_delete_reply:0000000000000098 .L0 
C:\Users\stapi\AppData\Local\Temp\ccpaGqeF.s:2619   .text.dm_msg_thing_deviceinfo_delete_reply:0000000000000098 .L0 
C:\Users\stapi\AppData\Local\Temp\ccpaGqeF.s:2626   .text.dm_msg_thing_deviceinfo_delete_reply:00000000000000a8 .L0 
C:\Users\stapi\AppData\Local\Temp\ccpaGqeF.s:2627   .text.dm_msg_thing_deviceinfo_delete_reply:00000000000000a8 .L0 
C:\Users\stapi\AppData\Local\Temp\ccpaGqeF.s:2629   .text.dm_msg_thing_deviceinfo_delete_reply:00000000000000aa .L0 
C:\Users\stapi\AppData\Local\Temp\ccpaGqeF.s:2634   .text.dm_msg_thing_deviceinfo_delete_reply:00000000000000b6 .L0 
C:\Users\stapi\AppData\Local\Temp\ccpaGqeF.s:2641   .text.dm_msg_thing_event_post_reply:0000000000000000 dm_msg_thing_event_post_reply
C:\Users\stapi\AppData\Local\Temp\ccpaGqeF.s:2644   .text.dm_msg_thing_event_post_reply:0000000000000000 .L0 
C:\Users\stapi\AppData\Local\Temp\ccpaGqeF.s:2646   .text.dm_msg_thing_event_post_reply:0000000000000000 .L0 
C:\Users\stapi\AppData\Local\Temp\ccpaGqeF.s:2647   .text.dm_msg_thing_event_post_reply:0000000000000008 .L0 
C:\Users\stapi\AppData\Local\Temp\ccpaGqeF.s:2648   .text.dm_msg_thing_event_post_reply:0000000000000008 .L0 
C:\Users\stapi\AppData\Local\Temp\ccpaGqeF.s:2649   .text.dm_msg_thing_event_post_reply:0000000000000008 .L0 
C:\Users\stapi\AppData\Local\Temp\ccpaGqeF.s:2650   .text.dm_msg_thing_event_post_reply:0000000000000008 .L0 
C:\Users\stapi\AppData\Local\Temp\ccpaGqeF.s:2651   .text.dm_msg_thing_event_post_reply:0000000000000008 .L0 
C:\Users\stapi\AppData\Local\Temp\ccpaGqeF.s:2652   .text.dm_msg_thing_event_post_reply:0000000000000008 .L0 
C:\Users\stapi\AppData\Local\Temp\ccpaGqeF.s:2653   .text.dm_msg_thing_event_post_reply:0000000000000008 .L0 
C:\Users\stapi\AppData\Local\Temp\ccpaGqeF.s:2654   .text.dm_msg_thing_event_post_reply:0000000000000008 .L0 
C:\Users\stapi\AppData\Local\Temp\ccpaGqeF.s:2655   .text.dm_msg_thing_event_post_reply:0000000000000008 .L0 
C:\Users\stapi\AppData\Local\Temp\ccpaGqeF.s:2658   .text.dm_msg_thing_event_post_reply:0000000000000008 .L0 
C:\Users\stapi\AppData\Local\Temp\ccpaGqeF.s:2659   .text.dm_msg_thing_event_post_reply:0000000000000008 .L0 
C:\Users\stapi\AppData\Local\Temp\ccpaGqeF.s:2660   .text.dm_msg_thing_event_post_reply:0000000000000008 .L0 
C:\Users\stapi\AppData\Local\Temp\ccpaGqeF.s:2661   .text.dm_msg_thing_event_post_reply:0000000000000008 .L0 
C:\Users\stapi\AppData\Local\Temp\ccpaGqeF.s:2663   .text.dm_msg_thing_event_post_reply:000000000000000a .L0 
C:\Users\stapi\AppData\Local\Temp\ccpaGqeF.s:2666   .text.dm_msg_thing_event_post_reply:000000000000000c .L0 
C:\Users\stapi\AppData\Local\Temp\ccpaGqeF.s:2667   .text.dm_msg_thing_event_post_reply:000000000000000e .L0 
C:\Users\stapi\AppData\Local\Temp\ccpaGqeF.s:2669   .text.dm_msg_thing_event_post_reply:000000000000000e .L0 
C:\Users\stapi\AppData\Local\Temp\ccpaGqeF.s:2674   .text.dm_msg_thing_event_post_reply:000000000000001a .L0 
C:\Users\stapi\AppData\Local\Temp\ccpaGqeF.s:2675   .text.dm_msg_thing_event_post_reply:000000000000001a .L0 
C:\Users\stapi\AppData\Local\Temp\ccpaGqeF.s:2680   .text.dm_msg_thing_event_post_reply:0000000000000020 .L0 
C:\Users\stapi\AppData\Local\Temp\ccpaGqeF.s:2681   .text.dm_msg_thing_event_post_reply:0000000000000020 .L0 
C:\Users\stapi\AppData\Local\Temp\ccpaGqeF.s:2682   .text.dm_msg_thing_event_post_reply:0000000000000020 .L0 
C:\Users\stapi\AppData\Local\Temp\ccpaGqeF.s:2683   .text.dm_msg_thing_event_post_reply:0000000000000020 .L0 
C:\Users\stapi\AppData\Local\Temp\ccpaGqeF.s:2687   .text.dm_msg_thing_event_post_reply:0000000000000022 .L0 
C:\Users\stapi\AppData\Local\Temp\ccpaGqeF.s:2689   .text.dm_msg_thing_event_post_reply:0000000000000026 .L0 
C:\Users\stapi\AppData\Local\Temp\ccpaGqeF.s:2690   .text.dm_msg_thing_event_post_reply:0000000000000026 .L0 
C:\Users\stapi\AppData\Local\Temp\ccpaGqeF.s:2692   .text.dm_msg_thing_event_post_reply:000000000000002e .L0 
C:\Users\stapi\AppData\Local\Temp\ccpaGqeF.s:2693   .text.dm_msg_thing_event_post_reply:000000000000002e .L0 
C:\Users\stapi\AppData\Local\Temp\ccpaGqeF.s:2694   .text.dm_msg_thing_event_post_reply:000000000000002e .L0 
C:\Users\stapi\AppData\Local\Temp\ccpaGqeF.s:2695   .text.dm_msg_thing_event_post_reply:000000000000002e .L0 
C:\Users\stapi\AppData\Local\Temp\ccpaGqeF.s:2696   .text.dm_msg_thing_event_post_reply:000000000000002e .L0 
C:\Users\stapi\AppData\Local\Temp\ccpaGqeF.s:2697   .text.dm_msg_thing_event_post_reply:000000000000002e .L0 
C:\Users\stapi\AppData\Local\Temp\ccpaGqeF.s:2698   .text.dm_msg_thing_event_post_reply:000000000000002e .L0 
C:\Users\stapi\AppData\Local\Temp\ccpaGqeF.s:2699   .text.dm_msg_thing_event_post_reply:000000000000002e .L0 
C:\Users\stapi\AppData\Local\Temp\ccpaGqeF.s:2700   .text.dm_msg_thing_event_post_reply:000000000000002e .L0 
C:\Users\stapi\AppData\Local\Temp\ccpaGqeF.s:2703   .text.dm_msg_thing_event_post_reply:000000000000002e .L0 
C:\Users\stapi\AppData\Local\Temp\ccpaGqeF.s:2706   .text.dm_msg_thing_event_post_reply:0000000000000030 .L0 
C:\Users\stapi\AppData\Local\Temp\ccpaGqeF.s:2714   .text.dm_msg_thing_event_post_reply:000000000000003e .L0 
C:\Users\stapi\AppData\Local\Temp\ccpaGqeF.s:2715   .text.dm_msg_thing_event_post_reply:000000000000003e .L0 
C:\Users\stapi\AppData\Local\Temp\ccpaGqeF.s:2719   .text.dm_msg_thing_event_post_reply:0000000000000048 .L0 
C:\Users\stapi\AppData\Local\Temp\ccpaGqeF.s:2721   .text.dm_msg_thing_event_post_reply:000000000000004a .L0 
C:\Users\stapi\AppData\Local\Temp\ccpaGqeF.s:2724   .text.dm_msg_thing_event_post_reply:000000000000004c .L0 
C:\Users\stapi\AppData\Local\Temp\ccpaGqeF.s:2725   .text.dm_msg_thing_event_post_reply:000000000000004c .L0 
C:\Users\stapi\AppData\Local\Temp\ccpaGqeF.s:2727   .text.dm_msg_thing_event_post_reply:000000000000004e .L0 
C:\Users\stapi\AppData\Local\Temp\ccpaGqeF.s:2728   .text.dm_msg_thing_event_post_reply:000000000000004e .L0 
C:\Users\stapi\AppData\Local\Temp\ccpaGqeF.s:2731   .text.dm_msg_thing_event_post_reply:0000000000000056 .L0 
C:\Users\stapi\AppData\Local\Temp\ccpaGqeF.s:2732   .text.dm_msg_thing_event_post_reply:0000000000000056 .L0 
C:\Users\stapi\AppData\Local\Temp\ccpaGqeF.s:2734   .text.dm_msg_thing_event_post_reply:0000000000000058 .L0 
C:\Users\stapi\AppData\Local\Temp\ccpaGqeF.s:2735   .text.dm_msg_thing_event_post_reply:0000000000000058 .L0 
C:\Users\stapi\AppData\Local\Temp\ccpaGqeF.s:2737   .text.dm_msg_thing_event_post_reply:000000000000005a .L0 
C:\Users\stapi\AppData\Local\Temp\ccpaGqeF.s:2740   .text.dm_msg_thing_event_post_reply:000000000000005c .L0 
C:\Users\stapi\AppData\Local\Temp\ccpaGqeF.s:2743   .text.dm_msg_thing_event_post_reply:0000000000000060 .L0 
C:\Users\stapi\AppData\Local\Temp\ccpaGqeF.s:2744   .text.dm_msg_thing_event_post_reply:0000000000000060 .L0 
C:\Users\stapi\AppData\Local\Temp\ccpaGqeF.s:2747   .text.dm_msg_thing_event_post_reply:0000000000000068 .L0 
C:\Users\stapi\AppData\Local\Temp\ccpaGqeF.s:2749   .text.dm_msg_thing_event_post_reply:000000000000006a .L0 
C:\Users\stapi\AppData\Local\Temp\ccpaGqeF.s:2751   .text.dm_msg_thing_event_post_reply:000000000000006c .L0 
C:\Users\stapi\AppData\Local\Temp\ccpaGqeF.s:2755   .text.dm_msg_thing_event_post_reply:0000000000000072 .L0 
C:\Users\stapi\AppData\Local\Temp\ccpaGqeF.s:2756   .text.dm_msg_thing_event_post_reply:0000000000000072 .L0 
C:\Users\stapi\AppData\Local\Temp\ccpaGqeF.s:2763   .text.dm_msg_thing_event_post_reply:0000000000000080 .L0 
C:\Users\stapi\AppData\Local\Temp\ccpaGqeF.s:2764   .text.dm_msg_thing_event_post_reply:0000000000000080 .L0 
C:\Users\stapi\AppData\Local\Temp\ccpaGqeF.s:2766   .text.dm_msg_thing_event_post_reply:0000000000000082 .L0 
C:\Users\stapi\AppData\Local\Temp\ccpaGqeF.s:2768   .text.dm_msg_thing_event_post_reply:0000000000000084 .L0 
C:\Users\stapi\AppData\Local\Temp\ccpaGqeF.s:2773   .text.dm_msg_thing_event_post_reply:0000000000000090 .L0 
C:\Users\stapi\AppData\Local\Temp\ccpaGqeF.s:2789   .text.dm_msg_thing_event_post_reply:00000000000000b6 .L0 
C:\Users\stapi\AppData\Local\Temp\ccpaGqeF.s:2790   .text.dm_msg_thing_event_post_reply:00000000000000b6 .L0 
C:\Users\stapi\AppData\Local\Temp\ccpaGqeF.s:2797   .text.dm_msg_thing_event_post_reply:00000000000000c6 .L0 
C:\Users\stapi\AppData\Local\Temp\ccpaGqeF.s:2798   .text.dm_msg_thing_event_post_reply:00000000000000c6 .L0 
C:\Users\stapi\AppData\Local\Temp\ccpaGqeF.s:2800   .text.dm_msg_thing_event_post_reply:00000000000000c8 .L0 
C:\Users\stapi\AppData\Local\Temp\ccpaGqeF.s:2805   .text.dm_msg_thing_event_post_reply:00000000000000d4 .L0 
C:\Users\stapi\AppData\Local\Temp\ccpaGqeF.s:2812   .text.dm_msg_thing_event_notify_reply:0000000000000000 dm_msg_thing_event_notify_reply
C:\Users\stapi\AppData\Local\Temp\ccpaGqeF.s:2815   .text.dm_msg_thing_event_notify_reply:0000000000000000 .L0 
C:\Users\stapi\AppData\Local\Temp\ccpaGqeF.s:2817   .text.dm_msg_thing_event_notify_reply:0000000000000000 .L0 
C:\Users\stapi\AppData\Local\Temp\ccpaGqeF.s:2818   .text.dm_msg_thing_event_notify_reply:0000000000000008 .L0 
C:\Users\stapi\AppData\Local\Temp\ccpaGqeF.s:2819   .text.dm_msg_thing_event_notify_reply:0000000000000008 .L0 
C:\Users\stapi\AppData\Local\Temp\ccpaGqeF.s:2820   .text.dm_msg_thing_event_notify_reply:0000000000000008 .L0 
C:\Users\stapi\AppData\Local\Temp\ccpaGqeF.s:2821   .text.dm_msg_thing_event_notify_reply:0000000000000008 .L0 
C:\Users\stapi\AppData\Local\Temp\ccpaGqeF.s:2822   .text.dm_msg_thing_event_notify_reply:0000000000000008 .L0 
C:\Users\stapi\AppData\Local\Temp\ccpaGqeF.s:2823   .text.dm_msg_thing_event_notify_reply:0000000000000008 .L0 
C:\Users\stapi\AppData\Local\Temp\ccpaGqeF.s:2824   .text.dm_msg_thing_event_notify_reply:0000000000000008 .L0 
C:\Users\stapi\AppData\Local\Temp\ccpaGqeF.s:2825   .text.dm_msg_thing_event_notify_reply:0000000000000008 .L0 
C:\Users\stapi\AppData\Local\Temp\ccpaGqeF.s:2826   .text.dm_msg_thing_event_notify_reply:0000000000000008 .L0 
C:\Users\stapi\AppData\Local\Temp\ccpaGqeF.s:2829   .text.dm_msg_thing_event_notify_reply:0000000000000008 .L0 
C:\Users\stapi\AppData\Local\Temp\ccpaGqeF.s:2830   .text.dm_msg_thing_event_notify_reply:0000000000000008 .L0 
C:\Users\stapi\AppData\Local\Temp\ccpaGqeF.s:2831   .text.dm_msg_thing_event_notify_reply:0000000000000008 .L0 
C:\Users\stapi\AppData\Local\Temp\ccpaGqeF.s:2832   .text.dm_msg_thing_event_notify_reply:0000000000000008 .L0 
C:\Users\stapi\AppData\Local\Temp\ccpaGqeF.s:2834   .text.dm_msg_thing_event_notify_reply:000000000000000a .L0 
C:\Users\stapi\AppData\Local\Temp\ccpaGqeF.s:2835   .text.dm_msg_thing_event_notify_reply:000000000000000c .L0 
C:\Users\stapi\AppData\Local\Temp\ccpaGqeF.s:2837   .text.dm_msg_thing_event_notify_reply:000000000000000c .L0 
C:\Users\stapi\AppData\Local\Temp\ccpaGqeF.s:2842   .text.dm_msg_thing_event_notify_reply:0000000000000018 .L0 
C:\Users\stapi\AppData\Local\Temp\ccpaGqeF.s:2843   .text.dm_msg_thing_event_notify_reply:0000000000000018 .L0 
C:\Users\stapi\AppData\Local\Temp\ccpaGqeF.s:2848   .text.dm_msg_thing_event_notify_reply:000000000000001e .L0 
C:\Users\stapi\AppData\Local\Temp\ccpaGqeF.s:2849   .text.dm_msg_thing_event_notify_reply:000000000000001e .L0 
C:\Users\stapi\AppData\Local\Temp\ccpaGqeF.s:2850   .text.dm_msg_thing_event_notify_reply:000000000000001e .L0 
C:\Users\stapi\AppData\Local\Temp\ccpaGqeF.s:2851   .text.dm_msg_thing_event_notify_reply:000000000000001e .L0 
C:\Users\stapi\AppData\Local\Temp\ccpaGqeF.s:2855   .text.dm_msg_thing_event_notify_reply:0000000000000020 .L0 
C:\Users\stapi\AppData\Local\Temp\ccpaGqeF.s:2857   .text.dm_msg_thing_event_notify_reply:0000000000000024 .L0 
C:\Users\stapi\AppData\Local\Temp\ccpaGqeF.s:2858   .text.dm_msg_thing_event_notify_reply:0000000000000024 .L0 
C:\Users\stapi\AppData\Local\Temp\ccpaGqeF.s:2860   .text.dm_msg_thing_event_notify_reply:000000000000002c .L0 
C:\Users\stapi\AppData\Local\Temp\ccpaGqeF.s:2861   .text.dm_msg_thing_event_notify_reply:000000000000002c .L0 
C:\Users\stapi\AppData\Local\Temp\ccpaGqeF.s:2862   .text.dm_msg_thing_event_notify_reply:000000000000002c .L0 
C:\Users\stapi\AppData\Local\Temp\ccpaGqeF.s:2863   .text.dm_msg_thing_event_notify_reply:000000000000002c .L0 
C:\Users\stapi\AppData\Local\Temp\ccpaGqeF.s:2864   .text.dm_msg_thing_event_notify_reply:000000000000002c .L0 
C:\Users\stapi\AppData\Local\Temp\ccpaGqeF.s:2865   .text.dm_msg_thing_event_notify_reply:000000000000002c .L0 
C:\Users\stapi\AppData\Local\Temp\ccpaGqeF.s:2866   .text.dm_msg_thing_event_notify_reply:000000000000002c .L0 
C:\Users\stapi\AppData\Local\Temp\ccpaGqeF.s:2867   .text.dm_msg_thing_event_notify_reply:000000000000002c .L0 
C:\Users\stapi\AppData\Local\Temp\ccpaGqeF.s:2868   .text.dm_msg_thing_event_notify_reply:000000000000002c .L0 
C:\Users\stapi\AppData\Local\Temp\ccpaGqeF.s:2871   .text.dm_msg_thing_event_notify_reply:000000000000002c .L0 
C:\Users\stapi\AppData\Local\Temp\ccpaGqeF.s:2873   .text.dm_msg_thing_event_notify_reply:000000000000002c .L0 
C:\Users\stapi\AppData\Local\Temp\ccpaGqeF.s:2876   .text.dm_msg_thing_event_notify_reply:0000000000000030 .L0 
C:\Users\stapi\AppData\Local\Temp\ccpaGqeF.s:2881   .text.dm_msg_thing_event_notify_reply:000000000000003a .L0 
C:\Users\stapi\AppData\Local\Temp\ccpaGqeF.s:2882   .text.dm_msg_thing_event_notify_reply:000000000000003a .L0 
C:\Users\stapi\AppData\Local\Temp\ccpaGqeF.s:2886   .text.dm_msg_thing_event_notify_reply:0000000000000044 .L0 
C:\Users\stapi\AppData\Local\Temp\ccpaGqeF.s:2888   .text.dm_msg_thing_event_notify_reply:0000000000000046 .L0 
C:\Users\stapi\AppData\Local\Temp\ccpaGqeF.s:2891   .text.dm_msg_thing_event_notify_reply:0000000000000048 .L0 
C:\Users\stapi\AppData\Local\Temp\ccpaGqeF.s:2892   .text.dm_msg_thing_event_notify_reply:0000000000000048 .L0 
C:\Users\stapi\AppData\Local\Temp\ccpaGqeF.s:2894   .text.dm_msg_thing_event_notify_reply:000000000000004a .L0 
C:\Users\stapi\AppData\Local\Temp\ccpaGqeF.s:2895   .text.dm_msg_thing_event_notify_reply:000000000000004a .L0 
C:\Users\stapi\AppData\Local\Temp\ccpaGqeF.s:2898   .text.dm_msg_thing_event_notify_reply:0000000000000052 .L0 
C:\Users\stapi\AppData\Local\Temp\ccpaGqeF.s:2899   .text.dm_msg_thing_event_notify_reply:0000000000000052 .L0 
C:\Users\stapi\AppData\Local\Temp\ccpaGqeF.s:2901   .text.dm_msg_thing_event_notify_reply:0000000000000054 .L0 
C:\Users\stapi\AppData\Local\Temp\ccpaGqeF.s:2902   .text.dm_msg_thing_event_notify_reply:0000000000000054 .L0 
C:\Users\stapi\AppData\Local\Temp\ccpaGqeF.s:2904   .text.dm_msg_thing_event_notify_reply:0000000000000056 .L0 
C:\Users\stapi\AppData\Local\Temp\ccpaGqeF.s:2906   .text.dm_msg_thing_event_notify_reply:000000000000005a .L0 
C:\Users\stapi\AppData\Local\Temp\ccpaGqeF.s:2908   .text.dm_msg_thing_event_notify_reply:000000000000005e .L0 
C:\Users\stapi\AppData\Local\Temp\ccpaGqeF.s:2911   .text.dm_msg_thing_event_notify_reply:0000000000000062 .L0 
C:\Users\stapi\AppData\Local\Temp\ccpaGqeF.s:2912   .text.dm_msg_thing_event_notify_reply:0000000000000062 .L0 
C:\Users\stapi\AppData\Local\Temp\ccpaGqeF.s:2915   .text.dm_msg_thing_event_notify_reply:0000000000000068 .L0 
C:\Users\stapi\AppData\Local\Temp\ccpaGqeF.s:2923   .text.dm_msg_thing_event_notify_reply:000000000000007c .L0 
C:\Users\stapi\AppData\Local\Temp\ccpaGqeF.s:2925   .text.dm_msg_thing_event_notify_reply:000000000000007e .L0 
C:\Users\stapi\AppData\Local\Temp\ccpaGqeF.s:2926   .text.dm_msg_thing_event_notify_reply:000000000000007e .L0 
C:\Users\stapi\AppData\Local\Temp\ccpaGqeF.s:2929   .text.dm_msg_thing_event_notify_reply:0000000000000082 .L0 
C:\Users\stapi\AppData\Local\Temp\ccpaGqeF.s:2930   .text.dm_msg_thing_event_notify_reply:0000000000000082 .L0 
C:\Users\stapi\AppData\Local\Temp\ccpaGqeF.s:2934   .text.dm_msg_thing_event_notify_reply:0000000000000086 .L0 
C:\Users\stapi\AppData\Local\Temp\ccpaGqeF.s:2935   .text.dm_msg_thing_event_notify_reply:0000000000000086 .L0 
C:\Users\stapi\AppData\Local\Temp\ccpaGqeF.s:2938   .text.dm_msg_thing_event_notify_reply:000000000000008a .L0 
C:\Users\stapi\AppData\Local\Temp\ccpaGqeF.s:2939   .text.dm_msg_thing_event_notify_reply:000000000000008a .L0 
C:\Users\stapi\AppData\Local\Temp\ccpaGqeF.s:2947   .text.dm_msg_thing_event_notify_reply:000000000000009a .L0 
C:\Users\stapi\AppData\Local\Temp\ccpaGqeF.s:2948   .text.dm_msg_thing_event_notify_reply:000000000000009a .L0 
C:\Users\stapi\AppData\Local\Temp\ccpaGqeF.s:2950   .text.dm_msg_thing_event_notify_reply:000000000000009c .L0 
C:\Users\stapi\AppData\Local\Temp\ccpaGqeF.s:2952   .text.dm_msg_thing_event_notify_reply:000000000000009e .L0 
C:\Users\stapi\AppData\Local\Temp\ccpaGqeF.s:2957   .text.dm_msg_thing_event_notify_reply:00000000000000aa .L0 
C:\Users\stapi\AppData\Local\Temp\ccpaGqeF.s:2969   .text.dm_msg_thing_event_notify_reply:00000000000000c8 .L0 
C:\Users\stapi\AppData\Local\Temp\ccpaGqeF.s:2970   .text.dm_msg_thing_event_notify_reply:00000000000000c8 .L0 
C:\Users\stapi\AppData\Local\Temp\ccpaGqeF.s:2977   .text.dm_msg_thing_event_notify_reply:00000000000000d8 .L0 
C:\Users\stapi\AppData\Local\Temp\ccpaGqeF.s:2978   .text.dm_msg_thing_event_notify_reply:00000000000000d8 .L0 
C:\Users\stapi\AppData\Local\Temp\ccpaGqeF.s:2980   .text.dm_msg_thing_event_notify_reply:00000000000000da .L0 
C:\Users\stapi\AppData\Local\Temp\ccpaGqeF.s:2985   .text.dm_msg_thing_event_notify_reply:00000000000000e6 .L0 
C:\Users\stapi\AppData\Local\Temp\ccpaGqeF.s:2992   .text.dm_msg_rrpc_request:0000000000000000 dm_msg_rrpc_request
C:\Users\stapi\AppData\Local\Temp\ccpaGqeF.s:2995   .text.dm_msg_rrpc_request:0000000000000000 .L0 
C:\Users\stapi\AppData\Local\Temp\ccpaGqeF.s:2997   .text.dm_msg_rrpc_request:0000000000000000 .L0 
C:\Users\stapi\AppData\Local\Temp\ccpaGqeF.s:2998   .text.dm_msg_rrpc_request:0000000000000008 .L0 
C:\Users\stapi\AppData\Local\Temp\ccpaGqeF.s:2999   .text.dm_msg_rrpc_request:0000000000000008 .L0 
C:\Users\stapi\AppData\Local\Temp\ccpaGqeF.s:3000   .text.dm_msg_rrpc_request:0000000000000008 .L0 
C:\Users\stapi\AppData\Local\Temp\ccpaGqeF.s:3001   .text.dm_msg_rrpc_request:0000000000000008 .L0 
C:\Users\stapi\AppData\Local\Temp\ccpaGqeF.s:3002   .text.dm_msg_rrpc_request:0000000000000008 .L0 
C:\Users\stapi\AppData\Local\Temp\ccpaGqeF.s:3003   .text.dm_msg_rrpc_request:0000000000000008 .L0 
C:\Users\stapi\AppData\Local\Temp\ccpaGqeF.s:3004   .text.dm_msg_rrpc_request:0000000000000008 .L0 
C:\Users\stapi\AppData\Local\Temp\ccpaGqeF.s:3005   .text.dm_msg_rrpc_request:0000000000000008 .L0 
C:\Users\stapi\AppData\Local\Temp\ccpaGqeF.s:3006   .text.dm_msg_rrpc_request:0000000000000008 .L0 
C:\Users\stapi\AppData\Local\Temp\ccpaGqeF.s:3009   .text.dm_msg_rrpc_request:0000000000000008 .L0 
C:\Users\stapi\AppData\Local\Temp\ccpaGqeF.s:3010   .text.dm_msg_rrpc_request:0000000000000008 .L0 
C:\Users\stapi\AppData\Local\Temp\ccpaGqeF.s:3011   .text.dm_msg_rrpc_request:000000000000000a .L0 
C:\Users\stapi\AppData\Local\Temp\ccpaGqeF.s:3013   .text.dm_msg_rrpc_request:000000000000000a .L0 
C:\Users\stapi\AppData\Local\Temp\ccpaGqeF.s:3015   .text.dm_msg_rrpc_request:000000000000000c .L0 
C:\Users\stapi\AppData\Local\Temp\ccpaGqeF.s:3018   .text.dm_msg_rrpc_request:000000000000000e .L0 
C:\Users\stapi\AppData\Local\Temp\ccpaGqeF.s:3021   .text.dm_msg_rrpc_request:0000000000000012 .L0 
C:\Users\stapi\AppData\Local\Temp\ccpaGqeF.s:3024   .text.dm_msg_rrpc_request:0000000000000014 .L0 
C:\Users\stapi\AppData\Local\Temp\ccpaGqeF.s:3025   .text.dm_msg_rrpc_request:0000000000000014 .L0 
C:\Users\stapi\AppData\Local\Temp\ccpaGqeF.s:3028   .text.dm_msg_rrpc_request:0000000000000016 .L0 
C:\Users\stapi\AppData\Local\Temp\ccpaGqeF.s:3029   .text.dm_msg_rrpc_request:0000000000000016 .L0 
C:\Users\stapi\AppData\Local\Temp\ccpaGqeF.s:3030   .text.dm_msg_rrpc_request:0000000000000016 .L0 
C:\Users\stapi\AppData\Local\Temp\ccpaGqeF.s:3033   .text.dm_msg_rrpc_request:000000000000001e .L0 
C:\Users\stapi\AppData\Local\Temp\ccpaGqeF.s:3034   .text.dm_msg_rrpc_request:000000000000001e .L0 
C:\Users\stapi\AppData\Local\Temp\ccpaGqeF.s:3038   .text.dm_msg_rrpc_request:0000000000000020 .L0 
C:\Users\stapi\AppData\Local\Temp\ccpaGqeF.s:3039   .text.dm_msg_rrpc_request:0000000000000020 .L0 
C:\Users\stapi\AppData\Local\Temp\ccpaGqeF.s:3040   .text.dm_msg_rrpc_request:0000000000000020 .L0 
C:\Users\stapi\AppData\Local\Temp\ccpaGqeF.s:3041   .text.dm_msg_rrpc_request:0000000000000020 .L0 
C:\Users\stapi\AppData\Local\Temp\ccpaGqeF.s:3045   .text.dm_msg_rrpc_request:0000000000000022 .L0 
C:\Users\stapi\AppData\Local\Temp\ccpaGqeF.s:3047   .text.dm_msg_rrpc_request:0000000000000026 .L0 
C:\Users\stapi\AppData\Local\Temp\ccpaGqeF.s:3048   .text.dm_msg_rrpc_request:0000000000000026 .L0 
C:\Users\stapi\AppData\Local\Temp\ccpaGqeF.s:3050   .text.dm_msg_rrpc_request:000000000000002e .L0 
C:\Users\stapi\AppData\Local\Temp\ccpaGqeF.s:3051   .text.dm_msg_rrpc_request:000000000000002e .L0 
C:\Users\stapi\AppData\Local\Temp\ccpaGqeF.s:3052   .text.dm_msg_rrpc_request:000000000000002e .L0 
C:\Users\stapi\AppData\Local\Temp\ccpaGqeF.s:3053   .text.dm_msg_rrpc_request:000000000000002e .L0 
C:\Users\stapi\AppData\Local\Temp\ccpaGqeF.s:3054   .text.dm_msg_rrpc_request:000000000000002e .L0 
C:\Users\stapi\AppData\Local\Temp\ccpaGqeF.s:3055   .text.dm_msg_rrpc_request:000000000000002e .L0 
C:\Users\stapi\AppData\Local\Temp\ccpaGqeF.s:3056   .text.dm_msg_rrpc_request:000000000000002e .L0 
C:\Users\stapi\AppData\Local\Temp\ccpaGqeF.s:3057   .text.dm_msg_rrpc_request:000000000000002e .L0 
C:\Users\stapi\AppData\Local\Temp\ccpaGqeF.s:3058   .text.dm_msg_rrpc_request:000000000000002e .L0 
C:\Users\stapi\AppData\Local\Temp\ccpaGqeF.s:3061   .text.dm_msg_rrpc_request:000000000000002e .L0 
C:\Users\stapi\AppData\Local\Temp\ccpaGqeF.s:3063   .text.dm_msg_rrpc_request:000000000000002e .L0 
C:\Users\stapi\AppData\Local\Temp\ccpaGqeF.s:3064   .text.dm_msg_rrpc_request:000000000000002e .L0 
C:\Users\stapi\AppData\Local\Temp\ccpaGqeF.s:3073   .text.dm_msg_rrpc_request:0000000000000042 .L0 
C:\Users\stapi\AppData\Local\Temp\ccpaGqeF.s:3074   .text.dm_msg_rrpc_request:0000000000000042 .L0 
C:\Users\stapi\AppData\Local\Temp\ccpaGqeF.s:3076   .text.dm_msg_rrpc_request:0000000000000044 .L0 
C:\Users\stapi\AppData\Local\Temp\ccpaGqeF.s:3078   .text.dm_msg_rrpc_request:0000000000000048 .L0 
C:\Users\stapi\AppData\Local\Temp\ccpaGqeF.s:3080   .text.dm_msg_rrpc_request:000000000000004a .L0 
C:\Users\stapi\AppData\Local\Temp\ccpaGqeF.s:3082   .text.dm_msg_rrpc_request:000000000000004e .L0 
C:\Users\stapi\AppData\Local\Temp\ccpaGqeF.s:3084   .text.dm_msg_rrpc_request:0000000000000052 .L0 
C:\Users\stapi\AppData\Local\Temp\ccpaGqeF.s:3085   .text.dm_msg_rrpc_request:0000000000000052 .L0 
C:\Users\stapi\AppData\Local\Temp\ccpaGqeF.s:3088   .text.dm_msg_rrpc_request:0000000000000058 .L0 
C:\Users\stapi\AppData\Local\Temp\ccpaGqeF.s:3090   .text.dm_msg_rrpc_request:000000000000005c .L0 
C:\Users\stapi\AppData\Local\Temp\ccpaGqeF.s:3093   .text.dm_msg_rrpc_request:0000000000000060 .L0 
C:\Users\stapi\AppData\Local\Temp\ccpaGqeF.s:3095   .text.dm_msg_rrpc_request:0000000000000064 .L0 
C:\Users\stapi\AppData\Local\Temp\ccpaGqeF.s:3098   .text.dm_msg_rrpc_request:0000000000000066 .L0 
C:\Users\stapi\AppData\Local\Temp\ccpaGqeF.s:3099   .text.dm_msg_rrpc_request:0000000000000066 .L0 
C:\Users\stapi\AppData\Local\Temp\ccpaGqeF.s:3102   .text.dm_msg_rrpc_request:000000000000006a .L0 
C:\Users\stapi\AppData\Local\Temp\ccpaGqeF.s:3104   .text.dm_msg_rrpc_request:000000000000006c .L0 
C:\Users\stapi\AppData\Local\Temp\ccpaGqeF.s:3107   .text.dm_msg_rrpc_request:0000000000000070 .L0 
C:\Users\stapi\AppData\Local\Temp\ccpaGqeF.s:3110   .text.dm_msg_rrpc_request:0000000000000072 .L0 
C:\Users\stapi\AppData\Local\Temp\ccpaGqeF.s:3111   .text.dm_msg_rrpc_request:0000000000000072 .L0 
C:\Users\stapi\AppData\Local\Temp\ccpaGqeF.s:3112   .text.dm_msg_rrpc_request:0000000000000072 .L0 
C:\Users\stapi\AppData\Local\Temp\ccpaGqeF.s:3117   .text.dm_msg_rrpc_request:000000000000007c .L0 
C:\Users\stapi\AppData\Local\Temp\ccpaGqeF.s:3118   .text.dm_msg_rrpc_request:000000000000007c .L0 
C:\Users\stapi\AppData\Local\Temp\ccpaGqeF.s:3120   .text.dm_msg_rrpc_request:000000000000007e .L0 
C:\Users\stapi\AppData\Local\Temp\ccpaGqeF.s:3122   .text.dm_msg_rrpc_request:0000000000000080 .L0 
C:\Users\stapi\AppData\Local\Temp\ccpaGqeF.s:3127   .text.dm_msg_rrpc_request:000000000000008c .L0 
C:\Users\stapi\AppData\Local\Temp\ccpaGqeF.s:3145   .text.dm_msg_rrpc_request:00000000000000b6 .L0 
C:\Users\stapi\AppData\Local\Temp\ccpaGqeF.s:3146   .text.dm_msg_rrpc_request:00000000000000b6 .L0 
C:\Users\stapi\AppData\Local\Temp\ccpaGqeF.s:3153   .text.dm_msg_rrpc_request:00000000000000c6 .L0 
C:\Users\stapi\AppData\Local\Temp\ccpaGqeF.s:3154   .text.dm_msg_rrpc_request:00000000000000c6 .L0 
C:\Users\stapi\AppData\Local\Temp\ccpaGqeF.s:3156   .text.dm_msg_rrpc_request:00000000000000c8 .L0 
C:\Users\stapi\AppData\Local\Temp\ccpaGqeF.s:3161   .text.dm_msg_rrpc_request:00000000000000d4 .L0 
C:\Users\stapi\AppData\Local\Temp\ccpaGqeF.s:3168   .text.dm_msg_thing_event_notify:0000000000000000 dm_msg_thing_event_notify
C:\Users\stapi\AppData\Local\Temp\ccpaGqeF.s:3171   .text.dm_msg_thing_event_notify:0000000000000000 .L0 
C:\Users\stapi\AppData\Local\Temp\ccpaGqeF.s:3173   .text.dm_msg_thing_event_notify:0000000000000000 .L0 
C:\Users\stapi\AppData\Local\Temp\ccpaGqeF.s:3174   .text.dm_msg_thing_event_notify:0000000000000008 .L0 
C:\Users\stapi\AppData\Local\Temp\ccpaGqeF.s:3175   .text.dm_msg_thing_event_notify:0000000000000008 .L0 
C:\Users\stapi\AppData\Local\Temp\ccpaGqeF.s:3176   .text.dm_msg_thing_event_notify:0000000000000008 .L0 
C:\Users\stapi\AppData\Local\Temp\ccpaGqeF.s:3177   .text.dm_msg_thing_event_notify:0000000000000008 .L0 
C:\Users\stapi\AppData\Local\Temp\ccpaGqeF.s:3178   .text.dm_msg_thing_event_notify:0000000000000008 .L0 
C:\Users\stapi\AppData\Local\Temp\ccpaGqeF.s:3179   .text.dm_msg_thing_event_notify:0000000000000008 .L0 
C:\Users\stapi\AppData\Local\Temp\ccpaGqeF.s:3182   .text.dm_msg_thing_event_notify:0000000000000008 .L0 
C:\Users\stapi\AppData\Local\Temp\ccpaGqeF.s:3183   .text.dm_msg_thing_event_notify:0000000000000008 .L0 
C:\Users\stapi\AppData\Local\Temp\ccpaGqeF.s:3184   .text.dm_msg_thing_event_notify:0000000000000008 .L0 
C:\Users\stapi\AppData\Local\Temp\ccpaGqeF.s:3185   .text.dm_msg_thing_event_notify:0000000000000008 .L0 
C:\Users\stapi\AppData\Local\Temp\ccpaGqeF.s:3187   .text.dm_msg_thing_event_notify:000000000000000a .L0 
C:\Users\stapi\AppData\Local\Temp\ccpaGqeF.s:3190   .text.dm_msg_thing_event_notify:000000000000000e .L0 
C:\Users\stapi\AppData\Local\Temp\ccpaGqeF.s:3193   .text.dm_msg_thing_event_notify:0000000000000012 .L0 
C:\Users\stapi\AppData\Local\Temp\ccpaGqeF.s:3194   .text.dm_msg_thing_event_notify:0000000000000012 .L0 
C:\Users\stapi\AppData\Local\Temp\ccpaGqeF.s:3202   .text.dm_msg_thing_event_notify:0000000000000020 .L0 
C:\Users\stapi\AppData\Local\Temp\ccpaGqeF.s:3203   .text.dm_msg_thing_event_notify:0000000000000020 .L0 
C:\Users\stapi\AppData\Local\Temp\ccpaGqeF.s:3205   .text.dm_msg_thing_event_notify:0000000000000022 .L0 
C:\Users\stapi\AppData\Local\Temp\ccpaGqeF.s:3209   .text.dm_msg_thing_event_notify:0000000000000028 .L0 
C:\Users\stapi\AppData\Local\Temp\ccpaGqeF.s:3212   .text.dm_msg_thing_event_notify:0000000000000030 .L0 
C:\Users\stapi\AppData\Local\Temp\ccpaGqeF.s:3222   .text.dm_msg_thing_event_notify:000000000000004e .L0 
C:\Users\stapi\AppData\Local\Temp\ccpaGqeF.s:3223   .text.dm_msg_thing_event_notify:000000000000004e .L0 
C:\Users\stapi\AppData\Local\Temp\ccpaGqeF.s:3228   .text.dm_msg_thing_event_notify:000000000000005c .L0 
C:\Users\stapi\AppData\Local\Temp\ccpaGqeF.s:3229   .text.dm_msg_thing_event_notify:000000000000005c .L0 
C:\Users\stapi\AppData\Local\Temp\ccpaGqeF.s:3231   .text.dm_msg_thing_event_notify:000000000000005e .L0 
C:\Users\stapi\AppData\Local\Temp\ccpaGqeF.s:3236   .text.dm_msg_thing_event_notify:0000000000000068 .L0 
C:\Users\stapi\AppData\Local\Temp\ccpaGqeF.s:3237   .text.dm_msg_thing_event_notify:0000000000000068 .L0 
C:\Users\stapi\AppData\Local\Temp\ccpaGqeF.s:3238   .text.dm_msg_thing_event_notify:0000000000000068 .L0 
C:\Users\stapi\AppData\Local\Temp\ccpaGqeF.s:3239   .text.dm_msg_thing_event_notify:0000000000000068 .L0 
C:\Users\stapi\AppData\Local\Temp\ccpaGqeF.s:3243   .text.dm_msg_thing_event_notify:000000000000006a .L0 
C:\Users\stapi\AppData\Local\Temp\ccpaGqeF.s:3244   .text.dm_msg_thing_event_notify:0000000000000072 .L0 
C:\Users\stapi\AppData\Local\Temp\ccpaGqeF.s:3245   .text.dm_msg_thing_event_notify:0000000000000072 .L0 
C:\Users\stapi\AppData\Local\Temp\ccpaGqeF.s:3246   .text.dm_msg_thing_event_notify:0000000000000072 .L0 
C:\Users\stapi\AppData\Local\Temp\ccpaGqeF.s:3247   .text.dm_msg_thing_event_notify:0000000000000072 .L0 
C:\Users\stapi\AppData\Local\Temp\ccpaGqeF.s:3248   .text.dm_msg_thing_event_notify:0000000000000072 .L0 
C:\Users\stapi\AppData\Local\Temp\ccpaGqeF.s:3249   .text.dm_msg_thing_event_notify:0000000000000072 .L0 
C:\Users\stapi\AppData\Local\Temp\ccpaGqeF.s:3250   .text.dm_msg_thing_event_notify:0000000000000072 .L0 
C:\Users\stapi\AppData\Local\Temp\ccpaGqeF.s:3253   .text.dm_msg_thing_event_notify:0000000000000072 .L0 
C:\Users\stapi\AppData\Local\Temp\ccpaGqeF.s:3255   .text.dm_msg_thing_event_notify:0000000000000072 .L0 
C:\Users\stapi\AppData\Local\Temp\ccpaGqeF.s:3258   .text.dm_msg_thing_event_notify:0000000000000076 .L0 
C:\Users\stapi\AppData\Local\Temp\ccpaGqeF.s:3269   .text.dm_msg_ntp_response:0000000000000000 dm_msg_ntp_response
C:\Users\stapi\AppData\Local\Temp\ccpaGqeF.s:3272   .text.dm_msg_ntp_response:0000000000000000 .L0 
C:\Users\stapi\AppData\Local\Temp\ccpaGqeF.s:3274   .text.dm_msg_ntp_response:0000000000000000 .L0 
C:\Users\stapi\AppData\Local\Temp\ccpaGqeF.s:3275   .text.dm_msg_ntp_response:0000000000000008 .L0 
C:\Users\stapi\AppData\Local\Temp\ccpaGqeF.s:3276   .text.dm_msg_ntp_response:0000000000000008 .L0 
C:\Users\stapi\AppData\Local\Temp\ccpaGqeF.s:3277   .text.dm_msg_ntp_response:0000000000000008 .L0 
C:\Users\stapi\AppData\Local\Temp\ccpaGqeF.s:3278   .text.dm_msg_ntp_response:0000000000000008 .L0 
C:\Users\stapi\AppData\Local\Temp\ccpaGqeF.s:3281   .text.dm_msg_ntp_response:0000000000000008 .L0 
C:\Users\stapi\AppData\Local\Temp\ccpaGqeF.s:3282   .text.dm_msg_ntp_response:0000000000000008 .L0 
C:\Users\stapi\AppData\Local\Temp\ccpaGqeF.s:3283   .text.dm_msg_ntp_response:0000000000000008 .L0 
C:\Users\stapi\AppData\Local\Temp\ccpaGqeF.s:3284   .text.dm_msg_ntp_response:0000000000000008 .L0 
C:\Users\stapi\AppData\Local\Temp\ccpaGqeF.s:3285   .text.dm_msg_ntp_response:0000000000000008 .L0 
C:\Users\stapi\AppData\Local\Temp\ccpaGqeF.s:3286   .text.dm_msg_ntp_response:0000000000000008 .L0 
C:\Users\stapi\AppData\Local\Temp\ccpaGqeF.s:3287   .text.dm_msg_ntp_response:0000000000000008 .L0 
C:\Users\stapi\AppData\Local\Temp\ccpaGqeF.s:3288   .text.dm_msg_ntp_response:000000000000000a .L0 
C:\Users\stapi\AppData\Local\Temp\ccpaGqeF.s:3290   .text.dm_msg_ntp_response:000000000000000a .L0 
C:\Users\stapi\AppData\Local\Temp\ccpaGqeF.s:3296   .text.dm_msg_ntp_response:0000000000000014 .L0 
C:\Users\stapi\AppData\Local\Temp\ccpaGqeF.s:3297   .text.dm_msg_ntp_response:0000000000000014 .L0 
C:\Users\stapi\AppData\Local\Temp\ccpaGqeF.s:3299   .text.dm_msg_ntp_response:0000000000000016 .L0 
C:\Users\stapi\AppData\Local\Temp\ccpaGqeF.s:3301   .text.dm_msg_ntp_response:0000000000000018 .L0 
C:\Users\stapi\AppData\Local\Temp\ccpaGqeF.s:3303   .text.dm_msg_ntp_response:000000000000001a .L0 
C:\Users\stapi\AppData\Local\Temp\ccpaGqeF.s:3305   .text.dm_msg_ntp_response:000000000000001e .L0 
C:\Users\stapi\AppData\Local\Temp\ccpaGqeF.s:3306   .text.dm_msg_ntp_response:000000000000001e .L0 
C:\Users\stapi\AppData\Local\Temp\ccpaGqeF.s:3311   .text.dm_msg_ntp_response:000000000000002c .L0 
C:\Users\stapi\AppData\Local\Temp\ccpaGqeF.s:3315   .text.dm_msg_ntp_response:000000000000002e .L0 
C:\Users\stapi\AppData\Local\Temp\ccpaGqeF.s:3316   .text.dm_msg_ntp_response:000000000000002e .L0 
C:\Users\stapi\AppData\Local\Temp\ccpaGqeF.s:3317   .text.dm_msg_ntp_response:000000000000002e .L0 
C:\Users\stapi\AppData\Local\Temp\ccpaGqeF.s:3318   .text.dm_msg_ntp_response:000000000000002e .L0 
C:\Users\stapi\AppData\Local\Temp\ccpaGqeF.s:3322   .text.dm_msg_ntp_response:0000000000000030 .L0 
C:\Users\stapi\AppData\Local\Temp\ccpaGqeF.s:3324   .text.dm_msg_ntp_response:0000000000000034 .L0 
C:\Users\stapi\AppData\Local\Temp\ccpaGqeF.s:3325   .text.dm_msg_ntp_response:0000000000000034 .L0 
C:\Users\stapi\AppData\Local\Temp\ccpaGqeF.s:3327   .text.dm_msg_ntp_response:000000000000003c .L0 
C:\Users\stapi\AppData\Local\Temp\ccpaGqeF.s:3328   .text.dm_msg_ntp_response:000000000000003c .L0 
C:\Users\stapi\AppData\Local\Temp\ccpaGqeF.s:3329   .text.dm_msg_ntp_response:000000000000003c .L0 
C:\Users\stapi\AppData\Local\Temp\ccpaGqeF.s:3330   .text.dm_msg_ntp_response:000000000000003c .L0 
C:\Users\stapi\AppData\Local\Temp\ccpaGqeF.s:3333   .text.dm_msg_ntp_response:000000000000003c .L0 
C:\Users\stapi\AppData\Local\Temp\ccpaGqeF.s:3335   .text.dm_msg_ntp_response:000000000000003c .L0 
C:\Users\stapi\AppData\Local\Temp\ccpaGqeF.s:3344   .text.dm_msg_ntp_response:0000000000000054 .L0 
C:\Users\stapi\AppData\Local\Temp\ccpaGqeF.s:3346   .text.dm_msg_ntp_response:0000000000000056 .L0 
C:\Users\stapi\AppData\Local\Temp\ccpaGqeF.s:3352   .text.dm_msg_ntp_response:0000000000000064 .L0 
C:\Users\stapi\AppData\Local\Temp\ccpaGqeF.s:3353   .text.dm_msg_ntp_response:0000000000000064 .L0 
C:\Users\stapi\AppData\Local\Temp\ccpaGqeF.s:3357   .text.dm_msg_ntp_response:000000000000006e .L0 
C:\Users\stapi\AppData\Local\Temp\ccpaGqeF.s:3360   .text.dm_msg_ntp_response:0000000000000076 .L0 
C:\Users\stapi\AppData\Local\Temp\ccpaGqeF.s:3361   .text.dm_msg_ntp_response:0000000000000076 .L0 
C:\Users\stapi\AppData\Local\Temp\ccpaGqeF.s:3363   .text.dm_msg_ntp_response:0000000000000078 .L0 
C:\Users\stapi\AppData\Local\Temp\ccpaGqeF.s:3366   .text.dm_msg_ntp_response:000000000000007c .L0 
C:\Users\stapi\AppData\Local\Temp\ccpaGqeF.s:3369   .text.dm_msg_ntp_response:000000000000007e .L0 
C:\Users\stapi\AppData\Local\Temp\ccpaGqeF.s:3370   .text.dm_msg_ntp_response:000000000000007e .L0 
C:\Users\stapi\AppData\Local\Temp\ccpaGqeF.s:3376   .text.dm_msg_ntp_response:000000000000008a .L0 
C:\Users\stapi\AppData\Local\Temp\ccpaGqeF.s:3377   .text.dm_msg_ntp_response:000000000000008a .L0 
C:\Users\stapi\AppData\Local\Temp\ccpaGqeF.s:3379   .text.dm_msg_ntp_response:000000000000008c .L0 
C:\Users\stapi\AppData\Local\Temp\ccpaGqeF.s:3381   .text.dm_msg_ntp_response:000000000000008e .L0 
C:\Users\stapi\AppData\Local\Temp\ccpaGqeF.s:3386   .text.dm_msg_ntp_response:000000000000009a .L0 
C:\Users\stapi\AppData\Local\Temp\ccpaGqeF.s:3395   .text.dm_msg_ntp_response:00000000000000b2 .L0 
C:\Users\stapi\AppData\Local\Temp\ccpaGqeF.s:3396   .text.dm_msg_ntp_response:00000000000000b2 .L0 
C:\Users\stapi\AppData\Local\Temp\ccpaGqeF.s:3403   .text.dm_msg_ntp_response:00000000000000c2 .L0 
C:\Users\stapi\AppData\Local\Temp\ccpaGqeF.s:3404   .text.dm_msg_ntp_response:00000000000000c2 .L0 
C:\Users\stapi\AppData\Local\Temp\ccpaGqeF.s:3406   .text.dm_msg_ntp_response:00000000000000c4 .L0 
C:\Users\stapi\AppData\Local\Temp\ccpaGqeF.s:3411   .text.dm_msg_ntp_response:00000000000000d0 .L0 
C:\Users\stapi\AppData\Local\Temp\ccpaGqeF.s:3418   .text.dm_msg_ext_error_response:0000000000000000 dm_msg_ext_error_response
C:\Users\stapi\AppData\Local\Temp\ccpaGqeF.s:3421   .text.dm_msg_ext_error_response:0000000000000000 .L0 
C:\Users\stapi\AppData\Local\Temp\ccpaGqeF.s:3423   .text.dm_msg_ext_error_response:0000000000000000 .L0 
C:\Users\stapi\AppData\Local\Temp\ccpaGqeF.s:3424   .text.dm_msg_ext_error_response:0000000000000000 .L0 
C:\Users\stapi\AppData\Local\Temp\ccpaGqeF.s:3425   .text.dm_msg_ext_error_response:0000000000000000 .L0 
C:\Users\stapi\AppData\Local\Temp\ccpaGqeF.s:3426   .text.dm_msg_ext_error_response:0000000000000000 .L0 
C:\Users\stapi\AppData\Local\Temp\ccpaGqeF.s:3427   .text.dm_msg_ext_error_response:0000000000000000 .L0 
C:\Users\stapi\AppData\Local\Temp\ccpaGqeF.s:3429   .text.dm_msg_ext_error_response:0000000000000002 .L0 
C:\Users\stapi\AppData\Local\Temp\ccpaGqeF.s:3430   .text.dm_msg_ext_error_response:000000000000000a .L0 
C:\Users\stapi\AppData\Local\Temp\ccpaGqeF.s:3431   .text.dm_msg_ext_error_response:000000000000000a .L0 
C:\Users\stapi\AppData\Local\Temp\ccpaGqeF.s:3432   .text.dm_msg_ext_error_response:000000000000000a .L0 
C:\Users\stapi\AppData\Local\Temp\ccpaGqeF.s:3433   .text.dm_msg_ext_error_response:000000000000000a .L0 
C:\Users\stapi\AppData\Local\Temp\ccpaGqeF.s:3434   .text.dm_msg_ext_error_response:000000000000000a .L0 
C:\Users\stapi\AppData\Local\Temp\ccpaGqeF.s:3436   .text.dm_msg_ext_error_response:000000000000000c .L0 
C:\Users\stapi\AppData\Local\Temp\ccpaGqeF.s:3439   .text.dm_msg_ext_error_response:000000000000000e .L0 
C:\Users\stapi\AppData\Local\Temp\ccpaGqeF.s:3441   .text.dm_msg_ext_error_response:0000000000000010 .L0 
C:\Users\stapi\AppData\Local\Temp\ccpaGqeF.s:3443   .text.dm_msg_ext_error_response:0000000000000014 .L0 
C:\Users\stapi\AppData\Local\Temp\ccpaGqeF.s:3447   .text.dm_msg_ext_error_response:000000000000001a .L0 
C:\Users\stapi\AppData\Local\Temp\ccpaGqeF.s:3448   .text.dm_msg_ext_error_response:000000000000001a .L0 
C:\Users\stapi\AppData\Local\Temp\ccpaGqeF.s:3449   .text.dm_msg_ext_error_response:000000000000001a .L0 
C:\Users\stapi\AppData\Local\Temp\ccpaGqeF.s:3459   .text.dm_msg_ext_error_response:000000000000002a .L0 
C:\Users\stapi\AppData\Local\Temp\ccpaGqeF.s:3460   .text.dm_msg_ext_error_response:000000000000002a .L0 
C:\Users\stapi\AppData\Local\Temp\ccpaGqeF.s:3462   .text.dm_msg_ext_error_response:000000000000002c .L0 
C:\Users\stapi\AppData\Local\Temp\ccpaGqeF.s:3464   .text.dm_msg_ext_error_response:000000000000002e .L0 
C:\Users\stapi\AppData\Local\Temp\ccpaGqeF.s:3469   .text.dm_msg_ext_error_response:000000000000003a .L0 
C:\Users\stapi\AppData\Local\Temp\ccpaGqeF.s:3475   .text.dm_msg_ext_error_response:0000000000000048 .L0 
C:\Users\stapi\AppData\Local\Temp\ccpaGqeF.s:3476   .text.dm_msg_ext_error_response:0000000000000048 .L0 
C:\Users\stapi\AppData\Local\Temp\ccpaGqeF.s:3483   .text.dm_msg_ext_error_response:0000000000000058 .L0 
C:\Users\stapi\AppData\Local\Temp\ccpaGqeF.s:3484   .text.dm_msg_ext_error_response:0000000000000058 .L0 
C:\Users\stapi\AppData\Local\Temp\ccpaGqeF.s:3486   .text.dm_msg_ext_error_response:000000000000005a .L0 
C:\Users\stapi\AppData\Local\Temp\ccpaGqeF.s:3491   .text.dm_msg_ext_error_response:0000000000000064 .L0 
C:\Users\stapi\AppData\Local\Temp\ccpaGqeF.s:3492   .text.dm_msg_ext_error_response:0000000000000064 .L0 
C:\Users\stapi\AppData\Local\Temp\ccpaGqeF.s:3493   .text.dm_msg_ext_error_response:0000000000000064 .L0 
C:\Users\stapi\AppData\Local\Temp\ccpaGqeF.s:3494   .text.dm_msg_ext_error_response:0000000000000064 .L0 
C:\Users\stapi\AppData\Local\Temp\ccpaGqeF.s:3498   .text.dm_msg_ext_error_response:0000000000000066 .L0 
C:\Users\stapi\AppData\Local\Temp\ccpaGqeF.s:3500   .text.dm_msg_ext_error_response:000000000000006a .L0 
C:\Users\stapi\AppData\Local\Temp\ccpaGqeF.s:3502   .text.dm_msg_ext_error_response:0000000000000072 .L0 
C:\Users\stapi\AppData\Local\Temp\ccpaGqeF.s:3503   .text.dm_msg_ext_error_response:0000000000000072 .L0 
C:\Users\stapi\AppData\Local\Temp\ccpaGqeF.s:3504   .text.dm_msg_ext_error_response:0000000000000072 .L0 
C:\Users\stapi\AppData\Local\Temp\ccpaGqeF.s:3505   .text.dm_msg_ext_error_response:0000000000000072 .L0 
C:\Users\stapi\AppData\Local\Temp\ccpaGqeF.s:3506   .text.dm_msg_ext_error_response:0000000000000072 .L0 
C:\Users\stapi\AppData\Local\Temp\ccpaGqeF.s:3509   .text.dm_msg_ext_error_response:0000000000000072 .L0 
C:\Users\stapi\AppData\Local\Temp\ccpaGqeF.s:3511   .text.dm_msg_ext_error_response:0000000000000072 .L0 
C:\Users\stapi\AppData\Local\Temp\ccpaGqeF.s:3513   .text.dm_msg_ext_error_response:0000000000000074 .L0 
C:\Users\stapi\AppData\Local\Temp\ccpaGqeF.s:3516   .text.dm_msg_ext_error_response:0000000000000078 .L0 
C:\Users\stapi\AppData\Local\Temp\ccpaGqeF.s:3523   .text.dm_msg_cloud_connected:0000000000000000 dm_msg_cloud_connected
C:\Users\stapi\AppData\Local\Temp\ccpaGqeF.s:3526   .text.dm_msg_cloud_connected:0000000000000000 .L0 
C:\Users\stapi\AppData\Local\Temp\ccpaGqeF.s:3527   .text.dm_msg_cloud_connected:0000000000000000 .L0 
C:\Users\stapi\AppData\Local\Temp\ccpaGqeF.s:3528   .text.dm_msg_cloud_connected:0000000000000000 .L0 
C:\Users\stapi\AppData\Local\Temp\ccpaGqeF.s:3529   .text.dm_msg_cloud_connected:0000000000000000 .L0 
C:\Users\stapi\AppData\Local\Temp\ccpaGqeF.s:3533   .text.dm_msg_cloud_connected:000000000000000c .L0 
C:\Users\stapi\AppData\Local\Temp\ccpaGqeF.s:3540   .text.dm_msg_cloud_disconnect:0000000000000000 dm_msg_cloud_disconnect
C:\Users\stapi\AppData\Local\Temp\ccpaGqeF.s:3543   .text.dm_msg_cloud_disconnect:0000000000000000 .L0 
C:\Users\stapi\AppData\Local\Temp\ccpaGqeF.s:3544   .text.dm_msg_cloud_disconnect:0000000000000000 .L0 
C:\Users\stapi\AppData\Local\Temp\ccpaGqeF.s:3545   .text.dm_msg_cloud_disconnect:0000000000000000 .L0 
C:\Users\stapi\AppData\Local\Temp\ccpaGqeF.s:3546   .text.dm_msg_cloud_disconnect:0000000000000000 .L0 
C:\Users\stapi\AppData\Local\Temp\ccpaGqeF.s:3550   .text.dm_msg_cloud_disconnect:000000000000000c .L0 
C:\Users\stapi\AppData\Local\Temp\ccpaGqeF.s:3557   .text.dm_msg_cloud_reconnect:0000000000000000 dm_msg_cloud_reconnect
C:\Users\stapi\AppData\Local\Temp\ccpaGqeF.s:3560   .text.dm_msg_cloud_reconnect:0000000000000000 .L0 
C:\Users\stapi\AppData\Local\Temp\ccpaGqeF.s:3561   .text.dm_msg_cloud_reconnect:0000000000000000 .L0 
C:\Users\stapi\AppData\Local\Temp\ccpaGqeF.s:3562   .text.dm_msg_cloud_reconnect:0000000000000008 .L0 
C:\Users\stapi\AppData\Local\Temp\ccpaGqeF.s:3563   .text.dm_msg_cloud_reconnect:0000000000000008 .L0 
C:\Users\stapi\AppData\Local\Temp\ccpaGqeF.s:3566   .text.dm_msg_cloud_reconnect:0000000000000008 .L0 
C:\Users\stapi\AppData\Local\Temp\ccpaGqeF.s:3567   .text.dm_msg_cloud_reconnect:0000000000000008 .L0 
C:\Users\stapi\AppData\Local\Temp\ccpaGqeF.s:3568   .text.dm_msg_cloud_reconnect:0000000000000008 .L0 
C:\Users\stapi\AppData\Local\Temp\ccpaGqeF.s:3569   .text.dm_msg_cloud_reconnect:000000000000000a .L0 
C:\Users\stapi\AppData\Local\Temp\ccpaGqeF.s:3571   .text.dm_msg_cloud_reconnect:000000000000000a .L0 
C:\Users\stapi\AppData\Local\Temp\ccpaGqeF.s:3575   .text.dm_msg_cloud_reconnect:0000000000000010 .L0 
C:\Users\stapi\AppData\Local\Temp\ccpaGqeF.s:3582   .text.dm_msg_cloud_reconnect:000000000000001e .L0 
C:\Users\stapi\AppData\Local\Temp\ccpaGqeF.s:3583   .text.dm_msg_cloud_reconnect:000000000000001e .L0 
C:\Users\stapi\AppData\Local\Temp\ccpaGqeF.s:3587   .text.dm_msg_cloud_reconnect:0000000000000028 .L0 
C:\Users\stapi\AppData\Local\Temp\ccpaGqeF.s:3591   .text.dm_msg_cloud_reconnect:0000000000000032 .L0 
C:\Users\stapi\AppData\Local\Temp\ccpaGqeF.s:3595   .text.dm_msg_cloud_reconnect:000000000000003c .L0 
C:\Users\stapi\AppData\Local\Temp\ccpaGqeF.s:3596   .text.dm_msg_cloud_reconnect:000000000000003c .L0 
C:\Users\stapi\AppData\Local\Temp\ccpaGqeF.s:3601   .text.dm_msg_cloud_reconnect:0000000000000048 .L0 
C:\Users\stapi\AppData\Local\Temp\ccpaGqeF.s:3602   .text.dm_msg_cloud_reconnect:0000000000000048 .L0 
C:\Users\stapi\AppData\Local\Temp\ccpaGqeF.s:3603   .text.dm_msg_cloud_reconnect:000000000000004a .L0 
C:\Users\stapi\AppData\Local\Temp\ccpaGqeF.s:3605   .text.dm_msg_cloud_reconnect:0000000000000052 .L0 
C:\Users\stapi\AppData\Local\Temp\ccpaGqeF.s:3606   .text.dm_msg_cloud_reconnect:0000000000000052 .L0 
C:\Users\stapi\AppData\Local\Temp\ccpaGqeF.s:3607   .text.dm_msg_cloud_reconnect:0000000000000052 .L0 
C:\Users\stapi\AppData\Local\Temp\ccpaGqeF.s:3736   .rodata.DM_MSG_THING_NTP_RESPONSE_FMT:0000000000000000 DM_MSG_THING_NTP_RESPONSE_FMT
C:\Users\stapi\AppData\Local\Temp\ccpaGqeF.s:3653   .rodata.DM_MSG_EVENT_NOTIFY_FMT:0000000000000000 DM_MSG_EVENT_NOTIFY_FMT
C:\Users\stapi\AppData\Local\Temp\ccpaGqeF.s:3667   .rodata.DM_MSG_EVENT_RRPC_REQUEST_FMT:0000000000000000 DM_MSG_EVENT_RRPC_REQUEST_FMT
C:\Users\stapi\AppData\Local\Temp\ccpaGqeF.s:3646   .rodata.DM_MSG_EVENT_EVENT_NOTIFY_REPLY_FMT:0000000000000000 DM_MSG_EVENT_EVENT_NOTIFY_REPLY_FMT
C:\Users\stapi\AppData\Local\Temp\ccpaGqeF.s:3674   .rodata.DM_MSG_EVENT_SPECIFIC_POST_REPLY_FMT:0000000000000000 DM_MSG_EVENT_SPECIFIC_POST_REPLY_FMT
C:\Users\stapi\AppData\Local\Temp\ccpaGqeF.s:3632   .rodata.DM_MSG_EVENT_DEVICEINFO_DELETE_REPLY_FMT:0000000000000000 DM_MSG_EVENT_DEVICEINFO_DELETE_REPLY_FMT
C:\Users\stapi\AppData\Local\Temp\ccpaGqeF.s:3639   .rodata.DM_MSG_EVENT_DEVICEINFO_UPDATE_REPLY_FMT:0000000000000000 DM_MSG_EVENT_DEVICEINFO_UPDATE_REPLY_FMT
C:\Users\stapi\AppData\Local\Temp\ccpaGqeF.s:3660   .rodata.DM_MSG_EVENT_PROPERTY_POST_REPLY_FMT:0000000000000000 DM_MSG_EVENT_PROPERTY_POST_REPLY_FMT
C:\Users\stapi\AppData\Local\Temp\ccpaGqeF.s:3716   .rodata.DM_MSG_SERVICE_REQUEST_FMT:0000000000000000 DM_MSG_SERVICE_REQUEST_FMT
C:\Users\stapi\AppData\Local\Temp\ccpaGqeF.s:3743   .rodata.DM_MSG_THING_PROPERTY_GET_FMT:0000000000000000 DM_MSG_THING_PROPERTY_GET_FMT
C:\Users\stapi\AppData\Local\Temp\ccpaGqeF.s:3681   .rodata.DM_MSG_PROPERTY_SET_FMT:0000000000000000 DM_MSG_PROPERTY_SET_FMT
C:\Users\stapi\AppData\Local\Temp\ccpaGqeF.s:3729   .rodata.DM_MSG_THING_MODEL_UP_RAW_REPLY_FMT:0000000000000000 DM_MSG_THING_MODEL_UP_RAW_REPLY_FMT
C:\Users\stapi\AppData\Local\Temp\ccpaGqeF.s:3723   .rodata.DM_MSG_THING_MODEL_DOWN_FMT:0000000000000000 DM_MSG_THING_MODEL_DOWN_FMT
C:\Users\stapi\AppData\Local\Temp\ccpaGqeF.s:3702   .rodata.DM_MSG_RESPONSE_WITH_DATA:0000000000000000 DM_MSG_RESPONSE_WITH_DATA
C:\Users\stapi\AppData\Local\Temp\ccpaGqeF.s:3695   .rodata.DM_MSG_REQUEST_NEW:0000000000000000 DM_MSG_REQUEST_NEW
C:\Users\stapi\AppData\Local\Temp\ccpaGqeF.s:3688   .rodata.DM_MSG_REQUEST:0000000000000000 DM_MSG_REQUEST
C:\Users\stapi\AppData\Local\Temp\ccpaGqeF.s:3709   .rodata.DM_MSG_SEND_MSG_TIMEOUT_FMT:0000000000000000 DM_MSG_SEND_MSG_TIMEOUT_FMT
C:\Users\stapi\AppData\Local\Temp\ccpaGqeF.s:3629   .rodata.DM_MSG_EVENT_DEVICEINFO_DELETE_REPLY_FMT:0000000000000000 .LANCHOR13
C:\Users\stapi\AppData\Local\Temp\ccpaGqeF.s:3636   .rodata.DM_MSG_EVENT_DEVICEINFO_UPDATE_REPLY_FMT:0000000000000000 .LANCHOR12
C:\Users\stapi\AppData\Local\Temp\ccpaGqeF.s:3643   .rodata.DM_MSG_EVENT_EVENT_NOTIFY_REPLY_FMT:0000000000000000 .LANCHOR15
C:\Users\stapi\AppData\Local\Temp\ccpaGqeF.s:3650   .rodata.DM_MSG_EVENT_NOTIFY_FMT:0000000000000000 .LANCHOR17
C:\Users\stapi\AppData\Local\Temp\ccpaGqeF.s:3657   .rodata.DM_MSG_EVENT_PROPERTY_POST_REPLY_FMT:0000000000000000 .LANCHOR11
C:\Users\stapi\AppData\Local\Temp\ccpaGqeF.s:3664   .rodata.DM_MSG_EVENT_RRPC_REQUEST_FMT:0000000000000000 .LANCHOR16
C:\Users\stapi\AppData\Local\Temp\ccpaGqeF.s:3671   .rodata.DM_MSG_EVENT_SPECIFIC_POST_REPLY_FMT:0000000000000000 .LANCHOR14
C:\Users\stapi\AppData\Local\Temp\ccpaGqeF.s:3678   .rodata.DM_MSG_PROPERTY_SET_FMT:0000000000000000 .LANCHOR8
C:\Users\stapi\AppData\Local\Temp\ccpaGqeF.s:3685   .rodata.DM_MSG_REQUEST:0000000000000000 .LANCHOR5
C:\Users\stapi\AppData\Local\Temp\ccpaGqeF.s:3692   .rodata.DM_MSG_REQUEST_NEW:0000000000000000 .LANCHOR4
C:\Users\stapi\AppData\Local\Temp\ccpaGqeF.s:3699   .rodata.DM_MSG_RESPONSE_WITH_DATA:0000000000000000 .LANCHOR6
C:\Users\stapi\AppData\Local\Temp\ccpaGqeF.s:3706   .rodata.DM_MSG_SEND_MSG_TIMEOUT_FMT:0000000000000000 .LANCHOR1
C:\Users\stapi\AppData\Local\Temp\ccpaGqeF.s:3713   .rodata.DM_MSG_SERVICE_REQUEST_FMT:0000000000000000 .LANCHOR10
C:\Users\stapi\AppData\Local\Temp\ccpaGqeF.s:3720   .rodata.DM_MSG_THING_MODEL_DOWN_FMT:0000000000000000 .LANCHOR7
C:\Users\stapi\AppData\Local\Temp\ccpaGqeF.s:3733   .rodata.DM_MSG_THING_NTP_RESPONSE_FMT:0000000000000000 .LANCHOR18
C:\Users\stapi\AppData\Local\Temp\ccpaGqeF.s:3740   .rodata.DM_MSG_THING_PROPERTY_GET_FMT:0000000000000000 .LANCHOR9
C:\Users\stapi\AppData\Local\Temp\ccpaGqeF.s:3747   .rodata.__FUNCTION__.0:0000000000000000 .LANCHOR3
C:\Users\stapi\AppData\Local\Temp\ccpaGqeF.s:3750   .rodata.__FUNCTION__.0:0000000000000000 __FUNCTION__.0
C:\Users\stapi\AppData\Local\Temp\ccpaGqeF.s:3754   .rodata.__FUNCTION__.1:0000000000000000 .LANCHOR2
C:\Users\stapi\AppData\Local\Temp\ccpaGqeF.s:3757   .rodata.__FUNCTION__.1:0000000000000000 __FUNCTION__.1
C:\Users\stapi\AppData\Local\Temp\ccpaGqeF.s:3761   .sbss.g_dm_msg_ctx:0000000000000000 .LANCHOR0
C:\Users\stapi\AppData\Local\Temp\ccpaGqeF.s:3764   .sbss.g_dm_msg_ctx:0000000000000000 g_dm_msg_ctx
C:\Users\stapi\AppData\Local\Temp\ccpaGqeF.s:31     .text.dm_msg_init:000000000000000c .L0 
C:\Users\stapi\AppData\Local\Temp\ccpaGqeF.s:121    .text._dm_msg_send_to_user:0000000000000046 .L0 
C:\Users\stapi\AppData\Local\Temp\ccpaGqeF.s:216    .text.dm_msg_send_msg_timeout_to_user:0000000000000076 .L0 
C:\Users\stapi\AppData\Local\Temp\ccpaGqeF.s:380    .text.dm_msg_uri_parse_pkdn:00000000000000d2 .L0 
C:\Users\stapi\AppData\Local\Temp\ccpaGqeF.s:601    .text.dm_msg_request_parse:000000000000017a .L0 
C:\Users\stapi\AppData\Local\Temp\ccpaGqeF.s:777    .text.dm_msg_response_parse:000000000000013c .L0 
C:\Users\stapi\AppData\Local\Temp\ccpaGqeF.s:1049   .text.dm_msg_request:0000000000000196 .L0 
C:\Users\stapi\AppData\Local\Temp\ccpaGqeF.s:1305   .text.dm_msg_response:0000000000000178 .L0 
C:\Users\stapi\AppData\Local\Temp\ccpaGqeF.s:1496   .text.dm_msg_thing_model_down_raw:0000000000000100 .L0 
C:\Users\stapi\AppData\Local\Temp\ccpaGqeF.s:1687   .text.dm_msg_thing_model_up_raw_reply:0000000000000102 .L0 
C:\Users\stapi\AppData\Local\Temp\ccpaGqeF.s:1784   .text.dm_msg_property_set:0000000000000074 .L0 
C:\Users\stapi\AppData\Local\Temp\ccpaGqeF.s:1941   .text.dm_msg_property_get:00000000000000da .L0 
C:\Users\stapi\AppData\Local\Temp\ccpaGqeF.s:2169   .text.dm_msg_thing_service_request:000000000000013c .L0 
C:\Users\stapi\AppData\Local\Temp\ccpaGqeF.s:2353   .text.dm_msg_thing_event_property_post_reply:00000000000000e6 .L0 
C:\Users\stapi\AppData\Local\Temp\ccpaGqeF.s:2495   .text.dm_msg_thing_deviceinfo_update_reply:00000000000000b6 .L0 
C:\Users\stapi\AppData\Local\Temp\ccpaGqeF.s:2637   .text.dm_msg_thing_deviceinfo_delete_reply:00000000000000b6 .L0 
C:\Users\stapi\AppData\Local\Temp\ccpaGqeF.s:2808   .text.dm_msg_thing_event_post_reply:00000000000000d4 .L0 
C:\Users\stapi\AppData\Local\Temp\ccpaGqeF.s:2988   .text.dm_msg_thing_event_notify_reply:00000000000000e6 .L0 
C:\Users\stapi\AppData\Local\Temp\ccpaGqeF.s:3164   .text.dm_msg_rrpc_request:00000000000000d4 .L0 
C:\Users\stapi\AppData\Local\Temp\ccpaGqeF.s:3261   .text.dm_msg_thing_event_notify:0000000000000076 .L0 
C:\Users\stapi\AppData\Local\Temp\ccpaGqeF.s:3414   .text.dm_msg_ntp_response:00000000000000d0 .L0 
C:\Users\stapi\AppData\Local\Temp\ccpaGqeF.s:3519   .text.dm_msg_ext_error_response:0000000000000078 .L0 
C:\Users\stapi\AppData\Local\Temp\ccpaGqeF.s:3536   .text.dm_msg_cloud_connected:000000000000000c .L0 
C:\Users\stapi\AppData\Local\Temp\ccpaGqeF.s:3553   .text.dm_msg_cloud_disconnect:000000000000000c .L0 
C:\Users\stapi\AppData\Local\Temp\ccpaGqeF.s:3627   .text.dm_msg_cloud_reconnect:0000000000000052 .L0 
                     .debug_frame:0000000000000000 .L0 
C:\Users\stapi\AppData\Local\Temp\ccpaGqeF.s:112    .text._dm_msg_send_to_user:0000000000000042 .L6
C:\Users\stapi\AppData\Local\Temp\ccpaGqeF.s:102    .text._dm_msg_send_to_user:000000000000003a .L4
C:\Users\stapi\AppData\Local\Temp\ccpaGqeF.s:207    .text.dm_msg_send_msg_timeout_to_user:0000000000000072 .L13
C:\Users\stapi\AppData\Local\Temp\ccpaGqeF.s:196    .text.dm_msg_send_msg_timeout_to_user:000000000000006a .L11
C:\Users\stapi\AppData\Local\Temp\ccpaGqeF.s:296    .text.dm_msg_uri_parse_pkdn:0000000000000064 .L18
C:\Users\stapi\AppData\Local\Temp\ccpaGqeF.s:313    .text.dm_msg_uri_parse_pkdn:0000000000000070 .L20
C:\Users\stapi\AppData\Local\Temp\ccpaGqeF.s:292    .text.dm_msg_uri_parse_pkdn:0000000000000062 .L21
C:\Users\stapi\AppData\Local\Temp\ccpaGqeF.s:382    .rodata.dm_msg_request_parse.str1.4:0000000000000000 .LC0
C:\Users\stapi\AppData\Local\Temp\ccpaGqeF.s:385    .rodata.dm_msg_request_parse.str1.4:0000000000000008 .LC1
C:\Users\stapi\AppData\Local\Temp\ccpaGqeF.s:388    .rodata.dm_msg_request_parse.str1.4:000000000000001c .LC2
C:\Users\stapi\AppData\Local\Temp\ccpaGqeF.s:391    .rodata.dm_msg_request_parse.str1.4:0000000000000020 .LC3
C:\Users\stapi\AppData\Local\Temp\ccpaGqeF.s:394    .rodata.dm_msg_request_parse.str1.4:0000000000000024 .LC4
C:\Users\stapi\AppData\Local\Temp\ccpaGqeF.s:397    .rodata.dm_msg_request_parse.str1.4:000000000000002c .LC5
C:\Users\stapi\AppData\Local\Temp\ccpaGqeF.s:400    .rodata.dm_msg_request_parse.str1.4:0000000000000034 .LC6
C:\Users\stapi\AppData\Local\Temp\ccpaGqeF.s:406    .rodata.dm_msg_request_parse.str1.4:0000000000000060 .LC8
C:\Users\stapi\AppData\Local\Temp\ccpaGqeF.s:403    .rodata.dm_msg_request_parse.str1.4:000000000000003c .LC7
C:\Users\stapi\AppData\Local\Temp\ccpaGqeF.s:409    .rodata.dm_msg_request_parse.str1.4:0000000000000064 .LC9
C:\Users\stapi\AppData\Local\Temp\ccpaGqeF.s:412    .rodata.dm_msg_request_parse.str1.4:000000000000008c .LC10
C:\Users\stapi\AppData\Local\Temp\ccpaGqeF.s:415    .rodata.dm_msg_request_parse.str1.4:00000000000000b4 .LC11
C:\Users\stapi\AppData\Local\Temp\ccpaGqeF.s:486    .text.dm_msg_request_parse:0000000000000064 .L29
C:\Users\stapi\AppData\Local\Temp\ccpaGqeF.s:500    .text.dm_msg_request_parse:0000000000000070 .L31
C:\Users\stapi\AppData\Local\Temp\ccpaGqeF.s:461    .text.dm_msg_request_parse:000000000000002c .L32
C:\Users\stapi\AppData\Local\Temp\ccpaGqeF.s:603    .rodata.dm_msg_response_parse.str1.4:0000000000000000 .LC12
C:\Users\stapi\AppData\Local\Temp\ccpaGqeF.s:606    .rodata.dm_msg_response_parse.str1.4:0000000000000008 .LC13
C:\Users\stapi\AppData\Local\Temp\ccpaGqeF.s:609    .rodata.dm_msg_response_parse.str1.4:0000000000000010 .LC14
C:\Users\stapi\AppData\Local\Temp\ccpaGqeF.s:612    .rodata.dm_msg_response_parse.str1.4:0000000000000034 .LC15
C:\Users\stapi\AppData\Local\Temp\ccpaGqeF.s:615    .rodata.dm_msg_response_parse.str1.4:0000000000000058 .LC16
C:\Users\stapi\AppData\Local\Temp\ccpaGqeF.s:618    .rodata.dm_msg_response_parse.str1.4:0000000000000060 .LC17
C:\Users\stapi\AppData\Local\Temp\ccpaGqeF.s:665    .text.dm_msg_response_parse:000000000000002a .L37
C:\Users\stapi\AppData\Local\Temp\ccpaGqeF.s:679    .text.dm_msg_response_parse:0000000000000036 .L39
C:\Users\stapi\AppData\Local\Temp\ccpaGqeF.s:661    .text.dm_msg_response_parse:0000000000000028 .L40
C:\Users\stapi\AppData\Local\Temp\ccpaGqeF.s:779    .rodata.dm_msg_request.str1.4:0000000000000000 .LC18
C:\Users\stapi\AppData\Local\Temp\ccpaGqeF.s:782    .rodata.dm_msg_request.str1.4:0000000000000004 .LC19
C:\Users\stapi\AppData\Local\Temp\ccpaGqeF.s:785    .rodata.dm_msg_request.str1.4:000000000000002c .LC20
C:\Users\stapi\AppData\Local\Temp\ccpaGqeF.s:882    .text.dm_msg_request:000000000000006a .L45
C:\Users\stapi\AppData\Local\Temp\ccpaGqeF.s:980    .text.dm_msg_request:0000000000000124 .L55
C:\Users\stapi\AppData\Local\Temp\ccpaGqeF.s:897    .text.dm_msg_request:0000000000000076 .L47
C:\Users\stapi\AppData\Local\Temp\ccpaGqeF.s:985    .text.dm_msg_request:0000000000000128 .L48
C:\Users\stapi\AppData\Local\Temp\ccpaGqeF.s:991    .text.dm_msg_request:0000000000000132 .L50
C:\Users\stapi\AppData\Local\Temp\ccpaGqeF.s:921    .text.dm_msg_request:00000000000000ac .L60
C:\Users\stapi\AppData\Local\Temp\ccpaGqeF.s:1027   .text.dm_msg_request:000000000000017e .L51
C:\Users\stapi\AppData\Local\Temp\ccpaGqeF.s:1051   .rodata.dm_msg_response.str1.4:0000000000000000 .LC21
C:\Users\stapi\AppData\Local\Temp\ccpaGqeF.s:1150   .text.dm_msg_response:0000000000000066 .L61
C:\Users\stapi\AppData\Local\Temp\ccpaGqeF.s:1240   .text.dm_msg_response:000000000000010e .L70
C:\Users\stapi\AppData\Local\Temp\ccpaGqeF.s:1168   .text.dm_msg_response:0000000000000072 .L63
C:\Users\stapi\AppData\Local\Temp\ccpaGqeF.s:1245   .text.dm_msg_response:0000000000000112 .L64
C:\Users\stapi\AppData\Local\Temp\ccpaGqeF.s:1283   .text.dm_msg_response:0000000000000160 .L65
C:\Users\stapi\AppData\Local\Temp\ccpaGqeF.s:1431   .text.dm_msg_thing_model_down_raw:0000000000000098 .L75
C:\Users\stapi\AppData\Local\Temp\ccpaGqeF.s:1388   .text.dm_msg_thing_model_down_raw:000000000000005c .L77
C:\Users\stapi\AppData\Local\Temp\ccpaGqeF.s:1380   .text.dm_msg_thing_model_down_raw:0000000000000058 .L90
C:\Users\stapi\AppData\Local\Temp\ccpaGqeF.s:1445   .text.dm_msg_thing_model_down_raw:00000000000000a4 .L79
C:\Users\stapi\AppData\Local\Temp\ccpaGqeF.s:1622   .text.dm_msg_thing_model_up_raw_reply:0000000000000098 .L91
C:\Users\stapi\AppData\Local\Temp\ccpaGqeF.s:1579   .text.dm_msg_thing_model_up_raw_reply:000000000000005c .L93
C:\Users\stapi\AppData\Local\Temp\ccpaGqeF.s:1571   .text.dm_msg_thing_model_up_raw_reply:0000000000000058 .L106
C:\Users\stapi\AppData\Local\Temp\ccpaGqeF.s:1636   .text.dm_msg_thing_model_up_raw_reply:00000000000000a4 .L95
C:\Users\stapi\AppData\Local\Temp\ccpaGqeF.s:1775   .text.dm_msg_property_set:0000000000000070 .L109
C:\Users\stapi\AppData\Local\Temp\ccpaGqeF.s:1764   .text.dm_msg_property_set:0000000000000068 .L107
C:\Users\stapi\AppData\Local\Temp\ccpaGqeF.s:1876   .text.dm_msg_property_get:0000000000000074 .L117
C:\Users\stapi\AppData\Local\Temp\ccpaGqeF.s:1881   .text.dm_msg_property_get:0000000000000078 .L116
C:\Users\stapi\AppData\Local\Temp\ccpaGqeF.s:1926   .text.dm_msg_property_get:00000000000000d0 .L114
C:\Users\stapi\AppData\Local\Temp\ccpaGqeF.s:2103   .text.dm_msg_thing_service_request:00000000000000d6 .L122
C:\Users\stapi\AppData\Local\Temp\ccpaGqeF.s:2026   .text.dm_msg_thing_service_request:0000000000000062 .L124
C:\Users\stapi\AppData\Local\Temp\ccpaGqeF.s:2018   .text.dm_msg_thing_service_request:000000000000005e .L139
C:\Users\stapi\AppData\Local\Temp\ccpaGqeF.s:2119   .text.dm_msg_thing_service_request:00000000000000e2 .L126
C:\Users\stapi\AppData\Local\Temp\ccpaGqeF.s:2171   .rodata.dm_msg_thing_event_property_post_reply.str1.4:0000000000000000 .LC22
C:\Users\stapi\AppData\Local\Temp\ccpaGqeF.s:2235   .text.dm_msg_thing_event_property_post_reply:000000000000002c .L141
C:\Users\stapi\AppData\Local\Temp\ccpaGqeF.s:2211   .text.dm_msg_thing_event_property_post_reply:000000000000001e .L150
C:\Users\stapi\AppData\Local\Temp\ccpaGqeF.s:2297   .text.dm_msg_thing_event_property_post_reply:0000000000000086 .L144
C:\Users\stapi\AppData\Local\Temp\ccpaGqeF.s:2218   .text.dm_msg_thing_event_property_post_reply:0000000000000020 .L140
C:\Users\stapi\AppData\Local\Temp\ccpaGqeF.s:2409   .text.dm_msg_thing_deviceinfo_update_reply:000000000000002c .L152
C:\Users\stapi\AppData\Local\Temp\ccpaGqeF.s:2388   .text.dm_msg_thing_deviceinfo_update_reply:000000000000001e .L160
C:\Users\stapi\AppData\Local\Temp\ccpaGqeF.s:2395   .text.dm_msg_thing_deviceinfo_update_reply:0000000000000020 .L151
C:\Users\stapi\AppData\Local\Temp\ccpaGqeF.s:2551   .text.dm_msg_thing_deviceinfo_delete_reply:000000000000002c .L162
C:\Users\stapi\AppData\Local\Temp\ccpaGqeF.s:2530   .text.dm_msg_thing_deviceinfo_delete_reply:000000000000001e .L170
C:\Users\stapi\AppData\Local\Temp\ccpaGqeF.s:2537   .text.dm_msg_thing_deviceinfo_delete_reply:0000000000000020 .L161
C:\Users\stapi\AppData\Local\Temp\ccpaGqeF.s:2702   .text.dm_msg_thing_event_post_reply:000000000000002e .L172
C:\Users\stapi\AppData\Local\Temp\ccpaGqeF.s:2678   .text.dm_msg_thing_event_post_reply:0000000000000020 .L180
C:\Users\stapi\AppData\Local\Temp\ccpaGqeF.s:2685   .text.dm_msg_thing_event_post_reply:0000000000000022 .L171
C:\Users\stapi\AppData\Local\Temp\ccpaGqeF.s:2870   .text.dm_msg_thing_event_notify_reply:000000000000002c .L182
C:\Users\stapi\AppData\Local\Temp\ccpaGqeF.s:2846   .text.dm_msg_thing_event_notify_reply:000000000000001e .L191
C:\Users\stapi\AppData\Local\Temp\ccpaGqeF.s:2932   .text.dm_msg_thing_event_notify_reply:0000000000000086 .L185
C:\Users\stapi\AppData\Local\Temp\ccpaGqeF.s:2853   .text.dm_msg_thing_event_notify_reply:0000000000000020 .L181
C:\Users\stapi\AppData\Local\Temp\ccpaGqeF.s:3060   .text.dm_msg_rrpc_request:000000000000002e .L193
C:\Users\stapi\AppData\Local\Temp\ccpaGqeF.s:3036   .text.dm_msg_rrpc_request:0000000000000020 .L201
C:\Users\stapi\AppData\Local\Temp\ccpaGqeF.s:3043   .text.dm_msg_rrpc_request:0000000000000022 .L192
C:\Users\stapi\AppData\Local\Temp\ccpaGqeF.s:3252   .text.dm_msg_thing_event_notify:0000000000000072 .L204
C:\Users\stapi\AppData\Local\Temp\ccpaGqeF.s:3241   .text.dm_msg_thing_event_notify:000000000000006a .L202
C:\Users\stapi\AppData\Local\Temp\ccpaGqeF.s:3263   .rodata.dm_msg_ntp_response.str1.4:0000000000000000 .LC23
C:\Users\stapi\AppData\Local\Temp\ccpaGqeF.s:3320   .text.dm_msg_ntp_response:0000000000000030 .L209
C:\Users\stapi\AppData\Local\Temp\ccpaGqeF.s:3332   .text.dm_msg_ntp_response:000000000000003c .L211
C:\Users\stapi\AppData\Local\Temp\ccpaGqeF.s:3313   .text.dm_msg_ntp_response:000000000000002e .L220
C:\Users\stapi\AppData\Local\Temp\ccpaGqeF.s:3508   .text.dm_msg_ext_error_response:0000000000000072 .L223
C:\Users\stapi\AppData\Local\Temp\ccpaGqeF.s:3496   .text.dm_msg_ext_error_response:0000000000000066 .L221
C:\Users\stapi\AppData\Local\Temp\ccpaGqeF.s:11063  .debug_abbrev:0000000000000000 .Ldebug_abbrev0
C:\Users\stapi\AppData\Local\Temp\ccpaGqeF.s:14670  .debug_str:00000000000001b3 .LASF416
C:\Users\stapi\AppData\Local\Temp\ccpaGqeF.s:14774  .debug_str:000000000000072f .LASF417
C:\Users\stapi\AppData\Local\Temp\ccpaGqeF.s:15126  .debug_str:000000000000183c .LASF418
C:\Users\stapi\AppData\Local\Temp\ccpaGqeF.s:14574  .debug_ranges:0000000000000000 .Ldebug_ranges0
C:\Users\stapi\AppData\Local\Temp\ccpaGqeF.s:14628  .debug_line:0000000000000000 .Ldebug_line0
C:\Users\stapi\AppData\Local\Temp\ccpaGqeF.s:14810  .debug_str:000000000000096f .LASF0
C:\Users\stapi\AppData\Local\Temp\ccpaGqeF.s:14822  .debug_str:0000000000000a0f .LASF1
C:\Users\stapi\AppData\Local\Temp\ccpaGqeF.s:15290  .debug_str:0000000000002010 .LASF2
C:\Users\stapi\AppData\Local\Temp\ccpaGqeF.s:15410  .debug_str:000000000000261f .LASF3
C:\Users\stapi\AppData\Local\Temp\ccpaGqeF.s:14768  .debug_str:00000000000006f4 .LASF4
C:\Users\stapi\AppData\Local\Temp\ccpaGqeF.s:14990  .debug_str:00000000000011f1 .LASF5
C:\Users\stapi\AppData\Local\Temp\ccpaGqeF.s:15044  .debug_str:0000000000001445 .LASF6
C:\Users\stapi\AppData\Local\Temp\ccpaGqeF.s:14986  .debug_str:00000000000011d9 .LASF8
C:\Users\stapi\AppData\Local\Temp\ccpaGqeF.s:15190  .debug_str:0000000000001ba8 .LASF7
C:\Users\stapi\AppData\Local\Temp\ccpaGqeF.s:15244  .debug_str:0000000000001dfc .LASF9
C:\Users\stapi\AppData\Local\Temp\ccpaGqeF.s:15084  .debug_str:000000000000162d .LASF10
C:\Users\stapi\AppData\Local\Temp\ccpaGqeF.s:14862  .debug_str:0000000000000c03 .LASF11
C:\Users\stapi\AppData\Local\Temp\ccpaGqeF.s:15296  .debug_str:0000000000002052 .LASF12
C:\Users\stapi\AppData\Local\Temp\ccpaGqeF.s:15022  .debug_str:0000000000001348 .LASF13
C:\Users\stapi\AppData\Local\Temp\ccpaGqeF.s:14644  .debug_str:0000000000000081 .LASF419
C:\Users\stapi\AppData\Local\Temp\ccpaGqeF.s:14814  .debug_str:000000000000099b .LASF14
C:\Users\stapi\AppData\Local\Temp\ccpaGqeF.s:15062  .debug_str:0000000000001526 .LASF15
C:\Users\stapi\AppData\Local\Temp\ccpaGqeF.s:15132  .debug_str:00000000000018f6 .LASF16
C:\Users\stapi\AppData\Local\Temp\ccpaGqeF.s:14918  .debug_str:0000000000000e9c .LASF17
C:\Users\stapi\AppData\Local\Temp\ccpaGqeF.s:15372  .debug_str:0000000000002451 .LASF18
C:\Users\stapi\AppData\Local\Temp\ccpaGqeF.s:15038  .debug_str:00000000000013f9 .LASF19
C:\Users\stapi\AppData\Local\Temp\ccpaGqeF.s:14632  .debug_str:0000000000000015 .LASF20
C:\Users\stapi\AppData\Local\Temp\ccpaGqeF.s:15238  .debug_str:0000000000001db1 .LASF21
C:\Users\stapi\AppData\Local\Temp\ccpaGqeF.s:15406  .debug_str:00000000000025ff .LASF22
C:\Users\stapi\AppData\Local\Temp\ccpaGqeF.s:15262  .debug_str:0000000000001ec4 .LASF23
C:\Users\stapi\AppData\Local\Temp\ccpaGqeF.s:15210  .debug_str:0000000000001c7e .LASF24
C:\Users\stapi\AppData\Local\Temp\ccpaGqeF.s:14874  .debug_str:0000000000000c76 .LASF25
C:\Users\stapi\AppData\Local\Temp\ccpaGqeF.s:15138  .debug_str:0000000000001944 .LASF26
C:\Users\stapi\AppData\Local\Temp\ccpaGqeF.s:15212  .debug_str:0000000000001c8d .LASF27
C:\Users\stapi\AppData\Local\Temp\ccpaGqeF.s:14982  .debug_str:00000000000011b2 .LASF28
C:\Users\stapi\AppData\Local\Temp\ccpaGqeF.s:15422  .debug_str:000000000000268b .LASF29
C:\Users\stapi\AppData\Local\Temp\ccpaGqeF.s:15046  .debug_str:0000000000001453 .LASF30
C:\Users\stapi\AppData\Local\Temp\ccpaGqeF.s:15172  .debug_str:0000000000001ac0 .LASF31
C:\Users\stapi\AppData\Local\Temp\ccpaGqeF.s:14840  .debug_str:0000000000000af3 .LASF32
C:\Users\stapi\AppData\Local\Temp\ccpaGqeF.s:15264  .debug_str:0000000000001ed3 .LASF33
C:\Users\stapi\AppData\Local\Temp\ccpaGqeF.s:14652  .debug_str:00000000000000d3 .LASF34
C:\Users\stapi\AppData\Local\Temp\ccpaGqeF.s:14758  .debug_str:000000000000066e .LASF35
C:\Users\stapi\AppData\Local\Temp\ccpaGqeF.s:15218  .debug_str:0000000000001cde .LASF36
C:\Users\stapi\AppData\Local\Temp\ccpaGqeF.s:14832  .debug_str:0000000000000a8f .LASF37
C:\Users\stapi\AppData\Local\Temp\ccpaGqeF.s:14974  .debug_str:000000000000115e .LASF38
C:\Users\stapi\AppData\Local\Temp\ccpaGqeF.s:15196  .debug_str:0000000000001bec .LASF39
C:\Users\stapi\AppData\Local\Temp\ccpaGqeF.s:14684  .debug_str:0000000000000320 .LASF40
C:\Users\stapi\AppData\Local\Temp\ccpaGqeF.s:15308  .debug_str:0000000000002105 .LASF41
C:\Users\stapi\AppData\Local\Temp\ccpaGqeF.s:15098  .debug_str:00000000000016bd .LASF42
C:\Users\stapi\AppData\Local\Temp\ccpaGqeF.s:14868  .debug_str:0000000000000c1f .LASF43
C:\Users\stapi\AppData\Local\Temp\ccpaGqeF.s:14776  .debug_str:00000000000007cd .LASF44
C:\Users\stapi\AppData\Local\Temp\ccpaGqeF.s:14730  .debug_str:0000000000000546 .LASF45
C:\Users\stapi\AppData\Local\Temp\ccpaGqeF.s:15170  .debug_str:0000000000001aa7 .LASF46
C:\Users\stapi\AppData\Local\Temp\ccpaGqeF.s:15338  .debug_str:0000000000002298 .LASF47
C:\Users\stapi\AppData\Local\Temp\ccpaGqeF.s:15154  .debug_str:00000000000019e4 .LASF48
C:\Users\stapi\AppData\Local\Temp\ccpaGqeF.s:14634  .debug_str:0000000000000024 .LASF49
C:\Users\stapi\AppData\Local\Temp\ccpaGqeF.s:14700  .debug_str:00000000000003f0 .LASF50
C:\Users\stapi\AppData\Local\Temp\ccpaGqeF.s:14724  .debug_str:00000000000004f5 .LASF51
C:\Users\stapi\AppData\Local\Temp\ccpaGqeF.s:15178  .debug_str:0000000000001b30 .LASF52
C:\Users\stapi\AppData\Local\Temp\ccpaGqeF.s:14896  .debug_str:0000000000000d68 .LASF53
C:\Users\stapi\AppData\Local\Temp\ccpaGqeF.s:15042  .debug_str:0000000000001423 .LASF54
C:\Users\stapi\AppData\Local\Temp\ccpaGqeF.s:14782  .debug_str:000000000000081f .LASF55
C:\Users\stapi\AppData\Local\Temp\ccpaGqeF.s:15404  .debug_str:00000000000025e3 .LASF56
C:\Users\stapi\AppData\Local\Temp\ccpaGqeF.s:15426  .debug_str:00000000000026b7 .LASF57
C:\Users\stapi\AppData\Local\Temp\ccpaGqeF.s:15286  .debug_str:0000000000001fed .LASF58
C:\Users\stapi\AppData\Local\Temp\ccpaGqeF.s:15378  .debug_str:0000000000002494 .LASF59
C:\Users\stapi\AppData\Local\Temp\ccpaGqeF.s:14830  .debug_str:0000000000000a76 .LASF60
C:\Users\stapi\AppData\Local\Temp\ccpaGqeF.s:14898  .debug_str:0000000000000d86 .LASF61
C:\Users\stapi\AppData\Local\Temp\ccpaGqeF.s:15116  .debug_str:00000000000017b5 .LASF62
C:\Users\stapi\AppData\Local\Temp\ccpaGqeF.s:15260  .debug_str:0000000000001eac .LASF63
C:\Users\stapi\AppData\Local\Temp\ccpaGqeF.s:14914  .debug_str:0000000000000e56 .LASF64
C:\Users\stapi\AppData\Local\Temp\ccpaGqeF.s:14884  .debug_str:0000000000000ce0 .LASF65
C:\Users\stapi\AppData\Local\Temp\ccpaGqeF.s:15226  .debug_str:0000000000001d44 .LASF66
C:\Users\stapi\AppData\Local\Temp\ccpaGqeF.s:14854  .debug_str:0000000000000ba5 .LASF67
C:\Users\stapi\AppData\Local\Temp\ccpaGqeF.s:14720  .debug_str:00000000000004d1 .LASF68
C:\Users\stapi\AppData\Local\Temp\ccpaGqeF.s:15302  .debug_str:000000000000209e .LASF69
C:\Users\stapi\AppData\Local\Temp\ccpaGqeF.s:14962  .debug_str:00000000000010b2 .LASF70
C:\Users\stapi\AppData\Local\Temp\ccpaGqeF.s:14956  .debug_str:000000000000105a .LASF71
C:\Users\stapi\AppData\Local\Temp\ccpaGqeF.s:14838  .debug_str:0000000000000ad3 .LASF72
C:\Users\stapi\AppData\Local\Temp\ccpaGqeF.s:15274  .debug_str:0000000000001f59 .LASF73
C:\Users\stapi\AppData\Local\Temp\ccpaGqeF.s:15298  .debug_str:000000000000205b .LASF74
C:\Users\stapi\AppData\Local\Temp\ccpaGqeF.s:15276  .debug_str:0000000000001f73 .LASF75
C:\Users\stapi\AppData\Local\Temp\ccpaGqeF.s:14808  .debug_str:0000000000000957 .LASF76
C:\Users\stapi\AppData\Local\Temp\ccpaGqeF.s:15384  .debug_str:00000000000024d6 .LASF77
C:\Users\stapi\AppData\Local\Temp\ccpaGqeF.s:15382  .debug_str:00000000000024b9 .LASF78
C:\Users\stapi\AppData\Local\Temp\ccpaGqeF.s:15348  .debug_str:0000000000002314 .LASF79
C:\Users\stapi\AppData\Local\Temp\ccpaGqeF.s:15400  .debug_str:00000000000025a8 .LASF80
C:\Users\stapi\AppData\Local\Temp\ccpaGqeF.s:15070  .debug_str:0000000000001579 .LASF81
C:\Users\stapi\AppData\Local\Temp\ccpaGqeF.s:15074  .debug_str:00000000000015b0 .LASF82
C:\Users\stapi\AppData\Local\Temp\ccpaGqeF.s:14924  .debug_str:0000000000000ed7 .LASF83
C:\Users\stapi\AppData\Local\Temp\ccpaGqeF.s:14654  .debug_str:00000000000000f3 .LASF84
C:\Users\stapi\AppData\Local\Temp\ccpaGqeF.s:15336  .debug_str:000000000000227c .LASF85
C:\Users\stapi\AppData\Local\Temp\ccpaGqeF.s:15144  .debug_str:000000000000196e .LASF86
C:\Users\stapi\AppData\Local\Temp\ccpaGqeF.s:14960  .debug_str:0000000000001092 .LASF87
C:\Users\stapi\AppData\Local\Temp\ccpaGqeF.s:14954  .debug_str:000000000000103b .LASF88
C:\Users\stapi\AppData\Local\Temp\ccpaGqeF.s:15054  .debug_str:00000000000014c5 .LASF89
C:\Users\stapi\AppData\Local\Temp\ccpaGqeF.s:14692  .debug_str:0000000000000395 .LASF90
C:\Users\stapi\AppData\Local\Temp\ccpaGqeF.s:15390  .debug_str:0000000000002535 .LASF91
C:\Users\stapi\AppData\Local\Temp\ccpaGqeF.s:14770  .debug_str:00000000000006fd .LASF92
C:\Users\stapi\AppData\Local\Temp\ccpaGqeF.s:15120  .debug_str:00000000000017ec .LASF93
C:\Users\stapi\AppData\Local\Temp\ccpaGqeF.s:15366  .debug_str:000000000000240c .LASF94
C:\Users\stapi\AppData\Local\Temp\ccpaGqeF.s:14676  .debug_str:00000000000002bf .LASF95
C:\Users\stapi\AppData\Local\Temp\ccpaGqeF.s:15340  .debug_str:00000000000022b6 .LASF96
C:\Users\stapi\AppData\Local\Temp\ccpaGqeF.s:15398  .debug_str:000000000000258a .LASF97
C:\Users\stapi\AppData\Local\Temp\ccpaGqeF.s:14642  .debug_str:0000000000000067 .LASF98
C:\Users\stapi\AppData\Local\Temp\ccpaGqeF.s:15036  .debug_str:00000000000013e1 .LASF99
C:\Users\stapi\AppData\Local\Temp\ccpaGqeF.s:14780  .debug_str:00000000000007fe .LASF100
C:\Users\stapi\AppData\Local\Temp\ccpaGqeF.s:15466  .debug_str:000000000000288e .LASF101
C:\Users\stapi\AppData\Local\Temp\ccpaGqeF.s:14788  .debug_str:0000000000000867 .LASF102
C:\Users\stapi\AppData\Local\Temp\ccpaGqeF.s:15160  .debug_str:0000000000001a26 .LASF103
C:\Users\stapi\AppData\Local\Temp\ccpaGqeF.s:15452  .debug_str:00000000000027fa .LASF104
C:\Users\stapi\AppData\Local\Temp\ccpaGqeF.s:15444  .debug_str:000000000000277f .LASF105
C:\Users\stapi\AppData\Local\Temp\ccpaGqeF.s:14772  .debug_str:0000000000000716 .LASF106
C:\Users\stapi\AppData\Local\Temp\ccpaGqeF.s:15072  .debug_str:0000000000001598 .LASF107
C:\Users\stapi\AppData\Local\Temp\ccpaGqeF.s:14946  .debug_str:0000000000000fe8 .LASF108
C:\Users\stapi\AppData\Local\Temp\ccpaGqeF.s:14752  .debug_str:0000000000000639 .LASF109
C:\Users\stapi\AppData\Local\Temp\ccpaGqeF.s:14860  .debug_str:0000000000000be5 .LASF110
C:\Users\stapi\AppData\Local\Temp\ccpaGqeF.s:14736  .debug_str:000000000000058e .LASF111
C:\Users\stapi\AppData\Local\Temp\ccpaGqeF.s:14786  .debug_str:000000000000084f .LASF112
C:\Users\stapi\AppData\Local\Temp\ccpaGqeF.s:15370  .debug_str:000000000000243d .LASF113
C:\Users\stapi\AppData\Local\Temp\ccpaGqeF.s:14686  .debug_str:000000000000033e .LASF114
C:\Users\stapi\AppData\Local\Temp\ccpaGqeF.s:14638  .debug_str:0000000000000046 .LASF115
C:\Users\stapi\AppData\Local\Temp\ccpaGqeF.s:14802  .debug_str:000000000000091f .LASF116
C:\Users\stapi\AppData\Local\Temp\ccpaGqeF.s:15374  .debug_str:0000000000002462 .LASF117
C:\Users\stapi\AppData\Local\Temp\ccpaGqeF.s:14756  .debug_str:0000000000000656 .LASF118
C:\Users\stapi\AppData\Local\Temp\ccpaGqeF.s:14940  .debug_str:0000000000000fa4 .LASF119
C:\Users\stapi\AppData\Local\Temp\ccpaGqeF.s:14664  .debug_str:0000000000000177 .LASF120
C:\Users\stapi\AppData\Local\Temp\ccpaGqeF.s:14796  .debug_str:00000000000008de .LASF121
C:\Users\stapi\AppData\Local\Temp\ccpaGqeF.s:15306  .debug_str:00000000000020e7 .LASF122
C:\Users\stapi\AppData\Local\Temp\ccpaGqeF.s:14912  .debug_str:0000000000000e2e .LASF123
C:\Users\stapi\AppData\Local\Temp\ccpaGqeF.s:15362  .debug_str:00000000000023c9 .LASF124
C:\Users\stapi\AppData\Local\Temp\ccpaGqeF.s:14872  .debug_str:0000000000000c5e .LASF125
C:\Users\stapi\AppData\Local\Temp\ccpaGqeF.s:15364  .debug_str:00000000000023f1 .LASF126
C:\Users\stapi\AppData\Local\Temp\ccpaGqeF.s:14932  .debug_str:0000000000000f39 .LASF127
C:\Users\stapi\AppData\Local\Temp\ccpaGqeF.s:14834  .debug_str:0000000000000aa8 .LASF128
C:\Users\stapi\AppData\Local\Temp\ccpaGqeF.s:14732  .debug_str:0000000000000561 .LASF129
C:\Users\stapi\AppData\Local\Temp\ccpaGqeF.s:15040  .debug_str:000000000000140b .LASF130
C:\Users\stapi\AppData\Local\Temp\ccpaGqeF.s:15150  .debug_str:00000000000019a3 .LASF131
C:\Users\stapi\AppData\Local\Temp\ccpaGqeF.s:14894  .debug_str:0000000000000d4d .LASF132
C:\Users\stapi\AppData\Local\Temp\ccpaGqeF.s:15174  .debug_str:0000000000001af1 .LASF133
C:\Users\stapi\AppData\Local\Temp\ccpaGqeF.s:14846  .debug_str:0000000000000b4e .LASF134
C:\Users\stapi\AppData\Local\Temp\ccpaGqeF.s:15134  .debug_str:000000000000190d .LASF135
C:\Users\stapi\AppData\Local\Temp\ccpaGqeF.s:14762  .debug_str:000000000000069d .LASF136
C:\Users\stapi\AppData\Local\Temp\ccpaGqeF.s:14742  .debug_str:00000000000005cf .LASF137
C:\Users\stapi\AppData\Local\Temp\ccpaGqeF.s:14926  .debug_str:0000000000000ef8 .LASF138
C:\Users\stapi\AppData\Local\Temp\ccpaGqeF.s:15002  .debug_str:0000000000001282 .LASF139
C:\Users\stapi\AppData\Local\Temp\ccpaGqeF.s:15368  .debug_str:0000000000002426 .LASF140
C:\Users\stapi\AppData\Local\Temp\ccpaGqeF.s:15442  .debug_str:0000000000002768 .LASF141
C:\Users\stapi\AppData\Local\Temp\ccpaGqeF.s:15058  .debug_str:00000000000014e0 .LASF142
C:\Users\stapi\AppData\Local\Temp\ccpaGqeF.s:14792  .debug_str:000000000000089f .LASF143
C:\Users\stapi\AppData\Local\Temp\ccpaGqeF.s:14936  .debug_str:0000000000000f78 .LASF144
C:\Users\stapi\AppData\Local\Temp\ccpaGqeF.s:15230  .debug_str:0000000000001d64 .LASF145
C:\Users\stapi\AppData\Local\Temp\ccpaGqeF.s:14712  .debug_str:000000000000046b .LASF146
C:\Users\stapi\AppData\Local\Temp\ccpaGqeF.s:15430  .debug_str:00000000000026d9 .LASF147
C:\Users\stapi\AppData\Local\Temp\ccpaGqeF.s:15324  .debug_str:00000000000021d1 .LASF148
C:\Users\stapi\AppData\Local\Temp\ccpaGqeF.s:14904  .debug_str:0000000000000dc7 .LASF149
C:\Users\stapi\AppData\Local\Temp\ccpaGqeF.s:14818  .debug_str:00000000000009db .LASF150
C:\Users\stapi\AppData\Local\Temp\ccpaGqeF.s:15360  .debug_str:00000000000023a5 .LASF151
C:\Users\stapi\AppData\Local\Temp\ccpaGqeF.s:14944  .debug_str:0000000000000fc7 .LASF152
C:\Users\stapi\AppData\Local\Temp\ccpaGqeF.s:15028  .debug_str:0000000000001376 .LASF153
C:\Users\stapi\AppData\Local\Temp\ccpaGqeF.s:15048  .debug_str:000000000000146e .LASF154
C:\Users\stapi\AppData\Local\Temp\ccpaGqeF.s:14696  .debug_str:00000000000003bb .LASF155
C:\Users\stapi\AppData\Local\Temp\ccpaGqeF.s:15328  .debug_str:000000000000220f .LASF156
C:\Users\stapi\AppData\Local\Temp\ccpaGqeF.s:15460  .debug_str:000000000000285d .LASF157
C:\Users\stapi\AppData\Local\Temp\ccpaGqeF.s:14870  .debug_str:0000000000000c3b .LASF158
C:\Users\stapi\AppData\Local\Temp\ccpaGqeF.s:14968  .debug_str:0000000000001111 .LASF159
C:\Users\stapi\AppData\Local\Temp\ccpaGqeF.s:14682  .debug_str:00000000000002fd .LASF160
C:\Users\stapi\AppData\Local\Temp\ccpaGqeF.s:15088  .debug_str:0000000000001642 .LASF161
C:\Users\stapi\AppData\Local\Temp\ccpaGqeF.s:15192  .debug_str:0000000000001bbf .LASF162
C:\Users\stapi\AppData\Local\Temp\ccpaGqeF.s:15456  .debug_str:000000000000281e .LASF163
C:\Users\stapi\AppData\Local\Temp\ccpaGqeF.s:15258  .debug_str:0000000000001e82 .LASF164
C:\Users\stapi\AppData\Local\Temp\ccpaGqeF.s:14824  .debug_str:0000000000000a1d .LASF165
C:\Users\stapi\AppData\Local\Temp\ccpaGqeF.s:14920  .debug_str:0000000000000eb5 .LASF166
C:\Users\stapi\AppData\Local\Temp\ccpaGqeF.s:15278  .debug_str:0000000000001f88 .LASF167
C:\Users\stapi\AppData\Local\Temp\ccpaGqeF.s:15026  .debug_str:000000000000135a .LASF168
C:\Users\stapi\AppData\Local\Temp\ccpaGqeF.s:15112  .debug_str:0000000000001769 .LASF169
C:\Users\stapi\AppData\Local\Temp\ccpaGqeF.s:14916  .debug_str:0000000000000e76 .LASF170
C:\Users\stapi\AppData\Local\Temp\ccpaGqeF.s:15220  .debug_str:0000000000001cf1 .LASF171
C:\Users\stapi\AppData\Local\Temp\ccpaGqeF.s:15208  .debug_str:0000000000001c68 .LASF172
C:\Users\stapi\AppData\Local\Temp\ccpaGqeF.s:15310  .debug_str:0000000000002120 .LASF173
C:\Users\stapi\AppData\Local\Temp\ccpaGqeF.s:14790  .debug_str:0000000000000882 .LASF174
C:\Users\stapi\AppData\Local\Temp\ccpaGqeF.s:14994  .debug_str:000000000000120d .LASF175
C:\Users\stapi\AppData\Local\Temp\ccpaGqeF.s:15354  .debug_str:000000000000234c .LASF176
C:\Users\stapi\AppData\Local\Temp\ccpaGqeF.s:14930  .debug_str:0000000000000f1b .LASF177
C:\Users\stapi\AppData\Local\Temp\ccpaGqeF.s:15470  .debug_str:00000000000028c3 .LASF178
C:\Users\stapi\AppData\Local\Temp\ccpaGqeF.s:14850  .debug_str:0000000000000b76 .LASF179
C:\Users\stapi\AppData\Local\Temp\ccpaGqeF.s:14674  .debug_str:00000000000002a2 .LASF180
C:\Users\stapi\AppData\Local\Temp\ccpaGqeF.s:15012  .debug_str:00000000000012e3 .LASF181
C:\Users\stapi\AppData\Local\Temp\ccpaGqeF.s:14844  .debug_str:0000000000000b34 .LASF182
C:\Users\stapi\AppData\Local\Temp\ccpaGqeF.s:14806  .debug_str:000000000000094a .LASF183
C:\Users\stapi\AppData\Local\Temp\ccpaGqeF.s:15446  .debug_str:0000000000002795 .LASF184
C:\Users\stapi\AppData\Local\Temp\ccpaGqeF.s:15254  .debug_str:0000000000001e48 .LASF185
C:\Users\stapi\AppData\Local\Temp\ccpaGqeF.s:14716  .debug_str:000000000000049e .LASF186
C:\Users\stapi\AppData\Local\Temp\ccpaGqeF.s:15450  .debug_str:00000000000027c8 .LASF187
C:\Users\stapi\AppData\Local\Temp\ccpaGqeF.s:15252  .debug_str:0000000000001e37 .LASF188
C:\Users\stapi\AppData\Local\Temp\ccpaGqeF.s:15092  .debug_str:0000000000001682 .LASF189
C:\Users\stapi\AppData\Local\Temp\ccpaGqeF.s:15032  .debug_str:00000000000013bb .LASF190
C:\Users\stapi\AppData\Local\Temp\ccpaGqeF.s:14688  .debug_str:000000000000035e .LASF191
C:\Users\stapi\AppData\Local\Temp\ccpaGqeF.s:14866  .debug_str:0000000000000c0f .LASF192
C:\Users\stapi\AppData\Local\Temp\ccpaGqeF.s:15408  .debug_str:000000000000260e .LASF193
C:\Users\stapi\AppData\Local\Temp\ccpaGqeF.s:15102  .debug_str:00000000000016f6 .LASF194
C:\Users\stapi\AppData\Local\Temp\ccpaGqeF.s:14976  .debug_str:0000000000001175 .LASF195
C:\Users\stapi\AppData\Local\Temp\ccpaGqeF.s:15428  .debug_str:00000000000026ce .LASF196
C:\Users\stapi\AppData\Local\Temp\ccpaGqeF.s:15268  .debug_str:0000000000001f19 .LASF197
C:\Users\stapi\AppData\Local\Temp\ccpaGqeF.s:15436  .debug_str:0000000000002722 .LASF198
C:\Users\stapi\AppData\Local\Temp\ccpaGqeF.s:15078  .debug_str:00000000000015d8 .LASF199
C:\Users\stapi\AppData\Local\Temp\ccpaGqeF.s:15010  .debug_str:00000000000012d4 .LASF200
C:\Users\stapi\AppData\Local\Temp\ccpaGqeF.s:14922  .debug_str:0000000000000ec9 .LASF209
C:\Users\stapi\AppData\Local\Temp\ccpaGqeF.s:14722  .debug_str:00000000000004f0 .LASF201
C:\Users\stapi\AppData\Local\Temp\ccpaGqeF.s:14856  .debug_str:0000000000000bc1 .LASF202
C:\Users\stapi\AppData\Local\Temp\ccpaGqeF.s:15316  .debug_str:000000000000216b .LASF203
C:\Users\stapi\AppData\Local\Temp\ccpaGqeF.s:15188  .debug_str:0000000000001ba3 .LASF204
C:\Users\stapi\AppData\Local\Temp\ccpaGqeF.s:15164  .debug_str:0000000000001a65 .LASF205
C:\Users\stapi\AppData\Local\Temp\ccpaGqeF.s:15076  .debug_str:00000000000015ce .LASF206
C:\Users\stapi\AppData\Local\Temp\ccpaGqeF.s:15056  .debug_str:00000000000014d9 .LASF207
C:\Users\stapi\AppData\Local\Temp\ccpaGqeF.s:15096  .debug_str:00000000000016b0 .LASF208
C:\Users\stapi\AppData\Local\Temp\ccpaGqeF.s:15110  .debug_str:0000000000001761 .LASF210
C:\Users\stapi\AppData\Local\Temp\ccpaGqeF.s:15462  .debug_str:000000000000287e .LASF211
C:\Users\stapi\AppData\Local\Temp\ccpaGqeF.s:15146  .debug_str:000000000000198a .LASF212
C:\Users\stapi\AppData\Local\Temp\ccpaGqeF.s:14660  .debug_str:0000000000000139 .LASF213
C:\Users\stapi\AppData\Local\Temp\ccpaGqeF.s:15156  .debug_str:00000000000019fe .LASF214
C:\Users\stapi\AppData\Local\Temp\ccpaGqeF.s:14964  .debug_str:00000000000010d1 .LASF215
C:\Users\stapi\AppData\Local\Temp\ccpaGqeF.s:14890  .debug_str:0000000000000d16 .LASF216
C:\Users\stapi\AppData\Local\Temp\ccpaGqeF.s:15176  .debug_str:0000000000001b0e .LASF217
C:\Users\stapi\AppData\Local\Temp\ccpaGqeF.s:15130  .debug_str:00000000000018d3 .LASF218
C:\Users\stapi\AppData\Local\Temp\ccpaGqeF.s:15094  .debug_str:0000000000001697 .LASF219
C:\Users\stapi\AppData\Local\Temp\ccpaGqeF.s:14630  .debug_str:0000000000000000 .LASF220
C:\Users\stapi\AppData\Local\Temp\ccpaGqeF.s:15106  .debug_str:000000000000172b .LASF221
C:\Users\stapi\AppData\Local\Temp\ccpaGqeF.s:15448  .debug_str:00000000000027a9 .LASF222
C:\Users\stapi\AppData\Local\Temp\ccpaGqeF.s:14934  .debug_str:0000000000000f5a .LASF223
C:\Users\stapi\AppData\Local\Temp\ccpaGqeF.s:14980  .debug_str:0000000000001194 .LASF224
C:\Users\stapi\AppData\Local\Temp\ccpaGqeF.s:15314  .debug_str:000000000000214c .LASF225
C:\Users\stapi\AppData\Local\Temp\ccpaGqeF.s:14794  .debug_str:00000000000008c0 .LASF226
C:\Users\stapi\AppData\Local\Temp\ccpaGqeF.s:15402  .debug_str:00000000000025c8 .LASF227
C:\Users\stapi\AppData\Local\Temp\ccpaGqeF.s:15118  .debug_str:00000000000017d0 .LASF228
C:\Users\stapi\AppData\Local\Temp\ccpaGqeF.s:15064  .debug_str:0000000000001538 .LASF229
C:\Users\stapi\AppData\Local\Temp\ccpaGqeF.s:14908  .debug_str:0000000000000e09 .LASF230
C:\Users\stapi\AppData\Local\Temp\ccpaGqeF.s:15240  .debug_str:0000000000001dc2 .LASF231
C:\Users\stapi\AppData\Local\Temp\ccpaGqeF.s:15434  .debug_str:0000000000002708 .LASF232
C:\Users\stapi\AppData\Local\Temp\ccpaGqeF.s:15224  .debug_str:0000000000001d23 .LASF233
C:\Users\stapi\AppData\Local\Temp\ccpaGqeF.s:15294  .debug_str:000000000000202e .LASF234
C:\Users\stapi\AppData\Local\Temp\ccpaGqeF.s:15266  .debug_str:0000000000001ef9 .LASF235
C:\Users\stapi\AppData\Local\Temp\ccpaGqeF.s:14948  .debug_str:0000000000001009 .LASF236
C:\Users\stapi\AppData\Local\Temp\ccpaGqeF.s:15440  .debug_str:000000000000274d .LASF237
C:\Users\stapi\AppData\Local\Temp\ccpaGqeF.s:15356  .debug_str:000000000000236d .LASF238
C:\Users\stapi\AppData\Local\Temp\ccpaGqeF.s:15458  .debug_str:0000000000002839 .LASF239
C:\Users\stapi\AppData\Local\Temp\ccpaGqeF.s:15204  .debug_str:0000000000001c31 .LASF240
C:\Users\stapi\AppData\Local\Temp\ccpaGqeF.s:15206  .debug_str:0000000000001c4d .LASF241
C:\Users\stapi\AppData\Local\Temp\ccpaGqeF.s:15394  .debug_str:000000000000255b .LASF242
C:\Users\stapi\AppData\Local\Temp\ccpaGqeF.s:15332  .debug_str:0000000000002258 .LASF243
C:\Users\stapi\AppData\Local\Temp\ccpaGqeF.s:15162  .debug_str:0000000000001a48 .LASF244
C:\Users\stapi\AppData\Local\Temp\ccpaGqeF.s:15186  .debug_str:0000000000001b7f .LASF245
C:\Users\stapi\AppData\Local\Temp\ccpaGqeF.s:14690  .debug_str:000000000000036f .LASF246
C:\Users\stapi\AppData\Local\Temp\ccpaGqeF.s:15246  .debug_str:0000000000001e08 .LASF247
C:\Users\stapi\AppData\Local\Temp\ccpaGqeF.s:15080  .debug_str:00000000000015e4 .LASF248
C:\Users\stapi\AppData\Local\Temp\ccpaGqeF.s:15270  .debug_str:0000000000001f2b .LASF249
C:\Users\stapi\AppData\Local\Temp\ccpaGqeF.s:15326  .debug_str:00000000000021f2 .LASF250
C:\Users\stapi\AppData\Local\Temp\ccpaGqeF.s:15376  .debug_str:000000000000247a .LASF251
C:\Users\stapi\AppData\Local\Temp\ccpaGqeF.s:15346  .debug_str:00000000000022f0 .LASF252
C:\Users\stapi\AppData\Local\Temp\ccpaGqeF.s:15330  .debug_str:0000000000002230 .LASF253
C:\Users\stapi\AppData\Local\Temp\ccpaGqeF.s:15386  .debug_str:00000000000024f9 .LASF254
C:\Users\stapi\AppData\Local\Temp\ccpaGqeF.s:15060  .debug_str:0000000000001500 .LASF255
C:\Users\stapi\AppData\Local\Temp\ccpaGqeF.s:15318  .debug_str:0000000000002178 .LASF256
C:\Users\stapi\AppData\Local\Temp\ccpaGqeF.s:15300  .debug_str:000000000000207a .LASF257
C:\Users\stapi\AppData\Local\Temp\ccpaGqeF.s:15320  .debug_str:000000000000219e .LASF258
C:\Users\stapi\AppData\Local\Temp\ccpaGqeF.s:14998  .debug_str:0000000000001250 .LASF259
C:\Users\stapi\AppData\Local\Temp\ccpaGqeF.s:15100  .debug_str:00000000000016ce .LASF260
C:\Users\stapi\AppData\Local\Temp\ccpaGqeF.s:15082  .debug_str:0000000000001604 .LASF261
C:\Users\stapi\AppData\Local\Temp\ccpaGqeF.s:14966  .debug_str:00000000000010f0 .LASF262
C:\Users\stapi\AppData\Local\Temp\ccpaGqeF.s:15030  .debug_str:0000000000001398 .LASF263
C:\Users\stapi\AppData\Local\Temp\ccpaGqeF.s:14906  .debug_str:0000000000000deb .LASF264
C:\Users\stapi\AppData\Local\Temp\ccpaGqeF.s:14650  .debug_str:00000000000000b3 .LASF265
C:\Users\stapi\AppData\Local\Temp\ccpaGqeF.s:14648  .debug_str:0000000000000098 .LASF266
C:\Users\stapi\AppData\Local\Temp\ccpaGqeF.s:14746  .debug_str:00000000000005f6 .LASF267
C:\Users\stapi\AppData\Local\Temp\ccpaGqeF.s:14740  .debug_str:00000000000005b5 .LASF268
C:\Users\stapi\AppData\Local\Temp\ccpaGqeF.s:15152  .debug_str:00000000000019c3 .LASF269
C:\Users\stapi\AppData\Local\Temp\ccpaGqeF.s:14662  .debug_str:0000000000000150 .LASF270
C:\Users\stapi\AppData\Local\Temp\ccpaGqeF.s:14702  .debug_str:000000000000040e .LASF271
C:\Users\stapi\AppData\Local\Temp\ccpaGqeF.s:14748  .debug_str:0000000000000611 .LASF272
C:\Users\stapi\AppData\Local\Temp\ccpaGqeF.s:15344  .debug_str:00000000000022d6 .LASF273
C:\Users\stapi\AppData\Local\Temp\ccpaGqeF.s:14958  .debug_str:0000000000001078 .LASF274
C:\Users\stapi\AppData\Local\Temp\ccpaGqeF.s:14658  .debug_str:0000000000000121 .LASF275
C:\Users\stapi\AppData\Local\Temp\ccpaGqeF.s:15066  .debug_str:0000000000001556 .LASF276
C:\Users\stapi\AppData\Local\Temp\ccpaGqeF.s:14996  .debug_str:0000000000001235 .LASF277
C:\Users\stapi\AppData\Local\Temp\ccpaGqeF.s:15414  .debug_str:0000000000002641 .LASF278
C:\Users\stapi\AppData\Local\Temp\ccpaGqeF.s:15166  .debug_str:0000000000001a72 .LASF279
C:\Users\stapi\AppData\Local\Temp\ccpaGqeF.s:14902  .debug_str:0000000000000dad .LASF280
C:\Users\stapi\AppData\Local\Temp\ccpaGqeF.s:15432  .debug_str:00000000000026ef .LASF281
C:\Users\stapi\AppData\Local\Temp\ccpaGqeF.s:15216  .debug_str:0000000000001cc9 .LASF282
C:\Users\stapi\AppData\Local\Temp\ccpaGqeF.s:14880  .debug_str:0000000000000cbf .LASF283
C:\Users\stapi\AppData\Local\Temp\ccpaGqeF.s:15014  .debug_str:00000000000012f0 .LASF284
C:\Users\stapi\AppData\Local\Temp\ccpaGqeF.s:14656  .debug_str:000000000000011b .LASF285
C:\Users\stapi\AppData\Local\Temp\ccpaGqeF.s:14942  .debug_str:0000000000000fc1 .LASF286
C:\Users\stapi\AppData\Local\Temp\ccpaGqeF.s:14888  .debug_str:0000000000000d08 .LASF287
C:\Users\stapi\AppData\Local\Temp\ccpaGqeF.s:15454  .debug_str:0000000000002819 .LASF288
C:\Users\stapi\AppData\Local\Temp\ccpaGqeF.s:15128  .debug_str:00000000000018cd .LASF289
C:\Users\stapi\AppData\Local\Temp\ccpaGqeF.s:15392  .debug_str:000000000000254f .LASF290
C:\Users\stapi\AppData\Local\Temp\ccpaGqeF.s:14668  .debug_str:000000000000019f .LASF291
C:\Users\stapi\AppData\Local\Temp\ccpaGqeF.s:14848  .debug_str:0000000000000b69 .LASF292
C:\Users\stapi\AppData\Local\Temp\ccpaGqeF.s:14710  .debug_str:0000000000000459 .LASF293
C:\Users\stapi\AppData\Local\Temp\ccpaGqeF.s:14750  .debug_str:0000000000000627 .LASF294
C:\Users\stapi\AppData\Local\Temp\ccpaGqeF.s:14804  .debug_str:000000000000093a .LASF295
C:\Users\stapi\AppData\Local\Temp\ccpaGqeF.s:14680  .debug_str:00000000000002ea .LASF296
C:\Users\stapi\AppData\Local\Temp\ccpaGqeF.s:15228  .debug_str:0000000000001d5c .LASF297
C:\Users\stapi\AppData\Local\Temp\ccpaGqeF.s:14952  .debug_str:0000000000001034 .LASF298
C:\Users\stapi\AppData\Local\Temp\ccpaGqeF.s:15194  .debug_str:0000000000001be5 .LASF299
C:\Users\stapi\AppData\Local\Temp\ccpaGqeF.s:15472  .debug_str:00000000000028e9 .LASF300
C:\Users\stapi\AppData\Local\Temp\ccpaGqeF.s:15248  .debug_str:0000000000001e25 .LASF301
C:\Users\stapi\AppData\Local\Temp\ccpaGqeF.s:15416  .debug_str:000000000000265c .LASF302
C:\Users\stapi\AppData\Local\Temp\ccpaGqeF.s:14876  .debug_str:0000000000000c8d .LASF303
C:\Users\stapi\AppData\Local\Temp\ccpaGqeF.s:15000  .debug_str:0000000000001273 .LASF304
C:\Users\stapi\AppData\Local\Temp\ccpaGqeF.s:14760  .debug_str:0000000000000690 .LASF305
C:\Users\stapi\AppData\Local\Temp\ccpaGqeF.s:14882  .debug_str:0000000000000cd4 .LASF306
C:\Users\stapi\AppData\Local\Temp\ccpaGqeF.s:14928  .debug_str:0000000000000f0f .LASF307
C:\Users\stapi\AppData\Local\Temp\ccpaGqeF.s:14836  .debug_str:0000000000000ac8 .LASF308
C:\Users\stapi\AppData\Local\Temp\ccpaGqeF.s:14738  .debug_str:00000000000005ac .LASF309
C:\Users\stapi\AppData\Local\Temp\ccpaGqeF.s:15322  .debug_str:00000000000021c0 .LASF310
C:\Users\stapi\AppData\Local\Temp\ccpaGqeF.s:14938  .debug_str:0000000000000f92 .LASF311
C:\Users\stapi\AppData\Local\Temp\ccpaGqeF.s:14728  .debug_str:0000000000000539 .LASF312
C:\Users\stapi\AppData\Local\Temp\ccpaGqeF.s:14988  .debug_str:00000000000011e4 .LASF330
C:\Users\stapi\AppData\Local\Temp\ccpaGqeF.s:15052  .debug_str:00000000000014a9 .LASF313
C:\Users\stapi\AppData\Local\Temp\ccpaGqeF.s:14984  .debug_str:00000000000011ca .LASF314
C:\Users\stapi\AppData\Local\Temp\ccpaGqeF.s:14698  .debug_str:00000000000003dd .LASF315
C:\Users\stapi\AppData\Local\Temp\ccpaGqeF.s:15358  .debug_str:000000000000238b .LASF316
C:\Users\stapi\AppData\Local\Temp\ccpaGqeF.s:15124  .debug_str:0000000000001820 .LASF317
C:\Users\stapi\AppData\Local\Temp\ccpaGqeF.s:15214  .debug_str:0000000000001ca5 .LASF318
C:\Users\stapi\AppData\Local\Temp\ccpaGqeF.s:14878  .debug_str:0000000000000ca7 .LASF319
C:\Users\stapi\AppData\Local\Temp\ccpaGqeF.s:14858  .debug_str:0000000000000bc7 .LASF320
C:\Users\stapi\AppData\Local\Temp\ccpaGqeF.s:15104  .debug_str:0000000000001710 .LASF321
C:\Users\stapi\AppData\Local\Temp\ccpaGqeF.s:15304  .debug_str:00000000000020c2 .LASF322
C:\Users\stapi\AppData\Local\Temp\ccpaGqeF.s:14816  .debug_str:00000000000009b2 .LASF323
C:\Users\stapi\AppData\Local\Temp\ccpaGqeF.s:15114  .debug_str:000000000000178c .LASF324
C:\Users\stapi\AppData\Local\Temp\ccpaGqeF.s:15236  .debug_str:0000000000001d8c .LASF325
C:\Users\stapi\AppData\Local\Temp\ccpaGqeF.s:14764  .debug_str:00000000000006ba .LASF326
C:\Users\stapi\AppData\Local\Temp\ccpaGqeF.s:15180  .debug_str:0000000000001b4e .LASF327
C:\Users\stapi\AppData\Local\Temp\ccpaGqeF.s:15136  .debug_str:000000000000192c .LASF328
C:\Users\stapi\AppData\Local\Temp\ccpaGqeF.s:15168  .debug_str:0000000000001a89 .LASF329
C:\Users\stapi\AppData\Local\Temp\ccpaGqeF.s:14972  .debug_str:0000000000001147 .LASF331
C:\Users\stapi\AppData\Local\Temp\ccpaGqeF.s:3558   .text.dm_msg_cloud_reconnect:0000000000000000 .LFB46
C:\Users\stapi\AppData\Local\Temp\ccpaGqeF.s:3608   .text.dm_msg_cloud_reconnect:0000000000000052 .LFE46
C:\Users\stapi\AppData\Local\Temp\ccpaGqeF.s:11809  .debug_loc:0000000000000000 .LLST134
C:\Users\stapi\AppData\Local\Temp\ccpaGqeF.s:3585   .text.dm_msg_cloud_reconnect:0000000000000028 .LVL447
C:\Users\stapi\AppData\Local\Temp\ccpaGqeF.s:3589   .text.dm_msg_cloud_reconnect:0000000000000032 .LVL448
C:\Users\stapi\AppData\Local\Temp\ccpaGqeF.s:3593   .text.dm_msg_cloud_reconnect:000000000000003c .LVL449
C:\Users\stapi\AppData\Local\Temp\ccpaGqeF.s:3599   .text.dm_msg_cloud_reconnect:0000000000000048 .LVL450
C:\Users\stapi\AppData\Local\Temp\ccpaGqeF.s:15108  .debug_str:0000000000001749 .LASF332
C:\Users\stapi\AppData\Local\Temp\ccpaGqeF.s:3541   .text.dm_msg_cloud_disconnect:0000000000000000 .LFB45
C:\Users\stapi\AppData\Local\Temp\ccpaGqeF.s:3551   .text.dm_msg_cloud_disconnect:000000000000000c .LFE45
C:\Users\stapi\AppData\Local\Temp\ccpaGqeF.s:3549   .text.dm_msg_cloud_disconnect:000000000000000c .LVL445
C:\Users\stapi\AppData\Local\Temp\ccpaGqeF.s:15420  .debug_str:0000000000002674 .LASF333
C:\Users\stapi\AppData\Local\Temp\ccpaGqeF.s:3524   .text.dm_msg_cloud_connected:0000000000000000 .LFB44
C:\Users\stapi\AppData\Local\Temp\ccpaGqeF.s:3534   .text.dm_msg_cloud_connected:000000000000000c .LFE44
C:\Users\stapi\AppData\Local\Temp\ccpaGqeF.s:3532   .text.dm_msg_cloud_connected:000000000000000c .LVL444
C:\Users\stapi\AppData\Local\Temp\ccpaGqeF.s:15438  .debug_str:0000000000002733 .LASF334
C:\Users\stapi\AppData\Local\Temp\ccpaGqeF.s:3419   .text.dm_msg_ext_error_response:0000000000000000 .LFB43
C:\Users\stapi\AppData\Local\Temp\ccpaGqeF.s:3517   .text.dm_msg_ext_error_response:0000000000000078 .LFE43
C:\Users\stapi\AppData\Local\Temp\ccpaGqeF.s:15024  .debug_str:0000000000001352 .LASF335
C:\Users\stapi\AppData\Local\Temp\ccpaGqeF.s:11821  .debug_loc:000000000000001f .LLST129
C:\Users\stapi\AppData\Local\Temp\ccpaGqeF.s:15016  .debug_str:0000000000001305 .LASF336
C:\Users\stapi\AppData\Local\Temp\ccpaGqeF.s:11850  .debug_loc:0000000000000064 .LLST130
C:\Users\stapi\AppData\Local\Temp\ccpaGqeF.s:11865  .debug_loc:000000000000008d .LLST131
C:\Users\stapi\AppData\Local\Temp\ccpaGqeF.s:15234  .debug_str:0000000000001d80 .LASF337
C:\Users\stapi\AppData\Local\Temp\ccpaGqeF.s:11886  .debug_loc:00000000000000c3 .LLST132
C:\Users\stapi\AppData\Local\Temp\ccpaGqeF.s:11908  .debug_loc:00000000000000fa .LLST133
C:\Users\stapi\AppData\Local\Temp\ccpaGqeF.s:3455   .text.dm_msg_ext_error_response:0000000000000028 .LVL433
C:\Users\stapi\AppData\Local\Temp\ccpaGqeF.s:3467   .text.dm_msg_ext_error_response:000000000000003a .LVL435
C:\Users\stapi\AppData\Local\Temp\ccpaGqeF.s:3473   .text.dm_msg_ext_error_response:0000000000000048 .LVL436
C:\Users\stapi\AppData\Local\Temp\ccpaGqeF.s:3479   .text.dm_msg_ext_error_response:0000000000000056 .LVL437
C:\Users\stapi\AppData\Local\Temp\ccpaGqeF.s:3489   .text.dm_msg_ext_error_response:0000000000000064 .LVL440
C:\Users\stapi\AppData\Local\Temp\ccpaGqeF.s:15312  .debug_str:0000000000002138 .LASF338
C:\Users\stapi\AppData\Local\Temp\ccpaGqeF.s:3270   .text.dm_msg_ntp_response:0000000000000000 .LFB42
C:\Users\stapi\AppData\Local\Temp\ccpaGqeF.s:3412   .text.dm_msg_ntp_response:00000000000000d0 .LFE42
C:\Users\stapi\AppData\Local\Temp\ccpaGqeF.s:11930  .debug_loc:0000000000000131 .LLST123
C:\Users\stapi\AppData\Local\Temp\ccpaGqeF.s:11944  .debug_loc:0000000000000152 .LLST124
C:\Users\stapi\AppData\Local\Temp\ccpaGqeF.s:11958  .debug_loc:0000000000000173 .LLST125
C:\Users\stapi\AppData\Local\Temp\ccpaGqeF.s:11979  .debug_loc:00000000000001a9 .LLST126
C:\Users\stapi\AppData\Local\Temp\ccpaGqeF.s:11996  .debug_loc:00000000000001d4 .LLST127
C:\Users\stapi\AppData\Local\Temp\ccpaGqeF.s:12013  .debug_loc:00000000000001ff .LLST128
C:\Users\stapi\AppData\Local\Temp\ccpaGqeF.s:15142  .debug_str:0000000000001969 .LASF339
C:\Users\stapi\AppData\Local\Temp\ccpaGqeF.s:15050  .debug_str:000000000000148e .LASF340
C:\Users\stapi\AppData\Local\Temp\ccpaGqeF.s:15222  .debug_str:0000000000001d14 .LASF341
C:\Users\stapi\AppData\Local\Temp\ccpaGqeF.s:15288  .debug_str:0000000000002005 .LASF342
C:\Users\stapi\AppData\Local\Temp\ccpaGqeF.s:3309   .text.dm_msg_ntp_response:000000000000002c .LVL412
C:\Users\stapi\AppData\Local\Temp\ccpaGqeF.s:3342   .text.dm_msg_ntp_response:0000000000000054 .LVL416
C:\Users\stapi\AppData\Local\Temp\ccpaGqeF.s:3350   .text.dm_msg_ntp_response:0000000000000064 .LVL417
C:\Users\stapi\AppData\Local\Temp\ccpaGqeF.s:3355   .text.dm_msg_ntp_response:000000000000006e .LVL418
C:\Users\stapi\AppData\Local\Temp\ccpaGqeF.s:3358   .text.dm_msg_ntp_response:0000000000000076 .LVL419
C:\Users\stapi\AppData\Local\Temp\ccpaGqeF.s:3372   .text.dm_msg_ntp_response:0000000000000088 .LVL421
C:\Users\stapi\AppData\Local\Temp\ccpaGqeF.s:3384   .text.dm_msg_ntp_response:000000000000009a .LVL423
C:\Users\stapi\AppData\Local\Temp\ccpaGqeF.s:3393   .text.dm_msg_ntp_response:00000000000000b2 .LVL424
C:\Users\stapi\AppData\Local\Temp\ccpaGqeF.s:3399   .text.dm_msg_ntp_response:00000000000000c0 .LVL425
C:\Users\stapi\AppData\Local\Temp\ccpaGqeF.s:3409   .text.dm_msg_ntp_response:00000000000000ce .LVL428
C:\Users\stapi\AppData\Local\Temp\ccpaGqeF.s:14842  .debug_str:0000000000000b1a .LASF343
C:\Users\stapi\AppData\Local\Temp\ccpaGqeF.s:3169   .text.dm_msg_thing_event_notify:0000000000000000 .LFB41
C:\Users\stapi\AppData\Local\Temp\ccpaGqeF.s:3259   .text.dm_msg_thing_event_notify:0000000000000076 .LFE41
C:\Users\stapi\AppData\Local\Temp\ccpaGqeF.s:12037  .debug_loc:000000000000023f .LLST118
C:\Users\stapi\AppData\Local\Temp\ccpaGqeF.s:14672  .debug_str:000000000000029a .LASF344
C:\Users\stapi\AppData\Local\Temp\ccpaGqeF.s:12048  .debug_loc:000000000000025d .LLST119
C:\Users\stapi\AppData\Local\Temp\ccpaGqeF.s:12059  .debug_loc:000000000000027b .LLST120
C:\Users\stapi\AppData\Local\Temp\ccpaGqeF.s:12076  .debug_loc:00000000000002a6 .LLST121
C:\Users\stapi\AppData\Local\Temp\ccpaGqeF.s:12088  .debug_loc:00000000000002c5 .LLST122
C:\Users\stapi\AppData\Local\Temp\ccpaGqeF.s:3200   .text.dm_msg_thing_event_notify:0000000000000020 .LVL401
C:\Users\stapi\AppData\Local\Temp\ccpaGqeF.s:3210   .text.dm_msg_thing_event_notify:0000000000000030 .LVL402
C:\Users\stapi\AppData\Local\Temp\ccpaGqeF.s:3220   .text.dm_msg_thing_event_notify:000000000000004e .LVL403
C:\Users\stapi\AppData\Local\Temp\ccpaGqeF.s:3226   .text.dm_msg_thing_event_notify:000000000000005c .LVL404
C:\Users\stapi\AppData\Local\Temp\ccpaGqeF.s:3234   .text.dm_msg_thing_event_notify:0000000000000068 .LVL406
C:\Users\stapi\AppData\Local\Temp\ccpaGqeF.s:15396  .debug_str:0000000000002576 .LASF345
C:\Users\stapi\AppData\Local\Temp\ccpaGqeF.s:2993   .text.dm_msg_rrpc_request:0000000000000000 .LFB40
C:\Users\stapi\AppData\Local\Temp\ccpaGqeF.s:3162   .text.dm_msg_rrpc_request:00000000000000d4 .LFE40
C:\Users\stapi\AppData\Local\Temp\ccpaGqeF.s:12113  .debug_loc:0000000000000306 .LLST108
C:\Users\stapi\AppData\Local\Temp\ccpaGqeF.s:12127  .debug_loc:0000000000000327 .LLST109
C:\Users\stapi\AppData\Local\Temp\ccpaGqeF.s:15334  .debug_str:0000000000002275 .LASF346
C:\Users\stapi\AppData\Local\Temp\ccpaGqeF.s:12141  .debug_loc:0000000000000348 .LLST110
C:\Users\stapi\AppData\Local\Temp\ccpaGqeF.s:14636  .debug_str:000000000000003b .LASF347
C:\Users\stapi\AppData\Local\Temp\ccpaGqeF.s:12152  .debug_loc:0000000000000366 .LLST111
C:\Users\stapi\AppData\Local\Temp\ccpaGqeF.s:12163  .debug_loc:0000000000000384 .LLST112
C:\Users\stapi\AppData\Local\Temp\ccpaGqeF.s:12174  .debug_loc:00000000000003a2 .LLST113
C:\Users\stapi\AppData\Local\Temp\ccpaGqeF.s:12202  .debug_loc:00000000000003ed .LLST114
C:\Users\stapi\AppData\Local\Temp\ccpaGqeF.s:15158  .debug_str:0000000000001a17 .LASF348
C:\Users\stapi\AppData\Local\Temp\ccpaGqeF.s:14978  .debug_str:0000000000001186 .LASF349
C:\Users\stapi\AppData\Local\Temp\ccpaGqeF.s:12219  .debug_loc:0000000000000418 .LLST115
C:\Users\stapi\AppData\Local\Temp\ccpaGqeF.s:14992  .debug_str:0000000000001203 .LASF350
C:\Users\stapi\AppData\Local\Temp\ccpaGqeF.s:12236  .debug_loc:0000000000000443 .LLST116
C:\Users\stapi\AppData\Local\Temp\ccpaGqeF.s:12253  .debug_loc:000000000000046e .LLST117
C:\Users\stapi\AppData\Local\Temp\ccpaGqeF.s:3031   .text.dm_msg_rrpc_request:000000000000001e .LVL380
C:\Users\stapi\AppData\Local\Temp\ccpaGqeF.s:3071   .text.dm_msg_rrpc_request:0000000000000042 .LVL385
C:\Users\stapi\AppData\Local\Temp\ccpaGqeF.s:3113   .text.dm_msg_rrpc_request:000000000000007a .LVL388
C:\Users\stapi\AppData\Local\Temp\ccpaGqeF.s:3125   .text.dm_msg_rrpc_request:000000000000008c .LVL390
C:\Users\stapi\AppData\Local\Temp\ccpaGqeF.s:3143   .text.dm_msg_rrpc_request:00000000000000b6 .LVL391
C:\Users\stapi\AppData\Local\Temp\ccpaGqeF.s:3149   .text.dm_msg_rrpc_request:00000000000000c4 .LVL392
C:\Users\stapi\AppData\Local\Temp\ccpaGqeF.s:3159   .text.dm_msg_rrpc_request:00000000000000d2 .LVL395
C:\Users\stapi\AppData\Local\Temp\ccpaGqeF.s:14812  .debug_str:000000000000097b .LASF351
C:\Users\stapi\AppData\Local\Temp\ccpaGqeF.s:2813   .text.dm_msg_thing_event_notify_reply:0000000000000000 .LFB39
C:\Users\stapi\AppData\Local\Temp\ccpaGqeF.s:2986   .text.dm_msg_thing_event_notify_reply:00000000000000e6 .LFE39
C:\Users\stapi\AppData\Local\Temp\ccpaGqeF.s:14640  .debug_str:000000000000005e .LASF352
C:\Users\stapi\AppData\Local\Temp\ccpaGqeF.s:12274  .debug_loc:00000000000004a4 .LLST100
C:\Users\stapi\AppData\Local\Temp\ccpaGqeF.s:12296  .debug_loc:00000000000004db .LLST101
C:\Users\stapi\AppData\Local\Temp\ccpaGqeF.s:12321  .debug_loc:000000000000051c .LLST102
C:\Users\stapi\AppData\Local\Temp\ccpaGqeF.s:12338  .debug_loc:0000000000000547 .LLST103
C:\Users\stapi\AppData\Local\Temp\ccpaGqeF.s:12359  .debug_loc:000000000000057d .LLST104
C:\Users\stapi\AppData\Local\Temp\ccpaGqeF.s:12376  .debug_loc:00000000000005a8 .LLST105
C:\Users\stapi\AppData\Local\Temp\ccpaGqeF.s:12393  .debug_loc:00000000000005d3 .LLST106
C:\Users\stapi\AppData\Local\Temp\ccpaGqeF.s:12410  .debug_loc:00000000000005fe .LLST107
C:\Users\stapi\AppData\Local\Temp\ccpaGqeF.s:14798  .debug_str:00000000000008fb .LASF353
C:\Users\stapi\AppData\Local\Temp\ccpaGqeF.s:14910  .debug_str:0000000000000e29 .LASF354
C:\Users\stapi\AppData\Local\Temp\ccpaGqeF.s:2879   .text.dm_msg_thing_event_notify_reply:000000000000003a .LVL357
C:\Users\stapi\AppData\Local\Temp\ccpaGqeF.s:2884   .text.dm_msg_thing_event_notify_reply:0000000000000044 .LVL358
C:\Users\stapi\AppData\Local\Temp\ccpaGqeF.s:2896   .text.dm_msg_thing_event_notify_reply:0000000000000052 .LVL360
C:\Users\stapi\AppData\Local\Temp\ccpaGqeF.s:2921   .text.dm_msg_thing_event_notify_reply:000000000000007c .LVL363
C:\Users\stapi\AppData\Local\Temp\ccpaGqeF.s:2943   .text.dm_msg_thing_event_notify_reply:0000000000000098 .LVL367
C:\Users\stapi\AppData\Local\Temp\ccpaGqeF.s:2955   .text.dm_msg_thing_event_notify_reply:00000000000000aa .LVL369
C:\Users\stapi\AppData\Local\Temp\ccpaGqeF.s:2967   .text.dm_msg_thing_event_notify_reply:00000000000000c8 .LVL370
C:\Users\stapi\AppData\Local\Temp\ccpaGqeF.s:2973   .text.dm_msg_thing_event_notify_reply:00000000000000d6 .LVL371
C:\Users\stapi\AppData\Local\Temp\ccpaGqeF.s:2983   .text.dm_msg_thing_event_notify_reply:00000000000000e4 .LVL374
C:\Users\stapi\AppData\Local\Temp\ccpaGqeF.s:14708  .debug_str:000000000000043b .LASF355
C:\Users\stapi\AppData\Local\Temp\ccpaGqeF.s:2642   .text.dm_msg_thing_event_post_reply:0000000000000000 .LFB38
C:\Users\stapi\AppData\Local\Temp\ccpaGqeF.s:2806   .text.dm_msg_thing_event_post_reply:00000000000000d4 .LFE38
C:\Users\stapi\AppData\Local\Temp\ccpaGqeF.s:15464  .debug_str:0000000000002883 .LASF356
C:\Users\stapi\AppData\Local\Temp\ccpaGqeF.s:12427  .debug_loc:0000000000000629 .LLST92
C:\Users\stapi\AppData\Local\Temp\ccpaGqeF.s:15412  .debug_str:0000000000002632 .LASF357
C:\Users\stapi\AppData\Local\Temp\ccpaGqeF.s:12449  .debug_loc:0000000000000660 .LLST93
C:\Users\stapi\AppData\Local\Temp\ccpaGqeF.s:12471  .debug_loc:0000000000000697 .LLST94
C:\Users\stapi\AppData\Local\Temp\ccpaGqeF.s:12482  .debug_loc:00000000000006b5 .LLST95
C:\Users\stapi\AppData\Local\Temp\ccpaGqeF.s:12507  .debug_loc:00000000000006f6 .LLST96
C:\Users\stapi\AppData\Local\Temp\ccpaGqeF.s:12524  .debug_loc:0000000000000721 .LLST97
C:\Users\stapi\AppData\Local\Temp\ccpaGqeF.s:12545  .debug_loc:0000000000000757 .LLST98
C:\Users\stapi\AppData\Local\Temp\ccpaGqeF.s:12562  .debug_loc:0000000000000782 .LLST99
C:\Users\stapi\AppData\Local\Temp\ccpaGqeF.s:2712   .text.dm_msg_thing_event_post_reply:000000000000003e .LVL335
C:\Users\stapi\AppData\Local\Temp\ccpaGqeF.s:2717   .text.dm_msg_thing_event_post_reply:0000000000000048 .LVL336
C:\Users\stapi\AppData\Local\Temp\ccpaGqeF.s:2729   .text.dm_msg_thing_event_post_reply:0000000000000056 .LVL338
C:\Users\stapi\AppData\Local\Temp\ccpaGqeF.s:2745   .text.dm_msg_thing_event_post_reply:0000000000000068 .LVL341
C:\Users\stapi\AppData\Local\Temp\ccpaGqeF.s:2759   .text.dm_msg_thing_event_post_reply:000000000000007e .LVL343
C:\Users\stapi\AppData\Local\Temp\ccpaGqeF.s:2771   .text.dm_msg_thing_event_post_reply:0000000000000090 .LVL345
C:\Users\stapi\AppData\Local\Temp\ccpaGqeF.s:2787   .text.dm_msg_thing_event_post_reply:00000000000000b6 .LVL346
C:\Users\stapi\AppData\Local\Temp\ccpaGqeF.s:2793   .text.dm_msg_thing_event_post_reply:00000000000000c4 .LVL347
C:\Users\stapi\AppData\Local\Temp\ccpaGqeF.s:2803   .text.dm_msg_thing_event_post_reply:00000000000000d2 .LVL350
C:\Users\stapi\AppData\Local\Temp\ccpaGqeF.s:15020  .debug_str:0000000000001323 .LASF358
C:\Users\stapi\AppData\Local\Temp\ccpaGqeF.s:2500   .text.dm_msg_thing_deviceinfo_delete_reply:0000000000000000 .LFB37
C:\Users\stapi\AppData\Local\Temp\ccpaGqeF.s:2635   .text.dm_msg_thing_deviceinfo_delete_reply:00000000000000b6 .LFE37
C:\Users\stapi\AppData\Local\Temp\ccpaGqeF.s:12583  .debug_loc:00000000000007b8 .LLST86
C:\Users\stapi\AppData\Local\Temp\ccpaGqeF.s:12605  .debug_loc:00000000000007ef .LLST87
C:\Users\stapi\AppData\Local\Temp\ccpaGqeF.s:12630  .debug_loc:0000000000000830 .LLST88
C:\Users\stapi\AppData\Local\Temp\ccpaGqeF.s:12647  .debug_loc:000000000000085b .LLST89
C:\Users\stapi\AppData\Local\Temp\ccpaGqeF.s:12668  .debug_loc:0000000000000891 .LLST90
C:\Users\stapi\AppData\Local\Temp\ccpaGqeF.s:12687  .debug_loc:00000000000008be .LLST91
C:\Users\stapi\AppData\Local\Temp\ccpaGqeF.s:2560   .text.dm_msg_thing_deviceinfo_delete_reply:000000000000003a .LVL314
C:\Users\stapi\AppData\Local\Temp\ccpaGqeF.s:2565   .text.dm_msg_thing_deviceinfo_delete_reply:0000000000000044 .LVL315
C:\Users\stapi\AppData\Local\Temp\ccpaGqeF.s:2577   .text.dm_msg_thing_deviceinfo_delete_reply:0000000000000052 .LVL317
C:\Users\stapi\AppData\Local\Temp\ccpaGqeF.s:2594   .text.dm_msg_thing_deviceinfo_delete_reply:0000000000000068 .LVL319
C:\Users\stapi\AppData\Local\Temp\ccpaGqeF.s:2606   .text.dm_msg_thing_deviceinfo_delete_reply:000000000000007c .LVL321
C:\Users\stapi\AppData\Local\Temp\ccpaGqeF.s:2616   .text.dm_msg_thing_deviceinfo_delete_reply:0000000000000098 .LVL322
C:\Users\stapi\AppData\Local\Temp\ccpaGqeF.s:2622   .text.dm_msg_thing_deviceinfo_delete_reply:00000000000000a6 .LVL323
C:\Users\stapi\AppData\Local\Temp\ccpaGqeF.s:2632   .text.dm_msg_thing_deviceinfo_delete_reply:00000000000000b4 .LVL326
C:\Users\stapi\AppData\Local\Temp\ccpaGqeF.s:14726  .debug_str:0000000000000514 .LASF359
C:\Users\stapi\AppData\Local\Temp\ccpaGqeF.s:2358   .text.dm_msg_thing_deviceinfo_update_reply:0000000000000000 .LFB36
C:\Users\stapi\AppData\Local\Temp\ccpaGqeF.s:2493   .text.dm_msg_thing_deviceinfo_update_reply:00000000000000b6 .LFE36
C:\Users\stapi\AppData\Local\Temp\ccpaGqeF.s:12704  .debug_loc:00000000000008e9 .LLST80
C:\Users\stapi\AppData\Local\Temp\ccpaGqeF.s:12726  .debug_loc:0000000000000920 .LLST81
C:\Users\stapi\AppData\Local\Temp\ccpaGqeF.s:12751  .debug_loc:0000000000000961 .LLST82
C:\Users\stapi\AppData\Local\Temp\ccpaGqeF.s:12768  .debug_loc:000000000000098c .LLST83
C:\Users\stapi\AppData\Local\Temp\ccpaGqeF.s:12789  .debug_loc:00000000000009c2 .LLST84
C:\Users\stapi\AppData\Local\Temp\ccpaGqeF.s:12808  .debug_loc:00000000000009ef .LLST85
C:\Users\stapi\AppData\Local\Temp\ccpaGqeF.s:2418   .text.dm_msg_thing_deviceinfo_update_reply:000000000000003a .LVL295
C:\Users\stapi\AppData\Local\Temp\ccpaGqeF.s:2423   .text.dm_msg_thing_deviceinfo_update_reply:0000000000000044 .LVL296
C:\Users\stapi\AppData\Local\Temp\ccpaGqeF.s:2435   .text.dm_msg_thing_deviceinfo_update_reply:0000000000000052 .LVL298
C:\Users\stapi\AppData\Local\Temp\ccpaGqeF.s:2452   .text.dm_msg_thing_deviceinfo_update_reply:0000000000000068 .LVL300
C:\Users\stapi\AppData\Local\Temp\ccpaGqeF.s:2464   .text.dm_msg_thing_deviceinfo_update_reply:000000000000007c .LVL302
C:\Users\stapi\AppData\Local\Temp\ccpaGqeF.s:2474   .text.dm_msg_thing_deviceinfo_update_reply:0000000000000098 .LVL303
C:\Users\stapi\AppData\Local\Temp\ccpaGqeF.s:2480   .text.dm_msg_thing_deviceinfo_update_reply:00000000000000a6 .LVL304
C:\Users\stapi\AppData\Local\Temp\ccpaGqeF.s:2490   .text.dm_msg_thing_deviceinfo_update_reply:00000000000000b4 .LVL307
C:\Users\stapi\AppData\Local\Temp\ccpaGqeF.s:14826  .debug_str:0000000000000a3c .LASF360
C:\Users\stapi\AppData\Local\Temp\ccpaGqeF.s:2178   .text.dm_msg_thing_event_property_post_reply:0000000000000000 .LFB35
C:\Users\stapi\AppData\Local\Temp\ccpaGqeF.s:2351   .text.dm_msg_thing_event_property_post_reply:00000000000000e6 .LFE35
C:\Users\stapi\AppData\Local\Temp\ccpaGqeF.s:12825  .debug_loc:0000000000000a1a .LLST72
C:\Users\stapi\AppData\Local\Temp\ccpaGqeF.s:12847  .debug_loc:0000000000000a51 .LLST73
C:\Users\stapi\AppData\Local\Temp\ccpaGqeF.s:12872  .debug_loc:0000000000000a92 .LLST74
C:\Users\stapi\AppData\Local\Temp\ccpaGqeF.s:12889  .debug_loc:0000000000000abd .LLST75
C:\Users\stapi\AppData\Local\Temp\ccpaGqeF.s:12910  .debug_loc:0000000000000af3 .LLST76
C:\Users\stapi\AppData\Local\Temp\ccpaGqeF.s:12927  .debug_loc:0000000000000b1e .LLST77
C:\Users\stapi\AppData\Local\Temp\ccpaGqeF.s:12944  .debug_loc:0000000000000b49 .LLST78
C:\Users\stapi\AppData\Local\Temp\ccpaGqeF.s:12961  .debug_loc:0000000000000b74 .LLST79
C:\Users\stapi\AppData\Local\Temp\ccpaGqeF.s:2244   .text.dm_msg_thing_event_property_post_reply:000000000000003a .LVL271
C:\Users\stapi\AppData\Local\Temp\ccpaGqeF.s:2249   .text.dm_msg_thing_event_property_post_reply:0000000000000044 .LVL272
C:\Users\stapi\AppData\Local\Temp\ccpaGqeF.s:2261   .text.dm_msg_thing_event_property_post_reply:0000000000000052 .LVL274
C:\Users\stapi\AppData\Local\Temp\ccpaGqeF.s:2286   .text.dm_msg_thing_event_property_post_reply:000000000000007c .LVL277
C:\Users\stapi\AppData\Local\Temp\ccpaGqeF.s:2308   .text.dm_msg_thing_event_property_post_reply:0000000000000098 .LVL281
C:\Users\stapi\AppData\Local\Temp\ccpaGqeF.s:2320   .text.dm_msg_thing_event_property_post_reply:00000000000000aa .LVL283
C:\Users\stapi\AppData\Local\Temp\ccpaGqeF.s:2332   .text.dm_msg_thing_event_property_post_reply:00000000000000c8 .LVL284
C:\Users\stapi\AppData\Local\Temp\ccpaGqeF.s:2338   .text.dm_msg_thing_event_property_post_reply:00000000000000d6 .LVL285
C:\Users\stapi\AppData\Local\Temp\ccpaGqeF.s:2348   .text.dm_msg_thing_event_property_post_reply:00000000000000e4 .LVL288
C:\Users\stapi\AppData\Local\Temp\ccpaGqeF.s:14800  .debug_str:0000000000000902 .LASF361
C:\Users\stapi\AppData\Local\Temp\ccpaGqeF.s:1946   .text.dm_msg_thing_service_request:0000000000000000 .LFB34
C:\Users\stapi\AppData\Local\Temp\ccpaGqeF.s:2167   .text.dm_msg_thing_service_request:000000000000013c .LFE34
C:\Users\stapi\AppData\Local\Temp\ccpaGqeF.s:12978  .debug_loc:0000000000000b9f .LLST62
C:\Users\stapi\AppData\Local\Temp\ccpaGqeF.s:13007  .debug_loc:0000000000000be4 .LLST63
C:\Users\stapi\AppData\Local\Temp\ccpaGqeF.s:13036  .debug_loc:0000000000000c29 .LLST64
C:\Users\stapi\AppData\Local\Temp\ccpaGqeF.s:13058  .debug_loc:0000000000000c60 .LLST65
C:\Users\stapi\AppData\Local\Temp\ccpaGqeF.s:13080  .debug_loc:0000000000000c97 .LLST66
C:\Users\stapi\AppData\Local\Temp\ccpaGqeF.s:13102  .debug_loc:0000000000000cce .LLST67
C:\Users\stapi\AppData\Local\Temp\ccpaGqeF.s:13121  .debug_loc:0000000000000cfb .LLST68
C:\Users\stapi\AppData\Local\Temp\ccpaGqeF.s:13146  .debug_loc:0000000000000d3c .LLST69
C:\Users\stapi\AppData\Local\Temp\ccpaGqeF.s:13167  .debug_loc:0000000000000d72 .LLST70
C:\Users\stapi\AppData\Local\Temp\ccpaGqeF.s:15272  .debug_str:0000000000001f4c .LASF362
C:\Users\stapi\AppData\Local\Temp\ccpaGqeF.s:15250  .debug_str:0000000000001e2a .LASF363
C:\Users\stapi\AppData\Local\Temp\ccpaGqeF.s:13191  .debug_loc:0000000000000db2 .LLST71
C:\Users\stapi\AppData\Local\Temp\ccpaGqeF.s:1989   .text.dm_msg_thing_service_request:000000000000002c .LVL240
C:\Users\stapi\AppData\Local\Temp\ccpaGqeF.s:1999   .text.dm_msg_thing_service_request:0000000000000040 .LVL241
C:\Users\stapi\AppData\Local\Temp\ccpaGqeF.s:2033   .text.dm_msg_thing_service_request:0000000000000070 .LVL244
C:\Users\stapi\AppData\Local\Temp\ccpaGqeF.s:2042   .text.dm_msg_thing_service_request:000000000000007e .LVL245
C:\Users\stapi\AppData\Local\Temp\ccpaGqeF.s:2054   .text.dm_msg_thing_service_request:0000000000000090 .LVL247
C:\Users\stapi\AppData\Local\Temp\ccpaGqeF.s:2061   .text.dm_msg_thing_service_request:00000000000000a0 .LVL248
C:\Users\stapi\AppData\Local\Temp\ccpaGqeF.s:2066   .text.dm_msg_thing_service_request:00000000000000aa .LVL249
C:\Users\stapi\AppData\Local\Temp\ccpaGqeF.s:2086   .text.dm_msg_thing_service_request:00000000000000c6 .LVL252
C:\Users\stapi\AppData\Local\Temp\ccpaGqeF.s:2096   .text.dm_msg_thing_service_request:00000000000000d4 .LVL255
C:\Users\stapi\AppData\Local\Temp\ccpaGqeF.s:2125   .text.dm_msg_thing_service_request:00000000000000ee .LVL258
C:\Users\stapi\AppData\Local\Temp\ccpaGqeF.s:2142   .text.dm_msg_thing_service_request:0000000000000116 .LVL259
C:\Users\stapi\AppData\Local\Temp\ccpaGqeF.s:2146   .text.dm_msg_thing_service_request:0000000000000120 .LVL260
C:\Users\stapi\AppData\Local\Temp\ccpaGqeF.s:2154   .text.dm_msg_thing_service_request:000000000000012c .LVL261
C:\Users\stapi\AppData\Local\Temp\ccpaGqeF.s:2164   .text.dm_msg_thing_service_request:000000000000013a .LVL264
C:\Users\stapi\AppData\Local\Temp\ccpaGqeF.s:15198  .debug_str:0000000000001c06 .LASF364
C:\Users\stapi\AppData\Local\Temp\ccpaGqeF.s:1789   .text.dm_msg_property_get:0000000000000000 .LFB33
C:\Users\stapi\AppData\Local\Temp\ccpaGqeF.s:1939   .text.dm_msg_property_get:00000000000000da .LFE33
C:\Users\stapi\AppData\Local\Temp\ccpaGqeF.s:13221  .debug_loc:0000000000000dff .LLST55
C:\Users\stapi\AppData\Local\Temp\ccpaGqeF.s:13232  .debug_loc:0000000000000e1d .LLST56
C:\Users\stapi\AppData\Local\Temp\ccpaGqeF.s:13243  .debug_loc:0000000000000e3b .LLST57
C:\Users\stapi\AppData\Local\Temp\ccpaGqeF.s:13262  .debug_loc:0000000000000e68 .LLST58
C:\Users\stapi\AppData\Local\Temp\ccpaGqeF.s:13274  .debug_loc:0000000000000e87 .LLST59
C:\Users\stapi\AppData\Local\Temp\ccpaGqeF.s:13290  .debug_loc:0000000000000eb1 .LLST60
C:\Users\stapi\AppData\Local\Temp\ccpaGqeF.s:13315  .debug_loc:0000000000000ef2 .LLST61
C:\Users\stapi\AppData\Local\Temp\ccpaGqeF.s:1823   .text.dm_msg_property_get:000000000000001e .LVL219
C:\Users\stapi\AppData\Local\Temp\ccpaGqeF.s:1833   .text.dm_msg_property_get:000000000000002e .LVL220
C:\Users\stapi\AppData\Local\Temp\ccpaGqeF.s:1840   .text.dm_msg_property_get:000000000000003e .LVL221
C:\Users\stapi\AppData\Local\Temp\ccpaGqeF.s:1845   .text.dm_msg_property_get:0000000000000048 .LVL222
C:\Users\stapi\AppData\Local\Temp\ccpaGqeF.s:1862   .text.dm_msg_property_get:0000000000000066 .LVL224
C:\Users\stapi\AppData\Local\Temp\ccpaGqeF.s:1872   .text.dm_msg_property_get:0000000000000074 .LVL227
C:\Users\stapi\AppData\Local\Temp\ccpaGqeF.s:1886   .text.dm_msg_property_get:0000000000000084 .LVL229
C:\Users\stapi\AppData\Local\Temp\ccpaGqeF.s:1899   .text.dm_msg_property_get:00000000000000ac .LVL230
C:\Users\stapi\AppData\Local\Temp\ccpaGqeF.s:1903   .text.dm_msg_property_get:00000000000000b6 .LVL231
C:\Users\stapi\AppData\Local\Temp\ccpaGqeF.s:1911   .text.dm_msg_property_get:00000000000000c2 .LVL232
C:\Users\stapi\AppData\Local\Temp\ccpaGqeF.s:1919   .text.dm_msg_property_get:00000000000000ce .LVL234
C:\Users\stapi\AppData\Local\Temp\ccpaGqeF.s:15468  .debug_str:00000000000028af .LASF365
C:\Users\stapi\AppData\Local\Temp\ccpaGqeF.s:1692   .text.dm_msg_property_set:0000000000000000 .LFB32
C:\Users\stapi\AppData\Local\Temp\ccpaGqeF.s:1782   .text.dm_msg_property_set:0000000000000074 .LFE32
C:\Users\stapi\AppData\Local\Temp\ccpaGqeF.s:13344  .debug_loc:0000000000000f3e .LLST50
C:\Users\stapi\AppData\Local\Temp\ccpaGqeF.s:13355  .debug_loc:0000000000000f5c .LLST51
C:\Users\stapi\AppData\Local\Temp\ccpaGqeF.s:13366  .debug_loc:0000000000000f7a .LLST52
C:\Users\stapi\AppData\Local\Temp\ccpaGqeF.s:13383  .debug_loc:0000000000000fa5 .LLST53
C:\Users\stapi\AppData\Local\Temp\ccpaGqeF.s:13395  .debug_loc:0000000000000fc4 .LLST54
C:\Users\stapi\AppData\Local\Temp\ccpaGqeF.s:1723   .text.dm_msg_property_set:0000000000000020 .LVL204
C:\Users\stapi\AppData\Local\Temp\ccpaGqeF.s:1733   .text.dm_msg_property_set:0000000000000030 .LVL205
C:\Users\stapi\AppData\Local\Temp\ccpaGqeF.s:1743   .text.dm_msg_property_set:000000000000004e .LVL206
C:\Users\stapi\AppData\Local\Temp\ccpaGqeF.s:1749   .text.dm_msg_property_set:000000000000005a .LVL207
C:\Users\stapi\AppData\Local\Temp\ccpaGqeF.s:1757   .text.dm_msg_property_set:0000000000000066 .LVL209
C:\Users\stapi\AppData\Local\Temp\ccpaGqeF.s:15090  .debug_str:0000000000001662 .LASF366
C:\Users\stapi\AppData\Local\Temp\ccpaGqeF.s:1501   .text.dm_msg_thing_model_up_raw_reply:0000000000000000 .LFB31
C:\Users\stapi\AppData\Local\Temp\ccpaGqeF.s:1685   .text.dm_msg_thing_model_up_raw_reply:0000000000000102 .LFE31
C:\Users\stapi\AppData\Local\Temp\ccpaGqeF.s:13420  .debug_loc:0000000000001005 .LLST43
C:\Users\stapi\AppData\Local\Temp\ccpaGqeF.s:13442  .debug_loc:000000000000103c .LLST44
C:\Users\stapi\AppData\Local\Temp\ccpaGqeF.s:13471  .debug_loc:0000000000001081 .LLST45
C:\Users\stapi\AppData\Local\Temp\ccpaGqeF.s:13500  .debug_loc:00000000000010c6 .LLST46
C:\Users\stapi\AppData\Local\Temp\ccpaGqeF.s:13522  .debug_loc:00000000000010fd .LLST47
C:\Users\stapi\AppData\Local\Temp\ccpaGqeF.s:13550  .debug_loc:0000000000001148 .LLST48
C:\Users\stapi\AppData\Local\Temp\ccpaGqeF.s:15184  .debug_str:0000000000001b78 .LASF367
C:\Users\stapi\AppData\Local\Temp\ccpaGqeF.s:13571  .debug_loc:000000000000117e .LLST49
C:\Users\stapi\AppData\Local\Temp\ccpaGqeF.s:1539   .text.dm_msg_thing_model_up_raw_reply:0000000000000026 .LVL176
C:\Users\stapi\AppData\Local\Temp\ccpaGqeF.s:1549   .text.dm_msg_thing_model_up_raw_reply:0000000000000038 .LVL177
C:\Users\stapi\AppData\Local\Temp\ccpaGqeF.s:1566   .text.dm_msg_thing_model_up_raw_reply:0000000000000056 .LVL178
C:\Users\stapi\AppData\Local\Temp\ccpaGqeF.s:1587   .text.dm_msg_thing_model_up_raw_reply:000000000000006a .LVL182
C:\Users\stapi\AppData\Local\Temp\ccpaGqeF.s:1596   .text.dm_msg_thing_model_up_raw_reply:0000000000000076 .LVL184
C:\Users\stapi\AppData\Local\Temp\ccpaGqeF.s:1606   .text.dm_msg_thing_model_up_raw_reply:0000000000000088 .LVL186
C:\Users\stapi\AppData\Local\Temp\ccpaGqeF.s:1615   .text.dm_msg_thing_model_up_raw_reply:0000000000000096 .LVL188
C:\Users\stapi\AppData\Local\Temp\ccpaGqeF.s:1642   .text.dm_msg_thing_model_up_raw_reply:00000000000000b0 .LVL191
C:\Users\stapi\AppData\Local\Temp\ccpaGqeF.s:1648   .text.dm_msg_thing_model_up_raw_reply:00000000000000be .LVL192
C:\Users\stapi\AppData\Local\Temp\ccpaGqeF.s:1657   .text.dm_msg_thing_model_up_raw_reply:00000000000000d8 .LVL193
C:\Users\stapi\AppData\Local\Temp\ccpaGqeF.s:1661   .text.dm_msg_thing_model_up_raw_reply:00000000000000e2 .LVL194
C:\Users\stapi\AppData\Local\Temp\ccpaGqeF.s:1672   .text.dm_msg_thing_model_up_raw_reply:00000000000000f2 .LVL195
C:\Users\stapi\AppData\Local\Temp\ccpaGqeF.s:1682   .text.dm_msg_thing_model_up_raw_reply:0000000000000100 .LVL198
C:\Users\stapi\AppData\Local\Temp\ccpaGqeF.s:15284  .debug_str:0000000000001fd1 .LASF368
C:\Users\stapi\AppData\Local\Temp\ccpaGqeF.s:1310   .text.dm_msg_thing_model_down_raw:0000000000000000 .LFB30
C:\Users\stapi\AppData\Local\Temp\ccpaGqeF.s:1494   .text.dm_msg_thing_model_down_raw:0000000000000100 .LFE30
C:\Users\stapi\AppData\Local\Temp\ccpaGqeF.s:13587  .debug_loc:00000000000011a8 .LLST36
C:\Users\stapi\AppData\Local\Temp\ccpaGqeF.s:13609  .debug_loc:00000000000011df .LLST37
C:\Users\stapi\AppData\Local\Temp\ccpaGqeF.s:13638  .debug_loc:0000000000001224 .LLST38
C:\Users\stapi\AppData\Local\Temp\ccpaGqeF.s:13667  .debug_loc:0000000000001269 .LLST39
C:\Users\stapi\AppData\Local\Temp\ccpaGqeF.s:13689  .debug_loc:00000000000012a0 .LLST40
C:\Users\stapi\AppData\Local\Temp\ccpaGqeF.s:13717  .debug_loc:00000000000012eb .LLST41
C:\Users\stapi\AppData\Local\Temp\ccpaGqeF.s:13738  .debug_loc:0000000000001321 .LLST42
C:\Users\stapi\AppData\Local\Temp\ccpaGqeF.s:1348   .text.dm_msg_thing_model_down_raw:0000000000000026 .LVL149
C:\Users\stapi\AppData\Local\Temp\ccpaGqeF.s:1358   .text.dm_msg_thing_model_down_raw:0000000000000038 .LVL150
C:\Users\stapi\AppData\Local\Temp\ccpaGqeF.s:1375   .text.dm_msg_thing_model_down_raw:0000000000000056 .LVL151
C:\Users\stapi\AppData\Local\Temp\ccpaGqeF.s:1396   .text.dm_msg_thing_model_down_raw:000000000000006a .LVL155
C:\Users\stapi\AppData\Local\Temp\ccpaGqeF.s:1405   .text.dm_msg_thing_model_down_raw:0000000000000076 .LVL157
C:\Users\stapi\AppData\Local\Temp\ccpaGqeF.s:1415   .text.dm_msg_thing_model_down_raw:0000000000000088 .LVL159
C:\Users\stapi\AppData\Local\Temp\ccpaGqeF.s:1424   .text.dm_msg_thing_model_down_raw:0000000000000096 .LVL161
C:\Users\stapi\AppData\Local\Temp\ccpaGqeF.s:1451   .text.dm_msg_thing_model_down_raw:00000000000000b0 .LVL164
C:\Users\stapi\AppData\Local\Temp\ccpaGqeF.s:1457   .text.dm_msg_thing_model_down_raw:00000000000000be .LVL165
C:\Users\stapi\AppData\Local\Temp\ccpaGqeF.s:1466   .text.dm_msg_thing_model_down_raw:00000000000000d8 .LVL166
C:\Users\stapi\AppData\Local\Temp\ccpaGqeF.s:1470   .text.dm_msg_thing_model_down_raw:00000000000000e2 .LVL167
C:\Users\stapi\AppData\Local\Temp\ccpaGqeF.s:1481   .text.dm_msg_thing_model_down_raw:00000000000000f0 .LVL168
C:\Users\stapi\AppData\Local\Temp\ccpaGqeF.s:1491   .text.dm_msg_thing_model_down_raw:00000000000000fe .LVL171
C:\Users\stapi\AppData\Local\Temp\ccpaGqeF.s:15418  .debug_str:0000000000002664 .LASF369
C:\Users\stapi\AppData\Local\Temp\ccpaGqeF.s:1058   .text.dm_msg_response:0000000000000000 .LFB29
C:\Users\stapi\AppData\Local\Temp\ccpaGqeF.s:1303   .text.dm_msg_response:0000000000000178 .LFE29
C:\Users\stapi\AppData\Local\Temp\ccpaGqeF.s:13754  .debug_loc:000000000000134b .LLST27
C:\Users\stapi\AppData\Local\Temp\ccpaGqeF.s:13783  .debug_loc:0000000000001390 .LLST28
C:\Users\stapi\AppData\Local\Temp\ccpaGqeF.s:13805  .debug_loc:00000000000013c7 .LLST29
C:\Users\stapi\AppData\Local\Temp\ccpaGqeF.s:13827  .debug_loc:00000000000013fe .LLST30
C:\Users\stapi\AppData\Local\Temp\ccpaGqeF.s:14744  .debug_str:00000000000005ed .LASF370
C:\Users\stapi\AppData\Local\Temp\ccpaGqeF.s:13849  .debug_loc:0000000000001435 .LLST31
C:\Users\stapi\AppData\Local\Temp\ccpaGqeF.s:15424  .debug_str:00000000000026ad .LASF371
C:\Users\stapi\AppData\Local\Temp\ccpaGqeF.s:13871  .debug_loc:000000000000146c .LLST32
C:\Users\stapi\AppData\Local\Temp\ccpaGqeF.s:13885  .debug_loc:000000000000148d .LLST33
C:\Users\stapi\AppData\Local\Temp\ccpaGqeF.s:13909  .debug_loc:00000000000014cd .LLST34
C:\Users\stapi\AppData\Local\Temp\ccpaGqeF.s:13925  .debug_loc:00000000000014f7 .LLST35
C:\Users\stapi\AppData\Local\Temp\ccpaGqeF.s:1114   .text.dm_msg_response:000000000000003c .LVL116
C:\Users\stapi\AppData\Local\Temp\ccpaGqeF.s:1133   .text.dm_msg_response:0000000000000056 .LVL119
C:\Users\stapi\AppData\Local\Temp\ccpaGqeF.s:1146   .text.dm_msg_response:0000000000000066 .LVL122
C:\Users\stapi\AppData\Local\Temp\ccpaGqeF.s:1174   .text.dm_msg_response:000000000000007e .LVL124
C:\Users\stapi\AppData\Local\Temp\ccpaGqeF.s:1186   .text.dm_msg_response:00000000000000a2 .LVL125
C:\Users\stapi\AppData\Local\Temp\ccpaGqeF.s:1192   .text.dm_msg_response:00000000000000b2 .LVL126
C:\Users\stapi\AppData\Local\Temp\ccpaGqeF.s:1199   .text.dm_msg_response:00000000000000c0 .LVL127
C:\Users\stapi\AppData\Local\Temp\ccpaGqeF.s:1211   .text.dm_msg_response:00000000000000d8 .LVL130
C:\Users\stapi\AppData\Local\Temp\ccpaGqeF.s:1218   .text.dm_msg_response:00000000000000ec .LVL131
C:\Users\stapi\AppData\Local\Temp\ccpaGqeF.s:1222   .text.dm_msg_response:00000000000000f8 .LVL132
C:\Users\stapi\AppData\Local\Temp\ccpaGqeF.s:1227   .text.dm_msg_response:0000000000000102 .LVL133
C:\Users\stapi\AppData\Local\Temp\ccpaGqeF.s:1236   .text.dm_msg_response:000000000000010e .LVL134
C:\Users\stapi\AppData\Local\Temp\ccpaGqeF.s:1251   .text.dm_msg_response:000000000000011e .LVL137
C:\Users\stapi\AppData\Local\Temp\ccpaGqeF.s:1258   .text.dm_msg_response:0000000000000132 .LVL138
C:\Users\stapi\AppData\Local\Temp\ccpaGqeF.s:1266   .text.dm_msg_response:0000000000000142 .LVL140
C:\Users\stapi\AppData\Local\Temp\ccpaGqeF.s:1275   .text.dm_msg_response:0000000000000150 .LVL141
C:\Users\stapi\AppData\Local\Temp\ccpaGqeF.s:1282   .text.dm_msg_response:0000000000000160 .LVL142
C:\Users\stapi\AppData\Local\Temp\ccpaGqeF.s:1287   .text.dm_msg_response:000000000000016a .LVL143
C:\Users\stapi\AppData\Local\Temp\ccpaGqeF.s:1296   .text.dm_msg_response:0000000000000176 .LVL144
C:\Users\stapi\AppData\Local\Temp\ccpaGqeF.s:14694  .debug_str:00000000000003ac .LASF372
C:\Users\stapi\AppData\Local\Temp\ccpaGqeF.s:792    .text.dm_msg_request:0000000000000000 .LFB28
C:\Users\stapi\AppData\Local\Temp\ccpaGqeF.s:1047   .text.dm_msg_request:0000000000000196 .LFE28
C:\Users\stapi\AppData\Local\Temp\ccpaGqeF.s:13955  .debug_loc:0000000000001544 .LLST22
C:\Users\stapi\AppData\Local\Temp\ccpaGqeF.s:13977  .debug_loc:000000000000157b .LLST23
C:\Users\stapi\AppData\Local\Temp\ccpaGqeF.s:13999  .debug_loc:00000000000015b2 .LLST24
C:\Users\stapi\AppData\Local\Temp\ccpaGqeF.s:14031  .debug_loc:0000000000001608 .LLST25
C:\Users\stapi\AppData\Local\Temp\ccpaGqeF.s:14051  .debug_loc:000000000000163d .LLST26
C:\Users\stapi\AppData\Local\Temp\ccpaGqeF.s:840    .text.dm_msg_request:0000000000000034 .LVL77
C:\Users\stapi\AppData\Local\Temp\ccpaGqeF.s:851    .text.dm_msg_request:0000000000000042 .LVL80
C:\Users\stapi\AppData\Local\Temp\ccpaGqeF.s:865    .text.dm_msg_request:000000000000005a .LVL82
C:\Users\stapi\AppData\Local\Temp\ccpaGqeF.s:878    .text.dm_msg_request:000000000000006a .LVL85
C:\Users\stapi\AppData\Local\Temp\ccpaGqeF.s:903    .text.dm_msg_request:0000000000000082 .LVL87
C:\Users\stapi\AppData\Local\Temp\ccpaGqeF.s:926    .text.dm_msg_request:00000000000000b8 .LVL88
C:\Users\stapi\AppData\Local\Temp\ccpaGqeF.s:932    .text.dm_msg_request:00000000000000c8 .LVL89
C:\Users\stapi\AppData\Local\Temp\ccpaGqeF.s:939    .text.dm_msg_request:00000000000000d6 .LVL90
C:\Users\stapi\AppData\Local\Temp\ccpaGqeF.s:951    .text.dm_msg_request:00000000000000ee .LVL93
C:\Users\stapi\AppData\Local\Temp\ccpaGqeF.s:958    .text.dm_msg_request:0000000000000102 .LVL94
C:\Users\stapi\AppData\Local\Temp\ccpaGqeF.s:962    .text.dm_msg_request:000000000000010e .LVL95
C:\Users\stapi\AppData\Local\Temp\ccpaGqeF.s:967    .text.dm_msg_request:0000000000000118 .LVL96
C:\Users\stapi\AppData\Local\Temp\ccpaGqeF.s:976    .text.dm_msg_request:0000000000000124 .LVL97
C:\Users\stapi\AppData\Local\Temp\ccpaGqeF.s:997    .text.dm_msg_request:000000000000013e .LVL101
C:\Users\stapi\AppData\Local\Temp\ccpaGqeF.s:1004   .text.dm_msg_request:0000000000000152 .LVL102
C:\Users\stapi\AppData\Local\Temp\ccpaGqeF.s:1008   .text.dm_msg_request:000000000000015e .LVL103
C:\Users\stapi\AppData\Local\Temp\ccpaGqeF.s:1019   .text.dm_msg_request:000000000000016e .LVL104
C:\Users\stapi\AppData\Local\Temp\ccpaGqeF.s:1026   .text.dm_msg_request:000000000000017e .LVL105
C:\Users\stapi\AppData\Local\Temp\ccpaGqeF.s:1031   .text.dm_msg_request:0000000000000188 .LVL106
C:\Users\stapi\AppData\Local\Temp\ccpaGqeF.s:1040   .text.dm_msg_request:0000000000000194 .LVL107
C:\Users\stapi\AppData\Local\Temp\ccpaGqeF.s:14766  .debug_str:00000000000006de .LASF373
C:\Users\stapi\AppData\Local\Temp\ccpaGqeF.s:625    .text.dm_msg_response_parse:0000000000000000 .LFB27
C:\Users\stapi\AppData\Local\Temp\ccpaGqeF.s:775    .text.dm_msg_response_parse:000000000000013c .LFE27
C:\Users\stapi\AppData\Local\Temp\ccpaGqeF.s:14081  .debug_loc:000000000000168a .LLST19
C:\Users\stapi\AppData\Local\Temp\ccpaGqeF.s:14095  .debug_loc:00000000000016ab .LLST20
C:\Users\stapi\AppData\Local\Temp\ccpaGqeF.s:14109  .debug_loc:00000000000016cc .LLST21
C:\Users\stapi\AppData\Local\Temp\ccpaGqeF.s:14900  .debug_str:0000000000000da0 .LASF386
C:\Users\stapi\AppData\Local\Temp\ccpaGqeF.s:14886  .debug_str:0000000000000cfb .LASF375
C:\Users\stapi\AppData\Local\Temp\ccpaGqeF.s:658    .text.dm_msg_response_parse:0000000000000026 .LVL62
C:\Users\stapi\AppData\Local\Temp\ccpaGqeF.s:689    .text.dm_msg_response_parse:000000000000004e .LVL65
C:\Users\stapi\AppData\Local\Temp\ccpaGqeF.s:700    .text.dm_msg_response_parse:000000000000006a .LVL66
C:\Users\stapi\AppData\Local\Temp\ccpaGqeF.s:711    .text.dm_msg_response_parse:0000000000000086 .LVL67
C:\Users\stapi\AppData\Local\Temp\ccpaGqeF.s:727    .text.dm_msg_response_parse:00000000000000b6 .LVL68
C:\Users\stapi\AppData\Local\Temp\ccpaGqeF.s:737    .text.dm_msg_response_parse:00000000000000d6 .LVL69
C:\Users\stapi\AppData\Local\Temp\ccpaGqeF.s:748    .text.dm_msg_response_parse:00000000000000fa .LVL70
C:\Users\stapi\AppData\Local\Temp\ccpaGqeF.s:759    .text.dm_msg_response_parse:0000000000000114 .LVL71
C:\Users\stapi\AppData\Local\Temp\ccpaGqeF.s:772    .text.dm_msg_response_parse:000000000000013a .LVL72
C:\Users\stapi\AppData\Local\Temp\ccpaGqeF.s:15034  .debug_str:00000000000013cc .LASF374
C:\Users\stapi\AppData\Local\Temp\ccpaGqeF.s:422    .text.dm_msg_request_parse:0000000000000000 .LFB26
C:\Users\stapi\AppData\Local\Temp\ccpaGqeF.s:599    .text.dm_msg_request_parse:000000000000017a .LFE26
C:\Users\stapi\AppData\Local\Temp\ccpaGqeF.s:14131  .debug_loc:0000000000001703 .LLST16
C:\Users\stapi\AppData\Local\Temp\ccpaGqeF.s:14160  .debug_loc:0000000000001748 .LLST17
C:\Users\stapi\AppData\Local\Temp\ccpaGqeF.s:14189  .debug_loc:000000000000178d .LLST18
C:\Users\stapi\AppData\Local\Temp\ccpaGqeF.s:458    .text.dm_msg_request_parse:000000000000002a .LVL44
C:\Users\stapi\AppData\Local\Temp\ccpaGqeF.s:467    .text.dm_msg_request_parse:000000000000003c .LVL45
C:\Users\stapi\AppData\Local\Temp\ccpaGqeF.s:475    .text.dm_msg_request_parse:0000000000000052 .LVL46
C:\Users\stapi\AppData\Local\Temp\ccpaGqeF.s:480    .text.dm_msg_request_parse:0000000000000062 .LVL47
C:\Users\stapi\AppData\Local\Temp\ccpaGqeF.s:510    .text.dm_msg_request_parse:0000000000000088 .LVL50
C:\Users\stapi\AppData\Local\Temp\ccpaGqeF.s:521    .text.dm_msg_request_parse:00000000000000a4 .LVL51
C:\Users\stapi\AppData\Local\Temp\ccpaGqeF.s:532    .text.dm_msg_request_parse:00000000000000c0 .LVL52
C:\Users\stapi\AppData\Local\Temp\ccpaGqeF.s:543    .text.dm_msg_request_parse:00000000000000dc .LVL53
C:\Users\stapi\AppData\Local\Temp\ccpaGqeF.s:561    .text.dm_msg_request_parse:000000000000010c .LVL56
C:\Users\stapi\AppData\Local\Temp\ccpaGqeF.s:572    .text.dm_msg_request_parse:0000000000000130 .LVL57
C:\Users\stapi\AppData\Local\Temp\ccpaGqeF.s:583    .text.dm_msg_request_parse:0000000000000154 .LVL58
C:\Users\stapi\AppData\Local\Temp\ccpaGqeF.s:594    .text.dm_msg_request_parse:0000000000000178 .LVL59
C:\Users\stapi\AppData\Local\Temp\ccpaGqeF.s:15006  .debug_str:00000000000012ae .LASF376
C:\Users\stapi\AppData\Local\Temp\ccpaGqeF.s:221    .text.dm_msg_uri_parse_pkdn:0000000000000000 .LFB25
C:\Users\stapi\AppData\Local\Temp\ccpaGqeF.s:378    .text.dm_msg_uri_parse_pkdn:00000000000000d2 .LFE25
C:\Users\stapi\AppData\Local\Temp\ccpaGqeF.s:14211  .debug_loc:00000000000017c4 .LLST9
C:\Users\stapi\AppData\Local\Temp\ccpaGqeF.s:15086  .debug_str:000000000000163a .LASF377
C:\Users\stapi\AppData\Local\Temp\ccpaGqeF.s:14233  .debug_loc:00000000000017fb .LLST10
C:\Users\stapi\AppData\Local\Temp\ccpaGqeF.s:15200  .debug_str:0000000000001c1a .LASF378
C:\Users\stapi\AppData\Local\Temp\ccpaGqeF.s:14262  .debug_loc:0000000000001840 .LLST11
C:\Users\stapi\AppData\Local\Temp\ccpaGqeF.s:15380  .debug_str:00000000000024b0 .LASF379
C:\Users\stapi\AppData\Local\Temp\ccpaGqeF.s:14284  .debug_loc:0000000000001877 .LLST12
C:\Users\stapi\AppData\Local\Temp\ccpaGqeF.s:14306  .debug_loc:00000000000018ae .LLST13
C:\Users\stapi\AppData\Local\Temp\ccpaGqeF.s:14328  .debug_loc:00000000000018e5 .LLST14
C:\Users\stapi\AppData\Local\Temp\ccpaGqeF.s:14350  .debug_loc:000000000000191c .LLST15
C:\Users\stapi\AppData\Local\Temp\ccpaGqeF.s:14646  .debug_str:0000000000000092 .LASF380
C:\Users\stapi\AppData\Local\Temp\ccpaGqeF.s:14718  .debug_str:00000000000004cb .LASF381
C:\Users\stapi\AppData\Local\Temp\ccpaGqeF.s:269    .text.dm_msg_uri_parse_pkdn:0000000000000034 .LVL29
C:\Users\stapi\AppData\Local\Temp\ccpaGqeF.s:276    .text.dm_msg_uri_parse_pkdn:0000000000000044 .LVL30
C:\Users\stapi\AppData\Local\Temp\ccpaGqeF.s:288    .text.dm_msg_uri_parse_pkdn:0000000000000060 .LVL31
C:\Users\stapi\AppData\Local\Temp\ccpaGqeF.s:324    .text.dm_msg_uri_parse_pkdn:0000000000000086 .LVL35
C:\Users\stapi\AppData\Local\Temp\ccpaGqeF.s:337    .text.dm_msg_uri_parse_pkdn:000000000000009c .LVL37
C:\Users\stapi\AppData\Local\Temp\ccpaGqeF.s:359    .text.dm_msg_uri_parse_pkdn:00000000000000b8 .LVL40
C:\Users\stapi\AppData\Local\Temp\ccpaGqeF.s:373    .text.dm_msg_uri_parse_pkdn:00000000000000d0 .LVL41
C:\Users\stapi\AppData\Local\Temp\ccpaGqeF.s:15242  .debug_str:0000000000001ddc .LASF382
C:\Users\stapi\AppData\Local\Temp\ccpaGqeF.s:126    .text.dm_msg_send_msg_timeout_to_user:0000000000000000 .LFB24
C:\Users\stapi\AppData\Local\Temp\ccpaGqeF.s:214    .text.dm_msg_send_msg_timeout_to_user:0000000000000076 .LFE24
C:\Users\stapi\AppData\Local\Temp\ccpaGqeF.s:15140  .debug_str:0000000000001962 .LASF383
C:\Users\stapi\AppData\Local\Temp\ccpaGqeF.s:14374  .debug_loc:000000000000195c .LLST4
C:\Users\stapi\AppData\Local\Temp\ccpaGqeF.s:14385  .debug_loc:000000000000197a .LLST5
C:\Users\stapi\AppData\Local\Temp\ccpaGqeF.s:14396  .debug_loc:0000000000001998 .LLST6
C:\Users\stapi\AppData\Local\Temp\ccpaGqeF.s:14407  .debug_loc:00000000000019b6 .LLST7
C:\Users\stapi\AppData\Local\Temp\ccpaGqeF.s:14424  .debug_loc:00000000000019e1 .LLST8
C:\Users\stapi\AppData\Local\Temp\ccpaGqeF.s:154    .text.dm_msg_send_msg_timeout_to_user:000000000000001e .LVL17
C:\Users\stapi\AppData\Local\Temp\ccpaGqeF.s:164    .text.dm_msg_send_msg_timeout_to_user:0000000000000030 .LVL18
C:\Users\stapi\AppData\Local\Temp\ccpaGqeF.s:175    .text.dm_msg_send_msg_timeout_to_user:0000000000000050 .LVL19
C:\Users\stapi\AppData\Local\Temp\ccpaGqeF.s:181    .text.dm_msg_send_msg_timeout_to_user:000000000000005c .LVL20
C:\Users\stapi\AppData\Local\Temp\ccpaGqeF.s:189    .text.dm_msg_send_msg_timeout_to_user:0000000000000068 .LVL22
C:\Users\stapi\AppData\Local\Temp\ccpaGqeF.s:15004  .debug_str:0000000000001299 .LASF384
C:\Users\stapi\AppData\Local\Temp\ccpaGqeF.s:47     .text._dm_msg_send_to_user:0000000000000000 .LFB23
C:\Users\stapi\AppData\Local\Temp\ccpaGqeF.s:119    .text._dm_msg_send_to_user:0000000000000046 .LFE23
C:\Users\stapi\AppData\Local\Temp\ccpaGqeF.s:14449  .debug_loc:0000000000001a22 .LLST0
C:\Users\stapi\AppData\Local\Temp\ccpaGqeF.s:14460  .debug_loc:0000000000001a40 .LLST1
C:\Users\stapi\AppData\Local\Temp\ccpaGqeF.s:14471  .debug_loc:0000000000001a5e .LLST2
C:\Users\stapi\AppData\Local\Temp\ccpaGqeF.s:14704  .debug_str:0000000000000420 .LASF385
C:\Users\stapi\AppData\Local\Temp\ccpaGqeF.s:14488  .debug_loc:0000000000001a89 .LLST3
C:\Users\stapi\AppData\Local\Temp\ccpaGqeF.s:72     .text._dm_msg_send_to_user:000000000000001a .LVL5
C:\Users\stapi\AppData\Local\Temp\ccpaGqeF.s:87     .text._dm_msg_send_to_user:000000000000002c .LVL6
C:\Users\stapi\AppData\Local\Temp\ccpaGqeF.s:95     .text._dm_msg_send_to_user:0000000000000038 .LVL8
C:\Users\stapi\AppData\Local\Temp\ccpaGqeF.s:15350  .debug_str:0000000000002337 .LASF420
C:\Users\stapi\AppData\Local\Temp\ccpaGqeF.s:15202  .debug_str:0000000000001c25 .LASF387
C:\Users\stapi\AppData\Local\Temp\ccpaGqeF.s:14     .text.dm_msg_init:0000000000000000 .LFB21
C:\Users\stapi\AppData\Local\Temp\ccpaGqeF.s:29     .text.dm_msg_init:000000000000000c .LFE21
C:\Users\stapi\AppData\Local\Temp\ccpaGqeF.s:15008  .debug_str:00000000000012c4 .LASF421
C:\Users\stapi\AppData\Local\Temp\ccpaGqeF.s:14864  .debug_str:0000000000000c08 .LASF395
C:\Users\stapi\AppData\Local\Temp\ccpaGqeF.s:14778  .debug_str:00000000000007ed .LASF397
C:\Users\stapi\AppData\Local\Temp\ccpaGqeF.s:14666  .debug_str:000000000000018d .LASF388
C:\Users\stapi\AppData\Local\Temp\ccpaGqeF.s:14706  .debug_str:0000000000000429 .LASF389
C:\Users\stapi\AppData\Local\Temp\ccpaGqeF.s:14970  .debug_str:0000000000001132 .LASF390
C:\Users\stapi\AppData\Local\Temp\ccpaGqeF.s:15232  .debug_str:0000000000001d78 .LASF391
C:\Users\stapi\AppData\Local\Temp\ccpaGqeF.s:14828  .debug_str:0000000000000a63 .LASF392
C:\Users\stapi\AppData\Local\Temp\ccpaGqeF.s:15292  .debug_str:000000000000201a .LASF393
C:\Users\stapi\AppData\Local\Temp\ccpaGqeF.s:15122  .debug_str:0000000000001806 .LASF394
C:\Users\stapi\AppData\Local\Temp\ccpaGqeF.s:15352  .debug_str:0000000000002345 .LASF396
C:\Users\stapi\AppData\Local\Temp\ccpaGqeF.s:14892  .debug_str:0000000000000d3c .LASF398
C:\Users\stapi\AppData\Local\Temp\ccpaGqeF.s:14734  .debug_str:0000000000000588 .LASF399
C:\Users\stapi\AppData\Local\Temp\ccpaGqeF.s:15182  .debug_str:0000000000001b6c .LASF400
C:\Users\stapi\AppData\Local\Temp\ccpaGqeF.s:15280  .debug_str:0000000000001fae .LASF401
C:\Users\stapi\AppData\Local\Temp\ccpaGqeF.s:14784  .debug_str:0000000000000832 .LASF402
C:\Users\stapi\AppData\Local\Temp\ccpaGqeF.s:14950  .debug_str:0000000000001024 .LASF403
C:\Users\stapi\AppData\Local\Temp\ccpaGqeF.s:14754  .debug_str:0000000000000651 .LASF404
C:\Users\stapi\AppData\Local\Temp\ccpaGqeF.s:15388  .debug_str:0000000000002521 .LASF405
C:\Users\stapi\AppData\Local\Temp\ccpaGqeF.s:15256  .debug_str:0000000000001e7b .LASF406
C:\Users\stapi\AppData\Local\Temp\ccpaGqeF.s:15342  .debug_str:00000000000022cf .LASF407
C:\Users\stapi\AppData\Local\Temp\ccpaGqeF.s:14714  .debug_str:000000000000048a .LASF408
C:\Users\stapi\AppData\Local\Temp\ccpaGqeF.s:15148  .debug_str:000000000000198f .LASF409
C:\Users\stapi\AppData\Local\Temp\ccpaGqeF.s:15282  .debug_str:0000000000001fbb .LASF410
C:\Users\stapi\AppData\Local\Temp\ccpaGqeF.s:14820  .debug_str:00000000000009fe .LASF411
C:\Users\stapi\AppData\Local\Temp\ccpaGqeF.s:15068  .debug_str:000000000000156e .LASF412
C:\Users\stapi\AppData\Local\Temp\ccpaGqeF.s:14852  .debug_str:0000000000000b93 .LASF413
C:\Users\stapi\AppData\Local\Temp\ccpaGqeF.s:14678  .debug_str:00000000000002de .LASF414
C:\Users\stapi\AppData\Local\Temp\ccpaGqeF.s:15018  .debug_str:0000000000001311 .LASF415
C:\Users\stapi\AppData\Local\Temp\ccpaGqeF.s:3565   .text.dm_msg_cloud_reconnect:0000000000000008 .LVL446
C:\Users\stapi\AppData\Local\Temp\ccpaGqeF.s:3422   .text.dm_msg_ext_error_response:0000000000000000 .LVL429
C:\Users\stapi\AppData\Local\Temp\ccpaGqeF.s:3452   .text.dm_msg_ext_error_response:000000000000001e .LVL432
C:\Users\stapi\AppData\Local\Temp\ccpaGqeF.s:3495   .text.dm_msg_ext_error_response:0000000000000066 .LVL441
C:\Users\stapi\AppData\Local\Temp\ccpaGqeF.s:3507   .text.dm_msg_ext_error_response:0000000000000072 .LVL442
C:\Users\stapi\AppData\Local\Temp\ccpaGqeF.s:3514   .text.dm_msg_ext_error_response:0000000000000076 .LVL443
C:\Users\stapi\AppData\Local\Temp\ccpaGqeF.s:3450   .text.dm_msg_ext_error_response:000000000000001c .LVL431
C:\Users\stapi\AppData\Local\Temp\ccpaGqeF.s:3481   .text.dm_msg_ext_error_response:0000000000000058 .LVL438
C:\Users\stapi\AppData\Local\Temp\ccpaGqeF.s:3487   .text.dm_msg_ext_error_response:000000000000005c .LVL439
C:\Users\stapi\AppData\Local\Temp\ccpaGqeF.s:3446   .text.dm_msg_ext_error_response:000000000000001a .LVL430
C:\Users\stapi\AppData\Local\Temp\ccpaGqeF.s:3457   .text.dm_msg_ext_error_response:000000000000002a .LVL434
C:\Users\stapi\AppData\Local\Temp\ccpaGqeF.s:3273   .text.dm_msg_ntp_response:0000000000000000 .LVL410
C:\Users\stapi\AppData\Local\Temp\ccpaGqeF.s:3280   .text.dm_msg_ntp_response:0000000000000008 .LVL411
C:\Users\stapi\AppData\Local\Temp\ccpaGqeF.s:3312   .text.dm_msg_ntp_response:000000000000002e .LVL413
C:\Users\stapi\AppData\Local\Temp\ccpaGqeF.s:3331   .text.dm_msg_ntp_response:000000000000003c .LVL415
C:\Users\stapi\AppData\Local\Temp\ccpaGqeF.s:3401   .text.dm_msg_ntp_response:00000000000000c2 .LVL426
C:\Users\stapi\AppData\Local\Temp\ccpaGqeF.s:3407   .text.dm_msg_ntp_response:00000000000000c6 .LVL427
C:\Users\stapi\AppData\Local\Temp\ccpaGqeF.s:3367   .text.dm_msg_ntp_response:000000000000007e .LVL420
C:\Users\stapi\AppData\Local\Temp\ccpaGqeF.s:3319   .text.dm_msg_ntp_response:0000000000000030 .LVL414
C:\Users\stapi\AppData\Local\Temp\ccpaGqeF.s:3374   .text.dm_msg_ntp_response:000000000000008a .LVL422
C:\Users\stapi\AppData\Local\Temp\ccpaGqeF.s:3172   .text.dm_msg_thing_event_notify:0000000000000000 .LVL396
C:\Users\stapi\AppData\Local\Temp\ccpaGqeF.s:3198   .text.dm_msg_thing_event_notify:0000000000000018 .LVL400
C:\Users\stapi\AppData\Local\Temp\ccpaGqeF.s:3196   .text.dm_msg_thing_event_notify:0000000000000016 .LVL399
C:\Users\stapi\AppData\Local\Temp\ccpaGqeF.s:3181   .text.dm_msg_thing_event_notify:0000000000000008 .LVL397
C:\Users\stapi\AppData\Local\Temp\ccpaGqeF.s:3232   .text.dm_msg_thing_event_notify:0000000000000060 .LVL405
C:\Users\stapi\AppData\Local\Temp\ccpaGqeF.s:3251   .text.dm_msg_thing_event_notify:0000000000000072 .LVL408
C:\Users\stapi\AppData\Local\Temp\ccpaGqeF.s:3191   .text.dm_msg_thing_event_notify:0000000000000012 .LVL398
C:\Users\stapi\AppData\Local\Temp\ccpaGqeF.s:3240   .text.dm_msg_thing_event_notify:000000000000006a .LVL407
C:\Users\stapi\AppData\Local\Temp\ccpaGqeF.s:3256   .text.dm_msg_thing_event_notify:0000000000000074 .LVL409
C:\Users\stapi\AppData\Local\Temp\ccpaGqeF.s:2996   .text.dm_msg_rrpc_request:0000000000000000 .LVL375
C:\Users\stapi\AppData\Local\Temp\ccpaGqeF.s:3016   .text.dm_msg_rrpc_request:000000000000000e .LVL377
C:\Users\stapi\AppData\Local\Temp\ccpaGqeF.s:3008   .text.dm_msg_rrpc_request:0000000000000008 .LVL376
C:\Users\stapi\AppData\Local\Temp\ccpaGqeF.s:3035   .text.dm_msg_rrpc_request:0000000000000020 .LVL381
C:\Users\stapi\AppData\Local\Temp\ccpaGqeF.s:3059   .text.dm_msg_rrpc_request:000000000000002e .LVL383
C:\Users\stapi\AppData\Local\Temp\ccpaGqeF.s:3066   .text.dm_msg_rrpc_request:0000000000000032 .LVL384
C:\Users\stapi\AppData\Local\Temp\ccpaGqeF.s:3151   .text.dm_msg_rrpc_request:00000000000000c6 .LVL393
C:\Users\stapi\AppData\Local\Temp\ccpaGqeF.s:3157   .text.dm_msg_rrpc_request:00000000000000ca .LVL394
C:\Users\stapi\AppData\Local\Temp\ccpaGqeF.s:3022   .text.dm_msg_rrpc_request:0000000000000014 .LVL378
C:\Users\stapi\AppData\Local\Temp\ccpaGqeF.s:3108   .text.dm_msg_rrpc_request:0000000000000072 .LVL387
C:\Users\stapi\AppData\Local\Temp\ccpaGqeF.s:3026   .text.dm_msg_rrpc_request:0000000000000016 .LVL379
C:\Users\stapi\AppData\Local\Temp\ccpaGqeF.s:3096   .text.dm_msg_rrpc_request:0000000000000066 .LVL386
C:\Users\stapi\AppData\Local\Temp\ccpaGqeF.s:3042   .text.dm_msg_rrpc_request:0000000000000022 .LVL382
C:\Users\stapi\AppData\Local\Temp\ccpaGqeF.s:3115   .text.dm_msg_rrpc_request:000000000000007c .LVL389
C:\Users\stapi\AppData\Local\Temp\ccpaGqeF.s:2816   .text.dm_msg_thing_event_notify_reply:0000000000000000 .LVL351
C:\Users\stapi\AppData\Local\Temp\ccpaGqeF.s:2845   .text.dm_msg_thing_event_notify_reply:000000000000001e .LVL353
C:\Users\stapi\AppData\Local\Temp\ccpaGqeF.s:2869   .text.dm_msg_thing_event_notify_reply:000000000000002c .LVL355
C:\Users\stapi\AppData\Local\Temp\ccpaGqeF.s:2877   .text.dm_msg_thing_event_notify_reply:0000000000000032 .LVL356
C:\Users\stapi\AppData\Local\Temp\ccpaGqeF.s:2828   .text.dm_msg_thing_event_notify_reply:0000000000000008 .LVL352
C:\Users\stapi\AppData\Local\Temp\ccpaGqeF.s:2916   .text.dm_msg_thing_event_notify_reply:000000000000006c .LVL362
C:\Users\stapi\AppData\Local\Temp\ccpaGqeF.s:2975   .text.dm_msg_thing_event_notify_reply:00000000000000d8 .LVL372
C:\Users\stapi\AppData\Local\Temp\ccpaGqeF.s:2981   .text.dm_msg_thing_event_notify_reply:00000000000000dc .LVL373
C:\Users\stapi\AppData\Local\Temp\ccpaGqeF.s:2909   .text.dm_msg_thing_event_notify_reply:0000000000000062 .LVL361
C:\Users\stapi\AppData\Local\Temp\ccpaGqeF.s:2889   .text.dm_msg_thing_event_notify_reply:0000000000000048 .LVL359
C:\Users\stapi\AppData\Local\Temp\ccpaGqeF.s:2936   .text.dm_msg_thing_event_notify_reply:000000000000008a .LVL366
C:\Users\stapi\AppData\Local\Temp\ccpaGqeF.s:2931   .text.dm_msg_thing_event_notify_reply:0000000000000086 .LVL365
C:\Users\stapi\AppData\Local\Temp\ccpaGqeF.s:2852   .text.dm_msg_thing_event_notify_reply:0000000000000020 .LVL354
C:\Users\stapi\AppData\Local\Temp\ccpaGqeF.s:2945   .text.dm_msg_thing_event_notify_reply:000000000000009a .LVL368
C:\Users\stapi\AppData\Local\Temp\ccpaGqeF.s:2927   .text.dm_msg_thing_event_notify_reply:0000000000000082 .LVL364
C:\Users\stapi\AppData\Local\Temp\ccpaGqeF.s:2645   .text.dm_msg_thing_event_post_reply:0000000000000000 .LVL327
C:\Users\stapi\AppData\Local\Temp\ccpaGqeF.s:2677   .text.dm_msg_thing_event_post_reply:0000000000000020 .LVL330
C:\Users\stapi\AppData\Local\Temp\ccpaGqeF.s:2701   .text.dm_msg_thing_event_post_reply:000000000000002e .LVL332
C:\Users\stapi\AppData\Local\Temp\ccpaGqeF.s:2710   .text.dm_msg_thing_event_post_reply:0000000000000036 .LVL334
C:\Users\stapi\AppData\Local\Temp\ccpaGqeF.s:2707   .text.dm_msg_thing_event_post_reply:0000000000000032 .LVL333
C:\Users\stapi\AppData\Local\Temp\ccpaGqeF.s:2664   .text.dm_msg_thing_event_post_reply:000000000000000c .LVL329
C:\Users\stapi\AppData\Local\Temp\ccpaGqeF.s:2657   .text.dm_msg_thing_event_post_reply:0000000000000008 .LVL328
C:\Users\stapi\AppData\Local\Temp\ccpaGqeF.s:2738   .text.dm_msg_thing_event_post_reply:000000000000005c .LVL339
C:\Users\stapi\AppData\Local\Temp\ccpaGqeF.s:2795   .text.dm_msg_thing_event_post_reply:00000000000000c6 .LVL348
C:\Users\stapi\AppData\Local\Temp\ccpaGqeF.s:2801   .text.dm_msg_thing_event_post_reply:00000000000000ca .LVL349
C:\Users\stapi\AppData\Local\Temp\ccpaGqeF.s:2741   .text.dm_msg_thing_event_post_reply:0000000000000060 .LVL340
C:\Users\stapi\AppData\Local\Temp\ccpaGqeF.s:2722   .text.dm_msg_thing_event_post_reply:000000000000004c .LVL337
C:\Users\stapi\AppData\Local\Temp\ccpaGqeF.s:2753   .text.dm_msg_thing_event_post_reply:0000000000000072 .LVL342
C:\Users\stapi\AppData\Local\Temp\ccpaGqeF.s:2684   .text.dm_msg_thing_event_post_reply:0000000000000022 .LVL331
C:\Users\stapi\AppData\Local\Temp\ccpaGqeF.s:2761   .text.dm_msg_thing_event_post_reply:0000000000000080 .LVL344
C:\Users\stapi\AppData\Local\Temp\ccpaGqeF.s:2503   .text.dm_msg_thing_deviceinfo_delete_reply:0000000000000000 .LVL308
C:\Users\stapi\AppData\Local\Temp\ccpaGqeF.s:2529   .text.dm_msg_thing_deviceinfo_delete_reply:000000000000001e .LVL310
C:\Users\stapi\AppData\Local\Temp\ccpaGqeF.s:2550   .text.dm_msg_thing_deviceinfo_delete_reply:000000000000002c .LVL312
C:\Users\stapi\AppData\Local\Temp\ccpaGqeF.s:2558   .text.dm_msg_thing_deviceinfo_delete_reply:0000000000000032 .LVL313
C:\Users\stapi\AppData\Local\Temp\ccpaGqeF.s:2512   .text.dm_msg_thing_deviceinfo_delete_reply:0000000000000008 .LVL309
C:\Users\stapi\AppData\Local\Temp\ccpaGqeF.s:2624   .text.dm_msg_thing_deviceinfo_delete_reply:00000000000000a8 .LVL324
C:\Users\stapi\AppData\Local\Temp\ccpaGqeF.s:2630   .text.dm_msg_thing_deviceinfo_delete_reply:00000000000000ac .LVL325
C:\Users\stapi\AppData\Local\Temp\ccpaGqeF.s:2589   .text.dm_msg_thing_deviceinfo_delete_reply:0000000000000060 .LVL318
C:\Users\stapi\AppData\Local\Temp\ccpaGqeF.s:2570   .text.dm_msg_thing_deviceinfo_delete_reply:0000000000000048 .LVL316
C:\Users\stapi\AppData\Local\Temp\ccpaGqeF.s:2536   .text.dm_msg_thing_deviceinfo_delete_reply:0000000000000020 .LVL311
C:\Users\stapi\AppData\Local\Temp\ccpaGqeF.s:2596   .text.dm_msg_thing_deviceinfo_delete_reply:000000000000006a .LVL320
C:\Users\stapi\AppData\Local\Temp\ccpaGqeF.s:2361   .text.dm_msg_thing_deviceinfo_update_reply:0000000000000000 .LVL289
C:\Users\stapi\AppData\Local\Temp\ccpaGqeF.s:2387   .text.dm_msg_thing_deviceinfo_update_reply:000000000000001e .LVL291
C:\Users\stapi\AppData\Local\Temp\ccpaGqeF.s:2408   .text.dm_msg_thing_deviceinfo_update_reply:000000000000002c .LVL293
C:\Users\stapi\AppData\Local\Temp\ccpaGqeF.s:2416   .text.dm_msg_thing_deviceinfo_update_reply:0000000000000032 .LVL294
C:\Users\stapi\AppData\Local\Temp\ccpaGqeF.s:2370   .text.dm_msg_thing_deviceinfo_update_reply:0000000000000008 .LVL290
C:\Users\stapi\AppData\Local\Temp\ccpaGqeF.s:2482   .text.dm_msg_thing_deviceinfo_update_reply:00000000000000a8 .LVL305
C:\Users\stapi\AppData\Local\Temp\ccpaGqeF.s:2488   .text.dm_msg_thing_deviceinfo_update_reply:00000000000000ac .LVL306
C:\Users\stapi\AppData\Local\Temp\ccpaGqeF.s:2447   .text.dm_msg_thing_deviceinfo_update_reply:0000000000000060 .LVL299
C:\Users\stapi\AppData\Local\Temp\ccpaGqeF.s:2428   .text.dm_msg_thing_deviceinfo_update_reply:0000000000000048 .LVL297
C:\Users\stapi\AppData\Local\Temp\ccpaGqeF.s:2394   .text.dm_msg_thing_deviceinfo_update_reply:0000000000000020 .LVL292
C:\Users\stapi\AppData\Local\Temp\ccpaGqeF.s:2454   .text.dm_msg_thing_deviceinfo_update_reply:000000000000006a .LVL301
C:\Users\stapi\AppData\Local\Temp\ccpaGqeF.s:2181   .text.dm_msg_thing_event_property_post_reply:0000000000000000 .LVL265
C:\Users\stapi\AppData\Local\Temp\ccpaGqeF.s:2210   .text.dm_msg_thing_event_property_post_reply:000000000000001e .LVL267
C:\Users\stapi\AppData\Local\Temp\ccpaGqeF.s:2234   .text.dm_msg_thing_event_property_post_reply:000000000000002c .LVL269
C:\Users\stapi\AppData\Local\Temp\ccpaGqeF.s:2242   .text.dm_msg_thing_event_property_post_reply:0000000000000032 .LVL270
C:\Users\stapi\AppData\Local\Temp\ccpaGqeF.s:2193   .text.dm_msg_thing_event_property_post_reply:0000000000000008 .LVL266
C:\Users\stapi\AppData\Local\Temp\ccpaGqeF.s:2281   .text.dm_msg_thing_event_property_post_reply:000000000000006c .LVL276
C:\Users\stapi\AppData\Local\Temp\ccpaGqeF.s:2340   .text.dm_msg_thing_event_property_post_reply:00000000000000d8 .LVL286
C:\Users\stapi\AppData\Local\Temp\ccpaGqeF.s:2346   .text.dm_msg_thing_event_property_post_reply:00000000000000dc .LVL287
C:\Users\stapi\AppData\Local\Temp\ccpaGqeF.s:2274   .text.dm_msg_thing_event_property_post_reply:0000000000000062 .LVL275
C:\Users\stapi\AppData\Local\Temp\ccpaGqeF.s:2254   .text.dm_msg_thing_event_property_post_reply:0000000000000048 .LVL273
C:\Users\stapi\AppData\Local\Temp\ccpaGqeF.s:2301   .text.dm_msg_thing_event_property_post_reply:000000000000008a .LVL280
C:\Users\stapi\AppData\Local\Temp\ccpaGqeF.s:2296   .text.dm_msg_thing_event_property_post_reply:0000000000000086 .LVL279
C:\Users\stapi\AppData\Local\Temp\ccpaGqeF.s:2217   .text.dm_msg_thing_event_property_post_reply:0000000000000020 .LVL268
C:\Users\stapi\AppData\Local\Temp\ccpaGqeF.s:2310   .text.dm_msg_thing_event_property_post_reply:000000000000009a .LVL282
C:\Users\stapi\AppData\Local\Temp\ccpaGqeF.s:2292   .text.dm_msg_thing_event_property_post_reply:0000000000000082 .LVL278
C:\Users\stapi\AppData\Local\Temp\ccpaGqeF.s:1949   .text.dm_msg_thing_service_request:0000000000000000 .LVL236
C:\Users\stapi\AppData\Local\Temp\ccpaGqeF.s:2017   .text.dm_msg_thing_service_request:000000000000005e .LVL242
C:\Users\stapi\AppData\Local\Temp\ccpaGqeF.s:2025   .text.dm_msg_thing_service_request:0000000000000062 .LVL243
C:\Users\stapi\AppData\Local\Temp\ccpaGqeF.s:2044   .text.dm_msg_thing_service_request:0000000000000080 .LVL246
C:\Users\stapi\AppData\Local\Temp\ccpaGqeF.s:2069   .text.dm_msg_thing_service_request:00000000000000ac .LVL250
C:\Users\stapi\AppData\Local\Temp\ccpaGqeF.s:2102   .text.dm_msg_thing_service_request:00000000000000d6 .LVL256
C:\Users\stapi\AppData\Local\Temp\ccpaGqeF.s:2118   .text.dm_msg_thing_service_request:00000000000000e2 .LVL257
C:\Users\stapi\AppData\Local\Temp\ccpaGqeF.s:1975   .text.dm_msg_thing_service_request:0000000000000012 .LVL239
C:\Users\stapi\AppData\Local\Temp\ccpaGqeF.s:1960   .text.dm_msg_thing_service_request:0000000000000008 .LVL237
C:\Users\stapi\AppData\Local\Temp\ccpaGqeF.s:2156   .text.dm_msg_thing_service_request:000000000000012e .LVL262
C:\Users\stapi\AppData\Local\Temp\ccpaGqeF.s:2162   .text.dm_msg_thing_service_request:0000000000000132 .LVL263
C:\Users\stapi\AppData\Local\Temp\ccpaGqeF.s:1968   .text.dm_msg_thing_service_request:000000000000000e .LVL238
C:\Users\stapi\AppData\Local\Temp\ccpaGqeF.s:2080   .text.dm_msg_thing_service_request:00000000000000ba .LVL251
C:\Users\stapi\AppData\Local\Temp\ccpaGqeF.s:2088   .text.dm_msg_thing_service_request:00000000000000c8 .LVL253
C:\Users\stapi\AppData\Local\Temp\ccpaGqeF.s:2094   .text.dm_msg_thing_service_request:00000000000000cc .LVL254
C:\Users\stapi\AppData\Local\Temp\ccpaGqeF.s:1792   .text.dm_msg_property_get:0000000000000000 .LVL213
C:\Users\stapi\AppData\Local\Temp\ccpaGqeF.s:1821   .text.dm_msg_property_get:0000000000000016 .LVL218
C:\Users\stapi\AppData\Local\Temp\ccpaGqeF.s:1817   .text.dm_msg_property_get:0000000000000012 .LVL216
C:\Users\stapi\AppData\Local\Temp\ccpaGqeF.s:1819   .text.dm_msg_property_get:0000000000000014 .LVL217
C:\Users\stapi\AppData\Local\Temp\ccpaGqeF.s:1802   .text.dm_msg_property_get:0000000000000008 .LVL214
C:\Users\stapi\AppData\Local\Temp\ccpaGqeF.s:1917   .text.dm_msg_property_get:00000000000000c6 .LVL233
C:\Users\stapi\AppData\Local\Temp\ccpaGqeF.s:1856   .text.dm_msg_property_get:000000000000005a .LVL223
C:\Users\stapi\AppData\Local\Temp\ccpaGqeF.s:1880   .text.dm_msg_property_get:0000000000000078 .LVL228
C:\Users\stapi\AppData\Local\Temp\ccpaGqeF.s:1925   .text.dm_msg_property_get:00000000000000d0 .LVL235
C:\Users\stapi\AppData\Local\Temp\ccpaGqeF.s:1813   .text.dm_msg_property_get:0000000000000010 .LVL215
C:\Users\stapi\AppData\Local\Temp\ccpaGqeF.s:1864   .text.dm_msg_property_get:0000000000000068 .LVL225
C:\Users\stapi\AppData\Local\Temp\ccpaGqeF.s:1870   .text.dm_msg_property_get:000000000000006c .LVL226
C:\Users\stapi\AppData\Local\Temp\ccpaGqeF.s:1695   .text.dm_msg_property_set:0000000000000000 .LVL199
C:\Users\stapi\AppData\Local\Temp\ccpaGqeF.s:1721   .text.dm_msg_property_set:0000000000000018 .LVL203
C:\Users\stapi\AppData\Local\Temp\ccpaGqeF.s:1719   .text.dm_msg_property_set:0000000000000016 .LVL202
C:\Users\stapi\AppData\Local\Temp\ccpaGqeF.s:1704   .text.dm_msg_property_set:0000000000000008 .LVL200
C:\Users\stapi\AppData\Local\Temp\ccpaGqeF.s:1755   .text.dm_msg_property_set:000000000000005e .LVL208
C:\Users\stapi\AppData\Local\Temp\ccpaGqeF.s:1774   .text.dm_msg_property_set:0000000000000070 .LVL211
C:\Users\stapi\AppData\Local\Temp\ccpaGqeF.s:1714   .text.dm_msg_property_set:0000000000000012 .LVL201
C:\Users\stapi\AppData\Local\Temp\ccpaGqeF.s:1763   .text.dm_msg_property_set:0000000000000068 .LVL210
C:\Users\stapi\AppData\Local\Temp\ccpaGqeF.s:1779   .text.dm_msg_property_set:0000000000000072 .LVL212
C:\Users\stapi\AppData\Local\Temp\ccpaGqeF.s:1504   .text.dm_msg_thing_model_up_raw_reply:0000000000000000 .LVL172
C:\Users\stapi\AppData\Local\Temp\ccpaGqeF.s:1621   .text.dm_msg_thing_model_up_raw_reply:0000000000000098 .LVL189
C:\Users\stapi\AppData\Local\Temp\ccpaGqeF.s:1635   .text.dm_msg_thing_model_up_raw_reply:00000000000000a4 .LVL190
C:\Users\stapi\AppData\Local\Temp\ccpaGqeF.s:1570   .text.dm_msg_thing_model_up_raw_reply:0000000000000058 .LVL179
C:\Users\stapi\AppData\Local\Temp\ccpaGqeF.s:1578   .text.dm_msg_thing_model_up_raw_reply:000000000000005c .LVL180
C:\Users\stapi\AppData\Local\Temp\ccpaGqeF.s:1608   .text.dm_msg_thing_model_up_raw_reply:000000000000008a .LVL187
C:\Users\stapi\AppData\Local\Temp\ccpaGqeF.s:1599   .text.dm_msg_thing_model_up_raw_reply:000000000000007a .LVL185
C:\Users\stapi\AppData\Local\Temp\ccpaGqeF.s:1513   .text.dm_msg_thing_model_up_raw_reply:0000000000000008 .LVL173
C:\Users\stapi\AppData\Local\Temp\ccpaGqeF.s:1585   .text.dm_msg_thing_model_up_raw_reply:0000000000000062 .LVL181
C:\Users\stapi\AppData\Local\Temp\ccpaGqeF.s:1594   .text.dm_msg_thing_model_up_raw_reply:000000000000006e .LVL183
C:\Users\stapi\AppData\Local\Temp\ccpaGqeF.s:1674   .text.dm_msg_thing_model_up_raw_reply:00000000000000f4 .LVL196
C:\Users\stapi\AppData\Local\Temp\ccpaGqeF.s:1680   .text.dm_msg_thing_model_up_raw_reply:00000000000000f8 .LVL197
C:\Users\stapi\AppData\Local\Temp\ccpaGqeF.s:1519   .text.dm_msg_thing_model_up_raw_reply:000000000000000c .LVL174
C:\Users\stapi\AppData\Local\Temp\ccpaGqeF.s:1523   .text.dm_msg_thing_model_up_raw_reply:000000000000000e .LVL175
C:\Users\stapi\AppData\Local\Temp\ccpaGqeF.s:1313   .text.dm_msg_thing_model_down_raw:0000000000000000 .LVL145
C:\Users\stapi\AppData\Local\Temp\ccpaGqeF.s:1430   .text.dm_msg_thing_model_down_raw:0000000000000098 .LVL162
C:\Users\stapi\AppData\Local\Temp\ccpaGqeF.s:1444   .text.dm_msg_thing_model_down_raw:00000000000000a4 .LVL163
C:\Users\stapi\AppData\Local\Temp\ccpaGqeF.s:1379   .text.dm_msg_thing_model_down_raw:0000000000000058 .LVL152
C:\Users\stapi\AppData\Local\Temp\ccpaGqeF.s:1387   .text.dm_msg_thing_model_down_raw:000000000000005c .LVL153
C:\Users\stapi\AppData\Local\Temp\ccpaGqeF.s:1417   .text.dm_msg_thing_model_down_raw:000000000000008a .LVL160
C:\Users\stapi\AppData\Local\Temp\ccpaGqeF.s:1408   .text.dm_msg_thing_model_down_raw:000000000000007a .LVL158
C:\Users\stapi\AppData\Local\Temp\ccpaGqeF.s:1322   .text.dm_msg_thing_model_down_raw:0000000000000008 .LVL146
C:\Users\stapi\AppData\Local\Temp\ccpaGqeF.s:1394   .text.dm_msg_thing_model_down_raw:0000000000000062 .LVL154
C:\Users\stapi\AppData\Local\Temp\ccpaGqeF.s:1403   .text.dm_msg_thing_model_down_raw:000000000000006e .LVL156
C:\Users\stapi\AppData\Local\Temp\ccpaGqeF.s:1483   .text.dm_msg_thing_model_down_raw:00000000000000f2 .LVL169
C:\Users\stapi\AppData\Local\Temp\ccpaGqeF.s:1489   .text.dm_msg_thing_model_down_raw:00000000000000f6 .LVL170
C:\Users\stapi\AppData\Local\Temp\ccpaGqeF.s:1328   .text.dm_msg_thing_model_down_raw:000000000000000c .LVL147
C:\Users\stapi\AppData\Local\Temp\ccpaGqeF.s:1332   .text.dm_msg_thing_model_down_raw:000000000000000e .LVL148
C:\Users\stapi\AppData\Local\Temp\ccpaGqeF.s:1061   .text.dm_msg_response:0000000000000000 .LVL108
C:\Users\stapi\AppData\Local\Temp\ccpaGqeF.s:1104   .text.dm_msg_response:0000000000000028 .LVL111
C:\Users\stapi\AppData\Local\Temp\ccpaGqeF.s:1167   .text.dm_msg_response:0000000000000072 .LVL123
C:\Users\stapi\AppData\Local\Temp\ccpaGqeF.s:1263   .text.dm_msg_response:000000000000013a .LVL139
C:\Users\stapi\AppData\Local\Temp\ccpaGqeF.s:1106   .text.dm_msg_response:000000000000002c .LVL112
C:\Users\stapi\AppData\Local\Temp\ccpaGqeF.s:1112   .text.dm_msg_response:0000000000000034 .LVL115
C:\Users\stapi\AppData\Local\Temp\ccpaGqeF.s:1108   .text.dm_msg_response:0000000000000030 .LVL113
C:\Users\stapi\AppData\Local\Temp\ccpaGqeF.s:1110   .text.dm_msg_response:0000000000000032 .LVL114
C:\Users\stapi\AppData\Local\Temp\ccpaGqeF.s:1074   .text.dm_msg_response:0000000000000008 .LVL109
C:\Users\stapi\AppData\Local\Temp\ccpaGqeF.s:1116   .text.dm_msg_response:000000000000003e .LVL117
C:\Users\stapi\AppData\Local\Temp\ccpaGqeF.s:1143   .text.dm_msg_response:000000000000005e .LVL121
C:\Users\stapi\AppData\Local\Temp\ccpaGqeF.s:1209   .text.dm_msg_response:00000000000000d0 .LVL129
C:\Users\stapi\AppData\Local\Temp\ccpaGqeF.s:1244   .text.dm_msg_response:0000000000000112 .LVL135
C:\Users\stapi\AppData\Local\Temp\ccpaGqeF.s:1249   .text.dm_msg_response:0000000000000116 .LVL136
C:\Users\stapi\AppData\Local\Temp\ccpaGqeF.s:1128   .text.dm_msg_response:000000000000004c .LVL118
C:\Users\stapi\AppData\Local\Temp\ccpaGqeF.s:1203   .text.dm_msg_response:00000000000000c8 .LVL128
C:\Users\stapi\AppData\Local\Temp\ccpaGqeF.s:1081   .text.dm_msg_response:000000000000000c .LVL110
C:\Users\stapi\AppData\Local\Temp\ccpaGqeF.s:1135   .text.dm_msg_response:0000000000000058 .LVL120
C:\Users\stapi\AppData\Local\Temp\ccpaGqeF.s:795    .text.dm_msg_request:0000000000000000 .LVL73
C:\Users\stapi\AppData\Local\Temp\ccpaGqeF.s:837    .text.dm_msg_request:000000000000002a .LVL76
C:\Users\stapi\AppData\Local\Temp\ccpaGqeF.s:896    .text.dm_msg_request:0000000000000076 .LVL86
C:\Users\stapi\AppData\Local\Temp\ccpaGqeF.s:835    .text.dm_msg_request:0000000000000028 .LVL75
C:\Users\stapi\AppData\Local\Temp\ccpaGqeF.s:805    .text.dm_msg_request:0000000000000008 .LVL74
C:\Users\stapi\AppData\Local\Temp\ccpaGqeF.s:842    .text.dm_msg_request:0000000000000036 .LVL78
C:\Users\stapi\AppData\Local\Temp\ccpaGqeF.s:849    .text.dm_msg_request:000000000000003a .LVL79
C:\Users\stapi\AppData\Local\Temp\ccpaGqeF.s:875    .text.dm_msg_request:0000000000000062 .LVL84
C:\Users\stapi\AppData\Local\Temp\ccpaGqeF.s:949    .text.dm_msg_request:00000000000000e6 .LVL92
C:\Users\stapi\AppData\Local\Temp\ccpaGqeF.s:984    .text.dm_msg_request:0000000000000128 .LVL98
C:\Users\stapi\AppData\Local\Temp\ccpaGqeF.s:990    .text.dm_msg_request:0000000000000132 .LVL99
C:\Users\stapi\AppData\Local\Temp\ccpaGqeF.s:995    .text.dm_msg_request:0000000000000136 .LVL100
C:\Users\stapi\AppData\Local\Temp\ccpaGqeF.s:859    .text.dm_msg_request:000000000000004e .LVL81
C:\Users\stapi\AppData\Local\Temp\ccpaGqeF.s:943    .text.dm_msg_request:00000000000000de .LVL91
C:\Users\stapi\AppData\Local\Temp\ccpaGqeF.s:867    .text.dm_msg_request:000000000000005c .LVL83
C:\Users\stapi\AppData\Local\Temp\ccpaGqeF.s:628    .text.dm_msg_response_parse:0000000000000000 .LVL60
C:\Users\stapi\AppData\Local\Temp\ccpaGqeF.s:656    .text.dm_msg_response_parse:000000000000001e .LVL61
C:\Users\stapi\AppData\Local\Temp\ccpaGqeF.s:664    .text.dm_msg_response_parse:000000000000002a .LVL63
C:\Users\stapi\AppData\Local\Temp\ccpaGqeF.s:678    .text.dm_msg_response_parse:0000000000000036 .LVL64
C:\Users\stapi\AppData\Local\Temp\ccpaGqeF.s:425    .text.dm_msg_request_parse:0000000000000000 .LVL42
C:\Users\stapi\AppData\Local\Temp\ccpaGqeF.s:485    .text.dm_msg_request_parse:0000000000000064 .LVL48
C:\Users\stapi\AppData\Local\Temp\ccpaGqeF.s:499    .text.dm_msg_request_parse:0000000000000070 .LVL49
C:\Users\stapi\AppData\Local\Temp\ccpaGqeF.s:553    .text.dm_msg_request_parse:00000000000000ee .LVL55
C:\Users\stapi\AppData\Local\Temp\ccpaGqeF.s:551    .text.dm_msg_request_parse:00000000000000ea .LVL54
C:\Users\stapi\AppData\Local\Temp\ccpaGqeF.s:453    .text.dm_msg_request_parse:0000000000000020 .LVL43
C:\Users\stapi\AppData\Local\Temp\ccpaGqeF.s:224    .text.dm_msg_uri_parse_pkdn:0000000000000000 .LVL26
C:\Users\stapi\AppData\Local\Temp\ccpaGqeF.s:265    .text.dm_msg_uri_parse_pkdn:0000000000000028 .LVL28
C:\Users\stapi\AppData\Local\Temp\ccpaGqeF.s:295    .text.dm_msg_uri_parse_pkdn:0000000000000064 .LVL32
C:\Users\stapi\AppData\Local\Temp\ccpaGqeF.s:312    .text.dm_msg_uri_parse_pkdn:0000000000000070 .LVL33
C:\Users\stapi\AppData\Local\Temp\ccpaGqeF.s:346    .text.dm_msg_uri_parse_pkdn:00000000000000a2 .LVL39
C:\Users\stapi\AppData\Local\Temp\ccpaGqeF.s:236    .text.dm_msg_uri_parse_pkdn:0000000000000008 .LVL27
C:\Users\stapi\AppData\Local\Temp\ccpaGqeF.s:322    .text.dm_msg_uri_parse_pkdn:000000000000007e .LVL34
C:\Users\stapi\AppData\Local\Temp\ccpaGqeF.s:335    .text.dm_msg_uri_parse_pkdn:0000000000000094 .LVL36
C:\Users\stapi\AppData\Local\Temp\ccpaGqeF.s:339    .text.dm_msg_uri_parse_pkdn:000000000000009e .LVL38
C:\Users\stapi\AppData\Local\Temp\ccpaGqeF.s:129    .text.dm_msg_send_msg_timeout_to_user:0000000000000000 .LVL12
C:\Users\stapi\AppData\Local\Temp\ccpaGqeF.s:152    .text.dm_msg_send_msg_timeout_to_user:0000000000000016 .LVL16
C:\Users\stapi\AppData\Local\Temp\ccpaGqeF.s:148    .text.dm_msg_send_msg_timeout_to_user:0000000000000010 .LVL14
C:\Users\stapi\AppData\Local\Temp\ccpaGqeF.s:150    .text.dm_msg_send_msg_timeout_to_user:0000000000000014 .LVL15
C:\Users\stapi\AppData\Local\Temp\ccpaGqeF.s:138    .text.dm_msg_send_msg_timeout_to_user:0000000000000008 .LVL13
C:\Users\stapi\AppData\Local\Temp\ccpaGqeF.s:187    .text.dm_msg_send_msg_timeout_to_user:0000000000000060 .LVL21
C:\Users\stapi\AppData\Local\Temp\ccpaGqeF.s:206    .text.dm_msg_send_msg_timeout_to_user:0000000000000072 .LVL24
C:\Users\stapi\AppData\Local\Temp\ccpaGqeF.s:195    .text.dm_msg_send_msg_timeout_to_user:000000000000006a .LVL23
C:\Users\stapi\AppData\Local\Temp\ccpaGqeF.s:211    .text.dm_msg_send_msg_timeout_to_user:0000000000000074 .LVL25
C:\Users\stapi\AppData\Local\Temp\ccpaGqeF.s:50     .text._dm_msg_send_to_user:0000000000000000 .LVL1
C:\Users\stapi\AppData\Local\Temp\ccpaGqeF.s:70     .text._dm_msg_send_to_user:0000000000000012 .LVL4
C:\Users\stapi\AppData\Local\Temp\ccpaGqeF.s:68     .text._dm_msg_send_to_user:0000000000000010 .LVL3
C:\Users\stapi\AppData\Local\Temp\ccpaGqeF.s:59     .text._dm_msg_send_to_user:0000000000000008 .LVL2
C:\Users\stapi\AppData\Local\Temp\ccpaGqeF.s:93     .text._dm_msg_send_to_user:0000000000000030 .LVL7
C:\Users\stapi\AppData\Local\Temp\ccpaGqeF.s:111    .text._dm_msg_send_to_user:0000000000000042 .LVL10
C:\Users\stapi\AppData\Local\Temp\ccpaGqeF.s:101    .text._dm_msg_send_to_user:000000000000003a .LVL9
C:\Users\stapi\AppData\Local\Temp\ccpaGqeF.s:116    .text._dm_msg_send_to_user:0000000000000044 .LVL11
C:\Users\stapi\AppData\Local\Temp\ccpaGqeF.s:3789   .debug_info:0000000000000000 .Ldebug_info0

UNDEFINED SYMBOLS
__riscv_save_3
LITE_malloc_internal
dm_ipc_msg_insert
LITE_free_internal
__riscv_restore_3
__riscv_save_4
memset
HAL_Snprintf
__riscv_restore_4
__riscv_save_7
strlen
dm_utils_memtok
__riscv_restore_7
memcpy
dm_utils_json_parse
HAL_Printf
dm_utils_json_object_item
LITE_syslog
__riscv_save_5
dm_utils_service_name
__riscv_restore_5
dm_client_thing_event_notify_reply
lite_cjson_parse
dm_client_publish
__riscv_save_8
__riscv_restore_8
dm_mgr_search_device_by_pkdn
dm_utils_hex_to_str
LITE_hexbuf_convert
__riscv_save_6
__riscv_restore_6
atoi
dm_msg_cache_search
memcmp
__riscv_save_2
__riscv_restore_2
atoll
HAL_UTC_Set
strncpy
__riscv_save_0
HAL_GetProductKey
HAL_GetDeviceName
__riscv_restore_0
