   1              		.file	"dm_ota.c"
   2              		.option nopic
   3              		.attribute arch, "rv32i2p0_m2p0_a2p0_f2p0_c2p0_b_p0p94"
   4              		.attribute unaligned_access, 0
   5              		.attribute stack_align, 16
   6              		.text
   7              	.Ltext0:
   8              		.cfi_sections	.debug_frame
   9              		.section	.text.dm_ota_download,"ax",@progbits
  10              		.align	1
  11              		.globl	dm_ota_download
  13              	dm_ota_download:
  14              	.LFB21:
  15              		.file 1 "C:/Users/stapi/OneDrive/Desktop/GD32VW553/V1_MQTT_OK/GD32VW55X_Wifi_BLE_SDK/GD32VW55x_REL
   1:C:/Users/stapi/OneDrive/Desktop/GD32VW553/V1_MQTT_OK/GD32VW55X_Wifi_BLE_SDK/GD32VW55x_RELEASE_V1.0.2/MSDK/cloud/alicloud/src/services/linkkit/dm\dm_ota.c **** /*
   2:C:/Users/stapi/OneDrive/Desktop/GD32VW553/V1_MQTT_OK/GD32VW55X_Wifi_BLE_SDK/GD32VW55x_RELEASE_V1.0.2/MSDK/cloud/alicloud/src/services/linkkit/dm\dm_ota.c ****  * Copyright (C) 2015-2018 Alibaba Group Holding Limited
   3:C:/Users/stapi/OneDrive/Desktop/GD32VW553/V1_MQTT_OK/GD32VW55X_Wifi_BLE_SDK/GD32VW55x_RELEASE_V1.0.2/MSDK/cloud/alicloud/src/services/linkkit/dm\dm_ota.c ****  */
   4:C:/Users/stapi/OneDrive/Desktop/GD32VW553/V1_MQTT_OK/GD32VW55X_Wifi_BLE_SDK/GD32VW55x_RELEASE_V1.0.2/MSDK/cloud/alicloud/src/services/linkkit/dm\dm_ota.c **** #if defined(OTA_ENABLED) && !defined(BUILD_AOS)
   5:C:/Users/stapi/OneDrive/Desktop/GD32VW553/V1_MQTT_OK/GD32VW55X_Wifi_BLE_SDK/GD32VW55x_RELEASE_V1.0.2/MSDK/cloud/alicloud/src/services/linkkit/dm\dm_ota.c **** #include "iotx_dm_internal.h"
   6:C:/Users/stapi/OneDrive/Desktop/GD32VW553/V1_MQTT_OK/GD32VW55X_Wifi_BLE_SDK/GD32VW55x_RELEASE_V1.0.2/MSDK/cloud/alicloud/src/services/linkkit/dm\dm_ota.c **** 
   7:C:/Users/stapi/OneDrive/Desktop/GD32VW553/V1_MQTT_OK/GD32VW55X_Wifi_BLE_SDK/GD32VW55x_RELEASE_V1.0.2/MSDK/cloud/alicloud/src/services/linkkit/dm\dm_ota.c **** static dm_ota_ctx_t g_dm_ota_ctx;
   8:C:/Users/stapi/OneDrive/Desktop/GD32VW553/V1_MQTT_OK/GD32VW55X_Wifi_BLE_SDK/GD32VW55x_RELEASE_V1.0.2/MSDK/cloud/alicloud/src/services/linkkit/dm\dm_ota.c **** 
   9:C:/Users/stapi/OneDrive/Desktop/GD32VW553/V1_MQTT_OK/GD32VW55X_Wifi_BLE_SDK/GD32VW55x_RELEASE_V1.0.2/MSDK/cloud/alicloud/src/services/linkkit/dm\dm_ota.c **** static dm_ota_ctx_t *_dm_ota_get_ctx(void)
  10:C:/Users/stapi/OneDrive/Desktop/GD32VW553/V1_MQTT_OK/GD32VW55X_Wifi_BLE_SDK/GD32VW55x_RELEASE_V1.0.2/MSDK/cloud/alicloud/src/services/linkkit/dm\dm_ota.c **** {
  11:C:/Users/stapi/OneDrive/Desktop/GD32VW553/V1_MQTT_OK/GD32VW55X_Wifi_BLE_SDK/GD32VW55x_RELEASE_V1.0.2/MSDK/cloud/alicloud/src/services/linkkit/dm\dm_ota.c ****     return &g_dm_ota_ctx;
  12:C:/Users/stapi/OneDrive/Desktop/GD32VW553/V1_MQTT_OK/GD32VW55X_Wifi_BLE_SDK/GD32VW55x_RELEASE_V1.0.2/MSDK/cloud/alicloud/src/services/linkkit/dm\dm_ota.c **** }
  13:C:/Users/stapi/OneDrive/Desktop/GD32VW553/V1_MQTT_OK/GD32VW55X_Wifi_BLE_SDK/GD32VW55x_RELEASE_V1.0.2/MSDK/cloud/alicloud/src/services/linkkit/dm\dm_ota.c **** 
  14:C:/Users/stapi/OneDrive/Desktop/GD32VW553/V1_MQTT_OK/GD32VW55X_Wifi_BLE_SDK/GD32VW55x_RELEASE_V1.0.2/MSDK/cloud/alicloud/src/services/linkkit/dm\dm_ota.c **** int dm_ota_download(char *payload, unsigned int payload_len)
  15:C:/Users/stapi/OneDrive/Desktop/GD32VW553/V1_MQTT_OK/GD32VW55X_Wifi_BLE_SDK/GD32VW55x_RELEASE_V1.0.2/MSDK/cloud/alicloud/src/services/linkkit/dm\dm_ota.c **** {
  16              		.loc 1 15 1
  17              		.cfi_startproc
  18              	.LVL0:
  16:C:/Users/stapi/OneDrive/Desktop/GD32VW553/V1_MQTT_OK/GD32VW55X_Wifi_BLE_SDK/GD32VW55x_RELEASE_V1.0.2/MSDK/cloud/alicloud/src/services/linkkit/dm\dm_ota.c ****     if (g_dm_ota_ctx.ota_handle)
  19              		.loc 1 16 5
  20              		.loc 1 16 21 is_stmt 0
  21 0000 37070000 		lui	a4,%hi(.LANCHOR0)
  15:C:/Users/stapi/OneDrive/Desktop/GD32VW553/V1_MQTT_OK/GD32VW55X_Wifi_BLE_SDK/GD32VW55x_RELEASE_V1.0.2/MSDK/cloud/alicloud/src/services/linkkit/dm\dm_ota.c ****     if (g_dm_ota_ctx.ota_handle)
  22              		.loc 1 15 1
  23 0004 AA87     		mv	a5,a0
  24              		.loc 1 16 21
  25 0006 03250700 		lw	a0,%lo(.LANCHOR0)(a4)
  26              	.LVL1:
  27              		.loc 1 16 8
  28 000a 19C5     		beq	a0,zero,.L3
  29 000c 2E86     		mv	a2,a1
  17:C:/Users/stapi/OneDrive/Desktop/GD32VW553/V1_MQTT_OK/GD32VW55X_Wifi_BLE_SDK/GD32VW55x_RELEASE_V1.0.2/MSDK/cloud/alicloud/src/services/linkkit/dm\dm_ota.c ****     {
  18:C:/Users/stapi/OneDrive/Desktop/GD32VW553/V1_MQTT_OK/GD32VW55X_Wifi_BLE_SDK/GD32VW55x_RELEASE_V1.0.2/MSDK/cloud/alicloud/src/services/linkkit/dm\dm_ota.c ****         return iotx_ota_download(g_dm_ota_ctx.ota_handle, (const char*)payload, payload_len);
  30              		.loc 1 18 9 is_stmt 1
  31              		.loc 1 18 16 is_stmt 0
  32 000e BE85     		mv	a1,a5
  33              	.LVL2:
  34 0010 17030000 		tail	iotx_ota_download
  34      67000300 
  35              	.LVL3:
  36              	.L3:
  19:C:/Users/stapi/OneDrive/Desktop/GD32VW553/V1_MQTT_OK/GD32VW55X_Wifi_BLE_SDK/GD32VW55x_RELEASE_V1.0.2/MSDK/cloud/alicloud/src/services/linkkit/dm\dm_ota.c ****     }
  20:C:/Users/stapi/OneDrive/Desktop/GD32VW553/V1_MQTT_OK/GD32VW55X_Wifi_BLE_SDK/GD32VW55x_RELEASE_V1.0.2/MSDK/cloud/alicloud/src/services/linkkit/dm\dm_ota.c **** 
  21:C:/Users/stapi/OneDrive/Desktop/GD32VW553/V1_MQTT_OK/GD32VW55X_Wifi_BLE_SDK/GD32VW55x_RELEASE_V1.0.2/MSDK/cloud/alicloud/src/services/linkkit/dm\dm_ota.c ****     return -1;
  37              		.loc 1 21 12
  38 0018 7D55     		li	a0,-1
  22:C:/Users/stapi/OneDrive/Desktop/GD32VW553/V1_MQTT_OK/GD32VW55X_Wifi_BLE_SDK/GD32VW55x_RELEASE_V1.0.2/MSDK/cloud/alicloud/src/services/linkkit/dm\dm_ota.c **** }
  39              		.loc 1 22 1
  40 001a 8280     		ret
  41              		.cfi_endproc
  42              	.LFE21:
  44              		.section	.text.dm_ota_init,"ax",@progbits
  45              		.align	1
  46              		.globl	dm_ota_init
  48              	dm_ota_init:
  49              	.LFB22:
  23:C:/Users/stapi/OneDrive/Desktop/GD32VW553/V1_MQTT_OK/GD32VW55X_Wifi_BLE_SDK/GD32VW55x_RELEASE_V1.0.2/MSDK/cloud/alicloud/src/services/linkkit/dm\dm_ota.c **** 
  24:C:/Users/stapi/OneDrive/Desktop/GD32VW553/V1_MQTT_OK/GD32VW55X_Wifi_BLE_SDK/GD32VW55x_RELEASE_V1.0.2/MSDK/cloud/alicloud/src/services/linkkit/dm\dm_ota.c **** int dm_ota_init(void)
  25:C:/Users/stapi/OneDrive/Desktop/GD32VW553/V1_MQTT_OK/GD32VW55X_Wifi_BLE_SDK/GD32VW55x_RELEASE_V1.0.2/MSDK/cloud/alicloud/src/services/linkkit/dm\dm_ota.c **** {
  50              		.loc 1 25 1 is_stmt 1
  51              		.cfi_startproc
  52 0000 17030000 		call	t0,__riscv_save_1
  52      E7020300 
  53              		.cfi_offset 8, -8
  54              		.cfi_offset 1, -4
  55              		.cfi_def_cfa_offset 16
  26:C:/Users/stapi/OneDrive/Desktop/GD32VW553/V1_MQTT_OK/GD32VW55X_Wifi_BLE_SDK/GD32VW55x_RELEASE_V1.0.2/MSDK/cloud/alicloud/src/services/linkkit/dm\dm_ota.c ****     dm_ota_ctx_t *ctx = _dm_ota_get_ctx();
  56              		.loc 1 26 5
  11:C:/Users/stapi/OneDrive/Desktop/GD32VW553/V1_MQTT_OK/GD32VW55X_Wifi_BLE_SDK/GD32VW55x_RELEASE_V1.0.2/MSDK/cloud/alicloud/src/services/linkkit/dm\dm_ota.c **** }
  57              		.loc 1 11 5
  58              	.LVL4:
  27:C:/Users/stapi/OneDrive/Desktop/GD32VW553/V1_MQTT_OK/GD32VW55X_Wifi_BLE_SDK/GD32VW55x_RELEASE_V1.0.2/MSDK/cloud/alicloud/src/services/linkkit/dm\dm_ota.c ****     memset(ctx, 0, sizeof(dm_ota_ctx_t));
  59              		.loc 1 27 5
  60 0008 37050000 		lui	a0,%hi(.LANCHOR0)
  61 000c 13040500 		addi	s0,a0,%lo(.LANCHOR0)
  62 0010 1306C003 		li	a2,60
  63 0014 8145     		li	a1,0
  64 0016 13050500 		addi	a0,a0,%lo(.LANCHOR0)
  65 001a 97000000 		call	memset
  65      E7800000 
  66              	.LVL5:
  28:C:/Users/stapi/OneDrive/Desktop/GD32VW553/V1_MQTT_OK/GD32VW55X_Wifi_BLE_SDK/GD32VW55x_RELEASE_V1.0.2/MSDK/cloud/alicloud/src/services/linkkit/dm\dm_ota.c **** 
  29:C:/Users/stapi/OneDrive/Desktop/GD32VW553/V1_MQTT_OK/GD32VW55X_Wifi_BLE_SDK/GD32VW55x_RELEASE_V1.0.2/MSDK/cloud/alicloud/src/services/linkkit/dm\dm_ota.c ****     HAL_GetProductKey(ctx->product_key);
  67              		.loc 1 29 5
  68 0022 13054400 		addi	a0,s0,4
  69 0026 97000000 		call	HAL_GetProductKey
  69      E7800000 
  70              	.LVL6:
  30:C:/Users/stapi/OneDrive/Desktop/GD32VW553/V1_MQTT_OK/GD32VW55X_Wifi_BLE_SDK/GD32VW55x_RELEASE_V1.0.2/MSDK/cloud/alicloud/src/services/linkkit/dm\dm_ota.c ****     HAL_GetDeviceName(ctx->device_name);
  71              		.loc 1 30 5
  72 002e 13059401 		addi	a0,s0,25
  73 0032 97000000 		call	HAL_GetDeviceName
  73      E7800000 
  74              	.LVL7:
  31:C:/Users/stapi/OneDrive/Desktop/GD32VW553/V1_MQTT_OK/GD32VW55X_Wifi_BLE_SDK/GD32VW55x_RELEASE_V1.0.2/MSDK/cloud/alicloud/src/services/linkkit/dm\dm_ota.c **** 
  32:C:/Users/stapi/OneDrive/Desktop/GD32VW553/V1_MQTT_OK/GD32VW55X_Wifi_BLE_SDK/GD32VW55x_RELEASE_V1.0.2/MSDK/cloud/alicloud/src/services/linkkit/dm\dm_ota.c ****     return SUCCESS_RETURN;
  75              		.loc 1 32 5
  33:C:/Users/stapi/OneDrive/Desktop/GD32VW553/V1_MQTT_OK/GD32VW55X_Wifi_BLE_SDK/GD32VW55x_RELEASE_V1.0.2/MSDK/cloud/alicloud/src/services/linkkit/dm\dm_ota.c **** }
  76              		.loc 1 33 1 is_stmt 0
  77 003a 0145     		li	a0,0
  78 003c 17030000 		tail	__riscv_restore_1
  78      67000300 
  79              		.cfi_restore 8
  80              		.cfi_restore 1
  81              		.cfi_def_cfa_offset 0
  82              		.cfi_endproc
  83              	.LFE22:
  85              		.section	.text.dm_ota_sub,"ax",@progbits
  86              		.align	1
  87              		.globl	dm_ota_sub
  89              	dm_ota_sub:
  90              	.LFB23:
  34:C:/Users/stapi/OneDrive/Desktop/GD32VW553/V1_MQTT_OK/GD32VW55X_Wifi_BLE_SDK/GD32VW55x_RELEASE_V1.0.2/MSDK/cloud/alicloud/src/services/linkkit/dm\dm_ota.c **** 
  35:C:/Users/stapi/OneDrive/Desktop/GD32VW553/V1_MQTT_OK/GD32VW55X_Wifi_BLE_SDK/GD32VW55x_RELEASE_V1.0.2/MSDK/cloud/alicloud/src/services/linkkit/dm\dm_ota.c **** int dm_ota_sub(void)
  36:C:/Users/stapi/OneDrive/Desktop/GD32VW553/V1_MQTT_OK/GD32VW55X_Wifi_BLE_SDK/GD32VW55x_RELEASE_V1.0.2/MSDK/cloud/alicloud/src/services/linkkit/dm\dm_ota.c **** {
  91              		.loc 1 36 1 is_stmt 1
  92              		.cfi_startproc
  93 0000 17030000 		call	t0,__riscv_save_1
  93      E7020300 
  94              		.cfi_offset 8, -8
  95              		.cfi_offset 1, -4
  96              		.cfi_def_cfa_offset 16
  37:C:/Users/stapi/OneDrive/Desktop/GD32VW553/V1_MQTT_OK/GD32VW55X_Wifi_BLE_SDK/GD32VW55x_RELEASE_V1.0.2/MSDK/cloud/alicloud/src/services/linkkit/dm\dm_ota.c ****     dm_ota_ctx_t *ctx = _dm_ota_get_ctx();
  97              		.loc 1 37 5
  11:C:/Users/stapi/OneDrive/Desktop/GD32VW553/V1_MQTT_OK/GD32VW55X_Wifi_BLE_SDK/GD32VW55x_RELEASE_V1.0.2/MSDK/cloud/alicloud/src/services/linkkit/dm\dm_ota.c **** }
  98              		.loc 1 11 5
  99              	.LVL8:
  38:C:/Users/stapi/OneDrive/Desktop/GD32VW553/V1_MQTT_OK/GD32VW55X_Wifi_BLE_SDK/GD32VW55x_RELEASE_V1.0.2/MSDK/cloud/alicloud/src/services/linkkit/dm\dm_ota.c ****     void *handle = NULL;
 100              		.loc 1 38 5
  39:C:/Users/stapi/OneDrive/Desktop/GD32VW553/V1_MQTT_OK/GD32VW55X_Wifi_BLE_SDK/GD32VW55x_RELEASE_V1.0.2/MSDK/cloud/alicloud/src/services/linkkit/dm\dm_ota.c **** 
  40:C:/Users/stapi/OneDrive/Desktop/GD32VW553/V1_MQTT_OK/GD32VW55X_Wifi_BLE_SDK/GD32VW55x_RELEASE_V1.0.2/MSDK/cloud/alicloud/src/services/linkkit/dm\dm_ota.c ****     /* Init OTA Handle */
  41:C:/Users/stapi/OneDrive/Desktop/GD32VW553/V1_MQTT_OK/GD32VW55X_Wifi_BLE_SDK/GD32VW55x_RELEASE_V1.0.2/MSDK/cloud/alicloud/src/services/linkkit/dm\dm_ota.c ****     handle = IOT_OTA_Init(ctx->product_key, ctx->device_name, NULL);
 101              		.loc 1 41 5
 102              		.loc 1 41 14 is_stmt 0
 103 0008 37040000 		lui	s0,%hi(.LANCHOR0)
 104 000c 13040400 		addi	s0,s0,%lo(.LANCHOR0)
 105 0010 0146     		li	a2,0
 106 0012 93059401 		addi	a1,s0,25
 107 0016 13054400 		addi	a0,s0,4
 108 001a 97000000 		call	IOT_OTA_Init
 108      E7800000 
 109              	.LVL9:
 110 0022 AA87     		mv	a5,a0
 111              	.LVL10:
  42:C:/Users/stapi/OneDrive/Desktop/GD32VW553/V1_MQTT_OK/GD32VW55X_Wifi_BLE_SDK/GD32VW55x_RELEASE_V1.0.2/MSDK/cloud/alicloud/src/services/linkkit/dm\dm_ota.c ****     if (handle == NULL) {
 112              		.loc 1 42 5 is_stmt 1
 113 0024 7D55     		li	a0,-1
 114              	.LVL11:
 115              		.loc 1 42 8 is_stmt 0
 116 0026 99C3     		beq	a5,zero,.L10
  43:C:/Users/stapi/OneDrive/Desktop/GD32VW553/V1_MQTT_OK/GD32VW55X_Wifi_BLE_SDK/GD32VW55x_RELEASE_V1.0.2/MSDK/cloud/alicloud/src/services/linkkit/dm\dm_ota.c ****         return FAIL_RETURN;
  44:C:/Users/stapi/OneDrive/Desktop/GD32VW553/V1_MQTT_OK/GD32VW55X_Wifi_BLE_SDK/GD32VW55x_RELEASE_V1.0.2/MSDK/cloud/alicloud/src/services/linkkit/dm\dm_ota.c ****     }
  45:C:/Users/stapi/OneDrive/Desktop/GD32VW553/V1_MQTT_OK/GD32VW55X_Wifi_BLE_SDK/GD32VW55x_RELEASE_V1.0.2/MSDK/cloud/alicloud/src/services/linkkit/dm\dm_ota.c **** 
  46:C:/Users/stapi/OneDrive/Desktop/GD32VW553/V1_MQTT_OK/GD32VW55X_Wifi_BLE_SDK/GD32VW55x_RELEASE_V1.0.2/MSDK/cloud/alicloud/src/services/linkkit/dm\dm_ota.c ****     ctx->ota_handle = handle;
 117              		.loc 1 46 5 is_stmt 1
 118              		.loc 1 46 21 is_stmt 0
 119 0028 1CC0     		sw	a5,0(s0)
  47:C:/Users/stapi/OneDrive/Desktop/GD32VW553/V1_MQTT_OK/GD32VW55X_Wifi_BLE_SDK/GD32VW55x_RELEASE_V1.0.2/MSDK/cloud/alicloud/src/services/linkkit/dm\dm_ota.c **** 
  48:C:/Users/stapi/OneDrive/Desktop/GD32VW553/V1_MQTT_OK/GD32VW55X_Wifi_BLE_SDK/GD32VW55x_RELEASE_V1.0.2/MSDK/cloud/alicloud/src/services/linkkit/dm\dm_ota.c ****     return SUCCESS_RETURN;
 120              		.loc 1 48 5 is_stmt 1
 121              		.loc 1 48 12 is_stmt 0
 122 002a 0145     		li	a0,0
 123              	.L10:
  49:C:/Users/stapi/OneDrive/Desktop/GD32VW553/V1_MQTT_OK/GD32VW55X_Wifi_BLE_SDK/GD32VW55x_RELEASE_V1.0.2/MSDK/cloud/alicloud/src/services/linkkit/dm\dm_ota.c **** }
 124              		.loc 1 49 1
 125 002c 17030000 		tail	__riscv_restore_1
 125      67000300 
 126              		.cfi_restore 8
 127              		.cfi_restore 1
 128              		.cfi_def_cfa_offset 0
 129              		.cfi_endproc
 130              	.LFE23:
 132              		.section	.text.dm_ota_deinit,"ax",@progbits
 133              		.align	1
 134              		.globl	dm_ota_deinit
 136              	dm_ota_deinit:
 137              	.LFB24:
  50:C:/Users/stapi/OneDrive/Desktop/GD32VW553/V1_MQTT_OK/GD32VW55X_Wifi_BLE_SDK/GD32VW55x_RELEASE_V1.0.2/MSDK/cloud/alicloud/src/services/linkkit/dm\dm_ota.c **** 
  51:C:/Users/stapi/OneDrive/Desktop/GD32VW553/V1_MQTT_OK/GD32VW55X_Wifi_BLE_SDK/GD32VW55x_RELEASE_V1.0.2/MSDK/cloud/alicloud/src/services/linkkit/dm\dm_ota.c **** int dm_ota_deinit(void)
  52:C:/Users/stapi/OneDrive/Desktop/GD32VW553/V1_MQTT_OK/GD32VW55X_Wifi_BLE_SDK/GD32VW55x_RELEASE_V1.0.2/MSDK/cloud/alicloud/src/services/linkkit/dm\dm_ota.c **** {
 138              		.loc 1 52 1 is_stmt 1
 139              		.cfi_startproc
 140 0000 17030000 		call	t0,__riscv_save_1
 140      E7020300 
 141              		.cfi_offset 8, -8
 142              		.cfi_offset 1, -4
 143              		.cfi_def_cfa_offset 16
  53:C:/Users/stapi/OneDrive/Desktop/GD32VW553/V1_MQTT_OK/GD32VW55X_Wifi_BLE_SDK/GD32VW55x_RELEASE_V1.0.2/MSDK/cloud/alicloud/src/services/linkkit/dm\dm_ota.c ****     dm_ota_ctx_t *ctx = _dm_ota_get_ctx();
 144              		.loc 1 53 5
  11:C:/Users/stapi/OneDrive/Desktop/GD32VW553/V1_MQTT_OK/GD32VW55X_Wifi_BLE_SDK/GD32VW55x_RELEASE_V1.0.2/MSDK/cloud/alicloud/src/services/linkkit/dm\dm_ota.c **** }
 145              		.loc 1 11 5
 146              	.LVL12:
  54:C:/Users/stapi/OneDrive/Desktop/GD32VW553/V1_MQTT_OK/GD32VW55X_Wifi_BLE_SDK/GD32VW55x_RELEASE_V1.0.2/MSDK/cloud/alicloud/src/services/linkkit/dm\dm_ota.c **** 
  55:C:/Users/stapi/OneDrive/Desktop/GD32VW553/V1_MQTT_OK/GD32VW55X_Wifi_BLE_SDK/GD32VW55x_RELEASE_V1.0.2/MSDK/cloud/alicloud/src/services/linkkit/dm\dm_ota.c ****     if (ctx->ota_handle) {
 147              		.loc 1 55 5
 148              		.loc 1 55 12 is_stmt 0
 149 0008 37040000 		lui	s0,%hi(.LANCHOR0)
 150 000c 13040400 		addi	s0,s0,%lo(.LANCHOR0)
 151 0010 0840     		lw	a0,0(s0)
 152              		.loc 1 55 8
 153 0012 19C5     		beq	a0,zero,.L16
  56:C:/Users/stapi/OneDrive/Desktop/GD32VW553/V1_MQTT_OK/GD32VW55X_Wifi_BLE_SDK/GD32VW55x_RELEASE_V1.0.2/MSDK/cloud/alicloud/src/services/linkkit/dm\dm_ota.c ****         IOT_OTA_Deinit(ctx->ota_handle);
 154              		.loc 1 56 9 is_stmt 1
 155 0014 97000000 		call	IOT_OTA_Deinit
 155      E7800000 
 156              	.LVL13:
  57:C:/Users/stapi/OneDrive/Desktop/GD32VW553/V1_MQTT_OK/GD32VW55X_Wifi_BLE_SDK/GD32VW55x_RELEASE_V1.0.2/MSDK/cloud/alicloud/src/services/linkkit/dm\dm_ota.c ****         ctx->ota_handle = NULL;
 157              		.loc 1 57 9
 158              		.loc 1 57 25 is_stmt 0
 159 001c 23200400 		sw	zero,0(s0)
 160              	.L16:
  58:C:/Users/stapi/OneDrive/Desktop/GD32VW553/V1_MQTT_OK/GD32VW55X_Wifi_BLE_SDK/GD32VW55x_RELEASE_V1.0.2/MSDK/cloud/alicloud/src/services/linkkit/dm\dm_ota.c ****     }
  59:C:/Users/stapi/OneDrive/Desktop/GD32VW553/V1_MQTT_OK/GD32VW55X_Wifi_BLE_SDK/GD32VW55x_RELEASE_V1.0.2/MSDK/cloud/alicloud/src/services/linkkit/dm\dm_ota.c **** 
  60:C:/Users/stapi/OneDrive/Desktop/GD32VW553/V1_MQTT_OK/GD32VW55X_Wifi_BLE_SDK/GD32VW55x_RELEASE_V1.0.2/MSDK/cloud/alicloud/src/services/linkkit/dm\dm_ota.c ****     return SUCCESS_RETURN;
 161              		.loc 1 60 5 is_stmt 1
  61:C:/Users/stapi/OneDrive/Desktop/GD32VW553/V1_MQTT_OK/GD32VW55X_Wifi_BLE_SDK/GD32VW55x_RELEASE_V1.0.2/MSDK/cloud/alicloud/src/services/linkkit/dm\dm_ota.c **** }
 162              		.loc 1 61 1 is_stmt 0
 163 0020 0145     		li	a0,0
 164 0022 17030000 		tail	__riscv_restore_1
 164      67000300 
 165              		.cfi_restore 8
 166              		.cfi_restore 1
 167              		.cfi_def_cfa_offset 0
 168              		.cfi_endproc
 169              	.LFE24:
 171              		.section	.text.dm_ota_get_ota_handle,"ax",@progbits
 172              		.align	1
 173              		.globl	dm_ota_get_ota_handle
 175              	dm_ota_get_ota_handle:
 176              	.LFB25:
  62:C:/Users/stapi/OneDrive/Desktop/GD32VW553/V1_MQTT_OK/GD32VW55X_Wifi_BLE_SDK/GD32VW55x_RELEASE_V1.0.2/MSDK/cloud/alicloud/src/services/linkkit/dm\dm_ota.c **** 
  63:C:/Users/stapi/OneDrive/Desktop/GD32VW553/V1_MQTT_OK/GD32VW55X_Wifi_BLE_SDK/GD32VW55x_RELEASE_V1.0.2/MSDK/cloud/alicloud/src/services/linkkit/dm\dm_ota.c **** int dm_ota_get_ota_handle(void **handle)
  64:C:/Users/stapi/OneDrive/Desktop/GD32VW553/V1_MQTT_OK/GD32VW55X_Wifi_BLE_SDK/GD32VW55x_RELEASE_V1.0.2/MSDK/cloud/alicloud/src/services/linkkit/dm\dm_ota.c **** {
 177              		.loc 1 64 1 is_stmt 1
 178              		.cfi_startproc
 179              	.LVL14:
  65:C:/Users/stapi/OneDrive/Desktop/GD32VW553/V1_MQTT_OK/GD32VW55X_Wifi_BLE_SDK/GD32VW55x_RELEASE_V1.0.2/MSDK/cloud/alicloud/src/services/linkkit/dm\dm_ota.c ****     dm_ota_ctx_t *ctx = _dm_ota_get_ctx();
 180              		.loc 1 65 5
  11:C:/Users/stapi/OneDrive/Desktop/GD32VW553/V1_MQTT_OK/GD32VW55X_Wifi_BLE_SDK/GD32VW55x_RELEASE_V1.0.2/MSDK/cloud/alicloud/src/services/linkkit/dm\dm_ota.c **** }
 181              		.loc 1 11 5
  66:C:/Users/stapi/OneDrive/Desktop/GD32VW553/V1_MQTT_OK/GD32VW55X_Wifi_BLE_SDK/GD32VW55x_RELEASE_V1.0.2/MSDK/cloud/alicloud/src/services/linkkit/dm\dm_ota.c **** 
  67:C:/Users/stapi/OneDrive/Desktop/GD32VW553/V1_MQTT_OK/GD32VW55X_Wifi_BLE_SDK/GD32VW55x_RELEASE_V1.0.2/MSDK/cloud/alicloud/src/services/linkkit/dm\dm_ota.c ****     if (handle == NULL || *handle != NULL) {
 182              		.loc 1 67 5
  64:C:/Users/stapi/OneDrive/Desktop/GD32VW553/V1_MQTT_OK/GD32VW55X_Wifi_BLE_SDK/GD32VW55x_RELEASE_V1.0.2/MSDK/cloud/alicloud/src/services/linkkit/dm\dm_ota.c ****     dm_ota_ctx_t *ctx = _dm_ota_get_ctx();
 183              		.loc 1 64 1 is_stmt 0
 184 0000 AA87     		mv	a5,a0
 185              		.loc 1 67 8
 186 0002 01CD     		beq	a0,zero,.L23
 187              		.loc 1 67 24 discriminator 1
 188 0004 1841     		lw	a4,0(a0)
  68:C:/Users/stapi/OneDrive/Desktop/GD32VW553/V1_MQTT_OK/GD32VW55X_Wifi_BLE_SDK/GD32VW55x_RELEASE_V1.0.2/MSDK/cloud/alicloud/src/services/linkkit/dm\dm_ota.c ****         return FAIL_RETURN;
 189              		.loc 1 68 16 discriminator 1
 190 0006 7D55     		li	a0,-1
 191              	.LVL15:
  67:C:/Users/stapi/OneDrive/Desktop/GD32VW553/V1_MQTT_OK/GD32VW55X_Wifi_BLE_SDK/GD32VW55x_RELEASE_V1.0.2/MSDK/cloud/alicloud/src/services/linkkit/dm\dm_ota.c ****         return FAIL_RETURN;
 192              		.loc 1 67 24 discriminator 1
 193 0008 11EB     		bne	a4,zero,.L21
  69:C:/Users/stapi/OneDrive/Desktop/GD32VW553/V1_MQTT_OK/GD32VW55X_Wifi_BLE_SDK/GD32VW55x_RELEASE_V1.0.2/MSDK/cloud/alicloud/src/services/linkkit/dm\dm_ota.c ****     }
  70:C:/Users/stapi/OneDrive/Desktop/GD32VW553/V1_MQTT_OK/GD32VW55X_Wifi_BLE_SDK/GD32VW55x_RELEASE_V1.0.2/MSDK/cloud/alicloud/src/services/linkkit/dm\dm_ota.c **** 
  71:C:/Users/stapi/OneDrive/Desktop/GD32VW553/V1_MQTT_OK/GD32VW55X_Wifi_BLE_SDK/GD32VW55x_RELEASE_V1.0.2/MSDK/cloud/alicloud/src/services/linkkit/dm\dm_ota.c ****     if (ctx->ota_handle == NULL) {
 194              		.loc 1 71 5 is_stmt 1
 195              		.loc 1 71 12 is_stmt 0
 196 000a 37070000 		lui	a4,%hi(.LANCHOR0)
 197 000e 03270700 		lw	a4,%lo(.LANCHOR0)(a4)
 198              		.loc 1 71 8
 199 0012 09C7     		beq	a4,zero,.L21
  72:C:/Users/stapi/OneDrive/Desktop/GD32VW553/V1_MQTT_OK/GD32VW55X_Wifi_BLE_SDK/GD32VW55x_RELEASE_V1.0.2/MSDK/cloud/alicloud/src/services/linkkit/dm\dm_ota.c ****         return FAIL_RETURN;
  73:C:/Users/stapi/OneDrive/Desktop/GD32VW553/V1_MQTT_OK/GD32VW55X_Wifi_BLE_SDK/GD32VW55x_RELEASE_V1.0.2/MSDK/cloud/alicloud/src/services/linkkit/dm\dm_ota.c ****     }
  74:C:/Users/stapi/OneDrive/Desktop/GD32VW553/V1_MQTT_OK/GD32VW55X_Wifi_BLE_SDK/GD32VW55x_RELEASE_V1.0.2/MSDK/cloud/alicloud/src/services/linkkit/dm\dm_ota.c **** 
  75:C:/Users/stapi/OneDrive/Desktop/GD32VW553/V1_MQTT_OK/GD32VW55X_Wifi_BLE_SDK/GD32VW55x_RELEASE_V1.0.2/MSDK/cloud/alicloud/src/services/linkkit/dm\dm_ota.c ****     *handle = ctx->ota_handle;
 200              		.loc 1 75 5 is_stmt 1
 201              		.loc 1 75 13 is_stmt 0
 202 0014 98C3     		sw	a4,0(a5)
  76:C:/Users/stapi/OneDrive/Desktop/GD32VW553/V1_MQTT_OK/GD32VW55X_Wifi_BLE_SDK/GD32VW55x_RELEASE_V1.0.2/MSDK/cloud/alicloud/src/services/linkkit/dm\dm_ota.c **** 
  77:C:/Users/stapi/OneDrive/Desktop/GD32VW553/V1_MQTT_OK/GD32VW55X_Wifi_BLE_SDK/GD32VW55x_RELEASE_V1.0.2/MSDK/cloud/alicloud/src/services/linkkit/dm\dm_ota.c ****     return SUCCESS_RETURN;
 203              		.loc 1 77 5 is_stmt 1
 204              		.loc 1 77 12 is_stmt 0
 205 0016 0145     		li	a0,0
 206 0018 8280     		ret
 207              	.LVL16:
 208              	.L23:
  68:C:/Users/stapi/OneDrive/Desktop/GD32VW553/V1_MQTT_OK/GD32VW55X_Wifi_BLE_SDK/GD32VW55x_RELEASE_V1.0.2/MSDK/cloud/alicloud/src/services/linkkit/dm\dm_ota.c ****     }
 209              		.loc 1 68 16
 210 001a 7D55     		li	a0,-1
 211              	.LVL17:
 212              	.L21:
  78:C:/Users/stapi/OneDrive/Desktop/GD32VW553/V1_MQTT_OK/GD32VW55X_Wifi_BLE_SDK/GD32VW55x_RELEASE_V1.0.2/MSDK/cloud/alicloud/src/services/linkkit/dm\dm_ota.c **** }
 213              		.loc 1 78 1
 214 001c 8280     		ret
 215              		.cfi_endproc
 216              	.LFE25:
 218              		.section	.bss.g_dm_ota_ctx,"aw",@nobits
 219              		.align	2
 220              		.set	.LANCHOR0,. + 0
 223              	g_dm_ota_ctx:
 224 0000 00000000 		.zero	60
 224      00000000 
 224      00000000 
 224      00000000 
 224      00000000 
 225              		.text
 226              	.Letext0:
 227              		.file 2 "C:/Users/stapi/OneDrive/Desktop/GD32VW553/V1_MQTT_OK/GD32VW55X_Wifi_BLE_SDK/GD32VW55x_REL
 228              		.file 3 "..\\..\\..\\..\\cloud\\alicloud\\include/exports/iot_export_ota.h"
 229              		.file 4 "..\\..\\..\\..\\cloud\\alicloud\\include/imports/iot_import_product.h"
 230              		.file 5 "..\\..\\..\\..\\cloud\\alicloud\\src\\services\\ota/iotx_ota.h"
 231              		.file 6 "..\\..\\..\\..\\cloud\\alicloud\\include/exports/iot_export_errno.h"
 232              		.file 7 "<built-in>"
DEFINED SYMBOLS
                            *ABS*:0000000000000000 dm_ota.c
C:\Users\stapi\AppData\Local\Temp\ccvva6B6.s:13     .text.dm_ota_download:0000000000000000 dm_ota_download
C:\Users\stapi\AppData\Local\Temp\ccvva6B6.s:17     .text.dm_ota_download:0000000000000000 .L0 
C:\Users\stapi\AppData\Local\Temp\ccvva6B6.s:19     .text.dm_ota_download:0000000000000000 .L0 
C:\Users\stapi\AppData\Local\Temp\ccvva6B6.s:20     .text.dm_ota_download:0000000000000000 .L0 
C:\Users\stapi\AppData\Local\Temp\ccvva6B6.s:21     .text.dm_ota_download:0000000000000000 .L0 
C:\Users\stapi\AppData\Local\Temp\ccvva6B6.s:23     .text.dm_ota_download:0000000000000004 .L0 
C:\Users\stapi\AppData\Local\Temp\ccvva6B6.s:25     .text.dm_ota_download:0000000000000006 .L0 
C:\Users\stapi\AppData\Local\Temp\ccvva6B6.s:28     .text.dm_ota_download:000000000000000a .L0 
C:\Users\stapi\AppData\Local\Temp\ccvva6B6.s:31     .text.dm_ota_download:000000000000000e .L0 
C:\Users\stapi\AppData\Local\Temp\ccvva6B6.s:32     .text.dm_ota_download:000000000000000e .L0 
C:\Users\stapi\AppData\Local\Temp\ccvva6B6.s:38     .text.dm_ota_download:0000000000000018 .L0 
C:\Users\stapi\AppData\Local\Temp\ccvva6B6.s:40     .text.dm_ota_download:000000000000001a .L0 
C:\Users\stapi\AppData\Local\Temp\ccvva6B6.s:41     .text.dm_ota_download:000000000000001c .L0 
C:\Users\stapi\AppData\Local\Temp\ccvva6B6.s:48     .text.dm_ota_init:0000000000000000 dm_ota_init
C:\Users\stapi\AppData\Local\Temp\ccvva6B6.s:51     .text.dm_ota_init:0000000000000000 .L0 
C:\Users\stapi\AppData\Local\Temp\ccvva6B6.s:52     .text.dm_ota_init:0000000000000000 .L0 
C:\Users\stapi\AppData\Local\Temp\ccvva6B6.s:53     .text.dm_ota_init:0000000000000008 .L0 
C:\Users\stapi\AppData\Local\Temp\ccvva6B6.s:54     .text.dm_ota_init:0000000000000008 .L0 
C:\Users\stapi\AppData\Local\Temp\ccvva6B6.s:55     .text.dm_ota_init:0000000000000008 .L0 
C:\Users\stapi\AppData\Local\Temp\ccvva6B6.s:57     .text.dm_ota_init:0000000000000008 .L0 
C:\Users\stapi\AppData\Local\Temp\ccvva6B6.s:59     .text.dm_ota_init:0000000000000008 .L0 
C:\Users\stapi\AppData\Local\Temp\ccvva6B6.s:60     .text.dm_ota_init:0000000000000008 .L0 
C:\Users\stapi\AppData\Local\Temp\ccvva6B6.s:68     .text.dm_ota_init:0000000000000022 .L0 
C:\Users\stapi\AppData\Local\Temp\ccvva6B6.s:72     .text.dm_ota_init:000000000000002e .L0 
C:\Users\stapi\AppData\Local\Temp\ccvva6B6.s:76     .text.dm_ota_init:000000000000003a .L0 
C:\Users\stapi\AppData\Local\Temp\ccvva6B6.s:77     .text.dm_ota_init:000000000000003a .L0 
C:\Users\stapi\AppData\Local\Temp\ccvva6B6.s:79     .text.dm_ota_init:0000000000000044 .L0 
C:\Users\stapi\AppData\Local\Temp\ccvva6B6.s:80     .text.dm_ota_init:0000000000000044 .L0 
C:\Users\stapi\AppData\Local\Temp\ccvva6B6.s:81     .text.dm_ota_init:0000000000000044 .L0 
C:\Users\stapi\AppData\Local\Temp\ccvva6B6.s:82     .text.dm_ota_init:0000000000000044 .L0 
C:\Users\stapi\AppData\Local\Temp\ccvva6B6.s:89     .text.dm_ota_sub:0000000000000000 dm_ota_sub
C:\Users\stapi\AppData\Local\Temp\ccvva6B6.s:92     .text.dm_ota_sub:0000000000000000 .L0 
C:\Users\stapi\AppData\Local\Temp\ccvva6B6.s:93     .text.dm_ota_sub:0000000000000000 .L0 
C:\Users\stapi\AppData\Local\Temp\ccvva6B6.s:94     .text.dm_ota_sub:0000000000000008 .L0 
C:\Users\stapi\AppData\Local\Temp\ccvva6B6.s:95     .text.dm_ota_sub:0000000000000008 .L0 
C:\Users\stapi\AppData\Local\Temp\ccvva6B6.s:96     .text.dm_ota_sub:0000000000000008 .L0 
C:\Users\stapi\AppData\Local\Temp\ccvva6B6.s:98     .text.dm_ota_sub:0000000000000008 .L0 
C:\Users\stapi\AppData\Local\Temp\ccvva6B6.s:100    .text.dm_ota_sub:0000000000000008 .L0 
C:\Users\stapi\AppData\Local\Temp\ccvva6B6.s:101    .text.dm_ota_sub:0000000000000008 .L0 
C:\Users\stapi\AppData\Local\Temp\ccvva6B6.s:102    .text.dm_ota_sub:0000000000000008 .L0 
C:\Users\stapi\AppData\Local\Temp\ccvva6B6.s:103    .text.dm_ota_sub:0000000000000008 .L0 
C:\Users\stapi\AppData\Local\Temp\ccvva6B6.s:113    .text.dm_ota_sub:0000000000000024 .L0 
C:\Users\stapi\AppData\Local\Temp\ccvva6B6.s:116    .text.dm_ota_sub:0000000000000026 .L0 
C:\Users\stapi\AppData\Local\Temp\ccvva6B6.s:118    .text.dm_ota_sub:0000000000000028 .L0 
C:\Users\stapi\AppData\Local\Temp\ccvva6B6.s:119    .text.dm_ota_sub:0000000000000028 .L0 
C:\Users\stapi\AppData\Local\Temp\ccvva6B6.s:121    .text.dm_ota_sub:000000000000002a .L0 
C:\Users\stapi\AppData\Local\Temp\ccvva6B6.s:122    .text.dm_ota_sub:000000000000002a .L0 
C:\Users\stapi\AppData\Local\Temp\ccvva6B6.s:125    .text.dm_ota_sub:000000000000002c .L0 
C:\Users\stapi\AppData\Local\Temp\ccvva6B6.s:126    .text.dm_ota_sub:0000000000000034 .L0 
C:\Users\stapi\AppData\Local\Temp\ccvva6B6.s:127    .text.dm_ota_sub:0000000000000034 .L0 
C:\Users\stapi\AppData\Local\Temp\ccvva6B6.s:128    .text.dm_ota_sub:0000000000000034 .L0 
C:\Users\stapi\AppData\Local\Temp\ccvva6B6.s:129    .text.dm_ota_sub:0000000000000034 .L0 
C:\Users\stapi\AppData\Local\Temp\ccvva6B6.s:136    .text.dm_ota_deinit:0000000000000000 dm_ota_deinit
C:\Users\stapi\AppData\Local\Temp\ccvva6B6.s:139    .text.dm_ota_deinit:0000000000000000 .L0 
C:\Users\stapi\AppData\Local\Temp\ccvva6B6.s:140    .text.dm_ota_deinit:0000000000000000 .L0 
C:\Users\stapi\AppData\Local\Temp\ccvva6B6.s:141    .text.dm_ota_deinit:0000000000000008 .L0 
C:\Users\stapi\AppData\Local\Temp\ccvva6B6.s:142    .text.dm_ota_deinit:0000000000000008 .L0 
C:\Users\stapi\AppData\Local\Temp\ccvva6B6.s:143    .text.dm_ota_deinit:0000000000000008 .L0 
C:\Users\stapi\AppData\Local\Temp\ccvva6B6.s:145    .text.dm_ota_deinit:0000000000000008 .L0 
C:\Users\stapi\AppData\Local\Temp\ccvva6B6.s:147    .text.dm_ota_deinit:0000000000000008 .L0 
C:\Users\stapi\AppData\Local\Temp\ccvva6B6.s:148    .text.dm_ota_deinit:0000000000000008 .L0 
C:\Users\stapi\AppData\Local\Temp\ccvva6B6.s:149    .text.dm_ota_deinit:0000000000000008 .L0 
C:\Users\stapi\AppData\Local\Temp\ccvva6B6.s:153    .text.dm_ota_deinit:0000000000000012 .L0 
C:\Users\stapi\AppData\Local\Temp\ccvva6B6.s:155    .text.dm_ota_deinit:0000000000000014 .L0 
C:\Users\stapi\AppData\Local\Temp\ccvva6B6.s:158    .text.dm_ota_deinit:000000000000001c .L0 
C:\Users\stapi\AppData\Local\Temp\ccvva6B6.s:159    .text.dm_ota_deinit:000000000000001c .L0 
C:\Users\stapi\AppData\Local\Temp\ccvva6B6.s:162    .text.dm_ota_deinit:0000000000000020 .L0 
C:\Users\stapi\AppData\Local\Temp\ccvva6B6.s:163    .text.dm_ota_deinit:0000000000000020 .L0 
C:\Users\stapi\AppData\Local\Temp\ccvva6B6.s:165    .text.dm_ota_deinit:000000000000002a .L0 
C:\Users\stapi\AppData\Local\Temp\ccvva6B6.s:166    .text.dm_ota_deinit:000000000000002a .L0 
C:\Users\stapi\AppData\Local\Temp\ccvva6B6.s:167    .text.dm_ota_deinit:000000000000002a .L0 
C:\Users\stapi\AppData\Local\Temp\ccvva6B6.s:168    .text.dm_ota_deinit:000000000000002a .L0 
C:\Users\stapi\AppData\Local\Temp\ccvva6B6.s:175    .text.dm_ota_get_ota_handle:0000000000000000 dm_ota_get_ota_handle
C:\Users\stapi\AppData\Local\Temp\ccvva6B6.s:178    .text.dm_ota_get_ota_handle:0000000000000000 .L0 
C:\Users\stapi\AppData\Local\Temp\ccvva6B6.s:180    .text.dm_ota_get_ota_handle:0000000000000000 .L0 
C:\Users\stapi\AppData\Local\Temp\ccvva6B6.s:181    .text.dm_ota_get_ota_handle:0000000000000000 .L0 
C:\Users\stapi\AppData\Local\Temp\ccvva6B6.s:182    .text.dm_ota_get_ota_handle:0000000000000000 .L0 
C:\Users\stapi\AppData\Local\Temp\ccvva6B6.s:183    .text.dm_ota_get_ota_handle:0000000000000000 .L0 
C:\Users\stapi\AppData\Local\Temp\ccvva6B6.s:184    .text.dm_ota_get_ota_handle:0000000000000000 .L0 
C:\Users\stapi\AppData\Local\Temp\ccvva6B6.s:186    .text.dm_ota_get_ota_handle:0000000000000002 .L0 
C:\Users\stapi\AppData\Local\Temp\ccvva6B6.s:188    .text.dm_ota_get_ota_handle:0000000000000004 .L0 
C:\Users\stapi\AppData\Local\Temp\ccvva6B6.s:190    .text.dm_ota_get_ota_handle:0000000000000006 .L0 
C:\Users\stapi\AppData\Local\Temp\ccvva6B6.s:193    .text.dm_ota_get_ota_handle:0000000000000008 .L0 
C:\Users\stapi\AppData\Local\Temp\ccvva6B6.s:195    .text.dm_ota_get_ota_handle:000000000000000a .L0 
C:\Users\stapi\AppData\Local\Temp\ccvva6B6.s:196    .text.dm_ota_get_ota_handle:000000000000000a .L0 
C:\Users\stapi\AppData\Local\Temp\ccvva6B6.s:199    .text.dm_ota_get_ota_handle:0000000000000012 .L0 
C:\Users\stapi\AppData\Local\Temp\ccvva6B6.s:201    .text.dm_ota_get_ota_handle:0000000000000014 .L0 
C:\Users\stapi\AppData\Local\Temp\ccvva6B6.s:202    .text.dm_ota_get_ota_handle:0000000000000014 .L0 
C:\Users\stapi\AppData\Local\Temp\ccvva6B6.s:204    .text.dm_ota_get_ota_handle:0000000000000016 .L0 
C:\Users\stapi\AppData\Local\Temp\ccvva6B6.s:205    .text.dm_ota_get_ota_handle:0000000000000016 .L0 
C:\Users\stapi\AppData\Local\Temp\ccvva6B6.s:210    .text.dm_ota_get_ota_handle:000000000000001a .L0 
C:\Users\stapi\AppData\Local\Temp\ccvva6B6.s:214    .text.dm_ota_get_ota_handle:000000000000001c .L0 
C:\Users\stapi\AppData\Local\Temp\ccvva6B6.s:215    .text.dm_ota_get_ota_handle:000000000000001e .L0 
C:\Users\stapi\AppData\Local\Temp\ccvva6B6.s:220    .bss.g_dm_ota_ctx:0000000000000000 .LANCHOR0
C:\Users\stapi\AppData\Local\Temp\ccvva6B6.s:223    .bss.g_dm_ota_ctx:0000000000000000 g_dm_ota_ctx
C:\Users\stapi\AppData\Local\Temp\ccvva6B6.s:44     .text.dm_ota_download:000000000000001c .L0 
C:\Users\stapi\AppData\Local\Temp\ccvva6B6.s:85     .text.dm_ota_init:0000000000000044 .L0 
C:\Users\stapi\AppData\Local\Temp\ccvva6B6.s:132    .text.dm_ota_sub:0000000000000034 .L0 
C:\Users\stapi\AppData\Local\Temp\ccvva6B6.s:171    .text.dm_ota_deinit:000000000000002a .L0 
C:\Users\stapi\AppData\Local\Temp\ccvva6B6.s:218    .text.dm_ota_get_ota_handle:000000000000001e .L0 
                     .debug_frame:0000000000000000 .L0 
C:\Users\stapi\AppData\Local\Temp\ccvva6B6.s:36     .text.dm_ota_download:0000000000000018 .L3
C:\Users\stapi\AppData\Local\Temp\ccvva6B6.s:123    .text.dm_ota_sub:000000000000002c .L10
C:\Users\stapi\AppData\Local\Temp\ccvva6B6.s:160    .text.dm_ota_deinit:0000000000000020 .L16
C:\Users\stapi\AppData\Local\Temp\ccvva6B6.s:208    .text.dm_ota_get_ota_handle:000000000000001a .L23
C:\Users\stapi\AppData\Local\Temp\ccvva6B6.s:212    .text.dm_ota_get_ota_handle:000000000000001c .L21
C:\Users\stapi\AppData\Local\Temp\ccvva6B6.s:1191   .debug_abbrev:0000000000000000 .Ldebug_abbrev0
C:\Users\stapi\AppData\Local\Temp\ccvva6B6.s:2083   .debug_str:0000000000001563 .LASF215
C:\Users\stapi\AppData\Local\Temp\ccvva6B6.s:1925   .debug_str:0000000000000d24 .LASF216
C:\Users\stapi\AppData\Local\Temp\ccvva6B6.s:1839   .debug_str:0000000000000860 .LASF217
C:\Users\stapi\AppData\Local\Temp\ccvva6B6.s:1657   .debug_ranges:0000000000000000 .Ldebug_ranges0
C:\Users\stapi\AppData\Local\Temp\ccvva6B6.s:1671   .debug_line:0000000000000000 .Ldebug_line0
C:\Users\stapi\AppData\Local\Temp\ccvva6B6.s:1731   .debug_str:0000000000000306 .LASF0
C:\Users\stapi\AppData\Local\Temp\ccvva6B6.s:1949   .debug_str:0000000000000ee8 .LASF1
C:\Users\stapi\AppData\Local\Temp\ccvva6B6.s:1861   .debug_str:0000000000000a17 .LASF2
C:\Users\stapi\AppData\Local\Temp\ccvva6B6.s:1829   .debug_str:00000000000007e4 .LASF3
C:\Users\stapi\AppData\Local\Temp\ccvva6B6.s:1755   .debug_str:0000000000000447 .LASF4
C:\Users\stapi\AppData\Local\Temp\ccvva6B6.s:1819   .debug_str:0000000000000762 .LASF5
C:\Users\stapi\AppData\Local\Temp\ccvva6B6.s:1729   .debug_str:00000000000002f8 .LASF6
C:\Users\stapi\AppData\Local\Temp\ccvva6B6.s:1741   .debug_str:0000000000000389 .LASF7
C:\Users\stapi\AppData\Local\Temp\ccvva6B6.s:1809   .debug_str:00000000000006de .LASF8
C:\Users\stapi\AppData\Local\Temp\ccvva6B6.s:1997   .debug_str:0000000000001141 .LASF9
C:\Users\stapi\AppData\Local\Temp\ccvva6B6.s:1689   .debug_str:00000000000000db .LASF218
C:\Users\stapi\AppData\Local\Temp\ccvva6B6.s:1765   .debug_str:00000000000004b4 .LASF10
C:\Users\stapi\AppData\Local\Temp\ccvva6B6.s:1977   .debug_str:000000000000101c .LASF11
C:\Users\stapi\AppData\Local\Temp\ccvva6B6.s:1779   .debug_str:0000000000000570 .LASF12
C:\Users\stapi\AppData\Local\Temp\ccvva6B6.s:1941   .debug_str:0000000000000e8f .LASF13
C:\Users\stapi\AppData\Local\Temp\ccvva6B6.s:1893   .debug_str:0000000000000b8f .LASF14
C:\Users\stapi\AppData\Local\Temp\ccvva6B6.s:1705   .debug_str:00000000000001b8 .LASF15
C:\Users\stapi\AppData\Local\Temp\ccvva6B6.s:1863   .debug_str:0000000000000a21 .LASF16
C:\Users\stapi\AppData\Local\Temp\ccvva6B6.s:2055   .debug_str:00000000000013ef .LASF17
C:\Users\stapi\AppData\Local\Temp\ccvva6B6.s:2117   .debug_str:0000000000001812 .LASF18
C:\Users\stapi\AppData\Local\Temp\ccvva6B6.s:1805   .debug_str:00000000000006b7 .LASF19
C:\Users\stapi\AppData\Local\Temp\ccvva6B6.s:1791   .debug_str:00000000000005f7 .LASF20
C:\Users\stapi\AppData\Local\Temp\ccvva6B6.s:1913   .debug_str:0000000000000c84 .LASF21
C:\Users\stapi\AppData\Local\Temp\ccvva6B6.s:1787   .debug_str:00000000000005ce .LASF22
C:\Users\stapi\AppData\Local\Temp\ccvva6B6.s:1807   .debug_str:00000000000006c6 .LASF23
C:\Users\stapi\AppData\Local\Temp\ccvva6B6.s:1693   .debug_str:000000000000010d .LASF24
C:\Users\stapi\AppData\Local\Temp\ccvva6B6.s:1695   .debug_str:0000000000000125 .LASF25
C:\Users\stapi\AppData\Local\Temp\ccvva6B6.s:2087   .debug_str:0000000000001669 .LASF26
C:\Users\stapi\AppData\Local\Temp\ccvva6B6.s:2111   .debug_str:00000000000017aa .LASF27
C:\Users\stapi\AppData\Local\Temp\ccvva6B6.s:1751   .debug_str:00000000000003ff .LASF28
C:\Users\stapi\AppData\Local\Temp\ccvva6B6.s:1733   .debug_str:0000000000000312 .LASF29
C:\Users\stapi\AppData\Local\Temp\ccvva6B6.s:2101   .debug_str:0000000000001725 .LASF30
C:\Users\stapi\AppData\Local\Temp\ccvva6B6.s:1827   .debug_str:00000000000007c2 .LASF31
C:\Users\stapi\AppData\Local\Temp\ccvva6B6.s:1865   .debug_str:0000000000000a30 .LASF32
C:\Users\stapi\AppData\Local\Temp\ccvva6B6.s:1761   .debug_str:0000000000000485 .LASF33
C:\Users\stapi\AppData\Local\Temp\ccvva6B6.s:1757   .debug_str:0000000000000450 .LASF34
C:\Users\stapi\AppData\Local\Temp\ccvva6B6.s:2049   .debug_str:000000000000139b .LASF35
C:\Users\stapi\AppData\Local\Temp\ccvva6B6.s:2073   .debug_str:00000000000014d9 .LASF36
C:\Users\stapi\AppData\Local\Temp\ccvva6B6.s:2009   .debug_str:00000000000011ba .LASF37
C:\Users\stapi\AppData\Local\Temp\ccvva6B6.s:1747   .debug_str:00000000000003cd .LASF38
C:\Users\stapi\AppData\Local\Temp\ccvva6B6.s:1883   .debug_str:0000000000000b11 .LASF39
C:\Users\stapi\AppData\Local\Temp\ccvva6B6.s:2037   .debug_str:00000000000012f4 .LASF40
C:\Users\stapi\AppData\Local\Temp\ccvva6B6.s:1961   .debug_str:0000000000000f6a .LASF41
C:\Users\stapi\AppData\Local\Temp\ccvva6B6.s:2077   .debug_str:0000000000001517 .LASF42
C:\Users\stapi\AppData\Local\Temp\ccvva6B6.s:1739   .debug_str:000000000000036b .LASF43
C:\Users\stapi\AppData\Local\Temp\ccvva6B6.s:1985   .debug_str:0000000000001091 .LASF44
C:\Users\stapi\AppData\Local\Temp\ccvva6B6.s:2091   .debug_str:000000000000169c .LASF45
C:\Users\stapi\AppData\Local\Temp\ccvva6B6.s:2017   .debug_str:0000000000001222 .LASF46
C:\Users\stapi\AppData\Local\Temp\ccvva6B6.s:1801   .debug_str:0000000000000676 .LASF47
C:\Users\stapi\AppData\Local\Temp\ccvva6B6.s:1811   .debug_str:00000000000006eb .LASF48
C:\Users\stapi\AppData\Local\Temp\ccvva6B6.s:1927   .debug_str:0000000000000dbe .LASF49
C:\Users\stapi\AppData\Local\Temp\ccvva6B6.s:1713   .debug_str:0000000000000222 .LASF50
C:\Users\stapi\AppData\Local\Temp\ccvva6B6.s:2067   .debug_str:000000000000148e .LASF51
C:\Users\stapi\AppData\Local\Temp\ccvva6B6.s:2103   .debug_str:0000000000001745 .LASF52
C:\Users\stapi\AppData\Local\Temp\ccvva6B6.s:1921   .debug_str:0000000000000cef .LASF53
C:\Users\stapi\AppData\Local\Temp\ccvva6B6.s:1717   .debug_str:000000000000025f .LASF54
C:\Users\stapi\AppData\Local\Temp\ccvva6B6.s:1781   .debug_str:0000000000000587 .LASF55
C:\Users\stapi\AppData\Local\Temp\ccvva6B6.s:1915   .debug_str:0000000000000c9b .LASF56
C:\Users\stapi\AppData\Local\Temp\ccvva6B6.s:1855   .debug_str:00000000000009cd .LASF57
C:\Users\stapi\AppData\Local\Temp\ccvva6B6.s:1715   .debug_str:0000000000000244 .LASF58
C:\Users\stapi\AppData\Local\Temp\ccvva6B6.s:2099   .debug_str:000000000000170d .LASF59
C:\Users\stapi\AppData\Local\Temp\ccvva6B6.s:1775   .debug_str:0000000000000549 .LASF60
C:\Users\stapi\AppData\Local\Temp\ccvva6B6.s:2071   .debug_str:00000000000014be .LASF61
C:\Users\stapi\AppData\Local\Temp\ccvva6B6.s:2089   .debug_str:0000000000001684 .LASF62
C:\Users\stapi\AppData\Local\Temp\ccvva6B6.s:1795   .debug_str:000000000000061f .LASF63
C:\Users\stapi\AppData\Local\Temp\ccvva6B6.s:2085   .debug_str:000000000000164a .LASF64
C:\Users\stapi\AppData\Local\Temp\ccvva6B6.s:2039   .debug_str:0000000000001314 .LASF65
C:\Users\stapi\AppData\Local\Temp\ccvva6B6.s:1903   .debug_str:0000000000000c03 .LASF66
C:\Users\stapi\AppData\Local\Temp\ccvva6B6.s:1967   .debug_str:0000000000000fa9 .LASF67
C:\Users\stapi\AppData\Local\Temp\ccvva6B6.s:1817   .debug_str:0000000000000742 .LASF68
C:\Users\stapi\AppData\Local\Temp\ccvva6B6.s:1887   .debug_str:0000000000000b4b .LASF69
C:\Users\stapi\AppData\Local\Temp\ccvva6B6.s:1785   .debug_str:00000000000005af .LASF70
C:\Users\stapi\AppData\Local\Temp\ccvva6B6.s:1975   .debug_str:0000000000001007 .LASF71
C:\Users\stapi\AppData\Local\Temp\ccvva6B6.s:1973   .debug_str:0000000000000fef .LASF72
C:\Users\stapi\AppData\Local\Temp\ccvva6B6.s:1851   .debug_str:0000000000000999 .LASF73
C:\Users\stapi\AppData\Local\Temp\ccvva6B6.s:1917   .debug_str:0000000000000cb4 .LASF74
C:\Users\stapi\AppData\Local\Temp\ccvva6B6.s:1993   .debug_str:000000000000110a .LASF75
C:\Users\stapi\AppData\Local\Temp\ccvva6B6.s:2075   .debug_str:00000000000014f7 .LASF76
C:\Users\stapi\AppData\Local\Temp\ccvva6B6.s:1823   .debug_str:0000000000000795 .LASF77
C:\Users\stapi\AppData\Local\Temp\ccvva6B6.s:1845   .debug_str:000000000000093b .LASF78
C:\Users\stapi\AppData\Local\Temp\ccvva6B6.s:1797   .debug_str:000000000000063b .LASF79
C:\Users\stapi\AppData\Local\Temp\ccvva6B6.s:1841   .debug_str:00000000000008f1 .LASF80
C:\Users\stapi\AppData\Local\Temp\ccvva6B6.s:1959   .debug_str:0000000000000f4e .LASF81
C:\Users\stapi\AppData\Local\Temp\ccvva6B6.s:1675   .debug_str:0000000000000026 .LASF82
C:\Users\stapi\AppData\Local\Temp\ccvva6B6.s:1685   .debug_str:00000000000000a9 .LASF83
C:\Users\stapi\AppData\Local\Temp\ccvva6B6.s:1939   .debug_str:0000000000000e70 .LASF84
C:\Users\stapi\AppData\Local\Temp\ccvva6B6.s:1889   .debug_str:0000000000000b65 .LASF85
C:\Users\stapi\AppData\Local\Temp\ccvva6B6.s:1719   .debug_str:0000000000000277 .LASF86
C:\Users\stapi\AppData\Local\Temp\ccvva6B6.s:1957   .debug_str:0000000000000f34 .LASF87
C:\Users\stapi\AppData\Local\Temp\ccvva6B6.s:1911   .debug_str:0000000000000c6b .LASF88
C:\Users\stapi\AppData\Local\Temp\ccvva6B6.s:1681   .debug_str:0000000000000080 .LASF89
C:\Users\stapi\AppData\Local\Temp\ccvva6B6.s:2029   .debug_str:000000000000129f .LASF90
C:\Users\stapi\AppData\Local\Temp\ccvva6B6.s:2115   .debug_str:00000000000017f3 .LASF91
C:\Users\stapi\AppData\Local\Temp\ccvva6B6.s:1793   .debug_str:0000000000000606 .LASF92
C:\Users\stapi\AppData\Local\Temp\ccvva6B6.s:2061   .debug_str:000000000000142b .LASF93
C:\Users\stapi\AppData\Local\Temp\ccvva6B6.s:1879   .debug_str:0000000000000ae0 .LASF94
C:\Users\stapi\AppData\Local\Temp\ccvva6B6.s:1857   .debug_str:00000000000009e7 .LASF95
C:\Users\stapi\AppData\Local\Temp\ccvva6B6.s:1735   .debug_str:0000000000000338 .LASF96
C:\Users\stapi\AppData\Local\Temp\ccvva6B6.s:1753   .debug_str:0000000000000426 .LASF97
C:\Users\stapi\AppData\Local\Temp\ccvva6B6.s:1723   .debug_str:00000000000002b1 .LASF98
C:\Users\stapi\AppData\Local\Temp\ccvva6B6.s:1843   .debug_str:0000000000000919 .LASF99
C:\Users\stapi\AppData\Local\Temp\ccvva6B6.s:1981   .debug_str:0000000000001055 .LASF100
C:\Users\stapi\AppData\Local\Temp\ccvva6B6.s:1763   .debug_str:000000000000049e .LASF101
C:\Users\stapi\AppData\Local\Temp\ccvva6B6.s:1963   .debug_str:0000000000000f85 .LASF102
C:\Users\stapi\AppData\Local\Temp\ccvva6B6.s:1933   .debug_str:0000000000000e0c .LASF103
C:\Users\stapi\AppData\Local\Temp\ccvva6B6.s:1815   .debug_str:0000000000000721 .LASF104
C:\Users\stapi\AppData\Local\Temp\ccvva6B6.s:1771   .debug_str:0000000000000507 .LASF105
C:\Users\stapi\AppData\Local\Temp\ccvva6B6.s:2043   .debug_str:0000000000001350 .LASF106
C:\Users\stapi\AppData\Local\Temp\ccvva6B6.s:1885   .debug_str:0000000000000b2d .LASF107
C:\Users\stapi\AppData\Local\Temp\ccvva6B6.s:2033   .debug_str:00000000000012c5 .LASF108
C:\Users\stapi\AppData\Local\Temp\ccvva6B6.s:2007   .debug_str:00000000000011a6 .LASF109
C:\Users\stapi\AppData\Local\Temp\ccvva6B6.s:1869   .debug_str:0000000000000a63 .LASF110
C:\Users\stapi\AppData\Local\Temp\ccvva6B6.s:1835   .debug_str:000000000000082b .LASF111
C:\Users\stapi\AppData\Local\Temp\ccvva6B6.s:1971   .debug_str:0000000000000fd4 .LASF112
C:\Users\stapi\AppData\Local\Temp\ccvva6B6.s:2113   .debug_str:00000000000017db .LASF113
C:\Users\stapi\AppData\Local\Temp\ccvva6B6.s:2041   .debug_str:0000000000001338 .LASF114
C:\Users\stapi\AppData\Local\Temp\ccvva6B6.s:2065   .debug_str:0000000000001471 .LASF115
C:\Users\stapi\AppData\Local\Temp\ccvva6B6.s:2107   .debug_str:0000000000001779 .LASF116
C:\Users\stapi\AppData\Local\Temp\ccvva6B6.s:2015   .debug_str:0000000000001205 .LASF117
C:\Users\stapi\AppData\Local\Temp\ccvva6B6.s:1759   .debug_str:0000000000000467 .LASF118
C:\Users\stapi\AppData\Local\Temp\ccvva6B6.s:2063   .debug_str:0000000000001449 .LASF119
C:\Users\stapi\AppData\Local\Temp\ccvva6B6.s:1991   .debug_str:00000000000010e2 .LASF120
C:\Users\stapi\AppData\Local\Temp\ccvva6B6.s:1813   .debug_str:0000000000000709 .LASF121
C:\Users\stapi\AppData\Local\Temp\ccvva6B6.s:2109   .debug_str:000000000000178f .LASF122
C:\Users\stapi\AppData\Local\Temp\ccvva6B6.s:1749   .debug_str:00000000000003de .LASF123
C:\Users\stapi\AppData\Local\Temp\ccvva6B6.s:2095   .debug_str:00000000000016d6 .LASF124
C:\Users\stapi\AppData\Local\Temp\ccvva6B6.s:1979   .debug_str:000000000000102e .LASF125
C:\Users\stapi\AppData\Local\Temp\ccvva6B6.s:2105   .debug_str:0000000000001761 .LASF126
C:\Users\stapi\AppData\Local\Temp\ccvva6B6.s:1867   .debug_str:0000000000000a43 .LASF127
C:\Users\stapi\AppData\Local\Temp\ccvva6B6.s:1907   .debug_str:0000000000000c33 .LASF128
C:\Users\stapi\AppData\Local\Temp\ccvva6B6.s:1983   .debug_str:0000000000001074 .LASF129
C:\Users\stapi\AppData\Local\Temp\ccvva6B6.s:2003   .debug_str:000000000000116c .LASF130
C:\Users\stapi\AppData\Local\Temp\ccvva6B6.s:1877   .debug_str:0000000000000ac1 .LASF131
C:\Users\stapi\AppData\Local\Temp\ccvva6B6.s:1909   .debug_str:0000000000000c4e .LASF132
C:\Users\stapi\AppData\Local\Temp\ccvva6B6.s:1919   .debug_str:0000000000000cd1 .LASF133
C:\Users\stapi\AppData\Local\Temp\ccvva6B6.s:2097   .debug_str:00000000000016f6 .LASF134
C:\Users\stapi\AppData\Local\Temp\ccvva6B6.s:2053   .debug_str:00000000000013d8 .LASF135
C:\Users\stapi\AppData\Local\Temp\ccvva6B6.s:1881   .debug_str:0000000000000afa .LASF136
C:\Users\stapi\AppData\Local\Temp\ccvva6B6.s:2035   .debug_str:00000000000012dd .LASF137
C:\Users\stapi\AppData\Local\Temp\ccvva6B6.s:1743   .debug_str:00000000000003a0 .LASF138
C:\Users\stapi\AppData\Local\Temp\ccvva6B6.s:1821   .debug_str:0000000000000774 .LASF139
C:\Users\stapi\AppData\Local\Temp\ccvva6B6.s:1769   .debug_str:00000000000004ed .LASF140
C:\Users\stapi\AppData\Local\Temp\ccvva6B6.s:1995   .debug_str:000000000000112d .LASF141
C:\Users\stapi\AppData\Local\Temp\ccvva6B6.s:2005   .debug_str:0000000000001187 .LASF142
C:\Users\stapi\AppData\Local\Temp\ccvva6B6.s:1871   .debug_str:0000000000000a83 .LASF143
C:\Users\stapi\AppData\Local\Temp\ccvva6B6.s:1707   .debug_str:00000000000001ca .LASF144
C:\Users\stapi\AppData\Local\Temp\ccvva6B6.s:1929   .debug_str:0000000000000ddc .LASF145
C:\Users\stapi\AppData\Local\Temp\ccvva6B6.s:1831   .debug_str:00000000000007f7 .LASF146
C:\Users\stapi\AppData\Local\Temp\ccvva6B6.s:1937   .debug_str:0000000000000e4c .LASF147
C:\Users\stapi\AppData\Local\Temp\ccvva6B6.s:1697   .debug_str:0000000000000147 .LASF148
C:\Users\stapi\AppData\Local\Temp\ccvva6B6.s:1767   .debug_str:00000000000004cb .LASF149
C:\Users\stapi\AppData\Local\Temp\ccvva6B6.s:1703   .debug_str:0000000000000198 .LASF150
C:\Users\stapi\AppData\Local\Temp\ccvva6B6.s:1803   .debug_str:0000000000000695 .LASF151
C:\Users\stapi\AppData\Local\Temp\ccvva6B6.s:1951   .debug_str:0000000000000ef6 .LASF152
C:\Users\stapi\AppData\Local\Temp\ccvva6B6.s:1691   .debug_str:00000000000000ec .LASF153
C:\Users\stapi\AppData\Local\Temp\ccvva6B6.s:2051   .debug_str:00000000000013b5 .LASF154
C:\Users\stapi\AppData\Local\Temp\ccvva6B6.s:1873   .debug_str:0000000000000a99 .LASF155
C:\Users\stapi\AppData\Local\Temp\ccvva6B6.s:1701   .debug_str:0000000000000175 .LASF156
C:\Users\stapi\AppData\Local\Temp\ccvva6B6.s:2059   .debug_str:000000000000140b .LASF157
C:\Users\stapi\AppData\Local\Temp\ccvva6B6.s:1673   .debug_str:0000000000000000 .LASF158
C:\Users\stapi\AppData\Local\Temp\ccvva6B6.s:1727   .debug_str:00000000000002dd .LASF159
C:\Users\stapi\AppData\Local\Temp\ccvva6B6.s:1773   .debug_str:000000000000051f .LASF160
C:\Users\stapi\AppData\Local\Temp\ccvva6B6.s:2021   .debug_str:000000000000124f .LASF161
C:\Users\stapi\AppData\Local\Temp\ccvva6B6.s:1999   .debug_str:0000000000001146 .LASF162
C:\Users\stapi\AppData\Local\Temp\ccvva6B6.s:1711   .debug_str:00000000000001fc .LASF163
C:\Users\stapi\AppData\Local\Temp\ccvva6B6.s:1943   .debug_str:0000000000000ea8 .LASF164
C:\Users\stapi\AppData\Local\Temp\ccvva6B6.s:1721   .debug_str:000000000000028e .LASF165
C:\Users\stapi\AppData\Local\Temp\ccvva6B6.s:2047   .debug_str:0000000000001375 .LASF166
C:\Users\stapi\AppData\Local\Temp\ccvva6B6.s:2093   .debug_str:00000000000016b3 .LASF167
C:\Users\stapi\AppData\Local\Temp\ccvva6B6.s:2013   .debug_str:00000000000011ef .LASF168
C:\Users\stapi\AppData\Local\Temp\ccvva6B6.s:1859   .debug_str:00000000000009ff .LASF169
C:\Users\stapi\AppData\Local\Temp\ccvva6B6.s:1837   .debug_str:0000000000000843 .LASF170
C:\Users\stapi\AppData\Local\Temp\ccvva6B6.s:1935   .debug_str:0000000000000e24 .LASF171
C:\Users\stapi\AppData\Local\Temp\ccvva6B6.s:2081   .debug_str:0000000000001542 .LASF172
C:\Users\stapi\AppData\Local\Temp\ccvva6B6.s:1923   .debug_str:0000000000000d06 .LASF173
C:\Users\stapi\AppData\Local\Temp\ccvva6B6.s:1987   .debug_str:00000000000010ab .LASF174
C:\Users\stapi\AppData\Local\Temp\ccvva6B6.s:2069   .debug_str:00000000000014a1 .LASF175
C:\Users\stapi\AppData\Local\Temp\ccvva6B6.s:1895   .debug_str:0000000000000ba0 .LASF176
C:\Users\stapi\AppData\Local\Temp\ccvva6B6.s:1969   .debug_str:0000000000000fc7 .LASF177
C:\Users\stapi\AppData\Local\Temp\ccvva6B6.s:2011   .debug_str:00000000000011d5 .LASF178
C:\Users\stapi\AppData\Local\Temp\ccvva6B6.s:1953   .debug_str:0000000000000f17 .LASF179
C:\Users\stapi\AppData\Local\Temp\ccvva6B6.s:1945   .debug_str:0000000000000ec4 .LASF180
C:\Users\stapi\AppData\Local\Temp\ccvva6B6.s:1849   .debug_str:0000000000000966 .LASF181
C:\Users\stapi\AppData\Local\Temp\ccvva6B6.s:1899   .debug_str:0000000000000bce .LASF182
C:\Users\stapi\AppData\Local\Temp\ccvva6B6.s:1679   .debug_str:000000000000004e .LASF183
C:\Users\stapi\AppData\Local\Temp\ccvva6B6.s:1905   .debug_str:0000000000000c22 .LASF184
C:\Users\stapi\AppData\Local\Temp\ccvva6B6.s:2025   .debug_str:000000000000127a .LASF185
C:\Users\stapi\AppData\Local\Temp\ccvva6B6.s:1833   .debug_str:000000000000081a .LASF186
C:\Users\stapi\AppData\Local\Temp\ccvva6B6.s:1725   .debug_str:00000000000002cc .LASF187
C:\Users\stapi\AppData\Local\Temp\ccvva6B6.s:1947   .debug_str:0000000000000ed8 .LASF188
C:\Users\stapi\AppData\Local\Temp\ccvva6B6.s:1897   .debug_str:0000000000000bbd .LASF189
C:\Users\stapi\AppData\Local\Temp\ccvva6B6.s:1799   .debug_str:000000000000065c .LASF190
C:\Users\stapi\AppData\Local\Temp\ccvva6B6.s:1989   .debug_str:00000000000010d1 .LASF191
C:\Users\stapi\AppData\Local\Temp\ccvva6B6.s:1789   .debug_str:00000000000005ec .LASF192
C:\Users\stapi\AppData\Local\Temp\ccvva6B6.s:1737   .debug_str:0000000000000359 .LASF193
C:\Users\stapi\AppData\Local\Temp\ccvva6B6.s:1853   .debug_str:00000000000009bc .LASF194
C:\Users\stapi\AppData\Local\Temp\ccvva6B6.s:1931   .debug_str:0000000000000e00 .LASF195
C:\Users\stapi\AppData\Local\Temp\ccvva6B6.s:1683   .debug_str:000000000000009a .LASF196
C:\Users\stapi\AppData\Local\Temp\ccvva6B6.s:1777   .debug_str:0000000000000569 .LASF197
C:\Users\stapi\AppData\Local\Temp\ccvva6B6.s:1965   .debug_str:0000000000000f9e .LASF198
C:\Users\stapi\AppData\Local\Temp\ccvva6B6.s:2023   .debug_str:000000000000126e .LASF199
C:\Users\stapi\AppData\Local\Temp\ccvva6B6.s:1783   .debug_str:00000000000005a3 .LASF200
C:\Users\stapi\AppData\Local\Temp\ccvva6B6.s:1847   .debug_str:0000000000000959 .LASF219
C:\Users\stapi\AppData\Local\Temp\ccvva6B6.s:1699   .debug_str:0000000000000168 .LASF201
C:\Users\stapi\AppData\Local\Temp\ccvva6B6.s:1891   .debug_str:0000000000000b79 .LASF202
C:\Users\stapi\AppData\Local\Temp\ccvva6B6.s:176    .text.dm_ota_get_ota_handle:0000000000000000 .LFB25
C:\Users\stapi\AppData\Local\Temp\ccvva6B6.s:216    .text.dm_ota_get_ota_handle:000000000000001e .LFE25
C:\Users\stapi\AppData\Local\Temp\ccvva6B6.s:1875   .debug_str:0000000000000aba .LASF205
C:\Users\stapi\AppData\Local\Temp\ccvva6B6.s:1557   .debug_loc:0000000000000000 .LLST3
C:\Users\stapi\AppData\Local\Temp\ccvva6B6.s:1825   .debug_str:00000000000007b4 .LASF203
C:\Users\stapi\AppData\Local\Temp\ccvva6B6.s:137    .text.dm_ota_deinit:0000000000000000 .LFB24
C:\Users\stapi\AppData\Local\Temp\ccvva6B6.s:169    .text.dm_ota_deinit:000000000000002a .LFE24
C:\Users\stapi\AppData\Local\Temp\ccvva6B6.s:156    .text.dm_ota_deinit:000000000000001c .LVL13
C:\Users\stapi\AppData\Local\Temp\ccvva6B6.s:2057   .debug_str:0000000000001400 .LASF204
C:\Users\stapi\AppData\Local\Temp\ccvva6B6.s:90     .text.dm_ota_sub:0000000000000000 .LFB23
C:\Users\stapi\AppData\Local\Temp\ccvva6B6.s:130    .text.dm_ota_sub:0000000000000034 .LFE23
C:\Users\stapi\AppData\Local\Temp\ccvva6B6.s:1576   .debug_loc:0000000000000034 .LLST2
C:\Users\stapi\AppData\Local\Temp\ccvva6B6.s:109    .text.dm_ota_sub:0000000000000022 .LVL9
C:\Users\stapi\AppData\Local\Temp\ccvva6B6.s:1677   .debug_str:0000000000000042 .LASF206
C:\Users\stapi\AppData\Local\Temp\ccvva6B6.s:49     .text.dm_ota_init:0000000000000000 .LFB22
C:\Users\stapi\AppData\Local\Temp\ccvva6B6.s:83     .text.dm_ota_init:0000000000000044 .LFE22
C:\Users\stapi\AppData\Local\Temp\ccvva6B6.s:66     .text.dm_ota_init:0000000000000022 .LVL5
C:\Users\stapi\AppData\Local\Temp\ccvva6B6.s:70     .text.dm_ota_init:000000000000002e .LVL6
C:\Users\stapi\AppData\Local\Temp\ccvva6B6.s:74     .text.dm_ota_init:000000000000003a .LVL7
C:\Users\stapi\AppData\Local\Temp\ccvva6B6.s:1955   .debug_str:0000000000000f24 .LASF207
C:\Users\stapi\AppData\Local\Temp\ccvva6B6.s:14     .text.dm_ota_download:0000000000000000 .LFB21
C:\Users\stapi\AppData\Local\Temp\ccvva6B6.s:42     .text.dm_ota_download:000000000000001c .LFE21
C:\Users\stapi\AppData\Local\Temp\ccvva6B6.s:1901   .debug_str:0000000000000bfb .LASF208
C:\Users\stapi\AppData\Local\Temp\ccvva6B6.s:1592   .debug_loc:000000000000005e .LLST0
C:\Users\stapi\AppData\Local\Temp\ccvva6B6.s:2031   .debug_str:00000000000012b9 .LASF209
C:\Users\stapi\AppData\Local\Temp\ccvva6B6.s:1614   .debug_loc:0000000000000095 .LLST1
C:\Users\stapi\AppData\Local\Temp\ccvva6B6.s:35     .text.dm_ota_download:0000000000000018 .LVL3
C:\Users\stapi\AppData\Local\Temp\ccvva6B6.s:2027   .debug_str:000000000000128f .LASF220
C:\Users\stapi\AppData\Local\Temp\ccvva6B6.s:2019   .debug_str:0000000000001240 .LASF210
C:\Users\stapi\AppData\Local\Temp\ccvva6B6.s:1745   .debug_str:00000000000003c0 .LASF211
C:\Users\stapi\AppData\Local\Temp\ccvva6B6.s:2045   .debug_str:000000000000136e .LASF221
C:\Users\stapi\AppData\Local\Temp\ccvva6B6.s:1709   .debug_str:00000000000001eb .LASF222
C:\Users\stapi\AppData\Local\Temp\ccvva6B6.s:2079   .debug_str:0000000000001530 .LASF212
C:\Users\stapi\AppData\Local\Temp\ccvva6B6.s:2001   .debug_str:000000000000115a .LASF213
C:\Users\stapi\AppData\Local\Temp\ccvva6B6.s:1687   .debug_str:00000000000000c9 .LASF214
C:\Users\stapi\AppData\Local\Temp\ccvva6B6.s:179    .text.dm_ota_get_ota_handle:0000000000000000 .LVL14
C:\Users\stapi\AppData\Local\Temp\ccvva6B6.s:191    .text.dm_ota_get_ota_handle:0000000000000008 .LVL15
C:\Users\stapi\AppData\Local\Temp\ccvva6B6.s:207    .text.dm_ota_get_ota_handle:000000000000001a .LVL16
C:\Users\stapi\AppData\Local\Temp\ccvva6B6.s:211    .text.dm_ota_get_ota_handle:000000000000001c .LVL17
C:\Users\stapi\AppData\Local\Temp\ccvva6B6.s:99     .text.dm_ota_sub:0000000000000008 .LVL8
C:\Users\stapi\AppData\Local\Temp\ccvva6B6.s:111    .text.dm_ota_sub:0000000000000024 .LVL10
C:\Users\stapi\AppData\Local\Temp\ccvva6B6.s:114    .text.dm_ota_sub:0000000000000026 .LVL11
C:\Users\stapi\AppData\Local\Temp\ccvva6B6.s:18     .text.dm_ota_download:0000000000000000 .LVL0
C:\Users\stapi\AppData\Local\Temp\ccvva6B6.s:26     .text.dm_ota_download:000000000000000a .LVL1
C:\Users\stapi\AppData\Local\Temp\ccvva6B6.s:33     .text.dm_ota_download:0000000000000010 .LVL2
C:\Users\stapi\AppData\Local\Temp\ccvva6B6.s:234    .debug_info:0000000000000000 .Ldebug_info0

UNDEFINED SYMBOLS
iotx_ota_download
__riscv_save_1
memset
HAL_GetProductKey
HAL_GetDeviceName
__riscv_restore_1
IOT_OTA_Init
IOT_OTA_Deinit
