   1              		.file	"dm_ota.c"
   2              		.option nopic
   3              		.attribute arch, "rv32i2p0_m2p0_a2p0_f2p0_c2p0_b_p0p94"
   4              		.attribute unaligned_access, 0
   5              		.attribute stack_align, 16
   6              		.text
   7              	.Ltext0:
   8              		.cfi_sections	.debug_frame
   9              		.section	.text.dm_ota_download,"ax",@progbits
  10              		.align	1
  11              		.globl	dm_ota_download
  13              	dm_ota_download:
  14              	.LFB21:
  15              		.file 1 "C:/Users/stapi/OneDrive/Desktop/GD32VW553/V1_MQTT_OK/GD32VW55X_Wifi_BLE_SDK/GD32VW55x_REL
   1:C:/Users/stapi/OneDrive/Desktop/GD32VW553/V1_MQTT_OK/GD32VW55X_Wifi_BLE_SDK/GD32VW55x_RELEASE_V1.0.2/MSDK/cloud/alicloud/src/services/linkkit/dm\dm_ota.c **** /*
   2:C:/Users/stapi/OneDrive/Desktop/GD32VW553/V1_MQTT_OK/GD32VW55X_Wifi_BLE_SDK/GD32VW55x_RELEASE_V1.0.2/MSDK/cloud/alicloud/src/services/linkkit/dm\dm_ota.c ****  * Copyright (C) 2015-2018 Alibaba Group Holding Limited
   3:C:/Users/stapi/OneDrive/Desktop/GD32VW553/V1_MQTT_OK/GD32VW55X_Wifi_BLE_SDK/GD32VW55x_RELEASE_V1.0.2/MSDK/cloud/alicloud/src/services/linkkit/dm\dm_ota.c ****  */
   4:C:/Users/stapi/OneDrive/Desktop/GD32VW553/V1_MQTT_OK/GD32VW55X_Wifi_BLE_SDK/GD32VW55x_RELEASE_V1.0.2/MSDK/cloud/alicloud/src/services/linkkit/dm\dm_ota.c **** #if defined(OTA_ENABLED) && !defined(BUILD_AOS)
   5:C:/Users/stapi/OneDrive/Desktop/GD32VW553/V1_MQTT_OK/GD32VW55X_Wifi_BLE_SDK/GD32VW55x_RELEASE_V1.0.2/MSDK/cloud/alicloud/src/services/linkkit/dm\dm_ota.c **** #include "iotx_dm_internal.h"
   6:C:/Users/stapi/OneDrive/Desktop/GD32VW553/V1_MQTT_OK/GD32VW55X_Wifi_BLE_SDK/GD32VW55x_RELEASE_V1.0.2/MSDK/cloud/alicloud/src/services/linkkit/dm\dm_ota.c **** 
   7:C:/Users/stapi/OneDrive/Desktop/GD32VW553/V1_MQTT_OK/GD32VW55X_Wifi_BLE_SDK/GD32VW55x_RELEASE_V1.0.2/MSDK/cloud/alicloud/src/services/linkkit/dm\dm_ota.c **** static dm_ota_ctx_t g_dm_ota_ctx;
   8:C:/Users/stapi/OneDrive/Desktop/GD32VW553/V1_MQTT_OK/GD32VW55X_Wifi_BLE_SDK/GD32VW55x_RELEASE_V1.0.2/MSDK/cloud/alicloud/src/services/linkkit/dm\dm_ota.c **** 
   9:C:/Users/stapi/OneDrive/Desktop/GD32VW553/V1_MQTT_OK/GD32VW55X_Wifi_BLE_SDK/GD32VW55x_RELEASE_V1.0.2/MSDK/cloud/alicloud/src/services/linkkit/dm\dm_ota.c **** static dm_ota_ctx_t *_dm_ota_get_ctx(void)
  10:C:/Users/stapi/OneDrive/Desktop/GD32VW553/V1_MQTT_OK/GD32VW55X_Wifi_BLE_SDK/GD32VW55x_RELEASE_V1.0.2/MSDK/cloud/alicloud/src/services/linkkit/dm\dm_ota.c **** {
  11:C:/Users/stapi/OneDrive/Desktop/GD32VW553/V1_MQTT_OK/GD32VW55X_Wifi_BLE_SDK/GD32VW55x_RELEASE_V1.0.2/MSDK/cloud/alicloud/src/services/linkkit/dm\dm_ota.c ****     return &g_dm_ota_ctx;
  12:C:/Users/stapi/OneDrive/Desktop/GD32VW553/V1_MQTT_OK/GD32VW55X_Wifi_BLE_SDK/GD32VW55x_RELEASE_V1.0.2/MSDK/cloud/alicloud/src/services/linkkit/dm\dm_ota.c **** }
  13:C:/Users/stapi/OneDrive/Desktop/GD32VW553/V1_MQTT_OK/GD32VW55X_Wifi_BLE_SDK/GD32VW55x_RELEASE_V1.0.2/MSDK/cloud/alicloud/src/services/linkkit/dm\dm_ota.c **** 
  14:C:/Users/stapi/OneDrive/Desktop/GD32VW553/V1_MQTT_OK/GD32VW55X_Wifi_BLE_SDK/GD32VW55x_RELEASE_V1.0.2/MSDK/cloud/alicloud/src/services/linkkit/dm\dm_ota.c **** int dm_ota_download(char *payload, unsigned int payload_len)
  15:C:/Users/stapi/OneDrive/Desktop/GD32VW553/V1_MQTT_OK/GD32VW55X_Wifi_BLE_SDK/GD32VW55x_RELEASE_V1.0.2/MSDK/cloud/alicloud/src/services/linkkit/dm\dm_ota.c **** {
  16              		.loc 1 15 1
  17              		.cfi_startproc
  18              	.LVL0:
  16:C:/Users/stapi/OneDrive/Desktop/GD32VW553/V1_MQTT_OK/GD32VW55X_Wifi_BLE_SDK/GD32VW55x_RELEASE_V1.0.2/MSDK/cloud/alicloud/src/services/linkkit/dm\dm_ota.c ****     if (g_dm_ota_ctx.ota_handle)
  19              		.loc 1 16 5
  20              		.loc 1 16 21 is_stmt 0
  21 0000 37070000 		lui	a4,%hi(.LANCHOR0)
  15:C:/Users/stapi/OneDrive/Desktop/GD32VW553/V1_MQTT_OK/GD32VW55X_Wifi_BLE_SDK/GD32VW55x_RELEASE_V1.0.2/MSDK/cloud/alicloud/src/services/linkkit/dm\dm_ota.c ****     if (g_dm_ota_ctx.ota_handle)
  22              		.loc 1 15 1
  23 0004 AA87     		mv	a5,a0
  24              		.loc 1 16 21
  25 0006 03250700 		lw	a0,%lo(.LANCHOR0)(a4)
  26              	.LVL1:
  27              		.loc 1 16 8
  28 000a 19C5     		beq	a0,zero,.L3
  29 000c 2E86     		mv	a2,a1
  17:C:/Users/stapi/OneDrive/Desktop/GD32VW553/V1_MQTT_OK/GD32VW55X_Wifi_BLE_SDK/GD32VW55x_RELEASE_V1.0.2/MSDK/cloud/alicloud/src/services/linkkit/dm\dm_ota.c ****     {
  18:C:/Users/stapi/OneDrive/Desktop/GD32VW553/V1_MQTT_OK/GD32VW55X_Wifi_BLE_SDK/GD32VW55x_RELEASE_V1.0.2/MSDK/cloud/alicloud/src/services/linkkit/dm\dm_ota.c ****         return iotx_ota_download(g_dm_ota_ctx.ota_handle, (const char*)payload, payload_len);
  30              		.loc 1 18 9 is_stmt 1
  31              		.loc 1 18 16 is_stmt 0
  32 000e BE85     		mv	a1,a5
  33              	.LVL2:
  34 0010 17030000 		tail	iotx_ota_download
  34      67000300 
  35              	.LVL3:
  36              	.L3:
  19:C:/Users/stapi/OneDrive/Desktop/GD32VW553/V1_MQTT_OK/GD32VW55X_Wifi_BLE_SDK/GD32VW55x_RELEASE_V1.0.2/MSDK/cloud/alicloud/src/services/linkkit/dm\dm_ota.c ****     }
  20:C:/Users/stapi/OneDrive/Desktop/GD32VW553/V1_MQTT_OK/GD32VW55X_Wifi_BLE_SDK/GD32VW55x_RELEASE_V1.0.2/MSDK/cloud/alicloud/src/services/linkkit/dm\dm_ota.c **** 
  21:C:/Users/stapi/OneDrive/Desktop/GD32VW553/V1_MQTT_OK/GD32VW55X_Wifi_BLE_SDK/GD32VW55x_RELEASE_V1.0.2/MSDK/cloud/alicloud/src/services/linkkit/dm\dm_ota.c ****     return -1;
  37              		.loc 1 21 12
  38 0018 7D55     		li	a0,-1
  22:C:/Users/stapi/OneDrive/Desktop/GD32VW553/V1_MQTT_OK/GD32VW55X_Wifi_BLE_SDK/GD32VW55x_RELEASE_V1.0.2/MSDK/cloud/alicloud/src/services/linkkit/dm\dm_ota.c **** }
  39              		.loc 1 22 1
  40 001a 8280     		ret
  41              		.cfi_endproc
  42              	.LFE21:
  44              		.section	.text.dm_ota_init,"ax",@progbits
  45              		.align	1
  46              		.globl	dm_ota_init
  48              	dm_ota_init:
  49              	.LFB22:
  23:C:/Users/stapi/OneDrive/Desktop/GD32VW553/V1_MQTT_OK/GD32VW55X_Wifi_BLE_SDK/GD32VW55x_RELEASE_V1.0.2/MSDK/cloud/alicloud/src/services/linkkit/dm\dm_ota.c **** 
  24:C:/Users/stapi/OneDrive/Desktop/GD32VW553/V1_MQTT_OK/GD32VW55X_Wifi_BLE_SDK/GD32VW55x_RELEASE_V1.0.2/MSDK/cloud/alicloud/src/services/linkkit/dm\dm_ota.c **** int dm_ota_init(void)
  25:C:/Users/stapi/OneDrive/Desktop/GD32VW553/V1_MQTT_OK/GD32VW55X_Wifi_BLE_SDK/GD32VW55x_RELEASE_V1.0.2/MSDK/cloud/alicloud/src/services/linkkit/dm\dm_ota.c **** {
  50              		.loc 1 25 1 is_stmt 1
  51              		.cfi_startproc
  52 0000 17030000 		call	t0,__riscv_save_1
  52      E7020300 
  53              		.cfi_offset 8, -8
  54              		.cfi_offset 1, -4
  55              		.cfi_def_cfa_offset 16
  26:C:/Users/stapi/OneDrive/Desktop/GD32VW553/V1_MQTT_OK/GD32VW55X_Wifi_BLE_SDK/GD32VW55x_RELEASE_V1.0.2/MSDK/cloud/alicloud/src/services/linkkit/dm\dm_ota.c ****     dm_ota_ctx_t *ctx = _dm_ota_get_ctx();
  56              		.loc 1 26 5
  11:C:/Users/stapi/OneDrive/Desktop/GD32VW553/V1_MQTT_OK/GD32VW55X_Wifi_BLE_SDK/GD32VW55x_RELEASE_V1.0.2/MSDK/cloud/alicloud/src/services/linkkit/dm\dm_ota.c **** }
  57              		.loc 1 11 5
  58              	.LVL4:
  27:C:/Users/stapi/OneDrive/Desktop/GD32VW553/V1_MQTT_OK/GD32VW55X_Wifi_BLE_SDK/GD32VW55x_RELEASE_V1.0.2/MSDK/cloud/alicloud/src/services/linkkit/dm\dm_ota.c ****     memset(ctx, 0, sizeof(dm_ota_ctx_t));
  59              		.loc 1 27 5
  60 0008 37050000 		lui	a0,%hi(.LANCHOR0)
  61 000c 13040500 		addi	s0,a0,%lo(.LANCHOR0)
  62 0010 1306C003 		li	a2,60
  63 0014 8145     		li	a1,0
  64 0016 13050500 		addi	a0,a0,%lo(.LANCHOR0)
  65 001a 97000000 		call	memset
  65      E7800000 
  66              	.LVL5:
  28:C:/Users/stapi/OneDrive/Desktop/GD32VW553/V1_MQTT_OK/GD32VW55X_Wifi_BLE_SDK/GD32VW55x_RELEASE_V1.0.2/MSDK/cloud/alicloud/src/services/linkkit/dm\dm_ota.c **** 
  29:C:/Users/stapi/OneDrive/Desktop/GD32VW553/V1_MQTT_OK/GD32VW55X_Wifi_BLE_SDK/GD32VW55x_RELEASE_V1.0.2/MSDK/cloud/alicloud/src/services/linkkit/dm\dm_ota.c ****     HAL_GetProductKey(ctx->product_key);
  67              		.loc 1 29 5
  68 0022 13054400 		addi	a0,s0,4
  69 0026 97000000 		call	HAL_GetProductKey
  69      E7800000 
  70              	.LVL6:
  30:C:/Users/stapi/OneDrive/Desktop/GD32VW553/V1_MQTT_OK/GD32VW55X_Wifi_BLE_SDK/GD32VW55x_RELEASE_V1.0.2/MSDK/cloud/alicloud/src/services/linkkit/dm\dm_ota.c ****     HAL_GetDeviceName(ctx->device_name);
  71              		.loc 1 30 5
  72 002e 13059401 		addi	a0,s0,25
  73 0032 97000000 		call	HAL_GetDeviceName
  73      E7800000 
  74              	.LVL7:
  31:C:/Users/stapi/OneDrive/Desktop/GD32VW553/V1_MQTT_OK/GD32VW55X_Wifi_BLE_SDK/GD32VW55x_RELEASE_V1.0.2/MSDK/cloud/alicloud/src/services/linkkit/dm\dm_ota.c **** 
  32:C:/Users/stapi/OneDrive/Desktop/GD32VW553/V1_MQTT_OK/GD32VW55X_Wifi_BLE_SDK/GD32VW55x_RELEASE_V1.0.2/MSDK/cloud/alicloud/src/services/linkkit/dm\dm_ota.c ****     return SUCCESS_RETURN;
  75              		.loc 1 32 5
  33:C:/Users/stapi/OneDrive/Desktop/GD32VW553/V1_MQTT_OK/GD32VW55X_Wifi_BLE_SDK/GD32VW55x_RELEASE_V1.0.2/MSDK/cloud/alicloud/src/services/linkkit/dm\dm_ota.c **** }
  76              		.loc 1 33 1 is_stmt 0
  77 003a 0145     		li	a0,0
  78 003c 17030000 		tail	__riscv_restore_1
  78      67000300 
  79              		.cfi_restore 8
  80              		.cfi_restore 1
  81              		.cfi_def_cfa_offset 0
  82              		.cfi_endproc
  83              	.LFE22:
  85              		.section	.text.dm_ota_sub,"ax",@progbits
  86              		.align	1
  87              		.globl	dm_ota_sub
  89              	dm_ota_sub:
  90              	.LFB23:
  34:C:/Users/stapi/OneDrive/Desktop/GD32VW553/V1_MQTT_OK/GD32VW55X_Wifi_BLE_SDK/GD32VW55x_RELEASE_V1.0.2/MSDK/cloud/alicloud/src/services/linkkit/dm\dm_ota.c **** 
  35:C:/Users/stapi/OneDrive/Desktop/GD32VW553/V1_MQTT_OK/GD32VW55X_Wifi_BLE_SDK/GD32VW55x_RELEASE_V1.0.2/MSDK/cloud/alicloud/src/services/linkkit/dm\dm_ota.c **** int dm_ota_sub(void)
  36:C:/Users/stapi/OneDrive/Desktop/GD32VW553/V1_MQTT_OK/GD32VW55X_Wifi_BLE_SDK/GD32VW55x_RELEASE_V1.0.2/MSDK/cloud/alicloud/src/services/linkkit/dm\dm_ota.c **** {
  91              		.loc 1 36 1 is_stmt 1
  92              		.cfi_startproc
  93 0000 17030000 		call	t0,__riscv_save_1
  93      E7020300 
  94              		.cfi_offset 8, -8
  95              		.cfi_offset 1, -4
  96              		.cfi_def_cfa_offset 16
  37:C:/Users/stapi/OneDrive/Desktop/GD32VW553/V1_MQTT_OK/GD32VW55X_Wifi_BLE_SDK/GD32VW55x_RELEASE_V1.0.2/MSDK/cloud/alicloud/src/services/linkkit/dm\dm_ota.c ****     dm_ota_ctx_t *ctx = _dm_ota_get_ctx();
  97              		.loc 1 37 5
  11:C:/Users/stapi/OneDrive/Desktop/GD32VW553/V1_MQTT_OK/GD32VW55X_Wifi_BLE_SDK/GD32VW55x_RELEASE_V1.0.2/MSDK/cloud/alicloud/src/services/linkkit/dm\dm_ota.c **** }
  98              		.loc 1 11 5
  99              	.LVL8:
  38:C:/Users/stapi/OneDrive/Desktop/GD32VW553/V1_MQTT_OK/GD32VW55X_Wifi_BLE_SDK/GD32VW55x_RELEASE_V1.0.2/MSDK/cloud/alicloud/src/services/linkkit/dm\dm_ota.c ****     void *handle = NULL;
 100              		.loc 1 38 5
  39:C:/Users/stapi/OneDrive/Desktop/GD32VW553/V1_MQTT_OK/GD32VW55X_Wifi_BLE_SDK/GD32VW55x_RELEASE_V1.0.2/MSDK/cloud/alicloud/src/services/linkkit/dm\dm_ota.c **** 
  40:C:/Users/stapi/OneDrive/Desktop/GD32VW553/V1_MQTT_OK/GD32VW55X_Wifi_BLE_SDK/GD32VW55x_RELEASE_V1.0.2/MSDK/cloud/alicloud/src/services/linkkit/dm\dm_ota.c ****     /* Init OTA Handle */
  41:C:/Users/stapi/OneDrive/Desktop/GD32VW553/V1_MQTT_OK/GD32VW55X_Wifi_BLE_SDK/GD32VW55x_RELEASE_V1.0.2/MSDK/cloud/alicloud/src/services/linkkit/dm\dm_ota.c ****     handle = IOT_OTA_Init(ctx->product_key, ctx->device_name, NULL);
 101              		.loc 1 41 5
 102              		.loc 1 41 14 is_stmt 0
 103 0008 37040000 		lui	s0,%hi(.LANCHOR0)
 104 000c 13040400 		addi	s0,s0,%lo(.LANCHOR0)
 105 0010 0146     		li	a2,0
 106 0012 93059401 		addi	a1,s0,25
 107 0016 13054400 		addi	a0,s0,4
 108 001a 97000000 		call	IOT_OTA_Init
 108      E7800000 
 109              	.LVL9:
 110 0022 AA87     		mv	a5,a0
 111              	.LVL10:
  42:C:/Users/stapi/OneDrive/Desktop/GD32VW553/V1_MQTT_OK/GD32VW55X_Wifi_BLE_SDK/GD32VW55x_RELEASE_V1.0.2/MSDK/cloud/alicloud/src/services/linkkit/dm\dm_ota.c ****     if (handle == NULL) {
 112              		.loc 1 42 5 is_stmt 1
 113 0024 7D55     		li	a0,-1
 114              	.LVL11:
 115              		.loc 1 42 8 is_stmt 0
 116 0026 99C3     		beq	a5,zero,.L10
  43:C:/Users/stapi/OneDrive/Desktop/GD32VW553/V1_MQTT_OK/GD32VW55X_Wifi_BLE_SDK/GD32VW55x_RELEASE_V1.0.2/MSDK/cloud/alicloud/src/services/linkkit/dm\dm_ota.c ****         return FAIL_RETURN;
  44:C:/Users/stapi/OneDrive/Desktop/GD32VW553/V1_MQTT_OK/GD32VW55X_Wifi_BLE_SDK/GD32VW55x_RELEASE_V1.0.2/MSDK/cloud/alicloud/src/services/linkkit/dm\dm_ota.c ****     }
  45:C:/Users/stapi/OneDrive/Desktop/GD32VW553/V1_MQTT_OK/GD32VW55X_Wifi_BLE_SDK/GD32VW55x_RELEASE_V1.0.2/MSDK/cloud/alicloud/src/services/linkkit/dm\dm_ota.c **** 
  46:C:/Users/stapi/OneDrive/Desktop/GD32VW553/V1_MQTT_OK/GD32VW55X_Wifi_BLE_SDK/GD32VW55x_RELEASE_V1.0.2/MSDK/cloud/alicloud/src/services/linkkit/dm\dm_ota.c ****     ctx->ota_handle = handle;
 117              		.loc 1 46 5 is_stmt 1
 118              		.loc 1 46 21 is_stmt 0
 119 0028 1CC0     		sw	a5,0(s0)
  47:C:/Users/stapi/OneDrive/Desktop/GD32VW553/V1_MQTT_OK/GD32VW55X_Wifi_BLE_SDK/GD32VW55x_RELEASE_V1.0.2/MSDK/cloud/alicloud/src/services/linkkit/dm\dm_ota.c **** 
  48:C:/Users/stapi/OneDrive/Desktop/GD32VW553/V1_MQTT_OK/GD32VW55X_Wifi_BLE_SDK/GD32VW55x_RELEASE_V1.0.2/MSDK/cloud/alicloud/src/services/linkkit/dm\dm_ota.c ****     return SUCCESS_RETURN;
 120              		.loc 1 48 5 is_stmt 1
 121              		.loc 1 48 12 is_stmt 0
 122 002a 0145     		li	a0,0
 123              	.L10:
  49:C:/Users/stapi/OneDrive/Desktop/GD32VW553/V1_MQTT_OK/GD32VW55X_Wifi_BLE_SDK/GD32VW55x_RELEASE_V1.0.2/MSDK/cloud/alicloud/src/services/linkkit/dm\dm_ota.c **** }
 124              		.loc 1 49 1
 125 002c 17030000 		tail	__riscv_restore_1
 125      67000300 
 126              		.cfi_restore 8
 127              		.cfi_restore 1
 128              		.cfi_def_cfa_offset 0
 129              		.cfi_endproc
 130              	.LFE23:
 132              		.section	.text.dm_ota_deinit,"ax",@progbits
 133              		.align	1
 134              		.globl	dm_ota_deinit
 136              	dm_ota_deinit:
 137              	.LFB24:
  50:C:/Users/stapi/OneDrive/Desktop/GD32VW553/V1_MQTT_OK/GD32VW55X_Wifi_BLE_SDK/GD32VW55x_RELEASE_V1.0.2/MSDK/cloud/alicloud/src/services/linkkit/dm\dm_ota.c **** 
  51:C:/Users/stapi/OneDrive/Desktop/GD32VW553/V1_MQTT_OK/GD32VW55X_Wifi_BLE_SDK/GD32VW55x_RELEASE_V1.0.2/MSDK/cloud/alicloud/src/services/linkkit/dm\dm_ota.c **** int dm_ota_deinit(void)
  52:C:/Users/stapi/OneDrive/Desktop/GD32VW553/V1_MQTT_OK/GD32VW55X_Wifi_BLE_SDK/GD32VW55x_RELEASE_V1.0.2/MSDK/cloud/alicloud/src/services/linkkit/dm\dm_ota.c **** {
 138              		.loc 1 52 1 is_stmt 1
 139              		.cfi_startproc
 140 0000 17030000 		call	t0,__riscv_save_1
 140      E7020300 
 141              		.cfi_offset 8, -8
 142              		.cfi_offset 1, -4
 143              		.cfi_def_cfa_offset 16
  53:C:/Users/stapi/OneDrive/Desktop/GD32VW553/V1_MQTT_OK/GD32VW55X_Wifi_BLE_SDK/GD32VW55x_RELEASE_V1.0.2/MSDK/cloud/alicloud/src/services/linkkit/dm\dm_ota.c ****     dm_ota_ctx_t *ctx = _dm_ota_get_ctx();
 144              		.loc 1 53 5
  11:C:/Users/stapi/OneDrive/Desktop/GD32VW553/V1_MQTT_OK/GD32VW55X_Wifi_BLE_SDK/GD32VW55x_RELEASE_V1.0.2/MSDK/cloud/alicloud/src/services/linkkit/dm\dm_ota.c **** }
 145              		.loc 1 11 5
 146              	.LVL12:
  54:C:/Users/stapi/OneDrive/Desktop/GD32VW553/V1_MQTT_OK/GD32VW55X_Wifi_BLE_SDK/GD32VW55x_RELEASE_V1.0.2/MSDK/cloud/alicloud/src/services/linkkit/dm\dm_ota.c **** 
  55:C:/Users/stapi/OneDrive/Desktop/GD32VW553/V1_MQTT_OK/GD32VW55X_Wifi_BLE_SDK/GD32VW55x_RELEASE_V1.0.2/MSDK/cloud/alicloud/src/services/linkkit/dm\dm_ota.c ****     if (ctx->ota_handle) {
 147              		.loc 1 55 5
 148              		.loc 1 55 12 is_stmt 0
 149 0008 37040000 		lui	s0,%hi(.LANCHOR0)
 150 000c 13040400 		addi	s0,s0,%lo(.LANCHOR0)
 151 0010 0840     		lw	a0,0(s0)
 152              		.loc 1 55 8
 153 0012 19C5     		beq	a0,zero,.L16
  56:C:/Users/stapi/OneDrive/Desktop/GD32VW553/V1_MQTT_OK/GD32VW55X_Wifi_BLE_SDK/GD32VW55x_RELEASE_V1.0.2/MSDK/cloud/alicloud/src/services/linkkit/dm\dm_ota.c ****         IOT_OTA_Deinit(ctx->ota_handle);
 154              		.loc 1 56 9 is_stmt 1
 155 0014 97000000 		call	IOT_OTA_Deinit
 155      E7800000 
 156              	.LVL13:
  57:C:/Users/stapi/OneDrive/Desktop/GD32VW553/V1_MQTT_OK/GD32VW55X_Wifi_BLE_SDK/GD32VW55x_RELEASE_V1.0.2/MSDK/cloud/alicloud/src/services/linkkit/dm\dm_ota.c ****         ctx->ota_handle = NULL;
 157              		.loc 1 57 9
 158              		.loc 1 57 25 is_stmt 0
 159 001c 23200400 		sw	zero,0(s0)
 160              	.L16:
  58:C:/Users/stapi/OneDrive/Desktop/GD32VW553/V1_MQTT_OK/GD32VW55X_Wifi_BLE_SDK/GD32VW55x_RELEASE_V1.0.2/MSDK/cloud/alicloud/src/services/linkkit/dm\dm_ota.c ****     }
  59:C:/Users/stapi/OneDrive/Desktop/GD32VW553/V1_MQTT_OK/GD32VW55X_Wifi_BLE_SDK/GD32VW55x_RELEASE_V1.0.2/MSDK/cloud/alicloud/src/services/linkkit/dm\dm_ota.c **** 
  60:C:/Users/stapi/OneDrive/Desktop/GD32VW553/V1_MQTT_OK/GD32VW55X_Wifi_BLE_SDK/GD32VW55x_RELEASE_V1.0.2/MSDK/cloud/alicloud/src/services/linkkit/dm\dm_ota.c ****     return SUCCESS_RETURN;
 161              		.loc 1 60 5 is_stmt 1
  61:C:/Users/stapi/OneDrive/Desktop/GD32VW553/V1_MQTT_OK/GD32VW55X_Wifi_BLE_SDK/GD32VW55x_RELEASE_V1.0.2/MSDK/cloud/alicloud/src/services/linkkit/dm\dm_ota.c **** }
 162              		.loc 1 61 1 is_stmt 0
 163 0020 0145     		li	a0,0
 164 0022 17030000 		tail	__riscv_restore_1
 164      67000300 
 165              		.cfi_restore 8
 166              		.cfi_restore 1
 167              		.cfi_def_cfa_offset 0
 168              		.cfi_endproc
 169              	.LFE24:
 171              		.section	.text.dm_ota_get_ota_handle,"ax",@progbits
 172              		.align	1
 173              		.globl	dm_ota_get_ota_handle
 175              	dm_ota_get_ota_handle:
 176              	.LFB25:
  62:C:/Users/stapi/OneDrive/Desktop/GD32VW553/V1_MQTT_OK/GD32VW55X_Wifi_BLE_SDK/GD32VW55x_RELEASE_V1.0.2/MSDK/cloud/alicloud/src/services/linkkit/dm\dm_ota.c **** 
  63:C:/Users/stapi/OneDrive/Desktop/GD32VW553/V1_MQTT_OK/GD32VW55X_Wifi_BLE_SDK/GD32VW55x_RELEASE_V1.0.2/MSDK/cloud/alicloud/src/services/linkkit/dm\dm_ota.c **** int dm_ota_get_ota_handle(void **handle)
  64:C:/Users/stapi/OneDrive/Desktop/GD32VW553/V1_MQTT_OK/GD32VW55X_Wifi_BLE_SDK/GD32VW55x_RELEASE_V1.0.2/MSDK/cloud/alicloud/src/services/linkkit/dm\dm_ota.c **** {
 177              		.loc 1 64 1 is_stmt 1
 178              		.cfi_startproc
 179              	.LVL14:
  65:C:/Users/stapi/OneDrive/Desktop/GD32VW553/V1_MQTT_OK/GD32VW55X_Wifi_BLE_SDK/GD32VW55x_RELEASE_V1.0.2/MSDK/cloud/alicloud/src/services/linkkit/dm\dm_ota.c ****     dm_ota_ctx_t *ctx = _dm_ota_get_ctx();
 180              		.loc 1 65 5
  11:C:/Users/stapi/OneDrive/Desktop/GD32VW553/V1_MQTT_OK/GD32VW55X_Wifi_BLE_SDK/GD32VW55x_RELEASE_V1.0.2/MSDK/cloud/alicloud/src/services/linkkit/dm\dm_ota.c **** }
 181              		.loc 1 11 5
  66:C:/Users/stapi/OneDrive/Desktop/GD32VW553/V1_MQTT_OK/GD32VW55X_Wifi_BLE_SDK/GD32VW55x_RELEASE_V1.0.2/MSDK/cloud/alicloud/src/services/linkkit/dm\dm_ota.c **** 
  67:C:/Users/stapi/OneDrive/Desktop/GD32VW553/V1_MQTT_OK/GD32VW55X_Wifi_BLE_SDK/GD32VW55x_RELEASE_V1.0.2/MSDK/cloud/alicloud/src/services/linkkit/dm\dm_ota.c ****     if (handle == NULL || *handle != NULL) {
 182              		.loc 1 67 5
  64:C:/Users/stapi/OneDrive/Desktop/GD32VW553/V1_MQTT_OK/GD32VW55X_Wifi_BLE_SDK/GD32VW55x_RELEASE_V1.0.2/MSDK/cloud/alicloud/src/services/linkkit/dm\dm_ota.c ****     dm_ota_ctx_t *ctx = _dm_ota_get_ctx();
 183              		.loc 1 64 1 is_stmt 0
 184 0000 AA87     		mv	a5,a0
 185              		.loc 1 67 8
 186 0002 01CD     		beq	a0,zero,.L23
 187              		.loc 1 67 24 discriminator 1
 188 0004 1841     		lw	a4,0(a0)
  68:C:/Users/stapi/OneDrive/Desktop/GD32VW553/V1_MQTT_OK/GD32VW55X_Wifi_BLE_SDK/GD32VW55x_RELEASE_V1.0.2/MSDK/cloud/alicloud/src/services/linkkit/dm\dm_ota.c ****         return FAIL_RETURN;
 189              		.loc 1 68 16 discriminator 1
 190 0006 7D55     		li	a0,-1
 191              	.LVL15:
  67:C:/Users/stapi/OneDrive/Desktop/GD32VW553/V1_MQTT_OK/GD32VW55X_Wifi_BLE_SDK/GD32VW55x_RELEASE_V1.0.2/MSDK/cloud/alicloud/src/services/linkkit/dm\dm_ota.c ****         return FAIL_RETURN;
 192              		.loc 1 67 24 discriminator 1
 193 0008 11EB     		bne	a4,zero,.L21
  69:C:/Users/stapi/OneDrive/Desktop/GD32VW553/V1_MQTT_OK/GD32VW55X_Wifi_BLE_SDK/GD32VW55x_RELEASE_V1.0.2/MSDK/cloud/alicloud/src/services/linkkit/dm\dm_ota.c ****     }
  70:C:/Users/stapi/OneDrive/Desktop/GD32VW553/V1_MQTT_OK/GD32VW55X_Wifi_BLE_SDK/GD32VW55x_RELEASE_V1.0.2/MSDK/cloud/alicloud/src/services/linkkit/dm\dm_ota.c **** 
  71:C:/Users/stapi/OneDrive/Desktop/GD32VW553/V1_MQTT_OK/GD32VW55X_Wifi_BLE_SDK/GD32VW55x_RELEASE_V1.0.2/MSDK/cloud/alicloud/src/services/linkkit/dm\dm_ota.c ****     if (ctx->ota_handle == NULL) {
 194              		.loc 1 71 5 is_stmt 1
 195              		.loc 1 71 12 is_stmt 0
 196 000a 37070000 		lui	a4,%hi(.LANCHOR0)
 197 000e 03270700 		lw	a4,%lo(.LANCHOR0)(a4)
 198              		.loc 1 71 8
 199 0012 09C7     		beq	a4,zero,.L21
  72:C:/Users/stapi/OneDrive/Desktop/GD32VW553/V1_MQTT_OK/GD32VW55X_Wifi_BLE_SDK/GD32VW55x_RELEASE_V1.0.2/MSDK/cloud/alicloud/src/services/linkkit/dm\dm_ota.c ****         return FAIL_RETURN;
  73:C:/Users/stapi/OneDrive/Desktop/GD32VW553/V1_MQTT_OK/GD32VW55X_Wifi_BLE_SDK/GD32VW55x_RELEASE_V1.0.2/MSDK/cloud/alicloud/src/services/linkkit/dm\dm_ota.c ****     }
  74:C:/Users/stapi/OneDrive/Desktop/GD32VW553/V1_MQTT_OK/GD32VW55X_Wifi_BLE_SDK/GD32VW55x_RELEASE_V1.0.2/MSDK/cloud/alicloud/src/services/linkkit/dm\dm_ota.c **** 
  75:C:/Users/stapi/OneDrive/Desktop/GD32VW553/V1_MQTT_OK/GD32VW55X_Wifi_BLE_SDK/GD32VW55x_RELEASE_V1.0.2/MSDK/cloud/alicloud/src/services/linkkit/dm\dm_ota.c ****     *handle = ctx->ota_handle;
 200              		.loc 1 75 5 is_stmt 1
 201              		.loc 1 75 13 is_stmt 0
 202 0014 98C3     		sw	a4,0(a5)
  76:C:/Users/stapi/OneDrive/Desktop/GD32VW553/V1_MQTT_OK/GD32VW55X_Wifi_BLE_SDK/GD32VW55x_RELEASE_V1.0.2/MSDK/cloud/alicloud/src/services/linkkit/dm\dm_ota.c **** 
  77:C:/Users/stapi/OneDrive/Desktop/GD32VW553/V1_MQTT_OK/GD32VW55X_Wifi_BLE_SDK/GD32VW55x_RELEASE_V1.0.2/MSDK/cloud/alicloud/src/services/linkkit/dm\dm_ota.c ****     return SUCCESS_RETURN;
 203              		.loc 1 77 5 is_stmt 1
 204              		.loc 1 77 12 is_stmt 0
 205 0016 0145     		li	a0,0
 206 0018 8280     		ret
 207              	.LVL16:
 208              	.L23:
  68:C:/Users/stapi/OneDrive/Desktop/GD32VW553/V1_MQTT_OK/GD32VW55X_Wifi_BLE_SDK/GD32VW55x_RELEASE_V1.0.2/MSDK/cloud/alicloud/src/services/linkkit/dm\dm_ota.c ****     }
 209              		.loc 1 68 16
 210 001a 7D55     		li	a0,-1
 211              	.LVL17:
 212              	.L21:
  78:C:/Users/stapi/OneDrive/Desktop/GD32VW553/V1_MQTT_OK/GD32VW55X_Wifi_BLE_SDK/GD32VW55x_RELEASE_V1.0.2/MSDK/cloud/alicloud/src/services/linkkit/dm\dm_ota.c **** }
 213              		.loc 1 78 1
 214 001c 8280     		ret
 215              		.cfi_endproc
 216              	.LFE25:
 218              		.section	.bss.g_dm_ota_ctx,"aw",@nobits
 219              		.align	2
 220              		.set	.LANCHOR0,. + 0
 223              	g_dm_ota_ctx:
 224 0000 00000000 		.zero	60
 224      00000000 
 224      00000000 
 224      00000000 
 224      00000000 
 225              		.text
 226              	.Letext0:
 227              		.file 2 "C:/Users/stapi/OneDrive/Desktop/GD32VW553/V1_MQTT_OK/GD32VW55X_Wifi_BLE_SDK/GD32VW55x_REL
 228              		.file 3 "..\\..\\..\\..\\cloud\\alicloud\\include/exports/iot_export_ota.h"
 229              		.file 4 "..\\..\\..\\..\\cloud\\alicloud\\include/imports/iot_import_product.h"
 230              		.file 5 "..\\..\\..\\..\\cloud\\alicloud\\src\\services\\ota/iotx_ota.h"
 231              		.file 6 "..\\..\\..\\..\\cloud\\alicloud\\include/exports/iot_export_errno.h"
 232              		.file 7 "<built-in>"