   1              		.file	"dm_utils.c"
   2              		.option nopic
   3              		.attribute arch, "rv32i2p0_m2p0_a2p0_f2p0_c2p0_b_p0p94"
   4              		.attribute unaligned_access, 0
   5              		.attribute stack_align, 16
   6              		.text
   7              	.Ltext0:
   8              		.cfi_sections	.debug_frame
   9              		.section	.text.dm_utils_copy_direct,"ax",@progbits
  10              		.align	1
  11              		.globl	dm_utils_copy_direct
  13              	dm_utils_copy_direct:
  14              	.LFB20:
  15              		.file 1 "C:/Users/stapi/OneDrive/Desktop/GD32VW553/V1_MQTT_OK/GD32VW55X_Wifi_BLE_SDK/GD32VW55x_REL
   1:C:/Users/stapi/OneDrive/Desktop/GD32VW553/V1_MQTT_OK/GD32VW55X_Wifi_BLE_SDK/GD32VW55x_RELEASE_V1.0.2/MSDK/cloud/alicloud/src/services/linkkit/dm\dm_utils.c **** /*
   2:C:/Users/stapi/OneDrive/Desktop/GD32VW553/V1_MQTT_OK/GD32VW55X_Wifi_BLE_SDK/GD32VW55x_RELEASE_V1.0.2/MSDK/cloud/alicloud/src/services/linkkit/dm\dm_utils.c ****  * Copyright (C) 2015-2018 Alibaba Group Holding Limited
   3:C:/Users/stapi/OneDrive/Desktop/GD32VW553/V1_MQTT_OK/GD32VW55X_Wifi_BLE_SDK/GD32VW55x_RELEASE_V1.0.2/MSDK/cloud/alicloud/src/services/linkkit/dm\dm_utils.c ****  */
   4:C:/Users/stapi/OneDrive/Desktop/GD32VW553/V1_MQTT_OK/GD32VW55X_Wifi_BLE_SDK/GD32VW55x_RELEASE_V1.0.2/MSDK/cloud/alicloud/src/services/linkkit/dm\dm_utils.c **** 
   5:C:/Users/stapi/OneDrive/Desktop/GD32VW553/V1_MQTT_OK/GD32VW55X_Wifi_BLE_SDK/GD32VW55x_RELEASE_V1.0.2/MSDK/cloud/alicloud/src/services/linkkit/dm\dm_utils.c **** 
   6:C:/Users/stapi/OneDrive/Desktop/GD32VW553/V1_MQTT_OK/GD32VW55X_Wifi_BLE_SDK/GD32VW55x_RELEASE_V1.0.2/MSDK/cloud/alicloud/src/services/linkkit/dm\dm_utils.c **** 
   7:C:/Users/stapi/OneDrive/Desktop/GD32VW553/V1_MQTT_OK/GD32VW55X_Wifi_BLE_SDK/GD32VW55x_RELEASE_V1.0.2/MSDK/cloud/alicloud/src/services/linkkit/dm\dm_utils.c **** #include "iotx_dm_internal.h"
   8:C:/Users/stapi/OneDrive/Desktop/GD32VW553/V1_MQTT_OK/GD32VW55X_Wifi_BLE_SDK/GD32VW55x_RELEASE_V1.0.2/MSDK/cloud/alicloud/src/services/linkkit/dm\dm_utils.c **** 
   9:C:/Users/stapi/OneDrive/Desktop/GD32VW553/V1_MQTT_OK/GD32VW55X_Wifi_BLE_SDK/GD32VW55x_RELEASE_V1.0.2/MSDK/cloud/alicloud/src/services/linkkit/dm\dm_utils.c **** int dm_utils_copy_direct(_IN_ void *input, _IN_ int input_len, _OU_ void **output, _IN_ int output_
  10:C:/Users/stapi/OneDrive/Desktop/GD32VW553/V1_MQTT_OK/GD32VW55X_Wifi_BLE_SDK/GD32VW55x_RELEASE_V1.0.2/MSDK/cloud/alicloud/src/services/linkkit/dm\dm_utils.c **** {
  16              		.loc 1 10 1
  17              		.cfi_startproc
  18              	.LVL0:
  11:C:/Users/stapi/OneDrive/Desktop/GD32VW553/V1_MQTT_OK/GD32VW55X_Wifi_BLE_SDK/GD32VW55x_RELEASE_V1.0.2/MSDK/cloud/alicloud/src/services/linkkit/dm\dm_utils.c ****     if (input == NULL || output == NULL || *output != NULL) {
  19              		.loc 1 11 5
  20              		.loc 1 11 8 is_stmt 0
  21 0000 21C9     		beq	a0,zero,.L3
  10:C:/Users/stapi/OneDrive/Desktop/GD32VW553/V1_MQTT_OK/GD32VW55X_Wifi_BLE_SDK/GD32VW55x_RELEASE_V1.0.2/MSDK/cloud/alicloud/src/services/linkkit/dm\dm_utils.c ****     if (input == NULL || output == NULL || *output != NULL) {
  22              		.loc 1 10 1 discriminator 1
  23 0002 17030000 		call	t0,__riscv_save_4
  23      E7020300 
  24              		.cfi_offset 19, -20
  25              		.cfi_offset 18, -16
  26              		.cfi_offset 9, -12
  27              		.cfi_offset 8, -8
  28              		.cfi_offset 1, -4
  29              		.cfi_def_cfa_offset 32
  30 000a 3284     		mv	s0,a2
  12:C:/Users/stapi/OneDrive/Desktop/GD32VW553/V1_MQTT_OK/GD32VW55X_Wifi_BLE_SDK/GD32VW55x_RELEASE_V1.0.2/MSDK/cloud/alicloud/src/services/linkkit/dm\dm_utils.c ****         return DM_INVALID_PARAMETER;
  31              		.loc 1 12 16 discriminator 1
  32 000c F957     		li	a5,-2
  11:C:/Users/stapi/OneDrive/Desktop/GD32VW553/V1_MQTT_OK/GD32VW55X_Wifi_BLE_SDK/GD32VW55x_RELEASE_V1.0.2/MSDK/cloud/alicloud/src/services/linkkit/dm\dm_utils.c ****     if (input == NULL || output == NULL || *output != NULL) {
  33              		.loc 1 11 23 discriminator 1
  34 000e 05CE     		beq	a2,zero,.L1
  11:C:/Users/stapi/OneDrive/Desktop/GD32VW553/V1_MQTT_OK/GD32VW55X_Wifi_BLE_SDK/GD32VW55x_RELEASE_V1.0.2/MSDK/cloud/alicloud/src/services/linkkit/dm\dm_utils.c ****     if (input == NULL || output == NULL || *output != NULL) {
  35              		.loc 1 11 41 discriminator 2
  36 0010 1842     		lw	a4,0(a2)
  37 0012 15EB     		bne	a4,zero,.L1
  38 0014 AA84     		mv	s1,a0
  13:C:/Users/stapi/OneDrive/Desktop/GD32VW553/V1_MQTT_OK/GD32VW55X_Wifi_BLE_SDK/GD32VW55x_RELEASE_V1.0.2/MSDK/cloud/alicloud/src/services/linkkit/dm\dm_utils.c ****     }
  14:C:/Users/stapi/OneDrive/Desktop/GD32VW553/V1_MQTT_OK/GD32VW55X_Wifi_BLE_SDK/GD32VW55x_RELEASE_V1.0.2/MSDK/cloud/alicloud/src/services/linkkit/dm\dm_utils.c **** 
  15:C:/Users/stapi/OneDrive/Desktop/GD32VW553/V1_MQTT_OK/GD32VW55X_Wifi_BLE_SDK/GD32VW55x_RELEASE_V1.0.2/MSDK/cloud/alicloud/src/services/linkkit/dm\dm_utils.c ****     *output = HAL_Malloc(output_len);
  39              		.loc 1 15 15
  40 0016 3685     		mv	a0,a3
  41              	.LVL1:
  42 0018 AE89     		mv	s3,a1
  43 001a 3689     		mv	s2,a3
  44              		.loc 1 15 5 is_stmt 1
  45              		.loc 1 15 15 is_stmt 0
  46 001c 97000000 		call	HAL_Malloc
  46      E7800000 
  47              	.LVL2:
  48              		.loc 1 15 13
  49 0024 08C0     		sw	a0,0(s0)
  16:C:/Users/stapi/OneDrive/Desktop/GD32VW553/V1_MQTT_OK/GD32VW55X_Wifi_BLE_SDK/GD32VW55x_RELEASE_V1.0.2/MSDK/cloud/alicloud/src/services/linkkit/dm\dm_utils.c ****     if (*output == NULL) {
  50              		.loc 1 16 5 is_stmt 1
  17:C:/Users/stapi/OneDrive/Desktop/GD32VW553/V1_MQTT_OK/GD32VW55X_Wifi_BLE_SDK/GD32VW55x_RELEASE_V1.0.2/MSDK/cloud/alicloud/src/services/linkkit/dm\dm_utils.c ****         return DM_MEMORY_NOT_ENOUGH;
  51              		.loc 1 17 16 is_stmt 0
  52 0026 F557     		li	a5,-3
  16:C:/Users/stapi/OneDrive/Desktop/GD32VW553/V1_MQTT_OK/GD32VW55X_Wifi_BLE_SDK/GD32VW55x_RELEASE_V1.0.2/MSDK/cloud/alicloud/src/services/linkkit/dm\dm_utils.c ****     if (*output == NULL) {
  53              		.loc 1 16 8
  54 0028 19CD     		beq	a0,zero,.L1
  18:C:/Users/stapi/OneDrive/Desktop/GD32VW553/V1_MQTT_OK/GD32VW55X_Wifi_BLE_SDK/GD32VW55x_RELEASE_V1.0.2/MSDK/cloud/alicloud/src/services/linkkit/dm\dm_utils.c ****     }
  19:C:/Users/stapi/OneDrive/Desktop/GD32VW553/V1_MQTT_OK/GD32VW55X_Wifi_BLE_SDK/GD32VW55x_RELEASE_V1.0.2/MSDK/cloud/alicloud/src/services/linkkit/dm\dm_utils.c ****     memset(*output, 0, output_len);
  55              		.loc 1 19 5 is_stmt 1
  56 002a 4A86     		mv	a2,s2
  57 002c 8145     		li	a1,0
  58 002e 97000000 		call	memset
  58      E7800000 
  59              	.LVL3:
  20:C:/Users/stapi/OneDrive/Desktop/GD32VW553/V1_MQTT_OK/GD32VW55X_Wifi_BLE_SDK/GD32VW55x_RELEASE_V1.0.2/MSDK/cloud/alicloud/src/services/linkkit/dm\dm_utils.c ****     memcpy(*output, input, input_len);
  60              		.loc 1 20 5
  61 0036 0840     		lw	a0,0(s0)
  62 0038 4E86     		mv	a2,s3
  63 003a A685     		mv	a1,s1
  64 003c 97000000 		call	memcpy
  64      E7800000 
  65              	.LVL4:
  21:C:/Users/stapi/OneDrive/Desktop/GD32VW553/V1_MQTT_OK/GD32VW55X_Wifi_BLE_SDK/GD32VW55x_RELEASE_V1.0.2/MSDK/cloud/alicloud/src/services/linkkit/dm\dm_utils.c **** 
  22:C:/Users/stapi/OneDrive/Desktop/GD32VW553/V1_MQTT_OK/GD32VW55X_Wifi_BLE_SDK/GD32VW55x_RELEASE_V1.0.2/MSDK/cloud/alicloud/src/services/linkkit/dm\dm_utils.c ****     return SUCCESS_RETURN;
  66              		.loc 1 22 5
  67              		.loc 1 22 12 is_stmt 0
  68 0044 8147     		li	a5,0
  69              	.LVL5:
  70              	.L1:
  23:C:/Users/stapi/OneDrive/Desktop/GD32VW553/V1_MQTT_OK/GD32VW55X_Wifi_BLE_SDK/GD32VW55x_RELEASE_V1.0.2/MSDK/cloud/alicloud/src/services/linkkit/dm\dm_utils.c **** }
  71              		.loc 1 23 1
  72 0046 3E85     		mv	a0,a5
  73 0048 17030000 		tail	__riscv_restore_4
  73      67000300 
  74              		.cfi_restore 19
  75              		.cfi_restore 18
  76              		.cfi_restore 9
  77              		.cfi_restore 8
  78              		.cfi_restore 1
  79              		.cfi_def_cfa_offset 0
  80              	.LVL6:
  81              	.L3:
  12:C:/Users/stapi/OneDrive/Desktop/GD32VW553/V1_MQTT_OK/GD32VW55X_Wifi_BLE_SDK/GD32VW55x_RELEASE_V1.0.2/MSDK/cloud/alicloud/src/services/linkkit/dm\dm_utils.c ****     }
  82              		.loc 1 12 16
  83 0050 F957     		li	a5,-2
  84              		.loc 1 23 1
  85 0052 3E85     		mv	a0,a5
  86              	.LVL7:
  87 0054 8280     		ret
  88              		.cfi_endproc
  89              	.LFE20:
  91              		.section	.text.dm_utils_copy,"ax",@progbits
  92              		.align	1
  93              		.globl	dm_utils_copy
  95              	dm_utils_copy:
  96              	.LFB21:
  24:C:/Users/stapi/OneDrive/Desktop/GD32VW553/V1_MQTT_OK/GD32VW55X_Wifi_BLE_SDK/GD32VW55x_RELEASE_V1.0.2/MSDK/cloud/alicloud/src/services/linkkit/dm\dm_utils.c **** 
  25:C:/Users/stapi/OneDrive/Desktop/GD32VW553/V1_MQTT_OK/GD32VW55X_Wifi_BLE_SDK/GD32VW55x_RELEASE_V1.0.2/MSDK/cloud/alicloud/src/services/linkkit/dm\dm_utils.c **** int dm_utils_copy(_IN_ void *input, _IN_ int input_len, _OU_ void **output, _IN_ int output_len)
  26:C:/Users/stapi/OneDrive/Desktop/GD32VW553/V1_MQTT_OK/GD32VW55X_Wifi_BLE_SDK/GD32VW55x_RELEASE_V1.0.2/MSDK/cloud/alicloud/src/services/linkkit/dm\dm_utils.c **** {
  97              		.loc 1 26 1 is_stmt 1
  98              		.cfi_startproc
  99              	.LVL8:
  27:C:/Users/stapi/OneDrive/Desktop/GD32VW553/V1_MQTT_OK/GD32VW55X_Wifi_BLE_SDK/GD32VW55x_RELEASE_V1.0.2/MSDK/cloud/alicloud/src/services/linkkit/dm\dm_utils.c ****     if (input == NULL || output == NULL || *output != NULL) {
 100              		.loc 1 27 5
 101              		.loc 1 27 8 is_stmt 0
 102 0000 21CD     		beq	a0,zero,.L13
  26:C:/Users/stapi/OneDrive/Desktop/GD32VW553/V1_MQTT_OK/GD32VW55X_Wifi_BLE_SDK/GD32VW55x_RELEASE_V1.0.2/MSDK/cloud/alicloud/src/services/linkkit/dm\dm_utils.c ****     if (input == NULL || output == NULL || *output != NULL) {
 103              		.loc 1 26 1 discriminator 1
 104 0002 17030000 		call	t0,__riscv_save_3
 104      E7020300 
 105              		.cfi_offset 18, -16
 106              		.cfi_offset 9, -12
 107              		.cfi_offset 8, -8
 108              		.cfi_offset 1, -4
 109              		.cfi_def_cfa_offset 16
 110 000a 4111     		addi	sp,sp,-16
 111              		.cfi_def_cfa_offset 32
 112 000c 3284     		mv	s0,a2
  28:C:/Users/stapi/OneDrive/Desktop/GD32VW553/V1_MQTT_OK/GD32VW55X_Wifi_BLE_SDK/GD32VW55x_RELEASE_V1.0.2/MSDK/cloud/alicloud/src/services/linkkit/dm\dm_utils.c ****         return DM_INVALID_PARAMETER;
 113              		.loc 1 28 16 discriminator 1
 114 000e F957     		li	a5,-2
  27:C:/Users/stapi/OneDrive/Desktop/GD32VW553/V1_MQTT_OK/GD32VW55X_Wifi_BLE_SDK/GD32VW55x_RELEASE_V1.0.2/MSDK/cloud/alicloud/src/services/linkkit/dm\dm_utils.c ****     if (input == NULL || output == NULL || *output != NULL) {
 115              		.loc 1 27 23 discriminator 1
 116 0010 15CE     		beq	a2,zero,.L11
  27:C:/Users/stapi/OneDrive/Desktop/GD32VW553/V1_MQTT_OK/GD32VW55X_Wifi_BLE_SDK/GD32VW55x_RELEASE_V1.0.2/MSDK/cloud/alicloud/src/services/linkkit/dm\dm_utils.c ****     if (input == NULL || output == NULL || *output != NULL) {
 117              		.loc 1 27 41 discriminator 2
 118 0012 1842     		lw	a4,0(a2)
 119 0014 05EF     		bne	a4,zero,.L11
 120 0016 AA84     		mv	s1,a0
 121 0018 2E89     		mv	s2,a1
 122 001a 3686     		mv	a2,a3
 123              	.LVL9:
  29:C:/Users/stapi/OneDrive/Desktop/GD32VW553/V1_MQTT_OK/GD32VW55X_Wifi_BLE_SDK/GD32VW55x_RELEASE_V1.0.2/MSDK/cloud/alicloud/src/services/linkkit/dm\dm_utils.c ****     }
  30:C:/Users/stapi/OneDrive/Desktop/GD32VW553/V1_MQTT_OK/GD32VW55X_Wifi_BLE_SDK/GD32VW55x_RELEASE_V1.0.2/MSDK/cloud/alicloud/src/services/linkkit/dm\dm_utils.c **** 
  31:C:/Users/stapi/OneDrive/Desktop/GD32VW553/V1_MQTT_OK/GD32VW55X_Wifi_BLE_SDK/GD32VW55x_RELEASE_V1.0.2/MSDK/cloud/alicloud/src/services/linkkit/dm\dm_utils.c ****     *output = DM_malloc(output_len);
 124              		.loc 1 31 5 is_stmt 1
 125              		.loc 1 31 15 is_stmt 0
 126 001c 8145     		li	a1,0
 127              	.LVL10:
 128 001e 0145     		li	a0,0
 129              	.LVL11:
 130 0020 36C6     		sw	a3,12(sp)
 131 0022 97000000 		call	LITE_malloc_internal
 131      E7800000 
 132              	.LVL12:
 133              		.loc 1 31 13
 134 002a 08C0     		sw	a0,0(s0)
  32:C:/Users/stapi/OneDrive/Desktop/GD32VW553/V1_MQTT_OK/GD32VW55X_Wifi_BLE_SDK/GD32VW55x_RELEASE_V1.0.2/MSDK/cloud/alicloud/src/services/linkkit/dm\dm_utils.c ****     if (*output == NULL) {
 135              		.loc 1 32 5 is_stmt 1
  33:C:/Users/stapi/OneDrive/Desktop/GD32VW553/V1_MQTT_OK/GD32VW55X_Wifi_BLE_SDK/GD32VW55x_RELEASE_V1.0.2/MSDK/cloud/alicloud/src/services/linkkit/dm\dm_utils.c ****         return DM_MEMORY_NOT_ENOUGH;
 136              		.loc 1 33 16 is_stmt 0
 137 002c F557     		li	a5,-3
  32:C:/Users/stapi/OneDrive/Desktop/GD32VW553/V1_MQTT_OK/GD32VW55X_Wifi_BLE_SDK/GD32VW55x_RELEASE_V1.0.2/MSDK/cloud/alicloud/src/services/linkkit/dm\dm_utils.c ****     if (*output == NULL) {
 138              		.loc 1 32 8
 139 002e 19CD     		beq	a0,zero,.L11
  34:C:/Users/stapi/OneDrive/Desktop/GD32VW553/V1_MQTT_OK/GD32VW55X_Wifi_BLE_SDK/GD32VW55x_RELEASE_V1.0.2/MSDK/cloud/alicloud/src/services/linkkit/dm\dm_utils.c ****     }
  35:C:/Users/stapi/OneDrive/Desktop/GD32VW553/V1_MQTT_OK/GD32VW55X_Wifi_BLE_SDK/GD32VW55x_RELEASE_V1.0.2/MSDK/cloud/alicloud/src/services/linkkit/dm\dm_utils.c ****     memset(*output, 0, output_len);
 140              		.loc 1 35 5 is_stmt 1
 141 0030 3246     		lw	a2,12(sp)
 142 0032 8145     		li	a1,0
 143 0034 97000000 		call	memset
 143      E7800000 
 144              	.LVL13:
  36:C:/Users/stapi/OneDrive/Desktop/GD32VW553/V1_MQTT_OK/GD32VW55X_Wifi_BLE_SDK/GD32VW55x_RELEASE_V1.0.2/MSDK/cloud/alicloud/src/services/linkkit/dm\dm_utils.c ****     memcpy(*output, input, input_len);
 145              		.loc 1 36 5
 146 003c 0840     		lw	a0,0(s0)
 147 003e 4A86     		mv	a2,s2
 148 0040 A685     		mv	a1,s1
 149 0042 97000000 		call	memcpy
 149      E7800000 
 150              	.LVL14:
  37:C:/Users/stapi/OneDrive/Desktop/GD32VW553/V1_MQTT_OK/GD32VW55X_Wifi_BLE_SDK/GD32VW55x_RELEASE_V1.0.2/MSDK/cloud/alicloud/src/services/linkkit/dm\dm_utils.c **** 
  38:C:/Users/stapi/OneDrive/Desktop/GD32VW553/V1_MQTT_OK/GD32VW55X_Wifi_BLE_SDK/GD32VW55x_RELEASE_V1.0.2/MSDK/cloud/alicloud/src/services/linkkit/dm\dm_utils.c ****     return SUCCESS_RETURN;
 151              		.loc 1 38 5
 152              		.loc 1 38 12 is_stmt 0
 153 004a 8147     		li	a5,0
 154              	.LVL15:
 155              	.L11:
  39:C:/Users/stapi/OneDrive/Desktop/GD32VW553/V1_MQTT_OK/GD32VW55X_Wifi_BLE_SDK/GD32VW55x_RELEASE_V1.0.2/MSDK/cloud/alicloud/src/services/linkkit/dm\dm_utils.c **** }
 156              		.loc 1 39 1
 157 004c 3E85     		mv	a0,a5
 158 004e 4101     		addi	sp,sp,16
 159              		.cfi_def_cfa_offset 0
 160 0050 17030000 		tail	__riscv_restore_3
 160      67000300 
 161              		.cfi_restore 18
 162              		.cfi_restore 9
 163              		.cfi_restore 8
 164              		.cfi_restore 1
 165              		.cfi_def_cfa_offset -16
 166              	.LVL16:
 167              	.L13:
 168              		.cfi_def_cfa_offset 0
  28:C:/Users/stapi/OneDrive/Desktop/GD32VW553/V1_MQTT_OK/GD32VW55X_Wifi_BLE_SDK/GD32VW55x_RELEASE_V1.0.2/MSDK/cloud/alicloud/src/services/linkkit/dm\dm_utils.c ****     }
 169              		.loc 1 28 16
 170 0058 F957     		li	a5,-2
 171              		.loc 1 39 1
 172 005a 3E85     		mv	a0,a5
 173              	.LVL17:
 174 005c 8280     		ret
 175              		.cfi_endproc
 176              	.LFE21:
 178              		.section	.text.dm_utils_strarr_index,"ax",@progbits
 179              		.align	1
 180              		.globl	dm_utils_strarr_index
 182              	dm_utils_strarr_index:
 183              	.LFB22:
  40:C:/Users/stapi/OneDrive/Desktop/GD32VW553/V1_MQTT_OK/GD32VW55X_Wifi_BLE_SDK/GD32VW55x_RELEASE_V1.0.2/MSDK/cloud/alicloud/src/services/linkkit/dm\dm_utils.c **** 
  41:C:/Users/stapi/OneDrive/Desktop/GD32VW553/V1_MQTT_OK/GD32VW55X_Wifi_BLE_SDK/GD32VW55x_RELEASE_V1.0.2/MSDK/cloud/alicloud/src/services/linkkit/dm\dm_utils.c **** int dm_utils_strarr_index(_IN_ char *input, _IN_ int input_len,
  42:C:/Users/stapi/OneDrive/Desktop/GD32VW553/V1_MQTT_OK/GD32VW55X_Wifi_BLE_SDK/GD32VW55x_RELEASE_V1.0.2/MSDK/cloud/alicloud/src/services/linkkit/dm\dm_utils.c ****                           _OU_ int *partial_input_len, _OU_ int *array_input_len, _OU_ int *array_i
  43:C:/Users/stapi/OneDrive/Desktop/GD32VW553/V1_MQTT_OK/GD32VW55X_Wifi_BLE_SDK/GD32VW55x_RELEASE_V1.0.2/MSDK/cloud/alicloud/src/services/linkkit/dm\dm_utils.c **** {
 184              		.loc 1 43 1 is_stmt 1
 185              		.cfi_startproc
 186              	.LVL18:
  44:C:/Users/stapi/OneDrive/Desktop/GD32VW553/V1_MQTT_OK/GD32VW55X_Wifi_BLE_SDK/GD32VW55x_RELEASE_V1.0.2/MSDK/cloud/alicloud/src/services/linkkit/dm\dm_utils.c ****     if (input == NULL || input_len <= 1 || array_index == NULL) {
 187              		.loc 1 44 5
 188              		.loc 1 44 8 is_stmt 0
 189 0000 61C1     		beq	a0,zero,.L31
  43:C:/Users/stapi/OneDrive/Desktop/GD32VW553/V1_MQTT_OK/GD32VW55X_Wifi_BLE_SDK/GD32VW55x_RELEASE_V1.0.2/MSDK/cloud/alicloud/src/services/linkkit/dm\dm_utils.c ****     if (input == NULL || input_len <= 1 || array_index == NULL) {
 190              		.loc 1 43 1 discriminator 1
 191 0002 17030000 		call	t0,__riscv_save_1
 191      E7020300 
 192              		.cfi_offset 8, -8
 193              		.cfi_offset 1, -4
 194              		.cfi_def_cfa_offset 16
 195 000a 3A84     		mv	s0,a4
 196              		.loc 1 44 23 discriminator 1
 197 000c 0547     		li	a4,1
 198              	.LVL19:
 199 000e AA87     		mv	a5,a0
  43:C:/Users/stapi/OneDrive/Desktop/GD32VW553/V1_MQTT_OK/GD32VW55X_Wifi_BLE_SDK/GD32VW55x_RELEASE_V1.0.2/MSDK/cloud/alicloud/src/services/linkkit/dm\dm_utils.c ****     if (input == NULL || input_len <= 1 || array_index == NULL) {
 200              		.loc 1 43 1 discriminator 1
 201 0010 4111     		addi	sp,sp,-16
 202              		.cfi_def_cfa_offset 32
  45:C:/Users/stapi/OneDrive/Desktop/GD32VW553/V1_MQTT_OK/GD32VW55X_Wifi_BLE_SDK/GD32VW55x_RELEASE_V1.0.2/MSDK/cloud/alicloud/src/services/linkkit/dm\dm_utils.c ****         return DM_INVALID_PARAMETER;
 203              		.loc 1 45 16 discriminator 1
 204 0012 7955     		li	a0,-2
 205              	.LVL20:
  44:C:/Users/stapi/OneDrive/Desktop/GD32VW553/V1_MQTT_OK/GD32VW55X_Wifi_BLE_SDK/GD32VW55x_RELEASE_V1.0.2/MSDK/cloud/alicloud/src/services/linkkit/dm\dm_utils.c ****     if (input == NULL || input_len <= 1 || array_index == NULL) {
 206              		.loc 1 44 23 discriminator 1
 207 0014 6352B708 		ble	a1,a4,.L21
  44:C:/Users/stapi/OneDrive/Desktop/GD32VW553/V1_MQTT_OK/GD32VW55X_Wifi_BLE_SDK/GD32VW55x_RELEASE_V1.0.2/MSDK/cloud/alicloud/src/services/linkkit/dm\dm_utils.c ****     if (input == NULL || input_len <= 1 || array_index == NULL) {
 208              		.loc 1 44 41 discriminator 2
 209 0018 41C0     		beq	s0,zero,.L21
  46:C:/Users/stapi/OneDrive/Desktop/GD32VW553/V1_MQTT_OK/GD32VW55X_Wifi_BLE_SDK/GD32VW55x_RELEASE_V1.0.2/MSDK/cloud/alicloud/src/services/linkkit/dm\dm_utils.c ****     }
  47:C:/Users/stapi/OneDrive/Desktop/GD32VW553/V1_MQTT_OK/GD32VW55X_Wifi_BLE_SDK/GD32VW55x_RELEASE_V1.0.2/MSDK/cloud/alicloud/src/services/linkkit/dm\dm_utils.c **** 
  48:C:/Users/stapi/OneDrive/Desktop/GD32VW553/V1_MQTT_OK/GD32VW55X_Wifi_BLE_SDK/GD32VW55x_RELEASE_V1.0.2/MSDK/cloud/alicloud/src/services/linkkit/dm\dm_utils.c ****     int index = 0;
 210              		.loc 1 48 5 is_stmt 1
 211              	.LVL21:
  49:C:/Users/stapi/OneDrive/Desktop/GD32VW553/V1_MQTT_OK/GD32VW55X_Wifi_BLE_SDK/GD32VW55x_RELEASE_V1.0.2/MSDK/cloud/alicloud/src/services/linkkit/dm\dm_utils.c ****     int deep = 0;
 212              		.loc 1 49 5
  50:C:/Users/stapi/OneDrive/Desktop/GD32VW553/V1_MQTT_OK/GD32VW55X_Wifi_BLE_SDK/GD32VW55x_RELEASE_V1.0.2/MSDK/cloud/alicloud/src/services/linkkit/dm\dm_utils.c ****     char *bracket_pre = NULL;
 213              		.loc 1 50 5
  51:C:/Users/stapi/OneDrive/Desktop/GD32VW553/V1_MQTT_OK/GD32VW55X_Wifi_BLE_SDK/GD32VW55x_RELEASE_V1.0.2/MSDK/cloud/alicloud/src/services/linkkit/dm\dm_utils.c ****     char *bracket_suf = NULL;
 214              		.loc 1 51 5
  52:C:/Users/stapi/OneDrive/Desktop/GD32VW553/V1_MQTT_OK/GD32VW55X_Wifi_BLE_SDK/GD32VW55x_RELEASE_V1.0.2/MSDK/cloud/alicloud/src/services/linkkit/dm\dm_utils.c ****     char array_index_str[11] = {0};
 215              		.loc 1 52 5
 216              		.loc 1 52 10 is_stmt 0
 217 001a 02C2     		sw	zero,4(sp)
 218 001c 02C4     		sw	zero,8(sp)
 219 001e 23160100 		sh	zero,12(sp)
 220 0022 23070100 		sb	zero,14(sp)
  53:C:/Users/stapi/OneDrive/Desktop/GD32VW553/V1_MQTT_OK/GD32VW55X_Wifi_BLE_SDK/GD32VW55x_RELEASE_V1.0.2/MSDK/cloud/alicloud/src/services/linkkit/dm\dm_utils.c **** 
  54:C:/Users/stapi/OneDrive/Desktop/GD32VW553/V1_MQTT_OK/GD32VW55X_Wifi_BLE_SDK/GD32VW55x_RELEASE_V1.0.2/MSDK/cloud/alicloud/src/services/linkkit/dm\dm_utils.c ****     for (index = 0; index < input_len; index++) {
 221              		.loc 1 54 5 is_stmt 1
 222              		.loc 1 54 21
 223 0026 3E88     		mv	a6,a5
 224 0028 B38EF500 		add	t4,a1,a5
  51:C:/Users/stapi/OneDrive/Desktop/GD32VW553/V1_MQTT_OK/GD32VW55X_Wifi_BLE_SDK/GD32VW55x_RELEASE_V1.0.2/MSDK/cloud/alicloud/src/services/linkkit/dm\dm_utils.c ****     char array_index_str[11] = {0};
 225              		.loc 1 51 11 is_stmt 0
 226 002c 0145     		li	a0,0
  50:C:/Users/stapi/OneDrive/Desktop/GD32VW553/V1_MQTT_OK/GD32VW55X_Wifi_BLE_SDK/GD32VW55x_RELEASE_V1.0.2/MSDK/cloud/alicloud/src/services/linkkit/dm\dm_utils.c ****     char *bracket_suf = NULL;
 227              		.loc 1 50 11
 228 002e 8148     		li	a7,0
  49:C:/Users/stapi/OneDrive/Desktop/GD32VW553/V1_MQTT_OK/GD32VW55X_Wifi_BLE_SDK/GD32VW55x_RELEASE_V1.0.2/MSDK/cloud/alicloud/src/services/linkkit/dm\dm_utils.c ****     char *bracket_pre = NULL;
 229              		.loc 1 49 9
 230 0030 0147     		li	a4,0
  55:C:/Users/stapi/OneDrive/Desktop/GD32VW553/V1_MQTT_OK/GD32VW55X_Wifi_BLE_SDK/GD32VW55x_RELEASE_V1.0.2/MSDK/cloud/alicloud/src/services/linkkit/dm\dm_utils.c ****         switch (input[index]) {
 231              		.loc 1 55 9
 232 0032 1303B005 		li	t1,91
  56:C:/Users/stapi/OneDrive/Desktop/GD32VW553/V1_MQTT_OK/GD32VW55X_Wifi_BLE_SDK/GD32VW55x_RELEASE_V1.0.2/MSDK/cloud/alicloud/src/services/linkkit/dm\dm_utils.c ****             case '[': {
  57:C:/Users/stapi/OneDrive/Desktop/GD32VW553/V1_MQTT_OK/GD32VW55X_Wifi_BLE_SDK/GD32VW55x_RELEASE_V1.0.2/MSDK/cloud/alicloud/src/services/linkkit/dm\dm_utils.c ****                 if (deep != 0) {
  58:C:/Users/stapi/OneDrive/Desktop/GD32VW553/V1_MQTT_OK/GD32VW55X_Wifi_BLE_SDK/GD32VW55x_RELEASE_V1.0.2/MSDK/cloud/alicloud/src/services/linkkit/dm\dm_utils.c ****                     return FAIL_RETURN;
  59:C:/Users/stapi/OneDrive/Desktop/GD32VW553/V1_MQTT_OK/GD32VW55X_Wifi_BLE_SDK/GD32VW55x_RELEASE_V1.0.2/MSDK/cloud/alicloud/src/services/linkkit/dm\dm_utils.c ****                 }
  60:C:/Users/stapi/OneDrive/Desktop/GD32VW553/V1_MQTT_OK/GD32VW55X_Wifi_BLE_SDK/GD32VW55x_RELEASE_V1.0.2/MSDK/cloud/alicloud/src/services/linkkit/dm\dm_utils.c ****                 deep++;
 233              		.loc 1 60 21
 234 0036 054F     		li	t5,1
  55:C:/Users/stapi/OneDrive/Desktop/GD32VW553/V1_MQTT_OK/GD32VW55X_Wifi_BLE_SDK/GD32VW55x_RELEASE_V1.0.2/MSDK/cloud/alicloud/src/services/linkkit/dm\dm_utils.c ****         switch (input[index]) {
 235              		.loc 1 55 9
 236 0038 930FD005 		li	t6,93
 237              	.LVL22:
 238              	.L28:
  55:C:/Users/stapi/OneDrive/Desktop/GD32VW553/V1_MQTT_OK/GD32VW55X_Wifi_BLE_SDK/GD32VW55x_RELEASE_V1.0.2/MSDK/cloud/alicloud/src/services/linkkit/dm\dm_utils.c ****         switch (input[index]) {
 239              		.loc 1 55 9 is_stmt 1
  55:C:/Users/stapi/OneDrive/Desktop/GD32VW553/V1_MQTT_OK/GD32VW55X_Wifi_BLE_SDK/GD32VW55x_RELEASE_V1.0.2/MSDK/cloud/alicloud/src/services/linkkit/dm\dm_utils.c ****         switch (input[index]) {
 240              		.loc 1 55 22 is_stmt 0
 241 003c 030E0800 		lb	t3,0(a6)
  55:C:/Users/stapi/OneDrive/Desktop/GD32VW553/V1_MQTT_OK/GD32VW55X_Wifi_BLE_SDK/GD32VW55x_RELEASE_V1.0.2/MSDK/cloud/alicloud/src/services/linkkit/dm\dm_utils.c ****         switch (input[index]) {
 242              		.loc 1 55 9
 243 0040 630A6E04 		beq	t3,t1,.L23
 244 0044 6304FE07 		beq	t3,t6,.L24
 245              	.LVL23:
 246              	.L25:
  54:C:/Users/stapi/OneDrive/Desktop/GD32VW553/V1_MQTT_OK/GD32VW55X_Wifi_BLE_SDK/GD32VW55x_RELEASE_V1.0.2/MSDK/cloud/alicloud/src/services/linkkit/dm\dm_utils.c ****         switch (input[index]) {
 247              		.loc 1 54 40 is_stmt 1 discriminator 2
  54:C:/Users/stapi/OneDrive/Desktop/GD32VW553/V1_MQTT_OK/GD32VW55X_Wifi_BLE_SDK/GD32VW55x_RELEASE_V1.0.2/MSDK/cloud/alicloud/src/services/linkkit/dm\dm_utils.c ****         switch (input[index]) {
 248              		.loc 1 54 21 discriminator 2
  54:C:/Users/stapi/OneDrive/Desktop/GD32VW553/V1_MQTT_OK/GD32VW55X_Wifi_BLE_SDK/GD32VW55x_RELEASE_V1.0.2/MSDK/cloud/alicloud/src/services/linkkit/dm\dm_utils.c ****         switch (input[index]) {
 249              		.loc 1 54 5 is_stmt 0 discriminator 2
 250 0048 0508     		addi	a6,a6,1
 251              	.LVL24:
 252 004a E319D8FF 		bne	a6,t4,.L28
  61:C:/Users/stapi/OneDrive/Desktop/GD32VW553/V1_MQTT_OK/GD32VW55X_Wifi_BLE_SDK/GD32VW55x_RELEASE_V1.0.2/MSDK/cloud/alicloud/src/services/linkkit/dm\dm_utils.c ****                 if (!bracket_pre) {
  62:C:/Users/stapi/OneDrive/Desktop/GD32VW553/V1_MQTT_OK/GD32VW55X_Wifi_BLE_SDK/GD32VW55x_RELEASE_V1.0.2/MSDK/cloud/alicloud/src/services/linkkit/dm\dm_utils.c ****                     bracket_pre = (char *)&input[index];
  63:C:/Users/stapi/OneDrive/Desktop/GD32VW553/V1_MQTT_OK/GD32VW55X_Wifi_BLE_SDK/GD32VW55x_RELEASE_V1.0.2/MSDK/cloud/alicloud/src/services/linkkit/dm\dm_utils.c ****                 }
  64:C:/Users/stapi/OneDrive/Desktop/GD32VW553/V1_MQTT_OK/GD32VW55X_Wifi_BLE_SDK/GD32VW55x_RELEASE_V1.0.2/MSDK/cloud/alicloud/src/services/linkkit/dm\dm_utils.c ****             }
  65:C:/Users/stapi/OneDrive/Desktop/GD32VW553/V1_MQTT_OK/GD32VW55X_Wifi_BLE_SDK/GD32VW55x_RELEASE_V1.0.2/MSDK/cloud/alicloud/src/services/linkkit/dm\dm_utils.c ****             break;
  66:C:/Users/stapi/OneDrive/Desktop/GD32VW553/V1_MQTT_OK/GD32VW55X_Wifi_BLE_SDK/GD32VW55x_RELEASE_V1.0.2/MSDK/cloud/alicloud/src/services/linkkit/dm\dm_utils.c ****             case ']': {
  67:C:/Users/stapi/OneDrive/Desktop/GD32VW553/V1_MQTT_OK/GD32VW55X_Wifi_BLE_SDK/GD32VW55x_RELEASE_V1.0.2/MSDK/cloud/alicloud/src/services/linkkit/dm\dm_utils.c ****                 if (deep != 1) {
  68:C:/Users/stapi/OneDrive/Desktop/GD32VW553/V1_MQTT_OK/GD32VW55X_Wifi_BLE_SDK/GD32VW55x_RELEASE_V1.0.2/MSDK/cloud/alicloud/src/services/linkkit/dm\dm_utils.c ****                     return FAIL_RETURN;
  69:C:/Users/stapi/OneDrive/Desktop/GD32VW553/V1_MQTT_OK/GD32VW55X_Wifi_BLE_SDK/GD32VW55x_RELEASE_V1.0.2/MSDK/cloud/alicloud/src/services/linkkit/dm\dm_utils.c ****                 }
  70:C:/Users/stapi/OneDrive/Desktop/GD32VW553/V1_MQTT_OK/GD32VW55X_Wifi_BLE_SDK/GD32VW55x_RELEASE_V1.0.2/MSDK/cloud/alicloud/src/services/linkkit/dm\dm_utils.c ****                 deep--;
  71:C:/Users/stapi/OneDrive/Desktop/GD32VW553/V1_MQTT_OK/GD32VW55X_Wifi_BLE_SDK/GD32VW55x_RELEASE_V1.0.2/MSDK/cloud/alicloud/src/services/linkkit/dm\dm_utils.c ****                 if (input[index  - 1] == '[') {
  72:C:/Users/stapi/OneDrive/Desktop/GD32VW553/V1_MQTT_OK/GD32VW55X_Wifi_BLE_SDK/GD32VW55x_RELEASE_V1.0.2/MSDK/cloud/alicloud/src/services/linkkit/dm\dm_utils.c ****                     return FAIL_RETURN;
  73:C:/Users/stapi/OneDrive/Desktop/GD32VW553/V1_MQTT_OK/GD32VW55X_Wifi_BLE_SDK/GD32VW55x_RELEASE_V1.0.2/MSDK/cloud/alicloud/src/services/linkkit/dm\dm_utils.c ****                 }
  74:C:/Users/stapi/OneDrive/Desktop/GD32VW553/V1_MQTT_OK/GD32VW55X_Wifi_BLE_SDK/GD32VW55x_RELEASE_V1.0.2/MSDK/cloud/alicloud/src/services/linkkit/dm\dm_utils.c ****                 if (!bracket_suf) {
  75:C:/Users/stapi/OneDrive/Desktop/GD32VW553/V1_MQTT_OK/GD32VW55X_Wifi_BLE_SDK/GD32VW55x_RELEASE_V1.0.2/MSDK/cloud/alicloud/src/services/linkkit/dm\dm_utils.c ****                     bracket_suf = (char *)&input[index];
  76:C:/Users/stapi/OneDrive/Desktop/GD32VW553/V1_MQTT_OK/GD32VW55X_Wifi_BLE_SDK/GD32VW55x_RELEASE_V1.0.2/MSDK/cloud/alicloud/src/services/linkkit/dm\dm_utils.c ****                 }
  77:C:/Users/stapi/OneDrive/Desktop/GD32VW553/V1_MQTT_OK/GD32VW55X_Wifi_BLE_SDK/GD32VW55x_RELEASE_V1.0.2/MSDK/cloud/alicloud/src/services/linkkit/dm\dm_utils.c ****             }
  78:C:/Users/stapi/OneDrive/Desktop/GD32VW553/V1_MQTT_OK/GD32VW55X_Wifi_BLE_SDK/GD32VW55x_RELEASE_V1.0.2/MSDK/cloud/alicloud/src/services/linkkit/dm\dm_utils.c ****             break;
  79:C:/Users/stapi/OneDrive/Desktop/GD32VW553/V1_MQTT_OK/GD32VW55X_Wifi_BLE_SDK/GD32VW55x_RELEASE_V1.0.2/MSDK/cloud/alicloud/src/services/linkkit/dm\dm_utils.c ****             default:
  80:C:/Users/stapi/OneDrive/Desktop/GD32VW553/V1_MQTT_OK/GD32VW55X_Wifi_BLE_SDK/GD32VW55x_RELEASE_V1.0.2/MSDK/cloud/alicloud/src/services/linkkit/dm\dm_utils.c ****                 break;
  81:C:/Users/stapi/OneDrive/Desktop/GD32VW553/V1_MQTT_OK/GD32VW55X_Wifi_BLE_SDK/GD32VW55x_RELEASE_V1.0.2/MSDK/cloud/alicloud/src/services/linkkit/dm\dm_utils.c ****         }
  82:C:/Users/stapi/OneDrive/Desktop/GD32VW553/V1_MQTT_OK/GD32VW55X_Wifi_BLE_SDK/GD32VW55x_RELEASE_V1.0.2/MSDK/cloud/alicloud/src/services/linkkit/dm\dm_utils.c ****     }
  83:C:/Users/stapi/OneDrive/Desktop/GD32VW553/V1_MQTT_OK/GD32VW55X_Wifi_BLE_SDK/GD32VW55x_RELEASE_V1.0.2/MSDK/cloud/alicloud/src/services/linkkit/dm\dm_utils.c **** 
  84:C:/Users/stapi/OneDrive/Desktop/GD32VW553/V1_MQTT_OK/GD32VW55X_Wifi_BLE_SDK/GD32VW55x_RELEASE_V1.0.2/MSDK/cloud/alicloud/src/services/linkkit/dm\dm_utils.c ****     if (bracket_pre && bracket_suf && ((bracket_suf - input + 1) == input_len)) {
 253              		.loc 1 84 5 is_stmt 1
 254              		.loc 1 84 8 is_stmt 0
 255 004e 63840804 		beq	a7,zero,.L27
 256              		.loc 1 84 21 discriminator 1
 257 0052 31C1     		beq	a0,zero,.L27
 258              		.loc 1 84 53 discriminator 2
 259 0054 3307F540 		sub	a4,a0,a5
 260              	.LVL25:
 261              		.loc 1 84 61 discriminator 2
 262 0058 0507     		addi	a4,a4,1
 263              		.loc 1 84 36 discriminator 2
 264 005a 631EB702 		bne	a4,a1,.L27
  85:C:/Users/stapi/OneDrive/Desktop/GD32VW553/V1_MQTT_OK/GD32VW55X_Wifi_BLE_SDK/GD32VW55x_RELEASE_V1.0.2/MSDK/cloud/alicloud/src/services/linkkit/dm\dm_utils.c ****         if (partial_input_len) {
 265              		.loc 1 85 9 is_stmt 1
 266              		.loc 1 85 12 is_stmt 0
 267 005e 01C6     		beq	a2,zero,.L29
  86:C:/Users/stapi/OneDrive/Desktop/GD32VW553/V1_MQTT_OK/GD32VW55X_Wifi_BLE_SDK/GD32VW55x_RELEASE_V1.0.2/MSDK/cloud/alicloud/src/services/linkkit/dm\dm_utils.c ****             *partial_input_len = bracket_pre - input;
 268              		.loc 1 86 13 is_stmt 1
 269              		.loc 1 86 46 is_stmt 0
 270 0060 B387F840 		sub	a5,a7,a5
 271              	.LVL26:
 272              		.loc 1 86 32
 273 0064 1CC2     		sw	a5,0(a2)
 274              	.L29:
  87:C:/Users/stapi/OneDrive/Desktop/GD32VW553/V1_MQTT_OK/GD32VW55X_Wifi_BLE_SDK/GD32VW55x_RELEASE_V1.0.2/MSDK/cloud/alicloud/src/services/linkkit/dm\dm_utils.c ****         }
  88:C:/Users/stapi/OneDrive/Desktop/GD32VW553/V1_MQTT_OK/GD32VW55X_Wifi_BLE_SDK/GD32VW55x_RELEASE_V1.0.2/MSDK/cloud/alicloud/src/services/linkkit/dm\dm_utils.c ****         if (array_input_len) {
 275              		.loc 1 88 9 is_stmt 1
 276              		.loc 1 88 12 is_stmt 0
 277 0066 91C2     		beq	a3,zero,.L30
  89:C:/Users/stapi/OneDrive/Desktop/GD32VW553/V1_MQTT_OK/GD32VW55X_Wifi_BLE_SDK/GD32VW55x_RELEASE_V1.0.2/MSDK/cloud/alicloud/src/services/linkkit/dm\dm_utils.c ****             *array_input_len = bracket_suf - input + 1;
 278              		.loc 1 89 13 is_stmt 1
 279              		.loc 1 89 30 is_stmt 0
 280 0068 8CC2     		sw	a1,0(a3)
 281              	.L30:
  90:C:/Users/stapi/OneDrive/Desktop/GD32VW553/V1_MQTT_OK/GD32VW55X_Wifi_BLE_SDK/GD32VW55x_RELEASE_V1.0.2/MSDK/cloud/alicloud/src/services/linkkit/dm\dm_utils.c ****         }
  91:C:/Users/stapi/OneDrive/Desktop/GD32VW553/V1_MQTT_OK/GD32VW55X_Wifi_BLE_SDK/GD32VW55x_RELEASE_V1.0.2/MSDK/cloud/alicloud/src/services/linkkit/dm\dm_utils.c **** 
  92:C:/Users/stapi/OneDrive/Desktop/GD32VW553/V1_MQTT_OK/GD32VW55X_Wifi_BLE_SDK/GD32VW55x_RELEASE_V1.0.2/MSDK/cloud/alicloud/src/services/linkkit/dm\dm_utils.c ****         //Get Index
  93:C:/Users/stapi/OneDrive/Desktop/GD32VW553/V1_MQTT_OK/GD32VW55X_Wifi_BLE_SDK/GD32VW55x_RELEASE_V1.0.2/MSDK/cloud/alicloud/src/services/linkkit/dm\dm_utils.c ****         if(bracket_suf - bracket_pre - 1 > 10) {
 282              		.loc 1 93 9 is_stmt 1
 283              		.loc 1 93 24 is_stmt 0
 284 006a 33061541 		sub	a2,a0,a7
 285              	.LVL27:
 286              		.loc 1 93 11
 287 006e AD47     		li	a5,11
 288 0070 63C3C702 		bgt	a2,a5,.L27
  94:C:/Users/stapi/OneDrive/Desktop/GD32VW553/V1_MQTT_OK/GD32VW55X_Wifi_BLE_SDK/GD32VW55x_RELEASE_V1.0.2/MSDK/cloud/alicloud/src/services/linkkit/dm\dm_utils.c ****             return FAIL_RETURN;
  95:C:/Users/stapi/OneDrive/Desktop/GD32VW553/V1_MQTT_OK/GD32VW55X_Wifi_BLE_SDK/GD32VW55x_RELEASE_V1.0.2/MSDK/cloud/alicloud/src/services/linkkit/dm\dm_utils.c ****         }
  96:C:/Users/stapi/OneDrive/Desktop/GD32VW553/V1_MQTT_OK/GD32VW55X_Wifi_BLE_SDK/GD32VW55x_RELEASE_V1.0.2/MSDK/cloud/alicloud/src/services/linkkit/dm\dm_utils.c ****         memcpy(array_index_str, bracket_pre + 1, bracket_suf - bracket_pre - 1);
 289              		.loc 1 96 9 is_stmt 1
 290 0074 7D16     		addi	a2,a2,-1
 291 0076 93851800 		addi	a1,a7,1
 292              	.LVL28:
 293 007a 4800     		addi	a0,sp,4
 294              	.LVL29:
 295 007c 97000000 		call	memcpy
 295      E7800000 
 296              	.LVL30:
  97:C:/Users/stapi/OneDrive/Desktop/GD32VW553/V1_MQTT_OK/GD32VW55X_Wifi_BLE_SDK/GD32VW55x_RELEASE_V1.0.2/MSDK/cloud/alicloud/src/services/linkkit/dm\dm_utils.c ****         *array_index = atoi(array_index_str);
 297              		.loc 1 97 9
 298              		.loc 1 97 24 is_stmt 0
 299 0084 4800     		addi	a0,sp,4
 300 0086 97000000 		call	atoi
 300      E7800000 
 301              	.LVL31:
 302              		.loc 1 97 22
 303 008e 08C0     		sw	a0,0(s0)
  98:C:/Users/stapi/OneDrive/Desktop/GD32VW553/V1_MQTT_OK/GD32VW55X_Wifi_BLE_SDK/GD32VW55x_RELEASE_V1.0.2/MSDK/cloud/alicloud/src/services/linkkit/dm\dm_utils.c ****         return SUCCESS_RETURN;
 304              		.loc 1 98 9 is_stmt 1
 305              		.loc 1 98 16 is_stmt 0
 306 0090 0145     		li	a0,0
 307 0092 19A0     		j	.L21
 308              	.LVL32:
 309              	.L23:
  57:C:/Users/stapi/OneDrive/Desktop/GD32VW553/V1_MQTT_OK/GD32VW55X_Wifi_BLE_SDK/GD32VW55x_RELEASE_V1.0.2/MSDK/cloud/alicloud/src/services/linkkit/dm\dm_utils.c ****                     return FAIL_RETURN;
 310              		.loc 1 57 17 is_stmt 1
  57:C:/Users/stapi/OneDrive/Desktop/GD32VW553/V1_MQTT_OK/GD32VW55X_Wifi_BLE_SDK/GD32VW55x_RELEASE_V1.0.2/MSDK/cloud/alicloud/src/services/linkkit/dm\dm_utils.c ****                     return FAIL_RETURN;
 311              		.loc 1 57 20 is_stmt 0
 312 0094 19C7     		beq	a4,zero,.L26
 313              	.LVL33:
 314              	.L27:
  58:C:/Users/stapi/OneDrive/Desktop/GD32VW553/V1_MQTT_OK/GD32VW55X_Wifi_BLE_SDK/GD32VW55x_RELEASE_V1.0.2/MSDK/cloud/alicloud/src/services/linkkit/dm\dm_utils.c ****                 }
 315              		.loc 1 58 28
 316 0096 7D55     		li	a0,-1
 317              	.LVL34:
 318              	.L21:
  99:C:/Users/stapi/OneDrive/Desktop/GD32VW553/V1_MQTT_OK/GD32VW55X_Wifi_BLE_SDK/GD32VW55x_RELEASE_V1.0.2/MSDK/cloud/alicloud/src/services/linkkit/dm\dm_utils.c ****     }
 100:C:/Users/stapi/OneDrive/Desktop/GD32VW553/V1_MQTT_OK/GD32VW55X_Wifi_BLE_SDK/GD32VW55x_RELEASE_V1.0.2/MSDK/cloud/alicloud/src/services/linkkit/dm\dm_utils.c **** 
 101:C:/Users/stapi/OneDrive/Desktop/GD32VW553/V1_MQTT_OK/GD32VW55X_Wifi_BLE_SDK/GD32VW55x_RELEASE_V1.0.2/MSDK/cloud/alicloud/src/services/linkkit/dm\dm_utils.c ****     return FAIL_RETURN;
 102:C:/Users/stapi/OneDrive/Desktop/GD32VW553/V1_MQTT_OK/GD32VW55X_Wifi_BLE_SDK/GD32VW55x_RELEASE_V1.0.2/MSDK/cloud/alicloud/src/services/linkkit/dm\dm_utils.c **** }
 319              		.loc 1 102 1
 320 0098 4101     		addi	sp,sp,16
 321              		.cfi_remember_state
 322              		.cfi_def_cfa_offset 0
 323 009a 17030000 		tail	__riscv_restore_1
 323      67000300 
 324              		.cfi_restore 8
 325              		.cfi_restore 1
 326              		.cfi_def_cfa_offset -16
 327              	.LVL35:
 328              	.L26:
 329              		.cfi_restore_state
  60:C:/Users/stapi/OneDrive/Desktop/GD32VW553/V1_MQTT_OK/GD32VW55X_Wifi_BLE_SDK/GD32VW55x_RELEASE_V1.0.2/MSDK/cloud/alicloud/src/services/linkkit/dm\dm_utils.c ****                 if (!bracket_pre) {
 330              		.loc 1 60 17 is_stmt 1
  61:C:/Users/stapi/OneDrive/Desktop/GD32VW553/V1_MQTT_OK/GD32VW55X_Wifi_BLE_SDK/GD32VW55x_RELEASE_V1.0.2/MSDK/cloud/alicloud/src/services/linkkit/dm\dm_utils.c ****                     bracket_pre = (char *)&input[index];
 331              		.loc 1 61 17
  60:C:/Users/stapi/OneDrive/Desktop/GD32VW553/V1_MQTT_OK/GD32VW55X_Wifi_BLE_SDK/GD32VW55x_RELEASE_V1.0.2/MSDK/cloud/alicloud/src/services/linkkit/dm\dm_utils.c ****                 if (!bracket_pre) {
 332              		.loc 1 60 21 is_stmt 0
 333 00a2 0547     		li	a4,1
  61:C:/Users/stapi/OneDrive/Desktop/GD32VW553/V1_MQTT_OK/GD32VW55X_Wifi_BLE_SDK/GD32VW55x_RELEASE_V1.0.2/MSDK/cloud/alicloud/src/services/linkkit/dm\dm_utils.c ****                     bracket_pre = (char *)&input[index];
 334              		.loc 1 61 20
 335 00a4 E39208FA 		bne	a7,zero,.L25
 336 00a8 C288     		mv	a7,a6
 337              	.LVL36:
 338 00aa 79BF     		j	.L25
 339              	.LVL37:
 340              	.L24:
  67:C:/Users/stapi/OneDrive/Desktop/GD32VW553/V1_MQTT_OK/GD32VW55X_Wifi_BLE_SDK/GD32VW55x_RELEASE_V1.0.2/MSDK/cloud/alicloud/src/services/linkkit/dm\dm_utils.c ****                     return FAIL_RETURN;
 341              		.loc 1 67 17 is_stmt 1
  67:C:/Users/stapi/OneDrive/Desktop/GD32VW553/V1_MQTT_OK/GD32VW55X_Wifi_BLE_SDK/GD32VW55x_RELEASE_V1.0.2/MSDK/cloud/alicloud/src/services/linkkit/dm\dm_utils.c ****                     return FAIL_RETURN;
 342              		.loc 1 67 20 is_stmt 0
 343 00ac E315E7FF 		bne	a4,t5,.L27
  70:C:/Users/stapi/OneDrive/Desktop/GD32VW553/V1_MQTT_OK/GD32VW55X_Wifi_BLE_SDK/GD32VW55x_RELEASE_V1.0.2/MSDK/cloud/alicloud/src/services/linkkit/dm\dm_utils.c ****                 if (input[index  - 1] == '[') {
 344              		.loc 1 70 17 is_stmt 1
 345              	.LVL38:
  71:C:/Users/stapi/OneDrive/Desktop/GD32VW553/V1_MQTT_OK/GD32VW55X_Wifi_BLE_SDK/GD32VW55x_RELEASE_V1.0.2/MSDK/cloud/alicloud/src/services/linkkit/dm\dm_utils.c ****                     return FAIL_RETURN;
 346              		.loc 1 71 17
  71:C:/Users/stapi/OneDrive/Desktop/GD32VW553/V1_MQTT_OK/GD32VW55X_Wifi_BLE_SDK/GD32VW55x_RELEASE_V1.0.2/MSDK/cloud/alicloud/src/services/linkkit/dm\dm_utils.c ****                     return FAIL_RETURN;
 347              		.loc 1 71 20 is_stmt 0
 348 00b0 0307F8FF 		lb	a4,-1(a6)
 349 00b4 E30167FE 		beq	a4,t1,.L27
  74:C:/Users/stapi/OneDrive/Desktop/GD32VW553/V1_MQTT_OK/GD32VW55X_Wifi_BLE_SDK/GD32VW55x_RELEASE_V1.0.2/MSDK/cloud/alicloud/src/services/linkkit/dm\dm_utils.c ****                     bracket_suf = (char *)&input[index];
 350              		.loc 1 74 17 is_stmt 1
  70:C:/Users/stapi/OneDrive/Desktop/GD32VW553/V1_MQTT_OK/GD32VW55X_Wifi_BLE_SDK/GD32VW55x_RELEASE_V1.0.2/MSDK/cloud/alicloud/src/services/linkkit/dm\dm_utils.c ****                 if (input[index  - 1] == '[') {
 351              		.loc 1 70 21 is_stmt 0
 352 00b8 0147     		li	a4,0
  74:C:/Users/stapi/OneDrive/Desktop/GD32VW553/V1_MQTT_OK/GD32VW55X_Wifi_BLE_SDK/GD32VW55x_RELEASE_V1.0.2/MSDK/cloud/alicloud/src/services/linkkit/dm\dm_utils.c ****                     bracket_suf = (char *)&input[index];
 353              		.loc 1 74 20
 354 00ba 59F5     		bne	a0,zero,.L25
 355 00bc 4285     		mv	a0,a6
 356              	.LVL39:
 357 00be 69B7     		j	.L25
 358              	.LVL40:
 359              	.L31:
 360              		.cfi_def_cfa_offset 0
 361              		.cfi_restore 1
 362              		.cfi_restore 8
  45:C:/Users/stapi/OneDrive/Desktop/GD32VW553/V1_MQTT_OK/GD32VW55X_Wifi_BLE_SDK/GD32VW55x_RELEASE_V1.0.2/MSDK/cloud/alicloud/src/services/linkkit/dm\dm_utils.c ****     }
 363              		.loc 1 45 16
 364 00c0 7955     		li	a0,-2
 365              	.LVL41:
 366              		.loc 1 102 1
 367 00c2 8280     		ret
 368              		.cfi_endproc
 369              	.LFE22:
 371              		.section	.rodata.dm_utils_itoa_direct.str1.4,"aMS",@progbits,1
 372              		.align	2
 373              	.LC0:
 374 0000 256400   		.string	"%d"
 375              		.section	.text.dm_utils_itoa_direct,"ax",@progbits
 376              		.align	1
 377              		.globl	dm_utils_itoa_direct
 379              	dm_utils_itoa_direct:
 380              	.LFB23:
 103:C:/Users/stapi/OneDrive/Desktop/GD32VW553/V1_MQTT_OK/GD32VW55X_Wifi_BLE_SDK/GD32VW55x_RELEASE_V1.0.2/MSDK/cloud/alicloud/src/services/linkkit/dm\dm_utils.c **** 
 104:C:/Users/stapi/OneDrive/Desktop/GD32VW553/V1_MQTT_OK/GD32VW55X_Wifi_BLE_SDK/GD32VW55x_RELEASE_V1.0.2/MSDK/cloud/alicloud/src/services/linkkit/dm\dm_utils.c **** int dm_utils_itoa_direct(_IN_ int input, _OU_ char **output)
 105:C:/Users/stapi/OneDrive/Desktop/GD32VW553/V1_MQTT_OK/GD32VW55X_Wifi_BLE_SDK/GD32VW55x_RELEASE_V1.0.2/MSDK/cloud/alicloud/src/services/linkkit/dm\dm_utils.c **** {
 381              		.loc 1 105 1 is_stmt 1
 382              		.cfi_startproc
 383              	.LVL42:
 384 0000 17030000 		call	t0,__riscv_save_2
 384      E7020300 
 385              		.cfi_offset 9, -12
 386              		.cfi_offset 8, -8
 387              		.cfi_offset 1, -4
 388              		.cfi_def_cfa_offset 16
 106:C:/Users/stapi/OneDrive/Desktop/GD32VW553/V1_MQTT_OK/GD32VW55X_Wifi_BLE_SDK/GD32VW55x_RELEASE_V1.0.2/MSDK/cloud/alicloud/src/services/linkkit/dm\dm_utils.c ****     int res = 0;
 389              		.loc 1 106 5
 390              	.LVL43:
 107:C:/Users/stapi/OneDrive/Desktop/GD32VW553/V1_MQTT_OK/GD32VW55X_Wifi_BLE_SDK/GD32VW55x_RELEASE_V1.0.2/MSDK/cloud/alicloud/src/services/linkkit/dm\dm_utils.c ****     char temp_output[10 + 1] = {0};
 391              		.loc 1 107 5
 105:C:/Users/stapi/OneDrive/Desktop/GD32VW553/V1_MQTT_OK/GD32VW55X_Wifi_BLE_SDK/GD32VW55x_RELEASE_V1.0.2/MSDK/cloud/alicloud/src/services/linkkit/dm\dm_utils.c ****     int res = 0;
 392              		.loc 1 105 1 is_stmt 0
 393 0008 4111     		addi	sp,sp,-16
 394              		.cfi_def_cfa_offset 32
 395              		.loc 1 107 10
 396 000a 02C2     		sw	zero,4(sp)
 397 000c 02C4     		sw	zero,8(sp)
 398 000e 23160100 		sh	zero,12(sp)
 399 0012 23070100 		sb	zero,14(sp)
 108:C:/Users/stapi/OneDrive/Desktop/GD32VW553/V1_MQTT_OK/GD32VW55X_Wifi_BLE_SDK/GD32VW55x_RELEASE_V1.0.2/MSDK/cloud/alicloud/src/services/linkkit/dm\dm_utils.c **** 
 109:C:/Users/stapi/OneDrive/Desktop/GD32VW553/V1_MQTT_OK/GD32VW55X_Wifi_BLE_SDK/GD32VW55x_RELEASE_V1.0.2/MSDK/cloud/alicloud/src/services/linkkit/dm\dm_utils.c ****     if (output == NULL || *output != NULL) {
 400              		.loc 1 109 5 is_stmt 1
 110:C:/Users/stapi/OneDrive/Desktop/GD32VW553/V1_MQTT_OK/GD32VW55X_Wifi_BLE_SDK/GD32VW55x_RELEASE_V1.0.2/MSDK/cloud/alicloud/src/services/linkkit/dm\dm_utils.c ****         return DM_INVALID_PARAMETER;
 401              		.loc 1 110 16 is_stmt 0
 402 0016 F957     		li	a5,-2
 109:C:/Users/stapi/OneDrive/Desktop/GD32VW553/V1_MQTT_OK/GD32VW55X_Wifi_BLE_SDK/GD32VW55x_RELEASE_V1.0.2/MSDK/cloud/alicloud/src/services/linkkit/dm\dm_utils.c ****         return DM_INVALID_PARAMETER;
 403              		.loc 1 109 8
 404 0018 BDC9     		beq	a1,zero,.L54
 109:C:/Users/stapi/OneDrive/Desktop/GD32VW553/V1_MQTT_OK/GD32VW55X_Wifi_BLE_SDK/GD32VW55x_RELEASE_V1.0.2/MSDK/cloud/alicloud/src/services/linkkit/dm\dm_utils.c ****         return DM_INVALID_PARAMETER;
 405              		.loc 1 109 24 discriminator 1
 406 001a 9841     		lw	a4,0(a1)
 407 001c 2E84     		mv	s0,a1
 408              		.loc 1 110 16 discriminator 1
 409 001e F957     		li	a5,-2
 109:C:/Users/stapi/OneDrive/Desktop/GD32VW553/V1_MQTT_OK/GD32VW55X_Wifi_BLE_SDK/GD32VW55x_RELEASE_V1.0.2/MSDK/cloud/alicloud/src/services/linkkit/dm\dm_utils.c ****         return DM_INVALID_PARAMETER;
 410              		.loc 1 109 24 discriminator 1
 411 0020 3DE7     		bne	a4,zero,.L54
 111:C:/Users/stapi/OneDrive/Desktop/GD32VW553/V1_MQTT_OK/GD32VW55X_Wifi_BLE_SDK/GD32VW55x_RELEASE_V1.0.2/MSDK/cloud/alicloud/src/services/linkkit/dm\dm_utils.c ****     }
 112:C:/Users/stapi/OneDrive/Desktop/GD32VW553/V1_MQTT_OK/GD32VW55X_Wifi_BLE_SDK/GD32VW55x_RELEASE_V1.0.2/MSDK/cloud/alicloud/src/services/linkkit/dm\dm_utils.c **** 
 113:C:/Users/stapi/OneDrive/Desktop/GD32VW553/V1_MQTT_OK/GD32VW55X_Wifi_BLE_SDK/GD32VW55x_RELEASE_V1.0.2/MSDK/cloud/alicloud/src/services/linkkit/dm\dm_utils.c ****     res = HAL_Snprintf(temp_output, 10, "%d", input);
 412              		.loc 1 113 11
 413 0022 37060000 		lui	a2,%hi(.LC0)
 414 0026 AA86     		mv	a3,a0
 415              		.loc 1 113 5 is_stmt 1
 416              		.loc 1 113 11 is_stmt 0
 417 0028 13060600 		addi	a2,a2,%lo(.LC0)
 418 002c A945     		li	a1,10
 419              	.LVL44:
 420 002e 4800     		addi	a0,sp,4
 421              	.LVL45:
 422 0030 97000000 		call	HAL_Snprintf
 422      E7800000 
 423              	.LVL46:
 114:C:/Users/stapi/OneDrive/Desktop/GD32VW553/V1_MQTT_OK/GD32VW55X_Wifi_BLE_SDK/GD32VW55x_RELEASE_V1.0.2/MSDK/cloud/alicloud/src/services/linkkit/dm\dm_utils.c ****     if (res < 0) {
 424              		.loc 1 114 5 is_stmt 1
 115:C:/Users/stapi/OneDrive/Desktop/GD32VW553/V1_MQTT_OK/GD32VW55X_Wifi_BLE_SDK/GD32VW55x_RELEASE_V1.0.2/MSDK/cloud/alicloud/src/services/linkkit/dm\dm_utils.c ****         return FAIL_RETURN;
 425              		.loc 1 115 16 is_stmt 0
 426 0038 FD57     		li	a5,-1
 114:C:/Users/stapi/OneDrive/Desktop/GD32VW553/V1_MQTT_OK/GD32VW55X_Wifi_BLE_SDK/GD32VW55x_RELEASE_V1.0.2/MSDK/cloud/alicloud/src/services/linkkit/dm\dm_utils.c ****     if (res < 0) {
 427              		.loc 1 114 8
 428 003a 634A0504 		blt	a0,zero,.L54
 116:C:/Users/stapi/OneDrive/Desktop/GD32VW553/V1_MQTT_OK/GD32VW55X_Wifi_BLE_SDK/GD32VW55x_RELEASE_V1.0.2/MSDK/cloud/alicloud/src/services/linkkit/dm\dm_utils.c ****     }
 117:C:/Users/stapi/OneDrive/Desktop/GD32VW553/V1_MQTT_OK/GD32VW55X_Wifi_BLE_SDK/GD32VW55x_RELEASE_V1.0.2/MSDK/cloud/alicloud/src/services/linkkit/dm\dm_utils.c **** 
 118:C:/Users/stapi/OneDrive/Desktop/GD32VW553/V1_MQTT_OK/GD32VW55X_Wifi_BLE_SDK/GD32VW55x_RELEASE_V1.0.2/MSDK/cloud/alicloud/src/services/linkkit/dm\dm_utils.c ****     *output = HAL_Malloc(strlen(temp_output) + 1);
 429              		.loc 1 118 5 is_stmt 1
 430              		.loc 1 118 26 is_stmt 0
 431 003e 4800     		addi	a0,sp,4
 432              	.LVL47:
 433 0040 97000000 		call	strlen
 433      E7800000 
 434              	.LVL48:
 435              		.loc 1 118 15
 436 0048 0505     		addi	a0,a0,1
 437 004a 97000000 		call	HAL_Malloc
 437      E7800000 
 438              	.LVL49:
 439              		.loc 1 118 13
 440 0052 08C0     		sw	a0,0(s0)
 119:C:/Users/stapi/OneDrive/Desktop/GD32VW553/V1_MQTT_OK/GD32VW55X_Wifi_BLE_SDK/GD32VW55x_RELEASE_V1.0.2/MSDK/cloud/alicloud/src/services/linkkit/dm\dm_utils.c ****     if (*output == NULL) {
 441              		.loc 1 119 5 is_stmt 1
 118:C:/Users/stapi/OneDrive/Desktop/GD32VW553/V1_MQTT_OK/GD32VW55X_Wifi_BLE_SDK/GD32VW55x_RELEASE_V1.0.2/MSDK/cloud/alicloud/src/services/linkkit/dm\dm_utils.c ****     if (*output == NULL) {
 442              		.loc 1 118 15 is_stmt 0
 443 0054 AA84     		mv	s1,a0
 120:C:/Users/stapi/OneDrive/Desktop/GD32VW553/V1_MQTT_OK/GD32VW55X_Wifi_BLE_SDK/GD32VW55x_RELEASE_V1.0.2/MSDK/cloud/alicloud/src/services/linkkit/dm\dm_utils.c ****         return DM_MEMORY_NOT_ENOUGH;
 444              		.loc 1 120 16
 445 0056 F557     		li	a5,-3
 119:C:/Users/stapi/OneDrive/Desktop/GD32VW553/V1_MQTT_OK/GD32VW55X_Wifi_BLE_SDK/GD32VW55x_RELEASE_V1.0.2/MSDK/cloud/alicloud/src/services/linkkit/dm\dm_utils.c ****     if (*output == NULL) {
 446              		.loc 1 119 8
 447 0058 1DC9     		beq	a0,zero,.L54
 121:C:/Users/stapi/OneDrive/Desktop/GD32VW553/V1_MQTT_OK/GD32VW55X_Wifi_BLE_SDK/GD32VW55x_RELEASE_V1.0.2/MSDK/cloud/alicloud/src/services/linkkit/dm\dm_utils.c ****     }
 122:C:/Users/stapi/OneDrive/Desktop/GD32VW553/V1_MQTT_OK/GD32VW55X_Wifi_BLE_SDK/GD32VW55x_RELEASE_V1.0.2/MSDK/cloud/alicloud/src/services/linkkit/dm\dm_utils.c ****     memset(*output, 0, strlen(temp_output) + 1);
 448              		.loc 1 122 5 is_stmt 1
 449              		.loc 1 122 24 is_stmt 0
 450 005a 4800     		addi	a0,sp,4
 451 005c 97000000 		call	strlen
 451      E7800000 
 452              	.LVL50:
 453              		.loc 1 122 5
 454 0064 13061500 		addi	a2,a0,1
 455 0068 8145     		li	a1,0
 456 006a 2685     		mv	a0,s1
 457 006c 97000000 		call	memset
 457      E7800000 
 458              	.LVL51:
 123:C:/Users/stapi/OneDrive/Desktop/GD32VW553/V1_MQTT_OK/GD32VW55X_Wifi_BLE_SDK/GD32VW55x_RELEASE_V1.0.2/MSDK/cloud/alicloud/src/services/linkkit/dm\dm_utils.c ****     memcpy(*output, temp_output, strlen(temp_output));
 459              		.loc 1 123 5 is_stmt 1
 460 0074 4800     		addi	a0,sp,4
 461 0076 97000000 		call	strlen
 461      E7800000 
 462              	.LVL52:
 463 007e 2A86     		mv	a2,a0
 464 0080 0840     		lw	a0,0(s0)
 465 0082 4C00     		addi	a1,sp,4
 466 0084 97000000 		call	memcpy
 466      E7800000 
 467              	.LVL53:
 124:C:/Users/stapi/OneDrive/Desktop/GD32VW553/V1_MQTT_OK/GD32VW55X_Wifi_BLE_SDK/GD32VW55x_RELEASE_V1.0.2/MSDK/cloud/alicloud/src/services/linkkit/dm\dm_utils.c **** 
 125:C:/Users/stapi/OneDrive/Desktop/GD32VW553/V1_MQTT_OK/GD32VW55X_Wifi_BLE_SDK/GD32VW55x_RELEASE_V1.0.2/MSDK/cloud/alicloud/src/services/linkkit/dm\dm_utils.c ****     return SUCCESS_RETURN;
 468              		.loc 1 125 5
 469              		.loc 1 125 12 is_stmt 0
 470 008c 8147     		li	a5,0
 471              	.LVL54:
 472              	.L54:
 126:C:/Users/stapi/OneDrive/Desktop/GD32VW553/V1_MQTT_OK/GD32VW55X_Wifi_BLE_SDK/GD32VW55x_RELEASE_V1.0.2/MSDK/cloud/alicloud/src/services/linkkit/dm\dm_utils.c **** }
 473              		.loc 1 126 1
 474 008e 3E85     		mv	a0,a5
 475 0090 4101     		addi	sp,sp,16
 476              		.cfi_def_cfa_offset 0
 477 0092 17030000 		tail	__riscv_restore_2
 477      67000300 
 478              		.cfi_restore 9
 479              		.cfi_restore 8
 480              		.cfi_restore 1
 481              		.cfi_def_cfa_offset -16
 482              		.cfi_endproc
 483              	.LFE23:
 485              		.section	.text.dm_utils_itoa,"ax",@progbits
 486              		.align	1
 487              		.globl	dm_utils_itoa
 489              	dm_utils_itoa:
 490              	.LFB24:
 127:C:/Users/stapi/OneDrive/Desktop/GD32VW553/V1_MQTT_OK/GD32VW55X_Wifi_BLE_SDK/GD32VW55x_RELEASE_V1.0.2/MSDK/cloud/alicloud/src/services/linkkit/dm\dm_utils.c **** 
 128:C:/Users/stapi/OneDrive/Desktop/GD32VW553/V1_MQTT_OK/GD32VW55X_Wifi_BLE_SDK/GD32VW55x_RELEASE_V1.0.2/MSDK/cloud/alicloud/src/services/linkkit/dm\dm_utils.c **** int dm_utils_itoa(_IN_ int input, _OU_ char **output)
 129:C:/Users/stapi/OneDrive/Desktop/GD32VW553/V1_MQTT_OK/GD32VW55X_Wifi_BLE_SDK/GD32VW55x_RELEASE_V1.0.2/MSDK/cloud/alicloud/src/services/linkkit/dm\dm_utils.c **** {
 491              		.loc 1 129 1 is_stmt 1
 492              		.cfi_startproc
 493              	.LVL55:
 494 0000 17030000 		call	t0,__riscv_save_2
 494      E7020300 
 495              		.cfi_offset 9, -12
 496              		.cfi_offset 8, -8
 497              		.cfi_offset 1, -4
 498              		.cfi_def_cfa_offset 16
 130:C:/Users/stapi/OneDrive/Desktop/GD32VW553/V1_MQTT_OK/GD32VW55X_Wifi_BLE_SDK/GD32VW55x_RELEASE_V1.0.2/MSDK/cloud/alicloud/src/services/linkkit/dm\dm_utils.c ****     int res = 0;
 499              		.loc 1 130 5
 500              	.LVL56:
 131:C:/Users/stapi/OneDrive/Desktop/GD32VW553/V1_MQTT_OK/GD32VW55X_Wifi_BLE_SDK/GD32VW55x_RELEASE_V1.0.2/MSDK/cloud/alicloud/src/services/linkkit/dm\dm_utils.c ****     char temp_output[10 + 1] = {0};
 501              		.loc 1 131 5
 129:C:/Users/stapi/OneDrive/Desktop/GD32VW553/V1_MQTT_OK/GD32VW55X_Wifi_BLE_SDK/GD32VW55x_RELEASE_V1.0.2/MSDK/cloud/alicloud/src/services/linkkit/dm\dm_utils.c ****     int res = 0;
 502              		.loc 1 129 1 is_stmt 0
 503 0008 4111     		addi	sp,sp,-16
 504              		.cfi_def_cfa_offset 32
 505              		.loc 1 131 10
 506 000a 02C2     		sw	zero,4(sp)
 507 000c 02C4     		sw	zero,8(sp)
 508 000e 23160100 		sh	zero,12(sp)
 509 0012 23070100 		sb	zero,14(sp)
 132:C:/Users/stapi/OneDrive/Desktop/GD32VW553/V1_MQTT_OK/GD32VW55X_Wifi_BLE_SDK/GD32VW55x_RELEASE_V1.0.2/MSDK/cloud/alicloud/src/services/linkkit/dm\dm_utils.c **** 
 133:C:/Users/stapi/OneDrive/Desktop/GD32VW553/V1_MQTT_OK/GD32VW55X_Wifi_BLE_SDK/GD32VW55x_RELEASE_V1.0.2/MSDK/cloud/alicloud/src/services/linkkit/dm\dm_utils.c ****     if (output == NULL || *output != NULL) {
 510              		.loc 1 133 5 is_stmt 1
 134:C:/Users/stapi/OneDrive/Desktop/GD32VW553/V1_MQTT_OK/GD32VW55X_Wifi_BLE_SDK/GD32VW55x_RELEASE_V1.0.2/MSDK/cloud/alicloud/src/services/linkkit/dm\dm_utils.c ****         return DM_INVALID_PARAMETER;
 511              		.loc 1 134 16 is_stmt 0
 512 0016 F957     		li	a5,-2
 133:C:/Users/stapi/OneDrive/Desktop/GD32VW553/V1_MQTT_OK/GD32VW55X_Wifi_BLE_SDK/GD32VW55x_RELEASE_V1.0.2/MSDK/cloud/alicloud/src/services/linkkit/dm\dm_utils.c ****         return DM_INVALID_PARAMETER;
 513              		.loc 1 133 8
 514 0018 B5CD     		beq	a1,zero,.L61
 133:C:/Users/stapi/OneDrive/Desktop/GD32VW553/V1_MQTT_OK/GD32VW55X_Wifi_BLE_SDK/GD32VW55x_RELEASE_V1.0.2/MSDK/cloud/alicloud/src/services/linkkit/dm\dm_utils.c ****         return DM_INVALID_PARAMETER;
 515              		.loc 1 133 24 discriminator 1
 516 001a 9841     		lw	a4,0(a1)
 517 001c 2E84     		mv	s0,a1
 518              		.loc 1 134 16 discriminator 1
 519 001e F957     		li	a5,-2
 133:C:/Users/stapi/OneDrive/Desktop/GD32VW553/V1_MQTT_OK/GD32VW55X_Wifi_BLE_SDK/GD32VW55x_RELEASE_V1.0.2/MSDK/cloud/alicloud/src/services/linkkit/dm\dm_utils.c ****         return DM_INVALID_PARAMETER;
 520              		.loc 1 133 24 discriminator 1
 521 0020 35EB     		bne	a4,zero,.L61
 135:C:/Users/stapi/OneDrive/Desktop/GD32VW553/V1_MQTT_OK/GD32VW55X_Wifi_BLE_SDK/GD32VW55x_RELEASE_V1.0.2/MSDK/cloud/alicloud/src/services/linkkit/dm\dm_utils.c ****     }
 136:C:/Users/stapi/OneDrive/Desktop/GD32VW553/V1_MQTT_OK/GD32VW55X_Wifi_BLE_SDK/GD32VW55x_RELEASE_V1.0.2/MSDK/cloud/alicloud/src/services/linkkit/dm\dm_utils.c **** 
 137:C:/Users/stapi/OneDrive/Desktop/GD32VW553/V1_MQTT_OK/GD32VW55X_Wifi_BLE_SDK/GD32VW55x_RELEASE_V1.0.2/MSDK/cloud/alicloud/src/services/linkkit/dm\dm_utils.c ****     res = HAL_Snprintf(temp_output, 10, "%d", input);
 522              		.loc 1 137 11
 523 0022 37060000 		lui	a2,%hi(.LC0)
 524 0026 AA86     		mv	a3,a0
 525              		.loc 1 137 5 is_stmt 1
 526              		.loc 1 137 11 is_stmt 0
 527 0028 13060600 		addi	a2,a2,%lo(.LC0)
 528 002c A945     		li	a1,10
 529              	.LVL57:
 530 002e 4800     		addi	a0,sp,4
 531              	.LVL58:
 532 0030 97000000 		call	HAL_Snprintf
 532      E7800000 
 533              	.LVL59:
 138:C:/Users/stapi/OneDrive/Desktop/GD32VW553/V1_MQTT_OK/GD32VW55X_Wifi_BLE_SDK/GD32VW55x_RELEASE_V1.0.2/MSDK/cloud/alicloud/src/services/linkkit/dm\dm_utils.c ****     if (res < 0) {
 534              		.loc 1 138 5 is_stmt 1
 139:C:/Users/stapi/OneDrive/Desktop/GD32VW553/V1_MQTT_OK/GD32VW55X_Wifi_BLE_SDK/GD32VW55x_RELEASE_V1.0.2/MSDK/cloud/alicloud/src/services/linkkit/dm\dm_utils.c ****         return FAIL_RETURN;
 535              		.loc 1 139 16 is_stmt 0
 536 0038 FD57     		li	a5,-1
 138:C:/Users/stapi/OneDrive/Desktop/GD32VW553/V1_MQTT_OK/GD32VW55X_Wifi_BLE_SDK/GD32VW55x_RELEASE_V1.0.2/MSDK/cloud/alicloud/src/services/linkkit/dm\dm_utils.c ****     if (res < 0) {
 537              		.loc 1 138 8
 538 003a 634D0504 		blt	a0,zero,.L61
 140:C:/Users/stapi/OneDrive/Desktop/GD32VW553/V1_MQTT_OK/GD32VW55X_Wifi_BLE_SDK/GD32VW55x_RELEASE_V1.0.2/MSDK/cloud/alicloud/src/services/linkkit/dm\dm_utils.c ****     }
 141:C:/Users/stapi/OneDrive/Desktop/GD32VW553/V1_MQTT_OK/GD32VW55X_Wifi_BLE_SDK/GD32VW55x_RELEASE_V1.0.2/MSDK/cloud/alicloud/src/services/linkkit/dm\dm_utils.c **** 
 142:C:/Users/stapi/OneDrive/Desktop/GD32VW553/V1_MQTT_OK/GD32VW55X_Wifi_BLE_SDK/GD32VW55x_RELEASE_V1.0.2/MSDK/cloud/alicloud/src/services/linkkit/dm\dm_utils.c ****     *output = DM_malloc(strlen(temp_output) + 1);
 539              		.loc 1 142 5 is_stmt 1
 540              		.loc 1 142 15 is_stmt 0
 541 003e 4800     		addi	a0,sp,4
 542              	.LVL60:
 543 0040 97000000 		call	strlen
 543      E7800000 
 544              	.LVL61:
 545 0048 13061500 		addi	a2,a0,1
 546 004c 8145     		li	a1,0
 547 004e 0145     		li	a0,0
 548 0050 97000000 		call	LITE_malloc_internal
 548      E7800000 
 549              	.LVL62:
 550              		.loc 1 142 13
 551 0058 08C0     		sw	a0,0(s0)
 143:C:/Users/stapi/OneDrive/Desktop/GD32VW553/V1_MQTT_OK/GD32VW55X_Wifi_BLE_SDK/GD32VW55x_RELEASE_V1.0.2/MSDK/cloud/alicloud/src/services/linkkit/dm\dm_utils.c ****     if (*output == NULL) {
 552              		.loc 1 143 5 is_stmt 1
 142:C:/Users/stapi/OneDrive/Desktop/GD32VW553/V1_MQTT_OK/GD32VW55X_Wifi_BLE_SDK/GD32VW55x_RELEASE_V1.0.2/MSDK/cloud/alicloud/src/services/linkkit/dm\dm_utils.c ****     if (*output == NULL) {
 553              		.loc 1 142 15 is_stmt 0
 554 005a AA84     		mv	s1,a0
 144:C:/Users/stapi/OneDrive/Desktop/GD32VW553/V1_MQTT_OK/GD32VW55X_Wifi_BLE_SDK/GD32VW55x_RELEASE_V1.0.2/MSDK/cloud/alicloud/src/services/linkkit/dm\dm_utils.c ****         return DM_MEMORY_NOT_ENOUGH;
 555              		.loc 1 144 16
 556 005c F557     		li	a5,-3
 143:C:/Users/stapi/OneDrive/Desktop/GD32VW553/V1_MQTT_OK/GD32VW55X_Wifi_BLE_SDK/GD32VW55x_RELEASE_V1.0.2/MSDK/cloud/alicloud/src/services/linkkit/dm\dm_utils.c ****     if (*output == NULL) {
 557              		.loc 1 143 8
 558 005e 1DC9     		beq	a0,zero,.L61
 145:C:/Users/stapi/OneDrive/Desktop/GD32VW553/V1_MQTT_OK/GD32VW55X_Wifi_BLE_SDK/GD32VW55x_RELEASE_V1.0.2/MSDK/cloud/alicloud/src/services/linkkit/dm\dm_utils.c ****     }
 146:C:/Users/stapi/OneDrive/Desktop/GD32VW553/V1_MQTT_OK/GD32VW55X_Wifi_BLE_SDK/GD32VW55x_RELEASE_V1.0.2/MSDK/cloud/alicloud/src/services/linkkit/dm\dm_utils.c ****     memset(*output, 0, strlen(temp_output) + 1);
 559              		.loc 1 146 5 is_stmt 1
 560              		.loc 1 146 24 is_stmt 0
 561 0060 4800     		addi	a0,sp,4
 562 0062 97000000 		call	strlen
 562      E7800000 
 563              	.LVL63:
 564              		.loc 1 146 5
 565 006a 13061500 		addi	a2,a0,1
 566 006e 8145     		li	a1,0
 567 0070 2685     		mv	a0,s1
 568 0072 97000000 		call	memset
 568      E7800000 
 569              	.LVL64:
 147:C:/Users/stapi/OneDrive/Desktop/GD32VW553/V1_MQTT_OK/GD32VW55X_Wifi_BLE_SDK/GD32VW55x_RELEASE_V1.0.2/MSDK/cloud/alicloud/src/services/linkkit/dm\dm_utils.c ****     memcpy(*output, temp_output, strlen(temp_output));
 570              		.loc 1 147 5 is_stmt 1
 571 007a 4800     		addi	a0,sp,4
 572 007c 97000000 		call	strlen
 572      E7800000 
 573              	.LVL65:
 574 0084 2A86     		mv	a2,a0
 575 0086 0840     		lw	a0,0(s0)
 576 0088 4C00     		addi	a1,sp,4
 577 008a 97000000 		call	memcpy
 577      E7800000 
 578              	.LVL66:
 148:C:/Users/stapi/OneDrive/Desktop/GD32VW553/V1_MQTT_OK/GD32VW55X_Wifi_BLE_SDK/GD32VW55x_RELEASE_V1.0.2/MSDK/cloud/alicloud/src/services/linkkit/dm\dm_utils.c **** 
 149:C:/Users/stapi/OneDrive/Desktop/GD32VW553/V1_MQTT_OK/GD32VW55X_Wifi_BLE_SDK/GD32VW55x_RELEASE_V1.0.2/MSDK/cloud/alicloud/src/services/linkkit/dm\dm_utils.c ****     return SUCCESS_RETURN;
 579              		.loc 1 149 5
 580              		.loc 1 149 12 is_stmt 0
 581 0092 8147     		li	a5,0
 582              	.LVL67:
 583              	.L61:
 150:C:/Users/stapi/OneDrive/Desktop/GD32VW553/V1_MQTT_OK/GD32VW55X_Wifi_BLE_SDK/GD32VW55x_RELEASE_V1.0.2/MSDK/cloud/alicloud/src/services/linkkit/dm\dm_utils.c **** }
 584              		.loc 1 150 1
 585 0094 3E85     		mv	a0,a5
 586 0096 4101     		addi	sp,sp,16
 587              		.cfi_def_cfa_offset 0
 588 0098 17030000 		tail	__riscv_restore_2
 588      67000300 
 589              		.cfi_restore 9
 590              		.cfi_restore 8
 591              		.cfi_restore 1
 592              		.cfi_def_cfa_offset -16
 593              		.cfi_endproc
 594              	.LFE24:
 596              		.section	.rodata.dm_utils_ftoa_direct.str1.4,"aMS",@progbits,1
 597              		.align	2
 598              	.LC1:
 599 0000 256600   		.string	"%f"
 600              		.section	.text.dm_utils_ftoa_direct,"ax",@progbits
 601              		.align	1
 602              		.globl	dm_utils_ftoa_direct
 604              	dm_utils_ftoa_direct:
 605              	.LFB25:
 151:C:/Users/stapi/OneDrive/Desktop/GD32VW553/V1_MQTT_OK/GD32VW55X_Wifi_BLE_SDK/GD32VW55x_RELEASE_V1.0.2/MSDK/cloud/alicloud/src/services/linkkit/dm\dm_utils.c **** 
 152:C:/Users/stapi/OneDrive/Desktop/GD32VW553/V1_MQTT_OK/GD32VW55X_Wifi_BLE_SDK/GD32VW55x_RELEASE_V1.0.2/MSDK/cloud/alicloud/src/services/linkkit/dm\dm_utils.c **** int dm_utils_ftoa_direct(_IN_ double input, _OU_ char **output)
 153:C:/Users/stapi/OneDrive/Desktop/GD32VW553/V1_MQTT_OK/GD32VW55X_Wifi_BLE_SDK/GD32VW55x_RELEASE_V1.0.2/MSDK/cloud/alicloud/src/services/linkkit/dm\dm_utils.c **** {
 606              		.loc 1 153 1 is_stmt 1
 607              		.cfi_startproc
 608              	.LVL68:
 609 0000 17030000 		call	t0,__riscv_save_3
 609      E7020300 
 610              		.cfi_offset 18, -16
 611              		.cfi_offset 9, -12
 612              		.cfi_offset 8, -8
 613              		.cfi_offset 1, -4
 614              		.cfi_def_cfa_offset 16
 154:C:/Users/stapi/OneDrive/Desktop/GD32VW553/V1_MQTT_OK/GD32VW55X_Wifi_BLE_SDK/GD32VW55x_RELEASE_V1.0.2/MSDK/cloud/alicloud/src/services/linkkit/dm\dm_utils.c ****     int res = 0;
 615              		.loc 1 154 5
 616              	.LVL69:
 155:C:/Users/stapi/OneDrive/Desktop/GD32VW553/V1_MQTT_OK/GD32VW55X_Wifi_BLE_SDK/GD32VW55x_RELEASE_V1.0.2/MSDK/cloud/alicloud/src/services/linkkit/dm\dm_utils.c ****     char temp_output[30 + 1] = {0};
 617              		.loc 1 155 5
 153:C:/Users/stapi/OneDrive/Desktop/GD32VW553/V1_MQTT_OK/GD32VW55X_Wifi_BLE_SDK/GD32VW55x_RELEASE_V1.0.2/MSDK/cloud/alicloud/src/services/linkkit/dm\dm_utils.c ****     int res = 0;
 618              		.loc 1 153 1 is_stmt 0
 619 0008 0111     		addi	sp,sp,-32
 620              		.cfi_def_cfa_offset 48
 153:C:/Users/stapi/OneDrive/Desktop/GD32VW553/V1_MQTT_OK/GD32VW55X_Wifi_BLE_SDK/GD32VW55x_RELEASE_V1.0.2/MSDK/cloud/alicloud/src/services/linkkit/dm\dm_utils.c ****     int res = 0;
 621              		.loc 1 153 1
 622 000a 2A89     		mv	s2,a0
 623 000c AE84     		mv	s1,a1
 624 000e 3284     		mv	s0,a2
 625              		.loc 1 155 10
 626 0010 8145     		li	a1,0
 627 0012 6D46     		li	a2,27
 628              	.LVL70:
 629 0014 4800     		addi	a0,sp,4
 630              	.LVL71:
 631 0016 02C0     		sw	zero,0(sp)
 632 0018 97000000 		call	memset
 632      E7800000 
 633              	.LVL72:
 156:C:/Users/stapi/OneDrive/Desktop/GD32VW553/V1_MQTT_OK/GD32VW55X_Wifi_BLE_SDK/GD32VW55x_RELEASE_V1.0.2/MSDK/cloud/alicloud/src/services/linkkit/dm\dm_utils.c **** 
 157:C:/Users/stapi/OneDrive/Desktop/GD32VW553/V1_MQTT_OK/GD32VW55X_Wifi_BLE_SDK/GD32VW55x_RELEASE_V1.0.2/MSDK/cloud/alicloud/src/services/linkkit/dm\dm_utils.c ****     if (output == NULL || *output != NULL) {
 634              		.loc 1 157 5 is_stmt 1
 158:C:/Users/stapi/OneDrive/Desktop/GD32VW553/V1_MQTT_OK/GD32VW55X_Wifi_BLE_SDK/GD32VW55x_RELEASE_V1.0.2/MSDK/cloud/alicloud/src/services/linkkit/dm\dm_utils.c ****         return DM_INVALID_PARAMETER;
 635              		.loc 1 158 16 is_stmt 0
 636 0020 F957     		li	a5,-2
 157:C:/Users/stapi/OneDrive/Desktop/GD32VW553/V1_MQTT_OK/GD32VW55X_Wifi_BLE_SDK/GD32VW55x_RELEASE_V1.0.2/MSDK/cloud/alicloud/src/services/linkkit/dm\dm_utils.c ****         return DM_INVALID_PARAMETER;
 637              		.loc 1 157 8
 638 0022 3DC8     		beq	s0,zero,.L68
 157:C:/Users/stapi/OneDrive/Desktop/GD32VW553/V1_MQTT_OK/GD32VW55X_Wifi_BLE_SDK/GD32VW55x_RELEASE_V1.0.2/MSDK/cloud/alicloud/src/services/linkkit/dm\dm_utils.c ****         return DM_INVALID_PARAMETER;
 639              		.loc 1 157 24 discriminator 1
 640 0024 1840     		lw	a4,0(s0)
 641              		.loc 1 158 16 discriminator 1
 642 0026 F957     		li	a5,-2
 157:C:/Users/stapi/OneDrive/Desktop/GD32VW553/V1_MQTT_OK/GD32VW55X_Wifi_BLE_SDK/GD32VW55x_RELEASE_V1.0.2/MSDK/cloud/alicloud/src/services/linkkit/dm\dm_utils.c ****         return DM_INVALID_PARAMETER;
 643              		.loc 1 157 24 discriminator 1
 644 0028 25EB     		bne	a4,zero,.L68
 159:C:/Users/stapi/OneDrive/Desktop/GD32VW553/V1_MQTT_OK/GD32VW55X_Wifi_BLE_SDK/GD32VW55x_RELEASE_V1.0.2/MSDK/cloud/alicloud/src/services/linkkit/dm\dm_utils.c ****     }
 160:C:/Users/stapi/OneDrive/Desktop/GD32VW553/V1_MQTT_OK/GD32VW55X_Wifi_BLE_SDK/GD32VW55x_RELEASE_V1.0.2/MSDK/cloud/alicloud/src/services/linkkit/dm\dm_utils.c **** 
 161:C:/Users/stapi/OneDrive/Desktop/GD32VW553/V1_MQTT_OK/GD32VW55X_Wifi_BLE_SDK/GD32VW55x_RELEASE_V1.0.2/MSDK/cloud/alicloud/src/services/linkkit/dm\dm_utils.c ****     res = HAL_Snprintf(temp_output, 30, "%f", input);
 645              		.loc 1 161 5 is_stmt 1
 646              		.loc 1 161 11 is_stmt 0
 647 002a 37060000 		lui	a2,%hi(.LC1)
 648 002e A687     		mv	a5,s1
 649 0030 4A87     		mv	a4,s2
 650 0032 13060600 		addi	a2,a2,%lo(.LC1)
 651 0036 F945     		li	a1,30
 652 0038 0A85     		mv	a0,sp
 653 003a 97000000 		call	HAL_Snprintf
 653      E7800000 
 654              	.LVL73:
 162:C:/Users/stapi/OneDrive/Desktop/GD32VW553/V1_MQTT_OK/GD32VW55X_Wifi_BLE_SDK/GD32VW55x_RELEASE_V1.0.2/MSDK/cloud/alicloud/src/services/linkkit/dm\dm_utils.c ****     if (res < 0) {
 655              		.loc 1 162 5 is_stmt 1
 163:C:/Users/stapi/OneDrive/Desktop/GD32VW553/V1_MQTT_OK/GD32VW55X_Wifi_BLE_SDK/GD32VW55x_RELEASE_V1.0.2/MSDK/cloud/alicloud/src/services/linkkit/dm\dm_utils.c ****         return FAIL_RETURN;
 656              		.loc 1 163 16 is_stmt 0
 657 0042 FD57     		li	a5,-1
 162:C:/Users/stapi/OneDrive/Desktop/GD32VW553/V1_MQTT_OK/GD32VW55X_Wifi_BLE_SDK/GD32VW55x_RELEASE_V1.0.2/MSDK/cloud/alicloud/src/services/linkkit/dm\dm_utils.c ****     if (res < 0) {
 658              		.loc 1 162 8
 659 0044 634A0504 		blt	a0,zero,.L68
 164:C:/Users/stapi/OneDrive/Desktop/GD32VW553/V1_MQTT_OK/GD32VW55X_Wifi_BLE_SDK/GD32VW55x_RELEASE_V1.0.2/MSDK/cloud/alicloud/src/services/linkkit/dm\dm_utils.c ****     }
 165:C:/Users/stapi/OneDrive/Desktop/GD32VW553/V1_MQTT_OK/GD32VW55X_Wifi_BLE_SDK/GD32VW55x_RELEASE_V1.0.2/MSDK/cloud/alicloud/src/services/linkkit/dm\dm_utils.c **** 
 166:C:/Users/stapi/OneDrive/Desktop/GD32VW553/V1_MQTT_OK/GD32VW55X_Wifi_BLE_SDK/GD32VW55x_RELEASE_V1.0.2/MSDK/cloud/alicloud/src/services/linkkit/dm\dm_utils.c ****     *output = HAL_Malloc(strlen(temp_output) + 1);
 660              		.loc 1 166 5 is_stmt 1
 661              		.loc 1 166 26 is_stmt 0
 662 0048 0A85     		mv	a0,sp
 663              	.LVL74:
 664 004a 97000000 		call	strlen
 664      E7800000 
 665              	.LVL75:
 666              		.loc 1 166 15
 667 0052 0505     		addi	a0,a0,1
 668 0054 97000000 		call	HAL_Malloc
 668      E7800000 
 669              	.LVL76:
 670              		.loc 1 166 13
 671 005c 08C0     		sw	a0,0(s0)
 167:C:/Users/stapi/OneDrive/Desktop/GD32VW553/V1_MQTT_OK/GD32VW55X_Wifi_BLE_SDK/GD32VW55x_RELEASE_V1.0.2/MSDK/cloud/alicloud/src/services/linkkit/dm\dm_utils.c ****     if (*output == NULL) {
 672              		.loc 1 167 5 is_stmt 1
 166:C:/Users/stapi/OneDrive/Desktop/GD32VW553/V1_MQTT_OK/GD32VW55X_Wifi_BLE_SDK/GD32VW55x_RELEASE_V1.0.2/MSDK/cloud/alicloud/src/services/linkkit/dm\dm_utils.c ****     if (*output == NULL) {
 673              		.loc 1 166 15 is_stmt 0
 674 005e AA84     		mv	s1,a0
 168:C:/Users/stapi/OneDrive/Desktop/GD32VW553/V1_MQTT_OK/GD32VW55X_Wifi_BLE_SDK/GD32VW55x_RELEASE_V1.0.2/MSDK/cloud/alicloud/src/services/linkkit/dm\dm_utils.c ****         return DM_MEMORY_NOT_ENOUGH;
 675              		.loc 1 168 16
 676 0060 F557     		li	a5,-3
 167:C:/Users/stapi/OneDrive/Desktop/GD32VW553/V1_MQTT_OK/GD32VW55X_Wifi_BLE_SDK/GD32VW55x_RELEASE_V1.0.2/MSDK/cloud/alicloud/src/services/linkkit/dm\dm_utils.c ****     if (*output == NULL) {
 677              		.loc 1 167 8
 678 0062 1DC9     		beq	a0,zero,.L68
 169:C:/Users/stapi/OneDrive/Desktop/GD32VW553/V1_MQTT_OK/GD32VW55X_Wifi_BLE_SDK/GD32VW55x_RELEASE_V1.0.2/MSDK/cloud/alicloud/src/services/linkkit/dm\dm_utils.c ****     }
 170:C:/Users/stapi/OneDrive/Desktop/GD32VW553/V1_MQTT_OK/GD32VW55X_Wifi_BLE_SDK/GD32VW55x_RELEASE_V1.0.2/MSDK/cloud/alicloud/src/services/linkkit/dm\dm_utils.c ****     memset(*output, 0, strlen(temp_output) + 1);
 679              		.loc 1 170 5 is_stmt 1
 680              		.loc 1 170 24 is_stmt 0
 681 0064 0A85     		mv	a0,sp
 682 0066 97000000 		call	strlen
 682      E7800000 
 683              	.LVL77:
 684              		.loc 1 170 5
 685 006e 13061500 		addi	a2,a0,1
 686 0072 8145     		li	a1,0
 687 0074 2685     		mv	a0,s1
 688 0076 97000000 		call	memset
 688      E7800000 
 689              	.LVL78:
 171:C:/Users/stapi/OneDrive/Desktop/GD32VW553/V1_MQTT_OK/GD32VW55X_Wifi_BLE_SDK/GD32VW55x_RELEASE_V1.0.2/MSDK/cloud/alicloud/src/services/linkkit/dm\dm_utils.c ****     memcpy(*output, temp_output, strlen(temp_output));
 690              		.loc 1 171 5 is_stmt 1
 691 007e 0A85     		mv	a0,sp
 692 0080 97000000 		call	strlen
 692      E7800000 
 693              	.LVL79:
 694 0088 2A86     		mv	a2,a0
 695 008a 0840     		lw	a0,0(s0)
 696 008c 8A85     		mv	a1,sp
 697 008e 97000000 		call	memcpy
 697      E7800000 
 698              	.LVL80:
 172:C:/Users/stapi/OneDrive/Desktop/GD32VW553/V1_MQTT_OK/GD32VW55X_Wifi_BLE_SDK/GD32VW55x_RELEASE_V1.0.2/MSDK/cloud/alicloud/src/services/linkkit/dm\dm_utils.c **** 
 173:C:/Users/stapi/OneDrive/Desktop/GD32VW553/V1_MQTT_OK/GD32VW55X_Wifi_BLE_SDK/GD32VW55x_RELEASE_V1.0.2/MSDK/cloud/alicloud/src/services/linkkit/dm\dm_utils.c ****     return SUCCESS_RETURN;
 699              		.loc 1 173 5
 700              		.loc 1 173 12 is_stmt 0
 701 0096 8147     		li	a5,0
 702              	.L68:
 174:C:/Users/stapi/OneDrive/Desktop/GD32VW553/V1_MQTT_OK/GD32VW55X_Wifi_BLE_SDK/GD32VW55x_RELEASE_V1.0.2/MSDK/cloud/alicloud/src/services/linkkit/dm\dm_utils.c **** }
 703              		.loc 1 174 1
 704 0098 3E85     		mv	a0,a5
 705 009a 0561     		addi	sp,sp,32
 706              		.cfi_def_cfa_offset 0
 707 009c 17030000 		tail	__riscv_restore_3
 707      67000300 
 708              		.cfi_restore 18
 709              		.cfi_restore 9
 710              		.cfi_restore 8
 711              		.cfi_restore 1
 712              		.cfi_def_cfa_offset -16
 713              		.cfi_endproc
 714              	.LFE25:
 716              		.section	.text.dm_utils_ftoa,"ax",@progbits
 717              		.align	1
 718              		.globl	dm_utils_ftoa
 720              	dm_utils_ftoa:
 721              	.LFB26:
 175:C:/Users/stapi/OneDrive/Desktop/GD32VW553/V1_MQTT_OK/GD32VW55X_Wifi_BLE_SDK/GD32VW55x_RELEASE_V1.0.2/MSDK/cloud/alicloud/src/services/linkkit/dm\dm_utils.c **** 
 176:C:/Users/stapi/OneDrive/Desktop/GD32VW553/V1_MQTT_OK/GD32VW55X_Wifi_BLE_SDK/GD32VW55x_RELEASE_V1.0.2/MSDK/cloud/alicloud/src/services/linkkit/dm\dm_utils.c **** int dm_utils_ftoa(_IN_ double input, _OU_ char **output)
 177:C:/Users/stapi/OneDrive/Desktop/GD32VW553/V1_MQTT_OK/GD32VW55X_Wifi_BLE_SDK/GD32VW55x_RELEASE_V1.0.2/MSDK/cloud/alicloud/src/services/linkkit/dm\dm_utils.c **** {
 722              		.loc 1 177 1 is_stmt 1
 723              		.cfi_startproc
 724              	.LVL81:
 725 0000 17030000 		call	t0,__riscv_save_3
 725      E7020300 
 726              		.cfi_offset 18, -16
 727              		.cfi_offset 9, -12
 728              		.cfi_offset 8, -8
 729              		.cfi_offset 1, -4
 730              		.cfi_def_cfa_offset 16
 178:C:/Users/stapi/OneDrive/Desktop/GD32VW553/V1_MQTT_OK/GD32VW55X_Wifi_BLE_SDK/GD32VW55x_RELEASE_V1.0.2/MSDK/cloud/alicloud/src/services/linkkit/dm\dm_utils.c ****     int res = 0;
 731              		.loc 1 178 5
 732              	.LVL82:
 179:C:/Users/stapi/OneDrive/Desktop/GD32VW553/V1_MQTT_OK/GD32VW55X_Wifi_BLE_SDK/GD32VW55x_RELEASE_V1.0.2/MSDK/cloud/alicloud/src/services/linkkit/dm\dm_utils.c ****     char temp_output[30 + 1] = {0};
 733              		.loc 1 179 5
 177:C:/Users/stapi/OneDrive/Desktop/GD32VW553/V1_MQTT_OK/GD32VW55X_Wifi_BLE_SDK/GD32VW55x_RELEASE_V1.0.2/MSDK/cloud/alicloud/src/services/linkkit/dm\dm_utils.c ****     int res = 0;
 734              		.loc 1 177 1 is_stmt 0
 735 0008 0111     		addi	sp,sp,-32
 736              		.cfi_def_cfa_offset 48
 177:C:/Users/stapi/OneDrive/Desktop/GD32VW553/V1_MQTT_OK/GD32VW55X_Wifi_BLE_SDK/GD32VW55x_RELEASE_V1.0.2/MSDK/cloud/alicloud/src/services/linkkit/dm\dm_utils.c ****     int res = 0;
 737              		.loc 1 177 1
 738 000a 2A89     		mv	s2,a0
 739 000c AE84     		mv	s1,a1
 740 000e 3284     		mv	s0,a2
 741              		.loc 1 179 10
 742 0010 8145     		li	a1,0
 743 0012 6D46     		li	a2,27
 744              	.LVL83:
 745 0014 4800     		addi	a0,sp,4
 746              	.LVL84:
 747 0016 02C0     		sw	zero,0(sp)
 748 0018 97000000 		call	memset
 748      E7800000 
 749              	.LVL85:
 180:C:/Users/stapi/OneDrive/Desktop/GD32VW553/V1_MQTT_OK/GD32VW55X_Wifi_BLE_SDK/GD32VW55x_RELEASE_V1.0.2/MSDK/cloud/alicloud/src/services/linkkit/dm\dm_utils.c **** 
 181:C:/Users/stapi/OneDrive/Desktop/GD32VW553/V1_MQTT_OK/GD32VW55X_Wifi_BLE_SDK/GD32VW55x_RELEASE_V1.0.2/MSDK/cloud/alicloud/src/services/linkkit/dm\dm_utils.c ****     if (output == NULL || *output != NULL) {
 750              		.loc 1 181 5 is_stmt 1
 182:C:/Users/stapi/OneDrive/Desktop/GD32VW553/V1_MQTT_OK/GD32VW55X_Wifi_BLE_SDK/GD32VW55x_RELEASE_V1.0.2/MSDK/cloud/alicloud/src/services/linkkit/dm\dm_utils.c ****         return DM_INVALID_PARAMETER;
 751              		.loc 1 182 16 is_stmt 0
 752 0020 F957     		li	a5,-2
 181:C:/Users/stapi/OneDrive/Desktop/GD32VW553/V1_MQTT_OK/GD32VW55X_Wifi_BLE_SDK/GD32VW55x_RELEASE_V1.0.2/MSDK/cloud/alicloud/src/services/linkkit/dm\dm_utils.c ****         return DM_INVALID_PARAMETER;
 753              		.loc 1 181 8
 754 0022 35CC     		beq	s0,zero,.L75
 181:C:/Users/stapi/OneDrive/Desktop/GD32VW553/V1_MQTT_OK/GD32VW55X_Wifi_BLE_SDK/GD32VW55x_RELEASE_V1.0.2/MSDK/cloud/alicloud/src/services/linkkit/dm\dm_utils.c ****         return DM_INVALID_PARAMETER;
 755              		.loc 1 181 24 discriminator 1
 756 0024 1840     		lw	a4,0(s0)
 757              		.loc 1 182 16 discriminator 1
 758 0026 F957     		li	a5,-2
 181:C:/Users/stapi/OneDrive/Desktop/GD32VW553/V1_MQTT_OK/GD32VW55X_Wifi_BLE_SDK/GD32VW55x_RELEASE_V1.0.2/MSDK/cloud/alicloud/src/services/linkkit/dm\dm_utils.c ****         return DM_INVALID_PARAMETER;
 759              		.loc 1 181 24 discriminator 1
 760 0028 3DEB     		bne	a4,zero,.L75
 183:C:/Users/stapi/OneDrive/Desktop/GD32VW553/V1_MQTT_OK/GD32VW55X_Wifi_BLE_SDK/GD32VW55x_RELEASE_V1.0.2/MSDK/cloud/alicloud/src/services/linkkit/dm\dm_utils.c ****     }
 184:C:/Users/stapi/OneDrive/Desktop/GD32VW553/V1_MQTT_OK/GD32VW55X_Wifi_BLE_SDK/GD32VW55x_RELEASE_V1.0.2/MSDK/cloud/alicloud/src/services/linkkit/dm\dm_utils.c **** 
 185:C:/Users/stapi/OneDrive/Desktop/GD32VW553/V1_MQTT_OK/GD32VW55X_Wifi_BLE_SDK/GD32VW55x_RELEASE_V1.0.2/MSDK/cloud/alicloud/src/services/linkkit/dm\dm_utils.c ****     res = HAL_Snprintf(temp_output, 30, "%f", input);
 761              		.loc 1 185 5 is_stmt 1
 762              		.loc 1 185 11 is_stmt 0
 763 002a 37060000 		lui	a2,%hi(.LC1)
 764 002e A687     		mv	a5,s1
 765 0030 4A87     		mv	a4,s2
 766 0032 13060600 		addi	a2,a2,%lo(.LC1)
 767 0036 F945     		li	a1,30
 768 0038 0A85     		mv	a0,sp
 769 003a 97000000 		call	HAL_Snprintf
 769      E7800000 
 770              	.LVL86:
 186:C:/Users/stapi/OneDrive/Desktop/GD32VW553/V1_MQTT_OK/GD32VW55X_Wifi_BLE_SDK/GD32VW55x_RELEASE_V1.0.2/MSDK/cloud/alicloud/src/services/linkkit/dm\dm_utils.c ****     if (res < 0) {
 771              		.loc 1 186 5 is_stmt 1
 187:C:/Users/stapi/OneDrive/Desktop/GD32VW553/V1_MQTT_OK/GD32VW55X_Wifi_BLE_SDK/GD32VW55x_RELEASE_V1.0.2/MSDK/cloud/alicloud/src/services/linkkit/dm\dm_utils.c ****         return FAIL_RETURN;
 772              		.loc 1 187 16 is_stmt 0
 773 0042 FD57     		li	a5,-1
 186:C:/Users/stapi/OneDrive/Desktop/GD32VW553/V1_MQTT_OK/GD32VW55X_Wifi_BLE_SDK/GD32VW55x_RELEASE_V1.0.2/MSDK/cloud/alicloud/src/services/linkkit/dm\dm_utils.c ****     if (res < 0) {
 774              		.loc 1 186 8
 775 0044 634D0504 		blt	a0,zero,.L75
 188:C:/Users/stapi/OneDrive/Desktop/GD32VW553/V1_MQTT_OK/GD32VW55X_Wifi_BLE_SDK/GD32VW55x_RELEASE_V1.0.2/MSDK/cloud/alicloud/src/services/linkkit/dm\dm_utils.c ****     }
 189:C:/Users/stapi/OneDrive/Desktop/GD32VW553/V1_MQTT_OK/GD32VW55X_Wifi_BLE_SDK/GD32VW55x_RELEASE_V1.0.2/MSDK/cloud/alicloud/src/services/linkkit/dm\dm_utils.c **** 
 190:C:/Users/stapi/OneDrive/Desktop/GD32VW553/V1_MQTT_OK/GD32VW55X_Wifi_BLE_SDK/GD32VW55x_RELEASE_V1.0.2/MSDK/cloud/alicloud/src/services/linkkit/dm\dm_utils.c ****     *output = DM_malloc(strlen(temp_output) + 1);
 776              		.loc 1 190 5 is_stmt 1
 777              		.loc 1 190 15 is_stmt 0
 778 0048 0A85     		mv	a0,sp
 779              	.LVL87:
 780 004a 97000000 		call	strlen
 780      E7800000 
 781              	.LVL88:
 782 0052 13061500 		addi	a2,a0,1
 783 0056 8145     		li	a1,0
 784 0058 0145     		li	a0,0
 785 005a 97000000 		call	LITE_malloc_internal
 785      E7800000 
 786              	.LVL89:
 787              		.loc 1 190 13
 788 0062 08C0     		sw	a0,0(s0)
 191:C:/Users/stapi/OneDrive/Desktop/GD32VW553/V1_MQTT_OK/GD32VW55X_Wifi_BLE_SDK/GD32VW55x_RELEASE_V1.0.2/MSDK/cloud/alicloud/src/services/linkkit/dm\dm_utils.c ****     if (*output == NULL) {
 789              		.loc 1 191 5 is_stmt 1
 190:C:/Users/stapi/OneDrive/Desktop/GD32VW553/V1_MQTT_OK/GD32VW55X_Wifi_BLE_SDK/GD32VW55x_RELEASE_V1.0.2/MSDK/cloud/alicloud/src/services/linkkit/dm\dm_utils.c ****     if (*output == NULL) {
 790              		.loc 1 190 15 is_stmt 0
 791 0064 AA84     		mv	s1,a0
 192:C:/Users/stapi/OneDrive/Desktop/GD32VW553/V1_MQTT_OK/GD32VW55X_Wifi_BLE_SDK/GD32VW55x_RELEASE_V1.0.2/MSDK/cloud/alicloud/src/services/linkkit/dm\dm_utils.c ****         return DM_MEMORY_NOT_ENOUGH;
 792              		.loc 1 192 16
 793 0066 F557     		li	a5,-3
 191:C:/Users/stapi/OneDrive/Desktop/GD32VW553/V1_MQTT_OK/GD32VW55X_Wifi_BLE_SDK/GD32VW55x_RELEASE_V1.0.2/MSDK/cloud/alicloud/src/services/linkkit/dm\dm_utils.c ****     if (*output == NULL) {
 794              		.loc 1 191 8
 795 0068 1DC9     		beq	a0,zero,.L75
 193:C:/Users/stapi/OneDrive/Desktop/GD32VW553/V1_MQTT_OK/GD32VW55X_Wifi_BLE_SDK/GD32VW55x_RELEASE_V1.0.2/MSDK/cloud/alicloud/src/services/linkkit/dm\dm_utils.c ****     }
 194:C:/Users/stapi/OneDrive/Desktop/GD32VW553/V1_MQTT_OK/GD32VW55X_Wifi_BLE_SDK/GD32VW55x_RELEASE_V1.0.2/MSDK/cloud/alicloud/src/services/linkkit/dm\dm_utils.c ****     memset(*output, 0, strlen(temp_output) + 1);
 796              		.loc 1 194 5 is_stmt 1
 797              		.loc 1 194 24 is_stmt 0
 798 006a 0A85     		mv	a0,sp
 799 006c 97000000 		call	strlen
 799      E7800000 
 800              	.LVL90:
 801              		.loc 1 194 5
 802 0074 13061500 		addi	a2,a0,1
 803 0078 8145     		li	a1,0
 804 007a 2685     		mv	a0,s1
 805 007c 97000000 		call	memset
 805      E7800000 
 806              	.LVL91:
 195:C:/Users/stapi/OneDrive/Desktop/GD32VW553/V1_MQTT_OK/GD32VW55X_Wifi_BLE_SDK/GD32VW55x_RELEASE_V1.0.2/MSDK/cloud/alicloud/src/services/linkkit/dm\dm_utils.c ****     memcpy(*output, temp_output, strlen(temp_output));
 807              		.loc 1 195 5 is_stmt 1
 808 0084 0A85     		mv	a0,sp
 809 0086 97000000 		call	strlen
 809      E7800000 
 810              	.LVL92:
 811 008e 2A86     		mv	a2,a0
 812 0090 0840     		lw	a0,0(s0)
 813 0092 8A85     		mv	a1,sp
 814 0094 97000000 		call	memcpy
 814      E7800000 
 815              	.LVL93:
 196:C:/Users/stapi/OneDrive/Desktop/GD32VW553/V1_MQTT_OK/GD32VW55X_Wifi_BLE_SDK/GD32VW55x_RELEASE_V1.0.2/MSDK/cloud/alicloud/src/services/linkkit/dm\dm_utils.c **** 
 197:C:/Users/stapi/OneDrive/Desktop/GD32VW553/V1_MQTT_OK/GD32VW55X_Wifi_BLE_SDK/GD32VW55x_RELEASE_V1.0.2/MSDK/cloud/alicloud/src/services/linkkit/dm\dm_utils.c ****     return SUCCESS_RETURN;
 816              		.loc 1 197 5
 817              		.loc 1 197 12 is_stmt 0
 818 009c 8147     		li	a5,0
 819              	.L75:
 198:C:/Users/stapi/OneDrive/Desktop/GD32VW553/V1_MQTT_OK/GD32VW55X_Wifi_BLE_SDK/GD32VW55x_RELEASE_V1.0.2/MSDK/cloud/alicloud/src/services/linkkit/dm\dm_utils.c **** }
 820              		.loc 1 198 1
 821 009e 3E85     		mv	a0,a5
 822 00a0 0561     		addi	sp,sp,32
 823              		.cfi_def_cfa_offset 0
 824 00a2 17030000 		tail	__riscv_restore_3
 824      67000300 
 825              		.cfi_restore 18
 826              		.cfi_restore 9
 827              		.cfi_restore 8
 828              		.cfi_restore 1
 829              		.cfi_def_cfa_offset -16
 830              		.cfi_endproc
 831              	.LFE26:
 833              		.section	.text.dm_utils_hex_to_str,"ax",@progbits
 834              		.align	1
 835              		.globl	dm_utils_hex_to_str
 837              	dm_utils_hex_to_str:
 838              	.LFB27:
 199:C:/Users/stapi/OneDrive/Desktop/GD32VW553/V1_MQTT_OK/GD32VW55X_Wifi_BLE_SDK/GD32VW55x_RELEASE_V1.0.2/MSDK/cloud/alicloud/src/services/linkkit/dm\dm_utils.c **** 
 200:C:/Users/stapi/OneDrive/Desktop/GD32VW553/V1_MQTT_OK/GD32VW55X_Wifi_BLE_SDK/GD32VW55x_RELEASE_V1.0.2/MSDK/cloud/alicloud/src/services/linkkit/dm\dm_utils.c **** int dm_utils_hex_to_str(_IN_ unsigned char *input, _IN_ int input_len, _OU_ char **output)
 201:C:/Users/stapi/OneDrive/Desktop/GD32VW553/V1_MQTT_OK/GD32VW55X_Wifi_BLE_SDK/GD32VW55x_RELEASE_V1.0.2/MSDK/cloud/alicloud/src/services/linkkit/dm\dm_utils.c **** {
 839              		.loc 1 201 1 is_stmt 1
 840              		.cfi_startproc
 841              	.LVL94:
 202:C:/Users/stapi/OneDrive/Desktop/GD32VW553/V1_MQTT_OK/GD32VW55X_Wifi_BLE_SDK/GD32VW55x_RELEASE_V1.0.2/MSDK/cloud/alicloud/src/services/linkkit/dm\dm_utils.c ****     int index = 0, output_len = 0;
 842              		.loc 1 202 5
 203:C:/Users/stapi/OneDrive/Desktop/GD32VW553/V1_MQTT_OK/GD32VW55X_Wifi_BLE_SDK/GD32VW55x_RELEASE_V1.0.2/MSDK/cloud/alicloud/src/services/linkkit/dm\dm_utils.c ****     unsigned char iter_char = 0;
 843              		.loc 1 203 5
 204:C:/Users/stapi/OneDrive/Desktop/GD32VW553/V1_MQTT_OK/GD32VW55X_Wifi_BLE_SDK/GD32VW55x_RELEASE_V1.0.2/MSDK/cloud/alicloud/src/services/linkkit/dm\dm_utils.c **** 
 205:C:/Users/stapi/OneDrive/Desktop/GD32VW553/V1_MQTT_OK/GD32VW55X_Wifi_BLE_SDK/GD32VW55x_RELEASE_V1.0.2/MSDK/cloud/alicloud/src/services/linkkit/dm\dm_utils.c ****     if (input == NULL || input_len <= 0 || output == NULL || *output != NULL) {
 844              		.loc 1 205 5
 845              		.loc 1 205 8 is_stmt 0
 846 0000 51CD     		beq	a0,zero,.L89
 201:C:/Users/stapi/OneDrive/Desktop/GD32VW553/V1_MQTT_OK/GD32VW55X_Wifi_BLE_SDK/GD32VW55x_RELEASE_V1.0.2/MSDK/cloud/alicloud/src/services/linkkit/dm\dm_utils.c ****     int index = 0, output_len = 0;
 847              		.loc 1 201 1 discriminator 1
 848 0002 17030000 		call	t0,__riscv_save_3
 848      E7020300 
 849              		.cfi_offset 18, -16
 850              		.cfi_offset 9, -12
 851              		.cfi_offset 8, -8
 852              		.cfi_offset 1, -4
 853              		.cfi_def_cfa_offset 16
 854 000a 4111     		addi	sp,sp,-16
 855              		.cfi_def_cfa_offset 32
 856 000c AE84     		mv	s1,a1
 206:C:/Users/stapi/OneDrive/Desktop/GD32VW553/V1_MQTT_OK/GD32VW55X_Wifi_BLE_SDK/GD32VW55x_RELEASE_V1.0.2/MSDK/cloud/alicloud/src/services/linkkit/dm\dm_utils.c ****         return DM_INVALID_PARAMETER;
 857              		.loc 1 206 16 discriminator 1
 858 000e F957     		li	a5,-2
 205:C:/Users/stapi/OneDrive/Desktop/GD32VW553/V1_MQTT_OK/GD32VW55X_Wifi_BLE_SDK/GD32VW55x_RELEASE_V1.0.2/MSDK/cloud/alicloud/src/services/linkkit/dm\dm_utils.c ****         return DM_INVALID_PARAMETER;
 859              		.loc 1 205 23 discriminator 1
 860 0010 6350B008 		ble	a1,zero,.L82
 861 0014 3289     		mv	s2,a2
 205:C:/Users/stapi/OneDrive/Desktop/GD32VW553/V1_MQTT_OK/GD32VW55X_Wifi_BLE_SDK/GD32VW55x_RELEASE_V1.0.2/MSDK/cloud/alicloud/src/services/linkkit/dm\dm_utils.c ****         return DM_INVALID_PARAMETER;
 862              		.loc 1 205 41 discriminator 2
 863 0016 2DCE     		beq	a2,zero,.L82
 205:C:/Users/stapi/OneDrive/Desktop/GD32VW553/V1_MQTT_OK/GD32VW55X_Wifi_BLE_SDK/GD32VW55x_RELEASE_V1.0.2/MSDK/cloud/alicloud/src/services/linkkit/dm\dm_utils.c ****         return DM_INVALID_PARAMETER;
 864              		.loc 1 205 59 discriminator 3
 865 0018 1842     		lw	a4,0(a2)
 866 001a 3DEB     		bne	a4,zero,.L82
 207:C:/Users/stapi/OneDrive/Desktop/GD32VW553/V1_MQTT_OK/GD32VW55X_Wifi_BLE_SDK/GD32VW55x_RELEASE_V1.0.2/MSDK/cloud/alicloud/src/services/linkkit/dm\dm_utils.c ****     }
 208:C:/Users/stapi/OneDrive/Desktop/GD32VW553/V1_MQTT_OK/GD32VW55X_Wifi_BLE_SDK/GD32VW55x_RELEASE_V1.0.2/MSDK/cloud/alicloud/src/services/linkkit/dm\dm_utils.c **** 
 209:C:/Users/stapi/OneDrive/Desktop/GD32VW553/V1_MQTT_OK/GD32VW55X_Wifi_BLE_SDK/GD32VW55x_RELEASE_V1.0.2/MSDK/cloud/alicloud/src/services/linkkit/dm\dm_utils.c ****     output_len = input_len * 2;
 867              		.loc 1 209 16
 868 001c 13961500 		slli	a2,a1,1
 869              	.LVL95:
 210:C:/Users/stapi/OneDrive/Desktop/GD32VW553/V1_MQTT_OK/GD32VW55X_Wifi_BLE_SDK/GD32VW55x_RELEASE_V1.0.2/MSDK/cloud/alicloud/src/services/linkkit/dm\dm_utils.c ****     *output = DM_malloc(output_len + 1);
 870              		.loc 1 210 15
 871 0020 0506     		addi	a2,a2,1
 872 0022 2A84     		mv	s0,a0
 209:C:/Users/stapi/OneDrive/Desktop/GD32VW553/V1_MQTT_OK/GD32VW55X_Wifi_BLE_SDK/GD32VW55x_RELEASE_V1.0.2/MSDK/cloud/alicloud/src/services/linkkit/dm\dm_utils.c ****     *output = DM_malloc(output_len + 1);
 873              		.loc 1 209 5 is_stmt 1
 874              	.LVL96:
 875              		.loc 1 210 5
 876              		.loc 1 210 15 is_stmt 0
 877 0024 8145     		li	a1,0
 878              	.LVL97:
 879 0026 0145     		li	a0,0
 880              	.LVL98:
 881 0028 32C6     		sw	a2,12(sp)
 882 002a 97000000 		call	LITE_malloc_internal
 882      E7800000 
 883              	.LVL99:
 884              		.loc 1 210 13
 885 0032 2320A900 		sw	a0,0(s2)
 211:C:/Users/stapi/OneDrive/Desktop/GD32VW553/V1_MQTT_OK/GD32VW55X_Wifi_BLE_SDK/GD32VW55x_RELEASE_V1.0.2/MSDK/cloud/alicloud/src/services/linkkit/dm\dm_utils.c ****     if (*output == NULL) {
 886              		.loc 1 211 5 is_stmt 1
 212:C:/Users/stapi/OneDrive/Desktop/GD32VW553/V1_MQTT_OK/GD32VW55X_Wifi_BLE_SDK/GD32VW55x_RELEASE_V1.0.2/MSDK/cloud/alicloud/src/services/linkkit/dm\dm_utils.c ****         return DM_MEMORY_NOT_ENOUGH;
 887              		.loc 1 212 16 is_stmt 0
 888 0036 F557     		li	a5,-3
 211:C:/Users/stapi/OneDrive/Desktop/GD32VW553/V1_MQTT_OK/GD32VW55X_Wifi_BLE_SDK/GD32VW55x_RELEASE_V1.0.2/MSDK/cloud/alicloud/src/services/linkkit/dm\dm_utils.c ****     if (*output == NULL) {
 889              		.loc 1 211 8
 890 0038 21CD     		beq	a0,zero,.L82
 213:C:/Users/stapi/OneDrive/Desktop/GD32VW553/V1_MQTT_OK/GD32VW55X_Wifi_BLE_SDK/GD32VW55x_RELEASE_V1.0.2/MSDK/cloud/alicloud/src/services/linkkit/dm\dm_utils.c ****     }
 214:C:/Users/stapi/OneDrive/Desktop/GD32VW553/V1_MQTT_OK/GD32VW55X_Wifi_BLE_SDK/GD32VW55x_RELEASE_V1.0.2/MSDK/cloud/alicloud/src/services/linkkit/dm\dm_utils.c ****     memset(*output, 0, output_len + 1);
 891              		.loc 1 214 5 is_stmt 1
 892 003a 3246     		lw	a2,12(sp)
 893 003c 8145     		li	a1,0
 894 003e A294     		add	s1,s0,s1
 895              	.LVL100:
 896 0040 97000000 		call	memset
 896      E7800000 
 897              	.LVL101:
 215:C:/Users/stapi/OneDrive/Desktop/GD32VW553/V1_MQTT_OK/GD32VW55X_Wifi_BLE_SDK/GD32VW55x_RELEASE_V1.0.2/MSDK/cloud/alicloud/src/services/linkkit/dm\dm_utils.c **** 
 216:C:/Users/stapi/OneDrive/Desktop/GD32VW553/V1_MQTT_OK/GD32VW55X_Wifi_BLE_SDK/GD32VW55x_RELEASE_V1.0.2/MSDK/cloud/alicloud/src/services/linkkit/dm\dm_utils.c ****     for (index = 0; index < input_len; index++) {
 898              		.loc 1 216 5
 899              		.loc 1 216 21
 900 0048 2285     		mv	a0,s0
 214:C:/Users/stapi/OneDrive/Desktop/GD32VW553/V1_MQTT_OK/GD32VW55X_Wifi_BLE_SDK/GD32VW55x_RELEASE_V1.0.2/MSDK/cloud/alicloud/src/services/linkkit/dm\dm_utils.c **** 
 901              		.loc 1 214 5 is_stmt 0
 902 004a 0147     		li	a4,0
 217:C:/Users/stapi/OneDrive/Desktop/GD32VW553/V1_MQTT_OK/GD32VW55X_Wifi_BLE_SDK/GD32VW55x_RELEASE_V1.0.2/MSDK/cloud/alicloud/src/services/linkkit/dm\dm_utils.c ****         iter_char = (input[index] >> 4) & 0x0F;
 218:C:/Users/stapi/OneDrive/Desktop/GD32VW553/V1_MQTT_OK/GD32VW55X_Wifi_BLE_SDK/GD32VW55x_RELEASE_V1.0.2/MSDK/cloud/alicloud/src/services/linkkit/dm\dm_utils.c ****         if (iter_char <= 0x09) {
 903              		.loc 1 218 12
 904 004c 2546     		li	a2,9
 905              	.LVL102:
 906              	.L88:
 217:C:/Users/stapi/OneDrive/Desktop/GD32VW553/V1_MQTT_OK/GD32VW55X_Wifi_BLE_SDK/GD32VW55x_RELEASE_V1.0.2/MSDK/cloud/alicloud/src/services/linkkit/dm\dm_utils.c ****         iter_char = (input[index] >> 4) & 0x0F;
 907              		.loc 1 217 9 is_stmt 1
 217:C:/Users/stapi/OneDrive/Desktop/GD32VW553/V1_MQTT_OK/GD32VW55X_Wifi_BLE_SDK/GD32VW55x_RELEASE_V1.0.2/MSDK/cloud/alicloud/src/services/linkkit/dm\dm_utils.c ****         iter_char = (input[index] >> 4) & 0x0F;
 908              		.loc 1 217 19 is_stmt 0
 909 004e 83470500 		lbu	a5,0(a0)
 910 0052 9183     		srli	a5,a5,4
 911              	.LVL103:
 912              		.loc 1 218 9 is_stmt 1
 219:C:/Users/stapi/OneDrive/Desktop/GD32VW553/V1_MQTT_OK/GD32VW55X_Wifi_BLE_SDK/GD32VW55x_RELEASE_V1.0.2/MSDK/cloud/alicloud/src/services/linkkit/dm\dm_utils.c ****             iter_char += '0';
 220:C:/Users/stapi/OneDrive/Desktop/GD32VW553/V1_MQTT_OK/GD32VW55X_Wifi_BLE_SDK/GD32VW55x_RELEASE_V1.0.2/MSDK/cloud/alicloud/src/services/linkkit/dm\dm_utils.c ****         } else if (iter_char >= 0x0A && iter_char <= 0x0F) {
 221:C:/Users/stapi/OneDrive/Desktop/GD32VW553/V1_MQTT_OK/GD32VW55X_Wifi_BLE_SDK/GD32VW55x_RELEASE_V1.0.2/MSDK/cloud/alicloud/src/services/linkkit/dm\dm_utils.c ****             iter_char += 'A' - 0x0A;
 913              		.loc 1 221 23 is_stmt 0
 914 0054 93867703 		addi	a3,a5,55
 218:C:/Users/stapi/OneDrive/Desktop/GD32VW553/V1_MQTT_OK/GD32VW55X_Wifi_BLE_SDK/GD32VW55x_RELEASE_V1.0.2/MSDK/cloud/alicloud/src/services/linkkit/dm\dm_utils.c ****             iter_char += '0';
 915              		.loc 1 218 12
 916 0058 6364F600 		bgtu	a5,a2,.L85
 219:C:/Users/stapi/OneDrive/Desktop/GD32VW553/V1_MQTT_OK/GD32VW55X_Wifi_BLE_SDK/GD32VW55x_RELEASE_V1.0.2/MSDK/cloud/alicloud/src/services/linkkit/dm\dm_utils.c ****             iter_char += '0';
 917              		.loc 1 219 13 is_stmt 1
 219:C:/Users/stapi/OneDrive/Desktop/GD32VW553/V1_MQTT_OK/GD32VW55X_Wifi_BLE_SDK/GD32VW55x_RELEASE_V1.0.2/MSDK/cloud/alicloud/src/services/linkkit/dm\dm_utils.c ****             iter_char += '0';
 918              		.loc 1 219 23 is_stmt 0
 919 005c 93860703 		addi	a3,a5,48
 920              	.LVL104:
 921              	.L85:
 222:C:/Users/stapi/OneDrive/Desktop/GD32VW553/V1_MQTT_OK/GD32VW55X_Wifi_BLE_SDK/GD32VW55x_RELEASE_V1.0.2/MSDK/cloud/alicloud/src/services/linkkit/dm\dm_utils.c ****         }
 223:C:/Users/stapi/OneDrive/Desktop/GD32VW553/V1_MQTT_OK/GD32VW55X_Wifi_BLE_SDK/GD32VW55x_RELEASE_V1.0.2/MSDK/cloud/alicloud/src/services/linkkit/dm\dm_utils.c ****         (*output)[index * 2] = iter_char;
 922              		.loc 1 223 9 is_stmt 1
 923              		.loc 1 223 30 is_stmt 0
 924 0060 83270900 		lw	a5,0(s2)
 925 0064 BA97     		add	a5,a5,a4
 926 0066 2380D700 		sb	a3,0(a5)
 224:C:/Users/stapi/OneDrive/Desktop/GD32VW553/V1_MQTT_OK/GD32VW55X_Wifi_BLE_SDK/GD32VW55x_RELEASE_V1.0.2/MSDK/cloud/alicloud/src/services/linkkit/dm\dm_utils.c **** 
 225:C:/Users/stapi/OneDrive/Desktop/GD32VW553/V1_MQTT_OK/GD32VW55X_Wifi_BLE_SDK/GD32VW55x_RELEASE_V1.0.2/MSDK/cloud/alicloud/src/services/linkkit/dm\dm_utils.c ****         iter_char = (input[index]) & 0x0F;
 927              		.loc 1 225 9 is_stmt 1
 928              		.loc 1 225 19 is_stmt 0
 929 006a 83470500 		lbu	a5,0(a0)
 930 006e BD8B     		andi	a5,a5,15
 931              	.LVL105:
 226:C:/Users/stapi/OneDrive/Desktop/GD32VW553/V1_MQTT_OK/GD32VW55X_Wifi_BLE_SDK/GD32VW55x_RELEASE_V1.0.2/MSDK/cloud/alicloud/src/services/linkkit/dm\dm_utils.c ****         if (iter_char <= 0x09) {
 932              		.loc 1 226 9 is_stmt 1
 227:C:/Users/stapi/OneDrive/Desktop/GD32VW553/V1_MQTT_OK/GD32VW55X_Wifi_BLE_SDK/GD32VW55x_RELEASE_V1.0.2/MSDK/cloud/alicloud/src/services/linkkit/dm\dm_utils.c ****             iter_char += '0';
 228:C:/Users/stapi/OneDrive/Desktop/GD32VW553/V1_MQTT_OK/GD32VW55X_Wifi_BLE_SDK/GD32VW55x_RELEASE_V1.0.2/MSDK/cloud/alicloud/src/services/linkkit/dm\dm_utils.c ****         } else if (iter_char >= 0x0A && iter_char <= 0x0F) {
 229:C:/Users/stapi/OneDrive/Desktop/GD32VW553/V1_MQTT_OK/GD32VW55X_Wifi_BLE_SDK/GD32VW55x_RELEASE_V1.0.2/MSDK/cloud/alicloud/src/services/linkkit/dm\dm_utils.c ****             iter_char += 'A' - 0x0A;
 933              		.loc 1 229 23 is_stmt 0
 934 0070 93867703 		addi	a3,a5,55
 226:C:/Users/stapi/OneDrive/Desktop/GD32VW553/V1_MQTT_OK/GD32VW55X_Wifi_BLE_SDK/GD32VW55x_RELEASE_V1.0.2/MSDK/cloud/alicloud/src/services/linkkit/dm\dm_utils.c ****         if (iter_char <= 0x09) {
 935              		.loc 1 226 12
 936 0074 6364F600 		bgtu	a5,a2,.L87
 227:C:/Users/stapi/OneDrive/Desktop/GD32VW553/V1_MQTT_OK/GD32VW55X_Wifi_BLE_SDK/GD32VW55x_RELEASE_V1.0.2/MSDK/cloud/alicloud/src/services/linkkit/dm\dm_utils.c ****             iter_char += '0';
 937              		.loc 1 227 13 is_stmt 1
 227:C:/Users/stapi/OneDrive/Desktop/GD32VW553/V1_MQTT_OK/GD32VW55X_Wifi_BLE_SDK/GD32VW55x_RELEASE_V1.0.2/MSDK/cloud/alicloud/src/services/linkkit/dm\dm_utils.c ****             iter_char += '0';
 938              		.loc 1 227 23 is_stmt 0
 939 0078 93860703 		addi	a3,a5,48
 940              	.LVL106:
 941              	.L87:
 230:C:/Users/stapi/OneDrive/Desktop/GD32VW553/V1_MQTT_OK/GD32VW55X_Wifi_BLE_SDK/GD32VW55x_RELEASE_V1.0.2/MSDK/cloud/alicloud/src/services/linkkit/dm\dm_utils.c ****         }
 231:C:/Users/stapi/OneDrive/Desktop/GD32VW553/V1_MQTT_OK/GD32VW55X_Wifi_BLE_SDK/GD32VW55x_RELEASE_V1.0.2/MSDK/cloud/alicloud/src/services/linkkit/dm\dm_utils.c ****         (*output)[index * 2 + 1] = iter_char;
 942              		.loc 1 231 9 is_stmt 1 discriminator 2
 943              		.loc 1 231 34 is_stmt 0 discriminator 2
 944 007c 83270900 		lw	a5,0(s2)
 216:C:/Users/stapi/OneDrive/Desktop/GD32VW553/V1_MQTT_OK/GD32VW55X_Wifi_BLE_SDK/GD32VW55x_RELEASE_V1.0.2/MSDK/cloud/alicloud/src/services/linkkit/dm\dm_utils.c ****         iter_char = (input[index] >> 4) & 0x0F;
 945              		.loc 1 216 5 discriminator 2
 946 0080 0505     		addi	a0,a0,1
 947              	.LVL107:
 948              		.loc 1 231 34 discriminator 2
 949 0082 BA97     		add	a5,a5,a4
 950 0084 A380D700 		sb	a3,1(a5)
 216:C:/Users/stapi/OneDrive/Desktop/GD32VW553/V1_MQTT_OK/GD32VW55X_Wifi_BLE_SDK/GD32VW55x_RELEASE_V1.0.2/MSDK/cloud/alicloud/src/services/linkkit/dm\dm_utils.c ****         iter_char = (input[index] >> 4) & 0x0F;
 951              		.loc 1 216 40 is_stmt 1 discriminator 2
 952              	.LVL108:
 216:C:/Users/stapi/OneDrive/Desktop/GD32VW553/V1_MQTT_OK/GD32VW55X_Wifi_BLE_SDK/GD32VW55x_RELEASE_V1.0.2/MSDK/cloud/alicloud/src/services/linkkit/dm\dm_utils.c ****         iter_char = (input[index] >> 4) & 0x0F;
 953              		.loc 1 216 21 discriminator 2
 216:C:/Users/stapi/OneDrive/Desktop/GD32VW553/V1_MQTT_OK/GD32VW55X_Wifi_BLE_SDK/GD32VW55x_RELEASE_V1.0.2/MSDK/cloud/alicloud/src/services/linkkit/dm\dm_utils.c ****         iter_char = (input[index] >> 4) & 0x0F;
 954              		.loc 1 216 5 is_stmt 0 discriminator 2
 955 0088 0907     		addi	a4,a4,2
 956 008a E392A4FC 		bne	s1,a0,.L88
 232:C:/Users/stapi/OneDrive/Desktop/GD32VW553/V1_MQTT_OK/GD32VW55X_Wifi_BLE_SDK/GD32VW55x_RELEASE_V1.0.2/MSDK/cloud/alicloud/src/services/linkkit/dm\dm_utils.c ****     }
 233:C:/Users/stapi/OneDrive/Desktop/GD32VW553/V1_MQTT_OK/GD32VW55X_Wifi_BLE_SDK/GD32VW55x_RELEASE_V1.0.2/MSDK/cloud/alicloud/src/services/linkkit/dm\dm_utils.c **** 
 234:C:/Users/stapi/OneDrive/Desktop/GD32VW553/V1_MQTT_OK/GD32VW55X_Wifi_BLE_SDK/GD32VW55x_RELEASE_V1.0.2/MSDK/cloud/alicloud/src/services/linkkit/dm\dm_utils.c ****     return SUCCESS_RETURN;
 957              		.loc 1 234 12
 958 008e 8147     		li	a5,0
 959              	.LVL109:
 960              	.L82:
 235:C:/Users/stapi/OneDrive/Desktop/GD32VW553/V1_MQTT_OK/GD32VW55X_Wifi_BLE_SDK/GD32VW55x_RELEASE_V1.0.2/MSDK/cloud/alicloud/src/services/linkkit/dm\dm_utils.c **** }
 961              		.loc 1 235 1
 962 0090 3E85     		mv	a0,a5
 963 0092 4101     		addi	sp,sp,16
 964              		.cfi_def_cfa_offset 0
 965 0094 17030000 		tail	__riscv_restore_3
 965      67000300 
 966              		.cfi_restore 18
 967              		.cfi_restore 9
 968              		.cfi_restore 8
 969              		.cfi_restore 1
 970              		.cfi_def_cfa_offset -16
 971              	.LVL110:
 972              	.L89:
 973              		.cfi_def_cfa_offset 0
 206:C:/Users/stapi/OneDrive/Desktop/GD32VW553/V1_MQTT_OK/GD32VW55X_Wifi_BLE_SDK/GD32VW55x_RELEASE_V1.0.2/MSDK/cloud/alicloud/src/services/linkkit/dm\dm_utils.c ****     }
 974              		.loc 1 206 16
 975 009c F957     		li	a5,-2
 976              		.loc 1 235 1
 977 009e 3E85     		mv	a0,a5
 978              	.LVL111:
 979 00a0 8280     		ret
 980              		.cfi_endproc
 981              	.LFE27:
 983              		.section	.text.dm_utils_str_to_hex,"ax",@progbits
 984              		.align	1
 985              		.globl	dm_utils_str_to_hex
 987              	dm_utils_str_to_hex:
 988              	.LFB28:
 236:C:/Users/stapi/OneDrive/Desktop/GD32VW553/V1_MQTT_OK/GD32VW55X_Wifi_BLE_SDK/GD32VW55x_RELEASE_V1.0.2/MSDK/cloud/alicloud/src/services/linkkit/dm\dm_utils.c **** 
 237:C:/Users/stapi/OneDrive/Desktop/GD32VW553/V1_MQTT_OK/GD32VW55X_Wifi_BLE_SDK/GD32VW55x_RELEASE_V1.0.2/MSDK/cloud/alicloud/src/services/linkkit/dm\dm_utils.c **** int dm_utils_str_to_hex(_IN_ char *input, _IN_ int input_len, _OU_ unsigned char **output, _OU_ int
 238:C:/Users/stapi/OneDrive/Desktop/GD32VW553/V1_MQTT_OK/GD32VW55X_Wifi_BLE_SDK/GD32VW55x_RELEASE_V1.0.2/MSDK/cloud/alicloud/src/services/linkkit/dm\dm_utils.c **** {
 989              		.loc 1 238 1 is_stmt 1
 990              		.cfi_startproc
 991              	.LVL112:
 239:C:/Users/stapi/OneDrive/Desktop/GD32VW553/V1_MQTT_OK/GD32VW55X_Wifi_BLE_SDK/GD32VW55x_RELEASE_V1.0.2/MSDK/cloud/alicloud/src/services/linkkit/dm\dm_utils.c ****     int index = 0;
 992              		.loc 1 239 5
 240:C:/Users/stapi/OneDrive/Desktop/GD32VW553/V1_MQTT_OK/GD32VW55X_Wifi_BLE_SDK/GD32VW55x_RELEASE_V1.0.2/MSDK/cloud/alicloud/src/services/linkkit/dm\dm_utils.c ****     char iter_char = 0;
 993              		.loc 1 240 5
 241:C:/Users/stapi/OneDrive/Desktop/GD32VW553/V1_MQTT_OK/GD32VW55X_Wifi_BLE_SDK/GD32VW55x_RELEASE_V1.0.2/MSDK/cloud/alicloud/src/services/linkkit/dm\dm_utils.c **** 
 242:C:/Users/stapi/OneDrive/Desktop/GD32VW553/V1_MQTT_OK/GD32VW55X_Wifi_BLE_SDK/GD32VW55x_RELEASE_V1.0.2/MSDK/cloud/alicloud/src/services/linkkit/dm\dm_utils.c ****     if (input == NULL || input_len <= 0 || input_len % 2 != 0 ||
 994              		.loc 1 242 5
 995              		.loc 1 242 8 is_stmt 0
 996 0000 75C1     		beq	a0,zero,.L106
 238:C:/Users/stapi/OneDrive/Desktop/GD32VW553/V1_MQTT_OK/GD32VW55X_Wifi_BLE_SDK/GD32VW55x_RELEASE_V1.0.2/MSDK/cloud/alicloud/src/services/linkkit/dm\dm_utils.c ****     int index = 0;
 997              		.loc 1 238 1 discriminator 1
 998 0002 17030000 		call	t0,__riscv_save_4
 998      E7020300 
 999              		.cfi_offset 19, -20
 1000              		.cfi_offset 18, -16
 1001              		.cfi_offset 9, -12
 1002              		.cfi_offset 8, -8
 1003              		.cfi_offset 1, -4
 1004              		.cfi_def_cfa_offset 32
 1005 000a AE84     		mv	s1,a1
 243:C:/Users/stapi/OneDrive/Desktop/GD32VW553/V1_MQTT_OK/GD32VW55X_Wifi_BLE_SDK/GD32VW55x_RELEASE_V1.0.2/MSDK/cloud/alicloud/src/services/linkkit/dm\dm_utils.c ****         output == NULL || *output != NULL || output_len == NULL) {
 244:C:/Users/stapi/OneDrive/Desktop/GD32VW553/V1_MQTT_OK/GD32VW55X_Wifi_BLE_SDK/GD32VW55x_RELEASE_V1.0.2/MSDK/cloud/alicloud/src/services/linkkit/dm\dm_utils.c ****         return DM_INVALID_PARAMETER;
 1006              		.loc 1 244 16 discriminator 1
 1007 000c F957     		li	a5,-2
 242:C:/Users/stapi/OneDrive/Desktop/GD32VW553/V1_MQTT_OK/GD32VW55X_Wifi_BLE_SDK/GD32VW55x_RELEASE_V1.0.2/MSDK/cloud/alicloud/src/services/linkkit/dm\dm_utils.c ****         output == NULL || *output != NULL || output_len == NULL) {
 1008              		.loc 1 242 23 discriminator 1
 1009 000e 6350B00A 		ble	a1,zero,.L99
 242:C:/Users/stapi/OneDrive/Desktop/GD32VW553/V1_MQTT_OK/GD32VW55X_Wifi_BLE_SDK/GD32VW55x_RELEASE_V1.0.2/MSDK/cloud/alicloud/src/services/linkkit/dm\dm_utils.c ****         output == NULL || *output != NULL || output_len == NULL) {
 1010              		.loc 1 242 58 discriminator 2
 1011 0012 13F71500 		andi	a4,a1,1
 242:C:/Users/stapi/OneDrive/Desktop/GD32VW553/V1_MQTT_OK/GD32VW55X_Wifi_BLE_SDK/GD32VW55x_RELEASE_V1.0.2/MSDK/cloud/alicloud/src/services/linkkit/dm\dm_utils.c ****         output == NULL || *output != NULL || output_len == NULL) {
 1012              		.loc 1 242 41 discriminator 2
 1013 0016 41EF     		bne	a4,zero,.L99
 1014 0018 3284     		mv	s0,a2
 242:C:/Users/stapi/OneDrive/Desktop/GD32VW553/V1_MQTT_OK/GD32VW55X_Wifi_BLE_SDK/GD32VW55x_RELEASE_V1.0.2/MSDK/cloud/alicloud/src/services/linkkit/dm\dm_utils.c ****         output == NULL || *output != NULL || output_len == NULL) {
 1015              		.loc 1 242 63 discriminator 3
 1016 001a 51CA     		beq	a2,zero,.L99
 243:C:/Users/stapi/OneDrive/Desktop/GD32VW553/V1_MQTT_OK/GD32VW55X_Wifi_BLE_SDK/GD32VW55x_RELEASE_V1.0.2/MSDK/cloud/alicloud/src/services/linkkit/dm\dm_utils.c ****         output == NULL || *output != NULL || output_len == NULL) {
 1017              		.loc 1 243 24
 1018 001c 1842     		lw	a4,0(a2)
 1019 001e 41EB     		bne	a4,zero,.L99
 1020 0020 3689     		mv	s2,a3
 243:C:/Users/stapi/OneDrive/Desktop/GD32VW553/V1_MQTT_OK/GD32VW55X_Wifi_BLE_SDK/GD32VW55x_RELEASE_V1.0.2/MSDK/cloud/alicloud/src/services/linkkit/dm\dm_utils.c ****         output == NULL || *output != NULL || output_len == NULL) {
 1021              		.loc 1 243 43 discriminator 1
 1022 0022 D1C6     		beq	a3,zero,.L99
 245:C:/Users/stapi/OneDrive/Desktop/GD32VW553/V1_MQTT_OK/GD32VW55X_Wifi_BLE_SDK/GD32VW55x_RELEASE_V1.0.2/MSDK/cloud/alicloud/src/services/linkkit/dm\dm_utils.c ****     }
 246:C:/Users/stapi/OneDrive/Desktop/GD32VW553/V1_MQTT_OK/GD32VW55X_Wifi_BLE_SDK/GD32VW55x_RELEASE_V1.0.2/MSDK/cloud/alicloud/src/services/linkkit/dm\dm_utils.c **** 
 247:C:/Users/stapi/OneDrive/Desktop/GD32VW553/V1_MQTT_OK/GD32VW55X_Wifi_BLE_SDK/GD32VW55x_RELEASE_V1.0.2/MSDK/cloud/alicloud/src/services/linkkit/dm\dm_utils.c ****     *output_len = input_len / 2;
 1023              		.loc 1 247 29
 1024 0024 13D61540 		srai	a2,a1,1
 1025              	.LVL113:
 1026 0028 AA89     		mv	s3,a0
 1027              		.loc 1 247 5 is_stmt 1
 1028              		.loc 1 247 17 is_stmt 0
 1029 002a 90C2     		sw	a2,0(a3)
 248:C:/Users/stapi/OneDrive/Desktop/GD32VW553/V1_MQTT_OK/GD32VW55X_Wifi_BLE_SDK/GD32VW55x_RELEASE_V1.0.2/MSDK/cloud/alicloud/src/services/linkkit/dm\dm_utils.c ****     *output = DM_malloc(*output_len);
 1030              		.loc 1 248 5 is_stmt 1
 1031              		.loc 1 248 15 is_stmt 0
 1032 002c 8145     		li	a1,0
 1033              	.LVL114:
 1034 002e 0145     		li	a0,0
 1035              	.LVL115:
 1036 0030 97000000 		call	LITE_malloc_internal
 1036      E7800000 
 1037              	.LVL116:
 1038              		.loc 1 248 13
 1039 0038 08C0     		sw	a0,0(s0)
 249:C:/Users/stapi/OneDrive/Desktop/GD32VW553/V1_MQTT_OK/GD32VW55X_Wifi_BLE_SDK/GD32VW55x_RELEASE_V1.0.2/MSDK/cloud/alicloud/src/services/linkkit/dm\dm_utils.c ****     if (*output == NULL) {
 1040              		.loc 1 249 5 is_stmt 1
 250:C:/Users/stapi/OneDrive/Desktop/GD32VW553/V1_MQTT_OK/GD32VW55X_Wifi_BLE_SDK/GD32VW55x_RELEASE_V1.0.2/MSDK/cloud/alicloud/src/services/linkkit/dm\dm_utils.c ****         return DM_MEMORY_NOT_ENOUGH;
 1041              		.loc 1 250 16 is_stmt 0
 1042 003a F557     		li	a5,-3
 249:C:/Users/stapi/OneDrive/Desktop/GD32VW553/V1_MQTT_OK/GD32VW55X_Wifi_BLE_SDK/GD32VW55x_RELEASE_V1.0.2/MSDK/cloud/alicloud/src/services/linkkit/dm\dm_utils.c ****     if (*output == NULL) {
 1043              		.loc 1 249 8
 1044 003c 2DC9     		beq	a0,zero,.L99
 251:C:/Users/stapi/OneDrive/Desktop/GD32VW553/V1_MQTT_OK/GD32VW55X_Wifi_BLE_SDK/GD32VW55x_RELEASE_V1.0.2/MSDK/cloud/alicloud/src/services/linkkit/dm\dm_utils.c ****     }
 252:C:/Users/stapi/OneDrive/Desktop/GD32VW553/V1_MQTT_OK/GD32VW55X_Wifi_BLE_SDK/GD32VW55x_RELEASE_V1.0.2/MSDK/cloud/alicloud/src/services/linkkit/dm\dm_utils.c ****     memset(*output, 0, *output_len);
 1045              		.loc 1 252 5 is_stmt 1
 1046 003e 03260900 		lw	a2,0(s2)
 1047 0042 8145     		li	a1,0
 1048 0044 97000000 		call	memset
 1048      E7800000 
 1049              	.LVL117:
 253:C:/Users/stapi/OneDrive/Desktop/GD32VW553/V1_MQTT_OK/GD32VW55X_Wifi_BLE_SDK/GD32VW55x_RELEASE_V1.0.2/MSDK/cloud/alicloud/src/services/linkkit/dm\dm_utils.c **** 
 254:C:/Users/stapi/OneDrive/Desktop/GD32VW553/V1_MQTT_OK/GD32VW55X_Wifi_BLE_SDK/GD32VW55x_RELEASE_V1.0.2/MSDK/cloud/alicloud/src/services/linkkit/dm\dm_utils.c ****     for (index = 0; index < input_len; index += 2) {
 1050              		.loc 1 254 5
 1051              		.loc 1 254 21
 1052 004c 4E85     		mv	a0,s3
 240:C:/Users/stapi/OneDrive/Desktop/GD32VW553/V1_MQTT_OK/GD32VW55X_Wifi_BLE_SDK/GD32VW55x_RELEASE_V1.0.2/MSDK/cloud/alicloud/src/services/linkkit/dm\dm_utils.c **** 
 1053              		.loc 1 240 10 is_stmt 0
 1054 004e 8147     		li	a5,0
 1055              		.loc 1 254 16
 1056 0050 8146     		li	a3,0
 255:C:/Users/stapi/OneDrive/Desktop/GD32VW553/V1_MQTT_OK/GD32VW55X_Wifi_BLE_SDK/GD32VW55x_RELEASE_V1.0.2/MSDK/cloud/alicloud/src/services/linkkit/dm\dm_utils.c ****         if (input[index] >= '0' && input[index] <= '9') {
 1057              		.loc 1 255 12
 1058 0052 A545     		li	a1,9
 256:C:/Users/stapi/OneDrive/Desktop/GD32VW553/V1_MQTT_OK/GD32VW55X_Wifi_BLE_SDK/GD32VW55x_RELEASE_V1.0.2/MSDK/cloud/alicloud/src/services/linkkit/dm\dm_utils.c ****             iter_char = input[index] - '0';
 257:C:/Users/stapi/OneDrive/Desktop/GD32VW553/V1_MQTT_OK/GD32VW55X_Wifi_BLE_SDK/GD32VW55x_RELEASE_V1.0.2/MSDK/cloud/alicloud/src/services/linkkit/dm\dm_utils.c ****         } else if (input[index] >= 'A' && input[index] <= 'F') {
 1059              		.loc 1 257 19
 1060 0054 1548     		li	a6,5
 1061              	.LVL118:
 1062              	.L105:
 255:C:/Users/stapi/OneDrive/Desktop/GD32VW553/V1_MQTT_OK/GD32VW55X_Wifi_BLE_SDK/GD32VW55x_RELEASE_V1.0.2/MSDK/cloud/alicloud/src/services/linkkit/dm\dm_utils.c ****         if (input[index] >= '0' && input[index] <= '9') {
 1063              		.loc 1 255 9 is_stmt 1
 255:C:/Users/stapi/OneDrive/Desktop/GD32VW553/V1_MQTT_OK/GD32VW55X_Wifi_BLE_SDK/GD32VW55x_RELEASE_V1.0.2/MSDK/cloud/alicloud/src/services/linkkit/dm\dm_utils.c ****         if (input[index] >= '0' && input[index] <= '9') {
 1064              		.loc 1 255 33 is_stmt 0
 1065 0056 03470500 		lbu	a4,0(a0)
 1066 005a 130607FD 		addi	a2,a4,-48
 1067 005e 1376F60F 		andi	a2,a2,0xff
 255:C:/Users/stapi/OneDrive/Desktop/GD32VW553/V1_MQTT_OK/GD32VW55X_Wifi_BLE_SDK/GD32VW55x_RELEASE_V1.0.2/MSDK/cloud/alicloud/src/services/linkkit/dm\dm_utils.c ****         if (input[index] >= '0' && input[index] <= '9') {
 1068              		.loc 1 255 12
 1069 0062 63EBC504 		bgtu	a2,a1,.L101
 256:C:/Users/stapi/OneDrive/Desktop/GD32VW553/V1_MQTT_OK/GD32VW55X_Wifi_BLE_SDK/GD32VW55x_RELEASE_V1.0.2/MSDK/cloud/alicloud/src/services/linkkit/dm\dm_utils.c ****             iter_char = input[index] - '0';
 1070              		.loc 1 256 13 is_stmt 1
 256:C:/Users/stapi/OneDrive/Desktop/GD32VW553/V1_MQTT_OK/GD32VW55X_Wifi_BLE_SDK/GD32VW55x_RELEASE_V1.0.2/MSDK/cloud/alicloud/src/services/linkkit/dm\dm_utils.c ****             iter_char = input[index] - '0';
 1071              		.loc 1 256 23 is_stmt 0
 1072 0066 93174660 		sext.b	a5,a2
 1073              	.LVL119:
 1074              	.L102:
 258:C:/Users/stapi/OneDrive/Desktop/GD32VW553/V1_MQTT_OK/GD32VW55X_Wifi_BLE_SDK/GD32VW55x_RELEASE_V1.0.2/MSDK/cloud/alicloud/src/services/linkkit/dm\dm_utils.c ****             iter_char = input[index] - 'A' + 0x0A;
 259:C:/Users/stapi/OneDrive/Desktop/GD32VW553/V1_MQTT_OK/GD32VW55X_Wifi_BLE_SDK/GD32VW55x_RELEASE_V1.0.2/MSDK/cloud/alicloud/src/services/linkkit/dm\dm_utils.c ****         }
 260:C:/Users/stapi/OneDrive/Desktop/GD32VW553/V1_MQTT_OK/GD32VW55X_Wifi_BLE_SDK/GD32VW55x_RELEASE_V1.0.2/MSDK/cloud/alicloud/src/services/linkkit/dm\dm_utils.c ****         (*output)[index / 2] |= (iter_char << 4) & 0xF0;
 1075              		.loc 1 260 9 is_stmt 1
 1076              		.loc 1 260 30 is_stmt 0
 1077 006a 1040     		lw	a2,0(s0)
 1078              		.loc 1 260 25
 1079 006c 93D81640 		srai	a7,a3,1
 1080              		.loc 1 260 44
 1081 0070 13974700 		slli	a4,a5,4
 1082              		.loc 1 260 30
 1083 0074 4696     		add	a2,a2,a7
 1084 0076 03430600 		lbu	t1,0(a2)
 1085 007a 33676700 		or	a4,a4,t1
 1086 007e 2300E600 		sb	a4,0(a2)
 261:C:/Users/stapi/OneDrive/Desktop/GD32VW553/V1_MQTT_OK/GD32VW55X_Wifi_BLE_SDK/GD32VW55x_RELEASE_V1.0.2/MSDK/cloud/alicloud/src/services/linkkit/dm\dm_utils.c **** 
 262:C:/Users/stapi/OneDrive/Desktop/GD32VW553/V1_MQTT_OK/GD32VW55X_Wifi_BLE_SDK/GD32VW55x_RELEASE_V1.0.2/MSDK/cloud/alicloud/src/services/linkkit/dm\dm_utils.c ****         if (input[index + 1] >= '0' && input[index + 1] <= '9') {
 1087              		.loc 1 262 9 is_stmt 1
 1088              		.loc 1 262 37 is_stmt 0
 1089 0082 03471500 		lbu	a4,1(a0)
 1090 0086 130607FD 		addi	a2,a4,-48
 1091 008a 1376F60F 		andi	a2,a2,0xff
 1092              		.loc 1 262 12
 1093 008e 63E0C504 		bgtu	a2,a1,.L103
 263:C:/Users/stapi/OneDrive/Desktop/GD32VW553/V1_MQTT_OK/GD32VW55X_Wifi_BLE_SDK/GD32VW55x_RELEASE_V1.0.2/MSDK/cloud/alicloud/src/services/linkkit/dm\dm_utils.c ****             iter_char = input[index + 1] - '0';
 1094              		.loc 1 263 13 is_stmt 1
 1095              		.loc 1 263 23 is_stmt 0
 1096 0092 93174660 		sext.b	a5,a2
 1097              	.LVL120:
 1098              	.L104:
 264:C:/Users/stapi/OneDrive/Desktop/GD32VW553/V1_MQTT_OK/GD32VW55X_Wifi_BLE_SDK/GD32VW55x_RELEASE_V1.0.2/MSDK/cloud/alicloud/src/services/linkkit/dm\dm_utils.c ****         } else if (input[index + 1] >= 'A' && input[index + 1] <= 'F') {
 265:C:/Users/stapi/OneDrive/Desktop/GD32VW553/V1_MQTT_OK/GD32VW55X_Wifi_BLE_SDK/GD32VW55x_RELEASE_V1.0.2/MSDK/cloud/alicloud/src/services/linkkit/dm\dm_utils.c ****             iter_char = input[index + 1] - 'A' + 0x0A;
 266:C:/Users/stapi/OneDrive/Desktop/GD32VW553/V1_MQTT_OK/GD32VW55X_Wifi_BLE_SDK/GD32VW55x_RELEASE_V1.0.2/MSDK/cloud/alicloud/src/services/linkkit/dm\dm_utils.c ****         }
 267:C:/Users/stapi/OneDrive/Desktop/GD32VW553/V1_MQTT_OK/GD32VW55X_Wifi_BLE_SDK/GD32VW55x_RELEASE_V1.0.2/MSDK/cloud/alicloud/src/services/linkkit/dm\dm_utils.c ****         (*output)[index / 2] |= (iter_char) & 0x0F;
 1099              		.loc 1 267 9 is_stmt 1 discriminator 2
 1100              		.loc 1 267 30 is_stmt 0 discriminator 2
 1101 0096 1840     		lw	a4,0(s0)
 254:C:/Users/stapi/OneDrive/Desktop/GD32VW553/V1_MQTT_OK/GD32VW55X_Wifi_BLE_SDK/GD32VW55x_RELEASE_V1.0.2/MSDK/cloud/alicloud/src/services/linkkit/dm\dm_utils.c ****         if (input[index] >= '0' && input[index] <= '9') {
 1102              		.loc 1 254 46 discriminator 2
 1103 0098 8906     		addi	a3,a3,2
 1104              	.LVL121:
 254:C:/Users/stapi/OneDrive/Desktop/GD32VW553/V1_MQTT_OK/GD32VW55X_Wifi_BLE_SDK/GD32VW55x_RELEASE_V1.0.2/MSDK/cloud/alicloud/src/services/linkkit/dm\dm_utils.c ****         if (input[index] >= '0' && input[index] <= '9') {
 1105              		.loc 1 254 5 discriminator 2
 1106 009a 0905     		addi	a0,a0,2
 1107              		.loc 1 267 30 discriminator 2
 1108 009c 4697     		add	a4,a4,a7
 1109 009e 03460700 		lbu	a2,0(a4)
 1110 00a2 5D8E     		or	a2,a5,a2
 1111 00a4 2300C700 		sb	a2,0(a4)
 254:C:/Users/stapi/OneDrive/Desktop/GD32VW553/V1_MQTT_OK/GD32VW55X_Wifi_BLE_SDK/GD32VW55x_RELEASE_V1.0.2/MSDK/cloud/alicloud/src/services/linkkit/dm\dm_utils.c ****         if (input[index] >= '0' && input[index] <= '9') {
 1112              		.loc 1 254 40 is_stmt 1 discriminator 2
 1113              	.LVL122:
 254:C:/Users/stapi/OneDrive/Desktop/GD32VW553/V1_MQTT_OK/GD32VW55X_Wifi_BLE_SDK/GD32VW55x_RELEASE_V1.0.2/MSDK/cloud/alicloud/src/services/linkkit/dm\dm_utils.c ****         if (input[index] >= '0' && input[index] <= '9') {
 1114              		.loc 1 254 21 discriminator 2
 254:C:/Users/stapi/OneDrive/Desktop/GD32VW553/V1_MQTT_OK/GD32VW55X_Wifi_BLE_SDK/GD32VW55x_RELEASE_V1.0.2/MSDK/cloud/alicloud/src/services/linkkit/dm\dm_utils.c ****         if (input[index] >= '0' && input[index] <= '9') {
 1115              		.loc 1 254 5 is_stmt 0 discriminator 2
 1116 00a8 E3C796FA 		bgt	s1,a3,.L105
 268:C:/Users/stapi/OneDrive/Desktop/GD32VW553/V1_MQTT_OK/GD32VW55X_Wifi_BLE_SDK/GD32VW55x_RELEASE_V1.0.2/MSDK/cloud/alicloud/src/services/linkkit/dm\dm_utils.c ****     }
 269:C:/Users/stapi/OneDrive/Desktop/GD32VW553/V1_MQTT_OK/GD32VW55X_Wifi_BLE_SDK/GD32VW55x_RELEASE_V1.0.2/MSDK/cloud/alicloud/src/services/linkkit/dm\dm_utils.c **** 
 270:C:/Users/stapi/OneDrive/Desktop/GD32VW553/V1_MQTT_OK/GD32VW55X_Wifi_BLE_SDK/GD32VW55x_RELEASE_V1.0.2/MSDK/cloud/alicloud/src/services/linkkit/dm\dm_utils.c ****     return SUCCESS_RETURN;
 1117              		.loc 1 270 12
 1118 00ac 8147     		li	a5,0
 1119              	.LVL123:
 1120              	.L99:
 271:C:/Users/stapi/OneDrive/Desktop/GD32VW553/V1_MQTT_OK/GD32VW55X_Wifi_BLE_SDK/GD32VW55x_RELEASE_V1.0.2/MSDK/cloud/alicloud/src/services/linkkit/dm\dm_utils.c **** }
 1121              		.loc 1 271 1
 1122 00ae 3E85     		mv	a0,a5
 1123 00b0 17030000 		tail	__riscv_restore_4
 1123      67000300 
 1124              		.cfi_remember_state
 1125              		.cfi_restore 19
 1126              		.cfi_restore 18
 1127              		.cfi_restore 9
 1128              		.cfi_restore 8
 1129              		.cfi_restore 1
 1130              		.cfi_def_cfa_offset 0
 1131              	.LVL124:
 1132              	.L101:
 1133              		.cfi_restore_state
 257:C:/Users/stapi/OneDrive/Desktop/GD32VW553/V1_MQTT_OK/GD32VW55X_Wifi_BLE_SDK/GD32VW55x_RELEASE_V1.0.2/MSDK/cloud/alicloud/src/services/linkkit/dm\dm_utils.c ****             iter_char = input[index] - 'A' + 0x0A;
 1134              		.loc 1 257 16 is_stmt 1
 257:C:/Users/stapi/OneDrive/Desktop/GD32VW553/V1_MQTT_OK/GD32VW55X_Wifi_BLE_SDK/GD32VW55x_RELEASE_V1.0.2/MSDK/cloud/alicloud/src/services/linkkit/dm\dm_utils.c ****             iter_char = input[index] - 'A' + 0x0A;
 1135              		.loc 1 257 40 is_stmt 0
 1136 00b8 1306F7FB 		addi	a2,a4,-65
 257:C:/Users/stapi/OneDrive/Desktop/GD32VW553/V1_MQTT_OK/GD32VW55X_Wifi_BLE_SDK/GD32VW55x_RELEASE_V1.0.2/MSDK/cloud/alicloud/src/services/linkkit/dm\dm_utils.c ****             iter_char = input[index] - 'A' + 0x0A;
 1137              		.loc 1 257 19
 1138 00bc 1376F60F 		andi	a2,a2,0xff
 1139 00c0 E365C8FA 		bgtu	a2,a6,.L102
 258:C:/Users/stapi/OneDrive/Desktop/GD32VW553/V1_MQTT_OK/GD32VW55X_Wifi_BLE_SDK/GD32VW55x_RELEASE_V1.0.2/MSDK/cloud/alicloud/src/services/linkkit/dm\dm_utils.c ****         }
 1140              		.loc 1 258 13 is_stmt 1
 258:C:/Users/stapi/OneDrive/Desktop/GD32VW553/V1_MQTT_OK/GD32VW55X_Wifi_BLE_SDK/GD32VW55x_RELEASE_V1.0.2/MSDK/cloud/alicloud/src/services/linkkit/dm\dm_utils.c ****         }
 1141              		.loc 1 258 44 is_stmt 0
 1142 00c4 930797FC 		addi	a5,a4,-55
 1143              	.LVL125:
 258:C:/Users/stapi/OneDrive/Desktop/GD32VW553/V1_MQTT_OK/GD32VW55X_Wifi_BLE_SDK/GD32VW55x_RELEASE_V1.0.2/MSDK/cloud/alicloud/src/services/linkkit/dm\dm_utils.c ****         }
 1144              		.loc 1 258 23
 1145 00c8 93974760 		sext.b	a5,a5
 1146              	.LVL126:
 1147 00cc 79BF     		j	.L102
 1148              	.L103:
 264:C:/Users/stapi/OneDrive/Desktop/GD32VW553/V1_MQTT_OK/GD32VW55X_Wifi_BLE_SDK/GD32VW55x_RELEASE_V1.0.2/MSDK/cloud/alicloud/src/services/linkkit/dm\dm_utils.c ****             iter_char = input[index + 1] - 'A' + 0x0A;
 1149              		.loc 1 264 16 is_stmt 1
 264:C:/Users/stapi/OneDrive/Desktop/GD32VW553/V1_MQTT_OK/GD32VW55X_Wifi_BLE_SDK/GD32VW55x_RELEASE_V1.0.2/MSDK/cloud/alicloud/src/services/linkkit/dm\dm_utils.c ****             iter_char = input[index + 1] - 'A' + 0x0A;
 1150              		.loc 1 264 44 is_stmt 0
 1151 00ce 1306F7FB 		addi	a2,a4,-65
 264:C:/Users/stapi/OneDrive/Desktop/GD32VW553/V1_MQTT_OK/GD32VW55X_Wifi_BLE_SDK/GD32VW55x_RELEASE_V1.0.2/MSDK/cloud/alicloud/src/services/linkkit/dm\dm_utils.c ****             iter_char = input[index + 1] - 'A' + 0x0A;
 1152              		.loc 1 264 19
 1153 00d2 1376F60F 		andi	a2,a2,0xff
 1154 00d6 E360C8FC 		bgtu	a2,a6,.L104
 265:C:/Users/stapi/OneDrive/Desktop/GD32VW553/V1_MQTT_OK/GD32VW55X_Wifi_BLE_SDK/GD32VW55x_RELEASE_V1.0.2/MSDK/cloud/alicloud/src/services/linkkit/dm\dm_utils.c ****         }
 1155              		.loc 1 265 13 is_stmt 1
 265:C:/Users/stapi/OneDrive/Desktop/GD32VW553/V1_MQTT_OK/GD32VW55X_Wifi_BLE_SDK/GD32VW55x_RELEASE_V1.0.2/MSDK/cloud/alicloud/src/services/linkkit/dm\dm_utils.c ****         }
 1156              		.loc 1 265 48 is_stmt 0
 1157 00da 930797FC 		addi	a5,a4,-55
 1158              	.LVL127:
 265:C:/Users/stapi/OneDrive/Desktop/GD32VW553/V1_MQTT_OK/GD32VW55X_Wifi_BLE_SDK/GD32VW55x_RELEASE_V1.0.2/MSDK/cloud/alicloud/src/services/linkkit/dm\dm_utils.c ****         }
 1159              		.loc 1 265 23
 1160 00de 93974760 		sext.b	a5,a5
 1161              	.LVL128:
 1162 00e2 55BF     		j	.L104
 1163              	.LVL129:
 1164              	.L106:
 1165              		.cfi_def_cfa_offset 0
 1166              		.cfi_restore 1
 1167              		.cfi_restore 8
 1168              		.cfi_restore 9
 1169              		.cfi_restore 18
 1170              		.cfi_restore 19
 244:C:/Users/stapi/OneDrive/Desktop/GD32VW553/V1_MQTT_OK/GD32VW55X_Wifi_BLE_SDK/GD32VW55x_RELEASE_V1.0.2/MSDK/cloud/alicloud/src/services/linkkit/dm\dm_utils.c ****     }
 1171              		.loc 1 244 16
 1172 00e4 F957     		li	a5,-2
 1173              		.loc 1 271 1
 1174 00e6 3E85     		mv	a0,a5
 1175              	.LVL130:
 1176 00e8 8280     		ret
 1177              		.cfi_endproc
 1178              	.LFE28:
 1180              		.section	.text.dm_utils_memtok,"ax",@progbits
 1181              		.align	1
 1182              		.globl	dm_utils_memtok
 1184              	dm_utils_memtok:
 1185              	.LFB29:
 272:C:/Users/stapi/OneDrive/Desktop/GD32VW553/V1_MQTT_OK/GD32VW55X_Wifi_BLE_SDK/GD32VW55x_RELEASE_V1.0.2/MSDK/cloud/alicloud/src/services/linkkit/dm\dm_utils.c **** 
 273:C:/Users/stapi/OneDrive/Desktop/GD32VW553/V1_MQTT_OK/GD32VW55X_Wifi_BLE_SDK/GD32VW55x_RELEASE_V1.0.2/MSDK/cloud/alicloud/src/services/linkkit/dm\dm_utils.c **** int dm_utils_memtok(_IN_ char *input, _IN_ int input_len, _IN_ char delimiter, _IN_ int index, _OU_
 274:C:/Users/stapi/OneDrive/Desktop/GD32VW553/V1_MQTT_OK/GD32VW55X_Wifi_BLE_SDK/GD32VW55x_RELEASE_V1.0.2/MSDK/cloud/alicloud/src/services/linkkit/dm\dm_utils.c **** {
 1186              		.loc 1 274 1 is_stmt 1
 1187              		.cfi_startproc
 1188              	.LVL131:
 275:C:/Users/stapi/OneDrive/Desktop/GD32VW553/V1_MQTT_OK/GD32VW55X_Wifi_BLE_SDK/GD32VW55x_RELEASE_V1.0.2/MSDK/cloud/alicloud/src/services/linkkit/dm\dm_utils.c ****     int item_index = 0;
 1189              		.loc 1 275 5
 276:C:/Users/stapi/OneDrive/Desktop/GD32VW553/V1_MQTT_OK/GD32VW55X_Wifi_BLE_SDK/GD32VW55x_RELEASE_V1.0.2/MSDK/cloud/alicloud/src/services/linkkit/dm\dm_utils.c ****     int count = 0;
 1190              		.loc 1 276 5
 277:C:/Users/stapi/OneDrive/Desktop/GD32VW553/V1_MQTT_OK/GD32VW55X_Wifi_BLE_SDK/GD32VW55x_RELEASE_V1.0.2/MSDK/cloud/alicloud/src/services/linkkit/dm\dm_utils.c **** 
 278:C:/Users/stapi/OneDrive/Desktop/GD32VW553/V1_MQTT_OK/GD32VW55X_Wifi_BLE_SDK/GD32VW55x_RELEASE_V1.0.2/MSDK/cloud/alicloud/src/services/linkkit/dm\dm_utils.c ****     if (input == NULL || input_len <= 0 || offset == NULL) {
 1191              		.loc 1 278 5
 274:C:/Users/stapi/OneDrive/Desktop/GD32VW553/V1_MQTT_OK/GD32VW55X_Wifi_BLE_SDK/GD32VW55x_RELEASE_V1.0.2/MSDK/cloud/alicloud/src/services/linkkit/dm\dm_utils.c ****     int item_index = 0;
 1192              		.loc 1 274 1 is_stmt 0
 1193 0000 2A88     		mv	a6,a0
 279:C:/Users/stapi/OneDrive/Desktop/GD32VW553/V1_MQTT_OK/GD32VW55X_Wifi_BLE_SDK/GD32VW55x_RELEASE_V1.0.2/MSDK/cloud/alicloud/src/services/linkkit/dm\dm_utils.c ****         return DM_INVALID_PARAMETER;
 1194              		.loc 1 279 16
 1195 0002 7955     		li	a0,-2
 1196              	.LVL132:
 278:C:/Users/stapi/OneDrive/Desktop/GD32VW553/V1_MQTT_OK/GD32VW55X_Wifi_BLE_SDK/GD32VW55x_RELEASE_V1.0.2/MSDK/cloud/alicloud/src/services/linkkit/dm\dm_utils.c ****         return DM_INVALID_PARAMETER;
 1197              		.loc 1 278 8
 1198 0004 630B0802 		beq	a6,zero,.L123
 278:C:/Users/stapi/OneDrive/Desktop/GD32VW553/V1_MQTT_OK/GD32VW55X_Wifi_BLE_SDK/GD32VW55x_RELEASE_V1.0.2/MSDK/cloud/alicloud/src/services/linkkit/dm\dm_utils.c ****         return DM_INVALID_PARAMETER;
 1199              		.loc 1 278 23 discriminator 1
 1200 0008 635BB002 		ble	a1,zero,.L118
 278:C:/Users/stapi/OneDrive/Desktop/GD32VW553/V1_MQTT_OK/GD32VW55X_Wifi_BLE_SDK/GD32VW55x_RELEASE_V1.0.2/MSDK/cloud/alicloud/src/services/linkkit/dm\dm_utils.c ****         return DM_INVALID_PARAMETER;
 1201              		.loc 1 278 41 discriminator 2
 1202 000c 0DCB     		beq	a4,zero,.L118
 276:C:/Users/stapi/OneDrive/Desktop/GD32VW553/V1_MQTT_OK/GD32VW55X_Wifi_BLE_SDK/GD32VW55x_RELEASE_V1.0.2/MSDK/cloud/alicloud/src/services/linkkit/dm\dm_utils.c **** 
 1203              		.loc 1 276 9
 1204 000e 8148     		li	a7,0
 280:C:/Users/stapi/OneDrive/Desktop/GD32VW553/V1_MQTT_OK/GD32VW55X_Wifi_BLE_SDK/GD32VW55x_RELEASE_V1.0.2/MSDK/cloud/alicloud/src/services/linkkit/dm\dm_utils.c ****     }
 281:C:/Users/stapi/OneDrive/Desktop/GD32VW553/V1_MQTT_OK/GD32VW55X_Wifi_BLE_SDK/GD32VW55x_RELEASE_V1.0.2/MSDK/cloud/alicloud/src/services/linkkit/dm\dm_utils.c **** 
 282:C:/Users/stapi/OneDrive/Desktop/GD32VW553/V1_MQTT_OK/GD32VW55X_Wifi_BLE_SDK/GD32VW55x_RELEASE_V1.0.2/MSDK/cloud/alicloud/src/services/linkkit/dm\dm_utils.c ****     for (item_index = 0; item_index < input_len; item_index++) {
 1205              		.loc 1 282 21
 1206 0010 8147     		li	a5,0
 1207              	.LVL133:
 1208              	.L122:
 283:C:/Users/stapi/OneDrive/Desktop/GD32VW553/V1_MQTT_OK/GD32VW55X_Wifi_BLE_SDK/GD32VW55x_RELEASE_V1.0.2/MSDK/cloud/alicloud/src/services/linkkit/dm\dm_utils.c ****         if (input[item_index] == delimiter && (item_index + 1) < input_len) {
 1209              		.loc 1 283 9 is_stmt 1
 1210              		.loc 1 283 18 is_stmt 0
 1211 0012 3303F800 		add	t1,a6,a5
 1212              		.loc 1 283 59
 1213 0016 13851700 		addi	a0,a5,1
 1214              		.loc 1 283 12
 1215 001a 03030300 		lb	t1,0(t1)
 1216 001e 631AC300 		bne	t1,a2,.L120
 1217              		.loc 1 283 44 discriminator 1
 1218 0022 6358B500 		bge	a0,a1,.L120
 284:C:/Users/stapi/OneDrive/Desktop/GD32VW553/V1_MQTT_OK/GD32VW55X_Wifi_BLE_SDK/GD32VW55x_RELEASE_V1.0.2/MSDK/cloud/alicloud/src/services/linkkit/dm\dm_utils.c ****             count++;
 1219              		.loc 1 284 13 is_stmt 1
 1220              		.loc 1 284 18 is_stmt 0
 1221 0026 8508     		addi	a7,a7,1
 1222              	.LVL134:
 285:C:/Users/stapi/OneDrive/Desktop/GD32VW553/V1_MQTT_OK/GD32VW55X_Wifi_BLE_SDK/GD32VW55x_RELEASE_V1.0.2/MSDK/cloud/alicloud/src/services/linkkit/dm\dm_utils.c ****             if (count == index) {
 1223              		.loc 1 285 13 is_stmt 1
 1224              		.loc 1 285 16 is_stmt 0
 1225 0028 6397D800 		bne	a7,a3,.L121
 286:C:/Users/stapi/OneDrive/Desktop/GD32VW553/V1_MQTT_OK/GD32VW55X_Wifi_BLE_SDK/GD32VW55x_RELEASE_V1.0.2/MSDK/cloud/alicloud/src/services/linkkit/dm\dm_utils.c ****                 *offset = item_index;
 1226              		.loc 1 286 17 is_stmt 1
 1227              		.loc 1 286 25 is_stmt 0
 1228 002c 1CC3     		sw	a5,0(a4)
 287:C:/Users/stapi/OneDrive/Desktop/GD32VW553/V1_MQTT_OK/GD32VW55X_Wifi_BLE_SDK/GD32VW55x_RELEASE_V1.0.2/MSDK/cloud/alicloud/src/services/linkkit/dm\dm_utils.c ****                 return SUCCESS_RETURN;
 1229              		.loc 1 287 17 is_stmt 1
 1230              		.loc 1 287 24 is_stmt 0
 1231 002e 0145     		li	a0,0
 1232 0030 8280     		ret
 1233              	.L120:
 282:C:/Users/stapi/OneDrive/Desktop/GD32VW553/V1_MQTT_OK/GD32VW55X_Wifi_BLE_SDK/GD32VW55x_RELEASE_V1.0.2/MSDK/cloud/alicloud/src/services/linkkit/dm\dm_utils.c ****         if (input[item_index] == delimiter && (item_index + 1) < input_len) {
 1234              		.loc 1 282 50 is_stmt 1 discriminator 2
 282:C:/Users/stapi/OneDrive/Desktop/GD32VW553/V1_MQTT_OK/GD32VW55X_Wifi_BLE_SDK/GD32VW55x_RELEASE_V1.0.2/MSDK/cloud/alicloud/src/services/linkkit/dm\dm_utils.c ****         if (input[item_index] == delimiter && (item_index + 1) < input_len) {
 1235              		.loc 1 282 26 discriminator 2
 282:C:/Users/stapi/OneDrive/Desktop/GD32VW553/V1_MQTT_OK/GD32VW55X_Wifi_BLE_SDK/GD32VW55x_RELEASE_V1.0.2/MSDK/cloud/alicloud/src/services/linkkit/dm\dm_utils.c ****         if (input[item_index] == delimiter && (item_index + 1) < input_len) {
 1236              		.loc 1 282 5 is_stmt 0 discriminator 2
 1237 0032 6305B500 		beq	a0,a1,.L126
 1238              	.L121:
 1239              	.LVL135:
 283:C:/Users/stapi/OneDrive/Desktop/GD32VW553/V1_MQTT_OK/GD32VW55X_Wifi_BLE_SDK/GD32VW55x_RELEASE_V1.0.2/MSDK/cloud/alicloud/src/services/linkkit/dm\dm_utils.c ****             count++;
 1240              		.loc 1 283 59
 1241 0036 AA87     		mv	a5,a0
 1242 0038 E9BF     		j	.L122
 1243              	.LVL136:
 1244              	.L123:
 1245 003a 8280     		ret
 1246              	.LVL137:
 1247              	.L126:
 288:C:/Users/stapi/OneDrive/Desktop/GD32VW553/V1_MQTT_OK/GD32VW55X_Wifi_BLE_SDK/GD32VW55x_RELEASE_V1.0.2/MSDK/cloud/alicloud/src/services/linkkit/dm\dm_utils.c ****             }
 289:C:/Users/stapi/OneDrive/Desktop/GD32VW553/V1_MQTT_OK/GD32VW55X_Wifi_BLE_SDK/GD32VW55x_RELEASE_V1.0.2/MSDK/cloud/alicloud/src/services/linkkit/dm\dm_utils.c ****         }
 290:C:/Users/stapi/OneDrive/Desktop/GD32VW553/V1_MQTT_OK/GD32VW55X_Wifi_BLE_SDK/GD32VW55x_RELEASE_V1.0.2/MSDK/cloud/alicloud/src/services/linkkit/dm\dm_utils.c ****     }
 291:C:/Users/stapi/OneDrive/Desktop/GD32VW553/V1_MQTT_OK/GD32VW55X_Wifi_BLE_SDK/GD32VW55x_RELEASE_V1.0.2/MSDK/cloud/alicloud/src/services/linkkit/dm\dm_utils.c **** 
 292:C:/Users/stapi/OneDrive/Desktop/GD32VW553/V1_MQTT_OK/GD32VW55X_Wifi_BLE_SDK/GD32VW55x_RELEASE_V1.0.2/MSDK/cloud/alicloud/src/services/linkkit/dm\dm_utils.c ****     return FAIL_RETURN;
 1248              		.loc 1 292 12
 1249 003c 7D55     		li	a0,-1
 1250              	.LVL138:
 1251              	.L118:
 293:C:/Users/stapi/OneDrive/Desktop/GD32VW553/V1_MQTT_OK/GD32VW55X_Wifi_BLE_SDK/GD32VW55x_RELEASE_V1.0.2/MSDK/cloud/alicloud/src/services/linkkit/dm\dm_utils.c **** }
 1252              		.loc 1 293 1
 1253 003e 8280     		ret
 1254              		.cfi_endproc
 1255              	.LFE29:
 1257              		.section	.text.dm_utils_replace_char,"ax",@progbits
 1258              		.align	1
 1259              		.globl	dm_utils_replace_char
 1261              	dm_utils_replace_char:
 1262              	.LFB30:
 294:C:/Users/stapi/OneDrive/Desktop/GD32VW553/V1_MQTT_OK/GD32VW55X_Wifi_BLE_SDK/GD32VW55x_RELEASE_V1.0.2/MSDK/cloud/alicloud/src/services/linkkit/dm\dm_utils.c **** 
 295:C:/Users/stapi/OneDrive/Desktop/GD32VW553/V1_MQTT_OK/GD32VW55X_Wifi_BLE_SDK/GD32VW55x_RELEASE_V1.0.2/MSDK/cloud/alicloud/src/services/linkkit/dm\dm_utils.c **** int dm_utils_replace_char(_IN_ char *input, _IN_ int input_len, _IN_ char src, _IN_ char dest)
 296:C:/Users/stapi/OneDrive/Desktop/GD32VW553/V1_MQTT_OK/GD32VW55X_Wifi_BLE_SDK/GD32VW55x_RELEASE_V1.0.2/MSDK/cloud/alicloud/src/services/linkkit/dm\dm_utils.c **** {
 1263              		.loc 1 296 1 is_stmt 1
 1264              		.cfi_startproc
 1265              	.LVL139:
 297:C:/Users/stapi/OneDrive/Desktop/GD32VW553/V1_MQTT_OK/GD32VW55X_Wifi_BLE_SDK/GD32VW55x_RELEASE_V1.0.2/MSDK/cloud/alicloud/src/services/linkkit/dm\dm_utils.c ****     int index = 0;
 1266              		.loc 1 297 5
 298:C:/Users/stapi/OneDrive/Desktop/GD32VW553/V1_MQTT_OK/GD32VW55X_Wifi_BLE_SDK/GD32VW55x_RELEASE_V1.0.2/MSDK/cloud/alicloud/src/services/linkkit/dm\dm_utils.c **** 
 299:C:/Users/stapi/OneDrive/Desktop/GD32VW553/V1_MQTT_OK/GD32VW55X_Wifi_BLE_SDK/GD32VW55x_RELEASE_V1.0.2/MSDK/cloud/alicloud/src/services/linkkit/dm\dm_utils.c ****     if (input == NULL || input_len <= 0) {
 1267              		.loc 1 299 5
 296:C:/Users/stapi/OneDrive/Desktop/GD32VW553/V1_MQTT_OK/GD32VW55X_Wifi_BLE_SDK/GD32VW55x_RELEASE_V1.0.2/MSDK/cloud/alicloud/src/services/linkkit/dm\dm_utils.c ****     int index = 0;
 1268              		.loc 1 296 1 is_stmt 0
 1269 0000 AA87     		mv	a5,a0
 300:C:/Users/stapi/OneDrive/Desktop/GD32VW553/V1_MQTT_OK/GD32VW55X_Wifi_BLE_SDK/GD32VW55x_RELEASE_V1.0.2/MSDK/cloud/alicloud/src/services/linkkit/dm\dm_utils.c ****         return DM_INVALID_PARAMETER;
 1270              		.loc 1 300 16
 1271 0002 7955     		li	a0,-2
 1272              	.LVL140:
 299:C:/Users/stapi/OneDrive/Desktop/GD32VW553/V1_MQTT_OK/GD32VW55X_Wifi_BLE_SDK/GD32VW55x_RELEASE_V1.0.2/MSDK/cloud/alicloud/src/services/linkkit/dm\dm_utils.c ****         return DM_INVALID_PARAMETER;
 1273              		.loc 1 299 8
 1274 0004 85C3     		beq	a5,zero,.L127
 299:C:/Users/stapi/OneDrive/Desktop/GD32VW553/V1_MQTT_OK/GD32VW55X_Wifi_BLE_SDK/GD32VW55x_RELEASE_V1.0.2/MSDK/cloud/alicloud/src/services/linkkit/dm\dm_utils.c ****         return DM_INVALID_PARAMETER;
 1275              		.loc 1 299 23 discriminator 1
 1276 0006 635FB000 		ble	a1,zero,.L127
 1277 000a 3E85     		mv	a0,a5
 1278 000c BE95     		add	a1,a5,a1
 1279              	.LVL141:
 1280              	.L130:
 301:C:/Users/stapi/OneDrive/Desktop/GD32VW553/V1_MQTT_OK/GD32VW55X_Wifi_BLE_SDK/GD32VW55x_RELEASE_V1.0.2/MSDK/cloud/alicloud/src/services/linkkit/dm\dm_utils.c ****     }
 302:C:/Users/stapi/OneDrive/Desktop/GD32VW553/V1_MQTT_OK/GD32VW55X_Wifi_BLE_SDK/GD32VW55x_RELEASE_V1.0.2/MSDK/cloud/alicloud/src/services/linkkit/dm\dm_utils.c **** 
 303:C:/Users/stapi/OneDrive/Desktop/GD32VW553/V1_MQTT_OK/GD32VW55X_Wifi_BLE_SDK/GD32VW55x_RELEASE_V1.0.2/MSDK/cloud/alicloud/src/services/linkkit/dm\dm_utils.c ****     for (index = 0; index < input_len; index++) {
 304:C:/Users/stapi/OneDrive/Desktop/GD32VW553/V1_MQTT_OK/GD32VW55X_Wifi_BLE_SDK/GD32VW55x_RELEASE_V1.0.2/MSDK/cloud/alicloud/src/services/linkkit/dm\dm_utils.c ****         if (input[index] == src) {
 1281              		.loc 1 304 9 is_stmt 1
 1282              		.loc 1 304 12 is_stmt 0
 1283 000e 83070500 		lb	a5,0(a0)
 1284 0012 6394C700 		bne	a5,a2,.L129
 305:C:/Users/stapi/OneDrive/Desktop/GD32VW553/V1_MQTT_OK/GD32VW55X_Wifi_BLE_SDK/GD32VW55x_RELEASE_V1.0.2/MSDK/cloud/alicloud/src/services/linkkit/dm\dm_utils.c ****             input[index] = dest;
 1285              		.loc 1 305 13 is_stmt 1
 1286              		.loc 1 305 26 is_stmt 0
 1287 0016 2300D500 		sb	a3,0(a0)
 1288              	.L129:
 303:C:/Users/stapi/OneDrive/Desktop/GD32VW553/V1_MQTT_OK/GD32VW55X_Wifi_BLE_SDK/GD32VW55x_RELEASE_V1.0.2/MSDK/cloud/alicloud/src/services/linkkit/dm\dm_utils.c ****         if (input[index] == src) {
 1289              		.loc 1 303 40 is_stmt 1 discriminator 2
 1290              	.LVL142:
 303:C:/Users/stapi/OneDrive/Desktop/GD32VW553/V1_MQTT_OK/GD32VW55X_Wifi_BLE_SDK/GD32VW55x_RELEASE_V1.0.2/MSDK/cloud/alicloud/src/services/linkkit/dm\dm_utils.c ****         if (input[index] == src) {
 1291              		.loc 1 303 21 discriminator 2
 303:C:/Users/stapi/OneDrive/Desktop/GD32VW553/V1_MQTT_OK/GD32VW55X_Wifi_BLE_SDK/GD32VW55x_RELEASE_V1.0.2/MSDK/cloud/alicloud/src/services/linkkit/dm\dm_utils.c ****         if (input[index] == src) {
 1292              		.loc 1 303 5 is_stmt 0 discriminator 2
 1293 001a 0505     		addi	a0,a0,1
 1294              	.LVL143:
 1295 001c E399A5FE 		bne	a1,a0,.L130
 306:C:/Users/stapi/OneDrive/Desktop/GD32VW553/V1_MQTT_OK/GD32VW55X_Wifi_BLE_SDK/GD32VW55x_RELEASE_V1.0.2/MSDK/cloud/alicloud/src/services/linkkit/dm\dm_utils.c ****         }
 307:C:/Users/stapi/OneDrive/Desktop/GD32VW553/V1_MQTT_OK/GD32VW55X_Wifi_BLE_SDK/GD32VW55x_RELEASE_V1.0.2/MSDK/cloud/alicloud/src/services/linkkit/dm\dm_utils.c ****     }
 308:C:/Users/stapi/OneDrive/Desktop/GD32VW553/V1_MQTT_OK/GD32VW55X_Wifi_BLE_SDK/GD32VW55x_RELEASE_V1.0.2/MSDK/cloud/alicloud/src/services/linkkit/dm\dm_utils.c **** 
 309:C:/Users/stapi/OneDrive/Desktop/GD32VW553/V1_MQTT_OK/GD32VW55X_Wifi_BLE_SDK/GD32VW55x_RELEASE_V1.0.2/MSDK/cloud/alicloud/src/services/linkkit/dm\dm_utils.c ****     return SUCCESS_RETURN;
 1296              		.loc 1 309 12
 1297 0020 0145     		li	a0,0
 1298              	.LVL144:
 1299 0022 8280     		ret
 1300              	.LVL145:
 1301              	.L127:
 310:C:/Users/stapi/OneDrive/Desktop/GD32VW553/V1_MQTT_OK/GD32VW55X_Wifi_BLE_SDK/GD32VW55x_RELEASE_V1.0.2/MSDK/cloud/alicloud/src/services/linkkit/dm\dm_utils.c **** }
 1302              		.loc 1 310 1
 1303 0024 8280     		ret
 1304              		.cfi_endproc
 1305              	.LFE30:
 1307              		.section	.text.dm_utils_service_name,"ax",@progbits
 1308              		.align	1
 1309              		.globl	dm_utils_service_name
 1311              	dm_utils_service_name:
 1312              	.LFB31:
 311:C:/Users/stapi/OneDrive/Desktop/GD32VW553/V1_MQTT_OK/GD32VW55X_Wifi_BLE_SDK/GD32VW55x_RELEASE_V1.0.2/MSDK/cloud/alicloud/src/services/linkkit/dm\dm_utils.c **** 
 312:C:/Users/stapi/OneDrive/Desktop/GD32VW553/V1_MQTT_OK/GD32VW55X_Wifi_BLE_SDK/GD32VW55x_RELEASE_V1.0.2/MSDK/cloud/alicloud/src/services/linkkit/dm\dm_utils.c **** int dm_utils_service_name(_IN_ const char *prefix, _IN_ const char *name, _IN_ char product_key[PRO
 313:C:/Users/stapi/OneDrive/Desktop/GD32VW553/V1_MQTT_OK/GD32VW55X_Wifi_BLE_SDK/GD32VW55x_RELEASE_V1.0.2/MSDK/cloud/alicloud/src/services/linkkit/dm\dm_utils.c ****                           _IN_ char device_name[DEVICE_NAME_MAXLEN], _OU_ char **service_name)
 314:C:/Users/stapi/OneDrive/Desktop/GD32VW553/V1_MQTT_OK/GD32VW55X_Wifi_BLE_SDK/GD32VW55x_RELEASE_V1.0.2/MSDK/cloud/alicloud/src/services/linkkit/dm\dm_utils.c **** {
 1313              		.loc 1 314 1 is_stmt 1
 1314              		.cfi_startproc
 1315              	.LVL146:
 1316 0000 17030000 		call	t0,__riscv_save_9
 1316      E7020300 
 1317              		.cfi_offset 24, -40
 1318              		.cfi_offset 23, -36
 1319              		.cfi_offset 22, -32
 1320              		.cfi_offset 21, -28
 1321              		.cfi_offset 20, -24
 1322              		.cfi_offset 19, -20
 1323              		.cfi_offset 18, -16
 1324              		.cfi_offset 8, -8
 1325              		.cfi_offset 1, -4
 1326              		.cfi_def_cfa_offset 48
 315:C:/Users/stapi/OneDrive/Desktop/GD32VW553/V1_MQTT_OK/GD32VW55X_Wifi_BLE_SDK/GD32VW55x_RELEASE_V1.0.2/MSDK/cloud/alicloud/src/services/linkkit/dm\dm_utils.c ****     int prefix_len = (prefix == NULL) ? (0) : (strlen(prefix));
 1327              		.loc 1 315 5
 314:C:/Users/stapi/OneDrive/Desktop/GD32VW553/V1_MQTT_OK/GD32VW55X_Wifi_BLE_SDK/GD32VW55x_RELEASE_V1.0.2/MSDK/cloud/alicloud/src/services/linkkit/dm\dm_utils.c ****     int prefix_len = (prefix == NULL) ? (0) : (strlen(prefix));
 1328              		.loc 1 314 1 is_stmt 0
 1329 0008 AA8A     		mv	s5,a0
 1330 000a AE89     		mv	s3,a1
 1331 000c 328B     		mv	s6,a2
 1332 000e B68B     		mv	s7,a3
 1333 0010 3A8A     		mv	s4,a4
 1334              		.loc 1 315 45
 1335 0012 5DC9     		beq	a0,zero,.L135
 1336              		.loc 1 315 48 discriminator 1
 1337 0014 97000000 		call	strlen
 1337      E7800000 
 1338              	.LVL147:
 1339 001c 2A84     		mv	s0,a0
 1340              	.LVL148:
 316:C:/Users/stapi/OneDrive/Desktop/GD32VW553/V1_MQTT_OK/GD32VW55X_Wifi_BLE_SDK/GD32VW55x_RELEASE_V1.0.2/MSDK/cloud/alicloud/src/services/linkkit/dm\dm_utils.c ****     int name_len = (name == NULL) ? (0) : (strlen(name));
 1341              		.loc 1 316 5 is_stmt 1 discriminator 1
 1342              		.loc 1 316 41 is_stmt 0 discriminator 1
 1343 001e 014C     		li	s8,0
 1344 0020 63880900 		beq	s3,zero,.L136
 1345              	.LVL149:
 1346              	.L139:
 1347              		.loc 1 316 44 discriminator 1
 1348 0024 4E85     		mv	a0,s3
 1349 0026 97000000 		call	strlen
 1349      E7800000 
 1350              	.LVL150:
 1351 002e 2A8C     		mv	s8,a0
 1352              	.LVL151:
 317:C:/Users/stapi/OneDrive/Desktop/GD32VW553/V1_MQTT_OK/GD32VW55X_Wifi_BLE_SDK/GD32VW55x_RELEASE_V1.0.2/MSDK/cloud/alicloud/src/services/linkkit/dm\dm_utils.c ****     int service_name_len = 0;
 1353              		.loc 1 317 5 is_stmt 1 discriminator 1
 318:C:/Users/stapi/OneDrive/Desktop/GD32VW553/V1_MQTT_OK/GD32VW55X_Wifi_BLE_SDK/GD32VW55x_RELEASE_V1.0.2/MSDK/cloud/alicloud/src/services/linkkit/dm\dm_utils.c ****     if ((prefix == NULL && name == NULL) || product_key == NULL || device_name == NULL ||
 1354              		.loc 1 318 5 discriminator 1
 1355              	.L136:
 319:C:/Users/stapi/OneDrive/Desktop/GD32VW553/V1_MQTT_OK/GD32VW55X_Wifi_BLE_SDK/GD32VW55x_RELEASE_V1.0.2/MSDK/cloud/alicloud/src/services/linkkit/dm\dm_utils.c ****         service_name == NULL || *service_name != NULL) {
 320:C:/Users/stapi/OneDrive/Desktop/GD32VW553/V1_MQTT_OK/GD32VW55X_Wifi_BLE_SDK/GD32VW55x_RELEASE_V1.0.2/MSDK/cloud/alicloud/src/services/linkkit/dm\dm_utils.c ****         return DM_INVALID_PARAMETER;
 1356              		.loc 1 320 16 is_stmt 0 discriminator 3
 1357 0030 7959     		li	s2,-2
 318:C:/Users/stapi/OneDrive/Desktop/GD32VW553/V1_MQTT_OK/GD32VW55X_Wifi_BLE_SDK/GD32VW55x_RELEASE_V1.0.2/MSDK/cloud/alicloud/src/services/linkkit/dm\dm_utils.c ****     if ((prefix == NULL && name == NULL) || product_key == NULL || device_name == NULL ||
 1358              		.loc 1 318 42 discriminator 3
 1359 0032 63060B08 		beq	s6,zero,.L134
 318:C:/Users/stapi/OneDrive/Desktop/GD32VW553/V1_MQTT_OK/GD32VW55X_Wifi_BLE_SDK/GD32VW55x_RELEASE_V1.0.2/MSDK/cloud/alicloud/src/services/linkkit/dm\dm_utils.c ****     if ((prefix == NULL && name == NULL) || product_key == NULL || device_name == NULL ||
 1360              		.loc 1 318 65 discriminator 4
 1361 0036 63840B08 		beq	s7,zero,.L134
 318:C:/Users/stapi/OneDrive/Desktop/GD32VW553/V1_MQTT_OK/GD32VW55X_Wifi_BLE_SDK/GD32VW55x_RELEASE_V1.0.2/MSDK/cloud/alicloud/src/services/linkkit/dm\dm_utils.c ****     if ((prefix == NULL && name == NULL) || product_key == NULL || device_name == NULL ||
 1362              		.loc 1 318 88 discriminator 5
 1363 003a 63020A08 		beq	s4,zero,.L134
 319:C:/Users/stapi/OneDrive/Desktop/GD32VW553/V1_MQTT_OK/GD32VW55X_Wifi_BLE_SDK/GD32VW55x_RELEASE_V1.0.2/MSDK/cloud/alicloud/src/services/linkkit/dm\dm_utils.c ****         service_name == NULL || *service_name != NULL) {
 1364              		.loc 1 319 30
 1365 003e 83270A00 		lw	a5,0(s4)
 1366 0042 B5EF     		bne	a5,zero,.L134
 321:C:/Users/stapi/OneDrive/Desktop/GD32VW553/V1_MQTT_OK/GD32VW55X_Wifi_BLE_SDK/GD32VW55x_RELEASE_V1.0.2/MSDK/cloud/alicloud/src/services/linkkit/dm\dm_utils.c ****     }
 322:C:/Users/stapi/OneDrive/Desktop/GD32VW553/V1_MQTT_OK/GD32VW55X_Wifi_BLE_SDK/GD32VW55x_RELEASE_V1.0.2/MSDK/cloud/alicloud/src/services/linkkit/dm\dm_utils.c **** 
 323:C:/Users/stapi/OneDrive/Desktop/GD32VW553/V1_MQTT_OK/GD32VW55X_Wifi_BLE_SDK/GD32VW55x_RELEASE_V1.0.2/MSDK/cloud/alicloud/src/services/linkkit/dm\dm_utils.c ****     service_name_len = prefix_len + name_len + strlen(product_key) + strlen(device_name) + 1;
 1367              		.loc 1 323 5 is_stmt 1
 1368              		.loc 1 323 48 is_stmt 0
 1369 0044 5A85     		mv	a0,s6
 1370 0046 97000000 		call	strlen
 1370      E7800000 
 1371              	.LVL152:
 1372              		.loc 1 323 35
 1373 004e 6294     		add	s0,s0,s8
 1374              		.loc 1 323 48
 1375 0050 2A89     		mv	s2,a0
 1376              		.loc 1 323 90
 1377 0052 0504     		addi	s0,s0,1
 1378              		.loc 1 323 70
 1379 0054 5E85     		mv	a0,s7
 1380 0056 97000000 		call	strlen
 1380      E7800000 
 1381              	.LVL153:
 1382              		.loc 1 323 90
 1383 005e 4A94     		add	s0,s0,s2
 1384 0060 2A94     		add	s0,s0,a0
 1385              	.LVL154:
 324:C:/Users/stapi/OneDrive/Desktop/GD32VW553/V1_MQTT_OK/GD32VW55X_Wifi_BLE_SDK/GD32VW55x_RELEASE_V1.0.2/MSDK/cloud/alicloud/src/services/linkkit/dm\dm_utils.c ****     *service_name = DM_malloc(service_name_len);
 1386              		.loc 1 324 5 is_stmt 1
 1387              		.loc 1 324 21 is_stmt 0
 1388 0062 2286     		mv	a2,s0
 1389 0064 8145     		li	a1,0
 1390 0066 0145     		li	a0,0
 1391 0068 97000000 		call	LITE_malloc_internal
 1391      E7800000 
 1392              	.LVL155:
 1393              		.loc 1 324 19
 1394 0070 2320AA00 		sw	a0,0(s4)
 325:C:/Users/stapi/OneDrive/Desktop/GD32VW553/V1_MQTT_OK/GD32VW55X_Wifi_BLE_SDK/GD32VW55x_RELEASE_V1.0.2/MSDK/cloud/alicloud/src/services/linkkit/dm\dm_utils.c ****     if (*service_name == NULL) {
 1395              		.loc 1 325 5 is_stmt 1
 326:C:/Users/stapi/OneDrive/Desktop/GD32VW553/V1_MQTT_OK/GD32VW55X_Wifi_BLE_SDK/GD32VW55x_RELEASE_V1.0.2/MSDK/cloud/alicloud/src/services/linkkit/dm\dm_utils.c ****         return DM_MEMORY_NOT_ENOUGH;
 1396              		.loc 1 326 16 is_stmt 0
 1397 0074 7559     		li	s2,-3
 325:C:/Users/stapi/OneDrive/Desktop/GD32VW553/V1_MQTT_OK/GD32VW55X_Wifi_BLE_SDK/GD32VW55x_RELEASE_V1.0.2/MSDK/cloud/alicloud/src/services/linkkit/dm\dm_utils.c ****     if (*service_name == NULL) {
 1398              		.loc 1 325 8
 1399 0076 21C5     		beq	a0,zero,.L134
 327:C:/Users/stapi/OneDrive/Desktop/GD32VW553/V1_MQTT_OK/GD32VW55X_Wifi_BLE_SDK/GD32VW55x_RELEASE_V1.0.2/MSDK/cloud/alicloud/src/services/linkkit/dm\dm_utils.c ****     }
 328:C:/Users/stapi/OneDrive/Desktop/GD32VW553/V1_MQTT_OK/GD32VW55X_Wifi_BLE_SDK/GD32VW55x_RELEASE_V1.0.2/MSDK/cloud/alicloud/src/services/linkkit/dm\dm_utils.c ****     memset(*service_name, 0, service_name_len);
 1400              		.loc 1 328 5 is_stmt 1
 1401 0078 2286     		mv	a2,s0
 1402 007a 8145     		li	a1,0
 1403 007c 97000000 		call	memset
 1403      E7800000 
 1404              	.LVL156:
 329:C:/Users/stapi/OneDrive/Desktop/GD32VW553/V1_MQTT_OK/GD32VW55X_Wifi_BLE_SDK/GD32VW55x_RELEASE_V1.0.2/MSDK/cloud/alicloud/src/services/linkkit/dm\dm_utils.c **** 
 330:C:/Users/stapi/OneDrive/Desktop/GD32VW553/V1_MQTT_OK/GD32VW55X_Wifi_BLE_SDK/GD32VW55x_RELEASE_V1.0.2/MSDK/cloud/alicloud/src/services/linkkit/dm\dm_utils.c ****     if (prefix != NULL) {
 1405              		.loc 1 330 5
 1406              		.loc 1 330 8 is_stmt 0
 1407 0084 638C0A00 		beq	s5,zero,.L138
 331:C:/Users/stapi/OneDrive/Desktop/GD32VW553/V1_MQTT_OK/GD32VW55X_Wifi_BLE_SDK/GD32VW55x_RELEASE_V1.0.2/MSDK/cloud/alicloud/src/services/linkkit/dm\dm_utils.c ****         HAL_Snprintf(*service_name, service_name_len, prefix, product_key, device_name);
 1408              		.loc 1 331 9 is_stmt 1
 1409 0088 03250A00 		lw	a0,0(s4)
 1410 008c 5E87     		mv	a4,s7
 1411 008e DA86     		mv	a3,s6
 1412 0090 5686     		mv	a2,s5
 1413 0092 A285     		mv	a1,s0
 1414 0094 97000000 		call	HAL_Snprintf
 1414      E7800000 
 1415              	.LVL157:
 1416              	.L138:
 332:C:/Users/stapi/OneDrive/Desktop/GD32VW553/V1_MQTT_OK/GD32VW55X_Wifi_BLE_SDK/GD32VW55x_RELEASE_V1.0.2/MSDK/cloud/alicloud/src/services/linkkit/dm\dm_utils.c ****     }
 333:C:/Users/stapi/OneDrive/Desktop/GD32VW553/V1_MQTT_OK/GD32VW55X_Wifi_BLE_SDK/GD32VW55x_RELEASE_V1.0.2/MSDK/cloud/alicloud/src/services/linkkit/dm\dm_utils.c **** 
 334:C:/Users/stapi/OneDrive/Desktop/GD32VW553/V1_MQTT_OK/GD32VW55X_Wifi_BLE_SDK/GD32VW55x_RELEASE_V1.0.2/MSDK/cloud/alicloud/src/services/linkkit/dm\dm_utils.c ****     if (name != NULL) {
 1417              		.loc 1 334 5
 335:C:/Users/stapi/OneDrive/Desktop/GD32VW553/V1_MQTT_OK/GD32VW55X_Wifi_BLE_SDK/GD32VW55x_RELEASE_V1.0.2/MSDK/cloud/alicloud/src/services/linkkit/dm\dm_utils.c ****         memcpy(*service_name + strlen(*service_name), name, name_len);
 336:C:/Users/stapi/OneDrive/Desktop/GD32VW553/V1_MQTT_OK/GD32VW55X_Wifi_BLE_SDK/GD32VW55x_RELEASE_V1.0.2/MSDK/cloud/alicloud/src/services/linkkit/dm\dm_utils.c ****     }
 337:C:/Users/stapi/OneDrive/Desktop/GD32VW553/V1_MQTT_OK/GD32VW55X_Wifi_BLE_SDK/GD32VW55x_RELEASE_V1.0.2/MSDK/cloud/alicloud/src/services/linkkit/dm\dm_utils.c **** 
 338:C:/Users/stapi/OneDrive/Desktop/GD32VW553/V1_MQTT_OK/GD32VW55X_Wifi_BLE_SDK/GD32VW55x_RELEASE_V1.0.2/MSDK/cloud/alicloud/src/services/linkkit/dm\dm_utils.c ****     return SUCCESS_RETURN;
 1418              		.loc 1 338 12 is_stmt 0
 1419 009c 0149     		li	s2,0
 334:C:/Users/stapi/OneDrive/Desktop/GD32VW553/V1_MQTT_OK/GD32VW55X_Wifi_BLE_SDK/GD32VW55x_RELEASE_V1.0.2/MSDK/cloud/alicloud/src/services/linkkit/dm\dm_utils.c ****         memcpy(*service_name + strlen(*service_name), name, name_len);
 1420              		.loc 1 334 8
 1421 009e 63800902 		beq	s3,zero,.L134
 335:C:/Users/stapi/OneDrive/Desktop/GD32VW553/V1_MQTT_OK/GD32VW55X_Wifi_BLE_SDK/GD32VW55x_RELEASE_V1.0.2/MSDK/cloud/alicloud/src/services/linkkit/dm\dm_utils.c ****         memcpy(*service_name + strlen(*service_name), name, name_len);
 1422              		.loc 1 335 9 is_stmt 1
 335:C:/Users/stapi/OneDrive/Desktop/GD32VW553/V1_MQTT_OK/GD32VW55X_Wifi_BLE_SDK/GD32VW55x_RELEASE_V1.0.2/MSDK/cloud/alicloud/src/services/linkkit/dm\dm_utils.c ****         memcpy(*service_name + strlen(*service_name), name, name_len);
 1423              		.loc 1 335 16 is_stmt 0
 1424 00a2 03240A00 		lw	s0,0(s4)
 1425              	.LVL158:
 335:C:/Users/stapi/OneDrive/Desktop/GD32VW553/V1_MQTT_OK/GD32VW55X_Wifi_BLE_SDK/GD32VW55x_RELEASE_V1.0.2/MSDK/cloud/alicloud/src/services/linkkit/dm\dm_utils.c ****         memcpy(*service_name + strlen(*service_name), name, name_len);
 1426              		.loc 1 335 32
 1427 00a6 2285     		mv	a0,s0
 1428 00a8 97000000 		call	strlen
 1428      E7800000 
 1429              	.LVL159:
 335:C:/Users/stapi/OneDrive/Desktop/GD32VW553/V1_MQTT_OK/GD32VW55X_Wifi_BLE_SDK/GD32VW55x_RELEASE_V1.0.2/MSDK/cloud/alicloud/src/services/linkkit/dm\dm_utils.c ****         memcpy(*service_name + strlen(*service_name), name, name_len);
 1430              		.loc 1 335 9
 1431 00b0 6286     		mv	a2,s8
 1432 00b2 CE85     		mv	a1,s3
 1433 00b4 2295     		add	a0,s0,a0
 1434 00b6 97000000 		call	memcpy
 1434      E7800000 
 1435              	.LVL160:
 1436              	.L134:
 339:C:/Users/stapi/OneDrive/Desktop/GD32VW553/V1_MQTT_OK/GD32VW55X_Wifi_BLE_SDK/GD32VW55x_RELEASE_V1.0.2/MSDK/cloud/alicloud/src/services/linkkit/dm\dm_utils.c **** }
 1437              		.loc 1 339 1
 1438 00be 4A85     		mv	a0,s2
 1439 00c0 17030000 		tail	__riscv_restore_9
 1439      67000300 
 1440              		.cfi_remember_state
 1441              		.cfi_restore 24
 1442              		.cfi_restore 23
 1443              		.cfi_restore 22
 1444              		.cfi_restore 21
 1445              		.cfi_restore 20
 1446              		.cfi_restore 19
 1447              		.cfi_restore 18
 1448              		.cfi_restore 8
 1449              		.cfi_restore 1
 1450              		.cfi_def_cfa_offset 0
 1451              	.LVL161:
 1452              	.L135:
 1453              		.cfi_restore_state
 316:C:/Users/stapi/OneDrive/Desktop/GD32VW553/V1_MQTT_OK/GD32VW55X_Wifi_BLE_SDK/GD32VW55x_RELEASE_V1.0.2/MSDK/cloud/alicloud/src/services/linkkit/dm\dm_utils.c ****     int service_name_len = 0;
 1454              		.loc 1 316 5 is_stmt 1
 315:C:/Users/stapi/OneDrive/Desktop/GD32VW553/V1_MQTT_OK/GD32VW55X_Wifi_BLE_SDK/GD32VW55x_RELEASE_V1.0.2/MSDK/cloud/alicloud/src/services/linkkit/dm\dm_utils.c ****     int name_len = (name == NULL) ? (0) : (strlen(name));
 1455              		.loc 1 315 45 is_stmt 0
 1456 00c8 0144     		li	s0,0
 316:C:/Users/stapi/OneDrive/Desktop/GD32VW553/V1_MQTT_OK/GD32VW55X_Wifi_BLE_SDK/GD32VW55x_RELEASE_V1.0.2/MSDK/cloud/alicloud/src/services/linkkit/dm\dm_utils.c ****     int service_name_len = 0;
 1457              		.loc 1 316 41
 1458 00ca A9FD     		bne	a1,zero,.L139
 320:C:/Users/stapi/OneDrive/Desktop/GD32VW553/V1_MQTT_OK/GD32VW55X_Wifi_BLE_SDK/GD32VW55x_RELEASE_V1.0.2/MSDK/cloud/alicloud/src/services/linkkit/dm\dm_utils.c ****     }
 1459              		.loc 1 320 16
 1460 00cc 7959     		li	s2,-2
 1461 00ce C5BF     		j	.L134
 1462              		.cfi_endproc
 1463              	.LFE31:
 1465              		.section	.text.dm_utils_uri_add_prefix,"ax",@progbits
 1466              		.align	1
 1467              		.globl	dm_utils_uri_add_prefix
 1469              	dm_utils_uri_add_prefix:
 1470              	.LFB32:
 340:C:/Users/stapi/OneDrive/Desktop/GD32VW553/V1_MQTT_OK/GD32VW55X_Wifi_BLE_SDK/GD32VW55x_RELEASE_V1.0.2/MSDK/cloud/alicloud/src/services/linkkit/dm\dm_utils.c **** 
 341:C:/Users/stapi/OneDrive/Desktop/GD32VW553/V1_MQTT_OK/GD32VW55X_Wifi_BLE_SDK/GD32VW55x_RELEASE_V1.0.2/MSDK/cloud/alicloud/src/services/linkkit/dm\dm_utils.c **** int dm_utils_uri_add_prefix(_IN_ const char *prefix, _IN_ char *uri, _OU_ char **new_uri)
 342:C:/Users/stapi/OneDrive/Desktop/GD32VW553/V1_MQTT_OK/GD32VW55X_Wifi_BLE_SDK/GD32VW55x_RELEASE_V1.0.2/MSDK/cloud/alicloud/src/services/linkkit/dm\dm_utils.c **** {
 1471              		.loc 1 342 1 is_stmt 1
 1472              		.cfi_startproc
 1473              	.LVL162:
 343:C:/Users/stapi/OneDrive/Desktop/GD32VW553/V1_MQTT_OK/GD32VW55X_Wifi_BLE_SDK/GD32VW55x_RELEASE_V1.0.2/MSDK/cloud/alicloud/src/services/linkkit/dm\dm_utils.c ****     int new_uri_len = 0;
 1474              		.loc 1 343 5
 344:C:/Users/stapi/OneDrive/Desktop/GD32VW553/V1_MQTT_OK/GD32VW55X_Wifi_BLE_SDK/GD32VW55x_RELEASE_V1.0.2/MSDK/cloud/alicloud/src/services/linkkit/dm\dm_utils.c **** 
 345:C:/Users/stapi/OneDrive/Desktop/GD32VW553/V1_MQTT_OK/GD32VW55X_Wifi_BLE_SDK/GD32VW55x_RELEASE_V1.0.2/MSDK/cloud/alicloud/src/services/linkkit/dm\dm_utils.c ****     if (prefix == NULL || uri == NULL || new_uri == NULL || *new_uri != NULL) {
 1475              		.loc 1 345 5
 1476              		.loc 1 345 8 is_stmt 0
 1477 0000 55C1     		beq	a0,zero,.L156
 342:C:/Users/stapi/OneDrive/Desktop/GD32VW553/V1_MQTT_OK/GD32VW55X_Wifi_BLE_SDK/GD32VW55x_RELEASE_V1.0.2/MSDK/cloud/alicloud/src/services/linkkit/dm\dm_utils.c ****     int new_uri_len = 0;
 1478              		.loc 1 342 1 discriminator 1
 1479 0002 17030000 		call	t0,__riscv_save_4
 1479      E7020300 
 1480              		.cfi_offset 19, -20
 1481              		.cfi_offset 18, -16
 1482              		.cfi_offset 9, -12
 1483              		.cfi_offset 8, -8
 1484              		.cfi_offset 1, -4
 1485              		.cfi_def_cfa_offset 32
 1486 000a 4111     		addi	sp,sp,-16
 1487              		.cfi_def_cfa_offset 48
 1488 000c 2E89     		mv	s2,a1
 346:C:/Users/stapi/OneDrive/Desktop/GD32VW553/V1_MQTT_OK/GD32VW55X_Wifi_BLE_SDK/GD32VW55x_RELEASE_V1.0.2/MSDK/cloud/alicloud/src/services/linkkit/dm\dm_utils.c ****         return DM_INVALID_PARAMETER;
 1489              		.loc 1 346 16 discriminator 1
 1490 000e F957     		li	a5,-2
 345:C:/Users/stapi/OneDrive/Desktop/GD32VW553/V1_MQTT_OK/GD32VW55X_Wifi_BLE_SDK/GD32VW55x_RELEASE_V1.0.2/MSDK/cloud/alicloud/src/services/linkkit/dm\dm_utils.c ****         return DM_INVALID_PARAMETER;
 1491              		.loc 1 345 24 discriminator 1
 1492 0010 C1C5     		beq	a1,zero,.L154
 1493 0012 B284     		mv	s1,a2
 345:C:/Users/stapi/OneDrive/Desktop/GD32VW553/V1_MQTT_OK/GD32VW55X_Wifi_BLE_SDK/GD32VW55x_RELEASE_V1.0.2/MSDK/cloud/alicloud/src/services/linkkit/dm\dm_utils.c ****         return DM_INVALID_PARAMETER;
 1494              		.loc 1 345 39 discriminator 2
 1495 0014 51C2     		beq	a2,zero,.L154
 345:C:/Users/stapi/OneDrive/Desktop/GD32VW553/V1_MQTT_OK/GD32VW55X_Wifi_BLE_SDK/GD32VW55x_RELEASE_V1.0.2/MSDK/cloud/alicloud/src/services/linkkit/dm\dm_utils.c ****         return DM_INVALID_PARAMETER;
 1496              		.loc 1 345 58 discriminator 3
 1497 0016 1842     		lw	a4,0(a2)
 1498 0018 41E3     		bne	a4,zero,.L154
 1499 001a AA89     		mv	s3,a0
 347:C:/Users/stapi/OneDrive/Desktop/GD32VW553/V1_MQTT_OK/GD32VW55X_Wifi_BLE_SDK/GD32VW55x_RELEASE_V1.0.2/MSDK/cloud/alicloud/src/services/linkkit/dm\dm_utils.c ****     }
 348:C:/Users/stapi/OneDrive/Desktop/GD32VW553/V1_MQTT_OK/GD32VW55X_Wifi_BLE_SDK/GD32VW55x_RELEASE_V1.0.2/MSDK/cloud/alicloud/src/services/linkkit/dm\dm_utils.c **** 
 349:C:/Users/stapi/OneDrive/Desktop/GD32VW553/V1_MQTT_OK/GD32VW55X_Wifi_BLE_SDK/GD32VW55x_RELEASE_V1.0.2/MSDK/cloud/alicloud/src/services/linkkit/dm\dm_utils.c ****     new_uri_len = strlen(prefix) + strlen(uri) + 1;
 1500              		.loc 1 349 5 is_stmt 1
 1501              		.loc 1 349 19 is_stmt 0
 1502 001c 97000000 		call	strlen
 1502      E7800000 
 1503              	.LVL163:
 1504 0024 2A84     		mv	s0,a0
 1505              		.loc 1 349 36
 1506 0026 4A85     		mv	a0,s2
 1507 0028 97000000 		call	strlen
 1507      E7800000 
 1508              	.LVL164:
 1509              		.loc 1 349 34
 1510 0030 2A94     		add	s0,s0,a0
 1511              		.loc 1 349 48
 1512 0032 13061400 		addi	a2,s0,1
 1513              	.LVL165:
 350:C:/Users/stapi/OneDrive/Desktop/GD32VW553/V1_MQTT_OK/GD32VW55X_Wifi_BLE_SDK/GD32VW55x_RELEASE_V1.0.2/MSDK/cloud/alicloud/src/services/linkkit/dm\dm_utils.c ****     *new_uri = DM_malloc(new_uri_len);
 1514              		.loc 1 350 5 is_stmt 1
 1515              		.loc 1 350 16 is_stmt 0
 1516 0036 8145     		li	a1,0
 1517 0038 0145     		li	a0,0
 1518 003a 32C6     		sw	a2,12(sp)
 1519 003c 97000000 		call	LITE_malloc_internal
 1519      E7800000 
 1520              	.LVL166:
 1521              		.loc 1 350 14
 1522 0044 88C0     		sw	a0,0(s1)
 351:C:/Users/stapi/OneDrive/Desktop/GD32VW553/V1_MQTT_OK/GD32VW55X_Wifi_BLE_SDK/GD32VW55x_RELEASE_V1.0.2/MSDK/cloud/alicloud/src/services/linkkit/dm\dm_utils.c ****     if (*new_uri == NULL) {
 1523              		.loc 1 351 5 is_stmt 1
 352:C:/Users/stapi/OneDrive/Desktop/GD32VW553/V1_MQTT_OK/GD32VW55X_Wifi_BLE_SDK/GD32VW55x_RELEASE_V1.0.2/MSDK/cloud/alicloud/src/services/linkkit/dm\dm_utils.c ****         return DM_MEMORY_NOT_ENOUGH;
 1524              		.loc 1 352 16 is_stmt 0
 1525 0046 F557     		li	a5,-3
 351:C:/Users/stapi/OneDrive/Desktop/GD32VW553/V1_MQTT_OK/GD32VW55X_Wifi_BLE_SDK/GD32VW55x_RELEASE_V1.0.2/MSDK/cloud/alicloud/src/services/linkkit/dm\dm_utils.c ****     if (*new_uri == NULL) {
 1526              		.loc 1 351 8
 1527 0048 21C9     		beq	a0,zero,.L154
 353:C:/Users/stapi/OneDrive/Desktop/GD32VW553/V1_MQTT_OK/GD32VW55X_Wifi_BLE_SDK/GD32VW55x_RELEASE_V1.0.2/MSDK/cloud/alicloud/src/services/linkkit/dm\dm_utils.c ****     }
 354:C:/Users/stapi/OneDrive/Desktop/GD32VW553/V1_MQTT_OK/GD32VW55X_Wifi_BLE_SDK/GD32VW55x_RELEASE_V1.0.2/MSDK/cloud/alicloud/src/services/linkkit/dm\dm_utils.c ****     memset(*new_uri, 0, new_uri_len);
 1528              		.loc 1 354 5 is_stmt 1
 1529 004a 3246     		lw	a2,12(sp)
 1530 004c 8145     		li	a1,0
 1531 004e 97000000 		call	memset
 1531      E7800000 
 1532              	.LVL167:
 355:C:/Users/stapi/OneDrive/Desktop/GD32VW553/V1_MQTT_OK/GD32VW55X_Wifi_BLE_SDK/GD32VW55x_RELEASE_V1.0.2/MSDK/cloud/alicloud/src/services/linkkit/dm\dm_utils.c **** 
 356:C:/Users/stapi/OneDrive/Desktop/GD32VW553/V1_MQTT_OK/GD32VW55X_Wifi_BLE_SDK/GD32VW55x_RELEASE_V1.0.2/MSDK/cloud/alicloud/src/services/linkkit/dm\dm_utils.c ****     memcpy(*new_uri, prefix, strlen(prefix));
 1533              		.loc 1 356 5
 1534 0056 4E85     		mv	a0,s3
 1535 0058 97000000 		call	strlen
 1535      E7800000 
 1536              	.LVL168:
 1537 0060 2A86     		mv	a2,a0
 1538 0062 8840     		lw	a0,0(s1)
 1539 0064 CE85     		mv	a1,s3
 1540 0066 97000000 		call	memcpy
 1540      E7800000 
 1541              	.LVL169:
 357:C:/Users/stapi/OneDrive/Desktop/GD32VW553/V1_MQTT_OK/GD32VW55X_Wifi_BLE_SDK/GD32VW55x_RELEASE_V1.0.2/MSDK/cloud/alicloud/src/services/linkkit/dm\dm_utils.c ****     memcpy(*new_uri + strlen(*new_uri), uri, strlen(uri));
 1542              		.loc 1 357 5
 1543              		.loc 1 357 12 is_stmt 0
 1544 006e 8440     		lw	s1,0(s1)
 1545              	.LVL170:
 1546              		.loc 1 357 23
 1547 0070 2685     		mv	a0,s1
 1548 0072 97000000 		call	strlen
 1548      E7800000 
 1549              	.LVL171:
 1550 007a 2A84     		mv	s0,a0
 1551              		.loc 1 357 5
 1552 007c 4A85     		mv	a0,s2
 1553 007e 97000000 		call	strlen
 1553      E7800000 
 1554              	.LVL172:
 1555 0086 2A86     		mv	a2,a0
 1556 0088 CA85     		mv	a1,s2
 1557 008a 33858400 		add	a0,s1,s0
 1558 008e 97000000 		call	memcpy
 1558      E7800000 
 1559              	.LVL173:
 358:C:/Users/stapi/OneDrive/Desktop/GD32VW553/V1_MQTT_OK/GD32VW55X_Wifi_BLE_SDK/GD32VW55x_RELEASE_V1.0.2/MSDK/cloud/alicloud/src/services/linkkit/dm\dm_utils.c **** 
 359:C:/Users/stapi/OneDrive/Desktop/GD32VW553/V1_MQTT_OK/GD32VW55X_Wifi_BLE_SDK/GD32VW55x_RELEASE_V1.0.2/MSDK/cloud/alicloud/src/services/linkkit/dm\dm_utils.c ****     return SUCCESS_RETURN;
 1560              		.loc 1 359 5 is_stmt 1
 1561              		.loc 1 359 12 is_stmt 0
 1562 0096 8147     		li	a5,0
 1563              	.LVL174:
 1564              	.L154:
 360:C:/Users/stapi/OneDrive/Desktop/GD32VW553/V1_MQTT_OK/GD32VW55X_Wifi_BLE_SDK/GD32VW55x_RELEASE_V1.0.2/MSDK/cloud/alicloud/src/services/linkkit/dm\dm_utils.c **** }
 1565              		.loc 1 360 1
 1566 0098 3E85     		mv	a0,a5
 1567 009a 4101     		addi	sp,sp,16
 1568              		.cfi_def_cfa_offset 0
 1569 009c 17030000 		tail	__riscv_restore_4
 1569      67000300 
 1570              		.cfi_restore 19
 1571              		.cfi_restore 18
 1572              		.cfi_restore 9
 1573              		.cfi_restore 8
 1574              		.cfi_restore 1
 1575              		.cfi_def_cfa_offset -32
 1576              	.LVL175:
 1577              	.L156:
 1578              		.cfi_def_cfa_offset 0
 346:C:/Users/stapi/OneDrive/Desktop/GD32VW553/V1_MQTT_OK/GD32VW55X_Wifi_BLE_SDK/GD32VW55x_RELEASE_V1.0.2/MSDK/cloud/alicloud/src/services/linkkit/dm\dm_utils.c ****     }
 1579              		.loc 1 346 16
 1580 00a4 F957     		li	a5,-2
 1581              		.loc 1 360 1
 1582 00a6 3E85     		mv	a0,a5
 1583              	.LVL176:
 1584 00a8 8280     		ret
 1585              		.cfi_endproc
 1586              	.LFE32:
 1588              		.section	.text.dm_utils_json_parse,"ax",@progbits
 1589              		.align	1
 1590              		.globl	dm_utils_json_parse
 1592              	dm_utils_json_parse:
 1593              	.LFB33:
 361:C:/Users/stapi/OneDrive/Desktop/GD32VW553/V1_MQTT_OK/GD32VW55X_Wifi_BLE_SDK/GD32VW55x_RELEASE_V1.0.2/MSDK/cloud/alicloud/src/services/linkkit/dm\dm_utils.c **** 
 362:C:/Users/stapi/OneDrive/Desktop/GD32VW553/V1_MQTT_OK/GD32VW55X_Wifi_BLE_SDK/GD32VW55x_RELEASE_V1.0.2/MSDK/cloud/alicloud/src/services/linkkit/dm\dm_utils.c **** int dm_utils_json_parse(_IN_ const char *payload, _IN_ int payload_len, _IN_ int type, _OU_ lite_cj
 363:C:/Users/stapi/OneDrive/Desktop/GD32VW553/V1_MQTT_OK/GD32VW55X_Wifi_BLE_SDK/GD32VW55x_RELEASE_V1.0.2/MSDK/cloud/alicloud/src/services/linkkit/dm\dm_utils.c **** {
 1594              		.loc 1 363 1 is_stmt 1
 1595              		.cfi_startproc
 1596              	.LVL177:
 364:C:/Users/stapi/OneDrive/Desktop/GD32VW553/V1_MQTT_OK/GD32VW55X_Wifi_BLE_SDK/GD32VW55x_RELEASE_V1.0.2/MSDK/cloud/alicloud/src/services/linkkit/dm\dm_utils.c ****     int res = 0;
 1597              		.loc 1 364 5
 365:C:/Users/stapi/OneDrive/Desktop/GD32VW553/V1_MQTT_OK/GD32VW55X_Wifi_BLE_SDK/GD32VW55x_RELEASE_V1.0.2/MSDK/cloud/alicloud/src/services/linkkit/dm\dm_utils.c **** 
 366:C:/Users/stapi/OneDrive/Desktop/GD32VW553/V1_MQTT_OK/GD32VW55X_Wifi_BLE_SDK/GD32VW55x_RELEASE_V1.0.2/MSDK/cloud/alicloud/src/services/linkkit/dm\dm_utils.c ****     if (payload == NULL || payload_len <= 0 || type < 0 || lite == NULL) {
 1598              		.loc 1 366 5
 1599              		.loc 1 366 8 is_stmt 0
 1600 0000 2DC1     		beq	a0,zero,.L169
 363:C:/Users/stapi/OneDrive/Desktop/GD32VW553/V1_MQTT_OK/GD32VW55X_Wifi_BLE_SDK/GD32VW55x_RELEASE_V1.0.2/MSDK/cloud/alicloud/src/services/linkkit/dm\dm_utils.c ****     int res = 0;
 1601              		.loc 1 363 1 discriminator 1
 1602 0002 17030000 		call	t0,__riscv_save_4
 1602      E7020300 
 1603              		.cfi_offset 19, -20
 1604              		.cfi_offset 18, -16
 1605              		.cfi_offset 9, -12
 1606              		.cfi_offset 8, -8
 1607              		.cfi_offset 1, -4
 1608              		.cfi_def_cfa_offset 32
 1609 000a 2A89     		mv	s2,a0
 1610 000c AE89     		mv	s3,a1
 367:C:/Users/stapi/OneDrive/Desktop/GD32VW553/V1_MQTT_OK/GD32VW55X_Wifi_BLE_SDK/GD32VW55x_RELEASE_V1.0.2/MSDK/cloud/alicloud/src/services/linkkit/dm\dm_utils.c ****         return DM_INVALID_PARAMETER;
 1611              		.loc 1 367 16 discriminator 1
 1612 000e 7955     		li	a0,-2
 1613              	.LVL178:
 366:C:/Users/stapi/OneDrive/Desktop/GD32VW553/V1_MQTT_OK/GD32VW55X_Wifi_BLE_SDK/GD32VW55x_RELEASE_V1.0.2/MSDK/cloud/alicloud/src/services/linkkit/dm\dm_utils.c ****         return DM_INVALID_PARAMETER;
 1614              		.loc 1 366 25 discriminator 1
 1615 0010 6350B004 		ble	a1,zero,.L165
 1616 0014 B284     		mv	s1,a2
 366:C:/Users/stapi/OneDrive/Desktop/GD32VW553/V1_MQTT_OK/GD32VW55X_Wifi_BLE_SDK/GD32VW55x_RELEASE_V1.0.2/MSDK/cloud/alicloud/src/services/linkkit/dm\dm_utils.c ****         return DM_INVALID_PARAMETER;
 1617              		.loc 1 366 45 discriminator 2
 1618 0016 634D0602 		blt	a2,zero,.L165
 1619 001a 3684     		mv	s0,a3
 366:C:/Users/stapi/OneDrive/Desktop/GD32VW553/V1_MQTT_OK/GD32VW55X_Wifi_BLE_SDK/GD32VW55x_RELEASE_V1.0.2/MSDK/cloud/alicloud/src/services/linkkit/dm\dm_utils.c ****         return DM_INVALID_PARAMETER;
 1620              		.loc 1 366 57 discriminator 3
 1621 001c 95CA     		beq	a3,zero,.L165
 368:C:/Users/stapi/OneDrive/Desktop/GD32VW553/V1_MQTT_OK/GD32VW55X_Wifi_BLE_SDK/GD32VW55x_RELEASE_V1.0.2/MSDK/cloud/alicloud/src/services/linkkit/dm\dm_utils.c ****     }
 369:C:/Users/stapi/OneDrive/Desktop/GD32VW553/V1_MQTT_OK/GD32VW55X_Wifi_BLE_SDK/GD32VW55x_RELEASE_V1.0.2/MSDK/cloud/alicloud/src/services/linkkit/dm\dm_utils.c ****     memset(lite, 0, sizeof(lite_cjson_t));
 1622              		.loc 1 369 5 is_stmt 1
 1623 001e 13060002 		li	a2,32
 1624              	.LVL179:
 1625 0022 8145     		li	a1,0
 1626              	.LVL180:
 1627 0024 3685     		mv	a0,a3
 1628 0026 97000000 		call	memset
 1628      E7800000 
 1629              	.LVL181:
 370:C:/Users/stapi/OneDrive/Desktop/GD32VW553/V1_MQTT_OK/GD32VW55X_Wifi_BLE_SDK/GD32VW55x_RELEASE_V1.0.2/MSDK/cloud/alicloud/src/services/linkkit/dm\dm_utils.c **** 
 371:C:/Users/stapi/OneDrive/Desktop/GD32VW553/V1_MQTT_OK/GD32VW55X_Wifi_BLE_SDK/GD32VW55x_RELEASE_V1.0.2/MSDK/cloud/alicloud/src/services/linkkit/dm\dm_utils.c ****     res = lite_cjson_parse(payload, payload_len, lite);
 1630              		.loc 1 371 5
 1631              		.loc 1 371 11 is_stmt 0
 1632 002e 2286     		mv	a2,s0
 1633 0030 CE85     		mv	a1,s3
 1634 0032 4A85     		mv	a0,s2
 1635 0034 97000000 		call	lite_cjson_parse
 1635      E7800000 
 1636              	.LVL182:
 372:C:/Users/stapi/OneDrive/Desktop/GD32VW553/V1_MQTT_OK/GD32VW55X_Wifi_BLE_SDK/GD32VW55x_RELEASE_V1.0.2/MSDK/cloud/alicloud/src/services/linkkit/dm\dm_utils.c ****     if (res != SUCCESS_RETURN) {
 1637              		.loc 1 372 5 is_stmt 1
 1638              		.loc 1 372 8 is_stmt 0
 1639 003c 11CD     		beq	a0,zero,.L167
 1640              	.L168:
 373:C:/Users/stapi/OneDrive/Desktop/GD32VW553/V1_MQTT_OK/GD32VW55X_Wifi_BLE_SDK/GD32VW55x_RELEASE_V1.0.2/MSDK/cloud/alicloud/src/services/linkkit/dm\dm_utils.c ****         memset(lite, 0, sizeof(lite_cjson_t));
 1641              		.loc 1 373 9 is_stmt 1
 1642 003e 13060002 		li	a2,32
 1643 0042 8145     		li	a1,0
 1644 0044 2285     		mv	a0,s0
 1645              	.LVL183:
 1646 0046 97000000 		call	memset
 1646      E7800000 
 1647              	.LVL184:
 374:C:/Users/stapi/OneDrive/Desktop/GD32VW553/V1_MQTT_OK/GD32VW55X_Wifi_BLE_SDK/GD32VW55x_RELEASE_V1.0.2/MSDK/cloud/alicloud/src/services/linkkit/dm\dm_utils.c ****         return FAIL_RETURN;
 1648              		.loc 1 374 9
 1649              		.loc 1 374 16 is_stmt 0
 1650 004e 7D55     		li	a0,-1
 1651              	.LVL185:
 1652              	.L165:
 375:C:/Users/stapi/OneDrive/Desktop/GD32VW553/V1_MQTT_OK/GD32VW55X_Wifi_BLE_SDK/GD32VW55x_RELEASE_V1.0.2/MSDK/cloud/alicloud/src/services/linkkit/dm\dm_utils.c ****     }
 376:C:/Users/stapi/OneDrive/Desktop/GD32VW553/V1_MQTT_OK/GD32VW55X_Wifi_BLE_SDK/GD32VW55x_RELEASE_V1.0.2/MSDK/cloud/alicloud/src/services/linkkit/dm\dm_utils.c **** 
 377:C:/Users/stapi/OneDrive/Desktop/GD32VW553/V1_MQTT_OK/GD32VW55X_Wifi_BLE_SDK/GD32VW55x_RELEASE_V1.0.2/MSDK/cloud/alicloud/src/services/linkkit/dm\dm_utils.c ****     if (type != cJSON_Invalid && lite->type != type) {
 378:C:/Users/stapi/OneDrive/Desktop/GD32VW553/V1_MQTT_OK/GD32VW55X_Wifi_BLE_SDK/GD32VW55x_RELEASE_V1.0.2/MSDK/cloud/alicloud/src/services/linkkit/dm\dm_utils.c ****         memset(lite, 0, sizeof(lite_cjson_t));
 379:C:/Users/stapi/OneDrive/Desktop/GD32VW553/V1_MQTT_OK/GD32VW55X_Wifi_BLE_SDK/GD32VW55x_RELEASE_V1.0.2/MSDK/cloud/alicloud/src/services/linkkit/dm\dm_utils.c ****         return FAIL_RETURN;
 380:C:/Users/stapi/OneDrive/Desktop/GD32VW553/V1_MQTT_OK/GD32VW55X_Wifi_BLE_SDK/GD32VW55x_RELEASE_V1.0.2/MSDK/cloud/alicloud/src/services/linkkit/dm\dm_utils.c ****     }
 381:C:/Users/stapi/OneDrive/Desktop/GD32VW553/V1_MQTT_OK/GD32VW55X_Wifi_BLE_SDK/GD32VW55x_RELEASE_V1.0.2/MSDK/cloud/alicloud/src/services/linkkit/dm\dm_utils.c **** 
 382:C:/Users/stapi/OneDrive/Desktop/GD32VW553/V1_MQTT_OK/GD32VW55X_Wifi_BLE_SDK/GD32VW55x_RELEASE_V1.0.2/MSDK/cloud/alicloud/src/services/linkkit/dm\dm_utils.c ****     return SUCCESS_RETURN;
 383:C:/Users/stapi/OneDrive/Desktop/GD32VW553/V1_MQTT_OK/GD32VW55X_Wifi_BLE_SDK/GD32VW55x_RELEASE_V1.0.2/MSDK/cloud/alicloud/src/services/linkkit/dm\dm_utils.c **** }
 1653              		.loc 1 383 1
 1654 0050 17030000 		tail	__riscv_restore_4
 1654      67000300 
 1655              		.cfi_remember_state
 1656              		.cfi_restore 19
 1657              		.cfi_restore 18
 1658              		.cfi_restore 9
 1659              		.cfi_restore 8
 1660              		.cfi_restore 1
 1661              		.cfi_def_cfa_offset 0
 1662              	.LVL186:
 1663              	.L167:
 1664              		.cfi_restore_state
 377:C:/Users/stapi/OneDrive/Desktop/GD32VW553/V1_MQTT_OK/GD32VW55X_Wifi_BLE_SDK/GD32VW55x_RELEASE_V1.0.2/MSDK/cloud/alicloud/src/services/linkkit/dm\dm_utils.c ****         memset(lite, 0, sizeof(lite_cjson_t));
 1665              		.loc 1 377 5 is_stmt 1
 377:C:/Users/stapi/OneDrive/Desktop/GD32VW553/V1_MQTT_OK/GD32VW55X_Wifi_BLE_SDK/GD32VW55x_RELEASE_V1.0.2/MSDK/cloud/alicloud/src/services/linkkit/dm\dm_utils.c ****         memset(lite, 0, sizeof(lite_cjson_t));
 1666              		.loc 1 377 8 is_stmt 0
 1667 0058 E5DC     		beq	s1,zero,.L165
 377:C:/Users/stapi/OneDrive/Desktop/GD32VW553/V1_MQTT_OK/GD32VW55X_Wifi_BLE_SDK/GD32VW55x_RELEASE_V1.0.2/MSDK/cloud/alicloud/src/services/linkkit/dm\dm_utils.c ****         memset(lite, 0, sizeof(lite_cjson_t));
 1668              		.loc 1 377 31 discriminator 1
 1669 005a 1C40     		lw	a5,0(s0)
 1670 005c E38A97FE 		beq	a5,s1,.L165
 1671 0060 F9BF     		j	.L168
 1672              	.LVL187:
 1673              	.L169:
 1674              		.cfi_def_cfa_offset 0
 1675              		.cfi_restore 1
 1676              		.cfi_restore 8
 1677              		.cfi_restore 9
 1678              		.cfi_restore 18
 1679              		.cfi_restore 19
 367:C:/Users/stapi/OneDrive/Desktop/GD32VW553/V1_MQTT_OK/GD32VW55X_Wifi_BLE_SDK/GD32VW55x_RELEASE_V1.0.2/MSDK/cloud/alicloud/src/services/linkkit/dm\dm_utils.c ****     }
 1680              		.loc 1 367 16
 1681 0062 7955     		li	a0,-2
 1682              	.LVL188:
 1683              		.loc 1 383 1
 1684 0064 8280     		ret
 1685              		.cfi_endproc
 1686              	.LFE33:
 1688              		.section	.text.dm_utils_json_object_item,"ax",@progbits
 1689              		.align	1
 1690              		.globl	dm_utils_json_object_item
 1692              	dm_utils_json_object_item:
 1693              	.LFB34:
 384:C:/Users/stapi/OneDrive/Desktop/GD32VW553/V1_MQTT_OK/GD32VW55X_Wifi_BLE_SDK/GD32VW55x_RELEASE_V1.0.2/MSDK/cloud/alicloud/src/services/linkkit/dm\dm_utils.c **** 
 385:C:/Users/stapi/OneDrive/Desktop/GD32VW553/V1_MQTT_OK/GD32VW55X_Wifi_BLE_SDK/GD32VW55x_RELEASE_V1.0.2/MSDK/cloud/alicloud/src/services/linkkit/dm\dm_utils.c **** int dm_utils_json_object_item(_IN_ lite_cjson_t *lite, _IN_ const char *key, _IN_ int key_len, _IN_
 386:C:/Users/stapi/OneDrive/Desktop/GD32VW553/V1_MQTT_OK/GD32VW55X_Wifi_BLE_SDK/GD32VW55x_RELEASE_V1.0.2/MSDK/cloud/alicloud/src/services/linkkit/dm\dm_utils.c ****                               _OU_ lite_cjson_t *lite_item)
 387:C:/Users/stapi/OneDrive/Desktop/GD32VW553/V1_MQTT_OK/GD32VW55X_Wifi_BLE_SDK/GD32VW55x_RELEASE_V1.0.2/MSDK/cloud/alicloud/src/services/linkkit/dm\dm_utils.c **** {
 1694              		.loc 1 387 1 is_stmt 1
 1695              		.cfi_startproc
 1696              	.LVL189:
 388:C:/Users/stapi/OneDrive/Desktop/GD32VW553/V1_MQTT_OK/GD32VW55X_Wifi_BLE_SDK/GD32VW55x_RELEASE_V1.0.2/MSDK/cloud/alicloud/src/services/linkkit/dm\dm_utils.c ****     int res = 0;
 1697              		.loc 1 388 5
 389:C:/Users/stapi/OneDrive/Desktop/GD32VW553/V1_MQTT_OK/GD32VW55X_Wifi_BLE_SDK/GD32VW55x_RELEASE_V1.0.2/MSDK/cloud/alicloud/src/services/linkkit/dm\dm_utils.c ****     if (lite == NULL || lite->type != cJSON_Object || key == NULL || key_len <= 0 || type < 0 || li
 1698              		.loc 1 389 5
 1699              		.loc 1 389 8 is_stmt 0
 1700 0000 2DC9     		beq	a0,zero,.L185
 387:C:/Users/stapi/OneDrive/Desktop/GD32VW553/V1_MQTT_OK/GD32VW55X_Wifi_BLE_SDK/GD32VW55x_RELEASE_V1.0.2/MSDK/cloud/alicloud/src/services/linkkit/dm\dm_utils.c ****     int res = 0;
 1701              		.loc 1 387 1 discriminator 1
 1702 0002 17030000 		call	t0,__riscv_save_5
 1702      E7020300 
 1703              		.cfi_offset 20, -24
 1704              		.cfi_offset 19, -20
 1705              		.cfi_offset 18, -16
 1706              		.cfi_offset 9, -12
 1707              		.cfi_offset 8, -8
 1708              		.cfi_offset 1, -4
 1709              		.cfi_def_cfa_offset 32
 1710 000a 3A84     		mv	s0,a4
 1711              		.loc 1 389 22 discriminator 1
 1712 000c 1841     		lw	a4,0(a0)
 1713              	.LVL190:
 1714 000e 93070004 		li	a5,64
 1715 0012 2A89     		mv	s2,a0
 390:C:/Users/stapi/OneDrive/Desktop/GD32VW553/V1_MQTT_OK/GD32VW55X_Wifi_BLE_SDK/GD32VW55x_RELEASE_V1.0.2/MSDK/cloud/alicloud/src/services/linkkit/dm\dm_utils.c ****         return DM_INVALID_PARAMETER;
 1716              		.loc 1 390 16 discriminator 1
 1717 0014 7955     		li	a0,-2
 1718              	.LVL191:
 389:C:/Users/stapi/OneDrive/Desktop/GD32VW553/V1_MQTT_OK/GD32VW55X_Wifi_BLE_SDK/GD32VW55x_RELEASE_V1.0.2/MSDK/cloud/alicloud/src/services/linkkit/dm\dm_utils.c ****     if (lite == NULL || lite->type != cJSON_Object || key == NULL || key_len <= 0 || type < 0 || li
 1719              		.loc 1 389 22 discriminator 1
 1720 0016 6315F704 		bne	a4,a5,.L181
 1721 001a AE89     		mv	s3,a1
 389:C:/Users/stapi/OneDrive/Desktop/GD32VW553/V1_MQTT_OK/GD32VW55X_Wifi_BLE_SDK/GD32VW55x_RELEASE_V1.0.2/MSDK/cloud/alicloud/src/services/linkkit/dm\dm_utils.c ****     if (lite == NULL || lite->type != cJSON_Object || key == NULL || key_len <= 0 || type < 0 || li
 1722              		.loc 1 389 52 discriminator 2
 1723 001c B1C1     		beq	a1,zero,.L181
 1724 001e 328A     		mv	s4,a2
 389:C:/Users/stapi/OneDrive/Desktop/GD32VW553/V1_MQTT_OK/GD32VW55X_Wifi_BLE_SDK/GD32VW55x_RELEASE_V1.0.2/MSDK/cloud/alicloud/src/services/linkkit/dm\dm_utils.c ****     if (lite == NULL || lite->type != cJSON_Object || key == NULL || key_len <= 0 || type < 0 || li
 1725              		.loc 1 389 67 discriminator 3
 1726 0020 6350C004 		ble	a2,zero,.L181
 1727 0024 B684     		mv	s1,a3
 389:C:/Users/stapi/OneDrive/Desktop/GD32VW553/V1_MQTT_OK/GD32VW55X_Wifi_BLE_SDK/GD32VW55x_RELEASE_V1.0.2/MSDK/cloud/alicloud/src/services/linkkit/dm\dm_utils.c ****     if (lite == NULL || lite->type != cJSON_Object || key == NULL || key_len <= 0 || type < 0 || li
 1728              		.loc 1 389 83 discriminator 4
 1729 0026 63CD0602 		blt	a3,zero,.L181
 389:C:/Users/stapi/OneDrive/Desktop/GD32VW553/V1_MQTT_OK/GD32VW55X_Wifi_BLE_SDK/GD32VW55x_RELEASE_V1.0.2/MSDK/cloud/alicloud/src/services/linkkit/dm\dm_utils.c ****     if (lite == NULL || lite->type != cJSON_Object || key == NULL || key_len <= 0 || type < 0 || li
 1730              		.loc 1 389 95 discriminator 5
 1731 002a 1DC8     		beq	s0,zero,.L181
 391:C:/Users/stapi/OneDrive/Desktop/GD32VW553/V1_MQTT_OK/GD32VW55X_Wifi_BLE_SDK/GD32VW55x_RELEASE_V1.0.2/MSDK/cloud/alicloud/src/services/linkkit/dm\dm_utils.c ****     }
 392:C:/Users/stapi/OneDrive/Desktop/GD32VW553/V1_MQTT_OK/GD32VW55X_Wifi_BLE_SDK/GD32VW55x_RELEASE_V1.0.2/MSDK/cloud/alicloud/src/services/linkkit/dm\dm_utils.c **** 
 393:C:/Users/stapi/OneDrive/Desktop/GD32VW553/V1_MQTT_OK/GD32VW55X_Wifi_BLE_SDK/GD32VW55x_RELEASE_V1.0.2/MSDK/cloud/alicloud/src/services/linkkit/dm\dm_utils.c ****     if (lite->type != cJSON_Object) {
 1732              		.loc 1 393 5 is_stmt 1 discriminator 1
 394:C:/Users/stapi/OneDrive/Desktop/GD32VW553/V1_MQTT_OK/GD32VW55X_Wifi_BLE_SDK/GD32VW55x_RELEASE_V1.0.2/MSDK/cloud/alicloud/src/services/linkkit/dm\dm_utils.c ****         dm_log_err("lite->type != cJSON_Object, %d", lite->type);
 1733              		.loc 1 394 9 discriminator 1
 395:C:/Users/stapi/OneDrive/Desktop/GD32VW553/V1_MQTT_OK/GD32VW55X_Wifi_BLE_SDK/GD32VW55x_RELEASE_V1.0.2/MSDK/cloud/alicloud/src/services/linkkit/dm\dm_utils.c ****     }
 396:C:/Users/stapi/OneDrive/Desktop/GD32VW553/V1_MQTT_OK/GD32VW55X_Wifi_BLE_SDK/GD32VW55x_RELEASE_V1.0.2/MSDK/cloud/alicloud/src/services/linkkit/dm\dm_utils.c **** 
 397:C:/Users/stapi/OneDrive/Desktop/GD32VW553/V1_MQTT_OK/GD32VW55X_Wifi_BLE_SDK/GD32VW55x_RELEASE_V1.0.2/MSDK/cloud/alicloud/src/services/linkkit/dm\dm_utils.c ****     memset(lite_item, 0, sizeof(lite_cjson_t));
 1734              		.loc 1 397 5 discriminator 1
 1735 002c 13060002 		li	a2,32
 1736              	.LVL192:
 1737 0030 8145     		li	a1,0
 1738              	.LVL193:
 1739 0032 2285     		mv	a0,s0
 1740 0034 97000000 		call	memset
 1740      E7800000 
 1741              	.LVL194:
 398:C:/Users/stapi/OneDrive/Desktop/GD32VW553/V1_MQTT_OK/GD32VW55X_Wifi_BLE_SDK/GD32VW55x_RELEASE_V1.0.2/MSDK/cloud/alicloud/src/services/linkkit/dm\dm_utils.c **** 
 399:C:/Users/stapi/OneDrive/Desktop/GD32VW553/V1_MQTT_OK/GD32VW55X_Wifi_BLE_SDK/GD32VW55x_RELEASE_V1.0.2/MSDK/cloud/alicloud/src/services/linkkit/dm\dm_utils.c ****     res = lite_cjson_object_item(lite, key, key_len, lite_item);
 1742              		.loc 1 399 5 discriminator 1
 1743              		.loc 1 399 11 is_stmt 0 discriminator 1
 1744 003c A286     		mv	a3,s0
 1745 003e 5286     		mv	a2,s4
 1746 0040 CE85     		mv	a1,s3
 1747 0042 4A85     		mv	a0,s2
 1748 0044 97000000 		call	lite_cjson_object_item
 1748      E7800000 
 1749              	.LVL195:
 400:C:/Users/stapi/OneDrive/Desktop/GD32VW553/V1_MQTT_OK/GD32VW55X_Wifi_BLE_SDK/GD32VW55x_RELEASE_V1.0.2/MSDK/cloud/alicloud/src/services/linkkit/dm\dm_utils.c ****     if (res != SUCCESS_RETURN) {
 1750              		.loc 1 400 5 is_stmt 1 discriminator 1
 1751              		.loc 1 400 8 is_stmt 0 discriminator 1
 1752 004c 11CD     		beq	a0,zero,.L183
 1753              	.L184:
 401:C:/Users/stapi/OneDrive/Desktop/GD32VW553/V1_MQTT_OK/GD32VW55X_Wifi_BLE_SDK/GD32VW55x_RELEASE_V1.0.2/MSDK/cloud/alicloud/src/services/linkkit/dm\dm_utils.c ****         memset(lite_item, 0, sizeof(lite_cjson_t));
 1754              		.loc 1 401 9 is_stmt 1
 1755 004e 13060002 		li	a2,32
 1756 0052 8145     		li	a1,0
 1757 0054 2285     		mv	a0,s0
 1758              	.LVL196:
 1759 0056 97000000 		call	memset
 1759      E7800000 
 1760              	.LVL197:
 402:C:/Users/stapi/OneDrive/Desktop/GD32VW553/V1_MQTT_OK/GD32VW55X_Wifi_BLE_SDK/GD32VW55x_RELEASE_V1.0.2/MSDK/cloud/alicloud/src/services/linkkit/dm\dm_utils.c ****         return FAIL_RETURN;
 1761              		.loc 1 402 9
 1762              		.loc 1 402 16 is_stmt 0
 1763 005e 7D55     		li	a0,-1
 1764              	.LVL198:
 1765              	.L181:
 403:C:/Users/stapi/OneDrive/Desktop/GD32VW553/V1_MQTT_OK/GD32VW55X_Wifi_BLE_SDK/GD32VW55x_RELEASE_V1.0.2/MSDK/cloud/alicloud/src/services/linkkit/dm\dm_utils.c ****     }
 404:C:/Users/stapi/OneDrive/Desktop/GD32VW553/V1_MQTT_OK/GD32VW55X_Wifi_BLE_SDK/GD32VW55x_RELEASE_V1.0.2/MSDK/cloud/alicloud/src/services/linkkit/dm\dm_utils.c **** 
 405:C:/Users/stapi/OneDrive/Desktop/GD32VW553/V1_MQTT_OK/GD32VW55X_Wifi_BLE_SDK/GD32VW55x_RELEASE_V1.0.2/MSDK/cloud/alicloud/src/services/linkkit/dm\dm_utils.c ****     if (type != cJSON_Invalid && lite_item->type != type) {
 406:C:/Users/stapi/OneDrive/Desktop/GD32VW553/V1_MQTT_OK/GD32VW55X_Wifi_BLE_SDK/GD32VW55x_RELEASE_V1.0.2/MSDK/cloud/alicloud/src/services/linkkit/dm\dm_utils.c ****         memset(lite_item, 0, sizeof(lite_cjson_t));
 407:C:/Users/stapi/OneDrive/Desktop/GD32VW553/V1_MQTT_OK/GD32VW55X_Wifi_BLE_SDK/GD32VW55x_RELEASE_V1.0.2/MSDK/cloud/alicloud/src/services/linkkit/dm\dm_utils.c ****         return FAIL_RETURN;
 408:C:/Users/stapi/OneDrive/Desktop/GD32VW553/V1_MQTT_OK/GD32VW55X_Wifi_BLE_SDK/GD32VW55x_RELEASE_V1.0.2/MSDK/cloud/alicloud/src/services/linkkit/dm\dm_utils.c ****     }
 409:C:/Users/stapi/OneDrive/Desktop/GD32VW553/V1_MQTT_OK/GD32VW55X_Wifi_BLE_SDK/GD32VW55x_RELEASE_V1.0.2/MSDK/cloud/alicloud/src/services/linkkit/dm\dm_utils.c **** 
 410:C:/Users/stapi/OneDrive/Desktop/GD32VW553/V1_MQTT_OK/GD32VW55X_Wifi_BLE_SDK/GD32VW55x_RELEASE_V1.0.2/MSDK/cloud/alicloud/src/services/linkkit/dm\dm_utils.c ****     return SUCCESS_RETURN;
 411:C:/Users/stapi/OneDrive/Desktop/GD32VW553/V1_MQTT_OK/GD32VW55X_Wifi_BLE_SDK/GD32VW55x_RELEASE_V1.0.2/MSDK/cloud/alicloud/src/services/linkkit/dm\dm_utils.c **** }
 1766              		.loc 1 411 1
 1767 0060 17030000 		tail	__riscv_restore_5
 1767      67000300 
 1768              		.cfi_remember_state
 1769              		.cfi_restore 20
 1770              		.cfi_restore 19
 1771              		.cfi_restore 18
 1772              		.cfi_restore 9
 1773              		.cfi_restore 8
 1774              		.cfi_restore 1
 1775              		.cfi_def_cfa_offset 0
 1776              	.LVL199:
 1777              	.L183:
 1778              		.cfi_restore_state
 405:C:/Users/stapi/OneDrive/Desktop/GD32VW553/V1_MQTT_OK/GD32VW55X_Wifi_BLE_SDK/GD32VW55x_RELEASE_V1.0.2/MSDK/cloud/alicloud/src/services/linkkit/dm\dm_utils.c ****         memset(lite_item, 0, sizeof(lite_cjson_t));
 1779              		.loc 1 405 5 is_stmt 1
 405:C:/Users/stapi/OneDrive/Desktop/GD32VW553/V1_MQTT_OK/GD32VW55X_Wifi_BLE_SDK/GD32VW55x_RELEASE_V1.0.2/MSDK/cloud/alicloud/src/services/linkkit/dm\dm_utils.c ****         memset(lite_item, 0, sizeof(lite_cjson_t));
 1780              		.loc 1 405 8 is_stmt 0
 1781 0068 E5DC     		beq	s1,zero,.L181
 405:C:/Users/stapi/OneDrive/Desktop/GD32VW553/V1_MQTT_OK/GD32VW55X_Wifi_BLE_SDK/GD32VW55x_RELEASE_V1.0.2/MSDK/cloud/alicloud/src/services/linkkit/dm\dm_utils.c ****         memset(lite_item, 0, sizeof(lite_cjson_t));
 1782              		.loc 1 405 31 discriminator 1
 1783 006a 1C40     		lw	a5,0(s0)
 1784 006c E38A97FE 		beq	a5,s1,.L181
 1785 0070 F9BF     		j	.L184
 1786              	.LVL200:
 1787              	.L185:
 1788              		.cfi_def_cfa_offset 0
 1789              		.cfi_restore 1
 1790              		.cfi_restore 8
 1791              		.cfi_restore 9
 1792              		.cfi_restore 18
 1793              		.cfi_restore 19
 1794              		.cfi_restore 20
 390:C:/Users/stapi/OneDrive/Desktop/GD32VW553/V1_MQTT_OK/GD32VW55X_Wifi_BLE_SDK/GD32VW55x_RELEASE_V1.0.2/MSDK/cloud/alicloud/src/services/linkkit/dm\dm_utils.c ****     }
 1795              		.loc 1 390 16
 1796 0072 7955     		li	a0,-2
 1797              	.LVL201:
 1798              		.loc 1 411 1
 1799 0074 8280     		ret
 1800              		.cfi_endproc
 1801              	.LFE34:
 1803              		.section	.text.dm_utils_malloc,"ax",@progbits
 1804              		.align	1
 1805              		.globl	dm_utils_malloc
 1807              	dm_utils_malloc:
 1808              	.LFB35:
 412:C:/Users/stapi/OneDrive/Desktop/GD32VW553/V1_MQTT_OK/GD32VW55X_Wifi_BLE_SDK/GD32VW55x_RELEASE_V1.0.2/MSDK/cloud/alicloud/src/services/linkkit/dm\dm_utils.c **** 
 413:C:/Users/stapi/OneDrive/Desktop/GD32VW553/V1_MQTT_OK/GD32VW55X_Wifi_BLE_SDK/GD32VW55x_RELEASE_V1.0.2/MSDK/cloud/alicloud/src/services/linkkit/dm\dm_utils.c **** void *dm_utils_malloc(unsigned int size)
 414:C:/Users/stapi/OneDrive/Desktop/GD32VW553/V1_MQTT_OK/GD32VW55X_Wifi_BLE_SDK/GD32VW55x_RELEASE_V1.0.2/MSDK/cloud/alicloud/src/services/linkkit/dm\dm_utils.c **** {
 1809              		.loc 1 414 1 is_stmt 1
 1810              		.cfi_startproc
 1811              	.LVL202:
 415:C:/Users/stapi/OneDrive/Desktop/GD32VW553/V1_MQTT_OK/GD32VW55X_Wifi_BLE_SDK/GD32VW55x_RELEASE_V1.0.2/MSDK/cloud/alicloud/src/services/linkkit/dm\dm_utils.c ****     return LITE_malloc(size, MEM_MAGIC, "lite_cjson");
 1812              		.loc 1 415 5
 414:C:/Users/stapi/OneDrive/Desktop/GD32VW553/V1_MQTT_OK/GD32VW55X_Wifi_BLE_SDK/GD32VW55x_RELEASE_V1.0.2/MSDK/cloud/alicloud/src/services/linkkit/dm\dm_utils.c ****     return LITE_malloc(size, MEM_MAGIC, "lite_cjson");
 1813              		.loc 1 414 1 is_stmt 0
 1814 0000 2A86     		mv	a2,a0
 1815              		.loc 1 415 12
 1816 0002 8145     		li	a1,0
 1817 0004 0145     		li	a0,0
 1818              	.LVL203:
 1819 0006 17030000 		tail	LITE_malloc_internal
 1819      67000300 
 1820              	.LVL204:
 1821              		.cfi_endproc
 1822              	.LFE35:
 1824              		.section	.text.dm_utils_free,"ax",@progbits
 1825              		.align	1
 1826              		.globl	dm_utils_free
 1828              	dm_utils_free:
 1829              	.LFB36:
 416:C:/Users/stapi/OneDrive/Desktop/GD32VW553/V1_MQTT_OK/GD32VW55X_Wifi_BLE_SDK/GD32VW55x_RELEASE_V1.0.2/MSDK/cloud/alicloud/src/services/linkkit/dm\dm_utils.c **** }
 417:C:/Users/stapi/OneDrive/Desktop/GD32VW553/V1_MQTT_OK/GD32VW55X_Wifi_BLE_SDK/GD32VW55x_RELEASE_V1.0.2/MSDK/cloud/alicloud/src/services/linkkit/dm\dm_utils.c **** 
 418:C:/Users/stapi/OneDrive/Desktop/GD32VW553/V1_MQTT_OK/GD32VW55X_Wifi_BLE_SDK/GD32VW55x_RELEASE_V1.0.2/MSDK/cloud/alicloud/src/services/linkkit/dm\dm_utils.c **** void dm_utils_free(void *ptr)
 419:C:/Users/stapi/OneDrive/Desktop/GD32VW553/V1_MQTT_OK/GD32VW55X_Wifi_BLE_SDK/GD32VW55x_RELEASE_V1.0.2/MSDK/cloud/alicloud/src/services/linkkit/dm\dm_utils.c **** {
 1830              		.loc 1 419 1 is_stmt 1
 1831              		.cfi_startproc
 1832              	.LVL205:
 420:C:/Users/stapi/OneDrive/Desktop/GD32VW553/V1_MQTT_OK/GD32VW55X_Wifi_BLE_SDK/GD32VW55x_RELEASE_V1.0.2/MSDK/cloud/alicloud/src/services/linkkit/dm\dm_utils.c ****     LITE_free(ptr);
 1833              		.loc 1 420 5
 1834 0000 17030000 		tail	LITE_free_internal
 1834      67000300 
 1835              	.LVL206:
 1836              		.cfi_endproc
 1837              	.LFE36:
 1839              		.text
 1840              	.Letext0:
 1841              		.file 2 "..\\..\\..\\..\\cloud\\alicloud\\src\\infra\\utils\\misc/lite-cjson.h"
 1842              		.file 3 "..\\..\\..\\..\\cloud\\alicloud\\src\\infra\\utils/iotx_utils.h"
 1843              		.file 4 "c:\\users\\stapi\\onedrive\\desktop\\gd32vw553\\embeddedbuilder_v1.4.7.26843\\tools\\nucl
 1844              		.file 5 "<built-in>"
 1845              		.file 6 "..\\..\\..\\..\\cloud\\alicloud\\include/iot_import.h"
 1846              		.file 7 "c:\\users\\stapi\\onedrive\\desktop\\gd32vw553\\embeddedbuilder_v1.4.7.26843\\tools\\nucl
 1847              		.file 8 "..\\..\\..\\..\\cloud\\alicloud\\include/exports/iot_export_errno.h"
 1848              		.file 9 "C:/Users/stapi/OneDrive/Desktop/GD32VW553/V1_MQTT_OK/GD32VW55X_Wifi_BLE_SDK/GD32VW55x_REL
DEFINED SYMBOLS
                            *ABS*:0000000000000000 dm_utils.c
C:\Users\stapi\AppData\Local\Temp\ccfXLqzg.s:13     .text.dm_utils_copy_direct:0000000000000000 dm_utils_copy_direct
C:\Users\stapi\AppData\Local\Temp\ccfXLqzg.s:17     .text.dm_utils_copy_direct:0000000000000000 .L0 
C:\Users\stapi\AppData\Local\Temp\ccfXLqzg.s:19     .text.dm_utils_copy_direct:0000000000000000 .L0 
C:\Users\stapi\AppData\Local\Temp\ccfXLqzg.s:20     .text.dm_utils_copy_direct:0000000000000000 .L0 
C:\Users\stapi\AppData\Local\Temp\ccfXLqzg.s:21     .text.dm_utils_copy_direct:0000000000000000 .L0 
C:\Users\stapi\AppData\Local\Temp\ccfXLqzg.s:23     .text.dm_utils_copy_direct:0000000000000002 .L0 
C:\Users\stapi\AppData\Local\Temp\ccfXLqzg.s:24     .text.dm_utils_copy_direct:000000000000000a .L0 
C:\Users\stapi\AppData\Local\Temp\ccfXLqzg.s:25     .text.dm_utils_copy_direct:000000000000000a .L0 
C:\Users\stapi\AppData\Local\Temp\ccfXLqzg.s:26     .text.dm_utils_copy_direct:000000000000000a .L0 
C:\Users\stapi\AppData\Local\Temp\ccfXLqzg.s:27     .text.dm_utils_copy_direct:000000000000000a .L0 
C:\Users\stapi\AppData\Local\Temp\ccfXLqzg.s:28     .text.dm_utils_copy_direct:000000000000000a .L0 
C:\Users\stapi\AppData\Local\Temp\ccfXLqzg.s:29     .text.dm_utils_copy_direct:000000000000000a .L0 
C:\Users\stapi\AppData\Local\Temp\ccfXLqzg.s:32     .text.dm_utils_copy_direct:000000000000000c .L0 
C:\Users\stapi\AppData\Local\Temp\ccfXLqzg.s:34     .text.dm_utils_copy_direct:000000000000000e .L0 
C:\Users\stapi\AppData\Local\Temp\ccfXLqzg.s:36     .text.dm_utils_copy_direct:0000000000000010 .L0 
C:\Users\stapi\AppData\Local\Temp\ccfXLqzg.s:40     .text.dm_utils_copy_direct:0000000000000016 .L0 
C:\Users\stapi\AppData\Local\Temp\ccfXLqzg.s:45     .text.dm_utils_copy_direct:000000000000001c .L0 
C:\Users\stapi\AppData\Local\Temp\ccfXLqzg.s:46     .text.dm_utils_copy_direct:000000000000001c .L0 
C:\Users\stapi\AppData\Local\Temp\ccfXLqzg.s:49     .text.dm_utils_copy_direct:0000000000000024 .L0 
C:\Users\stapi\AppData\Local\Temp\ccfXLqzg.s:51     .text.dm_utils_copy_direct:0000000000000026 .L0 
C:\Users\stapi\AppData\Local\Temp\ccfXLqzg.s:52     .text.dm_utils_copy_direct:0000000000000026 .L0 
C:\Users\stapi\AppData\Local\Temp\ccfXLqzg.s:54     .text.dm_utils_copy_direct:0000000000000028 .L0 
C:\Users\stapi\AppData\Local\Temp\ccfXLqzg.s:56     .text.dm_utils_copy_direct:000000000000002a .L0 
C:\Users\stapi\AppData\Local\Temp\ccfXLqzg.s:61     .text.dm_utils_copy_direct:0000000000000036 .L0 
C:\Users\stapi\AppData\Local\Temp\ccfXLqzg.s:67     .text.dm_utils_copy_direct:0000000000000044 .L0 
C:\Users\stapi\AppData\Local\Temp\ccfXLqzg.s:68     .text.dm_utils_copy_direct:0000000000000044 .L0 
C:\Users\stapi\AppData\Local\Temp\ccfXLqzg.s:72     .text.dm_utils_copy_direct:0000000000000046 .L0 
C:\Users\stapi\AppData\Local\Temp\ccfXLqzg.s:74     .text.dm_utils_copy_direct:0000000000000050 .L0 
C:\Users\stapi\AppData\Local\Temp\ccfXLqzg.s:75     .text.dm_utils_copy_direct:0000000000000050 .L0 
C:\Users\stapi\AppData\Local\Temp\ccfXLqzg.s:76     .text.dm_utils_copy_direct:0000000000000050 .L0 
C:\Users\stapi\AppData\Local\Temp\ccfXLqzg.s:77     .text.dm_utils_copy_direct:0000000000000050 .L0 
C:\Users\stapi\AppData\Local\Temp\ccfXLqzg.s:78     .text.dm_utils_copy_direct:0000000000000050 .L0 
C:\Users\stapi\AppData\Local\Temp\ccfXLqzg.s:79     .text.dm_utils_copy_direct:0000000000000050 .L0 
C:\Users\stapi\AppData\Local\Temp\ccfXLqzg.s:83     .text.dm_utils_copy_direct:0000000000000050 .L0 
C:\Users\stapi\AppData\Local\Temp\ccfXLqzg.s:85     .text.dm_utils_copy_direct:0000000000000052 .L0 
C:\Users\stapi\AppData\Local\Temp\ccfXLqzg.s:88     .text.dm_utils_copy_direct:0000000000000056 .L0 
C:\Users\stapi\AppData\Local\Temp\ccfXLqzg.s:95     .text.dm_utils_copy:0000000000000000 dm_utils_copy
C:\Users\stapi\AppData\Local\Temp\ccfXLqzg.s:98     .text.dm_utils_copy:0000000000000000 .L0 
C:\Users\stapi\AppData\Local\Temp\ccfXLqzg.s:100    .text.dm_utils_copy:0000000000000000 .L0 
C:\Users\stapi\AppData\Local\Temp\ccfXLqzg.s:101    .text.dm_utils_copy:0000000000000000 .L0 
C:\Users\stapi\AppData\Local\Temp\ccfXLqzg.s:102    .text.dm_utils_copy:0000000000000000 .L0 
C:\Users\stapi\AppData\Local\Temp\ccfXLqzg.s:104    .text.dm_utils_copy:0000000000000002 .L0 
C:\Users\stapi\AppData\Local\Temp\ccfXLqzg.s:105    .text.dm_utils_copy:000000000000000a .L0 
C:\Users\stapi\AppData\Local\Temp\ccfXLqzg.s:106    .text.dm_utils_copy:000000000000000a .L0 
C:\Users\stapi\AppData\Local\Temp\ccfXLqzg.s:107    .text.dm_utils_copy:000000000000000a .L0 
C:\Users\stapi\AppData\Local\Temp\ccfXLqzg.s:108    .text.dm_utils_copy:000000000000000a .L0 
C:\Users\stapi\AppData\Local\Temp\ccfXLqzg.s:109    .text.dm_utils_copy:000000000000000a .L0 
C:\Users\stapi\AppData\Local\Temp\ccfXLqzg.s:111    .text.dm_utils_copy:000000000000000c .L0 
C:\Users\stapi\AppData\Local\Temp\ccfXLqzg.s:114    .text.dm_utils_copy:000000000000000e .L0 
C:\Users\stapi\AppData\Local\Temp\ccfXLqzg.s:116    .text.dm_utils_copy:0000000000000010 .L0 
C:\Users\stapi\AppData\Local\Temp\ccfXLqzg.s:118    .text.dm_utils_copy:0000000000000012 .L0 
C:\Users\stapi\AppData\Local\Temp\ccfXLqzg.s:125    .text.dm_utils_copy:000000000000001c .L0 
C:\Users\stapi\AppData\Local\Temp\ccfXLqzg.s:126    .text.dm_utils_copy:000000000000001c .L0 
C:\Users\stapi\AppData\Local\Temp\ccfXLqzg.s:134    .text.dm_utils_copy:000000000000002a .L0 
C:\Users\stapi\AppData\Local\Temp\ccfXLqzg.s:136    .text.dm_utils_copy:000000000000002c .L0 
C:\Users\stapi\AppData\Local\Temp\ccfXLqzg.s:137    .text.dm_utils_copy:000000000000002c .L0 
C:\Users\stapi\AppData\Local\Temp\ccfXLqzg.s:139    .text.dm_utils_copy:000000000000002e .L0 
C:\Users\stapi\AppData\Local\Temp\ccfXLqzg.s:141    .text.dm_utils_copy:0000000000000030 .L0 
C:\Users\stapi\AppData\Local\Temp\ccfXLqzg.s:146    .text.dm_utils_copy:000000000000003c .L0 
C:\Users\stapi\AppData\Local\Temp\ccfXLqzg.s:152    .text.dm_utils_copy:000000000000004a .L0 
C:\Users\stapi\AppData\Local\Temp\ccfXLqzg.s:153    .text.dm_utils_copy:000000000000004a .L0 
C:\Users\stapi\AppData\Local\Temp\ccfXLqzg.s:157    .text.dm_utils_copy:000000000000004c .L0 
C:\Users\stapi\AppData\Local\Temp\ccfXLqzg.s:159    .text.dm_utils_copy:0000000000000050 .L0 
C:\Users\stapi\AppData\Local\Temp\ccfXLqzg.s:161    .text.dm_utils_copy:0000000000000058 .L0 
C:\Users\stapi\AppData\Local\Temp\ccfXLqzg.s:162    .text.dm_utils_copy:0000000000000058 .L0 
C:\Users\stapi\AppData\Local\Temp\ccfXLqzg.s:163    .text.dm_utils_copy:0000000000000058 .L0 
C:\Users\stapi\AppData\Local\Temp\ccfXLqzg.s:164    .text.dm_utils_copy:0000000000000058 .L0 
C:\Users\stapi\AppData\Local\Temp\ccfXLqzg.s:165    .text.dm_utils_copy:0000000000000058 .L0 
C:\Users\stapi\AppData\Local\Temp\ccfXLqzg.s:168    .text.dm_utils_copy:0000000000000058 .L0 
C:\Users\stapi\AppData\Local\Temp\ccfXLqzg.s:170    .text.dm_utils_copy:0000000000000058 .L0 
C:\Users\stapi\AppData\Local\Temp\ccfXLqzg.s:172    .text.dm_utils_copy:000000000000005a .L0 
C:\Users\stapi\AppData\Local\Temp\ccfXLqzg.s:175    .text.dm_utils_copy:000000000000005e .L0 
C:\Users\stapi\AppData\Local\Temp\ccfXLqzg.s:182    .text.dm_utils_strarr_index:0000000000000000 dm_utils_strarr_index
C:\Users\stapi\AppData\Local\Temp\ccfXLqzg.s:185    .text.dm_utils_strarr_index:0000000000000000 .L0 
C:\Users\stapi\AppData\Local\Temp\ccfXLqzg.s:187    .text.dm_utils_strarr_index:0000000000000000 .L0 
C:\Users\stapi\AppData\Local\Temp\ccfXLqzg.s:188    .text.dm_utils_strarr_index:0000000000000000 .L0 
C:\Users\stapi\AppData\Local\Temp\ccfXLqzg.s:189    .text.dm_utils_strarr_index:0000000000000000 .L0 
C:\Users\stapi\AppData\Local\Temp\ccfXLqzg.s:191    .text.dm_utils_strarr_index:0000000000000002 .L0 
C:\Users\stapi\AppData\Local\Temp\ccfXLqzg.s:192    .text.dm_utils_strarr_index:000000000000000a .L0 
C:\Users\stapi\AppData\Local\Temp\ccfXLqzg.s:193    .text.dm_utils_strarr_index:000000000000000a .L0 
C:\Users\stapi\AppData\Local\Temp\ccfXLqzg.s:194    .text.dm_utils_strarr_index:000000000000000a .L0 
C:\Users\stapi\AppData\Local\Temp\ccfXLqzg.s:197    .text.dm_utils_strarr_index:000000000000000c .L0 
C:\Users\stapi\AppData\Local\Temp\ccfXLqzg.s:201    .text.dm_utils_strarr_index:0000000000000010 .L0 
C:\Users\stapi\AppData\Local\Temp\ccfXLqzg.s:202    .text.dm_utils_strarr_index:0000000000000012 .L0 
C:\Users\stapi\AppData\Local\Temp\ccfXLqzg.s:204    .text.dm_utils_strarr_index:0000000000000012 .L0 
C:\Users\stapi\AppData\Local\Temp\ccfXLqzg.s:207    .text.dm_utils_strarr_index:0000000000000014 .L0 
C:\Users\stapi\AppData\Local\Temp\ccfXLqzg.s:209    .text.dm_utils_strarr_index:0000000000000018 .L0 
C:\Users\stapi\AppData\Local\Temp\ccfXLqzg.s:212    .text.dm_utils_strarr_index:000000000000001a .L0 
C:\Users\stapi\AppData\Local\Temp\ccfXLqzg.s:213    .text.dm_utils_strarr_index:000000000000001a .L0 
C:\Users\stapi\AppData\Local\Temp\ccfXLqzg.s:214    .text.dm_utils_strarr_index:000000000000001a .L0 
C:\Users\stapi\AppData\Local\Temp\ccfXLqzg.s:215    .text.dm_utils_strarr_index:000000000000001a .L0 
C:\Users\stapi\AppData\Local\Temp\ccfXLqzg.s:216    .text.dm_utils_strarr_index:000000000000001a .L0 
C:\Users\stapi\AppData\Local\Temp\ccfXLqzg.s:217    .text.dm_utils_strarr_index:000000000000001a .L0 
C:\Users\stapi\AppData\Local\Temp\ccfXLqzg.s:222    .text.dm_utils_strarr_index:0000000000000026 .L0 
C:\Users\stapi\AppData\Local\Temp\ccfXLqzg.s:223    .text.dm_utils_strarr_index:0000000000000026 .L0 
C:\Users\stapi\AppData\Local\Temp\ccfXLqzg.s:226    .text.dm_utils_strarr_index:000000000000002c .L0 
C:\Users\stapi\AppData\Local\Temp\ccfXLqzg.s:228    .text.dm_utils_strarr_index:000000000000002e .L0 
C:\Users\stapi\AppData\Local\Temp\ccfXLqzg.s:230    .text.dm_utils_strarr_index:0000000000000030 .L0 
C:\Users\stapi\AppData\Local\Temp\ccfXLqzg.s:232    .text.dm_utils_strarr_index:0000000000000032 .L0 
C:\Users\stapi\AppData\Local\Temp\ccfXLqzg.s:234    .text.dm_utils_strarr_index:0000000000000036 .L0 
C:\Users\stapi\AppData\Local\Temp\ccfXLqzg.s:236    .text.dm_utils_strarr_index:0000000000000038 .L0 
C:\Users\stapi\AppData\Local\Temp\ccfXLqzg.s:240    .text.dm_utils_strarr_index:000000000000003c .L0 
C:\Users\stapi\AppData\Local\Temp\ccfXLqzg.s:241    .text.dm_utils_strarr_index:000000000000003c .L0 
C:\Users\stapi\AppData\Local\Temp\ccfXLqzg.s:243    .text.dm_utils_strarr_index:0000000000000040 .L0 
C:\Users\stapi\AppData\Local\Temp\ccfXLqzg.s:248    .text.dm_utils_strarr_index:0000000000000048 .L0 
C:\Users\stapi\AppData\Local\Temp\ccfXLqzg.s:249    .text.dm_utils_strarr_index:0000000000000048 .L0 
C:\Users\stapi\AppData\Local\Temp\ccfXLqzg.s:250    .text.dm_utils_strarr_index:0000000000000048 .L0 
C:\Users\stapi\AppData\Local\Temp\ccfXLqzg.s:254    .text.dm_utils_strarr_index:000000000000004e .L0 
C:\Users\stapi\AppData\Local\Temp\ccfXLqzg.s:255    .text.dm_utils_strarr_index:000000000000004e .L0 
C:\Users\stapi\AppData\Local\Temp\ccfXLqzg.s:257    .text.dm_utils_strarr_index:0000000000000052 .L0 
C:\Users\stapi\AppData\Local\Temp\ccfXLqzg.s:259    .text.dm_utils_strarr_index:0000000000000054 .L0 
C:\Users\stapi\AppData\Local\Temp\ccfXLqzg.s:262    .text.dm_utils_strarr_index:0000000000000058 .L0 
C:\Users\stapi\AppData\Local\Temp\ccfXLqzg.s:264    .text.dm_utils_strarr_index:000000000000005a .L0 
C:\Users\stapi\AppData\Local\Temp\ccfXLqzg.s:266    .text.dm_utils_strarr_index:000000000000005e .L0 
C:\Users\stapi\AppData\Local\Temp\ccfXLqzg.s:267    .text.dm_utils_strarr_index:000000000000005e .L0 
C:\Users\stapi\AppData\Local\Temp\ccfXLqzg.s:269    .text.dm_utils_strarr_index:0000000000000060 .L0 
C:\Users\stapi\AppData\Local\Temp\ccfXLqzg.s:270    .text.dm_utils_strarr_index:0000000000000060 .L0 
C:\Users\stapi\AppData\Local\Temp\ccfXLqzg.s:273    .text.dm_utils_strarr_index:0000000000000064 .L0 
C:\Users\stapi\AppData\Local\Temp\ccfXLqzg.s:276    .text.dm_utils_strarr_index:0000000000000066 .L0 
C:\Users\stapi\AppData\Local\Temp\ccfXLqzg.s:277    .text.dm_utils_strarr_index:0000000000000066 .L0 
C:\Users\stapi\AppData\Local\Temp\ccfXLqzg.s:279    .text.dm_utils_strarr_index:0000000000000068 .L0 
C:\Users\stapi\AppData\Local\Temp\ccfXLqzg.s:280    .text.dm_utils_strarr_index:0000000000000068 .L0 
C:\Users\stapi\AppData\Local\Temp\ccfXLqzg.s:283    .text.dm_utils_strarr_index:000000000000006a .L0 
C:\Users\stapi\AppData\Local\Temp\ccfXLqzg.s:284    .text.dm_utils_strarr_index:000000000000006a .L0 
C:\Users\stapi\AppData\Local\Temp\ccfXLqzg.s:287    .text.dm_utils_strarr_index:000000000000006e .L0 
C:\Users\stapi\AppData\Local\Temp\ccfXLqzg.s:290    .text.dm_utils_strarr_index:0000000000000074 .L0 
C:\Users\stapi\AppData\Local\Temp\ccfXLqzg.s:298    .text.dm_utils_strarr_index:0000000000000084 .L0 
C:\Users\stapi\AppData\Local\Temp\ccfXLqzg.s:299    .text.dm_utils_strarr_index:0000000000000084 .L0 
C:\Users\stapi\AppData\Local\Temp\ccfXLqzg.s:303    .text.dm_utils_strarr_index:000000000000008e .L0 
C:\Users\stapi\AppData\Local\Temp\ccfXLqzg.s:305    .text.dm_utils_strarr_index:0000000000000090 .L0 
C:\Users\stapi\AppData\Local\Temp\ccfXLqzg.s:306    .text.dm_utils_strarr_index:0000000000000090 .L0 
C:\Users\stapi\AppData\Local\Temp\ccfXLqzg.s:311    .text.dm_utils_strarr_index:0000000000000094 .L0 
C:\Users\stapi\AppData\Local\Temp\ccfXLqzg.s:312    .text.dm_utils_strarr_index:0000000000000094 .L0 
C:\Users\stapi\AppData\Local\Temp\ccfXLqzg.s:316    .text.dm_utils_strarr_index:0000000000000096 .L0 
C:\Users\stapi\AppData\Local\Temp\ccfXLqzg.s:320    .text.dm_utils_strarr_index:0000000000000098 .L0 
C:\Users\stapi\AppData\Local\Temp\ccfXLqzg.s:321    .text.dm_utils_strarr_index:000000000000009a .L0 
C:\Users\stapi\AppData\Local\Temp\ccfXLqzg.s:322    .text.dm_utils_strarr_index:000000000000009a .L0 
C:\Users\stapi\AppData\Local\Temp\ccfXLqzg.s:324    .text.dm_utils_strarr_index:00000000000000a2 .L0 
C:\Users\stapi\AppData\Local\Temp\ccfXLqzg.s:325    .text.dm_utils_strarr_index:00000000000000a2 .L0 
C:\Users\stapi\AppData\Local\Temp\ccfXLqzg.s:326    .text.dm_utils_strarr_index:00000000000000a2 .L0 
C:\Users\stapi\AppData\Local\Temp\ccfXLqzg.s:329    .text.dm_utils_strarr_index:00000000000000a2 .L0 
C:\Users\stapi\AppData\Local\Temp\ccfXLqzg.s:331    .text.dm_utils_strarr_index:00000000000000a2 .L0 
C:\Users\stapi\AppData\Local\Temp\ccfXLqzg.s:332    .text.dm_utils_strarr_index:00000000000000a2 .L0 
C:\Users\stapi\AppData\Local\Temp\ccfXLqzg.s:333    .text.dm_utils_strarr_index:00000000000000a2 .L0 
C:\Users\stapi\AppData\Local\Temp\ccfXLqzg.s:335    .text.dm_utils_strarr_index:00000000000000a4 .L0 
C:\Users\stapi\AppData\Local\Temp\ccfXLqzg.s:342    .text.dm_utils_strarr_index:00000000000000ac .L0 
C:\Users\stapi\AppData\Local\Temp\ccfXLqzg.s:343    .text.dm_utils_strarr_index:00000000000000ac .L0 
C:\Users\stapi\AppData\Local\Temp\ccfXLqzg.s:346    .text.dm_utils_strarr_index:00000000000000b0 .L0 
C:\Users\stapi\AppData\Local\Temp\ccfXLqzg.s:347    .text.dm_utils_strarr_index:00000000000000b0 .L0 
C:\Users\stapi\AppData\Local\Temp\ccfXLqzg.s:348    .text.dm_utils_strarr_index:00000000000000b0 .L0 
C:\Users\stapi\AppData\Local\Temp\ccfXLqzg.s:351    .text.dm_utils_strarr_index:00000000000000b8 .L0 
C:\Users\stapi\AppData\Local\Temp\ccfXLqzg.s:352    .text.dm_utils_strarr_index:00000000000000b8 .L0 
C:\Users\stapi\AppData\Local\Temp\ccfXLqzg.s:354    .text.dm_utils_strarr_index:00000000000000ba .L0 
C:\Users\stapi\AppData\Local\Temp\ccfXLqzg.s:360    .text.dm_utils_strarr_index:00000000000000c0 .L0 
C:\Users\stapi\AppData\Local\Temp\ccfXLqzg.s:361    .text.dm_utils_strarr_index:00000000000000c0 .L0 
C:\Users\stapi\AppData\Local\Temp\ccfXLqzg.s:362    .text.dm_utils_strarr_index:00000000000000c0 .L0 
C:\Users\stapi\AppData\Local\Temp\ccfXLqzg.s:364    .text.dm_utils_strarr_index:00000000000000c0 .L0 
C:\Users\stapi\AppData\Local\Temp\ccfXLqzg.s:367    .text.dm_utils_strarr_index:00000000000000c2 .L0 
C:\Users\stapi\AppData\Local\Temp\ccfXLqzg.s:368    .text.dm_utils_strarr_index:00000000000000c4 .L0 
C:\Users\stapi\AppData\Local\Temp\ccfXLqzg.s:379    .text.dm_utils_itoa_direct:0000000000000000 dm_utils_itoa_direct
C:\Users\stapi\AppData\Local\Temp\ccfXLqzg.s:382    .text.dm_utils_itoa_direct:0000000000000000 .L0 
C:\Users\stapi\AppData\Local\Temp\ccfXLqzg.s:384    .text.dm_utils_itoa_direct:0000000000000000 .L0 
C:\Users\stapi\AppData\Local\Temp\ccfXLqzg.s:385    .text.dm_utils_itoa_direct:0000000000000008 .L0 
C:\Users\stapi\AppData\Local\Temp\ccfXLqzg.s:386    .text.dm_utils_itoa_direct:0000000000000008 .L0 
C:\Users\stapi\AppData\Local\Temp\ccfXLqzg.s:387    .text.dm_utils_itoa_direct:0000000000000008 .L0 
C:\Users\stapi\AppData\Local\Temp\ccfXLqzg.s:388    .text.dm_utils_itoa_direct:0000000000000008 .L0 
C:\Users\stapi\AppData\Local\Temp\ccfXLqzg.s:391    .text.dm_utils_itoa_direct:0000000000000008 .L0 
C:\Users\stapi\AppData\Local\Temp\ccfXLqzg.s:392    .text.dm_utils_itoa_direct:0000000000000008 .L0 
C:\Users\stapi\AppData\Local\Temp\ccfXLqzg.s:393    .text.dm_utils_itoa_direct:0000000000000008 .L0 
C:\Users\stapi\AppData\Local\Temp\ccfXLqzg.s:394    .text.dm_utils_itoa_direct:000000000000000a .L0 
C:\Users\stapi\AppData\Local\Temp\ccfXLqzg.s:396    .text.dm_utils_itoa_direct:000000000000000a .L0 
C:\Users\stapi\AppData\Local\Temp\ccfXLqzg.s:401    .text.dm_utils_itoa_direct:0000000000000016 .L0 
C:\Users\stapi\AppData\Local\Temp\ccfXLqzg.s:402    .text.dm_utils_itoa_direct:0000000000000016 .L0 
C:\Users\stapi\AppData\Local\Temp\ccfXLqzg.s:404    .text.dm_utils_itoa_direct:0000000000000018 .L0 
C:\Users\stapi\AppData\Local\Temp\ccfXLqzg.s:406    .text.dm_utils_itoa_direct:000000000000001a .L0 
C:\Users\stapi\AppData\Local\Temp\ccfXLqzg.s:409    .text.dm_utils_itoa_direct:000000000000001e .L0 
C:\Users\stapi\AppData\Local\Temp\ccfXLqzg.s:411    .text.dm_utils_itoa_direct:0000000000000020 .L0 
C:\Users\stapi\AppData\Local\Temp\ccfXLqzg.s:413    .text.dm_utils_itoa_direct:0000000000000022 .L0 
C:\Users\stapi\AppData\Local\Temp\ccfXLqzg.s:416    .text.dm_utils_itoa_direct:0000000000000028 .L0 
C:\Users\stapi\AppData\Local\Temp\ccfXLqzg.s:417    .text.dm_utils_itoa_direct:0000000000000028 .L0 
C:\Users\stapi\AppData\Local\Temp\ccfXLqzg.s:425    .text.dm_utils_itoa_direct:0000000000000038 .L0 
C:\Users\stapi\AppData\Local\Temp\ccfXLqzg.s:426    .text.dm_utils_itoa_direct:0000000000000038 .L0 
C:\Users\stapi\AppData\Local\Temp\ccfXLqzg.s:428    .text.dm_utils_itoa_direct:000000000000003a .L0 
C:\Users\stapi\AppData\Local\Temp\ccfXLqzg.s:430    .text.dm_utils_itoa_direct:000000000000003e .L0 
C:\Users\stapi\AppData\Local\Temp\ccfXLqzg.s:431    .text.dm_utils_itoa_direct:000000000000003e .L0 
C:\Users\stapi\AppData\Local\Temp\ccfXLqzg.s:436    .text.dm_utils_itoa_direct:0000000000000048 .L0 
C:\Users\stapi\AppData\Local\Temp\ccfXLqzg.s:440    .text.dm_utils_itoa_direct:0000000000000052 .L0 
C:\Users\stapi\AppData\Local\Temp\ccfXLqzg.s:442    .text.dm_utils_itoa_direct:0000000000000054 .L0 
C:\Users\stapi\AppData\Local\Temp\ccfXLqzg.s:443    .text.dm_utils_itoa_direct:0000000000000054 .L0 
C:\Users\stapi\AppData\Local\Temp\ccfXLqzg.s:445    .text.dm_utils_itoa_direct:0000000000000056 .L0 
C:\Users\stapi\AppData\Local\Temp\ccfXLqzg.s:447    .text.dm_utils_itoa_direct:0000000000000058 .L0 
C:\Users\stapi\AppData\Local\Temp\ccfXLqzg.s:449    .text.dm_utils_itoa_direct:000000000000005a .L0 
C:\Users\stapi\AppData\Local\Temp\ccfXLqzg.s:450    .text.dm_utils_itoa_direct:000000000000005a .L0 
C:\Users\stapi\AppData\Local\Temp\ccfXLqzg.s:454    .text.dm_utils_itoa_direct:0000000000000064 .L0 
C:\Users\stapi\AppData\Local\Temp\ccfXLqzg.s:460    .text.dm_utils_itoa_direct:0000000000000074 .L0 
C:\Users\stapi\AppData\Local\Temp\ccfXLqzg.s:469    .text.dm_utils_itoa_direct:000000000000008c .L0 
C:\Users\stapi\AppData\Local\Temp\ccfXLqzg.s:470    .text.dm_utils_itoa_direct:000000000000008c .L0 
C:\Users\stapi\AppData\Local\Temp\ccfXLqzg.s:474    .text.dm_utils_itoa_direct:000000000000008e .L0 
C:\Users\stapi\AppData\Local\Temp\ccfXLqzg.s:476    .text.dm_utils_itoa_direct:0000000000000092 .L0 
C:\Users\stapi\AppData\Local\Temp\ccfXLqzg.s:478    .text.dm_utils_itoa_direct:000000000000009a .L0 
C:\Users\stapi\AppData\Local\Temp\ccfXLqzg.s:479    .text.dm_utils_itoa_direct:000000000000009a .L0 
C:\Users\stapi\AppData\Local\Temp\ccfXLqzg.s:480    .text.dm_utils_itoa_direct:000000000000009a .L0 
C:\Users\stapi\AppData\Local\Temp\ccfXLqzg.s:481    .text.dm_utils_itoa_direct:000000000000009a .L0 
C:\Users\stapi\AppData\Local\Temp\ccfXLqzg.s:482    .text.dm_utils_itoa_direct:000000000000009a .L0 
C:\Users\stapi\AppData\Local\Temp\ccfXLqzg.s:489    .text.dm_utils_itoa:0000000000000000 dm_utils_itoa
C:\Users\stapi\AppData\Local\Temp\ccfXLqzg.s:492    .text.dm_utils_itoa:0000000000000000 .L0 
C:\Users\stapi\AppData\Local\Temp\ccfXLqzg.s:494    .text.dm_utils_itoa:0000000000000000 .L0 
C:\Users\stapi\AppData\Local\Temp\ccfXLqzg.s:495    .text.dm_utils_itoa:0000000000000008 .L0 
C:\Users\stapi\AppData\Local\Temp\ccfXLqzg.s:496    .text.dm_utils_itoa:0000000000000008 .L0 
C:\Users\stapi\AppData\Local\Temp\ccfXLqzg.s:497    .text.dm_utils_itoa:0000000000000008 .L0 
C:\Users\stapi\AppData\Local\Temp\ccfXLqzg.s:498    .text.dm_utils_itoa:0000000000000008 .L0 
C:\Users\stapi\AppData\Local\Temp\ccfXLqzg.s:501    .text.dm_utils_itoa:0000000000000008 .L0 
C:\Users\stapi\AppData\Local\Temp\ccfXLqzg.s:502    .text.dm_utils_itoa:0000000000000008 .L0 
C:\Users\stapi\AppData\Local\Temp\ccfXLqzg.s:503    .text.dm_utils_itoa:0000000000000008 .L0 
C:\Users\stapi\AppData\Local\Temp\ccfXLqzg.s:504    .text.dm_utils_itoa:000000000000000a .L0 
C:\Users\stapi\AppData\Local\Temp\ccfXLqzg.s:506    .text.dm_utils_itoa:000000000000000a .L0 
C:\Users\stapi\AppData\Local\Temp\ccfXLqzg.s:511    .text.dm_utils_itoa:0000000000000016 .L0 
C:\Users\stapi\AppData\Local\Temp\ccfXLqzg.s:512    .text.dm_utils_itoa:0000000000000016 .L0 
C:\Users\stapi\AppData\Local\Temp\ccfXLqzg.s:514    .text.dm_utils_itoa:0000000000000018 .L0 
C:\Users\stapi\AppData\Local\Temp\ccfXLqzg.s:516    .text.dm_utils_itoa:000000000000001a .L0 
C:\Users\stapi\AppData\Local\Temp\ccfXLqzg.s:519    .text.dm_utils_itoa:000000000000001e .L0 
C:\Users\stapi\AppData\Local\Temp\ccfXLqzg.s:521    .text.dm_utils_itoa:0000000000000020 .L0 
C:\Users\stapi\AppData\Local\Temp\ccfXLqzg.s:523    .text.dm_utils_itoa:0000000000000022 .L0 
C:\Users\stapi\AppData\Local\Temp\ccfXLqzg.s:526    .text.dm_utils_itoa:0000000000000028 .L0 
C:\Users\stapi\AppData\Local\Temp\ccfXLqzg.s:527    .text.dm_utils_itoa:0000000000000028 .L0 
C:\Users\stapi\AppData\Local\Temp\ccfXLqzg.s:535    .text.dm_utils_itoa:0000000000000038 .L0 
C:\Users\stapi\AppData\Local\Temp\ccfXLqzg.s:536    .text.dm_utils_itoa:0000000000000038 .L0 
C:\Users\stapi\AppData\Local\Temp\ccfXLqzg.s:538    .text.dm_utils_itoa:000000000000003a .L0 
C:\Users\stapi\AppData\Local\Temp\ccfXLqzg.s:540    .text.dm_utils_itoa:000000000000003e .L0 
C:\Users\stapi\AppData\Local\Temp\ccfXLqzg.s:541    .text.dm_utils_itoa:000000000000003e .L0 
C:\Users\stapi\AppData\Local\Temp\ccfXLqzg.s:551    .text.dm_utils_itoa:0000000000000058 .L0 
C:\Users\stapi\AppData\Local\Temp\ccfXLqzg.s:553    .text.dm_utils_itoa:000000000000005a .L0 
C:\Users\stapi\AppData\Local\Temp\ccfXLqzg.s:554    .text.dm_utils_itoa:000000000000005a .L0 
C:\Users\stapi\AppData\Local\Temp\ccfXLqzg.s:556    .text.dm_utils_itoa:000000000000005c .L0 
C:\Users\stapi\AppData\Local\Temp\ccfXLqzg.s:558    .text.dm_utils_itoa:000000000000005e .L0 
C:\Users\stapi\AppData\Local\Temp\ccfXLqzg.s:560    .text.dm_utils_itoa:0000000000000060 .L0 
C:\Users\stapi\AppData\Local\Temp\ccfXLqzg.s:561    .text.dm_utils_itoa:0000000000000060 .L0 
C:\Users\stapi\AppData\Local\Temp\ccfXLqzg.s:565    .text.dm_utils_itoa:000000000000006a .L0 
C:\Users\stapi\AppData\Local\Temp\ccfXLqzg.s:571    .text.dm_utils_itoa:000000000000007a .L0 
C:\Users\stapi\AppData\Local\Temp\ccfXLqzg.s:580    .text.dm_utils_itoa:0000000000000092 .L0 
C:\Users\stapi\AppData\Local\Temp\ccfXLqzg.s:581    .text.dm_utils_itoa:0000000000000092 .L0 
C:\Users\stapi\AppData\Local\Temp\ccfXLqzg.s:585    .text.dm_utils_itoa:0000000000000094 .L0 
C:\Users\stapi\AppData\Local\Temp\ccfXLqzg.s:587    .text.dm_utils_itoa:0000000000000098 .L0 
C:\Users\stapi\AppData\Local\Temp\ccfXLqzg.s:589    .text.dm_utils_itoa:00000000000000a0 .L0 
C:\Users\stapi\AppData\Local\Temp\ccfXLqzg.s:590    .text.dm_utils_itoa:00000000000000a0 .L0 
C:\Users\stapi\AppData\Local\Temp\ccfXLqzg.s:591    .text.dm_utils_itoa:00000000000000a0 .L0 
C:\Users\stapi\AppData\Local\Temp\ccfXLqzg.s:592    .text.dm_utils_itoa:00000000000000a0 .L0 
C:\Users\stapi\AppData\Local\Temp\ccfXLqzg.s:593    .text.dm_utils_itoa:00000000000000a0 .L0 
C:\Users\stapi\AppData\Local\Temp\ccfXLqzg.s:604    .text.dm_utils_ftoa_direct:0000000000000000 dm_utils_ftoa_direct
C:\Users\stapi\AppData\Local\Temp\ccfXLqzg.s:607    .text.dm_utils_ftoa_direct:0000000000000000 .L0 
C:\Users\stapi\AppData\Local\Temp\ccfXLqzg.s:609    .text.dm_utils_ftoa_direct:0000000000000000 .L0 
C:\Users\stapi\AppData\Local\Temp\ccfXLqzg.s:610    .text.dm_utils_ftoa_direct:0000000000000008 .L0 
C:\Users\stapi\AppData\Local\Temp\ccfXLqzg.s:611    .text.dm_utils_ftoa_direct:0000000000000008 .L0 
C:\Users\stapi\AppData\Local\Temp\ccfXLqzg.s:612    .text.dm_utils_ftoa_direct:0000000000000008 .L0 
C:\Users\stapi\AppData\Local\Temp\ccfXLqzg.s:613    .text.dm_utils_ftoa_direct:0000000000000008 .L0 
C:\Users\stapi\AppData\Local\Temp\ccfXLqzg.s:614    .text.dm_utils_ftoa_direct:0000000000000008 .L0 
C:\Users\stapi\AppData\Local\Temp\ccfXLqzg.s:617    .text.dm_utils_ftoa_direct:0000000000000008 .L0 
C:\Users\stapi\AppData\Local\Temp\ccfXLqzg.s:618    .text.dm_utils_ftoa_direct:0000000000000008 .L0 
C:\Users\stapi\AppData\Local\Temp\ccfXLqzg.s:619    .text.dm_utils_ftoa_direct:0000000000000008 .L0 
C:\Users\stapi\AppData\Local\Temp\ccfXLqzg.s:620    .text.dm_utils_ftoa_direct:000000000000000a .L0 
C:\Users\stapi\AppData\Local\Temp\ccfXLqzg.s:622    .text.dm_utils_ftoa_direct:000000000000000a .L0 
C:\Users\stapi\AppData\Local\Temp\ccfXLqzg.s:626    .text.dm_utils_ftoa_direct:0000000000000010 .L0 
C:\Users\stapi\AppData\Local\Temp\ccfXLqzg.s:635    .text.dm_utils_ftoa_direct:0000000000000020 .L0 
C:\Users\stapi\AppData\Local\Temp\ccfXLqzg.s:636    .text.dm_utils_ftoa_direct:0000000000000020 .L0 
C:\Users\stapi\AppData\Local\Temp\ccfXLqzg.s:638    .text.dm_utils_ftoa_direct:0000000000000022 .L0 
C:\Users\stapi\AppData\Local\Temp\ccfXLqzg.s:640    .text.dm_utils_ftoa_direct:0000000000000024 .L0 
C:\Users\stapi\AppData\Local\Temp\ccfXLqzg.s:642    .text.dm_utils_ftoa_direct:0000000000000026 .L0 
C:\Users\stapi\AppData\Local\Temp\ccfXLqzg.s:644    .text.dm_utils_ftoa_direct:0000000000000028 .L0 
C:\Users\stapi\AppData\Local\Temp\ccfXLqzg.s:646    .text.dm_utils_ftoa_direct:000000000000002a .L0 
C:\Users\stapi\AppData\Local\Temp\ccfXLqzg.s:647    .text.dm_utils_ftoa_direct:000000000000002a .L0 
C:\Users\stapi\AppData\Local\Temp\ccfXLqzg.s:656    .text.dm_utils_ftoa_direct:0000000000000042 .L0 
C:\Users\stapi\AppData\Local\Temp\ccfXLqzg.s:657    .text.dm_utils_ftoa_direct:0000000000000042 .L0 
C:\Users\stapi\AppData\Local\Temp\ccfXLqzg.s:659    .text.dm_utils_ftoa_direct:0000000000000044 .L0 
C:\Users\stapi\AppData\Local\Temp\ccfXLqzg.s:661    .text.dm_utils_ftoa_direct:0000000000000048 .L0 
C:\Users\stapi\AppData\Local\Temp\ccfXLqzg.s:662    .text.dm_utils_ftoa_direct:0000000000000048 .L0 
C:\Users\stapi\AppData\Local\Temp\ccfXLqzg.s:667    .text.dm_utils_ftoa_direct:0000000000000052 .L0 
C:\Users\stapi\AppData\Local\Temp\ccfXLqzg.s:671    .text.dm_utils_ftoa_direct:000000000000005c .L0 
C:\Users\stapi\AppData\Local\Temp\ccfXLqzg.s:673    .text.dm_utils_ftoa_direct:000000000000005e .L0 
C:\Users\stapi\AppData\Local\Temp\ccfXLqzg.s:674    .text.dm_utils_ftoa_direct:000000000000005e .L0 
C:\Users\stapi\AppData\Local\Temp\ccfXLqzg.s:676    .text.dm_utils_ftoa_direct:0000000000000060 .L0 
C:\Users\stapi\AppData\Local\Temp\ccfXLqzg.s:678    .text.dm_utils_ftoa_direct:0000000000000062 .L0 
C:\Users\stapi\AppData\Local\Temp\ccfXLqzg.s:680    .text.dm_utils_ftoa_direct:0000000000000064 .L0 
C:\Users\stapi\AppData\Local\Temp\ccfXLqzg.s:681    .text.dm_utils_ftoa_direct:0000000000000064 .L0 
C:\Users\stapi\AppData\Local\Temp\ccfXLqzg.s:685    .text.dm_utils_ftoa_direct:000000000000006e .L0 
C:\Users\stapi\AppData\Local\Temp\ccfXLqzg.s:691    .text.dm_utils_ftoa_direct:000000000000007e .L0 
C:\Users\stapi\AppData\Local\Temp\ccfXLqzg.s:700    .text.dm_utils_ftoa_direct:0000000000000096 .L0 
C:\Users\stapi\AppData\Local\Temp\ccfXLqzg.s:701    .text.dm_utils_ftoa_direct:0000000000000096 .L0 
C:\Users\stapi\AppData\Local\Temp\ccfXLqzg.s:704    .text.dm_utils_ftoa_direct:0000000000000098 .L0 
C:\Users\stapi\AppData\Local\Temp\ccfXLqzg.s:706    .text.dm_utils_ftoa_direct:000000000000009c .L0 
C:\Users\stapi\AppData\Local\Temp\ccfXLqzg.s:708    .text.dm_utils_ftoa_direct:00000000000000a4 .L0 
C:\Users\stapi\AppData\Local\Temp\ccfXLqzg.s:709    .text.dm_utils_ftoa_direct:00000000000000a4 .L0 
C:\Users\stapi\AppData\Local\Temp\ccfXLqzg.s:710    .text.dm_utils_ftoa_direct:00000000000000a4 .L0 
C:\Users\stapi\AppData\Local\Temp\ccfXLqzg.s:711    .text.dm_utils_ftoa_direct:00000000000000a4 .L0 
C:\Users\stapi\AppData\Local\Temp\ccfXLqzg.s:712    .text.dm_utils_ftoa_direct:00000000000000a4 .L0 
C:\Users\stapi\AppData\Local\Temp\ccfXLqzg.s:713    .text.dm_utils_ftoa_direct:00000000000000a4 .L0 
C:\Users\stapi\AppData\Local\Temp\ccfXLqzg.s:720    .text.dm_utils_ftoa:0000000000000000 dm_utils_ftoa
C:\Users\stapi\AppData\Local\Temp\ccfXLqzg.s:723    .text.dm_utils_ftoa:0000000000000000 .L0 
C:\Users\stapi\AppData\Local\Temp\ccfXLqzg.s:725    .text.dm_utils_ftoa:0000000000000000 .L0 
C:\Users\stapi\AppData\Local\Temp\ccfXLqzg.s:726    .text.dm_utils_ftoa:0000000000000008 .L0 
C:\Users\stapi\AppData\Local\Temp\ccfXLqzg.s:727    .text.dm_utils_ftoa:0000000000000008 .L0 
C:\Users\stapi\AppData\Local\Temp\ccfXLqzg.s:728    .text.dm_utils_ftoa:0000000000000008 .L0 
C:\Users\stapi\AppData\Local\Temp\ccfXLqzg.s:729    .text.dm_utils_ftoa:0000000000000008 .L0 
C:\Users\stapi\AppData\Local\Temp\ccfXLqzg.s:730    .text.dm_utils_ftoa:0000000000000008 .L0 
C:\Users\stapi\AppData\Local\Temp\ccfXLqzg.s:733    .text.dm_utils_ftoa:0000000000000008 .L0 
C:\Users\stapi\AppData\Local\Temp\ccfXLqzg.s:734    .text.dm_utils_ftoa:0000000000000008 .L0 
C:\Users\stapi\AppData\Local\Temp\ccfXLqzg.s:735    .text.dm_utils_ftoa:0000000000000008 .L0 
C:\Users\stapi\AppData\Local\Temp\ccfXLqzg.s:736    .text.dm_utils_ftoa:000000000000000a .L0 
C:\Users\stapi\AppData\Local\Temp\ccfXLqzg.s:738    .text.dm_utils_ftoa:000000000000000a .L0 
C:\Users\stapi\AppData\Local\Temp\ccfXLqzg.s:742    .text.dm_utils_ftoa:0000000000000010 .L0 
C:\Users\stapi\AppData\Local\Temp\ccfXLqzg.s:751    .text.dm_utils_ftoa:0000000000000020 .L0 
C:\Users\stapi\AppData\Local\Temp\ccfXLqzg.s:752    .text.dm_utils_ftoa:0000000000000020 .L0 
C:\Users\stapi\AppData\Local\Temp\ccfXLqzg.s:754    .text.dm_utils_ftoa:0000000000000022 .L0 
C:\Users\stapi\AppData\Local\Temp\ccfXLqzg.s:756    .text.dm_utils_ftoa:0000000000000024 .L0 
C:\Users\stapi\AppData\Local\Temp\ccfXLqzg.s:758    .text.dm_utils_ftoa:0000000000000026 .L0 
C:\Users\stapi\AppData\Local\Temp\ccfXLqzg.s:760    .text.dm_utils_ftoa:0000000000000028 .L0 
C:\Users\stapi\AppData\Local\Temp\ccfXLqzg.s:762    .text.dm_utils_ftoa:000000000000002a .L0 
C:\Users\stapi\AppData\Local\Temp\ccfXLqzg.s:763    .text.dm_utils_ftoa:000000000000002a .L0 
C:\Users\stapi\AppData\Local\Temp\ccfXLqzg.s:772    .text.dm_utils_ftoa:0000000000000042 .L0 
C:\Users\stapi\AppData\Local\Temp\ccfXLqzg.s:773    .text.dm_utils_ftoa:0000000000000042 .L0 
C:\Users\stapi\AppData\Local\Temp\ccfXLqzg.s:775    .text.dm_utils_ftoa:0000000000000044 .L0 
C:\Users\stapi\AppData\Local\Temp\ccfXLqzg.s:777    .text.dm_utils_ftoa:0000000000000048 .L0 
C:\Users\stapi\AppData\Local\Temp\ccfXLqzg.s:778    .text.dm_utils_ftoa:0000000000000048 .L0 
C:\Users\stapi\AppData\Local\Temp\ccfXLqzg.s:788    .text.dm_utils_ftoa:0000000000000062 .L0 
C:\Users\stapi\AppData\Local\Temp\ccfXLqzg.s:790    .text.dm_utils_ftoa:0000000000000064 .L0 
C:\Users\stapi\AppData\Local\Temp\ccfXLqzg.s:791    .text.dm_utils_ftoa:0000000000000064 .L0 
C:\Users\stapi\AppData\Local\Temp\ccfXLqzg.s:793    .text.dm_utils_ftoa:0000000000000066 .L0 
C:\Users\stapi\AppData\Local\Temp\ccfXLqzg.s:795    .text.dm_utils_ftoa:0000000000000068 .L0 
C:\Users\stapi\AppData\Local\Temp\ccfXLqzg.s:797    .text.dm_utils_ftoa:000000000000006a .L0 
C:\Users\stapi\AppData\Local\Temp\ccfXLqzg.s:798    .text.dm_utils_ftoa:000000000000006a .L0 
C:\Users\stapi\AppData\Local\Temp\ccfXLqzg.s:802    .text.dm_utils_ftoa:0000000000000074 .L0 
C:\Users\stapi\AppData\Local\Temp\ccfXLqzg.s:808    .text.dm_utils_ftoa:0000000000000084 .L0 
C:\Users\stapi\AppData\Local\Temp\ccfXLqzg.s:817    .text.dm_utils_ftoa:000000000000009c .L0 
C:\Users\stapi\AppData\Local\Temp\ccfXLqzg.s:818    .text.dm_utils_ftoa:000000000000009c .L0 
C:\Users\stapi\AppData\Local\Temp\ccfXLqzg.s:821    .text.dm_utils_ftoa:000000000000009e .L0 
C:\Users\stapi\AppData\Local\Temp\ccfXLqzg.s:823    .text.dm_utils_ftoa:00000000000000a2 .L0 
C:\Users\stapi\AppData\Local\Temp\ccfXLqzg.s:825    .text.dm_utils_ftoa:00000000000000aa .L0 
C:\Users\stapi\AppData\Local\Temp\ccfXLqzg.s:826    .text.dm_utils_ftoa:00000000000000aa .L0 
C:\Users\stapi\AppData\Local\Temp\ccfXLqzg.s:827    .text.dm_utils_ftoa:00000000000000aa .L0 
C:\Users\stapi\AppData\Local\Temp\ccfXLqzg.s:828    .text.dm_utils_ftoa:00000000000000aa .L0 
C:\Users\stapi\AppData\Local\Temp\ccfXLqzg.s:829    .text.dm_utils_ftoa:00000000000000aa .L0 
C:\Users\stapi\AppData\Local\Temp\ccfXLqzg.s:830    .text.dm_utils_ftoa:00000000000000aa .L0 
C:\Users\stapi\AppData\Local\Temp\ccfXLqzg.s:837    .text.dm_utils_hex_to_str:0000000000000000 dm_utils_hex_to_str
C:\Users\stapi\AppData\Local\Temp\ccfXLqzg.s:840    .text.dm_utils_hex_to_str:0000000000000000 .L0 
C:\Users\stapi\AppData\Local\Temp\ccfXLqzg.s:842    .text.dm_utils_hex_to_str:0000000000000000 .L0 
C:\Users\stapi\AppData\Local\Temp\ccfXLqzg.s:843    .text.dm_utils_hex_to_str:0000000000000000 .L0 
C:\Users\stapi\AppData\Local\Temp\ccfXLqzg.s:844    .text.dm_utils_hex_to_str:0000000000000000 .L0 
C:\Users\stapi\AppData\Local\Temp\ccfXLqzg.s:845    .text.dm_utils_hex_to_str:0000000000000000 .L0 
C:\Users\stapi\AppData\Local\Temp\ccfXLqzg.s:846    .text.dm_utils_hex_to_str:0000000000000000 .L0 
C:\Users\stapi\AppData\Local\Temp\ccfXLqzg.s:848    .text.dm_utils_hex_to_str:0000000000000002 .L0 
C:\Users\stapi\AppData\Local\Temp\ccfXLqzg.s:849    .text.dm_utils_hex_to_str:000000000000000a .L0 
C:\Users\stapi\AppData\Local\Temp\ccfXLqzg.s:850    .text.dm_utils_hex_to_str:000000000000000a .L0 
C:\Users\stapi\AppData\Local\Temp\ccfXLqzg.s:851    .text.dm_utils_hex_to_str:000000000000000a .L0 
C:\Users\stapi\AppData\Local\Temp\ccfXLqzg.s:852    .text.dm_utils_hex_to_str:000000000000000a .L0 
C:\Users\stapi\AppData\Local\Temp\ccfXLqzg.s:853    .text.dm_utils_hex_to_str:000000000000000a .L0 
C:\Users\stapi\AppData\Local\Temp\ccfXLqzg.s:855    .text.dm_utils_hex_to_str:000000000000000c .L0 
C:\Users\stapi\AppData\Local\Temp\ccfXLqzg.s:858    .text.dm_utils_hex_to_str:000000000000000e .L0 
C:\Users\stapi\AppData\Local\Temp\ccfXLqzg.s:860    .text.dm_utils_hex_to_str:0000000000000010 .L0 
C:\Users\stapi\AppData\Local\Temp\ccfXLqzg.s:863    .text.dm_utils_hex_to_str:0000000000000016 .L0 
C:\Users\stapi\AppData\Local\Temp\ccfXLqzg.s:865    .text.dm_utils_hex_to_str:0000000000000018 .L0 
C:\Users\stapi\AppData\Local\Temp\ccfXLqzg.s:868    .text.dm_utils_hex_to_str:000000000000001c .L0 
C:\Users\stapi\AppData\Local\Temp\ccfXLqzg.s:871    .text.dm_utils_hex_to_str:0000000000000020 .L0 
C:\Users\stapi\AppData\Local\Temp\ccfXLqzg.s:875    .text.dm_utils_hex_to_str:0000000000000024 .L0 
C:\Users\stapi\AppData\Local\Temp\ccfXLqzg.s:876    .text.dm_utils_hex_to_str:0000000000000024 .L0 
C:\Users\stapi\AppData\Local\Temp\ccfXLqzg.s:877    .text.dm_utils_hex_to_str:0000000000000024 .L0 
C:\Users\stapi\AppData\Local\Temp\ccfXLqzg.s:885    .text.dm_utils_hex_to_str:0000000000000032 .L0 
C:\Users\stapi\AppData\Local\Temp\ccfXLqzg.s:887    .text.dm_utils_hex_to_str:0000000000000036 .L0 
C:\Users\stapi\AppData\Local\Temp\ccfXLqzg.s:888    .text.dm_utils_hex_to_str:0000000000000036 .L0 
C:\Users\stapi\AppData\Local\Temp\ccfXLqzg.s:890    .text.dm_utils_hex_to_str:0000000000000038 .L0 
C:\Users\stapi\AppData\Local\Temp\ccfXLqzg.s:892    .text.dm_utils_hex_to_str:000000000000003a .L0 
C:\Users\stapi\AppData\Local\Temp\ccfXLqzg.s:899    .text.dm_utils_hex_to_str:0000000000000048 .L0 
C:\Users\stapi\AppData\Local\Temp\ccfXLqzg.s:900    .text.dm_utils_hex_to_str:0000000000000048 .L0 
C:\Users\stapi\AppData\Local\Temp\ccfXLqzg.s:902    .text.dm_utils_hex_to_str:000000000000004a .L0 
C:\Users\stapi\AppData\Local\Temp\ccfXLqzg.s:904    .text.dm_utils_hex_to_str:000000000000004c .L0 
C:\Users\stapi\AppData\Local\Temp\ccfXLqzg.s:908    .text.dm_utils_hex_to_str:000000000000004e .L0 
C:\Users\stapi\AppData\Local\Temp\ccfXLqzg.s:909    .text.dm_utils_hex_to_str:000000000000004e .L0 
C:\Users\stapi\AppData\Local\Temp\ccfXLqzg.s:913    .text.dm_utils_hex_to_str:0000000000000054 .L0 
C:\Users\stapi\AppData\Local\Temp\ccfXLqzg.s:914    .text.dm_utils_hex_to_str:0000000000000054 .L0 
C:\Users\stapi\AppData\Local\Temp\ccfXLqzg.s:916    .text.dm_utils_hex_to_str:0000000000000058 .L0 
C:\Users\stapi\AppData\Local\Temp\ccfXLqzg.s:918    .text.dm_utils_hex_to_str:000000000000005c .L0 
C:\Users\stapi\AppData\Local\Temp\ccfXLqzg.s:919    .text.dm_utils_hex_to_str:000000000000005c .L0 
C:\Users\stapi\AppData\Local\Temp\ccfXLqzg.s:923    .text.dm_utils_hex_to_str:0000000000000060 .L0 
C:\Users\stapi\AppData\Local\Temp\ccfXLqzg.s:924    .text.dm_utils_hex_to_str:0000000000000060 .L0 
C:\Users\stapi\AppData\Local\Temp\ccfXLqzg.s:928    .text.dm_utils_hex_to_str:000000000000006a .L0 
C:\Users\stapi\AppData\Local\Temp\ccfXLqzg.s:929    .text.dm_utils_hex_to_str:000000000000006a .L0 
C:\Users\stapi\AppData\Local\Temp\ccfXLqzg.s:933    .text.dm_utils_hex_to_str:0000000000000070 .L0 
C:\Users\stapi\AppData\Local\Temp\ccfXLqzg.s:934    .text.dm_utils_hex_to_str:0000000000000070 .L0 
C:\Users\stapi\AppData\Local\Temp\ccfXLqzg.s:936    .text.dm_utils_hex_to_str:0000000000000074 .L0 
C:\Users\stapi\AppData\Local\Temp\ccfXLqzg.s:938    .text.dm_utils_hex_to_str:0000000000000078 .L0 
C:\Users\stapi\AppData\Local\Temp\ccfXLqzg.s:939    .text.dm_utils_hex_to_str:0000000000000078 .L0 
C:\Users\stapi\AppData\Local\Temp\ccfXLqzg.s:943    .text.dm_utils_hex_to_str:000000000000007c .L0 
C:\Users\stapi\AppData\Local\Temp\ccfXLqzg.s:944    .text.dm_utils_hex_to_str:000000000000007c .L0 
C:\Users\stapi\AppData\Local\Temp\ccfXLqzg.s:946    .text.dm_utils_hex_to_str:0000000000000080 .L0 
C:\Users\stapi\AppData\Local\Temp\ccfXLqzg.s:949    .text.dm_utils_hex_to_str:0000000000000082 .L0 
C:\Users\stapi\AppData\Local\Temp\ccfXLqzg.s:953    .text.dm_utils_hex_to_str:0000000000000088 .L0 
C:\Users\stapi\AppData\Local\Temp\ccfXLqzg.s:954    .text.dm_utils_hex_to_str:0000000000000088 .L0 
C:\Users\stapi\AppData\Local\Temp\ccfXLqzg.s:955    .text.dm_utils_hex_to_str:0000000000000088 .L0 
C:\Users\stapi\AppData\Local\Temp\ccfXLqzg.s:958    .text.dm_utils_hex_to_str:000000000000008e .L0 
C:\Users\stapi\AppData\Local\Temp\ccfXLqzg.s:962    .text.dm_utils_hex_to_str:0000000000000090 .L0 
C:\Users\stapi\AppData\Local\Temp\ccfXLqzg.s:964    .text.dm_utils_hex_to_str:0000000000000094 .L0 
C:\Users\stapi\AppData\Local\Temp\ccfXLqzg.s:966    .text.dm_utils_hex_to_str:000000000000009c .L0 
C:\Users\stapi\AppData\Local\Temp\ccfXLqzg.s:967    .text.dm_utils_hex_to_str:000000000000009c .L0 
C:\Users\stapi\AppData\Local\Temp\ccfXLqzg.s:968    .text.dm_utils_hex_to_str:000000000000009c .L0 
C:\Users\stapi\AppData\Local\Temp\ccfXLqzg.s:969    .text.dm_utils_hex_to_str:000000000000009c .L0 
C:\Users\stapi\AppData\Local\Temp\ccfXLqzg.s:970    .text.dm_utils_hex_to_str:000000000000009c .L0 
C:\Users\stapi\AppData\Local\Temp\ccfXLqzg.s:973    .text.dm_utils_hex_to_str:000000000000009c .L0 
C:\Users\stapi\AppData\Local\Temp\ccfXLqzg.s:975    .text.dm_utils_hex_to_str:000000000000009c .L0 
C:\Users\stapi\AppData\Local\Temp\ccfXLqzg.s:977    .text.dm_utils_hex_to_str:000000000000009e .L0 
C:\Users\stapi\AppData\Local\Temp\ccfXLqzg.s:980    .text.dm_utils_hex_to_str:00000000000000a2 .L0 
C:\Users\stapi\AppData\Local\Temp\ccfXLqzg.s:987    .text.dm_utils_str_to_hex:0000000000000000 dm_utils_str_to_hex
C:\Users\stapi\AppData\Local\Temp\ccfXLqzg.s:990    .text.dm_utils_str_to_hex:0000000000000000 .L0 
C:\Users\stapi\AppData\Local\Temp\ccfXLqzg.s:992    .text.dm_utils_str_to_hex:0000000000000000 .L0 
C:\Users\stapi\AppData\Local\Temp\ccfXLqzg.s:993    .text.dm_utils_str_to_hex:0000000000000000 .L0 
C:\Users\stapi\AppData\Local\Temp\ccfXLqzg.s:994    .text.dm_utils_str_to_hex:0000000000000000 .L0 
C:\Users\stapi\AppData\Local\Temp\ccfXLqzg.s:995    .text.dm_utils_str_to_hex:0000000000000000 .L0 
C:\Users\stapi\AppData\Local\Temp\ccfXLqzg.s:996    .text.dm_utils_str_to_hex:0000000000000000 .L0 
C:\Users\stapi\AppData\Local\Temp\ccfXLqzg.s:998    .text.dm_utils_str_to_hex:0000000000000002 .L0 
C:\Users\stapi\AppData\Local\Temp\ccfXLqzg.s:999    .text.dm_utils_str_to_hex:000000000000000a .L0 
C:\Users\stapi\AppData\Local\Temp\ccfXLqzg.s:1000   .text.dm_utils_str_to_hex:000000000000000a .L0 
C:\Users\stapi\AppData\Local\Temp\ccfXLqzg.s:1001   .text.dm_utils_str_to_hex:000000000000000a .L0 
C:\Users\stapi\AppData\Local\Temp\ccfXLqzg.s:1002   .text.dm_utils_str_to_hex:000000000000000a .L0 
C:\Users\stapi\AppData\Local\Temp\ccfXLqzg.s:1003   .text.dm_utils_str_to_hex:000000000000000a .L0 
C:\Users\stapi\AppData\Local\Temp\ccfXLqzg.s:1004   .text.dm_utils_str_to_hex:000000000000000a .L0 
C:\Users\stapi\AppData\Local\Temp\ccfXLqzg.s:1007   .text.dm_utils_str_to_hex:000000000000000c .L0 
C:\Users\stapi\AppData\Local\Temp\ccfXLqzg.s:1009   .text.dm_utils_str_to_hex:000000000000000e .L0 
C:\Users\stapi\AppData\Local\Temp\ccfXLqzg.s:1011   .text.dm_utils_str_to_hex:0000000000000012 .L0 
C:\Users\stapi\AppData\Local\Temp\ccfXLqzg.s:1013   .text.dm_utils_str_to_hex:0000000000000016 .L0 
C:\Users\stapi\AppData\Local\Temp\ccfXLqzg.s:1016   .text.dm_utils_str_to_hex:000000000000001a .L0 
C:\Users\stapi\AppData\Local\Temp\ccfXLqzg.s:1018   .text.dm_utils_str_to_hex:000000000000001c .L0 
C:\Users\stapi\AppData\Local\Temp\ccfXLqzg.s:1022   .text.dm_utils_str_to_hex:0000000000000022 .L0 
C:\Users\stapi\AppData\Local\Temp\ccfXLqzg.s:1024   .text.dm_utils_str_to_hex:0000000000000024 .L0 
C:\Users\stapi\AppData\Local\Temp\ccfXLqzg.s:1028   .text.dm_utils_str_to_hex:000000000000002a .L0 
C:\Users\stapi\AppData\Local\Temp\ccfXLqzg.s:1029   .text.dm_utils_str_to_hex:000000000000002a .L0 
C:\Users\stapi\AppData\Local\Temp\ccfXLqzg.s:1031   .text.dm_utils_str_to_hex:000000000000002c .L0 
C:\Users\stapi\AppData\Local\Temp\ccfXLqzg.s:1032   .text.dm_utils_str_to_hex:000000000000002c .L0 
C:\Users\stapi\AppData\Local\Temp\ccfXLqzg.s:1039   .text.dm_utils_str_to_hex:0000000000000038 .L0 
C:\Users\stapi\AppData\Local\Temp\ccfXLqzg.s:1041   .text.dm_utils_str_to_hex:000000000000003a .L0 
C:\Users\stapi\AppData\Local\Temp\ccfXLqzg.s:1042   .text.dm_utils_str_to_hex:000000000000003a .L0 
C:\Users\stapi\AppData\Local\Temp\ccfXLqzg.s:1044   .text.dm_utils_str_to_hex:000000000000003c .L0 
C:\Users\stapi\AppData\Local\Temp\ccfXLqzg.s:1046   .text.dm_utils_str_to_hex:000000000000003e .L0 
C:\Users\stapi\AppData\Local\Temp\ccfXLqzg.s:1051   .text.dm_utils_str_to_hex:000000000000004c .L0 
C:\Users\stapi\AppData\Local\Temp\ccfXLqzg.s:1052   .text.dm_utils_str_to_hex:000000000000004c .L0 
C:\Users\stapi\AppData\Local\Temp\ccfXLqzg.s:1054   .text.dm_utils_str_to_hex:000000000000004e .L0 
C:\Users\stapi\AppData\Local\Temp\ccfXLqzg.s:1056   .text.dm_utils_str_to_hex:0000000000000050 .L0 
C:\Users\stapi\AppData\Local\Temp\ccfXLqzg.s:1058   .text.dm_utils_str_to_hex:0000000000000052 .L0 
C:\Users\stapi\AppData\Local\Temp\ccfXLqzg.s:1060   .text.dm_utils_str_to_hex:0000000000000054 .L0 
C:\Users\stapi\AppData\Local\Temp\ccfXLqzg.s:1064   .text.dm_utils_str_to_hex:0000000000000056 .L0 
C:\Users\stapi\AppData\Local\Temp\ccfXLqzg.s:1065   .text.dm_utils_str_to_hex:0000000000000056 .L0 
C:\Users\stapi\AppData\Local\Temp\ccfXLqzg.s:1069   .text.dm_utils_str_to_hex:0000000000000062 .L0 
C:\Users\stapi\AppData\Local\Temp\ccfXLqzg.s:1071   .text.dm_utils_str_to_hex:0000000000000066 .L0 
C:\Users\stapi\AppData\Local\Temp\ccfXLqzg.s:1072   .text.dm_utils_str_to_hex:0000000000000066 .L0 
C:\Users\stapi\AppData\Local\Temp\ccfXLqzg.s:1076   .text.dm_utils_str_to_hex:000000000000006a .L0 
C:\Users\stapi\AppData\Local\Temp\ccfXLqzg.s:1077   .text.dm_utils_str_to_hex:000000000000006a .L0 
C:\Users\stapi\AppData\Local\Temp\ccfXLqzg.s:1079   .text.dm_utils_str_to_hex:000000000000006c .L0 
C:\Users\stapi\AppData\Local\Temp\ccfXLqzg.s:1081   .text.dm_utils_str_to_hex:0000000000000070 .L0 
C:\Users\stapi\AppData\Local\Temp\ccfXLqzg.s:1083   .text.dm_utils_str_to_hex:0000000000000074 .L0 
C:\Users\stapi\AppData\Local\Temp\ccfXLqzg.s:1088   .text.dm_utils_str_to_hex:0000000000000082 .L0 
C:\Users\stapi\AppData\Local\Temp\ccfXLqzg.s:1089   .text.dm_utils_str_to_hex:0000000000000082 .L0 
C:\Users\stapi\AppData\Local\Temp\ccfXLqzg.s:1093   .text.dm_utils_str_to_hex:000000000000008e .L0 
C:\Users\stapi\AppData\Local\Temp\ccfXLqzg.s:1095   .text.dm_utils_str_to_hex:0000000000000092 .L0 
C:\Users\stapi\AppData\Local\Temp\ccfXLqzg.s:1096   .text.dm_utils_str_to_hex:0000000000000092 .L0 
C:\Users\stapi\AppData\Local\Temp\ccfXLqzg.s:1100   .text.dm_utils_str_to_hex:0000000000000096 .L0 
C:\Users\stapi\AppData\Local\Temp\ccfXLqzg.s:1101   .text.dm_utils_str_to_hex:0000000000000096 .L0 
C:\Users\stapi\AppData\Local\Temp\ccfXLqzg.s:1103   .text.dm_utils_str_to_hex:0000000000000098 .L0 
C:\Users\stapi\AppData\Local\Temp\ccfXLqzg.s:1106   .text.dm_utils_str_to_hex:000000000000009a .L0 
C:\Users\stapi\AppData\Local\Temp\ccfXLqzg.s:1108   .text.dm_utils_str_to_hex:000000000000009c .L0 
C:\Users\stapi\AppData\Local\Temp\ccfXLqzg.s:1114   .text.dm_utils_str_to_hex:00000000000000a8 .L0 
C:\Users\stapi\AppData\Local\Temp\ccfXLqzg.s:1115   .text.dm_utils_str_to_hex:00000000000000a8 .L0 
C:\Users\stapi\AppData\Local\Temp\ccfXLqzg.s:1116   .text.dm_utils_str_to_hex:00000000000000a8 .L0 
C:\Users\stapi\AppData\Local\Temp\ccfXLqzg.s:1118   .text.dm_utils_str_to_hex:00000000000000ac .L0 
C:\Users\stapi\AppData\Local\Temp\ccfXLqzg.s:1122   .text.dm_utils_str_to_hex:00000000000000ae .L0 
C:\Users\stapi\AppData\Local\Temp\ccfXLqzg.s:1124   .text.dm_utils_str_to_hex:00000000000000b8 .L0 
C:\Users\stapi\AppData\Local\Temp\ccfXLqzg.s:1125   .text.dm_utils_str_to_hex:00000000000000b8 .L0 
C:\Users\stapi\AppData\Local\Temp\ccfXLqzg.s:1126   .text.dm_utils_str_to_hex:00000000000000b8 .L0 
C:\Users\stapi\AppData\Local\Temp\ccfXLqzg.s:1127   .text.dm_utils_str_to_hex:00000000000000b8 .L0 
C:\Users\stapi\AppData\Local\Temp\ccfXLqzg.s:1128   .text.dm_utils_str_to_hex:00000000000000b8 .L0 
C:\Users\stapi\AppData\Local\Temp\ccfXLqzg.s:1129   .text.dm_utils_str_to_hex:00000000000000b8 .L0 
C:\Users\stapi\AppData\Local\Temp\ccfXLqzg.s:1130   .text.dm_utils_str_to_hex:00000000000000b8 .L0 
C:\Users\stapi\AppData\Local\Temp\ccfXLqzg.s:1133   .text.dm_utils_str_to_hex:00000000000000b8 .L0 
C:\Users\stapi\AppData\Local\Temp\ccfXLqzg.s:1135   .text.dm_utils_str_to_hex:00000000000000b8 .L0 
C:\Users\stapi\AppData\Local\Temp\ccfXLqzg.s:1136   .text.dm_utils_str_to_hex:00000000000000b8 .L0 
C:\Users\stapi\AppData\Local\Temp\ccfXLqzg.s:1138   .text.dm_utils_str_to_hex:00000000000000bc .L0 
C:\Users\stapi\AppData\Local\Temp\ccfXLqzg.s:1141   .text.dm_utils_str_to_hex:00000000000000c4 .L0 
C:\Users\stapi\AppData\Local\Temp\ccfXLqzg.s:1142   .text.dm_utils_str_to_hex:00000000000000c4 .L0 
C:\Users\stapi\AppData\Local\Temp\ccfXLqzg.s:1145   .text.dm_utils_str_to_hex:00000000000000c8 .L0 
C:\Users\stapi\AppData\Local\Temp\ccfXLqzg.s:1150   .text.dm_utils_str_to_hex:00000000000000ce .L0 
C:\Users\stapi\AppData\Local\Temp\ccfXLqzg.s:1151   .text.dm_utils_str_to_hex:00000000000000ce .L0 
C:\Users\stapi\AppData\Local\Temp\ccfXLqzg.s:1153   .text.dm_utils_str_to_hex:00000000000000d2 .L0 
C:\Users\stapi\AppData\Local\Temp\ccfXLqzg.s:1156   .text.dm_utils_str_to_hex:00000000000000da .L0 
C:\Users\stapi\AppData\Local\Temp\ccfXLqzg.s:1157   .text.dm_utils_str_to_hex:00000000000000da .L0 
C:\Users\stapi\AppData\Local\Temp\ccfXLqzg.s:1160   .text.dm_utils_str_to_hex:00000000000000de .L0 
C:\Users\stapi\AppData\Local\Temp\ccfXLqzg.s:1165   .text.dm_utils_str_to_hex:00000000000000e4 .L0 
C:\Users\stapi\AppData\Local\Temp\ccfXLqzg.s:1166   .text.dm_utils_str_to_hex:00000000000000e4 .L0 
C:\Users\stapi\AppData\Local\Temp\ccfXLqzg.s:1167   .text.dm_utils_str_to_hex:00000000000000e4 .L0 
C:\Users\stapi\AppData\Local\Temp\ccfXLqzg.s:1168   .text.dm_utils_str_to_hex:00000000000000e4 .L0 
C:\Users\stapi\AppData\Local\Temp\ccfXLqzg.s:1169   .text.dm_utils_str_to_hex:00000000000000e4 .L0 
C:\Users\stapi\AppData\Local\Temp\ccfXLqzg.s:1170   .text.dm_utils_str_to_hex:00000000000000e4 .L0 
C:\Users\stapi\AppData\Local\Temp\ccfXLqzg.s:1172   .text.dm_utils_str_to_hex:00000000000000e4 .L0 
C:\Users\stapi\AppData\Local\Temp\ccfXLqzg.s:1174   .text.dm_utils_str_to_hex:00000000000000e6 .L0 
C:\Users\stapi\AppData\Local\Temp\ccfXLqzg.s:1177   .text.dm_utils_str_to_hex:00000000000000ea .L0 
C:\Users\stapi\AppData\Local\Temp\ccfXLqzg.s:1184   .text.dm_utils_memtok:0000000000000000 dm_utils_memtok
C:\Users\stapi\AppData\Local\Temp\ccfXLqzg.s:1187   .text.dm_utils_memtok:0000000000000000 .L0 
C:\Users\stapi\AppData\Local\Temp\ccfXLqzg.s:1189   .text.dm_utils_memtok:0000000000000000 .L0 
C:\Users\stapi\AppData\Local\Temp\ccfXLqzg.s:1190   .text.dm_utils_memtok:0000000000000000 .L0 
C:\Users\stapi\AppData\Local\Temp\ccfXLqzg.s:1191   .text.dm_utils_memtok:0000000000000000 .L0 
C:\Users\stapi\AppData\Local\Temp\ccfXLqzg.s:1192   .text.dm_utils_memtok:0000000000000000 .L0 
C:\Users\stapi\AppData\Local\Temp\ccfXLqzg.s:1193   .text.dm_utils_memtok:0000000000000000 .L0 
C:\Users\stapi\AppData\Local\Temp\ccfXLqzg.s:1195   .text.dm_utils_memtok:0000000000000002 .L0 
C:\Users\stapi\AppData\Local\Temp\ccfXLqzg.s:1198   .text.dm_utils_memtok:0000000000000004 .L0 
C:\Users\stapi\AppData\Local\Temp\ccfXLqzg.s:1200   .text.dm_utils_memtok:0000000000000008 .L0 
C:\Users\stapi\AppData\Local\Temp\ccfXLqzg.s:1202   .text.dm_utils_memtok:000000000000000c .L0 
C:\Users\stapi\AppData\Local\Temp\ccfXLqzg.s:1204   .text.dm_utils_memtok:000000000000000e .L0 
C:\Users\stapi\AppData\Local\Temp\ccfXLqzg.s:1206   .text.dm_utils_memtok:0000000000000010 .L0 
C:\Users\stapi\AppData\Local\Temp\ccfXLqzg.s:1210   .text.dm_utils_memtok:0000000000000012 .L0 
C:\Users\stapi\AppData\Local\Temp\ccfXLqzg.s:1211   .text.dm_utils_memtok:0000000000000012 .L0 
C:\Users\stapi\AppData\Local\Temp\ccfXLqzg.s:1213   .text.dm_utils_memtok:0000000000000016 .L0 
C:\Users\stapi\AppData\Local\Temp\ccfXLqzg.s:1215   .text.dm_utils_memtok:000000000000001a .L0 
C:\Users\stapi\AppData\Local\Temp\ccfXLqzg.s:1218   .text.dm_utils_memtok:0000000000000022 .L0 
C:\Users\stapi\AppData\Local\Temp\ccfXLqzg.s:1220   .text.dm_utils_memtok:0000000000000026 .L0 
C:\Users\stapi\AppData\Local\Temp\ccfXLqzg.s:1221   .text.dm_utils_memtok:0000000000000026 .L0 
C:\Users\stapi\AppData\Local\Temp\ccfXLqzg.s:1224   .text.dm_utils_memtok:0000000000000028 .L0 
C:\Users\stapi\AppData\Local\Temp\ccfXLqzg.s:1225   .text.dm_utils_memtok:0000000000000028 .L0 
C:\Users\stapi\AppData\Local\Temp\ccfXLqzg.s:1227   .text.dm_utils_memtok:000000000000002c .L0 
C:\Users\stapi\AppData\Local\Temp\ccfXLqzg.s:1228   .text.dm_utils_memtok:000000000000002c .L0 
C:\Users\stapi\AppData\Local\Temp\ccfXLqzg.s:1230   .text.dm_utils_memtok:000000000000002e .L0 
C:\Users\stapi\AppData\Local\Temp\ccfXLqzg.s:1231   .text.dm_utils_memtok:000000000000002e .L0 
C:\Users\stapi\AppData\Local\Temp\ccfXLqzg.s:1235   .text.dm_utils_memtok:0000000000000032 .L0 
C:\Users\stapi\AppData\Local\Temp\ccfXLqzg.s:1236   .text.dm_utils_memtok:0000000000000032 .L0 
C:\Users\stapi\AppData\Local\Temp\ccfXLqzg.s:1237   .text.dm_utils_memtok:0000000000000032 .L0 
C:\Users\stapi\AppData\Local\Temp\ccfXLqzg.s:1241   .text.dm_utils_memtok:0000000000000036 .L0 
C:\Users\stapi\AppData\Local\Temp\ccfXLqzg.s:1249   .text.dm_utils_memtok:000000000000003c .L0 
C:\Users\stapi\AppData\Local\Temp\ccfXLqzg.s:1253   .text.dm_utils_memtok:000000000000003e .L0 
C:\Users\stapi\AppData\Local\Temp\ccfXLqzg.s:1254   .text.dm_utils_memtok:0000000000000040 .L0 
C:\Users\stapi\AppData\Local\Temp\ccfXLqzg.s:1261   .text.dm_utils_replace_char:0000000000000000 dm_utils_replace_char
C:\Users\stapi\AppData\Local\Temp\ccfXLqzg.s:1264   .text.dm_utils_replace_char:0000000000000000 .L0 
C:\Users\stapi\AppData\Local\Temp\ccfXLqzg.s:1266   .text.dm_utils_replace_char:0000000000000000 .L0 
C:\Users\stapi\AppData\Local\Temp\ccfXLqzg.s:1267   .text.dm_utils_replace_char:0000000000000000 .L0 
C:\Users\stapi\AppData\Local\Temp\ccfXLqzg.s:1268   .text.dm_utils_replace_char:0000000000000000 .L0 
C:\Users\stapi\AppData\Local\Temp\ccfXLqzg.s:1269   .text.dm_utils_replace_char:0000000000000000 .L0 
C:\Users\stapi\AppData\Local\Temp\ccfXLqzg.s:1271   .text.dm_utils_replace_char:0000000000000002 .L0 
C:\Users\stapi\AppData\Local\Temp\ccfXLqzg.s:1274   .text.dm_utils_replace_char:0000000000000004 .L0 
C:\Users\stapi\AppData\Local\Temp\ccfXLqzg.s:1276   .text.dm_utils_replace_char:0000000000000006 .L0 
C:\Users\stapi\AppData\Local\Temp\ccfXLqzg.s:1282   .text.dm_utils_replace_char:000000000000000e .L0 
C:\Users\stapi\AppData\Local\Temp\ccfXLqzg.s:1283   .text.dm_utils_replace_char:000000000000000e .L0 
C:\Users\stapi\AppData\Local\Temp\ccfXLqzg.s:1286   .text.dm_utils_replace_char:0000000000000016 .L0 
C:\Users\stapi\AppData\Local\Temp\ccfXLqzg.s:1287   .text.dm_utils_replace_char:0000000000000016 .L0 
C:\Users\stapi\AppData\Local\Temp\ccfXLqzg.s:1291   .text.dm_utils_replace_char:000000000000001a .L0 
C:\Users\stapi\AppData\Local\Temp\ccfXLqzg.s:1292   .text.dm_utils_replace_char:000000000000001a .L0 
C:\Users\stapi\AppData\Local\Temp\ccfXLqzg.s:1293   .text.dm_utils_replace_char:000000000000001a .L0 
C:\Users\stapi\AppData\Local\Temp\ccfXLqzg.s:1297   .text.dm_utils_replace_char:0000000000000020 .L0 
C:\Users\stapi\AppData\Local\Temp\ccfXLqzg.s:1303   .text.dm_utils_replace_char:0000000000000024 .L0 
C:\Users\stapi\AppData\Local\Temp\ccfXLqzg.s:1304   .text.dm_utils_replace_char:0000000000000026 .L0 
C:\Users\stapi\AppData\Local\Temp\ccfXLqzg.s:1311   .text.dm_utils_service_name:0000000000000000 dm_utils_service_name
C:\Users\stapi\AppData\Local\Temp\ccfXLqzg.s:1314   .text.dm_utils_service_name:0000000000000000 .L0 
C:\Users\stapi\AppData\Local\Temp\ccfXLqzg.s:1316   .text.dm_utils_service_name:0000000000000000 .L0 
C:\Users\stapi\AppData\Local\Temp\ccfXLqzg.s:1317   .text.dm_utils_service_name:0000000000000008 .L0 
C:\Users\stapi\AppData\Local\Temp\ccfXLqzg.s:1318   .text.dm_utils_service_name:0000000000000008 .L0 
C:\Users\stapi\AppData\Local\Temp\ccfXLqzg.s:1319   .text.dm_utils_service_name:0000000000000008 .L0 
C:\Users\stapi\AppData\Local\Temp\ccfXLqzg.s:1320   .text.dm_utils_service_name:0000000000000008 .L0 
C:\Users\stapi\AppData\Local\Temp\ccfXLqzg.s:1321   .text.dm_utils_service_name:0000000000000008 .L0 
C:\Users\stapi\AppData\Local\Temp\ccfXLqzg.s:1322   .text.dm_utils_service_name:0000000000000008 .L0 
C:\Users\stapi\AppData\Local\Temp\ccfXLqzg.s:1323   .text.dm_utils_service_name:0000000000000008 .L0 
C:\Users\stapi\AppData\Local\Temp\ccfXLqzg.s:1324   .text.dm_utils_service_name:0000000000000008 .L0 
C:\Users\stapi\AppData\Local\Temp\ccfXLqzg.s:1325   .text.dm_utils_service_name:0000000000000008 .L0 
C:\Users\stapi\AppData\Local\Temp\ccfXLqzg.s:1326   .text.dm_utils_service_name:0000000000000008 .L0 
C:\Users\stapi\AppData\Local\Temp\ccfXLqzg.s:1328   .text.dm_utils_service_name:0000000000000008 .L0 
C:\Users\stapi\AppData\Local\Temp\ccfXLqzg.s:1329   .text.dm_utils_service_name:0000000000000008 .L0 
C:\Users\stapi\AppData\Local\Temp\ccfXLqzg.s:1335   .text.dm_utils_service_name:0000000000000012 .L0 
C:\Users\stapi\AppData\Local\Temp\ccfXLqzg.s:1337   .text.dm_utils_service_name:0000000000000014 .L0 
C:\Users\stapi\AppData\Local\Temp\ccfXLqzg.s:1342   .text.dm_utils_service_name:000000000000001e .L0 
C:\Users\stapi\AppData\Local\Temp\ccfXLqzg.s:1343   .text.dm_utils_service_name:000000000000001e .L0 
C:\Users\stapi\AppData\Local\Temp\ccfXLqzg.s:1348   .text.dm_utils_service_name:0000000000000024 .L0 
C:\Users\stapi\AppData\Local\Temp\ccfXLqzg.s:1354   .text.dm_utils_service_name:0000000000000030 .L0 
C:\Users\stapi\AppData\Local\Temp\ccfXLqzg.s:1356   .text.dm_utils_service_name:0000000000000030 .L0 
C:\Users\stapi\AppData\Local\Temp\ccfXLqzg.s:1357   .text.dm_utils_service_name:0000000000000030 .L0 
C:\Users\stapi\AppData\Local\Temp\ccfXLqzg.s:1359   .text.dm_utils_service_name:0000000000000032 .L0 
C:\Users\stapi\AppData\Local\Temp\ccfXLqzg.s:1361   .text.dm_utils_service_name:0000000000000036 .L0 
C:\Users\stapi\AppData\Local\Temp\ccfXLqzg.s:1363   .text.dm_utils_service_name:000000000000003a .L0 
C:\Users\stapi\AppData\Local\Temp\ccfXLqzg.s:1365   .text.dm_utils_service_name:000000000000003e .L0 
C:\Users\stapi\AppData\Local\Temp\ccfXLqzg.s:1368   .text.dm_utils_service_name:0000000000000044 .L0 
C:\Users\stapi\AppData\Local\Temp\ccfXLqzg.s:1369   .text.dm_utils_service_name:0000000000000044 .L0 
C:\Users\stapi\AppData\Local\Temp\ccfXLqzg.s:1373   .text.dm_utils_service_name:000000000000004e .L0 
C:\Users\stapi\AppData\Local\Temp\ccfXLqzg.s:1375   .text.dm_utils_service_name:0000000000000050 .L0 
C:\Users\stapi\AppData\Local\Temp\ccfXLqzg.s:1377   .text.dm_utils_service_name:0000000000000052 .L0 
C:\Users\stapi\AppData\Local\Temp\ccfXLqzg.s:1379   .text.dm_utils_service_name:0000000000000054 .L0 
C:\Users\stapi\AppData\Local\Temp\ccfXLqzg.s:1383   .text.dm_utils_service_name:000000000000005e .L0 
C:\Users\stapi\AppData\Local\Temp\ccfXLqzg.s:1387   .text.dm_utils_service_name:0000000000000062 .L0 
C:\Users\stapi\AppData\Local\Temp\ccfXLqzg.s:1388   .text.dm_utils_service_name:0000000000000062 .L0 
C:\Users\stapi\AppData\Local\Temp\ccfXLqzg.s:1394   .text.dm_utils_service_name:0000000000000070 .L0 
C:\Users\stapi\AppData\Local\Temp\ccfXLqzg.s:1396   .text.dm_utils_service_name:0000000000000074 .L0 
C:\Users\stapi\AppData\Local\Temp\ccfXLqzg.s:1397   .text.dm_utils_service_name:0000000000000074 .L0 
C:\Users\stapi\AppData\Local\Temp\ccfXLqzg.s:1399   .text.dm_utils_service_name:0000000000000076 .L0 
C:\Users\stapi\AppData\Local\Temp\ccfXLqzg.s:1401   .text.dm_utils_service_name:0000000000000078 .L0 
C:\Users\stapi\AppData\Local\Temp\ccfXLqzg.s:1406   .text.dm_utils_service_name:0000000000000084 .L0 
C:\Users\stapi\AppData\Local\Temp\ccfXLqzg.s:1407   .text.dm_utils_service_name:0000000000000084 .L0 
C:\Users\stapi\AppData\Local\Temp\ccfXLqzg.s:1409   .text.dm_utils_service_name:0000000000000088 .L0 
C:\Users\stapi\AppData\Local\Temp\ccfXLqzg.s:1418   .text.dm_utils_service_name:000000000000009c .L0 
C:\Users\stapi\AppData\Local\Temp\ccfXLqzg.s:1419   .text.dm_utils_service_name:000000000000009c .L0 
C:\Users\stapi\AppData\Local\Temp\ccfXLqzg.s:1421   .text.dm_utils_service_name:000000000000009e .L0 
C:\Users\stapi\AppData\Local\Temp\ccfXLqzg.s:1423   .text.dm_utils_service_name:00000000000000a2 .L0 
C:\Users\stapi\AppData\Local\Temp\ccfXLqzg.s:1424   .text.dm_utils_service_name:00000000000000a2 .L0 
C:\Users\stapi\AppData\Local\Temp\ccfXLqzg.s:1427   .text.dm_utils_service_name:00000000000000a6 .L0 
C:\Users\stapi\AppData\Local\Temp\ccfXLqzg.s:1431   .text.dm_utils_service_name:00000000000000b0 .L0 
C:\Users\stapi\AppData\Local\Temp\ccfXLqzg.s:1438   .text.dm_utils_service_name:00000000000000be .L0 
C:\Users\stapi\AppData\Local\Temp\ccfXLqzg.s:1440   .text.dm_utils_service_name:00000000000000c8 .L0 
C:\Users\stapi\AppData\Local\Temp\ccfXLqzg.s:1441   .text.dm_utils_service_name:00000000000000c8 .L0 
C:\Users\stapi\AppData\Local\Temp\ccfXLqzg.s:1442   .text.dm_utils_service_name:00000000000000c8 .L0 
C:\Users\stapi\AppData\Local\Temp\ccfXLqzg.s:1443   .text.dm_utils_service_name:00000000000000c8 .L0 
C:\Users\stapi\AppData\Local\Temp\ccfXLqzg.s:1444   .text.dm_utils_service_name:00000000000000c8 .L0 
C:\Users\stapi\AppData\Local\Temp\ccfXLqzg.s:1445   .text.dm_utils_service_name:00000000000000c8 .L0 
C:\Users\stapi\AppData\Local\Temp\ccfXLqzg.s:1446   .text.dm_utils_service_name:00000000000000c8 .L0 
C:\Users\stapi\AppData\Local\Temp\ccfXLqzg.s:1447   .text.dm_utils_service_name:00000000000000c8 .L0 
C:\Users\stapi\AppData\Local\Temp\ccfXLqzg.s:1448   .text.dm_utils_service_name:00000000000000c8 .L0 
C:\Users\stapi\AppData\Local\Temp\ccfXLqzg.s:1449   .text.dm_utils_service_name:00000000000000c8 .L0 
C:\Users\stapi\AppData\Local\Temp\ccfXLqzg.s:1450   .text.dm_utils_service_name:00000000000000c8 .L0 
C:\Users\stapi\AppData\Local\Temp\ccfXLqzg.s:1453   .text.dm_utils_service_name:00000000000000c8 .L0 
C:\Users\stapi\AppData\Local\Temp\ccfXLqzg.s:1455   .text.dm_utils_service_name:00000000000000c8 .L0 
C:\Users\stapi\AppData\Local\Temp\ccfXLqzg.s:1456   .text.dm_utils_service_name:00000000000000c8 .L0 
C:\Users\stapi\AppData\Local\Temp\ccfXLqzg.s:1458   .text.dm_utils_service_name:00000000000000ca .L0 
C:\Users\stapi\AppData\Local\Temp\ccfXLqzg.s:1460   .text.dm_utils_service_name:00000000000000cc .L0 
C:\Users\stapi\AppData\Local\Temp\ccfXLqzg.s:1462   .text.dm_utils_service_name:00000000000000d0 .L0 
C:\Users\stapi\AppData\Local\Temp\ccfXLqzg.s:1469   .text.dm_utils_uri_add_prefix:0000000000000000 dm_utils_uri_add_prefix
C:\Users\stapi\AppData\Local\Temp\ccfXLqzg.s:1472   .text.dm_utils_uri_add_prefix:0000000000000000 .L0 
C:\Users\stapi\AppData\Local\Temp\ccfXLqzg.s:1474   .text.dm_utils_uri_add_prefix:0000000000000000 .L0 
C:\Users\stapi\AppData\Local\Temp\ccfXLqzg.s:1475   .text.dm_utils_uri_add_prefix:0000000000000000 .L0 
C:\Users\stapi\AppData\Local\Temp\ccfXLqzg.s:1476   .text.dm_utils_uri_add_prefix:0000000000000000 .L0 
C:\Users\stapi\AppData\Local\Temp\ccfXLqzg.s:1477   .text.dm_utils_uri_add_prefix:0000000000000000 .L0 
C:\Users\stapi\AppData\Local\Temp\ccfXLqzg.s:1479   .text.dm_utils_uri_add_prefix:0000000000000002 .L0 
C:\Users\stapi\AppData\Local\Temp\ccfXLqzg.s:1480   .text.dm_utils_uri_add_prefix:000000000000000a .L0 
C:\Users\stapi\AppData\Local\Temp\ccfXLqzg.s:1481   .text.dm_utils_uri_add_prefix:000000000000000a .L0 
C:\Users\stapi\AppData\Local\Temp\ccfXLqzg.s:1482   .text.dm_utils_uri_add_prefix:000000000000000a .L0 
C:\Users\stapi\AppData\Local\Temp\ccfXLqzg.s:1483   .text.dm_utils_uri_add_prefix:000000000000000a .L0 
C:\Users\stapi\AppData\Local\Temp\ccfXLqzg.s:1484   .text.dm_utils_uri_add_prefix:000000000000000a .L0 
C:\Users\stapi\AppData\Local\Temp\ccfXLqzg.s:1485   .text.dm_utils_uri_add_prefix:000000000000000a .L0 
C:\Users\stapi\AppData\Local\Temp\ccfXLqzg.s:1487   .text.dm_utils_uri_add_prefix:000000000000000c .L0 
C:\Users\stapi\AppData\Local\Temp\ccfXLqzg.s:1490   .text.dm_utils_uri_add_prefix:000000000000000e .L0 
C:\Users\stapi\AppData\Local\Temp\ccfXLqzg.s:1492   .text.dm_utils_uri_add_prefix:0000000000000010 .L0 
C:\Users\stapi\AppData\Local\Temp\ccfXLqzg.s:1495   .text.dm_utils_uri_add_prefix:0000000000000014 .L0 
C:\Users\stapi\AppData\Local\Temp\ccfXLqzg.s:1497   .text.dm_utils_uri_add_prefix:0000000000000016 .L0 
C:\Users\stapi\AppData\Local\Temp\ccfXLqzg.s:1501   .text.dm_utils_uri_add_prefix:000000000000001c .L0 
C:\Users\stapi\AppData\Local\Temp\ccfXLqzg.s:1502   .text.dm_utils_uri_add_prefix:000000000000001c .L0 
C:\Users\stapi\AppData\Local\Temp\ccfXLqzg.s:1506   .text.dm_utils_uri_add_prefix:0000000000000026 .L0 
C:\Users\stapi\AppData\Local\Temp\ccfXLqzg.s:1510   .text.dm_utils_uri_add_prefix:0000000000000030 .L0 
C:\Users\stapi\AppData\Local\Temp\ccfXLqzg.s:1512   .text.dm_utils_uri_add_prefix:0000000000000032 .L0 
C:\Users\stapi\AppData\Local\Temp\ccfXLqzg.s:1515   .text.dm_utils_uri_add_prefix:0000000000000036 .L0 
C:\Users\stapi\AppData\Local\Temp\ccfXLqzg.s:1516   .text.dm_utils_uri_add_prefix:0000000000000036 .L0 
C:\Users\stapi\AppData\Local\Temp\ccfXLqzg.s:1522   .text.dm_utils_uri_add_prefix:0000000000000044 .L0 
C:\Users\stapi\AppData\Local\Temp\ccfXLqzg.s:1524   .text.dm_utils_uri_add_prefix:0000000000000046 .L0 
C:\Users\stapi\AppData\Local\Temp\ccfXLqzg.s:1525   .text.dm_utils_uri_add_prefix:0000000000000046 .L0 
C:\Users\stapi\AppData\Local\Temp\ccfXLqzg.s:1527   .text.dm_utils_uri_add_prefix:0000000000000048 .L0 
C:\Users\stapi\AppData\Local\Temp\ccfXLqzg.s:1529   .text.dm_utils_uri_add_prefix:000000000000004a .L0 
C:\Users\stapi\AppData\Local\Temp\ccfXLqzg.s:1534   .text.dm_utils_uri_add_prefix:0000000000000056 .L0 
C:\Users\stapi\AppData\Local\Temp\ccfXLqzg.s:1543   .text.dm_utils_uri_add_prefix:000000000000006e .L0 
C:\Users\stapi\AppData\Local\Temp\ccfXLqzg.s:1544   .text.dm_utils_uri_add_prefix:000000000000006e .L0 
C:\Users\stapi\AppData\Local\Temp\ccfXLqzg.s:1547   .text.dm_utils_uri_add_prefix:0000000000000070 .L0 
C:\Users\stapi\AppData\Local\Temp\ccfXLqzg.s:1552   .text.dm_utils_uri_add_prefix:000000000000007c .L0 
C:\Users\stapi\AppData\Local\Temp\ccfXLqzg.s:1561   .text.dm_utils_uri_add_prefix:0000000000000096 .L0 
C:\Users\stapi\AppData\Local\Temp\ccfXLqzg.s:1562   .text.dm_utils_uri_add_prefix:0000000000000096 .L0 
C:\Users\stapi\AppData\Local\Temp\ccfXLqzg.s:1566   .text.dm_utils_uri_add_prefix:0000000000000098 .L0 
C:\Users\stapi\AppData\Local\Temp\ccfXLqzg.s:1568   .text.dm_utils_uri_add_prefix:000000000000009c .L0 
C:\Users\stapi\AppData\Local\Temp\ccfXLqzg.s:1570   .text.dm_utils_uri_add_prefix:00000000000000a4 .L0 
C:\Users\stapi\AppData\Local\Temp\ccfXLqzg.s:1571   .text.dm_utils_uri_add_prefix:00000000000000a4 .L0 
C:\Users\stapi\AppData\Local\Temp\ccfXLqzg.s:1572   .text.dm_utils_uri_add_prefix:00000000000000a4 .L0 
C:\Users\stapi\AppData\Local\Temp\ccfXLqzg.s:1573   .text.dm_utils_uri_add_prefix:00000000000000a4 .L0 
C:\Users\stapi\AppData\Local\Temp\ccfXLqzg.s:1574   .text.dm_utils_uri_add_prefix:00000000000000a4 .L0 
C:\Users\stapi\AppData\Local\Temp\ccfXLqzg.s:1575   .text.dm_utils_uri_add_prefix:00000000000000a4 .L0 
C:\Users\stapi\AppData\Local\Temp\ccfXLqzg.s:1578   .text.dm_utils_uri_add_prefix:00000000000000a4 .L0 
C:\Users\stapi\AppData\Local\Temp\ccfXLqzg.s:1580   .text.dm_utils_uri_add_prefix:00000000000000a4 .L0 
C:\Users\stapi\AppData\Local\Temp\ccfXLqzg.s:1582   .text.dm_utils_uri_add_prefix:00000000000000a6 .L0 
C:\Users\stapi\AppData\Local\Temp\ccfXLqzg.s:1585   .text.dm_utils_uri_add_prefix:00000000000000aa .L0 
C:\Users\stapi\AppData\Local\Temp\ccfXLqzg.s:1592   .text.dm_utils_json_parse:0000000000000000 dm_utils_json_parse
C:\Users\stapi\AppData\Local\Temp\ccfXLqzg.s:1595   .text.dm_utils_json_parse:0000000000000000 .L0 
C:\Users\stapi\AppData\Local\Temp\ccfXLqzg.s:1597   .text.dm_utils_json_parse:0000000000000000 .L0 
C:\Users\stapi\AppData\Local\Temp\ccfXLqzg.s:1598   .text.dm_utils_json_parse:0000000000000000 .L0 
C:\Users\stapi\AppData\Local\Temp\ccfXLqzg.s:1599   .text.dm_utils_json_parse:0000000000000000 .L0 
C:\Users\stapi\AppData\Local\Temp\ccfXLqzg.s:1600   .text.dm_utils_json_parse:0000000000000000 .L0 
C:\Users\stapi\AppData\Local\Temp\ccfXLqzg.s:1602   .text.dm_utils_json_parse:0000000000000002 .L0 
C:\Users\stapi\AppData\Local\Temp\ccfXLqzg.s:1603   .text.dm_utils_json_parse:000000000000000a .L0 
C:\Users\stapi\AppData\Local\Temp\ccfXLqzg.s:1604   .text.dm_utils_json_parse:000000000000000a .L0 
C:\Users\stapi\AppData\Local\Temp\ccfXLqzg.s:1605   .text.dm_utils_json_parse:000000000000000a .L0 
C:\Users\stapi\AppData\Local\Temp\ccfXLqzg.s:1606   .text.dm_utils_json_parse:000000000000000a .L0 
C:\Users\stapi\AppData\Local\Temp\ccfXLqzg.s:1607   .text.dm_utils_json_parse:000000000000000a .L0 
C:\Users\stapi\AppData\Local\Temp\ccfXLqzg.s:1608   .text.dm_utils_json_parse:000000000000000a .L0 
C:\Users\stapi\AppData\Local\Temp\ccfXLqzg.s:1612   .text.dm_utils_json_parse:000000000000000e .L0 
C:\Users\stapi\AppData\Local\Temp\ccfXLqzg.s:1615   .text.dm_utils_json_parse:0000000000000010 .L0 
C:\Users\stapi\AppData\Local\Temp\ccfXLqzg.s:1618   .text.dm_utils_json_parse:0000000000000016 .L0 
C:\Users\stapi\AppData\Local\Temp\ccfXLqzg.s:1621   .text.dm_utils_json_parse:000000000000001c .L0 
C:\Users\stapi\AppData\Local\Temp\ccfXLqzg.s:1623   .text.dm_utils_json_parse:000000000000001e .L0 
C:\Users\stapi\AppData\Local\Temp\ccfXLqzg.s:1631   .text.dm_utils_json_parse:000000000000002e .L0 
C:\Users\stapi\AppData\Local\Temp\ccfXLqzg.s:1632   .text.dm_utils_json_parse:000000000000002e .L0 
C:\Users\stapi\AppData\Local\Temp\ccfXLqzg.s:1638   .text.dm_utils_json_parse:000000000000003c .L0 
C:\Users\stapi\AppData\Local\Temp\ccfXLqzg.s:1639   .text.dm_utils_json_parse:000000000000003c .L0 
C:\Users\stapi\AppData\Local\Temp\ccfXLqzg.s:1642   .text.dm_utils_json_parse:000000000000003e .L0 
C:\Users\stapi\AppData\Local\Temp\ccfXLqzg.s:1649   .text.dm_utils_json_parse:000000000000004e .L0 
C:\Users\stapi\AppData\Local\Temp\ccfXLqzg.s:1650   .text.dm_utils_json_parse:000000000000004e .L0 
C:\Users\stapi\AppData\Local\Temp\ccfXLqzg.s:1654   .text.dm_utils_json_parse:0000000000000050 .L0 
C:\Users\stapi\AppData\Local\Temp\ccfXLqzg.s:1655   .text.dm_utils_json_parse:0000000000000058 .L0 
C:\Users\stapi\AppData\Local\Temp\ccfXLqzg.s:1656   .text.dm_utils_json_parse:0000000000000058 .L0 
C:\Users\stapi\AppData\Local\Temp\ccfXLqzg.s:1657   .text.dm_utils_json_parse:0000000000000058 .L0 
C:\Users\stapi\AppData\Local\Temp\ccfXLqzg.s:1658   .text.dm_utils_json_parse:0000000000000058 .L0 
C:\Users\stapi\AppData\Local\Temp\ccfXLqzg.s:1659   .text.dm_utils_json_parse:0000000000000058 .L0 
C:\Users\stapi\AppData\Local\Temp\ccfXLqzg.s:1660   .text.dm_utils_json_parse:0000000000000058 .L0 
C:\Users\stapi\AppData\Local\Temp\ccfXLqzg.s:1661   .text.dm_utils_json_parse:0000000000000058 .L0 
C:\Users\stapi\AppData\Local\Temp\ccfXLqzg.s:1664   .text.dm_utils_json_parse:0000000000000058 .L0 
C:\Users\stapi\AppData\Local\Temp\ccfXLqzg.s:1666   .text.dm_utils_json_parse:0000000000000058 .L0 
C:\Users\stapi\AppData\Local\Temp\ccfXLqzg.s:1667   .text.dm_utils_json_parse:0000000000000058 .L0 
C:\Users\stapi\AppData\Local\Temp\ccfXLqzg.s:1669   .text.dm_utils_json_parse:000000000000005a .L0 
C:\Users\stapi\AppData\Local\Temp\ccfXLqzg.s:1674   .text.dm_utils_json_parse:0000000000000062 .L0 
C:\Users\stapi\AppData\Local\Temp\ccfXLqzg.s:1675   .text.dm_utils_json_parse:0000000000000062 .L0 
C:\Users\stapi\AppData\Local\Temp\ccfXLqzg.s:1676   .text.dm_utils_json_parse:0000000000000062 .L0 
C:\Users\stapi\AppData\Local\Temp\ccfXLqzg.s:1677   .text.dm_utils_json_parse:0000000000000062 .L0 
C:\Users\stapi\AppData\Local\Temp\ccfXLqzg.s:1678   .text.dm_utils_json_parse:0000000000000062 .L0 
C:\Users\stapi\AppData\Local\Temp\ccfXLqzg.s:1679   .text.dm_utils_json_parse:0000000000000062 .L0 
C:\Users\stapi\AppData\Local\Temp\ccfXLqzg.s:1681   .text.dm_utils_json_parse:0000000000000062 .L0 
C:\Users\stapi\AppData\Local\Temp\ccfXLqzg.s:1684   .text.dm_utils_json_parse:0000000000000064 .L0 
C:\Users\stapi\AppData\Local\Temp\ccfXLqzg.s:1685   .text.dm_utils_json_parse:0000000000000066 .L0 
C:\Users\stapi\AppData\Local\Temp\ccfXLqzg.s:1692   .text.dm_utils_json_object_item:0000000000000000 dm_utils_json_object_item
C:\Users\stapi\AppData\Local\Temp\ccfXLqzg.s:1695   .text.dm_utils_json_object_item:0000000000000000 .L0 
C:\Users\stapi\AppData\Local\Temp\ccfXLqzg.s:1697   .text.dm_utils_json_object_item:0000000000000000 .L0 
C:\Users\stapi\AppData\Local\Temp\ccfXLqzg.s:1698   .text.dm_utils_json_object_item:0000000000000000 .L0 
C:\Users\stapi\AppData\Local\Temp\ccfXLqzg.s:1699   .text.dm_utils_json_object_item:0000000000000000 .L0 
C:\Users\stapi\AppData\Local\Temp\ccfXLqzg.s:1700   .text.dm_utils_json_object_item:0000000000000000 .L0 
C:\Users\stapi\AppData\Local\Temp\ccfXLqzg.s:1702   .text.dm_utils_json_object_item:0000000000000002 .L0 
C:\Users\stapi\AppData\Local\Temp\ccfXLqzg.s:1703   .text.dm_utils_json_object_item:000000000000000a .L0 
C:\Users\stapi\AppData\Local\Temp\ccfXLqzg.s:1704   .text.dm_utils_json_object_item:000000000000000a .L0 
C:\Users\stapi\AppData\Local\Temp\ccfXLqzg.s:1705   .text.dm_utils_json_object_item:000000000000000a .L0 
C:\Users\stapi\AppData\Local\Temp\ccfXLqzg.s:1706   .text.dm_utils_json_object_item:000000000000000a .L0 
C:\Users\stapi\AppData\Local\Temp\ccfXLqzg.s:1707   .text.dm_utils_json_object_item:000000000000000a .L0 
C:\Users\stapi\AppData\Local\Temp\ccfXLqzg.s:1708   .text.dm_utils_json_object_item:000000000000000a .L0 
C:\Users\stapi\AppData\Local\Temp\ccfXLqzg.s:1709   .text.dm_utils_json_object_item:000000000000000a .L0 
C:\Users\stapi\AppData\Local\Temp\ccfXLqzg.s:1712   .text.dm_utils_json_object_item:000000000000000c .L0 
C:\Users\stapi\AppData\Local\Temp\ccfXLqzg.s:1717   .text.dm_utils_json_object_item:0000000000000014 .L0 
C:\Users\stapi\AppData\Local\Temp\ccfXLqzg.s:1720   .text.dm_utils_json_object_item:0000000000000016 .L0 
C:\Users\stapi\AppData\Local\Temp\ccfXLqzg.s:1723   .text.dm_utils_json_object_item:000000000000001c .L0 
C:\Users\stapi\AppData\Local\Temp\ccfXLqzg.s:1726   .text.dm_utils_json_object_item:0000000000000020 .L0 
C:\Users\stapi\AppData\Local\Temp\ccfXLqzg.s:1729   .text.dm_utils_json_object_item:0000000000000026 .L0 
C:\Users\stapi\AppData\Local\Temp\ccfXLqzg.s:1731   .text.dm_utils_json_object_item:000000000000002a .L0 
C:\Users\stapi\AppData\Local\Temp\ccfXLqzg.s:1733   .text.dm_utils_json_object_item:000000000000002c .L0 
C:\Users\stapi\AppData\Local\Temp\ccfXLqzg.s:1734   .text.dm_utils_json_object_item:000000000000002c .L0 
C:\Users\stapi\AppData\Local\Temp\ccfXLqzg.s:1735   .text.dm_utils_json_object_item:000000000000002c .L0 
C:\Users\stapi\AppData\Local\Temp\ccfXLqzg.s:1743   .text.dm_utils_json_object_item:000000000000003c .L0 
C:\Users\stapi\AppData\Local\Temp\ccfXLqzg.s:1744   .text.dm_utils_json_object_item:000000000000003c .L0 
C:\Users\stapi\AppData\Local\Temp\ccfXLqzg.s:1751   .text.dm_utils_json_object_item:000000000000004c .L0 
C:\Users\stapi\AppData\Local\Temp\ccfXLqzg.s:1752   .text.dm_utils_json_object_item:000000000000004c .L0 
C:\Users\stapi\AppData\Local\Temp\ccfXLqzg.s:1755   .text.dm_utils_json_object_item:000000000000004e .L0 
C:\Users\stapi\AppData\Local\Temp\ccfXLqzg.s:1762   .text.dm_utils_json_object_item:000000000000005e .L0 
C:\Users\stapi\AppData\Local\Temp\ccfXLqzg.s:1763   .text.dm_utils_json_object_item:000000000000005e .L0 
C:\Users\stapi\AppData\Local\Temp\ccfXLqzg.s:1767   .text.dm_utils_json_object_item:0000000000000060 .L0 
C:\Users\stapi\AppData\Local\Temp\ccfXLqzg.s:1768   .text.dm_utils_json_object_item:0000000000000068 .L0 
C:\Users\stapi\AppData\Local\Temp\ccfXLqzg.s:1769   .text.dm_utils_json_object_item:0000000000000068 .L0 
C:\Users\stapi\AppData\Local\Temp\ccfXLqzg.s:1770   .text.dm_utils_json_object_item:0000000000000068 .L0 
C:\Users\stapi\AppData\Local\Temp\ccfXLqzg.s:1771   .text.dm_utils_json_object_item:0000000000000068 .L0 
C:\Users\stapi\AppData\Local\Temp\ccfXLqzg.s:1772   .text.dm_utils_json_object_item:0000000000000068 .L0 
C:\Users\stapi\AppData\Local\Temp\ccfXLqzg.s:1773   .text.dm_utils_json_object_item:0000000000000068 .L0 
C:\Users\stapi\AppData\Local\Temp\ccfXLqzg.s:1774   .text.dm_utils_json_object_item:0000000000000068 .L0 
C:\Users\stapi\AppData\Local\Temp\ccfXLqzg.s:1775   .text.dm_utils_json_object_item:0000000000000068 .L0 
C:\Users\stapi\AppData\Local\Temp\ccfXLqzg.s:1778   .text.dm_utils_json_object_item:0000000000000068 .L0 
C:\Users\stapi\AppData\Local\Temp\ccfXLqzg.s:1780   .text.dm_utils_json_object_item:0000000000000068 .L0 
C:\Users\stapi\AppData\Local\Temp\ccfXLqzg.s:1781   .text.dm_utils_json_object_item:0000000000000068 .L0 
C:\Users\stapi\AppData\Local\Temp\ccfXLqzg.s:1783   .text.dm_utils_json_object_item:000000000000006a .L0 
C:\Users\stapi\AppData\Local\Temp\ccfXLqzg.s:1788   .text.dm_utils_json_object_item:0000000000000072 .L0 
C:\Users\stapi\AppData\Local\Temp\ccfXLqzg.s:1789   .text.dm_utils_json_object_item:0000000000000072 .L0 
C:\Users\stapi\AppData\Local\Temp\ccfXLqzg.s:1790   .text.dm_utils_json_object_item:0000000000000072 .L0 
C:\Users\stapi\AppData\Local\Temp\ccfXLqzg.s:1791   .text.dm_utils_json_object_item:0000000000000072 .L0 
C:\Users\stapi\AppData\Local\Temp\ccfXLqzg.s:1792   .text.dm_utils_json_object_item:0000000000000072 .L0 
C:\Users\stapi\AppData\Local\Temp\ccfXLqzg.s:1793   .text.dm_utils_json_object_item:0000000000000072 .L0 
C:\Users\stapi\AppData\Local\Temp\ccfXLqzg.s:1794   .text.dm_utils_json_object_item:0000000000000072 .L0 
C:\Users\stapi\AppData\Local\Temp\ccfXLqzg.s:1796   .text.dm_utils_json_object_item:0000000000000072 .L0 
C:\Users\stapi\AppData\Local\Temp\ccfXLqzg.s:1799   .text.dm_utils_json_object_item:0000000000000074 .L0 
C:\Users\stapi\AppData\Local\Temp\ccfXLqzg.s:1800   .text.dm_utils_json_object_item:0000000000000076 .L0 
C:\Users\stapi\AppData\Local\Temp\ccfXLqzg.s:1807   .text.dm_utils_malloc:0000000000000000 dm_utils_malloc
C:\Users\stapi\AppData\Local\Temp\ccfXLqzg.s:1810   .text.dm_utils_malloc:0000000000000000 .L0 
C:\Users\stapi\AppData\Local\Temp\ccfXLqzg.s:1812   .text.dm_utils_malloc:0000000000000000 .L0 
C:\Users\stapi\AppData\Local\Temp\ccfXLqzg.s:1813   .text.dm_utils_malloc:0000000000000000 .L0 
C:\Users\stapi\AppData\Local\Temp\ccfXLqzg.s:1814   .text.dm_utils_malloc:0000000000000000 .L0 
C:\Users\stapi\AppData\Local\Temp\ccfXLqzg.s:1816   .text.dm_utils_malloc:0000000000000002 .L0 
C:\Users\stapi\AppData\Local\Temp\ccfXLqzg.s:1821   .text.dm_utils_malloc:000000000000000e .L0 
C:\Users\stapi\AppData\Local\Temp\ccfXLqzg.s:1828   .text.dm_utils_free:0000000000000000 dm_utils_free
C:\Users\stapi\AppData\Local\Temp\ccfXLqzg.s:1831   .text.dm_utils_free:0000000000000000 .L0 
C:\Users\stapi\AppData\Local\Temp\ccfXLqzg.s:1833   .text.dm_utils_free:0000000000000000 .L0 
C:\Users\stapi\AppData\Local\Temp\ccfXLqzg.s:1834   .text.dm_utils_free:0000000000000000 .L0 
C:\Users\stapi\AppData\Local\Temp\ccfXLqzg.s:1836   .text.dm_utils_free:0000000000000008 .L0 
C:\Users\stapi\AppData\Local\Temp\ccfXLqzg.s:91     .text.dm_utils_copy_direct:0000000000000056 .L0 
C:\Users\stapi\AppData\Local\Temp\ccfXLqzg.s:178    .text.dm_utils_copy:000000000000005e .L0 
C:\Users\stapi\AppData\Local\Temp\ccfXLqzg.s:371    .text.dm_utils_strarr_index:00000000000000c4 .L0 
C:\Users\stapi\AppData\Local\Temp\ccfXLqzg.s:485    .text.dm_utils_itoa_direct:000000000000009a .L0 
C:\Users\stapi\AppData\Local\Temp\ccfXLqzg.s:596    .text.dm_utils_itoa:00000000000000a0 .L0 
C:\Users\stapi\AppData\Local\Temp\ccfXLqzg.s:716    .text.dm_utils_ftoa_direct:00000000000000a4 .L0 
C:\Users\stapi\AppData\Local\Temp\ccfXLqzg.s:833    .text.dm_utils_ftoa:00000000000000aa .L0 
C:\Users\stapi\AppData\Local\Temp\ccfXLqzg.s:983    .text.dm_utils_hex_to_str:00000000000000a2 .L0 
C:\Users\stapi\AppData\Local\Temp\ccfXLqzg.s:1180   .text.dm_utils_str_to_hex:00000000000000ea .L0 
C:\Users\stapi\AppData\Local\Temp\ccfXLqzg.s:1257   .text.dm_utils_memtok:0000000000000040 .L0 
C:\Users\stapi\AppData\Local\Temp\ccfXLqzg.s:1307   .text.dm_utils_replace_char:0000000000000026 .L0 
C:\Users\stapi\AppData\Local\Temp\ccfXLqzg.s:1465   .text.dm_utils_service_name:00000000000000d0 .L0 
C:\Users\stapi\AppData\Local\Temp\ccfXLqzg.s:1588   .text.dm_utils_uri_add_prefix:00000000000000aa .L0 
C:\Users\stapi\AppData\Local\Temp\ccfXLqzg.s:1688   .text.dm_utils_json_parse:0000000000000066 .L0 
C:\Users\stapi\AppData\Local\Temp\ccfXLqzg.s:1803   .text.dm_utils_json_object_item:0000000000000076 .L0 
C:\Users\stapi\AppData\Local\Temp\ccfXLqzg.s:1824   .text.dm_utils_malloc:000000000000000e .L0 
C:\Users\stapi\AppData\Local\Temp\ccfXLqzg.s:1839   .text.dm_utils_free:0000000000000008 .L0 
                     .debug_frame:0000000000000000 .L0 
C:\Users\stapi\AppData\Local\Temp\ccfXLqzg.s:81     .text.dm_utils_copy_direct:0000000000000050 .L3
C:\Users\stapi\AppData\Local\Temp\ccfXLqzg.s:70     .text.dm_utils_copy_direct:0000000000000046 .L1
C:\Users\stapi\AppData\Local\Temp\ccfXLqzg.s:167    .text.dm_utils_copy:0000000000000058 .L13
C:\Users\stapi\AppData\Local\Temp\ccfXLqzg.s:155    .text.dm_utils_copy:000000000000004c .L11
C:\Users\stapi\AppData\Local\Temp\ccfXLqzg.s:359    .text.dm_utils_strarr_index:00000000000000c0 .L31
C:\Users\stapi\AppData\Local\Temp\ccfXLqzg.s:318    .text.dm_utils_strarr_index:0000000000000098 .L21
C:\Users\stapi\AppData\Local\Temp\ccfXLqzg.s:309    .text.dm_utils_strarr_index:0000000000000094 .L23
C:\Users\stapi\AppData\Local\Temp\ccfXLqzg.s:340    .text.dm_utils_strarr_index:00000000000000ac .L24
C:\Users\stapi\AppData\Local\Temp\ccfXLqzg.s:238    .text.dm_utils_strarr_index:000000000000003c .L28
C:\Users\stapi\AppData\Local\Temp\ccfXLqzg.s:314    .text.dm_utils_strarr_index:0000000000000096 .L27
C:\Users\stapi\AppData\Local\Temp\ccfXLqzg.s:274    .text.dm_utils_strarr_index:0000000000000066 .L29
C:\Users\stapi\AppData\Local\Temp\ccfXLqzg.s:281    .text.dm_utils_strarr_index:000000000000006a .L30
C:\Users\stapi\AppData\Local\Temp\ccfXLqzg.s:328    .text.dm_utils_strarr_index:00000000000000a2 .L26
C:\Users\stapi\AppData\Local\Temp\ccfXLqzg.s:246    .text.dm_utils_strarr_index:0000000000000048 .L25
C:\Users\stapi\AppData\Local\Temp\ccfXLqzg.s:373    .rodata.dm_utils_itoa_direct.str1.4:0000000000000000 .LC0
C:\Users\stapi\AppData\Local\Temp\ccfXLqzg.s:472    .text.dm_utils_itoa_direct:000000000000008e .L54
C:\Users\stapi\AppData\Local\Temp\ccfXLqzg.s:583    .text.dm_utils_itoa:0000000000000094 .L61
C:\Users\stapi\AppData\Local\Temp\ccfXLqzg.s:598    .rodata.dm_utils_ftoa_direct.str1.4:0000000000000000 .LC1
C:\Users\stapi\AppData\Local\Temp\ccfXLqzg.s:702    .text.dm_utils_ftoa_direct:0000000000000098 .L68
C:\Users\stapi\AppData\Local\Temp\ccfXLqzg.s:819    .text.dm_utils_ftoa:000000000000009e .L75
C:\Users\stapi\AppData\Local\Temp\ccfXLqzg.s:972    .text.dm_utils_hex_to_str:000000000000009c .L89
C:\Users\stapi\AppData\Local\Temp\ccfXLqzg.s:960    .text.dm_utils_hex_to_str:0000000000000090 .L82
C:\Users\stapi\AppData\Local\Temp\ccfXLqzg.s:921    .text.dm_utils_hex_to_str:0000000000000060 .L85
C:\Users\stapi\AppData\Local\Temp\ccfXLqzg.s:941    .text.dm_utils_hex_to_str:000000000000007c .L87
C:\Users\stapi\AppData\Local\Temp\ccfXLqzg.s:906    .text.dm_utils_hex_to_str:000000000000004e .L88
C:\Users\stapi\AppData\Local\Temp\ccfXLqzg.s:1164   .text.dm_utils_str_to_hex:00000000000000e4 .L106
C:\Users\stapi\AppData\Local\Temp\ccfXLqzg.s:1120   .text.dm_utils_str_to_hex:00000000000000ae .L99
C:\Users\stapi\AppData\Local\Temp\ccfXLqzg.s:1132   .text.dm_utils_str_to_hex:00000000000000b8 .L101
C:\Users\stapi\AppData\Local\Temp\ccfXLqzg.s:1148   .text.dm_utils_str_to_hex:00000000000000ce .L103
C:\Users\stapi\AppData\Local\Temp\ccfXLqzg.s:1062   .text.dm_utils_str_to_hex:0000000000000056 .L105
C:\Users\stapi\AppData\Local\Temp\ccfXLqzg.s:1074   .text.dm_utils_str_to_hex:000000000000006a .L102
C:\Users\stapi\AppData\Local\Temp\ccfXLqzg.s:1098   .text.dm_utils_str_to_hex:0000000000000096 .L104
C:\Users\stapi\AppData\Local\Temp\ccfXLqzg.s:1244   .text.dm_utils_memtok:000000000000003a .L123
C:\Users\stapi\AppData\Local\Temp\ccfXLqzg.s:1251   .text.dm_utils_memtok:000000000000003e .L118
C:\Users\stapi\AppData\Local\Temp\ccfXLqzg.s:1233   .text.dm_utils_memtok:0000000000000032 .L120
C:\Users\stapi\AppData\Local\Temp\ccfXLqzg.s:1238   .text.dm_utils_memtok:0000000000000036 .L121
C:\Users\stapi\AppData\Local\Temp\ccfXLqzg.s:1247   .text.dm_utils_memtok:000000000000003c .L126
C:\Users\stapi\AppData\Local\Temp\ccfXLqzg.s:1208   .text.dm_utils_memtok:0000000000000012 .L122
C:\Users\stapi\AppData\Local\Temp\ccfXLqzg.s:1301   .text.dm_utils_replace_char:0000000000000024 .L127
C:\Users\stapi\AppData\Local\Temp\ccfXLqzg.s:1288   .text.dm_utils_replace_char:000000000000001a .L129
C:\Users\stapi\AppData\Local\Temp\ccfXLqzg.s:1280   .text.dm_utils_replace_char:000000000000000e .L130
C:\Users\stapi\AppData\Local\Temp\ccfXLqzg.s:1452   .text.dm_utils_service_name:00000000000000c8 .L135
C:\Users\stapi\AppData\Local\Temp\ccfXLqzg.s:1355   .text.dm_utils_service_name:0000000000000030 .L136
C:\Users\stapi\AppData\Local\Temp\ccfXLqzg.s:1436   .text.dm_utils_service_name:00000000000000be .L134
C:\Users\stapi\AppData\Local\Temp\ccfXLqzg.s:1416   .text.dm_utils_service_name:000000000000009c .L138
C:\Users\stapi\AppData\Local\Temp\ccfXLqzg.s:1346   .text.dm_utils_service_name:0000000000000024 .L139
C:\Users\stapi\AppData\Local\Temp\ccfXLqzg.s:1577   .text.dm_utils_uri_add_prefix:00000000000000a4 .L156
C:\Users\stapi\AppData\Local\Temp\ccfXLqzg.s:1564   .text.dm_utils_uri_add_prefix:0000000000000098 .L154
C:\Users\stapi\AppData\Local\Temp\ccfXLqzg.s:1673   .text.dm_utils_json_parse:0000000000000062 .L169
C:\Users\stapi\AppData\Local\Temp\ccfXLqzg.s:1652   .text.dm_utils_json_parse:0000000000000050 .L165
C:\Users\stapi\AppData\Local\Temp\ccfXLqzg.s:1663   .text.dm_utils_json_parse:0000000000000058 .L167
C:\Users\stapi\AppData\Local\Temp\ccfXLqzg.s:1640   .text.dm_utils_json_parse:000000000000003e .L168
C:\Users\stapi\AppData\Local\Temp\ccfXLqzg.s:1787   .text.dm_utils_json_object_item:0000000000000072 .L185
C:\Users\stapi\AppData\Local\Temp\ccfXLqzg.s:1765   .text.dm_utils_json_object_item:0000000000000060 .L181
C:\Users\stapi\AppData\Local\Temp\ccfXLqzg.s:1777   .text.dm_utils_json_object_item:0000000000000068 .L183
C:\Users\stapi\AppData\Local\Temp\ccfXLqzg.s:1753   .text.dm_utils_json_object_item:000000000000004e .L184
C:\Users\stapi\AppData\Local\Temp\ccfXLqzg.s:4520   .debug_abbrev:0000000000000000 .Ldebug_abbrev0
C:\Users\stapi\AppData\Local\Temp\ccfXLqzg.s:6758   .debug_str:00000000000000f7 .LASF277
C:\Users\stapi\AppData\Local\Temp\ccfXLqzg.s:7302   .debug_str:0000000000001b07 .LASF278
C:\Users\stapi\AppData\Local\Temp\ccfXLqzg.s:7082   .debug_str:0000000000001056 .LASF279
C:\Users\stapi\AppData\Local\Temp\ccfXLqzg.s:6696   .debug_ranges:0000000000000000 .Ldebug_ranges0
C:\Users\stapi\AppData\Local\Temp\ccfXLqzg.s:6734   .debug_line:0000000000000000 .Ldebug_line0
C:\Users\stapi\AppData\Local\Temp\ccfXLqzg.s:7036   .debug_str:0000000000000e7f .LASF0
C:\Users\stapi\AppData\Local\Temp\ccfXLqzg.s:6842   .debug_str:000000000000060b .LASF1
C:\Users\stapi\AppData\Local\Temp\ccfXLqzg.s:6856   .debug_str:000000000000067f .LASF2
C:\Users\stapi\AppData\Local\Temp\ccfXLqzg.s:7190   .debug_str:0000000000001596 .LASF3
C:\Users\stapi\AppData\Local\Temp\ccfXLqzg.s:7262   .debug_str:0000000000001925 .LASF4
C:\Users\stapi\AppData\Local\Temp\ccfXLqzg.s:6810   .debug_str:0000000000000487 .LASF5
C:\Users\stapi\AppData\Local\Temp\ccfXLqzg.s:6988   .debug_str:0000000000000c85 .LASF6
C:\Users\stapi\AppData\Local\Temp\ccfXLqzg.s:7022   .debug_str:0000000000000df9 .LASF7
C:\Users\stapi\AppData\Local\Temp\ccfXLqzg.s:7120   .debug_str:000000000000129a .LASF8
C:\Users\stapi\AppData\Local\Temp\ccfXLqzg.s:7060   .debug_str:0000000000000f63 .LASF9
C:\Users\stapi\AppData\Local\Temp\ccfXLqzg.s:6886   .debug_str:00000000000007f8 .LASF10
C:\Users\stapi\AppData\Local\Temp\ccfXLqzg.s:6748   .debug_str:0000000000000070 .LASF280
C:\Users\stapi\AppData\Local\Temp\ccfXLqzg.s:6844   .debug_str:0000000000000617 .LASF11
C:\Users\stapi\AppData\Local\Temp\ccfXLqzg.s:7040   .debug_str:0000000000000ea6 .LASF12
C:\Users\stapi\AppData\Local\Temp\ccfXLqzg.s:7084   .debug_str:00000000000010e7 .LASF13
C:\Users\stapi\AppData\Local\Temp\ccfXLqzg.s:6930   .debug_str:00000000000009f1 .LASF14
C:\Users\stapi\AppData\Local\Temp\ccfXLqzg.s:7238   .debug_str:0000000000001802 .LASF15
C:\Users\stapi\AppData\Local\Temp\ccfXLqzg.s:7016   .debug_str:0000000000000dad .LASF16
C:\Users\stapi\AppData\Local\Temp\ccfXLqzg.s:6736   .debug_str:0000000000000000 .LASF17
C:\Users\stapi\AppData\Local\Temp\ccfXLqzg.s:7152   .debug_str:00000000000013e0 .LASF18
C:\Users\stapi\AppData\Local\Temp\ccfXLqzg.s:7258   .debug_str:0000000000001905 .LASF19
C:\Users\stapi\AppData\Local\Temp\ccfXLqzg.s:7168   .debug_str:00000000000014a6 .LASF20
C:\Users\stapi\AppData\Local\Temp\ccfXLqzg.s:7132   .debug_str:0000000000001329 .LASF21
C:\Users\stapi\AppData\Local\Temp\ccfXLqzg.s:6900   .debug_str:0000000000000872 .LASF22
C:\Users\stapi\AppData\Local\Temp\ccfXLqzg.s:7088   .debug_str:000000000000111d .LASF23
C:\Users\stapi\AppData\Local\Temp\ccfXLqzg.s:7134   .debug_str:0000000000001338 .LASF24
C:\Users\stapi\AppData\Local\Temp\ccfXLqzg.s:6986   .debug_str:0000000000000c6d .LASF25
C:\Users\stapi\AppData\Local\Temp\ccfXLqzg.s:7268   .debug_str:000000000000195e .LASF26
C:\Users\stapi\AppData\Local\Temp\ccfXLqzg.s:7024   .debug_str:0000000000000e07 .LASF27
C:\Users\stapi\AppData\Local\Temp\ccfXLqzg.s:7112   .debug_str:0000000000001229 .LASF28
C:\Users\stapi\AppData\Local\Temp\ccfXLqzg.s:6872   .debug_str:000000000000073f .LASF29
C:\Users\stapi\AppData\Local\Temp\ccfXLqzg.s:7170   .debug_str:00000000000014b5 .LASF30
C:\Users\stapi\AppData\Local\Temp\ccfXLqzg.s:6750   .debug_str:0000000000000081 .LASF31
C:\Users\stapi\AppData\Local\Temp\ccfXLqzg.s:6806   .debug_str:0000000000000448 .LASF32
C:\Users\stapi\AppData\Local\Temp\ccfXLqzg.s:7138   .debug_str:0000000000001365 .LASF33
C:\Users\stapi\AppData\Local\Temp\ccfXLqzg.s:6864   .debug_str:00000000000006d8 .LASF34
C:\Users\stapi\AppData\Local\Temp\ccfXLqzg.s:6978   .debug_str:0000000000000c27 .LASF35
C:\Users\stapi\AppData\Local\Temp\ccfXLqzg.s:7124   .debug_str:00000000000012d7 .LASF36
C:\Users\stapi\AppData\Local\Temp\ccfXLqzg.s:6768   .debug_str:0000000000000255 .LASF37
C:\Users\stapi\AppData\Local\Temp\ccfXLqzg.s:7200   .debug_str:0000000000001615 .LASF38
C:\Users\stapi\AppData\Local\Temp\ccfXLqzg.s:7068   .debug_str:0000000000000fb2 .LASF39
C:\Users\stapi\AppData\Local\Temp\ccfXLqzg.s:6894   .debug_str:000000000000081b .LASF40
C:\Users\stapi\AppData\Local\Temp\ccfXLqzg.s:6816   .debug_str:00000000000004c2 .LASF41
C:\Users\stapi\AppData\Local\Temp\ccfXLqzg.s:6792   .debug_str:0000000000000395 .LASF42
C:\Users\stapi\AppData\Local\Temp\ccfXLqzg.s:7110   .debug_str:0000000000001210 .LASF43
C:\Users\stapi\AppData\Local\Temp\ccfXLqzg.s:7212   .debug_str:00000000000016b3 .LASF44
C:\Users\stapi\AppData\Local\Temp\ccfXLqzg.s:7100   .debug_str:000000000000119b .LASF45
C:\Users\stapi\AppData\Local\Temp\ccfXLqzg.s:6738   .debug_str:000000000000000f .LASF46
C:\Users\stapi\AppData\Local\Temp\ccfXLqzg.s:6778   .debug_str:00000000000002dd .LASF47
C:\Users\stapi\AppData\Local\Temp\ccfXLqzg.s:6790   .debug_str:0000000000000376 .LASF48
C:\Users\stapi\AppData\Local\Temp\ccfXLqzg.s:7116   .debug_str:0000000000001277 .LASF49
C:\Users\stapi\AppData\Local\Temp\ccfXLqzg.s:6914   .debug_str:00000000000008fd .LASF50
C:\Users\stapi\AppData\Local\Temp\ccfXLqzg.s:7020   .debug_str:0000000000000dd7 .LASF51
C:\Users\stapi\AppData\Local\Temp\ccfXLqzg.s:6822   .debug_str:0000000000000514 .LASF52
C:\Users\stapi\AppData\Local\Temp\ccfXLqzg.s:7256   .debug_str:00000000000018e9 .LASF53
C:\Users\stapi\AppData\Local\Temp\ccfXLqzg.s:7270   .debug_str:0000000000001980 .LASF54
C:\Users\stapi\AppData\Local\Temp\ccfXLqzg.s:7188   .debug_str:000000000000157e .LASF55
C:\Users\stapi\AppData\Local\Temp\ccfXLqzg.s:7242   .debug_str:000000000000182b .LASF56
C:\Users\stapi\AppData\Local\Temp\ccfXLqzg.s:6862   .debug_str:00000000000006bf .LASF57
C:\Users\stapi\AppData\Local\Temp\ccfXLqzg.s:6916   .debug_str:000000000000091b .LASF58
C:\Users\stapi\AppData\Local\Temp\ccfXLqzg.s:7074   .debug_str:0000000000001000 .LASF59
C:\Users\stapi\AppData\Local\Temp\ccfXLqzg.s:7166   .debug_str:000000000000148e .LASF60
C:\Users\stapi\AppData\Local\Temp\ccfXLqzg.s:6926   .debug_str:00000000000009ab .LASF61
C:\Users\stapi\AppData\Local\Temp\ccfXLqzg.s:6908   .debug_str:00000000000008b6 .LASF62
C:\Users\stapi\AppData\Local\Temp\ccfXLqzg.s:7142   .debug_str:000000000000139b .LASF63
C:\Users\stapi\AppData\Local\Temp\ccfXLqzg.s:6880   .debug_str:00000000000007b8 .LASF64
C:\Users\stapi\AppData\Local\Temp\ccfXLqzg.s:6784   .debug_str:0000000000000347 .LASF65
C:\Users\stapi\AppData\Local\Temp\ccfXLqzg.s:7196   .debug_str:00000000000015d3 .LASF66
C:\Users\stapi\AppData\Local\Temp\ccfXLqzg.s:6970   .debug_str:0000000000000bcc .LASF67
C:\Users\stapi\AppData\Local\Temp\ccfXLqzg.s:6964   .debug_str:0000000000000b74 .LASF68
C:\Users\stapi\AppData\Local\Temp\ccfXLqzg.s:6868   .debug_str:0000000000000711 .LASF69
C:\Users\stapi\AppData\Local\Temp\ccfXLqzg.s:7174   .debug_str:00000000000014ed .LASF70
C:\Users\stapi\AppData\Local\Temp\ccfXLqzg.s:7194   .debug_str:00000000000015b4 .LASF71
C:\Users\stapi\AppData\Local\Temp\ccfXLqzg.s:7176   .debug_str:0000000000001507 .LASF72
C:\Users\stapi\AppData\Local\Temp\ccfXLqzg.s:6840   .debug_str:00000000000005f3 .LASF73
C:\Users\stapi\AppData\Local\Temp\ccfXLqzg.s:7248   .debug_str:000000000000186e .LASF74
C:\Users\stapi\AppData\Local\Temp\ccfXLqzg.s:7246   .debug_str:0000000000001851 .LASF75
C:\Users\stapi\AppData\Local\Temp\ccfXLqzg.s:7220   .debug_str:000000000000170b .LASF76
C:\Users\stapi\AppData\Local\Temp\ccfXLqzg.s:7254   .debug_str:00000000000018c9 .LASF77
C:\Users\stapi\AppData\Local\Temp\ccfXLqzg.s:7046   .debug_str:0000000000000edd .LASF78
C:\Users\stapi\AppData\Local\Temp\ccfXLqzg.s:7050   .debug_str:0000000000000f14 .LASF79
C:\Users\stapi\AppData\Local\Temp\ccfXLqzg.s:6936   .debug_str:0000000000000a2c .LASF80
C:\Users\stapi\AppData\Local\Temp\ccfXLqzg.s:6752   .debug_str:00000000000000a1 .LASF81
C:\Users\stapi\AppData\Local\Temp\ccfXLqzg.s:7210   .debug_str:0000000000001697 .LASF82
C:\Users\stapi\AppData\Local\Temp\ccfXLqzg.s:7094   .debug_str:000000000000114b .LASF83
C:\Users\stapi\AppData\Local\Temp\ccfXLqzg.s:6968   .debug_str:0000000000000bac .LASF84
C:\Users\stapi\AppData\Local\Temp\ccfXLqzg.s:6962   .debug_str:0000000000000b55 .LASF85
C:\Users\stapi\AppData\Local\Temp\ccfXLqzg.s:7028   .debug_str:0000000000000e42 .LASF86
C:\Users\stapi\AppData\Local\Temp\ccfXLqzg.s:6774   .debug_str:00000000000002a4 .LASF87
C:\Users\stapi\AppData\Local\Temp\ccfXLqzg.s:7250   .debug_str:0000000000001891 .LASF88
C:\Users\stapi\AppData\Local\Temp\ccfXLqzg.s:6812   .debug_str:0000000000000490 .LASF89
C:\Users\stapi\AppData\Local\Temp\ccfXLqzg.s:7078   .debug_str:0000000000001022 .LASF90
C:\Users\stapi\AppData\Local\Temp\ccfXLqzg.s:7232   .debug_str:00000000000017bd .LASF91
C:\Users\stapi\AppData\Local\Temp\ccfXLqzg.s:6762   .debug_str:00000000000001fb .LASF92
C:\Users\stapi\AppData\Local\Temp\ccfXLqzg.s:7214   .debug_str:00000000000016d1 .LASF93
C:\Users\stapi\AppData\Local\Temp\ccfXLqzg.s:7252   .debug_str:00000000000018ab .LASF94
C:\Users\stapi\AppData\Local\Temp\ccfXLqzg.s:6746   .debug_str:0000000000000056 .LASF95
C:\Users\stapi\AppData\Local\Temp\ccfXLqzg.s:7014   .debug_str:0000000000000d95 .LASF96
C:\Users\stapi\AppData\Local\Temp\ccfXLqzg.s:6820   .debug_str:00000000000004f3 .LASF97
C:\Users\stapi\AppData\Local\Temp\ccfXLqzg.s:7298   .debug_str:0000000000001ac0 .LASF98
C:\Users\stapi\AppData\Local\Temp\ccfXLqzg.s:6828   .debug_str:0000000000000555 .LASF99
C:\Users\stapi\AppData\Local\Temp\ccfXLqzg.s:7104   .debug_str:00000000000011ca .LASF100
C:\Users\stapi\AppData\Local\Temp\ccfXLqzg.s:7290   .debug_str:0000000000001a5d .LASF101
C:\Users\stapi\AppData\Local\Temp\ccfXLqzg.s:7284   .debug_str:0000000000001a01 .LASF102
C:\Users\stapi\AppData\Local\Temp\ccfXLqzg.s:6814   .debug_str:00000000000004a9 .LASF103
C:\Users\stapi\AppData\Local\Temp\ccfXLqzg.s:7048   .debug_str:0000000000000efc .LASF104
C:\Users\stapi\AppData\Local\Temp\ccfXLqzg.s:6954   .debug_str:0000000000000b0e .LASF105
C:\Users\stapi\AppData\Local\Temp\ccfXLqzg.s:6800   .debug_str:0000000000000413 .LASF106
C:\Users\stapi\AppData\Local\Temp\ccfXLqzg.s:6884   .debug_str:00000000000007da .LASF107
C:\Users\stapi\AppData\Local\Temp\ccfXLqzg.s:6796   .debug_str:00000000000003d7 .LASF108
C:\Users\stapi\AppData\Local\Temp\ccfXLqzg.s:6824   .debug_str:0000000000000527 .LASF109
C:\Users\stapi\AppData\Local\Temp\ccfXLqzg.s:7236   .debug_str:00000000000017ee .LASF110
C:\Users\stapi\AppData\Local\Temp\ccfXLqzg.s:6770   .debug_str:0000000000000273 .LASF111
C:\Users\stapi\AppData\Local\Temp\ccfXLqzg.s:6740   .debug_str:0000000000000026 .LASF112
C:\Users\stapi\AppData\Local\Temp\ccfXLqzg.s:6836   .debug_str:00000000000005cb .LASF113
C:\Users\stapi\AppData\Local\Temp\ccfXLqzg.s:7240   .debug_str:0000000000001813 .LASF114
C:\Users\stapi\AppData\Local\Temp\ccfXLqzg.s:6804   .debug_str:0000000000000430 .LASF115
C:\Users\stapi\AppData\Local\Temp\ccfXLqzg.s:6948   .debug_str:0000000000000ac9 .LASF116
C:\Users\stapi\AppData\Local\Temp\ccfXLqzg.s:6756   .debug_str:00000000000000e1 .LASF117
C:\Users\stapi\AppData\Local\Temp\ccfXLqzg.s:6834   .debug_str:00000000000005ae .LASF118
C:\Users\stapi\AppData\Local\Temp\ccfXLqzg.s:7198   .debug_str:00000000000015f7 .LASF119
C:\Users\stapi\AppData\Local\Temp\ccfXLqzg.s:6924   .debug_str:0000000000000983 .LASF120
C:\Users\stapi\AppData\Local\Temp\ccfXLqzg.s:7228   .debug_str:000000000000177a .LASF121
C:\Users\stapi\AppData\Local\Temp\ccfXLqzg.s:6898   .debug_str:000000000000085a .LASF122
C:\Users\stapi\AppData\Local\Temp\ccfXLqzg.s:7230   .debug_str:00000000000017a2 .LASF123
C:\Users\stapi\AppData\Local\Temp\ccfXLqzg.s:6944   .debug_str:0000000000000a8e .LASF124
C:\Users\stapi\AppData\Local\Temp\ccfXLqzg.s:6866   .debug_str:00000000000006f1 .LASF125
C:\Users\stapi\AppData\Local\Temp\ccfXLqzg.s:6794   .debug_str:00000000000003b0 .LASF126
C:\Users\stapi\AppData\Local\Temp\ccfXLqzg.s:7018   .debug_str:0000000000000dbf .LASF127
C:\Users\stapi\AppData\Local\Temp\ccfXLqzg.s:7098   .debug_str:000000000000117b .LASF128
C:\Users\stapi\AppData\Local\Temp\ccfXLqzg.s:6912   .debug_str:00000000000008e2 .LASF129
C:\Users\stapi\AppData\Local\Temp\ccfXLqzg.s:7114   .debug_str:000000000000125a .LASF130
C:\Users\stapi\AppData\Local\Temp\ccfXLqzg.s:6876   .debug_str:0000000000000780 .LASF131
C:\Users\stapi\AppData\Local\Temp\ccfXLqzg.s:7086   .debug_str:00000000000010fe .LASF132
C:\Users\stapi\AppData\Local\Temp\ccfXLqzg.s:6808   .debug_str:000000000000046a .LASF133
C:\Users\stapi\AppData\Local\Temp\ccfXLqzg.s:6798   .debug_str:00000000000003f5 .LASF134
C:\Users\stapi\AppData\Local\Temp\ccfXLqzg.s:6938   .debug_str:0000000000000a4d .LASF135
C:\Users\stapi\AppData\Local\Temp\ccfXLqzg.s:6994   .debug_str:0000000000000cda .LASF136
C:\Users\stapi\AppData\Local\Temp\ccfXLqzg.s:7234   .debug_str:00000000000017d7 .LASF137
C:\Users\stapi\AppData\Local\Temp\ccfXLqzg.s:7282   .debug_str:00000000000019ea .LASF138
C:\Users\stapi\AppData\Local\Temp\ccfXLqzg.s:7038   .debug_str:0000000000000e86 .LASF139
C:\Users\stapi\AppData\Local\Temp\ccfXLqzg.s:6832   .debug_str:000000000000058d .LASF140
C:\Users\stapi\AppData\Local\Temp\ccfXLqzg.s:6946   .debug_str:0000000000000aaf .LASF141
C:\Users\stapi\AppData\Local\Temp\ccfXLqzg.s:7144   .debug_str:00000000000013b3 .LASF142
C:\Users\stapi\AppData\Local\Temp\ccfXLqzg.s:6780   .debug_str:00000000000002fb .LASF143
C:\Users\stapi\AppData\Local\Temp\ccfXLqzg.s:7274   .debug_str:00000000000019a2 .LASF144
C:\Users\stapi\AppData\Local\Temp\ccfXLqzg.s:7206   .debug_str:0000000000001655 .LASF145
C:\Users\stapi\AppData\Local\Temp\ccfXLqzg.s:6920   .debug_str:000000000000094f .LASF146
C:\Users\stapi\AppData\Local\Temp\ccfXLqzg.s:6850   .debug_str:0000000000000642 .LASF147
C:\Users\stapi\AppData\Local\Temp\ccfXLqzg.s:7226   .debug_str:0000000000001756 .LASF148
C:\Users\stapi\AppData\Local\Temp\ccfXLqzg.s:6952   .debug_str:0000000000000aed .LASF149
C:\Users\stapi\AppData\Local\Temp\ccfXLqzg.s:7010   .debug_str:0000000000000d62 .LASF150
C:\Users\stapi\AppData\Local\Temp\ccfXLqzg.s:7026   .debug_str:0000000000000e22 .LASF151
C:\Users\stapi\AppData\Local\Temp\ccfXLqzg.s:6776   .debug_str:00000000000002bb .LASF152
C:\Users\stapi\AppData\Local\Temp\ccfXLqzg.s:7208   .debug_str:0000000000001676 .LASF153
C:\Users\stapi\AppData\Local\Temp\ccfXLqzg.s:7296   .debug_str:0000000000001a9f .LASF154
C:\Users\stapi\AppData\Local\Temp\ccfXLqzg.s:6896   .debug_str:0000000000000837 .LASF155
C:\Users\stapi\AppData\Local\Temp\ccfXLqzg.s:6974   .debug_str:0000000000000bf1 .LASF156
C:\Users\stapi\AppData\Local\Temp\ccfXLqzg.s:6766   .debug_str:0000000000000232 .LASF157
C:\Users\stapi\AppData\Local\Temp\ccfXLqzg.s:7062   .debug_str:0000000000000f70 .LASF158
C:\Users\stapi\AppData\Local\Temp\ccfXLqzg.s:7122   .debug_str:00000000000012b1 .LASF159
C:\Users\stapi\AppData\Local\Temp\ccfXLqzg.s:7292   .debug_str:0000000000001a7c .LASF160
C:\Users\stapi\AppData\Local\Temp\ccfXLqzg.s:7164   .debug_str:0000000000001464 .LASF161
C:\Users\stapi\AppData\Local\Temp\ccfXLqzg.s:6858   .debug_str:000000000000068d .LASF162
C:\Users\stapi\AppData\Local\Temp\ccfXLqzg.s:6932   .debug_str:0000000000000a0a .LASF163
C:\Users\stapi\AppData\Local\Temp\ccfXLqzg.s:7178   .debug_str:000000000000151c .LASF164
C:\Users\stapi\AppData\Local\Temp\ccfXLqzg.s:7008   .debug_str:0000000000000d46 .LASF165
C:\Users\stapi\AppData\Local\Temp\ccfXLqzg.s:7072   .debug_str:0000000000000fdd .LASF166
C:\Users\stapi\AppData\Local\Temp\ccfXLqzg.s:6928   .debug_str:00000000000009cb .LASF167
C:\Users\stapi\AppData\Local\Temp\ccfXLqzg.s:7140   .debug_str:0000000000001378 .LASF168
C:\Users\stapi\AppData\Local\Temp\ccfXLqzg.s:7130   .debug_str:0000000000001313 .LASF169
C:\Users\stapi\AppData\Local\Temp\ccfXLqzg.s:7202   .debug_str:0000000000001630 .LASF170
C:\Users\stapi\AppData\Local\Temp\ccfXLqzg.s:6830   .debug_str:0000000000000570 .LASF171
C:\Users\stapi\AppData\Local\Temp\ccfXLqzg.s:6990   .debug_str:0000000000000c97 .LASF172
C:\Users\stapi\AppData\Local\Temp\ccfXLqzg.s:7224   .debug_str:0000000000001735 .LASF173
C:\Users\stapi\AppData\Local\Temp\ccfXLqzg.s:6942   .debug_str:0000000000000a70 .LASF174
C:\Users\stapi\AppData\Local\Temp\ccfXLqzg.s:7300   .debug_str:0000000000001ae1 .LASF175
C:\Users\stapi\AppData\Local\Temp\ccfXLqzg.s:6878   .debug_str:000000000000079b .LASF176
C:\Users\stapi\AppData\Local\Temp\ccfXLqzg.s:6760   .debug_str:00000000000001de .LASF177
C:\Users\stapi\AppData\Local\Temp\ccfXLqzg.s:7000   .debug_str:0000000000000d10 .LASF178
C:\Users\stapi\AppData\Local\Temp\ccfXLqzg.s:6874   .debug_str:0000000000000766 .LASF179
C:\Users\stapi\AppData\Local\Temp\ccfXLqzg.s:6838   .debug_str:00000000000005e6 .LASF180
C:\Users\stapi\AppData\Local\Temp\ccfXLqzg.s:7286   .debug_str:0000000000001a17 .LASF181
C:\Users\stapi\AppData\Local\Temp\ccfXLqzg.s:7160   .debug_str:000000000000141a .LASF182
C:\Users\stapi\AppData\Local\Temp\ccfXLqzg.s:6782   .debug_str:000000000000031a .LASF183
C:\Users\stapi\AppData\Local\Temp\ccfXLqzg.s:7288   .debug_str:0000000000001a2b .LASF184
C:\Users\stapi\AppData\Local\Temp\ccfXLqzg.s:7156   .debug_str:00000000000013ff .LASF185
C:\Users\stapi\AppData\Local\Temp\ccfXLqzg.s:7064   .debug_str:0000000000000f90 .LASF186
C:\Users\stapi\AppData\Local\Temp\ccfXLqzg.s:7012   .debug_str:0000000000000d84 .LASF187
C:\Users\stapi\AppData\Local\Temp\ccfXLqzg.s:6772   .debug_str:0000000000000293 .LASF188
C:\Users\stapi\AppData\Local\Temp\ccfXLqzg.s:6890   .debug_str:0000000000000804 .LASF189
C:\Users\stapi\AppData\Local\Temp\ccfXLqzg.s:7260   .debug_str:0000000000001914 .LASF190
C:\Users\stapi\AppData\Local\Temp\ccfXLqzg.s:7070   .debug_str:0000000000000fc3 .LASF191
C:\Users\stapi\AppData\Local\Temp\ccfXLqzg.s:6982   .debug_str:0000000000000c50 .LASF192
C:\Users\stapi\AppData\Local\Temp\ccfXLqzg.s:7272   .debug_str:0000000000001997 .LASF193
C:\Users\stapi\AppData\Local\Temp\ccfXLqzg.s:7172   .debug_str:00000000000014db .LASF194
C:\Users\stapi\AppData\Local\Temp\ccfXLqzg.s:7278   .debug_str:00000000000019d1 .LASF195
C:\Users\stapi\AppData\Local\Temp\ccfXLqzg.s:7058   .debug_str:0000000000000f57 .LASF196
C:\Users\stapi\AppData\Local\Temp\ccfXLqzg.s:6998   .debug_str:0000000000000d01 .LASF197
C:\Users\stapi\AppData\Local\Temp\ccfXLqzg.s:6934   .debug_str:0000000000000a1e .LASF281
C:\Users\stapi\AppData\Local\Temp\ccfXLqzg.s:6786   .debug_str:0000000000000366 .LASF198
C:\Users\stapi\AppData\Local\Temp\ccfXLqzg.s:6882   .debug_str:00000000000007d4 .LASF199
C:\Users\stapi\AppData\Local\Temp\ccfXLqzg.s:7204   .debug_str:0000000000001648 .LASF200
C:\Users\stapi\AppData\Local\Temp\ccfXLqzg.s:7118   .debug_str:0000000000001295 .LASF201
C:\Users\stapi\AppData\Local\Temp\ccfXLqzg.s:7106   .debug_str:00000000000011ec .LASF202
C:\Users\stapi\AppData\Local\Temp\ccfXLqzg.s:7056   .debug_str:0000000000000f4d .LASF203
C:\Users\stapi\AppData\Local\Temp\ccfXLqzg.s:7066   .debug_str:0000000000000fa5 .LASF282
C:\Users\stapi\AppData\Local\Temp\ccfXLqzg.s:7218   .debug_str:00000000000016f1 .LASF204
C:\Users\stapi\AppData\Local\Temp\ccfXLqzg.s:6966   .debug_str:0000000000000b92 .LASF205
C:\Users\stapi\AppData\Local\Temp\ccfXLqzg.s:6754   .debug_str:00000000000000c9 .LASF206
C:\Users\stapi\AppData\Local\Temp\ccfXLqzg.s:7044   .debug_str:0000000000000ec5 .LASF207
C:\Users\stapi\AppData\Local\Temp\ccfXLqzg.s:6992   .debug_str:0000000000000cbf .LASF208
C:\Users\stapi\AppData\Local\Temp\ccfXLqzg.s:7266   .debug_str:0000000000001943 .LASF209
C:\Users\stapi\AppData\Local\Temp\ccfXLqzg.s:7108   .debug_str:00000000000011f9 .LASF210
C:\Users\stapi\AppData\Local\Temp\ccfXLqzg.s:6918   .debug_str:0000000000000935 .LASF211
C:\Users\stapi\AppData\Local\Temp\ccfXLqzg.s:7276   .debug_str:00000000000019b8 .LASF212
C:\Users\stapi\AppData\Local\Temp\ccfXLqzg.s:7136   .debug_str:0000000000001350 .LASF213
C:\Users\stapi\AppData\Local\Temp\ccfXLqzg.s:6904   .debug_str:0000000000000895 .LASF214
C:\Users\stapi\AppData\Local\Temp\ccfXLqzg.s:7002   .debug_str:0000000000000d1d .LASF215
C:\Users\stapi\AppData\Local\Temp\ccfXLqzg.s:7034   .debug_str:0000000000000e71 .LASF283
C:\Users\stapi\AppData\Local\Temp\ccfXLqzg.s:1829   .text.dm_utils_free:0000000000000000 .LFB36
C:\Users\stapi\AppData\Local\Temp\ccfXLqzg.s:1837   .text.dm_utils_free:0000000000000008 .LFE36
C:\Users\stapi\AppData\Local\Temp\ccfXLqzg.s:5087   .debug_loc:0000000000000000 .LLST70
C:\Users\stapi\AppData\Local\Temp\ccfXLqzg.s:1835   .text.dm_utils_free:0000000000000008 .LVL206
C:\Users\stapi\AppData\Local\Temp\ccfXLqzg.s:7030   .debug_str:0000000000000e56 .LASF216
C:\Users\stapi\AppData\Local\Temp\ccfXLqzg.s:1808   .text.dm_utils_malloc:0000000000000000 .LFB35
C:\Users\stapi\AppData\Local\Temp\ccfXLqzg.s:1822   .text.dm_utils_malloc:000000000000000e .LFE35
C:\Users\stapi\AppData\Local\Temp\ccfXLqzg.s:5101   .debug_loc:0000000000000021 .LLST69
C:\Users\stapi\AppData\Local\Temp\ccfXLqzg.s:1820   .text.dm_utils_malloc:000000000000000e .LVL204
C:\Users\stapi\AppData\Local\Temp\ccfXLqzg.s:7080   .debug_str:000000000000103c .LASF217
C:\Users\stapi\AppData\Local\Temp\ccfXLqzg.s:1693   .text.dm_utils_json_object_item:0000000000000000 .LFB34
C:\Users\stapi\AppData\Local\Temp\ccfXLqzg.s:1801   .text.dm_utils_json_object_item:0000000000000076 .LFE34
C:\Users\stapi\AppData\Local\Temp\ccfXLqzg.s:7090   .debug_str:000000000000113b .LASF218
C:\Users\stapi\AppData\Local\Temp\ccfXLqzg.s:5119   .debug_loc:000000000000004d .LLST63
C:\Users\stapi\AppData\Local\Temp\ccfXLqzg.s:5141   .debug_loc:0000000000000084 .LLST64
C:\Users\stapi\AppData\Local\Temp\ccfXLqzg.s:7280   .debug_str:00000000000019e2 .LASF219
C:\Users\stapi\AppData\Local\Temp\ccfXLqzg.s:5167   .debug_loc:00000000000000c6 .LLST65
C:\Users\stapi\AppData\Local\Temp\ccfXLqzg.s:5193   .debug_loc:0000000000000108 .LLST66
C:\Users\stapi\AppData\Local\Temp\ccfXLqzg.s:7244   .debug_str:0000000000001847 .LASF220
C:\Users\stapi\AppData\Local\Temp\ccfXLqzg.s:5219   .debug_loc:000000000000014a .LLST67
C:\Users\stapi\AppData\Local\Temp\ccfXLqzg.s:5234   .debug_loc:0000000000000173 .LLST68
C:\Users\stapi\AppData\Local\Temp\ccfXLqzg.s:1741   .text.dm_utils_json_object_item:000000000000003c .LVL194
C:\Users\stapi\AppData\Local\Temp\ccfXLqzg.s:1749   .text.dm_utils_json_object_item:000000000000004c .LVL195
C:\Users\stapi\AppData\Local\Temp\ccfXLqzg.s:1760   .text.dm_utils_json_object_item:000000000000005e .LVL197
C:\Users\stapi\AppData\Local\Temp\ccfXLqzg.s:7192   .debug_str:00000000000015a0 .LASF221
C:\Users\stapi\AppData\Local\Temp\ccfXLqzg.s:1593   .text.dm_utils_json_parse:0000000000000000 .LFB33
C:\Users\stapi\AppData\Local\Temp\ccfXLqzg.s:1686   .text.dm_utils_json_parse:0000000000000066 .LFE33
C:\Users\stapi\AppData\Local\Temp\ccfXLqzg.s:7006   .debug_str:0000000000000d3e .LASF222
C:\Users\stapi\AppData\Local\Temp\ccfXLqzg.s:5255   .debug_loc:00000000000001a9 .LLST58
C:\Users\stapi\AppData\Local\Temp\ccfXLqzg.s:7004   .debug_str:0000000000000d32 .LASF223
C:\Users\stapi\AppData\Local\Temp\ccfXLqzg.s:5277   .debug_loc:00000000000001e0 .LLST59
C:\Users\stapi\AppData\Local\Temp\ccfXLqzg.s:5292   .debug_loc:0000000000000209 .LLST60
C:\Users\stapi\AppData\Local\Temp\ccfXLqzg.s:5318   .debug_loc:000000000000024b .LLST61
C:\Users\stapi\AppData\Local\Temp\ccfXLqzg.s:5344   .debug_loc:000000000000028d .LLST62
C:\Users\stapi\AppData\Local\Temp\ccfXLqzg.s:1629   .text.dm_utils_json_parse:000000000000002e .LVL181
C:\Users\stapi\AppData\Local\Temp\ccfXLqzg.s:1636   .text.dm_utils_json_parse:000000000000003c .LVL182
C:\Users\stapi\AppData\Local\Temp\ccfXLqzg.s:1647   .text.dm_utils_json_parse:000000000000004e .LVL184
C:\Users\stapi\AppData\Local\Temp\ccfXLqzg.s:6764   .debug_str:000000000000021a .LASF224
C:\Users\stapi\AppData\Local\Temp\ccfXLqzg.s:1470   .text.dm_utils_uri_add_prefix:0000000000000000 .LFB32
C:\Users\stapi\AppData\Local\Temp\ccfXLqzg.s:1586   .text.dm_utils_uri_add_prefix:00000000000000aa .LFE32
C:\Users\stapi\AppData\Local\Temp\ccfXLqzg.s:6950   .debug_str:0000000000000ae6 .LASF225
C:\Users\stapi\AppData\Local\Temp\ccfXLqzg.s:5365   .debug_loc:00000000000002c3 .LLST54
C:\Users\stapi\AppData\Local\Temp\ccfXLqzg.s:5394   .debug_loc:0000000000000308 .LLST55
C:\Users\stapi\AppData\Local\Temp\ccfXLqzg.s:7294   .debug_str:0000000000001a97 .LASF226
C:\Users\stapi\AppData\Local\Temp\ccfXLqzg.s:5409   .debug_loc:0000000000000331 .LLST56
C:\Users\stapi\AppData\Local\Temp\ccfXLqzg.s:6744   .debug_str:000000000000004a .LASF227
C:\Users\stapi\AppData\Local\Temp\ccfXLqzg.s:5431   .debug_loc:0000000000000368 .LLST57
C:\Users\stapi\AppData\Local\Temp\ccfXLqzg.s:1503   .text.dm_utils_uri_add_prefix:0000000000000024 .LVL163
C:\Users\stapi\AppData\Local\Temp\ccfXLqzg.s:1508   .text.dm_utils_uri_add_prefix:0000000000000030 .LVL164
C:\Users\stapi\AppData\Local\Temp\ccfXLqzg.s:1520   .text.dm_utils_uri_add_prefix:0000000000000044 .LVL166
C:\Users\stapi\AppData\Local\Temp\ccfXLqzg.s:1532   .text.dm_utils_uri_add_prefix:0000000000000056 .LVL167
C:\Users\stapi\AppData\Local\Temp\ccfXLqzg.s:1536   .text.dm_utils_uri_add_prefix:0000000000000060 .LVL168
C:\Users\stapi\AppData\Local\Temp\ccfXLqzg.s:1541   .text.dm_utils_uri_add_prefix:000000000000006e .LVL169
C:\Users\stapi\AppData\Local\Temp\ccfXLqzg.s:1549   .text.dm_utils_uri_add_prefix:000000000000007a .LVL171
C:\Users\stapi\AppData\Local\Temp\ccfXLqzg.s:1554   .text.dm_utils_uri_add_prefix:0000000000000086 .LVL172
C:\Users\stapi\AppData\Local\Temp\ccfXLqzg.s:1559   .text.dm_utils_uri_add_prefix:0000000000000096 .LVL173
C:\Users\stapi\AppData\Local\Temp\ccfXLqzg.s:7186   .debug_str:0000000000001568 .LASF228
C:\Users\stapi\AppData\Local\Temp\ccfXLqzg.s:1312   .text.dm_utils_service_name:0000000000000000 .LFB31
C:\Users\stapi\AppData\Local\Temp\ccfXLqzg.s:1463   .text.dm_utils_service_name:00000000000000d0 .LFE31
C:\Users\stapi\AppData\Local\Temp\ccfXLqzg.s:5453   .debug_loc:000000000000039f .LLST47
C:\Users\stapi\AppData\Local\Temp\ccfXLqzg.s:7180   .debug_str:0000000000001542 .LASF229
C:\Users\stapi\AppData\Local\Temp\ccfXLqzg.s:5468   .debug_loc:00000000000003c8 .LLST48
C:\Users\stapi\AppData\Local\Temp\ccfXLqzg.s:6906   .debug_str:00000000000008aa .LASF230
C:\Users\stapi\AppData\Local\Temp\ccfXLqzg.s:5483   .debug_loc:00000000000003f1 .LLST49
C:\Users\stapi\AppData\Local\Temp\ccfXLqzg.s:6940   .debug_str:0000000000000a64 .LASF231
C:\Users\stapi\AppData\Local\Temp\ccfXLqzg.s:5498   .debug_loc:000000000000041a .LLST50
C:\Users\stapi\AppData\Local\Temp\ccfXLqzg.s:7042   .debug_str:0000000000000eb8 .LASF232
C:\Users\stapi\AppData\Local\Temp\ccfXLqzg.s:5513   .debug_loc:0000000000000443 .LLST51
C:\Users\stapi\AppData\Local\Temp\ccfXLqzg.s:6788   .debug_str:000000000000036b .LASF233
C:\Users\stapi\AppData\Local\Temp\ccfXLqzg.s:5528   .debug_loc:000000000000046c .LLST52
C:\Users\stapi\AppData\Local\Temp\ccfXLqzg.s:6854   .debug_str:0000000000000676 .LASF284
C:\Users\stapi\AppData\Local\Temp\ccfXLqzg.s:6958   .debug_str:0000000000000b34 .LASF234
C:\Users\stapi\AppData\Local\Temp\ccfXLqzg.s:5540   .debug_loc:000000000000048b .LLST53
C:\Users\stapi\AppData\Local\Temp\ccfXLqzg.s:1338   .text.dm_utils_service_name:000000000000001c .LVL147
C:\Users\stapi\AppData\Local\Temp\ccfXLqzg.s:1350   .text.dm_utils_service_name:000000000000002e .LVL150
C:\Users\stapi\AppData\Local\Temp\ccfXLqzg.s:1371   .text.dm_utils_service_name:000000000000004e .LVL152
C:\Users\stapi\AppData\Local\Temp\ccfXLqzg.s:1381   .text.dm_utils_service_name:000000000000005e .LVL153
C:\Users\stapi\AppData\Local\Temp\ccfXLqzg.s:1392   .text.dm_utils_service_name:0000000000000070 .LVL155
C:\Users\stapi\AppData\Local\Temp\ccfXLqzg.s:1404   .text.dm_utils_service_name:0000000000000084 .LVL156
C:\Users\stapi\AppData\Local\Temp\ccfXLqzg.s:1415   .text.dm_utils_service_name:000000000000009c .LVL157
C:\Users\stapi\AppData\Local\Temp\ccfXLqzg.s:1429   .text.dm_utils_service_name:00000000000000b0 .LVL159
C:\Users\stapi\AppData\Local\Temp\ccfXLqzg.s:1435   .text.dm_utils_service_name:00000000000000be .LVL160
C:\Users\stapi\AppData\Local\Temp\ccfXLqzg.s:7128   .debug_str:00000000000012fd .LASF235
C:\Users\stapi\AppData\Local\Temp\ccfXLqzg.s:1262   .text.dm_utils_replace_char:0000000000000000 .LFB30
C:\Users\stapi\AppData\Local\Temp\ccfXLqzg.s:1305   .text.dm_utils_replace_char:0000000000000026 .LFE30
C:\Users\stapi\AppData\Local\Temp\ccfXLqzg.s:7146   .debug_str:00000000000013c7 .LASF236
C:\Users\stapi\AppData\Local\Temp\ccfXLqzg.s:5547   .debug_loc:000000000000049e .LLST44
C:\Users\stapi\AppData\Local\Temp\ccfXLqzg.s:7158   .debug_str:0000000000001410 .LASF237
C:\Users\stapi\AppData\Local\Temp\ccfXLqzg.s:5569   .debug_loc:00000000000004d5 .LLST45
C:\Users\stapi\AppData\Local\Temp\ccfXLqzg.s:7150   .debug_str:00000000000013db .LASF238
C:\Users\stapi\AppData\Local\Temp\ccfXLqzg.s:6972   .debug_str:0000000000000beb .LASF239
C:\Users\stapi\AppData\Local\Temp\ccfXLqzg.s:5587   .debug_loc:0000000000000501 .LLST46
C:\Users\stapi\AppData\Local\Temp\ccfXLqzg.s:6960   .debug_str:0000000000000b45 .LASF240
C:\Users\stapi\AppData\Local\Temp\ccfXLqzg.s:1185   .text.dm_utils_memtok:0000000000000000 .LFB29
C:\Users\stapi\AppData\Local\Temp\ccfXLqzg.s:1255   .text.dm_utils_memtok:0000000000000040 .LFE29
C:\Users\stapi\AppData\Local\Temp\ccfXLqzg.s:5632   .debug_loc:0000000000000556 .LLST41
C:\Users\stapi\AppData\Local\Temp\ccfXLqzg.s:6846   .debug_str:000000000000062e .LASF241
C:\Users\stapi\AppData\Local\Temp\ccfXLqzg.s:7076   .debug_str:000000000000101b .LASF242
C:\Users\stapi\AppData\Local\Temp\ccfXLqzg.s:7092   .debug_str:0000000000001140 .LASF243
C:\Users\stapi\AppData\Local\Temp\ccfXLqzg.s:5643   .debug_loc:0000000000000574 .LLST42
C:\Users\stapi\AppData\Local\Temp\ccfXLqzg.s:7052   .debug_str:0000000000000f32 .LASF244
C:\Users\stapi\AppData\Local\Temp\ccfXLqzg.s:5662   .debug_loc:00000000000005a1 .LLST43
C:\Users\stapi\AppData\Local\Temp\ccfXLqzg.s:7184   .debug_str:0000000000001554 .LASF245
C:\Users\stapi\AppData\Local\Temp\ccfXLqzg.s:988    .text.dm_utils_str_to_hex:0000000000000000 .LFB28
C:\Users\stapi\AppData\Local\Temp\ccfXLqzg.s:1178   .text.dm_utils_str_to_hex:00000000000000ea .LFE28
C:\Users\stapi\AppData\Local\Temp\ccfXLqzg.s:5683   .debug_loc:00000000000005d7 .LLST35
C:\Users\stapi\AppData\Local\Temp\ccfXLqzg.s:5716   .debug_loc:0000000000000627 .LLST36
C:\Users\stapi\AppData\Local\Temp\ccfXLqzg.s:6892   .debug_str:0000000000000814 .LASF246
C:\Users\stapi\AppData\Local\Temp\ccfXLqzg.s:5731   .debug_loc:0000000000000650 .LLST37
C:\Users\stapi\AppData\Local\Temp\ccfXLqzg.s:7264   .debug_str:0000000000001938 .LASF247
C:\Users\stapi\AppData\Local\Temp\ccfXLqzg.s:5757   .debug_loc:0000000000000692 .LLST38
C:\Users\stapi\AppData\Local\Temp\ccfXLqzg.s:5783   .debug_loc:00000000000006d4 .LLST39
C:\Users\stapi\AppData\Local\Temp\ccfXLqzg.s:6848   .debug_str:0000000000000638 .LASF248
C:\Users\stapi\AppData\Local\Temp\ccfXLqzg.s:5814   .debug_loc:0000000000000722 .LLST40
C:\Users\stapi\AppData\Local\Temp\ccfXLqzg.s:1037   .text.dm_utils_str_to_hex:0000000000000038 .LVL116
C:\Users\stapi\AppData\Local\Temp\ccfXLqzg.s:1049   .text.dm_utils_str_to_hex:000000000000004c .LVL117
C:\Users\stapi\AppData\Local\Temp\ccfXLqzg.s:7096   .debug_str:0000000000001167 .LASF249
C:\Users\stapi\AppData\Local\Temp\ccfXLqzg.s:838    .text.dm_utils_hex_to_str:0000000000000000 .LFB27
C:\Users\stapi\AppData\Local\Temp\ccfXLqzg.s:981    .text.dm_utils_hex_to_str:00000000000000a2 .LFE27
C:\Users\stapi\AppData\Local\Temp\ccfXLqzg.s:5843   .debug_loc:000000000000076e .LLST29
C:\Users\stapi\AppData\Local\Temp\ccfXLqzg.s:5872   .debug_loc:00000000000007b3 .LLST30
C:\Users\stapi\AppData\Local\Temp\ccfXLqzg.s:5894   .debug_loc:00000000000007ea .LLST31
C:\Users\stapi\AppData\Local\Temp\ccfXLqzg.s:5916   .debug_loc:0000000000000821 .LLST32
C:\Users\stapi\AppData\Local\Temp\ccfXLqzg.s:5948   .debug_loc:0000000000000862 .LLST33
C:\Users\stapi\AppData\Local\Temp\ccfXLqzg.s:5976   .debug_loc:000000000000089f .LLST34
C:\Users\stapi\AppData\Local\Temp\ccfXLqzg.s:883    .text.dm_utils_hex_to_str:0000000000000032 .LVL99
C:\Users\stapi\AppData\Local\Temp\ccfXLqzg.s:897    .text.dm_utils_hex_to_str:0000000000000048 .LVL101
C:\Users\stapi\AppData\Local\Temp\ccfXLqzg.s:6870   .debug_str:0000000000000731 .LASF250
C:\Users\stapi\AppData\Local\Temp\ccfXLqzg.s:721    .text.dm_utils_ftoa:0000000000000000 .LFB26
C:\Users\stapi\AppData\Local\Temp\ccfXLqzg.s:831    .text.dm_utils_ftoa:00000000000000aa .LFE26
C:\Users\stapi\AppData\Local\Temp\ccfXLqzg.s:6005   .debug_loc:00000000000008eb .LLST26
C:\Users\stapi\AppData\Local\Temp\ccfXLqzg.s:6026   .debug_loc:0000000000000913 .LLST27
C:\Users\stapi\AppData\Local\Temp\ccfXLqzg.s:6037   .debug_loc:0000000000000931 .LLST28
C:\Users\stapi\AppData\Local\Temp\ccfXLqzg.s:6902   .debug_str:0000000000000889 .LASF251
C:\Users\stapi\AppData\Local\Temp\ccfXLqzg.s:749    .text.dm_utils_ftoa:0000000000000020 .LVL85
C:\Users\stapi\AppData\Local\Temp\ccfXLqzg.s:770    .text.dm_utils_ftoa:0000000000000042 .LVL86
C:\Users\stapi\AppData\Local\Temp\ccfXLqzg.s:781    .text.dm_utils_ftoa:0000000000000052 .LVL88
C:\Users\stapi\AppData\Local\Temp\ccfXLqzg.s:786    .text.dm_utils_ftoa:0000000000000062 .LVL89
C:\Users\stapi\AppData\Local\Temp\ccfXLqzg.s:800    .text.dm_utils_ftoa:0000000000000074 .LVL90
C:\Users\stapi\AppData\Local\Temp\ccfXLqzg.s:806    .text.dm_utils_ftoa:0000000000000084 .LVL91
C:\Users\stapi\AppData\Local\Temp\ccfXLqzg.s:810    .text.dm_utils_ftoa:000000000000008e .LVL92
C:\Users\stapi\AppData\Local\Temp\ccfXLqzg.s:815    .text.dm_utils_ftoa:000000000000009c .LVL93
C:\Users\stapi\AppData\Local\Temp\ccfXLqzg.s:7054   .debug_str:0000000000000f38 .LASF252
C:\Users\stapi\AppData\Local\Temp\ccfXLqzg.s:605    .text.dm_utils_ftoa_direct:0000000000000000 .LFB25
C:\Users\stapi\AppData\Local\Temp\ccfXLqzg.s:714    .text.dm_utils_ftoa_direct:00000000000000a4 .LFE25
C:\Users\stapi\AppData\Local\Temp\ccfXLqzg.s:6049   .debug_loc:0000000000000950 .LLST23
C:\Users\stapi\AppData\Local\Temp\ccfXLqzg.s:6070   .debug_loc:0000000000000978 .LLST24
C:\Users\stapi\AppData\Local\Temp\ccfXLqzg.s:6081   .debug_loc:0000000000000996 .LLST25
C:\Users\stapi\AppData\Local\Temp\ccfXLqzg.s:633    .text.dm_utils_ftoa_direct:0000000000000020 .LVL72
C:\Users\stapi\AppData\Local\Temp\ccfXLqzg.s:654    .text.dm_utils_ftoa_direct:0000000000000042 .LVL73
C:\Users\stapi\AppData\Local\Temp\ccfXLqzg.s:665    .text.dm_utils_ftoa_direct:0000000000000052 .LVL75
C:\Users\stapi\AppData\Local\Temp\ccfXLqzg.s:669    .text.dm_utils_ftoa_direct:000000000000005c .LVL76
C:\Users\stapi\AppData\Local\Temp\ccfXLqzg.s:683    .text.dm_utils_ftoa_direct:000000000000006e .LVL77
C:\Users\stapi\AppData\Local\Temp\ccfXLqzg.s:689    .text.dm_utils_ftoa_direct:000000000000007e .LVL78
C:\Users\stapi\AppData\Local\Temp\ccfXLqzg.s:693    .text.dm_utils_ftoa_direct:0000000000000088 .LVL79
C:\Users\stapi\AppData\Local\Temp\ccfXLqzg.s:698    .text.dm_utils_ftoa_direct:0000000000000096 .LVL80
C:\Users\stapi\AppData\Local\Temp\ccfXLqzg.s:7148   .debug_str:00000000000013cd .LASF253
C:\Users\stapi\AppData\Local\Temp\ccfXLqzg.s:490    .text.dm_utils_itoa:0000000000000000 .LFB24
C:\Users\stapi\AppData\Local\Temp\ccfXLqzg.s:594    .text.dm_utils_itoa:00000000000000a0 .LFE24
C:\Users\stapi\AppData\Local\Temp\ccfXLqzg.s:6093   .debug_loc:00000000000009b5 .LLST20
C:\Users\stapi\AppData\Local\Temp\ccfXLqzg.s:6111   .debug_loc:00000000000009e1 .LLST21
C:\Users\stapi\AppData\Local\Temp\ccfXLqzg.s:6129   .debug_loc:0000000000000a0d .LLST22
C:\Users\stapi\AppData\Local\Temp\ccfXLqzg.s:533    .text.dm_utils_itoa:0000000000000038 .LVL59
C:\Users\stapi\AppData\Local\Temp\ccfXLqzg.s:544    .text.dm_utils_itoa:0000000000000048 .LVL61
C:\Users\stapi\AppData\Local\Temp\ccfXLqzg.s:549    .text.dm_utils_itoa:0000000000000058 .LVL62
C:\Users\stapi\AppData\Local\Temp\ccfXLqzg.s:563    .text.dm_utils_itoa:000000000000006a .LVL63
C:\Users\stapi\AppData\Local\Temp\ccfXLqzg.s:569    .text.dm_utils_itoa:000000000000007a .LVL64
C:\Users\stapi\AppData\Local\Temp\ccfXLqzg.s:573    .text.dm_utils_itoa:0000000000000084 .LVL65
C:\Users\stapi\AppData\Local\Temp\ccfXLqzg.s:578    .text.dm_utils_itoa:0000000000000092 .LVL66
C:\Users\stapi\AppData\Local\Temp\ccfXLqzg.s:7304   .debug_str:0000000000001ba3 .LASF254
C:\Users\stapi\AppData\Local\Temp\ccfXLqzg.s:380    .text.dm_utils_itoa_direct:0000000000000000 .LFB23
C:\Users\stapi\AppData\Local\Temp\ccfXLqzg.s:483    .text.dm_utils_itoa_direct:000000000000009a .LFE23
C:\Users\stapi\AppData\Local\Temp\ccfXLqzg.s:6141   .debug_loc:0000000000000a2c .LLST17
C:\Users\stapi\AppData\Local\Temp\ccfXLqzg.s:6159   .debug_loc:0000000000000a58 .LLST18
C:\Users\stapi\AppData\Local\Temp\ccfXLqzg.s:6177   .debug_loc:0000000000000a84 .LLST19
C:\Users\stapi\AppData\Local\Temp\ccfXLqzg.s:423    .text.dm_utils_itoa_direct:0000000000000038 .LVL46
C:\Users\stapi\AppData\Local\Temp\ccfXLqzg.s:434    .text.dm_utils_itoa_direct:0000000000000048 .LVL48
C:\Users\stapi\AppData\Local\Temp\ccfXLqzg.s:438    .text.dm_utils_itoa_direct:0000000000000052 .LVL49
C:\Users\stapi\AppData\Local\Temp\ccfXLqzg.s:452    .text.dm_utils_itoa_direct:0000000000000064 .LVL50
C:\Users\stapi\AppData\Local\Temp\ccfXLqzg.s:458    .text.dm_utils_itoa_direct:0000000000000074 .LVL51
C:\Users\stapi\AppData\Local\Temp\ccfXLqzg.s:462    .text.dm_utils_itoa_direct:000000000000007e .LVL52
C:\Users\stapi\AppData\Local\Temp\ccfXLqzg.s:467    .text.dm_utils_itoa_direct:000000000000008c .LVL53
C:\Users\stapi\AppData\Local\Temp\ccfXLqzg.s:6826   .debug_str:000000000000053f .LASF255
C:\Users\stapi\AppData\Local\Temp\ccfXLqzg.s:183    .text.dm_utils_strarr_index:0000000000000000 .LFB22
C:\Users\stapi\AppData\Local\Temp\ccfXLqzg.s:369    .text.dm_utils_strarr_index:00000000000000c4 .LFE22
C:\Users\stapi\AppData\Local\Temp\ccfXLqzg.s:6189   .debug_loc:0000000000000aa3 .LLST8
C:\Users\stapi\AppData\Local\Temp\ccfXLqzg.s:6233   .debug_loc:0000000000000b0c .LLST9
C:\Users\stapi\AppData\Local\Temp\ccfXLqzg.s:6980   .debug_str:0000000000000c3e .LASF256
C:\Users\stapi\AppData\Local\Temp\ccfXLqzg.s:6262   .debug_loc:0000000000000b51 .LLST10
C:\Users\stapi\AppData\Local\Temp\ccfXLqzg.s:6996   .debug_str:0000000000000cf1 .LASF257
C:\Users\stapi\AppData\Local\Temp\ccfXLqzg.s:6291   .debug_loc:0000000000000b96 .LLST11
C:\Users\stapi\AppData\Local\Temp\ccfXLqzg.s:6742   .debug_str:000000000000003e .LASF258
C:\Users\stapi\AppData\Local\Temp\ccfXLqzg.s:6320   .debug_loc:0000000000000bdb .LLST12
C:\Users\stapi\AppData\Local\Temp\ccfXLqzg.s:6335   .debug_loc:0000000000000c04 .LLST13
C:\Users\stapi\AppData\Local\Temp\ccfXLqzg.s:6956   .debug_str:0000000000000b2f .LASF259
C:\Users\stapi\AppData\Local\Temp\ccfXLqzg.s:6400   .debug_loc:0000000000000c7b .LLST14
C:\Users\stapi\AppData\Local\Temp\ccfXLqzg.s:7126   .debug_str:00000000000012f1 .LASF260
C:\Users\stapi\AppData\Local\Temp\ccfXLqzg.s:6430   .debug_loc:0000000000000cc8 .LLST15
C:\Users\stapi\AppData\Local\Temp\ccfXLqzg.s:6984   .debug_str:0000000000000c61 .LASF261
C:\Users\stapi\AppData\Local\Temp\ccfXLqzg.s:6454   .debug_loc:0000000000000d08 .LLST16
C:\Users\stapi\AppData\Local\Temp\ccfXLqzg.s:6922   .debug_str:0000000000000973 .LASF262
C:\Users\stapi\AppData\Local\Temp\ccfXLqzg.s:296    .text.dm_utils_strarr_index:0000000000000084 .LVL30
C:\Users\stapi\AppData\Local\Temp\ccfXLqzg.s:301    .text.dm_utils_strarr_index:000000000000008e .LVL31
C:\Users\stapi\AppData\Local\Temp\ccfXLqzg.s:7154   .debug_str:00000000000013f1 .LASF263
C:\Users\stapi\AppData\Local\Temp\ccfXLqzg.s:96     .text.dm_utils_copy:0000000000000000 .LFB21
C:\Users\stapi\AppData\Local\Temp\ccfXLqzg.s:176    .text.dm_utils_copy:000000000000005e .LFE21
C:\Users\stapi\AppData\Local\Temp\ccfXLqzg.s:6474   .debug_loc:0000000000000d3d .LLST4
C:\Users\stapi\AppData\Local\Temp\ccfXLqzg.s:6503   .debug_loc:0000000000000d82 .LLST5
C:\Users\stapi\AppData\Local\Temp\ccfXLqzg.s:6525   .debug_loc:0000000000000db9 .LLST6
C:\Users\stapi\AppData\Local\Temp\ccfXLqzg.s:6540   .debug_loc:0000000000000de2 .LLST7
C:\Users\stapi\AppData\Local\Temp\ccfXLqzg.s:132    .text.dm_utils_copy:000000000000002a .LVL12
C:\Users\stapi\AppData\Local\Temp\ccfXLqzg.s:144    .text.dm_utils_copy:000000000000003c .LVL13
C:\Users\stapi\AppData\Local\Temp\ccfXLqzg.s:150    .text.dm_utils_copy:000000000000004a .LVL14
C:\Users\stapi\AppData\Local\Temp\ccfXLqzg.s:7102   .debug_str:00000000000011b5 .LASF264
C:\Users\stapi\AppData\Local\Temp\ccfXLqzg.s:14     .text.dm_utils_copy_direct:0000000000000000 .LFB20
C:\Users\stapi\AppData\Local\Temp\ccfXLqzg.s:89     .text.dm_utils_copy_direct:0000000000000056 .LFE20
C:\Users\stapi\AppData\Local\Temp\ccfXLqzg.s:6563   .debug_loc:0000000000000e1a .LLST0
C:\Users\stapi\AppData\Local\Temp\ccfXLqzg.s:6592   .debug_loc:0000000000000e5f .LLST1
C:\Users\stapi\AppData\Local\Temp\ccfXLqzg.s:6614   .debug_loc:0000000000000e96 .LLST2
C:\Users\stapi\AppData\Local\Temp\ccfXLqzg.s:6629   .debug_loc:0000000000000ebf .LLST3
C:\Users\stapi\AppData\Local\Temp\ccfXLqzg.s:47     .text.dm_utils_copy_direct:0000000000000024 .LVL2
C:\Users\stapi\AppData\Local\Temp\ccfXLqzg.s:59     .text.dm_utils_copy_direct:0000000000000036 .LVL3
C:\Users\stapi\AppData\Local\Temp\ccfXLqzg.s:65     .text.dm_utils_copy_direct:0000000000000044 .LVL4
C:\Users\stapi\AppData\Local\Temp\ccfXLqzg.s:6860   .debug_str:00000000000006ac .LASF265
C:\Users\stapi\AppData\Local\Temp\ccfXLqzg.s:6976   .debug_str:0000000000000c12 .LASF266
C:\Users\stapi\AppData\Local\Temp\ccfXLqzg.s:6888   .debug_str:00000000000007fd .LASF270
C:\Users\stapi\AppData\Local\Temp\ccfXLqzg.s:6818   .debug_str:00000000000004e2 .LASF272
C:\Users\stapi\AppData\Local\Temp\ccfXLqzg.s:7162   .debug_str:000000000000144d .LASF267
C:\Users\stapi\AppData\Local\Temp\ccfXLqzg.s:6852   .debug_str:0000000000000665 .LASF268
C:\Users\stapi\AppData\Local\Temp\ccfXLqzg.s:7216   .debug_str:00000000000016ea .LASF269
C:\Users\stapi\AppData\Local\Temp\ccfXLqzg.s:7222   .debug_str:000000000000172e .LASF271
C:\Users\stapi\AppData\Local\Temp\ccfXLqzg.s:6910   .debug_str:00000000000008d1 .LASF273
C:\Users\stapi\AppData\Local\Temp\ccfXLqzg.s:7182   .debug_str:0000000000001547 .LASF274
C:\Users\stapi\AppData\Local\Temp\ccfXLqzg.s:7032   .debug_str:0000000000000e66 .LASF275
C:\Users\stapi\AppData\Local\Temp\ccfXLqzg.s:6802   .debug_str:000000000000042b .LASF276
C:\Users\stapi\AppData\Local\Temp\ccfXLqzg.s:1832   .text.dm_utils_free:0000000000000000 .LVL205
C:\Users\stapi\AppData\Local\Temp\ccfXLqzg.s:1811   .text.dm_utils_malloc:0000000000000000 .LVL202
C:\Users\stapi\AppData\Local\Temp\ccfXLqzg.s:1818   .text.dm_utils_malloc:0000000000000006 .LVL203
C:\Users\stapi\AppData\Local\Temp\ccfXLqzg.s:1696   .text.dm_utils_json_object_item:0000000000000000 .LVL189
C:\Users\stapi\AppData\Local\Temp\ccfXLqzg.s:1718   .text.dm_utils_json_object_item:0000000000000016 .LVL191
C:\Users\stapi\AppData\Local\Temp\ccfXLqzg.s:1786   .text.dm_utils_json_object_item:0000000000000072 .LVL200
C:\Users\stapi\AppData\Local\Temp\ccfXLqzg.s:1797   .text.dm_utils_json_object_item:0000000000000074 .LVL201
C:\Users\stapi\AppData\Local\Temp\ccfXLqzg.s:1738   .text.dm_utils_json_object_item:0000000000000032 .LVL193
C:\Users\stapi\AppData\Local\Temp\ccfXLqzg.s:1764   .text.dm_utils_json_object_item:0000000000000060 .LVL198
C:\Users\stapi\AppData\Local\Temp\ccfXLqzg.s:1776   .text.dm_utils_json_object_item:0000000000000068 .LVL199
C:\Users\stapi\AppData\Local\Temp\ccfXLqzg.s:1736   .text.dm_utils_json_object_item:0000000000000030 .LVL192
C:\Users\stapi\AppData\Local\Temp\ccfXLqzg.s:1713   .text.dm_utils_json_object_item:000000000000000e .LVL190
C:\Users\stapi\AppData\Local\Temp\ccfXLqzg.s:1758   .text.dm_utils_json_object_item:0000000000000056 .LVL196
C:\Users\stapi\AppData\Local\Temp\ccfXLqzg.s:1596   .text.dm_utils_json_parse:0000000000000000 .LVL177
C:\Users\stapi\AppData\Local\Temp\ccfXLqzg.s:1613   .text.dm_utils_json_parse:0000000000000010 .LVL178
C:\Users\stapi\AppData\Local\Temp\ccfXLqzg.s:1672   .text.dm_utils_json_parse:0000000000000062 .LVL187
C:\Users\stapi\AppData\Local\Temp\ccfXLqzg.s:1682   .text.dm_utils_json_parse:0000000000000064 .LVL188
C:\Users\stapi\AppData\Local\Temp\ccfXLqzg.s:1626   .text.dm_utils_json_parse:0000000000000024 .LVL180
C:\Users\stapi\AppData\Local\Temp\ccfXLqzg.s:1624   .text.dm_utils_json_parse:0000000000000022 .LVL179
C:\Users\stapi\AppData\Local\Temp\ccfXLqzg.s:1651   .text.dm_utils_json_parse:0000000000000050 .LVL185
C:\Users\stapi\AppData\Local\Temp\ccfXLqzg.s:1662   .text.dm_utils_json_parse:0000000000000058 .LVL186
C:\Users\stapi\AppData\Local\Temp\ccfXLqzg.s:1645   .text.dm_utils_json_parse:0000000000000046 .LVL183
C:\Users\stapi\AppData\Local\Temp\ccfXLqzg.s:1473   .text.dm_utils_uri_add_prefix:0000000000000000 .LVL162
C:\Users\stapi\AppData\Local\Temp\ccfXLqzg.s:1563   .text.dm_utils_uri_add_prefix:0000000000000098 .LVL174
C:\Users\stapi\AppData\Local\Temp\ccfXLqzg.s:1576   .text.dm_utils_uri_add_prefix:00000000000000a4 .LVL175
C:\Users\stapi\AppData\Local\Temp\ccfXLqzg.s:1583   .text.dm_utils_uri_add_prefix:00000000000000a8 .LVL176
C:\Users\stapi\AppData\Local\Temp\ccfXLqzg.s:1545   .text.dm_utils_uri_add_prefix:0000000000000070 .LVL170
C:\Users\stapi\AppData\Local\Temp\ccfXLqzg.s:1513   .text.dm_utils_uri_add_prefix:0000000000000036 .LVL165
C:\Users\stapi\AppData\Local\Temp\ccfXLqzg.s:1315   .text.dm_utils_service_name:0000000000000000 .LVL146
C:\Users\stapi\AppData\Local\Temp\ccfXLqzg.s:1451   .text.dm_utils_service_name:00000000000000c8 .LVL161
C:\Users\stapi\AppData\Local\Temp\ccfXLqzg.s:1340   .text.dm_utils_service_name:000000000000001e .LVL148
C:\Users\stapi\AppData\Local\Temp\ccfXLqzg.s:1345   .text.dm_utils_service_name:0000000000000024 .LVL149
C:\Users\stapi\AppData\Local\Temp\ccfXLqzg.s:1385   .text.dm_utils_service_name:0000000000000062 .LVL154
C:\Users\stapi\AppData\Local\Temp\ccfXLqzg.s:1425   .text.dm_utils_service_name:00000000000000a6 .LVL158
C:\Users\stapi\AppData\Local\Temp\ccfXLqzg.s:1265   .text.dm_utils_replace_char:0000000000000000 .LVL139
C:\Users\stapi\AppData\Local\Temp\ccfXLqzg.s:1272   .text.dm_utils_replace_char:0000000000000004 .LVL140
C:\Users\stapi\AppData\Local\Temp\ccfXLqzg.s:1279   .text.dm_utils_replace_char:000000000000000e .LVL141
C:\Users\stapi\AppData\Local\Temp\ccfXLqzg.s:1300   .text.dm_utils_replace_char:0000000000000024 .LVL145
C:\Users\stapi\AppData\Local\Temp\ccfXLqzg.s:1290   .text.dm_utils_replace_char:000000000000001a .LVL142
C:\Users\stapi\AppData\Local\Temp\ccfXLqzg.s:1294   .text.dm_utils_replace_char:000000000000001c .LVL143
C:\Users\stapi\AppData\Local\Temp\ccfXLqzg.s:1298   .text.dm_utils_replace_char:0000000000000022 .LVL144
C:\Users\stapi\AppData\Local\Temp\ccfXLqzg.s:1188   .text.dm_utils_memtok:0000000000000000 .LVL131
C:\Users\stapi\AppData\Local\Temp\ccfXLqzg.s:1196   .text.dm_utils_memtok:0000000000000004 .LVL132
C:\Users\stapi\AppData\Local\Temp\ccfXLqzg.s:1207   .text.dm_utils_memtok:0000000000000012 .LVL133
C:\Users\stapi\AppData\Local\Temp\ccfXLqzg.s:1239   .text.dm_utils_memtok:0000000000000036 .LVL135
C:\Users\stapi\AppData\Local\Temp\ccfXLqzg.s:1243   .text.dm_utils_memtok:000000000000003a .LVL136
C:\Users\stapi\AppData\Local\Temp\ccfXLqzg.s:1246   .text.dm_utils_memtok:000000000000003c .LVL137
C:\Users\stapi\AppData\Local\Temp\ccfXLqzg.s:1250   .text.dm_utils_memtok:000000000000003e .LVL138
C:\Users\stapi\AppData\Local\Temp\ccfXLqzg.s:991    .text.dm_utils_str_to_hex:0000000000000000 .LVL112
C:\Users\stapi\AppData\Local\Temp\ccfXLqzg.s:1035   .text.dm_utils_str_to_hex:0000000000000030 .LVL115
C:\Users\stapi\AppData\Local\Temp\ccfXLqzg.s:1119   .text.dm_utils_str_to_hex:00000000000000ae .LVL123
C:\Users\stapi\AppData\Local\Temp\ccfXLqzg.s:1131   .text.dm_utils_str_to_hex:00000000000000b8 .LVL124
C:\Users\stapi\AppData\Local\Temp\ccfXLqzg.s:1163   .text.dm_utils_str_to_hex:00000000000000e4 .LVL129
C:\Users\stapi\AppData\Local\Temp\ccfXLqzg.s:1175   .text.dm_utils_str_to_hex:00000000000000e8 .LVL130
C:\Users\stapi\AppData\Local\Temp\ccfXLqzg.s:1033   .text.dm_utils_str_to_hex:000000000000002e .LVL114
C:\Users\stapi\AppData\Local\Temp\ccfXLqzg.s:1025   .text.dm_utils_str_to_hex:0000000000000028 .LVL113
C:\Users\stapi\AppData\Local\Temp\ccfXLqzg.s:1061   .text.dm_utils_str_to_hex:0000000000000056 .LVL118
C:\Users\stapi\AppData\Local\Temp\ccfXLqzg.s:1104   .text.dm_utils_str_to_hex:000000000000009a .LVL121
C:\Users\stapi\AppData\Local\Temp\ccfXLqzg.s:1113   .text.dm_utils_str_to_hex:00000000000000a8 .LVL122
C:\Users\stapi\AppData\Local\Temp\ccfXLqzg.s:1143   .text.dm_utils_str_to_hex:00000000000000c8 .LVL125
C:\Users\stapi\AppData\Local\Temp\ccfXLqzg.s:1146   .text.dm_utils_str_to_hex:00000000000000cc .LVL126
C:\Users\stapi\AppData\Local\Temp\ccfXLqzg.s:1158   .text.dm_utils_str_to_hex:00000000000000de .LVL127
C:\Users\stapi\AppData\Local\Temp\ccfXLqzg.s:1161   .text.dm_utils_str_to_hex:00000000000000e2 .LVL128
C:\Users\stapi\AppData\Local\Temp\ccfXLqzg.s:841    .text.dm_utils_hex_to_str:0000000000000000 .LVL94
C:\Users\stapi\AppData\Local\Temp\ccfXLqzg.s:880    .text.dm_utils_hex_to_str:0000000000000028 .LVL98
C:\Users\stapi\AppData\Local\Temp\ccfXLqzg.s:959    .text.dm_utils_hex_to_str:0000000000000090 .LVL109
C:\Users\stapi\AppData\Local\Temp\ccfXLqzg.s:971    .text.dm_utils_hex_to_str:000000000000009c .LVL110
C:\Users\stapi\AppData\Local\Temp\ccfXLqzg.s:978    .text.dm_utils_hex_to_str:00000000000000a0 .LVL111
C:\Users\stapi\AppData\Local\Temp\ccfXLqzg.s:878    .text.dm_utils_hex_to_str:0000000000000026 .LVL97
C:\Users\stapi\AppData\Local\Temp\ccfXLqzg.s:895    .text.dm_utils_hex_to_str:0000000000000040 .LVL100
C:\Users\stapi\AppData\Local\Temp\ccfXLqzg.s:869    .text.dm_utils_hex_to_str:0000000000000020 .LVL95
C:\Users\stapi\AppData\Local\Temp\ccfXLqzg.s:905    .text.dm_utils_hex_to_str:000000000000004e .LVL102
C:\Users\stapi\AppData\Local\Temp\ccfXLqzg.s:947    .text.dm_utils_hex_to_str:0000000000000082 .LVL107
C:\Users\stapi\AppData\Local\Temp\ccfXLqzg.s:952    .text.dm_utils_hex_to_str:0000000000000088 .LVL108
C:\Users\stapi\AppData\Local\Temp\ccfXLqzg.s:874    .text.dm_utils_hex_to_str:0000000000000024 .LVL96
C:\Users\stapi\AppData\Local\Temp\ccfXLqzg.s:911    .text.dm_utils_hex_to_str:0000000000000054 .LVL103
C:\Users\stapi\AppData\Local\Temp\ccfXLqzg.s:920    .text.dm_utils_hex_to_str:0000000000000060 .LVL104
C:\Users\stapi\AppData\Local\Temp\ccfXLqzg.s:931    .text.dm_utils_hex_to_str:0000000000000070 .LVL105
C:\Users\stapi\AppData\Local\Temp\ccfXLqzg.s:940    .text.dm_utils_hex_to_str:000000000000007c .LVL106
C:\Users\stapi\AppData\Local\Temp\ccfXLqzg.s:724    .text.dm_utils_ftoa:0000000000000000 .LVL81
C:\Users\stapi\AppData\Local\Temp\ccfXLqzg.s:746    .text.dm_utils_ftoa:0000000000000016 .LVL84
C:\Users\stapi\AppData\Local\Temp\ccfXLqzg.s:744    .text.dm_utils_ftoa:0000000000000014 .LVL83
C:\Users\stapi\AppData\Local\Temp\ccfXLqzg.s:732    .text.dm_utils_ftoa:0000000000000008 .LVL82
C:\Users\stapi\AppData\Local\Temp\ccfXLqzg.s:779    .text.dm_utils_ftoa:000000000000004a .LVL87
C:\Users\stapi\AppData\Local\Temp\ccfXLqzg.s:608    .text.dm_utils_ftoa_direct:0000000000000000 .LVL68
C:\Users\stapi\AppData\Local\Temp\ccfXLqzg.s:630    .text.dm_utils_ftoa_direct:0000000000000016 .LVL71
C:\Users\stapi\AppData\Local\Temp\ccfXLqzg.s:628    .text.dm_utils_ftoa_direct:0000000000000014 .LVL70
C:\Users\stapi\AppData\Local\Temp\ccfXLqzg.s:616    .text.dm_utils_ftoa_direct:0000000000000008 .LVL69
C:\Users\stapi\AppData\Local\Temp\ccfXLqzg.s:663    .text.dm_utils_ftoa_direct:000000000000004a .LVL74
C:\Users\stapi\AppData\Local\Temp\ccfXLqzg.s:493    .text.dm_utils_itoa:0000000000000000 .LVL55
C:\Users\stapi\AppData\Local\Temp\ccfXLqzg.s:531    .text.dm_utils_itoa:0000000000000030 .LVL58
C:\Users\stapi\AppData\Local\Temp\ccfXLqzg.s:529    .text.dm_utils_itoa:000000000000002e .LVL57
C:\Users\stapi\AppData\Local\Temp\ccfXLqzg.s:582    .text.dm_utils_itoa:0000000000000094 .LVL67
C:\Users\stapi\AppData\Local\Temp\ccfXLqzg.s:500    .text.dm_utils_itoa:0000000000000008 .LVL56
C:\Users\stapi\AppData\Local\Temp\ccfXLqzg.s:542    .text.dm_utils_itoa:0000000000000040 .LVL60
C:\Users\stapi\AppData\Local\Temp\ccfXLqzg.s:383    .text.dm_utils_itoa_direct:0000000000000000 .LVL42
C:\Users\stapi\AppData\Local\Temp\ccfXLqzg.s:421    .text.dm_utils_itoa_direct:0000000000000030 .LVL45
C:\Users\stapi\AppData\Local\Temp\ccfXLqzg.s:419    .text.dm_utils_itoa_direct:000000000000002e .LVL44
C:\Users\stapi\AppData\Local\Temp\ccfXLqzg.s:471    .text.dm_utils_itoa_direct:000000000000008e .LVL54
C:\Users\stapi\AppData\Local\Temp\ccfXLqzg.s:390    .text.dm_utils_itoa_direct:0000000000000008 .LVL43
C:\Users\stapi\AppData\Local\Temp\ccfXLqzg.s:432    .text.dm_utils_itoa_direct:0000000000000040 .LVL47
C:\Users\stapi\AppData\Local\Temp\ccfXLqzg.s:186    .text.dm_utils_strarr_index:0000000000000000 .LVL18
C:\Users\stapi\AppData\Local\Temp\ccfXLqzg.s:205    .text.dm_utils_strarr_index:0000000000000014 .LVL20
C:\Users\stapi\AppData\Local\Temp\ccfXLqzg.s:271    .text.dm_utils_strarr_index:0000000000000064 .LVL26
C:\Users\stapi\AppData\Local\Temp\ccfXLqzg.s:308    .text.dm_utils_strarr_index:0000000000000094 .LVL32
C:\Users\stapi\AppData\Local\Temp\ccfXLqzg.s:313    .text.dm_utils_strarr_index:0000000000000096 .LVL33
C:\Users\stapi\AppData\Local\Temp\ccfXLqzg.s:327    .text.dm_utils_strarr_index:00000000000000a2 .LVL35
C:\Users\stapi\AppData\Local\Temp\ccfXLqzg.s:358    .text.dm_utils_strarr_index:00000000000000c0 .LVL40
C:\Users\stapi\AppData\Local\Temp\ccfXLqzg.s:365    .text.dm_utils_strarr_index:00000000000000c2 .LVL41
C:\Users\stapi\AppData\Local\Temp\ccfXLqzg.s:292    .text.dm_utils_strarr_index:000000000000007a .LVL28
C:\Users\stapi\AppData\Local\Temp\ccfXLqzg.s:317    .text.dm_utils_strarr_index:0000000000000098 .LVL34
C:\Users\stapi\AppData\Local\Temp\ccfXLqzg.s:285    .text.dm_utils_strarr_index:000000000000006e .LVL27
C:\Users\stapi\AppData\Local\Temp\ccfXLqzg.s:198    .text.dm_utils_strarr_index:000000000000000e .LVL19
C:\Users\stapi\AppData\Local\Temp\ccfXLqzg.s:211    .text.dm_utils_strarr_index:000000000000001a .LVL21
C:\Users\stapi\AppData\Local\Temp\ccfXLqzg.s:237    .text.dm_utils_strarr_index:000000000000003c .LVL22
C:\Users\stapi\AppData\Local\Temp\ccfXLqzg.s:245    .text.dm_utils_strarr_index:0000000000000048 .LVL23
C:\Users\stapi\AppData\Local\Temp\ccfXLqzg.s:251    .text.dm_utils_strarr_index:000000000000004a .LVL24
C:\Users\stapi\AppData\Local\Temp\ccfXLqzg.s:260    .text.dm_utils_strarr_index:0000000000000058 .LVL25
C:\Users\stapi\AppData\Local\Temp\ccfXLqzg.s:339    .text.dm_utils_strarr_index:00000000000000ac .LVL37
C:\Users\stapi\AppData\Local\Temp\ccfXLqzg.s:345    .text.dm_utils_strarr_index:00000000000000b0 .LVL38
C:\Users\stapi\AppData\Local\Temp\ccfXLqzg.s:337    .text.dm_utils_strarr_index:00000000000000aa .LVL36
C:\Users\stapi\AppData\Local\Temp\ccfXLqzg.s:294    .text.dm_utils_strarr_index:000000000000007c .LVL29
C:\Users\stapi\AppData\Local\Temp\ccfXLqzg.s:356    .text.dm_utils_strarr_index:00000000000000be .LVL39
C:\Users\stapi\AppData\Local\Temp\ccfXLqzg.s:99     .text.dm_utils_copy:0000000000000000 .LVL8
C:\Users\stapi\AppData\Local\Temp\ccfXLqzg.s:129    .text.dm_utils_copy:0000000000000020 .LVL11
C:\Users\stapi\AppData\Local\Temp\ccfXLqzg.s:154    .text.dm_utils_copy:000000000000004c .LVL15
C:\Users\stapi\AppData\Local\Temp\ccfXLqzg.s:166    .text.dm_utils_copy:0000000000000058 .LVL16
C:\Users\stapi\AppData\Local\Temp\ccfXLqzg.s:173    .text.dm_utils_copy:000000000000005c .LVL17
C:\Users\stapi\AppData\Local\Temp\ccfXLqzg.s:127    .text.dm_utils_copy:000000000000001e .LVL10
C:\Users\stapi\AppData\Local\Temp\ccfXLqzg.s:123    .text.dm_utils_copy:000000000000001c .LVL9
C:\Users\stapi\AppData\Local\Temp\ccfXLqzg.s:18     .text.dm_utils_copy_direct:0000000000000000 .LVL0
C:\Users\stapi\AppData\Local\Temp\ccfXLqzg.s:41     .text.dm_utils_copy_direct:0000000000000018 .LVL1
C:\Users\stapi\AppData\Local\Temp\ccfXLqzg.s:69     .text.dm_utils_copy_direct:0000000000000046 .LVL5
C:\Users\stapi\AppData\Local\Temp\ccfXLqzg.s:80     .text.dm_utils_copy_direct:0000000000000050 .LVL6
C:\Users\stapi\AppData\Local\Temp\ccfXLqzg.s:86     .text.dm_utils_copy_direct:0000000000000054 .LVL7
C:\Users\stapi\AppData\Local\Temp\ccfXLqzg.s:1850   .debug_info:0000000000000000 .Ldebug_info0

UNDEFINED SYMBOLS
__riscv_save_4
HAL_Malloc
memset
memcpy
__riscv_restore_4
__riscv_save_3
LITE_malloc_internal
__riscv_restore_3
__riscv_save_1
atoi
__riscv_restore_1
__riscv_save_2
HAL_Snprintf
strlen
__riscv_restore_2
__riscv_save_9
__riscv_restore_9
lite_cjson_parse
__riscv_save_5
lite_cjson_object_item
__riscv_restore_5
LITE_free_internal
