   1              		.file	"mbl_image_validate.c"
   2              		.option nopic
   3              		.attribute arch, "rv32i2p0_m2p0_a2p0_f2p0_c2p0_b_p0p94"
   4              		.attribute unaligned_access, 0
   5              		.attribute stack_align, 16
   6              		.text
   7              	.Ltext0:
   8              		.cfi_sections	.debug_frame
   9              		.section	.text.boot_image_find,"ax",@progbits
  10              		.align	1
  11              		.globl	boot_image_find
  13              	boot_image_find:
  14              	.LFB365:
  15              		.file 1 "C:/Users/stapi/OneDrive/Desktop/GD32VW553/GD32VW55X_Wifi_BLE_SDK/GD32VW55x_RELEASE_V1.0.2
   1:C:/Users/stapi/OneDrive/Desktop/GD32VW553/GD32VW55X_Wifi_BLE_SDK/GD32VW55x_RELEASE_V1.0.2/MBL/mainboot\mbl_image_validate.c **** /*!
   2:C:/Users/stapi/OneDrive/Desktop/GD32VW553/GD32VW55X_Wifi_BLE_SDK/GD32VW55x_RELEASE_V1.0.2/MBL/mainboot\mbl_image_validate.c ****     \file    mbl_image_validate.c
   3:C:/Users/stapi/OneDrive/Desktop/GD32VW553/GD32VW55X_Wifi_BLE_SDK/GD32VW55x_RELEASE_V1.0.2/MBL/mainboot\mbl_image_validate.c ****     \brief   MBL image validate file for GD32VW55x SDK
   4:C:/Users/stapi/OneDrive/Desktop/GD32VW553/GD32VW55X_Wifi_BLE_SDK/GD32VW55x_RELEASE_V1.0.2/MBL/mainboot\mbl_image_validate.c **** 
   5:C:/Users/stapi/OneDrive/Desktop/GD32VW553/GD32VW55X_Wifi_BLE_SDK/GD32VW55x_RELEASE_V1.0.2/MBL/mainboot\mbl_image_validate.c ****     \version 2023-07-20, V1.0.0, firmware for GD32VW55x
   6:C:/Users/stapi/OneDrive/Desktop/GD32VW553/GD32VW55X_Wifi_BLE_SDK/GD32VW55x_RELEASE_V1.0.2/MBL/mainboot\mbl_image_validate.c **** */
   7:C:/Users/stapi/OneDrive/Desktop/GD32VW553/GD32VW55X_Wifi_BLE_SDK/GD32VW55x_RELEASE_V1.0.2/MBL/mainboot\mbl_image_validate.c **** 
   8:C:/Users/stapi/OneDrive/Desktop/GD32VW553/GD32VW55X_Wifi_BLE_SDK/GD32VW55x_RELEASE_V1.0.2/MBL/mainboot\mbl_image_validate.c **** /*
   9:C:/Users/stapi/OneDrive/Desktop/GD32VW553/GD32VW55X_Wifi_BLE_SDK/GD32VW55x_RELEASE_V1.0.2/MBL/mainboot\mbl_image_validate.c ****     Copyright (c) 2023, GigaDevice Semiconductor Inc.
  10:C:/Users/stapi/OneDrive/Desktop/GD32VW553/GD32VW55X_Wifi_BLE_SDK/GD32VW55x_RELEASE_V1.0.2/MBL/mainboot\mbl_image_validate.c **** 
  11:C:/Users/stapi/OneDrive/Desktop/GD32VW553/GD32VW55X_Wifi_BLE_SDK/GD32VW55x_RELEASE_V1.0.2/MBL/mainboot\mbl_image_validate.c ****     Redistribution and use in source and binary forms, with or without modification,
  12:C:/Users/stapi/OneDrive/Desktop/GD32VW553/GD32VW55X_Wifi_BLE_SDK/GD32VW55x_RELEASE_V1.0.2/MBL/mainboot\mbl_image_validate.c **** are permitted provided that the following conditions are met:
  13:C:/Users/stapi/OneDrive/Desktop/GD32VW553/GD32VW55X_Wifi_BLE_SDK/GD32VW55x_RELEASE_V1.0.2/MBL/mainboot\mbl_image_validate.c **** 
  14:C:/Users/stapi/OneDrive/Desktop/GD32VW553/GD32VW55X_Wifi_BLE_SDK/GD32VW55x_RELEASE_V1.0.2/MBL/mainboot\mbl_image_validate.c ****     1. Redistributions of source code must retain the above copyright notice, this
  15:C:/Users/stapi/OneDrive/Desktop/GD32VW553/GD32VW55X_Wifi_BLE_SDK/GD32VW55x_RELEASE_V1.0.2/MBL/mainboot\mbl_image_validate.c ****        list of conditions and the following disclaimer.
  16:C:/Users/stapi/OneDrive/Desktop/GD32VW553/GD32VW55X_Wifi_BLE_SDK/GD32VW55x_RELEASE_V1.0.2/MBL/mainboot\mbl_image_validate.c ****     2. Redistributions in binary form must reproduce the above copyright notice,
  17:C:/Users/stapi/OneDrive/Desktop/GD32VW553/GD32VW55X_Wifi_BLE_SDK/GD32VW55x_RELEASE_V1.0.2/MBL/mainboot\mbl_image_validate.c ****        this list of conditions and the following disclaimer in the documentation
  18:C:/Users/stapi/OneDrive/Desktop/GD32VW553/GD32VW55X_Wifi_BLE_SDK/GD32VW55x_RELEASE_V1.0.2/MBL/mainboot\mbl_image_validate.c ****        and/or other materials provided with the distribution.
  19:C:/Users/stapi/OneDrive/Desktop/GD32VW553/GD32VW55X_Wifi_BLE_SDK/GD32VW55x_RELEASE_V1.0.2/MBL/mainboot\mbl_image_validate.c ****     3. Neither the name of the copyright holder nor the names of its contributors
  20:C:/Users/stapi/OneDrive/Desktop/GD32VW553/GD32VW55X_Wifi_BLE_SDK/GD32VW55x_RELEASE_V1.0.2/MBL/mainboot\mbl_image_validate.c ****        may be used to endorse or promote products derived from this software without
  21:C:/Users/stapi/OneDrive/Desktop/GD32VW553/GD32VW55X_Wifi_BLE_SDK/GD32VW55x_RELEASE_V1.0.2/MBL/mainboot\mbl_image_validate.c ****        specific prior written permission.
  22:C:/Users/stapi/OneDrive/Desktop/GD32VW553/GD32VW55X_Wifi_BLE_SDK/GD32VW55x_RELEASE_V1.0.2/MBL/mainboot\mbl_image_validate.c **** 
  23:C:/Users/stapi/OneDrive/Desktop/GD32VW553/GD32VW55X_Wifi_BLE_SDK/GD32VW55x_RELEASE_V1.0.2/MBL/mainboot\mbl_image_validate.c ****     THIS SOFTWARE IS PROVIDED BY THE COPYRIGHT HOLDERS AND CONTRIBUTORS "AS IS"
  24:C:/Users/stapi/OneDrive/Desktop/GD32VW553/GD32VW55X_Wifi_BLE_SDK/GD32VW55x_RELEASE_V1.0.2/MBL/mainboot\mbl_image_validate.c **** AND ANY EXPRESS OR IMPLIED WARRANTIES, INCLUDING, BUT NOT LIMITED TO, THE IMPLIED
  25:C:/Users/stapi/OneDrive/Desktop/GD32VW553/GD32VW55X_Wifi_BLE_SDK/GD32VW55x_RELEASE_V1.0.2/MBL/mainboot\mbl_image_validate.c **** WARRANTIES OF MERCHANTABILITY AND FITNESS FOR A PARTICULAR PURPOSE ARE DISCLAIMED.
  26:C:/Users/stapi/OneDrive/Desktop/GD32VW553/GD32VW55X_Wifi_BLE_SDK/GD32VW55x_RELEASE_V1.0.2/MBL/mainboot\mbl_image_validate.c **** IN NO EVENT SHALL THE COPYRIGHT HOLDER OR CONTRIBUTORS BE LIABLE FOR ANY DIRECT,
  27:C:/Users/stapi/OneDrive/Desktop/GD32VW553/GD32VW55X_Wifi_BLE_SDK/GD32VW55x_RELEASE_V1.0.2/MBL/mainboot\mbl_image_validate.c **** INDIRECT, INCIDENTAL, SPECIAL, EXEMPLARY, OR CONSEQUENTIAL DAMAGES (INCLUDING, BUT
  28:C:/Users/stapi/OneDrive/Desktop/GD32VW553/GD32VW55X_Wifi_BLE_SDK/GD32VW55x_RELEASE_V1.0.2/MBL/mainboot\mbl_image_validate.c **** NOT LIMITED TO, PROCUREMENT OF SUBSTITUTE GOODS OR SERVICES; LOSS OF USE, DATA, OR
  29:C:/Users/stapi/OneDrive/Desktop/GD32VW553/GD32VW55X_Wifi_BLE_SDK/GD32VW55x_RELEASE_V1.0.2/MBL/mainboot\mbl_image_validate.c **** PROFITS; OR BUSINESS INTERRUPTION) HOWEVER CAUSED AND ON ANY THEORY OF LIABILITY,
  30:C:/Users/stapi/OneDrive/Desktop/GD32VW553/GD32VW55X_Wifi_BLE_SDK/GD32VW55x_RELEASE_V1.0.2/MBL/mainboot\mbl_image_validate.c **** WHETHER IN CONTRACT, STRICT LIABILITY, OR TORT (INCLUDING NEGLIGENCE OR OTHERWISE)
  31:C:/Users/stapi/OneDrive/Desktop/GD32VW553/GD32VW55X_Wifi_BLE_SDK/GD32VW55x_RELEASE_V1.0.2/MBL/mainboot\mbl_image_validate.c **** ARISING IN ANY WAY OUT OF THE USE OF THIS SOFTWARE, EVEN IF ADVISED OF THE POSSIBILITY
  32:C:/Users/stapi/OneDrive/Desktop/GD32VW553/GD32VW55X_Wifi_BLE_SDK/GD32VW55x_RELEASE_V1.0.2/MBL/mainboot\mbl_image_validate.c **** OF SUCH DAMAGE.
  33:C:/Users/stapi/OneDrive/Desktop/GD32VW553/GD32VW55X_Wifi_BLE_SDK/GD32VW55x_RELEASE_V1.0.2/MBL/mainboot\mbl_image_validate.c **** */
  34:C:/Users/stapi/OneDrive/Desktop/GD32VW553/GD32VW55X_Wifi_BLE_SDK/GD32VW55x_RELEASE_V1.0.2/MBL/mainboot\mbl_image_validate.c **** 
  35:C:/Users/stapi/OneDrive/Desktop/GD32VW553/GD32VW55X_Wifi_BLE_SDK/GD32VW55x_RELEASE_V1.0.2/MBL/mainboot\mbl_image_validate.c **** #include "mbl_includes.h"
  36:C:/Users/stapi/OneDrive/Desktop/GD32VW553/GD32VW55X_Wifi_BLE_SDK/GD32VW55x_RELEASE_V1.0.2/MBL/mainboot\mbl_image_validate.c **** 
  37:C:/Users/stapi/OneDrive/Desktop/GD32VW553/GD32VW55X_Wifi_BLE_SDK/GD32VW55x_RELEASE_V1.0.2/MBL/mainboot\mbl_image_validate.c **** /*!
  38:C:/Users/stapi/OneDrive/Desktop/GD32VW553/GD32VW55X_Wifi_BLE_SDK/GD32VW55x_RELEASE_V1.0.2/MBL/mainboot\mbl_image_validate.c ****     \brief      find boot image
  39:C:/Users/stapi/OneDrive/Desktop/GD32VW553/GD32VW55X_Wifi_BLE_SDK/GD32VW55x_RELEASE_V1.0.2/MBL/mainboot\mbl_image_validate.c ****     \param[in]  none
  40:C:/Users/stapi/OneDrive/Desktop/GD32VW553/GD32VW55X_Wifi_BLE_SDK/GD32VW55x_RELEASE_V1.0.2/MBL/mainboot\mbl_image_validate.c ****     \param[out] idx: pointer index of boot image
  41:C:/Users/stapi/OneDrive/Desktop/GD32VW553/GD32VW55X_Wifi_BLE_SDK/GD32VW55x_RELEASE_V1.0.2/MBL/mainboot\mbl_image_validate.c ****     \param[out] image_offset: pointer to offset of boot image
  42:C:/Users/stapi/OneDrive/Desktop/GD32VW553/GD32VW55X_Wifi_BLE_SDK/GD32VW55x_RELEASE_V1.0.2/MBL/mainboot\mbl_image_validate.c ****     \retval     result of find boot image
  43:C:/Users/stapi/OneDrive/Desktop/GD32VW553/GD32VW55X_Wifi_BLE_SDK/GD32VW55x_RELEASE_V1.0.2/MBL/mainboot\mbl_image_validate.c ****       \arg        0: find image success
  44:C:/Users/stapi/OneDrive/Desktop/GD32VW553/GD32VW55X_Wifi_BLE_SDK/GD32VW55x_RELEASE_V1.0.2/MBL/mainboot\mbl_image_validate.c ****       \arg        -1: offset of image is null
  45:C:/Users/stapi/OneDrive/Desktop/GD32VW553/GD32VW55X_Wifi_BLE_SDK/GD32VW55x_RELEASE_V1.0.2/MBL/mainboot\mbl_image_validate.c ****       \arg        -2: find image0 fail
  46:C:/Users/stapi/OneDrive/Desktop/GD32VW553/GD32VW55X_Wifi_BLE_SDK/GD32VW55x_RELEASE_V1.0.2/MBL/mainboot\mbl_image_validate.c ****       \arg        -3: find image1 fail
  47:C:/Users/stapi/OneDrive/Desktop/GD32VW553/GD32VW55X_Wifi_BLE_SDK/GD32VW55x_RELEASE_V1.0.2/MBL/mainboot\mbl_image_validate.c ****       \arg        -4: image1 has downloaded but image0 has not downloaded
  48:C:/Users/stapi/OneDrive/Desktop/GD32VW553/GD32VW55X_Wifi_BLE_SDK/GD32VW55x_RELEASE_V1.0.2/MBL/mainboot\mbl_image_validate.c ****       \arg        -5: other fail
  49:C:/Users/stapi/OneDrive/Desktop/GD32VW553/GD32VW55X_Wifi_BLE_SDK/GD32VW55x_RELEASE_V1.0.2/MBL/mainboot\mbl_image_validate.c ****       \arg        -6: read image address from system setting fail
  50:C:/Users/stapi/OneDrive/Desktop/GD32VW553/GD32VW55X_Wifi_BLE_SDK/GD32VW55x_RELEASE_V1.0.2/MBL/mainboot\mbl_image_validate.c **** */
  51:C:/Users/stapi/OneDrive/Desktop/GD32VW553/GD32VW55X_Wifi_BLE_SDK/GD32VW55x_RELEASE_V1.0.2/MBL/mainboot\mbl_image_validate.c **** int boot_image_find(OUT uint32_t *idx, OUT uint32_t *image_offset)
  52:C:/Users/stapi/OneDrive/Desktop/GD32VW553/GD32VW55X_Wifi_BLE_SDK/GD32VW55x_RELEASE_V1.0.2/MBL/mainboot\mbl_image_validate.c **** {
  16              		.loc 1 52 1
  17              		.cfi_startproc
  18              	.LVL0:
  19 0000 17030000 		call	t0,__riscv_save_5
  19      E7020300 
  20              		.cfi_offset 20, -24
  21              		.cfi_offset 19, -20
  22              		.cfi_offset 18, -16
  23              		.cfi_offset 9, -12
  24              		.cfi_offset 8, -8
  25              		.cfi_offset 1, -4
  26              		.cfi_def_cfa_offset 32
  53:C:/Users/stapi/OneDrive/Desktop/GD32VW553/GD32VW55X_Wifi_BLE_SDK/GD32VW55x_RELEASE_V1.0.2/MBL/mainboot\mbl_image_validate.c ****     uint8_t img0_stat = 0, img1_stat = 0;
  27              		.loc 1 53 5
  52:C:/Users/stapi/OneDrive/Desktop/GD32VW553/GD32VW55X_Wifi_BLE_SDK/GD32VW55x_RELEASE_V1.0.2/MBL/mainboot\mbl_image_validate.c ****     uint8_t img0_stat = 0, img1_stat = 0;
  28              		.loc 1 52 1 is_stmt 0
  29 0008 4111     		addi	sp,sp,-16
  30              		.cfi_def_cfa_offset 48
  31              		.loc 1 53 13
  32 000a 23070100 		sb	zero,14(sp)
  33              		.loc 1 53 28
  34 000e A3070100 		sb	zero,15(sp)
  54:C:/Users/stapi/OneDrive/Desktop/GD32VW553/GD32VW55X_Wifi_BLE_SDK/GD32VW55x_RELEASE_V1.0.2/MBL/mainboot\mbl_image_validate.c **** #if 0
  55:C:/Users/stapi/OneDrive/Desktop/GD32VW553/GD32VW55X_Wifi_BLE_SDK/GD32VW55x_RELEASE_V1.0.2/MBL/mainboot\mbl_image_validate.c ****     struct sys_setting_t setting;
  56:C:/Users/stapi/OneDrive/Desktop/GD32VW553/GD32VW55X_Wifi_BLE_SDK/GD32VW55x_RELEASE_V1.0.2/MBL/mainboot\mbl_image_validate.c **** #endif
  57:C:/Users/stapi/OneDrive/Desktop/GD32VW553/GD32VW55X_Wifi_BLE_SDK/GD32VW55x_RELEASE_V1.0.2/MBL/mainboot\mbl_image_validate.c ****     uint8_t img0_found = 0, img1_found = 0;
  35              		.loc 1 57 5 is_stmt 1
  36              	.LVL1:
  58:C:/Users/stapi/OneDrive/Desktop/GD32VW553/GD32VW55X_Wifi_BLE_SDK/GD32VW55x_RELEASE_V1.0.2/MBL/mainboot\mbl_image_validate.c ****     int boot_idx = -1;
  37              		.loc 1 58 5
  59:C:/Users/stapi/OneDrive/Desktop/GD32VW553/GD32VW55X_Wifi_BLE_SDK/GD32VW55x_RELEASE_V1.0.2/MBL/mainboot\mbl_image_validate.c ****     int ret, result = 0;
  38              		.loc 1 59 5
  60:C:/Users/stapi/OneDrive/Desktop/GD32VW553/GD32VW55X_Wifi_BLE_SDK/GD32VW55x_RELEASE_V1.0.2/MBL/mainboot\mbl_image_validate.c **** 
  61:C:/Users/stapi/OneDrive/Desktop/GD32VW553/GD32VW55X_Wifi_BLE_SDK/GD32VW55x_RELEASE_V1.0.2/MBL/mainboot\mbl_image_validate.c ****     if (NULL == image_offset) {
  39              		.loc 1 61 5
  40              		.loc 1 61 8 is_stmt 0
  41 0012 63830510 		beq	a1,zero,.L17
  62:C:/Users/stapi/OneDrive/Desktop/GD32VW553/GD32VW55X_Wifi_BLE_SDK/GD32VW55x_RELEASE_V1.0.2/MBL/mainboot\mbl_image_validate.c ****         result = -1;
  63:C:/Users/stapi/OneDrive/Desktop/GD32VW553/GD32VW55X_Wifi_BLE_SDK/GD32VW55x_RELEASE_V1.0.2/MBL/mainboot\mbl_image_validate.c ****         goto Failed;
  64:C:/Users/stapi/OneDrive/Desktop/GD32VW553/GD32VW55X_Wifi_BLE_SDK/GD32VW55x_RELEASE_V1.0.2/MBL/mainboot\mbl_image_validate.c ****     }
  65:C:/Users/stapi/OneDrive/Desktop/GD32VW553/GD32VW55X_Wifi_BLE_SDK/GD32VW55x_RELEASE_V1.0.2/MBL/mainboot\mbl_image_validate.c **** 
  66:C:/Users/stapi/OneDrive/Desktop/GD32VW553/GD32VW55X_Wifi_BLE_SDK/GD32VW55x_RELEASE_V1.0.2/MBL/mainboot\mbl_image_validate.c ****     ret = rom_sys_status_get(SYS_IMAGE0_STATUS, LEN_SYS_IMAGE_STATUS, &img0_stat);
  42              		.loc 1 66 5 is_stmt 1
  43              		.loc 1 66 11 is_stmt 0
  44 0016 37090000 		lui	s2,%hi(p_rom_api)
  45 001a 83270900 		lw	a5,%lo(p_rom_api)(s2)
  46 001e AE84     		mv	s1,a1
  47 0020 2A8A     		mv	s4,a0
  48 0022 DC5B     		lw	a5,52(a5)
  49 0024 1306E100 		addi	a2,sp,14
  50 0028 8545     		li	a1,1
  51              	.LVL2:
  52 002a 0D45     		li	a0,3
  53              	.LVL3:
  54 002c 8297     		jalr	a5
  55              	.LVL4:
  67:C:/Users/stapi/OneDrive/Desktop/GD32VW553/GD32VW55X_Wifi_BLE_SDK/GD32VW55x_RELEASE_V1.0.2/MBL/mainboot\mbl_image_validate.c ****     if (ret <= SYS_STATUS_FOUND_ERR) {
  56              		.loc 1 67 8
  57 002e FD59     		li	s3,-1
  66:C:/Users/stapi/OneDrive/Desktop/GD32VW553/GD32VW55X_Wifi_BLE_SDK/GD32VW55x_RELEASE_V1.0.2/MBL/mainboot\mbl_image_validate.c ****     if (ret <= SYS_STATUS_FOUND_ERR) {
  58              		.loc 1 66 11
  59 0030 2A84     		mv	s0,a0
  60              	.LVL5:
  61              		.loc 1 67 5 is_stmt 1
  62              		.loc 1 67 8 is_stmt 0
  63 0032 634F350D 		blt	a0,s3,.L18
  68:C:/Users/stapi/OneDrive/Desktop/GD32VW553/GD32VW55X_Wifi_BLE_SDK/GD32VW55x_RELEASE_V1.0.2/MBL/mainboot\mbl_image_validate.c ****         result = -2;
  69:C:/Users/stapi/OneDrive/Desktop/GD32VW553/GD32VW55X_Wifi_BLE_SDK/GD32VW55x_RELEASE_V1.0.2/MBL/mainboot\mbl_image_validate.c ****         goto Failed;
  70:C:/Users/stapi/OneDrive/Desktop/GD32VW553/GD32VW55X_Wifi_BLE_SDK/GD32VW55x_RELEASE_V1.0.2/MBL/mainboot\mbl_image_validate.c ****     } else if (ret == SYS_STATUS_FOUND_OK) {
  64              		.loc 1 70 12 is_stmt 1
  65              	.LVL6:
  71:C:/Users/stapi/OneDrive/Desktop/GD32VW553/GD32VW55X_Wifi_BLE_SDK/GD32VW55x_RELEASE_V1.0.2/MBL/mainboot\mbl_image_validate.c ****         img0_found = 1;
  72:C:/Users/stapi/OneDrive/Desktop/GD32VW553/GD32VW55X_Wifi_BLE_SDK/GD32VW55x_RELEASE_V1.0.2/MBL/mainboot\mbl_image_validate.c ****     } else {  // SYS_STATUS_NOT_FOUND
  73:C:/Users/stapi/OneDrive/Desktop/GD32VW553/GD32VW55X_Wifi_BLE_SDK/GD32VW55x_RELEASE_V1.0.2/MBL/mainboot\mbl_image_validate.c ****         img0_found = 0;
  74:C:/Users/stapi/OneDrive/Desktop/GD32VW553/GD32VW55X_Wifi_BLE_SDK/GD32VW55x_RELEASE_V1.0.2/MBL/mainboot\mbl_image_validate.c ****     }
  75:C:/Users/stapi/OneDrive/Desktop/GD32VW553/GD32VW55X_Wifi_BLE_SDK/GD32VW55x_RELEASE_V1.0.2/MBL/mainboot\mbl_image_validate.c ****     ret = rom_sys_status_get(SYS_IMAGE1_STATUS, LEN_SYS_IMAGE_STATUS, &img1_stat);
  66              		.loc 1 75 5
  67              		.loc 1 75 11 is_stmt 0
  68 0036 83270900 		lw	a5,%lo(p_rom_api)(s2)
  69 003a 1306F100 		addi	a2,sp,15
  70 003e 8545     		li	a1,1
  71 0040 DC5B     		lw	a5,52(a5)
  72 0042 1145     		li	a0,4
  73 0044 8297     		jalr	a5
  74              	.LVL7:
  76:C:/Users/stapi/OneDrive/Desktop/GD32VW553/GD32VW55X_Wifi_BLE_SDK/GD32VW55x_RELEASE_V1.0.2/MBL/mainboot\mbl_image_validate.c ****     if (ret <= SYS_STATUS_FOUND_ERR) {
  75              		.loc 1 76 5 is_stmt 1
  76              		.loc 1 76 8 is_stmt 0
  77 0046 6347350D 		blt	a0,s3,.L19
  77:C:/Users/stapi/OneDrive/Desktop/GD32VW553/GD32VW55X_Wifi_BLE_SDK/GD32VW55x_RELEASE_V1.0.2/MBL/mainboot\mbl_image_validate.c ****         result = -3;
  78:C:/Users/stapi/OneDrive/Desktop/GD32VW553/GD32VW55X_Wifi_BLE_SDK/GD32VW55x_RELEASE_V1.0.2/MBL/mainboot\mbl_image_validate.c ****         goto Failed;
  79:C:/Users/stapi/OneDrive/Desktop/GD32VW553/GD32VW55X_Wifi_BLE_SDK/GD32VW55x_RELEASE_V1.0.2/MBL/mainboot\mbl_image_validate.c ****     } else if (ret == SYS_STATUS_FOUND_OK) {
  78              		.loc 1 79 12 is_stmt 1
  79              		.loc 1 79 15 is_stmt 0
  80 004a 0DE9     		bne	a0,zero,.L3
  81              	.LVL8:
  80:C:/Users/stapi/OneDrive/Desktop/GD32VW553/GD32VW55X_Wifi_BLE_SDK/GD32VW55x_RELEASE_V1.0.2/MBL/mainboot\mbl_image_validate.c ****         img1_found = 1;
  81:C:/Users/stapi/OneDrive/Desktop/GD32VW553/GD32VW55X_Wifi_BLE_SDK/GD32VW55x_RELEASE_V1.0.2/MBL/mainboot\mbl_image_validate.c ****     } else {  // SYS_STATUS_NOT_FOUND
  82:C:/Users/stapi/OneDrive/Desktop/GD32VW553/GD32VW55X_Wifi_BLE_SDK/GD32VW55x_RELEASE_V1.0.2/MBL/mainboot\mbl_image_validate.c ****         img1_found = 0;
  83:C:/Users/stapi/OneDrive/Desktop/GD32VW553/GD32VW55X_Wifi_BLE_SDK/GD32VW55x_RELEASE_V1.0.2/MBL/mainboot\mbl_image_validate.c ****     }
  84:C:/Users/stapi/OneDrive/Desktop/GD32VW553/GD32VW55X_Wifi_BLE_SDK/GD32VW55x_RELEASE_V1.0.2/MBL/mainboot\mbl_image_validate.c **** 
  85:C:/Users/stapi/OneDrive/Desktop/GD32VW553/GD32VW55X_Wifi_BLE_SDK/GD32VW55x_RELEASE_V1.0.2/MBL/mainboot\mbl_image_validate.c ****     /* Image0 never downloaded, Image1 should not be downloaded too. */
  86:C:/Users/stapi/OneDrive/Desktop/GD32VW553/GD32VW55X_Wifi_BLE_SDK/GD32VW55x_RELEASE_V1.0.2/MBL/mainboot\mbl_image_validate.c ****     if (!img0_found && img1_found) {
  82              		.loc 1 86 5 is_stmt 1
  87:C:/Users/stapi/OneDrive/Desktop/GD32VW553/GD32VW55X_Wifi_BLE_SDK/GD32VW55x_RELEASE_V1.0.2/MBL/mainboot\mbl_image_validate.c ****         result = -4;
  83              		.loc 1 87 16 is_stmt 0
  84 004c 7155     		li	a0,-4
  85              	.LVL9:
  86:C:/Users/stapi/OneDrive/Desktop/GD32VW553/GD32VW55X_Wifi_BLE_SDK/GD32VW55x_RELEASE_V1.0.2/MBL/mainboot\mbl_image_validate.c ****         result = -4;
  86              		.loc 1 86 8
  87 004e 3DEC     		bne	s0,zero,.L1
  88:C:/Users/stapi/OneDrive/Desktop/GD32VW553/GD32VW55X_Wifi_BLE_SDK/GD32VW55x_RELEASE_V1.0.2/MBL/mainboot\mbl_image_validate.c ****         goto Failed;
  89:C:/Users/stapi/OneDrive/Desktop/GD32VW553/GD32VW55X_Wifi_BLE_SDK/GD32VW55x_RELEASE_V1.0.2/MBL/mainboot\mbl_image_validate.c ****     }
  90:C:/Users/stapi/OneDrive/Desktop/GD32VW553/GD32VW55X_Wifi_BLE_SDK/GD32VW55x_RELEASE_V1.0.2/MBL/mainboot\mbl_image_validate.c **** 
  91:C:/Users/stapi/OneDrive/Desktop/GD32VW553/GD32VW55X_Wifi_BLE_SDK/GD32VW55x_RELEASE_V1.0.2/MBL/mainboot\mbl_image_validate.c ****     if (!img0_found && !img1_found) {
  92:C:/Users/stapi/OneDrive/Desktop/GD32VW553/GD32VW55X_Wifi_BLE_SDK/GD32VW55x_RELEASE_V1.0.2/MBL/mainboot\mbl_image_validate.c ****         /* ISP newly downloaded */
  93:C:/Users/stapi/OneDrive/Desktop/GD32VW553/GD32VW55X_Wifi_BLE_SDK/GD32VW55x_RELEASE_V1.0.2/MBL/mainboot\mbl_image_validate.c ****         rom_sys_set_img_flag(IMAGE_0, IMG_FLAG_NEWER_MASK, IMG_FLAG_NEWER);
  94:C:/Users/stapi/OneDrive/Desktop/GD32VW553/GD32VW55X_Wifi_BLE_SDK/GD32VW55x_RELEASE_V1.0.2/MBL/mainboot\mbl_image_validate.c ****         boot_idx = 0;
  95:C:/Users/stapi/OneDrive/Desktop/GD32VW553/GD32VW55X_Wifi_BLE_SDK/GD32VW55x_RELEASE_V1.0.2/MBL/mainboot\mbl_image_validate.c ****         goto ImgSelected;
  96:C:/Users/stapi/OneDrive/Desktop/GD32VW553/GD32VW55X_Wifi_BLE_SDK/GD32VW55x_RELEASE_V1.0.2/MBL/mainboot\mbl_image_validate.c ****     }
  97:C:/Users/stapi/OneDrive/Desktop/GD32VW553/GD32VW55X_Wifi_BLE_SDK/GD32VW55x_RELEASE_V1.0.2/MBL/mainboot\mbl_image_validate.c **** 
  98:C:/Users/stapi/OneDrive/Desktop/GD32VW553/GD32VW55X_Wifi_BLE_SDK/GD32VW55x_RELEASE_V1.0.2/MBL/mainboot\mbl_image_validate.c ****     if (img0_found && ((img0_stat & IMG_FLAG_NEWER_MASK) == IMG_FLAG_NEWER)) {
  88              		.loc 1 98 35
  89 0050 8347E100 		lbu	a5,14(sp)
  90              		.loc 1 98 20
  91 0054 13F71700 		andi	a4,a5,1
  92 0058 3DEF     		bne	a4,zero,.L13
  93              	.L10:
  99:C:/Users/stapi/OneDrive/Desktop/GD32VW553/GD32VW55X_Wifi_BLE_SDK/GD32VW55x_RELEASE_V1.0.2/MBL/mainboot\mbl_image_validate.c ****         if (((img0_stat & IMG_FLAG_VERIFY_MASK) != IMG_FLAG_VERIFY_FAIL)
 100:C:/Users/stapi/OneDrive/Desktop/GD32VW553/GD32VW55X_Wifi_BLE_SDK/GD32VW55x_RELEASE_V1.0.2/MBL/mainboot\mbl_image_validate.c ****             && ((img0_stat & IMG_FLAG_IA_MASK) != IMG_FLAG_IA_FAIL)) {
 101:C:/Users/stapi/OneDrive/Desktop/GD32VW553/GD32VW55X_Wifi_BLE_SDK/GD32VW55x_RELEASE_V1.0.2/MBL/mainboot\mbl_image_validate.c ****             boot_idx = 0;
 102:C:/Users/stapi/OneDrive/Desktop/GD32VW553/GD32VW55X_Wifi_BLE_SDK/GD32VW55x_RELEASE_V1.0.2/MBL/mainboot\mbl_image_validate.c ****             goto ImgSelected;
 103:C:/Users/stapi/OneDrive/Desktop/GD32VW553/GD32VW55X_Wifi_BLE_SDK/GD32VW55x_RELEASE_V1.0.2/MBL/mainboot\mbl_image_validate.c ****         }
 104:C:/Users/stapi/OneDrive/Desktop/GD32VW553/GD32VW55X_Wifi_BLE_SDK/GD32VW55x_RELEASE_V1.0.2/MBL/mainboot\mbl_image_validate.c ****     }
 105:C:/Users/stapi/OneDrive/Desktop/GD32VW553/GD32VW55X_Wifi_BLE_SDK/GD32VW55x_RELEASE_V1.0.2/MBL/mainboot\mbl_image_validate.c **** 
 106:C:/Users/stapi/OneDrive/Desktop/GD32VW553/GD32VW55X_Wifi_BLE_SDK/GD32VW55x_RELEASE_V1.0.2/MBL/mainboot\mbl_image_validate.c ****     if (img1_found && ((img1_stat & IMG_FLAG_NEWER_MASK) == IMG_FLAG_NEWER)) {
  94              		.loc 1 106 35
  95 005a 8347F100 		lbu	a5,15(sp)
  96              		.loc 1 106 20
  97 005e 13F71700 		andi	a4,a5,1
  98 0062 51CB     		beq	a4,zero,.L15
  99              	.L14:
 107:C:/Users/stapi/OneDrive/Desktop/GD32VW553/GD32VW55X_Wifi_BLE_SDK/GD32VW55x_RELEASE_V1.0.2/MBL/mainboot\mbl_image_validate.c ****         if (((img1_stat & IMG_FLAG_VERIFY_MASK) != IMG_FLAG_VERIFY_FAIL)
 100              		.loc 1 107 9 is_stmt 1
 101              		.loc 1 107 12 is_stmt 0
 102 0064 13F76700 		andi	a4,a5,6
 103 0068 9146     		li	a3,4
 104 006a 6306D708 		beq	a4,a3,.L15
 108:C:/Users/stapi/OneDrive/Desktop/GD32VW553/GD32VW55X_Wifi_BLE_SDK/GD32VW55x_RELEASE_V1.0.2/MBL/mainboot\mbl_image_validate.c ****             && ((img1_stat & IMG_FLAG_IA_MASK) != IMG_FLAG_IA_FAIL)) {
 105              		.loc 1 108 13
 106 006e 13F78701 		andi	a4,a5,24
 107 0072 C146     		li	a3,16
 108 0074 6301D708 		beq	a4,a3,.L15
 109 0078 8547     		li	a5,1
 110 007a A1A0     		j	.L6
 111              	.LVL10:
 112              	.L3:
  82:C:/Users/stapi/OneDrive/Desktop/GD32VW553/GD32VW55X_Wifi_BLE_SDK/GD32VW55x_RELEASE_V1.0.2/MBL/mainboot\mbl_image_validate.c ****     }
 113              		.loc 1 82 9 is_stmt 1
  86:C:/Users/stapi/OneDrive/Desktop/GD32VW553/GD32VW55X_Wifi_BLE_SDK/GD32VW55x_RELEASE_V1.0.2/MBL/mainboot\mbl_image_validate.c ****         result = -4;
 114              		.loc 1 86 5
  91:C:/Users/stapi/OneDrive/Desktop/GD32VW553/GD32VW55X_Wifi_BLE_SDK/GD32VW55x_RELEASE_V1.0.2/MBL/mainboot\mbl_image_validate.c ****         /* ISP newly downloaded */
 115              		.loc 1 91 5
  91:C:/Users/stapi/OneDrive/Desktop/GD32VW553/GD32VW55X_Wifi_BLE_SDK/GD32VW55x_RELEASE_V1.0.2/MBL/mainboot\mbl_image_validate.c ****         /* ISP newly downloaded */
 116              		.loc 1 91 8 is_stmt 0
 117 007c 1DE8     		bne	s0,zero,.L35
  98:C:/Users/stapi/OneDrive/Desktop/GD32VW553/GD32VW55X_Wifi_BLE_SDK/GD32VW55x_RELEASE_V1.0.2/MBL/mainboot\mbl_image_validate.c ****         if (((img0_stat & IMG_FLAG_VERIFY_MASK) != IMG_FLAG_VERIFY_FAIL)
 118              		.loc 1 98 5 is_stmt 1 discriminator 1
  98:C:/Users/stapi/OneDrive/Desktop/GD32VW553/GD32VW55X_Wifi_BLE_SDK/GD32VW55x_RELEASE_V1.0.2/MBL/mainboot\mbl_image_validate.c ****         if (((img0_stat & IMG_FLAG_VERIFY_MASK) != IMG_FLAG_VERIFY_FAIL)
 119              		.loc 1 98 35 is_stmt 0 discriminator 1
 120 007e 8347E100 		lbu	a5,14(sp)
  98:C:/Users/stapi/OneDrive/Desktop/GD32VW553/GD32VW55X_Wifi_BLE_SDK/GD32VW55x_RELEASE_V1.0.2/MBL/mainboot\mbl_image_validate.c ****         if (((img0_stat & IMG_FLAG_VERIFY_MASK) != IMG_FLAG_VERIFY_FAIL)
 121              		.loc 1 98 20 discriminator 1
 122 0082 13F71700 		andi	a4,a5,1
 123 0086 11CB     		beq	a4,zero,.L7
  99:C:/Users/stapi/OneDrive/Desktop/GD32VW553/GD32VW55X_Wifi_BLE_SDK/GD32VW55x_RELEASE_V1.0.2/MBL/mainboot\mbl_image_validate.c ****             && ((img0_stat & IMG_FLAG_IA_MASK) != IMG_FLAG_IA_FAIL)) {
 124              		.loc 1 99 9 is_stmt 1
  99:C:/Users/stapi/OneDrive/Desktop/GD32VW553/GD32VW55X_Wifi_BLE_SDK/GD32VW55x_RELEASE_V1.0.2/MBL/mainboot\mbl_image_validate.c ****             && ((img0_stat & IMG_FLAG_IA_MASK) != IMG_FLAG_IA_FAIL)) {
 125              		.loc 1 99 12 is_stmt 0
 126 0088 13F76700 		andi	a4,a5,6
 127 008c 9146     		li	a3,4
 128 008e 6306D700 		beq	a4,a3,.L7
 100:C:/Users/stapi/OneDrive/Desktop/GD32VW553/GD32VW55X_Wifi_BLE_SDK/GD32VW55x_RELEASE_V1.0.2/MBL/mainboot\mbl_image_validate.c ****             boot_idx = 0;
 129              		.loc 1 100 13
 130 0092 E18B     		andi	a5,a5,24
 131 0094 4147     		li	a4,16
 132 0096 639BE706 		bne	a5,a4,.L26
 133              	.L7:
 109:C:/Users/stapi/OneDrive/Desktop/GD32VW553/GD32VW55X_Wifi_BLE_SDK/GD32VW55x_RELEASE_V1.0.2/MBL/mainboot\mbl_image_validate.c ****             boot_idx = 1;
 110:C:/Users/stapi/OneDrive/Desktop/GD32VW553/GD32VW55X_Wifi_BLE_SDK/GD32VW55x_RELEASE_V1.0.2/MBL/mainboot\mbl_image_validate.c ****             goto ImgSelected;
 111:C:/Users/stapi/OneDrive/Desktop/GD32VW553/GD32VW55X_Wifi_BLE_SDK/GD32VW55x_RELEASE_V1.0.2/MBL/mainboot\mbl_image_validate.c ****         }
 112:C:/Users/stapi/OneDrive/Desktop/GD32VW553/GD32VW55X_Wifi_BLE_SDK/GD32VW55x_RELEASE_V1.0.2/MBL/mainboot\mbl_image_validate.c ****     }
 113:C:/Users/stapi/OneDrive/Desktop/GD32VW553/GD32VW55X_Wifi_BLE_SDK/GD32VW55x_RELEASE_V1.0.2/MBL/mainboot\mbl_image_validate.c **** 
 114:C:/Users/stapi/OneDrive/Desktop/GD32VW553/GD32VW55X_Wifi_BLE_SDK/GD32VW55x_RELEASE_V1.0.2/MBL/mainboot\mbl_image_validate.c ****     if (img0_found && ((img0_stat & IMG_FLAG_VERIFY_MASK) == IMG_FLAG_VERIFY_OK)
 115:C:/Users/stapi/OneDrive/Desktop/GD32VW553/GD32VW55X_Wifi_BLE_SDK/GD32VW55x_RELEASE_V1.0.2/MBL/mainboot\mbl_image_validate.c ****         && ((img0_stat & IMG_FLAG_IA_MASK) == IMG_FLAG_IA_OK)) {
 134              		.loc 1 115 9
 135 009a 8347E100 		lbu	a5,14(sp)
 136 009e 2947     		li	a4,10
 137 00a0 F98B     		andi	a5,a5,30
 138 00a2 6385E706 		beq	a5,a4,.L26
 139              	.LVL11:
 140              	.L23:
 116:C:/Users/stapi/OneDrive/Desktop/GD32VW553/GD32VW55X_Wifi_BLE_SDK/GD32VW55x_RELEASE_V1.0.2/MBL/mainboot\mbl_image_validate.c ****         boot_idx = 0;
 117:C:/Users/stapi/OneDrive/Desktop/GD32VW553/GD32VW55X_Wifi_BLE_SDK/GD32VW55x_RELEASE_V1.0.2/MBL/mainboot\mbl_image_validate.c ****         goto ImgSelected;
 118:C:/Users/stapi/OneDrive/Desktop/GD32VW553/GD32VW55X_Wifi_BLE_SDK/GD32VW55x_RELEASE_V1.0.2/MBL/mainboot\mbl_image_validate.c ****     }
 119:C:/Users/stapi/OneDrive/Desktop/GD32VW553/GD32VW55X_Wifi_BLE_SDK/GD32VW55x_RELEASE_V1.0.2/MBL/mainboot\mbl_image_validate.c **** 
 120:C:/Users/stapi/OneDrive/Desktop/GD32VW553/GD32VW55X_Wifi_BLE_SDK/GD32VW55x_RELEASE_V1.0.2/MBL/mainboot\mbl_image_validate.c ****     if (img1_found && ((img1_stat & IMG_FLAG_VERIFY_MASK) == IMG_FLAG_VERIFY_OK)
 121:C:/Users/stapi/OneDrive/Desktop/GD32VW553/GD32VW55X_Wifi_BLE_SDK/GD32VW55x_RELEASE_V1.0.2/MBL/mainboot\mbl_image_validate.c ****         && ((img1_stat & IMG_FLAG_IA_MASK) == IMG_FLAG_IA_OK)) {
 122:C:/Users/stapi/OneDrive/Desktop/GD32VW553/GD32VW55X_Wifi_BLE_SDK/GD32VW55x_RELEASE_V1.0.2/MBL/mainboot\mbl_image_validate.c ****         boot_idx = 1;
 123:C:/Users/stapi/OneDrive/Desktop/GD32VW553/GD32VW55X_Wifi_BLE_SDK/GD32VW55x_RELEASE_V1.0.2/MBL/mainboot\mbl_image_validate.c ****         goto ImgSelected;
 124:C:/Users/stapi/OneDrive/Desktop/GD32VW553/GD32VW55X_Wifi_BLE_SDK/GD32VW55x_RELEASE_V1.0.2/MBL/mainboot\mbl_image_validate.c ****     }
 125:C:/Users/stapi/OneDrive/Desktop/GD32VW553/GD32VW55X_Wifi_BLE_SDK/GD32VW55x_RELEASE_V1.0.2/MBL/mainboot\mbl_image_validate.c **** 
 126:C:/Users/stapi/OneDrive/Desktop/GD32VW553/GD32VW55X_Wifi_BLE_SDK/GD32VW55x_RELEASE_V1.0.2/MBL/mainboot\mbl_image_validate.c ****     if (boot_idx == -1) {
 127:C:/Users/stapi/OneDrive/Desktop/GD32VW553/GD32VW55X_Wifi_BLE_SDK/GD32VW55x_RELEASE_V1.0.2/MBL/mainboot\mbl_image_validate.c ****         result = -5;
 141              		.loc 1 127 16
 142 00a6 6D55     		li	a0,-5
 143              	.LVL12:
 128:C:/Users/stapi/OneDrive/Desktop/GD32VW553/GD32VW55X_Wifi_BLE_SDK/GD32VW55x_RELEASE_V1.0.2/MBL/mainboot\mbl_image_validate.c ****         goto Failed;
 129:C:/Users/stapi/OneDrive/Desktop/GD32VW553/GD32VW55X_Wifi_BLE_SDK/GD32VW55x_RELEASE_V1.0.2/MBL/mainboot\mbl_image_validate.c ****     }
 130:C:/Users/stapi/OneDrive/Desktop/GD32VW553/GD32VW55X_Wifi_BLE_SDK/GD32VW55x_RELEASE_V1.0.2/MBL/mainboot\mbl_image_validate.c **** 
 131:C:/Users/stapi/OneDrive/Desktop/GD32VW553/GD32VW55X_Wifi_BLE_SDK/GD32VW55x_RELEASE_V1.0.2/MBL/mainboot\mbl_image_validate.c **** ImgSelected:
 132:C:/Users/stapi/OneDrive/Desktop/GD32VW553/GD32VW55X_Wifi_BLE_SDK/GD32VW55x_RELEASE_V1.0.2/MBL/mainboot\mbl_image_validate.c **** #if 0
 133:C:/Users/stapi/OneDrive/Desktop/GD32VW553/GD32VW55X_Wifi_BLE_SDK/GD32VW55x_RELEASE_V1.0.2/MBL/mainboot\mbl_image_validate.c ****     /* Read Image Address from system setting */
 134:C:/Users/stapi/OneDrive/Desktop/GD32VW553/GD32VW55X_Wifi_BLE_SDK/GD32VW55x_RELEASE_V1.0.2/MBL/mainboot\mbl_image_validate.c ****     ret = rom_sys_setting_get(&setting);
 135:C:/Users/stapi/OneDrive/Desktop/GD32VW553/GD32VW55X_Wifi_BLE_SDK/GD32VW55x_RELEASE_V1.0.2/MBL/mainboot\mbl_image_validate.c ****     if (ret != 0) {
 136:C:/Users/stapi/OneDrive/Desktop/GD32VW553/GD32VW55X_Wifi_BLE_SDK/GD32VW55x_RELEASE_V1.0.2/MBL/mainboot\mbl_image_validate.c ****         result = -6;
 137:C:/Users/stapi/OneDrive/Desktop/GD32VW553/GD32VW55X_Wifi_BLE_SDK/GD32VW55x_RELEASE_V1.0.2/MBL/mainboot\mbl_image_validate.c ****         goto Failed;
 138:C:/Users/stapi/OneDrive/Desktop/GD32VW553/GD32VW55X_Wifi_BLE_SDK/GD32VW55x_RELEASE_V1.0.2/MBL/mainboot\mbl_image_validate.c ****     }
 139:C:/Users/stapi/OneDrive/Desktop/GD32VW553/GD32VW55X_Wifi_BLE_SDK/GD32VW55x_RELEASE_V1.0.2/MBL/mainboot\mbl_image_validate.c ****     *idx = boot_idx;
 140:C:/Users/stapi/OneDrive/Desktop/GD32VW553/GD32VW55X_Wifi_BLE_SDK/GD32VW55x_RELEASE_V1.0.2/MBL/mainboot\mbl_image_validate.c ****     *image_offset = setting.img0_offset;
 141:C:/Users/stapi/OneDrive/Desktop/GD32VW553/GD32VW55X_Wifi_BLE_SDK/GD32VW55x_RELEASE_V1.0.2/MBL/mainboot\mbl_image_validate.c **** #else
 142:C:/Users/stapi/OneDrive/Desktop/GD32VW553/GD32VW55X_Wifi_BLE_SDK/GD32VW55x_RELEASE_V1.0.2/MBL/mainboot\mbl_image_validate.c ****     *idx = boot_idx;
 143:C:/Users/stapi/OneDrive/Desktop/GD32VW553/GD32VW55X_Wifi_BLE_SDK/GD32VW55x_RELEASE_V1.0.2/MBL/mainboot\mbl_image_validate.c ****     *image_offset = RE_IMG_0_OFFSET + IMG_OVERHEAD_LEN;
 144:C:/Users/stapi/OneDrive/Desktop/GD32VW553/GD32VW55X_Wifi_BLE_SDK/GD32VW55x_RELEASE_V1.0.2/MBL/mainboot\mbl_image_validate.c **** #endif
 145:C:/Users/stapi/OneDrive/Desktop/GD32VW553/GD32VW55X_Wifi_BLE_SDK/GD32VW55x_RELEASE_V1.0.2/MBL/mainboot\mbl_image_validate.c **** 
 146:C:/Users/stapi/OneDrive/Desktop/GD32VW553/GD32VW55X_Wifi_BLE_SDK/GD32VW55x_RELEASE_V1.0.2/MBL/mainboot\mbl_image_validate.c ****     return 0;
 147:C:/Users/stapi/OneDrive/Desktop/GD32VW553/GD32VW55X_Wifi_BLE_SDK/GD32VW55x_RELEASE_V1.0.2/MBL/mainboot\mbl_image_validate.c **** 
 148:C:/Users/stapi/OneDrive/Desktop/GD32VW553/GD32VW55X_Wifi_BLE_SDK/GD32VW55x_RELEASE_V1.0.2/MBL/mainboot\mbl_image_validate.c **** Failed:
 149:C:/Users/stapi/OneDrive/Desktop/GD32VW553/GD32VW55X_Wifi_BLE_SDK/GD32VW55x_RELEASE_V1.0.2/MBL/mainboot\mbl_image_validate.c ****     return result;
 150:C:/Users/stapi/OneDrive/Desktop/GD32VW553/GD32VW55X_Wifi_BLE_SDK/GD32VW55x_RELEASE_V1.0.2/MBL/mainboot\mbl_image_validate.c **** }
 144              		.loc 1 150 1
 145 00a8 4101     		addi	sp,sp,16
 146              		.cfi_remember_state
 147              		.cfi_def_cfa_offset 0
 148 00aa 17030000 		tail	__riscv_restore_5
 148      67000300 
 149              		.cfi_restore 20
 150              		.cfi_restore 19
 151              		.cfi_restore 18
 152              		.cfi_restore 9
 153              		.cfi_restore 8
 154              		.cfi_restore 1
 155              		.cfi_def_cfa_offset -32
 156              	.LVL13:
 157              	.L35:
 158              		.cfi_restore_state
  93:C:/Users/stapi/OneDrive/Desktop/GD32VW553/GD32VW55X_Wifi_BLE_SDK/GD32VW55x_RELEASE_V1.0.2/MBL/mainboot\mbl_image_validate.c ****         boot_idx = 0;
 159              		.loc 1 93 9 is_stmt 1
 160 00b2 83270900 		lw	a5,%lo(p_rom_api)(s2)
 161 00b6 0546     		li	a2,1
 162 00b8 8545     		li	a1,1
 163 00ba BC43     		lw	a5,64(a5)
 164 00bc 0145     		li	a0,0
 165              	.LVL14:
 166 00be 8297     		jalr	a5
 167              	.LVL15:
  94:C:/Users/stapi/OneDrive/Desktop/GD32VW553/GD32VW55X_Wifi_BLE_SDK/GD32VW55x_RELEASE_V1.0.2/MBL/mainboot\mbl_image_validate.c ****         goto ImgSelected;
 168              		.loc 1 94 9
  95:C:/Users/stapi/OneDrive/Desktop/GD32VW553/GD32VW55X_Wifi_BLE_SDK/GD32VW55x_RELEASE_V1.0.2/MBL/mainboot\mbl_image_validate.c ****     }
 169              		.loc 1 95 9
 170 00c0 8147     		li	a5,0
 171              	.LVL16:
 172              	.L6:
 142:C:/Users/stapi/OneDrive/Desktop/GD32VW553/GD32VW55X_Wifi_BLE_SDK/GD32VW55x_RELEASE_V1.0.2/MBL/mainboot\mbl_image_validate.c ****     *image_offset = RE_IMG_0_OFFSET + IMG_OVERHEAD_LEN;
 173              		.loc 1 142 5
 142:C:/Users/stapi/OneDrive/Desktop/GD32VW553/GD32VW55X_Wifi_BLE_SDK/GD32VW55x_RELEASE_V1.0.2/MBL/mainboot\mbl_image_validate.c ****     *image_offset = RE_IMG_0_OFFSET + IMG_OVERHEAD_LEN;
 174              		.loc 1 142 10 is_stmt 0
 175 00c2 2320FA00 		sw	a5,0(s4)
 143:C:/Users/stapi/OneDrive/Desktop/GD32VW553/GD32VW55X_Wifi_BLE_SDK/GD32VW55x_RELEASE_V1.0.2/MBL/mainboot\mbl_image_validate.c **** #endif
 176              		.loc 1 143 5 is_stmt 1
 143:C:/Users/stapi/OneDrive/Desktop/GD32VW553/GD32VW55X_Wifi_BLE_SDK/GD32VW55x_RELEASE_V1.0.2/MBL/mainboot\mbl_image_validate.c **** #endif
 177              		.loc 1 143 19 is_stmt 0
 178 00c6 A967     		li	a5,40960
 179 00c8 9CC0     		sw	a5,0(s1)
 146:C:/Users/stapi/OneDrive/Desktop/GD32VW553/GD32VW55X_Wifi_BLE_SDK/GD32VW55x_RELEASE_V1.0.2/MBL/mainboot\mbl_image_validate.c **** 
 180              		.loc 1 146 5 is_stmt 1
 146:C:/Users/stapi/OneDrive/Desktop/GD32VW553/GD32VW55X_Wifi_BLE_SDK/GD32VW55x_RELEASE_V1.0.2/MBL/mainboot\mbl_image_validate.c **** 
 181              		.loc 1 146 12 is_stmt 0
 182 00ca 0145     		li	a0,0
 183              	.LVL17:
 184              	.L1:
 185              		.loc 1 150 1
 186 00cc 4101     		addi	sp,sp,16
 187              		.cfi_remember_state
 188              		.cfi_def_cfa_offset 0
 189 00ce 17030000 		tail	__riscv_restore_5
 189      67000300 
 190              		.cfi_restore 20
 191              		.cfi_restore 19
 192              		.cfi_restore 18
 193              		.cfi_restore 9
 194              		.cfi_restore 8
 195              		.cfi_restore 1
 196              		.cfi_def_cfa_offset -32
 197              	.LVL18:
 198              	.L13:
 199              		.cfi_restore_state
  99:C:/Users/stapi/OneDrive/Desktop/GD32VW553/GD32VW55X_Wifi_BLE_SDK/GD32VW55x_RELEASE_V1.0.2/MBL/mainboot\mbl_image_validate.c ****             && ((img0_stat & IMG_FLAG_IA_MASK) != IMG_FLAG_IA_FAIL)) {
 200              		.loc 1 99 9 is_stmt 1
  99:C:/Users/stapi/OneDrive/Desktop/GD32VW553/GD32VW55X_Wifi_BLE_SDK/GD32VW55x_RELEASE_V1.0.2/MBL/mainboot\mbl_image_validate.c ****             && ((img0_stat & IMG_FLAG_IA_MASK) != IMG_FLAG_IA_FAIL)) {
 201              		.loc 1 99 12 is_stmt 0
 202 00d6 13F76700 		andi	a4,a5,6
 203 00da 9146     		li	a3,4
 204 00dc E30FD7F6 		beq	a4,a3,.L10
 100:C:/Users/stapi/OneDrive/Desktop/GD32VW553/GD32VW55X_Wifi_BLE_SDK/GD32VW55x_RELEASE_V1.0.2/MBL/mainboot\mbl_image_validate.c ****             boot_idx = 0;
 205              		.loc 1 100 13
 206 00e0 13F78701 		andi	a4,a5,24
 207 00e4 C146     		li	a3,16
 208 00e6 8147     		li	a5,0
 209 00e8 E31DD7FC 		bne	a4,a3,.L6
 106:C:/Users/stapi/OneDrive/Desktop/GD32VW553/GD32VW55X_Wifi_BLE_SDK/GD32VW55x_RELEASE_V1.0.2/MBL/mainboot\mbl_image_validate.c ****         if (((img1_stat & IMG_FLAG_VERIFY_MASK) != IMG_FLAG_VERIFY_FAIL)
 210              		.loc 1 106 5 is_stmt 1
 106:C:/Users/stapi/OneDrive/Desktop/GD32VW553/GD32VW55X_Wifi_BLE_SDK/GD32VW55x_RELEASE_V1.0.2/MBL/mainboot\mbl_image_validate.c ****         if (((img1_stat & IMG_FLAG_VERIFY_MASK) != IMG_FLAG_VERIFY_FAIL)
 211              		.loc 1 106 35 is_stmt 0
 212 00ec 8347F100 		lbu	a5,15(sp)
 106:C:/Users/stapi/OneDrive/Desktop/GD32VW553/GD32VW55X_Wifi_BLE_SDK/GD32VW55x_RELEASE_V1.0.2/MBL/mainboot\mbl_image_validate.c ****         if (((img1_stat & IMG_FLAG_VERIFY_MASK) != IMG_FLAG_VERIFY_FAIL)
 213              		.loc 1 106 20
 214 00f0 13F71700 		andi	a4,a5,1
 215 00f4 25FB     		bne	a4,zero,.L14
 216              	.L15:
 115:C:/Users/stapi/OneDrive/Desktop/GD32VW553/GD32VW55X_Wifi_BLE_SDK/GD32VW55x_RELEASE_V1.0.2/MBL/mainboot\mbl_image_validate.c ****         boot_idx = 0;
 217              		.loc 1 115 9
 218 00f6 8346E100 		lbu	a3,14(sp)
 219 00fa 2947     		li	a4,10
 220 00fc F98A     		andi	a3,a3,30
 221 00fe 6387E600 		beq	a3,a4,.L26
 121:C:/Users/stapi/OneDrive/Desktop/GD32VW553/GD32VW55X_Wifi_BLE_SDK/GD32VW55x_RELEASE_V1.0.2/MBL/mainboot\mbl_image_validate.c ****         boot_idx = 1;
 222              		.loc 1 121 9
 223 0102 F98B     		andi	a5,a5,30
 224 0104 E391E7FA 		bne	a5,a4,.L23
 225 0108 8547     		li	a5,1
 226 010a 65BF     		j	.L6
 227              	.LVL19:
 228              	.L26:
 100:C:/Users/stapi/OneDrive/Desktop/GD32VW553/GD32VW55X_Wifi_BLE_SDK/GD32VW55x_RELEASE_V1.0.2/MBL/mainboot\mbl_image_validate.c ****             boot_idx = 0;
 229              		.loc 1 100 13
 230 010c 8147     		li	a5,0
 231 010e 55BF     		j	.L6
 232              	.LVL20:
 233              	.L18:
  68:C:/Users/stapi/OneDrive/Desktop/GD32VW553/GD32VW55X_Wifi_BLE_SDK/GD32VW55x_RELEASE_V1.0.2/MBL/mainboot\mbl_image_validate.c ****         goto Failed;
 234              		.loc 1 68 16
 235 0110 7955     		li	a0,-2
 236 0112 6DBF     		j	.L1
 237              	.LVL21:
 238              	.L19:
  77:C:/Users/stapi/OneDrive/Desktop/GD32VW553/GD32VW55X_Wifi_BLE_SDK/GD32VW55x_RELEASE_V1.0.2/MBL/mainboot\mbl_image_validate.c ****         goto Failed;
 239              		.loc 1 77 16
 240 0114 7555     		li	a0,-3
 241              	.LVL22:
 242 0116 5DBF     		j	.L1
 243              	.LVL23:
 244              	.L17:
  62:C:/Users/stapi/OneDrive/Desktop/GD32VW553/GD32VW55X_Wifi_BLE_SDK/GD32VW55x_RELEASE_V1.0.2/MBL/mainboot\mbl_image_validate.c ****         goto Failed;
 245              		.loc 1 62 16
 246 0118 7D55     		li	a0,-1
 247              	.LVL24:
 248 011a 4DBF     		j	.L1
 249              		.cfi_endproc
 250              	.LFE365:
 252              		.section	.rodata.image_x_validate.str1.4,"aMS",@progbits,1
 253              		.align	2
 254              	.LC0:
 255 0000 696D6167 		.string	"image_x_validate: image offset is 0x%x.\r\n"
 255      655F785F 
 255      76616C69 
 255      64617465 
 255      3A20696D 
 256 002a 0000     		.align	2
 257              	.LC1:
 258 002c 696D6167 		.string	"image_x_validate: cert or image verified failed(%d). \r\n"
 258      655F785F 
 258      76616C69 
 258      64617465 
 258      3A206365 
 259              		.align	2
 260              	.LC2:
 261 0064 4D424C3A 		.string	"MBL: Image cert and sigature verified OK.\r\n"
 261      20496D61 
 261      67652063 
 261      65727420 
 261      616E6420 
 262              		.align	2
 263              	.LC3:
 264 0090 696D6167 		.string	"image_x_validate: Image verified failed (%d). \r\n"
 264      655F785F 
 264      76616C69 
 264      64617465 
 264      3A20496D 
 265 00c1 000000   		.align	2
 266              	.LC4:
 267 00c4 4D424C3A 		.string	"MBL: Image verified OK.\r\n"
 267      20496D61 
 267      67652076 
 267      65726966 
 267      69656420 
 268 00de 0000     		.align	2
 269              	.LC5:
 270 00e0 55706461 		.string	"Update Main Image version counter failed(%d).\r\n"
 270      7465204D 
 270      61696E20 
 270      496D6167 
 270      65207665 
 271              		.align	2
 272              	.LC6:
 273 0110 4D424C3A 		.string	"MBL: Current image version is %d.%d.%d\r\n"
 273      20437572 
 273      72656E74 
 273      20696D61 
 273      67652076 
 274              		.section	.text.image_x_validate,"ax",@progbits
 275              		.align	1
 276              		.globl	image_x_validate
 278              	image_x_validate:
 279              	.LFB366:
 151:C:/Users/stapi/OneDrive/Desktop/GD32VW553/GD32VW55X_Wifi_BLE_SDK/GD32VW55x_RELEASE_V1.0.2/MBL/mainboot\mbl_image_validate.c **** 
 152:C:/Users/stapi/OneDrive/Desktop/GD32VW553/GD32VW55X_Wifi_BLE_SDK/GD32VW55x_RELEASE_V1.0.2/MBL/mainboot\mbl_image_validate.c **** /*!
 153:C:/Users/stapi/OneDrive/Desktop/GD32VW553/GD32VW55X_Wifi_BLE_SDK/GD32VW55x_RELEASE_V1.0.2/MBL/mainboot\mbl_image_validate.c ****     \brief      validate image x
 154:C:/Users/stapi/OneDrive/Desktop/GD32VW553/GD32VW55X_Wifi_BLE_SDK/GD32VW55x_RELEASE_V1.0.2/MBL/mainboot\mbl_image_validate.c ****     \param[in]  img_offset: image offset
 155:C:/Users/stapi/OneDrive/Desktop/GD32VW553/GD32VW55X_Wifi_BLE_SDK/GD32VW55x_RELEASE_V1.0.2/MBL/mainboot\mbl_image_validate.c ****     \param[in]  pkhash: pointer to public key hash
 156:C:/Users/stapi/OneDrive/Desktop/GD32VW553/GD32VW55X_Wifi_BLE_SDK/GD32VW55x_RELEASE_V1.0.2/MBL/mainboot\mbl_image_validate.c ****     \param[in]  boot_opt: boot option
 157:C:/Users/stapi/OneDrive/Desktop/GD32VW553/GD32VW55X_Wifi_BLE_SDK/GD32VW55x_RELEASE_V1.0.2/MBL/mainboot\mbl_image_validate.c ****     \retval     result of validate nspe
 158:C:/Users/stapi/OneDrive/Desktop/GD32VW553/GD32VW55X_Wifi_BLE_SDK/GD32VW55x_RELEASE_V1.0.2/MBL/mainboot\mbl_image_validate.c **** */
 159:C:/Users/stapi/OneDrive/Desktop/GD32VW553/GD32VW55X_Wifi_BLE_SDK/GD32VW55x_RELEASE_V1.0.2/MBL/mainboot\mbl_image_validate.c **** int image_x_validate(IN uint32_t img_offset,
 160:C:/Users/stapi/OneDrive/Desktop/GD32VW553/GD32VW55X_Wifi_BLE_SDK/GD32VW55x_RELEASE_V1.0.2/MBL/mainboot\mbl_image_validate.c ****                      IN uint8_t *pkhash,
 161:C:/Users/stapi/OneDrive/Desktop/GD32VW553/GD32VW55X_Wifi_BLE_SDK/GD32VW55x_RELEASE_V1.0.2/MBL/mainboot\mbl_image_validate.c ****                      IN uint8_t boot_opt)
 162:C:/Users/stapi/OneDrive/Desktop/GD32VW553/GD32VW55X_Wifi_BLE_SDK/GD32VW55x_RELEASE_V1.0.2/MBL/mainboot\mbl_image_validate.c **** {
 280              		.loc 1 162 1 is_stmt 1
 281              		.cfi_startproc
 282              	.LVL25:
 283 0000 17030000 		call	t0,__riscv_save_4
 283      E7020300 
 284              		.cfi_offset 19, -20
 285              		.cfi_offset 18, -16
 286              		.cfi_offset 9, -12
 287              		.cfi_offset 8, -8
 288              		.cfi_offset 1, -4
 289              		.cfi_def_cfa_offset 32
 163:C:/Users/stapi/OneDrive/Desktop/GD32VW553/GD32VW55X_Wifi_BLE_SDK/GD32VW55x_RELEASE_V1.0.2/MBL/mainboot\mbl_image_validate.c ****     struct sw_info_t sw_info;
 290              		.loc 1 163 5
 164:C:/Users/stapi/OneDrive/Desktop/GD32VW553/GD32VW55X_Wifi_BLE_SDK/GD32VW55x_RELEASE_V1.0.2/MBL/mainboot\mbl_image_validate.c ****     int ret, result = 0;
 291              		.loc 1 164 5
 292              	.LVL26:
 165:C:/Users/stapi/OneDrive/Desktop/GD32VW553/GD32VW55X_Wifi_BLE_SDK/GD32VW55x_RELEASE_V1.0.2/MBL/mainboot\mbl_image_validate.c **** 
 166:C:/Users/stapi/OneDrive/Desktop/GD32VW553/GD32VW55X_Wifi_BLE_SDK/GD32VW55x_RELEASE_V1.0.2/MBL/mainboot\mbl_image_validate.c ****     rom_trace_ex(ROM_DBG, "image_x_validate: image offset is 0x%x.\r\n", img_offset);
 293              		.loc 1 166 5
 294 0008 37090000 		lui	s2,%hi(p_rom_api)
 295 000c 83270900 		lw	a5,%lo(p_rom_api)(s2)
 162:C:/Users/stapi/OneDrive/Desktop/GD32VW553/GD32VW55X_Wifi_BLE_SDK/GD32VW55x_RELEASE_V1.0.2/MBL/mainboot\mbl_image_validate.c ****     struct sw_info_t sw_info;
 296              		.loc 1 162 1 is_stmt 0
 297 0010 AE89     		mv	s3,a1
 298              		.loc 1 166 5
 299 0012 B7050000 		lui	a1,%hi(.LC0)
 300              	.LVL27:
 301 0016 D843     		lw	a4,4(a5)
 162:C:/Users/stapi/OneDrive/Desktop/GD32VW553/GD32VW55X_Wifi_BLE_SDK/GD32VW55x_RELEASE_V1.0.2/MBL/mainboot\mbl_image_validate.c ****     struct sw_info_t sw_info;
 302              		.loc 1 162 1
 303 0018 3284     		mv	s0,a2
 304 001a 5971     		addi	sp,sp,-112
 305              		.cfi_def_cfa_offset 144
 162:C:/Users/stapi/OneDrive/Desktop/GD32VW553/GD32VW55X_Wifi_BLE_SDK/GD32VW55x_RELEASE_V1.0.2/MBL/mainboot\mbl_image_validate.c ****     struct sw_info_t sw_info;
 306              		.loc 1 162 1
 307 001c AA84     		mv	s1,a0
 308              		.loc 1 166 5
 309 001e 2A86     		mv	a2,a0
 310              	.LVL28:
 311 0020 93850500 		addi	a1,a1,%lo(.LC0)
 312 0024 1545     		li	a0,5
 313              	.LVL29:
 314 0026 0297     		jalr	a4
 315              	.LVL30:
 167:C:/Users/stapi/OneDrive/Desktop/GD32VW553/GD32VW55X_Wifi_BLE_SDK/GD32VW55x_RELEASE_V1.0.2/MBL/mainboot\mbl_image_validate.c **** 
 168:C:/Users/stapi/OneDrive/Desktop/GD32VW553/GD32VW55X_Wifi_BLE_SDK/GD32VW55x_RELEASE_V1.0.2/MBL/mainboot\mbl_image_validate.c ****     if (boot_opt == IBL_VERIFY_NONE)
 316              		.loc 1 168 5 is_stmt 1
 317              		.loc 1 168 8 is_stmt 0
 318 0028 21C8     		beq	s0,zero,.L44
 169:C:/Users/stapi/OneDrive/Desktop/GD32VW553/GD32VW55X_Wifi_BLE_SDK/GD32VW55x_RELEASE_V1.0.2/MBL/mainboot\mbl_image_validate.c ****         return 0;
 170:C:/Users/stapi/OneDrive/Desktop/GD32VW553/GD32VW55X_Wifi_BLE_SDK/GD32VW55x_RELEASE_V1.0.2/MBL/mainboot\mbl_image_validate.c **** 
 171:C:/Users/stapi/OneDrive/Desktop/GD32VW553/GD32VW55X_Wifi_BLE_SDK/GD32VW55x_RELEASE_V1.0.2/MBL/mainboot\mbl_image_validate.c ****     /* Validate image cert and signature */
 172:C:/Users/stapi/OneDrive/Desktop/GD32VW553/GD32VW55X_Wifi_BLE_SDK/GD32VW55x_RELEASE_V1.0.2/MBL/mainboot\mbl_image_validate.c ****     if (boot_opt == IBL_VERIFY_CERT_IMG) {
 319              		.loc 1 172 5 is_stmt 1
 320              		.loc 1 172 8 is_stmt 0
 321 002a 0D47     		li	a4,3
 173:C:/Users/stapi/OneDrive/Desktop/GD32VW553/GD32VW55X_Wifi_BLE_SDK/GD32VW55x_RELEASE_V1.0.2/MBL/mainboot\mbl_image_validate.c ****         ret = rom_cert_img_validate(img_offset, IMG_TYPE_IMG, pkhash, &sw_info);
 322              		.loc 1 173 15
 323 002c 83270900 		lw	a5,%lo(p_rom_api)(s2)
 172:C:/Users/stapi/OneDrive/Desktop/GD32VW553/GD32VW55X_Wifi_BLE_SDK/GD32VW55x_RELEASE_V1.0.2/MBL/mainboot\mbl_image_validate.c ****         ret = rom_cert_img_validate(img_offset, IMG_TYPE_IMG, pkhash, &sw_info);
 324              		.loc 1 172 8
 325 0030 630BE404 		beq	s0,a4,.L46
 174:C:/Users/stapi/OneDrive/Desktop/GD32VW553/GD32VW55X_Wifi_BLE_SDK/GD32VW55x_RELEASE_V1.0.2/MBL/mainboot\mbl_image_validate.c ****         if (ret != IMG_OK) {
 175:C:/Users/stapi/OneDrive/Desktop/GD32VW553/GD32VW55X_Wifi_BLE_SDK/GD32VW55x_RELEASE_V1.0.2/MBL/mainboot\mbl_image_validate.c ****             rom_trace_ex(ROM_ERR, "image_x_validate: cert or image verified failed(%d). \r\n", ret)
 176:C:/Users/stapi/OneDrive/Desktop/GD32VW553/GD32VW55X_Wifi_BLE_SDK/GD32VW55x_RELEASE_V1.0.2/MBL/mainboot\mbl_image_validate.c ****             result = -3;
 177:C:/Users/stapi/OneDrive/Desktop/GD32VW553/GD32VW55X_Wifi_BLE_SDK/GD32VW55x_RELEASE_V1.0.2/MBL/mainboot\mbl_image_validate.c ****             goto Failed;
 178:C:/Users/stapi/OneDrive/Desktop/GD32VW553/GD32VW55X_Wifi_BLE_SDK/GD32VW55x_RELEASE_V1.0.2/MBL/mainboot\mbl_image_validate.c ****         } else {
 179:C:/Users/stapi/OneDrive/Desktop/GD32VW553/GD32VW55X_Wifi_BLE_SDK/GD32VW55x_RELEASE_V1.0.2/MBL/mainboot\mbl_image_validate.c ****             rom_trace_ex(ROM_ALWAYS, "MBL: Image cert and sigature verified OK.\r\n");
 180:C:/Users/stapi/OneDrive/Desktop/GD32VW553/GD32VW55X_Wifi_BLE_SDK/GD32VW55x_RELEASE_V1.0.2/MBL/mainboot\mbl_image_validate.c ****         }
 181:C:/Users/stapi/OneDrive/Desktop/GD32VW553/GD32VW55X_Wifi_BLE_SDK/GD32VW55x_RELEASE_V1.0.2/MBL/mainboot\mbl_image_validate.c ****     } else if (boot_opt == IBL_VERIFY_IMG_ONLY) {
 326              		.loc 1 181 12 is_stmt 1
 327              		.loc 1 181 15 is_stmt 0
 328 0034 0547     		li	a4,1
 329 0036 630BE406 		beq	s0,a4,.L47
 330              	.L41:
 182:C:/Users/stapi/OneDrive/Desktop/GD32VW553/GD32VW55X_Wifi_BLE_SDK/GD32VW55x_RELEASE_V1.0.2/MBL/mainboot\mbl_image_validate.c ****         ret = rom_img_validate(img_offset, IMG_TYPE_IMG, pkhash, &sw_info);
 183:C:/Users/stapi/OneDrive/Desktop/GD32VW553/GD32VW55X_Wifi_BLE_SDK/GD32VW55x_RELEASE_V1.0.2/MBL/mainboot\mbl_image_validate.c ****         if (ret != IMG_OK) {
 184:C:/Users/stapi/OneDrive/Desktop/GD32VW553/GD32VW55X_Wifi_BLE_SDK/GD32VW55x_RELEASE_V1.0.2/MBL/mainboot\mbl_image_validate.c ****             rom_trace_ex(ROM_ERR, "image_x_validate: Image verified failed (%d). \r\n", ret);
 185:C:/Users/stapi/OneDrive/Desktop/GD32VW553/GD32VW55X_Wifi_BLE_SDK/GD32VW55x_RELEASE_V1.0.2/MBL/mainboot\mbl_image_validate.c ****             result = -4;
 186:C:/Users/stapi/OneDrive/Desktop/GD32VW553/GD32VW55X_Wifi_BLE_SDK/GD32VW55x_RELEASE_V1.0.2/MBL/mainboot\mbl_image_validate.c ****             goto Failed;
 187:C:/Users/stapi/OneDrive/Desktop/GD32VW553/GD32VW55X_Wifi_BLE_SDK/GD32VW55x_RELEASE_V1.0.2/MBL/mainboot\mbl_image_validate.c ****         } else {
 188:C:/Users/stapi/OneDrive/Desktop/GD32VW553/GD32VW55X_Wifi_BLE_SDK/GD32VW55x_RELEASE_V1.0.2/MBL/mainboot\mbl_image_validate.c ****             rom_trace_ex(ROM_ALWAYS, "MBL: Image verified OK.\r\n");
 189:C:/Users/stapi/OneDrive/Desktop/GD32VW553/GD32VW55X_Wifi_BLE_SDK/GD32VW55x_RELEASE_V1.0.2/MBL/mainboot\mbl_image_validate.c ****         }
 190:C:/Users/stapi/OneDrive/Desktop/GD32VW553/GD32VW55X_Wifi_BLE_SDK/GD32VW55x_RELEASE_V1.0.2/MBL/mainboot\mbl_image_validate.c ****     }
 191:C:/Users/stapi/OneDrive/Desktop/GD32VW553/GD32VW55X_Wifi_BLE_SDK/GD32VW55x_RELEASE_V1.0.2/MBL/mainboot\mbl_image_validate.c **** 
 192:C:/Users/stapi/OneDrive/Desktop/GD32VW553/GD32VW55X_Wifi_BLE_SDK/GD32VW55x_RELEASE_V1.0.2/MBL/mainboot\mbl_image_validate.c ****     /* Update Main Image Version Counter */
 193:C:/Users/stapi/OneDrive/Desktop/GD32VW553/GD32VW55X_Wifi_BLE_SDK/GD32VW55x_RELEASE_V1.0.2/MBL/mainboot\mbl_image_validate.c ****     ret = rom_sys_set_fw_ver(IMG_TYPE_IMG, sw_info.version);
 331              		.loc 1 193 5 is_stmt 1
 332              		.loc 1 193 11 is_stmt 0
 333 003a FC47     		lw	a5,76(a5)
 334 003c B245     		lw	a1,12(sp)
 335 003e 0945     		li	a0,2
 336 0040 8297     		jalr	a5
 337              	.LVL31:
 338 0042 2A84     		mv	s0,a0
 339              	.LVL32:
 194:C:/Users/stapi/OneDrive/Desktop/GD32VW553/GD32VW55X_Wifi_BLE_SDK/GD32VW55x_RELEASE_V1.0.2/MBL/mainboot\mbl_image_validate.c ****     if (ret < 0) {
 340              		.loc 1 194 5 is_stmt 1
 341              		.loc 1 194 8 is_stmt 0
 342 0044 63470508 		blt	a0,zero,.L48
 195:C:/Users/stapi/OneDrive/Desktop/GD32VW553/GD32VW55X_Wifi_BLE_SDK/GD32VW55x_RELEASE_V1.0.2/MBL/mainboot\mbl_image_validate.c ****         rom_trace_ex(ROM_ERR, "Update Main Image version counter failed(%d).\r\n", ret);
 196:C:/Users/stapi/OneDrive/Desktop/GD32VW553/GD32VW55X_Wifi_BLE_SDK/GD32VW55x_RELEASE_V1.0.2/MBL/mainboot\mbl_image_validate.c ****         result = -5;
 197:C:/Users/stapi/OneDrive/Desktop/GD32VW553/GD32VW55X_Wifi_BLE_SDK/GD32VW55x_RELEASE_V1.0.2/MBL/mainboot\mbl_image_validate.c ****         goto Failed;
 198:C:/Users/stapi/OneDrive/Desktop/GD32VW553/GD32VW55X_Wifi_BLE_SDK/GD32VW55x_RELEASE_V1.0.2/MBL/mainboot\mbl_image_validate.c ****     } else if (ret == 1){
 343              		.loc 1 198 12 is_stmt 1
 199:C:/Users/stapi/OneDrive/Desktop/GD32VW553/GD32VW55X_Wifi_BLE_SDK/GD32VW55x_RELEASE_V1.0.2/MBL/mainboot\mbl_image_validate.c ****         /* The new image version is equal to the local counter. Do nothing. */
 200:C:/Users/stapi/OneDrive/Desktop/GD32VW553/GD32VW55X_Wifi_BLE_SDK/GD32VW55x_RELEASE_V1.0.2/MBL/mainboot\mbl_image_validate.c ****     } else if (ret == 0){
 344              		.loc 1 200 12
 345              		.loc 1 200 15 is_stmt 0
 346 0048 05E9     		bne	a0,zero,.L44
 201:C:/Users/stapi/OneDrive/Desktop/GD32VW553/GD32VW55X_Wifi_BLE_SDK/GD32VW55x_RELEASE_V1.0.2/MBL/mainboot\mbl_image_validate.c ****         rom_trace_ex(ROM_ALWAYS, "MBL: Current image version is %d.%d.%d\r\n",
 347              		.loc 1 201 9 is_stmt 1
 348 004a 83270900 		lw	a5,%lo(p_rom_api)(s2)
 202:C:/Users/stapi/OneDrive/Desktop/GD32VW553/GD32VW55X_Wifi_BLE_SDK/GD32VW55x_RELEASE_V1.0.2/MBL/mainboot\mbl_image_validate.c ****                     (sw_info.version >> 24),
 349              		.loc 1 202 29 is_stmt 0
 350 004e 3247     		lw	a4,12(sp)
 201:C:/Users/stapi/OneDrive/Desktop/GD32VW553/GD32VW55X_Wifi_BLE_SDK/GD32VW55x_RELEASE_V1.0.2/MBL/mainboot\mbl_image_validate.c ****         rom_trace_ex(ROM_ALWAYS, "MBL: Current image version is %d.%d.%d\r\n",
 351              		.loc 1 201 9
 352 0050 B7050000 		lui	a1,%hi(.LC6)
 353 0054 DC43     		lw	a5,4(a5)
 203:C:/Users/stapi/OneDrive/Desktop/GD32VW553/GD32VW55X_Wifi_BLE_SDK/GD32VW55x_RELEASE_V1.0.2/MBL/mainboot\mbl_image_validate.c ****                     ((sw_info.version << 8) >> 24),
 354              		.loc 1 203 39
 355 0056 93168700 		slli	a3,a4,8
 201:C:/Users/stapi/OneDrive/Desktop/GD32VW553/GD32VW55X_Wifi_BLE_SDK/GD32VW55x_RELEASE_V1.0.2/MBL/mainboot\mbl_image_validate.c ****         rom_trace_ex(ROM_ALWAYS, "MBL: Current image version is %d.%d.%d\r\n",
 356              		.loc 1 201 9
 357 005a 13568701 		srli	a2,a4,24
 358 005e E182     		srli	a3,a3,24
 359 0060 93850500 		addi	a1,a1,%lo(.LC6)
 360 0064 0545     		li	a0,1
 361 0066 33470708 		zext.h	a4,a4
 362 006a 8297     		jalr	a5
 363              	.LVL33:
 204:C:/Users/stapi/OneDrive/Desktop/GD32VW553/GD32VW55X_Wifi_BLE_SDK/GD32VW55x_RELEASE_V1.0.2/MBL/mainboot\mbl_image_validate.c ****                     (sw_info.version & 0xFFFF));
 205:C:/Users/stapi/OneDrive/Desktop/GD32VW553/GD32VW55X_Wifi_BLE_SDK/GD32VW55x_RELEASE_V1.0.2/MBL/mainboot\mbl_image_validate.c ****     }
 206:C:/Users/stapi/OneDrive/Desktop/GD32VW553/GD32VW55X_Wifi_BLE_SDK/GD32VW55x_RELEASE_V1.0.2/MBL/mainboot\mbl_image_validate.c **** 
 207:C:/Users/stapi/OneDrive/Desktop/GD32VW553/GD32VW55X_Wifi_BLE_SDK/GD32VW55x_RELEASE_V1.0.2/MBL/mainboot\mbl_image_validate.c ****     return 0;
 208:C:/Users/stapi/OneDrive/Desktop/GD32VW553/GD32VW55X_Wifi_BLE_SDK/GD32VW55x_RELEASE_V1.0.2/MBL/mainboot\mbl_image_validate.c **** 
 209:C:/Users/stapi/OneDrive/Desktop/GD32VW553/GD32VW55X_Wifi_BLE_SDK/GD32VW55x_RELEASE_V1.0.2/MBL/mainboot\mbl_image_validate.c **** Failed:
 210:C:/Users/stapi/OneDrive/Desktop/GD32VW553/GD32VW55X_Wifi_BLE_SDK/GD32VW55x_RELEASE_V1.0.2/MBL/mainboot\mbl_image_validate.c ****     return result;
 211:C:/Users/stapi/OneDrive/Desktop/GD32VW553/GD32VW55X_Wifi_BLE_SDK/GD32VW55x_RELEASE_V1.0.2/MBL/mainboot\mbl_image_validate.c **** }
 364              		.loc 1 211 1
 365 006c 2285     		mv	a0,s0
 366 006e 6561     		addi	sp,sp,112
 367              		.cfi_remember_state
 368              		.cfi_def_cfa_offset 0
 369 0070 17030000 		tail	__riscv_restore_4
 369      67000300 
 370              		.cfi_restore 19
 371              		.cfi_restore 18
 372              		.cfi_restore 9
 373              		.cfi_restore 8
 374              		.cfi_restore 1
 375              		.cfi_def_cfa_offset -32
 376              	.LVL34:
 377              	.L44:
 378              		.cfi_restore_state
 169:C:/Users/stapi/OneDrive/Desktop/GD32VW553/GD32VW55X_Wifi_BLE_SDK/GD32VW55x_RELEASE_V1.0.2/MBL/mainboot\mbl_image_validate.c **** 
 379              		.loc 1 169 16
 380 0078 0144     		li	s0,0
 381              	.LVL35:
 382              	.L36:
 383              		.loc 1 211 1
 384 007a 2285     		mv	a0,s0
 385 007c 6561     		addi	sp,sp,112
 386              		.cfi_remember_state
 387              		.cfi_def_cfa_offset 0
 388 007e 17030000 		tail	__riscv_restore_4
 388      67000300 
 389              		.cfi_restore 19
 390              		.cfi_restore 18
 391              		.cfi_restore 9
 392              		.cfi_restore 8
 393              		.cfi_restore 1
 394              		.cfi_def_cfa_offset -32
 395              	.LVL36:
 396              	.L46:
 397              		.cfi_restore_state
 173:C:/Users/stapi/OneDrive/Desktop/GD32VW553/GD32VW55X_Wifi_BLE_SDK/GD32VW55x_RELEASE_V1.0.2/MBL/mainboot\mbl_image_validate.c ****         if (ret != IMG_OK) {
 398              		.loc 1 173 9 is_stmt 1
 173:C:/Users/stapi/OneDrive/Desktop/GD32VW553/GD32VW55X_Wifi_BLE_SDK/GD32VW55x_RELEASE_V1.0.2/MBL/mainboot\mbl_image_validate.c ****         if (ret != IMG_OK) {
 399              		.loc 1 173 15 is_stmt 0
 400 0086 9C57     		lw	a5,40(a5)
 401 0088 3400     		addi	a3,sp,8
 402 008a 4E86     		mv	a2,s3
 403 008c 8945     		li	a1,2
 404 008e 2685     		mv	a0,s1
 405 0090 8297     		jalr	a5
 406              	.LVL37:
 174:C:/Users/stapi/OneDrive/Desktop/GD32VW553/GD32VW55X_Wifi_BLE_SDK/GD32VW55x_RELEASE_V1.0.2/MBL/mainboot\mbl_image_validate.c ****             rom_trace_ex(ROM_ERR, "image_x_validate: cert or image verified failed(%d). \r\n", ret)
 407              		.loc 1 174 9 is_stmt 1
 175:C:/Users/stapi/OneDrive/Desktop/GD32VW553/GD32VW55X_Wifi_BLE_SDK/GD32VW55x_RELEASE_V1.0.2/MBL/mainboot\mbl_image_validate.c ****             result = -3;
 408              		.loc 1 175 13 is_stmt 0
 409 0092 83270900 		lw	a5,%lo(p_rom_api)(s2)
 174:C:/Users/stapi/OneDrive/Desktop/GD32VW553/GD32VW55X_Wifi_BLE_SDK/GD32VW55x_RELEASE_V1.0.2/MBL/mainboot\mbl_image_validate.c ****             rom_trace_ex(ROM_ERR, "image_x_validate: cert or image verified failed(%d). \r\n", ret)
 410              		.loc 1 174 12
 411 0096 31E9     		bne	a0,zero,.L49
 179:C:/Users/stapi/OneDrive/Desktop/GD32VW553/GD32VW55X_Wifi_BLE_SDK/GD32VW55x_RELEASE_V1.0.2/MBL/mainboot\mbl_image_validate.c ****         }
 412              		.loc 1 179 13 is_stmt 1
 413 0098 DC43     		lw	a5,4(a5)
 414 009a B7050000 		lui	a1,%hi(.LC2)
 415 009e 93850500 		addi	a1,a1,%lo(.LC2)
 416 00a2 0545     		li	a0,1
 417              	.LVL38:
 418 00a4 8297     		jalr	a5
 419              	.LVL39:
 193:C:/Users/stapi/OneDrive/Desktop/GD32VW553/GD32VW55X_Wifi_BLE_SDK/GD32VW55x_RELEASE_V1.0.2/MBL/mainboot\mbl_image_validate.c ****     if (ret < 0) {
 420              		.loc 1 193 11 is_stmt 0
 421 00a6 83270900 		lw	a5,%lo(p_rom_api)(s2)
 422 00aa 41BF     		j	.L41
 423              	.L47:
 182:C:/Users/stapi/OneDrive/Desktop/GD32VW553/GD32VW55X_Wifi_BLE_SDK/GD32VW55x_RELEASE_V1.0.2/MBL/mainboot\mbl_image_validate.c ****         if (ret != IMG_OK) {
 424              		.loc 1 182 9 is_stmt 1
 182:C:/Users/stapi/OneDrive/Desktop/GD32VW553/GD32VW55X_Wifi_BLE_SDK/GD32VW55x_RELEASE_V1.0.2/MBL/mainboot\mbl_image_validate.c ****         if (ret != IMG_OK) {
 425              		.loc 1 182 15 is_stmt 0
 426 00ac DC53     		lw	a5,36(a5)
 427 00ae 3400     		addi	a3,sp,8
 428 00b0 4E86     		mv	a2,s3
 429 00b2 8945     		li	a1,2
 430 00b4 2685     		mv	a0,s1
 431 00b6 8297     		jalr	a5
 432              	.LVL40:
 183:C:/Users/stapi/OneDrive/Desktop/GD32VW553/GD32VW55X_Wifi_BLE_SDK/GD32VW55x_RELEASE_V1.0.2/MBL/mainboot\mbl_image_validate.c ****             rom_trace_ex(ROM_ERR, "image_x_validate: Image verified failed (%d). \r\n", ret);
 433              		.loc 1 183 9 is_stmt 1
 184:C:/Users/stapi/OneDrive/Desktop/GD32VW553/GD32VW55X_Wifi_BLE_SDK/GD32VW55x_RELEASE_V1.0.2/MBL/mainboot\mbl_image_validate.c ****             result = -4;
 434              		.loc 1 184 13 is_stmt 0
 435 00b8 83270900 		lw	a5,%lo(p_rom_api)(s2)
 183:C:/Users/stapi/OneDrive/Desktop/GD32VW553/GD32VW55X_Wifi_BLE_SDK/GD32VW55x_RELEASE_V1.0.2/MBL/mainboot\mbl_image_validate.c ****             rom_trace_ex(ROM_ERR, "image_x_validate: Image verified failed (%d). \r\n", ret);
 436              		.loc 1 183 12
 437 00bc 29E1     		bne	a0,zero,.L50
 188:C:/Users/stapi/OneDrive/Desktop/GD32VW553/GD32VW55X_Wifi_BLE_SDK/GD32VW55x_RELEASE_V1.0.2/MBL/mainboot\mbl_image_validate.c ****         }
 438              		.loc 1 188 13 is_stmt 1
 439 00be DC43     		lw	a5,4(a5)
 440 00c0 B7050000 		lui	a1,%hi(.LC4)
 441 00c4 93850500 		addi	a1,a1,%lo(.LC4)
 442 00c8 0545     		li	a0,1
 443              	.LVL41:
 444 00ca 8297     		jalr	a5
 445              	.LVL42:
 193:C:/Users/stapi/OneDrive/Desktop/GD32VW553/GD32VW55X_Wifi_BLE_SDK/GD32VW55x_RELEASE_V1.0.2/MBL/mainboot\mbl_image_validate.c ****     if (ret < 0) {
 446              		.loc 1 193 11 is_stmt 0
 447 00cc 83270900 		lw	a5,%lo(p_rom_api)(s2)
 448 00d0 ADB7     		j	.L41
 449              	.LVL43:
 450              	.L48:
 195:C:/Users/stapi/OneDrive/Desktop/GD32VW553/GD32VW55X_Wifi_BLE_SDK/GD32VW55x_RELEASE_V1.0.2/MBL/mainboot\mbl_image_validate.c ****         result = -5;
 451              		.loc 1 195 9 is_stmt 1
 452 00d2 83270900 		lw	a5,%lo(p_rom_api)(s2)
 453 00d6 B7050000 		lui	a1,%hi(.LC5)
 454 00da 2A86     		mv	a2,a0
 455 00dc DC43     		lw	a5,4(a5)
 456 00de 93850500 		addi	a1,a1,%lo(.LC5)
 457 00e2 0945     		li	a0,2
 458 00e4 8297     		jalr	a5
 459              	.LVL44:
 196:C:/Users/stapi/OneDrive/Desktop/GD32VW553/GD32VW55X_Wifi_BLE_SDK/GD32VW55x_RELEASE_V1.0.2/MBL/mainboot\mbl_image_validate.c ****         goto Failed;
 460              		.loc 1 196 9
 197:C:/Users/stapi/OneDrive/Desktop/GD32VW553/GD32VW55X_Wifi_BLE_SDK/GD32VW55x_RELEASE_V1.0.2/MBL/mainboot\mbl_image_validate.c ****     } else if (ret == 1){
 461              		.loc 1 197 9
 196:C:/Users/stapi/OneDrive/Desktop/GD32VW553/GD32VW55X_Wifi_BLE_SDK/GD32VW55x_RELEASE_V1.0.2/MBL/mainboot\mbl_image_validate.c ****         goto Failed;
 462              		.loc 1 196 16 is_stmt 0
 463 00e6 6D54     		li	s0,-5
 464              	.LVL45:
 197:C:/Users/stapi/OneDrive/Desktop/GD32VW553/GD32VW55X_Wifi_BLE_SDK/GD32VW55x_RELEASE_V1.0.2/MBL/mainboot\mbl_image_validate.c ****     } else if (ret == 1){
 465              		.loc 1 197 9
 466 00e8 49BF     		j	.L36
 467              	.LVL46:
 468              	.L49:
 175:C:/Users/stapi/OneDrive/Desktop/GD32VW553/GD32VW55X_Wifi_BLE_SDK/GD32VW55x_RELEASE_V1.0.2/MBL/mainboot\mbl_image_validate.c ****             result = -3;
 469              		.loc 1 175 13 is_stmt 1
 470 00ea DC43     		lw	a5,4(a5)
 471 00ec B7050000 		lui	a1,%hi(.LC1)
 472 00f0 2A86     		mv	a2,a0
 473 00f2 93850500 		addi	a1,a1,%lo(.LC1)
 474 00f6 0945     		li	a0,2
 475              	.LVL47:
 476 00f8 8297     		jalr	a5
 477              	.LVL48:
 176:C:/Users/stapi/OneDrive/Desktop/GD32VW553/GD32VW55X_Wifi_BLE_SDK/GD32VW55x_RELEASE_V1.0.2/MBL/mainboot\mbl_image_validate.c ****             goto Failed;
 478              		.loc 1 176 13
 177:C:/Users/stapi/OneDrive/Desktop/GD32VW553/GD32VW55X_Wifi_BLE_SDK/GD32VW55x_RELEASE_V1.0.2/MBL/mainboot\mbl_image_validate.c ****         } else {
 479              		.loc 1 177 13
 176:C:/Users/stapi/OneDrive/Desktop/GD32VW553/GD32VW55X_Wifi_BLE_SDK/GD32VW55x_RELEASE_V1.0.2/MBL/mainboot\mbl_image_validate.c ****             goto Failed;
 480              		.loc 1 176 20 is_stmt 0
 481 00fa 7554     		li	s0,-3
 177:C:/Users/stapi/OneDrive/Desktop/GD32VW553/GD32VW55X_Wifi_BLE_SDK/GD32VW55x_RELEASE_V1.0.2/MBL/mainboot\mbl_image_validate.c ****         } else {
 482              		.loc 1 177 13
 483 00fc BDBF     		j	.L36
 484              	.LVL49:
 485              	.L50:
 184:C:/Users/stapi/OneDrive/Desktop/GD32VW553/GD32VW55X_Wifi_BLE_SDK/GD32VW55x_RELEASE_V1.0.2/MBL/mainboot\mbl_image_validate.c ****             result = -4;
 486              		.loc 1 184 13 is_stmt 1
 487 00fe DC43     		lw	a5,4(a5)
 488 0100 B7050000 		lui	a1,%hi(.LC3)
 489 0104 2A86     		mv	a2,a0
 490 0106 93850500 		addi	a1,a1,%lo(.LC3)
 491 010a 0945     		li	a0,2
 492              	.LVL50:
 493 010c 8297     		jalr	a5
 494              	.LVL51:
 185:C:/Users/stapi/OneDrive/Desktop/GD32VW553/GD32VW55X_Wifi_BLE_SDK/GD32VW55x_RELEASE_V1.0.2/MBL/mainboot\mbl_image_validate.c ****             goto Failed;
 495              		.loc 1 185 13
 186:C:/Users/stapi/OneDrive/Desktop/GD32VW553/GD32VW55X_Wifi_BLE_SDK/GD32VW55x_RELEASE_V1.0.2/MBL/mainboot\mbl_image_validate.c ****         } else {
 496              		.loc 1 186 13
 185:C:/Users/stapi/OneDrive/Desktop/GD32VW553/GD32VW55X_Wifi_BLE_SDK/GD32VW55x_RELEASE_V1.0.2/MBL/mainboot\mbl_image_validate.c ****             goto Failed;
 497              		.loc 1 185 20 is_stmt 0
 498 010e 7154     		li	s0,-4
 186:C:/Users/stapi/OneDrive/Desktop/GD32VW553/GD32VW55X_Wifi_BLE_SDK/GD32VW55x_RELEASE_V1.0.2/MBL/mainboot\mbl_image_validate.c ****         } else {
 499              		.loc 1 186 13
 500 0110 ADB7     		j	.L36
 501              		.cfi_endproc
 502              	.LFE366:
 504              		.text
 505              	.Letext0:
 506              		.file 2 "c:\\users\\stapi\\onedrive\\desktop\\gd32vw553\\embeddedbuilder_v1.4.7.26843\\tools\\nucl
 507              		.file 3 "c:\\users\\stapi\\onedrive\\desktop\\gd32vw553\\embeddedbuilder_v1.4.7.26843\\tools\\nucl
 508              		.file 4 "c:\\users\\stapi\\onedrive\\desktop\\gd32vw553\\embeddedbuilder_v1.4.7.26843\\tools\\nucl
 509              		.file 5 "../../../../ROM-EXPORT/bootloader/rom_image.h"
 510              		.file 6 "../../../../ROM-EXPORT/bootloader/rom_ibl_state.h"
 511              		.file 7 "../../../../ROM-EXPORT/bootloader/rom_api.h"
 512              		.file 8 "../../../../ROM-EXPORT/bootloader/rom_sys.h"
 513              		.file 9 "../../../../ROM-EXPORT/bootloader/rom_export.h"