   1              		.file	"aes-internal-dec.c"
   2              		.option nopic
   3              		.attribute arch, "rv32i2p0_m2p0_a2p0_f2p0_c2p0_b_p0p94"
   4              		.attribute unaligned_access, 0
   5              		.attribute stack_align, 16
   6              		.text
   7              	.Ltext0:
   8              		.cfi_sections	.debug_frame
   9              		.section	.text.aes_decrypt_init,"ax",@progbits
  10              		.align	1
  11              		.globl	aes_decrypt_init
  13              	aes_decrypt_init:
  14              	.LFB73:
  15              		.file 1 "C:/Users/stapi/OneDrive/Desktop/GD32VW553/V1_MQTT_OK/GD32VW55X_Wifi_BLE_SDK/GD32VW55x_REL
   1:C:/Users/stapi/OneDrive/Desktop/GD32VW553/V1_MQTT_OK/GD32VW55X_Wifi_BLE_SDK/GD32VW55x_RELEASE_V1.0.2/MSDK/wpa_supplicant/src/crypto\aes-internal-dec.c **** /*
   2:C:/Users/stapi/OneDrive/Desktop/GD32VW553/V1_MQTT_OK/GD32VW55X_Wifi_BLE_SDK/GD32VW55x_RELEASE_V1.0.2/MSDK/wpa_supplicant/src/crypto\aes-internal-dec.c ****  * AES (Rijndael) cipher - decrypt
   3:C:/Users/stapi/OneDrive/Desktop/GD32VW553/V1_MQTT_OK/GD32VW55X_Wifi_BLE_SDK/GD32VW55x_RELEASE_V1.0.2/MSDK/wpa_supplicant/src/crypto\aes-internal-dec.c ****  *
   4:C:/Users/stapi/OneDrive/Desktop/GD32VW553/V1_MQTT_OK/GD32VW55X_Wifi_BLE_SDK/GD32VW55x_RELEASE_V1.0.2/MSDK/wpa_supplicant/src/crypto\aes-internal-dec.c ****  * Modifications to public domain implementation:
   5:C:/Users/stapi/OneDrive/Desktop/GD32VW553/V1_MQTT_OK/GD32VW55X_Wifi_BLE_SDK/GD32VW55x_RELEASE_V1.0.2/MSDK/wpa_supplicant/src/crypto\aes-internal-dec.c ****  * - cleanup
   6:C:/Users/stapi/OneDrive/Desktop/GD32VW553/V1_MQTT_OK/GD32VW55X_Wifi_BLE_SDK/GD32VW55x_RELEASE_V1.0.2/MSDK/wpa_supplicant/src/crypto\aes-internal-dec.c ****  * - use C pre-processor to make it easier to change S table access
   7:C:/Users/stapi/OneDrive/Desktop/GD32VW553/V1_MQTT_OK/GD32VW55X_Wifi_BLE_SDK/GD32VW55x_RELEASE_V1.0.2/MSDK/wpa_supplicant/src/crypto\aes-internal-dec.c ****  * - added option (AES_SMALL_TABLES) for reducing code size by about 8 kB at
   8:C:/Users/stapi/OneDrive/Desktop/GD32VW553/V1_MQTT_OK/GD32VW55X_Wifi_BLE_SDK/GD32VW55x_RELEASE_V1.0.2/MSDK/wpa_supplicant/src/crypto\aes-internal-dec.c ****  *   cost of reduced throughput (quite small difference on Pentium 4,
   9:C:/Users/stapi/OneDrive/Desktop/GD32VW553/V1_MQTT_OK/GD32VW55X_Wifi_BLE_SDK/GD32VW55x_RELEASE_V1.0.2/MSDK/wpa_supplicant/src/crypto\aes-internal-dec.c ****  *   10-25% when using -O1 or -O2 optimization)
  10:C:/Users/stapi/OneDrive/Desktop/GD32VW553/V1_MQTT_OK/GD32VW55X_Wifi_BLE_SDK/GD32VW55x_RELEASE_V1.0.2/MSDK/wpa_supplicant/src/crypto\aes-internal-dec.c ****  *
  11:C:/Users/stapi/OneDrive/Desktop/GD32VW553/V1_MQTT_OK/GD32VW55X_Wifi_BLE_SDK/GD32VW55x_RELEASE_V1.0.2/MSDK/wpa_supplicant/src/crypto\aes-internal-dec.c ****  * Copyright (c) 2003-2012, Jouni Malinen <j@w1.fi>
  12:C:/Users/stapi/OneDrive/Desktop/GD32VW553/V1_MQTT_OK/GD32VW55X_Wifi_BLE_SDK/GD32VW55x_RELEASE_V1.0.2/MSDK/wpa_supplicant/src/crypto\aes-internal-dec.c ****  *
  13:C:/Users/stapi/OneDrive/Desktop/GD32VW553/V1_MQTT_OK/GD32VW55X_Wifi_BLE_SDK/GD32VW55x_RELEASE_V1.0.2/MSDK/wpa_supplicant/src/crypto\aes-internal-dec.c ****  * This software may be distributed under the terms of the BSD license.
  14:C:/Users/stapi/OneDrive/Desktop/GD32VW553/V1_MQTT_OK/GD32VW55X_Wifi_BLE_SDK/GD32VW55x_RELEASE_V1.0.2/MSDK/wpa_supplicant/src/crypto\aes-internal-dec.c ****  * See README for more details.
  15:C:/Users/stapi/OneDrive/Desktop/GD32VW553/V1_MQTT_OK/GD32VW55X_Wifi_BLE_SDK/GD32VW55x_RELEASE_V1.0.2/MSDK/wpa_supplicant/src/crypto\aes-internal-dec.c ****  */
  16:C:/Users/stapi/OneDrive/Desktop/GD32VW553/V1_MQTT_OK/GD32VW55X_Wifi_BLE_SDK/GD32VW55x_RELEASE_V1.0.2/MSDK/wpa_supplicant/src/crypto\aes-internal-dec.c **** 
  17:C:/Users/stapi/OneDrive/Desktop/GD32VW553/V1_MQTT_OK/GD32VW55X_Wifi_BLE_SDK/GD32VW55x_RELEASE_V1.0.2/MSDK/wpa_supplicant/src/crypto\aes-internal-dec.c **** #include "includes.h"
  18:C:/Users/stapi/OneDrive/Desktop/GD32VW553/V1_MQTT_OK/GD32VW55X_Wifi_BLE_SDK/GD32VW55x_RELEASE_V1.0.2/MSDK/wpa_supplicant/src/crypto\aes-internal-dec.c **** 
  19:C:/Users/stapi/OneDrive/Desktop/GD32VW553/V1_MQTT_OK/GD32VW55X_Wifi_BLE_SDK/GD32VW55x_RELEASE_V1.0.2/MSDK/wpa_supplicant/src/crypto\aes-internal-dec.c **** #include "common.h"
  20:C:/Users/stapi/OneDrive/Desktop/GD32VW553/V1_MQTT_OK/GD32VW55X_Wifi_BLE_SDK/GD32VW55x_RELEASE_V1.0.2/MSDK/wpa_supplicant/src/crypto\aes-internal-dec.c **** #include "crypto.h"
  21:C:/Users/stapi/OneDrive/Desktop/GD32VW553/V1_MQTT_OK/GD32VW55X_Wifi_BLE_SDK/GD32VW55x_RELEASE_V1.0.2/MSDK/wpa_supplicant/src/crypto\aes-internal-dec.c **** #include "aes_i.h"
  22:C:/Users/stapi/OneDrive/Desktop/GD32VW553/V1_MQTT_OK/GD32VW55X_Wifi_BLE_SDK/GD32VW55x_RELEASE_V1.0.2/MSDK/wpa_supplicant/src/crypto\aes-internal-dec.c **** 
  23:C:/Users/stapi/OneDrive/Desktop/GD32VW553/V1_MQTT_OK/GD32VW55X_Wifi_BLE_SDK/GD32VW55x_RELEASE_V1.0.2/MSDK/wpa_supplicant/src/crypto\aes-internal-dec.c **** /**
  24:C:/Users/stapi/OneDrive/Desktop/GD32VW553/V1_MQTT_OK/GD32VW55X_Wifi_BLE_SDK/GD32VW55x_RELEASE_V1.0.2/MSDK/wpa_supplicant/src/crypto\aes-internal-dec.c ****  * Expand the cipher key into the decryption key schedule.
  25:C:/Users/stapi/OneDrive/Desktop/GD32VW553/V1_MQTT_OK/GD32VW55X_Wifi_BLE_SDK/GD32VW55x_RELEASE_V1.0.2/MSDK/wpa_supplicant/src/crypto\aes-internal-dec.c ****  *
  26:C:/Users/stapi/OneDrive/Desktop/GD32VW553/V1_MQTT_OK/GD32VW55X_Wifi_BLE_SDK/GD32VW55x_RELEASE_V1.0.2/MSDK/wpa_supplicant/src/crypto\aes-internal-dec.c ****  * @return	the number of rounds for the given cipher key size.
  27:C:/Users/stapi/OneDrive/Desktop/GD32VW553/V1_MQTT_OK/GD32VW55X_Wifi_BLE_SDK/GD32VW55x_RELEASE_V1.0.2/MSDK/wpa_supplicant/src/crypto\aes-internal-dec.c ****  */
  28:C:/Users/stapi/OneDrive/Desktop/GD32VW553/V1_MQTT_OK/GD32VW55X_Wifi_BLE_SDK/GD32VW55x_RELEASE_V1.0.2/MSDK/wpa_supplicant/src/crypto\aes-internal-dec.c **** static int rijndaelKeySetupDec(u32 rk[], const u8 cipherKey[], int keyBits)
  29:C:/Users/stapi/OneDrive/Desktop/GD32VW553/V1_MQTT_OK/GD32VW55X_Wifi_BLE_SDK/GD32VW55x_RELEASE_V1.0.2/MSDK/wpa_supplicant/src/crypto\aes-internal-dec.c **** {
  30:C:/Users/stapi/OneDrive/Desktop/GD32VW553/V1_MQTT_OK/GD32VW55X_Wifi_BLE_SDK/GD32VW55x_RELEASE_V1.0.2/MSDK/wpa_supplicant/src/crypto\aes-internal-dec.c **** 	int Nr, i, j;
  31:C:/Users/stapi/OneDrive/Desktop/GD32VW553/V1_MQTT_OK/GD32VW55X_Wifi_BLE_SDK/GD32VW55x_RELEASE_V1.0.2/MSDK/wpa_supplicant/src/crypto\aes-internal-dec.c **** 	u32 temp;
  32:C:/Users/stapi/OneDrive/Desktop/GD32VW553/V1_MQTT_OK/GD32VW55X_Wifi_BLE_SDK/GD32VW55x_RELEASE_V1.0.2/MSDK/wpa_supplicant/src/crypto\aes-internal-dec.c **** 
  33:C:/Users/stapi/OneDrive/Desktop/GD32VW553/V1_MQTT_OK/GD32VW55X_Wifi_BLE_SDK/GD32VW55x_RELEASE_V1.0.2/MSDK/wpa_supplicant/src/crypto\aes-internal-dec.c **** 	/* expand the cipher key: */
  34:C:/Users/stapi/OneDrive/Desktop/GD32VW553/V1_MQTT_OK/GD32VW55X_Wifi_BLE_SDK/GD32VW55x_RELEASE_V1.0.2/MSDK/wpa_supplicant/src/crypto\aes-internal-dec.c **** 	Nr = rijndaelKeySetupEnc(rk, cipherKey, keyBits);
  35:C:/Users/stapi/OneDrive/Desktop/GD32VW553/V1_MQTT_OK/GD32VW55X_Wifi_BLE_SDK/GD32VW55x_RELEASE_V1.0.2/MSDK/wpa_supplicant/src/crypto\aes-internal-dec.c **** 	if (Nr < 0)
  36:C:/Users/stapi/OneDrive/Desktop/GD32VW553/V1_MQTT_OK/GD32VW55X_Wifi_BLE_SDK/GD32VW55x_RELEASE_V1.0.2/MSDK/wpa_supplicant/src/crypto\aes-internal-dec.c **** 		return Nr;
  37:C:/Users/stapi/OneDrive/Desktop/GD32VW553/V1_MQTT_OK/GD32VW55X_Wifi_BLE_SDK/GD32VW55x_RELEASE_V1.0.2/MSDK/wpa_supplicant/src/crypto\aes-internal-dec.c **** 	/* invert the order of the round keys: */
  38:C:/Users/stapi/OneDrive/Desktop/GD32VW553/V1_MQTT_OK/GD32VW55X_Wifi_BLE_SDK/GD32VW55x_RELEASE_V1.0.2/MSDK/wpa_supplicant/src/crypto\aes-internal-dec.c **** 	for (i = 0, j = 4*Nr; i < j; i += 4, j -= 4) {
  39:C:/Users/stapi/OneDrive/Desktop/GD32VW553/V1_MQTT_OK/GD32VW55X_Wifi_BLE_SDK/GD32VW55x_RELEASE_V1.0.2/MSDK/wpa_supplicant/src/crypto\aes-internal-dec.c **** 		temp = rk[i    ]; rk[i    ] = rk[j    ]; rk[j    ] = temp;
  40:C:/Users/stapi/OneDrive/Desktop/GD32VW553/V1_MQTT_OK/GD32VW55X_Wifi_BLE_SDK/GD32VW55x_RELEASE_V1.0.2/MSDK/wpa_supplicant/src/crypto\aes-internal-dec.c **** 		temp = rk[i + 1]; rk[i + 1] = rk[j + 1]; rk[j + 1] = temp;
  41:C:/Users/stapi/OneDrive/Desktop/GD32VW553/V1_MQTT_OK/GD32VW55X_Wifi_BLE_SDK/GD32VW55x_RELEASE_V1.0.2/MSDK/wpa_supplicant/src/crypto\aes-internal-dec.c **** 		temp = rk[i + 2]; rk[i + 2] = rk[j + 2]; rk[j + 2] = temp;
  42:C:/Users/stapi/OneDrive/Desktop/GD32VW553/V1_MQTT_OK/GD32VW55X_Wifi_BLE_SDK/GD32VW55x_RELEASE_V1.0.2/MSDK/wpa_supplicant/src/crypto\aes-internal-dec.c **** 		temp = rk[i + 3]; rk[i + 3] = rk[j + 3]; rk[j + 3] = temp;
  43:C:/Users/stapi/OneDrive/Desktop/GD32VW553/V1_MQTT_OK/GD32VW55X_Wifi_BLE_SDK/GD32VW55x_RELEASE_V1.0.2/MSDK/wpa_supplicant/src/crypto\aes-internal-dec.c **** 	}
  44:C:/Users/stapi/OneDrive/Desktop/GD32VW553/V1_MQTT_OK/GD32VW55X_Wifi_BLE_SDK/GD32VW55x_RELEASE_V1.0.2/MSDK/wpa_supplicant/src/crypto\aes-internal-dec.c **** 	/* apply the inverse MixColumn transform to all round keys but the
  45:C:/Users/stapi/OneDrive/Desktop/GD32VW553/V1_MQTT_OK/GD32VW55X_Wifi_BLE_SDK/GD32VW55x_RELEASE_V1.0.2/MSDK/wpa_supplicant/src/crypto\aes-internal-dec.c **** 	 * first and the last: */
  46:C:/Users/stapi/OneDrive/Desktop/GD32VW553/V1_MQTT_OK/GD32VW55X_Wifi_BLE_SDK/GD32VW55x_RELEASE_V1.0.2/MSDK/wpa_supplicant/src/crypto\aes-internal-dec.c **** 	for (i = 1; i < Nr; i++) {
  47:C:/Users/stapi/OneDrive/Desktop/GD32VW553/V1_MQTT_OK/GD32VW55X_Wifi_BLE_SDK/GD32VW55x_RELEASE_V1.0.2/MSDK/wpa_supplicant/src/crypto\aes-internal-dec.c **** 		rk += 4;
  48:C:/Users/stapi/OneDrive/Desktop/GD32VW553/V1_MQTT_OK/GD32VW55X_Wifi_BLE_SDK/GD32VW55x_RELEASE_V1.0.2/MSDK/wpa_supplicant/src/crypto\aes-internal-dec.c **** 		for (j = 0; j < 4; j++) {
  49:C:/Users/stapi/OneDrive/Desktop/GD32VW553/V1_MQTT_OK/GD32VW55X_Wifi_BLE_SDK/GD32VW55x_RELEASE_V1.0.2/MSDK/wpa_supplicant/src/crypto\aes-internal-dec.c **** 			rk[j] = TD0_(TE4((rk[j] >> 24)       )) ^
  50:C:/Users/stapi/OneDrive/Desktop/GD32VW553/V1_MQTT_OK/GD32VW55X_Wifi_BLE_SDK/GD32VW55x_RELEASE_V1.0.2/MSDK/wpa_supplicant/src/crypto\aes-internal-dec.c **** 				TD1_(TE4((rk[j] >> 16) & 0xff)) ^
  51:C:/Users/stapi/OneDrive/Desktop/GD32VW553/V1_MQTT_OK/GD32VW55X_Wifi_BLE_SDK/GD32VW55x_RELEASE_V1.0.2/MSDK/wpa_supplicant/src/crypto\aes-internal-dec.c **** 				TD2_(TE4((rk[j] >>  8) & 0xff)) ^
  52:C:/Users/stapi/OneDrive/Desktop/GD32VW553/V1_MQTT_OK/GD32VW55X_Wifi_BLE_SDK/GD32VW55x_RELEASE_V1.0.2/MSDK/wpa_supplicant/src/crypto\aes-internal-dec.c **** 				TD3_(TE4((rk[j]      ) & 0xff));
  53:C:/Users/stapi/OneDrive/Desktop/GD32VW553/V1_MQTT_OK/GD32VW55X_Wifi_BLE_SDK/GD32VW55x_RELEASE_V1.0.2/MSDK/wpa_supplicant/src/crypto\aes-internal-dec.c **** 		}
  54:C:/Users/stapi/OneDrive/Desktop/GD32VW553/V1_MQTT_OK/GD32VW55X_Wifi_BLE_SDK/GD32VW55x_RELEASE_V1.0.2/MSDK/wpa_supplicant/src/crypto\aes-internal-dec.c **** 	}
  55:C:/Users/stapi/OneDrive/Desktop/GD32VW553/V1_MQTT_OK/GD32VW55X_Wifi_BLE_SDK/GD32VW55x_RELEASE_V1.0.2/MSDK/wpa_supplicant/src/crypto\aes-internal-dec.c **** 
  56:C:/Users/stapi/OneDrive/Desktop/GD32VW553/V1_MQTT_OK/GD32VW55X_Wifi_BLE_SDK/GD32VW55x_RELEASE_V1.0.2/MSDK/wpa_supplicant/src/crypto\aes-internal-dec.c **** 	return Nr;
  57:C:/Users/stapi/OneDrive/Desktop/GD32VW553/V1_MQTT_OK/GD32VW55X_Wifi_BLE_SDK/GD32VW55x_RELEASE_V1.0.2/MSDK/wpa_supplicant/src/crypto\aes-internal-dec.c **** }
  58:C:/Users/stapi/OneDrive/Desktop/GD32VW553/V1_MQTT_OK/GD32VW55X_Wifi_BLE_SDK/GD32VW55x_RELEASE_V1.0.2/MSDK/wpa_supplicant/src/crypto\aes-internal-dec.c **** 
  59:C:/Users/stapi/OneDrive/Desktop/GD32VW553/V1_MQTT_OK/GD32VW55X_Wifi_BLE_SDK/GD32VW55x_RELEASE_V1.0.2/MSDK/wpa_supplicant/src/crypto\aes-internal-dec.c **** void * aes_decrypt_init(const u8 *key, size_t len)
  60:C:/Users/stapi/OneDrive/Desktop/GD32VW553/V1_MQTT_OK/GD32VW55X_Wifi_BLE_SDK/GD32VW55x_RELEASE_V1.0.2/MSDK/wpa_supplicant/src/crypto\aes-internal-dec.c **** {
  16              		.loc 1 60 1
  17              		.cfi_startproc
  18              	.LVL0:
  19 0000 17030000 		call	t0,__riscv_save_3
  19      E7020300 
  20              		.cfi_offset 18, -16
  21              		.cfi_offset 9, -12
  22              		.cfi_offset 8, -8
  23              		.cfi_offset 1, -4
  24              		.cfi_def_cfa_offset 16
  61:C:/Users/stapi/OneDrive/Desktop/GD32VW553/V1_MQTT_OK/GD32VW55X_Wifi_BLE_SDK/GD32VW55x_RELEASE_V1.0.2/MSDK/wpa_supplicant/src/crypto\aes-internal-dec.c **** 	u32 *rk;
  25              		.loc 1 61 2
  62:C:/Users/stapi/OneDrive/Desktop/GD32VW553/V1_MQTT_OK/GD32VW55X_Wifi_BLE_SDK/GD32VW55x_RELEASE_V1.0.2/MSDK/wpa_supplicant/src/crypto\aes-internal-dec.c **** 	int res;
  26              		.loc 1 62 2
  63:C:/Users/stapi/OneDrive/Desktop/GD32VW553/V1_MQTT_OK/GD32VW55X_Wifi_BLE_SDK/GD32VW55x_RELEASE_V1.0.2/MSDK/wpa_supplicant/src/crypto\aes-internal-dec.c **** 	rk = os_malloc(AES_PRIV_SIZE);
  27              		.loc 1 63 2
  60:C:/Users/stapi/OneDrive/Desktop/GD32VW553/V1_MQTT_OK/GD32VW55X_Wifi_BLE_SDK/GD32VW55x_RELEASE_V1.0.2/MSDK/wpa_supplicant/src/crypto\aes-internal-dec.c **** 	u32 *rk;
  28              		.loc 1 60 1 is_stmt 0
  29 0008 AA84     		mv	s1,a0
  30              		.loc 1 63 7
  31 000a 1305400F 		li	a0,244
  32              	.LVL1:
  60:C:/Users/stapi/OneDrive/Desktop/GD32VW553/V1_MQTT_OK/GD32VW55X_Wifi_BLE_SDK/GD32VW55x_RELEASE_V1.0.2/MSDK/wpa_supplicant/src/crypto\aes-internal-dec.c **** 	u32 *rk;
  33              		.loc 1 60 1
  34 000e 2E89     		mv	s2,a1
  35              		.loc 1 63 7
  36 0010 97000000 		call	os_malloc
  36      E7800000 
  37              	.LVL2:
  38 0018 2A84     		mv	s0,a0
  39              	.LVL3:
  64:C:/Users/stapi/OneDrive/Desktop/GD32VW553/V1_MQTT_OK/GD32VW55X_Wifi_BLE_SDK/GD32VW55x_RELEASE_V1.0.2/MSDK/wpa_supplicant/src/crypto\aes-internal-dec.c **** 	if (rk == NULL)
  40              		.loc 1 64 2 is_stmt 1
  41              		.loc 1 64 5 is_stmt 0
  42 001a 29C5     		beq	a0,zero,.L1
  65:C:/Users/stapi/OneDrive/Desktop/GD32VW553/V1_MQTT_OK/GD32VW55X_Wifi_BLE_SDK/GD32VW55x_RELEASE_V1.0.2/MSDK/wpa_supplicant/src/crypto\aes-internal-dec.c **** 		return NULL;
  66:C:/Users/stapi/OneDrive/Desktop/GD32VW553/V1_MQTT_OK/GD32VW55X_Wifi_BLE_SDK/GD32VW55x_RELEASE_V1.0.2/MSDK/wpa_supplicant/src/crypto\aes-internal-dec.c **** 	res = rijndaelKeySetupDec(rk, key, len * 8);
  43              		.loc 1 66 2 is_stmt 1
  44              	.LVL4:
  45              	.LBB64:
  46              	.LBB65:
  30:C:/Users/stapi/OneDrive/Desktop/GD32VW553/V1_MQTT_OK/GD32VW55X_Wifi_BLE_SDK/GD32VW55x_RELEASE_V1.0.2/MSDK/wpa_supplicant/src/crypto\aes-internal-dec.c **** 	u32 temp;
  47              		.loc 1 30 2
  31:C:/Users/stapi/OneDrive/Desktop/GD32VW553/V1_MQTT_OK/GD32VW55X_Wifi_BLE_SDK/GD32VW55x_RELEASE_V1.0.2/MSDK/wpa_supplicant/src/crypto\aes-internal-dec.c **** 
  48              		.loc 1 31 2
  34:C:/Users/stapi/OneDrive/Desktop/GD32VW553/V1_MQTT_OK/GD32VW55X_Wifi_BLE_SDK/GD32VW55x_RELEASE_V1.0.2/MSDK/wpa_supplicant/src/crypto\aes-internal-dec.c **** 	if (Nr < 0)
  49              		.loc 1 34 2
  34:C:/Users/stapi/OneDrive/Desktop/GD32VW553/V1_MQTT_OK/GD32VW55X_Wifi_BLE_SDK/GD32VW55x_RELEASE_V1.0.2/MSDK/wpa_supplicant/src/crypto\aes-internal-dec.c **** 	if (Nr < 0)
  50              		.loc 1 34 7 is_stmt 0
  51 001c 13163900 		slli	a2,s2,3
  52              	.LVL5:
  53 0020 A685     		mv	a1,s1
  54 0022 97000000 		call	rijndaelKeySetupEnc
  54      E7800000 
  55              	.LVL6:
  35:C:/Users/stapi/OneDrive/Desktop/GD32VW553/V1_MQTT_OK/GD32VW55X_Wifi_BLE_SDK/GD32VW55x_RELEASE_V1.0.2/MSDK/wpa_supplicant/src/crypto\aes-internal-dec.c **** 		return Nr;
  56              		.loc 1 35 2 is_stmt 1
  35:C:/Users/stapi/OneDrive/Desktop/GD32VW553/V1_MQTT_OK/GD32VW55X_Wifi_BLE_SDK/GD32VW55x_RELEASE_V1.0.2/MSDK/wpa_supplicant/src/crypto\aes-internal-dec.c **** 		return Nr;
  57              		.loc 1 35 5 is_stmt 0
  58 002a 634B050E 		blt	a0,zero,.L3
  38:C:/Users/stapi/OneDrive/Desktop/GD32VW553/V1_MQTT_OK/GD32VW55X_Wifi_BLE_SDK/GD32VW55x_RELEASE_V1.0.2/MSDK/wpa_supplicant/src/crypto\aes-internal-dec.c **** 		temp = rk[i    ]; rk[i    ] = rk[j    ]; rk[j    ] = temp;
  59              		.loc 1 38 2 is_stmt 1
  60              	.LVL7:
  61 002e 93174500 		slli	a5,a0,4
  62 0032 2287     		mv	a4,s0
  38:C:/Users/stapi/OneDrive/Desktop/GD32VW553/V1_MQTT_OK/GD32VW55X_Wifi_BLE_SDK/GD32VW55x_RELEASE_V1.0.2/MSDK/wpa_supplicant/src/crypto\aes-internal-dec.c **** 		temp = rk[i    ]; rk[i    ] = rk[j    ]; rk[j    ] = temp;
  63              		.loc 1 38 16 is_stmt 0
  64 0034 93152500 		slli	a1,a0,2
  65 0038 A297     		add	a5,s0,a5
  38:C:/Users/stapi/OneDrive/Desktop/GD32VW553/V1_MQTT_OK/GD32VW55X_Wifi_BLE_SDK/GD32VW55x_RELEASE_V1.0.2/MSDK/wpa_supplicant/src/crypto\aes-internal-dec.c **** 		temp = rk[i    ]; rk[i    ] = rk[j    ]; rk[j    ] = temp;
  66              		.loc 1 38 9
  67 003a 8146     		li	a3,0
  68              	.LVL8:
  69              	.L4:
  38:C:/Users/stapi/OneDrive/Desktop/GD32VW553/V1_MQTT_OK/GD32VW55X_Wifi_BLE_SDK/GD32VW55x_RELEASE_V1.0.2/MSDK/wpa_supplicant/src/crypto\aes-internal-dec.c **** 		temp = rk[i    ]; rk[i    ] = rk[j    ]; rk[j    ] = temp;
  70              		.loc 1 38 24 is_stmt 1
  38:C:/Users/stapi/OneDrive/Desktop/GD32VW553/V1_MQTT_OK/GD32VW55X_Wifi_BLE_SDK/GD32VW55x_RELEASE_V1.0.2/MSDK/wpa_supplicant/src/crypto\aes-internal-dec.c **** 		temp = rk[i    ]; rk[i    ] = rk[j    ]; rk[j    ] = temp;
  71              		.loc 1 38 2 is_stmt 0
  72 003c 3386D540 		sub	a2,a1,a3
  73 0040 63C7C602 		blt	a3,a2,.L5
  52:C:/Users/stapi/OneDrive/Desktop/GD32VW553/V1_MQTT_OK/GD32VW55X_Wifi_BLE_SDK/GD32VW55x_RELEASE_V1.0.2/MSDK/wpa_supplicant/src/crypto\aes-internal-dec.c **** 		}
  74              		.loc 1 52 5
  75 0044 B7060000 		lui	a3,%hi(Td0)
  76              	.LVL9:
  77 0048 37060000 		lui	a2,%hi(Te0)
  78 004c A288     		mv	a7,s0
  46:C:/Users/stapi/OneDrive/Desktop/GD32VW553/V1_MQTT_OK/GD32VW55X_Wifi_BLE_SDK/GD32VW55x_RELEASE_V1.0.2/MSDK/wpa_supplicant/src/crypto\aes-internal-dec.c **** 		rk += 4;
  79              		.loc 1 46 9
  80 004e 0543     		li	t1,1
  52:C:/Users/stapi/OneDrive/Desktop/GD32VW553/V1_MQTT_OK/GD32VW55X_Wifi_BLE_SDK/GD32VW55x_RELEASE_V1.0.2/MSDK/wpa_supplicant/src/crypto\aes-internal-dec.c **** 		}
  81              		.loc 1 52 5
  82 0050 93860600 		addi	a3,a3,%lo(Td0)
  83 0054 13060600 		addi	a2,a2,%lo(Te0)
  84              	.LBB66:
  85              	.LBB67:
  86              		.file 2 "C:/Users/stapi/OneDrive/Desktop/GD32VW553/V1_MQTT_OK/GD32VW55X_Wifi_BLE_SDK/GD32VW55x_REL
   1:C:/Users/stapi/OneDrive/Desktop/GD32VW553/V1_MQTT_OK/GD32VW55X_Wifi_BLE_SDK/GD32VW55x_RELEASE_V1.0.2/MSDK/wpa_supplicant/src/crypto\aes_i.h **** /*
   2:C:/Users/stapi/OneDrive/Desktop/GD32VW553/V1_MQTT_OK/GD32VW55X_Wifi_BLE_SDK/GD32VW55x_RELEASE_V1.0.2/MSDK/wpa_supplicant/src/crypto\aes_i.h ****  * AES (Rijndael) cipher
   3:C:/Users/stapi/OneDrive/Desktop/GD32VW553/V1_MQTT_OK/GD32VW55X_Wifi_BLE_SDK/GD32VW55x_RELEASE_V1.0.2/MSDK/wpa_supplicant/src/crypto\aes_i.h ****  * Copyright (c) 2003-2012, Jouni Malinen <j@w1.fi>
   4:C:/Users/stapi/OneDrive/Desktop/GD32VW553/V1_MQTT_OK/GD32VW55X_Wifi_BLE_SDK/GD32VW55x_RELEASE_V1.0.2/MSDK/wpa_supplicant/src/crypto\aes_i.h ****  *
   5:C:/Users/stapi/OneDrive/Desktop/GD32VW553/V1_MQTT_OK/GD32VW55X_Wifi_BLE_SDK/GD32VW55x_RELEASE_V1.0.2/MSDK/wpa_supplicant/src/crypto\aes_i.h ****  * This software may be distributed under the terms of the BSD license.
   6:C:/Users/stapi/OneDrive/Desktop/GD32VW553/V1_MQTT_OK/GD32VW55X_Wifi_BLE_SDK/GD32VW55x_RELEASE_V1.0.2/MSDK/wpa_supplicant/src/crypto\aes_i.h ****  * See README for more details.
   7:C:/Users/stapi/OneDrive/Desktop/GD32VW553/V1_MQTT_OK/GD32VW55X_Wifi_BLE_SDK/GD32VW55x_RELEASE_V1.0.2/MSDK/wpa_supplicant/src/crypto\aes_i.h ****  */
   8:C:/Users/stapi/OneDrive/Desktop/GD32VW553/V1_MQTT_OK/GD32VW55X_Wifi_BLE_SDK/GD32VW55x_RELEASE_V1.0.2/MSDK/wpa_supplicant/src/crypto\aes_i.h **** 
   9:C:/Users/stapi/OneDrive/Desktop/GD32VW553/V1_MQTT_OK/GD32VW55X_Wifi_BLE_SDK/GD32VW55x_RELEASE_V1.0.2/MSDK/wpa_supplicant/src/crypto\aes_i.h **** #ifndef AES_I_H
  10:C:/Users/stapi/OneDrive/Desktop/GD32VW553/V1_MQTT_OK/GD32VW55X_Wifi_BLE_SDK/GD32VW55x_RELEASE_V1.0.2/MSDK/wpa_supplicant/src/crypto\aes_i.h **** #define AES_I_H
  11:C:/Users/stapi/OneDrive/Desktop/GD32VW553/V1_MQTT_OK/GD32VW55X_Wifi_BLE_SDK/GD32VW55x_RELEASE_V1.0.2/MSDK/wpa_supplicant/src/crypto\aes_i.h **** 
  12:C:/Users/stapi/OneDrive/Desktop/GD32VW553/V1_MQTT_OK/GD32VW55X_Wifi_BLE_SDK/GD32VW55x_RELEASE_V1.0.2/MSDK/wpa_supplicant/src/crypto\aes_i.h **** #include "aes.h"
  13:C:/Users/stapi/OneDrive/Desktop/GD32VW553/V1_MQTT_OK/GD32VW55X_Wifi_BLE_SDK/GD32VW55x_RELEASE_V1.0.2/MSDK/wpa_supplicant/src/crypto\aes_i.h **** 
  14:C:/Users/stapi/OneDrive/Desktop/GD32VW553/V1_MQTT_OK/GD32VW55X_Wifi_BLE_SDK/GD32VW55x_RELEASE_V1.0.2/MSDK/wpa_supplicant/src/crypto\aes_i.h **** /* #define FULL_UNROLL */
  15:C:/Users/stapi/OneDrive/Desktop/GD32VW553/V1_MQTT_OK/GD32VW55X_Wifi_BLE_SDK/GD32VW55x_RELEASE_V1.0.2/MSDK/wpa_supplicant/src/crypto\aes_i.h **** #define AES_SMALL_TABLES
  16:C:/Users/stapi/OneDrive/Desktop/GD32VW553/V1_MQTT_OK/GD32VW55X_Wifi_BLE_SDK/GD32VW55x_RELEASE_V1.0.2/MSDK/wpa_supplicant/src/crypto\aes_i.h **** 
  17:C:/Users/stapi/OneDrive/Desktop/GD32VW553/V1_MQTT_OK/GD32VW55X_Wifi_BLE_SDK/GD32VW55x_RELEASE_V1.0.2/MSDK/wpa_supplicant/src/crypto\aes_i.h **** extern const u32 Te0[256];
  18:C:/Users/stapi/OneDrive/Desktop/GD32VW553/V1_MQTT_OK/GD32VW55X_Wifi_BLE_SDK/GD32VW55x_RELEASE_V1.0.2/MSDK/wpa_supplicant/src/crypto\aes_i.h **** extern const u32 Te1[256];
  19:C:/Users/stapi/OneDrive/Desktop/GD32VW553/V1_MQTT_OK/GD32VW55X_Wifi_BLE_SDK/GD32VW55x_RELEASE_V1.0.2/MSDK/wpa_supplicant/src/crypto\aes_i.h **** extern const u32 Te2[256];
  20:C:/Users/stapi/OneDrive/Desktop/GD32VW553/V1_MQTT_OK/GD32VW55X_Wifi_BLE_SDK/GD32VW55x_RELEASE_V1.0.2/MSDK/wpa_supplicant/src/crypto\aes_i.h **** extern const u32 Te3[256];
  21:C:/Users/stapi/OneDrive/Desktop/GD32VW553/V1_MQTT_OK/GD32VW55X_Wifi_BLE_SDK/GD32VW55x_RELEASE_V1.0.2/MSDK/wpa_supplicant/src/crypto\aes_i.h **** extern const u32 Te4[256];
  22:C:/Users/stapi/OneDrive/Desktop/GD32VW553/V1_MQTT_OK/GD32VW55X_Wifi_BLE_SDK/GD32VW55x_RELEASE_V1.0.2/MSDK/wpa_supplicant/src/crypto\aes_i.h **** extern const u32 Td0[256];
  23:C:/Users/stapi/OneDrive/Desktop/GD32VW553/V1_MQTT_OK/GD32VW55X_Wifi_BLE_SDK/GD32VW55x_RELEASE_V1.0.2/MSDK/wpa_supplicant/src/crypto\aes_i.h **** extern const u32 Td1[256];
  24:C:/Users/stapi/OneDrive/Desktop/GD32VW553/V1_MQTT_OK/GD32VW55X_Wifi_BLE_SDK/GD32VW55x_RELEASE_V1.0.2/MSDK/wpa_supplicant/src/crypto\aes_i.h **** extern const u32 Td2[256];
  25:C:/Users/stapi/OneDrive/Desktop/GD32VW553/V1_MQTT_OK/GD32VW55X_Wifi_BLE_SDK/GD32VW55x_RELEASE_V1.0.2/MSDK/wpa_supplicant/src/crypto\aes_i.h **** extern const u32 Td3[256];
  26:C:/Users/stapi/OneDrive/Desktop/GD32VW553/V1_MQTT_OK/GD32VW55X_Wifi_BLE_SDK/GD32VW55x_RELEASE_V1.0.2/MSDK/wpa_supplicant/src/crypto\aes_i.h **** extern const u32 Td4[256];
  27:C:/Users/stapi/OneDrive/Desktop/GD32VW553/V1_MQTT_OK/GD32VW55X_Wifi_BLE_SDK/GD32VW55x_RELEASE_V1.0.2/MSDK/wpa_supplicant/src/crypto\aes_i.h **** extern const u32 rcon[10];
  28:C:/Users/stapi/OneDrive/Desktop/GD32VW553/V1_MQTT_OK/GD32VW55X_Wifi_BLE_SDK/GD32VW55x_RELEASE_V1.0.2/MSDK/wpa_supplicant/src/crypto\aes_i.h **** extern const u8 Td4s[256];
  29:C:/Users/stapi/OneDrive/Desktop/GD32VW553/V1_MQTT_OK/GD32VW55X_Wifi_BLE_SDK/GD32VW55x_RELEASE_V1.0.2/MSDK/wpa_supplicant/src/crypto\aes_i.h **** extern const u8 rcons[10];
  30:C:/Users/stapi/OneDrive/Desktop/GD32VW553/V1_MQTT_OK/GD32VW55X_Wifi_BLE_SDK/GD32VW55x_RELEASE_V1.0.2/MSDK/wpa_supplicant/src/crypto\aes_i.h **** 
  31:C:/Users/stapi/OneDrive/Desktop/GD32VW553/V1_MQTT_OK/GD32VW55X_Wifi_BLE_SDK/GD32VW55x_RELEASE_V1.0.2/MSDK/wpa_supplicant/src/crypto\aes_i.h **** #ifndef AES_SMALL_TABLES
  32:C:/Users/stapi/OneDrive/Desktop/GD32VW553/V1_MQTT_OK/GD32VW55X_Wifi_BLE_SDK/GD32VW55x_RELEASE_V1.0.2/MSDK/wpa_supplicant/src/crypto\aes_i.h **** 
  33:C:/Users/stapi/OneDrive/Desktop/GD32VW553/V1_MQTT_OK/GD32VW55X_Wifi_BLE_SDK/GD32VW55x_RELEASE_V1.0.2/MSDK/wpa_supplicant/src/crypto\aes_i.h **** #define RCON(i) rcon[(i)]
  34:C:/Users/stapi/OneDrive/Desktop/GD32VW553/V1_MQTT_OK/GD32VW55X_Wifi_BLE_SDK/GD32VW55x_RELEASE_V1.0.2/MSDK/wpa_supplicant/src/crypto\aes_i.h **** 
  35:C:/Users/stapi/OneDrive/Desktop/GD32VW553/V1_MQTT_OK/GD32VW55X_Wifi_BLE_SDK/GD32VW55x_RELEASE_V1.0.2/MSDK/wpa_supplicant/src/crypto\aes_i.h **** #define TE0(i) Te0[((i) >> 24) & 0xff]
  36:C:/Users/stapi/OneDrive/Desktop/GD32VW553/V1_MQTT_OK/GD32VW55X_Wifi_BLE_SDK/GD32VW55x_RELEASE_V1.0.2/MSDK/wpa_supplicant/src/crypto\aes_i.h **** #define TE1(i) Te1[((i) >> 16) & 0xff]
  37:C:/Users/stapi/OneDrive/Desktop/GD32VW553/V1_MQTT_OK/GD32VW55X_Wifi_BLE_SDK/GD32VW55x_RELEASE_V1.0.2/MSDK/wpa_supplicant/src/crypto\aes_i.h **** #define TE2(i) Te2[((i) >> 8) & 0xff]
  38:C:/Users/stapi/OneDrive/Desktop/GD32VW553/V1_MQTT_OK/GD32VW55X_Wifi_BLE_SDK/GD32VW55x_RELEASE_V1.0.2/MSDK/wpa_supplicant/src/crypto\aes_i.h **** #define TE3(i) Te3[(i) & 0xff]
  39:C:/Users/stapi/OneDrive/Desktop/GD32VW553/V1_MQTT_OK/GD32VW55X_Wifi_BLE_SDK/GD32VW55x_RELEASE_V1.0.2/MSDK/wpa_supplicant/src/crypto\aes_i.h **** #define TE41(i) (Te4[((i) >> 24) & 0xff] & 0xff000000)
  40:C:/Users/stapi/OneDrive/Desktop/GD32VW553/V1_MQTT_OK/GD32VW55X_Wifi_BLE_SDK/GD32VW55x_RELEASE_V1.0.2/MSDK/wpa_supplicant/src/crypto\aes_i.h **** #define TE42(i) (Te4[((i) >> 16) & 0xff] & 0x00ff0000)
  41:C:/Users/stapi/OneDrive/Desktop/GD32VW553/V1_MQTT_OK/GD32VW55X_Wifi_BLE_SDK/GD32VW55x_RELEASE_V1.0.2/MSDK/wpa_supplicant/src/crypto\aes_i.h **** #define TE43(i) (Te4[((i) >> 8) & 0xff] & 0x0000ff00)
  42:C:/Users/stapi/OneDrive/Desktop/GD32VW553/V1_MQTT_OK/GD32VW55X_Wifi_BLE_SDK/GD32VW55x_RELEASE_V1.0.2/MSDK/wpa_supplicant/src/crypto\aes_i.h **** #define TE44(i) (Te4[(i) & 0xff] & 0x000000ff)
  43:C:/Users/stapi/OneDrive/Desktop/GD32VW553/V1_MQTT_OK/GD32VW55X_Wifi_BLE_SDK/GD32VW55x_RELEASE_V1.0.2/MSDK/wpa_supplicant/src/crypto\aes_i.h **** #define TE421(i) (Te4[((i) >> 16) & 0xff] & 0xff000000)
  44:C:/Users/stapi/OneDrive/Desktop/GD32VW553/V1_MQTT_OK/GD32VW55X_Wifi_BLE_SDK/GD32VW55x_RELEASE_V1.0.2/MSDK/wpa_supplicant/src/crypto\aes_i.h **** #define TE432(i) (Te4[((i) >> 8) & 0xff] & 0x00ff0000)
  45:C:/Users/stapi/OneDrive/Desktop/GD32VW553/V1_MQTT_OK/GD32VW55X_Wifi_BLE_SDK/GD32VW55x_RELEASE_V1.0.2/MSDK/wpa_supplicant/src/crypto\aes_i.h **** #define TE443(i) (Te4[(i) & 0xff] & 0x0000ff00)
  46:C:/Users/stapi/OneDrive/Desktop/GD32VW553/V1_MQTT_OK/GD32VW55X_Wifi_BLE_SDK/GD32VW55x_RELEASE_V1.0.2/MSDK/wpa_supplicant/src/crypto\aes_i.h **** #define TE414(i) (Te4[((i) >> 24) & 0xff] & 0x000000ff)
  47:C:/Users/stapi/OneDrive/Desktop/GD32VW553/V1_MQTT_OK/GD32VW55X_Wifi_BLE_SDK/GD32VW55x_RELEASE_V1.0.2/MSDK/wpa_supplicant/src/crypto\aes_i.h **** #define TE411(i) (Te4[((i) >> 24) & 0xff] & 0xff000000)
  48:C:/Users/stapi/OneDrive/Desktop/GD32VW553/V1_MQTT_OK/GD32VW55X_Wifi_BLE_SDK/GD32VW55x_RELEASE_V1.0.2/MSDK/wpa_supplicant/src/crypto\aes_i.h **** #define TE422(i) (Te4[((i) >> 16) & 0xff] & 0x00ff0000)
  49:C:/Users/stapi/OneDrive/Desktop/GD32VW553/V1_MQTT_OK/GD32VW55X_Wifi_BLE_SDK/GD32VW55x_RELEASE_V1.0.2/MSDK/wpa_supplicant/src/crypto\aes_i.h **** #define TE433(i) (Te4[((i) >> 8) & 0xff] & 0x0000ff00)
  50:C:/Users/stapi/OneDrive/Desktop/GD32VW553/V1_MQTT_OK/GD32VW55X_Wifi_BLE_SDK/GD32VW55x_RELEASE_V1.0.2/MSDK/wpa_supplicant/src/crypto\aes_i.h **** #define TE444(i) (Te4[(i) & 0xff] & 0x000000ff)
  51:C:/Users/stapi/OneDrive/Desktop/GD32VW553/V1_MQTT_OK/GD32VW55X_Wifi_BLE_SDK/GD32VW55x_RELEASE_V1.0.2/MSDK/wpa_supplicant/src/crypto\aes_i.h **** #define TE4(i) (Te4[(i)] & 0x000000ff)
  52:C:/Users/stapi/OneDrive/Desktop/GD32VW553/V1_MQTT_OK/GD32VW55X_Wifi_BLE_SDK/GD32VW55x_RELEASE_V1.0.2/MSDK/wpa_supplicant/src/crypto\aes_i.h **** 
  53:C:/Users/stapi/OneDrive/Desktop/GD32VW553/V1_MQTT_OK/GD32VW55X_Wifi_BLE_SDK/GD32VW55x_RELEASE_V1.0.2/MSDK/wpa_supplicant/src/crypto\aes_i.h **** #define TD0(i) Td0[((i) >> 24) & 0xff]
  54:C:/Users/stapi/OneDrive/Desktop/GD32VW553/V1_MQTT_OK/GD32VW55X_Wifi_BLE_SDK/GD32VW55x_RELEASE_V1.0.2/MSDK/wpa_supplicant/src/crypto\aes_i.h **** #define TD1(i) Td1[((i) >> 16) & 0xff]
  55:C:/Users/stapi/OneDrive/Desktop/GD32VW553/V1_MQTT_OK/GD32VW55X_Wifi_BLE_SDK/GD32VW55x_RELEASE_V1.0.2/MSDK/wpa_supplicant/src/crypto\aes_i.h **** #define TD2(i) Td2[((i) >> 8) & 0xff]
  56:C:/Users/stapi/OneDrive/Desktop/GD32VW553/V1_MQTT_OK/GD32VW55X_Wifi_BLE_SDK/GD32VW55x_RELEASE_V1.0.2/MSDK/wpa_supplicant/src/crypto\aes_i.h **** #define TD3(i) Td3[(i) & 0xff]
  57:C:/Users/stapi/OneDrive/Desktop/GD32VW553/V1_MQTT_OK/GD32VW55X_Wifi_BLE_SDK/GD32VW55x_RELEASE_V1.0.2/MSDK/wpa_supplicant/src/crypto\aes_i.h **** #define TD41(i) (Td4[((i) >> 24) & 0xff] & 0xff000000)
  58:C:/Users/stapi/OneDrive/Desktop/GD32VW553/V1_MQTT_OK/GD32VW55X_Wifi_BLE_SDK/GD32VW55x_RELEASE_V1.0.2/MSDK/wpa_supplicant/src/crypto\aes_i.h **** #define TD42(i) (Td4[((i) >> 16) & 0xff] & 0x00ff0000)
  59:C:/Users/stapi/OneDrive/Desktop/GD32VW553/V1_MQTT_OK/GD32VW55X_Wifi_BLE_SDK/GD32VW55x_RELEASE_V1.0.2/MSDK/wpa_supplicant/src/crypto\aes_i.h **** #define TD43(i) (Td4[((i) >> 8) & 0xff] & 0x0000ff00)
  60:C:/Users/stapi/OneDrive/Desktop/GD32VW553/V1_MQTT_OK/GD32VW55X_Wifi_BLE_SDK/GD32VW55x_RELEASE_V1.0.2/MSDK/wpa_supplicant/src/crypto\aes_i.h **** #define TD44(i) (Td4[(i) & 0xff] & 0x000000ff)
  61:C:/Users/stapi/OneDrive/Desktop/GD32VW553/V1_MQTT_OK/GD32VW55X_Wifi_BLE_SDK/GD32VW55x_RELEASE_V1.0.2/MSDK/wpa_supplicant/src/crypto\aes_i.h **** #define TD0_(i) Td0[(i) & 0xff]
  62:C:/Users/stapi/OneDrive/Desktop/GD32VW553/V1_MQTT_OK/GD32VW55X_Wifi_BLE_SDK/GD32VW55x_RELEASE_V1.0.2/MSDK/wpa_supplicant/src/crypto\aes_i.h **** #define TD1_(i) Td1[(i) & 0xff]
  63:C:/Users/stapi/OneDrive/Desktop/GD32VW553/V1_MQTT_OK/GD32VW55X_Wifi_BLE_SDK/GD32VW55x_RELEASE_V1.0.2/MSDK/wpa_supplicant/src/crypto\aes_i.h **** #define TD2_(i) Td2[(i) & 0xff]
  64:C:/Users/stapi/OneDrive/Desktop/GD32VW553/V1_MQTT_OK/GD32VW55X_Wifi_BLE_SDK/GD32VW55x_RELEASE_V1.0.2/MSDK/wpa_supplicant/src/crypto\aes_i.h **** #define TD3_(i) Td3[(i) & 0xff]
  65:C:/Users/stapi/OneDrive/Desktop/GD32VW553/V1_MQTT_OK/GD32VW55X_Wifi_BLE_SDK/GD32VW55x_RELEASE_V1.0.2/MSDK/wpa_supplicant/src/crypto\aes_i.h **** 
  66:C:/Users/stapi/OneDrive/Desktop/GD32VW553/V1_MQTT_OK/GD32VW55X_Wifi_BLE_SDK/GD32VW55x_RELEASE_V1.0.2/MSDK/wpa_supplicant/src/crypto\aes_i.h **** #else /* AES_SMALL_TABLES */
  67:C:/Users/stapi/OneDrive/Desktop/GD32VW553/V1_MQTT_OK/GD32VW55X_Wifi_BLE_SDK/GD32VW55x_RELEASE_V1.0.2/MSDK/wpa_supplicant/src/crypto\aes_i.h **** 
  68:C:/Users/stapi/OneDrive/Desktop/GD32VW553/V1_MQTT_OK/GD32VW55X_Wifi_BLE_SDK/GD32VW55x_RELEASE_V1.0.2/MSDK/wpa_supplicant/src/crypto\aes_i.h **** #define RCON(i) ((u32) rcons[(i)] << 24)
  69:C:/Users/stapi/OneDrive/Desktop/GD32VW553/V1_MQTT_OK/GD32VW55X_Wifi_BLE_SDK/GD32VW55x_RELEASE_V1.0.2/MSDK/wpa_supplicant/src/crypto\aes_i.h **** 
  70:C:/Users/stapi/OneDrive/Desktop/GD32VW553/V1_MQTT_OK/GD32VW55X_Wifi_BLE_SDK/GD32VW55x_RELEASE_V1.0.2/MSDK/wpa_supplicant/src/crypto\aes_i.h **** static inline u32 rotr(u32 val, int bits)
  71:C:/Users/stapi/OneDrive/Desktop/GD32VW553/V1_MQTT_OK/GD32VW55X_Wifi_BLE_SDK/GD32VW55x_RELEASE_V1.0.2/MSDK/wpa_supplicant/src/crypto\aes_i.h **** {
  72:C:/Users/stapi/OneDrive/Desktop/GD32VW553/V1_MQTT_OK/GD32VW55X_Wifi_BLE_SDK/GD32VW55x_RELEASE_V1.0.2/MSDK/wpa_supplicant/src/crypto\aes_i.h **** 	return (val >> bits) | (val << (32 - bits));
  87              		.loc 2 72 23
  88 0058 214E     		li	t3,8
  89              	.LBE67:
  90              	.LBE66:
  91              	.LBB71:
  92              	.LBB72:
  93 005a C14E     		li	t4,16
  94              	.LVL10:
  95              	.L6:
  96              	.LBE72:
  97              	.LBE71:
  46:C:/Users/stapi/OneDrive/Desktop/GD32VW553/V1_MQTT_OK/GD32VW55X_Wifi_BLE_SDK/GD32VW55x_RELEASE_V1.0.2/MSDK/wpa_supplicant/src/crypto\aes-internal-dec.c **** 		rk += 4;
  98              		.loc 1 46 14 is_stmt 1
  46:C:/Users/stapi/OneDrive/Desktop/GD32VW553/V1_MQTT_OK/GD32VW55X_Wifi_BLE_SDK/GD32VW55x_RELEASE_V1.0.2/MSDK/wpa_supplicant/src/crypto\aes-internal-dec.c **** 		rk += 4;
  99              		.loc 1 46 2 is_stmt 0
 100 005c 6345A304 		bgt	a0,t1,.L8
 101              	.LVL11:
 102              	.LBE65:
 103              	.LBE64:
  67:C:/Users/stapi/OneDrive/Desktop/GD32VW553/V1_MQTT_OK/GD32VW55X_Wifi_BLE_SDK/GD32VW55x_RELEASE_V1.0.2/MSDK/wpa_supplicant/src/crypto\aes-internal-dec.c **** 	if (res < 0) {
 104              		.loc 1 67 2 is_stmt 1
  68:C:/Users/stapi/OneDrive/Desktop/GD32VW553/V1_MQTT_OK/GD32VW55X_Wifi_BLE_SDK/GD32VW55x_RELEASE_V1.0.2/MSDK/wpa_supplicant/src/crypto\aes-internal-dec.c **** 		os_free(rk);
  69:C:/Users/stapi/OneDrive/Desktop/GD32VW553/V1_MQTT_OK/GD32VW55X_Wifi_BLE_SDK/GD32VW55x_RELEASE_V1.0.2/MSDK/wpa_supplicant/src/crypto\aes-internal-dec.c **** 		return NULL;
  70:C:/Users/stapi/OneDrive/Desktop/GD32VW553/V1_MQTT_OK/GD32VW55X_Wifi_BLE_SDK/GD32VW55x_RELEASE_V1.0.2/MSDK/wpa_supplicant/src/crypto\aes-internal-dec.c **** 	}
  71:C:/Users/stapi/OneDrive/Desktop/GD32VW553/V1_MQTT_OK/GD32VW55X_Wifi_BLE_SDK/GD32VW55x_RELEASE_V1.0.2/MSDK/wpa_supplicant/src/crypto\aes-internal-dec.c **** 	rk[AES_PRIV_NR_POS] = res;
 105              		.loc 1 71 2
 106              		.loc 1 71 22 is_stmt 0
 107 0060 2328A40E 		sw	a0,240(s0)
  72:C:/Users/stapi/OneDrive/Desktop/GD32VW553/V1_MQTT_OK/GD32VW55X_Wifi_BLE_SDK/GD32VW55x_RELEASE_V1.0.2/MSDK/wpa_supplicant/src/crypto\aes-internal-dec.c **** 	return rk;
 108              		.loc 1 72 2 is_stmt 1
 109              	.LVL12:
 110              	.L1:
  73:C:/Users/stapi/OneDrive/Desktop/GD32VW553/V1_MQTT_OK/GD32VW55X_Wifi_BLE_SDK/GD32VW55x_RELEASE_V1.0.2/MSDK/wpa_supplicant/src/crypto\aes-internal-dec.c **** }
 111              		.loc 1 73 1 is_stmt 0
 112 0064 2285     		mv	a0,s0
 113 0066 17030000 		tail	__riscv_restore_3
 113      67000300 
 114              		.cfi_remember_state
 115              		.cfi_restore 18
 116              		.cfi_restore 9
 117              		.cfi_restore 8
 118              		.cfi_restore 1
 119              		.cfi_def_cfa_offset 0
 120              	.LVL13:
 121              	.L5:
 122              		.cfi_restore_state
 123              	.LBB89:
 124              	.LBB88:
  39:C:/Users/stapi/OneDrive/Desktop/GD32VW553/V1_MQTT_OK/GD32VW55X_Wifi_BLE_SDK/GD32VW55x_RELEASE_V1.0.2/MSDK/wpa_supplicant/src/crypto\aes-internal-dec.c **** 		temp = rk[i + 1]; rk[i + 1] = rk[j + 1]; rk[j + 1] = temp;
 125              		.loc 1 39 3 is_stmt 1
  39:C:/Users/stapi/OneDrive/Desktop/GD32VW553/V1_MQTT_OK/GD32VW55X_Wifi_BLE_SDK/GD32VW55x_RELEASE_V1.0.2/MSDK/wpa_supplicant/src/crypto\aes-internal-dec.c **** 		temp = rk[i + 1]; rk[i + 1] = rk[j + 1]; rk[j + 1] = temp;
 126              		.loc 1 39 35 is_stmt 0
 127 006e 03A80700 		lw	a6,0(a5)
  39:C:/Users/stapi/OneDrive/Desktop/GD32VW553/V1_MQTT_OK/GD32VW55X_Wifi_BLE_SDK/GD32VW55x_RELEASE_V1.0.2/MSDK/wpa_supplicant/src/crypto\aes-internal-dec.c **** 		temp = rk[i + 1]; rk[i + 1] = rk[j + 1]; rk[j + 1] = temp;
 128              		.loc 1 39 8
 129 0072 1043     		lw	a2,0(a4)
 130              	.LVL14:
  39:C:/Users/stapi/OneDrive/Desktop/GD32VW553/V1_MQTT_OK/GD32VW55X_Wifi_BLE_SDK/GD32VW55x_RELEASE_V1.0.2/MSDK/wpa_supplicant/src/crypto\aes-internal-dec.c **** 		temp = rk[i + 1]; rk[i + 1] = rk[j + 1]; rk[j + 1] = temp;
 131              		.loc 1 39 21 is_stmt 1
  38:C:/Users/stapi/OneDrive/Desktop/GD32VW553/V1_MQTT_OK/GD32VW55X_Wifi_BLE_SDK/GD32VW55x_RELEASE_V1.0.2/MSDK/wpa_supplicant/src/crypto\aes-internal-dec.c **** 		temp = rk[i    ]; rk[i    ] = rk[j    ]; rk[j    ] = temp;
 132              		.loc 1 38 33 is_stmt 0
 133 0074 9106     		addi	a3,a3,4
 134              	.LVL15:
  39:C:/Users/stapi/OneDrive/Desktop/GD32VW553/V1_MQTT_OK/GD32VW55X_Wifi_BLE_SDK/GD32VW55x_RELEASE_V1.0.2/MSDK/wpa_supplicant/src/crypto\aes-internal-dec.c **** 		temp = rk[i + 1]; rk[i + 1] = rk[j + 1]; rk[j + 1] = temp;
 135              		.loc 1 39 31
 136 0076 23200701 		sw	a6,0(a4)
  39:C:/Users/stapi/OneDrive/Desktop/GD32VW553/V1_MQTT_OK/GD32VW55X_Wifi_BLE_SDK/GD32VW55x_RELEASE_V1.0.2/MSDK/wpa_supplicant/src/crypto\aes-internal-dec.c **** 		temp = rk[i + 1]; rk[i + 1] = rk[j + 1]; rk[j + 1] = temp;
 137              		.loc 1 39 44 is_stmt 1
  39:C:/Users/stapi/OneDrive/Desktop/GD32VW553/V1_MQTT_OK/GD32VW55X_Wifi_BLE_SDK/GD32VW55x_RELEASE_V1.0.2/MSDK/wpa_supplicant/src/crypto\aes-internal-dec.c **** 		temp = rk[i + 1]; rk[i + 1] = rk[j + 1]; rk[j + 1] = temp;
 138              		.loc 1 39 54 is_stmt 0
 139 007a 90C3     		sw	a2,0(a5)
  40:C:/Users/stapi/OneDrive/Desktop/GD32VW553/V1_MQTT_OK/GD32VW55X_Wifi_BLE_SDK/GD32VW55x_RELEASE_V1.0.2/MSDK/wpa_supplicant/src/crypto\aes-internal-dec.c **** 		temp = rk[i + 2]; rk[i + 2] = rk[j + 2]; rk[j + 2] = temp;
 140              		.loc 1 40 3 is_stmt 1
  40:C:/Users/stapi/OneDrive/Desktop/GD32VW553/V1_MQTT_OK/GD32VW55X_Wifi_BLE_SDK/GD32VW55x_RELEASE_V1.0.2/MSDK/wpa_supplicant/src/crypto\aes-internal-dec.c **** 		temp = rk[i + 2]; rk[i + 2] = rk[j + 2]; rk[j + 2] = temp;
 141              		.loc 1 40 35 is_stmt 0
 142 007c 03A84700 		lw	a6,4(a5)
  40:C:/Users/stapi/OneDrive/Desktop/GD32VW553/V1_MQTT_OK/GD32VW55X_Wifi_BLE_SDK/GD32VW55x_RELEASE_V1.0.2/MSDK/wpa_supplicant/src/crypto\aes-internal-dec.c **** 		temp = rk[i + 2]; rk[i + 2] = rk[j + 2]; rk[j + 2] = temp;
 143              		.loc 1 40 8
 144 0080 5043     		lw	a2,4(a4)
 145              	.LVL16:
  40:C:/Users/stapi/OneDrive/Desktop/GD32VW553/V1_MQTT_OK/GD32VW55X_Wifi_BLE_SDK/GD32VW55x_RELEASE_V1.0.2/MSDK/wpa_supplicant/src/crypto\aes-internal-dec.c **** 		temp = rk[i + 2]; rk[i + 2] = rk[j + 2]; rk[j + 2] = temp;
 146              		.loc 1 40 21 is_stmt 1
 147 0082 C117     		addi	a5,a5,-16
  40:C:/Users/stapi/OneDrive/Desktop/GD32VW553/V1_MQTT_OK/GD32VW55X_Wifi_BLE_SDK/GD32VW55x_RELEASE_V1.0.2/MSDK/wpa_supplicant/src/crypto\aes-internal-dec.c **** 		temp = rk[i + 2]; rk[i + 2] = rk[j + 2]; rk[j + 2] = temp;
 148              		.loc 1 40 31 is_stmt 0
 149 0084 23220701 		sw	a6,4(a4)
  40:C:/Users/stapi/OneDrive/Desktop/GD32VW553/V1_MQTT_OK/GD32VW55X_Wifi_BLE_SDK/GD32VW55x_RELEASE_V1.0.2/MSDK/wpa_supplicant/src/crypto\aes-internal-dec.c **** 		temp = rk[i + 2]; rk[i + 2] = rk[j + 2]; rk[j + 2] = temp;
 150              		.loc 1 40 44 is_stmt 1
  40:C:/Users/stapi/OneDrive/Desktop/GD32VW553/V1_MQTT_OK/GD32VW55X_Wifi_BLE_SDK/GD32VW55x_RELEASE_V1.0.2/MSDK/wpa_supplicant/src/crypto\aes-internal-dec.c **** 		temp = rk[i + 2]; rk[i + 2] = rk[j + 2]; rk[j + 2] = temp;
 151              		.loc 1 40 54 is_stmt 0
 152 0088 D0CB     		sw	a2,20(a5)
  41:C:/Users/stapi/OneDrive/Desktop/GD32VW553/V1_MQTT_OK/GD32VW55X_Wifi_BLE_SDK/GD32VW55x_RELEASE_V1.0.2/MSDK/wpa_supplicant/src/crypto\aes-internal-dec.c **** 		temp = rk[i + 3]; rk[i + 3] = rk[j + 3]; rk[j + 3] = temp;
 153              		.loc 1 41 3 is_stmt 1
  41:C:/Users/stapi/OneDrive/Desktop/GD32VW553/V1_MQTT_OK/GD32VW55X_Wifi_BLE_SDK/GD32VW55x_RELEASE_V1.0.2/MSDK/wpa_supplicant/src/crypto\aes-internal-dec.c **** 		temp = rk[i + 3]; rk[i + 3] = rk[j + 3]; rk[j + 3] = temp;
 154              		.loc 1 41 35 is_stmt 0
 155 008a 03A88701 		lw	a6,24(a5)
  41:C:/Users/stapi/OneDrive/Desktop/GD32VW553/V1_MQTT_OK/GD32VW55X_Wifi_BLE_SDK/GD32VW55x_RELEASE_V1.0.2/MSDK/wpa_supplicant/src/crypto\aes-internal-dec.c **** 		temp = rk[i + 3]; rk[i + 3] = rk[j + 3]; rk[j + 3] = temp;
 156              		.loc 1 41 8
 157 008e 1047     		lw	a2,8(a4)
 158              	.LVL17:
  41:C:/Users/stapi/OneDrive/Desktop/GD32VW553/V1_MQTT_OK/GD32VW55X_Wifi_BLE_SDK/GD32VW55x_RELEASE_V1.0.2/MSDK/wpa_supplicant/src/crypto\aes-internal-dec.c **** 		temp = rk[i + 3]; rk[i + 3] = rk[j + 3]; rk[j + 3] = temp;
 159              		.loc 1 41 21 is_stmt 1
  41:C:/Users/stapi/OneDrive/Desktop/GD32VW553/V1_MQTT_OK/GD32VW55X_Wifi_BLE_SDK/GD32VW55x_RELEASE_V1.0.2/MSDK/wpa_supplicant/src/crypto\aes-internal-dec.c **** 		temp = rk[i + 3]; rk[i + 3] = rk[j + 3]; rk[j + 3] = temp;
 160              		.loc 1 41 31 is_stmt 0
 161 0090 23240701 		sw	a6,8(a4)
  41:C:/Users/stapi/OneDrive/Desktop/GD32VW553/V1_MQTT_OK/GD32VW55X_Wifi_BLE_SDK/GD32VW55x_RELEASE_V1.0.2/MSDK/wpa_supplicant/src/crypto\aes-internal-dec.c **** 		temp = rk[i + 3]; rk[i + 3] = rk[j + 3]; rk[j + 3] = temp;
 162              		.loc 1 41 44 is_stmt 1
  41:C:/Users/stapi/OneDrive/Desktop/GD32VW553/V1_MQTT_OK/GD32VW55X_Wifi_BLE_SDK/GD32VW55x_RELEASE_V1.0.2/MSDK/wpa_supplicant/src/crypto\aes-internal-dec.c **** 		temp = rk[i + 3]; rk[i + 3] = rk[j + 3]; rk[j + 3] = temp;
 163              		.loc 1 41 54 is_stmt 0
 164 0094 90CF     		sw	a2,24(a5)
  42:C:/Users/stapi/OneDrive/Desktop/GD32VW553/V1_MQTT_OK/GD32VW55X_Wifi_BLE_SDK/GD32VW55x_RELEASE_V1.0.2/MSDK/wpa_supplicant/src/crypto\aes-internal-dec.c **** 	}
 165              		.loc 1 42 3 is_stmt 1
  42:C:/Users/stapi/OneDrive/Desktop/GD32VW553/V1_MQTT_OK/GD32VW55X_Wifi_BLE_SDK/GD32VW55x_RELEASE_V1.0.2/MSDK/wpa_supplicant/src/crypto\aes-internal-dec.c **** 	}
 166              		.loc 1 42 35 is_stmt 0
 167 0096 03A8C701 		lw	a6,28(a5)
  42:C:/Users/stapi/OneDrive/Desktop/GD32VW553/V1_MQTT_OK/GD32VW55X_Wifi_BLE_SDK/GD32VW55x_RELEASE_V1.0.2/MSDK/wpa_supplicant/src/crypto\aes-internal-dec.c **** 	}
 168              		.loc 1 42 8
 169 009a 5047     		lw	a2,12(a4)
 170              	.LVL18:
  42:C:/Users/stapi/OneDrive/Desktop/GD32VW553/V1_MQTT_OK/GD32VW55X_Wifi_BLE_SDK/GD32VW55x_RELEASE_V1.0.2/MSDK/wpa_supplicant/src/crypto\aes-internal-dec.c **** 	}
 171              		.loc 1 42 21 is_stmt 1
  42:C:/Users/stapi/OneDrive/Desktop/GD32VW553/V1_MQTT_OK/GD32VW55X_Wifi_BLE_SDK/GD32VW55x_RELEASE_V1.0.2/MSDK/wpa_supplicant/src/crypto\aes-internal-dec.c **** 	}
 172              		.loc 1 42 31 is_stmt 0
 173 009c 23260701 		sw	a6,12(a4)
  42:C:/Users/stapi/OneDrive/Desktop/GD32VW553/V1_MQTT_OK/GD32VW55X_Wifi_BLE_SDK/GD32VW55x_RELEASE_V1.0.2/MSDK/wpa_supplicant/src/crypto\aes-internal-dec.c **** 	}
 174              		.loc 1 42 44 is_stmt 1
  42:C:/Users/stapi/OneDrive/Desktop/GD32VW553/V1_MQTT_OK/GD32VW55X_Wifi_BLE_SDK/GD32VW55x_RELEASE_V1.0.2/MSDK/wpa_supplicant/src/crypto\aes-internal-dec.c **** 	}
 175              		.loc 1 42 54 is_stmt 0
 176 00a0 D0CF     		sw	a2,28(a5)
  38:C:/Users/stapi/OneDrive/Desktop/GD32VW553/V1_MQTT_OK/GD32VW55X_Wifi_BLE_SDK/GD32VW55x_RELEASE_V1.0.2/MSDK/wpa_supplicant/src/crypto\aes-internal-dec.c **** 		temp = rk[i    ]; rk[i    ] = rk[j    ]; rk[j    ] = temp;
 177              		.loc 1 38 31 is_stmt 1
 178              	.LVL19:
 179 00a2 4107     		addi	a4,a4,16
 180 00a4 61BF     		j	.L4
 181              	.LVL20:
 182              	.L8:
  47:C:/Users/stapi/OneDrive/Desktop/GD32VW553/V1_MQTT_OK/GD32VW55X_Wifi_BLE_SDK/GD32VW55x_RELEASE_V1.0.2/MSDK/wpa_supplicant/src/crypto\aes-internal-dec.c **** 		for (j = 0; j < 4; j++) {
 183              		.loc 1 47 3
  47:C:/Users/stapi/OneDrive/Desktop/GD32VW553/V1_MQTT_OK/GD32VW55X_Wifi_BLE_SDK/GD32VW55x_RELEASE_V1.0.2/MSDK/wpa_supplicant/src/crypto\aes-internal-dec.c **** 		for (j = 0; j < 4; j++) {
 184              		.loc 1 47 6 is_stmt 0
 185 00a6 C108     		addi	a7,a7,16
 186              	.LVL21:
  48:C:/Users/stapi/OneDrive/Desktop/GD32VW553/V1_MQTT_OK/GD32VW55X_Wifi_BLE_SDK/GD32VW55x_RELEASE_V1.0.2/MSDK/wpa_supplicant/src/crypto\aes-internal-dec.c **** 			rk[j] = TD0_(TE4((rk[j] >> 24)       )) ^
 187              		.loc 1 48 3 is_stmt 1
  48:C:/Users/stapi/OneDrive/Desktop/GD32VW553/V1_MQTT_OK/GD32VW55X_Wifi_BLE_SDK/GD32VW55x_RELEASE_V1.0.2/MSDK/wpa_supplicant/src/crypto\aes-internal-dec.c **** 			rk[j] = TD0_(TE4((rk[j] >> 24)       )) ^
 188              		.loc 1 48 15
  47:C:/Users/stapi/OneDrive/Desktop/GD32VW553/V1_MQTT_OK/GD32VW55X_Wifi_BLE_SDK/GD32VW55x_RELEASE_V1.0.2/MSDK/wpa_supplicant/src/crypto\aes-internal-dec.c **** 		for (j = 0; j < 4; j++) {
 189              		.loc 1 47 6 is_stmt 0
 190 00a8 C685     		mv	a1,a7
  48:C:/Users/stapi/OneDrive/Desktop/GD32VW553/V1_MQTT_OK/GD32VW55X_Wifi_BLE_SDK/GD32VW55x_RELEASE_V1.0.2/MSDK/wpa_supplicant/src/crypto\aes-internal-dec.c **** 			rk[j] = TD0_(TE4((rk[j] >> 24)       )) ^
 191              		.loc 1 48 3
 192 00aa 138F0801 		addi	t5,a7,16
 193              	.LVL22:
 194              	.L7:
  49:C:/Users/stapi/OneDrive/Desktop/GD32VW553/V1_MQTT_OK/GD32VW55X_Wifi_BLE_SDK/GD32VW55x_RELEASE_V1.0.2/MSDK/wpa_supplicant/src/crypto\aes-internal-dec.c **** 				TD1_(TE4((rk[j] >> 16) & 0xff)) ^
 195              		.loc 1 49 4 is_stmt 1
  49:C:/Users/stapi/OneDrive/Desktop/GD32VW553/V1_MQTT_OK/GD32VW55X_Wifi_BLE_SDK/GD32VW55x_RELEASE_V1.0.2/MSDK/wpa_supplicant/src/crypto\aes-internal-dec.c **** 				TD1_(TE4((rk[j] >> 16) & 0xff)) ^
 196              		.loc 1 49 12 is_stmt 0
 197 00ae 9C41     		lw	a5,0(a1)
 198              	.LVL23:
 199              	.LBB76:
 200              	.LBB77:
 201              		.loc 2 72 2 is_stmt 1
 202              	.LBE77:
 203              	.LBE76:
 204              	.LBB80:
 205              	.LBB73:
 206              		.loc 2 72 2
 207              	.LBE73:
 208              	.LBE80:
 209              	.LBB81:
 210              	.LBB68:
 211              		.loc 2 72 2
 212              	.LBE68:
 213              	.LBE81:
  52:C:/Users/stapi/OneDrive/Desktop/GD32VW553/V1_MQTT_OK/GD32VW55X_Wifi_BLE_SDK/GD32VW55x_RELEASE_V1.0.2/MSDK/wpa_supplicant/src/crypto\aes-internal-dec.c **** 		}
 214              		.loc 1 52 5 is_stmt 0
 215 00b0 13F7F70F 		andi	a4,a5,255
  49:C:/Users/stapi/OneDrive/Desktop/GD32VW553/V1_MQTT_OK/GD32VW55X_Wifi_BLE_SDK/GD32VW55x_RELEASE_V1.0.2/MSDK/wpa_supplicant/src/crypto\aes-internal-dec.c **** 				TD1_(TE4((rk[j] >> 16) & 0xff)) ^
 216              		.loc 1 49 12
 217 00b4 13D88701 		srli	a6,a5,24
  52:C:/Users/stapi/OneDrive/Desktop/GD32VW553/V1_MQTT_OK/GD32VW55X_Wifi_BLE_SDK/GD32VW55x_RELEASE_V1.0.2/MSDK/wpa_supplicant/src/crypto\aes-internal-dec.c **** 		}
 218              		.loc 1 52 5
 219 00b8 3347C720 		sh2add	a4,a4,a2
  49:C:/Users/stapi/OneDrive/Desktop/GD32VW553/V1_MQTT_OK/GD32VW55X_Wifi_BLE_SDK/GD32VW55x_RELEASE_V1.0.2/MSDK/wpa_supplicant/src/crypto\aes-internal-dec.c **** 				TD1_(TE4((rk[j] >> 16) & 0xff)) ^
 220              		.loc 1 49 12
 221 00bc 3348C820 		sh2add	a6,a6,a2
  52:C:/Users/stapi/OneDrive/Desktop/GD32VW553/V1_MQTT_OK/GD32VW55X_Wifi_BLE_SDK/GD32VW55x_RELEASE_V1.0.2/MSDK/wpa_supplicant/src/crypto\aes-internal-dec.c **** 		}
 222              		.loc 1 52 5
 223 00c0 03471700 		lbu	a4,1(a4)
  49:C:/Users/stapi/OneDrive/Desktop/GD32VW553/V1_MQTT_OK/GD32VW55X_Wifi_BLE_SDK/GD32VW55x_RELEASE_V1.0.2/MSDK/wpa_supplicant/src/crypto\aes-internal-dec.c **** 				TD1_(TE4((rk[j] >> 16) & 0xff)) ^
 224              		.loc 1 49 12
 225 00c4 03481800 		lbu	a6,1(a6)
  52:C:/Users/stapi/OneDrive/Desktop/GD32VW553/V1_MQTT_OK/GD32VW55X_Wifi_BLE_SDK/GD32VW55x_RELEASE_V1.0.2/MSDK/wpa_supplicant/src/crypto\aes-internal-dec.c **** 		}
 226              		.loc 1 52 5
 227 00c8 3347D720 		sh2add	a4,a4,a3
  49:C:/Users/stapi/OneDrive/Desktop/GD32VW553/V1_MQTT_OK/GD32VW55X_Wifi_BLE_SDK/GD32VW55x_RELEASE_V1.0.2/MSDK/wpa_supplicant/src/crypto\aes-internal-dec.c **** 				TD1_(TE4((rk[j] >> 16) & 0xff)) ^
 228              		.loc 1 49 12
 229 00cc 3348D820 		sh2add	a6,a6,a3
 230              	.LBB82:
 231              	.LBB69:
 232              		.loc 2 72 23
 233 00d0 1843     		lw	a4,0(a4)
 234              	.LBE69:
 235              	.LBE82:
  51:C:/Users/stapi/OneDrive/Desktop/GD32VW553/V1_MQTT_OK/GD32VW55X_Wifi_BLE_SDK/GD32VW55x_RELEASE_V1.0.2/MSDK/wpa_supplicant/src/crypto\aes-internal-dec.c **** 				TD3_(TE4((rk[j]      ) & 0xff));
 236              		.loc 1 51 37
 237 00d2 03280800 		lw	a6,0(a6)
 238              	.LBB83:
 239              	.LBB70:
 240              		.loc 2 72 23
 241 00d6 3317C761 		rol	a4,a4,t3
 242              	.LBE70:
 243              	.LBE83:
  51:C:/Users/stapi/OneDrive/Desktop/GD32VW553/V1_MQTT_OK/GD32VW55X_Wifi_BLE_SDK/GD32VW55x_RELEASE_V1.0.2/MSDK/wpa_supplicant/src/crypto\aes-internal-dec.c **** 				TD3_(TE4((rk[j]      ) & 0xff));
 244              		.loc 1 51 37
 245 00da 33470701 		xor	a4,a4,a6
  50:C:/Users/stapi/OneDrive/Desktop/GD32VW553/V1_MQTT_OK/GD32VW55X_Wifi_BLE_SDK/GD32VW55x_RELEASE_V1.0.2/MSDK/wpa_supplicant/src/crypto\aes-internal-dec.c **** 				TD2_(TE4((rk[j] >>  8) & 0xff)) ^
 246              		.loc 1 50 5
 247 00de 13D8E700 		srli	a6,a5,14
 248 00e2 1378C83F 		andi	a6,a6,1020
  51:C:/Users/stapi/OneDrive/Desktop/GD32VW553/V1_MQTT_OK/GD32VW55X_Wifi_BLE_SDK/GD32VW55x_RELEASE_V1.0.2/MSDK/wpa_supplicant/src/crypto\aes-internal-dec.c **** 				TD3_(TE4((rk[j]      ) & 0xff));
 249              		.loc 1 51 5
 250 00e6 9983     		srli	a5,a5,6
  50:C:/Users/stapi/OneDrive/Desktop/GD32VW553/V1_MQTT_OK/GD32VW55X_Wifi_BLE_SDK/GD32VW55x_RELEASE_V1.0.2/MSDK/wpa_supplicant/src/crypto\aes-internal-dec.c **** 				TD2_(TE4((rk[j] >>  8) & 0xff)) ^
 251              		.loc 1 50 5
 252 00e8 3298     		add	a6,a2,a6
  51:C:/Users/stapi/OneDrive/Desktop/GD32VW553/V1_MQTT_OK/GD32VW55X_Wifi_BLE_SDK/GD32VW55x_RELEASE_V1.0.2/MSDK/wpa_supplicant/src/crypto\aes-internal-dec.c **** 				TD3_(TE4((rk[j]      ) & 0xff));
 253              		.loc 1 51 5
 254 00ea 93F7C73F 		andi	a5,a5,1020
  50:C:/Users/stapi/OneDrive/Desktop/GD32VW553/V1_MQTT_OK/GD32VW55X_Wifi_BLE_SDK/GD32VW55x_RELEASE_V1.0.2/MSDK/wpa_supplicant/src/crypto\aes-internal-dec.c **** 				TD2_(TE4((rk[j] >>  8) & 0xff)) ^
 255              		.loc 1 50 5
 256 00ee 03481800 		lbu	a6,1(a6)
  51:C:/Users/stapi/OneDrive/Desktop/GD32VW553/V1_MQTT_OK/GD32VW55X_Wifi_BLE_SDK/GD32VW55x_RELEASE_V1.0.2/MSDK/wpa_supplicant/src/crypto\aes-internal-dec.c **** 				TD3_(TE4((rk[j]      ) & 0xff));
 257              		.loc 1 51 5
 258 00f2 B297     		add	a5,a2,a5
 259 00f4 83C71700 		lbu	a5,1(a5)
  50:C:/Users/stapi/OneDrive/Desktop/GD32VW553/V1_MQTT_OK/GD32VW55X_Wifi_BLE_SDK/GD32VW55x_RELEASE_V1.0.2/MSDK/wpa_supplicant/src/crypto\aes-internal-dec.c **** 				TD2_(TE4((rk[j] >>  8) & 0xff)) ^
 260              		.loc 1 50 5
 261 00f8 3348D820 		sh2add	a6,a6,a3
 262              	.LBB84:
 263              	.LBB78:
 264              		.loc 2 72 23
 265 00fc 03280800 		lw	a6,0(a6)
 266              	.LBE78:
 267              	.LBE84:
  51:C:/Users/stapi/OneDrive/Desktop/GD32VW553/V1_MQTT_OK/GD32VW55X_Wifi_BLE_SDK/GD32VW55x_RELEASE_V1.0.2/MSDK/wpa_supplicant/src/crypto\aes-internal-dec.c **** 				TD3_(TE4((rk[j]      ) & 0xff));
 268              		.loc 1 51 5
 269 0100 B3C7D720 		sh2add	a5,a5,a3
 270              	.LBB85:
 271              	.LBB74:
 272              		.loc 2 72 23
 273 0104 9C43     		lw	a5,0(a5)
 274              	.LBE74:
 275              	.LBE85:
 276              	.LBB86:
 277              	.LBB79:
 278 0106 13588860 		rori	a6,a6,8
 279              	.LBE79:
 280              	.LBE86:
  51:C:/Users/stapi/OneDrive/Desktop/GD32VW553/V1_MQTT_OK/GD32VW55X_Wifi_BLE_SDK/GD32VW55x_RELEASE_V1.0.2/MSDK/wpa_supplicant/src/crypto\aes-internal-dec.c **** 				TD3_(TE4((rk[j]      ) & 0xff));
 281              		.loc 1 51 37
 282 010a 33470701 		xor	a4,a4,a6
 283              	.LBB87:
 284              	.LBB75:
 285              		.loc 2 72 23
 286 010e B397D761 		rol	a5,a5,t4
 287              	.LBE75:
 288              	.LBE87:
  51:C:/Users/stapi/OneDrive/Desktop/GD32VW553/V1_MQTT_OK/GD32VW55X_Wifi_BLE_SDK/GD32VW55x_RELEASE_V1.0.2/MSDK/wpa_supplicant/src/crypto\aes-internal-dec.c **** 				TD3_(TE4((rk[j]      ) & 0xff));
 289              		.loc 1 51 37
 290 0112 B98F     		xor	a5,a4,a5
  49:C:/Users/stapi/OneDrive/Desktop/GD32VW553/V1_MQTT_OK/GD32VW55X_Wifi_BLE_SDK/GD32VW55x_RELEASE_V1.0.2/MSDK/wpa_supplicant/src/crypto\aes-internal-dec.c **** 				TD1_(TE4((rk[j] >> 16) & 0xff)) ^
 291              		.loc 1 49 10
 292 0114 9CC1     		sw	a5,0(a1)
  48:C:/Users/stapi/OneDrive/Desktop/GD32VW553/V1_MQTT_OK/GD32VW55X_Wifi_BLE_SDK/GD32VW55x_RELEASE_V1.0.2/MSDK/wpa_supplicant/src/crypto\aes-internal-dec.c **** 			rk[j] = TD0_(TE4((rk[j] >> 24)       )) ^
 293              		.loc 1 48 22 is_stmt 1
  48:C:/Users/stapi/OneDrive/Desktop/GD32VW553/V1_MQTT_OK/GD32VW55X_Wifi_BLE_SDK/GD32VW55x_RELEASE_V1.0.2/MSDK/wpa_supplicant/src/crypto\aes-internal-dec.c **** 			rk[j] = TD0_(TE4((rk[j] >> 24)       )) ^
 294              		.loc 1 48 15
  48:C:/Users/stapi/OneDrive/Desktop/GD32VW553/V1_MQTT_OK/GD32VW55X_Wifi_BLE_SDK/GD32VW55x_RELEASE_V1.0.2/MSDK/wpa_supplicant/src/crypto\aes-internal-dec.c **** 			rk[j] = TD0_(TE4((rk[j] >> 24)       )) ^
 295              		.loc 1 48 3 is_stmt 0
 296 0116 9105     		addi	a1,a1,4
 297 0118 E31BBFF8 		bne	t5,a1,.L7
  46:C:/Users/stapi/OneDrive/Desktop/GD32VW553/V1_MQTT_OK/GD32VW55X_Wifi_BLE_SDK/GD32VW55x_RELEASE_V1.0.2/MSDK/wpa_supplicant/src/crypto\aes-internal-dec.c **** 		rk += 4;
 298              		.loc 1 46 22 is_stmt 1
  46:C:/Users/stapi/OneDrive/Desktop/GD32VW553/V1_MQTT_OK/GD32VW55X_Wifi_BLE_SDK/GD32VW55x_RELEASE_V1.0.2/MSDK/wpa_supplicant/src/crypto\aes-internal-dec.c **** 		rk += 4;
 299              		.loc 1 46 23 is_stmt 0
 300 011c 0503     		addi	t1,t1,1
 301              	.LVL24:
 302 011e 3DBF     		j	.L6
 303              	.LVL25:
 304              	.L3:
 305              	.LBE88:
 306              	.LBE89:
  67:C:/Users/stapi/OneDrive/Desktop/GD32VW553/V1_MQTT_OK/GD32VW55X_Wifi_BLE_SDK/GD32VW55x_RELEASE_V1.0.2/MSDK/wpa_supplicant/src/crypto\aes-internal-dec.c **** 		os_free(rk);
 307              		.loc 1 67 2 is_stmt 1
  68:C:/Users/stapi/OneDrive/Desktop/GD32VW553/V1_MQTT_OK/GD32VW55X_Wifi_BLE_SDK/GD32VW55x_RELEASE_V1.0.2/MSDK/wpa_supplicant/src/crypto\aes-internal-dec.c **** 		return NULL;
 308              		.loc 1 68 3
 309 0120 2285     		mv	a0,s0
 310              	.LVL26:
 311 0122 97000000 		call	os_free
 311      E7800000 
 312              	.LVL27:
  69:C:/Users/stapi/OneDrive/Desktop/GD32VW553/V1_MQTT_OK/GD32VW55X_Wifi_BLE_SDK/GD32VW55x_RELEASE_V1.0.2/MSDK/wpa_supplicant/src/crypto\aes-internal-dec.c **** 	}
 313              		.loc 1 69 3
  69:C:/Users/stapi/OneDrive/Desktop/GD32VW553/V1_MQTT_OK/GD32VW55X_Wifi_BLE_SDK/GD32VW55x_RELEASE_V1.0.2/MSDK/wpa_supplicant/src/crypto\aes-internal-dec.c **** 	}
 314              		.loc 1 69 10 is_stmt 0
 315 012a 0144     		li	s0,0
 316              	.LVL28:
 317 012c 25BF     		j	.L1
 318              		.cfi_endproc
 319              	.LFE73:
 321              		.section	.text.aes_decrypt,"ax",@progbits
 322              		.align	1
 323              		.globl	aes_decrypt
 325              	aes_decrypt:
 326              	.LFB75:
  74:C:/Users/stapi/OneDrive/Desktop/GD32VW553/V1_MQTT_OK/GD32VW55X_Wifi_BLE_SDK/GD32VW55x_RELEASE_V1.0.2/MSDK/wpa_supplicant/src/crypto\aes-internal-dec.c **** 
  75:C:/Users/stapi/OneDrive/Desktop/GD32VW553/V1_MQTT_OK/GD32VW55X_Wifi_BLE_SDK/GD32VW55x_RELEASE_V1.0.2/MSDK/wpa_supplicant/src/crypto\aes-internal-dec.c **** static void rijndaelDecrypt(const u32 rk[/*44*/], int Nr, const u8 ct[16],
  76:C:/Users/stapi/OneDrive/Desktop/GD32VW553/V1_MQTT_OK/GD32VW55X_Wifi_BLE_SDK/GD32VW55x_RELEASE_V1.0.2/MSDK/wpa_supplicant/src/crypto\aes-internal-dec.c **** 			    u8 pt[16])
  77:C:/Users/stapi/OneDrive/Desktop/GD32VW553/V1_MQTT_OK/GD32VW55X_Wifi_BLE_SDK/GD32VW55x_RELEASE_V1.0.2/MSDK/wpa_supplicant/src/crypto\aes-internal-dec.c **** {
  78:C:/Users/stapi/OneDrive/Desktop/GD32VW553/V1_MQTT_OK/GD32VW55X_Wifi_BLE_SDK/GD32VW55x_RELEASE_V1.0.2/MSDK/wpa_supplicant/src/crypto\aes-internal-dec.c **** 	u32 s0, s1, s2, s3, t0, t1, t2, t3;
  79:C:/Users/stapi/OneDrive/Desktop/GD32VW553/V1_MQTT_OK/GD32VW55X_Wifi_BLE_SDK/GD32VW55x_RELEASE_V1.0.2/MSDK/wpa_supplicant/src/crypto\aes-internal-dec.c **** #ifndef FULL_UNROLL
  80:C:/Users/stapi/OneDrive/Desktop/GD32VW553/V1_MQTT_OK/GD32VW55X_Wifi_BLE_SDK/GD32VW55x_RELEASE_V1.0.2/MSDK/wpa_supplicant/src/crypto\aes-internal-dec.c **** 	int r;
  81:C:/Users/stapi/OneDrive/Desktop/GD32VW553/V1_MQTT_OK/GD32VW55X_Wifi_BLE_SDK/GD32VW55x_RELEASE_V1.0.2/MSDK/wpa_supplicant/src/crypto\aes-internal-dec.c **** #endif /* ?FULL_UNROLL */
  82:C:/Users/stapi/OneDrive/Desktop/GD32VW553/V1_MQTT_OK/GD32VW55X_Wifi_BLE_SDK/GD32VW55x_RELEASE_V1.0.2/MSDK/wpa_supplicant/src/crypto\aes-internal-dec.c **** 
  83:C:/Users/stapi/OneDrive/Desktop/GD32VW553/V1_MQTT_OK/GD32VW55X_Wifi_BLE_SDK/GD32VW55x_RELEASE_V1.0.2/MSDK/wpa_supplicant/src/crypto\aes-internal-dec.c **** 	/*
  84:C:/Users/stapi/OneDrive/Desktop/GD32VW553/V1_MQTT_OK/GD32VW55X_Wifi_BLE_SDK/GD32VW55x_RELEASE_V1.0.2/MSDK/wpa_supplicant/src/crypto\aes-internal-dec.c **** 	 * map byte array block to cipher state
  85:C:/Users/stapi/OneDrive/Desktop/GD32VW553/V1_MQTT_OK/GD32VW55X_Wifi_BLE_SDK/GD32VW55x_RELEASE_V1.0.2/MSDK/wpa_supplicant/src/crypto\aes-internal-dec.c **** 	 * and add initial round key:
  86:C:/Users/stapi/OneDrive/Desktop/GD32VW553/V1_MQTT_OK/GD32VW55X_Wifi_BLE_SDK/GD32VW55x_RELEASE_V1.0.2/MSDK/wpa_supplicant/src/crypto\aes-internal-dec.c **** 	 */
  87:C:/Users/stapi/OneDrive/Desktop/GD32VW553/V1_MQTT_OK/GD32VW55X_Wifi_BLE_SDK/GD32VW55x_RELEASE_V1.0.2/MSDK/wpa_supplicant/src/crypto\aes-internal-dec.c **** 	s0 = GETU32(ct     ) ^ rk[0];
  88:C:/Users/stapi/OneDrive/Desktop/GD32VW553/V1_MQTT_OK/GD32VW55X_Wifi_BLE_SDK/GD32VW55x_RELEASE_V1.0.2/MSDK/wpa_supplicant/src/crypto\aes-internal-dec.c **** 	s1 = GETU32(ct +  4) ^ rk[1];
  89:C:/Users/stapi/OneDrive/Desktop/GD32VW553/V1_MQTT_OK/GD32VW55X_Wifi_BLE_SDK/GD32VW55x_RELEASE_V1.0.2/MSDK/wpa_supplicant/src/crypto\aes-internal-dec.c **** 	s2 = GETU32(ct +  8) ^ rk[2];
  90:C:/Users/stapi/OneDrive/Desktop/GD32VW553/V1_MQTT_OK/GD32VW55X_Wifi_BLE_SDK/GD32VW55x_RELEASE_V1.0.2/MSDK/wpa_supplicant/src/crypto\aes-internal-dec.c **** 	s3 = GETU32(ct + 12) ^ rk[3];
  91:C:/Users/stapi/OneDrive/Desktop/GD32VW553/V1_MQTT_OK/GD32VW55X_Wifi_BLE_SDK/GD32VW55x_RELEASE_V1.0.2/MSDK/wpa_supplicant/src/crypto\aes-internal-dec.c **** 
  92:C:/Users/stapi/OneDrive/Desktop/GD32VW553/V1_MQTT_OK/GD32VW55X_Wifi_BLE_SDK/GD32VW55x_RELEASE_V1.0.2/MSDK/wpa_supplicant/src/crypto\aes-internal-dec.c **** #define ROUND(i,d,s) \
  93:C:/Users/stapi/OneDrive/Desktop/GD32VW553/V1_MQTT_OK/GD32VW55X_Wifi_BLE_SDK/GD32VW55x_RELEASE_V1.0.2/MSDK/wpa_supplicant/src/crypto\aes-internal-dec.c **** d##0 = TD0(s##0) ^ TD1(s##3) ^ TD2(s##2) ^ TD3(s##1) ^ rk[4 * i]; \
  94:C:/Users/stapi/OneDrive/Desktop/GD32VW553/V1_MQTT_OK/GD32VW55X_Wifi_BLE_SDK/GD32VW55x_RELEASE_V1.0.2/MSDK/wpa_supplicant/src/crypto\aes-internal-dec.c **** d##1 = TD0(s##1) ^ TD1(s##0) ^ TD2(s##3) ^ TD3(s##2) ^ rk[4 * i + 1]; \
  95:C:/Users/stapi/OneDrive/Desktop/GD32VW553/V1_MQTT_OK/GD32VW55X_Wifi_BLE_SDK/GD32VW55x_RELEASE_V1.0.2/MSDK/wpa_supplicant/src/crypto\aes-internal-dec.c **** d##2 = TD0(s##2) ^ TD1(s##1) ^ TD2(s##0) ^ TD3(s##3) ^ rk[4 * i + 2]; \
  96:C:/Users/stapi/OneDrive/Desktop/GD32VW553/V1_MQTT_OK/GD32VW55X_Wifi_BLE_SDK/GD32VW55x_RELEASE_V1.0.2/MSDK/wpa_supplicant/src/crypto\aes-internal-dec.c **** d##3 = TD0(s##3) ^ TD1(s##2) ^ TD2(s##1) ^ TD3(s##0) ^ rk[4 * i + 3]
  97:C:/Users/stapi/OneDrive/Desktop/GD32VW553/V1_MQTT_OK/GD32VW55X_Wifi_BLE_SDK/GD32VW55x_RELEASE_V1.0.2/MSDK/wpa_supplicant/src/crypto\aes-internal-dec.c **** 
  98:C:/Users/stapi/OneDrive/Desktop/GD32VW553/V1_MQTT_OK/GD32VW55X_Wifi_BLE_SDK/GD32VW55x_RELEASE_V1.0.2/MSDK/wpa_supplicant/src/crypto\aes-internal-dec.c **** #ifdef FULL_UNROLL
  99:C:/Users/stapi/OneDrive/Desktop/GD32VW553/V1_MQTT_OK/GD32VW55X_Wifi_BLE_SDK/GD32VW55x_RELEASE_V1.0.2/MSDK/wpa_supplicant/src/crypto\aes-internal-dec.c **** 
 100:C:/Users/stapi/OneDrive/Desktop/GD32VW553/V1_MQTT_OK/GD32VW55X_Wifi_BLE_SDK/GD32VW55x_RELEASE_V1.0.2/MSDK/wpa_supplicant/src/crypto\aes-internal-dec.c **** 	ROUND(1,t,s);
 101:C:/Users/stapi/OneDrive/Desktop/GD32VW553/V1_MQTT_OK/GD32VW55X_Wifi_BLE_SDK/GD32VW55x_RELEASE_V1.0.2/MSDK/wpa_supplicant/src/crypto\aes-internal-dec.c **** 	ROUND(2,s,t);
 102:C:/Users/stapi/OneDrive/Desktop/GD32VW553/V1_MQTT_OK/GD32VW55X_Wifi_BLE_SDK/GD32VW55x_RELEASE_V1.0.2/MSDK/wpa_supplicant/src/crypto\aes-internal-dec.c **** 	ROUND(3,t,s);
 103:C:/Users/stapi/OneDrive/Desktop/GD32VW553/V1_MQTT_OK/GD32VW55X_Wifi_BLE_SDK/GD32VW55x_RELEASE_V1.0.2/MSDK/wpa_supplicant/src/crypto\aes-internal-dec.c **** 	ROUND(4,s,t);
 104:C:/Users/stapi/OneDrive/Desktop/GD32VW553/V1_MQTT_OK/GD32VW55X_Wifi_BLE_SDK/GD32VW55x_RELEASE_V1.0.2/MSDK/wpa_supplicant/src/crypto\aes-internal-dec.c **** 	ROUND(5,t,s);
 105:C:/Users/stapi/OneDrive/Desktop/GD32VW553/V1_MQTT_OK/GD32VW55X_Wifi_BLE_SDK/GD32VW55x_RELEASE_V1.0.2/MSDK/wpa_supplicant/src/crypto\aes-internal-dec.c **** 	ROUND(6,s,t);
 106:C:/Users/stapi/OneDrive/Desktop/GD32VW553/V1_MQTT_OK/GD32VW55X_Wifi_BLE_SDK/GD32VW55x_RELEASE_V1.0.2/MSDK/wpa_supplicant/src/crypto\aes-internal-dec.c **** 	ROUND(7,t,s);
 107:C:/Users/stapi/OneDrive/Desktop/GD32VW553/V1_MQTT_OK/GD32VW55X_Wifi_BLE_SDK/GD32VW55x_RELEASE_V1.0.2/MSDK/wpa_supplicant/src/crypto\aes-internal-dec.c **** 	ROUND(8,s,t);
 108:C:/Users/stapi/OneDrive/Desktop/GD32VW553/V1_MQTT_OK/GD32VW55X_Wifi_BLE_SDK/GD32VW55x_RELEASE_V1.0.2/MSDK/wpa_supplicant/src/crypto\aes-internal-dec.c **** 	ROUND(9,t,s);
 109:C:/Users/stapi/OneDrive/Desktop/GD32VW553/V1_MQTT_OK/GD32VW55X_Wifi_BLE_SDK/GD32VW55x_RELEASE_V1.0.2/MSDK/wpa_supplicant/src/crypto\aes-internal-dec.c **** 	if (Nr > 10) {
 110:C:/Users/stapi/OneDrive/Desktop/GD32VW553/V1_MQTT_OK/GD32VW55X_Wifi_BLE_SDK/GD32VW55x_RELEASE_V1.0.2/MSDK/wpa_supplicant/src/crypto\aes-internal-dec.c **** 		ROUND(10,s,t);
 111:C:/Users/stapi/OneDrive/Desktop/GD32VW553/V1_MQTT_OK/GD32VW55X_Wifi_BLE_SDK/GD32VW55x_RELEASE_V1.0.2/MSDK/wpa_supplicant/src/crypto\aes-internal-dec.c **** 		ROUND(11,t,s);
 112:C:/Users/stapi/OneDrive/Desktop/GD32VW553/V1_MQTT_OK/GD32VW55X_Wifi_BLE_SDK/GD32VW55x_RELEASE_V1.0.2/MSDK/wpa_supplicant/src/crypto\aes-internal-dec.c **** 		if (Nr > 12) {
 113:C:/Users/stapi/OneDrive/Desktop/GD32VW553/V1_MQTT_OK/GD32VW55X_Wifi_BLE_SDK/GD32VW55x_RELEASE_V1.0.2/MSDK/wpa_supplicant/src/crypto\aes-internal-dec.c **** 			ROUND(12,s,t);
 114:C:/Users/stapi/OneDrive/Desktop/GD32VW553/V1_MQTT_OK/GD32VW55X_Wifi_BLE_SDK/GD32VW55x_RELEASE_V1.0.2/MSDK/wpa_supplicant/src/crypto\aes-internal-dec.c **** 			ROUND(13,t,s);
 115:C:/Users/stapi/OneDrive/Desktop/GD32VW553/V1_MQTT_OK/GD32VW55X_Wifi_BLE_SDK/GD32VW55x_RELEASE_V1.0.2/MSDK/wpa_supplicant/src/crypto\aes-internal-dec.c **** 		}
 116:C:/Users/stapi/OneDrive/Desktop/GD32VW553/V1_MQTT_OK/GD32VW55X_Wifi_BLE_SDK/GD32VW55x_RELEASE_V1.0.2/MSDK/wpa_supplicant/src/crypto\aes-internal-dec.c **** 	}
 117:C:/Users/stapi/OneDrive/Desktop/GD32VW553/V1_MQTT_OK/GD32VW55X_Wifi_BLE_SDK/GD32VW55x_RELEASE_V1.0.2/MSDK/wpa_supplicant/src/crypto\aes-internal-dec.c **** 
 118:C:/Users/stapi/OneDrive/Desktop/GD32VW553/V1_MQTT_OK/GD32VW55X_Wifi_BLE_SDK/GD32VW55x_RELEASE_V1.0.2/MSDK/wpa_supplicant/src/crypto\aes-internal-dec.c **** 	rk += Nr << 2;
 119:C:/Users/stapi/OneDrive/Desktop/GD32VW553/V1_MQTT_OK/GD32VW55X_Wifi_BLE_SDK/GD32VW55x_RELEASE_V1.0.2/MSDK/wpa_supplicant/src/crypto\aes-internal-dec.c **** 
 120:C:/Users/stapi/OneDrive/Desktop/GD32VW553/V1_MQTT_OK/GD32VW55X_Wifi_BLE_SDK/GD32VW55x_RELEASE_V1.0.2/MSDK/wpa_supplicant/src/crypto\aes-internal-dec.c **** #else  /* !FULL_UNROLL */
 121:C:/Users/stapi/OneDrive/Desktop/GD32VW553/V1_MQTT_OK/GD32VW55X_Wifi_BLE_SDK/GD32VW55x_RELEASE_V1.0.2/MSDK/wpa_supplicant/src/crypto\aes-internal-dec.c **** 
 122:C:/Users/stapi/OneDrive/Desktop/GD32VW553/V1_MQTT_OK/GD32VW55X_Wifi_BLE_SDK/GD32VW55x_RELEASE_V1.0.2/MSDK/wpa_supplicant/src/crypto\aes-internal-dec.c **** 	/* Nr - 1 full rounds: */
 123:C:/Users/stapi/OneDrive/Desktop/GD32VW553/V1_MQTT_OK/GD32VW55X_Wifi_BLE_SDK/GD32VW55x_RELEASE_V1.0.2/MSDK/wpa_supplicant/src/crypto\aes-internal-dec.c **** 	r = Nr >> 1;
 124:C:/Users/stapi/OneDrive/Desktop/GD32VW553/V1_MQTT_OK/GD32VW55X_Wifi_BLE_SDK/GD32VW55x_RELEASE_V1.0.2/MSDK/wpa_supplicant/src/crypto\aes-internal-dec.c **** 	for (;;) {
 125:C:/Users/stapi/OneDrive/Desktop/GD32VW553/V1_MQTT_OK/GD32VW55X_Wifi_BLE_SDK/GD32VW55x_RELEASE_V1.0.2/MSDK/wpa_supplicant/src/crypto\aes-internal-dec.c **** 		ROUND(1,t,s);
 126:C:/Users/stapi/OneDrive/Desktop/GD32VW553/V1_MQTT_OK/GD32VW55X_Wifi_BLE_SDK/GD32VW55x_RELEASE_V1.0.2/MSDK/wpa_supplicant/src/crypto\aes-internal-dec.c **** 		rk += 8;
 127:C:/Users/stapi/OneDrive/Desktop/GD32VW553/V1_MQTT_OK/GD32VW55X_Wifi_BLE_SDK/GD32VW55x_RELEASE_V1.0.2/MSDK/wpa_supplicant/src/crypto\aes-internal-dec.c **** 		if (--r == 0)
 128:C:/Users/stapi/OneDrive/Desktop/GD32VW553/V1_MQTT_OK/GD32VW55X_Wifi_BLE_SDK/GD32VW55x_RELEASE_V1.0.2/MSDK/wpa_supplicant/src/crypto\aes-internal-dec.c **** 			break;
 129:C:/Users/stapi/OneDrive/Desktop/GD32VW553/V1_MQTT_OK/GD32VW55X_Wifi_BLE_SDK/GD32VW55x_RELEASE_V1.0.2/MSDK/wpa_supplicant/src/crypto\aes-internal-dec.c **** 		ROUND(0,s,t);
 130:C:/Users/stapi/OneDrive/Desktop/GD32VW553/V1_MQTT_OK/GD32VW55X_Wifi_BLE_SDK/GD32VW55x_RELEASE_V1.0.2/MSDK/wpa_supplicant/src/crypto\aes-internal-dec.c **** 	}
 131:C:/Users/stapi/OneDrive/Desktop/GD32VW553/V1_MQTT_OK/GD32VW55X_Wifi_BLE_SDK/GD32VW55x_RELEASE_V1.0.2/MSDK/wpa_supplicant/src/crypto\aes-internal-dec.c **** 
 132:C:/Users/stapi/OneDrive/Desktop/GD32VW553/V1_MQTT_OK/GD32VW55X_Wifi_BLE_SDK/GD32VW55x_RELEASE_V1.0.2/MSDK/wpa_supplicant/src/crypto\aes-internal-dec.c **** #endif /* ?FULL_UNROLL */
 133:C:/Users/stapi/OneDrive/Desktop/GD32VW553/V1_MQTT_OK/GD32VW55X_Wifi_BLE_SDK/GD32VW55x_RELEASE_V1.0.2/MSDK/wpa_supplicant/src/crypto\aes-internal-dec.c **** 
 134:C:/Users/stapi/OneDrive/Desktop/GD32VW553/V1_MQTT_OK/GD32VW55X_Wifi_BLE_SDK/GD32VW55x_RELEASE_V1.0.2/MSDK/wpa_supplicant/src/crypto\aes-internal-dec.c **** #undef ROUND
 135:C:/Users/stapi/OneDrive/Desktop/GD32VW553/V1_MQTT_OK/GD32VW55X_Wifi_BLE_SDK/GD32VW55x_RELEASE_V1.0.2/MSDK/wpa_supplicant/src/crypto\aes-internal-dec.c **** 
 136:C:/Users/stapi/OneDrive/Desktop/GD32VW553/V1_MQTT_OK/GD32VW55X_Wifi_BLE_SDK/GD32VW55x_RELEASE_V1.0.2/MSDK/wpa_supplicant/src/crypto\aes-internal-dec.c **** 	/*
 137:C:/Users/stapi/OneDrive/Desktop/GD32VW553/V1_MQTT_OK/GD32VW55X_Wifi_BLE_SDK/GD32VW55x_RELEASE_V1.0.2/MSDK/wpa_supplicant/src/crypto\aes-internal-dec.c **** 	 * apply last round and
 138:C:/Users/stapi/OneDrive/Desktop/GD32VW553/V1_MQTT_OK/GD32VW55X_Wifi_BLE_SDK/GD32VW55x_RELEASE_V1.0.2/MSDK/wpa_supplicant/src/crypto\aes-internal-dec.c **** 	 * map cipher state to byte array block:
 139:C:/Users/stapi/OneDrive/Desktop/GD32VW553/V1_MQTT_OK/GD32VW55X_Wifi_BLE_SDK/GD32VW55x_RELEASE_V1.0.2/MSDK/wpa_supplicant/src/crypto\aes-internal-dec.c **** 	 */
 140:C:/Users/stapi/OneDrive/Desktop/GD32VW553/V1_MQTT_OK/GD32VW55X_Wifi_BLE_SDK/GD32VW55x_RELEASE_V1.0.2/MSDK/wpa_supplicant/src/crypto\aes-internal-dec.c **** 	s0 = TD41(t0) ^ TD42(t3) ^ TD43(t2) ^ TD44(t1) ^ rk[0];
 141:C:/Users/stapi/OneDrive/Desktop/GD32VW553/V1_MQTT_OK/GD32VW55X_Wifi_BLE_SDK/GD32VW55x_RELEASE_V1.0.2/MSDK/wpa_supplicant/src/crypto\aes-internal-dec.c **** 	PUTU32(pt     , s0);
 142:C:/Users/stapi/OneDrive/Desktop/GD32VW553/V1_MQTT_OK/GD32VW55X_Wifi_BLE_SDK/GD32VW55x_RELEASE_V1.0.2/MSDK/wpa_supplicant/src/crypto\aes-internal-dec.c **** 	s1 = TD41(t1) ^ TD42(t0) ^ TD43(t3) ^ TD44(t2) ^ rk[1];
 143:C:/Users/stapi/OneDrive/Desktop/GD32VW553/V1_MQTT_OK/GD32VW55X_Wifi_BLE_SDK/GD32VW55x_RELEASE_V1.0.2/MSDK/wpa_supplicant/src/crypto\aes-internal-dec.c **** 	PUTU32(pt +  4, s1);
 144:C:/Users/stapi/OneDrive/Desktop/GD32VW553/V1_MQTT_OK/GD32VW55X_Wifi_BLE_SDK/GD32VW55x_RELEASE_V1.0.2/MSDK/wpa_supplicant/src/crypto\aes-internal-dec.c **** 	s2 = TD41(t2) ^ TD42(t1) ^ TD43(t0) ^ TD44(t3) ^ rk[2];
 145:C:/Users/stapi/OneDrive/Desktop/GD32VW553/V1_MQTT_OK/GD32VW55X_Wifi_BLE_SDK/GD32VW55x_RELEASE_V1.0.2/MSDK/wpa_supplicant/src/crypto\aes-internal-dec.c **** 	PUTU32(pt +  8, s2);
 146:C:/Users/stapi/OneDrive/Desktop/GD32VW553/V1_MQTT_OK/GD32VW55X_Wifi_BLE_SDK/GD32VW55x_RELEASE_V1.0.2/MSDK/wpa_supplicant/src/crypto\aes-internal-dec.c **** 	s3 = TD41(t3) ^ TD42(t2) ^ TD43(t1) ^ TD44(t0) ^ rk[3];
 147:C:/Users/stapi/OneDrive/Desktop/GD32VW553/V1_MQTT_OK/GD32VW55X_Wifi_BLE_SDK/GD32VW55x_RELEASE_V1.0.2/MSDK/wpa_supplicant/src/crypto\aes-internal-dec.c **** 	PUTU32(pt + 12, s3);
 148:C:/Users/stapi/OneDrive/Desktop/GD32VW553/V1_MQTT_OK/GD32VW55X_Wifi_BLE_SDK/GD32VW55x_RELEASE_V1.0.2/MSDK/wpa_supplicant/src/crypto\aes-internal-dec.c **** }
 149:C:/Users/stapi/OneDrive/Desktop/GD32VW553/V1_MQTT_OK/GD32VW55X_Wifi_BLE_SDK/GD32VW55x_RELEASE_V1.0.2/MSDK/wpa_supplicant/src/crypto\aes-internal-dec.c **** 
 150:C:/Users/stapi/OneDrive/Desktop/GD32VW553/V1_MQTT_OK/GD32VW55X_Wifi_BLE_SDK/GD32VW55x_RELEASE_V1.0.2/MSDK/wpa_supplicant/src/crypto\aes-internal-dec.c **** 
 151:C:/Users/stapi/OneDrive/Desktop/GD32VW553/V1_MQTT_OK/GD32VW55X_Wifi_BLE_SDK/GD32VW55x_RELEASE_V1.0.2/MSDK/wpa_supplicant/src/crypto\aes-internal-dec.c **** int aes_decrypt(void *ctx, const u8 *crypt, u8 *plain)
 152:C:/Users/stapi/OneDrive/Desktop/GD32VW553/V1_MQTT_OK/GD32VW55X_Wifi_BLE_SDK/GD32VW55x_RELEASE_V1.0.2/MSDK/wpa_supplicant/src/crypto\aes-internal-dec.c **** {
 327              		.loc 1 152 1 is_stmt 1
 328              		.cfi_startproc
 329              	.LVL29:
 330 0000 17030000 		call	t0,__riscv_save_10
 330      E7020300 
 331              		.cfi_offset 25, -44
 332              		.cfi_offset 24, -40
 333              		.cfi_offset 23, -36
 334              		.cfi_offset 22, -32
 335              		.cfi_offset 21, -28
 336              		.cfi_offset 20, -24
 337              		.cfi_offset 19, -20
 338              		.cfi_offset 18, -16
 339              		.cfi_offset 9, -12
 340              		.cfi_offset 8, -8
 341              		.cfi_def_cfa_offset 48
 153:C:/Users/stapi/OneDrive/Desktop/GD32VW553/V1_MQTT_OK/GD32VW55X_Wifi_BLE_SDK/GD32VW55x_RELEASE_V1.0.2/MSDK/wpa_supplicant/src/crypto\aes-internal-dec.c **** 	u32 *rk = ctx;
 342              		.loc 1 153 2
 343              	.LVL30:
 154:C:/Users/stapi/OneDrive/Desktop/GD32VW553/V1_MQTT_OK/GD32VW55X_Wifi_BLE_SDK/GD32VW55x_RELEASE_V1.0.2/MSDK/wpa_supplicant/src/crypto\aes-internal-dec.c **** 	rijndaelDecrypt(ctx, rk[AES_PRIV_NR_POS], crypt, plain);
 344              		.loc 1 154 2
 345              	.LBB140:
 346              	.LBB141:
  78:C:/Users/stapi/OneDrive/Desktop/GD32VW553/V1_MQTT_OK/GD32VW55X_Wifi_BLE_SDK/GD32VW55x_RELEASE_V1.0.2/MSDK/wpa_supplicant/src/crypto\aes-internal-dec.c **** #ifndef FULL_UNROLL
 347              		.loc 1 78 2
  80:C:/Users/stapi/OneDrive/Desktop/GD32VW553/V1_MQTT_OK/GD32VW55X_Wifi_BLE_SDK/GD32VW55x_RELEASE_V1.0.2/MSDK/wpa_supplicant/src/crypto\aes-internal-dec.c **** #endif /* ?FULL_UNROLL */
 348              		.loc 1 80 2
  87:C:/Users/stapi/OneDrive/Desktop/GD32VW553/V1_MQTT_OK/GD32VW55X_Wifi_BLE_SDK/GD32VW55x_RELEASE_V1.0.2/MSDK/wpa_supplicant/src/crypto\aes-internal-dec.c **** 	s1 = GETU32(ct +  4) ^ rk[1];
 349              		.loc 1 87 2
  87:C:/Users/stapi/OneDrive/Desktop/GD32VW553/V1_MQTT_OK/GD32VW55X_Wifi_BLE_SDK/GD32VW55x_RELEASE_V1.0.2/MSDK/wpa_supplicant/src/crypto\aes-internal-dec.c **** 	s1 = GETU32(ct +  4) ^ rk[1];
 350              		.loc 1 87 7 is_stmt 0
 351 0008 83CC0500 		lbu	s9,0(a1)
 352 000c 83C71500 		lbu	a5,1(a1)
  88:C:/Users/stapi/OneDrive/Desktop/GD32VW553/V1_MQTT_OK/GD32VW55X_Wifi_BLE_SDK/GD32VW55x_RELEASE_V1.0.2/MSDK/wpa_supplicant/src/crypto\aes-internal-dec.c **** 	s2 = GETU32(ct +  8) ^ rk[2];
 353              		.loc 1 88 7
 354 0010 83C64500 		lbu	a3,4(a1)
  87:C:/Users/stapi/OneDrive/Desktop/GD32VW553/V1_MQTT_OK/GD32VW55X_Wifi_BLE_SDK/GD32VW55x_RELEASE_V1.0.2/MSDK/wpa_supplicant/src/crypto\aes-internal-dec.c **** 	s1 = GETU32(ct +  4) ^ rk[1];
 355              		.loc 1 87 7
 356 0014 E20C     		slli	s9,s9,24
 357 0016 C207     		slli	a5,a5,16
 358 0018 B3CCFC00 		xor	s9,s9,a5
 359 001c 83C73500 		lbu	a5,3(a1)
  88:C:/Users/stapi/OneDrive/Desktop/GD32VW553/V1_MQTT_OK/GD32VW55X_Wifi_BLE_SDK/GD32VW55x_RELEASE_V1.0.2/MSDK/wpa_supplicant/src/crypto\aes-internal-dec.c **** 	s2 = GETU32(ct +  8) ^ rk[2];
 360              		.loc 1 88 7
 361 0020 E206     		slli	a3,a3,24
  89:C:/Users/stapi/OneDrive/Desktop/GD32VW553/V1_MQTT_OK/GD32VW55X_Wifi_BLE_SDK/GD32VW55x_RELEASE_V1.0.2/MSDK/wpa_supplicant/src/crypto\aes-internal-dec.c **** 	s3 = GETU32(ct + 12) ^ rk[3];
 362              		.loc 1 89 7
 363 0022 03C78500 		lbu	a4,8(a1)
  87:C:/Users/stapi/OneDrive/Desktop/GD32VW553/V1_MQTT_OK/GD32VW55X_Wifi_BLE_SDK/GD32VW55x_RELEASE_V1.0.2/MSDK/wpa_supplicant/src/crypto\aes-internal-dec.c **** 	s1 = GETU32(ct +  4) ^ rk[1];
 364              		.loc 1 87 7
 365 0026 B3CCFC00 		xor	s9,s9,a5
 366 002a 83C72500 		lbu	a5,2(a1)
  89:C:/Users/stapi/OneDrive/Desktop/GD32VW553/V1_MQTT_OK/GD32VW55X_Wifi_BLE_SDK/GD32VW55x_RELEASE_V1.0.2/MSDK/wpa_supplicant/src/crypto\aes-internal-dec.c **** 	s3 = GETU32(ct + 12) ^ rk[3];
 367              		.loc 1 89 7
 368 002e 6207     		slli	a4,a4,24
  90:C:/Users/stapi/OneDrive/Desktop/GD32VW553/V1_MQTT_OK/GD32VW55X_Wifi_BLE_SDK/GD32VW55x_RELEASE_V1.0.2/MSDK/wpa_supplicant/src/crypto\aes-internal-dec.c **** 
 369              		.loc 1 90 7
 370 0030 03C8D500 		lbu	a6,13(a1)
  87:C:/Users/stapi/OneDrive/Desktop/GD32VW553/V1_MQTT_OK/GD32VW55X_Wifi_BLE_SDK/GD32VW55x_RELEASE_V1.0.2/MSDK/wpa_supplicant/src/crypto\aes-internal-dec.c **** 	s1 = GETU32(ct +  4) ^ rk[1];
 371              		.loc 1 87 7
 372 0034 A207     		slli	a5,a5,8
 373 0036 B3CCFC00 		xor	s9,s9,a5
  87:C:/Users/stapi/OneDrive/Desktop/GD32VW553/V1_MQTT_OK/GD32VW55X_Wifi_BLE_SDK/GD32VW55x_RELEASE_V1.0.2/MSDK/wpa_supplicant/src/crypto\aes-internal-dec.c **** 	s1 = GETU32(ct +  4) ^ rk[1];
 374              		.loc 1 87 5
 375 003a 1C41     		lw	a5,0(a0)
  90:C:/Users/stapi/OneDrive/Desktop/GD32VW553/V1_MQTT_OK/GD32VW55X_Wifi_BLE_SDK/GD32VW55x_RELEASE_V1.0.2/MSDK/wpa_supplicant/src/crypto\aes-internal-dec.c **** 
 376              		.loc 1 90 7
 377 003c 4208     		slli	a6,a6,16
 123:C:/Users/stapi/OneDrive/Desktop/GD32VW553/V1_MQTT_OK/GD32VW55X_Wifi_BLE_SDK/GD32VW55x_RELEASE_V1.0.2/MSDK/wpa_supplicant/src/crypto\aes-internal-dec.c **** 	for (;;) {
 378              		.loc 1 123 4
 379 003e 032E050F 		lw	t3,240(a0)
  87:C:/Users/stapi/OneDrive/Desktop/GD32VW553/V1_MQTT_OK/GD32VW55X_Wifi_BLE_SDK/GD32VW55x_RELEASE_V1.0.2/MSDK/wpa_supplicant/src/crypto\aes-internal-dec.c **** 	s1 = GETU32(ct +  4) ^ rk[1];
 380              		.loc 1 87 5
 381 0042 B3CCFC00 		xor	s9,s9,a5
 382              	.LVL31:
  88:C:/Users/stapi/OneDrive/Desktop/GD32VW553/V1_MQTT_OK/GD32VW55X_Wifi_BLE_SDK/GD32VW55x_RELEASE_V1.0.2/MSDK/wpa_supplicant/src/crypto\aes-internal-dec.c **** 	s2 = GETU32(ct +  8) ^ rk[2];
 383              		.loc 1 88 2 is_stmt 1
  88:C:/Users/stapi/OneDrive/Desktop/GD32VW553/V1_MQTT_OK/GD32VW55X_Wifi_BLE_SDK/GD32VW55x_RELEASE_V1.0.2/MSDK/wpa_supplicant/src/crypto\aes-internal-dec.c **** 	s2 = GETU32(ct +  8) ^ rk[2];
 384              		.loc 1 88 7 is_stmt 0
 385 0046 83C75500 		lbu	a5,5(a1)
 123:C:/Users/stapi/OneDrive/Desktop/GD32VW553/V1_MQTT_OK/GD32VW55X_Wifi_BLE_SDK/GD32VW55x_RELEASE_V1.0.2/MSDK/wpa_supplicant/src/crypto\aes-internal-dec.c **** 	for (;;) {
 386              		.loc 1 123 4
 387 004a 135E1E40 		srai	t3,t3,1
 388 004e 728B     		mv	s6,t3
  88:C:/Users/stapi/OneDrive/Desktop/GD32VW553/V1_MQTT_OK/GD32VW55X_Wifi_BLE_SDK/GD32VW55x_RELEASE_V1.0.2/MSDK/wpa_supplicant/src/crypto\aes-internal-dec.c **** 	s2 = GETU32(ct +  8) ^ rk[2];
 389              		.loc 1 88 7
 390 0050 C207     		slli	a5,a5,16
 391 0052 BD8E     		xor	a3,a3,a5
 392 0054 83C77500 		lbu	a5,7(a1)
 123:C:/Users/stapi/OneDrive/Desktop/GD32VW553/V1_MQTT_OK/GD32VW55X_Wifi_BLE_SDK/GD32VW55x_RELEASE_V1.0.2/MSDK/wpa_supplicant/src/crypto\aes-internal-dec.c **** 	for (;;) {
 393              		.loc 1 123 4
 394 0058 AA8E     		mv	t4,a0
 395              	.LBB142:
 396              	.LBB143:
 397              		.loc 2 72 23
 398 005a A144     		li	s1,8
 399              	.LBE143:
 400              	.LBE142:
  88:C:/Users/stapi/OneDrive/Desktop/GD32VW553/V1_MQTT_OK/GD32VW55X_Wifi_BLE_SDK/GD32VW55x_RELEASE_V1.0.2/MSDK/wpa_supplicant/src/crypto\aes-internal-dec.c **** 	s2 = GETU32(ct +  8) ^ rk[2];
 401              		.loc 1 88 7
 402 005c BD8E     		xor	a3,a3,a5
 403 005e 83C76500 		lbu	a5,6(a1)
 404              	.LBB147:
 405              	.LBB148:
 406              		.loc 2 72 23
 407 0062 4144     		li	s0,16
 408              	.LBE148:
 409              	.LBE147:
  88:C:/Users/stapi/OneDrive/Desktop/GD32VW553/V1_MQTT_OK/GD32VW55X_Wifi_BLE_SDK/GD32VW55x_RELEASE_V1.0.2/MSDK/wpa_supplicant/src/crypto\aes-internal-dec.c **** 	s2 = GETU32(ct +  8) ^ rk[2];
 410              		.loc 1 88 7
 411 0064 A207     		slli	a5,a5,8
 412 0066 BD8E     		xor	a3,a3,a5
  88:C:/Users/stapi/OneDrive/Desktop/GD32VW553/V1_MQTT_OK/GD32VW55X_Wifi_BLE_SDK/GD32VW55x_RELEASE_V1.0.2/MSDK/wpa_supplicant/src/crypto\aes-internal-dec.c **** 	s2 = GETU32(ct +  8) ^ rk[2];
 413              		.loc 1 88 5
 414 0068 5C41     		lw	a5,4(a0)
 415 006a BD8E     		xor	a3,a3,a5
 416              	.LVL32:
  89:C:/Users/stapi/OneDrive/Desktop/GD32VW553/V1_MQTT_OK/GD32VW55X_Wifi_BLE_SDK/GD32VW55x_RELEASE_V1.0.2/MSDK/wpa_supplicant/src/crypto\aes-internal-dec.c **** 	s3 = GETU32(ct + 12) ^ rk[3];
 417              		.loc 1 89 2 is_stmt 1
  89:C:/Users/stapi/OneDrive/Desktop/GD32VW553/V1_MQTT_OK/GD32VW55X_Wifi_BLE_SDK/GD32VW55x_RELEASE_V1.0.2/MSDK/wpa_supplicant/src/crypto\aes-internal-dec.c **** 	s3 = GETU32(ct + 12) ^ rk[3];
 418              		.loc 1 89 7 is_stmt 0
 419 006c 83C79500 		lbu	a5,9(a1)
 420 0070 C207     		slli	a5,a5,16
 421 0072 3D8F     		xor	a4,a4,a5
 422 0074 83C7B500 		lbu	a5,11(a1)
 423 0078 3D8F     		xor	a4,a4,a5
 424 007a 83C7A500 		lbu	a5,10(a1)
 425 007e A207     		slli	a5,a5,8
 426 0080 3D8F     		xor	a4,a4,a5
  89:C:/Users/stapi/OneDrive/Desktop/GD32VW553/V1_MQTT_OK/GD32VW55X_Wifi_BLE_SDK/GD32VW55x_RELEASE_V1.0.2/MSDK/wpa_supplicant/src/crypto\aes-internal-dec.c **** 	s3 = GETU32(ct + 12) ^ rk[3];
 427              		.loc 1 89 5
 428 0082 1C45     		lw	a5,8(a0)
 429 0084 3D8F     		xor	a4,a4,a5
 430              	.LVL33:
  90:C:/Users/stapi/OneDrive/Desktop/GD32VW553/V1_MQTT_OK/GD32VW55X_Wifi_BLE_SDK/GD32VW55x_RELEASE_V1.0.2/MSDK/wpa_supplicant/src/crypto\aes-internal-dec.c **** 
 431              		.loc 1 90 2 is_stmt 1
  90:C:/Users/stapi/OneDrive/Desktop/GD32VW553/V1_MQTT_OK/GD32VW55X_Wifi_BLE_SDK/GD32VW55x_RELEASE_V1.0.2/MSDK/wpa_supplicant/src/crypto\aes-internal-dec.c **** 
 432              		.loc 1 90 7 is_stmt 0
 433 0086 83C7C500 		lbu	a5,12(a1)
 434 008a E207     		slli	a5,a5,24
 435 008c B3C70701 		xor	a5,a5,a6
 436 0090 03C8F500 		lbu	a6,15(a1)
 437 0094 83C5E500 		lbu	a1,14(a1)
 438              	.LVL34:
 439 0098 B3C70701 		xor	a5,a5,a6
 440 009c A205     		slli	a1,a1,8
 441 009e BD8D     		xor	a1,a5,a1
  90:C:/Users/stapi/OneDrive/Desktop/GD32VW553/V1_MQTT_OK/GD32VW55X_Wifi_BLE_SDK/GD32VW55x_RELEASE_V1.0.2/MSDK/wpa_supplicant/src/crypto\aes-internal-dec.c **** 
 442              		.loc 1 90 5
 443 00a0 5C45     		lw	a5,12(a0)
 444 00a2 BD8D     		xor	a1,a1,a5
 445              	.LVL35:
 123:C:/Users/stapi/OneDrive/Desktop/GD32VW553/V1_MQTT_OK/GD32VW55X_Wifi_BLE_SDK/GD32VW55x_RELEASE_V1.0.2/MSDK/wpa_supplicant/src/crypto\aes-internal-dec.c **** 	for (;;) {
 446              		.loc 1 123 2 is_stmt 1
 125:C:/Users/stapi/OneDrive/Desktop/GD32VW553/V1_MQTT_OK/GD32VW55X_Wifi_BLE_SDK/GD32VW55x_RELEASE_V1.0.2/MSDK/wpa_supplicant/src/crypto\aes-internal-dec.c **** 		rk += 8;
 447              		.loc 1 125 3 is_stmt 0
 448 00a4 B7070000 		lui	a5,%hi(Td0)
 449 00a8 93870700 		addi	a5,a5,%lo(Td0)
 450              	.LVL36:
 451              	.L17:
 124:C:/Users/stapi/OneDrive/Desktop/GD32VW553/V1_MQTT_OK/GD32VW55X_Wifi_BLE_SDK/GD32VW55x_RELEASE_V1.0.2/MSDK/wpa_supplicant/src/crypto\aes-internal-dec.c **** 		ROUND(1,t,s);
 452              		.loc 1 124 2 is_stmt 1
 125:C:/Users/stapi/OneDrive/Desktop/GD32VW553/V1_MQTT_OK/GD32VW55X_Wifi_BLE_SDK/GD32VW55x_RELEASE_V1.0.2/MSDK/wpa_supplicant/src/crypto\aes-internal-dec.c **** 		rk += 8;
 453              		.loc 1 125 3
 454              	.LBB151:
 455              	.LBB152:
 456              		.loc 2 72 2
 457              	.LBE152:
 458              	.LBE151:
 459              	.LBB154:
 460              	.LBB149:
 461              		.loc 2 72 2
 462              	.LBE149:
 463              	.LBE154:
 464              	.LBB155:
 465              	.LBB144:
 466              		.loc 2 72 2
 467              	.LBE144:
 468              	.LBE155:
 125:C:/Users/stapi/OneDrive/Desktop/GD32VW553/V1_MQTT_OK/GD32VW55X_Wifi_BLE_SDK/GD32VW55x_RELEASE_V1.0.2/MSDK/wpa_supplicant/src/crypto\aes-internal-dec.c **** 		rk += 8;
 469              		.loc 1 125 3 is_stmt 0
 470 00ac 13D88C01 		srli	a6,s9,24
 471 00b0 3348F820 		sh2add	a6,a6,a5
 472 00b4 03230800 		lw	t1,0(a6)
 473 00b8 03A80E01 		lw	a6,16(t4)
 474 00bc 03AF8E01 		lw	t5,24(t4)
 127:C:/Users/stapi/OneDrive/Desktop/GD32VW553/V1_MQTT_OK/GD32VW55X_Wifi_BLE_SDK/GD32VW55x_RELEASE_V1.0.2/MSDK/wpa_supplicant/src/crypto\aes-internal-dec.c **** 			break;
 475              		.loc 1 127 6
 476 00c0 7D1B     		addi	s6,s6,-1
 477              	.LVL37:
 125:C:/Users/stapi/OneDrive/Desktop/GD32VW553/V1_MQTT_OK/GD32VW55X_Wifi_BLE_SDK/GD32VW55x_RELEASE_V1.0.2/MSDK/wpa_supplicant/src/crypto\aes-internal-dec.c **** 		rk += 8;
 478              		.loc 1 125 3
 479 00c2 33430301 		xor	t1,t1,a6
 480 00c6 13F8F60F 		andi	a6,a3,255
 481 00ca 3348F820 		sh2add	a6,a6,a5
 482              	.LBB156:
 483              	.LBB145:
 484              		.loc 2 72 23
 485 00ce 03280800 		lw	a6,0(a6)
 486              	.LBE145:
 487              	.LBE156:
 126:C:/Users/stapi/OneDrive/Desktop/GD32VW553/V1_MQTT_OK/GD32VW55X_Wifi_BLE_SDK/GD32VW55x_RELEASE_V1.0.2/MSDK/wpa_supplicant/src/crypto\aes-internal-dec.c **** 		if (--r == 0)
 488              		.loc 1 126 6
 489 00d2 938E0E02 		addi	t4,t4,32
 490              	.LVL38:
 491              	.LBB157:
 492              	.LBB146:
 493              		.loc 2 72 23
 494 00d6 33189860 		rol	a6,a6,s1
 495              	.LBE146:
 496              	.LBE157:
 125:C:/Users/stapi/OneDrive/Desktop/GD32VW553/V1_MQTT_OK/GD32VW55X_Wifi_BLE_SDK/GD32VW55x_RELEASE_V1.0.2/MSDK/wpa_supplicant/src/crypto\aes-internal-dec.c **** 		rk += 8;
 497              		.loc 1 125 3
 498 00da 33430301 		xor	t1,t1,a6
 499 00de 13D8E500 		srli	a6,a1,14
 500 00e2 1378C83F 		andi	a6,a6,1020
 501 00e6 3E98     		add	a6,a5,a6
 502              	.LBB158:
 503              	.LBB153:
 504              		.loc 2 72 23
 505 00e8 03280800 		lw	a6,0(a6)
 506 00ec 13588860 		rori	a6,a6,8
 507              	.LBE153:
 508              	.LBE158:
 125:C:/Users/stapi/OneDrive/Desktop/GD32VW553/V1_MQTT_OK/GD32VW55X_Wifi_BLE_SDK/GD32VW55x_RELEASE_V1.0.2/MSDK/wpa_supplicant/src/crypto\aes-internal-dec.c **** 		rk += 8;
 509              		.loc 1 125 3
 510 00f0 33430301 		xor	t1,t1,a6
 511 00f4 13586700 		srli	a6,a4,6
 512 00f8 1378C83F 		andi	a6,a6,1020
 513 00fc 3E98     		add	a6,a5,a6
 514              	.LBB159:
 515              	.LBB150:
 516              		.loc 2 72 23
 517 00fe 03280800 		lw	a6,0(a6)
 518 0102 33188860 		rol	a6,a6,s0
 519              	.LBE150:
 520              	.LBE159:
 125:C:/Users/stapi/OneDrive/Desktop/GD32VW553/V1_MQTT_OK/GD32VW55X_Wifi_BLE_SDK/GD32VW55x_RELEASE_V1.0.2/MSDK/wpa_supplicant/src/crypto\aes-internal-dec.c **** 		rk += 8;
 521              		.loc 1 125 3
 522 0106 33430301 		xor	t1,t1,a6
 523              	.LVL39:
 125:C:/Users/stapi/OneDrive/Desktop/GD32VW553/V1_MQTT_OK/GD32VW55X_Wifi_BLE_SDK/GD32VW55x_RELEASE_V1.0.2/MSDK/wpa_supplicant/src/crypto\aes-internal-dec.c **** 		rk += 8;
 524              		.loc 1 125 3 is_stmt 1
 525              	.LBB160:
 526              	.LBB161:
 527              		.loc 2 72 2
 528              	.LBE161:
 529              	.LBE160:
 530              	.LBB163:
 531              	.LBB164:
 532              		.loc 2 72 2
 533              	.LBE164:
 534              	.LBE163:
 535              	.LBB166:
 536              	.LBB167:
 537              		.loc 2 72 2
 538              	.LBE167:
 539              	.LBE166:
 125:C:/Users/stapi/OneDrive/Desktop/GD32VW553/V1_MQTT_OK/GD32VW55X_Wifi_BLE_SDK/GD32VW55x_RELEASE_V1.0.2/MSDK/wpa_supplicant/src/crypto\aes-internal-dec.c **** 		rk += 8;
 540              		.loc 1 125 3 is_stmt 0
 541 010a 13D88601 		srli	a6,a3,24
 542 010e 3348F820 		sh2add	a6,a6,a5
 543 0112 83280800 		lw	a7,0(a6)
 544 0116 03A84EFF 		lw	a6,-12(t4)
 129:C:/Users/stapi/OneDrive/Desktop/GD32VW553/V1_MQTT_OK/GD32VW55X_Wifi_BLE_SDK/GD32VW55x_RELEASE_V1.0.2/MSDK/wpa_supplicant/src/crypto\aes-internal-dec.c **** 	}
 545              		.loc 1 129 3
 546 011a 93520301 		srli	t0,t1,16
 547 011e 135C8301 		srli	s8,t1,24
 125:C:/Users/stapi/OneDrive/Desktop/GD32VW553/V1_MQTT_OK/GD32VW55X_Wifi_BLE_SDK/GD32VW55x_RELEASE_V1.0.2/MSDK/wpa_supplicant/src/crypto\aes-internal-dec.c **** 		rk += 8;
 548              		.loc 1 125 3
 549 0122 B3C80801 		xor	a7,a7,a6
 550 0126 1378F70F 		andi	a6,a4,255
 551 012a 3348F820 		sh2add	a6,a6,a5
 552              	.LBB170:
 553              	.LBB168:
 554              		.loc 2 72 23
 555 012e 03280800 		lw	a6,0(a6)
 556              	.LBE168:
 557              	.LBE170:
 129:C:/Users/stapi/OneDrive/Desktop/GD32VW553/V1_MQTT_OK/GD32VW55X_Wifi_BLE_SDK/GD32VW55x_RELEASE_V1.0.2/MSDK/wpa_supplicant/src/crypto\aes-internal-dec.c **** 	}
 558              		.loc 1 129 3
 559 0132 93F2F20F 		andi	t0,t0,255
 560              	.LBB171:
 561              	.LBB169:
 562              		.loc 2 72 23
 563 0136 33189860 		rol	a6,a6,s1
 564              	.LBE169:
 565              	.LBE171:
 125:C:/Users/stapi/OneDrive/Desktop/GD32VW553/V1_MQTT_OK/GD32VW55X_Wifi_BLE_SDK/GD32VW55x_RELEASE_V1.0.2/MSDK/wpa_supplicant/src/crypto\aes-internal-dec.c **** 		rk += 8;
 566              		.loc 1 125 3
 567 013a B3C80801 		xor	a7,a7,a6
 568 013e 13D8EC00 		srli	a6,s9,14
 569 0142 1378C83F 		andi	a6,a6,1020
 570 0146 3E98     		add	a6,a5,a6
 571              	.LBB172:
 572              	.LBB162:
 573              		.loc 2 72 23
 574 0148 03280800 		lw	a6,0(a6)
 575 014c 13588860 		rori	a6,a6,8
 576              	.LBE162:
 577              	.LBE172:
 125:C:/Users/stapi/OneDrive/Desktop/GD32VW553/V1_MQTT_OK/GD32VW55X_Wifi_BLE_SDK/GD32VW55x_RELEASE_V1.0.2/MSDK/wpa_supplicant/src/crypto\aes-internal-dec.c **** 		rk += 8;
 578              		.loc 1 125 3
 579 0150 B3C80801 		xor	a7,a7,a6
 580 0154 13D86500 		srli	a6,a1,6
 581 0158 1378C83F 		andi	a6,a6,1020
 582 015c 3E98     		add	a6,a5,a6
 583              	.LBB173:
 584              	.LBB165:
 585              		.loc 2 72 23
 586 015e 03280800 		lw	a6,0(a6)
 587 0162 33188860 		rol	a6,a6,s0
 588              	.LBE165:
 589              	.LBE173:
 125:C:/Users/stapi/OneDrive/Desktop/GD32VW553/V1_MQTT_OK/GD32VW55X_Wifi_BLE_SDK/GD32VW55x_RELEASE_V1.0.2/MSDK/wpa_supplicant/src/crypto\aes-internal-dec.c **** 		rk += 8;
 590              		.loc 1 125 3
 591 0166 B3C80801 		xor	a7,a7,a6
 592              	.LVL40:
 125:C:/Users/stapi/OneDrive/Desktop/GD32VW553/V1_MQTT_OK/GD32VW55X_Wifi_BLE_SDK/GD32VW55x_RELEASE_V1.0.2/MSDK/wpa_supplicant/src/crypto\aes-internal-dec.c **** 		rk += 8;
 593              		.loc 1 125 3 is_stmt 1
 594              	.LBB174:
 595              	.LBB175:
 596              		.loc 2 72 2
 597              	.LBE175:
 598              	.LBE174:
 599              	.LBB178:
 600              	.LBB179:
 601              		.loc 2 72 2
 602              	.LBE179:
 603              	.LBE178:
 604              	.LBB182:
 605              	.LBB183:
 606              		.loc 2 72 2
 607              	.LBE183:
 608              	.LBE182:
 125:C:/Users/stapi/OneDrive/Desktop/GD32VW553/V1_MQTT_OK/GD32VW55X_Wifi_BLE_SDK/GD32VW55x_RELEASE_V1.0.2/MSDK/wpa_supplicant/src/crypto\aes-internal-dec.c **** 		rk += 8;
 609              		.loc 1 125 3 is_stmt 0
 610 016a 13588701 		srli	a6,a4,24
 611 016e 3348F820 		sh2add	a6,a6,a5
 612 0172 03280800 		lw	a6,0(a6)
 613 0176 3983     		srli	a4,a4,14
 614              	.LVL41:
 615 0178 1377C73F 		andi	a4,a4,1020
 616 017c 3348E801 		xor	a6,a6,t5
 617 0180 13FFF50F 		andi	t5,a1,255
 618 0184 334FFF20 		sh2add	t5,t5,a5
 619              	.LBB186:
 620              	.LBB184:
 621              		.loc 2 72 23
 622 0188 032F0F00 		lw	t5,0(t5)
 623              	.LBE184:
 624              	.LBE186:
 125:C:/Users/stapi/OneDrive/Desktop/GD32VW553/V1_MQTT_OK/GD32VW55X_Wifi_BLE_SDK/GD32VW55x_RELEASE_V1.0.2/MSDK/wpa_supplicant/src/crypto\aes-internal-dec.c **** 		rk += 8;
 625              		.loc 1 125 3
 626 018c E181     		srli	a1,a1,24
 627              	.LVL42:
 628 018e B3C5F520 		sh2add	a1,a1,a5
 629              	.LBB187:
 630              	.LBB185:
 631              		.loc 2 72 23
 632 0192 331F9F60 		rol	t5,t5,s1
 633              	.LBE185:
 634              	.LBE187:
 125:C:/Users/stapi/OneDrive/Desktop/GD32VW553/V1_MQTT_OK/GD32VW55X_Wifi_BLE_SDK/GD32VW55x_RELEASE_V1.0.2/MSDK/wpa_supplicant/src/crypto\aes-internal-dec.c **** 		rk += 8;
 635              		.loc 1 125 3
 636 0196 3348E801 		xor	a6,a6,t5
 637 019a 13DFE600 		srli	t5,a3,14
 638 019e 137FCF3F 		andi	t5,t5,1020
 639 01a2 3E9F     		add	t5,a5,t5
 640              	.LBB188:
 641              	.LBB176:
 642              		.loc 2 72 23
 643 01a4 032F0F00 		lw	t5,0(t5)
 644              	.LBE176:
 645              	.LBE188:
 125:C:/Users/stapi/OneDrive/Desktop/GD32VW553/V1_MQTT_OK/GD32VW55X_Wifi_BLE_SDK/GD32VW55x_RELEASE_V1.0.2/MSDK/wpa_supplicant/src/crypto\aes-internal-dec.c **** 		rk += 8;
 646              		.loc 1 125 3
 647 01a8 8C41     		lw	a1,0(a1)
 648 01aa 3E97     		add	a4,a5,a4
 649              	.LBB189:
 650              	.LBB177:
 651              		.loc 2 72 23
 652 01ac 135F8F60 		rori	t5,t5,8
 653              	.LBE177:
 654              	.LBE189:
 125:C:/Users/stapi/OneDrive/Desktop/GD32VW553/V1_MQTT_OK/GD32VW55X_Wifi_BLE_SDK/GD32VW55x_RELEASE_V1.0.2/MSDK/wpa_supplicant/src/crypto\aes-internal-dec.c **** 		rk += 8;
 655              		.loc 1 125 3
 656 01b0 3348E801 		xor	a6,a6,t5
 657 01b4 13DF6C00 		srli	t5,s9,6
 658 01b8 137FCF3F 		andi	t5,t5,1020
 659 01bc 3E9F     		add	t5,a5,t5
 660              	.LBB190:
 661              	.LBB180:
 662              		.loc 2 72 23
 663 01be 032F0F00 		lw	t5,0(t5)
 664              	.LBE180:
 665              	.LBE190:
 125:C:/Users/stapi/OneDrive/Desktop/GD32VW553/V1_MQTT_OK/GD32VW55X_Wifi_BLE_SDK/GD32VW55x_RELEASE_V1.0.2/MSDK/wpa_supplicant/src/crypto\aes-internal-dec.c **** 		rk += 8;
 666              		.loc 1 125 3
 667 01c2 93FCFC0F 		andi	s9,s9,255
 668              	.LVL43:
 669 01c6 B3CCFC20 		sh2add	s9,s9,a5
 670              	.LBB191:
 671              	.LBB181:
 672              		.loc 2 72 23
 673 01ca 331F8F60 		rol	t5,t5,s0
 674              	.LBE181:
 675              	.LBE191:
 125:C:/Users/stapi/OneDrive/Desktop/GD32VW553/V1_MQTT_OK/GD32VW55X_Wifi_BLE_SDK/GD32VW55x_RELEASE_V1.0.2/MSDK/wpa_supplicant/src/crypto\aes-internal-dec.c **** 		rk += 8;
 676              		.loc 1 125 3
 677 01ce 3348E801 		xor	a6,a6,t5
 678              	.LVL44:
 125:C:/Users/stapi/OneDrive/Desktop/GD32VW553/V1_MQTT_OK/GD32VW55X_Wifi_BLE_SDK/GD32VW55x_RELEASE_V1.0.2/MSDK/wpa_supplicant/src/crypto\aes-internal-dec.c **** 		rk += 8;
 679              		.loc 1 125 3 is_stmt 1
 680              	.LBB192:
 681              	.LBB193:
 682              		.loc 2 72 2
 683              	.LBE193:
 684              	.LBE192:
 685              	.LBB196:
 686              	.LBB197:
 687              		.loc 2 72 2
 688              	.LBE197:
 689              	.LBE196:
 690              	.LBB200:
 691              	.LBB201:
 692              		.loc 2 72 2
 693              	.LBE201:
 694              	.LBE200:
 125:C:/Users/stapi/OneDrive/Desktop/GD32VW553/V1_MQTT_OK/GD32VW55X_Wifi_BLE_SDK/GD32VW55x_RELEASE_V1.0.2/MSDK/wpa_supplicant/src/crypto\aes-internal-dec.c **** 		rk += 8;
 695              		.loc 1 125 3 is_stmt 0
 696 01d2 03AFCEFF 		lw	t5,-4(t4)
 697              	.LBB204:
 698              	.LBB194:
 699              		.loc 2 72 23
 700 01d6 1843     		lw	a4,0(a4)
 701              	.LBE194:
 702              	.LBE204:
 125:C:/Users/stapi/OneDrive/Desktop/GD32VW553/V1_MQTT_OK/GD32VW55X_Wifi_BLE_SDK/GD32VW55x_RELEASE_V1.0.2/MSDK/wpa_supplicant/src/crypto\aes-internal-dec.c **** 		rk += 8;
 703              		.loc 1 125 3
 704 01d8 9982     		srli	a3,a3,6
 705              	.LVL45:
 706 01da B3C5E501 		xor	a1,a1,t5
 707              	.LBB205:
 708              	.LBB202:
 709              		.loc 2 72 23
 710 01de 03AF0C00 		lw	t5,0(s9)
 711              	.LBE202:
 712              	.LBE205:
 125:C:/Users/stapi/OneDrive/Desktop/GD32VW553/V1_MQTT_OK/GD32VW55X_Wifi_BLE_SDK/GD32VW55x_RELEASE_V1.0.2/MSDK/wpa_supplicant/src/crypto\aes-internal-dec.c **** 		rk += 8;
 713              		.loc 1 125 3
 714 01e2 93F6C63F 		andi	a3,a3,1020
 715 01e6 BE96     		add	a3,a5,a3
 716              	.LBB206:
 717              	.LBB203:
 718              		.loc 2 72 23
 719 01e8 331F9F60 		rol	t5,t5,s1
 720              	.LBE203:
 721              	.LBE206:
 722              	.LBB207:
 723              	.LBB195:
 724 01ec 13578760 		rori	a4,a4,8
 725              	.LBE195:
 726              	.LBE207:
 125:C:/Users/stapi/OneDrive/Desktop/GD32VW553/V1_MQTT_OK/GD32VW55X_Wifi_BLE_SDK/GD32VW55x_RELEASE_V1.0.2/MSDK/wpa_supplicant/src/crypto\aes-internal-dec.c **** 		rk += 8;
 727              		.loc 1 125 3
 728 01f0 B3C5E501 		xor	a1,a1,t5
 729 01f4 B98D     		xor	a1,a1,a4
 730              	.LBB208:
 731              	.LBB198:
 732              		.loc 2 72 23
 733 01f6 9842     		lw	a4,0(a3)
 734              	.LBE198:
 735              	.LBE208:
 129:C:/Users/stapi/OneDrive/Desktop/GD32VW553/V1_MQTT_OK/GD32VW55X_Wifi_BLE_SDK/GD32VW55x_RELEASE_V1.0.2/MSDK/wpa_supplicant/src/crypto\aes-internal-dec.c **** 	}
 736              		.loc 1 129 3
 737 01f8 93DF0801 		srli	t6,a7,16
 738 01fc 93568800 		srli	a3,a6,8
 739              	.LBB209:
 740              	.LBB199:
 741              		.loc 2 72 23
 742 0200 33178760 		rol	a4,a4,s0
 743              	.LBE199:
 744              	.LBE209:
 125:C:/Users/stapi/OneDrive/Desktop/GD32VW553/V1_MQTT_OK/GD32VW55X_Wifi_BLE_SDK/GD32VW55x_RELEASE_V1.0.2/MSDK/wpa_supplicant/src/crypto\aes-internal-dec.c **** 		rk += 8;
 745              		.loc 1 125 3
 746 0204 B98D     		xor	a1,a1,a4
 747              	.LVL46:
 126:C:/Users/stapi/OneDrive/Desktop/GD32VW553/V1_MQTT_OK/GD32VW55X_Wifi_BLE_SDK/GD32VW55x_RELEASE_V1.0.2/MSDK/wpa_supplicant/src/crypto\aes-internal-dec.c **** 		if (--r == 0)
 748              		.loc 1 126 3 is_stmt 1
 127:C:/Users/stapi/OneDrive/Desktop/GD32VW553/V1_MQTT_OK/GD32VW55X_Wifi_BLE_SDK/GD32VW55x_RELEASE_V1.0.2/MSDK/wpa_supplicant/src/crypto\aes-internal-dec.c **** 			break;
 749              		.loc 1 127 3
 129:C:/Users/stapi/OneDrive/Desktop/GD32VW553/V1_MQTT_OK/GD32VW55X_Wifi_BLE_SDK/GD32VW55x_RELEASE_V1.0.2/MSDK/wpa_supplicant/src/crypto\aes-internal-dec.c **** 	}
 750              		.loc 1 129 3 is_stmt 0
 751 0206 93D30501 		srli	t2,a1,16
 752 020a 13D78500 		srli	a4,a1,8
 753 020e 135F8300 		srli	t5,t1,8
 754 0212 93FBF80F 		andi	s7,a7,255
 755 0216 13DA8801 		srli	s4,a7,24
 756 021a 937AF80F 		andi	s5,a6,255
 757 021e 13598801 		srli	s2,a6,24
 758 0222 93D88800 		srli	a7,a7,8
 759              	.LVL47:
 760 0226 13580801 		srli	a6,a6,16
 761              	.LVL48:
 762 022a 93F9F50F 		andi	s3,a1,255
 763 022e 83AC0E00 		lw	s9,0(t4)
 764 0232 93F3F30F 		andi	t2,t2,255
 765 0236 93F6F60F 		andi	a3,a3,255
 766 023a 1377F70F 		andi	a4,a4,255
 767 023e 93FFFF0F 		andi	t6,t6,255
 768 0242 137FFF0F 		andi	t5,t5,255
 769 0246 E181     		srli	a1,a1,24
 770              	.LVL49:
 771 0248 1378F80F 		andi	a6,a6,255
 772 024c 93F8F80F 		andi	a7,a7,255
 773 0250 1373F30F 		andi	t1,t1,255
 774              	.LVL50:
 127:C:/Users/stapi/OneDrive/Desktop/GD32VW553/V1_MQTT_OK/GD32VW55X_Wifi_BLE_SDK/GD32VW55x_RELEASE_V1.0.2/MSDK/wpa_supplicant/src/crypto\aes-internal-dec.c **** 			break;
 775              		.loc 1 127 6
 776 0254 630D0B0E 		beq	s6,zero,.L16
 129:C:/Users/stapi/OneDrive/Desktop/GD32VW553/V1_MQTT_OK/GD32VW55X_Wifi_BLE_SDK/GD32VW55x_RELEASE_V1.0.2/MSDK/wpa_supplicant/src/crypto\aes-internal-dec.c **** 	}
 777              		.loc 1 129 3 is_stmt 1
 778              	.LVL51:
 779              	.LBB210:
 780              	.LBB211:
 781              		.loc 2 72 2
 782              	.LBE211:
 783              	.LBE210:
 784              	.LBB214:
 785              	.LBB215:
 786              		.loc 2 72 2
 787              	.LBE215:
 788              	.LBE214:
 789              	.LBB218:
 790              	.LBB219:
 791              		.loc 2 72 2
 792              	.LBE219:
 793              	.LBE218:
 129:C:/Users/stapi/OneDrive/Desktop/GD32VW553/V1_MQTT_OK/GD32VW55X_Wifi_BLE_SDK/GD32VW55x_RELEASE_V1.0.2/MSDK/wpa_supplicant/src/crypto\aes-internal-dec.c **** 	}
 794              		.loc 1 129 3 is_stmt 0
 795 0258 334CFC20 		sh2add	s8,s8,a5
 796 025c 032C0C00 		lw	s8,0(s8)
 797 0260 B3CBFB20 		sh2add	s7,s7,a5
 798              	.LBB222:
 799              	.LBB220:
 800              		.loc 2 72 23
 801 0264 83AB0B00 		lw	s7,0(s7)
 802              	.LBE220:
 803              	.LBE222:
 129:C:/Users/stapi/OneDrive/Desktop/GD32VW553/V1_MQTT_OK/GD32VW55X_Wifi_BLE_SDK/GD32VW55x_RELEASE_V1.0.2/MSDK/wpa_supplicant/src/crypto\aes-internal-dec.c **** 	}
 804              		.loc 1 129 3
 805 0268 B3C3F320 		sh2add	t2,t2,a5
 806 026c B3C6F620 		sh2add	a3,a3,a5
 807              	.LBB223:
 808              	.LBB212:
 809              		.loc 2 72 23
 810 0270 83A30300 		lw	t2,0(t2)
 811              	.LBE212:
 812              	.LBE223:
 813              	.LBB224:
 814              	.LBB216:
 815 0274 9442     		lw	a3,0(a3)
 816              	.LBE216:
 817              	.LBE224:
 129:C:/Users/stapi/OneDrive/Desktop/GD32VW553/V1_MQTT_OK/GD32VW55X_Wifi_BLE_SDK/GD32VW55x_RELEASE_V1.0.2/MSDK/wpa_supplicant/src/crypto\aes-internal-dec.c **** 	}
 818              		.loc 1 129 3
 819 0276 B3CC8C01 		xor	s9,s9,s8
 820              	.LBB225:
 821              	.LBB221:
 822              		.loc 2 72 23
 823 027a B39B9B60 		rol	s7,s7,s1
 824              	.LBE221:
 825              	.LBE225:
 129:C:/Users/stapi/OneDrive/Desktop/GD32VW553/V1_MQTT_OK/GD32VW55X_Wifi_BLE_SDK/GD32VW55x_RELEASE_V1.0.2/MSDK/wpa_supplicant/src/crypto\aes-internal-dec.c **** 	}
 826              		.loc 1 129 3
 827 027e B3CC9B01 		xor	s9,s7,s9
 828              	.LBB226:
 829              	.LBB213:
 830              		.loc 2 72 23
 831 0282 93D38360 		rori	t2,t2,8
 832              	.LBE213:
 833              	.LBE226:
 834              	.LBB227:
 835              	.LBB217:
 836 0286 B3968660 		rol	a3,a3,s0
 837              	.LBE217:
 838              	.LBE227:
 129:C:/Users/stapi/OneDrive/Desktop/GD32VW553/V1_MQTT_OK/GD32VW55X_Wifi_BLE_SDK/GD32VW55x_RELEASE_V1.0.2/MSDK/wpa_supplicant/src/crypto\aes-internal-dec.c **** 	}
 839              		.loc 1 129 3
 840 028a B3CC7C00 		xor	s9,s9,t2
 841 028e B3CCDC00 		xor	s9,s9,a3
 842              	.LVL52:
 129:C:/Users/stapi/OneDrive/Desktop/GD32VW553/V1_MQTT_OK/GD32VW55X_Wifi_BLE_SDK/GD32VW55x_RELEASE_V1.0.2/MSDK/wpa_supplicant/src/crypto\aes-internal-dec.c **** 	}
 843              		.loc 1 129 3 is_stmt 1
 844              	.LBB228:
 845              	.LBB229:
 846              		.loc 2 72 2
 847              	.LBE229:
 848              	.LBE228:
 849              	.LBB232:
 850              	.LBB233:
 851              		.loc 2 72 2
 852              	.LBE233:
 853              	.LBE232:
 854              	.LBB236:
 855              	.LBB237:
 856              		.loc 2 72 2
 857              	.LBE237:
 858              	.LBE236:
 129:C:/Users/stapi/OneDrive/Desktop/GD32VW553/V1_MQTT_OK/GD32VW55X_Wifi_BLE_SDK/GD32VW55x_RELEASE_V1.0.2/MSDK/wpa_supplicant/src/crypto\aes-internal-dec.c **** 	}
 859              		.loc 1 129 3 is_stmt 0
 860 0292 83A34E00 		lw	t2,4(t4)
 861 0296 334AFA20 		sh2add	s4,s4,a5
 862 029a 83260A00 		lw	a3,0(s4)
 863 029e B3CAFA20 		sh2add	s5,s5,a5
 864 02a2 B3C2F220 		sh2add	t0,t0,a5
 865 02a6 B3C67600 		xor	a3,a3,t2
 866              	.LBB240:
 867              	.LBB238:
 868              		.loc 2 72 23
 869 02aa 83A30A00 		lw	t2,0(s5)
 870              	.LBE238:
 871              	.LBE240:
 872              	.LBB241:
 873              	.LBB230:
 874 02ae 83A20200 		lw	t0,0(t0)
 875              	.LBE230:
 876              	.LBE241:
 129:C:/Users/stapi/OneDrive/Desktop/GD32VW553/V1_MQTT_OK/GD32VW55X_Wifi_BLE_SDK/GD32VW55x_RELEASE_V1.0.2/MSDK/wpa_supplicant/src/crypto\aes-internal-dec.c **** 	}
 877              		.loc 1 129 3
 878 02b2 3347F720 		sh2add	a4,a4,a5
 879              	.LBB242:
 880              	.LBB234:
 881              		.loc 2 72 23
 882 02b6 1843     		lw	a4,0(a4)
 883              	.LBE234:
 884              	.LBE242:
 885              	.LBB243:
 886              	.LBB239:
 887 02b8 B3939360 		rol	t2,t2,s1
 888              	.LBE239:
 889              	.LBE243:
 129:C:/Users/stapi/OneDrive/Desktop/GD32VW553/V1_MQTT_OK/GD32VW55X_Wifi_BLE_SDK/GD32VW55x_RELEASE_V1.0.2/MSDK/wpa_supplicant/src/crypto\aes-internal-dec.c **** 	}
 890              		.loc 1 129 3
 891 02bc B3C67600 		xor	a3,a3,t2
 892              	.LBB244:
 893              	.LBB231:
 894              		.loc 2 72 23
 895 02c0 93D28260 		rori	t0,t0,8
 896              	.LBE231:
 897              	.LBE244:
 898              	.LBB245:
 899              	.LBB235:
 900 02c4 33178760 		rol	a4,a4,s0
 901              	.LBE235:
 902              	.LBE245:
 129:C:/Users/stapi/OneDrive/Desktop/GD32VW553/V1_MQTT_OK/GD32VW55X_Wifi_BLE_SDK/GD32VW55x_RELEASE_V1.0.2/MSDK/wpa_supplicant/src/crypto\aes-internal-dec.c **** 	}
 903              		.loc 1 129 3
 904 02c8 B3C65600 		xor	a3,a3,t0
 905 02cc B98E     		xor	a3,a3,a4
 906              	.LVL53:
 129:C:/Users/stapi/OneDrive/Desktop/GD32VW553/V1_MQTT_OK/GD32VW55X_Wifi_BLE_SDK/GD32VW55x_RELEASE_V1.0.2/MSDK/wpa_supplicant/src/crypto\aes-internal-dec.c **** 	}
 907              		.loc 1 129 3 is_stmt 1
 908              	.LBB246:
 909              	.LBB247:
 910              		.loc 2 72 2
 911              	.LBE247:
 912              	.LBE246:
 913              	.LBB250:
 914              	.LBB251:
 915              		.loc 2 72 2
 916              	.LBE251:
 917              	.LBE250:
 918              	.LBB254:
 919              	.LBB255:
 920              		.loc 2 72 2
 921              	.LBE255:
 922              	.LBE254:
 129:C:/Users/stapi/OneDrive/Desktop/GD32VW553/V1_MQTT_OK/GD32VW55X_Wifi_BLE_SDK/GD32VW55x_RELEASE_V1.0.2/MSDK/wpa_supplicant/src/crypto\aes-internal-dec.c **** 	}
 923              		.loc 1 129 3 is_stmt 0
 924 02ce 83A28E00 		lw	t0,8(t4)
 925 02d2 3349F920 		sh2add	s2,s2,a5
 926 02d6 03270900 		lw	a4,0(s2)
 927 02da B3C9F920 		sh2add	s3,s3,a5
 928 02de B3CFFF20 		sh2add	t6,t6,a5
 929 02e2 33475700 		xor	a4,a4,t0
 930              	.LBB258:
 931              	.LBB256:
 932              		.loc 2 72 23
 933 02e6 83A20900 		lw	t0,0(s3)
 934              	.LBE256:
 935              	.LBE258:
 936              	.LBB259:
 937              	.LBB248:
 938 02ea 83AF0F00 		lw	t6,0(t6)
 939              	.LBE248:
 940              	.LBE259:
 129:C:/Users/stapi/OneDrive/Desktop/GD32VW553/V1_MQTT_OK/GD32VW55X_Wifi_BLE_SDK/GD32VW55x_RELEASE_V1.0.2/MSDK/wpa_supplicant/src/crypto\aes-internal-dec.c **** 	}
 941              		.loc 1 129 3
 942 02ee 334FFF20 		sh2add	t5,t5,a5
 943              	.LBB260:
 944              	.LBB252:
 945              		.loc 2 72 23
 946 02f2 032F0F00 		lw	t5,0(t5)
 947              	.LBE252:
 948              	.LBE260:
 949              	.LBB261:
 950              	.LBB257:
 951 02f6 B3929260 		rol	t0,t0,s1
 952              	.LBE257:
 953              	.LBE261:
 129:C:/Users/stapi/OneDrive/Desktop/GD32VW553/V1_MQTT_OK/GD32VW55X_Wifi_BLE_SDK/GD32VW55x_RELEASE_V1.0.2/MSDK/wpa_supplicant/src/crypto\aes-internal-dec.c **** 	}
 954              		.loc 1 129 3
 955 02fa 33475700 		xor	a4,a4,t0
 956              	.LBB262:
 957              	.LBB253:
 958              		.loc 2 72 23
 959 02fe 331F8F60 		rol	t5,t5,s0
 960              	.LBE253:
 961              	.LBE262:
 962              	.LBB263:
 963              	.LBB249:
 964 0302 93DF8F60 		rori	t6,t6,8
 965              	.LBE249:
 966              	.LBE263:
 129:C:/Users/stapi/OneDrive/Desktop/GD32VW553/V1_MQTT_OK/GD32VW55X_Wifi_BLE_SDK/GD32VW55x_RELEASE_V1.0.2/MSDK/wpa_supplicant/src/crypto\aes-internal-dec.c **** 	}
 967              		.loc 1 129 3
 968 0306 3347F701 		xor	a4,a4,t6
 969 030a 3347E701 		xor	a4,a4,t5
 970              	.LVL54:
 129:C:/Users/stapi/OneDrive/Desktop/GD32VW553/V1_MQTT_OK/GD32VW55X_Wifi_BLE_SDK/GD32VW55x_RELEASE_V1.0.2/MSDK/wpa_supplicant/src/crypto\aes-internal-dec.c **** 	}
 971              		.loc 1 129 3 is_stmt 1
 972              	.LBB264:
 973              	.LBB265:
 974              		.loc 2 72 2
 975              	.LBE265:
 976              	.LBE264:
 977              	.LBB268:
 978              	.LBB269:
 979              		.loc 2 72 2
 980              	.LBE269:
 981              	.LBE268:
 982              	.LBB271:
 983              	.LBB272:
 984              		.loc 2 72 2
 985              	.LBE272:
 986              	.LBE271:
 129:C:/Users/stapi/OneDrive/Desktop/GD32VW553/V1_MQTT_OK/GD32VW55X_Wifi_BLE_SDK/GD32VW55x_RELEASE_V1.0.2/MSDK/wpa_supplicant/src/crypto\aes-internal-dec.c **** 	}
 987              		.loc 1 129 3 is_stmt 0
 988 030e B3C5F520 		sh2add	a1,a1,a5
 989 0312 03AFCE00 		lw	t5,12(t4)
 990 0316 8C41     		lw	a1,0(a1)
 991 0318 3343F320 		sh2add	t1,t1,a5
 992 031c 3348F820 		sh2add	a6,a6,a5
 993              	.LBB275:
 994              	.LBB273:
 995              		.loc 2 72 23
 996 0320 03230300 		lw	t1,0(t1)
 997              	.LBE273:
 998              	.LBE275:
 999              	.LBB276:
 1000              	.LBB266:
 1001 0324 03280800 		lw	a6,0(a6)
 1002              	.LBE266:
 1003              	.LBE276:
 129:C:/Users/stapi/OneDrive/Desktop/GD32VW553/V1_MQTT_OK/GD32VW55X_Wifi_BLE_SDK/GD32VW55x_RELEASE_V1.0.2/MSDK/wpa_supplicant/src/crypto\aes-internal-dec.c **** 	}
 1004              		.loc 1 129 3
 1005 0328 B3C5E501 		xor	a1,a1,t5
 1006              	.LBB277:
 1007              	.LBB274:
 1008              		.loc 2 72 23
 1009 032c 33139360 		rol	t1,t1,s1
 1010              	.LBE274:
 1011              	.LBE277:
 1012              	.LBB278:
 1013              	.LBB267:
 1014 0330 13588860 		rori	a6,a6,8
 1015              	.LBE267:
 1016              	.LBE278:
 129:C:/Users/stapi/OneDrive/Desktop/GD32VW553/V1_MQTT_OK/GD32VW55X_Wifi_BLE_SDK/GD32VW55x_RELEASE_V1.0.2/MSDK/wpa_supplicant/src/crypto\aes-internal-dec.c **** 	}
 1017              		.loc 1 129 3
 1018 0334 B3C56500 		xor	a1,a1,t1
 1019 0338 B3C50501 		xor	a1,a1,a6
 1020 033c B3C8F820 		sh2add	a7,a7,a5
 1021              	.LBB279:
 1022              	.LBB270:
 1023              		.loc 2 72 23
 1024 0340 03A80800 		lw	a6,0(a7)
 1025 0344 33188860 		rol	a6,a6,s0
 1026              	.LBE270:
 1027              	.LBE279:
 129:C:/Users/stapi/OneDrive/Desktop/GD32VW553/V1_MQTT_OK/GD32VW55X_Wifi_BLE_SDK/GD32VW55x_RELEASE_V1.0.2/MSDK/wpa_supplicant/src/crypto\aes-internal-dec.c **** 	}
 1028              		.loc 1 129 3
 1029 0348 B3C50501 		xor	a1,a1,a6
 1030              	.LVL55:
 124:C:/Users/stapi/OneDrive/Desktop/GD32VW553/V1_MQTT_OK/GD32VW55X_Wifi_BLE_SDK/GD32VW55x_RELEASE_V1.0.2/MSDK/wpa_supplicant/src/crypto\aes-internal-dec.c **** 		ROUND(1,t,s);
 1031              		.loc 1 124 8 is_stmt 1
 125:C:/Users/stapi/OneDrive/Desktop/GD32VW553/V1_MQTT_OK/GD32VW55X_Wifi_BLE_SDK/GD32VW55x_RELEASE_V1.0.2/MSDK/wpa_supplicant/src/crypto\aes-internal-dec.c **** 		rk += 8;
 1032              		.loc 1 125 3 is_stmt 0
 1033 034c 85B3     		j	.L17
 1034              	.LVL56:
 1035              	.L16:
 140:C:/Users/stapi/OneDrive/Desktop/GD32VW553/V1_MQTT_OK/GD32VW55X_Wifi_BLE_SDK/GD32VW55x_RELEASE_V1.0.2/MSDK/wpa_supplicant/src/crypto\aes-internal-dec.c **** 	PUTU32(pt     , s0);
 1036              		.loc 1 140 7
 1037 034e B7070000 		lui	a5,%hi(Td4s)
 1038 0352 93870700 		addi	a5,a5,%lo(Td4s)
 1039 0356 3E9C     		add	s8,a5,s8
 140:C:/Users/stapi/OneDrive/Desktop/GD32VW553/V1_MQTT_OK/GD32VW55X_Wifi_BLE_SDK/GD32VW55x_RELEASE_V1.0.2/MSDK/wpa_supplicant/src/crypto\aes-internal-dec.c **** 	PUTU32(pt     , s0);
 1040              		.loc 1 140 40
 1041 0358 BE9B     		add	s7,a5,s7
 126:C:/Users/stapi/OneDrive/Desktop/GD32VW553/V1_MQTT_OK/GD32VW55X_Wifi_BLE_SDK/GD32VW55x_RELEASE_V1.0.2/MSDK/wpa_supplicant/src/crypto\aes-internal-dec.c **** 		if (--r == 0)
 1042              		.loc 1 126 6
 1043 035a 160E     		slli	t3,t3,5
 1044 035c 7295     		add	a0,a0,t3
 1045              	.LVL57:
 140:C:/Users/stapi/OneDrive/Desktop/GD32VW553/V1_MQTT_OK/GD32VW55X_Wifi_BLE_SDK/GD32VW55x_RELEASE_V1.0.2/MSDK/wpa_supplicant/src/crypto\aes-internal-dec.c **** 	PUTU32(pt     , s0);
 1046              		.loc 1 140 2 is_stmt 1
 140:C:/Users/stapi/OneDrive/Desktop/GD32VW553/V1_MQTT_OK/GD32VW55X_Wifi_BLE_SDK/GD32VW55x_RELEASE_V1.0.2/MSDK/wpa_supplicant/src/crypto\aes-internal-dec.c **** 	PUTU32(pt     , s0);
 1047              		.loc 1 140 40 is_stmt 0
 1048 035e 83CE0B00 		lbu	t4,0(s7)
 1049              	.LVL58:
 140:C:/Users/stapi/OneDrive/Desktop/GD32VW553/V1_MQTT_OK/GD32VW55X_Wifi_BLE_SDK/GD32VW55x_RELEASE_V1.0.2/MSDK/wpa_supplicant/src/crypto\aes-internal-dec.c **** 	PUTU32(pt     , s0);
 1050              		.loc 1 140 7
 1051 0362 034E0C00 		lbu	t3,0(s8)
 140:C:/Users/stapi/OneDrive/Desktop/GD32VW553/V1_MQTT_OK/GD32VW55X_Wifi_BLE_SDK/GD32VW55x_RELEASE_V1.0.2/MSDK/wpa_supplicant/src/crypto\aes-internal-dec.c **** 	PUTU32(pt     , s0);
 1052              		.loc 1 140 18
 1053 0366 BE93     		add	t2,a5,t2
 140:C:/Users/stapi/OneDrive/Desktop/GD32VW553/V1_MQTT_OK/GD32VW55X_Wifi_BLE_SDK/GD32VW55x_RELEASE_V1.0.2/MSDK/wpa_supplicant/src/crypto\aes-internal-dec.c **** 	PUTU32(pt     , s0);
 1054              		.loc 1 140 5
 1055 0368 B3CC9E01 		xor	s9,t4,s9
 140:C:/Users/stapi/OneDrive/Desktop/GD32VW553/V1_MQTT_OK/GD32VW55X_Wifi_BLE_SDK/GD32VW55x_RELEASE_V1.0.2/MSDK/wpa_supplicant/src/crypto\aes-internal-dec.c **** 	PUTU32(pt     , s0);
 1056              		.loc 1 140 7
 1057 036c 620E     		slli	t3,t3,24
 140:C:/Users/stapi/OneDrive/Desktop/GD32VW553/V1_MQTT_OK/GD32VW55X_Wifi_BLE_SDK/GD32VW55x_RELEASE_V1.0.2/MSDK/wpa_supplicant/src/crypto\aes-internal-dec.c **** 	PUTU32(pt     , s0);
 1058              		.loc 1 140 5
 1059 036e B34C9E01 		xor	s9,t3,s9
 140:C:/Users/stapi/OneDrive/Desktop/GD32VW553/V1_MQTT_OK/GD32VW55X_Wifi_BLE_SDK/GD32VW55x_RELEASE_V1.0.2/MSDK/wpa_supplicant/src/crypto\aes-internal-dec.c **** 	PUTU32(pt     , s0);
 1060              		.loc 1 140 29
 1061 0372 BE96     		add	a3,a5,a3
 140:C:/Users/stapi/OneDrive/Desktop/GD32VW553/V1_MQTT_OK/GD32VW55X_Wifi_BLE_SDK/GD32VW55x_RELEASE_V1.0.2/MSDK/wpa_supplicant/src/crypto\aes-internal-dec.c **** 	PUTU32(pt     , s0);
 1062              		.loc 1 140 18
 1063 0374 03CE0300 		lbu	t3,0(t2)
 140:C:/Users/stapi/OneDrive/Desktop/GD32VW553/V1_MQTT_OK/GD32VW55X_Wifi_BLE_SDK/GD32VW55x_RELEASE_V1.0.2/MSDK/wpa_supplicant/src/crypto\aes-internal-dec.c **** 	PUTU32(pt     , s0);
 1064              		.loc 1 140 29
 1065 0378 83C60600 		lbu	a3,0(a3)
 142:C:/Users/stapi/OneDrive/Desktop/GD32VW553/V1_MQTT_OK/GD32VW55X_Wifi_BLE_SDK/GD32VW55x_RELEASE_V1.0.2/MSDK/wpa_supplicant/src/crypto\aes-internal-dec.c **** 	PUTU32(pt +  4, s1);
 1066              		.loc 1 142 40
 1067 037c BE9A     		add	s5,a5,s5
 140:C:/Users/stapi/OneDrive/Desktop/GD32VW553/V1_MQTT_OK/GD32VW55X_Wifi_BLE_SDK/GD32VW55x_RELEASE_V1.0.2/MSDK/wpa_supplicant/src/crypto\aes-internal-dec.c **** 	PUTU32(pt     , s0);
 1068              		.loc 1 140 18
 1069 037e 420E     		slli	t3,t3,16
 140:C:/Users/stapi/OneDrive/Desktop/GD32VW553/V1_MQTT_OK/GD32VW55X_Wifi_BLE_SDK/GD32VW55x_RELEASE_V1.0.2/MSDK/wpa_supplicant/src/crypto\aes-internal-dec.c **** 	PUTU32(pt     , s0);
 1070              		.loc 1 140 5
 1071 0380 B3CCCC01 		xor	s9,s9,t3
 140:C:/Users/stapi/OneDrive/Desktop/GD32VW553/V1_MQTT_OK/GD32VW55X_Wifi_BLE_SDK/GD32VW55x_RELEASE_V1.0.2/MSDK/wpa_supplicant/src/crypto\aes-internal-dec.c **** 	PUTU32(pt     , s0);
 1072              		.loc 1 140 29
 1073 0384 A206     		slli	a3,a3,8
 140:C:/Users/stapi/OneDrive/Desktop/GD32VW553/V1_MQTT_OK/GD32VW55X_Wifi_BLE_SDK/GD32VW55x_RELEASE_V1.0.2/MSDK/wpa_supplicant/src/crypto\aes-internal-dec.c **** 	PUTU32(pt     , s0);
 1074              		.loc 1 140 5
 1075 0386 B3CCDC00 		xor	s9,s9,a3
 1076              	.LVL59:
 141:C:/Users/stapi/OneDrive/Desktop/GD32VW553/V1_MQTT_OK/GD32VW55X_Wifi_BLE_SDK/GD32VW55x_RELEASE_V1.0.2/MSDK/wpa_supplicant/src/crypto\aes-internal-dec.c **** 	s1 = TD41(t1) ^ TD42(t0) ^ TD43(t3) ^ TD44(t2) ^ rk[1];
 1077              		.loc 1 141 2 is_stmt 1
 1078 038a 93D68C01 		srli	a3,s9,24
 1079 038e 2300D600 		sb	a3,0(a2)
 1080              	.LVL60:
 141:C:/Users/stapi/OneDrive/Desktop/GD32VW553/V1_MQTT_OK/GD32VW55X_Wifi_BLE_SDK/GD32VW55x_RELEASE_V1.0.2/MSDK/wpa_supplicant/src/crypto\aes-internal-dec.c **** 	s1 = TD41(t1) ^ TD42(t0) ^ TD43(t3) ^ TD44(t2) ^ rk[1];
 1081              		.loc 1 141 2
 1082 0392 93D60C01 		srli	a3,s9,16
 1083 0396 A300D600 		sb	a3,1(a2)
 141:C:/Users/stapi/OneDrive/Desktop/GD32VW553/V1_MQTT_OK/GD32VW55X_Wifi_BLE_SDK/GD32VW55x_RELEASE_V1.0.2/MSDK/wpa_supplicant/src/crypto\aes-internal-dec.c **** 	s1 = TD41(t1) ^ TD42(t0) ^ TD43(t3) ^ TD44(t2) ^ rk[1];
 1084              		.loc 1 141 2
 1085 039a 93D68C00 		srli	a3,s9,8
 1086 039e 2301D600 		sb	a3,2(a2)
 141:C:/Users/stapi/OneDrive/Desktop/GD32VW553/V1_MQTT_OK/GD32VW55X_Wifi_BLE_SDK/GD32VW55x_RELEASE_V1.0.2/MSDK/wpa_supplicant/src/crypto\aes-internal-dec.c **** 	s1 = TD41(t1) ^ TD42(t0) ^ TD43(t3) ^ TD44(t2) ^ rk[1];
 1087              		.loc 1 141 2
 1088 03a2 A3019601 		sb	s9,3(a2)
 141:C:/Users/stapi/OneDrive/Desktop/GD32VW553/V1_MQTT_OK/GD32VW55X_Wifi_BLE_SDK/GD32VW55x_RELEASE_V1.0.2/MSDK/wpa_supplicant/src/crypto\aes-internal-dec.c **** 	s1 = TD41(t1) ^ TD42(t0) ^ TD43(t3) ^ TD44(t2) ^ rk[1];
 1089              		.loc 1 141 21
 142:C:/Users/stapi/OneDrive/Desktop/GD32VW553/V1_MQTT_OK/GD32VW55X_Wifi_BLE_SDK/GD32VW55x_RELEASE_V1.0.2/MSDK/wpa_supplicant/src/crypto\aes-internal-dec.c **** 	PUTU32(pt +  4, s1);
 1090              		.loc 1 142 2
 142:C:/Users/stapi/OneDrive/Desktop/GD32VW553/V1_MQTT_OK/GD32VW55X_Wifi_BLE_SDK/GD32VW55x_RELEASE_V1.0.2/MSDK/wpa_supplicant/src/crypto\aes-internal-dec.c **** 	PUTU32(pt +  4, s1);
 1091              		.loc 1 142 5 is_stmt 0
 1092 03a6 032E4500 		lw	t3,4(a0)
 142:C:/Users/stapi/OneDrive/Desktop/GD32VW553/V1_MQTT_OK/GD32VW55X_Wifi_BLE_SDK/GD32VW55x_RELEASE_V1.0.2/MSDK/wpa_supplicant/src/crypto\aes-internal-dec.c **** 	PUTU32(pt +  4, s1);
 1093              		.loc 1 142 40
 1094 03aa 83C60A00 		lbu	a3,0(s5)
 142:C:/Users/stapi/OneDrive/Desktop/GD32VW553/V1_MQTT_OK/GD32VW55X_Wifi_BLE_SDK/GD32VW55x_RELEASE_V1.0.2/MSDK/wpa_supplicant/src/crypto\aes-internal-dec.c **** 	PUTU32(pt +  4, s1);
 1095              		.loc 1 142 7
 1096 03ae 3E9A     		add	s4,a5,s4
 142:C:/Users/stapi/OneDrive/Desktop/GD32VW553/V1_MQTT_OK/GD32VW55X_Wifi_BLE_SDK/GD32VW55x_RELEASE_V1.0.2/MSDK/wpa_supplicant/src/crypto\aes-internal-dec.c **** 	PUTU32(pt +  4, s1);
 1097              		.loc 1 142 18
 1098 03b0 BE92     		add	t0,a5,t0
 142:C:/Users/stapi/OneDrive/Desktop/GD32VW553/V1_MQTT_OK/GD32VW55X_Wifi_BLE_SDK/GD32VW55x_RELEASE_V1.0.2/MSDK/wpa_supplicant/src/crypto\aes-internal-dec.c **** 	PUTU32(pt +  4, s1);
 1099              		.loc 1 142 5
 1100 03b2 B3C6C601 		xor	a3,a3,t3
 142:C:/Users/stapi/OneDrive/Desktop/GD32VW553/V1_MQTT_OK/GD32VW55X_Wifi_BLE_SDK/GD32VW55x_RELEASE_V1.0.2/MSDK/wpa_supplicant/src/crypto\aes-internal-dec.c **** 	PUTU32(pt +  4, s1);
 1101              		.loc 1 142 7
 1102 03b6 034E0A00 		lbu	t3,0(s4)
 142:C:/Users/stapi/OneDrive/Desktop/GD32VW553/V1_MQTT_OK/GD32VW55X_Wifi_BLE_SDK/GD32VW55x_RELEASE_V1.0.2/MSDK/wpa_supplicant/src/crypto\aes-internal-dec.c **** 	PUTU32(pt +  4, s1);
 1103              		.loc 1 142 29
 1104 03ba 3E97     		add	a4,a5,a4
 1105 03bc 03470700 		lbu	a4,0(a4)
 142:C:/Users/stapi/OneDrive/Desktop/GD32VW553/V1_MQTT_OK/GD32VW55X_Wifi_BLE_SDK/GD32VW55x_RELEASE_V1.0.2/MSDK/wpa_supplicant/src/crypto\aes-internal-dec.c **** 	PUTU32(pt +  4, s1);
 1106              		.loc 1 142 7
 1107 03c0 620E     		slli	t3,t3,24
 142:C:/Users/stapi/OneDrive/Desktop/GD32VW553/V1_MQTT_OK/GD32VW55X_Wifi_BLE_SDK/GD32VW55x_RELEASE_V1.0.2/MSDK/wpa_supplicant/src/crypto\aes-internal-dec.c **** 	PUTU32(pt +  4, s1);
 1108              		.loc 1 142 5
 1109 03c2 B3C6C601 		xor	a3,a3,t3
 142:C:/Users/stapi/OneDrive/Desktop/GD32VW553/V1_MQTT_OK/GD32VW55X_Wifi_BLE_SDK/GD32VW55x_RELEASE_V1.0.2/MSDK/wpa_supplicant/src/crypto\aes-internal-dec.c **** 	PUTU32(pt +  4, s1);
 1110              		.loc 1 142 18
 1111 03c6 03CE0200 		lbu	t3,0(t0)
 142:C:/Users/stapi/OneDrive/Desktop/GD32VW553/V1_MQTT_OK/GD32VW55X_Wifi_BLE_SDK/GD32VW55x_RELEASE_V1.0.2/MSDK/wpa_supplicant/src/crypto\aes-internal-dec.c **** 	PUTU32(pt +  4, s1);
 1112              		.loc 1 142 29
 1113 03ca 2207     		slli	a4,a4,8
 144:C:/Users/stapi/OneDrive/Desktop/GD32VW553/V1_MQTT_OK/GD32VW55X_Wifi_BLE_SDK/GD32VW55x_RELEASE_V1.0.2/MSDK/wpa_supplicant/src/crypto\aes-internal-dec.c **** 	PUTU32(pt +  8, s2);
 1114              		.loc 1 144 40
 1115 03cc BE99     		add	s3,a5,s3
 142:C:/Users/stapi/OneDrive/Desktop/GD32VW553/V1_MQTT_OK/GD32VW55X_Wifi_BLE_SDK/GD32VW55x_RELEASE_V1.0.2/MSDK/wpa_supplicant/src/crypto\aes-internal-dec.c **** 	PUTU32(pt +  4, s1);
 1116              		.loc 1 142 18
 1117 03ce 420E     		slli	t3,t3,16
 142:C:/Users/stapi/OneDrive/Desktop/GD32VW553/V1_MQTT_OK/GD32VW55X_Wifi_BLE_SDK/GD32VW55x_RELEASE_V1.0.2/MSDK/wpa_supplicant/src/crypto\aes-internal-dec.c **** 	PUTU32(pt +  4, s1);
 1118              		.loc 1 142 5
 1119 03d0 B3C6C601 		xor	a3,a3,t3
 1120 03d4 358F     		xor	a4,a3,a4
 1121              	.LVL61:
 143:C:/Users/stapi/OneDrive/Desktop/GD32VW553/V1_MQTT_OK/GD32VW55X_Wifi_BLE_SDK/GD32VW55x_RELEASE_V1.0.2/MSDK/wpa_supplicant/src/crypto\aes-internal-dec.c **** 	s2 = TD41(t2) ^ TD42(t1) ^ TD43(t0) ^ TD44(t3) ^ rk[2];
 1122              		.loc 1 143 2 is_stmt 1
 1123 03d6 93568701 		srli	a3,a4,24
 1124 03da 2302D600 		sb	a3,4(a2)
 143:C:/Users/stapi/OneDrive/Desktop/GD32VW553/V1_MQTT_OK/GD32VW55X_Wifi_BLE_SDK/GD32VW55x_RELEASE_V1.0.2/MSDK/wpa_supplicant/src/crypto\aes-internal-dec.c **** 	s2 = TD41(t2) ^ TD42(t1) ^ TD43(t0) ^ TD44(t3) ^ rk[2];
 1125              		.loc 1 143 2
 1126 03de 93560701 		srli	a3,a4,16
 1127 03e2 A302D600 		sb	a3,5(a2)
 143:C:/Users/stapi/OneDrive/Desktop/GD32VW553/V1_MQTT_OK/GD32VW55X_Wifi_BLE_SDK/GD32VW55x_RELEASE_V1.0.2/MSDK/wpa_supplicant/src/crypto\aes-internal-dec.c **** 	s2 = TD41(t2) ^ TD42(t1) ^ TD43(t0) ^ TD44(t3) ^ rk[2];
 1128              		.loc 1 143 2
 1129 03e6 93568700 		srli	a3,a4,8
 1130 03ea A303E600 		sb	a4,7(a2)
 1131 03ee 2303D600 		sb	a3,6(a2)
 143:C:/Users/stapi/OneDrive/Desktop/GD32VW553/V1_MQTT_OK/GD32VW55X_Wifi_BLE_SDK/GD32VW55x_RELEASE_V1.0.2/MSDK/wpa_supplicant/src/crypto\aes-internal-dec.c **** 	s2 = TD41(t2) ^ TD42(t1) ^ TD43(t0) ^ TD44(t3) ^ rk[2];
 1132              		.loc 1 143 2
 143:C:/Users/stapi/OneDrive/Desktop/GD32VW553/V1_MQTT_OK/GD32VW55X_Wifi_BLE_SDK/GD32VW55x_RELEASE_V1.0.2/MSDK/wpa_supplicant/src/crypto\aes-internal-dec.c **** 	s2 = TD41(t2) ^ TD42(t1) ^ TD43(t0) ^ TD44(t3) ^ rk[2];
 1133              		.loc 1 143 21
 144:C:/Users/stapi/OneDrive/Desktop/GD32VW553/V1_MQTT_OK/GD32VW55X_Wifi_BLE_SDK/GD32VW55x_RELEASE_V1.0.2/MSDK/wpa_supplicant/src/crypto\aes-internal-dec.c **** 	PUTU32(pt +  8, s2);
 1134              		.loc 1 144 2
 144:C:/Users/stapi/OneDrive/Desktop/GD32VW553/V1_MQTT_OK/GD32VW55X_Wifi_BLE_SDK/GD32VW55x_RELEASE_V1.0.2/MSDK/wpa_supplicant/src/crypto\aes-internal-dec.c **** 	PUTU32(pt +  8, s2);
 1135              		.loc 1 144 5 is_stmt 0
 1136 03f2 1445     		lw	a3,8(a0)
 144:C:/Users/stapi/OneDrive/Desktop/GD32VW553/V1_MQTT_OK/GD32VW55X_Wifi_BLE_SDK/GD32VW55x_RELEASE_V1.0.2/MSDK/wpa_supplicant/src/crypto\aes-internal-dec.c **** 	PUTU32(pt +  8, s2);
 1137              		.loc 1 144 40
 1138 03f4 03C70900 		lbu	a4,0(s3)
 1139              	.LVL62:
 144:C:/Users/stapi/OneDrive/Desktop/GD32VW553/V1_MQTT_OK/GD32VW55X_Wifi_BLE_SDK/GD32VW55x_RELEASE_V1.0.2/MSDK/wpa_supplicant/src/crypto\aes-internal-dec.c **** 	PUTU32(pt +  8, s2);
 1140              		.loc 1 144 7
 1141 03f8 3E99     		add	s2,a5,s2
 144:C:/Users/stapi/OneDrive/Desktop/GD32VW553/V1_MQTT_OK/GD32VW55X_Wifi_BLE_SDK/GD32VW55x_RELEASE_V1.0.2/MSDK/wpa_supplicant/src/crypto\aes-internal-dec.c **** 	PUTU32(pt +  8, s2);
 1142              		.loc 1 144 18
 1143 03fa BE9F     		add	t6,a5,t6
 144:C:/Users/stapi/OneDrive/Desktop/GD32VW553/V1_MQTT_OK/GD32VW55X_Wifi_BLE_SDK/GD32VW55x_RELEASE_V1.0.2/MSDK/wpa_supplicant/src/crypto\aes-internal-dec.c **** 	PUTU32(pt +  8, s2);
 1144              		.loc 1 144 5
 1145 03fc 358F     		xor	a4,a4,a3
 144:C:/Users/stapi/OneDrive/Desktop/GD32VW553/V1_MQTT_OK/GD32VW55X_Wifi_BLE_SDK/GD32VW55x_RELEASE_V1.0.2/MSDK/wpa_supplicant/src/crypto\aes-internal-dec.c **** 	PUTU32(pt +  8, s2);
 1146              		.loc 1 144 7
 1147 03fe 83460900 		lbu	a3,0(s2)
 144:C:/Users/stapi/OneDrive/Desktop/GD32VW553/V1_MQTT_OK/GD32VW55X_Wifi_BLE_SDK/GD32VW55x_RELEASE_V1.0.2/MSDK/wpa_supplicant/src/crypto\aes-internal-dec.c **** 	PUTU32(pt +  8, s2);
 1148              		.loc 1 144 29
 1149 0402 3E9F     		add	t5,a5,t5
 146:C:/Users/stapi/OneDrive/Desktop/GD32VW553/V1_MQTT_OK/GD32VW55X_Wifi_BLE_SDK/GD32VW55x_RELEASE_V1.0.2/MSDK/wpa_supplicant/src/crypto\aes-internal-dec.c **** 	PUTU32(pt + 12, s3);
 1150              		.loc 1 146 40
 1151 0404 3E93     		add	t1,a5,t1
 144:C:/Users/stapi/OneDrive/Desktop/GD32VW553/V1_MQTT_OK/GD32VW55X_Wifi_BLE_SDK/GD32VW55x_RELEASE_V1.0.2/MSDK/wpa_supplicant/src/crypto\aes-internal-dec.c **** 	PUTU32(pt +  8, s2);
 1152              		.loc 1 144 7
 1153 0406 E206     		slli	a3,a3,24
 144:C:/Users/stapi/OneDrive/Desktop/GD32VW553/V1_MQTT_OK/GD32VW55X_Wifi_BLE_SDK/GD32VW55x_RELEASE_V1.0.2/MSDK/wpa_supplicant/src/crypto\aes-internal-dec.c **** 	PUTU32(pt +  8, s2);
 1154              		.loc 1 144 5
 1155 0408 358F     		xor	a4,a4,a3
 144:C:/Users/stapi/OneDrive/Desktop/GD32VW553/V1_MQTT_OK/GD32VW55X_Wifi_BLE_SDK/GD32VW55x_RELEASE_V1.0.2/MSDK/wpa_supplicant/src/crypto\aes-internal-dec.c **** 	PUTU32(pt +  8, s2);
 1156              		.loc 1 144 18
 1157 040a 83C60F00 		lbu	a3,0(t6)
 146:C:/Users/stapi/OneDrive/Desktop/GD32VW553/V1_MQTT_OK/GD32VW55X_Wifi_BLE_SDK/GD32VW55x_RELEASE_V1.0.2/MSDK/wpa_supplicant/src/crypto\aes-internal-dec.c **** 	PUTU32(pt + 12, s3);
 1158              		.loc 1 146 7
 1159 040e BE95     		add	a1,a5,a1
 146:C:/Users/stapi/OneDrive/Desktop/GD32VW553/V1_MQTT_OK/GD32VW55X_Wifi_BLE_SDK/GD32VW55x_RELEASE_V1.0.2/MSDK/wpa_supplicant/src/crypto\aes-internal-dec.c **** 	PUTU32(pt + 12, s3);
 1160              		.loc 1 146 18
 1161 0410 3E98     		add	a6,a5,a6
 144:C:/Users/stapi/OneDrive/Desktop/GD32VW553/V1_MQTT_OK/GD32VW55X_Wifi_BLE_SDK/GD32VW55x_RELEASE_V1.0.2/MSDK/wpa_supplicant/src/crypto\aes-internal-dec.c **** 	PUTU32(pt +  8, s2);
 1162              		.loc 1 144 18
 1163 0412 C206     		slli	a3,a3,16
 144:C:/Users/stapi/OneDrive/Desktop/GD32VW553/V1_MQTT_OK/GD32VW55X_Wifi_BLE_SDK/GD32VW55x_RELEASE_V1.0.2/MSDK/wpa_supplicant/src/crypto\aes-internal-dec.c **** 	PUTU32(pt +  8, s2);
 1164              		.loc 1 144 5
 1165 0414 358F     		xor	a4,a4,a3
 144:C:/Users/stapi/OneDrive/Desktop/GD32VW553/V1_MQTT_OK/GD32VW55X_Wifi_BLE_SDK/GD32VW55x_RELEASE_V1.0.2/MSDK/wpa_supplicant/src/crypto\aes-internal-dec.c **** 	PUTU32(pt +  8, s2);
 1166              		.loc 1 144 29
 1167 0416 83460F00 		lbu	a3,0(t5)
 146:C:/Users/stapi/OneDrive/Desktop/GD32VW553/V1_MQTT_OK/GD32VW55X_Wifi_BLE_SDK/GD32VW55x_RELEASE_V1.0.2/MSDK/wpa_supplicant/src/crypto\aes-internal-dec.c **** 	PUTU32(pt + 12, s3);
 1168              		.loc 1 146 29
 1169 041a BE98     		add	a7,a5,a7
 1170 041c 83C70800 		lbu	a5,0(a7)
 144:C:/Users/stapi/OneDrive/Desktop/GD32VW553/V1_MQTT_OK/GD32VW55X_Wifi_BLE_SDK/GD32VW55x_RELEASE_V1.0.2/MSDK/wpa_supplicant/src/crypto\aes-internal-dec.c **** 	PUTU32(pt +  8, s2);
 1171              		.loc 1 144 29
 1172 0420 A206     		slli	a3,a3,8
 144:C:/Users/stapi/OneDrive/Desktop/GD32VW553/V1_MQTT_OK/GD32VW55X_Wifi_BLE_SDK/GD32VW55x_RELEASE_V1.0.2/MSDK/wpa_supplicant/src/crypto\aes-internal-dec.c **** 	PUTU32(pt +  8, s2);
 1173              		.loc 1 144 5
 1174 0422 358F     		xor	a4,a4,a3
 1175              	.LVL63:
 145:C:/Users/stapi/OneDrive/Desktop/GD32VW553/V1_MQTT_OK/GD32VW55X_Wifi_BLE_SDK/GD32VW55x_RELEASE_V1.0.2/MSDK/wpa_supplicant/src/crypto\aes-internal-dec.c **** 	s3 = TD41(t3) ^ TD42(t2) ^ TD43(t1) ^ TD44(t0) ^ rk[3];
 1176              		.loc 1 145 2 is_stmt 1
 1177 0424 93568701 		srli	a3,a4,24
 1178 0428 2304D600 		sb	a3,8(a2)
 145:C:/Users/stapi/OneDrive/Desktop/GD32VW553/V1_MQTT_OK/GD32VW55X_Wifi_BLE_SDK/GD32VW55x_RELEASE_V1.0.2/MSDK/wpa_supplicant/src/crypto\aes-internal-dec.c **** 	s3 = TD41(t3) ^ TD42(t2) ^ TD43(t1) ^ TD44(t0) ^ rk[3];
 1179              		.loc 1 145 2
 1180 042c 93560701 		srli	a3,a4,16
 1181 0430 A304D600 		sb	a3,9(a2)
 145:C:/Users/stapi/OneDrive/Desktop/GD32VW553/V1_MQTT_OK/GD32VW55X_Wifi_BLE_SDK/GD32VW55x_RELEASE_V1.0.2/MSDK/wpa_supplicant/src/crypto\aes-internal-dec.c **** 	s3 = TD41(t3) ^ TD42(t2) ^ TD43(t1) ^ TD44(t0) ^ rk[3];
 1182              		.loc 1 145 2
 1183 0434 93568700 		srli	a3,a4,8
 1184 0438 A305E600 		sb	a4,11(a2)
 1185 043c 2305D600 		sb	a3,10(a2)
 145:C:/Users/stapi/OneDrive/Desktop/GD32VW553/V1_MQTT_OK/GD32VW55X_Wifi_BLE_SDK/GD32VW55x_RELEASE_V1.0.2/MSDK/wpa_supplicant/src/crypto\aes-internal-dec.c **** 	s3 = TD41(t3) ^ TD42(t2) ^ TD43(t1) ^ TD44(t0) ^ rk[3];
 1186              		.loc 1 145 2
 145:C:/Users/stapi/OneDrive/Desktop/GD32VW553/V1_MQTT_OK/GD32VW55X_Wifi_BLE_SDK/GD32VW55x_RELEASE_V1.0.2/MSDK/wpa_supplicant/src/crypto\aes-internal-dec.c **** 	s3 = TD41(t3) ^ TD42(t2) ^ TD43(t1) ^ TD44(t0) ^ rk[3];
 1187              		.loc 1 145 21
 146:C:/Users/stapi/OneDrive/Desktop/GD32VW553/V1_MQTT_OK/GD32VW55X_Wifi_BLE_SDK/GD32VW55x_RELEASE_V1.0.2/MSDK/wpa_supplicant/src/crypto\aes-internal-dec.c **** 	PUTU32(pt + 12, s3);
 1188              		.loc 1 146 2
 146:C:/Users/stapi/OneDrive/Desktop/GD32VW553/V1_MQTT_OK/GD32VW55X_Wifi_BLE_SDK/GD32VW55x_RELEASE_V1.0.2/MSDK/wpa_supplicant/src/crypto\aes-internal-dec.c **** 	PUTU32(pt + 12, s3);
 1189              		.loc 1 146 5 is_stmt 0
 1190 0440 5445     		lw	a3,12(a0)
 146:C:/Users/stapi/OneDrive/Desktop/GD32VW553/V1_MQTT_OK/GD32VW55X_Wifi_BLE_SDK/GD32VW55x_RELEASE_V1.0.2/MSDK/wpa_supplicant/src/crypto\aes-internal-dec.c **** 	PUTU32(pt + 12, s3);
 1191              		.loc 1 146 40
 1192 0442 03470300 		lbu	a4,0(t1)
 1193              	.LVL64:
 146:C:/Users/stapi/OneDrive/Desktop/GD32VW553/V1_MQTT_OK/GD32VW55X_Wifi_BLE_SDK/GD32VW55x_RELEASE_V1.0.2/MSDK/wpa_supplicant/src/crypto\aes-internal-dec.c **** 	PUTU32(pt + 12, s3);
 1194              		.loc 1 146 29
 1195 0446 A207     		slli	a5,a5,8
 1196              	.LBE141:
 1197              	.LBE140:
 155:C:/Users/stapi/OneDrive/Desktop/GD32VW553/V1_MQTT_OK/GD32VW55X_Wifi_BLE_SDK/GD32VW55x_RELEASE_V1.0.2/MSDK/wpa_supplicant/src/crypto\aes-internal-dec.c **** 	return 0;
 156:C:/Users/stapi/OneDrive/Desktop/GD32VW553/V1_MQTT_OK/GD32VW55X_Wifi_BLE_SDK/GD32VW55x_RELEASE_V1.0.2/MSDK/wpa_supplicant/src/crypto\aes-internal-dec.c **** }
 1198              		.loc 1 156 1
 1199 0448 0145     		li	a0,0
 1200              	.LBB281:
 1201              	.LBB280:
 146:C:/Users/stapi/OneDrive/Desktop/GD32VW553/V1_MQTT_OK/GD32VW55X_Wifi_BLE_SDK/GD32VW55x_RELEASE_V1.0.2/MSDK/wpa_supplicant/src/crypto\aes-internal-dec.c **** 	PUTU32(pt + 12, s3);
 1202              		.loc 1 146 5
 1203 044a 358F     		xor	a4,a4,a3
 146:C:/Users/stapi/OneDrive/Desktop/GD32VW553/V1_MQTT_OK/GD32VW55X_Wifi_BLE_SDK/GD32VW55x_RELEASE_V1.0.2/MSDK/wpa_supplicant/src/crypto\aes-internal-dec.c **** 	PUTU32(pt + 12, s3);
 1204              		.loc 1 146 7
 1205 044c 83C60500 		lbu	a3,0(a1)
 1206 0450 E206     		slli	a3,a3,24
 146:C:/Users/stapi/OneDrive/Desktop/GD32VW553/V1_MQTT_OK/GD32VW55X_Wifi_BLE_SDK/GD32VW55x_RELEASE_V1.0.2/MSDK/wpa_supplicant/src/crypto\aes-internal-dec.c **** 	PUTU32(pt + 12, s3);
 1207              		.loc 1 146 5
 1208 0452 358F     		xor	a4,a4,a3
 146:C:/Users/stapi/OneDrive/Desktop/GD32VW553/V1_MQTT_OK/GD32VW55X_Wifi_BLE_SDK/GD32VW55x_RELEASE_V1.0.2/MSDK/wpa_supplicant/src/crypto\aes-internal-dec.c **** 	PUTU32(pt + 12, s3);
 1209              		.loc 1 146 18
 1210 0454 83460800 		lbu	a3,0(a6)
 1211 0458 C206     		slli	a3,a3,16
 146:C:/Users/stapi/OneDrive/Desktop/GD32VW553/V1_MQTT_OK/GD32VW55X_Wifi_BLE_SDK/GD32VW55x_RELEASE_V1.0.2/MSDK/wpa_supplicant/src/crypto\aes-internal-dec.c **** 	PUTU32(pt + 12, s3);
 1212              		.loc 1 146 5
 1213 045a 358F     		xor	a4,a4,a3
 1214 045c B98F     		xor	a5,a4,a5
 1215              	.LVL65:
 147:C:/Users/stapi/OneDrive/Desktop/GD32VW553/V1_MQTT_OK/GD32VW55X_Wifi_BLE_SDK/GD32VW55x_RELEASE_V1.0.2/MSDK/wpa_supplicant/src/crypto\aes-internal-dec.c **** }
 1216              		.loc 1 147 2 is_stmt 1
 1217 045e 13D78701 		srli	a4,a5,24
 1218 0462 2306E600 		sb	a4,12(a2)
 147:C:/Users/stapi/OneDrive/Desktop/GD32VW553/V1_MQTT_OK/GD32VW55X_Wifi_BLE_SDK/GD32VW55x_RELEASE_V1.0.2/MSDK/wpa_supplicant/src/crypto\aes-internal-dec.c **** }
 1219              		.loc 1 147 2
 1220 0466 13D70701 		srli	a4,a5,16
 1221 046a A306E600 		sb	a4,13(a2)
 147:C:/Users/stapi/OneDrive/Desktop/GD32VW553/V1_MQTT_OK/GD32VW55X_Wifi_BLE_SDK/GD32VW55x_RELEASE_V1.0.2/MSDK/wpa_supplicant/src/crypto\aes-internal-dec.c **** }
 1222              		.loc 1 147 2
 1223 046e 13D78700 		srli	a4,a5,8
 1224 0472 2307E600 		sb	a4,14(a2)
 147:C:/Users/stapi/OneDrive/Desktop/GD32VW553/V1_MQTT_OK/GD32VW55X_Wifi_BLE_SDK/GD32VW55x_RELEASE_V1.0.2/MSDK/wpa_supplicant/src/crypto\aes-internal-dec.c **** }
 1225              		.loc 1 147 2
 1226 0476 A307F600 		sb	a5,15(a2)
 147:C:/Users/stapi/OneDrive/Desktop/GD32VW553/V1_MQTT_OK/GD32VW55X_Wifi_BLE_SDK/GD32VW55x_RELEASE_V1.0.2/MSDK/wpa_supplicant/src/crypto\aes-internal-dec.c **** }
 1227              		.loc 1 147 21
 1228              	.LVL66:
 1229              	.LBE280:
 1230              	.LBE281:
 155:C:/Users/stapi/OneDrive/Desktop/GD32VW553/V1_MQTT_OK/GD32VW55X_Wifi_BLE_SDK/GD32VW55x_RELEASE_V1.0.2/MSDK/wpa_supplicant/src/crypto\aes-internal-dec.c **** 	return 0;
 1231              		.loc 1 155 2
 1232              		.loc 1 156 1 is_stmt 0
 1233 047a 17030000 		tail	__riscv_restore_10
 1233      67000300 
 1234              		.cfi_restore 25
 1235              		.cfi_restore 24
 1236              		.cfi_restore 23
 1237              		.cfi_restore 22
 1238              		.cfi_restore 21
 1239              		.cfi_restore 20
 1240              		.cfi_restore 19
 1241              		.cfi_restore 18
 1242              		.cfi_restore 9
 1243              		.cfi_restore 8
 1244              		.cfi_def_cfa_offset 0
 1245              		.cfi_endproc
 1246              	.LFE75:
 1248              		.section	.text.aes_decrypt_deinit,"ax",@progbits
 1249              		.align	1
 1250              		.globl	aes_decrypt_deinit
 1252              	aes_decrypt_deinit:
 1253              	.LFB76:
 157:C:/Users/stapi/OneDrive/Desktop/GD32VW553/V1_MQTT_OK/GD32VW55X_Wifi_BLE_SDK/GD32VW55x_RELEASE_V1.0.2/MSDK/wpa_supplicant/src/crypto\aes-internal-dec.c **** 
 158:C:/Users/stapi/OneDrive/Desktop/GD32VW553/V1_MQTT_OK/GD32VW55X_Wifi_BLE_SDK/GD32VW55x_RELEASE_V1.0.2/MSDK/wpa_supplicant/src/crypto\aes-internal-dec.c **** 
 159:C:/Users/stapi/OneDrive/Desktop/GD32VW553/V1_MQTT_OK/GD32VW55X_Wifi_BLE_SDK/GD32VW55x_RELEASE_V1.0.2/MSDK/wpa_supplicant/src/crypto\aes-internal-dec.c **** void aes_decrypt_deinit(void *ctx)
 160:C:/Users/stapi/OneDrive/Desktop/GD32VW553/V1_MQTT_OK/GD32VW55X_Wifi_BLE_SDK/GD32VW55x_RELEASE_V1.0.2/MSDK/wpa_supplicant/src/crypto\aes-internal-dec.c **** {
 1254              		.loc 1 160 1 is_stmt 1
 1255              		.cfi_startproc
 1256              	.LVL67:
 1257 0000 17030000 		call	t0,__riscv_save_1
 1257      E7020300 
 1258              		.cfi_offset 8, -8
 1259              		.cfi_offset 1, -4
 1260              		.cfi_def_cfa_offset 16
 161:C:/Users/stapi/OneDrive/Desktop/GD32VW553/V1_MQTT_OK/GD32VW55X_Wifi_BLE_SDK/GD32VW55x_RELEASE_V1.0.2/MSDK/wpa_supplicant/src/crypto\aes-internal-dec.c **** 	os_memset(ctx, 0, AES_PRIV_SIZE);
 1261              		.loc 1 161 2
 1262 0008 1306400F 		li	a2,244
 1263 000c 8145     		li	a1,0
 160:C:/Users/stapi/OneDrive/Desktop/GD32VW553/V1_MQTT_OK/GD32VW55X_Wifi_BLE_SDK/GD32VW55x_RELEASE_V1.0.2/MSDK/wpa_supplicant/src/crypto\aes-internal-dec.c **** 	os_memset(ctx, 0, AES_PRIV_SIZE);
 1264              		.loc 1 160 1 is_stmt 0
 1265 000e 2A84     		mv	s0,a0
 1266              		.loc 1 161 2
 1267 0010 97000000 		call	os_memset
 1267      E7800000 
 1268              	.LVL68:
 162:C:/Users/stapi/OneDrive/Desktop/GD32VW553/V1_MQTT_OK/GD32VW55X_Wifi_BLE_SDK/GD32VW55x_RELEASE_V1.0.2/MSDK/wpa_supplicant/src/crypto\aes-internal-dec.c **** 	os_free(ctx);
 1269              		.loc 1 162 2 is_stmt 1
 1270 0018 2285     		mv	a0,s0
 1271 001a 97000000 		call	os_free
 1271      E7800000 
 1272              	.LVL69:
 163:C:/Users/stapi/OneDrive/Desktop/GD32VW553/V1_MQTT_OK/GD32VW55X_Wifi_BLE_SDK/GD32VW55x_RELEASE_V1.0.2/MSDK/wpa_supplicant/src/crypto\aes-internal-dec.c **** }
 1273              		.loc 1 163 1 is_stmt 0
 1274 0022 17030000 		tail	__riscv_restore_1
 1274      67000300 
 1275              		.cfi_restore 8
 1276              		.cfi_restore 1
 1277              		.cfi_def_cfa_offset 0
 1278              		.cfi_endproc
 1279              	.LFE76:
 1281              		.text
 1282              	.Letext0:
 1283              		.file 3 "c:\\users\\stapi\\onedrive\\desktop\\gd32vw553\\embeddedbuilder_v1.4.7.26843\\tools\\nucl
 1284              		.file 4 "c:\\users\\stapi\\onedrive\\desktop\\gd32vw553\\embeddedbuilder_v1.4.7.26843\\tools\\nucl
 1285              		.file 5 "c:\\users\\stapi\\onedrive\\desktop\\gd32vw553\\embeddedbuilder_v1.4.7.26843\\tools\\nucl
 1286              		.file 6 "..\\..\\..\\..\\wpa_supplicant\\src\\utils/common.h"
 1287              		.file 7 "..\\..\\..\\..\\wpa_supplicant\\src\\utils/os.h"
DEFINED SYMBOLS
                            *ABS*:0000000000000000 aes-internal-dec.c
C:\Users\stapi\AppData\Local\Temp\cccR0yaZ.s:13     .text.aes_decrypt_init:0000000000000000 aes_decrypt_init
C:\Users\stapi\AppData\Local\Temp\cccR0yaZ.s:17     .text.aes_decrypt_init:0000000000000000 .L0 
C:\Users\stapi\AppData\Local\Temp\cccR0yaZ.s:19     .text.aes_decrypt_init:0000000000000000 .L0 
C:\Users\stapi\AppData\Local\Temp\cccR0yaZ.s:20     .text.aes_decrypt_init:0000000000000008 .L0 
C:\Users\stapi\AppData\Local\Temp\cccR0yaZ.s:21     .text.aes_decrypt_init:0000000000000008 .L0 
C:\Users\stapi\AppData\Local\Temp\cccR0yaZ.s:22     .text.aes_decrypt_init:0000000000000008 .L0 
C:\Users\stapi\AppData\Local\Temp\cccR0yaZ.s:23     .text.aes_decrypt_init:0000000000000008 .L0 
C:\Users\stapi\AppData\Local\Temp\cccR0yaZ.s:24     .text.aes_decrypt_init:0000000000000008 .L0 
C:\Users\stapi\AppData\Local\Temp\cccR0yaZ.s:26     .text.aes_decrypt_init:0000000000000008 .L0 
C:\Users\stapi\AppData\Local\Temp\cccR0yaZ.s:27     .text.aes_decrypt_init:0000000000000008 .L0 
C:\Users\stapi\AppData\Local\Temp\cccR0yaZ.s:28     .text.aes_decrypt_init:0000000000000008 .L0 
C:\Users\stapi\AppData\Local\Temp\cccR0yaZ.s:29     .text.aes_decrypt_init:0000000000000008 .L0 
C:\Users\stapi\AppData\Local\Temp\cccR0yaZ.s:31     .text.aes_decrypt_init:000000000000000a .L0 
C:\Users\stapi\AppData\Local\Temp\cccR0yaZ.s:34     .text.aes_decrypt_init:000000000000000e .L0 
C:\Users\stapi\AppData\Local\Temp\cccR0yaZ.s:36     .text.aes_decrypt_init:0000000000000010 .L0 
C:\Users\stapi\AppData\Local\Temp\cccR0yaZ.s:41     .text.aes_decrypt_init:000000000000001a .L0 
C:\Users\stapi\AppData\Local\Temp\cccR0yaZ.s:42     .text.aes_decrypt_init:000000000000001a .L0 
C:\Users\stapi\AppData\Local\Temp\cccR0yaZ.s:47     .text.aes_decrypt_init:000000000000001c .L0 
C:\Users\stapi\AppData\Local\Temp\cccR0yaZ.s:48     .text.aes_decrypt_init:000000000000001c .L0 
C:\Users\stapi\AppData\Local\Temp\cccR0yaZ.s:49     .text.aes_decrypt_init:000000000000001c .L0 
C:\Users\stapi\AppData\Local\Temp\cccR0yaZ.s:50     .text.aes_decrypt_init:000000000000001c .L0 
C:\Users\stapi\AppData\Local\Temp\cccR0yaZ.s:51     .text.aes_decrypt_init:000000000000001c .L0 
C:\Users\stapi\AppData\Local\Temp\cccR0yaZ.s:57     .text.aes_decrypt_init:000000000000002a .L0 
C:\Users\stapi\AppData\Local\Temp\cccR0yaZ.s:58     .text.aes_decrypt_init:000000000000002a .L0 
C:\Users\stapi\AppData\Local\Temp\cccR0yaZ.s:61     .text.aes_decrypt_init:000000000000002e .L0 
C:\Users\stapi\AppData\Local\Temp\cccR0yaZ.s:64     .text.aes_decrypt_init:0000000000000034 .L0 
C:\Users\stapi\AppData\Local\Temp\cccR0yaZ.s:67     .text.aes_decrypt_init:000000000000003a .L0 
C:\Users\stapi\AppData\Local\Temp\cccR0yaZ.s:71     .text.aes_decrypt_init:000000000000003c .L0 
C:\Users\stapi\AppData\Local\Temp\cccR0yaZ.s:72     .text.aes_decrypt_init:000000000000003c .L0 
C:\Users\stapi\AppData\Local\Temp\cccR0yaZ.s:75     .text.aes_decrypt_init:0000000000000044 .L0 
C:\Users\stapi\AppData\Local\Temp\cccR0yaZ.s:80     .text.aes_decrypt_init:000000000000004e .L0 
C:\Users\stapi\AppData\Local\Temp\cccR0yaZ.s:82     .text.aes_decrypt_init:0000000000000050 .L0 
C:\Users\stapi\AppData\Local\Temp\cccR0yaZ.s:88     .text.aes_decrypt_init:0000000000000058 .L0 
C:\Users\stapi\AppData\Local\Temp\cccR0yaZ.s:99     .text.aes_decrypt_init:000000000000005c .L0 
C:\Users\stapi\AppData\Local\Temp\cccR0yaZ.s:100    .text.aes_decrypt_init:000000000000005c .L0 
C:\Users\stapi\AppData\Local\Temp\cccR0yaZ.s:105    .text.aes_decrypt_init:0000000000000060 .L0 
C:\Users\stapi\AppData\Local\Temp\cccR0yaZ.s:106    .text.aes_decrypt_init:0000000000000060 .L0 
C:\Users\stapi\AppData\Local\Temp\cccR0yaZ.s:107    .text.aes_decrypt_init:0000000000000060 .L0 
C:\Users\stapi\AppData\Local\Temp\cccR0yaZ.s:111    .text.aes_decrypt_init:0000000000000064 .L0 
C:\Users\stapi\AppData\Local\Temp\cccR0yaZ.s:112    .text.aes_decrypt_init:0000000000000064 .L0 
C:\Users\stapi\AppData\Local\Temp\cccR0yaZ.s:114    .text.aes_decrypt_init:000000000000006e .L0 
C:\Users\stapi\AppData\Local\Temp\cccR0yaZ.s:115    .text.aes_decrypt_init:000000000000006e .L0 
C:\Users\stapi\AppData\Local\Temp\cccR0yaZ.s:116    .text.aes_decrypt_init:000000000000006e .L0 
C:\Users\stapi\AppData\Local\Temp\cccR0yaZ.s:117    .text.aes_decrypt_init:000000000000006e .L0 
C:\Users\stapi\AppData\Local\Temp\cccR0yaZ.s:118    .text.aes_decrypt_init:000000000000006e .L0 
C:\Users\stapi\AppData\Local\Temp\cccR0yaZ.s:119    .text.aes_decrypt_init:000000000000006e .L0 
C:\Users\stapi\AppData\Local\Temp\cccR0yaZ.s:122    .text.aes_decrypt_init:000000000000006e .L0 
C:\Users\stapi\AppData\Local\Temp\cccR0yaZ.s:126    .text.aes_decrypt_init:000000000000006e .L0 
C:\Users\stapi\AppData\Local\Temp\cccR0yaZ.s:127    .text.aes_decrypt_init:000000000000006e .L0 
C:\Users\stapi\AppData\Local\Temp\cccR0yaZ.s:129    .text.aes_decrypt_init:0000000000000072 .L0 
C:\Users\stapi\AppData\Local\Temp\cccR0yaZ.s:132    .text.aes_decrypt_init:0000000000000074 .L0 
C:\Users\stapi\AppData\Local\Temp\cccR0yaZ.s:133    .text.aes_decrypt_init:0000000000000074 .L0 
C:\Users\stapi\AppData\Local\Temp\cccR0yaZ.s:136    .text.aes_decrypt_init:0000000000000076 .L0 
C:\Users\stapi\AppData\Local\Temp\cccR0yaZ.s:138    .text.aes_decrypt_init:000000000000007a .L0 
C:\Users\stapi\AppData\Local\Temp\cccR0yaZ.s:139    .text.aes_decrypt_init:000000000000007a .L0 
C:\Users\stapi\AppData\Local\Temp\cccR0yaZ.s:141    .text.aes_decrypt_init:000000000000007c .L0 
C:\Users\stapi\AppData\Local\Temp\cccR0yaZ.s:142    .text.aes_decrypt_init:000000000000007c .L0 
C:\Users\stapi\AppData\Local\Temp\cccR0yaZ.s:144    .text.aes_decrypt_init:0000000000000080 .L0 
C:\Users\stapi\AppData\Local\Temp\cccR0yaZ.s:147    .text.aes_decrypt_init:0000000000000082 .L0 
C:\Users\stapi\AppData\Local\Temp\cccR0yaZ.s:149    .text.aes_decrypt_init:0000000000000084 .L0 
C:\Users\stapi\AppData\Local\Temp\cccR0yaZ.s:151    .text.aes_decrypt_init:0000000000000088 .L0 
C:\Users\stapi\AppData\Local\Temp\cccR0yaZ.s:152    .text.aes_decrypt_init:0000000000000088 .L0 
C:\Users\stapi\AppData\Local\Temp\cccR0yaZ.s:154    .text.aes_decrypt_init:000000000000008a .L0 
C:\Users\stapi\AppData\Local\Temp\cccR0yaZ.s:155    .text.aes_decrypt_init:000000000000008a .L0 
C:\Users\stapi\AppData\Local\Temp\cccR0yaZ.s:157    .text.aes_decrypt_init:000000000000008e .L0 
C:\Users\stapi\AppData\Local\Temp\cccR0yaZ.s:160    .text.aes_decrypt_init:0000000000000090 .L0 
C:\Users\stapi\AppData\Local\Temp\cccR0yaZ.s:161    .text.aes_decrypt_init:0000000000000090 .L0 
C:\Users\stapi\AppData\Local\Temp\cccR0yaZ.s:163    .text.aes_decrypt_init:0000000000000094 .L0 
C:\Users\stapi\AppData\Local\Temp\cccR0yaZ.s:164    .text.aes_decrypt_init:0000000000000094 .L0 
C:\Users\stapi\AppData\Local\Temp\cccR0yaZ.s:166    .text.aes_decrypt_init:0000000000000096 .L0 
C:\Users\stapi\AppData\Local\Temp\cccR0yaZ.s:167    .text.aes_decrypt_init:0000000000000096 .L0 
C:\Users\stapi\AppData\Local\Temp\cccR0yaZ.s:169    .text.aes_decrypt_init:000000000000009a .L0 
C:\Users\stapi\AppData\Local\Temp\cccR0yaZ.s:172    .text.aes_decrypt_init:000000000000009c .L0 
C:\Users\stapi\AppData\Local\Temp\cccR0yaZ.s:173    .text.aes_decrypt_init:000000000000009c .L0 
C:\Users\stapi\AppData\Local\Temp\cccR0yaZ.s:175    .text.aes_decrypt_init:00000000000000a0 .L0 
C:\Users\stapi\AppData\Local\Temp\cccR0yaZ.s:176    .text.aes_decrypt_init:00000000000000a0 .L0 
C:\Users\stapi\AppData\Local\Temp\cccR0yaZ.s:179    .text.aes_decrypt_init:00000000000000a2 .L0 
C:\Users\stapi\AppData\Local\Temp\cccR0yaZ.s:184    .text.aes_decrypt_init:00000000000000a6 .L0 
C:\Users\stapi\AppData\Local\Temp\cccR0yaZ.s:185    .text.aes_decrypt_init:00000000000000a6 .L0 
C:\Users\stapi\AppData\Local\Temp\cccR0yaZ.s:188    .text.aes_decrypt_init:00000000000000a8 .L0 
C:\Users\stapi\AppData\Local\Temp\cccR0yaZ.s:189    .text.aes_decrypt_init:00000000000000a8 .L0 
C:\Users\stapi\AppData\Local\Temp\cccR0yaZ.s:190    .text.aes_decrypt_init:00000000000000a8 .L0 
C:\Users\stapi\AppData\Local\Temp\cccR0yaZ.s:192    .text.aes_decrypt_init:00000000000000aa .L0 
C:\Users\stapi\AppData\Local\Temp\cccR0yaZ.s:196    .text.aes_decrypt_init:00000000000000ae .L0 
C:\Users\stapi\AppData\Local\Temp\cccR0yaZ.s:197    .text.aes_decrypt_init:00000000000000ae .L0 
C:\Users\stapi\AppData\Local\Temp\cccR0yaZ.s:206    .text.aes_decrypt_init:00000000000000b0 .L0 
C:\Users\stapi\AppData\Local\Temp\cccR0yaZ.s:211    .text.aes_decrypt_init:00000000000000b0 .L0 
C:\Users\stapi\AppData\Local\Temp\cccR0yaZ.s:214    .text.aes_decrypt_init:00000000000000b0 .L0 
C:\Users\stapi\AppData\Local\Temp\cccR0yaZ.s:215    .text.aes_decrypt_init:00000000000000b0 .L0 
C:\Users\stapi\AppData\Local\Temp\cccR0yaZ.s:217    .text.aes_decrypt_init:00000000000000b4 .L0 
C:\Users\stapi\AppData\Local\Temp\cccR0yaZ.s:219    .text.aes_decrypt_init:00000000000000b8 .L0 
C:\Users\stapi\AppData\Local\Temp\cccR0yaZ.s:221    .text.aes_decrypt_init:00000000000000bc .L0 
C:\Users\stapi\AppData\Local\Temp\cccR0yaZ.s:223    .text.aes_decrypt_init:00000000000000c0 .L0 
C:\Users\stapi\AppData\Local\Temp\cccR0yaZ.s:225    .text.aes_decrypt_init:00000000000000c4 .L0 
C:\Users\stapi\AppData\Local\Temp\cccR0yaZ.s:227    .text.aes_decrypt_init:00000000000000c8 .L0 
C:\Users\stapi\AppData\Local\Temp\cccR0yaZ.s:229    .text.aes_decrypt_init:00000000000000cc .L0 
C:\Users\stapi\AppData\Local\Temp\cccR0yaZ.s:233    .text.aes_decrypt_init:00000000000000d0 .L0 
C:\Users\stapi\AppData\Local\Temp\cccR0yaZ.s:237    .text.aes_decrypt_init:00000000000000d2 .L0 
C:\Users\stapi\AppData\Local\Temp\cccR0yaZ.s:241    .text.aes_decrypt_init:00000000000000d6 .L0 
C:\Users\stapi\AppData\Local\Temp\cccR0yaZ.s:245    .text.aes_decrypt_init:00000000000000da .L0 
C:\Users\stapi\AppData\Local\Temp\cccR0yaZ.s:247    .text.aes_decrypt_init:00000000000000de .L0 
C:\Users\stapi\AppData\Local\Temp\cccR0yaZ.s:250    .text.aes_decrypt_init:00000000000000e6 .L0 
C:\Users\stapi\AppData\Local\Temp\cccR0yaZ.s:252    .text.aes_decrypt_init:00000000000000e8 .L0 
C:\Users\stapi\AppData\Local\Temp\cccR0yaZ.s:254    .text.aes_decrypt_init:00000000000000ea .L0 
C:\Users\stapi\AppData\Local\Temp\cccR0yaZ.s:256    .text.aes_decrypt_init:00000000000000ee .L0 
C:\Users\stapi\AppData\Local\Temp\cccR0yaZ.s:258    .text.aes_decrypt_init:00000000000000f2 .L0 
C:\Users\stapi\AppData\Local\Temp\cccR0yaZ.s:261    .text.aes_decrypt_init:00000000000000f8 .L0 
C:\Users\stapi\AppData\Local\Temp\cccR0yaZ.s:265    .text.aes_decrypt_init:00000000000000fc .L0 
C:\Users\stapi\AppData\Local\Temp\cccR0yaZ.s:269    .text.aes_decrypt_init:0000000000000100 .L0 
C:\Users\stapi\AppData\Local\Temp\cccR0yaZ.s:273    .text.aes_decrypt_init:0000000000000104 .L0 
C:\Users\stapi\AppData\Local\Temp\cccR0yaZ.s:282    .text.aes_decrypt_init:000000000000010a .L0 
C:\Users\stapi\AppData\Local\Temp\cccR0yaZ.s:286    .text.aes_decrypt_init:000000000000010e .L0 
C:\Users\stapi\AppData\Local\Temp\cccR0yaZ.s:290    .text.aes_decrypt_init:0000000000000112 .L0 
C:\Users\stapi\AppData\Local\Temp\cccR0yaZ.s:292    .text.aes_decrypt_init:0000000000000114 .L0 
C:\Users\stapi\AppData\Local\Temp\cccR0yaZ.s:294    .text.aes_decrypt_init:0000000000000116 .L0 
C:\Users\stapi\AppData\Local\Temp\cccR0yaZ.s:295    .text.aes_decrypt_init:0000000000000116 .L0 
C:\Users\stapi\AppData\Local\Temp\cccR0yaZ.s:296    .text.aes_decrypt_init:0000000000000116 .L0 
C:\Users\stapi\AppData\Local\Temp\cccR0yaZ.s:299    .text.aes_decrypt_init:000000000000011c .L0 
C:\Users\stapi\AppData\Local\Temp\cccR0yaZ.s:300    .text.aes_decrypt_init:000000000000011c .L0 
C:\Users\stapi\AppData\Local\Temp\cccR0yaZ.s:308    .text.aes_decrypt_init:0000000000000120 .L0 
C:\Users\stapi\AppData\Local\Temp\cccR0yaZ.s:309    .text.aes_decrypt_init:0000000000000120 .L0 
C:\Users\stapi\AppData\Local\Temp\cccR0yaZ.s:314    .text.aes_decrypt_init:000000000000012a .L0 
C:\Users\stapi\AppData\Local\Temp\cccR0yaZ.s:315    .text.aes_decrypt_init:000000000000012a .L0 
C:\Users\stapi\AppData\Local\Temp\cccR0yaZ.s:318    .text.aes_decrypt_init:000000000000012e .L0 
C:\Users\stapi\AppData\Local\Temp\cccR0yaZ.s:325    .text.aes_decrypt:0000000000000000 aes_decrypt
C:\Users\stapi\AppData\Local\Temp\cccR0yaZ.s:328    .text.aes_decrypt:0000000000000000 .L0 
C:\Users\stapi\AppData\Local\Temp\cccR0yaZ.s:330    .text.aes_decrypt:0000000000000000 .L0 
C:\Users\stapi\AppData\Local\Temp\cccR0yaZ.s:331    .text.aes_decrypt:0000000000000008 .L0 
C:\Users\stapi\AppData\Local\Temp\cccR0yaZ.s:332    .text.aes_decrypt:0000000000000008 .L0 
C:\Users\stapi\AppData\Local\Temp\cccR0yaZ.s:333    .text.aes_decrypt:0000000000000008 .L0 
C:\Users\stapi\AppData\Local\Temp\cccR0yaZ.s:334    .text.aes_decrypt:0000000000000008 .L0 
C:\Users\stapi\AppData\Local\Temp\cccR0yaZ.s:335    .text.aes_decrypt:0000000000000008 .L0 
C:\Users\stapi\AppData\Local\Temp\cccR0yaZ.s:336    .text.aes_decrypt:0000000000000008 .L0 
C:\Users\stapi\AppData\Local\Temp\cccR0yaZ.s:337    .text.aes_decrypt:0000000000000008 .L0 
C:\Users\stapi\AppData\Local\Temp\cccR0yaZ.s:338    .text.aes_decrypt:0000000000000008 .L0 
C:\Users\stapi\AppData\Local\Temp\cccR0yaZ.s:339    .text.aes_decrypt:0000000000000008 .L0 
C:\Users\stapi\AppData\Local\Temp\cccR0yaZ.s:340    .text.aes_decrypt:0000000000000008 .L0 
C:\Users\stapi\AppData\Local\Temp\cccR0yaZ.s:341    .text.aes_decrypt:0000000000000008 .L0 
C:\Users\stapi\AppData\Local\Temp\cccR0yaZ.s:344    .text.aes_decrypt:0000000000000008 .L0 
C:\Users\stapi\AppData\Local\Temp\cccR0yaZ.s:347    .text.aes_decrypt:0000000000000008 .L0 
C:\Users\stapi\AppData\Local\Temp\cccR0yaZ.s:348    .text.aes_decrypt:0000000000000008 .L0 
C:\Users\stapi\AppData\Local\Temp\cccR0yaZ.s:349    .text.aes_decrypt:0000000000000008 .L0 
C:\Users\stapi\AppData\Local\Temp\cccR0yaZ.s:350    .text.aes_decrypt:0000000000000008 .L0 
C:\Users\stapi\AppData\Local\Temp\cccR0yaZ.s:351    .text.aes_decrypt:0000000000000008 .L0 
C:\Users\stapi\AppData\Local\Temp\cccR0yaZ.s:354    .text.aes_decrypt:0000000000000010 .L0 
C:\Users\stapi\AppData\Local\Temp\cccR0yaZ.s:356    .text.aes_decrypt:0000000000000014 .L0 
C:\Users\stapi\AppData\Local\Temp\cccR0yaZ.s:361    .text.aes_decrypt:0000000000000020 .L0 
C:\Users\stapi\AppData\Local\Temp\cccR0yaZ.s:363    .text.aes_decrypt:0000000000000022 .L0 
C:\Users\stapi\AppData\Local\Temp\cccR0yaZ.s:365    .text.aes_decrypt:0000000000000026 .L0 
C:\Users\stapi\AppData\Local\Temp\cccR0yaZ.s:368    .text.aes_decrypt:000000000000002e .L0 
C:\Users\stapi\AppData\Local\Temp\cccR0yaZ.s:370    .text.aes_decrypt:0000000000000030 .L0 
C:\Users\stapi\AppData\Local\Temp\cccR0yaZ.s:372    .text.aes_decrypt:0000000000000034 .L0 
C:\Users\stapi\AppData\Local\Temp\cccR0yaZ.s:375    .text.aes_decrypt:000000000000003a .L0 
C:\Users\stapi\AppData\Local\Temp\cccR0yaZ.s:377    .text.aes_decrypt:000000000000003c .L0 
C:\Users\stapi\AppData\Local\Temp\cccR0yaZ.s:379    .text.aes_decrypt:000000000000003e .L0 
C:\Users\stapi\AppData\Local\Temp\cccR0yaZ.s:381    .text.aes_decrypt:0000000000000042 .L0 
C:\Users\stapi\AppData\Local\Temp\cccR0yaZ.s:384    .text.aes_decrypt:0000000000000046 .L0 
C:\Users\stapi\AppData\Local\Temp\cccR0yaZ.s:385    .text.aes_decrypt:0000000000000046 .L0 
C:\Users\stapi\AppData\Local\Temp\cccR0yaZ.s:387    .text.aes_decrypt:000000000000004a .L0 
C:\Users\stapi\AppData\Local\Temp\cccR0yaZ.s:390    .text.aes_decrypt:0000000000000050 .L0 
C:\Users\stapi\AppData\Local\Temp\cccR0yaZ.s:394    .text.aes_decrypt:0000000000000058 .L0 
C:\Users\stapi\AppData\Local\Temp\cccR0yaZ.s:398    .text.aes_decrypt:000000000000005a .L0 
C:\Users\stapi\AppData\Local\Temp\cccR0yaZ.s:402    .text.aes_decrypt:000000000000005c .L0 
C:\Users\stapi\AppData\Local\Temp\cccR0yaZ.s:407    .text.aes_decrypt:0000000000000062 .L0 
C:\Users\stapi\AppData\Local\Temp\cccR0yaZ.s:411    .text.aes_decrypt:0000000000000064 .L0 
C:\Users\stapi\AppData\Local\Temp\cccR0yaZ.s:414    .text.aes_decrypt:0000000000000068 .L0 
C:\Users\stapi\AppData\Local\Temp\cccR0yaZ.s:418    .text.aes_decrypt:000000000000006c .L0 
C:\Users\stapi\AppData\Local\Temp\cccR0yaZ.s:419    .text.aes_decrypt:000000000000006c .L0 
C:\Users\stapi\AppData\Local\Temp\cccR0yaZ.s:428    .text.aes_decrypt:0000000000000082 .L0 
C:\Users\stapi\AppData\Local\Temp\cccR0yaZ.s:432    .text.aes_decrypt:0000000000000086 .L0 
C:\Users\stapi\AppData\Local\Temp\cccR0yaZ.s:433    .text.aes_decrypt:0000000000000086 .L0 
C:\Users\stapi\AppData\Local\Temp\cccR0yaZ.s:443    .text.aes_decrypt:00000000000000a0 .L0 
C:\Users\stapi\AppData\Local\Temp\cccR0yaZ.s:447    .text.aes_decrypt:00000000000000a4 .L0 
C:\Users\stapi\AppData\Local\Temp\cccR0yaZ.s:448    .text.aes_decrypt:00000000000000a4 .L0 
C:\Users\stapi\AppData\Local\Temp\cccR0yaZ.s:453    .text.aes_decrypt:00000000000000ac .L0 
C:\Users\stapi\AppData\Local\Temp\cccR0yaZ.s:456    .text.aes_decrypt:00000000000000ac .L0 
C:\Users\stapi\AppData\Local\Temp\cccR0yaZ.s:461    .text.aes_decrypt:00000000000000ac .L0 
C:\Users\stapi\AppData\Local\Temp\cccR0yaZ.s:466    .text.aes_decrypt:00000000000000ac .L0 
C:\Users\stapi\AppData\Local\Temp\cccR0yaZ.s:469    .text.aes_decrypt:00000000000000ac .L0 
C:\Users\stapi\AppData\Local\Temp\cccR0yaZ.s:470    .text.aes_decrypt:00000000000000ac .L0 
C:\Users\stapi\AppData\Local\Temp\cccR0yaZ.s:476    .text.aes_decrypt:00000000000000c0 .L0 
C:\Users\stapi\AppData\Local\Temp\cccR0yaZ.s:479    .text.aes_decrypt:00000000000000c2 .L0 
C:\Users\stapi\AppData\Local\Temp\cccR0yaZ.s:485    .text.aes_decrypt:00000000000000ce .L0 
C:\Users\stapi\AppData\Local\Temp\cccR0yaZ.s:489    .text.aes_decrypt:00000000000000d2 .L0 
C:\Users\stapi\AppData\Local\Temp\cccR0yaZ.s:494    .text.aes_decrypt:00000000000000d6 .L0 
C:\Users\stapi\AppData\Local\Temp\cccR0yaZ.s:498    .text.aes_decrypt:00000000000000da .L0 
C:\Users\stapi\AppData\Local\Temp\cccR0yaZ.s:505    .text.aes_decrypt:00000000000000e8 .L0 
C:\Users\stapi\AppData\Local\Temp\cccR0yaZ.s:510    .text.aes_decrypt:00000000000000f0 .L0 
C:\Users\stapi\AppData\Local\Temp\cccR0yaZ.s:517    .text.aes_decrypt:00000000000000fe .L0 
C:\Users\stapi\AppData\Local\Temp\cccR0yaZ.s:522    .text.aes_decrypt:0000000000000106 .L0 
C:\Users\stapi\AppData\Local\Temp\cccR0yaZ.s:527    .text.aes_decrypt:000000000000010a .L0 
C:\Users\stapi\AppData\Local\Temp\cccR0yaZ.s:532    .text.aes_decrypt:000000000000010a .L0 
C:\Users\stapi\AppData\Local\Temp\cccR0yaZ.s:537    .text.aes_decrypt:000000000000010a .L0 
C:\Users\stapi\AppData\Local\Temp\cccR0yaZ.s:540    .text.aes_decrypt:000000000000010a .L0 
C:\Users\stapi\AppData\Local\Temp\cccR0yaZ.s:541    .text.aes_decrypt:000000000000010a .L0 
C:\Users\stapi\AppData\Local\Temp\cccR0yaZ.s:546    .text.aes_decrypt:000000000000011a .L0 
C:\Users\stapi\AppData\Local\Temp\cccR0yaZ.s:549    .text.aes_decrypt:0000000000000122 .L0 
C:\Users\stapi\AppData\Local\Temp\cccR0yaZ.s:555    .text.aes_decrypt:000000000000012e .L0 
C:\Users\stapi\AppData\Local\Temp\cccR0yaZ.s:559    .text.aes_decrypt:0000000000000132 .L0 
C:\Users\stapi\AppData\Local\Temp\cccR0yaZ.s:563    .text.aes_decrypt:0000000000000136 .L0 
C:\Users\stapi\AppData\Local\Temp\cccR0yaZ.s:567    .text.aes_decrypt:000000000000013a .L0 
C:\Users\stapi\AppData\Local\Temp\cccR0yaZ.s:574    .text.aes_decrypt:0000000000000148 .L0 
C:\Users\stapi\AppData\Local\Temp\cccR0yaZ.s:579    .text.aes_decrypt:0000000000000150 .L0 
C:\Users\stapi\AppData\Local\Temp\cccR0yaZ.s:586    .text.aes_decrypt:000000000000015e .L0 
C:\Users\stapi\AppData\Local\Temp\cccR0yaZ.s:591    .text.aes_decrypt:0000000000000166 .L0 
C:\Users\stapi\AppData\Local\Temp\cccR0yaZ.s:596    .text.aes_decrypt:000000000000016a .L0 
C:\Users\stapi\AppData\Local\Temp\cccR0yaZ.s:601    .text.aes_decrypt:000000000000016a .L0 
C:\Users\stapi\AppData\Local\Temp\cccR0yaZ.s:606    .text.aes_decrypt:000000000000016a .L0 
C:\Users\stapi\AppData\Local\Temp\cccR0yaZ.s:609    .text.aes_decrypt:000000000000016a .L0 
C:\Users\stapi\AppData\Local\Temp\cccR0yaZ.s:610    .text.aes_decrypt:000000000000016a .L0 
C:\Users\stapi\AppData\Local\Temp\cccR0yaZ.s:622    .text.aes_decrypt:0000000000000188 .L0 
C:\Users\stapi\AppData\Local\Temp\cccR0yaZ.s:626    .text.aes_decrypt:000000000000018c .L0 
C:\Users\stapi\AppData\Local\Temp\cccR0yaZ.s:632    .text.aes_decrypt:0000000000000192 .L0 
C:\Users\stapi\AppData\Local\Temp\cccR0yaZ.s:636    .text.aes_decrypt:0000000000000196 .L0 
C:\Users\stapi\AppData\Local\Temp\cccR0yaZ.s:643    .text.aes_decrypt:00000000000001a4 .L0 
C:\Users\stapi\AppData\Local\Temp\cccR0yaZ.s:647    .text.aes_decrypt:00000000000001a8 .L0 
C:\Users\stapi\AppData\Local\Temp\cccR0yaZ.s:652    .text.aes_decrypt:00000000000001ac .L0 
C:\Users\stapi\AppData\Local\Temp\cccR0yaZ.s:656    .text.aes_decrypt:00000000000001b0 .L0 
C:\Users\stapi\AppData\Local\Temp\cccR0yaZ.s:663    .text.aes_decrypt:00000000000001be .L0 
C:\Users\stapi\AppData\Local\Temp\cccR0yaZ.s:667    .text.aes_decrypt:00000000000001c2 .L0 
C:\Users\stapi\AppData\Local\Temp\cccR0yaZ.s:673    .text.aes_decrypt:00000000000001ca .L0 
C:\Users\stapi\AppData\Local\Temp\cccR0yaZ.s:677    .text.aes_decrypt:00000000000001ce .L0 
C:\Users\stapi\AppData\Local\Temp\cccR0yaZ.s:682    .text.aes_decrypt:00000000000001d2 .L0 
C:\Users\stapi\AppData\Local\Temp\cccR0yaZ.s:687    .text.aes_decrypt:00000000000001d2 .L0 
C:\Users\stapi\AppData\Local\Temp\cccR0yaZ.s:692    .text.aes_decrypt:00000000000001d2 .L0 
C:\Users\stapi\AppData\Local\Temp\cccR0yaZ.s:695    .text.aes_decrypt:00000000000001d2 .L0 
C:\Users\stapi\AppData\Local\Temp\cccR0yaZ.s:696    .text.aes_decrypt:00000000000001d2 .L0 
C:\Users\stapi\AppData\Local\Temp\cccR0yaZ.s:700    .text.aes_decrypt:00000000000001d6 .L0 
C:\Users\stapi\AppData\Local\Temp\cccR0yaZ.s:704    .text.aes_decrypt:00000000000001d8 .L0 
C:\Users\stapi\AppData\Local\Temp\cccR0yaZ.s:710    .text.aes_decrypt:00000000000001de .L0 
C:\Users\stapi\AppData\Local\Temp\cccR0yaZ.s:714    .text.aes_decrypt:00000000000001e2 .L0 
C:\Users\stapi\AppData\Local\Temp\cccR0yaZ.s:719    .text.aes_decrypt:00000000000001e8 .L0 
C:\Users\stapi\AppData\Local\Temp\cccR0yaZ.s:728    .text.aes_decrypt:00000000000001f0 .L0 
C:\Users\stapi\AppData\Local\Temp\cccR0yaZ.s:733    .text.aes_decrypt:00000000000001f6 .L0 
C:\Users\stapi\AppData\Local\Temp\cccR0yaZ.s:737    .text.aes_decrypt:00000000000001f8 .L0 
C:\Users\stapi\AppData\Local\Temp\cccR0yaZ.s:742    .text.aes_decrypt:0000000000000200 .L0 
C:\Users\stapi\AppData\Local\Temp\cccR0yaZ.s:746    .text.aes_decrypt:0000000000000204 .L0 
C:\Users\stapi\AppData\Local\Temp\cccR0yaZ.s:749    .text.aes_decrypt:0000000000000206 .L0 
C:\Users\stapi\AppData\Local\Temp\cccR0yaZ.s:750    .text.aes_decrypt:0000000000000206 .L0 
C:\Users\stapi\AppData\Local\Temp\cccR0yaZ.s:751    .text.aes_decrypt:0000000000000206 .L0 
C:\Users\stapi\AppData\Local\Temp\cccR0yaZ.s:776    .text.aes_decrypt:0000000000000254 .L0 
C:\Users\stapi\AppData\Local\Temp\cccR0yaZ.s:781    .text.aes_decrypt:0000000000000258 .L0 
C:\Users\stapi\AppData\Local\Temp\cccR0yaZ.s:786    .text.aes_decrypt:0000000000000258 .L0 
C:\Users\stapi\AppData\Local\Temp\cccR0yaZ.s:791    .text.aes_decrypt:0000000000000258 .L0 
C:\Users\stapi\AppData\Local\Temp\cccR0yaZ.s:794    .text.aes_decrypt:0000000000000258 .L0 
C:\Users\stapi\AppData\Local\Temp\cccR0yaZ.s:795    .text.aes_decrypt:0000000000000258 .L0 
C:\Users\stapi\AppData\Local\Temp\cccR0yaZ.s:801    .text.aes_decrypt:0000000000000264 .L0 
C:\Users\stapi\AppData\Local\Temp\cccR0yaZ.s:805    .text.aes_decrypt:0000000000000268 .L0 
C:\Users\stapi\AppData\Local\Temp\cccR0yaZ.s:810    .text.aes_decrypt:0000000000000270 .L0 
C:\Users\stapi\AppData\Local\Temp\cccR0yaZ.s:819    .text.aes_decrypt:0000000000000276 .L0 
C:\Users\stapi\AppData\Local\Temp\cccR0yaZ.s:823    .text.aes_decrypt:000000000000027a .L0 
C:\Users\stapi\AppData\Local\Temp\cccR0yaZ.s:827    .text.aes_decrypt:000000000000027e .L0 
C:\Users\stapi\AppData\Local\Temp\cccR0yaZ.s:831    .text.aes_decrypt:0000000000000282 .L0 
C:\Users\stapi\AppData\Local\Temp\cccR0yaZ.s:840    .text.aes_decrypt:000000000000028a .L0 
C:\Users\stapi\AppData\Local\Temp\cccR0yaZ.s:846    .text.aes_decrypt:0000000000000292 .L0 
C:\Users\stapi\AppData\Local\Temp\cccR0yaZ.s:851    .text.aes_decrypt:0000000000000292 .L0 
C:\Users\stapi\AppData\Local\Temp\cccR0yaZ.s:856    .text.aes_decrypt:0000000000000292 .L0 
C:\Users\stapi\AppData\Local\Temp\cccR0yaZ.s:859    .text.aes_decrypt:0000000000000292 .L0 
C:\Users\stapi\AppData\Local\Temp\cccR0yaZ.s:860    .text.aes_decrypt:0000000000000292 .L0 
C:\Users\stapi\AppData\Local\Temp\cccR0yaZ.s:869    .text.aes_decrypt:00000000000002aa .L0 
C:\Users\stapi\AppData\Local\Temp\cccR0yaZ.s:878    .text.aes_decrypt:00000000000002b2 .L0 
C:\Users\stapi\AppData\Local\Temp\cccR0yaZ.s:882    .text.aes_decrypt:00000000000002b6 .L0 
C:\Users\stapi\AppData\Local\Temp\cccR0yaZ.s:891    .text.aes_decrypt:00000000000002bc .L0 
C:\Users\stapi\AppData\Local\Temp\cccR0yaZ.s:895    .text.aes_decrypt:00000000000002c0 .L0 
C:\Users\stapi\AppData\Local\Temp\cccR0yaZ.s:904    .text.aes_decrypt:00000000000002c8 .L0 
C:\Users\stapi\AppData\Local\Temp\cccR0yaZ.s:910    .text.aes_decrypt:00000000000002ce .L0 
C:\Users\stapi\AppData\Local\Temp\cccR0yaZ.s:915    .text.aes_decrypt:00000000000002ce .L0 
C:\Users\stapi\AppData\Local\Temp\cccR0yaZ.s:920    .text.aes_decrypt:00000000000002ce .L0 
C:\Users\stapi\AppData\Local\Temp\cccR0yaZ.s:923    .text.aes_decrypt:00000000000002ce .L0 
C:\Users\stapi\AppData\Local\Temp\cccR0yaZ.s:924    .text.aes_decrypt:00000000000002ce .L0 
C:\Users\stapi\AppData\Local\Temp\cccR0yaZ.s:933    .text.aes_decrypt:00000000000002e6 .L0 
C:\Users\stapi\AppData\Local\Temp\cccR0yaZ.s:942    .text.aes_decrypt:00000000000002ee .L0 
C:\Users\stapi\AppData\Local\Temp\cccR0yaZ.s:946    .text.aes_decrypt:00000000000002f2 .L0 
C:\Users\stapi\AppData\Local\Temp\cccR0yaZ.s:955    .text.aes_decrypt:00000000000002fa .L0 
C:\Users\stapi\AppData\Local\Temp\cccR0yaZ.s:959    .text.aes_decrypt:00000000000002fe .L0 
C:\Users\stapi\AppData\Local\Temp\cccR0yaZ.s:968    .text.aes_decrypt:0000000000000306 .L0 
C:\Users\stapi\AppData\Local\Temp\cccR0yaZ.s:974    .text.aes_decrypt:000000000000030e .L0 
C:\Users\stapi\AppData\Local\Temp\cccR0yaZ.s:979    .text.aes_decrypt:000000000000030e .L0 
C:\Users\stapi\AppData\Local\Temp\cccR0yaZ.s:984    .text.aes_decrypt:000000000000030e .L0 
C:\Users\stapi\AppData\Local\Temp\cccR0yaZ.s:987    .text.aes_decrypt:000000000000030e .L0 
C:\Users\stapi\AppData\Local\Temp\cccR0yaZ.s:988    .text.aes_decrypt:000000000000030e .L0 
C:\Users\stapi\AppData\Local\Temp\cccR0yaZ.s:996    .text.aes_decrypt:0000000000000320 .L0 
C:\Users\stapi\AppData\Local\Temp\cccR0yaZ.s:1005   .text.aes_decrypt:0000000000000328 .L0 
C:\Users\stapi\AppData\Local\Temp\cccR0yaZ.s:1009   .text.aes_decrypt:000000000000032c .L0 
C:\Users\stapi\AppData\Local\Temp\cccR0yaZ.s:1018   .text.aes_decrypt:0000000000000334 .L0 
C:\Users\stapi\AppData\Local\Temp\cccR0yaZ.s:1024   .text.aes_decrypt:0000000000000340 .L0 
C:\Users\stapi\AppData\Local\Temp\cccR0yaZ.s:1029   .text.aes_decrypt:0000000000000348 .L0 
C:\Users\stapi\AppData\Local\Temp\cccR0yaZ.s:1032   .text.aes_decrypt:000000000000034c .L0 
C:\Users\stapi\AppData\Local\Temp\cccR0yaZ.s:1033   .text.aes_decrypt:000000000000034c .L0 
C:\Users\stapi\AppData\Local\Temp\cccR0yaZ.s:1037   .text.aes_decrypt:000000000000034e .L0 
C:\Users\stapi\AppData\Local\Temp\cccR0yaZ.s:1041   .text.aes_decrypt:0000000000000358 .L0 
C:\Users\stapi\AppData\Local\Temp\cccR0yaZ.s:1043   .text.aes_decrypt:000000000000035a .L0 
C:\Users\stapi\AppData\Local\Temp\cccR0yaZ.s:1047   .text.aes_decrypt:000000000000035e .L0 
C:\Users\stapi\AppData\Local\Temp\cccR0yaZ.s:1048   .text.aes_decrypt:000000000000035e .L0 
C:\Users\stapi\AppData\Local\Temp\cccR0yaZ.s:1051   .text.aes_decrypt:0000000000000362 .L0 
C:\Users\stapi\AppData\Local\Temp\cccR0yaZ.s:1053   .text.aes_decrypt:0000000000000366 .L0 
C:\Users\stapi\AppData\Local\Temp\cccR0yaZ.s:1055   .text.aes_decrypt:0000000000000368 .L0 
C:\Users\stapi\AppData\Local\Temp\cccR0yaZ.s:1057   .text.aes_decrypt:000000000000036c .L0 
C:\Users\stapi\AppData\Local\Temp\cccR0yaZ.s:1059   .text.aes_decrypt:000000000000036e .L0 
C:\Users\stapi\AppData\Local\Temp\cccR0yaZ.s:1061   .text.aes_decrypt:0000000000000372 .L0 
C:\Users\stapi\AppData\Local\Temp\cccR0yaZ.s:1063   .text.aes_decrypt:0000000000000374 .L0 
C:\Users\stapi\AppData\Local\Temp\cccR0yaZ.s:1065   .text.aes_decrypt:0000000000000378 .L0 
C:\Users\stapi\AppData\Local\Temp\cccR0yaZ.s:1067   .text.aes_decrypt:000000000000037c .L0 
C:\Users\stapi\AppData\Local\Temp\cccR0yaZ.s:1069   .text.aes_decrypt:000000000000037e .L0 
C:\Users\stapi\AppData\Local\Temp\cccR0yaZ.s:1071   .text.aes_decrypt:0000000000000380 .L0 
C:\Users\stapi\AppData\Local\Temp\cccR0yaZ.s:1073   .text.aes_decrypt:0000000000000384 .L0 
C:\Users\stapi\AppData\Local\Temp\cccR0yaZ.s:1075   .text.aes_decrypt:0000000000000386 .L0 
C:\Users\stapi\AppData\Local\Temp\cccR0yaZ.s:1078   .text.aes_decrypt:000000000000038a .L0 
C:\Users\stapi\AppData\Local\Temp\cccR0yaZ.s:1082   .text.aes_decrypt:0000000000000392 .L0 
C:\Users\stapi\AppData\Local\Temp\cccR0yaZ.s:1085   .text.aes_decrypt:000000000000039a .L0 
C:\Users\stapi\AppData\Local\Temp\cccR0yaZ.s:1088   .text.aes_decrypt:00000000000003a2 .L0 
C:\Users\stapi\AppData\Local\Temp\cccR0yaZ.s:1090   .text.aes_decrypt:00000000000003a6 .L0 
C:\Users\stapi\AppData\Local\Temp\cccR0yaZ.s:1091   .text.aes_decrypt:00000000000003a6 .L0 
C:\Users\stapi\AppData\Local\Temp\cccR0yaZ.s:1092   .text.aes_decrypt:00000000000003a6 .L0 
C:\Users\stapi\AppData\Local\Temp\cccR0yaZ.s:1094   .text.aes_decrypt:00000000000003aa .L0 
C:\Users\stapi\AppData\Local\Temp\cccR0yaZ.s:1096   .text.aes_decrypt:00000000000003ae .L0 
C:\Users\stapi\AppData\Local\Temp\cccR0yaZ.s:1098   .text.aes_decrypt:00000000000003b0 .L0 
C:\Users\stapi\AppData\Local\Temp\cccR0yaZ.s:1100   .text.aes_decrypt:00000000000003b2 .L0 
C:\Users\stapi\AppData\Local\Temp\cccR0yaZ.s:1102   .text.aes_decrypt:00000000000003b6 .L0 
C:\Users\stapi\AppData\Local\Temp\cccR0yaZ.s:1104   .text.aes_decrypt:00000000000003ba .L0 
C:\Users\stapi\AppData\Local\Temp\cccR0yaZ.s:1107   .text.aes_decrypt:00000000000003c0 .L0 
C:\Users\stapi\AppData\Local\Temp\cccR0yaZ.s:1109   .text.aes_decrypt:00000000000003c2 .L0 
C:\Users\stapi\AppData\Local\Temp\cccR0yaZ.s:1111   .text.aes_decrypt:00000000000003c6 .L0 
C:\Users\stapi\AppData\Local\Temp\cccR0yaZ.s:1113   .text.aes_decrypt:00000000000003ca .L0 
C:\Users\stapi\AppData\Local\Temp\cccR0yaZ.s:1115   .text.aes_decrypt:00000000000003cc .L0 
C:\Users\stapi\AppData\Local\Temp\cccR0yaZ.s:1117   .text.aes_decrypt:00000000000003ce .L0 
C:\Users\stapi\AppData\Local\Temp\cccR0yaZ.s:1119   .text.aes_decrypt:00000000000003d0 .L0 
C:\Users\stapi\AppData\Local\Temp\cccR0yaZ.s:1123   .text.aes_decrypt:00000000000003d6 .L0 
C:\Users\stapi\AppData\Local\Temp\cccR0yaZ.s:1126   .text.aes_decrypt:00000000000003de .L0 
C:\Users\stapi\AppData\Local\Temp\cccR0yaZ.s:1129   .text.aes_decrypt:00000000000003e6 .L0 
C:\Users\stapi\AppData\Local\Temp\cccR0yaZ.s:1133   .text.aes_decrypt:00000000000003f2 .L0 
C:\Users\stapi\AppData\Local\Temp\cccR0yaZ.s:1134   .text.aes_decrypt:00000000000003f2 .L0 
C:\Users\stapi\AppData\Local\Temp\cccR0yaZ.s:1135   .text.aes_decrypt:00000000000003f2 .L0 
C:\Users\stapi\AppData\Local\Temp\cccR0yaZ.s:1136   .text.aes_decrypt:00000000000003f2 .L0 
C:\Users\stapi\AppData\Local\Temp\cccR0yaZ.s:1138   .text.aes_decrypt:00000000000003f4 .L0 
C:\Users\stapi\AppData\Local\Temp\cccR0yaZ.s:1141   .text.aes_decrypt:00000000000003f8 .L0 
C:\Users\stapi\AppData\Local\Temp\cccR0yaZ.s:1143   .text.aes_decrypt:00000000000003fa .L0 
C:\Users\stapi\AppData\Local\Temp\cccR0yaZ.s:1145   .text.aes_decrypt:00000000000003fc .L0 
C:\Users\stapi\AppData\Local\Temp\cccR0yaZ.s:1147   .text.aes_decrypt:00000000000003fe .L0 
C:\Users\stapi\AppData\Local\Temp\cccR0yaZ.s:1149   .text.aes_decrypt:0000000000000402 .L0 
C:\Users\stapi\AppData\Local\Temp\cccR0yaZ.s:1151   .text.aes_decrypt:0000000000000404 .L0 
C:\Users\stapi\AppData\Local\Temp\cccR0yaZ.s:1153   .text.aes_decrypt:0000000000000406 .L0 
C:\Users\stapi\AppData\Local\Temp\cccR0yaZ.s:1155   .text.aes_decrypt:0000000000000408 .L0 
C:\Users\stapi\AppData\Local\Temp\cccR0yaZ.s:1157   .text.aes_decrypt:000000000000040a .L0 
C:\Users\stapi\AppData\Local\Temp\cccR0yaZ.s:1159   .text.aes_decrypt:000000000000040e .L0 
C:\Users\stapi\AppData\Local\Temp\cccR0yaZ.s:1161   .text.aes_decrypt:0000000000000410 .L0 
C:\Users\stapi\AppData\Local\Temp\cccR0yaZ.s:1163   .text.aes_decrypt:0000000000000412 .L0 
C:\Users\stapi\AppData\Local\Temp\cccR0yaZ.s:1165   .text.aes_decrypt:0000000000000414 .L0 
C:\Users\stapi\AppData\Local\Temp\cccR0yaZ.s:1167   .text.aes_decrypt:0000000000000416 .L0 
C:\Users\stapi\AppData\Local\Temp\cccR0yaZ.s:1169   .text.aes_decrypt:000000000000041a .L0 
C:\Users\stapi\AppData\Local\Temp\cccR0yaZ.s:1172   .text.aes_decrypt:0000000000000420 .L0 
C:\Users\stapi\AppData\Local\Temp\cccR0yaZ.s:1174   .text.aes_decrypt:0000000000000422 .L0 
C:\Users\stapi\AppData\Local\Temp\cccR0yaZ.s:1177   .text.aes_decrypt:0000000000000424 .L0 
C:\Users\stapi\AppData\Local\Temp\cccR0yaZ.s:1180   .text.aes_decrypt:000000000000042c .L0 
C:\Users\stapi\AppData\Local\Temp\cccR0yaZ.s:1183   .text.aes_decrypt:0000000000000434 .L0 
C:\Users\stapi\AppData\Local\Temp\cccR0yaZ.s:1187   .text.aes_decrypt:0000000000000440 .L0 
C:\Users\stapi\AppData\Local\Temp\cccR0yaZ.s:1188   .text.aes_decrypt:0000000000000440 .L0 
C:\Users\stapi\AppData\Local\Temp\cccR0yaZ.s:1189   .text.aes_decrypt:0000000000000440 .L0 
C:\Users\stapi\AppData\Local\Temp\cccR0yaZ.s:1190   .text.aes_decrypt:0000000000000440 .L0 
C:\Users\stapi\AppData\Local\Temp\cccR0yaZ.s:1192   .text.aes_decrypt:0000000000000442 .L0 
C:\Users\stapi\AppData\Local\Temp\cccR0yaZ.s:1195   .text.aes_decrypt:0000000000000446 .L0 
C:\Users\stapi\AppData\Local\Temp\cccR0yaZ.s:1199   .text.aes_decrypt:0000000000000448 .L0 
C:\Users\stapi\AppData\Local\Temp\cccR0yaZ.s:1203   .text.aes_decrypt:000000000000044a .L0 
C:\Users\stapi\AppData\Local\Temp\cccR0yaZ.s:1205   .text.aes_decrypt:000000000000044c .L0 
C:\Users\stapi\AppData\Local\Temp\cccR0yaZ.s:1208   .text.aes_decrypt:0000000000000452 .L0 
C:\Users\stapi\AppData\Local\Temp\cccR0yaZ.s:1210   .text.aes_decrypt:0000000000000454 .L0 
C:\Users\stapi\AppData\Local\Temp\cccR0yaZ.s:1213   .text.aes_decrypt:000000000000045a .L0 
C:\Users\stapi\AppData\Local\Temp\cccR0yaZ.s:1217   .text.aes_decrypt:000000000000045e .L0 
C:\Users\stapi\AppData\Local\Temp\cccR0yaZ.s:1220   .text.aes_decrypt:0000000000000466 .L0 
C:\Users\stapi\AppData\Local\Temp\cccR0yaZ.s:1223   .text.aes_decrypt:000000000000046e .L0 
C:\Users\stapi\AppData\Local\Temp\cccR0yaZ.s:1226   .text.aes_decrypt:0000000000000476 .L0 
C:\Users\stapi\AppData\Local\Temp\cccR0yaZ.s:1231   .text.aes_decrypt:000000000000047a .L0 
C:\Users\stapi\AppData\Local\Temp\cccR0yaZ.s:1232   .text.aes_decrypt:000000000000047a .L0 
C:\Users\stapi\AppData\Local\Temp\cccR0yaZ.s:1233   .text.aes_decrypt:000000000000047a .L0 
C:\Users\stapi\AppData\Local\Temp\cccR0yaZ.s:1234   .text.aes_decrypt:0000000000000482 .L0 
C:\Users\stapi\AppData\Local\Temp\cccR0yaZ.s:1235   .text.aes_decrypt:0000000000000482 .L0 
C:\Users\stapi\AppData\Local\Temp\cccR0yaZ.s:1236   .text.aes_decrypt:0000000000000482 .L0 
C:\Users\stapi\AppData\Local\Temp\cccR0yaZ.s:1237   .text.aes_decrypt:0000000000000482 .L0 
C:\Users\stapi\AppData\Local\Temp\cccR0yaZ.s:1238   .text.aes_decrypt:0000000000000482 .L0 
C:\Users\stapi\AppData\Local\Temp\cccR0yaZ.s:1239   .text.aes_decrypt:0000000000000482 .L0 
C:\Users\stapi\AppData\Local\Temp\cccR0yaZ.s:1240   .text.aes_decrypt:0000000000000482 .L0 
C:\Users\stapi\AppData\Local\Temp\cccR0yaZ.s:1241   .text.aes_decrypt:0000000000000482 .L0 
C:\Users\stapi\AppData\Local\Temp\cccR0yaZ.s:1242   .text.aes_decrypt:0000000000000482 .L0 
C:\Users\stapi\AppData\Local\Temp\cccR0yaZ.s:1243   .text.aes_decrypt:0000000000000482 .L0 
C:\Users\stapi\AppData\Local\Temp\cccR0yaZ.s:1244   .text.aes_decrypt:0000000000000482 .L0 
C:\Users\stapi\AppData\Local\Temp\cccR0yaZ.s:1245   .text.aes_decrypt:0000000000000482 .L0 
C:\Users\stapi\AppData\Local\Temp\cccR0yaZ.s:1252   .text.aes_decrypt_deinit:0000000000000000 aes_decrypt_deinit
C:\Users\stapi\AppData\Local\Temp\cccR0yaZ.s:1255   .text.aes_decrypt_deinit:0000000000000000 .L0 
C:\Users\stapi\AppData\Local\Temp\cccR0yaZ.s:1257   .text.aes_decrypt_deinit:0000000000000000 .L0 
C:\Users\stapi\AppData\Local\Temp\cccR0yaZ.s:1258   .text.aes_decrypt_deinit:0000000000000008 .L0 
C:\Users\stapi\AppData\Local\Temp\cccR0yaZ.s:1259   .text.aes_decrypt_deinit:0000000000000008 .L0 
C:\Users\stapi\AppData\Local\Temp\cccR0yaZ.s:1260   .text.aes_decrypt_deinit:0000000000000008 .L0 
C:\Users\stapi\AppData\Local\Temp\cccR0yaZ.s:1262   .text.aes_decrypt_deinit:0000000000000008 .L0 
C:\Users\stapi\AppData\Local\Temp\cccR0yaZ.s:1265   .text.aes_decrypt_deinit:000000000000000e .L0 
C:\Users\stapi\AppData\Local\Temp\cccR0yaZ.s:1267   .text.aes_decrypt_deinit:0000000000000010 .L0 
C:\Users\stapi\AppData\Local\Temp\cccR0yaZ.s:1270   .text.aes_decrypt_deinit:0000000000000018 .L0 
C:\Users\stapi\AppData\Local\Temp\cccR0yaZ.s:1274   .text.aes_decrypt_deinit:0000000000000022 .L0 
C:\Users\stapi\AppData\Local\Temp\cccR0yaZ.s:1275   .text.aes_decrypt_deinit:000000000000002a .L0 
C:\Users\stapi\AppData\Local\Temp\cccR0yaZ.s:1276   .text.aes_decrypt_deinit:000000000000002a .L0 
C:\Users\stapi\AppData\Local\Temp\cccR0yaZ.s:1277   .text.aes_decrypt_deinit:000000000000002a .L0 
C:\Users\stapi\AppData\Local\Temp\cccR0yaZ.s:1278   .text.aes_decrypt_deinit:000000000000002a .L0 
C:\Users\stapi\AppData\Local\Temp\cccR0yaZ.s:321    .text.aes_decrypt_init:000000000000012e .L0 
C:\Users\stapi\AppData\Local\Temp\cccR0yaZ.s:1248   .text.aes_decrypt:0000000000000482 .L0 
C:\Users\stapi\AppData\Local\Temp\cccR0yaZ.s:1281   .text.aes_decrypt_deinit:000000000000002a .L0 
                     .debug_frame:0000000000000000 .L0 
C:\Users\stapi\AppData\Local\Temp\cccR0yaZ.s:110    .text.aes_decrypt_init:0000000000000064 .L1
C:\Users\stapi\AppData\Local\Temp\cccR0yaZ.s:304    .text.aes_decrypt_init:0000000000000120 .L3
C:\Users\stapi\AppData\Local\Temp\cccR0yaZ.s:121    .text.aes_decrypt_init:000000000000006e .L5
C:\Users\stapi\AppData\Local\Temp\cccR0yaZ.s:182    .text.aes_decrypt_init:00000000000000a6 .L8
C:\Users\stapi\AppData\Local\Temp\cccR0yaZ.s:69     .text.aes_decrypt_init:000000000000003c .L4
C:\Users\stapi\AppData\Local\Temp\cccR0yaZ.s:194    .text.aes_decrypt_init:00000000000000ae .L7
C:\Users\stapi\AppData\Local\Temp\cccR0yaZ.s:95     .text.aes_decrypt_init:000000000000005c .L6
C:\Users\stapi\AppData\Local\Temp\cccR0yaZ.s:1035   .text.aes_decrypt:000000000000034e .L16
C:\Users\stapi\AppData\Local\Temp\cccR0yaZ.s:451    .text.aes_decrypt:00000000000000ac .L17
C:\Users\stapi\AppData\Local\Temp\cccR0yaZ.s:2239   .debug_abbrev:0000000000000000 .Ldebug_abbrev0
C:\Users\stapi\AppData\Local\Temp\cccR0yaZ.s:3494   .debug_str:000000000000024d .LASF31
C:\Users\stapi\AppData\Local\Temp\cccR0yaZ.s:3486   .debug_str:000000000000018c .LASF32
C:\Users\stapi\AppData\Local\Temp\cccR0yaZ.s:3470   .debug_str:0000000000000097 .LASF33
C:\Users\stapi\AppData\Local\Temp\cccR0yaZ.s:3204   .debug_ranges:0000000000000000 .Ldebug_ranges0
C:\Users\stapi\AppData\Local\Temp\cccR0yaZ.s:3440   .debug_line:0000000000000000 .Ldebug_line0
C:\Users\stapi\AppData\Local\Temp\cccR0yaZ.s:3446   .debug_str:0000000000000010 .LASF2
C:\Users\stapi\AppData\Local\Temp\cccR0yaZ.s:3452   .debug_str:0000000000000026 .LASF0
C:\Users\stapi\AppData\Local\Temp\cccR0yaZ.s:3508   .debug_str:0000000000000376 .LASF1
C:\Users\stapi\AppData\Local\Temp\cccR0yaZ.s:3444   .debug_str:0000000000000006 .LASF3
C:\Users\stapi\AppData\Local\Temp\cccR0yaZ.s:3462   .debug_str:000000000000005f .LASF4
C:\Users\stapi\AppData\Local\Temp\cccR0yaZ.s:3500   .debug_str:0000000000000355 .LASF5
C:\Users\stapi\AppData\Local\Temp\cccR0yaZ.s:3468   .debug_str:0000000000000084 .LASF6
C:\Users\stapi\AppData\Local\Temp\cccR0yaZ.s:3504   .debug_str:0000000000000368 .LASF7
C:\Users\stapi\AppData\Local\Temp\cccR0yaZ.s:3474   .debug_str:000000000000013a .LASF8
C:\Users\stapi\AppData\Local\Temp\cccR0yaZ.s:3464   .debug_str:000000000000006d .LASF9
C:\Users\stapi\AppData\Local\Temp\cccR0yaZ.s:3490   .debug_str:000000000000022b .LASF10
C:\Users\stapi\AppData\Local\Temp\cccR0yaZ.s:3458   .debug_str:0000000000000043 .LASF11
C:\Users\stapi\AppData\Local\Temp\cccR0yaZ.s:3496   .debug_str:0000000000000346 .LASF12
C:\Users\stapi\AppData\Local\Temp\cccR0yaZ.s:3482   .debug_str:0000000000000170 .LASF13
C:\Users\stapi\AppData\Local\Temp\cccR0yaZ.s:3502   .debug_str:000000000000035f .LASF14
C:\Users\stapi\AppData\Local\Temp\cccR0yaZ.s:3512   .debug_str:000000000000038e .LASF15
C:\Users\stapi\AppData\Local\Temp\cccR0yaZ.s:3460   .debug_str:000000000000005a .LASF16
C:\Users\stapi\AppData\Local\Temp\cccR0yaZ.s:3476   .debug_str:0000000000000145 .LASF34
C:\Users\stapi\AppData\Local\Temp\cccR0yaZ.s:1253   .text.aes_decrypt_deinit:0000000000000000 .LFB76
C:\Users\stapi\AppData\Local\Temp\cccR0yaZ.s:1279   .text.aes_decrypt_deinit:000000000000002a .LFE76
C:\Users\stapi\AppData\Local\Temp\cccR0yaZ.s:2752   .debug_loc:0000000000000000 .LLST27
C:\Users\stapi\AppData\Local\Temp\cccR0yaZ.s:1268   .text.aes_decrypt_deinit:0000000000000018 .LVL68
C:\Users\stapi\AppData\Local\Temp\cccR0yaZ.s:1272   .text.aes_decrypt_deinit:0000000000000022 .LVL69
C:\Users\stapi\AppData\Local\Temp\cccR0yaZ.s:3510   .debug_str:0000000000000382 .LASF19
C:\Users\stapi\AppData\Local\Temp\cccR0yaZ.s:326    .text.aes_decrypt:0000000000000000 .LFB75
C:\Users\stapi\AppData\Local\Temp\cccR0yaZ.s:1246   .text.aes_decrypt:0000000000000482 .LFE75
C:\Users\stapi\AppData\Local\Temp\cccR0yaZ.s:2763   .debug_loc:000000000000001e .LLST11
C:\Users\stapi\AppData\Local\Temp\cccR0yaZ.s:3454   .debug_str:0000000000000033 .LASF17
C:\Users\stapi\AppData\Local\Temp\cccR0yaZ.s:2777   .debug_loc:000000000000003f .LLST12
C:\Users\stapi\AppData\Local\Temp\cccR0yaZ.s:3442   .debug_str:0000000000000000 .LASF18
C:\Users\stapi\AppData\Local\Temp\cccR0yaZ.s:2791   .debug_loc:0000000000000060 .LLST13
C:\Users\stapi\AppData\Local\Temp\cccR0yaZ.s:345    .text.aes_decrypt:0000000000000008 .LBB140
C:\Users\stapi\AppData\Local\Temp\cccR0yaZ.s:2805   .debug_loc:0000000000000081 .LLST14
C:\Users\stapi\AppData\Local\Temp\cccR0yaZ.s:2812   .debug_loc:0000000000000094 .LLST15
C:\Users\stapi\AppData\Local\Temp\cccR0yaZ.s:2826   .debug_loc:00000000000000b5 .LLST16
C:\Users\stapi\AppData\Local\Temp\cccR0yaZ.s:2842   .debug_loc:00000000000000da .LLST17
C:\Users\stapi\AppData\Local\Temp\cccR0yaZ.s:2863   .debug_loc:0000000000000110 .LLST18
C:\Users\stapi\AppData\Local\Temp\cccR0yaZ.s:2878   .debug_loc:0000000000000139 .LLST19
C:\Users\stapi\AppData\Local\Temp\cccR0yaZ.s:2893   .debug_loc:0000000000000162 .LLST20
C:\Users\stapi\AppData\Local\Temp\cccR0yaZ.s:2908   .debug_loc:000000000000018b .LLST21
C:\Users\stapi\AppData\Local\Temp\cccR0yaZ.s:2923   .debug_loc:00000000000001b4 .LLST22
C:\Users\stapi\AppData\Local\Temp\cccR0yaZ.s:2930   .debug_loc:00000000000001c7 .LLST23
C:\Users\stapi\AppData\Local\Temp\cccR0yaZ.s:2937   .debug_loc:00000000000001da .LLST24
C:\Users\stapi\AppData\Local\Temp\cccR0yaZ.s:2944   .debug_loc:00000000000001ed .LLST25
C:\Users\stapi\AppData\Local\Temp\cccR0yaZ.s:2951   .debug_loc:0000000000000200 .LLST26
C:\Users\stapi\AppData\Local\Temp\cccR0yaZ.s:395    .text.aes_decrypt:000000000000005a .LBB142
C:\Users\stapi\AppData\Local\Temp\cccR0yaZ.s:404    .text.aes_decrypt:0000000000000062 .LBB147
C:\Users\stapi\AppData\Local\Temp\cccR0yaZ.s:454    .text.aes_decrypt:00000000000000ac .LBB151
C:\Users\stapi\AppData\Local\Temp\cccR0yaZ.s:525    .text.aes_decrypt:000000000000010a .LBB160
C:\Users\stapi\AppData\Local\Temp\cccR0yaZ.s:530    .text.aes_decrypt:000000000000010a .LBB163
C:\Users\stapi\AppData\Local\Temp\cccR0yaZ.s:535    .text.aes_decrypt:000000000000010a .LBB166
C:\Users\stapi\AppData\Local\Temp\cccR0yaZ.s:594    .text.aes_decrypt:000000000000016a .LBB174
C:\Users\stapi\AppData\Local\Temp\cccR0yaZ.s:599    .text.aes_decrypt:000000000000016a .LBB178
C:\Users\stapi\AppData\Local\Temp\cccR0yaZ.s:604    .text.aes_decrypt:000000000000016a .LBB182
C:\Users\stapi\AppData\Local\Temp\cccR0yaZ.s:680    .text.aes_decrypt:00000000000001d2 .LBB192
C:\Users\stapi\AppData\Local\Temp\cccR0yaZ.s:685    .text.aes_decrypt:00000000000001d2 .LBB196
C:\Users\stapi\AppData\Local\Temp\cccR0yaZ.s:690    .text.aes_decrypt:00000000000001d2 .LBB200
C:\Users\stapi\AppData\Local\Temp\cccR0yaZ.s:779    .text.aes_decrypt:0000000000000258 .LBB210
C:\Users\stapi\AppData\Local\Temp\cccR0yaZ.s:784    .text.aes_decrypt:0000000000000258 .LBB214
C:\Users\stapi\AppData\Local\Temp\cccR0yaZ.s:789    .text.aes_decrypt:0000000000000258 .LBB218
C:\Users\stapi\AppData\Local\Temp\cccR0yaZ.s:844    .text.aes_decrypt:0000000000000292 .LBB228
C:\Users\stapi\AppData\Local\Temp\cccR0yaZ.s:849    .text.aes_decrypt:0000000000000292 .LBB232
C:\Users\stapi\AppData\Local\Temp\cccR0yaZ.s:854    .text.aes_decrypt:0000000000000292 .LBB236
C:\Users\stapi\AppData\Local\Temp\cccR0yaZ.s:908    .text.aes_decrypt:00000000000002ce .LBB246
C:\Users\stapi\AppData\Local\Temp\cccR0yaZ.s:913    .text.aes_decrypt:00000000000002ce .LBB250
C:\Users\stapi\AppData\Local\Temp\cccR0yaZ.s:918    .text.aes_decrypt:00000000000002ce .LBB254
C:\Users\stapi\AppData\Local\Temp\cccR0yaZ.s:972    .text.aes_decrypt:000000000000030e .LBB264
C:\Users\stapi\AppData\Local\Temp\cccR0yaZ.s:977    .text.aes_decrypt:000000000000030e .LBB268
C:\Users\stapi\AppData\Local\Temp\cccR0yaZ.s:982    .text.aes_decrypt:000000000000030e .LBB271
C:\Users\stapi\AppData\Local\Temp\cccR0yaZ.s:3478   .debug_str:0000000000000158 .LASF35
C:\Users\stapi\AppData\Local\Temp\cccR0yaZ.s:3472   .debug_str:0000000000000129 .LASF20
C:\Users\stapi\AppData\Local\Temp\cccR0yaZ.s:14     .text.aes_decrypt_init:0000000000000000 .LFB73
C:\Users\stapi\AppData\Local\Temp\cccR0yaZ.s:319    .text.aes_decrypt_init:000000000000012e .LFE73
C:\Users\stapi\AppData\Local\Temp\cccR0yaZ.s:2968   .debug_loc:000000000000022b .LLST0
C:\Users\stapi\AppData\Local\Temp\cccR0yaZ.s:2979   .debug_loc:0000000000000249 .LLST1
C:\Users\stapi\AppData\Local\Temp\cccR0yaZ.s:2990   .debug_loc:0000000000000267 .LLST2
C:\Users\stapi\AppData\Local\Temp\cccR0yaZ.s:3001   .debug_loc:0000000000000285 .LLST3
C:\Users\stapi\AppData\Local\Temp\cccR0yaZ.s:45     .text.aes_decrypt_init:000000000000001c .LBB64
C:\Users\stapi\AppData\Local\Temp\cccR0yaZ.s:3012   .debug_loc:00000000000002a3 .LLST4
C:\Users\stapi\AppData\Local\Temp\cccR0yaZ.s:3043   .debug_loc:00000000000002e3 .LLST5
C:\Users\stapi\AppData\Local\Temp\cccR0yaZ.s:3054   .debug_loc:0000000000000301 .LLST6
C:\Users\stapi\AppData\Local\Temp\cccR0yaZ.s:3073   .debug_loc:0000000000000335 .LLST7
C:\Users\stapi\AppData\Local\Temp\cccR0yaZ.s:3084   .debug_loc:0000000000000353 .LLST8
C:\Users\stapi\AppData\Local\Temp\cccR0yaZ.s:3118   .debug_loc:00000000000003ab .LLST9
C:\Users\stapi\AppData\Local\Temp\cccR0yaZ.s:3180   .debug_loc:0000000000000418 .LLST10
C:\Users\stapi\AppData\Local\Temp\cccR0yaZ.s:84     .text.aes_decrypt_init:0000000000000058 .LBB66
C:\Users\stapi\AppData\Local\Temp\cccR0yaZ.s:91     .text.aes_decrypt_init:000000000000005a .LBB71
C:\Users\stapi\AppData\Local\Temp\cccR0yaZ.s:199    .text.aes_decrypt_init:00000000000000b0 .LBB76
C:\Users\stapi\AppData\Local\Temp\cccR0yaZ.s:55     .text.aes_decrypt_init:000000000000002a .LVL6
C:\Users\stapi\AppData\Local\Temp\cccR0yaZ.s:37     .text.aes_decrypt_init:0000000000000018 .LVL2
C:\Users\stapi\AppData\Local\Temp\cccR0yaZ.s:312    .text.aes_decrypt_init:000000000000012a .LVL27
C:\Users\stapi\AppData\Local\Temp\cccR0yaZ.s:3484   .debug_str:0000000000000178 .LASF24
C:\Users\stapi\AppData\Local\Temp\cccR0yaZ.s:3448   .debug_str:0000000000000017 .LASF21
C:\Users\stapi\AppData\Local\Temp\cccR0yaZ.s:3480   .debug_str:0000000000000168 .LASF22
C:\Users\stapi\AppData\Local\Temp\cccR0yaZ.s:3466   .debug_str:000000000000007f .LASF23
C:\Users\stapi\AppData\Local\Temp\cccR0yaZ.s:3450   .debug_str:0000000000000021 .LASF25
C:\Users\stapi\AppData\Local\Temp\cccR0yaZ.s:3506   .debug_str:0000000000000371 .LASF26
C:\Users\stapi\AppData\Local\Temp\cccR0yaZ.s:3498   .debug_str:000000000000034b .LASF27
C:\Users\stapi\AppData\Local\Temp\cccR0yaZ.s:3488   .debug_str:0000000000000223 .LASF28
C:\Users\stapi\AppData\Local\Temp\cccR0yaZ.s:3492   .debug_str:0000000000000239 .LASF29
C:\Users\stapi\AppData\Local\Temp\cccR0yaZ.s:3456   .debug_str:0000000000000039 .LASF30
C:\Users\stapi\AppData\Local\Temp\cccR0yaZ.s:1256   .text.aes_decrypt_deinit:0000000000000000 .LVL67
C:\Users\stapi\AppData\Local\Temp\cccR0yaZ.s:329    .text.aes_decrypt:0000000000000000 .LVL29
C:\Users\stapi\AppData\Local\Temp\cccR0yaZ.s:1045   .text.aes_decrypt:000000000000035e .LVL57
C:\Users\stapi\AppData\Local\Temp\cccR0yaZ.s:438    .text.aes_decrypt:0000000000000098 .LVL34
C:\Users\stapi\AppData\Local\Temp\cccR0yaZ.s:343    .text.aes_decrypt:0000000000000008 .LVL30
C:\Users\stapi\AppData\Local\Temp\cccR0yaZ.s:1228   .text.aes_decrypt:000000000000047a .LVL66
C:\Users\stapi\AppData\Local\Temp\cccR0yaZ.s:1080   .text.aes_decrypt:0000000000000392 .LVL60
C:\Users\stapi\AppData\Local\Temp\cccR0yaZ.s:450    .text.aes_decrypt:00000000000000ac .LVL36
C:\Users\stapi\AppData\Local\Temp\cccR0yaZ.s:490    .text.aes_decrypt:00000000000000d6 .LVL38
C:\Users\stapi\AppData\Local\Temp\cccR0yaZ.s:747    .text.aes_decrypt:0000000000000206 .LVL46
C:\Users\stapi\AppData\Local\Temp\cccR0yaZ.s:1049   .text.aes_decrypt:0000000000000362 .LVL58
C:\Users\stapi\AppData\Local\Temp\cccR0yaZ.s:382    .text.aes_decrypt:0000000000000046 .LVL31
C:\Users\stapi\AppData\Local\Temp\cccR0yaZ.s:668    .text.aes_decrypt:00000000000001c6 .LVL43
C:\Users\stapi\AppData\Local\Temp\cccR0yaZ.s:842    .text.aes_decrypt:0000000000000292 .LVL52
C:\Users\stapi\AppData\Local\Temp\cccR0yaZ.s:1034   .text.aes_decrypt:000000000000034e .LVL56
C:\Users\stapi\AppData\Local\Temp\cccR0yaZ.s:1076   .text.aes_decrypt:000000000000038a .LVL59
C:\Users\stapi\AppData\Local\Temp\cccR0yaZ.s:416    .text.aes_decrypt:000000000000006c .LVL32
C:\Users\stapi\AppData\Local\Temp\cccR0yaZ.s:705    .text.aes_decrypt:00000000000001da .LVL45
C:\Users\stapi\AppData\Local\Temp\cccR0yaZ.s:906    .text.aes_decrypt:00000000000002ce .LVL53
C:\Users\stapi\AppData\Local\Temp\cccR0yaZ.s:1121   .text.aes_decrypt:00000000000003d6 .LVL61
C:\Users\stapi\AppData\Local\Temp\cccR0yaZ.s:1139   .text.aes_decrypt:00000000000003f8 .LVL62
C:\Users\stapi\AppData\Local\Temp\cccR0yaZ.s:430    .text.aes_decrypt:0000000000000086 .LVL33
C:\Users\stapi\AppData\Local\Temp\cccR0yaZ.s:614    .text.aes_decrypt:0000000000000178 .LVL41
C:\Users\stapi\AppData\Local\Temp\cccR0yaZ.s:970    .text.aes_decrypt:000000000000030e .LVL54
C:\Users\stapi\AppData\Local\Temp\cccR0yaZ.s:1175   .text.aes_decrypt:0000000000000424 .LVL63
C:\Users\stapi\AppData\Local\Temp\cccR0yaZ.s:1193   .text.aes_decrypt:0000000000000446 .LVL64
C:\Users\stapi\AppData\Local\Temp\cccR0yaZ.s:445    .text.aes_decrypt:00000000000000a4 .LVL35
C:\Users\stapi\AppData\Local\Temp\cccR0yaZ.s:627    .text.aes_decrypt:000000000000018e .LVL42
C:\Users\stapi\AppData\Local\Temp\cccR0yaZ.s:1030   .text.aes_decrypt:000000000000034c .LVL55
C:\Users\stapi\AppData\Local\Temp\cccR0yaZ.s:1215   .text.aes_decrypt:000000000000045e .LVL65
C:\Users\stapi\AppData\Local\Temp\cccR0yaZ.s:523    .text.aes_decrypt:000000000000010a .LVL39
C:\Users\stapi\AppData\Local\Temp\cccR0yaZ.s:774    .text.aes_decrypt:0000000000000254 .LVL50
C:\Users\stapi\AppData\Local\Temp\cccR0yaZ.s:592    .text.aes_decrypt:000000000000016a .LVL40
C:\Users\stapi\AppData\Local\Temp\cccR0yaZ.s:759    .text.aes_decrypt:0000000000000226 .LVL47
C:\Users\stapi\AppData\Local\Temp\cccR0yaZ.s:678    .text.aes_decrypt:00000000000001d2 .LVL44
C:\Users\stapi\AppData\Local\Temp\cccR0yaZ.s:761    .text.aes_decrypt:000000000000022a .LVL48
C:\Users\stapi\AppData\Local\Temp\cccR0yaZ.s:770    .text.aes_decrypt:0000000000000248 .LVL49
C:\Users\stapi\AppData\Local\Temp\cccR0yaZ.s:477    .text.aes_decrypt:00000000000000c2 .LVL37
C:\Users\stapi\AppData\Local\Temp\cccR0yaZ.s:18     .text.aes_decrypt_init:0000000000000000 .LVL0
C:\Users\stapi\AppData\Local\Temp\cccR0yaZ.s:32     .text.aes_decrypt_init:000000000000000e .LVL1
C:\Users\stapi\AppData\Local\Temp\cccR0yaZ.s:39     .text.aes_decrypt_init:000000000000001a .LVL3
C:\Users\stapi\AppData\Local\Temp\cccR0yaZ.s:109    .text.aes_decrypt_init:0000000000000064 .LVL12
C:\Users\stapi\AppData\Local\Temp\cccR0yaZ.s:120    .text.aes_decrypt_init:000000000000006e .LVL13
C:\Users\stapi\AppData\Local\Temp\cccR0yaZ.s:316    .text.aes_decrypt_init:000000000000012c .LVL28
C:\Users\stapi\AppData\Local\Temp\cccR0yaZ.s:101    .text.aes_decrypt_init:0000000000000060 .LVL11
C:\Users\stapi\AppData\Local\Temp\cccR0yaZ.s:303    .text.aes_decrypt_init:0000000000000120 .LVL25
C:\Users\stapi\AppData\Local\Temp\cccR0yaZ.s:310    .text.aes_decrypt_init:0000000000000122 .LVL26
C:\Users\stapi\AppData\Local\Temp\cccR0yaZ.s:44     .text.aes_decrypt_init:000000000000001c .LVL4
C:\Users\stapi\AppData\Local\Temp\cccR0yaZ.s:52     .text.aes_decrypt_init:0000000000000020 .LVL5
C:\Users\stapi\AppData\Local\Temp\cccR0yaZ.s:94     .text.aes_decrypt_init:000000000000005c .LVL10
C:\Users\stapi\AppData\Local\Temp\cccR0yaZ.s:181    .text.aes_decrypt_init:00000000000000a6 .LVL20
C:\Users\stapi\AppData\Local\Temp\cccR0yaZ.s:60     .text.aes_decrypt_init:000000000000002e .LVL7
C:\Users\stapi\AppData\Local\Temp\cccR0yaZ.s:68     .text.aes_decrypt_init:000000000000003c .LVL8
C:\Users\stapi\AppData\Local\Temp\cccR0yaZ.s:76     .text.aes_decrypt_init:0000000000000048 .LVL9
C:\Users\stapi\AppData\Local\Temp\cccR0yaZ.s:134    .text.aes_decrypt_init:0000000000000076 .LVL15
C:\Users\stapi\AppData\Local\Temp\cccR0yaZ.s:178    .text.aes_decrypt_init:00000000000000a2 .LVL19
C:\Users\stapi\AppData\Local\Temp\cccR0yaZ.s:186    .text.aes_decrypt_init:00000000000000a8 .LVL21
C:\Users\stapi\AppData\Local\Temp\cccR0yaZ.s:193    .text.aes_decrypt_init:00000000000000ae .LVL22
C:\Users\stapi\AppData\Local\Temp\cccR0yaZ.s:130    .text.aes_decrypt_init:0000000000000074 .LVL14
C:\Users\stapi\AppData\Local\Temp\cccR0yaZ.s:1289   .debug_info:0000000000000000 .Ldebug_info0
C:\Users\stapi\AppData\Local\Temp\cccR0yaZ.s:103    .text.aes_decrypt_init:0000000000000060 .LBE64
C:\Users\stapi\AppData\Local\Temp\cccR0yaZ.s:123    .text.aes_decrypt_init:000000000000006e .LBB89
C:\Users\stapi\AppData\Local\Temp\cccR0yaZ.s:306    .text.aes_decrypt_init:0000000000000120 .LBE89
C:\Users\stapi\AppData\Local\Temp\cccR0yaZ.s:90     .text.aes_decrypt_init:000000000000005a .LBE66
C:\Users\stapi\AppData\Local\Temp\cccR0yaZ.s:209    .text.aes_decrypt_init:00000000000000b0 .LBB81
C:\Users\stapi\AppData\Local\Temp\cccR0yaZ.s:213    .text.aes_decrypt_init:00000000000000b0 .LBE81
C:\Users\stapi\AppData\Local\Temp\cccR0yaZ.s:230    .text.aes_decrypt_init:00000000000000d0 .LBB82
C:\Users\stapi\AppData\Local\Temp\cccR0yaZ.s:235    .text.aes_decrypt_init:00000000000000d2 .LBE82
C:\Users\stapi\AppData\Local\Temp\cccR0yaZ.s:238    .text.aes_decrypt_init:00000000000000d6 .LBB83
C:\Users\stapi\AppData\Local\Temp\cccR0yaZ.s:243    .text.aes_decrypt_init:00000000000000da .LBE83
C:\Users\stapi\AppData\Local\Temp\cccR0yaZ.s:97     .text.aes_decrypt_init:000000000000005c .LBE71
C:\Users\stapi\AppData\Local\Temp\cccR0yaZ.s:204    .text.aes_decrypt_init:00000000000000b0 .LBB80
C:\Users\stapi\AppData\Local\Temp\cccR0yaZ.s:208    .text.aes_decrypt_init:00000000000000b0 .LBE80
C:\Users\stapi\AppData\Local\Temp\cccR0yaZ.s:270    .text.aes_decrypt_init:0000000000000104 .LBB85
C:\Users\stapi\AppData\Local\Temp\cccR0yaZ.s:275    .text.aes_decrypt_init:0000000000000106 .LBE85
C:\Users\stapi\AppData\Local\Temp\cccR0yaZ.s:283    .text.aes_decrypt_init:000000000000010e .LBB87
C:\Users\stapi\AppData\Local\Temp\cccR0yaZ.s:288    .text.aes_decrypt_init:0000000000000112 .LBE87
C:\Users\stapi\AppData\Local\Temp\cccR0yaZ.s:203    .text.aes_decrypt_init:00000000000000b0 .LBE76
C:\Users\stapi\AppData\Local\Temp\cccR0yaZ.s:262    .text.aes_decrypt_init:00000000000000fc .LBB84
C:\Users\stapi\AppData\Local\Temp\cccR0yaZ.s:267    .text.aes_decrypt_init:0000000000000100 .LBE84
C:\Users\stapi\AppData\Local\Temp\cccR0yaZ.s:276    .text.aes_decrypt_init:0000000000000106 .LBB86
C:\Users\stapi\AppData\Local\Temp\cccR0yaZ.s:280    .text.aes_decrypt_init:000000000000010a .LBE86
C:\Users\stapi\AppData\Local\Temp\cccR0yaZ.s:1197   .text.aes_decrypt:0000000000000448 .LBE140
C:\Users\stapi\AppData\Local\Temp\cccR0yaZ.s:1200   .text.aes_decrypt:000000000000044a .LBB281
C:\Users\stapi\AppData\Local\Temp\cccR0yaZ.s:1230   .text.aes_decrypt:000000000000047a .LBE281
C:\Users\stapi\AppData\Local\Temp\cccR0yaZ.s:400    .text.aes_decrypt:000000000000005c .LBE142
C:\Users\stapi\AppData\Local\Temp\cccR0yaZ.s:464    .text.aes_decrypt:00000000000000ac .LBB155
C:\Users\stapi\AppData\Local\Temp\cccR0yaZ.s:468    .text.aes_decrypt:00000000000000ac .LBE155
C:\Users\stapi\AppData\Local\Temp\cccR0yaZ.s:482    .text.aes_decrypt:00000000000000ce .LBB156
C:\Users\stapi\AppData\Local\Temp\cccR0yaZ.s:487    .text.aes_decrypt:00000000000000d2 .LBE156
C:\Users\stapi\AppData\Local\Temp\cccR0yaZ.s:491    .text.aes_decrypt:00000000000000d6 .LBB157
C:\Users\stapi\AppData\Local\Temp\cccR0yaZ.s:496    .text.aes_decrypt:00000000000000da .LBE157
C:\Users\stapi\AppData\Local\Temp\cccR0yaZ.s:409    .text.aes_decrypt:0000000000000064 .LBE147
C:\Users\stapi\AppData\Local\Temp\cccR0yaZ.s:459    .text.aes_decrypt:00000000000000ac .LBB154
C:\Users\stapi\AppData\Local\Temp\cccR0yaZ.s:463    .text.aes_decrypt:00000000000000ac .LBE154
C:\Users\stapi\AppData\Local\Temp\cccR0yaZ.s:514    .text.aes_decrypt:00000000000000fe .LBB159
C:\Users\stapi\AppData\Local\Temp\cccR0yaZ.s:520    .text.aes_decrypt:0000000000000106 .LBE159
C:\Users\stapi\AppData\Local\Temp\cccR0yaZ.s:458    .text.aes_decrypt:00000000000000ac .LBE151
C:\Users\stapi\AppData\Local\Temp\cccR0yaZ.s:502    .text.aes_decrypt:00000000000000e8 .LBB158
C:\Users\stapi\AppData\Local\Temp\cccR0yaZ.s:508    .text.aes_decrypt:00000000000000f0 .LBE158
C:\Users\stapi\AppData\Local\Temp\cccR0yaZ.s:529    .text.aes_decrypt:000000000000010a .LBE160
C:\Users\stapi\AppData\Local\Temp\cccR0yaZ.s:571    .text.aes_decrypt:0000000000000148 .LBB172
C:\Users\stapi\AppData\Local\Temp\cccR0yaZ.s:577    .text.aes_decrypt:0000000000000150 .LBE172
C:\Users\stapi\AppData\Local\Temp\cccR0yaZ.s:534    .text.aes_decrypt:000000000000010a .LBE163
C:\Users\stapi\AppData\Local\Temp\cccR0yaZ.s:583    .text.aes_decrypt:000000000000015e .LBB173
C:\Users\stapi\AppData\Local\Temp\cccR0yaZ.s:589    .text.aes_decrypt:0000000000000166 .LBE173
C:\Users\stapi\AppData\Local\Temp\cccR0yaZ.s:539    .text.aes_decrypt:000000000000010a .LBE166
C:\Users\stapi\AppData\Local\Temp\cccR0yaZ.s:552    .text.aes_decrypt:000000000000012e .LBB170
C:\Users\stapi\AppData\Local\Temp\cccR0yaZ.s:557    .text.aes_decrypt:0000000000000132 .LBE170
C:\Users\stapi\AppData\Local\Temp\cccR0yaZ.s:560    .text.aes_decrypt:0000000000000136 .LBB171
C:\Users\stapi\AppData\Local\Temp\cccR0yaZ.s:565    .text.aes_decrypt:000000000000013a .LBE171
C:\Users\stapi\AppData\Local\Temp\cccR0yaZ.s:598    .text.aes_decrypt:000000000000016a .LBE174
C:\Users\stapi\AppData\Local\Temp\cccR0yaZ.s:640    .text.aes_decrypt:00000000000001a4 .LBB188
C:\Users\stapi\AppData\Local\Temp\cccR0yaZ.s:645    .text.aes_decrypt:00000000000001a8 .LBE188
C:\Users\stapi\AppData\Local\Temp\cccR0yaZ.s:649    .text.aes_decrypt:00000000000001ac .LBB189
C:\Users\stapi\AppData\Local\Temp\cccR0yaZ.s:654    .text.aes_decrypt:00000000000001b0 .LBE189
C:\Users\stapi\AppData\Local\Temp\cccR0yaZ.s:603    .text.aes_decrypt:000000000000016a .LBE178
C:\Users\stapi\AppData\Local\Temp\cccR0yaZ.s:660    .text.aes_decrypt:00000000000001be .LBB190
C:\Users\stapi\AppData\Local\Temp\cccR0yaZ.s:665    .text.aes_decrypt:00000000000001c2 .LBE190
C:\Users\stapi\AppData\Local\Temp\cccR0yaZ.s:670    .text.aes_decrypt:00000000000001ca .LBB191
C:\Users\stapi\AppData\Local\Temp\cccR0yaZ.s:675    .text.aes_decrypt:00000000000001ce .LBE191
C:\Users\stapi\AppData\Local\Temp\cccR0yaZ.s:608    .text.aes_decrypt:000000000000016a .LBE182
C:\Users\stapi\AppData\Local\Temp\cccR0yaZ.s:619    .text.aes_decrypt:0000000000000188 .LBB186
C:\Users\stapi\AppData\Local\Temp\cccR0yaZ.s:624    .text.aes_decrypt:000000000000018c .LBE186
C:\Users\stapi\AppData\Local\Temp\cccR0yaZ.s:629    .text.aes_decrypt:0000000000000192 .LBB187
C:\Users\stapi\AppData\Local\Temp\cccR0yaZ.s:634    .text.aes_decrypt:0000000000000196 .LBE187
C:\Users\stapi\AppData\Local\Temp\cccR0yaZ.s:684    .text.aes_decrypt:00000000000001d2 .LBE192
C:\Users\stapi\AppData\Local\Temp\cccR0yaZ.s:697    .text.aes_decrypt:00000000000001d6 .LBB204
C:\Users\stapi\AppData\Local\Temp\cccR0yaZ.s:702    .text.aes_decrypt:00000000000001d8 .LBE204
C:\Users\stapi\AppData\Local\Temp\cccR0yaZ.s:722    .text.aes_decrypt:00000000000001ec .LBB207
C:\Users\stapi\AppData\Local\Temp\cccR0yaZ.s:726    .text.aes_decrypt:00000000000001f0 .LBE207
C:\Users\stapi\AppData\Local\Temp\cccR0yaZ.s:689    .text.aes_decrypt:00000000000001d2 .LBE196
C:\Users\stapi\AppData\Local\Temp\cccR0yaZ.s:730    .text.aes_decrypt:00000000000001f6 .LBB208
C:\Users\stapi\AppData\Local\Temp\cccR0yaZ.s:735    .text.aes_decrypt:00000000000001f8 .LBE208
C:\Users\stapi\AppData\Local\Temp\cccR0yaZ.s:739    .text.aes_decrypt:0000000000000200 .LBB209
C:\Users\stapi\AppData\Local\Temp\cccR0yaZ.s:744    .text.aes_decrypt:0000000000000204 .LBE209
C:\Users\stapi\AppData\Local\Temp\cccR0yaZ.s:694    .text.aes_decrypt:00000000000001d2 .LBE200
C:\Users\stapi\AppData\Local\Temp\cccR0yaZ.s:707    .text.aes_decrypt:00000000000001de .LBB205
C:\Users\stapi\AppData\Local\Temp\cccR0yaZ.s:712    .text.aes_decrypt:00000000000001e2 .LBE205
C:\Users\stapi\AppData\Local\Temp\cccR0yaZ.s:716    .text.aes_decrypt:00000000000001e8 .LBB206
C:\Users\stapi\AppData\Local\Temp\cccR0yaZ.s:721    .text.aes_decrypt:00000000000001ec .LBE206
C:\Users\stapi\AppData\Local\Temp\cccR0yaZ.s:783    .text.aes_decrypt:0000000000000258 .LBE210
C:\Users\stapi\AppData\Local\Temp\cccR0yaZ.s:807    .text.aes_decrypt:0000000000000270 .LBB223
C:\Users\stapi\AppData\Local\Temp\cccR0yaZ.s:812    .text.aes_decrypt:0000000000000274 .LBE223
C:\Users\stapi\AppData\Local\Temp\cccR0yaZ.s:828    .text.aes_decrypt:0000000000000282 .LBB226
C:\Users\stapi\AppData\Local\Temp\cccR0yaZ.s:833    .text.aes_decrypt:0000000000000286 .LBE226
C:\Users\stapi\AppData\Local\Temp\cccR0yaZ.s:788    .text.aes_decrypt:0000000000000258 .LBE214
C:\Users\stapi\AppData\Local\Temp\cccR0yaZ.s:813    .text.aes_decrypt:0000000000000274 .LBB224
C:\Users\stapi\AppData\Local\Temp\cccR0yaZ.s:817    .text.aes_decrypt:0000000000000276 .LBE224
C:\Users\stapi\AppData\Local\Temp\cccR0yaZ.s:834    .text.aes_decrypt:0000000000000286 .LBB227
C:\Users\stapi\AppData\Local\Temp\cccR0yaZ.s:838    .text.aes_decrypt:000000000000028a .LBE227
C:\Users\stapi\AppData\Local\Temp\cccR0yaZ.s:793    .text.aes_decrypt:0000000000000258 .LBE218
C:\Users\stapi\AppData\Local\Temp\cccR0yaZ.s:798    .text.aes_decrypt:0000000000000264 .LBB222
C:\Users\stapi\AppData\Local\Temp\cccR0yaZ.s:803    .text.aes_decrypt:0000000000000268 .LBE222
C:\Users\stapi\AppData\Local\Temp\cccR0yaZ.s:820    .text.aes_decrypt:000000000000027a .LBB225
C:\Users\stapi\AppData\Local\Temp\cccR0yaZ.s:825    .text.aes_decrypt:000000000000027e .LBE225
C:\Users\stapi\AppData\Local\Temp\cccR0yaZ.s:848    .text.aes_decrypt:0000000000000292 .LBE228
C:\Users\stapi\AppData\Local\Temp\cccR0yaZ.s:872    .text.aes_decrypt:00000000000002ae .LBB241
C:\Users\stapi\AppData\Local\Temp\cccR0yaZ.s:876    .text.aes_decrypt:00000000000002b2 .LBE241
C:\Users\stapi\AppData\Local\Temp\cccR0yaZ.s:892    .text.aes_decrypt:00000000000002c0 .LBB244
C:\Users\stapi\AppData\Local\Temp\cccR0yaZ.s:897    .text.aes_decrypt:00000000000002c4 .LBE244
C:\Users\stapi\AppData\Local\Temp\cccR0yaZ.s:853    .text.aes_decrypt:0000000000000292 .LBE232
C:\Users\stapi\AppData\Local\Temp\cccR0yaZ.s:879    .text.aes_decrypt:00000000000002b6 .LBB242
C:\Users\stapi\AppData\Local\Temp\cccR0yaZ.s:884    .text.aes_decrypt:00000000000002b8 .LBE242
C:\Users\stapi\AppData\Local\Temp\cccR0yaZ.s:898    .text.aes_decrypt:00000000000002c4 .LBB245
C:\Users\stapi\AppData\Local\Temp\cccR0yaZ.s:902    .text.aes_decrypt:00000000000002c8 .LBE245
C:\Users\stapi\AppData\Local\Temp\cccR0yaZ.s:858    .text.aes_decrypt:0000000000000292 .LBE236
C:\Users\stapi\AppData\Local\Temp\cccR0yaZ.s:866    .text.aes_decrypt:00000000000002aa .LBB240
C:\Users\stapi\AppData\Local\Temp\cccR0yaZ.s:871    .text.aes_decrypt:00000000000002ae .LBE240
C:\Users\stapi\AppData\Local\Temp\cccR0yaZ.s:885    .text.aes_decrypt:00000000000002b8 .LBB243
C:\Users\stapi\AppData\Local\Temp\cccR0yaZ.s:889    .text.aes_decrypt:00000000000002bc .LBE243
C:\Users\stapi\AppData\Local\Temp\cccR0yaZ.s:912    .text.aes_decrypt:00000000000002ce .LBE246
C:\Users\stapi\AppData\Local\Temp\cccR0yaZ.s:936    .text.aes_decrypt:00000000000002ea .LBB259
C:\Users\stapi\AppData\Local\Temp\cccR0yaZ.s:940    .text.aes_decrypt:00000000000002ee .LBE259
C:\Users\stapi\AppData\Local\Temp\cccR0yaZ.s:962    .text.aes_decrypt:0000000000000302 .LBB263
C:\Users\stapi\AppData\Local\Temp\cccR0yaZ.s:966    .text.aes_decrypt:0000000000000306 .LBE263
C:\Users\stapi\AppData\Local\Temp\cccR0yaZ.s:917    .text.aes_decrypt:00000000000002ce .LBE250
C:\Users\stapi\AppData\Local\Temp\cccR0yaZ.s:943    .text.aes_decrypt:00000000000002f2 .LBB260
C:\Users\stapi\AppData\Local\Temp\cccR0yaZ.s:948    .text.aes_decrypt:00000000000002f6 .LBE260
C:\Users\stapi\AppData\Local\Temp\cccR0yaZ.s:956    .text.aes_decrypt:00000000000002fe .LBB262
C:\Users\stapi\AppData\Local\Temp\cccR0yaZ.s:961    .text.aes_decrypt:0000000000000302 .LBE262
C:\Users\stapi\AppData\Local\Temp\cccR0yaZ.s:922    .text.aes_decrypt:00000000000002ce .LBE254
C:\Users\stapi\AppData\Local\Temp\cccR0yaZ.s:930    .text.aes_decrypt:00000000000002e6 .LBB258
C:\Users\stapi\AppData\Local\Temp\cccR0yaZ.s:935    .text.aes_decrypt:00000000000002ea .LBE258
C:\Users\stapi\AppData\Local\Temp\cccR0yaZ.s:949    .text.aes_decrypt:00000000000002f6 .LBB261
C:\Users\stapi\AppData\Local\Temp\cccR0yaZ.s:953    .text.aes_decrypt:00000000000002fa .LBE261
C:\Users\stapi\AppData\Local\Temp\cccR0yaZ.s:976    .text.aes_decrypt:000000000000030e .LBE264
C:\Users\stapi\AppData\Local\Temp\cccR0yaZ.s:999    .text.aes_decrypt:0000000000000324 .LBB276
C:\Users\stapi\AppData\Local\Temp\cccR0yaZ.s:1003   .text.aes_decrypt:0000000000000328 .LBE276
C:\Users\stapi\AppData\Local\Temp\cccR0yaZ.s:1012   .text.aes_decrypt:0000000000000330 .LBB278
C:\Users\stapi\AppData\Local\Temp\cccR0yaZ.s:1016   .text.aes_decrypt:0000000000000334 .LBE278
C:\Users\stapi\AppData\Local\Temp\cccR0yaZ.s:981    .text.aes_decrypt:000000000000030e .LBE268
C:\Users\stapi\AppData\Local\Temp\cccR0yaZ.s:1021   .text.aes_decrypt:0000000000000340 .LBB279
C:\Users\stapi\AppData\Local\Temp\cccR0yaZ.s:1027   .text.aes_decrypt:0000000000000348 .LBE279
C:\Users\stapi\AppData\Local\Temp\cccR0yaZ.s:986    .text.aes_decrypt:000000000000030e .LBE271
C:\Users\stapi\AppData\Local\Temp\cccR0yaZ.s:993    .text.aes_decrypt:0000000000000320 .LBB275
C:\Users\stapi\AppData\Local\Temp\cccR0yaZ.s:998    .text.aes_decrypt:0000000000000324 .LBE275
C:\Users\stapi\AppData\Local\Temp\cccR0yaZ.s:1006   .text.aes_decrypt:000000000000032c .LBB277
C:\Users\stapi\AppData\Local\Temp\cccR0yaZ.s:1011   .text.aes_decrypt:0000000000000330 .LBE277

UNDEFINED SYMBOLS
__riscv_save_3
os_malloc
rijndaelKeySetupEnc
Td0
Te0
__riscv_restore_3
os_free
__riscv_save_10
Td4s
__riscv_restore_10
__riscv_save_1
os_memset
__riscv_restore_1
