   1              		.file	"aes-internal-enc.c"
   2              		.option nopic
   3              		.attribute arch, "rv32i2p0_m2p0_a2p0_f2p0_c2p0_b_p0p94"
   4              		.attribute unaligned_access, 0
   5              		.attribute stack_align, 16
   6              		.text
   7              	.Ltext0:
   8              		.cfi_sections	.debug_frame
   9              		.section	.text.aes_encrypt_init,"ax",@progbits
  10              		.align	1
  11              		.globl	aes_encrypt_init
  13              	aes_encrypt_init:
  14              	.LFB73:
  15              		.file 1 "C:/Users/stapi/OneDrive/Desktop/GD32VW553/V1_MQTT_OK/GD32VW55X_Wifi_BLE_SDK/GD32VW55x_REL
   1:C:/Users/stapi/OneDrive/Desktop/GD32VW553/V1_MQTT_OK/GD32VW55X_Wifi_BLE_SDK/GD32VW55x_RELEASE_V1.0.2/MSDK/wpa_supplicant/src/crypto\aes-internal-enc.c **** /*
   2:C:/Users/stapi/OneDrive/Desktop/GD32VW553/V1_MQTT_OK/GD32VW55X_Wifi_BLE_SDK/GD32VW55x_RELEASE_V1.0.2/MSDK/wpa_supplicant/src/crypto\aes-internal-enc.c ****  * AES (Rijndael) cipher - encrypt
   3:C:/Users/stapi/OneDrive/Desktop/GD32VW553/V1_MQTT_OK/GD32VW55X_Wifi_BLE_SDK/GD32VW55x_RELEASE_V1.0.2/MSDK/wpa_supplicant/src/crypto\aes-internal-enc.c ****  *
   4:C:/Users/stapi/OneDrive/Desktop/GD32VW553/V1_MQTT_OK/GD32VW55X_Wifi_BLE_SDK/GD32VW55x_RELEASE_V1.0.2/MSDK/wpa_supplicant/src/crypto\aes-internal-enc.c ****  * Modifications to public domain implementation:
   5:C:/Users/stapi/OneDrive/Desktop/GD32VW553/V1_MQTT_OK/GD32VW55X_Wifi_BLE_SDK/GD32VW55x_RELEASE_V1.0.2/MSDK/wpa_supplicant/src/crypto\aes-internal-enc.c ****  * - cleanup
   6:C:/Users/stapi/OneDrive/Desktop/GD32VW553/V1_MQTT_OK/GD32VW55X_Wifi_BLE_SDK/GD32VW55x_RELEASE_V1.0.2/MSDK/wpa_supplicant/src/crypto\aes-internal-enc.c ****  * - use C pre-processor to make it easier to change S table access
   7:C:/Users/stapi/OneDrive/Desktop/GD32VW553/V1_MQTT_OK/GD32VW55X_Wifi_BLE_SDK/GD32VW55x_RELEASE_V1.0.2/MSDK/wpa_supplicant/src/crypto\aes-internal-enc.c ****  * - added option (AES_SMALL_TABLES) for reducing code size by about 8 kB at
   8:C:/Users/stapi/OneDrive/Desktop/GD32VW553/V1_MQTT_OK/GD32VW55X_Wifi_BLE_SDK/GD32VW55x_RELEASE_V1.0.2/MSDK/wpa_supplicant/src/crypto\aes-internal-enc.c ****  *   cost of reduced throughput (quite small difference on Pentium 4,
   9:C:/Users/stapi/OneDrive/Desktop/GD32VW553/V1_MQTT_OK/GD32VW55X_Wifi_BLE_SDK/GD32VW55x_RELEASE_V1.0.2/MSDK/wpa_supplicant/src/crypto\aes-internal-enc.c ****  *   10-25% when using -O1 or -O2 optimization)
  10:C:/Users/stapi/OneDrive/Desktop/GD32VW553/V1_MQTT_OK/GD32VW55X_Wifi_BLE_SDK/GD32VW55x_RELEASE_V1.0.2/MSDK/wpa_supplicant/src/crypto\aes-internal-enc.c ****  *
  11:C:/Users/stapi/OneDrive/Desktop/GD32VW553/V1_MQTT_OK/GD32VW55X_Wifi_BLE_SDK/GD32VW55x_RELEASE_V1.0.2/MSDK/wpa_supplicant/src/crypto\aes-internal-enc.c ****  * Copyright (c) 2003-2012, Jouni Malinen <j@w1.fi>
  12:C:/Users/stapi/OneDrive/Desktop/GD32VW553/V1_MQTT_OK/GD32VW55X_Wifi_BLE_SDK/GD32VW55x_RELEASE_V1.0.2/MSDK/wpa_supplicant/src/crypto\aes-internal-enc.c ****  *
  13:C:/Users/stapi/OneDrive/Desktop/GD32VW553/V1_MQTT_OK/GD32VW55X_Wifi_BLE_SDK/GD32VW55x_RELEASE_V1.0.2/MSDK/wpa_supplicant/src/crypto\aes-internal-enc.c ****  * This software may be distributed under the terms of the BSD license.
  14:C:/Users/stapi/OneDrive/Desktop/GD32VW553/V1_MQTT_OK/GD32VW55X_Wifi_BLE_SDK/GD32VW55x_RELEASE_V1.0.2/MSDK/wpa_supplicant/src/crypto\aes-internal-enc.c ****  * See README for more details.
  15:C:/Users/stapi/OneDrive/Desktop/GD32VW553/V1_MQTT_OK/GD32VW55X_Wifi_BLE_SDK/GD32VW55x_RELEASE_V1.0.2/MSDK/wpa_supplicant/src/crypto\aes-internal-enc.c ****  */
  16:C:/Users/stapi/OneDrive/Desktop/GD32VW553/V1_MQTT_OK/GD32VW55X_Wifi_BLE_SDK/GD32VW55x_RELEASE_V1.0.2/MSDK/wpa_supplicant/src/crypto\aes-internal-enc.c **** 
  17:C:/Users/stapi/OneDrive/Desktop/GD32VW553/V1_MQTT_OK/GD32VW55X_Wifi_BLE_SDK/GD32VW55x_RELEASE_V1.0.2/MSDK/wpa_supplicant/src/crypto\aes-internal-enc.c **** #include "includes.h"
  18:C:/Users/stapi/OneDrive/Desktop/GD32VW553/V1_MQTT_OK/GD32VW55X_Wifi_BLE_SDK/GD32VW55x_RELEASE_V1.0.2/MSDK/wpa_supplicant/src/crypto\aes-internal-enc.c **** 
  19:C:/Users/stapi/OneDrive/Desktop/GD32VW553/V1_MQTT_OK/GD32VW55X_Wifi_BLE_SDK/GD32VW55x_RELEASE_V1.0.2/MSDK/wpa_supplicant/src/crypto\aes-internal-enc.c **** #include "common.h"
  20:C:/Users/stapi/OneDrive/Desktop/GD32VW553/V1_MQTT_OK/GD32VW55X_Wifi_BLE_SDK/GD32VW55x_RELEASE_V1.0.2/MSDK/wpa_supplicant/src/crypto\aes-internal-enc.c **** #include "crypto.h"
  21:C:/Users/stapi/OneDrive/Desktop/GD32VW553/V1_MQTT_OK/GD32VW55X_Wifi_BLE_SDK/GD32VW55x_RELEASE_V1.0.2/MSDK/wpa_supplicant/src/crypto\aes-internal-enc.c **** #include "aes_i.h"
  22:C:/Users/stapi/OneDrive/Desktop/GD32VW553/V1_MQTT_OK/GD32VW55X_Wifi_BLE_SDK/GD32VW55x_RELEASE_V1.0.2/MSDK/wpa_supplicant/src/crypto\aes-internal-enc.c **** 
  23:C:/Users/stapi/OneDrive/Desktop/GD32VW553/V1_MQTT_OK/GD32VW55X_Wifi_BLE_SDK/GD32VW55x_RELEASE_V1.0.2/MSDK/wpa_supplicant/src/crypto\aes-internal-enc.c **** static void rijndaelEncrypt(const u32 rk[], int Nr, const u8 pt[16], u8 ct[16])
  24:C:/Users/stapi/OneDrive/Desktop/GD32VW553/V1_MQTT_OK/GD32VW55X_Wifi_BLE_SDK/GD32VW55x_RELEASE_V1.0.2/MSDK/wpa_supplicant/src/crypto\aes-internal-enc.c **** {
  25:C:/Users/stapi/OneDrive/Desktop/GD32VW553/V1_MQTT_OK/GD32VW55X_Wifi_BLE_SDK/GD32VW55x_RELEASE_V1.0.2/MSDK/wpa_supplicant/src/crypto\aes-internal-enc.c **** 	u32 s0, s1, s2, s3, t0, t1, t2, t3;
  26:C:/Users/stapi/OneDrive/Desktop/GD32VW553/V1_MQTT_OK/GD32VW55X_Wifi_BLE_SDK/GD32VW55x_RELEASE_V1.0.2/MSDK/wpa_supplicant/src/crypto\aes-internal-enc.c **** #ifndef FULL_UNROLL
  27:C:/Users/stapi/OneDrive/Desktop/GD32VW553/V1_MQTT_OK/GD32VW55X_Wifi_BLE_SDK/GD32VW55x_RELEASE_V1.0.2/MSDK/wpa_supplicant/src/crypto\aes-internal-enc.c **** 	int r;
  28:C:/Users/stapi/OneDrive/Desktop/GD32VW553/V1_MQTT_OK/GD32VW55X_Wifi_BLE_SDK/GD32VW55x_RELEASE_V1.0.2/MSDK/wpa_supplicant/src/crypto\aes-internal-enc.c **** #endif /* ?FULL_UNROLL */
  29:C:/Users/stapi/OneDrive/Desktop/GD32VW553/V1_MQTT_OK/GD32VW55X_Wifi_BLE_SDK/GD32VW55x_RELEASE_V1.0.2/MSDK/wpa_supplicant/src/crypto\aes-internal-enc.c **** 
  30:C:/Users/stapi/OneDrive/Desktop/GD32VW553/V1_MQTT_OK/GD32VW55X_Wifi_BLE_SDK/GD32VW55x_RELEASE_V1.0.2/MSDK/wpa_supplicant/src/crypto\aes-internal-enc.c **** 	/*
  31:C:/Users/stapi/OneDrive/Desktop/GD32VW553/V1_MQTT_OK/GD32VW55X_Wifi_BLE_SDK/GD32VW55x_RELEASE_V1.0.2/MSDK/wpa_supplicant/src/crypto\aes-internal-enc.c **** 	 * map byte array block to cipher state
  32:C:/Users/stapi/OneDrive/Desktop/GD32VW553/V1_MQTT_OK/GD32VW55X_Wifi_BLE_SDK/GD32VW55x_RELEASE_V1.0.2/MSDK/wpa_supplicant/src/crypto\aes-internal-enc.c **** 	 * and add initial round key:
  33:C:/Users/stapi/OneDrive/Desktop/GD32VW553/V1_MQTT_OK/GD32VW55X_Wifi_BLE_SDK/GD32VW55x_RELEASE_V1.0.2/MSDK/wpa_supplicant/src/crypto\aes-internal-enc.c **** 	 */
  34:C:/Users/stapi/OneDrive/Desktop/GD32VW553/V1_MQTT_OK/GD32VW55X_Wifi_BLE_SDK/GD32VW55x_RELEASE_V1.0.2/MSDK/wpa_supplicant/src/crypto\aes-internal-enc.c **** 	s0 = GETU32(pt     ) ^ rk[0];
  35:C:/Users/stapi/OneDrive/Desktop/GD32VW553/V1_MQTT_OK/GD32VW55X_Wifi_BLE_SDK/GD32VW55x_RELEASE_V1.0.2/MSDK/wpa_supplicant/src/crypto\aes-internal-enc.c **** 	s1 = GETU32(pt +  4) ^ rk[1];
  36:C:/Users/stapi/OneDrive/Desktop/GD32VW553/V1_MQTT_OK/GD32VW55X_Wifi_BLE_SDK/GD32VW55x_RELEASE_V1.0.2/MSDK/wpa_supplicant/src/crypto\aes-internal-enc.c **** 	s2 = GETU32(pt +  8) ^ rk[2];
  37:C:/Users/stapi/OneDrive/Desktop/GD32VW553/V1_MQTT_OK/GD32VW55X_Wifi_BLE_SDK/GD32VW55x_RELEASE_V1.0.2/MSDK/wpa_supplicant/src/crypto\aes-internal-enc.c **** 	s3 = GETU32(pt + 12) ^ rk[3];
  38:C:/Users/stapi/OneDrive/Desktop/GD32VW553/V1_MQTT_OK/GD32VW55X_Wifi_BLE_SDK/GD32VW55x_RELEASE_V1.0.2/MSDK/wpa_supplicant/src/crypto\aes-internal-enc.c **** 
  39:C:/Users/stapi/OneDrive/Desktop/GD32VW553/V1_MQTT_OK/GD32VW55X_Wifi_BLE_SDK/GD32VW55x_RELEASE_V1.0.2/MSDK/wpa_supplicant/src/crypto\aes-internal-enc.c **** #define ROUND(i,d,s) \
  40:C:/Users/stapi/OneDrive/Desktop/GD32VW553/V1_MQTT_OK/GD32VW55X_Wifi_BLE_SDK/GD32VW55x_RELEASE_V1.0.2/MSDK/wpa_supplicant/src/crypto\aes-internal-enc.c **** d##0 = TE0(s##0) ^ TE1(s##1) ^ TE2(s##2) ^ TE3(s##3) ^ rk[4 * i]; \
  41:C:/Users/stapi/OneDrive/Desktop/GD32VW553/V1_MQTT_OK/GD32VW55X_Wifi_BLE_SDK/GD32VW55x_RELEASE_V1.0.2/MSDK/wpa_supplicant/src/crypto\aes-internal-enc.c **** d##1 = TE0(s##1) ^ TE1(s##2) ^ TE2(s##3) ^ TE3(s##0) ^ rk[4 * i + 1]; \
  42:C:/Users/stapi/OneDrive/Desktop/GD32VW553/V1_MQTT_OK/GD32VW55X_Wifi_BLE_SDK/GD32VW55x_RELEASE_V1.0.2/MSDK/wpa_supplicant/src/crypto\aes-internal-enc.c **** d##2 = TE0(s##2) ^ TE1(s##3) ^ TE2(s##0) ^ TE3(s##1) ^ rk[4 * i + 2]; \
  43:C:/Users/stapi/OneDrive/Desktop/GD32VW553/V1_MQTT_OK/GD32VW55X_Wifi_BLE_SDK/GD32VW55x_RELEASE_V1.0.2/MSDK/wpa_supplicant/src/crypto\aes-internal-enc.c **** d##3 = TE0(s##3) ^ TE1(s##0) ^ TE2(s##1) ^ TE3(s##2) ^ rk[4 * i + 3]
  44:C:/Users/stapi/OneDrive/Desktop/GD32VW553/V1_MQTT_OK/GD32VW55X_Wifi_BLE_SDK/GD32VW55x_RELEASE_V1.0.2/MSDK/wpa_supplicant/src/crypto\aes-internal-enc.c **** 
  45:C:/Users/stapi/OneDrive/Desktop/GD32VW553/V1_MQTT_OK/GD32VW55X_Wifi_BLE_SDK/GD32VW55x_RELEASE_V1.0.2/MSDK/wpa_supplicant/src/crypto\aes-internal-enc.c **** #ifdef FULL_UNROLL
  46:C:/Users/stapi/OneDrive/Desktop/GD32VW553/V1_MQTT_OK/GD32VW55X_Wifi_BLE_SDK/GD32VW55x_RELEASE_V1.0.2/MSDK/wpa_supplicant/src/crypto\aes-internal-enc.c **** 
  47:C:/Users/stapi/OneDrive/Desktop/GD32VW553/V1_MQTT_OK/GD32VW55X_Wifi_BLE_SDK/GD32VW55x_RELEASE_V1.0.2/MSDK/wpa_supplicant/src/crypto\aes-internal-enc.c **** 	ROUND(1,t,s);
  48:C:/Users/stapi/OneDrive/Desktop/GD32VW553/V1_MQTT_OK/GD32VW55X_Wifi_BLE_SDK/GD32VW55x_RELEASE_V1.0.2/MSDK/wpa_supplicant/src/crypto\aes-internal-enc.c **** 	ROUND(2,s,t);
  49:C:/Users/stapi/OneDrive/Desktop/GD32VW553/V1_MQTT_OK/GD32VW55X_Wifi_BLE_SDK/GD32VW55x_RELEASE_V1.0.2/MSDK/wpa_supplicant/src/crypto\aes-internal-enc.c **** 	ROUND(3,t,s);
  50:C:/Users/stapi/OneDrive/Desktop/GD32VW553/V1_MQTT_OK/GD32VW55X_Wifi_BLE_SDK/GD32VW55x_RELEASE_V1.0.2/MSDK/wpa_supplicant/src/crypto\aes-internal-enc.c **** 	ROUND(4,s,t);
  51:C:/Users/stapi/OneDrive/Desktop/GD32VW553/V1_MQTT_OK/GD32VW55X_Wifi_BLE_SDK/GD32VW55x_RELEASE_V1.0.2/MSDK/wpa_supplicant/src/crypto\aes-internal-enc.c **** 	ROUND(5,t,s);
  52:C:/Users/stapi/OneDrive/Desktop/GD32VW553/V1_MQTT_OK/GD32VW55X_Wifi_BLE_SDK/GD32VW55x_RELEASE_V1.0.2/MSDK/wpa_supplicant/src/crypto\aes-internal-enc.c **** 	ROUND(6,s,t);
  53:C:/Users/stapi/OneDrive/Desktop/GD32VW553/V1_MQTT_OK/GD32VW55X_Wifi_BLE_SDK/GD32VW55x_RELEASE_V1.0.2/MSDK/wpa_supplicant/src/crypto\aes-internal-enc.c **** 	ROUND(7,t,s);
  54:C:/Users/stapi/OneDrive/Desktop/GD32VW553/V1_MQTT_OK/GD32VW55X_Wifi_BLE_SDK/GD32VW55x_RELEASE_V1.0.2/MSDK/wpa_supplicant/src/crypto\aes-internal-enc.c **** 	ROUND(8,s,t);
  55:C:/Users/stapi/OneDrive/Desktop/GD32VW553/V1_MQTT_OK/GD32VW55X_Wifi_BLE_SDK/GD32VW55x_RELEASE_V1.0.2/MSDK/wpa_supplicant/src/crypto\aes-internal-enc.c **** 	ROUND(9,t,s);
  56:C:/Users/stapi/OneDrive/Desktop/GD32VW553/V1_MQTT_OK/GD32VW55X_Wifi_BLE_SDK/GD32VW55x_RELEASE_V1.0.2/MSDK/wpa_supplicant/src/crypto\aes-internal-enc.c **** 	if (Nr > 10) {
  57:C:/Users/stapi/OneDrive/Desktop/GD32VW553/V1_MQTT_OK/GD32VW55X_Wifi_BLE_SDK/GD32VW55x_RELEASE_V1.0.2/MSDK/wpa_supplicant/src/crypto\aes-internal-enc.c **** 		ROUND(10,s,t);
  58:C:/Users/stapi/OneDrive/Desktop/GD32VW553/V1_MQTT_OK/GD32VW55X_Wifi_BLE_SDK/GD32VW55x_RELEASE_V1.0.2/MSDK/wpa_supplicant/src/crypto\aes-internal-enc.c **** 		ROUND(11,t,s);
  59:C:/Users/stapi/OneDrive/Desktop/GD32VW553/V1_MQTT_OK/GD32VW55X_Wifi_BLE_SDK/GD32VW55x_RELEASE_V1.0.2/MSDK/wpa_supplicant/src/crypto\aes-internal-enc.c **** 		if (Nr > 12) {
  60:C:/Users/stapi/OneDrive/Desktop/GD32VW553/V1_MQTT_OK/GD32VW55X_Wifi_BLE_SDK/GD32VW55x_RELEASE_V1.0.2/MSDK/wpa_supplicant/src/crypto\aes-internal-enc.c **** 			ROUND(12,s,t);
  61:C:/Users/stapi/OneDrive/Desktop/GD32VW553/V1_MQTT_OK/GD32VW55X_Wifi_BLE_SDK/GD32VW55x_RELEASE_V1.0.2/MSDK/wpa_supplicant/src/crypto\aes-internal-enc.c **** 			ROUND(13,t,s);
  62:C:/Users/stapi/OneDrive/Desktop/GD32VW553/V1_MQTT_OK/GD32VW55X_Wifi_BLE_SDK/GD32VW55x_RELEASE_V1.0.2/MSDK/wpa_supplicant/src/crypto\aes-internal-enc.c **** 		}
  63:C:/Users/stapi/OneDrive/Desktop/GD32VW553/V1_MQTT_OK/GD32VW55X_Wifi_BLE_SDK/GD32VW55x_RELEASE_V1.0.2/MSDK/wpa_supplicant/src/crypto\aes-internal-enc.c **** 	}
  64:C:/Users/stapi/OneDrive/Desktop/GD32VW553/V1_MQTT_OK/GD32VW55X_Wifi_BLE_SDK/GD32VW55x_RELEASE_V1.0.2/MSDK/wpa_supplicant/src/crypto\aes-internal-enc.c **** 
  65:C:/Users/stapi/OneDrive/Desktop/GD32VW553/V1_MQTT_OK/GD32VW55X_Wifi_BLE_SDK/GD32VW55x_RELEASE_V1.0.2/MSDK/wpa_supplicant/src/crypto\aes-internal-enc.c **** 	rk += Nr << 2;
  66:C:/Users/stapi/OneDrive/Desktop/GD32VW553/V1_MQTT_OK/GD32VW55X_Wifi_BLE_SDK/GD32VW55x_RELEASE_V1.0.2/MSDK/wpa_supplicant/src/crypto\aes-internal-enc.c **** 
  67:C:/Users/stapi/OneDrive/Desktop/GD32VW553/V1_MQTT_OK/GD32VW55X_Wifi_BLE_SDK/GD32VW55x_RELEASE_V1.0.2/MSDK/wpa_supplicant/src/crypto\aes-internal-enc.c **** #else  /* !FULL_UNROLL */
  68:C:/Users/stapi/OneDrive/Desktop/GD32VW553/V1_MQTT_OK/GD32VW55X_Wifi_BLE_SDK/GD32VW55x_RELEASE_V1.0.2/MSDK/wpa_supplicant/src/crypto\aes-internal-enc.c **** 
  69:C:/Users/stapi/OneDrive/Desktop/GD32VW553/V1_MQTT_OK/GD32VW55X_Wifi_BLE_SDK/GD32VW55x_RELEASE_V1.0.2/MSDK/wpa_supplicant/src/crypto\aes-internal-enc.c **** 	/* Nr - 1 full rounds: */
  70:C:/Users/stapi/OneDrive/Desktop/GD32VW553/V1_MQTT_OK/GD32VW55X_Wifi_BLE_SDK/GD32VW55x_RELEASE_V1.0.2/MSDK/wpa_supplicant/src/crypto\aes-internal-enc.c **** 	r = Nr >> 1;
  71:C:/Users/stapi/OneDrive/Desktop/GD32VW553/V1_MQTT_OK/GD32VW55X_Wifi_BLE_SDK/GD32VW55x_RELEASE_V1.0.2/MSDK/wpa_supplicant/src/crypto\aes-internal-enc.c **** 	for (;;) {
  72:C:/Users/stapi/OneDrive/Desktop/GD32VW553/V1_MQTT_OK/GD32VW55X_Wifi_BLE_SDK/GD32VW55x_RELEASE_V1.0.2/MSDK/wpa_supplicant/src/crypto\aes-internal-enc.c **** 		ROUND(1,t,s);
  73:C:/Users/stapi/OneDrive/Desktop/GD32VW553/V1_MQTT_OK/GD32VW55X_Wifi_BLE_SDK/GD32VW55x_RELEASE_V1.0.2/MSDK/wpa_supplicant/src/crypto\aes-internal-enc.c **** 		rk += 8;
  74:C:/Users/stapi/OneDrive/Desktop/GD32VW553/V1_MQTT_OK/GD32VW55X_Wifi_BLE_SDK/GD32VW55x_RELEASE_V1.0.2/MSDK/wpa_supplicant/src/crypto\aes-internal-enc.c **** 		if (--r == 0)
  75:C:/Users/stapi/OneDrive/Desktop/GD32VW553/V1_MQTT_OK/GD32VW55X_Wifi_BLE_SDK/GD32VW55x_RELEASE_V1.0.2/MSDK/wpa_supplicant/src/crypto\aes-internal-enc.c **** 			break;
  76:C:/Users/stapi/OneDrive/Desktop/GD32VW553/V1_MQTT_OK/GD32VW55X_Wifi_BLE_SDK/GD32VW55x_RELEASE_V1.0.2/MSDK/wpa_supplicant/src/crypto\aes-internal-enc.c **** 		ROUND(0,s,t);
  77:C:/Users/stapi/OneDrive/Desktop/GD32VW553/V1_MQTT_OK/GD32VW55X_Wifi_BLE_SDK/GD32VW55x_RELEASE_V1.0.2/MSDK/wpa_supplicant/src/crypto\aes-internal-enc.c **** 	}
  78:C:/Users/stapi/OneDrive/Desktop/GD32VW553/V1_MQTT_OK/GD32VW55X_Wifi_BLE_SDK/GD32VW55x_RELEASE_V1.0.2/MSDK/wpa_supplicant/src/crypto\aes-internal-enc.c **** 
  79:C:/Users/stapi/OneDrive/Desktop/GD32VW553/V1_MQTT_OK/GD32VW55X_Wifi_BLE_SDK/GD32VW55x_RELEASE_V1.0.2/MSDK/wpa_supplicant/src/crypto\aes-internal-enc.c **** #endif /* ?FULL_UNROLL */
  80:C:/Users/stapi/OneDrive/Desktop/GD32VW553/V1_MQTT_OK/GD32VW55X_Wifi_BLE_SDK/GD32VW55x_RELEASE_V1.0.2/MSDK/wpa_supplicant/src/crypto\aes-internal-enc.c **** 
  81:C:/Users/stapi/OneDrive/Desktop/GD32VW553/V1_MQTT_OK/GD32VW55X_Wifi_BLE_SDK/GD32VW55x_RELEASE_V1.0.2/MSDK/wpa_supplicant/src/crypto\aes-internal-enc.c **** #undef ROUND
  82:C:/Users/stapi/OneDrive/Desktop/GD32VW553/V1_MQTT_OK/GD32VW55X_Wifi_BLE_SDK/GD32VW55x_RELEASE_V1.0.2/MSDK/wpa_supplicant/src/crypto\aes-internal-enc.c **** 
  83:C:/Users/stapi/OneDrive/Desktop/GD32VW553/V1_MQTT_OK/GD32VW55X_Wifi_BLE_SDK/GD32VW55x_RELEASE_V1.0.2/MSDK/wpa_supplicant/src/crypto\aes-internal-enc.c **** 	/*
  84:C:/Users/stapi/OneDrive/Desktop/GD32VW553/V1_MQTT_OK/GD32VW55X_Wifi_BLE_SDK/GD32VW55x_RELEASE_V1.0.2/MSDK/wpa_supplicant/src/crypto\aes-internal-enc.c **** 	 * apply last round and
  85:C:/Users/stapi/OneDrive/Desktop/GD32VW553/V1_MQTT_OK/GD32VW55X_Wifi_BLE_SDK/GD32VW55x_RELEASE_V1.0.2/MSDK/wpa_supplicant/src/crypto\aes-internal-enc.c **** 	 * map cipher state to byte array block:
  86:C:/Users/stapi/OneDrive/Desktop/GD32VW553/V1_MQTT_OK/GD32VW55X_Wifi_BLE_SDK/GD32VW55x_RELEASE_V1.0.2/MSDK/wpa_supplicant/src/crypto\aes-internal-enc.c **** 	 */
  87:C:/Users/stapi/OneDrive/Desktop/GD32VW553/V1_MQTT_OK/GD32VW55X_Wifi_BLE_SDK/GD32VW55x_RELEASE_V1.0.2/MSDK/wpa_supplicant/src/crypto\aes-internal-enc.c **** 	s0 = TE41(t0) ^ TE42(t1) ^ TE43(t2) ^ TE44(t3) ^ rk[0];
  88:C:/Users/stapi/OneDrive/Desktop/GD32VW553/V1_MQTT_OK/GD32VW55X_Wifi_BLE_SDK/GD32VW55x_RELEASE_V1.0.2/MSDK/wpa_supplicant/src/crypto\aes-internal-enc.c **** 	PUTU32(ct     , s0);
  89:C:/Users/stapi/OneDrive/Desktop/GD32VW553/V1_MQTT_OK/GD32VW55X_Wifi_BLE_SDK/GD32VW55x_RELEASE_V1.0.2/MSDK/wpa_supplicant/src/crypto\aes-internal-enc.c **** 	s1 = TE41(t1) ^ TE42(t2) ^ TE43(t3) ^ TE44(t0) ^ rk[1];
  90:C:/Users/stapi/OneDrive/Desktop/GD32VW553/V1_MQTT_OK/GD32VW55X_Wifi_BLE_SDK/GD32VW55x_RELEASE_V1.0.2/MSDK/wpa_supplicant/src/crypto\aes-internal-enc.c **** 	PUTU32(ct +  4, s1);
  91:C:/Users/stapi/OneDrive/Desktop/GD32VW553/V1_MQTT_OK/GD32VW55X_Wifi_BLE_SDK/GD32VW55x_RELEASE_V1.0.2/MSDK/wpa_supplicant/src/crypto\aes-internal-enc.c **** 	s2 = TE41(t2) ^ TE42(t3) ^ TE43(t0) ^ TE44(t1) ^ rk[2];
  92:C:/Users/stapi/OneDrive/Desktop/GD32VW553/V1_MQTT_OK/GD32VW55X_Wifi_BLE_SDK/GD32VW55x_RELEASE_V1.0.2/MSDK/wpa_supplicant/src/crypto\aes-internal-enc.c **** 	PUTU32(ct +  8, s2);
  93:C:/Users/stapi/OneDrive/Desktop/GD32VW553/V1_MQTT_OK/GD32VW55X_Wifi_BLE_SDK/GD32VW55x_RELEASE_V1.0.2/MSDK/wpa_supplicant/src/crypto\aes-internal-enc.c **** 	s3 = TE41(t3) ^ TE42(t0) ^ TE43(t1) ^ TE44(t2) ^ rk[3];
  94:C:/Users/stapi/OneDrive/Desktop/GD32VW553/V1_MQTT_OK/GD32VW55X_Wifi_BLE_SDK/GD32VW55x_RELEASE_V1.0.2/MSDK/wpa_supplicant/src/crypto\aes-internal-enc.c **** 	PUTU32(ct + 12, s3);
  95:C:/Users/stapi/OneDrive/Desktop/GD32VW553/V1_MQTT_OK/GD32VW55X_Wifi_BLE_SDK/GD32VW55x_RELEASE_V1.0.2/MSDK/wpa_supplicant/src/crypto\aes-internal-enc.c **** }
  96:C:/Users/stapi/OneDrive/Desktop/GD32VW553/V1_MQTT_OK/GD32VW55X_Wifi_BLE_SDK/GD32VW55x_RELEASE_V1.0.2/MSDK/wpa_supplicant/src/crypto\aes-internal-enc.c **** 
  97:C:/Users/stapi/OneDrive/Desktop/GD32VW553/V1_MQTT_OK/GD32VW55X_Wifi_BLE_SDK/GD32VW55x_RELEASE_V1.0.2/MSDK/wpa_supplicant/src/crypto\aes-internal-enc.c **** 
  98:C:/Users/stapi/OneDrive/Desktop/GD32VW553/V1_MQTT_OK/GD32VW55X_Wifi_BLE_SDK/GD32VW55x_RELEASE_V1.0.2/MSDK/wpa_supplicant/src/crypto\aes-internal-enc.c **** void * aes_encrypt_init(const u8 *key, size_t len)
  99:C:/Users/stapi/OneDrive/Desktop/GD32VW553/V1_MQTT_OK/GD32VW55X_Wifi_BLE_SDK/GD32VW55x_RELEASE_V1.0.2/MSDK/wpa_supplicant/src/crypto\aes-internal-enc.c **** {
  16              		.loc 1 99 1
  17              		.cfi_startproc
  18              	.LVL0:
  19 0000 17030000 		call	t0,__riscv_save_3
  19      E7020300 
  20              		.cfi_offset 18, -16
  21              		.cfi_offset 9, -12
  22              		.cfi_offset 8, -8
  23              		.cfi_offset 1, -4
  24              		.cfi_def_cfa_offset 16
 100:C:/Users/stapi/OneDrive/Desktop/GD32VW553/V1_MQTT_OK/GD32VW55X_Wifi_BLE_SDK/GD32VW55x_RELEASE_V1.0.2/MSDK/wpa_supplicant/src/crypto\aes-internal-enc.c **** 	u32 *rk;
  25              		.loc 1 100 2
 101:C:/Users/stapi/OneDrive/Desktop/GD32VW553/V1_MQTT_OK/GD32VW55X_Wifi_BLE_SDK/GD32VW55x_RELEASE_V1.0.2/MSDK/wpa_supplicant/src/crypto\aes-internal-enc.c **** 	int res;
  26              		.loc 1 101 2
 102:C:/Users/stapi/OneDrive/Desktop/GD32VW553/V1_MQTT_OK/GD32VW55X_Wifi_BLE_SDK/GD32VW55x_RELEASE_V1.0.2/MSDK/wpa_supplicant/src/crypto\aes-internal-enc.c **** 
 103:C:/Users/stapi/OneDrive/Desktop/GD32VW553/V1_MQTT_OK/GD32VW55X_Wifi_BLE_SDK/GD32VW55x_RELEASE_V1.0.2/MSDK/wpa_supplicant/src/crypto\aes-internal-enc.c **** 	if (TEST_FAIL())
  27              		.loc 1 103 2
 104:C:/Users/stapi/OneDrive/Desktop/GD32VW553/V1_MQTT_OK/GD32VW55X_Wifi_BLE_SDK/GD32VW55x_RELEASE_V1.0.2/MSDK/wpa_supplicant/src/crypto\aes-internal-enc.c **** 		return NULL;
 105:C:/Users/stapi/OneDrive/Desktop/GD32VW553/V1_MQTT_OK/GD32VW55X_Wifi_BLE_SDK/GD32VW55x_RELEASE_V1.0.2/MSDK/wpa_supplicant/src/crypto\aes-internal-enc.c **** 
 106:C:/Users/stapi/OneDrive/Desktop/GD32VW553/V1_MQTT_OK/GD32VW55X_Wifi_BLE_SDK/GD32VW55x_RELEASE_V1.0.2/MSDK/wpa_supplicant/src/crypto\aes-internal-enc.c **** 	rk = os_malloc(AES_PRIV_SIZE);
  28              		.loc 1 106 2
  99:C:/Users/stapi/OneDrive/Desktop/GD32VW553/V1_MQTT_OK/GD32VW55X_Wifi_BLE_SDK/GD32VW55x_RELEASE_V1.0.2/MSDK/wpa_supplicant/src/crypto\aes-internal-enc.c **** 	u32 *rk;
  29              		.loc 1 99 1 is_stmt 0
  30 0008 AA84     		mv	s1,a0
  31              		.loc 1 106 7
  32 000a 1305400F 		li	a0,244
  33              	.LVL1:
  99:C:/Users/stapi/OneDrive/Desktop/GD32VW553/V1_MQTT_OK/GD32VW55X_Wifi_BLE_SDK/GD32VW55x_RELEASE_V1.0.2/MSDK/wpa_supplicant/src/crypto\aes-internal-enc.c **** 	u32 *rk;
  34              		.loc 1 99 1
  35 000e 2E89     		mv	s2,a1
  36              		.loc 1 106 7
  37 0010 97000000 		call	os_malloc
  37      E7800000 
  38              	.LVL2:
  39 0018 2A84     		mv	s0,a0
  40              	.LVL3:
 107:C:/Users/stapi/OneDrive/Desktop/GD32VW553/V1_MQTT_OK/GD32VW55X_Wifi_BLE_SDK/GD32VW55x_RELEASE_V1.0.2/MSDK/wpa_supplicant/src/crypto\aes-internal-enc.c **** 	if (rk == NULL)
  41              		.loc 1 107 2 is_stmt 1
  42              		.loc 1 107 5 is_stmt 0
  43 001a 05C1     		beq	a0,zero,.L1
 108:C:/Users/stapi/OneDrive/Desktop/GD32VW553/V1_MQTT_OK/GD32VW55X_Wifi_BLE_SDK/GD32VW55x_RELEASE_V1.0.2/MSDK/wpa_supplicant/src/crypto\aes-internal-enc.c **** 		return NULL;
 109:C:/Users/stapi/OneDrive/Desktop/GD32VW553/V1_MQTT_OK/GD32VW55X_Wifi_BLE_SDK/GD32VW55x_RELEASE_V1.0.2/MSDK/wpa_supplicant/src/crypto\aes-internal-enc.c **** 	res = rijndaelKeySetupEnc(rk, key, len * 8);
  44              		.loc 1 109 2 is_stmt 1
  45              		.loc 1 109 8 is_stmt 0
  46 001c 13163900 		slli	a2,s2,3
  47 0020 A685     		mv	a1,s1
  48 0022 97000000 		call	rijndaelKeySetupEnc
  48      E7800000 
  49              	.LVL4:
 110:C:/Users/stapi/OneDrive/Desktop/GD32VW553/V1_MQTT_OK/GD32VW55X_Wifi_BLE_SDK/GD32VW55x_RELEASE_V1.0.2/MSDK/wpa_supplicant/src/crypto\aes-internal-enc.c **** 	if (res < 0) {
  50              		.loc 1 110 2 is_stmt 1
  51              		.loc 1 110 5 is_stmt 0
  52 002a 635D0500 		bge	a0,zero,.L3
 111:C:/Users/stapi/OneDrive/Desktop/GD32VW553/V1_MQTT_OK/GD32VW55X_Wifi_BLE_SDK/GD32VW55x_RELEASE_V1.0.2/MSDK/wpa_supplicant/src/crypto\aes-internal-enc.c **** 		os_free(rk);
  53              		.loc 1 111 3 is_stmt 1
  54 002e 2285     		mv	a0,s0
  55              	.LVL5:
  56 0030 97000000 		call	os_free
  56      E7800000 
  57              	.LVL6:
 112:C:/Users/stapi/OneDrive/Desktop/GD32VW553/V1_MQTT_OK/GD32VW55X_Wifi_BLE_SDK/GD32VW55x_RELEASE_V1.0.2/MSDK/wpa_supplicant/src/crypto\aes-internal-enc.c **** 		return NULL;
  58              		.loc 1 112 3
  59              		.loc 1 112 10 is_stmt 0
  60 0038 0144     		li	s0,0
  61              	.LVL7:
  62              	.L1:
 113:C:/Users/stapi/OneDrive/Desktop/GD32VW553/V1_MQTT_OK/GD32VW55X_Wifi_BLE_SDK/GD32VW55x_RELEASE_V1.0.2/MSDK/wpa_supplicant/src/crypto\aes-internal-enc.c **** 	}
 114:C:/Users/stapi/OneDrive/Desktop/GD32VW553/V1_MQTT_OK/GD32VW55X_Wifi_BLE_SDK/GD32VW55x_RELEASE_V1.0.2/MSDK/wpa_supplicant/src/crypto\aes-internal-enc.c **** 	rk[AES_PRIV_NR_POS] = res;
 115:C:/Users/stapi/OneDrive/Desktop/GD32VW553/V1_MQTT_OK/GD32VW55X_Wifi_BLE_SDK/GD32VW55x_RELEASE_V1.0.2/MSDK/wpa_supplicant/src/crypto\aes-internal-enc.c **** 	return rk;
 116:C:/Users/stapi/OneDrive/Desktop/GD32VW553/V1_MQTT_OK/GD32VW55X_Wifi_BLE_SDK/GD32VW55x_RELEASE_V1.0.2/MSDK/wpa_supplicant/src/crypto\aes-internal-enc.c **** }
  63              		.loc 1 116 1
  64 003a 2285     		mv	a0,s0
  65 003c 17030000 		tail	__riscv_restore_3
  65      67000300 
  66              		.cfi_remember_state
  67              		.cfi_restore 18
  68              		.cfi_restore 9
  69              		.cfi_restore 8
  70              		.cfi_restore 1
  71              		.cfi_def_cfa_offset 0
  72              	.LVL8:
  73              	.L3:
  74              		.cfi_restore_state
 114:C:/Users/stapi/OneDrive/Desktop/GD32VW553/V1_MQTT_OK/GD32VW55X_Wifi_BLE_SDK/GD32VW55x_RELEASE_V1.0.2/MSDK/wpa_supplicant/src/crypto\aes-internal-enc.c **** 	return rk;
  75              		.loc 1 114 2 is_stmt 1
 114:C:/Users/stapi/OneDrive/Desktop/GD32VW553/V1_MQTT_OK/GD32VW55X_Wifi_BLE_SDK/GD32VW55x_RELEASE_V1.0.2/MSDK/wpa_supplicant/src/crypto\aes-internal-enc.c **** 	return rk;
  76              		.loc 1 114 22 is_stmt 0
  77 0044 2328A40E 		sw	a0,240(s0)
 115:C:/Users/stapi/OneDrive/Desktop/GD32VW553/V1_MQTT_OK/GD32VW55X_Wifi_BLE_SDK/GD32VW55x_RELEASE_V1.0.2/MSDK/wpa_supplicant/src/crypto\aes-internal-enc.c **** }
  78              		.loc 1 115 2 is_stmt 1
 115:C:/Users/stapi/OneDrive/Desktop/GD32VW553/V1_MQTT_OK/GD32VW55X_Wifi_BLE_SDK/GD32VW55x_RELEASE_V1.0.2/MSDK/wpa_supplicant/src/crypto\aes-internal-enc.c **** }
  79              		.loc 1 115 9 is_stmt 0
  80 0048 CDBF     		j	.L1
  81              		.cfi_endproc
  82              	.LFE73:
  84              		.section	.text.aes_encrypt,"ax",@progbits
  85              		.align	1
  86              		.globl	aes_encrypt
  88              	aes_encrypt:
  89              	.LFB74:
 117:C:/Users/stapi/OneDrive/Desktop/GD32VW553/V1_MQTT_OK/GD32VW55X_Wifi_BLE_SDK/GD32VW55x_RELEASE_V1.0.2/MSDK/wpa_supplicant/src/crypto\aes-internal-enc.c **** 
 118:C:/Users/stapi/OneDrive/Desktop/GD32VW553/V1_MQTT_OK/GD32VW55X_Wifi_BLE_SDK/GD32VW55x_RELEASE_V1.0.2/MSDK/wpa_supplicant/src/crypto\aes-internal-enc.c **** 
 119:C:/Users/stapi/OneDrive/Desktop/GD32VW553/V1_MQTT_OK/GD32VW55X_Wifi_BLE_SDK/GD32VW55x_RELEASE_V1.0.2/MSDK/wpa_supplicant/src/crypto\aes-internal-enc.c **** int aes_encrypt(void *ctx, const u8 *plain, u8 *crypt)
 120:C:/Users/stapi/OneDrive/Desktop/GD32VW553/V1_MQTT_OK/GD32VW55X_Wifi_BLE_SDK/GD32VW55x_RELEASE_V1.0.2/MSDK/wpa_supplicant/src/crypto\aes-internal-enc.c **** {
  90              		.loc 1 120 1 is_stmt 1
  91              		.cfi_startproc
  92              	.LVL9:
  93 0000 17030000 		call	t0,__riscv_save_11
  93      E7020300 
  94              		.cfi_offset 26, -48
  95              		.cfi_offset 25, -44
  96              		.cfi_offset 24, -40
  97              		.cfi_offset 23, -36
  98              		.cfi_offset 22, -32
  99              		.cfi_offset 21, -28
 100              		.cfi_offset 20, -24
 101              		.cfi_offset 19, -20
 102              		.cfi_offset 18, -16
 103              		.cfi_offset 9, -12
 104              		.cfi_offset 8, -8
 105              		.cfi_def_cfa_offset 48
 121:C:/Users/stapi/OneDrive/Desktop/GD32VW553/V1_MQTT_OK/GD32VW55X_Wifi_BLE_SDK/GD32VW55x_RELEASE_V1.0.2/MSDK/wpa_supplicant/src/crypto\aes-internal-enc.c **** 	u32 *rk = ctx;
 106              		.loc 1 121 2
 107              	.LVL10:
 122:C:/Users/stapi/OneDrive/Desktop/GD32VW553/V1_MQTT_OK/GD32VW55X_Wifi_BLE_SDK/GD32VW55x_RELEASE_V1.0.2/MSDK/wpa_supplicant/src/crypto\aes-internal-enc.c **** 	rijndaelEncrypt(ctx, rk[AES_PRIV_NR_POS], plain, crypt);
 108              		.loc 1 122 2
 109              	.LBB100:
 110              	.LBB101:
  25:C:/Users/stapi/OneDrive/Desktop/GD32VW553/V1_MQTT_OK/GD32VW55X_Wifi_BLE_SDK/GD32VW55x_RELEASE_V1.0.2/MSDK/wpa_supplicant/src/crypto\aes-internal-enc.c **** #ifndef FULL_UNROLL
 111              		.loc 1 25 2
  27:C:/Users/stapi/OneDrive/Desktop/GD32VW553/V1_MQTT_OK/GD32VW55X_Wifi_BLE_SDK/GD32VW55x_RELEASE_V1.0.2/MSDK/wpa_supplicant/src/crypto\aes-internal-enc.c **** #endif /* ?FULL_UNROLL */
 112              		.loc 1 27 2
  34:C:/Users/stapi/OneDrive/Desktop/GD32VW553/V1_MQTT_OK/GD32VW55X_Wifi_BLE_SDK/GD32VW55x_RELEASE_V1.0.2/MSDK/wpa_supplicant/src/crypto\aes-internal-enc.c **** 	s1 = GETU32(pt +  4) ^ rk[1];
 113              		.loc 1 34 2
  34:C:/Users/stapi/OneDrive/Desktop/GD32VW553/V1_MQTT_OK/GD32VW55X_Wifi_BLE_SDK/GD32VW55x_RELEASE_V1.0.2/MSDK/wpa_supplicant/src/crypto\aes-internal-enc.c **** 	s1 = GETU32(pt +  4) ^ rk[1];
 114              		.loc 1 34 7 is_stmt 0
 115 0008 83C60500 		lbu	a3,0(a1)
 116 000c 83C71500 		lbu	a5,1(a1)
  35:C:/Users/stapi/OneDrive/Desktop/GD32VW553/V1_MQTT_OK/GD32VW55X_Wifi_BLE_SDK/GD32VW55x_RELEASE_V1.0.2/MSDK/wpa_supplicant/src/crypto\aes-internal-enc.c **** 	s2 = GETU32(pt +  8) ^ rk[2];
 117              		.loc 1 35 7
 118 0010 03C75500 		lbu	a4,5(a1)
  34:C:/Users/stapi/OneDrive/Desktop/GD32VW553/V1_MQTT_OK/GD32VW55X_Wifi_BLE_SDK/GD32VW55x_RELEASE_V1.0.2/MSDK/wpa_supplicant/src/crypto\aes-internal-enc.c **** 	s1 = GETU32(pt +  4) ^ rk[1];
 119              		.loc 1 34 7
 120 0014 E206     		slli	a3,a3,24
 121 0016 C207     		slli	a5,a5,16
 122 0018 BD8E     		xor	a3,a3,a5
 123 001a 83C73500 		lbu	a5,3(a1)
  35:C:/Users/stapi/OneDrive/Desktop/GD32VW553/V1_MQTT_OK/GD32VW55X_Wifi_BLE_SDK/GD32VW55x_RELEASE_V1.0.2/MSDK/wpa_supplicant/src/crypto\aes-internal-enc.c **** 	s2 = GETU32(pt +  8) ^ rk[2];
 124              		.loc 1 35 7
 125 001e 4207     		slli	a4,a4,16
  36:C:/Users/stapi/OneDrive/Desktop/GD32VW553/V1_MQTT_OK/GD32VW55X_Wifi_BLE_SDK/GD32VW55x_RELEASE_V1.0.2/MSDK/wpa_supplicant/src/crypto\aes-internal-enc.c **** 	s3 = GETU32(pt + 12) ^ rk[3];
 126              		.loc 1 36 7
 127 0020 03CB8500 		lbu	s6,8(a1)
  34:C:/Users/stapi/OneDrive/Desktop/GD32VW553/V1_MQTT_OK/GD32VW55X_Wifi_BLE_SDK/GD32VW55x_RELEASE_V1.0.2/MSDK/wpa_supplicant/src/crypto\aes-internal-enc.c **** 	s1 = GETU32(pt +  4) ^ rk[1];
 128              		.loc 1 34 7
 129 0024 BD8E     		xor	a3,a3,a5
 130 0026 83C72500 		lbu	a5,2(a1)
  36:C:/Users/stapi/OneDrive/Desktop/GD32VW553/V1_MQTT_OK/GD32VW55X_Wifi_BLE_SDK/GD32VW55x_RELEASE_V1.0.2/MSDK/wpa_supplicant/src/crypto\aes-internal-enc.c **** 	s3 = GETU32(pt + 12) ^ rk[3];
 131              		.loc 1 36 7
 132 002a 620B     		slli	s6,s6,24
  37:C:/Users/stapi/OneDrive/Desktop/GD32VW553/V1_MQTT_OK/GD32VW55X_Wifi_BLE_SDK/GD32VW55x_RELEASE_V1.0.2/MSDK/wpa_supplicant/src/crypto\aes-internal-enc.c **** 
 133              		.loc 1 37 7
 134 002c 03C8D500 		lbu	a6,13(a1)
  34:C:/Users/stapi/OneDrive/Desktop/GD32VW553/V1_MQTT_OK/GD32VW55X_Wifi_BLE_SDK/GD32VW55x_RELEASE_V1.0.2/MSDK/wpa_supplicant/src/crypto\aes-internal-enc.c **** 	s1 = GETU32(pt +  4) ^ rk[1];
 135              		.loc 1 34 7
 136 0030 A207     		slli	a5,a5,8
 137 0032 BD8E     		xor	a3,a3,a5
  34:C:/Users/stapi/OneDrive/Desktop/GD32VW553/V1_MQTT_OK/GD32VW55X_Wifi_BLE_SDK/GD32VW55x_RELEASE_V1.0.2/MSDK/wpa_supplicant/src/crypto\aes-internal-enc.c **** 	s1 = GETU32(pt +  4) ^ rk[1];
 138              		.loc 1 34 5
 139 0034 1C41     		lw	a5,0(a0)
  37:C:/Users/stapi/OneDrive/Desktop/GD32VW553/V1_MQTT_OK/GD32VW55X_Wifi_BLE_SDK/GD32VW55x_RELEASE_V1.0.2/MSDK/wpa_supplicant/src/crypto\aes-internal-enc.c **** 
 140              		.loc 1 37 7
 141 0036 4208     		slli	a6,a6,16
  36:C:/Users/stapi/OneDrive/Desktop/GD32VW553/V1_MQTT_OK/GD32VW55X_Wifi_BLE_SDK/GD32VW55x_RELEASE_V1.0.2/MSDK/wpa_supplicant/src/crypto\aes-internal-enc.c **** 	s3 = GETU32(pt + 12) ^ rk[3];
 142              		.loc 1 36 7
 143 0038 83CAA500 		lbu	s5,10(a1)
  34:C:/Users/stapi/OneDrive/Desktop/GD32VW553/V1_MQTT_OK/GD32VW55X_Wifi_BLE_SDK/GD32VW55x_RELEASE_V1.0.2/MSDK/wpa_supplicant/src/crypto\aes-internal-enc.c **** 	s1 = GETU32(pt +  4) ^ rk[1];
 144              		.loc 1 34 5
 145 003c BD8E     		xor	a3,a3,a5
 146              	.LVL11:
  35:C:/Users/stapi/OneDrive/Desktop/GD32VW553/V1_MQTT_OK/GD32VW55X_Wifi_BLE_SDK/GD32VW55x_RELEASE_V1.0.2/MSDK/wpa_supplicant/src/crypto\aes-internal-enc.c **** 	s2 = GETU32(pt +  8) ^ rk[2];
 147              		.loc 1 35 2 is_stmt 1
  35:C:/Users/stapi/OneDrive/Desktop/GD32VW553/V1_MQTT_OK/GD32VW55X_Wifi_BLE_SDK/GD32VW55x_RELEASE_V1.0.2/MSDK/wpa_supplicant/src/crypto\aes-internal-enc.c **** 	s2 = GETU32(pt +  8) ^ rk[2];
 148              		.loc 1 35 7 is_stmt 0
 149 003e 83C74500 		lbu	a5,4(a1)
  36:C:/Users/stapi/OneDrive/Desktop/GD32VW553/V1_MQTT_OK/GD32VW55X_Wifi_BLE_SDK/GD32VW55x_RELEASE_V1.0.2/MSDK/wpa_supplicant/src/crypto\aes-internal-enc.c **** 	s3 = GETU32(pt + 12) ^ rk[3];
 150              		.loc 1 36 7
 151 0042 A20A     		slli	s5,s5,8
  70:C:/Users/stapi/OneDrive/Desktop/GD32VW553/V1_MQTT_OK/GD32VW55X_Wifi_BLE_SDK/GD32VW55x_RELEASE_V1.0.2/MSDK/wpa_supplicant/src/crypto\aes-internal-enc.c **** 	for (;;) {
 152              		.loc 1 70 4
 153 0044 8322050F 		lw	t0,240(a0)
  35:C:/Users/stapi/OneDrive/Desktop/GD32VW553/V1_MQTT_OK/GD32VW55X_Wifi_BLE_SDK/GD32VW55x_RELEASE_V1.0.2/MSDK/wpa_supplicant/src/crypto\aes-internal-enc.c **** 	s2 = GETU32(pt +  8) ^ rk[2];
 154              		.loc 1 35 7
 155 0048 E207     		slli	a5,a5,24
 156 004a B98F     		xor	a5,a5,a4
 157 004c 03C77500 		lbu	a4,7(a1)
  70:C:/Users/stapi/OneDrive/Desktop/GD32VW553/V1_MQTT_OK/GD32VW55X_Wifi_BLE_SDK/GD32VW55x_RELEASE_V1.0.2/MSDK/wpa_supplicant/src/crypto\aes-internal-enc.c **** 	for (;;) {
 158              		.loc 1 70 4
 159 0050 93D21240 		srai	t0,t0,1
 160 0054 968C     		mv	s9,t0
  35:C:/Users/stapi/OneDrive/Desktop/GD32VW553/V1_MQTT_OK/GD32VW55X_Wifi_BLE_SDK/GD32VW55x_RELEASE_V1.0.2/MSDK/wpa_supplicant/src/crypto\aes-internal-enc.c **** 	s2 = GETU32(pt +  8) ^ rk[2];
 161              		.loc 1 35 7
 162 0056 B98F     		xor	a5,a5,a4
 163 0058 03C76500 		lbu	a4,6(a1)
  70:C:/Users/stapi/OneDrive/Desktop/GD32VW553/V1_MQTT_OK/GD32VW55X_Wifi_BLE_SDK/GD32VW55x_RELEASE_V1.0.2/MSDK/wpa_supplicant/src/crypto\aes-internal-enc.c **** 	for (;;) {
 164              		.loc 1 70 4
 165 005c AA83     		mv	t2,a0
 166              	.LBB102:
 167              	.LBB103:
 168              		.file 2 "C:/Users/stapi/OneDrive/Desktop/GD32VW553/V1_MQTT_OK/GD32VW55X_Wifi_BLE_SDK/GD32VW55x_REL
   1:C:/Users/stapi/OneDrive/Desktop/GD32VW553/V1_MQTT_OK/GD32VW55X_Wifi_BLE_SDK/GD32VW55x_RELEASE_V1.0.2/MSDK/wpa_supplicant/src/crypto\aes_i.h **** /*
   2:C:/Users/stapi/OneDrive/Desktop/GD32VW553/V1_MQTT_OK/GD32VW55X_Wifi_BLE_SDK/GD32VW55x_RELEASE_V1.0.2/MSDK/wpa_supplicant/src/crypto\aes_i.h ****  * AES (Rijndael) cipher
   3:C:/Users/stapi/OneDrive/Desktop/GD32VW553/V1_MQTT_OK/GD32VW55X_Wifi_BLE_SDK/GD32VW55x_RELEASE_V1.0.2/MSDK/wpa_supplicant/src/crypto\aes_i.h ****  * Copyright (c) 2003-2012, Jouni Malinen <j@w1.fi>
   4:C:/Users/stapi/OneDrive/Desktop/GD32VW553/V1_MQTT_OK/GD32VW55X_Wifi_BLE_SDK/GD32VW55x_RELEASE_V1.0.2/MSDK/wpa_supplicant/src/crypto\aes_i.h ****  *
   5:C:/Users/stapi/OneDrive/Desktop/GD32VW553/V1_MQTT_OK/GD32VW55X_Wifi_BLE_SDK/GD32VW55x_RELEASE_V1.0.2/MSDK/wpa_supplicant/src/crypto\aes_i.h ****  * This software may be distributed under the terms of the BSD license.
   6:C:/Users/stapi/OneDrive/Desktop/GD32VW553/V1_MQTT_OK/GD32VW55X_Wifi_BLE_SDK/GD32VW55x_RELEASE_V1.0.2/MSDK/wpa_supplicant/src/crypto\aes_i.h ****  * See README for more details.
   7:C:/Users/stapi/OneDrive/Desktop/GD32VW553/V1_MQTT_OK/GD32VW55X_Wifi_BLE_SDK/GD32VW55x_RELEASE_V1.0.2/MSDK/wpa_supplicant/src/crypto\aes_i.h ****  */
   8:C:/Users/stapi/OneDrive/Desktop/GD32VW553/V1_MQTT_OK/GD32VW55X_Wifi_BLE_SDK/GD32VW55x_RELEASE_V1.0.2/MSDK/wpa_supplicant/src/crypto\aes_i.h **** 
   9:C:/Users/stapi/OneDrive/Desktop/GD32VW553/V1_MQTT_OK/GD32VW55X_Wifi_BLE_SDK/GD32VW55x_RELEASE_V1.0.2/MSDK/wpa_supplicant/src/crypto\aes_i.h **** #ifndef AES_I_H
  10:C:/Users/stapi/OneDrive/Desktop/GD32VW553/V1_MQTT_OK/GD32VW55X_Wifi_BLE_SDK/GD32VW55x_RELEASE_V1.0.2/MSDK/wpa_supplicant/src/crypto\aes_i.h **** #define AES_I_H
  11:C:/Users/stapi/OneDrive/Desktop/GD32VW553/V1_MQTT_OK/GD32VW55X_Wifi_BLE_SDK/GD32VW55x_RELEASE_V1.0.2/MSDK/wpa_supplicant/src/crypto\aes_i.h **** 
  12:C:/Users/stapi/OneDrive/Desktop/GD32VW553/V1_MQTT_OK/GD32VW55X_Wifi_BLE_SDK/GD32VW55x_RELEASE_V1.0.2/MSDK/wpa_supplicant/src/crypto\aes_i.h **** #include "aes.h"
  13:C:/Users/stapi/OneDrive/Desktop/GD32VW553/V1_MQTT_OK/GD32VW55X_Wifi_BLE_SDK/GD32VW55x_RELEASE_V1.0.2/MSDK/wpa_supplicant/src/crypto\aes_i.h **** 
  14:C:/Users/stapi/OneDrive/Desktop/GD32VW553/V1_MQTT_OK/GD32VW55X_Wifi_BLE_SDK/GD32VW55x_RELEASE_V1.0.2/MSDK/wpa_supplicant/src/crypto\aes_i.h **** /* #define FULL_UNROLL */
  15:C:/Users/stapi/OneDrive/Desktop/GD32VW553/V1_MQTT_OK/GD32VW55X_Wifi_BLE_SDK/GD32VW55x_RELEASE_V1.0.2/MSDK/wpa_supplicant/src/crypto\aes_i.h **** #define AES_SMALL_TABLES
  16:C:/Users/stapi/OneDrive/Desktop/GD32VW553/V1_MQTT_OK/GD32VW55X_Wifi_BLE_SDK/GD32VW55x_RELEASE_V1.0.2/MSDK/wpa_supplicant/src/crypto\aes_i.h **** 
  17:C:/Users/stapi/OneDrive/Desktop/GD32VW553/V1_MQTT_OK/GD32VW55X_Wifi_BLE_SDK/GD32VW55x_RELEASE_V1.0.2/MSDK/wpa_supplicant/src/crypto\aes_i.h **** extern const u32 Te0[256];
  18:C:/Users/stapi/OneDrive/Desktop/GD32VW553/V1_MQTT_OK/GD32VW55X_Wifi_BLE_SDK/GD32VW55x_RELEASE_V1.0.2/MSDK/wpa_supplicant/src/crypto\aes_i.h **** extern const u32 Te1[256];
  19:C:/Users/stapi/OneDrive/Desktop/GD32VW553/V1_MQTT_OK/GD32VW55X_Wifi_BLE_SDK/GD32VW55x_RELEASE_V1.0.2/MSDK/wpa_supplicant/src/crypto\aes_i.h **** extern const u32 Te2[256];
  20:C:/Users/stapi/OneDrive/Desktop/GD32VW553/V1_MQTT_OK/GD32VW55X_Wifi_BLE_SDK/GD32VW55x_RELEASE_V1.0.2/MSDK/wpa_supplicant/src/crypto\aes_i.h **** extern const u32 Te3[256];
  21:C:/Users/stapi/OneDrive/Desktop/GD32VW553/V1_MQTT_OK/GD32VW55X_Wifi_BLE_SDK/GD32VW55x_RELEASE_V1.0.2/MSDK/wpa_supplicant/src/crypto\aes_i.h **** extern const u32 Te4[256];
  22:C:/Users/stapi/OneDrive/Desktop/GD32VW553/V1_MQTT_OK/GD32VW55X_Wifi_BLE_SDK/GD32VW55x_RELEASE_V1.0.2/MSDK/wpa_supplicant/src/crypto\aes_i.h **** extern const u32 Td0[256];
  23:C:/Users/stapi/OneDrive/Desktop/GD32VW553/V1_MQTT_OK/GD32VW55X_Wifi_BLE_SDK/GD32VW55x_RELEASE_V1.0.2/MSDK/wpa_supplicant/src/crypto\aes_i.h **** extern const u32 Td1[256];
  24:C:/Users/stapi/OneDrive/Desktop/GD32VW553/V1_MQTT_OK/GD32VW55X_Wifi_BLE_SDK/GD32VW55x_RELEASE_V1.0.2/MSDK/wpa_supplicant/src/crypto\aes_i.h **** extern const u32 Td2[256];
  25:C:/Users/stapi/OneDrive/Desktop/GD32VW553/V1_MQTT_OK/GD32VW55X_Wifi_BLE_SDK/GD32VW55x_RELEASE_V1.0.2/MSDK/wpa_supplicant/src/crypto\aes_i.h **** extern const u32 Td3[256];
  26:C:/Users/stapi/OneDrive/Desktop/GD32VW553/V1_MQTT_OK/GD32VW55X_Wifi_BLE_SDK/GD32VW55x_RELEASE_V1.0.2/MSDK/wpa_supplicant/src/crypto\aes_i.h **** extern const u32 Td4[256];
  27:C:/Users/stapi/OneDrive/Desktop/GD32VW553/V1_MQTT_OK/GD32VW55X_Wifi_BLE_SDK/GD32VW55x_RELEASE_V1.0.2/MSDK/wpa_supplicant/src/crypto\aes_i.h **** extern const u32 rcon[10];
  28:C:/Users/stapi/OneDrive/Desktop/GD32VW553/V1_MQTT_OK/GD32VW55X_Wifi_BLE_SDK/GD32VW55x_RELEASE_V1.0.2/MSDK/wpa_supplicant/src/crypto\aes_i.h **** extern const u8 Td4s[256];
  29:C:/Users/stapi/OneDrive/Desktop/GD32VW553/V1_MQTT_OK/GD32VW55X_Wifi_BLE_SDK/GD32VW55x_RELEASE_V1.0.2/MSDK/wpa_supplicant/src/crypto\aes_i.h **** extern const u8 rcons[10];
  30:C:/Users/stapi/OneDrive/Desktop/GD32VW553/V1_MQTT_OK/GD32VW55X_Wifi_BLE_SDK/GD32VW55x_RELEASE_V1.0.2/MSDK/wpa_supplicant/src/crypto\aes_i.h **** 
  31:C:/Users/stapi/OneDrive/Desktop/GD32VW553/V1_MQTT_OK/GD32VW55X_Wifi_BLE_SDK/GD32VW55x_RELEASE_V1.0.2/MSDK/wpa_supplicant/src/crypto\aes_i.h **** #ifndef AES_SMALL_TABLES
  32:C:/Users/stapi/OneDrive/Desktop/GD32VW553/V1_MQTT_OK/GD32VW55X_Wifi_BLE_SDK/GD32VW55x_RELEASE_V1.0.2/MSDK/wpa_supplicant/src/crypto\aes_i.h **** 
  33:C:/Users/stapi/OneDrive/Desktop/GD32VW553/V1_MQTT_OK/GD32VW55X_Wifi_BLE_SDK/GD32VW55x_RELEASE_V1.0.2/MSDK/wpa_supplicant/src/crypto\aes_i.h **** #define RCON(i) rcon[(i)]
  34:C:/Users/stapi/OneDrive/Desktop/GD32VW553/V1_MQTT_OK/GD32VW55X_Wifi_BLE_SDK/GD32VW55x_RELEASE_V1.0.2/MSDK/wpa_supplicant/src/crypto\aes_i.h **** 
  35:C:/Users/stapi/OneDrive/Desktop/GD32VW553/V1_MQTT_OK/GD32VW55X_Wifi_BLE_SDK/GD32VW55x_RELEASE_V1.0.2/MSDK/wpa_supplicant/src/crypto\aes_i.h **** #define TE0(i) Te0[((i) >> 24) & 0xff]
  36:C:/Users/stapi/OneDrive/Desktop/GD32VW553/V1_MQTT_OK/GD32VW55X_Wifi_BLE_SDK/GD32VW55x_RELEASE_V1.0.2/MSDK/wpa_supplicant/src/crypto\aes_i.h **** #define TE1(i) Te1[((i) >> 16) & 0xff]
  37:C:/Users/stapi/OneDrive/Desktop/GD32VW553/V1_MQTT_OK/GD32VW55X_Wifi_BLE_SDK/GD32VW55x_RELEASE_V1.0.2/MSDK/wpa_supplicant/src/crypto\aes_i.h **** #define TE2(i) Te2[((i) >> 8) & 0xff]
  38:C:/Users/stapi/OneDrive/Desktop/GD32VW553/V1_MQTT_OK/GD32VW55X_Wifi_BLE_SDK/GD32VW55x_RELEASE_V1.0.2/MSDK/wpa_supplicant/src/crypto\aes_i.h **** #define TE3(i) Te3[(i) & 0xff]
  39:C:/Users/stapi/OneDrive/Desktop/GD32VW553/V1_MQTT_OK/GD32VW55X_Wifi_BLE_SDK/GD32VW55x_RELEASE_V1.0.2/MSDK/wpa_supplicant/src/crypto\aes_i.h **** #define TE41(i) (Te4[((i) >> 24) & 0xff] & 0xff000000)
  40:C:/Users/stapi/OneDrive/Desktop/GD32VW553/V1_MQTT_OK/GD32VW55X_Wifi_BLE_SDK/GD32VW55x_RELEASE_V1.0.2/MSDK/wpa_supplicant/src/crypto\aes_i.h **** #define TE42(i) (Te4[((i) >> 16) & 0xff] & 0x00ff0000)
  41:C:/Users/stapi/OneDrive/Desktop/GD32VW553/V1_MQTT_OK/GD32VW55X_Wifi_BLE_SDK/GD32VW55x_RELEASE_V1.0.2/MSDK/wpa_supplicant/src/crypto\aes_i.h **** #define TE43(i) (Te4[((i) >> 8) & 0xff] & 0x0000ff00)
  42:C:/Users/stapi/OneDrive/Desktop/GD32VW553/V1_MQTT_OK/GD32VW55X_Wifi_BLE_SDK/GD32VW55x_RELEASE_V1.0.2/MSDK/wpa_supplicant/src/crypto\aes_i.h **** #define TE44(i) (Te4[(i) & 0xff] & 0x000000ff)
  43:C:/Users/stapi/OneDrive/Desktop/GD32VW553/V1_MQTT_OK/GD32VW55X_Wifi_BLE_SDK/GD32VW55x_RELEASE_V1.0.2/MSDK/wpa_supplicant/src/crypto\aes_i.h **** #define TE421(i) (Te4[((i) >> 16) & 0xff] & 0xff000000)
  44:C:/Users/stapi/OneDrive/Desktop/GD32VW553/V1_MQTT_OK/GD32VW55X_Wifi_BLE_SDK/GD32VW55x_RELEASE_V1.0.2/MSDK/wpa_supplicant/src/crypto\aes_i.h **** #define TE432(i) (Te4[((i) >> 8) & 0xff] & 0x00ff0000)
  45:C:/Users/stapi/OneDrive/Desktop/GD32VW553/V1_MQTT_OK/GD32VW55X_Wifi_BLE_SDK/GD32VW55x_RELEASE_V1.0.2/MSDK/wpa_supplicant/src/crypto\aes_i.h **** #define TE443(i) (Te4[(i) & 0xff] & 0x0000ff00)
  46:C:/Users/stapi/OneDrive/Desktop/GD32VW553/V1_MQTT_OK/GD32VW55X_Wifi_BLE_SDK/GD32VW55x_RELEASE_V1.0.2/MSDK/wpa_supplicant/src/crypto\aes_i.h **** #define TE414(i) (Te4[((i) >> 24) & 0xff] & 0x000000ff)
  47:C:/Users/stapi/OneDrive/Desktop/GD32VW553/V1_MQTT_OK/GD32VW55X_Wifi_BLE_SDK/GD32VW55x_RELEASE_V1.0.2/MSDK/wpa_supplicant/src/crypto\aes_i.h **** #define TE411(i) (Te4[((i) >> 24) & 0xff] & 0xff000000)
  48:C:/Users/stapi/OneDrive/Desktop/GD32VW553/V1_MQTT_OK/GD32VW55X_Wifi_BLE_SDK/GD32VW55x_RELEASE_V1.0.2/MSDK/wpa_supplicant/src/crypto\aes_i.h **** #define TE422(i) (Te4[((i) >> 16) & 0xff] & 0x00ff0000)
  49:C:/Users/stapi/OneDrive/Desktop/GD32VW553/V1_MQTT_OK/GD32VW55X_Wifi_BLE_SDK/GD32VW55x_RELEASE_V1.0.2/MSDK/wpa_supplicant/src/crypto\aes_i.h **** #define TE433(i) (Te4[((i) >> 8) & 0xff] & 0x0000ff00)
  50:C:/Users/stapi/OneDrive/Desktop/GD32VW553/V1_MQTT_OK/GD32VW55X_Wifi_BLE_SDK/GD32VW55x_RELEASE_V1.0.2/MSDK/wpa_supplicant/src/crypto\aes_i.h **** #define TE444(i) (Te4[(i) & 0xff] & 0x000000ff)
  51:C:/Users/stapi/OneDrive/Desktop/GD32VW553/V1_MQTT_OK/GD32VW55X_Wifi_BLE_SDK/GD32VW55x_RELEASE_V1.0.2/MSDK/wpa_supplicant/src/crypto\aes_i.h **** #define TE4(i) (Te4[(i)] & 0x000000ff)
  52:C:/Users/stapi/OneDrive/Desktop/GD32VW553/V1_MQTT_OK/GD32VW55X_Wifi_BLE_SDK/GD32VW55x_RELEASE_V1.0.2/MSDK/wpa_supplicant/src/crypto\aes_i.h **** 
  53:C:/Users/stapi/OneDrive/Desktop/GD32VW553/V1_MQTT_OK/GD32VW55X_Wifi_BLE_SDK/GD32VW55x_RELEASE_V1.0.2/MSDK/wpa_supplicant/src/crypto\aes_i.h **** #define TD0(i) Td0[((i) >> 24) & 0xff]
  54:C:/Users/stapi/OneDrive/Desktop/GD32VW553/V1_MQTT_OK/GD32VW55X_Wifi_BLE_SDK/GD32VW55x_RELEASE_V1.0.2/MSDK/wpa_supplicant/src/crypto\aes_i.h **** #define TD1(i) Td1[((i) >> 16) & 0xff]
  55:C:/Users/stapi/OneDrive/Desktop/GD32VW553/V1_MQTT_OK/GD32VW55X_Wifi_BLE_SDK/GD32VW55x_RELEASE_V1.0.2/MSDK/wpa_supplicant/src/crypto\aes_i.h **** #define TD2(i) Td2[((i) >> 8) & 0xff]
  56:C:/Users/stapi/OneDrive/Desktop/GD32VW553/V1_MQTT_OK/GD32VW55X_Wifi_BLE_SDK/GD32VW55x_RELEASE_V1.0.2/MSDK/wpa_supplicant/src/crypto\aes_i.h **** #define TD3(i) Td3[(i) & 0xff]
  57:C:/Users/stapi/OneDrive/Desktop/GD32VW553/V1_MQTT_OK/GD32VW55X_Wifi_BLE_SDK/GD32VW55x_RELEASE_V1.0.2/MSDK/wpa_supplicant/src/crypto\aes_i.h **** #define TD41(i) (Td4[((i) >> 24) & 0xff] & 0xff000000)
  58:C:/Users/stapi/OneDrive/Desktop/GD32VW553/V1_MQTT_OK/GD32VW55X_Wifi_BLE_SDK/GD32VW55x_RELEASE_V1.0.2/MSDK/wpa_supplicant/src/crypto\aes_i.h **** #define TD42(i) (Td4[((i) >> 16) & 0xff] & 0x00ff0000)
  59:C:/Users/stapi/OneDrive/Desktop/GD32VW553/V1_MQTT_OK/GD32VW55X_Wifi_BLE_SDK/GD32VW55x_RELEASE_V1.0.2/MSDK/wpa_supplicant/src/crypto\aes_i.h **** #define TD43(i) (Td4[((i) >> 8) & 0xff] & 0x0000ff00)
  60:C:/Users/stapi/OneDrive/Desktop/GD32VW553/V1_MQTT_OK/GD32VW55X_Wifi_BLE_SDK/GD32VW55x_RELEASE_V1.0.2/MSDK/wpa_supplicant/src/crypto\aes_i.h **** #define TD44(i) (Td4[(i) & 0xff] & 0x000000ff)
  61:C:/Users/stapi/OneDrive/Desktop/GD32VW553/V1_MQTT_OK/GD32VW55X_Wifi_BLE_SDK/GD32VW55x_RELEASE_V1.0.2/MSDK/wpa_supplicant/src/crypto\aes_i.h **** #define TD0_(i) Td0[(i) & 0xff]
  62:C:/Users/stapi/OneDrive/Desktop/GD32VW553/V1_MQTT_OK/GD32VW55X_Wifi_BLE_SDK/GD32VW55x_RELEASE_V1.0.2/MSDK/wpa_supplicant/src/crypto\aes_i.h **** #define TD1_(i) Td1[(i) & 0xff]
  63:C:/Users/stapi/OneDrive/Desktop/GD32VW553/V1_MQTT_OK/GD32VW55X_Wifi_BLE_SDK/GD32VW55x_RELEASE_V1.0.2/MSDK/wpa_supplicant/src/crypto\aes_i.h **** #define TD2_(i) Td2[(i) & 0xff]
  64:C:/Users/stapi/OneDrive/Desktop/GD32VW553/V1_MQTT_OK/GD32VW55X_Wifi_BLE_SDK/GD32VW55x_RELEASE_V1.0.2/MSDK/wpa_supplicant/src/crypto\aes_i.h **** #define TD3_(i) Td3[(i) & 0xff]
  65:C:/Users/stapi/OneDrive/Desktop/GD32VW553/V1_MQTT_OK/GD32VW55X_Wifi_BLE_SDK/GD32VW55x_RELEASE_V1.0.2/MSDK/wpa_supplicant/src/crypto\aes_i.h **** 
  66:C:/Users/stapi/OneDrive/Desktop/GD32VW553/V1_MQTT_OK/GD32VW55X_Wifi_BLE_SDK/GD32VW55x_RELEASE_V1.0.2/MSDK/wpa_supplicant/src/crypto\aes_i.h **** #else /* AES_SMALL_TABLES */
  67:C:/Users/stapi/OneDrive/Desktop/GD32VW553/V1_MQTT_OK/GD32VW55X_Wifi_BLE_SDK/GD32VW55x_RELEASE_V1.0.2/MSDK/wpa_supplicant/src/crypto\aes_i.h **** 
  68:C:/Users/stapi/OneDrive/Desktop/GD32VW553/V1_MQTT_OK/GD32VW55X_Wifi_BLE_SDK/GD32VW55x_RELEASE_V1.0.2/MSDK/wpa_supplicant/src/crypto\aes_i.h **** #define RCON(i) ((u32) rcons[(i)] << 24)
  69:C:/Users/stapi/OneDrive/Desktop/GD32VW553/V1_MQTT_OK/GD32VW55X_Wifi_BLE_SDK/GD32VW55x_RELEASE_V1.0.2/MSDK/wpa_supplicant/src/crypto\aes_i.h **** 
  70:C:/Users/stapi/OneDrive/Desktop/GD32VW553/V1_MQTT_OK/GD32VW55X_Wifi_BLE_SDK/GD32VW55x_RELEASE_V1.0.2/MSDK/wpa_supplicant/src/crypto\aes_i.h **** static inline u32 rotr(u32 val, int bits)
  71:C:/Users/stapi/OneDrive/Desktop/GD32VW553/V1_MQTT_OK/GD32VW55X_Wifi_BLE_SDK/GD32VW55x_RELEASE_V1.0.2/MSDK/wpa_supplicant/src/crypto\aes_i.h **** {
  72:C:/Users/stapi/OneDrive/Desktop/GD32VW553/V1_MQTT_OK/GD32VW55X_Wifi_BLE_SDK/GD32VW55x_RELEASE_V1.0.2/MSDK/wpa_supplicant/src/crypto\aes_i.h **** 	return (val >> bits) | (val << (32 - bits));
 169              		.loc 2 72 23
 170 005e 214A     		li	s4,8
 171              	.LBE103:
 172              	.LBE102:
  35:C:/Users/stapi/OneDrive/Desktop/GD32VW553/V1_MQTT_OK/GD32VW55X_Wifi_BLE_SDK/GD32VW55x_RELEASE_V1.0.2/MSDK/wpa_supplicant/src/crypto\aes-internal-enc.c **** 	s2 = GETU32(pt +  8) ^ rk[2];
 173              		.loc 1 35 7
 174 0060 2207     		slli	a4,a4,8
 175 0062 B98F     		xor	a5,a5,a4
  35:C:/Users/stapi/OneDrive/Desktop/GD32VW553/V1_MQTT_OK/GD32VW55X_Wifi_BLE_SDK/GD32VW55x_RELEASE_V1.0.2/MSDK/wpa_supplicant/src/crypto\aes-internal-enc.c **** 	s2 = GETU32(pt +  8) ^ rk[2];
 176              		.loc 1 35 5
 177 0064 5841     		lw	a4,4(a0)
 178              	.LBB106:
 179              	.LBB107:
 180              		.loc 2 72 23
 181 0066 C149     		li	s3,16
 182              	.LBE107:
 183              	.LBE106:
  35:C:/Users/stapi/OneDrive/Desktop/GD32VW553/V1_MQTT_OK/GD32VW55X_Wifi_BLE_SDK/GD32VW55x_RELEASE_V1.0.2/MSDK/wpa_supplicant/src/crypto\aes-internal-enc.c **** 	s2 = GETU32(pt +  8) ^ rk[2];
 184              		.loc 1 35 5
 185 0068 B98F     		xor	a5,a5,a4
 186              	.LVL12:
  36:C:/Users/stapi/OneDrive/Desktop/GD32VW553/V1_MQTT_OK/GD32VW55X_Wifi_BLE_SDK/GD32VW55x_RELEASE_V1.0.2/MSDK/wpa_supplicant/src/crypto\aes-internal-enc.c **** 	s3 = GETU32(pt + 12) ^ rk[3];
 187              		.loc 1 36 2 is_stmt 1
  36:C:/Users/stapi/OneDrive/Desktop/GD32VW553/V1_MQTT_OK/GD32VW55X_Wifi_BLE_SDK/GD32VW55x_RELEASE_V1.0.2/MSDK/wpa_supplicant/src/crypto\aes-internal-enc.c **** 	s3 = GETU32(pt + 12) ^ rk[3];
 188              		.loc 1 36 7 is_stmt 0
 189 006a 03C79500 		lbu	a4,9(a1)
 190 006e 4207     		slli	a4,a4,16
 191 0070 334BEB00 		xor	s6,s6,a4
 192 0074 03C7B500 		lbu	a4,11(a1)
 193 0078 334BEB00 		xor	s6,s6,a4
  37:C:/Users/stapi/OneDrive/Desktop/GD32VW553/V1_MQTT_OK/GD32VW55X_Wifi_BLE_SDK/GD32VW55x_RELEASE_V1.0.2/MSDK/wpa_supplicant/src/crypto\aes-internal-enc.c **** 
 194              		.loc 1 37 7
 195 007c 03C7C500 		lbu	a4,12(a1)
  36:C:/Users/stapi/OneDrive/Desktop/GD32VW553/V1_MQTT_OK/GD32VW55X_Wifi_BLE_SDK/GD32VW55x_RELEASE_V1.0.2/MSDK/wpa_supplicant/src/crypto\aes-internal-enc.c **** 	s3 = GETU32(pt + 12) ^ rk[3];
 196              		.loc 1 36 7
 197 0080 334B5B01 		xor	s6,s6,s5
  36:C:/Users/stapi/OneDrive/Desktop/GD32VW553/V1_MQTT_OK/GD32VW55X_Wifi_BLE_SDK/GD32VW55x_RELEASE_V1.0.2/MSDK/wpa_supplicant/src/crypto\aes-internal-enc.c **** 	s3 = GETU32(pt + 12) ^ rk[3];
 198              		.loc 1 36 5
 199 0084 832A8500 		lw	s5,8(a0)
  37:C:/Users/stapi/OneDrive/Desktop/GD32VW553/V1_MQTT_OK/GD32VW55X_Wifi_BLE_SDK/GD32VW55x_RELEASE_V1.0.2/MSDK/wpa_supplicant/src/crypto\aes-internal-enc.c **** 
 200              		.loc 1 37 7
 201 0088 6207     		slli	a4,a4,24
 202 008a 33470701 		xor	a4,a4,a6
 203 008e 03C8F500 		lbu	a6,15(a1)
 204 0092 83C5E500 		lbu	a1,14(a1)
 205              	.LVL13:
  36:C:/Users/stapi/OneDrive/Desktop/GD32VW553/V1_MQTT_OK/GD32VW55X_Wifi_BLE_SDK/GD32VW55x_RELEASE_V1.0.2/MSDK/wpa_supplicant/src/crypto\aes-internal-enc.c **** 	s3 = GETU32(pt + 12) ^ rk[3];
 206              		.loc 1 36 5
 207 0096 334B5B01 		xor	s6,s6,s5
 208              	.LVL14:
  37:C:/Users/stapi/OneDrive/Desktop/GD32VW553/V1_MQTT_OK/GD32VW55X_Wifi_BLE_SDK/GD32VW55x_RELEASE_V1.0.2/MSDK/wpa_supplicant/src/crypto\aes-internal-enc.c **** 
 209              		.loc 1 37 2 is_stmt 1
  37:C:/Users/stapi/OneDrive/Desktop/GD32VW553/V1_MQTT_OK/GD32VW55X_Wifi_BLE_SDK/GD32VW55x_RELEASE_V1.0.2/MSDK/wpa_supplicant/src/crypto\aes-internal-enc.c **** 
 210              		.loc 1 37 7 is_stmt 0
 211 009a 33470701 		xor	a4,a4,a6
 212 009e A205     		slli	a1,a1,8
 213 00a0 2D8F     		xor	a4,a4,a1
  37:C:/Users/stapi/OneDrive/Desktop/GD32VW553/V1_MQTT_OK/GD32VW55X_Wifi_BLE_SDK/GD32VW55x_RELEASE_V1.0.2/MSDK/wpa_supplicant/src/crypto\aes-internal-enc.c **** 
 214              		.loc 1 37 5
 215 00a2 4C45     		lw	a1,12(a0)
  72:C:/Users/stapi/OneDrive/Desktop/GD32VW553/V1_MQTT_OK/GD32VW55X_Wifi_BLE_SDK/GD32VW55x_RELEASE_V1.0.2/MSDK/wpa_supplicant/src/crypto\aes-internal-enc.c **** 		rk += 8;
 216              		.loc 1 72 3
 217 00a4 37080000 		lui	a6,%hi(Te0)
 218 00a8 13080800 		addi	a6,a6,%lo(Te0)
  37:C:/Users/stapi/OneDrive/Desktop/GD32VW553/V1_MQTT_OK/GD32VW55X_Wifi_BLE_SDK/GD32VW55x_RELEASE_V1.0.2/MSDK/wpa_supplicant/src/crypto\aes-internal-enc.c **** 
 219              		.loc 1 37 5
 220 00ac 2D8F     		xor	a4,a4,a1
 221              	.LVL15:
  70:C:/Users/stapi/OneDrive/Desktop/GD32VW553/V1_MQTT_OK/GD32VW55X_Wifi_BLE_SDK/GD32VW55x_RELEASE_V1.0.2/MSDK/wpa_supplicant/src/crypto\aes-internal-enc.c **** 	for (;;) {
 222              		.loc 1 70 2 is_stmt 1
 223              	.L10:
  71:C:/Users/stapi/OneDrive/Desktop/GD32VW553/V1_MQTT_OK/GD32VW55X_Wifi_BLE_SDK/GD32VW55x_RELEASE_V1.0.2/MSDK/wpa_supplicant/src/crypto\aes-internal-enc.c **** 		ROUND(1,t,s);
 224              		.loc 1 71 2
  72:C:/Users/stapi/OneDrive/Desktop/GD32VW553/V1_MQTT_OK/GD32VW55X_Wifi_BLE_SDK/GD32VW55x_RELEASE_V1.0.2/MSDK/wpa_supplicant/src/crypto\aes-internal-enc.c **** 		rk += 8;
 225              		.loc 1 72 3
 226              	.LBB110:
 227              	.LBB111:
 228              		.loc 2 72 2
 229              	.LBE111:
 230              	.LBE110:
 231              	.LBB113:
 232              	.LBB108:
 233              		.loc 2 72 2
 234              	.LBE108:
 235              	.LBE113:
 236              	.LBB114:
 237              	.LBB104:
 238              		.loc 2 72 2
 239              	.LBE104:
 240              	.LBE114:
  72:C:/Users/stapi/OneDrive/Desktop/GD32VW553/V1_MQTT_OK/GD32VW55X_Wifi_BLE_SDK/GD32VW55x_RELEASE_V1.0.2/MSDK/wpa_supplicant/src/crypto\aes-internal-enc.c **** 		rk += 8;
 241              		.loc 1 72 3 is_stmt 0
 242 00ae 93D58601 		srli	a1,a3,24
 243 00b2 B3C50521 		sh2add	a1,a1,a6
 244 00b6 03A30500 		lw	t1,0(a1)
 245 00ba 83A50301 		lw	a1,16(t2)
  74:C:/Users/stapi/OneDrive/Desktop/GD32VW553/V1_MQTT_OK/GD32VW55X_Wifi_BLE_SDK/GD32VW55x_RELEASE_V1.0.2/MSDK/wpa_supplicant/src/crypto\aes-internal-enc.c **** 			break;
 246              		.loc 1 74 6
 247 00be FD1C     		addi	s9,s9,-1
 248              	.LVL16:
  73:C:/Users/stapi/OneDrive/Desktop/GD32VW553/V1_MQTT_OK/GD32VW55X_Wifi_BLE_SDK/GD32VW55x_RELEASE_V1.0.2/MSDK/wpa_supplicant/src/crypto\aes-internal-enc.c **** 		if (--r == 0)
 249              		.loc 1 73 6
 250 00c0 93830302 		addi	t2,t2,32
 251              	.LVL17:
  72:C:/Users/stapi/OneDrive/Desktop/GD32VW553/V1_MQTT_OK/GD32VW55X_Wifi_BLE_SDK/GD32VW55x_RELEASE_V1.0.2/MSDK/wpa_supplicant/src/crypto\aes-internal-enc.c **** 		rk += 8;
 252              		.loc 1 72 3
 253 00c4 3343B300 		xor	t1,t1,a1
 254 00c8 9375F70F 		andi	a1,a4,255
 255 00cc B3C50521 		sh2add	a1,a1,a6
 256              	.LBB115:
 257              	.LBB105:
 258              		.loc 2 72 23
 259 00d0 8C41     		lw	a1,0(a1)
 260 00d2 B3954561 		rol	a1,a1,s4
 261              	.LBE105:
 262              	.LBE115:
  72:C:/Users/stapi/OneDrive/Desktop/GD32VW553/V1_MQTT_OK/GD32VW55X_Wifi_BLE_SDK/GD32VW55x_RELEASE_V1.0.2/MSDK/wpa_supplicant/src/crypto\aes-internal-enc.c **** 		rk += 8;
 263              		.loc 1 72 3
 264 00d6 3343B300 		xor	t1,t1,a1
 265 00da 93D5E700 		srli	a1,a5,14
 266 00de 93F5C53F 		andi	a1,a1,1020
 267 00e2 C295     		add	a1,a6,a1
 268              	.LBB116:
 269              	.LBB112:
 270              		.loc 2 72 23
 271 00e4 8C41     		lw	a1,0(a1)
 272 00e6 93D58560 		rori	a1,a1,8
 273              	.LBE112:
 274              	.LBE116:
  72:C:/Users/stapi/OneDrive/Desktop/GD32VW553/V1_MQTT_OK/GD32VW55X_Wifi_BLE_SDK/GD32VW55x_RELEASE_V1.0.2/MSDK/wpa_supplicant/src/crypto\aes-internal-enc.c **** 		rk += 8;
 275              		.loc 1 72 3
 276 00ea 3343B300 		xor	t1,t1,a1
 277 00ee 93556B00 		srli	a1,s6,6
 278 00f2 93F5C53F 		andi	a1,a1,1020
 279 00f6 C295     		add	a1,a6,a1
 280              	.LBB117:
 281              	.LBB109:
 282              		.loc 2 72 23
 283 00f8 8C41     		lw	a1,0(a1)
 284 00fa B3953561 		rol	a1,a1,s3
 285              	.LBE109:
 286              	.LBE117:
  72:C:/Users/stapi/OneDrive/Desktop/GD32VW553/V1_MQTT_OK/GD32VW55X_Wifi_BLE_SDK/GD32VW55x_RELEASE_V1.0.2/MSDK/wpa_supplicant/src/crypto\aes-internal-enc.c **** 		rk += 8;
 287              		.loc 1 72 3
 288 00fe 3343B300 		xor	t1,t1,a1
 289              	.LVL18:
  72:C:/Users/stapi/OneDrive/Desktop/GD32VW553/V1_MQTT_OK/GD32VW55X_Wifi_BLE_SDK/GD32VW55x_RELEASE_V1.0.2/MSDK/wpa_supplicant/src/crypto\aes-internal-enc.c **** 		rk += 8;
 290              		.loc 1 72 3 is_stmt 1
 291              	.LBB118:
 292              	.LBB119:
 293              		.loc 2 72 2
 294              	.LBE119:
 295              	.LBE118:
 296              	.LBB121:
 297              	.LBB122:
 298              		.loc 2 72 2
 299              	.LBE122:
 300              	.LBE121:
 301              	.LBB124:
 302              	.LBB125:
 303              		.loc 2 72 2
 304              	.LBE125:
 305              	.LBE124:
  72:C:/Users/stapi/OneDrive/Desktop/GD32VW553/V1_MQTT_OK/GD32VW55X_Wifi_BLE_SDK/GD32VW55x_RELEASE_V1.0.2/MSDK/wpa_supplicant/src/crypto\aes-internal-enc.c **** 		rk += 8;
 306              		.loc 1 72 3 is_stmt 0
 307 0102 93D58701 		srli	a1,a5,24
 308 0106 B3C50521 		sh2add	a1,a1,a6
 309 010a 83A80500 		lw	a7,0(a1)
 310 010e 83A543FF 		lw	a1,-12(t2)
 311 0112 B3C8B800 		xor	a7,a7,a1
 312 0116 93F5F60F 		andi	a1,a3,255
 313 011a B3C50521 		sh2add	a1,a1,a6
 314              	.LBB127:
 315              	.LBB126:
 316              		.loc 2 72 23
 317 011e 8C41     		lw	a1,0(a1)
 318 0120 B3954561 		rol	a1,a1,s4
 319              	.LBE126:
 320              	.LBE127:
  72:C:/Users/stapi/OneDrive/Desktop/GD32VW553/V1_MQTT_OK/GD32VW55X_Wifi_BLE_SDK/GD32VW55x_RELEASE_V1.0.2/MSDK/wpa_supplicant/src/crypto\aes-internal-enc.c **** 		rk += 8;
 321              		.loc 1 72 3
 322 0124 B3C8B800 		xor	a7,a7,a1
 323 0128 9355EB00 		srli	a1,s6,14
 324 012c 93F5C53F 		andi	a1,a1,1020
 325 0130 C295     		add	a1,a6,a1
 326              	.LBB128:
 327              	.LBB120:
 328              		.loc 2 72 23
 329 0132 8C41     		lw	a1,0(a1)
 330 0134 93D58560 		rori	a1,a1,8
 331              	.LBE120:
 332              	.LBE128:
  72:C:/Users/stapi/OneDrive/Desktop/GD32VW553/V1_MQTT_OK/GD32VW55X_Wifi_BLE_SDK/GD32VW55x_RELEASE_V1.0.2/MSDK/wpa_supplicant/src/crypto\aes-internal-enc.c **** 		rk += 8;
 333              		.loc 1 72 3
 334 0138 B3C8B800 		xor	a7,a7,a1
 335 013c 93556700 		srli	a1,a4,6
 336 0140 93F5C53F 		andi	a1,a1,1020
 337 0144 C295     		add	a1,a6,a1
 338              	.LBB129:
 339              	.LBB123:
 340              		.loc 2 72 23
 341 0146 8C41     		lw	a1,0(a1)
 342 0148 B3953561 		rol	a1,a1,s3
 343              	.LBE123:
 344              	.LBE129:
  72:C:/Users/stapi/OneDrive/Desktop/GD32VW553/V1_MQTT_OK/GD32VW55X_Wifi_BLE_SDK/GD32VW55x_RELEASE_V1.0.2/MSDK/wpa_supplicant/src/crypto\aes-internal-enc.c **** 		rk += 8;
 345              		.loc 1 72 3
 346 014c B3C8B800 		xor	a7,a7,a1
 347              	.LVL19:
  72:C:/Users/stapi/OneDrive/Desktop/GD32VW553/V1_MQTT_OK/GD32VW55X_Wifi_BLE_SDK/GD32VW55x_RELEASE_V1.0.2/MSDK/wpa_supplicant/src/crypto\aes-internal-enc.c **** 		rk += 8;
 348              		.loc 1 72 3 is_stmt 1
 349              	.LBB130:
 350              	.LBB131:
 351              		.loc 2 72 2
 352              	.LBE131:
 353              	.LBE130:
 354              	.LBB134:
 355              	.LBB135:
 356              		.loc 2 72 2
 357              	.LBE135:
 358              	.LBE134:
 359              	.LBB138:
 360              	.LBB139:
 361              		.loc 2 72 2
 362              	.LBE139:
 363              	.LBE138:
  72:C:/Users/stapi/OneDrive/Desktop/GD32VW553/V1_MQTT_OK/GD32VW55X_Wifi_BLE_SDK/GD32VW55x_RELEASE_V1.0.2/MSDK/wpa_supplicant/src/crypto\aes-internal-enc.c **** 		rk += 8;
 364              		.loc 1 72 3 is_stmt 0
 365 0150 93558B01 		srli	a1,s6,24
 366 0154 B3C50521 		sh2add	a1,a1,a6
 367 0158 03AF0500 		lw	t5,0(a1)
 368 015c 83A583FF 		lw	a1,-8(t2)
 369 0160 137BFB0F 		andi	s6,s6,255
 370              	.LVL20:
 371 0164 334B0B21 		sh2add	s6,s6,a6
 372 0168 334FBF00 		xor	t5,t5,a1
 373 016c 93F5F70F 		andi	a1,a5,255
 374 0170 B3C50521 		sh2add	a1,a1,a6
 375              	.LBB142:
 376              	.LBB140:
 377              		.loc 2 72 23
 378 0174 8C41     		lw	a1,0(a1)
 379              	.LBE140:
 380              	.LBE142:
  72:C:/Users/stapi/OneDrive/Desktop/GD32VW553/V1_MQTT_OK/GD32VW55X_Wifi_BLE_SDK/GD32VW55x_RELEASE_V1.0.2/MSDK/wpa_supplicant/src/crypto\aes-internal-enc.c **** 		rk += 8;
 381              		.loc 1 72 3
 382 0176 9983     		srli	a5,a5,6
 383              	.LVL21:
 384 0178 93F7C73F 		andi	a5,a5,1020
 385              	.LBB143:
 386              	.LBB141:
 387              		.loc 2 72 23
 388 017c B3954561 		rol	a1,a1,s4
 389              	.LBE141:
 390              	.LBE143:
  72:C:/Users/stapi/OneDrive/Desktop/GD32VW553/V1_MQTT_OK/GD32VW55X_Wifi_BLE_SDK/GD32VW55x_RELEASE_V1.0.2/MSDK/wpa_supplicant/src/crypto\aes-internal-enc.c **** 		rk += 8;
 391              		.loc 1 72 3
 392 0180 334FBF00 		xor	t5,t5,a1
 393 0184 9355E700 		srli	a1,a4,14
 394 0188 93F5C53F 		andi	a1,a1,1020
 395 018c C295     		add	a1,a6,a1
 396              	.LBB144:
 397              	.LBB132:
 398              		.loc 2 72 23
 399 018e 8C41     		lw	a1,0(a1)
 400              	.LBE132:
 401              	.LBE144:
  72:C:/Users/stapi/OneDrive/Desktop/GD32VW553/V1_MQTT_OK/GD32VW55X_Wifi_BLE_SDK/GD32VW55x_RELEASE_V1.0.2/MSDK/wpa_supplicant/src/crypto\aes-internal-enc.c **** 		rk += 8;
 402              		.loc 1 72 3
 403 0190 6183     		srli	a4,a4,24
 404              	.LVL22:
 405 0192 33470721 		sh2add	a4,a4,a6
 406              	.LBB145:
 407              	.LBB133:
 408              		.loc 2 72 23
 409 0196 93D58560 		rori	a1,a1,8
 410              	.LBE133:
 411              	.LBE145:
  72:C:/Users/stapi/OneDrive/Desktop/GD32VW553/V1_MQTT_OK/GD32VW55X_Wifi_BLE_SDK/GD32VW55x_RELEASE_V1.0.2/MSDK/wpa_supplicant/src/crypto\aes-internal-enc.c **** 		rk += 8;
 412              		.loc 1 72 3
 413 019a 334FBF00 		xor	t5,t5,a1
 414 019e 93D56600 		srli	a1,a3,6
 415 01a2 93F5C53F 		andi	a1,a1,1020
 416 01a6 C295     		add	a1,a6,a1
 417              	.LBB146:
 418              	.LBB136:
 419              		.loc 2 72 23
 420 01a8 8C41     		lw	a1,0(a1)
 421              	.LBE136:
 422              	.LBE146:
  72:C:/Users/stapi/OneDrive/Desktop/GD32VW553/V1_MQTT_OK/GD32VW55X_Wifi_BLE_SDK/GD32VW55x_RELEASE_V1.0.2/MSDK/wpa_supplicant/src/crypto\aes-internal-enc.c **** 		rk += 8;
 423              		.loc 1 72 3
 424 01aa 1843     		lw	a4,0(a4)
 425 01ac B982     		srli	a3,a3,14
 426              	.LVL23:
 427              	.LBB147:
 428              	.LBB137:
 429              		.loc 2 72 23
 430 01ae B3953561 		rol	a1,a1,s3
 431              	.LBE137:
 432              	.LBE147:
  72:C:/Users/stapi/OneDrive/Desktop/GD32VW553/V1_MQTT_OK/GD32VW55X_Wifi_BLE_SDK/GD32VW55x_RELEASE_V1.0.2/MSDK/wpa_supplicant/src/crypto\aes-internal-enc.c **** 		rk += 8;
 433              		.loc 1 72 3
 434 01b2 334FBF00 		xor	t5,t5,a1
 435              	.LVL24:
  72:C:/Users/stapi/OneDrive/Desktop/GD32VW553/V1_MQTT_OK/GD32VW55X_Wifi_BLE_SDK/GD32VW55x_RELEASE_V1.0.2/MSDK/wpa_supplicant/src/crypto\aes-internal-enc.c **** 		rk += 8;
 436              		.loc 1 72 3 is_stmt 1
 437              	.LBB148:
 438              	.LBB149:
 439              		.loc 2 72 2
 440              	.LBE149:
 441              	.LBE148:
 442              	.LBB152:
 443              	.LBB153:
 444              		.loc 2 72 2
 445              	.LBE153:
 446              	.LBE152:
 447              	.LBB156:
 448              	.LBB157:
 449              		.loc 2 72 2
 450              	.LBE157:
 451              	.LBE156:
  72:C:/Users/stapi/OneDrive/Desktop/GD32VW553/V1_MQTT_OK/GD32VW55X_Wifi_BLE_SDK/GD32VW55x_RELEASE_V1.0.2/MSDK/wpa_supplicant/src/crypto\aes-internal-enc.c **** 		rk += 8;
 452              		.loc 1 72 3 is_stmt 0
 453 01b6 83A5C3FF 		lw	a1,-4(t2)
 454 01ba 93F6C63F 		andi	a3,a3,1020
 455 01be C296     		add	a3,a6,a3
 456 01c0 2D8F     		xor	a4,a4,a1
 457              	.LBB160:
 458              	.LBB158:
 459              		.loc 2 72 23
 460 01c2 83250B00 		lw	a1,0(s6)
 461              	.LBE158:
 462              	.LBE160:
 463              	.LBB161:
 464              	.LBB150:
 465 01c6 9442     		lw	a3,0(a3)
 466              	.LBE150:
 467              	.LBE161:
  76:C:/Users/stapi/OneDrive/Desktop/GD32VW553/V1_MQTT_OK/GD32VW55X_Wifi_BLE_SDK/GD32VW55x_RELEASE_V1.0.2/MSDK/wpa_supplicant/src/crypto\aes-internal-enc.c **** 	}
 468              		.loc 1 76 3
 469 01c8 13DE8801 		srli	t3,a7,24
  72:C:/Users/stapi/OneDrive/Desktop/GD32VW553/V1_MQTT_OK/GD32VW55X_Wifi_BLE_SDK/GD32VW55x_RELEASE_V1.0.2/MSDK/wpa_supplicant/src/crypto\aes-internal-enc.c **** 		rk += 8;
 470              		.loc 1 72 3
 471 01cc C297     		add	a5,a6,a5
 472              	.LBB162:
 473              	.LBB154:
 474              		.loc 2 72 23
 475 01ce 9C43     		lw	a5,0(a5)
 476              	.LBE154:
 477              	.LBE162:
  76:C:/Users/stapi/OneDrive/Desktop/GD32VW553/V1_MQTT_OK/GD32VW55X_Wifi_BLE_SDK/GD32VW55x_RELEASE_V1.0.2/MSDK/wpa_supplicant/src/crypto\aes-internal-enc.c **** 	}
 478              		.loc 1 76 3
 479 01d0 334E0E21 		sh2add	t3,t3,a6
 480              	.LBB163:
 481              	.LBB159:
 482              		.loc 2 72 23
 483 01d4 B3954561 		rol	a1,a1,s4
 484              	.LBE159:
 485              	.LBE163:
  76:C:/Users/stapi/OneDrive/Desktop/GD32VW553/V1_MQTT_OK/GD32VW55X_Wifi_BLE_SDK/GD32VW55x_RELEASE_V1.0.2/MSDK/wpa_supplicant/src/crypto\aes-internal-enc.c **** 	}
 486              		.loc 1 76 3
 487 01d8 03290E00 		lw	s2,0(t3)
  72:C:/Users/stapi/OneDrive/Desktop/GD32VW553/V1_MQTT_OK/GD32VW55X_Wifi_BLE_SDK/GD32VW55x_RELEASE_V1.0.2/MSDK/wpa_supplicant/src/crypto\aes-internal-enc.c **** 		rk += 8;
 488              		.loc 1 72 3
 489 01dc 2D8F     		xor	a4,a4,a1
  76:C:/Users/stapi/OneDrive/Desktop/GD32VW553/V1_MQTT_OK/GD32VW55X_Wifi_BLE_SDK/GD32VW55x_RELEASE_V1.0.2/MSDK/wpa_supplicant/src/crypto\aes-internal-enc.c **** 	}
 490              		.loc 1 76 3
 491 01de 135EEF00 		srli	t3,t5,14
 492 01e2 137ECE3F 		andi	t3,t3,1020
 493              	.LBB164:
 494              	.LBB151:
 495              		.loc 2 72 23
 496 01e6 93D68660 		rori	a3,a3,8
 497              	.LBE151:
 498              	.LBE164:
  72:C:/Users/stapi/OneDrive/Desktop/GD32VW553/V1_MQTT_OK/GD32VW55X_Wifi_BLE_SDK/GD32VW55x_RELEASE_V1.0.2/MSDK/wpa_supplicant/src/crypto\aes-internal-enc.c **** 		rk += 8;
 499              		.loc 1 72 3
 500 01ea B98E     		xor	a3,a4,a3
  76:C:/Users/stapi/OneDrive/Desktop/GD32VW553/V1_MQTT_OK/GD32VW55X_Wifi_BLE_SDK/GD32VW55x_RELEASE_V1.0.2/MSDK/wpa_supplicant/src/crypto\aes-internal-enc.c **** 	}
 501              		.loc 1 76 3
 502 01ec 429E     		add	t3,a6,t3
 503              	.LBB165:
 504              	.LBB155:
 505              		.loc 2 72 23
 506 01ee B3973761 		rol	a5,a5,s3
 507              	.LBE155:
 508              	.LBE165:
  72:C:/Users/stapi/OneDrive/Desktop/GD32VW553/V1_MQTT_OK/GD32VW55X_Wifi_BLE_SDK/GD32VW55x_RELEASE_V1.0.2/MSDK/wpa_supplicant/src/crypto\aes-internal-enc.c **** 		rk += 8;
 509              		.loc 1 72 3
 510 01f2 BD8E     		xor	a3,a3,a5
 511              	.LVL25:
  73:C:/Users/stapi/OneDrive/Desktop/GD32VW553/V1_MQTT_OK/GD32VW55X_Wifi_BLE_SDK/GD32VW55x_RELEASE_V1.0.2/MSDK/wpa_supplicant/src/crypto\aes-internal-enc.c **** 		if (--r == 0)
 512              		.loc 1 73 3 is_stmt 1
  74:C:/Users/stapi/OneDrive/Desktop/GD32VW553/V1_MQTT_OK/GD32VW55X_Wifi_BLE_SDK/GD32VW55x_RELEASE_V1.0.2/MSDK/wpa_supplicant/src/crypto\aes-internal-enc.c **** 			break;
 513              		.loc 1 74 3
  76:C:/Users/stapi/OneDrive/Desktop/GD32VW553/V1_MQTT_OK/GD32VW55X_Wifi_BLE_SDK/GD32VW55x_RELEASE_V1.0.2/MSDK/wpa_supplicant/src/crypto\aes-internal-enc.c **** 	}
 514              		.loc 1 76 3 is_stmt 0
 515 01f4 832B0E00 		lw	s7,0(t3)
 516 01f8 13DE6600 		srli	t3,a3,6
 517 01fc 137ECE3F 		andi	t3,t3,1020
 518 0200 429E     		add	t3,a6,t3
 519 0202 032C0E00 		lw	s8,0(t3)
 520 0206 137EF30F 		andi	t3,t1,255
 521 020a 334E0E21 		sh2add	t3,t3,a6
 522 020e 832E0E00 		lw	t4,0(t3)
 523 0212 135E8F01 		srli	t3,t5,24
 524 0216 334E0E21 		sh2add	t3,t3,a6
 525 021a 83240E00 		lw	s1,0(t3)
 526 021e 13DEE600 		srli	t3,a3,14
 527 0222 93578301 		srli	a5,t1,24
 528 0226 137ECE3F 		andi	t3,t3,1020
 529 022a 429E     		add	t3,a6,t3
 530 022c B3C70721 		sh2add	a5,a5,a6
 531 0230 832A0E00 		lw	s5,0(t3)
 532 0234 83AF0700 		lw	t6,0(a5)
 533 0238 135E6300 		srli	t3,t1,6
 534 023c 93D7E800 		srli	a5,a7,14
 535 0240 93F7C73F 		andi	a5,a5,1020
 536 0244 137ECE3F 		andi	t3,t3,1020
 537 0248 C297     		add	a5,a6,a5
 538 024a 429E     		add	t3,a6,t3
 539 024c 9843     		lw	a4,0(a5)
 540 024e 032B0E00 		lw	s6,0(t3)
 541 0252 93576F00 		srli	a5,t5,6
 542 0256 13FEF80F 		andi	t3,a7,255
 543 025a 1353E300 		srli	t1,t1,14
 544              	.LVL26:
 545 025e 93D86800 		srli	a7,a7,6
 546              	.LVL27:
 547 0262 93F7C73F 		andi	a5,a5,1020
 548 0266 1373C33F 		andi	t1,t1,1020
 549 026a 93F8C83F 		andi	a7,a7,1020
 550 026e 93F5F60F 		andi	a1,a3,255
 551 0272 C297     		add	a5,a6,a5
 552 0274 E182     		srli	a3,a3,24
 553              	.LVL28:
 554 0276 4293     		add	t1,a6,t1
 555 0278 C298     		add	a7,a6,a7
 556 027a 137FFF0F 		andi	t5,t5,255
 557              	.LVL29:
 558 027e 9C43     		lw	a5,0(a5)
 559 0280 03AD0300 		lw	s10,0(t2)
 560 0284 B3C50521 		sh2add	a1,a1,a6
 561 0288 334E0E21 		sh2add	t3,t3,a6
 562 028c 8C41     		lw	a1,0(a1)
 563 028e B3C60621 		sh2add	a3,a3,a6
 564 0292 032E0E00 		lw	t3,0(t3)
 565 0296 334F0F21 		sh2add	t5,t5,a6
 566 029a 8042     		lw	s0,0(a3)
 567 029c 03230300 		lw	t1,0(t1)
 568 02a0 83A80800 		lw	a7,0(a7)
 569 02a4 032F0F00 		lw	t5,0(t5)
  74:C:/Users/stapi/OneDrive/Desktop/GD32VW553/V1_MQTT_OK/GD32VW55X_Wifi_BLE_SDK/GD32VW55x_RELEASE_V1.0.2/MSDK/wpa_supplicant/src/crypto\aes-internal-enc.c **** 			break;
 570              		.loc 1 74 6
 571 02a8 638D0C06 		beq	s9,zero,.L9
  76:C:/Users/stapi/OneDrive/Desktop/GD32VW553/V1_MQTT_OK/GD32VW55X_Wifi_BLE_SDK/GD32VW55x_RELEASE_V1.0.2/MSDK/wpa_supplicant/src/crypto\aes-internal-enc.c **** 	}
 572              		.loc 1 76 3 is_stmt 1
 573              	.LVL30:
 574              	.LBB166:
 575              	.LBB167:
 576              		.loc 2 72 2
 577              	.LBE167:
 578              	.LBE166:
 579              	.LBB169:
 580              	.LBB170:
 581              		.loc 2 72 2
 582              	.LBE170:
 583              	.LBE169:
 584              	.LBB172:
 585              	.LBB173:
 586              		.loc 2 72 2
 587              	.LBE173:
 588              	.LBE172:
  76:C:/Users/stapi/OneDrive/Desktop/GD32VW553/V1_MQTT_OK/GD32VW55X_Wifi_BLE_SDK/GD32VW55x_RELEASE_V1.0.2/MSDK/wpa_supplicant/src/crypto\aes-internal-enc.c **** 	}
 589              		.loc 1 76 3 is_stmt 0
 590 02ac 33CDAF01 		xor	s10,t6,s10
 591              	.LBB175:
 592              	.LBB168:
 593              		.loc 2 72 23
 594 02b0 13578760 		rori	a4,a4,8
 595              	.LBE168:
 596              	.LBE175:
 597              	.LBB176:
 598              	.LBB174:
 599 02b4 B3964561 		rol	a3,a1,s4
 600              	.LBE174:
 601              	.LBE176:
  76:C:/Users/stapi/OneDrive/Desktop/GD32VW553/V1_MQTT_OK/GD32VW55X_Wifi_BLE_SDK/GD32VW55x_RELEASE_V1.0.2/MSDK/wpa_supplicant/src/crypto\aes-internal-enc.c **** 	}
 602              		.loc 1 76 3
 603 02b8 B3C6A601 		xor	a3,a3,s10
 604 02bc B98E     		xor	a3,a3,a4
 605 02be 03A78300 		lw	a4,8(t2)
 606              	.LBB177:
 607              	.LBB171:
 608              		.loc 2 72 23
 609 02c2 B3973761 		rol	a5,a5,s3
 610              	.LBE171:
 611              	.LBE177:
  76:C:/Users/stapi/OneDrive/Desktop/GD32VW553/V1_MQTT_OK/GD32VW55X_Wifi_BLE_SDK/GD32VW55x_RELEASE_V1.0.2/MSDK/wpa_supplicant/src/crypto\aes-internal-enc.c **** 	}
 612              		.loc 1 76 3
 613 02c6 BD8E     		xor	a3,a3,a5
 614              	.LVL31:
  76:C:/Users/stapi/OneDrive/Desktop/GD32VW553/V1_MQTT_OK/GD32VW55X_Wifi_BLE_SDK/GD32VW55x_RELEASE_V1.0.2/MSDK/wpa_supplicant/src/crypto\aes-internal-enc.c **** 	}
 615              		.loc 1 76 3 is_stmt 1
 616              	.LBB178:
 617              	.LBB179:
 618              		.loc 2 72 2
 619              	.LBE179:
 620              	.LBE178:
 621              	.LBB181:
 622              	.LBB182:
 623              		.loc 2 72 2
 624              	.LBE182:
 625              	.LBE181:
 626              	.LBB184:
 627              	.LBB185:
 628              		.loc 2 72 2
 629              	.LBE185:
 630              	.LBE184:
  76:C:/Users/stapi/OneDrive/Desktop/GD32VW553/V1_MQTT_OK/GD32VW55X_Wifi_BLE_SDK/GD32VW55x_RELEASE_V1.0.2/MSDK/wpa_supplicant/src/crypto\aes-internal-enc.c **** 	}
 631              		.loc 1 76 3 is_stmt 0
 632 02c8 B98C     		xor	s1,s1,a4
 633 02ca 83A74300 		lw	a5,4(t2)
 634 02ce 03A7C300 		lw	a4,12(t2)
 635              	.LBB187:
 636              	.LBB186:
 637              		.loc 2 72 23
 638 02d2 B39E4E61 		rol	t4,t4,s4
 639              	.LBE186:
 640              	.LBE187:
  76:C:/Users/stapi/OneDrive/Desktop/GD32VW553/V1_MQTT_OK/GD32VW55X_Wifi_BLE_SDK/GD32VW55x_RELEASE_V1.0.2/MSDK/wpa_supplicant/src/crypto\aes-internal-enc.c **** 	}
 641              		.loc 1 76 3
 642 02d6 B347F900 		xor	a5,s2,a5
 643 02da 218F     		xor	a4,s0,a4
 644 02dc B3C7D701 		xor	a5,a5,t4
 645              	.LBB188:
 646              	.LBB189:
 647              		.loc 2 72 23
 648 02e0 331E4E61 		rol	t3,t3,s4
 649              	.LBE189:
 650              	.LBE188:
 651              	.LBB191:
 652              	.LBB192:
 653 02e4 331F4F61 		rol	t5,t5,s4
 654              	.LBE192:
 655              	.LBE191:
  76:C:/Users/stapi/OneDrive/Desktop/GD32VW553/V1_MQTT_OK/GD32VW55X_Wifi_BLE_SDK/GD32VW55x_RELEASE_V1.0.2/MSDK/wpa_supplicant/src/crypto\aes-internal-enc.c **** 	}
 656              		.loc 1 76 3
 657 02e8 33CEC401 		xor	t3,s1,t3
 658 02ec 3347E701 		xor	a4,a4,t5
 659              	.LBB194:
 660              	.LBB180:
 661              		.loc 2 72 23
 662 02f0 93DB8B60 		rori	s7,s7,8
 663              	.LBE180:
 664              	.LBE194:
 665              	.LBB195:
 666              	.LBB196:
 667 02f4 93DA8A60 		rori	s5,s5,8
 668              	.LBE196:
 669              	.LBE195:
  76:C:/Users/stapi/OneDrive/Desktop/GD32VW553/V1_MQTT_OK/GD32VW55X_Wifi_BLE_SDK/GD32VW55x_RELEASE_V1.0.2/MSDK/wpa_supplicant/src/crypto\aes-internal-enc.c **** 	}
 670              		.loc 1 76 3
 671 02f8 B3C77701 		xor	a5,a5,s7
 672 02fc B34A5E01 		xor	s5,t3,s5
 673              	.LBB198:
 674              	.LBB199:
 675              		.loc 2 72 23
 676 0300 13538360 		rori	t1,t1,8
 677              	.LBE199:
 678              	.LBE198:
  76:C:/Users/stapi/OneDrive/Desktop/GD32VW553/V1_MQTT_OK/GD32VW55X_Wifi_BLE_SDK/GD32VW55x_RELEASE_V1.0.2/MSDK/wpa_supplicant/src/crypto\aes-internal-enc.c **** 	}
 679              		.loc 1 76 3
 680 0304 33476700 		xor	a4,a4,t1
 681              	.LBB201:
 682              	.LBB183:
 683              		.loc 2 72 23
 684 0308 331C3C61 		rol	s8,s8,s3
 685              	.LBE183:
 686              	.LBE201:
 687              	.LBB202:
 688              	.LBB203:
 689 030c 331B3B61 		rol	s6,s6,s3
 690              	.LBE203:
 691              	.LBE202:
 692              	.LBB205:
 693              	.LBB206:
 694 0310 B3983861 		rol	a7,a7,s3
 695              	.LBE206:
 696              	.LBE205:
  76:C:/Users/stapi/OneDrive/Desktop/GD32VW553/V1_MQTT_OK/GD32VW55X_Wifi_BLE_SDK/GD32VW55x_RELEASE_V1.0.2/MSDK/wpa_supplicant/src/crypto\aes-internal-enc.c **** 	}
 697              		.loc 1 76 3
 698 0314 B3C78701 		xor	a5,a5,s8
 699              	.LVL32:
  76:C:/Users/stapi/OneDrive/Desktop/GD32VW553/V1_MQTT_OK/GD32VW55X_Wifi_BLE_SDK/GD32VW55x_RELEASE_V1.0.2/MSDK/wpa_supplicant/src/crypto\aes-internal-enc.c **** 	}
 700              		.loc 1 76 3 is_stmt 1
 701              	.LBB208:
 702              	.LBB197:
 703              		.loc 2 72 2
 704              	.LBE197:
 705              	.LBE208:
 706              	.LBB209:
 707              	.LBB204:
 708              		.loc 2 72 2
 709              	.LBE204:
 710              	.LBE209:
 711              	.LBB210:
 712              	.LBB190:
 713              		.loc 2 72 2
 714              	.LBE190:
 715              	.LBE210:
  76:C:/Users/stapi/OneDrive/Desktop/GD32VW553/V1_MQTT_OK/GD32VW55X_Wifi_BLE_SDK/GD32VW55x_RELEASE_V1.0.2/MSDK/wpa_supplicant/src/crypto\aes-internal-enc.c **** 	}
 716              		.loc 1 76 3 is_stmt 0
 717 0318 33CB6A01 		xor	s6,s5,s6
 718              	.LVL33:
  76:C:/Users/stapi/OneDrive/Desktop/GD32VW553/V1_MQTT_OK/GD32VW55X_Wifi_BLE_SDK/GD32VW55x_RELEASE_V1.0.2/MSDK/wpa_supplicant/src/crypto\aes-internal-enc.c **** 	}
 719              		.loc 1 76 3 is_stmt 1
 720              	.LBB211:
 721              	.LBB200:
 722              		.loc 2 72 2
 723              	.LBE200:
 724              	.LBE211:
 725              	.LBB212:
 726              	.LBB207:
 727              		.loc 2 72 2
 728              	.LBE207:
 729              	.LBE212:
 730              	.LBB213:
 731              	.LBB193:
 732              		.loc 2 72 2
 733              	.LBE193:
 734              	.LBE213:
  76:C:/Users/stapi/OneDrive/Desktop/GD32VW553/V1_MQTT_OK/GD32VW55X_Wifi_BLE_SDK/GD32VW55x_RELEASE_V1.0.2/MSDK/wpa_supplicant/src/crypto\aes-internal-enc.c **** 	}
 735              		.loc 1 76 3 is_stmt 0
 736 031c 33471701 		xor	a4,a4,a7
 737              	.LVL34:
  71:C:/Users/stapi/OneDrive/Desktop/GD32VW553/V1_MQTT_OK/GD32VW55X_Wifi_BLE_SDK/GD32VW55x_RELEASE_V1.0.2/MSDK/wpa_supplicant/src/crypto\aes-internal-enc.c **** 		ROUND(1,t,s);
 738              		.loc 1 71 8 is_stmt 1
  72:C:/Users/stapi/OneDrive/Desktop/GD32VW553/V1_MQTT_OK/GD32VW55X_Wifi_BLE_SDK/GD32VW55x_RELEASE_V1.0.2/MSDK/wpa_supplicant/src/crypto\aes-internal-enc.c **** 		rk += 8;
 739              		.loc 1 72 3 is_stmt 0
 740 0320 79B3     		j	.L10
 741              	.LVL35:
 742              	.L9:
  73:C:/Users/stapi/OneDrive/Desktop/GD32VW553/V1_MQTT_OK/GD32VW55X_Wifi_BLE_SDK/GD32VW55x_RELEASE_V1.0.2/MSDK/wpa_supplicant/src/crypto\aes-internal-enc.c **** 		if (--r == 0)
 743              		.loc 1 73 6
 744 0322 9602     		slli	t0,t0,5
  87:C:/Users/stapi/OneDrive/Desktop/GD32VW553/V1_MQTT_OK/GD32VW55X_Wifi_BLE_SDK/GD32VW55x_RELEASE_V1.0.2/MSDK/wpa_supplicant/src/crypto\aes-internal-enc.c **** 	PUTU32(ct     , s0);
 745              		.loc 1 87 29
 746 0324 C163     		li	t2,65536
 747              	.LVL36:
  73:C:/Users/stapi/OneDrive/Desktop/GD32VW553/V1_MQTT_OK/GD32VW55X_Wifi_BLE_SDK/GD32VW55x_RELEASE_V1.0.2/MSDK/wpa_supplicant/src/crypto\aes-internal-enc.c **** 		if (--r == 0)
 748              		.loc 1 73 6
 749 0326 1695     		add	a0,a0,t0
 750              	.LVL37:
  87:C:/Users/stapi/OneDrive/Desktop/GD32VW553/V1_MQTT_OK/GD32VW55X_Wifi_BLE_SDK/GD32VW55x_RELEASE_V1.0.2/MSDK/wpa_supplicant/src/crypto\aes-internal-enc.c **** 	PUTU32(ct     , s0);
 751              		.loc 1 87 2 is_stmt 1
  87:C:/Users/stapi/OneDrive/Desktop/GD32VW553/V1_MQTT_OK/GD32VW55X_Wifi_BLE_SDK/GD32VW55x_RELEASE_V1.0.2/MSDK/wpa_supplicant/src/crypto\aes-internal-enc.c **** 	PUTU32(ct     , s0);
 752              		.loc 1 87 18 is_stmt 0
 753 0328 3708FF00 		li	a6,16711680
  87:C:/Users/stapi/OneDrive/Desktop/GD32VW553/V1_MQTT_OK/GD32VW55X_Wifi_BLE_SDK/GD32VW55x_RELEASE_V1.0.2/MSDK/wpa_supplicant/src/crypto\aes-internal-enc.c **** 	PUTU32(ct     , s0);
 754              		.loc 1 87 29
 755 032c 938303F0 		addi	t2,t2,-256
  87:C:/Users/stapi/OneDrive/Desktop/GD32VW553/V1_MQTT_OK/GD32VW55X_Wifi_BLE_SDK/GD32VW55x_RELEASE_V1.0.2/MSDK/wpa_supplicant/src/crypto\aes-internal-enc.c **** 	PUTU32(ct     , s0);
 756              		.loc 1 87 7
 757 0330 B70200FF 		li	t0,-16777216
 758 0334 A20F     		slli	t6,t6,8
  87:C:/Users/stapi/OneDrive/Desktop/GD32VW553/V1_MQTT_OK/GD32VW55X_Wifi_BLE_SDK/GD32VW55x_RELEASE_V1.0.2/MSDK/wpa_supplicant/src/crypto\aes-internal-enc.c **** 	PUTU32(ct     , s0);
 759              		.loc 1 87 40
 760 0336 A181     		srli	a1,a1,8
  87:C:/Users/stapi/OneDrive/Desktop/GD32VW553/V1_MQTT_OK/GD32VW55X_Wifi_BLE_SDK/GD32VW55x_RELEASE_V1.0.2/MSDK/wpa_supplicant/src/crypto\aes-internal-enc.c **** 	PUTU32(ct     , s0);
 761              		.loc 1 87 7
 762 0338 B3FF5F00 		and	t6,t6,t0
  87:C:/Users/stapi/OneDrive/Desktop/GD32VW553/V1_MQTT_OK/GD32VW55X_Wifi_BLE_SDK/GD32VW55x_RELEASE_V1.0.2/MSDK/wpa_supplicant/src/crypto\aes-internal-enc.c **** 	PUTU32(ct     , s0);
 763              		.loc 1 87 18
 764 033c 33770701 		and	a4,a4,a6
  87:C:/Users/stapi/OneDrive/Desktop/GD32VW553/V1_MQTT_OK/GD32VW55X_Wifi_BLE_SDK/GD32VW55x_RELEASE_V1.0.2/MSDK/wpa_supplicant/src/crypto\aes-internal-enc.c **** 	PUTU32(ct     , s0);
 765              		.loc 1 87 40
 766 0340 93F5F50F 		andi	a1,a1,255
  87:C:/Users/stapi/OneDrive/Desktop/GD32VW553/V1_MQTT_OK/GD32VW55X_Wifi_BLE_SDK/GD32VW55x_RELEASE_V1.0.2/MSDK/wpa_supplicant/src/crypto\aes-internal-enc.c **** 	PUTU32(ct     , s0);
 767              		.loc 1 87 29
 768 0344 B3F77700 		and	a5,a5,t2
  87:C:/Users/stapi/OneDrive/Desktop/GD32VW553/V1_MQTT_OK/GD32VW55X_Wifi_BLE_SDK/GD32VW55x_RELEASE_V1.0.2/MSDK/wpa_supplicant/src/crypto\aes-internal-enc.c **** 	PUTU32(ct     , s0);
 769              		.loc 1 87 16
 770 0348 33E7EF00 		or	a4,t6,a4
  87:C:/Users/stapi/OneDrive/Desktop/GD32VW553/V1_MQTT_OK/GD32VW55X_Wifi_BLE_SDK/GD32VW55x_RELEASE_V1.0.2/MSDK/wpa_supplicant/src/crypto\aes-internal-enc.c **** 	PUTU32(ct     , s0);
 771              		.loc 1 87 5
 772 034c CD8F     		or	a5,a1,a5
 773 034e B98F     		xor	a5,a4,a5
 774 0350 33CDA701 		xor	s10,a5,s10
 775              	.LVL38:
  88:C:/Users/stapi/OneDrive/Desktop/GD32VW553/V1_MQTT_OK/GD32VW55X_Wifi_BLE_SDK/GD32VW55x_RELEASE_V1.0.2/MSDK/wpa_supplicant/src/crypto\aes-internal-enc.c **** 	s1 = TE41(t1) ^ TE42(t2) ^ TE43(t3) ^ TE44(t0) ^ rk[1];
 776              		.loc 1 88 2 is_stmt 1
 777 0354 93578D01 		srli	a5,s10,24
 778 0358 2300F600 		sb	a5,0(a2)
 779              	.LVL39:
  88:C:/Users/stapi/OneDrive/Desktop/GD32VW553/V1_MQTT_OK/GD32VW55X_Wifi_BLE_SDK/GD32VW55x_RELEASE_V1.0.2/MSDK/wpa_supplicant/src/crypto\aes-internal-enc.c **** 	s1 = TE41(t1) ^ TE42(t2) ^ TE43(t3) ^ TE44(t0) ^ rk[1];
 780              		.loc 1 88 2
  89:C:/Users/stapi/OneDrive/Desktop/GD32VW553/V1_MQTT_OK/GD32VW55X_Wifi_BLE_SDK/GD32VW55x_RELEASE_V1.0.2/MSDK/wpa_supplicant/src/crypto\aes-internal-enc.c **** 	PUTU32(ct +  4, s1);
 781              		.loc 1 89 40 is_stmt 0
 782 035c 93DE8E00 		srli	t4,t4,8
  88:C:/Users/stapi/OneDrive/Desktop/GD32VW553/V1_MQTT_OK/GD32VW55X_Wifi_BLE_SDK/GD32VW55x_RELEASE_V1.0.2/MSDK/wpa_supplicant/src/crypto\aes-internal-enc.c **** 	s1 = TE41(t1) ^ TE42(t2) ^ TE43(t3) ^ TE44(t0) ^ rk[1];
 783              		.loc 1 88 2
 784 0360 93570D01 		srli	a5,s10,16
  89:C:/Users/stapi/OneDrive/Desktop/GD32VW553/V1_MQTT_OK/GD32VW55X_Wifi_BLE_SDK/GD32VW55x_RELEASE_V1.0.2/MSDK/wpa_supplicant/src/crypto\aes-internal-enc.c **** 	PUTU32(ct +  4, s1);
 785              		.loc 1 89 7
 786 0364 2209     		slli	s2,s2,8
  88:C:/Users/stapi/OneDrive/Desktop/GD32VW553/V1_MQTT_OK/GD32VW55X_Wifi_BLE_SDK/GD32VW55x_RELEASE_V1.0.2/MSDK/wpa_supplicant/src/crypto\aes-internal-enc.c **** 	s1 = TE41(t1) ^ TE42(t2) ^ TE43(t3) ^ TE44(t0) ^ rk[1];
 787              		.loc 1 88 2
 788 0366 A300F600 		sb	a5,1(a2)
  88:C:/Users/stapi/OneDrive/Desktop/GD32VW553/V1_MQTT_OK/GD32VW55X_Wifi_BLE_SDK/GD32VW55x_RELEASE_V1.0.2/MSDK/wpa_supplicant/src/crypto\aes-internal-enc.c **** 	s1 = TE41(t1) ^ TE42(t2) ^ TE43(t3) ^ TE44(t0) ^ rk[1];
 789              		.loc 1 88 2 is_stmt 1
  89:C:/Users/stapi/OneDrive/Desktop/GD32VW553/V1_MQTT_OK/GD32VW55X_Wifi_BLE_SDK/GD32VW55x_RELEASE_V1.0.2/MSDK/wpa_supplicant/src/crypto\aes-internal-enc.c **** 	PUTU32(ct +  4, s1);
 790              		.loc 1 89 7 is_stmt 0
 791 036a 33795900 		and	s2,s2,t0
  88:C:/Users/stapi/OneDrive/Desktop/GD32VW553/V1_MQTT_OK/GD32VW55X_Wifi_BLE_SDK/GD32VW55x_RELEASE_V1.0.2/MSDK/wpa_supplicant/src/crypto\aes-internal-enc.c **** 	s1 = TE41(t1) ^ TE42(t2) ^ TE43(t3) ^ TE44(t0) ^ rk[1];
 792              		.loc 1 88 2
 793 036e 93578D00 		srli	a5,s10,8
  89:C:/Users/stapi/OneDrive/Desktop/GD32VW553/V1_MQTT_OK/GD32VW55X_Wifi_BLE_SDK/GD32VW55x_RELEASE_V1.0.2/MSDK/wpa_supplicant/src/crypto\aes-internal-enc.c **** 	PUTU32(ct +  4, s1);
 794              		.loc 1 89 40
 795 0372 93FEFE0F 		andi	t4,t4,255
  89:C:/Users/stapi/OneDrive/Desktop/GD32VW553/V1_MQTT_OK/GD32VW55X_Wifi_BLE_SDK/GD32VW55x_RELEASE_V1.0.2/MSDK/wpa_supplicant/src/crypto\aes-internal-enc.c **** 	PUTU32(ct +  4, s1);
 796              		.loc 1 89 29
 797 0376 337C7C00 		and	s8,s8,t2
  89:C:/Users/stapi/OneDrive/Desktop/GD32VW553/V1_MQTT_OK/GD32VW55X_Wifi_BLE_SDK/GD32VW55x_RELEASE_V1.0.2/MSDK/wpa_supplicant/src/crypto\aes-internal-enc.c **** 	PUTU32(ct +  4, s1);
 798              		.loc 1 89 18
 799 037a B3FB0B01 		and	s7,s7,a6
  88:C:/Users/stapi/OneDrive/Desktop/GD32VW553/V1_MQTT_OK/GD32VW55X_Wifi_BLE_SDK/GD32VW55x_RELEASE_V1.0.2/MSDK/wpa_supplicant/src/crypto\aes-internal-enc.c **** 	s1 = TE41(t1) ^ TE42(t2) ^ TE43(t3) ^ TE44(t0) ^ rk[1];
 800              		.loc 1 88 2
 801 037e 2301F600 		sb	a5,2(a2)
  88:C:/Users/stapi/OneDrive/Desktop/GD32VW553/V1_MQTT_OK/GD32VW55X_Wifi_BLE_SDK/GD32VW55x_RELEASE_V1.0.2/MSDK/wpa_supplicant/src/crypto\aes-internal-enc.c **** 	s1 = TE41(t1) ^ TE42(t2) ^ TE43(t3) ^ TE44(t0) ^ rk[1];
 802              		.loc 1 88 2 is_stmt 1
 803 0382 A301A601 		sb	s10,3(a2)
  88:C:/Users/stapi/OneDrive/Desktop/GD32VW553/V1_MQTT_OK/GD32VW55X_Wifi_BLE_SDK/GD32VW55x_RELEASE_V1.0.2/MSDK/wpa_supplicant/src/crypto\aes-internal-enc.c **** 	s1 = TE41(t1) ^ TE42(t2) ^ TE43(t3) ^ TE44(t0) ^ rk[1];
 804              		.loc 1 88 21
  89:C:/Users/stapi/OneDrive/Desktop/GD32VW553/V1_MQTT_OK/GD32VW55X_Wifi_BLE_SDK/GD32VW55x_RELEASE_V1.0.2/MSDK/wpa_supplicant/src/crypto\aes-internal-enc.c **** 	PUTU32(ct +  4, s1);
 805              		.loc 1 89 2
  89:C:/Users/stapi/OneDrive/Desktop/GD32VW553/V1_MQTT_OK/GD32VW55X_Wifi_BLE_SDK/GD32VW55x_RELEASE_V1.0.2/MSDK/wpa_supplicant/src/crypto\aes-internal-enc.c **** 	PUTU32(ct +  4, s1);
 806              		.loc 1 89 5 is_stmt 0
 807 0386 33EC8E01 		or	s8,t4,s8
  89:C:/Users/stapi/OneDrive/Desktop/GD32VW553/V1_MQTT_OK/GD32VW55X_Wifi_BLE_SDK/GD32VW55x_RELEASE_V1.0.2/MSDK/wpa_supplicant/src/crypto\aes-internal-enc.c **** 	PUTU32(ct +  4, s1);
 808              		.loc 1 89 16
 809 038a B36B7901 		or	s7,s2,s7
  89:C:/Users/stapi/OneDrive/Desktop/GD32VW553/V1_MQTT_OK/GD32VW55X_Wifi_BLE_SDK/GD32VW55x_RELEASE_V1.0.2/MSDK/wpa_supplicant/src/crypto\aes-internal-enc.c **** 	PUTU32(ct +  4, s1);
 810              		.loc 1 89 5
 811 038e B34B7C01 		xor	s7,s8,s7
 812 0392 032C4500 		lw	s8,4(a0)
  91:C:/Users/stapi/OneDrive/Desktop/GD32VW553/V1_MQTT_OK/GD32VW55X_Wifi_BLE_SDK/GD32VW55x_RELEASE_V1.0.2/MSDK/wpa_supplicant/src/crypto\aes-internal-enc.c **** 	PUTU32(ct +  8, s2);
 813              		.loc 1 91 40
 814 0396 135E8E00 		srli	t3,t3,8
  91:C:/Users/stapi/OneDrive/Desktop/GD32VW553/V1_MQTT_OK/GD32VW55X_Wifi_BLE_SDK/GD32VW55x_RELEASE_V1.0.2/MSDK/wpa_supplicant/src/crypto\aes-internal-enc.c **** 	PUTU32(ct +  8, s2);
 815              		.loc 1 91 7
 816 039a A204     		slli	s1,s1,8
  89:C:/Users/stapi/OneDrive/Desktop/GD32VW553/V1_MQTT_OK/GD32VW55X_Wifi_BLE_SDK/GD32VW55x_RELEASE_V1.0.2/MSDK/wpa_supplicant/src/crypto\aes-internal-enc.c **** 	PUTU32(ct +  4, s1);
 817              		.loc 1 89 5
 818 039c B3CB8B01 		xor	s7,s7,s8
 819              	.LVL40:
  90:C:/Users/stapi/OneDrive/Desktop/GD32VW553/V1_MQTT_OK/GD32VW55X_Wifi_BLE_SDK/GD32VW55x_RELEASE_V1.0.2/MSDK/wpa_supplicant/src/crypto\aes-internal-enc.c **** 	s2 = TE41(t2) ^ TE42(t3) ^ TE43(t0) ^ TE44(t1) ^ rk[2];
 820              		.loc 1 90 2 is_stmt 1
 821 03a0 93D78B01 		srli	a5,s7,24
 822 03a4 2302F600 		sb	a5,4(a2)
  90:C:/Users/stapi/OneDrive/Desktop/GD32VW553/V1_MQTT_OK/GD32VW55X_Wifi_BLE_SDK/GD32VW55x_RELEASE_V1.0.2/MSDK/wpa_supplicant/src/crypto\aes-internal-enc.c **** 	s2 = TE41(t2) ^ TE42(t3) ^ TE43(t0) ^ TE44(t1) ^ rk[2];
 823              		.loc 1 90 2
 824 03a8 93D70B01 		srli	a5,s7,16
 825 03ac A302F600 		sb	a5,5(a2)
  90:C:/Users/stapi/OneDrive/Desktop/GD32VW553/V1_MQTT_OK/GD32VW55X_Wifi_BLE_SDK/GD32VW55x_RELEASE_V1.0.2/MSDK/wpa_supplicant/src/crypto\aes-internal-enc.c **** 	s2 = TE41(t2) ^ TE42(t3) ^ TE43(t0) ^ TE44(t1) ^ rk[2];
 826              		.loc 1 90 2
  91:C:/Users/stapi/OneDrive/Desktop/GD32VW553/V1_MQTT_OK/GD32VW55X_Wifi_BLE_SDK/GD32VW55x_RELEASE_V1.0.2/MSDK/wpa_supplicant/src/crypto\aes-internal-enc.c **** 	PUTU32(ct +  8, s2);
 827              		.loc 1 91 7 is_stmt 0
 828 03b0 B3F45400 		and	s1,s1,t0
  90:C:/Users/stapi/OneDrive/Desktop/GD32VW553/V1_MQTT_OK/GD32VW55X_Wifi_BLE_SDK/GD32VW55x_RELEASE_V1.0.2/MSDK/wpa_supplicant/src/crypto\aes-internal-enc.c **** 	s2 = TE41(t2) ^ TE42(t3) ^ TE43(t0) ^ TE44(t1) ^ rk[2];
 829              		.loc 1 90 2
 830 03b4 93D78B00 		srli	a5,s7,8
  91:C:/Users/stapi/OneDrive/Desktop/GD32VW553/V1_MQTT_OK/GD32VW55X_Wifi_BLE_SDK/GD32VW55x_RELEASE_V1.0.2/MSDK/wpa_supplicant/src/crypto\aes-internal-enc.c **** 	PUTU32(ct +  8, s2);
 831              		.loc 1 91 40
 832 03b8 137EFE0F 		andi	t3,t3,255
  91:C:/Users/stapi/OneDrive/Desktop/GD32VW553/V1_MQTT_OK/GD32VW55X_Wifi_BLE_SDK/GD32VW55x_RELEASE_V1.0.2/MSDK/wpa_supplicant/src/crypto\aes-internal-enc.c **** 	PUTU32(ct +  8, s2);
 833              		.loc 1 91 29
 834 03bc 337B7B00 		and	s6,s6,t2
  91:C:/Users/stapi/OneDrive/Desktop/GD32VW553/V1_MQTT_OK/GD32VW55X_Wifi_BLE_SDK/GD32VW55x_RELEASE_V1.0.2/MSDK/wpa_supplicant/src/crypto\aes-internal-enc.c **** 	PUTU32(ct +  8, s2);
 835              		.loc 1 91 18
 836 03c0 B3FA0A01 		and	s5,s5,a6
  90:C:/Users/stapi/OneDrive/Desktop/GD32VW553/V1_MQTT_OK/GD32VW55X_Wifi_BLE_SDK/GD32VW55x_RELEASE_V1.0.2/MSDK/wpa_supplicant/src/crypto\aes-internal-enc.c **** 	s2 = TE41(t2) ^ TE42(t3) ^ TE43(t0) ^ TE44(t1) ^ rk[2];
 837              		.loc 1 90 2
 838 03c4 2303F600 		sb	a5,6(a2)
  90:C:/Users/stapi/OneDrive/Desktop/GD32VW553/V1_MQTT_OK/GD32VW55X_Wifi_BLE_SDK/GD32VW55x_RELEASE_V1.0.2/MSDK/wpa_supplicant/src/crypto\aes-internal-enc.c **** 	s2 = TE41(t2) ^ TE42(t3) ^ TE43(t0) ^ TE44(t1) ^ rk[2];
 839              		.loc 1 90 2 is_stmt 1
 840 03c8 A3037601 		sb	s7,7(a2)
  90:C:/Users/stapi/OneDrive/Desktop/GD32VW553/V1_MQTT_OK/GD32VW55X_Wifi_BLE_SDK/GD32VW55x_RELEASE_V1.0.2/MSDK/wpa_supplicant/src/crypto\aes-internal-enc.c **** 	s2 = TE41(t2) ^ TE42(t3) ^ TE43(t0) ^ TE44(t1) ^ rk[2];
 841              		.loc 1 90 21
  91:C:/Users/stapi/OneDrive/Desktop/GD32VW553/V1_MQTT_OK/GD32VW55X_Wifi_BLE_SDK/GD32VW55x_RELEASE_V1.0.2/MSDK/wpa_supplicant/src/crypto\aes-internal-enc.c **** 	PUTU32(ct +  8, s2);
 842              		.loc 1 91 2
  91:C:/Users/stapi/OneDrive/Desktop/GD32VW553/V1_MQTT_OK/GD32VW55X_Wifi_BLE_SDK/GD32VW55x_RELEASE_V1.0.2/MSDK/wpa_supplicant/src/crypto\aes-internal-enc.c **** 	PUTU32(ct +  8, s2);
 843              		.loc 1 91 5 is_stmt 0
 844 03cc 336B6E01 		or	s6,t3,s6
  91:C:/Users/stapi/OneDrive/Desktop/GD32VW553/V1_MQTT_OK/GD32VW55X_Wifi_BLE_SDK/GD32VW55x_RELEASE_V1.0.2/MSDK/wpa_supplicant/src/crypto\aes-internal-enc.c **** 	PUTU32(ct +  8, s2);
 845              		.loc 1 91 16
 846 03d0 B3EA5401 		or	s5,s1,s5
  91:C:/Users/stapi/OneDrive/Desktop/GD32VW553/V1_MQTT_OK/GD32VW55X_Wifi_BLE_SDK/GD32VW55x_RELEASE_V1.0.2/MSDK/wpa_supplicant/src/crypto\aes-internal-enc.c **** 	PUTU32(ct +  8, s2);
 847              		.loc 1 91 5
 848 03d4 B34A5B01 		xor	s5,s6,s5
 849 03d8 032B8500 		lw	s6,8(a0)
  93:C:/Users/stapi/OneDrive/Desktop/GD32VW553/V1_MQTT_OK/GD32VW55X_Wifi_BLE_SDK/GD32VW55x_RELEASE_V1.0.2/MSDK/wpa_supplicant/src/crypto\aes-internal-enc.c **** 	PUTU32(ct + 12, s3);
 850              		.loc 1 93 7
 851 03dc 2204     		slli	s0,s0,8
  93:C:/Users/stapi/OneDrive/Desktop/GD32VW553/V1_MQTT_OK/GD32VW55X_Wifi_BLE_SDK/GD32VW55x_RELEASE_V1.0.2/MSDK/wpa_supplicant/src/crypto\aes-internal-enc.c **** 	PUTU32(ct + 12, s3);
 852              		.loc 1 93 29
 853 03de B3F87800 		and	a7,a7,t2
  91:C:/Users/stapi/OneDrive/Desktop/GD32VW553/V1_MQTT_OK/GD32VW55X_Wifi_BLE_SDK/GD32VW55x_RELEASE_V1.0.2/MSDK/wpa_supplicant/src/crypto\aes-internal-enc.c **** 	PUTU32(ct +  8, s2);
 854              		.loc 1 91 5
 855 03e2 B3CA6A01 		xor	s5,s5,s6
 856              	.LVL41:
  92:C:/Users/stapi/OneDrive/Desktop/GD32VW553/V1_MQTT_OK/GD32VW55X_Wifi_BLE_SDK/GD32VW55x_RELEASE_V1.0.2/MSDK/wpa_supplicant/src/crypto\aes-internal-enc.c **** 	s3 = TE41(t3) ^ TE42(t0) ^ TE43(t1) ^ TE44(t2) ^ rk[3];
 857              		.loc 1 92 2 is_stmt 1
 858 03e6 93D78A01 		srli	a5,s5,24
 859 03ea 2304F600 		sb	a5,8(a2)
  92:C:/Users/stapi/OneDrive/Desktop/GD32VW553/V1_MQTT_OK/GD32VW55X_Wifi_BLE_SDK/GD32VW55x_RELEASE_V1.0.2/MSDK/wpa_supplicant/src/crypto\aes-internal-enc.c **** 	s3 = TE41(t3) ^ TE42(t0) ^ TE43(t1) ^ TE44(t2) ^ rk[3];
 860              		.loc 1 92 2
 861 03ee 93D70A01 		srli	a5,s5,16
 862 03f2 A304F600 		sb	a5,9(a2)
  92:C:/Users/stapi/OneDrive/Desktop/GD32VW553/V1_MQTT_OK/GD32VW55X_Wifi_BLE_SDK/GD32VW55x_RELEASE_V1.0.2/MSDK/wpa_supplicant/src/crypto\aes-internal-enc.c **** 	s3 = TE41(t3) ^ TE42(t0) ^ TE43(t1) ^ TE44(t2) ^ rk[3];
 863              		.loc 1 92 2
 864 03f6 93D78A00 		srli	a5,s5,8
 865 03fa 2305F600 		sb	a5,10(a2)
  92:C:/Users/stapi/OneDrive/Desktop/GD32VW553/V1_MQTT_OK/GD32VW55X_Wifi_BLE_SDK/GD32VW55x_RELEASE_V1.0.2/MSDK/wpa_supplicant/src/crypto\aes-internal-enc.c **** 	s3 = TE41(t3) ^ TE42(t0) ^ TE43(t1) ^ TE44(t2) ^ rk[3];
 866              		.loc 1 92 2
 867 03fe A3055601 		sb	s5,11(a2)
  92:C:/Users/stapi/OneDrive/Desktop/GD32VW553/V1_MQTT_OK/GD32VW55X_Wifi_BLE_SDK/GD32VW55x_RELEASE_V1.0.2/MSDK/wpa_supplicant/src/crypto\aes-internal-enc.c **** 	s3 = TE41(t3) ^ TE42(t0) ^ TE43(t1) ^ TE44(t2) ^ rk[3];
 868              		.loc 1 92 21
  93:C:/Users/stapi/OneDrive/Desktop/GD32VW553/V1_MQTT_OK/GD32VW55X_Wifi_BLE_SDK/GD32VW55x_RELEASE_V1.0.2/MSDK/wpa_supplicant/src/crypto\aes-internal-enc.c **** 	PUTU32(ct + 12, s3);
 869              		.loc 1 93 2
  93:C:/Users/stapi/OneDrive/Desktop/GD32VW553/V1_MQTT_OK/GD32VW55X_Wifi_BLE_SDK/GD32VW55x_RELEASE_V1.0.2/MSDK/wpa_supplicant/src/crypto\aes-internal-enc.c **** 	PUTU32(ct + 12, s3);
 870              		.loc 1 93 40 is_stmt 0
 871 0402 93578F00 		srli	a5,t5,8
  93:C:/Users/stapi/OneDrive/Desktop/GD32VW553/V1_MQTT_OK/GD32VW55X_Wifi_BLE_SDK/GD32VW55x_RELEASE_V1.0.2/MSDK/wpa_supplicant/src/crypto\aes-internal-enc.c **** 	PUTU32(ct + 12, s3);
 872              		.loc 1 93 5
 873 0406 5845     		lw	a4,12(a0)
  93:C:/Users/stapi/OneDrive/Desktop/GD32VW553/V1_MQTT_OK/GD32VW55X_Wifi_BLE_SDK/GD32VW55x_RELEASE_V1.0.2/MSDK/wpa_supplicant/src/crypto\aes-internal-enc.c **** 	PUTU32(ct + 12, s3);
 874              		.loc 1 93 7
 875 0408 B3725400 		and	t0,s0,t0
  93:C:/Users/stapi/OneDrive/Desktop/GD32VW553/V1_MQTT_OK/GD32VW55X_Wifi_BLE_SDK/GD32VW55x_RELEASE_V1.0.2/MSDK/wpa_supplicant/src/crypto\aes-internal-enc.c **** 	PUTU32(ct + 12, s3);
 876              		.loc 1 93 18
 877 040c 33730301 		and	t1,t1,a6
  93:C:/Users/stapi/OneDrive/Desktop/GD32VW553/V1_MQTT_OK/GD32VW55X_Wifi_BLE_SDK/GD32VW55x_RELEASE_V1.0.2/MSDK/wpa_supplicant/src/crypto\aes-internal-enc.c **** 	PUTU32(ct + 12, s3);
 878              		.loc 1 93 40
 879 0410 93F7F70F 		andi	a5,a5,255
  93:C:/Users/stapi/OneDrive/Desktop/GD32VW553/V1_MQTT_OK/GD32VW55X_Wifi_BLE_SDK/GD32VW55x_RELEASE_V1.0.2/MSDK/wpa_supplicant/src/crypto\aes-internal-enc.c **** 	PUTU32(ct + 12, s3);
 880              		.loc 1 93 5
 881 0414 B3E71701 		or	a5,a5,a7
  93:C:/Users/stapi/OneDrive/Desktop/GD32VW553/V1_MQTT_OK/GD32VW55X_Wifi_BLE_SDK/GD32VW55x_RELEASE_V1.0.2/MSDK/wpa_supplicant/src/crypto\aes-internal-enc.c **** 	PUTU32(ct + 12, s3);
 882              		.loc 1 93 16
 883 0418 33E36200 		or	t1,t0,t1
  93:C:/Users/stapi/OneDrive/Desktop/GD32VW553/V1_MQTT_OK/GD32VW55X_Wifi_BLE_SDK/GD32VW55x_RELEASE_V1.0.2/MSDK/wpa_supplicant/src/crypto\aes-internal-enc.c **** 	PUTU32(ct + 12, s3);
 884              		.loc 1 93 5
 885 041c B3C76700 		xor	a5,a5,t1
 886 0420 B98F     		xor	a5,a5,a4
 887              	.LVL42:
  94:C:/Users/stapi/OneDrive/Desktop/GD32VW553/V1_MQTT_OK/GD32VW55X_Wifi_BLE_SDK/GD32VW55x_RELEASE_V1.0.2/MSDK/wpa_supplicant/src/crypto\aes-internal-enc.c **** }
 888              		.loc 1 94 2 is_stmt 1
 889 0422 13D78701 		srli	a4,a5,24
 890 0426 2306E600 		sb	a4,12(a2)
  94:C:/Users/stapi/OneDrive/Desktop/GD32VW553/V1_MQTT_OK/GD32VW55X_Wifi_BLE_SDK/GD32VW55x_RELEASE_V1.0.2/MSDK/wpa_supplicant/src/crypto\aes-internal-enc.c **** }
 891              		.loc 1 94 2
 892 042a 13D70701 		srli	a4,a5,16
 893 042e A306E600 		sb	a4,13(a2)
  94:C:/Users/stapi/OneDrive/Desktop/GD32VW553/V1_MQTT_OK/GD32VW55X_Wifi_BLE_SDK/GD32VW55x_RELEASE_V1.0.2/MSDK/wpa_supplicant/src/crypto\aes-internal-enc.c **** }
 894              		.loc 1 94 2
 895 0432 13D78700 		srli	a4,a5,8
 896 0436 2307E600 		sb	a4,14(a2)
  94:C:/Users/stapi/OneDrive/Desktop/GD32VW553/V1_MQTT_OK/GD32VW55X_Wifi_BLE_SDK/GD32VW55x_RELEASE_V1.0.2/MSDK/wpa_supplicant/src/crypto\aes-internal-enc.c **** }
 897              		.loc 1 94 2
 898 043a A307F600 		sb	a5,15(a2)
  94:C:/Users/stapi/OneDrive/Desktop/GD32VW553/V1_MQTT_OK/GD32VW55X_Wifi_BLE_SDK/GD32VW55x_RELEASE_V1.0.2/MSDK/wpa_supplicant/src/crypto\aes-internal-enc.c **** }
 899              		.loc 1 94 21
 900              	.LVL43:
 901              	.LBE101:
 902              	.LBE100:
 123:C:/Users/stapi/OneDrive/Desktop/GD32VW553/V1_MQTT_OK/GD32VW55X_Wifi_BLE_SDK/GD32VW55x_RELEASE_V1.0.2/MSDK/wpa_supplicant/src/crypto\aes-internal-enc.c **** 	return 0;
 903              		.loc 1 123 2
 124:C:/Users/stapi/OneDrive/Desktop/GD32VW553/V1_MQTT_OK/GD32VW55X_Wifi_BLE_SDK/GD32VW55x_RELEASE_V1.0.2/MSDK/wpa_supplicant/src/crypto\aes-internal-enc.c **** }
 904              		.loc 1 124 1 is_stmt 0
 905 043e 0145     		li	a0,0
 906 0440 17030000 		tail	__riscv_restore_11
 906      67000300 
 907              		.cfi_restore 26
 908              		.cfi_restore 25
 909              		.cfi_restore 24
 910              		.cfi_restore 23
 911              		.cfi_restore 22
 912              		.cfi_restore 21
 913              		.cfi_restore 20
 914              		.cfi_restore 19
 915              		.cfi_restore 18
 916              		.cfi_restore 9
 917              		.cfi_restore 8
 918              		.cfi_def_cfa_offset 0
 919              		.cfi_endproc
 920              	.LFE74:
 922              		.section	.text.aes_encrypt_deinit,"ax",@progbits
 923              		.align	1
 924              		.globl	aes_encrypt_deinit
 926              	aes_encrypt_deinit:
 927              	.LFB75:
 125:C:/Users/stapi/OneDrive/Desktop/GD32VW553/V1_MQTT_OK/GD32VW55X_Wifi_BLE_SDK/GD32VW55x_RELEASE_V1.0.2/MSDK/wpa_supplicant/src/crypto\aes-internal-enc.c **** 
 126:C:/Users/stapi/OneDrive/Desktop/GD32VW553/V1_MQTT_OK/GD32VW55X_Wifi_BLE_SDK/GD32VW55x_RELEASE_V1.0.2/MSDK/wpa_supplicant/src/crypto\aes-internal-enc.c **** 
 127:C:/Users/stapi/OneDrive/Desktop/GD32VW553/V1_MQTT_OK/GD32VW55X_Wifi_BLE_SDK/GD32VW55x_RELEASE_V1.0.2/MSDK/wpa_supplicant/src/crypto\aes-internal-enc.c **** void aes_encrypt_deinit(void *ctx)
 128:C:/Users/stapi/OneDrive/Desktop/GD32VW553/V1_MQTT_OK/GD32VW55X_Wifi_BLE_SDK/GD32VW55x_RELEASE_V1.0.2/MSDK/wpa_supplicant/src/crypto\aes-internal-enc.c **** {
 928              		.loc 1 128 1 is_stmt 1
 929              		.cfi_startproc
 930              	.LVL44:
 931 0000 17030000 		call	t0,__riscv_save_1
 931      E7020300 
 932              		.cfi_offset 8, -8
 933              		.cfi_offset 1, -4
 934              		.cfi_def_cfa_offset 16
 129:C:/Users/stapi/OneDrive/Desktop/GD32VW553/V1_MQTT_OK/GD32VW55X_Wifi_BLE_SDK/GD32VW55x_RELEASE_V1.0.2/MSDK/wpa_supplicant/src/crypto\aes-internal-enc.c **** 	os_memset(ctx, 0, AES_PRIV_SIZE);
 935              		.loc 1 129 2
 936 0008 1306400F 		li	a2,244
 937 000c 8145     		li	a1,0
 128:C:/Users/stapi/OneDrive/Desktop/GD32VW553/V1_MQTT_OK/GD32VW55X_Wifi_BLE_SDK/GD32VW55x_RELEASE_V1.0.2/MSDK/wpa_supplicant/src/crypto\aes-internal-enc.c **** 	os_memset(ctx, 0, AES_PRIV_SIZE);
 938              		.loc 1 128 1 is_stmt 0
 939 000e 2A84     		mv	s0,a0
 940              		.loc 1 129 2
 941 0010 97000000 		call	os_memset
 941      E7800000 
 942              	.LVL45:
 130:C:/Users/stapi/OneDrive/Desktop/GD32VW553/V1_MQTT_OK/GD32VW55X_Wifi_BLE_SDK/GD32VW55x_RELEASE_V1.0.2/MSDK/wpa_supplicant/src/crypto\aes-internal-enc.c **** 	os_free(ctx);
 943              		.loc 1 130 2 is_stmt 1
 944 0018 2285     		mv	a0,s0
 945 001a 97000000 		call	os_free
 945      E7800000 
 946              	.LVL46:
 131:C:/Users/stapi/OneDrive/Desktop/GD32VW553/V1_MQTT_OK/GD32VW55X_Wifi_BLE_SDK/GD32VW55x_RELEASE_V1.0.2/MSDK/wpa_supplicant/src/crypto\aes-internal-enc.c **** }
 947              		.loc 1 131 1 is_stmt 0
 948 0022 17030000 		tail	__riscv_restore_1
 948      67000300 
 949              		.cfi_restore 8
 950              		.cfi_restore 1
 951              		.cfi_def_cfa_offset 0
 952              		.cfi_endproc
 953              	.LFE75:
 955              		.text
 956              	.Letext0:
 957              		.file 3 "c:\\users\\stapi\\onedrive\\desktop\\gd32vw553\\embeddedbuilder_v1.4.7.26843\\tools\\nucl
 958              		.file 4 "c:\\users\\stapi\\onedrive\\desktop\\gd32vw553\\embeddedbuilder_v1.4.7.26843\\tools\\nucl
 959              		.file 5 "c:\\users\\stapi\\onedrive\\desktop\\gd32vw553\\embeddedbuilder_v1.4.7.26843\\tools\\nucl
 960              		.file 6 "..\\..\\..\\..\\wpa_supplicant\\src\\utils/common.h"
 961              		.file 7 "..\\..\\..\\..\\wpa_supplicant\\src\\utils/os.h"
DEFINED SYMBOLS
                            *ABS*:0000000000000000 aes-internal-enc.c
C:\Users\stapi\AppData\Local\Temp\ccGIR5y3.s:13     .text.aes_encrypt_init:0000000000000000 aes_encrypt_init
C:\Users\stapi\AppData\Local\Temp\ccGIR5y3.s:17     .text.aes_encrypt_init:0000000000000000 .L0 
C:\Users\stapi\AppData\Local\Temp\ccGIR5y3.s:19     .text.aes_encrypt_init:0000000000000000 .L0 
C:\Users\stapi\AppData\Local\Temp\ccGIR5y3.s:20     .text.aes_encrypt_init:0000000000000008 .L0 
C:\Users\stapi\AppData\Local\Temp\ccGIR5y3.s:21     .text.aes_encrypt_init:0000000000000008 .L0 
C:\Users\stapi\AppData\Local\Temp\ccGIR5y3.s:22     .text.aes_encrypt_init:0000000000000008 .L0 
C:\Users\stapi\AppData\Local\Temp\ccGIR5y3.s:23     .text.aes_encrypt_init:0000000000000008 .L0 
C:\Users\stapi\AppData\Local\Temp\ccGIR5y3.s:24     .text.aes_encrypt_init:0000000000000008 .L0 
C:\Users\stapi\AppData\Local\Temp\ccGIR5y3.s:26     .text.aes_encrypt_init:0000000000000008 .L0 
C:\Users\stapi\AppData\Local\Temp\ccGIR5y3.s:27     .text.aes_encrypt_init:0000000000000008 .L0 
C:\Users\stapi\AppData\Local\Temp\ccGIR5y3.s:28     .text.aes_encrypt_init:0000000000000008 .L0 
C:\Users\stapi\AppData\Local\Temp\ccGIR5y3.s:29     .text.aes_encrypt_init:0000000000000008 .L0 
C:\Users\stapi\AppData\Local\Temp\ccGIR5y3.s:30     .text.aes_encrypt_init:0000000000000008 .L0 
C:\Users\stapi\AppData\Local\Temp\ccGIR5y3.s:32     .text.aes_encrypt_init:000000000000000a .L0 
C:\Users\stapi\AppData\Local\Temp\ccGIR5y3.s:35     .text.aes_encrypt_init:000000000000000e .L0 
C:\Users\stapi\AppData\Local\Temp\ccGIR5y3.s:37     .text.aes_encrypt_init:0000000000000010 .L0 
C:\Users\stapi\AppData\Local\Temp\ccGIR5y3.s:42     .text.aes_encrypt_init:000000000000001a .L0 
C:\Users\stapi\AppData\Local\Temp\ccGIR5y3.s:43     .text.aes_encrypt_init:000000000000001a .L0 
C:\Users\stapi\AppData\Local\Temp\ccGIR5y3.s:45     .text.aes_encrypt_init:000000000000001c .L0 
C:\Users\stapi\AppData\Local\Temp\ccGIR5y3.s:46     .text.aes_encrypt_init:000000000000001c .L0 
C:\Users\stapi\AppData\Local\Temp\ccGIR5y3.s:51     .text.aes_encrypt_init:000000000000002a .L0 
C:\Users\stapi\AppData\Local\Temp\ccGIR5y3.s:52     .text.aes_encrypt_init:000000000000002a .L0 
C:\Users\stapi\AppData\Local\Temp\ccGIR5y3.s:54     .text.aes_encrypt_init:000000000000002e .L0 
C:\Users\stapi\AppData\Local\Temp\ccGIR5y3.s:59     .text.aes_encrypt_init:0000000000000038 .L0 
C:\Users\stapi\AppData\Local\Temp\ccGIR5y3.s:60     .text.aes_encrypt_init:0000000000000038 .L0 
C:\Users\stapi\AppData\Local\Temp\ccGIR5y3.s:64     .text.aes_encrypt_init:000000000000003a .L0 
C:\Users\stapi\AppData\Local\Temp\ccGIR5y3.s:66     .text.aes_encrypt_init:0000000000000044 .L0 
C:\Users\stapi\AppData\Local\Temp\ccGIR5y3.s:67     .text.aes_encrypt_init:0000000000000044 .L0 
C:\Users\stapi\AppData\Local\Temp\ccGIR5y3.s:68     .text.aes_encrypt_init:0000000000000044 .L0 
C:\Users\stapi\AppData\Local\Temp\ccGIR5y3.s:69     .text.aes_encrypt_init:0000000000000044 .L0 
C:\Users\stapi\AppData\Local\Temp\ccGIR5y3.s:70     .text.aes_encrypt_init:0000000000000044 .L0 
C:\Users\stapi\AppData\Local\Temp\ccGIR5y3.s:71     .text.aes_encrypt_init:0000000000000044 .L0 
C:\Users\stapi\AppData\Local\Temp\ccGIR5y3.s:74     .text.aes_encrypt_init:0000000000000044 .L0 
C:\Users\stapi\AppData\Local\Temp\ccGIR5y3.s:76     .text.aes_encrypt_init:0000000000000044 .L0 
C:\Users\stapi\AppData\Local\Temp\ccGIR5y3.s:77     .text.aes_encrypt_init:0000000000000044 .L0 
C:\Users\stapi\AppData\Local\Temp\ccGIR5y3.s:79     .text.aes_encrypt_init:0000000000000048 .L0 
C:\Users\stapi\AppData\Local\Temp\ccGIR5y3.s:80     .text.aes_encrypt_init:0000000000000048 .L0 
C:\Users\stapi\AppData\Local\Temp\ccGIR5y3.s:81     .text.aes_encrypt_init:000000000000004a .L0 
C:\Users\stapi\AppData\Local\Temp\ccGIR5y3.s:88     .text.aes_encrypt:0000000000000000 aes_encrypt
C:\Users\stapi\AppData\Local\Temp\ccGIR5y3.s:91     .text.aes_encrypt:0000000000000000 .L0 
C:\Users\stapi\AppData\Local\Temp\ccGIR5y3.s:93     .text.aes_encrypt:0000000000000000 .L0 
C:\Users\stapi\AppData\Local\Temp\ccGIR5y3.s:94     .text.aes_encrypt:0000000000000008 .L0 
C:\Users\stapi\AppData\Local\Temp\ccGIR5y3.s:95     .text.aes_encrypt:0000000000000008 .L0 
C:\Users\stapi\AppData\Local\Temp\ccGIR5y3.s:96     .text.aes_encrypt:0000000000000008 .L0 
C:\Users\stapi\AppData\Local\Temp\ccGIR5y3.s:97     .text.aes_encrypt:0000000000000008 .L0 
C:\Users\stapi\AppData\Local\Temp\ccGIR5y3.s:98     .text.aes_encrypt:0000000000000008 .L0 
C:\Users\stapi\AppData\Local\Temp\ccGIR5y3.s:99     .text.aes_encrypt:0000000000000008 .L0 
C:\Users\stapi\AppData\Local\Temp\ccGIR5y3.s:100    .text.aes_encrypt:0000000000000008 .L0 
C:\Users\stapi\AppData\Local\Temp\ccGIR5y3.s:101    .text.aes_encrypt:0000000000000008 .L0 
C:\Users\stapi\AppData\Local\Temp\ccGIR5y3.s:102    .text.aes_encrypt:0000000000000008 .L0 
C:\Users\stapi\AppData\Local\Temp\ccGIR5y3.s:103    .text.aes_encrypt:0000000000000008 .L0 
C:\Users\stapi\AppData\Local\Temp\ccGIR5y3.s:104    .text.aes_encrypt:0000000000000008 .L0 
C:\Users\stapi\AppData\Local\Temp\ccGIR5y3.s:105    .text.aes_encrypt:0000000000000008 .L0 
C:\Users\stapi\AppData\Local\Temp\ccGIR5y3.s:108    .text.aes_encrypt:0000000000000008 .L0 
C:\Users\stapi\AppData\Local\Temp\ccGIR5y3.s:111    .text.aes_encrypt:0000000000000008 .L0 
C:\Users\stapi\AppData\Local\Temp\ccGIR5y3.s:112    .text.aes_encrypt:0000000000000008 .L0 
C:\Users\stapi\AppData\Local\Temp\ccGIR5y3.s:113    .text.aes_encrypt:0000000000000008 .L0 
C:\Users\stapi\AppData\Local\Temp\ccGIR5y3.s:114    .text.aes_encrypt:0000000000000008 .L0 
C:\Users\stapi\AppData\Local\Temp\ccGIR5y3.s:115    .text.aes_encrypt:0000000000000008 .L0 
C:\Users\stapi\AppData\Local\Temp\ccGIR5y3.s:118    .text.aes_encrypt:0000000000000010 .L0 
C:\Users\stapi\AppData\Local\Temp\ccGIR5y3.s:120    .text.aes_encrypt:0000000000000014 .L0 
C:\Users\stapi\AppData\Local\Temp\ccGIR5y3.s:125    .text.aes_encrypt:000000000000001e .L0 
C:\Users\stapi\AppData\Local\Temp\ccGIR5y3.s:127    .text.aes_encrypt:0000000000000020 .L0 
C:\Users\stapi\AppData\Local\Temp\ccGIR5y3.s:129    .text.aes_encrypt:0000000000000024 .L0 
C:\Users\stapi\AppData\Local\Temp\ccGIR5y3.s:132    .text.aes_encrypt:000000000000002a .L0 
C:\Users\stapi\AppData\Local\Temp\ccGIR5y3.s:134    .text.aes_encrypt:000000000000002c .L0 
C:\Users\stapi\AppData\Local\Temp\ccGIR5y3.s:136    .text.aes_encrypt:0000000000000030 .L0 
C:\Users\stapi\AppData\Local\Temp\ccGIR5y3.s:139    .text.aes_encrypt:0000000000000034 .L0 
C:\Users\stapi\AppData\Local\Temp\ccGIR5y3.s:141    .text.aes_encrypt:0000000000000036 .L0 
C:\Users\stapi\AppData\Local\Temp\ccGIR5y3.s:143    .text.aes_encrypt:0000000000000038 .L0 
C:\Users\stapi\AppData\Local\Temp\ccGIR5y3.s:145    .text.aes_encrypt:000000000000003c .L0 
C:\Users\stapi\AppData\Local\Temp\ccGIR5y3.s:148    .text.aes_encrypt:000000000000003e .L0 
C:\Users\stapi\AppData\Local\Temp\ccGIR5y3.s:149    .text.aes_encrypt:000000000000003e .L0 
C:\Users\stapi\AppData\Local\Temp\ccGIR5y3.s:151    .text.aes_encrypt:0000000000000042 .L0 
C:\Users\stapi\AppData\Local\Temp\ccGIR5y3.s:153    .text.aes_encrypt:0000000000000044 .L0 
C:\Users\stapi\AppData\Local\Temp\ccGIR5y3.s:155    .text.aes_encrypt:0000000000000048 .L0 
C:\Users\stapi\AppData\Local\Temp\ccGIR5y3.s:159    .text.aes_encrypt:0000000000000050 .L0 
C:\Users\stapi\AppData\Local\Temp\ccGIR5y3.s:162    .text.aes_encrypt:0000000000000056 .L0 
C:\Users\stapi\AppData\Local\Temp\ccGIR5y3.s:165    .text.aes_encrypt:000000000000005c .L0 
C:\Users\stapi\AppData\Local\Temp\ccGIR5y3.s:170    .text.aes_encrypt:000000000000005e .L0 
C:\Users\stapi\AppData\Local\Temp\ccGIR5y3.s:174    .text.aes_encrypt:0000000000000060 .L0 
C:\Users\stapi\AppData\Local\Temp\ccGIR5y3.s:177    .text.aes_encrypt:0000000000000064 .L0 
C:\Users\stapi\AppData\Local\Temp\ccGIR5y3.s:181    .text.aes_encrypt:0000000000000066 .L0 
C:\Users\stapi\AppData\Local\Temp\ccGIR5y3.s:185    .text.aes_encrypt:0000000000000068 .L0 
C:\Users\stapi\AppData\Local\Temp\ccGIR5y3.s:188    .text.aes_encrypt:000000000000006a .L0 
C:\Users\stapi\AppData\Local\Temp\ccGIR5y3.s:189    .text.aes_encrypt:000000000000006a .L0 
C:\Users\stapi\AppData\Local\Temp\ccGIR5y3.s:195    .text.aes_encrypt:000000000000007c .L0 
C:\Users\stapi\AppData\Local\Temp\ccGIR5y3.s:197    .text.aes_encrypt:0000000000000080 .L0 
C:\Users\stapi\AppData\Local\Temp\ccGIR5y3.s:199    .text.aes_encrypt:0000000000000084 .L0 
C:\Users\stapi\AppData\Local\Temp\ccGIR5y3.s:201    .text.aes_encrypt:0000000000000088 .L0 
C:\Users\stapi\AppData\Local\Temp\ccGIR5y3.s:207    .text.aes_encrypt:0000000000000096 .L0 
C:\Users\stapi\AppData\Local\Temp\ccGIR5y3.s:210    .text.aes_encrypt:000000000000009a .L0 
C:\Users\stapi\AppData\Local\Temp\ccGIR5y3.s:211    .text.aes_encrypt:000000000000009a .L0 
C:\Users\stapi\AppData\Local\Temp\ccGIR5y3.s:215    .text.aes_encrypt:00000000000000a2 .L0 
C:\Users\stapi\AppData\Local\Temp\ccGIR5y3.s:217    .text.aes_encrypt:00000000000000a4 .L0 
C:\Users\stapi\AppData\Local\Temp\ccGIR5y3.s:220    .text.aes_encrypt:00000000000000ac .L0 
C:\Users\stapi\AppData\Local\Temp\ccGIR5y3.s:224    .text.aes_encrypt:00000000000000ae .L0 
C:\Users\stapi\AppData\Local\Temp\ccGIR5y3.s:225    .text.aes_encrypt:00000000000000ae .L0 
C:\Users\stapi\AppData\Local\Temp\ccGIR5y3.s:228    .text.aes_encrypt:00000000000000ae .L0 
C:\Users\stapi\AppData\Local\Temp\ccGIR5y3.s:233    .text.aes_encrypt:00000000000000ae .L0 
C:\Users\stapi\AppData\Local\Temp\ccGIR5y3.s:238    .text.aes_encrypt:00000000000000ae .L0 
C:\Users\stapi\AppData\Local\Temp\ccGIR5y3.s:241    .text.aes_encrypt:00000000000000ae .L0 
C:\Users\stapi\AppData\Local\Temp\ccGIR5y3.s:242    .text.aes_encrypt:00000000000000ae .L0 
C:\Users\stapi\AppData\Local\Temp\ccGIR5y3.s:247    .text.aes_encrypt:00000000000000be .L0 
C:\Users\stapi\AppData\Local\Temp\ccGIR5y3.s:250    .text.aes_encrypt:00000000000000c0 .L0 
C:\Users\stapi\AppData\Local\Temp\ccGIR5y3.s:253    .text.aes_encrypt:00000000000000c4 .L0 
C:\Users\stapi\AppData\Local\Temp\ccGIR5y3.s:259    .text.aes_encrypt:00000000000000d0 .L0 
C:\Users\stapi\AppData\Local\Temp\ccGIR5y3.s:264    .text.aes_encrypt:00000000000000d6 .L0 
C:\Users\stapi\AppData\Local\Temp\ccGIR5y3.s:271    .text.aes_encrypt:00000000000000e4 .L0 
C:\Users\stapi\AppData\Local\Temp\ccGIR5y3.s:276    .text.aes_encrypt:00000000000000ea .L0 
C:\Users\stapi\AppData\Local\Temp\ccGIR5y3.s:283    .text.aes_encrypt:00000000000000f8 .L0 
C:\Users\stapi\AppData\Local\Temp\ccGIR5y3.s:288    .text.aes_encrypt:00000000000000fe .L0 
C:\Users\stapi\AppData\Local\Temp\ccGIR5y3.s:293    .text.aes_encrypt:0000000000000102 .L0 
C:\Users\stapi\AppData\Local\Temp\ccGIR5y3.s:298    .text.aes_encrypt:0000000000000102 .L0 
C:\Users\stapi\AppData\Local\Temp\ccGIR5y3.s:303    .text.aes_encrypt:0000000000000102 .L0 
C:\Users\stapi\AppData\Local\Temp\ccGIR5y3.s:306    .text.aes_encrypt:0000000000000102 .L0 
C:\Users\stapi\AppData\Local\Temp\ccGIR5y3.s:307    .text.aes_encrypt:0000000000000102 .L0 
C:\Users\stapi\AppData\Local\Temp\ccGIR5y3.s:317    .text.aes_encrypt:000000000000011e .L0 
C:\Users\stapi\AppData\Local\Temp\ccGIR5y3.s:322    .text.aes_encrypt:0000000000000124 .L0 
C:\Users\stapi\AppData\Local\Temp\ccGIR5y3.s:329    .text.aes_encrypt:0000000000000132 .L0 
C:\Users\stapi\AppData\Local\Temp\ccGIR5y3.s:334    .text.aes_encrypt:0000000000000138 .L0 
C:\Users\stapi\AppData\Local\Temp\ccGIR5y3.s:341    .text.aes_encrypt:0000000000000146 .L0 
C:\Users\stapi\AppData\Local\Temp\ccGIR5y3.s:346    .text.aes_encrypt:000000000000014c .L0 
C:\Users\stapi\AppData\Local\Temp\ccGIR5y3.s:351    .text.aes_encrypt:0000000000000150 .L0 
C:\Users\stapi\AppData\Local\Temp\ccGIR5y3.s:356    .text.aes_encrypt:0000000000000150 .L0 
C:\Users\stapi\AppData\Local\Temp\ccGIR5y3.s:361    .text.aes_encrypt:0000000000000150 .L0 
C:\Users\stapi\AppData\Local\Temp\ccGIR5y3.s:364    .text.aes_encrypt:0000000000000150 .L0 
C:\Users\stapi\AppData\Local\Temp\ccGIR5y3.s:365    .text.aes_encrypt:0000000000000150 .L0 
C:\Users\stapi\AppData\Local\Temp\ccGIR5y3.s:378    .text.aes_encrypt:0000000000000174 .L0 
C:\Users\stapi\AppData\Local\Temp\ccGIR5y3.s:382    .text.aes_encrypt:0000000000000176 .L0 
C:\Users\stapi\AppData\Local\Temp\ccGIR5y3.s:388    .text.aes_encrypt:000000000000017c .L0 
C:\Users\stapi\AppData\Local\Temp\ccGIR5y3.s:392    .text.aes_encrypt:0000000000000180 .L0 
C:\Users\stapi\AppData\Local\Temp\ccGIR5y3.s:399    .text.aes_encrypt:000000000000018e .L0 
C:\Users\stapi\AppData\Local\Temp\ccGIR5y3.s:403    .text.aes_encrypt:0000000000000190 .L0 
C:\Users\stapi\AppData\Local\Temp\ccGIR5y3.s:409    .text.aes_encrypt:0000000000000196 .L0 
C:\Users\stapi\AppData\Local\Temp\ccGIR5y3.s:413    .text.aes_encrypt:000000000000019a .L0 
C:\Users\stapi\AppData\Local\Temp\ccGIR5y3.s:420    .text.aes_encrypt:00000000000001a8 .L0 
C:\Users\stapi\AppData\Local\Temp\ccGIR5y3.s:424    .text.aes_encrypt:00000000000001aa .L0 
C:\Users\stapi\AppData\Local\Temp\ccGIR5y3.s:430    .text.aes_encrypt:00000000000001ae .L0 
C:\Users\stapi\AppData\Local\Temp\ccGIR5y3.s:434    .text.aes_encrypt:00000000000001b2 .L0 
C:\Users\stapi\AppData\Local\Temp\ccGIR5y3.s:439    .text.aes_encrypt:00000000000001b6 .L0 
C:\Users\stapi\AppData\Local\Temp\ccGIR5y3.s:444    .text.aes_encrypt:00000000000001b6 .L0 
C:\Users\stapi\AppData\Local\Temp\ccGIR5y3.s:449    .text.aes_encrypt:00000000000001b6 .L0 
C:\Users\stapi\AppData\Local\Temp\ccGIR5y3.s:452    .text.aes_encrypt:00000000000001b6 .L0 
C:\Users\stapi\AppData\Local\Temp\ccGIR5y3.s:453    .text.aes_encrypt:00000000000001b6 .L0 
C:\Users\stapi\AppData\Local\Temp\ccGIR5y3.s:460    .text.aes_encrypt:00000000000001c2 .L0 
C:\Users\stapi\AppData\Local\Temp\ccGIR5y3.s:469    .text.aes_encrypt:00000000000001c8 .L0 
C:\Users\stapi\AppData\Local\Temp\ccGIR5y3.s:471    .text.aes_encrypt:00000000000001cc .L0 
C:\Users\stapi\AppData\Local\Temp\ccGIR5y3.s:475    .text.aes_encrypt:00000000000001ce .L0 
C:\Users\stapi\AppData\Local\Temp\ccGIR5y3.s:479    .text.aes_encrypt:00000000000001d0 .L0 
C:\Users\stapi\AppData\Local\Temp\ccGIR5y3.s:483    .text.aes_encrypt:00000000000001d4 .L0 
C:\Users\stapi\AppData\Local\Temp\ccGIR5y3.s:487    .text.aes_encrypt:00000000000001d8 .L0 
C:\Users\stapi\AppData\Local\Temp\ccGIR5y3.s:489    .text.aes_encrypt:00000000000001dc .L0 
C:\Users\stapi\AppData\Local\Temp\ccGIR5y3.s:491    .text.aes_encrypt:00000000000001de .L0 
C:\Users\stapi\AppData\Local\Temp\ccGIR5y3.s:496    .text.aes_encrypt:00000000000001e6 .L0 
C:\Users\stapi\AppData\Local\Temp\ccGIR5y3.s:500    .text.aes_encrypt:00000000000001ea .L0 
C:\Users\stapi\AppData\Local\Temp\ccGIR5y3.s:502    .text.aes_encrypt:00000000000001ec .L0 
C:\Users\stapi\AppData\Local\Temp\ccGIR5y3.s:506    .text.aes_encrypt:00000000000001ee .L0 
C:\Users\stapi\AppData\Local\Temp\ccGIR5y3.s:510    .text.aes_encrypt:00000000000001f2 .L0 
C:\Users\stapi\AppData\Local\Temp\ccGIR5y3.s:513    .text.aes_encrypt:00000000000001f4 .L0 
C:\Users\stapi\AppData\Local\Temp\ccGIR5y3.s:514    .text.aes_encrypt:00000000000001f4 .L0 
C:\Users\stapi\AppData\Local\Temp\ccGIR5y3.s:515    .text.aes_encrypt:00000000000001f4 .L0 
C:\Users\stapi\AppData\Local\Temp\ccGIR5y3.s:571    .text.aes_encrypt:00000000000002a8 .L0 
C:\Users\stapi\AppData\Local\Temp\ccGIR5y3.s:576    .text.aes_encrypt:00000000000002ac .L0 
C:\Users\stapi\AppData\Local\Temp\ccGIR5y3.s:581    .text.aes_encrypt:00000000000002ac .L0 
C:\Users\stapi\AppData\Local\Temp\ccGIR5y3.s:586    .text.aes_encrypt:00000000000002ac .L0 
C:\Users\stapi\AppData\Local\Temp\ccGIR5y3.s:589    .text.aes_encrypt:00000000000002ac .L0 
C:\Users\stapi\AppData\Local\Temp\ccGIR5y3.s:590    .text.aes_encrypt:00000000000002ac .L0 
C:\Users\stapi\AppData\Local\Temp\ccGIR5y3.s:594    .text.aes_encrypt:00000000000002b0 .L0 
C:\Users\stapi\AppData\Local\Temp\ccGIR5y3.s:603    .text.aes_encrypt:00000000000002b8 .L0 
C:\Users\stapi\AppData\Local\Temp\ccGIR5y3.s:609    .text.aes_encrypt:00000000000002c2 .L0 
C:\Users\stapi\AppData\Local\Temp\ccGIR5y3.s:613    .text.aes_encrypt:00000000000002c6 .L0 
C:\Users\stapi\AppData\Local\Temp\ccGIR5y3.s:618    .text.aes_encrypt:00000000000002c8 .L0 
C:\Users\stapi\AppData\Local\Temp\ccGIR5y3.s:623    .text.aes_encrypt:00000000000002c8 .L0 
C:\Users\stapi\AppData\Local\Temp\ccGIR5y3.s:628    .text.aes_encrypt:00000000000002c8 .L0 
C:\Users\stapi\AppData\Local\Temp\ccGIR5y3.s:631    .text.aes_encrypt:00000000000002c8 .L0 
C:\Users\stapi\AppData\Local\Temp\ccGIR5y3.s:632    .text.aes_encrypt:00000000000002c8 .L0 
C:\Users\stapi\AppData\Local\Temp\ccGIR5y3.s:638    .text.aes_encrypt:00000000000002d2 .L0 
C:\Users\stapi\AppData\Local\Temp\ccGIR5y3.s:642    .text.aes_encrypt:00000000000002d6 .L0 
C:\Users\stapi\AppData\Local\Temp\ccGIR5y3.s:648    .text.aes_encrypt:00000000000002e0 .L0 
C:\Users\stapi\AppData\Local\Temp\ccGIR5y3.s:657    .text.aes_encrypt:00000000000002e8 .L0 
C:\Users\stapi\AppData\Local\Temp\ccGIR5y3.s:662    .text.aes_encrypt:00000000000002f0 .L0 
C:\Users\stapi\AppData\Local\Temp\ccGIR5y3.s:671    .text.aes_encrypt:00000000000002f8 .L0 
C:\Users\stapi\AppData\Local\Temp\ccGIR5y3.s:676    .text.aes_encrypt:0000000000000300 .L0 
C:\Users\stapi\AppData\Local\Temp\ccGIR5y3.s:680    .text.aes_encrypt:0000000000000304 .L0 
C:\Users\stapi\AppData\Local\Temp\ccGIR5y3.s:684    .text.aes_encrypt:0000000000000308 .L0 
C:\Users\stapi\AppData\Local\Temp\ccGIR5y3.s:698    .text.aes_encrypt:0000000000000314 .L0 
C:\Users\stapi\AppData\Local\Temp\ccGIR5y3.s:703    .text.aes_encrypt:0000000000000318 .L0 
C:\Users\stapi\AppData\Local\Temp\ccGIR5y3.s:708    .text.aes_encrypt:0000000000000318 .L0 
C:\Users\stapi\AppData\Local\Temp\ccGIR5y3.s:713    .text.aes_encrypt:0000000000000318 .L0 
C:\Users\stapi\AppData\Local\Temp\ccGIR5y3.s:716    .text.aes_encrypt:0000000000000318 .L0 
C:\Users\stapi\AppData\Local\Temp\ccGIR5y3.s:717    .text.aes_encrypt:0000000000000318 .L0 
C:\Users\stapi\AppData\Local\Temp\ccGIR5y3.s:722    .text.aes_encrypt:000000000000031c .L0 
C:\Users\stapi\AppData\Local\Temp\ccGIR5y3.s:727    .text.aes_encrypt:000000000000031c .L0 
C:\Users\stapi\AppData\Local\Temp\ccGIR5y3.s:732    .text.aes_encrypt:000000000000031c .L0 
C:\Users\stapi\AppData\Local\Temp\ccGIR5y3.s:735    .text.aes_encrypt:000000000000031c .L0 
C:\Users\stapi\AppData\Local\Temp\ccGIR5y3.s:736    .text.aes_encrypt:000000000000031c .L0 
C:\Users\stapi\AppData\Local\Temp\ccGIR5y3.s:739    .text.aes_encrypt:0000000000000320 .L0 
C:\Users\stapi\AppData\Local\Temp\ccGIR5y3.s:740    .text.aes_encrypt:0000000000000320 .L0 
C:\Users\stapi\AppData\Local\Temp\ccGIR5y3.s:744    .text.aes_encrypt:0000000000000322 .L0 
C:\Users\stapi\AppData\Local\Temp\ccGIR5y3.s:746    .text.aes_encrypt:0000000000000324 .L0 
C:\Users\stapi\AppData\Local\Temp\ccGIR5y3.s:749    .text.aes_encrypt:0000000000000326 .L0 
C:\Users\stapi\AppData\Local\Temp\ccGIR5y3.s:752    .text.aes_encrypt:0000000000000328 .L0 
C:\Users\stapi\AppData\Local\Temp\ccGIR5y3.s:753    .text.aes_encrypt:0000000000000328 .L0 
C:\Users\stapi\AppData\Local\Temp\ccGIR5y3.s:755    .text.aes_encrypt:000000000000032c .L0 
C:\Users\stapi\AppData\Local\Temp\ccGIR5y3.s:757    .text.aes_encrypt:0000000000000330 .L0 
C:\Users\stapi\AppData\Local\Temp\ccGIR5y3.s:760    .text.aes_encrypt:0000000000000336 .L0 
C:\Users\stapi\AppData\Local\Temp\ccGIR5y3.s:762    .text.aes_encrypt:0000000000000338 .L0 
C:\Users\stapi\AppData\Local\Temp\ccGIR5y3.s:764    .text.aes_encrypt:000000000000033c .L0 
C:\Users\stapi\AppData\Local\Temp\ccGIR5y3.s:766    .text.aes_encrypt:0000000000000340 .L0 
C:\Users\stapi\AppData\Local\Temp\ccGIR5y3.s:768    .text.aes_encrypt:0000000000000344 .L0 
C:\Users\stapi\AppData\Local\Temp\ccGIR5y3.s:770    .text.aes_encrypt:0000000000000348 .L0 
C:\Users\stapi\AppData\Local\Temp\ccGIR5y3.s:772    .text.aes_encrypt:000000000000034c .L0 
C:\Users\stapi\AppData\Local\Temp\ccGIR5y3.s:777    .text.aes_encrypt:0000000000000354 .L0 
C:\Users\stapi\AppData\Local\Temp\ccGIR5y3.s:781    .text.aes_encrypt:000000000000035c .L0 
C:\Users\stapi\AppData\Local\Temp\ccGIR5y3.s:782    .text.aes_encrypt:000000000000035c .L0 
C:\Users\stapi\AppData\Local\Temp\ccGIR5y3.s:784    .text.aes_encrypt:0000000000000360 .L0 
C:\Users\stapi\AppData\Local\Temp\ccGIR5y3.s:786    .text.aes_encrypt:0000000000000364 .L0 
C:\Users\stapi\AppData\Local\Temp\ccGIR5y3.s:788    .text.aes_encrypt:0000000000000366 .L0 
C:\Users\stapi\AppData\Local\Temp\ccGIR5y3.s:790    .text.aes_encrypt:000000000000036a .L0 
C:\Users\stapi\AppData\Local\Temp\ccGIR5y3.s:791    .text.aes_encrypt:000000000000036a .L0 
C:\Users\stapi\AppData\Local\Temp\ccGIR5y3.s:793    .text.aes_encrypt:000000000000036e .L0 
C:\Users\stapi\AppData\Local\Temp\ccGIR5y3.s:795    .text.aes_encrypt:0000000000000372 .L0 
C:\Users\stapi\AppData\Local\Temp\ccGIR5y3.s:797    .text.aes_encrypt:0000000000000376 .L0 
C:\Users\stapi\AppData\Local\Temp\ccGIR5y3.s:799    .text.aes_encrypt:000000000000037a .L0 
C:\Users\stapi\AppData\Local\Temp\ccGIR5y3.s:801    .text.aes_encrypt:000000000000037e .L0 
C:\Users\stapi\AppData\Local\Temp\ccGIR5y3.s:803    .text.aes_encrypt:0000000000000382 .L0 
C:\Users\stapi\AppData\Local\Temp\ccGIR5y3.s:805    .text.aes_encrypt:0000000000000386 .L0 
C:\Users\stapi\AppData\Local\Temp\ccGIR5y3.s:806    .text.aes_encrypt:0000000000000386 .L0 
C:\Users\stapi\AppData\Local\Temp\ccGIR5y3.s:807    .text.aes_encrypt:0000000000000386 .L0 
C:\Users\stapi\AppData\Local\Temp\ccGIR5y3.s:809    .text.aes_encrypt:000000000000038a .L0 
C:\Users\stapi\AppData\Local\Temp\ccGIR5y3.s:811    .text.aes_encrypt:000000000000038e .L0 
C:\Users\stapi\AppData\Local\Temp\ccGIR5y3.s:814    .text.aes_encrypt:0000000000000396 .L0 
C:\Users\stapi\AppData\Local\Temp\ccGIR5y3.s:816    .text.aes_encrypt:000000000000039a .L0 
C:\Users\stapi\AppData\Local\Temp\ccGIR5y3.s:818    .text.aes_encrypt:000000000000039c .L0 
C:\Users\stapi\AppData\Local\Temp\ccGIR5y3.s:821    .text.aes_encrypt:00000000000003a0 .L0 
C:\Users\stapi\AppData\Local\Temp\ccGIR5y3.s:824    .text.aes_encrypt:00000000000003a8 .L0 
C:\Users\stapi\AppData\Local\Temp\ccGIR5y3.s:827    .text.aes_encrypt:00000000000003b0 .L0 
C:\Users\stapi\AppData\Local\Temp\ccGIR5y3.s:828    .text.aes_encrypt:00000000000003b0 .L0 
C:\Users\stapi\AppData\Local\Temp\ccGIR5y3.s:830    .text.aes_encrypt:00000000000003b4 .L0 
C:\Users\stapi\AppData\Local\Temp\ccGIR5y3.s:832    .text.aes_encrypt:00000000000003b8 .L0 
C:\Users\stapi\AppData\Local\Temp\ccGIR5y3.s:834    .text.aes_encrypt:00000000000003bc .L0 
C:\Users\stapi\AppData\Local\Temp\ccGIR5y3.s:836    .text.aes_encrypt:00000000000003c0 .L0 
C:\Users\stapi\AppData\Local\Temp\ccGIR5y3.s:838    .text.aes_encrypt:00000000000003c4 .L0 
C:\Users\stapi\AppData\Local\Temp\ccGIR5y3.s:840    .text.aes_encrypt:00000000000003c8 .L0 
C:\Users\stapi\AppData\Local\Temp\ccGIR5y3.s:842    .text.aes_encrypt:00000000000003cc .L0 
C:\Users\stapi\AppData\Local\Temp\ccGIR5y3.s:843    .text.aes_encrypt:00000000000003cc .L0 
C:\Users\stapi\AppData\Local\Temp\ccGIR5y3.s:844    .text.aes_encrypt:00000000000003cc .L0 
C:\Users\stapi\AppData\Local\Temp\ccGIR5y3.s:846    .text.aes_encrypt:00000000000003d0 .L0 
C:\Users\stapi\AppData\Local\Temp\ccGIR5y3.s:848    .text.aes_encrypt:00000000000003d4 .L0 
C:\Users\stapi\AppData\Local\Temp\ccGIR5y3.s:851    .text.aes_encrypt:00000000000003dc .L0 
C:\Users\stapi\AppData\Local\Temp\ccGIR5y3.s:853    .text.aes_encrypt:00000000000003de .L0 
C:\Users\stapi\AppData\Local\Temp\ccGIR5y3.s:855    .text.aes_encrypt:00000000000003e2 .L0 
C:\Users\stapi\AppData\Local\Temp\ccGIR5y3.s:858    .text.aes_encrypt:00000000000003e6 .L0 
C:\Users\stapi\AppData\Local\Temp\ccGIR5y3.s:861    .text.aes_encrypt:00000000000003ee .L0 
C:\Users\stapi\AppData\Local\Temp\ccGIR5y3.s:864    .text.aes_encrypt:00000000000003f6 .L0 
C:\Users\stapi\AppData\Local\Temp\ccGIR5y3.s:867    .text.aes_encrypt:00000000000003fe .L0 
C:\Users\stapi\AppData\Local\Temp\ccGIR5y3.s:869    .text.aes_encrypt:0000000000000402 .L0 
C:\Users\stapi\AppData\Local\Temp\ccGIR5y3.s:870    .text.aes_encrypt:0000000000000402 .L0 
C:\Users\stapi\AppData\Local\Temp\ccGIR5y3.s:871    .text.aes_encrypt:0000000000000402 .L0 
C:\Users\stapi\AppData\Local\Temp\ccGIR5y3.s:873    .text.aes_encrypt:0000000000000406 .L0 
C:\Users\stapi\AppData\Local\Temp\ccGIR5y3.s:875    .text.aes_encrypt:0000000000000408 .L0 
C:\Users\stapi\AppData\Local\Temp\ccGIR5y3.s:877    .text.aes_encrypt:000000000000040c .L0 
C:\Users\stapi\AppData\Local\Temp\ccGIR5y3.s:879    .text.aes_encrypt:0000000000000410 .L0 
C:\Users\stapi\AppData\Local\Temp\ccGIR5y3.s:881    .text.aes_encrypt:0000000000000414 .L0 
C:\Users\stapi\AppData\Local\Temp\ccGIR5y3.s:883    .text.aes_encrypt:0000000000000418 .L0 
C:\Users\stapi\AppData\Local\Temp\ccGIR5y3.s:885    .text.aes_encrypt:000000000000041c .L0 
C:\Users\stapi\AppData\Local\Temp\ccGIR5y3.s:889    .text.aes_encrypt:0000000000000422 .L0 
C:\Users\stapi\AppData\Local\Temp\ccGIR5y3.s:892    .text.aes_encrypt:000000000000042a .L0 
C:\Users\stapi\AppData\Local\Temp\ccGIR5y3.s:895    .text.aes_encrypt:0000000000000432 .L0 
C:\Users\stapi\AppData\Local\Temp\ccGIR5y3.s:898    .text.aes_encrypt:000000000000043a .L0 
C:\Users\stapi\AppData\Local\Temp\ccGIR5y3.s:903    .text.aes_encrypt:000000000000043e .L0 
C:\Users\stapi\AppData\Local\Temp\ccGIR5y3.s:904    .text.aes_encrypt:000000000000043e .L0 
C:\Users\stapi\AppData\Local\Temp\ccGIR5y3.s:905    .text.aes_encrypt:000000000000043e .L0 
C:\Users\stapi\AppData\Local\Temp\ccGIR5y3.s:907    .text.aes_encrypt:0000000000000448 .L0 
C:\Users\stapi\AppData\Local\Temp\ccGIR5y3.s:908    .text.aes_encrypt:0000000000000448 .L0 
C:\Users\stapi\AppData\Local\Temp\ccGIR5y3.s:909    .text.aes_encrypt:0000000000000448 .L0 
C:\Users\stapi\AppData\Local\Temp\ccGIR5y3.s:910    .text.aes_encrypt:0000000000000448 .L0 
C:\Users\stapi\AppData\Local\Temp\ccGIR5y3.s:911    .text.aes_encrypt:0000000000000448 .L0 
C:\Users\stapi\AppData\Local\Temp\ccGIR5y3.s:912    .text.aes_encrypt:0000000000000448 .L0 
C:\Users\stapi\AppData\Local\Temp\ccGIR5y3.s:913    .text.aes_encrypt:0000000000000448 .L0 
C:\Users\stapi\AppData\Local\Temp\ccGIR5y3.s:914    .text.aes_encrypt:0000000000000448 .L0 
C:\Users\stapi\AppData\Local\Temp\ccGIR5y3.s:915    .text.aes_encrypt:0000000000000448 .L0 
C:\Users\stapi\AppData\Local\Temp\ccGIR5y3.s:916    .text.aes_encrypt:0000000000000448 .L0 
C:\Users\stapi\AppData\Local\Temp\ccGIR5y3.s:917    .text.aes_encrypt:0000000000000448 .L0 
C:\Users\stapi\AppData\Local\Temp\ccGIR5y3.s:918    .text.aes_encrypt:0000000000000448 .L0 
C:\Users\stapi\AppData\Local\Temp\ccGIR5y3.s:919    .text.aes_encrypt:0000000000000448 .L0 
C:\Users\stapi\AppData\Local\Temp\ccGIR5y3.s:926    .text.aes_encrypt_deinit:0000000000000000 aes_encrypt_deinit
C:\Users\stapi\AppData\Local\Temp\ccGIR5y3.s:929    .text.aes_encrypt_deinit:0000000000000000 .L0 
C:\Users\stapi\AppData\Local\Temp\ccGIR5y3.s:931    .text.aes_encrypt_deinit:0000000000000000 .L0 
C:\Users\stapi\AppData\Local\Temp\ccGIR5y3.s:932    .text.aes_encrypt_deinit:0000000000000008 .L0 
C:\Users\stapi\AppData\Local\Temp\ccGIR5y3.s:933    .text.aes_encrypt_deinit:0000000000000008 .L0 
C:\Users\stapi\AppData\Local\Temp\ccGIR5y3.s:934    .text.aes_encrypt_deinit:0000000000000008 .L0 
C:\Users\stapi\AppData\Local\Temp\ccGIR5y3.s:936    .text.aes_encrypt_deinit:0000000000000008 .L0 
C:\Users\stapi\AppData\Local\Temp\ccGIR5y3.s:939    .text.aes_encrypt_deinit:000000000000000e .L0 
C:\Users\stapi\AppData\Local\Temp\ccGIR5y3.s:941    .text.aes_encrypt_deinit:0000000000000010 .L0 
C:\Users\stapi\AppData\Local\Temp\ccGIR5y3.s:944    .text.aes_encrypt_deinit:0000000000000018 .L0 
C:\Users\stapi\AppData\Local\Temp\ccGIR5y3.s:948    .text.aes_encrypt_deinit:0000000000000022 .L0 
C:\Users\stapi\AppData\Local\Temp\ccGIR5y3.s:949    .text.aes_encrypt_deinit:000000000000002a .L0 
C:\Users\stapi\AppData\Local\Temp\ccGIR5y3.s:950    .text.aes_encrypt_deinit:000000000000002a .L0 
C:\Users\stapi\AppData\Local\Temp\ccGIR5y3.s:951    .text.aes_encrypt_deinit:000000000000002a .L0 
C:\Users\stapi\AppData\Local\Temp\ccGIR5y3.s:952    .text.aes_encrypt_deinit:000000000000002a .L0 
C:\Users\stapi\AppData\Local\Temp\ccGIR5y3.s:84     .text.aes_encrypt_init:000000000000004a .L0 
C:\Users\stapi\AppData\Local\Temp\ccGIR5y3.s:922    .text.aes_encrypt:0000000000000448 .L0 
C:\Users\stapi\AppData\Local\Temp\ccGIR5y3.s:955    .text.aes_encrypt_deinit:000000000000002a .L0 
                     .debug_frame:0000000000000000 .L0 
C:\Users\stapi\AppData\Local\Temp\ccGIR5y3.s:62     .text.aes_encrypt_init:000000000000003a .L1
C:\Users\stapi\AppData\Local\Temp\ccGIR5y3.s:73     .text.aes_encrypt_init:0000000000000044 .L3
C:\Users\stapi\AppData\Local\Temp\ccGIR5y3.s:742    .text.aes_encrypt:0000000000000322 .L9
C:\Users\stapi\AppData\Local\Temp\ccGIR5y3.s:223    .text.aes_encrypt:00000000000000ae .L10
C:\Users\stapi\AppData\Local\Temp\ccGIR5y3.s:1767   .debug_abbrev:0000000000000000 .Ldebug_abbrev0
C:\Users\stapi\AppData\Local\Temp\ccGIR5y3.s:2747   .debug_str:000000000000018b .LASF25
C:\Users\stapi\AppData\Local\Temp\ccGIR5y3.s:2753   .debug_str:0000000000000298 .LASF26
C:\Users\stapi\AppData\Local\Temp\ccGIR5y3.s:2729   .debug_str:0000000000000096 .LASF27
C:\Users\stapi\AppData\Local\Temp\ccGIR5y3.s:2533   .debug_ranges:0000000000000000 .Ldebug_ranges0
C:\Users\stapi\AppData\Local\Temp\ccGIR5y3.s:2703   .debug_line:0000000000000000 .Ldebug_line0
C:\Users\stapi\AppData\Local\Temp\ccGIR5y3.s:2709   .debug_str:0000000000000010 .LASF2
C:\Users\stapi\AppData\Local\Temp\ccGIR5y3.s:2713   .debug_str:000000000000001c .LASF0
C:\Users\stapi\AppData\Local\Temp\ccGIR5y3.s:2763   .debug_str:0000000000000352 .LASF1
C:\Users\stapi\AppData\Local\Temp\ccGIR5y3.s:2707   .debug_str:0000000000000006 .LASF3
C:\Users\stapi\AppData\Local\Temp\ccGIR5y3.s:2723   .debug_str:0000000000000063 .LASF4
C:\Users\stapi\AppData\Local\Temp\ccGIR5y3.s:2751   .debug_str:000000000000028e .LASF5
C:\Users\stapi\AppData\Local\Temp\ccGIR5y3.s:2727   .debug_str:0000000000000083 .LASF6
C:\Users\stapi\AppData\Local\Temp\ccGIR5y3.s:2759   .debug_str:0000000000000344 .LASF7
C:\Users\stapi\AppData\Local\Temp\ccGIR5y3.s:2735   .debug_str:0000000000000149 .LASF8
C:\Users\stapi\AppData\Local\Temp\ccGIR5y3.s:2725   .debug_str:0000000000000071 .LASF9
C:\Users\stapi\AppData\Local\Temp\ccGIR5y3.s:2743   .debug_str:0000000000000169 .LASF10
C:\Users\stapi\AppData\Local\Temp\ccGIR5y3.s:2721   .debug_str:000000000000004c .LASF11
C:\Users\stapi\AppData\Local\Temp\ccGIR5y3.s:2737   .debug_str:0000000000000154 .LASF12
C:\Users\stapi\AppData\Local\Temp\ccGIR5y3.s:2739   .debug_str:0000000000000159 .LASF13
C:\Users\stapi\AppData\Local\Temp\ccGIR5y3.s:2757   .debug_str:000000000000033b .LASF14
C:\Users\stapi\AppData\Local\Temp\ccGIR5y3.s:2765   .debug_str:000000000000035e .LASF15
C:\Users\stapi\AppData\Local\Temp\ccGIR5y3.s:2717   .debug_str:000000000000002f .LASF28
C:\Users\stapi\AppData\Local\Temp\ccGIR5y3.s:927    .text.aes_encrypt_deinit:0000000000000000 .LFB75
C:\Users\stapi\AppData\Local\Temp\ccGIR5y3.s:953    .text.aes_encrypt_deinit:000000000000002a .LFE75
C:\Users\stapi\AppData\Local\Temp\ccGIR5y3.s:2256   .debug_loc:0000000000000000 .LLST20
C:\Users\stapi\AppData\Local\Temp\ccGIR5y3.s:942    .text.aes_encrypt_deinit:0000000000000018 .LVL45
C:\Users\stapi\AppData\Local\Temp\ccGIR5y3.s:946    .text.aes_encrypt_deinit:0000000000000022 .LVL46
C:\Users\stapi\AppData\Local\Temp\ccGIR5y3.s:2755   .debug_str:000000000000032f .LASF18
C:\Users\stapi\AppData\Local\Temp\ccGIR5y3.s:89     .text.aes_encrypt:0000000000000000 .LFB74
C:\Users\stapi\AppData\Local\Temp\ccGIR5y3.s:920    .text.aes_encrypt:0000000000000448 .LFE74
C:\Users\stapi\AppData\Local\Temp\ccGIR5y3.s:2267   .debug_loc:000000000000001e .LLST4
C:\Users\stapi\AppData\Local\Temp\ccGIR5y3.s:2705   .debug_str:0000000000000000 .LASF16
C:\Users\stapi\AppData\Local\Temp\ccGIR5y3.s:2281   .debug_loc:000000000000003f .LLST5
C:\Users\stapi\AppData\Local\Temp\ccGIR5y3.s:2715   .debug_str:0000000000000029 .LASF17
C:\Users\stapi\AppData\Local\Temp\ccGIR5y3.s:2295   .debug_loc:0000000000000060 .LLST6
C:\Users\stapi\AppData\Local\Temp\ccGIR5y3.s:109    .text.aes_encrypt:0000000000000008 .LBB100
C:\Users\stapi\AppData\Local\Temp\ccGIR5y3.s:902    .text.aes_encrypt:000000000000043e .LBE100
C:\Users\stapi\AppData\Local\Temp\ccGIR5y3.s:2309   .debug_loc:0000000000000081 .LLST7
C:\Users\stapi\AppData\Local\Temp\ccGIR5y3.s:2316   .debug_loc:0000000000000094 .LLST8
C:\Users\stapi\AppData\Local\Temp\ccGIR5y3.s:2330   .debug_loc:00000000000000b5 .LLST9
C:\Users\stapi\AppData\Local\Temp\ccGIR5y3.s:2346   .debug_loc:00000000000000da .LLST10
C:\Users\stapi\AppData\Local\Temp\ccGIR5y3.s:2367   .debug_loc:0000000000000110 .LLST11
C:\Users\stapi\AppData\Local\Temp\ccGIR5y3.s:2382   .debug_loc:0000000000000139 .LLST12
C:\Users\stapi\AppData\Local\Temp\ccGIR5y3.s:2397   .debug_loc:0000000000000162 .LLST13
C:\Users\stapi\AppData\Local\Temp\ccGIR5y3.s:2412   .debug_loc:000000000000018b .LLST14
C:\Users\stapi\AppData\Local\Temp\ccGIR5y3.s:2427   .debug_loc:00000000000001b4 .LLST15
C:\Users\stapi\AppData\Local\Temp\ccGIR5y3.s:2434   .debug_loc:00000000000001c7 .LLST16
C:\Users\stapi\AppData\Local\Temp\ccGIR5y3.s:2441   .debug_loc:00000000000001da .LLST17
C:\Users\stapi\AppData\Local\Temp\ccGIR5y3.s:2448   .debug_loc:00000000000001ed .LLST18
C:\Users\stapi\AppData\Local\Temp\ccGIR5y3.s:2455   .debug_loc:0000000000000200 .LLST19
C:\Users\stapi\AppData\Local\Temp\ccGIR5y3.s:166    .text.aes_encrypt:000000000000005e .LBB102
C:\Users\stapi\AppData\Local\Temp\ccGIR5y3.s:178    .text.aes_encrypt:0000000000000066 .LBB106
C:\Users\stapi\AppData\Local\Temp\ccGIR5y3.s:226    .text.aes_encrypt:00000000000000ae .LBB110
C:\Users\stapi\AppData\Local\Temp\ccGIR5y3.s:291    .text.aes_encrypt:0000000000000102 .LBB118
C:\Users\stapi\AppData\Local\Temp\ccGIR5y3.s:296    .text.aes_encrypt:0000000000000102 .LBB121
C:\Users\stapi\AppData\Local\Temp\ccGIR5y3.s:301    .text.aes_encrypt:0000000000000102 .LBB124
C:\Users\stapi\AppData\Local\Temp\ccGIR5y3.s:349    .text.aes_encrypt:0000000000000150 .LBB130
C:\Users\stapi\AppData\Local\Temp\ccGIR5y3.s:354    .text.aes_encrypt:0000000000000150 .LBB134
C:\Users\stapi\AppData\Local\Temp\ccGIR5y3.s:359    .text.aes_encrypt:0000000000000150 .LBB138
C:\Users\stapi\AppData\Local\Temp\ccGIR5y3.s:437    .text.aes_encrypt:00000000000001b6 .LBB148
C:\Users\stapi\AppData\Local\Temp\ccGIR5y3.s:442    .text.aes_encrypt:00000000000001b6 .LBB152
C:\Users\stapi\AppData\Local\Temp\ccGIR5y3.s:447    .text.aes_encrypt:00000000000001b6 .LBB156
C:\Users\stapi\AppData\Local\Temp\ccGIR5y3.s:574    .text.aes_encrypt:00000000000002ac .LBB166
C:\Users\stapi\AppData\Local\Temp\ccGIR5y3.s:579    .text.aes_encrypt:00000000000002ac .LBB169
C:\Users\stapi\AppData\Local\Temp\ccGIR5y3.s:584    .text.aes_encrypt:00000000000002ac .LBB172
C:\Users\stapi\AppData\Local\Temp\ccGIR5y3.s:616    .text.aes_encrypt:00000000000002c8 .LBB178
C:\Users\stapi\AppData\Local\Temp\ccGIR5y3.s:621    .text.aes_encrypt:00000000000002c8 .LBB181
C:\Users\stapi\AppData\Local\Temp\ccGIR5y3.s:626    .text.aes_encrypt:00000000000002c8 .LBB184
C:\Users\stapi\AppData\Local\Temp\ccGIR5y3.s:645    .text.aes_encrypt:00000000000002e0 .LBB188
C:\Users\stapi\AppData\Local\Temp\ccGIR5y3.s:651    .text.aes_encrypt:00000000000002e4 .LBB191
C:\Users\stapi\AppData\Local\Temp\ccGIR5y3.s:665    .text.aes_encrypt:00000000000002f4 .LBB195
C:\Users\stapi\AppData\Local\Temp\ccGIR5y3.s:673    .text.aes_encrypt:0000000000000300 .LBB198
C:\Users\stapi\AppData\Local\Temp\ccGIR5y3.s:687    .text.aes_encrypt:000000000000030c .LBB202
C:\Users\stapi\AppData\Local\Temp\ccGIR5y3.s:692    .text.aes_encrypt:0000000000000310 .LBB205
C:\Users\stapi\AppData\Local\Temp\ccGIR5y3.s:2731   .debug_str:0000000000000128 .LASF19
C:\Users\stapi\AppData\Local\Temp\ccGIR5y3.s:14     .text.aes_encrypt_init:0000000000000000 .LFB73
C:\Users\stapi\AppData\Local\Temp\ccGIR5y3.s:82     .text.aes_encrypt_init:000000000000004a .LFE73
C:\Users\stapi\AppData\Local\Temp\ccGIR5y3.s:2472   .debug_loc:000000000000022b .LLST0
C:\Users\stapi\AppData\Local\Temp\ccGIR5y3.s:2483   .debug_loc:0000000000000249 .LLST1
C:\Users\stapi\AppData\Local\Temp\ccGIR5y3.s:2494   .debug_loc:0000000000000267 .LLST2
C:\Users\stapi\AppData\Local\Temp\ccGIR5y3.s:2505   .debug_loc:0000000000000285 .LLST3
C:\Users\stapi\AppData\Local\Temp\ccGIR5y3.s:38     .text.aes_encrypt_init:0000000000000018 .LVL2
C:\Users\stapi\AppData\Local\Temp\ccGIR5y3.s:49     .text.aes_encrypt_init:000000000000002a .LVL4
C:\Users\stapi\AppData\Local\Temp\ccGIR5y3.s:57     .text.aes_encrypt_init:0000000000000038 .LVL6
C:\Users\stapi\AppData\Local\Temp\ccGIR5y3.s:2733   .debug_str:0000000000000139 .LASF29
C:\Users\stapi\AppData\Local\Temp\ccGIR5y3.s:2711   .debug_str:0000000000000017 .LASF30
C:\Users\stapi\AppData\Local\Temp\ccGIR5y3.s:2761   .debug_str:000000000000034d .LASF20
C:\Users\stapi\AppData\Local\Temp\ccGIR5y3.s:2749   .debug_str:0000000000000284 .LASF21
C:\Users\stapi\AppData\Local\Temp\ccGIR5y3.s:2741   .debug_str:0000000000000161 .LASF22
C:\Users\stapi\AppData\Local\Temp\ccGIR5y3.s:2719   .debug_str:0000000000000042 .LASF23
C:\Users\stapi\AppData\Local\Temp\ccGIR5y3.s:2745   .debug_str:0000000000000177 .LASF24
C:\Users\stapi\AppData\Local\Temp\ccGIR5y3.s:930    .text.aes_encrypt_deinit:0000000000000000 .LVL44
C:\Users\stapi\AppData\Local\Temp\ccGIR5y3.s:92     .text.aes_encrypt:0000000000000000 .LVL9
C:\Users\stapi\AppData\Local\Temp\ccGIR5y3.s:750    .text.aes_encrypt:0000000000000328 .LVL37
C:\Users\stapi\AppData\Local\Temp\ccGIR5y3.s:205    .text.aes_encrypt:0000000000000096 .LVL13
C:\Users\stapi\AppData\Local\Temp\ccGIR5y3.s:107    .text.aes_encrypt:0000000000000008 .LVL10
C:\Users\stapi\AppData\Local\Temp\ccGIR5y3.s:900    .text.aes_encrypt:000000000000043e .LVL43
C:\Users\stapi\AppData\Local\Temp\ccGIR5y3.s:779    .text.aes_encrypt:000000000000035c .LVL39
C:\Users\stapi\AppData\Local\Temp\ccGIR5y3.s:221    .text.aes_encrypt:00000000000000ae .LVL15
C:\Users\stapi\AppData\Local\Temp\ccGIR5y3.s:251    .text.aes_encrypt:00000000000000c4 .LVL17
C:\Users\stapi\AppData\Local\Temp\ccGIR5y3.s:511    .text.aes_encrypt:00000000000001f4 .LVL25
C:\Users\stapi\AppData\Local\Temp\ccGIR5y3.s:747    .text.aes_encrypt:0000000000000326 .LVL36
C:\Users\stapi\AppData\Local\Temp\ccGIR5y3.s:146    .text.aes_encrypt:000000000000003e .LVL11
C:\Users\stapi\AppData\Local\Temp\ccGIR5y3.s:426    .text.aes_encrypt:00000000000001ae .LVL23
C:\Users\stapi\AppData\Local\Temp\ccGIR5y3.s:614    .text.aes_encrypt:00000000000002c8 .LVL31
C:\Users\stapi\AppData\Local\Temp\ccGIR5y3.s:741    .text.aes_encrypt:0000000000000322 .LVL35
C:\Users\stapi\AppData\Local\Temp\ccGIR5y3.s:775    .text.aes_encrypt:0000000000000354 .LVL38
C:\Users\stapi\AppData\Local\Temp\ccGIR5y3.s:186    .text.aes_encrypt:000000000000006a .LVL12
C:\Users\stapi\AppData\Local\Temp\ccGIR5y3.s:383    .text.aes_encrypt:0000000000000178 .LVL21
C:\Users\stapi\AppData\Local\Temp\ccGIR5y3.s:699    .text.aes_encrypt:0000000000000318 .LVL32
C:\Users\stapi\AppData\Local\Temp\ccGIR5y3.s:819    .text.aes_encrypt:00000000000003a0 .LVL40
C:\Users\stapi\AppData\Local\Temp\ccGIR5y3.s:208    .text.aes_encrypt:000000000000009a .LVL14
C:\Users\stapi\AppData\Local\Temp\ccGIR5y3.s:370    .text.aes_encrypt:0000000000000164 .LVL20
C:\Users\stapi\AppData\Local\Temp\ccGIR5y3.s:718    .text.aes_encrypt:000000000000031c .LVL33
C:\Users\stapi\AppData\Local\Temp\ccGIR5y3.s:856    .text.aes_encrypt:00000000000003e6 .LVL41
C:\Users\stapi\AppData\Local\Temp\ccGIR5y3.s:404    .text.aes_encrypt:0000000000000192 .LVL22
C:\Users\stapi\AppData\Local\Temp\ccGIR5y3.s:737    .text.aes_encrypt:0000000000000320 .LVL34
C:\Users\stapi\AppData\Local\Temp\ccGIR5y3.s:887    .text.aes_encrypt:0000000000000422 .LVL42
C:\Users\stapi\AppData\Local\Temp\ccGIR5y3.s:289    .text.aes_encrypt:0000000000000102 .LVL18
C:\Users\stapi\AppData\Local\Temp\ccGIR5y3.s:544    .text.aes_encrypt:000000000000025e .LVL26
C:\Users\stapi\AppData\Local\Temp\ccGIR5y3.s:347    .text.aes_encrypt:0000000000000150 .LVL19
C:\Users\stapi\AppData\Local\Temp\ccGIR5y3.s:546    .text.aes_encrypt:0000000000000262 .LVL27
C:\Users\stapi\AppData\Local\Temp\ccGIR5y3.s:435    .text.aes_encrypt:00000000000001b6 .LVL24
C:\Users\stapi\AppData\Local\Temp\ccGIR5y3.s:557    .text.aes_encrypt:000000000000027e .LVL29
C:\Users\stapi\AppData\Local\Temp\ccGIR5y3.s:553    .text.aes_encrypt:0000000000000276 .LVL28
C:\Users\stapi\AppData\Local\Temp\ccGIR5y3.s:248    .text.aes_encrypt:00000000000000c0 .LVL16
C:\Users\stapi\AppData\Local\Temp\ccGIR5y3.s:18     .text.aes_encrypt_init:0000000000000000 .LVL0
C:\Users\stapi\AppData\Local\Temp\ccGIR5y3.s:33     .text.aes_encrypt_init:000000000000000e .LVL1
C:\Users\stapi\AppData\Local\Temp\ccGIR5y3.s:40     .text.aes_encrypt_init:000000000000001a .LVL3
C:\Users\stapi\AppData\Local\Temp\ccGIR5y3.s:61     .text.aes_encrypt_init:000000000000003a .LVL7
C:\Users\stapi\AppData\Local\Temp\ccGIR5y3.s:72     .text.aes_encrypt_init:0000000000000044 .LVL8
C:\Users\stapi\AppData\Local\Temp\ccGIR5y3.s:55     .text.aes_encrypt_init:0000000000000030 .LVL5
C:\Users\stapi\AppData\Local\Temp\ccGIR5y3.s:963    .debug_info:0000000000000000 .Ldebug_info0
C:\Users\stapi\AppData\Local\Temp\ccGIR5y3.s:172    .text.aes_encrypt:0000000000000060 .LBE102
C:\Users\stapi\AppData\Local\Temp\ccGIR5y3.s:236    .text.aes_encrypt:00000000000000ae .LBB114
C:\Users\stapi\AppData\Local\Temp\ccGIR5y3.s:240    .text.aes_encrypt:00000000000000ae .LBE114
C:\Users\stapi\AppData\Local\Temp\ccGIR5y3.s:256    .text.aes_encrypt:00000000000000d0 .LBB115
C:\Users\stapi\AppData\Local\Temp\ccGIR5y3.s:262    .text.aes_encrypt:00000000000000d6 .LBE115
C:\Users\stapi\AppData\Local\Temp\ccGIR5y3.s:183    .text.aes_encrypt:0000000000000068 .LBE106
C:\Users\stapi\AppData\Local\Temp\ccGIR5y3.s:231    .text.aes_encrypt:00000000000000ae .LBB113
C:\Users\stapi\AppData\Local\Temp\ccGIR5y3.s:235    .text.aes_encrypt:00000000000000ae .LBE113
C:\Users\stapi\AppData\Local\Temp\ccGIR5y3.s:280    .text.aes_encrypt:00000000000000f8 .LBB117
C:\Users\stapi\AppData\Local\Temp\ccGIR5y3.s:286    .text.aes_encrypt:00000000000000fe .LBE117
C:\Users\stapi\AppData\Local\Temp\ccGIR5y3.s:230    .text.aes_encrypt:00000000000000ae .LBE110
C:\Users\stapi\AppData\Local\Temp\ccGIR5y3.s:268    .text.aes_encrypt:00000000000000e4 .LBB116
C:\Users\stapi\AppData\Local\Temp\ccGIR5y3.s:274    .text.aes_encrypt:00000000000000ea .LBE116
C:\Users\stapi\AppData\Local\Temp\ccGIR5y3.s:295    .text.aes_encrypt:0000000000000102 .LBE118
C:\Users\stapi\AppData\Local\Temp\ccGIR5y3.s:326    .text.aes_encrypt:0000000000000132 .LBB128
C:\Users\stapi\AppData\Local\Temp\ccGIR5y3.s:332    .text.aes_encrypt:0000000000000138 .LBE128
C:\Users\stapi\AppData\Local\Temp\ccGIR5y3.s:300    .text.aes_encrypt:0000000000000102 .LBE121
C:\Users\stapi\AppData\Local\Temp\ccGIR5y3.s:338    .text.aes_encrypt:0000000000000146 .LBB129
C:\Users\stapi\AppData\Local\Temp\ccGIR5y3.s:344    .text.aes_encrypt:000000000000014c .LBE129
C:\Users\stapi\AppData\Local\Temp\ccGIR5y3.s:305    .text.aes_encrypt:0000000000000102 .LBE124
C:\Users\stapi\AppData\Local\Temp\ccGIR5y3.s:314    .text.aes_encrypt:000000000000011e .LBB127
C:\Users\stapi\AppData\Local\Temp\ccGIR5y3.s:320    .text.aes_encrypt:0000000000000124 .LBE127
C:\Users\stapi\AppData\Local\Temp\ccGIR5y3.s:353    .text.aes_encrypt:0000000000000150 .LBE130
C:\Users\stapi\AppData\Local\Temp\ccGIR5y3.s:396    .text.aes_encrypt:000000000000018e .LBB144
C:\Users\stapi\AppData\Local\Temp\ccGIR5y3.s:401    .text.aes_encrypt:0000000000000190 .LBE144
C:\Users\stapi\AppData\Local\Temp\ccGIR5y3.s:406    .text.aes_encrypt:0000000000000196 .LBB145
C:\Users\stapi\AppData\Local\Temp\ccGIR5y3.s:411    .text.aes_encrypt:000000000000019a .LBE145
C:\Users\stapi\AppData\Local\Temp\ccGIR5y3.s:358    .text.aes_encrypt:0000000000000150 .LBE134
C:\Users\stapi\AppData\Local\Temp\ccGIR5y3.s:417    .text.aes_encrypt:00000000000001a8 .LBB146
C:\Users\stapi\AppData\Local\Temp\ccGIR5y3.s:422    .text.aes_encrypt:00000000000001aa .LBE146
C:\Users\stapi\AppData\Local\Temp\ccGIR5y3.s:427    .text.aes_encrypt:00000000000001ae .LBB147
C:\Users\stapi\AppData\Local\Temp\ccGIR5y3.s:432    .text.aes_encrypt:00000000000001b2 .LBE147
C:\Users\stapi\AppData\Local\Temp\ccGIR5y3.s:363    .text.aes_encrypt:0000000000000150 .LBE138
C:\Users\stapi\AppData\Local\Temp\ccGIR5y3.s:375    .text.aes_encrypt:0000000000000174 .LBB142
C:\Users\stapi\AppData\Local\Temp\ccGIR5y3.s:380    .text.aes_encrypt:0000000000000176 .LBE142
C:\Users\stapi\AppData\Local\Temp\ccGIR5y3.s:385    .text.aes_encrypt:000000000000017c .LBB143
C:\Users\stapi\AppData\Local\Temp\ccGIR5y3.s:390    .text.aes_encrypt:0000000000000180 .LBE143
C:\Users\stapi\AppData\Local\Temp\ccGIR5y3.s:441    .text.aes_encrypt:00000000000001b6 .LBE148
C:\Users\stapi\AppData\Local\Temp\ccGIR5y3.s:463    .text.aes_encrypt:00000000000001c6 .LBB161
C:\Users\stapi\AppData\Local\Temp\ccGIR5y3.s:467    .text.aes_encrypt:00000000000001c8 .LBE161
C:\Users\stapi\AppData\Local\Temp\ccGIR5y3.s:493    .text.aes_encrypt:00000000000001e6 .LBB164
C:\Users\stapi\AppData\Local\Temp\ccGIR5y3.s:498    .text.aes_encrypt:00000000000001ea .LBE164
C:\Users\stapi\AppData\Local\Temp\ccGIR5y3.s:446    .text.aes_encrypt:00000000000001b6 .LBE152
C:\Users\stapi\AppData\Local\Temp\ccGIR5y3.s:472    .text.aes_encrypt:00000000000001ce .LBB162
C:\Users\stapi\AppData\Local\Temp\ccGIR5y3.s:477    .text.aes_encrypt:00000000000001d0 .LBE162
C:\Users\stapi\AppData\Local\Temp\ccGIR5y3.s:503    .text.aes_encrypt:00000000000001ee .LBB165
C:\Users\stapi\AppData\Local\Temp\ccGIR5y3.s:508    .text.aes_encrypt:00000000000001f2 .LBE165
C:\Users\stapi\AppData\Local\Temp\ccGIR5y3.s:451    .text.aes_encrypt:00000000000001b6 .LBE156
C:\Users\stapi\AppData\Local\Temp\ccGIR5y3.s:457    .text.aes_encrypt:00000000000001c2 .LBB160
C:\Users\stapi\AppData\Local\Temp\ccGIR5y3.s:462    .text.aes_encrypt:00000000000001c6 .LBE160
C:\Users\stapi\AppData\Local\Temp\ccGIR5y3.s:480    .text.aes_encrypt:00000000000001d4 .LBB163
C:\Users\stapi\AppData\Local\Temp\ccGIR5y3.s:485    .text.aes_encrypt:00000000000001d8 .LBE163
C:\Users\stapi\AppData\Local\Temp\ccGIR5y3.s:578    .text.aes_encrypt:00000000000002ac .LBE166
C:\Users\stapi\AppData\Local\Temp\ccGIR5y3.s:591    .text.aes_encrypt:00000000000002b0 .LBB175
C:\Users\stapi\AppData\Local\Temp\ccGIR5y3.s:596    .text.aes_encrypt:00000000000002b4 .LBE175
C:\Users\stapi\AppData\Local\Temp\ccGIR5y3.s:583    .text.aes_encrypt:00000000000002ac .LBE169
C:\Users\stapi\AppData\Local\Temp\ccGIR5y3.s:606    .text.aes_encrypt:00000000000002c2 .LBB177
C:\Users\stapi\AppData\Local\Temp\ccGIR5y3.s:611    .text.aes_encrypt:00000000000002c6 .LBE177
C:\Users\stapi\AppData\Local\Temp\ccGIR5y3.s:588    .text.aes_encrypt:00000000000002ac .LBE172
C:\Users\stapi\AppData\Local\Temp\ccGIR5y3.s:597    .text.aes_encrypt:00000000000002b4 .LBB176
C:\Users\stapi\AppData\Local\Temp\ccGIR5y3.s:601    .text.aes_encrypt:00000000000002b8 .LBE176
C:\Users\stapi\AppData\Local\Temp\ccGIR5y3.s:620    .text.aes_encrypt:00000000000002c8 .LBE178
C:\Users\stapi\AppData\Local\Temp\ccGIR5y3.s:659    .text.aes_encrypt:00000000000002f0 .LBB194
C:\Users\stapi\AppData\Local\Temp\ccGIR5y3.s:664    .text.aes_encrypt:00000000000002f4 .LBE194
C:\Users\stapi\AppData\Local\Temp\ccGIR5y3.s:625    .text.aes_encrypt:00000000000002c8 .LBE181
C:\Users\stapi\AppData\Local\Temp\ccGIR5y3.s:681    .text.aes_encrypt:0000000000000308 .LBB201
C:\Users\stapi\AppData\Local\Temp\ccGIR5y3.s:686    .text.aes_encrypt:000000000000030c .LBE201
C:\Users\stapi\AppData\Local\Temp\ccGIR5y3.s:630    .text.aes_encrypt:00000000000002c8 .LBE184
C:\Users\stapi\AppData\Local\Temp\ccGIR5y3.s:635    .text.aes_encrypt:00000000000002d2 .LBB187
C:\Users\stapi\AppData\Local\Temp\ccGIR5y3.s:640    .text.aes_encrypt:00000000000002d6 .LBE187
C:\Users\stapi\AppData\Local\Temp\ccGIR5y3.s:650    .text.aes_encrypt:00000000000002e4 .LBE188
C:\Users\stapi\AppData\Local\Temp\ccGIR5y3.s:711    .text.aes_encrypt:0000000000000318 .LBB210
C:\Users\stapi\AppData\Local\Temp\ccGIR5y3.s:715    .text.aes_encrypt:0000000000000318 .LBE210
C:\Users\stapi\AppData\Local\Temp\ccGIR5y3.s:655    .text.aes_encrypt:00000000000002e8 .LBE191
C:\Users\stapi\AppData\Local\Temp\ccGIR5y3.s:730    .text.aes_encrypt:000000000000031c .LBB213
C:\Users\stapi\AppData\Local\Temp\ccGIR5y3.s:734    .text.aes_encrypt:000000000000031c .LBE213
C:\Users\stapi\AppData\Local\Temp\ccGIR5y3.s:669    .text.aes_encrypt:00000000000002f8 .LBE195
C:\Users\stapi\AppData\Local\Temp\ccGIR5y3.s:701    .text.aes_encrypt:0000000000000318 .LBB208
C:\Users\stapi\AppData\Local\Temp\ccGIR5y3.s:705    .text.aes_encrypt:0000000000000318 .LBE208
C:\Users\stapi\AppData\Local\Temp\ccGIR5y3.s:678    .text.aes_encrypt:0000000000000304 .LBE198
C:\Users\stapi\AppData\Local\Temp\ccGIR5y3.s:720    .text.aes_encrypt:000000000000031c .LBB211
C:\Users\stapi\AppData\Local\Temp\ccGIR5y3.s:724    .text.aes_encrypt:000000000000031c .LBE211
C:\Users\stapi\AppData\Local\Temp\ccGIR5y3.s:691    .text.aes_encrypt:0000000000000310 .LBE202
C:\Users\stapi\AppData\Local\Temp\ccGIR5y3.s:706    .text.aes_encrypt:0000000000000318 .LBB209
C:\Users\stapi\AppData\Local\Temp\ccGIR5y3.s:710    .text.aes_encrypt:0000000000000318 .LBE209
C:\Users\stapi\AppData\Local\Temp\ccGIR5y3.s:696    .text.aes_encrypt:0000000000000314 .LBE205
C:\Users\stapi\AppData\Local\Temp\ccGIR5y3.s:725    .text.aes_encrypt:000000000000031c .LBB212
C:\Users\stapi\AppData\Local\Temp\ccGIR5y3.s:729    .text.aes_encrypt:000000000000031c .LBE212

UNDEFINED SYMBOLS
__riscv_save_3
os_malloc
rijndaelKeySetupEnc
os_free
__riscv_restore_3
__riscv_save_11
Te0
__riscv_restore_11
__riscv_save_1
os_memset
__riscv_restore_1
