   1              		.file	"aes-omac1.c"
   2              		.option nopic
   3              		.attribute arch, "rv32i2p0_m2p0_a2p0_f2p0_c2p0_b_p0p94"
   4              		.attribute unaligned_access, 0
   5              		.attribute stack_align, 16
   6              		.text
   7              	.Ltext0:
   8              		.cfi_sections	.debug_frame
   9              		.section	.text.gf_mulx,"ax",@progbits
  10              		.align	1
  12              	gf_mulx:
  13              	.LFB71:
  14              		.file 1 "C:/Users/stapi/OneDrive/Desktop/GD32VW553/V1_MQTT_OK/GD32VW55X_Wifi_BLE_SDK/GD32VW55x_REL
   1:C:/Users/stapi/OneDrive/Desktop/GD32VW553/V1_MQTT_OK/GD32VW55X_Wifi_BLE_SDK/GD32VW55x_RELEASE_V1.0.2/MSDK/wpa_supplicant/src/crypto\aes-omac1.c **** /*
   2:C:/Users/stapi/OneDrive/Desktop/GD32VW553/V1_MQTT_OK/GD32VW55X_Wifi_BLE_SDK/GD32VW55x_RELEASE_V1.0.2/MSDK/wpa_supplicant/src/crypto\aes-omac1.c ****  * One-key CBC MAC (OMAC1) hash with AES
   3:C:/Users/stapi/OneDrive/Desktop/GD32VW553/V1_MQTT_OK/GD32VW55X_Wifi_BLE_SDK/GD32VW55x_RELEASE_V1.0.2/MSDK/wpa_supplicant/src/crypto\aes-omac1.c ****  *
   4:C:/Users/stapi/OneDrive/Desktop/GD32VW553/V1_MQTT_OK/GD32VW55X_Wifi_BLE_SDK/GD32VW55x_RELEASE_V1.0.2/MSDK/wpa_supplicant/src/crypto\aes-omac1.c ****  * Copyright (c) 2003-2007, Jouni Malinen <j@w1.fi>
   5:C:/Users/stapi/OneDrive/Desktop/GD32VW553/V1_MQTT_OK/GD32VW55X_Wifi_BLE_SDK/GD32VW55x_RELEASE_V1.0.2/MSDK/wpa_supplicant/src/crypto\aes-omac1.c ****  *
   6:C:/Users/stapi/OneDrive/Desktop/GD32VW553/V1_MQTT_OK/GD32VW55X_Wifi_BLE_SDK/GD32VW55x_RELEASE_V1.0.2/MSDK/wpa_supplicant/src/crypto\aes-omac1.c ****  * This software may be distributed under the terms of the BSD license.
   7:C:/Users/stapi/OneDrive/Desktop/GD32VW553/V1_MQTT_OK/GD32VW55X_Wifi_BLE_SDK/GD32VW55x_RELEASE_V1.0.2/MSDK/wpa_supplicant/src/crypto\aes-omac1.c ****  * See README for more details.
   8:C:/Users/stapi/OneDrive/Desktop/GD32VW553/V1_MQTT_OK/GD32VW55X_Wifi_BLE_SDK/GD32VW55x_RELEASE_V1.0.2/MSDK/wpa_supplicant/src/crypto\aes-omac1.c ****  */
   9:C:/Users/stapi/OneDrive/Desktop/GD32VW553/V1_MQTT_OK/GD32VW55X_Wifi_BLE_SDK/GD32VW55x_RELEASE_V1.0.2/MSDK/wpa_supplicant/src/crypto\aes-omac1.c **** 
  10:C:/Users/stapi/OneDrive/Desktop/GD32VW553/V1_MQTT_OK/GD32VW55X_Wifi_BLE_SDK/GD32VW55x_RELEASE_V1.0.2/MSDK/wpa_supplicant/src/crypto\aes-omac1.c **** #include "includes.h"
  11:C:/Users/stapi/OneDrive/Desktop/GD32VW553/V1_MQTT_OK/GD32VW55X_Wifi_BLE_SDK/GD32VW55x_RELEASE_V1.0.2/MSDK/wpa_supplicant/src/crypto\aes-omac1.c **** 
  12:C:/Users/stapi/OneDrive/Desktop/GD32VW553/V1_MQTT_OK/GD32VW55X_Wifi_BLE_SDK/GD32VW55x_RELEASE_V1.0.2/MSDK/wpa_supplicant/src/crypto\aes-omac1.c **** #include "common.h"
  13:C:/Users/stapi/OneDrive/Desktop/GD32VW553/V1_MQTT_OK/GD32VW55X_Wifi_BLE_SDK/GD32VW55x_RELEASE_V1.0.2/MSDK/wpa_supplicant/src/crypto\aes-omac1.c **** #include "aes.h"
  14:C:/Users/stapi/OneDrive/Desktop/GD32VW553/V1_MQTT_OK/GD32VW55X_Wifi_BLE_SDK/GD32VW55x_RELEASE_V1.0.2/MSDK/wpa_supplicant/src/crypto\aes-omac1.c **** #include "aes_wrap.h"
  15:C:/Users/stapi/OneDrive/Desktop/GD32VW553/V1_MQTT_OK/GD32VW55X_Wifi_BLE_SDK/GD32VW55x_RELEASE_V1.0.2/MSDK/wpa_supplicant/src/crypto\aes-omac1.c **** 
  16:C:/Users/stapi/OneDrive/Desktop/GD32VW553/V1_MQTT_OK/GD32VW55X_Wifi_BLE_SDK/GD32VW55x_RELEASE_V1.0.2/MSDK/wpa_supplicant/src/crypto\aes-omac1.c **** static void gf_mulx(u8 *pad)
  17:C:/Users/stapi/OneDrive/Desktop/GD32VW553/V1_MQTT_OK/GD32VW55X_Wifi_BLE_SDK/GD32VW55x_RELEASE_V1.0.2/MSDK/wpa_supplicant/src/crypto\aes-omac1.c **** {
  15              		.loc 1 17 1
  16              		.cfi_startproc
  17              	.LVL0:
  18:C:/Users/stapi/OneDrive/Desktop/GD32VW553/V1_MQTT_OK/GD32VW55X_Wifi_BLE_SDK/GD32VW55x_RELEASE_V1.0.2/MSDK/wpa_supplicant/src/crypto\aes-omac1.c **** 	int i, carry;
  18              		.loc 1 18 2
  19:C:/Users/stapi/OneDrive/Desktop/GD32VW553/V1_MQTT_OK/GD32VW55X_Wifi_BLE_SDK/GD32VW55x_RELEASE_V1.0.2/MSDK/wpa_supplicant/src/crypto\aes-omac1.c **** 
  20:C:/Users/stapi/OneDrive/Desktop/GD32VW553/V1_MQTT_OK/GD32VW55X_Wifi_BLE_SDK/GD32VW55x_RELEASE_V1.0.2/MSDK/wpa_supplicant/src/crypto\aes-omac1.c **** 	carry = pad[0] & 0x80;
  19              		.loc 1 20 2
  20              		.loc 1 20 13 is_stmt 0
  21 0000 83460500 		lbu	a3,0(a0)
  22              	.LVL1:
  21:C:/Users/stapi/OneDrive/Desktop/GD32VW553/V1_MQTT_OK/GD32VW55X_Wifi_BLE_SDK/GD32VW55x_RELEASE_V1.0.2/MSDK/wpa_supplicant/src/crypto\aes-omac1.c **** 	for (i = 0; i < AES_BLOCK_SIZE - 1; i++)
  23              		.loc 1 21 2 is_stmt 1
  24              		.loc 1 21 14
  25 0004 AA87     		mv	a5,a0
  26 0006 9305F500 		addi	a1,a0,15
  27              	.LVL2:
  28              	.L2:
  22:C:/Users/stapi/OneDrive/Desktop/GD32VW553/V1_MQTT_OK/GD32VW55X_Wifi_BLE_SDK/GD32VW55x_RELEASE_V1.0.2/MSDK/wpa_supplicant/src/crypto\aes-omac1.c **** 		pad[i] = (pad[i] << 1) | (pad[i + 1] >> 7);
  29              		.loc 1 22 3 discriminator 3
  30              		.loc 1 22 16 is_stmt 0 discriminator 3
  31 000a 03C70700 		lbu	a4,0(a5)
  32              		.loc 1 22 26 discriminator 3
  33 000e 03C61700 		lbu	a2,1(a5)
  21:C:/Users/stapi/OneDrive/Desktop/GD32VW553/V1_MQTT_OK/GD32VW55X_Wifi_BLE_SDK/GD32VW55x_RELEASE_V1.0.2/MSDK/wpa_supplicant/src/crypto\aes-omac1.c **** 	for (i = 0; i < AES_BLOCK_SIZE - 1; i++)
  34              		.loc 1 21 2 discriminator 3
  35 0012 8507     		addi	a5,a5,1
  36              	.LVL3:
  37              		.loc 1 22 20 discriminator 3
  38 0014 0607     		slli	a4,a4,1
  39              		.loc 1 22 26 discriminator 3
  40 0016 1D82     		srli	a2,a2,7
  41 0018 518F     		or	a4,a4,a2
  42              		.loc 1 22 10 discriminator 3
  43 001a A38FE7FE 		sb	a4,-1(a5)
  21:C:/Users/stapi/OneDrive/Desktop/GD32VW553/V1_MQTT_OK/GD32VW55X_Wifi_BLE_SDK/GD32VW55x_RELEASE_V1.0.2/MSDK/wpa_supplicant/src/crypto\aes-omac1.c **** 	for (i = 0; i < AES_BLOCK_SIZE - 1; i++)
  44              		.loc 1 21 38 is_stmt 1 discriminator 3
  45              	.LVL4:
  21:C:/Users/stapi/OneDrive/Desktop/GD32VW553/V1_MQTT_OK/GD32VW55X_Wifi_BLE_SDK/GD32VW55x_RELEASE_V1.0.2/MSDK/wpa_supplicant/src/crypto\aes-omac1.c **** 	for (i = 0; i < AES_BLOCK_SIZE - 1; i++)
  46              		.loc 1 21 14 discriminator 3
  21:C:/Users/stapi/OneDrive/Desktop/GD32VW553/V1_MQTT_OK/GD32VW55X_Wifi_BLE_SDK/GD32VW55x_RELEASE_V1.0.2/MSDK/wpa_supplicant/src/crypto\aes-omac1.c **** 	for (i = 0; i < AES_BLOCK_SIZE - 1; i++)
  47              		.loc 1 21 2 is_stmt 0 discriminator 3
  48 001e E396F5FE 		bne	a1,a5,.L2
  23:C:/Users/stapi/OneDrive/Desktop/GD32VW553/V1_MQTT_OK/GD32VW55X_Wifi_BLE_SDK/GD32VW55x_RELEASE_V1.0.2/MSDK/wpa_supplicant/src/crypto\aes-omac1.c **** 	pad[AES_BLOCK_SIZE - 1] <<= 1;
  49              		.loc 1 23 2 is_stmt 1
  50              		.loc 1 23 26 is_stmt 0
  51 0022 8347F500 		lbu	a5,15(a0)
  24:C:/Users/stapi/OneDrive/Desktop/GD32VW553/V1_MQTT_OK/GD32VW55X_Wifi_BLE_SDK/GD32VW55x_RELEASE_V1.0.2/MSDK/wpa_supplicant/src/crypto\aes-omac1.c **** 	if (carry)
  52              		.loc 1 24 5
  53 0026 13974660 		sext.b	a4,a3
  23:C:/Users/stapi/OneDrive/Desktop/GD32VW553/V1_MQTT_OK/GD32VW55X_Wifi_BLE_SDK/GD32VW55x_RELEASE_V1.0.2/MSDK/wpa_supplicant/src/crypto\aes-omac1.c **** 	pad[AES_BLOCK_SIZE - 1] <<= 1;
  54              		.loc 1 23 26
  55 002a 8607     		slli	a5,a5,1
  56 002c 93F7F70F 		andi	a5,a5,0xff
  57              		.loc 1 24 2 is_stmt 1
  58              		.loc 1 24 5 is_stmt 0
  59 0030 63450700 		blt	a4,zero,.L3
  60              	.L6:
  25:C:/Users/stapi/OneDrive/Desktop/GD32VW553/V1_MQTT_OK/GD32VW55X_Wifi_BLE_SDK/GD32VW55x_RELEASE_V1.0.2/MSDK/wpa_supplicant/src/crypto\aes-omac1.c **** 		pad[AES_BLOCK_SIZE - 1] ^= 0x87;
  61              		.loc 1 25 27
  62 0034 A307F500 		sb	a5,15(a0)
  26:C:/Users/stapi/OneDrive/Desktop/GD32VW553/V1_MQTT_OK/GD32VW55X_Wifi_BLE_SDK/GD32VW55x_RELEASE_V1.0.2/MSDK/wpa_supplicant/src/crypto\aes-omac1.c **** }
  63              		.loc 1 26 1
  64 0038 8280     		ret
  65              	.L3:
  25:C:/Users/stapi/OneDrive/Desktop/GD32VW553/V1_MQTT_OK/GD32VW55X_Wifi_BLE_SDK/GD32VW55x_RELEASE_V1.0.2/MSDK/wpa_supplicant/src/crypto\aes-omac1.c **** 		pad[AES_BLOCK_SIZE - 1] ^= 0x87;
  66              		.loc 1 25 3 is_stmt 1
  25:C:/Users/stapi/OneDrive/Desktop/GD32VW553/V1_MQTT_OK/GD32VW55X_Wifi_BLE_SDK/GD32VW55x_RELEASE_V1.0.2/MSDK/wpa_supplicant/src/crypto\aes-omac1.c **** 		pad[AES_BLOCK_SIZE - 1] ^= 0x87;
  67              		.loc 1 25 27 is_stmt 0
  68 003a 93C777F8 		xori	a5,a5,-121
  69 003e DDBF     		j	.L6
  70              		.cfi_endproc
  71              	.LFE71:
  73              		.section	.text.omac1_aes_vector,"ax",@progbits
  74              		.align	1
  75              		.globl	omac1_aes_vector
  77              	omac1_aes_vector:
  78              	.LFB72:
  27:C:/Users/stapi/OneDrive/Desktop/GD32VW553/V1_MQTT_OK/GD32VW55X_Wifi_BLE_SDK/GD32VW55x_RELEASE_V1.0.2/MSDK/wpa_supplicant/src/crypto\aes-omac1.c **** 
  28:C:/Users/stapi/OneDrive/Desktop/GD32VW553/V1_MQTT_OK/GD32VW55X_Wifi_BLE_SDK/GD32VW55x_RELEASE_V1.0.2/MSDK/wpa_supplicant/src/crypto\aes-omac1.c **** 
  29:C:/Users/stapi/OneDrive/Desktop/GD32VW553/V1_MQTT_OK/GD32VW55X_Wifi_BLE_SDK/GD32VW55x_RELEASE_V1.0.2/MSDK/wpa_supplicant/src/crypto\aes-omac1.c **** /**
  30:C:/Users/stapi/OneDrive/Desktop/GD32VW553/V1_MQTT_OK/GD32VW55X_Wifi_BLE_SDK/GD32VW55x_RELEASE_V1.0.2/MSDK/wpa_supplicant/src/crypto\aes-omac1.c ****  * omac1_aes_vector - One-Key CBC MAC (OMAC1) hash with AES
  31:C:/Users/stapi/OneDrive/Desktop/GD32VW553/V1_MQTT_OK/GD32VW55X_Wifi_BLE_SDK/GD32VW55x_RELEASE_V1.0.2/MSDK/wpa_supplicant/src/crypto\aes-omac1.c ****  * @key: Key for the hash operation
  32:C:/Users/stapi/OneDrive/Desktop/GD32VW553/V1_MQTT_OK/GD32VW55X_Wifi_BLE_SDK/GD32VW55x_RELEASE_V1.0.2/MSDK/wpa_supplicant/src/crypto\aes-omac1.c ****  * @key_len: Key length in octets
  33:C:/Users/stapi/OneDrive/Desktop/GD32VW553/V1_MQTT_OK/GD32VW55X_Wifi_BLE_SDK/GD32VW55x_RELEASE_V1.0.2/MSDK/wpa_supplicant/src/crypto\aes-omac1.c ****  * @num_elem: Number of elements in the data vector
  34:C:/Users/stapi/OneDrive/Desktop/GD32VW553/V1_MQTT_OK/GD32VW55X_Wifi_BLE_SDK/GD32VW55x_RELEASE_V1.0.2/MSDK/wpa_supplicant/src/crypto\aes-omac1.c ****  * @addr: Pointers to the data areas
  35:C:/Users/stapi/OneDrive/Desktop/GD32VW553/V1_MQTT_OK/GD32VW55X_Wifi_BLE_SDK/GD32VW55x_RELEASE_V1.0.2/MSDK/wpa_supplicant/src/crypto\aes-omac1.c ****  * @len: Lengths of the data blocks
  36:C:/Users/stapi/OneDrive/Desktop/GD32VW553/V1_MQTT_OK/GD32VW55X_Wifi_BLE_SDK/GD32VW55x_RELEASE_V1.0.2/MSDK/wpa_supplicant/src/crypto\aes-omac1.c ****  * @mac: Buffer for MAC (128 bits, i.e., 16 bytes)
  37:C:/Users/stapi/OneDrive/Desktop/GD32VW553/V1_MQTT_OK/GD32VW55X_Wifi_BLE_SDK/GD32VW55x_RELEASE_V1.0.2/MSDK/wpa_supplicant/src/crypto\aes-omac1.c ****  * Returns: 0 on success, -1 on failure
  38:C:/Users/stapi/OneDrive/Desktop/GD32VW553/V1_MQTT_OK/GD32VW55X_Wifi_BLE_SDK/GD32VW55x_RELEASE_V1.0.2/MSDK/wpa_supplicant/src/crypto\aes-omac1.c ****  *
  39:C:/Users/stapi/OneDrive/Desktop/GD32VW553/V1_MQTT_OK/GD32VW55X_Wifi_BLE_SDK/GD32VW55x_RELEASE_V1.0.2/MSDK/wpa_supplicant/src/crypto\aes-omac1.c ****  * This is a mode for using block cipher (AES in this case) for authentication.
  40:C:/Users/stapi/OneDrive/Desktop/GD32VW553/V1_MQTT_OK/GD32VW55X_Wifi_BLE_SDK/GD32VW55x_RELEASE_V1.0.2/MSDK/wpa_supplicant/src/crypto\aes-omac1.c ****  * OMAC1 was standardized with the name CMAC by NIST in a Special Publication
  41:C:/Users/stapi/OneDrive/Desktop/GD32VW553/V1_MQTT_OK/GD32VW55X_Wifi_BLE_SDK/GD32VW55x_RELEASE_V1.0.2/MSDK/wpa_supplicant/src/crypto\aes-omac1.c ****  * (SP) 800-38B.
  42:C:/Users/stapi/OneDrive/Desktop/GD32VW553/V1_MQTT_OK/GD32VW55X_Wifi_BLE_SDK/GD32VW55x_RELEASE_V1.0.2/MSDK/wpa_supplicant/src/crypto\aes-omac1.c ****  */
  43:C:/Users/stapi/OneDrive/Desktop/GD32VW553/V1_MQTT_OK/GD32VW55X_Wifi_BLE_SDK/GD32VW55x_RELEASE_V1.0.2/MSDK/wpa_supplicant/src/crypto\aes-omac1.c **** int omac1_aes_vector(const u8 *key, size_t key_len, size_t num_elem,
  44:C:/Users/stapi/OneDrive/Desktop/GD32VW553/V1_MQTT_OK/GD32VW55X_Wifi_BLE_SDK/GD32VW55x_RELEASE_V1.0.2/MSDK/wpa_supplicant/src/crypto\aes-omac1.c **** 		     const u8 *addr[], const size_t *len, u8 *mac)
  45:C:/Users/stapi/OneDrive/Desktop/GD32VW553/V1_MQTT_OK/GD32VW55X_Wifi_BLE_SDK/GD32VW55x_RELEASE_V1.0.2/MSDK/wpa_supplicant/src/crypto\aes-omac1.c **** {
  79              		.loc 1 45 1 is_stmt 1
  80              		.cfi_startproc
  81              	.LVL5:
  82 0000 17030000 		call	t0,__riscv_save_11
  82      E7020300 
  83              		.cfi_offset 26, -48
  84              		.cfi_offset 25, -44
  85              		.cfi_offset 24, -40
  86              		.cfi_offset 23, -36
  87              		.cfi_offset 22, -32
  88              		.cfi_offset 21, -28
  89              		.cfi_offset 20, -24
  90              		.cfi_offset 19, -20
  91              		.cfi_offset 18, -16
  92              		.cfi_offset 9, -12
  93              		.cfi_offset 8, -8
  94              		.cfi_offset 1, -4
  95              		.cfi_def_cfa_offset 48
  46:C:/Users/stapi/OneDrive/Desktop/GD32VW553/V1_MQTT_OK/GD32VW55X_Wifi_BLE_SDK/GD32VW55x_RELEASE_V1.0.2/MSDK/wpa_supplicant/src/crypto\aes-omac1.c **** 	void *ctx;
  96              		.loc 1 46 2
  47:C:/Users/stapi/OneDrive/Desktop/GD32VW553/V1_MQTT_OK/GD32VW55X_Wifi_BLE_SDK/GD32VW55x_RELEASE_V1.0.2/MSDK/wpa_supplicant/src/crypto\aes-omac1.c **** 	u8 cbc[AES_BLOCK_SIZE], pad[AES_BLOCK_SIZE];
  97              		.loc 1 47 2
  48:C:/Users/stapi/OneDrive/Desktop/GD32VW553/V1_MQTT_OK/GD32VW55X_Wifi_BLE_SDK/GD32VW55x_RELEASE_V1.0.2/MSDK/wpa_supplicant/src/crypto\aes-omac1.c **** 	const u8 *pos, *end;
  98              		.loc 1 48 2
  49:C:/Users/stapi/OneDrive/Desktop/GD32VW553/V1_MQTT_OK/GD32VW55X_Wifi_BLE_SDK/GD32VW55x_RELEASE_V1.0.2/MSDK/wpa_supplicant/src/crypto\aes-omac1.c **** 	size_t i, e, left, total_len;
  99              		.loc 1 49 2
  50:C:/Users/stapi/OneDrive/Desktop/GD32VW553/V1_MQTT_OK/GD32VW55X_Wifi_BLE_SDK/GD32VW55x_RELEASE_V1.0.2/MSDK/wpa_supplicant/src/crypto\aes-omac1.c **** 
  51:C:/Users/stapi/OneDrive/Desktop/GD32VW553/V1_MQTT_OK/GD32VW55X_Wifi_BLE_SDK/GD32VW55x_RELEASE_V1.0.2/MSDK/wpa_supplicant/src/crypto\aes-omac1.c **** 	if (TEST_FAIL())
 100              		.loc 1 51 2
  52:C:/Users/stapi/OneDrive/Desktop/GD32VW553/V1_MQTT_OK/GD32VW55X_Wifi_BLE_SDK/GD32VW55x_RELEASE_V1.0.2/MSDK/wpa_supplicant/src/crypto\aes-omac1.c **** 		return -1;
  53:C:/Users/stapi/OneDrive/Desktop/GD32VW553/V1_MQTT_OK/GD32VW55X_Wifi_BLE_SDK/GD32VW55x_RELEASE_V1.0.2/MSDK/wpa_supplicant/src/crypto\aes-omac1.c **** 
  54:C:/Users/stapi/OneDrive/Desktop/GD32VW553/V1_MQTT_OK/GD32VW55X_Wifi_BLE_SDK/GD32VW55x_RELEASE_V1.0.2/MSDK/wpa_supplicant/src/crypto\aes-omac1.c **** 	ctx = aes_encrypt_init(key, key_len);
 101              		.loc 1 54 2
  45:C:/Users/stapi/OneDrive/Desktop/GD32VW553/V1_MQTT_OK/GD32VW55X_Wifi_BLE_SDK/GD32VW55x_RELEASE_V1.0.2/MSDK/wpa_supplicant/src/crypto\aes-omac1.c **** 	void *ctx;
 102              		.loc 1 45 1 is_stmt 0
 103 0008 0111     		addi	sp,sp,-32
 104              		.cfi_def_cfa_offset 80
  45:C:/Users/stapi/OneDrive/Desktop/GD32VW553/V1_MQTT_OK/GD32VW55X_Wifi_BLE_SDK/GD32VW55x_RELEASE_V1.0.2/MSDK/wpa_supplicant/src/crypto\aes-omac1.c **** 	void *ctx;
 105              		.loc 1 45 1
 106 000a 3284     		mv	s0,a2
 107 000c B68B     		mv	s7,a3
 108 000e BA8A     		mv	s5,a4
 109 0010 3E8C     		mv	s8,a5
 110              		.loc 1 54 8
 111 0012 97000000 		call	aes_encrypt_init
 111      E7800000 
 112              	.LVL6:
  55:C:/Users/stapi/OneDrive/Desktop/GD32VW553/V1_MQTT_OK/GD32VW55X_Wifi_BLE_SDK/GD32VW55x_RELEASE_V1.0.2/MSDK/wpa_supplicant/src/crypto\aes-omac1.c **** 	if (ctx == NULL)
 113              		.loc 1 55 2 is_stmt 1
 114              		.loc 1 55 5 is_stmt 0
 115 001a 63070516 		beq	a0,zero,.L23
 116 001e 2A89     		mv	s2,a0
  56:C:/Users/stapi/OneDrive/Desktop/GD32VW553/V1_MQTT_OK/GD32VW55X_Wifi_BLE_SDK/GD32VW55x_RELEASE_V1.0.2/MSDK/wpa_supplicant/src/crypto\aes-omac1.c **** 		return -1;
  57:C:/Users/stapi/OneDrive/Desktop/GD32VW553/V1_MQTT_OK/GD32VW55X_Wifi_BLE_SDK/GD32VW55x_RELEASE_V1.0.2/MSDK/wpa_supplicant/src/crypto\aes-omac1.c **** 	os_memset(cbc, 0, AES_BLOCK_SIZE);
 117              		.loc 1 57 2 is_stmt 1
 118 0020 4146     		li	a2,16
 119 0022 8145     		li	a1,0
 120 0024 0A85     		mv	a0,sp
 121              	.LVL7:
 122 0026 97000000 		call	os_memset
 122      E7800000 
 123              	.LVL8:
  58:C:/Users/stapi/OneDrive/Desktop/GD32VW553/V1_MQTT_OK/GD32VW55X_Wifi_BLE_SDK/GD32VW55x_RELEASE_V1.0.2/MSDK/wpa_supplicant/src/crypto\aes-omac1.c **** 
  59:C:/Users/stapi/OneDrive/Desktop/GD32VW553/V1_MQTT_OK/GD32VW55X_Wifi_BLE_SDK/GD32VW55x_RELEASE_V1.0.2/MSDK/wpa_supplicant/src/crypto\aes-omac1.c **** 	total_len = 0;
 124              		.loc 1 59 2
  60:C:/Users/stapi/OneDrive/Desktop/GD32VW553/V1_MQTT_OK/GD32VW55X_Wifi_BLE_SDK/GD32VW55x_RELEASE_V1.0.2/MSDK/wpa_supplicant/src/crypto\aes-omac1.c **** 	for (e = 0; e < num_elem; e++)
 125              		.loc 1 60 2
  59:C:/Users/stapi/OneDrive/Desktop/GD32VW553/V1_MQTT_OK/GD32VW55X_Wifi_BLE_SDK/GD32VW55x_RELEASE_V1.0.2/MSDK/wpa_supplicant/src/crypto\aes-omac1.c **** 	for (e = 0; e < num_elem; e++)
 126              		.loc 1 59 12 is_stmt 0
 127 002e 014B     		li	s6,0
 128              		.loc 1 60 9
 129 0030 8147     		li	a5,0
 130              	.LVL9:
 131              	.L9:
 132              		.loc 1 60 14 is_stmt 1 discriminator 1
 133              		.loc 1 60 2 is_stmt 0 discriminator 1
 134 0032 63958708 		bne	a5,s0,.L10
  61:C:/Users/stapi/OneDrive/Desktop/GD32VW553/V1_MQTT_OK/GD32VW55X_Wifi_BLE_SDK/GD32VW55x_RELEASE_V1.0.2/MSDK/wpa_supplicant/src/crypto\aes-omac1.c **** 		total_len += len[e];
  62:C:/Users/stapi/OneDrive/Desktop/GD32VW553/V1_MQTT_OK/GD32VW55X_Wifi_BLE_SDK/GD32VW55x_RELEASE_V1.0.2/MSDK/wpa_supplicant/src/crypto\aes-omac1.c **** 	left = total_len;
 135              		.loc 1 62 2 is_stmt 1
 136              	.LVL10:
  63:C:/Users/stapi/OneDrive/Desktop/GD32VW553/V1_MQTT_OK/GD32VW55X_Wifi_BLE_SDK/GD32VW55x_RELEASE_V1.0.2/MSDK/wpa_supplicant/src/crypto\aes-omac1.c **** 
  64:C:/Users/stapi/OneDrive/Desktop/GD32VW553/V1_MQTT_OK/GD32VW55X_Wifi_BLE_SDK/GD32VW55x_RELEASE_V1.0.2/MSDK/wpa_supplicant/src/crypto\aes-omac1.c **** 	e = 0;
 137              		.loc 1 64 2
  65:C:/Users/stapi/OneDrive/Desktop/GD32VW553/V1_MQTT_OK/GD32VW55X_Wifi_BLE_SDK/GD32VW55x_RELEASE_V1.0.2/MSDK/wpa_supplicant/src/crypto\aes-omac1.c **** 	pos = addr[0];
 138              		.loc 1 65 2
 139              		.loc 1 65 6 is_stmt 0
 140 0036 03A40B00 		lw	s0,0(s7)
 141              	.LVL11:
  66:C:/Users/stapi/OneDrive/Desktop/GD32VW553/V1_MQTT_OK/GD32VW55X_Wifi_BLE_SDK/GD32VW55x_RELEASE_V1.0.2/MSDK/wpa_supplicant/src/crypto\aes-omac1.c **** 	end = pos + len[0];
 142              		.loc 1 66 2 is_stmt 1
 143              		.loc 1 66 6 is_stmt 0
 144 003a 83A40A00 		lw	s1,0(s5)
  67:C:/Users/stapi/OneDrive/Desktop/GD32VW553/V1_MQTT_OK/GD32VW55X_Wifi_BLE_SDK/GD32VW55x_RELEASE_V1.0.2/MSDK/wpa_supplicant/src/crypto\aes-omac1.c **** 
  68:C:/Users/stapi/OneDrive/Desktop/GD32VW553/V1_MQTT_OK/GD32VW55X_Wifi_BLE_SDK/GD32VW55x_RELEASE_V1.0.2/MSDK/wpa_supplicant/src/crypto\aes-omac1.c **** 	while (left >= AES_BLOCK_SIZE) {
 145              		.loc 1 68 8
 146 003e DA89     		mv	s3,s6
  64:C:/Users/stapi/OneDrive/Desktop/GD32VW553/V1_MQTT_OK/GD32VW55X_Wifi_BLE_SDK/GD32VW55x_RELEASE_V1.0.2/MSDK/wpa_supplicant/src/crypto\aes-omac1.c **** 	pos = addr[0];
 147              		.loc 1 64 4
 148 0040 014A     		li	s4,0
  66:C:/Users/stapi/OneDrive/Desktop/GD32VW553/V1_MQTT_OK/GD32VW55X_Wifi_BLE_SDK/GD32VW55x_RELEASE_V1.0.2/MSDK/wpa_supplicant/src/crypto\aes-omac1.c **** 	end = pos + len[0];
 149              		.loc 1 66 6
 150 0042 A294     		add	s1,s0,s1
 151              	.LVL12:
 152              		.loc 1 68 2 is_stmt 1
 153              		.loc 1 68 8 is_stmt 0
 154 0044 3D4D     		li	s10,15
  69:C:/Users/stapi/OneDrive/Desktop/GD32VW553/V1_MQTT_OK/GD32VW55X_Wifi_BLE_SDK/GD32VW55x_RELEASE_V1.0.2/MSDK/wpa_supplicant/src/crypto\aes-omac1.c **** 		for (i = 0; i < AES_BLOCK_SIZE; i++) {
  70:C:/Users/stapi/OneDrive/Desktop/GD32VW553/V1_MQTT_OK/GD32VW55X_Wifi_BLE_SDK/GD32VW55x_RELEASE_V1.0.2/MSDK/wpa_supplicant/src/crypto\aes-omac1.c **** 			cbc[i] ^= *pos++;
  71:C:/Users/stapi/OneDrive/Desktop/GD32VW553/V1_MQTT_OK/GD32VW55X_Wifi_BLE_SDK/GD32VW55x_RELEASE_V1.0.2/MSDK/wpa_supplicant/src/crypto\aes-omac1.c **** 			if (pos >= end) {
  72:C:/Users/stapi/OneDrive/Desktop/GD32VW553/V1_MQTT_OK/GD32VW55X_Wifi_BLE_SDK/GD32VW55x_RELEASE_V1.0.2/MSDK/wpa_supplicant/src/crypto\aes-omac1.c **** 				/*
  73:C:/Users/stapi/OneDrive/Desktop/GD32VW553/V1_MQTT_OK/GD32VW55X_Wifi_BLE_SDK/GD32VW55x_RELEASE_V1.0.2/MSDK/wpa_supplicant/src/crypto\aes-omac1.c **** 				 * Stop if there are no more bytes to process
  74:C:/Users/stapi/OneDrive/Desktop/GD32VW553/V1_MQTT_OK/GD32VW55X_Wifi_BLE_SDK/GD32VW55x_RELEASE_V1.0.2/MSDK/wpa_supplicant/src/crypto\aes-omac1.c **** 				 * since there are no more entries in the array.
  75:C:/Users/stapi/OneDrive/Desktop/GD32VW553/V1_MQTT_OK/GD32VW55X_Wifi_BLE_SDK/GD32VW55x_RELEASE_V1.0.2/MSDK/wpa_supplicant/src/crypto\aes-omac1.c **** 				 */
  76:C:/Users/stapi/OneDrive/Desktop/GD32VW553/V1_MQTT_OK/GD32VW55X_Wifi_BLE_SDK/GD32VW55x_RELEASE_V1.0.2/MSDK/wpa_supplicant/src/crypto\aes-omac1.c **** 				if (i + 1 == AES_BLOCK_SIZE &&
 155              		.loc 1 76 33
 156 0046 C14C     		li	s9,16
 157              	.LVL13:
 158              	.L11:
  68:C:/Users/stapi/OneDrive/Desktop/GD32VW553/V1_MQTT_OK/GD32VW55X_Wifi_BLE_SDK/GD32VW55x_RELEASE_V1.0.2/MSDK/wpa_supplicant/src/crypto\aes-omac1.c **** 		for (i = 0; i < AES_BLOCK_SIZE; i++) {
 159              		.loc 1 68 8 is_stmt 1
 160 0048 63603D09 		bgtu	s3,s10,.L16
 161 004c 93574B00 		srli	a5,s6,4
 162 0050 4157     		li	a4,-16
  77:C:/Users/stapi/OneDrive/Desktop/GD32VW553/V1_MQTT_OK/GD32VW55X_Wifi_BLE_SDK/GD32VW55x_RELEASE_V1.0.2/MSDK/wpa_supplicant/src/crypto\aes-omac1.c **** 				    left == AES_BLOCK_SIZE)
  78:C:/Users/stapi/OneDrive/Desktop/GD32VW553/V1_MQTT_OK/GD32VW55X_Wifi_BLE_SDK/GD32VW55x_RELEASE_V1.0.2/MSDK/wpa_supplicant/src/crypto\aes-omac1.c **** 					break;
  79:C:/Users/stapi/OneDrive/Desktop/GD32VW553/V1_MQTT_OK/GD32VW55X_Wifi_BLE_SDK/GD32VW55x_RELEASE_V1.0.2/MSDK/wpa_supplicant/src/crypto\aes-omac1.c **** 				e++;
  80:C:/Users/stapi/OneDrive/Desktop/GD32VW553/V1_MQTT_OK/GD32VW55X_Wifi_BLE_SDK/GD32VW55x_RELEASE_V1.0.2/MSDK/wpa_supplicant/src/crypto\aes-omac1.c **** 				pos = addr[e];
  81:C:/Users/stapi/OneDrive/Desktop/GD32VW553/V1_MQTT_OK/GD32VW55X_Wifi_BLE_SDK/GD32VW55x_RELEASE_V1.0.2/MSDK/wpa_supplicant/src/crypto\aes-omac1.c **** 				end = pos + len[e];
  82:C:/Users/stapi/OneDrive/Desktop/GD32VW553/V1_MQTT_OK/GD32VW55X_Wifi_BLE_SDK/GD32VW55x_RELEASE_V1.0.2/MSDK/wpa_supplicant/src/crypto\aes-omac1.c **** 			}
  83:C:/Users/stapi/OneDrive/Desktop/GD32VW553/V1_MQTT_OK/GD32VW55X_Wifi_BLE_SDK/GD32VW55x_RELEASE_V1.0.2/MSDK/wpa_supplicant/src/crypto\aes-omac1.c **** 		}
  84:C:/Users/stapi/OneDrive/Desktop/GD32VW553/V1_MQTT_OK/GD32VW55X_Wifi_BLE_SDK/GD32VW55x_RELEASE_V1.0.2/MSDK/wpa_supplicant/src/crypto\aes-omac1.c **** 		if (left > AES_BLOCK_SIZE)
  85:C:/Users/stapi/OneDrive/Desktop/GD32VW553/V1_MQTT_OK/GD32VW55X_Wifi_BLE_SDK/GD32VW55x_RELEASE_V1.0.2/MSDK/wpa_supplicant/src/crypto\aes-omac1.c **** 			aes_encrypt(ctx, cbc, cbc);
  86:C:/Users/stapi/OneDrive/Desktop/GD32VW553/V1_MQTT_OK/GD32VW55X_Wifi_BLE_SDK/GD32VW55x_RELEASE_V1.0.2/MSDK/wpa_supplicant/src/crypto\aes-omac1.c **** 		left -= AES_BLOCK_SIZE;
  87:C:/Users/stapi/OneDrive/Desktop/GD32VW553/V1_MQTT_OK/GD32VW55X_Wifi_BLE_SDK/GD32VW55x_RELEASE_V1.0.2/MSDK/wpa_supplicant/src/crypto\aes-omac1.c **** 	}
  88:C:/Users/stapi/OneDrive/Desktop/GD32VW553/V1_MQTT_OK/GD32VW55X_Wifi_BLE_SDK/GD32VW55x_RELEASE_V1.0.2/MSDK/wpa_supplicant/src/crypto\aes-omac1.c **** 
  89:C:/Users/stapi/OneDrive/Desktop/GD32VW553/V1_MQTT_OK/GD32VW55X_Wifi_BLE_SDK/GD32VW55x_RELEASE_V1.0.2/MSDK/wpa_supplicant/src/crypto\aes-omac1.c **** 	os_memset(pad, 0, AES_BLOCK_SIZE);
 163              		.loc 1 89 2 is_stmt 0
 164 0052 4146     		li	a2,16
 165 0054 8145     		li	a1,0
 166 0056 DA89     		mv	s3,s6
 167              	.LVL14:
 168 0058 0808     		addi	a0,sp,16
 169 005a FF99E7C4 		maddr32	s3, a5, a4
 170              		.loc 1 89 2 is_stmt 1
 171 005e 97000000 		call	os_memset
 171      E7800000 
 172              	.LVL15:
  90:C:/Users/stapi/OneDrive/Desktop/GD32VW553/V1_MQTT_OK/GD32VW55X_Wifi_BLE_SDK/GD32VW55x_RELEASE_V1.0.2/MSDK/wpa_supplicant/src/crypto\aes-omac1.c **** 	aes_encrypt(ctx, pad, pad);
 173              		.loc 1 90 2
 174 0066 1008     		addi	a2,sp,16
 175 0068 B285     		mv	a1,a2
 176 006a 4A85     		mv	a0,s2
 177 006c 97000000 		call	aes_encrypt
 177      E7800000 
 178              	.LVL16:
  91:C:/Users/stapi/OneDrive/Desktop/GD32VW553/V1_MQTT_OK/GD32VW55X_Wifi_BLE_SDK/GD32VW55x_RELEASE_V1.0.2/MSDK/wpa_supplicant/src/crypto\aes-omac1.c **** 	gf_mulx(pad);
 179              		.loc 1 91 2
 180 0074 0808     		addi	a0,sp,16
 181 0076 97000000 		call	gf_mulx
 181      E7800000 
 182              	.LVL17:
  92:C:/Users/stapi/OneDrive/Desktop/GD32VW553/V1_MQTT_OK/GD32VW55X_Wifi_BLE_SDK/GD32VW55x_RELEASE_V1.0.2/MSDK/wpa_supplicant/src/crypto\aes-omac1.c **** 
  93:C:/Users/stapi/OneDrive/Desktop/GD32VW553/V1_MQTT_OK/GD32VW55X_Wifi_BLE_SDK/GD32VW55x_RELEASE_V1.0.2/MSDK/wpa_supplicant/src/crypto\aes-omac1.c **** 	if (left || total_len == 0) {
 183              		.loc 1 93 2
 184              		.loc 1 93 5 is_stmt 0
 185 007e 6382090A 		beq	s3,zero,.L17
 186 0082 0A87     		mv	a4,sp
 187              	.LVL18:
  94:C:/Users/stapi/OneDrive/Desktop/GD32VW553/V1_MQTT_OK/GD32VW55X_Wifi_BLE_SDK/GD32VW55x_RELEASE_V1.0.2/MSDK/wpa_supplicant/src/crypto\aes-omac1.c **** 		for (i = 0; i < left; i++) {
 188              		.loc 1 94 15 is_stmt 1
  93:C:/Users/stapi/OneDrive/Desktop/GD32VW553/V1_MQTT_OK/GD32VW55X_Wifi_BLE_SDK/GD32VW55x_RELEASE_V1.0.2/MSDK/wpa_supplicant/src/crypto\aes-omac1.c **** 		for (i = 0; i < left; i++) {
 189              		.loc 1 93 5 is_stmt 0
 190 0084 8147     		li	a5,0
 191              	.LVL19:
 192              	.L18:
  95:C:/Users/stapi/OneDrive/Desktop/GD32VW553/V1_MQTT_OK/GD32VW55X_Wifi_BLE_SDK/GD32VW55x_RELEASE_V1.0.2/MSDK/wpa_supplicant/src/crypto\aes-omac1.c **** 			cbc[i] ^= *pos++;
 193              		.loc 1 95 4 is_stmt 1
 194              		.loc 1 95 11 is_stmt 0
 195 0086 83460700 		lbu	a3,0(a4)
 196 008a 83450400 		lbu	a1,0(s0)
 197              		.loc 1 95 18
 198 008e 13061400 		addi	a2,s0,1
 199              	.LVL20:
  96:C:/Users/stapi/OneDrive/Desktop/GD32VW553/V1_MQTT_OK/GD32VW55X_Wifi_BLE_SDK/GD32VW55x_RELEASE_V1.0.2/MSDK/wpa_supplicant/src/crypto\aes-omac1.c **** 			if (pos >= end) {
  97:C:/Users/stapi/OneDrive/Desktop/GD32VW553/V1_MQTT_OK/GD32VW55X_Wifi_BLE_SDK/GD32VW55x_RELEASE_V1.0.2/MSDK/wpa_supplicant/src/crypto\aes-omac1.c **** 				/*
  98:C:/Users/stapi/OneDrive/Desktop/GD32VW553/V1_MQTT_OK/GD32VW55X_Wifi_BLE_SDK/GD32VW55x_RELEASE_V1.0.2/MSDK/wpa_supplicant/src/crypto\aes-omac1.c **** 				 * Stop if there are no more bytes to process
  99:C:/Users/stapi/OneDrive/Desktop/GD32VW553/V1_MQTT_OK/GD32VW55X_Wifi_BLE_SDK/GD32VW55x_RELEASE_V1.0.2/MSDK/wpa_supplicant/src/crypto\aes-omac1.c **** 				 * since there are no more entries in the array.
 100:C:/Users/stapi/OneDrive/Desktop/GD32VW553/V1_MQTT_OK/GD32VW55X_Wifi_BLE_SDK/GD32VW55x_RELEASE_V1.0.2/MSDK/wpa_supplicant/src/crypto\aes-omac1.c **** 				 */
 101:C:/Users/stapi/OneDrive/Desktop/GD32VW553/V1_MQTT_OK/GD32VW55X_Wifi_BLE_SDK/GD32VW55x_RELEASE_V1.0.2/MSDK/wpa_supplicant/src/crypto\aes-omac1.c **** 				if (i + 1 == left)
 200              		.loc 1 101 11
 201 0092 8507     		addi	a5,a5,1
 202              	.LVL21:
  95:C:/Users/stapi/OneDrive/Desktop/GD32VW553/V1_MQTT_OK/GD32VW55X_Wifi_BLE_SDK/GD32VW55x_RELEASE_V1.0.2/MSDK/wpa_supplicant/src/crypto\aes-omac1.c **** 			cbc[i] ^= *pos++;
 203              		.loc 1 95 11
 204 0094 AD8E     		xor	a3,a3,a1
 205 0096 2300D700 		sb	a3,0(a4)
  96:C:/Users/stapi/OneDrive/Desktop/GD32VW553/V1_MQTT_OK/GD32VW55X_Wifi_BLE_SDK/GD32VW55x_RELEASE_V1.0.2/MSDK/wpa_supplicant/src/crypto\aes-omac1.c **** 			if (pos >= end) {
 206              		.loc 1 96 4 is_stmt 1
  96:C:/Users/stapi/OneDrive/Desktop/GD32VW553/V1_MQTT_OK/GD32VW55X_Wifi_BLE_SDK/GD32VW55x_RELEASE_V1.0.2/MSDK/wpa_supplicant/src/crypto\aes-omac1.c **** 			if (pos >= end) {
 207              		.loc 1 96 7 is_stmt 0
 208 009a 6365960E 		bltu	a2,s1,.L26
 209              		.loc 1 101 5 is_stmt 1
 210              		.loc 1 101 8 is_stmt 0
 211 009e 6384F908 		beq	s3,a5,.L21
 102:C:/Users/stapi/OneDrive/Desktop/GD32VW553/V1_MQTT_OK/GD32VW55X_Wifi_BLE_SDK/GD32VW55x_RELEASE_V1.0.2/MSDK/wpa_supplicant/src/crypto\aes-omac1.c **** 					break;
 103:C:/Users/stapi/OneDrive/Desktop/GD32VW553/V1_MQTT_OK/GD32VW55X_Wifi_BLE_SDK/GD32VW55x_RELEASE_V1.0.2/MSDK/wpa_supplicant/src/crypto\aes-omac1.c **** 				e++;
 212              		.loc 1 103 5 is_stmt 1
 213              		.loc 1 103 6 is_stmt 0
 214 00a2 050A     		addi	s4,s4,1
 215              	.LVL22:
 104:C:/Users/stapi/OneDrive/Desktop/GD32VW553/V1_MQTT_OK/GD32VW55X_Wifi_BLE_SDK/GD32VW55x_RELEASE_V1.0.2/MSDK/wpa_supplicant/src/crypto\aes-omac1.c **** 				pos = addr[e];
 216              		.loc 1 104 5 is_stmt 1
 217              		.loc 1 104 15 is_stmt 0
 218 00a4 93162A00 		slli	a3,s4,2
 219              		.loc 1 104 9
 220 00a8 3386DB00 		add	a2,s7,a3
 221              	.LVL23:
 105:C:/Users/stapi/OneDrive/Desktop/GD32VW553/V1_MQTT_OK/GD32VW55X_Wifi_BLE_SDK/GD32VW55x_RELEASE_V1.0.2/MSDK/wpa_supplicant/src/crypto\aes-omac1.c **** 				end = pos + len[e];
 222              		.loc 1 105 20
 223 00ac D696     		add	a3,s5,a3
 104:C:/Users/stapi/OneDrive/Desktop/GD32VW553/V1_MQTT_OK/GD32VW55X_Wifi_BLE_SDK/GD32VW55x_RELEASE_V1.0.2/MSDK/wpa_supplicant/src/crypto\aes-omac1.c **** 				pos = addr[e];
 224              		.loc 1 104 9
 225 00ae 0042     		lw	s0,0(a2)
 226              	.LVL24:
 227              		.loc 1 105 5 is_stmt 1
 228              		.loc 1 105 9 is_stmt 0
 229 00b0 8442     		lw	s1,0(a3)
 230              	.LVL25:
 231 00b2 A294     		add	s1,s0,s1
 232              	.LVL26:
 233              	.L20:
  94:C:/Users/stapi/OneDrive/Desktop/GD32VW553/V1_MQTT_OK/GD32VW55X_Wifi_BLE_SDK/GD32VW55x_RELEASE_V1.0.2/MSDK/wpa_supplicant/src/crypto\aes-omac1.c **** 			cbc[i] ^= *pos++;
 234              		.loc 1 94 25 is_stmt 1 discriminator 2
 235 00b4 0507     		addi	a4,a4,1
 236              	.LVL27:
  94:C:/Users/stapi/OneDrive/Desktop/GD32VW553/V1_MQTT_OK/GD32VW55X_Wifi_BLE_SDK/GD32VW55x_RELEASE_V1.0.2/MSDK/wpa_supplicant/src/crypto\aes-omac1.c **** 			cbc[i] ^= *pos++;
 237              		.loc 1 94 15 discriminator 2
  94:C:/Users/stapi/OneDrive/Desktop/GD32VW553/V1_MQTT_OK/GD32VW55X_Wifi_BLE_SDK/GD32VW55x_RELEASE_V1.0.2/MSDK/wpa_supplicant/src/crypto\aes-omac1.c **** 			cbc[i] ^= *pos++;
 238              		.loc 1 94 3 is_stmt 0 discriminator 2
 239 00b6 E398F9FC 		bne	s3,a5,.L18
 240 00ba B5A0     		j	.L21
 241              	.LVL28:
 242              	.L10:
  61:C:/Users/stapi/OneDrive/Desktop/GD32VW553/V1_MQTT_OK/GD32VW55X_Wifi_BLE_SDK/GD32VW55x_RELEASE_V1.0.2/MSDK/wpa_supplicant/src/crypto\aes-omac1.c **** 	left = total_len;
 243              		.loc 1 61 3 is_stmt 1 discriminator 3
  61:C:/Users/stapi/OneDrive/Desktop/GD32VW553/V1_MQTT_OK/GD32VW55X_Wifi_BLE_SDK/GD32VW55x_RELEASE_V1.0.2/MSDK/wpa_supplicant/src/crypto\aes-omac1.c **** 	left = total_len;
 244              		.loc 1 61 19 is_stmt 0 discriminator 3
 245 00bc 33C75721 		sh2add	a4,a5,s5
  61:C:/Users/stapi/OneDrive/Desktop/GD32VW553/V1_MQTT_OK/GD32VW55X_Wifi_BLE_SDK/GD32VW55x_RELEASE_V1.0.2/MSDK/wpa_supplicant/src/crypto\aes-omac1.c **** 	left = total_len;
 246              		.loc 1 61 13 discriminator 3
 247 00c0 1843     		lw	a4,0(a4)
  60:C:/Users/stapi/OneDrive/Desktop/GD32VW553/V1_MQTT_OK/GD32VW55X_Wifi_BLE_SDK/GD32VW55x_RELEASE_V1.0.2/MSDK/wpa_supplicant/src/crypto\aes-omac1.c **** 		total_len += len[e];
 248              		.loc 1 60 29 discriminator 3
 249 00c2 8507     		addi	a5,a5,1
 250              	.LVL29:
  61:C:/Users/stapi/OneDrive/Desktop/GD32VW553/V1_MQTT_OK/GD32VW55X_Wifi_BLE_SDK/GD32VW55x_RELEASE_V1.0.2/MSDK/wpa_supplicant/src/crypto\aes-omac1.c **** 	left = total_len;
 251              		.loc 1 61 13 discriminator 3
 252 00c4 3A9B     		add	s6,s6,a4
 253              	.LVL30:
  60:C:/Users/stapi/OneDrive/Desktop/GD32VW553/V1_MQTT_OK/GD32VW55X_Wifi_BLE_SDK/GD32VW55x_RELEASE_V1.0.2/MSDK/wpa_supplicant/src/crypto\aes-omac1.c **** 		total_len += len[e];
 254              		.loc 1 60 28 is_stmt 1 discriminator 3
 255 00c6 B5B7     		j	.L9
 256              	.LVL31:
 257              	.L16:
 258 00c8 0A87     		mv	a4,sp
  69:C:/Users/stapi/OneDrive/Desktop/GD32VW553/V1_MQTT_OK/GD32VW55X_Wifi_BLE_SDK/GD32VW55x_RELEASE_V1.0.2/MSDK/wpa_supplicant/src/crypto\aes-omac1.c **** 			cbc[i] ^= *pos++;
 259              		.loc 1 69 10 is_stmt 0
 260 00ca 8147     		li	a5,0
 261              	.L15:
 262              	.LVL32:
  70:C:/Users/stapi/OneDrive/Desktop/GD32VW553/V1_MQTT_OK/GD32VW55X_Wifi_BLE_SDK/GD32VW55x_RELEASE_V1.0.2/MSDK/wpa_supplicant/src/crypto\aes-omac1.c **** 			if (pos >= end) {
 263              		.loc 1 70 4 is_stmt 1
  70:C:/Users/stapi/OneDrive/Desktop/GD32VW553/V1_MQTT_OK/GD32VW55X_Wifi_BLE_SDK/GD32VW55x_RELEASE_V1.0.2/MSDK/wpa_supplicant/src/crypto\aes-omac1.c **** 			if (pos >= end) {
 264              		.loc 1 70 11 is_stmt 0
 265 00cc 03460700 		lbu	a2,0(a4)
 266 00d0 83450400 		lbu	a1,0(s0)
  70:C:/Users/stapi/OneDrive/Desktop/GD32VW553/V1_MQTT_OK/GD32VW55X_Wifi_BLE_SDK/GD32VW55x_RELEASE_V1.0.2/MSDK/wpa_supplicant/src/crypto\aes-omac1.c **** 			if (pos >= end) {
 267              		.loc 1 70 18
 268 00d4 93061400 		addi	a3,s0,1
 269              	.LVL33:
  70:C:/Users/stapi/OneDrive/Desktop/GD32VW553/V1_MQTT_OK/GD32VW55X_Wifi_BLE_SDK/GD32VW55x_RELEASE_V1.0.2/MSDK/wpa_supplicant/src/crypto\aes-omac1.c **** 			if (pos >= end) {
 270              		.loc 1 70 11
 271 00d8 2D8E     		xor	a2,a2,a1
 272 00da 2300C700 		sb	a2,0(a4)
  71:C:/Users/stapi/OneDrive/Desktop/GD32VW553/V1_MQTT_OK/GD32VW55X_Wifi_BLE_SDK/GD32VW55x_RELEASE_V1.0.2/MSDK/wpa_supplicant/src/crypto\aes-omac1.c **** 				/*
 273              		.loc 1 71 4 is_stmt 1
  71:C:/Users/stapi/OneDrive/Desktop/GD32VW553/V1_MQTT_OK/GD32VW55X_Wifi_BLE_SDK/GD32VW55x_RELEASE_V1.0.2/MSDK/wpa_supplicant/src/crypto\aes-omac1.c **** 				/*
 274              		.loc 1 71 7 is_stmt 0
 275 00de 63EE9602 		bltu	a3,s1,.L24
  76:C:/Users/stapi/OneDrive/Desktop/GD32VW553/V1_MQTT_OK/GD32VW55X_Wifi_BLE_SDK/GD32VW55x_RELEASE_V1.0.2/MSDK/wpa_supplicant/src/crypto\aes-omac1.c **** 				    left == AES_BLOCK_SIZE)
 276              		.loc 1 76 5 is_stmt 1
  76:C:/Users/stapi/OneDrive/Desktop/GD32VW553/V1_MQTT_OK/GD32VW55X_Wifi_BLE_SDK/GD32VW55x_RELEASE_V1.0.2/MSDK/wpa_supplicant/src/crypto\aes-omac1.c **** 				    left == AES_BLOCK_SIZE)
 277              		.loc 1 76 8 is_stmt 0
 278 00e2 6394A701 		bne	a5,s10,.L13
  76:C:/Users/stapi/OneDrive/Desktop/GD32VW553/V1_MQTT_OK/GD32VW55X_Wifi_BLE_SDK/GD32VW55x_RELEASE_V1.0.2/MSDK/wpa_supplicant/src/crypto\aes-omac1.c **** 				    left == AES_BLOCK_SIZE)
 279              		.loc 1 76 33 discriminator 1
 280 00e6 638C9903 		beq	s3,s9,.L25
 281              	.L13:
  79:C:/Users/stapi/OneDrive/Desktop/GD32VW553/V1_MQTT_OK/GD32VW55X_Wifi_BLE_SDK/GD32VW55x_RELEASE_V1.0.2/MSDK/wpa_supplicant/src/crypto\aes-omac1.c **** 				pos = addr[e];
 282              		.loc 1 79 5 is_stmt 1
  79:C:/Users/stapi/OneDrive/Desktop/GD32VW553/V1_MQTT_OK/GD32VW55X_Wifi_BLE_SDK/GD32VW55x_RELEASE_V1.0.2/MSDK/wpa_supplicant/src/crypto\aes-omac1.c **** 				pos = addr[e];
 283              		.loc 1 79 6 is_stmt 0
 284 00ea 050A     		addi	s4,s4,1
 285              	.LVL34:
  80:C:/Users/stapi/OneDrive/Desktop/GD32VW553/V1_MQTT_OK/GD32VW55X_Wifi_BLE_SDK/GD32VW55x_RELEASE_V1.0.2/MSDK/wpa_supplicant/src/crypto\aes-omac1.c **** 				end = pos + len[e];
 286              		.loc 1 80 5 is_stmt 1
  80:C:/Users/stapi/OneDrive/Desktop/GD32VW553/V1_MQTT_OK/GD32VW55X_Wifi_BLE_SDK/GD32VW55x_RELEASE_V1.0.2/MSDK/wpa_supplicant/src/crypto\aes-omac1.c **** 				end = pos + len[e];
 287              		.loc 1 80 15 is_stmt 0
 288 00ec 93162A00 		slli	a3,s4,2
 289              	.LVL35:
  80:C:/Users/stapi/OneDrive/Desktop/GD32VW553/V1_MQTT_OK/GD32VW55X_Wifi_BLE_SDK/GD32VW55x_RELEASE_V1.0.2/MSDK/wpa_supplicant/src/crypto\aes-omac1.c **** 				end = pos + len[e];
 290              		.loc 1 80 9
 291 00f0 3386DB00 		add	a2,s7,a3
  81:C:/Users/stapi/OneDrive/Desktop/GD32VW553/V1_MQTT_OK/GD32VW55X_Wifi_BLE_SDK/GD32VW55x_RELEASE_V1.0.2/MSDK/wpa_supplicant/src/crypto\aes-omac1.c **** 			}
 292              		.loc 1 81 20
 293 00f4 D696     		add	a3,s5,a3
  80:C:/Users/stapi/OneDrive/Desktop/GD32VW553/V1_MQTT_OK/GD32VW55X_Wifi_BLE_SDK/GD32VW55x_RELEASE_V1.0.2/MSDK/wpa_supplicant/src/crypto\aes-omac1.c **** 				end = pos + len[e];
 294              		.loc 1 80 9
 295 00f6 0042     		lw	s0,0(a2)
 296              	.LVL36:
  81:C:/Users/stapi/OneDrive/Desktop/GD32VW553/V1_MQTT_OK/GD32VW55X_Wifi_BLE_SDK/GD32VW55x_RELEASE_V1.0.2/MSDK/wpa_supplicant/src/crypto\aes-omac1.c **** 			}
 297              		.loc 1 81 5 is_stmt 1
  81:C:/Users/stapi/OneDrive/Desktop/GD32VW553/V1_MQTT_OK/GD32VW55X_Wifi_BLE_SDK/GD32VW55x_RELEASE_V1.0.2/MSDK/wpa_supplicant/src/crypto\aes-omac1.c **** 			}
 298              		.loc 1 81 9 is_stmt 0
 299 00f8 8442     		lw	s1,0(a3)
 300              	.LVL37:
 301 00fa A294     		add	s1,s0,s1
 302              	.LVL38:
 303              	.L12:
  69:C:/Users/stapi/OneDrive/Desktop/GD32VW553/V1_MQTT_OK/GD32VW55X_Wifi_BLE_SDK/GD32VW55x_RELEASE_V1.0.2/MSDK/wpa_supplicant/src/crypto\aes-omac1.c **** 			cbc[i] ^= *pos++;
 304              		.loc 1 69 35 is_stmt 1 discriminator 2
  69:C:/Users/stapi/OneDrive/Desktop/GD32VW553/V1_MQTT_OK/GD32VW55X_Wifi_BLE_SDK/GD32VW55x_RELEASE_V1.0.2/MSDK/wpa_supplicant/src/crypto\aes-omac1.c **** 			cbc[i] ^= *pos++;
 305              		.loc 1 69 36 is_stmt 0 discriminator 2
 306 00fc 8507     		addi	a5,a5,1
 307              	.LVL39:
  69:C:/Users/stapi/OneDrive/Desktop/GD32VW553/V1_MQTT_OK/GD32VW55X_Wifi_BLE_SDK/GD32VW55x_RELEASE_V1.0.2/MSDK/wpa_supplicant/src/crypto\aes-omac1.c **** 			cbc[i] ^= *pos++;
 308              		.loc 1 69 15 is_stmt 1 discriminator 2
  69:C:/Users/stapi/OneDrive/Desktop/GD32VW553/V1_MQTT_OK/GD32VW55X_Wifi_BLE_SDK/GD32VW55x_RELEASE_V1.0.2/MSDK/wpa_supplicant/src/crypto\aes-omac1.c **** 			cbc[i] ^= *pos++;
 309              		.loc 1 69 3 is_stmt 0 discriminator 2
 310 00fe 0507     		addi	a4,a4,1
 311 0100 E39697FD 		bne	a5,s9,.L15
  84:C:/Users/stapi/OneDrive/Desktop/GD32VW553/V1_MQTT_OK/GD32VW55X_Wifi_BLE_SDK/GD32VW55x_RELEASE_V1.0.2/MSDK/wpa_supplicant/src/crypto\aes-omac1.c **** 			aes_encrypt(ctx, cbc, cbc);
 312              		.loc 1 84 3 is_stmt 1
  84:C:/Users/stapi/OneDrive/Desktop/GD32VW553/V1_MQTT_OK/GD32VW55X_Wifi_BLE_SDK/GD32VW55x_RELEASE_V1.0.2/MSDK/wpa_supplicant/src/crypto\aes-omac1.c **** 			aes_encrypt(ctx, cbc, cbc);
 313              		.loc 1 84 6 is_stmt 0
 314 0104 63899901 		beq	s3,s9,.L14
  85:C:/Users/stapi/OneDrive/Desktop/GD32VW553/V1_MQTT_OK/GD32VW55X_Wifi_BLE_SDK/GD32VW55x_RELEASE_V1.0.2/MSDK/wpa_supplicant/src/crypto\aes-omac1.c **** 		left -= AES_BLOCK_SIZE;
 315              		.loc 1 85 4 is_stmt 1
 316 0108 0A86     		mv	a2,sp
 317 010a 8A85     		mv	a1,sp
 318 010c 4A85     		mv	a0,s2
 319 010e 97000000 		call	aes_encrypt
 319      E7800000 
 320              	.LVL40:
 321              	.L14:
  86:C:/Users/stapi/OneDrive/Desktop/GD32VW553/V1_MQTT_OK/GD32VW55X_Wifi_BLE_SDK/GD32VW55x_RELEASE_V1.0.2/MSDK/wpa_supplicant/src/crypto\aes-omac1.c **** 	}
 322              		.loc 1 86 3
  86:C:/Users/stapi/OneDrive/Desktop/GD32VW553/V1_MQTT_OK/GD32VW55X_Wifi_BLE_SDK/GD32VW55x_RELEASE_V1.0.2/MSDK/wpa_supplicant/src/crypto\aes-omac1.c **** 	}
 323              		.loc 1 86 8 is_stmt 0
 324 0116 C119     		addi	s3,s3,-16
 325              	.LVL41:
 326 0118 05BF     		j	.L11
 327              	.LVL42:
 328              	.L24:
 329 011a 3684     		mv	s0,a3
 330 011c C5B7     		j	.L12
 331              	.L25:
 332 011e 3684     		mv	s0,a3
 333 0120 DDBF     		j	.L14
 334              	.LVL43:
 335              	.L17:
  93:C:/Users/stapi/OneDrive/Desktop/GD32VW553/V1_MQTT_OK/GD32VW55X_Wifi_BLE_SDK/GD32VW55x_RELEASE_V1.0.2/MSDK/wpa_supplicant/src/crypto\aes-omac1.c **** 		for (i = 0; i < left; i++) {
 336              		.loc 1 93 11 discriminator 1
 337 0122 631F0B00 		bne	s6,zero,.L19
 338              	.LVL44:
 339              	.L21:
 106:C:/Users/stapi/OneDrive/Desktop/GD32VW553/V1_MQTT_OK/GD32VW55X_Wifi_BLE_SDK/GD32VW55x_RELEASE_V1.0.2/MSDK/wpa_supplicant/src/crypto\aes-omac1.c **** 			}
 107:C:/Users/stapi/OneDrive/Desktop/GD32VW553/V1_MQTT_OK/GD32VW55X_Wifi_BLE_SDK/GD32VW55x_RELEASE_V1.0.2/MSDK/wpa_supplicant/src/crypto\aes-omac1.c **** 		}
 108:C:/Users/stapi/OneDrive/Desktop/GD32VW553/V1_MQTT_OK/GD32VW55X_Wifi_BLE_SDK/GD32VW55x_RELEASE_V1.0.2/MSDK/wpa_supplicant/src/crypto\aes-omac1.c **** 		cbc[left] ^= 0x80;
 340              		.loc 1 108 3 is_stmt 1
 341              		.loc 1 108 13 is_stmt 0
 342 0126 1C10     		addi	a5,sp,32
 343 0128 BE99     		add	s3,a5,s3
 344 012a 83C709FE 		lbu	a5,-32(s3)
 109:C:/Users/stapi/OneDrive/Desktop/GD32VW553/V1_MQTT_OK/GD32VW55X_Wifi_BLE_SDK/GD32VW55x_RELEASE_V1.0.2/MSDK/wpa_supplicant/src/crypto\aes-omac1.c **** 		gf_mulx(pad);
 345              		.loc 1 109 3
 346 012e 0808     		addi	a0,sp,16
 108:C:/Users/stapi/OneDrive/Desktop/GD32VW553/V1_MQTT_OK/GD32VW55X_Wifi_BLE_SDK/GD32VW55x_RELEASE_V1.0.2/MSDK/wpa_supplicant/src/crypto\aes-omac1.c **** 		gf_mulx(pad);
 347              		.loc 1 108 13
 348 0130 93C707F8 		xori	a5,a5,-128
 349 0134 2380F9FE 		sb	a5,-32(s3)
 350              		.loc 1 109 3 is_stmt 1
 351 0138 97000000 		call	gf_mulx
 351      E7800000 
 352              	.LVL45:
 353              	.L19:
 354 0140 1C08     		addi	a5,sp,16
 355 0142 0147     		li	a4,0
 110:C:/Users/stapi/OneDrive/Desktop/GD32VW553/V1_MQTT_OK/GD32VW55X_Wifi_BLE_SDK/GD32VW55x_RELEASE_V1.0.2/MSDK/wpa_supplicant/src/crypto\aes-omac1.c **** 	}
 111:C:/Users/stapi/OneDrive/Desktop/GD32VW553/V1_MQTT_OK/GD32VW55X_Wifi_BLE_SDK/GD32VW55x_RELEASE_V1.0.2/MSDK/wpa_supplicant/src/crypto\aes-omac1.c **** 
 112:C:/Users/stapi/OneDrive/Desktop/GD32VW553/V1_MQTT_OK/GD32VW55X_Wifi_BLE_SDK/GD32VW55x_RELEASE_V1.0.2/MSDK/wpa_supplicant/src/crypto\aes-omac1.c **** 	for (i = 0; i < AES_BLOCK_SIZE; i++)
 356              		.loc 1 112 2 is_stmt 0 discriminator 3
 357 0144 4146     		li	a2,16
 358              	.L22:
 359              	.LVL46:
 113:C:/Users/stapi/OneDrive/Desktop/GD32VW553/V1_MQTT_OK/GD32VW55X_Wifi_BLE_SDK/GD32VW55x_RELEASE_V1.0.2/MSDK/wpa_supplicant/src/crypto\aes-omac1.c **** 		pad[i] ^= cbc[i];
 360              		.loc 1 113 3 is_stmt 1 discriminator 3
 361              		.loc 1 113 16 is_stmt 0 discriminator 3
 362 0146 B306E100 		add	a3,sp,a4
 363              		.loc 1 113 10 discriminator 3
 364 014a 83C50700 		lbu	a1,0(a5)
 365 014e 83C60600 		lbu	a3,0(a3)
 112:C:/Users/stapi/OneDrive/Desktop/GD32VW553/V1_MQTT_OK/GD32VW55X_Wifi_BLE_SDK/GD32VW55x_RELEASE_V1.0.2/MSDK/wpa_supplicant/src/crypto\aes-omac1.c **** 		pad[i] ^= cbc[i];
 366              		.loc 1 112 35 discriminator 3
 367 0152 0507     		addi	a4,a4,1
 368              	.LVL47:
 112:C:/Users/stapi/OneDrive/Desktop/GD32VW553/V1_MQTT_OK/GD32VW55X_Wifi_BLE_SDK/GD32VW55x_RELEASE_V1.0.2/MSDK/wpa_supplicant/src/crypto\aes-omac1.c **** 		pad[i] ^= cbc[i];
 369              		.loc 1 112 2 discriminator 3
 370 0154 8507     		addi	a5,a5,1
 371              		.loc 1 113 10 discriminator 3
 372 0156 AD8E     		xor	a3,a3,a1
 373 0158 A38FD7FE 		sb	a3,-1(a5)
 112:C:/Users/stapi/OneDrive/Desktop/GD32VW553/V1_MQTT_OK/GD32VW55X_Wifi_BLE_SDK/GD32VW55x_RELEASE_V1.0.2/MSDK/wpa_supplicant/src/crypto\aes-omac1.c **** 		pad[i] ^= cbc[i];
 374              		.loc 1 112 34 is_stmt 1 discriminator 3
 375              	.LVL48:
 112:C:/Users/stapi/OneDrive/Desktop/GD32VW553/V1_MQTT_OK/GD32VW55X_Wifi_BLE_SDK/GD32VW55x_RELEASE_V1.0.2/MSDK/wpa_supplicant/src/crypto\aes-omac1.c **** 		pad[i] ^= cbc[i];
 376              		.loc 1 112 14 discriminator 3
 112:C:/Users/stapi/OneDrive/Desktop/GD32VW553/V1_MQTT_OK/GD32VW55X_Wifi_BLE_SDK/GD32VW55x_RELEASE_V1.0.2/MSDK/wpa_supplicant/src/crypto\aes-omac1.c **** 		pad[i] ^= cbc[i];
 377              		.loc 1 112 2 is_stmt 0 discriminator 3
 378 015c E315C7FE 		bne	a4,a2,.L22
 114:C:/Users/stapi/OneDrive/Desktop/GD32VW553/V1_MQTT_OK/GD32VW55X_Wifi_BLE_SDK/GD32VW55x_RELEASE_V1.0.2/MSDK/wpa_supplicant/src/crypto\aes-omac1.c **** 	aes_encrypt(ctx, pad, mac);
 379              		.loc 1 114 2 is_stmt 1
 380 0160 6286     		mv	a2,s8
 381 0162 0C08     		addi	a1,sp,16
 382 0164 4A85     		mv	a0,s2
 383 0166 97000000 		call	aes_encrypt
 383      E7800000 
 384              	.LVL49:
 115:C:/Users/stapi/OneDrive/Desktop/GD32VW553/V1_MQTT_OK/GD32VW55X_Wifi_BLE_SDK/GD32VW55x_RELEASE_V1.0.2/MSDK/wpa_supplicant/src/crypto\aes-omac1.c **** 	aes_encrypt_deinit(ctx);
 385              		.loc 1 115 2
 386 016e 4A85     		mv	a0,s2
 387 0170 97000000 		call	aes_encrypt_deinit
 387      E7800000 
 388              	.LVL50:
 116:C:/Users/stapi/OneDrive/Desktop/GD32VW553/V1_MQTT_OK/GD32VW55X_Wifi_BLE_SDK/GD32VW55x_RELEASE_V1.0.2/MSDK/wpa_supplicant/src/crypto\aes-omac1.c **** 	return 0;
 389              		.loc 1 116 2
 390              		.loc 1 116 9 is_stmt 0
 391 0178 0145     		li	a0,0
 392              	.LVL51:
 393              	.L7:
 117:C:/Users/stapi/OneDrive/Desktop/GD32VW553/V1_MQTT_OK/GD32VW55X_Wifi_BLE_SDK/GD32VW55x_RELEASE_V1.0.2/MSDK/wpa_supplicant/src/crypto\aes-omac1.c **** }
 394              		.loc 1 117 1
 395 017a 0561     		addi	sp,sp,32
 396              		.cfi_remember_state
 397              		.cfi_def_cfa_offset 0
 398 017c 17030000 		tail	__riscv_restore_11
 398      67000300 
 399              		.cfi_restore 26
 400              		.cfi_restore 25
 401              		.cfi_restore 24
 402              		.cfi_restore 23
 403              		.cfi_restore 22
 404              		.cfi_restore 21
 405              		.cfi_restore 20
 406              		.cfi_restore 19
 407              		.cfi_restore 18
 408              		.cfi_restore 9
 409              		.cfi_restore 8
 410              		.cfi_restore 1
 411              		.cfi_def_cfa_offset -48
 412              	.LVL52:
 413              	.L26:
 414              		.cfi_restore_state
 415 0184 3284     		mv	s0,a2
 416 0186 3DB7     		j	.L20
 417              	.LVL53:
 418              	.L23:
  56:C:/Users/stapi/OneDrive/Desktop/GD32VW553/V1_MQTT_OK/GD32VW55X_Wifi_BLE_SDK/GD32VW55x_RELEASE_V1.0.2/MSDK/wpa_supplicant/src/crypto\aes-omac1.c **** 	os_memset(cbc, 0, AES_BLOCK_SIZE);
 419              		.loc 1 56 10
 420 0188 7D55     		li	a0,-1
 421              	.LVL54:
 422 018a C5BF     		j	.L7
 423              		.cfi_endproc
 424              	.LFE72:
 426              		.section	.text.omac1_aes_128_vector,"ax",@progbits
 427              		.align	1
 428              		.globl	omac1_aes_128_vector
 430              	omac1_aes_128_vector:
 431              	.LFB73:
 118:C:/Users/stapi/OneDrive/Desktop/GD32VW553/V1_MQTT_OK/GD32VW55X_Wifi_BLE_SDK/GD32VW55x_RELEASE_V1.0.2/MSDK/wpa_supplicant/src/crypto\aes-omac1.c **** 
 119:C:/Users/stapi/OneDrive/Desktop/GD32VW553/V1_MQTT_OK/GD32VW55X_Wifi_BLE_SDK/GD32VW55x_RELEASE_V1.0.2/MSDK/wpa_supplicant/src/crypto\aes-omac1.c **** 
 120:C:/Users/stapi/OneDrive/Desktop/GD32VW553/V1_MQTT_OK/GD32VW55X_Wifi_BLE_SDK/GD32VW55x_RELEASE_V1.0.2/MSDK/wpa_supplicant/src/crypto\aes-omac1.c **** /**
 121:C:/Users/stapi/OneDrive/Desktop/GD32VW553/V1_MQTT_OK/GD32VW55X_Wifi_BLE_SDK/GD32VW55x_RELEASE_V1.0.2/MSDK/wpa_supplicant/src/crypto\aes-omac1.c ****  * omac1_aes_128_vector - One-Key CBC MAC (OMAC1) hash with AES-128
 122:C:/Users/stapi/OneDrive/Desktop/GD32VW553/V1_MQTT_OK/GD32VW55X_Wifi_BLE_SDK/GD32VW55x_RELEASE_V1.0.2/MSDK/wpa_supplicant/src/crypto\aes-omac1.c ****  * @key: 128-bit key for the hash operation
 123:C:/Users/stapi/OneDrive/Desktop/GD32VW553/V1_MQTT_OK/GD32VW55X_Wifi_BLE_SDK/GD32VW55x_RELEASE_V1.0.2/MSDK/wpa_supplicant/src/crypto\aes-omac1.c ****  * @num_elem: Number of elements in the data vector
 124:C:/Users/stapi/OneDrive/Desktop/GD32VW553/V1_MQTT_OK/GD32VW55X_Wifi_BLE_SDK/GD32VW55x_RELEASE_V1.0.2/MSDK/wpa_supplicant/src/crypto\aes-omac1.c ****  * @addr: Pointers to the data areas
 125:C:/Users/stapi/OneDrive/Desktop/GD32VW553/V1_MQTT_OK/GD32VW55X_Wifi_BLE_SDK/GD32VW55x_RELEASE_V1.0.2/MSDK/wpa_supplicant/src/crypto\aes-omac1.c ****  * @len: Lengths of the data blocks
 126:C:/Users/stapi/OneDrive/Desktop/GD32VW553/V1_MQTT_OK/GD32VW55X_Wifi_BLE_SDK/GD32VW55x_RELEASE_V1.0.2/MSDK/wpa_supplicant/src/crypto\aes-omac1.c ****  * @mac: Buffer for MAC (128 bits, i.e., 16 bytes)
 127:C:/Users/stapi/OneDrive/Desktop/GD32VW553/V1_MQTT_OK/GD32VW55X_Wifi_BLE_SDK/GD32VW55x_RELEASE_V1.0.2/MSDK/wpa_supplicant/src/crypto\aes-omac1.c ****  * Returns: 0 on success, -1 on failure
 128:C:/Users/stapi/OneDrive/Desktop/GD32VW553/V1_MQTT_OK/GD32VW55X_Wifi_BLE_SDK/GD32VW55x_RELEASE_V1.0.2/MSDK/wpa_supplicant/src/crypto\aes-omac1.c ****  *
 129:C:/Users/stapi/OneDrive/Desktop/GD32VW553/V1_MQTT_OK/GD32VW55X_Wifi_BLE_SDK/GD32VW55x_RELEASE_V1.0.2/MSDK/wpa_supplicant/src/crypto\aes-omac1.c ****  * This is a mode for using block cipher (AES in this case) for authentication.
 130:C:/Users/stapi/OneDrive/Desktop/GD32VW553/V1_MQTT_OK/GD32VW55X_Wifi_BLE_SDK/GD32VW55x_RELEASE_V1.0.2/MSDK/wpa_supplicant/src/crypto\aes-omac1.c ****  * OMAC1 was standardized with the name CMAC by NIST in a Special Publication
 131:C:/Users/stapi/OneDrive/Desktop/GD32VW553/V1_MQTT_OK/GD32VW55X_Wifi_BLE_SDK/GD32VW55x_RELEASE_V1.0.2/MSDK/wpa_supplicant/src/crypto\aes-omac1.c ****  * (SP) 800-38B.
 132:C:/Users/stapi/OneDrive/Desktop/GD32VW553/V1_MQTT_OK/GD32VW55X_Wifi_BLE_SDK/GD32VW55x_RELEASE_V1.0.2/MSDK/wpa_supplicant/src/crypto\aes-omac1.c ****  */
 133:C:/Users/stapi/OneDrive/Desktop/GD32VW553/V1_MQTT_OK/GD32VW55X_Wifi_BLE_SDK/GD32VW55x_RELEASE_V1.0.2/MSDK/wpa_supplicant/src/crypto\aes-omac1.c **** int omac1_aes_128_vector(const u8 *key, size_t num_elem,
 134:C:/Users/stapi/OneDrive/Desktop/GD32VW553/V1_MQTT_OK/GD32VW55X_Wifi_BLE_SDK/GD32VW55x_RELEASE_V1.0.2/MSDK/wpa_supplicant/src/crypto\aes-omac1.c **** 			 const u8 *addr[], const size_t *len, u8 *mac)
 135:C:/Users/stapi/OneDrive/Desktop/GD32VW553/V1_MQTT_OK/GD32VW55X_Wifi_BLE_SDK/GD32VW55x_RELEASE_V1.0.2/MSDK/wpa_supplicant/src/crypto\aes-omac1.c **** {
 432              		.loc 1 135 1 is_stmt 1
 433              		.cfi_startproc
 434              	.LVL55:
 136:C:/Users/stapi/OneDrive/Desktop/GD32VW553/V1_MQTT_OK/GD32VW55X_Wifi_BLE_SDK/GD32VW55x_RELEASE_V1.0.2/MSDK/wpa_supplicant/src/crypto\aes-omac1.c **** 	return omac1_aes_vector(key, 16, num_elem, addr, len, mac);
 435              		.loc 1 136 2
 135:C:/Users/stapi/OneDrive/Desktop/GD32VW553/V1_MQTT_OK/GD32VW55X_Wifi_BLE_SDK/GD32VW55x_RELEASE_V1.0.2/MSDK/wpa_supplicant/src/crypto\aes-omac1.c **** 	return omac1_aes_vector(key, 16, num_elem, addr, len, mac);
 436              		.loc 1 135 1 is_stmt 0
 437 0000 BA87     		mv	a5,a4
 438              		.loc 1 136 9
 439 0002 3687     		mv	a4,a3
 440              	.LVL56:
 441 0004 B286     		mv	a3,a2
 442              	.LVL57:
 443 0006 2E86     		mv	a2,a1
 444              	.LVL58:
 445 0008 C145     		li	a1,16
 446              	.LVL59:
 447 000a 17030000 		tail	omac1_aes_vector
 447      67000300 
 448              	.LVL60:
 449              		.cfi_endproc
 450              	.LFE73:
 452              		.section	.text.omac1_aes_128,"ax",@progbits
 453              		.align	1
 454              		.globl	omac1_aes_128
 456              	omac1_aes_128:
 457              	.LFB74:
 137:C:/Users/stapi/OneDrive/Desktop/GD32VW553/V1_MQTT_OK/GD32VW55X_Wifi_BLE_SDK/GD32VW55x_RELEASE_V1.0.2/MSDK/wpa_supplicant/src/crypto\aes-omac1.c **** }
 138:C:/Users/stapi/OneDrive/Desktop/GD32VW553/V1_MQTT_OK/GD32VW55X_Wifi_BLE_SDK/GD32VW55x_RELEASE_V1.0.2/MSDK/wpa_supplicant/src/crypto\aes-omac1.c **** 
 139:C:/Users/stapi/OneDrive/Desktop/GD32VW553/V1_MQTT_OK/GD32VW55X_Wifi_BLE_SDK/GD32VW55x_RELEASE_V1.0.2/MSDK/wpa_supplicant/src/crypto\aes-omac1.c **** 
 140:C:/Users/stapi/OneDrive/Desktop/GD32VW553/V1_MQTT_OK/GD32VW55X_Wifi_BLE_SDK/GD32VW55x_RELEASE_V1.0.2/MSDK/wpa_supplicant/src/crypto\aes-omac1.c **** /**
 141:C:/Users/stapi/OneDrive/Desktop/GD32VW553/V1_MQTT_OK/GD32VW55X_Wifi_BLE_SDK/GD32VW55x_RELEASE_V1.0.2/MSDK/wpa_supplicant/src/crypto\aes-omac1.c ****  * omac1_aes_128 - One-Key CBC MAC (OMAC1) hash with AES-128 (aka AES-CMAC)
 142:C:/Users/stapi/OneDrive/Desktop/GD32VW553/V1_MQTT_OK/GD32VW55X_Wifi_BLE_SDK/GD32VW55x_RELEASE_V1.0.2/MSDK/wpa_supplicant/src/crypto\aes-omac1.c ****  * @key: 128-bit key for the hash operation
 143:C:/Users/stapi/OneDrive/Desktop/GD32VW553/V1_MQTT_OK/GD32VW55X_Wifi_BLE_SDK/GD32VW55x_RELEASE_V1.0.2/MSDK/wpa_supplicant/src/crypto\aes-omac1.c ****  * @data: Data buffer for which a MAC is determined
 144:C:/Users/stapi/OneDrive/Desktop/GD32VW553/V1_MQTT_OK/GD32VW55X_Wifi_BLE_SDK/GD32VW55x_RELEASE_V1.0.2/MSDK/wpa_supplicant/src/crypto\aes-omac1.c ****  * @data_len: Length of data buffer in bytes
 145:C:/Users/stapi/OneDrive/Desktop/GD32VW553/V1_MQTT_OK/GD32VW55X_Wifi_BLE_SDK/GD32VW55x_RELEASE_V1.0.2/MSDK/wpa_supplicant/src/crypto\aes-omac1.c ****  * @mac: Buffer for MAC (128 bits, i.e., 16 bytes)
 146:C:/Users/stapi/OneDrive/Desktop/GD32VW553/V1_MQTT_OK/GD32VW55X_Wifi_BLE_SDK/GD32VW55x_RELEASE_V1.0.2/MSDK/wpa_supplicant/src/crypto\aes-omac1.c ****  * Returns: 0 on success, -1 on failure
 147:C:/Users/stapi/OneDrive/Desktop/GD32VW553/V1_MQTT_OK/GD32VW55X_Wifi_BLE_SDK/GD32VW55x_RELEASE_V1.0.2/MSDK/wpa_supplicant/src/crypto\aes-omac1.c ****  *
 148:C:/Users/stapi/OneDrive/Desktop/GD32VW553/V1_MQTT_OK/GD32VW55X_Wifi_BLE_SDK/GD32VW55x_RELEASE_V1.0.2/MSDK/wpa_supplicant/src/crypto\aes-omac1.c ****  * This is a mode for using block cipher (AES in this case) for authentication.
 149:C:/Users/stapi/OneDrive/Desktop/GD32VW553/V1_MQTT_OK/GD32VW55X_Wifi_BLE_SDK/GD32VW55x_RELEASE_V1.0.2/MSDK/wpa_supplicant/src/crypto\aes-omac1.c ****  * OMAC1 was standardized with the name CMAC by NIST in a Special Publication
 150:C:/Users/stapi/OneDrive/Desktop/GD32VW553/V1_MQTT_OK/GD32VW55X_Wifi_BLE_SDK/GD32VW55x_RELEASE_V1.0.2/MSDK/wpa_supplicant/src/crypto\aes-omac1.c ****  * (SP) 800-38B.
 151:C:/Users/stapi/OneDrive/Desktop/GD32VW553/V1_MQTT_OK/GD32VW55X_Wifi_BLE_SDK/GD32VW55x_RELEASE_V1.0.2/MSDK/wpa_supplicant/src/crypto\aes-omac1.c ****  */
 152:C:/Users/stapi/OneDrive/Desktop/GD32VW553/V1_MQTT_OK/GD32VW55X_Wifi_BLE_SDK/GD32VW55x_RELEASE_V1.0.2/MSDK/wpa_supplicant/src/crypto\aes-omac1.c **** int omac1_aes_128(const u8 *key, const u8 *data, size_t data_len, u8 *mac)
 153:C:/Users/stapi/OneDrive/Desktop/GD32VW553/V1_MQTT_OK/GD32VW55X_Wifi_BLE_SDK/GD32VW55x_RELEASE_V1.0.2/MSDK/wpa_supplicant/src/crypto\aes-omac1.c **** {
 458              		.loc 1 153 1 is_stmt 1
 459              		.cfi_startproc
 460              	.LVL61:
 461 0000 17030000 		call	t0,__riscv_save_0
 461      E7020300 
 462              		.cfi_offset 1, -4
 463              		.cfi_def_cfa_offset 16
 154:C:/Users/stapi/OneDrive/Desktop/GD32VW553/V1_MQTT_OK/GD32VW55X_Wifi_BLE_SDK/GD32VW55x_RELEASE_V1.0.2/MSDK/wpa_supplicant/src/crypto\aes-omac1.c **** 	return omac1_aes_128_vector(key, 1, &data, &data_len, mac);
 464              		.loc 1 154 2
 153:C:/Users/stapi/OneDrive/Desktop/GD32VW553/V1_MQTT_OK/GD32VW55X_Wifi_BLE_SDK/GD32VW55x_RELEASE_V1.0.2/MSDK/wpa_supplicant/src/crypto\aes-omac1.c **** 	return omac1_aes_128_vector(key, 1, &data, &data_len, mac);
 465              		.loc 1 153 1 is_stmt 0
 466 0008 4111     		addi	sp,sp,-16
 467              		.cfi_def_cfa_offset 32
 153:C:/Users/stapi/OneDrive/Desktop/GD32VW553/V1_MQTT_OK/GD32VW55X_Wifi_BLE_SDK/GD32VW55x_RELEASE_V1.0.2/MSDK/wpa_supplicant/src/crypto\aes-omac1.c **** 	return omac1_aes_128_vector(key, 1, &data, &data_len, mac);
 468              		.loc 1 153 1
 469 000a 2EC6     		sw	a1,12(sp)
 470 000c 32C4     		sw	a2,8(sp)
 471 000e 3687     		mv	a4,a3
 472              		.loc 1 154 9
 473 0010 7000     		addi	a2,sp,12
 474              	.LVL62:
 475 0012 3400     		addi	a3,sp,8
 476              	.LVL63:
 477 0014 8545     		li	a1,1
 478              	.LVL64:
 479 0016 97000000 		call	omac1_aes_128_vector
 479      E7800000 
 480              	.LVL65:
 155:C:/Users/stapi/OneDrive/Desktop/GD32VW553/V1_MQTT_OK/GD32VW55X_Wifi_BLE_SDK/GD32VW55x_RELEASE_V1.0.2/MSDK/wpa_supplicant/src/crypto\aes-omac1.c **** }
 481              		.loc 1 155 1
 482 001e 4101     		addi	sp,sp,16
 483              		.cfi_def_cfa_offset 0
 484 0020 17030000 		tail	__riscv_restore_0
 484      67000300 
 485              		.cfi_restore 1
 486              		.cfi_def_cfa_offset -16
 487              		.cfi_endproc
 488              	.LFE74:
 490              		.section	.text.omac1_aes_256,"ax",@progbits
 491              		.align	1
 492              		.globl	omac1_aes_256
 494              	omac1_aes_256:
 495              	.LFB75:
 156:C:/Users/stapi/OneDrive/Desktop/GD32VW553/V1_MQTT_OK/GD32VW55X_Wifi_BLE_SDK/GD32VW55x_RELEASE_V1.0.2/MSDK/wpa_supplicant/src/crypto\aes-omac1.c **** 
 157:C:/Users/stapi/OneDrive/Desktop/GD32VW553/V1_MQTT_OK/GD32VW55X_Wifi_BLE_SDK/GD32VW55x_RELEASE_V1.0.2/MSDK/wpa_supplicant/src/crypto\aes-omac1.c **** 
 158:C:/Users/stapi/OneDrive/Desktop/GD32VW553/V1_MQTT_OK/GD32VW55X_Wifi_BLE_SDK/GD32VW55x_RELEASE_V1.0.2/MSDK/wpa_supplicant/src/crypto\aes-omac1.c **** /**
 159:C:/Users/stapi/OneDrive/Desktop/GD32VW553/V1_MQTT_OK/GD32VW55X_Wifi_BLE_SDK/GD32VW55x_RELEASE_V1.0.2/MSDK/wpa_supplicant/src/crypto\aes-omac1.c ****  * omac1_aes_256 - One-Key CBC MAC (OMAC1) hash with AES-256 (aka AES-CMAC)
 160:C:/Users/stapi/OneDrive/Desktop/GD32VW553/V1_MQTT_OK/GD32VW55X_Wifi_BLE_SDK/GD32VW55x_RELEASE_V1.0.2/MSDK/wpa_supplicant/src/crypto\aes-omac1.c ****  * @key: 256-bit key for the hash operation
 161:C:/Users/stapi/OneDrive/Desktop/GD32VW553/V1_MQTT_OK/GD32VW55X_Wifi_BLE_SDK/GD32VW55x_RELEASE_V1.0.2/MSDK/wpa_supplicant/src/crypto\aes-omac1.c ****  * @data: Data buffer for which a MAC is determined
 162:C:/Users/stapi/OneDrive/Desktop/GD32VW553/V1_MQTT_OK/GD32VW55X_Wifi_BLE_SDK/GD32VW55x_RELEASE_V1.0.2/MSDK/wpa_supplicant/src/crypto\aes-omac1.c ****  * @data_len: Length of data buffer in bytes
 163:C:/Users/stapi/OneDrive/Desktop/GD32VW553/V1_MQTT_OK/GD32VW55X_Wifi_BLE_SDK/GD32VW55x_RELEASE_V1.0.2/MSDK/wpa_supplicant/src/crypto\aes-omac1.c ****  * @mac: Buffer for MAC (128 bits, i.e., 16 bytes)
 164:C:/Users/stapi/OneDrive/Desktop/GD32VW553/V1_MQTT_OK/GD32VW55X_Wifi_BLE_SDK/GD32VW55x_RELEASE_V1.0.2/MSDK/wpa_supplicant/src/crypto\aes-omac1.c ****  * Returns: 0 on success, -1 on failure
 165:C:/Users/stapi/OneDrive/Desktop/GD32VW553/V1_MQTT_OK/GD32VW55X_Wifi_BLE_SDK/GD32VW55x_RELEASE_V1.0.2/MSDK/wpa_supplicant/src/crypto\aes-omac1.c ****  *
 166:C:/Users/stapi/OneDrive/Desktop/GD32VW553/V1_MQTT_OK/GD32VW55X_Wifi_BLE_SDK/GD32VW55x_RELEASE_V1.0.2/MSDK/wpa_supplicant/src/crypto\aes-omac1.c ****  * This is a mode for using block cipher (AES in this case) for authentication.
 167:C:/Users/stapi/OneDrive/Desktop/GD32VW553/V1_MQTT_OK/GD32VW55X_Wifi_BLE_SDK/GD32VW55x_RELEASE_V1.0.2/MSDK/wpa_supplicant/src/crypto\aes-omac1.c ****  * OMAC1 was standardized with the name CMAC by NIST in a Special Publication
 168:C:/Users/stapi/OneDrive/Desktop/GD32VW553/V1_MQTT_OK/GD32VW55X_Wifi_BLE_SDK/GD32VW55x_RELEASE_V1.0.2/MSDK/wpa_supplicant/src/crypto\aes-omac1.c ****  * (SP) 800-38B.
 169:C:/Users/stapi/OneDrive/Desktop/GD32VW553/V1_MQTT_OK/GD32VW55X_Wifi_BLE_SDK/GD32VW55x_RELEASE_V1.0.2/MSDK/wpa_supplicant/src/crypto\aes-omac1.c ****  */
 170:C:/Users/stapi/OneDrive/Desktop/GD32VW553/V1_MQTT_OK/GD32VW55X_Wifi_BLE_SDK/GD32VW55x_RELEASE_V1.0.2/MSDK/wpa_supplicant/src/crypto\aes-omac1.c **** int omac1_aes_256(const u8 *key, const u8 *data, size_t data_len, u8 *mac)
 171:C:/Users/stapi/OneDrive/Desktop/GD32VW553/V1_MQTT_OK/GD32VW55X_Wifi_BLE_SDK/GD32VW55x_RELEASE_V1.0.2/MSDK/wpa_supplicant/src/crypto\aes-omac1.c **** {
 496              		.loc 1 171 1 is_stmt 1
 497              		.cfi_startproc
 498              	.LVL66:
 499 0000 17030000 		call	t0,__riscv_save_0
 499      E7020300 
 500              		.cfi_offset 1, -4
 501              		.cfi_def_cfa_offset 16
 172:C:/Users/stapi/OneDrive/Desktop/GD32VW553/V1_MQTT_OK/GD32VW55X_Wifi_BLE_SDK/GD32VW55x_RELEASE_V1.0.2/MSDK/wpa_supplicant/src/crypto\aes-omac1.c **** 	return omac1_aes_vector(key, 32, 1, &data, &data_len, mac);
 502              		.loc 1 172 2
 171:C:/Users/stapi/OneDrive/Desktop/GD32VW553/V1_MQTT_OK/GD32VW55X_Wifi_BLE_SDK/GD32VW55x_RELEASE_V1.0.2/MSDK/wpa_supplicant/src/crypto\aes-omac1.c **** 	return omac1_aes_vector(key, 32, 1, &data, &data_len, mac);
 503              		.loc 1 171 1 is_stmt 0
 504 0008 4111     		addi	sp,sp,-16
 505              		.cfi_def_cfa_offset 32
 171:C:/Users/stapi/OneDrive/Desktop/GD32VW553/V1_MQTT_OK/GD32VW55X_Wifi_BLE_SDK/GD32VW55x_RELEASE_V1.0.2/MSDK/wpa_supplicant/src/crypto\aes-omac1.c **** 	return omac1_aes_vector(key, 32, 1, &data, &data_len, mac);
 506              		.loc 1 171 1
 507 000a 2EC6     		sw	a1,12(sp)
 508 000c 32C4     		sw	a2,8(sp)
 509 000e B687     		mv	a5,a3
 510              		.loc 1 172 9
 511 0010 3800     		addi	a4,sp,8
 512 0012 7400     		addi	a3,sp,12
 513              	.LVL67:
 514 0014 0546     		li	a2,1
 515              	.LVL68:
 516 0016 93050002 		li	a1,32
 517              	.LVL69:
 518 001a 97000000 		call	omac1_aes_vector
 518      E7800000 
 519              	.LVL70:
 173:C:/Users/stapi/OneDrive/Desktop/GD32VW553/V1_MQTT_OK/GD32VW55X_Wifi_BLE_SDK/GD32VW55x_RELEASE_V1.0.2/MSDK/wpa_supplicant/src/crypto\aes-omac1.c **** }
 520              		.loc 1 173 1
 521 0022 4101     		addi	sp,sp,16
 522              		.cfi_def_cfa_offset 0
 523 0024 17030000 		tail	__riscv_restore_0
 523      67000300 
 524              		.cfi_restore 1
 525              		.cfi_def_cfa_offset -16
 526              		.cfi_endproc
 527              	.LFE75:
 529              		.text
 530              	.Letext0:
 531              		.file 2 "c:\\users\\stapi\\onedrive\\desktop\\gd32vw553\\embeddedbuilder_v1.4.7.26843\\tools\\nucl
 532              		.file 3 "c:\\users\\stapi\\onedrive\\desktop\\gd32vw553\\embeddedbuilder_v1.4.7.26843\\tools\\nucl
 533              		.file 4 "c:\\users\\stapi\\onedrive\\desktop\\gd32vw553\\embeddedbuilder_v1.4.7.26843\\tools\\nucl
 534              		.file 5 "C:/Users/stapi/OneDrive/Desktop/GD32VW553/V1_MQTT_OK/GD32VW55X_Wifi_BLE_SDK/GD32VW55x_REL
 535              		.file 6 "..\\..\\..\\..\\wpa_supplicant\\src\\utils/os.h"
 536              		.file 7 "..\\..\\..\\..\\wpa_supplicant\\src\\utils/common.h"
DEFINED SYMBOLS
                            *ABS*:0000000000000000 aes-omac1.c
C:\Users\stapi\AppData\Local\Temp\ccl3PPDr.s:12     .text.gf_mulx:0000000000000000 gf_mulx
C:\Users\stapi\AppData\Local\Temp\ccl3PPDr.s:16     .text.gf_mulx:0000000000000000 .L0 
C:\Users\stapi\AppData\Local\Temp\ccl3PPDr.s:18     .text.gf_mulx:0000000000000000 .L0 
C:\Users\stapi\AppData\Local\Temp\ccl3PPDr.s:19     .text.gf_mulx:0000000000000000 .L0 
C:\Users\stapi\AppData\Local\Temp\ccl3PPDr.s:20     .text.gf_mulx:0000000000000000 .L0 
C:\Users\stapi\AppData\Local\Temp\ccl3PPDr.s:21     .text.gf_mulx:0000000000000000 .L0 
C:\Users\stapi\AppData\Local\Temp\ccl3PPDr.s:24     .text.gf_mulx:0000000000000004 .L0 
C:\Users\stapi\AppData\Local\Temp\ccl3PPDr.s:25     .text.gf_mulx:0000000000000004 .L0 
C:\Users\stapi\AppData\Local\Temp\ccl3PPDr.s:30     .text.gf_mulx:000000000000000a .L0 
C:\Users\stapi\AppData\Local\Temp\ccl3PPDr.s:31     .text.gf_mulx:000000000000000a .L0 
C:\Users\stapi\AppData\Local\Temp\ccl3PPDr.s:33     .text.gf_mulx:000000000000000e .L0 
C:\Users\stapi\AppData\Local\Temp\ccl3PPDr.s:35     .text.gf_mulx:0000000000000012 .L0 
C:\Users\stapi\AppData\Local\Temp\ccl3PPDr.s:38     .text.gf_mulx:0000000000000014 .L0 
C:\Users\stapi\AppData\Local\Temp\ccl3PPDr.s:40     .text.gf_mulx:0000000000000016 .L0 
C:\Users\stapi\AppData\Local\Temp\ccl3PPDr.s:43     .text.gf_mulx:000000000000001a .L0 
C:\Users\stapi\AppData\Local\Temp\ccl3PPDr.s:46     .text.gf_mulx:000000000000001e .L0 
C:\Users\stapi\AppData\Local\Temp\ccl3PPDr.s:47     .text.gf_mulx:000000000000001e .L0 
C:\Users\stapi\AppData\Local\Temp\ccl3PPDr.s:48     .text.gf_mulx:000000000000001e .L0 
C:\Users\stapi\AppData\Local\Temp\ccl3PPDr.s:50     .text.gf_mulx:0000000000000022 .L0 
C:\Users\stapi\AppData\Local\Temp\ccl3PPDr.s:51     .text.gf_mulx:0000000000000022 .L0 
C:\Users\stapi\AppData\Local\Temp\ccl3PPDr.s:53     .text.gf_mulx:0000000000000026 .L0 
C:\Users\stapi\AppData\Local\Temp\ccl3PPDr.s:55     .text.gf_mulx:000000000000002a .L0 
C:\Users\stapi\AppData\Local\Temp\ccl3PPDr.s:58     .text.gf_mulx:0000000000000030 .L0 
C:\Users\stapi\AppData\Local\Temp\ccl3PPDr.s:59     .text.gf_mulx:0000000000000030 .L0 
C:\Users\stapi\AppData\Local\Temp\ccl3PPDr.s:62     .text.gf_mulx:0000000000000034 .L0 
C:\Users\stapi\AppData\Local\Temp\ccl3PPDr.s:64     .text.gf_mulx:0000000000000038 .L0 
C:\Users\stapi\AppData\Local\Temp\ccl3PPDr.s:67     .text.gf_mulx:000000000000003a .L0 
C:\Users\stapi\AppData\Local\Temp\ccl3PPDr.s:68     .text.gf_mulx:000000000000003a .L0 
C:\Users\stapi\AppData\Local\Temp\ccl3PPDr.s:70     .text.gf_mulx:0000000000000040 .L0 
C:\Users\stapi\AppData\Local\Temp\ccl3PPDr.s:77     .text.omac1_aes_vector:0000000000000000 omac1_aes_vector
C:\Users\stapi\AppData\Local\Temp\ccl3PPDr.s:80     .text.omac1_aes_vector:0000000000000000 .L0 
C:\Users\stapi\AppData\Local\Temp\ccl3PPDr.s:82     .text.omac1_aes_vector:0000000000000000 .L0 
C:\Users\stapi\AppData\Local\Temp\ccl3PPDr.s:83     .text.omac1_aes_vector:0000000000000008 .L0 
C:\Users\stapi\AppData\Local\Temp\ccl3PPDr.s:84     .text.omac1_aes_vector:0000000000000008 .L0 
C:\Users\stapi\AppData\Local\Temp\ccl3PPDr.s:85     .text.omac1_aes_vector:0000000000000008 .L0 
C:\Users\stapi\AppData\Local\Temp\ccl3PPDr.s:86     .text.omac1_aes_vector:0000000000000008 .L0 
C:\Users\stapi\AppData\Local\Temp\ccl3PPDr.s:87     .text.omac1_aes_vector:0000000000000008 .L0 
C:\Users\stapi\AppData\Local\Temp\ccl3PPDr.s:88     .text.omac1_aes_vector:0000000000000008 .L0 
C:\Users\stapi\AppData\Local\Temp\ccl3PPDr.s:89     .text.omac1_aes_vector:0000000000000008 .L0 
C:\Users\stapi\AppData\Local\Temp\ccl3PPDr.s:90     .text.omac1_aes_vector:0000000000000008 .L0 
C:\Users\stapi\AppData\Local\Temp\ccl3PPDr.s:91     .text.omac1_aes_vector:0000000000000008 .L0 
C:\Users\stapi\AppData\Local\Temp\ccl3PPDr.s:92     .text.omac1_aes_vector:0000000000000008 .L0 
C:\Users\stapi\AppData\Local\Temp\ccl3PPDr.s:93     .text.omac1_aes_vector:0000000000000008 .L0 
C:\Users\stapi\AppData\Local\Temp\ccl3PPDr.s:94     .text.omac1_aes_vector:0000000000000008 .L0 
C:\Users\stapi\AppData\Local\Temp\ccl3PPDr.s:95     .text.omac1_aes_vector:0000000000000008 .L0 
C:\Users\stapi\AppData\Local\Temp\ccl3PPDr.s:97     .text.omac1_aes_vector:0000000000000008 .L0 
C:\Users\stapi\AppData\Local\Temp\ccl3PPDr.s:98     .text.omac1_aes_vector:0000000000000008 .L0 
C:\Users\stapi\AppData\Local\Temp\ccl3PPDr.s:99     .text.omac1_aes_vector:0000000000000008 .L0 
C:\Users\stapi\AppData\Local\Temp\ccl3PPDr.s:100    .text.omac1_aes_vector:0000000000000008 .L0 
C:\Users\stapi\AppData\Local\Temp\ccl3PPDr.s:101    .text.omac1_aes_vector:0000000000000008 .L0 
C:\Users\stapi\AppData\Local\Temp\ccl3PPDr.s:102    .text.omac1_aes_vector:0000000000000008 .L0 
C:\Users\stapi\AppData\Local\Temp\ccl3PPDr.s:103    .text.omac1_aes_vector:0000000000000008 .L0 
C:\Users\stapi\AppData\Local\Temp\ccl3PPDr.s:104    .text.omac1_aes_vector:000000000000000a .L0 
C:\Users\stapi\AppData\Local\Temp\ccl3PPDr.s:106    .text.omac1_aes_vector:000000000000000a .L0 
C:\Users\stapi\AppData\Local\Temp\ccl3PPDr.s:111    .text.omac1_aes_vector:0000000000000012 .L0 
C:\Users\stapi\AppData\Local\Temp\ccl3PPDr.s:114    .text.omac1_aes_vector:000000000000001a .L0 
C:\Users\stapi\AppData\Local\Temp\ccl3PPDr.s:115    .text.omac1_aes_vector:000000000000001a .L0 
C:\Users\stapi\AppData\Local\Temp\ccl3PPDr.s:118    .text.omac1_aes_vector:0000000000000020 .L0 
C:\Users\stapi\AppData\Local\Temp\ccl3PPDr.s:125    .text.omac1_aes_vector:000000000000002e .L0 
C:\Users\stapi\AppData\Local\Temp\ccl3PPDr.s:126    .text.omac1_aes_vector:000000000000002e .L0 
C:\Users\stapi\AppData\Local\Temp\ccl3PPDr.s:127    .text.omac1_aes_vector:000000000000002e .L0 
C:\Users\stapi\AppData\Local\Temp\ccl3PPDr.s:129    .text.omac1_aes_vector:0000000000000030 .L0 
C:\Users\stapi\AppData\Local\Temp\ccl3PPDr.s:133    .text.omac1_aes_vector:0000000000000032 .L0 
C:\Users\stapi\AppData\Local\Temp\ccl3PPDr.s:134    .text.omac1_aes_vector:0000000000000032 .L0 
C:\Users\stapi\AppData\Local\Temp\ccl3PPDr.s:137    .text.omac1_aes_vector:0000000000000036 .L0 
C:\Users\stapi\AppData\Local\Temp\ccl3PPDr.s:138    .text.omac1_aes_vector:0000000000000036 .L0 
C:\Users\stapi\AppData\Local\Temp\ccl3PPDr.s:139    .text.omac1_aes_vector:0000000000000036 .L0 
C:\Users\stapi\AppData\Local\Temp\ccl3PPDr.s:140    .text.omac1_aes_vector:0000000000000036 .L0 
C:\Users\stapi\AppData\Local\Temp\ccl3PPDr.s:143    .text.omac1_aes_vector:000000000000003a .L0 
C:\Users\stapi\AppData\Local\Temp\ccl3PPDr.s:144    .text.omac1_aes_vector:000000000000003a .L0 
C:\Users\stapi\AppData\Local\Temp\ccl3PPDr.s:146    .text.omac1_aes_vector:000000000000003e .L0 
C:\Users\stapi\AppData\Local\Temp\ccl3PPDr.s:148    .text.omac1_aes_vector:0000000000000040 .L0 
C:\Users\stapi\AppData\Local\Temp\ccl3PPDr.s:150    .text.omac1_aes_vector:0000000000000042 .L0 
C:\Users\stapi\AppData\Local\Temp\ccl3PPDr.s:153    .text.omac1_aes_vector:0000000000000044 .L0 
C:\Users\stapi\AppData\Local\Temp\ccl3PPDr.s:154    .text.omac1_aes_vector:0000000000000044 .L0 
C:\Users\stapi\AppData\Local\Temp\ccl3PPDr.s:156    .text.omac1_aes_vector:0000000000000046 .L0 
C:\Users\stapi\AppData\Local\Temp\ccl3PPDr.s:160    .text.omac1_aes_vector:0000000000000048 .L0 
C:\Users\stapi\AppData\Local\Temp\ccl3PPDr.s:164    .text.omac1_aes_vector:0000000000000052 .L0 
C:\Users\stapi\AppData\Local\Temp\ccl3PPDr.s:171    .text.omac1_aes_vector:000000000000005e .L0 
C:\Users\stapi\AppData\Local\Temp\ccl3PPDr.s:174    .text.omac1_aes_vector:0000000000000066 .L0 
C:\Users\stapi\AppData\Local\Temp\ccl3PPDr.s:180    .text.omac1_aes_vector:0000000000000074 .L0 
C:\Users\stapi\AppData\Local\Temp\ccl3PPDr.s:184    .text.omac1_aes_vector:000000000000007e .L0 
C:\Users\stapi\AppData\Local\Temp\ccl3PPDr.s:185    .text.omac1_aes_vector:000000000000007e .L0 
C:\Users\stapi\AppData\Local\Temp\ccl3PPDr.s:189    .text.omac1_aes_vector:0000000000000084 .L0 
C:\Users\stapi\AppData\Local\Temp\ccl3PPDr.s:190    .text.omac1_aes_vector:0000000000000084 .L0 
C:\Users\stapi\AppData\Local\Temp\ccl3PPDr.s:194    .text.omac1_aes_vector:0000000000000086 .L0 
C:\Users\stapi\AppData\Local\Temp\ccl3PPDr.s:195    .text.omac1_aes_vector:0000000000000086 .L0 
C:\Users\stapi\AppData\Local\Temp\ccl3PPDr.s:198    .text.omac1_aes_vector:000000000000008e .L0 
C:\Users\stapi\AppData\Local\Temp\ccl3PPDr.s:201    .text.omac1_aes_vector:0000000000000092 .L0 
C:\Users\stapi\AppData\Local\Temp\ccl3PPDr.s:204    .text.omac1_aes_vector:0000000000000094 .L0 
C:\Users\stapi\AppData\Local\Temp\ccl3PPDr.s:207    .text.omac1_aes_vector:000000000000009a .L0 
C:\Users\stapi\AppData\Local\Temp\ccl3PPDr.s:208    .text.omac1_aes_vector:000000000000009a .L0 
C:\Users\stapi\AppData\Local\Temp\ccl3PPDr.s:210    .text.omac1_aes_vector:000000000000009e .L0 
C:\Users\stapi\AppData\Local\Temp\ccl3PPDr.s:211    .text.omac1_aes_vector:000000000000009e .L0 
C:\Users\stapi\AppData\Local\Temp\ccl3PPDr.s:213    .text.omac1_aes_vector:00000000000000a2 .L0 
C:\Users\stapi\AppData\Local\Temp\ccl3PPDr.s:214    .text.omac1_aes_vector:00000000000000a2 .L0 
C:\Users\stapi\AppData\Local\Temp\ccl3PPDr.s:217    .text.omac1_aes_vector:00000000000000a4 .L0 
C:\Users\stapi\AppData\Local\Temp\ccl3PPDr.s:218    .text.omac1_aes_vector:00000000000000a4 .L0 
C:\Users\stapi\AppData\Local\Temp\ccl3PPDr.s:220    .text.omac1_aes_vector:00000000000000a8 .L0 
C:\Users\stapi\AppData\Local\Temp\ccl3PPDr.s:223    .text.omac1_aes_vector:00000000000000ac .L0 
C:\Users\stapi\AppData\Local\Temp\ccl3PPDr.s:225    .text.omac1_aes_vector:00000000000000ae .L0 
C:\Users\stapi\AppData\Local\Temp\ccl3PPDr.s:228    .text.omac1_aes_vector:00000000000000b0 .L0 
C:\Users\stapi\AppData\Local\Temp\ccl3PPDr.s:229    .text.omac1_aes_vector:00000000000000b0 .L0 
C:\Users\stapi\AppData\Local\Temp\ccl3PPDr.s:235    .text.omac1_aes_vector:00000000000000b4 .L0 
C:\Users\stapi\AppData\Local\Temp\ccl3PPDr.s:238    .text.omac1_aes_vector:00000000000000b6 .L0 
C:\Users\stapi\AppData\Local\Temp\ccl3PPDr.s:239    .text.omac1_aes_vector:00000000000000b6 .L0 
C:\Users\stapi\AppData\Local\Temp\ccl3PPDr.s:244    .text.omac1_aes_vector:00000000000000bc .L0 
C:\Users\stapi\AppData\Local\Temp\ccl3PPDr.s:245    .text.omac1_aes_vector:00000000000000bc .L0 
C:\Users\stapi\AppData\Local\Temp\ccl3PPDr.s:247    .text.omac1_aes_vector:00000000000000c0 .L0 
C:\Users\stapi\AppData\Local\Temp\ccl3PPDr.s:249    .text.omac1_aes_vector:00000000000000c2 .L0 
C:\Users\stapi\AppData\Local\Temp\ccl3PPDr.s:252    .text.omac1_aes_vector:00000000000000c4 .L0 
C:\Users\stapi\AppData\Local\Temp\ccl3PPDr.s:255    .text.omac1_aes_vector:00000000000000c6 .L0 
C:\Users\stapi\AppData\Local\Temp\ccl3PPDr.s:260    .text.omac1_aes_vector:00000000000000ca .L0 
C:\Users\stapi\AppData\Local\Temp\ccl3PPDr.s:264    .text.omac1_aes_vector:00000000000000cc .L0 
C:\Users\stapi\AppData\Local\Temp\ccl3PPDr.s:265    .text.omac1_aes_vector:00000000000000cc .L0 
C:\Users\stapi\AppData\Local\Temp\ccl3PPDr.s:268    .text.omac1_aes_vector:00000000000000d4 .L0 
C:\Users\stapi\AppData\Local\Temp\ccl3PPDr.s:271    .text.omac1_aes_vector:00000000000000d8 .L0 
C:\Users\stapi\AppData\Local\Temp\ccl3PPDr.s:274    .text.omac1_aes_vector:00000000000000de .L0 
C:\Users\stapi\AppData\Local\Temp\ccl3PPDr.s:275    .text.omac1_aes_vector:00000000000000de .L0 
C:\Users\stapi\AppData\Local\Temp\ccl3PPDr.s:277    .text.omac1_aes_vector:00000000000000e2 .L0 
C:\Users\stapi\AppData\Local\Temp\ccl3PPDr.s:278    .text.omac1_aes_vector:00000000000000e2 .L0 
C:\Users\stapi\AppData\Local\Temp\ccl3PPDr.s:280    .text.omac1_aes_vector:00000000000000e6 .L0 
C:\Users\stapi\AppData\Local\Temp\ccl3PPDr.s:283    .text.omac1_aes_vector:00000000000000ea .L0 
C:\Users\stapi\AppData\Local\Temp\ccl3PPDr.s:284    .text.omac1_aes_vector:00000000000000ea .L0 
C:\Users\stapi\AppData\Local\Temp\ccl3PPDr.s:287    .text.omac1_aes_vector:00000000000000ec .L0 
C:\Users\stapi\AppData\Local\Temp\ccl3PPDr.s:288    .text.omac1_aes_vector:00000000000000ec .L0 
C:\Users\stapi\AppData\Local\Temp\ccl3PPDr.s:291    .text.omac1_aes_vector:00000000000000f0 .L0 
C:\Users\stapi\AppData\Local\Temp\ccl3PPDr.s:293    .text.omac1_aes_vector:00000000000000f4 .L0 
C:\Users\stapi\AppData\Local\Temp\ccl3PPDr.s:295    .text.omac1_aes_vector:00000000000000f6 .L0 
C:\Users\stapi\AppData\Local\Temp\ccl3PPDr.s:298    .text.omac1_aes_vector:00000000000000f8 .L0 
C:\Users\stapi\AppData\Local\Temp\ccl3PPDr.s:299    .text.omac1_aes_vector:00000000000000f8 .L0 
C:\Users\stapi\AppData\Local\Temp\ccl3PPDr.s:305    .text.omac1_aes_vector:00000000000000fc .L0 
C:\Users\stapi\AppData\Local\Temp\ccl3PPDr.s:306    .text.omac1_aes_vector:00000000000000fc .L0 
C:\Users\stapi\AppData\Local\Temp\ccl3PPDr.s:309    .text.omac1_aes_vector:00000000000000fe .L0 
C:\Users\stapi\AppData\Local\Temp\ccl3PPDr.s:310    .text.omac1_aes_vector:00000000000000fe .L0 
C:\Users\stapi\AppData\Local\Temp\ccl3PPDr.s:313    .text.omac1_aes_vector:0000000000000104 .L0 
C:\Users\stapi\AppData\Local\Temp\ccl3PPDr.s:314    .text.omac1_aes_vector:0000000000000104 .L0 
C:\Users\stapi\AppData\Local\Temp\ccl3PPDr.s:316    .text.omac1_aes_vector:0000000000000108 .L0 
C:\Users\stapi\AppData\Local\Temp\ccl3PPDr.s:323    .text.omac1_aes_vector:0000000000000116 .L0 
C:\Users\stapi\AppData\Local\Temp\ccl3PPDr.s:324    .text.omac1_aes_vector:0000000000000116 .L0 
C:\Users\stapi\AppData\Local\Temp\ccl3PPDr.s:337    .text.omac1_aes_vector:0000000000000122 .L0 
C:\Users\stapi\AppData\Local\Temp\ccl3PPDr.s:341    .text.omac1_aes_vector:0000000000000126 .L0 
C:\Users\stapi\AppData\Local\Temp\ccl3PPDr.s:342    .text.omac1_aes_vector:0000000000000126 .L0 
C:\Users\stapi\AppData\Local\Temp\ccl3PPDr.s:346    .text.omac1_aes_vector:000000000000012e .L0 
C:\Users\stapi\AppData\Local\Temp\ccl3PPDr.s:348    .text.omac1_aes_vector:0000000000000130 .L0 
C:\Users\stapi\AppData\Local\Temp\ccl3PPDr.s:351    .text.omac1_aes_vector:0000000000000138 .L0 
C:\Users\stapi\AppData\Local\Temp\ccl3PPDr.s:357    .text.omac1_aes_vector:0000000000000144 .L0 
C:\Users\stapi\AppData\Local\Temp\ccl3PPDr.s:361    .text.omac1_aes_vector:0000000000000146 .L0 
C:\Users\stapi\AppData\Local\Temp\ccl3PPDr.s:362    .text.omac1_aes_vector:0000000000000146 .L0 
C:\Users\stapi\AppData\Local\Temp\ccl3PPDr.s:364    .text.omac1_aes_vector:000000000000014a .L0 
C:\Users\stapi\AppData\Local\Temp\ccl3PPDr.s:367    .text.omac1_aes_vector:0000000000000152 .L0 
C:\Users\stapi\AppData\Local\Temp\ccl3PPDr.s:370    .text.omac1_aes_vector:0000000000000154 .L0 
C:\Users\stapi\AppData\Local\Temp\ccl3PPDr.s:372    .text.omac1_aes_vector:0000000000000156 .L0 
C:\Users\stapi\AppData\Local\Temp\ccl3PPDr.s:376    .text.omac1_aes_vector:000000000000015c .L0 
C:\Users\stapi\AppData\Local\Temp\ccl3PPDr.s:377    .text.omac1_aes_vector:000000000000015c .L0 
C:\Users\stapi\AppData\Local\Temp\ccl3PPDr.s:378    .text.omac1_aes_vector:000000000000015c .L0 
C:\Users\stapi\AppData\Local\Temp\ccl3PPDr.s:380    .text.omac1_aes_vector:0000000000000160 .L0 
C:\Users\stapi\AppData\Local\Temp\ccl3PPDr.s:386    .text.omac1_aes_vector:000000000000016e .L0 
C:\Users\stapi\AppData\Local\Temp\ccl3PPDr.s:390    .text.omac1_aes_vector:0000000000000178 .L0 
C:\Users\stapi\AppData\Local\Temp\ccl3PPDr.s:391    .text.omac1_aes_vector:0000000000000178 .L0 
C:\Users\stapi\AppData\Local\Temp\ccl3PPDr.s:395    .text.omac1_aes_vector:000000000000017a .L0 
C:\Users\stapi\AppData\Local\Temp\ccl3PPDr.s:396    .text.omac1_aes_vector:000000000000017c .L0 
C:\Users\stapi\AppData\Local\Temp\ccl3PPDr.s:397    .text.omac1_aes_vector:000000000000017c .L0 
C:\Users\stapi\AppData\Local\Temp\ccl3PPDr.s:399    .text.omac1_aes_vector:0000000000000184 .L0 
C:\Users\stapi\AppData\Local\Temp\ccl3PPDr.s:400    .text.omac1_aes_vector:0000000000000184 .L0 
C:\Users\stapi\AppData\Local\Temp\ccl3PPDr.s:401    .text.omac1_aes_vector:0000000000000184 .L0 
C:\Users\stapi\AppData\Local\Temp\ccl3PPDr.s:402    .text.omac1_aes_vector:0000000000000184 .L0 
C:\Users\stapi\AppData\Local\Temp\ccl3PPDr.s:403    .text.omac1_aes_vector:0000000000000184 .L0 
C:\Users\stapi\AppData\Local\Temp\ccl3PPDr.s:404    .text.omac1_aes_vector:0000000000000184 .L0 
C:\Users\stapi\AppData\Local\Temp\ccl3PPDr.s:405    .text.omac1_aes_vector:0000000000000184 .L0 
C:\Users\stapi\AppData\Local\Temp\ccl3PPDr.s:406    .text.omac1_aes_vector:0000000000000184 .L0 
C:\Users\stapi\AppData\Local\Temp\ccl3PPDr.s:407    .text.omac1_aes_vector:0000000000000184 .L0 
C:\Users\stapi\AppData\Local\Temp\ccl3PPDr.s:408    .text.omac1_aes_vector:0000000000000184 .L0 
C:\Users\stapi\AppData\Local\Temp\ccl3PPDr.s:409    .text.omac1_aes_vector:0000000000000184 .L0 
C:\Users\stapi\AppData\Local\Temp\ccl3PPDr.s:410    .text.omac1_aes_vector:0000000000000184 .L0 
C:\Users\stapi\AppData\Local\Temp\ccl3PPDr.s:411    .text.omac1_aes_vector:0000000000000184 .L0 
C:\Users\stapi\AppData\Local\Temp\ccl3PPDr.s:414    .text.omac1_aes_vector:0000000000000184 .L0 
C:\Users\stapi\AppData\Local\Temp\ccl3PPDr.s:420    .text.omac1_aes_vector:0000000000000188 .L0 
C:\Users\stapi\AppData\Local\Temp\ccl3PPDr.s:423    .text.omac1_aes_vector:000000000000018c .L0 
C:\Users\stapi\AppData\Local\Temp\ccl3PPDr.s:430    .text.omac1_aes_128_vector:0000000000000000 omac1_aes_128_vector
C:\Users\stapi\AppData\Local\Temp\ccl3PPDr.s:433    .text.omac1_aes_128_vector:0000000000000000 .L0 
C:\Users\stapi\AppData\Local\Temp\ccl3PPDr.s:435    .text.omac1_aes_128_vector:0000000000000000 .L0 
C:\Users\stapi\AppData\Local\Temp\ccl3PPDr.s:436    .text.omac1_aes_128_vector:0000000000000000 .L0 
C:\Users\stapi\AppData\Local\Temp\ccl3PPDr.s:437    .text.omac1_aes_128_vector:0000000000000000 .L0 
C:\Users\stapi\AppData\Local\Temp\ccl3PPDr.s:439    .text.omac1_aes_128_vector:0000000000000002 .L0 
C:\Users\stapi\AppData\Local\Temp\ccl3PPDr.s:449    .text.omac1_aes_128_vector:0000000000000012 .L0 
C:\Users\stapi\AppData\Local\Temp\ccl3PPDr.s:456    .text.omac1_aes_128:0000000000000000 omac1_aes_128
C:\Users\stapi\AppData\Local\Temp\ccl3PPDr.s:459    .text.omac1_aes_128:0000000000000000 .L0 
C:\Users\stapi\AppData\Local\Temp\ccl3PPDr.s:461    .text.omac1_aes_128:0000000000000000 .L0 
C:\Users\stapi\AppData\Local\Temp\ccl3PPDr.s:462    .text.omac1_aes_128:0000000000000008 .L0 
C:\Users\stapi\AppData\Local\Temp\ccl3PPDr.s:463    .text.omac1_aes_128:0000000000000008 .L0 
C:\Users\stapi\AppData\Local\Temp\ccl3PPDr.s:465    .text.omac1_aes_128:0000000000000008 .L0 
C:\Users\stapi\AppData\Local\Temp\ccl3PPDr.s:466    .text.omac1_aes_128:0000000000000008 .L0 
C:\Users\stapi\AppData\Local\Temp\ccl3PPDr.s:467    .text.omac1_aes_128:000000000000000a .L0 
C:\Users\stapi\AppData\Local\Temp\ccl3PPDr.s:469    .text.omac1_aes_128:000000000000000a .L0 
C:\Users\stapi\AppData\Local\Temp\ccl3PPDr.s:473    .text.omac1_aes_128:0000000000000010 .L0 
C:\Users\stapi\AppData\Local\Temp\ccl3PPDr.s:482    .text.omac1_aes_128:000000000000001e .L0 
C:\Users\stapi\AppData\Local\Temp\ccl3PPDr.s:483    .text.omac1_aes_128:0000000000000020 .L0 
C:\Users\stapi\AppData\Local\Temp\ccl3PPDr.s:485    .text.omac1_aes_128:0000000000000028 .L0 
C:\Users\stapi\AppData\Local\Temp\ccl3PPDr.s:486    .text.omac1_aes_128:0000000000000028 .L0 
C:\Users\stapi\AppData\Local\Temp\ccl3PPDr.s:487    .text.omac1_aes_128:0000000000000028 .L0 
C:\Users\stapi\AppData\Local\Temp\ccl3PPDr.s:494    .text.omac1_aes_256:0000000000000000 omac1_aes_256
C:\Users\stapi\AppData\Local\Temp\ccl3PPDr.s:497    .text.omac1_aes_256:0000000000000000 .L0 
C:\Users\stapi\AppData\Local\Temp\ccl3PPDr.s:499    .text.omac1_aes_256:0000000000000000 .L0 
C:\Users\stapi\AppData\Local\Temp\ccl3PPDr.s:500    .text.omac1_aes_256:0000000000000008 .L0 
C:\Users\stapi\AppData\Local\Temp\ccl3PPDr.s:501    .text.omac1_aes_256:0000000000000008 .L0 
C:\Users\stapi\AppData\Local\Temp\ccl3PPDr.s:503    .text.omac1_aes_256:0000000000000008 .L0 
C:\Users\stapi\AppData\Local\Temp\ccl3PPDr.s:504    .text.omac1_aes_256:0000000000000008 .L0 
C:\Users\stapi\AppData\Local\Temp\ccl3PPDr.s:505    .text.omac1_aes_256:000000000000000a .L0 
C:\Users\stapi\AppData\Local\Temp\ccl3PPDr.s:507    .text.omac1_aes_256:000000000000000a .L0 
C:\Users\stapi\AppData\Local\Temp\ccl3PPDr.s:511    .text.omac1_aes_256:0000000000000010 .L0 
C:\Users\stapi\AppData\Local\Temp\ccl3PPDr.s:521    .text.omac1_aes_256:0000000000000022 .L0 
C:\Users\stapi\AppData\Local\Temp\ccl3PPDr.s:522    .text.omac1_aes_256:0000000000000024 .L0 
C:\Users\stapi\AppData\Local\Temp\ccl3PPDr.s:524    .text.omac1_aes_256:000000000000002c .L0 
C:\Users\stapi\AppData\Local\Temp\ccl3PPDr.s:525    .text.omac1_aes_256:000000000000002c .L0 
C:\Users\stapi\AppData\Local\Temp\ccl3PPDr.s:526    .text.omac1_aes_256:000000000000002c .L0 
C:\Users\stapi\AppData\Local\Temp\ccl3PPDr.s:73     .text.gf_mulx:0000000000000040 .L0 
C:\Users\stapi\AppData\Local\Temp\ccl3PPDr.s:426    .text.omac1_aes_vector:000000000000018c .L0 
C:\Users\stapi\AppData\Local\Temp\ccl3PPDr.s:452    .text.omac1_aes_128_vector:0000000000000012 .L0 
C:\Users\stapi\AppData\Local\Temp\ccl3PPDr.s:490    .text.omac1_aes_128:0000000000000028 .L0 
C:\Users\stapi\AppData\Local\Temp\ccl3PPDr.s:529    .text.omac1_aes_256:000000000000002c .L0 
                     .debug_frame:0000000000000000 .L0 
C:\Users\stapi\AppData\Local\Temp\ccl3PPDr.s:28     .text.gf_mulx:000000000000000a .L2
C:\Users\stapi\AppData\Local\Temp\ccl3PPDr.s:65     .text.gf_mulx:000000000000003a .L3
C:\Users\stapi\AppData\Local\Temp\ccl3PPDr.s:60     .text.gf_mulx:0000000000000034 .L6
C:\Users\stapi\AppData\Local\Temp\ccl3PPDr.s:418    .text.omac1_aes_vector:0000000000000188 .L23
C:\Users\stapi\AppData\Local\Temp\ccl3PPDr.s:242    .text.omac1_aes_vector:00000000000000bc .L10
C:\Users\stapi\AppData\Local\Temp\ccl3PPDr.s:257    .text.omac1_aes_vector:00000000000000c8 .L16
C:\Users\stapi\AppData\Local\Temp\ccl3PPDr.s:335    .text.omac1_aes_vector:0000000000000122 .L17
C:\Users\stapi\AppData\Local\Temp\ccl3PPDr.s:413    .text.omac1_aes_vector:0000000000000184 .L26
C:\Users\stapi\AppData\Local\Temp\ccl3PPDr.s:339    .text.omac1_aes_vector:0000000000000126 .L21
C:\Users\stapi\AppData\Local\Temp\ccl3PPDr.s:192    .text.omac1_aes_vector:0000000000000086 .L18
C:\Users\stapi\AppData\Local\Temp\ccl3PPDr.s:131    .text.omac1_aes_vector:0000000000000032 .L9
C:\Users\stapi\AppData\Local\Temp\ccl3PPDr.s:328    .text.omac1_aes_vector:000000000000011a .L24
C:\Users\stapi\AppData\Local\Temp\ccl3PPDr.s:281    .text.omac1_aes_vector:00000000000000ea .L13
C:\Users\stapi\AppData\Local\Temp\ccl3PPDr.s:331    .text.omac1_aes_vector:000000000000011e .L25
C:\Users\stapi\AppData\Local\Temp\ccl3PPDr.s:261    .text.omac1_aes_vector:00000000000000cc .L15
C:\Users\stapi\AppData\Local\Temp\ccl3PPDr.s:321    .text.omac1_aes_vector:0000000000000116 .L14
C:\Users\stapi\AppData\Local\Temp\ccl3PPDr.s:158    .text.omac1_aes_vector:0000000000000048 .L11
C:\Users\stapi\AppData\Local\Temp\ccl3PPDr.s:303    .text.omac1_aes_vector:00000000000000fc .L12
C:\Users\stapi\AppData\Local\Temp\ccl3PPDr.s:353    .text.omac1_aes_vector:0000000000000140 .L19
C:\Users\stapi\AppData\Local\Temp\ccl3PPDr.s:358    .text.omac1_aes_vector:0000000000000146 .L22
C:\Users\stapi\AppData\Local\Temp\ccl3PPDr.s:233    .text.omac1_aes_vector:00000000000000b4 .L20
C:\Users\stapi\AppData\Local\Temp\ccl3PPDr.s:393    .text.omac1_aes_vector:000000000000017a .L7
C:\Users\stapi\AppData\Local\Temp\ccl3PPDr.s:1247   .debug_abbrev:0000000000000000 .Ldebug_abbrev0
C:\Users\stapi\AppData\Local\Temp\ccl3PPDr.s:2234   .debug_str:00000000000001e1 .LASF30
C:\Users\stapi\AppData\Local\Temp\ccl3PPDr.s:2232   .debug_str:0000000000000151 .LASF31
C:\Users\stapi\AppData\Local\Temp\ccl3PPDr.s:2230   .debug_str:00000000000000bf .LASF32
C:\Users\stapi\AppData\Local\Temp\ccl3PPDr.s:2182   .debug_ranges:0000000000000000 .Ldebug_ranges0
C:\Users\stapi\AppData\Local\Temp\ccl3PPDr.s:2196   .debug_line:0000000000000000 .Ldebug_line0
C:\Users\stapi\AppData\Local\Temp\ccl3PPDr.s:2202   .debug_str:0000000000000018 .LASF2
C:\Users\stapi\AppData\Local\Temp\ccl3PPDr.s:2236   .debug_str:00000000000002da .LASF0
C:\Users\stapi\AppData\Local\Temp\ccl3PPDr.s:2258   .debug_str:0000000000000346 .LASF1
C:\Users\stapi\AppData\Local\Temp\ccl3PPDr.s:2200   .debug_str:000000000000000e .LASF3
C:\Users\stapi\AppData\Local\Temp\ccl3PPDr.s:2222   .debug_str:0000000000000082 .LASF4
C:\Users\stapi\AppData\Local\Temp\ccl3PPDr.s:2250   .debug_str:000000000000031f .LASF5
C:\Users\stapi\AppData\Local\Temp\ccl3PPDr.s:2212   .debug_str:0000000000000048 .LASF6
C:\Users\stapi\AppData\Local\Temp\ccl3PPDr.s:2256   .debug_str:000000000000033d .LASF7
C:\Users\stapi\AppData\Local\Temp\ccl3PPDr.s:2226   .debug_str:0000000000000098 .LASF8
C:\Users\stapi\AppData\Local\Temp\ccl3PPDr.s:2244   .debug_str:00000000000002fd .LASF9
C:\Users\stapi\AppData\Local\Temp\ccl3PPDr.s:2264   .debug_str:0000000000000369 .LASF10
C:\Users\stapi\AppData\Local\Temp\ccl3PPDr.s:2238   .debug_str:00000000000002e7 .LASF11
C:\Users\stapi\AppData\Local\Temp\ccl3PPDr.s:2240   .debug_str:00000000000002ec .LASF12
C:\Users\stapi\AppData\Local\Temp\ccl3PPDr.s:2262   .debug_str:0000000000000363 .LASF13
C:\Users\stapi\AppData\Local\Temp\ccl3PPDr.s:2198   .debug_str:0000000000000000 .LASF16
C:\Users\stapi\AppData\Local\Temp\ccl3PPDr.s:495    .text.omac1_aes_256:0000000000000000 .LFB75
C:\Users\stapi\AppData\Local\Temp\ccl3PPDr.s:527    .text.omac1_aes_256:000000000000002c .LFE75
C:\Users\stapi\AppData\Local\Temp\ccl3PPDr.s:1614   .debug_loc:0000000000000000 .LLST23
C:\Users\stapi\AppData\Local\Temp\ccl3PPDr.s:2220   .debug_str:000000000000007d .LASF14
C:\Users\stapi\AppData\Local\Temp\ccl3PPDr.s:1628   .debug_loc:0000000000000021 .LLST24
C:\Users\stapi\AppData\Local\Temp\ccl3PPDr.s:2216   .debug_str:000000000000006e .LASF15
C:\Users\stapi\AppData\Local\Temp\ccl3PPDr.s:1640   .debug_loc:0000000000000040 .LLST25
C:\Users\stapi\AppData\Local\Temp\ccl3PPDr.s:1652   .debug_loc:000000000000005f .LLST26
C:\Users\stapi\AppData\Local\Temp\ccl3PPDr.s:519    .text.omac1_aes_256:0000000000000022 .LVL70
C:\Users\stapi\AppData\Local\Temp\ccl3PPDr.s:2206   .debug_str:0000000000000030 .LASF17
C:\Users\stapi\AppData\Local\Temp\ccl3PPDr.s:457    .text.omac1_aes_128:0000000000000000 .LFB74
C:\Users\stapi\AppData\Local\Temp\ccl3PPDr.s:488    .text.omac1_aes_128:0000000000000028 .LFE74
C:\Users\stapi\AppData\Local\Temp\ccl3PPDr.s:1670   .debug_loc:000000000000008b .LLST19
C:\Users\stapi\AppData\Local\Temp\ccl3PPDr.s:1684   .debug_loc:00000000000000ac .LLST20
C:\Users\stapi\AppData\Local\Temp\ccl3PPDr.s:1696   .debug_loc:00000000000000cb .LLST21
C:\Users\stapi\AppData\Local\Temp\ccl3PPDr.s:1713   .debug_loc:00000000000000f6 .LLST22
C:\Users\stapi\AppData\Local\Temp\ccl3PPDr.s:480    .text.omac1_aes_128:000000000000001e .LVL65
C:\Users\stapi\AppData\Local\Temp\ccl3PPDr.s:2228   .debug_str:00000000000000aa .LASF18
C:\Users\stapi\AppData\Local\Temp\ccl3PPDr.s:431    .text.omac1_aes_128_vector:0000000000000000 .LFB73
C:\Users\stapi\AppData\Local\Temp\ccl3PPDr.s:450    .text.omac1_aes_128_vector:0000000000000012 .LFE73
C:\Users\stapi\AppData\Local\Temp\ccl3PPDr.s:1731   .debug_loc:0000000000000122 .LLST14
C:\Users\stapi\AppData\Local\Temp\ccl3PPDr.s:2242   .debug_str:00000000000002f4 .LASF19
C:\Users\stapi\AppData\Local\Temp\ccl3PPDr.s:1745   .debug_loc:0000000000000143 .LLST15
C:\Users\stapi\AppData\Local\Temp\ccl3PPDr.s:2210   .debug_str:0000000000000043 .LASF20
C:\Users\stapi\AppData\Local\Temp\ccl3PPDr.s:1763   .debug_loc:000000000000016f .LLST16
C:\Users\stapi\AppData\Local\Temp\ccl3PPDr.s:1781   .debug_loc:000000000000019b .LLST17
C:\Users\stapi\AppData\Local\Temp\ccl3PPDr.s:1799   .debug_loc:00000000000001c7 .LLST18
C:\Users\stapi\AppData\Local\Temp\ccl3PPDr.s:448    .text.omac1_aes_128_vector:0000000000000012 .LVL60
C:\Users\stapi\AppData\Local\Temp\ccl3PPDr.s:2260   .debug_str:0000000000000352 .LASF21
C:\Users\stapi\AppData\Local\Temp\ccl3PPDr.s:78     .text.omac1_aes_vector:0000000000000000 .LFB72
C:\Users\stapi\AppData\Local\Temp\ccl3PPDr.s:424    .text.omac1_aes_vector:000000000000018c .LFE72
C:\Users\stapi\AppData\Local\Temp\ccl3PPDr.s:1817   .debug_loc:00000000000001f3 .LLST1
C:\Users\stapi\AppData\Local\Temp\ccl3PPDr.s:2254   .debug_str:0000000000000335 .LASF22
C:\Users\stapi\AppData\Local\Temp\ccl3PPDr.s:1831   .debug_loc:0000000000000214 .LLST2
C:\Users\stapi\AppData\Local\Temp\ccl3PPDr.s:1845   .debug_loc:0000000000000235 .LLST3
C:\Users\stapi\AppData\Local\Temp\ccl3PPDr.s:1878   .debug_loc:0000000000000285 .LLST4
C:\Users\stapi\AppData\Local\Temp\ccl3PPDr.s:1889   .debug_loc:00000000000002a3 .LLST5
C:\Users\stapi\AppData\Local\Temp\ccl3PPDr.s:1900   .debug_loc:00000000000002c1 .LLST6
C:\Users\stapi\AppData\Local\Temp\ccl3PPDr.s:1911   .debug_loc:00000000000002df .LLST7
C:\Users\stapi\AppData\Local\Temp\ccl3PPDr.s:1930   .debug_loc:0000000000000313 .LLST8
C:\Users\stapi\AppData\Local\Temp\ccl3PPDr.s:1981   .debug_loc:0000000000000398 .LLST9
C:\Users\stapi\AppData\Local\Temp\ccl3PPDr.s:2004   .debug_loc:00000000000003d7 .LLST10
C:\Users\stapi\AppData\Local\Temp\ccl3PPDr.s:2060   .debug_loc:0000000000000461 .LLST11
C:\Users\stapi\AppData\Local\Temp\ccl3PPDr.s:2208   .debug_str:000000000000003e .LASF23
C:\Users\stapi\AppData\Local\Temp\ccl3PPDr.s:2103   .debug_loc:00000000000004d0 .LLST12
C:\Users\stapi\AppData\Local\Temp\ccl3PPDr.s:2246   .debug_str:000000000000030b .LASF24
C:\Users\stapi\AppData\Local\Temp\ccl3PPDr.s:2118   .debug_loc:00000000000004f9 .LLST13
C:\Users\stapi\AppData\Local\Temp\ccl3PPDr.s:112    .text.omac1_aes_vector:000000000000001a .LVL6
C:\Users\stapi\AppData\Local\Temp\ccl3PPDr.s:123    .text.omac1_aes_vector:000000000000002e .LVL8
C:\Users\stapi\AppData\Local\Temp\ccl3PPDr.s:172    .text.omac1_aes_vector:0000000000000066 .LVL15
C:\Users\stapi\AppData\Local\Temp\ccl3PPDr.s:178    .text.omac1_aes_vector:0000000000000074 .LVL16
C:\Users\stapi\AppData\Local\Temp\ccl3PPDr.s:182    .text.omac1_aes_vector:000000000000007e .LVL17
C:\Users\stapi\AppData\Local\Temp\ccl3PPDr.s:320    .text.omac1_aes_vector:0000000000000116 .LVL40
C:\Users\stapi\AppData\Local\Temp\ccl3PPDr.s:352    .text.omac1_aes_vector:0000000000000140 .LVL45
C:\Users\stapi\AppData\Local\Temp\ccl3PPDr.s:384    .text.omac1_aes_vector:000000000000016e .LVL49
C:\Users\stapi\AppData\Local\Temp\ccl3PPDr.s:388    .text.omac1_aes_vector:0000000000000178 .LVL50
C:\Users\stapi\AppData\Local\Temp\ccl3PPDr.s:2224   .debug_str:0000000000000090 .LASF33
C:\Users\stapi\AppData\Local\Temp\ccl3PPDr.s:13     .text.gf_mulx:0000000000000000 .LFB71
C:\Users\stapi\AppData\Local\Temp\ccl3PPDr.s:71     .text.gf_mulx:0000000000000040 .LFE71
C:\Users\stapi\AppData\Local\Temp\ccl3PPDr.s:2134   .debug_loc:0000000000000523 .LLST0
C:\Users\stapi\AppData\Local\Temp\ccl3PPDr.s:2218   .debug_str:0000000000000077 .LASF25
C:\Users\stapi\AppData\Local\Temp\ccl3PPDr.s:2204   .debug_str:000000000000001f .LASF26
C:\Users\stapi\AppData\Local\Temp\ccl3PPDr.s:2248   .debug_str:0000000000000315 .LASF27
C:\Users\stapi\AppData\Local\Temp\ccl3PPDr.s:2252   .debug_str:0000000000000329 .LASF28
C:\Users\stapi\AppData\Local\Temp\ccl3PPDr.s:2214   .debug_str:000000000000005b .LASF29
C:\Users\stapi\AppData\Local\Temp\ccl3PPDr.s:498    .text.omac1_aes_256:0000000000000000 .LVL66
C:\Users\stapi\AppData\Local\Temp\ccl3PPDr.s:517    .text.omac1_aes_256:000000000000001a .LVL69
C:\Users\stapi\AppData\Local\Temp\ccl3PPDr.s:515    .text.omac1_aes_256:0000000000000016 .LVL68
C:\Users\stapi\AppData\Local\Temp\ccl3PPDr.s:513    .text.omac1_aes_256:0000000000000014 .LVL67
C:\Users\stapi\AppData\Local\Temp\ccl3PPDr.s:460    .text.omac1_aes_128:0000000000000000 .LVL61
C:\Users\stapi\AppData\Local\Temp\ccl3PPDr.s:478    .text.omac1_aes_128:0000000000000016 .LVL64
C:\Users\stapi\AppData\Local\Temp\ccl3PPDr.s:474    .text.omac1_aes_128:0000000000000012 .LVL62
C:\Users\stapi\AppData\Local\Temp\ccl3PPDr.s:476    .text.omac1_aes_128:0000000000000014 .LVL63
C:\Users\stapi\AppData\Local\Temp\ccl3PPDr.s:434    .text.omac1_aes_128_vector:0000000000000000 .LVL55
C:\Users\stapi\AppData\Local\Temp\ccl3PPDr.s:446    .text.omac1_aes_128_vector:000000000000000a .LVL59
C:\Users\stapi\AppData\Local\Temp\ccl3PPDr.s:444    .text.omac1_aes_128_vector:0000000000000008 .LVL58
C:\Users\stapi\AppData\Local\Temp\ccl3PPDr.s:442    .text.omac1_aes_128_vector:0000000000000006 .LVL57
C:\Users\stapi\AppData\Local\Temp\ccl3PPDr.s:440    .text.omac1_aes_128_vector:0000000000000004 .LVL56
C:\Users\stapi\AppData\Local\Temp\ccl3PPDr.s:81     .text.omac1_aes_vector:0000000000000000 .LVL5
C:\Users\stapi\AppData\Local\Temp\ccl3PPDr.s:141    .text.omac1_aes_vector:000000000000003a .LVL11
C:\Users\stapi\AppData\Local\Temp\ccl3PPDr.s:241    .text.omac1_aes_vector:00000000000000bc .LVL28
C:\Users\stapi\AppData\Local\Temp\ccl3PPDr.s:256    .text.omac1_aes_vector:00000000000000c8 .LVL31
C:\Users\stapi\AppData\Local\Temp\ccl3PPDr.s:417    .text.omac1_aes_vector:0000000000000188 .LVL53
C:\Users\stapi\AppData\Local\Temp\ccl3PPDr.s:121    .text.omac1_aes_vector:0000000000000026 .LVL7
C:\Users\stapi\AppData\Local\Temp\ccl3PPDr.s:392    .text.omac1_aes_vector:000000000000017a .LVL51
C:\Users\stapi\AppData\Local\Temp\ccl3PPDr.s:412    .text.omac1_aes_vector:0000000000000184 .LVL52
C:\Users\stapi\AppData\Local\Temp\ccl3PPDr.s:421    .text.omac1_aes_vector:000000000000018a .LVL54
C:\Users\stapi\AppData\Local\Temp\ccl3PPDr.s:199    .text.omac1_aes_vector:0000000000000092 .LVL20
C:\Users\stapi\AppData\Local\Temp\ccl3PPDr.s:221    .text.omac1_aes_vector:00000000000000ac .LVL23
C:\Users\stapi\AppData\Local\Temp\ccl3PPDr.s:226    .text.omac1_aes_vector:00000000000000b0 .LVL24
C:\Users\stapi\AppData\Local\Temp\ccl3PPDr.s:269    .text.omac1_aes_vector:00000000000000d8 .LVL33
C:\Users\stapi\AppData\Local\Temp\ccl3PPDr.s:289    .text.omac1_aes_vector:00000000000000f0 .LVL35
C:\Users\stapi\AppData\Local\Temp\ccl3PPDr.s:296    .text.omac1_aes_vector:00000000000000f8 .LVL36
C:\Users\stapi\AppData\Local\Temp\ccl3PPDr.s:327    .text.omac1_aes_vector:000000000000011a .LVL42
C:\Users\stapi\AppData\Local\Temp\ccl3PPDr.s:334    .text.omac1_aes_vector:0000000000000122 .LVL43
C:\Users\stapi\AppData\Local\Temp\ccl3PPDr.s:338    .text.omac1_aes_vector:0000000000000126 .LVL44
C:\Users\stapi\AppData\Local\Temp\ccl3PPDr.s:151    .text.omac1_aes_vector:0000000000000044 .LVL12
C:\Users\stapi\AppData\Local\Temp\ccl3PPDr.s:230    .text.omac1_aes_vector:00000000000000b2 .LVL25
C:\Users\stapi\AppData\Local\Temp\ccl3PPDr.s:232    .text.omac1_aes_vector:00000000000000b4 .LVL26
C:\Users\stapi\AppData\Local\Temp\ccl3PPDr.s:300    .text.omac1_aes_vector:00000000000000fa .LVL37
C:\Users\stapi\AppData\Local\Temp\ccl3PPDr.s:302    .text.omac1_aes_vector:00000000000000fc .LVL38
C:\Users\stapi\AppData\Local\Temp\ccl3PPDr.s:187    .text.omac1_aes_vector:0000000000000084 .LVL18
C:\Users\stapi\AppData\Local\Temp\ccl3PPDr.s:191    .text.omac1_aes_vector:0000000000000086 .LVL19
C:\Users\stapi\AppData\Local\Temp\ccl3PPDr.s:202    .text.omac1_aes_vector:0000000000000094 .LVL21
C:\Users\stapi\AppData\Local\Temp\ccl3PPDr.s:236    .text.omac1_aes_vector:00000000000000b6 .LVL27
C:\Users\stapi\AppData\Local\Temp\ccl3PPDr.s:262    .text.omac1_aes_vector:00000000000000cc .LVL32
C:\Users\stapi\AppData\Local\Temp\ccl3PPDr.s:359    .text.omac1_aes_vector:0000000000000146 .LVL46
C:\Users\stapi\AppData\Local\Temp\ccl3PPDr.s:368    .text.omac1_aes_vector:0000000000000154 .LVL47
C:\Users\stapi\AppData\Local\Temp\ccl3PPDr.s:375    .text.omac1_aes_vector:000000000000015c .LVL48
C:\Users\stapi\AppData\Local\Temp\ccl3PPDr.s:130    .text.omac1_aes_vector:0000000000000032 .LVL9
C:\Users\stapi\AppData\Local\Temp\ccl3PPDr.s:136    .text.omac1_aes_vector:0000000000000036 .LVL10
C:\Users\stapi\AppData\Local\Temp\ccl3PPDr.s:157    .text.omac1_aes_vector:0000000000000048 .LVL13
C:\Users\stapi\AppData\Local\Temp\ccl3PPDr.s:250    .text.omac1_aes_vector:00000000000000c4 .LVL29
C:\Users\stapi\AppData\Local\Temp\ccl3PPDr.s:253    .text.omac1_aes_vector:00000000000000c6 .LVL30
C:\Users\stapi\AppData\Local\Temp\ccl3PPDr.s:167    .text.omac1_aes_vector:0000000000000058 .LVL14
C:\Users\stapi\AppData\Local\Temp\ccl3PPDr.s:22     .text.gf_mulx:0000000000000004 .LVL1
C:\Users\stapi\AppData\Local\Temp\ccl3PPDr.s:27     .text.gf_mulx:000000000000000a .LVL2
C:\Users\stapi\AppData\Local\Temp\ccl3PPDr.s:36     .text.gf_mulx:0000000000000014 .LVL3
C:\Users\stapi\AppData\Local\Temp\ccl3PPDr.s:45     .text.gf_mulx:000000000000001e .LVL4
C:\Users\stapi\AppData\Local\Temp\ccl3PPDr.s:538    .debug_info:0000000000000000 .Ldebug_info0

UNDEFINED SYMBOLS
__riscv_save_11
aes_encrypt_init
os_memset
aes_encrypt
aes_encrypt_deinit
__riscv_restore_11
__riscv_save_0
__riscv_restore_0
