   1              		.file	"asn1.c"
   2              		.option nopic
   3              		.attribute arch, "rv32i2p0_m2p0_a2p0_f2p0_c2p0_b_p0p94"
   4              		.attribute unaligned_access, 0
   5              		.attribute stack_align, 16
   6              		.text
   7              	.Ltext0:
   8              		.cfi_sections	.debug_frame
   9              		.section	.text.rotate_bits,"ax",@progbits
  10              		.align	1
  12              	rotate_bits:
  13              	.LFB94:
  14              		.file 1 "C:/Users/stapi/OneDrive/Desktop/GD32VW553/V1_MQTT_OK/GD32VW55X_Wifi_BLE_SDK/GD32VW55x_REL
   1:C:/Users/stapi/OneDrive/Desktop/GD32VW553/V1_MQTT_OK/GD32VW55X_Wifi_BLE_SDK/GD32VW55x_RELEASE_V1.0.2/MSDK/wpa_supplicant/src/tls\asn1.c **** /*
   2:C:/Users/stapi/OneDrive/Desktop/GD32VW553/V1_MQTT_OK/GD32VW55X_Wifi_BLE_SDK/GD32VW55x_RELEASE_V1.0.2/MSDK/wpa_supplicant/src/tls\asn1.c ****  * ASN.1 DER parsing
   3:C:/Users/stapi/OneDrive/Desktop/GD32VW553/V1_MQTT_OK/GD32VW55X_Wifi_BLE_SDK/GD32VW55x_RELEASE_V1.0.2/MSDK/wpa_supplicant/src/tls\asn1.c ****  * Copyright (c) 2006-2014, Jouni Malinen <j@w1.fi>
   4:C:/Users/stapi/OneDrive/Desktop/GD32VW553/V1_MQTT_OK/GD32VW55X_Wifi_BLE_SDK/GD32VW55x_RELEASE_V1.0.2/MSDK/wpa_supplicant/src/tls\asn1.c ****  *
   5:C:/Users/stapi/OneDrive/Desktop/GD32VW553/V1_MQTT_OK/GD32VW55X_Wifi_BLE_SDK/GD32VW55x_RELEASE_V1.0.2/MSDK/wpa_supplicant/src/tls\asn1.c ****  * This software may be distributed under the terms of the BSD license.
   6:C:/Users/stapi/OneDrive/Desktop/GD32VW553/V1_MQTT_OK/GD32VW55X_Wifi_BLE_SDK/GD32VW55x_RELEASE_V1.0.2/MSDK/wpa_supplicant/src/tls\asn1.c ****  * See README for more details.
   7:C:/Users/stapi/OneDrive/Desktop/GD32VW553/V1_MQTT_OK/GD32VW55X_Wifi_BLE_SDK/GD32VW55x_RELEASE_V1.0.2/MSDK/wpa_supplicant/src/tls\asn1.c ****  */
   8:C:/Users/stapi/OneDrive/Desktop/GD32VW553/V1_MQTT_OK/GD32VW55X_Wifi_BLE_SDK/GD32VW55x_RELEASE_V1.0.2/MSDK/wpa_supplicant/src/tls\asn1.c **** 
   9:C:/Users/stapi/OneDrive/Desktop/GD32VW553/V1_MQTT_OK/GD32VW55X_Wifi_BLE_SDK/GD32VW55x_RELEASE_V1.0.2/MSDK/wpa_supplicant/src/tls\asn1.c **** #include "includes.h"
  10:C:/Users/stapi/OneDrive/Desktop/GD32VW553/V1_MQTT_OK/GD32VW55X_Wifi_BLE_SDK/GD32VW55x_RELEASE_V1.0.2/MSDK/wpa_supplicant/src/tls\asn1.c **** 
  11:C:/Users/stapi/OneDrive/Desktop/GD32VW553/V1_MQTT_OK/GD32VW55X_Wifi_BLE_SDK/GD32VW55x_RELEASE_V1.0.2/MSDK/wpa_supplicant/src/tls\asn1.c **** #include "common.h"
  12:C:/Users/stapi/OneDrive/Desktop/GD32VW553/V1_MQTT_OK/GD32VW55X_Wifi_BLE_SDK/GD32VW55x_RELEASE_V1.0.2/MSDK/wpa_supplicant/src/tls\asn1.c **** #include "utils/wpabuf.h"
  13:C:/Users/stapi/OneDrive/Desktop/GD32VW553/V1_MQTT_OK/GD32VW55X_Wifi_BLE_SDK/GD32VW55x_RELEASE_V1.0.2/MSDK/wpa_supplicant/src/tls\asn1.c **** #include "asn1.h"
  14:C:/Users/stapi/OneDrive/Desktop/GD32VW553/V1_MQTT_OK/GD32VW55X_Wifi_BLE_SDK/GD32VW55x_RELEASE_V1.0.2/MSDK/wpa_supplicant/src/tls\asn1.c **** 
  15:C:/Users/stapi/OneDrive/Desktop/GD32VW553/V1_MQTT_OK/GD32VW55X_Wifi_BLE_SDK/GD32VW55x_RELEASE_V1.0.2/MSDK/wpa_supplicant/src/tls\asn1.c **** const struct asn1_oid asn1_sha1_oid = {
  16:C:/Users/stapi/OneDrive/Desktop/GD32VW553/V1_MQTT_OK/GD32VW55X_Wifi_BLE_SDK/GD32VW55x_RELEASE_V1.0.2/MSDK/wpa_supplicant/src/tls\asn1.c **** 	.oid = { 1, 3, 14, 3, 2, 26 },
  17:C:/Users/stapi/OneDrive/Desktop/GD32VW553/V1_MQTT_OK/GD32VW55X_Wifi_BLE_SDK/GD32VW55x_RELEASE_V1.0.2/MSDK/wpa_supplicant/src/tls\asn1.c **** 	.len = 6
  18:C:/Users/stapi/OneDrive/Desktop/GD32VW553/V1_MQTT_OK/GD32VW55X_Wifi_BLE_SDK/GD32VW55x_RELEASE_V1.0.2/MSDK/wpa_supplicant/src/tls\asn1.c **** };
  19:C:/Users/stapi/OneDrive/Desktop/GD32VW553/V1_MQTT_OK/GD32VW55X_Wifi_BLE_SDK/GD32VW55x_RELEASE_V1.0.2/MSDK/wpa_supplicant/src/tls\asn1.c **** 
  20:C:/Users/stapi/OneDrive/Desktop/GD32VW553/V1_MQTT_OK/GD32VW55X_Wifi_BLE_SDK/GD32VW55x_RELEASE_V1.0.2/MSDK/wpa_supplicant/src/tls\asn1.c **** const struct asn1_oid asn1_sha256_oid = {
  21:C:/Users/stapi/OneDrive/Desktop/GD32VW553/V1_MQTT_OK/GD32VW55X_Wifi_BLE_SDK/GD32VW55x_RELEASE_V1.0.2/MSDK/wpa_supplicant/src/tls\asn1.c **** 	.oid = { 2, 16, 840, 1, 101, 3, 4, 2, 1 },
  22:C:/Users/stapi/OneDrive/Desktop/GD32VW553/V1_MQTT_OK/GD32VW55X_Wifi_BLE_SDK/GD32VW55x_RELEASE_V1.0.2/MSDK/wpa_supplicant/src/tls\asn1.c **** 	.len = 9
  23:C:/Users/stapi/OneDrive/Desktop/GD32VW553/V1_MQTT_OK/GD32VW55X_Wifi_BLE_SDK/GD32VW55x_RELEASE_V1.0.2/MSDK/wpa_supplicant/src/tls\asn1.c **** };
  24:C:/Users/stapi/OneDrive/Desktop/GD32VW553/V1_MQTT_OK/GD32VW55X_Wifi_BLE_SDK/GD32VW55x_RELEASE_V1.0.2/MSDK/wpa_supplicant/src/tls\asn1.c **** 
  25:C:/Users/stapi/OneDrive/Desktop/GD32VW553/V1_MQTT_OK/GD32VW55X_Wifi_BLE_SDK/GD32VW55x_RELEASE_V1.0.2/MSDK/wpa_supplicant/src/tls\asn1.c **** const struct asn1_oid asn1_ec_public_key_oid = {
  26:C:/Users/stapi/OneDrive/Desktop/GD32VW553/V1_MQTT_OK/GD32VW55X_Wifi_BLE_SDK/GD32VW55x_RELEASE_V1.0.2/MSDK/wpa_supplicant/src/tls\asn1.c **** 	.oid = { 1, 2, 840, 10045, 2, 1 },
  27:C:/Users/stapi/OneDrive/Desktop/GD32VW553/V1_MQTT_OK/GD32VW55X_Wifi_BLE_SDK/GD32VW55x_RELEASE_V1.0.2/MSDK/wpa_supplicant/src/tls\asn1.c **** 	.len = 6
  28:C:/Users/stapi/OneDrive/Desktop/GD32VW553/V1_MQTT_OK/GD32VW55X_Wifi_BLE_SDK/GD32VW55x_RELEASE_V1.0.2/MSDK/wpa_supplicant/src/tls\asn1.c **** };
  29:C:/Users/stapi/OneDrive/Desktop/GD32VW553/V1_MQTT_OK/GD32VW55X_Wifi_BLE_SDK/GD32VW55x_RELEASE_V1.0.2/MSDK/wpa_supplicant/src/tls\asn1.c **** 
  30:C:/Users/stapi/OneDrive/Desktop/GD32VW553/V1_MQTT_OK/GD32VW55X_Wifi_BLE_SDK/GD32VW55x_RELEASE_V1.0.2/MSDK/wpa_supplicant/src/tls\asn1.c **** const struct asn1_oid asn1_prime256v1_oid = {
  31:C:/Users/stapi/OneDrive/Desktop/GD32VW553/V1_MQTT_OK/GD32VW55X_Wifi_BLE_SDK/GD32VW55x_RELEASE_V1.0.2/MSDK/wpa_supplicant/src/tls\asn1.c **** 	.oid = { 1, 2, 840, 10045, 3, 1, 7 },
  32:C:/Users/stapi/OneDrive/Desktop/GD32VW553/V1_MQTT_OK/GD32VW55X_Wifi_BLE_SDK/GD32VW55x_RELEASE_V1.0.2/MSDK/wpa_supplicant/src/tls\asn1.c **** 	.len = 7
  33:C:/Users/stapi/OneDrive/Desktop/GD32VW553/V1_MQTT_OK/GD32VW55X_Wifi_BLE_SDK/GD32VW55x_RELEASE_V1.0.2/MSDK/wpa_supplicant/src/tls\asn1.c **** };
  34:C:/Users/stapi/OneDrive/Desktop/GD32VW553/V1_MQTT_OK/GD32VW55X_Wifi_BLE_SDK/GD32VW55x_RELEASE_V1.0.2/MSDK/wpa_supplicant/src/tls\asn1.c **** 
  35:C:/Users/stapi/OneDrive/Desktop/GD32VW553/V1_MQTT_OK/GD32VW55X_Wifi_BLE_SDK/GD32VW55x_RELEASE_V1.0.2/MSDK/wpa_supplicant/src/tls\asn1.c **** const struct asn1_oid asn1_secp384r1_oid = {
  36:C:/Users/stapi/OneDrive/Desktop/GD32VW553/V1_MQTT_OK/GD32VW55X_Wifi_BLE_SDK/GD32VW55x_RELEASE_V1.0.2/MSDK/wpa_supplicant/src/tls\asn1.c **** 	.oid = { 1, 3, 132, 0, 34 },
  37:C:/Users/stapi/OneDrive/Desktop/GD32VW553/V1_MQTT_OK/GD32VW55X_Wifi_BLE_SDK/GD32VW55x_RELEASE_V1.0.2/MSDK/wpa_supplicant/src/tls\asn1.c **** 	.len = 5
  38:C:/Users/stapi/OneDrive/Desktop/GD32VW553/V1_MQTT_OK/GD32VW55X_Wifi_BLE_SDK/GD32VW55x_RELEASE_V1.0.2/MSDK/wpa_supplicant/src/tls\asn1.c **** };
  39:C:/Users/stapi/OneDrive/Desktop/GD32VW553/V1_MQTT_OK/GD32VW55X_Wifi_BLE_SDK/GD32VW55x_RELEASE_V1.0.2/MSDK/wpa_supplicant/src/tls\asn1.c **** 
  40:C:/Users/stapi/OneDrive/Desktop/GD32VW553/V1_MQTT_OK/GD32VW55X_Wifi_BLE_SDK/GD32VW55x_RELEASE_V1.0.2/MSDK/wpa_supplicant/src/tls\asn1.c **** const struct asn1_oid asn1_secp521r1_oid = {
  41:C:/Users/stapi/OneDrive/Desktop/GD32VW553/V1_MQTT_OK/GD32VW55X_Wifi_BLE_SDK/GD32VW55x_RELEASE_V1.0.2/MSDK/wpa_supplicant/src/tls\asn1.c **** 	.oid = { 1, 3, 132, 0, 35 },
  42:C:/Users/stapi/OneDrive/Desktop/GD32VW553/V1_MQTT_OK/GD32VW55X_Wifi_BLE_SDK/GD32VW55x_RELEASE_V1.0.2/MSDK/wpa_supplicant/src/tls\asn1.c **** 	.len = 5
  43:C:/Users/stapi/OneDrive/Desktop/GD32VW553/V1_MQTT_OK/GD32VW55X_Wifi_BLE_SDK/GD32VW55x_RELEASE_V1.0.2/MSDK/wpa_supplicant/src/tls\asn1.c **** };
  44:C:/Users/stapi/OneDrive/Desktop/GD32VW553/V1_MQTT_OK/GD32VW55X_Wifi_BLE_SDK/GD32VW55x_RELEASE_V1.0.2/MSDK/wpa_supplicant/src/tls\asn1.c **** 
  45:C:/Users/stapi/OneDrive/Desktop/GD32VW553/V1_MQTT_OK/GD32VW55X_Wifi_BLE_SDK/GD32VW55x_RELEASE_V1.0.2/MSDK/wpa_supplicant/src/tls\asn1.c **** const struct asn1_oid asn1_brainpoolP256r1_oid = {
  46:C:/Users/stapi/OneDrive/Desktop/GD32VW553/V1_MQTT_OK/GD32VW55X_Wifi_BLE_SDK/GD32VW55x_RELEASE_V1.0.2/MSDK/wpa_supplicant/src/tls\asn1.c **** 	.oid = { 1, 3, 36, 3, 3, 2, 8, 1, 1, 7 },
  47:C:/Users/stapi/OneDrive/Desktop/GD32VW553/V1_MQTT_OK/GD32VW55X_Wifi_BLE_SDK/GD32VW55x_RELEASE_V1.0.2/MSDK/wpa_supplicant/src/tls\asn1.c **** 	.len = 10
  48:C:/Users/stapi/OneDrive/Desktop/GD32VW553/V1_MQTT_OK/GD32VW55X_Wifi_BLE_SDK/GD32VW55x_RELEASE_V1.0.2/MSDK/wpa_supplicant/src/tls\asn1.c **** };
  49:C:/Users/stapi/OneDrive/Desktop/GD32VW553/V1_MQTT_OK/GD32VW55X_Wifi_BLE_SDK/GD32VW55x_RELEASE_V1.0.2/MSDK/wpa_supplicant/src/tls\asn1.c **** 
  50:C:/Users/stapi/OneDrive/Desktop/GD32VW553/V1_MQTT_OK/GD32VW55X_Wifi_BLE_SDK/GD32VW55x_RELEASE_V1.0.2/MSDK/wpa_supplicant/src/tls\asn1.c **** const struct asn1_oid asn1_brainpoolP384r1_oid = {
  51:C:/Users/stapi/OneDrive/Desktop/GD32VW553/V1_MQTT_OK/GD32VW55X_Wifi_BLE_SDK/GD32VW55x_RELEASE_V1.0.2/MSDK/wpa_supplicant/src/tls\asn1.c **** 	.oid = { 1, 3, 36, 3, 3, 2, 8, 1, 1, 11 },
  52:C:/Users/stapi/OneDrive/Desktop/GD32VW553/V1_MQTT_OK/GD32VW55X_Wifi_BLE_SDK/GD32VW55x_RELEASE_V1.0.2/MSDK/wpa_supplicant/src/tls\asn1.c **** 	.len = 10
  53:C:/Users/stapi/OneDrive/Desktop/GD32VW553/V1_MQTT_OK/GD32VW55X_Wifi_BLE_SDK/GD32VW55x_RELEASE_V1.0.2/MSDK/wpa_supplicant/src/tls\asn1.c **** };
  54:C:/Users/stapi/OneDrive/Desktop/GD32VW553/V1_MQTT_OK/GD32VW55X_Wifi_BLE_SDK/GD32VW55x_RELEASE_V1.0.2/MSDK/wpa_supplicant/src/tls\asn1.c **** 
  55:C:/Users/stapi/OneDrive/Desktop/GD32VW553/V1_MQTT_OK/GD32VW55X_Wifi_BLE_SDK/GD32VW55x_RELEASE_V1.0.2/MSDK/wpa_supplicant/src/tls\asn1.c **** const struct asn1_oid asn1_brainpoolP512r1_oid = {
  56:C:/Users/stapi/OneDrive/Desktop/GD32VW553/V1_MQTT_OK/GD32VW55X_Wifi_BLE_SDK/GD32VW55x_RELEASE_V1.0.2/MSDK/wpa_supplicant/src/tls\asn1.c **** 	.oid = { 1, 3, 36, 3, 3, 2, 8, 1, 1, 13 },
  57:C:/Users/stapi/OneDrive/Desktop/GD32VW553/V1_MQTT_OK/GD32VW55X_Wifi_BLE_SDK/GD32VW55x_RELEASE_V1.0.2/MSDK/wpa_supplicant/src/tls\asn1.c **** 	.len = 10
  58:C:/Users/stapi/OneDrive/Desktop/GD32VW553/V1_MQTT_OK/GD32VW55X_Wifi_BLE_SDK/GD32VW55x_RELEASE_V1.0.2/MSDK/wpa_supplicant/src/tls\asn1.c **** };
  59:C:/Users/stapi/OneDrive/Desktop/GD32VW553/V1_MQTT_OK/GD32VW55X_Wifi_BLE_SDK/GD32VW55x_RELEASE_V1.0.2/MSDK/wpa_supplicant/src/tls\asn1.c **** 
  60:C:/Users/stapi/OneDrive/Desktop/GD32VW553/V1_MQTT_OK/GD32VW55X_Wifi_BLE_SDK/GD32VW55x_RELEASE_V1.0.2/MSDK/wpa_supplicant/src/tls\asn1.c **** const struct asn1_oid asn1_aes_siv_cmac_aead_256_oid = {
  61:C:/Users/stapi/OneDrive/Desktop/GD32VW553/V1_MQTT_OK/GD32VW55X_Wifi_BLE_SDK/GD32VW55x_RELEASE_V1.0.2/MSDK/wpa_supplicant/src/tls\asn1.c **** 	.oid = { 1, 2, 840, 113549, 1, 9, 16, 3, 22 },
  62:C:/Users/stapi/OneDrive/Desktop/GD32VW553/V1_MQTT_OK/GD32VW55X_Wifi_BLE_SDK/GD32VW55x_RELEASE_V1.0.2/MSDK/wpa_supplicant/src/tls\asn1.c **** 	.len = 9
  63:C:/Users/stapi/OneDrive/Desktop/GD32VW553/V1_MQTT_OK/GD32VW55X_Wifi_BLE_SDK/GD32VW55x_RELEASE_V1.0.2/MSDK/wpa_supplicant/src/tls\asn1.c **** };
  64:C:/Users/stapi/OneDrive/Desktop/GD32VW553/V1_MQTT_OK/GD32VW55X_Wifi_BLE_SDK/GD32VW55x_RELEASE_V1.0.2/MSDK/wpa_supplicant/src/tls\asn1.c **** 
  65:C:/Users/stapi/OneDrive/Desktop/GD32VW553/V1_MQTT_OK/GD32VW55X_Wifi_BLE_SDK/GD32VW55x_RELEASE_V1.0.2/MSDK/wpa_supplicant/src/tls\asn1.c **** const struct asn1_oid asn1_aes_siv_cmac_aead_384_oid = {
  66:C:/Users/stapi/OneDrive/Desktop/GD32VW553/V1_MQTT_OK/GD32VW55X_Wifi_BLE_SDK/GD32VW55x_RELEASE_V1.0.2/MSDK/wpa_supplicant/src/tls\asn1.c **** 	.oid = { 1, 2, 840, 113549, 1, 9, 16, 3, 23 },
  67:C:/Users/stapi/OneDrive/Desktop/GD32VW553/V1_MQTT_OK/GD32VW55X_Wifi_BLE_SDK/GD32VW55x_RELEASE_V1.0.2/MSDK/wpa_supplicant/src/tls\asn1.c **** 	.len = 9
  68:C:/Users/stapi/OneDrive/Desktop/GD32VW553/V1_MQTT_OK/GD32VW55X_Wifi_BLE_SDK/GD32VW55x_RELEASE_V1.0.2/MSDK/wpa_supplicant/src/tls\asn1.c **** };
  69:C:/Users/stapi/OneDrive/Desktop/GD32VW553/V1_MQTT_OK/GD32VW55X_Wifi_BLE_SDK/GD32VW55x_RELEASE_V1.0.2/MSDK/wpa_supplicant/src/tls\asn1.c **** 
  70:C:/Users/stapi/OneDrive/Desktop/GD32VW553/V1_MQTT_OK/GD32VW55X_Wifi_BLE_SDK/GD32VW55x_RELEASE_V1.0.2/MSDK/wpa_supplicant/src/tls\asn1.c **** const struct asn1_oid asn1_aes_siv_cmac_aead_512_oid = {
  71:C:/Users/stapi/OneDrive/Desktop/GD32VW553/V1_MQTT_OK/GD32VW55X_Wifi_BLE_SDK/GD32VW55x_RELEASE_V1.0.2/MSDK/wpa_supplicant/src/tls\asn1.c **** 	.oid = { 1, 2, 840, 113549, 1, 9, 16, 3, 24 },
  72:C:/Users/stapi/OneDrive/Desktop/GD32VW553/V1_MQTT_OK/GD32VW55X_Wifi_BLE_SDK/GD32VW55x_RELEASE_V1.0.2/MSDK/wpa_supplicant/src/tls\asn1.c **** 	.len = 9
  73:C:/Users/stapi/OneDrive/Desktop/GD32VW553/V1_MQTT_OK/GD32VW55X_Wifi_BLE_SDK/GD32VW55x_RELEASE_V1.0.2/MSDK/wpa_supplicant/src/tls\asn1.c **** };
  74:C:/Users/stapi/OneDrive/Desktop/GD32VW553/V1_MQTT_OK/GD32VW55X_Wifi_BLE_SDK/GD32VW55x_RELEASE_V1.0.2/MSDK/wpa_supplicant/src/tls\asn1.c **** 
  75:C:/Users/stapi/OneDrive/Desktop/GD32VW553/V1_MQTT_OK/GD32VW55X_Wifi_BLE_SDK/GD32VW55x_RELEASE_V1.0.2/MSDK/wpa_supplicant/src/tls\asn1.c **** const struct asn1_oid asn1_pbkdf2_oid = {
  76:C:/Users/stapi/OneDrive/Desktop/GD32VW553/V1_MQTT_OK/GD32VW55X_Wifi_BLE_SDK/GD32VW55x_RELEASE_V1.0.2/MSDK/wpa_supplicant/src/tls\asn1.c **** 	.oid = { 1, 2, 840, 113549, 1, 5, 12 },
  77:C:/Users/stapi/OneDrive/Desktop/GD32VW553/V1_MQTT_OK/GD32VW55X_Wifi_BLE_SDK/GD32VW55x_RELEASE_V1.0.2/MSDK/wpa_supplicant/src/tls\asn1.c **** 	.len = 7
  78:C:/Users/stapi/OneDrive/Desktop/GD32VW553/V1_MQTT_OK/GD32VW55X_Wifi_BLE_SDK/GD32VW55x_RELEASE_V1.0.2/MSDK/wpa_supplicant/src/tls\asn1.c **** };
  79:C:/Users/stapi/OneDrive/Desktop/GD32VW553/V1_MQTT_OK/GD32VW55X_Wifi_BLE_SDK/GD32VW55x_RELEASE_V1.0.2/MSDK/wpa_supplicant/src/tls\asn1.c **** 
  80:C:/Users/stapi/OneDrive/Desktop/GD32VW553/V1_MQTT_OK/GD32VW55X_Wifi_BLE_SDK/GD32VW55x_RELEASE_V1.0.2/MSDK/wpa_supplicant/src/tls\asn1.c **** const struct asn1_oid asn1_pbkdf2_hmac_sha256_oid = {
  81:C:/Users/stapi/OneDrive/Desktop/GD32VW553/V1_MQTT_OK/GD32VW55X_Wifi_BLE_SDK/GD32VW55x_RELEASE_V1.0.2/MSDK/wpa_supplicant/src/tls\asn1.c **** 	.oid = { 1, 2, 840, 113549, 2, 9 },
  82:C:/Users/stapi/OneDrive/Desktop/GD32VW553/V1_MQTT_OK/GD32VW55X_Wifi_BLE_SDK/GD32VW55x_RELEASE_V1.0.2/MSDK/wpa_supplicant/src/tls\asn1.c **** 	.len = 6
  83:C:/Users/stapi/OneDrive/Desktop/GD32VW553/V1_MQTT_OK/GD32VW55X_Wifi_BLE_SDK/GD32VW55x_RELEASE_V1.0.2/MSDK/wpa_supplicant/src/tls\asn1.c **** };
  84:C:/Users/stapi/OneDrive/Desktop/GD32VW553/V1_MQTT_OK/GD32VW55X_Wifi_BLE_SDK/GD32VW55x_RELEASE_V1.0.2/MSDK/wpa_supplicant/src/tls\asn1.c **** 
  85:C:/Users/stapi/OneDrive/Desktop/GD32VW553/V1_MQTT_OK/GD32VW55X_Wifi_BLE_SDK/GD32VW55x_RELEASE_V1.0.2/MSDK/wpa_supplicant/src/tls\asn1.c **** const struct asn1_oid asn1_pbkdf2_hmac_sha384_oid = {
  86:C:/Users/stapi/OneDrive/Desktop/GD32VW553/V1_MQTT_OK/GD32VW55X_Wifi_BLE_SDK/GD32VW55x_RELEASE_V1.0.2/MSDK/wpa_supplicant/src/tls\asn1.c **** 	.oid = { 1, 2, 840, 113549, 2, 10 },
  87:C:/Users/stapi/OneDrive/Desktop/GD32VW553/V1_MQTT_OK/GD32VW55X_Wifi_BLE_SDK/GD32VW55x_RELEASE_V1.0.2/MSDK/wpa_supplicant/src/tls\asn1.c **** 	.len = 6
  88:C:/Users/stapi/OneDrive/Desktop/GD32VW553/V1_MQTT_OK/GD32VW55X_Wifi_BLE_SDK/GD32VW55x_RELEASE_V1.0.2/MSDK/wpa_supplicant/src/tls\asn1.c **** };
  89:C:/Users/stapi/OneDrive/Desktop/GD32VW553/V1_MQTT_OK/GD32VW55X_Wifi_BLE_SDK/GD32VW55x_RELEASE_V1.0.2/MSDK/wpa_supplicant/src/tls\asn1.c **** 
  90:C:/Users/stapi/OneDrive/Desktop/GD32VW553/V1_MQTT_OK/GD32VW55X_Wifi_BLE_SDK/GD32VW55x_RELEASE_V1.0.2/MSDK/wpa_supplicant/src/tls\asn1.c **** const struct asn1_oid asn1_pbkdf2_hmac_sha512_oid = {
  91:C:/Users/stapi/OneDrive/Desktop/GD32VW553/V1_MQTT_OK/GD32VW55X_Wifi_BLE_SDK/GD32VW55x_RELEASE_V1.0.2/MSDK/wpa_supplicant/src/tls\asn1.c **** 	.oid = { 1, 2, 840, 113549, 2, 11 },
  92:C:/Users/stapi/OneDrive/Desktop/GD32VW553/V1_MQTT_OK/GD32VW55X_Wifi_BLE_SDK/GD32VW55x_RELEASE_V1.0.2/MSDK/wpa_supplicant/src/tls\asn1.c **** 	.len = 6
  93:C:/Users/stapi/OneDrive/Desktop/GD32VW553/V1_MQTT_OK/GD32VW55X_Wifi_BLE_SDK/GD32VW55x_RELEASE_V1.0.2/MSDK/wpa_supplicant/src/tls\asn1.c **** };
  94:C:/Users/stapi/OneDrive/Desktop/GD32VW553/V1_MQTT_OK/GD32VW55X_Wifi_BLE_SDK/GD32VW55x_RELEASE_V1.0.2/MSDK/wpa_supplicant/src/tls\asn1.c **** 
  95:C:/Users/stapi/OneDrive/Desktop/GD32VW553/V1_MQTT_OK/GD32VW55X_Wifi_BLE_SDK/GD32VW55x_RELEASE_V1.0.2/MSDK/wpa_supplicant/src/tls\asn1.c **** const struct asn1_oid asn1_dpp_config_params_oid = {
  96:C:/Users/stapi/OneDrive/Desktop/GD32VW553/V1_MQTT_OK/GD32VW55X_Wifi_BLE_SDK/GD32VW55x_RELEASE_V1.0.2/MSDK/wpa_supplicant/src/tls\asn1.c **** 	.oid = { 1, 3, 6, 1, 4, 1, 40808, 1, 2, 1 },
  97:C:/Users/stapi/OneDrive/Desktop/GD32VW553/V1_MQTT_OK/GD32VW55X_Wifi_BLE_SDK/GD32VW55x_RELEASE_V1.0.2/MSDK/wpa_supplicant/src/tls\asn1.c **** 	.len = 10
  98:C:/Users/stapi/OneDrive/Desktop/GD32VW553/V1_MQTT_OK/GD32VW55X_Wifi_BLE_SDK/GD32VW55x_RELEASE_V1.0.2/MSDK/wpa_supplicant/src/tls\asn1.c **** };
  99:C:/Users/stapi/OneDrive/Desktop/GD32VW553/V1_MQTT_OK/GD32VW55X_Wifi_BLE_SDK/GD32VW55x_RELEASE_V1.0.2/MSDK/wpa_supplicant/src/tls\asn1.c **** 
 100:C:/Users/stapi/OneDrive/Desktop/GD32VW553/V1_MQTT_OK/GD32VW55X_Wifi_BLE_SDK/GD32VW55x_RELEASE_V1.0.2/MSDK/wpa_supplicant/src/tls\asn1.c **** const struct asn1_oid asn1_dpp_asymmetric_key_package_oid = {
 101:C:/Users/stapi/OneDrive/Desktop/GD32VW553/V1_MQTT_OK/GD32VW55X_Wifi_BLE_SDK/GD32VW55x_RELEASE_V1.0.2/MSDK/wpa_supplicant/src/tls\asn1.c **** 	.oid = { 1, 3, 6, 1, 4, 1, 40808, 1, 2, 2 },
 102:C:/Users/stapi/OneDrive/Desktop/GD32VW553/V1_MQTT_OK/GD32VW55X_Wifi_BLE_SDK/GD32VW55x_RELEASE_V1.0.2/MSDK/wpa_supplicant/src/tls\asn1.c **** 	.len = 10
 103:C:/Users/stapi/OneDrive/Desktop/GD32VW553/V1_MQTT_OK/GD32VW55X_Wifi_BLE_SDK/GD32VW55x_RELEASE_V1.0.2/MSDK/wpa_supplicant/src/tls\asn1.c **** };
 104:C:/Users/stapi/OneDrive/Desktop/GD32VW553/V1_MQTT_OK/GD32VW55X_Wifi_BLE_SDK/GD32VW55x_RELEASE_V1.0.2/MSDK/wpa_supplicant/src/tls\asn1.c **** 
 105:C:/Users/stapi/OneDrive/Desktop/GD32VW553/V1_MQTT_OK/GD32VW55X_Wifi_BLE_SDK/GD32VW55x_RELEASE_V1.0.2/MSDK/wpa_supplicant/src/tls\asn1.c **** 
 106:C:/Users/stapi/OneDrive/Desktop/GD32VW553/V1_MQTT_OK/GD32VW55X_Wifi_BLE_SDK/GD32VW55x_RELEASE_V1.0.2/MSDK/wpa_supplicant/src/tls\asn1.c **** static int asn1_valid_der_boolean(struct asn1_hdr *hdr)
 107:C:/Users/stapi/OneDrive/Desktop/GD32VW553/V1_MQTT_OK/GD32VW55X_Wifi_BLE_SDK/GD32VW55x_RELEASE_V1.0.2/MSDK/wpa_supplicant/src/tls\asn1.c **** {
 108:C:/Users/stapi/OneDrive/Desktop/GD32VW553/V1_MQTT_OK/GD32VW55X_Wifi_BLE_SDK/GD32VW55x_RELEASE_V1.0.2/MSDK/wpa_supplicant/src/tls\asn1.c **** 	/* Enforce DER requirements for a single way of encoding a BOOLEAN */
 109:C:/Users/stapi/OneDrive/Desktop/GD32VW553/V1_MQTT_OK/GD32VW55X_Wifi_BLE_SDK/GD32VW55x_RELEASE_V1.0.2/MSDK/wpa_supplicant/src/tls\asn1.c **** 	if (hdr->length != 1) {
 110:C:/Users/stapi/OneDrive/Desktop/GD32VW553/V1_MQTT_OK/GD32VW55X_Wifi_BLE_SDK/GD32VW55x_RELEASE_V1.0.2/MSDK/wpa_supplicant/src/tls\asn1.c **** 		wpa_printf(MSG_DEBUG, "ASN.1: Unexpected BOOLEAN length (%u)",
 111:C:/Users/stapi/OneDrive/Desktop/GD32VW553/V1_MQTT_OK/GD32VW55X_Wifi_BLE_SDK/GD32VW55x_RELEASE_V1.0.2/MSDK/wpa_supplicant/src/tls\asn1.c **** 			   hdr->length);
 112:C:/Users/stapi/OneDrive/Desktop/GD32VW553/V1_MQTT_OK/GD32VW55X_Wifi_BLE_SDK/GD32VW55x_RELEASE_V1.0.2/MSDK/wpa_supplicant/src/tls\asn1.c **** 		return 0;
 113:C:/Users/stapi/OneDrive/Desktop/GD32VW553/V1_MQTT_OK/GD32VW55X_Wifi_BLE_SDK/GD32VW55x_RELEASE_V1.0.2/MSDK/wpa_supplicant/src/tls\asn1.c **** 	}
 114:C:/Users/stapi/OneDrive/Desktop/GD32VW553/V1_MQTT_OK/GD32VW55X_Wifi_BLE_SDK/GD32VW55x_RELEASE_V1.0.2/MSDK/wpa_supplicant/src/tls\asn1.c **** 
 115:C:/Users/stapi/OneDrive/Desktop/GD32VW553/V1_MQTT_OK/GD32VW55X_Wifi_BLE_SDK/GD32VW55x_RELEASE_V1.0.2/MSDK/wpa_supplicant/src/tls\asn1.c **** 	if (hdr->payload[0] != 0 && hdr->payload[0] != 0xff) {
 116:C:/Users/stapi/OneDrive/Desktop/GD32VW553/V1_MQTT_OK/GD32VW55X_Wifi_BLE_SDK/GD32VW55x_RELEASE_V1.0.2/MSDK/wpa_supplicant/src/tls\asn1.c **** 		wpa_printf(MSG_DEBUG,
 117:C:/Users/stapi/OneDrive/Desktop/GD32VW553/V1_MQTT_OK/GD32VW55X_Wifi_BLE_SDK/GD32VW55x_RELEASE_V1.0.2/MSDK/wpa_supplicant/src/tls\asn1.c **** 			   "ASN.1: Invalid BOOLEAN value 0x%x (DER requires 0 or 0xff)",
 118:C:/Users/stapi/OneDrive/Desktop/GD32VW553/V1_MQTT_OK/GD32VW55X_Wifi_BLE_SDK/GD32VW55x_RELEASE_V1.0.2/MSDK/wpa_supplicant/src/tls\asn1.c **** 			   hdr->payload[0]);
 119:C:/Users/stapi/OneDrive/Desktop/GD32VW553/V1_MQTT_OK/GD32VW55X_Wifi_BLE_SDK/GD32VW55x_RELEASE_V1.0.2/MSDK/wpa_supplicant/src/tls\asn1.c **** 		return 0;
 120:C:/Users/stapi/OneDrive/Desktop/GD32VW553/V1_MQTT_OK/GD32VW55X_Wifi_BLE_SDK/GD32VW55x_RELEASE_V1.0.2/MSDK/wpa_supplicant/src/tls\asn1.c **** 	}
 121:C:/Users/stapi/OneDrive/Desktop/GD32VW553/V1_MQTT_OK/GD32VW55X_Wifi_BLE_SDK/GD32VW55x_RELEASE_V1.0.2/MSDK/wpa_supplicant/src/tls\asn1.c **** 
 122:C:/Users/stapi/OneDrive/Desktop/GD32VW553/V1_MQTT_OK/GD32VW55X_Wifi_BLE_SDK/GD32VW55x_RELEASE_V1.0.2/MSDK/wpa_supplicant/src/tls\asn1.c **** 	return 1;
 123:C:/Users/stapi/OneDrive/Desktop/GD32VW553/V1_MQTT_OK/GD32VW55X_Wifi_BLE_SDK/GD32VW55x_RELEASE_V1.0.2/MSDK/wpa_supplicant/src/tls\asn1.c **** }
 124:C:/Users/stapi/OneDrive/Desktop/GD32VW553/V1_MQTT_OK/GD32VW55X_Wifi_BLE_SDK/GD32VW55x_RELEASE_V1.0.2/MSDK/wpa_supplicant/src/tls\asn1.c **** 
 125:C:/Users/stapi/OneDrive/Desktop/GD32VW553/V1_MQTT_OK/GD32VW55X_Wifi_BLE_SDK/GD32VW55x_RELEASE_V1.0.2/MSDK/wpa_supplicant/src/tls\asn1.c **** 
 126:C:/Users/stapi/OneDrive/Desktop/GD32VW553/V1_MQTT_OK/GD32VW55X_Wifi_BLE_SDK/GD32VW55x_RELEASE_V1.0.2/MSDK/wpa_supplicant/src/tls\asn1.c **** static int asn1_valid_der(struct asn1_hdr *hdr)
 127:C:/Users/stapi/OneDrive/Desktop/GD32VW553/V1_MQTT_OK/GD32VW55X_Wifi_BLE_SDK/GD32VW55x_RELEASE_V1.0.2/MSDK/wpa_supplicant/src/tls\asn1.c **** {
 128:C:/Users/stapi/OneDrive/Desktop/GD32VW553/V1_MQTT_OK/GD32VW55X_Wifi_BLE_SDK/GD32VW55x_RELEASE_V1.0.2/MSDK/wpa_supplicant/src/tls\asn1.c **** 	if (hdr->class != ASN1_CLASS_UNIVERSAL)
 129:C:/Users/stapi/OneDrive/Desktop/GD32VW553/V1_MQTT_OK/GD32VW55X_Wifi_BLE_SDK/GD32VW55x_RELEASE_V1.0.2/MSDK/wpa_supplicant/src/tls\asn1.c **** 		return 1;
 130:C:/Users/stapi/OneDrive/Desktop/GD32VW553/V1_MQTT_OK/GD32VW55X_Wifi_BLE_SDK/GD32VW55x_RELEASE_V1.0.2/MSDK/wpa_supplicant/src/tls\asn1.c **** 	if (hdr->tag == ASN1_TAG_BOOLEAN && !asn1_valid_der_boolean(hdr))
 131:C:/Users/stapi/OneDrive/Desktop/GD32VW553/V1_MQTT_OK/GD32VW55X_Wifi_BLE_SDK/GD32VW55x_RELEASE_V1.0.2/MSDK/wpa_supplicant/src/tls\asn1.c **** 		return 0;
 132:C:/Users/stapi/OneDrive/Desktop/GD32VW553/V1_MQTT_OK/GD32VW55X_Wifi_BLE_SDK/GD32VW55x_RELEASE_V1.0.2/MSDK/wpa_supplicant/src/tls\asn1.c **** 	if (hdr->tag == ASN1_TAG_NULL && hdr->length != 0)
 133:C:/Users/stapi/OneDrive/Desktop/GD32VW553/V1_MQTT_OK/GD32VW55X_Wifi_BLE_SDK/GD32VW55x_RELEASE_V1.0.2/MSDK/wpa_supplicant/src/tls\asn1.c **** 		return 0;
 134:C:/Users/stapi/OneDrive/Desktop/GD32VW553/V1_MQTT_OK/GD32VW55X_Wifi_BLE_SDK/GD32VW55x_RELEASE_V1.0.2/MSDK/wpa_supplicant/src/tls\asn1.c **** 
 135:C:/Users/stapi/OneDrive/Desktop/GD32VW553/V1_MQTT_OK/GD32VW55X_Wifi_BLE_SDK/GD32VW55x_RELEASE_V1.0.2/MSDK/wpa_supplicant/src/tls\asn1.c **** 	/* Check for allowed primitive/constructed values */
 136:C:/Users/stapi/OneDrive/Desktop/GD32VW553/V1_MQTT_OK/GD32VW55X_Wifi_BLE_SDK/GD32VW55x_RELEASE_V1.0.2/MSDK/wpa_supplicant/src/tls\asn1.c **** 	if (hdr->constructed &&
 137:C:/Users/stapi/OneDrive/Desktop/GD32VW553/V1_MQTT_OK/GD32VW55X_Wifi_BLE_SDK/GD32VW55x_RELEASE_V1.0.2/MSDK/wpa_supplicant/src/tls\asn1.c **** 	    (hdr->tag == ASN1_TAG_BOOLEAN ||
 138:C:/Users/stapi/OneDrive/Desktop/GD32VW553/V1_MQTT_OK/GD32VW55X_Wifi_BLE_SDK/GD32VW55x_RELEASE_V1.0.2/MSDK/wpa_supplicant/src/tls\asn1.c **** 	     hdr->tag == ASN1_TAG_INTEGER ||
 139:C:/Users/stapi/OneDrive/Desktop/GD32VW553/V1_MQTT_OK/GD32VW55X_Wifi_BLE_SDK/GD32VW55x_RELEASE_V1.0.2/MSDK/wpa_supplicant/src/tls\asn1.c **** 	     hdr->tag == ASN1_TAG_NULL ||
 140:C:/Users/stapi/OneDrive/Desktop/GD32VW553/V1_MQTT_OK/GD32VW55X_Wifi_BLE_SDK/GD32VW55x_RELEASE_V1.0.2/MSDK/wpa_supplicant/src/tls\asn1.c **** 	     hdr->tag == ASN1_TAG_OID ||
 141:C:/Users/stapi/OneDrive/Desktop/GD32VW553/V1_MQTT_OK/GD32VW55X_Wifi_BLE_SDK/GD32VW55x_RELEASE_V1.0.2/MSDK/wpa_supplicant/src/tls\asn1.c **** 	     hdr->tag == ANS1_TAG_RELATIVE_OID ||
 142:C:/Users/stapi/OneDrive/Desktop/GD32VW553/V1_MQTT_OK/GD32VW55X_Wifi_BLE_SDK/GD32VW55x_RELEASE_V1.0.2/MSDK/wpa_supplicant/src/tls\asn1.c **** 	     hdr->tag == ASN1_TAG_REAL ||
 143:C:/Users/stapi/OneDrive/Desktop/GD32VW553/V1_MQTT_OK/GD32VW55X_Wifi_BLE_SDK/GD32VW55x_RELEASE_V1.0.2/MSDK/wpa_supplicant/src/tls\asn1.c **** 	     hdr->tag == ASN1_TAG_ENUMERATED ||
 144:C:/Users/stapi/OneDrive/Desktop/GD32VW553/V1_MQTT_OK/GD32VW55X_Wifi_BLE_SDK/GD32VW55x_RELEASE_V1.0.2/MSDK/wpa_supplicant/src/tls\asn1.c **** 	     hdr->tag == ASN1_TAG_BITSTRING ||
 145:C:/Users/stapi/OneDrive/Desktop/GD32VW553/V1_MQTT_OK/GD32VW55X_Wifi_BLE_SDK/GD32VW55x_RELEASE_V1.0.2/MSDK/wpa_supplicant/src/tls\asn1.c **** 	     hdr->tag == ASN1_TAG_OCTETSTRING ||
 146:C:/Users/stapi/OneDrive/Desktop/GD32VW553/V1_MQTT_OK/GD32VW55X_Wifi_BLE_SDK/GD32VW55x_RELEASE_V1.0.2/MSDK/wpa_supplicant/src/tls\asn1.c **** 	     hdr->tag == ASN1_TAG_NUMERICSTRING ||
 147:C:/Users/stapi/OneDrive/Desktop/GD32VW553/V1_MQTT_OK/GD32VW55X_Wifi_BLE_SDK/GD32VW55x_RELEASE_V1.0.2/MSDK/wpa_supplicant/src/tls\asn1.c **** 	     hdr->tag == ASN1_TAG_PRINTABLESTRING ||
 148:C:/Users/stapi/OneDrive/Desktop/GD32VW553/V1_MQTT_OK/GD32VW55X_Wifi_BLE_SDK/GD32VW55x_RELEASE_V1.0.2/MSDK/wpa_supplicant/src/tls\asn1.c **** 	     hdr->tag == ASN1_TAG_T61STRING ||
 149:C:/Users/stapi/OneDrive/Desktop/GD32VW553/V1_MQTT_OK/GD32VW55X_Wifi_BLE_SDK/GD32VW55x_RELEASE_V1.0.2/MSDK/wpa_supplicant/src/tls\asn1.c **** 	     hdr->tag == ASN1_TAG_VIDEOTEXSTRING ||
 150:C:/Users/stapi/OneDrive/Desktop/GD32VW553/V1_MQTT_OK/GD32VW55X_Wifi_BLE_SDK/GD32VW55x_RELEASE_V1.0.2/MSDK/wpa_supplicant/src/tls\asn1.c **** 	     hdr->tag == ASN1_TAG_VISIBLESTRING ||
 151:C:/Users/stapi/OneDrive/Desktop/GD32VW553/V1_MQTT_OK/GD32VW55X_Wifi_BLE_SDK/GD32VW55x_RELEASE_V1.0.2/MSDK/wpa_supplicant/src/tls\asn1.c **** 	     hdr->tag == ASN1_TAG_IA5STRING ||
 152:C:/Users/stapi/OneDrive/Desktop/GD32VW553/V1_MQTT_OK/GD32VW55X_Wifi_BLE_SDK/GD32VW55x_RELEASE_V1.0.2/MSDK/wpa_supplicant/src/tls\asn1.c **** 	     hdr->tag == ASN1_TAG_GRAPHICSTRING ||
 153:C:/Users/stapi/OneDrive/Desktop/GD32VW553/V1_MQTT_OK/GD32VW55X_Wifi_BLE_SDK/GD32VW55x_RELEASE_V1.0.2/MSDK/wpa_supplicant/src/tls\asn1.c **** 	     hdr->tag == ASN1_TAG_GENERALSTRING ||
 154:C:/Users/stapi/OneDrive/Desktop/GD32VW553/V1_MQTT_OK/GD32VW55X_Wifi_BLE_SDK/GD32VW55x_RELEASE_V1.0.2/MSDK/wpa_supplicant/src/tls\asn1.c **** 	     hdr->tag == ASN1_TAG_UNIVERSALSTRING ||
 155:C:/Users/stapi/OneDrive/Desktop/GD32VW553/V1_MQTT_OK/GD32VW55X_Wifi_BLE_SDK/GD32VW55x_RELEASE_V1.0.2/MSDK/wpa_supplicant/src/tls\asn1.c **** 	     hdr->tag == ASN1_TAG_UTF8STRING ||
 156:C:/Users/stapi/OneDrive/Desktop/GD32VW553/V1_MQTT_OK/GD32VW55X_Wifi_BLE_SDK/GD32VW55x_RELEASE_V1.0.2/MSDK/wpa_supplicant/src/tls\asn1.c **** 	     hdr->tag == ASN1_TAG_BMPSTRING ||
 157:C:/Users/stapi/OneDrive/Desktop/GD32VW553/V1_MQTT_OK/GD32VW55X_Wifi_BLE_SDK/GD32VW55x_RELEASE_V1.0.2/MSDK/wpa_supplicant/src/tls\asn1.c **** 	     hdr->tag == ASN1_TAG_CHARACTERSTRING ||
 158:C:/Users/stapi/OneDrive/Desktop/GD32VW553/V1_MQTT_OK/GD32VW55X_Wifi_BLE_SDK/GD32VW55x_RELEASE_V1.0.2/MSDK/wpa_supplicant/src/tls\asn1.c **** 	     hdr->tag == ASN1_TAG_UTCTIME ||
 159:C:/Users/stapi/OneDrive/Desktop/GD32VW553/V1_MQTT_OK/GD32VW55X_Wifi_BLE_SDK/GD32VW55x_RELEASE_V1.0.2/MSDK/wpa_supplicant/src/tls\asn1.c **** 	     hdr->tag == ASN1_TAG_GENERALIZEDTIME ||
 160:C:/Users/stapi/OneDrive/Desktop/GD32VW553/V1_MQTT_OK/GD32VW55X_Wifi_BLE_SDK/GD32VW55x_RELEASE_V1.0.2/MSDK/wpa_supplicant/src/tls\asn1.c **** 	     hdr->tag == ASN1_TAG_TIME))
 161:C:/Users/stapi/OneDrive/Desktop/GD32VW553/V1_MQTT_OK/GD32VW55X_Wifi_BLE_SDK/GD32VW55x_RELEASE_V1.0.2/MSDK/wpa_supplicant/src/tls\asn1.c **** 		return 0;
 162:C:/Users/stapi/OneDrive/Desktop/GD32VW553/V1_MQTT_OK/GD32VW55X_Wifi_BLE_SDK/GD32VW55x_RELEASE_V1.0.2/MSDK/wpa_supplicant/src/tls\asn1.c **** 	if (!hdr->constructed &&
 163:C:/Users/stapi/OneDrive/Desktop/GD32VW553/V1_MQTT_OK/GD32VW55X_Wifi_BLE_SDK/GD32VW55x_RELEASE_V1.0.2/MSDK/wpa_supplicant/src/tls\asn1.c **** 	    (hdr->tag == ASN1_TAG_SEQUENCE ||
 164:C:/Users/stapi/OneDrive/Desktop/GD32VW553/V1_MQTT_OK/GD32VW55X_Wifi_BLE_SDK/GD32VW55x_RELEASE_V1.0.2/MSDK/wpa_supplicant/src/tls\asn1.c **** 	     hdr->tag == ASN1_TAG_SET))
 165:C:/Users/stapi/OneDrive/Desktop/GD32VW553/V1_MQTT_OK/GD32VW55X_Wifi_BLE_SDK/GD32VW55x_RELEASE_V1.0.2/MSDK/wpa_supplicant/src/tls\asn1.c **** 		return 0;
 166:C:/Users/stapi/OneDrive/Desktop/GD32VW553/V1_MQTT_OK/GD32VW55X_Wifi_BLE_SDK/GD32VW55x_RELEASE_V1.0.2/MSDK/wpa_supplicant/src/tls\asn1.c **** 
 167:C:/Users/stapi/OneDrive/Desktop/GD32VW553/V1_MQTT_OK/GD32VW55X_Wifi_BLE_SDK/GD32VW55x_RELEASE_V1.0.2/MSDK/wpa_supplicant/src/tls\asn1.c **** 	return 1;
 168:C:/Users/stapi/OneDrive/Desktop/GD32VW553/V1_MQTT_OK/GD32VW55X_Wifi_BLE_SDK/GD32VW55x_RELEASE_V1.0.2/MSDK/wpa_supplicant/src/tls\asn1.c **** }
 169:C:/Users/stapi/OneDrive/Desktop/GD32VW553/V1_MQTT_OK/GD32VW55X_Wifi_BLE_SDK/GD32VW55x_RELEASE_V1.0.2/MSDK/wpa_supplicant/src/tls\asn1.c **** 
 170:C:/Users/stapi/OneDrive/Desktop/GD32VW553/V1_MQTT_OK/GD32VW55X_Wifi_BLE_SDK/GD32VW55x_RELEASE_V1.0.2/MSDK/wpa_supplicant/src/tls\asn1.c **** 
 171:C:/Users/stapi/OneDrive/Desktop/GD32VW553/V1_MQTT_OK/GD32VW55X_Wifi_BLE_SDK/GD32VW55x_RELEASE_V1.0.2/MSDK/wpa_supplicant/src/tls\asn1.c **** int asn1_get_next(const u8 *buf, size_t len, struct asn1_hdr *hdr)
 172:C:/Users/stapi/OneDrive/Desktop/GD32VW553/V1_MQTT_OK/GD32VW55X_Wifi_BLE_SDK/GD32VW55x_RELEASE_V1.0.2/MSDK/wpa_supplicant/src/tls\asn1.c **** {
 173:C:/Users/stapi/OneDrive/Desktop/GD32VW553/V1_MQTT_OK/GD32VW55X_Wifi_BLE_SDK/GD32VW55x_RELEASE_V1.0.2/MSDK/wpa_supplicant/src/tls\asn1.c **** 	const u8 *pos, *end;
 174:C:/Users/stapi/OneDrive/Desktop/GD32VW553/V1_MQTT_OK/GD32VW55X_Wifi_BLE_SDK/GD32VW55x_RELEASE_V1.0.2/MSDK/wpa_supplicant/src/tls\asn1.c **** 	u8 tmp;
 175:C:/Users/stapi/OneDrive/Desktop/GD32VW553/V1_MQTT_OK/GD32VW55X_Wifi_BLE_SDK/GD32VW55x_RELEASE_V1.0.2/MSDK/wpa_supplicant/src/tls\asn1.c **** 
 176:C:/Users/stapi/OneDrive/Desktop/GD32VW553/V1_MQTT_OK/GD32VW55X_Wifi_BLE_SDK/GD32VW55x_RELEASE_V1.0.2/MSDK/wpa_supplicant/src/tls\asn1.c **** 	os_memset(hdr, 0, sizeof(*hdr));
 177:C:/Users/stapi/OneDrive/Desktop/GD32VW553/V1_MQTT_OK/GD32VW55X_Wifi_BLE_SDK/GD32VW55x_RELEASE_V1.0.2/MSDK/wpa_supplicant/src/tls\asn1.c **** 	pos = buf;
 178:C:/Users/stapi/OneDrive/Desktop/GD32VW553/V1_MQTT_OK/GD32VW55X_Wifi_BLE_SDK/GD32VW55x_RELEASE_V1.0.2/MSDK/wpa_supplicant/src/tls\asn1.c **** 	end = buf + len;
 179:C:/Users/stapi/OneDrive/Desktop/GD32VW553/V1_MQTT_OK/GD32VW55X_Wifi_BLE_SDK/GD32VW55x_RELEASE_V1.0.2/MSDK/wpa_supplicant/src/tls\asn1.c **** 
 180:C:/Users/stapi/OneDrive/Desktop/GD32VW553/V1_MQTT_OK/GD32VW55X_Wifi_BLE_SDK/GD32VW55x_RELEASE_V1.0.2/MSDK/wpa_supplicant/src/tls\asn1.c **** 	if (pos >= end) {
 181:C:/Users/stapi/OneDrive/Desktop/GD32VW553/V1_MQTT_OK/GD32VW55X_Wifi_BLE_SDK/GD32VW55x_RELEASE_V1.0.2/MSDK/wpa_supplicant/src/tls\asn1.c **** 		wpa_printf(MSG_DEBUG, "ASN.1: No room for Identifier");
 182:C:/Users/stapi/OneDrive/Desktop/GD32VW553/V1_MQTT_OK/GD32VW55X_Wifi_BLE_SDK/GD32VW55x_RELEASE_V1.0.2/MSDK/wpa_supplicant/src/tls\asn1.c **** 		return -1;
 183:C:/Users/stapi/OneDrive/Desktop/GD32VW553/V1_MQTT_OK/GD32VW55X_Wifi_BLE_SDK/GD32VW55x_RELEASE_V1.0.2/MSDK/wpa_supplicant/src/tls\asn1.c **** 	}
 184:C:/Users/stapi/OneDrive/Desktop/GD32VW553/V1_MQTT_OK/GD32VW55X_Wifi_BLE_SDK/GD32VW55x_RELEASE_V1.0.2/MSDK/wpa_supplicant/src/tls\asn1.c **** 	hdr->identifier = *pos++;
 185:C:/Users/stapi/OneDrive/Desktop/GD32VW553/V1_MQTT_OK/GD32VW55X_Wifi_BLE_SDK/GD32VW55x_RELEASE_V1.0.2/MSDK/wpa_supplicant/src/tls\asn1.c **** 	hdr->class = hdr->identifier >> 6;
 186:C:/Users/stapi/OneDrive/Desktop/GD32VW553/V1_MQTT_OK/GD32VW55X_Wifi_BLE_SDK/GD32VW55x_RELEASE_V1.0.2/MSDK/wpa_supplicant/src/tls\asn1.c **** 	hdr->constructed = !!(hdr->identifier & (1 << 5));
 187:C:/Users/stapi/OneDrive/Desktop/GD32VW553/V1_MQTT_OK/GD32VW55X_Wifi_BLE_SDK/GD32VW55x_RELEASE_V1.0.2/MSDK/wpa_supplicant/src/tls\asn1.c **** 
 188:C:/Users/stapi/OneDrive/Desktop/GD32VW553/V1_MQTT_OK/GD32VW55X_Wifi_BLE_SDK/GD32VW55x_RELEASE_V1.0.2/MSDK/wpa_supplicant/src/tls\asn1.c **** 	if ((hdr->identifier & 0x1f) == 0x1f) {
 189:C:/Users/stapi/OneDrive/Desktop/GD32VW553/V1_MQTT_OK/GD32VW55X_Wifi_BLE_SDK/GD32VW55x_RELEASE_V1.0.2/MSDK/wpa_supplicant/src/tls\asn1.c **** 		size_t ext_len = 0;
 190:C:/Users/stapi/OneDrive/Desktop/GD32VW553/V1_MQTT_OK/GD32VW55X_Wifi_BLE_SDK/GD32VW55x_RELEASE_V1.0.2/MSDK/wpa_supplicant/src/tls\asn1.c **** 
 191:C:/Users/stapi/OneDrive/Desktop/GD32VW553/V1_MQTT_OK/GD32VW55X_Wifi_BLE_SDK/GD32VW55x_RELEASE_V1.0.2/MSDK/wpa_supplicant/src/tls\asn1.c **** 		hdr->tag = 0;
 192:C:/Users/stapi/OneDrive/Desktop/GD32VW553/V1_MQTT_OK/GD32VW55X_Wifi_BLE_SDK/GD32VW55x_RELEASE_V1.0.2/MSDK/wpa_supplicant/src/tls\asn1.c **** 		if (pos == end || (*pos & 0x7f) == 0) {
 193:C:/Users/stapi/OneDrive/Desktop/GD32VW553/V1_MQTT_OK/GD32VW55X_Wifi_BLE_SDK/GD32VW55x_RELEASE_V1.0.2/MSDK/wpa_supplicant/src/tls\asn1.c **** 			wpa_printf(MSG_DEBUG,
 194:C:/Users/stapi/OneDrive/Desktop/GD32VW553/V1_MQTT_OK/GD32VW55X_Wifi_BLE_SDK/GD32VW55x_RELEASE_V1.0.2/MSDK/wpa_supplicant/src/tls\asn1.c **** 				   "ASN.1: Invalid extended tag (first octet has to be included with at least one nonzero bit f
 195:C:/Users/stapi/OneDrive/Desktop/GD32VW553/V1_MQTT_OK/GD32VW55X_Wifi_BLE_SDK/GD32VW55x_RELEASE_V1.0.2/MSDK/wpa_supplicant/src/tls\asn1.c **** 			return -1;
 196:C:/Users/stapi/OneDrive/Desktop/GD32VW553/V1_MQTT_OK/GD32VW55X_Wifi_BLE_SDK/GD32VW55x_RELEASE_V1.0.2/MSDK/wpa_supplicant/src/tls\asn1.c **** 		}
 197:C:/Users/stapi/OneDrive/Desktop/GD32VW553/V1_MQTT_OK/GD32VW55X_Wifi_BLE_SDK/GD32VW55x_RELEASE_V1.0.2/MSDK/wpa_supplicant/src/tls\asn1.c **** 		do {
 198:C:/Users/stapi/OneDrive/Desktop/GD32VW553/V1_MQTT_OK/GD32VW55X_Wifi_BLE_SDK/GD32VW55x_RELEASE_V1.0.2/MSDK/wpa_supplicant/src/tls\asn1.c **** 			if (pos >= end) {
 199:C:/Users/stapi/OneDrive/Desktop/GD32VW553/V1_MQTT_OK/GD32VW55X_Wifi_BLE_SDK/GD32VW55x_RELEASE_V1.0.2/MSDK/wpa_supplicant/src/tls\asn1.c **** 				wpa_printf(MSG_DEBUG, "ASN.1: Identifier "
 200:C:/Users/stapi/OneDrive/Desktop/GD32VW553/V1_MQTT_OK/GD32VW55X_Wifi_BLE_SDK/GD32VW55x_RELEASE_V1.0.2/MSDK/wpa_supplicant/src/tls\asn1.c **** 					   "underflow");
 201:C:/Users/stapi/OneDrive/Desktop/GD32VW553/V1_MQTT_OK/GD32VW55X_Wifi_BLE_SDK/GD32VW55x_RELEASE_V1.0.2/MSDK/wpa_supplicant/src/tls\asn1.c **** 				return -1;
 202:C:/Users/stapi/OneDrive/Desktop/GD32VW553/V1_MQTT_OK/GD32VW55X_Wifi_BLE_SDK/GD32VW55x_RELEASE_V1.0.2/MSDK/wpa_supplicant/src/tls\asn1.c **** 			}
 203:C:/Users/stapi/OneDrive/Desktop/GD32VW553/V1_MQTT_OK/GD32VW55X_Wifi_BLE_SDK/GD32VW55x_RELEASE_V1.0.2/MSDK/wpa_supplicant/src/tls\asn1.c **** 			ext_len++;
 204:C:/Users/stapi/OneDrive/Desktop/GD32VW553/V1_MQTT_OK/GD32VW55X_Wifi_BLE_SDK/GD32VW55x_RELEASE_V1.0.2/MSDK/wpa_supplicant/src/tls\asn1.c **** 			tmp = *pos++;
 205:C:/Users/stapi/OneDrive/Desktop/GD32VW553/V1_MQTT_OK/GD32VW55X_Wifi_BLE_SDK/GD32VW55x_RELEASE_V1.0.2/MSDK/wpa_supplicant/src/tls\asn1.c **** 			wpa_printf(MSG_MSGDUMP, "ASN.1: Extended tag data: "
 206:C:/Users/stapi/OneDrive/Desktop/GD32VW553/V1_MQTT_OK/GD32VW55X_Wifi_BLE_SDK/GD32VW55x_RELEASE_V1.0.2/MSDK/wpa_supplicant/src/tls\asn1.c **** 				   "0x%02x", tmp);
 207:C:/Users/stapi/OneDrive/Desktop/GD32VW553/V1_MQTT_OK/GD32VW55X_Wifi_BLE_SDK/GD32VW55x_RELEASE_V1.0.2/MSDK/wpa_supplicant/src/tls\asn1.c **** 			hdr->tag = (hdr->tag << 7) | (tmp & 0x7f);
 208:C:/Users/stapi/OneDrive/Desktop/GD32VW553/V1_MQTT_OK/GD32VW55X_Wifi_BLE_SDK/GD32VW55x_RELEASE_V1.0.2/MSDK/wpa_supplicant/src/tls\asn1.c **** 		} while (tmp & 0x80);
 209:C:/Users/stapi/OneDrive/Desktop/GD32VW553/V1_MQTT_OK/GD32VW55X_Wifi_BLE_SDK/GD32VW55x_RELEASE_V1.0.2/MSDK/wpa_supplicant/src/tls\asn1.c **** 		wpa_printf(MSG_MSGDUMP, "ASN.1: Extended Tag: 0x%x (len=%zu)",
 210:C:/Users/stapi/OneDrive/Desktop/GD32VW553/V1_MQTT_OK/GD32VW55X_Wifi_BLE_SDK/GD32VW55x_RELEASE_V1.0.2/MSDK/wpa_supplicant/src/tls\asn1.c **** 			   hdr->tag, ext_len);
 211:C:/Users/stapi/OneDrive/Desktop/GD32VW553/V1_MQTT_OK/GD32VW55X_Wifi_BLE_SDK/GD32VW55x_RELEASE_V1.0.2/MSDK/wpa_supplicant/src/tls\asn1.c **** 		if ((hdr->class != ASN1_CLASS_PRIVATE && hdr->tag < 31) ||
 212:C:/Users/stapi/OneDrive/Desktop/GD32VW553/V1_MQTT_OK/GD32VW55X_Wifi_BLE_SDK/GD32VW55x_RELEASE_V1.0.2/MSDK/wpa_supplicant/src/tls\asn1.c **** 		    ext_len * 7 > sizeof(hdr->tag) * 8) {
 213:C:/Users/stapi/OneDrive/Desktop/GD32VW553/V1_MQTT_OK/GD32VW55X_Wifi_BLE_SDK/GD32VW55x_RELEASE_V1.0.2/MSDK/wpa_supplicant/src/tls\asn1.c **** 			wpa_printf(MSG_DEBUG,
 214:C:/Users/stapi/OneDrive/Desktop/GD32VW553/V1_MQTT_OK/GD32VW55X_Wifi_BLE_SDK/GD32VW55x_RELEASE_V1.0.2/MSDK/wpa_supplicant/src/tls\asn1.c **** 				   "ASN.1: Invalid or unsupported (too large) extended Tag: 0x%x (len=%zu)",
 215:C:/Users/stapi/OneDrive/Desktop/GD32VW553/V1_MQTT_OK/GD32VW55X_Wifi_BLE_SDK/GD32VW55x_RELEASE_V1.0.2/MSDK/wpa_supplicant/src/tls\asn1.c **** 				   hdr->tag, ext_len);
 216:C:/Users/stapi/OneDrive/Desktop/GD32VW553/V1_MQTT_OK/GD32VW55X_Wifi_BLE_SDK/GD32VW55x_RELEASE_V1.0.2/MSDK/wpa_supplicant/src/tls\asn1.c **** 			return -1;
 217:C:/Users/stapi/OneDrive/Desktop/GD32VW553/V1_MQTT_OK/GD32VW55X_Wifi_BLE_SDK/GD32VW55x_RELEASE_V1.0.2/MSDK/wpa_supplicant/src/tls\asn1.c **** 		}
 218:C:/Users/stapi/OneDrive/Desktop/GD32VW553/V1_MQTT_OK/GD32VW55X_Wifi_BLE_SDK/GD32VW55x_RELEASE_V1.0.2/MSDK/wpa_supplicant/src/tls\asn1.c **** 	} else
 219:C:/Users/stapi/OneDrive/Desktop/GD32VW553/V1_MQTT_OK/GD32VW55X_Wifi_BLE_SDK/GD32VW55x_RELEASE_V1.0.2/MSDK/wpa_supplicant/src/tls\asn1.c **** 		hdr->tag = hdr->identifier & 0x1f;
 220:C:/Users/stapi/OneDrive/Desktop/GD32VW553/V1_MQTT_OK/GD32VW55X_Wifi_BLE_SDK/GD32VW55x_RELEASE_V1.0.2/MSDK/wpa_supplicant/src/tls\asn1.c **** 
 221:C:/Users/stapi/OneDrive/Desktop/GD32VW553/V1_MQTT_OK/GD32VW55X_Wifi_BLE_SDK/GD32VW55x_RELEASE_V1.0.2/MSDK/wpa_supplicant/src/tls\asn1.c **** 	if (pos >= end) {
 222:C:/Users/stapi/OneDrive/Desktop/GD32VW553/V1_MQTT_OK/GD32VW55X_Wifi_BLE_SDK/GD32VW55x_RELEASE_V1.0.2/MSDK/wpa_supplicant/src/tls\asn1.c **** 		wpa_printf(MSG_DEBUG, "ASN.1: No room for Length");
 223:C:/Users/stapi/OneDrive/Desktop/GD32VW553/V1_MQTT_OK/GD32VW55X_Wifi_BLE_SDK/GD32VW55x_RELEASE_V1.0.2/MSDK/wpa_supplicant/src/tls\asn1.c **** 		return -1;
 224:C:/Users/stapi/OneDrive/Desktop/GD32VW553/V1_MQTT_OK/GD32VW55X_Wifi_BLE_SDK/GD32VW55x_RELEASE_V1.0.2/MSDK/wpa_supplicant/src/tls\asn1.c **** 	}
 225:C:/Users/stapi/OneDrive/Desktop/GD32VW553/V1_MQTT_OK/GD32VW55X_Wifi_BLE_SDK/GD32VW55x_RELEASE_V1.0.2/MSDK/wpa_supplicant/src/tls\asn1.c **** 	tmp = *pos++;
 226:C:/Users/stapi/OneDrive/Desktop/GD32VW553/V1_MQTT_OK/GD32VW55X_Wifi_BLE_SDK/GD32VW55x_RELEASE_V1.0.2/MSDK/wpa_supplicant/src/tls\asn1.c **** 	if (tmp & 0x80) {
 227:C:/Users/stapi/OneDrive/Desktop/GD32VW553/V1_MQTT_OK/GD32VW55X_Wifi_BLE_SDK/GD32VW55x_RELEASE_V1.0.2/MSDK/wpa_supplicant/src/tls\asn1.c **** 		if (tmp == 0xff) {
 228:C:/Users/stapi/OneDrive/Desktop/GD32VW553/V1_MQTT_OK/GD32VW55X_Wifi_BLE_SDK/GD32VW55x_RELEASE_V1.0.2/MSDK/wpa_supplicant/src/tls\asn1.c **** 			wpa_printf(MSG_DEBUG, "ASN.1: Reserved length "
 229:C:/Users/stapi/OneDrive/Desktop/GD32VW553/V1_MQTT_OK/GD32VW55X_Wifi_BLE_SDK/GD32VW55x_RELEASE_V1.0.2/MSDK/wpa_supplicant/src/tls\asn1.c **** 				   "value 0xff used");
 230:C:/Users/stapi/OneDrive/Desktop/GD32VW553/V1_MQTT_OK/GD32VW55X_Wifi_BLE_SDK/GD32VW55x_RELEASE_V1.0.2/MSDK/wpa_supplicant/src/tls\asn1.c **** 			return -1;
 231:C:/Users/stapi/OneDrive/Desktop/GD32VW553/V1_MQTT_OK/GD32VW55X_Wifi_BLE_SDK/GD32VW55x_RELEASE_V1.0.2/MSDK/wpa_supplicant/src/tls\asn1.c **** 		}
 232:C:/Users/stapi/OneDrive/Desktop/GD32VW553/V1_MQTT_OK/GD32VW55X_Wifi_BLE_SDK/GD32VW55x_RELEASE_V1.0.2/MSDK/wpa_supplicant/src/tls\asn1.c **** 		tmp &= 0x7f; /* number of subsequent octets */
 233:C:/Users/stapi/OneDrive/Desktop/GD32VW553/V1_MQTT_OK/GD32VW55X_Wifi_BLE_SDK/GD32VW55x_RELEASE_V1.0.2/MSDK/wpa_supplicant/src/tls\asn1.c **** 		hdr->length = 0;
 234:C:/Users/stapi/OneDrive/Desktop/GD32VW553/V1_MQTT_OK/GD32VW55X_Wifi_BLE_SDK/GD32VW55x_RELEASE_V1.0.2/MSDK/wpa_supplicant/src/tls\asn1.c **** 		if (tmp == 0 || pos == end || *pos == 0) {
 235:C:/Users/stapi/OneDrive/Desktop/GD32VW553/V1_MQTT_OK/GD32VW55X_Wifi_BLE_SDK/GD32VW55x_RELEASE_V1.0.2/MSDK/wpa_supplicant/src/tls\asn1.c **** 			wpa_printf(MSG_DEBUG,
 236:C:/Users/stapi/OneDrive/Desktop/GD32VW553/V1_MQTT_OK/GD32VW55X_Wifi_BLE_SDK/GD32VW55x_RELEASE_V1.0.2/MSDK/wpa_supplicant/src/tls\asn1.c **** 				   "ASN.1: Definite long form of the length does not start with a nonzero value");
 237:C:/Users/stapi/OneDrive/Desktop/GD32VW553/V1_MQTT_OK/GD32VW55X_Wifi_BLE_SDK/GD32VW55x_RELEASE_V1.0.2/MSDK/wpa_supplicant/src/tls\asn1.c **** 			return -1;
 238:C:/Users/stapi/OneDrive/Desktop/GD32VW553/V1_MQTT_OK/GD32VW55X_Wifi_BLE_SDK/GD32VW55x_RELEASE_V1.0.2/MSDK/wpa_supplicant/src/tls\asn1.c **** 		}
 239:C:/Users/stapi/OneDrive/Desktop/GD32VW553/V1_MQTT_OK/GD32VW55X_Wifi_BLE_SDK/GD32VW55x_RELEASE_V1.0.2/MSDK/wpa_supplicant/src/tls\asn1.c **** 		if (tmp > 4) {
 240:C:/Users/stapi/OneDrive/Desktop/GD32VW553/V1_MQTT_OK/GD32VW55X_Wifi_BLE_SDK/GD32VW55x_RELEASE_V1.0.2/MSDK/wpa_supplicant/src/tls\asn1.c **** 			wpa_printf(MSG_DEBUG, "ASN.1: Too long length field");
 241:C:/Users/stapi/OneDrive/Desktop/GD32VW553/V1_MQTT_OK/GD32VW55X_Wifi_BLE_SDK/GD32VW55x_RELEASE_V1.0.2/MSDK/wpa_supplicant/src/tls\asn1.c **** 			return -1;
 242:C:/Users/stapi/OneDrive/Desktop/GD32VW553/V1_MQTT_OK/GD32VW55X_Wifi_BLE_SDK/GD32VW55x_RELEASE_V1.0.2/MSDK/wpa_supplicant/src/tls\asn1.c **** 		}
 243:C:/Users/stapi/OneDrive/Desktop/GD32VW553/V1_MQTT_OK/GD32VW55X_Wifi_BLE_SDK/GD32VW55x_RELEASE_V1.0.2/MSDK/wpa_supplicant/src/tls\asn1.c **** 		while (tmp--) {
 244:C:/Users/stapi/OneDrive/Desktop/GD32VW553/V1_MQTT_OK/GD32VW55X_Wifi_BLE_SDK/GD32VW55x_RELEASE_V1.0.2/MSDK/wpa_supplicant/src/tls\asn1.c **** 			if (pos >= end) {
 245:C:/Users/stapi/OneDrive/Desktop/GD32VW553/V1_MQTT_OK/GD32VW55X_Wifi_BLE_SDK/GD32VW55x_RELEASE_V1.0.2/MSDK/wpa_supplicant/src/tls\asn1.c **** 				wpa_printf(MSG_DEBUG, "ASN.1: Length "
 246:C:/Users/stapi/OneDrive/Desktop/GD32VW553/V1_MQTT_OK/GD32VW55X_Wifi_BLE_SDK/GD32VW55x_RELEASE_V1.0.2/MSDK/wpa_supplicant/src/tls\asn1.c **** 					   "underflow");
 247:C:/Users/stapi/OneDrive/Desktop/GD32VW553/V1_MQTT_OK/GD32VW55X_Wifi_BLE_SDK/GD32VW55x_RELEASE_V1.0.2/MSDK/wpa_supplicant/src/tls\asn1.c **** 				return -1;
 248:C:/Users/stapi/OneDrive/Desktop/GD32VW553/V1_MQTT_OK/GD32VW55X_Wifi_BLE_SDK/GD32VW55x_RELEASE_V1.0.2/MSDK/wpa_supplicant/src/tls\asn1.c **** 			}
 249:C:/Users/stapi/OneDrive/Desktop/GD32VW553/V1_MQTT_OK/GD32VW55X_Wifi_BLE_SDK/GD32VW55x_RELEASE_V1.0.2/MSDK/wpa_supplicant/src/tls\asn1.c **** 			hdr->length = (hdr->length << 8) | *pos++;
 250:C:/Users/stapi/OneDrive/Desktop/GD32VW553/V1_MQTT_OK/GD32VW55X_Wifi_BLE_SDK/GD32VW55x_RELEASE_V1.0.2/MSDK/wpa_supplicant/src/tls\asn1.c **** 		}
 251:C:/Users/stapi/OneDrive/Desktop/GD32VW553/V1_MQTT_OK/GD32VW55X_Wifi_BLE_SDK/GD32VW55x_RELEASE_V1.0.2/MSDK/wpa_supplicant/src/tls\asn1.c **** 		if (hdr->length < 128) {
 252:C:/Users/stapi/OneDrive/Desktop/GD32VW553/V1_MQTT_OK/GD32VW55X_Wifi_BLE_SDK/GD32VW55x_RELEASE_V1.0.2/MSDK/wpa_supplicant/src/tls\asn1.c **** 			wpa_printf(MSG_DEBUG,
 253:C:/Users/stapi/OneDrive/Desktop/GD32VW553/V1_MQTT_OK/GD32VW55X_Wifi_BLE_SDK/GD32VW55x_RELEASE_V1.0.2/MSDK/wpa_supplicant/src/tls\asn1.c **** 				   "ASN.1: Definite long form of the length used with too short length");
 254:C:/Users/stapi/OneDrive/Desktop/GD32VW553/V1_MQTT_OK/GD32VW55X_Wifi_BLE_SDK/GD32VW55x_RELEASE_V1.0.2/MSDK/wpa_supplicant/src/tls\asn1.c **** 			return -1;
 255:C:/Users/stapi/OneDrive/Desktop/GD32VW553/V1_MQTT_OK/GD32VW55X_Wifi_BLE_SDK/GD32VW55x_RELEASE_V1.0.2/MSDK/wpa_supplicant/src/tls\asn1.c **** 		}
 256:C:/Users/stapi/OneDrive/Desktop/GD32VW553/V1_MQTT_OK/GD32VW55X_Wifi_BLE_SDK/GD32VW55x_RELEASE_V1.0.2/MSDK/wpa_supplicant/src/tls\asn1.c **** 	} else {
 257:C:/Users/stapi/OneDrive/Desktop/GD32VW553/V1_MQTT_OK/GD32VW55X_Wifi_BLE_SDK/GD32VW55x_RELEASE_V1.0.2/MSDK/wpa_supplicant/src/tls\asn1.c **** 		/* Short form - length 0..127 in one octet */
 258:C:/Users/stapi/OneDrive/Desktop/GD32VW553/V1_MQTT_OK/GD32VW55X_Wifi_BLE_SDK/GD32VW55x_RELEASE_V1.0.2/MSDK/wpa_supplicant/src/tls\asn1.c **** 		hdr->length = tmp;
 259:C:/Users/stapi/OneDrive/Desktop/GD32VW553/V1_MQTT_OK/GD32VW55X_Wifi_BLE_SDK/GD32VW55x_RELEASE_V1.0.2/MSDK/wpa_supplicant/src/tls\asn1.c **** 	}
 260:C:/Users/stapi/OneDrive/Desktop/GD32VW553/V1_MQTT_OK/GD32VW55X_Wifi_BLE_SDK/GD32VW55x_RELEASE_V1.0.2/MSDK/wpa_supplicant/src/tls\asn1.c **** 
 261:C:/Users/stapi/OneDrive/Desktop/GD32VW553/V1_MQTT_OK/GD32VW55X_Wifi_BLE_SDK/GD32VW55x_RELEASE_V1.0.2/MSDK/wpa_supplicant/src/tls\asn1.c **** 	if (end < pos || hdr->length > (unsigned int) (end - pos)) {
 262:C:/Users/stapi/OneDrive/Desktop/GD32VW553/V1_MQTT_OK/GD32VW55X_Wifi_BLE_SDK/GD32VW55x_RELEASE_V1.0.2/MSDK/wpa_supplicant/src/tls\asn1.c **** 		wpa_printf(MSG_DEBUG, "ASN.1: Contents underflow");
 263:C:/Users/stapi/OneDrive/Desktop/GD32VW553/V1_MQTT_OK/GD32VW55X_Wifi_BLE_SDK/GD32VW55x_RELEASE_V1.0.2/MSDK/wpa_supplicant/src/tls\asn1.c **** 		return -1;
 264:C:/Users/stapi/OneDrive/Desktop/GD32VW553/V1_MQTT_OK/GD32VW55X_Wifi_BLE_SDK/GD32VW55x_RELEASE_V1.0.2/MSDK/wpa_supplicant/src/tls\asn1.c **** 	}
 265:C:/Users/stapi/OneDrive/Desktop/GD32VW553/V1_MQTT_OK/GD32VW55X_Wifi_BLE_SDK/GD32VW55x_RELEASE_V1.0.2/MSDK/wpa_supplicant/src/tls\asn1.c **** 
 266:C:/Users/stapi/OneDrive/Desktop/GD32VW553/V1_MQTT_OK/GD32VW55X_Wifi_BLE_SDK/GD32VW55x_RELEASE_V1.0.2/MSDK/wpa_supplicant/src/tls\asn1.c **** 	hdr->payload = pos;
 267:C:/Users/stapi/OneDrive/Desktop/GD32VW553/V1_MQTT_OK/GD32VW55X_Wifi_BLE_SDK/GD32VW55x_RELEASE_V1.0.2/MSDK/wpa_supplicant/src/tls\asn1.c **** 
 268:C:/Users/stapi/OneDrive/Desktop/GD32VW553/V1_MQTT_OK/GD32VW55X_Wifi_BLE_SDK/GD32VW55x_RELEASE_V1.0.2/MSDK/wpa_supplicant/src/tls\asn1.c **** 	if (!asn1_valid_der(hdr)) {
 269:C:/Users/stapi/OneDrive/Desktop/GD32VW553/V1_MQTT_OK/GD32VW55X_Wifi_BLE_SDK/GD32VW55x_RELEASE_V1.0.2/MSDK/wpa_supplicant/src/tls\asn1.c **** 		asn1_print_hdr(hdr, "ASN.1: Invalid DER encoding: ");
 270:C:/Users/stapi/OneDrive/Desktop/GD32VW553/V1_MQTT_OK/GD32VW55X_Wifi_BLE_SDK/GD32VW55x_RELEASE_V1.0.2/MSDK/wpa_supplicant/src/tls\asn1.c **** 		return -1;
 271:C:/Users/stapi/OneDrive/Desktop/GD32VW553/V1_MQTT_OK/GD32VW55X_Wifi_BLE_SDK/GD32VW55x_RELEASE_V1.0.2/MSDK/wpa_supplicant/src/tls\asn1.c **** 	}
 272:C:/Users/stapi/OneDrive/Desktop/GD32VW553/V1_MQTT_OK/GD32VW55X_Wifi_BLE_SDK/GD32VW55x_RELEASE_V1.0.2/MSDK/wpa_supplicant/src/tls\asn1.c **** 	return 0;
 273:C:/Users/stapi/OneDrive/Desktop/GD32VW553/V1_MQTT_OK/GD32VW55X_Wifi_BLE_SDK/GD32VW55x_RELEASE_V1.0.2/MSDK/wpa_supplicant/src/tls\asn1.c **** }
 274:C:/Users/stapi/OneDrive/Desktop/GD32VW553/V1_MQTT_OK/GD32VW55X_Wifi_BLE_SDK/GD32VW55x_RELEASE_V1.0.2/MSDK/wpa_supplicant/src/tls\asn1.c **** 
 275:C:/Users/stapi/OneDrive/Desktop/GD32VW553/V1_MQTT_OK/GD32VW55X_Wifi_BLE_SDK/GD32VW55x_RELEASE_V1.0.2/MSDK/wpa_supplicant/src/tls\asn1.c **** 
 276:C:/Users/stapi/OneDrive/Desktop/GD32VW553/V1_MQTT_OK/GD32VW55X_Wifi_BLE_SDK/GD32VW55x_RELEASE_V1.0.2/MSDK/wpa_supplicant/src/tls\asn1.c **** void asn1_print_hdr(const struct asn1_hdr *hdr, const char *title)
 277:C:/Users/stapi/OneDrive/Desktop/GD32VW553/V1_MQTT_OK/GD32VW55X_Wifi_BLE_SDK/GD32VW55x_RELEASE_V1.0.2/MSDK/wpa_supplicant/src/tls\asn1.c **** {
 278:C:/Users/stapi/OneDrive/Desktop/GD32VW553/V1_MQTT_OK/GD32VW55X_Wifi_BLE_SDK/GD32VW55x_RELEASE_V1.0.2/MSDK/wpa_supplicant/src/tls\asn1.c **** 	wpa_printf(MSG_DEBUG, "%sclass %d constructed %d tag 0x%x",
 279:C:/Users/stapi/OneDrive/Desktop/GD32VW553/V1_MQTT_OK/GD32VW55X_Wifi_BLE_SDK/GD32VW55x_RELEASE_V1.0.2/MSDK/wpa_supplicant/src/tls\asn1.c **** 		   title, hdr->class, hdr->constructed, hdr->tag);
 280:C:/Users/stapi/OneDrive/Desktop/GD32VW553/V1_MQTT_OK/GD32VW55X_Wifi_BLE_SDK/GD32VW55x_RELEASE_V1.0.2/MSDK/wpa_supplicant/src/tls\asn1.c **** }
 281:C:/Users/stapi/OneDrive/Desktop/GD32VW553/V1_MQTT_OK/GD32VW55X_Wifi_BLE_SDK/GD32VW55x_RELEASE_V1.0.2/MSDK/wpa_supplicant/src/tls\asn1.c **** 
 282:C:/Users/stapi/OneDrive/Desktop/GD32VW553/V1_MQTT_OK/GD32VW55X_Wifi_BLE_SDK/GD32VW55x_RELEASE_V1.0.2/MSDK/wpa_supplicant/src/tls\asn1.c **** 
 283:C:/Users/stapi/OneDrive/Desktop/GD32VW553/V1_MQTT_OK/GD32VW55X_Wifi_BLE_SDK/GD32VW55x_RELEASE_V1.0.2/MSDK/wpa_supplicant/src/tls\asn1.c **** void asn1_unexpected(const struct asn1_hdr *hdr, const char *title)
 284:C:/Users/stapi/OneDrive/Desktop/GD32VW553/V1_MQTT_OK/GD32VW55X_Wifi_BLE_SDK/GD32VW55x_RELEASE_V1.0.2/MSDK/wpa_supplicant/src/tls\asn1.c **** {
 285:C:/Users/stapi/OneDrive/Desktop/GD32VW553/V1_MQTT_OK/GD32VW55X_Wifi_BLE_SDK/GD32VW55x_RELEASE_V1.0.2/MSDK/wpa_supplicant/src/tls\asn1.c **** 	wpa_printf(MSG_DEBUG, "%s - found class %d constructed %d tag 0x%x",
 286:C:/Users/stapi/OneDrive/Desktop/GD32VW553/V1_MQTT_OK/GD32VW55X_Wifi_BLE_SDK/GD32VW55x_RELEASE_V1.0.2/MSDK/wpa_supplicant/src/tls\asn1.c **** 		   title, hdr->class, hdr->constructed, hdr->tag);
 287:C:/Users/stapi/OneDrive/Desktop/GD32VW553/V1_MQTT_OK/GD32VW55X_Wifi_BLE_SDK/GD32VW55x_RELEASE_V1.0.2/MSDK/wpa_supplicant/src/tls\asn1.c **** }
 288:C:/Users/stapi/OneDrive/Desktop/GD32VW553/V1_MQTT_OK/GD32VW55X_Wifi_BLE_SDK/GD32VW55x_RELEASE_V1.0.2/MSDK/wpa_supplicant/src/tls\asn1.c **** 
 289:C:/Users/stapi/OneDrive/Desktop/GD32VW553/V1_MQTT_OK/GD32VW55X_Wifi_BLE_SDK/GD32VW55x_RELEASE_V1.0.2/MSDK/wpa_supplicant/src/tls\asn1.c **** 
 290:C:/Users/stapi/OneDrive/Desktop/GD32VW553/V1_MQTT_OK/GD32VW55X_Wifi_BLE_SDK/GD32VW55x_RELEASE_V1.0.2/MSDK/wpa_supplicant/src/tls\asn1.c **** int asn1_parse_oid(const u8 *buf, size_t len, struct asn1_oid *oid)
 291:C:/Users/stapi/OneDrive/Desktop/GD32VW553/V1_MQTT_OK/GD32VW55X_Wifi_BLE_SDK/GD32VW55x_RELEASE_V1.0.2/MSDK/wpa_supplicant/src/tls\asn1.c **** {
 292:C:/Users/stapi/OneDrive/Desktop/GD32VW553/V1_MQTT_OK/GD32VW55X_Wifi_BLE_SDK/GD32VW55x_RELEASE_V1.0.2/MSDK/wpa_supplicant/src/tls\asn1.c **** 	const u8 *pos, *end;
 293:C:/Users/stapi/OneDrive/Desktop/GD32VW553/V1_MQTT_OK/GD32VW55X_Wifi_BLE_SDK/GD32VW55x_RELEASE_V1.0.2/MSDK/wpa_supplicant/src/tls\asn1.c **** 	unsigned long val;
 294:C:/Users/stapi/OneDrive/Desktop/GD32VW553/V1_MQTT_OK/GD32VW55X_Wifi_BLE_SDK/GD32VW55x_RELEASE_V1.0.2/MSDK/wpa_supplicant/src/tls\asn1.c **** 	u8 tmp;
 295:C:/Users/stapi/OneDrive/Desktop/GD32VW553/V1_MQTT_OK/GD32VW55X_Wifi_BLE_SDK/GD32VW55x_RELEASE_V1.0.2/MSDK/wpa_supplicant/src/tls\asn1.c **** 
 296:C:/Users/stapi/OneDrive/Desktop/GD32VW553/V1_MQTT_OK/GD32VW55X_Wifi_BLE_SDK/GD32VW55x_RELEASE_V1.0.2/MSDK/wpa_supplicant/src/tls\asn1.c **** 	os_memset(oid, 0, sizeof(*oid));
 297:C:/Users/stapi/OneDrive/Desktop/GD32VW553/V1_MQTT_OK/GD32VW55X_Wifi_BLE_SDK/GD32VW55x_RELEASE_V1.0.2/MSDK/wpa_supplicant/src/tls\asn1.c **** 
 298:C:/Users/stapi/OneDrive/Desktop/GD32VW553/V1_MQTT_OK/GD32VW55X_Wifi_BLE_SDK/GD32VW55x_RELEASE_V1.0.2/MSDK/wpa_supplicant/src/tls\asn1.c **** 	pos = buf;
 299:C:/Users/stapi/OneDrive/Desktop/GD32VW553/V1_MQTT_OK/GD32VW55X_Wifi_BLE_SDK/GD32VW55x_RELEASE_V1.0.2/MSDK/wpa_supplicant/src/tls\asn1.c **** 	end = buf + len;
 300:C:/Users/stapi/OneDrive/Desktop/GD32VW553/V1_MQTT_OK/GD32VW55X_Wifi_BLE_SDK/GD32VW55x_RELEASE_V1.0.2/MSDK/wpa_supplicant/src/tls\asn1.c **** 
 301:C:/Users/stapi/OneDrive/Desktop/GD32VW553/V1_MQTT_OK/GD32VW55X_Wifi_BLE_SDK/GD32VW55x_RELEASE_V1.0.2/MSDK/wpa_supplicant/src/tls\asn1.c **** 	while (pos < end) {
 302:C:/Users/stapi/OneDrive/Desktop/GD32VW553/V1_MQTT_OK/GD32VW55X_Wifi_BLE_SDK/GD32VW55x_RELEASE_V1.0.2/MSDK/wpa_supplicant/src/tls\asn1.c **** 		val = 0;
 303:C:/Users/stapi/OneDrive/Desktop/GD32VW553/V1_MQTT_OK/GD32VW55X_Wifi_BLE_SDK/GD32VW55x_RELEASE_V1.0.2/MSDK/wpa_supplicant/src/tls\asn1.c **** 
 304:C:/Users/stapi/OneDrive/Desktop/GD32VW553/V1_MQTT_OK/GD32VW55X_Wifi_BLE_SDK/GD32VW55x_RELEASE_V1.0.2/MSDK/wpa_supplicant/src/tls\asn1.c **** 		do {
 305:C:/Users/stapi/OneDrive/Desktop/GD32VW553/V1_MQTT_OK/GD32VW55X_Wifi_BLE_SDK/GD32VW55x_RELEASE_V1.0.2/MSDK/wpa_supplicant/src/tls\asn1.c **** 			if (pos >= end)
 306:C:/Users/stapi/OneDrive/Desktop/GD32VW553/V1_MQTT_OK/GD32VW55X_Wifi_BLE_SDK/GD32VW55x_RELEASE_V1.0.2/MSDK/wpa_supplicant/src/tls\asn1.c **** 				return -1;
 307:C:/Users/stapi/OneDrive/Desktop/GD32VW553/V1_MQTT_OK/GD32VW55X_Wifi_BLE_SDK/GD32VW55x_RELEASE_V1.0.2/MSDK/wpa_supplicant/src/tls\asn1.c **** 			tmp = *pos++;
 308:C:/Users/stapi/OneDrive/Desktop/GD32VW553/V1_MQTT_OK/GD32VW55X_Wifi_BLE_SDK/GD32VW55x_RELEASE_V1.0.2/MSDK/wpa_supplicant/src/tls\asn1.c **** 			val = (val << 7) | (tmp & 0x7f);
 309:C:/Users/stapi/OneDrive/Desktop/GD32VW553/V1_MQTT_OK/GD32VW55X_Wifi_BLE_SDK/GD32VW55x_RELEASE_V1.0.2/MSDK/wpa_supplicant/src/tls\asn1.c **** 		} while (tmp & 0x80);
 310:C:/Users/stapi/OneDrive/Desktop/GD32VW553/V1_MQTT_OK/GD32VW55X_Wifi_BLE_SDK/GD32VW55x_RELEASE_V1.0.2/MSDK/wpa_supplicant/src/tls\asn1.c **** 
 311:C:/Users/stapi/OneDrive/Desktop/GD32VW553/V1_MQTT_OK/GD32VW55X_Wifi_BLE_SDK/GD32VW55x_RELEASE_V1.0.2/MSDK/wpa_supplicant/src/tls\asn1.c **** 		if (oid->len >= ASN1_MAX_OID_LEN) {
 312:C:/Users/stapi/OneDrive/Desktop/GD32VW553/V1_MQTT_OK/GD32VW55X_Wifi_BLE_SDK/GD32VW55x_RELEASE_V1.0.2/MSDK/wpa_supplicant/src/tls\asn1.c **** 			wpa_printf(MSG_DEBUG, "ASN.1: Too long OID value");
 313:C:/Users/stapi/OneDrive/Desktop/GD32VW553/V1_MQTT_OK/GD32VW55X_Wifi_BLE_SDK/GD32VW55x_RELEASE_V1.0.2/MSDK/wpa_supplicant/src/tls\asn1.c **** 			return -1;
 314:C:/Users/stapi/OneDrive/Desktop/GD32VW553/V1_MQTT_OK/GD32VW55X_Wifi_BLE_SDK/GD32VW55x_RELEASE_V1.0.2/MSDK/wpa_supplicant/src/tls\asn1.c **** 		}
 315:C:/Users/stapi/OneDrive/Desktop/GD32VW553/V1_MQTT_OK/GD32VW55X_Wifi_BLE_SDK/GD32VW55x_RELEASE_V1.0.2/MSDK/wpa_supplicant/src/tls\asn1.c **** 		if (oid->len == 0) {
 316:C:/Users/stapi/OneDrive/Desktop/GD32VW553/V1_MQTT_OK/GD32VW55X_Wifi_BLE_SDK/GD32VW55x_RELEASE_V1.0.2/MSDK/wpa_supplicant/src/tls\asn1.c **** 			/*
 317:C:/Users/stapi/OneDrive/Desktop/GD32VW553/V1_MQTT_OK/GD32VW55X_Wifi_BLE_SDK/GD32VW55x_RELEASE_V1.0.2/MSDK/wpa_supplicant/src/tls\asn1.c **** 			 * The first octet encodes the first two object
 318:C:/Users/stapi/OneDrive/Desktop/GD32VW553/V1_MQTT_OK/GD32VW55X_Wifi_BLE_SDK/GD32VW55x_RELEASE_V1.0.2/MSDK/wpa_supplicant/src/tls\asn1.c **** 			 * identifier components in (X*40) + Y formula.
 319:C:/Users/stapi/OneDrive/Desktop/GD32VW553/V1_MQTT_OK/GD32VW55X_Wifi_BLE_SDK/GD32VW55x_RELEASE_V1.0.2/MSDK/wpa_supplicant/src/tls\asn1.c **** 			 * X = 0..2.
 320:C:/Users/stapi/OneDrive/Desktop/GD32VW553/V1_MQTT_OK/GD32VW55X_Wifi_BLE_SDK/GD32VW55x_RELEASE_V1.0.2/MSDK/wpa_supplicant/src/tls\asn1.c **** 			 */
 321:C:/Users/stapi/OneDrive/Desktop/GD32VW553/V1_MQTT_OK/GD32VW55X_Wifi_BLE_SDK/GD32VW55x_RELEASE_V1.0.2/MSDK/wpa_supplicant/src/tls\asn1.c **** 			oid->oid[0] = val / 40;
 322:C:/Users/stapi/OneDrive/Desktop/GD32VW553/V1_MQTT_OK/GD32VW55X_Wifi_BLE_SDK/GD32VW55x_RELEASE_V1.0.2/MSDK/wpa_supplicant/src/tls\asn1.c **** 			if (oid->oid[0] > 2)
 323:C:/Users/stapi/OneDrive/Desktop/GD32VW553/V1_MQTT_OK/GD32VW55X_Wifi_BLE_SDK/GD32VW55x_RELEASE_V1.0.2/MSDK/wpa_supplicant/src/tls\asn1.c **** 				oid->oid[0] = 2;
 324:C:/Users/stapi/OneDrive/Desktop/GD32VW553/V1_MQTT_OK/GD32VW55X_Wifi_BLE_SDK/GD32VW55x_RELEASE_V1.0.2/MSDK/wpa_supplicant/src/tls\asn1.c **** 			oid->oid[1] = val - oid->oid[0] * 40;
 325:C:/Users/stapi/OneDrive/Desktop/GD32VW553/V1_MQTT_OK/GD32VW55X_Wifi_BLE_SDK/GD32VW55x_RELEASE_V1.0.2/MSDK/wpa_supplicant/src/tls\asn1.c **** 			oid->len = 2;
 326:C:/Users/stapi/OneDrive/Desktop/GD32VW553/V1_MQTT_OK/GD32VW55X_Wifi_BLE_SDK/GD32VW55x_RELEASE_V1.0.2/MSDK/wpa_supplicant/src/tls\asn1.c **** 		} else
 327:C:/Users/stapi/OneDrive/Desktop/GD32VW553/V1_MQTT_OK/GD32VW55X_Wifi_BLE_SDK/GD32VW55x_RELEASE_V1.0.2/MSDK/wpa_supplicant/src/tls\asn1.c **** 			oid->oid[oid->len++] = val;
 328:C:/Users/stapi/OneDrive/Desktop/GD32VW553/V1_MQTT_OK/GD32VW55X_Wifi_BLE_SDK/GD32VW55x_RELEASE_V1.0.2/MSDK/wpa_supplicant/src/tls\asn1.c **** 	}
 329:C:/Users/stapi/OneDrive/Desktop/GD32VW553/V1_MQTT_OK/GD32VW55X_Wifi_BLE_SDK/GD32VW55x_RELEASE_V1.0.2/MSDK/wpa_supplicant/src/tls\asn1.c **** 
 330:C:/Users/stapi/OneDrive/Desktop/GD32VW553/V1_MQTT_OK/GD32VW55X_Wifi_BLE_SDK/GD32VW55x_RELEASE_V1.0.2/MSDK/wpa_supplicant/src/tls\asn1.c **** 	return 0;
 331:C:/Users/stapi/OneDrive/Desktop/GD32VW553/V1_MQTT_OK/GD32VW55X_Wifi_BLE_SDK/GD32VW55x_RELEASE_V1.0.2/MSDK/wpa_supplicant/src/tls\asn1.c **** }
 332:C:/Users/stapi/OneDrive/Desktop/GD32VW553/V1_MQTT_OK/GD32VW55X_Wifi_BLE_SDK/GD32VW55x_RELEASE_V1.0.2/MSDK/wpa_supplicant/src/tls\asn1.c **** 
 333:C:/Users/stapi/OneDrive/Desktop/GD32VW553/V1_MQTT_OK/GD32VW55X_Wifi_BLE_SDK/GD32VW55x_RELEASE_V1.0.2/MSDK/wpa_supplicant/src/tls\asn1.c **** 
 334:C:/Users/stapi/OneDrive/Desktop/GD32VW553/V1_MQTT_OK/GD32VW55X_Wifi_BLE_SDK/GD32VW55x_RELEASE_V1.0.2/MSDK/wpa_supplicant/src/tls\asn1.c **** int asn1_get_oid(const u8 *buf, size_t len, struct asn1_oid *oid,
 335:C:/Users/stapi/OneDrive/Desktop/GD32VW553/V1_MQTT_OK/GD32VW55X_Wifi_BLE_SDK/GD32VW55x_RELEASE_V1.0.2/MSDK/wpa_supplicant/src/tls\asn1.c **** 		 const u8 **next)
 336:C:/Users/stapi/OneDrive/Desktop/GD32VW553/V1_MQTT_OK/GD32VW55X_Wifi_BLE_SDK/GD32VW55x_RELEASE_V1.0.2/MSDK/wpa_supplicant/src/tls\asn1.c **** {
 337:C:/Users/stapi/OneDrive/Desktop/GD32VW553/V1_MQTT_OK/GD32VW55X_Wifi_BLE_SDK/GD32VW55x_RELEASE_V1.0.2/MSDK/wpa_supplicant/src/tls\asn1.c **** 	struct asn1_hdr hdr;
 338:C:/Users/stapi/OneDrive/Desktop/GD32VW553/V1_MQTT_OK/GD32VW55X_Wifi_BLE_SDK/GD32VW55x_RELEASE_V1.0.2/MSDK/wpa_supplicant/src/tls\asn1.c **** 
 339:C:/Users/stapi/OneDrive/Desktop/GD32VW553/V1_MQTT_OK/GD32VW55X_Wifi_BLE_SDK/GD32VW55x_RELEASE_V1.0.2/MSDK/wpa_supplicant/src/tls\asn1.c **** 	if (asn1_get_next(buf, len, &hdr) < 0 || hdr.length == 0 ||
 340:C:/Users/stapi/OneDrive/Desktop/GD32VW553/V1_MQTT_OK/GD32VW55X_Wifi_BLE_SDK/GD32VW55x_RELEASE_V1.0.2/MSDK/wpa_supplicant/src/tls\asn1.c **** 	    !asn1_is_oid(&hdr)) {
 341:C:/Users/stapi/OneDrive/Desktop/GD32VW553/V1_MQTT_OK/GD32VW55X_Wifi_BLE_SDK/GD32VW55x_RELEASE_V1.0.2/MSDK/wpa_supplicant/src/tls\asn1.c **** 		asn1_unexpected(&hdr, "ASN.1: Expected OID");
 342:C:/Users/stapi/OneDrive/Desktop/GD32VW553/V1_MQTT_OK/GD32VW55X_Wifi_BLE_SDK/GD32VW55x_RELEASE_V1.0.2/MSDK/wpa_supplicant/src/tls\asn1.c **** 		return -1;
 343:C:/Users/stapi/OneDrive/Desktop/GD32VW553/V1_MQTT_OK/GD32VW55X_Wifi_BLE_SDK/GD32VW55x_RELEASE_V1.0.2/MSDK/wpa_supplicant/src/tls\asn1.c **** 	}
 344:C:/Users/stapi/OneDrive/Desktop/GD32VW553/V1_MQTT_OK/GD32VW55X_Wifi_BLE_SDK/GD32VW55x_RELEASE_V1.0.2/MSDK/wpa_supplicant/src/tls\asn1.c **** 
 345:C:/Users/stapi/OneDrive/Desktop/GD32VW553/V1_MQTT_OK/GD32VW55X_Wifi_BLE_SDK/GD32VW55x_RELEASE_V1.0.2/MSDK/wpa_supplicant/src/tls\asn1.c **** 	*next = hdr.payload + hdr.length;
 346:C:/Users/stapi/OneDrive/Desktop/GD32VW553/V1_MQTT_OK/GD32VW55X_Wifi_BLE_SDK/GD32VW55x_RELEASE_V1.0.2/MSDK/wpa_supplicant/src/tls\asn1.c **** 
 347:C:/Users/stapi/OneDrive/Desktop/GD32VW553/V1_MQTT_OK/GD32VW55X_Wifi_BLE_SDK/GD32VW55x_RELEASE_V1.0.2/MSDK/wpa_supplicant/src/tls\asn1.c **** 	return asn1_parse_oid(hdr.payload, hdr.length, oid);
 348:C:/Users/stapi/OneDrive/Desktop/GD32VW553/V1_MQTT_OK/GD32VW55X_Wifi_BLE_SDK/GD32VW55x_RELEASE_V1.0.2/MSDK/wpa_supplicant/src/tls\asn1.c **** }
 349:C:/Users/stapi/OneDrive/Desktop/GD32VW553/V1_MQTT_OK/GD32VW55X_Wifi_BLE_SDK/GD32VW55x_RELEASE_V1.0.2/MSDK/wpa_supplicant/src/tls\asn1.c **** 
 350:C:/Users/stapi/OneDrive/Desktop/GD32VW553/V1_MQTT_OK/GD32VW55X_Wifi_BLE_SDK/GD32VW55x_RELEASE_V1.0.2/MSDK/wpa_supplicant/src/tls\asn1.c **** 
 351:C:/Users/stapi/OneDrive/Desktop/GD32VW553/V1_MQTT_OK/GD32VW55X_Wifi_BLE_SDK/GD32VW55x_RELEASE_V1.0.2/MSDK/wpa_supplicant/src/tls\asn1.c **** void asn1_oid_to_str(const struct asn1_oid *oid, char *buf, size_t len)
 352:C:/Users/stapi/OneDrive/Desktop/GD32VW553/V1_MQTT_OK/GD32VW55X_Wifi_BLE_SDK/GD32VW55x_RELEASE_V1.0.2/MSDK/wpa_supplicant/src/tls\asn1.c **** {
 353:C:/Users/stapi/OneDrive/Desktop/GD32VW553/V1_MQTT_OK/GD32VW55X_Wifi_BLE_SDK/GD32VW55x_RELEASE_V1.0.2/MSDK/wpa_supplicant/src/tls\asn1.c **** 	char *pos = buf;
 354:C:/Users/stapi/OneDrive/Desktop/GD32VW553/V1_MQTT_OK/GD32VW55X_Wifi_BLE_SDK/GD32VW55x_RELEASE_V1.0.2/MSDK/wpa_supplicant/src/tls\asn1.c **** 	size_t i;
 355:C:/Users/stapi/OneDrive/Desktop/GD32VW553/V1_MQTT_OK/GD32VW55X_Wifi_BLE_SDK/GD32VW55x_RELEASE_V1.0.2/MSDK/wpa_supplicant/src/tls\asn1.c **** 	int ret;
 356:C:/Users/stapi/OneDrive/Desktop/GD32VW553/V1_MQTT_OK/GD32VW55X_Wifi_BLE_SDK/GD32VW55x_RELEASE_V1.0.2/MSDK/wpa_supplicant/src/tls\asn1.c **** 
 357:C:/Users/stapi/OneDrive/Desktop/GD32VW553/V1_MQTT_OK/GD32VW55X_Wifi_BLE_SDK/GD32VW55x_RELEASE_V1.0.2/MSDK/wpa_supplicant/src/tls\asn1.c **** 	if (len == 0)
 358:C:/Users/stapi/OneDrive/Desktop/GD32VW553/V1_MQTT_OK/GD32VW55X_Wifi_BLE_SDK/GD32VW55x_RELEASE_V1.0.2/MSDK/wpa_supplicant/src/tls\asn1.c **** 		return;
 359:C:/Users/stapi/OneDrive/Desktop/GD32VW553/V1_MQTT_OK/GD32VW55X_Wifi_BLE_SDK/GD32VW55x_RELEASE_V1.0.2/MSDK/wpa_supplicant/src/tls\asn1.c **** 
 360:C:/Users/stapi/OneDrive/Desktop/GD32VW553/V1_MQTT_OK/GD32VW55X_Wifi_BLE_SDK/GD32VW55x_RELEASE_V1.0.2/MSDK/wpa_supplicant/src/tls\asn1.c **** 	buf[0] = '\0';
 361:C:/Users/stapi/OneDrive/Desktop/GD32VW553/V1_MQTT_OK/GD32VW55X_Wifi_BLE_SDK/GD32VW55x_RELEASE_V1.0.2/MSDK/wpa_supplicant/src/tls\asn1.c **** 
 362:C:/Users/stapi/OneDrive/Desktop/GD32VW553/V1_MQTT_OK/GD32VW55X_Wifi_BLE_SDK/GD32VW55x_RELEASE_V1.0.2/MSDK/wpa_supplicant/src/tls\asn1.c **** 	for (i = 0; i < oid->len; i++) {
 363:C:/Users/stapi/OneDrive/Desktop/GD32VW553/V1_MQTT_OK/GD32VW55X_Wifi_BLE_SDK/GD32VW55x_RELEASE_V1.0.2/MSDK/wpa_supplicant/src/tls\asn1.c **** 		ret = os_snprintf(pos, buf + len - pos,
 364:C:/Users/stapi/OneDrive/Desktop/GD32VW553/V1_MQTT_OK/GD32VW55X_Wifi_BLE_SDK/GD32VW55x_RELEASE_V1.0.2/MSDK/wpa_supplicant/src/tls\asn1.c **** 				  "%s%lu",
 365:C:/Users/stapi/OneDrive/Desktop/GD32VW553/V1_MQTT_OK/GD32VW55X_Wifi_BLE_SDK/GD32VW55x_RELEASE_V1.0.2/MSDK/wpa_supplicant/src/tls\asn1.c **** 				  i == 0 ? "" : ".", oid->oid[i]);
 366:C:/Users/stapi/OneDrive/Desktop/GD32VW553/V1_MQTT_OK/GD32VW55X_Wifi_BLE_SDK/GD32VW55x_RELEASE_V1.0.2/MSDK/wpa_supplicant/src/tls\asn1.c **** 		if (os_snprintf_error(buf + len - pos, ret))
 367:C:/Users/stapi/OneDrive/Desktop/GD32VW553/V1_MQTT_OK/GD32VW55X_Wifi_BLE_SDK/GD32VW55x_RELEASE_V1.0.2/MSDK/wpa_supplicant/src/tls\asn1.c **** 			break;
 368:C:/Users/stapi/OneDrive/Desktop/GD32VW553/V1_MQTT_OK/GD32VW55X_Wifi_BLE_SDK/GD32VW55x_RELEASE_V1.0.2/MSDK/wpa_supplicant/src/tls\asn1.c **** 		pos += ret;
 369:C:/Users/stapi/OneDrive/Desktop/GD32VW553/V1_MQTT_OK/GD32VW55X_Wifi_BLE_SDK/GD32VW55x_RELEASE_V1.0.2/MSDK/wpa_supplicant/src/tls\asn1.c **** 	}
 370:C:/Users/stapi/OneDrive/Desktop/GD32VW553/V1_MQTT_OK/GD32VW55X_Wifi_BLE_SDK/GD32VW55x_RELEASE_V1.0.2/MSDK/wpa_supplicant/src/tls\asn1.c **** 	buf[len - 1] = '\0';
 371:C:/Users/stapi/OneDrive/Desktop/GD32VW553/V1_MQTT_OK/GD32VW55X_Wifi_BLE_SDK/GD32VW55x_RELEASE_V1.0.2/MSDK/wpa_supplicant/src/tls\asn1.c **** }
 372:C:/Users/stapi/OneDrive/Desktop/GD32VW553/V1_MQTT_OK/GD32VW55X_Wifi_BLE_SDK/GD32VW55x_RELEASE_V1.0.2/MSDK/wpa_supplicant/src/tls\asn1.c **** 
 373:C:/Users/stapi/OneDrive/Desktop/GD32VW553/V1_MQTT_OK/GD32VW55X_Wifi_BLE_SDK/GD32VW55x_RELEASE_V1.0.2/MSDK/wpa_supplicant/src/tls\asn1.c **** 
 374:C:/Users/stapi/OneDrive/Desktop/GD32VW553/V1_MQTT_OK/GD32VW55X_Wifi_BLE_SDK/GD32VW55x_RELEASE_V1.0.2/MSDK/wpa_supplicant/src/tls\asn1.c **** static u8 rotate_bits(u8 octet)
 375:C:/Users/stapi/OneDrive/Desktop/GD32VW553/V1_MQTT_OK/GD32VW55X_Wifi_BLE_SDK/GD32VW55x_RELEASE_V1.0.2/MSDK/wpa_supplicant/src/tls\asn1.c **** {
  15              		.loc 1 375 1
  16              		.cfi_startproc
  17              	.LVL0:
 376:C:/Users/stapi/OneDrive/Desktop/GD32VW553/V1_MQTT_OK/GD32VW55X_Wifi_BLE_SDK/GD32VW55x_RELEASE_V1.0.2/MSDK/wpa_supplicant/src/tls\asn1.c **** 	int i;
  18              		.loc 1 376 2
 377:C:/Users/stapi/OneDrive/Desktop/GD32VW553/V1_MQTT_OK/GD32VW55X_Wifi_BLE_SDK/GD32VW55x_RELEASE_V1.0.2/MSDK/wpa_supplicant/src/tls\asn1.c **** 	u8 res;
  19              		.loc 1 377 2
 378:C:/Users/stapi/OneDrive/Desktop/GD32VW553/V1_MQTT_OK/GD32VW55X_Wifi_BLE_SDK/GD32VW55x_RELEASE_V1.0.2/MSDK/wpa_supplicant/src/tls\asn1.c **** 
 379:C:/Users/stapi/OneDrive/Desktop/GD32VW553/V1_MQTT_OK/GD32VW55X_Wifi_BLE_SDK/GD32VW55x_RELEASE_V1.0.2/MSDK/wpa_supplicant/src/tls\asn1.c **** 	res = 0;
  20              		.loc 1 379 2
 380:C:/Users/stapi/OneDrive/Desktop/GD32VW553/V1_MQTT_OK/GD32VW55X_Wifi_BLE_SDK/GD32VW55x_RELEASE_V1.0.2/MSDK/wpa_supplicant/src/tls\asn1.c **** 	for (i = 0; i < 8; i++) {
  21              		.loc 1 380 2
 375:C:/Users/stapi/OneDrive/Desktop/GD32VW553/V1_MQTT_OK/GD32VW55X_Wifi_BLE_SDK/GD32VW55x_RELEASE_V1.0.2/MSDK/wpa_supplicant/src/tls\asn1.c **** 	int i;
  22              		.loc 1 375 1 is_stmt 0
  23 0000 AA87     		mv	a5,a0
  24              	.LVL1:
  25              		.loc 1 380 14 is_stmt 1
 375:C:/Users/stapi/OneDrive/Desktop/GD32VW553/V1_MQTT_OK/GD32VW55X_Wifi_BLE_SDK/GD32VW55x_RELEASE_V1.0.2/MSDK/wpa_supplicant/src/tls\asn1.c **** 	int i;
  26              		.loc 1 375 1 is_stmt 0
  27 0002 2147     		li	a4,8
 379:C:/Users/stapi/OneDrive/Desktop/GD32VW553/V1_MQTT_OK/GD32VW55X_Wifi_BLE_SDK/GD32VW55x_RELEASE_V1.0.2/MSDK/wpa_supplicant/src/tls\asn1.c **** 	for (i = 0; i < 8; i++) {
  28              		.loc 1 379 6
  29 0004 0145     		li	a0,0
  30              	.LVL2:
  31              	.L3:
 381:C:/Users/stapi/OneDrive/Desktop/GD32VW553/V1_MQTT_OK/GD32VW55X_Wifi_BLE_SDK/GD32VW55x_RELEASE_V1.0.2/MSDK/wpa_supplicant/src/tls\asn1.c **** 		res <<= 1;
  32              		.loc 1 381 3 is_stmt 1
  33              		.loc 1 381 7 is_stmt 0
  34 0006 0605     		slli	a0,a0,1
  35              	.LVL3:
 382:C:/Users/stapi/OneDrive/Desktop/GD32VW553/V1_MQTT_OK/GD32VW55X_Wifi_BLE_SDK/GD32VW55x_RELEASE_V1.0.2/MSDK/wpa_supplicant/src/tls\asn1.c **** 		if (octet & 1)
  36              		.loc 1 382 6
  37 0008 93F61700 		andi	a3,a5,1
 381:C:/Users/stapi/OneDrive/Desktop/GD32VW553/V1_MQTT_OK/GD32VW55X_Wifi_BLE_SDK/GD32VW55x_RELEASE_V1.0.2/MSDK/wpa_supplicant/src/tls\asn1.c **** 		res <<= 1;
  38              		.loc 1 381 7
  39 000c 1375F50F 		andi	a0,a0,0xff
  40              	.LVL4:
  41              		.loc 1 382 3 is_stmt 1
  42              		.loc 1 382 6 is_stmt 0
  43 0010 99C2     		beq	a3,zero,.L2
 383:C:/Users/stapi/OneDrive/Desktop/GD32VW553/V1_MQTT_OK/GD32VW55X_Wifi_BLE_SDK/GD32VW55x_RELEASE_V1.0.2/MSDK/wpa_supplicant/src/tls\asn1.c **** 			res |= 1;
  44              		.loc 1 383 4 is_stmt 1
  45              		.loc 1 383 8 is_stmt 0
  46 0012 13651500 		ori	a0,a0,1
  47              	.LVL5:
  48              	.L2:
 384:C:/Users/stapi/OneDrive/Desktop/GD32VW553/V1_MQTT_OK/GD32VW55X_Wifi_BLE_SDK/GD32VW55x_RELEASE_V1.0.2/MSDK/wpa_supplicant/src/tls\asn1.c **** 		octet >>= 1;
  49              		.loc 1 384 3 is_stmt 1 discriminator 2
 380:C:/Users/stapi/OneDrive/Desktop/GD32VW553/V1_MQTT_OK/GD32VW55X_Wifi_BLE_SDK/GD32VW55x_RELEASE_V1.0.2/MSDK/wpa_supplicant/src/tls\asn1.c **** 		res <<= 1;
  50              		.loc 1 380 2 is_stmt 0 discriminator 2
  51 0016 7D17     		addi	a4,a4,-1
  52              	.LVL6:
  53              		.loc 1 384 9 discriminator 2
  54 0018 8583     		srli	a5,a5,1
  55              	.LVL7:
 380:C:/Users/stapi/OneDrive/Desktop/GD32VW553/V1_MQTT_OK/GD32VW55X_Wifi_BLE_SDK/GD32VW55x_RELEASE_V1.0.2/MSDK/wpa_supplicant/src/tls\asn1.c **** 		res <<= 1;
  56              		.loc 1 380 21 is_stmt 1 discriminator 2
 380:C:/Users/stapi/OneDrive/Desktop/GD32VW553/V1_MQTT_OK/GD32VW55X_Wifi_BLE_SDK/GD32VW55x_RELEASE_V1.0.2/MSDK/wpa_supplicant/src/tls\asn1.c **** 		res <<= 1;
  57              		.loc 1 380 14 discriminator 2
 380:C:/Users/stapi/OneDrive/Desktop/GD32VW553/V1_MQTT_OK/GD32VW55X_Wifi_BLE_SDK/GD32VW55x_RELEASE_V1.0.2/MSDK/wpa_supplicant/src/tls\asn1.c **** 		res <<= 1;
  58              		.loc 1 380 2 is_stmt 0 discriminator 2
  59 001a 75F7     		bne	a4,zero,.L3
 385:C:/Users/stapi/OneDrive/Desktop/GD32VW553/V1_MQTT_OK/GD32VW55X_Wifi_BLE_SDK/GD32VW55x_RELEASE_V1.0.2/MSDK/wpa_supplicant/src/tls\asn1.c **** 	}
 386:C:/Users/stapi/OneDrive/Desktop/GD32VW553/V1_MQTT_OK/GD32VW55X_Wifi_BLE_SDK/GD32VW55x_RELEASE_V1.0.2/MSDK/wpa_supplicant/src/tls\asn1.c **** 
 387:C:/Users/stapi/OneDrive/Desktop/GD32VW553/V1_MQTT_OK/GD32VW55X_Wifi_BLE_SDK/GD32VW55x_RELEASE_V1.0.2/MSDK/wpa_supplicant/src/tls\asn1.c **** 	return res;
  60              		.loc 1 387 2 is_stmt 1
 388:C:/Users/stapi/OneDrive/Desktop/GD32VW553/V1_MQTT_OK/GD32VW55X_Wifi_BLE_SDK/GD32VW55x_RELEASE_V1.0.2/MSDK/wpa_supplicant/src/tls\asn1.c **** }
  61              		.loc 1 388 1 is_stmt 0
  62 001c 8280     		ret
  63              		.cfi_endproc
  64              	.LFE94:
  66              		.section	.text.wpabuf_put_u8,"ax",@progbits
  67              		.align	1
  69              	wpabuf_put_u8:
  70              	.LFB53:
  71              		.file 2 "..\\..\\..\\..\\wpa_supplicant\\src\\utils/wpabuf.h"
   1:..\..\..\..\wpa_supplicant\src\utils/wpabuf.h **** /*
   2:..\..\..\..\wpa_supplicant\src\utils/wpabuf.h ****  * Dynamic data buffer
   3:..\..\..\..\wpa_supplicant\src\utils/wpabuf.h ****  * Copyright (c) 2007-2012, Jouni Malinen <j@w1.fi>
   4:..\..\..\..\wpa_supplicant\src\utils/wpabuf.h ****  *
   5:..\..\..\..\wpa_supplicant\src\utils/wpabuf.h ****  * This software may be distributed under the terms of the BSD license.
   6:..\..\..\..\wpa_supplicant\src\utils/wpabuf.h ****  * See README for more details.
   7:..\..\..\..\wpa_supplicant\src\utils/wpabuf.h ****  */
   8:..\..\..\..\wpa_supplicant\src\utils/wpabuf.h **** 
   9:..\..\..\..\wpa_supplicant\src\utils/wpabuf.h **** #ifndef WPABUF_H
  10:..\..\..\..\wpa_supplicant\src\utils/wpabuf.h **** #define WPABUF_H
  11:..\..\..\..\wpa_supplicant\src\utils/wpabuf.h **** 
  12:..\..\..\..\wpa_supplicant\src\utils/wpabuf.h **** /* wpabuf::buf is a pointer to external data */
  13:..\..\..\..\wpa_supplicant\src\utils/wpabuf.h **** #define WPABUF_FLAG_EXT_DATA BIT(0)
  14:..\..\..\..\wpa_supplicant\src\utils/wpabuf.h **** 
  15:..\..\..\..\wpa_supplicant\src\utils/wpabuf.h **** /*
  16:..\..\..\..\wpa_supplicant\src\utils/wpabuf.h ****  * Internal data structure for wpabuf. Please do not touch this directly from
  17:..\..\..\..\wpa_supplicant\src\utils/wpabuf.h ****  * elsewhere. This is only defined in header file to allow inline functions
  18:..\..\..\..\wpa_supplicant\src\utils/wpabuf.h ****  * from this file to access data.
  19:..\..\..\..\wpa_supplicant\src\utils/wpabuf.h ****  */
  20:..\..\..\..\wpa_supplicant\src\utils/wpabuf.h **** struct wpabuf {
  21:..\..\..\..\wpa_supplicant\src\utils/wpabuf.h **** 	size_t size; /* total size of the allocated buffer */
  22:..\..\..\..\wpa_supplicant\src\utils/wpabuf.h **** 	size_t used; /* length of data in the buffer */
  23:..\..\..\..\wpa_supplicant\src\utils/wpabuf.h **** 	u8 *buf; /* pointer to the head of the buffer */
  24:..\..\..\..\wpa_supplicant\src\utils/wpabuf.h **** 	unsigned int flags;
  25:..\..\..\..\wpa_supplicant\src\utils/wpabuf.h **** 	/* optionally followed by the allocated buffer */
  26:..\..\..\..\wpa_supplicant\src\utils/wpabuf.h **** };
  27:..\..\..\..\wpa_supplicant\src\utils/wpabuf.h **** 
  28:..\..\..\..\wpa_supplicant\src\utils/wpabuf.h **** 
  29:..\..\..\..\wpa_supplicant\src\utils/wpabuf.h **** int wpabuf_resize(struct wpabuf **buf, size_t add_len);
  30:..\..\..\..\wpa_supplicant\src\utils/wpabuf.h **** struct wpabuf * wpabuf_alloc(size_t len);
  31:..\..\..\..\wpa_supplicant\src\utils/wpabuf.h **** struct wpabuf * wpabuf_alloc_ext_data(u8 *data, size_t len);
  32:..\..\..\..\wpa_supplicant\src\utils/wpabuf.h **** struct wpabuf * wpabuf_alloc_copy(const void *data, size_t len);
  33:..\..\..\..\wpa_supplicant\src\utils/wpabuf.h **** struct wpabuf * wpabuf_dup(const struct wpabuf *src);
  34:..\..\..\..\wpa_supplicant\src\utils/wpabuf.h **** void wpabuf_free(struct wpabuf *buf);
  35:..\..\..\..\wpa_supplicant\src\utils/wpabuf.h **** void wpabuf_clear_free(struct wpabuf *buf);
  36:..\..\..\..\wpa_supplicant\src\utils/wpabuf.h **** void * wpabuf_put(struct wpabuf *buf, size_t len);
  37:..\..\..\..\wpa_supplicant\src\utils/wpabuf.h **** struct wpabuf * wpabuf_concat(struct wpabuf *a, struct wpabuf *b);
  38:..\..\..\..\wpa_supplicant\src\utils/wpabuf.h **** struct wpabuf * wpabuf_zeropad(struct wpabuf *buf, size_t len);
  39:..\..\..\..\wpa_supplicant\src\utils/wpabuf.h **** void wpabuf_printf(struct wpabuf *buf, char *fmt, ...) PRINTF_FORMAT(2, 3);
  40:..\..\..\..\wpa_supplicant\src\utils/wpabuf.h **** struct wpabuf * wpabuf_parse_bin(const char *buf);
  41:..\..\..\..\wpa_supplicant\src\utils/wpabuf.h **** 
  42:..\..\..\..\wpa_supplicant\src\utils/wpabuf.h **** 
  43:..\..\..\..\wpa_supplicant\src\utils/wpabuf.h **** /**
  44:..\..\..\..\wpa_supplicant\src\utils/wpabuf.h ****  * wpabuf_size - Get the currently allocated size of a wpabuf buffer
  45:..\..\..\..\wpa_supplicant\src\utils/wpabuf.h ****  * @buf: wpabuf buffer
  46:..\..\..\..\wpa_supplicant\src\utils/wpabuf.h ****  * Returns: Currently allocated size of the buffer
  47:..\..\..\..\wpa_supplicant\src\utils/wpabuf.h ****  */
  48:..\..\..\..\wpa_supplicant\src\utils/wpabuf.h **** static inline size_t wpabuf_size(const struct wpabuf *buf)
  49:..\..\..\..\wpa_supplicant\src\utils/wpabuf.h **** {
  50:..\..\..\..\wpa_supplicant\src\utils/wpabuf.h **** 	return buf->size;
  51:..\..\..\..\wpa_supplicant\src\utils/wpabuf.h **** }
  52:..\..\..\..\wpa_supplicant\src\utils/wpabuf.h **** 
  53:..\..\..\..\wpa_supplicant\src\utils/wpabuf.h **** /**
  54:..\..\..\..\wpa_supplicant\src\utils/wpabuf.h ****  * wpabuf_len - Get the current length of a wpabuf buffer data
  55:..\..\..\..\wpa_supplicant\src\utils/wpabuf.h ****  * @buf: wpabuf buffer
  56:..\..\..\..\wpa_supplicant\src\utils/wpabuf.h ****  * Returns: Currently used length of the buffer
  57:..\..\..\..\wpa_supplicant\src\utils/wpabuf.h ****  */
  58:..\..\..\..\wpa_supplicant\src\utils/wpabuf.h **** static inline size_t wpabuf_len(const struct wpabuf *buf)
  59:..\..\..\..\wpa_supplicant\src\utils/wpabuf.h **** {
  60:..\..\..\..\wpa_supplicant\src\utils/wpabuf.h **** 	return buf->used;
  61:..\..\..\..\wpa_supplicant\src\utils/wpabuf.h **** }
  62:..\..\..\..\wpa_supplicant\src\utils/wpabuf.h **** 
  63:..\..\..\..\wpa_supplicant\src\utils/wpabuf.h **** /**
  64:..\..\..\..\wpa_supplicant\src\utils/wpabuf.h ****  * wpabuf_tailroom - Get size of available tail room in the end of the buffer
  65:..\..\..\..\wpa_supplicant\src\utils/wpabuf.h ****  * @buf: wpabuf buffer
  66:..\..\..\..\wpa_supplicant\src\utils/wpabuf.h ****  * Returns: Tail room (in bytes) of available space in the end of the buffer
  67:..\..\..\..\wpa_supplicant\src\utils/wpabuf.h ****  */
  68:..\..\..\..\wpa_supplicant\src\utils/wpabuf.h **** static inline size_t wpabuf_tailroom(const struct wpabuf *buf)
  69:..\..\..\..\wpa_supplicant\src\utils/wpabuf.h **** {
  70:..\..\..\..\wpa_supplicant\src\utils/wpabuf.h **** 	return buf->size - buf->used;
  71:..\..\..\..\wpa_supplicant\src\utils/wpabuf.h **** }
  72:..\..\..\..\wpa_supplicant\src\utils/wpabuf.h **** 
  73:..\..\..\..\wpa_supplicant\src\utils/wpabuf.h **** /**
  74:..\..\..\..\wpa_supplicant\src\utils/wpabuf.h ****  * wpabuf_cmp - Check if two buffers contain the same data
  75:..\..\..\..\wpa_supplicant\src\utils/wpabuf.h ****  * @a: wpabuf buffer
  76:..\..\..\..\wpa_supplicant\src\utils/wpabuf.h ****  * @b: wpabuf buffer
  77:..\..\..\..\wpa_supplicant\src\utils/wpabuf.h ****  * Returns: 0 if the two buffers contain the same data and non-zero otherwise
  78:..\..\..\..\wpa_supplicant\src\utils/wpabuf.h ****  */
  79:..\..\..\..\wpa_supplicant\src\utils/wpabuf.h **** static inline int wpabuf_cmp(const struct wpabuf *a, const struct wpabuf *b)
  80:..\..\..\..\wpa_supplicant\src\utils/wpabuf.h **** {
  81:..\..\..\..\wpa_supplicant\src\utils/wpabuf.h **** 	if (!a && !b)
  82:..\..\..\..\wpa_supplicant\src\utils/wpabuf.h **** 		return 0;
  83:..\..\..\..\wpa_supplicant\src\utils/wpabuf.h **** 	if (a && b && wpabuf_size(a) == wpabuf_size(b))
  84:..\..\..\..\wpa_supplicant\src\utils/wpabuf.h **** 		return os_memcmp(a->buf, b->buf, wpabuf_size(a));
  85:..\..\..\..\wpa_supplicant\src\utils/wpabuf.h **** 	return -1;
  86:..\..\..\..\wpa_supplicant\src\utils/wpabuf.h **** }
  87:..\..\..\..\wpa_supplicant\src\utils/wpabuf.h **** 
  88:..\..\..\..\wpa_supplicant\src\utils/wpabuf.h **** /**
  89:..\..\..\..\wpa_supplicant\src\utils/wpabuf.h ****  * wpabuf_head - Get pointer to the head of the buffer data
  90:..\..\..\..\wpa_supplicant\src\utils/wpabuf.h ****  * @buf: wpabuf buffer
  91:..\..\..\..\wpa_supplicant\src\utils/wpabuf.h ****  * Returns: Pointer to the head of the buffer data
  92:..\..\..\..\wpa_supplicant\src\utils/wpabuf.h ****  */
  93:..\..\..\..\wpa_supplicant\src\utils/wpabuf.h **** static inline const void * wpabuf_head(const struct wpabuf *buf)
  94:..\..\..\..\wpa_supplicant\src\utils/wpabuf.h **** {
  95:..\..\..\..\wpa_supplicant\src\utils/wpabuf.h **** 	return buf->buf;
  96:..\..\..\..\wpa_supplicant\src\utils/wpabuf.h **** }
  97:..\..\..\..\wpa_supplicant\src\utils/wpabuf.h **** 
  98:..\..\..\..\wpa_supplicant\src\utils/wpabuf.h **** static inline const u8 * wpabuf_head_u8(const struct wpabuf *buf)
  99:..\..\..\..\wpa_supplicant\src\utils/wpabuf.h **** {
 100:..\..\..\..\wpa_supplicant\src\utils/wpabuf.h **** 	return (const u8 *) wpabuf_head(buf);
 101:..\..\..\..\wpa_supplicant\src\utils/wpabuf.h **** }
 102:..\..\..\..\wpa_supplicant\src\utils/wpabuf.h **** 
 103:..\..\..\..\wpa_supplicant\src\utils/wpabuf.h **** /**
 104:..\..\..\..\wpa_supplicant\src\utils/wpabuf.h ****  * wpabuf_mhead - Get modifiable pointer to the head of the buffer data
 105:..\..\..\..\wpa_supplicant\src\utils/wpabuf.h ****  * @buf: wpabuf buffer
 106:..\..\..\..\wpa_supplicant\src\utils/wpabuf.h ****  * Returns: Pointer to the head of the buffer data
 107:..\..\..\..\wpa_supplicant\src\utils/wpabuf.h ****  */
 108:..\..\..\..\wpa_supplicant\src\utils/wpabuf.h **** static inline void * wpabuf_mhead(struct wpabuf *buf)
 109:..\..\..\..\wpa_supplicant\src\utils/wpabuf.h **** {
 110:..\..\..\..\wpa_supplicant\src\utils/wpabuf.h **** 	return buf->buf;
 111:..\..\..\..\wpa_supplicant\src\utils/wpabuf.h **** }
 112:..\..\..\..\wpa_supplicant\src\utils/wpabuf.h **** 
 113:..\..\..\..\wpa_supplicant\src\utils/wpabuf.h **** static inline u8 * wpabuf_mhead_u8(struct wpabuf *buf)
 114:..\..\..\..\wpa_supplicant\src\utils/wpabuf.h **** {
 115:..\..\..\..\wpa_supplicant\src\utils/wpabuf.h **** 	return (u8 *) wpabuf_mhead(buf);
 116:..\..\..\..\wpa_supplicant\src\utils/wpabuf.h **** }
 117:..\..\..\..\wpa_supplicant\src\utils/wpabuf.h **** 
 118:..\..\..\..\wpa_supplicant\src\utils/wpabuf.h **** static inline void wpabuf_put_u8(struct wpabuf *buf, u8 data)
 119:..\..\..\..\wpa_supplicant\src\utils/wpabuf.h **** {
  72              		.loc 2 119 1 is_stmt 1
  73              		.cfi_startproc
  74              	.LVL8:
  75 0000 17030000 		call	t0,__riscv_save_1
  75      E7020300 
  76              		.cfi_offset 8, -8
  77              		.cfi_offset 1, -4
  78              		.cfi_def_cfa_offset 16
 120:..\..\..\..\wpa_supplicant\src\utils/wpabuf.h **** 	u8 *pos = (u8 *) wpabuf_put(buf, 1);
  79              		.loc 2 120 2
 119:..\..\..\..\wpa_supplicant\src\utils/wpabuf.h **** 	u8 *pos = (u8 *) wpabuf_put(buf, 1);
  80              		.loc 2 119 1 is_stmt 0
  81 0008 2E84     		mv	s0,a1
  82              		.loc 2 120 19
  83 000a 8545     		li	a1,1
  84              	.LVL9:
  85 000c 97000000 		call	wpabuf_put
  85      E7800000 
  86              	.LVL10:
 121:..\..\..\..\wpa_supplicant\src\utils/wpabuf.h **** 	*pos = data;
  87              		.loc 2 121 2 is_stmt 1
  88              		.loc 2 121 7 is_stmt 0
  89 0014 23008500 		sb	s0,0(a0)
 122:..\..\..\..\wpa_supplicant\src\utils/wpabuf.h **** }
  90              		.loc 2 122 1
  91 0018 17030000 		tail	__riscv_restore_1
  91      67000300 
  92              		.cfi_restore 8
  93              		.cfi_restore 1
  94              		.cfi_def_cfa_offset 0
  95              		.cfi_endproc
  96              	.LFE53:
  98              		.section	.text.wpabuf_put_data,"ax",@progbits
  99              		.align	1
 101              	wpabuf_put_data:
 102              	.LFB61:
 123:..\..\..\..\wpa_supplicant\src\utils/wpabuf.h **** 
 124:..\..\..\..\wpa_supplicant\src\utils/wpabuf.h **** static inline void wpabuf_put_le16(struct wpabuf *buf, u16 data)
 125:..\..\..\..\wpa_supplicant\src\utils/wpabuf.h **** {
 126:..\..\..\..\wpa_supplicant\src\utils/wpabuf.h **** 	u8 *pos = (u8 *) wpabuf_put(buf, 2);
 127:..\..\..\..\wpa_supplicant\src\utils/wpabuf.h **** 	WPA_PUT_LE16(pos, data);
 128:..\..\..\..\wpa_supplicant\src\utils/wpabuf.h **** }
 129:..\..\..\..\wpa_supplicant\src\utils/wpabuf.h **** 
 130:..\..\..\..\wpa_supplicant\src\utils/wpabuf.h **** static inline void wpabuf_put_le32(struct wpabuf *buf, u32 data)
 131:..\..\..\..\wpa_supplicant\src\utils/wpabuf.h **** {
 132:..\..\..\..\wpa_supplicant\src\utils/wpabuf.h **** 	u8 *pos = (u8 *) wpabuf_put(buf, 4);
 133:..\..\..\..\wpa_supplicant\src\utils/wpabuf.h **** 	WPA_PUT_LE32(pos, data);
 134:..\..\..\..\wpa_supplicant\src\utils/wpabuf.h **** }
 135:..\..\..\..\wpa_supplicant\src\utils/wpabuf.h **** 
 136:..\..\..\..\wpa_supplicant\src\utils/wpabuf.h **** static inline void wpabuf_put_le64(struct wpabuf *buf, u64 data)
 137:..\..\..\..\wpa_supplicant\src\utils/wpabuf.h **** {
 138:..\..\..\..\wpa_supplicant\src\utils/wpabuf.h **** 	u8 *pos = (u8 *) wpabuf_put(buf, 8);
 139:..\..\..\..\wpa_supplicant\src\utils/wpabuf.h **** 	WPA_PUT_LE64(pos, data);
 140:..\..\..\..\wpa_supplicant\src\utils/wpabuf.h **** }
 141:..\..\..\..\wpa_supplicant\src\utils/wpabuf.h **** 
 142:..\..\..\..\wpa_supplicant\src\utils/wpabuf.h **** static inline void wpabuf_put_be16(struct wpabuf *buf, u16 data)
 143:..\..\..\..\wpa_supplicant\src\utils/wpabuf.h **** {
 144:..\..\..\..\wpa_supplicant\src\utils/wpabuf.h **** 	u8 *pos = (u8 *) wpabuf_put(buf, 2);
 145:..\..\..\..\wpa_supplicant\src\utils/wpabuf.h **** 	WPA_PUT_BE16(pos, data);
 146:..\..\..\..\wpa_supplicant\src\utils/wpabuf.h **** }
 147:..\..\..\..\wpa_supplicant\src\utils/wpabuf.h **** 
 148:..\..\..\..\wpa_supplicant\src\utils/wpabuf.h **** static inline void wpabuf_put_be24(struct wpabuf *buf, u32 data)
 149:..\..\..\..\wpa_supplicant\src\utils/wpabuf.h **** {
 150:..\..\..\..\wpa_supplicant\src\utils/wpabuf.h **** 	u8 *pos = (u8 *) wpabuf_put(buf, 3);
 151:..\..\..\..\wpa_supplicant\src\utils/wpabuf.h **** 	WPA_PUT_BE24(pos, data);
 152:..\..\..\..\wpa_supplicant\src\utils/wpabuf.h **** }
 153:..\..\..\..\wpa_supplicant\src\utils/wpabuf.h **** 
 154:..\..\..\..\wpa_supplicant\src\utils/wpabuf.h **** static inline void wpabuf_put_be32(struct wpabuf *buf, u32 data)
 155:..\..\..\..\wpa_supplicant\src\utils/wpabuf.h **** {
 156:..\..\..\..\wpa_supplicant\src\utils/wpabuf.h **** 	u8 *pos = (u8 *) wpabuf_put(buf, 4);
 157:..\..\..\..\wpa_supplicant\src\utils/wpabuf.h **** 	WPA_PUT_BE32(pos, data);
 158:..\..\..\..\wpa_supplicant\src\utils/wpabuf.h **** }
 159:..\..\..\..\wpa_supplicant\src\utils/wpabuf.h **** 
 160:..\..\..\..\wpa_supplicant\src\utils/wpabuf.h **** static inline void wpabuf_put_be64(struct wpabuf *buf, u64 data)
 161:..\..\..\..\wpa_supplicant\src\utils/wpabuf.h **** {
 162:..\..\..\..\wpa_supplicant\src\utils/wpabuf.h **** 	u8 *pos = (u8 *) wpabuf_put(buf, 8);
 163:..\..\..\..\wpa_supplicant\src\utils/wpabuf.h **** 	WPA_PUT_BE64(pos, data);
 164:..\..\..\..\wpa_supplicant\src\utils/wpabuf.h **** }
 165:..\..\..\..\wpa_supplicant\src\utils/wpabuf.h **** 
 166:..\..\..\..\wpa_supplicant\src\utils/wpabuf.h **** static inline void wpabuf_put_data(struct wpabuf *buf, const void *data,
 167:..\..\..\..\wpa_supplicant\src\utils/wpabuf.h **** 				   size_t len)
 168:..\..\..\..\wpa_supplicant\src\utils/wpabuf.h **** {
 103              		.loc 2 168 1 is_stmt 1
 104              		.cfi_startproc
 105              	.LVL11:
 169:..\..\..\..\wpa_supplicant\src\utils/wpabuf.h **** 	if (data)
 106              		.loc 2 169 2
 107              		.loc 2 169 5 is_stmt 0
 108 0000 85C9     		beq	a1,zero,.L16
 168:..\..\..\..\wpa_supplicant\src\utils/wpabuf.h **** 	if (data)
 109              		.loc 2 168 1
 110 0002 17030000 		call	t0,__riscv_save_1
 110      E7020300 
 111              		.cfi_offset 8, -8
 112              		.cfi_offset 1, -4
 113              		.cfi_def_cfa_offset 16
 114 000a 4111     		addi	sp,sp,-16
 115              		.cfi_def_cfa_offset 32
 116 000c 2E84     		mv	s0,a1
 117              	.LVL12:
 118              	.LBB31:
 119              	.LBB32:
 170:..\..\..\..\wpa_supplicant\src\utils/wpabuf.h **** 		os_memcpy(wpabuf_put(buf, len), data, len);
 120              		.loc 2 170 3 is_stmt 1
 121 000e B285     		mv	a1,a2
 122              	.LVL13:
 123 0010 32C6     		sw	a2,12(sp)
 124 0012 97000000 		call	wpabuf_put
 124      E7800000 
 125              	.LVL14:
 126 001a 3246     		lw	a2,12(sp)
 127 001c A285     		mv	a1,s0
 128 001e 97000000 		call	os_memcpy
 128      E7800000 
 129              	.LVL15:
 130              	.LBE32:
 131              	.LBE31:
 171:..\..\..\..\wpa_supplicant\src\utils/wpabuf.h **** }
 132              		.loc 2 171 1 is_stmt 0
 133 0026 4101     		addi	sp,sp,16
 134              		.cfi_def_cfa_offset 0
 135              	.LVL16:
 136 0028 17030000 		tail	__riscv_restore_1
 136      67000300 
 137              		.cfi_restore 8
 138              		.cfi_restore 1
 139              		.cfi_def_cfa_offset -16
 140              	.LVL17:
 141              	.L16:
 142              		.cfi_def_cfa_offset 0
 143 0030 8280     		ret
 144              		.cfi_endproc
 145              	.LFE61:
 147              		.section	.text.wpabuf_put_buf,"ax",@progbits
 148              		.align	1
 150              	wpabuf_put_buf:
 151              	.LFB62:
 172:..\..\..\..\wpa_supplicant\src\utils/wpabuf.h **** 
 173:..\..\..\..\wpa_supplicant\src\utils/wpabuf.h **** static inline void wpabuf_put_buf(struct wpabuf *dst,
 174:..\..\..\..\wpa_supplicant\src\utils/wpabuf.h **** 				  const struct wpabuf *src)
 175:..\..\..\..\wpa_supplicant\src\utils/wpabuf.h **** {
 152              		.loc 2 175 1 is_stmt 1
 153              		.cfi_startproc
 154              	.LVL18:
 176:..\..\..\..\wpa_supplicant\src\utils/wpabuf.h **** 	wpabuf_put_data(dst, wpabuf_head(src), wpabuf_len(src));
 155              		.loc 2 176 2
 156              	.LBB33:
 157              	.LBB34:
  95:..\..\..\..\wpa_supplicant\src\utils/wpabuf.h **** }
 158              		.loc 2 95 2
 159              	.LBE34:
 160              	.LBE33:
 161              	.LBB35:
 162              	.LBB36:
  60:..\..\..\..\wpa_supplicant\src\utils/wpabuf.h **** }
 163              		.loc 2 60 2
 164              	.LBE36:
 165              	.LBE35:
 166              		.loc 2 176 2 is_stmt 0
 167 0000 D041     		lw	a2,4(a1)
 168 0002 8C45     		lw	a1,8(a1)
 169              	.LVL19:
 170 0004 17030000 		tail	wpabuf_put_data
 170      67000300 
 171              	.LVL20:
 172              		.cfi_endproc
 173              	.LFE62:
 175              		.section	.text.asn1_put_len,"ax",@progbits
 176              		.align	1
 178              	asn1_put_len:
 179              	.LFB101:
 389:C:/Users/stapi/OneDrive/Desktop/GD32VW553/V1_MQTT_OK/GD32VW55X_Wifi_BLE_SDK/GD32VW55x_RELEASE_V1.0.2/MSDK/wpa_supplicant/src/tls\asn1.c **** 
 390:C:/Users/stapi/OneDrive/Desktop/GD32VW553/V1_MQTT_OK/GD32VW55X_Wifi_BLE_SDK/GD32VW55x_RELEASE_V1.0.2/MSDK/wpa_supplicant/src/tls\asn1.c **** 
 391:C:/Users/stapi/OneDrive/Desktop/GD32VW553/V1_MQTT_OK/GD32VW55X_Wifi_BLE_SDK/GD32VW55x_RELEASE_V1.0.2/MSDK/wpa_supplicant/src/tls\asn1.c **** unsigned long asn1_bit_string_to_long(const u8 *buf, size_t len)
 392:C:/Users/stapi/OneDrive/Desktop/GD32VW553/V1_MQTT_OK/GD32VW55X_Wifi_BLE_SDK/GD32VW55x_RELEASE_V1.0.2/MSDK/wpa_supplicant/src/tls\asn1.c **** {
 393:C:/Users/stapi/OneDrive/Desktop/GD32VW553/V1_MQTT_OK/GD32VW55X_Wifi_BLE_SDK/GD32VW55x_RELEASE_V1.0.2/MSDK/wpa_supplicant/src/tls\asn1.c **** 	unsigned long val = 0;
 394:C:/Users/stapi/OneDrive/Desktop/GD32VW553/V1_MQTT_OK/GD32VW55X_Wifi_BLE_SDK/GD32VW55x_RELEASE_V1.0.2/MSDK/wpa_supplicant/src/tls\asn1.c **** 	const u8 *pos = buf;
 395:C:/Users/stapi/OneDrive/Desktop/GD32VW553/V1_MQTT_OK/GD32VW55X_Wifi_BLE_SDK/GD32VW55x_RELEASE_V1.0.2/MSDK/wpa_supplicant/src/tls\asn1.c **** 
 396:C:/Users/stapi/OneDrive/Desktop/GD32VW553/V1_MQTT_OK/GD32VW55X_Wifi_BLE_SDK/GD32VW55x_RELEASE_V1.0.2/MSDK/wpa_supplicant/src/tls\asn1.c **** 	/* BER requires that unused bits are zero, so we can ignore the number
 397:C:/Users/stapi/OneDrive/Desktop/GD32VW553/V1_MQTT_OK/GD32VW55X_Wifi_BLE_SDK/GD32VW55x_RELEASE_V1.0.2/MSDK/wpa_supplicant/src/tls\asn1.c **** 	 * of unused bits */
 398:C:/Users/stapi/OneDrive/Desktop/GD32VW553/V1_MQTT_OK/GD32VW55X_Wifi_BLE_SDK/GD32VW55x_RELEASE_V1.0.2/MSDK/wpa_supplicant/src/tls\asn1.c **** 	pos++;
 399:C:/Users/stapi/OneDrive/Desktop/GD32VW553/V1_MQTT_OK/GD32VW55X_Wifi_BLE_SDK/GD32VW55x_RELEASE_V1.0.2/MSDK/wpa_supplicant/src/tls\asn1.c **** 
 400:C:/Users/stapi/OneDrive/Desktop/GD32VW553/V1_MQTT_OK/GD32VW55X_Wifi_BLE_SDK/GD32VW55x_RELEASE_V1.0.2/MSDK/wpa_supplicant/src/tls\asn1.c **** 	if (len >= 2)
 401:C:/Users/stapi/OneDrive/Desktop/GD32VW553/V1_MQTT_OK/GD32VW55X_Wifi_BLE_SDK/GD32VW55x_RELEASE_V1.0.2/MSDK/wpa_supplicant/src/tls\asn1.c **** 		val |= rotate_bits(*pos++);
 402:C:/Users/stapi/OneDrive/Desktop/GD32VW553/V1_MQTT_OK/GD32VW55X_Wifi_BLE_SDK/GD32VW55x_RELEASE_V1.0.2/MSDK/wpa_supplicant/src/tls\asn1.c **** 	if (len >= 3)
 403:C:/Users/stapi/OneDrive/Desktop/GD32VW553/V1_MQTT_OK/GD32VW55X_Wifi_BLE_SDK/GD32VW55x_RELEASE_V1.0.2/MSDK/wpa_supplicant/src/tls\asn1.c **** 		val |= ((unsigned long) rotate_bits(*pos++)) << 8;
 404:C:/Users/stapi/OneDrive/Desktop/GD32VW553/V1_MQTT_OK/GD32VW55X_Wifi_BLE_SDK/GD32VW55x_RELEASE_V1.0.2/MSDK/wpa_supplicant/src/tls\asn1.c **** 	if (len >= 4)
 405:C:/Users/stapi/OneDrive/Desktop/GD32VW553/V1_MQTT_OK/GD32VW55X_Wifi_BLE_SDK/GD32VW55x_RELEASE_V1.0.2/MSDK/wpa_supplicant/src/tls\asn1.c **** 		val |= ((unsigned long) rotate_bits(*pos++)) << 16;
 406:C:/Users/stapi/OneDrive/Desktop/GD32VW553/V1_MQTT_OK/GD32VW55X_Wifi_BLE_SDK/GD32VW55x_RELEASE_V1.0.2/MSDK/wpa_supplicant/src/tls\asn1.c **** 	if (len >= 5)
 407:C:/Users/stapi/OneDrive/Desktop/GD32VW553/V1_MQTT_OK/GD32VW55X_Wifi_BLE_SDK/GD32VW55x_RELEASE_V1.0.2/MSDK/wpa_supplicant/src/tls\asn1.c **** 		val |= ((unsigned long) rotate_bits(*pos++)) << 24;
 408:C:/Users/stapi/OneDrive/Desktop/GD32VW553/V1_MQTT_OK/GD32VW55X_Wifi_BLE_SDK/GD32VW55x_RELEASE_V1.0.2/MSDK/wpa_supplicant/src/tls\asn1.c **** 	if (len >= 6)
 409:C:/Users/stapi/OneDrive/Desktop/GD32VW553/V1_MQTT_OK/GD32VW55X_Wifi_BLE_SDK/GD32VW55x_RELEASE_V1.0.2/MSDK/wpa_supplicant/src/tls\asn1.c **** 		wpa_printf(MSG_DEBUG, "X509: %s - some bits ignored "
 410:C:/Users/stapi/OneDrive/Desktop/GD32VW553/V1_MQTT_OK/GD32VW55X_Wifi_BLE_SDK/GD32VW55x_RELEASE_V1.0.2/MSDK/wpa_supplicant/src/tls\asn1.c **** 			   "(BIT STRING length %lu)",
 411:C:/Users/stapi/OneDrive/Desktop/GD32VW553/V1_MQTT_OK/GD32VW55X_Wifi_BLE_SDK/GD32VW55x_RELEASE_V1.0.2/MSDK/wpa_supplicant/src/tls\asn1.c **** 			   __func__, (unsigned long) len);
 412:C:/Users/stapi/OneDrive/Desktop/GD32VW553/V1_MQTT_OK/GD32VW55X_Wifi_BLE_SDK/GD32VW55x_RELEASE_V1.0.2/MSDK/wpa_supplicant/src/tls\asn1.c **** 
 413:C:/Users/stapi/OneDrive/Desktop/GD32VW553/V1_MQTT_OK/GD32VW55X_Wifi_BLE_SDK/GD32VW55x_RELEASE_V1.0.2/MSDK/wpa_supplicant/src/tls\asn1.c **** 	return val;
 414:C:/Users/stapi/OneDrive/Desktop/GD32VW553/V1_MQTT_OK/GD32VW55X_Wifi_BLE_SDK/GD32VW55x_RELEASE_V1.0.2/MSDK/wpa_supplicant/src/tls\asn1.c **** }
 415:C:/Users/stapi/OneDrive/Desktop/GD32VW553/V1_MQTT_OK/GD32VW55X_Wifi_BLE_SDK/GD32VW55x_RELEASE_V1.0.2/MSDK/wpa_supplicant/src/tls\asn1.c **** 
 416:C:/Users/stapi/OneDrive/Desktop/GD32VW553/V1_MQTT_OK/GD32VW55X_Wifi_BLE_SDK/GD32VW55x_RELEASE_V1.0.2/MSDK/wpa_supplicant/src/tls\asn1.c **** 
 417:C:/Users/stapi/OneDrive/Desktop/GD32VW553/V1_MQTT_OK/GD32VW55X_Wifi_BLE_SDK/GD32VW55x_RELEASE_V1.0.2/MSDK/wpa_supplicant/src/tls\asn1.c **** int asn1_oid_equal(const struct asn1_oid *a, const struct asn1_oid *b)
 418:C:/Users/stapi/OneDrive/Desktop/GD32VW553/V1_MQTT_OK/GD32VW55X_Wifi_BLE_SDK/GD32VW55x_RELEASE_V1.0.2/MSDK/wpa_supplicant/src/tls\asn1.c **** {
 419:C:/Users/stapi/OneDrive/Desktop/GD32VW553/V1_MQTT_OK/GD32VW55X_Wifi_BLE_SDK/GD32VW55x_RELEASE_V1.0.2/MSDK/wpa_supplicant/src/tls\asn1.c **** 	size_t i;
 420:C:/Users/stapi/OneDrive/Desktop/GD32VW553/V1_MQTT_OK/GD32VW55X_Wifi_BLE_SDK/GD32VW55x_RELEASE_V1.0.2/MSDK/wpa_supplicant/src/tls\asn1.c **** 
 421:C:/Users/stapi/OneDrive/Desktop/GD32VW553/V1_MQTT_OK/GD32VW55X_Wifi_BLE_SDK/GD32VW55x_RELEASE_V1.0.2/MSDK/wpa_supplicant/src/tls\asn1.c **** 	if (a->len != b->len)
 422:C:/Users/stapi/OneDrive/Desktop/GD32VW553/V1_MQTT_OK/GD32VW55X_Wifi_BLE_SDK/GD32VW55x_RELEASE_V1.0.2/MSDK/wpa_supplicant/src/tls\asn1.c **** 		return 0;
 423:C:/Users/stapi/OneDrive/Desktop/GD32VW553/V1_MQTT_OK/GD32VW55X_Wifi_BLE_SDK/GD32VW55x_RELEASE_V1.0.2/MSDK/wpa_supplicant/src/tls\asn1.c **** 
 424:C:/Users/stapi/OneDrive/Desktop/GD32VW553/V1_MQTT_OK/GD32VW55X_Wifi_BLE_SDK/GD32VW55x_RELEASE_V1.0.2/MSDK/wpa_supplicant/src/tls\asn1.c **** 	for (i = 0; i < a->len; i++) {
 425:C:/Users/stapi/OneDrive/Desktop/GD32VW553/V1_MQTT_OK/GD32VW55X_Wifi_BLE_SDK/GD32VW55x_RELEASE_V1.0.2/MSDK/wpa_supplicant/src/tls\asn1.c **** 		if (a->oid[i] != b->oid[i])
 426:C:/Users/stapi/OneDrive/Desktop/GD32VW553/V1_MQTT_OK/GD32VW55X_Wifi_BLE_SDK/GD32VW55x_RELEASE_V1.0.2/MSDK/wpa_supplicant/src/tls\asn1.c **** 			return 0;
 427:C:/Users/stapi/OneDrive/Desktop/GD32VW553/V1_MQTT_OK/GD32VW55X_Wifi_BLE_SDK/GD32VW55x_RELEASE_V1.0.2/MSDK/wpa_supplicant/src/tls\asn1.c **** 	}
 428:C:/Users/stapi/OneDrive/Desktop/GD32VW553/V1_MQTT_OK/GD32VW55X_Wifi_BLE_SDK/GD32VW55x_RELEASE_V1.0.2/MSDK/wpa_supplicant/src/tls\asn1.c **** 
 429:C:/Users/stapi/OneDrive/Desktop/GD32VW553/V1_MQTT_OK/GD32VW55X_Wifi_BLE_SDK/GD32VW55x_RELEASE_V1.0.2/MSDK/wpa_supplicant/src/tls\asn1.c **** 	return 1;
 430:C:/Users/stapi/OneDrive/Desktop/GD32VW553/V1_MQTT_OK/GD32VW55X_Wifi_BLE_SDK/GD32VW55x_RELEASE_V1.0.2/MSDK/wpa_supplicant/src/tls\asn1.c **** }
 431:C:/Users/stapi/OneDrive/Desktop/GD32VW553/V1_MQTT_OK/GD32VW55X_Wifi_BLE_SDK/GD32VW55x_RELEASE_V1.0.2/MSDK/wpa_supplicant/src/tls\asn1.c **** 
 432:C:/Users/stapi/OneDrive/Desktop/GD32VW553/V1_MQTT_OK/GD32VW55X_Wifi_BLE_SDK/GD32VW55x_RELEASE_V1.0.2/MSDK/wpa_supplicant/src/tls\asn1.c **** 
 433:C:/Users/stapi/OneDrive/Desktop/GD32VW553/V1_MQTT_OK/GD32VW55X_Wifi_BLE_SDK/GD32VW55x_RELEASE_V1.0.2/MSDK/wpa_supplicant/src/tls\asn1.c **** int asn1_get_integer(const u8 *buf, size_t len, int *integer, const u8 **next)
 434:C:/Users/stapi/OneDrive/Desktop/GD32VW553/V1_MQTT_OK/GD32VW55X_Wifi_BLE_SDK/GD32VW55x_RELEASE_V1.0.2/MSDK/wpa_supplicant/src/tls\asn1.c **** {
 435:C:/Users/stapi/OneDrive/Desktop/GD32VW553/V1_MQTT_OK/GD32VW55X_Wifi_BLE_SDK/GD32VW55x_RELEASE_V1.0.2/MSDK/wpa_supplicant/src/tls\asn1.c **** 	struct asn1_hdr hdr;
 436:C:/Users/stapi/OneDrive/Desktop/GD32VW553/V1_MQTT_OK/GD32VW55X_Wifi_BLE_SDK/GD32VW55x_RELEASE_V1.0.2/MSDK/wpa_supplicant/src/tls\asn1.c **** 	size_t left;
 437:C:/Users/stapi/OneDrive/Desktop/GD32VW553/V1_MQTT_OK/GD32VW55X_Wifi_BLE_SDK/GD32VW55x_RELEASE_V1.0.2/MSDK/wpa_supplicant/src/tls\asn1.c **** 	const u8 *pos;
 438:C:/Users/stapi/OneDrive/Desktop/GD32VW553/V1_MQTT_OK/GD32VW55X_Wifi_BLE_SDK/GD32VW55x_RELEASE_V1.0.2/MSDK/wpa_supplicant/src/tls\asn1.c **** 	int value;
 439:C:/Users/stapi/OneDrive/Desktop/GD32VW553/V1_MQTT_OK/GD32VW55X_Wifi_BLE_SDK/GD32VW55x_RELEASE_V1.0.2/MSDK/wpa_supplicant/src/tls\asn1.c **** 
 440:C:/Users/stapi/OneDrive/Desktop/GD32VW553/V1_MQTT_OK/GD32VW55X_Wifi_BLE_SDK/GD32VW55x_RELEASE_V1.0.2/MSDK/wpa_supplicant/src/tls\asn1.c **** 	if (asn1_get_next(buf, len, &hdr) < 0 || hdr.length == 0 ||
 441:C:/Users/stapi/OneDrive/Desktop/GD32VW553/V1_MQTT_OK/GD32VW55X_Wifi_BLE_SDK/GD32VW55x_RELEASE_V1.0.2/MSDK/wpa_supplicant/src/tls\asn1.c **** 	    !asn1_is_integer(&hdr)) {
 442:C:/Users/stapi/OneDrive/Desktop/GD32VW553/V1_MQTT_OK/GD32VW55X_Wifi_BLE_SDK/GD32VW55x_RELEASE_V1.0.2/MSDK/wpa_supplicant/src/tls\asn1.c **** 		asn1_unexpected(&hdr, "ASN.1: Expected INTEGER");
 443:C:/Users/stapi/OneDrive/Desktop/GD32VW553/V1_MQTT_OK/GD32VW55X_Wifi_BLE_SDK/GD32VW55x_RELEASE_V1.0.2/MSDK/wpa_supplicant/src/tls\asn1.c **** 		return -1;
 444:C:/Users/stapi/OneDrive/Desktop/GD32VW553/V1_MQTT_OK/GD32VW55X_Wifi_BLE_SDK/GD32VW55x_RELEASE_V1.0.2/MSDK/wpa_supplicant/src/tls\asn1.c **** 	}
 445:C:/Users/stapi/OneDrive/Desktop/GD32VW553/V1_MQTT_OK/GD32VW55X_Wifi_BLE_SDK/GD32VW55x_RELEASE_V1.0.2/MSDK/wpa_supplicant/src/tls\asn1.c **** 
 446:C:/Users/stapi/OneDrive/Desktop/GD32VW553/V1_MQTT_OK/GD32VW55X_Wifi_BLE_SDK/GD32VW55x_RELEASE_V1.0.2/MSDK/wpa_supplicant/src/tls\asn1.c **** 	*next = hdr.payload + hdr.length;
 447:C:/Users/stapi/OneDrive/Desktop/GD32VW553/V1_MQTT_OK/GD32VW55X_Wifi_BLE_SDK/GD32VW55x_RELEASE_V1.0.2/MSDK/wpa_supplicant/src/tls\asn1.c **** 	pos = hdr.payload;
 448:C:/Users/stapi/OneDrive/Desktop/GD32VW553/V1_MQTT_OK/GD32VW55X_Wifi_BLE_SDK/GD32VW55x_RELEASE_V1.0.2/MSDK/wpa_supplicant/src/tls\asn1.c **** 	left = hdr.length;
 449:C:/Users/stapi/OneDrive/Desktop/GD32VW553/V1_MQTT_OK/GD32VW55X_Wifi_BLE_SDK/GD32VW55x_RELEASE_V1.0.2/MSDK/wpa_supplicant/src/tls\asn1.c **** 	if (left > sizeof(value)) {
 450:C:/Users/stapi/OneDrive/Desktop/GD32VW553/V1_MQTT_OK/GD32VW55X_Wifi_BLE_SDK/GD32VW55x_RELEASE_V1.0.2/MSDK/wpa_supplicant/src/tls\asn1.c **** 		wpa_printf(MSG_DEBUG, "ASN.1: Too large INTEGER (len %u)",
 451:C:/Users/stapi/OneDrive/Desktop/GD32VW553/V1_MQTT_OK/GD32VW55X_Wifi_BLE_SDK/GD32VW55x_RELEASE_V1.0.2/MSDK/wpa_supplicant/src/tls\asn1.c **** 			   hdr.length);
 452:C:/Users/stapi/OneDrive/Desktop/GD32VW553/V1_MQTT_OK/GD32VW55X_Wifi_BLE_SDK/GD32VW55x_RELEASE_V1.0.2/MSDK/wpa_supplicant/src/tls\asn1.c **** 		return -1;
 453:C:/Users/stapi/OneDrive/Desktop/GD32VW553/V1_MQTT_OK/GD32VW55X_Wifi_BLE_SDK/GD32VW55x_RELEASE_V1.0.2/MSDK/wpa_supplicant/src/tls\asn1.c **** 	}
 454:C:/Users/stapi/OneDrive/Desktop/GD32VW553/V1_MQTT_OK/GD32VW55X_Wifi_BLE_SDK/GD32VW55x_RELEASE_V1.0.2/MSDK/wpa_supplicant/src/tls\asn1.c **** 	value = 0;
 455:C:/Users/stapi/OneDrive/Desktop/GD32VW553/V1_MQTT_OK/GD32VW55X_Wifi_BLE_SDK/GD32VW55x_RELEASE_V1.0.2/MSDK/wpa_supplicant/src/tls\asn1.c **** 	while (left) {
 456:C:/Users/stapi/OneDrive/Desktop/GD32VW553/V1_MQTT_OK/GD32VW55X_Wifi_BLE_SDK/GD32VW55x_RELEASE_V1.0.2/MSDK/wpa_supplicant/src/tls\asn1.c **** 		value <<= 8;
 457:C:/Users/stapi/OneDrive/Desktop/GD32VW553/V1_MQTT_OK/GD32VW55X_Wifi_BLE_SDK/GD32VW55x_RELEASE_V1.0.2/MSDK/wpa_supplicant/src/tls\asn1.c **** 		value |= *pos++;
 458:C:/Users/stapi/OneDrive/Desktop/GD32VW553/V1_MQTT_OK/GD32VW55X_Wifi_BLE_SDK/GD32VW55x_RELEASE_V1.0.2/MSDK/wpa_supplicant/src/tls\asn1.c **** 		left--;
 459:C:/Users/stapi/OneDrive/Desktop/GD32VW553/V1_MQTT_OK/GD32VW55X_Wifi_BLE_SDK/GD32VW55x_RELEASE_V1.0.2/MSDK/wpa_supplicant/src/tls\asn1.c **** 	}
 460:C:/Users/stapi/OneDrive/Desktop/GD32VW553/V1_MQTT_OK/GD32VW55X_Wifi_BLE_SDK/GD32VW55x_RELEASE_V1.0.2/MSDK/wpa_supplicant/src/tls\asn1.c **** 
 461:C:/Users/stapi/OneDrive/Desktop/GD32VW553/V1_MQTT_OK/GD32VW55X_Wifi_BLE_SDK/GD32VW55x_RELEASE_V1.0.2/MSDK/wpa_supplicant/src/tls\asn1.c **** 	*integer = value;
 462:C:/Users/stapi/OneDrive/Desktop/GD32VW553/V1_MQTT_OK/GD32VW55X_Wifi_BLE_SDK/GD32VW55x_RELEASE_V1.0.2/MSDK/wpa_supplicant/src/tls\asn1.c **** 	return 0;
 463:C:/Users/stapi/OneDrive/Desktop/GD32VW553/V1_MQTT_OK/GD32VW55X_Wifi_BLE_SDK/GD32VW55x_RELEASE_V1.0.2/MSDK/wpa_supplicant/src/tls\asn1.c **** }
 464:C:/Users/stapi/OneDrive/Desktop/GD32VW553/V1_MQTT_OK/GD32VW55X_Wifi_BLE_SDK/GD32VW55x_RELEASE_V1.0.2/MSDK/wpa_supplicant/src/tls\asn1.c **** 
 465:C:/Users/stapi/OneDrive/Desktop/GD32VW553/V1_MQTT_OK/GD32VW55X_Wifi_BLE_SDK/GD32VW55x_RELEASE_V1.0.2/MSDK/wpa_supplicant/src/tls\asn1.c **** 
 466:C:/Users/stapi/OneDrive/Desktop/GD32VW553/V1_MQTT_OK/GD32VW55X_Wifi_BLE_SDK/GD32VW55x_RELEASE_V1.0.2/MSDK/wpa_supplicant/src/tls\asn1.c **** int asn1_get_sequence(const u8 *buf, size_t len, struct asn1_hdr *hdr,
 467:C:/Users/stapi/OneDrive/Desktop/GD32VW553/V1_MQTT_OK/GD32VW55X_Wifi_BLE_SDK/GD32VW55x_RELEASE_V1.0.2/MSDK/wpa_supplicant/src/tls\asn1.c **** 		      const u8 **next)
 468:C:/Users/stapi/OneDrive/Desktop/GD32VW553/V1_MQTT_OK/GD32VW55X_Wifi_BLE_SDK/GD32VW55x_RELEASE_V1.0.2/MSDK/wpa_supplicant/src/tls\asn1.c **** {
 469:C:/Users/stapi/OneDrive/Desktop/GD32VW553/V1_MQTT_OK/GD32VW55X_Wifi_BLE_SDK/GD32VW55x_RELEASE_V1.0.2/MSDK/wpa_supplicant/src/tls\asn1.c **** 	if (asn1_get_next(buf, len, hdr) < 0 || !asn1_is_sequence(hdr)) {
 470:C:/Users/stapi/OneDrive/Desktop/GD32VW553/V1_MQTT_OK/GD32VW55X_Wifi_BLE_SDK/GD32VW55x_RELEASE_V1.0.2/MSDK/wpa_supplicant/src/tls\asn1.c **** 		asn1_unexpected(hdr, "ASN.1: Expected SEQUENCE");
 471:C:/Users/stapi/OneDrive/Desktop/GD32VW553/V1_MQTT_OK/GD32VW55X_Wifi_BLE_SDK/GD32VW55x_RELEASE_V1.0.2/MSDK/wpa_supplicant/src/tls\asn1.c **** 		return -1;
 472:C:/Users/stapi/OneDrive/Desktop/GD32VW553/V1_MQTT_OK/GD32VW55X_Wifi_BLE_SDK/GD32VW55x_RELEASE_V1.0.2/MSDK/wpa_supplicant/src/tls\asn1.c **** 	}
 473:C:/Users/stapi/OneDrive/Desktop/GD32VW553/V1_MQTT_OK/GD32VW55X_Wifi_BLE_SDK/GD32VW55x_RELEASE_V1.0.2/MSDK/wpa_supplicant/src/tls\asn1.c **** 
 474:C:/Users/stapi/OneDrive/Desktop/GD32VW553/V1_MQTT_OK/GD32VW55X_Wifi_BLE_SDK/GD32VW55x_RELEASE_V1.0.2/MSDK/wpa_supplicant/src/tls\asn1.c **** 	if (next)
 475:C:/Users/stapi/OneDrive/Desktop/GD32VW553/V1_MQTT_OK/GD32VW55X_Wifi_BLE_SDK/GD32VW55x_RELEASE_V1.0.2/MSDK/wpa_supplicant/src/tls\asn1.c **** 		*next = hdr->payload + hdr->length;
 476:C:/Users/stapi/OneDrive/Desktop/GD32VW553/V1_MQTT_OK/GD32VW55X_Wifi_BLE_SDK/GD32VW55x_RELEASE_V1.0.2/MSDK/wpa_supplicant/src/tls\asn1.c **** 	return 0;
 477:C:/Users/stapi/OneDrive/Desktop/GD32VW553/V1_MQTT_OK/GD32VW55X_Wifi_BLE_SDK/GD32VW55x_RELEASE_V1.0.2/MSDK/wpa_supplicant/src/tls\asn1.c **** }
 478:C:/Users/stapi/OneDrive/Desktop/GD32VW553/V1_MQTT_OK/GD32VW55X_Wifi_BLE_SDK/GD32VW55x_RELEASE_V1.0.2/MSDK/wpa_supplicant/src/tls\asn1.c **** 
 479:C:/Users/stapi/OneDrive/Desktop/GD32VW553/V1_MQTT_OK/GD32VW55X_Wifi_BLE_SDK/GD32VW55x_RELEASE_V1.0.2/MSDK/wpa_supplicant/src/tls\asn1.c **** 
 480:C:/Users/stapi/OneDrive/Desktop/GD32VW553/V1_MQTT_OK/GD32VW55X_Wifi_BLE_SDK/GD32VW55x_RELEASE_V1.0.2/MSDK/wpa_supplicant/src/tls\asn1.c **** int asn1_get_alg_id(const u8 *buf, size_t len, struct asn1_oid *oid,
 481:C:/Users/stapi/OneDrive/Desktop/GD32VW553/V1_MQTT_OK/GD32VW55X_Wifi_BLE_SDK/GD32VW55x_RELEASE_V1.0.2/MSDK/wpa_supplicant/src/tls\asn1.c **** 		    const u8 **params, size_t *params_len, const u8 **next)
 482:C:/Users/stapi/OneDrive/Desktop/GD32VW553/V1_MQTT_OK/GD32VW55X_Wifi_BLE_SDK/GD32VW55x_RELEASE_V1.0.2/MSDK/wpa_supplicant/src/tls\asn1.c **** {
 483:C:/Users/stapi/OneDrive/Desktop/GD32VW553/V1_MQTT_OK/GD32VW55X_Wifi_BLE_SDK/GD32VW55x_RELEASE_V1.0.2/MSDK/wpa_supplicant/src/tls\asn1.c **** 	const u8 *pos = buf, *end = buf + len;
 484:C:/Users/stapi/OneDrive/Desktop/GD32VW553/V1_MQTT_OK/GD32VW55X_Wifi_BLE_SDK/GD32VW55x_RELEASE_V1.0.2/MSDK/wpa_supplicant/src/tls\asn1.c **** 	struct asn1_hdr hdr;
 485:C:/Users/stapi/OneDrive/Desktop/GD32VW553/V1_MQTT_OK/GD32VW55X_Wifi_BLE_SDK/GD32VW55x_RELEASE_V1.0.2/MSDK/wpa_supplicant/src/tls\asn1.c **** 
 486:C:/Users/stapi/OneDrive/Desktop/GD32VW553/V1_MQTT_OK/GD32VW55X_Wifi_BLE_SDK/GD32VW55x_RELEASE_V1.0.2/MSDK/wpa_supplicant/src/tls\asn1.c **** 	/*
 487:C:/Users/stapi/OneDrive/Desktop/GD32VW553/V1_MQTT_OK/GD32VW55X_Wifi_BLE_SDK/GD32VW55x_RELEASE_V1.0.2/MSDK/wpa_supplicant/src/tls\asn1.c **** 	 * AlgorithmIdentifier ::= SEQUENCE {
 488:C:/Users/stapi/OneDrive/Desktop/GD32VW553/V1_MQTT_OK/GD32VW55X_Wifi_BLE_SDK/GD32VW55x_RELEASE_V1.0.2/MSDK/wpa_supplicant/src/tls\asn1.c **** 	 *     algorithm            OBJECT IDENTIFIER,
 489:C:/Users/stapi/OneDrive/Desktop/GD32VW553/V1_MQTT_OK/GD32VW55X_Wifi_BLE_SDK/GD32VW55x_RELEASE_V1.0.2/MSDK/wpa_supplicant/src/tls\asn1.c **** 	 *     parameters           ANY DEFINED BY algorithm OPTIONAL}
 490:C:/Users/stapi/OneDrive/Desktop/GD32VW553/V1_MQTT_OK/GD32VW55X_Wifi_BLE_SDK/GD32VW55x_RELEASE_V1.0.2/MSDK/wpa_supplicant/src/tls\asn1.c **** 	 */
 491:C:/Users/stapi/OneDrive/Desktop/GD32VW553/V1_MQTT_OK/GD32VW55X_Wifi_BLE_SDK/GD32VW55x_RELEASE_V1.0.2/MSDK/wpa_supplicant/src/tls\asn1.c **** 	if (asn1_get_sequence(pos, end - pos, &hdr, next) < 0 ||
 492:C:/Users/stapi/OneDrive/Desktop/GD32VW553/V1_MQTT_OK/GD32VW55X_Wifi_BLE_SDK/GD32VW55x_RELEASE_V1.0.2/MSDK/wpa_supplicant/src/tls\asn1.c **** 	    asn1_get_oid(hdr.payload, hdr.length, oid, &pos) < 0)
 493:C:/Users/stapi/OneDrive/Desktop/GD32VW553/V1_MQTT_OK/GD32VW55X_Wifi_BLE_SDK/GD32VW55x_RELEASE_V1.0.2/MSDK/wpa_supplicant/src/tls\asn1.c **** 		return -1;
 494:C:/Users/stapi/OneDrive/Desktop/GD32VW553/V1_MQTT_OK/GD32VW55X_Wifi_BLE_SDK/GD32VW55x_RELEASE_V1.0.2/MSDK/wpa_supplicant/src/tls\asn1.c **** 
 495:C:/Users/stapi/OneDrive/Desktop/GD32VW553/V1_MQTT_OK/GD32VW55X_Wifi_BLE_SDK/GD32VW55x_RELEASE_V1.0.2/MSDK/wpa_supplicant/src/tls\asn1.c **** 	if (params && params_len) {
 496:C:/Users/stapi/OneDrive/Desktop/GD32VW553/V1_MQTT_OK/GD32VW55X_Wifi_BLE_SDK/GD32VW55x_RELEASE_V1.0.2/MSDK/wpa_supplicant/src/tls\asn1.c **** 		*params = pos;
 497:C:/Users/stapi/OneDrive/Desktop/GD32VW553/V1_MQTT_OK/GD32VW55X_Wifi_BLE_SDK/GD32VW55x_RELEASE_V1.0.2/MSDK/wpa_supplicant/src/tls\asn1.c **** 		*params_len = hdr.payload + hdr.length - pos;
 498:C:/Users/stapi/OneDrive/Desktop/GD32VW553/V1_MQTT_OK/GD32VW55X_Wifi_BLE_SDK/GD32VW55x_RELEASE_V1.0.2/MSDK/wpa_supplicant/src/tls\asn1.c **** 	}
 499:C:/Users/stapi/OneDrive/Desktop/GD32VW553/V1_MQTT_OK/GD32VW55X_Wifi_BLE_SDK/GD32VW55x_RELEASE_V1.0.2/MSDK/wpa_supplicant/src/tls\asn1.c **** 
 500:C:/Users/stapi/OneDrive/Desktop/GD32VW553/V1_MQTT_OK/GD32VW55X_Wifi_BLE_SDK/GD32VW55x_RELEASE_V1.0.2/MSDK/wpa_supplicant/src/tls\asn1.c **** 	return 0;
 501:C:/Users/stapi/OneDrive/Desktop/GD32VW553/V1_MQTT_OK/GD32VW55X_Wifi_BLE_SDK/GD32VW55x_RELEASE_V1.0.2/MSDK/wpa_supplicant/src/tls\asn1.c **** }
 502:C:/Users/stapi/OneDrive/Desktop/GD32VW553/V1_MQTT_OK/GD32VW55X_Wifi_BLE_SDK/GD32VW55x_RELEASE_V1.0.2/MSDK/wpa_supplicant/src/tls\asn1.c **** 
 503:C:/Users/stapi/OneDrive/Desktop/GD32VW553/V1_MQTT_OK/GD32VW55X_Wifi_BLE_SDK/GD32VW55x_RELEASE_V1.0.2/MSDK/wpa_supplicant/src/tls\asn1.c **** 
 504:C:/Users/stapi/OneDrive/Desktop/GD32VW553/V1_MQTT_OK/GD32VW55X_Wifi_BLE_SDK/GD32VW55x_RELEASE_V1.0.2/MSDK/wpa_supplicant/src/tls\asn1.c **** void asn1_put_integer(struct wpabuf *buf, int val)
 505:C:/Users/stapi/OneDrive/Desktop/GD32VW553/V1_MQTT_OK/GD32VW55X_Wifi_BLE_SDK/GD32VW55x_RELEASE_V1.0.2/MSDK/wpa_supplicant/src/tls\asn1.c **** {
 506:C:/Users/stapi/OneDrive/Desktop/GD32VW553/V1_MQTT_OK/GD32VW55X_Wifi_BLE_SDK/GD32VW55x_RELEASE_V1.0.2/MSDK/wpa_supplicant/src/tls\asn1.c **** 	u8 bin[4];
 507:C:/Users/stapi/OneDrive/Desktop/GD32VW553/V1_MQTT_OK/GD32VW55X_Wifi_BLE_SDK/GD32VW55x_RELEASE_V1.0.2/MSDK/wpa_supplicant/src/tls\asn1.c **** 	int zeros;
 508:C:/Users/stapi/OneDrive/Desktop/GD32VW553/V1_MQTT_OK/GD32VW55X_Wifi_BLE_SDK/GD32VW55x_RELEASE_V1.0.2/MSDK/wpa_supplicant/src/tls\asn1.c **** 
 509:C:/Users/stapi/OneDrive/Desktop/GD32VW553/V1_MQTT_OK/GD32VW55X_Wifi_BLE_SDK/GD32VW55x_RELEASE_V1.0.2/MSDK/wpa_supplicant/src/tls\asn1.c **** 	WPA_PUT_BE32(bin, val);
 510:C:/Users/stapi/OneDrive/Desktop/GD32VW553/V1_MQTT_OK/GD32VW55X_Wifi_BLE_SDK/GD32VW55x_RELEASE_V1.0.2/MSDK/wpa_supplicant/src/tls\asn1.c **** 	zeros = 0;
 511:C:/Users/stapi/OneDrive/Desktop/GD32VW553/V1_MQTT_OK/GD32VW55X_Wifi_BLE_SDK/GD32VW55x_RELEASE_V1.0.2/MSDK/wpa_supplicant/src/tls\asn1.c **** 	while (zeros < 3 && bin[zeros] == 0)
 512:C:/Users/stapi/OneDrive/Desktop/GD32VW553/V1_MQTT_OK/GD32VW55X_Wifi_BLE_SDK/GD32VW55x_RELEASE_V1.0.2/MSDK/wpa_supplicant/src/tls\asn1.c **** 		zeros++;
 513:C:/Users/stapi/OneDrive/Desktop/GD32VW553/V1_MQTT_OK/GD32VW55X_Wifi_BLE_SDK/GD32VW55x_RELEASE_V1.0.2/MSDK/wpa_supplicant/src/tls\asn1.c **** 	wpabuf_put_u8(buf, ASN1_TAG_INTEGER);
 514:C:/Users/stapi/OneDrive/Desktop/GD32VW553/V1_MQTT_OK/GD32VW55X_Wifi_BLE_SDK/GD32VW55x_RELEASE_V1.0.2/MSDK/wpa_supplicant/src/tls\asn1.c **** 	wpabuf_put_u8(buf, 4 - zeros);
 515:C:/Users/stapi/OneDrive/Desktop/GD32VW553/V1_MQTT_OK/GD32VW55X_Wifi_BLE_SDK/GD32VW55x_RELEASE_V1.0.2/MSDK/wpa_supplicant/src/tls\asn1.c **** 	wpabuf_put_data(buf, &bin[zeros], 4 - zeros);
 516:C:/Users/stapi/OneDrive/Desktop/GD32VW553/V1_MQTT_OK/GD32VW55X_Wifi_BLE_SDK/GD32VW55x_RELEASE_V1.0.2/MSDK/wpa_supplicant/src/tls\asn1.c **** }
 517:C:/Users/stapi/OneDrive/Desktop/GD32VW553/V1_MQTT_OK/GD32VW55X_Wifi_BLE_SDK/GD32VW55x_RELEASE_V1.0.2/MSDK/wpa_supplicant/src/tls\asn1.c **** 
 518:C:/Users/stapi/OneDrive/Desktop/GD32VW553/V1_MQTT_OK/GD32VW55X_Wifi_BLE_SDK/GD32VW55x_RELEASE_V1.0.2/MSDK/wpa_supplicant/src/tls\asn1.c **** 
 519:C:/Users/stapi/OneDrive/Desktop/GD32VW553/V1_MQTT_OK/GD32VW55X_Wifi_BLE_SDK/GD32VW55x_RELEASE_V1.0.2/MSDK/wpa_supplicant/src/tls\asn1.c **** static void asn1_put_len(struct wpabuf *buf, size_t len)
 520:C:/Users/stapi/OneDrive/Desktop/GD32VW553/V1_MQTT_OK/GD32VW55X_Wifi_BLE_SDK/GD32VW55x_RELEASE_V1.0.2/MSDK/wpa_supplicant/src/tls\asn1.c **** {
 180              		.loc 1 520 1 is_stmt 1
 181              		.cfi_startproc
 182              	.LVL21:
 183 0000 17030000 		call	t0,__riscv_save_5
 183      E7020300 
 184              		.cfi_offset 20, -24
 185              		.cfi_offset 19, -20
 186              		.cfi_offset 18, -16
 187              		.cfi_offset 9, -12
 188              		.cfi_offset 8, -8
 189              		.cfi_offset 1, -4
 190              		.cfi_def_cfa_offset 32
 521:C:/Users/stapi/OneDrive/Desktop/GD32VW553/V1_MQTT_OK/GD32VW55X_Wifi_BLE_SDK/GD32VW55x_RELEASE_V1.0.2/MSDK/wpa_supplicant/src/tls\asn1.c **** 	if (len <= 0x7f) {
 191              		.loc 1 521 2
 192              		.loc 1 521 5 is_stmt 0
 193 0008 9307F007 		li	a5,127
 522:C:/Users/stapi/OneDrive/Desktop/GD32VW553/V1_MQTT_OK/GD32VW55X_Wifi_BLE_SDK/GD32VW55x_RELEASE_V1.0.2/MSDK/wpa_supplicant/src/tls\asn1.c **** 		wpabuf_put_u8(buf, len);
 194              		.loc 1 522 3
 195 000c 13F9F50F 		andi	s2,a1,0xff
 521:C:/Users/stapi/OneDrive/Desktop/GD32VW553/V1_MQTT_OK/GD32VW55X_Wifi_BLE_SDK/GD32VW55x_RELEASE_V1.0.2/MSDK/wpa_supplicant/src/tls\asn1.c **** 	if (len <= 0x7f) {
 196              		.loc 1 521 5
 197 0010 63EBB700 		bgtu	a1,a5,.L22
 198              		.loc 1 522 3 is_stmt 1
 199 0014 CA85     		mv	a1,s2
 200              	.LVL22:
 201              	.L28:
 523:C:/Users/stapi/OneDrive/Desktop/GD32VW553/V1_MQTT_OK/GD32VW55X_Wifi_BLE_SDK/GD32VW55x_RELEASE_V1.0.2/MSDK/wpa_supplicant/src/tls\asn1.c **** 	} else if (len <= 0xff) {
 524:C:/Users/stapi/OneDrive/Desktop/GD32VW553/V1_MQTT_OK/GD32VW55X_Wifi_BLE_SDK/GD32VW55x_RELEASE_V1.0.2/MSDK/wpa_supplicant/src/tls\asn1.c **** 		wpabuf_put_u8(buf, 0x80 | 1);
 525:C:/Users/stapi/OneDrive/Desktop/GD32VW553/V1_MQTT_OK/GD32VW55X_Wifi_BLE_SDK/GD32VW55x_RELEASE_V1.0.2/MSDK/wpa_supplicant/src/tls\asn1.c **** 		wpabuf_put_u8(buf, len);
 202              		.loc 1 525 3 is_stmt 0
 203 0016 97000000 		call	wpabuf_put_u8
 203      E7800000 
 204              	.LVL23:
 205              	.L21:
 526:C:/Users/stapi/OneDrive/Desktop/GD32VW553/V1_MQTT_OK/GD32VW55X_Wifi_BLE_SDK/GD32VW55x_RELEASE_V1.0.2/MSDK/wpa_supplicant/src/tls\asn1.c **** 	} else if (len <= 0xffff) {
 527:C:/Users/stapi/OneDrive/Desktop/GD32VW553/V1_MQTT_OK/GD32VW55X_Wifi_BLE_SDK/GD32VW55x_RELEASE_V1.0.2/MSDK/wpa_supplicant/src/tls\asn1.c **** 		wpabuf_put_u8(buf, 0x80 | 2);
 528:C:/Users/stapi/OneDrive/Desktop/GD32VW553/V1_MQTT_OK/GD32VW55X_Wifi_BLE_SDK/GD32VW55x_RELEASE_V1.0.2/MSDK/wpa_supplicant/src/tls\asn1.c **** 		wpabuf_put_be16(buf, len);
 529:C:/Users/stapi/OneDrive/Desktop/GD32VW553/V1_MQTT_OK/GD32VW55X_Wifi_BLE_SDK/GD32VW55x_RELEASE_V1.0.2/MSDK/wpa_supplicant/src/tls\asn1.c **** 	} else if (len <= 0xffffff) {
 530:C:/Users/stapi/OneDrive/Desktop/GD32VW553/V1_MQTT_OK/GD32VW55X_Wifi_BLE_SDK/GD32VW55x_RELEASE_V1.0.2/MSDK/wpa_supplicant/src/tls\asn1.c **** 		wpabuf_put_u8(buf, 0x80 | 3);
 531:C:/Users/stapi/OneDrive/Desktop/GD32VW553/V1_MQTT_OK/GD32VW55X_Wifi_BLE_SDK/GD32VW55x_RELEASE_V1.0.2/MSDK/wpa_supplicant/src/tls\asn1.c **** 		wpabuf_put_be24(buf, len);
 532:C:/Users/stapi/OneDrive/Desktop/GD32VW553/V1_MQTT_OK/GD32VW55X_Wifi_BLE_SDK/GD32VW55x_RELEASE_V1.0.2/MSDK/wpa_supplicant/src/tls\asn1.c **** 	} else {
 533:C:/Users/stapi/OneDrive/Desktop/GD32VW553/V1_MQTT_OK/GD32VW55X_Wifi_BLE_SDK/GD32VW55x_RELEASE_V1.0.2/MSDK/wpa_supplicant/src/tls\asn1.c **** 		wpabuf_put_u8(buf, 0x80 | 4);
 534:C:/Users/stapi/OneDrive/Desktop/GD32VW553/V1_MQTT_OK/GD32VW55X_Wifi_BLE_SDK/GD32VW55x_RELEASE_V1.0.2/MSDK/wpa_supplicant/src/tls\asn1.c **** 		wpabuf_put_be32(buf, len);
 535:C:/Users/stapi/OneDrive/Desktop/GD32VW553/V1_MQTT_OK/GD32VW55X_Wifi_BLE_SDK/GD32VW55x_RELEASE_V1.0.2/MSDK/wpa_supplicant/src/tls\asn1.c **** 	}
 536:C:/Users/stapi/OneDrive/Desktop/GD32VW553/V1_MQTT_OK/GD32VW55X_Wifi_BLE_SDK/GD32VW55x_RELEASE_V1.0.2/MSDK/wpa_supplicant/src/tls\asn1.c **** }
 206              		.loc 1 536 1
 207 001e 17030000 		tail	__riscv_restore_5
 207      67000300 
 208              		.cfi_remember_state
 209              		.cfi_restore 20
 210              		.cfi_restore 19
 211              		.cfi_restore 18
 212              		.cfi_restore 9
 213              		.cfi_restore 8
 214              		.cfi_restore 1
 215              		.cfi_def_cfa_offset 0
 216              	.LVL24:
 217              	.L22:
 218              		.cfi_restore_state
 523:C:/Users/stapi/OneDrive/Desktop/GD32VW553/V1_MQTT_OK/GD32VW55X_Wifi_BLE_SDK/GD32VW55x_RELEASE_V1.0.2/MSDK/wpa_supplicant/src/tls\asn1.c **** 	} else if (len <= 0xff) {
 219              		.loc 1 523 12
 220 0026 9307F00F 		li	a5,255
 221 002a AA84     		mv	s1,a0
 222 002c 2E84     		mv	s0,a1
 523:C:/Users/stapi/OneDrive/Desktop/GD32VW553/V1_MQTT_OK/GD32VW55X_Wifi_BLE_SDK/GD32VW55x_RELEASE_V1.0.2/MSDK/wpa_supplicant/src/tls\asn1.c **** 	} else if (len <= 0xff) {
 223              		.loc 1 523 9 is_stmt 1
 523:C:/Users/stapi/OneDrive/Desktop/GD32VW553/V1_MQTT_OK/GD32VW55X_Wifi_BLE_SDK/GD32VW55x_RELEASE_V1.0.2/MSDK/wpa_supplicant/src/tls\asn1.c **** 	} else if (len <= 0xff) {
 224              		.loc 1 523 12 is_stmt 0
 225 002e 63EBB700 		bgtu	a1,a5,.L24
 226              	.LVL25:
 524:C:/Users/stapi/OneDrive/Desktop/GD32VW553/V1_MQTT_OK/GD32VW55X_Wifi_BLE_SDK/GD32VW55x_RELEASE_V1.0.2/MSDK/wpa_supplicant/src/tls\asn1.c **** 		wpabuf_put_u8(buf, len);
 227              		.loc 1 524 3 is_stmt 1
 228 0032 93051008 		li	a1,129
 229 0036 97000000 		call	wpabuf_put_u8
 229      E7800000 
 230              	.LVL26:
 525:C:/Users/stapi/OneDrive/Desktop/GD32VW553/V1_MQTT_OK/GD32VW55X_Wifi_BLE_SDK/GD32VW55x_RELEASE_V1.0.2/MSDK/wpa_supplicant/src/tls\asn1.c **** 	} else if (len <= 0xffff) {
 231              		.loc 1 525 3
 232 003e CA85     		mv	a1,s2
 233 0040 2685     		mv	a0,s1
 234 0042 D1BF     		j	.L28
 235              	.L24:
 236              	.LVL27:
 237              	.LBB51:
 238              	.LBB52:
 526:C:/Users/stapi/OneDrive/Desktop/GD32VW553/V1_MQTT_OK/GD32VW55X_Wifi_BLE_SDK/GD32VW55x_RELEASE_V1.0.2/MSDK/wpa_supplicant/src/tls\asn1.c **** 	} else if (len <= 0xffff) {
 239              		.loc 1 526 9
 526:C:/Users/stapi/OneDrive/Desktop/GD32VW553/V1_MQTT_OK/GD32VW55X_Wifi_BLE_SDK/GD32VW55x_RELEASE_V1.0.2/MSDK/wpa_supplicant/src/tls\asn1.c **** 	} else if (len <= 0xffff) {
 240              		.loc 1 526 12 is_stmt 0
 241 0044 C167     		li	a5,65536
 242 0046 63F6F502 		bgeu	a1,a5,.L25
 527:C:/Users/stapi/OneDrive/Desktop/GD32VW553/V1_MQTT_OK/GD32VW55X_Wifi_BLE_SDK/GD32VW55x_RELEASE_V1.0.2/MSDK/wpa_supplicant/src/tls\asn1.c **** 		wpabuf_put_be16(buf, len);
 243              		.loc 1 527 3 is_stmt 1
 244 004a 93052008 		li	a1,130
 245 004e 97000000 		call	wpabuf_put_u8
 245      E7800000 
 246              	.LVL28:
 528:C:/Users/stapi/OneDrive/Desktop/GD32VW553/V1_MQTT_OK/GD32VW55X_Wifi_BLE_SDK/GD32VW55x_RELEASE_V1.0.2/MSDK/wpa_supplicant/src/tls\asn1.c **** 	} else if (len <= 0xffffff) {
 247              		.loc 1 528 3
 248              	.LBB53:
 249              	.LBB54:
 144:..\..\..\..\wpa_supplicant\src\utils/wpabuf.h **** 	WPA_PUT_BE16(pos, data);
 250              		.loc 2 144 2
 144:..\..\..\..\wpa_supplicant\src\utils/wpabuf.h **** 	WPA_PUT_BE16(pos, data);
 251              		.loc 2 144 19 is_stmt 0
 252 0056 8945     		li	a1,2
 253 0058 2685     		mv	a0,s1
 254 005a 97000000 		call	wpabuf_put
 254      E7800000 
 255              	.LVL29:
 145:..\..\..\..\wpa_supplicant\src\utils/wpabuf.h **** }
 256              		.loc 2 145 2 is_stmt 1
 257              	.LBB55:
 258              	.LBB56:
 259              		.file 3 "..\\..\\..\\..\\wpa_supplicant\\src\\utils/common.h"
   1:..\..\..\..\wpa_supplicant\src\utils/common.h **** /*
   2:..\..\..\..\wpa_supplicant\src\utils/common.h ****  * wpa_supplicant/hostapd / common helper functions, etc.
   3:..\..\..\..\wpa_supplicant\src\utils/common.h ****  * Copyright (c) 2002-2007, Jouni Malinen <j@w1.fi>
   4:..\..\..\..\wpa_supplicant\src\utils/common.h ****  *
   5:..\..\..\..\wpa_supplicant\src\utils/common.h ****  * This software may be distributed under the terms of the BSD license.
   6:..\..\..\..\wpa_supplicant\src\utils/common.h ****  * See README for more details.
   7:..\..\..\..\wpa_supplicant\src\utils/common.h ****  */
   8:..\..\..\..\wpa_supplicant\src\utils/common.h **** 
   9:..\..\..\..\wpa_supplicant\src\utils/common.h **** #ifndef COMMON_H
  10:..\..\..\..\wpa_supplicant\src\utils/common.h **** #define COMMON_H
  11:..\..\..\..\wpa_supplicant\src\utils/common.h **** 
  12:..\..\..\..\wpa_supplicant\src\utils/common.h **** #include "os.h"
  13:..\..\..\..\wpa_supplicant\src\utils/common.h **** 
  14:..\..\..\..\wpa_supplicant\src\utils/common.h **** #if defined(__linux__) || defined(__GLIBC__)
  15:..\..\..\..\wpa_supplicant\src\utils/common.h **** #include <endian.h>
  16:..\..\..\..\wpa_supplicant\src\utils/common.h **** #include <byteswap.h>
  17:..\..\..\..\wpa_supplicant\src\utils/common.h **** #endif /* __linux__ */
  18:..\..\..\..\wpa_supplicant\src\utils/common.h **** 
  19:..\..\..\..\wpa_supplicant\src\utils/common.h **** #if defined(__FreeBSD__) || defined(__NetBSD__) || defined(__DragonFly__) || \
  20:..\..\..\..\wpa_supplicant\src\utils/common.h ****     defined(__OpenBSD__)
  21:..\..\..\..\wpa_supplicant\src\utils/common.h **** #include <sys/types.h>
  22:..\..\..\..\wpa_supplicant\src\utils/common.h **** #include <sys/endian.h>
  23:..\..\..\..\wpa_supplicant\src\utils/common.h **** #define __BYTE_ORDER	_BYTE_ORDER
  24:..\..\..\..\wpa_supplicant\src\utils/common.h **** #define	__LITTLE_ENDIAN	_LITTLE_ENDIAN
  25:..\..\..\..\wpa_supplicant\src\utils/common.h **** #define	__BIG_ENDIAN	_BIG_ENDIAN
  26:..\..\..\..\wpa_supplicant\src\utils/common.h **** #ifdef __OpenBSD__
  27:..\..\..\..\wpa_supplicant\src\utils/common.h **** #define bswap_16 swap16
  28:..\..\..\..\wpa_supplicant\src\utils/common.h **** #define bswap_32 swap32
  29:..\..\..\..\wpa_supplicant\src\utils/common.h **** #define bswap_64 swap64
  30:..\..\..\..\wpa_supplicant\src\utils/common.h **** #else /* __OpenBSD__ */
  31:..\..\..\..\wpa_supplicant\src\utils/common.h **** #define bswap_16 bswap16
  32:..\..\..\..\wpa_supplicant\src\utils/common.h **** #define bswap_32 bswap32
  33:..\..\..\..\wpa_supplicant\src\utils/common.h **** #define bswap_64 bswap64
  34:..\..\..\..\wpa_supplicant\src\utils/common.h **** #endif /* __OpenBSD__ */
  35:..\..\..\..\wpa_supplicant\src\utils/common.h **** #endif /* defined(__FreeBSD__) || defined(__NetBSD__) ||
  36:..\..\..\..\wpa_supplicant\src\utils/common.h **** 	* defined(__DragonFly__) || defined(__OpenBSD__) */
  37:..\..\..\..\wpa_supplicant\src\utils/common.h **** 
  38:..\..\..\..\wpa_supplicant\src\utils/common.h **** #ifdef __APPLE__
  39:..\..\..\..\wpa_supplicant\src\utils/common.h **** #include <sys/types.h>
  40:..\..\..\..\wpa_supplicant\src\utils/common.h **** #include <machine/endian.h>
  41:..\..\..\..\wpa_supplicant\src\utils/common.h **** #define __BYTE_ORDER	_BYTE_ORDER
  42:..\..\..\..\wpa_supplicant\src\utils/common.h **** #define __LITTLE_ENDIAN	_LITTLE_ENDIAN
  43:..\..\..\..\wpa_supplicant\src\utils/common.h **** #define __BIG_ENDIAN	_BIG_ENDIAN
  44:..\..\..\..\wpa_supplicant\src\utils/common.h **** static inline unsigned short bswap_16(unsigned short v)
  45:..\..\..\..\wpa_supplicant\src\utils/common.h **** {
  46:..\..\..\..\wpa_supplicant\src\utils/common.h **** 	return ((v & 0xff) << 8) | (v >> 8);
  47:..\..\..\..\wpa_supplicant\src\utils/common.h **** }
  48:..\..\..\..\wpa_supplicant\src\utils/common.h **** 
  49:..\..\..\..\wpa_supplicant\src\utils/common.h **** static inline unsigned int bswap_32(unsigned int v)
  50:..\..\..\..\wpa_supplicant\src\utils/common.h **** {
  51:..\..\..\..\wpa_supplicant\src\utils/common.h **** 	return ((v & 0xff) << 24) | ((v & 0xff00) << 8) |
  52:..\..\..\..\wpa_supplicant\src\utils/common.h **** 		((v & 0xff0000) >> 8) | (v >> 24);
  53:..\..\..\..\wpa_supplicant\src\utils/common.h **** }
  54:..\..\..\..\wpa_supplicant\src\utils/common.h **** #endif /* __APPLE__ */
  55:..\..\..\..\wpa_supplicant\src\utils/common.h **** 
  56:..\..\..\..\wpa_supplicant\src\utils/common.h **** #ifdef CONFIG_GDWIFI
  57:..\..\..\..\wpa_supplicant\src\utils/common.h **** // #include <sys/types.h>
  58:..\..\..\..\wpa_supplicant\src\utils/common.h **** // #include <machine/endian.h>
  59:..\..\..\..\wpa_supplicant\src\utils/common.h **** #define __BYTE_ORDER	BYTE_ORDER
  60:..\..\..\..\wpa_supplicant\src\utils/common.h **** #define __LITTLE_ENDIAN	LITTLE_ENDIAN
  61:..\..\..\..\wpa_supplicant\src\utils/common.h **** #define __BIG_ENDIAN	BIG_ENDIAN
  62:..\..\..\..\wpa_supplicant\src\utils/common.h **** #define ETHER_ADDR_LEN	6
  63:..\..\..\..\wpa_supplicant\src\utils/common.h **** #define ETH_P_802_3	0x0001		/* Dummy type for 802.3 frames  */
  64:..\..\..\..\wpa_supplicant\src\utils/common.h **** 
  65:..\..\..\..\wpa_supplicant\src\utils/common.h **** static inline unsigned short bswap_16(unsigned short v)
  66:..\..\..\..\wpa_supplicant\src\utils/common.h **** {
  67:..\..\..\..\wpa_supplicant\src\utils/common.h **** 	return ((v & 0xff) << 8) | (v >> 8);
  68:..\..\..\..\wpa_supplicant\src\utils/common.h **** }
  69:..\..\..\..\wpa_supplicant\src\utils/common.h **** 
  70:..\..\..\..\wpa_supplicant\src\utils/common.h **** static inline unsigned int bswap_32(unsigned int v)
  71:..\..\..\..\wpa_supplicant\src\utils/common.h **** {
  72:..\..\..\..\wpa_supplicant\src\utils/common.h **** 	return ((v & 0xff) << 24) | ((v & 0xff00) << 8) |
  73:..\..\..\..\wpa_supplicant\src\utils/common.h **** 		((v & 0xff0000) >> 8) | (v >> 24);
  74:..\..\..\..\wpa_supplicant\src\utils/common.h **** }
  75:..\..\..\..\wpa_supplicant\src\utils/common.h **** 
  76:..\..\..\..\wpa_supplicant\src\utils/common.h **** struct ether_header
  77:..\..\..\..\wpa_supplicant\src\utils/common.h **** {
  78:..\..\..\..\wpa_supplicant\src\utils/common.h **** 	uint8_t  ether_dhost[ETHER_ADDR_LEN];
  79:..\..\..\..\wpa_supplicant\src\utils/common.h **** 	uint8_t  ether_shost[ETHER_ADDR_LEN];
  80:..\..\..\..\wpa_supplicant\src\utils/common.h **** 	uint16_t ether_type;
  81:..\..\..\..\wpa_supplicant\src\utils/common.h **** } __PACKED;
  82:..\..\..\..\wpa_supplicant\src\utils/common.h **** #endif /* CONFIG_GDWIFI */
  83:..\..\..\..\wpa_supplicant\src\utils/common.h **** #ifdef __rtems__
  84:..\..\..\..\wpa_supplicant\src\utils/common.h **** #include <rtems/endian.h>
  85:..\..\..\..\wpa_supplicant\src\utils/common.h **** #define __BYTE_ORDER BYTE_ORDER
  86:..\..\..\..\wpa_supplicant\src\utils/common.h **** #define __LITTLE_ENDIAN LITTLE_ENDIAN
  87:..\..\..\..\wpa_supplicant\src\utils/common.h **** #define __BIG_ENDIAN BIG_ENDIAN
  88:..\..\..\..\wpa_supplicant\src\utils/common.h **** #define bswap_16 CPU_swap_u16
  89:..\..\..\..\wpa_supplicant\src\utils/common.h **** #define bswap_32 CPU_swap_u32
  90:..\..\..\..\wpa_supplicant\src\utils/common.h **** #endif /* __rtems__ */
  91:..\..\..\..\wpa_supplicant\src\utils/common.h **** 
  92:..\..\..\..\wpa_supplicant\src\utils/common.h **** #ifdef CONFIG_NATIVE_WINDOWS
  93:..\..\..\..\wpa_supplicant\src\utils/common.h **** #include <winsock.h>
  94:..\..\..\..\wpa_supplicant\src\utils/common.h **** 
  95:..\..\..\..\wpa_supplicant\src\utils/common.h **** typedef int socklen_t;
  96:..\..\..\..\wpa_supplicant\src\utils/common.h **** 
  97:..\..\..\..\wpa_supplicant\src\utils/common.h **** #ifndef MSG_DONTWAIT
  98:..\..\..\..\wpa_supplicant\src\utils/common.h **** #define MSG_DONTWAIT 0 /* not supported */
  99:..\..\..\..\wpa_supplicant\src\utils/common.h **** #endif
 100:..\..\..\..\wpa_supplicant\src\utils/common.h **** 
 101:..\..\..\..\wpa_supplicant\src\utils/common.h **** #endif /* CONFIG_NATIVE_WINDOWS */
 102:..\..\..\..\wpa_supplicant\src\utils/common.h **** 
 103:..\..\..\..\wpa_supplicant\src\utils/common.h **** #ifdef _MSC_VER
 104:..\..\..\..\wpa_supplicant\src\utils/common.h **** #define inline __inline
 105:..\..\..\..\wpa_supplicant\src\utils/common.h **** 
 106:..\..\..\..\wpa_supplicant\src\utils/common.h **** #undef vsnprintf
 107:..\..\..\..\wpa_supplicant\src\utils/common.h **** #define vsnprintf _vsnprintf
 108:..\..\..\..\wpa_supplicant\src\utils/common.h **** #undef close
 109:..\..\..\..\wpa_supplicant\src\utils/common.h **** #define close closesocket
 110:..\..\..\..\wpa_supplicant\src\utils/common.h **** #endif /* _MSC_VER */
 111:..\..\..\..\wpa_supplicant\src\utils/common.h **** 
 112:..\..\..\..\wpa_supplicant\src\utils/common.h **** 
 113:..\..\..\..\wpa_supplicant\src\utils/common.h **** /* Define platform specific integer types */
 114:..\..\..\..\wpa_supplicant\src\utils/common.h **** 
 115:..\..\..\..\wpa_supplicant\src\utils/common.h **** #ifdef _MSC_VER
 116:..\..\..\..\wpa_supplicant\src\utils/common.h **** typedef UINT64 u64;
 117:..\..\..\..\wpa_supplicant\src\utils/common.h **** typedef UINT32 u32;
 118:..\..\..\..\wpa_supplicant\src\utils/common.h **** typedef UINT16 u16;
 119:..\..\..\..\wpa_supplicant\src\utils/common.h **** typedef UINT8 u8;
 120:..\..\..\..\wpa_supplicant\src\utils/common.h **** typedef INT64 s64;
 121:..\..\..\..\wpa_supplicant\src\utils/common.h **** typedef INT32 s32;
 122:..\..\..\..\wpa_supplicant\src\utils/common.h **** typedef INT16 s16;
 123:..\..\..\..\wpa_supplicant\src\utils/common.h **** typedef INT8 s8;
 124:..\..\..\..\wpa_supplicant\src\utils/common.h **** #define WPA_TYPES_DEFINED
 125:..\..\..\..\wpa_supplicant\src\utils/common.h **** #endif /* _MSC_VER */
 126:..\..\..\..\wpa_supplicant\src\utils/common.h **** 
 127:..\..\..\..\wpa_supplicant\src\utils/common.h **** #ifdef __vxworks
 128:..\..\..\..\wpa_supplicant\src\utils/common.h **** typedef unsigned long long u64;
 129:..\..\..\..\wpa_supplicant\src\utils/common.h **** typedef UINT32 u32;
 130:..\..\..\..\wpa_supplicant\src\utils/common.h **** typedef UINT16 u16;
 131:..\..\..\..\wpa_supplicant\src\utils/common.h **** typedef UINT8 u8;
 132:..\..\..\..\wpa_supplicant\src\utils/common.h **** typedef long long s64;
 133:..\..\..\..\wpa_supplicant\src\utils/common.h **** typedef INT32 s32;
 134:..\..\..\..\wpa_supplicant\src\utils/common.h **** typedef INT16 s16;
 135:..\..\..\..\wpa_supplicant\src\utils/common.h **** typedef INT8 s8;
 136:..\..\..\..\wpa_supplicant\src\utils/common.h **** #define WPA_TYPES_DEFINED
 137:..\..\..\..\wpa_supplicant\src\utils/common.h **** #endif /* __vxworks */
 138:..\..\..\..\wpa_supplicant\src\utils/common.h **** 
 139:..\..\..\..\wpa_supplicant\src\utils/common.h **** #ifndef WPA_TYPES_DEFINED
 140:..\..\..\..\wpa_supplicant\src\utils/common.h **** #ifdef CONFIG_USE_INTTYPES_H
 141:..\..\..\..\wpa_supplicant\src\utils/common.h **** #include <inttypes.h>
 142:..\..\..\..\wpa_supplicant\src\utils/common.h **** #else
 143:..\..\..\..\wpa_supplicant\src\utils/common.h **** #include <stdint.h>
 144:..\..\..\..\wpa_supplicant\src\utils/common.h **** #endif
 145:..\..\..\..\wpa_supplicant\src\utils/common.h **** typedef uint64_t u64;
 146:..\..\..\..\wpa_supplicant\src\utils/common.h **** typedef uint32_t u32;
 147:..\..\..\..\wpa_supplicant\src\utils/common.h **** typedef uint16_t u16;
 148:..\..\..\..\wpa_supplicant\src\utils/common.h **** typedef uint8_t u8;
 149:..\..\..\..\wpa_supplicant\src\utils/common.h **** typedef int64_t s64;
 150:..\..\..\..\wpa_supplicant\src\utils/common.h **** typedef int32_t s32;
 151:..\..\..\..\wpa_supplicant\src\utils/common.h **** typedef int16_t s16;
 152:..\..\..\..\wpa_supplicant\src\utils/common.h **** typedef int8_t s8;
 153:..\..\..\..\wpa_supplicant\src\utils/common.h **** #define WPA_TYPES_DEFINED
 154:..\..\..\..\wpa_supplicant\src\utils/common.h **** #endif /* !WPA_TYPES_DEFINED */
 155:..\..\..\..\wpa_supplicant\src\utils/common.h **** 
 156:..\..\..\..\wpa_supplicant\src\utils/common.h **** 
 157:..\..\..\..\wpa_supplicant\src\utils/common.h **** /* Define platform specific byte swapping macros */
 158:..\..\..\..\wpa_supplicant\src\utils/common.h **** 
 159:..\..\..\..\wpa_supplicant\src\utils/common.h **** #if defined(__CYGWIN__) || defined(CONFIG_NATIVE_WINDOWS)
 160:..\..\..\..\wpa_supplicant\src\utils/common.h **** 
 161:..\..\..\..\wpa_supplicant\src\utils/common.h **** static inline unsigned short wpa_swap_16(unsigned short v)
 162:..\..\..\..\wpa_supplicant\src\utils/common.h **** {
 163:..\..\..\..\wpa_supplicant\src\utils/common.h **** 	return ((v & 0xff) << 8) | (v >> 8);
 164:..\..\..\..\wpa_supplicant\src\utils/common.h **** }
 165:..\..\..\..\wpa_supplicant\src\utils/common.h **** 
 166:..\..\..\..\wpa_supplicant\src\utils/common.h **** static inline unsigned int wpa_swap_32(unsigned int v)
 167:..\..\..\..\wpa_supplicant\src\utils/common.h **** {
 168:..\..\..\..\wpa_supplicant\src\utils/common.h **** 	return ((v & 0xff) << 24) | ((v & 0xff00) << 8) |
 169:..\..\..\..\wpa_supplicant\src\utils/common.h **** 		((v & 0xff0000) >> 8) | (v >> 24);
 170:..\..\..\..\wpa_supplicant\src\utils/common.h **** }
 171:..\..\..\..\wpa_supplicant\src\utils/common.h **** 
 172:..\..\..\..\wpa_supplicant\src\utils/common.h **** #define le_to_host16(n) (n)
 173:..\..\..\..\wpa_supplicant\src\utils/common.h **** #define host_to_le16(n) (n)
 174:..\..\..\..\wpa_supplicant\src\utils/common.h **** #define be_to_host16(n) wpa_swap_16(n)
 175:..\..\..\..\wpa_supplicant\src\utils/common.h **** #define host_to_be16(n) wpa_swap_16(n)
 176:..\..\..\..\wpa_supplicant\src\utils/common.h **** #define le_to_host32(n) (n)
 177:..\..\..\..\wpa_supplicant\src\utils/common.h **** #define host_to_le32(n) (n)
 178:..\..\..\..\wpa_supplicant\src\utils/common.h **** #define be_to_host32(n) wpa_swap_32(n)
 179:..\..\..\..\wpa_supplicant\src\utils/common.h **** #define host_to_be32(n) wpa_swap_32(n)
 180:..\..\..\..\wpa_supplicant\src\utils/common.h **** #define host_to_le64(n) (n)
 181:..\..\..\..\wpa_supplicant\src\utils/common.h **** 
 182:..\..\..\..\wpa_supplicant\src\utils/common.h **** #define WPA_BYTE_SWAP_DEFINED
 183:..\..\..\..\wpa_supplicant\src\utils/common.h **** 
 184:..\..\..\..\wpa_supplicant\src\utils/common.h **** #endif /* __CYGWIN__ || CONFIG_NATIVE_WINDOWS */
 185:..\..\..\..\wpa_supplicant\src\utils/common.h **** 
 186:..\..\..\..\wpa_supplicant\src\utils/common.h **** 
 187:..\..\..\..\wpa_supplicant\src\utils/common.h **** #ifndef WPA_BYTE_SWAP_DEFINED
 188:..\..\..\..\wpa_supplicant\src\utils/common.h **** 
 189:..\..\..\..\wpa_supplicant\src\utils/common.h **** #ifndef __BYTE_ORDER
 190:..\..\..\..\wpa_supplicant\src\utils/common.h **** #ifndef __LITTLE_ENDIAN
 191:..\..\..\..\wpa_supplicant\src\utils/common.h **** #ifndef __BIG_ENDIAN
 192:..\..\..\..\wpa_supplicant\src\utils/common.h **** #define __LITTLE_ENDIAN 1234
 193:..\..\..\..\wpa_supplicant\src\utils/common.h **** #define __BIG_ENDIAN 4321
 194:..\..\..\..\wpa_supplicant\src\utils/common.h **** #if defined(sparc)
 195:..\..\..\..\wpa_supplicant\src\utils/common.h **** #define __BYTE_ORDER __BIG_ENDIAN
 196:..\..\..\..\wpa_supplicant\src\utils/common.h **** #endif
 197:..\..\..\..\wpa_supplicant\src\utils/common.h **** #endif /* __BIG_ENDIAN */
 198:..\..\..\..\wpa_supplicant\src\utils/common.h **** #endif /* __LITTLE_ENDIAN */
 199:..\..\..\..\wpa_supplicant\src\utils/common.h **** #endif /* __BYTE_ORDER */
 200:..\..\..\..\wpa_supplicant\src\utils/common.h **** 
 201:..\..\..\..\wpa_supplicant\src\utils/common.h **** #if __BYTE_ORDER == __LITTLE_ENDIAN
 202:..\..\..\..\wpa_supplicant\src\utils/common.h **** #define le_to_host16(n) ((__force u16) (le16) (n))
 203:..\..\..\..\wpa_supplicant\src\utils/common.h **** #define host_to_le16(n) ((__force le16) (u16) (n))
 204:..\..\..\..\wpa_supplicant\src\utils/common.h **** #define be_to_host16(n) bswap_16((__force u16) (be16) (n))
 205:..\..\..\..\wpa_supplicant\src\utils/common.h **** #define host_to_be16(n) ((__force be16) bswap_16((n)))
 206:..\..\..\..\wpa_supplicant\src\utils/common.h **** #define le_to_host32(n) ((__force u32) (le32) (n))
 207:..\..\..\..\wpa_supplicant\src\utils/common.h **** #define host_to_le32(n) ((__force le32) (u32) (n))
 208:..\..\..\..\wpa_supplicant\src\utils/common.h **** #define be_to_host32(n) bswap_32((__force u32) (be32) (n))
 209:..\..\..\..\wpa_supplicant\src\utils/common.h **** #define host_to_be32(n) ((__force be32) bswap_32((n)))
 210:..\..\..\..\wpa_supplicant\src\utils/common.h **** #define le_to_host64(n) ((__force u64) (le64) (n))
 211:..\..\..\..\wpa_supplicant\src\utils/common.h **** #define host_to_le64(n) ((__force le64) (u64) (n))
 212:..\..\..\..\wpa_supplicant\src\utils/common.h **** #define be_to_host64(n) bswap_64((__force u64) (be64) (n))
 213:..\..\..\..\wpa_supplicant\src\utils/common.h **** #define host_to_be64(n) ((__force be64) bswap_64((n)))
 214:..\..\..\..\wpa_supplicant\src\utils/common.h **** #elif __BYTE_ORDER == __BIG_ENDIAN
 215:..\..\..\..\wpa_supplicant\src\utils/common.h **** #define le_to_host16(n) bswap_16(n)
 216:..\..\..\..\wpa_supplicant\src\utils/common.h **** #define host_to_le16(n) bswap_16(n)
 217:..\..\..\..\wpa_supplicant\src\utils/common.h **** #define be_to_host16(n) (n)
 218:..\..\..\..\wpa_supplicant\src\utils/common.h **** #define host_to_be16(n) (n)
 219:..\..\..\..\wpa_supplicant\src\utils/common.h **** #define le_to_host32(n) bswap_32(n)
 220:..\..\..\..\wpa_supplicant\src\utils/common.h **** #define host_to_le32(n) bswap_32(n)
 221:..\..\..\..\wpa_supplicant\src\utils/common.h **** #define be_to_host32(n) (n)
 222:..\..\..\..\wpa_supplicant\src\utils/common.h **** #define host_to_be32(n) (n)
 223:..\..\..\..\wpa_supplicant\src\utils/common.h **** #define le_to_host64(n) bswap_64(n)
 224:..\..\..\..\wpa_supplicant\src\utils/common.h **** #define host_to_le64(n) bswap_64(n)
 225:..\..\..\..\wpa_supplicant\src\utils/common.h **** #define be_to_host64(n) (n)
 226:..\..\..\..\wpa_supplicant\src\utils/common.h **** #define host_to_be64(n) (n)
 227:..\..\..\..\wpa_supplicant\src\utils/common.h **** #ifndef WORDS_BIGENDIAN
 228:..\..\..\..\wpa_supplicant\src\utils/common.h **** #define WORDS_BIGENDIAN
 229:..\..\..\..\wpa_supplicant\src\utils/common.h **** #endif
 230:..\..\..\..\wpa_supplicant\src\utils/common.h **** #else
 231:..\..\..\..\wpa_supplicant\src\utils/common.h **** #error Could not determine CPU byte order
 232:..\..\..\..\wpa_supplicant\src\utils/common.h **** #endif
 233:..\..\..\..\wpa_supplicant\src\utils/common.h **** 
 234:..\..\..\..\wpa_supplicant\src\utils/common.h **** #define WPA_BYTE_SWAP_DEFINED
 235:..\..\..\..\wpa_supplicant\src\utils/common.h **** #endif /* !WPA_BYTE_SWAP_DEFINED */
 236:..\..\..\..\wpa_supplicant\src\utils/common.h **** 
 237:..\..\..\..\wpa_supplicant\src\utils/common.h **** 
 238:..\..\..\..\wpa_supplicant\src\utils/common.h **** /* Macros for handling unaligned memory accesses */
 239:..\..\..\..\wpa_supplicant\src\utils/common.h **** 
 240:..\..\..\..\wpa_supplicant\src\utils/common.h **** static inline u16 WPA_GET_BE16(const u8 *a)
 241:..\..\..\..\wpa_supplicant\src\utils/common.h **** {
 242:..\..\..\..\wpa_supplicant\src\utils/common.h **** 	return (a[0] << 8) | a[1];
 243:..\..\..\..\wpa_supplicant\src\utils/common.h **** }
 244:..\..\..\..\wpa_supplicant\src\utils/common.h **** 
 245:..\..\..\..\wpa_supplicant\src\utils/common.h **** static inline void WPA_PUT_BE16(u8 *a, u16 val)
 246:..\..\..\..\wpa_supplicant\src\utils/common.h **** {
 247:..\..\..\..\wpa_supplicant\src\utils/common.h **** 	a[0] = val >> 8;
 260              		.loc 3 247 2
 261              		.loc 3 247 7 is_stmt 0
 262 0062 33440408 		zext.h	s0,s0
 263              	.LVL30:
 264 0066 2180     		srli	s0,s0,8
 265 0068 23008500 		sb	s0,0(a0)
 248:..\..\..\..\wpa_supplicant\src\utils/common.h **** 	a[1] = val & 0xff;
 266              		.loc 3 248 2 is_stmt 1
 267              		.loc 3 248 7 is_stmt 0
 268 006c A3002501 		sb	s2,1(a0)
 269              	.LVL31:
 270              	.LBE56:
 271              	.LBE55:
 146:..\..\..\..\wpa_supplicant\src\utils/wpabuf.h **** 
 272              		.loc 2 146 1
 273 0070 7DB7     		j	.L21
 274              	.LVL32:
 275              	.L25:
 276              	.LBE54:
 277              	.LBE53:
 529:C:/Users/stapi/OneDrive/Desktop/GD32VW553/V1_MQTT_OK/GD32VW55X_Wifi_BLE_SDK/GD32VW55x_RELEASE_V1.0.2/MSDK/wpa_supplicant/src/tls\asn1.c **** 		wpabuf_put_u8(buf, 0x80 | 3);
 278              		.loc 1 529 9 is_stmt 1
 279              	.LBB57:
 280              	.LBB58:
 281              	.LBB59:
 282              	.LBB60:
 249:..\..\..\..\wpa_supplicant\src\utils/common.h **** }
 250:..\..\..\..\wpa_supplicant\src\utils/common.h **** 
 251:..\..\..\..\wpa_supplicant\src\utils/common.h **** static inline u16 WPA_GET_LE16(const u8 *a)
 252:..\..\..\..\wpa_supplicant\src\utils/common.h **** {
 253:..\..\..\..\wpa_supplicant\src\utils/common.h **** 	return (a[1] << 8) | a[0];
 254:..\..\..\..\wpa_supplicant\src\utils/common.h **** }
 255:..\..\..\..\wpa_supplicant\src\utils/common.h **** 
 256:..\..\..\..\wpa_supplicant\src\utils/common.h **** static inline void WPA_PUT_LE16(u8 *a, u16 val)
 257:..\..\..\..\wpa_supplicant\src\utils/common.h **** {
 258:..\..\..\..\wpa_supplicant\src\utils/common.h **** 	a[1] = val >> 8;
 259:..\..\..\..\wpa_supplicant\src\utils/common.h **** 	a[0] = val & 0xff;
 260:..\..\..\..\wpa_supplicant\src\utils/common.h **** }
 261:..\..\..\..\wpa_supplicant\src\utils/common.h **** 
 262:..\..\..\..\wpa_supplicant\src\utils/common.h **** static inline u32 WPA_GET_BE24(const u8 *a)
 263:..\..\..\..\wpa_supplicant\src\utils/common.h **** {
 264:..\..\..\..\wpa_supplicant\src\utils/common.h **** 	return (a[0] << 16) | (a[1] << 8) | a[2];
 265:..\..\..\..\wpa_supplicant\src\utils/common.h **** }
 266:..\..\..\..\wpa_supplicant\src\utils/common.h **** 
 267:..\..\..\..\wpa_supplicant\src\utils/common.h **** static inline void WPA_PUT_BE24(u8 *a, u32 val)
 268:..\..\..\..\wpa_supplicant\src\utils/common.h **** {
 269:..\..\..\..\wpa_supplicant\src\utils/common.h **** 	a[0] = (val >> 16) & 0xff;
 283              		.loc 3 269 14 is_stmt 0
 284 0072 13DA0501 		srli	s4,a1,16
 270:..\..\..\..\wpa_supplicant\src\utils/common.h **** 	a[1] = (val >> 8) & 0xff;
 285              		.loc 3 270 14
 286 0076 93D98500 		srli	s3,a1,8
 287              	.LBE60:
 288              	.LBE59:
 289              	.LBE58:
 290              	.LBE57:
 529:C:/Users/stapi/OneDrive/Desktop/GD32VW553/V1_MQTT_OK/GD32VW55X_Wifi_BLE_SDK/GD32VW55x_RELEASE_V1.0.2/MSDK/wpa_supplicant/src/tls\asn1.c **** 		wpabuf_put_u8(buf, 0x80 | 3);
 291              		.loc 1 529 12
 292 007a B7070001 		li	a5,16777216
 293              	.LBB67:
 294              	.LBB65:
 295              	.LBB63:
 296              	.LBB61:
 269:..\..\..\..\wpa_supplicant\src\utils/common.h **** 	a[1] = (val >> 8) & 0xff;
 297              		.loc 3 269 7
 298 007e 137AFA0F 		andi	s4,s4,0xff
 299              		.loc 3 270 7
 300 0082 93F9F90F 		andi	s3,s3,0xff
 301              	.LBE61:
 302              	.LBE63:
 303              	.LBE65:
 304              	.LBE67:
 529:C:/Users/stapi/OneDrive/Desktop/GD32VW553/V1_MQTT_OK/GD32VW55X_Wifi_BLE_SDK/GD32VW55x_RELEASE_V1.0.2/MSDK/wpa_supplicant/src/tls\asn1.c **** 		wpabuf_put_u8(buf, 0x80 | 3);
 305              		.loc 1 529 12
 306 0086 63F5F502 		bgeu	a1,a5,.L26
 530:C:/Users/stapi/OneDrive/Desktop/GD32VW553/V1_MQTT_OK/GD32VW55X_Wifi_BLE_SDK/GD32VW55x_RELEASE_V1.0.2/MSDK/wpa_supplicant/src/tls\asn1.c **** 		wpabuf_put_be24(buf, len);
 307              		.loc 1 530 3 is_stmt 1
 308 008a 93053008 		li	a1,131
 309 008e 97000000 		call	wpabuf_put_u8
 309      E7800000 
 310              	.LVL33:
 531:C:/Users/stapi/OneDrive/Desktop/GD32VW553/V1_MQTT_OK/GD32VW55X_Wifi_BLE_SDK/GD32VW55x_RELEASE_V1.0.2/MSDK/wpa_supplicant/src/tls\asn1.c **** 	} else {
 311              		.loc 1 531 3
 312              	.LBB68:
 313              	.LBB66:
 150:..\..\..\..\wpa_supplicant\src\utils/wpabuf.h **** 	WPA_PUT_BE24(pos, data);
 314              		.loc 2 150 2
 150:..\..\..\..\wpa_supplicant\src\utils/wpabuf.h **** 	WPA_PUT_BE24(pos, data);
 315              		.loc 2 150 19 is_stmt 0
 316 0096 8D45     		li	a1,3
 317 0098 2685     		mv	a0,s1
 318 009a 97000000 		call	wpabuf_put
 318      E7800000 
 319              	.LVL34:
 151:..\..\..\..\wpa_supplicant\src\utils/wpabuf.h **** }
 320              		.loc 2 151 2 is_stmt 1
 321              	.LBB64:
 322              	.LBB62:
 269:..\..\..\..\wpa_supplicant\src\utils/common.h **** 	a[1] = (val >> 8) & 0xff;
 323              		.loc 3 269 2
 269:..\..\..\..\wpa_supplicant\src\utils/common.h **** 	a[1] = (val >> 8) & 0xff;
 324              		.loc 3 269 7 is_stmt 0
 325 00a2 23004501 		sb	s4,0(a0)
 326              		.loc 3 270 2 is_stmt 1
 327              		.loc 3 270 7 is_stmt 0
 328 00a6 A3003501 		sb	s3,1(a0)
 271:..\..\..\..\wpa_supplicant\src\utils/common.h **** 	a[2] = val & 0xff;
 329              		.loc 3 271 2 is_stmt 1
 330              		.loc 3 271 7 is_stmt 0
 331 00aa 23012501 		sb	s2,2(a0)
 272:..\..\..\..\wpa_supplicant\src\utils/common.h **** }
 332              		.loc 3 272 1
 333 00ae 85BF     		j	.L21
 334              	.LVL35:
 335              	.L26:
 336              	.LBE62:
 337              	.LBE64:
 338              	.LBE66:
 339              	.LBE68:
 533:C:/Users/stapi/OneDrive/Desktop/GD32VW553/V1_MQTT_OK/GD32VW55X_Wifi_BLE_SDK/GD32VW55x_RELEASE_V1.0.2/MSDK/wpa_supplicant/src/tls\asn1.c **** 		wpabuf_put_be32(buf, len);
 340              		.loc 1 533 3 is_stmt 1
 341 00b0 93054008 		li	a1,132
 342 00b4 97000000 		call	wpabuf_put_u8
 342      E7800000 
 343              	.LVL36:
 534:C:/Users/stapi/OneDrive/Desktop/GD32VW553/V1_MQTT_OK/GD32VW55X_Wifi_BLE_SDK/GD32VW55x_RELEASE_V1.0.2/MSDK/wpa_supplicant/src/tls\asn1.c **** 	}
 344              		.loc 1 534 3
 345              	.LBB69:
 346              	.LBB70:
 156:..\..\..\..\wpa_supplicant\src\utils/wpabuf.h **** 	WPA_PUT_BE32(pos, data);
 347              		.loc 2 156 2
 156:..\..\..\..\wpa_supplicant\src\utils/wpabuf.h **** 	WPA_PUT_BE32(pos, data);
 348              		.loc 2 156 19 is_stmt 0
 349 00bc 9145     		li	a1,4
 350 00be 2685     		mv	a0,s1
 351 00c0 97000000 		call	wpabuf_put
 351      E7800000 
 352              	.LVL37:
 157:..\..\..\..\wpa_supplicant\src\utils/wpabuf.h **** }
 353              		.loc 2 157 2 is_stmt 1
 354              	.LBB71:
 355              	.LBB72:
 273:..\..\..\..\wpa_supplicant\src\utils/common.h **** 
 274:..\..\..\..\wpa_supplicant\src\utils/common.h **** static inline u32 WPA_GET_BE32(const u8 *a)
 275:..\..\..\..\wpa_supplicant\src\utils/common.h **** {
 276:..\..\..\..\wpa_supplicant\src\utils/common.h **** 	return ((u32) a[0] << 24) | (a[1] << 16) | (a[2] << 8) | a[3];
 277:..\..\..\..\wpa_supplicant\src\utils/common.h **** }
 278:..\..\..\..\wpa_supplicant\src\utils/common.h **** 
 279:..\..\..\..\wpa_supplicant\src\utils/common.h **** static inline void WPA_PUT_BE32(u8 *a, u32 val)
 280:..\..\..\..\wpa_supplicant\src\utils/common.h **** {
 281:..\..\..\..\wpa_supplicant\src\utils/common.h **** 	a[0] = (val >> 24) & 0xff;
 356              		.loc 3 281 2
 357              		.loc 3 281 14 is_stmt 0
 358 00c8 6180     		srli	s0,s0,24
 359              	.LVL38:
 360              		.loc 3 281 7
 361 00ca 23008500 		sb	s0,0(a0)
 282:..\..\..\..\wpa_supplicant\src\utils/common.h **** 	a[1] = (val >> 16) & 0xff;
 362              		.loc 3 282 2 is_stmt 1
 363              		.loc 3 282 7 is_stmt 0
 364 00ce A3004501 		sb	s4,1(a0)
 283:..\..\..\..\wpa_supplicant\src\utils/common.h **** 	a[2] = (val >> 8) & 0xff;
 365              		.loc 3 283 2 is_stmt 1
 366              		.loc 3 283 7 is_stmt 0
 367 00d2 23013501 		sb	s3,2(a0)
 284:..\..\..\..\wpa_supplicant\src\utils/common.h **** 	a[3] = val & 0xff;
 368              		.loc 3 284 2 is_stmt 1
 369              		.loc 3 284 7 is_stmt 0
 370 00d6 A3012501 		sb	s2,3(a0)
 371              	.LVL39:
 372              	.LBE72:
 373              	.LBE71:
 374              	.LBE70:
 375              	.LBE69:
 376              	.LBE52:
 377              	.LBE51:
 378              		.loc 1 536 1
 379 00da 91B7     		j	.L21
 380              		.cfi_endproc
 381              	.LFE101:
 383              		.section	.rodata.asn1_print_hdr.str1.4,"aMS",@progbits,1
 384              		.align	2
 385              	.LC0:
 386 0000 2573636C 		.string	"%sclass %d constructed %d tag 0x%x"
 386      61737320 
 386      25642063 
 386      6F6E7374 
 386      72756374 
 387              		.section	.text.asn1_print_hdr,"ax",@progbits
 388              		.align	1
 389              		.globl	asn1_print_hdr
 391              	asn1_print_hdr:
 392              	.LFB89:
 277:C:/Users/stapi/OneDrive/Desktop/GD32VW553/V1_MQTT_OK/GD32VW55X_Wifi_BLE_SDK/GD32VW55x_RELEASE_V1.0.2/MSDK/wpa_supplicant/src/tls\asn1.c **** 	wpa_printf(MSG_DEBUG, "%sclass %d constructed %d tag 0x%x",
 393              		.loc 1 277 1 is_stmt 1
 394              		.cfi_startproc
 395              	.LVL40:
 278:C:/Users/stapi/OneDrive/Desktop/GD32VW553/V1_MQTT_OK/GD32VW55X_Wifi_BLE_SDK/GD32VW55x_RELEASE_V1.0.2/MSDK/wpa_supplicant/src/tls\asn1.c **** 		   title, hdr->class, hdr->constructed, hdr->tag);
 396              		.loc 1 278 2
 397 0000 1C45     		lw	a5,8(a0)
 398 0002 03476500 		lbu	a4,6(a0)
 399 0006 83465500 		lbu	a3,5(a0)
 277:C:/Users/stapi/OneDrive/Desktop/GD32VW553/V1_MQTT_OK/GD32VW55X_Wifi_BLE_SDK/GD32VW55x_RELEASE_V1.0.2/MSDK/wpa_supplicant/src/tls\asn1.c **** 	wpa_printf(MSG_DEBUG, "%sclass %d constructed %d tag 0x%x",
 400              		.loc 1 277 1 is_stmt 0
 401 000a 2E86     		mv	a2,a1
 278:C:/Users/stapi/OneDrive/Desktop/GD32VW553/V1_MQTT_OK/GD32VW55X_Wifi_BLE_SDK/GD32VW55x_RELEASE_V1.0.2/MSDK/wpa_supplicant/src/tls\asn1.c **** 		   title, hdr->class, hdr->constructed, hdr->tag);
 402              		.loc 1 278 2
 403 000c B7050000 		lui	a1,%hi(.LC0)
 404              	.LVL41:
 405 0010 93850500 		addi	a1,a1,%lo(.LC0)
 406 0014 0945     		li	a0,2
 407              	.LVL42:
 408 0016 17030000 		tail	wpa_printf
 408      67000300 
 409              	.LVL43:
 410              		.cfi_endproc
 411              	.LFE89:
 413              		.section	.rodata.asn1_get_next.str1.4,"aMS",@progbits,1
 414              		.align	2
 415              	.LC1:
 416 0000 41534E2E 		.string	"ASN.1: No room for Identifier"
 416      313A204E 
 416      6F20726F 
 416      6F6D2066 
 416      6F722049 
 417 001e 0000     		.align	2
 418              	.LC2:
 419 0020 41534E2E 		.string	"ASN.1: Invalid extended tag (first octet has to be included with at least one nonzero bit
 419      313A2049 
 419      6E76616C 
 419      69642065 
 419      7874656E 
 420 008d 000000   		.align	2
 421              	.LC3:
 422 0090 41534E2E 		.string	"ASN.1: Identifier underflow"
 422      313A2049 
 422      64656E74 
 422      69666965 
 422      7220756E 
 423              		.align	2
 424              	.LC4:
 425 00ac 41534E2E 		.string	"ASN.1: Extended tag data: 0x%02x"
 425      313A2045 
 425      7874656E 
 425      64656420 
 425      74616720 
 426 00cd 000000   		.align	2
 427              	.LC5:
 428 00d0 41534E2E 		.string	"ASN.1: Extended Tag: 0x%x (len=%zu)"
 428      313A2045 
 428      7874656E 
 428      64656420 
 428      5461673A 
 429              		.align	2
 430              	.LC6:
 431 00f4 41534E2E 		.string	"ASN.1: Invalid or unsupported (too large) extended Tag: 0x%x (len=%zu)"
 431      313A2049 
 431      6E76616C 
 431      6964206F 
 431      7220756E 
 432 013b 00       		.align	2
 433              	.LC7:
 434 013c 41534E2E 		.string	"ASN.1: No room for Length"
 434      313A204E 
 434      6F20726F 
 434      6F6D2066 
 434      6F72204C 
 435 0156 0000     		.align	2
 436              	.LC8:
 437 0158 41534E2E 		.string	"ASN.1: Reserved length value 0xff used"
 437      313A2052 
 437      65736572 
 437      76656420 
 437      6C656E67 
 438 017f 00       		.align	2
 439              	.LC9:
 440 0180 41534E2E 		.string	"ASN.1: Definite long form of the length does not start with a nonzero value"
 440      313A2044 
 440      6566696E 
 440      69746520 
 440      6C6F6E67 
 441              		.align	2
 442              	.LC10:
 443 01cc 41534E2E 		.string	"ASN.1: Too long length field"
 443      313A2054 
 443      6F6F206C 
 443      6F6E6720 
 443      6C656E67 
 444 01e9 000000   		.align	2
 445              	.LC11:
 446 01ec 41534E2E 		.string	"ASN.1: Length underflow"
 446      313A204C 
 446      656E6774 
 446      6820756E 
 446      64657266 
 447              		.align	2
 448              	.LC12:
 449 0204 41534E2E 		.string	"ASN.1: Definite long form of the length used with too short length"
 449      313A2044 
 449      6566696E 
 449      69746520 
 449      6C6F6E67 
 450 0247 00       		.align	2
 451              	.LC13:
 452 0248 41534E2E 		.string	"ASN.1: Contents underflow"
 452      313A2043 
 452      6F6E7465 
 452      6E747320 
 452      756E6465 
 453 0262 0000     		.align	2
 454              	.LC14:
 455 0264 41534E2E 		.string	"ASN.1: Unexpected BOOLEAN length (%u)"
 455      313A2055 
 455      6E657870 
 455      65637465 
 455      6420424F 
 456 028a 0000     		.align	2
 457              	.LC15:
 458 028c 41534E2E 		.string	"ASN.1: Invalid BOOLEAN value 0x%x (DER requires 0 or 0xff)"
 458      313A2049 
 458      6E76616C 
 458      69642042 
 458      4F4F4C45 
 459 02c7 00       		.align	2
 460              	.LC16:
 461 02c8 41534E2E 		.string	"ASN.1: Invalid DER encoding: "
 461      313A2049 
 461      6E76616C 
 461      69642044 
 461      45522065 
 462              		.section	.text.asn1_get_next,"ax",@progbits
 463              		.align	1
 464              		.globl	asn1_get_next
 466              	asn1_get_next:
 467              	.LFB88:
 172:C:/Users/stapi/OneDrive/Desktop/GD32VW553/V1_MQTT_OK/GD32VW55X_Wifi_BLE_SDK/GD32VW55x_RELEASE_V1.0.2/MSDK/wpa_supplicant/src/tls\asn1.c **** 	const u8 *pos, *end;
 468              		.loc 1 172 1 is_stmt 1
 469              		.cfi_startproc
 470              	.LVL44:
 471 0000 17030000 		call	t0,__riscv_save_7
 471      E7020300 
 472              		.cfi_offset 22, -32
 473              		.cfi_offset 21, -28
 474              		.cfi_offset 20, -24
 475              		.cfi_offset 19, -20
 476              		.cfi_offset 18, -16
 477              		.cfi_offset 9, -12
 478              		.cfi_offset 8, -8
 479              		.cfi_offset 1, -4
 480              		.cfi_def_cfa_offset 32
 173:C:/Users/stapi/OneDrive/Desktop/GD32VW553/V1_MQTT_OK/GD32VW55X_Wifi_BLE_SDK/GD32VW55x_RELEASE_V1.0.2/MSDK/wpa_supplicant/src/tls\asn1.c **** 	u8 tmp;
 481              		.loc 1 173 2
 174:C:/Users/stapi/OneDrive/Desktop/GD32VW553/V1_MQTT_OK/GD32VW55X_Wifi_BLE_SDK/GD32VW55x_RELEASE_V1.0.2/MSDK/wpa_supplicant/src/tls\asn1.c **** 
 482              		.loc 1 174 2
 176:C:/Users/stapi/OneDrive/Desktop/GD32VW553/V1_MQTT_OK/GD32VW55X_Wifi_BLE_SDK/GD32VW55x_RELEASE_V1.0.2/MSDK/wpa_supplicant/src/tls\asn1.c **** 	pos = buf;
 483              		.loc 1 176 2
 172:C:/Users/stapi/OneDrive/Desktop/GD32VW553/V1_MQTT_OK/GD32VW55X_Wifi_BLE_SDK/GD32VW55x_RELEASE_V1.0.2/MSDK/wpa_supplicant/src/tls\asn1.c **** 	const u8 *pos, *end;
 484              		.loc 1 172 1 is_stmt 0
 485 0008 AA89     		mv	s3,a0
 486 000a AE84     		mv	s1,a1
 487 000c 3284     		mv	s0,a2
 176:C:/Users/stapi/OneDrive/Desktop/GD32VW553/V1_MQTT_OK/GD32VW55X_Wifi_BLE_SDK/GD32VW55x_RELEASE_V1.0.2/MSDK/wpa_supplicant/src/tls\asn1.c **** 	pos = buf;
 488              		.loc 1 176 2
 489 000e 8145     		li	a1,0
 490              	.LVL45:
 491 0010 4146     		li	a2,16
 492              	.LVL46:
 493 0012 2285     		mv	a0,s0
 494              	.LVL47:
 178:C:/Users/stapi/OneDrive/Desktop/GD32VW553/V1_MQTT_OK/GD32VW55X_Wifi_BLE_SDK/GD32VW55x_RELEASE_V1.0.2/MSDK/wpa_supplicant/src/tls\asn1.c **** 
 495              		.loc 1 178 6
 496 0014 CE94     		add	s1,s3,s1
 497              	.LVL48:
 176:C:/Users/stapi/OneDrive/Desktop/GD32VW553/V1_MQTT_OK/GD32VW55X_Wifi_BLE_SDK/GD32VW55x_RELEASE_V1.0.2/MSDK/wpa_supplicant/src/tls\asn1.c **** 	pos = buf;
 498              		.loc 1 176 2
 499 0016 97000000 		call	os_memset
 499      E7800000 
 500              	.LVL49:
 177:C:/Users/stapi/OneDrive/Desktop/GD32VW553/V1_MQTT_OK/GD32VW55X_Wifi_BLE_SDK/GD32VW55x_RELEASE_V1.0.2/MSDK/wpa_supplicant/src/tls\asn1.c **** 	end = buf + len;
 501              		.loc 1 177 2 is_stmt 1
 178:C:/Users/stapi/OneDrive/Desktop/GD32VW553/V1_MQTT_OK/GD32VW55X_Wifi_BLE_SDK/GD32VW55x_RELEASE_V1.0.2/MSDK/wpa_supplicant/src/tls\asn1.c **** 
 502              		.loc 1 178 2
 180:C:/Users/stapi/OneDrive/Desktop/GD32VW553/V1_MQTT_OK/GD32VW55X_Wifi_BLE_SDK/GD32VW55x_RELEASE_V1.0.2/MSDK/wpa_supplicant/src/tls\asn1.c **** 		wpa_printf(MSG_DEBUG, "ASN.1: No room for Identifier");
 503              		.loc 1 180 2
 180:C:/Users/stapi/OneDrive/Desktop/GD32VW553/V1_MQTT_OK/GD32VW55X_Wifi_BLE_SDK/GD32VW55x_RELEASE_V1.0.2/MSDK/wpa_supplicant/src/tls\asn1.c **** 		wpa_printf(MSG_DEBUG, "ASN.1: No room for Identifier");
 504              		.loc 1 180 5 is_stmt 0
 505 001e 63EC9900 		bltu	s3,s1,.L32
 181:C:/Users/stapi/OneDrive/Desktop/GD32VW553/V1_MQTT_OK/GD32VW55X_Wifi_BLE_SDK/GD32VW55x_RELEASE_V1.0.2/MSDK/wpa_supplicant/src/tls\asn1.c **** 		return -1;
 506              		.loc 1 181 3 is_stmt 1
 507 0022 B7050000 		lui	a1,%hi(.LC1)
 508 0026 93850500 		addi	a1,a1,%lo(.LC1)
 509              	.LVL50:
 510              	.L70:
 262:C:/Users/stapi/OneDrive/Desktop/GD32VW553/V1_MQTT_OK/GD32VW55X_Wifi_BLE_SDK/GD32VW55x_RELEASE_V1.0.2/MSDK/wpa_supplicant/src/tls\asn1.c **** 		return -1;
 511              		.loc 1 262 3 is_stmt 0
 512 002a 0945     		li	a0,2
 513 002c 97000000 		call	wpa_printf
 513      E7800000 
 514              	.LVL51:
 263:C:/Users/stapi/OneDrive/Desktop/GD32VW553/V1_MQTT_OK/GD32VW55X_Wifi_BLE_SDK/GD32VW55x_RELEASE_V1.0.2/MSDK/wpa_supplicant/src/tls\asn1.c **** 	}
 515              		.loc 1 263 3 is_stmt 1
 516 0034 55A8     		j	.L69
 517              	.LVL52:
 518              	.L32:
 184:C:/Users/stapi/OneDrive/Desktop/GD32VW553/V1_MQTT_OK/GD32VW55X_Wifi_BLE_SDK/GD32VW55x_RELEASE_V1.0.2/MSDK/wpa_supplicant/src/tls\asn1.c **** 	hdr->class = hdr->identifier >> 6;
 519              		.loc 1 184 2
 184:C:/Users/stapi/OneDrive/Desktop/GD32VW553/V1_MQTT_OK/GD32VW55X_Wifi_BLE_SDK/GD32VW55x_RELEASE_V1.0.2/MSDK/wpa_supplicant/src/tls\asn1.c **** 	hdr->class = hdr->identifier >> 6;
 520              		.loc 1 184 20 is_stmt 0
 521 0036 83C70900 		lbu	a5,0(s3)
 184:C:/Users/stapi/OneDrive/Desktop/GD32VW553/V1_MQTT_OK/GD32VW55X_Wifi_BLE_SDK/GD32VW55x_RELEASE_V1.0.2/MSDK/wpa_supplicant/src/tls\asn1.c **** 	hdr->class = hdr->identifier >> 6;
 522              		.loc 1 184 24
 523 003a 13891900 		addi	s2,s3,1
 524              	.LVL53:
 185:C:/Users/stapi/OneDrive/Desktop/GD32VW553/V1_MQTT_OK/GD32VW55X_Wifi_BLE_SDK/GD32VW55x_RELEASE_V1.0.2/MSDK/wpa_supplicant/src/tls\asn1.c **** 	hdr->constructed = !!(hdr->identifier & (1 << 5));
 525              		.loc 1 185 13
 526 003e 13D76700 		srli	a4,a5,6
 527 0042 A302E400 		sb	a4,5(s0)
 186:C:/Users/stapi/OneDrive/Desktop/GD32VW553/V1_MQTT_OK/GD32VW55X_Wifi_BLE_SDK/GD32VW55x_RELEASE_V1.0.2/MSDK/wpa_supplicant/src/tls\asn1.c **** 
 528              		.loc 1 186 21
 529 0046 13D75748 		bexti	a4,a5,5
 184:C:/Users/stapi/OneDrive/Desktop/GD32VW553/V1_MQTT_OK/GD32VW55X_Wifi_BLE_SDK/GD32VW55x_RELEASE_V1.0.2/MSDK/wpa_supplicant/src/tls\asn1.c **** 	hdr->class = hdr->identifier >> 6;
 530              		.loc 1 184 18
 531 004a 2302F400 		sb	a5,4(s0)
 185:C:/Users/stapi/OneDrive/Desktop/GD32VW553/V1_MQTT_OK/GD32VW55X_Wifi_BLE_SDK/GD32VW55x_RELEASE_V1.0.2/MSDK/wpa_supplicant/src/tls\asn1.c **** 	hdr->constructed = !!(hdr->identifier & (1 << 5));
 532              		.loc 1 185 2 is_stmt 1
 186:C:/Users/stapi/OneDrive/Desktop/GD32VW553/V1_MQTT_OK/GD32VW55X_Wifi_BLE_SDK/GD32VW55x_RELEASE_V1.0.2/MSDK/wpa_supplicant/src/tls\asn1.c **** 
 533              		.loc 1 186 2
 186:C:/Users/stapi/OneDrive/Desktop/GD32VW553/V1_MQTT_OK/GD32VW55X_Wifi_BLE_SDK/GD32VW55x_RELEASE_V1.0.2/MSDK/wpa_supplicant/src/tls\asn1.c **** 
 534              		.loc 1 186 19 is_stmt 0
 535 004e 2303E400 		sb	a4,6(s0)
 188:C:/Users/stapi/OneDrive/Desktop/GD32VW553/V1_MQTT_OK/GD32VW55X_Wifi_BLE_SDK/GD32VW55x_RELEASE_V1.0.2/MSDK/wpa_supplicant/src/tls\asn1.c **** 		size_t ext_len = 0;
 536              		.loc 1 188 2 is_stmt 1
 537 0052 FD8B     		andi	a5,a5,31
 188:C:/Users/stapi/OneDrive/Desktop/GD32VW553/V1_MQTT_OK/GD32VW55X_Wifi_BLE_SDK/GD32VW55x_RELEASE_V1.0.2/MSDK/wpa_supplicant/src/tls\asn1.c **** 		size_t ext_len = 0;
 538              		.loc 1 188 5 is_stmt 0
 539 0054 7D47     		li	a4,31
 540 0056 6397E70A 		bne	a5,a4,.L34
 541              	.LBB78:
 189:C:/Users/stapi/OneDrive/Desktop/GD32VW553/V1_MQTT_OK/GD32VW55X_Wifi_BLE_SDK/GD32VW55x_RELEASE_V1.0.2/MSDK/wpa_supplicant/src/tls\asn1.c **** 
 542              		.loc 1 189 3 is_stmt 1
 543              	.LVL54:
 191:C:/Users/stapi/OneDrive/Desktop/GD32VW553/V1_MQTT_OK/GD32VW55X_Wifi_BLE_SDK/GD32VW55x_RELEASE_V1.0.2/MSDK/wpa_supplicant/src/tls\asn1.c **** 		if (pos == end || (*pos & 0x7f) == 0) {
 544              		.loc 1 191 3
 191:C:/Users/stapi/OneDrive/Desktop/GD32VW553/V1_MQTT_OK/GD32VW55X_Wifi_BLE_SDK/GD32VW55x_RELEASE_V1.0.2/MSDK/wpa_supplicant/src/tls\asn1.c **** 		if (pos == end || (*pos & 0x7f) == 0) {
 545              		.loc 1 191 12 is_stmt 0
 546 005a 23240400 		sw	zero,8(s0)
 192:C:/Users/stapi/OneDrive/Desktop/GD32VW553/V1_MQTT_OK/GD32VW55X_Wifi_BLE_SDK/GD32VW55x_RELEASE_V1.0.2/MSDK/wpa_supplicant/src/tls\asn1.c **** 			wpa_printf(MSG_DEBUG,
 547              		.loc 1 192 3 is_stmt 1
 192:C:/Users/stapi/OneDrive/Desktop/GD32VW553/V1_MQTT_OK/GD32VW55X_Wifi_BLE_SDK/GD32VW55x_RELEASE_V1.0.2/MSDK/wpa_supplicant/src/tls\asn1.c **** 			wpa_printf(MSG_DEBUG,
 548              		.loc 1 192 6 is_stmt 0
 549 005e 63872409 		beq	s1,s2,.L35
 192:C:/Users/stapi/OneDrive/Desktop/GD32VW553/V1_MQTT_OK/GD32VW55X_Wifi_BLE_SDK/GD32VW55x_RELEASE_V1.0.2/MSDK/wpa_supplicant/src/tls\asn1.c **** 			wpa_printf(MSG_DEBUG,
 550              		.loc 1 192 18 discriminator 1
 551 0062 83C71900 		lbu	a5,1(s3)
 552 0066 93F7F707 		andi	a5,a5,127
 553 006a C9C3     		beq	a5,zero,.L35
 205:C:/Users/stapi/OneDrive/Desktop/GD32VW553/V1_MQTT_OK/GD32VW55X_Wifi_BLE_SDK/GD32VW55x_RELEASE_V1.0.2/MSDK/wpa_supplicant/src/tls\asn1.c **** 				   "0x%02x", tmp);
 554              		.loc 1 205 4
 555 006c 370B0000 		lui	s6,%hi(.LC4)
 556              	.LVL55:
 557              	.L36:
 203:C:/Users/stapi/OneDrive/Desktop/GD32VW553/V1_MQTT_OK/GD32VW55X_Wifi_BLE_SDK/GD32VW55x_RELEASE_V1.0.2/MSDK/wpa_supplicant/src/tls\asn1.c **** 			tmp = *pos++;
 558              		.loc 1 203 4 is_stmt 1
 559 0070 B30A3941 		sub	s5,s2,s3
 560              	.LVL56:
 204:C:/Users/stapi/OneDrive/Desktop/GD32VW553/V1_MQTT_OK/GD32VW55X_Wifi_BLE_SDK/GD32VW55x_RELEASE_V1.0.2/MSDK/wpa_supplicant/src/tls\asn1.c **** 			wpa_printf(MSG_MSGDUMP, "ASN.1: Extended tag data: "
 561              		.loc 1 204 4
 204:C:/Users/stapi/OneDrive/Desktop/GD32VW553/V1_MQTT_OK/GD32VW55X_Wifi_BLE_SDK/GD32VW55x_RELEASE_V1.0.2/MSDK/wpa_supplicant/src/tls\asn1.c **** 			wpa_printf(MSG_MSGDUMP, "ASN.1: Extended tag data: "
 562              		.loc 1 204 8 is_stmt 0
 563 0074 034A0900 		lbu	s4,0(s2)
 205:C:/Users/stapi/OneDrive/Desktop/GD32VW553/V1_MQTT_OK/GD32VW55X_Wifi_BLE_SDK/GD32VW55x_RELEASE_V1.0.2/MSDK/wpa_supplicant/src/tls\asn1.c **** 				   "0x%02x", tmp);
 564              		.loc 1 205 4
 565 0078 93050B00 		addi	a1,s6,%lo(.LC4)
 566 007c 0545     		li	a0,1
 567 007e 5286     		mv	a2,s4
 568 0080 97000000 		call	wpa_printf
 568      E7800000 
 569              	.LVL57:
 207:C:/Users/stapi/OneDrive/Desktop/GD32VW553/V1_MQTT_OK/GD32VW55X_Wifi_BLE_SDK/GD32VW55x_RELEASE_V1.0.2/MSDK/wpa_supplicant/src/tls\asn1.c **** 		} while (tmp & 0x80);
 570              		.loc 1 207 25
 571 0088 1C44     		lw	a5,8(s0)
 207:C:/Users/stapi/OneDrive/Desktop/GD32VW553/V1_MQTT_OK/GD32VW55X_Wifi_BLE_SDK/GD32VW55x_RELEASE_V1.0.2/MSDK/wpa_supplicant/src/tls\asn1.c **** 		} while (tmp & 0x80);
 572              		.loc 1 207 38
 573 008a 1376FA07 		andi	a2,s4,127
 204:C:/Users/stapi/OneDrive/Desktop/GD32VW553/V1_MQTT_OK/GD32VW55X_Wifi_BLE_SDK/GD32VW55x_RELEASE_V1.0.2/MSDK/wpa_supplicant/src/tls\asn1.c **** 			wpa_printf(MSG_MSGDUMP, "ASN.1: Extended tag data: "
 574              		.loc 1 204 14
 575 008e 0509     		addi	s2,s2,1
 576              	.LVL58:
 205:C:/Users/stapi/OneDrive/Desktop/GD32VW553/V1_MQTT_OK/GD32VW55X_Wifi_BLE_SDK/GD32VW55x_RELEASE_V1.0.2/MSDK/wpa_supplicant/src/tls\asn1.c **** 				   "0x%02x", tmp);
 577              		.loc 1 205 4 is_stmt 1
 207:C:/Users/stapi/OneDrive/Desktop/GD32VW553/V1_MQTT_OK/GD32VW55X_Wifi_BLE_SDK/GD32VW55x_RELEASE_V1.0.2/MSDK/wpa_supplicant/src/tls\asn1.c **** 		} while (tmp & 0x80);
 578              		.loc 1 207 4
 207:C:/Users/stapi/OneDrive/Desktop/GD32VW553/V1_MQTT_OK/GD32VW55X_Wifi_BLE_SDK/GD32VW55x_RELEASE_V1.0.2/MSDK/wpa_supplicant/src/tls\asn1.c **** 		} while (tmp & 0x80);
 579              		.loc 1 207 25 is_stmt 0
 580 0090 9E07     		slli	a5,a5,7
 207:C:/Users/stapi/OneDrive/Desktop/GD32VW553/V1_MQTT_OK/GD32VW55X_Wifi_BLE_SDK/GD32VW55x_RELEASE_V1.0.2/MSDK/wpa_supplicant/src/tls\asn1.c **** 		} while (tmp & 0x80);
 581              		.loc 1 207 31
 582 0092 5D8E     		or	a2,a5,a2
 207:C:/Users/stapi/OneDrive/Desktop/GD32VW553/V1_MQTT_OK/GD32VW55X_Wifi_BLE_SDK/GD32VW55x_RELEASE_V1.0.2/MSDK/wpa_supplicant/src/tls\asn1.c **** 		} while (tmp & 0x80);
 583              		.loc 1 207 13
 584 0094 10C4     		sw	a2,8(s0)
 208:C:/Users/stapi/OneDrive/Desktop/GD32VW553/V1_MQTT_OK/GD32VW55X_Wifi_BLE_SDK/GD32VW55x_RELEASE_V1.0.2/MSDK/wpa_supplicant/src/tls\asn1.c **** 		wpa_printf(MSG_MSGDUMP, "ASN.1: Extended Tag: 0x%x (len=%zu)",
 585              		.loc 1 208 11 is_stmt 1
 208:C:/Users/stapi/OneDrive/Desktop/GD32VW553/V1_MQTT_OK/GD32VW55X_Wifi_BLE_SDK/GD32VW55x_RELEASE_V1.0.2/MSDK/wpa_supplicant/src/tls\asn1.c **** 		wpa_printf(MSG_MSGDUMP, "ASN.1: Extended Tag: 0x%x (len=%zu)",
 586              		.loc 1 208 3 is_stmt 0
 587 0096 131A4A60 		sext.b	s4,s4
 588 009a 634E0A04 		blt	s4,zero,.L37
 209:C:/Users/stapi/OneDrive/Desktop/GD32VW553/V1_MQTT_OK/GD32VW55X_Wifi_BLE_SDK/GD32VW55x_RELEASE_V1.0.2/MSDK/wpa_supplicant/src/tls\asn1.c **** 			   hdr->tag, ext_len);
 589              		.loc 1 209 3 is_stmt 1
 590 009e B7050000 		lui	a1,%hi(.LC5)
 591 00a2 D686     		mv	a3,s5
 592 00a4 93850500 		addi	a1,a1,%lo(.LC5)
 593 00a8 0545     		li	a0,1
 594 00aa 97000000 		call	wpa_printf
 594      E7800000 
 595              	.LVL59:
 211:C:/Users/stapi/OneDrive/Desktop/GD32VW553/V1_MQTT_OK/GD32VW55X_Wifi_BLE_SDK/GD32VW55x_RELEASE_V1.0.2/MSDK/wpa_supplicant/src/tls\asn1.c **** 		    ext_len * 7 > sizeof(hdr->tag) * 8) {
 596              		.loc 1 211 3
 211:C:/Users/stapi/OneDrive/Desktop/GD32VW553/V1_MQTT_OK/GD32VW55X_Wifi_BLE_SDK/GD32VW55x_RELEASE_V1.0.2/MSDK/wpa_supplicant/src/tls\asn1.c **** 		    ext_len * 7 > sizeof(hdr->tag) * 8) {
 597              		.loc 1 211 6 is_stmt 0
 598 00b2 03475400 		lbu	a4,5(s0)
 599 00b6 8D47     		li	a5,3
 600 00b8 6306F700 		beq	a4,a5,.L38
 211:C:/Users/stapi/OneDrive/Desktop/GD32VW553/V1_MQTT_OK/GD32VW55X_Wifi_BLE_SDK/GD32VW55x_RELEASE_V1.0.2/MSDK/wpa_supplicant/src/tls\asn1.c **** 		    ext_len * 7 > sizeof(hdr->tag) * 8) {
 601              		.loc 1 211 41 discriminator 1
 602 00bc 1844     		lw	a4,8(s0)
 603 00be F947     		li	a5,30
 604 00c0 63F9E700 		bleu	a4,a5,.L39
 605              	.L38:
 212:C:/Users/stapi/OneDrive/Desktop/GD32VW553/V1_MQTT_OK/GD32VW55X_Wifi_BLE_SDK/GD32VW55x_RELEASE_V1.0.2/MSDK/wpa_supplicant/src/tls\asn1.c **** 			wpa_printf(MSG_DEBUG,
 606              		.loc 1 212 15 discriminator 3
 607 00c4 9D47     		li	a5,7
 608 00c6 B387FA02 		mul	a5,s5,a5
 211:C:/Users/stapi/OneDrive/Desktop/GD32VW553/V1_MQTT_OK/GD32VW55X_Wifi_BLE_SDK/GD32VW55x_RELEASE_V1.0.2/MSDK/wpa_supplicant/src/tls\asn1.c **** 		    ext_len * 7 > sizeof(hdr->tag) * 8) {
 609              		.loc 1 211 59 discriminator 3
 610 00ca 13070002 		li	a4,32
 611 00ce 637CF702 		bleu	a5,a4,.L40
 612              	.L39:
 213:C:/Users/stapi/OneDrive/Desktop/GD32VW553/V1_MQTT_OK/GD32VW55X_Wifi_BLE_SDK/GD32VW55x_RELEASE_V1.0.2/MSDK/wpa_supplicant/src/tls\asn1.c **** 				   "ASN.1: Invalid or unsupported (too large) extended Tag: 0x%x (len=%zu)",
 613              		.loc 1 213 4 is_stmt 1
 614 00d2 1044     		lw	a2,8(s0)
 615 00d4 B7050000 		lui	a1,%hi(.LC6)
 616 00d8 D686     		mv	a3,s5
 617 00da 93850500 		addi	a1,a1,%lo(.LC6)
 618 00de 0945     		li	a0,2
 619 00e0 97000000 		call	wpa_printf
 619      E7800000 
 620              	.LVL60:
 216:C:/Users/stapi/OneDrive/Desktop/GD32VW553/V1_MQTT_OK/GD32VW55X_Wifi_BLE_SDK/GD32VW55x_RELEASE_V1.0.2/MSDK/wpa_supplicant/src/tls\asn1.c **** 		}
 621              		.loc 1 216 4
 622              	.L69:
 623              	.LBE78:
 270:C:/Users/stapi/OneDrive/Desktop/GD32VW553/V1_MQTT_OK/GD32VW55X_Wifi_BLE_SDK/GD32VW55x_RELEASE_V1.0.2/MSDK/wpa_supplicant/src/tls\asn1.c **** 	}
 624              		.loc 1 270 3
 270:C:/Users/stapi/OneDrive/Desktop/GD32VW553/V1_MQTT_OK/GD32VW55X_Wifi_BLE_SDK/GD32VW55x_RELEASE_V1.0.2/MSDK/wpa_supplicant/src/tls\asn1.c **** 	}
 625              		.loc 1 270 10 is_stmt 0
 626 00e8 7D55     		li	a0,-1
 627 00ea B9A2     		j	.L31
 628              	.LVL61:
 629              	.L35:
 630              	.LBB79:
 193:C:/Users/stapi/OneDrive/Desktop/GD32VW553/V1_MQTT_OK/GD32VW55X_Wifi_BLE_SDK/GD32VW55x_RELEASE_V1.0.2/MSDK/wpa_supplicant/src/tls\asn1.c **** 				   "ASN.1: Invalid extended tag (first octet has to be included with at least one nonzero bit f
 631              		.loc 1 193 4 is_stmt 1
 632 00ec B7050000 		lui	a1,%hi(.LC2)
 633 00f0 93850500 		addi	a1,a1,%lo(.LC2)
 634 00f4 1DBF     		j	.L70
 635              	.LVL62:
 636              	.L37:
 197:C:/Users/stapi/OneDrive/Desktop/GD32VW553/V1_MQTT_OK/GD32VW55X_Wifi_BLE_SDK/GD32VW55x_RELEASE_V1.0.2/MSDK/wpa_supplicant/src/tls\asn1.c **** 			if (pos >= end) {
 637              		.loc 1 197 3
 198:C:/Users/stapi/OneDrive/Desktop/GD32VW553/V1_MQTT_OK/GD32VW55X_Wifi_BLE_SDK/GD32VW55x_RELEASE_V1.0.2/MSDK/wpa_supplicant/src/tls\asn1.c **** 				wpa_printf(MSG_DEBUG, "ASN.1: Identifier "
 638              		.loc 1 198 4
 198:C:/Users/stapi/OneDrive/Desktop/GD32VW553/V1_MQTT_OK/GD32VW55X_Wifi_BLE_SDK/GD32VW55x_RELEASE_V1.0.2/MSDK/wpa_supplicant/src/tls\asn1.c **** 				wpa_printf(MSG_DEBUG, "ASN.1: Identifier "
 639              		.loc 1 198 7 is_stmt 0
 640 00f6 E39D24F7 		bne	s1,s2,.L36
 199:C:/Users/stapi/OneDrive/Desktop/GD32VW553/V1_MQTT_OK/GD32VW55X_Wifi_BLE_SDK/GD32VW55x_RELEASE_V1.0.2/MSDK/wpa_supplicant/src/tls\asn1.c **** 					   "underflow");
 641              		.loc 1 199 5 is_stmt 1
 642 00fa B7050000 		lui	a1,%hi(.LC3)
 643 00fe 93850500 		addi	a1,a1,%lo(.LC3)
 644 0102 25B7     		j	.L70
 645              	.LVL63:
 646              	.L34:
 647              	.LBE79:
 219:C:/Users/stapi/OneDrive/Desktop/GD32VW553/V1_MQTT_OK/GD32VW55X_Wifi_BLE_SDK/GD32VW55x_RELEASE_V1.0.2/MSDK/wpa_supplicant/src/tls\asn1.c **** 
 648              		.loc 1 219 3
 219:C:/Users/stapi/OneDrive/Desktop/GD32VW553/V1_MQTT_OK/GD32VW55X_Wifi_BLE_SDK/GD32VW55x_RELEASE_V1.0.2/MSDK/wpa_supplicant/src/tls\asn1.c **** 
 649              		.loc 1 219 30 is_stmt 0
 650 0104 1CC4     		sw	a5,8(s0)
 651              	.L40:
 221:C:/Users/stapi/OneDrive/Desktop/GD32VW553/V1_MQTT_OK/GD32VW55X_Wifi_BLE_SDK/GD32VW55x_RELEASE_V1.0.2/MSDK/wpa_supplicant/src/tls\asn1.c **** 		wpa_printf(MSG_DEBUG, "ASN.1: No room for Length");
 652              		.loc 1 221 2 is_stmt 1
 221:C:/Users/stapi/OneDrive/Desktop/GD32VW553/V1_MQTT_OK/GD32VW55X_Wifi_BLE_SDK/GD32VW55x_RELEASE_V1.0.2/MSDK/wpa_supplicant/src/tls\asn1.c **** 		wpa_printf(MSG_DEBUG, "ASN.1: No room for Length");
 653              		.loc 1 221 5 is_stmt 0
 654 0106 63679900 		bltu	s2,s1,.L41
 222:C:/Users/stapi/OneDrive/Desktop/GD32VW553/V1_MQTT_OK/GD32VW55X_Wifi_BLE_SDK/GD32VW55x_RELEASE_V1.0.2/MSDK/wpa_supplicant/src/tls\asn1.c **** 		return -1;
 655              		.loc 1 222 3 is_stmt 1
 656 010a B7050000 		lui	a1,%hi(.LC7)
 657 010e 93850500 		addi	a1,a1,%lo(.LC7)
 658 0112 21BF     		j	.L70
 659              	.L41:
 225:C:/Users/stapi/OneDrive/Desktop/GD32VW553/V1_MQTT_OK/GD32VW55X_Wifi_BLE_SDK/GD32VW55x_RELEASE_V1.0.2/MSDK/wpa_supplicant/src/tls\asn1.c **** 	if (tmp & 0x80) {
 660              		.loc 1 225 2
 225:C:/Users/stapi/OneDrive/Desktop/GD32VW553/V1_MQTT_OK/GD32VW55X_Wifi_BLE_SDK/GD32VW55x_RELEASE_V1.0.2/MSDK/wpa_supplicant/src/tls\asn1.c **** 	if (tmp & 0x80) {
 661              		.loc 1 225 6 is_stmt 0
 662 0114 83470900 		lbu	a5,0(s2)
 225:C:/Users/stapi/OneDrive/Desktop/GD32VW553/V1_MQTT_OK/GD32VW55X_Wifi_BLE_SDK/GD32VW55x_RELEASE_V1.0.2/MSDK/wpa_supplicant/src/tls\asn1.c **** 	if (tmp & 0x80) {
 663              		.loc 1 225 12
 664 0118 13071900 		addi	a4,s2,1
 665              	.LVL64:
 226:C:/Users/stapi/OneDrive/Desktop/GD32VW553/V1_MQTT_OK/GD32VW55X_Wifi_BLE_SDK/GD32VW55x_RELEASE_V1.0.2/MSDK/wpa_supplicant/src/tls\asn1.c **** 		if (tmp == 0xff) {
 666              		.loc 1 226 2 is_stmt 1
 226:C:/Users/stapi/OneDrive/Desktop/GD32VW553/V1_MQTT_OK/GD32VW55X_Wifi_BLE_SDK/GD32VW55x_RELEASE_V1.0.2/MSDK/wpa_supplicant/src/tls\asn1.c **** 		if (tmp == 0xff) {
 667              		.loc 1 226 5 is_stmt 0
 668 011c 93964760 		sext.b	a3,a5
 669 0120 63D10608 		bge	a3,zero,.L42
 227:C:/Users/stapi/OneDrive/Desktop/GD32VW553/V1_MQTT_OK/GD32VW55X_Wifi_BLE_SDK/GD32VW55x_RELEASE_V1.0.2/MSDK/wpa_supplicant/src/tls\asn1.c **** 			wpa_printf(MSG_DEBUG, "ASN.1: Reserved length "
 670              		.loc 1 227 3 is_stmt 1
 227:C:/Users/stapi/OneDrive/Desktop/GD32VW553/V1_MQTT_OK/GD32VW55X_Wifi_BLE_SDK/GD32VW55x_RELEASE_V1.0.2/MSDK/wpa_supplicant/src/tls\asn1.c **** 			wpa_printf(MSG_DEBUG, "ASN.1: Reserved length "
 671              		.loc 1 227 6 is_stmt 0
 672 0124 9306F00F 		li	a3,255
 673 0128 6397D700 		bne	a5,a3,.L43
 228:C:/Users/stapi/OneDrive/Desktop/GD32VW553/V1_MQTT_OK/GD32VW55X_Wifi_BLE_SDK/GD32VW55x_RELEASE_V1.0.2/MSDK/wpa_supplicant/src/tls\asn1.c **** 				   "value 0xff used");
 674              		.loc 1 228 4 is_stmt 1
 675 012c B7050000 		lui	a1,%hi(.LC8)
 676 0130 93850500 		addi	a1,a1,%lo(.LC8)
 677 0134 DDBD     		j	.L70
 678              	.L43:
 232:C:/Users/stapi/OneDrive/Desktop/GD32VW553/V1_MQTT_OK/GD32VW55X_Wifi_BLE_SDK/GD32VW55x_RELEASE_V1.0.2/MSDK/wpa_supplicant/src/tls\asn1.c **** 		hdr->length = 0;
 679              		.loc 1 232 3
 232:C:/Users/stapi/OneDrive/Desktop/GD32VW553/V1_MQTT_OK/GD32VW55X_Wifi_BLE_SDK/GD32VW55x_RELEASE_V1.0.2/MSDK/wpa_supplicant/src/tls\asn1.c **** 		hdr->length = 0;
 680              		.loc 1 232 7 is_stmt 0
 681 0136 93F7F707 		andi	a5,a5,127
 682              	.LVL65:
 233:C:/Users/stapi/OneDrive/Desktop/GD32VW553/V1_MQTT_OK/GD32VW55X_Wifi_BLE_SDK/GD32VW55x_RELEASE_V1.0.2/MSDK/wpa_supplicant/src/tls\asn1.c **** 		if (tmp == 0 || pos == end || *pos == 0) {
 683              		.loc 1 233 3 is_stmt 1
 233:C:/Users/stapi/OneDrive/Desktop/GD32VW553/V1_MQTT_OK/GD32VW55X_Wifi_BLE_SDK/GD32VW55x_RELEASE_V1.0.2/MSDK/wpa_supplicant/src/tls\asn1.c **** 		if (tmp == 0 || pos == end || *pos == 0) {
 684              		.loc 1 233 15 is_stmt 0
 685 013a 23260400 		sw	zero,12(s0)
 234:C:/Users/stapi/OneDrive/Desktop/GD32VW553/V1_MQTT_OK/GD32VW55X_Wifi_BLE_SDK/GD32VW55x_RELEASE_V1.0.2/MSDK/wpa_supplicant/src/tls\asn1.c **** 			wpa_printf(MSG_DEBUG,
 686              		.loc 1 234 3 is_stmt 1
 234:C:/Users/stapi/OneDrive/Desktop/GD32VW553/V1_MQTT_OK/GD32VW55X_Wifi_BLE_SDK/GD32VW55x_RELEASE_V1.0.2/MSDK/wpa_supplicant/src/tls\asn1.c **** 			wpa_printf(MSG_DEBUG,
 687              		.loc 1 234 6 is_stmt 0
 688 013e 91C7     		beq	a5,zero,.L44
 234:C:/Users/stapi/OneDrive/Desktop/GD32VW553/V1_MQTT_OK/GD32VW55X_Wifi_BLE_SDK/GD32VW55x_RELEASE_V1.0.2/MSDK/wpa_supplicant/src/tls\asn1.c **** 			wpa_printf(MSG_DEBUG,
 689              		.loc 1 234 16 discriminator 1
 690 0140 6385E400 		beq	s1,a4,.L44
 234:C:/Users/stapi/OneDrive/Desktop/GD32VW553/V1_MQTT_OK/GD32VW55X_Wifi_BLE_SDK/GD32VW55x_RELEASE_V1.0.2/MSDK/wpa_supplicant/src/tls\asn1.c **** 			wpa_printf(MSG_DEBUG,
 691              		.loc 1 234 30 discriminator 2
 692 0144 83461900 		lbu	a3,1(s2)
 693 0148 91E6     		bne	a3,zero,.L45
 694              	.L44:
 235:C:/Users/stapi/OneDrive/Desktop/GD32VW553/V1_MQTT_OK/GD32VW55X_Wifi_BLE_SDK/GD32VW55x_RELEASE_V1.0.2/MSDK/wpa_supplicant/src/tls\asn1.c **** 				   "ASN.1: Definite long form of the length does not start with a nonzero value");
 695              		.loc 1 235 4 is_stmt 1
 696 014a B7050000 		lui	a1,%hi(.LC9)
 697 014e 93850500 		addi	a1,a1,%lo(.LC9)
 698 0152 E1BD     		j	.L70
 699              	.L45:
 239:C:/Users/stapi/OneDrive/Desktop/GD32VW553/V1_MQTT_OK/GD32VW55X_Wifi_BLE_SDK/GD32VW55x_RELEASE_V1.0.2/MSDK/wpa_supplicant/src/tls\asn1.c **** 			wpa_printf(MSG_DEBUG, "ASN.1: Too long length field");
 700              		.loc 1 239 3
 239:C:/Users/stapi/OneDrive/Desktop/GD32VW553/V1_MQTT_OK/GD32VW55X_Wifi_BLE_SDK/GD32VW55x_RELEASE_V1.0.2/MSDK/wpa_supplicant/src/tls\asn1.c **** 			wpa_printf(MSG_DEBUG, "ASN.1: Too long length field");
 701              		.loc 1 239 6 is_stmt 0
 702 0154 9146     		li	a3,4
 243:C:/Users/stapi/OneDrive/Desktop/GD32VW553/V1_MQTT_OK/GD32VW55X_Wifi_BLE_SDK/GD32VW55x_RELEASE_V1.0.2/MSDK/wpa_supplicant/src/tls\asn1.c **** 			if (pos >= end) {
 703              		.loc 1 243 9
 704 0156 1306F00F 		li	a2,255
 239:C:/Users/stapi/OneDrive/Desktop/GD32VW553/V1_MQTT_OK/GD32VW55X_Wifi_BLE_SDK/GD32VW55x_RELEASE_V1.0.2/MSDK/wpa_supplicant/src/tls\asn1.c **** 			wpa_printf(MSG_DEBUG, "ASN.1: Too long length field");
 705              		.loc 1 239 6
 706 015a 63F5F602 		bleu	a5,a3,.L46
 240:C:/Users/stapi/OneDrive/Desktop/GD32VW553/V1_MQTT_OK/GD32VW55X_Wifi_BLE_SDK/GD32VW55x_RELEASE_V1.0.2/MSDK/wpa_supplicant/src/tls\asn1.c **** 			return -1;
 707              		.loc 1 240 4 is_stmt 1
 708 015e B7050000 		lui	a1,%hi(.LC10)
 709 0162 93850500 		addi	a1,a1,%lo(.LC10)
 710 0166 D1B5     		j	.L70
 711              	.L48:
 244:C:/Users/stapi/OneDrive/Desktop/GD32VW553/V1_MQTT_OK/GD32VW55X_Wifi_BLE_SDK/GD32VW55x_RELEASE_V1.0.2/MSDK/wpa_supplicant/src/tls\asn1.c **** 				wpa_printf(MSG_DEBUG, "ASN.1: Length "
 712              		.loc 1 244 4
 244:C:/Users/stapi/OneDrive/Desktop/GD32VW553/V1_MQTT_OK/GD32VW55X_Wifi_BLE_SDK/GD32VW55x_RELEASE_V1.0.2/MSDK/wpa_supplicant/src/tls\asn1.c **** 				wpa_printf(MSG_DEBUG, "ASN.1: Length "
 713              		.loc 1 244 7 is_stmt 0
 714 0168 63179700 		bne	a4,s1,.L47
 245:C:/Users/stapi/OneDrive/Desktop/GD32VW553/V1_MQTT_OK/GD32VW55X_Wifi_BLE_SDK/GD32VW55x_RELEASE_V1.0.2/MSDK/wpa_supplicant/src/tls\asn1.c **** 					   "underflow");
 715              		.loc 1 245 5 is_stmt 1
 716 016c B7050000 		lui	a1,%hi(.LC11)
 717 0170 93850500 		addi	a1,a1,%lo(.LC11)
 718 0174 5DBD     		j	.L70
 719              	.L47:
 249:C:/Users/stapi/OneDrive/Desktop/GD32VW553/V1_MQTT_OK/GD32VW55X_Wifi_BLE_SDK/GD32VW55x_RELEASE_V1.0.2/MSDK/wpa_supplicant/src/tls\asn1.c **** 		}
 720              		.loc 1 249 4
 249:C:/Users/stapi/OneDrive/Desktop/GD32VW553/V1_MQTT_OK/GD32VW55X_Wifi_BLE_SDK/GD32VW55x_RELEASE_V1.0.2/MSDK/wpa_supplicant/src/tls\asn1.c **** 		}
 721              		.loc 1 249 31 is_stmt 0
 722 0176 5444     		lw	a3,12(s0)
 249:C:/Users/stapi/OneDrive/Desktop/GD32VW553/V1_MQTT_OK/GD32VW55X_Wifi_BLE_SDK/GD32VW55x_RELEASE_V1.0.2/MSDK/wpa_supplicant/src/tls\asn1.c **** 		}
 723              		.loc 1 249 39
 724 0178 83450700 		lbu	a1,0(a4)
 249:C:/Users/stapi/OneDrive/Desktop/GD32VW553/V1_MQTT_OK/GD32VW55X_Wifi_BLE_SDK/GD32VW55x_RELEASE_V1.0.2/MSDK/wpa_supplicant/src/tls\asn1.c **** 		}
 725              		.loc 1 249 43
 726 017c 0507     		addi	a4,a4,1
 727              	.LVL66:
 249:C:/Users/stapi/OneDrive/Desktop/GD32VW553/V1_MQTT_OK/GD32VW55X_Wifi_BLE_SDK/GD32VW55x_RELEASE_V1.0.2/MSDK/wpa_supplicant/src/tls\asn1.c **** 		}
 728              		.loc 1 249 31
 729 017e A206     		slli	a3,a3,8
 249:C:/Users/stapi/OneDrive/Desktop/GD32VW553/V1_MQTT_OK/GD32VW55X_Wifi_BLE_SDK/GD32VW55x_RELEASE_V1.0.2/MSDK/wpa_supplicant/src/tls\asn1.c **** 		}
 730              		.loc 1 249 37
 731 0180 CD8E     		or	a3,a3,a1
 249:C:/Users/stapi/OneDrive/Desktop/GD32VW553/V1_MQTT_OK/GD32VW55X_Wifi_BLE_SDK/GD32VW55x_RELEASE_V1.0.2/MSDK/wpa_supplicant/src/tls\asn1.c **** 		}
 732              		.loc 1 249 16
 733 0182 54C4     		sw	a3,12(s0)
 734              	.L46:
 243:C:/Users/stapi/OneDrive/Desktop/GD32VW553/V1_MQTT_OK/GD32VW55X_Wifi_BLE_SDK/GD32VW55x_RELEASE_V1.0.2/MSDK/wpa_supplicant/src/tls\asn1.c **** 			if (pos >= end) {
 735              		.loc 1 243 9 is_stmt 1
 243:C:/Users/stapi/OneDrive/Desktop/GD32VW553/V1_MQTT_OK/GD32VW55X_Wifi_BLE_SDK/GD32VW55x_RELEASE_V1.0.2/MSDK/wpa_supplicant/src/tls\asn1.c **** 			if (pos >= end) {
 736              		.loc 1 243 13 is_stmt 0
 737 0184 FD17     		addi	a5,a5,-1
 738              	.LVL67:
 739 0186 93F7F70F 		andi	a5,a5,0xff
 740              	.LVL68:
 243:C:/Users/stapi/OneDrive/Desktop/GD32VW553/V1_MQTT_OK/GD32VW55X_Wifi_BLE_SDK/GD32VW55x_RELEASE_V1.0.2/MSDK/wpa_supplicant/src/tls\asn1.c **** 			if (pos >= end) {
 741              		.loc 1 243 9
 742 018a E39FC7FC 		bne	a5,a2,.L48
 251:C:/Users/stapi/OneDrive/Desktop/GD32VW553/V1_MQTT_OK/GD32VW55X_Wifi_BLE_SDK/GD32VW55x_RELEASE_V1.0.2/MSDK/wpa_supplicant/src/tls\asn1.c **** 			wpa_printf(MSG_DEBUG,
 743              		.loc 1 251 3 is_stmt 1
 251:C:/Users/stapi/OneDrive/Desktop/GD32VW553/V1_MQTT_OK/GD32VW55X_Wifi_BLE_SDK/GD32VW55x_RELEASE_V1.0.2/MSDK/wpa_supplicant/src/tls\asn1.c **** 			wpa_printf(MSG_DEBUG,
 744              		.loc 1 251 6 is_stmt 0
 745 018e 5444     		lw	a3,12(s0)
 746 0190 9307F007 		li	a5,127
 747              	.LVL69:
 748 0194 63E8D700 		bgtu	a3,a5,.L49
 252:C:/Users/stapi/OneDrive/Desktop/GD32VW553/V1_MQTT_OK/GD32VW55X_Wifi_BLE_SDK/GD32VW55x_RELEASE_V1.0.2/MSDK/wpa_supplicant/src/tls\asn1.c **** 				   "ASN.1: Definite long form of the length used with too short length");
 749              		.loc 1 252 4 is_stmt 1
 750 0198 B7050000 		lui	a1,%hi(.LC12)
 751 019c 93850500 		addi	a1,a1,%lo(.LC12)
 752 01a0 69B5     		j	.L70
 753              	.LVL70:
 754              	.L42:
 258:C:/Users/stapi/OneDrive/Desktop/GD32VW553/V1_MQTT_OK/GD32VW55X_Wifi_BLE_SDK/GD32VW55x_RELEASE_V1.0.2/MSDK/wpa_supplicant/src/tls\asn1.c **** 	}
 755              		.loc 1 258 3
 258:C:/Users/stapi/OneDrive/Desktop/GD32VW553/V1_MQTT_OK/GD32VW55X_Wifi_BLE_SDK/GD32VW55x_RELEASE_V1.0.2/MSDK/wpa_supplicant/src/tls\asn1.c **** 	}
 756              		.loc 1 258 15 is_stmt 0
 757 01a2 5CC4     		sw	a5,12(s0)
 758              	.LVL71:
 759              	.L49:
 261:C:/Users/stapi/OneDrive/Desktop/GD32VW553/V1_MQTT_OK/GD32VW55X_Wifi_BLE_SDK/GD32VW55x_RELEASE_V1.0.2/MSDK/wpa_supplicant/src/tls\asn1.c **** 		wpa_printf(MSG_DEBUG, "ASN.1: Contents underflow");
 760              		.loc 1 261 2 is_stmt 1
 261:C:/Users/stapi/OneDrive/Desktop/GD32VW553/V1_MQTT_OK/GD32VW55X_Wifi_BLE_SDK/GD32VW55x_RELEASE_V1.0.2/MSDK/wpa_supplicant/src/tls\asn1.c **** 		wpa_printf(MSG_DEBUG, "ASN.1: Contents underflow");
 761              		.loc 1 261 5 is_stmt 0
 762 01a4 63E6E400 		bgtu	a4,s1,.L50
 261:C:/Users/stapi/OneDrive/Desktop/GD32VW553/V1_MQTT_OK/GD32VW55X_Wifi_BLE_SDK/GD32VW55x_RELEASE_V1.0.2/MSDK/wpa_supplicant/src/tls\asn1.c **** 		wpa_printf(MSG_DEBUG, "ASN.1: Contents underflow");
 763              		.loc 1 261 22 discriminator 1
 764 01a8 5044     		lw	a2,12(s0)
 261:C:/Users/stapi/OneDrive/Desktop/GD32VW553/V1_MQTT_OK/GD32VW55X_Wifi_BLE_SDK/GD32VW55x_RELEASE_V1.0.2/MSDK/wpa_supplicant/src/tls\asn1.c **** 		wpa_printf(MSG_DEBUG, "ASN.1: Contents underflow");
 765              		.loc 1 261 53 discriminator 1
 766 01aa 998C     		sub	s1,s1,a4
 767              	.LVL72:
 261:C:/Users/stapi/OneDrive/Desktop/GD32VW553/V1_MQTT_OK/GD32VW55X_Wifi_BLE_SDK/GD32VW55x_RELEASE_V1.0.2/MSDK/wpa_supplicant/src/tls\asn1.c **** 		wpa_printf(MSG_DEBUG, "ASN.1: Contents underflow");
 768              		.loc 1 261 16 discriminator 1
 769 01ac 63F7C400 		bleu	a2,s1,.L51
 770              	.L50:
 262:C:/Users/stapi/OneDrive/Desktop/GD32VW553/V1_MQTT_OK/GD32VW55X_Wifi_BLE_SDK/GD32VW55x_RELEASE_V1.0.2/MSDK/wpa_supplicant/src/tls\asn1.c **** 		return -1;
 771              		.loc 1 262 3 is_stmt 1
 772 01b0 B7050000 		lui	a1,%hi(.LC13)
 773 01b4 93850500 		addi	a1,a1,%lo(.LC13)
 774 01b8 8DBD     		j	.L70
 775              	.L51:
 266:C:/Users/stapi/OneDrive/Desktop/GD32VW553/V1_MQTT_OK/GD32VW55X_Wifi_BLE_SDK/GD32VW55x_RELEASE_V1.0.2/MSDK/wpa_supplicant/src/tls\asn1.c **** 
 776              		.loc 1 266 2
 777              	.LBB80:
 778              	.LBB81:
 128:C:/Users/stapi/OneDrive/Desktop/GD32VW553/V1_MQTT_OK/GD32VW55X_Wifi_BLE_SDK/GD32VW55x_RELEASE_V1.0.2/MSDK/wpa_supplicant/src/tls\asn1.c **** 		return 1;
 779              		.loc 1 128 5 is_stmt 0
 780 01ba 83475400 		lbu	a5,5(s0)
 781              	.LBE81:
 782              	.LBE80:
 266:C:/Users/stapi/OneDrive/Desktop/GD32VW553/V1_MQTT_OK/GD32VW55X_Wifi_BLE_SDK/GD32VW55x_RELEASE_V1.0.2/MSDK/wpa_supplicant/src/tls\asn1.c **** 
 783              		.loc 1 266 15
 784 01be 18C0     		sw	a4,0(s0)
 268:C:/Users/stapi/OneDrive/Desktop/GD32VW553/V1_MQTT_OK/GD32VW55X_Wifi_BLE_SDK/GD32VW55x_RELEASE_V1.0.2/MSDK/wpa_supplicant/src/tls\asn1.c **** 		asn1_print_hdr(hdr, "ASN.1: Invalid DER encoding: ");
 785              		.loc 1 268 2 is_stmt 1
 786              	.LVL73:
 787              	.LBB92:
 788              	.LBB86:
 128:C:/Users/stapi/OneDrive/Desktop/GD32VW553/V1_MQTT_OK/GD32VW55X_Wifi_BLE_SDK/GD32VW55x_RELEASE_V1.0.2/MSDK/wpa_supplicant/src/tls\asn1.c **** 		return 1;
 789              		.loc 1 128 2
 790              	.LBE86:
 791              	.LBE92:
 272:C:/Users/stapi/OneDrive/Desktop/GD32VW553/V1_MQTT_OK/GD32VW55X_Wifi_BLE_SDK/GD32VW55x_RELEASE_V1.0.2/MSDK/wpa_supplicant/src/tls\asn1.c **** }
 792              		.loc 1 272 9 is_stmt 0
 793 01c0 0145     		li	a0,0
 794              	.LBB93:
 795              	.LBB87:
 128:C:/Users/stapi/OneDrive/Desktop/GD32VW553/V1_MQTT_OK/GD32VW55X_Wifi_BLE_SDK/GD32VW55x_RELEASE_V1.0.2/MSDK/wpa_supplicant/src/tls\asn1.c **** 		return 1;
 796              		.loc 1 128 5
 797 01c2 BDEB     		bne	a5,zero,.L31
 130:C:/Users/stapi/OneDrive/Desktop/GD32VW553/V1_MQTT_OK/GD32VW55X_Wifi_BLE_SDK/GD32VW55x_RELEASE_V1.0.2/MSDK/wpa_supplicant/src/tls\asn1.c **** 		return 0;
 798              		.loc 1 130 2 is_stmt 1
 130:C:/Users/stapi/OneDrive/Desktop/GD32VW553/V1_MQTT_OK/GD32VW55X_Wifi_BLE_SDK/GD32VW55x_RELEASE_V1.0.2/MSDK/wpa_supplicant/src/tls\asn1.c **** 		return 0;
 799              		.loc 1 130 9 is_stmt 0
 800 01c4 1C44     		lw	a5,8(s0)
 130:C:/Users/stapi/OneDrive/Desktop/GD32VW553/V1_MQTT_OK/GD32VW55X_Wifi_BLE_SDK/GD32VW55x_RELEASE_V1.0.2/MSDK/wpa_supplicant/src/tls\asn1.c **** 		return 0;
 801              		.loc 1 130 5
 802 01c6 8546     		li	a3,1
 803 01c8 6396D704 		bne	a5,a3,.L52
 804              	.LVL74:
 805              	.LBB82:
 806              	.LBB83:
 109:C:/Users/stapi/OneDrive/Desktop/GD32VW553/V1_MQTT_OK/GD32VW55X_Wifi_BLE_SDK/GD32VW55x_RELEASE_V1.0.2/MSDK/wpa_supplicant/src/tls\asn1.c **** 		wpa_printf(MSG_DEBUG, "ASN.1: Unexpected BOOLEAN length (%u)",
 807              		.loc 1 109 2 is_stmt 1
 109:C:/Users/stapi/OneDrive/Desktop/GD32VW553/V1_MQTT_OK/GD32VW55X_Wifi_BLE_SDK/GD32VW55x_RELEASE_V1.0.2/MSDK/wpa_supplicant/src/tls\asn1.c **** 		wpa_printf(MSG_DEBUG, "ASN.1: Unexpected BOOLEAN length (%u)",
 808              		.loc 1 109 5 is_stmt 0
 809 01cc 6305F602 		beq	a2,a5,.L53
 110:C:/Users/stapi/OneDrive/Desktop/GD32VW553/V1_MQTT_OK/GD32VW55X_Wifi_BLE_SDK/GD32VW55x_RELEASE_V1.0.2/MSDK/wpa_supplicant/src/tls\asn1.c **** 			   hdr->length);
 810              		.loc 1 110 3 is_stmt 1
 811 01d0 B7050000 		lui	a1,%hi(.LC14)
 812 01d4 93850500 		addi	a1,a1,%lo(.LC14)
 813              	.LVL75:
 814              	.L68:
 116:C:/Users/stapi/OneDrive/Desktop/GD32VW553/V1_MQTT_OK/GD32VW55X_Wifi_BLE_SDK/GD32VW55x_RELEASE_V1.0.2/MSDK/wpa_supplicant/src/tls\asn1.c **** 			   "ASN.1: Invalid BOOLEAN value 0x%x (DER requires 0 or 0xff)",
 815              		.loc 1 116 3 is_stmt 0
 816 01d8 0945     		li	a0,2
 817 01da 97000000 		call	wpa_printf
 817      E7800000 
 818              	.LVL76:
 119:C:/Users/stapi/OneDrive/Desktop/GD32VW553/V1_MQTT_OK/GD32VW55X_Wifi_BLE_SDK/GD32VW55x_RELEASE_V1.0.2/MSDK/wpa_supplicant/src/tls\asn1.c **** 	}
 819              		.loc 1 119 3 is_stmt 1
 820              	.L54:
 821              	.LBE83:
 822              	.LBE82:
 823              	.LBE87:
 824              	.LBE93:
 269:C:/Users/stapi/OneDrive/Desktop/GD32VW553/V1_MQTT_OK/GD32VW55X_Wifi_BLE_SDK/GD32VW55x_RELEASE_V1.0.2/MSDK/wpa_supplicant/src/tls\asn1.c **** 		return -1;
 825              		.loc 1 269 3
 826 01e2 B7050000 		lui	a1,%hi(.LC16)
 827 01e6 93850500 		addi	a1,a1,%lo(.LC16)
 828 01ea 2285     		mv	a0,s0
 829 01ec 97000000 		call	asn1_print_hdr
 829      E7800000 
 830              	.LVL77:
 831 01f4 D5BD     		j	.L69
 832              	.LVL78:
 833              	.L53:
 834              	.LBB94:
 835              	.LBB88:
 836              	.LBB85:
 837              	.LBB84:
 115:C:/Users/stapi/OneDrive/Desktop/GD32VW553/V1_MQTT_OK/GD32VW55X_Wifi_BLE_SDK/GD32VW55x_RELEASE_V1.0.2/MSDK/wpa_supplicant/src/tls\asn1.c **** 		wpa_printf(MSG_DEBUG,
 838              		.loc 1 115 2
 115:C:/Users/stapi/OneDrive/Desktop/GD32VW553/V1_MQTT_OK/GD32VW55X_Wifi_BLE_SDK/GD32VW55x_RELEASE_V1.0.2/MSDK/wpa_supplicant/src/tls\asn1.c **** 		wpa_printf(MSG_DEBUG,
 839              		.loc 1 115 18 is_stmt 0
 840 01f6 03460700 		lbu	a2,0(a4)
 115:C:/Users/stapi/OneDrive/Desktop/GD32VW553/V1_MQTT_OK/GD32VW55X_Wifi_BLE_SDK/GD32VW55x_RELEASE_V1.0.2/MSDK/wpa_supplicant/src/tls\asn1.c **** 		wpa_printf(MSG_DEBUG,
 841              		.loc 1 115 5
 842 01fa 9306D00F 		li	a3,253
 115:C:/Users/stapi/OneDrive/Desktop/GD32VW553/V1_MQTT_OK/GD32VW55X_Wifi_BLE_SDK/GD32VW55x_RELEASE_V1.0.2/MSDK/wpa_supplicant/src/tls\asn1.c **** 		wpa_printf(MSG_DEBUG,
 843              		.loc 1 115 27
 844 01fe 1307F6FF 		addi	a4,a2,-1
 845              	.LVL79:
 115:C:/Users/stapi/OneDrive/Desktop/GD32VW553/V1_MQTT_OK/GD32VW55X_Wifi_BLE_SDK/GD32VW55x_RELEASE_V1.0.2/MSDK/wpa_supplicant/src/tls\asn1.c **** 		wpa_printf(MSG_DEBUG,
 846              		.loc 1 115 5
 847 0202 1377F70F 		andi	a4,a4,0xff
 848 0206 63EBE600 		bgtu	a4,a3,.L55
 116:C:/Users/stapi/OneDrive/Desktop/GD32VW553/V1_MQTT_OK/GD32VW55X_Wifi_BLE_SDK/GD32VW55x_RELEASE_V1.0.2/MSDK/wpa_supplicant/src/tls\asn1.c **** 			   "ASN.1: Invalid BOOLEAN value 0x%x (DER requires 0 or 0xff)",
 849              		.loc 1 116 3 is_stmt 1
 850 020a B7050000 		lui	a1,%hi(.LC15)
 851 020e 93850500 		addi	a1,a1,%lo(.LC15)
 852 0212 D9B7     		j	.L68
 853              	.LVL80:
 854              	.L52:
 855              	.LBE84:
 856              	.LBE85:
 132:C:/Users/stapi/OneDrive/Desktop/GD32VW553/V1_MQTT_OK/GD32VW55X_Wifi_BLE_SDK/GD32VW55x_RELEASE_V1.0.2/MSDK/wpa_supplicant/src/tls\asn1.c **** 		return 0;
 857              		.loc 1 132 2
 132:C:/Users/stapi/OneDrive/Desktop/GD32VW553/V1_MQTT_OK/GD32VW55X_Wifi_BLE_SDK/GD32VW55x_RELEASE_V1.0.2/MSDK/wpa_supplicant/src/tls\asn1.c **** 		return 0;
 858              		.loc 1 132 5 is_stmt 0
 859 0214 1547     		li	a4,5
 860              	.LVL81:
 861 0216 6393E700 		bne	a5,a4,.L55
 132:C:/Users/stapi/OneDrive/Desktop/GD32VW553/V1_MQTT_OK/GD32VW55X_Wifi_BLE_SDK/GD32VW55x_RELEASE_V1.0.2/MSDK/wpa_supplicant/src/tls\asn1.c **** 		return 0;
 862              		.loc 1 132 32
 863 021a 61F6     		bne	a2,zero,.L54
 864              	.L55:
 136:C:/Users/stapi/OneDrive/Desktop/GD32VW553/V1_MQTT_OK/GD32VW55X_Wifi_BLE_SDK/GD32VW55x_RELEASE_V1.0.2/MSDK/wpa_supplicant/src/tls\asn1.c **** 	    (hdr->tag == ASN1_TAG_BOOLEAN ||
 865              		.loc 1 136 2 is_stmt 1
 136:C:/Users/stapi/OneDrive/Desktop/GD32VW553/V1_MQTT_OK/GD32VW55X_Wifi_BLE_SDK/GD32VW55x_RELEASE_V1.0.2/MSDK/wpa_supplicant/src/tls\asn1.c **** 	    (hdr->tag == ASN1_TAG_BOOLEAN ||
 866              		.loc 1 136 5 is_stmt 0
 867 021c 03476400 		lbu	a4,6(s0)
 868 0220 05C3     		beq	a4,zero,.L56
 136:C:/Users/stapi/OneDrive/Desktop/GD32VW553/V1_MQTT_OK/GD32VW55X_Wifi_BLE_SDK/GD32VW55x_RELEASE_V1.0.2/MSDK/wpa_supplicant/src/tls\asn1.c **** 	    (hdr->tag == ASN1_TAG_BOOLEAN ||
 869              		.loc 1 136 23
 870 0222 7947     		li	a4,30
 871              	.LBE88:
 872              	.LBE94:
 272:C:/Users/stapi/OneDrive/Desktop/GD32VW553/V1_MQTT_OK/GD32VW55X_Wifi_BLE_SDK/GD32VW55x_RELEASE_V1.0.2/MSDK/wpa_supplicant/src/tls\asn1.c **** }
 873              		.loc 1 272 9
 874 0224 0145     		li	a0,0
 875              	.LBB95:
 876              	.LBB89:
 136:C:/Users/stapi/OneDrive/Desktop/GD32VW553/V1_MQTT_OK/GD32VW55X_Wifi_BLE_SDK/GD32VW55x_RELEASE_V1.0.2/MSDK/wpa_supplicant/src/tls\asn1.c **** 	    (hdr->tag == ASN1_TAG_BOOLEAN ||
 877              		.loc 1 136 23
 878 0226 6369F700 		bgtu	a5,a4,.L31
 879 022a 3777FC7F 		li	a4,2147250176
 880 022e 1307E767 		addi	a4,a4,1662
 881 0232 B357F748 		bext	a5,a4,a5
 882 0236 D5F7     		bne	a5,zero,.L54
 883              	.LVL82:
 884              	.L31:
 885              	.LBE89:
 886              	.LBE95:
 273:C:/Users/stapi/OneDrive/Desktop/GD32VW553/V1_MQTT_OK/GD32VW55X_Wifi_BLE_SDK/GD32VW55x_RELEASE_V1.0.2/MSDK/wpa_supplicant/src/tls\asn1.c **** 
 887              		.loc 1 273 1
 888 0238 17030000 		tail	__riscv_restore_7
 888      67000300 
 889              		.cfi_remember_state
 890              		.cfi_restore 22
 891              		.cfi_restore 21
 892              		.cfi_restore 20
 893              		.cfi_restore 19
 894              		.cfi_restore 18
 895              		.cfi_restore 9
 896              		.cfi_restore 8
 897              		.cfi_restore 1
 898              		.cfi_def_cfa_offset 0
 899              	.LVL83:
 900              	.L56:
 901              		.cfi_restore_state
 902              	.LBB96:
 903              	.LBB90:
 162:C:/Users/stapi/OneDrive/Desktop/GD32VW553/V1_MQTT_OK/GD32VW55X_Wifi_BLE_SDK/GD32VW55x_RELEASE_V1.0.2/MSDK/wpa_supplicant/src/tls\asn1.c **** 	    (hdr->tag == ASN1_TAG_SEQUENCE ||
 904              		.loc 1 162 2 is_stmt 1
 163:C:/Users/stapi/OneDrive/Desktop/GD32VW553/V1_MQTT_OK/GD32VW55X_Wifi_BLE_SDK/GD32VW55x_RELEASE_V1.0.2/MSDK/wpa_supplicant/src/tls\asn1.c **** 	     hdr->tag == ASN1_TAG_SET))
 905              		.loc 1 163 37 is_stmt 0
 906 0240 C117     		addi	a5,a5,-16
 162:C:/Users/stapi/OneDrive/Desktop/GD32VW553/V1_MQTT_OK/GD32VW55X_Wifi_BLE_SDK/GD32VW55x_RELEASE_V1.0.2/MSDK/wpa_supplicant/src/tls\asn1.c **** 	    (hdr->tag == ASN1_TAG_SEQUENCE ||
 907              		.loc 1 162 24
 908 0242 0547     		li	a4,1
 909              	.LBE90:
 910              	.LBE96:
 272:C:/Users/stapi/OneDrive/Desktop/GD32VW553/V1_MQTT_OK/GD32VW55X_Wifi_BLE_SDK/GD32VW55x_RELEASE_V1.0.2/MSDK/wpa_supplicant/src/tls\asn1.c **** }
 911              		.loc 1 272 9
 912 0244 0145     		li	a0,0
 913              	.LBB97:
 914              	.LBB91:
 162:C:/Users/stapi/OneDrive/Desktop/GD32VW553/V1_MQTT_OK/GD32VW55X_Wifi_BLE_SDK/GD32VW55x_RELEASE_V1.0.2/MSDK/wpa_supplicant/src/tls\asn1.c **** 	    (hdr->tag == ASN1_TAG_SEQUENCE ||
 915              		.loc 1 162 24
 916 0246 E369F7FE 		bgtu	a5,a4,.L31
 917 024a 61BF     		j	.L54
 918              	.LBE91:
 919              	.LBE97:
 920              		.cfi_endproc
 921              	.LFE88:
 923              		.section	.rodata.asn1_unexpected.str1.4,"aMS",@progbits,1
 924              		.align	2
 925              	.LC17:
 926 0000 2573202D 		.string	"%s - found class %d constructed %d tag 0x%x"
 926      20666F75 
 926      6E642063 
 926      6C617373 
 926      20256420 
 927              		.section	.text.asn1_unexpected,"ax",@progbits
 928              		.align	1
 929              		.globl	asn1_unexpected
 931              	asn1_unexpected:
 932              	.LFB90:
 284:C:/Users/stapi/OneDrive/Desktop/GD32VW553/V1_MQTT_OK/GD32VW55X_Wifi_BLE_SDK/GD32VW55x_RELEASE_V1.0.2/MSDK/wpa_supplicant/src/tls\asn1.c **** 	wpa_printf(MSG_DEBUG, "%s - found class %d constructed %d tag 0x%x",
 933              		.loc 1 284 1 is_stmt 1
 934              		.cfi_startproc
 935              	.LVL84:
 285:C:/Users/stapi/OneDrive/Desktop/GD32VW553/V1_MQTT_OK/GD32VW55X_Wifi_BLE_SDK/GD32VW55x_RELEASE_V1.0.2/MSDK/wpa_supplicant/src/tls\asn1.c **** 		   title, hdr->class, hdr->constructed, hdr->tag);
 936              		.loc 1 285 2
 937 0000 1C45     		lw	a5,8(a0)
 938 0002 03476500 		lbu	a4,6(a0)
 939 0006 83465500 		lbu	a3,5(a0)
 284:C:/Users/stapi/OneDrive/Desktop/GD32VW553/V1_MQTT_OK/GD32VW55X_Wifi_BLE_SDK/GD32VW55x_RELEASE_V1.0.2/MSDK/wpa_supplicant/src/tls\asn1.c **** 	wpa_printf(MSG_DEBUG, "%s - found class %d constructed %d tag 0x%x",
 940              		.loc 1 284 1 is_stmt 0
 941 000a 2E86     		mv	a2,a1
 285:C:/Users/stapi/OneDrive/Desktop/GD32VW553/V1_MQTT_OK/GD32VW55X_Wifi_BLE_SDK/GD32VW55x_RELEASE_V1.0.2/MSDK/wpa_supplicant/src/tls\asn1.c **** 		   title, hdr->class, hdr->constructed, hdr->tag);
 942              		.loc 1 285 2
 943 000c B7050000 		lui	a1,%hi(.LC17)
 944              	.LVL85:
 945 0010 93850500 		addi	a1,a1,%lo(.LC17)
 946 0014 0945     		li	a0,2
 947              	.LVL86:
 948 0016 17030000 		tail	wpa_printf
 948      67000300 
 949              	.LVL87:
 950              		.cfi_endproc
 951              	.LFE90:
 953              		.section	.rodata.asn1_parse_oid.str1.4,"aMS",@progbits,1
 954              		.align	2
 955              	.LC18:
 956 0000 41534E2E 		.string	"ASN.1: Too long OID value"
 956      313A2054 
 956      6F6F206C 
 956      6F6E6720 
 956      4F494420 
 957              		.section	.text.asn1_parse_oid,"ax",@progbits
 958              		.align	1
 959              		.globl	asn1_parse_oid
 961              	asn1_parse_oid:
 962              	.LFB91:
 291:C:/Users/stapi/OneDrive/Desktop/GD32VW553/V1_MQTT_OK/GD32VW55X_Wifi_BLE_SDK/GD32VW55x_RELEASE_V1.0.2/MSDK/wpa_supplicant/src/tls\asn1.c **** 	const u8 *pos, *end;
 963              		.loc 1 291 1 is_stmt 1
 964              		.cfi_startproc
 965              	.LVL88:
 966 0000 17030000 		call	t0,__riscv_save_3
 966      E7020300 
 967              		.cfi_offset 18, -16
 968              		.cfi_offset 9, -12
 969              		.cfi_offset 8, -8
 970              		.cfi_offset 1, -4
 971              		.cfi_def_cfa_offset 16
 292:C:/Users/stapi/OneDrive/Desktop/GD32VW553/V1_MQTT_OK/GD32VW55X_Wifi_BLE_SDK/GD32VW55x_RELEASE_V1.0.2/MSDK/wpa_supplicant/src/tls\asn1.c **** 	unsigned long val;
 972              		.loc 1 292 2
 293:C:/Users/stapi/OneDrive/Desktop/GD32VW553/V1_MQTT_OK/GD32VW55X_Wifi_BLE_SDK/GD32VW55x_RELEASE_V1.0.2/MSDK/wpa_supplicant/src/tls\asn1.c **** 	u8 tmp;
 973              		.loc 1 293 2
 294:C:/Users/stapi/OneDrive/Desktop/GD32VW553/V1_MQTT_OK/GD32VW55X_Wifi_BLE_SDK/GD32VW55x_RELEASE_V1.0.2/MSDK/wpa_supplicant/src/tls\asn1.c **** 
 974              		.loc 1 294 2
 296:C:/Users/stapi/OneDrive/Desktop/GD32VW553/V1_MQTT_OK/GD32VW55X_Wifi_BLE_SDK/GD32VW55x_RELEASE_V1.0.2/MSDK/wpa_supplicant/src/tls\asn1.c **** 
 975              		.loc 1 296 2
 291:C:/Users/stapi/OneDrive/Desktop/GD32VW553/V1_MQTT_OK/GD32VW55X_Wifi_BLE_SDK/GD32VW55x_RELEASE_V1.0.2/MSDK/wpa_supplicant/src/tls\asn1.c **** 	const u8 *pos, *end;
 976              		.loc 1 291 1 is_stmt 0
 977 0008 3284     		mv	s0,a2
 978 000a AA84     		mv	s1,a0
 979 000c 2E89     		mv	s2,a1
 296:C:/Users/stapi/OneDrive/Desktop/GD32VW553/V1_MQTT_OK/GD32VW55X_Wifi_BLE_SDK/GD32VW55x_RELEASE_V1.0.2/MSDK/wpa_supplicant/src/tls\asn1.c **** 
 980              		.loc 1 296 2
 981 000e 13064005 		li	a2,84
 982              	.LVL89:
 983 0012 8145     		li	a1,0
 984              	.LVL90:
 985 0014 2285     		mv	a0,s0
 986              	.LVL91:
 987 0016 97000000 		call	os_memset
 987      E7800000 
 988              	.LVL92:
 298:C:/Users/stapi/OneDrive/Desktop/GD32VW553/V1_MQTT_OK/GD32VW55X_Wifi_BLE_SDK/GD32VW55x_RELEASE_V1.0.2/MSDK/wpa_supplicant/src/tls\asn1.c **** 	end = buf + len;
 989              		.loc 1 298 2 is_stmt 1
 299:C:/Users/stapi/OneDrive/Desktop/GD32VW553/V1_MQTT_OK/GD32VW55X_Wifi_BLE_SDK/GD32VW55x_RELEASE_V1.0.2/MSDK/wpa_supplicant/src/tls\asn1.c **** 
 990              		.loc 1 299 2
 299:C:/Users/stapi/OneDrive/Desktop/GD32VW553/V1_MQTT_OK/GD32VW55X_Wifi_BLE_SDK/GD32VW55x_RELEASE_V1.0.2/MSDK/wpa_supplicant/src/tls\asn1.c **** 
 991              		.loc 1 299 6 is_stmt 0
 992 001e B3852401 		add	a1,s1,s2
 993              	.LVL93:
 301:C:/Users/stapi/OneDrive/Desktop/GD32VW553/V1_MQTT_OK/GD32VW55X_Wifi_BLE_SDK/GD32VW55x_RELEASE_V1.0.2/MSDK/wpa_supplicant/src/tls\asn1.c **** 		val = 0;
 994              		.loc 1 301 2 is_stmt 1
 311:C:/Users/stapi/OneDrive/Desktop/GD32VW553/V1_MQTT_OK/GD32VW55X_Wifi_BLE_SDK/GD32VW55x_RELEASE_V1.0.2/MSDK/wpa_supplicant/src/tls\asn1.c **** 			wpa_printf(MSG_DEBUG, "ASN.1: Too long OID value");
 995              		.loc 1 311 6 is_stmt 0
 996 0022 4D45     		li	a0,19
 322:C:/Users/stapi/OneDrive/Desktop/GD32VW553/V1_MQTT_OK/GD32VW55X_Wifi_BLE_SDK/GD32VW55x_RELEASE_V1.0.2/MSDK/wpa_supplicant/src/tls\asn1.c **** 				oid->oid[0] = 2;
 997              		.loc 1 322 7
 998 0024 13087007 		li	a6,119
 324:C:/Users/stapi/OneDrive/Desktop/GD32VW553/V1_MQTT_OK/GD32VW55X_Wifi_BLE_SDK/GD32VW55x_RELEASE_V1.0.2/MSDK/wpa_supplicant/src/tls\asn1.c **** 			oid->len = 2;
 999              		.loc 1 324 36
 1000 0028 93068002 		li	a3,40
 325:C:/Users/stapi/OneDrive/Desktop/GD32VW553/V1_MQTT_OK/GD32VW55X_Wifi_BLE_SDK/GD32VW55x_RELEASE_V1.0.2/MSDK/wpa_supplicant/src/tls\asn1.c **** 		} else
 1001              		.loc 1 325 13
 1002 002c 0946     		li	a2,2
 1003              	.LVL94:
 1004              	.L74:
 301:C:/Users/stapi/OneDrive/Desktop/GD32VW553/V1_MQTT_OK/GD32VW55X_Wifi_BLE_SDK/GD32VW55x_RELEASE_V1.0.2/MSDK/wpa_supplicant/src/tls\asn1.c **** 		val = 0;
 1005              		.loc 1 301 8 is_stmt 1
 1006 002e 63EBB400 		bltu	s1,a1,.L84
 330:C:/Users/stapi/OneDrive/Desktop/GD32VW553/V1_MQTT_OK/GD32VW55X_Wifi_BLE_SDK/GD32VW55x_RELEASE_V1.0.2/MSDK/wpa_supplicant/src/tls\asn1.c **** }
 1007              		.loc 1 330 9 is_stmt 0
 1008 0032 0145     		li	a0,0
 1009              	.LVL95:
 1010              	.L73:
 331:C:/Users/stapi/OneDrive/Desktop/GD32VW553/V1_MQTT_OK/GD32VW55X_Wifi_BLE_SDK/GD32VW55x_RELEASE_V1.0.2/MSDK/wpa_supplicant/src/tls\asn1.c **** 
 1011              		.loc 1 331 1
 1012 0034 17030000 		tail	__riscv_restore_3
 1012      67000300 
 1013              		.cfi_remember_state
 1014              		.cfi_restore 18
 1015              		.cfi_restore 9
 1016              		.cfi_restore 8
 1017              		.cfi_restore 1
 1018              		.cfi_def_cfa_offset 0
 1019              	.LVL96:
 1020              	.L76:
 1021              		.cfi_restore_state
 304:C:/Users/stapi/OneDrive/Desktop/GD32VW553/V1_MQTT_OK/GD32VW55X_Wifi_BLE_SDK/GD32VW55x_RELEASE_V1.0.2/MSDK/wpa_supplicant/src/tls\asn1.c **** 			if (pos >= end)
 1022              		.loc 1 304 3 is_stmt 1
 305:C:/Users/stapi/OneDrive/Desktop/GD32VW553/V1_MQTT_OK/GD32VW55X_Wifi_BLE_SDK/GD32VW55x_RELEASE_V1.0.2/MSDK/wpa_supplicant/src/tls\asn1.c **** 				return -1;
 1023              		.loc 1 305 4
 305:C:/Users/stapi/OneDrive/Desktop/GD32VW553/V1_MQTT_OK/GD32VW55X_Wifi_BLE_SDK/GD32VW55x_RELEASE_V1.0.2/MSDK/wpa_supplicant/src/tls\asn1.c **** 				return -1;
 1024              		.loc 1 305 7 is_stmt 0
 1025 003c 63959500 		bne	a1,s1,.L82
 1026              	.LVL97:
 1027              	.L83:
 306:C:/Users/stapi/OneDrive/Desktop/GD32VW553/V1_MQTT_OK/GD32VW55X_Wifi_BLE_SDK/GD32VW55x_RELEASE_V1.0.2/MSDK/wpa_supplicant/src/tls\asn1.c **** 			tmp = *pos++;
 1028              		.loc 1 306 12
 1029 0040 7D55     		li	a0,-1
 1030 0042 CDBF     		j	.L73
 1031              	.LVL98:
 1032              	.L84:
 302:C:/Users/stapi/OneDrive/Desktop/GD32VW553/V1_MQTT_OK/GD32VW55X_Wifi_BLE_SDK/GD32VW55x_RELEASE_V1.0.2/MSDK/wpa_supplicant/src/tls\asn1.c **** 
 1033              		.loc 1 302 7
 1034 0044 8147     		li	a5,0
 1035              	.L82:
 1036              	.LVL99:
 307:C:/Users/stapi/OneDrive/Desktop/GD32VW553/V1_MQTT_OK/GD32VW55X_Wifi_BLE_SDK/GD32VW55x_RELEASE_V1.0.2/MSDK/wpa_supplicant/src/tls\asn1.c **** 			val = (val << 7) | (tmp & 0x7f);
 1037              		.loc 1 307 4 is_stmt 1
 307:C:/Users/stapi/OneDrive/Desktop/GD32VW553/V1_MQTT_OK/GD32VW55X_Wifi_BLE_SDK/GD32VW55x_RELEASE_V1.0.2/MSDK/wpa_supplicant/src/tls\asn1.c **** 			val = (val << 7) | (tmp & 0x7f);
 1038              		.loc 1 307 8 is_stmt 0
 1039 0046 03C70400 		lbu	a4,0(s1)
 308:C:/Users/stapi/OneDrive/Desktop/GD32VW553/V1_MQTT_OK/GD32VW55X_Wifi_BLE_SDK/GD32VW55x_RELEASE_V1.0.2/MSDK/wpa_supplicant/src/tls\asn1.c **** 		} while (tmp & 0x80);
 1040              		.loc 1 308 15
 1041 004a 9E07     		slli	a5,a5,7
 1042              	.LVL100:
 307:C:/Users/stapi/OneDrive/Desktop/GD32VW553/V1_MQTT_OK/GD32VW55X_Wifi_BLE_SDK/GD32VW55x_RELEASE_V1.0.2/MSDK/wpa_supplicant/src/tls\asn1.c **** 			val = (val << 7) | (tmp & 0x7f);
 1043              		.loc 1 307 14
 1044 004c 8504     		addi	s1,s1,1
 1045              	.LVL101:
 308:C:/Users/stapi/OneDrive/Desktop/GD32VW553/V1_MQTT_OK/GD32VW55X_Wifi_BLE_SDK/GD32VW55x_RELEASE_V1.0.2/MSDK/wpa_supplicant/src/tls\asn1.c **** 		} while (tmp & 0x80);
 1046              		.loc 1 308 4 is_stmt 1
 308:C:/Users/stapi/OneDrive/Desktop/GD32VW553/V1_MQTT_OK/GD32VW55X_Wifi_BLE_SDK/GD32VW55x_RELEASE_V1.0.2/MSDK/wpa_supplicant/src/tls\asn1.c **** 		} while (tmp & 0x80);
 1047              		.loc 1 308 28 is_stmt 0
 1048 004e 9378F707 		andi	a7,a4,127
 308:C:/Users/stapi/OneDrive/Desktop/GD32VW553/V1_MQTT_OK/GD32VW55X_Wifi_BLE_SDK/GD32VW55x_RELEASE_V1.0.2/MSDK/wpa_supplicant/src/tls\asn1.c **** 		} while (tmp & 0x80);
 1049              		.loc 1 308 8
 1050 0052 B3E7F800 		or	a5,a7,a5
 1051              	.LVL102:
 309:C:/Users/stapi/OneDrive/Desktop/GD32VW553/V1_MQTT_OK/GD32VW55X_Wifi_BLE_SDK/GD32VW55x_RELEASE_V1.0.2/MSDK/wpa_supplicant/src/tls\asn1.c **** 
 1052              		.loc 1 309 11 is_stmt 1
 309:C:/Users/stapi/OneDrive/Desktop/GD32VW553/V1_MQTT_OK/GD32VW55X_Wifi_BLE_SDK/GD32VW55x_RELEASE_V1.0.2/MSDK/wpa_supplicant/src/tls\asn1.c **** 
 1053              		.loc 1 309 3 is_stmt 0
 1054 0056 13174760 		sext.b	a4,a4
 1055 005a E34107FE 		blt	a4,zero,.L76
 311:C:/Users/stapi/OneDrive/Desktop/GD32VW553/V1_MQTT_OK/GD32VW55X_Wifi_BLE_SDK/GD32VW55x_RELEASE_V1.0.2/MSDK/wpa_supplicant/src/tls\asn1.c **** 			wpa_printf(MSG_DEBUG, "ASN.1: Too long OID value");
 1056              		.loc 1 311 3 is_stmt 1
 311:C:/Users/stapi/OneDrive/Desktop/GD32VW553/V1_MQTT_OK/GD32VW55X_Wifi_BLE_SDK/GD32VW55x_RELEASE_V1.0.2/MSDK/wpa_supplicant/src/tls\asn1.c **** 			wpa_printf(MSG_DEBUG, "ASN.1: Too long OID value");
 1057              		.loc 1 311 10 is_stmt 0
 1058 005e 3848     		lw	a4,80(s0)
 1059              	.LVL103:
 311:C:/Users/stapi/OneDrive/Desktop/GD32VW553/V1_MQTT_OK/GD32VW55X_Wifi_BLE_SDK/GD32VW55x_RELEASE_V1.0.2/MSDK/wpa_supplicant/src/tls\asn1.c **** 			wpa_printf(MSG_DEBUG, "ASN.1: Too long OID value");
 1060              		.loc 1 311 6
 1061 0060 637CE500 		bleu	a4,a0,.L77
 312:C:/Users/stapi/OneDrive/Desktop/GD32VW553/V1_MQTT_OK/GD32VW55X_Wifi_BLE_SDK/GD32VW55x_RELEASE_V1.0.2/MSDK/wpa_supplicant/src/tls\asn1.c **** 			return -1;
 1062              		.loc 1 312 4 is_stmt 1
 1063 0064 B7050000 		lui	a1,%hi(.LC18)
 1064              	.LVL104:
 1065 0068 93850500 		addi	a1,a1,%lo(.LC18)
 1066 006c 0945     		li	a0,2
 1067 006e 97000000 		call	wpa_printf
 1067      E7800000 
 1068              	.LVL105:
 313:C:/Users/stapi/OneDrive/Desktop/GD32VW553/V1_MQTT_OK/GD32VW55X_Wifi_BLE_SDK/GD32VW55x_RELEASE_V1.0.2/MSDK/wpa_supplicant/src/tls\asn1.c **** 		}
 1069              		.loc 1 313 4
 1070 0076 E9B7     		j	.L83
 1071              	.LVL106:
 1072              	.L77:
 315:C:/Users/stapi/OneDrive/Desktop/GD32VW553/V1_MQTT_OK/GD32VW55X_Wifi_BLE_SDK/GD32VW55x_RELEASE_V1.0.2/MSDK/wpa_supplicant/src/tls\asn1.c **** 			/*
 1073              		.loc 1 315 3
 315:C:/Users/stapi/OneDrive/Desktop/GD32VW553/V1_MQTT_OK/GD32VW55X_Wifi_BLE_SDK/GD32VW55x_RELEASE_V1.0.2/MSDK/wpa_supplicant/src/tls\asn1.c **** 			/*
 1074              		.loc 1 315 6 is_stmt 0
 1075 0078 11EF     		bne	a4,zero,.L78
 321:C:/Users/stapi/OneDrive/Desktop/GD32VW553/V1_MQTT_OK/GD32VW55X_Wifi_BLE_SDK/GD32VW55x_RELEASE_V1.0.2/MSDK/wpa_supplicant/src/tls\asn1.c **** 			if (oid->oid[0] > 2)
 1076              		.loc 1 321 4 is_stmt 1
 322:C:/Users/stapi/OneDrive/Desktop/GD32VW553/V1_MQTT_OK/GD32VW55X_Wifi_BLE_SDK/GD32VW55x_RELEASE_V1.0.2/MSDK/wpa_supplicant/src/tls\asn1.c **** 				oid->oid[0] = 2;
 1077              		.loc 1 322 4
 322:C:/Users/stapi/OneDrive/Desktop/GD32VW553/V1_MQTT_OK/GD32VW55X_Wifi_BLE_SDK/GD32VW55x_RELEASE_V1.0.2/MSDK/wpa_supplicant/src/tls\asn1.c **** 				oid->oid[0] = 2;
 1078              		.loc 1 322 7 is_stmt 0
 1079 007a 636BF800 		bgtu	a5,a6,.L79
 321:C:/Users/stapi/OneDrive/Desktop/GD32VW553/V1_MQTT_OK/GD32VW55X_Wifi_BLE_SDK/GD32VW55x_RELEASE_V1.0.2/MSDK/wpa_supplicant/src/tls\asn1.c **** 			if (oid->oid[0] > 2)
 1080              		.loc 1 321 22
 1081 007e 33D7D702 		divu	a4,a5,a3
 321:C:/Users/stapi/OneDrive/Desktop/GD32VW553/V1_MQTT_OK/GD32VW55X_Wifi_BLE_SDK/GD32VW55x_RELEASE_V1.0.2/MSDK/wpa_supplicant/src/tls\asn1.c **** 			if (oid->oid[0] > 2)
 1082              		.loc 1 321 16
 1083 0082 18C0     		sw	a4,0(s0)
 1084              	.LVL107:
 1085              	.L80:
 324:C:/Users/stapi/OneDrive/Desktop/GD32VW553/V1_MQTT_OK/GD32VW55X_Wifi_BLE_SDK/GD32VW55x_RELEASE_V1.0.2/MSDK/wpa_supplicant/src/tls\asn1.c **** 			oid->len = 2;
 1086              		.loc 1 324 4 is_stmt 1
 324:C:/Users/stapi/OneDrive/Desktop/GD32VW553/V1_MQTT_OK/GD32VW55X_Wifi_BLE_SDK/GD32VW55x_RELEASE_V1.0.2/MSDK/wpa_supplicant/src/tls\asn1.c **** 			oid->len = 2;
 1087              		.loc 1 324 36 is_stmt 0
 1088 0084 1840     		lw	a4,0(s0)
 325:C:/Users/stapi/OneDrive/Desktop/GD32VW553/V1_MQTT_OK/GD32VW55X_Wifi_BLE_SDK/GD32VW55x_RELEASE_V1.0.2/MSDK/wpa_supplicant/src/tls\asn1.c **** 		} else
 1089              		.loc 1 325 13
 1090 0086 30C8     		sw	a2,80(s0)
 324:C:/Users/stapi/OneDrive/Desktop/GD32VW553/V1_MQTT_OK/GD32VW55X_Wifi_BLE_SDK/GD32VW55x_RELEASE_V1.0.2/MSDK/wpa_supplicant/src/tls\asn1.c **** 			oid->len = 2;
 1091              		.loc 1 324 22
 1092 0088 FF97E6C6 		msubr32	a5, a3, a4
 1093              	.LVL108:
 324:C:/Users/stapi/OneDrive/Desktop/GD32VW553/V1_MQTT_OK/GD32VW55X_Wifi_BLE_SDK/GD32VW55x_RELEASE_V1.0.2/MSDK/wpa_supplicant/src/tls\asn1.c **** 			oid->len = 2;
 1094              		.loc 1 324 16
 1095 008c 5CC0     		sw	a5,4(s0)
 325:C:/Users/stapi/OneDrive/Desktop/GD32VW553/V1_MQTT_OK/GD32VW55X_Wifi_BLE_SDK/GD32VW55x_RELEASE_V1.0.2/MSDK/wpa_supplicant/src/tls\asn1.c **** 		} else
 1096              		.loc 1 325 4 is_stmt 1
 1097 008e 45B7     		j	.L74
 1098              	.LVL109:
 1099              	.L79:
 323:C:/Users/stapi/OneDrive/Desktop/GD32VW553/V1_MQTT_OK/GD32VW55X_Wifi_BLE_SDK/GD32VW55x_RELEASE_V1.0.2/MSDK/wpa_supplicant/src/tls\asn1.c **** 			oid->oid[1] = val - oid->oid[0] * 40;
 1100              		.loc 1 323 5
 323:C:/Users/stapi/OneDrive/Desktop/GD32VW553/V1_MQTT_OK/GD32VW55X_Wifi_BLE_SDK/GD32VW55x_RELEASE_V1.0.2/MSDK/wpa_supplicant/src/tls\asn1.c **** 			oid->oid[1] = val - oid->oid[0] * 40;
 1101              		.loc 1 323 17 is_stmt 0
 1102 0090 10C0     		sw	a2,0(s0)
 1103              	.LVL110:
 1104 0092 CDBF     		j	.L80
 1105              	.LVL111:
 1106              	.L78:
 327:C:/Users/stapi/OneDrive/Desktop/GD32VW553/V1_MQTT_OK/GD32VW55X_Wifi_BLE_SDK/GD32VW55x_RELEASE_V1.0.2/MSDK/wpa_supplicant/src/tls\asn1.c **** 	}
 1107              		.loc 1 327 4 is_stmt 1
 327:C:/Users/stapi/OneDrive/Desktop/GD32VW553/V1_MQTT_OK/GD32VW55X_Wifi_BLE_SDK/GD32VW55x_RELEASE_V1.0.2/MSDK/wpa_supplicant/src/tls\asn1.c **** 	}
 1108              		.loc 1 327 21 is_stmt 0
 1109 0094 93081700 		addi	a7,a4,1
 1110 0098 23281405 		sw	a7,80(s0)
 1111              	.LVL112:
 327:C:/Users/stapi/OneDrive/Desktop/GD32VW553/V1_MQTT_OK/GD32VW55X_Wifi_BLE_SDK/GD32VW55x_RELEASE_V1.0.2/MSDK/wpa_supplicant/src/tls\asn1.c **** 	}
 1112              		.loc 1 327 25
 1113 009c 33478720 		sh2add	a4,a4,s0
 1114 00a0 1CC3     		sw	a5,0(a4)
 1115 00a2 71B7     		j	.L74
 1116              		.cfi_endproc
 1117              	.LFE91:
 1119              		.section	.rodata.asn1_get_oid.str1.4,"aMS",@progbits,1
 1120              		.align	2
 1121              	.LC19:
 1122 0000 41534E2E 		.string	"ASN.1: Expected OID"
 1122      313A2045 
 1122      78706563 
 1122      74656420 
 1122      4F494400 
 1123              		.section	.text.asn1_get_oid,"ax",@progbits
 1124              		.align	1
 1125              		.globl	asn1_get_oid
 1127              	asn1_get_oid:
 1128              	.LFB92:
 336:C:/Users/stapi/OneDrive/Desktop/GD32VW553/V1_MQTT_OK/GD32VW55X_Wifi_BLE_SDK/GD32VW55x_RELEASE_V1.0.2/MSDK/wpa_supplicant/src/tls\asn1.c **** 	struct asn1_hdr hdr;
 1129              		.loc 1 336 1 is_stmt 1
 1130              		.cfi_startproc
 1131              	.LVL113:
 1132 0000 17030000 		call	t0,__riscv_save_2
 1132      E7020300 
 1133              		.cfi_offset 9, -12
 1134              		.cfi_offset 8, -8
 1135              		.cfi_offset 1, -4
 1136              		.cfi_def_cfa_offset 16
 337:C:/Users/stapi/OneDrive/Desktop/GD32VW553/V1_MQTT_OK/GD32VW55X_Wifi_BLE_SDK/GD32VW55x_RELEASE_V1.0.2/MSDK/wpa_supplicant/src/tls\asn1.c **** 
 1137              		.loc 1 337 2
 339:C:/Users/stapi/OneDrive/Desktop/GD32VW553/V1_MQTT_OK/GD32VW55X_Wifi_BLE_SDK/GD32VW55x_RELEASE_V1.0.2/MSDK/wpa_supplicant/src/tls\asn1.c **** 	    !asn1_is_oid(&hdr)) {
 1138              		.loc 1 339 2
 336:C:/Users/stapi/OneDrive/Desktop/GD32VW553/V1_MQTT_OK/GD32VW55X_Wifi_BLE_SDK/GD32VW55x_RELEASE_V1.0.2/MSDK/wpa_supplicant/src/tls\asn1.c **** 	struct asn1_hdr hdr;
 1139              		.loc 1 336 1 is_stmt 0
 1140 0008 4111     		addi	sp,sp,-16
 1141              		.cfi_def_cfa_offset 32
 336:C:/Users/stapi/OneDrive/Desktop/GD32VW553/V1_MQTT_OK/GD32VW55X_Wifi_BLE_SDK/GD32VW55x_RELEASE_V1.0.2/MSDK/wpa_supplicant/src/tls\asn1.c **** 	struct asn1_hdr hdr;
 1142              		.loc 1 336 1
 1143 000a 3284     		mv	s0,a2
 339:C:/Users/stapi/OneDrive/Desktop/GD32VW553/V1_MQTT_OK/GD32VW55X_Wifi_BLE_SDK/GD32VW55x_RELEASE_V1.0.2/MSDK/wpa_supplicant/src/tls\asn1.c **** 	    !asn1_is_oid(&hdr)) {
 1144              		.loc 1 339 6
 1145 000c 0A86     		mv	a2,sp
 1146              	.LVL114:
 336:C:/Users/stapi/OneDrive/Desktop/GD32VW553/V1_MQTT_OK/GD32VW55X_Wifi_BLE_SDK/GD32VW55x_RELEASE_V1.0.2/MSDK/wpa_supplicant/src/tls\asn1.c **** 	struct asn1_hdr hdr;
 1147              		.loc 1 336 1
 1148 000e B684     		mv	s1,a3
 339:C:/Users/stapi/OneDrive/Desktop/GD32VW553/V1_MQTT_OK/GD32VW55X_Wifi_BLE_SDK/GD32VW55x_RELEASE_V1.0.2/MSDK/wpa_supplicant/src/tls\asn1.c **** 	    !asn1_is_oid(&hdr)) {
 1149              		.loc 1 339 6
 1150 0010 97000000 		call	asn1_get_next
 1150      E7800000 
 1151              	.LVL115:
 339:C:/Users/stapi/OneDrive/Desktop/GD32VW553/V1_MQTT_OK/GD32VW55X_Wifi_BLE_SDK/GD32VW55x_RELEASE_V1.0.2/MSDK/wpa_supplicant/src/tls\asn1.c **** 	    !asn1_is_oid(&hdr)) {
 1152              		.loc 1 339 5
 1153 0018 63490502 		blt	a0,zero,.L87
 339:C:/Users/stapi/OneDrive/Desktop/GD32VW553/V1_MQTT_OK/GD32VW55X_Wifi_BLE_SDK/GD32VW55x_RELEASE_V1.0.2/MSDK/wpa_supplicant/src/tls\asn1.c **** 	    !asn1_is_oid(&hdr)) {
 1154              		.loc 1 339 46 discriminator 1
 1155 001c B245     		lw	a1,12(sp)
 339:C:/Users/stapi/OneDrive/Desktop/GD32VW553/V1_MQTT_OK/GD32VW55X_Wifi_BLE_SDK/GD32VW55x_RELEASE_V1.0.2/MSDK/wpa_supplicant/src/tls\asn1.c **** 	    !asn1_is_oid(&hdr)) {
 1156              		.loc 1 339 40 discriminator 1
 1157 001e 95C5     		beq	a1,zero,.L87
 1158              	.LVL116:
 1159              	.LBB100:
 1160              	.LBB101:
 1161              		.file 4 "C:/Users/stapi/OneDrive/Desktop/GD32VW553/V1_MQTT_OK/GD32VW55X_Wifi_BLE_SDK/GD32VW55x_REL
   1:C:/Users/stapi/OneDrive/Desktop/GD32VW553/V1_MQTT_OK/GD32VW55X_Wifi_BLE_SDK/GD32VW55x_RELEASE_V1.0.2/MSDK/wpa_supplicant/src/tls\asn1.h **** /*
   2:C:/Users/stapi/OneDrive/Desktop/GD32VW553/V1_MQTT_OK/GD32VW55X_Wifi_BLE_SDK/GD32VW55x_RELEASE_V1.0.2/MSDK/wpa_supplicant/src/tls\asn1.h ****  * ASN.1 DER parsing
   3:C:/Users/stapi/OneDrive/Desktop/GD32VW553/V1_MQTT_OK/GD32VW55X_Wifi_BLE_SDK/GD32VW55x_RELEASE_V1.0.2/MSDK/wpa_supplicant/src/tls\asn1.h ****  * Copyright (c) 2006, Jouni Malinen <j@w1.fi>
   4:C:/Users/stapi/OneDrive/Desktop/GD32VW553/V1_MQTT_OK/GD32VW55X_Wifi_BLE_SDK/GD32VW55x_RELEASE_V1.0.2/MSDK/wpa_supplicant/src/tls\asn1.h ****  *
   5:C:/Users/stapi/OneDrive/Desktop/GD32VW553/V1_MQTT_OK/GD32VW55X_Wifi_BLE_SDK/GD32VW55x_RELEASE_V1.0.2/MSDK/wpa_supplicant/src/tls\asn1.h ****  * This software may be distributed under the terms of the BSD license.
   6:C:/Users/stapi/OneDrive/Desktop/GD32VW553/V1_MQTT_OK/GD32VW55X_Wifi_BLE_SDK/GD32VW55x_RELEASE_V1.0.2/MSDK/wpa_supplicant/src/tls\asn1.h ****  * See README for more details.
   7:C:/Users/stapi/OneDrive/Desktop/GD32VW553/V1_MQTT_OK/GD32VW55X_Wifi_BLE_SDK/GD32VW55x_RELEASE_V1.0.2/MSDK/wpa_supplicant/src/tls\asn1.h ****  */
   8:C:/Users/stapi/OneDrive/Desktop/GD32VW553/V1_MQTT_OK/GD32VW55X_Wifi_BLE_SDK/GD32VW55x_RELEASE_V1.0.2/MSDK/wpa_supplicant/src/tls\asn1.h **** 
   9:C:/Users/stapi/OneDrive/Desktop/GD32VW553/V1_MQTT_OK/GD32VW55X_Wifi_BLE_SDK/GD32VW55x_RELEASE_V1.0.2/MSDK/wpa_supplicant/src/tls\asn1.h **** #ifndef ASN1_H
  10:C:/Users/stapi/OneDrive/Desktop/GD32VW553/V1_MQTT_OK/GD32VW55X_Wifi_BLE_SDK/GD32VW55x_RELEASE_V1.0.2/MSDK/wpa_supplicant/src/tls\asn1.h **** #define ASN1_H
  11:C:/Users/stapi/OneDrive/Desktop/GD32VW553/V1_MQTT_OK/GD32VW55X_Wifi_BLE_SDK/GD32VW55x_RELEASE_V1.0.2/MSDK/wpa_supplicant/src/tls\asn1.h **** 
  12:C:/Users/stapi/OneDrive/Desktop/GD32VW553/V1_MQTT_OK/GD32VW55X_Wifi_BLE_SDK/GD32VW55x_RELEASE_V1.0.2/MSDK/wpa_supplicant/src/tls\asn1.h **** #define ASN1_TAG_EOC		0x00 /* not used with DER */
  13:C:/Users/stapi/OneDrive/Desktop/GD32VW553/V1_MQTT_OK/GD32VW55X_Wifi_BLE_SDK/GD32VW55x_RELEASE_V1.0.2/MSDK/wpa_supplicant/src/tls\asn1.h **** #define ASN1_TAG_BOOLEAN	0x01
  14:C:/Users/stapi/OneDrive/Desktop/GD32VW553/V1_MQTT_OK/GD32VW55X_Wifi_BLE_SDK/GD32VW55x_RELEASE_V1.0.2/MSDK/wpa_supplicant/src/tls\asn1.h **** #define ASN1_TAG_INTEGER	0x02
  15:C:/Users/stapi/OneDrive/Desktop/GD32VW553/V1_MQTT_OK/GD32VW55X_Wifi_BLE_SDK/GD32VW55x_RELEASE_V1.0.2/MSDK/wpa_supplicant/src/tls\asn1.h **** #define ASN1_TAG_BITSTRING	0x03
  16:C:/Users/stapi/OneDrive/Desktop/GD32VW553/V1_MQTT_OK/GD32VW55X_Wifi_BLE_SDK/GD32VW55x_RELEASE_V1.0.2/MSDK/wpa_supplicant/src/tls\asn1.h **** #define ASN1_TAG_OCTETSTRING	0x04
  17:C:/Users/stapi/OneDrive/Desktop/GD32VW553/V1_MQTT_OK/GD32VW55X_Wifi_BLE_SDK/GD32VW55x_RELEASE_V1.0.2/MSDK/wpa_supplicant/src/tls\asn1.h **** #define ASN1_TAG_NULL		0x05
  18:C:/Users/stapi/OneDrive/Desktop/GD32VW553/V1_MQTT_OK/GD32VW55X_Wifi_BLE_SDK/GD32VW55x_RELEASE_V1.0.2/MSDK/wpa_supplicant/src/tls\asn1.h **** #define ASN1_TAG_OID		0x06
  19:C:/Users/stapi/OneDrive/Desktop/GD32VW553/V1_MQTT_OK/GD32VW55X_Wifi_BLE_SDK/GD32VW55x_RELEASE_V1.0.2/MSDK/wpa_supplicant/src/tls\asn1.h **** #define ASN1_TAG_OBJECT_DESCRIPTOR	0x07 /* not yet parsed */
  20:C:/Users/stapi/OneDrive/Desktop/GD32VW553/V1_MQTT_OK/GD32VW55X_Wifi_BLE_SDK/GD32VW55x_RELEASE_V1.0.2/MSDK/wpa_supplicant/src/tls\asn1.h **** #define ASN1_TAG_EXTERNAL	0x08 /* not yet parsed */
  21:C:/Users/stapi/OneDrive/Desktop/GD32VW553/V1_MQTT_OK/GD32VW55X_Wifi_BLE_SDK/GD32VW55x_RELEASE_V1.0.2/MSDK/wpa_supplicant/src/tls\asn1.h **** #define ASN1_TAG_REAL		0x09 /* not yet parsed */
  22:C:/Users/stapi/OneDrive/Desktop/GD32VW553/V1_MQTT_OK/GD32VW55X_Wifi_BLE_SDK/GD32VW55x_RELEASE_V1.0.2/MSDK/wpa_supplicant/src/tls\asn1.h **** #define ASN1_TAG_ENUMERATED	0x0A /* not yet parsed */
  23:C:/Users/stapi/OneDrive/Desktop/GD32VW553/V1_MQTT_OK/GD32VW55X_Wifi_BLE_SDK/GD32VW55x_RELEASE_V1.0.2/MSDK/wpa_supplicant/src/tls\asn1.h **** #define ASN1_TAG_EMBEDDED_PDV	0x0B /* not yet parsed */
  24:C:/Users/stapi/OneDrive/Desktop/GD32VW553/V1_MQTT_OK/GD32VW55X_Wifi_BLE_SDK/GD32VW55x_RELEASE_V1.0.2/MSDK/wpa_supplicant/src/tls\asn1.h **** #define ASN1_TAG_UTF8STRING	0x0C /* not yet parsed */
  25:C:/Users/stapi/OneDrive/Desktop/GD32VW553/V1_MQTT_OK/GD32VW55X_Wifi_BLE_SDK/GD32VW55x_RELEASE_V1.0.2/MSDK/wpa_supplicant/src/tls\asn1.h **** #define ANS1_TAG_RELATIVE_OID	0x0D
  26:C:/Users/stapi/OneDrive/Desktop/GD32VW553/V1_MQTT_OK/GD32VW55X_Wifi_BLE_SDK/GD32VW55x_RELEASE_V1.0.2/MSDK/wpa_supplicant/src/tls\asn1.h **** #define ASN1_TAG_TIME		0x0E
  27:C:/Users/stapi/OneDrive/Desktop/GD32VW553/V1_MQTT_OK/GD32VW55X_Wifi_BLE_SDK/GD32VW55x_RELEASE_V1.0.2/MSDK/wpa_supplicant/src/tls\asn1.h **** #define ASN1_TAG_SEQUENCE	0x10 /* shall be constructed */
  28:C:/Users/stapi/OneDrive/Desktop/GD32VW553/V1_MQTT_OK/GD32VW55X_Wifi_BLE_SDK/GD32VW55x_RELEASE_V1.0.2/MSDK/wpa_supplicant/src/tls\asn1.h **** #define ASN1_TAG_SET		0x11
  29:C:/Users/stapi/OneDrive/Desktop/GD32VW553/V1_MQTT_OK/GD32VW55X_Wifi_BLE_SDK/GD32VW55x_RELEASE_V1.0.2/MSDK/wpa_supplicant/src/tls\asn1.h **** #define ASN1_TAG_NUMERICSTRING	0x12 /* not yet parsed */
  30:C:/Users/stapi/OneDrive/Desktop/GD32VW553/V1_MQTT_OK/GD32VW55X_Wifi_BLE_SDK/GD32VW55x_RELEASE_V1.0.2/MSDK/wpa_supplicant/src/tls\asn1.h **** #define ASN1_TAG_PRINTABLESTRING	0x13
  31:C:/Users/stapi/OneDrive/Desktop/GD32VW553/V1_MQTT_OK/GD32VW55X_Wifi_BLE_SDK/GD32VW55x_RELEASE_V1.0.2/MSDK/wpa_supplicant/src/tls\asn1.h **** #define ASN1_TAG_T61STRING	0x14 /* not yet parsed */
  32:C:/Users/stapi/OneDrive/Desktop/GD32VW553/V1_MQTT_OK/GD32VW55X_Wifi_BLE_SDK/GD32VW55x_RELEASE_V1.0.2/MSDK/wpa_supplicant/src/tls\asn1.h **** #define ASN1_TAG_VIDEOTEXSTRING	0x15 /* not yet parsed */
  33:C:/Users/stapi/OneDrive/Desktop/GD32VW553/V1_MQTT_OK/GD32VW55X_Wifi_BLE_SDK/GD32VW55x_RELEASE_V1.0.2/MSDK/wpa_supplicant/src/tls\asn1.h **** #define ASN1_TAG_IA5STRING	0x16
  34:C:/Users/stapi/OneDrive/Desktop/GD32VW553/V1_MQTT_OK/GD32VW55X_Wifi_BLE_SDK/GD32VW55x_RELEASE_V1.0.2/MSDK/wpa_supplicant/src/tls\asn1.h **** #define ASN1_TAG_UTCTIME	0x17
  35:C:/Users/stapi/OneDrive/Desktop/GD32VW553/V1_MQTT_OK/GD32VW55X_Wifi_BLE_SDK/GD32VW55x_RELEASE_V1.0.2/MSDK/wpa_supplicant/src/tls\asn1.h **** #define ASN1_TAG_GENERALIZEDTIME	0x18 /* not yet parsed */
  36:C:/Users/stapi/OneDrive/Desktop/GD32VW553/V1_MQTT_OK/GD32VW55X_Wifi_BLE_SDK/GD32VW55x_RELEASE_V1.0.2/MSDK/wpa_supplicant/src/tls\asn1.h **** #define ASN1_TAG_GRAPHICSTRING	0x19 /* not yet parsed */
  37:C:/Users/stapi/OneDrive/Desktop/GD32VW553/V1_MQTT_OK/GD32VW55X_Wifi_BLE_SDK/GD32VW55x_RELEASE_V1.0.2/MSDK/wpa_supplicant/src/tls\asn1.h **** #define ASN1_TAG_VISIBLESTRING	0x1A
  38:C:/Users/stapi/OneDrive/Desktop/GD32VW553/V1_MQTT_OK/GD32VW55X_Wifi_BLE_SDK/GD32VW55x_RELEASE_V1.0.2/MSDK/wpa_supplicant/src/tls\asn1.h **** #define ASN1_TAG_GENERALSTRING	0x1B /* not yet parsed */
  39:C:/Users/stapi/OneDrive/Desktop/GD32VW553/V1_MQTT_OK/GD32VW55X_Wifi_BLE_SDK/GD32VW55x_RELEASE_V1.0.2/MSDK/wpa_supplicant/src/tls\asn1.h **** #define ASN1_TAG_UNIVERSALSTRING	0x1C /* not yet parsed */
  40:C:/Users/stapi/OneDrive/Desktop/GD32VW553/V1_MQTT_OK/GD32VW55X_Wifi_BLE_SDK/GD32VW55x_RELEASE_V1.0.2/MSDK/wpa_supplicant/src/tls\asn1.h **** #define ASN1_TAG_CHARACTERSTRING	0x1D /* not yet parsed */
  41:C:/Users/stapi/OneDrive/Desktop/GD32VW553/V1_MQTT_OK/GD32VW55X_Wifi_BLE_SDK/GD32VW55x_RELEASE_V1.0.2/MSDK/wpa_supplicant/src/tls\asn1.h **** #define ASN1_TAG_BMPSTRING	0x1E /* not yet parsed */
  42:C:/Users/stapi/OneDrive/Desktop/GD32VW553/V1_MQTT_OK/GD32VW55X_Wifi_BLE_SDK/GD32VW55x_RELEASE_V1.0.2/MSDK/wpa_supplicant/src/tls\asn1.h **** 
  43:C:/Users/stapi/OneDrive/Desktop/GD32VW553/V1_MQTT_OK/GD32VW55X_Wifi_BLE_SDK/GD32VW55x_RELEASE_V1.0.2/MSDK/wpa_supplicant/src/tls\asn1.h **** #define ASN1_CLASS_UNIVERSAL		0
  44:C:/Users/stapi/OneDrive/Desktop/GD32VW553/V1_MQTT_OK/GD32VW55X_Wifi_BLE_SDK/GD32VW55x_RELEASE_V1.0.2/MSDK/wpa_supplicant/src/tls\asn1.h **** #define ASN1_CLASS_APPLICATION		1
  45:C:/Users/stapi/OneDrive/Desktop/GD32VW553/V1_MQTT_OK/GD32VW55X_Wifi_BLE_SDK/GD32VW55x_RELEASE_V1.0.2/MSDK/wpa_supplicant/src/tls\asn1.h **** #define ASN1_CLASS_CONTEXT_SPECIFIC	2
  46:C:/Users/stapi/OneDrive/Desktop/GD32VW553/V1_MQTT_OK/GD32VW55X_Wifi_BLE_SDK/GD32VW55x_RELEASE_V1.0.2/MSDK/wpa_supplicant/src/tls\asn1.h **** #define ASN1_CLASS_PRIVATE		3
  47:C:/Users/stapi/OneDrive/Desktop/GD32VW553/V1_MQTT_OK/GD32VW55X_Wifi_BLE_SDK/GD32VW55x_RELEASE_V1.0.2/MSDK/wpa_supplicant/src/tls\asn1.h **** 
  48:C:/Users/stapi/OneDrive/Desktop/GD32VW553/V1_MQTT_OK/GD32VW55X_Wifi_BLE_SDK/GD32VW55x_RELEASE_V1.0.2/MSDK/wpa_supplicant/src/tls\asn1.h **** 
  49:C:/Users/stapi/OneDrive/Desktop/GD32VW553/V1_MQTT_OK/GD32VW55X_Wifi_BLE_SDK/GD32VW55x_RELEASE_V1.0.2/MSDK/wpa_supplicant/src/tls\asn1.h **** struct asn1_hdr {
  50:C:/Users/stapi/OneDrive/Desktop/GD32VW553/V1_MQTT_OK/GD32VW55X_Wifi_BLE_SDK/GD32VW55x_RELEASE_V1.0.2/MSDK/wpa_supplicant/src/tls\asn1.h **** 	const u8 *payload;
  51:C:/Users/stapi/OneDrive/Desktop/GD32VW553/V1_MQTT_OK/GD32VW55X_Wifi_BLE_SDK/GD32VW55x_RELEASE_V1.0.2/MSDK/wpa_supplicant/src/tls\asn1.h **** 	u8 identifier, class, constructed;
  52:C:/Users/stapi/OneDrive/Desktop/GD32VW553/V1_MQTT_OK/GD32VW55X_Wifi_BLE_SDK/GD32VW55x_RELEASE_V1.0.2/MSDK/wpa_supplicant/src/tls\asn1.h **** 	unsigned int tag, length;
  53:C:/Users/stapi/OneDrive/Desktop/GD32VW553/V1_MQTT_OK/GD32VW55X_Wifi_BLE_SDK/GD32VW55x_RELEASE_V1.0.2/MSDK/wpa_supplicant/src/tls\asn1.h **** };
  54:C:/Users/stapi/OneDrive/Desktop/GD32VW553/V1_MQTT_OK/GD32VW55X_Wifi_BLE_SDK/GD32VW55x_RELEASE_V1.0.2/MSDK/wpa_supplicant/src/tls\asn1.h **** 
  55:C:/Users/stapi/OneDrive/Desktop/GD32VW553/V1_MQTT_OK/GD32VW55X_Wifi_BLE_SDK/GD32VW55x_RELEASE_V1.0.2/MSDK/wpa_supplicant/src/tls\asn1.h **** #define ASN1_MAX_OID_LEN 20
  56:C:/Users/stapi/OneDrive/Desktop/GD32VW553/V1_MQTT_OK/GD32VW55X_Wifi_BLE_SDK/GD32VW55x_RELEASE_V1.0.2/MSDK/wpa_supplicant/src/tls\asn1.h **** struct asn1_oid {
  57:C:/Users/stapi/OneDrive/Desktop/GD32VW553/V1_MQTT_OK/GD32VW55X_Wifi_BLE_SDK/GD32VW55x_RELEASE_V1.0.2/MSDK/wpa_supplicant/src/tls\asn1.h **** 	unsigned long oid[ASN1_MAX_OID_LEN];
  58:C:/Users/stapi/OneDrive/Desktop/GD32VW553/V1_MQTT_OK/GD32VW55X_Wifi_BLE_SDK/GD32VW55x_RELEASE_V1.0.2/MSDK/wpa_supplicant/src/tls\asn1.h **** 	size_t len;
  59:C:/Users/stapi/OneDrive/Desktop/GD32VW553/V1_MQTT_OK/GD32VW55X_Wifi_BLE_SDK/GD32VW55x_RELEASE_V1.0.2/MSDK/wpa_supplicant/src/tls\asn1.h **** };
  60:C:/Users/stapi/OneDrive/Desktop/GD32VW553/V1_MQTT_OK/GD32VW55X_Wifi_BLE_SDK/GD32VW55x_RELEASE_V1.0.2/MSDK/wpa_supplicant/src/tls\asn1.h **** 
  61:C:/Users/stapi/OneDrive/Desktop/GD32VW553/V1_MQTT_OK/GD32VW55X_Wifi_BLE_SDK/GD32VW55x_RELEASE_V1.0.2/MSDK/wpa_supplicant/src/tls\asn1.h **** 
  62:C:/Users/stapi/OneDrive/Desktop/GD32VW553/V1_MQTT_OK/GD32VW55X_Wifi_BLE_SDK/GD32VW55x_RELEASE_V1.0.2/MSDK/wpa_supplicant/src/tls\asn1.h **** int asn1_get_next(const u8 *buf, size_t len, struct asn1_hdr *hdr);
  63:C:/Users/stapi/OneDrive/Desktop/GD32VW553/V1_MQTT_OK/GD32VW55X_Wifi_BLE_SDK/GD32VW55x_RELEASE_V1.0.2/MSDK/wpa_supplicant/src/tls\asn1.h **** void asn1_print_hdr(const struct asn1_hdr *hdr, const char *title);
  64:C:/Users/stapi/OneDrive/Desktop/GD32VW553/V1_MQTT_OK/GD32VW55X_Wifi_BLE_SDK/GD32VW55x_RELEASE_V1.0.2/MSDK/wpa_supplicant/src/tls\asn1.h **** void asn1_unexpected(const struct asn1_hdr *hdr, const char *title);
  65:C:/Users/stapi/OneDrive/Desktop/GD32VW553/V1_MQTT_OK/GD32VW55X_Wifi_BLE_SDK/GD32VW55x_RELEASE_V1.0.2/MSDK/wpa_supplicant/src/tls\asn1.h **** int asn1_parse_oid(const u8 *buf, size_t len, struct asn1_oid *oid);
  66:C:/Users/stapi/OneDrive/Desktop/GD32VW553/V1_MQTT_OK/GD32VW55X_Wifi_BLE_SDK/GD32VW55x_RELEASE_V1.0.2/MSDK/wpa_supplicant/src/tls\asn1.h **** int asn1_get_oid(const u8 *buf, size_t len, struct asn1_oid *oid,
  67:C:/Users/stapi/OneDrive/Desktop/GD32VW553/V1_MQTT_OK/GD32VW55X_Wifi_BLE_SDK/GD32VW55x_RELEASE_V1.0.2/MSDK/wpa_supplicant/src/tls\asn1.h **** 		 const u8 **next);
  68:C:/Users/stapi/OneDrive/Desktop/GD32VW553/V1_MQTT_OK/GD32VW55X_Wifi_BLE_SDK/GD32VW55x_RELEASE_V1.0.2/MSDK/wpa_supplicant/src/tls\asn1.h **** void asn1_oid_to_str(const struct asn1_oid *oid, char *buf, size_t len);
  69:C:/Users/stapi/OneDrive/Desktop/GD32VW553/V1_MQTT_OK/GD32VW55X_Wifi_BLE_SDK/GD32VW55x_RELEASE_V1.0.2/MSDK/wpa_supplicant/src/tls\asn1.h **** unsigned long asn1_bit_string_to_long(const u8 *buf, size_t len);
  70:C:/Users/stapi/OneDrive/Desktop/GD32VW553/V1_MQTT_OK/GD32VW55X_Wifi_BLE_SDK/GD32VW55x_RELEASE_V1.0.2/MSDK/wpa_supplicant/src/tls\asn1.h **** int asn1_oid_equal(const struct asn1_oid *a, const struct asn1_oid *b);
  71:C:/Users/stapi/OneDrive/Desktop/GD32VW553/V1_MQTT_OK/GD32VW55X_Wifi_BLE_SDK/GD32VW55x_RELEASE_V1.0.2/MSDK/wpa_supplicant/src/tls\asn1.h **** int asn1_get_integer(const u8 *buf, size_t len, int *integer, const u8 **next);
  72:C:/Users/stapi/OneDrive/Desktop/GD32VW553/V1_MQTT_OK/GD32VW55X_Wifi_BLE_SDK/GD32VW55x_RELEASE_V1.0.2/MSDK/wpa_supplicant/src/tls\asn1.h **** int asn1_get_sequence(const u8 *buf, size_t len, struct asn1_hdr *hdr,
  73:C:/Users/stapi/OneDrive/Desktop/GD32VW553/V1_MQTT_OK/GD32VW55X_Wifi_BLE_SDK/GD32VW55x_RELEASE_V1.0.2/MSDK/wpa_supplicant/src/tls\asn1.h **** 		      const u8 **next);
  74:C:/Users/stapi/OneDrive/Desktop/GD32VW553/V1_MQTT_OK/GD32VW55X_Wifi_BLE_SDK/GD32VW55x_RELEASE_V1.0.2/MSDK/wpa_supplicant/src/tls\asn1.h **** int asn1_get_alg_id(const u8 *buf, size_t len, struct asn1_oid *oid,
  75:C:/Users/stapi/OneDrive/Desktop/GD32VW553/V1_MQTT_OK/GD32VW55X_Wifi_BLE_SDK/GD32VW55x_RELEASE_V1.0.2/MSDK/wpa_supplicant/src/tls\asn1.h **** 		    const u8 **params, size_t *params_len, const u8 **next);
  76:C:/Users/stapi/OneDrive/Desktop/GD32VW553/V1_MQTT_OK/GD32VW55X_Wifi_BLE_SDK/GD32VW55x_RELEASE_V1.0.2/MSDK/wpa_supplicant/src/tls\asn1.h **** void asn1_put_integer(struct wpabuf *buf, int val);
  77:C:/Users/stapi/OneDrive/Desktop/GD32VW553/V1_MQTT_OK/GD32VW55X_Wifi_BLE_SDK/GD32VW55x_RELEASE_V1.0.2/MSDK/wpa_supplicant/src/tls\asn1.h **** void asn1_put_octet_string(struct wpabuf *buf, const struct wpabuf *val);
  78:C:/Users/stapi/OneDrive/Desktop/GD32VW553/V1_MQTT_OK/GD32VW55X_Wifi_BLE_SDK/GD32VW55x_RELEASE_V1.0.2/MSDK/wpa_supplicant/src/tls\asn1.h **** void asn1_put_oid(struct wpabuf *buf, const struct asn1_oid *oid);
  79:C:/Users/stapi/OneDrive/Desktop/GD32VW553/V1_MQTT_OK/GD32VW55X_Wifi_BLE_SDK/GD32VW55x_RELEASE_V1.0.2/MSDK/wpa_supplicant/src/tls\asn1.h **** void asn1_put_hdr(struct wpabuf *buf, u8 class, int constructed, u8 tag,
  80:C:/Users/stapi/OneDrive/Desktop/GD32VW553/V1_MQTT_OK/GD32VW55X_Wifi_BLE_SDK/GD32VW55x_RELEASE_V1.0.2/MSDK/wpa_supplicant/src/tls\asn1.h **** 		  size_t len);
  81:C:/Users/stapi/OneDrive/Desktop/GD32VW553/V1_MQTT_OK/GD32VW55X_Wifi_BLE_SDK/GD32VW55x_RELEASE_V1.0.2/MSDK/wpa_supplicant/src/tls\asn1.h **** void asn1_put_sequence(struct wpabuf *buf, const struct wpabuf *payload);
  82:C:/Users/stapi/OneDrive/Desktop/GD32VW553/V1_MQTT_OK/GD32VW55X_Wifi_BLE_SDK/GD32VW55x_RELEASE_V1.0.2/MSDK/wpa_supplicant/src/tls\asn1.h **** void asn1_put_set(struct wpabuf *buf, const struct wpabuf *payload);
  83:C:/Users/stapi/OneDrive/Desktop/GD32VW553/V1_MQTT_OK/GD32VW55X_Wifi_BLE_SDK/GD32VW55x_RELEASE_V1.0.2/MSDK/wpa_supplicant/src/tls\asn1.h **** void asn1_put_utf8string(struct wpabuf *buf, const char *val);
  84:C:/Users/stapi/OneDrive/Desktop/GD32VW553/V1_MQTT_OK/GD32VW55X_Wifi_BLE_SDK/GD32VW55x_RELEASE_V1.0.2/MSDK/wpa_supplicant/src/tls\asn1.h **** struct wpabuf * asn1_build_alg_id(const struct asn1_oid *oid,
  85:C:/Users/stapi/OneDrive/Desktop/GD32VW553/V1_MQTT_OK/GD32VW55X_Wifi_BLE_SDK/GD32VW55x_RELEASE_V1.0.2/MSDK/wpa_supplicant/src/tls\asn1.h **** 				  const struct wpabuf *params);
  86:C:/Users/stapi/OneDrive/Desktop/GD32VW553/V1_MQTT_OK/GD32VW55X_Wifi_BLE_SDK/GD32VW55x_RELEASE_V1.0.2/MSDK/wpa_supplicant/src/tls\asn1.h **** struct wpabuf * asn1_encaps(struct wpabuf *buf, u8 class, u8 tag);
  87:C:/Users/stapi/OneDrive/Desktop/GD32VW553/V1_MQTT_OK/GD32VW55X_Wifi_BLE_SDK/GD32VW55x_RELEASE_V1.0.2/MSDK/wpa_supplicant/src/tls\asn1.h **** 
  88:C:/Users/stapi/OneDrive/Desktop/GD32VW553/V1_MQTT_OK/GD32VW55X_Wifi_BLE_SDK/GD32VW55x_RELEASE_V1.0.2/MSDK/wpa_supplicant/src/tls\asn1.h **** static inline bool asn1_is_oid(const struct asn1_hdr *hdr)
  89:C:/Users/stapi/OneDrive/Desktop/GD32VW553/V1_MQTT_OK/GD32VW55X_Wifi_BLE_SDK/GD32VW55x_RELEASE_V1.0.2/MSDK/wpa_supplicant/src/tls\asn1.h **** {
  90:C:/Users/stapi/OneDrive/Desktop/GD32VW553/V1_MQTT_OK/GD32VW55X_Wifi_BLE_SDK/GD32VW55x_RELEASE_V1.0.2/MSDK/wpa_supplicant/src/tls\asn1.h **** 	return hdr->class == ASN1_CLASS_UNIVERSAL &&
 1162              		.loc 4 90 2 is_stmt 1
 1163              		.loc 4 90 44 is_stmt 0
 1164 0020 83475100 		lbu	a5,5(sp)
 1165 0024 9DE3     		bne	a5,zero,.L87
 1166 0026 2247     		lw	a4,8(sp)
 1167 0028 9947     		li	a5,6
 1168 002a 6310F702 		bne	a4,a5,.L87
 1169              	.LVL117:
 1170              	.LBE101:
 1171              	.LBE100:
 345:C:/Users/stapi/OneDrive/Desktop/GD32VW553/V1_MQTT_OK/GD32VW55X_Wifi_BLE_SDK/GD32VW55x_RELEASE_V1.0.2/MSDK/wpa_supplicant/src/tls\asn1.c **** 
 1172              		.loc 1 345 2 is_stmt 1
 345:C:/Users/stapi/OneDrive/Desktop/GD32VW553/V1_MQTT_OK/GD32VW55X_Wifi_BLE_SDK/GD32VW55x_RELEASE_V1.0.2/MSDK/wpa_supplicant/src/tls\asn1.c **** 
 1173              		.loc 1 345 13 is_stmt 0
 1174 002e 0245     		lw	a0,0(sp)
 347:C:/Users/stapi/OneDrive/Desktop/GD32VW553/V1_MQTT_OK/GD32VW55X_Wifi_BLE_SDK/GD32VW55x_RELEASE_V1.0.2/MSDK/wpa_supplicant/src/tls\asn1.c **** }
 1175              		.loc 1 347 9
 1176 0030 2286     		mv	a2,s0
 345:C:/Users/stapi/OneDrive/Desktop/GD32VW553/V1_MQTT_OK/GD32VW55X_Wifi_BLE_SDK/GD32VW55x_RELEASE_V1.0.2/MSDK/wpa_supplicant/src/tls\asn1.c **** 
 1177              		.loc 1 345 22
 1178 0032 B307B500 		add	a5,a0,a1
 345:C:/Users/stapi/OneDrive/Desktop/GD32VW553/V1_MQTT_OK/GD32VW55X_Wifi_BLE_SDK/GD32VW55x_RELEASE_V1.0.2/MSDK/wpa_supplicant/src/tls\asn1.c **** 
 1179              		.loc 1 345 8
 1180 0036 9CC0     		sw	a5,0(s1)
 347:C:/Users/stapi/OneDrive/Desktop/GD32VW553/V1_MQTT_OK/GD32VW55X_Wifi_BLE_SDK/GD32VW55x_RELEASE_V1.0.2/MSDK/wpa_supplicant/src/tls\asn1.c **** }
 1181              		.loc 1 347 2 is_stmt 1
 347:C:/Users/stapi/OneDrive/Desktop/GD32VW553/V1_MQTT_OK/GD32VW55X_Wifi_BLE_SDK/GD32VW55x_RELEASE_V1.0.2/MSDK/wpa_supplicant/src/tls\asn1.c **** }
 1182              		.loc 1 347 9 is_stmt 0
 1183 0038 97000000 		call	asn1_parse_oid
 1183      E7800000 
 1184              	.LVL118:
 1185              	.L86:
 348:C:/Users/stapi/OneDrive/Desktop/GD32VW553/V1_MQTT_OK/GD32VW55X_Wifi_BLE_SDK/GD32VW55x_RELEASE_V1.0.2/MSDK/wpa_supplicant/src/tls\asn1.c **** 
 1186              		.loc 1 348 1
 1187 0040 4101     		addi	sp,sp,16
 1188              		.cfi_remember_state
 1189              		.cfi_def_cfa_offset 0
 1190 0042 17030000 		tail	__riscv_restore_2
 1190      67000300 
 1191              		.cfi_restore 9
 1192              		.cfi_restore 8
 1193              		.cfi_restore 1
 1194              		.cfi_def_cfa_offset -16
 1195              	.L87:
 1196              		.cfi_restore_state
 341:C:/Users/stapi/OneDrive/Desktop/GD32VW553/V1_MQTT_OK/GD32VW55X_Wifi_BLE_SDK/GD32VW55x_RELEASE_V1.0.2/MSDK/wpa_supplicant/src/tls\asn1.c **** 		return -1;
 1197              		.loc 1 341 3 is_stmt 1
 1198 004a B7050000 		lui	a1,%hi(.LC19)
 1199 004e 0A85     		mv	a0,sp
 1200 0050 93850500 		addi	a1,a1,%lo(.LC19)
 1201 0054 97000000 		call	asn1_unexpected
 1201      E7800000 
 1202              	.LVL119:
 342:C:/Users/stapi/OneDrive/Desktop/GD32VW553/V1_MQTT_OK/GD32VW55X_Wifi_BLE_SDK/GD32VW55x_RELEASE_V1.0.2/MSDK/wpa_supplicant/src/tls\asn1.c **** 	}
 1203              		.loc 1 342 3
 342:C:/Users/stapi/OneDrive/Desktop/GD32VW553/V1_MQTT_OK/GD32VW55X_Wifi_BLE_SDK/GD32VW55x_RELEASE_V1.0.2/MSDK/wpa_supplicant/src/tls\asn1.c **** 	}
 1204              		.loc 1 342 10 is_stmt 0
 1205 005c 7D55     		li	a0,-1
 1206 005e CDB7     		j	.L86
 1207              		.cfi_endproc
 1208              	.LFE92:
 1210              		.section	.rodata.asn1_oid_to_str.str1.4,"aMS",@progbits,1
 1211              		.align	2
 1212              	.LC20:
 1213 0000 00       		.string	""
 1214 0001 000000   		.align	2
 1215              	.LC21:
 1216 0004 2E00     		.string	"."
 1217 0006 0000     		.align	2
 1218              	.LC22:
 1219 0008 2573256C 		.string	"%s%lu"
 1219      7500
 1220              		.section	.text.asn1_oid_to_str,"ax",@progbits
 1221              		.align	1
 1222              		.globl	asn1_oid_to_str
 1224              	asn1_oid_to_str:
 1225              	.LFB93:
 352:C:/Users/stapi/OneDrive/Desktop/GD32VW553/V1_MQTT_OK/GD32VW55X_Wifi_BLE_SDK/GD32VW55x_RELEASE_V1.0.2/MSDK/wpa_supplicant/src/tls\asn1.c **** 	char *pos = buf;
 1226              		.loc 1 352 1 is_stmt 1
 1227              		.cfi_startproc
 1228              	.LVL120:
 353:C:/Users/stapi/OneDrive/Desktop/GD32VW553/V1_MQTT_OK/GD32VW55X_Wifi_BLE_SDK/GD32VW55x_RELEASE_V1.0.2/MSDK/wpa_supplicant/src/tls\asn1.c **** 	size_t i;
 1229              		.loc 1 353 2
 354:C:/Users/stapi/OneDrive/Desktop/GD32VW553/V1_MQTT_OK/GD32VW55X_Wifi_BLE_SDK/GD32VW55x_RELEASE_V1.0.2/MSDK/wpa_supplicant/src/tls\asn1.c **** 	int ret;
 1230              		.loc 1 354 2
 355:C:/Users/stapi/OneDrive/Desktop/GD32VW553/V1_MQTT_OK/GD32VW55X_Wifi_BLE_SDK/GD32VW55x_RELEASE_V1.0.2/MSDK/wpa_supplicant/src/tls\asn1.c **** 
 1231              		.loc 1 355 2
 357:C:/Users/stapi/OneDrive/Desktop/GD32VW553/V1_MQTT_OK/GD32VW55X_Wifi_BLE_SDK/GD32VW55x_RELEASE_V1.0.2/MSDK/wpa_supplicant/src/tls\asn1.c **** 		return;
 1232              		.loc 1 357 2
 357:C:/Users/stapi/OneDrive/Desktop/GD32VW553/V1_MQTT_OK/GD32VW55X_Wifi_BLE_SDK/GD32VW55x_RELEASE_V1.0.2/MSDK/wpa_supplicant/src/tls\asn1.c **** 		return;
 1233              		.loc 1 357 5 is_stmt 0
 1234 0000 25CA     		beq	a2,zero,.L105
 352:C:/Users/stapi/OneDrive/Desktop/GD32VW553/V1_MQTT_OK/GD32VW55X_Wifi_BLE_SDK/GD32VW55x_RELEASE_V1.0.2/MSDK/wpa_supplicant/src/tls\asn1.c **** 	char *pos = buf;
 1235              		.loc 1 352 1
 1236 0002 17030000 		call	t0,__riscv_save_8
 1236      E7020300 
 1237              		.cfi_offset 23, -36
 1238              		.cfi_offset 22, -32
 1239              		.cfi_offset 21, -28
 1240              		.cfi_offset 20, -24
 1241              		.cfi_offset 19, -20
 1242              		.cfi_offset 18, -16
 1243              		.cfi_offset 9, -12
 1244              		.cfi_offset 8, -8
 1245              		.cfi_offset 1, -4
 1246              		.cfi_def_cfa_offset 48
 363:C:/Users/stapi/OneDrive/Desktop/GD32VW553/V1_MQTT_OK/GD32VW55X_Wifi_BLE_SDK/GD32VW55x_RELEASE_V1.0.2/MSDK/wpa_supplicant/src/tls\asn1.c **** 				  "%s%lu",
 1247              		.loc 1 363 9
 1248 000a 370A0000 		lui	s4,%hi(.LC20)
 1249 000e B70A0000 		lui	s5,%hi(.LC21)
 1250 0012 AA89     		mv	s3,a0
 1251 0014 2E84     		mv	s0,a1
 360:C:/Users/stapi/OneDrive/Desktop/GD32VW553/V1_MQTT_OK/GD32VW55X_Wifi_BLE_SDK/GD32VW55x_RELEASE_V1.0.2/MSDK/wpa_supplicant/src/tls\asn1.c **** 
 1252              		.loc 1 360 2 is_stmt 1
 360:C:/Users/stapi/OneDrive/Desktop/GD32VW553/V1_MQTT_OK/GD32VW55X_Wifi_BLE_SDK/GD32VW55x_RELEASE_V1.0.2/MSDK/wpa_supplicant/src/tls\asn1.c **** 
 1253              		.loc 1 360 9 is_stmt 0
 1254 0016 23800500 		sb	zero,0(a1)
 362:C:/Users/stapi/OneDrive/Desktop/GD32VW553/V1_MQTT_OK/GD32VW55X_Wifi_BLE_SDK/GD32VW55x_RELEASE_V1.0.2/MSDK/wpa_supplicant/src/tls\asn1.c **** 		ret = os_snprintf(pos, buf + len - pos,
 1255              		.loc 1 362 2 is_stmt 1
 1256              	.LVL121:
 362:C:/Users/stapi/OneDrive/Desktop/GD32VW553/V1_MQTT_OK/GD32VW55X_Wifi_BLE_SDK/GD32VW55x_RELEASE_V1.0.2/MSDK/wpa_supplicant/src/tls\asn1.c **** 		ret = os_snprintf(pos, buf + len - pos,
 1257              		.loc 1 362 9 is_stmt 0
 1258 001a 0149     		li	s2,0
 1259 001c B384C500 		add	s1,a1,a2
 363:C:/Users/stapi/OneDrive/Desktop/GD32VW553/V1_MQTT_OK/GD32VW55X_Wifi_BLE_SDK/GD32VW55x_RELEASE_V1.0.2/MSDK/wpa_supplicant/src/tls\asn1.c **** 				  "%s%lu",
 1260              		.loc 1 363 9
 1261 0020 130A0A00 		addi	s4,s4,%lo(.LC20)
 1262 0024 938A0A00 		addi	s5,s5,%lo(.LC21)
 1263 0028 B70B0000 		lui	s7,%hi(.LC22)
 1264              	.LVL122:
 1265              	.L95:
 362:C:/Users/stapi/OneDrive/Desktop/GD32VW553/V1_MQTT_OK/GD32VW55X_Wifi_BLE_SDK/GD32VW55x_RELEASE_V1.0.2/MSDK/wpa_supplicant/src/tls\asn1.c **** 		ret = os_snprintf(pos, buf + len - pos,
 1266              		.loc 1 362 14 is_stmt 1 discriminator 1
 362:C:/Users/stapi/OneDrive/Desktop/GD32VW553/V1_MQTT_OK/GD32VW55X_Wifi_BLE_SDK/GD32VW55x_RELEASE_V1.0.2/MSDK/wpa_supplicant/src/tls\asn1.c **** 		ret = os_snprintf(pos, buf + len - pos,
 1267              		.loc 1 362 2 is_stmt 0 discriminator 1
 1268 002c 83A70905 		lw	a5,80(s3)
 1269 0030 6375F902 		bleu	a5,s2,.L98
 363:C:/Users/stapi/OneDrive/Desktop/GD32VW553/V1_MQTT_OK/GD32VW55X_Wifi_BLE_SDK/GD32VW55x_RELEASE_V1.0.2/MSDK/wpa_supplicant/src/tls\asn1.c **** 				  "%s%lu",
 1270              		.loc 1 363 3 is_stmt 1
 363:C:/Users/stapi/OneDrive/Desktop/GD32VW553/V1_MQTT_OK/GD32VW55X_Wifi_BLE_SDK/GD32VW55x_RELEASE_V1.0.2/MSDK/wpa_supplicant/src/tls\asn1.c **** 				  "%s%lu",
 1271              		.loc 1 363 36 is_stmt 0
 1272 0034 338B8440 		sub	s6,s1,s0
 363:C:/Users/stapi/OneDrive/Desktop/GD32VW553/V1_MQTT_OK/GD32VW55X_Wifi_BLE_SDK/GD32VW55x_RELEASE_V1.0.2/MSDK/wpa_supplicant/src/tls\asn1.c **** 				  "%s%lu",
 1273              		.loc 1 363 9
 1274 0038 D286     		mv	a3,s4
 1275 003a 63030900 		beq	s2,zero,.L96
 1276 003e D686     		mv	a3,s5
 1277              	.L96:
 363:C:/Users/stapi/OneDrive/Desktop/GD32VW553/V1_MQTT_OK/GD32VW55X_Wifi_BLE_SDK/GD32VW55x_RELEASE_V1.0.2/MSDK/wpa_supplicant/src/tls\asn1.c **** 				  "%s%lu",
 1278              		.loc 1 363 9 discriminator 4
 1279 0040 B3473921 		sh2add	a5,s2,s3
 1280 0044 9843     		lw	a4,0(a5)
 1281 0046 13860B00 		addi	a2,s7,%lo(.LC22)
 1282 004a DA85     		mv	a1,s6
 1283 004c 2285     		mv	a0,s0
 1284 004e 97000000 		call	os_snprintf
 1284      E7800000 
 1285              	.LVL123:
 366:C:/Users/stapi/OneDrive/Desktop/GD32VW553/V1_MQTT_OK/GD32VW55X_Wifi_BLE_SDK/GD32VW55x_RELEASE_V1.0.2/MSDK/wpa_supplicant/src/tls\asn1.c **** 			break;
 1286              		.loc 1 366 3 is_stmt 1 discriminator 4
 1287              	.LBB102:
 1288              	.LBB103:
 1289              		.file 5 "..\\..\\..\\..\\wpa_supplicant\\src\\utils/os.h"
   1:..\..\..\..\wpa_supplicant\src\utils/os.h **** /*
   2:..\..\..\..\wpa_supplicant\src\utils/os.h ****  * OS specific functions
   3:..\..\..\..\wpa_supplicant\src\utils/os.h ****  * Copyright (c) 2005-2009, Jouni Malinen <j@w1.fi>
   4:..\..\..\..\wpa_supplicant\src\utils/os.h ****  *
   5:..\..\..\..\wpa_supplicant\src\utils/os.h ****  * This software may be distributed under the terms of the BSD license.
   6:..\..\..\..\wpa_supplicant\src\utils/os.h ****  * See README for more details.
   7:..\..\..\..\wpa_supplicant\src\utils/os.h ****  */
   8:..\..\..\..\wpa_supplicant\src\utils/os.h **** 
   9:..\..\..\..\wpa_supplicant\src\utils/os.h **** #ifndef OS_H
  10:..\..\..\..\wpa_supplicant\src\utils/os.h **** #define OS_H
  11:..\..\..\..\wpa_supplicant\src\utils/os.h **** 
  12:..\..\..\..\wpa_supplicant\src\utils/os.h **** typedef long os_time_t;
  13:..\..\..\..\wpa_supplicant\src\utils/os.h **** 
  14:..\..\..\..\wpa_supplicant\src\utils/os.h **** /**
  15:..\..\..\..\wpa_supplicant\src\utils/os.h ****  * os_sleep - Sleep (sec, usec)
  16:..\..\..\..\wpa_supplicant\src\utils/os.h ****  * @sec: Number of seconds to sleep
  17:..\..\..\..\wpa_supplicant\src\utils/os.h ****  * @usec: Number of microseconds to sleep
  18:..\..\..\..\wpa_supplicant\src\utils/os.h ****  */
  19:..\..\..\..\wpa_supplicant\src\utils/os.h **** void os_sleep(os_time_t sec, os_time_t usec);
  20:..\..\..\..\wpa_supplicant\src\utils/os.h **** 
  21:..\..\..\..\wpa_supplicant\src\utils/os.h **** struct os_time {
  22:..\..\..\..\wpa_supplicant\src\utils/os.h **** 	os_time_t sec;
  23:..\..\..\..\wpa_supplicant\src\utils/os.h **** 	os_time_t usec;
  24:..\..\..\..\wpa_supplicant\src\utils/os.h **** };
  25:..\..\..\..\wpa_supplicant\src\utils/os.h **** 
  26:..\..\..\..\wpa_supplicant\src\utils/os.h **** struct os_reltime {
  27:..\..\..\..\wpa_supplicant\src\utils/os.h **** 	os_time_t sec;
  28:..\..\..\..\wpa_supplicant\src\utils/os.h **** 	os_time_t usec;
  29:..\..\..\..\wpa_supplicant\src\utils/os.h **** };
  30:..\..\..\..\wpa_supplicant\src\utils/os.h **** 
  31:..\..\..\..\wpa_supplicant\src\utils/os.h **** /**
  32:..\..\..\..\wpa_supplicant\src\utils/os.h ****  * os_get_time - Get current time (sec, usec)
  33:..\..\..\..\wpa_supplicant\src\utils/os.h ****  * @t: Pointer to buffer for the time
  34:..\..\..\..\wpa_supplicant\src\utils/os.h ****  * Returns: 0 on success, -1 on failure
  35:..\..\..\..\wpa_supplicant\src\utils/os.h ****  */
  36:..\..\..\..\wpa_supplicant\src\utils/os.h **** int os_get_time(struct os_time *t);
  37:..\..\..\..\wpa_supplicant\src\utils/os.h **** 
  38:..\..\..\..\wpa_supplicant\src\utils/os.h **** /**
  39:..\..\..\..\wpa_supplicant\src\utils/os.h ****  * os_get_reltime - Get relative time (sec, usec)
  40:..\..\..\..\wpa_supplicant\src\utils/os.h ****  * @t: Pointer to buffer for the time
  41:..\..\..\..\wpa_supplicant\src\utils/os.h ****  * Returns: 0 on success, -1 on failure
  42:..\..\..\..\wpa_supplicant\src\utils/os.h ****  */
  43:..\..\..\..\wpa_supplicant\src\utils/os.h **** int os_get_reltime(struct os_reltime *t);
  44:..\..\..\..\wpa_supplicant\src\utils/os.h **** 
  45:..\..\..\..\wpa_supplicant\src\utils/os.h **** 
  46:..\..\..\..\wpa_supplicant\src\utils/os.h **** /* Helpers for handling struct os_time */
  47:..\..\..\..\wpa_supplicant\src\utils/os.h **** 
  48:..\..\..\..\wpa_supplicant\src\utils/os.h **** static inline int os_time_before(struct os_time *a, struct os_time *b)
  49:..\..\..\..\wpa_supplicant\src\utils/os.h **** {
  50:..\..\..\..\wpa_supplicant\src\utils/os.h **** 	return (a->sec < b->sec) ||
  51:..\..\..\..\wpa_supplicant\src\utils/os.h **** 	       (a->sec == b->sec && a->usec < b->usec);
  52:..\..\..\..\wpa_supplicant\src\utils/os.h **** }
  53:..\..\..\..\wpa_supplicant\src\utils/os.h **** 
  54:..\..\..\..\wpa_supplicant\src\utils/os.h **** 
  55:..\..\..\..\wpa_supplicant\src\utils/os.h **** static inline void os_time_sub(struct os_time *a, struct os_time *b,
  56:..\..\..\..\wpa_supplicant\src\utils/os.h **** 			       struct os_time *res)
  57:..\..\..\..\wpa_supplicant\src\utils/os.h **** {
  58:..\..\..\..\wpa_supplicant\src\utils/os.h **** 	res->sec = a->sec - b->sec;
  59:..\..\..\..\wpa_supplicant\src\utils/os.h **** 	res->usec = a->usec - b->usec;
  60:..\..\..\..\wpa_supplicant\src\utils/os.h **** 	if (res->usec < 0) {
  61:..\..\..\..\wpa_supplicant\src\utils/os.h **** 		res->sec--;
  62:..\..\..\..\wpa_supplicant\src\utils/os.h **** 		res->usec += 1000000;
  63:..\..\..\..\wpa_supplicant\src\utils/os.h **** 	}
  64:..\..\..\..\wpa_supplicant\src\utils/os.h **** }
  65:..\..\..\..\wpa_supplicant\src\utils/os.h **** 
  66:..\..\..\..\wpa_supplicant\src\utils/os.h **** 
  67:..\..\..\..\wpa_supplicant\src\utils/os.h **** /* Helpers for handling struct os_reltime */
  68:..\..\..\..\wpa_supplicant\src\utils/os.h **** 
  69:..\..\..\..\wpa_supplicant\src\utils/os.h **** static inline int os_reltime_before(struct os_reltime *a,
  70:..\..\..\..\wpa_supplicant\src\utils/os.h **** 				    struct os_reltime *b)
  71:..\..\..\..\wpa_supplicant\src\utils/os.h **** {
  72:..\..\..\..\wpa_supplicant\src\utils/os.h **** 	return (a->sec < b->sec) ||
  73:..\..\..\..\wpa_supplicant\src\utils/os.h **** 	       (a->sec == b->sec && a->usec < b->usec);
  74:..\..\..\..\wpa_supplicant\src\utils/os.h **** }
  75:..\..\..\..\wpa_supplicant\src\utils/os.h **** 
  76:..\..\..\..\wpa_supplicant\src\utils/os.h **** 
  77:..\..\..\..\wpa_supplicant\src\utils/os.h **** static inline void os_reltime_sub(struct os_reltime *a, struct os_reltime *b,
  78:..\..\..\..\wpa_supplicant\src\utils/os.h **** 				  struct os_reltime *res)
  79:..\..\..\..\wpa_supplicant\src\utils/os.h **** {
  80:..\..\..\..\wpa_supplicant\src\utils/os.h **** 	res->sec = a->sec - b->sec;
  81:..\..\..\..\wpa_supplicant\src\utils/os.h **** 	res->usec = a->usec - b->usec;
  82:..\..\..\..\wpa_supplicant\src\utils/os.h **** 	if (res->usec < 0) {
  83:..\..\..\..\wpa_supplicant\src\utils/os.h **** 		res->sec--;
  84:..\..\..\..\wpa_supplicant\src\utils/os.h **** 		res->usec += 1000000;
  85:..\..\..\..\wpa_supplicant\src\utils/os.h **** 	}
  86:..\..\..\..\wpa_supplicant\src\utils/os.h **** }
  87:..\..\..\..\wpa_supplicant\src\utils/os.h **** 
  88:..\..\..\..\wpa_supplicant\src\utils/os.h **** 
  89:..\..\..\..\wpa_supplicant\src\utils/os.h **** static inline void os_reltime_age(struct os_reltime *start,
  90:..\..\..\..\wpa_supplicant\src\utils/os.h **** 				  struct os_reltime *age)
  91:..\..\..\..\wpa_supplicant\src\utils/os.h **** {
  92:..\..\..\..\wpa_supplicant\src\utils/os.h **** 	struct os_reltime now;
  93:..\..\..\..\wpa_supplicant\src\utils/os.h **** 
  94:..\..\..\..\wpa_supplicant\src\utils/os.h **** 	os_get_reltime(&now);
  95:..\..\..\..\wpa_supplicant\src\utils/os.h **** 	os_reltime_sub(&now, start, age);
  96:..\..\..\..\wpa_supplicant\src\utils/os.h **** }
  97:..\..\..\..\wpa_supplicant\src\utils/os.h **** 
  98:..\..\..\..\wpa_supplicant\src\utils/os.h **** 
  99:..\..\..\..\wpa_supplicant\src\utils/os.h **** static inline int os_reltime_expired(struct os_reltime *now,
 100:..\..\..\..\wpa_supplicant\src\utils/os.h **** 				     struct os_reltime *ts,
 101:..\..\..\..\wpa_supplicant\src\utils/os.h **** 				     os_time_t timeout_secs)
 102:..\..\..\..\wpa_supplicant\src\utils/os.h **** {
 103:..\..\..\..\wpa_supplicant\src\utils/os.h **** 	struct os_reltime age;
 104:..\..\..\..\wpa_supplicant\src\utils/os.h **** 
 105:..\..\..\..\wpa_supplicant\src\utils/os.h **** 	os_reltime_sub(now, ts, &age);
 106:..\..\..\..\wpa_supplicant\src\utils/os.h **** 	return (age.sec > timeout_secs) ||
 107:..\..\..\..\wpa_supplicant\src\utils/os.h **** 	       (age.sec == timeout_secs && age.usec > 0);
 108:..\..\..\..\wpa_supplicant\src\utils/os.h **** }
 109:..\..\..\..\wpa_supplicant\src\utils/os.h **** 
 110:..\..\..\..\wpa_supplicant\src\utils/os.h **** 
 111:..\..\..\..\wpa_supplicant\src\utils/os.h **** static inline int os_reltime_initialized(struct os_reltime *t)
 112:..\..\..\..\wpa_supplicant\src\utils/os.h **** {
 113:..\..\..\..\wpa_supplicant\src\utils/os.h **** 	return t->sec != 0 || t->usec != 0;
 114:..\..\..\..\wpa_supplicant\src\utils/os.h **** }
 115:..\..\..\..\wpa_supplicant\src\utils/os.h **** 
 116:..\..\..\..\wpa_supplicant\src\utils/os.h **** 
 117:..\..\..\..\wpa_supplicant\src\utils/os.h **** /**
 118:..\..\..\..\wpa_supplicant\src\utils/os.h ****  * os_mktime - Convert broken-down time into seconds since 1970-01-01
 119:..\..\..\..\wpa_supplicant\src\utils/os.h ****  * @year: Four digit year
 120:..\..\..\..\wpa_supplicant\src\utils/os.h ****  * @month: Month (1 .. 12)
 121:..\..\..\..\wpa_supplicant\src\utils/os.h ****  * @day: Day of month (1 .. 31)
 122:..\..\..\..\wpa_supplicant\src\utils/os.h ****  * @hour: Hour (0 .. 23)
 123:..\..\..\..\wpa_supplicant\src\utils/os.h ****  * @min: Minute (0 .. 59)
 124:..\..\..\..\wpa_supplicant\src\utils/os.h ****  * @sec: Second (0 .. 60)
 125:..\..\..\..\wpa_supplicant\src\utils/os.h ****  * @t: Buffer for returning calendar time representation (seconds since
 126:..\..\..\..\wpa_supplicant\src\utils/os.h ****  * 1970-01-01 00:00:00)
 127:..\..\..\..\wpa_supplicant\src\utils/os.h ****  * Returns: 0 on success, -1 on failure
 128:..\..\..\..\wpa_supplicant\src\utils/os.h ****  *
 129:..\..\..\..\wpa_supplicant\src\utils/os.h ****  * Note: The result is in seconds from Epoch, i.e., in UTC, not in local time
 130:..\..\..\..\wpa_supplicant\src\utils/os.h ****  * which is used by POSIX mktime().
 131:..\..\..\..\wpa_supplicant\src\utils/os.h ****  */
 132:..\..\..\..\wpa_supplicant\src\utils/os.h **** int os_mktime(int year, int month, int day, int hour, int min, int sec,
 133:..\..\..\..\wpa_supplicant\src\utils/os.h **** 	      os_time_t *t);
 134:..\..\..\..\wpa_supplicant\src\utils/os.h **** 
 135:..\..\..\..\wpa_supplicant\src\utils/os.h **** struct os_tm {
 136:..\..\..\..\wpa_supplicant\src\utils/os.h **** 	int sec; /* 0..59 or 60 for leap seconds */
 137:..\..\..\..\wpa_supplicant\src\utils/os.h **** 	int min; /* 0..59 */
 138:..\..\..\..\wpa_supplicant\src\utils/os.h **** 	int hour; /* 0..23 */
 139:..\..\..\..\wpa_supplicant\src\utils/os.h **** 	int day; /* 1..31 */
 140:..\..\..\..\wpa_supplicant\src\utils/os.h **** 	int month; /* 1..12 */
 141:..\..\..\..\wpa_supplicant\src\utils/os.h **** 	int year; /* Four digit year */
 142:..\..\..\..\wpa_supplicant\src\utils/os.h **** };
 143:..\..\..\..\wpa_supplicant\src\utils/os.h **** 
 144:..\..\..\..\wpa_supplicant\src\utils/os.h **** int os_gmtime(os_time_t t, struct os_tm *tm);
 145:..\..\..\..\wpa_supplicant\src\utils/os.h **** 
 146:..\..\..\..\wpa_supplicant\src\utils/os.h **** /**
 147:..\..\..\..\wpa_supplicant\src\utils/os.h ****  * os_daemonize - Run in the background (detach from the controlling terminal)
 148:..\..\..\..\wpa_supplicant\src\utils/os.h ****  * @pid_file: File name to write the process ID to or %NULL to skip this
 149:..\..\..\..\wpa_supplicant\src\utils/os.h ****  * Returns: 0 on success, -1 on failure
 150:..\..\..\..\wpa_supplicant\src\utils/os.h ****  */
 151:..\..\..\..\wpa_supplicant\src\utils/os.h **** int os_daemonize(const char *pid_file);
 152:..\..\..\..\wpa_supplicant\src\utils/os.h **** 
 153:..\..\..\..\wpa_supplicant\src\utils/os.h **** /**
 154:..\..\..\..\wpa_supplicant\src\utils/os.h ****  * os_daemonize_terminate - Stop running in the background (remove pid file)
 155:..\..\..\..\wpa_supplicant\src\utils/os.h ****  * @pid_file: File name to write the process ID to or %NULL to skip this
 156:..\..\..\..\wpa_supplicant\src\utils/os.h ****  */
 157:..\..\..\..\wpa_supplicant\src\utils/os.h **** void os_daemonize_terminate(const char *pid_file);
 158:..\..\..\..\wpa_supplicant\src\utils/os.h **** 
 159:..\..\..\..\wpa_supplicant\src\utils/os.h **** /**
 160:..\..\..\..\wpa_supplicant\src\utils/os.h ****  * os_get_random - Get cryptographically strong pseudo random data
 161:..\..\..\..\wpa_supplicant\src\utils/os.h ****  * @buf: Buffer for pseudo random data
 162:..\..\..\..\wpa_supplicant\src\utils/os.h ****  * @len: Length of the buffer
 163:..\..\..\..\wpa_supplicant\src\utils/os.h ****  * Returns: 0 on success, -1 on failure
 164:..\..\..\..\wpa_supplicant\src\utils/os.h ****  */
 165:..\..\..\..\wpa_supplicant\src\utils/os.h **** int os_get_random(unsigned char *buf, size_t len);
 166:..\..\..\..\wpa_supplicant\src\utils/os.h **** 
 167:..\..\..\..\wpa_supplicant\src\utils/os.h **** /**
 168:..\..\..\..\wpa_supplicant\src\utils/os.h ****  * os_random - Get pseudo random value (not necessarily very strong)
 169:..\..\..\..\wpa_supplicant\src\utils/os.h ****  * Returns: Pseudo random value
 170:..\..\..\..\wpa_supplicant\src\utils/os.h ****  */
 171:..\..\..\..\wpa_supplicant\src\utils/os.h **** unsigned long os_random(void);
 172:..\..\..\..\wpa_supplicant\src\utils/os.h **** 
 173:..\..\..\..\wpa_supplicant\src\utils/os.h **** /**
 174:..\..\..\..\wpa_supplicant\src\utils/os.h ****  * os_rel2abs_path - Get an absolute path for a file
 175:..\..\..\..\wpa_supplicant\src\utils/os.h ****  * @rel_path: Relative path to a file
 176:..\..\..\..\wpa_supplicant\src\utils/os.h ****  * Returns: Absolute path for the file or %NULL on failure
 177:..\..\..\..\wpa_supplicant\src\utils/os.h ****  *
 178:..\..\..\..\wpa_supplicant\src\utils/os.h ****  * This function tries to convert a relative path of a file to an absolute path
 179:..\..\..\..\wpa_supplicant\src\utils/os.h ****  * in order for the file to be found even if current working directory has
 180:..\..\..\..\wpa_supplicant\src\utils/os.h ****  * changed. The returned value is allocated and caller is responsible for
 181:..\..\..\..\wpa_supplicant\src\utils/os.h ****  * freeing it. It is acceptable to just return the same path in an allocated
 182:..\..\..\..\wpa_supplicant\src\utils/os.h ****  * buffer, e.g., return strdup(rel_path). This function is only used to find
 183:..\..\..\..\wpa_supplicant\src\utils/os.h ****  * configuration files when os_daemonize() may have changed the current working
 184:..\..\..\..\wpa_supplicant\src\utils/os.h ****  * directory and relative path would be pointing to a different location.
 185:..\..\..\..\wpa_supplicant\src\utils/os.h ****  */
 186:..\..\..\..\wpa_supplicant\src\utils/os.h **** char * os_rel2abs_path(const char *rel_path);
 187:..\..\..\..\wpa_supplicant\src\utils/os.h **** 
 188:..\..\..\..\wpa_supplicant\src\utils/os.h **** /**
 189:..\..\..\..\wpa_supplicant\src\utils/os.h ****  * os_program_init - Program initialization (called at start)
 190:..\..\..\..\wpa_supplicant\src\utils/os.h ****  * Returns: 0 on success, -1 on failure
 191:..\..\..\..\wpa_supplicant\src\utils/os.h ****  *
 192:..\..\..\..\wpa_supplicant\src\utils/os.h ****  * This function is called when a programs starts. If there are any OS specific
 193:..\..\..\..\wpa_supplicant\src\utils/os.h ****  * processing that is needed, it can be placed here. It is also acceptable to
 194:..\..\..\..\wpa_supplicant\src\utils/os.h ****  * just return 0 if not special processing is needed.
 195:..\..\..\..\wpa_supplicant\src\utils/os.h ****  */
 196:..\..\..\..\wpa_supplicant\src\utils/os.h **** int os_program_init(void);
 197:..\..\..\..\wpa_supplicant\src\utils/os.h **** 
 198:..\..\..\..\wpa_supplicant\src\utils/os.h **** /**
 199:..\..\..\..\wpa_supplicant\src\utils/os.h ****  * os_program_deinit - Program deinitialization (called just before exit)
 200:..\..\..\..\wpa_supplicant\src\utils/os.h ****  *
 201:..\..\..\..\wpa_supplicant\src\utils/os.h ****  * This function is called just before a program exists. If there are any OS
 202:..\..\..\..\wpa_supplicant\src\utils/os.h ****  * specific processing, e.g., freeing resourced allocated in os_program_init(),
 203:..\..\..\..\wpa_supplicant\src\utils/os.h ****  * it should be done here. It is also acceptable for this function to do
 204:..\..\..\..\wpa_supplicant\src\utils/os.h ****  * nothing.
 205:..\..\..\..\wpa_supplicant\src\utils/os.h ****  */
 206:..\..\..\..\wpa_supplicant\src\utils/os.h **** void os_program_deinit(void);
 207:..\..\..\..\wpa_supplicant\src\utils/os.h **** 
 208:..\..\..\..\wpa_supplicant\src\utils/os.h **** /**
 209:..\..\..\..\wpa_supplicant\src\utils/os.h ****  * os_setenv - Set environment variable
 210:..\..\..\..\wpa_supplicant\src\utils/os.h ****  * @name: Name of the variable
 211:..\..\..\..\wpa_supplicant\src\utils/os.h ****  * @value: Value to set to the variable
 212:..\..\..\..\wpa_supplicant\src\utils/os.h ****  * @overwrite: Whether existing variable should be overwritten
 213:..\..\..\..\wpa_supplicant\src\utils/os.h ****  * Returns: 0 on success, -1 on error
 214:..\..\..\..\wpa_supplicant\src\utils/os.h ****  *
 215:..\..\..\..\wpa_supplicant\src\utils/os.h ****  * This function is only used for wpa_cli action scripts. OS wrapper does not
 216:..\..\..\..\wpa_supplicant\src\utils/os.h ****  * need to implement this if such functionality is not needed.
 217:..\..\..\..\wpa_supplicant\src\utils/os.h ****  */
 218:..\..\..\..\wpa_supplicant\src\utils/os.h **** int os_setenv(const char *name, const char *value, int overwrite);
 219:..\..\..\..\wpa_supplicant\src\utils/os.h **** 
 220:..\..\..\..\wpa_supplicant\src\utils/os.h **** /**
 221:..\..\..\..\wpa_supplicant\src\utils/os.h ****  * os_unsetenv - Delete environent variable
 222:..\..\..\..\wpa_supplicant\src\utils/os.h ****  * @name: Name of the variable
 223:..\..\..\..\wpa_supplicant\src\utils/os.h ****  * Returns: 0 on success, -1 on error
 224:..\..\..\..\wpa_supplicant\src\utils/os.h ****  *
 225:..\..\..\..\wpa_supplicant\src\utils/os.h ****  * This function is only used for wpa_cli action scripts. OS wrapper does not
 226:..\..\..\..\wpa_supplicant\src\utils/os.h ****  * need to implement this if such functionality is not needed.
 227:..\..\..\..\wpa_supplicant\src\utils/os.h ****  */
 228:..\..\..\..\wpa_supplicant\src\utils/os.h **** int os_unsetenv(const char *name);
 229:..\..\..\..\wpa_supplicant\src\utils/os.h **** 
 230:..\..\..\..\wpa_supplicant\src\utils/os.h **** /**
 231:..\..\..\..\wpa_supplicant\src\utils/os.h ****  * os_readfile - Read a file to an allocated memory buffer
 232:..\..\..\..\wpa_supplicant\src\utils/os.h ****  * @name: Name of the file to read
 233:..\..\..\..\wpa_supplicant\src\utils/os.h ****  * @len: For returning the length of the allocated buffer
 234:..\..\..\..\wpa_supplicant\src\utils/os.h ****  * Returns: Pointer to the allocated buffer or %NULL on failure
 235:..\..\..\..\wpa_supplicant\src\utils/os.h ****  *
 236:..\..\..\..\wpa_supplicant\src\utils/os.h ****  * This function allocates memory and reads the given file to this buffer. Both
 237:..\..\..\..\wpa_supplicant\src\utils/os.h ****  * binary and text files can be read with this function. The caller is
 238:..\..\..\..\wpa_supplicant\src\utils/os.h ****  * responsible for freeing the returned buffer with os_free().
 239:..\..\..\..\wpa_supplicant\src\utils/os.h ****  */
 240:..\..\..\..\wpa_supplicant\src\utils/os.h **** char * os_readfile(const char *name, size_t *len);
 241:..\..\..\..\wpa_supplicant\src\utils/os.h **** 
 242:..\..\..\..\wpa_supplicant\src\utils/os.h **** /**
 243:..\..\..\..\wpa_supplicant\src\utils/os.h ****  * os_file_exists - Check whether the specified file exists
 244:..\..\..\..\wpa_supplicant\src\utils/os.h ****  * @fname: Path and name of the file
 245:..\..\..\..\wpa_supplicant\src\utils/os.h ****  * Returns: 1 if the file exists or 0 if not
 246:..\..\..\..\wpa_supplicant\src\utils/os.h ****  */
 247:..\..\..\..\wpa_supplicant\src\utils/os.h **** int os_file_exists(const char *fname);
 248:..\..\..\..\wpa_supplicant\src\utils/os.h **** 
 249:..\..\..\..\wpa_supplicant\src\utils/os.h **** /**
 250:..\..\..\..\wpa_supplicant\src\utils/os.h ****  * os_fdatasync - Sync a file's (for a given stream) state with storage device
 251:..\..\..\..\wpa_supplicant\src\utils/os.h ****  * @stream: the stream to be flushed
 252:..\..\..\..\wpa_supplicant\src\utils/os.h ****  * Returns: 0 if the operation succeeded or -1 on failure
 253:..\..\..\..\wpa_supplicant\src\utils/os.h ****  */
 254:..\..\..\..\wpa_supplicant\src\utils/os.h **** int os_fdatasync(FILE *stream);
 255:..\..\..\..\wpa_supplicant\src\utils/os.h **** 
 256:..\..\..\..\wpa_supplicant\src\utils/os.h **** /**
 257:..\..\..\..\wpa_supplicant\src\utils/os.h ****  * os_zalloc - Allocate and zero memory
 258:..\..\..\..\wpa_supplicant\src\utils/os.h ****  * @size: Number of bytes to allocate
 259:..\..\..\..\wpa_supplicant\src\utils/os.h ****  * Returns: Pointer to allocated and zeroed memory or %NULL on failure
 260:..\..\..\..\wpa_supplicant\src\utils/os.h ****  *
 261:..\..\..\..\wpa_supplicant\src\utils/os.h ****  * Caller is responsible for freeing the returned buffer with os_free().
 262:..\..\..\..\wpa_supplicant\src\utils/os.h ****  */
 263:..\..\..\..\wpa_supplicant\src\utils/os.h **** void * os_zalloc(size_t size);
 264:..\..\..\..\wpa_supplicant\src\utils/os.h **** 
 265:..\..\..\..\wpa_supplicant\src\utils/os.h **** /**
 266:..\..\..\..\wpa_supplicant\src\utils/os.h ****  * os_calloc - Allocate and zero memory for an array
 267:..\..\..\..\wpa_supplicant\src\utils/os.h ****  * @nmemb: Number of members in the array
 268:..\..\..\..\wpa_supplicant\src\utils/os.h ****  * @size: Number of bytes in each member
 269:..\..\..\..\wpa_supplicant\src\utils/os.h ****  * Returns: Pointer to allocated and zeroed memory or %NULL on failure
 270:..\..\..\..\wpa_supplicant\src\utils/os.h ****  *
 271:..\..\..\..\wpa_supplicant\src\utils/os.h ****  * This function can be used as a wrapper for os_zalloc(nmemb * size) when an
 272:..\..\..\..\wpa_supplicant\src\utils/os.h ****  * allocation is used for an array. The main benefit over os_zalloc() is in
 273:..\..\..\..\wpa_supplicant\src\utils/os.h ****  * having an extra check to catch integer overflows in multiplication.
 274:..\..\..\..\wpa_supplicant\src\utils/os.h ****  *
 275:..\..\..\..\wpa_supplicant\src\utils/os.h ****  * Caller is responsible for freeing the returned buffer with os_free().
 276:..\..\..\..\wpa_supplicant\src\utils/os.h ****  */
 277:..\..\..\..\wpa_supplicant\src\utils/os.h **** static inline void * os_calloc(size_t nmemb, size_t size)
 278:..\..\..\..\wpa_supplicant\src\utils/os.h **** {
 279:..\..\..\..\wpa_supplicant\src\utils/os.h **** 	if (size && nmemb > (~(size_t) 0) / size)
 280:..\..\..\..\wpa_supplicant\src\utils/os.h **** 		return NULL;
 281:..\..\..\..\wpa_supplicant\src\utils/os.h **** 	return os_zalloc(nmemb * size);
 282:..\..\..\..\wpa_supplicant\src\utils/os.h **** }
 283:..\..\..\..\wpa_supplicant\src\utils/os.h **** 
 284:..\..\..\..\wpa_supplicant\src\utils/os.h **** 
 285:..\..\..\..\wpa_supplicant\src\utils/os.h **** /*
 286:..\..\..\..\wpa_supplicant\src\utils/os.h ****  * The following functions are wrapper for standard ANSI C or POSIX functions.
 287:..\..\..\..\wpa_supplicant\src\utils/os.h ****  * By default, they are just defined to use the standard function name and no
 288:..\..\..\..\wpa_supplicant\src\utils/os.h ****  * os_*.c implementation is needed for them. This avoids extra function calls
 289:..\..\..\..\wpa_supplicant\src\utils/os.h ****  * by allowing the C pre-processor take care of the function name mapping.
 290:..\..\..\..\wpa_supplicant\src\utils/os.h ****  *
 291:..\..\..\..\wpa_supplicant\src\utils/os.h ****  * If the target system uses a C library that does not provide these functions,
 292:..\..\..\..\wpa_supplicant\src\utils/os.h ****  * build_config.h can be used to define the wrappers to use a different
 293:..\..\..\..\wpa_supplicant\src\utils/os.h ****  * function name. This can be done on function-by-function basis since the
 294:..\..\..\..\wpa_supplicant\src\utils/os.h ****  * defines here are only used if build_config.h does not define the os_* name.
 295:..\..\..\..\wpa_supplicant\src\utils/os.h ****  * If needed, os_*.c file can be used to implement the functions that are not
 296:..\..\..\..\wpa_supplicant\src\utils/os.h ****  * included in the C library on the target system. Alternatively,
 297:..\..\..\..\wpa_supplicant\src\utils/os.h ****  * OS_NO_C_LIB_DEFINES can be defined to skip all defines here in which case
 298:..\..\..\..\wpa_supplicant\src\utils/os.h ****  * these functions need to be implemented in os_*.c file for the target system.
 299:..\..\..\..\wpa_supplicant\src\utils/os.h ****  */
 300:..\..\..\..\wpa_supplicant\src\utils/os.h **** 
 301:..\..\..\..\wpa_supplicant\src\utils/os.h **** #ifdef OS_NO_C_LIB_DEFINES
 302:..\..\..\..\wpa_supplicant\src\utils/os.h **** 
 303:..\..\..\..\wpa_supplicant\src\utils/os.h **** /**
 304:..\..\..\..\wpa_supplicant\src\utils/os.h ****  * os_malloc - Allocate dynamic memory
 305:..\..\..\..\wpa_supplicant\src\utils/os.h ****  * @size: Size of the buffer to allocate
 306:..\..\..\..\wpa_supplicant\src\utils/os.h ****  * Returns: Allocated buffer or %NULL on failure
 307:..\..\..\..\wpa_supplicant\src\utils/os.h ****  *
 308:..\..\..\..\wpa_supplicant\src\utils/os.h ****  * Caller is responsible for freeing the returned buffer with os_free().
 309:..\..\..\..\wpa_supplicant\src\utils/os.h ****  */
 310:..\..\..\..\wpa_supplicant\src\utils/os.h **** void * os_malloc(size_t size);
 311:..\..\..\..\wpa_supplicant\src\utils/os.h **** 
 312:..\..\..\..\wpa_supplicant\src\utils/os.h **** /**
 313:..\..\..\..\wpa_supplicant\src\utils/os.h ****  * os_realloc - Re-allocate dynamic memory
 314:..\..\..\..\wpa_supplicant\src\utils/os.h ****  * @ptr: Old buffer from os_malloc() or os_realloc()
 315:..\..\..\..\wpa_supplicant\src\utils/os.h ****  * @size: Size of the new buffer
 316:..\..\..\..\wpa_supplicant\src\utils/os.h ****  * Returns: Allocated buffer or %NULL on failure
 317:..\..\..\..\wpa_supplicant\src\utils/os.h ****  *
 318:..\..\..\..\wpa_supplicant\src\utils/os.h ****  * Caller is responsible for freeing the returned buffer with os_free().
 319:..\..\..\..\wpa_supplicant\src\utils/os.h ****  * If re-allocation fails, %NULL is returned and the original buffer (ptr) is
 320:..\..\..\..\wpa_supplicant\src\utils/os.h ****  * not freed and caller is still responsible for freeing it.
 321:..\..\..\..\wpa_supplicant\src\utils/os.h ****  */
 322:..\..\..\..\wpa_supplicant\src\utils/os.h **** void * os_realloc(void *ptr, size_t size);
 323:..\..\..\..\wpa_supplicant\src\utils/os.h **** 
 324:..\..\..\..\wpa_supplicant\src\utils/os.h **** /**
 325:..\..\..\..\wpa_supplicant\src\utils/os.h ****  * os_free - Free dynamic memory
 326:..\..\..\..\wpa_supplicant\src\utils/os.h ****  * @ptr: Old buffer from os_malloc() or os_realloc(); can be %NULL
 327:..\..\..\..\wpa_supplicant\src\utils/os.h ****  */
 328:..\..\..\..\wpa_supplicant\src\utils/os.h **** void os_free(void *ptr);
 329:..\..\..\..\wpa_supplicant\src\utils/os.h **** 
 330:..\..\..\..\wpa_supplicant\src\utils/os.h **** /**
 331:..\..\..\..\wpa_supplicant\src\utils/os.h ****  * os_memcpy - Copy memory area
 332:..\..\..\..\wpa_supplicant\src\utils/os.h ****  * @dest: Destination
 333:..\..\..\..\wpa_supplicant\src\utils/os.h ****  * @src: Source
 334:..\..\..\..\wpa_supplicant\src\utils/os.h ****  * @n: Number of bytes to copy
 335:..\..\..\..\wpa_supplicant\src\utils/os.h ****  * Returns: dest
 336:..\..\..\..\wpa_supplicant\src\utils/os.h ****  *
 337:..\..\..\..\wpa_supplicant\src\utils/os.h ****  * The memory areas src and dst must not overlap. os_memmove() can be used with
 338:..\..\..\..\wpa_supplicant\src\utils/os.h ****  * overlapping memory.
 339:..\..\..\..\wpa_supplicant\src\utils/os.h ****  */
 340:..\..\..\..\wpa_supplicant\src\utils/os.h **** void * os_memcpy(void *dest, const void *src, size_t n);
 341:..\..\..\..\wpa_supplicant\src\utils/os.h **** 
 342:..\..\..\..\wpa_supplicant\src\utils/os.h **** /**
 343:..\..\..\..\wpa_supplicant\src\utils/os.h ****  * os_memmove - Copy memory area
 344:..\..\..\..\wpa_supplicant\src\utils/os.h ****  * @dest: Destination
 345:..\..\..\..\wpa_supplicant\src\utils/os.h ****  * @src: Source
 346:..\..\..\..\wpa_supplicant\src\utils/os.h ****  * @n: Number of bytes to copy
 347:..\..\..\..\wpa_supplicant\src\utils/os.h ****  * Returns: dest
 348:..\..\..\..\wpa_supplicant\src\utils/os.h ****  *
 349:..\..\..\..\wpa_supplicant\src\utils/os.h ****  * The memory areas src and dst may overlap.
 350:..\..\..\..\wpa_supplicant\src\utils/os.h ****  */
 351:..\..\..\..\wpa_supplicant\src\utils/os.h **** void * os_memmove(void *dest, const void *src, size_t n);
 352:..\..\..\..\wpa_supplicant\src\utils/os.h **** 
 353:..\..\..\..\wpa_supplicant\src\utils/os.h **** /**
 354:..\..\..\..\wpa_supplicant\src\utils/os.h ****  * os_memset - Fill memory with a constant byte
 355:..\..\..\..\wpa_supplicant\src\utils/os.h ****  * @s: Memory area to be filled
 356:..\..\..\..\wpa_supplicant\src\utils/os.h ****  * @c: Constant byte
 357:..\..\..\..\wpa_supplicant\src\utils/os.h ****  * @n: Number of bytes started from s to fill with c
 358:..\..\..\..\wpa_supplicant\src\utils/os.h ****  * Returns: s
 359:..\..\..\..\wpa_supplicant\src\utils/os.h ****  */
 360:..\..\..\..\wpa_supplicant\src\utils/os.h **** void * os_memset(void *s, int c, size_t n);
 361:..\..\..\..\wpa_supplicant\src\utils/os.h **** 
 362:..\..\..\..\wpa_supplicant\src\utils/os.h **** /**
 363:..\..\..\..\wpa_supplicant\src\utils/os.h ****  * os_memcmp - Compare memory areas
 364:..\..\..\..\wpa_supplicant\src\utils/os.h ****  * @s1: First buffer
 365:..\..\..\..\wpa_supplicant\src\utils/os.h ****  * @s2: Second buffer
 366:..\..\..\..\wpa_supplicant\src\utils/os.h ****  * @n: Maximum numbers of octets to compare
 367:..\..\..\..\wpa_supplicant\src\utils/os.h ****  * Returns: An integer less than, equal to, or greater than zero if s1 is
 368:..\..\..\..\wpa_supplicant\src\utils/os.h ****  * found to be less than, to match, or be greater than s2. Only first n
 369:..\..\..\..\wpa_supplicant\src\utils/os.h ****  * characters will be compared.
 370:..\..\..\..\wpa_supplicant\src\utils/os.h ****  */
 371:..\..\..\..\wpa_supplicant\src\utils/os.h **** int os_memcmp(const void *s1, const void *s2, size_t n);
 372:..\..\..\..\wpa_supplicant\src\utils/os.h **** 
 373:..\..\..\..\wpa_supplicant\src\utils/os.h **** /**
 374:..\..\..\..\wpa_supplicant\src\utils/os.h ****  * os_strdup - Duplicate a string
 375:..\..\..\..\wpa_supplicant\src\utils/os.h ****  * @s: Source string
 376:..\..\..\..\wpa_supplicant\src\utils/os.h ****  * Returns: Allocated buffer with the string copied into it or %NULL on failure
 377:..\..\..\..\wpa_supplicant\src\utils/os.h ****  *
 378:..\..\..\..\wpa_supplicant\src\utils/os.h ****  * Caller is responsible for freeing the returned buffer with os_free().
 379:..\..\..\..\wpa_supplicant\src\utils/os.h ****  */
 380:..\..\..\..\wpa_supplicant\src\utils/os.h **** char * os_strdup(const char *s);
 381:..\..\..\..\wpa_supplicant\src\utils/os.h **** 
 382:..\..\..\..\wpa_supplicant\src\utils/os.h **** /**
 383:..\..\..\..\wpa_supplicant\src\utils/os.h ****  * os_strlen - Calculate the length of a string
 384:..\..\..\..\wpa_supplicant\src\utils/os.h ****  * @s: '\0' terminated string
 385:..\..\..\..\wpa_supplicant\src\utils/os.h ****  * Returns: Number of characters in s (not counting the '\0' terminator)
 386:..\..\..\..\wpa_supplicant\src\utils/os.h ****  */
 387:..\..\..\..\wpa_supplicant\src\utils/os.h **** size_t os_strlen(const char *s);
 388:..\..\..\..\wpa_supplicant\src\utils/os.h **** 
 389:..\..\..\..\wpa_supplicant\src\utils/os.h **** /**
 390:..\..\..\..\wpa_supplicant\src\utils/os.h ****  * os_strcasecmp - Compare two strings ignoring case
 391:..\..\..\..\wpa_supplicant\src\utils/os.h ****  * @s1: First string
 392:..\..\..\..\wpa_supplicant\src\utils/os.h ****  * @s2: Second string
 393:..\..\..\..\wpa_supplicant\src\utils/os.h ****  * Returns: An integer less than, equal to, or greater than zero if s1 is
 394:..\..\..\..\wpa_supplicant\src\utils/os.h ****  * found to be less than, to match, or be greatred than s2
 395:..\..\..\..\wpa_supplicant\src\utils/os.h ****  */
 396:..\..\..\..\wpa_supplicant\src\utils/os.h **** int os_strcasecmp(const char *s1, const char *s2);
 397:..\..\..\..\wpa_supplicant\src\utils/os.h **** 
 398:..\..\..\..\wpa_supplicant\src\utils/os.h **** /**
 399:..\..\..\..\wpa_supplicant\src\utils/os.h ****  * os_strncasecmp - Compare two strings ignoring case
 400:..\..\..\..\wpa_supplicant\src\utils/os.h ****  * @s1: First string
 401:..\..\..\..\wpa_supplicant\src\utils/os.h ****  * @s2: Second string
 402:..\..\..\..\wpa_supplicant\src\utils/os.h ****  * @n: Maximum numbers of characters to compare
 403:..\..\..\..\wpa_supplicant\src\utils/os.h ****  * Returns: An integer less than, equal to, or greater than zero if s1 is
 404:..\..\..\..\wpa_supplicant\src\utils/os.h ****  * found to be less than, to match, or be greater than s2. Only first n
 405:..\..\..\..\wpa_supplicant\src\utils/os.h ****  * characters will be compared.
 406:..\..\..\..\wpa_supplicant\src\utils/os.h ****  */
 407:..\..\..\..\wpa_supplicant\src\utils/os.h **** int os_strncasecmp(const char *s1, const char *s2, size_t n);
 408:..\..\..\..\wpa_supplicant\src\utils/os.h **** 
 409:..\..\..\..\wpa_supplicant\src\utils/os.h **** /**
 410:..\..\..\..\wpa_supplicant\src\utils/os.h ****  * os_strchr - Locate the first occurrence of a character in string
 411:..\..\..\..\wpa_supplicant\src\utils/os.h ****  * @s: String
 412:..\..\..\..\wpa_supplicant\src\utils/os.h ****  * @c: Character to search for
 413:..\..\..\..\wpa_supplicant\src\utils/os.h ****  * Returns: Pointer to the matched character or %NULL if not found
 414:..\..\..\..\wpa_supplicant\src\utils/os.h ****  */
 415:..\..\..\..\wpa_supplicant\src\utils/os.h **** char * os_strchr(const char *s, int c);
 416:..\..\..\..\wpa_supplicant\src\utils/os.h **** 
 417:..\..\..\..\wpa_supplicant\src\utils/os.h **** /**
 418:..\..\..\..\wpa_supplicant\src\utils/os.h ****  * os_strrchr - Locate the last occurrence of a character in string
 419:..\..\..\..\wpa_supplicant\src\utils/os.h ****  * @s: String
 420:..\..\..\..\wpa_supplicant\src\utils/os.h ****  * @c: Character to search for
 421:..\..\..\..\wpa_supplicant\src\utils/os.h ****  * Returns: Pointer to the matched character or %NULL if not found
 422:..\..\..\..\wpa_supplicant\src\utils/os.h ****  */
 423:..\..\..\..\wpa_supplicant\src\utils/os.h **** char * os_strrchr(const char *s, int c);
 424:..\..\..\..\wpa_supplicant\src\utils/os.h **** 
 425:..\..\..\..\wpa_supplicant\src\utils/os.h **** /**
 426:..\..\..\..\wpa_supplicant\src\utils/os.h ****  * os_strcmp - Compare two strings
 427:..\..\..\..\wpa_supplicant\src\utils/os.h ****  * @s1: First string
 428:..\..\..\..\wpa_supplicant\src\utils/os.h ****  * @s2: Second string
 429:..\..\..\..\wpa_supplicant\src\utils/os.h ****  * Returns: An integer less than, equal to, or greater than zero if s1 is
 430:..\..\..\..\wpa_supplicant\src\utils/os.h ****  * found to be less than, to match, or be greatred than s2
 431:..\..\..\..\wpa_supplicant\src\utils/os.h ****  */
 432:..\..\..\..\wpa_supplicant\src\utils/os.h **** int os_strcmp(const char *s1, const char *s2);
 433:..\..\..\..\wpa_supplicant\src\utils/os.h **** 
 434:..\..\..\..\wpa_supplicant\src\utils/os.h **** /**
 435:..\..\..\..\wpa_supplicant\src\utils/os.h ****  * os_strncmp - Compare two strings
 436:..\..\..\..\wpa_supplicant\src\utils/os.h ****  * @s1: First string
 437:..\..\..\..\wpa_supplicant\src\utils/os.h ****  * @s2: Second string
 438:..\..\..\..\wpa_supplicant\src\utils/os.h ****  * @n: Maximum numbers of characters to compare
 439:..\..\..\..\wpa_supplicant\src\utils/os.h ****  * Returns: An integer less than, equal to, or greater than zero if s1 is
 440:..\..\..\..\wpa_supplicant\src\utils/os.h ****  * found to be less than, to match, or be greater than s2. Only first n
 441:..\..\..\..\wpa_supplicant\src\utils/os.h ****  * characters will be compared.
 442:..\..\..\..\wpa_supplicant\src\utils/os.h ****  */
 443:..\..\..\..\wpa_supplicant\src\utils/os.h **** int os_strncmp(const char *s1, const char *s2, size_t n);
 444:..\..\..\..\wpa_supplicant\src\utils/os.h **** 
 445:..\..\..\..\wpa_supplicant\src\utils/os.h **** /**
 446:..\..\..\..\wpa_supplicant\src\utils/os.h ****  * os_strstr - Locate a substring
 447:..\..\..\..\wpa_supplicant\src\utils/os.h ****  * @haystack: String (haystack) to search from
 448:..\..\..\..\wpa_supplicant\src\utils/os.h ****  * @needle: Needle to search from haystack
 449:..\..\..\..\wpa_supplicant\src\utils/os.h ****  * Returns: Pointer to the beginning of the substring or %NULL if not found
 450:..\..\..\..\wpa_supplicant\src\utils/os.h ****  */
 451:..\..\..\..\wpa_supplicant\src\utils/os.h **** char * os_strstr(const char *haystack, const char *needle);
 452:..\..\..\..\wpa_supplicant\src\utils/os.h **** 
 453:..\..\..\..\wpa_supplicant\src\utils/os.h **** /**
 454:..\..\..\..\wpa_supplicant\src\utils/os.h ****  * os_snprintf - Print to a memory buffer
 455:..\..\..\..\wpa_supplicant\src\utils/os.h ****  * @str: Memory buffer to print into
 456:..\..\..\..\wpa_supplicant\src\utils/os.h ****  * @size: Maximum length of the str buffer
 457:..\..\..\..\wpa_supplicant\src\utils/os.h ****  * @format: printf format
 458:..\..\..\..\wpa_supplicant\src\utils/os.h ****  * Returns: Number of characters printed (not including trailing '\0').
 459:..\..\..\..\wpa_supplicant\src\utils/os.h ****  *
 460:..\..\..\..\wpa_supplicant\src\utils/os.h ****  * If the output buffer is truncated, number of characters which would have
 461:..\..\..\..\wpa_supplicant\src\utils/os.h ****  * been written is returned. Since some C libraries return -1 in such a case,
 462:..\..\..\..\wpa_supplicant\src\utils/os.h ****  * the caller must be prepared on that value, too, to indicate truncation.
 463:..\..\..\..\wpa_supplicant\src\utils/os.h ****  *
 464:..\..\..\..\wpa_supplicant\src\utils/os.h ****  * Note: Some C library implementations of snprintf() may not guarantee null
 465:..\..\..\..\wpa_supplicant\src\utils/os.h ****  * termination in case the output is truncated. The OS wrapper function of
 466:..\..\..\..\wpa_supplicant\src\utils/os.h ****  * os_snprintf() should provide this guarantee, i.e., to null terminate the
 467:..\..\..\..\wpa_supplicant\src\utils/os.h ****  * output buffer if a C library version of the function is used and if that
 468:..\..\..\..\wpa_supplicant\src\utils/os.h ****  * function does not guarantee null termination.
 469:..\..\..\..\wpa_supplicant\src\utils/os.h ****  *
 470:..\..\..\..\wpa_supplicant\src\utils/os.h ****  * If the target system does not include snprintf(), see, e.g.,
 471:..\..\..\..\wpa_supplicant\src\utils/os.h ****  * http://www.ijs.si/software/snprintf/ for an example of a portable
 472:..\..\..\..\wpa_supplicant\src\utils/os.h ****  * implementation of snprintf.
 473:..\..\..\..\wpa_supplicant\src\utils/os.h ****  */
 474:..\..\..\..\wpa_supplicant\src\utils/os.h **** int os_snprintf(char *str, size_t size, const char *format, ...);
 475:..\..\..\..\wpa_supplicant\src\utils/os.h **** 
 476:..\..\..\..\wpa_supplicant\src\utils/os.h **** #else /* OS_NO_C_LIB_DEFINES */
 477:..\..\..\..\wpa_supplicant\src\utils/os.h **** 
 478:..\..\..\..\wpa_supplicant\src\utils/os.h **** #ifdef WPA_TRACE
 479:..\..\..\..\wpa_supplicant\src\utils/os.h **** void * os_malloc(size_t size);
 480:..\..\..\..\wpa_supplicant\src\utils/os.h **** void * os_realloc(void *ptr, size_t size);
 481:..\..\..\..\wpa_supplicant\src\utils/os.h **** void os_free(void *ptr);
 482:..\..\..\..\wpa_supplicant\src\utils/os.h **** char * os_strdup(const char *s);
 483:..\..\..\..\wpa_supplicant\src\utils/os.h **** #else /* WPA_TRACE */
 484:..\..\..\..\wpa_supplicant\src\utils/os.h **** #ifndef os_malloc
 485:..\..\..\..\wpa_supplicant\src\utils/os.h **** #define os_malloc(s) malloc((s))
 486:..\..\..\..\wpa_supplicant\src\utils/os.h **** #endif
 487:..\..\..\..\wpa_supplicant\src\utils/os.h **** #ifndef os_realloc
 488:..\..\..\..\wpa_supplicant\src\utils/os.h **** #define os_realloc(p, s) realloc((p), (s))
 489:..\..\..\..\wpa_supplicant\src\utils/os.h **** #endif
 490:..\..\..\..\wpa_supplicant\src\utils/os.h **** #ifndef os_free
 491:..\..\..\..\wpa_supplicant\src\utils/os.h **** #define os_free(p) free((p))
 492:..\..\..\..\wpa_supplicant\src\utils/os.h **** #endif
 493:..\..\..\..\wpa_supplicant\src\utils/os.h **** #ifndef os_strdup
 494:..\..\..\..\wpa_supplicant\src\utils/os.h **** #ifdef _MSC_VER
 495:..\..\..\..\wpa_supplicant\src\utils/os.h **** #define os_strdup(s) _strdup(s)
 496:..\..\..\..\wpa_supplicant\src\utils/os.h **** #else
 497:..\..\..\..\wpa_supplicant\src\utils/os.h **** #define os_strdup(s) strdup(s)
 498:..\..\..\..\wpa_supplicant\src\utils/os.h **** #endif
 499:..\..\..\..\wpa_supplicant\src\utils/os.h **** #endif
 500:..\..\..\..\wpa_supplicant\src\utils/os.h **** #endif /* WPA_TRACE */
 501:..\..\..\..\wpa_supplicant\src\utils/os.h **** 
 502:..\..\..\..\wpa_supplicant\src\utils/os.h **** #ifndef os_memcpy
 503:..\..\..\..\wpa_supplicant\src\utils/os.h **** #define os_memcpy(d, s, n) memcpy((d), (s), (n))
 504:..\..\..\..\wpa_supplicant\src\utils/os.h **** #endif
 505:..\..\..\..\wpa_supplicant\src\utils/os.h **** #ifndef os_memmove
 506:..\..\..\..\wpa_supplicant\src\utils/os.h **** #define os_memmove(d, s, n) memmove((d), (s), (n))
 507:..\..\..\..\wpa_supplicant\src\utils/os.h **** #endif
 508:..\..\..\..\wpa_supplicant\src\utils/os.h **** #ifndef os_memset
 509:..\..\..\..\wpa_supplicant\src\utils/os.h **** #define os_memset(s, c, n) memset(s, c, n)
 510:..\..\..\..\wpa_supplicant\src\utils/os.h **** #endif
 511:..\..\..\..\wpa_supplicant\src\utils/os.h **** #ifndef os_memcmp
 512:..\..\..\..\wpa_supplicant\src\utils/os.h **** #define os_memcmp(s1, s2, n) memcmp((s1), (s2), (n))
 513:..\..\..\..\wpa_supplicant\src\utils/os.h **** #endif
 514:..\..\..\..\wpa_supplicant\src\utils/os.h **** 
 515:..\..\..\..\wpa_supplicant\src\utils/os.h **** #ifndef os_strlen
 516:..\..\..\..\wpa_supplicant\src\utils/os.h **** #define os_strlen(s) strlen(s)
 517:..\..\..\..\wpa_supplicant\src\utils/os.h **** #endif
 518:..\..\..\..\wpa_supplicant\src\utils/os.h **** #ifndef os_strcasecmp
 519:..\..\..\..\wpa_supplicant\src\utils/os.h **** #ifdef _MSC_VER
 520:..\..\..\..\wpa_supplicant\src\utils/os.h **** #define os_strcasecmp(s1, s2) _stricmp((s1), (s2))
 521:..\..\..\..\wpa_supplicant\src\utils/os.h **** #else
 522:..\..\..\..\wpa_supplicant\src\utils/os.h **** #define os_strcasecmp(s1, s2) strcasecmp((s1), (s2))
 523:..\..\..\..\wpa_supplicant\src\utils/os.h **** #endif
 524:..\..\..\..\wpa_supplicant\src\utils/os.h **** #endif
 525:..\..\..\..\wpa_supplicant\src\utils/os.h **** #ifndef os_strncasecmp
 526:..\..\..\..\wpa_supplicant\src\utils/os.h **** #ifdef _MSC_VER
 527:..\..\..\..\wpa_supplicant\src\utils/os.h **** #define os_strncasecmp(s1, s2, n) _strnicmp((s1), (s2), (n))
 528:..\..\..\..\wpa_supplicant\src\utils/os.h **** #else
 529:..\..\..\..\wpa_supplicant\src\utils/os.h **** #define os_strncasecmp(s1, s2, n) strncasecmp((s1), (s2), (n))
 530:..\..\..\..\wpa_supplicant\src\utils/os.h **** #endif
 531:..\..\..\..\wpa_supplicant\src\utils/os.h **** #endif
 532:..\..\..\..\wpa_supplicant\src\utils/os.h **** #ifndef os_strchr
 533:..\..\..\..\wpa_supplicant\src\utils/os.h **** #define os_strchr(s, c) strchr((s), (c))
 534:..\..\..\..\wpa_supplicant\src\utils/os.h **** #endif
 535:..\..\..\..\wpa_supplicant\src\utils/os.h **** #ifndef os_strcmp
 536:..\..\..\..\wpa_supplicant\src\utils/os.h **** #define os_strcmp(s1, s2) strcmp((s1), (s2))
 537:..\..\..\..\wpa_supplicant\src\utils/os.h **** #endif
 538:..\..\..\..\wpa_supplicant\src\utils/os.h **** #ifndef os_strncmp
 539:..\..\..\..\wpa_supplicant\src\utils/os.h **** #define os_strncmp(s1, s2, n) strncmp((s1), (s2), (n))
 540:..\..\..\..\wpa_supplicant\src\utils/os.h **** #endif
 541:..\..\..\..\wpa_supplicant\src\utils/os.h **** #ifndef os_strrchr
 542:..\..\..\..\wpa_supplicant\src\utils/os.h **** #define os_strrchr(s, c) strrchr((s), (c))
 543:..\..\..\..\wpa_supplicant\src\utils/os.h **** #endif
 544:..\..\..\..\wpa_supplicant\src\utils/os.h **** #ifndef os_strstr
 545:..\..\..\..\wpa_supplicant\src\utils/os.h **** #define os_strstr(h, n) strstr((h), (n))
 546:..\..\..\..\wpa_supplicant\src\utils/os.h **** #endif
 547:..\..\..\..\wpa_supplicant\src\utils/os.h **** 
 548:..\..\..\..\wpa_supplicant\src\utils/os.h **** #ifndef os_snprintf
 549:..\..\..\..\wpa_supplicant\src\utils/os.h **** #ifdef _MSC_VER
 550:..\..\..\..\wpa_supplicant\src\utils/os.h **** #define os_snprintf _snprintf
 551:..\..\..\..\wpa_supplicant\src\utils/os.h **** #else
 552:..\..\..\..\wpa_supplicant\src\utils/os.h **** #define os_snprintf snprintf
 553:..\..\..\..\wpa_supplicant\src\utils/os.h **** #endif
 554:..\..\..\..\wpa_supplicant\src\utils/os.h **** #endif
 555:..\..\..\..\wpa_supplicant\src\utils/os.h **** 
 556:..\..\..\..\wpa_supplicant\src\utils/os.h **** #endif /* OS_NO_C_LIB_DEFINES */
 557:..\..\..\..\wpa_supplicant\src\utils/os.h **** 
 558:..\..\..\..\wpa_supplicant\src\utils/os.h **** 
 559:..\..\..\..\wpa_supplicant\src\utils/os.h **** static inline int os_snprintf_error(size_t size, int res)
 560:..\..\..\..\wpa_supplicant\src\utils/os.h **** {
 561:..\..\..\..\wpa_supplicant\src\utils/os.h **** 	return res < 0 || (unsigned int) res >= size;
 1290              		.loc 5 561 2 discriminator 4
 1291              		.loc 5 561 17 is_stmt 0 discriminator 4
 1292 0056 63580500 		bge	a0,zero,.L97
 1293              	.LVL124:
 1294              	.L98:
 1295              	.LBE103:
 1296              	.LBE102:
 370:C:/Users/stapi/OneDrive/Desktop/GD32VW553/V1_MQTT_OK/GD32VW55X_Wifi_BLE_SDK/GD32VW55x_RELEASE_V1.0.2/MSDK/wpa_supplicant/src/tls\asn1.c **** }
 1297              		.loc 1 370 2 is_stmt 1
 370:C:/Users/stapi/OneDrive/Desktop/GD32VW553/V1_MQTT_OK/GD32VW55X_Wifi_BLE_SDK/GD32VW55x_RELEASE_V1.0.2/MSDK/wpa_supplicant/src/tls\asn1.c **** }
 1298              		.loc 1 370 15 is_stmt 0
 1299 005a A38F04FE 		sb	zero,-1(s1)
 371:C:/Users/stapi/OneDrive/Desktop/GD32VW553/V1_MQTT_OK/GD32VW55X_Wifi_BLE_SDK/GD32VW55x_RELEASE_V1.0.2/MSDK/wpa_supplicant/src/tls\asn1.c **** 
 1300              		.loc 1 371 1
 1301 005e 17030000 		tail	__riscv_restore_8
 1301      67000300 
 1302              		.cfi_remember_state
 1303              		.cfi_restore 23
 1304              		.cfi_restore 22
 1305              		.cfi_restore 21
 1306              		.cfi_restore 20
 1307              		.cfi_restore 19
 1308              		.cfi_restore 18
 1309              		.cfi_restore 9
 1310              		.cfi_restore 8
 1311              		.cfi_restore 1
 1312              		.cfi_def_cfa_offset 0
 1313              	.LVL125:
 1314              	.L97:
 1315              		.cfi_restore_state
 1316              	.LBB105:
 1317              	.LBB104:
 1318              		.loc 5 561 17
 1319 0066 E37A65FF 		bleu	s6,a0,.L98
 1320              	.LVL126:
 1321              	.LBE104:
 1322              	.LBE105:
 368:C:/Users/stapi/OneDrive/Desktop/GD32VW553/V1_MQTT_OK/GD32VW55X_Wifi_BLE_SDK/GD32VW55x_RELEASE_V1.0.2/MSDK/wpa_supplicant/src/tls\asn1.c **** 	}
 1323              		.loc 1 368 3 is_stmt 1
 368:C:/Users/stapi/OneDrive/Desktop/GD32VW553/V1_MQTT_OK/GD32VW55X_Wifi_BLE_SDK/GD32VW55x_RELEASE_V1.0.2/MSDK/wpa_supplicant/src/tls\asn1.c **** 	}
 1324              		.loc 1 368 7 is_stmt 0
 1325 006a 2A94     		add	s0,s0,a0
 1326              	.LVL127:
 362:C:/Users/stapi/OneDrive/Desktop/GD32VW553/V1_MQTT_OK/GD32VW55X_Wifi_BLE_SDK/GD32VW55x_RELEASE_V1.0.2/MSDK/wpa_supplicant/src/tls\asn1.c **** 		ret = os_snprintf(pos, buf + len - pos,
 1327              		.loc 1 362 28 is_stmt 1
 362:C:/Users/stapi/OneDrive/Desktop/GD32VW553/V1_MQTT_OK/GD32VW55X_Wifi_BLE_SDK/GD32VW55x_RELEASE_V1.0.2/MSDK/wpa_supplicant/src/tls\asn1.c **** 		ret = os_snprintf(pos, buf + len - pos,
 1328              		.loc 1 362 29 is_stmt 0
 1329 006c 0509     		addi	s2,s2,1
 1330              	.LVL128:
 1331 006e 7DBF     		j	.L95
 1332              	.LVL129:
 1333              	.L105:
 1334              		.cfi_def_cfa_offset 0
 1335              		.cfi_restore 1
 1336              		.cfi_restore 8
 1337              		.cfi_restore 9
 1338              		.cfi_restore 18
 1339              		.cfi_restore 19
 1340              		.cfi_restore 20
 1341              		.cfi_restore 21
 1342              		.cfi_restore 22
 1343              		.cfi_restore 23
 1344 0070 8280     		ret
 1345              		.cfi_endproc
 1346              	.LFE93:
 1348              		.section	.rodata.asn1_bit_string_to_long.str1.4,"aMS",@progbits,1
 1349              		.align	2
 1350              	.LC23:
 1351 0000 58353039 		.string	"X509: %s - some bits ignored (BIT STRING length %lu)"
 1351      3A202573 
 1351      202D2073 
 1351      6F6D6520 
 1351      62697473 
 1352              		.section	.text.asn1_bit_string_to_long,"ax",@progbits
 1353              		.align	1
 1354              		.globl	asn1_bit_string_to_long
 1356              	asn1_bit_string_to_long:
 1357              	.LFB95:
 392:C:/Users/stapi/OneDrive/Desktop/GD32VW553/V1_MQTT_OK/GD32VW55X_Wifi_BLE_SDK/GD32VW55x_RELEASE_V1.0.2/MSDK/wpa_supplicant/src/tls\asn1.c **** 	unsigned long val = 0;
 1358              		.loc 1 392 1 is_stmt 1
 1359              		.cfi_startproc
 1360              	.LVL130:
 1361 0000 17030000 		call	t0,__riscv_save_3
 1361      E7020300 
 1362              		.cfi_offset 18, -16
 1363              		.cfi_offset 9, -12
 1364              		.cfi_offset 8, -8
 1365              		.cfi_offset 1, -4
 1366              		.cfi_def_cfa_offset 16
 393:C:/Users/stapi/OneDrive/Desktop/GD32VW553/V1_MQTT_OK/GD32VW55X_Wifi_BLE_SDK/GD32VW55x_RELEASE_V1.0.2/MSDK/wpa_supplicant/src/tls\asn1.c **** 	const u8 *pos = buf;
 1367              		.loc 1 393 2
 1368              	.LVL131:
 394:C:/Users/stapi/OneDrive/Desktop/GD32VW553/V1_MQTT_OK/GD32VW55X_Wifi_BLE_SDK/GD32VW55x_RELEASE_V1.0.2/MSDK/wpa_supplicant/src/tls\asn1.c **** 
 1369              		.loc 1 394 2
 398:C:/Users/stapi/OneDrive/Desktop/GD32VW553/V1_MQTT_OK/GD32VW55X_Wifi_BLE_SDK/GD32VW55x_RELEASE_V1.0.2/MSDK/wpa_supplicant/src/tls\asn1.c **** 
 1370              		.loc 1 398 2
 400:C:/Users/stapi/OneDrive/Desktop/GD32VW553/V1_MQTT_OK/GD32VW55X_Wifi_BLE_SDK/GD32VW55x_RELEASE_V1.0.2/MSDK/wpa_supplicant/src/tls\asn1.c **** 		val |= rotate_bits(*pos++);
 1371              		.loc 1 400 2
 400:C:/Users/stapi/OneDrive/Desktop/GD32VW553/V1_MQTT_OK/GD32VW55X_Wifi_BLE_SDK/GD32VW55x_RELEASE_V1.0.2/MSDK/wpa_supplicant/src/tls\asn1.c **** 		val |= rotate_bits(*pos++);
 1372              		.loc 1 400 5 is_stmt 0
 1373 0008 8547     		li	a5,1
 393:C:/Users/stapi/OneDrive/Desktop/GD32VW553/V1_MQTT_OK/GD32VW55X_Wifi_BLE_SDK/GD32VW55x_RELEASE_V1.0.2/MSDK/wpa_supplicant/src/tls\asn1.c **** 	const u8 *pos = buf;
 1374              		.loc 1 393 16
 1375 000a 0144     		li	s0,0
 400:C:/Users/stapi/OneDrive/Desktop/GD32VW553/V1_MQTT_OK/GD32VW55X_Wifi_BLE_SDK/GD32VW55x_RELEASE_V1.0.2/MSDK/wpa_supplicant/src/tls\asn1.c **** 		val |= rotate_bits(*pos++);
 1376              		.loc 1 400 5
 1377 000c 63FDB706 		bleu	a1,a5,.L108
 1378 0010 2A89     		mv	s2,a0
 401:C:/Users/stapi/OneDrive/Desktop/GD32VW553/V1_MQTT_OK/GD32VW55X_Wifi_BLE_SDK/GD32VW55x_RELEASE_V1.0.2/MSDK/wpa_supplicant/src/tls\asn1.c **** 	if (len >= 3)
 1379              		.loc 1 401 10
 1380 0012 03451500 		lbu	a0,1(a0)
 1381              	.LVL132:
 1382 0016 AE84     		mv	s1,a1
 401:C:/Users/stapi/OneDrive/Desktop/GD32VW553/V1_MQTT_OK/GD32VW55X_Wifi_BLE_SDK/GD32VW55x_RELEASE_V1.0.2/MSDK/wpa_supplicant/src/tls\asn1.c **** 	if (len >= 3)
 1383              		.loc 1 401 3 is_stmt 1
 1384              	.LVL133:
 401:C:/Users/stapi/OneDrive/Desktop/GD32VW553/V1_MQTT_OK/GD32VW55X_Wifi_BLE_SDK/GD32VW55x_RELEASE_V1.0.2/MSDK/wpa_supplicant/src/tls\asn1.c **** 	if (len >= 3)
 1385              		.loc 1 401 10 is_stmt 0
 1386 0018 97000000 		call	rotate_bits
 1386      E7800000 
 1387              	.LVL134:
 402:C:/Users/stapi/OneDrive/Desktop/GD32VW553/V1_MQTT_OK/GD32VW55X_Wifi_BLE_SDK/GD32VW55x_RELEASE_V1.0.2/MSDK/wpa_supplicant/src/tls\asn1.c **** 		val |= ((unsigned long) rotate_bits(*pos++)) << 8;
 1388              		.loc 1 402 5
 1389 0020 8947     		li	a5,2
 401:C:/Users/stapi/OneDrive/Desktop/GD32VW553/V1_MQTT_OK/GD32VW55X_Wifi_BLE_SDK/GD32VW55x_RELEASE_V1.0.2/MSDK/wpa_supplicant/src/tls\asn1.c **** 	if (len >= 3)
 1390              		.loc 1 401 10
 1391 0022 2A84     		mv	s0,a0
 1392              	.LVL135:
 402:C:/Users/stapi/OneDrive/Desktop/GD32VW553/V1_MQTT_OK/GD32VW55X_Wifi_BLE_SDK/GD32VW55x_RELEASE_V1.0.2/MSDK/wpa_supplicant/src/tls\asn1.c **** 		val |= ((unsigned long) rotate_bits(*pos++)) << 8;
 1393              		.loc 1 402 2 is_stmt 1
 402:C:/Users/stapi/OneDrive/Desktop/GD32VW553/V1_MQTT_OK/GD32VW55X_Wifi_BLE_SDK/GD32VW55x_RELEASE_V1.0.2/MSDK/wpa_supplicant/src/tls\asn1.c **** 		val |= ((unsigned long) rotate_bits(*pos++)) << 8;
 1394              		.loc 1 402 5 is_stmt 0
 1395 0024 6381F406 		beq	s1,a5,.L108
 403:C:/Users/stapi/OneDrive/Desktop/GD32VW553/V1_MQTT_OK/GD32VW55X_Wifi_BLE_SDK/GD32VW55x_RELEASE_V1.0.2/MSDK/wpa_supplicant/src/tls\asn1.c **** 	if (len >= 4)
 1396              		.loc 1 403 3 is_stmt 1
 403:C:/Users/stapi/OneDrive/Desktop/GD32VW553/V1_MQTT_OK/GD32VW55X_Wifi_BLE_SDK/GD32VW55x_RELEASE_V1.0.2/MSDK/wpa_supplicant/src/tls\asn1.c **** 	if (len >= 4)
 1397              		.loc 1 403 27 is_stmt 0
 1398 0028 03452900 		lbu	a0,2(s2)
 1399 002c 97000000 		call	rotate_bits
 1399      E7800000 
 1400              	.LVL136:
 403:C:/Users/stapi/OneDrive/Desktop/GD32VW553/V1_MQTT_OK/GD32VW55X_Wifi_BLE_SDK/GD32VW55x_RELEASE_V1.0.2/MSDK/wpa_supplicant/src/tls\asn1.c **** 	if (len >= 4)
 1401              		.loc 1 403 48
 1402 0034 2205     		slli	a0,a0,8
 404:C:/Users/stapi/OneDrive/Desktop/GD32VW553/V1_MQTT_OK/GD32VW55X_Wifi_BLE_SDK/GD32VW55x_RELEASE_V1.0.2/MSDK/wpa_supplicant/src/tls\asn1.c **** 		val |= ((unsigned long) rotate_bits(*pos++)) << 16;
 1403              		.loc 1 404 5
 1404 0036 8D47     		li	a5,3
 403:C:/Users/stapi/OneDrive/Desktop/GD32VW553/V1_MQTT_OK/GD32VW55X_Wifi_BLE_SDK/GD32VW55x_RELEASE_V1.0.2/MSDK/wpa_supplicant/src/tls\asn1.c **** 	if (len >= 4)
 1405              		.loc 1 403 7
 1406 0038 498C     		or	s0,s0,a0
 1407              	.LVL137:
 404:C:/Users/stapi/OneDrive/Desktop/GD32VW553/V1_MQTT_OK/GD32VW55X_Wifi_BLE_SDK/GD32VW55x_RELEASE_V1.0.2/MSDK/wpa_supplicant/src/tls\asn1.c **** 		val |= ((unsigned long) rotate_bits(*pos++)) << 16;
 1408              		.loc 1 404 2 is_stmt 1
 404:C:/Users/stapi/OneDrive/Desktop/GD32VW553/V1_MQTT_OK/GD32VW55X_Wifi_BLE_SDK/GD32VW55x_RELEASE_V1.0.2/MSDK/wpa_supplicant/src/tls\asn1.c **** 		val |= ((unsigned long) rotate_bits(*pos++)) << 16;
 1409              		.loc 1 404 5 is_stmt 0
 1410 003a 6386F404 		beq	s1,a5,.L108
 405:C:/Users/stapi/OneDrive/Desktop/GD32VW553/V1_MQTT_OK/GD32VW55X_Wifi_BLE_SDK/GD32VW55x_RELEASE_V1.0.2/MSDK/wpa_supplicant/src/tls\asn1.c **** 	if (len >= 5)
 1411              		.loc 1 405 3 is_stmt 1
 405:C:/Users/stapi/OneDrive/Desktop/GD32VW553/V1_MQTT_OK/GD32VW55X_Wifi_BLE_SDK/GD32VW55x_RELEASE_V1.0.2/MSDK/wpa_supplicant/src/tls\asn1.c **** 	if (len >= 5)
 1412              		.loc 1 405 27 is_stmt 0
 1413 003e 03453900 		lbu	a0,3(s2)
 1414 0042 97000000 		call	rotate_bits
 1414      E7800000 
 1415              	.LVL138:
 405:C:/Users/stapi/OneDrive/Desktop/GD32VW553/V1_MQTT_OK/GD32VW55X_Wifi_BLE_SDK/GD32VW55x_RELEASE_V1.0.2/MSDK/wpa_supplicant/src/tls\asn1.c **** 	if (len >= 5)
 1416              		.loc 1 405 48
 1417 004a 4205     		slli	a0,a0,16
 406:C:/Users/stapi/OneDrive/Desktop/GD32VW553/V1_MQTT_OK/GD32VW55X_Wifi_BLE_SDK/GD32VW55x_RELEASE_V1.0.2/MSDK/wpa_supplicant/src/tls\asn1.c **** 		val |= ((unsigned long) rotate_bits(*pos++)) << 24;
 1418              		.loc 1 406 5
 1419 004c 9147     		li	a5,4
 405:C:/Users/stapi/OneDrive/Desktop/GD32VW553/V1_MQTT_OK/GD32VW55X_Wifi_BLE_SDK/GD32VW55x_RELEASE_V1.0.2/MSDK/wpa_supplicant/src/tls\asn1.c **** 	if (len >= 5)
 1420              		.loc 1 405 7
 1421 004e 498C     		or	s0,s0,a0
 1422              	.LVL139:
 406:C:/Users/stapi/OneDrive/Desktop/GD32VW553/V1_MQTT_OK/GD32VW55X_Wifi_BLE_SDK/GD32VW55x_RELEASE_V1.0.2/MSDK/wpa_supplicant/src/tls\asn1.c **** 		val |= ((unsigned long) rotate_bits(*pos++)) << 24;
 1423              		.loc 1 406 2 is_stmt 1
 406:C:/Users/stapi/OneDrive/Desktop/GD32VW553/V1_MQTT_OK/GD32VW55X_Wifi_BLE_SDK/GD32VW55x_RELEASE_V1.0.2/MSDK/wpa_supplicant/src/tls\asn1.c **** 		val |= ((unsigned long) rotate_bits(*pos++)) << 24;
 1424              		.loc 1 406 5 is_stmt 0
 1425 0050 638BF402 		beq	s1,a5,.L108
 407:C:/Users/stapi/OneDrive/Desktop/GD32VW553/V1_MQTT_OK/GD32VW55X_Wifi_BLE_SDK/GD32VW55x_RELEASE_V1.0.2/MSDK/wpa_supplicant/src/tls\asn1.c **** 	if (len >= 6)
 1426              		.loc 1 407 3 is_stmt 1
 407:C:/Users/stapi/OneDrive/Desktop/GD32VW553/V1_MQTT_OK/GD32VW55X_Wifi_BLE_SDK/GD32VW55x_RELEASE_V1.0.2/MSDK/wpa_supplicant/src/tls\asn1.c **** 	if (len >= 6)
 1427              		.loc 1 407 27 is_stmt 0
 1428 0054 03454900 		lbu	a0,4(s2)
 1429 0058 97000000 		call	rotate_bits
 1429      E7800000 
 1430              	.LVL140:
 407:C:/Users/stapi/OneDrive/Desktop/GD32VW553/V1_MQTT_OK/GD32VW55X_Wifi_BLE_SDK/GD32VW55x_RELEASE_V1.0.2/MSDK/wpa_supplicant/src/tls\asn1.c **** 	if (len >= 6)
 1431              		.loc 1 407 48
 1432 0060 6205     		slli	a0,a0,24
 408:C:/Users/stapi/OneDrive/Desktop/GD32VW553/V1_MQTT_OK/GD32VW55X_Wifi_BLE_SDK/GD32VW55x_RELEASE_V1.0.2/MSDK/wpa_supplicant/src/tls\asn1.c **** 		wpa_printf(MSG_DEBUG, "X509: %s - some bits ignored "
 1433              		.loc 1 408 5
 1434 0062 9547     		li	a5,5
 407:C:/Users/stapi/OneDrive/Desktop/GD32VW553/V1_MQTT_OK/GD32VW55X_Wifi_BLE_SDK/GD32VW55x_RELEASE_V1.0.2/MSDK/wpa_supplicant/src/tls\asn1.c **** 	if (len >= 6)
 1435              		.loc 1 407 7
 1436 0064 498C     		or	s0,s0,a0
 1437              	.LVL141:
 408:C:/Users/stapi/OneDrive/Desktop/GD32VW553/V1_MQTT_OK/GD32VW55X_Wifi_BLE_SDK/GD32VW55x_RELEASE_V1.0.2/MSDK/wpa_supplicant/src/tls\asn1.c **** 		wpa_printf(MSG_DEBUG, "X509: %s - some bits ignored "
 1438              		.loc 1 408 2 is_stmt 1
 408:C:/Users/stapi/OneDrive/Desktop/GD32VW553/V1_MQTT_OK/GD32VW55X_Wifi_BLE_SDK/GD32VW55x_RELEASE_V1.0.2/MSDK/wpa_supplicant/src/tls\asn1.c **** 		wpa_printf(MSG_DEBUG, "X509: %s - some bits ignored "
 1439              		.loc 1 408 5 is_stmt 0
 1440 0066 6380F402 		beq	s1,a5,.L108
 409:C:/Users/stapi/OneDrive/Desktop/GD32VW553/V1_MQTT_OK/GD32VW55X_Wifi_BLE_SDK/GD32VW55x_RELEASE_V1.0.2/MSDK/wpa_supplicant/src/tls\asn1.c **** 			   "(BIT STRING length %lu)",
 1441              		.loc 1 409 3 is_stmt 1
 1442 006a 37060000 		lui	a2,%hi(.LANCHOR0)
 1443 006e B7050000 		lui	a1,%hi(.LC23)
 1444 0072 A686     		mv	a3,s1
 1445 0074 13060600 		addi	a2,a2,%lo(.LANCHOR0)
 1446 0078 93850500 		addi	a1,a1,%lo(.LC23)
 1447 007c 0945     		li	a0,2
 1448 007e 97000000 		call	wpa_printf
 1448      E7800000 
 1449              	.LVL142:
 1450              	.L108:
 414:C:/Users/stapi/OneDrive/Desktop/GD32VW553/V1_MQTT_OK/GD32VW55X_Wifi_BLE_SDK/GD32VW55x_RELEASE_V1.0.2/MSDK/wpa_supplicant/src/tls\asn1.c **** 
 1451              		.loc 1 414 1 is_stmt 0
 1452 0086 2285     		mv	a0,s0
 1453 0088 17030000 		tail	__riscv_restore_3
 1453      67000300 
 1454              		.cfi_restore 18
 1455              		.cfi_restore 9
 1456              		.cfi_restore 8
 1457              		.cfi_restore 1
 1458              		.cfi_def_cfa_offset 0
 1459              		.cfi_endproc
 1460              	.LFE95:
 1462              		.section	.text.asn1_oid_equal,"ax",@progbits
 1463              		.align	1
 1464              		.globl	asn1_oid_equal
 1466              	asn1_oid_equal:
 1467              	.LFB96:
 418:C:/Users/stapi/OneDrive/Desktop/GD32VW553/V1_MQTT_OK/GD32VW55X_Wifi_BLE_SDK/GD32VW55x_RELEASE_V1.0.2/MSDK/wpa_supplicant/src/tls\asn1.c **** 	size_t i;
 1468              		.loc 1 418 1 is_stmt 1
 1469              		.cfi_startproc
 1470              	.LVL143:
 419:C:/Users/stapi/OneDrive/Desktop/GD32VW553/V1_MQTT_OK/GD32VW55X_Wifi_BLE_SDK/GD32VW55x_RELEASE_V1.0.2/MSDK/wpa_supplicant/src/tls\asn1.c **** 
 1471              		.loc 1 419 2
 421:C:/Users/stapi/OneDrive/Desktop/GD32VW553/V1_MQTT_OK/GD32VW55X_Wifi_BLE_SDK/GD32VW55x_RELEASE_V1.0.2/MSDK/wpa_supplicant/src/tls\asn1.c **** 		return 0;
 1472              		.loc 1 421 2
 421:C:/Users/stapi/OneDrive/Desktop/GD32VW553/V1_MQTT_OK/GD32VW55X_Wifi_BLE_SDK/GD32VW55x_RELEASE_V1.0.2/MSDK/wpa_supplicant/src/tls\asn1.c **** 		return 0;
 1473              		.loc 1 421 7 is_stmt 0
 1474 0000 3449     		lw	a3,80(a0)
 421:C:/Users/stapi/OneDrive/Desktop/GD32VW553/V1_MQTT_OK/GD32VW55X_Wifi_BLE_SDK/GD32VW55x_RELEASE_V1.0.2/MSDK/wpa_supplicant/src/tls\asn1.c **** 		return 0;
 1475              		.loc 1 421 5
 1476 0002 BC49     		lw	a5,80(a1)
 1477 0004 6392F602 		bne	a3,a5,.L117
 424:C:/Users/stapi/OneDrive/Desktop/GD32VW553/V1_MQTT_OK/GD32VW55X_Wifi_BLE_SDK/GD32VW55x_RELEASE_V1.0.2/MSDK/wpa_supplicant/src/tls\asn1.c **** 		if (a->oid[i] != b->oid[i])
 1478              		.loc 1 424 9
 1479 0008 8147     		li	a5,0
 1480              	.L114:
 1481              	.LVL144:
 424:C:/Users/stapi/OneDrive/Desktop/GD32VW553/V1_MQTT_OK/GD32VW55X_Wifi_BLE_SDK/GD32VW55x_RELEASE_V1.0.2/MSDK/wpa_supplicant/src/tls\asn1.c **** 		if (a->oid[i] != b->oid[i])
 1482              		.loc 1 424 14 is_stmt 1 discriminator 1
 424:C:/Users/stapi/OneDrive/Desktop/GD32VW553/V1_MQTT_OK/GD32VW55X_Wifi_BLE_SDK/GD32VW55x_RELEASE_V1.0.2/MSDK/wpa_supplicant/src/tls\asn1.c **** 		if (a->oid[i] != b->oid[i])
 1483              		.loc 1 424 2 is_stmt 0 discriminator 1
 1484 000a 6394F600 		bne	a3,a5,.L115
 429:C:/Users/stapi/OneDrive/Desktop/GD32VW553/V1_MQTT_OK/GD32VW55X_Wifi_BLE_SDK/GD32VW55x_RELEASE_V1.0.2/MSDK/wpa_supplicant/src/tls\asn1.c **** }
 1485              		.loc 1 429 9
 1486 000e 0545     		li	a0,1
 1487              	.LVL145:
 1488 0010 8280     		ret
 1489              	.LVL146:
 1490              	.L115:
 425:C:/Users/stapi/OneDrive/Desktop/GD32VW553/V1_MQTT_OK/GD32VW55X_Wifi_BLE_SDK/GD32VW55x_RELEASE_V1.0.2/MSDK/wpa_supplicant/src/tls\asn1.c **** 			return 0;
 1491              		.loc 1 425 3 is_stmt 1
 1492 0012 13972700 		slli	a4,a5,2
 425:C:/Users/stapi/OneDrive/Desktop/GD32VW553/V1_MQTT_OK/GD32VW55X_Wifi_BLE_SDK/GD32VW55x_RELEASE_V1.0.2/MSDK/wpa_supplicant/src/tls\asn1.c **** 			return 0;
 1493              		.loc 1 425 13 is_stmt 0
 1494 0016 3306E500 		add	a2,a0,a4
 425:C:/Users/stapi/OneDrive/Desktop/GD32VW553/V1_MQTT_OK/GD32VW55X_Wifi_BLE_SDK/GD32VW55x_RELEASE_V1.0.2/MSDK/wpa_supplicant/src/tls\asn1.c **** 			return 0;
 1495              		.loc 1 425 26
 1496 001a 2E97     		add	a4,a1,a4
 425:C:/Users/stapi/OneDrive/Desktop/GD32VW553/V1_MQTT_OK/GD32VW55X_Wifi_BLE_SDK/GD32VW55x_RELEASE_V1.0.2/MSDK/wpa_supplicant/src/tls\asn1.c **** 			return 0;
 1497              		.loc 1 425 6
 1498 001c 1042     		lw	a2,0(a2)
 1499 001e 1843     		lw	a4,0(a4)
 1500 0020 6314E600 		bne	a2,a4,.L117
 424:C:/Users/stapi/OneDrive/Desktop/GD32VW553/V1_MQTT_OK/GD32VW55X_Wifi_BLE_SDK/GD32VW55x_RELEASE_V1.0.2/MSDK/wpa_supplicant/src/tls\asn1.c **** 		if (a->oid[i] != b->oid[i])
 1501              		.loc 1 424 26 is_stmt 1 discriminator 2
 424:C:/Users/stapi/OneDrive/Desktop/GD32VW553/V1_MQTT_OK/GD32VW55X_Wifi_BLE_SDK/GD32VW55x_RELEASE_V1.0.2/MSDK/wpa_supplicant/src/tls\asn1.c **** 		if (a->oid[i] != b->oid[i])
 1502              		.loc 1 424 27 is_stmt 0 discriminator 2
 1503 0024 8507     		addi	a5,a5,1
 1504              	.LVL147:
 1505 0026 D5B7     		j	.L114
 1506              	.LVL148:
 1507              	.L117:
 422:C:/Users/stapi/OneDrive/Desktop/GD32VW553/V1_MQTT_OK/GD32VW55X_Wifi_BLE_SDK/GD32VW55x_RELEASE_V1.0.2/MSDK/wpa_supplicant/src/tls\asn1.c **** 
 1508              		.loc 1 422 10
 1509 0028 0145     		li	a0,0
 1510              	.LVL149:
 430:C:/Users/stapi/OneDrive/Desktop/GD32VW553/V1_MQTT_OK/GD32VW55X_Wifi_BLE_SDK/GD32VW55x_RELEASE_V1.0.2/MSDK/wpa_supplicant/src/tls\asn1.c **** 
 1511              		.loc 1 430 1
 1512 002a 8280     		ret
 1513              		.cfi_endproc
 1514              	.LFE96:
 1516              		.section	.rodata.asn1_get_integer.str1.4,"aMS",@progbits,1
 1517              		.align	2
 1518              	.LC24:
 1519 0000 41534E2E 		.string	"ASN.1: Expected INTEGER"
 1519      313A2045 
 1519      78706563 
 1519      74656420 
 1519      494E5445 
 1520              		.align	2
 1521              	.LC25:
 1522 0018 41534E2E 		.string	"ASN.1: Too large INTEGER (len %u)"
 1522      313A2054 
 1522      6F6F206C 
 1522      61726765 
 1522      20494E54 
 1523              		.section	.text.asn1_get_integer,"ax",@progbits
 1524              		.align	1
 1525              		.globl	asn1_get_integer
 1527              	asn1_get_integer:
 1528              	.LFB97:
 434:C:/Users/stapi/OneDrive/Desktop/GD32VW553/V1_MQTT_OK/GD32VW55X_Wifi_BLE_SDK/GD32VW55x_RELEASE_V1.0.2/MSDK/wpa_supplicant/src/tls\asn1.c **** 	struct asn1_hdr hdr;
 1529              		.loc 1 434 1 is_stmt 1
 1530              		.cfi_startproc
 1531              	.LVL150:
 1532 0000 17030000 		call	t0,__riscv_save_2
 1532      E7020300 
 1533              		.cfi_offset 9, -12
 1534              		.cfi_offset 8, -8
 1535              		.cfi_offset 1, -4
 1536              		.cfi_def_cfa_offset 16
 435:C:/Users/stapi/OneDrive/Desktop/GD32VW553/V1_MQTT_OK/GD32VW55X_Wifi_BLE_SDK/GD32VW55x_RELEASE_V1.0.2/MSDK/wpa_supplicant/src/tls\asn1.c **** 	size_t left;
 1537              		.loc 1 435 2
 436:C:/Users/stapi/OneDrive/Desktop/GD32VW553/V1_MQTT_OK/GD32VW55X_Wifi_BLE_SDK/GD32VW55x_RELEASE_V1.0.2/MSDK/wpa_supplicant/src/tls\asn1.c **** 	const u8 *pos;
 1538              		.loc 1 436 2
 437:C:/Users/stapi/OneDrive/Desktop/GD32VW553/V1_MQTT_OK/GD32VW55X_Wifi_BLE_SDK/GD32VW55x_RELEASE_V1.0.2/MSDK/wpa_supplicant/src/tls\asn1.c **** 	int value;
 1539              		.loc 1 437 2
 438:C:/Users/stapi/OneDrive/Desktop/GD32VW553/V1_MQTT_OK/GD32VW55X_Wifi_BLE_SDK/GD32VW55x_RELEASE_V1.0.2/MSDK/wpa_supplicant/src/tls\asn1.c **** 
 1540              		.loc 1 438 2
 440:C:/Users/stapi/OneDrive/Desktop/GD32VW553/V1_MQTT_OK/GD32VW55X_Wifi_BLE_SDK/GD32VW55x_RELEASE_V1.0.2/MSDK/wpa_supplicant/src/tls\asn1.c **** 	    !asn1_is_integer(&hdr)) {
 1541              		.loc 1 440 2
 434:C:/Users/stapi/OneDrive/Desktop/GD32VW553/V1_MQTT_OK/GD32VW55X_Wifi_BLE_SDK/GD32VW55x_RELEASE_V1.0.2/MSDK/wpa_supplicant/src/tls\asn1.c **** 	struct asn1_hdr hdr;
 1542              		.loc 1 434 1 is_stmt 0
 1543 0008 4111     		addi	sp,sp,-16
 1544              		.cfi_def_cfa_offset 32
 434:C:/Users/stapi/OneDrive/Desktop/GD32VW553/V1_MQTT_OK/GD32VW55X_Wifi_BLE_SDK/GD32VW55x_RELEASE_V1.0.2/MSDK/wpa_supplicant/src/tls\asn1.c **** 	struct asn1_hdr hdr;
 1545              		.loc 1 434 1
 1546 000a 3284     		mv	s0,a2
 440:C:/Users/stapi/OneDrive/Desktop/GD32VW553/V1_MQTT_OK/GD32VW55X_Wifi_BLE_SDK/GD32VW55x_RELEASE_V1.0.2/MSDK/wpa_supplicant/src/tls\asn1.c **** 	    !asn1_is_integer(&hdr)) {
 1547              		.loc 1 440 6
 1548 000c 0A86     		mv	a2,sp
 1549              	.LVL151:
 434:C:/Users/stapi/OneDrive/Desktop/GD32VW553/V1_MQTT_OK/GD32VW55X_Wifi_BLE_SDK/GD32VW55x_RELEASE_V1.0.2/MSDK/wpa_supplicant/src/tls\asn1.c **** 	struct asn1_hdr hdr;
 1550              		.loc 1 434 1
 1551 000e B684     		mv	s1,a3
 440:C:/Users/stapi/OneDrive/Desktop/GD32VW553/V1_MQTT_OK/GD32VW55X_Wifi_BLE_SDK/GD32VW55x_RELEASE_V1.0.2/MSDK/wpa_supplicant/src/tls\asn1.c **** 	    !asn1_is_integer(&hdr)) {
 1552              		.loc 1 440 6
 1553 0010 97000000 		call	asn1_get_next
 1553      E7800000 
 1554              	.LVL152:
 440:C:/Users/stapi/OneDrive/Desktop/GD32VW553/V1_MQTT_OK/GD32VW55X_Wifi_BLE_SDK/GD32VW55x_RELEASE_V1.0.2/MSDK/wpa_supplicant/src/tls\asn1.c **** 	    !asn1_is_integer(&hdr)) {
 1555              		.loc 1 440 5
 1556 0018 634D0502 		blt	a0,zero,.L119
 440:C:/Users/stapi/OneDrive/Desktop/GD32VW553/V1_MQTT_OK/GD32VW55X_Wifi_BLE_SDK/GD32VW55x_RELEASE_V1.0.2/MSDK/wpa_supplicant/src/tls\asn1.c **** 	    !asn1_is_integer(&hdr)) {
 1557              		.loc 1 440 46 discriminator 1
 1558 001c 3246     		lw	a2,12(sp)
 440:C:/Users/stapi/OneDrive/Desktop/GD32VW553/V1_MQTT_OK/GD32VW55X_Wifi_BLE_SDK/GD32VW55x_RELEASE_V1.0.2/MSDK/wpa_supplicant/src/tls\asn1.c **** 	    !asn1_is_integer(&hdr)) {
 1559              		.loc 1 440 40 discriminator 1
 1560 001e 15CA     		beq	a2,zero,.L119
 1561              	.LVL153:
 1562              	.LBB108:
 1563              	.LBB109:
  91:C:/Users/stapi/OneDrive/Desktop/GD32VW553/V1_MQTT_OK/GD32VW55X_Wifi_BLE_SDK/GD32VW55x_RELEASE_V1.0.2/MSDK/wpa_supplicant/src/tls\asn1.h **** 		hdr->tag == ASN1_TAG_OID;
  92:C:/Users/stapi/OneDrive/Desktop/GD32VW553/V1_MQTT_OK/GD32VW55X_Wifi_BLE_SDK/GD32VW55x_RELEASE_V1.0.2/MSDK/wpa_supplicant/src/tls\asn1.h **** }
  93:C:/Users/stapi/OneDrive/Desktop/GD32VW553/V1_MQTT_OK/GD32VW55X_Wifi_BLE_SDK/GD32VW55x_RELEASE_V1.0.2/MSDK/wpa_supplicant/src/tls\asn1.h **** 
  94:C:/Users/stapi/OneDrive/Desktop/GD32VW553/V1_MQTT_OK/GD32VW55X_Wifi_BLE_SDK/GD32VW55x_RELEASE_V1.0.2/MSDK/wpa_supplicant/src/tls\asn1.h **** static inline bool asn1_is_boolean(const struct asn1_hdr *hdr)
  95:C:/Users/stapi/OneDrive/Desktop/GD32VW553/V1_MQTT_OK/GD32VW55X_Wifi_BLE_SDK/GD32VW55x_RELEASE_V1.0.2/MSDK/wpa_supplicant/src/tls\asn1.h **** {
  96:C:/Users/stapi/OneDrive/Desktop/GD32VW553/V1_MQTT_OK/GD32VW55X_Wifi_BLE_SDK/GD32VW55x_RELEASE_V1.0.2/MSDK/wpa_supplicant/src/tls\asn1.h **** 	return hdr->class == ASN1_CLASS_UNIVERSAL &&
  97:C:/Users/stapi/OneDrive/Desktop/GD32VW553/V1_MQTT_OK/GD32VW55X_Wifi_BLE_SDK/GD32VW55x_RELEASE_V1.0.2/MSDK/wpa_supplicant/src/tls\asn1.h **** 		hdr->tag == ASN1_TAG_BOOLEAN;
  98:C:/Users/stapi/OneDrive/Desktop/GD32VW553/V1_MQTT_OK/GD32VW55X_Wifi_BLE_SDK/GD32VW55x_RELEASE_V1.0.2/MSDK/wpa_supplicant/src/tls\asn1.h **** }
  99:C:/Users/stapi/OneDrive/Desktop/GD32VW553/V1_MQTT_OK/GD32VW55X_Wifi_BLE_SDK/GD32VW55x_RELEASE_V1.0.2/MSDK/wpa_supplicant/src/tls\asn1.h **** 
 100:C:/Users/stapi/OneDrive/Desktop/GD32VW553/V1_MQTT_OK/GD32VW55X_Wifi_BLE_SDK/GD32VW55x_RELEASE_V1.0.2/MSDK/wpa_supplicant/src/tls\asn1.h **** static inline bool asn1_is_integer(const struct asn1_hdr *hdr)
 101:C:/Users/stapi/OneDrive/Desktop/GD32VW553/V1_MQTT_OK/GD32VW55X_Wifi_BLE_SDK/GD32VW55x_RELEASE_V1.0.2/MSDK/wpa_supplicant/src/tls\asn1.h **** {
 102:C:/Users/stapi/OneDrive/Desktop/GD32VW553/V1_MQTT_OK/GD32VW55X_Wifi_BLE_SDK/GD32VW55x_RELEASE_V1.0.2/MSDK/wpa_supplicant/src/tls\asn1.h **** 	return hdr->class == ASN1_CLASS_UNIVERSAL &&
 1564              		.loc 4 102 2 is_stmt 1
 1565              		.loc 4 102 44 is_stmt 0
 1566 0020 83475100 		lbu	a5,5(sp)
 1567 0024 9DE7     		bne	a5,zero,.L119
 1568 0026 2247     		lw	a4,8(sp)
 1569 0028 8947     		li	a5,2
 1570 002a 6314F702 		bne	a4,a5,.L119
 1571              	.LVL154:
 1572              	.LBE109:
 1573              	.LBE108:
 446:C:/Users/stapi/OneDrive/Desktop/GD32VW553/V1_MQTT_OK/GD32VW55X_Wifi_BLE_SDK/GD32VW55x_RELEASE_V1.0.2/MSDK/wpa_supplicant/src/tls\asn1.c **** 	pos = hdr.payload;
 1574              		.loc 1 446 2 is_stmt 1
 446:C:/Users/stapi/OneDrive/Desktop/GD32VW553/V1_MQTT_OK/GD32VW55X_Wifi_BLE_SDK/GD32VW55x_RELEASE_V1.0.2/MSDK/wpa_supplicant/src/tls\asn1.c **** 	pos = hdr.payload;
 1575              		.loc 1 446 13 is_stmt 0
 1576 002e 0247     		lw	a4,0(sp)
 449:C:/Users/stapi/OneDrive/Desktop/GD32VW553/V1_MQTT_OK/GD32VW55X_Wifi_BLE_SDK/GD32VW55x_RELEASE_V1.0.2/MSDK/wpa_supplicant/src/tls\asn1.c **** 		wpa_printf(MSG_DEBUG, "ASN.1: Too large INTEGER (len %u)",
 1577              		.loc 1 449 5
 1578 0030 9147     		li	a5,4
 446:C:/Users/stapi/OneDrive/Desktop/GD32VW553/V1_MQTT_OK/GD32VW55X_Wifi_BLE_SDK/GD32VW55x_RELEASE_V1.0.2/MSDK/wpa_supplicant/src/tls\asn1.c **** 	pos = hdr.payload;
 1579              		.loc 1 446 22
 1580 0032 B306C700 		add	a3,a4,a2
 446:C:/Users/stapi/OneDrive/Desktop/GD32VW553/V1_MQTT_OK/GD32VW55X_Wifi_BLE_SDK/GD32VW55x_RELEASE_V1.0.2/MSDK/wpa_supplicant/src/tls\asn1.c **** 	pos = hdr.payload;
 1581              		.loc 1 446 8
 1582 0036 94C0     		sw	a3,0(s1)
 447:C:/Users/stapi/OneDrive/Desktop/GD32VW553/V1_MQTT_OK/GD32VW55X_Wifi_BLE_SDK/GD32VW55x_RELEASE_V1.0.2/MSDK/wpa_supplicant/src/tls\asn1.c **** 	left = hdr.length;
 1583              		.loc 1 447 2 is_stmt 1
 1584              	.LVL155:
 448:C:/Users/stapi/OneDrive/Desktop/GD32VW553/V1_MQTT_OK/GD32VW55X_Wifi_BLE_SDK/GD32VW55x_RELEASE_V1.0.2/MSDK/wpa_supplicant/src/tls\asn1.c **** 	if (left > sizeof(value)) {
 1585              		.loc 1 448 2
 449:C:/Users/stapi/OneDrive/Desktop/GD32VW553/V1_MQTT_OK/GD32VW55X_Wifi_BLE_SDK/GD32VW55x_RELEASE_V1.0.2/MSDK/wpa_supplicant/src/tls\asn1.c **** 		wpa_printf(MSG_DEBUG, "ASN.1: Too large INTEGER (len %u)",
 1586              		.loc 1 449 2
 449:C:/Users/stapi/OneDrive/Desktop/GD32VW553/V1_MQTT_OK/GD32VW55X_Wifi_BLE_SDK/GD32VW55x_RELEASE_V1.0.2/MSDK/wpa_supplicant/src/tls\asn1.c **** 		wpa_printf(MSG_DEBUG, "ASN.1: Too large INTEGER (len %u)",
 1587              		.loc 1 449 5 is_stmt 0
 1588 0038 63ECC702 		bgtu	a2,a5,.L120
 454:C:/Users/stapi/OneDrive/Desktop/GD32VW553/V1_MQTT_OK/GD32VW55X_Wifi_BLE_SDK/GD32VW55x_RELEASE_V1.0.2/MSDK/wpa_supplicant/src/tls\asn1.c **** 	while (left) {
 1589              		.loc 1 454 8
 1590 003c 8147     		li	a5,0
 1591              	.LVL156:
 1592              	.L121:
 456:C:/Users/stapi/OneDrive/Desktop/GD32VW553/V1_MQTT_OK/GD32VW55X_Wifi_BLE_SDK/GD32VW55x_RELEASE_V1.0.2/MSDK/wpa_supplicant/src/tls\asn1.c **** 		value |= *pos++;
 1593              		.loc 1 456 3 is_stmt 1
 457:C:/Users/stapi/OneDrive/Desktop/GD32VW553/V1_MQTT_OK/GD32VW55X_Wifi_BLE_SDK/GD32VW55x_RELEASE_V1.0.2/MSDK/wpa_supplicant/src/tls\asn1.c **** 		left--;
 1594              		.loc 1 457 12 is_stmt 0
 1595 003e 03460700 		lbu	a2,0(a4)
 456:C:/Users/stapi/OneDrive/Desktop/GD32VW553/V1_MQTT_OK/GD32VW55X_Wifi_BLE_SDK/GD32VW55x_RELEASE_V1.0.2/MSDK/wpa_supplicant/src/tls\asn1.c **** 		value |= *pos++;
 1596              		.loc 1 456 9
 1597 0042 A207     		slli	a5,a5,8
 1598              	.LVL157:
 457:C:/Users/stapi/OneDrive/Desktop/GD32VW553/V1_MQTT_OK/GD32VW55X_Wifi_BLE_SDK/GD32VW55x_RELEASE_V1.0.2/MSDK/wpa_supplicant/src/tls\asn1.c **** 		left--;
 1599              		.loc 1 457 3 is_stmt 1
 457:C:/Users/stapi/OneDrive/Desktop/GD32VW553/V1_MQTT_OK/GD32VW55X_Wifi_BLE_SDK/GD32VW55x_RELEASE_V1.0.2/MSDK/wpa_supplicant/src/tls\asn1.c **** 		left--;
 1600              		.loc 1 457 16 is_stmt 0
 1601 0044 0507     		addi	a4,a4,1
 1602              	.LVL158:
 457:C:/Users/stapi/OneDrive/Desktop/GD32VW553/V1_MQTT_OK/GD32VW55X_Wifi_BLE_SDK/GD32VW55x_RELEASE_V1.0.2/MSDK/wpa_supplicant/src/tls\asn1.c **** 		left--;
 1603              		.loc 1 457 9
 1604 0046 D18F     		or	a5,a2,a5
 1605              	.LVL159:
 458:C:/Users/stapi/OneDrive/Desktop/GD32VW553/V1_MQTT_OK/GD32VW55X_Wifi_BLE_SDK/GD32VW55x_RELEASE_V1.0.2/MSDK/wpa_supplicant/src/tls\asn1.c **** 	}
 1606              		.loc 1 458 3 is_stmt 1
 455:C:/Users/stapi/OneDrive/Desktop/GD32VW553/V1_MQTT_OK/GD32VW55X_Wifi_BLE_SDK/GD32VW55x_RELEASE_V1.0.2/MSDK/wpa_supplicant/src/tls\asn1.c **** 		value <<= 8;
 1607              		.loc 1 455 8
 1608 0048 E39BE6FE 		bne	a3,a4,.L121
 461:C:/Users/stapi/OneDrive/Desktop/GD32VW553/V1_MQTT_OK/GD32VW55X_Wifi_BLE_SDK/GD32VW55x_RELEASE_V1.0.2/MSDK/wpa_supplicant/src/tls\asn1.c **** 	return 0;
 1609              		.loc 1 461 2
 461:C:/Users/stapi/OneDrive/Desktop/GD32VW553/V1_MQTT_OK/GD32VW55X_Wifi_BLE_SDK/GD32VW55x_RELEASE_V1.0.2/MSDK/wpa_supplicant/src/tls\asn1.c **** 	return 0;
 1610              		.loc 1 461 11 is_stmt 0
 1611 004c 1CC0     		sw	a5,0(s0)
 462:C:/Users/stapi/OneDrive/Desktop/GD32VW553/V1_MQTT_OK/GD32VW55X_Wifi_BLE_SDK/GD32VW55x_RELEASE_V1.0.2/MSDK/wpa_supplicant/src/tls\asn1.c **** }
 1612              		.loc 1 462 2 is_stmt 1
 462:C:/Users/stapi/OneDrive/Desktop/GD32VW553/V1_MQTT_OK/GD32VW55X_Wifi_BLE_SDK/GD32VW55x_RELEASE_V1.0.2/MSDK/wpa_supplicant/src/tls\asn1.c **** }
 1613              		.loc 1 462 9 is_stmt 0
 1614 004e 0145     		li	a0,0
 1615 0050 19A8     		j	.L118
 1616              	.LVL160:
 1617              	.L119:
 442:C:/Users/stapi/OneDrive/Desktop/GD32VW553/V1_MQTT_OK/GD32VW55X_Wifi_BLE_SDK/GD32VW55x_RELEASE_V1.0.2/MSDK/wpa_supplicant/src/tls\asn1.c **** 		return -1;
 1618              		.loc 1 442 3 is_stmt 1
 1619 0052 B7050000 		lui	a1,%hi(.LC24)
 1620 0056 93850500 		addi	a1,a1,%lo(.LC24)
 1621 005a 0A85     		mv	a0,sp
 1622 005c 97000000 		call	asn1_unexpected
 1622      E7800000 
 1623              	.LVL161:
 443:C:/Users/stapi/OneDrive/Desktop/GD32VW553/V1_MQTT_OK/GD32VW55X_Wifi_BLE_SDK/GD32VW55x_RELEASE_V1.0.2/MSDK/wpa_supplicant/src/tls\asn1.c **** 	}
 1624              		.loc 1 443 3
 1625              	.L128:
 452:C:/Users/stapi/OneDrive/Desktop/GD32VW553/V1_MQTT_OK/GD32VW55X_Wifi_BLE_SDK/GD32VW55x_RELEASE_V1.0.2/MSDK/wpa_supplicant/src/tls\asn1.c **** 	}
 1626              		.loc 1 452 3
 452:C:/Users/stapi/OneDrive/Desktop/GD32VW553/V1_MQTT_OK/GD32VW55X_Wifi_BLE_SDK/GD32VW55x_RELEASE_V1.0.2/MSDK/wpa_supplicant/src/tls\asn1.c **** 	}
 1627              		.loc 1 452 10 is_stmt 0
 1628 0064 7D55     		li	a0,-1
 1629              	.L118:
 463:C:/Users/stapi/OneDrive/Desktop/GD32VW553/V1_MQTT_OK/GD32VW55X_Wifi_BLE_SDK/GD32VW55x_RELEASE_V1.0.2/MSDK/wpa_supplicant/src/tls\asn1.c **** 
 1630              		.loc 1 463 1
 1631 0066 4101     		addi	sp,sp,16
 1632              		.cfi_remember_state
 1633              		.cfi_def_cfa_offset 0
 1634 0068 17030000 		tail	__riscv_restore_2
 1634      67000300 
 1635              		.cfi_restore 9
 1636              		.cfi_restore 8
 1637              		.cfi_restore 1
 1638              		.cfi_def_cfa_offset -16
 1639              	.LVL162:
 1640              	.L120:
 1641              		.cfi_restore_state
 450:C:/Users/stapi/OneDrive/Desktop/GD32VW553/V1_MQTT_OK/GD32VW55X_Wifi_BLE_SDK/GD32VW55x_RELEASE_V1.0.2/MSDK/wpa_supplicant/src/tls\asn1.c **** 			   hdr.length);
 1642              		.loc 1 450 3 is_stmt 1
 1643 0070 B7050000 		lui	a1,%hi(.LC25)
 1644 0074 93850500 		addi	a1,a1,%lo(.LC25)
 1645 0078 0945     		li	a0,2
 1646 007a 97000000 		call	wpa_printf
 1646      E7800000 
 1647              	.LVL163:
 1648 0082 CDB7     		j	.L128
 1649              		.cfi_endproc
 1650              	.LFE97:
 1652              		.section	.rodata.asn1_get_sequence.str1.4,"aMS",@progbits,1
 1653              		.align	2
 1654              	.LC26:
 1655 0000 41534E2E 		.string	"ASN.1: Expected SEQUENCE"
 1655      313A2045 
 1655      78706563 
 1655      74656420 
 1655      53455155 
 1656              		.section	.text.asn1_get_sequence,"ax",@progbits
 1657              		.align	1
 1658              		.globl	asn1_get_sequence
 1660              	asn1_get_sequence:
 1661              	.LFB98:
 468:C:/Users/stapi/OneDrive/Desktop/GD32VW553/V1_MQTT_OK/GD32VW55X_Wifi_BLE_SDK/GD32VW55x_RELEASE_V1.0.2/MSDK/wpa_supplicant/src/tls\asn1.c **** 	if (asn1_get_next(buf, len, hdr) < 0 || !asn1_is_sequence(hdr)) {
 1662              		.loc 1 468 1
 1663              		.cfi_startproc
 1664              	.LVL164:
 1665 0000 17030000 		call	t0,__riscv_save_2
 1665      E7020300 
 1666              		.cfi_offset 9, -12
 1667              		.cfi_offset 8, -8
 1668              		.cfi_offset 1, -4
 1669              		.cfi_def_cfa_offset 16
 469:C:/Users/stapi/OneDrive/Desktop/GD32VW553/V1_MQTT_OK/GD32VW55X_Wifi_BLE_SDK/GD32VW55x_RELEASE_V1.0.2/MSDK/wpa_supplicant/src/tls\asn1.c **** 		asn1_unexpected(hdr, "ASN.1: Expected SEQUENCE");
 1670              		.loc 1 469 2
 468:C:/Users/stapi/OneDrive/Desktop/GD32VW553/V1_MQTT_OK/GD32VW55X_Wifi_BLE_SDK/GD32VW55x_RELEASE_V1.0.2/MSDK/wpa_supplicant/src/tls\asn1.c **** 	if (asn1_get_next(buf, len, hdr) < 0 || !asn1_is_sequence(hdr)) {
 1671              		.loc 1 468 1 is_stmt 0
 1672 0008 3284     		mv	s0,a2
 1673 000a B684     		mv	s1,a3
 469:C:/Users/stapi/OneDrive/Desktop/GD32VW553/V1_MQTT_OK/GD32VW55X_Wifi_BLE_SDK/GD32VW55x_RELEASE_V1.0.2/MSDK/wpa_supplicant/src/tls\asn1.c **** 		asn1_unexpected(hdr, "ASN.1: Expected SEQUENCE");
 1674              		.loc 1 469 6
 1675 000c 97000000 		call	asn1_get_next
 1675      E7800000 
 1676              	.LVL165:
 469:C:/Users/stapi/OneDrive/Desktop/GD32VW553/V1_MQTT_OK/GD32VW55X_Wifi_BLE_SDK/GD32VW55x_RELEASE_V1.0.2/MSDK/wpa_supplicant/src/tls\asn1.c **** 		asn1_unexpected(hdr, "ASN.1: Expected SEQUENCE");
 1677              		.loc 1 469 5
 1678 0014 634C0500 		blt	a0,zero,.L130
 1679              	.LVL166:
 1680              	.LBB112:
 1681              	.LBB113:
 103:C:/Users/stapi/OneDrive/Desktop/GD32VW553/V1_MQTT_OK/GD32VW55X_Wifi_BLE_SDK/GD32VW55x_RELEASE_V1.0.2/MSDK/wpa_supplicant/src/tls\asn1.h **** 		hdr->tag == ASN1_TAG_INTEGER;
 104:C:/Users/stapi/OneDrive/Desktop/GD32VW553/V1_MQTT_OK/GD32VW55X_Wifi_BLE_SDK/GD32VW55x_RELEASE_V1.0.2/MSDK/wpa_supplicant/src/tls\asn1.h **** }
 105:C:/Users/stapi/OneDrive/Desktop/GD32VW553/V1_MQTT_OK/GD32VW55X_Wifi_BLE_SDK/GD32VW55x_RELEASE_V1.0.2/MSDK/wpa_supplicant/src/tls\asn1.h **** 
 106:C:/Users/stapi/OneDrive/Desktop/GD32VW553/V1_MQTT_OK/GD32VW55X_Wifi_BLE_SDK/GD32VW55x_RELEASE_V1.0.2/MSDK/wpa_supplicant/src/tls\asn1.h **** static inline bool asn1_is_enumerated(const struct asn1_hdr *hdr)
 107:C:/Users/stapi/OneDrive/Desktop/GD32VW553/V1_MQTT_OK/GD32VW55X_Wifi_BLE_SDK/GD32VW55x_RELEASE_V1.0.2/MSDK/wpa_supplicant/src/tls\asn1.h **** {
 108:C:/Users/stapi/OneDrive/Desktop/GD32VW553/V1_MQTT_OK/GD32VW55X_Wifi_BLE_SDK/GD32VW55x_RELEASE_V1.0.2/MSDK/wpa_supplicant/src/tls\asn1.h **** 	return hdr->class == ASN1_CLASS_UNIVERSAL &&
 109:C:/Users/stapi/OneDrive/Desktop/GD32VW553/V1_MQTT_OK/GD32VW55X_Wifi_BLE_SDK/GD32VW55x_RELEASE_V1.0.2/MSDK/wpa_supplicant/src/tls\asn1.h **** 		hdr->tag == ASN1_TAG_ENUMERATED;
 110:C:/Users/stapi/OneDrive/Desktop/GD32VW553/V1_MQTT_OK/GD32VW55X_Wifi_BLE_SDK/GD32VW55x_RELEASE_V1.0.2/MSDK/wpa_supplicant/src/tls\asn1.h **** }
 111:C:/Users/stapi/OneDrive/Desktop/GD32VW553/V1_MQTT_OK/GD32VW55X_Wifi_BLE_SDK/GD32VW55x_RELEASE_V1.0.2/MSDK/wpa_supplicant/src/tls\asn1.h **** 
 112:C:/Users/stapi/OneDrive/Desktop/GD32VW553/V1_MQTT_OK/GD32VW55X_Wifi_BLE_SDK/GD32VW55x_RELEASE_V1.0.2/MSDK/wpa_supplicant/src/tls\asn1.h **** static inline bool asn1_is_sequence(const struct asn1_hdr *hdr)
 113:C:/Users/stapi/OneDrive/Desktop/GD32VW553/V1_MQTT_OK/GD32VW55X_Wifi_BLE_SDK/GD32VW55x_RELEASE_V1.0.2/MSDK/wpa_supplicant/src/tls\asn1.h **** {
 114:C:/Users/stapi/OneDrive/Desktop/GD32VW553/V1_MQTT_OK/GD32VW55X_Wifi_BLE_SDK/GD32VW55x_RELEASE_V1.0.2/MSDK/wpa_supplicant/src/tls\asn1.h **** 	return hdr->class == ASN1_CLASS_UNIVERSAL &&
 1682              		.loc 4 114 2 is_stmt 1
 1683              		.loc 4 114 44 is_stmt 0
 1684 0018 83475400 		lbu	a5,5(s0)
 1685 001c 81EB     		bne	a5,zero,.L130
 1686 001e 1844     		lw	a4,8(s0)
 1687 0020 C147     		li	a5,16
 1688 0022 6315F700 		bne	a4,a5,.L130
 1689              	.LVL167:
 1690              	.LBE113:
 1691              	.LBE112:
 474:C:/Users/stapi/OneDrive/Desktop/GD32VW553/V1_MQTT_OK/GD32VW55X_Wifi_BLE_SDK/GD32VW55x_RELEASE_V1.0.2/MSDK/wpa_supplicant/src/tls\asn1.c **** 		*next = hdr->payload + hdr->length;
 1692              		.loc 1 474 2 is_stmt 1
 474:C:/Users/stapi/OneDrive/Desktop/GD32VW553/V1_MQTT_OK/GD32VW55X_Wifi_BLE_SDK/GD32VW55x_RELEASE_V1.0.2/MSDK/wpa_supplicant/src/tls\asn1.c **** 		*next = hdr->payload + hdr->length;
 1693              		.loc 1 474 5 is_stmt 0
 1694 0026 8DE0     		bne	s1,zero,.L131
 1695              	.L134:
 476:C:/Users/stapi/OneDrive/Desktop/GD32VW553/V1_MQTT_OK/GD32VW55X_Wifi_BLE_SDK/GD32VW55x_RELEASE_V1.0.2/MSDK/wpa_supplicant/src/tls\asn1.c **** }
 1696              		.loc 1 476 9
 1697 0028 0145     		li	a0,0
 1698 002a 19A8     		j	.L129
 1699              	.L130:
 470:C:/Users/stapi/OneDrive/Desktop/GD32VW553/V1_MQTT_OK/GD32VW55X_Wifi_BLE_SDK/GD32VW55x_RELEASE_V1.0.2/MSDK/wpa_supplicant/src/tls\asn1.c **** 		return -1;
 1700              		.loc 1 470 3 is_stmt 1
 1701 002c B7050000 		lui	a1,%hi(.LC26)
 1702 0030 2285     		mv	a0,s0
 1703 0032 93850500 		addi	a1,a1,%lo(.LC26)
 1704 0036 97000000 		call	asn1_unexpected
 1704      E7800000 
 1705              	.LVL168:
 471:C:/Users/stapi/OneDrive/Desktop/GD32VW553/V1_MQTT_OK/GD32VW55X_Wifi_BLE_SDK/GD32VW55x_RELEASE_V1.0.2/MSDK/wpa_supplicant/src/tls\asn1.c **** 	}
 1706              		.loc 1 471 3
 471:C:/Users/stapi/OneDrive/Desktop/GD32VW553/V1_MQTT_OK/GD32VW55X_Wifi_BLE_SDK/GD32VW55x_RELEASE_V1.0.2/MSDK/wpa_supplicant/src/tls\asn1.c **** 	}
 1707              		.loc 1 471 10 is_stmt 0
 1708 003e 7D55     		li	a0,-1
 1709              	.L129:
 477:C:/Users/stapi/OneDrive/Desktop/GD32VW553/V1_MQTT_OK/GD32VW55X_Wifi_BLE_SDK/GD32VW55x_RELEASE_V1.0.2/MSDK/wpa_supplicant/src/tls\asn1.c **** 
 1710              		.loc 1 477 1
 1711 0040 17030000 		tail	__riscv_restore_2
 1711      67000300 
 1712              		.cfi_remember_state
 1713              		.cfi_restore 9
 1714              		.cfi_restore 8
 1715              		.cfi_restore 1
 1716              		.cfi_def_cfa_offset 0
 1717              	.L131:
 1718              		.cfi_restore_state
 475:C:/Users/stapi/OneDrive/Desktop/GD32VW553/V1_MQTT_OK/GD32VW55X_Wifi_BLE_SDK/GD32VW55x_RELEASE_V1.0.2/MSDK/wpa_supplicant/src/tls\asn1.c **** 	return 0;
 1719              		.loc 1 475 3 is_stmt 1
 475:C:/Users/stapi/OneDrive/Desktop/GD32VW553/V1_MQTT_OK/GD32VW55X_Wifi_BLE_SDK/GD32VW55x_RELEASE_V1.0.2/MSDK/wpa_supplicant/src/tls\asn1.c **** 	return 0;
 1720              		.loc 1 475 24 is_stmt 0
 1721 0048 1C40     		lw	a5,0(s0)
 1722 004a 5844     		lw	a4,12(s0)
 1723 004c BA97     		add	a5,a5,a4
 475:C:/Users/stapi/OneDrive/Desktop/GD32VW553/V1_MQTT_OK/GD32VW55X_Wifi_BLE_SDK/GD32VW55x_RELEASE_V1.0.2/MSDK/wpa_supplicant/src/tls\asn1.c **** 	return 0;
 1724              		.loc 1 475 9
 1725 004e 9CC0     		sw	a5,0(s1)
 1726 0050 E1BF     		j	.L134
 1727              		.cfi_endproc
 1728              	.LFE98:
 1730              		.section	.text.asn1_get_alg_id,"ax",@progbits
 1731              		.align	1
 1732              		.globl	asn1_get_alg_id
 1734              	asn1_get_alg_id:
 1735              	.LFB99:
 482:C:/Users/stapi/OneDrive/Desktop/GD32VW553/V1_MQTT_OK/GD32VW55X_Wifi_BLE_SDK/GD32VW55x_RELEASE_V1.0.2/MSDK/wpa_supplicant/src/tls\asn1.c **** 	const u8 *pos = buf, *end = buf + len;
 1736              		.loc 1 482 1 is_stmt 1
 1737              		.cfi_startproc
 1738              	.LVL169:
 1739 0000 17030000 		call	t0,__riscv_save_3
 1739      E7020300 
 1740              		.cfi_offset 18, -16
 1741              		.cfi_offset 9, -12
 1742              		.cfi_offset 8, -8
 1743              		.cfi_offset 1, -4
 1744              		.cfi_def_cfa_offset 16
 483:C:/Users/stapi/OneDrive/Desktop/GD32VW553/V1_MQTT_OK/GD32VW55X_Wifi_BLE_SDK/GD32VW55x_RELEASE_V1.0.2/MSDK/wpa_supplicant/src/tls\asn1.c **** 	struct asn1_hdr hdr;
 1745              		.loc 1 483 2
 482:C:/Users/stapi/OneDrive/Desktop/GD32VW553/V1_MQTT_OK/GD32VW55X_Wifi_BLE_SDK/GD32VW55x_RELEASE_V1.0.2/MSDK/wpa_supplicant/src/tls\asn1.c **** 	const u8 *pos = buf, *end = buf + len;
 1746              		.loc 1 482 1 is_stmt 0
 1747 0008 0111     		addi	sp,sp,-32
 1748              		.cfi_def_cfa_offset 48
 482:C:/Users/stapi/OneDrive/Desktop/GD32VW553/V1_MQTT_OK/GD32VW55X_Wifi_BLE_SDK/GD32VW55x_RELEASE_V1.0.2/MSDK/wpa_supplicant/src/tls\asn1.c **** 	const u8 *pos = buf, *end = buf + len;
 1749              		.loc 1 482 1
 1750 000a 3289     		mv	s2,a2
 1751 000c B684     		mv	s1,a3
 491:C:/Users/stapi/OneDrive/Desktop/GD32VW553/V1_MQTT_OK/GD32VW55X_Wifi_BLE_SDK/GD32VW55x_RELEASE_V1.0.2/MSDK/wpa_supplicant/src/tls\asn1.c **** 	    asn1_get_oid(hdr.payload, hdr.length, oid, &pos) < 0)
 1752              		.loc 1 491 6
 1753 000e 1008     		addi	a2,sp,16
 1754              	.LVL170:
 1755 0010 BE86     		mv	a3,a5
 1756              	.LVL171:
 482:C:/Users/stapi/OneDrive/Desktop/GD32VW553/V1_MQTT_OK/GD32VW55X_Wifi_BLE_SDK/GD32VW55x_RELEASE_V1.0.2/MSDK/wpa_supplicant/src/tls\asn1.c **** 	const u8 *pos = buf, *end = buf + len;
 1757              		.loc 1 482 1
 1758 0012 3A84     		mv	s0,a4
 483:C:/Users/stapi/OneDrive/Desktop/GD32VW553/V1_MQTT_OK/GD32VW55X_Wifi_BLE_SDK/GD32VW55x_RELEASE_V1.0.2/MSDK/wpa_supplicant/src/tls\asn1.c **** 	struct asn1_hdr hdr;
 1759              		.loc 1 483 12
 1760 0014 2AC6     		sw	a0,12(sp)
 1761              	.LVL172:
 484:C:/Users/stapi/OneDrive/Desktop/GD32VW553/V1_MQTT_OK/GD32VW55X_Wifi_BLE_SDK/GD32VW55x_RELEASE_V1.0.2/MSDK/wpa_supplicant/src/tls\asn1.c **** 
 1762              		.loc 1 484 2 is_stmt 1
 491:C:/Users/stapi/OneDrive/Desktop/GD32VW553/V1_MQTT_OK/GD32VW55X_Wifi_BLE_SDK/GD32VW55x_RELEASE_V1.0.2/MSDK/wpa_supplicant/src/tls\asn1.c **** 	    asn1_get_oid(hdr.payload, hdr.length, oid, &pos) < 0)
 1763              		.loc 1 491 2
 491:C:/Users/stapi/OneDrive/Desktop/GD32VW553/V1_MQTT_OK/GD32VW55X_Wifi_BLE_SDK/GD32VW55x_RELEASE_V1.0.2/MSDK/wpa_supplicant/src/tls\asn1.c **** 	    asn1_get_oid(hdr.payload, hdr.length, oid, &pos) < 0)
 1764              		.loc 1 491 6 is_stmt 0
 1765 0016 97000000 		call	asn1_get_sequence
 1765      E7800000 
 1766              	.LVL173:
 491:C:/Users/stapi/OneDrive/Desktop/GD32VW553/V1_MQTT_OK/GD32VW55X_Wifi_BLE_SDK/GD32VW55x_RELEASE_V1.0.2/MSDK/wpa_supplicant/src/tls\asn1.c **** 	    asn1_get_oid(hdr.payload, hdr.length, oid, &pos) < 0)
 1767              		.loc 1 491 5
 1768 001e 63580500 		bge	a0,zero,.L136
 1769              	.L138:
 493:C:/Users/stapi/OneDrive/Desktop/GD32VW553/V1_MQTT_OK/GD32VW55X_Wifi_BLE_SDK/GD32VW55x_RELEASE_V1.0.2/MSDK/wpa_supplicant/src/tls\asn1.c **** 
 1770              		.loc 1 493 10
 1771 0022 7D55     		li	a0,-1
 1772              	.L135:
 501:C:/Users/stapi/OneDrive/Desktop/GD32VW553/V1_MQTT_OK/GD32VW55X_Wifi_BLE_SDK/GD32VW55x_RELEASE_V1.0.2/MSDK/wpa_supplicant/src/tls\asn1.c **** 
 1773              		.loc 1 501 1
 1774 0024 0561     		addi	sp,sp,32
 1775              		.cfi_remember_state
 1776              		.cfi_def_cfa_offset 0
 1777 0026 17030000 		tail	__riscv_restore_3
 1777      67000300 
 1778              		.cfi_restore 18
 1779              		.cfi_restore 9
 1780              		.cfi_restore 8
 1781              		.cfi_restore 1
 1782              		.cfi_def_cfa_offset -16
 1783              	.L136:
 1784              		.cfi_restore_state
 492:C:/Users/stapi/OneDrive/Desktop/GD32VW553/V1_MQTT_OK/GD32VW55X_Wifi_BLE_SDK/GD32VW55x_RELEASE_V1.0.2/MSDK/wpa_supplicant/src/tls\asn1.c **** 		return -1;
 1785              		.loc 1 492 6 discriminator 1
 1786 002e F245     		lw	a1,28(sp)
 1787 0030 4245     		lw	a0,16(sp)
 1788 0032 7400     		addi	a3,sp,12
 1789 0034 4A86     		mv	a2,s2
 1790 0036 97000000 		call	asn1_get_oid
 1790      E7800000 
 1791              	.LVL174:
 491:C:/Users/stapi/OneDrive/Desktop/GD32VW553/V1_MQTT_OK/GD32VW55X_Wifi_BLE_SDK/GD32VW55x_RELEASE_V1.0.2/MSDK/wpa_supplicant/src/tls\asn1.c **** 	    asn1_get_oid(hdr.payload, hdr.length, oid, &pos) < 0)
 1792              		.loc 1 491 56 discriminator 1
 1793 003e E34205FE 		blt	a0,zero,.L138
 495:C:/Users/stapi/OneDrive/Desktop/GD32VW553/V1_MQTT_OK/GD32VW55X_Wifi_BLE_SDK/GD32VW55x_RELEASE_V1.0.2/MSDK/wpa_supplicant/src/tls\asn1.c **** 		*params = pos;
 1794              		.loc 1 495 2 is_stmt 1
 500:C:/Users/stapi/OneDrive/Desktop/GD32VW553/V1_MQTT_OK/GD32VW55X_Wifi_BLE_SDK/GD32VW55x_RELEASE_V1.0.2/MSDK/wpa_supplicant/src/tls\asn1.c **** }
 1795              		.loc 1 500 9 is_stmt 0
 1796 0042 0145     		li	a0,0
 495:C:/Users/stapi/OneDrive/Desktop/GD32VW553/V1_MQTT_OK/GD32VW55X_Wifi_BLE_SDK/GD32VW55x_RELEASE_V1.0.2/MSDK/wpa_supplicant/src/tls\asn1.c **** 		*params = pos;
 1797              		.loc 1 495 5
 1798 0044 E5D0     		beq	s1,zero,.L135
 495:C:/Users/stapi/OneDrive/Desktop/GD32VW553/V1_MQTT_OK/GD32VW55X_Wifi_BLE_SDK/GD32VW55x_RELEASE_V1.0.2/MSDK/wpa_supplicant/src/tls\asn1.c **** 		*params = pos;
 1799              		.loc 1 495 13 discriminator 1
 1800 0046 79DC     		beq	s0,zero,.L135
 496:C:/Users/stapi/OneDrive/Desktop/GD32VW553/V1_MQTT_OK/GD32VW55X_Wifi_BLE_SDK/GD32VW55x_RELEASE_V1.0.2/MSDK/wpa_supplicant/src/tls\asn1.c **** 		*params_len = hdr.payload + hdr.length - pos;
 1801              		.loc 1 496 3 is_stmt 1
 497:C:/Users/stapi/OneDrive/Desktop/GD32VW553/V1_MQTT_OK/GD32VW55X_Wifi_BLE_SDK/GD32VW55x_RELEASE_V1.0.2/MSDK/wpa_supplicant/src/tls\asn1.c **** 	}
 1802              		.loc 1 497 29 is_stmt 0
 1803 0048 C247     		lw	a5,16(sp)
 1804 004a F246     		lw	a3,28(sp)
 496:C:/Users/stapi/OneDrive/Desktop/GD32VW553/V1_MQTT_OK/GD32VW55X_Wifi_BLE_SDK/GD32VW55x_RELEASE_V1.0.2/MSDK/wpa_supplicant/src/tls\asn1.c **** 		*params_len = hdr.payload + hdr.length - pos;
 1805              		.loc 1 496 11
 1806 004c 3247     		lw	a4,12(sp)
 497:C:/Users/stapi/OneDrive/Desktop/GD32VW553/V1_MQTT_OK/GD32VW55X_Wifi_BLE_SDK/GD32VW55x_RELEASE_V1.0.2/MSDK/wpa_supplicant/src/tls\asn1.c **** 	}
 1807              		.loc 1 497 29
 1808 004e B697     		add	a5,a5,a3
 496:C:/Users/stapi/OneDrive/Desktop/GD32VW553/V1_MQTT_OK/GD32VW55X_Wifi_BLE_SDK/GD32VW55x_RELEASE_V1.0.2/MSDK/wpa_supplicant/src/tls\asn1.c **** 		*params_len = hdr.payload + hdr.length - pos;
 1809              		.loc 1 496 11
 1810 0050 98C0     		sw	a4,0(s1)
 497:C:/Users/stapi/OneDrive/Desktop/GD32VW553/V1_MQTT_OK/GD32VW55X_Wifi_BLE_SDK/GD32VW55x_RELEASE_V1.0.2/MSDK/wpa_supplicant/src/tls\asn1.c **** 	}
 1811              		.loc 1 497 3 is_stmt 1
 497:C:/Users/stapi/OneDrive/Desktop/GD32VW553/V1_MQTT_OK/GD32VW55X_Wifi_BLE_SDK/GD32VW55x_RELEASE_V1.0.2/MSDK/wpa_supplicant/src/tls\asn1.c **** 	}
 1812              		.loc 1 497 42 is_stmt 0
 1813 0052 998F     		sub	a5,a5,a4
 497:C:/Users/stapi/OneDrive/Desktop/GD32VW553/V1_MQTT_OK/GD32VW55X_Wifi_BLE_SDK/GD32VW55x_RELEASE_V1.0.2/MSDK/wpa_supplicant/src/tls\asn1.c **** 	}
 1814              		.loc 1 497 15
 1815 0054 1CC0     		sw	a5,0(s0)
 1816 0056 F9B7     		j	.L135
 1817              		.cfi_endproc
 1818              	.LFE99:
 1820              		.section	.text.asn1_put_integer,"ax",@progbits
 1821              		.align	1
 1822              		.globl	asn1_put_integer
 1824              	asn1_put_integer:
 1825              	.LFB100:
 505:C:/Users/stapi/OneDrive/Desktop/GD32VW553/V1_MQTT_OK/GD32VW55X_Wifi_BLE_SDK/GD32VW55x_RELEASE_V1.0.2/MSDK/wpa_supplicant/src/tls\asn1.c **** 	u8 bin[4];
 1826              		.loc 1 505 1 is_stmt 1
 1827              		.cfi_startproc
 1828              	.LVL175:
 1829 0000 17030000 		call	t0,__riscv_save_1
 1829      E7020300 
 1830              		.cfi_offset 8, -8
 1831              		.cfi_offset 1, -4
 1832              		.cfi_def_cfa_offset 16
 506:C:/Users/stapi/OneDrive/Desktop/GD32VW553/V1_MQTT_OK/GD32VW55X_Wifi_BLE_SDK/GD32VW55x_RELEASE_V1.0.2/MSDK/wpa_supplicant/src/tls\asn1.c **** 	int zeros;
 1833              		.loc 1 506 2
 507:C:/Users/stapi/OneDrive/Desktop/GD32VW553/V1_MQTT_OK/GD32VW55X_Wifi_BLE_SDK/GD32VW55x_RELEASE_V1.0.2/MSDK/wpa_supplicant/src/tls\asn1.c **** 
 1834              		.loc 1 507 2
 509:C:/Users/stapi/OneDrive/Desktop/GD32VW553/V1_MQTT_OK/GD32VW55X_Wifi_BLE_SDK/GD32VW55x_RELEASE_V1.0.2/MSDK/wpa_supplicant/src/tls\asn1.c **** 	zeros = 0;
 1835              		.loc 1 509 2
 505:C:/Users/stapi/OneDrive/Desktop/GD32VW553/V1_MQTT_OK/GD32VW55X_Wifi_BLE_SDK/GD32VW55x_RELEASE_V1.0.2/MSDK/wpa_supplicant/src/tls\asn1.c **** 	u8 bin[4];
 1836              		.loc 1 505 1 is_stmt 0
 1837 0008 0111     		addi	sp,sp,-32
 1838              		.cfi_def_cfa_offset 48
 1839              	.LVL176:
 1840              	.LBB116:
 1841              	.LBB117:
 281:..\..\..\..\wpa_supplicant\src\utils/common.h **** 	a[1] = (val >> 16) & 0xff;
 1842              		.loc 3 281 2 is_stmt 1
 282:..\..\..\..\wpa_supplicant\src\utils/common.h **** 	a[2] = (val >> 8) & 0xff;
 1843              		.loc 3 282 2
 1844 000a 93D68569 		rev8	a3,a1
 282:..\..\..\..\wpa_supplicant\src\utils/common.h **** 	a[2] = (val >> 8) & 0xff;
 1845              		.loc 3 282 14 is_stmt 0
 1846 000e 13D70501 		srli	a4,a1,16
 283:..\..\..\..\wpa_supplicant\src\utils/common.h **** 	a[3] = val & 0xff;
 1847              		.loc 3 283 2 is_stmt 1
 283:..\..\..\..\wpa_supplicant\src\utils/common.h **** 	a[3] = val & 0xff;
 1848              		.loc 3 283 14 is_stmt 0
 1849 0012 93D78500 		srli	a5,a1,8
 1850              		.loc 3 284 2 is_stmt 1
 281:..\..\..\..\wpa_supplicant\src\utils/common.h **** 	a[1] = (val >> 16) & 0xff;
 1851              		.loc 3 281 7 is_stmt 0
 1852 0016 36CE     		sw	a3,28(sp)
 1853              	.LVL177:
 1854              	.LBE117:
 1855              	.LBE116:
 511:C:/Users/stapi/OneDrive/Desktop/GD32VW553/V1_MQTT_OK/GD32VW55X_Wifi_BLE_SDK/GD32VW55x_RELEASE_V1.0.2/MSDK/wpa_supplicant/src/tls\asn1.c **** 		zeros++;
 1856              		.loc 1 511 8 is_stmt 1
 1857              	.LBB119:
 1858              	.LBB118:
 281:..\..\..\..\wpa_supplicant\src\utils/common.h **** 	a[1] = (val >> 16) & 0xff;
 1859              		.loc 3 281 14 is_stmt 0
 1860 0018 E181     		srli	a1,a1,24
 1861              	.LVL178:
 1862              	.LBE118:
 1863              	.LBE119:
 510:C:/Users/stapi/OneDrive/Desktop/GD32VW553/V1_MQTT_OK/GD32VW55X_Wifi_BLE_SDK/GD32VW55x_RELEASE_V1.0.2/MSDK/wpa_supplicant/src/tls\asn1.c **** 	while (zeros < 3 && bin[zeros] == 0)
 1864              		.loc 1 510 8
 1865 001a 0144     		li	s0,0
 511:C:/Users/stapi/OneDrive/Desktop/GD32VW553/V1_MQTT_OK/GD32VW55X_Wifi_BLE_SDK/GD32VW55x_RELEASE_V1.0.2/MSDK/wpa_supplicant/src/tls\asn1.c **** 		zeros++;
 1866              		.loc 1 511 19
 1867 001c 91E9     		bne	a1,zero,.L143
 1868 001e 1377F70F 		andi	a4,a4,0xff
 512:C:/Users/stapi/OneDrive/Desktop/GD32VW553/V1_MQTT_OK/GD32VW55X_Wifi_BLE_SDK/GD32VW55x_RELEASE_V1.0.2/MSDK/wpa_supplicant/src/tls\asn1.c **** 	wpabuf_put_u8(buf, ASN1_TAG_INTEGER);
 1869              		.loc 1 512 3 is_stmt 1
 1870              	.LVL179:
 511:C:/Users/stapi/OneDrive/Desktop/GD32VW553/V1_MQTT_OK/GD32VW55X_Wifi_BLE_SDK/GD32VW55x_RELEASE_V1.0.2/MSDK/wpa_supplicant/src/tls\asn1.c **** 		zeros++;
 1871              		.loc 1 511 8
 512:C:/Users/stapi/OneDrive/Desktop/GD32VW553/V1_MQTT_OK/GD32VW55X_Wifi_BLE_SDK/GD32VW55x_RELEASE_V1.0.2/MSDK/wpa_supplicant/src/tls\asn1.c **** 	wpabuf_put_u8(buf, ASN1_TAG_INTEGER);
 1872              		.loc 1 512 8 is_stmt 0
 1873 0022 0544     		li	s0,1
 511:C:/Users/stapi/OneDrive/Desktop/GD32VW553/V1_MQTT_OK/GD32VW55X_Wifi_BLE_SDK/GD32VW55x_RELEASE_V1.0.2/MSDK/wpa_supplicant/src/tls\asn1.c **** 		zeros++;
 1874              		.loc 1 511 19
 1875 0024 11E7     		bne	a4,zero,.L143
 1876 0026 93F7F70F 		andi	a5,a5,0xff
 512:C:/Users/stapi/OneDrive/Desktop/GD32VW553/V1_MQTT_OK/GD32VW55X_Wifi_BLE_SDK/GD32VW55x_RELEASE_V1.0.2/MSDK/wpa_supplicant/src/tls\asn1.c **** 	wpabuf_put_u8(buf, ASN1_TAG_INTEGER);
 1877              		.loc 1 512 3 is_stmt 1
 1878              	.LVL180:
 511:C:/Users/stapi/OneDrive/Desktop/GD32VW553/V1_MQTT_OK/GD32VW55X_Wifi_BLE_SDK/GD32VW55x_RELEASE_V1.0.2/MSDK/wpa_supplicant/src/tls\asn1.c **** 		zeros++;
 1879              		.loc 1 511 8
 512:C:/Users/stapi/OneDrive/Desktop/GD32VW553/V1_MQTT_OK/GD32VW55X_Wifi_BLE_SDK/GD32VW55x_RELEASE_V1.0.2/MSDK/wpa_supplicant/src/tls\asn1.c **** 	wpabuf_put_u8(buf, ASN1_TAG_INTEGER);
 1880              		.loc 1 512 8 is_stmt 0
 1881 002a 13B41700 		seqz	s0,a5
 1882 002e 0904     		addi	s0,s0,2
 1883              	.LVL181:
 1884              	.L143:
 513:C:/Users/stapi/OneDrive/Desktop/GD32VW553/V1_MQTT_OK/GD32VW55X_Wifi_BLE_SDK/GD32VW55x_RELEASE_V1.0.2/MSDK/wpa_supplicant/src/tls\asn1.c **** 	wpabuf_put_u8(buf, 4 - zeros);
 1885              		.loc 1 513 2 is_stmt 1
 1886 0030 8945     		li	a1,2
 1887 0032 2AC6     		sw	a0,12(sp)
 1888 0034 97000000 		call	wpabuf_put_u8
 1888      E7800000 
 1889              	.LVL182:
 514:C:/Users/stapi/OneDrive/Desktop/GD32VW553/V1_MQTT_OK/GD32VW55X_Wifi_BLE_SDK/GD32VW55x_RELEASE_V1.0.2/MSDK/wpa_supplicant/src/tls\asn1.c **** 	wpabuf_put_data(buf, &bin[zeros], 4 - zeros);
 1890              		.loc 1 514 2
 1891 003c 3245     		lw	a0,12(sp)
 1892 003e 9145     		li	a1,4
 1893 0040 818D     		sub	a1,a1,s0
 1894 0042 93F5F50F 		andi	a1,a1,0xff
 1895 0046 97000000 		call	wpabuf_put_u8
 1895      E7800000 
 1896              	.LVL183:
 515:C:/Users/stapi/OneDrive/Desktop/GD32VW553/V1_MQTT_OK/GD32VW55X_Wifi_BLE_SDK/GD32VW55x_RELEASE_V1.0.2/MSDK/wpa_supplicant/src/tls\asn1.c **** }
 1897              		.loc 1 515 2
 1898 004e 3245     		lw	a0,12(sp)
 1899 0050 7C08     		addi	a5,sp,28
 1900 0052 1146     		li	a2,4
 1901 0054 018E     		sub	a2,a2,s0
 1902 0056 B3858700 		add	a1,a5,s0
 1903 005a 97000000 		call	wpabuf_put_data
 1903      E7800000 
 1904              	.LVL184:
 516:C:/Users/stapi/OneDrive/Desktop/GD32VW553/V1_MQTT_OK/GD32VW55X_Wifi_BLE_SDK/GD32VW55x_RELEASE_V1.0.2/MSDK/wpa_supplicant/src/tls\asn1.c **** 
 1905              		.loc 1 516 1 is_stmt 0
 1906 0062 0561     		addi	sp,sp,32
 1907              		.cfi_def_cfa_offset 0
 1908              	.LVL185:
 1909 0064 17030000 		tail	__riscv_restore_1
 1909      67000300 
 1910              		.cfi_restore 8
 1911              		.cfi_restore 1
 1912              		.cfi_def_cfa_offset -16
 1913              		.cfi_endproc
 1914              	.LFE100:
 1916              		.section	.text.asn1_put_octet_string,"ax",@progbits
 1917              		.align	1
 1918              		.globl	asn1_put_octet_string
 1920              	asn1_put_octet_string:
 1921              	.LFB102:
 537:C:/Users/stapi/OneDrive/Desktop/GD32VW553/V1_MQTT_OK/GD32VW55X_Wifi_BLE_SDK/GD32VW55x_RELEASE_V1.0.2/MSDK/wpa_supplicant/src/tls\asn1.c **** 
 538:C:/Users/stapi/OneDrive/Desktop/GD32VW553/V1_MQTT_OK/GD32VW55X_Wifi_BLE_SDK/GD32VW55x_RELEASE_V1.0.2/MSDK/wpa_supplicant/src/tls\asn1.c **** 
 539:C:/Users/stapi/OneDrive/Desktop/GD32VW553/V1_MQTT_OK/GD32VW55X_Wifi_BLE_SDK/GD32VW55x_RELEASE_V1.0.2/MSDK/wpa_supplicant/src/tls\asn1.c **** void asn1_put_octet_string(struct wpabuf *buf, const struct wpabuf *val)
 540:C:/Users/stapi/OneDrive/Desktop/GD32VW553/V1_MQTT_OK/GD32VW55X_Wifi_BLE_SDK/GD32VW55x_RELEASE_V1.0.2/MSDK/wpa_supplicant/src/tls\asn1.c **** {
 1922              		.loc 1 540 1 is_stmt 1
 1923              		.cfi_startproc
 1924              	.LVL186:
 1925 0000 17030000 		call	t0,__riscv_save_2
 1925      E7020300 
 1926              		.cfi_offset 9, -12
 1927              		.cfi_offset 8, -8
 1928              		.cfi_offset 1, -4
 1929              		.cfi_def_cfa_offset 16
 541:C:/Users/stapi/OneDrive/Desktop/GD32VW553/V1_MQTT_OK/GD32VW55X_Wifi_BLE_SDK/GD32VW55x_RELEASE_V1.0.2/MSDK/wpa_supplicant/src/tls\asn1.c **** 	wpabuf_put_u8(buf, ASN1_TAG_OCTETSTRING);
 1930              		.loc 1 541 2
 540:C:/Users/stapi/OneDrive/Desktop/GD32VW553/V1_MQTT_OK/GD32VW55X_Wifi_BLE_SDK/GD32VW55x_RELEASE_V1.0.2/MSDK/wpa_supplicant/src/tls\asn1.c **** 	wpabuf_put_u8(buf, ASN1_TAG_OCTETSTRING);
 1931              		.loc 1 540 1 is_stmt 0
 1932 0008 AE84     		mv	s1,a1
 1933              		.loc 1 541 2
 1934 000a 9145     		li	a1,4
 1935              	.LVL187:
 540:C:/Users/stapi/OneDrive/Desktop/GD32VW553/V1_MQTT_OK/GD32VW55X_Wifi_BLE_SDK/GD32VW55x_RELEASE_V1.0.2/MSDK/wpa_supplicant/src/tls\asn1.c **** 	wpabuf_put_u8(buf, ASN1_TAG_OCTETSTRING);
 1936              		.loc 1 540 1
 1937 000c 2A84     		mv	s0,a0
 1938              		.loc 1 541 2
 1939 000e 97000000 		call	wpabuf_put_u8
 1939      E7800000 
 1940              	.LVL188:
 542:C:/Users/stapi/OneDrive/Desktop/GD32VW553/V1_MQTT_OK/GD32VW55X_Wifi_BLE_SDK/GD32VW55x_RELEASE_V1.0.2/MSDK/wpa_supplicant/src/tls\asn1.c **** 	asn1_put_len(buf, wpabuf_len(val));
 1941              		.loc 1 542 2 is_stmt 1
 1942              	.LBB120:
 1943              	.LBB121:
  60:..\..\..\..\wpa_supplicant\src\utils/wpabuf.h **** }
 1944              		.loc 2 60 2
 1945              	.LBE121:
 1946              	.LBE120:
 1947              		.loc 1 542 2 is_stmt 0
 1948 0016 CC40     		lw	a1,4(s1)
 1949 0018 2285     		mv	a0,s0
 1950 001a 97000000 		call	asn1_put_len
 1950      E7800000 
 1951              	.LVL189:
 543:C:/Users/stapi/OneDrive/Desktop/GD32VW553/V1_MQTT_OK/GD32VW55X_Wifi_BLE_SDK/GD32VW55x_RELEASE_V1.0.2/MSDK/wpa_supplicant/src/tls\asn1.c **** 	wpabuf_put_buf(buf, val);
 1952              		.loc 1 543 2 is_stmt 1
 1953 0022 A685     		mv	a1,s1
 1954 0024 2285     		mv	a0,s0
 1955 0026 97000000 		call	wpabuf_put_buf
 1955      E7800000 
 1956              	.LVL190:
 544:C:/Users/stapi/OneDrive/Desktop/GD32VW553/V1_MQTT_OK/GD32VW55X_Wifi_BLE_SDK/GD32VW55x_RELEASE_V1.0.2/MSDK/wpa_supplicant/src/tls\asn1.c **** }
 1957              		.loc 1 544 1 is_stmt 0
 1958 002e 17030000 		tail	__riscv_restore_2
 1958      67000300 
 1959              		.cfi_restore 9
 1960              		.cfi_restore 8
 1961              		.cfi_restore 1
 1962              		.cfi_def_cfa_offset 0
 1963              		.cfi_endproc
 1964              	.LFE102:
 1966              		.section	.text.asn1_put_oid,"ax",@progbits
 1967              		.align	1
 1968              		.globl	asn1_put_oid
 1970              	asn1_put_oid:
 1971              	.LFB103:
 545:C:/Users/stapi/OneDrive/Desktop/GD32VW553/V1_MQTT_OK/GD32VW55X_Wifi_BLE_SDK/GD32VW55x_RELEASE_V1.0.2/MSDK/wpa_supplicant/src/tls\asn1.c **** 
 546:C:/Users/stapi/OneDrive/Desktop/GD32VW553/V1_MQTT_OK/GD32VW55X_Wifi_BLE_SDK/GD32VW55x_RELEASE_V1.0.2/MSDK/wpa_supplicant/src/tls\asn1.c **** 
 547:C:/Users/stapi/OneDrive/Desktop/GD32VW553/V1_MQTT_OK/GD32VW55X_Wifi_BLE_SDK/GD32VW55x_RELEASE_V1.0.2/MSDK/wpa_supplicant/src/tls\asn1.c **** void asn1_put_oid(struct wpabuf *buf, const struct asn1_oid *oid)
 548:C:/Users/stapi/OneDrive/Desktop/GD32VW553/V1_MQTT_OK/GD32VW55X_Wifi_BLE_SDK/GD32VW55x_RELEASE_V1.0.2/MSDK/wpa_supplicant/src/tls\asn1.c **** {
 1972              		.loc 1 548 1 is_stmt 1
 1973              		.cfi_startproc
 1974              	.LVL191:
 549:C:/Users/stapi/OneDrive/Desktop/GD32VW553/V1_MQTT_OK/GD32VW55X_Wifi_BLE_SDK/GD32VW55x_RELEASE_V1.0.2/MSDK/wpa_supplicant/src/tls\asn1.c **** 	u8 *len;
 1975              		.loc 1 549 2
 550:C:/Users/stapi/OneDrive/Desktop/GD32VW553/V1_MQTT_OK/GD32VW55X_Wifi_BLE_SDK/GD32VW55x_RELEASE_V1.0.2/MSDK/wpa_supplicant/src/tls\asn1.c **** 	size_t i;
 1976              		.loc 1 550 2
 551:C:/Users/stapi/OneDrive/Desktop/GD32VW553/V1_MQTT_OK/GD32VW55X_Wifi_BLE_SDK/GD32VW55x_RELEASE_V1.0.2/MSDK/wpa_supplicant/src/tls\asn1.c **** 
 552:C:/Users/stapi/OneDrive/Desktop/GD32VW553/V1_MQTT_OK/GD32VW55X_Wifi_BLE_SDK/GD32VW55x_RELEASE_V1.0.2/MSDK/wpa_supplicant/src/tls\asn1.c **** 	if (oid->len < 2)
 1977              		.loc 1 552 2
 1978              		.loc 1 552 5 is_stmt 0
 1979 0000 B849     		lw	a4,80(a1)
 1980 0002 8547     		li	a5,1
 1981 0004 63FDE70A 		bleu	a4,a5,.L163
 548:C:/Users/stapi/OneDrive/Desktop/GD32VW553/V1_MQTT_OK/GD32VW55X_Wifi_BLE_SDK/GD32VW55x_RELEASE_V1.0.2/MSDK/wpa_supplicant/src/tls\asn1.c **** 	u8 *len;
 1982              		.loc 1 548 1
 1983 0008 17030000 		call	t0,__riscv_save_5
 1983      E7020300 
 1984              		.cfi_offset 20, -24
 1985              		.cfi_offset 19, -20
 1986              		.cfi_offset 18, -16
 1987              		.cfi_offset 9, -12
 1988              		.cfi_offset 8, -8
 1989              		.cfi_offset 1, -4
 1990              		.cfi_def_cfa_offset 32
 1991 0010 4111     		addi	sp,sp,-16
 1992              		.cfi_def_cfa_offset 48
 1993 0012 AE84     		mv	s1,a1
 1994              	.LBB125:
 1995              	.LBB126:
 553:C:/Users/stapi/OneDrive/Desktop/GD32VW553/V1_MQTT_OK/GD32VW55X_Wifi_BLE_SDK/GD32VW55x_RELEASE_V1.0.2/MSDK/wpa_supplicant/src/tls\asn1.c **** 		return;
 554:C:/Users/stapi/OneDrive/Desktop/GD32VW553/V1_MQTT_OK/GD32VW55X_Wifi_BLE_SDK/GD32VW55x_RELEASE_V1.0.2/MSDK/wpa_supplicant/src/tls\asn1.c **** 	wpabuf_put_u8(buf, ASN1_TAG_OID);
 1996              		.loc 1 554 2
 1997 0014 9945     		li	a1,6
 1998              	.LVL192:
 1999 0016 2A89     		mv	s2,a0
 2000              	.LVL193:
 2001              		.loc 1 554 2 is_stmt 1
 2002 0018 97000000 		call	wpabuf_put_u8
 2002      E7800000 
 2003              	.LVL194:
 555:C:/Users/stapi/OneDrive/Desktop/GD32VW553/V1_MQTT_OK/GD32VW55X_Wifi_BLE_SDK/GD32VW55x_RELEASE_V1.0.2/MSDK/wpa_supplicant/src/tls\asn1.c **** 	len = wpabuf_put(buf, 1);
 2004              		.loc 1 555 2
 2005              		.loc 1 555 8 is_stmt 0
 2006 0020 8545     		li	a1,1
 2007 0022 4A85     		mv	a0,s2
 2008 0024 97000000 		call	wpabuf_put
 2008      E7800000 
 2009              	.LVL195:
 556:C:/Users/stapi/OneDrive/Desktop/GD32VW553/V1_MQTT_OK/GD32VW55X_Wifi_BLE_SDK/GD32VW55x_RELEASE_V1.0.2/MSDK/wpa_supplicant/src/tls\asn1.c **** 	wpabuf_put_u8(buf, 40 * oid->oid[0] + oid->oid[1]);
 2010              		.loc 1 556 2
 2011 002c 9840     		lw	a4,0(s1)
 2012 002e CC40     		lw	a1,4(s1)
 2013 0030 93078002 		li	a5,40
 555:C:/Users/stapi/OneDrive/Desktop/GD32VW553/V1_MQTT_OK/GD32VW55X_Wifi_BLE_SDK/GD32VW55x_RELEASE_V1.0.2/MSDK/wpa_supplicant/src/tls\asn1.c **** 	len = wpabuf_put(buf, 1);
 2014              		.loc 1 555 8
 2015 0034 AA89     		mv	s3,a0
 2016              	.LVL196:
 2017              		.loc 1 556 2 is_stmt 1
 2018 0036 FF15F7C4 		maddr32	a1, a4, a5
 2019 003a 4A85     		mv	a0,s2
 2020              	.LVL197:
 2021 003c 93F5F50F 		andi	a1,a1,0xff
 2022 0040 97000000 		call	wpabuf_put_u8
 2022      E7800000 
 2023              	.LVL198:
 557:C:/Users/stapi/OneDrive/Desktop/GD32VW553/V1_MQTT_OK/GD32VW55X_Wifi_BLE_SDK/GD32VW55x_RELEASE_V1.0.2/MSDK/wpa_supplicant/src/tls\asn1.c **** 	for (i = 2; i < oid->len; i++) {
 2024              		.loc 1 557 2
 2025              		.loc 1 557 9 is_stmt 0
 2026 0048 094A     		li	s4,2
 2027              	.LVL199:
 2028              	.L152:
 2029              		.loc 1 557 14 is_stmt 1
 2030              		.loc 1 557 2 is_stmt 0
 2031 004a BC48     		lw	a5,80(s1)
 2032 004c 6362FA02 		bltu	s4,a5,.L158
 558:C:/Users/stapi/OneDrive/Desktop/GD32VW553/V1_MQTT_OK/GD32VW55X_Wifi_BLE_SDK/GD32VW55x_RELEASE_V1.0.2/MSDK/wpa_supplicant/src/tls\asn1.c **** 		unsigned long val = oid->oid[i];
 559:C:/Users/stapi/OneDrive/Desktop/GD32VW553/V1_MQTT_OK/GD32VW55X_Wifi_BLE_SDK/GD32VW55x_RELEASE_V1.0.2/MSDK/wpa_supplicant/src/tls\asn1.c **** 		u8 bytes[8];
 560:C:/Users/stapi/OneDrive/Desktop/GD32VW553/V1_MQTT_OK/GD32VW55X_Wifi_BLE_SDK/GD32VW55x_RELEASE_V1.0.2/MSDK/wpa_supplicant/src/tls\asn1.c **** 		int idx = 0;
 561:C:/Users/stapi/OneDrive/Desktop/GD32VW553/V1_MQTT_OK/GD32VW55X_Wifi_BLE_SDK/GD32VW55x_RELEASE_V1.0.2/MSDK/wpa_supplicant/src/tls\asn1.c **** 
 562:C:/Users/stapi/OneDrive/Desktop/GD32VW553/V1_MQTT_OK/GD32VW55X_Wifi_BLE_SDK/GD32VW55x_RELEASE_V1.0.2/MSDK/wpa_supplicant/src/tls\asn1.c **** 		while (val) {
 563:C:/Users/stapi/OneDrive/Desktop/GD32VW553/V1_MQTT_OK/GD32VW55X_Wifi_BLE_SDK/GD32VW55x_RELEASE_V1.0.2/MSDK/wpa_supplicant/src/tls\asn1.c **** 			bytes[idx] = (idx ? 0x80 : 0x00) | (val & 0x7f);
 564:C:/Users/stapi/OneDrive/Desktop/GD32VW553/V1_MQTT_OK/GD32VW55X_Wifi_BLE_SDK/GD32VW55x_RELEASE_V1.0.2/MSDK/wpa_supplicant/src/tls\asn1.c **** 			idx++;
 565:C:/Users/stapi/OneDrive/Desktop/GD32VW553/V1_MQTT_OK/GD32VW55X_Wifi_BLE_SDK/GD32VW55x_RELEASE_V1.0.2/MSDK/wpa_supplicant/src/tls\asn1.c **** 			val >>= 7;
 566:C:/Users/stapi/OneDrive/Desktop/GD32VW553/V1_MQTT_OK/GD32VW55X_Wifi_BLE_SDK/GD32VW55x_RELEASE_V1.0.2/MSDK/wpa_supplicant/src/tls\asn1.c **** 		}
 567:C:/Users/stapi/OneDrive/Desktop/GD32VW553/V1_MQTT_OK/GD32VW55X_Wifi_BLE_SDK/GD32VW55x_RELEASE_V1.0.2/MSDK/wpa_supplicant/src/tls\asn1.c **** 		if (idx == 0) {
 568:C:/Users/stapi/OneDrive/Desktop/GD32VW553/V1_MQTT_OK/GD32VW55X_Wifi_BLE_SDK/GD32VW55x_RELEASE_V1.0.2/MSDK/wpa_supplicant/src/tls\asn1.c **** 			bytes[idx] = 0;
 569:C:/Users/stapi/OneDrive/Desktop/GD32VW553/V1_MQTT_OK/GD32VW55X_Wifi_BLE_SDK/GD32VW55x_RELEASE_V1.0.2/MSDK/wpa_supplicant/src/tls\asn1.c **** 			idx = 1;
 570:C:/Users/stapi/OneDrive/Desktop/GD32VW553/V1_MQTT_OK/GD32VW55X_Wifi_BLE_SDK/GD32VW55x_RELEASE_V1.0.2/MSDK/wpa_supplicant/src/tls\asn1.c **** 		}
 571:C:/Users/stapi/OneDrive/Desktop/GD32VW553/V1_MQTT_OK/GD32VW55X_Wifi_BLE_SDK/GD32VW55x_RELEASE_V1.0.2/MSDK/wpa_supplicant/src/tls\asn1.c **** 		while (idx > 0) {
 572:C:/Users/stapi/OneDrive/Desktop/GD32VW553/V1_MQTT_OK/GD32VW55X_Wifi_BLE_SDK/GD32VW55x_RELEASE_V1.0.2/MSDK/wpa_supplicant/src/tls\asn1.c **** 			idx--;
 573:C:/Users/stapi/OneDrive/Desktop/GD32VW553/V1_MQTT_OK/GD32VW55X_Wifi_BLE_SDK/GD32VW55x_RELEASE_V1.0.2/MSDK/wpa_supplicant/src/tls\asn1.c **** 			wpabuf_put_u8(buf, bytes[idx]);
 574:C:/Users/stapi/OneDrive/Desktop/GD32VW553/V1_MQTT_OK/GD32VW55X_Wifi_BLE_SDK/GD32VW55x_RELEASE_V1.0.2/MSDK/wpa_supplicant/src/tls\asn1.c **** 		}
 575:C:/Users/stapi/OneDrive/Desktop/GD32VW553/V1_MQTT_OK/GD32VW55X_Wifi_BLE_SDK/GD32VW55x_RELEASE_V1.0.2/MSDK/wpa_supplicant/src/tls\asn1.c **** 	}
 576:C:/Users/stapi/OneDrive/Desktop/GD32VW553/V1_MQTT_OK/GD32VW55X_Wifi_BLE_SDK/GD32VW55x_RELEASE_V1.0.2/MSDK/wpa_supplicant/src/tls\asn1.c **** 	*len = (u8 *) wpabuf_put(buf, 0) - len - 1;
 2033              		.loc 1 576 2 is_stmt 1
 2034              		.loc 1 576 16 is_stmt 0
 2035 0050 8145     		li	a1,0
 2036 0052 4A85     		mv	a0,s2
 2037 0054 97000000 		call	wpabuf_put
 2037      E7800000 
 2038              	.LVL200:
 2039              		.loc 1 576 35
 2040 005c B3073541 		sub	a5,a0,s3
 2041              		.loc 1 576 41
 2042 0060 FD17     		addi	a5,a5,-1
 2043              		.loc 1 576 7
 2044 0062 2380F900 		sb	a5,0(s3)
 2045              	.LVL201:
 2046              	.LBE126:
 2047              	.LBE125:
 577:C:/Users/stapi/OneDrive/Desktop/GD32VW553/V1_MQTT_OK/GD32VW55X_Wifi_BLE_SDK/GD32VW55x_RELEASE_V1.0.2/MSDK/wpa_supplicant/src/tls\asn1.c **** }
 2048              		.loc 1 577 1
 2049 0066 4101     		addi	sp,sp,16
 2050              		.cfi_remember_state
 2051              		.cfi_def_cfa_offset 0
 2052 0068 17030000 		tail	__riscv_restore_5
 2052      67000300 
 2053              		.cfi_restore 20
 2054              		.cfi_restore 19
 2055              		.cfi_restore 18
 2056              		.cfi_restore 9
 2057              		.cfi_restore 8
 2058              		.cfi_restore 1
 2059              		.cfi_def_cfa_offset -32
 2060              	.LVL202:
 2061              	.L158:
 2062              		.cfi_restore_state
 2063              	.LBB130:
 2064              	.LBB129:
 2065              	.LBB127:
 558:C:/Users/stapi/OneDrive/Desktop/GD32VW553/V1_MQTT_OK/GD32VW55X_Wifi_BLE_SDK/GD32VW55x_RELEASE_V1.0.2/MSDK/wpa_supplicant/src/tls\asn1.c **** 		unsigned long val = oid->oid[i];
 2066              		.loc 1 558 3 is_stmt 1
 558:C:/Users/stapi/OneDrive/Desktop/GD32VW553/V1_MQTT_OK/GD32VW55X_Wifi_BLE_SDK/GD32VW55x_RELEASE_V1.0.2/MSDK/wpa_supplicant/src/tls\asn1.c **** 		unsigned long val = oid->oid[i];
 2067              		.loc 1 558 17 is_stmt 0
 2068 0070 B3479A20 		sh2add	a5,s4,s1
 2069 0074 9843     		lw	a4,0(a5)
 2070              	.LVL203:
 559:C:/Users/stapi/OneDrive/Desktop/GD32VW553/V1_MQTT_OK/GD32VW55X_Wifi_BLE_SDK/GD32VW55x_RELEASE_V1.0.2/MSDK/wpa_supplicant/src/tls\asn1.c **** 		int idx = 0;
 2071              		.loc 1 559 3 is_stmt 1
 560:C:/Users/stapi/OneDrive/Desktop/GD32VW553/V1_MQTT_OK/GD32VW55X_Wifi_BLE_SDK/GD32VW55x_RELEASE_V1.0.2/MSDK/wpa_supplicant/src/tls\asn1.c **** 
 2072              		.loc 1 560 3
 562:C:/Users/stapi/OneDrive/Desktop/GD32VW553/V1_MQTT_OK/GD32VW55X_Wifi_BLE_SDK/GD32VW55x_RELEASE_V1.0.2/MSDK/wpa_supplicant/src/tls\asn1.c **** 			bytes[idx] = (idx ? 0x80 : 0x00) | (val & 0x7f);
 2073              		.loc 1 562 3
 560:C:/Users/stapi/OneDrive/Desktop/GD32VW553/V1_MQTT_OK/GD32VW55X_Wifi_BLE_SDK/GD32VW55x_RELEASE_V1.0.2/MSDK/wpa_supplicant/src/tls\asn1.c **** 
 2074              		.loc 1 560 7 is_stmt 0
 2075 0076 0144     		li	s0,0
 2076              	.LVL204:
 2077              	.L153:
 562:C:/Users/stapi/OneDrive/Desktop/GD32VW553/V1_MQTT_OK/GD32VW55X_Wifi_BLE_SDK/GD32VW55x_RELEASE_V1.0.2/MSDK/wpa_supplicant/src/tls\asn1.c **** 			bytes[idx] = (idx ? 0x80 : 0x00) | (val & 0x7f);
 2078              		.loc 1 562 9 is_stmt 1
 2079 0078 1DE3     		bne	a4,zero,.L155
 567:C:/Users/stapi/OneDrive/Desktop/GD32VW553/V1_MQTT_OK/GD32VW55X_Wifi_BLE_SDK/GD32VW55x_RELEASE_V1.0.2/MSDK/wpa_supplicant/src/tls\asn1.c **** 			bytes[idx] = 0;
 2080              		.loc 1 567 3
 567:C:/Users/stapi/OneDrive/Desktop/GD32VW553/V1_MQTT_OK/GD32VW55X_Wifi_BLE_SDK/GD32VW55x_RELEASE_V1.0.2/MSDK/wpa_supplicant/src/tls\asn1.c **** 			bytes[idx] = 0;
 2081              		.loc 1 567 6 is_stmt 0
 2082 007a 1DCC     		beq	s0,zero,.L160
 568:C:/Users/stapi/OneDrive/Desktop/GD32VW553/V1_MQTT_OK/GD32VW55X_Wifi_BLE_SDK/GD32VW55x_RELEASE_V1.0.2/MSDK/wpa_supplicant/src/tls\asn1.c **** 			idx = 1;
 2083              		.loc 1 568 15
 2084 007c 83478100 		lbu	a5,8(sp)
 2085              	.LVL205:
 2086              	.L156:
 2087 0080 2304F100 		sb	a5,8(sp)
 2088              	.LVL206:
 571:C:/Users/stapi/OneDrive/Desktop/GD32VW553/V1_MQTT_OK/GD32VW55X_Wifi_BLE_SDK/GD32VW55x_RELEASE_V1.0.2/MSDK/wpa_supplicant/src/tls\asn1.c **** 			idx--;
 2089              		.loc 1 571 9 is_stmt 1
 2090              	.L157:
 572:C:/Users/stapi/OneDrive/Desktop/GD32VW553/V1_MQTT_OK/GD32VW55X_Wifi_BLE_SDK/GD32VW55x_RELEASE_V1.0.2/MSDK/wpa_supplicant/src/tls\asn1.c **** 			wpabuf_put_u8(buf, bytes[idx]);
 2091              		.loc 1 572 4
 572:C:/Users/stapi/OneDrive/Desktop/GD32VW553/V1_MQTT_OK/GD32VW55X_Wifi_BLE_SDK/GD32VW55x_RELEASE_V1.0.2/MSDK/wpa_supplicant/src/tls\asn1.c **** 			wpabuf_put_u8(buf, bytes[idx]);
 2092              		.loc 1 572 7 is_stmt 0
 2093 0084 7D14     		addi	s0,s0,-1
 2094              	.LVL207:
 573:C:/Users/stapi/OneDrive/Desktop/GD32VW553/V1_MQTT_OK/GD32VW55X_Wifi_BLE_SDK/GD32VW55x_RELEASE_V1.0.2/MSDK/wpa_supplicant/src/tls\asn1.c **** 		}
 2095              		.loc 1 573 4 is_stmt 1
 2096 0086 3C00     		addi	a5,sp,8
 2097 0088 A297     		add	a5,a5,s0
 2098 008a 83C50700 		lbu	a1,0(a5)
 2099 008e 4A85     		mv	a0,s2
 2100 0090 97000000 		call	wpabuf_put_u8
 2100      E7800000 
 2101              	.LVL208:
 571:C:/Users/stapi/OneDrive/Desktop/GD32VW553/V1_MQTT_OK/GD32VW55X_Wifi_BLE_SDK/GD32VW55x_RELEASE_V1.0.2/MSDK/wpa_supplicant/src/tls\asn1.c **** 			idx--;
 2102              		.loc 1 571 9
 2103 0098 75F4     		bne	s0,zero,.L157
 2104              	.LBE127:
 557:C:/Users/stapi/OneDrive/Desktop/GD32VW553/V1_MQTT_OK/GD32VW55X_Wifi_BLE_SDK/GD32VW55x_RELEASE_V1.0.2/MSDK/wpa_supplicant/src/tls\asn1.c **** 		unsigned long val = oid->oid[i];
 2105              		.loc 1 557 28
 557:C:/Users/stapi/OneDrive/Desktop/GD32VW553/V1_MQTT_OK/GD32VW55X_Wifi_BLE_SDK/GD32VW55x_RELEASE_V1.0.2/MSDK/wpa_supplicant/src/tls\asn1.c **** 		unsigned long val = oid->oid[i];
 2106              		.loc 1 557 29 is_stmt 0
 2107 009a 050A     		addi	s4,s4,1
 2108              	.LVL209:
 2109 009c 7DB7     		j	.L152
 2110              	.LVL210:
 2111              	.L155:
 2112              	.LBB128:
 563:C:/Users/stapi/OneDrive/Desktop/GD32VW553/V1_MQTT_OK/GD32VW55X_Wifi_BLE_SDK/GD32VW55x_RELEASE_V1.0.2/MSDK/wpa_supplicant/src/tls\asn1.c **** 			idx++;
 2113              		.loc 1 563 4 is_stmt 1
 563:C:/Users/stapi/OneDrive/Desktop/GD32VW553/V1_MQTT_OK/GD32VW55X_Wifi_BLE_SDK/GD32VW55x_RELEASE_V1.0.2/MSDK/wpa_supplicant/src/tls\asn1.c **** 			idx++;
 2114              		.loc 1 563 37 is_stmt 0
 2115 009e B3378000 		snez	a5,s0
 563:C:/Users/stapi/OneDrive/Desktop/GD32VW553/V1_MQTT_OK/GD32VW55X_Wifi_BLE_SDK/GD32VW55x_RELEASE_V1.0.2/MSDK/wpa_supplicant/src/tls\asn1.c **** 			idx++;
 2116              		.loc 1 563 44
 2117 00a2 1376F707 		andi	a2,a4,127
 563:C:/Users/stapi/OneDrive/Desktop/GD32VW553/V1_MQTT_OK/GD32VW55X_Wifi_BLE_SDK/GD32VW55x_RELEASE_V1.0.2/MSDK/wpa_supplicant/src/tls\asn1.c **** 			idx++;
 2118              		.loc 1 563 37
 2119 00a6 9E07     		slli	a5,a5,7
 563:C:/Users/stapi/OneDrive/Desktop/GD32VW553/V1_MQTT_OK/GD32VW55X_Wifi_BLE_SDK/GD32VW55x_RELEASE_V1.0.2/MSDK/wpa_supplicant/src/tls\asn1.c **** 			idx++;
 2120              		.loc 1 563 15
 2121 00a8 3400     		addi	a3,sp,8
 2122 00aa A296     		add	a3,a3,s0
 563:C:/Users/stapi/OneDrive/Desktop/GD32VW553/V1_MQTT_OK/GD32VW55X_Wifi_BLE_SDK/GD32VW55x_RELEASE_V1.0.2/MSDK/wpa_supplicant/src/tls\asn1.c **** 			idx++;
 2123              		.loc 1 563 37
 2124 00ac D18F     		or	a5,a5,a2
 563:C:/Users/stapi/OneDrive/Desktop/GD32VW553/V1_MQTT_OK/GD32VW55X_Wifi_BLE_SDK/GD32VW55x_RELEASE_V1.0.2/MSDK/wpa_supplicant/src/tls\asn1.c **** 			idx++;
 2125              		.loc 1 563 15
 2126 00ae 2380F600 		sb	a5,0(a3)
 564:C:/Users/stapi/OneDrive/Desktop/GD32VW553/V1_MQTT_OK/GD32VW55X_Wifi_BLE_SDK/GD32VW55x_RELEASE_V1.0.2/MSDK/wpa_supplicant/src/tls\asn1.c **** 			val >>= 7;
 2127              		.loc 1 564 4 is_stmt 1
 564:C:/Users/stapi/OneDrive/Desktop/GD32VW553/V1_MQTT_OK/GD32VW55X_Wifi_BLE_SDK/GD32VW55x_RELEASE_V1.0.2/MSDK/wpa_supplicant/src/tls\asn1.c **** 			val >>= 7;
 2128              		.loc 1 564 7 is_stmt 0
 2129 00b2 0504     		addi	s0,s0,1
 2130              	.LVL211:
 565:C:/Users/stapi/OneDrive/Desktop/GD32VW553/V1_MQTT_OK/GD32VW55X_Wifi_BLE_SDK/GD32VW55x_RELEASE_V1.0.2/MSDK/wpa_supplicant/src/tls\asn1.c **** 		}
 2131              		.loc 1 565 4 is_stmt 1
 565:C:/Users/stapi/OneDrive/Desktop/GD32VW553/V1_MQTT_OK/GD32VW55X_Wifi_BLE_SDK/GD32VW55x_RELEASE_V1.0.2/MSDK/wpa_supplicant/src/tls\asn1.c **** 		}
 2132              		.loc 1 565 8 is_stmt 0
 2133 00b4 1D83     		srli	a4,a4,7
 2134              	.LVL212:
 2135 00b6 C9B7     		j	.L153
 2136              	.L160:
 568:C:/Users/stapi/OneDrive/Desktop/GD32VW553/V1_MQTT_OK/GD32VW55X_Wifi_BLE_SDK/GD32VW55x_RELEASE_V1.0.2/MSDK/wpa_supplicant/src/tls\asn1.c **** 			idx = 1;
 2137              		.loc 1 568 15
 2138 00b8 8147     		li	a5,0
 569:C:/Users/stapi/OneDrive/Desktop/GD32VW553/V1_MQTT_OK/GD32VW55X_Wifi_BLE_SDK/GD32VW55x_RELEASE_V1.0.2/MSDK/wpa_supplicant/src/tls\asn1.c **** 		}
 2139              		.loc 1 569 8
 2140 00ba 0544     		li	s0,1
 2141              	.LVL213:
 2142 00bc D1B7     		j	.L156
 2143              	.LVL214:
 2144              	.L163:
 2145              		.cfi_def_cfa_offset 0
 2146              		.cfi_restore 1
 2147              		.cfi_restore 8
 2148              		.cfi_restore 9
 2149              		.cfi_restore 18
 2150              		.cfi_restore 19
 2151              		.cfi_restore 20
 2152 00be 8280     		ret
 2153              	.LBE128:
 2154              	.LBE129:
 2155              	.LBE130:
 2156              		.cfi_endproc
 2157              	.LFE103:
 2159              		.section	.text.asn1_put_hdr,"ax",@progbits
 2160              		.align	1
 2161              		.globl	asn1_put_hdr
 2163              	asn1_put_hdr:
 2164              	.LFB104:
 578:C:/Users/stapi/OneDrive/Desktop/GD32VW553/V1_MQTT_OK/GD32VW55X_Wifi_BLE_SDK/GD32VW55x_RELEASE_V1.0.2/MSDK/wpa_supplicant/src/tls\asn1.c **** 
 579:C:/Users/stapi/OneDrive/Desktop/GD32VW553/V1_MQTT_OK/GD32VW55X_Wifi_BLE_SDK/GD32VW55x_RELEASE_V1.0.2/MSDK/wpa_supplicant/src/tls\asn1.c **** 
 580:C:/Users/stapi/OneDrive/Desktop/GD32VW553/V1_MQTT_OK/GD32VW55X_Wifi_BLE_SDK/GD32VW55x_RELEASE_V1.0.2/MSDK/wpa_supplicant/src/tls\asn1.c **** void asn1_put_hdr(struct wpabuf *buf, u8 class, int constructed, u8 tag,
 581:C:/Users/stapi/OneDrive/Desktop/GD32VW553/V1_MQTT_OK/GD32VW55X_Wifi_BLE_SDK/GD32VW55x_RELEASE_V1.0.2/MSDK/wpa_supplicant/src/tls\asn1.c **** 		  size_t len)
 582:C:/Users/stapi/OneDrive/Desktop/GD32VW553/V1_MQTT_OK/GD32VW55X_Wifi_BLE_SDK/GD32VW55x_RELEASE_V1.0.2/MSDK/wpa_supplicant/src/tls\asn1.c **** {
 2165              		.loc 1 582 1 is_stmt 1
 2166              		.cfi_startproc
 2167              	.LVL215:
 2168 0000 17030000 		call	t0,__riscv_save_2
 2168      E7020300 
 2169              		.cfi_offset 9, -12
 2170              		.cfi_offset 8, -8
 2171              		.cfi_offset 1, -4
 2172              		.cfi_def_cfa_offset 16
 583:C:/Users/stapi/OneDrive/Desktop/GD32VW553/V1_MQTT_OK/GD32VW55X_Wifi_BLE_SDK/GD32VW55x_RELEASE_V1.0.2/MSDK/wpa_supplicant/src/tls\asn1.c **** 	wpabuf_put_u8(buf, class << 6 | (constructed ? 0x20 : 0x00) | tag);
 2173              		.loc 1 583 2
 2174              		.loc 1 583 32 is_stmt 0
 2175 0008 FA05     		slli	a1,a1,30
 2176              	.LVL216:
 2177 000a E185     		srai	a1,a1,24
 2178 000c 3336C000 		snez	a2,a2
 2179              	.LVL217:
 2180 0010 1606     		slli	a2,a2,5
 2181              		.loc 1 583 62
 2182 0012 D58D     		or	a1,a1,a3
 2183 0014 D18D     		or	a1,a2,a1
 2184              		.loc 1 583 2
 2185 0016 93F5F50F 		andi	a1,a1,0xff
 582:C:/Users/stapi/OneDrive/Desktop/GD32VW553/V1_MQTT_OK/GD32VW55X_Wifi_BLE_SDK/GD32VW55x_RELEASE_V1.0.2/MSDK/wpa_supplicant/src/tls\asn1.c **** 	wpabuf_put_u8(buf, class << 6 | (constructed ? 0x20 : 0x00) | tag);
 2186              		.loc 1 582 1
 2187 001a 2A84     		mv	s0,a0
 2188 001c BA84     		mv	s1,a4
 2189              		.loc 1 583 2
 2190 001e 97000000 		call	wpabuf_put_u8
 2190      E7800000 
 2191              	.LVL218:
 584:C:/Users/stapi/OneDrive/Desktop/GD32VW553/V1_MQTT_OK/GD32VW55X_Wifi_BLE_SDK/GD32VW55x_RELEASE_V1.0.2/MSDK/wpa_supplicant/src/tls\asn1.c **** 	asn1_put_len(buf, len);
 2192              		.loc 1 584 2 is_stmt 1
 2193 0026 A685     		mv	a1,s1
 2194 0028 2285     		mv	a0,s0
 2195 002a 97000000 		call	asn1_put_len
 2195      E7800000 
 2196              	.LVL219:
 585:C:/Users/stapi/OneDrive/Desktop/GD32VW553/V1_MQTT_OK/GD32VW55X_Wifi_BLE_SDK/GD32VW55x_RELEASE_V1.0.2/MSDK/wpa_supplicant/src/tls\asn1.c **** }
 2197              		.loc 1 585 1 is_stmt 0
 2198 0032 17030000 		tail	__riscv_restore_2
 2198      67000300 
 2199              		.cfi_restore 9
 2200              		.cfi_restore 8
 2201              		.cfi_restore 1
 2202              		.cfi_def_cfa_offset 0
 2203              		.cfi_endproc
 2204              	.LFE104:
 2206              		.section	.text.asn1_put_sequence,"ax",@progbits
 2207              		.align	1
 2208              		.globl	asn1_put_sequence
 2210              	asn1_put_sequence:
 2211              	.LFB105:
 586:C:/Users/stapi/OneDrive/Desktop/GD32VW553/V1_MQTT_OK/GD32VW55X_Wifi_BLE_SDK/GD32VW55x_RELEASE_V1.0.2/MSDK/wpa_supplicant/src/tls\asn1.c **** 
 587:C:/Users/stapi/OneDrive/Desktop/GD32VW553/V1_MQTT_OK/GD32VW55X_Wifi_BLE_SDK/GD32VW55x_RELEASE_V1.0.2/MSDK/wpa_supplicant/src/tls\asn1.c **** 
 588:C:/Users/stapi/OneDrive/Desktop/GD32VW553/V1_MQTT_OK/GD32VW55X_Wifi_BLE_SDK/GD32VW55x_RELEASE_V1.0.2/MSDK/wpa_supplicant/src/tls\asn1.c **** void asn1_put_sequence(struct wpabuf *buf, const struct wpabuf *payload)
 589:C:/Users/stapi/OneDrive/Desktop/GD32VW553/V1_MQTT_OK/GD32VW55X_Wifi_BLE_SDK/GD32VW55x_RELEASE_V1.0.2/MSDK/wpa_supplicant/src/tls\asn1.c **** {
 2212              		.loc 1 589 1 is_stmt 1
 2213              		.cfi_startproc
 2214              	.LVL220:
 2215 0000 17030000 		call	t0,__riscv_save_3
 2215      E7020300 
 2216              		.cfi_offset 18, -16
 2217              		.cfi_offset 9, -12
 2218              		.cfi_offset 8, -8
 2219              		.cfi_offset 1, -4
 2220              		.cfi_def_cfa_offset 16
 590:C:/Users/stapi/OneDrive/Desktop/GD32VW553/V1_MQTT_OK/GD32VW55X_Wifi_BLE_SDK/GD32VW55x_RELEASE_V1.0.2/MSDK/wpa_supplicant/src/tls\asn1.c **** 	asn1_put_hdr(buf, ASN1_CLASS_UNIVERSAL, 1, ASN1_TAG_SEQUENCE,
 2221              		.loc 1 590 2
 2222              	.LVL221:
 2223              	.LBB131:
 2224              	.LBB132:
  60:..\..\..\..\wpa_supplicant\src\utils/wpabuf.h **** }
 2225              		.loc 2 60 2
  60:..\..\..\..\wpa_supplicant\src\utils/wpabuf.h **** }
 2226              		.loc 2 60 12 is_stmt 0
 2227 0008 03A94500 		lw	s2,4(a1)
 2228              	.LVL222:
 2229              	.LBE132:
 2230              	.LBE131:
 589:C:/Users/stapi/OneDrive/Desktop/GD32VW553/V1_MQTT_OK/GD32VW55X_Wifi_BLE_SDK/GD32VW55x_RELEASE_V1.0.2/MSDK/wpa_supplicant/src/tls\asn1.c **** 	asn1_put_hdr(buf, ASN1_CLASS_UNIVERSAL, 1, ASN1_TAG_SEQUENCE,
 2231              		.loc 1 589 1
 2232 000c AE84     		mv	s1,a1
 2233              	.LBB133:
 2234              	.LBB134:
 583:C:/Users/stapi/OneDrive/Desktop/GD32VW553/V1_MQTT_OK/GD32VW55X_Wifi_BLE_SDK/GD32VW55x_RELEASE_V1.0.2/MSDK/wpa_supplicant/src/tls\asn1.c **** 	asn1_put_len(buf, len);
 2235              		.loc 1 583 2
 2236 000e 93050003 		li	a1,48
 2237              	.LVL223:
 2238              	.LBE134:
 2239              	.LBE133:
 589:C:/Users/stapi/OneDrive/Desktop/GD32VW553/V1_MQTT_OK/GD32VW55X_Wifi_BLE_SDK/GD32VW55x_RELEASE_V1.0.2/MSDK/wpa_supplicant/src/tls\asn1.c **** 	asn1_put_hdr(buf, ASN1_CLASS_UNIVERSAL, 1, ASN1_TAG_SEQUENCE,
 2240              		.loc 1 589 1
 2241 0012 2A84     		mv	s0,a0
 2242              	.LVL224:
 2243              	.LBB136:
 2244              	.LBB135:
 583:C:/Users/stapi/OneDrive/Desktop/GD32VW553/V1_MQTT_OK/GD32VW55X_Wifi_BLE_SDK/GD32VW55x_RELEASE_V1.0.2/MSDK/wpa_supplicant/src/tls\asn1.c **** 	asn1_put_len(buf, len);
 2245              		.loc 1 583 2 is_stmt 1
 2246 0014 97000000 		call	wpabuf_put_u8
 2246      E7800000 
 2247              	.LVL225:
 584:C:/Users/stapi/OneDrive/Desktop/GD32VW553/V1_MQTT_OK/GD32VW55X_Wifi_BLE_SDK/GD32VW55x_RELEASE_V1.0.2/MSDK/wpa_supplicant/src/tls\asn1.c **** }
 2248              		.loc 1 584 2
 2249 001c CA85     		mv	a1,s2
 2250 001e 2285     		mv	a0,s0
 2251 0020 97000000 		call	asn1_put_len
 2251      E7800000 
 2252              	.LVL226:
 2253              	.LBE135:
 2254              	.LBE136:
 591:C:/Users/stapi/OneDrive/Desktop/GD32VW553/V1_MQTT_OK/GD32VW55X_Wifi_BLE_SDK/GD32VW55x_RELEASE_V1.0.2/MSDK/wpa_supplicant/src/tls\asn1.c **** 		     wpabuf_len(payload));
 592:C:/Users/stapi/OneDrive/Desktop/GD32VW553/V1_MQTT_OK/GD32VW55X_Wifi_BLE_SDK/GD32VW55x_RELEASE_V1.0.2/MSDK/wpa_supplicant/src/tls\asn1.c **** 	wpabuf_put_buf(buf, payload);
 2255              		.loc 1 592 2
 2256 0028 A685     		mv	a1,s1
 2257 002a 2285     		mv	a0,s0
 2258 002c 97000000 		call	wpabuf_put_buf
 2258      E7800000 
 2259              	.LVL227:
 593:C:/Users/stapi/OneDrive/Desktop/GD32VW553/V1_MQTT_OK/GD32VW55X_Wifi_BLE_SDK/GD32VW55x_RELEASE_V1.0.2/MSDK/wpa_supplicant/src/tls\asn1.c **** }
 2260              		.loc 1 593 1 is_stmt 0
 2261 0034 17030000 		tail	__riscv_restore_3
 2261      67000300 
 2262              		.cfi_restore 18
 2263              		.cfi_restore 9
 2264              		.cfi_restore 8
 2265              		.cfi_restore 1
 2266              		.cfi_def_cfa_offset 0
 2267              		.cfi_endproc
 2268              	.LFE105:
 2270              		.section	.text.asn1_put_set,"ax",@progbits
 2271              		.align	1
 2272              		.globl	asn1_put_set
 2274              	asn1_put_set:
 2275              	.LFB106:
 594:C:/Users/stapi/OneDrive/Desktop/GD32VW553/V1_MQTT_OK/GD32VW55X_Wifi_BLE_SDK/GD32VW55x_RELEASE_V1.0.2/MSDK/wpa_supplicant/src/tls\asn1.c **** 
 595:C:/Users/stapi/OneDrive/Desktop/GD32VW553/V1_MQTT_OK/GD32VW55X_Wifi_BLE_SDK/GD32VW55x_RELEASE_V1.0.2/MSDK/wpa_supplicant/src/tls\asn1.c **** 
 596:C:/Users/stapi/OneDrive/Desktop/GD32VW553/V1_MQTT_OK/GD32VW55X_Wifi_BLE_SDK/GD32VW55x_RELEASE_V1.0.2/MSDK/wpa_supplicant/src/tls\asn1.c **** void asn1_put_set(struct wpabuf *buf, const struct wpabuf *payload)
 597:C:/Users/stapi/OneDrive/Desktop/GD32VW553/V1_MQTT_OK/GD32VW55X_Wifi_BLE_SDK/GD32VW55x_RELEASE_V1.0.2/MSDK/wpa_supplicant/src/tls\asn1.c **** {
 2276              		.loc 1 597 1 is_stmt 1
 2277              		.cfi_startproc
 2278              	.LVL228:
 2279 0000 17030000 		call	t0,__riscv_save_3
 2279      E7020300 
 2280              		.cfi_offset 18, -16
 2281              		.cfi_offset 9, -12
 2282              		.cfi_offset 8, -8
 2283              		.cfi_offset 1, -4
 2284              		.cfi_def_cfa_offset 16
 598:C:/Users/stapi/OneDrive/Desktop/GD32VW553/V1_MQTT_OK/GD32VW55X_Wifi_BLE_SDK/GD32VW55x_RELEASE_V1.0.2/MSDK/wpa_supplicant/src/tls\asn1.c **** 	asn1_put_hdr(buf, ASN1_CLASS_UNIVERSAL, 1, ASN1_TAG_SET,
 2285              		.loc 1 598 2
 2286              	.LVL229:
 2287              	.LBB137:
 2288              	.LBB138:
  60:..\..\..\..\wpa_supplicant\src\utils/wpabuf.h **** }
 2289              		.loc 2 60 2
  60:..\..\..\..\wpa_supplicant\src\utils/wpabuf.h **** }
 2290              		.loc 2 60 12 is_stmt 0
 2291 0008 03A94500 		lw	s2,4(a1)
 2292              	.LVL230:
 2293              	.LBE138:
 2294              	.LBE137:
 597:C:/Users/stapi/OneDrive/Desktop/GD32VW553/V1_MQTT_OK/GD32VW55X_Wifi_BLE_SDK/GD32VW55x_RELEASE_V1.0.2/MSDK/wpa_supplicant/src/tls\asn1.c **** 	asn1_put_hdr(buf, ASN1_CLASS_UNIVERSAL, 1, ASN1_TAG_SET,
 2295              		.loc 1 597 1
 2296 000c AE84     		mv	s1,a1
 2297              	.LBB139:
 2298              	.LBB140:
 583:C:/Users/stapi/OneDrive/Desktop/GD32VW553/V1_MQTT_OK/GD32VW55X_Wifi_BLE_SDK/GD32VW55x_RELEASE_V1.0.2/MSDK/wpa_supplicant/src/tls\asn1.c **** 	asn1_put_len(buf, len);
 2299              		.loc 1 583 2
 2300 000e 93051003 		li	a1,49
 2301              	.LVL231:
 2302              	.LBE140:
 2303              	.LBE139:
 597:C:/Users/stapi/OneDrive/Desktop/GD32VW553/V1_MQTT_OK/GD32VW55X_Wifi_BLE_SDK/GD32VW55x_RELEASE_V1.0.2/MSDK/wpa_supplicant/src/tls\asn1.c **** 	asn1_put_hdr(buf, ASN1_CLASS_UNIVERSAL, 1, ASN1_TAG_SET,
 2304              		.loc 1 597 1
 2305 0012 2A84     		mv	s0,a0
 2306              	.LVL232:
 2307              	.LBB142:
 2308              	.LBB141:
 583:C:/Users/stapi/OneDrive/Desktop/GD32VW553/V1_MQTT_OK/GD32VW55X_Wifi_BLE_SDK/GD32VW55x_RELEASE_V1.0.2/MSDK/wpa_supplicant/src/tls\asn1.c **** 	asn1_put_len(buf, len);
 2309              		.loc 1 583 2 is_stmt 1
 2310 0014 97000000 		call	wpabuf_put_u8
 2310      E7800000 
 2311              	.LVL233:
 584:C:/Users/stapi/OneDrive/Desktop/GD32VW553/V1_MQTT_OK/GD32VW55X_Wifi_BLE_SDK/GD32VW55x_RELEASE_V1.0.2/MSDK/wpa_supplicant/src/tls\asn1.c **** }
 2312              		.loc 1 584 2
 2313 001c CA85     		mv	a1,s2
 2314 001e 2285     		mv	a0,s0
 2315 0020 97000000 		call	asn1_put_len
 2315      E7800000 
 2316              	.LVL234:
 2317              	.LBE141:
 2318              	.LBE142:
 599:C:/Users/stapi/OneDrive/Desktop/GD32VW553/V1_MQTT_OK/GD32VW55X_Wifi_BLE_SDK/GD32VW55x_RELEASE_V1.0.2/MSDK/wpa_supplicant/src/tls\asn1.c **** 		     wpabuf_len(payload));
 600:C:/Users/stapi/OneDrive/Desktop/GD32VW553/V1_MQTT_OK/GD32VW55X_Wifi_BLE_SDK/GD32VW55x_RELEASE_V1.0.2/MSDK/wpa_supplicant/src/tls\asn1.c **** 	wpabuf_put_buf(buf, payload);
 2319              		.loc 1 600 2
 2320 0028 A685     		mv	a1,s1
 2321 002a 2285     		mv	a0,s0
 2322 002c 97000000 		call	wpabuf_put_buf
 2322      E7800000 
 2323              	.LVL235:
 601:C:/Users/stapi/OneDrive/Desktop/GD32VW553/V1_MQTT_OK/GD32VW55X_Wifi_BLE_SDK/GD32VW55x_RELEASE_V1.0.2/MSDK/wpa_supplicant/src/tls\asn1.c **** }
 2324              		.loc 1 601 1 is_stmt 0
 2325 0034 17030000 		tail	__riscv_restore_3
 2325      67000300 
 2326              		.cfi_restore 18
 2327              		.cfi_restore 9
 2328              		.cfi_restore 8
 2329              		.cfi_restore 1
 2330              		.cfi_def_cfa_offset 0
 2331              		.cfi_endproc
 2332              	.LFE106:
 2334              		.section	.text.asn1_put_utf8string,"ax",@progbits
 2335              		.align	1
 2336              		.globl	asn1_put_utf8string
 2338              	asn1_put_utf8string:
 2339              	.LFB107:
 602:C:/Users/stapi/OneDrive/Desktop/GD32VW553/V1_MQTT_OK/GD32VW55X_Wifi_BLE_SDK/GD32VW55x_RELEASE_V1.0.2/MSDK/wpa_supplicant/src/tls\asn1.c **** 
 603:C:/Users/stapi/OneDrive/Desktop/GD32VW553/V1_MQTT_OK/GD32VW55X_Wifi_BLE_SDK/GD32VW55x_RELEASE_V1.0.2/MSDK/wpa_supplicant/src/tls\asn1.c **** 
 604:C:/Users/stapi/OneDrive/Desktop/GD32VW553/V1_MQTT_OK/GD32VW55X_Wifi_BLE_SDK/GD32VW55x_RELEASE_V1.0.2/MSDK/wpa_supplicant/src/tls\asn1.c **** void asn1_put_utf8string(struct wpabuf *buf, const char *val)
 605:C:/Users/stapi/OneDrive/Desktop/GD32VW553/V1_MQTT_OK/GD32VW55X_Wifi_BLE_SDK/GD32VW55x_RELEASE_V1.0.2/MSDK/wpa_supplicant/src/tls\asn1.c **** {
 2340              		.loc 1 605 1 is_stmt 1
 2341              		.cfi_startproc
 2342              	.LVL236:
 2343 0000 17030000 		call	t0,__riscv_save_3
 2343      E7020300 
 2344              		.cfi_offset 18, -16
 2345              		.cfi_offset 9, -12
 2346              		.cfi_offset 8, -8
 2347              		.cfi_offset 1, -4
 2348              		.cfi_def_cfa_offset 16
 606:C:/Users/stapi/OneDrive/Desktop/GD32VW553/V1_MQTT_OK/GD32VW55X_Wifi_BLE_SDK/GD32VW55x_RELEASE_V1.0.2/MSDK/wpa_supplicant/src/tls\asn1.c **** 	asn1_put_hdr(buf, ASN1_CLASS_UNIVERSAL, 0, ASN1_TAG_UTF8STRING,
 2349              		.loc 1 606 2
 605:C:/Users/stapi/OneDrive/Desktop/GD32VW553/V1_MQTT_OK/GD32VW55X_Wifi_BLE_SDK/GD32VW55x_RELEASE_V1.0.2/MSDK/wpa_supplicant/src/tls\asn1.c **** 	asn1_put_hdr(buf, ASN1_CLASS_UNIVERSAL, 0, ASN1_TAG_UTF8STRING,
 2350              		.loc 1 605 1 is_stmt 0
 2351 0008 2A84     		mv	s0,a0
 2352              		.loc 1 606 2
 2353 000a 2E85     		mv	a0,a1
 2354              	.LVL237:
 605:C:/Users/stapi/OneDrive/Desktop/GD32VW553/V1_MQTT_OK/GD32VW55X_Wifi_BLE_SDK/GD32VW55x_RELEASE_V1.0.2/MSDK/wpa_supplicant/src/tls\asn1.c **** 	asn1_put_hdr(buf, ASN1_CLASS_UNIVERSAL, 0, ASN1_TAG_UTF8STRING,
 2355              		.loc 1 605 1
 2356 000c AE84     		mv	s1,a1
 2357              		.loc 1 606 2
 2358 000e 97000000 		call	os_strlen
 2358      E7800000 
 2359              	.LVL238:
 2360 0016 2A89     		mv	s2,a0
 2361              	.LVL239:
 2362              	.LBB147:
 2363              	.LBB148:
 583:C:/Users/stapi/OneDrive/Desktop/GD32VW553/V1_MQTT_OK/GD32VW55X_Wifi_BLE_SDK/GD32VW55x_RELEASE_V1.0.2/MSDK/wpa_supplicant/src/tls\asn1.c **** 	asn1_put_len(buf, len);
 2364              		.loc 1 583 2 is_stmt 1
 2365 0018 B145     		li	a1,12
 2366 001a 2285     		mv	a0,s0
 2367              	.LVL240:
 2368 001c 97000000 		call	wpabuf_put_u8
 2368      E7800000 
 2369              	.LVL241:
 584:C:/Users/stapi/OneDrive/Desktop/GD32VW553/V1_MQTT_OK/GD32VW55X_Wifi_BLE_SDK/GD32VW55x_RELEASE_V1.0.2/MSDK/wpa_supplicant/src/tls\asn1.c **** }
 2370              		.loc 1 584 2
 2371 0024 CA85     		mv	a1,s2
 2372 0026 2285     		mv	a0,s0
 2373 0028 97000000 		call	asn1_put_len
 2373      E7800000 
 2374              	.LVL242:
 2375              	.LBE148:
 2376              	.LBE147:
 607:C:/Users/stapi/OneDrive/Desktop/GD32VW553/V1_MQTT_OK/GD32VW55X_Wifi_BLE_SDK/GD32VW55x_RELEASE_V1.0.2/MSDK/wpa_supplicant/src/tls\asn1.c **** 		     os_strlen(val));
 608:C:/Users/stapi/OneDrive/Desktop/GD32VW553/V1_MQTT_OK/GD32VW55X_Wifi_BLE_SDK/GD32VW55x_RELEASE_V1.0.2/MSDK/wpa_supplicant/src/tls\asn1.c **** 	wpabuf_put_str(buf, val);
 2377              		.loc 1 608 2
 2378              	.LBB149:
 2379              	.LBB150:
 177:..\..\..\..\wpa_supplicant\src\utils/wpabuf.h **** }
 178:..\..\..\..\wpa_supplicant\src\utils/wpabuf.h **** 
 179:..\..\..\..\wpa_supplicant\src\utils/wpabuf.h **** static inline void wpabuf_set(struct wpabuf *buf, const void *data, size_t len)
 180:..\..\..\..\wpa_supplicant\src\utils/wpabuf.h **** {
 181:..\..\..\..\wpa_supplicant\src\utils/wpabuf.h **** 	buf->buf = (u8 *) data;
 182:..\..\..\..\wpa_supplicant\src\utils/wpabuf.h **** 	buf->flags = WPABUF_FLAG_EXT_DATA;
 183:..\..\..\..\wpa_supplicant\src\utils/wpabuf.h **** 	buf->size = buf->used = len;
 184:..\..\..\..\wpa_supplicant\src\utils/wpabuf.h **** }
 185:..\..\..\..\wpa_supplicant\src\utils/wpabuf.h **** 
 186:..\..\..\..\wpa_supplicant\src\utils/wpabuf.h **** static inline void wpabuf_put_str(struct wpabuf *dst, const char *str)
 187:..\..\..\..\wpa_supplicant\src\utils/wpabuf.h **** {
 188:..\..\..\..\wpa_supplicant\src\utils/wpabuf.h **** 	wpabuf_put_data(dst, str, os_strlen(str));
 2380              		.loc 2 188 2
 2381 0030 2685     		mv	a0,s1
 2382 0032 97000000 		call	os_strlen
 2382      E7800000 
 2383              	.LVL243:
 2384 003a 2A86     		mv	a2,a0
 2385 003c A685     		mv	a1,s1
 2386 003e 2285     		mv	a0,s0
 2387 0040 97000000 		call	wpabuf_put_data
 2387      E7800000 
 2388              	.LVL244:
 2389              	.LBE150:
 2390              	.LBE149:
 609:C:/Users/stapi/OneDrive/Desktop/GD32VW553/V1_MQTT_OK/GD32VW55X_Wifi_BLE_SDK/GD32VW55x_RELEASE_V1.0.2/MSDK/wpa_supplicant/src/tls\asn1.c **** }
 2391              		.loc 1 609 1 is_stmt 0
 2392 0048 17030000 		tail	__riscv_restore_3
 2392      67000300 
 2393              		.cfi_restore 18
 2394              		.cfi_restore 9
 2395              		.cfi_restore 8
 2396              		.cfi_restore 1
 2397              		.cfi_def_cfa_offset 0
 2398              		.cfi_endproc
 2399              	.LFE107:
 2401              		.section	.text.asn1_encaps,"ax",@progbits
 2402              		.align	1
 2403              		.globl	asn1_encaps
 2405              	asn1_encaps:
 2406              	.LFB109:
 610:C:/Users/stapi/OneDrive/Desktop/GD32VW553/V1_MQTT_OK/GD32VW55X_Wifi_BLE_SDK/GD32VW55x_RELEASE_V1.0.2/MSDK/wpa_supplicant/src/tls\asn1.c **** 
 611:C:/Users/stapi/OneDrive/Desktop/GD32VW553/V1_MQTT_OK/GD32VW55X_Wifi_BLE_SDK/GD32VW55x_RELEASE_V1.0.2/MSDK/wpa_supplicant/src/tls\asn1.c **** 
 612:C:/Users/stapi/OneDrive/Desktop/GD32VW553/V1_MQTT_OK/GD32VW55X_Wifi_BLE_SDK/GD32VW55x_RELEASE_V1.0.2/MSDK/wpa_supplicant/src/tls\asn1.c **** struct wpabuf * asn1_build_alg_id(const struct asn1_oid *oid,
 613:C:/Users/stapi/OneDrive/Desktop/GD32VW553/V1_MQTT_OK/GD32VW55X_Wifi_BLE_SDK/GD32VW55x_RELEASE_V1.0.2/MSDK/wpa_supplicant/src/tls\asn1.c **** 				  const struct wpabuf *params)
 614:C:/Users/stapi/OneDrive/Desktop/GD32VW553/V1_MQTT_OK/GD32VW55X_Wifi_BLE_SDK/GD32VW55x_RELEASE_V1.0.2/MSDK/wpa_supplicant/src/tls\asn1.c **** {
 615:C:/Users/stapi/OneDrive/Desktop/GD32VW553/V1_MQTT_OK/GD32VW55X_Wifi_BLE_SDK/GD32VW55x_RELEASE_V1.0.2/MSDK/wpa_supplicant/src/tls\asn1.c **** 	struct wpabuf *buf;
 616:C:/Users/stapi/OneDrive/Desktop/GD32VW553/V1_MQTT_OK/GD32VW55X_Wifi_BLE_SDK/GD32VW55x_RELEASE_V1.0.2/MSDK/wpa_supplicant/src/tls\asn1.c **** 	size_t len;
 617:C:/Users/stapi/OneDrive/Desktop/GD32VW553/V1_MQTT_OK/GD32VW55X_Wifi_BLE_SDK/GD32VW55x_RELEASE_V1.0.2/MSDK/wpa_supplicant/src/tls\asn1.c **** 
 618:C:/Users/stapi/OneDrive/Desktop/GD32VW553/V1_MQTT_OK/GD32VW55X_Wifi_BLE_SDK/GD32VW55x_RELEASE_V1.0.2/MSDK/wpa_supplicant/src/tls\asn1.c **** 	/*
 619:C:/Users/stapi/OneDrive/Desktop/GD32VW553/V1_MQTT_OK/GD32VW55X_Wifi_BLE_SDK/GD32VW55x_RELEASE_V1.0.2/MSDK/wpa_supplicant/src/tls\asn1.c **** 	 * AlgorithmIdentifier ::= SEQUENCE {
 620:C:/Users/stapi/OneDrive/Desktop/GD32VW553/V1_MQTT_OK/GD32VW55X_Wifi_BLE_SDK/GD32VW55x_RELEASE_V1.0.2/MSDK/wpa_supplicant/src/tls\asn1.c **** 	 *    algorithm		OBJECT IDENTIFIER,
 621:C:/Users/stapi/OneDrive/Desktop/GD32VW553/V1_MQTT_OK/GD32VW55X_Wifi_BLE_SDK/GD32VW55x_RELEASE_V1.0.2/MSDK/wpa_supplicant/src/tls\asn1.c **** 	 *    parameters	ANY DEFINED BY algorithm OPTIONAL}
 622:C:/Users/stapi/OneDrive/Desktop/GD32VW553/V1_MQTT_OK/GD32VW55X_Wifi_BLE_SDK/GD32VW55x_RELEASE_V1.0.2/MSDK/wpa_supplicant/src/tls\asn1.c **** 	 */
 623:C:/Users/stapi/OneDrive/Desktop/GD32VW553/V1_MQTT_OK/GD32VW55X_Wifi_BLE_SDK/GD32VW55x_RELEASE_V1.0.2/MSDK/wpa_supplicant/src/tls\asn1.c **** 
 624:C:/Users/stapi/OneDrive/Desktop/GD32VW553/V1_MQTT_OK/GD32VW55X_Wifi_BLE_SDK/GD32VW55x_RELEASE_V1.0.2/MSDK/wpa_supplicant/src/tls\asn1.c **** 	len = 100;
 625:C:/Users/stapi/OneDrive/Desktop/GD32VW553/V1_MQTT_OK/GD32VW55X_Wifi_BLE_SDK/GD32VW55x_RELEASE_V1.0.2/MSDK/wpa_supplicant/src/tls\asn1.c **** 	if (params)
 626:C:/Users/stapi/OneDrive/Desktop/GD32VW553/V1_MQTT_OK/GD32VW55X_Wifi_BLE_SDK/GD32VW55x_RELEASE_V1.0.2/MSDK/wpa_supplicant/src/tls\asn1.c **** 		len += wpabuf_len(params);
 627:C:/Users/stapi/OneDrive/Desktop/GD32VW553/V1_MQTT_OK/GD32VW55X_Wifi_BLE_SDK/GD32VW55x_RELEASE_V1.0.2/MSDK/wpa_supplicant/src/tls\asn1.c **** 	buf = wpabuf_alloc(len);
 628:C:/Users/stapi/OneDrive/Desktop/GD32VW553/V1_MQTT_OK/GD32VW55X_Wifi_BLE_SDK/GD32VW55x_RELEASE_V1.0.2/MSDK/wpa_supplicant/src/tls\asn1.c **** 	if (!buf)
 629:C:/Users/stapi/OneDrive/Desktop/GD32VW553/V1_MQTT_OK/GD32VW55X_Wifi_BLE_SDK/GD32VW55x_RELEASE_V1.0.2/MSDK/wpa_supplicant/src/tls\asn1.c **** 		return NULL;
 630:C:/Users/stapi/OneDrive/Desktop/GD32VW553/V1_MQTT_OK/GD32VW55X_Wifi_BLE_SDK/GD32VW55x_RELEASE_V1.0.2/MSDK/wpa_supplicant/src/tls\asn1.c **** 	asn1_put_oid(buf, oid);
 631:C:/Users/stapi/OneDrive/Desktop/GD32VW553/V1_MQTT_OK/GD32VW55X_Wifi_BLE_SDK/GD32VW55x_RELEASE_V1.0.2/MSDK/wpa_supplicant/src/tls\asn1.c **** 	if (params)
 632:C:/Users/stapi/OneDrive/Desktop/GD32VW553/V1_MQTT_OK/GD32VW55X_Wifi_BLE_SDK/GD32VW55x_RELEASE_V1.0.2/MSDK/wpa_supplicant/src/tls\asn1.c **** 		wpabuf_put_buf(buf, params);
 633:C:/Users/stapi/OneDrive/Desktop/GD32VW553/V1_MQTT_OK/GD32VW55X_Wifi_BLE_SDK/GD32VW55x_RELEASE_V1.0.2/MSDK/wpa_supplicant/src/tls\asn1.c **** 	return asn1_encaps(buf, ASN1_CLASS_UNIVERSAL, ASN1_TAG_SEQUENCE);
 634:C:/Users/stapi/OneDrive/Desktop/GD32VW553/V1_MQTT_OK/GD32VW55X_Wifi_BLE_SDK/GD32VW55x_RELEASE_V1.0.2/MSDK/wpa_supplicant/src/tls\asn1.c **** }
 635:C:/Users/stapi/OneDrive/Desktop/GD32VW553/V1_MQTT_OK/GD32VW55X_Wifi_BLE_SDK/GD32VW55x_RELEASE_V1.0.2/MSDK/wpa_supplicant/src/tls\asn1.c **** 
 636:C:/Users/stapi/OneDrive/Desktop/GD32VW553/V1_MQTT_OK/GD32VW55X_Wifi_BLE_SDK/GD32VW55x_RELEASE_V1.0.2/MSDK/wpa_supplicant/src/tls\asn1.c **** 
 637:C:/Users/stapi/OneDrive/Desktop/GD32VW553/V1_MQTT_OK/GD32VW55X_Wifi_BLE_SDK/GD32VW55x_RELEASE_V1.0.2/MSDK/wpa_supplicant/src/tls\asn1.c **** struct wpabuf * asn1_encaps(struct wpabuf *buf, u8 class, u8 tag)
 638:C:/Users/stapi/OneDrive/Desktop/GD32VW553/V1_MQTT_OK/GD32VW55X_Wifi_BLE_SDK/GD32VW55x_RELEASE_V1.0.2/MSDK/wpa_supplicant/src/tls\asn1.c **** {
 2407              		.loc 1 638 1 is_stmt 1
 2408              		.cfi_startproc
 2409              	.LVL245:
 2410 0000 17030000 		call	t0,__riscv_save_2
 2410      E7020300 
 2411              		.cfi_offset 9, -12
 2412              		.cfi_offset 8, -8
 2413              		.cfi_offset 1, -4
 2414              		.cfi_def_cfa_offset 16
 639:C:/Users/stapi/OneDrive/Desktop/GD32VW553/V1_MQTT_OK/GD32VW55X_Wifi_BLE_SDK/GD32VW55x_RELEASE_V1.0.2/MSDK/wpa_supplicant/src/tls\asn1.c **** 	struct wpabuf *res;
 2415              		.loc 1 639 2
 640:C:/Users/stapi/OneDrive/Desktop/GD32VW553/V1_MQTT_OK/GD32VW55X_Wifi_BLE_SDK/GD32VW55x_RELEASE_V1.0.2/MSDK/wpa_supplicant/src/tls\asn1.c **** 
 641:C:/Users/stapi/OneDrive/Desktop/GD32VW553/V1_MQTT_OK/GD32VW55X_Wifi_BLE_SDK/GD32VW55x_RELEASE_V1.0.2/MSDK/wpa_supplicant/src/tls\asn1.c **** 	if (!buf)
 2416              		.loc 1 641 2
 638:C:/Users/stapi/OneDrive/Desktop/GD32VW553/V1_MQTT_OK/GD32VW55X_Wifi_BLE_SDK/GD32VW55x_RELEASE_V1.0.2/MSDK/wpa_supplicant/src/tls\asn1.c **** 	struct wpabuf *res;
 2417              		.loc 1 638 1 is_stmt 0
 2418 0008 4111     		addi	sp,sp,-16
 2419              		.cfi_def_cfa_offset 32
 638:C:/Users/stapi/OneDrive/Desktop/GD32VW553/V1_MQTT_OK/GD32VW55X_Wifi_BLE_SDK/GD32VW55x_RELEASE_V1.0.2/MSDK/wpa_supplicant/src/tls\asn1.c **** 	struct wpabuf *res;
 2420              		.loc 1 638 1
 2421 000a 2EC6     		sw	a1,12(sp)
 2422 000c 32C4     		sw	a2,8(sp)
 2423 000e 2A84     		mv	s0,a0
 2424              		.loc 1 641 5
 2425 0010 0DCD     		beq	a0,zero,.L177
 642:C:/Users/stapi/OneDrive/Desktop/GD32VW553/V1_MQTT_OK/GD32VW55X_Wifi_BLE_SDK/GD32VW55x_RELEASE_V1.0.2/MSDK/wpa_supplicant/src/tls\asn1.c **** 		return NULL;
 643:C:/Users/stapi/OneDrive/Desktop/GD32VW553/V1_MQTT_OK/GD32VW55X_Wifi_BLE_SDK/GD32VW55x_RELEASE_V1.0.2/MSDK/wpa_supplicant/src/tls\asn1.c **** 	res = wpabuf_alloc(10 + wpabuf_len(buf));
 2426              		.loc 1 643 2 is_stmt 1
 2427              	.LVL246:
 2428              	.LBB151:
 2429              	.LBB152:
  60:..\..\..\..\wpa_supplicant\src\utils/wpabuf.h **** }
 2430              		.loc 2 60 2
 2431              	.LBE152:
 2432              	.LBE151:
 2433              		.loc 1 643 8 is_stmt 0
 2434 0012 4841     		lw	a0,4(a0)
 2435              	.LVL247:
 2436 0014 2905     		addi	a0,a0,10
 2437 0016 97000000 		call	wpabuf_alloc
 2437      E7800000 
 2438              	.LVL248:
 2439 001e AA84     		mv	s1,a0
 2440              	.LVL249:
 644:C:/Users/stapi/OneDrive/Desktop/GD32VW553/V1_MQTT_OK/GD32VW55X_Wifi_BLE_SDK/GD32VW55x_RELEASE_V1.0.2/MSDK/wpa_supplicant/src/tls\asn1.c **** 	if (res) {
 2441              		.loc 1 644 2 is_stmt 1
 2442              		.loc 1 644 5 is_stmt 0
 2443 0020 19CD     		beq	a0,zero,.L178
 645:C:/Users/stapi/OneDrive/Desktop/GD32VW553/V1_MQTT_OK/GD32VW55X_Wifi_BLE_SDK/GD32VW55x_RELEASE_V1.0.2/MSDK/wpa_supplicant/src/tls\asn1.c **** 		asn1_put_hdr(res, class, 1, tag, wpabuf_len(buf));
 2444              		.loc 1 645 3 is_stmt 1
 2445              	.LVL250:
 2446              	.LBB153:
 2447              	.LBB154:
  60:..\..\..\..\wpa_supplicant\src\utils/wpabuf.h **** }
 2448              		.loc 2 60 2
 2449              	.LBE154:
 2450              	.LBE153:
 2451              		.loc 1 645 3 is_stmt 0
 2452 0022 B245     		lw	a1,12(sp)
 2453 0024 5840     		lw	a4,4(s0)
 2454 0026 A246     		lw	a3,8(sp)
 2455 0028 0546     		li	a2,1
 2456 002a 97000000 		call	asn1_put_hdr
 2456      E7800000 
 2457              	.LVL251:
 646:C:/Users/stapi/OneDrive/Desktop/GD32VW553/V1_MQTT_OK/GD32VW55X_Wifi_BLE_SDK/GD32VW55x_RELEASE_V1.0.2/MSDK/wpa_supplicant/src/tls\asn1.c **** 		wpabuf_put_buf(res, buf);
 2458              		.loc 1 646 3 is_stmt 1
 2459 0032 A285     		mv	a1,s0
 2460 0034 2685     		mv	a0,s1
 2461 0036 97000000 		call	wpabuf_put_buf
 2461      E7800000 
 2462              	.LVL252:
 2463              	.L178:
 647:C:/Users/stapi/OneDrive/Desktop/GD32VW553/V1_MQTT_OK/GD32VW55X_Wifi_BLE_SDK/GD32VW55x_RELEASE_V1.0.2/MSDK/wpa_supplicant/src/tls\asn1.c **** 	}
 648:C:/Users/stapi/OneDrive/Desktop/GD32VW553/V1_MQTT_OK/GD32VW55X_Wifi_BLE_SDK/GD32VW55x_RELEASE_V1.0.2/MSDK/wpa_supplicant/src/tls\asn1.c **** 	wpabuf_clear_free(buf);
 2464              		.loc 1 648 2
 2465 003e 2285     		mv	a0,s0
 2466 0040 97000000 		call	wpabuf_clear_free
 2466      E7800000 
 2467              	.LVL253:
 649:C:/Users/stapi/OneDrive/Desktop/GD32VW553/V1_MQTT_OK/GD32VW55X_Wifi_BLE_SDK/GD32VW55x_RELEASE_V1.0.2/MSDK/wpa_supplicant/src/tls\asn1.c **** 	return res;
 2468              		.loc 1 649 2
 643:C:/Users/stapi/OneDrive/Desktop/GD32VW553/V1_MQTT_OK/GD32VW55X_Wifi_BLE_SDK/GD32VW55x_RELEASE_V1.0.2/MSDK/wpa_supplicant/src/tls\asn1.c **** 	if (res) {
 2469              		.loc 1 643 8 is_stmt 0
 2470 0048 2684     		mv	s0,s1
 2471              	.LVL254:
 2472              	.L177:
 650:C:/Users/stapi/OneDrive/Desktop/GD32VW553/V1_MQTT_OK/GD32VW55X_Wifi_BLE_SDK/GD32VW55x_RELEASE_V1.0.2/MSDK/wpa_supplicant/src/tls\asn1.c **** }
 2473              		.loc 1 650 1
 2474 004a 2285     		mv	a0,s0
 2475 004c 4101     		addi	sp,sp,16
 2476              		.cfi_def_cfa_offset 0
 2477 004e 17030000 		tail	__riscv_restore_2
 2477      67000300 
 2478              		.cfi_restore 9
 2479              		.cfi_restore 8
 2480              		.cfi_restore 1
 2481              		.cfi_def_cfa_offset -16
 2482              		.cfi_endproc
 2483              	.LFE109:
 2485              		.section	.text.asn1_build_alg_id,"ax",@progbits
 2486              		.align	1
 2487              		.globl	asn1_build_alg_id
 2489              	asn1_build_alg_id:
 2490              	.LFB108:
 614:C:/Users/stapi/OneDrive/Desktop/GD32VW553/V1_MQTT_OK/GD32VW55X_Wifi_BLE_SDK/GD32VW55x_RELEASE_V1.0.2/MSDK/wpa_supplicant/src/tls\asn1.c **** 	struct wpabuf *buf;
 2491              		.loc 1 614 1 is_stmt 1
 2492              		.cfi_startproc
 2493              	.LVL255:
 2494 0000 17030000 		call	t0,__riscv_save_3
 2494      E7020300 
 2495              		.cfi_offset 18, -16
 2496              		.cfi_offset 9, -12
 2497              		.cfi_offset 8, -8
 2498              		.cfi_offset 1, -4
 2499              		.cfi_def_cfa_offset 16
 615:C:/Users/stapi/OneDrive/Desktop/GD32VW553/V1_MQTT_OK/GD32VW55X_Wifi_BLE_SDK/GD32VW55x_RELEASE_V1.0.2/MSDK/wpa_supplicant/src/tls\asn1.c **** 	size_t len;
 2500              		.loc 1 615 2
 616:C:/Users/stapi/OneDrive/Desktop/GD32VW553/V1_MQTT_OK/GD32VW55X_Wifi_BLE_SDK/GD32VW55x_RELEASE_V1.0.2/MSDK/wpa_supplicant/src/tls\asn1.c **** 
 2501              		.loc 1 616 2
 624:C:/Users/stapi/OneDrive/Desktop/GD32VW553/V1_MQTT_OK/GD32VW55X_Wifi_BLE_SDK/GD32VW55x_RELEASE_V1.0.2/MSDK/wpa_supplicant/src/tls\asn1.c **** 	if (params)
 2502              		.loc 1 624 2
 2503              	.LVL256:
 625:C:/Users/stapi/OneDrive/Desktop/GD32VW553/V1_MQTT_OK/GD32VW55X_Wifi_BLE_SDK/GD32VW55x_RELEASE_V1.0.2/MSDK/wpa_supplicant/src/tls\asn1.c **** 		len += wpabuf_len(params);
 2504              		.loc 1 625 2
 614:C:/Users/stapi/OneDrive/Desktop/GD32VW553/V1_MQTT_OK/GD32VW55X_Wifi_BLE_SDK/GD32VW55x_RELEASE_V1.0.2/MSDK/wpa_supplicant/src/tls\asn1.c **** 	struct wpabuf *buf;
 2505              		.loc 1 614 1 is_stmt 0
 2506 0008 2A89     		mv	s2,a0
 2507 000a AE84     		mv	s1,a1
 2508 000c 13054006 		li	a0,100
 2509              	.LVL257:
 625:C:/Users/stapi/OneDrive/Desktop/GD32VW553/V1_MQTT_OK/GD32VW55X_Wifi_BLE_SDK/GD32VW55x_RELEASE_V1.0.2/MSDK/wpa_supplicant/src/tls\asn1.c **** 		len += wpabuf_len(params);
 2510              		.loc 1 625 5
 2511 0010 81C5     		beq	a1,zero,.L187
 626:C:/Users/stapi/OneDrive/Desktop/GD32VW553/V1_MQTT_OK/GD32VW55X_Wifi_BLE_SDK/GD32VW55x_RELEASE_V1.0.2/MSDK/wpa_supplicant/src/tls\asn1.c **** 	buf = wpabuf_alloc(len);
 2512              		.loc 1 626 3 is_stmt 1
 2513              	.LVL258:
 2514              	.LBB155:
 2515              	.LBB156:
  60:..\..\..\..\wpa_supplicant\src\utils/wpabuf.h **** }
 2516              		.loc 2 60 2
 2517              	.LBE156:
 2518              	.LBE155:
 626:C:/Users/stapi/OneDrive/Desktop/GD32VW553/V1_MQTT_OK/GD32VW55X_Wifi_BLE_SDK/GD32VW55x_RELEASE_V1.0.2/MSDK/wpa_supplicant/src/tls\asn1.c **** 	buf = wpabuf_alloc(len);
 2519              		.loc 1 626 7 is_stmt 0
 2520 0012 DC41     		lw	a5,4(a1)
 2521 0014 13854706 		addi	a0,a5,100
 2522              	.LVL259:
 2523              	.L187:
 627:C:/Users/stapi/OneDrive/Desktop/GD32VW553/V1_MQTT_OK/GD32VW55X_Wifi_BLE_SDK/GD32VW55x_RELEASE_V1.0.2/MSDK/wpa_supplicant/src/tls\asn1.c **** 	if (!buf)
 2524              		.loc 1 627 2 is_stmt 1
 627:C:/Users/stapi/OneDrive/Desktop/GD32VW553/V1_MQTT_OK/GD32VW55X_Wifi_BLE_SDK/GD32VW55x_RELEASE_V1.0.2/MSDK/wpa_supplicant/src/tls\asn1.c **** 	if (!buf)
 2525              		.loc 1 627 8 is_stmt 0
 2526 0018 97000000 		call	wpabuf_alloc
 2526      E7800000 
 2527              	.LVL260:
 2528 0020 2A84     		mv	s0,a0
 2529              	.LVL261:
 628:C:/Users/stapi/OneDrive/Desktop/GD32VW553/V1_MQTT_OK/GD32VW55X_Wifi_BLE_SDK/GD32VW55x_RELEASE_V1.0.2/MSDK/wpa_supplicant/src/tls\asn1.c **** 		return NULL;
 2530              		.loc 1 628 2 is_stmt 1
 628:C:/Users/stapi/OneDrive/Desktop/GD32VW553/V1_MQTT_OK/GD32VW55X_Wifi_BLE_SDK/GD32VW55x_RELEASE_V1.0.2/MSDK/wpa_supplicant/src/tls\asn1.c **** 		return NULL;
 2531              		.loc 1 628 5 is_stmt 0
 2532 0022 0DC5     		beq	a0,zero,.L186
 630:C:/Users/stapi/OneDrive/Desktop/GD32VW553/V1_MQTT_OK/GD32VW55X_Wifi_BLE_SDK/GD32VW55x_RELEASE_V1.0.2/MSDK/wpa_supplicant/src/tls\asn1.c **** 	if (params)
 2533              		.loc 1 630 2 is_stmt 1
 2534 0024 CA85     		mv	a1,s2
 2535 0026 97000000 		call	asn1_put_oid
 2535      E7800000 
 2536              	.LVL262:
 631:C:/Users/stapi/OneDrive/Desktop/GD32VW553/V1_MQTT_OK/GD32VW55X_Wifi_BLE_SDK/GD32VW55x_RELEASE_V1.0.2/MSDK/wpa_supplicant/src/tls\asn1.c **** 		wpabuf_put_buf(buf, params);
 2537              		.loc 1 631 2
 631:C:/Users/stapi/OneDrive/Desktop/GD32VW553/V1_MQTT_OK/GD32VW55X_Wifi_BLE_SDK/GD32VW55x_RELEASE_V1.0.2/MSDK/wpa_supplicant/src/tls\asn1.c **** 		wpabuf_put_buf(buf, params);
 2538              		.loc 1 631 5 is_stmt 0
 2539 002e 99C4     		beq	s1,zero,.L189
 632:C:/Users/stapi/OneDrive/Desktop/GD32VW553/V1_MQTT_OK/GD32VW55X_Wifi_BLE_SDK/GD32VW55x_RELEASE_V1.0.2/MSDK/wpa_supplicant/src/tls\asn1.c **** 	return asn1_encaps(buf, ASN1_CLASS_UNIVERSAL, ASN1_TAG_SEQUENCE);
 2540              		.loc 1 632 3 is_stmt 1
 2541 0030 A685     		mv	a1,s1
 2542 0032 2285     		mv	a0,s0
 2543 0034 97000000 		call	wpabuf_put_buf
 2543      E7800000 
 2544              	.LVL263:
 2545              	.L189:
 633:C:/Users/stapi/OneDrive/Desktop/GD32VW553/V1_MQTT_OK/GD32VW55X_Wifi_BLE_SDK/GD32VW55x_RELEASE_V1.0.2/MSDK/wpa_supplicant/src/tls\asn1.c **** }
 2546              		.loc 1 633 2
 633:C:/Users/stapi/OneDrive/Desktop/GD32VW553/V1_MQTT_OK/GD32VW55X_Wifi_BLE_SDK/GD32VW55x_RELEASE_V1.0.2/MSDK/wpa_supplicant/src/tls\asn1.c **** }
 2547              		.loc 1 633 9 is_stmt 0
 2548 003c 2285     		mv	a0,s0
 2549 003e 4146     		li	a2,16
 2550 0040 8145     		li	a1,0
 2551 0042 97000000 		call	asn1_encaps
 2551      E7800000 
 2552              	.LVL264:
 2553 004a 2A84     		mv	s0,a0
 2554              	.LVL265:
 2555              	.L186:
 634:C:/Users/stapi/OneDrive/Desktop/GD32VW553/V1_MQTT_OK/GD32VW55X_Wifi_BLE_SDK/GD32VW55x_RELEASE_V1.0.2/MSDK/wpa_supplicant/src/tls\asn1.c **** 
 2556              		.loc 1 634 1
 2557 004c 2285     		mv	a0,s0
 2558 004e 17030000 		tail	__riscv_restore_3
 2558      67000300 
 2559              		.cfi_restore 18
 2560              		.cfi_restore 9
 2561              		.cfi_restore 8
 2562              		.cfi_restore 1
 2563              		.cfi_def_cfa_offset 0
 2564              		.cfi_endproc
 2565              	.LFE108:
 2567              		.globl	asn1_dpp_asymmetric_key_package_oid
 2568              		.globl	asn1_dpp_config_params_oid
 2569              		.globl	asn1_pbkdf2_hmac_sha512_oid
 2570              		.globl	asn1_pbkdf2_hmac_sha384_oid
 2571              		.globl	asn1_pbkdf2_hmac_sha256_oid
 2572              		.globl	asn1_pbkdf2_oid
 2573              		.globl	asn1_aes_siv_cmac_aead_512_oid
 2574              		.globl	asn1_aes_siv_cmac_aead_384_oid
 2575              		.globl	asn1_aes_siv_cmac_aead_256_oid
 2576              		.globl	asn1_brainpoolP512r1_oid
 2577              		.globl	asn1_brainpoolP384r1_oid
 2578              		.globl	asn1_brainpoolP256r1_oid
 2579              		.globl	asn1_secp521r1_oid
 2580              		.globl	asn1_secp384r1_oid
 2581              		.globl	asn1_prime256v1_oid
 2582              		.globl	asn1_ec_public_key_oid
 2583              		.globl	asn1_sha256_oid
 2584              		.globl	asn1_sha1_oid
 2585              		.section	.rodata.__func__.0,"a"
 2586              		.align	2
 2587              		.set	.LANCHOR0,. + 0
 2590              	__func__.0:
 2591 0000 61736E31 		.string	"asn1_bit_string_to_long"
 2591      5F626974 
 2591      5F737472 
 2591      696E675F 
 2591      746F5F6C 
 2592              		.section	.rodata.asn1_aes_siv_cmac_aead_256_oid,"a"
 2593              		.align	2
 2596              	asn1_aes_siv_cmac_aead_256_oid:
 2597 0000 01000000 		.word	1
 2598 0004 02000000 		.word	2
 2599 0008 48030000 		.word	840
 2600 000c 8DBB0100 		.word	113549
 2601 0010 01000000 		.word	1
 2602 0014 09000000 		.word	9
 2603 0018 10000000 		.word	16
 2604 001c 03000000 		.word	3
 2605 0020 16000000 		.word	22
 2606 0024 00000000 		.zero	44
 2606      00000000 
 2606      00000000 
 2606      00000000 
 2606      00000000 
 2607 0050 09000000 		.word	9
 2608              		.section	.rodata.asn1_aes_siv_cmac_aead_384_oid,"a"
 2609              		.align	2
 2612              	asn1_aes_siv_cmac_aead_384_oid:
 2613 0000 01000000 		.word	1
 2614 0004 02000000 		.word	2
 2615 0008 48030000 		.word	840
 2616 000c 8DBB0100 		.word	113549
 2617 0010 01000000 		.word	1
 2618 0014 09000000 		.word	9
 2619 0018 10000000 		.word	16
 2620 001c 03000000 		.word	3
 2621 0020 17000000 		.word	23
 2622 0024 00000000 		.zero	44
 2622      00000000 
 2622      00000000 
 2622      00000000 
 2622      00000000 
 2623 0050 09000000 		.word	9
 2624              		.section	.rodata.asn1_aes_siv_cmac_aead_512_oid,"a"
 2625              		.align	2
 2628              	asn1_aes_siv_cmac_aead_512_oid:
 2629 0000 01000000 		.word	1
 2630 0004 02000000 		.word	2
 2631 0008 48030000 		.word	840
 2632 000c 8DBB0100 		.word	113549
 2633 0010 01000000 		.word	1
 2634 0014 09000000 		.word	9
 2635 0018 10000000 		.word	16
 2636 001c 03000000 		.word	3
 2637 0020 18000000 		.word	24
 2638 0024 00000000 		.zero	44
 2638      00000000 
 2638      00000000 
 2638      00000000 
 2638      00000000 
 2639 0050 09000000 		.word	9
 2640              		.section	.rodata.asn1_brainpoolP256r1_oid,"a"
 2641              		.align	2
 2644              	asn1_brainpoolP256r1_oid:
 2645 0000 01000000 		.word	1
 2646 0004 03000000 		.word	3
 2647 0008 24000000 		.word	36
 2648 000c 03000000 		.word	3
 2649 0010 03000000 		.word	3
 2650 0014 02000000 		.word	2
 2651 0018 08000000 		.word	8
 2652 001c 01000000 		.word	1
 2653 0020 01000000 		.word	1
 2654 0024 07000000 		.word	7
 2655 0028 00000000 		.zero	40
 2655      00000000 
 2655      00000000 
 2655      00000000 
 2655      00000000 
 2656 0050 0A000000 		.word	10
 2657              		.section	.rodata.asn1_brainpoolP384r1_oid,"a"
 2658              		.align	2
 2661              	asn1_brainpoolP384r1_oid:
 2662 0000 01000000 		.word	1
 2663 0004 03000000 		.word	3
 2664 0008 24000000 		.word	36
 2665 000c 03000000 		.word	3
 2666 0010 03000000 		.word	3
 2667 0014 02000000 		.word	2
 2668 0018 08000000 		.word	8
 2669 001c 01000000 		.word	1
 2670 0020 01000000 		.word	1
 2671 0024 0B000000 		.word	11
 2672 0028 00000000 		.zero	40
 2672      00000000 
 2672      00000000 
 2672      00000000 
 2672      00000000 
 2673 0050 0A000000 		.word	10
 2674              		.section	.rodata.asn1_brainpoolP512r1_oid,"a"
 2675              		.align	2
 2678              	asn1_brainpoolP512r1_oid:
 2679 0000 01000000 		.word	1
 2680 0004 03000000 		.word	3
 2681 0008 24000000 		.word	36
 2682 000c 03000000 		.word	3
 2683 0010 03000000 		.word	3
 2684 0014 02000000 		.word	2
 2685 0018 08000000 		.word	8
 2686 001c 01000000 		.word	1
 2687 0020 01000000 		.word	1
 2688 0024 0D000000 		.word	13
 2689 0028 00000000 		.zero	40
 2689      00000000 
 2689      00000000 
 2689      00000000 
 2689      00000000 
 2690 0050 0A000000 		.word	10
 2691              		.section	.rodata.asn1_dpp_asymmetric_key_package_oid,"a"
 2692              		.align	2
 2695              	asn1_dpp_asymmetric_key_package_oid:
 2696 0000 01000000 		.word	1
 2697 0004 03000000 		.word	3
 2698 0008 06000000 		.word	6
 2699 000c 01000000 		.word	1
 2700 0010 04000000 		.word	4
 2701 0014 01000000 		.word	1
 2702 0018 689F0000 		.word	40808
 2703 001c 01000000 		.word	1
 2704 0020 02000000 		.word	2
 2705 0024 02000000 		.word	2
 2706 0028 00000000 		.zero	40
 2706      00000000 
 2706      00000000 
 2706      00000000 
 2706      00000000 
 2707 0050 0A000000 		.word	10
 2708              		.section	.rodata.asn1_dpp_config_params_oid,"a"
 2709              		.align	2
 2712              	asn1_dpp_config_params_oid:
 2713 0000 01000000 		.word	1
 2714 0004 03000000 		.word	3
 2715 0008 06000000 		.word	6
 2716 000c 01000000 		.word	1
 2717 0010 04000000 		.word	4
 2718 0014 01000000 		.word	1
 2719 0018 689F0000 		.word	40808
 2720 001c 01000000 		.word	1
 2721 0020 02000000 		.word	2
 2722 0024 01000000 		.word	1
 2723 0028 00000000 		.zero	40
 2723      00000000 
 2723      00000000 
 2723      00000000 
 2723      00000000 
 2724 0050 0A000000 		.word	10
 2725              		.section	.rodata.asn1_ec_public_key_oid,"a"
 2726              		.align	2
 2729              	asn1_ec_public_key_oid:
 2730 0000 01000000 		.word	1
 2731 0004 02000000 		.word	2
 2732 0008 48030000 		.word	840
 2733 000c 3D270000 		.word	10045
 2734 0010 02000000 		.word	2
 2735 0014 01000000 		.word	1
 2736 0018 00000000 		.zero	56
 2736      00000000 
 2736      00000000 
 2736      00000000 
 2736      00000000 
 2737 0050 06000000 		.word	6
 2738              		.section	.rodata.asn1_pbkdf2_hmac_sha256_oid,"a"
 2739              		.align	2
 2742              	asn1_pbkdf2_hmac_sha256_oid:
 2743 0000 01000000 		.word	1
 2744 0004 02000000 		.word	2
 2745 0008 48030000 		.word	840
 2746 000c 8DBB0100 		.word	113549
 2747 0010 02000000 		.word	2
 2748 0014 09000000 		.word	9
 2749 0018 00000000 		.zero	56
 2749      00000000 
 2749      00000000 
 2749      00000000 
 2749      00000000 
 2750 0050 06000000 		.word	6
 2751              		.section	.rodata.asn1_pbkdf2_hmac_sha384_oid,"a"
 2752              		.align	2
 2755              	asn1_pbkdf2_hmac_sha384_oid:
 2756 0000 01000000 		.word	1
 2757 0004 02000000 		.word	2
 2758 0008 48030000 		.word	840
 2759 000c 8DBB0100 		.word	113549
 2760 0010 02000000 		.word	2
 2761 0014 0A000000 		.word	10
 2762 0018 00000000 		.zero	56
 2762      00000000 
 2762      00000000 
 2762      00000000 
 2762      00000000 
 2763 0050 06000000 		.word	6
 2764              		.section	.rodata.asn1_pbkdf2_hmac_sha512_oid,"a"
 2765              		.align	2
 2768              	asn1_pbkdf2_hmac_sha512_oid:
 2769 0000 01000000 		.word	1
 2770 0004 02000000 		.word	2
 2771 0008 48030000 		.word	840
 2772 000c 8DBB0100 		.word	113549
 2773 0010 02000000 		.word	2
 2774 0014 0B000000 		.word	11
 2775 0018 00000000 		.zero	56
 2775      00000000 
 2775      00000000 
 2775      00000000 
 2775      00000000 
 2776 0050 06000000 		.word	6
 2777              		.section	.rodata.asn1_pbkdf2_oid,"a"
 2778              		.align	2
 2781              	asn1_pbkdf2_oid:
 2782 0000 01000000 		.word	1
 2783 0004 02000000 		.word	2
 2784 0008 48030000 		.word	840
 2785 000c 8DBB0100 		.word	113549
 2786 0010 01000000 		.word	1
 2787 0014 05000000 		.word	5
 2788 0018 0C000000 		.word	12
 2789 001c 00000000 		.zero	52
 2789      00000000 
 2789      00000000 
 2789      00000000 
 2789      00000000 
 2790 0050 07000000 		.word	7
 2791              		.section	.rodata.asn1_prime256v1_oid,"a"
 2792              		.align	2
 2795              	asn1_prime256v1_oid:
 2796 0000 01000000 		.word	1
 2797 0004 02000000 		.word	2
 2798 0008 48030000 		.word	840
 2799 000c 3D270000 		.word	10045
 2800 0010 03000000 		.word	3
 2801 0014 01000000 		.word	1
 2802 0018 07000000 		.word	7
 2803 001c 00000000 		.zero	52
 2803      00000000 
 2803      00000000 
 2803      00000000 
 2803      00000000 
 2804 0050 07000000 		.word	7
 2805              		.section	.rodata.asn1_secp384r1_oid,"a"
 2806              		.align	2
 2809              	asn1_secp384r1_oid:
 2810 0000 01000000 		.word	1
 2811 0004 03000000 		.word	3
 2812 0008 84000000 		.word	132
 2813 000c 00000000 		.word	0
 2814 0010 22000000 		.word	34
 2815 0014 00000000 		.zero	60
 2815      00000000 
 2815      00000000 
 2815      00000000 
 2815      00000000 
 2816 0050 05000000 		.word	5
 2817              		.section	.rodata.asn1_secp521r1_oid,"a"
 2818              		.align	2
 2821              	asn1_secp521r1_oid:
 2822 0000 01000000 		.word	1
 2823 0004 03000000 		.word	3
 2824 0008 84000000 		.word	132
 2825 000c 00000000 		.word	0
 2826 0010 23000000 		.word	35
 2827 0014 00000000 		.zero	60
 2827      00000000 
 2827      00000000 
 2827      00000000 
 2827      00000000 
 2828 0050 05000000 		.word	5
 2829              		.section	.rodata.asn1_sha1_oid,"a"
 2830              		.align	2
 2833              	asn1_sha1_oid:
 2834 0000 01000000 		.word	1
 2835 0004 03000000 		.word	3
 2836 0008 0E000000 		.word	14
 2837 000c 03000000 		.word	3
 2838 0010 02000000 		.word	2
 2839 0014 1A000000 		.word	26
 2840 0018 00000000 		.zero	56
 2840      00000000 
 2840      00000000 
 2840      00000000 
 2840      00000000 
 2841 0050 06000000 		.word	6
 2842              		.section	.rodata.asn1_sha256_oid,"a"
 2843              		.align	2
 2846              	asn1_sha256_oid:
 2847 0000 02000000 		.word	2
 2848 0004 10000000 		.word	16
 2849 0008 48030000 		.word	840
 2850 000c 01000000 		.word	1
 2851 0010 65000000 		.word	101
 2852 0014 03000000 		.word	3
 2853 0018 04000000 		.word	4
 2854 001c 02000000 		.word	2
 2855 0020 01000000 		.word	1
 2856 0024 00000000 		.zero	44
 2856      00000000 
 2856      00000000 
 2856      00000000 
 2856      00000000 
 2857 0050 09000000 		.word	9
 2858              		.text
 2859              	.Letext0:
 2860              		.file 6 "c:\\users\\stapi\\onedrive\\desktop\\gd32vw553\\embeddedbuilder_v1.4.7.26843\\tools\\nucl
 2861              		.file 7 "c:\\users\\stapi\\onedrive\\desktop\\gd32vw553\\embeddedbuilder_v1.4.7.26843\\tools\\nucl
 2862              		.file 8 "c:\\users\\stapi\\onedrive\\desktop\\gd32vw553\\embeddedbuilder_v1.4.7.26843\\tools\\nucl
 2863              		.file 9 "..\\..\\..\\..\\lwip\\lwip-2.1.2\\src\\include/lwip/memp.h"
 2864              		.file 10 "..\\..\\..\\..\\wpa_supplicant\\src\\utils/wpa_debug.h"
 2865              		.file 11 "..\\..\\..\\..\\lwip\\lwip-2.1.2\\src\\include/lwip/netif.h"
DEFINED SYMBOLS
                            *ABS*:0000000000000000 asn1.c
C:\Users\stapi\AppData\Local\Temp\cchD7lgK.s:12     .text.rotate_bits:0000000000000000 rotate_bits
C:\Users\stapi\AppData\Local\Temp\cchD7lgK.s:16     .text.rotate_bits:0000000000000000 .L0 
C:\Users\stapi\AppData\Local\Temp\cchD7lgK.s:18     .text.rotate_bits:0000000000000000 .L0 
C:\Users\stapi\AppData\Local\Temp\cchD7lgK.s:19     .text.rotate_bits:0000000000000000 .L0 
C:\Users\stapi\AppData\Local\Temp\cchD7lgK.s:20     .text.rotate_bits:0000000000000000 .L0 
C:\Users\stapi\AppData\Local\Temp\cchD7lgK.s:21     .text.rotate_bits:0000000000000000 .L0 
C:\Users\stapi\AppData\Local\Temp\cchD7lgK.s:22     .text.rotate_bits:0000000000000000 .L0 
C:\Users\stapi\AppData\Local\Temp\cchD7lgK.s:23     .text.rotate_bits:0000000000000000 .L0 
C:\Users\stapi\AppData\Local\Temp\cchD7lgK.s:26     .text.rotate_bits:0000000000000002 .L0 
C:\Users\stapi\AppData\Local\Temp\cchD7lgK.s:27     .text.rotate_bits:0000000000000002 .L0 
C:\Users\stapi\AppData\Local\Temp\cchD7lgK.s:29     .text.rotate_bits:0000000000000004 .L0 
C:\Users\stapi\AppData\Local\Temp\cchD7lgK.s:33     .text.rotate_bits:0000000000000006 .L0 
C:\Users\stapi\AppData\Local\Temp\cchD7lgK.s:34     .text.rotate_bits:0000000000000006 .L0 
C:\Users\stapi\AppData\Local\Temp\cchD7lgK.s:37     .text.rotate_bits:0000000000000008 .L0 
C:\Users\stapi\AppData\Local\Temp\cchD7lgK.s:39     .text.rotate_bits:000000000000000c .L0 
C:\Users\stapi\AppData\Local\Temp\cchD7lgK.s:42     .text.rotate_bits:0000000000000010 .L0 
C:\Users\stapi\AppData\Local\Temp\cchD7lgK.s:43     .text.rotate_bits:0000000000000010 .L0 
C:\Users\stapi\AppData\Local\Temp\cchD7lgK.s:45     .text.rotate_bits:0000000000000012 .L0 
C:\Users\stapi\AppData\Local\Temp\cchD7lgK.s:46     .text.rotate_bits:0000000000000012 .L0 
C:\Users\stapi\AppData\Local\Temp\cchD7lgK.s:50     .text.rotate_bits:0000000000000016 .L0 
C:\Users\stapi\AppData\Local\Temp\cchD7lgK.s:51     .text.rotate_bits:0000000000000016 .L0 
C:\Users\stapi\AppData\Local\Temp\cchD7lgK.s:54     .text.rotate_bits:0000000000000018 .L0 
C:\Users\stapi\AppData\Local\Temp\cchD7lgK.s:57     .text.rotate_bits:000000000000001a .L0 
C:\Users\stapi\AppData\Local\Temp\cchD7lgK.s:58     .text.rotate_bits:000000000000001a .L0 
C:\Users\stapi\AppData\Local\Temp\cchD7lgK.s:59     .text.rotate_bits:000000000000001a .L0 
C:\Users\stapi\AppData\Local\Temp\cchD7lgK.s:61     .text.rotate_bits:000000000000001c .L0 
C:\Users\stapi\AppData\Local\Temp\cchD7lgK.s:62     .text.rotate_bits:000000000000001c .L0 
C:\Users\stapi\AppData\Local\Temp\cchD7lgK.s:63     .text.rotate_bits:000000000000001e .L0 
C:\Users\stapi\AppData\Local\Temp\cchD7lgK.s:69     .text.wpabuf_put_u8:0000000000000000 wpabuf_put_u8
C:\Users\stapi\AppData\Local\Temp\cchD7lgK.s:73     .text.wpabuf_put_u8:0000000000000000 .L0 
C:\Users\stapi\AppData\Local\Temp\cchD7lgK.s:75     .text.wpabuf_put_u8:0000000000000000 .L0 
C:\Users\stapi\AppData\Local\Temp\cchD7lgK.s:76     .text.wpabuf_put_u8:0000000000000008 .L0 
C:\Users\stapi\AppData\Local\Temp\cchD7lgK.s:77     .text.wpabuf_put_u8:0000000000000008 .L0 
C:\Users\stapi\AppData\Local\Temp\cchD7lgK.s:78     .text.wpabuf_put_u8:0000000000000008 .L0 
C:\Users\stapi\AppData\Local\Temp\cchD7lgK.s:80     .text.wpabuf_put_u8:0000000000000008 .L0 
C:\Users\stapi\AppData\Local\Temp\cchD7lgK.s:81     .text.wpabuf_put_u8:0000000000000008 .L0 
C:\Users\stapi\AppData\Local\Temp\cchD7lgK.s:83     .text.wpabuf_put_u8:000000000000000a .L0 
C:\Users\stapi\AppData\Local\Temp\cchD7lgK.s:88     .text.wpabuf_put_u8:0000000000000014 .L0 
C:\Users\stapi\AppData\Local\Temp\cchD7lgK.s:89     .text.wpabuf_put_u8:0000000000000014 .L0 
C:\Users\stapi\AppData\Local\Temp\cchD7lgK.s:91     .text.wpabuf_put_u8:0000000000000018 .L0 
C:\Users\stapi\AppData\Local\Temp\cchD7lgK.s:92     .text.wpabuf_put_u8:0000000000000020 .L0 
C:\Users\stapi\AppData\Local\Temp\cchD7lgK.s:93     .text.wpabuf_put_u8:0000000000000020 .L0 
C:\Users\stapi\AppData\Local\Temp\cchD7lgK.s:94     .text.wpabuf_put_u8:0000000000000020 .L0 
C:\Users\stapi\AppData\Local\Temp\cchD7lgK.s:95     .text.wpabuf_put_u8:0000000000000020 .L0 
C:\Users\stapi\AppData\Local\Temp\cchD7lgK.s:101    .text.wpabuf_put_data:0000000000000000 wpabuf_put_data
C:\Users\stapi\AppData\Local\Temp\cchD7lgK.s:104    .text.wpabuf_put_data:0000000000000000 .L0 
C:\Users\stapi\AppData\Local\Temp\cchD7lgK.s:106    .text.wpabuf_put_data:0000000000000000 .L0 
C:\Users\stapi\AppData\Local\Temp\cchD7lgK.s:107    .text.wpabuf_put_data:0000000000000000 .L0 
C:\Users\stapi\AppData\Local\Temp\cchD7lgK.s:108    .text.wpabuf_put_data:0000000000000000 .L0 
C:\Users\stapi\AppData\Local\Temp\cchD7lgK.s:110    .text.wpabuf_put_data:0000000000000002 .L0 
C:\Users\stapi\AppData\Local\Temp\cchD7lgK.s:111    .text.wpabuf_put_data:000000000000000a .L0 
C:\Users\stapi\AppData\Local\Temp\cchD7lgK.s:112    .text.wpabuf_put_data:000000000000000a .L0 
C:\Users\stapi\AppData\Local\Temp\cchD7lgK.s:113    .text.wpabuf_put_data:000000000000000a .L0 
C:\Users\stapi\AppData\Local\Temp\cchD7lgK.s:115    .text.wpabuf_put_data:000000000000000c .L0 
C:\Users\stapi\AppData\Local\Temp\cchD7lgK.s:121    .text.wpabuf_put_data:000000000000000e .L0 
C:\Users\stapi\AppData\Local\Temp\cchD7lgK.s:133    .text.wpabuf_put_data:0000000000000026 .L0 
C:\Users\stapi\AppData\Local\Temp\cchD7lgK.s:134    .text.wpabuf_put_data:0000000000000028 .L0 
C:\Users\stapi\AppData\Local\Temp\cchD7lgK.s:137    .text.wpabuf_put_data:0000000000000030 .L0 
C:\Users\stapi\AppData\Local\Temp\cchD7lgK.s:138    .text.wpabuf_put_data:0000000000000030 .L0 
C:\Users\stapi\AppData\Local\Temp\cchD7lgK.s:139    .text.wpabuf_put_data:0000000000000030 .L0 
C:\Users\stapi\AppData\Local\Temp\cchD7lgK.s:142    .text.wpabuf_put_data:0000000000000030 .L0 
C:\Users\stapi\AppData\Local\Temp\cchD7lgK.s:144    .text.wpabuf_put_data:0000000000000032 .L0 
C:\Users\stapi\AppData\Local\Temp\cchD7lgK.s:150    .text.wpabuf_put_buf:0000000000000000 wpabuf_put_buf
C:\Users\stapi\AppData\Local\Temp\cchD7lgK.s:153    .text.wpabuf_put_buf:0000000000000000 .L0 
C:\Users\stapi\AppData\Local\Temp\cchD7lgK.s:155    .text.wpabuf_put_buf:0000000000000000 .L0 
C:\Users\stapi\AppData\Local\Temp\cchD7lgK.s:158    .text.wpabuf_put_buf:0000000000000000 .L0 
C:\Users\stapi\AppData\Local\Temp\cchD7lgK.s:163    .text.wpabuf_put_buf:0000000000000000 .L0 
C:\Users\stapi\AppData\Local\Temp\cchD7lgK.s:166    .text.wpabuf_put_buf:0000000000000000 .L0 
C:\Users\stapi\AppData\Local\Temp\cchD7lgK.s:167    .text.wpabuf_put_buf:0000000000000000 .L0 
C:\Users\stapi\AppData\Local\Temp\cchD7lgK.s:172    .text.wpabuf_put_buf:000000000000000c .L0 
C:\Users\stapi\AppData\Local\Temp\cchD7lgK.s:178    .text.asn1_put_len:0000000000000000 asn1_put_len
C:\Users\stapi\AppData\Local\Temp\cchD7lgK.s:181    .text.asn1_put_len:0000000000000000 .L0 
C:\Users\stapi\AppData\Local\Temp\cchD7lgK.s:183    .text.asn1_put_len:0000000000000000 .L0 
C:\Users\stapi\AppData\Local\Temp\cchD7lgK.s:184    .text.asn1_put_len:0000000000000008 .L0 
C:\Users\stapi\AppData\Local\Temp\cchD7lgK.s:185    .text.asn1_put_len:0000000000000008 .L0 
C:\Users\stapi\AppData\Local\Temp\cchD7lgK.s:186    .text.asn1_put_len:0000000000000008 .L0 
C:\Users\stapi\AppData\Local\Temp\cchD7lgK.s:187    .text.asn1_put_len:0000000000000008 .L0 
C:\Users\stapi\AppData\Local\Temp\cchD7lgK.s:188    .text.asn1_put_len:0000000000000008 .L0 
C:\Users\stapi\AppData\Local\Temp\cchD7lgK.s:189    .text.asn1_put_len:0000000000000008 .L0 
C:\Users\stapi\AppData\Local\Temp\cchD7lgK.s:190    .text.asn1_put_len:0000000000000008 .L0 
C:\Users\stapi\AppData\Local\Temp\cchD7lgK.s:192    .text.asn1_put_len:0000000000000008 .L0 
C:\Users\stapi\AppData\Local\Temp\cchD7lgK.s:193    .text.asn1_put_len:0000000000000008 .L0 
C:\Users\stapi\AppData\Local\Temp\cchD7lgK.s:195    .text.asn1_put_len:000000000000000c .L0 
C:\Users\stapi\AppData\Local\Temp\cchD7lgK.s:197    .text.asn1_put_len:0000000000000010 .L0 
C:\Users\stapi\AppData\Local\Temp\cchD7lgK.s:199    .text.asn1_put_len:0000000000000014 .L0 
C:\Users\stapi\AppData\Local\Temp\cchD7lgK.s:203    .text.asn1_put_len:0000000000000016 .L0 
C:\Users\stapi\AppData\Local\Temp\cchD7lgK.s:207    .text.asn1_put_len:000000000000001e .L0 
C:\Users\stapi\AppData\Local\Temp\cchD7lgK.s:208    .text.asn1_put_len:0000000000000026 .L0 
C:\Users\stapi\AppData\Local\Temp\cchD7lgK.s:209    .text.asn1_put_len:0000000000000026 .L0 
C:\Users\stapi\AppData\Local\Temp\cchD7lgK.s:210    .text.asn1_put_len:0000000000000026 .L0 
C:\Users\stapi\AppData\Local\Temp\cchD7lgK.s:211    .text.asn1_put_len:0000000000000026 .L0 
C:\Users\stapi\AppData\Local\Temp\cchD7lgK.s:212    .text.asn1_put_len:0000000000000026 .L0 
C:\Users\stapi\AppData\Local\Temp\cchD7lgK.s:213    .text.asn1_put_len:0000000000000026 .L0 
C:\Users\stapi\AppData\Local\Temp\cchD7lgK.s:214    .text.asn1_put_len:0000000000000026 .L0 
C:\Users\stapi\AppData\Local\Temp\cchD7lgK.s:215    .text.asn1_put_len:0000000000000026 .L0 
C:\Users\stapi\AppData\Local\Temp\cchD7lgK.s:218    .text.asn1_put_len:0000000000000026 .L0 
C:\Users\stapi\AppData\Local\Temp\cchD7lgK.s:220    .text.asn1_put_len:0000000000000026 .L0 
C:\Users\stapi\AppData\Local\Temp\cchD7lgK.s:224    .text.asn1_put_len:000000000000002e .L0 
C:\Users\stapi\AppData\Local\Temp\cchD7lgK.s:225    .text.asn1_put_len:000000000000002e .L0 
C:\Users\stapi\AppData\Local\Temp\cchD7lgK.s:228    .text.asn1_put_len:0000000000000032 .L0 
C:\Users\stapi\AppData\Local\Temp\cchD7lgK.s:232    .text.asn1_put_len:000000000000003e .L0 
C:\Users\stapi\AppData\Local\Temp\cchD7lgK.s:240    .text.asn1_put_len:0000000000000044 .L0 
C:\Users\stapi\AppData\Local\Temp\cchD7lgK.s:241    .text.asn1_put_len:0000000000000044 .L0 
C:\Users\stapi\AppData\Local\Temp\cchD7lgK.s:244    .text.asn1_put_len:000000000000004a .L0 
C:\Users\stapi\AppData\Local\Temp\cchD7lgK.s:250    .text.asn1_put_len:0000000000000056 .L0 
C:\Users\stapi\AppData\Local\Temp\cchD7lgK.s:251    .text.asn1_put_len:0000000000000056 .L0 
C:\Users\stapi\AppData\Local\Temp\cchD7lgK.s:252    .text.asn1_put_len:0000000000000056 .L0 
C:\Users\stapi\AppData\Local\Temp\cchD7lgK.s:260    .text.asn1_put_len:0000000000000062 .L0 
C:\Users\stapi\AppData\Local\Temp\cchD7lgK.s:261    .text.asn1_put_len:0000000000000062 .L0 
C:\Users\stapi\AppData\Local\Temp\cchD7lgK.s:262    .text.asn1_put_len:0000000000000062 .L0 
C:\Users\stapi\AppData\Local\Temp\cchD7lgK.s:267    .text.asn1_put_len:000000000000006c .L0 
C:\Users\stapi\AppData\Local\Temp\cchD7lgK.s:268    .text.asn1_put_len:000000000000006c .L0 
C:\Users\stapi\AppData\Local\Temp\cchD7lgK.s:273    .text.asn1_put_len:0000000000000070 .L0 
C:\Users\stapi\AppData\Local\Temp\cchD7lgK.s:283    .text.asn1_put_len:0000000000000072 .L0 
C:\Users\stapi\AppData\Local\Temp\cchD7lgK.s:284    .text.asn1_put_len:0000000000000072 .L0 
C:\Users\stapi\AppData\Local\Temp\cchD7lgK.s:286    .text.asn1_put_len:0000000000000076 .L0 
C:\Users\stapi\AppData\Local\Temp\cchD7lgK.s:292    .text.asn1_put_len:000000000000007a .L0 
C:\Users\stapi\AppData\Local\Temp\cchD7lgK.s:298    .text.asn1_put_len:000000000000007e .L0 
C:\Users\stapi\AppData\Local\Temp\cchD7lgK.s:300    .text.asn1_put_len:0000000000000082 .L0 
C:\Users\stapi\AppData\Local\Temp\cchD7lgK.s:306    .text.asn1_put_len:0000000000000086 .L0 
C:\Users\stapi\AppData\Local\Temp\cchD7lgK.s:308    .text.asn1_put_len:000000000000008a .L0 
C:\Users\stapi\AppData\Local\Temp\cchD7lgK.s:314    .text.asn1_put_len:0000000000000096 .L0 
C:\Users\stapi\AppData\Local\Temp\cchD7lgK.s:315    .text.asn1_put_len:0000000000000096 .L0 
C:\Users\stapi\AppData\Local\Temp\cchD7lgK.s:316    .text.asn1_put_len:0000000000000096 .L0 
C:\Users\stapi\AppData\Local\Temp\cchD7lgK.s:323    .text.asn1_put_len:00000000000000a2 .L0 
C:\Users\stapi\AppData\Local\Temp\cchD7lgK.s:324    .text.asn1_put_len:00000000000000a2 .L0 
C:\Users\stapi\AppData\Local\Temp\cchD7lgK.s:325    .text.asn1_put_len:00000000000000a2 .L0 
C:\Users\stapi\AppData\Local\Temp\cchD7lgK.s:327    .text.asn1_put_len:00000000000000a6 .L0 
C:\Users\stapi\AppData\Local\Temp\cchD7lgK.s:328    .text.asn1_put_len:00000000000000a6 .L0 
C:\Users\stapi\AppData\Local\Temp\cchD7lgK.s:330    .text.asn1_put_len:00000000000000aa .L0 
C:\Users\stapi\AppData\Local\Temp\cchD7lgK.s:331    .text.asn1_put_len:00000000000000aa .L0 
C:\Users\stapi\AppData\Local\Temp\cchD7lgK.s:333    .text.asn1_put_len:00000000000000ae .L0 
C:\Users\stapi\AppData\Local\Temp\cchD7lgK.s:341    .text.asn1_put_len:00000000000000b0 .L0 
C:\Users\stapi\AppData\Local\Temp\cchD7lgK.s:347    .text.asn1_put_len:00000000000000bc .L0 
C:\Users\stapi\AppData\Local\Temp\cchD7lgK.s:348    .text.asn1_put_len:00000000000000bc .L0 
C:\Users\stapi\AppData\Local\Temp\cchD7lgK.s:349    .text.asn1_put_len:00000000000000bc .L0 
C:\Users\stapi\AppData\Local\Temp\cchD7lgK.s:356    .text.asn1_put_len:00000000000000c8 .L0 
C:\Users\stapi\AppData\Local\Temp\cchD7lgK.s:357    .text.asn1_put_len:00000000000000c8 .L0 
C:\Users\stapi\AppData\Local\Temp\cchD7lgK.s:358    .text.asn1_put_len:00000000000000c8 .L0 
C:\Users\stapi\AppData\Local\Temp\cchD7lgK.s:361    .text.asn1_put_len:00000000000000ca .L0 
C:\Users\stapi\AppData\Local\Temp\cchD7lgK.s:363    .text.asn1_put_len:00000000000000ce .L0 
C:\Users\stapi\AppData\Local\Temp\cchD7lgK.s:364    .text.asn1_put_len:00000000000000ce .L0 
C:\Users\stapi\AppData\Local\Temp\cchD7lgK.s:366    .text.asn1_put_len:00000000000000d2 .L0 
C:\Users\stapi\AppData\Local\Temp\cchD7lgK.s:367    .text.asn1_put_len:00000000000000d2 .L0 
C:\Users\stapi\AppData\Local\Temp\cchD7lgK.s:369    .text.asn1_put_len:00000000000000d6 .L0 
C:\Users\stapi\AppData\Local\Temp\cchD7lgK.s:370    .text.asn1_put_len:00000000000000d6 .L0 
C:\Users\stapi\AppData\Local\Temp\cchD7lgK.s:379    .text.asn1_put_len:00000000000000da .L0 
C:\Users\stapi\AppData\Local\Temp\cchD7lgK.s:380    .text.asn1_put_len:00000000000000dc .L0 
C:\Users\stapi\AppData\Local\Temp\cchD7lgK.s:391    .text.asn1_print_hdr:0000000000000000 asn1_print_hdr
C:\Users\stapi\AppData\Local\Temp\cchD7lgK.s:394    .text.asn1_print_hdr:0000000000000000 .L0 
C:\Users\stapi\AppData\Local\Temp\cchD7lgK.s:396    .text.asn1_print_hdr:0000000000000000 .L0 
C:\Users\stapi\AppData\Local\Temp\cchD7lgK.s:397    .text.asn1_print_hdr:0000000000000000 .L0 
C:\Users\stapi\AppData\Local\Temp\cchD7lgK.s:401    .text.asn1_print_hdr:000000000000000a .L0 
C:\Users\stapi\AppData\Local\Temp\cchD7lgK.s:403    .text.asn1_print_hdr:000000000000000c .L0 
C:\Users\stapi\AppData\Local\Temp\cchD7lgK.s:410    .text.asn1_print_hdr:000000000000001e .L0 
C:\Users\stapi\AppData\Local\Temp\cchD7lgK.s:466    .text.asn1_get_next:0000000000000000 asn1_get_next
C:\Users\stapi\AppData\Local\Temp\cchD7lgK.s:469    .text.asn1_get_next:0000000000000000 .L0 
C:\Users\stapi\AppData\Local\Temp\cchD7lgK.s:471    .text.asn1_get_next:0000000000000000 .L0 
C:\Users\stapi\AppData\Local\Temp\cchD7lgK.s:472    .text.asn1_get_next:0000000000000008 .L0 
C:\Users\stapi\AppData\Local\Temp\cchD7lgK.s:473    .text.asn1_get_next:0000000000000008 .L0 
C:\Users\stapi\AppData\Local\Temp\cchD7lgK.s:474    .text.asn1_get_next:0000000000000008 .L0 
C:\Users\stapi\AppData\Local\Temp\cchD7lgK.s:475    .text.asn1_get_next:0000000000000008 .L0 
C:\Users\stapi\AppData\Local\Temp\cchD7lgK.s:476    .text.asn1_get_next:0000000000000008 .L0 
C:\Users\stapi\AppData\Local\Temp\cchD7lgK.s:477    .text.asn1_get_next:0000000000000008 .L0 
C:\Users\stapi\AppData\Local\Temp\cchD7lgK.s:478    .text.asn1_get_next:0000000000000008 .L0 
C:\Users\stapi\AppData\Local\Temp\cchD7lgK.s:479    .text.asn1_get_next:0000000000000008 .L0 
C:\Users\stapi\AppData\Local\Temp\cchD7lgK.s:480    .text.asn1_get_next:0000000000000008 .L0 
C:\Users\stapi\AppData\Local\Temp\cchD7lgK.s:482    .text.asn1_get_next:0000000000000008 .L0 
C:\Users\stapi\AppData\Local\Temp\cchD7lgK.s:483    .text.asn1_get_next:0000000000000008 .L0 
C:\Users\stapi\AppData\Local\Temp\cchD7lgK.s:484    .text.asn1_get_next:0000000000000008 .L0 
C:\Users\stapi\AppData\Local\Temp\cchD7lgK.s:485    .text.asn1_get_next:0000000000000008 .L0 
C:\Users\stapi\AppData\Local\Temp\cchD7lgK.s:489    .text.asn1_get_next:000000000000000e .L0 
C:\Users\stapi\AppData\Local\Temp\cchD7lgK.s:496    .text.asn1_get_next:0000000000000014 .L0 
C:\Users\stapi\AppData\Local\Temp\cchD7lgK.s:499    .text.asn1_get_next:0000000000000016 .L0 
C:\Users\stapi\AppData\Local\Temp\cchD7lgK.s:502    .text.asn1_get_next:000000000000001e .L0 
C:\Users\stapi\AppData\Local\Temp\cchD7lgK.s:503    .text.asn1_get_next:000000000000001e .L0 
C:\Users\stapi\AppData\Local\Temp\cchD7lgK.s:504    .text.asn1_get_next:000000000000001e .L0 
C:\Users\stapi\AppData\Local\Temp\cchD7lgK.s:505    .text.asn1_get_next:000000000000001e .L0 
C:\Users\stapi\AppData\Local\Temp\cchD7lgK.s:507    .text.asn1_get_next:0000000000000022 .L0 
C:\Users\stapi\AppData\Local\Temp\cchD7lgK.s:512    .text.asn1_get_next:000000000000002a .L0 
C:\Users\stapi\AppData\Local\Temp\cchD7lgK.s:516    .text.asn1_get_next:0000000000000034 .L0 
C:\Users\stapi\AppData\Local\Temp\cchD7lgK.s:520    .text.asn1_get_next:0000000000000036 .L0 
C:\Users\stapi\AppData\Local\Temp\cchD7lgK.s:521    .text.asn1_get_next:0000000000000036 .L0 
C:\Users\stapi\AppData\Local\Temp\cchD7lgK.s:523    .text.asn1_get_next:000000000000003a .L0 
C:\Users\stapi\AppData\Local\Temp\cchD7lgK.s:526    .text.asn1_get_next:000000000000003e .L0 
C:\Users\stapi\AppData\Local\Temp\cchD7lgK.s:529    .text.asn1_get_next:0000000000000046 .L0 
C:\Users\stapi\AppData\Local\Temp\cchD7lgK.s:531    .text.asn1_get_next:000000000000004a .L0 
C:\Users\stapi\AppData\Local\Temp\cchD7lgK.s:533    .text.asn1_get_next:000000000000004e .L0 
C:\Users\stapi\AppData\Local\Temp\cchD7lgK.s:534    .text.asn1_get_next:000000000000004e .L0 
C:\Users\stapi\AppData\Local\Temp\cchD7lgK.s:535    .text.asn1_get_next:000000000000004e .L0 
C:\Users\stapi\AppData\Local\Temp\cchD7lgK.s:537    .text.asn1_get_next:0000000000000052 .L0 
C:\Users\stapi\AppData\Local\Temp\cchD7lgK.s:539    .text.asn1_get_next:0000000000000054 .L0 
C:\Users\stapi\AppData\Local\Temp\cchD7lgK.s:544    .text.asn1_get_next:000000000000005a .L0 
C:\Users\stapi\AppData\Local\Temp\cchD7lgK.s:545    .text.asn1_get_next:000000000000005a .L0 
C:\Users\stapi\AppData\Local\Temp\cchD7lgK.s:546    .text.asn1_get_next:000000000000005a .L0 
C:\Users\stapi\AppData\Local\Temp\cchD7lgK.s:548    .text.asn1_get_next:000000000000005e .L0 
C:\Users\stapi\AppData\Local\Temp\cchD7lgK.s:549    .text.asn1_get_next:000000000000005e .L0 
C:\Users\stapi\AppData\Local\Temp\cchD7lgK.s:551    .text.asn1_get_next:0000000000000062 .L0 
C:\Users\stapi\AppData\Local\Temp\cchD7lgK.s:555    .text.asn1_get_next:000000000000006c .L0 
C:\Users\stapi\AppData\Local\Temp\cchD7lgK.s:559    .text.asn1_get_next:0000000000000070 .L0 
C:\Users\stapi\AppData\Local\Temp\cchD7lgK.s:562    .text.asn1_get_next:0000000000000074 .L0 
C:\Users\stapi\AppData\Local\Temp\cchD7lgK.s:563    .text.asn1_get_next:0000000000000074 .L0 
C:\Users\stapi\AppData\Local\Temp\cchD7lgK.s:565    .text.asn1_get_next:0000000000000078 .L0 
C:\Users\stapi\AppData\Local\Temp\cchD7lgK.s:571    .text.asn1_get_next:0000000000000088 .L0 
C:\Users\stapi\AppData\Local\Temp\cchD7lgK.s:573    .text.asn1_get_next:000000000000008a .L0 
C:\Users\stapi\AppData\Local\Temp\cchD7lgK.s:575    .text.asn1_get_next:000000000000008e .L0 
C:\Users\stapi\AppData\Local\Temp\cchD7lgK.s:578    .text.asn1_get_next:0000000000000090 .L0 
C:\Users\stapi\AppData\Local\Temp\cchD7lgK.s:579    .text.asn1_get_next:0000000000000090 .L0 
C:\Users\stapi\AppData\Local\Temp\cchD7lgK.s:580    .text.asn1_get_next:0000000000000090 .L0 
C:\Users\stapi\AppData\Local\Temp\cchD7lgK.s:582    .text.asn1_get_next:0000000000000092 .L0 
C:\Users\stapi\AppData\Local\Temp\cchD7lgK.s:584    .text.asn1_get_next:0000000000000094 .L0 
C:\Users\stapi\AppData\Local\Temp\cchD7lgK.s:586    .text.asn1_get_next:0000000000000096 .L0 
C:\Users\stapi\AppData\Local\Temp\cchD7lgK.s:587    .text.asn1_get_next:0000000000000096 .L0 
C:\Users\stapi\AppData\Local\Temp\cchD7lgK.s:590    .text.asn1_get_next:000000000000009e .L0 
C:\Users\stapi\AppData\Local\Temp\cchD7lgK.s:597    .text.asn1_get_next:00000000000000b2 .L0 
C:\Users\stapi\AppData\Local\Temp\cchD7lgK.s:598    .text.asn1_get_next:00000000000000b2 .L0 
C:\Users\stapi\AppData\Local\Temp\cchD7lgK.s:602    .text.asn1_get_next:00000000000000bc .L0 
C:\Users\stapi\AppData\Local\Temp\cchD7lgK.s:607    .text.asn1_get_next:00000000000000c4 .L0 
C:\Users\stapi\AppData\Local\Temp\cchD7lgK.s:610    .text.asn1_get_next:00000000000000ca .L0 
C:\Users\stapi\AppData\Local\Temp\cchD7lgK.s:614    .text.asn1_get_next:00000000000000d2 .L0 
C:\Users\stapi\AppData\Local\Temp\cchD7lgK.s:624    .text.asn1_get_next:00000000000000e8 .L0 
C:\Users\stapi\AppData\Local\Temp\cchD7lgK.s:625    .text.asn1_get_next:00000000000000e8 .L0 
C:\Users\stapi\AppData\Local\Temp\cchD7lgK.s:626    .text.asn1_get_next:00000000000000e8 .L0 
C:\Users\stapi\AppData\Local\Temp\cchD7lgK.s:632    .text.asn1_get_next:00000000000000ec .L0 
C:\Users\stapi\AppData\Local\Temp\cchD7lgK.s:638    .text.asn1_get_next:00000000000000f6 .L0 
C:\Users\stapi\AppData\Local\Temp\cchD7lgK.s:639    .text.asn1_get_next:00000000000000f6 .L0 
C:\Users\stapi\AppData\Local\Temp\cchD7lgK.s:640    .text.asn1_get_next:00000000000000f6 .L0 
C:\Users\stapi\AppData\Local\Temp\cchD7lgK.s:642    .text.asn1_get_next:00000000000000fa .L0 
C:\Users\stapi\AppData\Local\Temp\cchD7lgK.s:649    .text.asn1_get_next:0000000000000104 .L0 
C:\Users\stapi\AppData\Local\Temp\cchD7lgK.s:650    .text.asn1_get_next:0000000000000104 .L0 
C:\Users\stapi\AppData\Local\Temp\cchD7lgK.s:653    .text.asn1_get_next:0000000000000106 .L0 
C:\Users\stapi\AppData\Local\Temp\cchD7lgK.s:654    .text.asn1_get_next:0000000000000106 .L0 
C:\Users\stapi\AppData\Local\Temp\cchD7lgK.s:656    .text.asn1_get_next:000000000000010a .L0 
C:\Users\stapi\AppData\Local\Temp\cchD7lgK.s:661    .text.asn1_get_next:0000000000000114 .L0 
C:\Users\stapi\AppData\Local\Temp\cchD7lgK.s:662    .text.asn1_get_next:0000000000000114 .L0 
C:\Users\stapi\AppData\Local\Temp\cchD7lgK.s:664    .text.asn1_get_next:0000000000000118 .L0 
C:\Users\stapi\AppData\Local\Temp\cchD7lgK.s:667    .text.asn1_get_next:000000000000011c .L0 
C:\Users\stapi\AppData\Local\Temp\cchD7lgK.s:668    .text.asn1_get_next:000000000000011c .L0 
C:\Users\stapi\AppData\Local\Temp\cchD7lgK.s:671    .text.asn1_get_next:0000000000000124 .L0 
C:\Users\stapi\AppData\Local\Temp\cchD7lgK.s:672    .text.asn1_get_next:0000000000000124 .L0 
C:\Users\stapi\AppData\Local\Temp\cchD7lgK.s:675    .text.asn1_get_next:000000000000012c .L0 
C:\Users\stapi\AppData\Local\Temp\cchD7lgK.s:680    .text.asn1_get_next:0000000000000136 .L0 
C:\Users\stapi\AppData\Local\Temp\cchD7lgK.s:681    .text.asn1_get_next:0000000000000136 .L0 
C:\Users\stapi\AppData\Local\Temp\cchD7lgK.s:684    .text.asn1_get_next:000000000000013a .L0 
C:\Users\stapi\AppData\Local\Temp\cchD7lgK.s:685    .text.asn1_get_next:000000000000013a .L0 
C:\Users\stapi\AppData\Local\Temp\cchD7lgK.s:687    .text.asn1_get_next:000000000000013e .L0 
C:\Users\stapi\AppData\Local\Temp\cchD7lgK.s:688    .text.asn1_get_next:000000000000013e .L0 
C:\Users\stapi\AppData\Local\Temp\cchD7lgK.s:690    .text.asn1_get_next:0000000000000140 .L0 
C:\Users\stapi\AppData\Local\Temp\cchD7lgK.s:692    .text.asn1_get_next:0000000000000144 .L0 
C:\Users\stapi\AppData\Local\Temp\cchD7lgK.s:696    .text.asn1_get_next:000000000000014a .L0 
C:\Users\stapi\AppData\Local\Temp\cchD7lgK.s:701    .text.asn1_get_next:0000000000000154 .L0 
C:\Users\stapi\AppData\Local\Temp\cchD7lgK.s:702    .text.asn1_get_next:0000000000000154 .L0 
C:\Users\stapi\AppData\Local\Temp\cchD7lgK.s:704    .text.asn1_get_next:0000000000000156 .L0 
C:\Users\stapi\AppData\Local\Temp\cchD7lgK.s:706    .text.asn1_get_next:000000000000015a .L0 
C:\Users\stapi\AppData\Local\Temp\cchD7lgK.s:708    .text.asn1_get_next:000000000000015e .L0 
C:\Users\stapi\AppData\Local\Temp\cchD7lgK.s:713    .text.asn1_get_next:0000000000000168 .L0 
C:\Users\stapi\AppData\Local\Temp\cchD7lgK.s:714    .text.asn1_get_next:0000000000000168 .L0 
C:\Users\stapi\AppData\Local\Temp\cchD7lgK.s:716    .text.asn1_get_next:000000000000016c .L0 
C:\Users\stapi\AppData\Local\Temp\cchD7lgK.s:721    .text.asn1_get_next:0000000000000176 .L0 
C:\Users\stapi\AppData\Local\Temp\cchD7lgK.s:722    .text.asn1_get_next:0000000000000176 .L0 
C:\Users\stapi\AppData\Local\Temp\cchD7lgK.s:724    .text.asn1_get_next:0000000000000178 .L0 
C:\Users\stapi\AppData\Local\Temp\cchD7lgK.s:726    .text.asn1_get_next:000000000000017c .L0 
C:\Users\stapi\AppData\Local\Temp\cchD7lgK.s:729    .text.asn1_get_next:000000000000017e .L0 
C:\Users\stapi\AppData\Local\Temp\cchD7lgK.s:731    .text.asn1_get_next:0000000000000180 .L0 
C:\Users\stapi\AppData\Local\Temp\cchD7lgK.s:733    .text.asn1_get_next:0000000000000182 .L0 
C:\Users\stapi\AppData\Local\Temp\cchD7lgK.s:736    .text.asn1_get_next:0000000000000184 .L0 
C:\Users\stapi\AppData\Local\Temp\cchD7lgK.s:737    .text.asn1_get_next:0000000000000184 .L0 
C:\Users\stapi\AppData\Local\Temp\cchD7lgK.s:742    .text.asn1_get_next:000000000000018a .L0 
C:\Users\stapi\AppData\Local\Temp\cchD7lgK.s:744    .text.asn1_get_next:000000000000018e .L0 
C:\Users\stapi\AppData\Local\Temp\cchD7lgK.s:745    .text.asn1_get_next:000000000000018e .L0 
C:\Users\stapi\AppData\Local\Temp\cchD7lgK.s:750    .text.asn1_get_next:0000000000000198 .L0 
C:\Users\stapi\AppData\Local\Temp\cchD7lgK.s:756    .text.asn1_get_next:00000000000001a2 .L0 
C:\Users\stapi\AppData\Local\Temp\cchD7lgK.s:757    .text.asn1_get_next:00000000000001a2 .L0 
C:\Users\stapi\AppData\Local\Temp\cchD7lgK.s:761    .text.asn1_get_next:00000000000001a4 .L0 
C:\Users\stapi\AppData\Local\Temp\cchD7lgK.s:762    .text.asn1_get_next:00000000000001a4 .L0 
C:\Users\stapi\AppData\Local\Temp\cchD7lgK.s:764    .text.asn1_get_next:00000000000001a8 .L0 
C:\Users\stapi\AppData\Local\Temp\cchD7lgK.s:766    .text.asn1_get_next:00000000000001aa .L0 
C:\Users\stapi\AppData\Local\Temp\cchD7lgK.s:769    .text.asn1_get_next:00000000000001ac .L0 
C:\Users\stapi\AppData\Local\Temp\cchD7lgK.s:772    .text.asn1_get_next:00000000000001b0 .L0 
C:\Users\stapi\AppData\Local\Temp\cchD7lgK.s:779    .text.asn1_get_next:00000000000001ba .L0 
C:\Users\stapi\AppData\Local\Temp\cchD7lgK.s:780    .text.asn1_get_next:00000000000001ba .L0 
C:\Users\stapi\AppData\Local\Temp\cchD7lgK.s:784    .text.asn1_get_next:00000000000001be .L0 
C:\Users\stapi\AppData\Local\Temp\cchD7lgK.s:789    .text.asn1_get_next:00000000000001c0 .L0 
C:\Users\stapi\AppData\Local\Temp\cchD7lgK.s:792    .text.asn1_get_next:00000000000001c0 .L0 
C:\Users\stapi\AppData\Local\Temp\cchD7lgK.s:793    .text.asn1_get_next:00000000000001c0 .L0 
C:\Users\stapi\AppData\Local\Temp\cchD7lgK.s:797    .text.asn1_get_next:00000000000001c2 .L0 
C:\Users\stapi\AppData\Local\Temp\cchD7lgK.s:799    .text.asn1_get_next:00000000000001c4 .L0 
C:\Users\stapi\AppData\Local\Temp\cchD7lgK.s:800    .text.asn1_get_next:00000000000001c4 .L0 
C:\Users\stapi\AppData\Local\Temp\cchD7lgK.s:802    .text.asn1_get_next:00000000000001c6 .L0 
C:\Users\stapi\AppData\Local\Temp\cchD7lgK.s:808    .text.asn1_get_next:00000000000001cc .L0 
C:\Users\stapi\AppData\Local\Temp\cchD7lgK.s:809    .text.asn1_get_next:00000000000001cc .L0 
C:\Users\stapi\AppData\Local\Temp\cchD7lgK.s:811    .text.asn1_get_next:00000000000001d0 .L0 
C:\Users\stapi\AppData\Local\Temp\cchD7lgK.s:816    .text.asn1_get_next:00000000000001d8 .L0 
C:\Users\stapi\AppData\Local\Temp\cchD7lgK.s:825    .text.asn1_get_next:00000000000001e2 .L0 
C:\Users\stapi\AppData\Local\Temp\cchD7lgK.s:826    .text.asn1_get_next:00000000000001e2 .L0 
C:\Users\stapi\AppData\Local\Temp\cchD7lgK.s:839    .text.asn1_get_next:00000000000001f6 .L0 
C:\Users\stapi\AppData\Local\Temp\cchD7lgK.s:840    .text.asn1_get_next:00000000000001f6 .L0 
C:\Users\stapi\AppData\Local\Temp\cchD7lgK.s:842    .text.asn1_get_next:00000000000001fa .L0 
C:\Users\stapi\AppData\Local\Temp\cchD7lgK.s:844    .text.asn1_get_next:00000000000001fe .L0 
C:\Users\stapi\AppData\Local\Temp\cchD7lgK.s:847    .text.asn1_get_next:0000000000000202 .L0 
C:\Users\stapi\AppData\Local\Temp\cchD7lgK.s:850    .text.asn1_get_next:000000000000020a .L0 
C:\Users\stapi\AppData\Local\Temp\cchD7lgK.s:858    .text.asn1_get_next:0000000000000214 .L0 
C:\Users\stapi\AppData\Local\Temp\cchD7lgK.s:859    .text.asn1_get_next:0000000000000214 .L0 
C:\Users\stapi\AppData\Local\Temp\cchD7lgK.s:863    .text.asn1_get_next:000000000000021a .L0 
C:\Users\stapi\AppData\Local\Temp\cchD7lgK.s:866    .text.asn1_get_next:000000000000021c .L0 
C:\Users\stapi\AppData\Local\Temp\cchD7lgK.s:867    .text.asn1_get_next:000000000000021c .L0 
C:\Users\stapi\AppData\Local\Temp\cchD7lgK.s:870    .text.asn1_get_next:0000000000000222 .L0 
C:\Users\stapi\AppData\Local\Temp\cchD7lgK.s:874    .text.asn1_get_next:0000000000000224 .L0 
C:\Users\stapi\AppData\Local\Temp\cchD7lgK.s:878    .text.asn1_get_next:0000000000000226 .L0 
C:\Users\stapi\AppData\Local\Temp\cchD7lgK.s:888    .text.asn1_get_next:0000000000000238 .L0 
C:\Users\stapi\AppData\Local\Temp\cchD7lgK.s:889    .text.asn1_get_next:0000000000000240 .L0 
C:\Users\stapi\AppData\Local\Temp\cchD7lgK.s:890    .text.asn1_get_next:0000000000000240 .L0 
C:\Users\stapi\AppData\Local\Temp\cchD7lgK.s:891    .text.asn1_get_next:0000000000000240 .L0 
C:\Users\stapi\AppData\Local\Temp\cchD7lgK.s:892    .text.asn1_get_next:0000000000000240 .L0 
C:\Users\stapi\AppData\Local\Temp\cchD7lgK.s:893    .text.asn1_get_next:0000000000000240 .L0 
C:\Users\stapi\AppData\Local\Temp\cchD7lgK.s:894    .text.asn1_get_next:0000000000000240 .L0 
C:\Users\stapi\AppData\Local\Temp\cchD7lgK.s:895    .text.asn1_get_next:0000000000000240 .L0 
C:\Users\stapi\AppData\Local\Temp\cchD7lgK.s:896    .text.asn1_get_next:0000000000000240 .L0 
C:\Users\stapi\AppData\Local\Temp\cchD7lgK.s:897    .text.asn1_get_next:0000000000000240 .L0 
C:\Users\stapi\AppData\Local\Temp\cchD7lgK.s:898    .text.asn1_get_next:0000000000000240 .L0 
C:\Users\stapi\AppData\Local\Temp\cchD7lgK.s:901    .text.asn1_get_next:0000000000000240 .L0 
C:\Users\stapi\AppData\Local\Temp\cchD7lgK.s:905    .text.asn1_get_next:0000000000000240 .L0 
C:\Users\stapi\AppData\Local\Temp\cchD7lgK.s:906    .text.asn1_get_next:0000000000000240 .L0 
C:\Users\stapi\AppData\Local\Temp\cchD7lgK.s:908    .text.asn1_get_next:0000000000000242 .L0 
C:\Users\stapi\AppData\Local\Temp\cchD7lgK.s:912    .text.asn1_get_next:0000000000000244 .L0 
C:\Users\stapi\AppData\Local\Temp\cchD7lgK.s:916    .text.asn1_get_next:0000000000000246 .L0 
C:\Users\stapi\AppData\Local\Temp\cchD7lgK.s:920    .text.asn1_get_next:000000000000024c .L0 
C:\Users\stapi\AppData\Local\Temp\cchD7lgK.s:931    .text.asn1_unexpected:0000000000000000 asn1_unexpected
C:\Users\stapi\AppData\Local\Temp\cchD7lgK.s:934    .text.asn1_unexpected:0000000000000000 .L0 
C:\Users\stapi\AppData\Local\Temp\cchD7lgK.s:936    .text.asn1_unexpected:0000000000000000 .L0 
C:\Users\stapi\AppData\Local\Temp\cchD7lgK.s:937    .text.asn1_unexpected:0000000000000000 .L0 
C:\Users\stapi\AppData\Local\Temp\cchD7lgK.s:941    .text.asn1_unexpected:000000000000000a .L0 
C:\Users\stapi\AppData\Local\Temp\cchD7lgK.s:943    .text.asn1_unexpected:000000000000000c .L0 
C:\Users\stapi\AppData\Local\Temp\cchD7lgK.s:950    .text.asn1_unexpected:000000000000001e .L0 
C:\Users\stapi\AppData\Local\Temp\cchD7lgK.s:961    .text.asn1_parse_oid:0000000000000000 asn1_parse_oid
C:\Users\stapi\AppData\Local\Temp\cchD7lgK.s:964    .text.asn1_parse_oid:0000000000000000 .L0 
C:\Users\stapi\AppData\Local\Temp\cchD7lgK.s:966    .text.asn1_parse_oid:0000000000000000 .L0 
C:\Users\stapi\AppData\Local\Temp\cchD7lgK.s:967    .text.asn1_parse_oid:0000000000000008 .L0 
C:\Users\stapi\AppData\Local\Temp\cchD7lgK.s:968    .text.asn1_parse_oid:0000000000000008 .L0 
C:\Users\stapi\AppData\Local\Temp\cchD7lgK.s:969    .text.asn1_parse_oid:0000000000000008 .L0 
C:\Users\stapi\AppData\Local\Temp\cchD7lgK.s:970    .text.asn1_parse_oid:0000000000000008 .L0 
C:\Users\stapi\AppData\Local\Temp\cchD7lgK.s:971    .text.asn1_parse_oid:0000000000000008 .L0 
C:\Users\stapi\AppData\Local\Temp\cchD7lgK.s:973    .text.asn1_parse_oid:0000000000000008 .L0 
C:\Users\stapi\AppData\Local\Temp\cchD7lgK.s:974    .text.asn1_parse_oid:0000000000000008 .L0 
C:\Users\stapi\AppData\Local\Temp\cchD7lgK.s:975    .text.asn1_parse_oid:0000000000000008 .L0 
C:\Users\stapi\AppData\Local\Temp\cchD7lgK.s:976    .text.asn1_parse_oid:0000000000000008 .L0 
C:\Users\stapi\AppData\Local\Temp\cchD7lgK.s:977    .text.asn1_parse_oid:0000000000000008 .L0 
C:\Users\stapi\AppData\Local\Temp\cchD7lgK.s:981    .text.asn1_parse_oid:000000000000000e .L0 
C:\Users\stapi\AppData\Local\Temp\cchD7lgK.s:990    .text.asn1_parse_oid:000000000000001e .L0 
C:\Users\stapi\AppData\Local\Temp\cchD7lgK.s:991    .text.asn1_parse_oid:000000000000001e .L0 
C:\Users\stapi\AppData\Local\Temp\cchD7lgK.s:992    .text.asn1_parse_oid:000000000000001e .L0 
C:\Users\stapi\AppData\Local\Temp\cchD7lgK.s:995    .text.asn1_parse_oid:0000000000000022 .L0 
C:\Users\stapi\AppData\Local\Temp\cchD7lgK.s:996    .text.asn1_parse_oid:0000000000000022 .L0 
C:\Users\stapi\AppData\Local\Temp\cchD7lgK.s:998    .text.asn1_parse_oid:0000000000000024 .L0 
C:\Users\stapi\AppData\Local\Temp\cchD7lgK.s:1000   .text.asn1_parse_oid:0000000000000028 .L0 
C:\Users\stapi\AppData\Local\Temp\cchD7lgK.s:1002   .text.asn1_parse_oid:000000000000002c .L0 
C:\Users\stapi\AppData\Local\Temp\cchD7lgK.s:1006   .text.asn1_parse_oid:000000000000002e .L0 
C:\Users\stapi\AppData\Local\Temp\cchD7lgK.s:1008   .text.asn1_parse_oid:0000000000000032 .L0 
C:\Users\stapi\AppData\Local\Temp\cchD7lgK.s:1012   .text.asn1_parse_oid:0000000000000034 .L0 
C:\Users\stapi\AppData\Local\Temp\cchD7lgK.s:1013   .text.asn1_parse_oid:000000000000003c .L0 
C:\Users\stapi\AppData\Local\Temp\cchD7lgK.s:1014   .text.asn1_parse_oid:000000000000003c .L0 
C:\Users\stapi\AppData\Local\Temp\cchD7lgK.s:1015   .text.asn1_parse_oid:000000000000003c .L0 
C:\Users\stapi\AppData\Local\Temp\cchD7lgK.s:1016   .text.asn1_parse_oid:000000000000003c .L0 
C:\Users\stapi\AppData\Local\Temp\cchD7lgK.s:1017   .text.asn1_parse_oid:000000000000003c .L0 
C:\Users\stapi\AppData\Local\Temp\cchD7lgK.s:1018   .text.asn1_parse_oid:000000000000003c .L0 
C:\Users\stapi\AppData\Local\Temp\cchD7lgK.s:1021   .text.asn1_parse_oid:000000000000003c .L0 
C:\Users\stapi\AppData\Local\Temp\cchD7lgK.s:1023   .text.asn1_parse_oid:000000000000003c .L0 
C:\Users\stapi\AppData\Local\Temp\cchD7lgK.s:1024   .text.asn1_parse_oid:000000000000003c .L0 
C:\Users\stapi\AppData\Local\Temp\cchD7lgK.s:1025   .text.asn1_parse_oid:000000000000003c .L0 
C:\Users\stapi\AppData\Local\Temp\cchD7lgK.s:1029   .text.asn1_parse_oid:0000000000000040 .L0 
C:\Users\stapi\AppData\Local\Temp\cchD7lgK.s:1034   .text.asn1_parse_oid:0000000000000044 .L0 
C:\Users\stapi\AppData\Local\Temp\cchD7lgK.s:1038   .text.asn1_parse_oid:0000000000000046 .L0 
C:\Users\stapi\AppData\Local\Temp\cchD7lgK.s:1039   .text.asn1_parse_oid:0000000000000046 .L0 
C:\Users\stapi\AppData\Local\Temp\cchD7lgK.s:1041   .text.asn1_parse_oid:000000000000004a .L0 
C:\Users\stapi\AppData\Local\Temp\cchD7lgK.s:1044   .text.asn1_parse_oid:000000000000004c .L0 
C:\Users\stapi\AppData\Local\Temp\cchD7lgK.s:1047   .text.asn1_parse_oid:000000000000004e .L0 
C:\Users\stapi\AppData\Local\Temp\cchD7lgK.s:1048   .text.asn1_parse_oid:000000000000004e .L0 
C:\Users\stapi\AppData\Local\Temp\cchD7lgK.s:1050   .text.asn1_parse_oid:0000000000000052 .L0 
C:\Users\stapi\AppData\Local\Temp\cchD7lgK.s:1053   .text.asn1_parse_oid:0000000000000056 .L0 
C:\Users\stapi\AppData\Local\Temp\cchD7lgK.s:1054   .text.asn1_parse_oid:0000000000000056 .L0 
C:\Users\stapi\AppData\Local\Temp\cchD7lgK.s:1057   .text.asn1_parse_oid:000000000000005e .L0 
C:\Users\stapi\AppData\Local\Temp\cchD7lgK.s:1058   .text.asn1_parse_oid:000000000000005e .L0 
C:\Users\stapi\AppData\Local\Temp\cchD7lgK.s:1061   .text.asn1_parse_oid:0000000000000060 .L0 
C:\Users\stapi\AppData\Local\Temp\cchD7lgK.s:1063   .text.asn1_parse_oid:0000000000000064 .L0 
C:\Users\stapi\AppData\Local\Temp\cchD7lgK.s:1070   .text.asn1_parse_oid:0000000000000076 .L0 
C:\Users\stapi\AppData\Local\Temp\cchD7lgK.s:1074   .text.asn1_parse_oid:0000000000000078 .L0 
C:\Users\stapi\AppData\Local\Temp\cchD7lgK.s:1075   .text.asn1_parse_oid:0000000000000078 .L0 
C:\Users\stapi\AppData\Local\Temp\cchD7lgK.s:1077   .text.asn1_parse_oid:000000000000007a .L0 
C:\Users\stapi\AppData\Local\Temp\cchD7lgK.s:1078   .text.asn1_parse_oid:000000000000007a .L0 
C:\Users\stapi\AppData\Local\Temp\cchD7lgK.s:1079   .text.asn1_parse_oid:000000000000007a .L0 
C:\Users\stapi\AppData\Local\Temp\cchD7lgK.s:1081   .text.asn1_parse_oid:000000000000007e .L0 
C:\Users\stapi\AppData\Local\Temp\cchD7lgK.s:1083   .text.asn1_parse_oid:0000000000000082 .L0 
C:\Users\stapi\AppData\Local\Temp\cchD7lgK.s:1087   .text.asn1_parse_oid:0000000000000084 .L0 
C:\Users\stapi\AppData\Local\Temp\cchD7lgK.s:1088   .text.asn1_parse_oid:0000000000000084 .L0 
C:\Users\stapi\AppData\Local\Temp\cchD7lgK.s:1090   .text.asn1_parse_oid:0000000000000086 .L0 
C:\Users\stapi\AppData\Local\Temp\cchD7lgK.s:1092   .text.asn1_parse_oid:0000000000000088 .L0 
C:\Users\stapi\AppData\Local\Temp\cchD7lgK.s:1095   .text.asn1_parse_oid:000000000000008c .L0 
C:\Users\stapi\AppData\Local\Temp\cchD7lgK.s:1097   .text.asn1_parse_oid:000000000000008e .L0 
C:\Users\stapi\AppData\Local\Temp\cchD7lgK.s:1101   .text.asn1_parse_oid:0000000000000090 .L0 
C:\Users\stapi\AppData\Local\Temp\cchD7lgK.s:1102   .text.asn1_parse_oid:0000000000000090 .L0 
C:\Users\stapi\AppData\Local\Temp\cchD7lgK.s:1108   .text.asn1_parse_oid:0000000000000094 .L0 
C:\Users\stapi\AppData\Local\Temp\cchD7lgK.s:1109   .text.asn1_parse_oid:0000000000000094 .L0 
C:\Users\stapi\AppData\Local\Temp\cchD7lgK.s:1113   .text.asn1_parse_oid:000000000000009c .L0 
C:\Users\stapi\AppData\Local\Temp\cchD7lgK.s:1116   .text.asn1_parse_oid:00000000000000a4 .L0 
C:\Users\stapi\AppData\Local\Temp\cchD7lgK.s:1127   .text.asn1_get_oid:0000000000000000 asn1_get_oid
C:\Users\stapi\AppData\Local\Temp\cchD7lgK.s:1130   .text.asn1_get_oid:0000000000000000 .L0 
C:\Users\stapi\AppData\Local\Temp\cchD7lgK.s:1132   .text.asn1_get_oid:0000000000000000 .L0 
C:\Users\stapi\AppData\Local\Temp\cchD7lgK.s:1133   .text.asn1_get_oid:0000000000000008 .L0 
C:\Users\stapi\AppData\Local\Temp\cchD7lgK.s:1134   .text.asn1_get_oid:0000000000000008 .L0 
C:\Users\stapi\AppData\Local\Temp\cchD7lgK.s:1135   .text.asn1_get_oid:0000000000000008 .L0 
C:\Users\stapi\AppData\Local\Temp\cchD7lgK.s:1136   .text.asn1_get_oid:0000000000000008 .L0 
C:\Users\stapi\AppData\Local\Temp\cchD7lgK.s:1138   .text.asn1_get_oid:0000000000000008 .L0 
C:\Users\stapi\AppData\Local\Temp\cchD7lgK.s:1139   .text.asn1_get_oid:0000000000000008 .L0 
C:\Users\stapi\AppData\Local\Temp\cchD7lgK.s:1140   .text.asn1_get_oid:0000000000000008 .L0 
C:\Users\stapi\AppData\Local\Temp\cchD7lgK.s:1141   .text.asn1_get_oid:000000000000000a .L0 
C:\Users\stapi\AppData\Local\Temp\cchD7lgK.s:1143   .text.asn1_get_oid:000000000000000a .L0 
C:\Users\stapi\AppData\Local\Temp\cchD7lgK.s:1145   .text.asn1_get_oid:000000000000000c .L0 
C:\Users\stapi\AppData\Local\Temp\cchD7lgK.s:1148   .text.asn1_get_oid:000000000000000e .L0 
C:\Users\stapi\AppData\Local\Temp\cchD7lgK.s:1150   .text.asn1_get_oid:0000000000000010 .L0 
C:\Users\stapi\AppData\Local\Temp\cchD7lgK.s:1153   .text.asn1_get_oid:0000000000000018 .L0 
C:\Users\stapi\AppData\Local\Temp\cchD7lgK.s:1155   .text.asn1_get_oid:000000000000001c .L0 
C:\Users\stapi\AppData\Local\Temp\cchD7lgK.s:1157   .text.asn1_get_oid:000000000000001e .L0 
C:\Users\stapi\AppData\Local\Temp\cchD7lgK.s:1163   .text.asn1_get_oid:0000000000000020 .L0 
C:\Users\stapi\AppData\Local\Temp\cchD7lgK.s:1164   .text.asn1_get_oid:0000000000000020 .L0 
C:\Users\stapi\AppData\Local\Temp\cchD7lgK.s:1173   .text.asn1_get_oid:000000000000002e .L0 
C:\Users\stapi\AppData\Local\Temp\cchD7lgK.s:1174   .text.asn1_get_oid:000000000000002e .L0 
C:\Users\stapi\AppData\Local\Temp\cchD7lgK.s:1176   .text.asn1_get_oid:0000000000000030 .L0 
C:\Users\stapi\AppData\Local\Temp\cchD7lgK.s:1178   .text.asn1_get_oid:0000000000000032 .L0 
C:\Users\stapi\AppData\Local\Temp\cchD7lgK.s:1180   .text.asn1_get_oid:0000000000000036 .L0 
C:\Users\stapi\AppData\Local\Temp\cchD7lgK.s:1182   .text.asn1_get_oid:0000000000000038 .L0 
C:\Users\stapi\AppData\Local\Temp\cchD7lgK.s:1183   .text.asn1_get_oid:0000000000000038 .L0 
C:\Users\stapi\AppData\Local\Temp\cchD7lgK.s:1187   .text.asn1_get_oid:0000000000000040 .L0 
C:\Users\stapi\AppData\Local\Temp\cchD7lgK.s:1188   .text.asn1_get_oid:0000000000000042 .L0 
C:\Users\stapi\AppData\Local\Temp\cchD7lgK.s:1189   .text.asn1_get_oid:0000000000000042 .L0 
C:\Users\stapi\AppData\Local\Temp\cchD7lgK.s:1191   .text.asn1_get_oid:000000000000004a .L0 
C:\Users\stapi\AppData\Local\Temp\cchD7lgK.s:1192   .text.asn1_get_oid:000000000000004a .L0 
C:\Users\stapi\AppData\Local\Temp\cchD7lgK.s:1193   .text.asn1_get_oid:000000000000004a .L0 
C:\Users\stapi\AppData\Local\Temp\cchD7lgK.s:1194   .text.asn1_get_oid:000000000000004a .L0 
C:\Users\stapi\AppData\Local\Temp\cchD7lgK.s:1196   .text.asn1_get_oid:000000000000004a .L0 
C:\Users\stapi\AppData\Local\Temp\cchD7lgK.s:1198   .text.asn1_get_oid:000000000000004a .L0 
C:\Users\stapi\AppData\Local\Temp\cchD7lgK.s:1204   .text.asn1_get_oid:000000000000005c .L0 
C:\Users\stapi\AppData\Local\Temp\cchD7lgK.s:1205   .text.asn1_get_oid:000000000000005c .L0 
C:\Users\stapi\AppData\Local\Temp\cchD7lgK.s:1207   .text.asn1_get_oid:0000000000000060 .L0 
C:\Users\stapi\AppData\Local\Temp\cchD7lgK.s:1224   .text.asn1_oid_to_str:0000000000000000 asn1_oid_to_str
C:\Users\stapi\AppData\Local\Temp\cchD7lgK.s:1227   .text.asn1_oid_to_str:0000000000000000 .L0 
C:\Users\stapi\AppData\Local\Temp\cchD7lgK.s:1229   .text.asn1_oid_to_str:0000000000000000 .L0 
C:\Users\stapi\AppData\Local\Temp\cchD7lgK.s:1230   .text.asn1_oid_to_str:0000000000000000 .L0 
C:\Users\stapi\AppData\Local\Temp\cchD7lgK.s:1231   .text.asn1_oid_to_str:0000000000000000 .L0 
C:\Users\stapi\AppData\Local\Temp\cchD7lgK.s:1232   .text.asn1_oid_to_str:0000000000000000 .L0 
C:\Users\stapi\AppData\Local\Temp\cchD7lgK.s:1233   .text.asn1_oid_to_str:0000000000000000 .L0 
C:\Users\stapi\AppData\Local\Temp\cchD7lgK.s:1234   .text.asn1_oid_to_str:0000000000000000 .L0 
C:\Users\stapi\AppData\Local\Temp\cchD7lgK.s:1236   .text.asn1_oid_to_str:0000000000000002 .L0 
C:\Users\stapi\AppData\Local\Temp\cchD7lgK.s:1237   .text.asn1_oid_to_str:000000000000000a .L0 
C:\Users\stapi\AppData\Local\Temp\cchD7lgK.s:1238   .text.asn1_oid_to_str:000000000000000a .L0 
C:\Users\stapi\AppData\Local\Temp\cchD7lgK.s:1239   .text.asn1_oid_to_str:000000000000000a .L0 
C:\Users\stapi\AppData\Local\Temp\cchD7lgK.s:1240   .text.asn1_oid_to_str:000000000000000a .L0 
C:\Users\stapi\AppData\Local\Temp\cchD7lgK.s:1241   .text.asn1_oid_to_str:000000000000000a .L0 
C:\Users\stapi\AppData\Local\Temp\cchD7lgK.s:1242   .text.asn1_oid_to_str:000000000000000a .L0 
C:\Users\stapi\AppData\Local\Temp\cchD7lgK.s:1243   .text.asn1_oid_to_str:000000000000000a .L0 
C:\Users\stapi\AppData\Local\Temp\cchD7lgK.s:1244   .text.asn1_oid_to_str:000000000000000a .L0 
C:\Users\stapi\AppData\Local\Temp\cchD7lgK.s:1245   .text.asn1_oid_to_str:000000000000000a .L0 
C:\Users\stapi\AppData\Local\Temp\cchD7lgK.s:1246   .text.asn1_oid_to_str:000000000000000a .L0 
C:\Users\stapi\AppData\Local\Temp\cchD7lgK.s:1248   .text.asn1_oid_to_str:000000000000000a .L0 
C:\Users\stapi\AppData\Local\Temp\cchD7lgK.s:1253   .text.asn1_oid_to_str:0000000000000016 .L0 
C:\Users\stapi\AppData\Local\Temp\cchD7lgK.s:1254   .text.asn1_oid_to_str:0000000000000016 .L0 
C:\Users\stapi\AppData\Local\Temp\cchD7lgK.s:1257   .text.asn1_oid_to_str:000000000000001a .L0 
C:\Users\stapi\AppData\Local\Temp\cchD7lgK.s:1258   .text.asn1_oid_to_str:000000000000001a .L0 
C:\Users\stapi\AppData\Local\Temp\cchD7lgK.s:1261   .text.asn1_oid_to_str:0000000000000020 .L0 
C:\Users\stapi\AppData\Local\Temp\cchD7lgK.s:1267   .text.asn1_oid_to_str:000000000000002c .L0 
C:\Users\stapi\AppData\Local\Temp\cchD7lgK.s:1268   .text.asn1_oid_to_str:000000000000002c .L0 
C:\Users\stapi\AppData\Local\Temp\cchD7lgK.s:1271   .text.asn1_oid_to_str:0000000000000034 .L0 
C:\Users\stapi\AppData\Local\Temp\cchD7lgK.s:1272   .text.asn1_oid_to_str:0000000000000034 .L0 
C:\Users\stapi\AppData\Local\Temp\cchD7lgK.s:1274   .text.asn1_oid_to_str:0000000000000038 .L0 
C:\Users\stapi\AppData\Local\Temp\cchD7lgK.s:1279   .text.asn1_oid_to_str:0000000000000040 .L0 
C:\Users\stapi\AppData\Local\Temp\cchD7lgK.s:1290   .text.asn1_oid_to_str:0000000000000056 .L0 
C:\Users\stapi\AppData\Local\Temp\cchD7lgK.s:1291   .text.asn1_oid_to_str:0000000000000056 .L0 
C:\Users\stapi\AppData\Local\Temp\cchD7lgK.s:1292   .text.asn1_oid_to_str:0000000000000056 .L0 
C:\Users\stapi\AppData\Local\Temp\cchD7lgK.s:1298   .text.asn1_oid_to_str:000000000000005a .L0 
C:\Users\stapi\AppData\Local\Temp\cchD7lgK.s:1299   .text.asn1_oid_to_str:000000000000005a .L0 
C:\Users\stapi\AppData\Local\Temp\cchD7lgK.s:1301   .text.asn1_oid_to_str:000000000000005e .L0 
C:\Users\stapi\AppData\Local\Temp\cchD7lgK.s:1302   .text.asn1_oid_to_str:0000000000000066 .L0 
C:\Users\stapi\AppData\Local\Temp\cchD7lgK.s:1303   .text.asn1_oid_to_str:0000000000000066 .L0 
C:\Users\stapi\AppData\Local\Temp\cchD7lgK.s:1304   .text.asn1_oid_to_str:0000000000000066 .L0 
C:\Users\stapi\AppData\Local\Temp\cchD7lgK.s:1305   .text.asn1_oid_to_str:0000000000000066 .L0 
C:\Users\stapi\AppData\Local\Temp\cchD7lgK.s:1306   .text.asn1_oid_to_str:0000000000000066 .L0 
C:\Users\stapi\AppData\Local\Temp\cchD7lgK.s:1307   .text.asn1_oid_to_str:0000000000000066 .L0 
C:\Users\stapi\AppData\Local\Temp\cchD7lgK.s:1308   .text.asn1_oid_to_str:0000000000000066 .L0 
C:\Users\stapi\AppData\Local\Temp\cchD7lgK.s:1309   .text.asn1_oid_to_str:0000000000000066 .L0 
C:\Users\stapi\AppData\Local\Temp\cchD7lgK.s:1310   .text.asn1_oid_to_str:0000000000000066 .L0 
C:\Users\stapi\AppData\Local\Temp\cchD7lgK.s:1311   .text.asn1_oid_to_str:0000000000000066 .L0 
C:\Users\stapi\AppData\Local\Temp\cchD7lgK.s:1312   .text.asn1_oid_to_str:0000000000000066 .L0 
C:\Users\stapi\AppData\Local\Temp\cchD7lgK.s:1315   .text.asn1_oid_to_str:0000000000000066 .L0 
C:\Users\stapi\AppData\Local\Temp\cchD7lgK.s:1319   .text.asn1_oid_to_str:0000000000000066 .L0 
C:\Users\stapi\AppData\Local\Temp\cchD7lgK.s:1324   .text.asn1_oid_to_str:000000000000006a .L0 
C:\Users\stapi\AppData\Local\Temp\cchD7lgK.s:1325   .text.asn1_oid_to_str:000000000000006a .L0 
C:\Users\stapi\AppData\Local\Temp\cchD7lgK.s:1328   .text.asn1_oid_to_str:000000000000006c .L0 
C:\Users\stapi\AppData\Local\Temp\cchD7lgK.s:1329   .text.asn1_oid_to_str:000000000000006c .L0 
C:\Users\stapi\AppData\Local\Temp\cchD7lgK.s:1334   .text.asn1_oid_to_str:0000000000000070 .L0 
C:\Users\stapi\AppData\Local\Temp\cchD7lgK.s:1335   .text.asn1_oid_to_str:0000000000000070 .L0 
C:\Users\stapi\AppData\Local\Temp\cchD7lgK.s:1336   .text.asn1_oid_to_str:0000000000000070 .L0 
C:\Users\stapi\AppData\Local\Temp\cchD7lgK.s:1337   .text.asn1_oid_to_str:0000000000000070 .L0 
C:\Users\stapi\AppData\Local\Temp\cchD7lgK.s:1338   .text.asn1_oid_to_str:0000000000000070 .L0 
C:\Users\stapi\AppData\Local\Temp\cchD7lgK.s:1339   .text.asn1_oid_to_str:0000000000000070 .L0 
C:\Users\stapi\AppData\Local\Temp\cchD7lgK.s:1340   .text.asn1_oid_to_str:0000000000000070 .L0 
C:\Users\stapi\AppData\Local\Temp\cchD7lgK.s:1341   .text.asn1_oid_to_str:0000000000000070 .L0 
C:\Users\stapi\AppData\Local\Temp\cchD7lgK.s:1342   .text.asn1_oid_to_str:0000000000000070 .L0 
C:\Users\stapi\AppData\Local\Temp\cchD7lgK.s:1343   .text.asn1_oid_to_str:0000000000000070 .L0 
C:\Users\stapi\AppData\Local\Temp\cchD7lgK.s:1345   .text.asn1_oid_to_str:0000000000000072 .L0 
C:\Users\stapi\AppData\Local\Temp\cchD7lgK.s:1356   .text.asn1_bit_string_to_long:0000000000000000 asn1_bit_string_to_long
C:\Users\stapi\AppData\Local\Temp\cchD7lgK.s:1359   .text.asn1_bit_string_to_long:0000000000000000 .L0 
C:\Users\stapi\AppData\Local\Temp\cchD7lgK.s:1361   .text.asn1_bit_string_to_long:0000000000000000 .L0 
C:\Users\stapi\AppData\Local\Temp\cchD7lgK.s:1362   .text.asn1_bit_string_to_long:0000000000000008 .L0 
C:\Users\stapi\AppData\Local\Temp\cchD7lgK.s:1363   .text.asn1_bit_string_to_long:0000000000000008 .L0 
C:\Users\stapi\AppData\Local\Temp\cchD7lgK.s:1364   .text.asn1_bit_string_to_long:0000000000000008 .L0 
C:\Users\stapi\AppData\Local\Temp\cchD7lgK.s:1365   .text.asn1_bit_string_to_long:0000000000000008 .L0 
C:\Users\stapi\AppData\Local\Temp\cchD7lgK.s:1366   .text.asn1_bit_string_to_long:0000000000000008 .L0 
C:\Users\stapi\AppData\Local\Temp\cchD7lgK.s:1369   .text.asn1_bit_string_to_long:0000000000000008 .L0 
C:\Users\stapi\AppData\Local\Temp\cchD7lgK.s:1370   .text.asn1_bit_string_to_long:0000000000000008 .L0 
C:\Users\stapi\AppData\Local\Temp\cchD7lgK.s:1371   .text.asn1_bit_string_to_long:0000000000000008 .L0 
C:\Users\stapi\AppData\Local\Temp\cchD7lgK.s:1372   .text.asn1_bit_string_to_long:0000000000000008 .L0 
C:\Users\stapi\AppData\Local\Temp\cchD7lgK.s:1373   .text.asn1_bit_string_to_long:0000000000000008 .L0 
C:\Users\stapi\AppData\Local\Temp\cchD7lgK.s:1375   .text.asn1_bit_string_to_long:000000000000000a .L0 
C:\Users\stapi\AppData\Local\Temp\cchD7lgK.s:1377   .text.asn1_bit_string_to_long:000000000000000c .L0 
C:\Users\stapi\AppData\Local\Temp\cchD7lgK.s:1380   .text.asn1_bit_string_to_long:0000000000000012 .L0 
C:\Users\stapi\AppData\Local\Temp\cchD7lgK.s:1385   .text.asn1_bit_string_to_long:0000000000000018 .L0 
C:\Users\stapi\AppData\Local\Temp\cchD7lgK.s:1386   .text.asn1_bit_string_to_long:0000000000000018 .L0 
C:\Users\stapi\AppData\Local\Temp\cchD7lgK.s:1389   .text.asn1_bit_string_to_long:0000000000000020 .L0 
C:\Users\stapi\AppData\Local\Temp\cchD7lgK.s:1391   .text.asn1_bit_string_to_long:0000000000000022 .L0 
C:\Users\stapi\AppData\Local\Temp\cchD7lgK.s:1394   .text.asn1_bit_string_to_long:0000000000000024 .L0 
C:\Users\stapi\AppData\Local\Temp\cchD7lgK.s:1395   .text.asn1_bit_string_to_long:0000000000000024 .L0 
C:\Users\stapi\AppData\Local\Temp\cchD7lgK.s:1397   .text.asn1_bit_string_to_long:0000000000000028 .L0 
C:\Users\stapi\AppData\Local\Temp\cchD7lgK.s:1398   .text.asn1_bit_string_to_long:0000000000000028 .L0 
C:\Users\stapi\AppData\Local\Temp\cchD7lgK.s:1402   .text.asn1_bit_string_to_long:0000000000000034 .L0 
C:\Users\stapi\AppData\Local\Temp\cchD7lgK.s:1404   .text.asn1_bit_string_to_long:0000000000000036 .L0 
C:\Users\stapi\AppData\Local\Temp\cchD7lgK.s:1406   .text.asn1_bit_string_to_long:0000000000000038 .L0 
C:\Users\stapi\AppData\Local\Temp\cchD7lgK.s:1409   .text.asn1_bit_string_to_long:000000000000003a .L0 
C:\Users\stapi\AppData\Local\Temp\cchD7lgK.s:1410   .text.asn1_bit_string_to_long:000000000000003a .L0 
C:\Users\stapi\AppData\Local\Temp\cchD7lgK.s:1412   .text.asn1_bit_string_to_long:000000000000003e .L0 
C:\Users\stapi\AppData\Local\Temp\cchD7lgK.s:1413   .text.asn1_bit_string_to_long:000000000000003e .L0 
C:\Users\stapi\AppData\Local\Temp\cchD7lgK.s:1417   .text.asn1_bit_string_to_long:000000000000004a .L0 
C:\Users\stapi\AppData\Local\Temp\cchD7lgK.s:1419   .text.asn1_bit_string_to_long:000000000000004c .L0 
C:\Users\stapi\AppData\Local\Temp\cchD7lgK.s:1421   .text.asn1_bit_string_to_long:000000000000004e .L0 
C:\Users\stapi\AppData\Local\Temp\cchD7lgK.s:1424   .text.asn1_bit_string_to_long:0000000000000050 .L0 
C:\Users\stapi\AppData\Local\Temp\cchD7lgK.s:1425   .text.asn1_bit_string_to_long:0000000000000050 .L0 
C:\Users\stapi\AppData\Local\Temp\cchD7lgK.s:1427   .text.asn1_bit_string_to_long:0000000000000054 .L0 
C:\Users\stapi\AppData\Local\Temp\cchD7lgK.s:1428   .text.asn1_bit_string_to_long:0000000000000054 .L0 
C:\Users\stapi\AppData\Local\Temp\cchD7lgK.s:1432   .text.asn1_bit_string_to_long:0000000000000060 .L0 
C:\Users\stapi\AppData\Local\Temp\cchD7lgK.s:1434   .text.asn1_bit_string_to_long:0000000000000062 .L0 
C:\Users\stapi\AppData\Local\Temp\cchD7lgK.s:1436   .text.asn1_bit_string_to_long:0000000000000064 .L0 
C:\Users\stapi\AppData\Local\Temp\cchD7lgK.s:1439   .text.asn1_bit_string_to_long:0000000000000066 .L0 
C:\Users\stapi\AppData\Local\Temp\cchD7lgK.s:1440   .text.asn1_bit_string_to_long:0000000000000066 .L0 
C:\Users\stapi\AppData\Local\Temp\cchD7lgK.s:1442   .text.asn1_bit_string_to_long:000000000000006a .L0 
C:\Users\stapi\AppData\Local\Temp\cchD7lgK.s:1452   .text.asn1_bit_string_to_long:0000000000000086 .L0 
C:\Users\stapi\AppData\Local\Temp\cchD7lgK.s:1454   .text.asn1_bit_string_to_long:0000000000000090 .L0 
C:\Users\stapi\AppData\Local\Temp\cchD7lgK.s:1455   .text.asn1_bit_string_to_long:0000000000000090 .L0 
C:\Users\stapi\AppData\Local\Temp\cchD7lgK.s:1456   .text.asn1_bit_string_to_long:0000000000000090 .L0 
C:\Users\stapi\AppData\Local\Temp\cchD7lgK.s:1457   .text.asn1_bit_string_to_long:0000000000000090 .L0 
C:\Users\stapi\AppData\Local\Temp\cchD7lgK.s:1458   .text.asn1_bit_string_to_long:0000000000000090 .L0 
C:\Users\stapi\AppData\Local\Temp\cchD7lgK.s:1459   .text.asn1_bit_string_to_long:0000000000000090 .L0 
C:\Users\stapi\AppData\Local\Temp\cchD7lgK.s:1466   .text.asn1_oid_equal:0000000000000000 asn1_oid_equal
C:\Users\stapi\AppData\Local\Temp\cchD7lgK.s:1469   .text.asn1_oid_equal:0000000000000000 .L0 
C:\Users\stapi\AppData\Local\Temp\cchD7lgK.s:1471   .text.asn1_oid_equal:0000000000000000 .L0 
C:\Users\stapi\AppData\Local\Temp\cchD7lgK.s:1472   .text.asn1_oid_equal:0000000000000000 .L0 
C:\Users\stapi\AppData\Local\Temp\cchD7lgK.s:1473   .text.asn1_oid_equal:0000000000000000 .L0 
C:\Users\stapi\AppData\Local\Temp\cchD7lgK.s:1474   .text.asn1_oid_equal:0000000000000000 .L0 
C:\Users\stapi\AppData\Local\Temp\cchD7lgK.s:1476   .text.asn1_oid_equal:0000000000000002 .L0 
C:\Users\stapi\AppData\Local\Temp\cchD7lgK.s:1479   .text.asn1_oid_equal:0000000000000008 .L0 
C:\Users\stapi\AppData\Local\Temp\cchD7lgK.s:1483   .text.asn1_oid_equal:000000000000000a .L0 
C:\Users\stapi\AppData\Local\Temp\cchD7lgK.s:1484   .text.asn1_oid_equal:000000000000000a .L0 
C:\Users\stapi\AppData\Local\Temp\cchD7lgK.s:1486   .text.asn1_oid_equal:000000000000000e .L0 
C:\Users\stapi\AppData\Local\Temp\cchD7lgK.s:1492   .text.asn1_oid_equal:0000000000000012 .L0 
C:\Users\stapi\AppData\Local\Temp\cchD7lgK.s:1494   .text.asn1_oid_equal:0000000000000016 .L0 
C:\Users\stapi\AppData\Local\Temp\cchD7lgK.s:1496   .text.asn1_oid_equal:000000000000001a .L0 
C:\Users\stapi\AppData\Local\Temp\cchD7lgK.s:1498   .text.asn1_oid_equal:000000000000001c .L0 
C:\Users\stapi\AppData\Local\Temp\cchD7lgK.s:1502   .text.asn1_oid_equal:0000000000000024 .L0 
C:\Users\stapi\AppData\Local\Temp\cchD7lgK.s:1503   .text.asn1_oid_equal:0000000000000024 .L0 
C:\Users\stapi\AppData\Local\Temp\cchD7lgK.s:1509   .text.asn1_oid_equal:0000000000000028 .L0 
C:\Users\stapi\AppData\Local\Temp\cchD7lgK.s:1512   .text.asn1_oid_equal:000000000000002a .L0 
C:\Users\stapi\AppData\Local\Temp\cchD7lgK.s:1513   .text.asn1_oid_equal:000000000000002c .L0 
C:\Users\stapi\AppData\Local\Temp\cchD7lgK.s:1527   .text.asn1_get_integer:0000000000000000 asn1_get_integer
C:\Users\stapi\AppData\Local\Temp\cchD7lgK.s:1530   .text.asn1_get_integer:0000000000000000 .L0 
C:\Users\stapi\AppData\Local\Temp\cchD7lgK.s:1532   .text.asn1_get_integer:0000000000000000 .L0 
C:\Users\stapi\AppData\Local\Temp\cchD7lgK.s:1533   .text.asn1_get_integer:0000000000000008 .L0 
C:\Users\stapi\AppData\Local\Temp\cchD7lgK.s:1534   .text.asn1_get_integer:0000000000000008 .L0 
C:\Users\stapi\AppData\Local\Temp\cchD7lgK.s:1535   .text.asn1_get_integer:0000000000000008 .L0 
C:\Users\stapi\AppData\Local\Temp\cchD7lgK.s:1536   .text.asn1_get_integer:0000000000000008 .L0 
C:\Users\stapi\AppData\Local\Temp\cchD7lgK.s:1538   .text.asn1_get_integer:0000000000000008 .L0 
C:\Users\stapi\AppData\Local\Temp\cchD7lgK.s:1539   .text.asn1_get_integer:0000000000000008 .L0 
C:\Users\stapi\AppData\Local\Temp\cchD7lgK.s:1540   .text.asn1_get_integer:0000000000000008 .L0 
C:\Users\stapi\AppData\Local\Temp\cchD7lgK.s:1541   .text.asn1_get_integer:0000000000000008 .L0 
C:\Users\stapi\AppData\Local\Temp\cchD7lgK.s:1542   .text.asn1_get_integer:0000000000000008 .L0 
C:\Users\stapi\AppData\Local\Temp\cchD7lgK.s:1543   .text.asn1_get_integer:0000000000000008 .L0 
C:\Users\stapi\AppData\Local\Temp\cchD7lgK.s:1544   .text.asn1_get_integer:000000000000000a .L0 
C:\Users\stapi\AppData\Local\Temp\cchD7lgK.s:1546   .text.asn1_get_integer:000000000000000a .L0 
C:\Users\stapi\AppData\Local\Temp\cchD7lgK.s:1548   .text.asn1_get_integer:000000000000000c .L0 
C:\Users\stapi\AppData\Local\Temp\cchD7lgK.s:1551   .text.asn1_get_integer:000000000000000e .L0 
C:\Users\stapi\AppData\Local\Temp\cchD7lgK.s:1553   .text.asn1_get_integer:0000000000000010 .L0 
C:\Users\stapi\AppData\Local\Temp\cchD7lgK.s:1556   .text.asn1_get_integer:0000000000000018 .L0 
C:\Users\stapi\AppData\Local\Temp\cchD7lgK.s:1558   .text.asn1_get_integer:000000000000001c .L0 
C:\Users\stapi\AppData\Local\Temp\cchD7lgK.s:1560   .text.asn1_get_integer:000000000000001e .L0 
C:\Users\stapi\AppData\Local\Temp\cchD7lgK.s:1565   .text.asn1_get_integer:0000000000000020 .L0 
C:\Users\stapi\AppData\Local\Temp\cchD7lgK.s:1566   .text.asn1_get_integer:0000000000000020 .L0 
C:\Users\stapi\AppData\Local\Temp\cchD7lgK.s:1575   .text.asn1_get_integer:000000000000002e .L0 
C:\Users\stapi\AppData\Local\Temp\cchD7lgK.s:1576   .text.asn1_get_integer:000000000000002e .L0 
C:\Users\stapi\AppData\Local\Temp\cchD7lgK.s:1578   .text.asn1_get_integer:0000000000000030 .L0 
C:\Users\stapi\AppData\Local\Temp\cchD7lgK.s:1580   .text.asn1_get_integer:0000000000000032 .L0 
C:\Users\stapi\AppData\Local\Temp\cchD7lgK.s:1582   .text.asn1_get_integer:0000000000000036 .L0 
C:\Users\stapi\AppData\Local\Temp\cchD7lgK.s:1585   .text.asn1_get_integer:0000000000000038 .L0 
C:\Users\stapi\AppData\Local\Temp\cchD7lgK.s:1586   .text.asn1_get_integer:0000000000000038 .L0 
C:\Users\stapi\AppData\Local\Temp\cchD7lgK.s:1587   .text.asn1_get_integer:0000000000000038 .L0 
C:\Users\stapi\AppData\Local\Temp\cchD7lgK.s:1588   .text.asn1_get_integer:0000000000000038 .L0 
C:\Users\stapi\AppData\Local\Temp\cchD7lgK.s:1590   .text.asn1_get_integer:000000000000003c .L0 
C:\Users\stapi\AppData\Local\Temp\cchD7lgK.s:1594   .text.asn1_get_integer:000000000000003e .L0 
C:\Users\stapi\AppData\Local\Temp\cchD7lgK.s:1595   .text.asn1_get_integer:000000000000003e .L0 
C:\Users\stapi\AppData\Local\Temp\cchD7lgK.s:1597   .text.asn1_get_integer:0000000000000042 .L0 
C:\Users\stapi\AppData\Local\Temp\cchD7lgK.s:1600   .text.asn1_get_integer:0000000000000044 .L0 
C:\Users\stapi\AppData\Local\Temp\cchD7lgK.s:1601   .text.asn1_get_integer:0000000000000044 .L0 
C:\Users\stapi\AppData\Local\Temp\cchD7lgK.s:1604   .text.asn1_get_integer:0000000000000046 .L0 
C:\Users\stapi\AppData\Local\Temp\cchD7lgK.s:1607   .text.asn1_get_integer:0000000000000048 .L0 
C:\Users\stapi\AppData\Local\Temp\cchD7lgK.s:1608   .text.asn1_get_integer:0000000000000048 .L0 
C:\Users\stapi\AppData\Local\Temp\cchD7lgK.s:1610   .text.asn1_get_integer:000000000000004c .L0 
C:\Users\stapi\AppData\Local\Temp\cchD7lgK.s:1611   .text.asn1_get_integer:000000000000004c .L0 
C:\Users\stapi\AppData\Local\Temp\cchD7lgK.s:1613   .text.asn1_get_integer:000000000000004e .L0 
C:\Users\stapi\AppData\Local\Temp\cchD7lgK.s:1614   .text.asn1_get_integer:000000000000004e .L0 
C:\Users\stapi\AppData\Local\Temp\cchD7lgK.s:1619   .text.asn1_get_integer:0000000000000052 .L0 
C:\Users\stapi\AppData\Local\Temp\cchD7lgK.s:1626   .text.asn1_get_integer:0000000000000064 .L0 
C:\Users\stapi\AppData\Local\Temp\cchD7lgK.s:1627   .text.asn1_get_integer:0000000000000064 .L0 
C:\Users\stapi\AppData\Local\Temp\cchD7lgK.s:1628   .text.asn1_get_integer:0000000000000064 .L0 
C:\Users\stapi\AppData\Local\Temp\cchD7lgK.s:1631   .text.asn1_get_integer:0000000000000066 .L0 
C:\Users\stapi\AppData\Local\Temp\cchD7lgK.s:1632   .text.asn1_get_integer:0000000000000068 .L0 
C:\Users\stapi\AppData\Local\Temp\cchD7lgK.s:1633   .text.asn1_get_integer:0000000000000068 .L0 
C:\Users\stapi\AppData\Local\Temp\cchD7lgK.s:1635   .text.asn1_get_integer:0000000000000070 .L0 
C:\Users\stapi\AppData\Local\Temp\cchD7lgK.s:1636   .text.asn1_get_integer:0000000000000070 .L0 
C:\Users\stapi\AppData\Local\Temp\cchD7lgK.s:1637   .text.asn1_get_integer:0000000000000070 .L0 
C:\Users\stapi\AppData\Local\Temp\cchD7lgK.s:1638   .text.asn1_get_integer:0000000000000070 .L0 
C:\Users\stapi\AppData\Local\Temp\cchD7lgK.s:1641   .text.asn1_get_integer:0000000000000070 .L0 
C:\Users\stapi\AppData\Local\Temp\cchD7lgK.s:1643   .text.asn1_get_integer:0000000000000070 .L0 
C:\Users\stapi\AppData\Local\Temp\cchD7lgK.s:1649   .text.asn1_get_integer:0000000000000084 .L0 
C:\Users\stapi\AppData\Local\Temp\cchD7lgK.s:1660   .text.asn1_get_sequence:0000000000000000 asn1_get_sequence
C:\Users\stapi\AppData\Local\Temp\cchD7lgK.s:1663   .text.asn1_get_sequence:0000000000000000 .L0 
C:\Users\stapi\AppData\Local\Temp\cchD7lgK.s:1665   .text.asn1_get_sequence:0000000000000000 .L0 
C:\Users\stapi\AppData\Local\Temp\cchD7lgK.s:1666   .text.asn1_get_sequence:0000000000000008 .L0 
C:\Users\stapi\AppData\Local\Temp\cchD7lgK.s:1667   .text.asn1_get_sequence:0000000000000008 .L0 
C:\Users\stapi\AppData\Local\Temp\cchD7lgK.s:1668   .text.asn1_get_sequence:0000000000000008 .L0 
C:\Users\stapi\AppData\Local\Temp\cchD7lgK.s:1669   .text.asn1_get_sequence:0000000000000008 .L0 
C:\Users\stapi\AppData\Local\Temp\cchD7lgK.s:1671   .text.asn1_get_sequence:0000000000000008 .L0 
C:\Users\stapi\AppData\Local\Temp\cchD7lgK.s:1672   .text.asn1_get_sequence:0000000000000008 .L0 
C:\Users\stapi\AppData\Local\Temp\cchD7lgK.s:1675   .text.asn1_get_sequence:000000000000000c .L0 
C:\Users\stapi\AppData\Local\Temp\cchD7lgK.s:1678   .text.asn1_get_sequence:0000000000000014 .L0 
C:\Users\stapi\AppData\Local\Temp\cchD7lgK.s:1683   .text.asn1_get_sequence:0000000000000018 .L0 
C:\Users\stapi\AppData\Local\Temp\cchD7lgK.s:1684   .text.asn1_get_sequence:0000000000000018 .L0 
C:\Users\stapi\AppData\Local\Temp\cchD7lgK.s:1693   .text.asn1_get_sequence:0000000000000026 .L0 
C:\Users\stapi\AppData\Local\Temp\cchD7lgK.s:1694   .text.asn1_get_sequence:0000000000000026 .L0 
C:\Users\stapi\AppData\Local\Temp\cchD7lgK.s:1697   .text.asn1_get_sequence:0000000000000028 .L0 
C:\Users\stapi\AppData\Local\Temp\cchD7lgK.s:1701   .text.asn1_get_sequence:000000000000002c .L0 
C:\Users\stapi\AppData\Local\Temp\cchD7lgK.s:1707   .text.asn1_get_sequence:000000000000003e .L0 
C:\Users\stapi\AppData\Local\Temp\cchD7lgK.s:1708   .text.asn1_get_sequence:000000000000003e .L0 
C:\Users\stapi\AppData\Local\Temp\cchD7lgK.s:1711   .text.asn1_get_sequence:0000000000000040 .L0 
C:\Users\stapi\AppData\Local\Temp\cchD7lgK.s:1712   .text.asn1_get_sequence:0000000000000048 .L0 
C:\Users\stapi\AppData\Local\Temp\cchD7lgK.s:1713   .text.asn1_get_sequence:0000000000000048 .L0 
C:\Users\stapi\AppData\Local\Temp\cchD7lgK.s:1714   .text.asn1_get_sequence:0000000000000048 .L0 
C:\Users\stapi\AppData\Local\Temp\cchD7lgK.s:1715   .text.asn1_get_sequence:0000000000000048 .L0 
C:\Users\stapi\AppData\Local\Temp\cchD7lgK.s:1716   .text.asn1_get_sequence:0000000000000048 .L0 
C:\Users\stapi\AppData\Local\Temp\cchD7lgK.s:1718   .text.asn1_get_sequence:0000000000000048 .L0 
C:\Users\stapi\AppData\Local\Temp\cchD7lgK.s:1720   .text.asn1_get_sequence:0000000000000048 .L0 
C:\Users\stapi\AppData\Local\Temp\cchD7lgK.s:1721   .text.asn1_get_sequence:0000000000000048 .L0 
C:\Users\stapi\AppData\Local\Temp\cchD7lgK.s:1725   .text.asn1_get_sequence:000000000000004e .L0 
C:\Users\stapi\AppData\Local\Temp\cchD7lgK.s:1727   .text.asn1_get_sequence:0000000000000052 .L0 
C:\Users\stapi\AppData\Local\Temp\cchD7lgK.s:1734   .text.asn1_get_alg_id:0000000000000000 asn1_get_alg_id
C:\Users\stapi\AppData\Local\Temp\cchD7lgK.s:1737   .text.asn1_get_alg_id:0000000000000000 .L0 
C:\Users\stapi\AppData\Local\Temp\cchD7lgK.s:1739   .text.asn1_get_alg_id:0000000000000000 .L0 
C:\Users\stapi\AppData\Local\Temp\cchD7lgK.s:1740   .text.asn1_get_alg_id:0000000000000008 .L0 
C:\Users\stapi\AppData\Local\Temp\cchD7lgK.s:1741   .text.asn1_get_alg_id:0000000000000008 .L0 
C:\Users\stapi\AppData\Local\Temp\cchD7lgK.s:1742   .text.asn1_get_alg_id:0000000000000008 .L0 
C:\Users\stapi\AppData\Local\Temp\cchD7lgK.s:1743   .text.asn1_get_alg_id:0000000000000008 .L0 
C:\Users\stapi\AppData\Local\Temp\cchD7lgK.s:1744   .text.asn1_get_alg_id:0000000000000008 .L0 
C:\Users\stapi\AppData\Local\Temp\cchD7lgK.s:1746   .text.asn1_get_alg_id:0000000000000008 .L0 
C:\Users\stapi\AppData\Local\Temp\cchD7lgK.s:1747   .text.asn1_get_alg_id:0000000000000008 .L0 
C:\Users\stapi\AppData\Local\Temp\cchD7lgK.s:1748   .text.asn1_get_alg_id:000000000000000a .L0 
C:\Users\stapi\AppData\Local\Temp\cchD7lgK.s:1750   .text.asn1_get_alg_id:000000000000000a .L0 
C:\Users\stapi\AppData\Local\Temp\cchD7lgK.s:1753   .text.asn1_get_alg_id:000000000000000e .L0 
C:\Users\stapi\AppData\Local\Temp\cchD7lgK.s:1758   .text.asn1_get_alg_id:0000000000000012 .L0 
C:\Users\stapi\AppData\Local\Temp\cchD7lgK.s:1760   .text.asn1_get_alg_id:0000000000000014 .L0 
C:\Users\stapi\AppData\Local\Temp\cchD7lgK.s:1763   .text.asn1_get_alg_id:0000000000000016 .L0 
C:\Users\stapi\AppData\Local\Temp\cchD7lgK.s:1764   .text.asn1_get_alg_id:0000000000000016 .L0 
C:\Users\stapi\AppData\Local\Temp\cchD7lgK.s:1765   .text.asn1_get_alg_id:0000000000000016 .L0 
C:\Users\stapi\AppData\Local\Temp\cchD7lgK.s:1768   .text.asn1_get_alg_id:000000000000001e .L0 
C:\Users\stapi\AppData\Local\Temp\cchD7lgK.s:1771   .text.asn1_get_alg_id:0000000000000022 .L0 
C:\Users\stapi\AppData\Local\Temp\cchD7lgK.s:1774   .text.asn1_get_alg_id:0000000000000024 .L0 
C:\Users\stapi\AppData\Local\Temp\cchD7lgK.s:1775   .text.asn1_get_alg_id:0000000000000026 .L0 
C:\Users\stapi\AppData\Local\Temp\cchD7lgK.s:1776   .text.asn1_get_alg_id:0000000000000026 .L0 
C:\Users\stapi\AppData\Local\Temp\cchD7lgK.s:1778   .text.asn1_get_alg_id:000000000000002e .L0 
C:\Users\stapi\AppData\Local\Temp\cchD7lgK.s:1779   .text.asn1_get_alg_id:000000000000002e .L0 
C:\Users\stapi\AppData\Local\Temp\cchD7lgK.s:1780   .text.asn1_get_alg_id:000000000000002e .L0 
C:\Users\stapi\AppData\Local\Temp\cchD7lgK.s:1781   .text.asn1_get_alg_id:000000000000002e .L0 
C:\Users\stapi\AppData\Local\Temp\cchD7lgK.s:1782   .text.asn1_get_alg_id:000000000000002e .L0 
C:\Users\stapi\AppData\Local\Temp\cchD7lgK.s:1784   .text.asn1_get_alg_id:000000000000002e .L0 
C:\Users\stapi\AppData\Local\Temp\cchD7lgK.s:1786   .text.asn1_get_alg_id:000000000000002e .L0 
C:\Users\stapi\AppData\Local\Temp\cchD7lgK.s:1793   .text.asn1_get_alg_id:000000000000003e .L0 
C:\Users\stapi\AppData\Local\Temp\cchD7lgK.s:1795   .text.asn1_get_alg_id:0000000000000042 .L0 
C:\Users\stapi\AppData\Local\Temp\cchD7lgK.s:1796   .text.asn1_get_alg_id:0000000000000042 .L0 
C:\Users\stapi\AppData\Local\Temp\cchD7lgK.s:1798   .text.asn1_get_alg_id:0000000000000044 .L0 
C:\Users\stapi\AppData\Local\Temp\cchD7lgK.s:1800   .text.asn1_get_alg_id:0000000000000046 .L0 
C:\Users\stapi\AppData\Local\Temp\cchD7lgK.s:1802   .text.asn1_get_alg_id:0000000000000048 .L0 
C:\Users\stapi\AppData\Local\Temp\cchD7lgK.s:1803   .text.asn1_get_alg_id:0000000000000048 .L0 
C:\Users\stapi\AppData\Local\Temp\cchD7lgK.s:1806   .text.asn1_get_alg_id:000000000000004c .L0 
C:\Users\stapi\AppData\Local\Temp\cchD7lgK.s:1808   .text.asn1_get_alg_id:000000000000004e .L0 
C:\Users\stapi\AppData\Local\Temp\cchD7lgK.s:1810   .text.asn1_get_alg_id:0000000000000050 .L0 
C:\Users\stapi\AppData\Local\Temp\cchD7lgK.s:1812   .text.asn1_get_alg_id:0000000000000052 .L0 
C:\Users\stapi\AppData\Local\Temp\cchD7lgK.s:1813   .text.asn1_get_alg_id:0000000000000052 .L0 
C:\Users\stapi\AppData\Local\Temp\cchD7lgK.s:1815   .text.asn1_get_alg_id:0000000000000054 .L0 
C:\Users\stapi\AppData\Local\Temp\cchD7lgK.s:1817   .text.asn1_get_alg_id:0000000000000058 .L0 
C:\Users\stapi\AppData\Local\Temp\cchD7lgK.s:1824   .text.asn1_put_integer:0000000000000000 asn1_put_integer
C:\Users\stapi\AppData\Local\Temp\cchD7lgK.s:1827   .text.asn1_put_integer:0000000000000000 .L0 
C:\Users\stapi\AppData\Local\Temp\cchD7lgK.s:1829   .text.asn1_put_integer:0000000000000000 .L0 
C:\Users\stapi\AppData\Local\Temp\cchD7lgK.s:1830   .text.asn1_put_integer:0000000000000008 .L0 
C:\Users\stapi\AppData\Local\Temp\cchD7lgK.s:1831   .text.asn1_put_integer:0000000000000008 .L0 
C:\Users\stapi\AppData\Local\Temp\cchD7lgK.s:1832   .text.asn1_put_integer:0000000000000008 .L0 
C:\Users\stapi\AppData\Local\Temp\cchD7lgK.s:1834   .text.asn1_put_integer:0000000000000008 .L0 
C:\Users\stapi\AppData\Local\Temp\cchD7lgK.s:1835   .text.asn1_put_integer:0000000000000008 .L0 
C:\Users\stapi\AppData\Local\Temp\cchD7lgK.s:1836   .text.asn1_put_integer:0000000000000008 .L0 
C:\Users\stapi\AppData\Local\Temp\cchD7lgK.s:1837   .text.asn1_put_integer:0000000000000008 .L0 
C:\Users\stapi\AppData\Local\Temp\cchD7lgK.s:1838   .text.asn1_put_integer:000000000000000a .L0 
C:\Users\stapi\AppData\Local\Temp\cchD7lgK.s:1843   .text.asn1_put_integer:000000000000000a .L0 
C:\Users\stapi\AppData\Local\Temp\cchD7lgK.s:1844   .text.asn1_put_integer:000000000000000a .L0 
C:\Users\stapi\AppData\Local\Temp\cchD7lgK.s:1846   .text.asn1_put_integer:000000000000000e .L0 
C:\Users\stapi\AppData\Local\Temp\cchD7lgK.s:1848   .text.asn1_put_integer:0000000000000012 .L0 
C:\Users\stapi\AppData\Local\Temp\cchD7lgK.s:1849   .text.asn1_put_integer:0000000000000012 .L0 
C:\Users\stapi\AppData\Local\Temp\cchD7lgK.s:1851   .text.asn1_put_integer:0000000000000016 .L0 
C:\Users\stapi\AppData\Local\Temp\cchD7lgK.s:1852   .text.asn1_put_integer:0000000000000016 .L0 
C:\Users\stapi\AppData\Local\Temp\cchD7lgK.s:1859   .text.asn1_put_integer:0000000000000018 .L0 
C:\Users\stapi\AppData\Local\Temp\cchD7lgK.s:1860   .text.asn1_put_integer:0000000000000018 .L0 
C:\Users\stapi\AppData\Local\Temp\cchD7lgK.s:1865   .text.asn1_put_integer:000000000000001a .L0 
C:\Users\stapi\AppData\Local\Temp\cchD7lgK.s:1867   .text.asn1_put_integer:000000000000001c .L0 
C:\Users\stapi\AppData\Local\Temp\cchD7lgK.s:1871   .text.asn1_put_integer:0000000000000022 .L0 
C:\Users\stapi\AppData\Local\Temp\cchD7lgK.s:1872   .text.asn1_put_integer:0000000000000022 .L0 
C:\Users\stapi\AppData\Local\Temp\cchD7lgK.s:1873   .text.asn1_put_integer:0000000000000022 .L0 
C:\Users\stapi\AppData\Local\Temp\cchD7lgK.s:1875   .text.asn1_put_integer:0000000000000024 .L0 
C:\Users\stapi\AppData\Local\Temp\cchD7lgK.s:1879   .text.asn1_put_integer:000000000000002a .L0 
C:\Users\stapi\AppData\Local\Temp\cchD7lgK.s:1880   .text.asn1_put_integer:000000000000002a .L0 
C:\Users\stapi\AppData\Local\Temp\cchD7lgK.s:1881   .text.asn1_put_integer:000000000000002a .L0 
C:\Users\stapi\AppData\Local\Temp\cchD7lgK.s:1886   .text.asn1_put_integer:0000000000000030 .L0 
C:\Users\stapi\AppData\Local\Temp\cchD7lgK.s:1891   .text.asn1_put_integer:000000000000003c .L0 
C:\Users\stapi\AppData\Local\Temp\cchD7lgK.s:1898   .text.asn1_put_integer:000000000000004e .L0 
C:\Users\stapi\AppData\Local\Temp\cchD7lgK.s:1906   .text.asn1_put_integer:0000000000000062 .L0 
C:\Users\stapi\AppData\Local\Temp\cchD7lgK.s:1907   .text.asn1_put_integer:0000000000000064 .L0 
C:\Users\stapi\AppData\Local\Temp\cchD7lgK.s:1910   .text.asn1_put_integer:000000000000006c .L0 
C:\Users\stapi\AppData\Local\Temp\cchD7lgK.s:1911   .text.asn1_put_integer:000000000000006c .L0 
C:\Users\stapi\AppData\Local\Temp\cchD7lgK.s:1912   .text.asn1_put_integer:000000000000006c .L0 
C:\Users\stapi\AppData\Local\Temp\cchD7lgK.s:1913   .text.asn1_put_integer:000000000000006c .L0 
C:\Users\stapi\AppData\Local\Temp\cchD7lgK.s:1920   .text.asn1_put_octet_string:0000000000000000 asn1_put_octet_string
C:\Users\stapi\AppData\Local\Temp\cchD7lgK.s:1923   .text.asn1_put_octet_string:0000000000000000 .L0 
C:\Users\stapi\AppData\Local\Temp\cchD7lgK.s:1925   .text.asn1_put_octet_string:0000000000000000 .L0 
C:\Users\stapi\AppData\Local\Temp\cchD7lgK.s:1926   .text.asn1_put_octet_string:0000000000000008 .L0 
C:\Users\stapi\AppData\Local\Temp\cchD7lgK.s:1927   .text.asn1_put_octet_string:0000000000000008 .L0 
C:\Users\stapi\AppData\Local\Temp\cchD7lgK.s:1928   .text.asn1_put_octet_string:0000000000000008 .L0 
C:\Users\stapi\AppData\Local\Temp\cchD7lgK.s:1929   .text.asn1_put_octet_string:0000000000000008 .L0 
C:\Users\stapi\AppData\Local\Temp\cchD7lgK.s:1931   .text.asn1_put_octet_string:0000000000000008 .L0 
C:\Users\stapi\AppData\Local\Temp\cchD7lgK.s:1932   .text.asn1_put_octet_string:0000000000000008 .L0 
C:\Users\stapi\AppData\Local\Temp\cchD7lgK.s:1934   .text.asn1_put_octet_string:000000000000000a .L0 
C:\Users\stapi\AppData\Local\Temp\cchD7lgK.s:1937   .text.asn1_put_octet_string:000000000000000c .L0 
C:\Users\stapi\AppData\Local\Temp\cchD7lgK.s:1939   .text.asn1_put_octet_string:000000000000000e .L0 
C:\Users\stapi\AppData\Local\Temp\cchD7lgK.s:1944   .text.asn1_put_octet_string:0000000000000016 .L0 
C:\Users\stapi\AppData\Local\Temp\cchD7lgK.s:1947   .text.asn1_put_octet_string:0000000000000016 .L0 
C:\Users\stapi\AppData\Local\Temp\cchD7lgK.s:1948   .text.asn1_put_octet_string:0000000000000016 .L0 
C:\Users\stapi\AppData\Local\Temp\cchD7lgK.s:1953   .text.asn1_put_octet_string:0000000000000022 .L0 
C:\Users\stapi\AppData\Local\Temp\cchD7lgK.s:1958   .text.asn1_put_octet_string:000000000000002e .L0 
C:\Users\stapi\AppData\Local\Temp\cchD7lgK.s:1959   .text.asn1_put_octet_string:0000000000000036 .L0 
C:\Users\stapi\AppData\Local\Temp\cchD7lgK.s:1960   .text.asn1_put_octet_string:0000000000000036 .L0 
C:\Users\stapi\AppData\Local\Temp\cchD7lgK.s:1961   .text.asn1_put_octet_string:0000000000000036 .L0 
C:\Users\stapi\AppData\Local\Temp\cchD7lgK.s:1962   .text.asn1_put_octet_string:0000000000000036 .L0 
C:\Users\stapi\AppData\Local\Temp\cchD7lgK.s:1963   .text.asn1_put_octet_string:0000000000000036 .L0 
C:\Users\stapi\AppData\Local\Temp\cchD7lgK.s:1970   .text.asn1_put_oid:0000000000000000 asn1_put_oid
C:\Users\stapi\AppData\Local\Temp\cchD7lgK.s:1973   .text.asn1_put_oid:0000000000000000 .L0 
C:\Users\stapi\AppData\Local\Temp\cchD7lgK.s:1975   .text.asn1_put_oid:0000000000000000 .L0 
C:\Users\stapi\AppData\Local\Temp\cchD7lgK.s:1976   .text.asn1_put_oid:0000000000000000 .L0 
C:\Users\stapi\AppData\Local\Temp\cchD7lgK.s:1977   .text.asn1_put_oid:0000000000000000 .L0 
C:\Users\stapi\AppData\Local\Temp\cchD7lgK.s:1978   .text.asn1_put_oid:0000000000000000 .L0 
C:\Users\stapi\AppData\Local\Temp\cchD7lgK.s:1979   .text.asn1_put_oid:0000000000000000 .L0 
C:\Users\stapi\AppData\Local\Temp\cchD7lgK.s:1983   .text.asn1_put_oid:0000000000000008 .L0 
C:\Users\stapi\AppData\Local\Temp\cchD7lgK.s:1984   .text.asn1_put_oid:0000000000000010 .L0 
C:\Users\stapi\AppData\Local\Temp\cchD7lgK.s:1985   .text.asn1_put_oid:0000000000000010 .L0 
C:\Users\stapi\AppData\Local\Temp\cchD7lgK.s:1986   .text.asn1_put_oid:0000000000000010 .L0 
C:\Users\stapi\AppData\Local\Temp\cchD7lgK.s:1987   .text.asn1_put_oid:0000000000000010 .L0 
C:\Users\stapi\AppData\Local\Temp\cchD7lgK.s:1988   .text.asn1_put_oid:0000000000000010 .L0 
C:\Users\stapi\AppData\Local\Temp\cchD7lgK.s:1989   .text.asn1_put_oid:0000000000000010 .L0 
C:\Users\stapi\AppData\Local\Temp\cchD7lgK.s:1990   .text.asn1_put_oid:0000000000000010 .L0 
C:\Users\stapi\AppData\Local\Temp\cchD7lgK.s:1992   .text.asn1_put_oid:0000000000000012 .L0 
C:\Users\stapi\AppData\Local\Temp\cchD7lgK.s:1997   .text.asn1_put_oid:0000000000000014 .L0 
C:\Users\stapi\AppData\Local\Temp\cchD7lgK.s:2002   .text.asn1_put_oid:0000000000000018 .L0 
C:\Users\stapi\AppData\Local\Temp\cchD7lgK.s:2005   .text.asn1_put_oid:0000000000000020 .L0 
C:\Users\stapi\AppData\Local\Temp\cchD7lgK.s:2006   .text.asn1_put_oid:0000000000000020 .L0 
C:\Users\stapi\AppData\Local\Temp\cchD7lgK.s:2011   .text.asn1_put_oid:000000000000002c .L0 
C:\Users\stapi\AppData\Local\Temp\cchD7lgK.s:2015   .text.asn1_put_oid:0000000000000034 .L0 
C:\Users\stapi\AppData\Local\Temp\cchD7lgK.s:2018   .text.asn1_put_oid:0000000000000036 .L0 
C:\Users\stapi\AppData\Local\Temp\cchD7lgK.s:2025   .text.asn1_put_oid:0000000000000048 .L0 
C:\Users\stapi\AppData\Local\Temp\cchD7lgK.s:2026   .text.asn1_put_oid:0000000000000048 .L0 
C:\Users\stapi\AppData\Local\Temp\cchD7lgK.s:2030   .text.asn1_put_oid:000000000000004a .L0 
C:\Users\stapi\AppData\Local\Temp\cchD7lgK.s:2031   .text.asn1_put_oid:000000000000004a .L0 
C:\Users\stapi\AppData\Local\Temp\cchD7lgK.s:2034   .text.asn1_put_oid:0000000000000050 .L0 
C:\Users\stapi\AppData\Local\Temp\cchD7lgK.s:2035   .text.asn1_put_oid:0000000000000050 .L0 
C:\Users\stapi\AppData\Local\Temp\cchD7lgK.s:2040   .text.asn1_put_oid:000000000000005c .L0 
C:\Users\stapi\AppData\Local\Temp\cchD7lgK.s:2042   .text.asn1_put_oid:0000000000000060 .L0 
C:\Users\stapi\AppData\Local\Temp\cchD7lgK.s:2044   .text.asn1_put_oid:0000000000000062 .L0 
C:\Users\stapi\AppData\Local\Temp\cchD7lgK.s:2049   .text.asn1_put_oid:0000000000000066 .L0 
C:\Users\stapi\AppData\Local\Temp\cchD7lgK.s:2050   .text.asn1_put_oid:0000000000000068 .L0 
C:\Users\stapi\AppData\Local\Temp\cchD7lgK.s:2051   .text.asn1_put_oid:0000000000000068 .L0 
C:\Users\stapi\AppData\Local\Temp\cchD7lgK.s:2053   .text.asn1_put_oid:0000000000000070 .L0 
C:\Users\stapi\AppData\Local\Temp\cchD7lgK.s:2054   .text.asn1_put_oid:0000000000000070 .L0 
C:\Users\stapi\AppData\Local\Temp\cchD7lgK.s:2055   .text.asn1_put_oid:0000000000000070 .L0 
C:\Users\stapi\AppData\Local\Temp\cchD7lgK.s:2056   .text.asn1_put_oid:0000000000000070 .L0 
C:\Users\stapi\AppData\Local\Temp\cchD7lgK.s:2057   .text.asn1_put_oid:0000000000000070 .L0 
C:\Users\stapi\AppData\Local\Temp\cchD7lgK.s:2058   .text.asn1_put_oid:0000000000000070 .L0 
C:\Users\stapi\AppData\Local\Temp\cchD7lgK.s:2059   .text.asn1_put_oid:0000000000000070 .L0 
C:\Users\stapi\AppData\Local\Temp\cchD7lgK.s:2062   .text.asn1_put_oid:0000000000000070 .L0 
C:\Users\stapi\AppData\Local\Temp\cchD7lgK.s:2067   .text.asn1_put_oid:0000000000000070 .L0 
C:\Users\stapi\AppData\Local\Temp\cchD7lgK.s:2068   .text.asn1_put_oid:0000000000000070 .L0 
C:\Users\stapi\AppData\Local\Temp\cchD7lgK.s:2072   .text.asn1_put_oid:0000000000000076 .L0 
C:\Users\stapi\AppData\Local\Temp\cchD7lgK.s:2073   .text.asn1_put_oid:0000000000000076 .L0 
C:\Users\stapi\AppData\Local\Temp\cchD7lgK.s:2074   .text.asn1_put_oid:0000000000000076 .L0 
C:\Users\stapi\AppData\Local\Temp\cchD7lgK.s:2075   .text.asn1_put_oid:0000000000000076 .L0 
C:\Users\stapi\AppData\Local\Temp\cchD7lgK.s:2079   .text.asn1_put_oid:0000000000000078 .L0 
C:\Users\stapi\AppData\Local\Temp\cchD7lgK.s:2081   .text.asn1_put_oid:000000000000007a .L0 
C:\Users\stapi\AppData\Local\Temp\cchD7lgK.s:2082   .text.asn1_put_oid:000000000000007a .L0 
C:\Users\stapi\AppData\Local\Temp\cchD7lgK.s:2084   .text.asn1_put_oid:000000000000007c .L0 
C:\Users\stapi\AppData\Local\Temp\cchD7lgK.s:2091   .text.asn1_put_oid:0000000000000084 .L0 
C:\Users\stapi\AppData\Local\Temp\cchD7lgK.s:2092   .text.asn1_put_oid:0000000000000084 .L0 
C:\Users\stapi\AppData\Local\Temp\cchD7lgK.s:2093   .text.asn1_put_oid:0000000000000084 .L0 
C:\Users\stapi\AppData\Local\Temp\cchD7lgK.s:2096   .text.asn1_put_oid:0000000000000086 .L0 
C:\Users\stapi\AppData\Local\Temp\cchD7lgK.s:2103   .text.asn1_put_oid:0000000000000098 .L0 
C:\Users\stapi\AppData\Local\Temp\cchD7lgK.s:2106   .text.asn1_put_oid:000000000000009a .L0 
C:\Users\stapi\AppData\Local\Temp\cchD7lgK.s:2107   .text.asn1_put_oid:000000000000009a .L0 
C:\Users\stapi\AppData\Local\Temp\cchD7lgK.s:2114   .text.asn1_put_oid:000000000000009e .L0 
C:\Users\stapi\AppData\Local\Temp\cchD7lgK.s:2115   .text.asn1_put_oid:000000000000009e .L0 
C:\Users\stapi\AppData\Local\Temp\cchD7lgK.s:2117   .text.asn1_put_oid:00000000000000a2 .L0 
C:\Users\stapi\AppData\Local\Temp\cchD7lgK.s:2119   .text.asn1_put_oid:00000000000000a6 .L0 
C:\Users\stapi\AppData\Local\Temp\cchD7lgK.s:2121   .text.asn1_put_oid:00000000000000a8 .L0 
C:\Users\stapi\AppData\Local\Temp\cchD7lgK.s:2124   .text.asn1_put_oid:00000000000000ac .L0 
C:\Users\stapi\AppData\Local\Temp\cchD7lgK.s:2126   .text.asn1_put_oid:00000000000000ae .L0 
C:\Users\stapi\AppData\Local\Temp\cchD7lgK.s:2128   .text.asn1_put_oid:00000000000000b2 .L0 
C:\Users\stapi\AppData\Local\Temp\cchD7lgK.s:2129   .text.asn1_put_oid:00000000000000b2 .L0 
C:\Users\stapi\AppData\Local\Temp\cchD7lgK.s:2132   .text.asn1_put_oid:00000000000000b4 .L0 
C:\Users\stapi\AppData\Local\Temp\cchD7lgK.s:2133   .text.asn1_put_oid:00000000000000b4 .L0 
C:\Users\stapi\AppData\Local\Temp\cchD7lgK.s:2138   .text.asn1_put_oid:00000000000000b8 .L0 
C:\Users\stapi\AppData\Local\Temp\cchD7lgK.s:2140   .text.asn1_put_oid:00000000000000ba .L0 
C:\Users\stapi\AppData\Local\Temp\cchD7lgK.s:2145   .text.asn1_put_oid:00000000000000be .L0 
C:\Users\stapi\AppData\Local\Temp\cchD7lgK.s:2146   .text.asn1_put_oid:00000000000000be .L0 
C:\Users\stapi\AppData\Local\Temp\cchD7lgK.s:2147   .text.asn1_put_oid:00000000000000be .L0 
C:\Users\stapi\AppData\Local\Temp\cchD7lgK.s:2148   .text.asn1_put_oid:00000000000000be .L0 
C:\Users\stapi\AppData\Local\Temp\cchD7lgK.s:2149   .text.asn1_put_oid:00000000000000be .L0 
C:\Users\stapi\AppData\Local\Temp\cchD7lgK.s:2150   .text.asn1_put_oid:00000000000000be .L0 
C:\Users\stapi\AppData\Local\Temp\cchD7lgK.s:2151   .text.asn1_put_oid:00000000000000be .L0 
C:\Users\stapi\AppData\Local\Temp\cchD7lgK.s:2156   .text.asn1_put_oid:00000000000000c0 .L0 
C:\Users\stapi\AppData\Local\Temp\cchD7lgK.s:2163   .text.asn1_put_hdr:0000000000000000 asn1_put_hdr
C:\Users\stapi\AppData\Local\Temp\cchD7lgK.s:2166   .text.asn1_put_hdr:0000000000000000 .L0 
C:\Users\stapi\AppData\Local\Temp\cchD7lgK.s:2168   .text.asn1_put_hdr:0000000000000000 .L0 
C:\Users\stapi\AppData\Local\Temp\cchD7lgK.s:2169   .text.asn1_put_hdr:0000000000000008 .L0 
C:\Users\stapi\AppData\Local\Temp\cchD7lgK.s:2170   .text.asn1_put_hdr:0000000000000008 .L0 
C:\Users\stapi\AppData\Local\Temp\cchD7lgK.s:2171   .text.asn1_put_hdr:0000000000000008 .L0 
C:\Users\stapi\AppData\Local\Temp\cchD7lgK.s:2172   .text.asn1_put_hdr:0000000000000008 .L0 
C:\Users\stapi\AppData\Local\Temp\cchD7lgK.s:2174   .text.asn1_put_hdr:0000000000000008 .L0 
C:\Users\stapi\AppData\Local\Temp\cchD7lgK.s:2175   .text.asn1_put_hdr:0000000000000008 .L0 
C:\Users\stapi\AppData\Local\Temp\cchD7lgK.s:2182   .text.asn1_put_hdr:0000000000000012 .L0 
C:\Users\stapi\AppData\Local\Temp\cchD7lgK.s:2185   .text.asn1_put_hdr:0000000000000016 .L0 
C:\Users\stapi\AppData\Local\Temp\cchD7lgK.s:2187   .text.asn1_put_hdr:000000000000001a .L0 
C:\Users\stapi\AppData\Local\Temp\cchD7lgK.s:2190   .text.asn1_put_hdr:000000000000001e .L0 
C:\Users\stapi\AppData\Local\Temp\cchD7lgK.s:2193   .text.asn1_put_hdr:0000000000000026 .L0 
C:\Users\stapi\AppData\Local\Temp\cchD7lgK.s:2198   .text.asn1_put_hdr:0000000000000032 .L0 
C:\Users\stapi\AppData\Local\Temp\cchD7lgK.s:2199   .text.asn1_put_hdr:000000000000003a .L0 
C:\Users\stapi\AppData\Local\Temp\cchD7lgK.s:2200   .text.asn1_put_hdr:000000000000003a .L0 
C:\Users\stapi\AppData\Local\Temp\cchD7lgK.s:2201   .text.asn1_put_hdr:000000000000003a .L0 
C:\Users\stapi\AppData\Local\Temp\cchD7lgK.s:2202   .text.asn1_put_hdr:000000000000003a .L0 
C:\Users\stapi\AppData\Local\Temp\cchD7lgK.s:2203   .text.asn1_put_hdr:000000000000003a .L0 
C:\Users\stapi\AppData\Local\Temp\cchD7lgK.s:2210   .text.asn1_put_sequence:0000000000000000 asn1_put_sequence
C:\Users\stapi\AppData\Local\Temp\cchD7lgK.s:2213   .text.asn1_put_sequence:0000000000000000 .L0 
C:\Users\stapi\AppData\Local\Temp\cchD7lgK.s:2215   .text.asn1_put_sequence:0000000000000000 .L0 
C:\Users\stapi\AppData\Local\Temp\cchD7lgK.s:2216   .text.asn1_put_sequence:0000000000000008 .L0 
C:\Users\stapi\AppData\Local\Temp\cchD7lgK.s:2217   .text.asn1_put_sequence:0000000000000008 .L0 
C:\Users\stapi\AppData\Local\Temp\cchD7lgK.s:2218   .text.asn1_put_sequence:0000000000000008 .L0 
C:\Users\stapi\AppData\Local\Temp\cchD7lgK.s:2219   .text.asn1_put_sequence:0000000000000008 .L0 
C:\Users\stapi\AppData\Local\Temp\cchD7lgK.s:2220   .text.asn1_put_sequence:0000000000000008 .L0 
C:\Users\stapi\AppData\Local\Temp\cchD7lgK.s:2225   .text.asn1_put_sequence:0000000000000008 .L0 
C:\Users\stapi\AppData\Local\Temp\cchD7lgK.s:2226   .text.asn1_put_sequence:0000000000000008 .L0 
C:\Users\stapi\AppData\Local\Temp\cchD7lgK.s:2227   .text.asn1_put_sequence:0000000000000008 .L0 
C:\Users\stapi\AppData\Local\Temp\cchD7lgK.s:2232   .text.asn1_put_sequence:000000000000000c .L0 
C:\Users\stapi\AppData\Local\Temp\cchD7lgK.s:2236   .text.asn1_put_sequence:000000000000000e .L0 
C:\Users\stapi\AppData\Local\Temp\cchD7lgK.s:2241   .text.asn1_put_sequence:0000000000000012 .L0 
C:\Users\stapi\AppData\Local\Temp\cchD7lgK.s:2246   .text.asn1_put_sequence:0000000000000014 .L0 
C:\Users\stapi\AppData\Local\Temp\cchD7lgK.s:2249   .text.asn1_put_sequence:000000000000001c .L0 
C:\Users\stapi\AppData\Local\Temp\cchD7lgK.s:2256   .text.asn1_put_sequence:0000000000000028 .L0 
C:\Users\stapi\AppData\Local\Temp\cchD7lgK.s:2261   .text.asn1_put_sequence:0000000000000034 .L0 
C:\Users\stapi\AppData\Local\Temp\cchD7lgK.s:2262   .text.asn1_put_sequence:000000000000003c .L0 
C:\Users\stapi\AppData\Local\Temp\cchD7lgK.s:2263   .text.asn1_put_sequence:000000000000003c .L0 
C:\Users\stapi\AppData\Local\Temp\cchD7lgK.s:2264   .text.asn1_put_sequence:000000000000003c .L0 
C:\Users\stapi\AppData\Local\Temp\cchD7lgK.s:2265   .text.asn1_put_sequence:000000000000003c .L0 
C:\Users\stapi\AppData\Local\Temp\cchD7lgK.s:2266   .text.asn1_put_sequence:000000000000003c .L0 
C:\Users\stapi\AppData\Local\Temp\cchD7lgK.s:2267   .text.asn1_put_sequence:000000000000003c .L0 
C:\Users\stapi\AppData\Local\Temp\cchD7lgK.s:2274   .text.asn1_put_set:0000000000000000 asn1_put_set
C:\Users\stapi\AppData\Local\Temp\cchD7lgK.s:2277   .text.asn1_put_set:0000000000000000 .L0 
C:\Users\stapi\AppData\Local\Temp\cchD7lgK.s:2279   .text.asn1_put_set:0000000000000000 .L0 
C:\Users\stapi\AppData\Local\Temp\cchD7lgK.s:2280   .text.asn1_put_set:0000000000000008 .L0 
C:\Users\stapi\AppData\Local\Temp\cchD7lgK.s:2281   .text.asn1_put_set:0000000000000008 .L0 
C:\Users\stapi\AppData\Local\Temp\cchD7lgK.s:2282   .text.asn1_put_set:0000000000000008 .L0 
C:\Users\stapi\AppData\Local\Temp\cchD7lgK.s:2283   .text.asn1_put_set:0000000000000008 .L0 
C:\Users\stapi\AppData\Local\Temp\cchD7lgK.s:2284   .text.asn1_put_set:0000000000000008 .L0 
C:\Users\stapi\AppData\Local\Temp\cchD7lgK.s:2289   .text.asn1_put_set:0000000000000008 .L0 
C:\Users\stapi\AppData\Local\Temp\cchD7lgK.s:2290   .text.asn1_put_set:0000000000000008 .L0 
C:\Users\stapi\AppData\Local\Temp\cchD7lgK.s:2291   .text.asn1_put_set:0000000000000008 .L0 
C:\Users\stapi\AppData\Local\Temp\cchD7lgK.s:2296   .text.asn1_put_set:000000000000000c .L0 
C:\Users\stapi\AppData\Local\Temp\cchD7lgK.s:2300   .text.asn1_put_set:000000000000000e .L0 
C:\Users\stapi\AppData\Local\Temp\cchD7lgK.s:2305   .text.asn1_put_set:0000000000000012 .L0 
C:\Users\stapi\AppData\Local\Temp\cchD7lgK.s:2310   .text.asn1_put_set:0000000000000014 .L0 
C:\Users\stapi\AppData\Local\Temp\cchD7lgK.s:2313   .text.asn1_put_set:000000000000001c .L0 
C:\Users\stapi\AppData\Local\Temp\cchD7lgK.s:2320   .text.asn1_put_set:0000000000000028 .L0 
C:\Users\stapi\AppData\Local\Temp\cchD7lgK.s:2325   .text.asn1_put_set:0000000000000034 .L0 
C:\Users\stapi\AppData\Local\Temp\cchD7lgK.s:2326   .text.asn1_put_set:000000000000003c .L0 
C:\Users\stapi\AppData\Local\Temp\cchD7lgK.s:2327   .text.asn1_put_set:000000000000003c .L0 
C:\Users\stapi\AppData\Local\Temp\cchD7lgK.s:2328   .text.asn1_put_set:000000000000003c .L0 
C:\Users\stapi\AppData\Local\Temp\cchD7lgK.s:2329   .text.asn1_put_set:000000000000003c .L0 
C:\Users\stapi\AppData\Local\Temp\cchD7lgK.s:2330   .text.asn1_put_set:000000000000003c .L0 
C:\Users\stapi\AppData\Local\Temp\cchD7lgK.s:2331   .text.asn1_put_set:000000000000003c .L0 
C:\Users\stapi\AppData\Local\Temp\cchD7lgK.s:2338   .text.asn1_put_utf8string:0000000000000000 asn1_put_utf8string
C:\Users\stapi\AppData\Local\Temp\cchD7lgK.s:2341   .text.asn1_put_utf8string:0000000000000000 .L0 
C:\Users\stapi\AppData\Local\Temp\cchD7lgK.s:2343   .text.asn1_put_utf8string:0000000000000000 .L0 
C:\Users\stapi\AppData\Local\Temp\cchD7lgK.s:2344   .text.asn1_put_utf8string:0000000000000008 .L0 
C:\Users\stapi\AppData\Local\Temp\cchD7lgK.s:2345   .text.asn1_put_utf8string:0000000000000008 .L0 
C:\Users\stapi\AppData\Local\Temp\cchD7lgK.s:2346   .text.asn1_put_utf8string:0000000000000008 .L0 
C:\Users\stapi\AppData\Local\Temp\cchD7lgK.s:2347   .text.asn1_put_utf8string:0000000000000008 .L0 
C:\Users\stapi\AppData\Local\Temp\cchD7lgK.s:2348   .text.asn1_put_utf8string:0000000000000008 .L0 
C:\Users\stapi\AppData\Local\Temp\cchD7lgK.s:2350   .text.asn1_put_utf8string:0000000000000008 .L0 
C:\Users\stapi\AppData\Local\Temp\cchD7lgK.s:2351   .text.asn1_put_utf8string:0000000000000008 .L0 
C:\Users\stapi\AppData\Local\Temp\cchD7lgK.s:2353   .text.asn1_put_utf8string:000000000000000a .L0 
C:\Users\stapi\AppData\Local\Temp\cchD7lgK.s:2356   .text.asn1_put_utf8string:000000000000000c .L0 
C:\Users\stapi\AppData\Local\Temp\cchD7lgK.s:2358   .text.asn1_put_utf8string:000000000000000e .L0 
C:\Users\stapi\AppData\Local\Temp\cchD7lgK.s:2365   .text.asn1_put_utf8string:0000000000000018 .L0 
C:\Users\stapi\AppData\Local\Temp\cchD7lgK.s:2371   .text.asn1_put_utf8string:0000000000000024 .L0 
C:\Users\stapi\AppData\Local\Temp\cchD7lgK.s:2380   .text.asn1_put_utf8string:0000000000000030 .L0 
C:\Users\stapi\AppData\Local\Temp\cchD7lgK.s:2381   .text.asn1_put_utf8string:0000000000000030 .L0 
C:\Users\stapi\AppData\Local\Temp\cchD7lgK.s:2392   .text.asn1_put_utf8string:0000000000000048 .L0 
C:\Users\stapi\AppData\Local\Temp\cchD7lgK.s:2393   .text.asn1_put_utf8string:0000000000000050 .L0 
C:\Users\stapi\AppData\Local\Temp\cchD7lgK.s:2394   .text.asn1_put_utf8string:0000000000000050 .L0 
C:\Users\stapi\AppData\Local\Temp\cchD7lgK.s:2395   .text.asn1_put_utf8string:0000000000000050 .L0 
C:\Users\stapi\AppData\Local\Temp\cchD7lgK.s:2396   .text.asn1_put_utf8string:0000000000000050 .L0 
C:\Users\stapi\AppData\Local\Temp\cchD7lgK.s:2397   .text.asn1_put_utf8string:0000000000000050 .L0 
C:\Users\stapi\AppData\Local\Temp\cchD7lgK.s:2398   .text.asn1_put_utf8string:0000000000000050 .L0 
C:\Users\stapi\AppData\Local\Temp\cchD7lgK.s:2405   .text.asn1_encaps:0000000000000000 asn1_encaps
C:\Users\stapi\AppData\Local\Temp\cchD7lgK.s:2408   .text.asn1_encaps:0000000000000000 .L0 
C:\Users\stapi\AppData\Local\Temp\cchD7lgK.s:2410   .text.asn1_encaps:0000000000000000 .L0 
C:\Users\stapi\AppData\Local\Temp\cchD7lgK.s:2411   .text.asn1_encaps:0000000000000008 .L0 
C:\Users\stapi\AppData\Local\Temp\cchD7lgK.s:2412   .text.asn1_encaps:0000000000000008 .L0 
C:\Users\stapi\AppData\Local\Temp\cchD7lgK.s:2413   .text.asn1_encaps:0000000000000008 .L0 
C:\Users\stapi\AppData\Local\Temp\cchD7lgK.s:2414   .text.asn1_encaps:0000000000000008 .L0 
C:\Users\stapi\AppData\Local\Temp\cchD7lgK.s:2416   .text.asn1_encaps:0000000000000008 .L0 
C:\Users\stapi\AppData\Local\Temp\cchD7lgK.s:2417   .text.asn1_encaps:0000000000000008 .L0 
C:\Users\stapi\AppData\Local\Temp\cchD7lgK.s:2418   .text.asn1_encaps:0000000000000008 .L0 
C:\Users\stapi\AppData\Local\Temp\cchD7lgK.s:2419   .text.asn1_encaps:000000000000000a .L0 
C:\Users\stapi\AppData\Local\Temp\cchD7lgK.s:2421   .text.asn1_encaps:000000000000000a .L0 
C:\Users\stapi\AppData\Local\Temp\cchD7lgK.s:2425   .text.asn1_encaps:0000000000000010 .L0 
C:\Users\stapi\AppData\Local\Temp\cchD7lgK.s:2430   .text.asn1_encaps:0000000000000012 .L0 
C:\Users\stapi\AppData\Local\Temp\cchD7lgK.s:2433   .text.asn1_encaps:0000000000000012 .L0 
C:\Users\stapi\AppData\Local\Temp\cchD7lgK.s:2434   .text.asn1_encaps:0000000000000012 .L0 
C:\Users\stapi\AppData\Local\Temp\cchD7lgK.s:2442   .text.asn1_encaps:0000000000000020 .L0 
C:\Users\stapi\AppData\Local\Temp\cchD7lgK.s:2443   .text.asn1_encaps:0000000000000020 .L0 
C:\Users\stapi\AppData\Local\Temp\cchD7lgK.s:2448   .text.asn1_encaps:0000000000000022 .L0 
C:\Users\stapi\AppData\Local\Temp\cchD7lgK.s:2451   .text.asn1_encaps:0000000000000022 .L0 
C:\Users\stapi\AppData\Local\Temp\cchD7lgK.s:2452   .text.asn1_encaps:0000000000000022 .L0 
C:\Users\stapi\AppData\Local\Temp\cchD7lgK.s:2459   .text.asn1_encaps:0000000000000032 .L0 
C:\Users\stapi\AppData\Local\Temp\cchD7lgK.s:2465   .text.asn1_encaps:000000000000003e .L0 
C:\Users\stapi\AppData\Local\Temp\cchD7lgK.s:2469   .text.asn1_encaps:0000000000000048 .L0 
C:\Users\stapi\AppData\Local\Temp\cchD7lgK.s:2470   .text.asn1_encaps:0000000000000048 .L0 
C:\Users\stapi\AppData\Local\Temp\cchD7lgK.s:2474   .text.asn1_encaps:000000000000004a .L0 
C:\Users\stapi\AppData\Local\Temp\cchD7lgK.s:2476   .text.asn1_encaps:000000000000004e .L0 
C:\Users\stapi\AppData\Local\Temp\cchD7lgK.s:2478   .text.asn1_encaps:0000000000000056 .L0 
C:\Users\stapi\AppData\Local\Temp\cchD7lgK.s:2479   .text.asn1_encaps:0000000000000056 .L0 
C:\Users\stapi\AppData\Local\Temp\cchD7lgK.s:2480   .text.asn1_encaps:0000000000000056 .L0 
C:\Users\stapi\AppData\Local\Temp\cchD7lgK.s:2481   .text.asn1_encaps:0000000000000056 .L0 
C:\Users\stapi\AppData\Local\Temp\cchD7lgK.s:2482   .text.asn1_encaps:0000000000000056 .L0 
C:\Users\stapi\AppData\Local\Temp\cchD7lgK.s:2489   .text.asn1_build_alg_id:0000000000000000 asn1_build_alg_id
C:\Users\stapi\AppData\Local\Temp\cchD7lgK.s:2492   .text.asn1_build_alg_id:0000000000000000 .L0 
C:\Users\stapi\AppData\Local\Temp\cchD7lgK.s:2494   .text.asn1_build_alg_id:0000000000000000 .L0 
C:\Users\stapi\AppData\Local\Temp\cchD7lgK.s:2495   .text.asn1_build_alg_id:0000000000000008 .L0 
C:\Users\stapi\AppData\Local\Temp\cchD7lgK.s:2496   .text.asn1_build_alg_id:0000000000000008 .L0 
C:\Users\stapi\AppData\Local\Temp\cchD7lgK.s:2497   .text.asn1_build_alg_id:0000000000000008 .L0 
C:\Users\stapi\AppData\Local\Temp\cchD7lgK.s:2498   .text.asn1_build_alg_id:0000000000000008 .L0 
C:\Users\stapi\AppData\Local\Temp\cchD7lgK.s:2499   .text.asn1_build_alg_id:0000000000000008 .L0 
C:\Users\stapi\AppData\Local\Temp\cchD7lgK.s:2501   .text.asn1_build_alg_id:0000000000000008 .L0 
C:\Users\stapi\AppData\Local\Temp\cchD7lgK.s:2502   .text.asn1_build_alg_id:0000000000000008 .L0 
C:\Users\stapi\AppData\Local\Temp\cchD7lgK.s:2504   .text.asn1_build_alg_id:0000000000000008 .L0 
C:\Users\stapi\AppData\Local\Temp\cchD7lgK.s:2505   .text.asn1_build_alg_id:0000000000000008 .L0 
C:\Users\stapi\AppData\Local\Temp\cchD7lgK.s:2506   .text.asn1_build_alg_id:0000000000000008 .L0 
C:\Users\stapi\AppData\Local\Temp\cchD7lgK.s:2511   .text.asn1_build_alg_id:0000000000000010 .L0 
C:\Users\stapi\AppData\Local\Temp\cchD7lgK.s:2516   .text.asn1_build_alg_id:0000000000000012 .L0 
C:\Users\stapi\AppData\Local\Temp\cchD7lgK.s:2519   .text.asn1_build_alg_id:0000000000000012 .L0 
C:\Users\stapi\AppData\Local\Temp\cchD7lgK.s:2520   .text.asn1_build_alg_id:0000000000000012 .L0 
C:\Users\stapi\AppData\Local\Temp\cchD7lgK.s:2525   .text.asn1_build_alg_id:0000000000000018 .L0 
C:\Users\stapi\AppData\Local\Temp\cchD7lgK.s:2526   .text.asn1_build_alg_id:0000000000000018 .L0 
C:\Users\stapi\AppData\Local\Temp\cchD7lgK.s:2531   .text.asn1_build_alg_id:0000000000000022 .L0 
C:\Users\stapi\AppData\Local\Temp\cchD7lgK.s:2532   .text.asn1_build_alg_id:0000000000000022 .L0 
C:\Users\stapi\AppData\Local\Temp\cchD7lgK.s:2534   .text.asn1_build_alg_id:0000000000000024 .L0 
C:\Users\stapi\AppData\Local\Temp\cchD7lgK.s:2538   .text.asn1_build_alg_id:000000000000002e .L0 
C:\Users\stapi\AppData\Local\Temp\cchD7lgK.s:2539   .text.asn1_build_alg_id:000000000000002e .L0 
C:\Users\stapi\AppData\Local\Temp\cchD7lgK.s:2541   .text.asn1_build_alg_id:0000000000000030 .L0 
C:\Users\stapi\AppData\Local\Temp\cchD7lgK.s:2547   .text.asn1_build_alg_id:000000000000003c .L0 
C:\Users\stapi\AppData\Local\Temp\cchD7lgK.s:2548   .text.asn1_build_alg_id:000000000000003c .L0 
C:\Users\stapi\AppData\Local\Temp\cchD7lgK.s:2557   .text.asn1_build_alg_id:000000000000004c .L0 
C:\Users\stapi\AppData\Local\Temp\cchD7lgK.s:2559   .text.asn1_build_alg_id:0000000000000056 .L0 
C:\Users\stapi\AppData\Local\Temp\cchD7lgK.s:2560   .text.asn1_build_alg_id:0000000000000056 .L0 
C:\Users\stapi\AppData\Local\Temp\cchD7lgK.s:2561   .text.asn1_build_alg_id:0000000000000056 .L0 
C:\Users\stapi\AppData\Local\Temp\cchD7lgK.s:2562   .text.asn1_build_alg_id:0000000000000056 .L0 
C:\Users\stapi\AppData\Local\Temp\cchD7lgK.s:2563   .text.asn1_build_alg_id:0000000000000056 .L0 
C:\Users\stapi\AppData\Local\Temp\cchD7lgK.s:2564   .text.asn1_build_alg_id:0000000000000056 .L0 
C:\Users\stapi\AppData\Local\Temp\cchD7lgK.s:2695   .rodata.asn1_dpp_asymmetric_key_package_oid:0000000000000000 asn1_dpp_asymmetric_key_package_oid
C:\Users\stapi\AppData\Local\Temp\cchD7lgK.s:2712   .rodata.asn1_dpp_config_params_oid:0000000000000000 asn1_dpp_config_params_oid
C:\Users\stapi\AppData\Local\Temp\cchD7lgK.s:2768   .rodata.asn1_pbkdf2_hmac_sha512_oid:0000000000000000 asn1_pbkdf2_hmac_sha512_oid
C:\Users\stapi\AppData\Local\Temp\cchD7lgK.s:2755   .rodata.asn1_pbkdf2_hmac_sha384_oid:0000000000000000 asn1_pbkdf2_hmac_sha384_oid
C:\Users\stapi\AppData\Local\Temp\cchD7lgK.s:2742   .rodata.asn1_pbkdf2_hmac_sha256_oid:0000000000000000 asn1_pbkdf2_hmac_sha256_oid
C:\Users\stapi\AppData\Local\Temp\cchD7lgK.s:2781   .rodata.asn1_pbkdf2_oid:0000000000000000 asn1_pbkdf2_oid
C:\Users\stapi\AppData\Local\Temp\cchD7lgK.s:2628   .rodata.asn1_aes_siv_cmac_aead_512_oid:0000000000000000 asn1_aes_siv_cmac_aead_512_oid
C:\Users\stapi\AppData\Local\Temp\cchD7lgK.s:2612   .rodata.asn1_aes_siv_cmac_aead_384_oid:0000000000000000 asn1_aes_siv_cmac_aead_384_oid
C:\Users\stapi\AppData\Local\Temp\cchD7lgK.s:2596   .rodata.asn1_aes_siv_cmac_aead_256_oid:0000000000000000 asn1_aes_siv_cmac_aead_256_oid
C:\Users\stapi\AppData\Local\Temp\cchD7lgK.s:2678   .rodata.asn1_brainpoolP512r1_oid:0000000000000000 asn1_brainpoolP512r1_oid
C:\Users\stapi\AppData\Local\Temp\cchD7lgK.s:2661   .rodata.asn1_brainpoolP384r1_oid:0000000000000000 asn1_brainpoolP384r1_oid
C:\Users\stapi\AppData\Local\Temp\cchD7lgK.s:2644   .rodata.asn1_brainpoolP256r1_oid:0000000000000000 asn1_brainpoolP256r1_oid
C:\Users\stapi\AppData\Local\Temp\cchD7lgK.s:2821   .rodata.asn1_secp521r1_oid:0000000000000000 asn1_secp521r1_oid
C:\Users\stapi\AppData\Local\Temp\cchD7lgK.s:2809   .rodata.asn1_secp384r1_oid:0000000000000000 asn1_secp384r1_oid
C:\Users\stapi\AppData\Local\Temp\cchD7lgK.s:2795   .rodata.asn1_prime256v1_oid:0000000000000000 asn1_prime256v1_oid
C:\Users\stapi\AppData\Local\Temp\cchD7lgK.s:2729   .rodata.asn1_ec_public_key_oid:0000000000000000 asn1_ec_public_key_oid
C:\Users\stapi\AppData\Local\Temp\cchD7lgK.s:2846   .rodata.asn1_sha256_oid:0000000000000000 asn1_sha256_oid
C:\Users\stapi\AppData\Local\Temp\cchD7lgK.s:2833   .rodata.asn1_sha1_oid:0000000000000000 asn1_sha1_oid
C:\Users\stapi\AppData\Local\Temp\cchD7lgK.s:2587   .rodata.__func__.0:0000000000000000 .LANCHOR0
C:\Users\stapi\AppData\Local\Temp\cchD7lgK.s:2590   .rodata.__func__.0:0000000000000000 __func__.0
C:\Users\stapi\AppData\Local\Temp\cchD7lgK.s:66     .text.rotate_bits:000000000000001e .L0 
C:\Users\stapi\AppData\Local\Temp\cchD7lgK.s:98     .text.wpabuf_put_u8:0000000000000020 .L0 
C:\Users\stapi\AppData\Local\Temp\cchD7lgK.s:147    .text.wpabuf_put_data:0000000000000032 .L0 
C:\Users\stapi\AppData\Local\Temp\cchD7lgK.s:175    .text.wpabuf_put_buf:000000000000000c .L0 
C:\Users\stapi\AppData\Local\Temp\cchD7lgK.s:383    .text.asn1_put_len:00000000000000dc .L0 
C:\Users\stapi\AppData\Local\Temp\cchD7lgK.s:413    .text.asn1_print_hdr:000000000000001e .L0 
C:\Users\stapi\AppData\Local\Temp\cchD7lgK.s:923    .text.asn1_get_next:000000000000024c .L0 
C:\Users\stapi\AppData\Local\Temp\cchD7lgK.s:953    .text.asn1_unexpected:000000000000001e .L0 
C:\Users\stapi\AppData\Local\Temp\cchD7lgK.s:1119   .text.asn1_parse_oid:00000000000000a4 .L0 
C:\Users\stapi\AppData\Local\Temp\cchD7lgK.s:1210   .text.asn1_get_oid:0000000000000060 .L0 
C:\Users\stapi\AppData\Local\Temp\cchD7lgK.s:1348   .text.asn1_oid_to_str:0000000000000072 .L0 
C:\Users\stapi\AppData\Local\Temp\cchD7lgK.s:1462   .text.asn1_bit_string_to_long:0000000000000090 .L0 
C:\Users\stapi\AppData\Local\Temp\cchD7lgK.s:1516   .text.asn1_oid_equal:000000000000002c .L0 
C:\Users\stapi\AppData\Local\Temp\cchD7lgK.s:1652   .text.asn1_get_integer:0000000000000084 .L0 
C:\Users\stapi\AppData\Local\Temp\cchD7lgK.s:1730   .text.asn1_get_sequence:0000000000000052 .L0 
C:\Users\stapi\AppData\Local\Temp\cchD7lgK.s:1820   .text.asn1_get_alg_id:0000000000000058 .L0 
C:\Users\stapi\AppData\Local\Temp\cchD7lgK.s:1916   .text.asn1_put_integer:000000000000006c .L0 
C:\Users\stapi\AppData\Local\Temp\cchD7lgK.s:1966   .text.asn1_put_octet_string:0000000000000036 .L0 
C:\Users\stapi\AppData\Local\Temp\cchD7lgK.s:2159   .text.asn1_put_oid:00000000000000c0 .L0 
C:\Users\stapi\AppData\Local\Temp\cchD7lgK.s:2206   .text.asn1_put_hdr:000000000000003a .L0 
C:\Users\stapi\AppData\Local\Temp\cchD7lgK.s:2270   .text.asn1_put_sequence:000000000000003c .L0 
C:\Users\stapi\AppData\Local\Temp\cchD7lgK.s:2334   .text.asn1_put_set:000000000000003c .L0 
C:\Users\stapi\AppData\Local\Temp\cchD7lgK.s:2401   .text.asn1_put_utf8string:0000000000000050 .L0 
C:\Users\stapi\AppData\Local\Temp\cchD7lgK.s:2485   .text.asn1_encaps:0000000000000056 .L0 
C:\Users\stapi\AppData\Local\Temp\cchD7lgK.s:2585   .text.asn1_build_alg_id:0000000000000056 .L0 
                     .debug_frame:0000000000000000 .L0 
C:\Users\stapi\AppData\Local\Temp\cchD7lgK.s:48     .text.rotate_bits:0000000000000016 .L2
C:\Users\stapi\AppData\Local\Temp\cchD7lgK.s:31     .text.rotate_bits:0000000000000006 .L3
C:\Users\stapi\AppData\Local\Temp\cchD7lgK.s:141    .text.wpabuf_put_data:0000000000000030 .L16
C:\Users\stapi\AppData\Local\Temp\cchD7lgK.s:217    .text.asn1_put_len:0000000000000026 .L22
C:\Users\stapi\AppData\Local\Temp\cchD7lgK.s:235    .text.asn1_put_len:0000000000000044 .L24
C:\Users\stapi\AppData\Local\Temp\cchD7lgK.s:201    .text.asn1_put_len:0000000000000016 .L28
C:\Users\stapi\AppData\Local\Temp\cchD7lgK.s:275    .text.asn1_put_len:0000000000000072 .L25
C:\Users\stapi\AppData\Local\Temp\cchD7lgK.s:205    .text.asn1_put_len:000000000000001e .L21
C:\Users\stapi\AppData\Local\Temp\cchD7lgK.s:335    .text.asn1_put_len:00000000000000b0 .L26
C:\Users\stapi\AppData\Local\Temp\cchD7lgK.s:385    .rodata.asn1_print_hdr.str1.4:0000000000000000 .LC0
C:\Users\stapi\AppData\Local\Temp\cchD7lgK.s:415    .rodata.asn1_get_next.str1.4:0000000000000000 .LC1
C:\Users\stapi\AppData\Local\Temp\cchD7lgK.s:424    .rodata.asn1_get_next.str1.4:00000000000000ac .LC4
C:\Users\stapi\AppData\Local\Temp\cchD7lgK.s:427    .rodata.asn1_get_next.str1.4:00000000000000d0 .LC5
C:\Users\stapi\AppData\Local\Temp\cchD7lgK.s:430    .rodata.asn1_get_next.str1.4:00000000000000f4 .LC6
C:\Users\stapi\AppData\Local\Temp\cchD7lgK.s:418    .rodata.asn1_get_next.str1.4:0000000000000020 .LC2
C:\Users\stapi\AppData\Local\Temp\cchD7lgK.s:421    .rodata.asn1_get_next.str1.4:0000000000000090 .LC3
C:\Users\stapi\AppData\Local\Temp\cchD7lgK.s:433    .rodata.asn1_get_next.str1.4:000000000000013c .LC7
C:\Users\stapi\AppData\Local\Temp\cchD7lgK.s:436    .rodata.asn1_get_next.str1.4:0000000000000158 .LC8
C:\Users\stapi\AppData\Local\Temp\cchD7lgK.s:439    .rodata.asn1_get_next.str1.4:0000000000000180 .LC9
C:\Users\stapi\AppData\Local\Temp\cchD7lgK.s:442    .rodata.asn1_get_next.str1.4:00000000000001cc .LC10
C:\Users\stapi\AppData\Local\Temp\cchD7lgK.s:445    .rodata.asn1_get_next.str1.4:00000000000001ec .LC11
C:\Users\stapi\AppData\Local\Temp\cchD7lgK.s:448    .rodata.asn1_get_next.str1.4:0000000000000204 .LC12
C:\Users\stapi\AppData\Local\Temp\cchD7lgK.s:451    .rodata.asn1_get_next.str1.4:0000000000000248 .LC13
C:\Users\stapi\AppData\Local\Temp\cchD7lgK.s:454    .rodata.asn1_get_next.str1.4:0000000000000264 .LC14
C:\Users\stapi\AppData\Local\Temp\cchD7lgK.s:460    .rodata.asn1_get_next.str1.4:00000000000002c8 .LC16
C:\Users\stapi\AppData\Local\Temp\cchD7lgK.s:457    .rodata.asn1_get_next.str1.4:000000000000028c .LC15
C:\Users\stapi\AppData\Local\Temp\cchD7lgK.s:518    .text.asn1_get_next:0000000000000036 .L32
C:\Users\stapi\AppData\Local\Temp\cchD7lgK.s:622    .text.asn1_get_next:00000000000000e8 .L69
C:\Users\stapi\AppData\Local\Temp\cchD7lgK.s:646    .text.asn1_get_next:0000000000000104 .L34
C:\Users\stapi\AppData\Local\Temp\cchD7lgK.s:629    .text.asn1_get_next:00000000000000ec .L35
C:\Users\stapi\AppData\Local\Temp\cchD7lgK.s:636    .text.asn1_get_next:00000000000000f6 .L37
C:\Users\stapi\AppData\Local\Temp\cchD7lgK.s:605    .text.asn1_get_next:00000000000000c4 .L38
C:\Users\stapi\AppData\Local\Temp\cchD7lgK.s:612    .text.asn1_get_next:00000000000000d2 .L39
C:\Users\stapi\AppData\Local\Temp\cchD7lgK.s:651    .text.asn1_get_next:0000000000000106 .L40
C:\Users\stapi\AppData\Local\Temp\cchD7lgK.s:884    .text.asn1_get_next:0000000000000238 .L31
C:\Users\stapi\AppData\Local\Temp\cchD7lgK.s:510    .text.asn1_get_next:000000000000002a .L70
C:\Users\stapi\AppData\Local\Temp\cchD7lgK.s:557    .text.asn1_get_next:0000000000000070 .L36
C:\Users\stapi\AppData\Local\Temp\cchD7lgK.s:659    .text.asn1_get_next:0000000000000114 .L41
C:\Users\stapi\AppData\Local\Temp\cchD7lgK.s:754    .text.asn1_get_next:00000000000001a2 .L42
C:\Users\stapi\AppData\Local\Temp\cchD7lgK.s:678    .text.asn1_get_next:0000000000000136 .L43
C:\Users\stapi\AppData\Local\Temp\cchD7lgK.s:694    .text.asn1_get_next:000000000000014a .L44
C:\Users\stapi\AppData\Local\Temp\cchD7lgK.s:699    .text.asn1_get_next:0000000000000154 .L45
C:\Users\stapi\AppData\Local\Temp\cchD7lgK.s:734    .text.asn1_get_next:0000000000000184 .L46
C:\Users\stapi\AppData\Local\Temp\cchD7lgK.s:719    .text.asn1_get_next:0000000000000176 .L47
C:\Users\stapi\AppData\Local\Temp\cchD7lgK.s:711    .text.asn1_get_next:0000000000000168 .L48
C:\Users\stapi\AppData\Local\Temp\cchD7lgK.s:759    .text.asn1_get_next:00000000000001a4 .L49
C:\Users\stapi\AppData\Local\Temp\cchD7lgK.s:770    .text.asn1_get_next:00000000000001b0 .L50
C:\Users\stapi\AppData\Local\Temp\cchD7lgK.s:775    .text.asn1_get_next:00000000000001ba .L51
C:\Users\stapi\AppData\Local\Temp\cchD7lgK.s:854    .text.asn1_get_next:0000000000000214 .L52
C:\Users\stapi\AppData\Local\Temp\cchD7lgK.s:833    .text.asn1_get_next:00000000000001f6 .L53
C:\Users\stapi\AppData\Local\Temp\cchD7lgK.s:864    .text.asn1_get_next:000000000000021c .L55
C:\Users\stapi\AppData\Local\Temp\cchD7lgK.s:814    .text.asn1_get_next:00000000000001d8 .L68
C:\Users\stapi\AppData\Local\Temp\cchD7lgK.s:820    .text.asn1_get_next:00000000000001e2 .L54
C:\Users\stapi\AppData\Local\Temp\cchD7lgK.s:900    .text.asn1_get_next:0000000000000240 .L56
C:\Users\stapi\AppData\Local\Temp\cchD7lgK.s:925    .rodata.asn1_unexpected.str1.4:0000000000000000 .LC17
C:\Users\stapi\AppData\Local\Temp\cchD7lgK.s:955    .rodata.asn1_parse_oid.str1.4:0000000000000000 .LC18
C:\Users\stapi\AppData\Local\Temp\cchD7lgK.s:1032   .text.asn1_parse_oid:0000000000000044 .L84
C:\Users\stapi\AppData\Local\Temp\cchD7lgK.s:1035   .text.asn1_parse_oid:0000000000000046 .L82
C:\Users\stapi\AppData\Local\Temp\cchD7lgK.s:1010   .text.asn1_parse_oid:0000000000000034 .L73
C:\Users\stapi\AppData\Local\Temp\cchD7lgK.s:1020   .text.asn1_parse_oid:000000000000003c .L76
C:\Users\stapi\AppData\Local\Temp\cchD7lgK.s:1072   .text.asn1_parse_oid:0000000000000078 .L77
C:\Users\stapi\AppData\Local\Temp\cchD7lgK.s:1027   .text.asn1_parse_oid:0000000000000040 .L83
C:\Users\stapi\AppData\Local\Temp\cchD7lgK.s:1106   .text.asn1_parse_oid:0000000000000094 .L78
C:\Users\stapi\AppData\Local\Temp\cchD7lgK.s:1099   .text.asn1_parse_oid:0000000000000090 .L79
C:\Users\stapi\AppData\Local\Temp\cchD7lgK.s:1004   .text.asn1_parse_oid:000000000000002e .L74
C:\Users\stapi\AppData\Local\Temp\cchD7lgK.s:1085   .text.asn1_parse_oid:0000000000000084 .L80
C:\Users\stapi\AppData\Local\Temp\cchD7lgK.s:1121   .rodata.asn1_get_oid.str1.4:0000000000000000 .LC19
C:\Users\stapi\AppData\Local\Temp\cchD7lgK.s:1195   .text.asn1_get_oid:000000000000004a .L87
C:\Users\stapi\AppData\Local\Temp\cchD7lgK.s:1185   .text.asn1_get_oid:0000000000000040 .L86
C:\Users\stapi\AppData\Local\Temp\cchD7lgK.s:1212   .rodata.asn1_oid_to_str.str1.4:0000000000000000 .LC20
C:\Users\stapi\AppData\Local\Temp\cchD7lgK.s:1215   .rodata.asn1_oid_to_str.str1.4:0000000000000004 .LC21
C:\Users\stapi\AppData\Local\Temp\cchD7lgK.s:1218   .rodata.asn1_oid_to_str.str1.4:0000000000000008 .LC22
C:\Users\stapi\AppData\Local\Temp\cchD7lgK.s:1333   .text.asn1_oid_to_str:0000000000000070 .L105
C:\Users\stapi\AppData\Local\Temp\cchD7lgK.s:1294   .text.asn1_oid_to_str:000000000000005a .L98
C:\Users\stapi\AppData\Local\Temp\cchD7lgK.s:1277   .text.asn1_oid_to_str:0000000000000040 .L96
C:\Users\stapi\AppData\Local\Temp\cchD7lgK.s:1314   .text.asn1_oid_to_str:0000000000000066 .L97
C:\Users\stapi\AppData\Local\Temp\cchD7lgK.s:1265   .text.asn1_oid_to_str:000000000000002c .L95
C:\Users\stapi\AppData\Local\Temp\cchD7lgK.s:1350   .rodata.asn1_bit_string_to_long.str1.4:0000000000000000 .LC23
C:\Users\stapi\AppData\Local\Temp\cchD7lgK.s:1450   .text.asn1_bit_string_to_long:0000000000000086 .L108
C:\Users\stapi\AppData\Local\Temp\cchD7lgK.s:1507   .text.asn1_oid_equal:0000000000000028 .L117
C:\Users\stapi\AppData\Local\Temp\cchD7lgK.s:1490   .text.asn1_oid_equal:0000000000000012 .L115
C:\Users\stapi\AppData\Local\Temp\cchD7lgK.s:1480   .text.asn1_oid_equal:000000000000000a .L114
C:\Users\stapi\AppData\Local\Temp\cchD7lgK.s:1518   .rodata.asn1_get_integer.str1.4:0000000000000000 .LC24
C:\Users\stapi\AppData\Local\Temp\cchD7lgK.s:1521   .rodata.asn1_get_integer.str1.4:0000000000000018 .LC25
C:\Users\stapi\AppData\Local\Temp\cchD7lgK.s:1617   .text.asn1_get_integer:0000000000000052 .L119
C:\Users\stapi\AppData\Local\Temp\cchD7lgK.s:1640   .text.asn1_get_integer:0000000000000070 .L120
C:\Users\stapi\AppData\Local\Temp\cchD7lgK.s:1592   .text.asn1_get_integer:000000000000003e .L121
C:\Users\stapi\AppData\Local\Temp\cchD7lgK.s:1629   .text.asn1_get_integer:0000000000000066 .L118
C:\Users\stapi\AppData\Local\Temp\cchD7lgK.s:1625   .text.asn1_get_integer:0000000000000064 .L128
C:\Users\stapi\AppData\Local\Temp\cchD7lgK.s:1654   .rodata.asn1_get_sequence.str1.4:0000000000000000 .LC26
C:\Users\stapi\AppData\Local\Temp\cchD7lgK.s:1699   .text.asn1_get_sequence:000000000000002c .L130
C:\Users\stapi\AppData\Local\Temp\cchD7lgK.s:1717   .text.asn1_get_sequence:0000000000000048 .L131
C:\Users\stapi\AppData\Local\Temp\cchD7lgK.s:1709   .text.asn1_get_sequence:0000000000000040 .L129
C:\Users\stapi\AppData\Local\Temp\cchD7lgK.s:1695   .text.asn1_get_sequence:0000000000000028 .L134
C:\Users\stapi\AppData\Local\Temp\cchD7lgK.s:1783   .text.asn1_get_alg_id:000000000000002e .L136
C:\Users\stapi\AppData\Local\Temp\cchD7lgK.s:1769   .text.asn1_get_alg_id:0000000000000022 .L138
C:\Users\stapi\AppData\Local\Temp\cchD7lgK.s:1772   .text.asn1_get_alg_id:0000000000000024 .L135
C:\Users\stapi\AppData\Local\Temp\cchD7lgK.s:1884   .text.asn1_put_integer:0000000000000030 .L143
C:\Users\stapi\AppData\Local\Temp\cchD7lgK.s:2144   .text.asn1_put_oid:00000000000000be .L163
C:\Users\stapi\AppData\Local\Temp\cchD7lgK.s:2061   .text.asn1_put_oid:0000000000000070 .L158
C:\Users\stapi\AppData\Local\Temp\cchD7lgK.s:2111   .text.asn1_put_oid:000000000000009e .L155
C:\Users\stapi\AppData\Local\Temp\cchD7lgK.s:2136   .text.asn1_put_oid:00000000000000b8 .L160
C:\Users\stapi\AppData\Local\Temp\cchD7lgK.s:2090   .text.asn1_put_oid:0000000000000084 .L157
C:\Users\stapi\AppData\Local\Temp\cchD7lgK.s:2028   .text.asn1_put_oid:000000000000004a .L152
C:\Users\stapi\AppData\Local\Temp\cchD7lgK.s:2077   .text.asn1_put_oid:0000000000000078 .L153
C:\Users\stapi\AppData\Local\Temp\cchD7lgK.s:2086   .text.asn1_put_oid:0000000000000080 .L156
C:\Users\stapi\AppData\Local\Temp\cchD7lgK.s:2472   .text.asn1_encaps:000000000000004a .L177
C:\Users\stapi\AppData\Local\Temp\cchD7lgK.s:2463   .text.asn1_encaps:000000000000003e .L178
C:\Users\stapi\AppData\Local\Temp\cchD7lgK.s:2523   .text.asn1_build_alg_id:0000000000000018 .L187
C:\Users\stapi\AppData\Local\Temp\cchD7lgK.s:2555   .text.asn1_build_alg_id:000000000000004c .L186
C:\Users\stapi\AppData\Local\Temp\cchD7lgK.s:2545   .text.asn1_build_alg_id:000000000000003c .L189
C:\Users\stapi\AppData\Local\Temp\cchD7lgK.s:6489   .debug_abbrev:0000000000000000 .Ldebug_abbrev0
C:\Users\stapi\AppData\Local\Temp\cchD7lgK.s:9782   .debug_str:00000000000002bc .LASF133
C:\Users\stapi\AppData\Local\Temp\cchD7lgK.s:9870   .debug_str:0000000000000688 .LASF134
C:\Users\stapi\AppData\Local\Temp\cchD7lgK.s:9792   .debug_str:00000000000003e4 .LASF135
C:\Users\stapi\AppData\Local\Temp\cchD7lgK.s:9552   .debug_ranges:0000000000000000 .Ldebug_ranges0
C:\Users\stapi\AppData\Local\Temp\cchD7lgK.s:9686   .debug_line:0000000000000000 .Ldebug_line0
C:\Users\stapi\AppData\Local\Temp\cchD7lgK.s:9702   .debug_str:000000000000006e .LASF2
C:\Users\stapi\AppData\Local\Temp\cchD7lgK.s:9780   .debug_str:00000000000002af .LASF0
C:\Users\stapi\AppData\Local\Temp\cchD7lgK.s:9726   .debug_str:000000000000010f .LASF1
C:\Users\stapi\AppData\Local\Temp\cchD7lgK.s:9708   .debug_str:000000000000008c .LASF3
C:\Users\stapi\AppData\Local\Temp\cchD7lgK.s:9860   .debug_str:0000000000000626 .LASF4
C:\Users\stapi\AppData\Local\Temp\cchD7lgK.s:9692   .debug_str:000000000000001c .LASF5
C:\Users\stapi\AppData\Local\Temp\cchD7lgK.s:9906   .debug_str:000000000000080c .LASF6
C:\Users\stapi\AppData\Local\Temp\cchD7lgK.s:9802   .debug_str:000000000000049f .LASF7
C:\Users\stapi\AppData\Local\Temp\cchD7lgK.s:9746   .debug_str:00000000000001a4 .LASF8
C:\Users\stapi\AppData\Local\Temp\cchD7lgK.s:9770   .debug_str:0000000000000271 .LASF9
C:\Users\stapi\AppData\Local\Temp\cchD7lgK.s:9730   .debug_str:000000000000012e .LASF10
C:\Users\stapi\AppData\Local\Temp\cchD7lgK.s:9774   .debug_str:0000000000000289 .LASF11
C:\Users\stapi\AppData\Local\Temp\cchD7lgK.s:9712   .debug_str:00000000000000a0 .LASF12
C:\Users\stapi\AppData\Local\Temp\cchD7lgK.s:9890   .debug_str:00000000000007b1 .LASF13
C:\Users\stapi\AppData\Local\Temp\cchD7lgK.s:9938   .debug_str:0000000000000926 .LASF14
C:\Users\stapi\AppData\Local\Temp\cchD7lgK.s:9758   .debug_str:000000000000020d .LASF15
C:\Users\stapi\AppData\Local\Temp\cchD7lgK.s:9884   .debug_str:0000000000000791 .LASF16
C:\Users\stapi\AppData\Local\Temp\cchD7lgK.s:9858   .debug_str:0000000000000620 .LASF17
C:\Users\stapi\AppData\Local\Temp\cchD7lgK.s:9750   .debug_str:00000000000001c9 .LASF18
C:\Users\stapi\AppData\Local\Temp\cchD7lgK.s:9762   .debug_str:0000000000000221 .LASF19
C:\Users\stapi\AppData\Local\Temp\cchD7lgK.s:9794   .debug_str:0000000000000476 .LASF20
C:\Users\stapi\AppData\Local\Temp\cchD7lgK.s:9908   .debug_str:0000000000000817 .LASF21
C:\Users\stapi\AppData\Local\Temp\cchD7lgK.s:9716   .debug_str:00000000000000db .LASF22
C:\Users\stapi\AppData\Local\Temp\cchD7lgK.s:9848   .debug_str:00000000000005dc .LASF23
C:\Users\stapi\AppData\Local\Temp\cchD7lgK.s:9744   .debug_str:0000000000000195 .LASF24
C:\Users\stapi\AppData\Local\Temp\cchD7lgK.s:9878   .debug_str:0000000000000767 .LASF25
C:\Users\stapi\AppData\Local\Temp\cchD7lgK.s:9904   .debug_str:0000000000000800 .LASF26
C:\Users\stapi\AppData\Local\Temp\cchD7lgK.s:9910   .debug_str:000000000000082b .LASF27
C:\Users\stapi\AppData\Local\Temp\cchD7lgK.s:9892   .debug_str:00000000000007b6 .LASF28
C:\Users\stapi\AppData\Local\Temp\cchD7lgK.s:9962   .debug_str:00000000000009c8 .LASF29
C:\Users\stapi\AppData\Local\Temp\cchD7lgK.s:9768   .debug_str:0000000000000261 .LASF30
C:\Users\stapi\AppData\Local\Temp\cchD7lgK.s:9696   .debug_str:000000000000002c .LASF31
C:\Users\stapi\AppData\Local\Temp\cchD7lgK.s:9706   .debug_str:0000000000000081 .LASF32
C:\Users\stapi\AppData\Local\Temp\cchD7lgK.s:9784   .debug_str:00000000000003b5 .LASF33
C:\Users\stapi\AppData\Local\Temp\cchD7lgK.s:9918   .debug_str:0000000000000880 .LASF34
C:\Users\stapi\AppData\Local\Temp\cchD7lgK.s:9822   .debug_str:0000000000000549 .LASF35
C:\Users\stapi\AppData\Local\Temp\cchD7lgK.s:9928   .debug_str:00000000000008d1 .LASF136
C:\Users\stapi\AppData\Local\Temp\cchD7lgK.s:9876   .debug_str:0000000000000745 .LASF36
C:\Users\stapi\AppData\Local\Temp\cchD7lgK.s:9862   .debug_str:0000000000000634 .LASF37
C:\Users\stapi\AppData\Local\Temp\cchD7lgK.s:9754   .debug_str:00000000000001e1 .LASF38
C:\Users\stapi\AppData\Local\Temp\cchD7lgK.s:9900   .debug_str:00000000000007eb .LASF48
C:\Users\stapi\AppData\Local\Temp\cchD7lgK.s:9800   .debug_str:000000000000049a .LASF39
C:\Users\stapi\AppData\Local\Temp\cchD7lgK.s:9846   .debug_str:00000000000005d7 .LASF40
C:\Users\stapi\AppData\Local\Temp\cchD7lgK.s:9936   .debug_str:0000000000000920 .LASF41
C:\Users\stapi\AppData\Local\Temp\cchD7lgK.s:9882   .debug_str:0000000000000783 .LASF42
C:\Users\stapi\AppData\Local\Temp\cchD7lgK.s:9958   .debug_str:00000000000009ad .LASF43
C:\Users\stapi\AppData\Local\Temp\cchD7lgK.s:9830   .debug_str:0000000000000574 .LASF44
C:\Users\stapi\AppData\Local\Temp\cchD7lgK.s:9952   .debug_str:0000000000000993 .LASF45
C:\Users\stapi\AppData\Local\Temp\cchD7lgK.s:9722   .debug_str:00000000000000fc .LASF46
C:\Users\stapi\AppData\Local\Temp\cchD7lgK.s:9710   .debug_str:0000000000000096 .LASF47
C:\Users\stapi\AppData\Local\Temp\cchD7lgK.s:9812   .debug_str:00000000000004fa .LASF49
C:\Users\stapi\AppData\Local\Temp\cchD7lgK.s:9828   .debug_str:000000000000056c .LASF50
C:\Users\stapi\AppData\Local\Temp\cchD7lgK.s:9752   .debug_str:00000000000001d6 .LASF51
C:\Users\stapi\AppData\Local\Temp\cchD7lgK.s:9850   .debug_str:00000000000005eb .LASF52
C:\Users\stapi\AppData\Local\Temp\cchD7lgK.s:9704   .debug_str:0000000000000075 .LASF53
C:\Users\stapi\AppData\Local\Temp\cchD7lgK.s:9894   .debug_str:00000000000007c9 .LASF54
C:\Users\stapi\AppData\Local\Temp\cchD7lgK.s:9778   .debug_str:00000000000002a6 .LASF55
C:\Users\stapi\AppData\Local\Temp\cchD7lgK.s:9942   .debug_str:000000000000093c .LASF56
C:\Users\stapi\AppData\Local\Temp\cchD7lgK.s:9854   .debug_str:0000000000000601 .LASF57
C:\Users\stapi\AppData\Local\Temp\cchD7lgK.s:9868   .debug_str:0000000000000671 .LASF58
C:\Users\stapi\AppData\Local\Temp\cchD7lgK.s:9824   .debug_str:0000000000000552 .LASF59
C:\Users\stapi\AppData\Local\Temp\cchD7lgK.s:9932   .debug_str:0000000000000901 .LASF60
C:\Users\stapi\AppData\Local\Temp\cchD7lgK.s:9728   .debug_str:000000000000011b .LASF61
C:\Users\stapi\AppData\Local\Temp\cchD7lgK.s:9840   .debug_str:00000000000005a4 .LASF62
C:\Users\stapi\AppData\Local\Temp\cchD7lgK.s:9912   .debug_str:0000000000000838 .LASF63
C:\Users\stapi\AppData\Local\Temp\cchD7lgK.s:9926   .debug_str:00000000000008b8 .LASF64
C:\Users\stapi\AppData\Local\Temp\cchD7lgK.s:9914   .debug_str:0000000000000851 .LASF65
C:\Users\stapi\AppData\Local\Temp\cchD7lgK.s:9874   .debug_str:0000000000000726 .LASF66
C:\Users\stapi\AppData\Local\Temp\cchD7lgK.s:9700   .debug_str:000000000000004f .LASF67
C:\Users\stapi\AppData\Local\Temp\cchD7lgK.s:9946   .debug_str:000000000000095a .LASF68
C:\Users\stapi\AppData\Local\Temp\cchD7lgK.s:9748   .debug_str:00000000000001ad .LASF69
C:\Users\stapi\AppData\Local\Temp\cchD7lgK.s:9948   .debug_str:000000000000096a .LASF70
C:\Users\stapi\AppData\Local\Temp\cchD7lgK.s:9764   .debug_str:000000000000022e .LASF71
C:\Users\stapi\AppData\Local\Temp\cchD7lgK.s:9808   .debug_str:00000000000004ce .LASF72
C:\Users\stapi\AppData\Local\Temp\cchD7lgK.s:9714   .debug_str:00000000000000b7 .LASF73
C:\Users\stapi\AppData\Local\Temp\cchD7lgK.s:9688   .debug_str:0000000000000000 .LASF74
C:\Users\stapi\AppData\Local\Temp\cchD7lgK.s:2406   .text.asn1_encaps:0000000000000000 .LFB109
C:\Users\stapi\AppData\Local\Temp\cchD7lgK.s:2483   .text.asn1_encaps:0000000000000056 .LFE109
C:\Users\stapi\AppData\Local\Temp\cchD7lgK.s:7584   .debug_loc:0000000000000000 .LLST134
C:\Users\stapi\AppData\Local\Temp\cchD7lgK.s:7602   .debug_loc:000000000000002c .LLST135
C:\Users\stapi\AppData\Local\Temp\cchD7lgK.s:7616   .debug_loc:000000000000004d .LLST136
C:\Users\stapi\AppData\Local\Temp\cchD7lgK.s:7630   .debug_loc:000000000000006e .LLST137
C:\Users\stapi\AppData\Local\Temp\cchD7lgK.s:2428   .text.asn1_encaps:0000000000000012 .LBB151
C:\Users\stapi\AppData\Local\Temp\cchD7lgK.s:2432   .text.asn1_encaps:0000000000000012 .LBE151
C:\Users\stapi\AppData\Local\Temp\cchD7lgK.s:2446   .text.asn1_encaps:0000000000000022 .LBB153
C:\Users\stapi\AppData\Local\Temp\cchD7lgK.s:2450   .text.asn1_encaps:0000000000000022 .LBE153
C:\Users\stapi\AppData\Local\Temp\cchD7lgK.s:2438   .text.asn1_encaps:000000000000001e .LVL248
C:\Users\stapi\AppData\Local\Temp\cchD7lgK.s:2457   .text.asn1_encaps:0000000000000032 .LVL251
C:\Users\stapi\AppData\Local\Temp\cchD7lgK.s:2462   .text.asn1_encaps:000000000000003e .LVL252
C:\Users\stapi\AppData\Local\Temp\cchD7lgK.s:2467   .text.asn1_encaps:0000000000000048 .LVL253
C:\Users\stapi\AppData\Local\Temp\cchD7lgK.s:9796   .debug_str:0000000000000483 .LASF75
C:\Users\stapi\AppData\Local\Temp\cchD7lgK.s:2490   .text.asn1_build_alg_id:0000000000000000 .LFB108
C:\Users\stapi\AppData\Local\Temp\cchD7lgK.s:2565   .text.asn1_build_alg_id:0000000000000056 .LFE108
C:\Users\stapi\AppData\Local\Temp\cchD7lgK.s:7637   .debug_loc:0000000000000081 .LLST138
C:\Users\stapi\AppData\Local\Temp\cchD7lgK.s:9724   .debug_str:0000000000000108 .LASF76
C:\Users\stapi\AppData\Local\Temp\cchD7lgK.s:7648   .debug_loc:000000000000009f .LLST139
C:\Users\stapi\AppData\Local\Temp\cchD7lgK.s:7659   .debug_loc:00000000000000bd .LLST140
C:\Users\stapi\AppData\Local\Temp\cchD7lgK.s:7666   .debug_loc:00000000000000d0 .LLST141
C:\Users\stapi\AppData\Local\Temp\cchD7lgK.s:2514   .text.asn1_build_alg_id:0000000000000012 .LBB155
C:\Users\stapi\AppData\Local\Temp\cchD7lgK.s:2518   .text.asn1_build_alg_id:0000000000000012 .LBE155
C:\Users\stapi\AppData\Local\Temp\cchD7lgK.s:2527   .text.asn1_build_alg_id:0000000000000020 .LVL260
C:\Users\stapi\AppData\Local\Temp\cchD7lgK.s:2536   .text.asn1_build_alg_id:000000000000002e .LVL262
C:\Users\stapi\AppData\Local\Temp\cchD7lgK.s:2544   .text.asn1_build_alg_id:000000000000003c .LVL263
C:\Users\stapi\AppData\Local\Temp\cchD7lgK.s:2552   .text.asn1_build_alg_id:000000000000004a .LVL264
C:\Users\stapi\AppData\Local\Temp\cchD7lgK.s:9738   .debug_str:0000000000000164 .LASF77
C:\Users\stapi\AppData\Local\Temp\cchD7lgK.s:2339   .text.asn1_put_utf8string:0000000000000000 .LFB107
C:\Users\stapi\AppData\Local\Temp\cchD7lgK.s:2399   .text.asn1_put_utf8string:0000000000000050 .LFE107
C:\Users\stapi\AppData\Local\Temp\cchD7lgK.s:7679   .debug_loc:00000000000000f0 .LLST125
C:\Users\stapi\AppData\Local\Temp\cchD7lgK.s:7690   .debug_loc:000000000000010e .LLST126
C:\Users\stapi\AppData\Local\Temp\cchD7lgK.s:2362   .text.asn1_put_utf8string:0000000000000018 .LBB147
C:\Users\stapi\AppData\Local\Temp\cchD7lgK.s:2376   .text.asn1_put_utf8string:0000000000000030 .LBE147
C:\Users\stapi\AppData\Local\Temp\cchD7lgK.s:7701   .debug_loc:000000000000012c .LLST127
C:\Users\stapi\AppData\Local\Temp\cchD7lgK.s:7712   .debug_loc:000000000000014a .LLST128
C:\Users\stapi\AppData\Local\Temp\cchD7lgK.s:7720   .debug_loc:000000000000015e .LLST129
C:\Users\stapi\AppData\Local\Temp\cchD7lgK.s:7728   .debug_loc:0000000000000172 .LLST131
C:\Users\stapi\AppData\Local\Temp\cchD7lgK.s:2369   .text.asn1_put_utf8string:0000000000000024 .LVL241
C:\Users\stapi\AppData\Local\Temp\cchD7lgK.s:2374   .text.asn1_put_utf8string:0000000000000030 .LVL242
C:\Users\stapi\AppData\Local\Temp\cchD7lgK.s:2378   .text.asn1_put_utf8string:0000000000000030 .LBB149
C:\Users\stapi\AppData\Local\Temp\cchD7lgK.s:2390   .text.asn1_put_utf8string:0000000000000048 .LBE149
C:\Users\stapi\AppData\Local\Temp\cchD7lgK.s:7735   .debug_loc:0000000000000185 .LLST132
C:\Users\stapi\AppData\Local\Temp\cchD7lgK.s:7742   .debug_loc:0000000000000198 .LLST133
C:\Users\stapi\AppData\Local\Temp\cchD7lgK.s:2383   .text.asn1_put_utf8string:000000000000003a .LVL243
C:\Users\stapi\AppData\Local\Temp\cchD7lgK.s:2388   .text.asn1_put_utf8string:0000000000000048 .LVL244
C:\Users\stapi\AppData\Local\Temp\cchD7lgK.s:2359   .text.asn1_put_utf8string:0000000000000016 .LVL238
C:\Users\stapi\AppData\Local\Temp\cchD7lgK.s:9886   .debug_str:000000000000079a .LASF78
C:\Users\stapi\AppData\Local\Temp\cchD7lgK.s:2275   .text.asn1_put_set:0000000000000000 .LFB106
C:\Users\stapi\AppData\Local\Temp\cchD7lgK.s:2332   .text.asn1_put_set:000000000000003c .LFE106
C:\Users\stapi\AppData\Local\Temp\cchD7lgK.s:7749   .debug_loc:00000000000001ab .LLST117
C:\Users\stapi\AppData\Local\Temp\cchD7lgK.s:7760   .debug_loc:00000000000001c9 .LLST118
C:\Users\stapi\AppData\Local\Temp\cchD7lgK.s:2287   .text.asn1_put_set:0000000000000008 .LBB137
C:\Users\stapi\AppData\Local\Temp\cchD7lgK.s:2294   .text.asn1_put_set:000000000000000c .LBE137
C:\Users\stapi\AppData\Local\Temp\cchD7lgK.s:7771   .debug_loc:00000000000001e7 .LLST119
C:\Users\stapi\AppData\Local\Temp\cchD7lgK.s:2297   .text.asn1_put_set:000000000000000e .LBB139
C:\Users\stapi\AppData\Local\Temp\cchD7lgK.s:7778   .debug_loc:00000000000001fa .LLST120
C:\Users\stapi\AppData\Local\Temp\cchD7lgK.s:7785   .debug_loc:000000000000020d .LLST121
C:\Users\stapi\AppData\Local\Temp\cchD7lgK.s:7793   .debug_loc:0000000000000221 .LLST122
C:\Users\stapi\AppData\Local\Temp\cchD7lgK.s:7801   .debug_loc:0000000000000235 .LLST123
C:\Users\stapi\AppData\Local\Temp\cchD7lgK.s:7809   .debug_loc:0000000000000249 .LLST124
C:\Users\stapi\AppData\Local\Temp\cchD7lgK.s:2311   .text.asn1_put_set:000000000000001c .LVL233
C:\Users\stapi\AppData\Local\Temp\cchD7lgK.s:2316   .text.asn1_put_set:0000000000000028 .LVL234
C:\Users\stapi\AppData\Local\Temp\cchD7lgK.s:2323   .text.asn1_put_set:0000000000000034 .LVL235
C:\Users\stapi\AppData\Local\Temp\cchD7lgK.s:9864   .debug_str:0000000000000656 .LASF79
C:\Users\stapi\AppData\Local\Temp\cchD7lgK.s:2211   .text.asn1_put_sequence:0000000000000000 .LFB105
C:\Users\stapi\AppData\Local\Temp\cchD7lgK.s:2268   .text.asn1_put_sequence:000000000000003c .LFE105
C:\Users\stapi\AppData\Local\Temp\cchD7lgK.s:7820   .debug_loc:0000000000000267 .LLST109
C:\Users\stapi\AppData\Local\Temp\cchD7lgK.s:7831   .debug_loc:0000000000000285 .LLST110
C:\Users\stapi\AppData\Local\Temp\cchD7lgK.s:2223   .text.asn1_put_sequence:0000000000000008 .LBB131
C:\Users\stapi\AppData\Local\Temp\cchD7lgK.s:2230   .text.asn1_put_sequence:000000000000000c .LBE131
C:\Users\stapi\AppData\Local\Temp\cchD7lgK.s:7842   .debug_loc:00000000000002a3 .LLST111
C:\Users\stapi\AppData\Local\Temp\cchD7lgK.s:2233   .text.asn1_put_sequence:000000000000000e .LBB133
C:\Users\stapi\AppData\Local\Temp\cchD7lgK.s:7849   .debug_loc:00000000000002b6 .LLST112
C:\Users\stapi\AppData\Local\Temp\cchD7lgK.s:7856   .debug_loc:00000000000002c9 .LLST113
C:\Users\stapi\AppData\Local\Temp\cchD7lgK.s:7864   .debug_loc:00000000000002dd .LLST114
C:\Users\stapi\AppData\Local\Temp\cchD7lgK.s:7872   .debug_loc:00000000000002f1 .LLST115
C:\Users\stapi\AppData\Local\Temp\cchD7lgK.s:7880   .debug_loc:0000000000000305 .LLST116
C:\Users\stapi\AppData\Local\Temp\cchD7lgK.s:2247   .text.asn1_put_sequence:000000000000001c .LVL225
C:\Users\stapi\AppData\Local\Temp\cchD7lgK.s:2252   .text.asn1_put_sequence:0000000000000028 .LVL226
C:\Users\stapi\AppData\Local\Temp\cchD7lgK.s:2259   .text.asn1_put_sequence:0000000000000034 .LVL227
C:\Users\stapi\AppData\Local\Temp\cchD7lgK.s:9844   .debug_str:00000000000005ca .LASF80
C:\Users\stapi\AppData\Local\Temp\cchD7lgK.s:9950   .debug_str:0000000000000986 .LASF81
C:\Users\stapi\AppData\Local\Temp\cchD7lgK.s:9826   .debug_str:0000000000000566 .LASF82
C:\Users\stapi\AppData\Local\Temp\cchD7lgK.s:9872   .debug_str:0000000000000710 .LASF83
C:\Users\stapi\AppData\Local\Temp\cchD7lgK.s:1921   .text.asn1_put_octet_string:0000000000000000 .LFB102
C:\Users\stapi\AppData\Local\Temp\cchD7lgK.s:1964   .text.asn1_put_octet_string:0000000000000036 .LFE102
C:\Users\stapi\AppData\Local\Temp\cchD7lgK.s:7891   .debug_loc:0000000000000323 .LLST94
C:\Users\stapi\AppData\Local\Temp\cchD7lgK.s:7902   .debug_loc:0000000000000341 .LLST95
C:\Users\stapi\AppData\Local\Temp\cchD7lgK.s:1942   .text.asn1_put_octet_string:0000000000000016 .LBB120
C:\Users\stapi\AppData\Local\Temp\cchD7lgK.s:1946   .text.asn1_put_octet_string:0000000000000016 .LBE120
C:\Users\stapi\AppData\Local\Temp\cchD7lgK.s:1940   .text.asn1_put_octet_string:0000000000000016 .LVL188
C:\Users\stapi\AppData\Local\Temp\cchD7lgK.s:1951   .text.asn1_put_octet_string:0000000000000022 .LVL189
C:\Users\stapi\AppData\Local\Temp\cchD7lgK.s:1956   .text.asn1_put_octet_string:000000000000002e .LVL190
C:\Users\stapi\AppData\Local\Temp\cchD7lgK.s:9880   .debug_str:0000000000000776 .LASF110
C:\Users\stapi\AppData\Local\Temp\cchD7lgK.s:9922   .debug_str:00000000000008a1 .LASF84
C:\Users\stapi\AppData\Local\Temp\cchD7lgK.s:1825   .text.asn1_put_integer:0000000000000000 .LFB100
C:\Users\stapi\AppData\Local\Temp\cchD7lgK.s:1914   .text.asn1_put_integer:000000000000006c .LFE100
C:\Users\stapi\AppData\Local\Temp\cchD7lgK.s:7913   .debug_loc:000000000000035f .LLST89
C:\Users\stapi\AppData\Local\Temp\cchD7lgK.s:7930   .debug_loc:000000000000038a .LLST90
C:\Users\stapi\AppData\Local\Temp\cchD7lgK.s:9832   .debug_str:000000000000057e .LASF85
C:\Users\stapi\AppData\Local\Temp\cchD7lgK.s:7944   .debug_loc:00000000000003ab .LLST91
C:\Users\stapi\AppData\Local\Temp\cchD7lgK.s:1840   .text.asn1_put_integer:000000000000000a .LBB116
C:\Users\stapi\AppData\Local\Temp\cchD7lgK.s:7962   .debug_loc:00000000000003d7 .LLST92
C:\Users\stapi\AppData\Local\Temp\cchD7lgK.s:7969   .debug_loc:00000000000003ea .LLST93
C:\Users\stapi\AppData\Local\Temp\cchD7lgK.s:1889   .text.asn1_put_integer:000000000000003c .LVL182
C:\Users\stapi\AppData\Local\Temp\cchD7lgK.s:1896   .text.asn1_put_integer:000000000000004e .LVL183
C:\Users\stapi\AppData\Local\Temp\cchD7lgK.s:1904   .text.asn1_put_integer:0000000000000062 .LVL184
C:\Users\stapi\AppData\Local\Temp\cchD7lgK.s:9944   .debug_str:000000000000094a .LASF86
C:\Users\stapi\AppData\Local\Temp\cchD7lgK.s:1735   .text.asn1_get_alg_id:0000000000000000 .LFB99
C:\Users\stapi\AppData\Local\Temp\cchD7lgK.s:1818   .text.asn1_get_alg_id:0000000000000058 .LFE99
C:\Users\stapi\AppData\Local\Temp\cchD7lgK.s:7978   .debug_loc:00000000000003ff .LLST82
C:\Users\stapi\AppData\Local\Temp\cchD7lgK.s:7992   .debug_loc:0000000000000420 .LLST83
C:\Users\stapi\AppData\Local\Temp\cchD7lgK.s:8006   .debug_loc:0000000000000441 .LLST84
C:\Users\stapi\AppData\Local\Temp\cchD7lgK.s:8017   .debug_loc:000000000000045f .LLST85
C:\Users\stapi\AppData\Local\Temp\cchD7lgK.s:9756   .debug_str:0000000000000202 .LASF87
C:\Users\stapi\AppData\Local\Temp\cchD7lgK.s:8028   .debug_loc:000000000000047d .LLST86
C:\Users\stapi\AppData\Local\Temp\cchD7lgK.s:9720   .debug_str:00000000000000f7 .LASF88
C:\Users\stapi\AppData\Local\Temp\cchD7lgK.s:8039   .debug_loc:000000000000049b .LLST87
C:\Users\stapi\AppData\Local\Temp\cchD7lgK.s:8053   .debug_loc:00000000000004bc .LLST88
C:\Users\stapi\AppData\Local\Temp\cchD7lgK.s:1766   .text.asn1_get_alg_id:000000000000001e .LVL173
C:\Users\stapi\AppData\Local\Temp\cchD7lgK.s:1791   .text.asn1_get_alg_id:000000000000003e .LVL174
C:\Users\stapi\AppData\Local\Temp\cchD7lgK.s:9698   .debug_str:000000000000003d .LASF89
C:\Users\stapi\AppData\Local\Temp\cchD7lgK.s:1661   .text.asn1_get_sequence:0000000000000000 .LFB98
C:\Users\stapi\AppData\Local\Temp\cchD7lgK.s:1728   .text.asn1_get_sequence:0000000000000052 .LFE98
C:\Users\stapi\AppData\Local\Temp\cchD7lgK.s:8076   .debug_loc:00000000000004e6 .LLST77
C:\Users\stapi\AppData\Local\Temp\cchD7lgK.s:8090   .debug_loc:0000000000000507 .LLST78
C:\Users\stapi\AppData\Local\Temp\cchD7lgK.s:8104   .debug_loc:0000000000000528 .LLST79
C:\Users\stapi\AppData\Local\Temp\cchD7lgK.s:8115   .debug_loc:0000000000000546 .LLST80
C:\Users\stapi\AppData\Local\Temp\cchD7lgK.s:1680   .text.asn1_get_sequence:0000000000000018 .LBB112
C:\Users\stapi\AppData\Local\Temp\cchD7lgK.s:1691   .text.asn1_get_sequence:0000000000000026 .LBE112
C:\Users\stapi\AppData\Local\Temp\cchD7lgK.s:8126   .debug_loc:0000000000000564 .LLST81
C:\Users\stapi\AppData\Local\Temp\cchD7lgK.s:1676   .text.asn1_get_sequence:0000000000000014 .LVL165
C:\Users\stapi\AppData\Local\Temp\cchD7lgK.s:1705   .text.asn1_get_sequence:000000000000003e .LVL168
C:\Users\stapi\AppData\Local\Temp\cchD7lgK.s:9810   .debug_str:00000000000004e9 .LASF90
C:\Users\stapi\AppData\Local\Temp\cchD7lgK.s:1528   .text.asn1_get_integer:0000000000000000 .LFB97
C:\Users\stapi\AppData\Local\Temp\cchD7lgK.s:1650   .text.asn1_get_integer:0000000000000084 .LFE97
C:\Users\stapi\AppData\Local\Temp\cchD7lgK.s:8133   .debug_loc:0000000000000577 .LLST69
C:\Users\stapi\AppData\Local\Temp\cchD7lgK.s:8147   .debug_loc:0000000000000598 .LLST70
C:\Users\stapi\AppData\Local\Temp\cchD7lgK.s:9786   .debug_str:00000000000003bf .LASF91
C:\Users\stapi\AppData\Local\Temp\cchD7lgK.s:8161   .debug_loc:00000000000005b9 .LLST71
C:\Users\stapi\AppData\Local\Temp\cchD7lgK.s:8172   .debug_loc:00000000000005d7 .LLST72
C:\Users\stapi\AppData\Local\Temp\cchD7lgK.s:9956   .debug_str:00000000000009a8 .LASF92
C:\Users\stapi\AppData\Local\Temp\cchD7lgK.s:8183   .debug_loc:00000000000005f5 .LLST73
C:\Users\stapi\AppData\Local\Temp\cchD7lgK.s:8199   .debug_loc:000000000000061f .LLST74
C:\Users\stapi\AppData\Local\Temp\cchD7lgK.s:9694   .debug_str:0000000000000026 .LASF93
C:\Users\stapi\AppData\Local\Temp\cchD7lgK.s:8210   .debug_loc:000000000000063d .LLST75
C:\Users\stapi\AppData\Local\Temp\cchD7lgK.s:1562   .text.asn1_get_integer:0000000000000020 .LBB108
C:\Users\stapi\AppData\Local\Temp\cchD7lgK.s:1573   .text.asn1_get_integer:000000000000002e .LBE108
C:\Users\stapi\AppData\Local\Temp\cchD7lgK.s:8217   .debug_loc:0000000000000650 .LLST76
C:\Users\stapi\AppData\Local\Temp\cchD7lgK.s:1554   .text.asn1_get_integer:0000000000000018 .LVL152
C:\Users\stapi\AppData\Local\Temp\cchD7lgK.s:1623   .text.asn1_get_integer:0000000000000064 .LVL161
C:\Users\stapi\AppData\Local\Temp\cchD7lgK.s:1647   .text.asn1_get_integer:0000000000000082 .LVL163
C:\Users\stapi\AppData\Local\Temp\cchD7lgK.s:9776   .debug_str:0000000000000297 .LASF94
C:\Users\stapi\AppData\Local\Temp\cchD7lgK.s:1467   .text.asn1_oid_equal:0000000000000000 .LFB96
C:\Users\stapi\AppData\Local\Temp\cchD7lgK.s:1514   .text.asn1_oid_equal:000000000000002c .LFE96
C:\Users\stapi\AppData\Local\Temp\cchD7lgK.s:8224   .debug_loc:0000000000000663 .LLST67
C:\Users\stapi\AppData\Local\Temp\cchD7lgK.s:8249   .debug_loc:000000000000069d .LLST68
C:\Users\stapi\AppData\Local\Temp\cchD7lgK.s:9816   .debug_str:0000000000000512 .LASF95
C:\Users\stapi\AppData\Local\Temp\cchD7lgK.s:1357   .text.asn1_bit_string_to_long:0000000000000000 .LFB95
C:\Users\stapi\AppData\Local\Temp\cchD7lgK.s:1460   .text.asn1_bit_string_to_long:0000000000000090 .LFE95
C:\Users\stapi\AppData\Local\Temp\cchD7lgK.s:8256   .debug_loc:00000000000006b0 .LLST63
C:\Users\stapi\AppData\Local\Temp\cchD7lgK.s:8274   .debug_loc:00000000000006dc .LLST64
C:\Users\stapi\AppData\Local\Temp\cchD7lgK.s:8292   .debug_loc:0000000000000708 .LLST65
C:\Users\stapi\AppData\Local\Temp\cchD7lgK.s:8304   .debug_loc:0000000000000727 .LLST66
C:\Users\stapi\AppData\Local\Temp\cchD7lgK.s:9866   .debug_str:0000000000000668 .LASF137
C:\Users\stapi\AppData\Local\Temp\cchD7lgK.s:1387   .text.asn1_bit_string_to_long:0000000000000020 .LVL134
C:\Users\stapi\AppData\Local\Temp\cchD7lgK.s:1400   .text.asn1_bit_string_to_long:0000000000000034 .LVL136
C:\Users\stapi\AppData\Local\Temp\cchD7lgK.s:1415   .text.asn1_bit_string_to_long:000000000000004a .LVL138
C:\Users\stapi\AppData\Local\Temp\cchD7lgK.s:1430   .text.asn1_bit_string_to_long:0000000000000060 .LVL140
C:\Users\stapi\AppData\Local\Temp\cchD7lgK.s:1449   .text.asn1_bit_string_to_long:0000000000000086 .LVL142
C:\Users\stapi\AppData\Local\Temp\cchD7lgK.s:9736   .debug_str:0000000000000158 .LASF138
C:\Users\stapi\AppData\Local\Temp\cchD7lgK.s:13     .text.rotate_bits:0000000000000000 .LFB94
C:\Users\stapi\AppData\Local\Temp\cchD7lgK.s:64     .text.rotate_bits:000000000000001e .LFE94
C:\Users\stapi\AppData\Local\Temp\cchD7lgK.s:9924   .debug_str:00000000000008b2 .LASF96
C:\Users\stapi\AppData\Local\Temp\cchD7lgK.s:8319   .debug_loc:0000000000000749 .LLST0
C:\Users\stapi\AppData\Local\Temp\cchD7lgK.s:8330   .debug_loc:0000000000000767 .LLST1
C:\Users\stapi\AppData\Local\Temp\cchD7lgK.s:8354   .debug_loc:0000000000000799 .LLST2
C:\Users\stapi\AppData\Local\Temp\cchD7lgK.s:9916   .debug_str:0000000000000870 .LASF97
C:\Users\stapi\AppData\Local\Temp\cchD7lgK.s:1225   .text.asn1_oid_to_str:0000000000000000 .LFB93
C:\Users\stapi\AppData\Local\Temp\cchD7lgK.s:1346   .text.asn1_oid_to_str:0000000000000072 .LFE93
C:\Users\stapi\AppData\Local\Temp\cchD7lgK.s:8370   .debug_loc:00000000000007c3 .LLST55
C:\Users\stapi\AppData\Local\Temp\cchD7lgK.s:8385   .debug_loc:00000000000007ec .LLST56
C:\Users\stapi\AppData\Local\Temp\cchD7lgK.s:8403   .debug_loc:0000000000000818 .LLST57
C:\Users\stapi\AppData\Local\Temp\cchD7lgK.s:8421   .debug_loc:0000000000000844 .LLST58
C:\Users\stapi\AppData\Local\Temp\cchD7lgK.s:8436   .debug_loc:000000000000086d .LLST59
C:\Users\stapi\AppData\Local\Temp\cchD7lgK.s:8448   .debug_loc:000000000000088c .LLST60
C:\Users\stapi\AppData\Local\Temp\cchD7lgK.s:1287   .text.asn1_oid_to_str:0000000000000056 .LBB102
C:\Users\stapi\AppData\Local\Temp\cchD7lgK.s:8459   .debug_loc:00000000000008aa .LLST61
C:\Users\stapi\AppData\Local\Temp\cchD7lgK.s:8470   .debug_loc:00000000000008c8 .LLST62
C:\Users\stapi\AppData\Local\Temp\cchD7lgK.s:1285   .text.asn1_oid_to_str:0000000000000056 .LVL123
C:\Users\stapi\AppData\Local\Temp\cchD7lgK.s:9836   .debug_str:000000000000058a .LASF98
C:\Users\stapi\AppData\Local\Temp\cchD7lgK.s:1128   .text.asn1_get_oid:0000000000000000 .LFB92
C:\Users\stapi\AppData\Local\Temp\cchD7lgK.s:1208   .text.asn1_get_oid:0000000000000060 .LFE92
C:\Users\stapi\AppData\Local\Temp\cchD7lgK.s:8481   .debug_loc:00000000000008e6 .LLST50
C:\Users\stapi\AppData\Local\Temp\cchD7lgK.s:8495   .debug_loc:0000000000000907 .LLST51
C:\Users\stapi\AppData\Local\Temp\cchD7lgK.s:8509   .debug_loc:0000000000000928 .LLST52
C:\Users\stapi\AppData\Local\Temp\cchD7lgK.s:8520   .debug_loc:0000000000000946 .LLST53
C:\Users\stapi\AppData\Local\Temp\cchD7lgK.s:1159   .text.asn1_get_oid:0000000000000020 .LBB100
C:\Users\stapi\AppData\Local\Temp\cchD7lgK.s:1171   .text.asn1_get_oid:000000000000002e .LBE100
C:\Users\stapi\AppData\Local\Temp\cchD7lgK.s:8531   .debug_loc:0000000000000964 .LLST54
C:\Users\stapi\AppData\Local\Temp\cchD7lgK.s:1151   .text.asn1_get_oid:0000000000000018 .LVL115
C:\Users\stapi\AppData\Local\Temp\cchD7lgK.s:1184   .text.asn1_get_oid:0000000000000040 .LVL118
C:\Users\stapi\AppData\Local\Temp\cchD7lgK.s:1202   .text.asn1_get_oid:000000000000005c .LVL119
C:\Users\stapi\AppData\Local\Temp\cchD7lgK.s:9814   .debug_str:0000000000000503 .LASF99
C:\Users\stapi\AppData\Local\Temp\cchD7lgK.s:962    .text.asn1_parse_oid:0000000000000000 .LFB91
C:\Users\stapi\AppData\Local\Temp\cchD7lgK.s:1117   .text.asn1_parse_oid:00000000000000a4 .LFE91
C:\Users\stapi\AppData\Local\Temp\cchD7lgK.s:8538   .debug_loc:0000000000000977 .LLST44
C:\Users\stapi\AppData\Local\Temp\cchD7lgK.s:8556   .debug_loc:00000000000009a3 .LLST45
C:\Users\stapi\AppData\Local\Temp\cchD7lgK.s:8567   .debug_loc:00000000000009c1 .LLST46
C:\Users\stapi\AppData\Local\Temp\cchD7lgK.s:8578   .debug_loc:00000000000009df .LLST47
C:\Users\stapi\AppData\Local\Temp\cchD7lgK.s:8627   .debug_loc:0000000000000a46 .LLST48
C:\Users\stapi\AppData\Local\Temp\cchD7lgK.s:8650   .debug_loc:0000000000000a85 .LLST49
C:\Users\stapi\AppData\Local\Temp\cchD7lgK.s:988    .text.asn1_parse_oid:000000000000001e .LVL92
C:\Users\stapi\AppData\Local\Temp\cchD7lgK.s:1068   .text.asn1_parse_oid:0000000000000076 .LVL105
C:\Users\stapi\AppData\Local\Temp\cchD7lgK.s:9734   .debug_str:0000000000000148 .LASF100
C:\Users\stapi\AppData\Local\Temp\cchD7lgK.s:932    .text.asn1_unexpected:0000000000000000 .LFB90
C:\Users\stapi\AppData\Local\Temp\cchD7lgK.s:951    .text.asn1_unexpected:000000000000001e .LFE90
C:\Users\stapi\AppData\Local\Temp\cchD7lgK.s:8681   .debug_loc:0000000000000ad3 .LLST42
C:\Users\stapi\AppData\Local\Temp\cchD7lgK.s:9834   .debug_str:0000000000000584 .LASF101
C:\Users\stapi\AppData\Local\Temp\cchD7lgK.s:8695   .debug_loc:0000000000000af4 .LLST43
C:\Users\stapi\AppData\Local\Temp\cchD7lgK.s:949    .text.asn1_unexpected:000000000000001e .LVL87
C:\Users\stapi\AppData\Local\Temp\cchD7lgK.s:9718   .debug_str:00000000000000e8 .LASF102
C:\Users\stapi\AppData\Local\Temp\cchD7lgK.s:392    .text.asn1_print_hdr:0000000000000000 .LFB89
C:\Users\stapi\AppData\Local\Temp\cchD7lgK.s:411    .text.asn1_print_hdr:000000000000001e .LFE89
C:\Users\stapi\AppData\Local\Temp\cchD7lgK.s:8713   .debug_loc:0000000000000b20 .LLST31
C:\Users\stapi\AppData\Local\Temp\cchD7lgK.s:8727   .debug_loc:0000000000000b41 .LLST32
C:\Users\stapi\AppData\Local\Temp\cchD7lgK.s:409    .text.asn1_print_hdr:000000000000001e .LVL43
C:\Users\stapi\AppData\Local\Temp\cchD7lgK.s:9940   .debug_str:000000000000092e .LASF103
C:\Users\stapi\AppData\Local\Temp\cchD7lgK.s:467    .text.asn1_get_next:0000000000000000 .LFB88
C:\Users\stapi\AppData\Local\Temp\cchD7lgK.s:921    .text.asn1_get_next:000000000000024c .LFE88
C:\Users\stapi\AppData\Local\Temp\cchD7lgK.s:8745   .debug_loc:0000000000000b6d .LLST33
C:\Users\stapi\AppData\Local\Temp\cchD7lgK.s:8756   .debug_loc:0000000000000b8b .LLST34
C:\Users\stapi\AppData\Local\Temp\cchD7lgK.s:8774   .debug_loc:0000000000000bb7 .LLST35
C:\Users\stapi\AppData\Local\Temp\cchD7lgK.s:8785   .debug_loc:0000000000000bd5 .LLST36
C:\Users\stapi\AppData\Local\Temp\cchD7lgK.s:8836   .debug_loc:0000000000000c5a .LLST37
C:\Users\stapi\AppData\Local\Temp\cchD7lgK.s:8881   .debug_loc:0000000000000cb6 .LLST38
C:\Users\stapi\AppData\Local\Temp\cchD7lgK.s:9732   .debug_str:0000000000000140 .LASF104
C:\Users\stapi\AppData\Local\Temp\cchD7lgK.s:8904   .debug_loc:0000000000000cf5 .LLST39
C:\Users\stapi\AppData\Local\Temp\cchD7lgK.s:569    .text.asn1_get_next:0000000000000088 .LVL57
C:\Users\stapi\AppData\Local\Temp\cchD7lgK.s:595    .text.asn1_get_next:00000000000000b2 .LVL59
C:\Users\stapi\AppData\Local\Temp\cchD7lgK.s:620    .text.asn1_get_next:00000000000000e8 .LVL60
C:\Users\stapi\AppData\Local\Temp\cchD7lgK.s:777    .text.asn1_get_next:00000000000001ba .LBB80
C:\Users\stapi\AppData\Local\Temp\cchD7lgK.s:8941   .debug_loc:0000000000000d42 .LLST40
C:\Users\stapi\AppData\Local\Temp\cchD7lgK.s:805    .text.asn1_get_next:00000000000001cc .LBB82
C:\Users\stapi\AppData\Local\Temp\cchD7lgK.s:8956   .debug_loc:0000000000000d6b .LLST41
C:\Users\stapi\AppData\Local\Temp\cchD7lgK.s:818    .text.asn1_get_next:00000000000001e2 .LVL76
C:\Users\stapi\AppData\Local\Temp\cchD7lgK.s:500    .text.asn1_get_next:000000000000001e .LVL49
C:\Users\stapi\AppData\Local\Temp\cchD7lgK.s:514    .text.asn1_get_next:0000000000000034 .LVL51
C:\Users\stapi\AppData\Local\Temp\cchD7lgK.s:830    .text.asn1_get_next:00000000000001f4 .LVL77
C:\Users\stapi\AppData\Local\Temp\cchD7lgK.s:9960   .debug_str:00000000000009b9 .LASF105
C:\Users\stapi\AppData\Local\Temp\cchD7lgK.s:9766   .debug_str:000000000000024a .LASF106
C:\Users\stapi\AppData\Local\Temp\cchD7lgK.s:9740   .debug_str:0000000000000178 .LASF107
C:\Users\stapi\AppData\Local\Temp\cchD7lgK.s:9690   .debug_str:000000000000000c .LASF108
C:\Users\stapi\AppData\Local\Temp\cchD7lgK.s:9934   .debug_str:0000000000000914 .LASF109
C:\Users\stapi\AppData\Local\Temp\cchD7lgK.s:9818   .debug_str:000000000000052a .LASF111
C:\Users\stapi\AppData\Local\Temp\cchD7lgK.s:9856   .debug_str:0000000000000611 .LASF117
C:\Users\stapi\AppData\Local\Temp\cchD7lgK.s:151    .text.wpabuf_put_buf:0000000000000000 .LFB62
C:\Users\stapi\AppData\Local\Temp\cchD7lgK.s:173    .text.wpabuf_put_buf:000000000000000c .LFE62
C:\Users\stapi\AppData\Local\Temp\cchD7lgK.s:8967   .debug_loc:0000000000000d89 .LLST10
C:\Users\stapi\AppData\Local\Temp\cchD7lgK.s:8981   .debug_loc:0000000000000daa .LLST11
C:\Users\stapi\AppData\Local\Temp\cchD7lgK.s:156    .text.wpabuf_put_buf:0000000000000000 .LBB33
C:\Users\stapi\AppData\Local\Temp\cchD7lgK.s:160    .text.wpabuf_put_buf:0000000000000000 .LBE33
C:\Users\stapi\AppData\Local\Temp\cchD7lgK.s:161    .text.wpabuf_put_buf:0000000000000000 .LBB35
C:\Users\stapi\AppData\Local\Temp\cchD7lgK.s:165    .text.wpabuf_put_buf:0000000000000000 .LBE35
C:\Users\stapi\AppData\Local\Temp\cchD7lgK.s:171    .text.wpabuf_put_buf:000000000000000c .LVL20
C:\Users\stapi\AppData\Local\Temp\cchD7lgK.s:9896   .debug_str:00000000000007d0 .LASF112
C:\Users\stapi\AppData\Local\Temp\cchD7lgK.s:9798   .debug_str:0000000000000495 .LASF113
C:\Users\stapi\AppData\Local\Temp\cchD7lgK.s:9852   .debug_str:00000000000005f1 .LASF114
C:\Users\stapi\AppData\Local\Temp\cchD7lgK.s:9820   .debug_str:0000000000000539 .LASF115
C:\Users\stapi\AppData\Local\Temp\cchD7lgK.s:9788   .debug_str:00000000000003c7 .LASF116
C:\Users\stapi\AppData\Local\Temp\cchD7lgK.s:9902   .debug_str:00000000000007f2 .LASF118
C:\Users\stapi\AppData\Local\Temp\cchD7lgK.s:70     .text.wpabuf_put_u8:0000000000000000 .LFB53
C:\Users\stapi\AppData\Local\Temp\cchD7lgK.s:96     .text.wpabuf_put_u8:0000000000000020 .LFE53
C:\Users\stapi\AppData\Local\Temp\cchD7lgK.s:8995   .debug_loc:0000000000000dcb .LLST3
C:\Users\stapi\AppData\Local\Temp\cchD7lgK.s:9009   .debug_loc:0000000000000dec .LLST4
C:\Users\stapi\AppData\Local\Temp\cchD7lgK.s:86     .text.wpabuf_put_u8:0000000000000014 .LVL10
C:\Users\stapi\AppData\Local\Temp\cchD7lgK.s:9742   .debug_str:0000000000000189 .LASF119
C:\Users\stapi\AppData\Local\Temp\cchD7lgK.s:9760   .debug_str:0000000000000216 .LASF120
C:\Users\stapi\AppData\Local\Temp\cchD7lgK.s:9838   .debug_str:0000000000000597 .LASF121
C:\Users\stapi\AppData\Local\Temp\cchD7lgK.s:9842   .debug_str:00000000000005bd .LASF122
C:\Users\stapi\AppData\Local\Temp\cchD7lgK.s:9772   .debug_str:000000000000027c .LASF123
C:\Users\stapi\AppData\Local\Temp\cchD7lgK.s:9920   .debug_str:000000000000088f .LASF124
C:\Users\stapi\AppData\Local\Temp\cchD7lgK.s:102    .text.wpabuf_put_data:0000000000000000 .LFB61
C:\Users\stapi\AppData\Local\Temp\cchD7lgK.s:145    .text.wpabuf_put_data:0000000000000032 .LFE61
C:\Users\stapi\AppData\Local\Temp\cchD7lgK.s:9023   .debug_loc:0000000000000e0d .LLST5
C:\Users\stapi\AppData\Local\Temp\cchD7lgK.s:9041   .debug_loc:0000000000000e39 .LLST6
C:\Users\stapi\AppData\Local\Temp\cchD7lgK.s:9056   .debug_loc:0000000000000e62 .LLST7
C:\Users\stapi\AppData\Local\Temp\cchD7lgK.s:118    .text.wpabuf_put_data:000000000000000e .LBB31
C:\Users\stapi\AppData\Local\Temp\cchD7lgK.s:131    .text.wpabuf_put_data:0000000000000026 .LBE31
C:\Users\stapi\AppData\Local\Temp\cchD7lgK.s:9077   .debug_loc:0000000000000e98 .LLST8
C:\Users\stapi\AppData\Local\Temp\cchD7lgK.s:9089   .debug_loc:0000000000000eb7 .LLST9
C:\Users\stapi\AppData\Local\Temp\cchD7lgK.s:125    .text.wpabuf_put_data:000000000000001a .LVL14
C:\Users\stapi\AppData\Local\Temp\cchD7lgK.s:129    .text.wpabuf_put_data:0000000000000026 .LVL15
C:\Users\stapi\AppData\Local\Temp\cchD7lgK.s:179    .text.asn1_put_len:0000000000000000 .LFB101
C:\Users\stapi\AppData\Local\Temp\cchD7lgK.s:381    .text.asn1_put_len:00000000000000dc .LFE101
C:\Users\stapi\AppData\Local\Temp\cchD7lgK.s:9100   .debug_loc:0000000000000ed5 .LLST12
C:\Users\stapi\AppData\Local\Temp\cchD7lgK.s:9122   .debug_loc:0000000000000f0c .LLST13
C:\Users\stapi\AppData\Local\Temp\cchD7lgK.s:237    .text.asn1_put_len:0000000000000044 .LBB51
C:\Users\stapi\AppData\Local\Temp\cchD7lgK.s:377    .text.asn1_put_len:00000000000000da .LBE51
C:\Users\stapi\AppData\Local\Temp\cchD7lgK.s:9162   .debug_loc:0000000000000f6a .LLST14
C:\Users\stapi\AppData\Local\Temp\cchD7lgK.s:9187   .debug_loc:0000000000000fa4 .LLST15
C:\Users\stapi\AppData\Local\Temp\cchD7lgK.s:248    .text.asn1_put_len:0000000000000056 .LBB53
C:\Users\stapi\AppData\Local\Temp\cchD7lgK.s:277    .text.asn1_put_len:0000000000000072 .LBE53
C:\Users\stapi\AppData\Local\Temp\cchD7lgK.s:9194   .debug_loc:0000000000000fb7 .LLST16
C:\Users\stapi\AppData\Local\Temp\cchD7lgK.s:9208   .debug_loc:0000000000000fd8 .LLST17
C:\Users\stapi\AppData\Local\Temp\cchD7lgK.s:9215   .debug_loc:0000000000000feb .LLST18
C:\Users\stapi\AppData\Local\Temp\cchD7lgK.s:257    .text.asn1_put_len:0000000000000062 .LBB55
C:\Users\stapi\AppData\Local\Temp\cchD7lgK.s:271    .text.asn1_put_len:0000000000000070 .LBE55
C:\Users\stapi\AppData\Local\Temp\cchD7lgK.s:9222   .debug_loc:0000000000000ffe .LLST19
C:\Users\stapi\AppData\Local\Temp\cchD7lgK.s:9236   .debug_loc:000000000000101f .LLST20
C:\Users\stapi\AppData\Local\Temp\cchD7lgK.s:255    .text.asn1_put_len:0000000000000062 .LVL29
C:\Users\stapi\AppData\Local\Temp\cchD7lgK.s:279    .text.asn1_put_len:0000000000000072 .LBB57
C:\Users\stapi\AppData\Local\Temp\cchD7lgK.s:9243   .debug_loc:0000000000001032 .LLST21
C:\Users\stapi\AppData\Local\Temp\cchD7lgK.s:9250   .debug_loc:0000000000001045 .LLST22
C:\Users\stapi\AppData\Local\Temp\cchD7lgK.s:9257   .debug_loc:0000000000001058 .LLST23
C:\Users\stapi\AppData\Local\Temp\cchD7lgK.s:281    .text.asn1_put_len:0000000000000072 .LBB59
C:\Users\stapi\AppData\Local\Temp\cchD7lgK.s:9264   .debug_loc:000000000000106b .LLST24
C:\Users\stapi\AppData\Local\Temp\cchD7lgK.s:319    .text.asn1_put_len:00000000000000a2 .LVL34
C:\Users\stapi\AppData\Local\Temp\cchD7lgK.s:345    .text.asn1_put_len:00000000000000bc .LBB69
C:\Users\stapi\AppData\Local\Temp\cchD7lgK.s:375    .text.asn1_put_len:00000000000000da .LBE69
C:\Users\stapi\AppData\Local\Temp\cchD7lgK.s:9271   .debug_loc:000000000000107e .LLST26
C:\Users\stapi\AppData\Local\Temp\cchD7lgK.s:9285   .debug_loc:000000000000109f .LLST27
C:\Users\stapi\AppData\Local\Temp\cchD7lgK.s:9292   .debug_loc:00000000000010b2 .LLST28
C:\Users\stapi\AppData\Local\Temp\cchD7lgK.s:354    .text.asn1_put_len:00000000000000c8 .LBB71
C:\Users\stapi\AppData\Local\Temp\cchD7lgK.s:373    .text.asn1_put_len:00000000000000da .LBE71
C:\Users\stapi\AppData\Local\Temp\cchD7lgK.s:9299   .debug_loc:00000000000010c5 .LLST29
C:\Users\stapi\AppData\Local\Temp\cchD7lgK.s:352    .text.asn1_put_len:00000000000000c8 .LVL37
C:\Users\stapi\AppData\Local\Temp\cchD7lgK.s:246    .text.asn1_put_len:0000000000000056 .LVL28
C:\Users\stapi\AppData\Local\Temp\cchD7lgK.s:310    .text.asn1_put_len:0000000000000096 .LVL33
C:\Users\stapi\AppData\Local\Temp\cchD7lgK.s:343    .text.asn1_put_len:00000000000000bc .LVL36
C:\Users\stapi\AppData\Local\Temp\cchD7lgK.s:204    .text.asn1_put_len:000000000000001e .LVL23
C:\Users\stapi\AppData\Local\Temp\cchD7lgK.s:230    .text.asn1_put_len:000000000000003e .LVL26
C:\Users\stapi\AppData\Local\Temp\cchD7lgK.s:1971   .text.asn1_put_oid:0000000000000000 .LFB103
C:\Users\stapi\AppData\Local\Temp\cchD7lgK.s:2157   .text.asn1_put_oid:00000000000000c0 .LFE103
C:\Users\stapi\AppData\Local\Temp\cchD7lgK.s:9313   .debug_loc:00000000000010e6 .LLST96
C:\Users\stapi\AppData\Local\Temp\cchD7lgK.s:9328   .debug_loc:000000000000110f .LLST97
C:\Users\stapi\AppData\Local\Temp\cchD7lgK.s:1994   .text.asn1_put_oid:0000000000000014 .LBB125
C:\Users\stapi\AppData\Local\Temp\cchD7lgK.s:9343   .debug_loc:0000000000001138 .LLST98
C:\Users\stapi\AppData\Local\Temp\cchD7lgK.s:9354   .debug_loc:0000000000001156 .LLST99
C:\Users\stapi\AppData\Local\Temp\cchD7lgK.s:9369   .debug_loc:000000000000117f .LLST100
C:\Users\stapi\AppData\Local\Temp\cchD7lgK.s:9384   .debug_loc:00000000000011a8 .LLST101
C:\Users\stapi\AppData\Local\Temp\cchD7lgK.s:9400   .debug_loc:00000000000011d2 .LLST102
C:\Users\stapi\AppData\Local\Temp\cchD7lgK.s:9411   .debug_loc:00000000000011f0 .LLST103
C:\Users\stapi\AppData\Local\Temp\cchD7lgK.s:2101   .text.asn1_put_oid:0000000000000098 .LVL208
C:\Users\stapi\AppData\Local\Temp\cchD7lgK.s:2003   .text.asn1_put_oid:0000000000000020 .LVL194
C:\Users\stapi\AppData\Local\Temp\cchD7lgK.s:2009   .text.asn1_put_oid:000000000000002c .LVL195
C:\Users\stapi\AppData\Local\Temp\cchD7lgK.s:2023   .text.asn1_put_oid:0000000000000048 .LVL198
C:\Users\stapi\AppData\Local\Temp\cchD7lgK.s:2038   .text.asn1_put_oid:000000000000005c .LVL200
C:\Users\stapi\AppData\Local\Temp\cchD7lgK.s:2164   .text.asn1_put_hdr:0000000000000000 .LFB104
C:\Users\stapi\AppData\Local\Temp\cchD7lgK.s:2204   .text.asn1_put_hdr:000000000000003a .LFE104
C:\Users\stapi\AppData\Local\Temp\cchD7lgK.s:9427   .debug_loc:000000000000121a .LLST104
C:\Users\stapi\AppData\Local\Temp\cchD7lgK.s:9438   .debug_loc:0000000000001238 .LLST105
C:\Users\stapi\AppData\Local\Temp\cchD7lgK.s:9452   .debug_loc:0000000000001259 .LLST106
C:\Users\stapi\AppData\Local\Temp\cchD7lgK.s:9466   .debug_loc:000000000000127a .LLST107
C:\Users\stapi\AppData\Local\Temp\cchD7lgK.s:9480   .debug_loc:000000000000129b .LLST108
C:\Users\stapi\AppData\Local\Temp\cchD7lgK.s:2191   .text.asn1_put_hdr:0000000000000026 .LVL218
C:\Users\stapi\AppData\Local\Temp\cchD7lgK.s:2196   .text.asn1_put_hdr:0000000000000032 .LVL219
C:\Users\stapi\AppData\Local\Temp\cchD7lgK.s:9790   .debug_str:00000000000003d7 .LASF125
C:\Users\stapi\AppData\Local\Temp\cchD7lgK.s:9806   .debug_str:00000000000004bc .LASF126
C:\Users\stapi\AppData\Local\Temp\cchD7lgK.s:9930   .debug_str:00000000000008f7 .LASF127
C:\Users\stapi\AppData\Local\Temp\cchD7lgK.s:9898   .debug_str:00000000000007e0 .LASF128
C:\Users\stapi\AppData\Local\Temp\cchD7lgK.s:9954   .debug_str:000000000000099c .LASF129
C:\Users\stapi\AppData\Local\Temp\cchD7lgK.s:9804   .debug_str:00000000000004b2 .LASF130
C:\Users\stapi\AppData\Local\Temp\cchD7lgK.s:9964   .debug_str:00000000000009dd .LASF131
C:\Users\stapi\AppData\Local\Temp\cchD7lgK.s:9888   .debug_str:00000000000007a7 .LASF132
C:\Users\stapi\AppData\Local\Temp\cchD7lgK.s:2409   .text.asn1_encaps:0000000000000000 .LVL245
C:\Users\stapi\AppData\Local\Temp\cchD7lgK.s:2435   .text.asn1_encaps:0000000000000014 .LVL247
C:\Users\stapi\AppData\Local\Temp\cchD7lgK.s:2471   .text.asn1_encaps:000000000000004a .LVL254
C:\Users\stapi\AppData\Local\Temp\cchD7lgK.s:2440   .text.asn1_encaps:0000000000000020 .LVL249
C:\Users\stapi\AppData\Local\Temp\cchD7lgK.s:2493   .text.asn1_build_alg_id:0000000000000000 .LVL255
C:\Users\stapi\AppData\Local\Temp\cchD7lgK.s:2509   .text.asn1_build_alg_id:0000000000000010 .LVL257
C:\Users\stapi\AppData\Local\Temp\cchD7lgK.s:2529   .text.asn1_build_alg_id:0000000000000022 .LVL261
C:\Users\stapi\AppData\Local\Temp\cchD7lgK.s:2554   .text.asn1_build_alg_id:000000000000004c .LVL265
C:\Users\stapi\AppData\Local\Temp\cchD7lgK.s:2503   .text.asn1_build_alg_id:0000000000000008 .LVL256
C:\Users\stapi\AppData\Local\Temp\cchD7lgK.s:2522   .text.asn1_build_alg_id:0000000000000018 .LVL259
C:\Users\stapi\AppData\Local\Temp\cchD7lgK.s:2342   .text.asn1_put_utf8string:0000000000000000 .LVL236
C:\Users\stapi\AppData\Local\Temp\cchD7lgK.s:2354   .text.asn1_put_utf8string:000000000000000c .LVL237
C:\Users\stapi\AppData\Local\Temp\cchD7lgK.s:2361   .text.asn1_put_utf8string:0000000000000018 .LVL239
C:\Users\stapi\AppData\Local\Temp\cchD7lgK.s:2367   .text.asn1_put_utf8string:000000000000001c .LVL240
C:\Users\stapi\AppData\Local\Temp\cchD7lgK.s:2278   .text.asn1_put_set:0000000000000000 .LVL228
C:\Users\stapi\AppData\Local\Temp\cchD7lgK.s:2301   .text.asn1_put_set:0000000000000012 .LVL231
C:\Users\stapi\AppData\Local\Temp\cchD7lgK.s:2286   .text.asn1_put_set:0000000000000008 .LVL229
C:\Users\stapi\AppData\Local\Temp\cchD7lgK.s:2292   .text.asn1_put_set:000000000000000c .LVL230
C:\Users\stapi\AppData\Local\Temp\cchD7lgK.s:2306   .text.asn1_put_set:0000000000000014 .LVL232
C:\Users\stapi\AppData\Local\Temp\cchD7lgK.s:2214   .text.asn1_put_sequence:0000000000000000 .LVL220
C:\Users\stapi\AppData\Local\Temp\cchD7lgK.s:2237   .text.asn1_put_sequence:0000000000000012 .LVL223
C:\Users\stapi\AppData\Local\Temp\cchD7lgK.s:2222   .text.asn1_put_sequence:0000000000000008 .LVL221
C:\Users\stapi\AppData\Local\Temp\cchD7lgK.s:2228   .text.asn1_put_sequence:000000000000000c .LVL222
C:\Users\stapi\AppData\Local\Temp\cchD7lgK.s:2242   .text.asn1_put_sequence:0000000000000014 .LVL224
C:\Users\stapi\AppData\Local\Temp\cchD7lgK.s:1924   .text.asn1_put_octet_string:0000000000000000 .LVL186
C:\Users\stapi\AppData\Local\Temp\cchD7lgK.s:1935   .text.asn1_put_octet_string:000000000000000c .LVL187
C:\Users\stapi\AppData\Local\Temp\cchD7lgK.s:1828   .text.asn1_put_integer:0000000000000000 .LVL175
C:\Users\stapi\AppData\Local\Temp\cchD7lgK.s:1908   .text.asn1_put_integer:0000000000000064 .LVL185
C:\Users\stapi\AppData\Local\Temp\cchD7lgK.s:1861   .text.asn1_put_integer:000000000000001a .LVL178
C:\Users\stapi\AppData\Local\Temp\cchD7lgK.s:1853   .text.asn1_put_integer:0000000000000018 .LVL177
C:\Users\stapi\AppData\Local\Temp\cchD7lgK.s:1870   .text.asn1_put_integer:0000000000000022 .LVL179
C:\Users\stapi\AppData\Local\Temp\cchD7lgK.s:1878   .text.asn1_put_integer:000000000000002a .LVL180
C:\Users\stapi\AppData\Local\Temp\cchD7lgK.s:1883   .text.asn1_put_integer:0000000000000030 .LVL181
C:\Users\stapi\AppData\Local\Temp\cchD7lgK.s:1839   .text.asn1_put_integer:000000000000000a .LVL176
C:\Users\stapi\AppData\Local\Temp\cchD7lgK.s:1738   .text.asn1_get_alg_id:0000000000000000 .LVL169
C:\Users\stapi\AppData\Local\Temp\cchD7lgK.s:1754   .text.asn1_get_alg_id:0000000000000010 .LVL170
C:\Users\stapi\AppData\Local\Temp\cchD7lgK.s:1756   .text.asn1_get_alg_id:0000000000000012 .LVL171
C:\Users\stapi\AppData\Local\Temp\cchD7lgK.s:1761   .text.asn1_get_alg_id:0000000000000016 .LVL172
C:\Users\stapi\AppData\Local\Temp\cchD7lgK.s:1664   .text.asn1_get_sequence:0000000000000000 .LVL164
C:\Users\stapi\AppData\Local\Temp\cchD7lgK.s:1679   .text.asn1_get_sequence:0000000000000018 .LVL166
C:\Users\stapi\AppData\Local\Temp\cchD7lgK.s:1689   .text.asn1_get_sequence:0000000000000026 .LVL167
C:\Users\stapi\AppData\Local\Temp\cchD7lgK.s:1531   .text.asn1_get_integer:0000000000000000 .LVL150
C:\Users\stapi\AppData\Local\Temp\cchD7lgK.s:1549   .text.asn1_get_integer:000000000000000e .LVL151
C:\Users\stapi\AppData\Local\Temp\cchD7lgK.s:1584   .text.asn1_get_integer:0000000000000038 .LVL155
C:\Users\stapi\AppData\Local\Temp\cchD7lgK.s:1591   .text.asn1_get_integer:000000000000003e .LVL156
C:\Users\stapi\AppData\Local\Temp\cchD7lgK.s:1616   .text.asn1_get_integer:0000000000000052 .LVL160
C:\Users\stapi\AppData\Local\Temp\cchD7lgK.s:1639   .text.asn1_get_integer:0000000000000070 .LVL162
C:\Users\stapi\AppData\Local\Temp\cchD7lgK.s:1561   .text.asn1_get_integer:0000000000000020 .LVL153
C:\Users\stapi\AppData\Local\Temp\cchD7lgK.s:1571   .text.asn1_get_integer:000000000000002e .LVL154
C:\Users\stapi\AppData\Local\Temp\cchD7lgK.s:1470   .text.asn1_oid_equal:0000000000000000 .LVL143
C:\Users\stapi\AppData\Local\Temp\cchD7lgK.s:1487   .text.asn1_oid_equal:0000000000000010 .LVL145
C:\Users\stapi\AppData\Local\Temp\cchD7lgK.s:1489   .text.asn1_oid_equal:0000000000000012 .LVL146
C:\Users\stapi\AppData\Local\Temp\cchD7lgK.s:1510   .text.asn1_oid_equal:000000000000002a .LVL149
C:\Users\stapi\AppData\Local\Temp\cchD7lgK.s:1481   .text.asn1_oid_equal:000000000000000a .LVL144
C:\Users\stapi\AppData\Local\Temp\cchD7lgK.s:1506   .text.asn1_oid_equal:0000000000000028 .LVL148
C:\Users\stapi\AppData\Local\Temp\cchD7lgK.s:1360   .text.asn1_bit_string_to_long:0000000000000000 .LVL130
C:\Users\stapi\AppData\Local\Temp\cchD7lgK.s:1381   .text.asn1_bit_string_to_long:0000000000000016 .LVL132
C:\Users\stapi\AppData\Local\Temp\cchD7lgK.s:1368   .text.asn1_bit_string_to_long:0000000000000008 .LVL131
C:\Users\stapi\AppData\Local\Temp\cchD7lgK.s:1392   .text.asn1_bit_string_to_long:0000000000000024 .LVL135
C:\Users\stapi\AppData\Local\Temp\cchD7lgK.s:1384   .text.asn1_bit_string_to_long:0000000000000018 .LVL133
C:\Users\stapi\AppData\Local\Temp\cchD7lgK.s:17     .text.rotate_bits:0000000000000000 .LVL0
C:\Users\stapi\AppData\Local\Temp\cchD7lgK.s:24     .text.rotate_bits:0000000000000002 .LVL1
C:\Users\stapi\AppData\Local\Temp\cchD7lgK.s:30     .text.rotate_bits:0000000000000006 .LVL2
C:\Users\stapi\AppData\Local\Temp\cchD7lgK.s:52     .text.rotate_bits:0000000000000018 .LVL6
C:\Users\stapi\AppData\Local\Temp\cchD7lgK.s:55     .text.rotate_bits:000000000000001a .LVL7
C:\Users\stapi\AppData\Local\Temp\cchD7lgK.s:35     .text.rotate_bits:0000000000000008 .LVL3
C:\Users\stapi\AppData\Local\Temp\cchD7lgK.s:40     .text.rotate_bits:0000000000000010 .LVL4
C:\Users\stapi\AppData\Local\Temp\cchD7lgK.s:1228   .text.asn1_oid_to_str:0000000000000000 .LVL120
C:\Users\stapi\AppData\Local\Temp\cchD7lgK.s:1264   .text.asn1_oid_to_str:000000000000002c .LVL122
C:\Users\stapi\AppData\Local\Temp\cchD7lgK.s:1332   .text.asn1_oid_to_str:0000000000000070 .LVL129
C:\Users\stapi\AppData\Local\Temp\cchD7lgK.s:1256   .text.asn1_oid_to_str:000000000000001a .LVL121
C:\Users\stapi\AppData\Local\Temp\cchD7lgK.s:1293   .text.asn1_oid_to_str:000000000000005a .LVL124
C:\Users\stapi\AppData\Local\Temp\cchD7lgK.s:1313   .text.asn1_oid_to_str:0000000000000066 .LVL125
C:\Users\stapi\AppData\Local\Temp\cchD7lgK.s:1320   .text.asn1_oid_to_str:000000000000006a .LVL126
C:\Users\stapi\AppData\Local\Temp\cchD7lgK.s:1131   .text.asn1_get_oid:0000000000000000 .LVL113
C:\Users\stapi\AppData\Local\Temp\cchD7lgK.s:1146   .text.asn1_get_oid:000000000000000e .LVL114
C:\Users\stapi\AppData\Local\Temp\cchD7lgK.s:1158   .text.asn1_get_oid:0000000000000020 .LVL116
C:\Users\stapi\AppData\Local\Temp\cchD7lgK.s:1169   .text.asn1_get_oid:000000000000002e .LVL117
C:\Users\stapi\AppData\Local\Temp\cchD7lgK.s:965    .text.asn1_parse_oid:0000000000000000 .LVL88
C:\Users\stapi\AppData\Local\Temp\cchD7lgK.s:986    .text.asn1_parse_oid:0000000000000016 .LVL91
C:\Users\stapi\AppData\Local\Temp\cchD7lgK.s:1003   .text.asn1_parse_oid:000000000000002e .LVL94
C:\Users\stapi\AppData\Local\Temp\cchD7lgK.s:984    .text.asn1_parse_oid:0000000000000014 .LVL90
C:\Users\stapi\AppData\Local\Temp\cchD7lgK.s:982    .text.asn1_parse_oid:0000000000000012 .LVL89
C:\Users\stapi\AppData\Local\Temp\cchD7lgK.s:993    .text.asn1_parse_oid:0000000000000022 .LVL93
C:\Users\stapi\AppData\Local\Temp\cchD7lgK.s:1009   .text.asn1_parse_oid:0000000000000034 .LVL95
C:\Users\stapi\AppData\Local\Temp\cchD7lgK.s:1019   .text.asn1_parse_oid:000000000000003c .LVL96
C:\Users\stapi\AppData\Local\Temp\cchD7lgK.s:1026   .text.asn1_parse_oid:0000000000000040 .LVL97
C:\Users\stapi\AppData\Local\Temp\cchD7lgK.s:1031   .text.asn1_parse_oid:0000000000000044 .LVL98
C:\Users\stapi\AppData\Local\Temp\cchD7lgK.s:1064   .text.asn1_parse_oid:0000000000000068 .LVL104
C:\Users\stapi\AppData\Local\Temp\cchD7lgK.s:1071   .text.asn1_parse_oid:0000000000000078 .LVL106
C:\Users\stapi\AppData\Local\Temp\cchD7lgK.s:1036   .text.asn1_parse_oid:0000000000000046 .LVL99
C:\Users\stapi\AppData\Local\Temp\cchD7lgK.s:1042   .text.asn1_parse_oid:000000000000004c .LVL100
C:\Users\stapi\AppData\Local\Temp\cchD7lgK.s:1051   .text.asn1_parse_oid:0000000000000056 .LVL102
C:\Users\stapi\AppData\Local\Temp\cchD7lgK.s:1093   .text.asn1_parse_oid:000000000000008c .LVL108
C:\Users\stapi\AppData\Local\Temp\cchD7lgK.s:1098   .text.asn1_parse_oid:0000000000000090 .LVL109
C:\Users\stapi\AppData\Local\Temp\cchD7lgK.s:1045   .text.asn1_parse_oid:000000000000004e .LVL101
C:\Users\stapi\AppData\Local\Temp\cchD7lgK.s:1059   .text.asn1_parse_oid:0000000000000060 .LVL103
C:\Users\stapi\AppData\Local\Temp\cchD7lgK.s:1084   .text.asn1_parse_oid:0000000000000084 .LVL107
C:\Users\stapi\AppData\Local\Temp\cchD7lgK.s:1103   .text.asn1_parse_oid:0000000000000092 .LVL110
C:\Users\stapi\AppData\Local\Temp\cchD7lgK.s:1105   .text.asn1_parse_oid:0000000000000094 .LVL111
C:\Users\stapi\AppData\Local\Temp\cchD7lgK.s:1111   .text.asn1_parse_oid:000000000000009c .LVL112
C:\Users\stapi\AppData\Local\Temp\cchD7lgK.s:935    .text.asn1_unexpected:0000000000000000 .LVL84
C:\Users\stapi\AppData\Local\Temp\cchD7lgK.s:947    .text.asn1_unexpected:0000000000000016 .LVL86
C:\Users\stapi\AppData\Local\Temp\cchD7lgK.s:944    .text.asn1_unexpected:0000000000000010 .LVL85
C:\Users\stapi\AppData\Local\Temp\cchD7lgK.s:395    .text.asn1_print_hdr:0000000000000000 .LVL40
C:\Users\stapi\AppData\Local\Temp\cchD7lgK.s:407    .text.asn1_print_hdr:0000000000000016 .LVL42
C:\Users\stapi\AppData\Local\Temp\cchD7lgK.s:404    .text.asn1_print_hdr:0000000000000010 .LVL41
C:\Users\stapi\AppData\Local\Temp\cchD7lgK.s:470    .text.asn1_get_next:0000000000000000 .LVL44
C:\Users\stapi\AppData\Local\Temp\cchD7lgK.s:494    .text.asn1_get_next:0000000000000014 .LVL47
C:\Users\stapi\AppData\Local\Temp\cchD7lgK.s:490    .text.asn1_get_next:0000000000000010 .LVL45
C:\Users\stapi\AppData\Local\Temp\cchD7lgK.s:497    .text.asn1_get_next:0000000000000016 .LVL48
C:\Users\stapi\AppData\Local\Temp\cchD7lgK.s:492    .text.asn1_get_next:0000000000000012 .LVL46
C:\Users\stapi\AppData\Local\Temp\cchD7lgK.s:509    .text.asn1_get_next:000000000000002a .LVL50
C:\Users\stapi\AppData\Local\Temp\cchD7lgK.s:517    .text.asn1_get_next:0000000000000036 .LVL52
C:\Users\stapi\AppData\Local\Temp\cchD7lgK.s:524    .text.asn1_get_next:000000000000003e .LVL53
C:\Users\stapi\AppData\Local\Temp\cchD7lgK.s:628    .text.asn1_get_next:00000000000000ec .LVL61
C:\Users\stapi\AppData\Local\Temp\cchD7lgK.s:665    .text.asn1_get_next:000000000000011c .LVL64
C:\Users\stapi\AppData\Local\Temp\cchD7lgK.s:813    .text.asn1_get_next:00000000000001d8 .LVL75
C:\Users\stapi\AppData\Local\Temp\cchD7lgK.s:832    .text.asn1_get_next:00000000000001f6 .LVL78
C:\Users\stapi\AppData\Local\Temp\cchD7lgK.s:845    .text.asn1_get_next:0000000000000202 .LVL79
C:\Users\stapi\AppData\Local\Temp\cchD7lgK.s:853    .text.asn1_get_next:0000000000000214 .LVL80
C:\Users\stapi\AppData\Local\Temp\cchD7lgK.s:860    .text.asn1_get_next:0000000000000216 .LVL81
C:\Users\stapi\AppData\Local\Temp\cchD7lgK.s:883    .text.asn1_get_next:0000000000000238 .LVL82
C:\Users\stapi\AppData\Local\Temp\cchD7lgK.s:899    .text.asn1_get_next:0000000000000240 .LVL83
C:\Users\stapi\AppData\Local\Temp\cchD7lgK.s:767    .text.asn1_get_next:00000000000001ac .LVL72
C:\Users\stapi\AppData\Local\Temp\cchD7lgK.s:576    .text.asn1_get_next:0000000000000090 .LVL58
C:\Users\stapi\AppData\Local\Temp\cchD7lgK.s:635    .text.asn1_get_next:00000000000000f6 .LVL62
C:\Users\stapi\AppData\Local\Temp\cchD7lgK.s:645    .text.asn1_get_next:0000000000000104 .LVL63
C:\Users\stapi\AppData\Local\Temp\cchD7lgK.s:738    .text.asn1_get_next:0000000000000186 .LVL67
C:\Users\stapi\AppData\Local\Temp\cchD7lgK.s:740    .text.asn1_get_next:000000000000018a .LVL68
C:\Users\stapi\AppData\Local\Temp\cchD7lgK.s:747    .text.asn1_get_next:0000000000000194 .LVL69
C:\Users\stapi\AppData\Local\Temp\cchD7lgK.s:753    .text.asn1_get_next:00000000000001a2 .LVL70
C:\Users\stapi\AppData\Local\Temp\cchD7lgK.s:758    .text.asn1_get_next:00000000000001a4 .LVL71
C:\Users\stapi\AppData\Local\Temp\cchD7lgK.s:543    .text.asn1_get_next:000000000000005a .LVL54
C:\Users\stapi\AppData\Local\Temp\cchD7lgK.s:556    .text.asn1_get_next:0000000000000070 .LVL55
C:\Users\stapi\AppData\Local\Temp\cchD7lgK.s:560    .text.asn1_get_next:0000000000000074 .LVL56
C:\Users\stapi\AppData\Local\Temp\cchD7lgK.s:786    .text.asn1_get_next:00000000000001c0 .LVL73
C:\Users\stapi\AppData\Local\Temp\cchD7lgK.s:804    .text.asn1_get_next:00000000000001cc .LVL74
C:\Users\stapi\AppData\Local\Temp\cchD7lgK.s:154    .text.wpabuf_put_buf:0000000000000000 .LVL18
C:\Users\stapi\AppData\Local\Temp\cchD7lgK.s:169    .text.wpabuf_put_buf:0000000000000004 .LVL19
C:\Users\stapi\AppData\Local\Temp\cchD7lgK.s:74     .text.wpabuf_put_u8:0000000000000000 .LVL8
C:\Users\stapi\AppData\Local\Temp\cchD7lgK.s:84     .text.wpabuf_put_u8:000000000000000c .LVL9
C:\Users\stapi\AppData\Local\Temp\cchD7lgK.s:105    .text.wpabuf_put_data:0000000000000000 .LVL11
C:\Users\stapi\AppData\Local\Temp\cchD7lgK.s:140    .text.wpabuf_put_data:0000000000000030 .LVL17
C:\Users\stapi\AppData\Local\Temp\cchD7lgK.s:122    .text.wpabuf_put_data:0000000000000010 .LVL13
C:\Users\stapi\AppData\Local\Temp\cchD7lgK.s:135    .text.wpabuf_put_data:0000000000000028 .LVL16
C:\Users\stapi\AppData\Local\Temp\cchD7lgK.s:117    .text.wpabuf_put_data:000000000000000e .LVL12
C:\Users\stapi\AppData\Local\Temp\cchD7lgK.s:182    .text.asn1_put_len:0000000000000000 .LVL21
C:\Users\stapi\AppData\Local\Temp\cchD7lgK.s:216    .text.asn1_put_len:0000000000000026 .LVL24
C:\Users\stapi\AppData\Local\Temp\cchD7lgK.s:226    .text.asn1_put_len:0000000000000032 .LVL25
C:\Users\stapi\AppData\Local\Temp\cchD7lgK.s:200    .text.asn1_put_len:0000000000000016 .LVL22
C:\Users\stapi\AppData\Local\Temp\cchD7lgK.s:263    .text.asn1_put_len:0000000000000066 .LVL30
C:\Users\stapi\AppData\Local\Temp\cchD7lgK.s:274    .text.asn1_put_len:0000000000000072 .LVL32
C:\Users\stapi\AppData\Local\Temp\cchD7lgK.s:359    .text.asn1_put_len:00000000000000ca .LVL38
C:\Users\stapi\AppData\Local\Temp\cchD7lgK.s:236    .text.asn1_put_len:0000000000000044 .LVL27
C:\Users\stapi\AppData\Local\Temp\cchD7lgK.s:371    .text.asn1_put_len:00000000000000da .LVL39
C:\Users\stapi\AppData\Local\Temp\cchD7lgK.s:269    .text.asn1_put_len:0000000000000070 .LVL31
C:\Users\stapi\AppData\Local\Temp\cchD7lgK.s:334    .text.asn1_put_len:00000000000000b0 .LVL35
C:\Users\stapi\AppData\Local\Temp\cchD7lgK.s:1974   .text.asn1_put_oid:0000000000000000 .LVL191
C:\Users\stapi\AppData\Local\Temp\cchD7lgK.s:2143   .text.asn1_put_oid:00000000000000be .LVL214
C:\Users\stapi\AppData\Local\Temp\cchD7lgK.s:1998   .text.asn1_put_oid:0000000000000016 .LVL192
C:\Users\stapi\AppData\Local\Temp\cchD7lgK.s:2000   .text.asn1_put_oid:0000000000000018 .LVL193
C:\Users\stapi\AppData\Local\Temp\cchD7lgK.s:2045   .text.asn1_put_oid:0000000000000066 .LVL201
C:\Users\stapi\AppData\Local\Temp\cchD7lgK.s:2060   .text.asn1_put_oid:0000000000000070 .LVL202
C:\Users\stapi\AppData\Local\Temp\cchD7lgK.s:2016   .text.asn1_put_oid:0000000000000036 .LVL196
C:\Users\stapi\AppData\Local\Temp\cchD7lgK.s:2020   .text.asn1_put_oid:000000000000003c .LVL197
C:\Users\stapi\AppData\Local\Temp\cchD7lgK.s:2027   .text.asn1_put_oid:000000000000004a .LVL199
C:\Users\stapi\AppData\Local\Temp\cchD7lgK.s:2070   .text.asn1_put_oid:0000000000000076 .LVL203
C:\Users\stapi\AppData\Local\Temp\cchD7lgK.s:2088   .text.asn1_put_oid:0000000000000084 .LVL206
C:\Users\stapi\AppData\Local\Temp\cchD7lgK.s:2110   .text.asn1_put_oid:000000000000009e .LVL210
C:\Users\stapi\AppData\Local\Temp\cchD7lgK.s:2076   .text.asn1_put_oid:0000000000000078 .LVL204
C:\Users\stapi\AppData\Local\Temp\cchD7lgK.s:2085   .text.asn1_put_oid:0000000000000080 .LVL205
C:\Users\stapi\AppData\Local\Temp\cchD7lgK.s:2141   .text.asn1_put_oid:00000000000000bc .LVL213
C:\Users\stapi\AppData\Local\Temp\cchD7lgK.s:2167   .text.asn1_put_hdr:0000000000000000 .LVL215
C:\Users\stapi\AppData\Local\Temp\cchD7lgK.s:2176   .text.asn1_put_hdr:000000000000000a .LVL216
C:\Users\stapi\AppData\Local\Temp\cchD7lgK.s:2179   .text.asn1_put_hdr:0000000000000010 .LVL217
C:\Users\stapi\AppData\Local\Temp\cchD7lgK.s:2867   .debug_info:0000000000000000 .Ldebug_info0
C:\Users\stapi\AppData\Local\Temp\cchD7lgK.s:290    .text.asn1_put_len:000000000000007a .LBE57
C:\Users\stapi\AppData\Local\Temp\cchD7lgK.s:293    .text.asn1_put_len:000000000000007e .LBB67
C:\Users\stapi\AppData\Local\Temp\cchD7lgK.s:304    .text.asn1_put_len:0000000000000086 .LBE67
C:\Users\stapi\AppData\Local\Temp\cchD7lgK.s:312    .text.asn1_put_len:0000000000000096 .LBB68
C:\Users\stapi\AppData\Local\Temp\cchD7lgK.s:339    .text.asn1_put_len:00000000000000b0 .LBE68
C:\Users\stapi\AppData\Local\Temp\cchD7lgK.s:288    .text.asn1_put_len:000000000000007a .LBE59
C:\Users\stapi\AppData\Local\Temp\cchD7lgK.s:295    .text.asn1_put_len:000000000000007e .LBB63
C:\Users\stapi\AppData\Local\Temp\cchD7lgK.s:302    .text.asn1_put_len:0000000000000086 .LBE63
C:\Users\stapi\AppData\Local\Temp\cchD7lgK.s:321    .text.asn1_put_len:00000000000000a2 .LBB64
C:\Users\stapi\AppData\Local\Temp\cchD7lgK.s:337    .text.asn1_put_len:00000000000000b0 .LBE64
C:\Users\stapi\AppData\Local\Temp\cchD7lgK.s:541    .text.asn1_get_next:000000000000005a .LBB78
C:\Users\stapi\AppData\Local\Temp\cchD7lgK.s:623    .text.asn1_get_next:00000000000000e8 .LBE78
C:\Users\stapi\AppData\Local\Temp\cchD7lgK.s:630    .text.asn1_get_next:00000000000000ec .LBB79
C:\Users\stapi\AppData\Local\Temp\cchD7lgK.s:647    .text.asn1_get_next:0000000000000104 .LBE79
C:\Users\stapi\AppData\Local\Temp\cchD7lgK.s:782    .text.asn1_get_next:00000000000001be .LBE80
C:\Users\stapi\AppData\Local\Temp\cchD7lgK.s:787    .text.asn1_get_next:00000000000001c0 .LBB92
C:\Users\stapi\AppData\Local\Temp\cchD7lgK.s:791    .text.asn1_get_next:00000000000001c0 .LBE92
C:\Users\stapi\AppData\Local\Temp\cchD7lgK.s:794    .text.asn1_get_next:00000000000001c2 .LBB93
C:\Users\stapi\AppData\Local\Temp\cchD7lgK.s:824    .text.asn1_get_next:00000000000001e2 .LBE93
C:\Users\stapi\AppData\Local\Temp\cchD7lgK.s:834    .text.asn1_get_next:00000000000001f6 .LBB94
C:\Users\stapi\AppData\Local\Temp\cchD7lgK.s:872    .text.asn1_get_next:0000000000000224 .LBE94
C:\Users\stapi\AppData\Local\Temp\cchD7lgK.s:875    .text.asn1_get_next:0000000000000226 .LBB95
C:\Users\stapi\AppData\Local\Temp\cchD7lgK.s:886    .text.asn1_get_next:0000000000000238 .LBE95
C:\Users\stapi\AppData\Local\Temp\cchD7lgK.s:902    .text.asn1_get_next:0000000000000240 .LBB96
C:\Users\stapi\AppData\Local\Temp\cchD7lgK.s:910    .text.asn1_get_next:0000000000000244 .LBE96
C:\Users\stapi\AppData\Local\Temp\cchD7lgK.s:913    .text.asn1_get_next:0000000000000246 .LBB97
C:\Users\stapi\AppData\Local\Temp\cchD7lgK.s:919    .text.asn1_get_next:000000000000024c .LBE97
C:\Users\stapi\AppData\Local\Temp\cchD7lgK.s:822    .text.asn1_get_next:00000000000001e2 .LBE82
C:\Users\stapi\AppData\Local\Temp\cchD7lgK.s:836    .text.asn1_get_next:00000000000001f6 .LBB85
C:\Users\stapi\AppData\Local\Temp\cchD7lgK.s:856    .text.asn1_get_next:0000000000000214 .LBE85
C:\Users\stapi\AppData\Local\Temp\cchD7lgK.s:1296   .text.asn1_oid_to_str:000000000000005a .LBE102
C:\Users\stapi\AppData\Local\Temp\cchD7lgK.s:1316   .text.asn1_oid_to_str:0000000000000066 .LBB105
C:\Users\stapi\AppData\Local\Temp\cchD7lgK.s:1322   .text.asn1_oid_to_str:000000000000006a .LBE105
C:\Users\stapi\AppData\Local\Temp\cchD7lgK.s:1855   .text.asn1_put_integer:0000000000000018 .LBE116
C:\Users\stapi\AppData\Local\Temp\cchD7lgK.s:1857   .text.asn1_put_integer:0000000000000018 .LBB119
C:\Users\stapi\AppData\Local\Temp\cchD7lgK.s:1863   .text.asn1_put_integer:000000000000001a .LBE119
C:\Users\stapi\AppData\Local\Temp\cchD7lgK.s:2047   .text.asn1_put_oid:0000000000000066 .LBE125
C:\Users\stapi\AppData\Local\Temp\cchD7lgK.s:2063   .text.asn1_put_oid:0000000000000070 .LBB130
C:\Users\stapi\AppData\Local\Temp\cchD7lgK.s:2155   .text.asn1_put_oid:00000000000000c0 .LBE130
C:\Users\stapi\AppData\Local\Temp\cchD7lgK.s:2065   .text.asn1_put_oid:0000000000000070 .LBB127
C:\Users\stapi\AppData\Local\Temp\cchD7lgK.s:2104   .text.asn1_put_oid:000000000000009a .LBE127
C:\Users\stapi\AppData\Local\Temp\cchD7lgK.s:2112   .text.asn1_put_oid:000000000000009e .LBB128
C:\Users\stapi\AppData\Local\Temp\cchD7lgK.s:2153   .text.asn1_put_oid:00000000000000c0 .LBE128
C:\Users\stapi\AppData\Local\Temp\cchD7lgK.s:2239   .text.asn1_put_sequence:0000000000000012 .LBE133
C:\Users\stapi\AppData\Local\Temp\cchD7lgK.s:2243   .text.asn1_put_sequence:0000000000000014 .LBB136
C:\Users\stapi\AppData\Local\Temp\cchD7lgK.s:2254   .text.asn1_put_sequence:0000000000000028 .LBE136
C:\Users\stapi\AppData\Local\Temp\cchD7lgK.s:2303   .text.asn1_put_set:0000000000000012 .LBE139
C:\Users\stapi\AppData\Local\Temp\cchD7lgK.s:2307   .text.asn1_put_set:0000000000000014 .LBB142
C:\Users\stapi\AppData\Local\Temp\cchD7lgK.s:2318   .text.asn1_put_set:0000000000000028 .LBE142

UNDEFINED SYMBOLS
__riscv_save_1
wpabuf_put
__riscv_restore_1
os_memcpy
__riscv_save_5
__riscv_restore_5
wpa_printf
__riscv_save_7
os_memset
__riscv_restore_7
__riscv_save_3
__riscv_restore_3
__riscv_save_2
__riscv_restore_2
__riscv_save_8
os_snprintf
__riscv_restore_8
os_strlen
wpabuf_alloc
wpabuf_clear_free
