   1              		.file	"bssid_ignore.c"
   2              		.option nopic
   3              		.attribute arch, "rv32i2p0_m2p0_a2p0_f2p0_c2p0_b_p0p94"
   4              		.attribute unaligned_access, 0
   5              		.attribute stack_align, 16
   6              		.text
   7              	.Ltext0:
   8              		.cfi_sections	.debug_frame
   9              		.section	.text.os_reltime_expired,"ax",@progbits
  10              		.align	1
  12              	os_reltime_expired:
  13              	.LFB20:
  14              		.file 1 "..\\..\\..\\..\\wpa_supplicant\\src\\utils/os.h"
   1:..\..\..\..\wpa_supplicant\src\utils/os.h **** /*
   2:..\..\..\..\wpa_supplicant\src\utils/os.h ****  * OS specific functions
   3:..\..\..\..\wpa_supplicant\src\utils/os.h ****  * Copyright (c) 2005-2009, Jouni Malinen <j@w1.fi>
   4:..\..\..\..\wpa_supplicant\src\utils/os.h ****  *
   5:..\..\..\..\wpa_supplicant\src\utils/os.h ****  * This software may be distributed under the terms of the BSD license.
   6:..\..\..\..\wpa_supplicant\src\utils/os.h ****  * See README for more details.
   7:..\..\..\..\wpa_supplicant\src\utils/os.h ****  */
   8:..\..\..\..\wpa_supplicant\src\utils/os.h **** 
   9:..\..\..\..\wpa_supplicant\src\utils/os.h **** #ifndef OS_H
  10:..\..\..\..\wpa_supplicant\src\utils/os.h **** #define OS_H
  11:..\..\..\..\wpa_supplicant\src\utils/os.h **** 
  12:..\..\..\..\wpa_supplicant\src\utils/os.h **** typedef long os_time_t;
  13:..\..\..\..\wpa_supplicant\src\utils/os.h **** 
  14:..\..\..\..\wpa_supplicant\src\utils/os.h **** /**
  15:..\..\..\..\wpa_supplicant\src\utils/os.h ****  * os_sleep - Sleep (sec, usec)
  16:..\..\..\..\wpa_supplicant\src\utils/os.h ****  * @sec: Number of seconds to sleep
  17:..\..\..\..\wpa_supplicant\src\utils/os.h ****  * @usec: Number of microseconds to sleep
  18:..\..\..\..\wpa_supplicant\src\utils/os.h ****  */
  19:..\..\..\..\wpa_supplicant\src\utils/os.h **** void os_sleep(os_time_t sec, os_time_t usec);
  20:..\..\..\..\wpa_supplicant\src\utils/os.h **** 
  21:..\..\..\..\wpa_supplicant\src\utils/os.h **** struct os_time {
  22:..\..\..\..\wpa_supplicant\src\utils/os.h **** 	os_time_t sec;
  23:..\..\..\..\wpa_supplicant\src\utils/os.h **** 	os_time_t usec;
  24:..\..\..\..\wpa_supplicant\src\utils/os.h **** };
  25:..\..\..\..\wpa_supplicant\src\utils/os.h **** 
  26:..\..\..\..\wpa_supplicant\src\utils/os.h **** struct os_reltime {
  27:..\..\..\..\wpa_supplicant\src\utils/os.h **** 	os_time_t sec;
  28:..\..\..\..\wpa_supplicant\src\utils/os.h **** 	os_time_t usec;
  29:..\..\..\..\wpa_supplicant\src\utils/os.h **** };
  30:..\..\..\..\wpa_supplicant\src\utils/os.h **** 
  31:..\..\..\..\wpa_supplicant\src\utils/os.h **** /**
  32:..\..\..\..\wpa_supplicant\src\utils/os.h ****  * os_get_time - Get current time (sec, usec)
  33:..\..\..\..\wpa_supplicant\src\utils/os.h ****  * @t: Pointer to buffer for the time
  34:..\..\..\..\wpa_supplicant\src\utils/os.h ****  * Returns: 0 on success, -1 on failure
  35:..\..\..\..\wpa_supplicant\src\utils/os.h ****  */
  36:..\..\..\..\wpa_supplicant\src\utils/os.h **** int os_get_time(struct os_time *t);
  37:..\..\..\..\wpa_supplicant\src\utils/os.h **** 
  38:..\..\..\..\wpa_supplicant\src\utils/os.h **** /**
  39:..\..\..\..\wpa_supplicant\src\utils/os.h ****  * os_get_reltime - Get relative time (sec, usec)
  40:..\..\..\..\wpa_supplicant\src\utils/os.h ****  * @t: Pointer to buffer for the time
  41:..\..\..\..\wpa_supplicant\src\utils/os.h ****  * Returns: 0 on success, -1 on failure
  42:..\..\..\..\wpa_supplicant\src\utils/os.h ****  */
  43:..\..\..\..\wpa_supplicant\src\utils/os.h **** int os_get_reltime(struct os_reltime *t);
  44:..\..\..\..\wpa_supplicant\src\utils/os.h **** 
  45:..\..\..\..\wpa_supplicant\src\utils/os.h **** 
  46:..\..\..\..\wpa_supplicant\src\utils/os.h **** /* Helpers for handling struct os_time */
  47:..\..\..\..\wpa_supplicant\src\utils/os.h **** 
  48:..\..\..\..\wpa_supplicant\src\utils/os.h **** static inline int os_time_before(struct os_time *a, struct os_time *b)
  49:..\..\..\..\wpa_supplicant\src\utils/os.h **** {
  50:..\..\..\..\wpa_supplicant\src\utils/os.h **** 	return (a->sec < b->sec) ||
  51:..\..\..\..\wpa_supplicant\src\utils/os.h **** 	       (a->sec == b->sec && a->usec < b->usec);
  52:..\..\..\..\wpa_supplicant\src\utils/os.h **** }
  53:..\..\..\..\wpa_supplicant\src\utils/os.h **** 
  54:..\..\..\..\wpa_supplicant\src\utils/os.h **** 
  55:..\..\..\..\wpa_supplicant\src\utils/os.h **** static inline void os_time_sub(struct os_time *a, struct os_time *b,
  56:..\..\..\..\wpa_supplicant\src\utils/os.h **** 			       struct os_time *res)
  57:..\..\..\..\wpa_supplicant\src\utils/os.h **** {
  58:..\..\..\..\wpa_supplicant\src\utils/os.h **** 	res->sec = a->sec - b->sec;
  59:..\..\..\..\wpa_supplicant\src\utils/os.h **** 	res->usec = a->usec - b->usec;
  60:..\..\..\..\wpa_supplicant\src\utils/os.h **** 	if (res->usec < 0) {
  61:..\..\..\..\wpa_supplicant\src\utils/os.h **** 		res->sec--;
  62:..\..\..\..\wpa_supplicant\src\utils/os.h **** 		res->usec += 1000000;
  63:..\..\..\..\wpa_supplicant\src\utils/os.h **** 	}
  64:..\..\..\..\wpa_supplicant\src\utils/os.h **** }
  65:..\..\..\..\wpa_supplicant\src\utils/os.h **** 
  66:..\..\..\..\wpa_supplicant\src\utils/os.h **** 
  67:..\..\..\..\wpa_supplicant\src\utils/os.h **** /* Helpers for handling struct os_reltime */
  68:..\..\..\..\wpa_supplicant\src\utils/os.h **** 
  69:..\..\..\..\wpa_supplicant\src\utils/os.h **** static inline int os_reltime_before(struct os_reltime *a,
  70:..\..\..\..\wpa_supplicant\src\utils/os.h **** 				    struct os_reltime *b)
  71:..\..\..\..\wpa_supplicant\src\utils/os.h **** {
  72:..\..\..\..\wpa_supplicant\src\utils/os.h **** 	return (a->sec < b->sec) ||
  73:..\..\..\..\wpa_supplicant\src\utils/os.h **** 	       (a->sec == b->sec && a->usec < b->usec);
  74:..\..\..\..\wpa_supplicant\src\utils/os.h **** }
  75:..\..\..\..\wpa_supplicant\src\utils/os.h **** 
  76:..\..\..\..\wpa_supplicant\src\utils/os.h **** 
  77:..\..\..\..\wpa_supplicant\src\utils/os.h **** static inline void os_reltime_sub(struct os_reltime *a, struct os_reltime *b,
  78:..\..\..\..\wpa_supplicant\src\utils/os.h **** 				  struct os_reltime *res)
  79:..\..\..\..\wpa_supplicant\src\utils/os.h **** {
  80:..\..\..\..\wpa_supplicant\src\utils/os.h **** 	res->sec = a->sec - b->sec;
  81:..\..\..\..\wpa_supplicant\src\utils/os.h **** 	res->usec = a->usec - b->usec;
  82:..\..\..\..\wpa_supplicant\src\utils/os.h **** 	if (res->usec < 0) {
  83:..\..\..\..\wpa_supplicant\src\utils/os.h **** 		res->sec--;
  84:..\..\..\..\wpa_supplicant\src\utils/os.h **** 		res->usec += 1000000;
  85:..\..\..\..\wpa_supplicant\src\utils/os.h **** 	}
  86:..\..\..\..\wpa_supplicant\src\utils/os.h **** }
  87:..\..\..\..\wpa_supplicant\src\utils/os.h **** 
  88:..\..\..\..\wpa_supplicant\src\utils/os.h **** 
  89:..\..\..\..\wpa_supplicant\src\utils/os.h **** static inline void os_reltime_age(struct os_reltime *start,
  90:..\..\..\..\wpa_supplicant\src\utils/os.h **** 				  struct os_reltime *age)
  91:..\..\..\..\wpa_supplicant\src\utils/os.h **** {
  92:..\..\..\..\wpa_supplicant\src\utils/os.h **** 	struct os_reltime now;
  93:..\..\..\..\wpa_supplicant\src\utils/os.h **** 
  94:..\..\..\..\wpa_supplicant\src\utils/os.h **** 	os_get_reltime(&now);
  95:..\..\..\..\wpa_supplicant\src\utils/os.h **** 	os_reltime_sub(&now, start, age);
  96:..\..\..\..\wpa_supplicant\src\utils/os.h **** }
  97:..\..\..\..\wpa_supplicant\src\utils/os.h **** 
  98:..\..\..\..\wpa_supplicant\src\utils/os.h **** 
  99:..\..\..\..\wpa_supplicant\src\utils/os.h **** static inline int os_reltime_expired(struct os_reltime *now,
 100:..\..\..\..\wpa_supplicant\src\utils/os.h **** 				     struct os_reltime *ts,
 101:..\..\..\..\wpa_supplicant\src\utils/os.h **** 				     os_time_t timeout_secs)
 102:..\..\..\..\wpa_supplicant\src\utils/os.h **** {
  15              		.loc 1 102 1
  16              		.cfi_startproc
  17              	.LVL0:
 103:..\..\..\..\wpa_supplicant\src\utils/os.h **** 	struct os_reltime age;
  18              		.loc 1 103 2
 104:..\..\..\..\wpa_supplicant\src\utils/os.h **** 
 105:..\..\..\..\wpa_supplicant\src\utils/os.h **** 	os_reltime_sub(now, ts, &age);
  19              		.loc 1 105 2
  20              	.LBB5:
  21              	.LBB6:
  80:..\..\..\..\wpa_supplicant\src\utils/os.h **** 	res->usec = a->usec - b->usec;
  22              		.loc 1 80 2
  80:..\..\..\..\wpa_supplicant\src\utils/os.h **** 	res->usec = a->usec - b->usec;
  23              		.loc 1 80 20 is_stmt 0
  24 0000 9C41     		lw	a5,0(a1)
  25 0002 1841     		lw	a4,0(a0)
  81:..\..\..\..\wpa_supplicant\src\utils/os.h **** 	if (res->usec < 0) {
  26              		.loc 1 81 22
  27 0004 D441     		lw	a3,4(a1)
  80:..\..\..\..\wpa_supplicant\src\utils/os.h **** 	res->usec = a->usec - b->usec;
  28              		.loc 1 80 20
  29 0006 1D8F     		sub	a4,a4,a5
  30              	.LVL1:
  81:..\..\..\..\wpa_supplicant\src\utils/os.h **** 	if (res->usec < 0) {
  31              		.loc 1 81 2 is_stmt 1
  81:..\..\..\..\wpa_supplicant\src\utils/os.h **** 	if (res->usec < 0) {
  32              		.loc 1 81 22 is_stmt 0
  33 0008 5C41     		lw	a5,4(a0)
  34 000a 958F     		sub	a5,a5,a3
  35              	.LVL2:
  82:..\..\..\..\wpa_supplicant\src\utils/os.h **** 		res->sec--;
  36              		.loc 1 82 2 is_stmt 1
  82:..\..\..\..\wpa_supplicant\src\utils/os.h **** 		res->sec--;
  37              		.loc 1 82 5 is_stmt 0
  38 000c 63D80700 		bge	a5,zero,.L2
  83:..\..\..\..\wpa_supplicant\src\utils/os.h **** 		res->usec += 1000000;
  39              		.loc 1 83 3 is_stmt 1
  84:..\..\..\..\wpa_supplicant\src\utils/os.h **** 	}
  40              		.loc 1 84 13 is_stmt 0
  41 0010 B7460F00 		li	a3,999424
  42 0014 93860624 		addi	a3,a3,576
  83:..\..\..\..\wpa_supplicant\src\utils/os.h **** 		res->usec += 1000000;
  43              		.loc 1 83 11
  44 0018 7D17     		addi	a4,a4,-1
  45              	.LVL3:
  84:..\..\..\..\wpa_supplicant\src\utils/os.h **** 	}
  46              		.loc 1 84 3 is_stmt 1
  84:..\..\..\..\wpa_supplicant\src\utils/os.h **** 	}
  47              		.loc 1 84 13 is_stmt 0
  48 001a B697     		add	a5,a5,a3
  49              	.LVL4:
  50              	.L2:
  51              	.LBE6:
  52              	.LBE5:
 106:..\..\..\..\wpa_supplicant\src\utils/os.h **** 	return (age.sec > timeout_secs) ||
  53              		.loc 1 106 2 is_stmt 1
  54              		.loc 1 106 34 is_stmt 0
  55 001c 0545     		li	a0,1
  56              	.LVL5:
  57 001e 6347E600 		blt	a2,a4,.L1
  58              		.loc 1 106 34 discriminator 2
  59 0022 0145     		li	a0,0
  60 0024 6314E600 		bne	a2,a4,.L1
 107:..\..\..\..\wpa_supplicant\src\utils/os.h **** 	       (age.sec == timeout_secs && age.usec > 0);
  61              		.loc 1 107 34
  62 0028 3325F000 		sgt	a0,a5,zero
  63              	.L1:
 108:..\..\..\..\wpa_supplicant\src\utils/os.h **** }
  64              		.loc 1 108 1
  65 002c 8280     		ret
  66              		.cfi_endproc
  67              	.LFE20:
  69              		.section	.rodata.wpa_bssid_ignore_del.str1.4,"aMS",@progbits,1
  70              		.align	2
  71              	.LC0:
  72 0000 52656D6F 		.string	"Removed BSSID %02x:%02x:%02x:%02x:%02x:%02x from ignore list"
  72      76656420 
  72      42535349 
  72      44202530 
  72      32783A25 
  73              		.section	.text.wpa_bssid_ignore_del,"ax",@progbits
  74              		.align	1
  75              		.globl	wpa_bssid_ignore_del
  77              	wpa_bssid_ignore_del:
  78              	.LFB138:
  79              		.file 2 "C:/Users/stapi/OneDrive/Desktop/GD32VW553/V1_MQTT_OK/GD32VW55X_Wifi_BLE_SDK/GD32VW55x_REL
   1:C:/Users/stapi/OneDrive/Desktop/GD32VW553/V1_MQTT_OK/GD32VW55X_Wifi_BLE_SDK/GD32VW55x_RELEASE_V1.0.2/MSDK/wpa_supplicant/wpa_supplicant\bssid_ignore.c **** /*
   2:C:/Users/stapi/OneDrive/Desktop/GD32VW553/V1_MQTT_OK/GD32VW55X_Wifi_BLE_SDK/GD32VW55x_RELEASE_V1.0.2/MSDK/wpa_supplicant/wpa_supplicant\bssid_ignore.c ****  * wpa_supplicant - List of temporarily ignored BSSIDs
   3:C:/Users/stapi/OneDrive/Desktop/GD32VW553/V1_MQTT_OK/GD32VW55X_Wifi_BLE_SDK/GD32VW55x_RELEASE_V1.0.2/MSDK/wpa_supplicant/wpa_supplicant\bssid_ignore.c ****  * Copyright (c) 2003-2021, Jouni Malinen <j@w1.fi>
   4:C:/Users/stapi/OneDrive/Desktop/GD32VW553/V1_MQTT_OK/GD32VW55X_Wifi_BLE_SDK/GD32VW55x_RELEASE_V1.0.2/MSDK/wpa_supplicant/wpa_supplicant\bssid_ignore.c ****  *
   5:C:/Users/stapi/OneDrive/Desktop/GD32VW553/V1_MQTT_OK/GD32VW55X_Wifi_BLE_SDK/GD32VW55x_RELEASE_V1.0.2/MSDK/wpa_supplicant/wpa_supplicant\bssid_ignore.c ****  * This software may be distributed under the terms of the BSD license.
   6:C:/Users/stapi/OneDrive/Desktop/GD32VW553/V1_MQTT_OK/GD32VW55X_Wifi_BLE_SDK/GD32VW55x_RELEASE_V1.0.2/MSDK/wpa_supplicant/wpa_supplicant\bssid_ignore.c ****  * See README for more details.
   7:C:/Users/stapi/OneDrive/Desktop/GD32VW553/V1_MQTT_OK/GD32VW55X_Wifi_BLE_SDK/GD32VW55x_RELEASE_V1.0.2/MSDK/wpa_supplicant/wpa_supplicant\bssid_ignore.c ****  */
   8:C:/Users/stapi/OneDrive/Desktop/GD32VW553/V1_MQTT_OK/GD32VW55X_Wifi_BLE_SDK/GD32VW55x_RELEASE_V1.0.2/MSDK/wpa_supplicant/wpa_supplicant\bssid_ignore.c **** 
   9:C:/Users/stapi/OneDrive/Desktop/GD32VW553/V1_MQTT_OK/GD32VW55X_Wifi_BLE_SDK/GD32VW55x_RELEASE_V1.0.2/MSDK/wpa_supplicant/wpa_supplicant\bssid_ignore.c **** #include "includes.h"
  10:C:/Users/stapi/OneDrive/Desktop/GD32VW553/V1_MQTT_OK/GD32VW55X_Wifi_BLE_SDK/GD32VW55x_RELEASE_V1.0.2/MSDK/wpa_supplicant/wpa_supplicant\bssid_ignore.c **** 
  11:C:/Users/stapi/OneDrive/Desktop/GD32VW553/V1_MQTT_OK/GD32VW55X_Wifi_BLE_SDK/GD32VW55x_RELEASE_V1.0.2/MSDK/wpa_supplicant/wpa_supplicant\bssid_ignore.c **** #include "common.h"
  12:C:/Users/stapi/OneDrive/Desktop/GD32VW553/V1_MQTT_OK/GD32VW55X_Wifi_BLE_SDK/GD32VW55x_RELEASE_V1.0.2/MSDK/wpa_supplicant/wpa_supplicant\bssid_ignore.c **** #include "wpa_supplicant_i.h"
  13:C:/Users/stapi/OneDrive/Desktop/GD32VW553/V1_MQTT_OK/GD32VW55X_Wifi_BLE_SDK/GD32VW55x_RELEASE_V1.0.2/MSDK/wpa_supplicant/wpa_supplicant\bssid_ignore.c **** #include "bssid_ignore.h"
  14:C:/Users/stapi/OneDrive/Desktop/GD32VW553/V1_MQTT_OK/GD32VW55X_Wifi_BLE_SDK/GD32VW55x_RELEASE_V1.0.2/MSDK/wpa_supplicant/wpa_supplicant\bssid_ignore.c **** 
  15:C:/Users/stapi/OneDrive/Desktop/GD32VW553/V1_MQTT_OK/GD32VW55X_Wifi_BLE_SDK/GD32VW55x_RELEASE_V1.0.2/MSDK/wpa_supplicant/wpa_supplicant\bssid_ignore.c **** /**
  16:C:/Users/stapi/OneDrive/Desktop/GD32VW553/V1_MQTT_OK/GD32VW55X_Wifi_BLE_SDK/GD32VW55x_RELEASE_V1.0.2/MSDK/wpa_supplicant/wpa_supplicant\bssid_ignore.c ****  * wpa_bssid_ignore_get - Get the ignore list entry for a BSSID
  17:C:/Users/stapi/OneDrive/Desktop/GD32VW553/V1_MQTT_OK/GD32VW55X_Wifi_BLE_SDK/GD32VW55x_RELEASE_V1.0.2/MSDK/wpa_supplicant/wpa_supplicant\bssid_ignore.c ****  * @wpa_s: Pointer to wpa_supplicant data
  18:C:/Users/stapi/OneDrive/Desktop/GD32VW553/V1_MQTT_OK/GD32VW55X_Wifi_BLE_SDK/GD32VW55x_RELEASE_V1.0.2/MSDK/wpa_supplicant/wpa_supplicant\bssid_ignore.c ****  * @bssid: BSSID
  19:C:/Users/stapi/OneDrive/Desktop/GD32VW553/V1_MQTT_OK/GD32VW55X_Wifi_BLE_SDK/GD32VW55x_RELEASE_V1.0.2/MSDK/wpa_supplicant/wpa_supplicant\bssid_ignore.c ****  * Returns: Matching entry for the BSSID or %NULL if not found
  20:C:/Users/stapi/OneDrive/Desktop/GD32VW553/V1_MQTT_OK/GD32VW55X_Wifi_BLE_SDK/GD32VW55x_RELEASE_V1.0.2/MSDK/wpa_supplicant/wpa_supplicant\bssid_ignore.c ****  */
  21:C:/Users/stapi/OneDrive/Desktop/GD32VW553/V1_MQTT_OK/GD32VW55X_Wifi_BLE_SDK/GD32VW55x_RELEASE_V1.0.2/MSDK/wpa_supplicant/wpa_supplicant\bssid_ignore.c **** struct wpa_bssid_ignore * wpa_bssid_ignore_get(struct wpa_supplicant *wpa_s,
  22:C:/Users/stapi/OneDrive/Desktop/GD32VW553/V1_MQTT_OK/GD32VW55X_Wifi_BLE_SDK/GD32VW55x_RELEASE_V1.0.2/MSDK/wpa_supplicant/wpa_supplicant\bssid_ignore.c **** 					       const u8 *bssid)
  23:C:/Users/stapi/OneDrive/Desktop/GD32VW553/V1_MQTT_OK/GD32VW55X_Wifi_BLE_SDK/GD32VW55x_RELEASE_V1.0.2/MSDK/wpa_supplicant/wpa_supplicant\bssid_ignore.c **** {
  24:C:/Users/stapi/OneDrive/Desktop/GD32VW553/V1_MQTT_OK/GD32VW55X_Wifi_BLE_SDK/GD32VW55x_RELEASE_V1.0.2/MSDK/wpa_supplicant/wpa_supplicant\bssid_ignore.c **** 	struct wpa_bssid_ignore *e;
  25:C:/Users/stapi/OneDrive/Desktop/GD32VW553/V1_MQTT_OK/GD32VW55X_Wifi_BLE_SDK/GD32VW55x_RELEASE_V1.0.2/MSDK/wpa_supplicant/wpa_supplicant\bssid_ignore.c **** 
  26:C:/Users/stapi/OneDrive/Desktop/GD32VW553/V1_MQTT_OK/GD32VW55X_Wifi_BLE_SDK/GD32VW55x_RELEASE_V1.0.2/MSDK/wpa_supplicant/wpa_supplicant\bssid_ignore.c **** 	if (wpa_s == NULL || bssid == NULL)
  27:C:/Users/stapi/OneDrive/Desktop/GD32VW553/V1_MQTT_OK/GD32VW55X_Wifi_BLE_SDK/GD32VW55x_RELEASE_V1.0.2/MSDK/wpa_supplicant/wpa_supplicant\bssid_ignore.c **** 		return NULL;
  28:C:/Users/stapi/OneDrive/Desktop/GD32VW553/V1_MQTT_OK/GD32VW55X_Wifi_BLE_SDK/GD32VW55x_RELEASE_V1.0.2/MSDK/wpa_supplicant/wpa_supplicant\bssid_ignore.c **** 
  29:C:/Users/stapi/OneDrive/Desktop/GD32VW553/V1_MQTT_OK/GD32VW55X_Wifi_BLE_SDK/GD32VW55x_RELEASE_V1.0.2/MSDK/wpa_supplicant/wpa_supplicant\bssid_ignore.c **** 	if (wpa_s->current_ssid &&
  30:C:/Users/stapi/OneDrive/Desktop/GD32VW553/V1_MQTT_OK/GD32VW55X_Wifi_BLE_SDK/GD32VW55x_RELEASE_V1.0.2/MSDK/wpa_supplicant/wpa_supplicant\bssid_ignore.c **** 	    wpa_s->current_ssid->was_recently_reconfigured) {
  31:C:/Users/stapi/OneDrive/Desktop/GD32VW553/V1_MQTT_OK/GD32VW55X_Wifi_BLE_SDK/GD32VW55x_RELEASE_V1.0.2/MSDK/wpa_supplicant/wpa_supplicant\bssid_ignore.c **** 		wpa_bssid_ignore_clear(wpa_s);
  32:C:/Users/stapi/OneDrive/Desktop/GD32VW553/V1_MQTT_OK/GD32VW55X_Wifi_BLE_SDK/GD32VW55x_RELEASE_V1.0.2/MSDK/wpa_supplicant/wpa_supplicant\bssid_ignore.c **** 		wpa_s->current_ssid->was_recently_reconfigured = false;
  33:C:/Users/stapi/OneDrive/Desktop/GD32VW553/V1_MQTT_OK/GD32VW55X_Wifi_BLE_SDK/GD32VW55x_RELEASE_V1.0.2/MSDK/wpa_supplicant/wpa_supplicant\bssid_ignore.c **** 		return NULL;
  34:C:/Users/stapi/OneDrive/Desktop/GD32VW553/V1_MQTT_OK/GD32VW55X_Wifi_BLE_SDK/GD32VW55x_RELEASE_V1.0.2/MSDK/wpa_supplicant/wpa_supplicant\bssid_ignore.c **** 	}
  35:C:/Users/stapi/OneDrive/Desktop/GD32VW553/V1_MQTT_OK/GD32VW55X_Wifi_BLE_SDK/GD32VW55x_RELEASE_V1.0.2/MSDK/wpa_supplicant/wpa_supplicant\bssid_ignore.c **** 
  36:C:/Users/stapi/OneDrive/Desktop/GD32VW553/V1_MQTT_OK/GD32VW55X_Wifi_BLE_SDK/GD32VW55x_RELEASE_V1.0.2/MSDK/wpa_supplicant/wpa_supplicant\bssid_ignore.c **** 	wpa_bssid_ignore_update(wpa_s);
  37:C:/Users/stapi/OneDrive/Desktop/GD32VW553/V1_MQTT_OK/GD32VW55X_Wifi_BLE_SDK/GD32VW55x_RELEASE_V1.0.2/MSDK/wpa_supplicant/wpa_supplicant\bssid_ignore.c **** 
  38:C:/Users/stapi/OneDrive/Desktop/GD32VW553/V1_MQTT_OK/GD32VW55X_Wifi_BLE_SDK/GD32VW55x_RELEASE_V1.0.2/MSDK/wpa_supplicant/wpa_supplicant\bssid_ignore.c **** 	e = wpa_s->bssid_ignore;
  39:C:/Users/stapi/OneDrive/Desktop/GD32VW553/V1_MQTT_OK/GD32VW55X_Wifi_BLE_SDK/GD32VW55x_RELEASE_V1.0.2/MSDK/wpa_supplicant/wpa_supplicant\bssid_ignore.c **** 	while (e) {
  40:C:/Users/stapi/OneDrive/Desktop/GD32VW553/V1_MQTT_OK/GD32VW55X_Wifi_BLE_SDK/GD32VW55x_RELEASE_V1.0.2/MSDK/wpa_supplicant/wpa_supplicant\bssid_ignore.c **** 		if (os_memcmp(e->bssid, bssid, ETH_ALEN) == 0)
  41:C:/Users/stapi/OneDrive/Desktop/GD32VW553/V1_MQTT_OK/GD32VW55X_Wifi_BLE_SDK/GD32VW55x_RELEASE_V1.0.2/MSDK/wpa_supplicant/wpa_supplicant\bssid_ignore.c **** 			return e;
  42:C:/Users/stapi/OneDrive/Desktop/GD32VW553/V1_MQTT_OK/GD32VW55X_Wifi_BLE_SDK/GD32VW55x_RELEASE_V1.0.2/MSDK/wpa_supplicant/wpa_supplicant\bssid_ignore.c **** 		e = e->next;
  43:C:/Users/stapi/OneDrive/Desktop/GD32VW553/V1_MQTT_OK/GD32VW55X_Wifi_BLE_SDK/GD32VW55x_RELEASE_V1.0.2/MSDK/wpa_supplicant/wpa_supplicant\bssid_ignore.c **** 	}
  44:C:/Users/stapi/OneDrive/Desktop/GD32VW553/V1_MQTT_OK/GD32VW55X_Wifi_BLE_SDK/GD32VW55x_RELEASE_V1.0.2/MSDK/wpa_supplicant/wpa_supplicant\bssid_ignore.c **** 
  45:C:/Users/stapi/OneDrive/Desktop/GD32VW553/V1_MQTT_OK/GD32VW55X_Wifi_BLE_SDK/GD32VW55x_RELEASE_V1.0.2/MSDK/wpa_supplicant/wpa_supplicant\bssid_ignore.c **** 	return NULL;
  46:C:/Users/stapi/OneDrive/Desktop/GD32VW553/V1_MQTT_OK/GD32VW55X_Wifi_BLE_SDK/GD32VW55x_RELEASE_V1.0.2/MSDK/wpa_supplicant/wpa_supplicant\bssid_ignore.c **** }
  47:C:/Users/stapi/OneDrive/Desktop/GD32VW553/V1_MQTT_OK/GD32VW55X_Wifi_BLE_SDK/GD32VW55x_RELEASE_V1.0.2/MSDK/wpa_supplicant/wpa_supplicant\bssid_ignore.c **** 
  48:C:/Users/stapi/OneDrive/Desktop/GD32VW553/V1_MQTT_OK/GD32VW55X_Wifi_BLE_SDK/GD32VW55x_RELEASE_V1.0.2/MSDK/wpa_supplicant/wpa_supplicant\bssid_ignore.c **** 
  49:C:/Users/stapi/OneDrive/Desktop/GD32VW553/V1_MQTT_OK/GD32VW55X_Wifi_BLE_SDK/GD32VW55x_RELEASE_V1.0.2/MSDK/wpa_supplicant/wpa_supplicant\bssid_ignore.c **** /**
  50:C:/Users/stapi/OneDrive/Desktop/GD32VW553/V1_MQTT_OK/GD32VW55X_Wifi_BLE_SDK/GD32VW55x_RELEASE_V1.0.2/MSDK/wpa_supplicant/wpa_supplicant\bssid_ignore.c ****  * wpa_bssid_ignore_add - Add an BSSID to the ignore list
  51:C:/Users/stapi/OneDrive/Desktop/GD32VW553/V1_MQTT_OK/GD32VW55X_Wifi_BLE_SDK/GD32VW55x_RELEASE_V1.0.2/MSDK/wpa_supplicant/wpa_supplicant\bssid_ignore.c ****  * @wpa_s: Pointer to wpa_supplicant data
  52:C:/Users/stapi/OneDrive/Desktop/GD32VW553/V1_MQTT_OK/GD32VW55X_Wifi_BLE_SDK/GD32VW55x_RELEASE_V1.0.2/MSDK/wpa_supplicant/wpa_supplicant\bssid_ignore.c ****  * @bssid: BSSID to be added to the ignore list
  53:C:/Users/stapi/OneDrive/Desktop/GD32VW553/V1_MQTT_OK/GD32VW55X_Wifi_BLE_SDK/GD32VW55x_RELEASE_V1.0.2/MSDK/wpa_supplicant/wpa_supplicant\bssid_ignore.c ****  * Returns: Current ignore list count on success, -1 on failure
  54:C:/Users/stapi/OneDrive/Desktop/GD32VW553/V1_MQTT_OK/GD32VW55X_Wifi_BLE_SDK/GD32VW55x_RELEASE_V1.0.2/MSDK/wpa_supplicant/wpa_supplicant\bssid_ignore.c ****  *
  55:C:/Users/stapi/OneDrive/Desktop/GD32VW553/V1_MQTT_OK/GD32VW55X_Wifi_BLE_SDK/GD32VW55x_RELEASE_V1.0.2/MSDK/wpa_supplicant/wpa_supplicant\bssid_ignore.c ****  * This function adds the specified BSSID to the ignore list or increases the
  56:C:/Users/stapi/OneDrive/Desktop/GD32VW553/V1_MQTT_OK/GD32VW55X_Wifi_BLE_SDK/GD32VW55x_RELEASE_V1.0.2/MSDK/wpa_supplicant/wpa_supplicant\bssid_ignore.c ****  * ignore count if the BSSID was already listed. It should be called when
  57:C:/Users/stapi/OneDrive/Desktop/GD32VW553/V1_MQTT_OK/GD32VW55X_Wifi_BLE_SDK/GD32VW55x_RELEASE_V1.0.2/MSDK/wpa_supplicant/wpa_supplicant\bssid_ignore.c ****  * an association attempt fails either due to the selected BSS rejecting
  58:C:/Users/stapi/OneDrive/Desktop/GD32VW553/V1_MQTT_OK/GD32VW55X_Wifi_BLE_SDK/GD32VW55x_RELEASE_V1.0.2/MSDK/wpa_supplicant/wpa_supplicant\bssid_ignore.c ****  * association or due to timeout.
  59:C:/Users/stapi/OneDrive/Desktop/GD32VW553/V1_MQTT_OK/GD32VW55X_Wifi_BLE_SDK/GD32VW55x_RELEASE_V1.0.2/MSDK/wpa_supplicant/wpa_supplicant\bssid_ignore.c ****  *
  60:C:/Users/stapi/OneDrive/Desktop/GD32VW553/V1_MQTT_OK/GD32VW55X_Wifi_BLE_SDK/GD32VW55x_RELEASE_V1.0.2/MSDK/wpa_supplicant/wpa_supplicant\bssid_ignore.c ****  * This ignore list is used to force %wpa_supplicant to go through all available
  61:C:/Users/stapi/OneDrive/Desktop/GD32VW553/V1_MQTT_OK/GD32VW55X_Wifi_BLE_SDK/GD32VW55x_RELEASE_V1.0.2/MSDK/wpa_supplicant/wpa_supplicant\bssid_ignore.c ****  * BSSes before retrying to associate with an BSS that rejected or timed out
  62:C:/Users/stapi/OneDrive/Desktop/GD32VW553/V1_MQTT_OK/GD32VW55X_Wifi_BLE_SDK/GD32VW55x_RELEASE_V1.0.2/MSDK/wpa_supplicant/wpa_supplicant\bssid_ignore.c ****  * association. It does not prevent the listed BSS from being used; it only
  63:C:/Users/stapi/OneDrive/Desktop/GD32VW553/V1_MQTT_OK/GD32VW55X_Wifi_BLE_SDK/GD32VW55x_RELEASE_V1.0.2/MSDK/wpa_supplicant/wpa_supplicant\bssid_ignore.c ****  * changes the order in which they are tried.
  64:C:/Users/stapi/OneDrive/Desktop/GD32VW553/V1_MQTT_OK/GD32VW55X_Wifi_BLE_SDK/GD32VW55x_RELEASE_V1.0.2/MSDK/wpa_supplicant/wpa_supplicant\bssid_ignore.c ****  */
  65:C:/Users/stapi/OneDrive/Desktop/GD32VW553/V1_MQTT_OK/GD32VW55X_Wifi_BLE_SDK/GD32VW55x_RELEASE_V1.0.2/MSDK/wpa_supplicant/wpa_supplicant\bssid_ignore.c **** int wpa_bssid_ignore_add(struct wpa_supplicant *wpa_s, const u8 *bssid)
  66:C:/Users/stapi/OneDrive/Desktop/GD32VW553/V1_MQTT_OK/GD32VW55X_Wifi_BLE_SDK/GD32VW55x_RELEASE_V1.0.2/MSDK/wpa_supplicant/wpa_supplicant\bssid_ignore.c **** {
  67:C:/Users/stapi/OneDrive/Desktop/GD32VW553/V1_MQTT_OK/GD32VW55X_Wifi_BLE_SDK/GD32VW55x_RELEASE_V1.0.2/MSDK/wpa_supplicant/wpa_supplicant\bssid_ignore.c **** 	struct wpa_bssid_ignore *e;
  68:C:/Users/stapi/OneDrive/Desktop/GD32VW553/V1_MQTT_OK/GD32VW55X_Wifi_BLE_SDK/GD32VW55x_RELEASE_V1.0.2/MSDK/wpa_supplicant/wpa_supplicant\bssid_ignore.c **** 	struct os_reltime now;
  69:C:/Users/stapi/OneDrive/Desktop/GD32VW553/V1_MQTT_OK/GD32VW55X_Wifi_BLE_SDK/GD32VW55x_RELEASE_V1.0.2/MSDK/wpa_supplicant/wpa_supplicant\bssid_ignore.c **** 
  70:C:/Users/stapi/OneDrive/Desktop/GD32VW553/V1_MQTT_OK/GD32VW55X_Wifi_BLE_SDK/GD32VW55x_RELEASE_V1.0.2/MSDK/wpa_supplicant/wpa_supplicant\bssid_ignore.c **** 	if (wpa_s == NULL || bssid == NULL)
  71:C:/Users/stapi/OneDrive/Desktop/GD32VW553/V1_MQTT_OK/GD32VW55X_Wifi_BLE_SDK/GD32VW55x_RELEASE_V1.0.2/MSDK/wpa_supplicant/wpa_supplicant\bssid_ignore.c **** 		return -1;
  72:C:/Users/stapi/OneDrive/Desktop/GD32VW553/V1_MQTT_OK/GD32VW55X_Wifi_BLE_SDK/GD32VW55x_RELEASE_V1.0.2/MSDK/wpa_supplicant/wpa_supplicant\bssid_ignore.c **** 
  73:C:/Users/stapi/OneDrive/Desktop/GD32VW553/V1_MQTT_OK/GD32VW55X_Wifi_BLE_SDK/GD32VW55x_RELEASE_V1.0.2/MSDK/wpa_supplicant/wpa_supplicant\bssid_ignore.c **** 	e = wpa_bssid_ignore_get(wpa_s, bssid);
  74:C:/Users/stapi/OneDrive/Desktop/GD32VW553/V1_MQTT_OK/GD32VW55X_Wifi_BLE_SDK/GD32VW55x_RELEASE_V1.0.2/MSDK/wpa_supplicant/wpa_supplicant\bssid_ignore.c **** 	os_get_reltime(&now);
  75:C:/Users/stapi/OneDrive/Desktop/GD32VW553/V1_MQTT_OK/GD32VW55X_Wifi_BLE_SDK/GD32VW55x_RELEASE_V1.0.2/MSDK/wpa_supplicant/wpa_supplicant\bssid_ignore.c **** 	if (e) {
  76:C:/Users/stapi/OneDrive/Desktop/GD32VW553/V1_MQTT_OK/GD32VW55X_Wifi_BLE_SDK/GD32VW55x_RELEASE_V1.0.2/MSDK/wpa_supplicant/wpa_supplicant\bssid_ignore.c **** 		e->start = now;
  77:C:/Users/stapi/OneDrive/Desktop/GD32VW553/V1_MQTT_OK/GD32VW55X_Wifi_BLE_SDK/GD32VW55x_RELEASE_V1.0.2/MSDK/wpa_supplicant/wpa_supplicant\bssid_ignore.c **** 		e->count++;
  78:C:/Users/stapi/OneDrive/Desktop/GD32VW553/V1_MQTT_OK/GD32VW55X_Wifi_BLE_SDK/GD32VW55x_RELEASE_V1.0.2/MSDK/wpa_supplicant/wpa_supplicant\bssid_ignore.c **** 		if (e->count > 5)
  79:C:/Users/stapi/OneDrive/Desktop/GD32VW553/V1_MQTT_OK/GD32VW55X_Wifi_BLE_SDK/GD32VW55x_RELEASE_V1.0.2/MSDK/wpa_supplicant/wpa_supplicant\bssid_ignore.c **** 			e->timeout_secs = 1800;
  80:C:/Users/stapi/OneDrive/Desktop/GD32VW553/V1_MQTT_OK/GD32VW55X_Wifi_BLE_SDK/GD32VW55x_RELEASE_V1.0.2/MSDK/wpa_supplicant/wpa_supplicant\bssid_ignore.c **** 		else if (e->count == 5)
  81:C:/Users/stapi/OneDrive/Desktop/GD32VW553/V1_MQTT_OK/GD32VW55X_Wifi_BLE_SDK/GD32VW55x_RELEASE_V1.0.2/MSDK/wpa_supplicant/wpa_supplicant\bssid_ignore.c **** 			e->timeout_secs = 600;
  82:C:/Users/stapi/OneDrive/Desktop/GD32VW553/V1_MQTT_OK/GD32VW55X_Wifi_BLE_SDK/GD32VW55x_RELEASE_V1.0.2/MSDK/wpa_supplicant/wpa_supplicant\bssid_ignore.c **** 		else if (e->count == 4)
  83:C:/Users/stapi/OneDrive/Desktop/GD32VW553/V1_MQTT_OK/GD32VW55X_Wifi_BLE_SDK/GD32VW55x_RELEASE_V1.0.2/MSDK/wpa_supplicant/wpa_supplicant\bssid_ignore.c **** 			e->timeout_secs = 120;
  84:C:/Users/stapi/OneDrive/Desktop/GD32VW553/V1_MQTT_OK/GD32VW55X_Wifi_BLE_SDK/GD32VW55x_RELEASE_V1.0.2/MSDK/wpa_supplicant/wpa_supplicant\bssid_ignore.c **** 		else if (e->count == 3)
  85:C:/Users/stapi/OneDrive/Desktop/GD32VW553/V1_MQTT_OK/GD32VW55X_Wifi_BLE_SDK/GD32VW55x_RELEASE_V1.0.2/MSDK/wpa_supplicant/wpa_supplicant\bssid_ignore.c **** 			e->timeout_secs = 60;
  86:C:/Users/stapi/OneDrive/Desktop/GD32VW553/V1_MQTT_OK/GD32VW55X_Wifi_BLE_SDK/GD32VW55x_RELEASE_V1.0.2/MSDK/wpa_supplicant/wpa_supplicant\bssid_ignore.c **** 		else
  87:C:/Users/stapi/OneDrive/Desktop/GD32VW553/V1_MQTT_OK/GD32VW55X_Wifi_BLE_SDK/GD32VW55x_RELEASE_V1.0.2/MSDK/wpa_supplicant/wpa_supplicant\bssid_ignore.c **** 			e->timeout_secs = 10;
  88:C:/Users/stapi/OneDrive/Desktop/GD32VW553/V1_MQTT_OK/GD32VW55X_Wifi_BLE_SDK/GD32VW55x_RELEASE_V1.0.2/MSDK/wpa_supplicant/wpa_supplicant\bssid_ignore.c **** 		wpa_printf(MSG_INFO, "BSSID " MACSTR
  89:C:/Users/stapi/OneDrive/Desktop/GD32VW553/V1_MQTT_OK/GD32VW55X_Wifi_BLE_SDK/GD32VW55x_RELEASE_V1.0.2/MSDK/wpa_supplicant/wpa_supplicant\bssid_ignore.c **** 			   " ignore list count incremented to %d, ignoring for %d seconds",
  90:C:/Users/stapi/OneDrive/Desktop/GD32VW553/V1_MQTT_OK/GD32VW55X_Wifi_BLE_SDK/GD32VW55x_RELEASE_V1.0.2/MSDK/wpa_supplicant/wpa_supplicant\bssid_ignore.c **** 			   MAC2STR(bssid), e->count, e->timeout_secs);
  91:C:/Users/stapi/OneDrive/Desktop/GD32VW553/V1_MQTT_OK/GD32VW55X_Wifi_BLE_SDK/GD32VW55x_RELEASE_V1.0.2/MSDK/wpa_supplicant/wpa_supplicant\bssid_ignore.c **** 		return e->count;
  92:C:/Users/stapi/OneDrive/Desktop/GD32VW553/V1_MQTT_OK/GD32VW55X_Wifi_BLE_SDK/GD32VW55x_RELEASE_V1.0.2/MSDK/wpa_supplicant/wpa_supplicant\bssid_ignore.c **** 	}
  93:C:/Users/stapi/OneDrive/Desktop/GD32VW553/V1_MQTT_OK/GD32VW55X_Wifi_BLE_SDK/GD32VW55x_RELEASE_V1.0.2/MSDK/wpa_supplicant/wpa_supplicant\bssid_ignore.c **** 
  94:C:/Users/stapi/OneDrive/Desktop/GD32VW553/V1_MQTT_OK/GD32VW55X_Wifi_BLE_SDK/GD32VW55x_RELEASE_V1.0.2/MSDK/wpa_supplicant/wpa_supplicant\bssid_ignore.c **** 	e = os_zalloc(sizeof(*e));
  95:C:/Users/stapi/OneDrive/Desktop/GD32VW553/V1_MQTT_OK/GD32VW55X_Wifi_BLE_SDK/GD32VW55x_RELEASE_V1.0.2/MSDK/wpa_supplicant/wpa_supplicant\bssid_ignore.c **** 	if (e == NULL)
  96:C:/Users/stapi/OneDrive/Desktop/GD32VW553/V1_MQTT_OK/GD32VW55X_Wifi_BLE_SDK/GD32VW55x_RELEASE_V1.0.2/MSDK/wpa_supplicant/wpa_supplicant\bssid_ignore.c **** 		return -1;
  97:C:/Users/stapi/OneDrive/Desktop/GD32VW553/V1_MQTT_OK/GD32VW55X_Wifi_BLE_SDK/GD32VW55x_RELEASE_V1.0.2/MSDK/wpa_supplicant/wpa_supplicant\bssid_ignore.c **** 	os_memcpy(e->bssid, bssid, ETH_ALEN);
  98:C:/Users/stapi/OneDrive/Desktop/GD32VW553/V1_MQTT_OK/GD32VW55X_Wifi_BLE_SDK/GD32VW55x_RELEASE_V1.0.2/MSDK/wpa_supplicant/wpa_supplicant\bssid_ignore.c **** 	e->count = 1;
  99:C:/Users/stapi/OneDrive/Desktop/GD32VW553/V1_MQTT_OK/GD32VW55X_Wifi_BLE_SDK/GD32VW55x_RELEASE_V1.0.2/MSDK/wpa_supplicant/wpa_supplicant\bssid_ignore.c **** 	e->timeout_secs = 10;
 100:C:/Users/stapi/OneDrive/Desktop/GD32VW553/V1_MQTT_OK/GD32VW55X_Wifi_BLE_SDK/GD32VW55x_RELEASE_V1.0.2/MSDK/wpa_supplicant/wpa_supplicant\bssid_ignore.c **** 	e->start = now;
 101:C:/Users/stapi/OneDrive/Desktop/GD32VW553/V1_MQTT_OK/GD32VW55X_Wifi_BLE_SDK/GD32VW55x_RELEASE_V1.0.2/MSDK/wpa_supplicant/wpa_supplicant\bssid_ignore.c **** 	e->next = wpa_s->bssid_ignore;
 102:C:/Users/stapi/OneDrive/Desktop/GD32VW553/V1_MQTT_OK/GD32VW55X_Wifi_BLE_SDK/GD32VW55x_RELEASE_V1.0.2/MSDK/wpa_supplicant/wpa_supplicant\bssid_ignore.c **** 	wpa_s->bssid_ignore = e;
 103:C:/Users/stapi/OneDrive/Desktop/GD32VW553/V1_MQTT_OK/GD32VW55X_Wifi_BLE_SDK/GD32VW55x_RELEASE_V1.0.2/MSDK/wpa_supplicant/wpa_supplicant\bssid_ignore.c **** 	wpa_printf(MSG_DEBUG, "Added BSSID " MACSTR
 104:C:/Users/stapi/OneDrive/Desktop/GD32VW553/V1_MQTT_OK/GD32VW55X_Wifi_BLE_SDK/GD32VW55x_RELEASE_V1.0.2/MSDK/wpa_supplicant/wpa_supplicant\bssid_ignore.c **** 		   " into ignore list, ignoring for %d seconds",
 105:C:/Users/stapi/OneDrive/Desktop/GD32VW553/V1_MQTT_OK/GD32VW55X_Wifi_BLE_SDK/GD32VW55x_RELEASE_V1.0.2/MSDK/wpa_supplicant/wpa_supplicant\bssid_ignore.c **** 		   MAC2STR(bssid), e->timeout_secs);
 106:C:/Users/stapi/OneDrive/Desktop/GD32VW553/V1_MQTT_OK/GD32VW55X_Wifi_BLE_SDK/GD32VW55x_RELEASE_V1.0.2/MSDK/wpa_supplicant/wpa_supplicant\bssid_ignore.c **** 
 107:C:/Users/stapi/OneDrive/Desktop/GD32VW553/V1_MQTT_OK/GD32VW55X_Wifi_BLE_SDK/GD32VW55x_RELEASE_V1.0.2/MSDK/wpa_supplicant/wpa_supplicant\bssid_ignore.c **** 	return e->count;
 108:C:/Users/stapi/OneDrive/Desktop/GD32VW553/V1_MQTT_OK/GD32VW55X_Wifi_BLE_SDK/GD32VW55x_RELEASE_V1.0.2/MSDK/wpa_supplicant/wpa_supplicant\bssid_ignore.c **** }
 109:C:/Users/stapi/OneDrive/Desktop/GD32VW553/V1_MQTT_OK/GD32VW55X_Wifi_BLE_SDK/GD32VW55x_RELEASE_V1.0.2/MSDK/wpa_supplicant/wpa_supplicant\bssid_ignore.c **** 
 110:C:/Users/stapi/OneDrive/Desktop/GD32VW553/V1_MQTT_OK/GD32VW55X_Wifi_BLE_SDK/GD32VW55x_RELEASE_V1.0.2/MSDK/wpa_supplicant/wpa_supplicant\bssid_ignore.c **** 
 111:C:/Users/stapi/OneDrive/Desktop/GD32VW553/V1_MQTT_OK/GD32VW55X_Wifi_BLE_SDK/GD32VW55x_RELEASE_V1.0.2/MSDK/wpa_supplicant/wpa_supplicant\bssid_ignore.c **** /**
 112:C:/Users/stapi/OneDrive/Desktop/GD32VW553/V1_MQTT_OK/GD32VW55X_Wifi_BLE_SDK/GD32VW55x_RELEASE_V1.0.2/MSDK/wpa_supplicant/wpa_supplicant\bssid_ignore.c ****  * wpa_bssid_ignore_del - Remove an BSSID from the ignore list
 113:C:/Users/stapi/OneDrive/Desktop/GD32VW553/V1_MQTT_OK/GD32VW55X_Wifi_BLE_SDK/GD32VW55x_RELEASE_V1.0.2/MSDK/wpa_supplicant/wpa_supplicant\bssid_ignore.c ****  * @wpa_s: Pointer to wpa_supplicant data
 114:C:/Users/stapi/OneDrive/Desktop/GD32VW553/V1_MQTT_OK/GD32VW55X_Wifi_BLE_SDK/GD32VW55x_RELEASE_V1.0.2/MSDK/wpa_supplicant/wpa_supplicant\bssid_ignore.c ****  * @bssid: BSSID to be removed from the ignore list
 115:C:/Users/stapi/OneDrive/Desktop/GD32VW553/V1_MQTT_OK/GD32VW55X_Wifi_BLE_SDK/GD32VW55x_RELEASE_V1.0.2/MSDK/wpa_supplicant/wpa_supplicant\bssid_ignore.c ****  * Returns: 0 on success, -1 on failure
 116:C:/Users/stapi/OneDrive/Desktop/GD32VW553/V1_MQTT_OK/GD32VW55X_Wifi_BLE_SDK/GD32VW55x_RELEASE_V1.0.2/MSDK/wpa_supplicant/wpa_supplicant\bssid_ignore.c ****  */
 117:C:/Users/stapi/OneDrive/Desktop/GD32VW553/V1_MQTT_OK/GD32VW55X_Wifi_BLE_SDK/GD32VW55x_RELEASE_V1.0.2/MSDK/wpa_supplicant/wpa_supplicant\bssid_ignore.c **** int wpa_bssid_ignore_del(struct wpa_supplicant *wpa_s, const u8 *bssid)
 118:C:/Users/stapi/OneDrive/Desktop/GD32VW553/V1_MQTT_OK/GD32VW55X_Wifi_BLE_SDK/GD32VW55x_RELEASE_V1.0.2/MSDK/wpa_supplicant/wpa_supplicant\bssid_ignore.c **** {
  80              		.loc 2 118 1 is_stmt 1
  81              		.cfi_startproc
  82              	.LVL6:
  83 0000 17030000 		call	t0,__riscv_save_5
  83      E7020300 
  84              		.cfi_offset 20, -24
  85              		.cfi_offset 19, -20
  86              		.cfi_offset 18, -16
  87              		.cfi_offset 9, -12
  88              		.cfi_offset 8, -8
  89              		.cfi_offset 1, -4
  90              		.cfi_def_cfa_offset 32
 119:C:/Users/stapi/OneDrive/Desktop/GD32VW553/V1_MQTT_OK/GD32VW55X_Wifi_BLE_SDK/GD32VW55x_RELEASE_V1.0.2/MSDK/wpa_supplicant/wpa_supplicant\bssid_ignore.c **** 	struct wpa_bssid_ignore *e, *prev = NULL;
  91              		.loc 2 119 2
  92              	.LVL7:
 120:C:/Users/stapi/OneDrive/Desktop/GD32VW553/V1_MQTT_OK/GD32VW55X_Wifi_BLE_SDK/GD32VW55x_RELEASE_V1.0.2/MSDK/wpa_supplicant/wpa_supplicant\bssid_ignore.c **** 
 121:C:/Users/stapi/OneDrive/Desktop/GD32VW553/V1_MQTT_OK/GD32VW55X_Wifi_BLE_SDK/GD32VW55x_RELEASE_V1.0.2/MSDK/wpa_supplicant/wpa_supplicant\bssid_ignore.c **** 	if (wpa_s == NULL || bssid == NULL)
  93              		.loc 2 121 2
  94              		.loc 2 121 5 is_stmt 0
  95 0008 19E5     		bne	a0,zero,.L7
  96              	.LVL8:
  97              	.L9:
 122:C:/Users/stapi/OneDrive/Desktop/GD32VW553/V1_MQTT_OK/GD32VW55X_Wifi_BLE_SDK/GD32VW55x_RELEASE_V1.0.2/MSDK/wpa_supplicant/wpa_supplicant\bssid_ignore.c **** 		return -1;
  98              		.loc 2 122 10
  99 000a 7D59     		li	s2,-1
 100              	.L6:
 123:C:/Users/stapi/OneDrive/Desktop/GD32VW553/V1_MQTT_OK/GD32VW55X_Wifi_BLE_SDK/GD32VW55x_RELEASE_V1.0.2/MSDK/wpa_supplicant/wpa_supplicant\bssid_ignore.c **** 
 124:C:/Users/stapi/OneDrive/Desktop/GD32VW553/V1_MQTT_OK/GD32VW55X_Wifi_BLE_SDK/GD32VW55x_RELEASE_V1.0.2/MSDK/wpa_supplicant/wpa_supplicant\bssid_ignore.c **** 	e = wpa_s->bssid_ignore;
 125:C:/Users/stapi/OneDrive/Desktop/GD32VW553/V1_MQTT_OK/GD32VW55X_Wifi_BLE_SDK/GD32VW55x_RELEASE_V1.0.2/MSDK/wpa_supplicant/wpa_supplicant\bssid_ignore.c **** 	while (e) {
 126:C:/Users/stapi/OneDrive/Desktop/GD32VW553/V1_MQTT_OK/GD32VW55X_Wifi_BLE_SDK/GD32VW55x_RELEASE_V1.0.2/MSDK/wpa_supplicant/wpa_supplicant\bssid_ignore.c **** 		if (os_memcmp(e->bssid, bssid, ETH_ALEN) == 0) {
 127:C:/Users/stapi/OneDrive/Desktop/GD32VW553/V1_MQTT_OK/GD32VW55X_Wifi_BLE_SDK/GD32VW55x_RELEASE_V1.0.2/MSDK/wpa_supplicant/wpa_supplicant\bssid_ignore.c **** 			if (prev == NULL) {
 128:C:/Users/stapi/OneDrive/Desktop/GD32VW553/V1_MQTT_OK/GD32VW55X_Wifi_BLE_SDK/GD32VW55x_RELEASE_V1.0.2/MSDK/wpa_supplicant/wpa_supplicant\bssid_ignore.c **** 				wpa_s->bssid_ignore = e->next;
 129:C:/Users/stapi/OneDrive/Desktop/GD32VW553/V1_MQTT_OK/GD32VW55X_Wifi_BLE_SDK/GD32VW55x_RELEASE_V1.0.2/MSDK/wpa_supplicant/wpa_supplicant\bssid_ignore.c **** 			} else {
 130:C:/Users/stapi/OneDrive/Desktop/GD32VW553/V1_MQTT_OK/GD32VW55X_Wifi_BLE_SDK/GD32VW55x_RELEASE_V1.0.2/MSDK/wpa_supplicant/wpa_supplicant\bssid_ignore.c **** 				prev->next = e->next;
 131:C:/Users/stapi/OneDrive/Desktop/GD32VW553/V1_MQTT_OK/GD32VW55X_Wifi_BLE_SDK/GD32VW55x_RELEASE_V1.0.2/MSDK/wpa_supplicant/wpa_supplicant\bssid_ignore.c **** 			}
 132:C:/Users/stapi/OneDrive/Desktop/GD32VW553/V1_MQTT_OK/GD32VW55X_Wifi_BLE_SDK/GD32VW55x_RELEASE_V1.0.2/MSDK/wpa_supplicant/wpa_supplicant\bssid_ignore.c **** 			wpa_printf(MSG_DEBUG, "Removed BSSID " MACSTR
 133:C:/Users/stapi/OneDrive/Desktop/GD32VW553/V1_MQTT_OK/GD32VW55X_Wifi_BLE_SDK/GD32VW55x_RELEASE_V1.0.2/MSDK/wpa_supplicant/wpa_supplicant\bssid_ignore.c **** 				   " from ignore list", MAC2STR(bssid));
 134:C:/Users/stapi/OneDrive/Desktop/GD32VW553/V1_MQTT_OK/GD32VW55X_Wifi_BLE_SDK/GD32VW55x_RELEASE_V1.0.2/MSDK/wpa_supplicant/wpa_supplicant\bssid_ignore.c **** 			os_free(e);
 135:C:/Users/stapi/OneDrive/Desktop/GD32VW553/V1_MQTT_OK/GD32VW55X_Wifi_BLE_SDK/GD32VW55x_RELEASE_V1.0.2/MSDK/wpa_supplicant/wpa_supplicant\bssid_ignore.c **** 			return 0;
 136:C:/Users/stapi/OneDrive/Desktop/GD32VW553/V1_MQTT_OK/GD32VW55X_Wifi_BLE_SDK/GD32VW55x_RELEASE_V1.0.2/MSDK/wpa_supplicant/wpa_supplicant\bssid_ignore.c **** 		}
 137:C:/Users/stapi/OneDrive/Desktop/GD32VW553/V1_MQTT_OK/GD32VW55X_Wifi_BLE_SDK/GD32VW55x_RELEASE_V1.0.2/MSDK/wpa_supplicant/wpa_supplicant\bssid_ignore.c **** 		prev = e;
 138:C:/Users/stapi/OneDrive/Desktop/GD32VW553/V1_MQTT_OK/GD32VW55X_Wifi_BLE_SDK/GD32VW55x_RELEASE_V1.0.2/MSDK/wpa_supplicant/wpa_supplicant\bssid_ignore.c **** 		e = e->next;
 139:C:/Users/stapi/OneDrive/Desktop/GD32VW553/V1_MQTT_OK/GD32VW55X_Wifi_BLE_SDK/GD32VW55x_RELEASE_V1.0.2/MSDK/wpa_supplicant/wpa_supplicant\bssid_ignore.c **** 	}
 140:C:/Users/stapi/OneDrive/Desktop/GD32VW553/V1_MQTT_OK/GD32VW55X_Wifi_BLE_SDK/GD32VW55x_RELEASE_V1.0.2/MSDK/wpa_supplicant/wpa_supplicant\bssid_ignore.c **** 	return -1;
 141:C:/Users/stapi/OneDrive/Desktop/GD32VW553/V1_MQTT_OK/GD32VW55X_Wifi_BLE_SDK/GD32VW55x_RELEASE_V1.0.2/MSDK/wpa_supplicant/wpa_supplicant\bssid_ignore.c **** }
 101              		.loc 2 141 1
 102 000c 4A85     		mv	a0,s2
 103 000e 17030000 		tail	__riscv_restore_5
 103      67000300 
 104              		.cfi_remember_state
 105              		.cfi_restore 20
 106              		.cfi_restore 19
 107              		.cfi_restore 18
 108              		.cfi_restore 9
 109              		.cfi_restore 8
 110              		.cfi_restore 1
 111              		.cfi_def_cfa_offset 0
 112              	.LVL9:
 113              	.L7:
 114              		.cfi_restore_state
 115 0016 2E84     		mv	s0,a1
 121:C:/Users/stapi/OneDrive/Desktop/GD32VW553/V1_MQTT_OK/GD32VW55X_Wifi_BLE_SDK/GD32VW55x_RELEASE_V1.0.2/MSDK/wpa_supplicant/wpa_supplicant\bssid_ignore.c **** 		return -1;
 116              		.loc 2 121 20 discriminator 1
 117 0018 EDD9     		beq	a1,zero,.L9
 118              	.LVL10:
 124:C:/Users/stapi/OneDrive/Desktop/GD32VW553/V1_MQTT_OK/GD32VW55X_Wifi_BLE_SDK/GD32VW55x_RELEASE_V1.0.2/MSDK/wpa_supplicant/wpa_supplicant\bssid_ignore.c **** 	while (e) {
 119              		.loc 2 124 4
 120 001a 83244518 		lw	s1,388(a0)
 121 001e AA89     		mv	s3,a0
 124:C:/Users/stapi/OneDrive/Desktop/GD32VW553/V1_MQTT_OK/GD32VW55X_Wifi_BLE_SDK/GD32VW55x_RELEASE_V1.0.2/MSDK/wpa_supplicant/wpa_supplicant\bssid_ignore.c **** 	while (e) {
 122              		.loc 2 124 2 is_stmt 1
 123              	.LVL11:
 125:C:/Users/stapi/OneDrive/Desktop/GD32VW553/V1_MQTT_OK/GD32VW55X_Wifi_BLE_SDK/GD32VW55x_RELEASE_V1.0.2/MSDK/wpa_supplicant/wpa_supplicant\bssid_ignore.c **** 		if (os_memcmp(e->bssid, bssid, ETH_ALEN) == 0) {
 124              		.loc 2 125 2
 119:C:/Users/stapi/OneDrive/Desktop/GD32VW553/V1_MQTT_OK/GD32VW55X_Wifi_BLE_SDK/GD32VW55x_RELEASE_V1.0.2/MSDK/wpa_supplicant/wpa_supplicant\bssid_ignore.c **** 
 125              		.loc 2 119 31 is_stmt 0
 126 0020 014A     		li	s4,0
 127              	.LVL12:
 128              	.L10:
 125:C:/Users/stapi/OneDrive/Desktop/GD32VW553/V1_MQTT_OK/GD32VW55X_Wifi_BLE_SDK/GD32VW55x_RELEASE_V1.0.2/MSDK/wpa_supplicant/wpa_supplicant\bssid_ignore.c **** 		if (os_memcmp(e->bssid, bssid, ETH_ALEN) == 0) {
 129              		.loc 2 125 8 is_stmt 1
 130 0022 E5D4     		beq	s1,zero,.L9
 126:C:/Users/stapi/OneDrive/Desktop/GD32VW553/V1_MQTT_OK/GD32VW55X_Wifi_BLE_SDK/GD32VW55x_RELEASE_V1.0.2/MSDK/wpa_supplicant/wpa_supplicant\bssid_ignore.c **** 			if (prev == NULL) {
 131              		.loc 2 126 3
 126:C:/Users/stapi/OneDrive/Desktop/GD32VW553/V1_MQTT_OK/GD32VW55X_Wifi_BLE_SDK/GD32VW55x_RELEASE_V1.0.2/MSDK/wpa_supplicant/wpa_supplicant\bssid_ignore.c **** 			if (prev == NULL) {
 132              		.loc 2 126 7 is_stmt 0
 133 0024 1946     		li	a2,6
 134 0026 A285     		mv	a1,s0
 135 0028 13854400 		addi	a0,s1,4
 136 002c 97000000 		call	os_memcmp
 136      E7800000 
 137              	.LVL13:
 138 0034 9C40     		lw	a5,0(s1)
 139 0036 2A89     		mv	s2,a0
 126:C:/Users/stapi/OneDrive/Desktop/GD32VW553/V1_MQTT_OK/GD32VW55X_Wifi_BLE_SDK/GD32VW55x_RELEASE_V1.0.2/MSDK/wpa_supplicant/wpa_supplicant\bssid_ignore.c **** 			if (prev == NULL) {
 140              		.loc 2 126 6
 141 0038 39E1     		bne	a0,zero,.L11
 127:C:/Users/stapi/OneDrive/Desktop/GD32VW553/V1_MQTT_OK/GD32VW55X_Wifi_BLE_SDK/GD32VW55x_RELEASE_V1.0.2/MSDK/wpa_supplicant/wpa_supplicant\bssid_ignore.c **** 				wpa_s->bssid_ignore = e->next;
 142              		.loc 2 127 4 is_stmt 1
 127:C:/Users/stapi/OneDrive/Desktop/GD32VW553/V1_MQTT_OK/GD32VW55X_Wifi_BLE_SDK/GD32VW55x_RELEASE_V1.0.2/MSDK/wpa_supplicant/wpa_supplicant\bssid_ignore.c **** 				wpa_s->bssid_ignore = e->next;
 143              		.loc 2 127 7 is_stmt 0
 144 003a 631F0A02 		bne	s4,zero,.L12
 128:C:/Users/stapi/OneDrive/Desktop/GD32VW553/V1_MQTT_OK/GD32VW55X_Wifi_BLE_SDK/GD32VW55x_RELEASE_V1.0.2/MSDK/wpa_supplicant/wpa_supplicant\bssid_ignore.c **** 			} else {
 145              		.loc 2 128 5 is_stmt 1
 128:C:/Users/stapi/OneDrive/Desktop/GD32VW553/V1_MQTT_OK/GD32VW55X_Wifi_BLE_SDK/GD32VW55x_RELEASE_V1.0.2/MSDK/wpa_supplicant/wpa_supplicant\bssid_ignore.c **** 			} else {
 146              		.loc 2 128 25 is_stmt 0
 147 003e 23A2F918 		sw	a5,388(s3)
 148              	.L13:
 132:C:/Users/stapi/OneDrive/Desktop/GD32VW553/V1_MQTT_OK/GD32VW55X_Wifi_BLE_SDK/GD32VW55x_RELEASE_V1.0.2/MSDK/wpa_supplicant/wpa_supplicant\bssid_ignore.c **** 				   " from ignore list", MAC2STR(bssid));
 149              		.loc 2 132 4 is_stmt 1
 150 0042 83485400 		lbu	a7,5(s0)
 151 0046 03484400 		lbu	a6,4(s0)
 152 004a 83473400 		lbu	a5,3(s0)
 153 004e 03472400 		lbu	a4,2(s0)
 154 0052 83461400 		lbu	a3,1(s0)
 155 0056 03460400 		lbu	a2,0(s0)
 156 005a B7050000 		lui	a1,%hi(.LC0)
 157 005e 93850500 		addi	a1,a1,%lo(.LC0)
 158 0062 0945     		li	a0,2
 159 0064 97000000 		call	wpa_printf
 159      E7800000 
 160              	.LVL14:
 134:C:/Users/stapi/OneDrive/Desktop/GD32VW553/V1_MQTT_OK/GD32VW55X_Wifi_BLE_SDK/GD32VW55x_RELEASE_V1.0.2/MSDK/wpa_supplicant/wpa_supplicant\bssid_ignore.c **** 			return 0;
 161              		.loc 2 134 4
 162 006c 2685     		mv	a0,s1
 163 006e 97000000 		call	os_free
 163      E7800000 
 164              	.LVL15:
 135:C:/Users/stapi/OneDrive/Desktop/GD32VW553/V1_MQTT_OK/GD32VW55X_Wifi_BLE_SDK/GD32VW55x_RELEASE_V1.0.2/MSDK/wpa_supplicant/wpa_supplicant\bssid_ignore.c **** 		}
 165              		.loc 2 135 4
 135:C:/Users/stapi/OneDrive/Desktop/GD32VW553/V1_MQTT_OK/GD32VW55X_Wifi_BLE_SDK/GD32VW55x_RELEASE_V1.0.2/MSDK/wpa_supplicant/wpa_supplicant\bssid_ignore.c **** 		}
 166              		.loc 2 135 11 is_stmt 0
 167 0076 59BF     		j	.L6
 168              	.L12:
 130:C:/Users/stapi/OneDrive/Desktop/GD32VW553/V1_MQTT_OK/GD32VW55X_Wifi_BLE_SDK/GD32VW55x_RELEASE_V1.0.2/MSDK/wpa_supplicant/wpa_supplicant\bssid_ignore.c **** 			}
 169              		.loc 2 130 5 is_stmt 1
 130:C:/Users/stapi/OneDrive/Desktop/GD32VW553/V1_MQTT_OK/GD32VW55X_Wifi_BLE_SDK/GD32VW55x_RELEASE_V1.0.2/MSDK/wpa_supplicant/wpa_supplicant\bssid_ignore.c **** 			}
 170              		.loc 2 130 16 is_stmt 0
 171 0078 2320FA00 		sw	a5,0(s4)
 172 007c D9B7     		j	.L13
 173              	.L11:
 137:C:/Users/stapi/OneDrive/Desktop/GD32VW553/V1_MQTT_OK/GD32VW55X_Wifi_BLE_SDK/GD32VW55x_RELEASE_V1.0.2/MSDK/wpa_supplicant/wpa_supplicant\bssid_ignore.c **** 		e = e->next;
 174              		.loc 2 137 3 is_stmt 1
 175              	.LVL16:
 138:C:/Users/stapi/OneDrive/Desktop/GD32VW553/V1_MQTT_OK/GD32VW55X_Wifi_BLE_SDK/GD32VW55x_RELEASE_V1.0.2/MSDK/wpa_supplicant/wpa_supplicant\bssid_ignore.c **** 	}
 176              		.loc 2 138 3
 138:C:/Users/stapi/OneDrive/Desktop/GD32VW553/V1_MQTT_OK/GD32VW55X_Wifi_BLE_SDK/GD32VW55x_RELEASE_V1.0.2/MSDK/wpa_supplicant/wpa_supplicant\bssid_ignore.c **** 	}
 177              		.loc 2 138 5 is_stmt 0
 178 007e 268A     		mv	s4,s1
 179 0080 BE84     		mv	s1,a5
 180              	.LVL17:
 181 0082 45B7     		j	.L10
 182              		.cfi_endproc
 183              	.LFE138:
 185              		.section	.rodata.wpa_bssid_ignore_clear.str1.4,"aMS",@progbits,1
 186              		.align	2
 187              	.LC1:
 188 0000 52656D6F 		.string	"Removed BSSID %02x:%02x:%02x:%02x:%02x:%02x from ignore list (clear)"
 188      76656420 
 188      42535349 
 188      44202530 
 188      32783A25 
 189              		.section	.text.wpa_bssid_ignore_clear,"ax",@progbits
 190              		.align	1
 191              		.globl	wpa_bssid_ignore_clear
 193              	wpa_bssid_ignore_clear:
 194              	.LFB140:
 142:C:/Users/stapi/OneDrive/Desktop/GD32VW553/V1_MQTT_OK/GD32VW55X_Wifi_BLE_SDK/GD32VW55x_RELEASE_V1.0.2/MSDK/wpa_supplicant/wpa_supplicant\bssid_ignore.c **** 
 143:C:/Users/stapi/OneDrive/Desktop/GD32VW553/V1_MQTT_OK/GD32VW55X_Wifi_BLE_SDK/GD32VW55x_RELEASE_V1.0.2/MSDK/wpa_supplicant/wpa_supplicant\bssid_ignore.c **** 
 144:C:/Users/stapi/OneDrive/Desktop/GD32VW553/V1_MQTT_OK/GD32VW55X_Wifi_BLE_SDK/GD32VW55x_RELEASE_V1.0.2/MSDK/wpa_supplicant/wpa_supplicant\bssid_ignore.c **** /**
 145:C:/Users/stapi/OneDrive/Desktop/GD32VW553/V1_MQTT_OK/GD32VW55X_Wifi_BLE_SDK/GD32VW55x_RELEASE_V1.0.2/MSDK/wpa_supplicant/wpa_supplicant\bssid_ignore.c ****  * wpa_bssid_ignore_is_listed - Check whether a BSSID is ignored temporarily
 146:C:/Users/stapi/OneDrive/Desktop/GD32VW553/V1_MQTT_OK/GD32VW55X_Wifi_BLE_SDK/GD32VW55x_RELEASE_V1.0.2/MSDK/wpa_supplicant/wpa_supplicant\bssid_ignore.c ****  * @wpa_s: Pointer to wpa_supplicant data
 147:C:/Users/stapi/OneDrive/Desktop/GD32VW553/V1_MQTT_OK/GD32VW55X_Wifi_BLE_SDK/GD32VW55x_RELEASE_V1.0.2/MSDK/wpa_supplicant/wpa_supplicant\bssid_ignore.c ****  * @bssid: BSSID to be checked
 148:C:/Users/stapi/OneDrive/Desktop/GD32VW553/V1_MQTT_OK/GD32VW55X_Wifi_BLE_SDK/GD32VW55x_RELEASE_V1.0.2/MSDK/wpa_supplicant/wpa_supplicant\bssid_ignore.c ****  * Returns: count if BSS is currently considered to be ignored, 0 otherwise
 149:C:/Users/stapi/OneDrive/Desktop/GD32VW553/V1_MQTT_OK/GD32VW55X_Wifi_BLE_SDK/GD32VW55x_RELEASE_V1.0.2/MSDK/wpa_supplicant/wpa_supplicant\bssid_ignore.c ****  */
 150:C:/Users/stapi/OneDrive/Desktop/GD32VW553/V1_MQTT_OK/GD32VW55X_Wifi_BLE_SDK/GD32VW55x_RELEASE_V1.0.2/MSDK/wpa_supplicant/wpa_supplicant\bssid_ignore.c **** int wpa_bssid_ignore_is_listed(struct wpa_supplicant *wpa_s, const u8 *bssid)
 151:C:/Users/stapi/OneDrive/Desktop/GD32VW553/V1_MQTT_OK/GD32VW55X_Wifi_BLE_SDK/GD32VW55x_RELEASE_V1.0.2/MSDK/wpa_supplicant/wpa_supplicant\bssid_ignore.c **** {
 152:C:/Users/stapi/OneDrive/Desktop/GD32VW553/V1_MQTT_OK/GD32VW55X_Wifi_BLE_SDK/GD32VW55x_RELEASE_V1.0.2/MSDK/wpa_supplicant/wpa_supplicant\bssid_ignore.c **** 	struct wpa_bssid_ignore *e;
 153:C:/Users/stapi/OneDrive/Desktop/GD32VW553/V1_MQTT_OK/GD32VW55X_Wifi_BLE_SDK/GD32VW55x_RELEASE_V1.0.2/MSDK/wpa_supplicant/wpa_supplicant\bssid_ignore.c **** 	struct os_reltime now;
 154:C:/Users/stapi/OneDrive/Desktop/GD32VW553/V1_MQTT_OK/GD32VW55X_Wifi_BLE_SDK/GD32VW55x_RELEASE_V1.0.2/MSDK/wpa_supplicant/wpa_supplicant\bssid_ignore.c **** 
 155:C:/Users/stapi/OneDrive/Desktop/GD32VW553/V1_MQTT_OK/GD32VW55X_Wifi_BLE_SDK/GD32VW55x_RELEASE_V1.0.2/MSDK/wpa_supplicant/wpa_supplicant\bssid_ignore.c **** 	e = wpa_bssid_ignore_get(wpa_s, bssid);
 156:C:/Users/stapi/OneDrive/Desktop/GD32VW553/V1_MQTT_OK/GD32VW55X_Wifi_BLE_SDK/GD32VW55x_RELEASE_V1.0.2/MSDK/wpa_supplicant/wpa_supplicant\bssid_ignore.c **** 	if (!e)
 157:C:/Users/stapi/OneDrive/Desktop/GD32VW553/V1_MQTT_OK/GD32VW55X_Wifi_BLE_SDK/GD32VW55x_RELEASE_V1.0.2/MSDK/wpa_supplicant/wpa_supplicant\bssid_ignore.c **** 		return 0;
 158:C:/Users/stapi/OneDrive/Desktop/GD32VW553/V1_MQTT_OK/GD32VW55X_Wifi_BLE_SDK/GD32VW55x_RELEASE_V1.0.2/MSDK/wpa_supplicant/wpa_supplicant\bssid_ignore.c **** 	os_get_reltime(&now);
 159:C:/Users/stapi/OneDrive/Desktop/GD32VW553/V1_MQTT_OK/GD32VW55X_Wifi_BLE_SDK/GD32VW55x_RELEASE_V1.0.2/MSDK/wpa_supplicant/wpa_supplicant\bssid_ignore.c **** 	if (os_reltime_expired(&now, &e->start, e->timeout_secs))
 160:C:/Users/stapi/OneDrive/Desktop/GD32VW553/V1_MQTT_OK/GD32VW55X_Wifi_BLE_SDK/GD32VW55x_RELEASE_V1.0.2/MSDK/wpa_supplicant/wpa_supplicant\bssid_ignore.c **** 		return 0;
 161:C:/Users/stapi/OneDrive/Desktop/GD32VW553/V1_MQTT_OK/GD32VW55X_Wifi_BLE_SDK/GD32VW55x_RELEASE_V1.0.2/MSDK/wpa_supplicant/wpa_supplicant\bssid_ignore.c **** 	return e->count;
 162:C:/Users/stapi/OneDrive/Desktop/GD32VW553/V1_MQTT_OK/GD32VW55X_Wifi_BLE_SDK/GD32VW55x_RELEASE_V1.0.2/MSDK/wpa_supplicant/wpa_supplicant\bssid_ignore.c **** }
 163:C:/Users/stapi/OneDrive/Desktop/GD32VW553/V1_MQTT_OK/GD32VW55X_Wifi_BLE_SDK/GD32VW55x_RELEASE_V1.0.2/MSDK/wpa_supplicant/wpa_supplicant\bssid_ignore.c **** 
 164:C:/Users/stapi/OneDrive/Desktop/GD32VW553/V1_MQTT_OK/GD32VW55X_Wifi_BLE_SDK/GD32VW55x_RELEASE_V1.0.2/MSDK/wpa_supplicant/wpa_supplicant\bssid_ignore.c **** 
 165:C:/Users/stapi/OneDrive/Desktop/GD32VW553/V1_MQTT_OK/GD32VW55X_Wifi_BLE_SDK/GD32VW55x_RELEASE_V1.0.2/MSDK/wpa_supplicant/wpa_supplicant\bssid_ignore.c **** /**
 166:C:/Users/stapi/OneDrive/Desktop/GD32VW553/V1_MQTT_OK/GD32VW55X_Wifi_BLE_SDK/GD32VW55x_RELEASE_V1.0.2/MSDK/wpa_supplicant/wpa_supplicant\bssid_ignore.c ****  * wpa_bssid_ignore_clear - Clear the ignore list of all entries
 167:C:/Users/stapi/OneDrive/Desktop/GD32VW553/V1_MQTT_OK/GD32VW55X_Wifi_BLE_SDK/GD32VW55x_RELEASE_V1.0.2/MSDK/wpa_supplicant/wpa_supplicant\bssid_ignore.c ****  * @wpa_s: Pointer to wpa_supplicant data
 168:C:/Users/stapi/OneDrive/Desktop/GD32VW553/V1_MQTT_OK/GD32VW55X_Wifi_BLE_SDK/GD32VW55x_RELEASE_V1.0.2/MSDK/wpa_supplicant/wpa_supplicant\bssid_ignore.c ****  */
 169:C:/Users/stapi/OneDrive/Desktop/GD32VW553/V1_MQTT_OK/GD32VW55X_Wifi_BLE_SDK/GD32VW55x_RELEASE_V1.0.2/MSDK/wpa_supplicant/wpa_supplicant\bssid_ignore.c **** void wpa_bssid_ignore_clear(struct wpa_supplicant *wpa_s)
 170:C:/Users/stapi/OneDrive/Desktop/GD32VW553/V1_MQTT_OK/GD32VW55X_Wifi_BLE_SDK/GD32VW55x_RELEASE_V1.0.2/MSDK/wpa_supplicant/wpa_supplicant\bssid_ignore.c **** {
 195              		.loc 2 170 1 is_stmt 1
 196              		.cfi_startproc
 197              	.LVL18:
 198 0000 17030000 		call	t0,__riscv_save_3
 198      E7020300 
 199              		.cfi_offset 18, -16
 200              		.cfi_offset 9, -12
 201              		.cfi_offset 8, -8
 202              		.cfi_offset 1, -4
 203              		.cfi_def_cfa_offset 16
 171:C:/Users/stapi/OneDrive/Desktop/GD32VW553/V1_MQTT_OK/GD32VW55X_Wifi_BLE_SDK/GD32VW55x_RELEASE_V1.0.2/MSDK/wpa_supplicant/wpa_supplicant\bssid_ignore.c **** 	struct wpa_bssid_ignore *e, *prev;
 204              		.loc 2 171 2
 172:C:/Users/stapi/OneDrive/Desktop/GD32VW553/V1_MQTT_OK/GD32VW55X_Wifi_BLE_SDK/GD32VW55x_RELEASE_V1.0.2/MSDK/wpa_supplicant/wpa_supplicant\bssid_ignore.c **** 
 173:C:/Users/stapi/OneDrive/Desktop/GD32VW553/V1_MQTT_OK/GD32VW55X_Wifi_BLE_SDK/GD32VW55x_RELEASE_V1.0.2/MSDK/wpa_supplicant/wpa_supplicant\bssid_ignore.c **** 	e = wpa_s->bssid_ignore;
 205              		.loc 2 173 2
 206              		.loc 2 173 4 is_stmt 0
 207 0008 03244518 		lw	s0,388(a0)
 208              	.LVL19:
 174:C:/Users/stapi/OneDrive/Desktop/GD32VW553/V1_MQTT_OK/GD32VW55X_Wifi_BLE_SDK/GD32VW55x_RELEASE_V1.0.2/MSDK/wpa_supplicant/wpa_supplicant\bssid_ignore.c **** 	wpa_s->bssid_ignore = NULL;
 209              		.loc 2 174 2 is_stmt 1
 175:C:/Users/stapi/OneDrive/Desktop/GD32VW553/V1_MQTT_OK/GD32VW55X_Wifi_BLE_SDK/GD32VW55x_RELEASE_V1.0.2/MSDK/wpa_supplicant/wpa_supplicant\bssid_ignore.c **** 	while (e) {
 176:C:/Users/stapi/OneDrive/Desktop/GD32VW553/V1_MQTT_OK/GD32VW55X_Wifi_BLE_SDK/GD32VW55x_RELEASE_V1.0.2/MSDK/wpa_supplicant/wpa_supplicant\bssid_ignore.c **** 		prev = e;
 177:C:/Users/stapi/OneDrive/Desktop/GD32VW553/V1_MQTT_OK/GD32VW55X_Wifi_BLE_SDK/GD32VW55x_RELEASE_V1.0.2/MSDK/wpa_supplicant/wpa_supplicant\bssid_ignore.c **** 		e = e->next;
 178:C:/Users/stapi/OneDrive/Desktop/GD32VW553/V1_MQTT_OK/GD32VW55X_Wifi_BLE_SDK/GD32VW55x_RELEASE_V1.0.2/MSDK/wpa_supplicant/wpa_supplicant\bssid_ignore.c **** 		wpa_printf(MSG_DEBUG, "Removed BSSID " MACSTR
 210              		.loc 2 178 3 is_stmt 0
 211 000c B7040000 		lui	s1,%hi(.LC1)
 174:C:/Users/stapi/OneDrive/Desktop/GD32VW553/V1_MQTT_OK/GD32VW55X_Wifi_BLE_SDK/GD32VW55x_RELEASE_V1.0.2/MSDK/wpa_supplicant/wpa_supplicant\bssid_ignore.c **** 	wpa_s->bssid_ignore = NULL;
 212              		.loc 2 174 22
 213 0010 23220518 		sw	zero,388(a0)
 175:C:/Users/stapi/OneDrive/Desktop/GD32VW553/V1_MQTT_OK/GD32VW55X_Wifi_BLE_SDK/GD32VW55x_RELEASE_V1.0.2/MSDK/wpa_supplicant/wpa_supplicant\bssid_ignore.c **** 	while (e) {
 214              		.loc 2 175 2 is_stmt 1
 215              	.LVL20:
 216              	.L20:
 175:C:/Users/stapi/OneDrive/Desktop/GD32VW553/V1_MQTT_OK/GD32VW55X_Wifi_BLE_SDK/GD32VW55x_RELEASE_V1.0.2/MSDK/wpa_supplicant/wpa_supplicant\bssid_ignore.c **** 	while (e) {
 217              		.loc 2 175 8
 218 0014 09E4     		bne	s0,zero,.L21
 179:C:/Users/stapi/OneDrive/Desktop/GD32VW553/V1_MQTT_OK/GD32VW55X_Wifi_BLE_SDK/GD32VW55x_RELEASE_V1.0.2/MSDK/wpa_supplicant/wpa_supplicant\bssid_ignore.c **** 			   " from ignore list (clear)", MAC2STR(prev->bssid));
 180:C:/Users/stapi/OneDrive/Desktop/GD32VW553/V1_MQTT_OK/GD32VW55X_Wifi_BLE_SDK/GD32VW55x_RELEASE_V1.0.2/MSDK/wpa_supplicant/wpa_supplicant\bssid_ignore.c **** 		os_free(prev);
 181:C:/Users/stapi/OneDrive/Desktop/GD32VW553/V1_MQTT_OK/GD32VW55X_Wifi_BLE_SDK/GD32VW55x_RELEASE_V1.0.2/MSDK/wpa_supplicant/wpa_supplicant\bssid_ignore.c **** 	}
 182:C:/Users/stapi/OneDrive/Desktop/GD32VW553/V1_MQTT_OK/GD32VW55X_Wifi_BLE_SDK/GD32VW55x_RELEASE_V1.0.2/MSDK/wpa_supplicant/wpa_supplicant\bssid_ignore.c **** }
 219              		.loc 2 182 1 is_stmt 0
 220 0016 17030000 		tail	__riscv_restore_3
 220      67000300 
 221              		.cfi_remember_state
 222              		.cfi_restore 18
 223              		.cfi_restore 9
 224              		.cfi_restore 8
 225              		.cfi_restore 1
 226              		.cfi_def_cfa_offset 0
 227              	.L21:
 228              		.cfi_restore_state
 176:C:/Users/stapi/OneDrive/Desktop/GD32VW553/V1_MQTT_OK/GD32VW55X_Wifi_BLE_SDK/GD32VW55x_RELEASE_V1.0.2/MSDK/wpa_supplicant/wpa_supplicant\bssid_ignore.c **** 		e = e->next;
 229              		.loc 2 176 3 is_stmt 1
 230              	.LVL21:
 177:C:/Users/stapi/OneDrive/Desktop/GD32VW553/V1_MQTT_OK/GD32VW55X_Wifi_BLE_SDK/GD32VW55x_RELEASE_V1.0.2/MSDK/wpa_supplicant/wpa_supplicant\bssid_ignore.c **** 		wpa_printf(MSG_DEBUG, "Removed BSSID " MACSTR
 231              		.loc 2 177 3
 178:C:/Users/stapi/OneDrive/Desktop/GD32VW553/V1_MQTT_OK/GD32VW55X_Wifi_BLE_SDK/GD32VW55x_RELEASE_V1.0.2/MSDK/wpa_supplicant/wpa_supplicant\bssid_ignore.c **** 			   " from ignore list (clear)", MAC2STR(prev->bssid));
 232              		.loc 2 178 3 is_stmt 0
 233 001e 83489400 		lbu	a7,9(s0)
 234 0022 03488400 		lbu	a6,8(s0)
 235 0026 83477400 		lbu	a5,7(s0)
 236 002a 03476400 		lbu	a4,6(s0)
 237 002e 83465400 		lbu	a3,5(s0)
 238 0032 03464400 		lbu	a2,4(s0)
 177:C:/Users/stapi/OneDrive/Desktop/GD32VW553/V1_MQTT_OK/GD32VW55X_Wifi_BLE_SDK/GD32VW55x_RELEASE_V1.0.2/MSDK/wpa_supplicant/wpa_supplicant\bssid_ignore.c **** 		wpa_printf(MSG_DEBUG, "Removed BSSID " MACSTR
 239              		.loc 2 177 5
 240 0036 03290400 		lw	s2,0(s0)
 241              	.LVL22:
 178:C:/Users/stapi/OneDrive/Desktop/GD32VW553/V1_MQTT_OK/GD32VW55X_Wifi_BLE_SDK/GD32VW55x_RELEASE_V1.0.2/MSDK/wpa_supplicant/wpa_supplicant\bssid_ignore.c **** 			   " from ignore list (clear)", MAC2STR(prev->bssid));
 242              		.loc 2 178 3 is_stmt 1
 243 003a 93850400 		addi	a1,s1,%lo(.LC1)
 244 003e 0945     		li	a0,2
 245 0040 97000000 		call	wpa_printf
 245      E7800000 
 246              	.LVL23:
 180:C:/Users/stapi/OneDrive/Desktop/GD32VW553/V1_MQTT_OK/GD32VW55X_Wifi_BLE_SDK/GD32VW55x_RELEASE_V1.0.2/MSDK/wpa_supplicant/wpa_supplicant\bssid_ignore.c **** 	}
 247              		.loc 2 180 3
 248 0048 2285     		mv	a0,s0
 249 004a 97000000 		call	os_free
 249      E7800000 
 250              	.LVL24:
 177:C:/Users/stapi/OneDrive/Desktop/GD32VW553/V1_MQTT_OK/GD32VW55X_Wifi_BLE_SDK/GD32VW55x_RELEASE_V1.0.2/MSDK/wpa_supplicant/wpa_supplicant\bssid_ignore.c **** 		wpa_printf(MSG_DEBUG, "Removed BSSID " MACSTR
 251              		.loc 2 177 5 is_stmt 0
 252 0052 4A84     		mv	s0,s2
 253              	.LVL25:
 254 0054 C1B7     		j	.L20
 255              		.cfi_endproc
 256              	.LFE140:
 258              		.section	.rodata.wpa_bssid_ignore_update.str1.4,"aMS",@progbits,1
 259              		.align	2
 260              	.LC2:
 261 0000 52656D6F 		.string	"Removed BSSID %02x:%02x:%02x:%02x:%02x:%02x from ignore list (expired)"
 261      76656420 
 261      42535349 
 261      44202530 
 261      32783A25 
 262              		.section	.text.wpa_bssid_ignore_update,"ax",@progbits
 263              		.align	1
 264              		.globl	wpa_bssid_ignore_update
 266              	wpa_bssid_ignore_update:
 267              	.LFB141:
 183:C:/Users/stapi/OneDrive/Desktop/GD32VW553/V1_MQTT_OK/GD32VW55X_Wifi_BLE_SDK/GD32VW55x_RELEASE_V1.0.2/MSDK/wpa_supplicant/wpa_supplicant\bssid_ignore.c **** 
 184:C:/Users/stapi/OneDrive/Desktop/GD32VW553/V1_MQTT_OK/GD32VW55X_Wifi_BLE_SDK/GD32VW55x_RELEASE_V1.0.2/MSDK/wpa_supplicant/wpa_supplicant\bssid_ignore.c **** 
 185:C:/Users/stapi/OneDrive/Desktop/GD32VW553/V1_MQTT_OK/GD32VW55X_Wifi_BLE_SDK/GD32VW55x_RELEASE_V1.0.2/MSDK/wpa_supplicant/wpa_supplicant\bssid_ignore.c **** /**
 186:C:/Users/stapi/OneDrive/Desktop/GD32VW553/V1_MQTT_OK/GD32VW55X_Wifi_BLE_SDK/GD32VW55x_RELEASE_V1.0.2/MSDK/wpa_supplicant/wpa_supplicant\bssid_ignore.c ****  * wpa_bssid_ignore_update - Update the entries in the ignore list,
 187:C:/Users/stapi/OneDrive/Desktop/GD32VW553/V1_MQTT_OK/GD32VW55X_Wifi_BLE_SDK/GD32VW55x_RELEASE_V1.0.2/MSDK/wpa_supplicant/wpa_supplicant\bssid_ignore.c ****  * deleting entries that have been expired for over an hour.
 188:C:/Users/stapi/OneDrive/Desktop/GD32VW553/V1_MQTT_OK/GD32VW55X_Wifi_BLE_SDK/GD32VW55x_RELEASE_V1.0.2/MSDK/wpa_supplicant/wpa_supplicant\bssid_ignore.c ****  * @wpa_s: Pointer to wpa_supplicant data
 189:C:/Users/stapi/OneDrive/Desktop/GD32VW553/V1_MQTT_OK/GD32VW55X_Wifi_BLE_SDK/GD32VW55x_RELEASE_V1.0.2/MSDK/wpa_supplicant/wpa_supplicant\bssid_ignore.c ****  */
 190:C:/Users/stapi/OneDrive/Desktop/GD32VW553/V1_MQTT_OK/GD32VW55X_Wifi_BLE_SDK/GD32VW55x_RELEASE_V1.0.2/MSDK/wpa_supplicant/wpa_supplicant\bssid_ignore.c **** void wpa_bssid_ignore_update(struct wpa_supplicant *wpa_s)
 191:C:/Users/stapi/OneDrive/Desktop/GD32VW553/V1_MQTT_OK/GD32VW55X_Wifi_BLE_SDK/GD32VW55x_RELEASE_V1.0.2/MSDK/wpa_supplicant/wpa_supplicant\bssid_ignore.c **** {
 268              		.loc 2 191 1 is_stmt 1
 269              		.cfi_startproc
 270              	.LVL26:
 192:C:/Users/stapi/OneDrive/Desktop/GD32VW553/V1_MQTT_OK/GD32VW55X_Wifi_BLE_SDK/GD32VW55x_RELEASE_V1.0.2/MSDK/wpa_supplicant/wpa_supplicant\bssid_ignore.c **** 	struct wpa_bssid_ignore *e, *prev = NULL;
 271              		.loc 2 192 2
 193:C:/Users/stapi/OneDrive/Desktop/GD32VW553/V1_MQTT_OK/GD32VW55X_Wifi_BLE_SDK/GD32VW55x_RELEASE_V1.0.2/MSDK/wpa_supplicant/wpa_supplicant\bssid_ignore.c **** 	struct os_reltime now;
 272              		.loc 2 193 2
 194:C:/Users/stapi/OneDrive/Desktop/GD32VW553/V1_MQTT_OK/GD32VW55X_Wifi_BLE_SDK/GD32VW55x_RELEASE_V1.0.2/MSDK/wpa_supplicant/wpa_supplicant\bssid_ignore.c **** 
 195:C:/Users/stapi/OneDrive/Desktop/GD32VW553/V1_MQTT_OK/GD32VW55X_Wifi_BLE_SDK/GD32VW55x_RELEASE_V1.0.2/MSDK/wpa_supplicant/wpa_supplicant\bssid_ignore.c **** 	if (!wpa_s)
 273              		.loc 2 195 2
 274              		.loc 2 195 5 is_stmt 0
 275 0000 49C9     		beq	a0,zero,.L37
 191:C:/Users/stapi/OneDrive/Desktop/GD32VW553/V1_MQTT_OK/GD32VW55X_Wifi_BLE_SDK/GD32VW55x_RELEASE_V1.0.2/MSDK/wpa_supplicant/wpa_supplicant\bssid_ignore.c **** 	struct wpa_bssid_ignore *e, *prev = NULL;
 276              		.loc 2 191 1
 277 0002 17030000 		call	t0,__riscv_save_6
 277      E7020300 
 278              		.cfi_offset 21, -28
 279              		.cfi_offset 20, -24
 280              		.cfi_offset 19, -20
 281              		.cfi_offset 18, -16
 282              		.cfi_offset 9, -12
 283              		.cfi_offset 8, -8
 284              		.cfi_offset 1, -4
 285              		.cfi_def_cfa_offset 32
 286 000a 4111     		addi	sp,sp,-16
 287              		.cfi_def_cfa_offset 48
 288              	.LBB10:
 289              	.LBB11:
 196:C:/Users/stapi/OneDrive/Desktop/GD32VW553/V1_MQTT_OK/GD32VW55X_Wifi_BLE_SDK/GD32VW55x_RELEASE_V1.0.2/MSDK/wpa_supplicant/wpa_supplicant\bssid_ignore.c **** 		return;
 197:C:/Users/stapi/OneDrive/Desktop/GD32VW553/V1_MQTT_OK/GD32VW55X_Wifi_BLE_SDK/GD32VW55x_RELEASE_V1.0.2/MSDK/wpa_supplicant/wpa_supplicant\bssid_ignore.c **** 
 198:C:/Users/stapi/OneDrive/Desktop/GD32VW553/V1_MQTT_OK/GD32VW55X_Wifi_BLE_SDK/GD32VW55x_RELEASE_V1.0.2/MSDK/wpa_supplicant/wpa_supplicant\bssid_ignore.c **** 	e = wpa_s->bssid_ignore;
 290              		.loc 2 198 4
 291 000c 03244518 		lw	s0,388(a0)
 292 0010 AA84     		mv	s1,a0
 293              	.LVL27:
 294              		.loc 2 198 2 is_stmt 1
 199:C:/Users/stapi/OneDrive/Desktop/GD32VW553/V1_MQTT_OK/GD32VW55X_Wifi_BLE_SDK/GD32VW55x_RELEASE_V1.0.2/MSDK/wpa_supplicant/wpa_supplicant\bssid_ignore.c **** 	os_get_reltime(&now);
 295              		.loc 2 199 2
 200:C:/Users/stapi/OneDrive/Desktop/GD32VW553/V1_MQTT_OK/GD32VW55X_Wifi_BLE_SDK/GD32VW55x_RELEASE_V1.0.2/MSDK/wpa_supplicant/wpa_supplicant\bssid_ignore.c **** 	while (e) {
 201:C:/Users/stapi/OneDrive/Desktop/GD32VW553/V1_MQTT_OK/GD32VW55X_Wifi_BLE_SDK/GD32VW55x_RELEASE_V1.0.2/MSDK/wpa_supplicant/wpa_supplicant\bssid_ignore.c **** 		if (os_reltime_expired(&now, &e->start,
 202:C:/Users/stapi/OneDrive/Desktop/GD32VW553/V1_MQTT_OK/GD32VW55X_Wifi_BLE_SDK/GD32VW55x_RELEASE_V1.0.2/MSDK/wpa_supplicant/wpa_supplicant\bssid_ignore.c **** 				       e->timeout_secs + 3600)) {
 296              		.loc 2 202 28 is_stmt 0
 297 0012 8569     		li	s3,4096
 199:C:/Users/stapi/OneDrive/Desktop/GD32VW553/V1_MQTT_OK/GD32VW55X_Wifi_BLE_SDK/GD32VW55x_RELEASE_V1.0.2/MSDK/wpa_supplicant/wpa_supplicant\bssid_ignore.c **** 	os_get_reltime(&now);
 298              		.loc 2 199 2
 299 0014 2800     		addi	a0,sp,8
 300              	.LVL28:
 301 0016 97000000 		call	os_get_reltime
 301      E7800000 
 302              	.LVL29:
 200:C:/Users/stapi/OneDrive/Desktop/GD32VW553/V1_MQTT_OK/GD32VW55X_Wifi_BLE_SDK/GD32VW55x_RELEASE_V1.0.2/MSDK/wpa_supplicant/wpa_supplicant\bssid_ignore.c **** 	while (e) {
 303              		.loc 2 200 2 is_stmt 1
 192:C:/Users/stapi/OneDrive/Desktop/GD32VW553/V1_MQTT_OK/GD32VW55X_Wifi_BLE_SDK/GD32VW55x_RELEASE_V1.0.2/MSDK/wpa_supplicant/wpa_supplicant\bssid_ignore.c **** 	struct os_reltime now;
 304              		.loc 2 192 31 is_stmt 0
 305 001e 0149     		li	s2,0
 306              		.loc 2 202 28
 307 0020 938909E1 		addi	s3,s3,-496
 308              	.LBB12:
 203:C:/Users/stapi/OneDrive/Desktop/GD32VW553/V1_MQTT_OK/GD32VW55X_Wifi_BLE_SDK/GD32VW55x_RELEASE_V1.0.2/MSDK/wpa_supplicant/wpa_supplicant\bssid_ignore.c **** 			struct wpa_bssid_ignore *to_delete = e;
 204:C:/Users/stapi/OneDrive/Desktop/GD32VW553/V1_MQTT_OK/GD32VW55X_Wifi_BLE_SDK/GD32VW55x_RELEASE_V1.0.2/MSDK/wpa_supplicant/wpa_supplicant\bssid_ignore.c **** 
 205:C:/Users/stapi/OneDrive/Desktop/GD32VW553/V1_MQTT_OK/GD32VW55X_Wifi_BLE_SDK/GD32VW55x_RELEASE_V1.0.2/MSDK/wpa_supplicant/wpa_supplicant\bssid_ignore.c **** 			if (prev) {
 206:C:/Users/stapi/OneDrive/Desktop/GD32VW553/V1_MQTT_OK/GD32VW55X_Wifi_BLE_SDK/GD32VW55x_RELEASE_V1.0.2/MSDK/wpa_supplicant/wpa_supplicant\bssid_ignore.c **** 				prev->next = e->next;
 207:C:/Users/stapi/OneDrive/Desktop/GD32VW553/V1_MQTT_OK/GD32VW55X_Wifi_BLE_SDK/GD32VW55x_RELEASE_V1.0.2/MSDK/wpa_supplicant/wpa_supplicant\bssid_ignore.c **** 				e = prev->next;
 208:C:/Users/stapi/OneDrive/Desktop/GD32VW553/V1_MQTT_OK/GD32VW55X_Wifi_BLE_SDK/GD32VW55x_RELEASE_V1.0.2/MSDK/wpa_supplicant/wpa_supplicant\bssid_ignore.c **** 			} else {
 209:C:/Users/stapi/OneDrive/Desktop/GD32VW553/V1_MQTT_OK/GD32VW55X_Wifi_BLE_SDK/GD32VW55x_RELEASE_V1.0.2/MSDK/wpa_supplicant/wpa_supplicant\bssid_ignore.c **** 				wpa_s->bssid_ignore = e->next;
 210:C:/Users/stapi/OneDrive/Desktop/GD32VW553/V1_MQTT_OK/GD32VW55X_Wifi_BLE_SDK/GD32VW55x_RELEASE_V1.0.2/MSDK/wpa_supplicant/wpa_supplicant\bssid_ignore.c **** 				e = wpa_s->bssid_ignore;
 211:C:/Users/stapi/OneDrive/Desktop/GD32VW553/V1_MQTT_OK/GD32VW55X_Wifi_BLE_SDK/GD32VW55x_RELEASE_V1.0.2/MSDK/wpa_supplicant/wpa_supplicant\bssid_ignore.c **** 			}
 212:C:/Users/stapi/OneDrive/Desktop/GD32VW553/V1_MQTT_OK/GD32VW55X_Wifi_BLE_SDK/GD32VW55x_RELEASE_V1.0.2/MSDK/wpa_supplicant/wpa_supplicant\bssid_ignore.c **** 			wpa_printf(MSG_INFO, "Removed BSSID " MACSTR
 309              		.loc 2 212 4
 310 0024 B70A0000 		lui	s5,%hi(.LC2)
 311              	.LVL30:
 312              	.L25:
 313              	.LBE12:
 200:C:/Users/stapi/OneDrive/Desktop/GD32VW553/V1_MQTT_OK/GD32VW55X_Wifi_BLE_SDK/GD32VW55x_RELEASE_V1.0.2/MSDK/wpa_supplicant/wpa_supplicant\bssid_ignore.c **** 		if (os_reltime_expired(&now, &e->start,
 314              		.loc 2 200 8 is_stmt 1
 315 0028 11E4     		bne	s0,zero,.L29
 316              	.LBE11:
 317              	.LBE10:
 213:C:/Users/stapi/OneDrive/Desktop/GD32VW553/V1_MQTT_OK/GD32VW55X_Wifi_BLE_SDK/GD32VW55x_RELEASE_V1.0.2/MSDK/wpa_supplicant/wpa_supplicant\bssid_ignore.c **** 				   " from ignore list (expired)",
 214:C:/Users/stapi/OneDrive/Desktop/GD32VW553/V1_MQTT_OK/GD32VW55X_Wifi_BLE_SDK/GD32VW55x_RELEASE_V1.0.2/MSDK/wpa_supplicant/wpa_supplicant\bssid_ignore.c **** 				   MAC2STR(to_delete->bssid));
 215:C:/Users/stapi/OneDrive/Desktop/GD32VW553/V1_MQTT_OK/GD32VW55X_Wifi_BLE_SDK/GD32VW55x_RELEASE_V1.0.2/MSDK/wpa_supplicant/wpa_supplicant\bssid_ignore.c **** 			os_free(to_delete);
 216:C:/Users/stapi/OneDrive/Desktop/GD32VW553/V1_MQTT_OK/GD32VW55X_Wifi_BLE_SDK/GD32VW55x_RELEASE_V1.0.2/MSDK/wpa_supplicant/wpa_supplicant\bssid_ignore.c **** 		} else {
 217:C:/Users/stapi/OneDrive/Desktop/GD32VW553/V1_MQTT_OK/GD32VW55X_Wifi_BLE_SDK/GD32VW55x_RELEASE_V1.0.2/MSDK/wpa_supplicant/wpa_supplicant\bssid_ignore.c **** 			prev = e;
 218:C:/Users/stapi/OneDrive/Desktop/GD32VW553/V1_MQTT_OK/GD32VW55X_Wifi_BLE_SDK/GD32VW55x_RELEASE_V1.0.2/MSDK/wpa_supplicant/wpa_supplicant\bssid_ignore.c **** 			e = e->next;
 219:C:/Users/stapi/OneDrive/Desktop/GD32VW553/V1_MQTT_OK/GD32VW55X_Wifi_BLE_SDK/GD32VW55x_RELEASE_V1.0.2/MSDK/wpa_supplicant/wpa_supplicant\bssid_ignore.c **** 		}
 220:C:/Users/stapi/OneDrive/Desktop/GD32VW553/V1_MQTT_OK/GD32VW55X_Wifi_BLE_SDK/GD32VW55x_RELEASE_V1.0.2/MSDK/wpa_supplicant/wpa_supplicant\bssid_ignore.c **** 	}
 221:C:/Users/stapi/OneDrive/Desktop/GD32VW553/V1_MQTT_OK/GD32VW55X_Wifi_BLE_SDK/GD32VW55x_RELEASE_V1.0.2/MSDK/wpa_supplicant/wpa_supplicant\bssid_ignore.c **** }
 318              		.loc 2 221 1 is_stmt 0
 319 002a 4101     		addi	sp,sp,16
 320              		.cfi_remember_state
 321              		.cfi_def_cfa_offset 0
 322 002c 17030000 		tail	__riscv_restore_6
 322      67000300 
 323              		.cfi_restore 21
 324              		.cfi_restore 20
 325              		.cfi_restore 19
 326              		.cfi_restore 18
 327              		.cfi_restore 9
 328              		.cfi_restore 8
 329              		.cfi_restore 1
 330              		.cfi_def_cfa_offset -32
 331              	.L29:
 332              		.cfi_restore_state
 333              	.LBB17:
 334              	.LBB16:
 201:C:/Users/stapi/OneDrive/Desktop/GD32VW553/V1_MQTT_OK/GD32VW55X_Wifi_BLE_SDK/GD32VW55x_RELEASE_V1.0.2/MSDK/wpa_supplicant/wpa_supplicant\bssid_ignore.c **** 				       e->timeout_secs + 3600)) {
 335              		.loc 2 201 3 is_stmt 1
 202:C:/Users/stapi/OneDrive/Desktop/GD32VW553/V1_MQTT_OK/GD32VW55X_Wifi_BLE_SDK/GD32VW55x_RELEASE_V1.0.2/MSDK/wpa_supplicant/wpa_supplicant\bssid_ignore.c **** 			struct wpa_bssid_ignore *to_delete = e;
 336              		.loc 2 202 28 is_stmt 0
 337 0034 104C     		lw	a2,24(s0)
 201:C:/Users/stapi/OneDrive/Desktop/GD32VW553/V1_MQTT_OK/GD32VW55X_Wifi_BLE_SDK/GD32VW55x_RELEASE_V1.0.2/MSDK/wpa_supplicant/wpa_supplicant\bssid_ignore.c **** 				       e->timeout_secs + 3600)) {
 338              		.loc 2 201 7
 339 0036 93050401 		addi	a1,s0,16
 340 003a 2800     		addi	a0,sp,8
 341 003c 4E96     		add	a2,a2,s3
 342 003e 97000000 		call	os_reltime_expired
 342      E7800000 
 343              	.LVL31:
 344              	.LBB13:
 206:C:/Users/stapi/OneDrive/Desktop/GD32VW553/V1_MQTT_OK/GD32VW55X_Wifi_BLE_SDK/GD32VW55x_RELEASE_V1.0.2/MSDK/wpa_supplicant/wpa_supplicant\bssid_ignore.c **** 				e = prev->next;
 345              		.loc 2 206 19
 346 0046 032A0400 		lw	s4,0(s0)
 347              	.LBE13:
 201:C:/Users/stapi/OneDrive/Desktop/GD32VW553/V1_MQTT_OK/GD32VW55X_Wifi_BLE_SDK/GD32VW55x_RELEASE_V1.0.2/MSDK/wpa_supplicant/wpa_supplicant\bssid_ignore.c **** 				       e->timeout_secs + 3600)) {
 348              		.loc 2 201 6
 349 004a 15CD     		beq	a0,zero,.L26
 350              	.LBB14:
 203:C:/Users/stapi/OneDrive/Desktop/GD32VW553/V1_MQTT_OK/GD32VW55X_Wifi_BLE_SDK/GD32VW55x_RELEASE_V1.0.2/MSDK/wpa_supplicant/wpa_supplicant\bssid_ignore.c **** 
 351              		.loc 2 203 4 is_stmt 1
 352              	.LVL32:
 205:C:/Users/stapi/OneDrive/Desktop/GD32VW553/V1_MQTT_OK/GD32VW55X_Wifi_BLE_SDK/GD32VW55x_RELEASE_V1.0.2/MSDK/wpa_supplicant/wpa_supplicant\bssid_ignore.c **** 				prev->next = e->next;
 353              		.loc 2 205 4
 205:C:/Users/stapi/OneDrive/Desktop/GD32VW553/V1_MQTT_OK/GD32VW55X_Wifi_BLE_SDK/GD32VW55x_RELEASE_V1.0.2/MSDK/wpa_supplicant/wpa_supplicant\bssid_ignore.c **** 				prev->next = e->next;
 354              		.loc 2 205 7 is_stmt 0
 355 004c 63000904 		beq	s2,zero,.L27
 206:C:/Users/stapi/OneDrive/Desktop/GD32VW553/V1_MQTT_OK/GD32VW55X_Wifi_BLE_SDK/GD32VW55x_RELEASE_V1.0.2/MSDK/wpa_supplicant/wpa_supplicant\bssid_ignore.c **** 				e = prev->next;
 356              		.loc 2 206 5 is_stmt 1
 206:C:/Users/stapi/OneDrive/Desktop/GD32VW553/V1_MQTT_OK/GD32VW55X_Wifi_BLE_SDK/GD32VW55x_RELEASE_V1.0.2/MSDK/wpa_supplicant/wpa_supplicant\bssid_ignore.c **** 				e = prev->next;
 357              		.loc 2 206 16 is_stmt 0
 358 0050 23204901 		sw	s4,0(s2)
 207:C:/Users/stapi/OneDrive/Desktop/GD32VW553/V1_MQTT_OK/GD32VW55X_Wifi_BLE_SDK/GD32VW55x_RELEASE_V1.0.2/MSDK/wpa_supplicant/wpa_supplicant\bssid_ignore.c **** 			} else {
 359              		.loc 2 207 5 is_stmt 1
 360              	.LVL33:
 361              	.L28:
 212:C:/Users/stapi/OneDrive/Desktop/GD32VW553/V1_MQTT_OK/GD32VW55X_Wifi_BLE_SDK/GD32VW55x_RELEASE_V1.0.2/MSDK/wpa_supplicant/wpa_supplicant\bssid_ignore.c **** 				   " from ignore list (expired)",
 362              		.loc 2 212 4
 363 0054 83489400 		lbu	a7,9(s0)
 364 0058 03488400 		lbu	a6,8(s0)
 365 005c 83477400 		lbu	a5,7(s0)
 366 0060 03476400 		lbu	a4,6(s0)
 367 0064 83465400 		lbu	a3,5(s0)
 368 0068 03464400 		lbu	a2,4(s0)
 369 006c 93850A00 		addi	a1,s5,%lo(.LC2)
 370 0070 0D45     		li	a0,3
 371 0072 97000000 		call	wpa_printf
 371      E7800000 
 372              	.LVL34:
 215:C:/Users/stapi/OneDrive/Desktop/GD32VW553/V1_MQTT_OK/GD32VW55X_Wifi_BLE_SDK/GD32VW55x_RELEASE_V1.0.2/MSDK/wpa_supplicant/wpa_supplicant\bssid_ignore.c **** 		} else {
 373              		.loc 2 215 4
 374 007a 2285     		mv	a0,s0
 375 007c 97000000 		call	os_free
 375      E7800000 
 376              	.LVL35:
 377              	.LBE14:
 378 0084 4A84     		mv	s0,s2
 379              	.LVL36:
 380              	.L26:
 381 0086 2289     		mv	s2,s0
 382 0088 5284     		mv	s0,s4
 383 008a 79BF     		j	.L25
 384              	.LVL37:
 385              	.L27:
 386              	.LBB15:
 209:C:/Users/stapi/OneDrive/Desktop/GD32VW553/V1_MQTT_OK/GD32VW55X_Wifi_BLE_SDK/GD32VW55x_RELEASE_V1.0.2/MSDK/wpa_supplicant/wpa_supplicant\bssid_ignore.c **** 				e = wpa_s->bssid_ignore;
 387              		.loc 2 209 5
 209:C:/Users/stapi/OneDrive/Desktop/GD32VW553/V1_MQTT_OK/GD32VW55X_Wifi_BLE_SDK/GD32VW55x_RELEASE_V1.0.2/MSDK/wpa_supplicant/wpa_supplicant\bssid_ignore.c **** 				e = wpa_s->bssid_ignore;
 388              		.loc 2 209 25 is_stmt 0
 389 008c 23A24419 		sw	s4,388(s1)
 210:C:/Users/stapi/OneDrive/Desktop/GD32VW553/V1_MQTT_OK/GD32VW55X_Wifi_BLE_SDK/GD32VW55x_RELEASE_V1.0.2/MSDK/wpa_supplicant/wpa_supplicant\bssid_ignore.c **** 			}
 390              		.loc 2 210 5 is_stmt 1
 391              	.LVL38:
 392 0090 D1B7     		j	.L28
 393              	.LVL39:
 394              	.L37:
 395              		.cfi_def_cfa_offset 0
 396              		.cfi_restore 1
 397              		.cfi_restore 8
 398              		.cfi_restore 9
 399              		.cfi_restore 18
 400              		.cfi_restore 19
 401              		.cfi_restore 20
 402              		.cfi_restore 21
 403 0092 8280     		ret
 404              	.LBE15:
 405              	.LBE16:
 406              	.LBE17:
 407              		.cfi_endproc
 408              	.LFE141:
 410              		.section	.text.wpa_bssid_ignore_get,"ax",@progbits
 411              		.align	1
 412              		.globl	wpa_bssid_ignore_get
 414              	wpa_bssid_ignore_get:
 415              	.LFB136:
  23:C:/Users/stapi/OneDrive/Desktop/GD32VW553/V1_MQTT_OK/GD32VW55X_Wifi_BLE_SDK/GD32VW55x_RELEASE_V1.0.2/MSDK/wpa_supplicant/wpa_supplicant\bssid_ignore.c **** 	struct wpa_bssid_ignore *e;
 416              		.loc 2 23 1
 417              		.cfi_startproc
 418              	.LVL40:
 419 0000 17030000 		call	t0,__riscv_save_2
 419      E7020300 
 420              		.cfi_offset 9, -12
 421              		.cfi_offset 8, -8
 422              		.cfi_offset 1, -4
 423              		.cfi_def_cfa_offset 16
  24:C:/Users/stapi/OneDrive/Desktop/GD32VW553/V1_MQTT_OK/GD32VW55X_Wifi_BLE_SDK/GD32VW55x_RELEASE_V1.0.2/MSDK/wpa_supplicant/wpa_supplicant\bssid_ignore.c **** 
 424              		.loc 2 24 2
  26:C:/Users/stapi/OneDrive/Desktop/GD32VW553/V1_MQTT_OK/GD32VW55X_Wifi_BLE_SDK/GD32VW55x_RELEASE_V1.0.2/MSDK/wpa_supplicant/wpa_supplicant\bssid_ignore.c **** 		return NULL;
 425              		.loc 2 26 2
  26:C:/Users/stapi/OneDrive/Desktop/GD32VW553/V1_MQTT_OK/GD32VW55X_Wifi_BLE_SDK/GD32VW55x_RELEASE_V1.0.2/MSDK/wpa_supplicant/wpa_supplicant\bssid_ignore.c **** 		return NULL;
 426              		.loc 2 26 5 is_stmt 0
 427 0008 19E5     		bne	a0,zero,.L41
 428              	.LVL41:
 429              	.L60:
  33:C:/Users/stapi/OneDrive/Desktop/GD32VW553/V1_MQTT_OK/GD32VW55X_Wifi_BLE_SDK/GD32VW55x_RELEASE_V1.0.2/MSDK/wpa_supplicant/wpa_supplicant\bssid_ignore.c **** 	}
 430              		.loc 2 33 3 is_stmt 1
  33:C:/Users/stapi/OneDrive/Desktop/GD32VW553/V1_MQTT_OK/GD32VW55X_Wifi_BLE_SDK/GD32VW55x_RELEASE_V1.0.2/MSDK/wpa_supplicant/wpa_supplicant\bssid_ignore.c **** 	}
 431              		.loc 2 33 10 is_stmt 0
 432 000a 0144     		li	s0,0
 433              	.L40:
  46:C:/Users/stapi/OneDrive/Desktop/GD32VW553/V1_MQTT_OK/GD32VW55X_Wifi_BLE_SDK/GD32VW55x_RELEASE_V1.0.2/MSDK/wpa_supplicant/wpa_supplicant\bssid_ignore.c **** 
 434              		.loc 2 46 1
 435 000c 2285     		mv	a0,s0
 436 000e 17030000 		tail	__riscv_restore_2
 436      67000300 
 437              		.cfi_remember_state
 438              		.cfi_restore 9
 439              		.cfi_restore 8
 440              		.cfi_restore 1
 441              		.cfi_def_cfa_offset 0
 442              	.LVL42:
 443              	.L41:
 444              		.cfi_restore_state
 445 0016 AE84     		mv	s1,a1
  26:C:/Users/stapi/OneDrive/Desktop/GD32VW553/V1_MQTT_OK/GD32VW55X_Wifi_BLE_SDK/GD32VW55x_RELEASE_V1.0.2/MSDK/wpa_supplicant/wpa_supplicant\bssid_ignore.c **** 		return NULL;
 446              		.loc 2 26 20 discriminator 1
 447 0018 EDD9     		beq	a1,zero,.L60
 448              	.LVL43:
  29:C:/Users/stapi/OneDrive/Desktop/GD32VW553/V1_MQTT_OK/GD32VW55X_Wifi_BLE_SDK/GD32VW55x_RELEASE_V1.0.2/MSDK/wpa_supplicant/wpa_supplicant\bssid_ignore.c **** 	    wpa_s->current_ssid->was_recently_reconfigured) {
 449              		.loc 2 29 11
 450 001a 83270509 		lw	a5,144(a0)
 451 001e 2A84     		mv	s0,a0
  29:C:/Users/stapi/OneDrive/Desktop/GD32VW553/V1_MQTT_OK/GD32VW55X_Wifi_BLE_SDK/GD32VW55x_RELEASE_V1.0.2/MSDK/wpa_supplicant/wpa_supplicant\bssid_ignore.c **** 	    wpa_s->current_ssid->was_recently_reconfigured) {
 452              		.loc 2 29 2 is_stmt 1
  29:C:/Users/stapi/OneDrive/Desktop/GD32VW553/V1_MQTT_OK/GD32VW55X_Wifi_BLE_SDK/GD32VW55x_RELEASE_V1.0.2/MSDK/wpa_supplicant/wpa_supplicant\bssid_ignore.c **** 	    wpa_s->current_ssid->was_recently_reconfigured) {
 453              		.loc 2 29 5 is_stmt 0
 454 0020 89CF     		beq	a5,zero,.L44
 455              	.LVL44:
  29:C:/Users/stapi/OneDrive/Desktop/GD32VW553/V1_MQTT_OK/GD32VW55X_Wifi_BLE_SDK/GD32VW55x_RELEASE_V1.0.2/MSDK/wpa_supplicant/wpa_supplicant\bssid_ignore.c **** 	    wpa_s->current_ssid->was_recently_reconfigured) {
 456              		.loc 2 29 26 discriminator 1
 457 0022 83C7C71B 		lbu	a5,444(a5)
 458 0026 91CB     		beq	a5,zero,.L44
  31:C:/Users/stapi/OneDrive/Desktop/GD32VW553/V1_MQTT_OK/GD32VW55X_Wifi_BLE_SDK/GD32VW55x_RELEASE_V1.0.2/MSDK/wpa_supplicant/wpa_supplicant\bssid_ignore.c **** 		wpa_s->current_ssid->was_recently_reconfigured = false;
 459              		.loc 2 31 3 is_stmt 1
 460 0028 97000000 		call	wpa_bssid_ignore_clear
 460      E7800000 
 461              	.LVL45:
  32:C:/Users/stapi/OneDrive/Desktop/GD32VW553/V1_MQTT_OK/GD32VW55X_Wifi_BLE_SDK/GD32VW55x_RELEASE_V1.0.2/MSDK/wpa_supplicant/wpa_supplicant\bssid_ignore.c **** 		return NULL;
 462              		.loc 2 32 3
  32:C:/Users/stapi/OneDrive/Desktop/GD32VW553/V1_MQTT_OK/GD32VW55X_Wifi_BLE_SDK/GD32VW55x_RELEASE_V1.0.2/MSDK/wpa_supplicant/wpa_supplicant\bssid_ignore.c **** 		return NULL;
 463              		.loc 2 32 50 is_stmt 0
 464 0030 83270409 		lw	a5,144(s0)
 465 0034 238E071A 		sb	zero,444(a5)
 466 0038 C9BF     		j	.L60
 467              	.L44:
  36:C:/Users/stapi/OneDrive/Desktop/GD32VW553/V1_MQTT_OK/GD32VW55X_Wifi_BLE_SDK/GD32VW55x_RELEASE_V1.0.2/MSDK/wpa_supplicant/wpa_supplicant\bssid_ignore.c **** 
 468              		.loc 2 36 2 is_stmt 1
 469 003a 2285     		mv	a0,s0
 470 003c 97000000 		call	wpa_bssid_ignore_update
 470      E7800000 
 471              	.LVL46:
  38:C:/Users/stapi/OneDrive/Desktop/GD32VW553/V1_MQTT_OK/GD32VW55X_Wifi_BLE_SDK/GD32VW55x_RELEASE_V1.0.2/MSDK/wpa_supplicant/wpa_supplicant\bssid_ignore.c **** 	while (e) {
 472              		.loc 2 38 2
  38:C:/Users/stapi/OneDrive/Desktop/GD32VW553/V1_MQTT_OK/GD32VW55X_Wifi_BLE_SDK/GD32VW55x_RELEASE_V1.0.2/MSDK/wpa_supplicant/wpa_supplicant\bssid_ignore.c **** 	while (e) {
 473              		.loc 2 38 4 is_stmt 0
 474 0044 03244418 		lw	s0,388(s0)
 475              	.LVL47:
  39:C:/Users/stapi/OneDrive/Desktop/GD32VW553/V1_MQTT_OK/GD32VW55X_Wifi_BLE_SDK/GD32VW55x_RELEASE_V1.0.2/MSDK/wpa_supplicant/wpa_supplicant\bssid_ignore.c **** 		if (os_memcmp(e->bssid, bssid, ETH_ALEN) == 0)
 476              		.loc 2 39 2 is_stmt 1
 477              	.L45:
  39:C:/Users/stapi/OneDrive/Desktop/GD32VW553/V1_MQTT_OK/GD32VW55X_Wifi_BLE_SDK/GD32VW55x_RELEASE_V1.0.2/MSDK/wpa_supplicant/wpa_supplicant\bssid_ignore.c **** 		if (os_memcmp(e->bssid, bssid, ETH_ALEN) == 0)
 478              		.loc 2 39 8
 479 0048 69D0     		beq	s0,zero,.L60
  40:C:/Users/stapi/OneDrive/Desktop/GD32VW553/V1_MQTT_OK/GD32VW55X_Wifi_BLE_SDK/GD32VW55x_RELEASE_V1.0.2/MSDK/wpa_supplicant/wpa_supplicant\bssid_ignore.c **** 			return e;
 480              		.loc 2 40 3
  40:C:/Users/stapi/OneDrive/Desktop/GD32VW553/V1_MQTT_OK/GD32VW55X_Wifi_BLE_SDK/GD32VW55x_RELEASE_V1.0.2/MSDK/wpa_supplicant/wpa_supplicant\bssid_ignore.c **** 			return e;
 481              		.loc 2 40 7 is_stmt 0
 482 004a 1946     		li	a2,6
 483 004c A685     		mv	a1,s1
 484 004e 13054400 		addi	a0,s0,4
 485 0052 97000000 		call	os_memcmp
 485      E7800000 
 486              	.LVL48:
  40:C:/Users/stapi/OneDrive/Desktop/GD32VW553/V1_MQTT_OK/GD32VW55X_Wifi_BLE_SDK/GD32VW55x_RELEASE_V1.0.2/MSDK/wpa_supplicant/wpa_supplicant\bssid_ignore.c **** 			return e;
 487              		.loc 2 40 6
 488 005a 4DD9     		beq	a0,zero,.L40
  42:C:/Users/stapi/OneDrive/Desktop/GD32VW553/V1_MQTT_OK/GD32VW55X_Wifi_BLE_SDK/GD32VW55x_RELEASE_V1.0.2/MSDK/wpa_supplicant/wpa_supplicant\bssid_ignore.c **** 	}
 489              		.loc 2 42 3 is_stmt 1
  42:C:/Users/stapi/OneDrive/Desktop/GD32VW553/V1_MQTT_OK/GD32VW55X_Wifi_BLE_SDK/GD32VW55x_RELEASE_V1.0.2/MSDK/wpa_supplicant/wpa_supplicant\bssid_ignore.c **** 	}
 490              		.loc 2 42 5 is_stmt 0
 491 005c 0040     		lw	s0,0(s0)
 492              	.LVL49:
 493 005e EDB7     		j	.L45
 494              		.cfi_endproc
 495              	.LFE136:
 497              		.section	.rodata.wpa_bssid_ignore_add.str1.4,"aMS",@progbits,1
 498              		.align	2
 499              	.LC3:
 500 0000 42535349 		.string	"BSSID %02x:%02x:%02x:%02x:%02x:%02x ignore list count incremented to %d, ignoring for %d 
 500      44202530 
 500      32783A25 
 500      3032783A 
 500      25303278 
 501 0061 000000   		.align	2
 502              	.LC4:
 503 0064 41646465 		.string	"Added BSSID %02x:%02x:%02x:%02x:%02x:%02x into ignore list, ignoring for %d seconds"
 503      64204253 
 503      53494420 
 503      25303278 
 503      3A253032 
 504              		.section	.text.wpa_bssid_ignore_add,"ax",@progbits
 505              		.align	1
 506              		.globl	wpa_bssid_ignore_add
 508              	wpa_bssid_ignore_add:
 509              	.LFB137:
  66:C:/Users/stapi/OneDrive/Desktop/GD32VW553/V1_MQTT_OK/GD32VW55X_Wifi_BLE_SDK/GD32VW55x_RELEASE_V1.0.2/MSDK/wpa_supplicant/wpa_supplicant\bssid_ignore.c **** 	struct wpa_bssid_ignore *e;
 510              		.loc 2 66 1 is_stmt 1
 511              		.cfi_startproc
 512              	.LVL50:
  67:C:/Users/stapi/OneDrive/Desktop/GD32VW553/V1_MQTT_OK/GD32VW55X_Wifi_BLE_SDK/GD32VW55x_RELEASE_V1.0.2/MSDK/wpa_supplicant/wpa_supplicant\bssid_ignore.c **** 	struct os_reltime now;
 513              		.loc 2 67 2
  68:C:/Users/stapi/OneDrive/Desktop/GD32VW553/V1_MQTT_OK/GD32VW55X_Wifi_BLE_SDK/GD32VW55x_RELEASE_V1.0.2/MSDK/wpa_supplicant/wpa_supplicant\bssid_ignore.c **** 
 514              		.loc 2 68 2
  70:C:/Users/stapi/OneDrive/Desktop/GD32VW553/V1_MQTT_OK/GD32VW55X_Wifi_BLE_SDK/GD32VW55x_RELEASE_V1.0.2/MSDK/wpa_supplicant/wpa_supplicant\bssid_ignore.c **** 		return -1;
 515              		.loc 2 70 2
  70:C:/Users/stapi/OneDrive/Desktop/GD32VW553/V1_MQTT_OK/GD32VW55X_Wifi_BLE_SDK/GD32VW55x_RELEASE_V1.0.2/MSDK/wpa_supplicant/wpa_supplicant\bssid_ignore.c **** 		return -1;
 516              		.loc 2 70 5 is_stmt 0
 517 0000 09E9     		bne	a0,zero,.L62
  71:C:/Users/stapi/OneDrive/Desktop/GD32VW553/V1_MQTT_OK/GD32VW55X_Wifi_BLE_SDK/GD32VW55x_RELEASE_V1.0.2/MSDK/wpa_supplicant/wpa_supplicant\bssid_ignore.c **** 
 518              		.loc 2 71 10
 519 0002 7D55     		li	a0,-1
 520              	.LVL51:
 108:C:/Users/stapi/OneDrive/Desktop/GD32VW553/V1_MQTT_OK/GD32VW55X_Wifi_BLE_SDK/GD32VW55x_RELEASE_V1.0.2/MSDK/wpa_supplicant/wpa_supplicant\bssid_ignore.c **** 
 521              		.loc 2 108 1
 522 0004 8280     		ret
 523              	.LVL52:
 524              	.L64:
 525              		.cfi_def_cfa_offset 48
 526              		.cfi_offset 1, -4
 527              		.cfi_offset 8, -8
 528              		.cfi_offset 9, -12
 529              		.cfi_offset 18, -16
  71:C:/Users/stapi/OneDrive/Desktop/GD32VW553/V1_MQTT_OK/GD32VW55X_Wifi_BLE_SDK/GD32VW55x_RELEASE_V1.0.2/MSDK/wpa_supplicant/wpa_supplicant\bssid_ignore.c **** 
 530              		.loc 2 71 10
 531 0006 7D55     		li	a0,-1
 532              	.L61:
 108:C:/Users/stapi/OneDrive/Desktop/GD32VW553/V1_MQTT_OK/GD32VW55X_Wifi_BLE_SDK/GD32VW55x_RELEASE_V1.0.2/MSDK/wpa_supplicant/wpa_supplicant\bssid_ignore.c **** 
 533              		.loc 2 108 1
 534 0008 0561     		addi	sp,sp,32
 535              		.cfi_def_cfa_offset 0
 536 000a 17030000 		tail	__riscv_restore_3
 536      67000300 
 537              		.cfi_restore 18
 538              		.cfi_restore 9
 539              		.cfi_restore 8
 540              		.cfi_restore 1
 541              		.cfi_def_cfa_offset -16
 542              	.LVL53:
 543              	.L62:
 544              		.cfi_def_cfa_offset 0
  66:C:/Users/stapi/OneDrive/Desktop/GD32VW553/V1_MQTT_OK/GD32VW55X_Wifi_BLE_SDK/GD32VW55x_RELEASE_V1.0.2/MSDK/wpa_supplicant/wpa_supplicant\bssid_ignore.c **** 	struct wpa_bssid_ignore *e;
 545              		.loc 2 66 1 discriminator 1
 546 0012 17030000 		call	t0,__riscv_save_3
 546      E7020300 
 547              		.cfi_offset 18, -16
 548              		.cfi_offset 9, -12
 549              		.cfi_offset 8, -8
 550              		.cfi_offset 1, -4
 551              		.cfi_def_cfa_offset 16
 552 001a 0111     		addi	sp,sp,-32
 553              		.cfi_def_cfa_offset 48
 554 001c 2E84     		mv	s0,a1
  70:C:/Users/stapi/OneDrive/Desktop/GD32VW553/V1_MQTT_OK/GD32VW55X_Wifi_BLE_SDK/GD32VW55x_RELEASE_V1.0.2/MSDK/wpa_supplicant/wpa_supplicant\bssid_ignore.c **** 		return -1;
 555              		.loc 2 70 20 discriminator 1
 556 001e E5D5     		beq	a1,zero,.L64
 557              	.LVL54:
 558 0020 2A89     		mv	s2,a0
  73:C:/Users/stapi/OneDrive/Desktop/GD32VW553/V1_MQTT_OK/GD32VW55X_Wifi_BLE_SDK/GD32VW55x_RELEASE_V1.0.2/MSDK/wpa_supplicant/wpa_supplicant\bssid_ignore.c **** 	os_get_reltime(&now);
 559              		.loc 2 73 2 is_stmt 1
  73:C:/Users/stapi/OneDrive/Desktop/GD32VW553/V1_MQTT_OK/GD32VW55X_Wifi_BLE_SDK/GD32VW55x_RELEASE_V1.0.2/MSDK/wpa_supplicant/wpa_supplicant\bssid_ignore.c **** 	os_get_reltime(&now);
 560              		.loc 2 73 6 is_stmt 0
 561 0022 97000000 		call	wpa_bssid_ignore_get
 561      E7800000 
 562              	.LVL55:
 563 002a AA84     		mv	s1,a0
 564              	.LVL56:
  74:C:/Users/stapi/OneDrive/Desktop/GD32VW553/V1_MQTT_OK/GD32VW55X_Wifi_BLE_SDK/GD32VW55x_RELEASE_V1.0.2/MSDK/wpa_supplicant/wpa_supplicant\bssid_ignore.c **** 	if (e) {
 565              		.loc 2 74 2 is_stmt 1
 566 002c 2808     		addi	a0,sp,24
 567 002e 97000000 		call	os_get_reltime
 567      E7800000 
 568              	.LVL57:
  75:C:/Users/stapi/OneDrive/Desktop/GD32VW553/V1_MQTT_OK/GD32VW55X_Wifi_BLE_SDK/GD32VW55x_RELEASE_V1.0.2/MSDK/wpa_supplicant/wpa_supplicant\bssid_ignore.c **** 		e->start = now;
 569              		.loc 2 75 2
  75:C:/Users/stapi/OneDrive/Desktop/GD32VW553/V1_MQTT_OK/GD32VW55X_Wifi_BLE_SDK/GD32VW55x_RELEASE_V1.0.2/MSDK/wpa_supplicant/wpa_supplicant\bssid_ignore.c **** 		e->start = now;
 570              		.loc 2 75 5 is_stmt 0
 571 0036 BDC8     		beq	s1,zero,.L65
  76:C:/Users/stapi/OneDrive/Desktop/GD32VW553/V1_MQTT_OK/GD32VW55X_Wifi_BLE_SDK/GD32VW55x_RELEASE_V1.0.2/MSDK/wpa_supplicant/wpa_supplicant\bssid_ignore.c **** 		e->count++;
 572              		.loc 2 76 3 is_stmt 1
  76:C:/Users/stapi/OneDrive/Desktop/GD32VW553/V1_MQTT_OK/GD32VW55X_Wifi_BLE_SDK/GD32VW55x_RELEASE_V1.0.2/MSDK/wpa_supplicant/wpa_supplicant\bssid_ignore.c **** 		e->count++;
 573              		.loc 2 76 12 is_stmt 0
 574 0038 E247     		lw	a5,24(sp)
  78:C:/Users/stapi/OneDrive/Desktop/GD32VW553/V1_MQTT_OK/GD32VW55X_Wifi_BLE_SDK/GD32VW55x_RELEASE_V1.0.2/MSDK/wpa_supplicant/wpa_supplicant\bssid_ignore.c **** 			e->timeout_secs = 1800;
 575              		.loc 2 78 6
 576 003a 1547     		li	a4,5
  76:C:/Users/stapi/OneDrive/Desktop/GD32VW553/V1_MQTT_OK/GD32VW55X_Wifi_BLE_SDK/GD32VW55x_RELEASE_V1.0.2/MSDK/wpa_supplicant/wpa_supplicant\bssid_ignore.c **** 		e->count++;
 577              		.loc 2 76 12
 578 003c 9CC8     		sw	a5,16(s1)
 579 003e F247     		lw	a5,28(sp)
 580 0040 DCC8     		sw	a5,20(s1)
  77:C:/Users/stapi/OneDrive/Desktop/GD32VW553/V1_MQTT_OK/GD32VW55X_Wifi_BLE_SDK/GD32VW55x_RELEASE_V1.0.2/MSDK/wpa_supplicant/wpa_supplicant\bssid_ignore.c **** 		if (e->count > 5)
 581              		.loc 2 77 3 is_stmt 1
  77:C:/Users/stapi/OneDrive/Desktop/GD32VW553/V1_MQTT_OK/GD32VW55X_Wifi_BLE_SDK/GD32VW55x_RELEASE_V1.0.2/MSDK/wpa_supplicant/wpa_supplicant\bssid_ignore.c **** 		if (e->count > 5)
 582              		.loc 2 77 11 is_stmt 0
 583 0042 DC44     		lw	a5,12(s1)
 584 0044 8507     		addi	a5,a5,1
 585 0046 DCC4     		sw	a5,12(s1)
  78:C:/Users/stapi/OneDrive/Desktop/GD32VW553/V1_MQTT_OK/GD32VW55X_Wifi_BLE_SDK/GD32VW55x_RELEASE_V1.0.2/MSDK/wpa_supplicant/wpa_supplicant\bssid_ignore.c **** 			e->timeout_secs = 1800;
 586              		.loc 2 78 3 is_stmt 1
  78:C:/Users/stapi/OneDrive/Desktop/GD32VW553/V1_MQTT_OK/GD32VW55X_Wifi_BLE_SDK/GD32VW55x_RELEASE_V1.0.2/MSDK/wpa_supplicant/wpa_supplicant\bssid_ignore.c **** 			e->timeout_secs = 1800;
 587              		.loc 2 78 6 is_stmt 0
 588 0048 635FF702 		ble	a5,a4,.L66
  79:C:/Users/stapi/OneDrive/Desktop/GD32VW553/V1_MQTT_OK/GD32VW55X_Wifi_BLE_SDK/GD32VW55x_RELEASE_V1.0.2/MSDK/wpa_supplicant/wpa_supplicant\bssid_ignore.c **** 		else if (e->count == 5)
 589              		.loc 2 79 4 is_stmt 1
  79:C:/Users/stapi/OneDrive/Desktop/GD32VW553/V1_MQTT_OK/GD32VW55X_Wifi_BLE_SDK/GD32VW55x_RELEASE_V1.0.2/MSDK/wpa_supplicant/wpa_supplicant\bssid_ignore.c **** 		else if (e->count == 5)
 590              		.loc 2 79 20 is_stmt 0
 591 004c 13078070 		li	a4,1800
 592              	.L80:
  87:C:/Users/stapi/OneDrive/Desktop/GD32VW553/V1_MQTT_OK/GD32VW55X_Wifi_BLE_SDK/GD32VW55x_RELEASE_V1.0.2/MSDK/wpa_supplicant/wpa_supplicant\bssid_ignore.c **** 		wpa_printf(MSG_INFO, "BSSID " MACSTR
 593              		.loc 2 87 20
 594 0050 98CC     		sw	a4,24(s1)
  88:C:/Users/stapi/OneDrive/Desktop/GD32VW553/V1_MQTT_OK/GD32VW55X_Wifi_BLE_SDK/GD32VW55x_RELEASE_V1.0.2/MSDK/wpa_supplicant/wpa_supplicant\bssid_ignore.c **** 			   " ignore list count incremented to %d, ignoring for %d seconds",
 595              		.loc 2 88 3 is_stmt 1
 596 0052 984C     		lw	a4,24(s1)
 597 0054 3EC0     		sw	a5,0(sp)
 598 0056 B7050000 		lui	a1,%hi(.LC3)
 599 005a 3AC2     		sw	a4,4(sp)
 600 005c 83485400 		lbu	a7,5(s0)
 601 0060 03484400 		lbu	a6,4(s0)
 602 0064 83473400 		lbu	a5,3(s0)
 603 0068 03472400 		lbu	a4,2(s0)
 604 006c 83461400 		lbu	a3,1(s0)
 605 0070 03460400 		lbu	a2,0(s0)
 606 0074 93850500 		addi	a1,a1,%lo(.LC3)
 607 0078 0D45     		li	a0,3
 608 007a 97000000 		call	wpa_printf
 608      E7800000 
 609              	.LVL58:
  91:C:/Users/stapi/OneDrive/Desktop/GD32VW553/V1_MQTT_OK/GD32VW55X_Wifi_BLE_SDK/GD32VW55x_RELEASE_V1.0.2/MSDK/wpa_supplicant/wpa_supplicant\bssid_ignore.c **** 	}
 610              		.loc 2 91 3
 611              	.L81:
 107:C:/Users/stapi/OneDrive/Desktop/GD32VW553/V1_MQTT_OK/GD32VW55X_Wifi_BLE_SDK/GD32VW55x_RELEASE_V1.0.2/MSDK/wpa_supplicant/wpa_supplicant\bssid_ignore.c **** }
 612              		.loc 2 107 2
 107:C:/Users/stapi/OneDrive/Desktop/GD32VW553/V1_MQTT_OK/GD32VW55X_Wifi_BLE_SDK/GD32VW55x_RELEASE_V1.0.2/MSDK/wpa_supplicant/wpa_supplicant\bssid_ignore.c **** }
 613              		.loc 2 107 10 is_stmt 0
 614 0082 C844     		lw	a0,12(s1)
 615 0084 51B7     		j	.L61
 616              	.L66:
  80:C:/Users/stapi/OneDrive/Desktop/GD32VW553/V1_MQTT_OK/GD32VW55X_Wifi_BLE_SDK/GD32VW55x_RELEASE_V1.0.2/MSDK/wpa_supplicant/wpa_supplicant\bssid_ignore.c **** 			e->timeout_secs = 600;
 617              		.loc 2 80 8 is_stmt 1
  80:C:/Users/stapi/OneDrive/Desktop/GD32VW553/V1_MQTT_OK/GD32VW55X_Wifi_BLE_SDK/GD32VW55x_RELEASE_V1.0.2/MSDK/wpa_supplicant/wpa_supplicant\bssid_ignore.c **** 			e->timeout_secs = 600;
 618              		.loc 2 80 11 is_stmt 0
 619 0086 6395E700 		bne	a5,a4,.L68
  81:C:/Users/stapi/OneDrive/Desktop/GD32VW553/V1_MQTT_OK/GD32VW55X_Wifi_BLE_SDK/GD32VW55x_RELEASE_V1.0.2/MSDK/wpa_supplicant/wpa_supplicant\bssid_ignore.c **** 		else if (e->count == 4)
 620              		.loc 2 81 4 is_stmt 1
  81:C:/Users/stapi/OneDrive/Desktop/GD32VW553/V1_MQTT_OK/GD32VW55X_Wifi_BLE_SDK/GD32VW55x_RELEASE_V1.0.2/MSDK/wpa_supplicant/wpa_supplicant\bssid_ignore.c **** 		else if (e->count == 4)
 621              		.loc 2 81 20 is_stmt 0
 622 008a 13078025 		li	a4,600
 623 008e C9B7     		j	.L80
 624              	.L68:
  82:C:/Users/stapi/OneDrive/Desktop/GD32VW553/V1_MQTT_OK/GD32VW55X_Wifi_BLE_SDK/GD32VW55x_RELEASE_V1.0.2/MSDK/wpa_supplicant/wpa_supplicant\bssid_ignore.c **** 			e->timeout_secs = 120;
 625              		.loc 2 82 8 is_stmt 1
  82:C:/Users/stapi/OneDrive/Desktop/GD32VW553/V1_MQTT_OK/GD32VW55X_Wifi_BLE_SDK/GD32VW55x_RELEASE_V1.0.2/MSDK/wpa_supplicant/wpa_supplicant\bssid_ignore.c **** 			e->timeout_secs = 120;
 626              		.loc 2 82 11 is_stmt 0
 627 0090 1147     		li	a4,4
 628 0092 6395E700 		bne	a5,a4,.L69
  83:C:/Users/stapi/OneDrive/Desktop/GD32VW553/V1_MQTT_OK/GD32VW55X_Wifi_BLE_SDK/GD32VW55x_RELEASE_V1.0.2/MSDK/wpa_supplicant/wpa_supplicant\bssid_ignore.c **** 		else if (e->count == 3)
 629              		.loc 2 83 4 is_stmt 1
  83:C:/Users/stapi/OneDrive/Desktop/GD32VW553/V1_MQTT_OK/GD32VW55X_Wifi_BLE_SDK/GD32VW55x_RELEASE_V1.0.2/MSDK/wpa_supplicant/wpa_supplicant\bssid_ignore.c **** 		else if (e->count == 3)
 630              		.loc 2 83 20 is_stmt 0
 631 0096 13078007 		li	a4,120
 632 009a 5DBF     		j	.L80
 633              	.L69:
  84:C:/Users/stapi/OneDrive/Desktop/GD32VW553/V1_MQTT_OK/GD32VW55X_Wifi_BLE_SDK/GD32VW55x_RELEASE_V1.0.2/MSDK/wpa_supplicant/wpa_supplicant\bssid_ignore.c **** 			e->timeout_secs = 60;
 634              		.loc 2 84 8 is_stmt 1
  84:C:/Users/stapi/OneDrive/Desktop/GD32VW553/V1_MQTT_OK/GD32VW55X_Wifi_BLE_SDK/GD32VW55x_RELEASE_V1.0.2/MSDK/wpa_supplicant/wpa_supplicant\bssid_ignore.c **** 			e->timeout_secs = 60;
 635              		.loc 2 84 11 is_stmt 0
 636 009c 0D47     		li	a4,3
 637 009e 6395E700 		bne	a5,a4,.L70
  85:C:/Users/stapi/OneDrive/Desktop/GD32VW553/V1_MQTT_OK/GD32VW55X_Wifi_BLE_SDK/GD32VW55x_RELEASE_V1.0.2/MSDK/wpa_supplicant/wpa_supplicant\bssid_ignore.c **** 		else
 638              		.loc 2 85 4 is_stmt 1
  85:C:/Users/stapi/OneDrive/Desktop/GD32VW553/V1_MQTT_OK/GD32VW55X_Wifi_BLE_SDK/GD32VW55x_RELEASE_V1.0.2/MSDK/wpa_supplicant/wpa_supplicant\bssid_ignore.c **** 		else
 639              		.loc 2 85 20 is_stmt 0
 640 00a2 1307C003 		li	a4,60
 641 00a6 6DB7     		j	.L80
 642              	.L70:
  87:C:/Users/stapi/OneDrive/Desktop/GD32VW553/V1_MQTT_OK/GD32VW55X_Wifi_BLE_SDK/GD32VW55x_RELEASE_V1.0.2/MSDK/wpa_supplicant/wpa_supplicant\bssid_ignore.c **** 		wpa_printf(MSG_INFO, "BSSID " MACSTR
 643              		.loc 2 87 4 is_stmt 1
  87:C:/Users/stapi/OneDrive/Desktop/GD32VW553/V1_MQTT_OK/GD32VW55X_Wifi_BLE_SDK/GD32VW55x_RELEASE_V1.0.2/MSDK/wpa_supplicant/wpa_supplicant\bssid_ignore.c **** 		wpa_printf(MSG_INFO, "BSSID " MACSTR
 644              		.loc 2 87 20 is_stmt 0
 645 00a8 2947     		li	a4,10
 646 00aa 5DB7     		j	.L80
 647              	.L65:
  94:C:/Users/stapi/OneDrive/Desktop/GD32VW553/V1_MQTT_OK/GD32VW55X_Wifi_BLE_SDK/GD32VW55x_RELEASE_V1.0.2/MSDK/wpa_supplicant/wpa_supplicant\bssid_ignore.c **** 	if (e == NULL)
 648              		.loc 2 94 2 is_stmt 1
  94:C:/Users/stapi/OneDrive/Desktop/GD32VW553/V1_MQTT_OK/GD32VW55X_Wifi_BLE_SDK/GD32VW55x_RELEASE_V1.0.2/MSDK/wpa_supplicant/wpa_supplicant\bssid_ignore.c **** 	if (e == NULL)
 649              		.loc 2 94 6 is_stmt 0
 650 00ac 7145     		li	a0,28
 651 00ae 97000000 		call	os_zalloc
 651      E7800000 
 652              	.LVL59:
 653 00b6 AA84     		mv	s1,a0
 654              	.LVL60:
  95:C:/Users/stapi/OneDrive/Desktop/GD32VW553/V1_MQTT_OK/GD32VW55X_Wifi_BLE_SDK/GD32VW55x_RELEASE_V1.0.2/MSDK/wpa_supplicant/wpa_supplicant\bssid_ignore.c **** 		return -1;
 655              		.loc 2 95 2 is_stmt 1
  95:C:/Users/stapi/OneDrive/Desktop/GD32VW553/V1_MQTT_OK/GD32VW55X_Wifi_BLE_SDK/GD32VW55x_RELEASE_V1.0.2/MSDK/wpa_supplicant/wpa_supplicant\bssid_ignore.c **** 		return -1;
 656              		.loc 2 95 5 is_stmt 0
 657 00b8 39D5     		beq	a0,zero,.L64
  97:C:/Users/stapi/OneDrive/Desktop/GD32VW553/V1_MQTT_OK/GD32VW55X_Wifi_BLE_SDK/GD32VW55x_RELEASE_V1.0.2/MSDK/wpa_supplicant/wpa_supplicant\bssid_ignore.c **** 	e->count = 1;
 658              		.loc 2 97 2 is_stmt 1
 659 00ba A285     		mv	a1,s0
 660 00bc 1946     		li	a2,6
 661 00be 1105     		addi	a0,a0,4
 662 00c0 97000000 		call	os_memcpy
 662      E7800000 
 663              	.LVL61:
  98:C:/Users/stapi/OneDrive/Desktop/GD32VW553/V1_MQTT_OK/GD32VW55X_Wifi_BLE_SDK/GD32VW55x_RELEASE_V1.0.2/MSDK/wpa_supplicant/wpa_supplicant\bssid_ignore.c **** 	e->timeout_secs = 10;
 664              		.loc 2 98 2
 100:C:/Users/stapi/OneDrive/Desktop/GD32VW553/V1_MQTT_OK/GD32VW55X_Wifi_BLE_SDK/GD32VW55x_RELEASE_V1.0.2/MSDK/wpa_supplicant/wpa_supplicant\bssid_ignore.c **** 	e->next = wpa_s->bssid_ignore;
 665              		.loc 2 100 11 is_stmt 0
 666 00c8 6247     		lw	a4,24(sp)
  98:C:/Users/stapi/OneDrive/Desktop/GD32VW553/V1_MQTT_OK/GD32VW55X_Wifi_BLE_SDK/GD32VW55x_RELEASE_V1.0.2/MSDK/wpa_supplicant/wpa_supplicant\bssid_ignore.c **** 	e->timeout_secs = 10;
 667              		.loc 2 98 11
 668 00ca 8547     		li	a5,1
 669 00cc DCC4     		sw	a5,12(s1)
  99:C:/Users/stapi/OneDrive/Desktop/GD32VW553/V1_MQTT_OK/GD32VW55X_Wifi_BLE_SDK/GD32VW55x_RELEASE_V1.0.2/MSDK/wpa_supplicant/wpa_supplicant\bssid_ignore.c **** 	e->start = now;
 670              		.loc 2 99 2 is_stmt 1
 100:C:/Users/stapi/OneDrive/Desktop/GD32VW553/V1_MQTT_OK/GD32VW55X_Wifi_BLE_SDK/GD32VW55x_RELEASE_V1.0.2/MSDK/wpa_supplicant/wpa_supplicant\bssid_ignore.c **** 	e->next = wpa_s->bssid_ignore;
 671              		.loc 2 100 11 is_stmt 0
 672 00ce 98C8     		sw	a4,16(s1)
 673 00d0 7247     		lw	a4,28(sp)
  99:C:/Users/stapi/OneDrive/Desktop/GD32VW553/V1_MQTT_OK/GD32VW55X_Wifi_BLE_SDK/GD32VW55x_RELEASE_V1.0.2/MSDK/wpa_supplicant/wpa_supplicant\bssid_ignore.c **** 	e->start = now;
 674              		.loc 2 99 18
 675 00d2 A947     		li	a5,10
 676 00d4 9CCC     		sw	a5,24(s1)
 100:C:/Users/stapi/OneDrive/Desktop/GD32VW553/V1_MQTT_OK/GD32VW55X_Wifi_BLE_SDK/GD32VW55x_RELEASE_V1.0.2/MSDK/wpa_supplicant/wpa_supplicant\bssid_ignore.c **** 	e->next = wpa_s->bssid_ignore;
 677              		.loc 2 100 2 is_stmt 1
 100:C:/Users/stapi/OneDrive/Desktop/GD32VW553/V1_MQTT_OK/GD32VW55X_Wifi_BLE_SDK/GD32VW55x_RELEASE_V1.0.2/MSDK/wpa_supplicant/wpa_supplicant\bssid_ignore.c **** 	e->next = wpa_s->bssid_ignore;
 678              		.loc 2 100 11 is_stmt 0
 679 00d6 D8C8     		sw	a4,20(s1)
 101:C:/Users/stapi/OneDrive/Desktop/GD32VW553/V1_MQTT_OK/GD32VW55X_Wifi_BLE_SDK/GD32VW55x_RELEASE_V1.0.2/MSDK/wpa_supplicant/wpa_supplicant\bssid_ignore.c **** 	wpa_s->bssid_ignore = e;
 680              		.loc 2 101 2 is_stmt 1
 101:C:/Users/stapi/OneDrive/Desktop/GD32VW553/V1_MQTT_OK/GD32VW55X_Wifi_BLE_SDK/GD32VW55x_RELEASE_V1.0.2/MSDK/wpa_supplicant/wpa_supplicant\bssid_ignore.c **** 	wpa_s->bssid_ignore = e;
 681              		.loc 2 101 10 is_stmt 0
 682 00d8 03274918 		lw	a4,388(s2)
 103:C:/Users/stapi/OneDrive/Desktop/GD32VW553/V1_MQTT_OK/GD32VW55X_Wifi_BLE_SDK/GD32VW55x_RELEASE_V1.0.2/MSDK/wpa_supplicant/wpa_supplicant\bssid_ignore.c **** 		   " into ignore list, ignoring for %d seconds",
 683              		.loc 2 103 2
 684 00dc B7050000 		lui	a1,%hi(.LC4)
 685 00e0 93850500 		addi	a1,a1,%lo(.LC4)
 101:C:/Users/stapi/OneDrive/Desktop/GD32VW553/V1_MQTT_OK/GD32VW55X_Wifi_BLE_SDK/GD32VW55x_RELEASE_V1.0.2/MSDK/wpa_supplicant/wpa_supplicant\bssid_ignore.c **** 	wpa_s->bssid_ignore = e;
 686              		.loc 2 101 10
 687 00e4 98C0     		sw	a4,0(s1)
 102:C:/Users/stapi/OneDrive/Desktop/GD32VW553/V1_MQTT_OK/GD32VW55X_Wifi_BLE_SDK/GD32VW55x_RELEASE_V1.0.2/MSDK/wpa_supplicant/wpa_supplicant\bssid_ignore.c **** 	wpa_printf(MSG_DEBUG, "Added BSSID " MACSTR
 688              		.loc 2 102 2 is_stmt 1
 102:C:/Users/stapi/OneDrive/Desktop/GD32VW553/V1_MQTT_OK/GD32VW55X_Wifi_BLE_SDK/GD32VW55x_RELEASE_V1.0.2/MSDK/wpa_supplicant/wpa_supplicant\bssid_ignore.c **** 	wpa_printf(MSG_DEBUG, "Added BSSID " MACSTR
 689              		.loc 2 102 22 is_stmt 0
 690 00e6 23229918 		sw	s1,388(s2)
 103:C:/Users/stapi/OneDrive/Desktop/GD32VW553/V1_MQTT_OK/GD32VW55X_Wifi_BLE_SDK/GD32VW55x_RELEASE_V1.0.2/MSDK/wpa_supplicant/wpa_supplicant\bssid_ignore.c **** 		   " into ignore list, ignoring for %d seconds",
 691              		.loc 2 103 2 is_stmt 1
 692 00ea 3EC0     		sw	a5,0(sp)
 693 00ec 83485400 		lbu	a7,5(s0)
 694 00f0 03484400 		lbu	a6,4(s0)
 695 00f4 83473400 		lbu	a5,3(s0)
 696 00f8 03472400 		lbu	a4,2(s0)
 697 00fc 83461400 		lbu	a3,1(s0)
 698 0100 03460400 		lbu	a2,0(s0)
 699 0104 0945     		li	a0,2
 700 0106 97000000 		call	wpa_printf
 700      E7800000 
 701              	.LVL62:
 702 010e 95BF     		j	.L81
 703              		.cfi_endproc
 704              	.LFE137:
 706              		.section	.text.wpa_bssid_ignore_is_listed,"ax",@progbits
 707              		.align	1
 708              		.globl	wpa_bssid_ignore_is_listed
 710              	wpa_bssid_ignore_is_listed:
 711              	.LFB139:
 151:C:/Users/stapi/OneDrive/Desktop/GD32VW553/V1_MQTT_OK/GD32VW55X_Wifi_BLE_SDK/GD32VW55x_RELEASE_V1.0.2/MSDK/wpa_supplicant/wpa_supplicant\bssid_ignore.c **** 	struct wpa_bssid_ignore *e;
 712              		.loc 2 151 1
 713              		.cfi_startproc
 714              	.LVL63:
 715 0000 17030000 		call	t0,__riscv_save_1
 715      E7020300 
 716              		.cfi_offset 8, -8
 717              		.cfi_offset 1, -4
 718              		.cfi_def_cfa_offset 16
 152:C:/Users/stapi/OneDrive/Desktop/GD32VW553/V1_MQTT_OK/GD32VW55X_Wifi_BLE_SDK/GD32VW55x_RELEASE_V1.0.2/MSDK/wpa_supplicant/wpa_supplicant\bssid_ignore.c **** 	struct os_reltime now;
 719              		.loc 2 152 2
 153:C:/Users/stapi/OneDrive/Desktop/GD32VW553/V1_MQTT_OK/GD32VW55X_Wifi_BLE_SDK/GD32VW55x_RELEASE_V1.0.2/MSDK/wpa_supplicant/wpa_supplicant\bssid_ignore.c **** 
 720              		.loc 2 153 2
 155:C:/Users/stapi/OneDrive/Desktop/GD32VW553/V1_MQTT_OK/GD32VW55X_Wifi_BLE_SDK/GD32VW55x_RELEASE_V1.0.2/MSDK/wpa_supplicant/wpa_supplicant\bssid_ignore.c **** 	if (!e)
 721              		.loc 2 155 2
 151:C:/Users/stapi/OneDrive/Desktop/GD32VW553/V1_MQTT_OK/GD32VW55X_Wifi_BLE_SDK/GD32VW55x_RELEASE_V1.0.2/MSDK/wpa_supplicant/wpa_supplicant\bssid_ignore.c **** 	struct wpa_bssid_ignore *e;
 722              		.loc 2 151 1 is_stmt 0
 723 0008 4111     		addi	sp,sp,-16
 724              		.cfi_def_cfa_offset 32
 155:C:/Users/stapi/OneDrive/Desktop/GD32VW553/V1_MQTT_OK/GD32VW55X_Wifi_BLE_SDK/GD32VW55x_RELEASE_V1.0.2/MSDK/wpa_supplicant/wpa_supplicant\bssid_ignore.c **** 	if (!e)
 725              		.loc 2 155 6
 726 000a 97000000 		call	wpa_bssid_ignore_get
 726      E7800000 
 727              	.LVL64:
 156:C:/Users/stapi/OneDrive/Desktop/GD32VW553/V1_MQTT_OK/GD32VW55X_Wifi_BLE_SDK/GD32VW55x_RELEASE_V1.0.2/MSDK/wpa_supplicant/wpa_supplicant\bssid_ignore.c **** 		return 0;
 728              		.loc 2 156 2 is_stmt 1
 156:C:/Users/stapi/OneDrive/Desktop/GD32VW553/V1_MQTT_OK/GD32VW55X_Wifi_BLE_SDK/GD32VW55x_RELEASE_V1.0.2/MSDK/wpa_supplicant/wpa_supplicant\bssid_ignore.c **** 		return 0;
 729              		.loc 2 156 5 is_stmt 0
 730 0012 19E5     		bne	a0,zero,.L83
 731              	.LVL65:
 732              	.L85:
 157:C:/Users/stapi/OneDrive/Desktop/GD32VW553/V1_MQTT_OK/GD32VW55X_Wifi_BLE_SDK/GD32VW55x_RELEASE_V1.0.2/MSDK/wpa_supplicant/wpa_supplicant\bssid_ignore.c **** 	os_get_reltime(&now);
 733              		.loc 2 157 10
 734 0014 0145     		li	a0,0
 735              	.L82:
 162:C:/Users/stapi/OneDrive/Desktop/GD32VW553/V1_MQTT_OK/GD32VW55X_Wifi_BLE_SDK/GD32VW55x_RELEASE_V1.0.2/MSDK/wpa_supplicant/wpa_supplicant\bssid_ignore.c **** 
 736              		.loc 2 162 1
 737 0016 4101     		addi	sp,sp,16
 738              		.cfi_remember_state
 739              		.cfi_def_cfa_offset 0
 740 0018 17030000 		tail	__riscv_restore_1
 740      67000300 
 741              		.cfi_restore 8
 742              		.cfi_restore 1
 743              		.cfi_def_cfa_offset -16
 744              	.LVL66:
 745              	.L83:
 746              		.cfi_restore_state
 747 0020 2A84     		mv	s0,a0
 158:C:/Users/stapi/OneDrive/Desktop/GD32VW553/V1_MQTT_OK/GD32VW55X_Wifi_BLE_SDK/GD32VW55x_RELEASE_V1.0.2/MSDK/wpa_supplicant/wpa_supplicant\bssid_ignore.c **** 	if (os_reltime_expired(&now, &e->start, e->timeout_secs))
 748              		.loc 2 158 2 is_stmt 1
 749 0022 2800     		addi	a0,sp,8
 750              	.LVL67:
 751 0024 97000000 		call	os_get_reltime
 751      E7800000 
 752              	.LVL68:
 159:C:/Users/stapi/OneDrive/Desktop/GD32VW553/V1_MQTT_OK/GD32VW55X_Wifi_BLE_SDK/GD32VW55x_RELEASE_V1.0.2/MSDK/wpa_supplicant/wpa_supplicant\bssid_ignore.c **** 		return 0;
 753              		.loc 2 159 2
 159:C:/Users/stapi/OneDrive/Desktop/GD32VW553/V1_MQTT_OK/GD32VW55X_Wifi_BLE_SDK/GD32VW55x_RELEASE_V1.0.2/MSDK/wpa_supplicant/wpa_supplicant\bssid_ignore.c **** 		return 0;
 754              		.loc 2 159 6 is_stmt 0
 755 002c 104C     		lw	a2,24(s0)
 756 002e 93050401 		addi	a1,s0,16
 757 0032 2800     		addi	a0,sp,8
 758 0034 97000000 		call	os_reltime_expired
 758      E7800000 
 759              	.LVL69:
 159:C:/Users/stapi/OneDrive/Desktop/GD32VW553/V1_MQTT_OK/GD32VW55X_Wifi_BLE_SDK/GD32VW55x_RELEASE_V1.0.2/MSDK/wpa_supplicant/wpa_supplicant\bssid_ignore.c **** 		return 0;
 760              		.loc 2 159 5
 761 003c 61FD     		bne	a0,zero,.L85
 161:C:/Users/stapi/OneDrive/Desktop/GD32VW553/V1_MQTT_OK/GD32VW55X_Wifi_BLE_SDK/GD32VW55x_RELEASE_V1.0.2/MSDK/wpa_supplicant/wpa_supplicant\bssid_ignore.c **** }
 762              		.loc 2 161 2 is_stmt 1
 161:C:/Users/stapi/OneDrive/Desktop/GD32VW553/V1_MQTT_OK/GD32VW55X_Wifi_BLE_SDK/GD32VW55x_RELEASE_V1.0.2/MSDK/wpa_supplicant/wpa_supplicant\bssid_ignore.c **** }
 763              		.loc 2 161 10 is_stmt 0
 764 003e 4844     		lw	a0,12(s0)
 765 0040 D9BF     		j	.L82
 766              		.cfi_endproc
 767              	.LFE139:
 769              		.text
 770              	.Letext0:
 771              		.file 3 "c:\\users\\stapi\\onedrive\\desktop\\gd32vw553\\embeddedbuilder_v1.4.7.26843\\tools\\nucl
 772              		.file 4 "c:\\users\\stapi\\onedrive\\desktop\\gd32vw553\\embeddedbuilder_v1.4.7.26843\\tools\\nucl
 773              		.file 5 "c:\\users\\stapi\\onedrive\\desktop\\gd32vw553\\embeddedbuilder_v1.4.7.26843\\tools\\nucl
 774              		.file 6 "..\\..\\..\\..\\wpa_supplicant\\src\\utils/common.h"
 775              		.file 7 "..\\..\\..\\..\\wpa_supplicant\\src\\utils/wpabuf.h"
 776              		.file 8 "..\\..\\..\\..\\wpa_supplicant\\src/utils/list.h"
 777              		.file 9 "..\\..\\..\\..\\wpa_supplicant\\src/common/defs.h"
 778              		.file 10 "..\\..\\..\\..\\wpa_supplicant\\src/common/sae.h"
 779              		.file 11 "C:/Users/stapi/OneDrive/Desktop/GD32VW553/V1_MQTT_OK/GD32VW55X_Wifi_BLE_SDK/GD32VW55x_RE
 780              		.file 12 "..\\..\\..\\..\\wpa_supplicant\\src/common/ieee802_11_defs.h"
 781              		.file 13 "..\\..\\..\\..\\wpa_supplicant\\src/drivers/driver.h"
 782              		.file 14 "..\\..\\..\\..\\wpa_supplicant\\src\\utils/wpa_debug.h"
 783              		.file 15 "C:/Users/stapi/OneDrive/Desktop/GD32VW553/V1_MQTT_OK/GD32VW55X_Wifi_BLE_SDK/GD32VW55x_RE
 784              		.file 16 "C:/Users/stapi/OneDrive/Desktop/GD32VW553/V1_MQTT_OK/GD32VW55X_Wifi_BLE_SDK/GD32VW55x_RE