   1              		.file	"bssid_ignore.c"
   2              		.option nopic
   3              		.attribute arch, "rv32i2p0_m2p0_a2p0_f2p0_c2p0_b_p0p94"
   4              		.attribute unaligned_access, 0
   5              		.attribute stack_align, 16
   6              		.text
   7              	.Ltext0:
   8              		.cfi_sections	.debug_frame
   9              		.section	.text.os_reltime_expired,"ax",@progbits
  10              		.align	1
  12              	os_reltime_expired:
  13              	.LFB20:
  14              		.file 1 "..\\..\\..\\..\\wpa_supplicant\\src\\utils/os.h"
   1:..\..\..\..\wpa_supplicant\src\utils/os.h **** /*
   2:..\..\..\..\wpa_supplicant\src\utils/os.h ****  * OS specific functions
   3:..\..\..\..\wpa_supplicant\src\utils/os.h ****  * Copyright (c) 2005-2009, Jouni Malinen <j@w1.fi>
   4:..\..\..\..\wpa_supplicant\src\utils/os.h ****  *
   5:..\..\..\..\wpa_supplicant\src\utils/os.h ****  * This software may be distributed under the terms of the BSD license.
   6:..\..\..\..\wpa_supplicant\src\utils/os.h ****  * See README for more details.
   7:..\..\..\..\wpa_supplicant\src\utils/os.h ****  */
   8:..\..\..\..\wpa_supplicant\src\utils/os.h **** 
   9:..\..\..\..\wpa_supplicant\src\utils/os.h **** #ifndef OS_H
  10:..\..\..\..\wpa_supplicant\src\utils/os.h **** #define OS_H
  11:..\..\..\..\wpa_supplicant\src\utils/os.h **** 
  12:..\..\..\..\wpa_supplicant\src\utils/os.h **** typedef long os_time_t;
  13:..\..\..\..\wpa_supplicant\src\utils/os.h **** 
  14:..\..\..\..\wpa_supplicant\src\utils/os.h **** /**
  15:..\..\..\..\wpa_supplicant\src\utils/os.h ****  * os_sleep - Sleep (sec, usec)
  16:..\..\..\..\wpa_supplicant\src\utils/os.h ****  * @sec: Number of seconds to sleep
  17:..\..\..\..\wpa_supplicant\src\utils/os.h ****  * @usec: Number of microseconds to sleep
  18:..\..\..\..\wpa_supplicant\src\utils/os.h ****  */
  19:..\..\..\..\wpa_supplicant\src\utils/os.h **** void os_sleep(os_time_t sec, os_time_t usec);
  20:..\..\..\..\wpa_supplicant\src\utils/os.h **** 
  21:..\..\..\..\wpa_supplicant\src\utils/os.h **** struct os_time {
  22:..\..\..\..\wpa_supplicant\src\utils/os.h **** 	os_time_t sec;
  23:..\..\..\..\wpa_supplicant\src\utils/os.h **** 	os_time_t usec;
  24:..\..\..\..\wpa_supplicant\src\utils/os.h **** };
  25:..\..\..\..\wpa_supplicant\src\utils/os.h **** 
  26:..\..\..\..\wpa_supplicant\src\utils/os.h **** struct os_reltime {
  27:..\..\..\..\wpa_supplicant\src\utils/os.h **** 	os_time_t sec;
  28:..\..\..\..\wpa_supplicant\src\utils/os.h **** 	os_time_t usec;
  29:..\..\..\..\wpa_supplicant\src\utils/os.h **** };
  30:..\..\..\..\wpa_supplicant\src\utils/os.h **** 
  31:..\..\..\..\wpa_supplicant\src\utils/os.h **** /**
  32:..\..\..\..\wpa_supplicant\src\utils/os.h ****  * os_get_time - Get current time (sec, usec)
  33:..\..\..\..\wpa_supplicant\src\utils/os.h ****  * @t: Pointer to buffer for the time
  34:..\..\..\..\wpa_supplicant\src\utils/os.h ****  * Returns: 0 on success, -1 on failure
  35:..\..\..\..\wpa_supplicant\src\utils/os.h ****  */
  36:..\..\..\..\wpa_supplicant\src\utils/os.h **** int os_get_time(struct os_time *t);
  37:..\..\..\..\wpa_supplicant\src\utils/os.h **** 
  38:..\..\..\..\wpa_supplicant\src\utils/os.h **** /**
  39:..\..\..\..\wpa_supplicant\src\utils/os.h ****  * os_get_reltime - Get relative time (sec, usec)
  40:..\..\..\..\wpa_supplicant\src\utils/os.h ****  * @t: Pointer to buffer for the time
  41:..\..\..\..\wpa_supplicant\src\utils/os.h ****  * Returns: 0 on success, -1 on failure
  42:..\..\..\..\wpa_supplicant\src\utils/os.h ****  */
  43:..\..\..\..\wpa_supplicant\src\utils/os.h **** int os_get_reltime(struct os_reltime *t);
  44:..\..\..\..\wpa_supplicant\src\utils/os.h **** 
  45:..\..\..\..\wpa_supplicant\src\utils/os.h **** 
  46:..\..\..\..\wpa_supplicant\src\utils/os.h **** /* Helpers for handling struct os_time */
  47:..\..\..\..\wpa_supplicant\src\utils/os.h **** 
  48:..\..\..\..\wpa_supplicant\src\utils/os.h **** static inline int os_time_before(struct os_time *a, struct os_time *b)
  49:..\..\..\..\wpa_supplicant\src\utils/os.h **** {
  50:..\..\..\..\wpa_supplicant\src\utils/os.h **** 	return (a->sec < b->sec) ||
  51:..\..\..\..\wpa_supplicant\src\utils/os.h **** 	       (a->sec == b->sec && a->usec < b->usec);
  52:..\..\..\..\wpa_supplicant\src\utils/os.h **** }
  53:..\..\..\..\wpa_supplicant\src\utils/os.h **** 
  54:..\..\..\..\wpa_supplicant\src\utils/os.h **** 
  55:..\..\..\..\wpa_supplicant\src\utils/os.h **** static inline void os_time_sub(struct os_time *a, struct os_time *b,
  56:..\..\..\..\wpa_supplicant\src\utils/os.h **** 			       struct os_time *res)
  57:..\..\..\..\wpa_supplicant\src\utils/os.h **** {
  58:..\..\..\..\wpa_supplicant\src\utils/os.h **** 	res->sec = a->sec - b->sec;
  59:..\..\..\..\wpa_supplicant\src\utils/os.h **** 	res->usec = a->usec - b->usec;
  60:..\..\..\..\wpa_supplicant\src\utils/os.h **** 	if (res->usec < 0) {
  61:..\..\..\..\wpa_supplicant\src\utils/os.h **** 		res->sec--;
  62:..\..\..\..\wpa_supplicant\src\utils/os.h **** 		res->usec += 1000000;
  63:..\..\..\..\wpa_supplicant\src\utils/os.h **** 	}
  64:..\..\..\..\wpa_supplicant\src\utils/os.h **** }
  65:..\..\..\..\wpa_supplicant\src\utils/os.h **** 
  66:..\..\..\..\wpa_supplicant\src\utils/os.h **** 
  67:..\..\..\..\wpa_supplicant\src\utils/os.h **** /* Helpers for handling struct os_reltime */
  68:..\..\..\..\wpa_supplicant\src\utils/os.h **** 
  69:..\..\..\..\wpa_supplicant\src\utils/os.h **** static inline int os_reltime_before(struct os_reltime *a,
  70:..\..\..\..\wpa_supplicant\src\utils/os.h **** 				    struct os_reltime *b)
  71:..\..\..\..\wpa_supplicant\src\utils/os.h **** {
  72:..\..\..\..\wpa_supplicant\src\utils/os.h **** 	return (a->sec < b->sec) ||
  73:..\..\..\..\wpa_supplicant\src\utils/os.h **** 	       (a->sec == b->sec && a->usec < b->usec);
  74:..\..\..\..\wpa_supplicant\src\utils/os.h **** }
  75:..\..\..\..\wpa_supplicant\src\utils/os.h **** 
  76:..\..\..\..\wpa_supplicant\src\utils/os.h **** 
  77:..\..\..\..\wpa_supplicant\src\utils/os.h **** static inline void os_reltime_sub(struct os_reltime *a, struct os_reltime *b,
  78:..\..\..\..\wpa_supplicant\src\utils/os.h **** 				  struct os_reltime *res)
  79:..\..\..\..\wpa_supplicant\src\utils/os.h **** {
  80:..\..\..\..\wpa_supplicant\src\utils/os.h **** 	res->sec = a->sec - b->sec;
  81:..\..\..\..\wpa_supplicant\src\utils/os.h **** 	res->usec = a->usec - b->usec;
  82:..\..\..\..\wpa_supplicant\src\utils/os.h **** 	if (res->usec < 0) {
  83:..\..\..\..\wpa_supplicant\src\utils/os.h **** 		res->sec--;
  84:..\..\..\..\wpa_supplicant\src\utils/os.h **** 		res->usec += 1000000;
  85:..\..\..\..\wpa_supplicant\src\utils/os.h **** 	}
  86:..\..\..\..\wpa_supplicant\src\utils/os.h **** }
  87:..\..\..\..\wpa_supplicant\src\utils/os.h **** 
  88:..\..\..\..\wpa_supplicant\src\utils/os.h **** 
  89:..\..\..\..\wpa_supplicant\src\utils/os.h **** static inline void os_reltime_age(struct os_reltime *start,
  90:..\..\..\..\wpa_supplicant\src\utils/os.h **** 				  struct os_reltime *age)
  91:..\..\..\..\wpa_supplicant\src\utils/os.h **** {
  92:..\..\..\..\wpa_supplicant\src\utils/os.h **** 	struct os_reltime now;
  93:..\..\..\..\wpa_supplicant\src\utils/os.h **** 
  94:..\..\..\..\wpa_supplicant\src\utils/os.h **** 	os_get_reltime(&now);
  95:..\..\..\..\wpa_supplicant\src\utils/os.h **** 	os_reltime_sub(&now, start, age);
  96:..\..\..\..\wpa_supplicant\src\utils/os.h **** }
  97:..\..\..\..\wpa_supplicant\src\utils/os.h **** 
  98:..\..\..\..\wpa_supplicant\src\utils/os.h **** 
  99:..\..\..\..\wpa_supplicant\src\utils/os.h **** static inline int os_reltime_expired(struct os_reltime *now,
 100:..\..\..\..\wpa_supplicant\src\utils/os.h **** 				     struct os_reltime *ts,
 101:..\..\..\..\wpa_supplicant\src\utils/os.h **** 				     os_time_t timeout_secs)
 102:..\..\..\..\wpa_supplicant\src\utils/os.h **** {
  15              		.loc 1 102 1
  16              		.cfi_startproc
  17              	.LVL0:
 103:..\..\..\..\wpa_supplicant\src\utils/os.h **** 	struct os_reltime age;
  18              		.loc 1 103 2
 104:..\..\..\..\wpa_supplicant\src\utils/os.h **** 
 105:..\..\..\..\wpa_supplicant\src\utils/os.h **** 	os_reltime_sub(now, ts, &age);
  19              		.loc 1 105 2
  20              	.LBB5:
  21              	.LBB6:
  80:..\..\..\..\wpa_supplicant\src\utils/os.h **** 	res->usec = a->usec - b->usec;
  22              		.loc 1 80 2
  80:..\..\..\..\wpa_supplicant\src\utils/os.h **** 	res->usec = a->usec - b->usec;
  23              		.loc 1 80 20 is_stmt 0
  24 0000 9C41     		lw	a5,0(a1)
  25 0002 1841     		lw	a4,0(a0)
  81:..\..\..\..\wpa_supplicant\src\utils/os.h **** 	if (res->usec < 0) {
  26              		.loc 1 81 22
  27 0004 D441     		lw	a3,4(a1)
  80:..\..\..\..\wpa_supplicant\src\utils/os.h **** 	res->usec = a->usec - b->usec;
  28              		.loc 1 80 20
  29 0006 1D8F     		sub	a4,a4,a5
  30              	.LVL1:
  81:..\..\..\..\wpa_supplicant\src\utils/os.h **** 	if (res->usec < 0) {
  31              		.loc 1 81 2 is_stmt 1
  81:..\..\..\..\wpa_supplicant\src\utils/os.h **** 	if (res->usec < 0) {
  32              		.loc 1 81 22 is_stmt 0
  33 0008 5C41     		lw	a5,4(a0)
  34 000a 958F     		sub	a5,a5,a3
  35              	.LVL2:
  82:..\..\..\..\wpa_supplicant\src\utils/os.h **** 		res->sec--;
  36              		.loc 1 82 2 is_stmt 1
  82:..\..\..\..\wpa_supplicant\src\utils/os.h **** 		res->sec--;
  37              		.loc 1 82 5 is_stmt 0
  38 000c 63D80700 		bge	a5,zero,.L2
  83:..\..\..\..\wpa_supplicant\src\utils/os.h **** 		res->usec += 1000000;
  39              		.loc 1 83 3 is_stmt 1
  84:..\..\..\..\wpa_supplicant\src\utils/os.h **** 	}
  40              		.loc 1 84 13 is_stmt 0
  41 0010 B7460F00 		li	a3,999424
  42 0014 93860624 		addi	a3,a3,576
  83:..\..\..\..\wpa_supplicant\src\utils/os.h **** 		res->usec += 1000000;
  43              		.loc 1 83 11
  44 0018 7D17     		addi	a4,a4,-1
  45              	.LVL3:
  84:..\..\..\..\wpa_supplicant\src\utils/os.h **** 	}
  46              		.loc 1 84 3 is_stmt 1
  84:..\..\..\..\wpa_supplicant\src\utils/os.h **** 	}
  47              		.loc 1 84 13 is_stmt 0
  48 001a B697     		add	a5,a5,a3
  49              	.LVL4:
  50              	.L2:
  51              	.LBE6:
  52              	.LBE5:
 106:..\..\..\..\wpa_supplicant\src\utils/os.h **** 	return (age.sec > timeout_secs) ||
  53              		.loc 1 106 2 is_stmt 1
  54              		.loc 1 106 34 is_stmt 0
  55 001c 0545     		li	a0,1
  56              	.LVL5:
  57 001e 6347E600 		blt	a2,a4,.L1
  58              		.loc 1 106 34 discriminator 2
  59 0022 0145     		li	a0,0
  60 0024 6314E600 		bne	a2,a4,.L1
 107:..\..\..\..\wpa_supplicant\src\utils/os.h **** 	       (age.sec == timeout_secs && age.usec > 0);
  61              		.loc 1 107 34
  62 0028 3325F000 		sgt	a0,a5,zero
  63              	.L1:
 108:..\..\..\..\wpa_supplicant\src\utils/os.h **** }
  64              		.loc 1 108 1
  65 002c 8280     		ret
  66              		.cfi_endproc
  67              	.LFE20:
  69              		.section	.rodata.wpa_bssid_ignore_del.str1.4,"aMS",@progbits,1
  70              		.align	2
  71              	.LC0:
  72 0000 52656D6F 		.string	"Removed BSSID %02x:%02x:%02x:%02x:%02x:%02x from ignore list"
  72      76656420 
  72      42535349 
  72      44202530 
  72      32783A25 
  73              		.section	.text.wpa_bssid_ignore_del,"ax",@progbits
  74              		.align	1
  75              		.globl	wpa_bssid_ignore_del
  77              	wpa_bssid_ignore_del:
  78              	.LFB138:
  79              		.file 2 "C:/Users/stapi/OneDrive/Desktop/GD32VW553/V1_MQTT_OK/GD32VW55X_Wifi_BLE_SDK/GD32VW55x_REL
   1:C:/Users/stapi/OneDrive/Desktop/GD32VW553/V1_MQTT_OK/GD32VW55X_Wifi_BLE_SDK/GD32VW55x_RELEASE_V1.0.2/MSDK/wpa_supplicant/wpa_supplicant\bssid_ignore.c **** /*
   2:C:/Users/stapi/OneDrive/Desktop/GD32VW553/V1_MQTT_OK/GD32VW55X_Wifi_BLE_SDK/GD32VW55x_RELEASE_V1.0.2/MSDK/wpa_supplicant/wpa_supplicant\bssid_ignore.c ****  * wpa_supplicant - List of temporarily ignored BSSIDs
   3:C:/Users/stapi/OneDrive/Desktop/GD32VW553/V1_MQTT_OK/GD32VW55X_Wifi_BLE_SDK/GD32VW55x_RELEASE_V1.0.2/MSDK/wpa_supplicant/wpa_supplicant\bssid_ignore.c ****  * Copyright (c) 2003-2021, Jouni Malinen <j@w1.fi>
   4:C:/Users/stapi/OneDrive/Desktop/GD32VW553/V1_MQTT_OK/GD32VW55X_Wifi_BLE_SDK/GD32VW55x_RELEASE_V1.0.2/MSDK/wpa_supplicant/wpa_supplicant\bssid_ignore.c ****  *
   5:C:/Users/stapi/OneDrive/Desktop/GD32VW553/V1_MQTT_OK/GD32VW55X_Wifi_BLE_SDK/GD32VW55x_RELEASE_V1.0.2/MSDK/wpa_supplicant/wpa_supplicant\bssid_ignore.c ****  * This software may be distributed under the terms of the BSD license.
   6:C:/Users/stapi/OneDrive/Desktop/GD32VW553/V1_MQTT_OK/GD32VW55X_Wifi_BLE_SDK/GD32VW55x_RELEASE_V1.0.2/MSDK/wpa_supplicant/wpa_supplicant\bssid_ignore.c ****  * See README for more details.
   7:C:/Users/stapi/OneDrive/Desktop/GD32VW553/V1_MQTT_OK/GD32VW55X_Wifi_BLE_SDK/GD32VW55x_RELEASE_V1.0.2/MSDK/wpa_supplicant/wpa_supplicant\bssid_ignore.c ****  */
   8:C:/Users/stapi/OneDrive/Desktop/GD32VW553/V1_MQTT_OK/GD32VW55X_Wifi_BLE_SDK/GD32VW55x_RELEASE_V1.0.2/MSDK/wpa_supplicant/wpa_supplicant\bssid_ignore.c **** 
   9:C:/Users/stapi/OneDrive/Desktop/GD32VW553/V1_MQTT_OK/GD32VW55X_Wifi_BLE_SDK/GD32VW55x_RELEASE_V1.0.2/MSDK/wpa_supplicant/wpa_supplicant\bssid_ignore.c **** #include "includes.h"
  10:C:/Users/stapi/OneDrive/Desktop/GD32VW553/V1_MQTT_OK/GD32VW55X_Wifi_BLE_SDK/GD32VW55x_RELEASE_V1.0.2/MSDK/wpa_supplicant/wpa_supplicant\bssid_ignore.c **** 
  11:C:/Users/stapi/OneDrive/Desktop/GD32VW553/V1_MQTT_OK/GD32VW55X_Wifi_BLE_SDK/GD32VW55x_RELEASE_V1.0.2/MSDK/wpa_supplicant/wpa_supplicant\bssid_ignore.c **** #include "common.h"
  12:C:/Users/stapi/OneDrive/Desktop/GD32VW553/V1_MQTT_OK/GD32VW55X_Wifi_BLE_SDK/GD32VW55x_RELEASE_V1.0.2/MSDK/wpa_supplicant/wpa_supplicant\bssid_ignore.c **** #include "wpa_supplicant_i.h"
  13:C:/Users/stapi/OneDrive/Desktop/GD32VW553/V1_MQTT_OK/GD32VW55X_Wifi_BLE_SDK/GD32VW55x_RELEASE_V1.0.2/MSDK/wpa_supplicant/wpa_supplicant\bssid_ignore.c **** #include "bssid_ignore.h"
  14:C:/Users/stapi/OneDrive/Desktop/GD32VW553/V1_MQTT_OK/GD32VW55X_Wifi_BLE_SDK/GD32VW55x_RELEASE_V1.0.2/MSDK/wpa_supplicant/wpa_supplicant\bssid_ignore.c **** 
  15:C:/Users/stapi/OneDrive/Desktop/GD32VW553/V1_MQTT_OK/GD32VW55X_Wifi_BLE_SDK/GD32VW55x_RELEASE_V1.0.2/MSDK/wpa_supplicant/wpa_supplicant\bssid_ignore.c **** /**
  16:C:/Users/stapi/OneDrive/Desktop/GD32VW553/V1_MQTT_OK/GD32VW55X_Wifi_BLE_SDK/GD32VW55x_RELEASE_V1.0.2/MSDK/wpa_supplicant/wpa_supplicant\bssid_ignore.c ****  * wpa_bssid_ignore_get - Get the ignore list entry for a BSSID
  17:C:/Users/stapi/OneDrive/Desktop/GD32VW553/V1_MQTT_OK/GD32VW55X_Wifi_BLE_SDK/GD32VW55x_RELEASE_V1.0.2/MSDK/wpa_supplicant/wpa_supplicant\bssid_ignore.c ****  * @wpa_s: Pointer to wpa_supplicant data
  18:C:/Users/stapi/OneDrive/Desktop/GD32VW553/V1_MQTT_OK/GD32VW55X_Wifi_BLE_SDK/GD32VW55x_RELEASE_V1.0.2/MSDK/wpa_supplicant/wpa_supplicant\bssid_ignore.c ****  * @bssid: BSSID
  19:C:/Users/stapi/OneDrive/Desktop/GD32VW553/V1_MQTT_OK/GD32VW55X_Wifi_BLE_SDK/GD32VW55x_RELEASE_V1.0.2/MSDK/wpa_supplicant/wpa_supplicant\bssid_ignore.c ****  * Returns: Matching entry for the BSSID or %NULL if not found
  20:C:/Users/stapi/OneDrive/Desktop/GD32VW553/V1_MQTT_OK/GD32VW55X_Wifi_BLE_SDK/GD32VW55x_RELEASE_V1.0.2/MSDK/wpa_supplicant/wpa_supplicant\bssid_ignore.c ****  */
  21:C:/Users/stapi/OneDrive/Desktop/GD32VW553/V1_MQTT_OK/GD32VW55X_Wifi_BLE_SDK/GD32VW55x_RELEASE_V1.0.2/MSDK/wpa_supplicant/wpa_supplicant\bssid_ignore.c **** struct wpa_bssid_ignore * wpa_bssid_ignore_get(struct wpa_supplicant *wpa_s,
  22:C:/Users/stapi/OneDrive/Desktop/GD32VW553/V1_MQTT_OK/GD32VW55X_Wifi_BLE_SDK/GD32VW55x_RELEASE_V1.0.2/MSDK/wpa_supplicant/wpa_supplicant\bssid_ignore.c **** 					       const u8 *bssid)
  23:C:/Users/stapi/OneDrive/Desktop/GD32VW553/V1_MQTT_OK/GD32VW55X_Wifi_BLE_SDK/GD32VW55x_RELEASE_V1.0.2/MSDK/wpa_supplicant/wpa_supplicant\bssid_ignore.c **** {
  24:C:/Users/stapi/OneDrive/Desktop/GD32VW553/V1_MQTT_OK/GD32VW55X_Wifi_BLE_SDK/GD32VW55x_RELEASE_V1.0.2/MSDK/wpa_supplicant/wpa_supplicant\bssid_ignore.c **** 	struct wpa_bssid_ignore *e;
  25:C:/Users/stapi/OneDrive/Desktop/GD32VW553/V1_MQTT_OK/GD32VW55X_Wifi_BLE_SDK/GD32VW55x_RELEASE_V1.0.2/MSDK/wpa_supplicant/wpa_supplicant\bssid_ignore.c **** 
  26:C:/Users/stapi/OneDrive/Desktop/GD32VW553/V1_MQTT_OK/GD32VW55X_Wifi_BLE_SDK/GD32VW55x_RELEASE_V1.0.2/MSDK/wpa_supplicant/wpa_supplicant\bssid_ignore.c **** 	if (wpa_s == NULL || bssid == NULL)
  27:C:/Users/stapi/OneDrive/Desktop/GD32VW553/V1_MQTT_OK/GD32VW55X_Wifi_BLE_SDK/GD32VW55x_RELEASE_V1.0.2/MSDK/wpa_supplicant/wpa_supplicant\bssid_ignore.c **** 		return NULL;
  28:C:/Users/stapi/OneDrive/Desktop/GD32VW553/V1_MQTT_OK/GD32VW55X_Wifi_BLE_SDK/GD32VW55x_RELEASE_V1.0.2/MSDK/wpa_supplicant/wpa_supplicant\bssid_ignore.c **** 
  29:C:/Users/stapi/OneDrive/Desktop/GD32VW553/V1_MQTT_OK/GD32VW55X_Wifi_BLE_SDK/GD32VW55x_RELEASE_V1.0.2/MSDK/wpa_supplicant/wpa_supplicant\bssid_ignore.c **** 	if (wpa_s->current_ssid &&
  30:C:/Users/stapi/OneDrive/Desktop/GD32VW553/V1_MQTT_OK/GD32VW55X_Wifi_BLE_SDK/GD32VW55x_RELEASE_V1.0.2/MSDK/wpa_supplicant/wpa_supplicant\bssid_ignore.c **** 	    wpa_s->current_ssid->was_recently_reconfigured) {
  31:C:/Users/stapi/OneDrive/Desktop/GD32VW553/V1_MQTT_OK/GD32VW55X_Wifi_BLE_SDK/GD32VW55x_RELEASE_V1.0.2/MSDK/wpa_supplicant/wpa_supplicant\bssid_ignore.c **** 		wpa_bssid_ignore_clear(wpa_s);
  32:C:/Users/stapi/OneDrive/Desktop/GD32VW553/V1_MQTT_OK/GD32VW55X_Wifi_BLE_SDK/GD32VW55x_RELEASE_V1.0.2/MSDK/wpa_supplicant/wpa_supplicant\bssid_ignore.c **** 		wpa_s->current_ssid->was_recently_reconfigured = false;
  33:C:/Users/stapi/OneDrive/Desktop/GD32VW553/V1_MQTT_OK/GD32VW55X_Wifi_BLE_SDK/GD32VW55x_RELEASE_V1.0.2/MSDK/wpa_supplicant/wpa_supplicant\bssid_ignore.c **** 		return NULL;
  34:C:/Users/stapi/OneDrive/Desktop/GD32VW553/V1_MQTT_OK/GD32VW55X_Wifi_BLE_SDK/GD32VW55x_RELEASE_V1.0.2/MSDK/wpa_supplicant/wpa_supplicant\bssid_ignore.c **** 	}
  35:C:/Users/stapi/OneDrive/Desktop/GD32VW553/V1_MQTT_OK/GD32VW55X_Wifi_BLE_SDK/GD32VW55x_RELEASE_V1.0.2/MSDK/wpa_supplicant/wpa_supplicant\bssid_ignore.c **** 
  36:C:/Users/stapi/OneDrive/Desktop/GD32VW553/V1_MQTT_OK/GD32VW55X_Wifi_BLE_SDK/GD32VW55x_RELEASE_V1.0.2/MSDK/wpa_supplicant/wpa_supplicant\bssid_ignore.c **** 	wpa_bssid_ignore_update(wpa_s);
  37:C:/Users/stapi/OneDrive/Desktop/GD32VW553/V1_MQTT_OK/GD32VW55X_Wifi_BLE_SDK/GD32VW55x_RELEASE_V1.0.2/MSDK/wpa_supplicant/wpa_supplicant\bssid_ignore.c **** 
  38:C:/Users/stapi/OneDrive/Desktop/GD32VW553/V1_MQTT_OK/GD32VW55X_Wifi_BLE_SDK/GD32VW55x_RELEASE_V1.0.2/MSDK/wpa_supplicant/wpa_supplicant\bssid_ignore.c **** 	e = wpa_s->bssid_ignore;
  39:C:/Users/stapi/OneDrive/Desktop/GD32VW553/V1_MQTT_OK/GD32VW55X_Wifi_BLE_SDK/GD32VW55x_RELEASE_V1.0.2/MSDK/wpa_supplicant/wpa_supplicant\bssid_ignore.c **** 	while (e) {
  40:C:/Users/stapi/OneDrive/Desktop/GD32VW553/V1_MQTT_OK/GD32VW55X_Wifi_BLE_SDK/GD32VW55x_RELEASE_V1.0.2/MSDK/wpa_supplicant/wpa_supplicant\bssid_ignore.c **** 		if (os_memcmp(e->bssid, bssid, ETH_ALEN) == 0)
  41:C:/Users/stapi/OneDrive/Desktop/GD32VW553/V1_MQTT_OK/GD32VW55X_Wifi_BLE_SDK/GD32VW55x_RELEASE_V1.0.2/MSDK/wpa_supplicant/wpa_supplicant\bssid_ignore.c **** 			return e;
  42:C:/Users/stapi/OneDrive/Desktop/GD32VW553/V1_MQTT_OK/GD32VW55X_Wifi_BLE_SDK/GD32VW55x_RELEASE_V1.0.2/MSDK/wpa_supplicant/wpa_supplicant\bssid_ignore.c **** 		e = e->next;
  43:C:/Users/stapi/OneDrive/Desktop/GD32VW553/V1_MQTT_OK/GD32VW55X_Wifi_BLE_SDK/GD32VW55x_RELEASE_V1.0.2/MSDK/wpa_supplicant/wpa_supplicant\bssid_ignore.c **** 	}
  44:C:/Users/stapi/OneDrive/Desktop/GD32VW553/V1_MQTT_OK/GD32VW55X_Wifi_BLE_SDK/GD32VW55x_RELEASE_V1.0.2/MSDK/wpa_supplicant/wpa_supplicant\bssid_ignore.c **** 
  45:C:/Users/stapi/OneDrive/Desktop/GD32VW553/V1_MQTT_OK/GD32VW55X_Wifi_BLE_SDK/GD32VW55x_RELEASE_V1.0.2/MSDK/wpa_supplicant/wpa_supplicant\bssid_ignore.c **** 	return NULL;
  46:C:/Users/stapi/OneDrive/Desktop/GD32VW553/V1_MQTT_OK/GD32VW55X_Wifi_BLE_SDK/GD32VW55x_RELEASE_V1.0.2/MSDK/wpa_supplicant/wpa_supplicant\bssid_ignore.c **** }
  47:C:/Users/stapi/OneDrive/Desktop/GD32VW553/V1_MQTT_OK/GD32VW55X_Wifi_BLE_SDK/GD32VW55x_RELEASE_V1.0.2/MSDK/wpa_supplicant/wpa_supplicant\bssid_ignore.c **** 
  48:C:/Users/stapi/OneDrive/Desktop/GD32VW553/V1_MQTT_OK/GD32VW55X_Wifi_BLE_SDK/GD32VW55x_RELEASE_V1.0.2/MSDK/wpa_supplicant/wpa_supplicant\bssid_ignore.c **** 
  49:C:/Users/stapi/OneDrive/Desktop/GD32VW553/V1_MQTT_OK/GD32VW55X_Wifi_BLE_SDK/GD32VW55x_RELEASE_V1.0.2/MSDK/wpa_supplicant/wpa_supplicant\bssid_ignore.c **** /**
  50:C:/Users/stapi/OneDrive/Desktop/GD32VW553/V1_MQTT_OK/GD32VW55X_Wifi_BLE_SDK/GD32VW55x_RELEASE_V1.0.2/MSDK/wpa_supplicant/wpa_supplicant\bssid_ignore.c ****  * wpa_bssid_ignore_add - Add an BSSID to the ignore list
  51:C:/Users/stapi/OneDrive/Desktop/GD32VW553/V1_MQTT_OK/GD32VW55X_Wifi_BLE_SDK/GD32VW55x_RELEASE_V1.0.2/MSDK/wpa_supplicant/wpa_supplicant\bssid_ignore.c ****  * @wpa_s: Pointer to wpa_supplicant data
  52:C:/Users/stapi/OneDrive/Desktop/GD32VW553/V1_MQTT_OK/GD32VW55X_Wifi_BLE_SDK/GD32VW55x_RELEASE_V1.0.2/MSDK/wpa_supplicant/wpa_supplicant\bssid_ignore.c ****  * @bssid: BSSID to be added to the ignore list
  53:C:/Users/stapi/OneDrive/Desktop/GD32VW553/V1_MQTT_OK/GD32VW55X_Wifi_BLE_SDK/GD32VW55x_RELEASE_V1.0.2/MSDK/wpa_supplicant/wpa_supplicant\bssid_ignore.c ****  * Returns: Current ignore list count on success, -1 on failure
  54:C:/Users/stapi/OneDrive/Desktop/GD32VW553/V1_MQTT_OK/GD32VW55X_Wifi_BLE_SDK/GD32VW55x_RELEASE_V1.0.2/MSDK/wpa_supplicant/wpa_supplicant\bssid_ignore.c ****  *
  55:C:/Users/stapi/OneDrive/Desktop/GD32VW553/V1_MQTT_OK/GD32VW55X_Wifi_BLE_SDK/GD32VW55x_RELEASE_V1.0.2/MSDK/wpa_supplicant/wpa_supplicant\bssid_ignore.c ****  * This function adds the specified BSSID to the ignore list or increases the
  56:C:/Users/stapi/OneDrive/Desktop/GD32VW553/V1_MQTT_OK/GD32VW55X_Wifi_BLE_SDK/GD32VW55x_RELEASE_V1.0.2/MSDK/wpa_supplicant/wpa_supplicant\bssid_ignore.c ****  * ignore count if the BSSID was already listed. It should be called when
  57:C:/Users/stapi/OneDrive/Desktop/GD32VW553/V1_MQTT_OK/GD32VW55X_Wifi_BLE_SDK/GD32VW55x_RELEASE_V1.0.2/MSDK/wpa_supplicant/wpa_supplicant\bssid_ignore.c ****  * an association attempt fails either due to the selected BSS rejecting
  58:C:/Users/stapi/OneDrive/Desktop/GD32VW553/V1_MQTT_OK/GD32VW55X_Wifi_BLE_SDK/GD32VW55x_RELEASE_V1.0.2/MSDK/wpa_supplicant/wpa_supplicant\bssid_ignore.c ****  * association or due to timeout.
  59:C:/Users/stapi/OneDrive/Desktop/GD32VW553/V1_MQTT_OK/GD32VW55X_Wifi_BLE_SDK/GD32VW55x_RELEASE_V1.0.2/MSDK/wpa_supplicant/wpa_supplicant\bssid_ignore.c ****  *
  60:C:/Users/stapi/OneDrive/Desktop/GD32VW553/V1_MQTT_OK/GD32VW55X_Wifi_BLE_SDK/GD32VW55x_RELEASE_V1.0.2/MSDK/wpa_supplicant/wpa_supplicant\bssid_ignore.c ****  * This ignore list is used to force %wpa_supplicant to go through all available
  61:C:/Users/stapi/OneDrive/Desktop/GD32VW553/V1_MQTT_OK/GD32VW55X_Wifi_BLE_SDK/GD32VW55x_RELEASE_V1.0.2/MSDK/wpa_supplicant/wpa_supplicant\bssid_ignore.c ****  * BSSes before retrying to associate with an BSS that rejected or timed out
  62:C:/Users/stapi/OneDrive/Desktop/GD32VW553/V1_MQTT_OK/GD32VW55X_Wifi_BLE_SDK/GD32VW55x_RELEASE_V1.0.2/MSDK/wpa_supplicant/wpa_supplicant\bssid_ignore.c ****  * association. It does not prevent the listed BSS from being used; it only
  63:C:/Users/stapi/OneDrive/Desktop/GD32VW553/V1_MQTT_OK/GD32VW55X_Wifi_BLE_SDK/GD32VW55x_RELEASE_V1.0.2/MSDK/wpa_supplicant/wpa_supplicant\bssid_ignore.c ****  * changes the order in which they are tried.
  64:C:/Users/stapi/OneDrive/Desktop/GD32VW553/V1_MQTT_OK/GD32VW55X_Wifi_BLE_SDK/GD32VW55x_RELEASE_V1.0.2/MSDK/wpa_supplicant/wpa_supplicant\bssid_ignore.c ****  */
  65:C:/Users/stapi/OneDrive/Desktop/GD32VW553/V1_MQTT_OK/GD32VW55X_Wifi_BLE_SDK/GD32VW55x_RELEASE_V1.0.2/MSDK/wpa_supplicant/wpa_supplicant\bssid_ignore.c **** int wpa_bssid_ignore_add(struct wpa_supplicant *wpa_s, const u8 *bssid)
  66:C:/Users/stapi/OneDrive/Desktop/GD32VW553/V1_MQTT_OK/GD32VW55X_Wifi_BLE_SDK/GD32VW55x_RELEASE_V1.0.2/MSDK/wpa_supplicant/wpa_supplicant\bssid_ignore.c **** {
  67:C:/Users/stapi/OneDrive/Desktop/GD32VW553/V1_MQTT_OK/GD32VW55X_Wifi_BLE_SDK/GD32VW55x_RELEASE_V1.0.2/MSDK/wpa_supplicant/wpa_supplicant\bssid_ignore.c **** 	struct wpa_bssid_ignore *e;
  68:C:/Users/stapi/OneDrive/Desktop/GD32VW553/V1_MQTT_OK/GD32VW55X_Wifi_BLE_SDK/GD32VW55x_RELEASE_V1.0.2/MSDK/wpa_supplicant/wpa_supplicant\bssid_ignore.c **** 	struct os_reltime now;
  69:C:/Users/stapi/OneDrive/Desktop/GD32VW553/V1_MQTT_OK/GD32VW55X_Wifi_BLE_SDK/GD32VW55x_RELEASE_V1.0.2/MSDK/wpa_supplicant/wpa_supplicant\bssid_ignore.c **** 
  70:C:/Users/stapi/OneDrive/Desktop/GD32VW553/V1_MQTT_OK/GD32VW55X_Wifi_BLE_SDK/GD32VW55x_RELEASE_V1.0.2/MSDK/wpa_supplicant/wpa_supplicant\bssid_ignore.c **** 	if (wpa_s == NULL || bssid == NULL)
  71:C:/Users/stapi/OneDrive/Desktop/GD32VW553/V1_MQTT_OK/GD32VW55X_Wifi_BLE_SDK/GD32VW55x_RELEASE_V1.0.2/MSDK/wpa_supplicant/wpa_supplicant\bssid_ignore.c **** 		return -1;
  72:C:/Users/stapi/OneDrive/Desktop/GD32VW553/V1_MQTT_OK/GD32VW55X_Wifi_BLE_SDK/GD32VW55x_RELEASE_V1.0.2/MSDK/wpa_supplicant/wpa_supplicant\bssid_ignore.c **** 
  73:C:/Users/stapi/OneDrive/Desktop/GD32VW553/V1_MQTT_OK/GD32VW55X_Wifi_BLE_SDK/GD32VW55x_RELEASE_V1.0.2/MSDK/wpa_supplicant/wpa_supplicant\bssid_ignore.c **** 	e = wpa_bssid_ignore_get(wpa_s, bssid);
  74:C:/Users/stapi/OneDrive/Desktop/GD32VW553/V1_MQTT_OK/GD32VW55X_Wifi_BLE_SDK/GD32VW55x_RELEASE_V1.0.2/MSDK/wpa_supplicant/wpa_supplicant\bssid_ignore.c **** 	os_get_reltime(&now);
  75:C:/Users/stapi/OneDrive/Desktop/GD32VW553/V1_MQTT_OK/GD32VW55X_Wifi_BLE_SDK/GD32VW55x_RELEASE_V1.0.2/MSDK/wpa_supplicant/wpa_supplicant\bssid_ignore.c **** 	if (e) {
  76:C:/Users/stapi/OneDrive/Desktop/GD32VW553/V1_MQTT_OK/GD32VW55X_Wifi_BLE_SDK/GD32VW55x_RELEASE_V1.0.2/MSDK/wpa_supplicant/wpa_supplicant\bssid_ignore.c **** 		e->start = now;
  77:C:/Users/stapi/OneDrive/Desktop/GD32VW553/V1_MQTT_OK/GD32VW55X_Wifi_BLE_SDK/GD32VW55x_RELEASE_V1.0.2/MSDK/wpa_supplicant/wpa_supplicant\bssid_ignore.c **** 		e->count++;
  78:C:/Users/stapi/OneDrive/Desktop/GD32VW553/V1_MQTT_OK/GD32VW55X_Wifi_BLE_SDK/GD32VW55x_RELEASE_V1.0.2/MSDK/wpa_supplicant/wpa_supplicant\bssid_ignore.c **** 		if (e->count > 5)
  79:C:/Users/stapi/OneDrive/Desktop/GD32VW553/V1_MQTT_OK/GD32VW55X_Wifi_BLE_SDK/GD32VW55x_RELEASE_V1.0.2/MSDK/wpa_supplicant/wpa_supplicant\bssid_ignore.c **** 			e->timeout_secs = 1800;
  80:C:/Users/stapi/OneDrive/Desktop/GD32VW553/V1_MQTT_OK/GD32VW55X_Wifi_BLE_SDK/GD32VW55x_RELEASE_V1.0.2/MSDK/wpa_supplicant/wpa_supplicant\bssid_ignore.c **** 		else if (e->count == 5)
  81:C:/Users/stapi/OneDrive/Desktop/GD32VW553/V1_MQTT_OK/GD32VW55X_Wifi_BLE_SDK/GD32VW55x_RELEASE_V1.0.2/MSDK/wpa_supplicant/wpa_supplicant\bssid_ignore.c **** 			e->timeout_secs = 600;
  82:C:/Users/stapi/OneDrive/Desktop/GD32VW553/V1_MQTT_OK/GD32VW55X_Wifi_BLE_SDK/GD32VW55x_RELEASE_V1.0.2/MSDK/wpa_supplicant/wpa_supplicant\bssid_ignore.c **** 		else if (e->count == 4)
  83:C:/Users/stapi/OneDrive/Desktop/GD32VW553/V1_MQTT_OK/GD32VW55X_Wifi_BLE_SDK/GD32VW55x_RELEASE_V1.0.2/MSDK/wpa_supplicant/wpa_supplicant\bssid_ignore.c **** 			e->timeout_secs = 120;
  84:C:/Users/stapi/OneDrive/Desktop/GD32VW553/V1_MQTT_OK/GD32VW55X_Wifi_BLE_SDK/GD32VW55x_RELEASE_V1.0.2/MSDK/wpa_supplicant/wpa_supplicant\bssid_ignore.c **** 		else if (e->count == 3)
  85:C:/Users/stapi/OneDrive/Desktop/GD32VW553/V1_MQTT_OK/GD32VW55X_Wifi_BLE_SDK/GD32VW55x_RELEASE_V1.0.2/MSDK/wpa_supplicant/wpa_supplicant\bssid_ignore.c **** 			e->timeout_secs = 60;
  86:C:/Users/stapi/OneDrive/Desktop/GD32VW553/V1_MQTT_OK/GD32VW55X_Wifi_BLE_SDK/GD32VW55x_RELEASE_V1.0.2/MSDK/wpa_supplicant/wpa_supplicant\bssid_ignore.c **** 		else
  87:C:/Users/stapi/OneDrive/Desktop/GD32VW553/V1_MQTT_OK/GD32VW55X_Wifi_BLE_SDK/GD32VW55x_RELEASE_V1.0.2/MSDK/wpa_supplicant/wpa_supplicant\bssid_ignore.c **** 			e->timeout_secs = 10;
  88:C:/Users/stapi/OneDrive/Desktop/GD32VW553/V1_MQTT_OK/GD32VW55X_Wifi_BLE_SDK/GD32VW55x_RELEASE_V1.0.2/MSDK/wpa_supplicant/wpa_supplicant\bssid_ignore.c **** 		wpa_printf(MSG_INFO, "BSSID " MACSTR
  89:C:/Users/stapi/OneDrive/Desktop/GD32VW553/V1_MQTT_OK/GD32VW55X_Wifi_BLE_SDK/GD32VW55x_RELEASE_V1.0.2/MSDK/wpa_supplicant/wpa_supplicant\bssid_ignore.c **** 			   " ignore list count incremented to %d, ignoring for %d seconds",
  90:C:/Users/stapi/OneDrive/Desktop/GD32VW553/V1_MQTT_OK/GD32VW55X_Wifi_BLE_SDK/GD32VW55x_RELEASE_V1.0.2/MSDK/wpa_supplicant/wpa_supplicant\bssid_ignore.c **** 			   MAC2STR(bssid), e->count, e->timeout_secs);
  91:C:/Users/stapi/OneDrive/Desktop/GD32VW553/V1_MQTT_OK/GD32VW55X_Wifi_BLE_SDK/GD32VW55x_RELEASE_V1.0.2/MSDK/wpa_supplicant/wpa_supplicant\bssid_ignore.c **** 		return e->count;
  92:C:/Users/stapi/OneDrive/Desktop/GD32VW553/V1_MQTT_OK/GD32VW55X_Wifi_BLE_SDK/GD32VW55x_RELEASE_V1.0.2/MSDK/wpa_supplicant/wpa_supplicant\bssid_ignore.c **** 	}
  93:C:/Users/stapi/OneDrive/Desktop/GD32VW553/V1_MQTT_OK/GD32VW55X_Wifi_BLE_SDK/GD32VW55x_RELEASE_V1.0.2/MSDK/wpa_supplicant/wpa_supplicant\bssid_ignore.c **** 
  94:C:/Users/stapi/OneDrive/Desktop/GD32VW553/V1_MQTT_OK/GD32VW55X_Wifi_BLE_SDK/GD32VW55x_RELEASE_V1.0.2/MSDK/wpa_supplicant/wpa_supplicant\bssid_ignore.c **** 	e = os_zalloc(sizeof(*e));
  95:C:/Users/stapi/OneDrive/Desktop/GD32VW553/V1_MQTT_OK/GD32VW55X_Wifi_BLE_SDK/GD32VW55x_RELEASE_V1.0.2/MSDK/wpa_supplicant/wpa_supplicant\bssid_ignore.c **** 	if (e == NULL)
  96:C:/Users/stapi/OneDrive/Desktop/GD32VW553/V1_MQTT_OK/GD32VW55X_Wifi_BLE_SDK/GD32VW55x_RELEASE_V1.0.2/MSDK/wpa_supplicant/wpa_supplicant\bssid_ignore.c **** 		return -1;
  97:C:/Users/stapi/OneDrive/Desktop/GD32VW553/V1_MQTT_OK/GD32VW55X_Wifi_BLE_SDK/GD32VW55x_RELEASE_V1.0.2/MSDK/wpa_supplicant/wpa_supplicant\bssid_ignore.c **** 	os_memcpy(e->bssid, bssid, ETH_ALEN);
  98:C:/Users/stapi/OneDrive/Desktop/GD32VW553/V1_MQTT_OK/GD32VW55X_Wifi_BLE_SDK/GD32VW55x_RELEASE_V1.0.2/MSDK/wpa_supplicant/wpa_supplicant\bssid_ignore.c **** 	e->count = 1;
  99:C:/Users/stapi/OneDrive/Desktop/GD32VW553/V1_MQTT_OK/GD32VW55X_Wifi_BLE_SDK/GD32VW55x_RELEASE_V1.0.2/MSDK/wpa_supplicant/wpa_supplicant\bssid_ignore.c **** 	e->timeout_secs = 10;
 100:C:/Users/stapi/OneDrive/Desktop/GD32VW553/V1_MQTT_OK/GD32VW55X_Wifi_BLE_SDK/GD32VW55x_RELEASE_V1.0.2/MSDK/wpa_supplicant/wpa_supplicant\bssid_ignore.c **** 	e->start = now;
 101:C:/Users/stapi/OneDrive/Desktop/GD32VW553/V1_MQTT_OK/GD32VW55X_Wifi_BLE_SDK/GD32VW55x_RELEASE_V1.0.2/MSDK/wpa_supplicant/wpa_supplicant\bssid_ignore.c **** 	e->next = wpa_s->bssid_ignore;
 102:C:/Users/stapi/OneDrive/Desktop/GD32VW553/V1_MQTT_OK/GD32VW55X_Wifi_BLE_SDK/GD32VW55x_RELEASE_V1.0.2/MSDK/wpa_supplicant/wpa_supplicant\bssid_ignore.c **** 	wpa_s->bssid_ignore = e;
 103:C:/Users/stapi/OneDrive/Desktop/GD32VW553/V1_MQTT_OK/GD32VW55X_Wifi_BLE_SDK/GD32VW55x_RELEASE_V1.0.2/MSDK/wpa_supplicant/wpa_supplicant\bssid_ignore.c **** 	wpa_printf(MSG_DEBUG, "Added BSSID " MACSTR
 104:C:/Users/stapi/OneDrive/Desktop/GD32VW553/V1_MQTT_OK/GD32VW55X_Wifi_BLE_SDK/GD32VW55x_RELEASE_V1.0.2/MSDK/wpa_supplicant/wpa_supplicant\bssid_ignore.c **** 		   " into ignore list, ignoring for %d seconds",
 105:C:/Users/stapi/OneDrive/Desktop/GD32VW553/V1_MQTT_OK/GD32VW55X_Wifi_BLE_SDK/GD32VW55x_RELEASE_V1.0.2/MSDK/wpa_supplicant/wpa_supplicant\bssid_ignore.c **** 		   MAC2STR(bssid), e->timeout_secs);
 106:C:/Users/stapi/OneDrive/Desktop/GD32VW553/V1_MQTT_OK/GD32VW55X_Wifi_BLE_SDK/GD32VW55x_RELEASE_V1.0.2/MSDK/wpa_supplicant/wpa_supplicant\bssid_ignore.c **** 
 107:C:/Users/stapi/OneDrive/Desktop/GD32VW553/V1_MQTT_OK/GD32VW55X_Wifi_BLE_SDK/GD32VW55x_RELEASE_V1.0.2/MSDK/wpa_supplicant/wpa_supplicant\bssid_ignore.c **** 	return e->count;
 108:C:/Users/stapi/OneDrive/Desktop/GD32VW553/V1_MQTT_OK/GD32VW55X_Wifi_BLE_SDK/GD32VW55x_RELEASE_V1.0.2/MSDK/wpa_supplicant/wpa_supplicant\bssid_ignore.c **** }
 109:C:/Users/stapi/OneDrive/Desktop/GD32VW553/V1_MQTT_OK/GD32VW55X_Wifi_BLE_SDK/GD32VW55x_RELEASE_V1.0.2/MSDK/wpa_supplicant/wpa_supplicant\bssid_ignore.c **** 
 110:C:/Users/stapi/OneDrive/Desktop/GD32VW553/V1_MQTT_OK/GD32VW55X_Wifi_BLE_SDK/GD32VW55x_RELEASE_V1.0.2/MSDK/wpa_supplicant/wpa_supplicant\bssid_ignore.c **** 
 111:C:/Users/stapi/OneDrive/Desktop/GD32VW553/V1_MQTT_OK/GD32VW55X_Wifi_BLE_SDK/GD32VW55x_RELEASE_V1.0.2/MSDK/wpa_supplicant/wpa_supplicant\bssid_ignore.c **** /**
 112:C:/Users/stapi/OneDrive/Desktop/GD32VW553/V1_MQTT_OK/GD32VW55X_Wifi_BLE_SDK/GD32VW55x_RELEASE_V1.0.2/MSDK/wpa_supplicant/wpa_supplicant\bssid_ignore.c ****  * wpa_bssid_ignore_del - Remove an BSSID from the ignore list
 113:C:/Users/stapi/OneDrive/Desktop/GD32VW553/V1_MQTT_OK/GD32VW55X_Wifi_BLE_SDK/GD32VW55x_RELEASE_V1.0.2/MSDK/wpa_supplicant/wpa_supplicant\bssid_ignore.c ****  * @wpa_s: Pointer to wpa_supplicant data
 114:C:/Users/stapi/OneDrive/Desktop/GD32VW553/V1_MQTT_OK/GD32VW55X_Wifi_BLE_SDK/GD32VW55x_RELEASE_V1.0.2/MSDK/wpa_supplicant/wpa_supplicant\bssid_ignore.c ****  * @bssid: BSSID to be removed from the ignore list
 115:C:/Users/stapi/OneDrive/Desktop/GD32VW553/V1_MQTT_OK/GD32VW55X_Wifi_BLE_SDK/GD32VW55x_RELEASE_V1.0.2/MSDK/wpa_supplicant/wpa_supplicant\bssid_ignore.c ****  * Returns: 0 on success, -1 on failure
 116:C:/Users/stapi/OneDrive/Desktop/GD32VW553/V1_MQTT_OK/GD32VW55X_Wifi_BLE_SDK/GD32VW55x_RELEASE_V1.0.2/MSDK/wpa_supplicant/wpa_supplicant\bssid_ignore.c ****  */
 117:C:/Users/stapi/OneDrive/Desktop/GD32VW553/V1_MQTT_OK/GD32VW55X_Wifi_BLE_SDK/GD32VW55x_RELEASE_V1.0.2/MSDK/wpa_supplicant/wpa_supplicant\bssid_ignore.c **** int wpa_bssid_ignore_del(struct wpa_supplicant *wpa_s, const u8 *bssid)
 118:C:/Users/stapi/OneDrive/Desktop/GD32VW553/V1_MQTT_OK/GD32VW55X_Wifi_BLE_SDK/GD32VW55x_RELEASE_V1.0.2/MSDK/wpa_supplicant/wpa_supplicant\bssid_ignore.c **** {
  80              		.loc 2 118 1 is_stmt 1
  81              		.cfi_startproc
  82              	.LVL6:
  83 0000 17030000 		call	t0,__riscv_save_5
  83      E7020300 
  84              		.cfi_offset 20, -24
  85              		.cfi_offset 19, -20
  86              		.cfi_offset 18, -16
  87              		.cfi_offset 9, -12
  88              		.cfi_offset 8, -8
  89              		.cfi_offset 1, -4
  90              		.cfi_def_cfa_offset 32
 119:C:/Users/stapi/OneDrive/Desktop/GD32VW553/V1_MQTT_OK/GD32VW55X_Wifi_BLE_SDK/GD32VW55x_RELEASE_V1.0.2/MSDK/wpa_supplicant/wpa_supplicant\bssid_ignore.c **** 	struct wpa_bssid_ignore *e, *prev = NULL;
  91              		.loc 2 119 2
  92              	.LVL7:
 120:C:/Users/stapi/OneDrive/Desktop/GD32VW553/V1_MQTT_OK/GD32VW55X_Wifi_BLE_SDK/GD32VW55x_RELEASE_V1.0.2/MSDK/wpa_supplicant/wpa_supplicant\bssid_ignore.c **** 
 121:C:/Users/stapi/OneDrive/Desktop/GD32VW553/V1_MQTT_OK/GD32VW55X_Wifi_BLE_SDK/GD32VW55x_RELEASE_V1.0.2/MSDK/wpa_supplicant/wpa_supplicant\bssid_ignore.c **** 	if (wpa_s == NULL || bssid == NULL)
  93              		.loc 2 121 2
  94              		.loc 2 121 5 is_stmt 0
  95 0008 19E5     		bne	a0,zero,.L7
  96              	.LVL8:
  97              	.L9:
 122:C:/Users/stapi/OneDrive/Desktop/GD32VW553/V1_MQTT_OK/GD32VW55X_Wifi_BLE_SDK/GD32VW55x_RELEASE_V1.0.2/MSDK/wpa_supplicant/wpa_supplicant\bssid_ignore.c **** 		return -1;
  98              		.loc 2 122 10
  99 000a 7D59     		li	s2,-1
 100              	.L6:
 123:C:/Users/stapi/OneDrive/Desktop/GD32VW553/V1_MQTT_OK/GD32VW55X_Wifi_BLE_SDK/GD32VW55x_RELEASE_V1.0.2/MSDK/wpa_supplicant/wpa_supplicant\bssid_ignore.c **** 
 124:C:/Users/stapi/OneDrive/Desktop/GD32VW553/V1_MQTT_OK/GD32VW55X_Wifi_BLE_SDK/GD32VW55x_RELEASE_V1.0.2/MSDK/wpa_supplicant/wpa_supplicant\bssid_ignore.c **** 	e = wpa_s->bssid_ignore;
 125:C:/Users/stapi/OneDrive/Desktop/GD32VW553/V1_MQTT_OK/GD32VW55X_Wifi_BLE_SDK/GD32VW55x_RELEASE_V1.0.2/MSDK/wpa_supplicant/wpa_supplicant\bssid_ignore.c **** 	while (e) {
 126:C:/Users/stapi/OneDrive/Desktop/GD32VW553/V1_MQTT_OK/GD32VW55X_Wifi_BLE_SDK/GD32VW55x_RELEASE_V1.0.2/MSDK/wpa_supplicant/wpa_supplicant\bssid_ignore.c **** 		if (os_memcmp(e->bssid, bssid, ETH_ALEN) == 0) {
 127:C:/Users/stapi/OneDrive/Desktop/GD32VW553/V1_MQTT_OK/GD32VW55X_Wifi_BLE_SDK/GD32VW55x_RELEASE_V1.0.2/MSDK/wpa_supplicant/wpa_supplicant\bssid_ignore.c **** 			if (prev == NULL) {
 128:C:/Users/stapi/OneDrive/Desktop/GD32VW553/V1_MQTT_OK/GD32VW55X_Wifi_BLE_SDK/GD32VW55x_RELEASE_V1.0.2/MSDK/wpa_supplicant/wpa_supplicant\bssid_ignore.c **** 				wpa_s->bssid_ignore = e->next;
 129:C:/Users/stapi/OneDrive/Desktop/GD32VW553/V1_MQTT_OK/GD32VW55X_Wifi_BLE_SDK/GD32VW55x_RELEASE_V1.0.2/MSDK/wpa_supplicant/wpa_supplicant\bssid_ignore.c **** 			} else {
 130:C:/Users/stapi/OneDrive/Desktop/GD32VW553/V1_MQTT_OK/GD32VW55X_Wifi_BLE_SDK/GD32VW55x_RELEASE_V1.0.2/MSDK/wpa_supplicant/wpa_supplicant\bssid_ignore.c **** 				prev->next = e->next;
 131:C:/Users/stapi/OneDrive/Desktop/GD32VW553/V1_MQTT_OK/GD32VW55X_Wifi_BLE_SDK/GD32VW55x_RELEASE_V1.0.2/MSDK/wpa_supplicant/wpa_supplicant\bssid_ignore.c **** 			}
 132:C:/Users/stapi/OneDrive/Desktop/GD32VW553/V1_MQTT_OK/GD32VW55X_Wifi_BLE_SDK/GD32VW55x_RELEASE_V1.0.2/MSDK/wpa_supplicant/wpa_supplicant\bssid_ignore.c **** 			wpa_printf(MSG_DEBUG, "Removed BSSID " MACSTR
 133:C:/Users/stapi/OneDrive/Desktop/GD32VW553/V1_MQTT_OK/GD32VW55X_Wifi_BLE_SDK/GD32VW55x_RELEASE_V1.0.2/MSDK/wpa_supplicant/wpa_supplicant\bssid_ignore.c **** 				   " from ignore list", MAC2STR(bssid));
 134:C:/Users/stapi/OneDrive/Desktop/GD32VW553/V1_MQTT_OK/GD32VW55X_Wifi_BLE_SDK/GD32VW55x_RELEASE_V1.0.2/MSDK/wpa_supplicant/wpa_supplicant\bssid_ignore.c **** 			os_free(e);
 135:C:/Users/stapi/OneDrive/Desktop/GD32VW553/V1_MQTT_OK/GD32VW55X_Wifi_BLE_SDK/GD32VW55x_RELEASE_V1.0.2/MSDK/wpa_supplicant/wpa_supplicant\bssid_ignore.c **** 			return 0;
 136:C:/Users/stapi/OneDrive/Desktop/GD32VW553/V1_MQTT_OK/GD32VW55X_Wifi_BLE_SDK/GD32VW55x_RELEASE_V1.0.2/MSDK/wpa_supplicant/wpa_supplicant\bssid_ignore.c **** 		}
 137:C:/Users/stapi/OneDrive/Desktop/GD32VW553/V1_MQTT_OK/GD32VW55X_Wifi_BLE_SDK/GD32VW55x_RELEASE_V1.0.2/MSDK/wpa_supplicant/wpa_supplicant\bssid_ignore.c **** 		prev = e;
 138:C:/Users/stapi/OneDrive/Desktop/GD32VW553/V1_MQTT_OK/GD32VW55X_Wifi_BLE_SDK/GD32VW55x_RELEASE_V1.0.2/MSDK/wpa_supplicant/wpa_supplicant\bssid_ignore.c **** 		e = e->next;
 139:C:/Users/stapi/OneDrive/Desktop/GD32VW553/V1_MQTT_OK/GD32VW55X_Wifi_BLE_SDK/GD32VW55x_RELEASE_V1.0.2/MSDK/wpa_supplicant/wpa_supplicant\bssid_ignore.c **** 	}
 140:C:/Users/stapi/OneDrive/Desktop/GD32VW553/V1_MQTT_OK/GD32VW55X_Wifi_BLE_SDK/GD32VW55x_RELEASE_V1.0.2/MSDK/wpa_supplicant/wpa_supplicant\bssid_ignore.c **** 	return -1;
 141:C:/Users/stapi/OneDrive/Desktop/GD32VW553/V1_MQTT_OK/GD32VW55X_Wifi_BLE_SDK/GD32VW55x_RELEASE_V1.0.2/MSDK/wpa_supplicant/wpa_supplicant\bssid_ignore.c **** }
 101              		.loc 2 141 1
 102 000c 4A85     		mv	a0,s2
 103 000e 17030000 		tail	__riscv_restore_5
 103      67000300 
 104              		.cfi_remember_state
 105              		.cfi_restore 20
 106              		.cfi_restore 19
 107              		.cfi_restore 18
 108              		.cfi_restore 9
 109              		.cfi_restore 8
 110              		.cfi_restore 1
 111              		.cfi_def_cfa_offset 0
 112              	.LVL9:
 113              	.L7:
 114              		.cfi_restore_state
 115 0016 2E84     		mv	s0,a1
 121:C:/Users/stapi/OneDrive/Desktop/GD32VW553/V1_MQTT_OK/GD32VW55X_Wifi_BLE_SDK/GD32VW55x_RELEASE_V1.0.2/MSDK/wpa_supplicant/wpa_supplicant\bssid_ignore.c **** 		return -1;
 116              		.loc 2 121 20 discriminator 1
 117 0018 EDD9     		beq	a1,zero,.L9
 118              	.LVL10:
 124:C:/Users/stapi/OneDrive/Desktop/GD32VW553/V1_MQTT_OK/GD32VW55X_Wifi_BLE_SDK/GD32VW55x_RELEASE_V1.0.2/MSDK/wpa_supplicant/wpa_supplicant\bssid_ignore.c **** 	while (e) {
 119              		.loc 2 124 4
 120 001a 83244518 		lw	s1,388(a0)
 121 001e AA89     		mv	s3,a0
 124:C:/Users/stapi/OneDrive/Desktop/GD32VW553/V1_MQTT_OK/GD32VW55X_Wifi_BLE_SDK/GD32VW55x_RELEASE_V1.0.2/MSDK/wpa_supplicant/wpa_supplicant\bssid_ignore.c **** 	while (e) {
 122              		.loc 2 124 2 is_stmt 1
 123              	.LVL11:
 125:C:/Users/stapi/OneDrive/Desktop/GD32VW553/V1_MQTT_OK/GD32VW55X_Wifi_BLE_SDK/GD32VW55x_RELEASE_V1.0.2/MSDK/wpa_supplicant/wpa_supplicant\bssid_ignore.c **** 		if (os_memcmp(e->bssid, bssid, ETH_ALEN) == 0) {
 124              		.loc 2 125 2
 119:C:/Users/stapi/OneDrive/Desktop/GD32VW553/V1_MQTT_OK/GD32VW55X_Wifi_BLE_SDK/GD32VW55x_RELEASE_V1.0.2/MSDK/wpa_supplicant/wpa_supplicant\bssid_ignore.c **** 
 125              		.loc 2 119 31 is_stmt 0
 126 0020 014A     		li	s4,0
 127              	.LVL12:
 128              	.L10:
 125:C:/Users/stapi/OneDrive/Desktop/GD32VW553/V1_MQTT_OK/GD32VW55X_Wifi_BLE_SDK/GD32VW55x_RELEASE_V1.0.2/MSDK/wpa_supplicant/wpa_supplicant\bssid_ignore.c **** 		if (os_memcmp(e->bssid, bssid, ETH_ALEN) == 0) {
 129              		.loc 2 125 8 is_stmt 1
 130 0022 E5D4     		beq	s1,zero,.L9
 126:C:/Users/stapi/OneDrive/Desktop/GD32VW553/V1_MQTT_OK/GD32VW55X_Wifi_BLE_SDK/GD32VW55x_RELEASE_V1.0.2/MSDK/wpa_supplicant/wpa_supplicant\bssid_ignore.c **** 			if (prev == NULL) {
 131              		.loc 2 126 3
 126:C:/Users/stapi/OneDrive/Desktop/GD32VW553/V1_MQTT_OK/GD32VW55X_Wifi_BLE_SDK/GD32VW55x_RELEASE_V1.0.2/MSDK/wpa_supplicant/wpa_supplicant\bssid_ignore.c **** 			if (prev == NULL) {
 132              		.loc 2 126 7 is_stmt 0
 133 0024 1946     		li	a2,6
 134 0026 A285     		mv	a1,s0
 135 0028 13854400 		addi	a0,s1,4
 136 002c 97000000 		call	os_memcmp
 136      E7800000 
 137              	.LVL13:
 138 0034 9C40     		lw	a5,0(s1)
 139 0036 2A89     		mv	s2,a0
 126:C:/Users/stapi/OneDrive/Desktop/GD32VW553/V1_MQTT_OK/GD32VW55X_Wifi_BLE_SDK/GD32VW55x_RELEASE_V1.0.2/MSDK/wpa_supplicant/wpa_supplicant\bssid_ignore.c **** 			if (prev == NULL) {
 140              		.loc 2 126 6
 141 0038 39E1     		bne	a0,zero,.L11
 127:C:/Users/stapi/OneDrive/Desktop/GD32VW553/V1_MQTT_OK/GD32VW55X_Wifi_BLE_SDK/GD32VW55x_RELEASE_V1.0.2/MSDK/wpa_supplicant/wpa_supplicant\bssid_ignore.c **** 				wpa_s->bssid_ignore = e->next;
 142              		.loc 2 127 4 is_stmt 1
 127:C:/Users/stapi/OneDrive/Desktop/GD32VW553/V1_MQTT_OK/GD32VW55X_Wifi_BLE_SDK/GD32VW55x_RELEASE_V1.0.2/MSDK/wpa_supplicant/wpa_supplicant\bssid_ignore.c **** 				wpa_s->bssid_ignore = e->next;
 143              		.loc 2 127 7 is_stmt 0
 144 003a 631F0A02 		bne	s4,zero,.L12
 128:C:/Users/stapi/OneDrive/Desktop/GD32VW553/V1_MQTT_OK/GD32VW55X_Wifi_BLE_SDK/GD32VW55x_RELEASE_V1.0.2/MSDK/wpa_supplicant/wpa_supplicant\bssid_ignore.c **** 			} else {
 145              		.loc 2 128 5 is_stmt 1
 128:C:/Users/stapi/OneDrive/Desktop/GD32VW553/V1_MQTT_OK/GD32VW55X_Wifi_BLE_SDK/GD32VW55x_RELEASE_V1.0.2/MSDK/wpa_supplicant/wpa_supplicant\bssid_ignore.c **** 			} else {
 146              		.loc 2 128 25 is_stmt 0
 147 003e 23A2F918 		sw	a5,388(s3)
 148              	.L13:
 132:C:/Users/stapi/OneDrive/Desktop/GD32VW553/V1_MQTT_OK/GD32VW55X_Wifi_BLE_SDK/GD32VW55x_RELEASE_V1.0.2/MSDK/wpa_supplicant/wpa_supplicant\bssid_ignore.c **** 				   " from ignore list", MAC2STR(bssid));
 149              		.loc 2 132 4 is_stmt 1
 150 0042 83485400 		lbu	a7,5(s0)
 151 0046 03484400 		lbu	a6,4(s0)
 152 004a 83473400 		lbu	a5,3(s0)
 153 004e 03472400 		lbu	a4,2(s0)
 154 0052 83461400 		lbu	a3,1(s0)
 155 0056 03460400 		lbu	a2,0(s0)
 156 005a B7050000 		lui	a1,%hi(.LC0)
 157 005e 93850500 		addi	a1,a1,%lo(.LC0)
 158 0062 0945     		li	a0,2
 159 0064 97000000 		call	wpa_printf
 159      E7800000 
 160              	.LVL14:
 134:C:/Users/stapi/OneDrive/Desktop/GD32VW553/V1_MQTT_OK/GD32VW55X_Wifi_BLE_SDK/GD32VW55x_RELEASE_V1.0.2/MSDK/wpa_supplicant/wpa_supplicant\bssid_ignore.c **** 			return 0;
 161              		.loc 2 134 4
 162 006c 2685     		mv	a0,s1
 163 006e 97000000 		call	os_free
 163      E7800000 
 164              	.LVL15:
 135:C:/Users/stapi/OneDrive/Desktop/GD32VW553/V1_MQTT_OK/GD32VW55X_Wifi_BLE_SDK/GD32VW55x_RELEASE_V1.0.2/MSDK/wpa_supplicant/wpa_supplicant\bssid_ignore.c **** 		}
 165              		.loc 2 135 4
 135:C:/Users/stapi/OneDrive/Desktop/GD32VW553/V1_MQTT_OK/GD32VW55X_Wifi_BLE_SDK/GD32VW55x_RELEASE_V1.0.2/MSDK/wpa_supplicant/wpa_supplicant\bssid_ignore.c **** 		}
 166              		.loc 2 135 11 is_stmt 0
 167 0076 59BF     		j	.L6
 168              	.L12:
 130:C:/Users/stapi/OneDrive/Desktop/GD32VW553/V1_MQTT_OK/GD32VW55X_Wifi_BLE_SDK/GD32VW55x_RELEASE_V1.0.2/MSDK/wpa_supplicant/wpa_supplicant\bssid_ignore.c **** 			}
 169              		.loc 2 130 5 is_stmt 1
 130:C:/Users/stapi/OneDrive/Desktop/GD32VW553/V1_MQTT_OK/GD32VW55X_Wifi_BLE_SDK/GD32VW55x_RELEASE_V1.0.2/MSDK/wpa_supplicant/wpa_supplicant\bssid_ignore.c **** 			}
 170              		.loc 2 130 16 is_stmt 0
 171 0078 2320FA00 		sw	a5,0(s4)
 172 007c D9B7     		j	.L13
 173              	.L11:
 137:C:/Users/stapi/OneDrive/Desktop/GD32VW553/V1_MQTT_OK/GD32VW55X_Wifi_BLE_SDK/GD32VW55x_RELEASE_V1.0.2/MSDK/wpa_supplicant/wpa_supplicant\bssid_ignore.c **** 		e = e->next;
 174              		.loc 2 137 3 is_stmt 1
 175              	.LVL16:
 138:C:/Users/stapi/OneDrive/Desktop/GD32VW553/V1_MQTT_OK/GD32VW55X_Wifi_BLE_SDK/GD32VW55x_RELEASE_V1.0.2/MSDK/wpa_supplicant/wpa_supplicant\bssid_ignore.c **** 	}
 176              		.loc 2 138 3
 138:C:/Users/stapi/OneDrive/Desktop/GD32VW553/V1_MQTT_OK/GD32VW55X_Wifi_BLE_SDK/GD32VW55x_RELEASE_V1.0.2/MSDK/wpa_supplicant/wpa_supplicant\bssid_ignore.c **** 	}
 177              		.loc 2 138 5 is_stmt 0
 178 007e 268A     		mv	s4,s1
 179 0080 BE84     		mv	s1,a5
 180              	.LVL17:
 181 0082 45B7     		j	.L10
 182              		.cfi_endproc
 183              	.LFE138:
 185              		.section	.rodata.wpa_bssid_ignore_clear.str1.4,"aMS",@progbits,1
 186              		.align	2
 187              	.LC1:
 188 0000 52656D6F 		.string	"Removed BSSID %02x:%02x:%02x:%02x:%02x:%02x from ignore list (clear)"
 188      76656420 
 188      42535349 
 188      44202530 
 188      32783A25 
 189              		.section	.text.wpa_bssid_ignore_clear,"ax",@progbits
 190              		.align	1
 191              		.globl	wpa_bssid_ignore_clear
 193              	wpa_bssid_ignore_clear:
 194              	.LFB140:
 142:C:/Users/stapi/OneDrive/Desktop/GD32VW553/V1_MQTT_OK/GD32VW55X_Wifi_BLE_SDK/GD32VW55x_RELEASE_V1.0.2/MSDK/wpa_supplicant/wpa_supplicant\bssid_ignore.c **** 
 143:C:/Users/stapi/OneDrive/Desktop/GD32VW553/V1_MQTT_OK/GD32VW55X_Wifi_BLE_SDK/GD32VW55x_RELEASE_V1.0.2/MSDK/wpa_supplicant/wpa_supplicant\bssid_ignore.c **** 
 144:C:/Users/stapi/OneDrive/Desktop/GD32VW553/V1_MQTT_OK/GD32VW55X_Wifi_BLE_SDK/GD32VW55x_RELEASE_V1.0.2/MSDK/wpa_supplicant/wpa_supplicant\bssid_ignore.c **** /**
 145:C:/Users/stapi/OneDrive/Desktop/GD32VW553/V1_MQTT_OK/GD32VW55X_Wifi_BLE_SDK/GD32VW55x_RELEASE_V1.0.2/MSDK/wpa_supplicant/wpa_supplicant\bssid_ignore.c ****  * wpa_bssid_ignore_is_listed - Check whether a BSSID is ignored temporarily
 146:C:/Users/stapi/OneDrive/Desktop/GD32VW553/V1_MQTT_OK/GD32VW55X_Wifi_BLE_SDK/GD32VW55x_RELEASE_V1.0.2/MSDK/wpa_supplicant/wpa_supplicant\bssid_ignore.c ****  * @wpa_s: Pointer to wpa_supplicant data
 147:C:/Users/stapi/OneDrive/Desktop/GD32VW553/V1_MQTT_OK/GD32VW55X_Wifi_BLE_SDK/GD32VW55x_RELEASE_V1.0.2/MSDK/wpa_supplicant/wpa_supplicant\bssid_ignore.c ****  * @bssid: BSSID to be checked
 148:C:/Users/stapi/OneDrive/Desktop/GD32VW553/V1_MQTT_OK/GD32VW55X_Wifi_BLE_SDK/GD32VW55x_RELEASE_V1.0.2/MSDK/wpa_supplicant/wpa_supplicant\bssid_ignore.c ****  * Returns: count if BSS is currently considered to be ignored, 0 otherwise
 149:C:/Users/stapi/OneDrive/Desktop/GD32VW553/V1_MQTT_OK/GD32VW55X_Wifi_BLE_SDK/GD32VW55x_RELEASE_V1.0.2/MSDK/wpa_supplicant/wpa_supplicant\bssid_ignore.c ****  */
 150:C:/Users/stapi/OneDrive/Desktop/GD32VW553/V1_MQTT_OK/GD32VW55X_Wifi_BLE_SDK/GD32VW55x_RELEASE_V1.0.2/MSDK/wpa_supplicant/wpa_supplicant\bssid_ignore.c **** int wpa_bssid_ignore_is_listed(struct wpa_supplicant *wpa_s, const u8 *bssid)
 151:C:/Users/stapi/OneDrive/Desktop/GD32VW553/V1_MQTT_OK/GD32VW55X_Wifi_BLE_SDK/GD32VW55x_RELEASE_V1.0.2/MSDK/wpa_supplicant/wpa_supplicant\bssid_ignore.c **** {
 152:C:/Users/stapi/OneDrive/Desktop/GD32VW553/V1_MQTT_OK/GD32VW55X_Wifi_BLE_SDK/GD32VW55x_RELEASE_V1.0.2/MSDK/wpa_supplicant/wpa_supplicant\bssid_ignore.c **** 	struct wpa_bssid_ignore *e;
 153:C:/Users/stapi/OneDrive/Desktop/GD32VW553/V1_MQTT_OK/GD32VW55X_Wifi_BLE_SDK/GD32VW55x_RELEASE_V1.0.2/MSDK/wpa_supplicant/wpa_supplicant\bssid_ignore.c **** 	struct os_reltime now;
 154:C:/Users/stapi/OneDrive/Desktop/GD32VW553/V1_MQTT_OK/GD32VW55X_Wifi_BLE_SDK/GD32VW55x_RELEASE_V1.0.2/MSDK/wpa_supplicant/wpa_supplicant\bssid_ignore.c **** 
 155:C:/Users/stapi/OneDrive/Desktop/GD32VW553/V1_MQTT_OK/GD32VW55X_Wifi_BLE_SDK/GD32VW55x_RELEASE_V1.0.2/MSDK/wpa_supplicant/wpa_supplicant\bssid_ignore.c **** 	e = wpa_bssid_ignore_get(wpa_s, bssid);
 156:C:/Users/stapi/OneDrive/Desktop/GD32VW553/V1_MQTT_OK/GD32VW55X_Wifi_BLE_SDK/GD32VW55x_RELEASE_V1.0.2/MSDK/wpa_supplicant/wpa_supplicant\bssid_ignore.c **** 	if (!e)
 157:C:/Users/stapi/OneDrive/Desktop/GD32VW553/V1_MQTT_OK/GD32VW55X_Wifi_BLE_SDK/GD32VW55x_RELEASE_V1.0.2/MSDK/wpa_supplicant/wpa_supplicant\bssid_ignore.c **** 		return 0;
 158:C:/Users/stapi/OneDrive/Desktop/GD32VW553/V1_MQTT_OK/GD32VW55X_Wifi_BLE_SDK/GD32VW55x_RELEASE_V1.0.2/MSDK/wpa_supplicant/wpa_supplicant\bssid_ignore.c **** 	os_get_reltime(&now);
 159:C:/Users/stapi/OneDrive/Desktop/GD32VW553/V1_MQTT_OK/GD32VW55X_Wifi_BLE_SDK/GD32VW55x_RELEASE_V1.0.2/MSDK/wpa_supplicant/wpa_supplicant\bssid_ignore.c **** 	if (os_reltime_expired(&now, &e->start, e->timeout_secs))
 160:C:/Users/stapi/OneDrive/Desktop/GD32VW553/V1_MQTT_OK/GD32VW55X_Wifi_BLE_SDK/GD32VW55x_RELEASE_V1.0.2/MSDK/wpa_supplicant/wpa_supplicant\bssid_ignore.c **** 		return 0;
 161:C:/Users/stapi/OneDrive/Desktop/GD32VW553/V1_MQTT_OK/GD32VW55X_Wifi_BLE_SDK/GD32VW55x_RELEASE_V1.0.2/MSDK/wpa_supplicant/wpa_supplicant\bssid_ignore.c **** 	return e->count;
 162:C:/Users/stapi/OneDrive/Desktop/GD32VW553/V1_MQTT_OK/GD32VW55X_Wifi_BLE_SDK/GD32VW55x_RELEASE_V1.0.2/MSDK/wpa_supplicant/wpa_supplicant\bssid_ignore.c **** }
 163:C:/Users/stapi/OneDrive/Desktop/GD32VW553/V1_MQTT_OK/GD32VW55X_Wifi_BLE_SDK/GD32VW55x_RELEASE_V1.0.2/MSDK/wpa_supplicant/wpa_supplicant\bssid_ignore.c **** 
 164:C:/Users/stapi/OneDrive/Desktop/GD32VW553/V1_MQTT_OK/GD32VW55X_Wifi_BLE_SDK/GD32VW55x_RELEASE_V1.0.2/MSDK/wpa_supplicant/wpa_supplicant\bssid_ignore.c **** 
 165:C:/Users/stapi/OneDrive/Desktop/GD32VW553/V1_MQTT_OK/GD32VW55X_Wifi_BLE_SDK/GD32VW55x_RELEASE_V1.0.2/MSDK/wpa_supplicant/wpa_supplicant\bssid_ignore.c **** /**
 166:C:/Users/stapi/OneDrive/Desktop/GD32VW553/V1_MQTT_OK/GD32VW55X_Wifi_BLE_SDK/GD32VW55x_RELEASE_V1.0.2/MSDK/wpa_supplicant/wpa_supplicant\bssid_ignore.c ****  * wpa_bssid_ignore_clear - Clear the ignore list of all entries
 167:C:/Users/stapi/OneDrive/Desktop/GD32VW553/V1_MQTT_OK/GD32VW55X_Wifi_BLE_SDK/GD32VW55x_RELEASE_V1.0.2/MSDK/wpa_supplicant/wpa_supplicant\bssid_ignore.c ****  * @wpa_s: Pointer to wpa_supplicant data
 168:C:/Users/stapi/OneDrive/Desktop/GD32VW553/V1_MQTT_OK/GD32VW55X_Wifi_BLE_SDK/GD32VW55x_RELEASE_V1.0.2/MSDK/wpa_supplicant/wpa_supplicant\bssid_ignore.c ****  */
 169:C:/Users/stapi/OneDrive/Desktop/GD32VW553/V1_MQTT_OK/GD32VW55X_Wifi_BLE_SDK/GD32VW55x_RELEASE_V1.0.2/MSDK/wpa_supplicant/wpa_supplicant\bssid_ignore.c **** void wpa_bssid_ignore_clear(struct wpa_supplicant *wpa_s)
 170:C:/Users/stapi/OneDrive/Desktop/GD32VW553/V1_MQTT_OK/GD32VW55X_Wifi_BLE_SDK/GD32VW55x_RELEASE_V1.0.2/MSDK/wpa_supplicant/wpa_supplicant\bssid_ignore.c **** {
 195              		.loc 2 170 1 is_stmt 1
 196              		.cfi_startproc
 197              	.LVL18:
 198 0000 17030000 		call	t0,__riscv_save_3
 198      E7020300 
 199              		.cfi_offset 18, -16
 200              		.cfi_offset 9, -12
 201              		.cfi_offset 8, -8
 202              		.cfi_offset 1, -4
 203              		.cfi_def_cfa_offset 16
 171:C:/Users/stapi/OneDrive/Desktop/GD32VW553/V1_MQTT_OK/GD32VW55X_Wifi_BLE_SDK/GD32VW55x_RELEASE_V1.0.2/MSDK/wpa_supplicant/wpa_supplicant\bssid_ignore.c **** 	struct wpa_bssid_ignore *e, *prev;
 204              		.loc 2 171 2
 172:C:/Users/stapi/OneDrive/Desktop/GD32VW553/V1_MQTT_OK/GD32VW55X_Wifi_BLE_SDK/GD32VW55x_RELEASE_V1.0.2/MSDK/wpa_supplicant/wpa_supplicant\bssid_ignore.c **** 
 173:C:/Users/stapi/OneDrive/Desktop/GD32VW553/V1_MQTT_OK/GD32VW55X_Wifi_BLE_SDK/GD32VW55x_RELEASE_V1.0.2/MSDK/wpa_supplicant/wpa_supplicant\bssid_ignore.c **** 	e = wpa_s->bssid_ignore;
 205              		.loc 2 173 2
 206              		.loc 2 173 4 is_stmt 0
 207 0008 03244518 		lw	s0,388(a0)
 208              	.LVL19:
 174:C:/Users/stapi/OneDrive/Desktop/GD32VW553/V1_MQTT_OK/GD32VW55X_Wifi_BLE_SDK/GD32VW55x_RELEASE_V1.0.2/MSDK/wpa_supplicant/wpa_supplicant\bssid_ignore.c **** 	wpa_s->bssid_ignore = NULL;
 209              		.loc 2 174 2 is_stmt 1
 175:C:/Users/stapi/OneDrive/Desktop/GD32VW553/V1_MQTT_OK/GD32VW55X_Wifi_BLE_SDK/GD32VW55x_RELEASE_V1.0.2/MSDK/wpa_supplicant/wpa_supplicant\bssid_ignore.c **** 	while (e) {
 176:C:/Users/stapi/OneDrive/Desktop/GD32VW553/V1_MQTT_OK/GD32VW55X_Wifi_BLE_SDK/GD32VW55x_RELEASE_V1.0.2/MSDK/wpa_supplicant/wpa_supplicant\bssid_ignore.c **** 		prev = e;
 177:C:/Users/stapi/OneDrive/Desktop/GD32VW553/V1_MQTT_OK/GD32VW55X_Wifi_BLE_SDK/GD32VW55x_RELEASE_V1.0.2/MSDK/wpa_supplicant/wpa_supplicant\bssid_ignore.c **** 		e = e->next;
 178:C:/Users/stapi/OneDrive/Desktop/GD32VW553/V1_MQTT_OK/GD32VW55X_Wifi_BLE_SDK/GD32VW55x_RELEASE_V1.0.2/MSDK/wpa_supplicant/wpa_supplicant\bssid_ignore.c **** 		wpa_printf(MSG_DEBUG, "Removed BSSID " MACSTR
 210              		.loc 2 178 3 is_stmt 0
 211 000c B7040000 		lui	s1,%hi(.LC1)
 174:C:/Users/stapi/OneDrive/Desktop/GD32VW553/V1_MQTT_OK/GD32VW55X_Wifi_BLE_SDK/GD32VW55x_RELEASE_V1.0.2/MSDK/wpa_supplicant/wpa_supplicant\bssid_ignore.c **** 	wpa_s->bssid_ignore = NULL;
 212              		.loc 2 174 22
 213 0010 23220518 		sw	zero,388(a0)
 175:C:/Users/stapi/OneDrive/Desktop/GD32VW553/V1_MQTT_OK/GD32VW55X_Wifi_BLE_SDK/GD32VW55x_RELEASE_V1.0.2/MSDK/wpa_supplicant/wpa_supplicant\bssid_ignore.c **** 	while (e) {
 214              		.loc 2 175 2 is_stmt 1
 215              	.LVL20:
 216              	.L20:
 175:C:/Users/stapi/OneDrive/Desktop/GD32VW553/V1_MQTT_OK/GD32VW55X_Wifi_BLE_SDK/GD32VW55x_RELEASE_V1.0.2/MSDK/wpa_supplicant/wpa_supplicant\bssid_ignore.c **** 	while (e) {
 217              		.loc 2 175 8
 218 0014 09E4     		bne	s0,zero,.L21
 179:C:/Users/stapi/OneDrive/Desktop/GD32VW553/V1_MQTT_OK/GD32VW55X_Wifi_BLE_SDK/GD32VW55x_RELEASE_V1.0.2/MSDK/wpa_supplicant/wpa_supplicant\bssid_ignore.c **** 			   " from ignore list (clear)", MAC2STR(prev->bssid));
 180:C:/Users/stapi/OneDrive/Desktop/GD32VW553/V1_MQTT_OK/GD32VW55X_Wifi_BLE_SDK/GD32VW55x_RELEASE_V1.0.2/MSDK/wpa_supplicant/wpa_supplicant\bssid_ignore.c **** 		os_free(prev);
 181:C:/Users/stapi/OneDrive/Desktop/GD32VW553/V1_MQTT_OK/GD32VW55X_Wifi_BLE_SDK/GD32VW55x_RELEASE_V1.0.2/MSDK/wpa_supplicant/wpa_supplicant\bssid_ignore.c **** 	}
 182:C:/Users/stapi/OneDrive/Desktop/GD32VW553/V1_MQTT_OK/GD32VW55X_Wifi_BLE_SDK/GD32VW55x_RELEASE_V1.0.2/MSDK/wpa_supplicant/wpa_supplicant\bssid_ignore.c **** }
 219              		.loc 2 182 1 is_stmt 0
 220 0016 17030000 		tail	__riscv_restore_3
 220      67000300 
 221              		.cfi_remember_state
 222              		.cfi_restore 18
 223              		.cfi_restore 9
 224              		.cfi_restore 8
 225              		.cfi_restore 1
 226              		.cfi_def_cfa_offset 0
 227              	.L21:
 228              		.cfi_restore_state
 176:C:/Users/stapi/OneDrive/Desktop/GD32VW553/V1_MQTT_OK/GD32VW55X_Wifi_BLE_SDK/GD32VW55x_RELEASE_V1.0.2/MSDK/wpa_supplicant/wpa_supplicant\bssid_ignore.c **** 		e = e->next;
 229              		.loc 2 176 3 is_stmt 1
 230              	.LVL21:
 177:C:/Users/stapi/OneDrive/Desktop/GD32VW553/V1_MQTT_OK/GD32VW55X_Wifi_BLE_SDK/GD32VW55x_RELEASE_V1.0.2/MSDK/wpa_supplicant/wpa_supplicant\bssid_ignore.c **** 		wpa_printf(MSG_DEBUG, "Removed BSSID " MACSTR
 231              		.loc 2 177 3
 178:C:/Users/stapi/OneDrive/Desktop/GD32VW553/V1_MQTT_OK/GD32VW55X_Wifi_BLE_SDK/GD32VW55x_RELEASE_V1.0.2/MSDK/wpa_supplicant/wpa_supplicant\bssid_ignore.c **** 			   " from ignore list (clear)", MAC2STR(prev->bssid));
 232              		.loc 2 178 3 is_stmt 0
 233 001e 83489400 		lbu	a7,9(s0)
 234 0022 03488400 		lbu	a6,8(s0)
 235 0026 83477400 		lbu	a5,7(s0)
 236 002a 03476400 		lbu	a4,6(s0)
 237 002e 83465400 		lbu	a3,5(s0)
 238 0032 03464400 		lbu	a2,4(s0)
 177:C:/Users/stapi/OneDrive/Desktop/GD32VW553/V1_MQTT_OK/GD32VW55X_Wifi_BLE_SDK/GD32VW55x_RELEASE_V1.0.2/MSDK/wpa_supplicant/wpa_supplicant\bssid_ignore.c **** 		wpa_printf(MSG_DEBUG, "Removed BSSID " MACSTR
 239              		.loc 2 177 5
 240 0036 03290400 		lw	s2,0(s0)
 241              	.LVL22:
 178:C:/Users/stapi/OneDrive/Desktop/GD32VW553/V1_MQTT_OK/GD32VW55X_Wifi_BLE_SDK/GD32VW55x_RELEASE_V1.0.2/MSDK/wpa_supplicant/wpa_supplicant\bssid_ignore.c **** 			   " from ignore list (clear)", MAC2STR(prev->bssid));
 242              		.loc 2 178 3 is_stmt 1
 243 003a 93850400 		addi	a1,s1,%lo(.LC1)
 244 003e 0945     		li	a0,2
 245 0040 97000000 		call	wpa_printf
 245      E7800000 
 246              	.LVL23:
 180:C:/Users/stapi/OneDrive/Desktop/GD32VW553/V1_MQTT_OK/GD32VW55X_Wifi_BLE_SDK/GD32VW55x_RELEASE_V1.0.2/MSDK/wpa_supplicant/wpa_supplicant\bssid_ignore.c **** 	}
 247              		.loc 2 180 3
 248 0048 2285     		mv	a0,s0
 249 004a 97000000 		call	os_free
 249      E7800000 
 250              	.LVL24:
 177:C:/Users/stapi/OneDrive/Desktop/GD32VW553/V1_MQTT_OK/GD32VW55X_Wifi_BLE_SDK/GD32VW55x_RELEASE_V1.0.2/MSDK/wpa_supplicant/wpa_supplicant\bssid_ignore.c **** 		wpa_printf(MSG_DEBUG, "Removed BSSID " MACSTR
 251              		.loc 2 177 5 is_stmt 0
 252 0052 4A84     		mv	s0,s2
 253              	.LVL25:
 254 0054 C1B7     		j	.L20
 255              		.cfi_endproc
 256              	.LFE140:
 258              		.section	.rodata.wpa_bssid_ignore_update.str1.4,"aMS",@progbits,1
 259              		.align	2
 260              	.LC2:
 261 0000 52656D6F 		.string	"Removed BSSID %02x:%02x:%02x:%02x:%02x:%02x from ignore list (expired)"
 261      76656420 
 261      42535349 
 261      44202530 
 261      32783A25 
 262              		.section	.text.wpa_bssid_ignore_update,"ax",@progbits
 263              		.align	1
 264              		.globl	wpa_bssid_ignore_update
 266              	wpa_bssid_ignore_update:
 267              	.LFB141:
 183:C:/Users/stapi/OneDrive/Desktop/GD32VW553/V1_MQTT_OK/GD32VW55X_Wifi_BLE_SDK/GD32VW55x_RELEASE_V1.0.2/MSDK/wpa_supplicant/wpa_supplicant\bssid_ignore.c **** 
 184:C:/Users/stapi/OneDrive/Desktop/GD32VW553/V1_MQTT_OK/GD32VW55X_Wifi_BLE_SDK/GD32VW55x_RELEASE_V1.0.2/MSDK/wpa_supplicant/wpa_supplicant\bssid_ignore.c **** 
 185:C:/Users/stapi/OneDrive/Desktop/GD32VW553/V1_MQTT_OK/GD32VW55X_Wifi_BLE_SDK/GD32VW55x_RELEASE_V1.0.2/MSDK/wpa_supplicant/wpa_supplicant\bssid_ignore.c **** /**
 186:C:/Users/stapi/OneDrive/Desktop/GD32VW553/V1_MQTT_OK/GD32VW55X_Wifi_BLE_SDK/GD32VW55x_RELEASE_V1.0.2/MSDK/wpa_supplicant/wpa_supplicant\bssid_ignore.c ****  * wpa_bssid_ignore_update - Update the entries in the ignore list,
 187:C:/Users/stapi/OneDrive/Desktop/GD32VW553/V1_MQTT_OK/GD32VW55X_Wifi_BLE_SDK/GD32VW55x_RELEASE_V1.0.2/MSDK/wpa_supplicant/wpa_supplicant\bssid_ignore.c ****  * deleting entries that have been expired for over an hour.
 188:C:/Users/stapi/OneDrive/Desktop/GD32VW553/V1_MQTT_OK/GD32VW55X_Wifi_BLE_SDK/GD32VW55x_RELEASE_V1.0.2/MSDK/wpa_supplicant/wpa_supplicant\bssid_ignore.c ****  * @wpa_s: Pointer to wpa_supplicant data
 189:C:/Users/stapi/OneDrive/Desktop/GD32VW553/V1_MQTT_OK/GD32VW55X_Wifi_BLE_SDK/GD32VW55x_RELEASE_V1.0.2/MSDK/wpa_supplicant/wpa_supplicant\bssid_ignore.c ****  */
 190:C:/Users/stapi/OneDrive/Desktop/GD32VW553/V1_MQTT_OK/GD32VW55X_Wifi_BLE_SDK/GD32VW55x_RELEASE_V1.0.2/MSDK/wpa_supplicant/wpa_supplicant\bssid_ignore.c **** void wpa_bssid_ignore_update(struct wpa_supplicant *wpa_s)
 191:C:/Users/stapi/OneDrive/Desktop/GD32VW553/V1_MQTT_OK/GD32VW55X_Wifi_BLE_SDK/GD32VW55x_RELEASE_V1.0.2/MSDK/wpa_supplicant/wpa_supplicant\bssid_ignore.c **** {
 268              		.loc 2 191 1 is_stmt 1
 269              		.cfi_startproc
 270              	.LVL26:
 192:C:/Users/stapi/OneDrive/Desktop/GD32VW553/V1_MQTT_OK/GD32VW55X_Wifi_BLE_SDK/GD32VW55x_RELEASE_V1.0.2/MSDK/wpa_supplicant/wpa_supplicant\bssid_ignore.c **** 	struct wpa_bssid_ignore *e, *prev = NULL;
 271              		.loc 2 192 2
 193:C:/Users/stapi/OneDrive/Desktop/GD32VW553/V1_MQTT_OK/GD32VW55X_Wifi_BLE_SDK/GD32VW55x_RELEASE_V1.0.2/MSDK/wpa_supplicant/wpa_supplicant\bssid_ignore.c **** 	struct os_reltime now;
 272              		.loc 2 193 2
 194:C:/Users/stapi/OneDrive/Desktop/GD32VW553/V1_MQTT_OK/GD32VW55X_Wifi_BLE_SDK/GD32VW55x_RELEASE_V1.0.2/MSDK/wpa_supplicant/wpa_supplicant\bssid_ignore.c **** 
 195:C:/Users/stapi/OneDrive/Desktop/GD32VW553/V1_MQTT_OK/GD32VW55X_Wifi_BLE_SDK/GD32VW55x_RELEASE_V1.0.2/MSDK/wpa_supplicant/wpa_supplicant\bssid_ignore.c **** 	if (!wpa_s)
 273              		.loc 2 195 2
 274              		.loc 2 195 5 is_stmt 0
 275 0000 49C9     		beq	a0,zero,.L37
 191:C:/Users/stapi/OneDrive/Desktop/GD32VW553/V1_MQTT_OK/GD32VW55X_Wifi_BLE_SDK/GD32VW55x_RELEASE_V1.0.2/MSDK/wpa_supplicant/wpa_supplicant\bssid_ignore.c **** 	struct wpa_bssid_ignore *e, *prev = NULL;
 276              		.loc 2 191 1
 277 0002 17030000 		call	t0,__riscv_save_6
 277      E7020300 
 278              		.cfi_offset 21, -28
 279              		.cfi_offset 20, -24
 280              		.cfi_offset 19, -20
 281              		.cfi_offset 18, -16
 282              		.cfi_offset 9, -12
 283              		.cfi_offset 8, -8
 284              		.cfi_offset 1, -4
 285              		.cfi_def_cfa_offset 32
 286 000a 4111     		addi	sp,sp,-16
 287              		.cfi_def_cfa_offset 48
 288              	.LBB10:
 289              	.LBB11:
 196:C:/Users/stapi/OneDrive/Desktop/GD32VW553/V1_MQTT_OK/GD32VW55X_Wifi_BLE_SDK/GD32VW55x_RELEASE_V1.0.2/MSDK/wpa_supplicant/wpa_supplicant\bssid_ignore.c **** 		return;
 197:C:/Users/stapi/OneDrive/Desktop/GD32VW553/V1_MQTT_OK/GD32VW55X_Wifi_BLE_SDK/GD32VW55x_RELEASE_V1.0.2/MSDK/wpa_supplicant/wpa_supplicant\bssid_ignore.c **** 
 198:C:/Users/stapi/OneDrive/Desktop/GD32VW553/V1_MQTT_OK/GD32VW55X_Wifi_BLE_SDK/GD32VW55x_RELEASE_V1.0.2/MSDK/wpa_supplicant/wpa_supplicant\bssid_ignore.c **** 	e = wpa_s->bssid_ignore;
 290              		.loc 2 198 4
 291 000c 03244518 		lw	s0,388(a0)
 292 0010 AA84     		mv	s1,a0
 293              	.LVL27:
 294              		.loc 2 198 2 is_stmt 1
 199:C:/Users/stapi/OneDrive/Desktop/GD32VW553/V1_MQTT_OK/GD32VW55X_Wifi_BLE_SDK/GD32VW55x_RELEASE_V1.0.2/MSDK/wpa_supplicant/wpa_supplicant\bssid_ignore.c **** 	os_get_reltime(&now);
 295              		.loc 2 199 2
 200:C:/Users/stapi/OneDrive/Desktop/GD32VW553/V1_MQTT_OK/GD32VW55X_Wifi_BLE_SDK/GD32VW55x_RELEASE_V1.0.2/MSDK/wpa_supplicant/wpa_supplicant\bssid_ignore.c **** 	while (e) {
 201:C:/Users/stapi/OneDrive/Desktop/GD32VW553/V1_MQTT_OK/GD32VW55X_Wifi_BLE_SDK/GD32VW55x_RELEASE_V1.0.2/MSDK/wpa_supplicant/wpa_supplicant\bssid_ignore.c **** 		if (os_reltime_expired(&now, &e->start,
 202:C:/Users/stapi/OneDrive/Desktop/GD32VW553/V1_MQTT_OK/GD32VW55X_Wifi_BLE_SDK/GD32VW55x_RELEASE_V1.0.2/MSDK/wpa_supplicant/wpa_supplicant\bssid_ignore.c **** 				       e->timeout_secs + 3600)) {
 296              		.loc 2 202 28 is_stmt 0
 297 0012 8569     		li	s3,4096
 199:C:/Users/stapi/OneDrive/Desktop/GD32VW553/V1_MQTT_OK/GD32VW55X_Wifi_BLE_SDK/GD32VW55x_RELEASE_V1.0.2/MSDK/wpa_supplicant/wpa_supplicant\bssid_ignore.c **** 	os_get_reltime(&now);
 298              		.loc 2 199 2
 299 0014 2800     		addi	a0,sp,8
 300              	.LVL28:
 301 0016 97000000 		call	os_get_reltime
 301      E7800000 
 302              	.LVL29:
 200:C:/Users/stapi/OneDrive/Desktop/GD32VW553/V1_MQTT_OK/GD32VW55X_Wifi_BLE_SDK/GD32VW55x_RELEASE_V1.0.2/MSDK/wpa_supplicant/wpa_supplicant\bssid_ignore.c **** 	while (e) {
 303              		.loc 2 200 2 is_stmt 1
 192:C:/Users/stapi/OneDrive/Desktop/GD32VW553/V1_MQTT_OK/GD32VW55X_Wifi_BLE_SDK/GD32VW55x_RELEASE_V1.0.2/MSDK/wpa_supplicant/wpa_supplicant\bssid_ignore.c **** 	struct os_reltime now;
 304              		.loc 2 192 31 is_stmt 0
 305 001e 0149     		li	s2,0
 306              		.loc 2 202 28
 307 0020 938909E1 		addi	s3,s3,-496
 308              	.LBB12:
 203:C:/Users/stapi/OneDrive/Desktop/GD32VW553/V1_MQTT_OK/GD32VW55X_Wifi_BLE_SDK/GD32VW55x_RELEASE_V1.0.2/MSDK/wpa_supplicant/wpa_supplicant\bssid_ignore.c **** 			struct wpa_bssid_ignore *to_delete = e;
 204:C:/Users/stapi/OneDrive/Desktop/GD32VW553/V1_MQTT_OK/GD32VW55X_Wifi_BLE_SDK/GD32VW55x_RELEASE_V1.0.2/MSDK/wpa_supplicant/wpa_supplicant\bssid_ignore.c **** 
 205:C:/Users/stapi/OneDrive/Desktop/GD32VW553/V1_MQTT_OK/GD32VW55X_Wifi_BLE_SDK/GD32VW55x_RELEASE_V1.0.2/MSDK/wpa_supplicant/wpa_supplicant\bssid_ignore.c **** 			if (prev) {
 206:C:/Users/stapi/OneDrive/Desktop/GD32VW553/V1_MQTT_OK/GD32VW55X_Wifi_BLE_SDK/GD32VW55x_RELEASE_V1.0.2/MSDK/wpa_supplicant/wpa_supplicant\bssid_ignore.c **** 				prev->next = e->next;
 207:C:/Users/stapi/OneDrive/Desktop/GD32VW553/V1_MQTT_OK/GD32VW55X_Wifi_BLE_SDK/GD32VW55x_RELEASE_V1.0.2/MSDK/wpa_supplicant/wpa_supplicant\bssid_ignore.c **** 				e = prev->next;
 208:C:/Users/stapi/OneDrive/Desktop/GD32VW553/V1_MQTT_OK/GD32VW55X_Wifi_BLE_SDK/GD32VW55x_RELEASE_V1.0.2/MSDK/wpa_supplicant/wpa_supplicant\bssid_ignore.c **** 			} else {
 209:C:/Users/stapi/OneDrive/Desktop/GD32VW553/V1_MQTT_OK/GD32VW55X_Wifi_BLE_SDK/GD32VW55x_RELEASE_V1.0.2/MSDK/wpa_supplicant/wpa_supplicant\bssid_ignore.c **** 				wpa_s->bssid_ignore = e->next;
 210:C:/Users/stapi/OneDrive/Desktop/GD32VW553/V1_MQTT_OK/GD32VW55X_Wifi_BLE_SDK/GD32VW55x_RELEASE_V1.0.2/MSDK/wpa_supplicant/wpa_supplicant\bssid_ignore.c **** 				e = wpa_s->bssid_ignore;
 211:C:/Users/stapi/OneDrive/Desktop/GD32VW553/V1_MQTT_OK/GD32VW55X_Wifi_BLE_SDK/GD32VW55x_RELEASE_V1.0.2/MSDK/wpa_supplicant/wpa_supplicant\bssid_ignore.c **** 			}
 212:C:/Users/stapi/OneDrive/Desktop/GD32VW553/V1_MQTT_OK/GD32VW55X_Wifi_BLE_SDK/GD32VW55x_RELEASE_V1.0.2/MSDK/wpa_supplicant/wpa_supplicant\bssid_ignore.c **** 			wpa_printf(MSG_INFO, "Removed BSSID " MACSTR
 309              		.loc 2 212 4
 310 0024 B70A0000 		lui	s5,%hi(.LC2)
 311              	.LVL30:
 312              	.L25:
 313              	.LBE12:
 200:C:/Users/stapi/OneDrive/Desktop/GD32VW553/V1_MQTT_OK/GD32VW55X_Wifi_BLE_SDK/GD32VW55x_RELEASE_V1.0.2/MSDK/wpa_supplicant/wpa_supplicant\bssid_ignore.c **** 		if (os_reltime_expired(&now, &e->start,
 314              		.loc 2 200 8 is_stmt 1
 315 0028 11E4     		bne	s0,zero,.L29
 316              	.LBE11:
 317              	.LBE10:
 213:C:/Users/stapi/OneDrive/Desktop/GD32VW553/V1_MQTT_OK/GD32VW55X_Wifi_BLE_SDK/GD32VW55x_RELEASE_V1.0.2/MSDK/wpa_supplicant/wpa_supplicant\bssid_ignore.c **** 				   " from ignore list (expired)",
 214:C:/Users/stapi/OneDrive/Desktop/GD32VW553/V1_MQTT_OK/GD32VW55X_Wifi_BLE_SDK/GD32VW55x_RELEASE_V1.0.2/MSDK/wpa_supplicant/wpa_supplicant\bssid_ignore.c **** 				   MAC2STR(to_delete->bssid));
 215:C:/Users/stapi/OneDrive/Desktop/GD32VW553/V1_MQTT_OK/GD32VW55X_Wifi_BLE_SDK/GD32VW55x_RELEASE_V1.0.2/MSDK/wpa_supplicant/wpa_supplicant\bssid_ignore.c **** 			os_free(to_delete);
 216:C:/Users/stapi/OneDrive/Desktop/GD32VW553/V1_MQTT_OK/GD32VW55X_Wifi_BLE_SDK/GD32VW55x_RELEASE_V1.0.2/MSDK/wpa_supplicant/wpa_supplicant\bssid_ignore.c **** 		} else {
 217:C:/Users/stapi/OneDrive/Desktop/GD32VW553/V1_MQTT_OK/GD32VW55X_Wifi_BLE_SDK/GD32VW55x_RELEASE_V1.0.2/MSDK/wpa_supplicant/wpa_supplicant\bssid_ignore.c **** 			prev = e;
 218:C:/Users/stapi/OneDrive/Desktop/GD32VW553/V1_MQTT_OK/GD32VW55X_Wifi_BLE_SDK/GD32VW55x_RELEASE_V1.0.2/MSDK/wpa_supplicant/wpa_supplicant\bssid_ignore.c **** 			e = e->next;
 219:C:/Users/stapi/OneDrive/Desktop/GD32VW553/V1_MQTT_OK/GD32VW55X_Wifi_BLE_SDK/GD32VW55x_RELEASE_V1.0.2/MSDK/wpa_supplicant/wpa_supplicant\bssid_ignore.c **** 		}
 220:C:/Users/stapi/OneDrive/Desktop/GD32VW553/V1_MQTT_OK/GD32VW55X_Wifi_BLE_SDK/GD32VW55x_RELEASE_V1.0.2/MSDK/wpa_supplicant/wpa_supplicant\bssid_ignore.c **** 	}
 221:C:/Users/stapi/OneDrive/Desktop/GD32VW553/V1_MQTT_OK/GD32VW55X_Wifi_BLE_SDK/GD32VW55x_RELEASE_V1.0.2/MSDK/wpa_supplicant/wpa_supplicant\bssid_ignore.c **** }
 318              		.loc 2 221 1 is_stmt 0
 319 002a 4101     		addi	sp,sp,16
 320              		.cfi_remember_state
 321              		.cfi_def_cfa_offset 0
 322 002c 17030000 		tail	__riscv_restore_6
 322      67000300 
 323              		.cfi_restore 21
 324              		.cfi_restore 20
 325              		.cfi_restore 19
 326              		.cfi_restore 18
 327              		.cfi_restore 9
 328              		.cfi_restore 8
 329              		.cfi_restore 1
 330              		.cfi_def_cfa_offset -32
 331              	.L29:
 332              		.cfi_restore_state
 333              	.LBB17:
 334              	.LBB16:
 201:C:/Users/stapi/OneDrive/Desktop/GD32VW553/V1_MQTT_OK/GD32VW55X_Wifi_BLE_SDK/GD32VW55x_RELEASE_V1.0.2/MSDK/wpa_supplicant/wpa_supplicant\bssid_ignore.c **** 				       e->timeout_secs + 3600)) {
 335              		.loc 2 201 3 is_stmt 1
 202:C:/Users/stapi/OneDrive/Desktop/GD32VW553/V1_MQTT_OK/GD32VW55X_Wifi_BLE_SDK/GD32VW55x_RELEASE_V1.0.2/MSDK/wpa_supplicant/wpa_supplicant\bssid_ignore.c **** 			struct wpa_bssid_ignore *to_delete = e;
 336              		.loc 2 202 28 is_stmt 0
 337 0034 104C     		lw	a2,24(s0)
 201:C:/Users/stapi/OneDrive/Desktop/GD32VW553/V1_MQTT_OK/GD32VW55X_Wifi_BLE_SDK/GD32VW55x_RELEASE_V1.0.2/MSDK/wpa_supplicant/wpa_supplicant\bssid_ignore.c **** 				       e->timeout_secs + 3600)) {
 338              		.loc 2 201 7
 339 0036 93050401 		addi	a1,s0,16
 340 003a 2800     		addi	a0,sp,8
 341 003c 4E96     		add	a2,a2,s3
 342 003e 97000000 		call	os_reltime_expired
 342      E7800000 
 343              	.LVL31:
 344              	.LBB13:
 206:C:/Users/stapi/OneDrive/Desktop/GD32VW553/V1_MQTT_OK/GD32VW55X_Wifi_BLE_SDK/GD32VW55x_RELEASE_V1.0.2/MSDK/wpa_supplicant/wpa_supplicant\bssid_ignore.c **** 				e = prev->next;
 345              		.loc 2 206 19
 346 0046 032A0400 		lw	s4,0(s0)
 347              	.LBE13:
 201:C:/Users/stapi/OneDrive/Desktop/GD32VW553/V1_MQTT_OK/GD32VW55X_Wifi_BLE_SDK/GD32VW55x_RELEASE_V1.0.2/MSDK/wpa_supplicant/wpa_supplicant\bssid_ignore.c **** 				       e->timeout_secs + 3600)) {
 348              		.loc 2 201 6
 349 004a 15CD     		beq	a0,zero,.L26
 350              	.LBB14:
 203:C:/Users/stapi/OneDrive/Desktop/GD32VW553/V1_MQTT_OK/GD32VW55X_Wifi_BLE_SDK/GD32VW55x_RELEASE_V1.0.2/MSDK/wpa_supplicant/wpa_supplicant\bssid_ignore.c **** 
 351              		.loc 2 203 4 is_stmt 1
 352              	.LVL32:
 205:C:/Users/stapi/OneDrive/Desktop/GD32VW553/V1_MQTT_OK/GD32VW55X_Wifi_BLE_SDK/GD32VW55x_RELEASE_V1.0.2/MSDK/wpa_supplicant/wpa_supplicant\bssid_ignore.c **** 				prev->next = e->next;
 353              		.loc 2 205 4
 205:C:/Users/stapi/OneDrive/Desktop/GD32VW553/V1_MQTT_OK/GD32VW55X_Wifi_BLE_SDK/GD32VW55x_RELEASE_V1.0.2/MSDK/wpa_supplicant/wpa_supplicant\bssid_ignore.c **** 				prev->next = e->next;
 354              		.loc 2 205 7 is_stmt 0
 355 004c 63000904 		beq	s2,zero,.L27
 206:C:/Users/stapi/OneDrive/Desktop/GD32VW553/V1_MQTT_OK/GD32VW55X_Wifi_BLE_SDK/GD32VW55x_RELEASE_V1.0.2/MSDK/wpa_supplicant/wpa_supplicant\bssid_ignore.c **** 				e = prev->next;
 356              		.loc 2 206 5 is_stmt 1
 206:C:/Users/stapi/OneDrive/Desktop/GD32VW553/V1_MQTT_OK/GD32VW55X_Wifi_BLE_SDK/GD32VW55x_RELEASE_V1.0.2/MSDK/wpa_supplicant/wpa_supplicant\bssid_ignore.c **** 				e = prev->next;
 357              		.loc 2 206 16 is_stmt 0
 358 0050 23204901 		sw	s4,0(s2)
 207:C:/Users/stapi/OneDrive/Desktop/GD32VW553/V1_MQTT_OK/GD32VW55X_Wifi_BLE_SDK/GD32VW55x_RELEASE_V1.0.2/MSDK/wpa_supplicant/wpa_supplicant\bssid_ignore.c **** 			} else {
 359              		.loc 2 207 5 is_stmt 1
 360              	.LVL33:
 361              	.L28:
 212:C:/Users/stapi/OneDrive/Desktop/GD32VW553/V1_MQTT_OK/GD32VW55X_Wifi_BLE_SDK/GD32VW55x_RELEASE_V1.0.2/MSDK/wpa_supplicant/wpa_supplicant\bssid_ignore.c **** 				   " from ignore list (expired)",
 362              		.loc 2 212 4
 363 0054 83489400 		lbu	a7,9(s0)
 364 0058 03488400 		lbu	a6,8(s0)
 365 005c 83477400 		lbu	a5,7(s0)
 366 0060 03476400 		lbu	a4,6(s0)
 367 0064 83465400 		lbu	a3,5(s0)
 368 0068 03464400 		lbu	a2,4(s0)
 369 006c 93850A00 		addi	a1,s5,%lo(.LC2)
 370 0070 0D45     		li	a0,3
 371 0072 97000000 		call	wpa_printf
 371      E7800000 
 372              	.LVL34:
 215:C:/Users/stapi/OneDrive/Desktop/GD32VW553/V1_MQTT_OK/GD32VW55X_Wifi_BLE_SDK/GD32VW55x_RELEASE_V1.0.2/MSDK/wpa_supplicant/wpa_supplicant\bssid_ignore.c **** 		} else {
 373              		.loc 2 215 4
 374 007a 2285     		mv	a0,s0
 375 007c 97000000 		call	os_free
 375      E7800000 
 376              	.LVL35:
 377              	.LBE14:
 378 0084 4A84     		mv	s0,s2
 379              	.LVL36:
 380              	.L26:
 381 0086 2289     		mv	s2,s0
 382 0088 5284     		mv	s0,s4
 383 008a 79BF     		j	.L25
 384              	.LVL37:
 385              	.L27:
 386              	.LBB15:
 209:C:/Users/stapi/OneDrive/Desktop/GD32VW553/V1_MQTT_OK/GD32VW55X_Wifi_BLE_SDK/GD32VW55x_RELEASE_V1.0.2/MSDK/wpa_supplicant/wpa_supplicant\bssid_ignore.c **** 				e = wpa_s->bssid_ignore;
 387              		.loc 2 209 5
 209:C:/Users/stapi/OneDrive/Desktop/GD32VW553/V1_MQTT_OK/GD32VW55X_Wifi_BLE_SDK/GD32VW55x_RELEASE_V1.0.2/MSDK/wpa_supplicant/wpa_supplicant\bssid_ignore.c **** 				e = wpa_s->bssid_ignore;
 388              		.loc 2 209 25 is_stmt 0
 389 008c 23A24419 		sw	s4,388(s1)
 210:C:/Users/stapi/OneDrive/Desktop/GD32VW553/V1_MQTT_OK/GD32VW55X_Wifi_BLE_SDK/GD32VW55x_RELEASE_V1.0.2/MSDK/wpa_supplicant/wpa_supplicant\bssid_ignore.c **** 			}
 390              		.loc 2 210 5 is_stmt 1
 391              	.LVL38:
 392 0090 D1B7     		j	.L28
 393              	.LVL39:
 394              	.L37:
 395              		.cfi_def_cfa_offset 0
 396              		.cfi_restore 1
 397              		.cfi_restore 8
 398              		.cfi_restore 9
 399              		.cfi_restore 18
 400              		.cfi_restore 19
 401              		.cfi_restore 20
 402              		.cfi_restore 21
 403 0092 8280     		ret
 404              	.LBE15:
 405              	.LBE16:
 406              	.LBE17:
 407              		.cfi_endproc
 408              	.LFE141:
 410              		.section	.text.wpa_bssid_ignore_get,"ax",@progbits
 411              		.align	1
 412              		.globl	wpa_bssid_ignore_get
 414              	wpa_bssid_ignore_get:
 415              	.LFB136:
  23:C:/Users/stapi/OneDrive/Desktop/GD32VW553/V1_MQTT_OK/GD32VW55X_Wifi_BLE_SDK/GD32VW55x_RELEASE_V1.0.2/MSDK/wpa_supplicant/wpa_supplicant\bssid_ignore.c **** 	struct wpa_bssid_ignore *e;
 416              		.loc 2 23 1
 417              		.cfi_startproc
 418              	.LVL40:
 419 0000 17030000 		call	t0,__riscv_save_2
 419      E7020300 
 420              		.cfi_offset 9, -12
 421              		.cfi_offset 8, -8
 422              		.cfi_offset 1, -4
 423              		.cfi_def_cfa_offset 16
  24:C:/Users/stapi/OneDrive/Desktop/GD32VW553/V1_MQTT_OK/GD32VW55X_Wifi_BLE_SDK/GD32VW55x_RELEASE_V1.0.2/MSDK/wpa_supplicant/wpa_supplicant\bssid_ignore.c **** 
 424              		.loc 2 24 2
  26:C:/Users/stapi/OneDrive/Desktop/GD32VW553/V1_MQTT_OK/GD32VW55X_Wifi_BLE_SDK/GD32VW55x_RELEASE_V1.0.2/MSDK/wpa_supplicant/wpa_supplicant\bssid_ignore.c **** 		return NULL;
 425              		.loc 2 26 2
  26:C:/Users/stapi/OneDrive/Desktop/GD32VW553/V1_MQTT_OK/GD32VW55X_Wifi_BLE_SDK/GD32VW55x_RELEASE_V1.0.2/MSDK/wpa_supplicant/wpa_supplicant\bssid_ignore.c **** 		return NULL;
 426              		.loc 2 26 5 is_stmt 0
 427 0008 19E5     		bne	a0,zero,.L41
 428              	.LVL41:
 429              	.L60:
  33:C:/Users/stapi/OneDrive/Desktop/GD32VW553/V1_MQTT_OK/GD32VW55X_Wifi_BLE_SDK/GD32VW55x_RELEASE_V1.0.2/MSDK/wpa_supplicant/wpa_supplicant\bssid_ignore.c **** 	}
 430              		.loc 2 33 3 is_stmt 1
  33:C:/Users/stapi/OneDrive/Desktop/GD32VW553/V1_MQTT_OK/GD32VW55X_Wifi_BLE_SDK/GD32VW55x_RELEASE_V1.0.2/MSDK/wpa_supplicant/wpa_supplicant\bssid_ignore.c **** 	}
 431              		.loc 2 33 10 is_stmt 0
 432 000a 0144     		li	s0,0
 433              	.L40:
  46:C:/Users/stapi/OneDrive/Desktop/GD32VW553/V1_MQTT_OK/GD32VW55X_Wifi_BLE_SDK/GD32VW55x_RELEASE_V1.0.2/MSDK/wpa_supplicant/wpa_supplicant\bssid_ignore.c **** 
 434              		.loc 2 46 1
 435 000c 2285     		mv	a0,s0
 436 000e 17030000 		tail	__riscv_restore_2
 436      67000300 
 437              		.cfi_remember_state
 438              		.cfi_restore 9
 439              		.cfi_restore 8
 440              		.cfi_restore 1
 441              		.cfi_def_cfa_offset 0
 442              	.LVL42:
 443              	.L41:
 444              		.cfi_restore_state
 445 0016 AE84     		mv	s1,a1
  26:C:/Users/stapi/OneDrive/Desktop/GD32VW553/V1_MQTT_OK/GD32VW55X_Wifi_BLE_SDK/GD32VW55x_RELEASE_V1.0.2/MSDK/wpa_supplicant/wpa_supplicant\bssid_ignore.c **** 		return NULL;
 446              		.loc 2 26 20 discriminator 1
 447 0018 EDD9     		beq	a1,zero,.L60
 448              	.LVL43:
  29:C:/Users/stapi/OneDrive/Desktop/GD32VW553/V1_MQTT_OK/GD32VW55X_Wifi_BLE_SDK/GD32VW55x_RELEASE_V1.0.2/MSDK/wpa_supplicant/wpa_supplicant\bssid_ignore.c **** 	    wpa_s->current_ssid->was_recently_reconfigured) {
 449              		.loc 2 29 11
 450 001a 83270509 		lw	a5,144(a0)
 451 001e 2A84     		mv	s0,a0
  29:C:/Users/stapi/OneDrive/Desktop/GD32VW553/V1_MQTT_OK/GD32VW55X_Wifi_BLE_SDK/GD32VW55x_RELEASE_V1.0.2/MSDK/wpa_supplicant/wpa_supplicant\bssid_ignore.c **** 	    wpa_s->current_ssid->was_recently_reconfigured) {
 452              		.loc 2 29 2 is_stmt 1
  29:C:/Users/stapi/OneDrive/Desktop/GD32VW553/V1_MQTT_OK/GD32VW55X_Wifi_BLE_SDK/GD32VW55x_RELEASE_V1.0.2/MSDK/wpa_supplicant/wpa_supplicant\bssid_ignore.c **** 	    wpa_s->current_ssid->was_recently_reconfigured) {
 453              		.loc 2 29 5 is_stmt 0
 454 0020 89CF     		beq	a5,zero,.L44
 455              	.LVL44:
  29:C:/Users/stapi/OneDrive/Desktop/GD32VW553/V1_MQTT_OK/GD32VW55X_Wifi_BLE_SDK/GD32VW55x_RELEASE_V1.0.2/MSDK/wpa_supplicant/wpa_supplicant\bssid_ignore.c **** 	    wpa_s->current_ssid->was_recently_reconfigured) {
 456              		.loc 2 29 26 discriminator 1
 457 0022 83C7C71B 		lbu	a5,444(a5)
 458 0026 91CB     		beq	a5,zero,.L44
  31:C:/Users/stapi/OneDrive/Desktop/GD32VW553/V1_MQTT_OK/GD32VW55X_Wifi_BLE_SDK/GD32VW55x_RELEASE_V1.0.2/MSDK/wpa_supplicant/wpa_supplicant\bssid_ignore.c **** 		wpa_s->current_ssid->was_recently_reconfigured = false;
 459              		.loc 2 31 3 is_stmt 1
 460 0028 97000000 		call	wpa_bssid_ignore_clear
 460      E7800000 
 461              	.LVL45:
  32:C:/Users/stapi/OneDrive/Desktop/GD32VW553/V1_MQTT_OK/GD32VW55X_Wifi_BLE_SDK/GD32VW55x_RELEASE_V1.0.2/MSDK/wpa_supplicant/wpa_supplicant\bssid_ignore.c **** 		return NULL;
 462              		.loc 2 32 3
  32:C:/Users/stapi/OneDrive/Desktop/GD32VW553/V1_MQTT_OK/GD32VW55X_Wifi_BLE_SDK/GD32VW55x_RELEASE_V1.0.2/MSDK/wpa_supplicant/wpa_supplicant\bssid_ignore.c **** 		return NULL;
 463              		.loc 2 32 50 is_stmt 0
 464 0030 83270409 		lw	a5,144(s0)
 465 0034 238E071A 		sb	zero,444(a5)
 466 0038 C9BF     		j	.L60
 467              	.L44:
  36:C:/Users/stapi/OneDrive/Desktop/GD32VW553/V1_MQTT_OK/GD32VW55X_Wifi_BLE_SDK/GD32VW55x_RELEASE_V1.0.2/MSDK/wpa_supplicant/wpa_supplicant\bssid_ignore.c **** 
 468              		.loc 2 36 2 is_stmt 1
 469 003a 2285     		mv	a0,s0
 470 003c 97000000 		call	wpa_bssid_ignore_update
 470      E7800000 
 471              	.LVL46:
  38:C:/Users/stapi/OneDrive/Desktop/GD32VW553/V1_MQTT_OK/GD32VW55X_Wifi_BLE_SDK/GD32VW55x_RELEASE_V1.0.2/MSDK/wpa_supplicant/wpa_supplicant\bssid_ignore.c **** 	while (e) {
 472              		.loc 2 38 2
  38:C:/Users/stapi/OneDrive/Desktop/GD32VW553/V1_MQTT_OK/GD32VW55X_Wifi_BLE_SDK/GD32VW55x_RELEASE_V1.0.2/MSDK/wpa_supplicant/wpa_supplicant\bssid_ignore.c **** 	while (e) {
 473              		.loc 2 38 4 is_stmt 0
 474 0044 03244418 		lw	s0,388(s0)
 475              	.LVL47:
  39:C:/Users/stapi/OneDrive/Desktop/GD32VW553/V1_MQTT_OK/GD32VW55X_Wifi_BLE_SDK/GD32VW55x_RELEASE_V1.0.2/MSDK/wpa_supplicant/wpa_supplicant\bssid_ignore.c **** 		if (os_memcmp(e->bssid, bssid, ETH_ALEN) == 0)
 476              		.loc 2 39 2 is_stmt 1
 477              	.L45:
  39:C:/Users/stapi/OneDrive/Desktop/GD32VW553/V1_MQTT_OK/GD32VW55X_Wifi_BLE_SDK/GD32VW55x_RELEASE_V1.0.2/MSDK/wpa_supplicant/wpa_supplicant\bssid_ignore.c **** 		if (os_memcmp(e->bssid, bssid, ETH_ALEN) == 0)
 478              		.loc 2 39 8
 479 0048 69D0     		beq	s0,zero,.L60
  40:C:/Users/stapi/OneDrive/Desktop/GD32VW553/V1_MQTT_OK/GD32VW55X_Wifi_BLE_SDK/GD32VW55x_RELEASE_V1.0.2/MSDK/wpa_supplicant/wpa_supplicant\bssid_ignore.c **** 			return e;
 480              		.loc 2 40 3
  40:C:/Users/stapi/OneDrive/Desktop/GD32VW553/V1_MQTT_OK/GD32VW55X_Wifi_BLE_SDK/GD32VW55x_RELEASE_V1.0.2/MSDK/wpa_supplicant/wpa_supplicant\bssid_ignore.c **** 			return e;
 481              		.loc 2 40 7 is_stmt 0
 482 004a 1946     		li	a2,6
 483 004c A685     		mv	a1,s1
 484 004e 13054400 		addi	a0,s0,4
 485 0052 97000000 		call	os_memcmp
 485      E7800000 
 486              	.LVL48:
  40:C:/Users/stapi/OneDrive/Desktop/GD32VW553/V1_MQTT_OK/GD32VW55X_Wifi_BLE_SDK/GD32VW55x_RELEASE_V1.0.2/MSDK/wpa_supplicant/wpa_supplicant\bssid_ignore.c **** 			return e;
 487              		.loc 2 40 6
 488 005a 4DD9     		beq	a0,zero,.L40
  42:C:/Users/stapi/OneDrive/Desktop/GD32VW553/V1_MQTT_OK/GD32VW55X_Wifi_BLE_SDK/GD32VW55x_RELEASE_V1.0.2/MSDK/wpa_supplicant/wpa_supplicant\bssid_ignore.c **** 	}
 489              		.loc 2 42 3 is_stmt 1
  42:C:/Users/stapi/OneDrive/Desktop/GD32VW553/V1_MQTT_OK/GD32VW55X_Wifi_BLE_SDK/GD32VW55x_RELEASE_V1.0.2/MSDK/wpa_supplicant/wpa_supplicant\bssid_ignore.c **** 	}
 490              		.loc 2 42 5 is_stmt 0
 491 005c 0040     		lw	s0,0(s0)
 492              	.LVL49:
 493 005e EDB7     		j	.L45
 494              		.cfi_endproc
 495              	.LFE136:
 497              		.section	.rodata.wpa_bssid_ignore_add.str1.4,"aMS",@progbits,1
 498              		.align	2
 499              	.LC3:
 500 0000 42535349 		.string	"BSSID %02x:%02x:%02x:%02x:%02x:%02x ignore list count incremented to %d, ignoring for %d 
 500      44202530 
 500      32783A25 
 500      3032783A 
 500      25303278 
 501 0061 000000   		.align	2
 502              	.LC4:
 503 0064 41646465 		.string	"Added BSSID %02x:%02x:%02x:%02x:%02x:%02x into ignore list, ignoring for %d seconds"
 503      64204253 
 503      53494420 
 503      25303278 
 503      3A253032 
 504              		.section	.text.wpa_bssid_ignore_add,"ax",@progbits
 505              		.align	1
 506              		.globl	wpa_bssid_ignore_add
 508              	wpa_bssid_ignore_add:
 509              	.LFB137:
  66:C:/Users/stapi/OneDrive/Desktop/GD32VW553/V1_MQTT_OK/GD32VW55X_Wifi_BLE_SDK/GD32VW55x_RELEASE_V1.0.2/MSDK/wpa_supplicant/wpa_supplicant\bssid_ignore.c **** 	struct wpa_bssid_ignore *e;
 510              		.loc 2 66 1 is_stmt 1
 511              		.cfi_startproc
 512              	.LVL50:
  67:C:/Users/stapi/OneDrive/Desktop/GD32VW553/V1_MQTT_OK/GD32VW55X_Wifi_BLE_SDK/GD32VW55x_RELEASE_V1.0.2/MSDK/wpa_supplicant/wpa_supplicant\bssid_ignore.c **** 	struct os_reltime now;
 513              		.loc 2 67 2
  68:C:/Users/stapi/OneDrive/Desktop/GD32VW553/V1_MQTT_OK/GD32VW55X_Wifi_BLE_SDK/GD32VW55x_RELEASE_V1.0.2/MSDK/wpa_supplicant/wpa_supplicant\bssid_ignore.c **** 
 514              		.loc 2 68 2
  70:C:/Users/stapi/OneDrive/Desktop/GD32VW553/V1_MQTT_OK/GD32VW55X_Wifi_BLE_SDK/GD32VW55x_RELEASE_V1.0.2/MSDK/wpa_supplicant/wpa_supplicant\bssid_ignore.c **** 		return -1;
 515              		.loc 2 70 2
  70:C:/Users/stapi/OneDrive/Desktop/GD32VW553/V1_MQTT_OK/GD32VW55X_Wifi_BLE_SDK/GD32VW55x_RELEASE_V1.0.2/MSDK/wpa_supplicant/wpa_supplicant\bssid_ignore.c **** 		return -1;
 516              		.loc 2 70 5 is_stmt 0
 517 0000 09E9     		bne	a0,zero,.L62
  71:C:/Users/stapi/OneDrive/Desktop/GD32VW553/V1_MQTT_OK/GD32VW55X_Wifi_BLE_SDK/GD32VW55x_RELEASE_V1.0.2/MSDK/wpa_supplicant/wpa_supplicant\bssid_ignore.c **** 
 518              		.loc 2 71 10
 519 0002 7D55     		li	a0,-1
 520              	.LVL51:
 108:C:/Users/stapi/OneDrive/Desktop/GD32VW553/V1_MQTT_OK/GD32VW55X_Wifi_BLE_SDK/GD32VW55x_RELEASE_V1.0.2/MSDK/wpa_supplicant/wpa_supplicant\bssid_ignore.c **** 
 521              		.loc 2 108 1
 522 0004 8280     		ret
 523              	.LVL52:
 524              	.L64:
 525              		.cfi_def_cfa_offset 48
 526              		.cfi_offset 1, -4
 527              		.cfi_offset 8, -8
 528              		.cfi_offset 9, -12
 529              		.cfi_offset 18, -16
  71:C:/Users/stapi/OneDrive/Desktop/GD32VW553/V1_MQTT_OK/GD32VW55X_Wifi_BLE_SDK/GD32VW55x_RELEASE_V1.0.2/MSDK/wpa_supplicant/wpa_supplicant\bssid_ignore.c **** 
 530              		.loc 2 71 10
 531 0006 7D55     		li	a0,-1
 532              	.L61:
 108:C:/Users/stapi/OneDrive/Desktop/GD32VW553/V1_MQTT_OK/GD32VW55X_Wifi_BLE_SDK/GD32VW55x_RELEASE_V1.0.2/MSDK/wpa_supplicant/wpa_supplicant\bssid_ignore.c **** 
 533              		.loc 2 108 1
 534 0008 0561     		addi	sp,sp,32
 535              		.cfi_def_cfa_offset 0
 536 000a 17030000 		tail	__riscv_restore_3
 536      67000300 
 537              		.cfi_restore 18
 538              		.cfi_restore 9
 539              		.cfi_restore 8
 540              		.cfi_restore 1
 541              		.cfi_def_cfa_offset -16
 542              	.LVL53:
 543              	.L62:
 544              		.cfi_def_cfa_offset 0
  66:C:/Users/stapi/OneDrive/Desktop/GD32VW553/V1_MQTT_OK/GD32VW55X_Wifi_BLE_SDK/GD32VW55x_RELEASE_V1.0.2/MSDK/wpa_supplicant/wpa_supplicant\bssid_ignore.c **** 	struct wpa_bssid_ignore *e;
 545              		.loc 2 66 1 discriminator 1
 546 0012 17030000 		call	t0,__riscv_save_3
 546      E7020300 
 547              		.cfi_offset 18, -16
 548              		.cfi_offset 9, -12
 549              		.cfi_offset 8, -8
 550              		.cfi_offset 1, -4
 551              		.cfi_def_cfa_offset 16
 552 001a 0111     		addi	sp,sp,-32
 553              		.cfi_def_cfa_offset 48
 554 001c 2E84     		mv	s0,a1
  70:C:/Users/stapi/OneDrive/Desktop/GD32VW553/V1_MQTT_OK/GD32VW55X_Wifi_BLE_SDK/GD32VW55x_RELEASE_V1.0.2/MSDK/wpa_supplicant/wpa_supplicant\bssid_ignore.c **** 		return -1;
 555              		.loc 2 70 20 discriminator 1
 556 001e E5D5     		beq	a1,zero,.L64
 557              	.LVL54:
 558 0020 2A89     		mv	s2,a0
  73:C:/Users/stapi/OneDrive/Desktop/GD32VW553/V1_MQTT_OK/GD32VW55X_Wifi_BLE_SDK/GD32VW55x_RELEASE_V1.0.2/MSDK/wpa_supplicant/wpa_supplicant\bssid_ignore.c **** 	os_get_reltime(&now);
 559              		.loc 2 73 2 is_stmt 1
  73:C:/Users/stapi/OneDrive/Desktop/GD32VW553/V1_MQTT_OK/GD32VW55X_Wifi_BLE_SDK/GD32VW55x_RELEASE_V1.0.2/MSDK/wpa_supplicant/wpa_supplicant\bssid_ignore.c **** 	os_get_reltime(&now);
 560              		.loc 2 73 6 is_stmt 0
 561 0022 97000000 		call	wpa_bssid_ignore_get
 561      E7800000 
 562              	.LVL55:
 563 002a AA84     		mv	s1,a0
 564              	.LVL56:
  74:C:/Users/stapi/OneDrive/Desktop/GD32VW553/V1_MQTT_OK/GD32VW55X_Wifi_BLE_SDK/GD32VW55x_RELEASE_V1.0.2/MSDK/wpa_supplicant/wpa_supplicant\bssid_ignore.c **** 	if (e) {
 565              		.loc 2 74 2 is_stmt 1
 566 002c 2808     		addi	a0,sp,24
 567 002e 97000000 		call	os_get_reltime
 567      E7800000 
 568              	.LVL57:
  75:C:/Users/stapi/OneDrive/Desktop/GD32VW553/V1_MQTT_OK/GD32VW55X_Wifi_BLE_SDK/GD32VW55x_RELEASE_V1.0.2/MSDK/wpa_supplicant/wpa_supplicant\bssid_ignore.c **** 		e->start = now;
 569              		.loc 2 75 2
  75:C:/Users/stapi/OneDrive/Desktop/GD32VW553/V1_MQTT_OK/GD32VW55X_Wifi_BLE_SDK/GD32VW55x_RELEASE_V1.0.2/MSDK/wpa_supplicant/wpa_supplicant\bssid_ignore.c **** 		e->start = now;
 570              		.loc 2 75 5 is_stmt 0
 571 0036 BDC8     		beq	s1,zero,.L65
  76:C:/Users/stapi/OneDrive/Desktop/GD32VW553/V1_MQTT_OK/GD32VW55X_Wifi_BLE_SDK/GD32VW55x_RELEASE_V1.0.2/MSDK/wpa_supplicant/wpa_supplicant\bssid_ignore.c **** 		e->count++;
 572              		.loc 2 76 3 is_stmt 1
  76:C:/Users/stapi/OneDrive/Desktop/GD32VW553/V1_MQTT_OK/GD32VW55X_Wifi_BLE_SDK/GD32VW55x_RELEASE_V1.0.2/MSDK/wpa_supplicant/wpa_supplicant\bssid_ignore.c **** 		e->count++;
 573              		.loc 2 76 12 is_stmt 0
 574 0038 E247     		lw	a5,24(sp)
  78:C:/Users/stapi/OneDrive/Desktop/GD32VW553/V1_MQTT_OK/GD32VW55X_Wifi_BLE_SDK/GD32VW55x_RELEASE_V1.0.2/MSDK/wpa_supplicant/wpa_supplicant\bssid_ignore.c **** 			e->timeout_secs = 1800;
 575              		.loc 2 78 6
 576 003a 1547     		li	a4,5
  76:C:/Users/stapi/OneDrive/Desktop/GD32VW553/V1_MQTT_OK/GD32VW55X_Wifi_BLE_SDK/GD32VW55x_RELEASE_V1.0.2/MSDK/wpa_supplicant/wpa_supplicant\bssid_ignore.c **** 		e->count++;
 577              		.loc 2 76 12
 578 003c 9CC8     		sw	a5,16(s1)
 579 003e F247     		lw	a5,28(sp)
 580 0040 DCC8     		sw	a5,20(s1)
  77:C:/Users/stapi/OneDrive/Desktop/GD32VW553/V1_MQTT_OK/GD32VW55X_Wifi_BLE_SDK/GD32VW55x_RELEASE_V1.0.2/MSDK/wpa_supplicant/wpa_supplicant\bssid_ignore.c **** 		if (e->count > 5)
 581              		.loc 2 77 3 is_stmt 1
  77:C:/Users/stapi/OneDrive/Desktop/GD32VW553/V1_MQTT_OK/GD32VW55X_Wifi_BLE_SDK/GD32VW55x_RELEASE_V1.0.2/MSDK/wpa_supplicant/wpa_supplicant\bssid_ignore.c **** 		if (e->count > 5)
 582              		.loc 2 77 11 is_stmt 0
 583 0042 DC44     		lw	a5,12(s1)
 584 0044 8507     		addi	a5,a5,1
 585 0046 DCC4     		sw	a5,12(s1)
  78:C:/Users/stapi/OneDrive/Desktop/GD32VW553/V1_MQTT_OK/GD32VW55X_Wifi_BLE_SDK/GD32VW55x_RELEASE_V1.0.2/MSDK/wpa_supplicant/wpa_supplicant\bssid_ignore.c **** 			e->timeout_secs = 1800;
 586              		.loc 2 78 3 is_stmt 1
  78:C:/Users/stapi/OneDrive/Desktop/GD32VW553/V1_MQTT_OK/GD32VW55X_Wifi_BLE_SDK/GD32VW55x_RELEASE_V1.0.2/MSDK/wpa_supplicant/wpa_supplicant\bssid_ignore.c **** 			e->timeout_secs = 1800;
 587              		.loc 2 78 6 is_stmt 0
 588 0048 635FF702 		ble	a5,a4,.L66
  79:C:/Users/stapi/OneDrive/Desktop/GD32VW553/V1_MQTT_OK/GD32VW55X_Wifi_BLE_SDK/GD32VW55x_RELEASE_V1.0.2/MSDK/wpa_supplicant/wpa_supplicant\bssid_ignore.c **** 		else if (e->count == 5)
 589              		.loc 2 79 4 is_stmt 1
  79:C:/Users/stapi/OneDrive/Desktop/GD32VW553/V1_MQTT_OK/GD32VW55X_Wifi_BLE_SDK/GD32VW55x_RELEASE_V1.0.2/MSDK/wpa_supplicant/wpa_supplicant\bssid_ignore.c **** 		else if (e->count == 5)
 590              		.loc 2 79 20 is_stmt 0
 591 004c 13078070 		li	a4,1800
 592              	.L80:
  87:C:/Users/stapi/OneDrive/Desktop/GD32VW553/V1_MQTT_OK/GD32VW55X_Wifi_BLE_SDK/GD32VW55x_RELEASE_V1.0.2/MSDK/wpa_supplicant/wpa_supplicant\bssid_ignore.c **** 		wpa_printf(MSG_INFO, "BSSID " MACSTR
 593              		.loc 2 87 20
 594 0050 98CC     		sw	a4,24(s1)
  88:C:/Users/stapi/OneDrive/Desktop/GD32VW553/V1_MQTT_OK/GD32VW55X_Wifi_BLE_SDK/GD32VW55x_RELEASE_V1.0.2/MSDK/wpa_supplicant/wpa_supplicant\bssid_ignore.c **** 			   " ignore list count incremented to %d, ignoring for %d seconds",
 595              		.loc 2 88 3 is_stmt 1
 596 0052 984C     		lw	a4,24(s1)
 597 0054 3EC0     		sw	a5,0(sp)
 598 0056 B7050000 		lui	a1,%hi(.LC3)
 599 005a 3AC2     		sw	a4,4(sp)
 600 005c 83485400 		lbu	a7,5(s0)
 601 0060 03484400 		lbu	a6,4(s0)
 602 0064 83473400 		lbu	a5,3(s0)
 603 0068 03472400 		lbu	a4,2(s0)
 604 006c 83461400 		lbu	a3,1(s0)
 605 0070 03460400 		lbu	a2,0(s0)
 606 0074 93850500 		addi	a1,a1,%lo(.LC3)
 607 0078 0D45     		li	a0,3
 608 007a 97000000 		call	wpa_printf
 608      E7800000 
 609              	.LVL58:
  91:C:/Users/stapi/OneDrive/Desktop/GD32VW553/V1_MQTT_OK/GD32VW55X_Wifi_BLE_SDK/GD32VW55x_RELEASE_V1.0.2/MSDK/wpa_supplicant/wpa_supplicant\bssid_ignore.c **** 	}
 610              		.loc 2 91 3
 611              	.L81:
 107:C:/Users/stapi/OneDrive/Desktop/GD32VW553/V1_MQTT_OK/GD32VW55X_Wifi_BLE_SDK/GD32VW55x_RELEASE_V1.0.2/MSDK/wpa_supplicant/wpa_supplicant\bssid_ignore.c **** }
 612              		.loc 2 107 2
 107:C:/Users/stapi/OneDrive/Desktop/GD32VW553/V1_MQTT_OK/GD32VW55X_Wifi_BLE_SDK/GD32VW55x_RELEASE_V1.0.2/MSDK/wpa_supplicant/wpa_supplicant\bssid_ignore.c **** }
 613              		.loc 2 107 10 is_stmt 0
 614 0082 C844     		lw	a0,12(s1)
 615 0084 51B7     		j	.L61
 616              	.L66:
  80:C:/Users/stapi/OneDrive/Desktop/GD32VW553/V1_MQTT_OK/GD32VW55X_Wifi_BLE_SDK/GD32VW55x_RELEASE_V1.0.2/MSDK/wpa_supplicant/wpa_supplicant\bssid_ignore.c **** 			e->timeout_secs = 600;
 617              		.loc 2 80 8 is_stmt 1
  80:C:/Users/stapi/OneDrive/Desktop/GD32VW553/V1_MQTT_OK/GD32VW55X_Wifi_BLE_SDK/GD32VW55x_RELEASE_V1.0.2/MSDK/wpa_supplicant/wpa_supplicant\bssid_ignore.c **** 			e->timeout_secs = 600;
 618              		.loc 2 80 11 is_stmt 0
 619 0086 6395E700 		bne	a5,a4,.L68
  81:C:/Users/stapi/OneDrive/Desktop/GD32VW553/V1_MQTT_OK/GD32VW55X_Wifi_BLE_SDK/GD32VW55x_RELEASE_V1.0.2/MSDK/wpa_supplicant/wpa_supplicant\bssid_ignore.c **** 		else if (e->count == 4)
 620              		.loc 2 81 4 is_stmt 1
  81:C:/Users/stapi/OneDrive/Desktop/GD32VW553/V1_MQTT_OK/GD32VW55X_Wifi_BLE_SDK/GD32VW55x_RELEASE_V1.0.2/MSDK/wpa_supplicant/wpa_supplicant\bssid_ignore.c **** 		else if (e->count == 4)
 621              		.loc 2 81 20 is_stmt 0
 622 008a 13078025 		li	a4,600
 623 008e C9B7     		j	.L80
 624              	.L68:
  82:C:/Users/stapi/OneDrive/Desktop/GD32VW553/V1_MQTT_OK/GD32VW55X_Wifi_BLE_SDK/GD32VW55x_RELEASE_V1.0.2/MSDK/wpa_supplicant/wpa_supplicant\bssid_ignore.c **** 			e->timeout_secs = 120;
 625              		.loc 2 82 8 is_stmt 1
  82:C:/Users/stapi/OneDrive/Desktop/GD32VW553/V1_MQTT_OK/GD32VW55X_Wifi_BLE_SDK/GD32VW55x_RELEASE_V1.0.2/MSDK/wpa_supplicant/wpa_supplicant\bssid_ignore.c **** 			e->timeout_secs = 120;
 626              		.loc 2 82 11 is_stmt 0
 627 0090 1147     		li	a4,4
 628 0092 6395E700 		bne	a5,a4,.L69
  83:C:/Users/stapi/OneDrive/Desktop/GD32VW553/V1_MQTT_OK/GD32VW55X_Wifi_BLE_SDK/GD32VW55x_RELEASE_V1.0.2/MSDK/wpa_supplicant/wpa_supplicant\bssid_ignore.c **** 		else if (e->count == 3)
 629              		.loc 2 83 4 is_stmt 1
  83:C:/Users/stapi/OneDrive/Desktop/GD32VW553/V1_MQTT_OK/GD32VW55X_Wifi_BLE_SDK/GD32VW55x_RELEASE_V1.0.2/MSDK/wpa_supplicant/wpa_supplicant\bssid_ignore.c **** 		else if (e->count == 3)
 630              		.loc 2 83 20 is_stmt 0
 631 0096 13078007 		li	a4,120
 632 009a 5DBF     		j	.L80
 633              	.L69:
  84:C:/Users/stapi/OneDrive/Desktop/GD32VW553/V1_MQTT_OK/GD32VW55X_Wifi_BLE_SDK/GD32VW55x_RELEASE_V1.0.2/MSDK/wpa_supplicant/wpa_supplicant\bssid_ignore.c **** 			e->timeout_secs = 60;
 634              		.loc 2 84 8 is_stmt 1
  84:C:/Users/stapi/OneDrive/Desktop/GD32VW553/V1_MQTT_OK/GD32VW55X_Wifi_BLE_SDK/GD32VW55x_RELEASE_V1.0.2/MSDK/wpa_supplicant/wpa_supplicant\bssid_ignore.c **** 			e->timeout_secs = 60;
 635              		.loc 2 84 11 is_stmt 0
 636 009c 0D47     		li	a4,3
 637 009e 6395E700 		bne	a5,a4,.L70
  85:C:/Users/stapi/OneDrive/Desktop/GD32VW553/V1_MQTT_OK/GD32VW55X_Wifi_BLE_SDK/GD32VW55x_RELEASE_V1.0.2/MSDK/wpa_supplicant/wpa_supplicant\bssid_ignore.c **** 		else
 638              		.loc 2 85 4 is_stmt 1
  85:C:/Users/stapi/OneDrive/Desktop/GD32VW553/V1_MQTT_OK/GD32VW55X_Wifi_BLE_SDK/GD32VW55x_RELEASE_V1.0.2/MSDK/wpa_supplicant/wpa_supplicant\bssid_ignore.c **** 		else
 639              		.loc 2 85 20 is_stmt 0
 640 00a2 1307C003 		li	a4,60
 641 00a6 6DB7     		j	.L80
 642              	.L70:
  87:C:/Users/stapi/OneDrive/Desktop/GD32VW553/V1_MQTT_OK/GD32VW55X_Wifi_BLE_SDK/GD32VW55x_RELEASE_V1.0.2/MSDK/wpa_supplicant/wpa_supplicant\bssid_ignore.c **** 		wpa_printf(MSG_INFO, "BSSID " MACSTR
 643              		.loc 2 87 4 is_stmt 1
  87:C:/Users/stapi/OneDrive/Desktop/GD32VW553/V1_MQTT_OK/GD32VW55X_Wifi_BLE_SDK/GD32VW55x_RELEASE_V1.0.2/MSDK/wpa_supplicant/wpa_supplicant\bssid_ignore.c **** 		wpa_printf(MSG_INFO, "BSSID " MACSTR
 644              		.loc 2 87 20 is_stmt 0
 645 00a8 2947     		li	a4,10
 646 00aa 5DB7     		j	.L80
 647              	.L65:
  94:C:/Users/stapi/OneDrive/Desktop/GD32VW553/V1_MQTT_OK/GD32VW55X_Wifi_BLE_SDK/GD32VW55x_RELEASE_V1.0.2/MSDK/wpa_supplicant/wpa_supplicant\bssid_ignore.c **** 	if (e == NULL)
 648              		.loc 2 94 2 is_stmt 1
  94:C:/Users/stapi/OneDrive/Desktop/GD32VW553/V1_MQTT_OK/GD32VW55X_Wifi_BLE_SDK/GD32VW55x_RELEASE_V1.0.2/MSDK/wpa_supplicant/wpa_supplicant\bssid_ignore.c **** 	if (e == NULL)
 649              		.loc 2 94 6 is_stmt 0
 650 00ac 7145     		li	a0,28
 651 00ae 97000000 		call	os_zalloc
 651      E7800000 
 652              	.LVL59:
 653 00b6 AA84     		mv	s1,a0
 654              	.LVL60:
  95:C:/Users/stapi/OneDrive/Desktop/GD32VW553/V1_MQTT_OK/GD32VW55X_Wifi_BLE_SDK/GD32VW55x_RELEASE_V1.0.2/MSDK/wpa_supplicant/wpa_supplicant\bssid_ignore.c **** 		return -1;
 655              		.loc 2 95 2 is_stmt 1
  95:C:/Users/stapi/OneDrive/Desktop/GD32VW553/V1_MQTT_OK/GD32VW55X_Wifi_BLE_SDK/GD32VW55x_RELEASE_V1.0.2/MSDK/wpa_supplicant/wpa_supplicant\bssid_ignore.c **** 		return -1;
 656              		.loc 2 95 5 is_stmt 0
 657 00b8 39D5     		beq	a0,zero,.L64
  97:C:/Users/stapi/OneDrive/Desktop/GD32VW553/V1_MQTT_OK/GD32VW55X_Wifi_BLE_SDK/GD32VW55x_RELEASE_V1.0.2/MSDK/wpa_supplicant/wpa_supplicant\bssid_ignore.c **** 	e->count = 1;
 658              		.loc 2 97 2 is_stmt 1
 659 00ba A285     		mv	a1,s0
 660 00bc 1946     		li	a2,6
 661 00be 1105     		addi	a0,a0,4
 662 00c0 97000000 		call	os_memcpy
 662      E7800000 
 663              	.LVL61:
  98:C:/Users/stapi/OneDrive/Desktop/GD32VW553/V1_MQTT_OK/GD32VW55X_Wifi_BLE_SDK/GD32VW55x_RELEASE_V1.0.2/MSDK/wpa_supplicant/wpa_supplicant\bssid_ignore.c **** 	e->timeout_secs = 10;
 664              		.loc 2 98 2
 100:C:/Users/stapi/OneDrive/Desktop/GD32VW553/V1_MQTT_OK/GD32VW55X_Wifi_BLE_SDK/GD32VW55x_RELEASE_V1.0.2/MSDK/wpa_supplicant/wpa_supplicant\bssid_ignore.c **** 	e->next = wpa_s->bssid_ignore;
 665              		.loc 2 100 11 is_stmt 0
 666 00c8 6247     		lw	a4,24(sp)
  98:C:/Users/stapi/OneDrive/Desktop/GD32VW553/V1_MQTT_OK/GD32VW55X_Wifi_BLE_SDK/GD32VW55x_RELEASE_V1.0.2/MSDK/wpa_supplicant/wpa_supplicant\bssid_ignore.c **** 	e->timeout_secs = 10;
 667              		.loc 2 98 11
 668 00ca 8547     		li	a5,1
 669 00cc DCC4     		sw	a5,12(s1)
  99:C:/Users/stapi/OneDrive/Desktop/GD32VW553/V1_MQTT_OK/GD32VW55X_Wifi_BLE_SDK/GD32VW55x_RELEASE_V1.0.2/MSDK/wpa_supplicant/wpa_supplicant\bssid_ignore.c **** 	e->start = now;
 670              		.loc 2 99 2 is_stmt 1
 100:C:/Users/stapi/OneDrive/Desktop/GD32VW553/V1_MQTT_OK/GD32VW55X_Wifi_BLE_SDK/GD32VW55x_RELEASE_V1.0.2/MSDK/wpa_supplicant/wpa_supplicant\bssid_ignore.c **** 	e->next = wpa_s->bssid_ignore;
 671              		.loc 2 100 11 is_stmt 0
 672 00ce 98C8     		sw	a4,16(s1)
 673 00d0 7247     		lw	a4,28(sp)
  99:C:/Users/stapi/OneDrive/Desktop/GD32VW553/V1_MQTT_OK/GD32VW55X_Wifi_BLE_SDK/GD32VW55x_RELEASE_V1.0.2/MSDK/wpa_supplicant/wpa_supplicant\bssid_ignore.c **** 	e->start = now;
 674              		.loc 2 99 18
 675 00d2 A947     		li	a5,10
 676 00d4 9CCC     		sw	a5,24(s1)
 100:C:/Users/stapi/OneDrive/Desktop/GD32VW553/V1_MQTT_OK/GD32VW55X_Wifi_BLE_SDK/GD32VW55x_RELEASE_V1.0.2/MSDK/wpa_supplicant/wpa_supplicant\bssid_ignore.c **** 	e->next = wpa_s->bssid_ignore;
 677              		.loc 2 100 2 is_stmt 1
 100:C:/Users/stapi/OneDrive/Desktop/GD32VW553/V1_MQTT_OK/GD32VW55X_Wifi_BLE_SDK/GD32VW55x_RELEASE_V1.0.2/MSDK/wpa_supplicant/wpa_supplicant\bssid_ignore.c **** 	e->next = wpa_s->bssid_ignore;
 678              		.loc 2 100 11 is_stmt 0
 679 00d6 D8C8     		sw	a4,20(s1)
 101:C:/Users/stapi/OneDrive/Desktop/GD32VW553/V1_MQTT_OK/GD32VW55X_Wifi_BLE_SDK/GD32VW55x_RELEASE_V1.0.2/MSDK/wpa_supplicant/wpa_supplicant\bssid_ignore.c **** 	wpa_s->bssid_ignore = e;
 680              		.loc 2 101 2 is_stmt 1
 101:C:/Users/stapi/OneDrive/Desktop/GD32VW553/V1_MQTT_OK/GD32VW55X_Wifi_BLE_SDK/GD32VW55x_RELEASE_V1.0.2/MSDK/wpa_supplicant/wpa_supplicant\bssid_ignore.c **** 	wpa_s->bssid_ignore = e;
 681              		.loc 2 101 10 is_stmt 0
 682 00d8 03274918 		lw	a4,388(s2)
 103:C:/Users/stapi/OneDrive/Desktop/GD32VW553/V1_MQTT_OK/GD32VW55X_Wifi_BLE_SDK/GD32VW55x_RELEASE_V1.0.2/MSDK/wpa_supplicant/wpa_supplicant\bssid_ignore.c **** 		   " into ignore list, ignoring for %d seconds",
 683              		.loc 2 103 2
 684 00dc B7050000 		lui	a1,%hi(.LC4)
 685 00e0 93850500 		addi	a1,a1,%lo(.LC4)
 101:C:/Users/stapi/OneDrive/Desktop/GD32VW553/V1_MQTT_OK/GD32VW55X_Wifi_BLE_SDK/GD32VW55x_RELEASE_V1.0.2/MSDK/wpa_supplicant/wpa_supplicant\bssid_ignore.c **** 	wpa_s->bssid_ignore = e;
 686              		.loc 2 101 10
 687 00e4 98C0     		sw	a4,0(s1)
 102:C:/Users/stapi/OneDrive/Desktop/GD32VW553/V1_MQTT_OK/GD32VW55X_Wifi_BLE_SDK/GD32VW55x_RELEASE_V1.0.2/MSDK/wpa_supplicant/wpa_supplicant\bssid_ignore.c **** 	wpa_printf(MSG_DEBUG, "Added BSSID " MACSTR
 688              		.loc 2 102 2 is_stmt 1
 102:C:/Users/stapi/OneDrive/Desktop/GD32VW553/V1_MQTT_OK/GD32VW55X_Wifi_BLE_SDK/GD32VW55x_RELEASE_V1.0.2/MSDK/wpa_supplicant/wpa_supplicant\bssid_ignore.c **** 	wpa_printf(MSG_DEBUG, "Added BSSID " MACSTR
 689              		.loc 2 102 22 is_stmt 0
 690 00e6 23229918 		sw	s1,388(s2)
 103:C:/Users/stapi/OneDrive/Desktop/GD32VW553/V1_MQTT_OK/GD32VW55X_Wifi_BLE_SDK/GD32VW55x_RELEASE_V1.0.2/MSDK/wpa_supplicant/wpa_supplicant\bssid_ignore.c **** 		   " into ignore list, ignoring for %d seconds",
 691              		.loc 2 103 2 is_stmt 1
 692 00ea 3EC0     		sw	a5,0(sp)
 693 00ec 83485400 		lbu	a7,5(s0)
 694 00f0 03484400 		lbu	a6,4(s0)
 695 00f4 83473400 		lbu	a5,3(s0)
 696 00f8 03472400 		lbu	a4,2(s0)
 697 00fc 83461400 		lbu	a3,1(s0)
 698 0100 03460400 		lbu	a2,0(s0)
 699 0104 0945     		li	a0,2
 700 0106 97000000 		call	wpa_printf
 700      E7800000 
 701              	.LVL62:
 702 010e 95BF     		j	.L81
 703              		.cfi_endproc
 704              	.LFE137:
 706              		.section	.text.wpa_bssid_ignore_is_listed,"ax",@progbits
 707              		.align	1
 708              		.globl	wpa_bssid_ignore_is_listed
 710              	wpa_bssid_ignore_is_listed:
 711              	.LFB139:
 151:C:/Users/stapi/OneDrive/Desktop/GD32VW553/V1_MQTT_OK/GD32VW55X_Wifi_BLE_SDK/GD32VW55x_RELEASE_V1.0.2/MSDK/wpa_supplicant/wpa_supplicant\bssid_ignore.c **** 	struct wpa_bssid_ignore *e;
 712              		.loc 2 151 1
 713              		.cfi_startproc
 714              	.LVL63:
 715 0000 17030000 		call	t0,__riscv_save_1
 715      E7020300 
 716              		.cfi_offset 8, -8
 717              		.cfi_offset 1, -4
 718              		.cfi_def_cfa_offset 16
 152:C:/Users/stapi/OneDrive/Desktop/GD32VW553/V1_MQTT_OK/GD32VW55X_Wifi_BLE_SDK/GD32VW55x_RELEASE_V1.0.2/MSDK/wpa_supplicant/wpa_supplicant\bssid_ignore.c **** 	struct os_reltime now;
 719              		.loc 2 152 2
 153:C:/Users/stapi/OneDrive/Desktop/GD32VW553/V1_MQTT_OK/GD32VW55X_Wifi_BLE_SDK/GD32VW55x_RELEASE_V1.0.2/MSDK/wpa_supplicant/wpa_supplicant\bssid_ignore.c **** 
 720              		.loc 2 153 2
 155:C:/Users/stapi/OneDrive/Desktop/GD32VW553/V1_MQTT_OK/GD32VW55X_Wifi_BLE_SDK/GD32VW55x_RELEASE_V1.0.2/MSDK/wpa_supplicant/wpa_supplicant\bssid_ignore.c **** 	if (!e)
 721              		.loc 2 155 2
 151:C:/Users/stapi/OneDrive/Desktop/GD32VW553/V1_MQTT_OK/GD32VW55X_Wifi_BLE_SDK/GD32VW55x_RELEASE_V1.0.2/MSDK/wpa_supplicant/wpa_supplicant\bssid_ignore.c **** 	struct wpa_bssid_ignore *e;
 722              		.loc 2 151 1 is_stmt 0
 723 0008 4111     		addi	sp,sp,-16
 724              		.cfi_def_cfa_offset 32
 155:C:/Users/stapi/OneDrive/Desktop/GD32VW553/V1_MQTT_OK/GD32VW55X_Wifi_BLE_SDK/GD32VW55x_RELEASE_V1.0.2/MSDK/wpa_supplicant/wpa_supplicant\bssid_ignore.c **** 	if (!e)
 725              		.loc 2 155 6
 726 000a 97000000 		call	wpa_bssid_ignore_get
 726      E7800000 
 727              	.LVL64:
 156:C:/Users/stapi/OneDrive/Desktop/GD32VW553/V1_MQTT_OK/GD32VW55X_Wifi_BLE_SDK/GD32VW55x_RELEASE_V1.0.2/MSDK/wpa_supplicant/wpa_supplicant\bssid_ignore.c **** 		return 0;
 728              		.loc 2 156 2 is_stmt 1
 156:C:/Users/stapi/OneDrive/Desktop/GD32VW553/V1_MQTT_OK/GD32VW55X_Wifi_BLE_SDK/GD32VW55x_RELEASE_V1.0.2/MSDK/wpa_supplicant/wpa_supplicant\bssid_ignore.c **** 		return 0;
 729              		.loc 2 156 5 is_stmt 0
 730 0012 19E5     		bne	a0,zero,.L83
 731              	.LVL65:
 732              	.L85:
 157:C:/Users/stapi/OneDrive/Desktop/GD32VW553/V1_MQTT_OK/GD32VW55X_Wifi_BLE_SDK/GD32VW55x_RELEASE_V1.0.2/MSDK/wpa_supplicant/wpa_supplicant\bssid_ignore.c **** 	os_get_reltime(&now);
 733              		.loc 2 157 10
 734 0014 0145     		li	a0,0
 735              	.L82:
 162:C:/Users/stapi/OneDrive/Desktop/GD32VW553/V1_MQTT_OK/GD32VW55X_Wifi_BLE_SDK/GD32VW55x_RELEASE_V1.0.2/MSDK/wpa_supplicant/wpa_supplicant\bssid_ignore.c **** 
 736              		.loc 2 162 1
 737 0016 4101     		addi	sp,sp,16
 738              		.cfi_remember_state
 739              		.cfi_def_cfa_offset 0
 740 0018 17030000 		tail	__riscv_restore_1
 740      67000300 
 741              		.cfi_restore 8
 742              		.cfi_restore 1
 743              		.cfi_def_cfa_offset -16
 744              	.LVL66:
 745              	.L83:
 746              		.cfi_restore_state
 747 0020 2A84     		mv	s0,a0
 158:C:/Users/stapi/OneDrive/Desktop/GD32VW553/V1_MQTT_OK/GD32VW55X_Wifi_BLE_SDK/GD32VW55x_RELEASE_V1.0.2/MSDK/wpa_supplicant/wpa_supplicant\bssid_ignore.c **** 	if (os_reltime_expired(&now, &e->start, e->timeout_secs))
 748              		.loc 2 158 2 is_stmt 1
 749 0022 2800     		addi	a0,sp,8
 750              	.LVL67:
 751 0024 97000000 		call	os_get_reltime
 751      E7800000 
 752              	.LVL68:
 159:C:/Users/stapi/OneDrive/Desktop/GD32VW553/V1_MQTT_OK/GD32VW55X_Wifi_BLE_SDK/GD32VW55x_RELEASE_V1.0.2/MSDK/wpa_supplicant/wpa_supplicant\bssid_ignore.c **** 		return 0;
 753              		.loc 2 159 2
 159:C:/Users/stapi/OneDrive/Desktop/GD32VW553/V1_MQTT_OK/GD32VW55X_Wifi_BLE_SDK/GD32VW55x_RELEASE_V1.0.2/MSDK/wpa_supplicant/wpa_supplicant\bssid_ignore.c **** 		return 0;
 754              		.loc 2 159 6 is_stmt 0
 755 002c 104C     		lw	a2,24(s0)
 756 002e 93050401 		addi	a1,s0,16
 757 0032 2800     		addi	a0,sp,8
 758 0034 97000000 		call	os_reltime_expired
 758      E7800000 
 759              	.LVL69:
 159:C:/Users/stapi/OneDrive/Desktop/GD32VW553/V1_MQTT_OK/GD32VW55X_Wifi_BLE_SDK/GD32VW55x_RELEASE_V1.0.2/MSDK/wpa_supplicant/wpa_supplicant\bssid_ignore.c **** 		return 0;
 760              		.loc 2 159 5
 761 003c 61FD     		bne	a0,zero,.L85
 161:C:/Users/stapi/OneDrive/Desktop/GD32VW553/V1_MQTT_OK/GD32VW55X_Wifi_BLE_SDK/GD32VW55x_RELEASE_V1.0.2/MSDK/wpa_supplicant/wpa_supplicant\bssid_ignore.c **** }
 762              		.loc 2 161 2 is_stmt 1
 161:C:/Users/stapi/OneDrive/Desktop/GD32VW553/V1_MQTT_OK/GD32VW55X_Wifi_BLE_SDK/GD32VW55x_RELEASE_V1.0.2/MSDK/wpa_supplicant/wpa_supplicant\bssid_ignore.c **** }
 763              		.loc 2 161 10 is_stmt 0
 764 003e 4844     		lw	a0,12(s0)
 765 0040 D9BF     		j	.L82
 766              		.cfi_endproc
 767              	.LFE139:
 769              		.text
 770              	.Letext0:
 771              		.file 3 "c:\\users\\stapi\\onedrive\\desktop\\gd32vw553\\embeddedbuilder_v1.4.7.26843\\tools\\nucl
 772              		.file 4 "c:\\users\\stapi\\onedrive\\desktop\\gd32vw553\\embeddedbuilder_v1.4.7.26843\\tools\\nucl
 773              		.file 5 "c:\\users\\stapi\\onedrive\\desktop\\gd32vw553\\embeddedbuilder_v1.4.7.26843\\tools\\nucl
 774              		.file 6 "..\\..\\..\\..\\wpa_supplicant\\src\\utils/common.h"
 775              		.file 7 "..\\..\\..\\..\\wpa_supplicant\\src\\utils/wpabuf.h"
 776              		.file 8 "..\\..\\..\\..\\wpa_supplicant\\src/utils/list.h"
 777              		.file 9 "..\\..\\..\\..\\wpa_supplicant\\src/common/defs.h"
 778              		.file 10 "..\\..\\..\\..\\wpa_supplicant\\src/common/sae.h"
 779              		.file 11 "C:/Users/stapi/OneDrive/Desktop/GD32VW553/V1_MQTT_OK/GD32VW55X_Wifi_BLE_SDK/GD32VW55x_RE
 780              		.file 12 "..\\..\\..\\..\\wpa_supplicant\\src/common/ieee802_11_defs.h"
 781              		.file 13 "..\\..\\..\\..\\wpa_supplicant\\src/drivers/driver.h"
 782              		.file 14 "..\\..\\..\\..\\wpa_supplicant\\src\\utils/wpa_debug.h"
 783              		.file 15 "C:/Users/stapi/OneDrive/Desktop/GD32VW553/V1_MQTT_OK/GD32VW55X_Wifi_BLE_SDK/GD32VW55x_RE
 784              		.file 16 "C:/Users/stapi/OneDrive/Desktop/GD32VW553/V1_MQTT_OK/GD32VW55X_Wifi_BLE_SDK/GD32VW55x_RE
DEFINED SYMBOLS
                            *ABS*:0000000000000000 bssid_ignore.c
C:\Users\stapi\AppData\Local\Temp\ccXQrqsW.s:12     .text.os_reltime_expired:0000000000000000 os_reltime_expired
C:\Users\stapi\AppData\Local\Temp\ccXQrqsW.s:16     .text.os_reltime_expired:0000000000000000 .L0 
C:\Users\stapi\AppData\Local\Temp\ccXQrqsW.s:18     .text.os_reltime_expired:0000000000000000 .L0 
C:\Users\stapi\AppData\Local\Temp\ccXQrqsW.s:19     .text.os_reltime_expired:0000000000000000 .L0 
C:\Users\stapi\AppData\Local\Temp\ccXQrqsW.s:22     .text.os_reltime_expired:0000000000000000 .L0 
C:\Users\stapi\AppData\Local\Temp\ccXQrqsW.s:23     .text.os_reltime_expired:0000000000000000 .L0 
C:\Users\stapi\AppData\Local\Temp\ccXQrqsW.s:24     .text.os_reltime_expired:0000000000000000 .L0 
C:\Users\stapi\AppData\Local\Temp\ccXQrqsW.s:27     .text.os_reltime_expired:0000000000000004 .L0 
C:\Users\stapi\AppData\Local\Temp\ccXQrqsW.s:29     .text.os_reltime_expired:0000000000000006 .L0 
C:\Users\stapi\AppData\Local\Temp\ccXQrqsW.s:32     .text.os_reltime_expired:0000000000000008 .L0 
C:\Users\stapi\AppData\Local\Temp\ccXQrqsW.s:33     .text.os_reltime_expired:0000000000000008 .L0 
C:\Users\stapi\AppData\Local\Temp\ccXQrqsW.s:37     .text.os_reltime_expired:000000000000000c .L0 
C:\Users\stapi\AppData\Local\Temp\ccXQrqsW.s:38     .text.os_reltime_expired:000000000000000c .L0 
C:\Users\stapi\AppData\Local\Temp\ccXQrqsW.s:40     .text.os_reltime_expired:0000000000000010 .L0 
C:\Users\stapi\AppData\Local\Temp\ccXQrqsW.s:41     .text.os_reltime_expired:0000000000000010 .L0 
C:\Users\stapi\AppData\Local\Temp\ccXQrqsW.s:44     .text.os_reltime_expired:0000000000000018 .L0 
C:\Users\stapi\AppData\Local\Temp\ccXQrqsW.s:47     .text.os_reltime_expired:000000000000001a .L0 
C:\Users\stapi\AppData\Local\Temp\ccXQrqsW.s:48     .text.os_reltime_expired:000000000000001a .L0 
C:\Users\stapi\AppData\Local\Temp\ccXQrqsW.s:54     .text.os_reltime_expired:000000000000001c .L0 
C:\Users\stapi\AppData\Local\Temp\ccXQrqsW.s:55     .text.os_reltime_expired:000000000000001c .L0 
C:\Users\stapi\AppData\Local\Temp\ccXQrqsW.s:59     .text.os_reltime_expired:0000000000000022 .L0 
C:\Users\stapi\AppData\Local\Temp\ccXQrqsW.s:62     .text.os_reltime_expired:0000000000000028 .L0 
C:\Users\stapi\AppData\Local\Temp\ccXQrqsW.s:65     .text.os_reltime_expired:000000000000002c .L0 
C:\Users\stapi\AppData\Local\Temp\ccXQrqsW.s:66     .text.os_reltime_expired:000000000000002e .L0 
C:\Users\stapi\AppData\Local\Temp\ccXQrqsW.s:77     .text.wpa_bssid_ignore_del:0000000000000000 wpa_bssid_ignore_del
C:\Users\stapi\AppData\Local\Temp\ccXQrqsW.s:81     .text.wpa_bssid_ignore_del:0000000000000000 .L0 
C:\Users\stapi\AppData\Local\Temp\ccXQrqsW.s:83     .text.wpa_bssid_ignore_del:0000000000000000 .L0 
C:\Users\stapi\AppData\Local\Temp\ccXQrqsW.s:84     .text.wpa_bssid_ignore_del:0000000000000008 .L0 
C:\Users\stapi\AppData\Local\Temp\ccXQrqsW.s:85     .text.wpa_bssid_ignore_del:0000000000000008 .L0 
C:\Users\stapi\AppData\Local\Temp\ccXQrqsW.s:86     .text.wpa_bssid_ignore_del:0000000000000008 .L0 
C:\Users\stapi\AppData\Local\Temp\ccXQrqsW.s:87     .text.wpa_bssid_ignore_del:0000000000000008 .L0 
C:\Users\stapi\AppData\Local\Temp\ccXQrqsW.s:88     .text.wpa_bssid_ignore_del:0000000000000008 .L0 
C:\Users\stapi\AppData\Local\Temp\ccXQrqsW.s:89     .text.wpa_bssid_ignore_del:0000000000000008 .L0 
C:\Users\stapi\AppData\Local\Temp\ccXQrqsW.s:90     .text.wpa_bssid_ignore_del:0000000000000008 .L0 
C:\Users\stapi\AppData\Local\Temp\ccXQrqsW.s:93     .text.wpa_bssid_ignore_del:0000000000000008 .L0 
C:\Users\stapi\AppData\Local\Temp\ccXQrqsW.s:94     .text.wpa_bssid_ignore_del:0000000000000008 .L0 
C:\Users\stapi\AppData\Local\Temp\ccXQrqsW.s:95     .text.wpa_bssid_ignore_del:0000000000000008 .L0 
C:\Users\stapi\AppData\Local\Temp\ccXQrqsW.s:99     .text.wpa_bssid_ignore_del:000000000000000a .L0 
C:\Users\stapi\AppData\Local\Temp\ccXQrqsW.s:102    .text.wpa_bssid_ignore_del:000000000000000c .L0 
C:\Users\stapi\AppData\Local\Temp\ccXQrqsW.s:104    .text.wpa_bssid_ignore_del:0000000000000016 .L0 
C:\Users\stapi\AppData\Local\Temp\ccXQrqsW.s:105    .text.wpa_bssid_ignore_del:0000000000000016 .L0 
C:\Users\stapi\AppData\Local\Temp\ccXQrqsW.s:106    .text.wpa_bssid_ignore_del:0000000000000016 .L0 
C:\Users\stapi\AppData\Local\Temp\ccXQrqsW.s:107    .text.wpa_bssid_ignore_del:0000000000000016 .L0 
C:\Users\stapi\AppData\Local\Temp\ccXQrqsW.s:108    .text.wpa_bssid_ignore_del:0000000000000016 .L0 
C:\Users\stapi\AppData\Local\Temp\ccXQrqsW.s:109    .text.wpa_bssid_ignore_del:0000000000000016 .L0 
C:\Users\stapi\AppData\Local\Temp\ccXQrqsW.s:110    .text.wpa_bssid_ignore_del:0000000000000016 .L0 
C:\Users\stapi\AppData\Local\Temp\ccXQrqsW.s:111    .text.wpa_bssid_ignore_del:0000000000000016 .L0 
C:\Users\stapi\AppData\Local\Temp\ccXQrqsW.s:114    .text.wpa_bssid_ignore_del:0000000000000016 .L0 
C:\Users\stapi\AppData\Local\Temp\ccXQrqsW.s:117    .text.wpa_bssid_ignore_del:0000000000000018 .L0 
C:\Users\stapi\AppData\Local\Temp\ccXQrqsW.s:120    .text.wpa_bssid_ignore_del:000000000000001a .L0 
C:\Users\stapi\AppData\Local\Temp\ccXQrqsW.s:124    .text.wpa_bssid_ignore_del:0000000000000020 .L0 
C:\Users\stapi\AppData\Local\Temp\ccXQrqsW.s:125    .text.wpa_bssid_ignore_del:0000000000000020 .L0 
C:\Users\stapi\AppData\Local\Temp\ccXQrqsW.s:126    .text.wpa_bssid_ignore_del:0000000000000020 .L0 
C:\Users\stapi\AppData\Local\Temp\ccXQrqsW.s:130    .text.wpa_bssid_ignore_del:0000000000000022 .L0 
C:\Users\stapi\AppData\Local\Temp\ccXQrqsW.s:132    .text.wpa_bssid_ignore_del:0000000000000024 .L0 
C:\Users\stapi\AppData\Local\Temp\ccXQrqsW.s:133    .text.wpa_bssid_ignore_del:0000000000000024 .L0 
C:\Users\stapi\AppData\Local\Temp\ccXQrqsW.s:141    .text.wpa_bssid_ignore_del:0000000000000038 .L0 
C:\Users\stapi\AppData\Local\Temp\ccXQrqsW.s:143    .text.wpa_bssid_ignore_del:000000000000003a .L0 
C:\Users\stapi\AppData\Local\Temp\ccXQrqsW.s:144    .text.wpa_bssid_ignore_del:000000000000003a .L0 
C:\Users\stapi\AppData\Local\Temp\ccXQrqsW.s:146    .text.wpa_bssid_ignore_del:000000000000003e .L0 
C:\Users\stapi\AppData\Local\Temp\ccXQrqsW.s:147    .text.wpa_bssid_ignore_del:000000000000003e .L0 
C:\Users\stapi\AppData\Local\Temp\ccXQrqsW.s:150    .text.wpa_bssid_ignore_del:0000000000000042 .L0 
C:\Users\stapi\AppData\Local\Temp\ccXQrqsW.s:162    .text.wpa_bssid_ignore_del:000000000000006c .L0 
C:\Users\stapi\AppData\Local\Temp\ccXQrqsW.s:166    .text.wpa_bssid_ignore_del:0000000000000076 .L0 
C:\Users\stapi\AppData\Local\Temp\ccXQrqsW.s:167    .text.wpa_bssid_ignore_del:0000000000000076 .L0 
C:\Users\stapi\AppData\Local\Temp\ccXQrqsW.s:170    .text.wpa_bssid_ignore_del:0000000000000078 .L0 
C:\Users\stapi\AppData\Local\Temp\ccXQrqsW.s:171    .text.wpa_bssid_ignore_del:0000000000000078 .L0 
C:\Users\stapi\AppData\Local\Temp\ccXQrqsW.s:176    .text.wpa_bssid_ignore_del:000000000000007e .L0 
C:\Users\stapi\AppData\Local\Temp\ccXQrqsW.s:177    .text.wpa_bssid_ignore_del:000000000000007e .L0 
C:\Users\stapi\AppData\Local\Temp\ccXQrqsW.s:178    .text.wpa_bssid_ignore_del:000000000000007e .L0 
C:\Users\stapi\AppData\Local\Temp\ccXQrqsW.s:182    .text.wpa_bssid_ignore_del:0000000000000084 .L0 
C:\Users\stapi\AppData\Local\Temp\ccXQrqsW.s:193    .text.wpa_bssid_ignore_clear:0000000000000000 wpa_bssid_ignore_clear
C:\Users\stapi\AppData\Local\Temp\ccXQrqsW.s:196    .text.wpa_bssid_ignore_clear:0000000000000000 .L0 
C:\Users\stapi\AppData\Local\Temp\ccXQrqsW.s:198    .text.wpa_bssid_ignore_clear:0000000000000000 .L0 
C:\Users\stapi\AppData\Local\Temp\ccXQrqsW.s:199    .text.wpa_bssid_ignore_clear:0000000000000008 .L0 
C:\Users\stapi\AppData\Local\Temp\ccXQrqsW.s:200    .text.wpa_bssid_ignore_clear:0000000000000008 .L0 
C:\Users\stapi\AppData\Local\Temp\ccXQrqsW.s:201    .text.wpa_bssid_ignore_clear:0000000000000008 .L0 
C:\Users\stapi\AppData\Local\Temp\ccXQrqsW.s:202    .text.wpa_bssid_ignore_clear:0000000000000008 .L0 
C:\Users\stapi\AppData\Local\Temp\ccXQrqsW.s:203    .text.wpa_bssid_ignore_clear:0000000000000008 .L0 
C:\Users\stapi\AppData\Local\Temp\ccXQrqsW.s:205    .text.wpa_bssid_ignore_clear:0000000000000008 .L0 
C:\Users\stapi\AppData\Local\Temp\ccXQrqsW.s:206    .text.wpa_bssid_ignore_clear:0000000000000008 .L0 
C:\Users\stapi\AppData\Local\Temp\ccXQrqsW.s:207    .text.wpa_bssid_ignore_clear:0000000000000008 .L0 
C:\Users\stapi\AppData\Local\Temp\ccXQrqsW.s:210    .text.wpa_bssid_ignore_clear:000000000000000c .L0 
C:\Users\stapi\AppData\Local\Temp\ccXQrqsW.s:211    .text.wpa_bssid_ignore_clear:000000000000000c .L0 
C:\Users\stapi\AppData\Local\Temp\ccXQrqsW.s:213    .text.wpa_bssid_ignore_clear:0000000000000010 .L0 
C:\Users\stapi\AppData\Local\Temp\ccXQrqsW.s:217    .text.wpa_bssid_ignore_clear:0000000000000014 .L0 
C:\Users\stapi\AppData\Local\Temp\ccXQrqsW.s:218    .text.wpa_bssid_ignore_clear:0000000000000014 .L0 
C:\Users\stapi\AppData\Local\Temp\ccXQrqsW.s:220    .text.wpa_bssid_ignore_clear:0000000000000016 .L0 
C:\Users\stapi\AppData\Local\Temp\ccXQrqsW.s:221    .text.wpa_bssid_ignore_clear:000000000000001e .L0 
C:\Users\stapi\AppData\Local\Temp\ccXQrqsW.s:222    .text.wpa_bssid_ignore_clear:000000000000001e .L0 
C:\Users\stapi\AppData\Local\Temp\ccXQrqsW.s:223    .text.wpa_bssid_ignore_clear:000000000000001e .L0 
C:\Users\stapi\AppData\Local\Temp\ccXQrqsW.s:224    .text.wpa_bssid_ignore_clear:000000000000001e .L0 
C:\Users\stapi\AppData\Local\Temp\ccXQrqsW.s:225    .text.wpa_bssid_ignore_clear:000000000000001e .L0 
C:\Users\stapi\AppData\Local\Temp\ccXQrqsW.s:226    .text.wpa_bssid_ignore_clear:000000000000001e .L0 
C:\Users\stapi\AppData\Local\Temp\ccXQrqsW.s:228    .text.wpa_bssid_ignore_clear:000000000000001e .L0 
C:\Users\stapi\AppData\Local\Temp\ccXQrqsW.s:231    .text.wpa_bssid_ignore_clear:000000000000001e .L0 
C:\Users\stapi\AppData\Local\Temp\ccXQrqsW.s:232    .text.wpa_bssid_ignore_clear:000000000000001e .L0 
C:\Users\stapi\AppData\Local\Temp\ccXQrqsW.s:233    .text.wpa_bssid_ignore_clear:000000000000001e .L0 
C:\Users\stapi\AppData\Local\Temp\ccXQrqsW.s:240    .text.wpa_bssid_ignore_clear:0000000000000036 .L0 
C:\Users\stapi\AppData\Local\Temp\ccXQrqsW.s:243    .text.wpa_bssid_ignore_clear:000000000000003a .L0 
C:\Users\stapi\AppData\Local\Temp\ccXQrqsW.s:248    .text.wpa_bssid_ignore_clear:0000000000000048 .L0 
C:\Users\stapi\AppData\Local\Temp\ccXQrqsW.s:252    .text.wpa_bssid_ignore_clear:0000000000000052 .L0 
C:\Users\stapi\AppData\Local\Temp\ccXQrqsW.s:255    .text.wpa_bssid_ignore_clear:0000000000000056 .L0 
C:\Users\stapi\AppData\Local\Temp\ccXQrqsW.s:266    .text.wpa_bssid_ignore_update:0000000000000000 wpa_bssid_ignore_update
C:\Users\stapi\AppData\Local\Temp\ccXQrqsW.s:269    .text.wpa_bssid_ignore_update:0000000000000000 .L0 
C:\Users\stapi\AppData\Local\Temp\ccXQrqsW.s:271    .text.wpa_bssid_ignore_update:0000000000000000 .L0 
C:\Users\stapi\AppData\Local\Temp\ccXQrqsW.s:272    .text.wpa_bssid_ignore_update:0000000000000000 .L0 
C:\Users\stapi\AppData\Local\Temp\ccXQrqsW.s:273    .text.wpa_bssid_ignore_update:0000000000000000 .L0 
C:\Users\stapi\AppData\Local\Temp\ccXQrqsW.s:274    .text.wpa_bssid_ignore_update:0000000000000000 .L0 
C:\Users\stapi\AppData\Local\Temp\ccXQrqsW.s:275    .text.wpa_bssid_ignore_update:0000000000000000 .L0 
C:\Users\stapi\AppData\Local\Temp\ccXQrqsW.s:277    .text.wpa_bssid_ignore_update:0000000000000002 .L0 
C:\Users\stapi\AppData\Local\Temp\ccXQrqsW.s:278    .text.wpa_bssid_ignore_update:000000000000000a .L0 
C:\Users\stapi\AppData\Local\Temp\ccXQrqsW.s:279    .text.wpa_bssid_ignore_update:000000000000000a .L0 
C:\Users\stapi\AppData\Local\Temp\ccXQrqsW.s:280    .text.wpa_bssid_ignore_update:000000000000000a .L0 
C:\Users\stapi\AppData\Local\Temp\ccXQrqsW.s:281    .text.wpa_bssid_ignore_update:000000000000000a .L0 
C:\Users\stapi\AppData\Local\Temp\ccXQrqsW.s:282    .text.wpa_bssid_ignore_update:000000000000000a .L0 
C:\Users\stapi\AppData\Local\Temp\ccXQrqsW.s:283    .text.wpa_bssid_ignore_update:000000000000000a .L0 
C:\Users\stapi\AppData\Local\Temp\ccXQrqsW.s:284    .text.wpa_bssid_ignore_update:000000000000000a .L0 
C:\Users\stapi\AppData\Local\Temp\ccXQrqsW.s:285    .text.wpa_bssid_ignore_update:000000000000000a .L0 
C:\Users\stapi\AppData\Local\Temp\ccXQrqsW.s:287    .text.wpa_bssid_ignore_update:000000000000000c .L0 
C:\Users\stapi\AppData\Local\Temp\ccXQrqsW.s:291    .text.wpa_bssid_ignore_update:000000000000000c .L0 
C:\Users\stapi\AppData\Local\Temp\ccXQrqsW.s:295    .text.wpa_bssid_ignore_update:0000000000000012 .L0 
C:\Users\stapi\AppData\Local\Temp\ccXQrqsW.s:296    .text.wpa_bssid_ignore_update:0000000000000012 .L0 
C:\Users\stapi\AppData\Local\Temp\ccXQrqsW.s:297    .text.wpa_bssid_ignore_update:0000000000000012 .L0 
C:\Users\stapi\AppData\Local\Temp\ccXQrqsW.s:299    .text.wpa_bssid_ignore_update:0000000000000014 .L0 
C:\Users\stapi\AppData\Local\Temp\ccXQrqsW.s:304    .text.wpa_bssid_ignore_update:000000000000001e .L0 
C:\Users\stapi\AppData\Local\Temp\ccXQrqsW.s:305    .text.wpa_bssid_ignore_update:000000000000001e .L0 
C:\Users\stapi\AppData\Local\Temp\ccXQrqsW.s:307    .text.wpa_bssid_ignore_update:0000000000000020 .L0 
C:\Users\stapi\AppData\Local\Temp\ccXQrqsW.s:310    .text.wpa_bssid_ignore_update:0000000000000024 .L0 
C:\Users\stapi\AppData\Local\Temp\ccXQrqsW.s:315    .text.wpa_bssid_ignore_update:0000000000000028 .L0 
C:\Users\stapi\AppData\Local\Temp\ccXQrqsW.s:319    .text.wpa_bssid_ignore_update:000000000000002a .L0 
C:\Users\stapi\AppData\Local\Temp\ccXQrqsW.s:320    .text.wpa_bssid_ignore_update:000000000000002c .L0 
C:\Users\stapi\AppData\Local\Temp\ccXQrqsW.s:321    .text.wpa_bssid_ignore_update:000000000000002c .L0 
C:\Users\stapi\AppData\Local\Temp\ccXQrqsW.s:323    .text.wpa_bssid_ignore_update:0000000000000034 .L0 
C:\Users\stapi\AppData\Local\Temp\ccXQrqsW.s:324    .text.wpa_bssid_ignore_update:0000000000000034 .L0 
C:\Users\stapi\AppData\Local\Temp\ccXQrqsW.s:325    .text.wpa_bssid_ignore_update:0000000000000034 .L0 
C:\Users\stapi\AppData\Local\Temp\ccXQrqsW.s:326    .text.wpa_bssid_ignore_update:0000000000000034 .L0 
C:\Users\stapi\AppData\Local\Temp\ccXQrqsW.s:327    .text.wpa_bssid_ignore_update:0000000000000034 .L0 
C:\Users\stapi\AppData\Local\Temp\ccXQrqsW.s:328    .text.wpa_bssid_ignore_update:0000000000000034 .L0 
C:\Users\stapi\AppData\Local\Temp\ccXQrqsW.s:329    .text.wpa_bssid_ignore_update:0000000000000034 .L0 
C:\Users\stapi\AppData\Local\Temp\ccXQrqsW.s:330    .text.wpa_bssid_ignore_update:0000000000000034 .L0 
C:\Users\stapi\AppData\Local\Temp\ccXQrqsW.s:332    .text.wpa_bssid_ignore_update:0000000000000034 .L0 
C:\Users\stapi\AppData\Local\Temp\ccXQrqsW.s:336    .text.wpa_bssid_ignore_update:0000000000000034 .L0 
C:\Users\stapi\AppData\Local\Temp\ccXQrqsW.s:337    .text.wpa_bssid_ignore_update:0000000000000034 .L0 
C:\Users\stapi\AppData\Local\Temp\ccXQrqsW.s:339    .text.wpa_bssid_ignore_update:0000000000000036 .L0 
C:\Users\stapi\AppData\Local\Temp\ccXQrqsW.s:346    .text.wpa_bssid_ignore_update:0000000000000046 .L0 
C:\Users\stapi\AppData\Local\Temp\ccXQrqsW.s:349    .text.wpa_bssid_ignore_update:000000000000004a .L0 
C:\Users\stapi\AppData\Local\Temp\ccXQrqsW.s:353    .text.wpa_bssid_ignore_update:000000000000004c .L0 
C:\Users\stapi\AppData\Local\Temp\ccXQrqsW.s:354    .text.wpa_bssid_ignore_update:000000000000004c .L0 
C:\Users\stapi\AppData\Local\Temp\ccXQrqsW.s:355    .text.wpa_bssid_ignore_update:000000000000004c .L0 
C:\Users\stapi\AppData\Local\Temp\ccXQrqsW.s:357    .text.wpa_bssid_ignore_update:0000000000000050 .L0 
C:\Users\stapi\AppData\Local\Temp\ccXQrqsW.s:358    .text.wpa_bssid_ignore_update:0000000000000050 .L0 
C:\Users\stapi\AppData\Local\Temp\ccXQrqsW.s:362    .text.wpa_bssid_ignore_update:0000000000000054 .L0 
C:\Users\stapi\AppData\Local\Temp\ccXQrqsW.s:363    .text.wpa_bssid_ignore_update:0000000000000054 .L0 
C:\Users\stapi\AppData\Local\Temp\ccXQrqsW.s:374    .text.wpa_bssid_ignore_update:000000000000007a .L0 
C:\Users\stapi\AppData\Local\Temp\ccXQrqsW.s:388    .text.wpa_bssid_ignore_update:000000000000008c .L0 
C:\Users\stapi\AppData\Local\Temp\ccXQrqsW.s:389    .text.wpa_bssid_ignore_update:000000000000008c .L0 
C:\Users\stapi\AppData\Local\Temp\ccXQrqsW.s:392    .text.wpa_bssid_ignore_update:0000000000000090 .L0 
C:\Users\stapi\AppData\Local\Temp\ccXQrqsW.s:395    .text.wpa_bssid_ignore_update:0000000000000092 .L0 
C:\Users\stapi\AppData\Local\Temp\ccXQrqsW.s:396    .text.wpa_bssid_ignore_update:0000000000000092 .L0 
C:\Users\stapi\AppData\Local\Temp\ccXQrqsW.s:397    .text.wpa_bssid_ignore_update:0000000000000092 .L0 
C:\Users\stapi\AppData\Local\Temp\ccXQrqsW.s:398    .text.wpa_bssid_ignore_update:0000000000000092 .L0 
C:\Users\stapi\AppData\Local\Temp\ccXQrqsW.s:399    .text.wpa_bssid_ignore_update:0000000000000092 .L0 
C:\Users\stapi\AppData\Local\Temp\ccXQrqsW.s:400    .text.wpa_bssid_ignore_update:0000000000000092 .L0 
C:\Users\stapi\AppData\Local\Temp\ccXQrqsW.s:401    .text.wpa_bssid_ignore_update:0000000000000092 .L0 
C:\Users\stapi\AppData\Local\Temp\ccXQrqsW.s:402    .text.wpa_bssid_ignore_update:0000000000000092 .L0 
C:\Users\stapi\AppData\Local\Temp\ccXQrqsW.s:407    .text.wpa_bssid_ignore_update:0000000000000094 .L0 
C:\Users\stapi\AppData\Local\Temp\ccXQrqsW.s:414    .text.wpa_bssid_ignore_get:0000000000000000 wpa_bssid_ignore_get
C:\Users\stapi\AppData\Local\Temp\ccXQrqsW.s:417    .text.wpa_bssid_ignore_get:0000000000000000 .L0 
C:\Users\stapi\AppData\Local\Temp\ccXQrqsW.s:419    .text.wpa_bssid_ignore_get:0000000000000000 .L0 
C:\Users\stapi\AppData\Local\Temp\ccXQrqsW.s:420    .text.wpa_bssid_ignore_get:0000000000000008 .L0 
C:\Users\stapi\AppData\Local\Temp\ccXQrqsW.s:421    .text.wpa_bssid_ignore_get:0000000000000008 .L0 
C:\Users\stapi\AppData\Local\Temp\ccXQrqsW.s:422    .text.wpa_bssid_ignore_get:0000000000000008 .L0 
C:\Users\stapi\AppData\Local\Temp\ccXQrqsW.s:423    .text.wpa_bssid_ignore_get:0000000000000008 .L0 
C:\Users\stapi\AppData\Local\Temp\ccXQrqsW.s:425    .text.wpa_bssid_ignore_get:0000000000000008 .L0 
C:\Users\stapi\AppData\Local\Temp\ccXQrqsW.s:426    .text.wpa_bssid_ignore_get:0000000000000008 .L0 
C:\Users\stapi\AppData\Local\Temp\ccXQrqsW.s:427    .text.wpa_bssid_ignore_get:0000000000000008 .L0 
C:\Users\stapi\AppData\Local\Temp\ccXQrqsW.s:431    .text.wpa_bssid_ignore_get:000000000000000a .L0 
C:\Users\stapi\AppData\Local\Temp\ccXQrqsW.s:432    .text.wpa_bssid_ignore_get:000000000000000a .L0 
C:\Users\stapi\AppData\Local\Temp\ccXQrqsW.s:435    .text.wpa_bssid_ignore_get:000000000000000c .L0 
C:\Users\stapi\AppData\Local\Temp\ccXQrqsW.s:437    .text.wpa_bssid_ignore_get:0000000000000016 .L0 
C:\Users\stapi\AppData\Local\Temp\ccXQrqsW.s:438    .text.wpa_bssid_ignore_get:0000000000000016 .L0 
C:\Users\stapi\AppData\Local\Temp\ccXQrqsW.s:439    .text.wpa_bssid_ignore_get:0000000000000016 .L0 
C:\Users\stapi\AppData\Local\Temp\ccXQrqsW.s:440    .text.wpa_bssid_ignore_get:0000000000000016 .L0 
C:\Users\stapi\AppData\Local\Temp\ccXQrqsW.s:441    .text.wpa_bssid_ignore_get:0000000000000016 .L0 
C:\Users\stapi\AppData\Local\Temp\ccXQrqsW.s:444    .text.wpa_bssid_ignore_get:0000000000000016 .L0 
C:\Users\stapi\AppData\Local\Temp\ccXQrqsW.s:447    .text.wpa_bssid_ignore_get:0000000000000018 .L0 
C:\Users\stapi\AppData\Local\Temp\ccXQrqsW.s:450    .text.wpa_bssid_ignore_get:000000000000001a .L0 
C:\Users\stapi\AppData\Local\Temp\ccXQrqsW.s:453    .text.wpa_bssid_ignore_get:0000000000000020 .L0 
C:\Users\stapi\AppData\Local\Temp\ccXQrqsW.s:454    .text.wpa_bssid_ignore_get:0000000000000020 .L0 
C:\Users\stapi\AppData\Local\Temp\ccXQrqsW.s:457    .text.wpa_bssid_ignore_get:0000000000000022 .L0 
C:\Users\stapi\AppData\Local\Temp\ccXQrqsW.s:460    .text.wpa_bssid_ignore_get:0000000000000028 .L0 
C:\Users\stapi\AppData\Local\Temp\ccXQrqsW.s:463    .text.wpa_bssid_ignore_get:0000000000000030 .L0 
C:\Users\stapi\AppData\Local\Temp\ccXQrqsW.s:464    .text.wpa_bssid_ignore_get:0000000000000030 .L0 
C:\Users\stapi\AppData\Local\Temp\ccXQrqsW.s:469    .text.wpa_bssid_ignore_get:000000000000003a .L0 
C:\Users\stapi\AppData\Local\Temp\ccXQrqsW.s:473    .text.wpa_bssid_ignore_get:0000000000000044 .L0 
C:\Users\stapi\AppData\Local\Temp\ccXQrqsW.s:474    .text.wpa_bssid_ignore_get:0000000000000044 .L0 
C:\Users\stapi\AppData\Local\Temp\ccXQrqsW.s:478    .text.wpa_bssid_ignore_get:0000000000000048 .L0 
C:\Users\stapi\AppData\Local\Temp\ccXQrqsW.s:479    .text.wpa_bssid_ignore_get:0000000000000048 .L0 
C:\Users\stapi\AppData\Local\Temp\ccXQrqsW.s:481    .text.wpa_bssid_ignore_get:000000000000004a .L0 
C:\Users\stapi\AppData\Local\Temp\ccXQrqsW.s:482    .text.wpa_bssid_ignore_get:000000000000004a .L0 
C:\Users\stapi\AppData\Local\Temp\ccXQrqsW.s:488    .text.wpa_bssid_ignore_get:000000000000005a .L0 
C:\Users\stapi\AppData\Local\Temp\ccXQrqsW.s:490    .text.wpa_bssid_ignore_get:000000000000005c .L0 
C:\Users\stapi\AppData\Local\Temp\ccXQrqsW.s:491    .text.wpa_bssid_ignore_get:000000000000005c .L0 
C:\Users\stapi\AppData\Local\Temp\ccXQrqsW.s:494    .text.wpa_bssid_ignore_get:0000000000000060 .L0 
C:\Users\stapi\AppData\Local\Temp\ccXQrqsW.s:508    .text.wpa_bssid_ignore_add:0000000000000000 wpa_bssid_ignore_add
C:\Users\stapi\AppData\Local\Temp\ccXQrqsW.s:511    .text.wpa_bssid_ignore_add:0000000000000000 .L0 
C:\Users\stapi\AppData\Local\Temp\ccXQrqsW.s:513    .text.wpa_bssid_ignore_add:0000000000000000 .L0 
C:\Users\stapi\AppData\Local\Temp\ccXQrqsW.s:514    .text.wpa_bssid_ignore_add:0000000000000000 .L0 
C:\Users\stapi\AppData\Local\Temp\ccXQrqsW.s:515    .text.wpa_bssid_ignore_add:0000000000000000 .L0 
C:\Users\stapi\AppData\Local\Temp\ccXQrqsW.s:516    .text.wpa_bssid_ignore_add:0000000000000000 .L0 
C:\Users\stapi\AppData\Local\Temp\ccXQrqsW.s:517    .text.wpa_bssid_ignore_add:0000000000000000 .L0 
C:\Users\stapi\AppData\Local\Temp\ccXQrqsW.s:519    .text.wpa_bssid_ignore_add:0000000000000002 .L0 
C:\Users\stapi\AppData\Local\Temp\ccXQrqsW.s:522    .text.wpa_bssid_ignore_add:0000000000000004 .L0 
C:\Users\stapi\AppData\Local\Temp\ccXQrqsW.s:525    .text.wpa_bssid_ignore_add:0000000000000006 .L0 
C:\Users\stapi\AppData\Local\Temp\ccXQrqsW.s:526    .text.wpa_bssid_ignore_add:0000000000000006 .L0 
C:\Users\stapi\AppData\Local\Temp\ccXQrqsW.s:527    .text.wpa_bssid_ignore_add:0000000000000006 .L0 
C:\Users\stapi\AppData\Local\Temp\ccXQrqsW.s:528    .text.wpa_bssid_ignore_add:0000000000000006 .L0 
C:\Users\stapi\AppData\Local\Temp\ccXQrqsW.s:529    .text.wpa_bssid_ignore_add:0000000000000006 .L0 
C:\Users\stapi\AppData\Local\Temp\ccXQrqsW.s:531    .text.wpa_bssid_ignore_add:0000000000000006 .L0 
C:\Users\stapi\AppData\Local\Temp\ccXQrqsW.s:534    .text.wpa_bssid_ignore_add:0000000000000008 .L0 
C:\Users\stapi\AppData\Local\Temp\ccXQrqsW.s:535    .text.wpa_bssid_ignore_add:000000000000000a .L0 
C:\Users\stapi\AppData\Local\Temp\ccXQrqsW.s:537    .text.wpa_bssid_ignore_add:0000000000000012 .L0 
C:\Users\stapi\AppData\Local\Temp\ccXQrqsW.s:538    .text.wpa_bssid_ignore_add:0000000000000012 .L0 
C:\Users\stapi\AppData\Local\Temp\ccXQrqsW.s:539    .text.wpa_bssid_ignore_add:0000000000000012 .L0 
C:\Users\stapi\AppData\Local\Temp\ccXQrqsW.s:540    .text.wpa_bssid_ignore_add:0000000000000012 .L0 
C:\Users\stapi\AppData\Local\Temp\ccXQrqsW.s:541    .text.wpa_bssid_ignore_add:0000000000000012 .L0 
C:\Users\stapi\AppData\Local\Temp\ccXQrqsW.s:544    .text.wpa_bssid_ignore_add:0000000000000012 .L0 
C:\Users\stapi\AppData\Local\Temp\ccXQrqsW.s:546    .text.wpa_bssid_ignore_add:0000000000000012 .L0 
C:\Users\stapi\AppData\Local\Temp\ccXQrqsW.s:547    .text.wpa_bssid_ignore_add:000000000000001a .L0 
C:\Users\stapi\AppData\Local\Temp\ccXQrqsW.s:548    .text.wpa_bssid_ignore_add:000000000000001a .L0 
C:\Users\stapi\AppData\Local\Temp\ccXQrqsW.s:549    .text.wpa_bssid_ignore_add:000000000000001a .L0 
C:\Users\stapi\AppData\Local\Temp\ccXQrqsW.s:550    .text.wpa_bssid_ignore_add:000000000000001a .L0 
C:\Users\stapi\AppData\Local\Temp\ccXQrqsW.s:551    .text.wpa_bssid_ignore_add:000000000000001a .L0 
C:\Users\stapi\AppData\Local\Temp\ccXQrqsW.s:553    .text.wpa_bssid_ignore_add:000000000000001c .L0 
C:\Users\stapi\AppData\Local\Temp\ccXQrqsW.s:556    .text.wpa_bssid_ignore_add:000000000000001e .L0 
C:\Users\stapi\AppData\Local\Temp\ccXQrqsW.s:560    .text.wpa_bssid_ignore_add:0000000000000022 .L0 
C:\Users\stapi\AppData\Local\Temp\ccXQrqsW.s:561    .text.wpa_bssid_ignore_add:0000000000000022 .L0 
C:\Users\stapi\AppData\Local\Temp\ccXQrqsW.s:566    .text.wpa_bssid_ignore_add:000000000000002c .L0 
C:\Users\stapi\AppData\Local\Temp\ccXQrqsW.s:570    .text.wpa_bssid_ignore_add:0000000000000036 .L0 
C:\Users\stapi\AppData\Local\Temp\ccXQrqsW.s:571    .text.wpa_bssid_ignore_add:0000000000000036 .L0 
C:\Users\stapi\AppData\Local\Temp\ccXQrqsW.s:573    .text.wpa_bssid_ignore_add:0000000000000038 .L0 
C:\Users\stapi\AppData\Local\Temp\ccXQrqsW.s:574    .text.wpa_bssid_ignore_add:0000000000000038 .L0 
C:\Users\stapi\AppData\Local\Temp\ccXQrqsW.s:576    .text.wpa_bssid_ignore_add:000000000000003a .L0 
C:\Users\stapi\AppData\Local\Temp\ccXQrqsW.s:578    .text.wpa_bssid_ignore_add:000000000000003c .L0 
C:\Users\stapi\AppData\Local\Temp\ccXQrqsW.s:582    .text.wpa_bssid_ignore_add:0000000000000042 .L0 
C:\Users\stapi\AppData\Local\Temp\ccXQrqsW.s:583    .text.wpa_bssid_ignore_add:0000000000000042 .L0 
C:\Users\stapi\AppData\Local\Temp\ccXQrqsW.s:587    .text.wpa_bssid_ignore_add:0000000000000048 .L0 
C:\Users\stapi\AppData\Local\Temp\ccXQrqsW.s:588    .text.wpa_bssid_ignore_add:0000000000000048 .L0 
C:\Users\stapi\AppData\Local\Temp\ccXQrqsW.s:590    .text.wpa_bssid_ignore_add:000000000000004c .L0 
C:\Users\stapi\AppData\Local\Temp\ccXQrqsW.s:591    .text.wpa_bssid_ignore_add:000000000000004c .L0 
C:\Users\stapi\AppData\Local\Temp\ccXQrqsW.s:594    .text.wpa_bssid_ignore_add:0000000000000050 .L0 
C:\Users\stapi\AppData\Local\Temp\ccXQrqsW.s:596    .text.wpa_bssid_ignore_add:0000000000000052 .L0 
C:\Users\stapi\AppData\Local\Temp\ccXQrqsW.s:612    .text.wpa_bssid_ignore_add:0000000000000082 .L0 
C:\Users\stapi\AppData\Local\Temp\ccXQrqsW.s:613    .text.wpa_bssid_ignore_add:0000000000000082 .L0 
C:\Users\stapi\AppData\Local\Temp\ccXQrqsW.s:614    .text.wpa_bssid_ignore_add:0000000000000082 .L0 
C:\Users\stapi\AppData\Local\Temp\ccXQrqsW.s:618    .text.wpa_bssid_ignore_add:0000000000000086 .L0 
C:\Users\stapi\AppData\Local\Temp\ccXQrqsW.s:619    .text.wpa_bssid_ignore_add:0000000000000086 .L0 
C:\Users\stapi\AppData\Local\Temp\ccXQrqsW.s:621    .text.wpa_bssid_ignore_add:000000000000008a .L0 
C:\Users\stapi\AppData\Local\Temp\ccXQrqsW.s:622    .text.wpa_bssid_ignore_add:000000000000008a .L0 
C:\Users\stapi\AppData\Local\Temp\ccXQrqsW.s:626    .text.wpa_bssid_ignore_add:0000000000000090 .L0 
C:\Users\stapi\AppData\Local\Temp\ccXQrqsW.s:627    .text.wpa_bssid_ignore_add:0000000000000090 .L0 
C:\Users\stapi\AppData\Local\Temp\ccXQrqsW.s:630    .text.wpa_bssid_ignore_add:0000000000000096 .L0 
C:\Users\stapi\AppData\Local\Temp\ccXQrqsW.s:631    .text.wpa_bssid_ignore_add:0000000000000096 .L0 
C:\Users\stapi\AppData\Local\Temp\ccXQrqsW.s:635    .text.wpa_bssid_ignore_add:000000000000009c .L0 
C:\Users\stapi\AppData\Local\Temp\ccXQrqsW.s:636    .text.wpa_bssid_ignore_add:000000000000009c .L0 
C:\Users\stapi\AppData\Local\Temp\ccXQrqsW.s:639    .text.wpa_bssid_ignore_add:00000000000000a2 .L0 
C:\Users\stapi\AppData\Local\Temp\ccXQrqsW.s:640    .text.wpa_bssid_ignore_add:00000000000000a2 .L0 
C:\Users\stapi\AppData\Local\Temp\ccXQrqsW.s:644    .text.wpa_bssid_ignore_add:00000000000000a8 .L0 
C:\Users\stapi\AppData\Local\Temp\ccXQrqsW.s:645    .text.wpa_bssid_ignore_add:00000000000000a8 .L0 
C:\Users\stapi\AppData\Local\Temp\ccXQrqsW.s:649    .text.wpa_bssid_ignore_add:00000000000000ac .L0 
C:\Users\stapi\AppData\Local\Temp\ccXQrqsW.s:650    .text.wpa_bssid_ignore_add:00000000000000ac .L0 
C:\Users\stapi\AppData\Local\Temp\ccXQrqsW.s:656    .text.wpa_bssid_ignore_add:00000000000000b8 .L0 
C:\Users\stapi\AppData\Local\Temp\ccXQrqsW.s:657    .text.wpa_bssid_ignore_add:00000000000000b8 .L0 
C:\Users\stapi\AppData\Local\Temp\ccXQrqsW.s:659    .text.wpa_bssid_ignore_add:00000000000000ba .L0 
C:\Users\stapi\AppData\Local\Temp\ccXQrqsW.s:665    .text.wpa_bssid_ignore_add:00000000000000c8 .L0 
C:\Users\stapi\AppData\Local\Temp\ccXQrqsW.s:666    .text.wpa_bssid_ignore_add:00000000000000c8 .L0 
C:\Users\stapi\AppData\Local\Temp\ccXQrqsW.s:668    .text.wpa_bssid_ignore_add:00000000000000ca .L0 
C:\Users\stapi\AppData\Local\Temp\ccXQrqsW.s:671    .text.wpa_bssid_ignore_add:00000000000000ce .L0 
C:\Users\stapi\AppData\Local\Temp\ccXQrqsW.s:672    .text.wpa_bssid_ignore_add:00000000000000ce .L0 
C:\Users\stapi\AppData\Local\Temp\ccXQrqsW.s:675    .text.wpa_bssid_ignore_add:00000000000000d2 .L0 
C:\Users\stapi\AppData\Local\Temp\ccXQrqsW.s:678    .text.wpa_bssid_ignore_add:00000000000000d6 .L0 
C:\Users\stapi\AppData\Local\Temp\ccXQrqsW.s:679    .text.wpa_bssid_ignore_add:00000000000000d6 .L0 
C:\Users\stapi\AppData\Local\Temp\ccXQrqsW.s:681    .text.wpa_bssid_ignore_add:00000000000000d8 .L0 
C:\Users\stapi\AppData\Local\Temp\ccXQrqsW.s:682    .text.wpa_bssid_ignore_add:00000000000000d8 .L0 
C:\Users\stapi\AppData\Local\Temp\ccXQrqsW.s:684    .text.wpa_bssid_ignore_add:00000000000000dc .L0 
C:\Users\stapi\AppData\Local\Temp\ccXQrqsW.s:687    .text.wpa_bssid_ignore_add:00000000000000e4 .L0 
C:\Users\stapi\AppData\Local\Temp\ccXQrqsW.s:689    .text.wpa_bssid_ignore_add:00000000000000e6 .L0 
C:\Users\stapi\AppData\Local\Temp\ccXQrqsW.s:690    .text.wpa_bssid_ignore_add:00000000000000e6 .L0 
C:\Users\stapi\AppData\Local\Temp\ccXQrqsW.s:692    .text.wpa_bssid_ignore_add:00000000000000ea .L0 
C:\Users\stapi\AppData\Local\Temp\ccXQrqsW.s:703    .text.wpa_bssid_ignore_add:0000000000000110 .L0 
C:\Users\stapi\AppData\Local\Temp\ccXQrqsW.s:710    .text.wpa_bssid_ignore_is_listed:0000000000000000 wpa_bssid_ignore_is_listed
C:\Users\stapi\AppData\Local\Temp\ccXQrqsW.s:713    .text.wpa_bssid_ignore_is_listed:0000000000000000 .L0 
C:\Users\stapi\AppData\Local\Temp\ccXQrqsW.s:715    .text.wpa_bssid_ignore_is_listed:0000000000000000 .L0 
C:\Users\stapi\AppData\Local\Temp\ccXQrqsW.s:716    .text.wpa_bssid_ignore_is_listed:0000000000000008 .L0 
C:\Users\stapi\AppData\Local\Temp\ccXQrqsW.s:717    .text.wpa_bssid_ignore_is_listed:0000000000000008 .L0 
C:\Users\stapi\AppData\Local\Temp\ccXQrqsW.s:718    .text.wpa_bssid_ignore_is_listed:0000000000000008 .L0 
C:\Users\stapi\AppData\Local\Temp\ccXQrqsW.s:720    .text.wpa_bssid_ignore_is_listed:0000000000000008 .L0 
C:\Users\stapi\AppData\Local\Temp\ccXQrqsW.s:721    .text.wpa_bssid_ignore_is_listed:0000000000000008 .L0 
C:\Users\stapi\AppData\Local\Temp\ccXQrqsW.s:722    .text.wpa_bssid_ignore_is_listed:0000000000000008 .L0 
C:\Users\stapi\AppData\Local\Temp\ccXQrqsW.s:723    .text.wpa_bssid_ignore_is_listed:0000000000000008 .L0 
C:\Users\stapi\AppData\Local\Temp\ccXQrqsW.s:724    .text.wpa_bssid_ignore_is_listed:000000000000000a .L0 
C:\Users\stapi\AppData\Local\Temp\ccXQrqsW.s:726    .text.wpa_bssid_ignore_is_listed:000000000000000a .L0 
C:\Users\stapi\AppData\Local\Temp\ccXQrqsW.s:729    .text.wpa_bssid_ignore_is_listed:0000000000000012 .L0 
C:\Users\stapi\AppData\Local\Temp\ccXQrqsW.s:730    .text.wpa_bssid_ignore_is_listed:0000000000000012 .L0 
C:\Users\stapi\AppData\Local\Temp\ccXQrqsW.s:734    .text.wpa_bssid_ignore_is_listed:0000000000000014 .L0 
C:\Users\stapi\AppData\Local\Temp\ccXQrqsW.s:737    .text.wpa_bssid_ignore_is_listed:0000000000000016 .L0 
C:\Users\stapi\AppData\Local\Temp\ccXQrqsW.s:738    .text.wpa_bssid_ignore_is_listed:0000000000000018 .L0 
C:\Users\stapi\AppData\Local\Temp\ccXQrqsW.s:739    .text.wpa_bssid_ignore_is_listed:0000000000000018 .L0 
C:\Users\stapi\AppData\Local\Temp\ccXQrqsW.s:741    .text.wpa_bssid_ignore_is_listed:0000000000000020 .L0 
C:\Users\stapi\AppData\Local\Temp\ccXQrqsW.s:742    .text.wpa_bssid_ignore_is_listed:0000000000000020 .L0 
C:\Users\stapi\AppData\Local\Temp\ccXQrqsW.s:743    .text.wpa_bssid_ignore_is_listed:0000000000000020 .L0 
C:\Users\stapi\AppData\Local\Temp\ccXQrqsW.s:746    .text.wpa_bssid_ignore_is_listed:0000000000000020 .L0 
C:\Users\stapi\AppData\Local\Temp\ccXQrqsW.s:749    .text.wpa_bssid_ignore_is_listed:0000000000000022 .L0 
C:\Users\stapi\AppData\Local\Temp\ccXQrqsW.s:754    .text.wpa_bssid_ignore_is_listed:000000000000002c .L0 
C:\Users\stapi\AppData\Local\Temp\ccXQrqsW.s:755    .text.wpa_bssid_ignore_is_listed:000000000000002c .L0 
C:\Users\stapi\AppData\Local\Temp\ccXQrqsW.s:761    .text.wpa_bssid_ignore_is_listed:000000000000003c .L0 
C:\Users\stapi\AppData\Local\Temp\ccXQrqsW.s:763    .text.wpa_bssid_ignore_is_listed:000000000000003e .L0 
C:\Users\stapi\AppData\Local\Temp\ccXQrqsW.s:764    .text.wpa_bssid_ignore_is_listed:000000000000003e .L0 
C:\Users\stapi\AppData\Local\Temp\ccXQrqsW.s:766    .text.wpa_bssid_ignore_is_listed:0000000000000042 .L0 
C:\Users\stapi\AppData\Local\Temp\ccXQrqsW.s:69     .text.os_reltime_expired:000000000000002e .L0 
C:\Users\stapi\AppData\Local\Temp\ccXQrqsW.s:185    .text.wpa_bssid_ignore_del:0000000000000084 .L0 
C:\Users\stapi\AppData\Local\Temp\ccXQrqsW.s:258    .text.wpa_bssid_ignore_clear:0000000000000056 .L0 
C:\Users\stapi\AppData\Local\Temp\ccXQrqsW.s:410    .text.wpa_bssid_ignore_update:0000000000000094 .L0 
C:\Users\stapi\AppData\Local\Temp\ccXQrqsW.s:497    .text.wpa_bssid_ignore_get:0000000000000060 .L0 
C:\Users\stapi\AppData\Local\Temp\ccXQrqsW.s:706    .text.wpa_bssid_ignore_add:0000000000000110 .L0 
C:\Users\stapi\AppData\Local\Temp\ccXQrqsW.s:769    .text.wpa_bssid_ignore_is_listed:0000000000000042 .L0 
                     .debug_frame:0000000000000000 .L0 
C:\Users\stapi\AppData\Local\Temp\ccXQrqsW.s:50     .text.os_reltime_expired:000000000000001c .L2
C:\Users\stapi\AppData\Local\Temp\ccXQrqsW.s:63     .text.os_reltime_expired:000000000000002c .L1
C:\Users\stapi\AppData\Local\Temp\ccXQrqsW.s:71     .rodata.wpa_bssid_ignore_del.str1.4:0000000000000000 .LC0
C:\Users\stapi\AppData\Local\Temp\ccXQrqsW.s:113    .text.wpa_bssid_ignore_del:0000000000000016 .L7
C:\Users\stapi\AppData\Local\Temp\ccXQrqsW.s:97     .text.wpa_bssid_ignore_del:000000000000000a .L9
C:\Users\stapi\AppData\Local\Temp\ccXQrqsW.s:173    .text.wpa_bssid_ignore_del:000000000000007e .L11
C:\Users\stapi\AppData\Local\Temp\ccXQrqsW.s:168    .text.wpa_bssid_ignore_del:0000000000000078 .L12
C:\Users\stapi\AppData\Local\Temp\ccXQrqsW.s:100    .text.wpa_bssid_ignore_del:000000000000000c .L6
C:\Users\stapi\AppData\Local\Temp\ccXQrqsW.s:148    .text.wpa_bssid_ignore_del:0000000000000042 .L13
C:\Users\stapi\AppData\Local\Temp\ccXQrqsW.s:128    .text.wpa_bssid_ignore_del:0000000000000022 .L10
C:\Users\stapi\AppData\Local\Temp\ccXQrqsW.s:187    .rodata.wpa_bssid_ignore_clear.str1.4:0000000000000000 .LC1
C:\Users\stapi\AppData\Local\Temp\ccXQrqsW.s:227    .text.wpa_bssid_ignore_clear:000000000000001e .L21
C:\Users\stapi\AppData\Local\Temp\ccXQrqsW.s:216    .text.wpa_bssid_ignore_clear:0000000000000014 .L20
C:\Users\stapi\AppData\Local\Temp\ccXQrqsW.s:260    .rodata.wpa_bssid_ignore_update.str1.4:0000000000000000 .LC2
C:\Users\stapi\AppData\Local\Temp\ccXQrqsW.s:394    .text.wpa_bssid_ignore_update:0000000000000092 .L37
C:\Users\stapi\AppData\Local\Temp\ccXQrqsW.s:331    .text.wpa_bssid_ignore_update:0000000000000034 .L29
C:\Users\stapi\AppData\Local\Temp\ccXQrqsW.s:380    .text.wpa_bssid_ignore_update:0000000000000086 .L26
C:\Users\stapi\AppData\Local\Temp\ccXQrqsW.s:385    .text.wpa_bssid_ignore_update:000000000000008c .L27
C:\Users\stapi\AppData\Local\Temp\ccXQrqsW.s:312    .text.wpa_bssid_ignore_update:0000000000000028 .L25
C:\Users\stapi\AppData\Local\Temp\ccXQrqsW.s:361    .text.wpa_bssid_ignore_update:0000000000000054 .L28
C:\Users\stapi\AppData\Local\Temp\ccXQrqsW.s:443    .text.wpa_bssid_ignore_get:0000000000000016 .L41
C:\Users\stapi\AppData\Local\Temp\ccXQrqsW.s:429    .text.wpa_bssid_ignore_get:000000000000000a .L60
C:\Users\stapi\AppData\Local\Temp\ccXQrqsW.s:467    .text.wpa_bssid_ignore_get:000000000000003a .L44
C:\Users\stapi\AppData\Local\Temp\ccXQrqsW.s:433    .text.wpa_bssid_ignore_get:000000000000000c .L40
C:\Users\stapi\AppData\Local\Temp\ccXQrqsW.s:477    .text.wpa_bssid_ignore_get:0000000000000048 .L45
C:\Users\stapi\AppData\Local\Temp\ccXQrqsW.s:499    .rodata.wpa_bssid_ignore_add.str1.4:0000000000000000 .LC3
C:\Users\stapi\AppData\Local\Temp\ccXQrqsW.s:502    .rodata.wpa_bssid_ignore_add.str1.4:0000000000000064 .LC4
C:\Users\stapi\AppData\Local\Temp\ccXQrqsW.s:543    .text.wpa_bssid_ignore_add:0000000000000012 .L62
C:\Users\stapi\AppData\Local\Temp\ccXQrqsW.s:524    .text.wpa_bssid_ignore_add:0000000000000006 .L64
C:\Users\stapi\AppData\Local\Temp\ccXQrqsW.s:647    .text.wpa_bssid_ignore_add:00000000000000ac .L65
C:\Users\stapi\AppData\Local\Temp\ccXQrqsW.s:616    .text.wpa_bssid_ignore_add:0000000000000086 .L66
C:\Users\stapi\AppData\Local\Temp\ccXQrqsW.s:532    .text.wpa_bssid_ignore_add:0000000000000008 .L61
C:\Users\stapi\AppData\Local\Temp\ccXQrqsW.s:624    .text.wpa_bssid_ignore_add:0000000000000090 .L68
C:\Users\stapi\AppData\Local\Temp\ccXQrqsW.s:592    .text.wpa_bssid_ignore_add:0000000000000050 .L80
C:\Users\stapi\AppData\Local\Temp\ccXQrqsW.s:633    .text.wpa_bssid_ignore_add:000000000000009c .L69
C:\Users\stapi\AppData\Local\Temp\ccXQrqsW.s:642    .text.wpa_bssid_ignore_add:00000000000000a8 .L70
C:\Users\stapi\AppData\Local\Temp\ccXQrqsW.s:611    .text.wpa_bssid_ignore_add:0000000000000082 .L81
C:\Users\stapi\AppData\Local\Temp\ccXQrqsW.s:745    .text.wpa_bssid_ignore_is_listed:0000000000000020 .L83
C:\Users\stapi\AppData\Local\Temp\ccXQrqsW.s:732    .text.wpa_bssid_ignore_is_listed:0000000000000014 .L85
C:\Users\stapi\AppData\Local\Temp\ccXQrqsW.s:735    .text.wpa_bssid_ignore_is_listed:0000000000000016 .L82
C:\Users\stapi\AppData\Local\Temp\ccXQrqsW.s:12135  .debug_abbrev:0000000000000000 .Ldebug_abbrev0
C:\Users\stapi\AppData\Local\Temp\ccXQrqsW.s:14864  .debug_str:0000000000002357 .LASF1117
C:\Users\stapi\AppData\Local\Temp\ccXQrqsW.s:14918  .debug_str:000000000000260d .LASF1118
C:\Users\stapi\AppData\Local\Temp\ccXQrqsW.s:15720  .debug_str:0000000000003d4a .LASF1119
C:\Users\stapi\AppData\Local\Temp\ccXQrqsW.s:13578  .debug_ranges:0000000000000000 .Ldebug_ranges0
C:\Users\stapi\AppData\Local\Temp\ccXQrqsW.s:13612  .debug_line:0000000000000000 .Ldebug_line0
C:\Users\stapi\AppData\Local\Temp\ccXQrqsW.s:13940  .debug_str:000000000000094c .LASF1
C:\Users\stapi\AppData\Local\Temp\ccXQrqsW.s:15854  .debug_str:00000000000041ce .LASF0
C:\Users\stapi\AppData\Local\Temp\ccXQrqsW.s:14492  .debug_str:000000000000188b .LASF2
C:\Users\stapi\AppData\Local\Temp\ccXQrqsW.s:15372  .debug_str:0000000000003341 .LASF3
C:\Users\stapi\AppData\Local\Temp\ccXQrqsW.s:14060  .debug_str:0000000000000c7e .LASF4
C:\Users\stapi\AppData\Local\Temp\ccXQrqsW.s:14706  .debug_str:0000000000001ed2 .LASF5
C:\Users\stapi\AppData\Local\Temp\ccXQrqsW.s:15084  .debug_str:0000000000002b51 .LASF6
C:\Users\stapi\AppData\Local\Temp\ccXQrqsW.s:14286  .debug_str:000000000000128b .LASF7
C:\Users\stapi\AppData\Local\Temp\ccXQrqsW.s:14596  .debug_str:0000000000001bdc .LASF8
C:\Users\stapi\AppData\Local\Temp\ccXQrqsW.s:15174  .debug_str:0000000000002db3 .LASF9
C:\Users\stapi\AppData\Local\Temp\ccXQrqsW.s:15170  .debug_str:0000000000002d99 .LASF10
C:\Users\stapi\AppData\Local\Temp\ccXQrqsW.s:14834  .debug_str:0000000000002259 .LASF11
C:\Users\stapi\AppData\Local\Temp\ccXQrqsW.s:13642  .debug_str:00000000000000ba .LASF12
C:\Users\stapi\AppData\Local\Temp\ccXQrqsW.s:13616  .debug_str:0000000000000009 .LASF13
C:\Users\stapi\AppData\Local\Temp\ccXQrqsW.s:15438  .debug_str:0000000000003532 .LASF14
C:\Users\stapi\AppData\Local\Temp\ccXQrqsW.s:15478  .debug_str:0000000000003635 .LASF15
C:\Users\stapi\AppData\Local\Temp\ccXQrqsW.s:15586  .debug_str:000000000000394a .LASF16
C:\Users\stapi\AppData\Local\Temp\ccXQrqsW.s:15446  .debug_str:000000000000356b .LASF17
C:\Users\stapi\AppData\Local\Temp\ccXQrqsW.s:14660  .debug_str:0000000000001dae .LASF18
C:\Users\stapi\AppData\Local\Temp\ccXQrqsW.s:15470  .debug_str:0000000000003607 .LASF19
C:\Users\stapi\AppData\Local\Temp\ccXQrqsW.s:15818  .debug_str:00000000000040c3 .LASF20
C:\Users\stapi\AppData\Local\Temp\ccXQrqsW.s:13798  .debug_str:000000000000053b .LASF21
C:\Users\stapi\AppData\Local\Temp\ccXQrqsW.s:14320  .debug_str:000000000000138a .LASF22
C:\Users\stapi\AppData\Local\Temp\ccXQrqsW.s:14360  .debug_str:0000000000001483 .LASF23
C:\Users\stapi\AppData\Local\Temp\ccXQrqsW.s:14442  .debug_str:00000000000016e7 .LASF24
C:\Users\stapi\AppData\Local\Temp\ccXQrqsW.s:15308  .debug_str:000000000000314a .LASF26
C:\Users\stapi\AppData\Local\Temp\ccXQrqsW.s:15558  .debug_str:0000000000003886 .LASF25
C:\Users\stapi\AppData\Local\Temp\ccXQrqsW.s:14544  .debug_str:0000000000001a4d .LASF27
C:\Users\stapi\AppData\Local\Temp\ccXQrqsW.s:14258  .debug_str:00000000000011e6 .LASF28
C:\Users\stapi\AppData\Local\Temp\ccXQrqsW.s:14310  .debug_str:0000000000001343 .LASF29
C:\Users\stapi\AppData\Local\Temp\ccXQrqsW.s:14572  .debug_str:0000000000001b33 .LASF30
C:\Users\stapi\AppData\Local\Temp\ccXQrqsW.s:14628  .debug_str:0000000000001cc5 .LASF31
C:\Users\stapi\AppData\Local\Temp\ccXQrqsW.s:13870  .debug_str:000000000000074b .LASF32
C:\Users\stapi\AppData\Local\Temp\ccXQrqsW.s:13696  .debug_str:0000000000000259 .LASF33
C:\Users\stapi\AppData\Local\Temp\ccXQrqsW.s:13898  .debug_str:0000000000000819 .LASF34
C:\Users\stapi\AppData\Local\Temp\ccXQrqsW.s:15560  .debug_str:000000000000388b .LASF35
C:\Users\stapi\AppData\Local\Temp\ccXQrqsW.s:15556  .debug_str:0000000000003880 .LASF36
C:\Users\stapi\AppData\Local\Temp\ccXQrqsW.s:15066  .debug_str:0000000000002ae3 .LASF37
C:\Users\stapi\AppData\Local\Temp\ccXQrqsW.s:14694  .debug_str:0000000000001e80 .LASF38
C:\Users\stapi\AppData\Local\Temp\ccXQrqsW.s:14766  .debug_str:0000000000002072 .LASF39
C:\Users\stapi\AppData\Local\Temp\ccXQrqsW.s:14736  .debug_str:0000000000001fa4 .LASF40
C:\Users\stapi\AppData\Local\Temp\ccXQrqsW.s:14330  .debug_str:00000000000013bd .LASF41
C:\Users\stapi\AppData\Local\Temp\ccXQrqsW.s:15252  .debug_str:0000000000002f9b .LASF42
C:\Users\stapi\AppData\Local\Temp\ccXQrqsW.s:14584  .debug_str:0000000000001b90 .LASF43
C:\Users\stapi\AppData\Local\Temp\ccXQrqsW.s:15532  .debug_str:00000000000037c6 .LASF44
C:\Users\stapi\AppData\Local\Temp\ccXQrqsW.s:15706  .debug_str:0000000000003cf1 .LASF45
C:\Users\stapi\AppData\Local\Temp\ccXQrqsW.s:15460  .debug_str:00000000000035c3 .LASF46
C:\Users\stapi\AppData\Local\Temp\ccXQrqsW.s:14340  .debug_str:00000000000013fe .LASF47
C:\Users\stapi\AppData\Local\Temp\ccXQrqsW.s:15246  .debug_str:0000000000002f7b .LASF48
C:\Users\stapi\AppData\Local\Temp\ccXQrqsW.s:15802  .debug_str:000000000000404c .LASF62
C:\Users\stapi\AppData\Local\Temp\ccXQrqsW.s:15248  .debug_str:0000000000002f80 .LASF49
C:\Users\stapi\AppData\Local\Temp\ccXQrqsW.s:14796  .debug_str:0000000000002139 .LASF50
C:\Users\stapi\AppData\Local\Temp\ccXQrqsW.s:15452  .debug_str:0000000000003596 .LASF51
C:\Users\stapi\AppData\Local\Temp\ccXQrqsW.s:14148  .debug_str:0000000000000eca .LASF52
C:\Users\stapi\AppData\Local\Temp\ccXQrqsW.s:15178  .debug_str:0000000000002dc3 .LASF53
C:\Users\stapi\AppData\Local\Temp\ccXQrqsW.s:13902  .debug_str:0000000000000841 .LASF54
C:\Users\stapi\AppData\Local\Temp\ccXQrqsW.s:14198  .debug_str:0000000000001033 .LASF55
C:\Users\stapi\AppData\Local\Temp\ccXQrqsW.s:13782  .debug_str:00000000000004b2 .LASF56
C:\Users\stapi\AppData\Local\Temp\ccXQrqsW.s:15548  .debug_str:0000000000003845 .LASF57
C:\Users\stapi\AppData\Local\Temp\ccXQrqsW.s:15302  .debug_str:0000000000003123 .LASF58
C:\Users\stapi\AppData\Local\Temp\ccXQrqsW.s:15416  .debug_str:0000000000003475 .LASF59
C:\Users\stapi\AppData\Local\Temp\ccXQrqsW.s:14440  .debug_str:00000000000016d2 .LASF60
C:\Users\stapi\AppData\Local\Temp\ccXQrqsW.s:15490  .debug_str:000000000000369f .LASF61
C:\Users\stapi\AppData\Local\Temp\ccXQrqsW.s:14930  .debug_str:00000000000026e5 .LASF63
C:\Users\stapi\AppData\Local\Temp\ccXQrqsW.s:14404  .debug_str:00000000000015ba .LASF64
C:\Users\stapi\AppData\Local\Temp\ccXQrqsW.s:13866  .debug_str:0000000000000728 .LASF65
C:\Users\stapi\AppData\Local\Temp\ccXQrqsW.s:15110  .debug_str:0000000000002bf7 .LASF66
C:\Users\stapi\AppData\Local\Temp\ccXQrqsW.s:15106  .debug_str:0000000000002bd4 .LASF67
C:\Users\stapi\AppData\Local\Temp\ccXQrqsW.s:13840  .debug_str:0000000000000658 .LASF68
C:\Users\stapi\AppData\Local\Temp\ccXQrqsW.s:14494  .debug_str:0000000000001894 .LASF69
C:\Users\stapi\AppData\Local\Temp\ccXQrqsW.s:15564  .debug_str:00000000000038a6 .LASF70
C:\Users\stapi\AppData\Local\Temp\ccXQrqsW.s:15620  .debug_str:0000000000003a71 .LASF71
C:\Users\stapi\AppData\Local\Temp\ccXQrqsW.s:14374  .debug_str:00000000000014d8 .LASF72
C:\Users\stapi\AppData\Local\Temp\ccXQrqsW.s:14422  .debug_str:000000000000165a .LASF73
C:\Users\stapi\AppData\Local\Temp\ccXQrqsW.s:15162  .debug_str:0000000000002d6d .LASF74
C:\Users\stapi\AppData\Local\Temp\ccXQrqsW.s:13652  .debug_str:000000000000011b .LASF75
C:\Users\stapi\AppData\Local\Temp\ccXQrqsW.s:14814  .debug_str:00000000000021b8 .LASF76
C:\Users\stapi\AppData\Local\Temp\ccXQrqsW.s:13916  .debug_str:0000000000000886 .LASF77
C:\Users\stapi\AppData\Local\Temp\ccXQrqsW.s:14144  .debug_str:0000000000000eb1 .LASF78
C:\Users\stapi\AppData\Local\Temp\ccXQrqsW.s:14880  .debug_str:00000000000024d5 .LASF79
C:\Users\stapi\AppData\Local\Temp\ccXQrqsW.s:14882  .debug_str:00000000000024ed .LASF80
C:\Users\stapi\AppData\Local\Temp\ccXQrqsW.s:14878  .debug_str:00000000000024bd .LASF81
C:\Users\stapi\AppData\Local\Temp\ccXQrqsW.s:14910  .debug_str:00000000000025c0 .LASF82
C:\Users\stapi\AppData\Local\Temp\ccXQrqsW.s:13780  .debug_str:0000000000000498 .LASF83
C:\Users\stapi\AppData\Local\Temp\ccXQrqsW.s:15284  .debug_str:000000000000309d .LASF84
C:\Users\stapi\AppData\Local\Temp\ccXQrqsW.s:13990  .debug_str:0000000000000a7d .LASF85
C:\Users\stapi\AppData\Local\Temp\ccXQrqsW.s:14692  .debug_str:0000000000001e6f .LASF86
C:\Users\stapi\AppData\Local\Temp\ccXQrqsW.s:15746  .debug_str:0000000000003e97 .LASF87
C:\Users\stapi\AppData\Local\Temp\ccXQrqsW.s:15692  .debug_str:0000000000003c85 .LASF88
C:\Users\stapi\AppData\Local\Temp\ccXQrqsW.s:15766  .debug_str:0000000000003f17 .LASF89
C:\Users\stapi\AppData\Local\Temp\ccXQrqsW.s:14004  .debug_str:0000000000000adb .LASF90
C:\Users\stapi\AppData\Local\Temp\ccXQrqsW.s:15396  .debug_str:00000000000033d4 .LASF91
C:\Users\stapi\AppData\Local\Temp\ccXQrqsW.s:14466  .debug_str:00000000000017b4 .LASF92
C:\Users\stapi\AppData\Local\Temp\ccXQrqsW.s:15356  .debug_str:00000000000032a1 .LASF93
C:\Users\stapi\AppData\Local\Temp\ccXQrqsW.s:14462  .debug_str:000000000000178e .LASF94
C:\Users\stapi\AppData\Local\Temp\ccXQrqsW.s:14992  .debug_str:00000000000028db .LASF95
C:\Users\stapi\AppData\Local\Temp\ccXQrqsW.s:14478  .debug_str:0000000000001824 .LASF96
C:\Users\stapi\AppData\Local\Temp\ccXQrqsW.s:14236  .debug_str:000000000000113f .LASF97
C:\Users\stapi\AppData\Local\Temp\ccXQrqsW.s:14272  .debug_str:0000000000001241 .LASF98
C:\Users\stapi\AppData\Local\Temp\ccXQrqsW.s:14362  .debug_str:0000000000001489 .LASF99
C:\Users\stapi\AppData\Local\Temp\ccXQrqsW.s:14250  .debug_str:00000000000011ad .LASF100
C:\Users\stapi\AppData\Local\Temp\ccXQrqsW.s:13930  .debug_str:0000000000000907 .LASF101
C:\Users\stapi\AppData\Local\Temp\ccXQrqsW.s:13880  .debug_str:0000000000000786 .LASF102
C:\Users\stapi\AppData\Local\Temp\ccXQrqsW.s:14990  .debug_str:00000000000028cb .LASF103
C:\Users\stapi\AppData\Local\Temp\ccXQrqsW.s:15062  .debug_str:0000000000002ac6 .LASF104
C:\Users\stapi\AppData\Local\Temp\ccXQrqsW.s:13964  .debug_str:00000000000009f0 .LASF105
C:\Users\stapi\AppData\Local\Temp\ccXQrqsW.s:15428  .debug_str:00000000000034eb .LASF106
C:\Users\stapi\AppData\Local\Temp\ccXQrqsW.s:14344  .debug_str:0000000000001413 .LASF107
C:\Users\stapi\AppData\Local\Temp\ccXQrqsW.s:15588  .debug_str:000000000000394f .LASF108
C:\Users\stapi\AppData\Local\Temp\ccXQrqsW.s:13860  .debug_str:00000000000006f5 .LASF109
C:\Users\stapi\AppData\Local\Temp\ccXQrqsW.s:14354  .debug_str:0000000000001457 .LASF110
C:\Users\stapi\AppData\Local\Temp\ccXQrqsW.s:14390  .debug_str:0000000000001550 .LASF111
C:\Users\stapi\AppData\Local\Temp\ccXQrqsW.s:13872  .debug_str:0000000000000754 .LASF112
C:\Users\stapi\AppData\Local\Temp\ccXQrqsW.s:15772  .debug_str:0000000000003f48 .LASF113
C:\Users\stapi\AppData\Local\Temp\ccXQrqsW.s:14630  .debug_str:0000000000001cca .LASF114
C:\Users\stapi\AppData\Local\Temp\ccXQrqsW.s:15576  .debug_str:0000000000003900 .LASF115
C:\Users\stapi\AppData\Local\Temp\ccXQrqsW.s:14154  .debug_str:0000000000000efc .LASF116
C:\Users\stapi\AppData\Local\Temp\ccXQrqsW.s:15656  .debug_str:0000000000003b6c .LASF117
C:\Users\stapi\AppData\Local\Temp\ccXQrqsW.s:14448  .debug_str:0000000000001711 .LASF118
C:\Users\stapi\AppData\Local\Temp\ccXQrqsW.s:14908  .debug_str:00000000000025a6 .LASF119
C:\Users\stapi\AppData\Local\Temp\ccXQrqsW.s:14502  .debug_str:00000000000018d5 .LASF120
C:\Users\stapi\AppData\Local\Temp\ccXQrqsW.s:15570  .debug_str:00000000000038d2 .LASF121
C:\Users\stapi\AppData\Local\Temp\ccXQrqsW.s:14940  .debug_str:000000000000272e .LASF122
C:\Users\stapi\AppData\Local\Temp\ccXQrqsW.s:13794  .debug_str:0000000000000519 .LASF123
C:\Users\stapi\AppData\Local\Temp\ccXQrqsW.s:14614  .debug_str:0000000000001c4b .LASF124
C:\Users\stapi\AppData\Local\Temp\ccXQrqsW.s:15838  .debug_str:0000000000004155 .LASF125
C:\Users\stapi\AppData\Local\Temp\ccXQrqsW.s:14788  .debug_str:00000000000020f8 .LASF126
C:\Users\stapi\AppData\Local\Temp\ccXQrqsW.s:14516  .debug_str:0000000000001941 .LASF127
C:\Users\stapi\AppData\Local\Temp\ccXQrqsW.s:15398  .debug_str:00000000000033e7 .LASF128
C:\Users\stapi\AppData\Local\Temp\ccXQrqsW.s:14464  .debug_str:000000000000179d .LASF129
C:\Users\stapi\AppData\Local\Temp\ccXQrqsW.s:13766  .debug_str:0000000000000443 .LASF130
C:\Users\stapi\AppData\Local\Temp\ccXQrqsW.s:14586  .debug_str:0000000000001b9f .LASF131
C:\Users\stapi\AppData\Local\Temp\ccXQrqsW.s:13922  .debug_str:00000000000008b7 .LASF132
C:\Users\stapi\AppData\Local\Temp\ccXQrqsW.s:15610  .debug_str:0000000000003a0c .LASF133
C:\Users\stapi\AppData\Local\Temp\ccXQrqsW.s:14356  .debug_str:0000000000001463 .LASF134
C:\Users\stapi\AppData\Local\Temp\ccXQrqsW.s:14686  .debug_str:0000000000001e4e .LASF135
C:\Users\stapi\AppData\Local\Temp\ccXQrqsW.s:14324  .debug_str:00000000000013a0 .LASF136
C:\Users\stapi\AppData\Local\Temp\ccXQrqsW.s:15126  .debug_str:0000000000002c5e .LASF137
C:\Users\stapi\AppData\Local\Temp\ccXQrqsW.s:14080  .debug_str:0000000000000cfb .LASF138
C:\Users\stapi\AppData\Local\Temp\ccXQrqsW.s:13968  .debug_str:0000000000000a0c .LASF139
C:\Users\stapi\AppData\Local\Temp\ccXQrqsW.s:14052  .debug_str:0000000000000c4a .LASF140
C:\Users\stapi\AppData\Local\Temp\ccXQrqsW.s:14336  .debug_str:00000000000013df .LASF141
C:\Users\stapi\AppData\Local\Temp\ccXQrqsW.s:15528  .debug_str:00000000000037ad .LASF142
C:\Users\stapi\AppData\Local\Temp\ccXQrqsW.s:14652  .debug_str:0000000000001d71 .LASF143
C:\Users\stapi\AppData\Local\Temp\ccXQrqsW.s:14122  .debug_str:0000000000000e1c .LASF144
C:\Users\stapi\AppData\Local\Temp\ccXQrqsW.s:14722  .debug_str:0000000000001f3c .LASF145
C:\Users\stapi\AppData\Local\Temp\ccXQrqsW.s:13982  .debug_str:0000000000000a55 .LASF146
C:\Users\stapi\AppData\Local\Temp\ccXQrqsW.s:15010  .debug_str:0000000000002962 .LASF147
C:\Users\stapi\AppData\Local\Temp\ccXQrqsW.s:14860  .debug_str:000000000000233a .LASF148
C:\Users\stapi\AppData\Local\Temp\ccXQrqsW.s:14702  .debug_str:0000000000001eb6 .LASF167
C:\Users\stapi\AppData\Local\Temp\ccXQrqsW.s:14444  .debug_str:00000000000016f1 .LASF149
C:\Users\stapi\AppData\Local\Temp\ccXQrqsW.s:14906  .debug_str:0000000000002596 .LASF150
C:\Users\stapi\AppData\Local\Temp\ccXQrqsW.s:15036  .debug_str:0000000000002a28 .LASF151
C:\Users\stapi\AppData\Local\Temp\ccXQrqsW.s:15094  .debug_str:0000000000002b87 .LASF152
C:\Users\stapi\AppData\Local\Temp\ccXQrqsW.s:13894  .debug_str:0000000000000808 .LASF153
C:\Users\stapi\AppData\Local\Temp\ccXQrqsW.s:13986  .debug_str:0000000000000a66 .LASF154
C:\Users\stapi\AppData\Local\Temp\ccXQrqsW.s:14818  .debug_str:00000000000021e5 .LASF155
C:\Users\stapi\AppData\Local\Temp\ccXQrqsW.s:14268  .debug_str:000000000000122b .LASF156
C:\Users\stapi\AppData\Local\Temp\ccXQrqsW.s:14120  .debug_str:0000000000000e0e .LASF157
C:\Users\stapi\AppData\Local\Temp\ccXQrqsW.s:15134  .debug_str:0000000000002c9b .LASF158
C:\Users\stapi\AppData\Local\Temp\ccXQrqsW.s:14582  .debug_str:0000000000001b83 .LASF159
C:\Users\stapi\AppData\Local\Temp\ccXQrqsW.s:14280  .debug_str:000000000000126c .LASF160
C:\Users\stapi\AppData\Local\Temp\ccXQrqsW.s:15200  .debug_str:0000000000002e6b .LASF161
C:\Users\stapi\AppData\Local\Temp\ccXQrqsW.s:14172  .debug_str:0000000000000f75 .LASF162
C:\Users\stapi\AppData\Local\Temp\ccXQrqsW.s:15002  .debug_str:000000000000292f .LASF163
C:\Users\stapi\AppData\Local\Temp\ccXQrqsW.s:15664  .debug_str:0000000000003bc2 .LASF164
C:\Users\stapi\AppData\Local\Temp\ccXQrqsW.s:15404  .debug_str:0000000000003416 .LASF165
C:\Users\stapi\AppData\Local\Temp\ccXQrqsW.s:15378  .debug_str:0000000000003364 .LASF166
C:\Users\stapi\AppData\Local\Temp\ccXQrqsW.s:13640  .debug_str:00000000000000b1 .LASF168
C:\Users\stapi\AppData\Local\Temp\ccXQrqsW.s:14852  .debug_str:00000000000022ff .LASF169
C:\Users\stapi\AppData\Local\Temp\ccXQrqsW.s:13724  .debug_str:0000000000000334 .LASF170
C:\Users\stapi\AppData\Local\Temp\ccXQrqsW.s:14200  .debug_str:0000000000001040 .LASF171
C:\Users\stapi\AppData\Local\Temp\ccXQrqsW.s:14282  .debug_str:0000000000001275 .LASF172
C:\Users\stapi\AppData\Local\Temp\ccXQrqsW.s:15608  .debug_str:00000000000039fc .LASF173
C:\Users\stapi\AppData\Local\Temp\ccXQrqsW.s:14126  .debug_str:0000000000000e30 .LASF174
C:\Users\stapi\AppData\Local\Temp\ccXQrqsW.s:14810  .debug_str:0000000000002197 .LASF175
C:\Users\stapi\AppData\Local\Temp\ccXQrqsW.s:15112  .debug_str:0000000000002c04 .LASF176
C:\Users\stapi\AppData\Local\Temp\ccXQrqsW.s:14846  .debug_str:00000000000022c5 .LASF177
C:\Users\stapi\AppData\Local\Temp\ccXQrqsW.s:15278  .debug_str:000000000000306e .LASF178
C:\Users\stapi\AppData\Local\Temp\ccXQrqsW.s:14800  .debug_str:0000000000002151 .LASF179
C:\Users\stapi\AppData\Local\Temp\ccXQrqsW.s:14520  .debug_str:0000000000001967 .LASF180
C:\Users\stapi\AppData\Local\Temp\ccXQrqsW.s:15384  .debug_str:0000000000003391 .LASF181
C:\Users\stapi\AppData\Local\Temp\ccXQrqsW.s:14138  .debug_str:0000000000000e87 .LASF182
C:\Users\stapi\AppData\Local\Temp\ccXQrqsW.s:14574  .debug_str:0000000000001b42 .LASF183
C:\Users\stapi\AppData\Local\Temp\ccXQrqsW.s:14018  .debug_str:0000000000000b59 .LASF184
C:\Users\stapi\AppData\Local\Temp\ccXQrqsW.s:14058  .debug_str:0000000000000c75 .LASF185
C:\Users\stapi\AppData\Local\Temp\ccXQrqsW.s:14498  .debug_str:00000000000018b7 .LASF186
C:\Users\stapi\AppData\Local\Temp\ccXQrqsW.s:14412  .debug_str:00000000000015f7 .LASF187
C:\Users\stapi\AppData\Local\Temp\ccXQrqsW.s:15634  .debug_str:0000000000003ae2 .LASF188
C:\Users\stapi\AppData\Local\Temp\ccXQrqsW.s:13928  .debug_str:00000000000008f6 .LASF189
C:\Users\stapi\AppData\Local\Temp\ccXQrqsW.s:15486  .debug_str:0000000000003685 .LASF190
C:\Users\stapi\AppData\Local\Temp\ccXQrqsW.s:13674  .debug_str:00000000000001cf .LASF191
C:\Users\stapi\AppData\Local\Temp\ccXQrqsW.s:13726  .debug_str:0000000000000339 .LASF192
C:\Users\stapi\AppData\Local\Temp\ccXQrqsW.s:14898  .debug_str:0000000000002555 .LASF193
C:\Users\stapi\AppData\Local\Temp\ccXQrqsW.s:15516  .debug_str:0000000000003768 .LASF194
C:\Users\stapi\AppData\Local\Temp\ccXQrqsW.s:15496  .debug_str:00000000000036d8 .LASF195
C:\Users\stapi\AppData\Local\Temp\ccXQrqsW.s:15306  .debug_str:000000000000313d .LASF196
C:\Users\stapi\AppData\Local\Temp\ccXQrqsW.s:13630  .debug_str:0000000000000065 .LASF197
C:\Users\stapi\AppData\Local\Temp\ccXQrqsW.s:14076  .debug_str:0000000000000cdd .LASF198
C:\Users\stapi\AppData\Local\Temp\ccXQrqsW.s:14206  .debug_str:0000000000001067 .LASF199
C:\Users\stapi\AppData\Local\Temp\ccXQrqsW.s:14204  .debug_str:0000000000001057 .LASF200
C:\Users\stapi\AppData\Local\Temp\ccXQrqsW.s:13934  .debug_str:0000000000000927 .LASF201
C:\Users\stapi\AppData\Local\Temp\ccXQrqsW.s:13814  .debug_str:00000000000005b5 .LASF202
C:\Users\stapi\AppData\Local\Temp\ccXQrqsW.s:15208  .debug_str:0000000000002e9b .LASF203
C:\Users\stapi\AppData\Local\Temp\ccXQrqsW.s:15424  .debug_str:00000000000034c7 .LASF204
C:\Users\stapi\AppData\Local\Temp\ccXQrqsW.s:14718  .debug_str:0000000000001f31 .LASF205
C:\Users\stapi\AppData\Local\Temp\ccXQrqsW.s:13778  .debug_str:000000000000048f .LASF206
C:\Users\stapi\AppData\Local\Temp\ccXQrqsW.s:13838  .debug_str:000000000000064e .LASF207
C:\Users\stapi\AppData\Local\Temp\ccXQrqsW.s:15108  .debug_str:0000000000002be1 .LASF208
C:\Users\stapi\AppData\Local\Temp\ccXQrqsW.s:13684  .debug_str:0000000000000209 .LASF209
C:\Users\stapi\AppData\Local\Temp\ccXQrqsW.s:15714  .debug_str:0000000000003d18 .LASF210
C:\Users\stapi\AppData\Local\Temp\ccXQrqsW.s:13822  .debug_str:0000000000000608 .LASF211
C:\Users\stapi\AppData\Local\Temp\ccXQrqsW.s:15072  .debug_str:0000000000002b04 .LASF212
C:\Users\stapi\AppData\Local\Temp\ccXQrqsW.s:13670  .debug_str:00000000000001ab .LASF213
C:\Users\stapi\AppData\Local\Temp\ccXQrqsW.s:15144  .debug_str:0000000000002ceb .LASF214
C:\Users\stapi\AppData\Local\Temp\ccXQrqsW.s:15540  .debug_str:00000000000037fe .LASF215
C:\Users\stapi\AppData\Local\Temp\ccXQrqsW.s:13748  .debug_str:00000000000003c8 .LASF216
C:\Users\stapi\AppData\Local\Temp\ccXQrqsW.s:14134  .debug_str:0000000000000e6f .LASF217
C:\Users\stapi\AppData\Local\Temp\ccXQrqsW.s:13932  .debug_str:0000000000000916 .LASF218
C:\Users\stapi\AppData\Local\Temp\ccXQrqsW.s:13804  .debug_str:0000000000000560 .LASF219
C:\Users\stapi\AppData\Local\Temp\ccXQrqsW.s:14954  .debug_str:00000000000027ab .LASF220
C:\Users\stapi\AppData\Local\Temp\ccXQrqsW.s:15736  .debug_str:0000000000003e57 .LASF221
C:\Users\stapi\AppData\Local\Temp\ccXQrqsW.s:14454  .debug_str:0000000000001747 .LASF222
C:\Users\stapi\AppData\Local\Temp\ccXQrqsW.s:15712  .debug_str:0000000000003d0c .LASF223
C:\Users\stapi\AppData\Local\Temp\ccXQrqsW.s:15114  .debug_str:0000000000002c15 .LASF224
C:\Users\stapi\AppData\Local\Temp\ccXQrqsW.s:15032  .debug_str:0000000000002a0d .LASF225
C:\Users\stapi\AppData\Local\Temp\ccXQrqsW.s:15768  .debug_str:0000000000003f26 .LASF226
C:\Users\stapi\AppData\Local\Temp\ccXQrqsW.s:15770  .debug_str:0000000000003f37 .LASF227
C:\Users\stapi\AppData\Local\Temp\ccXQrqsW.s:14816  .debug_str:00000000000021d7 .LASF228
C:\Users\stapi\AppData\Local\Temp\ccXQrqsW.s:14096  .debug_str:0000000000000d69 .LASF229
C:\Users\stapi\AppData\Local\Temp\ccXQrqsW.s:13868  .debug_str:000000000000073f .LASF230
C:\Users\stapi\AppData\Local\Temp\ccXQrqsW.s:14006  .debug_str:0000000000000aec .LASF231
C:\Users\stapi\AppData\Local\Temp\ccXQrqsW.s:14514  .debug_str:000000000000193a .LASF232
C:\Users\stapi\AppData\Local\Temp\ccXQrqsW.s:14674  .debug_str:0000000000001ded .LASF233
C:\Users\stapi\AppData\Local\Temp\ccXQrqsW.s:13832  .debug_str:0000000000000633 .LASF234
C:\Users\stapi\AppData\Local\Temp\ccXQrqsW.s:13842  .debug_str:000000000000066b .LASF235
C:\Users\stapi\AppData\Local\Temp\ccXQrqsW.s:14094  .debug_str:0000000000000d59 .LASF236
C:\Users\stapi\AppData\Local\Temp\ccXQrqsW.s:15762  .debug_str:0000000000003ef9 .LASF237
C:\Users\stapi\AppData\Local\Temp\ccXQrqsW.s:15566  .debug_str:00000000000038b5 .LASF238
C:\Users\stapi\AppData\Local\Temp\ccXQrqsW.s:14970  .debug_str:0000000000002836 .LASF239
C:\Users\stapi\AppData\Local\Temp\ccXQrqsW.s:14978  .debug_str:0000000000002875 .LASF240
C:\Users\stapi\AppData\Local\Temp\ccXQrqsW.s:15016  .debug_str:000000000000298d .LASF241
C:\Users\stapi\AppData\Local\Temp\ccXQrqsW.s:15078  .debug_str:0000000000002b2d .LASF242
C:\Users\stapi\AppData\Local\Temp\ccXQrqsW.s:14082  .debug_str:0000000000000d05 .LASF243
C:\Users\stapi\AppData\Local\Temp\ccXQrqsW.s:13984  .debug_str:0000000000000a5b .LASF244
C:\Users\stapi\AppData\Local\Temp\ccXQrqsW.s:15132  .debug_str:0000000000002c8d .LASF245
C:\Users\stapi\AppData\Local\Temp\ccXQrqsW.s:14964  .debug_str:00000000000027fa .LASF246
C:\Users\stapi\AppData\Local\Temp\ccXQrqsW.s:13618  .debug_str:0000000000000017 .LASF247
C:\Users\stapi\AppData\Local\Temp\ccXQrqsW.s:13906  .debug_str:0000000000000858 .LASF248
C:\Users\stapi\AppData\Local\Temp\ccXQrqsW.s:14482  .debug_str:0000000000001847 .LASF249
C:\Users\stapi\AppData\Local\Temp\ccXQrqsW.s:15622  .debug_str:0000000000003a84 .LASF250
C:\Users\stapi\AppData\Local\Temp\ccXQrqsW.s:14984  .debug_str:000000000000289d .LASF251
C:\Users\stapi\AppData\Local\Temp\ccXQrqsW.s:14208  .debug_str:0000000000001074 .LASF252
C:\Users\stapi\AppData\Local\Temp\ccXQrqsW.s:15850  .debug_str:00000000000041b9 .LASF253
C:\Users\stapi\AppData\Local\Temp\ccXQrqsW.s:15666  .debug_str:0000000000003bd5 .LASF254
C:\Users\stapi\AppData\Local\Temp\ccXQrqsW.s:13632  .debug_str:0000000000000075 .LASF255
C:\Users\stapi\AppData\Local\Temp\ccXQrqsW.s:14194  .debug_str:000000000000100d .LASF256
C:\Users\stapi\AppData\Local\Temp\ccXQrqsW.s:15466  .debug_str:00000000000035e5 .LASF257
C:\Users\stapi\AppData\Local\Temp\ccXQrqsW.s:15196  .debug_str:0000000000002e4c .LASF258
C:\Users\stapi\AppData\Local\Temp\ccXQrqsW.s:14246  .debug_str:0000000000001196 .LASF259
C:\Users\stapi\AppData\Local\Temp\ccXQrqsW.s:14314  .debug_str:0000000000001358 .LASF260
C:\Users\stapi\AppData\Local\Temp\ccXQrqsW.s:15434  .debug_str:0000000000003513 .LASF261
C:\Users\stapi\AppData\Local\Temp\ccXQrqsW.s:13808  .debug_str:0000000000000581 .LASF262
C:\Users\stapi\AppData\Local\Temp\ccXQrqsW.s:15450  .debug_str:0000000000003585 .LASF263
C:\Users\stapi\AppData\Local\Temp\ccXQrqsW.s:14394  .debug_str:0000000000001571 .LASF264
C:\Users\stapi\AppData\Local\Temp\ccXQrqsW.s:14254  .debug_str:00000000000011d2 .LASF265
C:\Users\stapi\AppData\Local\Temp\ccXQrqsW.s:15624  .debug_str:0000000000003a91 .LASF266
C:\Users\stapi\AppData\Local\Temp\ccXQrqsW.s:15360  .debug_str:00000000000032bd .LASF267
C:\Users\stapi\AppData\Local\Temp\ccXQrqsW.s:15562  .debug_str:0000000000003890 .LASF268
C:\Users\stapi\AppData\Local\Temp\ccXQrqsW.s:14302  .debug_str:000000000000130b .LASF269
C:\Users\stapi\AppData\Local\Temp\ccXQrqsW.s:15502  .debug_str:0000000000003702 .LASF270
C:\Users\stapi\AppData\Local\Temp\ccXQrqsW.s:13998  .debug_str:0000000000000aa6 .LASF271
C:\Users\stapi\AppData\Local\Temp\ccXQrqsW.s:15092  .debug_str:0000000000002b80 .LASF272
C:\Users\stapi\AppData\Local\Temp\ccXQrqsW.s:15418  .debug_str:000000000000348a .LASF273
C:\Users\stapi\AppData\Local\Temp\ccXQrqsW.s:14820  .debug_str:00000000000021ef .LASF274
C:\Users\stapi\AppData\Local\Temp\ccXQrqsW.s:13960  .debug_str:00000000000009d1 .LASF275
C:\Users\stapi\AppData\Local\Temp\ccXQrqsW.s:14016  .debug_str:0000000000000b44 .LASF276
C:\Users\stapi\AppData\Local\Temp\ccXQrqsW.s:15260  .debug_str:0000000000002fd7 .LASF277
C:\Users\stapi\AppData\Local\Temp\ccXQrqsW.s:15102  .debug_str:0000000000002bb7 .LASF278
C:\Users\stapi\AppData\Local\Temp\ccXQrqsW.s:13686  .debug_str:0000000000000214 .LASF279
C:\Users\stapi\AppData\Local\Temp\ccXQrqsW.s:14532  .debug_str:00000000000019f5 .LASF280
C:\Users\stapi\AppData\Local\Temp\ccXQrqsW.s:15700  .debug_str:0000000000003cc1 .LASF281
C:\Users\stapi\AppData\Local\Temp\ccXQrqsW.s:13914  .debug_str:000000000000087f .LASF282
C:\Users\stapi\AppData\Local\Temp\ccXQrqsW.s:15640  .debug_str:0000000000003b0c .LASF283
C:\Users\stapi\AppData\Local\Temp\ccXQrqsW.s:15294  .debug_str:00000000000030eb .LASF284
C:\Users\stapi\AppData\Local\Temp\ccXQrqsW.s:14666  .debug_str:0000000000001dc4 .LASF285
C:\Users\stapi\AppData\Local\Temp\ccXQrqsW.s:15364  .debug_str:00000000000032ea .LASF286
C:\Users\stapi\AppData\Local\Temp\ccXQrqsW.s:15582  .debug_str:000000000000392f .LASF287
C:\Users\stapi\AppData\Local\Temp\ccXQrqsW.s:14028  .debug_str:0000000000000b9f .LASF288
C:\Users\stapi\AppData\Local\Temp\ccXQrqsW.s:14556  .debug_str:0000000000001a9d .LASF289
C:\Users\stapi\AppData\Local\Temp\ccXQrqsW.s:15786  .debug_str:0000000000003fce .LASF290
C:\Users\stapi\AppData\Local\Temp\ccXQrqsW.s:15310  .debug_str:0000000000003152 .LASF291
C:\Users\stapi\AppData\Local\Temp\ccXQrqsW.s:13688  .debug_str:000000000000022d .LASF292
C:\Users\stapi\AppData\Local\Temp\ccXQrqsW.s:14836  .debug_str:0000000000002264 .LASF293
C:\Users\stapi\AppData\Local\Temp\ccXQrqsW.s:15100  .debug_str:0000000000002bb1 .LASF294
C:\Users\stapi\AppData\Local\Temp\ccXQrqsW.s:14220  .debug_str:00000000000010c9 .LASF295
C:\Users\stapi\AppData\Local\Temp\ccXQrqsW.s:14870  .debug_str:0000000000002463 .LASF296
C:\Users\stapi\AppData\Local\Temp\ccXQrqsW.s:14872  .debug_str:0000000000002474 .LASF297
C:\Users\stapi\AppData\Local\Temp\ccXQrqsW.s:14500  .debug_str:00000000000018c4 .LASF298
C:\Users\stapi\AppData\Local\Temp\ccXQrqsW.s:15190  .debug_str:0000000000002e21 .LASF299
C:\Users\stapi\AppData\Local\Temp\ccXQrqsW.s:15050  .debug_str:0000000000002a7a .LASF300
C:\Users\stapi\AppData\Local\Temp\ccXQrqsW.s:15644  .debug_str:0000000000003b22 .LASF301
C:\Users\stapi\AppData\Local\Temp\ccXQrqsW.s:15086  .debug_str:0000000000002b5b .LASF302
C:\Users\stapi\AppData\Local\Temp\ccXQrqsW.s:15602  .debug_str:00000000000039c7 .LASF303
C:\Users\stapi\AppData\Local\Temp\ccXQrqsW.s:15584  .debug_str:0000000000003945 .LASF304
C:\Users\stapi\AppData\Local\Temp\ccXQrqsW.s:14826  .debug_str:000000000000221b .LASF305
C:\Users\stapi\AppData\Local\Temp\ccXQrqsW.s:14116  .debug_str:0000000000000dfd .LASF306
C:\Users\stapi\AppData\Local\Temp\ccXQrqsW.s:15510  .debug_str:000000000000373b .LASF307
C:\Users\stapi\AppData\Local\Temp\ccXQrqsW.s:14754  .debug_str:0000000000002012 .LASF308
C:\Users\stapi\AppData\Local\Temp\ccXQrqsW.s:14364  .debug_str:0000000000001497 .LASF309
C:\Users\stapi\AppData\Local\Temp\ccXQrqsW.s:14668  .debug_str:0000000000001dcf .LASF310
C:\Users\stapi\AppData\Local\Temp\ccXQrqsW.s:13800  .debug_str:0000000000000544 .LASF311
C:\Users\stapi\AppData\Local\Temp\ccXQrqsW.s:15234  .debug_str:0000000000002f23 .LASF312
C:\Users\stapi\AppData\Local\Temp\ccXQrqsW.s:14174  .debug_str:0000000000000f82 .LASF313
C:\Users\stapi\AppData\Local\Temp\ccXQrqsW.s:14312  .debug_str:0000000000001348 .LASF314
C:\Users\stapi\AppData\Local\Temp\ccXQrqsW.s:14136  .debug_str:0000000000000e7a .LASF315
C:\Users\stapi\AppData\Local\Temp\ccXQrqsW.s:15314  .debug_str:0000000000003177 .LASF316
C:\Users\stapi\AppData\Local\Temp\ccXQrqsW.s:14610  .debug_str:0000000000001c33 .LASF317
C:\Users\stapi\AppData\Local\Temp\ccXQrqsW.s:15042  .debug_str:0000000000002a4a .LASF318
C:\Users\stapi\AppData\Local\Temp\ccXQrqsW.s:15362  .debug_str:00000000000032dd .LASF319
C:\Users\stapi\AppData\Local\Temp\ccXQrqsW.s:14948  .debug_str:000000000000277d .LASF320
C:\Users\stapi\AppData\Local\Temp\ccXQrqsW.s:15166  .debug_str:0000000000002d82 .LASF321
C:\Users\stapi\AppData\Local\Temp\ccXQrqsW.s:13958  .debug_str:00000000000009c7 .LASF322
C:\Users\stapi\AppData\Local\Temp\ccXQrqsW.s:15140  .debug_str:0000000000002cc6 .LASF323
C:\Users\stapi\AppData\Local\Temp\ccXQrqsW.s:14950  .debug_str:0000000000002793 .LASF324
C:\Users\stapi\AppData\Local\Temp\ccXQrqsW.s:15412  .debug_str:0000000000003457 .LASF325
C:\Users\stapi\AppData\Local\Temp\ccXQrqsW.s:14066  .debug_str:0000000000000ca7 .LASF326
C:\Users\stapi\AppData\Local\Temp\ccXQrqsW.s:14300  .debug_str:0000000000001302 .LASF327
C:\Users\stapi\AppData\Local\Temp\ccXQrqsW.s:14358  .debug_str:000000000000147b .LASF328
C:\Users\stapi\AppData\Local\Temp\ccXQrqsW.s:14388  .debug_str:0000000000001546 .LASF329
C:\Users\stapi\AppData\Local\Temp\ccXQrqsW.s:14850  .debug_str:00000000000022f3 .LASF330
C:\Users\stapi\AppData\Local\Temp\ccXQrqsW.s:14936  .debug_str:0000000000002717 .LASF331
C:\Users\stapi\AppData\Local\Temp\ccXQrqsW.s:14106  .debug_str:0000000000000dc5 .LASF332
C:\Users\stapi\AppData\Local\Temp\ccXQrqsW.s:14128  .debug_str:0000000000000e3f .LASF333
C:\Users\stapi\AppData\Local\Temp\ccXQrqsW.s:13994  .debug_str:0000000000000a96 .LASF334
C:\Users\stapi\AppData\Local\Temp\ccXQrqsW.s:13754  .debug_str:00000000000003f8 .LASF335
C:\Users\stapi\AppData\Local\Temp\ccXQrqsW.s:15244  .debug_str:0000000000002f75 .LASF336
C:\Users\stapi\AppData\Local\Temp\ccXQrqsW.s:14162  .debug_str:0000000000000f33 .LASF337
C:\Users\stapi\AppData\Local\Temp\ccXQrqsW.s:14892  .debug_str:0000000000002534 .LASF338
C:\Users\stapi\AppData\Local\Temp\ccXQrqsW.s:15266  .debug_str:0000000000003010 .LASF339
C:\Users\stapi\AppData\Local\Temp\ccXQrqsW.s:14166  .debug_str:0000000000000f44 .LASF340
C:\Users\stapi\AppData\Local\Temp\ccXQrqsW.s:15590  .debug_str:000000000000395f .LASF341
C:\Users\stapi\AppData\Local\Temp\ccXQrqsW.s:14518  .debug_str:0000000000001959 .LASF342
C:\Users\stapi\AppData\Local\Temp\ccXQrqsW.s:15544  .debug_str:000000000000381c .LASF343
C:\Users\stapi\AppData\Local\Temp\ccXQrqsW.s:13896  .debug_str:000000000000080e .LASF344
C:\Users\stapi\AppData\Local\Temp\ccXQrqsW.s:15180  .debug_str:0000000000002dd8 .LASF345
C:\Users\stapi\AppData\Local\Temp\ccXQrqsW.s:15520  .debug_str:000000000000377a .LASF346
C:\Users\stapi\AppData\Local\Temp\ccXQrqsW.s:13850  .debug_str:00000000000006a7 .LASF347
C:\Users\stapi\AppData\Local\Temp\ccXQrqsW.s:14030  .debug_str:0000000000000bb5 .LASF348
C:\Users\stapi\AppData\Local\Temp\ccXQrqsW.s:14996  .debug_str:00000000000028f4 .LASF349
C:\Users\stapi\AppData\Local\Temp\ccXQrqsW.s:15492  .debug_str:00000000000036b4 .LASF350
C:\Users\stapi\AppData\Local\Temp\ccXQrqsW.s:15844  .debug_str:0000000000004182 .LASF351
C:\Users\stapi\AppData\Local\Temp\ccXQrqsW.s:14672  .debug_str:0000000000001de4 .LASF352
C:\Users\stapi\AppData\Local\Temp\ccXQrqsW.s:13920  .debug_str:00000000000008ac .LASF353
C:\Users\stapi\AppData\Local\Temp\ccXQrqsW.s:15158  .debug_str:0000000000002d4a .LASF354
C:\Users\stapi\AppData\Local\Temp\ccXQrqsW.s:15222  .debug_str:0000000000002eea .LASF355
C:\Users\stapi\AppData\Local\Temp\ccXQrqsW.s:15534  .debug_str:00000000000037da .LASF356
C:\Users\stapi\AppData\Local\Temp\ccXQrqsW.s:14086  .debug_str:0000000000000d1f .LASF357
C:\Users\stapi\AppData\Local\Temp\ccXQrqsW.s:15604  .debug_str:00000000000039dc .LASF358
C:\Users\stapi\AppData\Local\Temp\ccXQrqsW.s:14608  .debug_str:0000000000001c2d .LASF359
C:\Users\stapi\AppData\Local\Temp\ccXQrqsW.s:15454  .debug_str:00000000000035a3 .LASF360
C:\Users\stapi\AppData\Local\Temp\ccXQrqsW.s:13768  .debug_str:0000000000000456 .LASF361
C:\Users\stapi\AppData\Local\Temp\ccXQrqsW.s:14704  .debug_str:0000000000001ec6 .LASF362
C:\Users\stapi\AppData\Local\Temp\ccXQrqsW.s:13846  .debug_str:0000000000000688 .LASF363
C:\Users\stapi\AppData\Local\Temp\ccXQrqsW.s:14100  .debug_str:0000000000000d8d .LASF364
C:\Users\stapi\AppData\Local\Temp\ccXQrqsW.s:15654  .debug_str:0000000000003b5f .LASF365
C:\Users\stapi\AppData\Local\Temp\ccXQrqsW.s:15024  .debug_str:00000000000029d2 .LASF366
C:\Users\stapi\AppData\Local\Temp\ccXQrqsW.s:13816  .debug_str:00000000000005c7 .LASF367
C:\Users\stapi\AppData\Local\Temp\ccXQrqsW.s:13864  .debug_str:0000000000000717 .LASF368
C:\Users\stapi\AppData\Local\Temp\ccXQrqsW.s:14338  .debug_str:00000000000013e9 .LASF369
C:\Users\stapi\AppData\Local\Temp\ccXQrqsW.s:13946  .debug_str:0000000000000966 .LASF370
C:\Users\stapi\AppData\Local\Temp\ccXQrqsW.s:14284  .debug_str:000000000000127f .LASF371
C:\Users\stapi\AppData\Local\Temp\ccXQrqsW.s:15164  .debug_str:0000000000002d79 .LASF372
C:\Users\stapi\AppData\Local\Temp\ccXQrqsW.s:14400  .debug_str:0000000000001596 .LASF373
C:\Users\stapi\AppData\Local\Temp\ccXQrqsW.s:14424  .debug_str:0000000000001668 .LASF374
C:\Users\stapi\AppData\Local\Temp\ccXQrqsW.s:14776  .debug_str:00000000000020ba .LASF375
C:\Users\stapi\AppData\Local\Temp\ccXQrqsW.s:15788  .debug_str:0000000000003fe0 .LASF376
C:\Users\stapi\AppData\Local\Temp\ccXQrqsW.s:14418  .debug_str:0000000000001634 .LASF377
C:\Users\stapi\AppData\Local\Temp\ccXQrqsW.s:15304  .debug_str:0000000000003134 .LASF378
C:\Users\stapi\AppData\Local\Temp\ccXQrqsW.s:15690  .debug_str:0000000000003c74 .LASF379
C:\Users\stapi\AppData\Local\Temp\ccXQrqsW.s:14562  .debug_str:0000000000001ad6 .LASF380
C:\Users\stapi\AppData\Local\Temp\ccXQrqsW.s:14180  .debug_str:0000000000000f9d .LASF381
C:\Users\stapi\AppData\Local\Temp\ccXQrqsW.s:14170  .debug_str:0000000000000f69 .LASF382
C:\Users\stapi\AppData\Local\Temp\ccXQrqsW.s:14026  .debug_str:0000000000000b91 .LASF383
C:\Users\stapi\AppData\Local\Temp\ccXQrqsW.s:15694  .debug_str:0000000000003c94 .LASF384
C:\Users\stapi\AppData\Local\Temp\ccXQrqsW.s:15082  .debug_str:0000000000002b47 .LASF385
C:\Users\stapi\AppData\Local\Temp\ccXQrqsW.s:15326  .debug_str:00000000000031d1 .LASF386
C:\Users\stapi\AppData\Local\Temp\ccXQrqsW.s:14664  .debug_str:0000000000001dbb .LASF387
C:\Users\stapi\AppData\Local\Temp\ccXQrqsW.s:13706  .debug_str:00000000000002a8 .LASF388
C:\Users\stapi\AppData\Local\Temp\ccXQrqsW.s:14124  .debug_str:0000000000000e22 .LASF389
C:\Users\stapi\AppData\Local\Temp\ccXQrqsW.s:14934  .debug_str:0000000000002706 .LASF390
C:\Users\stapi\AppData\Local\Temp\ccXQrqsW.s:14224  .debug_str:00000000000010de .LASF391
C:\Users\stapi\AppData\Local\Temp\ccXQrqsW.s:13678  .debug_str:00000000000001eb .LASF392
C:\Users\stapi\AppData\Local\Temp\ccXQrqsW.s:15156  .debug_str:0000000000002d3f .LASF393
C:\Users\stapi\AppData\Local\Temp\ccXQrqsW.s:15370  .debug_str:000000000000332e .LASF394
C:\Users\stapi\AppData\Local\Temp\ccXQrqsW.s:14118  .debug_str:0000000000000e02 .LASF395
C:\Users\stapi\AppData\Local\Temp\ccXQrqsW.s:14902  .debug_str:000000000000257c .LASF396
C:\Users\stapi\AppData\Local\Temp\ccXQrqsW.s:14738  .debug_str:0000000000001fad .LASF397
C:\Users\stapi\AppData\Local\Temp\ccXQrqsW.s:14740  .debug_str:0000000000001fba .LASF398
C:\Users\stapi\AppData\Local\Temp\ccXQrqsW.s:15316  .debug_str:000000000000317f .LASF399
C:\Users\stapi\AppData\Local\Temp\ccXQrqsW.s:13926  .debug_str:00000000000008db .LASF400
C:\Users\stapi\AppData\Local\Temp\ccXQrqsW.s:13614  .debug_str:0000000000000000 .LASF401
C:\Users\stapi\AppData\Local\Temp\ccXQrqsW.s:14176  .debug_str:0000000000000f8c .LASF402
C:\Users\stapi\AppData\Local\Temp\ccXQrqsW.s:14306  .debug_str:0000000000001325 .LASF403
C:\Users\stapi\AppData\Local\Temp\ccXQrqsW.s:15188  .debug_str:0000000000002e15 .LASF404
C:\Users\stapi\AppData\Local\Temp\ccXQrqsW.s:14318  .debug_str:000000000000137e .LASF405
C:\Users\stapi\AppData\Local\Temp\ccXQrqsW.s:13830  .debug_str:000000000000062a .LASF406
C:\Users\stapi\AppData\Local\Temp\ccXQrqsW.s:14216  .debug_str:00000000000010b1 .LASF407
C:\Users\stapi\AppData\Local\Temp\ccXQrqsW.s:15776  .debug_str:0000000000003f6f .LASF408
C:\Users\stapi\AppData\Local\Temp\ccXQrqsW.s:13858  .debug_str:00000000000006eb .LASF409
C:\Users\stapi\AppData\Local\Temp\ccXQrqsW.s:14234  .debug_str:0000000000001138 .LASF410
C:\Users\stapi\AppData\Local\Temp\ccXQrqsW.s:14378  .debug_str:00000000000014fb .LASF411
C:\Users\stapi\AppData\Local\Temp\ccXQrqsW.s:14506  .debug_str:00000000000018fd .LASF412
C:\Users\stapi\AppData\Local\Temp\ccXQrqsW.s:14398  .debug_str:0000000000001587 .LASF413
C:\Users\stapi\AppData\Local\Temp\ccXQrqsW.s:15358  .debug_str:00000000000032b1 .LASF414
C:\Users\stapi\AppData\Local\Temp\ccXQrqsW.s:13676  .debug_str:00000000000001da .LASF415
C:\Users\stapi\AppData\Local\Temp\ccXQrqsW.s:15118  .debug_str:0000000000002c24 .LASF416
C:\Users\stapi\AppData\Local\Temp\ccXQrqsW.s:14932  .debug_str:00000000000026f0 .LASF417
C:\Users\stapi\AppData\Local\Temp\ccXQrqsW.s:15702  .debug_str:0000000000003cd3 .LASF418
C:\Users\stapi\AppData\Local\Temp\ccXQrqsW.s:15730  .debug_str:0000000000003e2e .LASF419
C:\Users\stapi\AppData\Local\Temp\ccXQrqsW.s:14896  .debug_str:000000000000254f .LASF420
C:\Users\stapi\AppData\Local\Temp\ccXQrqsW.s:14752  .debug_str:0000000000002006 .LASF421
C:\Users\stapi\AppData\Local\Temp\ccXQrqsW.s:15638  .debug_str:0000000000003b01 .LASF422
C:\Users\stapi\AppData\Local\Temp\ccXQrqsW.s:15444  .debug_str:0000000000003564 .LASF423
C:\Users\stapi\AppData\Local\Temp\ccXQrqsW.s:14278  .debug_str:0000000000001260 .LASF424
C:\Users\stapi\AppData\Local\Temp\ccXQrqsW.s:14734  .debug_str:0000000000001f8f .LASF425
C:\Users\stapi\AppData\Local\Temp\ccXQrqsW.s:13744  .debug_str:00000000000003a5 .LASF426
C:\Users\stapi\AppData\Local\Temp\ccXQrqsW.s:13730  .debug_str:000000000000035a .LASF427
C:\Users\stapi\AppData\Local\Temp\ccXQrqsW.s:14046  .debug_str:0000000000000c29 .LASF428
C:\Users\stapi\AppData\Local\Temp\ccXQrqsW.s:14186  .debug_str:0000000000000fca .LASF429
C:\Users\stapi\AppData\Local\Temp\ccXQrqsW.s:15216  .debug_str:0000000000002ebd .LASF430
C:\Users\stapi\AppData\Local\Temp\ccXQrqsW.s:14580  .debug_str:0000000000001b6d .LASF431
C:\Users\stapi\AppData\Local\Temp\ccXQrqsW.s:14920  .debug_str:00000000000026a4 .LASF432
C:\Users\stapi\AppData\Local\Temp\ccXQrqsW.s:15220  .debug_str:0000000000002ed7 .LASF433
C:\Users\stapi\AppData\Local\Temp\ccXQrqsW.s:13722  .debug_str:000000000000031e .LASF434
C:\Users\stapi\AppData\Local\Temp\ccXQrqsW.s:13664  .debug_str:0000000000000173 .LASF435
C:\Users\stapi\AppData\Local\Temp\ccXQrqsW.s:13802  .debug_str:000000000000054f .LASF436
C:\Users\stapi\AppData\Local\Temp\ccXQrqsW.s:15154  .debug_str:0000000000002d35 .LASF437
C:\Users\stapi\AppData\Local\Temp\ccXQrqsW.s:13786  .debug_str:00000000000004cd .LASF438
C:\Users\stapi\AppData\Local\Temp\ccXQrqsW.s:14972  .debug_str:000000000000284b .LASF439
C:\Users\stapi\AppData\Local\Temp\ccXQrqsW.s:15848  .debug_str:000000000000419f .LASF440
C:\Users\stapi\AppData\Local\Temp\ccXQrqsW.s:14342  .debug_str:0000000000001403 .LASF441
C:\Users\stapi\AppData\Local\Temp\ccXQrqsW.s:15442  .debug_str:0000000000003559 .LASF442
C:\Users\stapi\AppData\Local\Temp\ccXQrqsW.s:15056  .debug_str:0000000000002aa5 .LASF443
C:\Users\stapi\AppData\Local\Temp\ccXQrqsW.s:15718  .debug_str:0000000000003d38 .LASF444
C:\Users\stapi\AppData\Local\Temp\ccXQrqsW.s:14402  .debug_str:00000000000015a9 .LASF445
C:\Users\stapi\AppData\Local\Temp\ccXQrqsW.s:14924  .debug_str:00000000000026bd .LASF446
C:\Users\stapi\AppData\Local\Temp\ccXQrqsW.s:13784  .debug_str:00000000000004be .LASF447
C:\Users\stapi\AppData\Local\Temp\ccXQrqsW.s:15198  .debug_str:0000000000002e56 .LASF448
C:\Users\stapi\AppData\Local\Temp\ccXQrqsW.s:15476  .debug_str:0000000000003630 .LASF449
C:\Users\stapi\AppData\Local\Temp\ccXQrqsW.s:15340  .debug_str:0000000000003225 .LASF450
C:\Users\stapi\AppData\Local\Temp\ccXQrqsW.s:14304  .debug_str:0000000000001320 .LASF451
C:\Users\stapi\AppData\Local\Temp\ccXQrqsW.s:13970  .debug_str:0000000000000a12 .LASF452
C:\Users\stapi\AppData\Local\Temp\ccXQrqsW.s:14002  .debug_str:0000000000000acf .LASF453
C:\Users\stapi\AppData\Local\Temp\ccXQrqsW.s:13628  .debug_str:0000000000000059 .LASF454
C:\Users\stapi\AppData\Local\Temp\ccXQrqsW.s:15320  .debug_str:000000000000319e .LASF455
C:\Users\stapi\AppData\Local\Temp\ccXQrqsW.s:15096  .debug_str:0000000000002b8e .LASF456
C:\Users\stapi\AppData\Local\Temp\ccXQrqsW.s:15052  .debug_str:0000000000002a84 .LASF457
C:\Users\stapi\AppData\Local\Temp\ccXQrqsW.s:14856  .debug_str:0000000000002313 .LASF458
C:\Users\stapi\AppData\Local\Temp\ccXQrqsW.s:15688  .debug_str:0000000000003c64 .LASF459
C:\Users\stapi\AppData\Local\Temp\ccXQrqsW.s:14538  .debug_str:0000000000001a2a .LASF460
C:\Users\stapi\AppData\Local\Temp\ccXQrqsW.s:13876  .debug_str:0000000000000772 .LASF461
C:\Users\stapi\AppData\Local\Temp\ccXQrqsW.s:15578  .debug_str:000000000000390f .LASF462
C:\Users\stapi\AppData\Local\Temp\ccXQrqsW.s:13834  .debug_str:000000000000063d .LASF463
C:\Users\stapi\AppData\Local\Temp\ccXQrqsW.s:13624  .debug_str:0000000000000037 .LASF464
C:\Users\stapi\AppData\Local\Temp\ccXQrqsW.s:15262  .debug_str:0000000000002fe5 .LASF465
C:\Users\stapi\AppData\Local\Temp\ccXQrqsW.s:15080  .debug_str:0000000000002b3f .LASF466
C:\Users\stapi\AppData\Local\Temp\ccXQrqsW.s:15836  .debug_str:0000000000004149 .LASF467
C:\Users\stapi\AppData\Local\Temp\ccXQrqsW.s:14232  .debug_str:000000000000112f .LASF468
C:\Users\stapi\AppData\Local\Temp\ccXQrqsW.s:15616  .debug_str:0000000000003a57 .LASF469
C:\Users\stapi\AppData\Local\Temp\ccXQrqsW.s:15500  .debug_str:00000000000036f8 .LASF470
C:\Users\stapi\AppData\Local\Temp\ccXQrqsW.s:15194  .debug_str:0000000000002e3f .LASF471
C:\Users\stapi\AppData\Local\Temp\ccXQrqsW.s:15430  .debug_str:00000000000034fe .LASF472
C:\Users\stapi\AppData\Local\Temp\ccXQrqsW.s:14298  .debug_str:00000000000012ee .LASF473
C:\Users\stapi\AppData\Local\Temp\ccXQrqsW.s:14070  .debug_str:0000000000000cb8 .LASF474
C:\Users\stapi\AppData\Local\Temp\ccXQrqsW.s:14604  .debug_str:0000000000001c11 .LASF475
C:\Users\stapi\AppData\Local\Temp\ccXQrqsW.s:14854  .debug_str:000000000000230e .LASF476
C:\Users\stapi\AppData\Local\Temp\ccXQrqsW.s:14348  .debug_str:0000000000001436 .LASF477
C:\Users\stapi\AppData\Local\Temp\ccXQrqsW.s:15272  .debug_str:000000000000303c .LASF478
C:\Users\stapi\AppData\Local\Temp\ccXQrqsW.s:15554  .debug_str:0000000000003872 .LASF479
C:\Users\stapi\AppData\Local\Temp\ccXQrqsW.s:13912  .debug_str:0000000000000879 .LASF480
C:\Users\stapi\AppData\Local\Temp\ccXQrqsW.s:14090  .debug_str:0000000000000d38 .LASF481
C:\Users\stapi\AppData\Local\Temp\ccXQrqsW.s:14524  .debug_str:0000000000001993 .LASF482
C:\Users\stapi\AppData\Local\Temp\ccXQrqsW.s:13888  .debug_str:00000000000007bd .LASF483
C:\Users\stapi\AppData\Local\Temp\ccXQrqsW.s:14968  .debug_str:0000000000002818 .LASF484
C:\Users\stapi\AppData\Local\Temp\ccXQrqsW.s:13666  .debug_str:0000000000000180 .LASF485
C:\Users\stapi\AppData\Local\Temp\ccXQrqsW.s:14210  .debug_str:0000000000001081 .LASF486
C:\Users\stapi\AppData\Local\Temp\ccXQrqsW.s:14858  .debug_str:0000000000002324 .LASF487
C:\Users\stapi\AppData\Local\Temp\ccXQrqsW.s:15464  .debug_str:00000000000035d0 .LASF488
C:\Users\stapi\AppData\Local\Temp\ccXQrqsW.s:15628  .debug_str:0000000000003ab5 .LASF489
C:\Users\stapi\AppData\Local\Temp\ccXQrqsW.s:15322  .debug_str:00000000000031a8 .LASF490
C:\Users\stapi\AppData\Local\Temp\ccXQrqsW.s:15012  .debug_str:0000000000002976 .LASF491
C:\Users\stapi\AppData\Local\Temp\ccXQrqsW.s:15104  .debug_str:0000000000002bc9 .LASF492
C:\Users\stapi\AppData\Local\Temp\ccXQrqsW.s:14956  .debug_str:00000000000027c1 .LASF493
C:\Users\stapi\AppData\Local\Temp\ccXQrqsW.s:14558  .debug_str:0000000000001ab7 .LASF494
C:\Users\stapi\AppData\Local\Temp\ccXQrqsW.s:15254  .debug_str:0000000000002fa5 .LASF495
C:\Users\stapi\AppData\Local\Temp\ccXQrqsW.s:15440  .debug_str:000000000000353d .LASF496
C:\Users\stapi\AppData\Local\Temp\ccXQrqsW.s:14876  .debug_str:000000000000249d .LASF497
C:\Users\stapi\AppData\Local\Temp\ccXQrqsW.s:15716  .debug_str:0000000000003d1d .LASF498
C:\Users\stapi\AppData\Local\Temp\ccXQrqsW.s:15678  .debug_str:0000000000003c26 .LASF499
C:\Users\stapi\AppData\Local\Temp\ccXQrqsW.s:13728  .debug_str:0000000000000348 .LASF500
C:\Users\stapi\AppData\Local\Temp\ccXQrqsW.s:15240  .debug_str:0000000000002f4e .LASF501
C:\Users\stapi\AppData\Local\Temp\ccXQrqsW.s:14904  .debug_str:0000000000002587 .LASF502
C:\Users\stapi\AppData\Local\Temp\ccXQrqsW.s:14036  .debug_str:0000000000000bdb .LASF503
C:\Users\stapi\AppData\Local\Temp\ccXQrqsW.s:15022  .debug_str:00000000000029b6 .LASF504
C:\Users\stapi\AppData\Local\Temp\ccXQrqsW.s:14366  .debug_str:00000000000014a3 .LASF505
C:\Users\stapi\AppData\Local\Temp\ccXQrqsW.s:13636  .debug_str:000000000000008e .LASF506
C:\Users\stapi\AppData\Local\Temp\ccXQrqsW.s:15462  .debug_str:00000000000035cb .LASF507
C:\Users\stapi\AppData\Local\Temp\ccXQrqsW.s:15006  .debug_str:0000000000002948 .LASF508
C:\Users\stapi\AppData\Local\Temp\ccXQrqsW.s:14346  .debug_str:000000000000141c .LASF509
C:\Users\stapi\AppData\Local\Temp\ccXQrqsW.s:14886  .debug_str:0000000000002512 .LASF510
C:\Users\stapi\AppData\Local\Temp\ccXQrqsW.s:14768  .debug_str:000000000000207c .LASF511
C:\Users\stapi\AppData\Local\Temp\ccXQrqsW.s:14266  .debug_str:0000000000001223 .LASF512
C:\Users\stapi\AppData\Local\Temp\ccXQrqsW.s:14114  .debug_str:0000000000000df5 .LASF513
C:\Users\stapi\AppData\Local\Temp\ccXQrqsW.s:14842  .debug_str:00000000000022a0 .LASF514
C:\Users\stapi\AppData\Local\Temp\ccXQrqsW.s:15008  .debug_str:0000000000002953 .LASF515
C:\Users\stapi\AppData\Local\Temp\ccXQrqsW.s:14712  .debug_str:0000000000001ef6 .LASF516
C:\Users\stapi\AppData\Local\Temp\ccXQrqsW.s:15122  .debug_str:0000000000002c3e .LASF517
C:\Users\stapi\AppData\Local\Temp\ccXQrqsW.s:15276  .debug_str:0000000000003060 .LASF518
C:\Users\stapi\AppData\Local\Temp\ccXQrqsW.s:14226  .debug_str:00000000000010f2 .LASF519
C:\Users\stapi\AppData\Local\Temp\ccXQrqsW.s:15658  .debug_str:0000000000003b89 .LASF520
C:\Users\stapi\AppData\Local\Temp\ccXQrqsW.s:15794  .debug_str:0000000000004014 .LASF521
C:\Users\stapi\AppData\Local\Temp\ccXQrqsW.s:14332  .debug_str:00000000000013c9 .LASF522
C:\Users\stapi\AppData\Local\Temp\ccXQrqsW.s:14142  .debug_str:0000000000000ea5 .LASF523
C:\Users\stapi\AppData\Local\Temp\ccXQrqsW.s:14644  .debug_str:0000000000001d38 .LASF524
C:\Users\stapi\AppData\Local\Temp\ccXQrqsW.s:15402  .debug_str:000000000000340b .LASF525
C:\Users\stapi\AppData\Local\Temp\ccXQrqsW.s:14164  .debug_str:0000000000000f39 .LASF526
C:\Users\stapi\AppData\Local\Temp\ccXQrqsW.s:15332  .debug_str:00000000000031f7 .LASF527
C:\Users\stapi\AppData\Local\Temp\ccXQrqsW.s:15048  .debug_str:0000000000002a6a .LASF528
C:\Users\stapi\AppData\Local\Temp\ccXQrqsW.s:15210  .debug_str:0000000000002ea4 .LASF529
C:\Users\stapi\AppData\Local\Temp\ccXQrqsW.s:15472  .debug_str:0000000000003610 .LASF530
C:\Users\stapi\AppData\Local\Temp\ccXQrqsW.s:15346  .debug_str:0000000000003252 .LASF531
C:\Users\stapi\AppData\Local\Temp\ccXQrqsW.s:14828  .debug_str:0000000000002220 .LASF532
C:\Users\stapi\AppData\Local\Temp\ccXQrqsW.s:14240  .debug_str:0000000000001158 .LASF533
C:\Users\stapi\AppData\Local\Temp\ccXQrqsW.s:14714  .debug_str:0000000000001f05 .LASF534
C:\Users\stapi\AppData\Local\Temp\ccXQrqsW.s:15830  .debug_str:000000000000411c .LASF535
C:\Users\stapi\AppData\Local\Temp\ccXQrqsW.s:14038  .debug_str:0000000000000be6 .LASF536
C:\Users\stapi\AppData\Local\Temp\ccXQrqsW.s:14468  .debug_str:00000000000017c3 .LASF537
C:\Users\stapi\AppData\Local\Temp\ccXQrqsW.s:15612  .debug_str:0000000000003a23 .LASF538
C:\Users\stapi\AppData\Local\Temp\ccXQrqsW.s:13848  .debug_str:0000000000000692 .LASF539
C:\Users\stapi\AppData\Local\Temp\ccXQrqsW.s:15342  .debug_str:000000000000322e .LASF540
C:\Users\stapi\AppData\Local\Temp\ccXQrqsW.s:15004  .debug_str:0000000000002935 .LASF541
C:\Users\stapi\AppData\Local\Temp\ccXQrqsW.s:14074  .debug_str:0000000000000cd0 .LASF542
C:\Users\stapi\AppData\Local\Temp\ccXQrqsW.s:15806  .debug_str:000000000000406c .LASF543
C:\Users\stapi\AppData\Local\Temp\ccXQrqsW.s:14962  .debug_str:00000000000027e8 .LASF544
C:\Users\stapi\AppData\Local\Temp\ccXQrqsW.s:15474  .debug_str:0000000000003617 .LASF545
C:\Users\stapi\AppData\Local\Temp\ccXQrqsW.s:15168  .debug_str:0000000000002d8b .LASF546
C:\Users\stapi\AppData\Local\Temp\ccXQrqsW.s:15202  .debug_str:0000000000002e71 .LASF547
C:\Users\stapi\AppData\Local\Temp\ccXQrqsW.s:15380  .debug_str:0000000000003369 .LASF548
C:\Users\stapi\AppData\Local\Temp\ccXQrqsW.s:14178  .debug_str:0000000000000f93 .LASF549
C:\Users\stapi\AppData\Local\Temp\ccXQrqsW.s:14866  .debug_str:0000000000002450 .LASF550
C:\Users\stapi\AppData\Local\Temp\ccXQrqsW.s:15636  .debug_str:0000000000003aef .LASF551
C:\Users\stapi\AppData\Local\Temp\ccXQrqsW.s:14804  .debug_str:0000000000002164 .LASF552
C:\Users\stapi\AppData\Local\Temp\ccXQrqsW.s:14682  .debug_str:0000000000001e2d .LASF553
C:\Users\stapi\AppData\Local\Temp\ccXQrqsW.s:14526  .debug_str:00000000000019b5 .LASF554
C:\Users\stapi\AppData\Local\Temp\ccXQrqsW.s:14184  .debug_str:0000000000000fbf .LASF555
C:\Users\stapi\AppData\Local\Temp\ccXQrqsW.s:15504  .debug_str:000000000000370e .LASF556
C:\Users\stapi\AppData\Local\Temp\ccXQrqsW.s:13736  .debug_str:000000000000037a .LASF557
C:\Users\stapi\AppData\Local\Temp\ccXQrqsW.s:14926  .debug_str:00000000000026d0 .LASF558
C:\Users\stapi\AppData\Local\Temp\ccXQrqsW.s:15780  .debug_str:0000000000003f9f .LASF559
C:\Users\stapi\AppData\Local\Temp\ccXQrqsW.s:14780  .debug_str:00000000000020cd .LASF560
C:\Users\stapi\AppData\Local\Temp\ccXQrqsW.s:15840  .debug_str:0000000000004167 .LASF561
C:\Users\stapi\AppData\Local\Temp\ccXQrqsW.s:15296  .debug_str:00000000000030f2 .LASF562
C:\Users\stapi\AppData\Local\Temp\ccXQrqsW.s:15726  .debug_str:0000000000003e03 .LASF563
C:\Users\stapi\AppData\Local\Temp\ccXQrqsW.s:14296  .debug_str:00000000000012e0 .LASF564
C:\Users\stapi\AppData\Local\Temp\ccXQrqsW.s:14488  .debug_str:0000000000001870 .LASF565
C:\Users\stapi\AppData\Local\Temp\ccXQrqsW.s:14288  .debug_str:0000000000001296 .LASF566
C:\Users\stapi\AppData\Local\Temp\ccXQrqsW.s:15368  .debug_str:000000000000331e .LASF567
C:\Users\stapi\AppData\Local\Temp\ccXQrqsW.s:15552  .debug_str:0000000000003863 .LASF568
C:\Users\stapi\AppData\Local\Temp\ccXQrqsW.s:15674  .debug_str:0000000000003c0a .LASF569
C:\Users\stapi\AppData\Local\Temp\ccXQrqsW.s:14838  .debug_str:000000000000227f .LASF570
C:\Users\stapi\AppData\Local\Temp\ccXQrqsW.s:15250  .debug_str:0000000000002f8d .LASF571
C:\Users\stapi\AppData\Local\Temp\ccXQrqsW.s:14554  .debug_str:0000000000001a96 .LASF572
C:\Users\stapi\AppData\Local\Temp\ccXQrqsW.s:15618  .debug_str:0000000000003a67 .LASF573
C:\Users\stapi\AppData\Local\Temp\ccXQrqsW.s:13772  .debug_str:0000000000000470 .LASF574
C:\Users\stapi\AppData\Local\Temp\ccXQrqsW.s:13956  .debug_str:00000000000009c0 .LASF575
C:\Users\stapi\AppData\Local\Temp\ccXQrqsW.s:15334  .debug_str:0000000000003207 .LASF576
C:\Users\stapi\AppData\Local\Temp\ccXQrqsW.s:15526  .debug_str:00000000000037a2 .LASF577
C:\Users\stapi\AppData\Local\Temp\ccXQrqsW.s:14542  .debug_str:0000000000001a42 .LASF578
C:\Users\stapi\AppData\Local\Temp\ccXQrqsW.s:13948  .debug_str:000000000000097d .LASF579
C:\Users\stapi\AppData\Local\Temp\ccXQrqsW.s:15120  .debug_str:0000000000002c33 .LASF580
C:\Users\stapi\AppData\Local\Temp\ccXQrqsW.s:14952  .debug_str:00000000000027a0 .LASF581
C:\Users\stapi\AppData\Local\Temp\ccXQrqsW.s:14088  .debug_str:0000000000000d29 .LASF582
C:\Users\stapi\AppData\Local\Temp\ccXQrqsW.s:14648  .debug_str:0000000000001d51 .LASF583
C:\Users\stapi\AppData\Local\Temp\ccXQrqsW.s:13704  .debug_str:0000000000000298 .LASF584
C:\Users\stapi\AppData\Local\Temp\ccXQrqsW.s:14840  .debug_str:000000000000228f .LASF585
C:\Users\stapi\AppData\Local\Temp\ccXQrqsW.s:14822  .debug_str:00000000000021f7 .LASF586
C:\Users\stapi\AppData\Local\Temp\ccXQrqsW.s:14212  .debug_str:000000000000109d .LASF587
C:\Users\stapi\AppData\Local\Temp\ccXQrqsW.s:14732  .debug_str:0000000000001f82 .LASF588
C:\Users\stapi\AppData\Local\Temp\ccXQrqsW.s:14938  .debug_str:0000000000002720 .LASF589
C:\Users\stapi\AppData\Local\Temp\ccXQrqsW.s:14680  .debug_str:0000000000001e22 .LASF590
C:\Users\stapi\AppData\Local\Temp\ccXQrqsW.s:14072  .debug_str:0000000000000cc8 .LASF591
C:\Users\stapi\AppData\Local\Temp\ccXQrqsW.s:15468  .debug_str:00000000000035fd .LASF592
C:\Users\stapi\AppData\Local\Temp\ccXQrqsW.s:14290  .debug_str:00000000000012a8 .LASF593
C:\Users\stapi\AppData\Local\Temp\ccXQrqsW.s:14710  .debug_str:0000000000001ee8 .LASF594
C:\Users\stapi\AppData\Local\Temp\ccXQrqsW.s:14228  .debug_str:0000000000001104 .LASF595
C:\Users\stapi\AppData\Local\Temp\ccXQrqsW.s:14486  .debug_str:000000000000185e .LASF596
C:\Users\stapi\AppData\Local\Temp\ccXQrqsW.s:15236  .debug_str:0000000000002f33 .LASF597
C:\Users\stapi\AppData\Local\Temp\ccXQrqsW.s:15600  .debug_str:00000000000039b8 .LASF598
C:\Users\stapi\AppData\Local\Temp\ccXQrqsW.s:15832  .debug_str:0000000000004131 .LASF599
C:\Users\stapi\AppData\Local\Temp\ccXQrqsW.s:14496  .debug_str:00000000000018a4 .LASF600
C:\Users\stapi\AppData\Local\Temp\ccXQrqsW.s:13944  .debug_str:000000000000095b .LASF601
C:\Users\stapi\AppData\Local\Temp\ccXQrqsW.s:13680  .debug_str:00000000000001f3 .LASF602
C:\Users\stapi\AppData\Local\Temp\ccXQrqsW.s:14432  .debug_str:00000000000016b1 .LASF603
C:\Users\stapi\AppData\Local\Temp\ccXQrqsW.s:14848  .debug_str:00000000000022e3 .LASF604
C:\Users\stapi\AppData\Local\Temp\ccXQrqsW.s:14382  .debug_str:0000000000001515 .LASF605
C:\Users\stapi\AppData\Local\Temp\ccXQrqsW.s:15632  .debug_str:0000000000003ad4 .LASF606
C:\Users\stapi\AppData\Local\Temp\ccXQrqsW.s:15514  .debug_str:0000000000003755 .LASF607
C:\Users\stapi\AppData\Local\Temp\ccXQrqsW.s:14750  .debug_str:0000000000001fff .LASF608
C:\Users\stapi\AppData\Local\Temp\ccXQrqsW.s:15212  .debug_str:0000000000002ea9 .LASF609
C:\Users\stapi\AppData\Local\Temp\ccXQrqsW.s:15662  .debug_str:0000000000003bb3 .LASF610
C:\Users\stapi\AppData\Local\Temp\ccXQrqsW.s:13634  .debug_str:0000000000000086 .LASF611
C:\Users\stapi\AppData\Local\Temp\ccXQrqsW.s:13796  .debug_str:0000000000000530 .LASF612
C:\Users\stapi\AppData\Local\Temp\ccXQrqsW.s:13692  .debug_str:0000000000000240 .LASF613
C:\Users\stapi\AppData\Local\Temp\ccXQrqsW.s:13908  .debug_str:0000000000000860 .LASF614
C:\Users\stapi\AppData\Local\Temp\ccXQrqsW.s:13972  .debug_str:0000000000000a1b .LASF615
C:\Users\stapi\AppData\Local\Temp\ccXQrqsW.s:15834  .debug_str:000000000000413d .LASF616
C:\Users\stapi\AppData\Local\Temp\ccXQrqsW.s:15518  .debug_str:0000000000003770 .LASF617
C:\Users\stapi\AppData\Local\Temp\ccXQrqsW.s:14916  .debug_str:00000000000025fa .LASF618
C:\Users\stapi\AppData\Local\Temp\ccXQrqsW.s:15226  .debug_str:0000000000002f01 .LASF619
C:\Users\stapi\AppData\Local\Temp\ccXQrqsW.s:15676  .debug_str:0000000000003c18 .LASF620
C:\Users\stapi\AppData\Local\Temp\ccXQrqsW.s:15626  .debug_str:0000000000003aa4 .LASF621
C:\Users\stapi\AppData\Local\Temp\ccXQrqsW.s:14772  .debug_str:000000000000209d .LASF622
C:\Users\stapi\AppData\Local\Temp\ccXQrqsW.s:15058  .debug_str:0000000000002aaf .LASF623
C:\Users\stapi\AppData\Local\Temp\ccXQrqsW.s:15752  .debug_str:0000000000003ec2 .LASF624
C:\Users\stapi\AppData\Local\Temp\ccXQrqsW.s:15406  .debug_str:0000000000003432 .LASF625
C:\Users\stapi\AppData\Local\Temp\ccXQrqsW.s:14132  .debug_str:0000000000000e57 .LASF626
C:\Users\stapi\AppData\Local\Temp\ccXQrqsW.s:15614  .debug_str:0000000000003a42 .LASF627
C:\Users\stapi\AppData\Local\Temp\ccXQrqsW.s:14012  .debug_str:0000000000000b19 .LASF628
C:\Users\stapi\AppData\Local\Temp\ccXQrqsW.s:14014  .debug_str:0000000000000b30 .LASF629
C:\Users\stapi\AppData\Local\Temp\ccXQrqsW.s:15098  .debug_str:0000000000002b98 .LASF630
C:\Users\stapi\AppData\Local\Temp\ccXQrqsW.s:15506  .debug_str:0000000000003719 .LASF631
C:\Users\stapi\AppData\Local\Temp\ccXQrqsW.s:14806  .debug_str:0000000000002176 .LASF632
C:\Users\stapi\AppData\Local\Temp\ccXQrqsW.s:14428  .debug_str:000000000000168b .LASF633
C:\Users\stapi\AppData\Local\Temp\ccXQrqsW.s:14054  .debug_str:0000000000000c50 .LASF634
C:\Users\stapi\AppData\Local\Temp\ccXQrqsW.s:14150  .debug_str:0000000000000ed7 .LASF635
C:\Users\stapi\AppData\Local\Temp\ccXQrqsW.s:14104  .debug_str:0000000000000db0 .LASF636
C:\Users\stapi\AppData\Local\Temp\ccXQrqsW.s:14988  .debug_str:00000000000028bb .LASF637
C:\Users\stapi\AppData\Local\Temp\ccXQrqsW.s:14062  .debug_str:0000000000000c88 .LASF638
C:\Users\stapi\AppData\Local\Temp\ccXQrqsW.s:15816  .debug_str:00000000000040b4 .LASF639
C:\Users\stapi\AppData\Local\Temp\ccXQrqsW.s:15060  .debug_str:0000000000002abb .LASF640
C:\Users\stapi\AppData\Local\Temp\ccXQrqsW.s:14844  .debug_str:00000000000022b3 .LASF641
C:\Users\stapi\AppData\Local\Temp\ccXQrqsW.s:14410  .debug_str:00000000000015e9 .LASF642
C:\Users\stapi\AppData\Local\Temp\ccXQrqsW.s:14790  .debug_str:000000000000210c .LASF643
C:\Users\stapi\AppData\Local\Temp\ccXQrqsW.s:14328  .debug_str:00000000000013b3 .LASF644
C:\Users\stapi\AppData\Local\Temp\ccXQrqsW.s:13714  .debug_str:00000000000002e3 .LASF645
C:\Users\stapi\AppData\Local\Temp\ccXQrqsW.s:13716  .debug_str:00000000000002ef .LASF646
C:\Users\stapi\AppData\Local\Temp\ccXQrqsW.s:14196  .debug_str:0000000000001022 .LASF647
C:\Users\stapi\AppData\Local\Temp\ccXQrqsW.s:14798  .debug_str:0000000000002145 .LASF648
C:\Users\stapi\AppData\Local\Temp\ccXQrqsW.s:14010  .debug_str:0000000000000b10 .LASF649
C:\Users\stapi\AppData\Local\Temp\ccXQrqsW.s:15742  .debug_str:0000000000003e7f .LASF650
C:\Users\stapi\AppData\Local\Temp\ccXQrqsW.s:14698  .debug_str:0000000000001e9d .LASF651
C:\Users\stapi\AppData\Local\Temp\ccXQrqsW.s:13882  .debug_str:0000000000000796 .LASF652
C:\Users\stapi\AppData\Local\Temp\ccXQrqsW.s:15124  .debug_str:0000000000002c4c .LASF653
C:\Users\stapi\AppData\Local\Temp\ccXQrqsW.s:14946  .debug_str:000000000000276b .LASF654
C:\Users\stapi\AppData\Local\Temp\ccXQrqsW.s:14458  .debug_str:0000000000001773 .LASF655
C:\Users\stapi\AppData\Local\Temp\ccXQrqsW.s:14884  .debug_str:0000000000002505 .LASF656
C:\Users\stapi\AppData\Local\Temp\ccXQrqsW.s:15754  .debug_str:0000000000003ecf .LASF657
C:\Users\stapi\AppData\Local\Temp\ccXQrqsW.s:14434  .debug_str:00000000000016b9 .LASF658
C:\Users\stapi\AppData\Local\Temp\ccXQrqsW.s:15160  .debug_str:0000000000002d61 .LASF659
C:\Users\stapi\AppData\Local\Temp\ccXQrqsW.s:15680  .debug_str:0000000000003c32 .LASF660
C:\Users\stapi\AppData\Local\Temp\ccXQrqsW.s:13746  .debug_str:00000000000003bb .LASF661
C:\Users\stapi\AppData\Local\Temp\ccXQrqsW.s:13648  .debug_str:00000000000000f1 .LASF662
C:\Users\stapi\AppData\Local\Temp\ccXQrqsW.s:14372  .debug_str:00000000000014c3 .LASF663
C:\Users\stapi\AppData\Local\Temp\ccXQrqsW.s:14590  .debug_str:0000000000001bb2 .LASF664
C:\Users\stapi\AppData\Local\Temp\ccXQrqsW.s:13890  .debug_str:00000000000007db .LASF665
C:\Users\stapi\AppData\Local\Temp\ccXQrqsW.s:14762  .debug_str:0000000000002044 .LASF666
C:\Users\stapi\AppData\Local\Temp\ccXQrqsW.s:14756  .debug_str:000000000000201f .LASF667
C:\Users\stapi\AppData\Local\Temp\ccXQrqsW.s:14716  .debug_str:0000000000001f14 .LASF668
C:\Users\stapi\AppData\Local\Temp\ccXQrqsW.s:14008  .debug_str:0000000000000af6 .LASF669
C:\Users\stapi\AppData\Local\Temp\ccXQrqsW.s:15842  .debug_str:0000000000004173 .LASF670
C:\Users\stapi\AppData\Local\Temp\ccXQrqsW.s:15374  .debug_str:000000000000334d .LASF671
C:\Users\stapi\AppData\Local\Temp\ccXQrqsW.s:14490  .debug_str:000000000000187e .LASF672
C:\Users\stapi\AppData\Local\Temp\ccXQrqsW.s:14438  .debug_str:00000000000016c9 .LASF673
C:\Users\stapi\AppData\Local\Temp\ccXQrqsW.s:14654  .debug_str:0000000000001d85 .LASF674
C:\Users\stapi\AppData\Local\Temp\ccXQrqsW.s:13668  .debug_str:0000000000000198 .LASF675
C:\Users\stapi\AppData\Local\Temp\ccXQrqsW.s:14512  .debug_str:0000000000001924 .LASF676
C:\Users\stapi\AppData\Local\Temp\ccXQrqsW.s:15652  .debug_str:0000000000003b52 .LASF677
C:\Users\stapi\AppData\Local\Temp\ccXQrqsW.s:15074  .debug_str:0000000000002b0d .LASF678
C:\Users\stapi\AppData\Local\Temp\ccXQrqsW.s:13690  .debug_str:0000000000000236 .LASF679
C:\Users\stapi\AppData\Local\Temp\ccXQrqsW.s:15536  .debug_str:00000000000037e4 .LASF680
C:\Users\stapi\AppData\Local\Temp\ccXQrqsW.s:14416  .debug_str:000000000000161d .LASF681
C:\Users\stapi\AppData\Local\Temp\ccXQrqsW.s:14218  .debug_str:00000000000010be .LASF682
C:\Users\stapi\AppData\Local\Temp\ccXQrqsW.s:14406  .debug_str:00000000000015cb .LASF683
C:\Users\stapi\AppData\Local\Temp\ccXQrqsW.s:14746  .debug_str:0000000000001fe3 .LASF684
C:\Users\stapi\AppData\Local\Temp\ccXQrqsW.s:13942  .debug_str:0000000000000953 .LASF685
C:\Users\stapi\AppData\Local\Temp\ccXQrqsW.s:15550  .debug_str:0000000000003856 .LASF686
C:\Users\stapi\AppData\Local\Temp\ccXQrqsW.s:14392  .debug_str:000000000000155c .LASF687
C:\Users\stapi\AppData\Local\Temp\ccXQrqsW.s:13900  .debug_str:000000000000081e .LASF688
C:\Users\stapi\AppData\Local\Temp\ccXQrqsW.s:15270  .debug_str:0000000000003023 .LASF689
C:\Users\stapi\AppData\Local\Temp\ccXQrqsW.s:13702  .debug_str:000000000000027b .LASF690
C:\Users\stapi\AppData\Local\Temp\ccXQrqsW.s:14230  .debug_str:0000000000001116 .LASF691
C:\Users\stapi\AppData\Local\Temp\ccXQrqsW.s:15594  .debug_str:000000000000397b .LASF692
C:\Users\stapi\AppData\Local\Temp\ccXQrqsW.s:15512  .debug_str:0000000000003746 .LASF693
C:\Users\stapi\AppData\Local\Temp\ccXQrqsW.s:14634  .debug_str:0000000000001ce4 .LASF694
C:\Users\stapi\AppData\Local\Temp\ccXQrqsW.s:14974  .debug_str:0000000000002860 .LASF695
C:\Users\stapi\AppData\Local\Temp\ccXQrqsW.s:15014  .debug_str:0000000000002981 .LASF696
C:\Users\stapi\AppData\Local\Temp\ccXQrqsW.s:14260  .debug_str:00000000000011eb .LASF697
C:\Users\stapi\AppData\Local\Temp\ccXQrqsW.s:14242  .debug_str:000000000000117b .LASF698
C:\Users\stapi\AppData\Local\Temp\ccXQrqsW.s:14874  .debug_str:0000000000002485 .LASF699
C:\Users\stapi\AppData\Local\Temp\ccXQrqsW.s:15336  .debug_str:000000000000320e .LASF700
C:\Users\stapi\AppData\Local\Temp\ccXQrqsW.s:13732  .debug_str:0000000000000363 .LASF701
C:\Users\stapi\AppData\Local\Temp\ccXQrqsW.s:14548  .debug_str:0000000000001a6b .LASF702
C:\Users\stapi\AppData\Local\Temp\ccXQrqsW.s:15684  .debug_str:0000000000003c4d .LASF703
C:\Users\stapi\AppData\Local\Temp\ccXQrqsW.s:14110  .debug_str:0000000000000dd7 .LASF704
C:\Users\stapi\AppData\Local\Temp\ccXQrqsW.s:13826  .debug_str:0000000000000617 .LASF705
C:\Users\stapi\AppData\Local\Temp\ccXQrqsW.s:15038  .debug_str:0000000000002a32 .LASF706
C:\Users\stapi\AppData\Local\Temp\ccXQrqsW.s:15204  .debug_str:0000000000002e84 .LASF707
C:\Users\stapi\AppData\Local\Temp\ccXQrqsW.s:14042  .debug_str:0000000000000c08 .LASF708
C:\Users\stapi\AppData\Local\Temp\ccXQrqsW.s:14376  .debug_str:00000000000014ec .LASF709
C:\Users\stapi\AppData\Local\Temp\ccXQrqsW.s:14922  .debug_str:00000000000026b3 .LASF710
C:\Users\stapi\AppData\Local\Temp\ccXQrqsW.s:13662  .debug_str:0000000000000169 .LASF711
C:\Users\stapi\AppData\Local\Temp\ccXQrqsW.s:14386  .debug_str:0000000000001539 .LASF712
C:\Users\stapi\AppData\Local\Temp\ccXQrqsW.s:13886  .debug_str:00000000000007b1 .LASF713
C:\Users\stapi\AppData\Local\Temp\ccXQrqsW.s:15394  .debug_str:00000000000033cb .LASF714
C:\Users\stapi\AppData\Local\Temp\ccXQrqsW.s:13962  .debug_str:00000000000009eb .LASF715
C:\Users\stapi\AppData\Local\Temp\ccXQrqsW.s:14460  .debug_str:0000000000001782 .LASF716
C:\Users\stapi\AppData\Local\Temp\ccXQrqsW.s:14592  .debug_str:0000000000001bc3 .LASF717
C:\Users\stapi\AppData\Local\Temp\ccXQrqsW.s:13844  .debug_str:000000000000067b .LASF718
C:\Users\stapi\AppData\Local\Temp\ccXQrqsW.s:14960  .debug_str:00000000000027da .LASF719
C:\Users\stapi\AppData\Local\Temp\ccXQrqsW.s:14568  .debug_str:0000000000001b0f .LASF720
C:\Users\stapi\AppData\Local\Temp\ccXQrqsW.s:15142  .debug_str:0000000000002cd7 .LASF721
C:\Users\stapi\AppData\Local\Temp\ccXQrqsW.s:14244  .debug_str:000000000000118c .LASF722
C:\Users\stapi\AppData\Local\Temp\ccXQrqsW.s:14484  .debug_str:0000000000001850 .LASF723
C:\Users\stapi\AppData\Local\Temp\ccXQrqsW.s:15182  .debug_str:0000000000002deb .LASF724
C:\Users\stapi\AppData\Local\Temp\ccXQrqsW.s:13884  .debug_str:00000000000007a5 .LASF725
C:\Users\stapi\AppData\Local\Temp\ccXQrqsW.s:14534  .debug_str:0000000000001a0b .LASF726
C:\Users\stapi\AppData\Local\Temp\ccXQrqsW.s:13910  .debug_str:000000000000086d .LASF727
C:\Users\stapi\AppData\Local\Temp\ccXQrqsW.s:15686  .debug_str:0000000000003c56 .LASF728
C:\Users\stapi\AppData\Local\Temp\ccXQrqsW.s:14158  .debug_str:0000000000000f24 .LASF729
C:\Users\stapi\AppData\Local\Temp\ccXQrqsW.s:14064  .debug_str:0000000000000c98 .LASF730
C:\Users\stapi\AppData\Local\Temp\ccXQrqsW.s:15790  .debug_str:0000000000003ff5 .LASF731
C:\Users\stapi\AppData\Local\Temp\ccXQrqsW.s:14632  .debug_str:0000000000001cd7 .LASF732
C:\Users\stapi\AppData\Local\Temp\ccXQrqsW.s:15740  .debug_str:0000000000003e78 .LASF733
C:\Users\stapi\AppData\Local\Temp\ccXQrqsW.s:15218  .debug_str:0000000000002ecf .LASF734
C:\Users\stapi\AppData\Local\Temp\ccXQrqsW.s:15256  .debug_str:0000000000002fc5 .LASF735
C:\Users\stapi\AppData\Local\Temp\ccXQrqsW.s:15458  .debug_str:00000000000035b7 .LASF736
C:\Users\stapi\AppData\Local\Temp\ccXQrqsW.s:13828  .debug_str:000000000000061c .LASF737
C:\Users\stapi\AppData\Local\Temp\ccXQrqsW.s:14294  .debug_str:00000000000012d4 .LASF738
C:\Users\stapi\AppData\Local\Temp\ccXQrqsW.s:15300  .debug_str:0000000000003118 .LASF739
C:\Users\stapi\AppData\Local\Temp\ccXQrqsW.s:15710  .debug_str:0000000000003d06 .LASF740
C:\Users\stapi\AppData\Local\Temp\ccXQrqsW.s:15184  .debug_str:0000000000002dfd .LASF741
C:\Users\stapi\AppData\Local\Temp\ccXQrqsW.s:14084  .debug_str:0000000000000d11 .LASF742
C:\Users\stapi\AppData\Local\Temp\ccXQrqsW.s:15392  .debug_str:00000000000033bb .LASF743
C:\Users\stapi\AppData\Local\Temp\ccXQrqsW.s:15828  .debug_str:000000000000410c .LASF744
C:\Users\stapi\AppData\Local\Temp\ccXQrqsW.s:15286  .debug_str:00000000000030af .LASF745
C:\Users\stapi\AppData\Local\Temp\ccXQrqsW.s:14040  .debug_str:0000000000000bfb .LASF746
C:\Users\stapi\AppData\Local\Temp\ccXQrqsW.s:14658  .debug_str:0000000000001da3 .LASF747
C:\Users\stapi\AppData\Local\Temp\ccXQrqsW.s:14676  .debug_str:0000000000001e03 .LASF748
C:\Users\stapi\AppData\Local\Temp\ccXQrqsW.s:15328  .debug_str:00000000000031df .LASF749
C:\Users\stapi\AppData\Local\Temp\ccXQrqsW.s:15792  .debug_str:0000000000003ffb .LASF750
C:\Users\stapi\AppData\Local\Temp\ccXQrqsW.s:14708  .debug_str:0000000000001ee0 .LASF751
C:\Users\stapi\AppData\Local\Temp\ccXQrqsW.s:14594  .debug_str:0000000000001bce .LASF752
C:\Users\stapi\AppData\Local\Temp\ccXQrqsW.s:14552  .debug_str:0000000000001a86 .LASF753
C:\Users\stapi\AppData\Local\Temp\ccXQrqsW.s:14214  .debug_str:00000000000010a8 .LASF754
C:\Users\stapi\AppData\Local\Temp\ccXQrqsW.s:14034  .debug_str:0000000000000bd3 .LASF755
C:\Users\stapi\AppData\Local\Temp\ccXQrqsW.s:14160  .debug_str:0000000000000f2a .LASF756
C:\Users\stapi\AppData\Local\Temp\ccXQrqsW.s:14748  .debug_str:0000000000001ff1 .LASF757
C:\Users\stapi\AppData\Local\Temp\ccXQrqsW.s:15524  .debug_str:000000000000378b .LASF758
C:\Users\stapi\AppData\Local\Temp\ccXQrqsW.s:15192  .debug_str:0000000000002e2b .LASF759
C:\Users\stapi\AppData\Local\Temp\ccXQrqsW.s:15860  .debug_str:0000000000004203 .LASF760
C:\Users\stapi\AppData\Local\Temp\ccXQrqsW.s:15386  .debug_str:00000000000033a2 .LASF761
C:\Users\stapi\AppData\Local\Temp\ccXQrqsW.s:14322  .debug_str:0000000000001393 .LASF762
C:\Users\stapi\AppData\Local\Temp\ccXQrqsW.s:14048  .debug_str:0000000000000c35 .LASF763
C:\Users\stapi\AppData\Local\Temp\ccXQrqsW.s:14472  .debug_str:00000000000017ee .LASF764
C:\Users\stapi\AppData\Local\Temp\ccXQrqsW.s:15596  .debug_str:000000000000398a .LASF765
C:\Users\stapi\AppData\Local\Temp\ccXQrqsW.s:14980  .debug_str:000000000000287f .LASF766
C:\Users\stapi\AppData\Local\Temp\ccXQrqsW.s:15282  .debug_str:000000000000308f .LASF767
C:\Users\stapi\AppData\Local\Temp\ccXQrqsW.s:14396  .debug_str:000000000000157b .LASF768
C:\Users\stapi\AppData\Local\Temp\ccXQrqsW.s:14744  .debug_str:0000000000001fd7 .LASF769
C:\Users\stapi\AppData\Local\Temp\ccXQrqsW.s:13788  .debug_str:00000000000004dc .LASF770
C:\Users\stapi\AppData\Local\Temp\ccXQrqsW.s:13718  .debug_str:00000000000002fb .LASF771
C:\Users\stapi\AppData\Local\Temp\ccXQrqsW.s:15146  .debug_str:0000000000002cf2 .LASF772
C:\Users\stapi\AppData\Local\Temp\ccXQrqsW.s:14914  .debug_str:00000000000025e9 .LASF773
C:\Users\stapi\AppData\Local\Temp\ccXQrqsW.s:13824  .debug_str:000000000000060d .LASF774
C:\Users\stapi\AppData\Local\Temp\ccXQrqsW.s:15030  .debug_str:00000000000029fe .LASF775
C:\Users\stapi\AppData\Local\Temp\ccXQrqsW.s:13774  .debug_str:000000000000047a .LASF776
C:\Users\stapi\AppData\Local\Temp\ccXQrqsW.s:13756  .debug_str:00000000000003fd .LASF777
C:\Users\stapi\AppData\Local\Temp\ccXQrqsW.s:15756  .debug_str:0000000000003ed8 .LASF778
C:\Users\stapi\AppData\Local\Temp\ccXQrqsW.s:15810  .debug_str:000000000000408a .LASF779
C:\Users\stapi\AppData\Local\Temp\ccXQrqsW.s:15760  .debug_str:0000000000003ef1 .LASF780
C:\Users\stapi\AppData\Local\Temp\ccXQrqsW.s:15280  .debug_str:000000000000307d .LASF781
C:\Users\stapi\AppData\Local\Temp\ccXQrqsW.s:13654  .debug_str:0000000000000134 .LASF782
C:\Users\stapi\AppData\Local\Temp\ccXQrqsW.s:13762  .debug_str:0000000000000429 .LASF783
C:\Users\stapi\AppData\Local\Temp\ccXQrqsW.s:13874  .debug_str:0000000000000763 .LASF784
C:\Users\stapi\AppData\Local\Temp\ccXQrqsW.s:15538  .debug_str:00000000000037f2 .LASF785
C:\Users\stapi\AppData\Local\Temp\ccXQrqsW.s:14764  .debug_str:0000000000002062 .LASF786
C:\Users\stapi\AppData\Local\Temp\ccXQrqsW.s:15542  .debug_str:0000000000003809 .LASF787
C:\Users\stapi\AppData\Local\Temp\ccXQrqsW.s:14570  .debug_str:0000000000001b22 .LASF788
C:\Users\stapi\AppData\Local\Temp\ccXQrqsW.s:13760  .debug_str:0000000000000418 .LASF789
C:\Users\stapi\AppData\Local\Temp\ccXQrqsW.s:14958  .debug_str:00000000000027cf .LASF790
C:\Users\stapi\AppData\Local\Temp\ccXQrqsW.s:13764  .debug_str:0000000000000438 .LASF791
C:\Users\stapi\AppData\Local\Temp\ccXQrqsW.s:14928  .debug_str:00000000000026d9 .LASF792
C:\Users\stapi\AppData\Local\Temp\ccXQrqsW.s:14044  .debug_str:0000000000000c1c .LASF793
C:\Users\stapi\AppData\Local\Temp\ccXQrqsW.s:14352  .debug_str:000000000000144a .LASF794
C:\Users\stapi\AppData\Local\Temp\ccXQrqsW.s:15230  .debug_str:0000000000002f12 .LASF795
C:\Users\stapi\AppData\Local\Temp\ccXQrqsW.s:15696  .debug_str:0000000000003ca7 .LASF796
C:\Users\stapi\AppData\Local\Temp\ccXQrqsW.s:15116  .debug_str:0000000000002c1a .LASF797
C:\Users\stapi\AppData\Local\Temp\ccXQrqsW.s:14140  .debug_str:0000000000000e9c .LASF798
C:\Users\stapi\AppData\Local\Temp\ccXQrqsW.s:15068  .debug_str:0000000000002af1 .LASF799
C:\Users\stapi\AppData\Local\Temp\ccXQrqsW.s:14188  .debug_str:0000000000000fda .LASF800
C:\Users\stapi\AppData\Local\Temp\ccXQrqsW.s:14130  .debug_str:0000000000000e4c .LASF801
C:\Users\stapi\AppData\Local\Temp\ccXQrqsW.s:14684  .debug_str:0000000000001e3e .LASF802
C:\Users\stapi\AppData\Local\Temp\ccXQrqsW.s:15292  .debug_str:00000000000030df .LASF803
C:\Users\stapi\AppData\Local\Temp\ccXQrqsW.s:14510  .debug_str:0000000000001916 .LASF804
C:\Users\stapi\AppData\Local\Temp\ccXQrqsW.s:14576  .debug_str:0000000000001b4b .LASF805
C:\Users\stapi\AppData\Local\Temp\ccXQrqsW.s:13750  .debug_str:00000000000003d2 .LASF806
C:\Users\stapi\AppData\Local\Temp\ccXQrqsW.s:15572  .debug_str:00000000000038e7 .LASF807
C:\Users\stapi\AppData\Local\Temp\ccXQrqsW.s:15728  .debug_str:0000000000003e13 .LASF808
C:\Users\stapi\AppData\Local\Temp\ccXQrqsW.s:13820  .debug_str:00000000000005ec .LASF809
C:\Users\stapi\AppData\Local\Temp\ccXQrqsW.s:13622  .debug_str:0000000000000029 .LASF810
C:\Users\stapi\AppData\Local\Temp\ccXQrqsW.s:15258  .debug_str:0000000000002fcf .LASF811
C:\Users\stapi\AppData\Local\Temp\ccXQrqsW.s:14068  .debug_str:0000000000000cad .LASF812
C:\Users\stapi\AppData\Local\Temp\ccXQrqsW.s:14808  .debug_str:000000000000218f .LASF813
C:\Users\stapi\AppData\Local\Temp\ccXQrqsW.s:13806  .debug_str:0000000000000574 .LASF814
C:\Users\stapi\AppData\Local\Temp\ccXQrqsW.s:14646  .debug_str:0000000000001d44 .LASF815
C:\Users\stapi\AppData\Local\Temp\ccXQrqsW.s:14334  .debug_str:00000000000013d5 .LASF816
C:\Users\stapi\AppData\Local\Temp\ccXQrqsW.s:13936  .debug_str:0000000000000934 .LASF817
C:\Users\stapi\AppData\Local\Temp\ccXQrqsW.s:15642  .debug_str:0000000000003b17 .LASF818
C:\Users\stapi\AppData\Local\Temp\ccXQrqsW.s:14504  .debug_str:00000000000018ed .LASF819
C:\Users\stapi\AppData\Local\Temp\ccXQrqsW.s:15456  .debug_str:00000000000035b0 .LASF820
C:\Users\stapi\AppData\Local\Temp\ccXQrqsW.s:15448  .debug_str:0000000000003572 .LASF821
C:\Users\stapi\AppData\Local\Temp\ccXQrqsW.s:14998  .debug_str:0000000000002909 .LASF822
C:\Users\stapi\AppData\Local\Temp\ccXQrqsW.s:14588  .debug_str:0000000000001ba7 .LASF823
C:\Users\stapi\AppData\Local\Temp\ccXQrqsW.s:15264  .debug_str:0000000000002ff3 .LASF824
C:\Users\stapi\AppData\Local\Temp\ccXQrqsW.s:15484  .debug_str:0000000000003677 .LASF825
C:\Users\stapi\AppData\Local\Temp\ccXQrqsW.s:14108  .debug_str:0000000000000dca .LASF826
C:\Users\stapi\AppData\Local\Temp\ccXQrqsW.s:14020  .debug_str:0000000000000b5f .LASF827
C:\Users\stapi\AppData\Local\Temp\ccXQrqsW.s:15426  .debug_str:00000000000034d6 .LASF828
C:\Users\stapi\AppData\Local\Temp\ccXQrqsW.s:14700  .debug_str:0000000000001ea8 .LASF829
C:\Users\stapi\AppData\Local\Temp\ccXQrqsW.s:14528  .debug_str:00000000000019cc .LASF830
C:\Users\stapi\AppData\Local\Temp\ccXQrqsW.s:14078  .debug_str:0000000000000ce5 .LASF831
C:\Users\stapi\AppData\Local\Temp\ccXQrqsW.s:13818  .debug_str:00000000000005d5 .LASF832
C:\Users\stapi\AppData\Local\Temp\ccXQrqsW.s:14522  .debug_str:000000000000197d .LASF833
C:\Users\stapi\AppData\Local\Temp\ccXQrqsW.s:14182  .debug_str:0000000000000fa5 .LASF834
C:\Users\stapi\AppData\Local\Temp\ccXQrqsW.s:15422  .debug_str:00000000000034b8 .LASF835
C:\Users\stapi\AppData\Local\Temp\ccXQrqsW.s:15064  .debug_str:0000000000002ad6 .LASF836
C:\Users\stapi\AppData\Local\Temp\ccXQrqsW.s:14238  .debug_str:000000000000114d .LASF837
C:\Users\stapi\AppData\Local\Temp\ccXQrqsW.s:14256  .debug_str:00000000000011db .LASF838
C:\Users\stapi\AppData\Local\Temp\ccXQrqsW.s:14560  .debug_str:0000000000001ac9 .LASF839
C:\Users\stapi\AppData\Local\Temp\ccXQrqsW.s:13996  .debug_str:0000000000000a9b .LASF840
C:\Users\stapi\AppData\Local\Temp\ccXQrqsW.s:14270  .debug_str:0000000000001237 .LASF841
C:\Users\stapi\AppData\Local\Temp\ccXQrqsW.s:14656  .debug_str:0000000000001d92 .LASF842
C:\Users\stapi\AppData\Local\Temp\ccXQrqsW.s:14146  .debug_str:0000000000000ec1 .LASF843
C:\Users\stapi\AppData\Local\Temp\ccXQrqsW.s:15088  .debug_str:0000000000002b64 .LASF844
C:\Users\stapi\AppData\Local\Temp\ccXQrqsW.s:15482  .debug_str:0000000000003663 .LASF845
C:\Users\stapi\AppData\Local\Temp\ccXQrqsW.s:14308  .debug_str:000000000000132f .LASF846
C:\Users\stapi\AppData\Local\Temp\ccXQrqsW.s:14794  .debug_str:000000000000212a .LASF847
C:\Users\stapi\AppData\Local\Temp\ccXQrqsW.s:14626  .debug_str:0000000000001cb0 .LASF848
C:\Users\stapi\AppData\Local\Temp\ccXQrqsW.s:13650  .debug_str:0000000000000107 .LASF849
C:\Users\stapi\AppData\Local\Temp\ccXQrqsW.s:15420  .debug_str:00000000000034a4 .LASF850
C:\Users\stapi\AppData\Local\Temp\ccXQrqsW.s:13720  .debug_str:000000000000030d .LASF851
C:\Users\stapi\AppData\Local\Temp\ccXQrqsW.s:15630  .debug_str:0000000000003ac2 .LASF852
C:\Users\stapi\AppData\Local\Temp\ccXQrqsW.s:13980  .debug_str:0000000000000a45 .LASF853
C:\Users\stapi\AppData\Local\Temp\ccXQrqsW.s:14618  .debug_str:0000000000001c6f .LASF854
C:\Users\stapi\AppData\Local\Temp\ccXQrqsW.s:15672  .debug_str:0000000000003bfd .LASF855
C:\Users\stapi\AppData\Local\Temp\ccXQrqsW.s:15138  .debug_str:0000000000002cb8 .LASF856
C:\Users\stapi\AppData\Local\Temp\ccXQrqsW.s:14262  .debug_str:0000000000001200 .LASF857
C:\Users\stapi\AppData\Local\Temp\ccXQrqsW.s:15150  .debug_str:0000000000002d1d .LASF858
C:\Users\stapi\AppData\Local\Temp\ccXQrqsW.s:15722  .debug_str:0000000000003ddc .LASF859
C:\Users\stapi\AppData\Local\Temp\ccXQrqsW.s:15348  .debug_str:0000000000003263 .LASF860
C:\Users\stapi\AppData\Local\Temp\ccXQrqsW.s:14802  .debug_str:000000000000215d .LASF861
C:\Users\stapi\AppData\Local\Temp\ccXQrqsW.s:13954  .debug_str:00000000000009b9 .LASF862
C:\Users\stapi\AppData\Local\Temp\ccXQrqsW.s:14152  .debug_str:0000000000000ef1 .LASF863
C:\Users\stapi\AppData\Local\Temp\ccXQrqsW.s:14662  .debug_str:0000000000001db6 .LASF864
C:\Users\stapi\AppData\Local\Temp\ccXQrqsW.s:15186  .debug_str:0000000000002e0e .LASF865
C:\Users\stapi\AppData\Local\Temp\ccXQrqsW.s:15648  .debug_str:0000000000003b38 .LASF866
C:\Users\stapi\AppData\Local\Temp\ccXQrqsW.s:13904  .debug_str:000000000000084e .LASF867
C:\Users\stapi\AppData\Local\Temp\ccXQrqsW.s:14724  .debug_str:0000000000001f44 .LASF868
C:\Users\stapi\AppData\Local\Temp\ccXQrqsW.s:15530  .debug_str:00000000000037b7 .LASF869
C:\Users\stapi\AppData\Local\Temp\ccXQrqsW.s:14728  .debug_str:0000000000001f63 .LASF870
C:\Users\stapi\AppData\Local\Temp\ccXQrqsW.s:15350  .debug_str:000000000000326e .LASF871
C:\Users\stapi\AppData\Local\Temp\ccXQrqsW.s:15646  .debug_str:0000000000003b2b .LASF872
C:\Users\stapi\AppData\Local\Temp\ccXQrqsW.s:15020  .debug_str:00000000000029a3 .LASF873
C:\Users\stapi\AppData\Local\Temp\ccXQrqsW.s:13708  .debug_str:00000000000002b6 .LASF874
C:\Users\stapi\AppData\Local\Temp\ccXQrqsW.s:15750  .debug_str:0000000000003eb5 .LASF875
C:\Users\stapi\AppData\Local\Temp\ccXQrqsW.s:13700  .debug_str:000000000000026e .LASF876
C:\Users\stapi\AppData\Local\Temp\ccXQrqsW.s:15354  .debug_str:0000000000003290 .LASF877
C:\Users\stapi\AppData\Local\Temp\ccXQrqsW.s:14912  .debug_str:00000000000025d9 .LASF878
C:\Users\stapi\AppData\Local\Temp\ccXQrqsW.s:14726  .debug_str:0000000000001f51 .LASF879
C:\Users\stapi\AppData\Local\Temp\ccXQrqsW.s:13734  .debug_str:0000000000000368 .LASF880
C:\Users\stapi\AppData\Local\Temp\ccXQrqsW.s:13976  .debug_str:0000000000000a31 .LASF881
C:\Users\stapi\AppData\Local\Temp\ccXQrqsW.s:14650  .debug_str:0000000000001d61 .LASF882
C:\Users\stapi\AppData\Local\Temp\ccXQrqsW.s:15366  .debug_str:0000000000003305 .LASF883
C:\Users\stapi\AppData\Local\Temp\ccXQrqsW.s:14452  .debug_str:000000000000172d .LASF884
C:\Users\stapi\AppData\Local\Temp\ccXQrqsW.s:15000  .debug_str:000000000000291c .LASF885
C:\Users\stapi\AppData\Local\Temp\ccXQrqsW.s:13812  .debug_str:0000000000000598 .LASF886
C:\Users\stapi\AppData\Local\Temp\ccXQrqsW.s:15580  .debug_str:0000000000003917 .LASF887
C:\Users\stapi\AppData\Local\Temp\ccXQrqsW.s:15338  .debug_str:000000000000321d .LASF888
C:\Users\stapi\AppData\Local\Temp\ccXQrqsW.s:14830  .debug_str:000000000000223d .LASF889
C:\Users\stapi\AppData\Local\Temp\ccXQrqsW.s:14276  .debug_str:0000000000001259 .LASF890
C:\Users\stapi\AppData\Local\Temp\ccXQrqsW.s:14622  .debug_str:0000000000001c91 .LASF891
C:\Users\stapi\AppData\Local\Temp\ccXQrqsW.s:14774  .debug_str:00000000000020af .LASF892
C:\Users\stapi\AppData\Local\Temp\ccXQrqsW.s:14368  .debug_str:00000000000014aa .LASF893
C:\Users\stapi\AppData\Local\Temp\ccXQrqsW.s:13742  .debug_str:000000000000039e .LASF894
C:\Users\stapi\AppData\Local\Temp\ccXQrqsW.s:15800  .debug_str:0000000000004046 .LASF895
C:\Users\stapi\AppData\Local\Temp\ccXQrqsW.s:14730  .debug_str:0000000000001f77 .LASF896
C:\Users\stapi\AppData\Local\Temp\ccXQrqsW.s:15758  .debug_str:0000000000003ee7 .LASF897
C:\Users\stapi\AppData\Local\Temp\ccXQrqsW.s:15026  .debug_str:00000000000029e0 .LASF898
C:\Users\stapi\AppData\Local\Temp\ccXQrqsW.s:13646  .debug_str:00000000000000e2 .LASF899
C:\Users\stapi\AppData\Local\Temp\ccXQrqsW.s:14620  .debug_str:0000000000001c87 .LASF900
C:\Users\stapi\AppData\Local\Temp\ccXQrqsW.s:14470  .debug_str:00000000000017e0 .LASF901
C:\Users\stapi\AppData\Local\Temp\ccXQrqsW.s:14982  .debug_str:000000000000288d .LASF902
C:\Users\stapi\AppData\Local\Temp\ccXQrqsW.s:14642  .debug_str:0000000000001d21 .LASF903
C:\Users\stapi\AppData\Local\Temp\ccXQrqsW.s:13938  .debug_str:000000000000093e .LASF904
C:\Users\stapi\AppData\Local\Temp\ccXQrqsW.s:14564  .debug_str:0000000000001aed .LASF905
C:\Users\stapi\AppData\Local\Temp\ccXQrqsW.s:15224  .debug_str:0000000000002ef0 .LASF906
C:\Users\stapi\AppData\Local\Temp\ccXQrqsW.s:15650  .debug_str:0000000000003b41 .LASF907
C:\Users\stapi\AppData\Local\Temp\ccXQrqsW.s:14824  .debug_str:000000000000220a .LASF908
C:\Users\stapi\AppData\Local\Temp\ccXQrqsW.s:15494  .debug_str:00000000000036cb .LASF909
C:\Users\stapi\AppData\Local\Temp\ccXQrqsW.s:15704  .debug_str:0000000000003ce4 .LASF910
C:\Users\stapi\AppData\Local\Temp\ccXQrqsW.s:13682  .debug_str:00000000000001ff .LASF911
C:\Users\stapi\AppData\Local\Temp\ccXQrqsW.s:15744  .debug_str:0000000000003e8b .LASF912
C:\Users\stapi\AppData\Local\Temp\ccXQrqsW.s:13852  .debug_str:00000000000006ac .LASF913
C:\Users\stapi\AppData\Local\Temp\ccXQrqsW.s:14350  .debug_str:000000000000143f .LASF914
C:\Users\stapi\AppData\Local\Temp\ccXQrqsW.s:13712  .debug_str:00000000000002cf .LASF915
C:\Users\stapi\AppData\Local\Temp\ccXQrqsW.s:15242  .debug_str:0000000000002f5d .LASF916
C:\Users\stapi\AppData\Local\Temp\ccXQrqsW.s:15028  .debug_str:00000000000029ee .LASF917
C:\Users\stapi\AppData\Local\Temp\ccXQrqsW.s:14202  .debug_str:0000000000001045 .LASF918
C:\Users\stapi\AppData\Local\Temp\ccXQrqsW.s:14742  .debug_str:0000000000001fc7 .LASF919
C:\Users\stapi\AppData\Local\Temp\ccXQrqsW.s:15822  .debug_str:00000000000040dd .LASF920
C:\Users\stapi\AppData\Local\Temp\ccXQrqsW.s:15408  .debug_str:000000000000343b .LASF921
C:\Users\stapi\AppData\Local\Temp\ccXQrqsW.s:15288  .debug_str:00000000000030ba .LASF922
C:\Users\stapi\AppData\Local\Temp\ccXQrqsW.s:14624  .debug_str:0000000000001c97 .LASF923
C:\Users\stapi\AppData\Local\Temp\ccXQrqsW.s:14890  .debug_str:0000000000002522 .LASF924
C:\Users\stapi\AppData\Local\Temp\ccXQrqsW.s:13790  .debug_str:00000000000004f4 .LASF925
C:\Users\stapi\AppData\Local\Temp\ccXQrqsW.s:14264  .debug_str:0000000000001216 .LASF926
C:\Users\stapi\AppData\Local\Temp\ccXQrqsW.s:14760  .debug_str:000000000000203a .LASF927
C:\Users\stapi\AppData\Local\Temp\ccXQrqsW.s:14156  .debug_str:0000000000000f11 .LASF928
C:\Users\stapi\AppData\Local\Temp\ccXQrqsW.s:13856  .debug_str:00000000000006dc .LASF929
C:\Users\stapi\AppData\Local\Temp\ccXQrqsW.s:14190  .debug_str:0000000000000fe7 .LASF930
C:\Users\stapi\AppData\Local\Temp\ccXQrqsW.s:14000  .debug_str:0000000000000ab9 .LASF931
C:\Users\stapi\AppData\Local\Temp\ccXQrqsW.s:13918  .debug_str:00000000000008a5 .LASF932
C:\Users\stapi\AppData\Local\Temp\ccXQrqsW.s:15268  .debug_str:000000000000301b .LASF933
C:\Users\stapi\AppData\Local\Temp\ccXQrqsW.s:14606  .debug_str:0000000000001c1e .LASF934
C:\Users\stapi\AppData\Local\Temp\ccXQrqsW.s:15044  .debug_str:0000000000002a4f .LASF935
C:\Users\stapi\AppData\Local\Temp\ccXQrqsW.s:14602  .debug_str:0000000000001c03 .LASF936
C:\Users\stapi\AppData\Local\Temp\ccXQrqsW.s:14536  .debug_str:0000000000001a17 .LASF937
C:\Users\stapi\AppData\Local\Temp\ccXQrqsW.s:15130  .debug_str:0000000000002c7a .LASF938
C:\Users\stapi\AppData\Local\Temp\ccXQrqsW.s:14056  .debug_str:0000000000000c6b .LASF939
C:\Users\stapi\AppData\Local\Temp\ccXQrqsW.s:15852  .debug_str:00000000000041c7 .LASF940
C:\Users\stapi\AppData\Local\Temp\ccXQrqsW.s:14370  .debug_str:00000000000014b1 .LASF941
C:\Users\stapi\AppData\Local\Temp\ccXQrqsW.s:15232  .debug_str:0000000000002f1d .LASF942
C:\Users\stapi\AppData\Local\Temp\ccXQrqsW.s:13836  .debug_str:0000000000000648 .LASF943
C:\Users\stapi\AppData\Local\Temp\ccXQrqsW.s:15034  .debug_str:0000000000002a1e .LASF944
C:\Users\stapi\AppData\Local\Temp\ccXQrqsW.s:15522  .debug_str:0000000000003781 .LASF945
C:\Users\stapi\AppData\Local\Temp\ccXQrqsW.s:15214  .debug_str:0000000000002eb4 .LASF946
C:\Users\stapi\AppData\Local\Temp\ccXQrqsW.s:15274  .debug_str:0000000000003051 .LASF947
C:\Users\stapi\AppData\Local\Temp\ccXQrqsW.s:15812  .debug_str:0000000000004092 .LASF948
C:\Users\stapi\AppData\Local\Temp\ccXQrqsW.s:14966  .debug_str:0000000000002809 .LASF949
C:\Users\stapi\AppData\Local\Temp\ccXQrqsW.s:14530  .debug_str:00000000000019e6 .LASF950
C:\Users\stapi\AppData\Local\Temp\ccXQrqsW.s:13620  .debug_str:0000000000000023 .LASF951
C:\Users\stapi\AppData\Local\Temp\ccXQrqsW.s:15330  .debug_str:00000000000031ed .LASF952
C:\Users\stapi\AppData\Local\Temp\ccXQrqsW.s:15376  .debug_str:0000000000003355 .LASF953
C:\Users\stapi\AppData\Local\Temp\ccXQrqsW.s:14786  .debug_str:00000000000020eb .LASF954
C:\Users\stapi\AppData\Local\Temp\ccXQrqsW.s:14770  .debug_str:0000000000002083 .LASF955
C:\Users\stapi\AppData\Local\Temp\ccXQrqsW.s:15410  .debug_str:000000000000344e .LASF956
C:\Users\stapi\AppData\Local\Temp\ccXQrqsW.s:14600  .debug_str:0000000000001bf5 .LASF957
C:\Users\stapi\AppData\Local\Temp\ccXQrqsW.s:15778  .debug_str:0000000000003f8b .LASF958
C:\Users\stapi\AppData\Local\Temp\ccXQrqsW.s:14446  .debug_str:00000000000016ff .LASF959
C:\Users\stapi\AppData\Local\Temp\ccXQrqsW.s:14480  .debug_str:0000000000001837 .LASF960
C:\Users\stapi\AppData\Local\Temp\ccXQrqsW.s:14022  .debug_str:0000000000000b6b .LASF961
C:\Users\stapi\AppData\Local\Temp\ccXQrqsW.s:14758  .debug_str:0000000000002030 .LASF962
C:\Users\stapi\AppData\Local\Temp\ccXQrqsW.s:14616  .debug_str:0000000000001c5f .LASF963
C:\Users\stapi\AppData\Local\Temp\ccXQrqsW.s:13854  .debug_str:00000000000006c2 .LASF964
C:\Users\stapi\AppData\Local\Temp\ccXQrqsW.s:13924  .debug_str:00000000000008c9 .LASF965
C:\Users\stapi\AppData\Local\Temp\ccXQrqsW.s:15598  .debug_str:00000000000039a0 .LASF966
C:\Users\stapi\AppData\Local\Temp\ccXQrqsW.s:13626  .debug_str:0000000000000045 .LASF967
C:\Users\stapi\AppData\Local\Temp\ccXQrqsW.s:14578  .debug_str:0000000000001b5a .LASF968
C:\Users\stapi\AppData\Local\Temp\ccXQrqsW.s:15764  .debug_str:0000000000003f02 .LASF969
C:\Users\stapi\AppData\Local\Temp\ccXQrqsW.s:15054  .debug_str:0000000000002a92 .LASF970
C:\Users\stapi\AppData\Local\Temp\ccXQrqsW.s:14636  .debug_str:0000000000001cf2 .LASF971
C:\Users\stapi\AppData\Local\Temp\ccXQrqsW.s:15858  .debug_str:00000000000041eb .LASF972
C:\Users\stapi\AppData\Local\Temp\ccXQrqsW.s:13810  .debug_str:0000000000000589 .LASF973
C:\Users\stapi\AppData\Local\Temp\ccXQrqsW.s:13698  .debug_str:0000000000000260 .LASF974
C:\Users\stapi\AppData\Local\Temp\ccXQrqsW.s:13776  .debug_str:0000000000000482 .LASF975
C:\Users\stapi\AppData\Local\Temp\ccXQrqsW.s:14252  .debug_str:00000000000011be .LASF976
C:\Users\stapi\AppData\Local\Temp\ccXQrqsW.s:13862  .debug_str:0000000000000706 .LASF977
C:\Users\stapi\AppData\Local\Temp\ccXQrqsW.s:15670  .debug_str:0000000000003bf5 .LASF978
C:\Users\stapi\AppData\Local\Temp\ccXQrqsW.s:14540  .debug_str:0000000000001a34 .LASF979
C:\Users\stapi\AppData\Local\Temp\ccXQrqsW.s:13992  .debug_str:0000000000000a86 .LASF980
C:\Users\stapi\AppData\Local\Temp\ccXQrqsW.s:14292  .debug_str:00000000000012b6 .LASF981
C:\Users\stapi\AppData\Local\Temp\ccXQrqsW.s:14942  .debug_str:000000000000274d .LASF982
C:\Users\stapi\AppData\Local\Temp\ccXQrqsW.s:15546  .debug_str:000000000000382d .LASF983
C:\Users\stapi\AppData\Local\Temp\ccXQrqsW.s:15856  .debug_str:00000000000041db .LASF984
C:\Users\stapi\AppData\Local\Temp\ccXQrqsW.s:14456  .debug_str:000000000000175f .LASF985
C:\Users\stapi\AppData\Local\Temp\ccXQrqsW.s:15040  .debug_str:0000000000002a39 .LASF986
C:\Users\stapi\AppData\Local\Temp\ccXQrqsW.s:14812  .debug_str:00000000000021a4 .LASF987
C:\Users\stapi\AppData\Local\Temp\ccXQrqsW.s:15400  .debug_str:0000000000003401 .LASF988
C:\Users\stapi\AppData\Local\Temp\ccXQrqsW.s:14690  .debug_str:0000000000001e64 .LASF989
C:\Users\stapi\AppData\Local\Temp\ccXQrqsW.s:13878  .debug_str:000000000000077e .LASF990
C:\Users\stapi\AppData\Local\Temp\ccXQrqsW.s:13658  .debug_str:0000000000000146 .LASF991
C:\Users\stapi\AppData\Local\Temp\ccXQrqsW.s:14316  .debug_str:0000000000001363 .LASF992
C:\Users\stapi\AppData\Local\Temp\ccXQrqsW.s:14612  .debug_str:0000000000001c3b .LASF993
C:\Users\stapi\AppData\Local\Temp\ccXQrqsW.s:14192  .debug_str:0000000000000ff8 .LASF994
C:\Users\stapi\AppData\Local\Temp\ccXQrqsW.s:14420  .debug_str:0000000000001649 .LASF995
C:\Users\stapi\AppData\Local\Temp\ccXQrqsW.s:14112  .debug_str:0000000000000ddf .LASF996
C:\Users\stapi\AppData\Local\Temp\ccXQrqsW.s:15498  .debug_str:00000000000036e3 .LASF997
C:\Users\stapi\AppData\Local\Temp\ccXQrqsW.s:15660  .debug_str:0000000000003b9a .LASF998
C:\Users\stapi\AppData\Local\Temp\ccXQrqsW.s:15774  .debug_str:0000000000003f5a .LASF999
C:\Users\stapi\AppData\Local\Temp\ccXQrqsW.s:13710  .debug_str:00000000000002c6 .LASF1000
C:\Users\stapi\AppData\Local\Temp\ccXQrqsW.s:14550  .debug_str:0000000000001a75 .LASF1001
C:\Users\stapi\AppData\Local\Temp\ccXQrqsW.s:13660  .debug_str:000000000000015f .LASF1002
C:\Users\stapi\AppData\Local\Temp\ccXQrqsW.s:15798  .debug_str:0000000000004038 .LASF1003
C:\Users\stapi\AppData\Local\Temp\ccXQrqsW.s:15382  .debug_str:000000000000337b .LASF1004
C:\Users\stapi\AppData\Local\Temp\ccXQrqsW.s:13644  .debug_str:00000000000000cc .LASF1005
C:\Users\stapi\AppData\Local\Temp\ccXQrqsW.s:15136  .debug_str:0000000000002ca9 .LASF1006
C:\Users\stapi\AppData\Local\Temp\ccXQrqsW.s:15432  .debug_str:0000000000003505 .LASF1007
C:\Users\stapi\AppData\Local\Temp\ccXQrqsW.s:14380  .debug_str:0000000000001506 .LASF1008
C:\Users\stapi\AppData\Local\Temp\ccXQrqsW.s:14050  .debug_str:0000000000000c3c .LASF1009
C:\Users\stapi\AppData\Local\Temp\ccXQrqsW.s:14098  .debug_str:0000000000000d7d .LASF1010
C:\Users\stapi\AppData\Local\Temp\ccXQrqsW.s:14976  .debug_str:0000000000002867 .LASF1011
C:\Users\stapi\AppData\Local\Temp\ccXQrqsW.s:15808  .debug_str:0000000000004080 .LASF1012
C:\Users\stapi\AppData\Local\Temp\ccXQrqsW.s:15206  .debug_str:0000000000002e8e .LASF1013
C:\Users\stapi\AppData\Local\Temp\ccXQrqsW.s:15070  .debug_str:0000000000002afb .LASF1014
C:\Users\stapi\AppData\Local\Temp\ccXQrqsW.s:13738  .debug_str:0000000000000383 .LASF1015
C:\Users\stapi\AppData\Local\Temp\ccXQrqsW.s:15352  .debug_str:000000000000327f .LASF1016
C:\Users\stapi\AppData\Local\Temp\ccXQrqsW.s:14092  .debug_str:0000000000000d44 .LASF1017
C:\Users\stapi\AppData\Local\Temp\ccXQrqsW.s:14566  .debug_str:0000000000001af9 .LASF1018
C:\Users\stapi\AppData\Local\Temp\ccXQrqsW.s:15152  .debug_str:0000000000002d2f .LASF1019
C:\Users\stapi\AppData\Local\Temp\ccXQrqsW.s:13974  .debug_str:0000000000000a28 .LASF1020
C:\Users\stapi\AppData\Local\Temp\ccXQrqsW.s:15724  .debug_str:0000000000003dee .LASF1021
C:\Users\stapi\AppData\Local\Temp\ccXQrqsW.s:14024  .debug_str:0000000000000b79 .LASF1022
C:\Users\stapi\AppData\Local\Temp\ccXQrqsW.s:13792  .debug_str:000000000000050c .LASF1023
C:\Users\stapi\AppData\Local\Temp\ccXQrqsW.s:13966  .debug_str:0000000000000a00 .LASF1024
C:\Users\stapi\AppData\Local\Temp\ccXQrqsW.s:14102  .debug_str:0000000000000d9e .LASF1025
C:\Users\stapi\AppData\Local\Temp\ccXQrqsW.s:15824  .debug_str:00000000000040ea .LASF1026
C:\Users\stapi\AppData\Local\Temp\ccXQrqsW.s:13770  .debug_str:0000000000000467 .LASF1027
C:\Users\stapi\AppData\Local\Temp\ccXQrqsW.s:15820  .debug_str:00000000000040cb .LASF1028
C:\Users\stapi\AppData\Local\Temp\ccXQrqsW.s:15172  .debug_str:0000000000002da2 .LASF1029
C:\Users\stapi\AppData\Local\Temp\ccXQrqsW.s:15796  .debug_str:0000000000004026 .LASF1030
C:\Users\stapi\AppData\Local\Temp\ccXQrqsW.s:15814  .debug_str:00000000000040a6 .LASF1031
C:\Users\stapi\AppData\Local\Temp\ccXQrqsW.s:13638  .debug_str:0000000000000099 .LASF1032
C:\Users\stapi\AppData\Local\Temp\ccXQrqsW.s:15826  .debug_str:00000000000040f9 .LASF1033
C:\Users\stapi\AppData\Local\Temp\ccXQrqsW.s:15318  .debug_str:0000000000003189 .LASF1034
C:\Users\stapi\AppData\Local\Temp\ccXQrqsW.s:13892  .debug_str:00000000000007f5 .LASF1035
C:\Users\stapi\AppData\Local\Temp\ccXQrqsW.s:15668  .debug_str:0000000000003be3 .LASF1036
C:\Users\stapi\AppData\Local\Temp\ccXQrqsW.s:15324  .debug_str:00000000000031b6 .LASF1037
C:\Users\stapi\AppData\Local\Temp\ccXQrqsW.s:14384  .debug_str:0000000000001521 .LASF1038
C:\Users\stapi\AppData\Local\Temp\ccXQrqsW.s:15344  .debug_str:000000000000323d .LASF1039
C:\Users\stapi\AppData\Local\Temp\ccXQrqsW.s:14670  .debug_str:0000000000001dd6 .LASF1040
C:\Users\stapi\AppData\Local\Temp\ccXQrqsW.s:15782  .debug_str:0000000000003faa .LASF1041
C:\Users\stapi\AppData\Local\Temp\ccXQrqsW.s:14832  .debug_str:000000000000224c .LASF1042
C:\Users\stapi\AppData\Local\Temp\ccXQrqsW.s:15846  .debug_str:0000000000004192 .LASF1043
C:\Users\stapi\AppData\Local\Temp\ccXQrqsW.s:14430  .debug_str:00000000000016a5 .LASF1044
C:\Users\stapi\AppData\Local\Temp\ccXQrqsW.s:15732  .debug_str:0000000000003e39 .LASF1045
C:\Users\stapi\AppData\Local\Temp\ccXQrqsW.s:14248  .debug_str:00000000000011a4 .LASF1046
C:\Users\stapi\AppData\Local\Temp\ccXQrqsW.s:15508  .debug_str:0000000000003733 .LASF1047
C:\Users\stapi\AppData\Local\Temp\ccXQrqsW.s:15298  .debug_str:0000000000003102 .LASF1048
C:\Users\stapi\AppData\Local\Temp\ccXQrqsW.s:14894  .debug_str:0000000000002543 .LASF1049
C:\Users\stapi\AppData\Local\Temp\ccXQrqsW.s:15312  .debug_str:0000000000003164 .LASF1050
C:\Users\stapi\AppData\Local\Temp\ccXQrqsW.s:15148  .debug_str:0000000000002d0b .LASF1051
C:\Users\stapi\AppData\Local\Temp\ccXQrqsW.s:14638  .debug_str:0000000000001d03 .LASF1052
C:\Users\stapi\AppData\Local\Temp\ccXQrqsW.s:15090  .debug_str:0000000000002b74 .LASF1053
C:\Users\stapi\AppData\Local\Temp\ccXQrqsW.s:13740  .debug_str:000000000000038c .LASF1054
C:\Users\stapi\AppData\Local\Temp\ccXQrqsW.s:14546  .debug_str:0000000000001a58 .LASF1055
C:\Users\stapi\AppData\Local\Temp\ccXQrqsW.s:14900  .debug_str:0000000000002565 .LASF1056
C:\Users\stapi\AppData\Local\Temp\ccXQrqsW.s:13672  .debug_str:00000000000001c0 .LASF1057
C:\Users\stapi\AppData\Local\Temp\ccXQrqsW.s:14426  .debug_str:000000000000167a .LASF1058
C:\Users\stapi\AppData\Local\Temp\ccXQrqsW.s:15738  .debug_str:0000000000003e6f .LASF1059
C:\Users\stapi\AppData\Local\Temp\ccXQrqsW.s:14450  .debug_str:0000000000001723 .LASF1060
C:\Users\stapi\AppData\Local\Temp\ccXQrqsW.s:13752  .debug_str:00000000000003dc .LASF1061
C:\Users\stapi\AppData\Local\Temp\ccXQrqsW.s:14678  .debug_str:0000000000001e11 .LASF1062
C:\Users\stapi\AppData\Local\Temp\ccXQrqsW.s:14720  .debug_str:0000000000001f37 .LASF1063
C:\Users\stapi\AppData\Local\Temp\ccXQrqsW.s:14474  .debug_str:0000000000001802 .LASF1064
C:\Users\stapi\AppData\Local\Temp\ccXQrqsW.s:14778  .debug_str:00000000000020c8 .LASF1065
C:\Users\stapi\AppData\Local\Temp\ccXQrqsW.s:14222  .debug_str:00000000000010d8 .LASF1066
C:\Users\stapi\AppData\Local\Temp\ccXQrqsW.s:14868  .debug_str:000000000000245b .LASF1067
C:\Users\stapi\AppData\Local\Temp\ccXQrqsW.s:15238  .debug_str:0000000000002f49 .LASF1068
C:\Users\stapi\AppData\Local\Temp\ccXQrqsW.s:14598  .debug_str:0000000000001bef .LASF1069
C:\Users\stapi\AppData\Local\Temp\ccXQrqsW.s:14888  .debug_str:000000000000251a .LASF1070
C:\Users\stapi\AppData\Local\Temp\ccXQrqsW.s:14994  .debug_str:00000000000028e6 .LASF1071
C:\Users\stapi\AppData\Local\Temp\ccXQrqsW.s:15436  .debug_str:0000000000003522 .LASF1072
C:\Users\stapi\AppData\Local\Temp\ccXQrqsW.s:15076  .debug_str:0000000000002b1c .LASF1073
C:\Users\stapi\AppData\Local\Temp\ccXQrqsW.s:15682  .debug_str:0000000000003c3d .LASF1074
C:\Users\stapi\AppData\Local\Temp\ccXQrqsW.s:13758  .debug_str:0000000000000404 .LASF1075
C:\Users\stapi\AppData\Local\Temp\ccXQrqsW.s:14792  .debug_str:000000000000211b .LASF1076
C:\Users\stapi\AppData\Local\Temp\ccXQrqsW.s:14476  .debug_str:0000000000001811 .LASF1077
C:\Users\stapi\AppData\Local\Temp\ccXQrqsW.s:15290  .debug_str:00000000000030cd .LASF1078
C:\Users\stapi\AppData\Local\Temp\ccXQrqsW.s:15748  .debug_str:0000000000003ea6 .LASF1079
C:\Users\stapi\AppData\Local\Temp\ccXQrqsW.s:15480  .debug_str:000000000000364c .LASF1080
C:\Users\stapi\AppData\Local\Temp\ccXQrqsW.s:14640  .debug_str:0000000000001d17 .LASF1081
C:\Users\stapi\AppData\Local\Temp\ccXQrqsW.s:13988  .debug_str:0000000000000a6d .LASF1082
C:\Users\stapi\AppData\Local\Temp\ccXQrqsW.s:15606  .debug_str:00000000000039ea .LASF1083
C:\Users\stapi\AppData\Local\Temp\ccXQrqsW.s:14784  .debug_str:00000000000020e3 .LASF1084
C:\Users\stapi\AppData\Local\Temp\ccXQrqsW.s:13694  .debug_str:000000000000024a .LASF1085
C:\Users\stapi\AppData\Local\Temp\ccXQrqsW.s:14688  .debug_str:0000000000001e56 .LASF1086
C:\Users\stapi\AppData\Local\Temp\ccXQrqsW.s:15128  .debug_str:0000000000002c68 .LASF1087
C:\Users\stapi\AppData\Local\Temp\ccXQrqsW.s:15414  .debug_str:0000000000003461 .LASF1088
C:\Users\stapi\AppData\Local\Temp\ccXQrqsW.s:15228  .debug_str:0000000000002f0c .LASF1089
C:\Users\stapi\AppData\Local\Temp\ccXQrqsW.s:14326  .debug_str:00000000000013a9 .LASF1090
C:\Users\stapi\AppData\Local\Temp\ccXQrqsW.s:15708  .debug_str:0000000000003cf7 .LASF1091
C:\Users\stapi\AppData\Local\Temp\ccXQrqsW.s:15784  .debug_str:0000000000003fbe .LASF1092
C:\Users\stapi\AppData\Local\Temp\ccXQrqsW.s:15388  .debug_str:00000000000033ac .LASF1093
C:\Users\stapi\AppData\Local\Temp\ccXQrqsW.s:15698  .debug_str:0000000000003cb6 .LASF1094
C:\Users\stapi\AppData\Local\Temp\ccXQrqsW.s:14986  .debug_str:00000000000028b1 .LASF1095
C:\Users\stapi\AppData\Local\Temp\ccXQrqsW.s:15046  .debug_str:0000000000002a5b .LASF1096
C:\Users\stapi\AppData\Local\Temp\ccXQrqsW.s:14782  .debug_str:00000000000020d8 .LASF1097
C:\Users\stapi\AppData\Local\Temp\ccXQrqsW.s:14436  .debug_str:00000000000016c2 .LASF1098
C:\Users\stapi\AppData\Local\Temp\ccXQrqsW.s:13656  .debug_str:000000000000013a .LASF1099
C:\Users\stapi\AppData\Local\Temp\ccXQrqsW.s:15488  .debug_str:000000000000368f .LASF1100
C:\Users\stapi\AppData\Local\Temp\ccXQrqsW.s:14696  .debug_str:0000000000001e8c .LASF1101
C:\Users\stapi\AppData\Local\Temp\ccXQrqsW.s:15390  .debug_str:00000000000033b5 .LASF1102
C:\Users\stapi\AppData\Local\Temp\ccXQrqsW.s:15176  .debug_str:0000000000002dbd .LASF1103
C:\Users\stapi\AppData\Local\Temp\ccXQrqsW.s:14408  .debug_str:00000000000015dc .LASF1104
C:\Users\stapi\AppData\Local\Temp\ccXQrqsW.s:13950  .debug_str:0000000000000994 .LASF1105
C:\Users\stapi\AppData\Local\Temp\ccXQrqsW.s:15804  .debug_str:0000000000004054 .LASF1120
C:\Users\stapi\AppData\Local\Temp\ccXQrqsW.s:13978  .debug_str:0000000000000a3b .LASF1106
C:\Users\stapi\AppData\Local\Temp\ccXQrqsW.s:13952  .debug_str:00000000000009a2 .LASF1121
C:\Users\stapi\AppData\Local\Temp\ccXQrqsW.s:194    .text.wpa_bssid_ignore_clear:0000000000000000 .LFB140
C:\Users\stapi\AppData\Local\Temp\ccXQrqsW.s:256    .text.wpa_bssid_ignore_clear:0000000000000056 .LFE140
C:\Users\stapi\AppData\Local\Temp\ccXQrqsW.s:13163  .debug_loc:0000000000000000 .LLST9
C:\Users\stapi\AppData\Local\Temp\ccXQrqsW.s:13177  .debug_loc:0000000000000021 .LLST10
C:\Users\stapi\AppData\Local\Temp\ccXQrqsW.s:13188  .debug_loc:000000000000003f .LLST11
C:\Users\stapi\AppData\Local\Temp\ccXQrqsW.s:246    .text.wpa_bssid_ignore_clear:0000000000000048 .LVL23
C:\Users\stapi\AppData\Local\Temp\ccXQrqsW.s:250    .text.wpa_bssid_ignore_clear:0000000000000052 .LVL24
C:\Users\stapi\AppData\Local\Temp\ccXQrqsW.s:14168  .debug_str:0000000000000f4e .LASF1107
C:\Users\stapi\AppData\Local\Temp\ccXQrqsW.s:711    .text.wpa_bssid_ignore_is_listed:0000000000000000 .LFB139
C:\Users\stapi\AppData\Local\Temp\ccXQrqsW.s:767    .text.wpa_bssid_ignore_is_listed:0000000000000042 .LFE139
C:\Users\stapi\AppData\Local\Temp\ccXQrqsW.s:13195  .debug_loc:0000000000000052 .LLST21
C:\Users\stapi\AppData\Local\Temp\ccXQrqsW.s:13209  .debug_loc:0000000000000073 .LLST22
C:\Users\stapi\AppData\Local\Temp\ccXQrqsW.s:13223  .debug_loc:0000000000000094 .LLST23
C:\Users\stapi\AppData\Local\Temp\ccXQrqsW.s:727    .text.wpa_bssid_ignore_is_listed:0000000000000012 .LVL64
C:\Users\stapi\AppData\Local\Temp\ccXQrqsW.s:752    .text.wpa_bssid_ignore_is_listed:000000000000002c .LVL68
C:\Users\stapi\AppData\Local\Temp\ccXQrqsW.s:759    .text.wpa_bssid_ignore_is_listed:000000000000003c .LVL69
C:\Users\stapi\AppData\Local\Temp\ccXQrqsW.s:14414  .debug_str:0000000000001608 .LASF1108
C:\Users\stapi\AppData\Local\Temp\ccXQrqsW.s:78     .text.wpa_bssid_ignore_del:0000000000000000 .LFB138
C:\Users\stapi\AppData\Local\Temp\ccXQrqsW.s:183    .text.wpa_bssid_ignore_del:0000000000000084 .LFE138
C:\Users\stapi\AppData\Local\Temp\ccXQrqsW.s:13238  .debug_loc:00000000000000bd .LLST5
C:\Users\stapi\AppData\Local\Temp\ccXQrqsW.s:13260  .debug_loc:00000000000000f4 .LLST6
C:\Users\stapi\AppData\Local\Temp\ccXQrqsW.s:13282  .debug_loc:000000000000012b .LLST7
C:\Users\stapi\AppData\Local\Temp\ccXQrqsW.s:13293  .debug_loc:0000000000000149 .LLST8
C:\Users\stapi\AppData\Local\Temp\ccXQrqsW.s:137    .text.wpa_bssid_ignore_del:0000000000000034 .LVL13
C:\Users\stapi\AppData\Local\Temp\ccXQrqsW.s:160    .text.wpa_bssid_ignore_del:000000000000006c .LVL14
C:\Users\stapi\AppData\Local\Temp\ccXQrqsW.s:164    .text.wpa_bssid_ignore_del:0000000000000076 .LVL15
C:\Users\stapi\AppData\Local\Temp\ccXQrqsW.s:15592  .debug_str:0000000000003966 .LASF1109
C:\Users\stapi\AppData\Local\Temp\ccXQrqsW.s:509    .text.wpa_bssid_ignore_add:0000000000000000 .LFB137
C:\Users\stapi\AppData\Local\Temp\ccXQrqsW.s:704    .text.wpa_bssid_ignore_add:0000000000000110 .LFE137
C:\Users\stapi\AppData\Local\Temp\ccXQrqsW.s:13318  .debug_loc:000000000000018a .LLST19
C:\Users\stapi\AppData\Local\Temp\ccXQrqsW.s:13340  .debug_loc:00000000000001c1 .LLST20
C:\Users\stapi\AppData\Local\Temp\ccXQrqsW.s:562    .text.wpa_bssid_ignore_add:000000000000002a .LVL55
C:\Users\stapi\AppData\Local\Temp\ccXQrqsW.s:568    .text.wpa_bssid_ignore_add:0000000000000036 .LVL57
C:\Users\stapi\AppData\Local\Temp\ccXQrqsW.s:609    .text.wpa_bssid_ignore_add:0000000000000082 .LVL58
C:\Users\stapi\AppData\Local\Temp\ccXQrqsW.s:652    .text.wpa_bssid_ignore_add:00000000000000b6 .LVL59
C:\Users\stapi\AppData\Local\Temp\ccXQrqsW.s:663    .text.wpa_bssid_ignore_add:00000000000000c8 .LVL61
C:\Users\stapi\AppData\Local\Temp\ccXQrqsW.s:701    .text.wpa_bssid_ignore_add:000000000000010e .LVL62
C:\Users\stapi\AppData\Local\Temp\ccXQrqsW.s:14032  .debug_str:0000000000000bbe .LASF1110
C:\Users\stapi\AppData\Local\Temp\ccXQrqsW.s:415    .text.wpa_bssid_ignore_get:0000000000000000 .LFB136
C:\Users\stapi\AppData\Local\Temp\ccXQrqsW.s:495    .text.wpa_bssid_ignore_get:0000000000000060 .LFE136
C:\Users\stapi\AppData\Local\Temp\ccXQrqsW.s:13359  .debug_loc:00000000000001f5 .LLST17
C:\Users\stapi\AppData\Local\Temp\ccXQrqsW.s:13388  .debug_loc:000000000000023a .LLST18
C:\Users\stapi\AppData\Local\Temp\ccXQrqsW.s:461    .text.wpa_bssid_ignore_get:0000000000000030 .LVL45
C:\Users\stapi\AppData\Local\Temp\ccXQrqsW.s:471    .text.wpa_bssid_ignore_get:0000000000000044 .LVL46
C:\Users\stapi\AppData\Local\Temp\ccXQrqsW.s:486    .text.wpa_bssid_ignore_get:000000000000005a .LVL48
C:\Users\stapi\AppData\Local\Temp\ccXQrqsW.s:15568  .debug_str:00000000000038bf .LASF1122
C:\Users\stapi\AppData\Local\Temp\ccXQrqsW.s:13     .text.os_reltime_expired:0000000000000000 .LFB20
C:\Users\stapi\AppData\Local\Temp\ccXQrqsW.s:67     .text.os_reltime_expired:000000000000002e .LFE20
C:\Users\stapi\AppData\Local\Temp\ccXQrqsW.s:13410  .debug_loc:0000000000000271 .LLST0
C:\Users\stapi\AppData\Local\Temp\ccXQrqsW.s:13424  .debug_loc:0000000000000292 .LLST1
C:\Users\stapi\AppData\Local\Temp\ccXQrqsW.s:20     .text.os_reltime_expired:0000000000000000 .LBB5
C:\Users\stapi\AppData\Local\Temp\ccXQrqsW.s:52     .text.os_reltime_expired:000000000000001c .LBE5
C:\Users\stapi\AppData\Local\Temp\ccXQrqsW.s:13462  .debug_loc:00000000000002d9 .LLST2
C:\Users\stapi\AppData\Local\Temp\ccXQrqsW.s:13471  .debug_loc:00000000000002f1 .LLST3
C:\Users\stapi\AppData\Local\Temp\ccXQrqsW.s:13478  .debug_loc:0000000000000304 .LLST4
C:\Users\stapi\AppData\Local\Temp\ccXQrqsW.s:14508  .debug_str:0000000000001907 .LASF1123
C:\Users\stapi\AppData\Local\Temp\ccXQrqsW.s:267    .text.wpa_bssid_ignore_update:0000000000000000 .LFB141
C:\Users\stapi\AppData\Local\Temp\ccXQrqsW.s:408    .text.wpa_bssid_ignore_update:0000000000000094 .LFE141
C:\Users\stapi\AppData\Local\Temp\ccXQrqsW.s:13485  .debug_loc:0000000000000317 .LLST12
C:\Users\stapi\AppData\Local\Temp\ccXQrqsW.s:288    .text.wpa_bssid_ignore_update:000000000000000c .LBB10
C:\Users\stapi\AppData\Local\Temp\ccXQrqsW.s:13500  .debug_loc:0000000000000340 .LLST13
C:\Users\stapi\AppData\Local\Temp\ccXQrqsW.s:13511  .debug_loc:000000000000035e .LLST14
C:\Users\stapi\AppData\Local\Temp\ccXQrqsW.s:13531  .debug_loc:0000000000000393 .LLST15
C:\Users\stapi\AppData\Local\Temp\ccXQrqsW.s:13542  .debug_loc:00000000000003b1 .LLST16
C:\Users\stapi\AppData\Local\Temp\ccXQrqsW.s:372    .text.wpa_bssid_ignore_update:000000000000007a .LVL34
C:\Users\stapi\AppData\Local\Temp\ccXQrqsW.s:376    .text.wpa_bssid_ignore_update:0000000000000084 .LVL35
C:\Users\stapi\AppData\Local\Temp\ccXQrqsW.s:302    .text.wpa_bssid_ignore_update:000000000000001e .LVL29
C:\Users\stapi\AppData\Local\Temp\ccXQrqsW.s:343    .text.wpa_bssid_ignore_update:0000000000000046 .LVL31
C:\Users\stapi\AppData\Local\Temp\ccXQrqsW.s:15734  .debug_str:0000000000003e4c .LASF1111
C:\Users\stapi\AppData\Local\Temp\ccXQrqsW.s:14862  .debug_str:000000000000234f .LASF1112
C:\Users\stapi\AppData\Local\Temp\ccXQrqsW.s:15574  .debug_str:00000000000038f1 .LASF1113
C:\Users\stapi\AppData\Local\Temp\ccXQrqsW.s:14944  .debug_str:0000000000002761 .LASF1114
C:\Users\stapi\AppData\Local\Temp\ccXQrqsW.s:14274  .debug_str:000000000000124f .LASF1115
C:\Users\stapi\AppData\Local\Temp\ccXQrqsW.s:15018  .debug_str:0000000000002999 .LASF1116
C:\Users\stapi\AppData\Local\Temp\ccXQrqsW.s:197    .text.wpa_bssid_ignore_clear:0000000000000000 .LVL18
C:\Users\stapi\AppData\Local\Temp\ccXQrqsW.s:215    .text.wpa_bssid_ignore_clear:0000000000000014 .LVL20
C:\Users\stapi\AppData\Local\Temp\ccXQrqsW.s:208    .text.wpa_bssid_ignore_clear:000000000000000c .LVL19
C:\Users\stapi\AppData\Local\Temp\ccXQrqsW.s:241    .text.wpa_bssid_ignore_clear:000000000000003a .LVL22
C:\Users\stapi\AppData\Local\Temp\ccXQrqsW.s:230    .text.wpa_bssid_ignore_clear:000000000000001e .LVL21
C:\Users\stapi\AppData\Local\Temp\ccXQrqsW.s:253    .text.wpa_bssid_ignore_clear:0000000000000054 .LVL25
C:\Users\stapi\AppData\Local\Temp\ccXQrqsW.s:714    .text.wpa_bssid_ignore_is_listed:0000000000000000 .LVL63
C:\Users\stapi\AppData\Local\Temp\ccXQrqsW.s:731    .text.wpa_bssid_ignore_is_listed:0000000000000014 .LVL65
C:\Users\stapi\AppData\Local\Temp\ccXQrqsW.s:744    .text.wpa_bssid_ignore_is_listed:0000000000000020 .LVL66
C:\Users\stapi\AppData\Local\Temp\ccXQrqsW.s:750    .text.wpa_bssid_ignore_is_listed:0000000000000024 .LVL67
C:\Users\stapi\AppData\Local\Temp\ccXQrqsW.s:82     .text.wpa_bssid_ignore_del:0000000000000000 .LVL6
C:\Users\stapi\AppData\Local\Temp\ccXQrqsW.s:96     .text.wpa_bssid_ignore_del:000000000000000a .LVL8
C:\Users\stapi\AppData\Local\Temp\ccXQrqsW.s:112    .text.wpa_bssid_ignore_del:0000000000000016 .LVL9
C:\Users\stapi\AppData\Local\Temp\ccXQrqsW.s:127    .text.wpa_bssid_ignore_del:0000000000000022 .LVL12
C:\Users\stapi\AppData\Local\Temp\ccXQrqsW.s:118    .text.wpa_bssid_ignore_del:000000000000001a .LVL10
C:\Users\stapi\AppData\Local\Temp\ccXQrqsW.s:123    .text.wpa_bssid_ignore_del:0000000000000020 .LVL11
C:\Users\stapi\AppData\Local\Temp\ccXQrqsW.s:175    .text.wpa_bssid_ignore_del:000000000000007e .LVL16
C:\Users\stapi\AppData\Local\Temp\ccXQrqsW.s:92     .text.wpa_bssid_ignore_del:0000000000000008 .LVL7
C:\Users\stapi\AppData\Local\Temp\ccXQrqsW.s:180    .text.wpa_bssid_ignore_del:0000000000000082 .LVL17
C:\Users\stapi\AppData\Local\Temp\ccXQrqsW.s:512    .text.wpa_bssid_ignore_add:0000000000000000 .LVL50
C:\Users\stapi\AppData\Local\Temp\ccXQrqsW.s:520    .text.wpa_bssid_ignore_add:0000000000000004 .LVL51
C:\Users\stapi\AppData\Local\Temp\ccXQrqsW.s:542    .text.wpa_bssid_ignore_add:0000000000000012 .LVL53
C:\Users\stapi\AppData\Local\Temp\ccXQrqsW.s:523    .text.wpa_bssid_ignore_add:0000000000000006 .LVL52
C:\Users\stapi\AppData\Local\Temp\ccXQrqsW.s:557    .text.wpa_bssid_ignore_add:0000000000000020 .LVL54
C:\Users\stapi\AppData\Local\Temp\ccXQrqsW.s:418    .text.wpa_bssid_ignore_get:0000000000000000 .LVL40
C:\Users\stapi\AppData\Local\Temp\ccXQrqsW.s:428    .text.wpa_bssid_ignore_get:000000000000000a .LVL41
C:\Users\stapi\AppData\Local\Temp\ccXQrqsW.s:442    .text.wpa_bssid_ignore_get:0000000000000016 .LVL42
C:\Users\stapi\AppData\Local\Temp\ccXQrqsW.s:455    .text.wpa_bssid_ignore_get:0000000000000022 .LVL44
C:\Users\stapi\AppData\Local\Temp\ccXQrqsW.s:475    .text.wpa_bssid_ignore_get:0000000000000048 .LVL47
C:\Users\stapi\AppData\Local\Temp\ccXQrqsW.s:448    .text.wpa_bssid_ignore_get:000000000000001a .LVL43
C:\Users\stapi\AppData\Local\Temp\ccXQrqsW.s:17     .text.os_reltime_expired:0000000000000000 .LVL0
C:\Users\stapi\AppData\Local\Temp\ccXQrqsW.s:56     .text.os_reltime_expired:000000000000001e .LVL5
C:\Users\stapi\AppData\Local\Temp\ccXQrqsW.s:30     .text.os_reltime_expired:0000000000000008 .LVL1
C:\Users\stapi\AppData\Local\Temp\ccXQrqsW.s:35     .text.os_reltime_expired:000000000000000c .LVL2
C:\Users\stapi\AppData\Local\Temp\ccXQrqsW.s:45     .text.os_reltime_expired:000000000000001a .LVL3
C:\Users\stapi\AppData\Local\Temp\ccXQrqsW.s:49     .text.os_reltime_expired:000000000000001c .LVL4
C:\Users\stapi\AppData\Local\Temp\ccXQrqsW.s:786    .debug_info:0000000000000000 .Ldebug_info0
C:\Users\stapi\AppData\Local\Temp\ccXQrqsW.s:270    .text.wpa_bssid_ignore_update:0000000000000000 .LVL26
C:\Users\stapi\AppData\Local\Temp\ccXQrqsW.s:300    .text.wpa_bssid_ignore_update:0000000000000016 .LVL28
C:\Users\stapi\AppData\Local\Temp\ccXQrqsW.s:393    .text.wpa_bssid_ignore_update:0000000000000092 .LVL39
C:\Users\stapi\AppData\Local\Temp\ccXQrqsW.s:293    .text.wpa_bssid_ignore_update:0000000000000012 .LVL27
C:\Users\stapi\AppData\Local\Temp\ccXQrqsW.s:360    .text.wpa_bssid_ignore_update:0000000000000054 .LVL33
C:\Users\stapi\AppData\Local\Temp\ccXQrqsW.s:379    .text.wpa_bssid_ignore_update:0000000000000086 .LVL36
C:\Users\stapi\AppData\Local\Temp\ccXQrqsW.s:384    .text.wpa_bssid_ignore_update:000000000000008c .LVL37
C:\Users\stapi\AppData\Local\Temp\ccXQrqsW.s:391    .text.wpa_bssid_ignore_update:0000000000000090 .LVL38
C:\Users\stapi\AppData\Local\Temp\ccXQrqsW.s:311    .text.wpa_bssid_ignore_update:0000000000000028 .LVL30
C:\Users\stapi\AppData\Local\Temp\ccXQrqsW.s:352    .text.wpa_bssid_ignore_update:000000000000004c .LVL32
C:\Users\stapi\AppData\Local\Temp\ccXQrqsW.s:317    .text.wpa_bssid_ignore_update:000000000000002a .LBE10
C:\Users\stapi\AppData\Local\Temp\ccXQrqsW.s:333    .text.wpa_bssid_ignore_update:0000000000000034 .LBB17
C:\Users\stapi\AppData\Local\Temp\ccXQrqsW.s:406    .text.wpa_bssid_ignore_update:0000000000000094 .LBE17
C:\Users\stapi\AppData\Local\Temp\ccXQrqsW.s:308    .text.wpa_bssid_ignore_update:0000000000000024 .LBB12
C:\Users\stapi\AppData\Local\Temp\ccXQrqsW.s:313    .text.wpa_bssid_ignore_update:0000000000000028 .LBE12
C:\Users\stapi\AppData\Local\Temp\ccXQrqsW.s:344    .text.wpa_bssid_ignore_update:0000000000000046 .LBB13
C:\Users\stapi\AppData\Local\Temp\ccXQrqsW.s:347    .text.wpa_bssid_ignore_update:000000000000004a .LBE13
C:\Users\stapi\AppData\Local\Temp\ccXQrqsW.s:350    .text.wpa_bssid_ignore_update:000000000000004c .LBB14
C:\Users\stapi\AppData\Local\Temp\ccXQrqsW.s:377    .text.wpa_bssid_ignore_update:0000000000000084 .LBE14
C:\Users\stapi\AppData\Local\Temp\ccXQrqsW.s:386    .text.wpa_bssid_ignore_update:000000000000008c .LBB15
C:\Users\stapi\AppData\Local\Temp\ccXQrqsW.s:404    .text.wpa_bssid_ignore_update:0000000000000094 .LBE15

UNDEFINED SYMBOLS
__riscv_save_5
__riscv_restore_5
os_memcmp
wpa_printf
os_free
__riscv_save_3
__riscv_restore_3
__riscv_save_6
os_get_reltime
__riscv_restore_6
__riscv_save_2
__riscv_restore_2
os_zalloc
os_memcpy
__riscv_save_1
__riscv_restore_1
