   1              		.file	"common.c"
   2              		.option nopic
   3              		.attribute arch, "rv32i2p0_m2p0_a2p0_f2p0_c2p0_b_p0p94"
   4              		.attribute unaligned_access, 0
   5              		.attribute stack_align, 16
   6              		.text
   7              	.Ltext0:
   8              		.cfi_sections	.debug_frame
   9              		.section	.text.hex2num,"ax",@progbits
  10              		.align	1
  12              	hex2num:
  13              	.LFB71:
  14              		.file 1 "C:/Users/stapi/OneDrive/Desktop/GD32VW553/V1_MQTT_OK/GD32VW55X_Wifi_BLE_SDK/GD32VW55x_REL
   1:C:/Users/stapi/OneDrive/Desktop/GD32VW553/V1_MQTT_OK/GD32VW55X_Wifi_BLE_SDK/GD32VW55x_RELEASE_V1.0.2/MSDK/wpa_supplicant/src/utils\common.c **** /*
   2:C:/Users/stapi/OneDrive/Desktop/GD32VW553/V1_MQTT_OK/GD32VW55X_Wifi_BLE_SDK/GD32VW55x_RELEASE_V1.0.2/MSDK/wpa_supplicant/src/utils\common.c ****  * wpa_supplicant/hostapd / common helper functions, etc.
   3:C:/Users/stapi/OneDrive/Desktop/GD32VW553/V1_MQTT_OK/GD32VW55X_Wifi_BLE_SDK/GD32VW55x_RELEASE_V1.0.2/MSDK/wpa_supplicant/src/utils\common.c ****  * Copyright (c) 2002-2019, Jouni Malinen <j@w1.fi>
   4:C:/Users/stapi/OneDrive/Desktop/GD32VW553/V1_MQTT_OK/GD32VW55X_Wifi_BLE_SDK/GD32VW55x_RELEASE_V1.0.2/MSDK/wpa_supplicant/src/utils\common.c ****  *
   5:C:/Users/stapi/OneDrive/Desktop/GD32VW553/V1_MQTT_OK/GD32VW55X_Wifi_BLE_SDK/GD32VW55x_RELEASE_V1.0.2/MSDK/wpa_supplicant/src/utils\common.c ****  * This software may be distributed under the terms of the BSD license.
   6:C:/Users/stapi/OneDrive/Desktop/GD32VW553/V1_MQTT_OK/GD32VW55X_Wifi_BLE_SDK/GD32VW55x_RELEASE_V1.0.2/MSDK/wpa_supplicant/src/utils\common.c ****  * See README for more details.
   7:C:/Users/stapi/OneDrive/Desktop/GD32VW553/V1_MQTT_OK/GD32VW55X_Wifi_BLE_SDK/GD32VW55x_RELEASE_V1.0.2/MSDK/wpa_supplicant/src/utils\common.c ****  */
   8:C:/Users/stapi/OneDrive/Desktop/GD32VW553/V1_MQTT_OK/GD32VW55X_Wifi_BLE_SDK/GD32VW55x_RELEASE_V1.0.2/MSDK/wpa_supplicant/src/utils\common.c **** 
   9:C:/Users/stapi/OneDrive/Desktop/GD32VW553/V1_MQTT_OK/GD32VW55X_Wifi_BLE_SDK/GD32VW55x_RELEASE_V1.0.2/MSDK/wpa_supplicant/src/utils\common.c **** #include "includes.h"
  10:C:/Users/stapi/OneDrive/Desktop/GD32VW553/V1_MQTT_OK/GD32VW55X_Wifi_BLE_SDK/GD32VW55x_RELEASE_V1.0.2/MSDK/wpa_supplicant/src/utils\common.c **** #include <limits.h>
  11:C:/Users/stapi/OneDrive/Desktop/GD32VW553/V1_MQTT_OK/GD32VW55X_Wifi_BLE_SDK/GD32VW55x_RELEASE_V1.0.2/MSDK/wpa_supplicant/src/utils\common.c **** 
  12:C:/Users/stapi/OneDrive/Desktop/GD32VW553/V1_MQTT_OK/GD32VW55X_Wifi_BLE_SDK/GD32VW55x_RELEASE_V1.0.2/MSDK/wpa_supplicant/src/utils\common.c **** #include "common/ieee802_11_defs.h"
  13:C:/Users/stapi/OneDrive/Desktop/GD32VW553/V1_MQTT_OK/GD32VW55X_Wifi_BLE_SDK/GD32VW55x_RELEASE_V1.0.2/MSDK/wpa_supplicant/src/utils\common.c **** #include "common.h"
  14:C:/Users/stapi/OneDrive/Desktop/GD32VW553/V1_MQTT_OK/GD32VW55X_Wifi_BLE_SDK/GD32VW55x_RELEASE_V1.0.2/MSDK/wpa_supplicant/src/utils\common.c **** 
  15:C:/Users/stapi/OneDrive/Desktop/GD32VW553/V1_MQTT_OK/GD32VW55X_Wifi_BLE_SDK/GD32VW55x_RELEASE_V1.0.2/MSDK/wpa_supplicant/src/utils\common.c **** 
  16:C:/Users/stapi/OneDrive/Desktop/GD32VW553/V1_MQTT_OK/GD32VW55X_Wifi_BLE_SDK/GD32VW55x_RELEASE_V1.0.2/MSDK/wpa_supplicant/src/utils\common.c **** static int hex2num(char c)
  17:C:/Users/stapi/OneDrive/Desktop/GD32VW553/V1_MQTT_OK/GD32VW55X_Wifi_BLE_SDK/GD32VW55x_RELEASE_V1.0.2/MSDK/wpa_supplicant/src/utils\common.c **** {
  15              		.loc 1 17 1
  16              		.cfi_startproc
  17              	.LVL0:
  18:C:/Users/stapi/OneDrive/Desktop/GD32VW553/V1_MQTT_OK/GD32VW55X_Wifi_BLE_SDK/GD32VW55x_RELEASE_V1.0.2/MSDK/wpa_supplicant/src/utils\common.c **** 	if (c >= '0' && c <= '9')
  18              		.loc 1 18 2
  19              		.loc 1 18 15 is_stmt 0
  20 0000 1377F50F 		andi	a4,a0,0xff
  21 0004 930607FD 		addi	a3,a4,-48
  22              		.loc 1 18 5
  23 0008 93F6F60F 		andi	a3,a3,0xff
  24 000c 2546     		li	a2,9
  17:C:/Users/stapi/OneDrive/Desktop/GD32VW553/V1_MQTT_OK/GD32VW55X_Wifi_BLE_SDK/GD32VW55x_RELEASE_V1.0.2/MSDK/wpa_supplicant/src/utils\common.c **** 	if (c >= '0' && c <= '9')
  25              		.loc 1 17 1
  26 000e AA87     		mv	a5,a0
  27              		.loc 1 18 5
  28 0010 6367D600 		bgtu	a3,a2,.L2
  19:C:/Users/stapi/OneDrive/Desktop/GD32VW553/V1_MQTT_OK/GD32VW55X_Wifi_BLE_SDK/GD32VW55x_RELEASE_V1.0.2/MSDK/wpa_supplicant/src/utils\common.c **** 		return c - '0';
  29              		.loc 1 19 3 is_stmt 1
  30              		.loc 1 19 12 is_stmt 0
  31 0014 930705FD 		addi	a5,a0,-48
  32              	.LVL1:
  33              	.L6:
  20:C:/Users/stapi/OneDrive/Desktop/GD32VW553/V1_MQTT_OK/GD32VW55X_Wifi_BLE_SDK/GD32VW55x_RELEASE_V1.0.2/MSDK/wpa_supplicant/src/utils\common.c **** 	if (c >= 'a' && c <= 'f')
  21:C:/Users/stapi/OneDrive/Desktop/GD32VW553/V1_MQTT_OK/GD32VW55X_Wifi_BLE_SDK/GD32VW55x_RELEASE_V1.0.2/MSDK/wpa_supplicant/src/utils\common.c **** 		return c - 'a' + 10;
  22:C:/Users/stapi/OneDrive/Desktop/GD32VW553/V1_MQTT_OK/GD32VW55X_Wifi_BLE_SDK/GD32VW55x_RELEASE_V1.0.2/MSDK/wpa_supplicant/src/utils\common.c **** 	if (c >= 'A' && c <= 'F')
  23:C:/Users/stapi/OneDrive/Desktop/GD32VW553/V1_MQTT_OK/GD32VW55X_Wifi_BLE_SDK/GD32VW55x_RELEASE_V1.0.2/MSDK/wpa_supplicant/src/utils\common.c **** 		return c - 'A' + 10;
  34              		.loc 1 23 18
  35 0018 13954760 		sext.b	a0,a5
  36              	.L1:
  24:C:/Users/stapi/OneDrive/Desktop/GD32VW553/V1_MQTT_OK/GD32VW55X_Wifi_BLE_SDK/GD32VW55x_RELEASE_V1.0.2/MSDK/wpa_supplicant/src/utils\common.c **** 	return -1;
  25:C:/Users/stapi/OneDrive/Desktop/GD32VW553/V1_MQTT_OK/GD32VW55X_Wifi_BLE_SDK/GD32VW55x_RELEASE_V1.0.2/MSDK/wpa_supplicant/src/utils\common.c **** }
  37              		.loc 1 25 1
  38 001c 8280     		ret
  39              	.LVL2:
  40              	.L2:
  20:C:/Users/stapi/OneDrive/Desktop/GD32VW553/V1_MQTT_OK/GD32VW55X_Wifi_BLE_SDK/GD32VW55x_RELEASE_V1.0.2/MSDK/wpa_supplicant/src/utils\common.c **** 	if (c >= 'a' && c <= 'f')
  41              		.loc 1 20 2 is_stmt 1
  20:C:/Users/stapi/OneDrive/Desktop/GD32VW553/V1_MQTT_OK/GD32VW55X_Wifi_BLE_SDK/GD32VW55x_RELEASE_V1.0.2/MSDK/wpa_supplicant/src/utils\common.c **** 	if (c >= 'a' && c <= 'f')
  42              		.loc 1 20 15 is_stmt 0
  43 001e 9306F7F9 		addi	a3,a4,-97
  20:C:/Users/stapi/OneDrive/Desktop/GD32VW553/V1_MQTT_OK/GD32VW55X_Wifi_BLE_SDK/GD32VW55x_RELEASE_V1.0.2/MSDK/wpa_supplicant/src/utils\common.c **** 	if (c >= 'a' && c <= 'f')
  44              		.loc 1 20 5
  45 0022 93F6F60F 		andi	a3,a3,0xff
  46 0026 1546     		li	a2,5
  47 0028 6365D600 		bgtu	a3,a2,.L4
  21:C:/Users/stapi/OneDrive/Desktop/GD32VW553/V1_MQTT_OK/GD32VW55X_Wifi_BLE_SDK/GD32VW55x_RELEASE_V1.0.2/MSDK/wpa_supplicant/src/utils\common.c **** 	if (c >= 'A' && c <= 'F')
  48              		.loc 1 21 3 is_stmt 1
  21:C:/Users/stapi/OneDrive/Desktop/GD32VW553/V1_MQTT_OK/GD32VW55X_Wifi_BLE_SDK/GD32VW55x_RELEASE_V1.0.2/MSDK/wpa_supplicant/src/utils\common.c **** 	if (c >= 'A' && c <= 'F')
  49              		.loc 1 21 18 is_stmt 0
  50 002c 930795FA 		addi	a5,a0,-87
  51 0030 E5B7     		j	.L6
  52              	.L4:
  22:C:/Users/stapi/OneDrive/Desktop/GD32VW553/V1_MQTT_OK/GD32VW55X_Wifi_BLE_SDK/GD32VW55x_RELEASE_V1.0.2/MSDK/wpa_supplicant/src/utils\common.c **** 		return c - 'A' + 10;
  53              		.loc 1 22 2 is_stmt 1
  22:C:/Users/stapi/OneDrive/Desktop/GD32VW553/V1_MQTT_OK/GD32VW55X_Wifi_BLE_SDK/GD32VW55x_RELEASE_V1.0.2/MSDK/wpa_supplicant/src/utils\common.c **** 		return c - 'A' + 10;
  54              		.loc 1 22 15 is_stmt 0
  55 0032 1307F7FB 		addi	a4,a4,-65
  22:C:/Users/stapi/OneDrive/Desktop/GD32VW553/V1_MQTT_OK/GD32VW55X_Wifi_BLE_SDK/GD32VW55x_RELEASE_V1.0.2/MSDK/wpa_supplicant/src/utils\common.c **** 		return c - 'A' + 10;
  56              		.loc 1 22 5
  57 0036 1377F70F 		andi	a4,a4,0xff
  24:C:/Users/stapi/OneDrive/Desktop/GD32VW553/V1_MQTT_OK/GD32VW55X_Wifi_BLE_SDK/GD32VW55x_RELEASE_V1.0.2/MSDK/wpa_supplicant/src/utils\common.c **** 	return -1;
  58              		.loc 1 24 9
  59 003a 7D55     		li	a0,-1
  60              	.LVL3:
  22:C:/Users/stapi/OneDrive/Desktop/GD32VW553/V1_MQTT_OK/GD32VW55X_Wifi_BLE_SDK/GD32VW55x_RELEASE_V1.0.2/MSDK/wpa_supplicant/src/utils\common.c **** 		return c - 'A' + 10;
  61              		.loc 1 22 5
  62 003c E360E6FE 		bgtu	a4,a2,.L1
  23:C:/Users/stapi/OneDrive/Desktop/GD32VW553/V1_MQTT_OK/GD32VW55X_Wifi_BLE_SDK/GD32VW55x_RELEASE_V1.0.2/MSDK/wpa_supplicant/src/utils\common.c **** 	return -1;
  63              		.loc 1 23 3 is_stmt 1
  23:C:/Users/stapi/OneDrive/Desktop/GD32VW553/V1_MQTT_OK/GD32VW55X_Wifi_BLE_SDK/GD32VW55x_RELEASE_V1.0.2/MSDK/wpa_supplicant/src/utils\common.c **** 	return -1;
  64              		.loc 1 23 18 is_stmt 0
  65 0040 938797FC 		addi	a5,a5,-55
  66 0044 D1BF     		j	.L6
  67              		.cfi_endproc
  68              	.LFE71:
  70              		.section	.text.freq_cmp,"ax",@progbits
  71              		.align	1
  73              	freq_cmp:
  74              	.LFB103:
  26:C:/Users/stapi/OneDrive/Desktop/GD32VW553/V1_MQTT_OK/GD32VW55X_Wifi_BLE_SDK/GD32VW55x_RELEASE_V1.0.2/MSDK/wpa_supplicant/src/utils\common.c **** 
  27:C:/Users/stapi/OneDrive/Desktop/GD32VW553/V1_MQTT_OK/GD32VW55X_Wifi_BLE_SDK/GD32VW55x_RELEASE_V1.0.2/MSDK/wpa_supplicant/src/utils\common.c **** 
  28:C:/Users/stapi/OneDrive/Desktop/GD32VW553/V1_MQTT_OK/GD32VW55X_Wifi_BLE_SDK/GD32VW55x_RELEASE_V1.0.2/MSDK/wpa_supplicant/src/utils\common.c **** int hex2byte(const char *hex)
  29:C:/Users/stapi/OneDrive/Desktop/GD32VW553/V1_MQTT_OK/GD32VW55X_Wifi_BLE_SDK/GD32VW55x_RELEASE_V1.0.2/MSDK/wpa_supplicant/src/utils\common.c **** {
  30:C:/Users/stapi/OneDrive/Desktop/GD32VW553/V1_MQTT_OK/GD32VW55X_Wifi_BLE_SDK/GD32VW55x_RELEASE_V1.0.2/MSDK/wpa_supplicant/src/utils\common.c **** 	int a, b;
  31:C:/Users/stapi/OneDrive/Desktop/GD32VW553/V1_MQTT_OK/GD32VW55X_Wifi_BLE_SDK/GD32VW55x_RELEASE_V1.0.2/MSDK/wpa_supplicant/src/utils\common.c **** 	a = hex2num(*hex++);
  32:C:/Users/stapi/OneDrive/Desktop/GD32VW553/V1_MQTT_OK/GD32VW55X_Wifi_BLE_SDK/GD32VW55x_RELEASE_V1.0.2/MSDK/wpa_supplicant/src/utils\common.c **** 	if (a < 0)
  33:C:/Users/stapi/OneDrive/Desktop/GD32VW553/V1_MQTT_OK/GD32VW55X_Wifi_BLE_SDK/GD32VW55x_RELEASE_V1.0.2/MSDK/wpa_supplicant/src/utils\common.c **** 		return -1;
  34:C:/Users/stapi/OneDrive/Desktop/GD32VW553/V1_MQTT_OK/GD32VW55X_Wifi_BLE_SDK/GD32VW55x_RELEASE_V1.0.2/MSDK/wpa_supplicant/src/utils\common.c **** 	b = hex2num(*hex++);
  35:C:/Users/stapi/OneDrive/Desktop/GD32VW553/V1_MQTT_OK/GD32VW55X_Wifi_BLE_SDK/GD32VW55x_RELEASE_V1.0.2/MSDK/wpa_supplicant/src/utils\common.c **** 	if (b < 0)
  36:C:/Users/stapi/OneDrive/Desktop/GD32VW553/V1_MQTT_OK/GD32VW55X_Wifi_BLE_SDK/GD32VW55x_RELEASE_V1.0.2/MSDK/wpa_supplicant/src/utils\common.c **** 		return -1;
  37:C:/Users/stapi/OneDrive/Desktop/GD32VW553/V1_MQTT_OK/GD32VW55X_Wifi_BLE_SDK/GD32VW55x_RELEASE_V1.0.2/MSDK/wpa_supplicant/src/utils\common.c **** 	return (a << 4) | b;
  38:C:/Users/stapi/OneDrive/Desktop/GD32VW553/V1_MQTT_OK/GD32VW55X_Wifi_BLE_SDK/GD32VW55x_RELEASE_V1.0.2/MSDK/wpa_supplicant/src/utils\common.c **** }
  39:C:/Users/stapi/OneDrive/Desktop/GD32VW553/V1_MQTT_OK/GD32VW55X_Wifi_BLE_SDK/GD32VW55x_RELEASE_V1.0.2/MSDK/wpa_supplicant/src/utils\common.c **** 
  40:C:/Users/stapi/OneDrive/Desktop/GD32VW553/V1_MQTT_OK/GD32VW55X_Wifi_BLE_SDK/GD32VW55x_RELEASE_V1.0.2/MSDK/wpa_supplicant/src/utils\common.c **** 
  41:C:/Users/stapi/OneDrive/Desktop/GD32VW553/V1_MQTT_OK/GD32VW55X_Wifi_BLE_SDK/GD32VW55x_RELEASE_V1.0.2/MSDK/wpa_supplicant/src/utils\common.c **** static const char * hwaddr_parse(const char *txt, u8 *addr)
  42:C:/Users/stapi/OneDrive/Desktop/GD32VW553/V1_MQTT_OK/GD32VW55X_Wifi_BLE_SDK/GD32VW55x_RELEASE_V1.0.2/MSDK/wpa_supplicant/src/utils\common.c **** {
  43:C:/Users/stapi/OneDrive/Desktop/GD32VW553/V1_MQTT_OK/GD32VW55X_Wifi_BLE_SDK/GD32VW55x_RELEASE_V1.0.2/MSDK/wpa_supplicant/src/utils\common.c **** 	size_t i;
  44:C:/Users/stapi/OneDrive/Desktop/GD32VW553/V1_MQTT_OK/GD32VW55X_Wifi_BLE_SDK/GD32VW55x_RELEASE_V1.0.2/MSDK/wpa_supplicant/src/utils\common.c **** 
  45:C:/Users/stapi/OneDrive/Desktop/GD32VW553/V1_MQTT_OK/GD32VW55X_Wifi_BLE_SDK/GD32VW55x_RELEASE_V1.0.2/MSDK/wpa_supplicant/src/utils\common.c **** 	for (i = 0; i < ETH_ALEN; i++) {
  46:C:/Users/stapi/OneDrive/Desktop/GD32VW553/V1_MQTT_OK/GD32VW55X_Wifi_BLE_SDK/GD32VW55x_RELEASE_V1.0.2/MSDK/wpa_supplicant/src/utils\common.c **** 		int a;
  47:C:/Users/stapi/OneDrive/Desktop/GD32VW553/V1_MQTT_OK/GD32VW55X_Wifi_BLE_SDK/GD32VW55x_RELEASE_V1.0.2/MSDK/wpa_supplicant/src/utils\common.c **** 
  48:C:/Users/stapi/OneDrive/Desktop/GD32VW553/V1_MQTT_OK/GD32VW55X_Wifi_BLE_SDK/GD32VW55x_RELEASE_V1.0.2/MSDK/wpa_supplicant/src/utils\common.c **** 		a = hex2byte(txt);
  49:C:/Users/stapi/OneDrive/Desktop/GD32VW553/V1_MQTT_OK/GD32VW55X_Wifi_BLE_SDK/GD32VW55x_RELEASE_V1.0.2/MSDK/wpa_supplicant/src/utils\common.c **** 		if (a < 0)
  50:C:/Users/stapi/OneDrive/Desktop/GD32VW553/V1_MQTT_OK/GD32VW55X_Wifi_BLE_SDK/GD32VW55x_RELEASE_V1.0.2/MSDK/wpa_supplicant/src/utils\common.c **** 			return NULL;
  51:C:/Users/stapi/OneDrive/Desktop/GD32VW553/V1_MQTT_OK/GD32VW55X_Wifi_BLE_SDK/GD32VW55x_RELEASE_V1.0.2/MSDK/wpa_supplicant/src/utils\common.c **** 		txt += 2;
  52:C:/Users/stapi/OneDrive/Desktop/GD32VW553/V1_MQTT_OK/GD32VW55X_Wifi_BLE_SDK/GD32VW55x_RELEASE_V1.0.2/MSDK/wpa_supplicant/src/utils\common.c **** 		addr[i] = a;
  53:C:/Users/stapi/OneDrive/Desktop/GD32VW553/V1_MQTT_OK/GD32VW55X_Wifi_BLE_SDK/GD32VW55x_RELEASE_V1.0.2/MSDK/wpa_supplicant/src/utils\common.c **** 		if (i < ETH_ALEN - 1 && *txt++ != ':')
  54:C:/Users/stapi/OneDrive/Desktop/GD32VW553/V1_MQTT_OK/GD32VW55X_Wifi_BLE_SDK/GD32VW55x_RELEASE_V1.0.2/MSDK/wpa_supplicant/src/utils\common.c **** 			return NULL;
  55:C:/Users/stapi/OneDrive/Desktop/GD32VW553/V1_MQTT_OK/GD32VW55X_Wifi_BLE_SDK/GD32VW55x_RELEASE_V1.0.2/MSDK/wpa_supplicant/src/utils\common.c **** 	}
  56:C:/Users/stapi/OneDrive/Desktop/GD32VW553/V1_MQTT_OK/GD32VW55X_Wifi_BLE_SDK/GD32VW55x_RELEASE_V1.0.2/MSDK/wpa_supplicant/src/utils\common.c **** 	return txt;
  57:C:/Users/stapi/OneDrive/Desktop/GD32VW553/V1_MQTT_OK/GD32VW55X_Wifi_BLE_SDK/GD32VW55x_RELEASE_V1.0.2/MSDK/wpa_supplicant/src/utils\common.c **** }
  58:C:/Users/stapi/OneDrive/Desktop/GD32VW553/V1_MQTT_OK/GD32VW55X_Wifi_BLE_SDK/GD32VW55x_RELEASE_V1.0.2/MSDK/wpa_supplicant/src/utils\common.c **** 
  59:C:/Users/stapi/OneDrive/Desktop/GD32VW553/V1_MQTT_OK/GD32VW55X_Wifi_BLE_SDK/GD32VW55x_RELEASE_V1.0.2/MSDK/wpa_supplicant/src/utils\common.c **** 
  60:C:/Users/stapi/OneDrive/Desktop/GD32VW553/V1_MQTT_OK/GD32VW55X_Wifi_BLE_SDK/GD32VW55x_RELEASE_V1.0.2/MSDK/wpa_supplicant/src/utils\common.c **** /**
  61:C:/Users/stapi/OneDrive/Desktop/GD32VW553/V1_MQTT_OK/GD32VW55X_Wifi_BLE_SDK/GD32VW55x_RELEASE_V1.0.2/MSDK/wpa_supplicant/src/utils\common.c ****  * hwaddr_aton - Convert ASCII string to MAC address (colon-delimited format)
  62:C:/Users/stapi/OneDrive/Desktop/GD32VW553/V1_MQTT_OK/GD32VW55X_Wifi_BLE_SDK/GD32VW55x_RELEASE_V1.0.2/MSDK/wpa_supplicant/src/utils\common.c ****  * @txt: MAC address as a string (e.g., "00:11:22:33:44:55")
  63:C:/Users/stapi/OneDrive/Desktop/GD32VW553/V1_MQTT_OK/GD32VW55X_Wifi_BLE_SDK/GD32VW55x_RELEASE_V1.0.2/MSDK/wpa_supplicant/src/utils\common.c ****  * @addr: Buffer for the MAC address (ETH_ALEN = 6 bytes)
  64:C:/Users/stapi/OneDrive/Desktop/GD32VW553/V1_MQTT_OK/GD32VW55X_Wifi_BLE_SDK/GD32VW55x_RELEASE_V1.0.2/MSDK/wpa_supplicant/src/utils\common.c ****  * Returns: 0 on success, -1 on failure (e.g., string not a MAC address)
  65:C:/Users/stapi/OneDrive/Desktop/GD32VW553/V1_MQTT_OK/GD32VW55X_Wifi_BLE_SDK/GD32VW55x_RELEASE_V1.0.2/MSDK/wpa_supplicant/src/utils\common.c ****  */
  66:C:/Users/stapi/OneDrive/Desktop/GD32VW553/V1_MQTT_OK/GD32VW55X_Wifi_BLE_SDK/GD32VW55x_RELEASE_V1.0.2/MSDK/wpa_supplicant/src/utils\common.c **** int hwaddr_aton(const char *txt, u8 *addr)
  67:C:/Users/stapi/OneDrive/Desktop/GD32VW553/V1_MQTT_OK/GD32VW55X_Wifi_BLE_SDK/GD32VW55x_RELEASE_V1.0.2/MSDK/wpa_supplicant/src/utils\common.c **** {
  68:C:/Users/stapi/OneDrive/Desktop/GD32VW553/V1_MQTT_OK/GD32VW55X_Wifi_BLE_SDK/GD32VW55x_RELEASE_V1.0.2/MSDK/wpa_supplicant/src/utils\common.c **** 	return hwaddr_parse(txt, addr) ? 0 : -1;
  69:C:/Users/stapi/OneDrive/Desktop/GD32VW553/V1_MQTT_OK/GD32VW55X_Wifi_BLE_SDK/GD32VW55x_RELEASE_V1.0.2/MSDK/wpa_supplicant/src/utils\common.c **** }
  70:C:/Users/stapi/OneDrive/Desktop/GD32VW553/V1_MQTT_OK/GD32VW55X_Wifi_BLE_SDK/GD32VW55x_RELEASE_V1.0.2/MSDK/wpa_supplicant/src/utils\common.c **** 
  71:C:/Users/stapi/OneDrive/Desktop/GD32VW553/V1_MQTT_OK/GD32VW55X_Wifi_BLE_SDK/GD32VW55x_RELEASE_V1.0.2/MSDK/wpa_supplicant/src/utils\common.c **** 
  72:C:/Users/stapi/OneDrive/Desktop/GD32VW553/V1_MQTT_OK/GD32VW55X_Wifi_BLE_SDK/GD32VW55x_RELEASE_V1.0.2/MSDK/wpa_supplicant/src/utils\common.c **** /**
  73:C:/Users/stapi/OneDrive/Desktop/GD32VW553/V1_MQTT_OK/GD32VW55X_Wifi_BLE_SDK/GD32VW55x_RELEASE_V1.0.2/MSDK/wpa_supplicant/src/utils\common.c ****  * hwaddr_masked_aton - Convert ASCII string with optional mask to MAC address (colon-delimited for
  74:C:/Users/stapi/OneDrive/Desktop/GD32VW553/V1_MQTT_OK/GD32VW55X_Wifi_BLE_SDK/GD32VW55x_RELEASE_V1.0.2/MSDK/wpa_supplicant/src/utils\common.c ****  * @txt: MAC address with optional mask as a string (e.g., "00:11:22:33:44:55/ff:ff:ff:ff:00:00")
  75:C:/Users/stapi/OneDrive/Desktop/GD32VW553/V1_MQTT_OK/GD32VW55X_Wifi_BLE_SDK/GD32VW55x_RELEASE_V1.0.2/MSDK/wpa_supplicant/src/utils\common.c ****  * @addr: Buffer for the MAC address (ETH_ALEN = 6 bytes)
  76:C:/Users/stapi/OneDrive/Desktop/GD32VW553/V1_MQTT_OK/GD32VW55X_Wifi_BLE_SDK/GD32VW55x_RELEASE_V1.0.2/MSDK/wpa_supplicant/src/utils\common.c ****  * @mask: Buffer for the MAC address mask (ETH_ALEN = 6 bytes)
  77:C:/Users/stapi/OneDrive/Desktop/GD32VW553/V1_MQTT_OK/GD32VW55X_Wifi_BLE_SDK/GD32VW55x_RELEASE_V1.0.2/MSDK/wpa_supplicant/src/utils\common.c ****  * @maskable: Flag to indicate whether a mask is allowed
  78:C:/Users/stapi/OneDrive/Desktop/GD32VW553/V1_MQTT_OK/GD32VW55X_Wifi_BLE_SDK/GD32VW55x_RELEASE_V1.0.2/MSDK/wpa_supplicant/src/utils\common.c ****  * Returns: 0 on success, -1 on failure (e.g., string not a MAC address)
  79:C:/Users/stapi/OneDrive/Desktop/GD32VW553/V1_MQTT_OK/GD32VW55X_Wifi_BLE_SDK/GD32VW55x_RELEASE_V1.0.2/MSDK/wpa_supplicant/src/utils\common.c ****  */
  80:C:/Users/stapi/OneDrive/Desktop/GD32VW553/V1_MQTT_OK/GD32VW55X_Wifi_BLE_SDK/GD32VW55x_RELEASE_V1.0.2/MSDK/wpa_supplicant/src/utils\common.c **** int hwaddr_masked_aton(const char *txt, u8 *addr, u8 *mask, u8 maskable)
  81:C:/Users/stapi/OneDrive/Desktop/GD32VW553/V1_MQTT_OK/GD32VW55X_Wifi_BLE_SDK/GD32VW55x_RELEASE_V1.0.2/MSDK/wpa_supplicant/src/utils\common.c **** {
  82:C:/Users/stapi/OneDrive/Desktop/GD32VW553/V1_MQTT_OK/GD32VW55X_Wifi_BLE_SDK/GD32VW55x_RELEASE_V1.0.2/MSDK/wpa_supplicant/src/utils\common.c **** 	const char *r;
  83:C:/Users/stapi/OneDrive/Desktop/GD32VW553/V1_MQTT_OK/GD32VW55X_Wifi_BLE_SDK/GD32VW55x_RELEASE_V1.0.2/MSDK/wpa_supplicant/src/utils\common.c **** 
  84:C:/Users/stapi/OneDrive/Desktop/GD32VW553/V1_MQTT_OK/GD32VW55X_Wifi_BLE_SDK/GD32VW55x_RELEASE_V1.0.2/MSDK/wpa_supplicant/src/utils\common.c **** 	/* parse address part */
  85:C:/Users/stapi/OneDrive/Desktop/GD32VW553/V1_MQTT_OK/GD32VW55X_Wifi_BLE_SDK/GD32VW55x_RELEASE_V1.0.2/MSDK/wpa_supplicant/src/utils\common.c **** 	r = hwaddr_parse(txt, addr);
  86:C:/Users/stapi/OneDrive/Desktop/GD32VW553/V1_MQTT_OK/GD32VW55X_Wifi_BLE_SDK/GD32VW55x_RELEASE_V1.0.2/MSDK/wpa_supplicant/src/utils\common.c **** 	if (!r)
  87:C:/Users/stapi/OneDrive/Desktop/GD32VW553/V1_MQTT_OK/GD32VW55X_Wifi_BLE_SDK/GD32VW55x_RELEASE_V1.0.2/MSDK/wpa_supplicant/src/utils\common.c **** 		return -1;
  88:C:/Users/stapi/OneDrive/Desktop/GD32VW553/V1_MQTT_OK/GD32VW55X_Wifi_BLE_SDK/GD32VW55x_RELEASE_V1.0.2/MSDK/wpa_supplicant/src/utils\common.c **** 
  89:C:/Users/stapi/OneDrive/Desktop/GD32VW553/V1_MQTT_OK/GD32VW55X_Wifi_BLE_SDK/GD32VW55x_RELEASE_V1.0.2/MSDK/wpa_supplicant/src/utils\common.c **** 	/* check for optional mask */
  90:C:/Users/stapi/OneDrive/Desktop/GD32VW553/V1_MQTT_OK/GD32VW55X_Wifi_BLE_SDK/GD32VW55x_RELEASE_V1.0.2/MSDK/wpa_supplicant/src/utils\common.c **** 	if (*r == '\0' || isspace((unsigned char) *r)) {
  91:C:/Users/stapi/OneDrive/Desktop/GD32VW553/V1_MQTT_OK/GD32VW55X_Wifi_BLE_SDK/GD32VW55x_RELEASE_V1.0.2/MSDK/wpa_supplicant/src/utils\common.c **** 		/* no mask specified, assume default */
  92:C:/Users/stapi/OneDrive/Desktop/GD32VW553/V1_MQTT_OK/GD32VW55X_Wifi_BLE_SDK/GD32VW55x_RELEASE_V1.0.2/MSDK/wpa_supplicant/src/utils\common.c **** 		os_memset(mask, 0xff, ETH_ALEN);
  93:C:/Users/stapi/OneDrive/Desktop/GD32VW553/V1_MQTT_OK/GD32VW55X_Wifi_BLE_SDK/GD32VW55x_RELEASE_V1.0.2/MSDK/wpa_supplicant/src/utils\common.c **** 	} else if (maskable && *r == '/') {
  94:C:/Users/stapi/OneDrive/Desktop/GD32VW553/V1_MQTT_OK/GD32VW55X_Wifi_BLE_SDK/GD32VW55x_RELEASE_V1.0.2/MSDK/wpa_supplicant/src/utils\common.c **** 		/* mask specified and allowed */
  95:C:/Users/stapi/OneDrive/Desktop/GD32VW553/V1_MQTT_OK/GD32VW55X_Wifi_BLE_SDK/GD32VW55x_RELEASE_V1.0.2/MSDK/wpa_supplicant/src/utils\common.c **** 		r = hwaddr_parse(r + 1, mask);
  96:C:/Users/stapi/OneDrive/Desktop/GD32VW553/V1_MQTT_OK/GD32VW55X_Wifi_BLE_SDK/GD32VW55x_RELEASE_V1.0.2/MSDK/wpa_supplicant/src/utils\common.c **** 		/* parser error? */
  97:C:/Users/stapi/OneDrive/Desktop/GD32VW553/V1_MQTT_OK/GD32VW55X_Wifi_BLE_SDK/GD32VW55x_RELEASE_V1.0.2/MSDK/wpa_supplicant/src/utils\common.c **** 		if (!r)
  98:C:/Users/stapi/OneDrive/Desktop/GD32VW553/V1_MQTT_OK/GD32VW55X_Wifi_BLE_SDK/GD32VW55x_RELEASE_V1.0.2/MSDK/wpa_supplicant/src/utils\common.c **** 			return -1;
  99:C:/Users/stapi/OneDrive/Desktop/GD32VW553/V1_MQTT_OK/GD32VW55X_Wifi_BLE_SDK/GD32VW55x_RELEASE_V1.0.2/MSDK/wpa_supplicant/src/utils\common.c **** 	} else {
 100:C:/Users/stapi/OneDrive/Desktop/GD32VW553/V1_MQTT_OK/GD32VW55X_Wifi_BLE_SDK/GD32VW55x_RELEASE_V1.0.2/MSDK/wpa_supplicant/src/utils\common.c **** 		/* mask specified but not allowed or trailing garbage */
 101:C:/Users/stapi/OneDrive/Desktop/GD32VW553/V1_MQTT_OK/GD32VW55X_Wifi_BLE_SDK/GD32VW55x_RELEASE_V1.0.2/MSDK/wpa_supplicant/src/utils\common.c **** 		return -1;
 102:C:/Users/stapi/OneDrive/Desktop/GD32VW553/V1_MQTT_OK/GD32VW55X_Wifi_BLE_SDK/GD32VW55x_RELEASE_V1.0.2/MSDK/wpa_supplicant/src/utils\common.c **** 	}
 103:C:/Users/stapi/OneDrive/Desktop/GD32VW553/V1_MQTT_OK/GD32VW55X_Wifi_BLE_SDK/GD32VW55x_RELEASE_V1.0.2/MSDK/wpa_supplicant/src/utils\common.c **** 
 104:C:/Users/stapi/OneDrive/Desktop/GD32VW553/V1_MQTT_OK/GD32VW55X_Wifi_BLE_SDK/GD32VW55x_RELEASE_V1.0.2/MSDK/wpa_supplicant/src/utils\common.c **** 	return 0;
 105:C:/Users/stapi/OneDrive/Desktop/GD32VW553/V1_MQTT_OK/GD32VW55X_Wifi_BLE_SDK/GD32VW55x_RELEASE_V1.0.2/MSDK/wpa_supplicant/src/utils\common.c **** }
 106:C:/Users/stapi/OneDrive/Desktop/GD32VW553/V1_MQTT_OK/GD32VW55X_Wifi_BLE_SDK/GD32VW55x_RELEASE_V1.0.2/MSDK/wpa_supplicant/src/utils\common.c **** 
 107:C:/Users/stapi/OneDrive/Desktop/GD32VW553/V1_MQTT_OK/GD32VW55X_Wifi_BLE_SDK/GD32VW55x_RELEASE_V1.0.2/MSDK/wpa_supplicant/src/utils\common.c **** 
 108:C:/Users/stapi/OneDrive/Desktop/GD32VW553/V1_MQTT_OK/GD32VW55X_Wifi_BLE_SDK/GD32VW55x_RELEASE_V1.0.2/MSDK/wpa_supplicant/src/utils\common.c **** /**
 109:C:/Users/stapi/OneDrive/Desktop/GD32VW553/V1_MQTT_OK/GD32VW55X_Wifi_BLE_SDK/GD32VW55x_RELEASE_V1.0.2/MSDK/wpa_supplicant/src/utils\common.c ****  * hwaddr_compact_aton - Convert ASCII string to MAC address (no colon delimitors format)
 110:C:/Users/stapi/OneDrive/Desktop/GD32VW553/V1_MQTT_OK/GD32VW55X_Wifi_BLE_SDK/GD32VW55x_RELEASE_V1.0.2/MSDK/wpa_supplicant/src/utils\common.c ****  * @txt: MAC address as a string (e.g., "001122334455")
 111:C:/Users/stapi/OneDrive/Desktop/GD32VW553/V1_MQTT_OK/GD32VW55X_Wifi_BLE_SDK/GD32VW55x_RELEASE_V1.0.2/MSDK/wpa_supplicant/src/utils\common.c ****  * @addr: Buffer for the MAC address (ETH_ALEN = 6 bytes)
 112:C:/Users/stapi/OneDrive/Desktop/GD32VW553/V1_MQTT_OK/GD32VW55X_Wifi_BLE_SDK/GD32VW55x_RELEASE_V1.0.2/MSDK/wpa_supplicant/src/utils\common.c ****  * Returns: 0 on success, -1 on failure (e.g., string not a MAC address)
 113:C:/Users/stapi/OneDrive/Desktop/GD32VW553/V1_MQTT_OK/GD32VW55X_Wifi_BLE_SDK/GD32VW55x_RELEASE_V1.0.2/MSDK/wpa_supplicant/src/utils\common.c ****  */
 114:C:/Users/stapi/OneDrive/Desktop/GD32VW553/V1_MQTT_OK/GD32VW55X_Wifi_BLE_SDK/GD32VW55x_RELEASE_V1.0.2/MSDK/wpa_supplicant/src/utils\common.c **** int hwaddr_compact_aton(const char *txt, u8 *addr)
 115:C:/Users/stapi/OneDrive/Desktop/GD32VW553/V1_MQTT_OK/GD32VW55X_Wifi_BLE_SDK/GD32VW55x_RELEASE_V1.0.2/MSDK/wpa_supplicant/src/utils\common.c **** {
 116:C:/Users/stapi/OneDrive/Desktop/GD32VW553/V1_MQTT_OK/GD32VW55X_Wifi_BLE_SDK/GD32VW55x_RELEASE_V1.0.2/MSDK/wpa_supplicant/src/utils\common.c **** 	int i;
 117:C:/Users/stapi/OneDrive/Desktop/GD32VW553/V1_MQTT_OK/GD32VW55X_Wifi_BLE_SDK/GD32VW55x_RELEASE_V1.0.2/MSDK/wpa_supplicant/src/utils\common.c **** 
 118:C:/Users/stapi/OneDrive/Desktop/GD32VW553/V1_MQTT_OK/GD32VW55X_Wifi_BLE_SDK/GD32VW55x_RELEASE_V1.0.2/MSDK/wpa_supplicant/src/utils\common.c **** 	for (i = 0; i < 6; i++) {
 119:C:/Users/stapi/OneDrive/Desktop/GD32VW553/V1_MQTT_OK/GD32VW55X_Wifi_BLE_SDK/GD32VW55x_RELEASE_V1.0.2/MSDK/wpa_supplicant/src/utils\common.c **** 		int a, b;
 120:C:/Users/stapi/OneDrive/Desktop/GD32VW553/V1_MQTT_OK/GD32VW55X_Wifi_BLE_SDK/GD32VW55x_RELEASE_V1.0.2/MSDK/wpa_supplicant/src/utils\common.c **** 
 121:C:/Users/stapi/OneDrive/Desktop/GD32VW553/V1_MQTT_OK/GD32VW55X_Wifi_BLE_SDK/GD32VW55x_RELEASE_V1.0.2/MSDK/wpa_supplicant/src/utils\common.c **** 		a = hex2num(*txt++);
 122:C:/Users/stapi/OneDrive/Desktop/GD32VW553/V1_MQTT_OK/GD32VW55X_Wifi_BLE_SDK/GD32VW55x_RELEASE_V1.0.2/MSDK/wpa_supplicant/src/utils\common.c **** 		if (a < 0)
 123:C:/Users/stapi/OneDrive/Desktop/GD32VW553/V1_MQTT_OK/GD32VW55X_Wifi_BLE_SDK/GD32VW55x_RELEASE_V1.0.2/MSDK/wpa_supplicant/src/utils\common.c **** 			return -1;
 124:C:/Users/stapi/OneDrive/Desktop/GD32VW553/V1_MQTT_OK/GD32VW55X_Wifi_BLE_SDK/GD32VW55x_RELEASE_V1.0.2/MSDK/wpa_supplicant/src/utils\common.c **** 		b = hex2num(*txt++);
 125:C:/Users/stapi/OneDrive/Desktop/GD32VW553/V1_MQTT_OK/GD32VW55X_Wifi_BLE_SDK/GD32VW55x_RELEASE_V1.0.2/MSDK/wpa_supplicant/src/utils\common.c **** 		if (b < 0)
 126:C:/Users/stapi/OneDrive/Desktop/GD32VW553/V1_MQTT_OK/GD32VW55X_Wifi_BLE_SDK/GD32VW55x_RELEASE_V1.0.2/MSDK/wpa_supplicant/src/utils\common.c **** 			return -1;
 127:C:/Users/stapi/OneDrive/Desktop/GD32VW553/V1_MQTT_OK/GD32VW55X_Wifi_BLE_SDK/GD32VW55x_RELEASE_V1.0.2/MSDK/wpa_supplicant/src/utils\common.c **** 		*addr++ = (a << 4) | b;
 128:C:/Users/stapi/OneDrive/Desktop/GD32VW553/V1_MQTT_OK/GD32VW55X_Wifi_BLE_SDK/GD32VW55x_RELEASE_V1.0.2/MSDK/wpa_supplicant/src/utils\common.c **** 	}
 129:C:/Users/stapi/OneDrive/Desktop/GD32VW553/V1_MQTT_OK/GD32VW55X_Wifi_BLE_SDK/GD32VW55x_RELEASE_V1.0.2/MSDK/wpa_supplicant/src/utils\common.c **** 
 130:C:/Users/stapi/OneDrive/Desktop/GD32VW553/V1_MQTT_OK/GD32VW55X_Wifi_BLE_SDK/GD32VW55x_RELEASE_V1.0.2/MSDK/wpa_supplicant/src/utils\common.c **** 	return 0;
 131:C:/Users/stapi/OneDrive/Desktop/GD32VW553/V1_MQTT_OK/GD32VW55X_Wifi_BLE_SDK/GD32VW55x_RELEASE_V1.0.2/MSDK/wpa_supplicant/src/utils\common.c **** }
 132:C:/Users/stapi/OneDrive/Desktop/GD32VW553/V1_MQTT_OK/GD32VW55X_Wifi_BLE_SDK/GD32VW55x_RELEASE_V1.0.2/MSDK/wpa_supplicant/src/utils\common.c **** 
 133:C:/Users/stapi/OneDrive/Desktop/GD32VW553/V1_MQTT_OK/GD32VW55X_Wifi_BLE_SDK/GD32VW55x_RELEASE_V1.0.2/MSDK/wpa_supplicant/src/utils\common.c **** /**
 134:C:/Users/stapi/OneDrive/Desktop/GD32VW553/V1_MQTT_OK/GD32VW55X_Wifi_BLE_SDK/GD32VW55x_RELEASE_V1.0.2/MSDK/wpa_supplicant/src/utils\common.c ****  * hwaddr_aton2 - Convert ASCII string to MAC address (in any known format)
 135:C:/Users/stapi/OneDrive/Desktop/GD32VW553/V1_MQTT_OK/GD32VW55X_Wifi_BLE_SDK/GD32VW55x_RELEASE_V1.0.2/MSDK/wpa_supplicant/src/utils\common.c ****  * @txt: MAC address as a string (e.g., 00:11:22:33:44:55 or 0011.2233.4455)
 136:C:/Users/stapi/OneDrive/Desktop/GD32VW553/V1_MQTT_OK/GD32VW55X_Wifi_BLE_SDK/GD32VW55x_RELEASE_V1.0.2/MSDK/wpa_supplicant/src/utils\common.c ****  * @addr: Buffer for the MAC address (ETH_ALEN = 6 bytes)
 137:C:/Users/stapi/OneDrive/Desktop/GD32VW553/V1_MQTT_OK/GD32VW55X_Wifi_BLE_SDK/GD32VW55x_RELEASE_V1.0.2/MSDK/wpa_supplicant/src/utils\common.c ****  * Returns: Characters used (> 0) on success, -1 on failure
 138:C:/Users/stapi/OneDrive/Desktop/GD32VW553/V1_MQTT_OK/GD32VW55X_Wifi_BLE_SDK/GD32VW55x_RELEASE_V1.0.2/MSDK/wpa_supplicant/src/utils\common.c ****  */
 139:C:/Users/stapi/OneDrive/Desktop/GD32VW553/V1_MQTT_OK/GD32VW55X_Wifi_BLE_SDK/GD32VW55x_RELEASE_V1.0.2/MSDK/wpa_supplicant/src/utils\common.c **** int hwaddr_aton2(const char *txt, u8 *addr)
 140:C:/Users/stapi/OneDrive/Desktop/GD32VW553/V1_MQTT_OK/GD32VW55X_Wifi_BLE_SDK/GD32VW55x_RELEASE_V1.0.2/MSDK/wpa_supplicant/src/utils\common.c **** {
 141:C:/Users/stapi/OneDrive/Desktop/GD32VW553/V1_MQTT_OK/GD32VW55X_Wifi_BLE_SDK/GD32VW55x_RELEASE_V1.0.2/MSDK/wpa_supplicant/src/utils\common.c **** 	int i;
 142:C:/Users/stapi/OneDrive/Desktop/GD32VW553/V1_MQTT_OK/GD32VW55X_Wifi_BLE_SDK/GD32VW55x_RELEASE_V1.0.2/MSDK/wpa_supplicant/src/utils\common.c **** 	const char *pos = txt;
 143:C:/Users/stapi/OneDrive/Desktop/GD32VW553/V1_MQTT_OK/GD32VW55X_Wifi_BLE_SDK/GD32VW55x_RELEASE_V1.0.2/MSDK/wpa_supplicant/src/utils\common.c **** 
 144:C:/Users/stapi/OneDrive/Desktop/GD32VW553/V1_MQTT_OK/GD32VW55X_Wifi_BLE_SDK/GD32VW55x_RELEASE_V1.0.2/MSDK/wpa_supplicant/src/utils\common.c **** 	for (i = 0; i < 6; i++) {
 145:C:/Users/stapi/OneDrive/Desktop/GD32VW553/V1_MQTT_OK/GD32VW55X_Wifi_BLE_SDK/GD32VW55x_RELEASE_V1.0.2/MSDK/wpa_supplicant/src/utils\common.c **** 		int a, b;
 146:C:/Users/stapi/OneDrive/Desktop/GD32VW553/V1_MQTT_OK/GD32VW55X_Wifi_BLE_SDK/GD32VW55x_RELEASE_V1.0.2/MSDK/wpa_supplicant/src/utils\common.c **** 
 147:C:/Users/stapi/OneDrive/Desktop/GD32VW553/V1_MQTT_OK/GD32VW55X_Wifi_BLE_SDK/GD32VW55x_RELEASE_V1.0.2/MSDK/wpa_supplicant/src/utils\common.c **** 		while (*pos == ':' || *pos == '.' || *pos == '-')
 148:C:/Users/stapi/OneDrive/Desktop/GD32VW553/V1_MQTT_OK/GD32VW55X_Wifi_BLE_SDK/GD32VW55x_RELEASE_V1.0.2/MSDK/wpa_supplicant/src/utils\common.c **** 			pos++;
 149:C:/Users/stapi/OneDrive/Desktop/GD32VW553/V1_MQTT_OK/GD32VW55X_Wifi_BLE_SDK/GD32VW55x_RELEASE_V1.0.2/MSDK/wpa_supplicant/src/utils\common.c **** 
 150:C:/Users/stapi/OneDrive/Desktop/GD32VW553/V1_MQTT_OK/GD32VW55X_Wifi_BLE_SDK/GD32VW55x_RELEASE_V1.0.2/MSDK/wpa_supplicant/src/utils\common.c **** 		a = hex2num(*pos++);
 151:C:/Users/stapi/OneDrive/Desktop/GD32VW553/V1_MQTT_OK/GD32VW55X_Wifi_BLE_SDK/GD32VW55x_RELEASE_V1.0.2/MSDK/wpa_supplicant/src/utils\common.c **** 		if (a < 0)
 152:C:/Users/stapi/OneDrive/Desktop/GD32VW553/V1_MQTT_OK/GD32VW55X_Wifi_BLE_SDK/GD32VW55x_RELEASE_V1.0.2/MSDK/wpa_supplicant/src/utils\common.c **** 			return -1;
 153:C:/Users/stapi/OneDrive/Desktop/GD32VW553/V1_MQTT_OK/GD32VW55X_Wifi_BLE_SDK/GD32VW55x_RELEASE_V1.0.2/MSDK/wpa_supplicant/src/utils\common.c **** 		b = hex2num(*pos++);
 154:C:/Users/stapi/OneDrive/Desktop/GD32VW553/V1_MQTT_OK/GD32VW55X_Wifi_BLE_SDK/GD32VW55x_RELEASE_V1.0.2/MSDK/wpa_supplicant/src/utils\common.c **** 		if (b < 0)
 155:C:/Users/stapi/OneDrive/Desktop/GD32VW553/V1_MQTT_OK/GD32VW55X_Wifi_BLE_SDK/GD32VW55x_RELEASE_V1.0.2/MSDK/wpa_supplicant/src/utils\common.c **** 			return -1;
 156:C:/Users/stapi/OneDrive/Desktop/GD32VW553/V1_MQTT_OK/GD32VW55X_Wifi_BLE_SDK/GD32VW55x_RELEASE_V1.0.2/MSDK/wpa_supplicant/src/utils\common.c **** 		*addr++ = (a << 4) | b;
 157:C:/Users/stapi/OneDrive/Desktop/GD32VW553/V1_MQTT_OK/GD32VW55X_Wifi_BLE_SDK/GD32VW55x_RELEASE_V1.0.2/MSDK/wpa_supplicant/src/utils\common.c **** 	}
 158:C:/Users/stapi/OneDrive/Desktop/GD32VW553/V1_MQTT_OK/GD32VW55X_Wifi_BLE_SDK/GD32VW55x_RELEASE_V1.0.2/MSDK/wpa_supplicant/src/utils\common.c **** 
 159:C:/Users/stapi/OneDrive/Desktop/GD32VW553/V1_MQTT_OK/GD32VW55X_Wifi_BLE_SDK/GD32VW55x_RELEASE_V1.0.2/MSDK/wpa_supplicant/src/utils\common.c **** 	return pos - txt;
 160:C:/Users/stapi/OneDrive/Desktop/GD32VW553/V1_MQTT_OK/GD32VW55X_Wifi_BLE_SDK/GD32VW55x_RELEASE_V1.0.2/MSDK/wpa_supplicant/src/utils\common.c **** }
 161:C:/Users/stapi/OneDrive/Desktop/GD32VW553/V1_MQTT_OK/GD32VW55X_Wifi_BLE_SDK/GD32VW55x_RELEASE_V1.0.2/MSDK/wpa_supplicant/src/utils\common.c **** 
 162:C:/Users/stapi/OneDrive/Desktop/GD32VW553/V1_MQTT_OK/GD32VW55X_Wifi_BLE_SDK/GD32VW55x_RELEASE_V1.0.2/MSDK/wpa_supplicant/src/utils\common.c **** 
 163:C:/Users/stapi/OneDrive/Desktop/GD32VW553/V1_MQTT_OK/GD32VW55X_Wifi_BLE_SDK/GD32VW55x_RELEASE_V1.0.2/MSDK/wpa_supplicant/src/utils\common.c **** /**
 164:C:/Users/stapi/OneDrive/Desktop/GD32VW553/V1_MQTT_OK/GD32VW55X_Wifi_BLE_SDK/GD32VW55x_RELEASE_V1.0.2/MSDK/wpa_supplicant/src/utils\common.c ****  * hexstr2bin - Convert ASCII hex string into binary data
 165:C:/Users/stapi/OneDrive/Desktop/GD32VW553/V1_MQTT_OK/GD32VW55X_Wifi_BLE_SDK/GD32VW55x_RELEASE_V1.0.2/MSDK/wpa_supplicant/src/utils\common.c ****  * @hex: ASCII hex string (e.g., "01ab")
 166:C:/Users/stapi/OneDrive/Desktop/GD32VW553/V1_MQTT_OK/GD32VW55X_Wifi_BLE_SDK/GD32VW55x_RELEASE_V1.0.2/MSDK/wpa_supplicant/src/utils\common.c ****  * @buf: Buffer for the binary data
 167:C:/Users/stapi/OneDrive/Desktop/GD32VW553/V1_MQTT_OK/GD32VW55X_Wifi_BLE_SDK/GD32VW55x_RELEASE_V1.0.2/MSDK/wpa_supplicant/src/utils\common.c ****  * @len: Length of the text to convert in bytes (of buf); hex will be double
 168:C:/Users/stapi/OneDrive/Desktop/GD32VW553/V1_MQTT_OK/GD32VW55X_Wifi_BLE_SDK/GD32VW55x_RELEASE_V1.0.2/MSDK/wpa_supplicant/src/utils\common.c ****  * this size
 169:C:/Users/stapi/OneDrive/Desktop/GD32VW553/V1_MQTT_OK/GD32VW55X_Wifi_BLE_SDK/GD32VW55x_RELEASE_V1.0.2/MSDK/wpa_supplicant/src/utils\common.c ****  * Returns: 0 on success, -1 on failure (invalid hex string)
 170:C:/Users/stapi/OneDrive/Desktop/GD32VW553/V1_MQTT_OK/GD32VW55X_Wifi_BLE_SDK/GD32VW55x_RELEASE_V1.0.2/MSDK/wpa_supplicant/src/utils\common.c ****  */
 171:C:/Users/stapi/OneDrive/Desktop/GD32VW553/V1_MQTT_OK/GD32VW55X_Wifi_BLE_SDK/GD32VW55x_RELEASE_V1.0.2/MSDK/wpa_supplicant/src/utils\common.c **** int hexstr2bin(const char *hex, u8 *buf, size_t len)
 172:C:/Users/stapi/OneDrive/Desktop/GD32VW553/V1_MQTT_OK/GD32VW55X_Wifi_BLE_SDK/GD32VW55x_RELEASE_V1.0.2/MSDK/wpa_supplicant/src/utils\common.c **** {
 173:C:/Users/stapi/OneDrive/Desktop/GD32VW553/V1_MQTT_OK/GD32VW55X_Wifi_BLE_SDK/GD32VW55x_RELEASE_V1.0.2/MSDK/wpa_supplicant/src/utils\common.c **** 	size_t i;
 174:C:/Users/stapi/OneDrive/Desktop/GD32VW553/V1_MQTT_OK/GD32VW55X_Wifi_BLE_SDK/GD32VW55x_RELEASE_V1.0.2/MSDK/wpa_supplicant/src/utils\common.c **** 	int a;
 175:C:/Users/stapi/OneDrive/Desktop/GD32VW553/V1_MQTT_OK/GD32VW55X_Wifi_BLE_SDK/GD32VW55x_RELEASE_V1.0.2/MSDK/wpa_supplicant/src/utils\common.c **** 	const char *ipos = hex;
 176:C:/Users/stapi/OneDrive/Desktop/GD32VW553/V1_MQTT_OK/GD32VW55X_Wifi_BLE_SDK/GD32VW55x_RELEASE_V1.0.2/MSDK/wpa_supplicant/src/utils\common.c **** 	u8 *opos = buf;
 177:C:/Users/stapi/OneDrive/Desktop/GD32VW553/V1_MQTT_OK/GD32VW55X_Wifi_BLE_SDK/GD32VW55x_RELEASE_V1.0.2/MSDK/wpa_supplicant/src/utils\common.c **** 
 178:C:/Users/stapi/OneDrive/Desktop/GD32VW553/V1_MQTT_OK/GD32VW55X_Wifi_BLE_SDK/GD32VW55x_RELEASE_V1.0.2/MSDK/wpa_supplicant/src/utils\common.c **** 	for (i = 0; i < len; i++) {
 179:C:/Users/stapi/OneDrive/Desktop/GD32VW553/V1_MQTT_OK/GD32VW55X_Wifi_BLE_SDK/GD32VW55x_RELEASE_V1.0.2/MSDK/wpa_supplicant/src/utils\common.c **** 		a = hex2byte(ipos);
 180:C:/Users/stapi/OneDrive/Desktop/GD32VW553/V1_MQTT_OK/GD32VW55X_Wifi_BLE_SDK/GD32VW55x_RELEASE_V1.0.2/MSDK/wpa_supplicant/src/utils\common.c **** 		if (a < 0)
 181:C:/Users/stapi/OneDrive/Desktop/GD32VW553/V1_MQTT_OK/GD32VW55X_Wifi_BLE_SDK/GD32VW55x_RELEASE_V1.0.2/MSDK/wpa_supplicant/src/utils\common.c **** 			return -1;
 182:C:/Users/stapi/OneDrive/Desktop/GD32VW553/V1_MQTT_OK/GD32VW55X_Wifi_BLE_SDK/GD32VW55x_RELEASE_V1.0.2/MSDK/wpa_supplicant/src/utils\common.c **** 		*opos++ = a;
 183:C:/Users/stapi/OneDrive/Desktop/GD32VW553/V1_MQTT_OK/GD32VW55X_Wifi_BLE_SDK/GD32VW55x_RELEASE_V1.0.2/MSDK/wpa_supplicant/src/utils\common.c **** 		ipos += 2;
 184:C:/Users/stapi/OneDrive/Desktop/GD32VW553/V1_MQTT_OK/GD32VW55X_Wifi_BLE_SDK/GD32VW55x_RELEASE_V1.0.2/MSDK/wpa_supplicant/src/utils\common.c **** 	}
 185:C:/Users/stapi/OneDrive/Desktop/GD32VW553/V1_MQTT_OK/GD32VW55X_Wifi_BLE_SDK/GD32VW55x_RELEASE_V1.0.2/MSDK/wpa_supplicant/src/utils\common.c **** 	return 0;
 186:C:/Users/stapi/OneDrive/Desktop/GD32VW553/V1_MQTT_OK/GD32VW55X_Wifi_BLE_SDK/GD32VW55x_RELEASE_V1.0.2/MSDK/wpa_supplicant/src/utils\common.c **** }
 187:C:/Users/stapi/OneDrive/Desktop/GD32VW553/V1_MQTT_OK/GD32VW55X_Wifi_BLE_SDK/GD32VW55x_RELEASE_V1.0.2/MSDK/wpa_supplicant/src/utils\common.c **** 
 188:C:/Users/stapi/OneDrive/Desktop/GD32VW553/V1_MQTT_OK/GD32VW55X_Wifi_BLE_SDK/GD32VW55x_RELEASE_V1.0.2/MSDK/wpa_supplicant/src/utils\common.c **** 
 189:C:/Users/stapi/OneDrive/Desktop/GD32VW553/V1_MQTT_OK/GD32VW55X_Wifi_BLE_SDK/GD32VW55x_RELEASE_V1.0.2/MSDK/wpa_supplicant/src/utils\common.c **** int hwaddr_mask_txt(char *buf, size_t len, const u8 *addr, const u8 *mask)
 190:C:/Users/stapi/OneDrive/Desktop/GD32VW553/V1_MQTT_OK/GD32VW55X_Wifi_BLE_SDK/GD32VW55x_RELEASE_V1.0.2/MSDK/wpa_supplicant/src/utils\common.c **** {
 191:C:/Users/stapi/OneDrive/Desktop/GD32VW553/V1_MQTT_OK/GD32VW55X_Wifi_BLE_SDK/GD32VW55x_RELEASE_V1.0.2/MSDK/wpa_supplicant/src/utils\common.c **** 	size_t i;
 192:C:/Users/stapi/OneDrive/Desktop/GD32VW553/V1_MQTT_OK/GD32VW55X_Wifi_BLE_SDK/GD32VW55x_RELEASE_V1.0.2/MSDK/wpa_supplicant/src/utils\common.c **** 	int print_mask = 0;
 193:C:/Users/stapi/OneDrive/Desktop/GD32VW553/V1_MQTT_OK/GD32VW55X_Wifi_BLE_SDK/GD32VW55x_RELEASE_V1.0.2/MSDK/wpa_supplicant/src/utils\common.c **** 	int res;
 194:C:/Users/stapi/OneDrive/Desktop/GD32VW553/V1_MQTT_OK/GD32VW55X_Wifi_BLE_SDK/GD32VW55x_RELEASE_V1.0.2/MSDK/wpa_supplicant/src/utils\common.c **** 
 195:C:/Users/stapi/OneDrive/Desktop/GD32VW553/V1_MQTT_OK/GD32VW55X_Wifi_BLE_SDK/GD32VW55x_RELEASE_V1.0.2/MSDK/wpa_supplicant/src/utils\common.c **** 	for (i = 0; i < ETH_ALEN; i++) {
 196:C:/Users/stapi/OneDrive/Desktop/GD32VW553/V1_MQTT_OK/GD32VW55X_Wifi_BLE_SDK/GD32VW55x_RELEASE_V1.0.2/MSDK/wpa_supplicant/src/utils\common.c **** 		if (mask[i] != 0xff) {
 197:C:/Users/stapi/OneDrive/Desktop/GD32VW553/V1_MQTT_OK/GD32VW55X_Wifi_BLE_SDK/GD32VW55x_RELEASE_V1.0.2/MSDK/wpa_supplicant/src/utils\common.c **** 			print_mask = 1;
 198:C:/Users/stapi/OneDrive/Desktop/GD32VW553/V1_MQTT_OK/GD32VW55X_Wifi_BLE_SDK/GD32VW55x_RELEASE_V1.0.2/MSDK/wpa_supplicant/src/utils\common.c **** 			break;
 199:C:/Users/stapi/OneDrive/Desktop/GD32VW553/V1_MQTT_OK/GD32VW55X_Wifi_BLE_SDK/GD32VW55x_RELEASE_V1.0.2/MSDK/wpa_supplicant/src/utils\common.c **** 		}
 200:C:/Users/stapi/OneDrive/Desktop/GD32VW553/V1_MQTT_OK/GD32VW55X_Wifi_BLE_SDK/GD32VW55x_RELEASE_V1.0.2/MSDK/wpa_supplicant/src/utils\common.c **** 	}
 201:C:/Users/stapi/OneDrive/Desktop/GD32VW553/V1_MQTT_OK/GD32VW55X_Wifi_BLE_SDK/GD32VW55x_RELEASE_V1.0.2/MSDK/wpa_supplicant/src/utils\common.c **** 
 202:C:/Users/stapi/OneDrive/Desktop/GD32VW553/V1_MQTT_OK/GD32VW55X_Wifi_BLE_SDK/GD32VW55x_RELEASE_V1.0.2/MSDK/wpa_supplicant/src/utils\common.c **** 	if (print_mask)
 203:C:/Users/stapi/OneDrive/Desktop/GD32VW553/V1_MQTT_OK/GD32VW55X_Wifi_BLE_SDK/GD32VW55x_RELEASE_V1.0.2/MSDK/wpa_supplicant/src/utils\common.c **** 		res = os_snprintf(buf, len, MACSTR "/" MACSTR,
 204:C:/Users/stapi/OneDrive/Desktop/GD32VW553/V1_MQTT_OK/GD32VW55X_Wifi_BLE_SDK/GD32VW55x_RELEASE_V1.0.2/MSDK/wpa_supplicant/src/utils\common.c **** 				  MAC2STR(addr), MAC2STR(mask));
 205:C:/Users/stapi/OneDrive/Desktop/GD32VW553/V1_MQTT_OK/GD32VW55X_Wifi_BLE_SDK/GD32VW55x_RELEASE_V1.0.2/MSDK/wpa_supplicant/src/utils\common.c **** 	else
 206:C:/Users/stapi/OneDrive/Desktop/GD32VW553/V1_MQTT_OK/GD32VW55X_Wifi_BLE_SDK/GD32VW55x_RELEASE_V1.0.2/MSDK/wpa_supplicant/src/utils\common.c **** 		res = os_snprintf(buf, len, MACSTR, MAC2STR(addr));
 207:C:/Users/stapi/OneDrive/Desktop/GD32VW553/V1_MQTT_OK/GD32VW55X_Wifi_BLE_SDK/GD32VW55x_RELEASE_V1.0.2/MSDK/wpa_supplicant/src/utils\common.c **** 	if (os_snprintf_error(len, res))
 208:C:/Users/stapi/OneDrive/Desktop/GD32VW553/V1_MQTT_OK/GD32VW55X_Wifi_BLE_SDK/GD32VW55x_RELEASE_V1.0.2/MSDK/wpa_supplicant/src/utils\common.c **** 		return -1;
 209:C:/Users/stapi/OneDrive/Desktop/GD32VW553/V1_MQTT_OK/GD32VW55X_Wifi_BLE_SDK/GD32VW55x_RELEASE_V1.0.2/MSDK/wpa_supplicant/src/utils\common.c **** 	return res;
 210:C:/Users/stapi/OneDrive/Desktop/GD32VW553/V1_MQTT_OK/GD32VW55X_Wifi_BLE_SDK/GD32VW55x_RELEASE_V1.0.2/MSDK/wpa_supplicant/src/utils\common.c **** }
 211:C:/Users/stapi/OneDrive/Desktop/GD32VW553/V1_MQTT_OK/GD32VW55X_Wifi_BLE_SDK/GD32VW55x_RELEASE_V1.0.2/MSDK/wpa_supplicant/src/utils\common.c **** 
 212:C:/Users/stapi/OneDrive/Desktop/GD32VW553/V1_MQTT_OK/GD32VW55X_Wifi_BLE_SDK/GD32VW55x_RELEASE_V1.0.2/MSDK/wpa_supplicant/src/utils\common.c **** 
 213:C:/Users/stapi/OneDrive/Desktop/GD32VW553/V1_MQTT_OK/GD32VW55X_Wifi_BLE_SDK/GD32VW55x_RELEASE_V1.0.2/MSDK/wpa_supplicant/src/utils\common.c **** /**
 214:C:/Users/stapi/OneDrive/Desktop/GD32VW553/V1_MQTT_OK/GD32VW55X_Wifi_BLE_SDK/GD32VW55x_RELEASE_V1.0.2/MSDK/wpa_supplicant/src/utils\common.c ****  * inc_byte_array - Increment arbitrary length byte array by one
 215:C:/Users/stapi/OneDrive/Desktop/GD32VW553/V1_MQTT_OK/GD32VW55X_Wifi_BLE_SDK/GD32VW55x_RELEASE_V1.0.2/MSDK/wpa_supplicant/src/utils\common.c ****  * @counter: Pointer to byte array
 216:C:/Users/stapi/OneDrive/Desktop/GD32VW553/V1_MQTT_OK/GD32VW55X_Wifi_BLE_SDK/GD32VW55x_RELEASE_V1.0.2/MSDK/wpa_supplicant/src/utils\common.c ****  * @len: Length of the counter in bytes
 217:C:/Users/stapi/OneDrive/Desktop/GD32VW553/V1_MQTT_OK/GD32VW55X_Wifi_BLE_SDK/GD32VW55x_RELEASE_V1.0.2/MSDK/wpa_supplicant/src/utils\common.c ****  *
 218:C:/Users/stapi/OneDrive/Desktop/GD32VW553/V1_MQTT_OK/GD32VW55X_Wifi_BLE_SDK/GD32VW55x_RELEASE_V1.0.2/MSDK/wpa_supplicant/src/utils\common.c ****  * This function increments the last byte of the counter by one and continues
 219:C:/Users/stapi/OneDrive/Desktop/GD32VW553/V1_MQTT_OK/GD32VW55X_Wifi_BLE_SDK/GD32VW55x_RELEASE_V1.0.2/MSDK/wpa_supplicant/src/utils\common.c ****  * rolling over to more significant bytes if the byte was incremented from
 220:C:/Users/stapi/OneDrive/Desktop/GD32VW553/V1_MQTT_OK/GD32VW55X_Wifi_BLE_SDK/GD32VW55x_RELEASE_V1.0.2/MSDK/wpa_supplicant/src/utils\common.c ****  * 0xff to 0x00.
 221:C:/Users/stapi/OneDrive/Desktop/GD32VW553/V1_MQTT_OK/GD32VW55X_Wifi_BLE_SDK/GD32VW55x_RELEASE_V1.0.2/MSDK/wpa_supplicant/src/utils\common.c ****  */
 222:C:/Users/stapi/OneDrive/Desktop/GD32VW553/V1_MQTT_OK/GD32VW55X_Wifi_BLE_SDK/GD32VW55x_RELEASE_V1.0.2/MSDK/wpa_supplicant/src/utils\common.c **** void inc_byte_array(u8 *counter, size_t len)
 223:C:/Users/stapi/OneDrive/Desktop/GD32VW553/V1_MQTT_OK/GD32VW55X_Wifi_BLE_SDK/GD32VW55x_RELEASE_V1.0.2/MSDK/wpa_supplicant/src/utils\common.c **** {
 224:C:/Users/stapi/OneDrive/Desktop/GD32VW553/V1_MQTT_OK/GD32VW55X_Wifi_BLE_SDK/GD32VW55x_RELEASE_V1.0.2/MSDK/wpa_supplicant/src/utils\common.c **** 	int pos = len - 1;
 225:C:/Users/stapi/OneDrive/Desktop/GD32VW553/V1_MQTT_OK/GD32VW55X_Wifi_BLE_SDK/GD32VW55x_RELEASE_V1.0.2/MSDK/wpa_supplicant/src/utils\common.c **** 	while (pos >= 0) {
 226:C:/Users/stapi/OneDrive/Desktop/GD32VW553/V1_MQTT_OK/GD32VW55X_Wifi_BLE_SDK/GD32VW55x_RELEASE_V1.0.2/MSDK/wpa_supplicant/src/utils\common.c **** 		counter[pos]++;
 227:C:/Users/stapi/OneDrive/Desktop/GD32VW553/V1_MQTT_OK/GD32VW55X_Wifi_BLE_SDK/GD32VW55x_RELEASE_V1.0.2/MSDK/wpa_supplicant/src/utils\common.c **** 		if (counter[pos] != 0)
 228:C:/Users/stapi/OneDrive/Desktop/GD32VW553/V1_MQTT_OK/GD32VW55X_Wifi_BLE_SDK/GD32VW55x_RELEASE_V1.0.2/MSDK/wpa_supplicant/src/utils\common.c **** 			break;
 229:C:/Users/stapi/OneDrive/Desktop/GD32VW553/V1_MQTT_OK/GD32VW55X_Wifi_BLE_SDK/GD32VW55x_RELEASE_V1.0.2/MSDK/wpa_supplicant/src/utils\common.c **** 		pos--;
 230:C:/Users/stapi/OneDrive/Desktop/GD32VW553/V1_MQTT_OK/GD32VW55X_Wifi_BLE_SDK/GD32VW55x_RELEASE_V1.0.2/MSDK/wpa_supplicant/src/utils\common.c **** 	}
 231:C:/Users/stapi/OneDrive/Desktop/GD32VW553/V1_MQTT_OK/GD32VW55X_Wifi_BLE_SDK/GD32VW55x_RELEASE_V1.0.2/MSDK/wpa_supplicant/src/utils\common.c **** }
 232:C:/Users/stapi/OneDrive/Desktop/GD32VW553/V1_MQTT_OK/GD32VW55X_Wifi_BLE_SDK/GD32VW55x_RELEASE_V1.0.2/MSDK/wpa_supplicant/src/utils\common.c **** 
 233:C:/Users/stapi/OneDrive/Desktop/GD32VW553/V1_MQTT_OK/GD32VW55X_Wifi_BLE_SDK/GD32VW55x_RELEASE_V1.0.2/MSDK/wpa_supplicant/src/utils\common.c **** 
 234:C:/Users/stapi/OneDrive/Desktop/GD32VW553/V1_MQTT_OK/GD32VW55X_Wifi_BLE_SDK/GD32VW55x_RELEASE_V1.0.2/MSDK/wpa_supplicant/src/utils\common.c **** void buf_shift_right(u8 *buf, size_t len, size_t bits)
 235:C:/Users/stapi/OneDrive/Desktop/GD32VW553/V1_MQTT_OK/GD32VW55X_Wifi_BLE_SDK/GD32VW55x_RELEASE_V1.0.2/MSDK/wpa_supplicant/src/utils\common.c **** {
 236:C:/Users/stapi/OneDrive/Desktop/GD32VW553/V1_MQTT_OK/GD32VW55X_Wifi_BLE_SDK/GD32VW55x_RELEASE_V1.0.2/MSDK/wpa_supplicant/src/utils\common.c **** 	size_t i;
 237:C:/Users/stapi/OneDrive/Desktop/GD32VW553/V1_MQTT_OK/GD32VW55X_Wifi_BLE_SDK/GD32VW55x_RELEASE_V1.0.2/MSDK/wpa_supplicant/src/utils\common.c **** 
 238:C:/Users/stapi/OneDrive/Desktop/GD32VW553/V1_MQTT_OK/GD32VW55X_Wifi_BLE_SDK/GD32VW55x_RELEASE_V1.0.2/MSDK/wpa_supplicant/src/utils\common.c **** 	for (i = len - 1; i > 0; i--)
 239:C:/Users/stapi/OneDrive/Desktop/GD32VW553/V1_MQTT_OK/GD32VW55X_Wifi_BLE_SDK/GD32VW55x_RELEASE_V1.0.2/MSDK/wpa_supplicant/src/utils\common.c **** 		buf[i] = (buf[i - 1] << (8 - bits)) | (buf[i] >> bits);
 240:C:/Users/stapi/OneDrive/Desktop/GD32VW553/V1_MQTT_OK/GD32VW55X_Wifi_BLE_SDK/GD32VW55x_RELEASE_V1.0.2/MSDK/wpa_supplicant/src/utils\common.c **** 	buf[0] >>= bits;
 241:C:/Users/stapi/OneDrive/Desktop/GD32VW553/V1_MQTT_OK/GD32VW55X_Wifi_BLE_SDK/GD32VW55x_RELEASE_V1.0.2/MSDK/wpa_supplicant/src/utils\common.c **** }
 242:C:/Users/stapi/OneDrive/Desktop/GD32VW553/V1_MQTT_OK/GD32VW55X_Wifi_BLE_SDK/GD32VW55x_RELEASE_V1.0.2/MSDK/wpa_supplicant/src/utils\common.c **** 
 243:C:/Users/stapi/OneDrive/Desktop/GD32VW553/V1_MQTT_OK/GD32VW55X_Wifi_BLE_SDK/GD32VW55x_RELEASE_V1.0.2/MSDK/wpa_supplicant/src/utils\common.c **** 
 244:C:/Users/stapi/OneDrive/Desktop/GD32VW553/V1_MQTT_OK/GD32VW55X_Wifi_BLE_SDK/GD32VW55x_RELEASE_V1.0.2/MSDK/wpa_supplicant/src/utils\common.c **** void wpa_get_ntp_timestamp(u8 *buf)
 245:C:/Users/stapi/OneDrive/Desktop/GD32VW553/V1_MQTT_OK/GD32VW55X_Wifi_BLE_SDK/GD32VW55x_RELEASE_V1.0.2/MSDK/wpa_supplicant/src/utils\common.c **** {
 246:C:/Users/stapi/OneDrive/Desktop/GD32VW553/V1_MQTT_OK/GD32VW55X_Wifi_BLE_SDK/GD32VW55x_RELEASE_V1.0.2/MSDK/wpa_supplicant/src/utils\common.c **** 	struct os_time now;
 247:C:/Users/stapi/OneDrive/Desktop/GD32VW553/V1_MQTT_OK/GD32VW55X_Wifi_BLE_SDK/GD32VW55x_RELEASE_V1.0.2/MSDK/wpa_supplicant/src/utils\common.c **** 	u32 sec, usec;
 248:C:/Users/stapi/OneDrive/Desktop/GD32VW553/V1_MQTT_OK/GD32VW55X_Wifi_BLE_SDK/GD32VW55x_RELEASE_V1.0.2/MSDK/wpa_supplicant/src/utils\common.c **** 	be32 tmp;
 249:C:/Users/stapi/OneDrive/Desktop/GD32VW553/V1_MQTT_OK/GD32VW55X_Wifi_BLE_SDK/GD32VW55x_RELEASE_V1.0.2/MSDK/wpa_supplicant/src/utils\common.c **** 
 250:C:/Users/stapi/OneDrive/Desktop/GD32VW553/V1_MQTT_OK/GD32VW55X_Wifi_BLE_SDK/GD32VW55x_RELEASE_V1.0.2/MSDK/wpa_supplicant/src/utils\common.c **** 	/* 64-bit NTP timestamp (time from 1900-01-01 00:00:00) */
 251:C:/Users/stapi/OneDrive/Desktop/GD32VW553/V1_MQTT_OK/GD32VW55X_Wifi_BLE_SDK/GD32VW55x_RELEASE_V1.0.2/MSDK/wpa_supplicant/src/utils\common.c **** 	os_get_time(&now);
 252:C:/Users/stapi/OneDrive/Desktop/GD32VW553/V1_MQTT_OK/GD32VW55X_Wifi_BLE_SDK/GD32VW55x_RELEASE_V1.0.2/MSDK/wpa_supplicant/src/utils\common.c **** 	sec = now.sec + 2208988800U; /* Epoch to 1900 */
 253:C:/Users/stapi/OneDrive/Desktop/GD32VW553/V1_MQTT_OK/GD32VW55X_Wifi_BLE_SDK/GD32VW55x_RELEASE_V1.0.2/MSDK/wpa_supplicant/src/utils\common.c **** 	/* Estimate 2^32/10^6 = 4295 - 1/32 - 1/512 */
 254:C:/Users/stapi/OneDrive/Desktop/GD32VW553/V1_MQTT_OK/GD32VW55X_Wifi_BLE_SDK/GD32VW55x_RELEASE_V1.0.2/MSDK/wpa_supplicant/src/utils\common.c **** 	usec = now.usec;
 255:C:/Users/stapi/OneDrive/Desktop/GD32VW553/V1_MQTT_OK/GD32VW55X_Wifi_BLE_SDK/GD32VW55x_RELEASE_V1.0.2/MSDK/wpa_supplicant/src/utils\common.c **** 	usec = 4295 * usec - (usec >> 5) - (usec >> 9);
 256:C:/Users/stapi/OneDrive/Desktop/GD32VW553/V1_MQTT_OK/GD32VW55X_Wifi_BLE_SDK/GD32VW55x_RELEASE_V1.0.2/MSDK/wpa_supplicant/src/utils\common.c **** 	tmp = host_to_be32(sec);
 257:C:/Users/stapi/OneDrive/Desktop/GD32VW553/V1_MQTT_OK/GD32VW55X_Wifi_BLE_SDK/GD32VW55x_RELEASE_V1.0.2/MSDK/wpa_supplicant/src/utils\common.c **** 	os_memcpy(buf, (u8 *) &tmp, 4);
 258:C:/Users/stapi/OneDrive/Desktop/GD32VW553/V1_MQTT_OK/GD32VW55X_Wifi_BLE_SDK/GD32VW55x_RELEASE_V1.0.2/MSDK/wpa_supplicant/src/utils\common.c **** 	tmp = host_to_be32(usec);
 259:C:/Users/stapi/OneDrive/Desktop/GD32VW553/V1_MQTT_OK/GD32VW55X_Wifi_BLE_SDK/GD32VW55x_RELEASE_V1.0.2/MSDK/wpa_supplicant/src/utils\common.c **** 	os_memcpy(buf + 4, (u8 *) &tmp, 4);
 260:C:/Users/stapi/OneDrive/Desktop/GD32VW553/V1_MQTT_OK/GD32VW55X_Wifi_BLE_SDK/GD32VW55x_RELEASE_V1.0.2/MSDK/wpa_supplicant/src/utils\common.c **** }
 261:C:/Users/stapi/OneDrive/Desktop/GD32VW553/V1_MQTT_OK/GD32VW55X_Wifi_BLE_SDK/GD32VW55x_RELEASE_V1.0.2/MSDK/wpa_supplicant/src/utils\common.c **** 
 262:C:/Users/stapi/OneDrive/Desktop/GD32VW553/V1_MQTT_OK/GD32VW55X_Wifi_BLE_SDK/GD32VW55x_RELEASE_V1.0.2/MSDK/wpa_supplicant/src/utils\common.c **** /**
 263:C:/Users/stapi/OneDrive/Desktop/GD32VW553/V1_MQTT_OK/GD32VW55X_Wifi_BLE_SDK/GD32VW55x_RELEASE_V1.0.2/MSDK/wpa_supplicant/src/utils\common.c ****  * wpa_scnprintf - Simpler-to-use snprintf function
 264:C:/Users/stapi/OneDrive/Desktop/GD32VW553/V1_MQTT_OK/GD32VW55X_Wifi_BLE_SDK/GD32VW55x_RELEASE_V1.0.2/MSDK/wpa_supplicant/src/utils\common.c ****  * @buf: Output buffer
 265:C:/Users/stapi/OneDrive/Desktop/GD32VW553/V1_MQTT_OK/GD32VW55X_Wifi_BLE_SDK/GD32VW55x_RELEASE_V1.0.2/MSDK/wpa_supplicant/src/utils\common.c ****  * @size: Buffer size
 266:C:/Users/stapi/OneDrive/Desktop/GD32VW553/V1_MQTT_OK/GD32VW55X_Wifi_BLE_SDK/GD32VW55x_RELEASE_V1.0.2/MSDK/wpa_supplicant/src/utils\common.c ****  * @fmt: format
 267:C:/Users/stapi/OneDrive/Desktop/GD32VW553/V1_MQTT_OK/GD32VW55X_Wifi_BLE_SDK/GD32VW55x_RELEASE_V1.0.2/MSDK/wpa_supplicant/src/utils\common.c ****  *
 268:C:/Users/stapi/OneDrive/Desktop/GD32VW553/V1_MQTT_OK/GD32VW55X_Wifi_BLE_SDK/GD32VW55x_RELEASE_V1.0.2/MSDK/wpa_supplicant/src/utils\common.c ****  * Simpler snprintf version that doesn't require further error checks - the
 269:C:/Users/stapi/OneDrive/Desktop/GD32VW553/V1_MQTT_OK/GD32VW55X_Wifi_BLE_SDK/GD32VW55x_RELEASE_V1.0.2/MSDK/wpa_supplicant/src/utils\common.c ****  * return value only indicates how many bytes were actually written, excluding
 270:C:/Users/stapi/OneDrive/Desktop/GD32VW553/V1_MQTT_OK/GD32VW55X_Wifi_BLE_SDK/GD32VW55x_RELEASE_V1.0.2/MSDK/wpa_supplicant/src/utils\common.c ****  * the NULL byte (i.e., 0 on error, size-1 if buffer is not big enough).
 271:C:/Users/stapi/OneDrive/Desktop/GD32VW553/V1_MQTT_OK/GD32VW55X_Wifi_BLE_SDK/GD32VW55x_RELEASE_V1.0.2/MSDK/wpa_supplicant/src/utils\common.c ****  */
 272:C:/Users/stapi/OneDrive/Desktop/GD32VW553/V1_MQTT_OK/GD32VW55X_Wifi_BLE_SDK/GD32VW55x_RELEASE_V1.0.2/MSDK/wpa_supplicant/src/utils\common.c **** int wpa_scnprintf(char *buf, size_t size, const char *fmt, ...)
 273:C:/Users/stapi/OneDrive/Desktop/GD32VW553/V1_MQTT_OK/GD32VW55X_Wifi_BLE_SDK/GD32VW55x_RELEASE_V1.0.2/MSDK/wpa_supplicant/src/utils\common.c **** {
 274:C:/Users/stapi/OneDrive/Desktop/GD32VW553/V1_MQTT_OK/GD32VW55X_Wifi_BLE_SDK/GD32VW55x_RELEASE_V1.0.2/MSDK/wpa_supplicant/src/utils\common.c **** 	va_list ap;
 275:C:/Users/stapi/OneDrive/Desktop/GD32VW553/V1_MQTT_OK/GD32VW55X_Wifi_BLE_SDK/GD32VW55x_RELEASE_V1.0.2/MSDK/wpa_supplicant/src/utils\common.c **** 	int ret;
 276:C:/Users/stapi/OneDrive/Desktop/GD32VW553/V1_MQTT_OK/GD32VW55X_Wifi_BLE_SDK/GD32VW55x_RELEASE_V1.0.2/MSDK/wpa_supplicant/src/utils\common.c **** 
 277:C:/Users/stapi/OneDrive/Desktop/GD32VW553/V1_MQTT_OK/GD32VW55X_Wifi_BLE_SDK/GD32VW55x_RELEASE_V1.0.2/MSDK/wpa_supplicant/src/utils\common.c **** 	if (!size)
 278:C:/Users/stapi/OneDrive/Desktop/GD32VW553/V1_MQTT_OK/GD32VW55X_Wifi_BLE_SDK/GD32VW55x_RELEASE_V1.0.2/MSDK/wpa_supplicant/src/utils\common.c **** 		return 0;
 279:C:/Users/stapi/OneDrive/Desktop/GD32VW553/V1_MQTT_OK/GD32VW55X_Wifi_BLE_SDK/GD32VW55x_RELEASE_V1.0.2/MSDK/wpa_supplicant/src/utils\common.c **** 
 280:C:/Users/stapi/OneDrive/Desktop/GD32VW553/V1_MQTT_OK/GD32VW55X_Wifi_BLE_SDK/GD32VW55x_RELEASE_V1.0.2/MSDK/wpa_supplicant/src/utils\common.c **** 	va_start(ap, fmt);
 281:C:/Users/stapi/OneDrive/Desktop/GD32VW553/V1_MQTT_OK/GD32VW55X_Wifi_BLE_SDK/GD32VW55x_RELEASE_V1.0.2/MSDK/wpa_supplicant/src/utils\common.c **** 	ret = vsnprintf(buf, size, fmt, ap);
 282:C:/Users/stapi/OneDrive/Desktop/GD32VW553/V1_MQTT_OK/GD32VW55X_Wifi_BLE_SDK/GD32VW55x_RELEASE_V1.0.2/MSDK/wpa_supplicant/src/utils\common.c **** 	va_end(ap);
 283:C:/Users/stapi/OneDrive/Desktop/GD32VW553/V1_MQTT_OK/GD32VW55X_Wifi_BLE_SDK/GD32VW55x_RELEASE_V1.0.2/MSDK/wpa_supplicant/src/utils\common.c **** 
 284:C:/Users/stapi/OneDrive/Desktop/GD32VW553/V1_MQTT_OK/GD32VW55X_Wifi_BLE_SDK/GD32VW55x_RELEASE_V1.0.2/MSDK/wpa_supplicant/src/utils\common.c **** 	if (ret < 0)
 285:C:/Users/stapi/OneDrive/Desktop/GD32VW553/V1_MQTT_OK/GD32VW55X_Wifi_BLE_SDK/GD32VW55x_RELEASE_V1.0.2/MSDK/wpa_supplicant/src/utils\common.c **** 		return 0;
 286:C:/Users/stapi/OneDrive/Desktop/GD32VW553/V1_MQTT_OK/GD32VW55X_Wifi_BLE_SDK/GD32VW55x_RELEASE_V1.0.2/MSDK/wpa_supplicant/src/utils\common.c **** 	if ((size_t) ret >= size)
 287:C:/Users/stapi/OneDrive/Desktop/GD32VW553/V1_MQTT_OK/GD32VW55X_Wifi_BLE_SDK/GD32VW55x_RELEASE_V1.0.2/MSDK/wpa_supplicant/src/utils\common.c **** 		return size - 1;
 288:C:/Users/stapi/OneDrive/Desktop/GD32VW553/V1_MQTT_OK/GD32VW55X_Wifi_BLE_SDK/GD32VW55x_RELEASE_V1.0.2/MSDK/wpa_supplicant/src/utils\common.c **** 
 289:C:/Users/stapi/OneDrive/Desktop/GD32VW553/V1_MQTT_OK/GD32VW55X_Wifi_BLE_SDK/GD32VW55x_RELEASE_V1.0.2/MSDK/wpa_supplicant/src/utils\common.c **** 	return ret;
 290:C:/Users/stapi/OneDrive/Desktop/GD32VW553/V1_MQTT_OK/GD32VW55X_Wifi_BLE_SDK/GD32VW55x_RELEASE_V1.0.2/MSDK/wpa_supplicant/src/utils\common.c **** }
 291:C:/Users/stapi/OneDrive/Desktop/GD32VW553/V1_MQTT_OK/GD32VW55X_Wifi_BLE_SDK/GD32VW55x_RELEASE_V1.0.2/MSDK/wpa_supplicant/src/utils\common.c **** 
 292:C:/Users/stapi/OneDrive/Desktop/GD32VW553/V1_MQTT_OK/GD32VW55X_Wifi_BLE_SDK/GD32VW55x_RELEASE_V1.0.2/MSDK/wpa_supplicant/src/utils\common.c **** 
 293:C:/Users/stapi/OneDrive/Desktop/GD32VW553/V1_MQTT_OK/GD32VW55X_Wifi_BLE_SDK/GD32VW55x_RELEASE_V1.0.2/MSDK/wpa_supplicant/src/utils\common.c **** int wpa_snprintf_hex_sep(char *buf, size_t buf_size, const u8 *data, size_t len,
 294:C:/Users/stapi/OneDrive/Desktop/GD32VW553/V1_MQTT_OK/GD32VW55X_Wifi_BLE_SDK/GD32VW55x_RELEASE_V1.0.2/MSDK/wpa_supplicant/src/utils\common.c **** 			 char sep)
 295:C:/Users/stapi/OneDrive/Desktop/GD32VW553/V1_MQTT_OK/GD32VW55X_Wifi_BLE_SDK/GD32VW55x_RELEASE_V1.0.2/MSDK/wpa_supplicant/src/utils\common.c **** {
 296:C:/Users/stapi/OneDrive/Desktop/GD32VW553/V1_MQTT_OK/GD32VW55X_Wifi_BLE_SDK/GD32VW55x_RELEASE_V1.0.2/MSDK/wpa_supplicant/src/utils\common.c **** 	size_t i;
 297:C:/Users/stapi/OneDrive/Desktop/GD32VW553/V1_MQTT_OK/GD32VW55X_Wifi_BLE_SDK/GD32VW55x_RELEASE_V1.0.2/MSDK/wpa_supplicant/src/utils\common.c **** 	char *pos = buf, *end = buf + buf_size;
 298:C:/Users/stapi/OneDrive/Desktop/GD32VW553/V1_MQTT_OK/GD32VW55X_Wifi_BLE_SDK/GD32VW55x_RELEASE_V1.0.2/MSDK/wpa_supplicant/src/utils\common.c **** 	int ret;
 299:C:/Users/stapi/OneDrive/Desktop/GD32VW553/V1_MQTT_OK/GD32VW55X_Wifi_BLE_SDK/GD32VW55x_RELEASE_V1.0.2/MSDK/wpa_supplicant/src/utils\common.c **** 
 300:C:/Users/stapi/OneDrive/Desktop/GD32VW553/V1_MQTT_OK/GD32VW55X_Wifi_BLE_SDK/GD32VW55x_RELEASE_V1.0.2/MSDK/wpa_supplicant/src/utils\common.c **** 	if (buf_size == 0)
 301:C:/Users/stapi/OneDrive/Desktop/GD32VW553/V1_MQTT_OK/GD32VW55X_Wifi_BLE_SDK/GD32VW55x_RELEASE_V1.0.2/MSDK/wpa_supplicant/src/utils\common.c **** 		return 0;
 302:C:/Users/stapi/OneDrive/Desktop/GD32VW553/V1_MQTT_OK/GD32VW55X_Wifi_BLE_SDK/GD32VW55x_RELEASE_V1.0.2/MSDK/wpa_supplicant/src/utils\common.c **** 
 303:C:/Users/stapi/OneDrive/Desktop/GD32VW553/V1_MQTT_OK/GD32VW55X_Wifi_BLE_SDK/GD32VW55x_RELEASE_V1.0.2/MSDK/wpa_supplicant/src/utils\common.c **** 	for (i = 0; i < len; i++) {
 304:C:/Users/stapi/OneDrive/Desktop/GD32VW553/V1_MQTT_OK/GD32VW55X_Wifi_BLE_SDK/GD32VW55x_RELEASE_V1.0.2/MSDK/wpa_supplicant/src/utils\common.c **** 		ret = os_snprintf(pos, end - pos, "%02x%c",
 305:C:/Users/stapi/OneDrive/Desktop/GD32VW553/V1_MQTT_OK/GD32VW55X_Wifi_BLE_SDK/GD32VW55x_RELEASE_V1.0.2/MSDK/wpa_supplicant/src/utils\common.c **** 				  data[i], sep);
 306:C:/Users/stapi/OneDrive/Desktop/GD32VW553/V1_MQTT_OK/GD32VW55X_Wifi_BLE_SDK/GD32VW55x_RELEASE_V1.0.2/MSDK/wpa_supplicant/src/utils\common.c **** 		if (os_snprintf_error(end - pos, ret)) {
 307:C:/Users/stapi/OneDrive/Desktop/GD32VW553/V1_MQTT_OK/GD32VW55X_Wifi_BLE_SDK/GD32VW55x_RELEASE_V1.0.2/MSDK/wpa_supplicant/src/utils\common.c **** 			end[-1] = '\0';
 308:C:/Users/stapi/OneDrive/Desktop/GD32VW553/V1_MQTT_OK/GD32VW55X_Wifi_BLE_SDK/GD32VW55x_RELEASE_V1.0.2/MSDK/wpa_supplicant/src/utils\common.c **** 			return pos - buf;
 309:C:/Users/stapi/OneDrive/Desktop/GD32VW553/V1_MQTT_OK/GD32VW55X_Wifi_BLE_SDK/GD32VW55x_RELEASE_V1.0.2/MSDK/wpa_supplicant/src/utils\common.c **** 		}
 310:C:/Users/stapi/OneDrive/Desktop/GD32VW553/V1_MQTT_OK/GD32VW55X_Wifi_BLE_SDK/GD32VW55x_RELEASE_V1.0.2/MSDK/wpa_supplicant/src/utils\common.c **** 		pos += ret;
 311:C:/Users/stapi/OneDrive/Desktop/GD32VW553/V1_MQTT_OK/GD32VW55X_Wifi_BLE_SDK/GD32VW55x_RELEASE_V1.0.2/MSDK/wpa_supplicant/src/utils\common.c **** 	}
 312:C:/Users/stapi/OneDrive/Desktop/GD32VW553/V1_MQTT_OK/GD32VW55X_Wifi_BLE_SDK/GD32VW55x_RELEASE_V1.0.2/MSDK/wpa_supplicant/src/utils\common.c **** 	pos[-1] = '\0';
 313:C:/Users/stapi/OneDrive/Desktop/GD32VW553/V1_MQTT_OK/GD32VW55X_Wifi_BLE_SDK/GD32VW55x_RELEASE_V1.0.2/MSDK/wpa_supplicant/src/utils\common.c **** 	return pos - buf;
 314:C:/Users/stapi/OneDrive/Desktop/GD32VW553/V1_MQTT_OK/GD32VW55X_Wifi_BLE_SDK/GD32VW55x_RELEASE_V1.0.2/MSDK/wpa_supplicant/src/utils\common.c **** }
 315:C:/Users/stapi/OneDrive/Desktop/GD32VW553/V1_MQTT_OK/GD32VW55X_Wifi_BLE_SDK/GD32VW55x_RELEASE_V1.0.2/MSDK/wpa_supplicant/src/utils\common.c **** 
 316:C:/Users/stapi/OneDrive/Desktop/GD32VW553/V1_MQTT_OK/GD32VW55X_Wifi_BLE_SDK/GD32VW55x_RELEASE_V1.0.2/MSDK/wpa_supplicant/src/utils\common.c **** 
 317:C:/Users/stapi/OneDrive/Desktop/GD32VW553/V1_MQTT_OK/GD32VW55X_Wifi_BLE_SDK/GD32VW55x_RELEASE_V1.0.2/MSDK/wpa_supplicant/src/utils\common.c **** static inline int _wpa_snprintf_hex(char *buf, size_t buf_size, const u8 *data,
 318:C:/Users/stapi/OneDrive/Desktop/GD32VW553/V1_MQTT_OK/GD32VW55X_Wifi_BLE_SDK/GD32VW55x_RELEASE_V1.0.2/MSDK/wpa_supplicant/src/utils\common.c **** 				    size_t len, int uppercase)
 319:C:/Users/stapi/OneDrive/Desktop/GD32VW553/V1_MQTT_OK/GD32VW55X_Wifi_BLE_SDK/GD32VW55x_RELEASE_V1.0.2/MSDK/wpa_supplicant/src/utils\common.c **** {
 320:C:/Users/stapi/OneDrive/Desktop/GD32VW553/V1_MQTT_OK/GD32VW55X_Wifi_BLE_SDK/GD32VW55x_RELEASE_V1.0.2/MSDK/wpa_supplicant/src/utils\common.c **** 	size_t i;
 321:C:/Users/stapi/OneDrive/Desktop/GD32VW553/V1_MQTT_OK/GD32VW55X_Wifi_BLE_SDK/GD32VW55x_RELEASE_V1.0.2/MSDK/wpa_supplicant/src/utils\common.c **** 	char *pos = buf, *end = buf + buf_size;
 322:C:/Users/stapi/OneDrive/Desktop/GD32VW553/V1_MQTT_OK/GD32VW55X_Wifi_BLE_SDK/GD32VW55x_RELEASE_V1.0.2/MSDK/wpa_supplicant/src/utils\common.c **** 	int ret;
 323:C:/Users/stapi/OneDrive/Desktop/GD32VW553/V1_MQTT_OK/GD32VW55X_Wifi_BLE_SDK/GD32VW55x_RELEASE_V1.0.2/MSDK/wpa_supplicant/src/utils\common.c **** 	if (buf_size == 0)
 324:C:/Users/stapi/OneDrive/Desktop/GD32VW553/V1_MQTT_OK/GD32VW55X_Wifi_BLE_SDK/GD32VW55x_RELEASE_V1.0.2/MSDK/wpa_supplicant/src/utils\common.c **** 		return 0;
 325:C:/Users/stapi/OneDrive/Desktop/GD32VW553/V1_MQTT_OK/GD32VW55X_Wifi_BLE_SDK/GD32VW55x_RELEASE_V1.0.2/MSDK/wpa_supplicant/src/utils\common.c **** 	for (i = 0; i < len; i++) {
 326:C:/Users/stapi/OneDrive/Desktop/GD32VW553/V1_MQTT_OK/GD32VW55X_Wifi_BLE_SDK/GD32VW55x_RELEASE_V1.0.2/MSDK/wpa_supplicant/src/utils\common.c **** 		ret = os_snprintf(pos, end - pos, uppercase ? "%02X" : "%02x",
 327:C:/Users/stapi/OneDrive/Desktop/GD32VW553/V1_MQTT_OK/GD32VW55X_Wifi_BLE_SDK/GD32VW55x_RELEASE_V1.0.2/MSDK/wpa_supplicant/src/utils\common.c **** 				  data[i]);
 328:C:/Users/stapi/OneDrive/Desktop/GD32VW553/V1_MQTT_OK/GD32VW55X_Wifi_BLE_SDK/GD32VW55x_RELEASE_V1.0.2/MSDK/wpa_supplicant/src/utils\common.c **** 		if (os_snprintf_error(end - pos, ret)) {
 329:C:/Users/stapi/OneDrive/Desktop/GD32VW553/V1_MQTT_OK/GD32VW55X_Wifi_BLE_SDK/GD32VW55x_RELEASE_V1.0.2/MSDK/wpa_supplicant/src/utils\common.c **** 			end[-1] = '\0';
 330:C:/Users/stapi/OneDrive/Desktop/GD32VW553/V1_MQTT_OK/GD32VW55X_Wifi_BLE_SDK/GD32VW55x_RELEASE_V1.0.2/MSDK/wpa_supplicant/src/utils\common.c **** 			return pos - buf;
 331:C:/Users/stapi/OneDrive/Desktop/GD32VW553/V1_MQTT_OK/GD32VW55X_Wifi_BLE_SDK/GD32VW55x_RELEASE_V1.0.2/MSDK/wpa_supplicant/src/utils\common.c **** 		}
 332:C:/Users/stapi/OneDrive/Desktop/GD32VW553/V1_MQTT_OK/GD32VW55X_Wifi_BLE_SDK/GD32VW55x_RELEASE_V1.0.2/MSDK/wpa_supplicant/src/utils\common.c **** 		pos += ret;
 333:C:/Users/stapi/OneDrive/Desktop/GD32VW553/V1_MQTT_OK/GD32VW55X_Wifi_BLE_SDK/GD32VW55x_RELEASE_V1.0.2/MSDK/wpa_supplicant/src/utils\common.c **** 	}
 334:C:/Users/stapi/OneDrive/Desktop/GD32VW553/V1_MQTT_OK/GD32VW55X_Wifi_BLE_SDK/GD32VW55x_RELEASE_V1.0.2/MSDK/wpa_supplicant/src/utils\common.c **** 	end[-1] = '\0';
 335:C:/Users/stapi/OneDrive/Desktop/GD32VW553/V1_MQTT_OK/GD32VW55X_Wifi_BLE_SDK/GD32VW55x_RELEASE_V1.0.2/MSDK/wpa_supplicant/src/utils\common.c **** 	return pos - buf;
 336:C:/Users/stapi/OneDrive/Desktop/GD32VW553/V1_MQTT_OK/GD32VW55X_Wifi_BLE_SDK/GD32VW55x_RELEASE_V1.0.2/MSDK/wpa_supplicant/src/utils\common.c **** }
 337:C:/Users/stapi/OneDrive/Desktop/GD32VW553/V1_MQTT_OK/GD32VW55X_Wifi_BLE_SDK/GD32VW55x_RELEASE_V1.0.2/MSDK/wpa_supplicant/src/utils\common.c **** 
 338:C:/Users/stapi/OneDrive/Desktop/GD32VW553/V1_MQTT_OK/GD32VW55X_Wifi_BLE_SDK/GD32VW55x_RELEASE_V1.0.2/MSDK/wpa_supplicant/src/utils\common.c **** /**
 339:C:/Users/stapi/OneDrive/Desktop/GD32VW553/V1_MQTT_OK/GD32VW55X_Wifi_BLE_SDK/GD32VW55x_RELEASE_V1.0.2/MSDK/wpa_supplicant/src/utils\common.c ****  * wpa_snprintf_hex - Print data as a hex string into a buffer
 340:C:/Users/stapi/OneDrive/Desktop/GD32VW553/V1_MQTT_OK/GD32VW55X_Wifi_BLE_SDK/GD32VW55x_RELEASE_V1.0.2/MSDK/wpa_supplicant/src/utils\common.c ****  * @buf: Memory area to use as the output buffer
 341:C:/Users/stapi/OneDrive/Desktop/GD32VW553/V1_MQTT_OK/GD32VW55X_Wifi_BLE_SDK/GD32VW55x_RELEASE_V1.0.2/MSDK/wpa_supplicant/src/utils\common.c ****  * @buf_size: Maximum buffer size in bytes (should be at least 2 * len + 1)
 342:C:/Users/stapi/OneDrive/Desktop/GD32VW553/V1_MQTT_OK/GD32VW55X_Wifi_BLE_SDK/GD32VW55x_RELEASE_V1.0.2/MSDK/wpa_supplicant/src/utils\common.c ****  * @data: Data to be printed
 343:C:/Users/stapi/OneDrive/Desktop/GD32VW553/V1_MQTT_OK/GD32VW55X_Wifi_BLE_SDK/GD32VW55x_RELEASE_V1.0.2/MSDK/wpa_supplicant/src/utils\common.c ****  * @len: Length of data in bytes
 344:C:/Users/stapi/OneDrive/Desktop/GD32VW553/V1_MQTT_OK/GD32VW55X_Wifi_BLE_SDK/GD32VW55x_RELEASE_V1.0.2/MSDK/wpa_supplicant/src/utils\common.c ****  * Returns: Number of bytes written
 345:C:/Users/stapi/OneDrive/Desktop/GD32VW553/V1_MQTT_OK/GD32VW55X_Wifi_BLE_SDK/GD32VW55x_RELEASE_V1.0.2/MSDK/wpa_supplicant/src/utils\common.c ****  */
 346:C:/Users/stapi/OneDrive/Desktop/GD32VW553/V1_MQTT_OK/GD32VW55X_Wifi_BLE_SDK/GD32VW55x_RELEASE_V1.0.2/MSDK/wpa_supplicant/src/utils\common.c **** int wpa_snprintf_hex(char *buf, size_t buf_size, const u8 *data, size_t len)
 347:C:/Users/stapi/OneDrive/Desktop/GD32VW553/V1_MQTT_OK/GD32VW55X_Wifi_BLE_SDK/GD32VW55x_RELEASE_V1.0.2/MSDK/wpa_supplicant/src/utils\common.c **** {
 348:C:/Users/stapi/OneDrive/Desktop/GD32VW553/V1_MQTT_OK/GD32VW55X_Wifi_BLE_SDK/GD32VW55x_RELEASE_V1.0.2/MSDK/wpa_supplicant/src/utils\common.c **** 	return _wpa_snprintf_hex(buf, buf_size, data, len, 0);
 349:C:/Users/stapi/OneDrive/Desktop/GD32VW553/V1_MQTT_OK/GD32VW55X_Wifi_BLE_SDK/GD32VW55x_RELEASE_V1.0.2/MSDK/wpa_supplicant/src/utils\common.c **** }
 350:C:/Users/stapi/OneDrive/Desktop/GD32VW553/V1_MQTT_OK/GD32VW55X_Wifi_BLE_SDK/GD32VW55x_RELEASE_V1.0.2/MSDK/wpa_supplicant/src/utils\common.c **** 
 351:C:/Users/stapi/OneDrive/Desktop/GD32VW553/V1_MQTT_OK/GD32VW55X_Wifi_BLE_SDK/GD32VW55x_RELEASE_V1.0.2/MSDK/wpa_supplicant/src/utils\common.c **** 
 352:C:/Users/stapi/OneDrive/Desktop/GD32VW553/V1_MQTT_OK/GD32VW55X_Wifi_BLE_SDK/GD32VW55x_RELEASE_V1.0.2/MSDK/wpa_supplicant/src/utils\common.c **** /**
 353:C:/Users/stapi/OneDrive/Desktop/GD32VW553/V1_MQTT_OK/GD32VW55X_Wifi_BLE_SDK/GD32VW55x_RELEASE_V1.0.2/MSDK/wpa_supplicant/src/utils\common.c ****  * wpa_snprintf_hex_uppercase - Print data as a upper case hex string into buf
 354:C:/Users/stapi/OneDrive/Desktop/GD32VW553/V1_MQTT_OK/GD32VW55X_Wifi_BLE_SDK/GD32VW55x_RELEASE_V1.0.2/MSDK/wpa_supplicant/src/utils\common.c ****  * @buf: Memory area to use as the output buffer
 355:C:/Users/stapi/OneDrive/Desktop/GD32VW553/V1_MQTT_OK/GD32VW55X_Wifi_BLE_SDK/GD32VW55x_RELEASE_V1.0.2/MSDK/wpa_supplicant/src/utils\common.c ****  * @buf_size: Maximum buffer size in bytes (should be at least 2 * len + 1)
 356:C:/Users/stapi/OneDrive/Desktop/GD32VW553/V1_MQTT_OK/GD32VW55X_Wifi_BLE_SDK/GD32VW55x_RELEASE_V1.0.2/MSDK/wpa_supplicant/src/utils\common.c ****  * @data: Data to be printed
 357:C:/Users/stapi/OneDrive/Desktop/GD32VW553/V1_MQTT_OK/GD32VW55X_Wifi_BLE_SDK/GD32VW55x_RELEASE_V1.0.2/MSDK/wpa_supplicant/src/utils\common.c ****  * @len: Length of data in bytes
 358:C:/Users/stapi/OneDrive/Desktop/GD32VW553/V1_MQTT_OK/GD32VW55X_Wifi_BLE_SDK/GD32VW55x_RELEASE_V1.0.2/MSDK/wpa_supplicant/src/utils\common.c ****  * Returns: Number of bytes written
 359:C:/Users/stapi/OneDrive/Desktop/GD32VW553/V1_MQTT_OK/GD32VW55X_Wifi_BLE_SDK/GD32VW55x_RELEASE_V1.0.2/MSDK/wpa_supplicant/src/utils\common.c ****  */
 360:C:/Users/stapi/OneDrive/Desktop/GD32VW553/V1_MQTT_OK/GD32VW55X_Wifi_BLE_SDK/GD32VW55x_RELEASE_V1.0.2/MSDK/wpa_supplicant/src/utils\common.c **** int wpa_snprintf_hex_uppercase(char *buf, size_t buf_size, const u8 *data,
 361:C:/Users/stapi/OneDrive/Desktop/GD32VW553/V1_MQTT_OK/GD32VW55X_Wifi_BLE_SDK/GD32VW55x_RELEASE_V1.0.2/MSDK/wpa_supplicant/src/utils\common.c **** 			       size_t len)
 362:C:/Users/stapi/OneDrive/Desktop/GD32VW553/V1_MQTT_OK/GD32VW55X_Wifi_BLE_SDK/GD32VW55x_RELEASE_V1.0.2/MSDK/wpa_supplicant/src/utils\common.c **** {
 363:C:/Users/stapi/OneDrive/Desktop/GD32VW553/V1_MQTT_OK/GD32VW55X_Wifi_BLE_SDK/GD32VW55x_RELEASE_V1.0.2/MSDK/wpa_supplicant/src/utils\common.c **** 	return _wpa_snprintf_hex(buf, buf_size, data, len, 1);
 364:C:/Users/stapi/OneDrive/Desktop/GD32VW553/V1_MQTT_OK/GD32VW55X_Wifi_BLE_SDK/GD32VW55x_RELEASE_V1.0.2/MSDK/wpa_supplicant/src/utils\common.c **** }
 365:C:/Users/stapi/OneDrive/Desktop/GD32VW553/V1_MQTT_OK/GD32VW55X_Wifi_BLE_SDK/GD32VW55x_RELEASE_V1.0.2/MSDK/wpa_supplicant/src/utils\common.c **** 
 366:C:/Users/stapi/OneDrive/Desktop/GD32VW553/V1_MQTT_OK/GD32VW55X_Wifi_BLE_SDK/GD32VW55x_RELEASE_V1.0.2/MSDK/wpa_supplicant/src/utils\common.c **** 
 367:C:/Users/stapi/OneDrive/Desktop/GD32VW553/V1_MQTT_OK/GD32VW55X_Wifi_BLE_SDK/GD32VW55x_RELEASE_V1.0.2/MSDK/wpa_supplicant/src/utils\common.c **** #ifdef CONFIG_ANSI_C_EXTRA
 368:C:/Users/stapi/OneDrive/Desktop/GD32VW553/V1_MQTT_OK/GD32VW55X_Wifi_BLE_SDK/GD32VW55x_RELEASE_V1.0.2/MSDK/wpa_supplicant/src/utils\common.c **** 
 369:C:/Users/stapi/OneDrive/Desktop/GD32VW553/V1_MQTT_OK/GD32VW55X_Wifi_BLE_SDK/GD32VW55x_RELEASE_V1.0.2/MSDK/wpa_supplicant/src/utils\common.c **** #ifdef _WIN32_WCE
 370:C:/Users/stapi/OneDrive/Desktop/GD32VW553/V1_MQTT_OK/GD32VW55X_Wifi_BLE_SDK/GD32VW55x_RELEASE_V1.0.2/MSDK/wpa_supplicant/src/utils\common.c **** void perror(const char *s)
 371:C:/Users/stapi/OneDrive/Desktop/GD32VW553/V1_MQTT_OK/GD32VW55X_Wifi_BLE_SDK/GD32VW55x_RELEASE_V1.0.2/MSDK/wpa_supplicant/src/utils\common.c **** {
 372:C:/Users/stapi/OneDrive/Desktop/GD32VW553/V1_MQTT_OK/GD32VW55X_Wifi_BLE_SDK/GD32VW55x_RELEASE_V1.0.2/MSDK/wpa_supplicant/src/utils\common.c **** 	wpa_printf(MSG_ERROR, "%s: GetLastError: %d",
 373:C:/Users/stapi/OneDrive/Desktop/GD32VW553/V1_MQTT_OK/GD32VW55X_Wifi_BLE_SDK/GD32VW55x_RELEASE_V1.0.2/MSDK/wpa_supplicant/src/utils\common.c **** 		   s, (int) GetLastError());
 374:C:/Users/stapi/OneDrive/Desktop/GD32VW553/V1_MQTT_OK/GD32VW55X_Wifi_BLE_SDK/GD32VW55x_RELEASE_V1.0.2/MSDK/wpa_supplicant/src/utils\common.c **** }
 375:C:/Users/stapi/OneDrive/Desktop/GD32VW553/V1_MQTT_OK/GD32VW55X_Wifi_BLE_SDK/GD32VW55x_RELEASE_V1.0.2/MSDK/wpa_supplicant/src/utils\common.c **** #endif /* _WIN32_WCE */
 376:C:/Users/stapi/OneDrive/Desktop/GD32VW553/V1_MQTT_OK/GD32VW55X_Wifi_BLE_SDK/GD32VW55x_RELEASE_V1.0.2/MSDK/wpa_supplicant/src/utils\common.c **** 
 377:C:/Users/stapi/OneDrive/Desktop/GD32VW553/V1_MQTT_OK/GD32VW55X_Wifi_BLE_SDK/GD32VW55x_RELEASE_V1.0.2/MSDK/wpa_supplicant/src/utils\common.c **** 
 378:C:/Users/stapi/OneDrive/Desktop/GD32VW553/V1_MQTT_OK/GD32VW55X_Wifi_BLE_SDK/GD32VW55x_RELEASE_V1.0.2/MSDK/wpa_supplicant/src/utils\common.c **** int optind = 1;
 379:C:/Users/stapi/OneDrive/Desktop/GD32VW553/V1_MQTT_OK/GD32VW55X_Wifi_BLE_SDK/GD32VW55x_RELEASE_V1.0.2/MSDK/wpa_supplicant/src/utils\common.c **** int optopt;
 380:C:/Users/stapi/OneDrive/Desktop/GD32VW553/V1_MQTT_OK/GD32VW55X_Wifi_BLE_SDK/GD32VW55x_RELEASE_V1.0.2/MSDK/wpa_supplicant/src/utils\common.c **** char *optarg;
 381:C:/Users/stapi/OneDrive/Desktop/GD32VW553/V1_MQTT_OK/GD32VW55X_Wifi_BLE_SDK/GD32VW55x_RELEASE_V1.0.2/MSDK/wpa_supplicant/src/utils\common.c **** 
 382:C:/Users/stapi/OneDrive/Desktop/GD32VW553/V1_MQTT_OK/GD32VW55X_Wifi_BLE_SDK/GD32VW55x_RELEASE_V1.0.2/MSDK/wpa_supplicant/src/utils\common.c **** int getopt(int argc, char *const argv[], const char *optstring)
 383:C:/Users/stapi/OneDrive/Desktop/GD32VW553/V1_MQTT_OK/GD32VW55X_Wifi_BLE_SDK/GD32VW55x_RELEASE_V1.0.2/MSDK/wpa_supplicant/src/utils\common.c **** {
 384:C:/Users/stapi/OneDrive/Desktop/GD32VW553/V1_MQTT_OK/GD32VW55X_Wifi_BLE_SDK/GD32VW55x_RELEASE_V1.0.2/MSDK/wpa_supplicant/src/utils\common.c **** 	static int optchr = 1;
 385:C:/Users/stapi/OneDrive/Desktop/GD32VW553/V1_MQTT_OK/GD32VW55X_Wifi_BLE_SDK/GD32VW55x_RELEASE_V1.0.2/MSDK/wpa_supplicant/src/utils\common.c **** 	char *cp;
 386:C:/Users/stapi/OneDrive/Desktop/GD32VW553/V1_MQTT_OK/GD32VW55X_Wifi_BLE_SDK/GD32VW55x_RELEASE_V1.0.2/MSDK/wpa_supplicant/src/utils\common.c **** 
 387:C:/Users/stapi/OneDrive/Desktop/GD32VW553/V1_MQTT_OK/GD32VW55X_Wifi_BLE_SDK/GD32VW55x_RELEASE_V1.0.2/MSDK/wpa_supplicant/src/utils\common.c **** 	if (optchr == 1) {
 388:C:/Users/stapi/OneDrive/Desktop/GD32VW553/V1_MQTT_OK/GD32VW55X_Wifi_BLE_SDK/GD32VW55x_RELEASE_V1.0.2/MSDK/wpa_supplicant/src/utils\common.c **** 		if (optind >= argc) {
 389:C:/Users/stapi/OneDrive/Desktop/GD32VW553/V1_MQTT_OK/GD32VW55X_Wifi_BLE_SDK/GD32VW55x_RELEASE_V1.0.2/MSDK/wpa_supplicant/src/utils\common.c **** 			/* all arguments processed */
 390:C:/Users/stapi/OneDrive/Desktop/GD32VW553/V1_MQTT_OK/GD32VW55X_Wifi_BLE_SDK/GD32VW55x_RELEASE_V1.0.2/MSDK/wpa_supplicant/src/utils\common.c **** 			return EOF;
 391:C:/Users/stapi/OneDrive/Desktop/GD32VW553/V1_MQTT_OK/GD32VW55X_Wifi_BLE_SDK/GD32VW55x_RELEASE_V1.0.2/MSDK/wpa_supplicant/src/utils\common.c **** 		}
 392:C:/Users/stapi/OneDrive/Desktop/GD32VW553/V1_MQTT_OK/GD32VW55X_Wifi_BLE_SDK/GD32VW55x_RELEASE_V1.0.2/MSDK/wpa_supplicant/src/utils\common.c **** 
 393:C:/Users/stapi/OneDrive/Desktop/GD32VW553/V1_MQTT_OK/GD32VW55X_Wifi_BLE_SDK/GD32VW55x_RELEASE_V1.0.2/MSDK/wpa_supplicant/src/utils\common.c **** 		if (argv[optind][0] != '-' || argv[optind][1] == '\0') {
 394:C:/Users/stapi/OneDrive/Desktop/GD32VW553/V1_MQTT_OK/GD32VW55X_Wifi_BLE_SDK/GD32VW55x_RELEASE_V1.0.2/MSDK/wpa_supplicant/src/utils\common.c **** 			/* no option characters */
 395:C:/Users/stapi/OneDrive/Desktop/GD32VW553/V1_MQTT_OK/GD32VW55X_Wifi_BLE_SDK/GD32VW55x_RELEASE_V1.0.2/MSDK/wpa_supplicant/src/utils\common.c **** 			return EOF;
 396:C:/Users/stapi/OneDrive/Desktop/GD32VW553/V1_MQTT_OK/GD32VW55X_Wifi_BLE_SDK/GD32VW55x_RELEASE_V1.0.2/MSDK/wpa_supplicant/src/utils\common.c **** 		}
 397:C:/Users/stapi/OneDrive/Desktop/GD32VW553/V1_MQTT_OK/GD32VW55X_Wifi_BLE_SDK/GD32VW55x_RELEASE_V1.0.2/MSDK/wpa_supplicant/src/utils\common.c **** 	}
 398:C:/Users/stapi/OneDrive/Desktop/GD32VW553/V1_MQTT_OK/GD32VW55X_Wifi_BLE_SDK/GD32VW55x_RELEASE_V1.0.2/MSDK/wpa_supplicant/src/utils\common.c **** 
 399:C:/Users/stapi/OneDrive/Desktop/GD32VW553/V1_MQTT_OK/GD32VW55X_Wifi_BLE_SDK/GD32VW55x_RELEASE_V1.0.2/MSDK/wpa_supplicant/src/utils\common.c **** 	if (os_strcmp(argv[optind], "--") == 0) {
 400:C:/Users/stapi/OneDrive/Desktop/GD32VW553/V1_MQTT_OK/GD32VW55X_Wifi_BLE_SDK/GD32VW55x_RELEASE_V1.0.2/MSDK/wpa_supplicant/src/utils\common.c **** 		/* no more options */
 401:C:/Users/stapi/OneDrive/Desktop/GD32VW553/V1_MQTT_OK/GD32VW55X_Wifi_BLE_SDK/GD32VW55x_RELEASE_V1.0.2/MSDK/wpa_supplicant/src/utils\common.c **** 		optind++;
 402:C:/Users/stapi/OneDrive/Desktop/GD32VW553/V1_MQTT_OK/GD32VW55X_Wifi_BLE_SDK/GD32VW55x_RELEASE_V1.0.2/MSDK/wpa_supplicant/src/utils\common.c **** 		return EOF;
 403:C:/Users/stapi/OneDrive/Desktop/GD32VW553/V1_MQTT_OK/GD32VW55X_Wifi_BLE_SDK/GD32VW55x_RELEASE_V1.0.2/MSDK/wpa_supplicant/src/utils\common.c **** 	}
 404:C:/Users/stapi/OneDrive/Desktop/GD32VW553/V1_MQTT_OK/GD32VW55X_Wifi_BLE_SDK/GD32VW55x_RELEASE_V1.0.2/MSDK/wpa_supplicant/src/utils\common.c **** 
 405:C:/Users/stapi/OneDrive/Desktop/GD32VW553/V1_MQTT_OK/GD32VW55X_Wifi_BLE_SDK/GD32VW55x_RELEASE_V1.0.2/MSDK/wpa_supplicant/src/utils\common.c **** 	optopt = argv[optind][optchr];
 406:C:/Users/stapi/OneDrive/Desktop/GD32VW553/V1_MQTT_OK/GD32VW55X_Wifi_BLE_SDK/GD32VW55x_RELEASE_V1.0.2/MSDK/wpa_supplicant/src/utils\common.c **** 	cp = os_strchr(optstring, optopt);
 407:C:/Users/stapi/OneDrive/Desktop/GD32VW553/V1_MQTT_OK/GD32VW55X_Wifi_BLE_SDK/GD32VW55x_RELEASE_V1.0.2/MSDK/wpa_supplicant/src/utils\common.c **** 	if (cp == NULL || optopt == ':') {
 408:C:/Users/stapi/OneDrive/Desktop/GD32VW553/V1_MQTT_OK/GD32VW55X_Wifi_BLE_SDK/GD32VW55x_RELEASE_V1.0.2/MSDK/wpa_supplicant/src/utils\common.c **** 		if (argv[optind][++optchr] == '\0') {
 409:C:/Users/stapi/OneDrive/Desktop/GD32VW553/V1_MQTT_OK/GD32VW55X_Wifi_BLE_SDK/GD32VW55x_RELEASE_V1.0.2/MSDK/wpa_supplicant/src/utils\common.c **** 			optchr = 1;
 410:C:/Users/stapi/OneDrive/Desktop/GD32VW553/V1_MQTT_OK/GD32VW55X_Wifi_BLE_SDK/GD32VW55x_RELEASE_V1.0.2/MSDK/wpa_supplicant/src/utils\common.c **** 			optind++;
 411:C:/Users/stapi/OneDrive/Desktop/GD32VW553/V1_MQTT_OK/GD32VW55X_Wifi_BLE_SDK/GD32VW55x_RELEASE_V1.0.2/MSDK/wpa_supplicant/src/utils\common.c **** 		}
 412:C:/Users/stapi/OneDrive/Desktop/GD32VW553/V1_MQTT_OK/GD32VW55X_Wifi_BLE_SDK/GD32VW55x_RELEASE_V1.0.2/MSDK/wpa_supplicant/src/utils\common.c **** 		return '?';
 413:C:/Users/stapi/OneDrive/Desktop/GD32VW553/V1_MQTT_OK/GD32VW55X_Wifi_BLE_SDK/GD32VW55x_RELEASE_V1.0.2/MSDK/wpa_supplicant/src/utils\common.c **** 	}
 414:C:/Users/stapi/OneDrive/Desktop/GD32VW553/V1_MQTT_OK/GD32VW55X_Wifi_BLE_SDK/GD32VW55x_RELEASE_V1.0.2/MSDK/wpa_supplicant/src/utils\common.c **** 
 415:C:/Users/stapi/OneDrive/Desktop/GD32VW553/V1_MQTT_OK/GD32VW55X_Wifi_BLE_SDK/GD32VW55x_RELEASE_V1.0.2/MSDK/wpa_supplicant/src/utils\common.c **** 	if (cp[1] == ':') {
 416:C:/Users/stapi/OneDrive/Desktop/GD32VW553/V1_MQTT_OK/GD32VW55X_Wifi_BLE_SDK/GD32VW55x_RELEASE_V1.0.2/MSDK/wpa_supplicant/src/utils\common.c **** 		/* Argument required */
 417:C:/Users/stapi/OneDrive/Desktop/GD32VW553/V1_MQTT_OK/GD32VW55X_Wifi_BLE_SDK/GD32VW55x_RELEASE_V1.0.2/MSDK/wpa_supplicant/src/utils\common.c **** 		optchr = 1;
 418:C:/Users/stapi/OneDrive/Desktop/GD32VW553/V1_MQTT_OK/GD32VW55X_Wifi_BLE_SDK/GD32VW55x_RELEASE_V1.0.2/MSDK/wpa_supplicant/src/utils\common.c **** 		if (argv[optind][optchr + 1]) {
 419:C:/Users/stapi/OneDrive/Desktop/GD32VW553/V1_MQTT_OK/GD32VW55X_Wifi_BLE_SDK/GD32VW55x_RELEASE_V1.0.2/MSDK/wpa_supplicant/src/utils\common.c **** 			/* No space between option and argument */
 420:C:/Users/stapi/OneDrive/Desktop/GD32VW553/V1_MQTT_OK/GD32VW55X_Wifi_BLE_SDK/GD32VW55x_RELEASE_V1.0.2/MSDK/wpa_supplicant/src/utils\common.c **** 			optarg = &argv[optind++][optchr + 1];
 421:C:/Users/stapi/OneDrive/Desktop/GD32VW553/V1_MQTT_OK/GD32VW55X_Wifi_BLE_SDK/GD32VW55x_RELEASE_V1.0.2/MSDK/wpa_supplicant/src/utils\common.c **** 		} else if (++optind >= argc) {
 422:C:/Users/stapi/OneDrive/Desktop/GD32VW553/V1_MQTT_OK/GD32VW55X_Wifi_BLE_SDK/GD32VW55x_RELEASE_V1.0.2/MSDK/wpa_supplicant/src/utils\common.c **** 			/* option requires an argument */
 423:C:/Users/stapi/OneDrive/Desktop/GD32VW553/V1_MQTT_OK/GD32VW55X_Wifi_BLE_SDK/GD32VW55x_RELEASE_V1.0.2/MSDK/wpa_supplicant/src/utils\common.c **** 			return '?';
 424:C:/Users/stapi/OneDrive/Desktop/GD32VW553/V1_MQTT_OK/GD32VW55X_Wifi_BLE_SDK/GD32VW55x_RELEASE_V1.0.2/MSDK/wpa_supplicant/src/utils\common.c **** 		} else {
 425:C:/Users/stapi/OneDrive/Desktop/GD32VW553/V1_MQTT_OK/GD32VW55X_Wifi_BLE_SDK/GD32VW55x_RELEASE_V1.0.2/MSDK/wpa_supplicant/src/utils\common.c **** 			/* Argument in the next argv */
 426:C:/Users/stapi/OneDrive/Desktop/GD32VW553/V1_MQTT_OK/GD32VW55X_Wifi_BLE_SDK/GD32VW55x_RELEASE_V1.0.2/MSDK/wpa_supplicant/src/utils\common.c **** 			optarg = argv[optind++];
 427:C:/Users/stapi/OneDrive/Desktop/GD32VW553/V1_MQTT_OK/GD32VW55X_Wifi_BLE_SDK/GD32VW55x_RELEASE_V1.0.2/MSDK/wpa_supplicant/src/utils\common.c **** 		}
 428:C:/Users/stapi/OneDrive/Desktop/GD32VW553/V1_MQTT_OK/GD32VW55X_Wifi_BLE_SDK/GD32VW55x_RELEASE_V1.0.2/MSDK/wpa_supplicant/src/utils\common.c **** 	} else {
 429:C:/Users/stapi/OneDrive/Desktop/GD32VW553/V1_MQTT_OK/GD32VW55X_Wifi_BLE_SDK/GD32VW55x_RELEASE_V1.0.2/MSDK/wpa_supplicant/src/utils\common.c **** 		/* No argument */
 430:C:/Users/stapi/OneDrive/Desktop/GD32VW553/V1_MQTT_OK/GD32VW55X_Wifi_BLE_SDK/GD32VW55x_RELEASE_V1.0.2/MSDK/wpa_supplicant/src/utils\common.c **** 		if (argv[optind][++optchr] == '\0') {
 431:C:/Users/stapi/OneDrive/Desktop/GD32VW553/V1_MQTT_OK/GD32VW55X_Wifi_BLE_SDK/GD32VW55x_RELEASE_V1.0.2/MSDK/wpa_supplicant/src/utils\common.c **** 			optchr = 1;
 432:C:/Users/stapi/OneDrive/Desktop/GD32VW553/V1_MQTT_OK/GD32VW55X_Wifi_BLE_SDK/GD32VW55x_RELEASE_V1.0.2/MSDK/wpa_supplicant/src/utils\common.c **** 			optind++;
 433:C:/Users/stapi/OneDrive/Desktop/GD32VW553/V1_MQTT_OK/GD32VW55X_Wifi_BLE_SDK/GD32VW55x_RELEASE_V1.0.2/MSDK/wpa_supplicant/src/utils\common.c **** 		}
 434:C:/Users/stapi/OneDrive/Desktop/GD32VW553/V1_MQTT_OK/GD32VW55X_Wifi_BLE_SDK/GD32VW55x_RELEASE_V1.0.2/MSDK/wpa_supplicant/src/utils\common.c **** 		optarg = NULL;
 435:C:/Users/stapi/OneDrive/Desktop/GD32VW553/V1_MQTT_OK/GD32VW55X_Wifi_BLE_SDK/GD32VW55x_RELEASE_V1.0.2/MSDK/wpa_supplicant/src/utils\common.c **** 	}
 436:C:/Users/stapi/OneDrive/Desktop/GD32VW553/V1_MQTT_OK/GD32VW55X_Wifi_BLE_SDK/GD32VW55x_RELEASE_V1.0.2/MSDK/wpa_supplicant/src/utils\common.c **** 	return *cp;
 437:C:/Users/stapi/OneDrive/Desktop/GD32VW553/V1_MQTT_OK/GD32VW55X_Wifi_BLE_SDK/GD32VW55x_RELEASE_V1.0.2/MSDK/wpa_supplicant/src/utils\common.c **** }
 438:C:/Users/stapi/OneDrive/Desktop/GD32VW553/V1_MQTT_OK/GD32VW55X_Wifi_BLE_SDK/GD32VW55x_RELEASE_V1.0.2/MSDK/wpa_supplicant/src/utils\common.c **** #endif /* CONFIG_ANSI_C_EXTRA */
 439:C:/Users/stapi/OneDrive/Desktop/GD32VW553/V1_MQTT_OK/GD32VW55X_Wifi_BLE_SDK/GD32VW55x_RELEASE_V1.0.2/MSDK/wpa_supplicant/src/utils\common.c **** 
 440:C:/Users/stapi/OneDrive/Desktop/GD32VW553/V1_MQTT_OK/GD32VW55X_Wifi_BLE_SDK/GD32VW55x_RELEASE_V1.0.2/MSDK/wpa_supplicant/src/utils\common.c **** 
 441:C:/Users/stapi/OneDrive/Desktop/GD32VW553/V1_MQTT_OK/GD32VW55X_Wifi_BLE_SDK/GD32VW55x_RELEASE_V1.0.2/MSDK/wpa_supplicant/src/utils\common.c **** #ifdef CONFIG_NATIVE_WINDOWS
 442:C:/Users/stapi/OneDrive/Desktop/GD32VW553/V1_MQTT_OK/GD32VW55X_Wifi_BLE_SDK/GD32VW55x_RELEASE_V1.0.2/MSDK/wpa_supplicant/src/utils\common.c **** /**
 443:C:/Users/stapi/OneDrive/Desktop/GD32VW553/V1_MQTT_OK/GD32VW55X_Wifi_BLE_SDK/GD32VW55x_RELEASE_V1.0.2/MSDK/wpa_supplicant/src/utils\common.c ****  * wpa_unicode2ascii_inplace - Convert unicode string into ASCII
 444:C:/Users/stapi/OneDrive/Desktop/GD32VW553/V1_MQTT_OK/GD32VW55X_Wifi_BLE_SDK/GD32VW55x_RELEASE_V1.0.2/MSDK/wpa_supplicant/src/utils\common.c ****  * @str: Pointer to string to convert
 445:C:/Users/stapi/OneDrive/Desktop/GD32VW553/V1_MQTT_OK/GD32VW55X_Wifi_BLE_SDK/GD32VW55x_RELEASE_V1.0.2/MSDK/wpa_supplicant/src/utils\common.c ****  *
 446:C:/Users/stapi/OneDrive/Desktop/GD32VW553/V1_MQTT_OK/GD32VW55X_Wifi_BLE_SDK/GD32VW55x_RELEASE_V1.0.2/MSDK/wpa_supplicant/src/utils\common.c ****  * This function converts a unicode string to ASCII using the same
 447:C:/Users/stapi/OneDrive/Desktop/GD32VW553/V1_MQTT_OK/GD32VW55X_Wifi_BLE_SDK/GD32VW55x_RELEASE_V1.0.2/MSDK/wpa_supplicant/src/utils\common.c ****  * buffer for output. If UNICODE is not set, the buffer is not
 448:C:/Users/stapi/OneDrive/Desktop/GD32VW553/V1_MQTT_OK/GD32VW55X_Wifi_BLE_SDK/GD32VW55x_RELEASE_V1.0.2/MSDK/wpa_supplicant/src/utils\common.c ****  * modified.
 449:C:/Users/stapi/OneDrive/Desktop/GD32VW553/V1_MQTT_OK/GD32VW55X_Wifi_BLE_SDK/GD32VW55x_RELEASE_V1.0.2/MSDK/wpa_supplicant/src/utils\common.c ****  */
 450:C:/Users/stapi/OneDrive/Desktop/GD32VW553/V1_MQTT_OK/GD32VW55X_Wifi_BLE_SDK/GD32VW55x_RELEASE_V1.0.2/MSDK/wpa_supplicant/src/utils\common.c **** void wpa_unicode2ascii_inplace(TCHAR *str)
 451:C:/Users/stapi/OneDrive/Desktop/GD32VW553/V1_MQTT_OK/GD32VW55X_Wifi_BLE_SDK/GD32VW55x_RELEASE_V1.0.2/MSDK/wpa_supplicant/src/utils\common.c **** {
 452:C:/Users/stapi/OneDrive/Desktop/GD32VW553/V1_MQTT_OK/GD32VW55X_Wifi_BLE_SDK/GD32VW55x_RELEASE_V1.0.2/MSDK/wpa_supplicant/src/utils\common.c **** #ifdef UNICODE
 453:C:/Users/stapi/OneDrive/Desktop/GD32VW553/V1_MQTT_OK/GD32VW55X_Wifi_BLE_SDK/GD32VW55x_RELEASE_V1.0.2/MSDK/wpa_supplicant/src/utils\common.c **** 	char *dst = (char *) str;
 454:C:/Users/stapi/OneDrive/Desktop/GD32VW553/V1_MQTT_OK/GD32VW55X_Wifi_BLE_SDK/GD32VW55x_RELEASE_V1.0.2/MSDK/wpa_supplicant/src/utils\common.c **** 	while (*str)
 455:C:/Users/stapi/OneDrive/Desktop/GD32VW553/V1_MQTT_OK/GD32VW55X_Wifi_BLE_SDK/GD32VW55x_RELEASE_V1.0.2/MSDK/wpa_supplicant/src/utils\common.c **** 		*dst++ = (char) *str++;
 456:C:/Users/stapi/OneDrive/Desktop/GD32VW553/V1_MQTT_OK/GD32VW55X_Wifi_BLE_SDK/GD32VW55x_RELEASE_V1.0.2/MSDK/wpa_supplicant/src/utils\common.c **** 	*dst = '\0';
 457:C:/Users/stapi/OneDrive/Desktop/GD32VW553/V1_MQTT_OK/GD32VW55X_Wifi_BLE_SDK/GD32VW55x_RELEASE_V1.0.2/MSDK/wpa_supplicant/src/utils\common.c **** #endif /* UNICODE */
 458:C:/Users/stapi/OneDrive/Desktop/GD32VW553/V1_MQTT_OK/GD32VW55X_Wifi_BLE_SDK/GD32VW55x_RELEASE_V1.0.2/MSDK/wpa_supplicant/src/utils\common.c **** }
 459:C:/Users/stapi/OneDrive/Desktop/GD32VW553/V1_MQTT_OK/GD32VW55X_Wifi_BLE_SDK/GD32VW55x_RELEASE_V1.0.2/MSDK/wpa_supplicant/src/utils\common.c **** 
 460:C:/Users/stapi/OneDrive/Desktop/GD32VW553/V1_MQTT_OK/GD32VW55X_Wifi_BLE_SDK/GD32VW55x_RELEASE_V1.0.2/MSDK/wpa_supplicant/src/utils\common.c **** 
 461:C:/Users/stapi/OneDrive/Desktop/GD32VW553/V1_MQTT_OK/GD32VW55X_Wifi_BLE_SDK/GD32VW55x_RELEASE_V1.0.2/MSDK/wpa_supplicant/src/utils\common.c **** TCHAR * wpa_strdup_tchar(const char *str)
 462:C:/Users/stapi/OneDrive/Desktop/GD32VW553/V1_MQTT_OK/GD32VW55X_Wifi_BLE_SDK/GD32VW55x_RELEASE_V1.0.2/MSDK/wpa_supplicant/src/utils\common.c **** {
 463:C:/Users/stapi/OneDrive/Desktop/GD32VW553/V1_MQTT_OK/GD32VW55X_Wifi_BLE_SDK/GD32VW55x_RELEASE_V1.0.2/MSDK/wpa_supplicant/src/utils\common.c **** #ifdef UNICODE
 464:C:/Users/stapi/OneDrive/Desktop/GD32VW553/V1_MQTT_OK/GD32VW55X_Wifi_BLE_SDK/GD32VW55x_RELEASE_V1.0.2/MSDK/wpa_supplicant/src/utils\common.c **** 	TCHAR *buf;
 465:C:/Users/stapi/OneDrive/Desktop/GD32VW553/V1_MQTT_OK/GD32VW55X_Wifi_BLE_SDK/GD32VW55x_RELEASE_V1.0.2/MSDK/wpa_supplicant/src/utils\common.c **** 	buf = os_malloc((strlen(str) + 1) * sizeof(TCHAR));
 466:C:/Users/stapi/OneDrive/Desktop/GD32VW553/V1_MQTT_OK/GD32VW55X_Wifi_BLE_SDK/GD32VW55x_RELEASE_V1.0.2/MSDK/wpa_supplicant/src/utils\common.c **** 	if (buf == NULL)
 467:C:/Users/stapi/OneDrive/Desktop/GD32VW553/V1_MQTT_OK/GD32VW55X_Wifi_BLE_SDK/GD32VW55x_RELEASE_V1.0.2/MSDK/wpa_supplicant/src/utils\common.c **** 		return NULL;
 468:C:/Users/stapi/OneDrive/Desktop/GD32VW553/V1_MQTT_OK/GD32VW55X_Wifi_BLE_SDK/GD32VW55x_RELEASE_V1.0.2/MSDK/wpa_supplicant/src/utils\common.c **** 	wsprintf(buf, L"%S", str);
 469:C:/Users/stapi/OneDrive/Desktop/GD32VW553/V1_MQTT_OK/GD32VW55X_Wifi_BLE_SDK/GD32VW55x_RELEASE_V1.0.2/MSDK/wpa_supplicant/src/utils\common.c **** 	return buf;
 470:C:/Users/stapi/OneDrive/Desktop/GD32VW553/V1_MQTT_OK/GD32VW55X_Wifi_BLE_SDK/GD32VW55x_RELEASE_V1.0.2/MSDK/wpa_supplicant/src/utils\common.c **** #else /* UNICODE */
 471:C:/Users/stapi/OneDrive/Desktop/GD32VW553/V1_MQTT_OK/GD32VW55X_Wifi_BLE_SDK/GD32VW55x_RELEASE_V1.0.2/MSDK/wpa_supplicant/src/utils\common.c **** 	return os_strdup(str);
 472:C:/Users/stapi/OneDrive/Desktop/GD32VW553/V1_MQTT_OK/GD32VW55X_Wifi_BLE_SDK/GD32VW55x_RELEASE_V1.0.2/MSDK/wpa_supplicant/src/utils\common.c **** #endif /* UNICODE */
 473:C:/Users/stapi/OneDrive/Desktop/GD32VW553/V1_MQTT_OK/GD32VW55X_Wifi_BLE_SDK/GD32VW55x_RELEASE_V1.0.2/MSDK/wpa_supplicant/src/utils\common.c **** }
 474:C:/Users/stapi/OneDrive/Desktop/GD32VW553/V1_MQTT_OK/GD32VW55X_Wifi_BLE_SDK/GD32VW55x_RELEASE_V1.0.2/MSDK/wpa_supplicant/src/utils\common.c **** #endif /* CONFIG_NATIVE_WINDOWS */
 475:C:/Users/stapi/OneDrive/Desktop/GD32VW553/V1_MQTT_OK/GD32VW55X_Wifi_BLE_SDK/GD32VW55x_RELEASE_V1.0.2/MSDK/wpa_supplicant/src/utils\common.c **** 
 476:C:/Users/stapi/OneDrive/Desktop/GD32VW553/V1_MQTT_OK/GD32VW55X_Wifi_BLE_SDK/GD32VW55x_RELEASE_V1.0.2/MSDK/wpa_supplicant/src/utils\common.c **** 
 477:C:/Users/stapi/OneDrive/Desktop/GD32VW553/V1_MQTT_OK/GD32VW55X_Wifi_BLE_SDK/GD32VW55x_RELEASE_V1.0.2/MSDK/wpa_supplicant/src/utils\common.c **** void printf_encode(char *txt, size_t maxlen, const u8 *data, size_t len)
 478:C:/Users/stapi/OneDrive/Desktop/GD32VW553/V1_MQTT_OK/GD32VW55X_Wifi_BLE_SDK/GD32VW55x_RELEASE_V1.0.2/MSDK/wpa_supplicant/src/utils\common.c **** {
 479:C:/Users/stapi/OneDrive/Desktop/GD32VW553/V1_MQTT_OK/GD32VW55X_Wifi_BLE_SDK/GD32VW55x_RELEASE_V1.0.2/MSDK/wpa_supplicant/src/utils\common.c **** 	char *end = txt + maxlen;
 480:C:/Users/stapi/OneDrive/Desktop/GD32VW553/V1_MQTT_OK/GD32VW55X_Wifi_BLE_SDK/GD32VW55x_RELEASE_V1.0.2/MSDK/wpa_supplicant/src/utils\common.c **** 	size_t i;
 481:C:/Users/stapi/OneDrive/Desktop/GD32VW553/V1_MQTT_OK/GD32VW55X_Wifi_BLE_SDK/GD32VW55x_RELEASE_V1.0.2/MSDK/wpa_supplicant/src/utils\common.c **** 
 482:C:/Users/stapi/OneDrive/Desktop/GD32VW553/V1_MQTT_OK/GD32VW55X_Wifi_BLE_SDK/GD32VW55x_RELEASE_V1.0.2/MSDK/wpa_supplicant/src/utils\common.c **** 	for (i = 0; i < len; i++) {
 483:C:/Users/stapi/OneDrive/Desktop/GD32VW553/V1_MQTT_OK/GD32VW55X_Wifi_BLE_SDK/GD32VW55x_RELEASE_V1.0.2/MSDK/wpa_supplicant/src/utils\common.c **** 		if (txt + 4 >= end)
 484:C:/Users/stapi/OneDrive/Desktop/GD32VW553/V1_MQTT_OK/GD32VW55X_Wifi_BLE_SDK/GD32VW55x_RELEASE_V1.0.2/MSDK/wpa_supplicant/src/utils\common.c **** 			break;
 485:C:/Users/stapi/OneDrive/Desktop/GD32VW553/V1_MQTT_OK/GD32VW55X_Wifi_BLE_SDK/GD32VW55x_RELEASE_V1.0.2/MSDK/wpa_supplicant/src/utils\common.c **** 
 486:C:/Users/stapi/OneDrive/Desktop/GD32VW553/V1_MQTT_OK/GD32VW55X_Wifi_BLE_SDK/GD32VW55x_RELEASE_V1.0.2/MSDK/wpa_supplicant/src/utils\common.c **** 		switch (data[i]) {
 487:C:/Users/stapi/OneDrive/Desktop/GD32VW553/V1_MQTT_OK/GD32VW55X_Wifi_BLE_SDK/GD32VW55x_RELEASE_V1.0.2/MSDK/wpa_supplicant/src/utils\common.c **** 		case '\"':
 488:C:/Users/stapi/OneDrive/Desktop/GD32VW553/V1_MQTT_OK/GD32VW55X_Wifi_BLE_SDK/GD32VW55x_RELEASE_V1.0.2/MSDK/wpa_supplicant/src/utils\common.c **** 			*txt++ = '\\';
 489:C:/Users/stapi/OneDrive/Desktop/GD32VW553/V1_MQTT_OK/GD32VW55X_Wifi_BLE_SDK/GD32VW55x_RELEASE_V1.0.2/MSDK/wpa_supplicant/src/utils\common.c **** 			*txt++ = '\"';
 490:C:/Users/stapi/OneDrive/Desktop/GD32VW553/V1_MQTT_OK/GD32VW55X_Wifi_BLE_SDK/GD32VW55x_RELEASE_V1.0.2/MSDK/wpa_supplicant/src/utils\common.c **** 			break;
 491:C:/Users/stapi/OneDrive/Desktop/GD32VW553/V1_MQTT_OK/GD32VW55X_Wifi_BLE_SDK/GD32VW55x_RELEASE_V1.0.2/MSDK/wpa_supplicant/src/utils\common.c **** 		case '\\':
 492:C:/Users/stapi/OneDrive/Desktop/GD32VW553/V1_MQTT_OK/GD32VW55X_Wifi_BLE_SDK/GD32VW55x_RELEASE_V1.0.2/MSDK/wpa_supplicant/src/utils\common.c **** 			*txt++ = '\\';
 493:C:/Users/stapi/OneDrive/Desktop/GD32VW553/V1_MQTT_OK/GD32VW55X_Wifi_BLE_SDK/GD32VW55x_RELEASE_V1.0.2/MSDK/wpa_supplicant/src/utils\common.c **** 			*txt++ = '\\';
 494:C:/Users/stapi/OneDrive/Desktop/GD32VW553/V1_MQTT_OK/GD32VW55X_Wifi_BLE_SDK/GD32VW55x_RELEASE_V1.0.2/MSDK/wpa_supplicant/src/utils\common.c **** 			break;
 495:C:/Users/stapi/OneDrive/Desktop/GD32VW553/V1_MQTT_OK/GD32VW55X_Wifi_BLE_SDK/GD32VW55x_RELEASE_V1.0.2/MSDK/wpa_supplicant/src/utils\common.c **** 		case '\033':
 496:C:/Users/stapi/OneDrive/Desktop/GD32VW553/V1_MQTT_OK/GD32VW55X_Wifi_BLE_SDK/GD32VW55x_RELEASE_V1.0.2/MSDK/wpa_supplicant/src/utils\common.c **** 			*txt++ = '\\';
 497:C:/Users/stapi/OneDrive/Desktop/GD32VW553/V1_MQTT_OK/GD32VW55X_Wifi_BLE_SDK/GD32VW55x_RELEASE_V1.0.2/MSDK/wpa_supplicant/src/utils\common.c **** 			*txt++ = 'e';
 498:C:/Users/stapi/OneDrive/Desktop/GD32VW553/V1_MQTT_OK/GD32VW55X_Wifi_BLE_SDK/GD32VW55x_RELEASE_V1.0.2/MSDK/wpa_supplicant/src/utils\common.c **** 			break;
 499:C:/Users/stapi/OneDrive/Desktop/GD32VW553/V1_MQTT_OK/GD32VW55X_Wifi_BLE_SDK/GD32VW55x_RELEASE_V1.0.2/MSDK/wpa_supplicant/src/utils\common.c **** 		case '\n':
 500:C:/Users/stapi/OneDrive/Desktop/GD32VW553/V1_MQTT_OK/GD32VW55X_Wifi_BLE_SDK/GD32VW55x_RELEASE_V1.0.2/MSDK/wpa_supplicant/src/utils\common.c **** 			*txt++ = '\\';
 501:C:/Users/stapi/OneDrive/Desktop/GD32VW553/V1_MQTT_OK/GD32VW55X_Wifi_BLE_SDK/GD32VW55x_RELEASE_V1.0.2/MSDK/wpa_supplicant/src/utils\common.c **** 			*txt++ = 'n';
 502:C:/Users/stapi/OneDrive/Desktop/GD32VW553/V1_MQTT_OK/GD32VW55X_Wifi_BLE_SDK/GD32VW55x_RELEASE_V1.0.2/MSDK/wpa_supplicant/src/utils\common.c **** 			break;
 503:C:/Users/stapi/OneDrive/Desktop/GD32VW553/V1_MQTT_OK/GD32VW55X_Wifi_BLE_SDK/GD32VW55x_RELEASE_V1.0.2/MSDK/wpa_supplicant/src/utils\common.c **** 		case '\r':
 504:C:/Users/stapi/OneDrive/Desktop/GD32VW553/V1_MQTT_OK/GD32VW55X_Wifi_BLE_SDK/GD32VW55x_RELEASE_V1.0.2/MSDK/wpa_supplicant/src/utils\common.c **** 			*txt++ = '\\';
 505:C:/Users/stapi/OneDrive/Desktop/GD32VW553/V1_MQTT_OK/GD32VW55X_Wifi_BLE_SDK/GD32VW55x_RELEASE_V1.0.2/MSDK/wpa_supplicant/src/utils\common.c **** 			*txt++ = 'r';
 506:C:/Users/stapi/OneDrive/Desktop/GD32VW553/V1_MQTT_OK/GD32VW55X_Wifi_BLE_SDK/GD32VW55x_RELEASE_V1.0.2/MSDK/wpa_supplicant/src/utils\common.c **** 			break;
 507:C:/Users/stapi/OneDrive/Desktop/GD32VW553/V1_MQTT_OK/GD32VW55X_Wifi_BLE_SDK/GD32VW55x_RELEASE_V1.0.2/MSDK/wpa_supplicant/src/utils\common.c **** 		case '\t':
 508:C:/Users/stapi/OneDrive/Desktop/GD32VW553/V1_MQTT_OK/GD32VW55X_Wifi_BLE_SDK/GD32VW55x_RELEASE_V1.0.2/MSDK/wpa_supplicant/src/utils\common.c **** 			*txt++ = '\\';
 509:C:/Users/stapi/OneDrive/Desktop/GD32VW553/V1_MQTT_OK/GD32VW55X_Wifi_BLE_SDK/GD32VW55x_RELEASE_V1.0.2/MSDK/wpa_supplicant/src/utils\common.c **** 			*txt++ = 't';
 510:C:/Users/stapi/OneDrive/Desktop/GD32VW553/V1_MQTT_OK/GD32VW55X_Wifi_BLE_SDK/GD32VW55x_RELEASE_V1.0.2/MSDK/wpa_supplicant/src/utils\common.c **** 			break;
 511:C:/Users/stapi/OneDrive/Desktop/GD32VW553/V1_MQTT_OK/GD32VW55X_Wifi_BLE_SDK/GD32VW55x_RELEASE_V1.0.2/MSDK/wpa_supplicant/src/utils\common.c **** 		default:
 512:C:/Users/stapi/OneDrive/Desktop/GD32VW553/V1_MQTT_OK/GD32VW55X_Wifi_BLE_SDK/GD32VW55x_RELEASE_V1.0.2/MSDK/wpa_supplicant/src/utils\common.c **** 			if (data[i] >= 32 && data[i] <= 126) {
 513:C:/Users/stapi/OneDrive/Desktop/GD32VW553/V1_MQTT_OK/GD32VW55X_Wifi_BLE_SDK/GD32VW55x_RELEASE_V1.0.2/MSDK/wpa_supplicant/src/utils\common.c **** 				*txt++ = data[i];
 514:C:/Users/stapi/OneDrive/Desktop/GD32VW553/V1_MQTT_OK/GD32VW55X_Wifi_BLE_SDK/GD32VW55x_RELEASE_V1.0.2/MSDK/wpa_supplicant/src/utils\common.c **** 			} else {
 515:C:/Users/stapi/OneDrive/Desktop/GD32VW553/V1_MQTT_OK/GD32VW55X_Wifi_BLE_SDK/GD32VW55x_RELEASE_V1.0.2/MSDK/wpa_supplicant/src/utils\common.c **** 				txt += os_snprintf(txt, end - txt, "\\x%02x",
 516:C:/Users/stapi/OneDrive/Desktop/GD32VW553/V1_MQTT_OK/GD32VW55X_Wifi_BLE_SDK/GD32VW55x_RELEASE_V1.0.2/MSDK/wpa_supplicant/src/utils\common.c **** 						   data[i]);
 517:C:/Users/stapi/OneDrive/Desktop/GD32VW553/V1_MQTT_OK/GD32VW55X_Wifi_BLE_SDK/GD32VW55x_RELEASE_V1.0.2/MSDK/wpa_supplicant/src/utils\common.c **** 			}
 518:C:/Users/stapi/OneDrive/Desktop/GD32VW553/V1_MQTT_OK/GD32VW55X_Wifi_BLE_SDK/GD32VW55x_RELEASE_V1.0.2/MSDK/wpa_supplicant/src/utils\common.c **** 			break;
 519:C:/Users/stapi/OneDrive/Desktop/GD32VW553/V1_MQTT_OK/GD32VW55X_Wifi_BLE_SDK/GD32VW55x_RELEASE_V1.0.2/MSDK/wpa_supplicant/src/utils\common.c **** 		}
 520:C:/Users/stapi/OneDrive/Desktop/GD32VW553/V1_MQTT_OK/GD32VW55X_Wifi_BLE_SDK/GD32VW55x_RELEASE_V1.0.2/MSDK/wpa_supplicant/src/utils\common.c **** 	}
 521:C:/Users/stapi/OneDrive/Desktop/GD32VW553/V1_MQTT_OK/GD32VW55X_Wifi_BLE_SDK/GD32VW55x_RELEASE_V1.0.2/MSDK/wpa_supplicant/src/utils\common.c **** 
 522:C:/Users/stapi/OneDrive/Desktop/GD32VW553/V1_MQTT_OK/GD32VW55X_Wifi_BLE_SDK/GD32VW55x_RELEASE_V1.0.2/MSDK/wpa_supplicant/src/utils\common.c **** 	*txt = '\0';
 523:C:/Users/stapi/OneDrive/Desktop/GD32VW553/V1_MQTT_OK/GD32VW55X_Wifi_BLE_SDK/GD32VW55x_RELEASE_V1.0.2/MSDK/wpa_supplicant/src/utils\common.c **** }
 524:C:/Users/stapi/OneDrive/Desktop/GD32VW553/V1_MQTT_OK/GD32VW55X_Wifi_BLE_SDK/GD32VW55x_RELEASE_V1.0.2/MSDK/wpa_supplicant/src/utils\common.c **** 
 525:C:/Users/stapi/OneDrive/Desktop/GD32VW553/V1_MQTT_OK/GD32VW55X_Wifi_BLE_SDK/GD32VW55x_RELEASE_V1.0.2/MSDK/wpa_supplicant/src/utils\common.c **** 
 526:C:/Users/stapi/OneDrive/Desktop/GD32VW553/V1_MQTT_OK/GD32VW55X_Wifi_BLE_SDK/GD32VW55x_RELEASE_V1.0.2/MSDK/wpa_supplicant/src/utils\common.c **** size_t printf_decode(u8 *buf, size_t maxlen, const char *str)
 527:C:/Users/stapi/OneDrive/Desktop/GD32VW553/V1_MQTT_OK/GD32VW55X_Wifi_BLE_SDK/GD32VW55x_RELEASE_V1.0.2/MSDK/wpa_supplicant/src/utils\common.c **** {
 528:C:/Users/stapi/OneDrive/Desktop/GD32VW553/V1_MQTT_OK/GD32VW55X_Wifi_BLE_SDK/GD32VW55x_RELEASE_V1.0.2/MSDK/wpa_supplicant/src/utils\common.c **** 	const char *pos = str;
 529:C:/Users/stapi/OneDrive/Desktop/GD32VW553/V1_MQTT_OK/GD32VW55X_Wifi_BLE_SDK/GD32VW55x_RELEASE_V1.0.2/MSDK/wpa_supplicant/src/utils\common.c **** 	size_t len = 0;
 530:C:/Users/stapi/OneDrive/Desktop/GD32VW553/V1_MQTT_OK/GD32VW55X_Wifi_BLE_SDK/GD32VW55x_RELEASE_V1.0.2/MSDK/wpa_supplicant/src/utils\common.c **** 	int val;
 531:C:/Users/stapi/OneDrive/Desktop/GD32VW553/V1_MQTT_OK/GD32VW55X_Wifi_BLE_SDK/GD32VW55x_RELEASE_V1.0.2/MSDK/wpa_supplicant/src/utils\common.c **** 
 532:C:/Users/stapi/OneDrive/Desktop/GD32VW553/V1_MQTT_OK/GD32VW55X_Wifi_BLE_SDK/GD32VW55x_RELEASE_V1.0.2/MSDK/wpa_supplicant/src/utils\common.c **** 	while (*pos) {
 533:C:/Users/stapi/OneDrive/Desktop/GD32VW553/V1_MQTT_OK/GD32VW55X_Wifi_BLE_SDK/GD32VW55x_RELEASE_V1.0.2/MSDK/wpa_supplicant/src/utils\common.c **** 		if (len + 1 >= maxlen)
 534:C:/Users/stapi/OneDrive/Desktop/GD32VW553/V1_MQTT_OK/GD32VW55X_Wifi_BLE_SDK/GD32VW55x_RELEASE_V1.0.2/MSDK/wpa_supplicant/src/utils\common.c **** 			break;
 535:C:/Users/stapi/OneDrive/Desktop/GD32VW553/V1_MQTT_OK/GD32VW55X_Wifi_BLE_SDK/GD32VW55x_RELEASE_V1.0.2/MSDK/wpa_supplicant/src/utils\common.c **** 		switch (*pos) {
 536:C:/Users/stapi/OneDrive/Desktop/GD32VW553/V1_MQTT_OK/GD32VW55X_Wifi_BLE_SDK/GD32VW55x_RELEASE_V1.0.2/MSDK/wpa_supplicant/src/utils\common.c **** 		case '\\':
 537:C:/Users/stapi/OneDrive/Desktop/GD32VW553/V1_MQTT_OK/GD32VW55X_Wifi_BLE_SDK/GD32VW55x_RELEASE_V1.0.2/MSDK/wpa_supplicant/src/utils\common.c **** 			pos++;
 538:C:/Users/stapi/OneDrive/Desktop/GD32VW553/V1_MQTT_OK/GD32VW55X_Wifi_BLE_SDK/GD32VW55x_RELEASE_V1.0.2/MSDK/wpa_supplicant/src/utils\common.c **** 			switch (*pos) {
 539:C:/Users/stapi/OneDrive/Desktop/GD32VW553/V1_MQTT_OK/GD32VW55X_Wifi_BLE_SDK/GD32VW55x_RELEASE_V1.0.2/MSDK/wpa_supplicant/src/utils\common.c **** 			case '\\':
 540:C:/Users/stapi/OneDrive/Desktop/GD32VW553/V1_MQTT_OK/GD32VW55X_Wifi_BLE_SDK/GD32VW55x_RELEASE_V1.0.2/MSDK/wpa_supplicant/src/utils\common.c **** 				buf[len++] = '\\';
 541:C:/Users/stapi/OneDrive/Desktop/GD32VW553/V1_MQTT_OK/GD32VW55X_Wifi_BLE_SDK/GD32VW55x_RELEASE_V1.0.2/MSDK/wpa_supplicant/src/utils\common.c **** 				pos++;
 542:C:/Users/stapi/OneDrive/Desktop/GD32VW553/V1_MQTT_OK/GD32VW55X_Wifi_BLE_SDK/GD32VW55x_RELEASE_V1.0.2/MSDK/wpa_supplicant/src/utils\common.c **** 				break;
 543:C:/Users/stapi/OneDrive/Desktop/GD32VW553/V1_MQTT_OK/GD32VW55X_Wifi_BLE_SDK/GD32VW55x_RELEASE_V1.0.2/MSDK/wpa_supplicant/src/utils\common.c **** 			case '"':
 544:C:/Users/stapi/OneDrive/Desktop/GD32VW553/V1_MQTT_OK/GD32VW55X_Wifi_BLE_SDK/GD32VW55x_RELEASE_V1.0.2/MSDK/wpa_supplicant/src/utils\common.c **** 				buf[len++] = '"';
 545:C:/Users/stapi/OneDrive/Desktop/GD32VW553/V1_MQTT_OK/GD32VW55X_Wifi_BLE_SDK/GD32VW55x_RELEASE_V1.0.2/MSDK/wpa_supplicant/src/utils\common.c **** 				pos++;
 546:C:/Users/stapi/OneDrive/Desktop/GD32VW553/V1_MQTT_OK/GD32VW55X_Wifi_BLE_SDK/GD32VW55x_RELEASE_V1.0.2/MSDK/wpa_supplicant/src/utils\common.c **** 				break;
 547:C:/Users/stapi/OneDrive/Desktop/GD32VW553/V1_MQTT_OK/GD32VW55X_Wifi_BLE_SDK/GD32VW55x_RELEASE_V1.0.2/MSDK/wpa_supplicant/src/utils\common.c **** 			case 'n':
 548:C:/Users/stapi/OneDrive/Desktop/GD32VW553/V1_MQTT_OK/GD32VW55X_Wifi_BLE_SDK/GD32VW55x_RELEASE_V1.0.2/MSDK/wpa_supplicant/src/utils\common.c **** 				buf[len++] = '\n';
 549:C:/Users/stapi/OneDrive/Desktop/GD32VW553/V1_MQTT_OK/GD32VW55X_Wifi_BLE_SDK/GD32VW55x_RELEASE_V1.0.2/MSDK/wpa_supplicant/src/utils\common.c **** 				pos++;
 550:C:/Users/stapi/OneDrive/Desktop/GD32VW553/V1_MQTT_OK/GD32VW55X_Wifi_BLE_SDK/GD32VW55x_RELEASE_V1.0.2/MSDK/wpa_supplicant/src/utils\common.c **** 				break;
 551:C:/Users/stapi/OneDrive/Desktop/GD32VW553/V1_MQTT_OK/GD32VW55X_Wifi_BLE_SDK/GD32VW55x_RELEASE_V1.0.2/MSDK/wpa_supplicant/src/utils\common.c **** 			case 'r':
 552:C:/Users/stapi/OneDrive/Desktop/GD32VW553/V1_MQTT_OK/GD32VW55X_Wifi_BLE_SDK/GD32VW55x_RELEASE_V1.0.2/MSDK/wpa_supplicant/src/utils\common.c **** 				buf[len++] = '\r';
 553:C:/Users/stapi/OneDrive/Desktop/GD32VW553/V1_MQTT_OK/GD32VW55X_Wifi_BLE_SDK/GD32VW55x_RELEASE_V1.0.2/MSDK/wpa_supplicant/src/utils\common.c **** 				pos++;
 554:C:/Users/stapi/OneDrive/Desktop/GD32VW553/V1_MQTT_OK/GD32VW55X_Wifi_BLE_SDK/GD32VW55x_RELEASE_V1.0.2/MSDK/wpa_supplicant/src/utils\common.c **** 				break;
 555:C:/Users/stapi/OneDrive/Desktop/GD32VW553/V1_MQTT_OK/GD32VW55X_Wifi_BLE_SDK/GD32VW55x_RELEASE_V1.0.2/MSDK/wpa_supplicant/src/utils\common.c **** 			case 't':
 556:C:/Users/stapi/OneDrive/Desktop/GD32VW553/V1_MQTT_OK/GD32VW55X_Wifi_BLE_SDK/GD32VW55x_RELEASE_V1.0.2/MSDK/wpa_supplicant/src/utils\common.c **** 				buf[len++] = '\t';
 557:C:/Users/stapi/OneDrive/Desktop/GD32VW553/V1_MQTT_OK/GD32VW55X_Wifi_BLE_SDK/GD32VW55x_RELEASE_V1.0.2/MSDK/wpa_supplicant/src/utils\common.c **** 				pos++;
 558:C:/Users/stapi/OneDrive/Desktop/GD32VW553/V1_MQTT_OK/GD32VW55X_Wifi_BLE_SDK/GD32VW55x_RELEASE_V1.0.2/MSDK/wpa_supplicant/src/utils\common.c **** 				break;
 559:C:/Users/stapi/OneDrive/Desktop/GD32VW553/V1_MQTT_OK/GD32VW55X_Wifi_BLE_SDK/GD32VW55x_RELEASE_V1.0.2/MSDK/wpa_supplicant/src/utils\common.c **** 			case 'e':
 560:C:/Users/stapi/OneDrive/Desktop/GD32VW553/V1_MQTT_OK/GD32VW55X_Wifi_BLE_SDK/GD32VW55x_RELEASE_V1.0.2/MSDK/wpa_supplicant/src/utils\common.c **** 				buf[len++] = '\033';
 561:C:/Users/stapi/OneDrive/Desktop/GD32VW553/V1_MQTT_OK/GD32VW55X_Wifi_BLE_SDK/GD32VW55x_RELEASE_V1.0.2/MSDK/wpa_supplicant/src/utils\common.c **** 				pos++;
 562:C:/Users/stapi/OneDrive/Desktop/GD32VW553/V1_MQTT_OK/GD32VW55X_Wifi_BLE_SDK/GD32VW55x_RELEASE_V1.0.2/MSDK/wpa_supplicant/src/utils\common.c **** 				break;
 563:C:/Users/stapi/OneDrive/Desktop/GD32VW553/V1_MQTT_OK/GD32VW55X_Wifi_BLE_SDK/GD32VW55x_RELEASE_V1.0.2/MSDK/wpa_supplicant/src/utils\common.c **** 			case 'x':
 564:C:/Users/stapi/OneDrive/Desktop/GD32VW553/V1_MQTT_OK/GD32VW55X_Wifi_BLE_SDK/GD32VW55x_RELEASE_V1.0.2/MSDK/wpa_supplicant/src/utils\common.c **** 				pos++;
 565:C:/Users/stapi/OneDrive/Desktop/GD32VW553/V1_MQTT_OK/GD32VW55X_Wifi_BLE_SDK/GD32VW55x_RELEASE_V1.0.2/MSDK/wpa_supplicant/src/utils\common.c **** 				val = hex2byte(pos);
 566:C:/Users/stapi/OneDrive/Desktop/GD32VW553/V1_MQTT_OK/GD32VW55X_Wifi_BLE_SDK/GD32VW55x_RELEASE_V1.0.2/MSDK/wpa_supplicant/src/utils\common.c **** 				if (val < 0) {
 567:C:/Users/stapi/OneDrive/Desktop/GD32VW553/V1_MQTT_OK/GD32VW55X_Wifi_BLE_SDK/GD32VW55x_RELEASE_V1.0.2/MSDK/wpa_supplicant/src/utils\common.c **** 					val = hex2num(*pos);
 568:C:/Users/stapi/OneDrive/Desktop/GD32VW553/V1_MQTT_OK/GD32VW55X_Wifi_BLE_SDK/GD32VW55x_RELEASE_V1.0.2/MSDK/wpa_supplicant/src/utils\common.c **** 					if (val < 0)
 569:C:/Users/stapi/OneDrive/Desktop/GD32VW553/V1_MQTT_OK/GD32VW55X_Wifi_BLE_SDK/GD32VW55x_RELEASE_V1.0.2/MSDK/wpa_supplicant/src/utils\common.c **** 						break;
 570:C:/Users/stapi/OneDrive/Desktop/GD32VW553/V1_MQTT_OK/GD32VW55X_Wifi_BLE_SDK/GD32VW55x_RELEASE_V1.0.2/MSDK/wpa_supplicant/src/utils\common.c **** 					buf[len++] = val;
 571:C:/Users/stapi/OneDrive/Desktop/GD32VW553/V1_MQTT_OK/GD32VW55X_Wifi_BLE_SDK/GD32VW55x_RELEASE_V1.0.2/MSDK/wpa_supplicant/src/utils\common.c **** 					pos++;
 572:C:/Users/stapi/OneDrive/Desktop/GD32VW553/V1_MQTT_OK/GD32VW55X_Wifi_BLE_SDK/GD32VW55x_RELEASE_V1.0.2/MSDK/wpa_supplicant/src/utils\common.c **** 				} else {
 573:C:/Users/stapi/OneDrive/Desktop/GD32VW553/V1_MQTT_OK/GD32VW55X_Wifi_BLE_SDK/GD32VW55x_RELEASE_V1.0.2/MSDK/wpa_supplicant/src/utils\common.c **** 					buf[len++] = val;
 574:C:/Users/stapi/OneDrive/Desktop/GD32VW553/V1_MQTT_OK/GD32VW55X_Wifi_BLE_SDK/GD32VW55x_RELEASE_V1.0.2/MSDK/wpa_supplicant/src/utils\common.c **** 					pos += 2;
 575:C:/Users/stapi/OneDrive/Desktop/GD32VW553/V1_MQTT_OK/GD32VW55X_Wifi_BLE_SDK/GD32VW55x_RELEASE_V1.0.2/MSDK/wpa_supplicant/src/utils\common.c **** 				}
 576:C:/Users/stapi/OneDrive/Desktop/GD32VW553/V1_MQTT_OK/GD32VW55X_Wifi_BLE_SDK/GD32VW55x_RELEASE_V1.0.2/MSDK/wpa_supplicant/src/utils\common.c **** 				break;
 577:C:/Users/stapi/OneDrive/Desktop/GD32VW553/V1_MQTT_OK/GD32VW55X_Wifi_BLE_SDK/GD32VW55x_RELEASE_V1.0.2/MSDK/wpa_supplicant/src/utils\common.c **** 			case '0':
 578:C:/Users/stapi/OneDrive/Desktop/GD32VW553/V1_MQTT_OK/GD32VW55X_Wifi_BLE_SDK/GD32VW55x_RELEASE_V1.0.2/MSDK/wpa_supplicant/src/utils\common.c **** 			case '1':
 579:C:/Users/stapi/OneDrive/Desktop/GD32VW553/V1_MQTT_OK/GD32VW55X_Wifi_BLE_SDK/GD32VW55x_RELEASE_V1.0.2/MSDK/wpa_supplicant/src/utils\common.c **** 			case '2':
 580:C:/Users/stapi/OneDrive/Desktop/GD32VW553/V1_MQTT_OK/GD32VW55X_Wifi_BLE_SDK/GD32VW55x_RELEASE_V1.0.2/MSDK/wpa_supplicant/src/utils\common.c **** 			case '3':
 581:C:/Users/stapi/OneDrive/Desktop/GD32VW553/V1_MQTT_OK/GD32VW55X_Wifi_BLE_SDK/GD32VW55x_RELEASE_V1.0.2/MSDK/wpa_supplicant/src/utils\common.c **** 			case '4':
 582:C:/Users/stapi/OneDrive/Desktop/GD32VW553/V1_MQTT_OK/GD32VW55X_Wifi_BLE_SDK/GD32VW55x_RELEASE_V1.0.2/MSDK/wpa_supplicant/src/utils\common.c **** 			case '5':
 583:C:/Users/stapi/OneDrive/Desktop/GD32VW553/V1_MQTT_OK/GD32VW55X_Wifi_BLE_SDK/GD32VW55x_RELEASE_V1.0.2/MSDK/wpa_supplicant/src/utils\common.c **** 			case '6':
 584:C:/Users/stapi/OneDrive/Desktop/GD32VW553/V1_MQTT_OK/GD32VW55X_Wifi_BLE_SDK/GD32VW55x_RELEASE_V1.0.2/MSDK/wpa_supplicant/src/utils\common.c **** 			case '7':
 585:C:/Users/stapi/OneDrive/Desktop/GD32VW553/V1_MQTT_OK/GD32VW55X_Wifi_BLE_SDK/GD32VW55x_RELEASE_V1.0.2/MSDK/wpa_supplicant/src/utils\common.c **** 				val = *pos++ - '0';
 586:C:/Users/stapi/OneDrive/Desktop/GD32VW553/V1_MQTT_OK/GD32VW55X_Wifi_BLE_SDK/GD32VW55x_RELEASE_V1.0.2/MSDK/wpa_supplicant/src/utils\common.c **** 				if (*pos >= '0' && *pos <= '7')
 587:C:/Users/stapi/OneDrive/Desktop/GD32VW553/V1_MQTT_OK/GD32VW55X_Wifi_BLE_SDK/GD32VW55x_RELEASE_V1.0.2/MSDK/wpa_supplicant/src/utils\common.c **** 					val = val * 8 + (*pos++ - '0');
 588:C:/Users/stapi/OneDrive/Desktop/GD32VW553/V1_MQTT_OK/GD32VW55X_Wifi_BLE_SDK/GD32VW55x_RELEASE_V1.0.2/MSDK/wpa_supplicant/src/utils\common.c **** 				if (*pos >= '0' && *pos <= '7')
 589:C:/Users/stapi/OneDrive/Desktop/GD32VW553/V1_MQTT_OK/GD32VW55X_Wifi_BLE_SDK/GD32VW55x_RELEASE_V1.0.2/MSDK/wpa_supplicant/src/utils\common.c **** 					val = val * 8 + (*pos++ - '0');
 590:C:/Users/stapi/OneDrive/Desktop/GD32VW553/V1_MQTT_OK/GD32VW55X_Wifi_BLE_SDK/GD32VW55x_RELEASE_V1.0.2/MSDK/wpa_supplicant/src/utils\common.c **** 				buf[len++] = val;
 591:C:/Users/stapi/OneDrive/Desktop/GD32VW553/V1_MQTT_OK/GD32VW55X_Wifi_BLE_SDK/GD32VW55x_RELEASE_V1.0.2/MSDK/wpa_supplicant/src/utils\common.c **** 				break;
 592:C:/Users/stapi/OneDrive/Desktop/GD32VW553/V1_MQTT_OK/GD32VW55X_Wifi_BLE_SDK/GD32VW55x_RELEASE_V1.0.2/MSDK/wpa_supplicant/src/utils\common.c **** 			default:
 593:C:/Users/stapi/OneDrive/Desktop/GD32VW553/V1_MQTT_OK/GD32VW55X_Wifi_BLE_SDK/GD32VW55x_RELEASE_V1.0.2/MSDK/wpa_supplicant/src/utils\common.c **** 				break;
 594:C:/Users/stapi/OneDrive/Desktop/GD32VW553/V1_MQTT_OK/GD32VW55X_Wifi_BLE_SDK/GD32VW55x_RELEASE_V1.0.2/MSDK/wpa_supplicant/src/utils\common.c **** 			}
 595:C:/Users/stapi/OneDrive/Desktop/GD32VW553/V1_MQTT_OK/GD32VW55X_Wifi_BLE_SDK/GD32VW55x_RELEASE_V1.0.2/MSDK/wpa_supplicant/src/utils\common.c **** 			break;
 596:C:/Users/stapi/OneDrive/Desktop/GD32VW553/V1_MQTT_OK/GD32VW55X_Wifi_BLE_SDK/GD32VW55x_RELEASE_V1.0.2/MSDK/wpa_supplicant/src/utils\common.c **** 		default:
 597:C:/Users/stapi/OneDrive/Desktop/GD32VW553/V1_MQTT_OK/GD32VW55X_Wifi_BLE_SDK/GD32VW55x_RELEASE_V1.0.2/MSDK/wpa_supplicant/src/utils\common.c **** 			buf[len++] = *pos++;
 598:C:/Users/stapi/OneDrive/Desktop/GD32VW553/V1_MQTT_OK/GD32VW55X_Wifi_BLE_SDK/GD32VW55x_RELEASE_V1.0.2/MSDK/wpa_supplicant/src/utils\common.c **** 			break;
 599:C:/Users/stapi/OneDrive/Desktop/GD32VW553/V1_MQTT_OK/GD32VW55X_Wifi_BLE_SDK/GD32VW55x_RELEASE_V1.0.2/MSDK/wpa_supplicant/src/utils\common.c **** 		}
 600:C:/Users/stapi/OneDrive/Desktop/GD32VW553/V1_MQTT_OK/GD32VW55X_Wifi_BLE_SDK/GD32VW55x_RELEASE_V1.0.2/MSDK/wpa_supplicant/src/utils\common.c **** 	}
 601:C:/Users/stapi/OneDrive/Desktop/GD32VW553/V1_MQTT_OK/GD32VW55X_Wifi_BLE_SDK/GD32VW55x_RELEASE_V1.0.2/MSDK/wpa_supplicant/src/utils\common.c **** 	if (maxlen > len)
 602:C:/Users/stapi/OneDrive/Desktop/GD32VW553/V1_MQTT_OK/GD32VW55X_Wifi_BLE_SDK/GD32VW55x_RELEASE_V1.0.2/MSDK/wpa_supplicant/src/utils\common.c **** 		buf[len] = '\0';
 603:C:/Users/stapi/OneDrive/Desktop/GD32VW553/V1_MQTT_OK/GD32VW55X_Wifi_BLE_SDK/GD32VW55x_RELEASE_V1.0.2/MSDK/wpa_supplicant/src/utils\common.c **** 
 604:C:/Users/stapi/OneDrive/Desktop/GD32VW553/V1_MQTT_OK/GD32VW55X_Wifi_BLE_SDK/GD32VW55x_RELEASE_V1.0.2/MSDK/wpa_supplicant/src/utils\common.c **** 	return len;
 605:C:/Users/stapi/OneDrive/Desktop/GD32VW553/V1_MQTT_OK/GD32VW55X_Wifi_BLE_SDK/GD32VW55x_RELEASE_V1.0.2/MSDK/wpa_supplicant/src/utils\common.c **** }
 606:C:/Users/stapi/OneDrive/Desktop/GD32VW553/V1_MQTT_OK/GD32VW55X_Wifi_BLE_SDK/GD32VW55x_RELEASE_V1.0.2/MSDK/wpa_supplicant/src/utils\common.c **** 
 607:C:/Users/stapi/OneDrive/Desktop/GD32VW553/V1_MQTT_OK/GD32VW55X_Wifi_BLE_SDK/GD32VW55x_RELEASE_V1.0.2/MSDK/wpa_supplicant/src/utils\common.c **** 
 608:C:/Users/stapi/OneDrive/Desktop/GD32VW553/V1_MQTT_OK/GD32VW55X_Wifi_BLE_SDK/GD32VW55x_RELEASE_V1.0.2/MSDK/wpa_supplicant/src/utils\common.c **** /**
 609:C:/Users/stapi/OneDrive/Desktop/GD32VW553/V1_MQTT_OK/GD32VW55X_Wifi_BLE_SDK/GD32VW55x_RELEASE_V1.0.2/MSDK/wpa_supplicant/src/utils\common.c ****  * wpa_ssid_txt - Convert SSID to a printable string
 610:C:/Users/stapi/OneDrive/Desktop/GD32VW553/V1_MQTT_OK/GD32VW55X_Wifi_BLE_SDK/GD32VW55x_RELEASE_V1.0.2/MSDK/wpa_supplicant/src/utils\common.c ****  * @ssid: SSID (32-octet string)
 611:C:/Users/stapi/OneDrive/Desktop/GD32VW553/V1_MQTT_OK/GD32VW55X_Wifi_BLE_SDK/GD32VW55x_RELEASE_V1.0.2/MSDK/wpa_supplicant/src/utils\common.c ****  * @ssid_len: Length of ssid in octets
 612:C:/Users/stapi/OneDrive/Desktop/GD32VW553/V1_MQTT_OK/GD32VW55X_Wifi_BLE_SDK/GD32VW55x_RELEASE_V1.0.2/MSDK/wpa_supplicant/src/utils\common.c ****  * Returns: Pointer to a printable string
 613:C:/Users/stapi/OneDrive/Desktop/GD32VW553/V1_MQTT_OK/GD32VW55X_Wifi_BLE_SDK/GD32VW55x_RELEASE_V1.0.2/MSDK/wpa_supplicant/src/utils\common.c ****  *
 614:C:/Users/stapi/OneDrive/Desktop/GD32VW553/V1_MQTT_OK/GD32VW55X_Wifi_BLE_SDK/GD32VW55x_RELEASE_V1.0.2/MSDK/wpa_supplicant/src/utils\common.c ****  * This function can be used to convert SSIDs into printable form. In most
 615:C:/Users/stapi/OneDrive/Desktop/GD32VW553/V1_MQTT_OK/GD32VW55X_Wifi_BLE_SDK/GD32VW55x_RELEASE_V1.0.2/MSDK/wpa_supplicant/src/utils\common.c ****  * cases, SSIDs do not use unprintable characters, but IEEE 802.11 standard
 616:C:/Users/stapi/OneDrive/Desktop/GD32VW553/V1_MQTT_OK/GD32VW55X_Wifi_BLE_SDK/GD32VW55x_RELEASE_V1.0.2/MSDK/wpa_supplicant/src/utils\common.c ****  * does not limit the used character set, so anything could be used in an SSID.
 617:C:/Users/stapi/OneDrive/Desktop/GD32VW553/V1_MQTT_OK/GD32VW55X_Wifi_BLE_SDK/GD32VW55x_RELEASE_V1.0.2/MSDK/wpa_supplicant/src/utils\common.c ****  *
 618:C:/Users/stapi/OneDrive/Desktop/GD32VW553/V1_MQTT_OK/GD32VW55X_Wifi_BLE_SDK/GD32VW55x_RELEASE_V1.0.2/MSDK/wpa_supplicant/src/utils\common.c ****  * This function uses a static buffer, so only one call can be used at the
 619:C:/Users/stapi/OneDrive/Desktop/GD32VW553/V1_MQTT_OK/GD32VW55X_Wifi_BLE_SDK/GD32VW55x_RELEASE_V1.0.2/MSDK/wpa_supplicant/src/utils\common.c ****  * time, i.e., this is not re-entrant and the returned buffer must be used
 620:C:/Users/stapi/OneDrive/Desktop/GD32VW553/V1_MQTT_OK/GD32VW55X_Wifi_BLE_SDK/GD32VW55x_RELEASE_V1.0.2/MSDK/wpa_supplicant/src/utils\common.c ****  * before calling this again.
 621:C:/Users/stapi/OneDrive/Desktop/GD32VW553/V1_MQTT_OK/GD32VW55X_Wifi_BLE_SDK/GD32VW55x_RELEASE_V1.0.2/MSDK/wpa_supplicant/src/utils\common.c ****  */
 622:C:/Users/stapi/OneDrive/Desktop/GD32VW553/V1_MQTT_OK/GD32VW55X_Wifi_BLE_SDK/GD32VW55x_RELEASE_V1.0.2/MSDK/wpa_supplicant/src/utils\common.c **** const char * wpa_ssid_txt(const u8 *ssid, size_t ssid_len)
 623:C:/Users/stapi/OneDrive/Desktop/GD32VW553/V1_MQTT_OK/GD32VW55X_Wifi_BLE_SDK/GD32VW55x_RELEASE_V1.0.2/MSDK/wpa_supplicant/src/utils\common.c **** {
 624:C:/Users/stapi/OneDrive/Desktop/GD32VW553/V1_MQTT_OK/GD32VW55X_Wifi_BLE_SDK/GD32VW55x_RELEASE_V1.0.2/MSDK/wpa_supplicant/src/utils\common.c **** 	static char ssid_txt[SSID_MAX_LEN * 4 + 1];
 625:C:/Users/stapi/OneDrive/Desktop/GD32VW553/V1_MQTT_OK/GD32VW55X_Wifi_BLE_SDK/GD32VW55x_RELEASE_V1.0.2/MSDK/wpa_supplicant/src/utils\common.c **** 
 626:C:/Users/stapi/OneDrive/Desktop/GD32VW553/V1_MQTT_OK/GD32VW55X_Wifi_BLE_SDK/GD32VW55x_RELEASE_V1.0.2/MSDK/wpa_supplicant/src/utils\common.c **** 	if (ssid == NULL) {
 627:C:/Users/stapi/OneDrive/Desktop/GD32VW553/V1_MQTT_OK/GD32VW55X_Wifi_BLE_SDK/GD32VW55x_RELEASE_V1.0.2/MSDK/wpa_supplicant/src/utils\common.c **** 		ssid_txt[0] = '\0';
 628:C:/Users/stapi/OneDrive/Desktop/GD32VW553/V1_MQTT_OK/GD32VW55X_Wifi_BLE_SDK/GD32VW55x_RELEASE_V1.0.2/MSDK/wpa_supplicant/src/utils\common.c **** 		return ssid_txt;
 629:C:/Users/stapi/OneDrive/Desktop/GD32VW553/V1_MQTT_OK/GD32VW55X_Wifi_BLE_SDK/GD32VW55x_RELEASE_V1.0.2/MSDK/wpa_supplicant/src/utils\common.c **** 	}
 630:C:/Users/stapi/OneDrive/Desktop/GD32VW553/V1_MQTT_OK/GD32VW55X_Wifi_BLE_SDK/GD32VW55x_RELEASE_V1.0.2/MSDK/wpa_supplicant/src/utils\common.c **** 
 631:C:/Users/stapi/OneDrive/Desktop/GD32VW553/V1_MQTT_OK/GD32VW55X_Wifi_BLE_SDK/GD32VW55x_RELEASE_V1.0.2/MSDK/wpa_supplicant/src/utils\common.c **** 	printf_encode(ssid_txt, sizeof(ssid_txt), ssid, ssid_len);
 632:C:/Users/stapi/OneDrive/Desktop/GD32VW553/V1_MQTT_OK/GD32VW55X_Wifi_BLE_SDK/GD32VW55x_RELEASE_V1.0.2/MSDK/wpa_supplicant/src/utils\common.c **** 	return ssid_txt;
 633:C:/Users/stapi/OneDrive/Desktop/GD32VW553/V1_MQTT_OK/GD32VW55X_Wifi_BLE_SDK/GD32VW55x_RELEASE_V1.0.2/MSDK/wpa_supplicant/src/utils\common.c **** }
 634:C:/Users/stapi/OneDrive/Desktop/GD32VW553/V1_MQTT_OK/GD32VW55X_Wifi_BLE_SDK/GD32VW55x_RELEASE_V1.0.2/MSDK/wpa_supplicant/src/utils\common.c **** 
 635:C:/Users/stapi/OneDrive/Desktop/GD32VW553/V1_MQTT_OK/GD32VW55X_Wifi_BLE_SDK/GD32VW55x_RELEASE_V1.0.2/MSDK/wpa_supplicant/src/utils\common.c **** 
 636:C:/Users/stapi/OneDrive/Desktop/GD32VW553/V1_MQTT_OK/GD32VW55X_Wifi_BLE_SDK/GD32VW55x_RELEASE_V1.0.2/MSDK/wpa_supplicant/src/utils\common.c **** void * __hide_aliasing_typecast(void *foo)
 637:C:/Users/stapi/OneDrive/Desktop/GD32VW553/V1_MQTT_OK/GD32VW55X_Wifi_BLE_SDK/GD32VW55x_RELEASE_V1.0.2/MSDK/wpa_supplicant/src/utils\common.c **** {
 638:C:/Users/stapi/OneDrive/Desktop/GD32VW553/V1_MQTT_OK/GD32VW55X_Wifi_BLE_SDK/GD32VW55x_RELEASE_V1.0.2/MSDK/wpa_supplicant/src/utils\common.c **** 	return foo;
 639:C:/Users/stapi/OneDrive/Desktop/GD32VW553/V1_MQTT_OK/GD32VW55X_Wifi_BLE_SDK/GD32VW55x_RELEASE_V1.0.2/MSDK/wpa_supplicant/src/utils\common.c **** }
 640:C:/Users/stapi/OneDrive/Desktop/GD32VW553/V1_MQTT_OK/GD32VW55X_Wifi_BLE_SDK/GD32VW55x_RELEASE_V1.0.2/MSDK/wpa_supplicant/src/utils\common.c **** 
 641:C:/Users/stapi/OneDrive/Desktop/GD32VW553/V1_MQTT_OK/GD32VW55X_Wifi_BLE_SDK/GD32VW55x_RELEASE_V1.0.2/MSDK/wpa_supplicant/src/utils\common.c **** 
 642:C:/Users/stapi/OneDrive/Desktop/GD32VW553/V1_MQTT_OK/GD32VW55X_Wifi_BLE_SDK/GD32VW55x_RELEASE_V1.0.2/MSDK/wpa_supplicant/src/utils\common.c **** char * wpa_config_parse_string(const char *value, size_t *len)
 643:C:/Users/stapi/OneDrive/Desktop/GD32VW553/V1_MQTT_OK/GD32VW55X_Wifi_BLE_SDK/GD32VW55x_RELEASE_V1.0.2/MSDK/wpa_supplicant/src/utils\common.c **** {
 644:C:/Users/stapi/OneDrive/Desktop/GD32VW553/V1_MQTT_OK/GD32VW55X_Wifi_BLE_SDK/GD32VW55x_RELEASE_V1.0.2/MSDK/wpa_supplicant/src/utils\common.c **** 	if (*value == '"') {
 645:C:/Users/stapi/OneDrive/Desktop/GD32VW553/V1_MQTT_OK/GD32VW55X_Wifi_BLE_SDK/GD32VW55x_RELEASE_V1.0.2/MSDK/wpa_supplicant/src/utils\common.c **** 		const char *pos;
 646:C:/Users/stapi/OneDrive/Desktop/GD32VW553/V1_MQTT_OK/GD32VW55X_Wifi_BLE_SDK/GD32VW55x_RELEASE_V1.0.2/MSDK/wpa_supplicant/src/utils\common.c **** 		char *str;
 647:C:/Users/stapi/OneDrive/Desktop/GD32VW553/V1_MQTT_OK/GD32VW55X_Wifi_BLE_SDK/GD32VW55x_RELEASE_V1.0.2/MSDK/wpa_supplicant/src/utils\common.c **** 		value++;
 648:C:/Users/stapi/OneDrive/Desktop/GD32VW553/V1_MQTT_OK/GD32VW55X_Wifi_BLE_SDK/GD32VW55x_RELEASE_V1.0.2/MSDK/wpa_supplicant/src/utils\common.c **** 		pos = os_strrchr(value, '"');
 649:C:/Users/stapi/OneDrive/Desktop/GD32VW553/V1_MQTT_OK/GD32VW55X_Wifi_BLE_SDK/GD32VW55x_RELEASE_V1.0.2/MSDK/wpa_supplicant/src/utils\common.c **** 		if (pos == NULL || pos[1] != '\0')
 650:C:/Users/stapi/OneDrive/Desktop/GD32VW553/V1_MQTT_OK/GD32VW55X_Wifi_BLE_SDK/GD32VW55x_RELEASE_V1.0.2/MSDK/wpa_supplicant/src/utils\common.c **** 			return NULL;
 651:C:/Users/stapi/OneDrive/Desktop/GD32VW553/V1_MQTT_OK/GD32VW55X_Wifi_BLE_SDK/GD32VW55x_RELEASE_V1.0.2/MSDK/wpa_supplicant/src/utils\common.c **** 		*len = pos - value;
 652:C:/Users/stapi/OneDrive/Desktop/GD32VW553/V1_MQTT_OK/GD32VW55X_Wifi_BLE_SDK/GD32VW55x_RELEASE_V1.0.2/MSDK/wpa_supplicant/src/utils\common.c **** 		str = dup_binstr(value, *len);
 653:C:/Users/stapi/OneDrive/Desktop/GD32VW553/V1_MQTT_OK/GD32VW55X_Wifi_BLE_SDK/GD32VW55x_RELEASE_V1.0.2/MSDK/wpa_supplicant/src/utils\common.c **** 		if (str == NULL)
 654:C:/Users/stapi/OneDrive/Desktop/GD32VW553/V1_MQTT_OK/GD32VW55X_Wifi_BLE_SDK/GD32VW55x_RELEASE_V1.0.2/MSDK/wpa_supplicant/src/utils\common.c **** 			return NULL;
 655:C:/Users/stapi/OneDrive/Desktop/GD32VW553/V1_MQTT_OK/GD32VW55X_Wifi_BLE_SDK/GD32VW55x_RELEASE_V1.0.2/MSDK/wpa_supplicant/src/utils\common.c **** 		return str;
 656:C:/Users/stapi/OneDrive/Desktop/GD32VW553/V1_MQTT_OK/GD32VW55X_Wifi_BLE_SDK/GD32VW55x_RELEASE_V1.0.2/MSDK/wpa_supplicant/src/utils\common.c **** 	} else if (*value == 'P' && value[1] == '"') {
 657:C:/Users/stapi/OneDrive/Desktop/GD32VW553/V1_MQTT_OK/GD32VW55X_Wifi_BLE_SDK/GD32VW55x_RELEASE_V1.0.2/MSDK/wpa_supplicant/src/utils\common.c **** 		const char *pos;
 658:C:/Users/stapi/OneDrive/Desktop/GD32VW553/V1_MQTT_OK/GD32VW55X_Wifi_BLE_SDK/GD32VW55x_RELEASE_V1.0.2/MSDK/wpa_supplicant/src/utils\common.c **** 		char *tstr, *str;
 659:C:/Users/stapi/OneDrive/Desktop/GD32VW553/V1_MQTT_OK/GD32VW55X_Wifi_BLE_SDK/GD32VW55x_RELEASE_V1.0.2/MSDK/wpa_supplicant/src/utils\common.c **** 		size_t tlen;
 660:C:/Users/stapi/OneDrive/Desktop/GD32VW553/V1_MQTT_OK/GD32VW55X_Wifi_BLE_SDK/GD32VW55x_RELEASE_V1.0.2/MSDK/wpa_supplicant/src/utils\common.c **** 		value += 2;
 661:C:/Users/stapi/OneDrive/Desktop/GD32VW553/V1_MQTT_OK/GD32VW55X_Wifi_BLE_SDK/GD32VW55x_RELEASE_V1.0.2/MSDK/wpa_supplicant/src/utils\common.c **** 		pos = os_strrchr(value, '"');
 662:C:/Users/stapi/OneDrive/Desktop/GD32VW553/V1_MQTT_OK/GD32VW55X_Wifi_BLE_SDK/GD32VW55x_RELEASE_V1.0.2/MSDK/wpa_supplicant/src/utils\common.c **** 		if (pos == NULL || pos[1] != '\0')
 663:C:/Users/stapi/OneDrive/Desktop/GD32VW553/V1_MQTT_OK/GD32VW55X_Wifi_BLE_SDK/GD32VW55x_RELEASE_V1.0.2/MSDK/wpa_supplicant/src/utils\common.c **** 			return NULL;
 664:C:/Users/stapi/OneDrive/Desktop/GD32VW553/V1_MQTT_OK/GD32VW55X_Wifi_BLE_SDK/GD32VW55x_RELEASE_V1.0.2/MSDK/wpa_supplicant/src/utils\common.c **** 		tlen = pos - value;
 665:C:/Users/stapi/OneDrive/Desktop/GD32VW553/V1_MQTT_OK/GD32VW55X_Wifi_BLE_SDK/GD32VW55x_RELEASE_V1.0.2/MSDK/wpa_supplicant/src/utils\common.c **** 		tstr = dup_binstr(value, tlen);
 666:C:/Users/stapi/OneDrive/Desktop/GD32VW553/V1_MQTT_OK/GD32VW55X_Wifi_BLE_SDK/GD32VW55x_RELEASE_V1.0.2/MSDK/wpa_supplicant/src/utils\common.c **** 		if (tstr == NULL)
 667:C:/Users/stapi/OneDrive/Desktop/GD32VW553/V1_MQTT_OK/GD32VW55X_Wifi_BLE_SDK/GD32VW55x_RELEASE_V1.0.2/MSDK/wpa_supplicant/src/utils\common.c **** 			return NULL;
 668:C:/Users/stapi/OneDrive/Desktop/GD32VW553/V1_MQTT_OK/GD32VW55X_Wifi_BLE_SDK/GD32VW55x_RELEASE_V1.0.2/MSDK/wpa_supplicant/src/utils\common.c **** 
 669:C:/Users/stapi/OneDrive/Desktop/GD32VW553/V1_MQTT_OK/GD32VW55X_Wifi_BLE_SDK/GD32VW55x_RELEASE_V1.0.2/MSDK/wpa_supplicant/src/utils\common.c **** 		str = os_malloc(tlen + 1);
 670:C:/Users/stapi/OneDrive/Desktop/GD32VW553/V1_MQTT_OK/GD32VW55X_Wifi_BLE_SDK/GD32VW55x_RELEASE_V1.0.2/MSDK/wpa_supplicant/src/utils\common.c **** 		if (str == NULL) {
 671:C:/Users/stapi/OneDrive/Desktop/GD32VW553/V1_MQTT_OK/GD32VW55X_Wifi_BLE_SDK/GD32VW55x_RELEASE_V1.0.2/MSDK/wpa_supplicant/src/utils\common.c **** 			os_free(tstr);
 672:C:/Users/stapi/OneDrive/Desktop/GD32VW553/V1_MQTT_OK/GD32VW55X_Wifi_BLE_SDK/GD32VW55x_RELEASE_V1.0.2/MSDK/wpa_supplicant/src/utils\common.c **** 			return NULL;
 673:C:/Users/stapi/OneDrive/Desktop/GD32VW553/V1_MQTT_OK/GD32VW55X_Wifi_BLE_SDK/GD32VW55x_RELEASE_V1.0.2/MSDK/wpa_supplicant/src/utils\common.c **** 		}
 674:C:/Users/stapi/OneDrive/Desktop/GD32VW553/V1_MQTT_OK/GD32VW55X_Wifi_BLE_SDK/GD32VW55x_RELEASE_V1.0.2/MSDK/wpa_supplicant/src/utils\common.c **** 
 675:C:/Users/stapi/OneDrive/Desktop/GD32VW553/V1_MQTT_OK/GD32VW55X_Wifi_BLE_SDK/GD32VW55x_RELEASE_V1.0.2/MSDK/wpa_supplicant/src/utils\common.c **** 		*len = printf_decode((u8 *) str, tlen + 1, tstr);
 676:C:/Users/stapi/OneDrive/Desktop/GD32VW553/V1_MQTT_OK/GD32VW55X_Wifi_BLE_SDK/GD32VW55x_RELEASE_V1.0.2/MSDK/wpa_supplicant/src/utils\common.c **** 		os_free(tstr);
 677:C:/Users/stapi/OneDrive/Desktop/GD32VW553/V1_MQTT_OK/GD32VW55X_Wifi_BLE_SDK/GD32VW55x_RELEASE_V1.0.2/MSDK/wpa_supplicant/src/utils\common.c **** 
 678:C:/Users/stapi/OneDrive/Desktop/GD32VW553/V1_MQTT_OK/GD32VW55X_Wifi_BLE_SDK/GD32VW55x_RELEASE_V1.0.2/MSDK/wpa_supplicant/src/utils\common.c **** 		return str;
 679:C:/Users/stapi/OneDrive/Desktop/GD32VW553/V1_MQTT_OK/GD32VW55X_Wifi_BLE_SDK/GD32VW55x_RELEASE_V1.0.2/MSDK/wpa_supplicant/src/utils\common.c **** 	} else {
 680:C:/Users/stapi/OneDrive/Desktop/GD32VW553/V1_MQTT_OK/GD32VW55X_Wifi_BLE_SDK/GD32VW55x_RELEASE_V1.0.2/MSDK/wpa_supplicant/src/utils\common.c **** 		u8 *str;
 681:C:/Users/stapi/OneDrive/Desktop/GD32VW553/V1_MQTT_OK/GD32VW55X_Wifi_BLE_SDK/GD32VW55x_RELEASE_V1.0.2/MSDK/wpa_supplicant/src/utils\common.c **** 		size_t tlen, hlen = os_strlen(value);
 682:C:/Users/stapi/OneDrive/Desktop/GD32VW553/V1_MQTT_OK/GD32VW55X_Wifi_BLE_SDK/GD32VW55x_RELEASE_V1.0.2/MSDK/wpa_supplicant/src/utils\common.c **** 		if (hlen & 1)
 683:C:/Users/stapi/OneDrive/Desktop/GD32VW553/V1_MQTT_OK/GD32VW55X_Wifi_BLE_SDK/GD32VW55x_RELEASE_V1.0.2/MSDK/wpa_supplicant/src/utils\common.c **** 			return NULL;
 684:C:/Users/stapi/OneDrive/Desktop/GD32VW553/V1_MQTT_OK/GD32VW55X_Wifi_BLE_SDK/GD32VW55x_RELEASE_V1.0.2/MSDK/wpa_supplicant/src/utils\common.c **** 		tlen = hlen / 2;
 685:C:/Users/stapi/OneDrive/Desktop/GD32VW553/V1_MQTT_OK/GD32VW55X_Wifi_BLE_SDK/GD32VW55x_RELEASE_V1.0.2/MSDK/wpa_supplicant/src/utils\common.c **** 		str = os_malloc(tlen + 1);
 686:C:/Users/stapi/OneDrive/Desktop/GD32VW553/V1_MQTT_OK/GD32VW55X_Wifi_BLE_SDK/GD32VW55x_RELEASE_V1.0.2/MSDK/wpa_supplicant/src/utils\common.c **** 		if (str == NULL)
 687:C:/Users/stapi/OneDrive/Desktop/GD32VW553/V1_MQTT_OK/GD32VW55X_Wifi_BLE_SDK/GD32VW55x_RELEASE_V1.0.2/MSDK/wpa_supplicant/src/utils\common.c **** 			return NULL;
 688:C:/Users/stapi/OneDrive/Desktop/GD32VW553/V1_MQTT_OK/GD32VW55X_Wifi_BLE_SDK/GD32VW55x_RELEASE_V1.0.2/MSDK/wpa_supplicant/src/utils\common.c **** 		if (hexstr2bin(value, str, tlen)) {
 689:C:/Users/stapi/OneDrive/Desktop/GD32VW553/V1_MQTT_OK/GD32VW55X_Wifi_BLE_SDK/GD32VW55x_RELEASE_V1.0.2/MSDK/wpa_supplicant/src/utils\common.c **** 			os_free(str);
 690:C:/Users/stapi/OneDrive/Desktop/GD32VW553/V1_MQTT_OK/GD32VW55X_Wifi_BLE_SDK/GD32VW55x_RELEASE_V1.0.2/MSDK/wpa_supplicant/src/utils\common.c **** 			return NULL;
 691:C:/Users/stapi/OneDrive/Desktop/GD32VW553/V1_MQTT_OK/GD32VW55X_Wifi_BLE_SDK/GD32VW55x_RELEASE_V1.0.2/MSDK/wpa_supplicant/src/utils\common.c **** 		}
 692:C:/Users/stapi/OneDrive/Desktop/GD32VW553/V1_MQTT_OK/GD32VW55X_Wifi_BLE_SDK/GD32VW55x_RELEASE_V1.0.2/MSDK/wpa_supplicant/src/utils\common.c **** 		str[tlen] = '\0';
 693:C:/Users/stapi/OneDrive/Desktop/GD32VW553/V1_MQTT_OK/GD32VW55X_Wifi_BLE_SDK/GD32VW55x_RELEASE_V1.0.2/MSDK/wpa_supplicant/src/utils\common.c **** 		*len = tlen;
 694:C:/Users/stapi/OneDrive/Desktop/GD32VW553/V1_MQTT_OK/GD32VW55X_Wifi_BLE_SDK/GD32VW55x_RELEASE_V1.0.2/MSDK/wpa_supplicant/src/utils\common.c **** 		return (char *) str;
 695:C:/Users/stapi/OneDrive/Desktop/GD32VW553/V1_MQTT_OK/GD32VW55X_Wifi_BLE_SDK/GD32VW55x_RELEASE_V1.0.2/MSDK/wpa_supplicant/src/utils\common.c **** 	}
 696:C:/Users/stapi/OneDrive/Desktop/GD32VW553/V1_MQTT_OK/GD32VW55X_Wifi_BLE_SDK/GD32VW55x_RELEASE_V1.0.2/MSDK/wpa_supplicant/src/utils\common.c **** }
 697:C:/Users/stapi/OneDrive/Desktop/GD32VW553/V1_MQTT_OK/GD32VW55X_Wifi_BLE_SDK/GD32VW55x_RELEASE_V1.0.2/MSDK/wpa_supplicant/src/utils\common.c **** 
 698:C:/Users/stapi/OneDrive/Desktop/GD32VW553/V1_MQTT_OK/GD32VW55X_Wifi_BLE_SDK/GD32VW55x_RELEASE_V1.0.2/MSDK/wpa_supplicant/src/utils\common.c **** 
 699:C:/Users/stapi/OneDrive/Desktop/GD32VW553/V1_MQTT_OK/GD32VW55X_Wifi_BLE_SDK/GD32VW55x_RELEASE_V1.0.2/MSDK/wpa_supplicant/src/utils\common.c **** int is_hex(const u8 *data, size_t len)
 700:C:/Users/stapi/OneDrive/Desktop/GD32VW553/V1_MQTT_OK/GD32VW55X_Wifi_BLE_SDK/GD32VW55x_RELEASE_V1.0.2/MSDK/wpa_supplicant/src/utils\common.c **** {
 701:C:/Users/stapi/OneDrive/Desktop/GD32VW553/V1_MQTT_OK/GD32VW55X_Wifi_BLE_SDK/GD32VW55x_RELEASE_V1.0.2/MSDK/wpa_supplicant/src/utils\common.c **** 	size_t i;
 702:C:/Users/stapi/OneDrive/Desktop/GD32VW553/V1_MQTT_OK/GD32VW55X_Wifi_BLE_SDK/GD32VW55x_RELEASE_V1.0.2/MSDK/wpa_supplicant/src/utils\common.c **** 
 703:C:/Users/stapi/OneDrive/Desktop/GD32VW553/V1_MQTT_OK/GD32VW55X_Wifi_BLE_SDK/GD32VW55x_RELEASE_V1.0.2/MSDK/wpa_supplicant/src/utils\common.c **** 	for (i = 0; i < len; i++) {
 704:C:/Users/stapi/OneDrive/Desktop/GD32VW553/V1_MQTT_OK/GD32VW55X_Wifi_BLE_SDK/GD32VW55x_RELEASE_V1.0.2/MSDK/wpa_supplicant/src/utils\common.c **** 		if (data[i] < 32 || data[i] >= 127)
 705:C:/Users/stapi/OneDrive/Desktop/GD32VW553/V1_MQTT_OK/GD32VW55X_Wifi_BLE_SDK/GD32VW55x_RELEASE_V1.0.2/MSDK/wpa_supplicant/src/utils\common.c **** 			return 1;
 706:C:/Users/stapi/OneDrive/Desktop/GD32VW553/V1_MQTT_OK/GD32VW55X_Wifi_BLE_SDK/GD32VW55x_RELEASE_V1.0.2/MSDK/wpa_supplicant/src/utils\common.c **** 	}
 707:C:/Users/stapi/OneDrive/Desktop/GD32VW553/V1_MQTT_OK/GD32VW55X_Wifi_BLE_SDK/GD32VW55x_RELEASE_V1.0.2/MSDK/wpa_supplicant/src/utils\common.c **** 	return 0;
 708:C:/Users/stapi/OneDrive/Desktop/GD32VW553/V1_MQTT_OK/GD32VW55X_Wifi_BLE_SDK/GD32VW55x_RELEASE_V1.0.2/MSDK/wpa_supplicant/src/utils\common.c **** }
 709:C:/Users/stapi/OneDrive/Desktop/GD32VW553/V1_MQTT_OK/GD32VW55X_Wifi_BLE_SDK/GD32VW55x_RELEASE_V1.0.2/MSDK/wpa_supplicant/src/utils\common.c **** 
 710:C:/Users/stapi/OneDrive/Desktop/GD32VW553/V1_MQTT_OK/GD32VW55X_Wifi_BLE_SDK/GD32VW55x_RELEASE_V1.0.2/MSDK/wpa_supplicant/src/utils\common.c **** 
 711:C:/Users/stapi/OneDrive/Desktop/GD32VW553/V1_MQTT_OK/GD32VW55X_Wifi_BLE_SDK/GD32VW55x_RELEASE_V1.0.2/MSDK/wpa_supplicant/src/utils\common.c **** int has_ctrl_char(const u8 *data, size_t len)
 712:C:/Users/stapi/OneDrive/Desktop/GD32VW553/V1_MQTT_OK/GD32VW55X_Wifi_BLE_SDK/GD32VW55x_RELEASE_V1.0.2/MSDK/wpa_supplicant/src/utils\common.c **** {
 713:C:/Users/stapi/OneDrive/Desktop/GD32VW553/V1_MQTT_OK/GD32VW55X_Wifi_BLE_SDK/GD32VW55x_RELEASE_V1.0.2/MSDK/wpa_supplicant/src/utils\common.c **** 	size_t i;
 714:C:/Users/stapi/OneDrive/Desktop/GD32VW553/V1_MQTT_OK/GD32VW55X_Wifi_BLE_SDK/GD32VW55x_RELEASE_V1.0.2/MSDK/wpa_supplicant/src/utils\common.c **** 
 715:C:/Users/stapi/OneDrive/Desktop/GD32VW553/V1_MQTT_OK/GD32VW55X_Wifi_BLE_SDK/GD32VW55x_RELEASE_V1.0.2/MSDK/wpa_supplicant/src/utils\common.c **** 	for (i = 0; i < len; i++) {
 716:C:/Users/stapi/OneDrive/Desktop/GD32VW553/V1_MQTT_OK/GD32VW55X_Wifi_BLE_SDK/GD32VW55x_RELEASE_V1.0.2/MSDK/wpa_supplicant/src/utils\common.c **** 		if (data[i] < 32 || data[i] == 127)
 717:C:/Users/stapi/OneDrive/Desktop/GD32VW553/V1_MQTT_OK/GD32VW55X_Wifi_BLE_SDK/GD32VW55x_RELEASE_V1.0.2/MSDK/wpa_supplicant/src/utils\common.c **** 			return 1;
 718:C:/Users/stapi/OneDrive/Desktop/GD32VW553/V1_MQTT_OK/GD32VW55X_Wifi_BLE_SDK/GD32VW55x_RELEASE_V1.0.2/MSDK/wpa_supplicant/src/utils\common.c **** 	}
 719:C:/Users/stapi/OneDrive/Desktop/GD32VW553/V1_MQTT_OK/GD32VW55X_Wifi_BLE_SDK/GD32VW55x_RELEASE_V1.0.2/MSDK/wpa_supplicant/src/utils\common.c **** 	return 0;
 720:C:/Users/stapi/OneDrive/Desktop/GD32VW553/V1_MQTT_OK/GD32VW55X_Wifi_BLE_SDK/GD32VW55x_RELEASE_V1.0.2/MSDK/wpa_supplicant/src/utils\common.c **** }
 721:C:/Users/stapi/OneDrive/Desktop/GD32VW553/V1_MQTT_OK/GD32VW55X_Wifi_BLE_SDK/GD32VW55x_RELEASE_V1.0.2/MSDK/wpa_supplicant/src/utils\common.c **** 
 722:C:/Users/stapi/OneDrive/Desktop/GD32VW553/V1_MQTT_OK/GD32VW55X_Wifi_BLE_SDK/GD32VW55x_RELEASE_V1.0.2/MSDK/wpa_supplicant/src/utils\common.c **** 
 723:C:/Users/stapi/OneDrive/Desktop/GD32VW553/V1_MQTT_OK/GD32VW55X_Wifi_BLE_SDK/GD32VW55x_RELEASE_V1.0.2/MSDK/wpa_supplicant/src/utils\common.c **** int has_newline(const char *str)
 724:C:/Users/stapi/OneDrive/Desktop/GD32VW553/V1_MQTT_OK/GD32VW55X_Wifi_BLE_SDK/GD32VW55x_RELEASE_V1.0.2/MSDK/wpa_supplicant/src/utils\common.c **** {
 725:C:/Users/stapi/OneDrive/Desktop/GD32VW553/V1_MQTT_OK/GD32VW55X_Wifi_BLE_SDK/GD32VW55x_RELEASE_V1.0.2/MSDK/wpa_supplicant/src/utils\common.c **** 	while (*str) {
 726:C:/Users/stapi/OneDrive/Desktop/GD32VW553/V1_MQTT_OK/GD32VW55X_Wifi_BLE_SDK/GD32VW55x_RELEASE_V1.0.2/MSDK/wpa_supplicant/src/utils\common.c **** 		if (*str == '\n' || *str == '\r')
 727:C:/Users/stapi/OneDrive/Desktop/GD32VW553/V1_MQTT_OK/GD32VW55X_Wifi_BLE_SDK/GD32VW55x_RELEASE_V1.0.2/MSDK/wpa_supplicant/src/utils\common.c **** 			return 1;
 728:C:/Users/stapi/OneDrive/Desktop/GD32VW553/V1_MQTT_OK/GD32VW55X_Wifi_BLE_SDK/GD32VW55x_RELEASE_V1.0.2/MSDK/wpa_supplicant/src/utils\common.c **** 		str++;
 729:C:/Users/stapi/OneDrive/Desktop/GD32VW553/V1_MQTT_OK/GD32VW55X_Wifi_BLE_SDK/GD32VW55x_RELEASE_V1.0.2/MSDK/wpa_supplicant/src/utils\common.c **** 	}
 730:C:/Users/stapi/OneDrive/Desktop/GD32VW553/V1_MQTT_OK/GD32VW55X_Wifi_BLE_SDK/GD32VW55x_RELEASE_V1.0.2/MSDK/wpa_supplicant/src/utils\common.c **** 	return 0;
 731:C:/Users/stapi/OneDrive/Desktop/GD32VW553/V1_MQTT_OK/GD32VW55X_Wifi_BLE_SDK/GD32VW55x_RELEASE_V1.0.2/MSDK/wpa_supplicant/src/utils\common.c **** }
 732:C:/Users/stapi/OneDrive/Desktop/GD32VW553/V1_MQTT_OK/GD32VW55X_Wifi_BLE_SDK/GD32VW55x_RELEASE_V1.0.2/MSDK/wpa_supplicant/src/utils\common.c **** 
 733:C:/Users/stapi/OneDrive/Desktop/GD32VW553/V1_MQTT_OK/GD32VW55X_Wifi_BLE_SDK/GD32VW55x_RELEASE_V1.0.2/MSDK/wpa_supplicant/src/utils\common.c **** 
 734:C:/Users/stapi/OneDrive/Desktop/GD32VW553/V1_MQTT_OK/GD32VW55X_Wifi_BLE_SDK/GD32VW55x_RELEASE_V1.0.2/MSDK/wpa_supplicant/src/utils\common.c **** size_t merge_byte_arrays(u8 *res, size_t res_len,
 735:C:/Users/stapi/OneDrive/Desktop/GD32VW553/V1_MQTT_OK/GD32VW55X_Wifi_BLE_SDK/GD32VW55x_RELEASE_V1.0.2/MSDK/wpa_supplicant/src/utils\common.c **** 			 const u8 *src1, size_t src1_len,
 736:C:/Users/stapi/OneDrive/Desktop/GD32VW553/V1_MQTT_OK/GD32VW55X_Wifi_BLE_SDK/GD32VW55x_RELEASE_V1.0.2/MSDK/wpa_supplicant/src/utils\common.c **** 			 const u8 *src2, size_t src2_len)
 737:C:/Users/stapi/OneDrive/Desktop/GD32VW553/V1_MQTT_OK/GD32VW55X_Wifi_BLE_SDK/GD32VW55x_RELEASE_V1.0.2/MSDK/wpa_supplicant/src/utils\common.c **** {
 738:C:/Users/stapi/OneDrive/Desktop/GD32VW553/V1_MQTT_OK/GD32VW55X_Wifi_BLE_SDK/GD32VW55x_RELEASE_V1.0.2/MSDK/wpa_supplicant/src/utils\common.c **** 	size_t len = 0;
 739:C:/Users/stapi/OneDrive/Desktop/GD32VW553/V1_MQTT_OK/GD32VW55X_Wifi_BLE_SDK/GD32VW55x_RELEASE_V1.0.2/MSDK/wpa_supplicant/src/utils\common.c **** 
 740:C:/Users/stapi/OneDrive/Desktop/GD32VW553/V1_MQTT_OK/GD32VW55X_Wifi_BLE_SDK/GD32VW55x_RELEASE_V1.0.2/MSDK/wpa_supplicant/src/utils\common.c **** 	os_memset(res, 0, res_len);
 741:C:/Users/stapi/OneDrive/Desktop/GD32VW553/V1_MQTT_OK/GD32VW55X_Wifi_BLE_SDK/GD32VW55x_RELEASE_V1.0.2/MSDK/wpa_supplicant/src/utils\common.c **** 
 742:C:/Users/stapi/OneDrive/Desktop/GD32VW553/V1_MQTT_OK/GD32VW55X_Wifi_BLE_SDK/GD32VW55x_RELEASE_V1.0.2/MSDK/wpa_supplicant/src/utils\common.c **** 	if (src1) {
 743:C:/Users/stapi/OneDrive/Desktop/GD32VW553/V1_MQTT_OK/GD32VW55X_Wifi_BLE_SDK/GD32VW55x_RELEASE_V1.0.2/MSDK/wpa_supplicant/src/utils\common.c **** 		if (src1_len >= res_len) {
 744:C:/Users/stapi/OneDrive/Desktop/GD32VW553/V1_MQTT_OK/GD32VW55X_Wifi_BLE_SDK/GD32VW55x_RELEASE_V1.0.2/MSDK/wpa_supplicant/src/utils\common.c **** 			os_memcpy(res, src1, res_len);
 745:C:/Users/stapi/OneDrive/Desktop/GD32VW553/V1_MQTT_OK/GD32VW55X_Wifi_BLE_SDK/GD32VW55x_RELEASE_V1.0.2/MSDK/wpa_supplicant/src/utils\common.c **** 			return res_len;
 746:C:/Users/stapi/OneDrive/Desktop/GD32VW553/V1_MQTT_OK/GD32VW55X_Wifi_BLE_SDK/GD32VW55x_RELEASE_V1.0.2/MSDK/wpa_supplicant/src/utils\common.c **** 		}
 747:C:/Users/stapi/OneDrive/Desktop/GD32VW553/V1_MQTT_OK/GD32VW55X_Wifi_BLE_SDK/GD32VW55x_RELEASE_V1.0.2/MSDK/wpa_supplicant/src/utils\common.c **** 
 748:C:/Users/stapi/OneDrive/Desktop/GD32VW553/V1_MQTT_OK/GD32VW55X_Wifi_BLE_SDK/GD32VW55x_RELEASE_V1.0.2/MSDK/wpa_supplicant/src/utils\common.c **** 		os_memcpy(res, src1, src1_len);
 749:C:/Users/stapi/OneDrive/Desktop/GD32VW553/V1_MQTT_OK/GD32VW55X_Wifi_BLE_SDK/GD32VW55x_RELEASE_V1.0.2/MSDK/wpa_supplicant/src/utils\common.c **** 		len += src1_len;
 750:C:/Users/stapi/OneDrive/Desktop/GD32VW553/V1_MQTT_OK/GD32VW55X_Wifi_BLE_SDK/GD32VW55x_RELEASE_V1.0.2/MSDK/wpa_supplicant/src/utils\common.c **** 	}
 751:C:/Users/stapi/OneDrive/Desktop/GD32VW553/V1_MQTT_OK/GD32VW55X_Wifi_BLE_SDK/GD32VW55x_RELEASE_V1.0.2/MSDK/wpa_supplicant/src/utils\common.c **** 
 752:C:/Users/stapi/OneDrive/Desktop/GD32VW553/V1_MQTT_OK/GD32VW55X_Wifi_BLE_SDK/GD32VW55x_RELEASE_V1.0.2/MSDK/wpa_supplicant/src/utils\common.c **** 	if (src2) {
 753:C:/Users/stapi/OneDrive/Desktop/GD32VW553/V1_MQTT_OK/GD32VW55X_Wifi_BLE_SDK/GD32VW55x_RELEASE_V1.0.2/MSDK/wpa_supplicant/src/utils\common.c **** 		if (len + src2_len >= res_len) {
 754:C:/Users/stapi/OneDrive/Desktop/GD32VW553/V1_MQTT_OK/GD32VW55X_Wifi_BLE_SDK/GD32VW55x_RELEASE_V1.0.2/MSDK/wpa_supplicant/src/utils\common.c **** 			os_memcpy(res + len, src2, res_len - len);
 755:C:/Users/stapi/OneDrive/Desktop/GD32VW553/V1_MQTT_OK/GD32VW55X_Wifi_BLE_SDK/GD32VW55x_RELEASE_V1.0.2/MSDK/wpa_supplicant/src/utils\common.c **** 			return res_len;
 756:C:/Users/stapi/OneDrive/Desktop/GD32VW553/V1_MQTT_OK/GD32VW55X_Wifi_BLE_SDK/GD32VW55x_RELEASE_V1.0.2/MSDK/wpa_supplicant/src/utils\common.c **** 		}
 757:C:/Users/stapi/OneDrive/Desktop/GD32VW553/V1_MQTT_OK/GD32VW55X_Wifi_BLE_SDK/GD32VW55x_RELEASE_V1.0.2/MSDK/wpa_supplicant/src/utils\common.c **** 
 758:C:/Users/stapi/OneDrive/Desktop/GD32VW553/V1_MQTT_OK/GD32VW55X_Wifi_BLE_SDK/GD32VW55x_RELEASE_V1.0.2/MSDK/wpa_supplicant/src/utils\common.c **** 		os_memcpy(res + len, src2, src2_len);
 759:C:/Users/stapi/OneDrive/Desktop/GD32VW553/V1_MQTT_OK/GD32VW55X_Wifi_BLE_SDK/GD32VW55x_RELEASE_V1.0.2/MSDK/wpa_supplicant/src/utils\common.c **** 		len += src2_len;
 760:C:/Users/stapi/OneDrive/Desktop/GD32VW553/V1_MQTT_OK/GD32VW55X_Wifi_BLE_SDK/GD32VW55x_RELEASE_V1.0.2/MSDK/wpa_supplicant/src/utils\common.c **** 	}
 761:C:/Users/stapi/OneDrive/Desktop/GD32VW553/V1_MQTT_OK/GD32VW55X_Wifi_BLE_SDK/GD32VW55x_RELEASE_V1.0.2/MSDK/wpa_supplicant/src/utils\common.c **** 
 762:C:/Users/stapi/OneDrive/Desktop/GD32VW553/V1_MQTT_OK/GD32VW55X_Wifi_BLE_SDK/GD32VW55x_RELEASE_V1.0.2/MSDK/wpa_supplicant/src/utils\common.c **** 	return len;
 763:C:/Users/stapi/OneDrive/Desktop/GD32VW553/V1_MQTT_OK/GD32VW55X_Wifi_BLE_SDK/GD32VW55x_RELEASE_V1.0.2/MSDK/wpa_supplicant/src/utils\common.c **** }
 764:C:/Users/stapi/OneDrive/Desktop/GD32VW553/V1_MQTT_OK/GD32VW55X_Wifi_BLE_SDK/GD32VW55x_RELEASE_V1.0.2/MSDK/wpa_supplicant/src/utils\common.c **** 
 765:C:/Users/stapi/OneDrive/Desktop/GD32VW553/V1_MQTT_OK/GD32VW55X_Wifi_BLE_SDK/GD32VW55x_RELEASE_V1.0.2/MSDK/wpa_supplicant/src/utils\common.c **** 
 766:C:/Users/stapi/OneDrive/Desktop/GD32VW553/V1_MQTT_OK/GD32VW55X_Wifi_BLE_SDK/GD32VW55x_RELEASE_V1.0.2/MSDK/wpa_supplicant/src/utils\common.c **** char * dup_binstr(const void *src, size_t len)
 767:C:/Users/stapi/OneDrive/Desktop/GD32VW553/V1_MQTT_OK/GD32VW55X_Wifi_BLE_SDK/GD32VW55x_RELEASE_V1.0.2/MSDK/wpa_supplicant/src/utils\common.c **** {
 768:C:/Users/stapi/OneDrive/Desktop/GD32VW553/V1_MQTT_OK/GD32VW55X_Wifi_BLE_SDK/GD32VW55x_RELEASE_V1.0.2/MSDK/wpa_supplicant/src/utils\common.c **** 	char *res;
 769:C:/Users/stapi/OneDrive/Desktop/GD32VW553/V1_MQTT_OK/GD32VW55X_Wifi_BLE_SDK/GD32VW55x_RELEASE_V1.0.2/MSDK/wpa_supplicant/src/utils\common.c **** 
 770:C:/Users/stapi/OneDrive/Desktop/GD32VW553/V1_MQTT_OK/GD32VW55X_Wifi_BLE_SDK/GD32VW55x_RELEASE_V1.0.2/MSDK/wpa_supplicant/src/utils\common.c **** 	if (src == NULL)
 771:C:/Users/stapi/OneDrive/Desktop/GD32VW553/V1_MQTT_OK/GD32VW55X_Wifi_BLE_SDK/GD32VW55x_RELEASE_V1.0.2/MSDK/wpa_supplicant/src/utils\common.c **** 		return NULL;
 772:C:/Users/stapi/OneDrive/Desktop/GD32VW553/V1_MQTT_OK/GD32VW55X_Wifi_BLE_SDK/GD32VW55x_RELEASE_V1.0.2/MSDK/wpa_supplicant/src/utils\common.c **** 	res = os_malloc(len + 1);
 773:C:/Users/stapi/OneDrive/Desktop/GD32VW553/V1_MQTT_OK/GD32VW55X_Wifi_BLE_SDK/GD32VW55x_RELEASE_V1.0.2/MSDK/wpa_supplicant/src/utils\common.c **** 	if (res == NULL)
 774:C:/Users/stapi/OneDrive/Desktop/GD32VW553/V1_MQTT_OK/GD32VW55X_Wifi_BLE_SDK/GD32VW55x_RELEASE_V1.0.2/MSDK/wpa_supplicant/src/utils\common.c **** 		return NULL;
 775:C:/Users/stapi/OneDrive/Desktop/GD32VW553/V1_MQTT_OK/GD32VW55X_Wifi_BLE_SDK/GD32VW55x_RELEASE_V1.0.2/MSDK/wpa_supplicant/src/utils\common.c **** 	os_memcpy(res, src, len);
 776:C:/Users/stapi/OneDrive/Desktop/GD32VW553/V1_MQTT_OK/GD32VW55X_Wifi_BLE_SDK/GD32VW55x_RELEASE_V1.0.2/MSDK/wpa_supplicant/src/utils\common.c **** 	res[len] = '\0';
 777:C:/Users/stapi/OneDrive/Desktop/GD32VW553/V1_MQTT_OK/GD32VW55X_Wifi_BLE_SDK/GD32VW55x_RELEASE_V1.0.2/MSDK/wpa_supplicant/src/utils\common.c **** 
 778:C:/Users/stapi/OneDrive/Desktop/GD32VW553/V1_MQTT_OK/GD32VW55X_Wifi_BLE_SDK/GD32VW55x_RELEASE_V1.0.2/MSDK/wpa_supplicant/src/utils\common.c **** 	return res;
 779:C:/Users/stapi/OneDrive/Desktop/GD32VW553/V1_MQTT_OK/GD32VW55X_Wifi_BLE_SDK/GD32VW55x_RELEASE_V1.0.2/MSDK/wpa_supplicant/src/utils\common.c **** }
 780:C:/Users/stapi/OneDrive/Desktop/GD32VW553/V1_MQTT_OK/GD32VW55X_Wifi_BLE_SDK/GD32VW55x_RELEASE_V1.0.2/MSDK/wpa_supplicant/src/utils\common.c **** 
 781:C:/Users/stapi/OneDrive/Desktop/GD32VW553/V1_MQTT_OK/GD32VW55X_Wifi_BLE_SDK/GD32VW55x_RELEASE_V1.0.2/MSDK/wpa_supplicant/src/utils\common.c **** 
 782:C:/Users/stapi/OneDrive/Desktop/GD32VW553/V1_MQTT_OK/GD32VW55X_Wifi_BLE_SDK/GD32VW55x_RELEASE_V1.0.2/MSDK/wpa_supplicant/src/utils\common.c **** int freq_range_list_parse(struct wpa_freq_range_list *res, const char *value)
 783:C:/Users/stapi/OneDrive/Desktop/GD32VW553/V1_MQTT_OK/GD32VW55X_Wifi_BLE_SDK/GD32VW55x_RELEASE_V1.0.2/MSDK/wpa_supplicant/src/utils\common.c **** {
 784:C:/Users/stapi/OneDrive/Desktop/GD32VW553/V1_MQTT_OK/GD32VW55X_Wifi_BLE_SDK/GD32VW55x_RELEASE_V1.0.2/MSDK/wpa_supplicant/src/utils\common.c **** 	struct wpa_freq_range *freq = NULL, *n;
 785:C:/Users/stapi/OneDrive/Desktop/GD32VW553/V1_MQTT_OK/GD32VW55X_Wifi_BLE_SDK/GD32VW55x_RELEASE_V1.0.2/MSDK/wpa_supplicant/src/utils\common.c **** 	unsigned int count = 0;
 786:C:/Users/stapi/OneDrive/Desktop/GD32VW553/V1_MQTT_OK/GD32VW55X_Wifi_BLE_SDK/GD32VW55x_RELEASE_V1.0.2/MSDK/wpa_supplicant/src/utils\common.c **** 	const char *pos, *pos2, *pos3;
 787:C:/Users/stapi/OneDrive/Desktop/GD32VW553/V1_MQTT_OK/GD32VW55X_Wifi_BLE_SDK/GD32VW55x_RELEASE_V1.0.2/MSDK/wpa_supplicant/src/utils\common.c **** 
 788:C:/Users/stapi/OneDrive/Desktop/GD32VW553/V1_MQTT_OK/GD32VW55X_Wifi_BLE_SDK/GD32VW55x_RELEASE_V1.0.2/MSDK/wpa_supplicant/src/utils\common.c **** 	/*
 789:C:/Users/stapi/OneDrive/Desktop/GD32VW553/V1_MQTT_OK/GD32VW55X_Wifi_BLE_SDK/GD32VW55x_RELEASE_V1.0.2/MSDK/wpa_supplicant/src/utils\common.c **** 	 * Comma separated list of frequency ranges.
 790:C:/Users/stapi/OneDrive/Desktop/GD32VW553/V1_MQTT_OK/GD32VW55X_Wifi_BLE_SDK/GD32VW55x_RELEASE_V1.0.2/MSDK/wpa_supplicant/src/utils\common.c **** 	 * For example: 2412-2432,2462,5000-6000
 791:C:/Users/stapi/OneDrive/Desktop/GD32VW553/V1_MQTT_OK/GD32VW55X_Wifi_BLE_SDK/GD32VW55x_RELEASE_V1.0.2/MSDK/wpa_supplicant/src/utils\common.c **** 	 */
 792:C:/Users/stapi/OneDrive/Desktop/GD32VW553/V1_MQTT_OK/GD32VW55X_Wifi_BLE_SDK/GD32VW55x_RELEASE_V1.0.2/MSDK/wpa_supplicant/src/utils\common.c **** 	pos = value;
 793:C:/Users/stapi/OneDrive/Desktop/GD32VW553/V1_MQTT_OK/GD32VW55X_Wifi_BLE_SDK/GD32VW55x_RELEASE_V1.0.2/MSDK/wpa_supplicant/src/utils\common.c **** 	while (pos && pos[0]) {
 794:C:/Users/stapi/OneDrive/Desktop/GD32VW553/V1_MQTT_OK/GD32VW55X_Wifi_BLE_SDK/GD32VW55x_RELEASE_V1.0.2/MSDK/wpa_supplicant/src/utils\common.c **** 		if (count == UINT_MAX) {
 795:C:/Users/stapi/OneDrive/Desktop/GD32VW553/V1_MQTT_OK/GD32VW55X_Wifi_BLE_SDK/GD32VW55x_RELEASE_V1.0.2/MSDK/wpa_supplicant/src/utils\common.c **** 			os_free(freq);
 796:C:/Users/stapi/OneDrive/Desktop/GD32VW553/V1_MQTT_OK/GD32VW55X_Wifi_BLE_SDK/GD32VW55x_RELEASE_V1.0.2/MSDK/wpa_supplicant/src/utils\common.c **** 			return -1;
 797:C:/Users/stapi/OneDrive/Desktop/GD32VW553/V1_MQTT_OK/GD32VW55X_Wifi_BLE_SDK/GD32VW55x_RELEASE_V1.0.2/MSDK/wpa_supplicant/src/utils\common.c **** 		}
 798:C:/Users/stapi/OneDrive/Desktop/GD32VW553/V1_MQTT_OK/GD32VW55X_Wifi_BLE_SDK/GD32VW55x_RELEASE_V1.0.2/MSDK/wpa_supplicant/src/utils\common.c **** 		n = os_realloc_array(freq, count + 1,
 799:C:/Users/stapi/OneDrive/Desktop/GD32VW553/V1_MQTT_OK/GD32VW55X_Wifi_BLE_SDK/GD32VW55x_RELEASE_V1.0.2/MSDK/wpa_supplicant/src/utils\common.c **** 				     sizeof(struct wpa_freq_range));
 800:C:/Users/stapi/OneDrive/Desktop/GD32VW553/V1_MQTT_OK/GD32VW55X_Wifi_BLE_SDK/GD32VW55x_RELEASE_V1.0.2/MSDK/wpa_supplicant/src/utils\common.c **** 		if (n == NULL) {
 801:C:/Users/stapi/OneDrive/Desktop/GD32VW553/V1_MQTT_OK/GD32VW55X_Wifi_BLE_SDK/GD32VW55x_RELEASE_V1.0.2/MSDK/wpa_supplicant/src/utils\common.c **** 			os_free(freq);
 802:C:/Users/stapi/OneDrive/Desktop/GD32VW553/V1_MQTT_OK/GD32VW55X_Wifi_BLE_SDK/GD32VW55x_RELEASE_V1.0.2/MSDK/wpa_supplicant/src/utils\common.c **** 			return -1;
 803:C:/Users/stapi/OneDrive/Desktop/GD32VW553/V1_MQTT_OK/GD32VW55X_Wifi_BLE_SDK/GD32VW55x_RELEASE_V1.0.2/MSDK/wpa_supplicant/src/utils\common.c **** 		}
 804:C:/Users/stapi/OneDrive/Desktop/GD32VW553/V1_MQTT_OK/GD32VW55X_Wifi_BLE_SDK/GD32VW55x_RELEASE_V1.0.2/MSDK/wpa_supplicant/src/utils\common.c **** 		freq = n;
 805:C:/Users/stapi/OneDrive/Desktop/GD32VW553/V1_MQTT_OK/GD32VW55X_Wifi_BLE_SDK/GD32VW55x_RELEASE_V1.0.2/MSDK/wpa_supplicant/src/utils\common.c **** 		freq[count].min = atoi(pos);
 806:C:/Users/stapi/OneDrive/Desktop/GD32VW553/V1_MQTT_OK/GD32VW55X_Wifi_BLE_SDK/GD32VW55x_RELEASE_V1.0.2/MSDK/wpa_supplicant/src/utils\common.c **** 		pos2 = os_strchr(pos, '-');
 807:C:/Users/stapi/OneDrive/Desktop/GD32VW553/V1_MQTT_OK/GD32VW55X_Wifi_BLE_SDK/GD32VW55x_RELEASE_V1.0.2/MSDK/wpa_supplicant/src/utils\common.c **** 		pos3 = os_strchr(pos, ',');
 808:C:/Users/stapi/OneDrive/Desktop/GD32VW553/V1_MQTT_OK/GD32VW55X_Wifi_BLE_SDK/GD32VW55x_RELEASE_V1.0.2/MSDK/wpa_supplicant/src/utils\common.c **** 		if (pos2 && (!pos3 || pos2 < pos3)) {
 809:C:/Users/stapi/OneDrive/Desktop/GD32VW553/V1_MQTT_OK/GD32VW55X_Wifi_BLE_SDK/GD32VW55x_RELEASE_V1.0.2/MSDK/wpa_supplicant/src/utils\common.c **** 			pos2++;
 810:C:/Users/stapi/OneDrive/Desktop/GD32VW553/V1_MQTT_OK/GD32VW55X_Wifi_BLE_SDK/GD32VW55x_RELEASE_V1.0.2/MSDK/wpa_supplicant/src/utils\common.c **** 			freq[count].max = atoi(pos2);
 811:C:/Users/stapi/OneDrive/Desktop/GD32VW553/V1_MQTT_OK/GD32VW55X_Wifi_BLE_SDK/GD32VW55x_RELEASE_V1.0.2/MSDK/wpa_supplicant/src/utils\common.c **** 		} else
 812:C:/Users/stapi/OneDrive/Desktop/GD32VW553/V1_MQTT_OK/GD32VW55X_Wifi_BLE_SDK/GD32VW55x_RELEASE_V1.0.2/MSDK/wpa_supplicant/src/utils\common.c **** 			freq[count].max = freq[count].min;
 813:C:/Users/stapi/OneDrive/Desktop/GD32VW553/V1_MQTT_OK/GD32VW55X_Wifi_BLE_SDK/GD32VW55x_RELEASE_V1.0.2/MSDK/wpa_supplicant/src/utils\common.c **** 		pos = pos3;
 814:C:/Users/stapi/OneDrive/Desktop/GD32VW553/V1_MQTT_OK/GD32VW55X_Wifi_BLE_SDK/GD32VW55x_RELEASE_V1.0.2/MSDK/wpa_supplicant/src/utils\common.c **** 		if (pos)
 815:C:/Users/stapi/OneDrive/Desktop/GD32VW553/V1_MQTT_OK/GD32VW55X_Wifi_BLE_SDK/GD32VW55x_RELEASE_V1.0.2/MSDK/wpa_supplicant/src/utils\common.c **** 			pos++;
 816:C:/Users/stapi/OneDrive/Desktop/GD32VW553/V1_MQTT_OK/GD32VW55X_Wifi_BLE_SDK/GD32VW55x_RELEASE_V1.0.2/MSDK/wpa_supplicant/src/utils\common.c **** 		count++;
 817:C:/Users/stapi/OneDrive/Desktop/GD32VW553/V1_MQTT_OK/GD32VW55X_Wifi_BLE_SDK/GD32VW55x_RELEASE_V1.0.2/MSDK/wpa_supplicant/src/utils\common.c **** 	}
 818:C:/Users/stapi/OneDrive/Desktop/GD32VW553/V1_MQTT_OK/GD32VW55X_Wifi_BLE_SDK/GD32VW55x_RELEASE_V1.0.2/MSDK/wpa_supplicant/src/utils\common.c **** 
 819:C:/Users/stapi/OneDrive/Desktop/GD32VW553/V1_MQTT_OK/GD32VW55X_Wifi_BLE_SDK/GD32VW55x_RELEASE_V1.0.2/MSDK/wpa_supplicant/src/utils\common.c **** 	os_free(res->range);
 820:C:/Users/stapi/OneDrive/Desktop/GD32VW553/V1_MQTT_OK/GD32VW55X_Wifi_BLE_SDK/GD32VW55x_RELEASE_V1.0.2/MSDK/wpa_supplicant/src/utils\common.c **** 	res->range = freq;
 821:C:/Users/stapi/OneDrive/Desktop/GD32VW553/V1_MQTT_OK/GD32VW55X_Wifi_BLE_SDK/GD32VW55x_RELEASE_V1.0.2/MSDK/wpa_supplicant/src/utils\common.c **** 	res->num = count;
 822:C:/Users/stapi/OneDrive/Desktop/GD32VW553/V1_MQTT_OK/GD32VW55X_Wifi_BLE_SDK/GD32VW55x_RELEASE_V1.0.2/MSDK/wpa_supplicant/src/utils\common.c **** 
 823:C:/Users/stapi/OneDrive/Desktop/GD32VW553/V1_MQTT_OK/GD32VW55X_Wifi_BLE_SDK/GD32VW55x_RELEASE_V1.0.2/MSDK/wpa_supplicant/src/utils\common.c **** 	return 0;
 824:C:/Users/stapi/OneDrive/Desktop/GD32VW553/V1_MQTT_OK/GD32VW55X_Wifi_BLE_SDK/GD32VW55x_RELEASE_V1.0.2/MSDK/wpa_supplicant/src/utils\common.c **** }
 825:C:/Users/stapi/OneDrive/Desktop/GD32VW553/V1_MQTT_OK/GD32VW55X_Wifi_BLE_SDK/GD32VW55x_RELEASE_V1.0.2/MSDK/wpa_supplicant/src/utils\common.c **** 
 826:C:/Users/stapi/OneDrive/Desktop/GD32VW553/V1_MQTT_OK/GD32VW55X_Wifi_BLE_SDK/GD32VW55x_RELEASE_V1.0.2/MSDK/wpa_supplicant/src/utils\common.c **** 
 827:C:/Users/stapi/OneDrive/Desktop/GD32VW553/V1_MQTT_OK/GD32VW55X_Wifi_BLE_SDK/GD32VW55x_RELEASE_V1.0.2/MSDK/wpa_supplicant/src/utils\common.c **** int freq_range_list_includes(const struct wpa_freq_range_list *list,
 828:C:/Users/stapi/OneDrive/Desktop/GD32VW553/V1_MQTT_OK/GD32VW55X_Wifi_BLE_SDK/GD32VW55x_RELEASE_V1.0.2/MSDK/wpa_supplicant/src/utils\common.c **** 			     unsigned int freq)
 829:C:/Users/stapi/OneDrive/Desktop/GD32VW553/V1_MQTT_OK/GD32VW55X_Wifi_BLE_SDK/GD32VW55x_RELEASE_V1.0.2/MSDK/wpa_supplicant/src/utils\common.c **** {
 830:C:/Users/stapi/OneDrive/Desktop/GD32VW553/V1_MQTT_OK/GD32VW55X_Wifi_BLE_SDK/GD32VW55x_RELEASE_V1.0.2/MSDK/wpa_supplicant/src/utils\common.c **** 	unsigned int i;
 831:C:/Users/stapi/OneDrive/Desktop/GD32VW553/V1_MQTT_OK/GD32VW55X_Wifi_BLE_SDK/GD32VW55x_RELEASE_V1.0.2/MSDK/wpa_supplicant/src/utils\common.c **** 
 832:C:/Users/stapi/OneDrive/Desktop/GD32VW553/V1_MQTT_OK/GD32VW55X_Wifi_BLE_SDK/GD32VW55x_RELEASE_V1.0.2/MSDK/wpa_supplicant/src/utils\common.c **** 	if (list == NULL)
 833:C:/Users/stapi/OneDrive/Desktop/GD32VW553/V1_MQTT_OK/GD32VW55X_Wifi_BLE_SDK/GD32VW55x_RELEASE_V1.0.2/MSDK/wpa_supplicant/src/utils\common.c **** 		return 0;
 834:C:/Users/stapi/OneDrive/Desktop/GD32VW553/V1_MQTT_OK/GD32VW55X_Wifi_BLE_SDK/GD32VW55x_RELEASE_V1.0.2/MSDK/wpa_supplicant/src/utils\common.c **** 
 835:C:/Users/stapi/OneDrive/Desktop/GD32VW553/V1_MQTT_OK/GD32VW55X_Wifi_BLE_SDK/GD32VW55x_RELEASE_V1.0.2/MSDK/wpa_supplicant/src/utils\common.c **** 	for (i = 0; i < list->num; i++) {
 836:C:/Users/stapi/OneDrive/Desktop/GD32VW553/V1_MQTT_OK/GD32VW55X_Wifi_BLE_SDK/GD32VW55x_RELEASE_V1.0.2/MSDK/wpa_supplicant/src/utils\common.c **** 		if (freq >= list->range[i].min && freq <= list->range[i].max)
 837:C:/Users/stapi/OneDrive/Desktop/GD32VW553/V1_MQTT_OK/GD32VW55X_Wifi_BLE_SDK/GD32VW55x_RELEASE_V1.0.2/MSDK/wpa_supplicant/src/utils\common.c **** 			return 1;
 838:C:/Users/stapi/OneDrive/Desktop/GD32VW553/V1_MQTT_OK/GD32VW55X_Wifi_BLE_SDK/GD32VW55x_RELEASE_V1.0.2/MSDK/wpa_supplicant/src/utils\common.c **** 	}
 839:C:/Users/stapi/OneDrive/Desktop/GD32VW553/V1_MQTT_OK/GD32VW55X_Wifi_BLE_SDK/GD32VW55x_RELEASE_V1.0.2/MSDK/wpa_supplicant/src/utils\common.c **** 
 840:C:/Users/stapi/OneDrive/Desktop/GD32VW553/V1_MQTT_OK/GD32VW55X_Wifi_BLE_SDK/GD32VW55x_RELEASE_V1.0.2/MSDK/wpa_supplicant/src/utils\common.c **** 	return 0;
 841:C:/Users/stapi/OneDrive/Desktop/GD32VW553/V1_MQTT_OK/GD32VW55X_Wifi_BLE_SDK/GD32VW55x_RELEASE_V1.0.2/MSDK/wpa_supplicant/src/utils\common.c **** }
 842:C:/Users/stapi/OneDrive/Desktop/GD32VW553/V1_MQTT_OK/GD32VW55X_Wifi_BLE_SDK/GD32VW55x_RELEASE_V1.0.2/MSDK/wpa_supplicant/src/utils\common.c **** 
 843:C:/Users/stapi/OneDrive/Desktop/GD32VW553/V1_MQTT_OK/GD32VW55X_Wifi_BLE_SDK/GD32VW55x_RELEASE_V1.0.2/MSDK/wpa_supplicant/src/utils\common.c **** 
 844:C:/Users/stapi/OneDrive/Desktop/GD32VW553/V1_MQTT_OK/GD32VW55X_Wifi_BLE_SDK/GD32VW55x_RELEASE_V1.0.2/MSDK/wpa_supplicant/src/utils\common.c **** char * freq_range_list_str(const struct wpa_freq_range_list *list)
 845:C:/Users/stapi/OneDrive/Desktop/GD32VW553/V1_MQTT_OK/GD32VW55X_Wifi_BLE_SDK/GD32VW55x_RELEASE_V1.0.2/MSDK/wpa_supplicant/src/utils\common.c **** {
 846:C:/Users/stapi/OneDrive/Desktop/GD32VW553/V1_MQTT_OK/GD32VW55X_Wifi_BLE_SDK/GD32VW55x_RELEASE_V1.0.2/MSDK/wpa_supplicant/src/utils\common.c **** 	char *buf, *pos, *end;
 847:C:/Users/stapi/OneDrive/Desktop/GD32VW553/V1_MQTT_OK/GD32VW55X_Wifi_BLE_SDK/GD32VW55x_RELEASE_V1.0.2/MSDK/wpa_supplicant/src/utils\common.c **** 	size_t maxlen;
 848:C:/Users/stapi/OneDrive/Desktop/GD32VW553/V1_MQTT_OK/GD32VW55X_Wifi_BLE_SDK/GD32VW55x_RELEASE_V1.0.2/MSDK/wpa_supplicant/src/utils\common.c **** 	unsigned int i;
 849:C:/Users/stapi/OneDrive/Desktop/GD32VW553/V1_MQTT_OK/GD32VW55X_Wifi_BLE_SDK/GD32VW55x_RELEASE_V1.0.2/MSDK/wpa_supplicant/src/utils\common.c **** 	int res;
 850:C:/Users/stapi/OneDrive/Desktop/GD32VW553/V1_MQTT_OK/GD32VW55X_Wifi_BLE_SDK/GD32VW55x_RELEASE_V1.0.2/MSDK/wpa_supplicant/src/utils\common.c **** 
 851:C:/Users/stapi/OneDrive/Desktop/GD32VW553/V1_MQTT_OK/GD32VW55X_Wifi_BLE_SDK/GD32VW55x_RELEASE_V1.0.2/MSDK/wpa_supplicant/src/utils\common.c **** 	if (list->num == 0)
 852:C:/Users/stapi/OneDrive/Desktop/GD32VW553/V1_MQTT_OK/GD32VW55X_Wifi_BLE_SDK/GD32VW55x_RELEASE_V1.0.2/MSDK/wpa_supplicant/src/utils\common.c **** 		return NULL;
 853:C:/Users/stapi/OneDrive/Desktop/GD32VW553/V1_MQTT_OK/GD32VW55X_Wifi_BLE_SDK/GD32VW55x_RELEASE_V1.0.2/MSDK/wpa_supplicant/src/utils\common.c **** 
 854:C:/Users/stapi/OneDrive/Desktop/GD32VW553/V1_MQTT_OK/GD32VW55X_Wifi_BLE_SDK/GD32VW55x_RELEASE_V1.0.2/MSDK/wpa_supplicant/src/utils\common.c **** 	maxlen = list->num * 30;
 855:C:/Users/stapi/OneDrive/Desktop/GD32VW553/V1_MQTT_OK/GD32VW55X_Wifi_BLE_SDK/GD32VW55x_RELEASE_V1.0.2/MSDK/wpa_supplicant/src/utils\common.c **** 	buf = os_malloc(maxlen);
 856:C:/Users/stapi/OneDrive/Desktop/GD32VW553/V1_MQTT_OK/GD32VW55X_Wifi_BLE_SDK/GD32VW55x_RELEASE_V1.0.2/MSDK/wpa_supplicant/src/utils\common.c **** 	if (buf == NULL)
 857:C:/Users/stapi/OneDrive/Desktop/GD32VW553/V1_MQTT_OK/GD32VW55X_Wifi_BLE_SDK/GD32VW55x_RELEASE_V1.0.2/MSDK/wpa_supplicant/src/utils\common.c **** 		return NULL;
 858:C:/Users/stapi/OneDrive/Desktop/GD32VW553/V1_MQTT_OK/GD32VW55X_Wifi_BLE_SDK/GD32VW55x_RELEASE_V1.0.2/MSDK/wpa_supplicant/src/utils\common.c **** 	pos = buf;
 859:C:/Users/stapi/OneDrive/Desktop/GD32VW553/V1_MQTT_OK/GD32VW55X_Wifi_BLE_SDK/GD32VW55x_RELEASE_V1.0.2/MSDK/wpa_supplicant/src/utils\common.c **** 	end = buf + maxlen;
 860:C:/Users/stapi/OneDrive/Desktop/GD32VW553/V1_MQTT_OK/GD32VW55X_Wifi_BLE_SDK/GD32VW55x_RELEASE_V1.0.2/MSDK/wpa_supplicant/src/utils\common.c **** 
 861:C:/Users/stapi/OneDrive/Desktop/GD32VW553/V1_MQTT_OK/GD32VW55X_Wifi_BLE_SDK/GD32VW55x_RELEASE_V1.0.2/MSDK/wpa_supplicant/src/utils\common.c **** 	for (i = 0; i < list->num; i++) {
 862:C:/Users/stapi/OneDrive/Desktop/GD32VW553/V1_MQTT_OK/GD32VW55X_Wifi_BLE_SDK/GD32VW55x_RELEASE_V1.0.2/MSDK/wpa_supplicant/src/utils\common.c **** 		struct wpa_freq_range *range = &list->range[i];
 863:C:/Users/stapi/OneDrive/Desktop/GD32VW553/V1_MQTT_OK/GD32VW55X_Wifi_BLE_SDK/GD32VW55x_RELEASE_V1.0.2/MSDK/wpa_supplicant/src/utils\common.c **** 
 864:C:/Users/stapi/OneDrive/Desktop/GD32VW553/V1_MQTT_OK/GD32VW55X_Wifi_BLE_SDK/GD32VW55x_RELEASE_V1.0.2/MSDK/wpa_supplicant/src/utils\common.c **** 		if (range->min == range->max)
 865:C:/Users/stapi/OneDrive/Desktop/GD32VW553/V1_MQTT_OK/GD32VW55X_Wifi_BLE_SDK/GD32VW55x_RELEASE_V1.0.2/MSDK/wpa_supplicant/src/utils\common.c **** 			res = os_snprintf(pos, end - pos, "%s%u",
 866:C:/Users/stapi/OneDrive/Desktop/GD32VW553/V1_MQTT_OK/GD32VW55X_Wifi_BLE_SDK/GD32VW55x_RELEASE_V1.0.2/MSDK/wpa_supplicant/src/utils\common.c **** 					  i == 0 ? "" : ",", range->min);
 867:C:/Users/stapi/OneDrive/Desktop/GD32VW553/V1_MQTT_OK/GD32VW55X_Wifi_BLE_SDK/GD32VW55x_RELEASE_V1.0.2/MSDK/wpa_supplicant/src/utils\common.c **** 		else
 868:C:/Users/stapi/OneDrive/Desktop/GD32VW553/V1_MQTT_OK/GD32VW55X_Wifi_BLE_SDK/GD32VW55x_RELEASE_V1.0.2/MSDK/wpa_supplicant/src/utils\common.c **** 			res = os_snprintf(pos, end - pos, "%s%u-%u",
 869:C:/Users/stapi/OneDrive/Desktop/GD32VW553/V1_MQTT_OK/GD32VW55X_Wifi_BLE_SDK/GD32VW55x_RELEASE_V1.0.2/MSDK/wpa_supplicant/src/utils\common.c **** 					  i == 0 ? "" : ",",
 870:C:/Users/stapi/OneDrive/Desktop/GD32VW553/V1_MQTT_OK/GD32VW55X_Wifi_BLE_SDK/GD32VW55x_RELEASE_V1.0.2/MSDK/wpa_supplicant/src/utils\common.c **** 					  range->min, range->max);
 871:C:/Users/stapi/OneDrive/Desktop/GD32VW553/V1_MQTT_OK/GD32VW55X_Wifi_BLE_SDK/GD32VW55x_RELEASE_V1.0.2/MSDK/wpa_supplicant/src/utils\common.c **** 		if (os_snprintf_error(end - pos, res)) {
 872:C:/Users/stapi/OneDrive/Desktop/GD32VW553/V1_MQTT_OK/GD32VW55X_Wifi_BLE_SDK/GD32VW55x_RELEASE_V1.0.2/MSDK/wpa_supplicant/src/utils\common.c **** 			os_free(buf);
 873:C:/Users/stapi/OneDrive/Desktop/GD32VW553/V1_MQTT_OK/GD32VW55X_Wifi_BLE_SDK/GD32VW55x_RELEASE_V1.0.2/MSDK/wpa_supplicant/src/utils\common.c **** 			return NULL;
 874:C:/Users/stapi/OneDrive/Desktop/GD32VW553/V1_MQTT_OK/GD32VW55X_Wifi_BLE_SDK/GD32VW55x_RELEASE_V1.0.2/MSDK/wpa_supplicant/src/utils\common.c **** 		}
 875:C:/Users/stapi/OneDrive/Desktop/GD32VW553/V1_MQTT_OK/GD32VW55X_Wifi_BLE_SDK/GD32VW55x_RELEASE_V1.0.2/MSDK/wpa_supplicant/src/utils\common.c **** 		pos += res;
 876:C:/Users/stapi/OneDrive/Desktop/GD32VW553/V1_MQTT_OK/GD32VW55X_Wifi_BLE_SDK/GD32VW55x_RELEASE_V1.0.2/MSDK/wpa_supplicant/src/utils\common.c **** 	}
 877:C:/Users/stapi/OneDrive/Desktop/GD32VW553/V1_MQTT_OK/GD32VW55X_Wifi_BLE_SDK/GD32VW55x_RELEASE_V1.0.2/MSDK/wpa_supplicant/src/utils\common.c **** 
 878:C:/Users/stapi/OneDrive/Desktop/GD32VW553/V1_MQTT_OK/GD32VW55X_Wifi_BLE_SDK/GD32VW55x_RELEASE_V1.0.2/MSDK/wpa_supplicant/src/utils\common.c **** 	return buf;
 879:C:/Users/stapi/OneDrive/Desktop/GD32VW553/V1_MQTT_OK/GD32VW55X_Wifi_BLE_SDK/GD32VW55x_RELEASE_V1.0.2/MSDK/wpa_supplicant/src/utils\common.c **** }
 880:C:/Users/stapi/OneDrive/Desktop/GD32VW553/V1_MQTT_OK/GD32VW55X_Wifi_BLE_SDK/GD32VW55x_RELEASE_V1.0.2/MSDK/wpa_supplicant/src/utils\common.c **** 
 881:C:/Users/stapi/OneDrive/Desktop/GD32VW553/V1_MQTT_OK/GD32VW55X_Wifi_BLE_SDK/GD32VW55x_RELEASE_V1.0.2/MSDK/wpa_supplicant/src/utils\common.c **** 
 882:C:/Users/stapi/OneDrive/Desktop/GD32VW553/V1_MQTT_OK/GD32VW55X_Wifi_BLE_SDK/GD32VW55x_RELEASE_V1.0.2/MSDK/wpa_supplicant/src/utils\common.c **** size_t int_array_len(const int *a)
 883:C:/Users/stapi/OneDrive/Desktop/GD32VW553/V1_MQTT_OK/GD32VW55X_Wifi_BLE_SDK/GD32VW55x_RELEASE_V1.0.2/MSDK/wpa_supplicant/src/utils\common.c **** {
 884:C:/Users/stapi/OneDrive/Desktop/GD32VW553/V1_MQTT_OK/GD32VW55X_Wifi_BLE_SDK/GD32VW55x_RELEASE_V1.0.2/MSDK/wpa_supplicant/src/utils\common.c **** 	size_t i;
 885:C:/Users/stapi/OneDrive/Desktop/GD32VW553/V1_MQTT_OK/GD32VW55X_Wifi_BLE_SDK/GD32VW55x_RELEASE_V1.0.2/MSDK/wpa_supplicant/src/utils\common.c **** 
 886:C:/Users/stapi/OneDrive/Desktop/GD32VW553/V1_MQTT_OK/GD32VW55X_Wifi_BLE_SDK/GD32VW55x_RELEASE_V1.0.2/MSDK/wpa_supplicant/src/utils\common.c **** 	for (i = 0; a && a[i]; i++)
 887:C:/Users/stapi/OneDrive/Desktop/GD32VW553/V1_MQTT_OK/GD32VW55X_Wifi_BLE_SDK/GD32VW55x_RELEASE_V1.0.2/MSDK/wpa_supplicant/src/utils\common.c **** 		;
 888:C:/Users/stapi/OneDrive/Desktop/GD32VW553/V1_MQTT_OK/GD32VW55X_Wifi_BLE_SDK/GD32VW55x_RELEASE_V1.0.2/MSDK/wpa_supplicant/src/utils\common.c **** 	return i;
 889:C:/Users/stapi/OneDrive/Desktop/GD32VW553/V1_MQTT_OK/GD32VW55X_Wifi_BLE_SDK/GD32VW55x_RELEASE_V1.0.2/MSDK/wpa_supplicant/src/utils\common.c **** }
 890:C:/Users/stapi/OneDrive/Desktop/GD32VW553/V1_MQTT_OK/GD32VW55X_Wifi_BLE_SDK/GD32VW55x_RELEASE_V1.0.2/MSDK/wpa_supplicant/src/utils\common.c **** 
 891:C:/Users/stapi/OneDrive/Desktop/GD32VW553/V1_MQTT_OK/GD32VW55X_Wifi_BLE_SDK/GD32VW55x_RELEASE_V1.0.2/MSDK/wpa_supplicant/src/utils\common.c **** 
 892:C:/Users/stapi/OneDrive/Desktop/GD32VW553/V1_MQTT_OK/GD32VW55X_Wifi_BLE_SDK/GD32VW55x_RELEASE_V1.0.2/MSDK/wpa_supplicant/src/utils\common.c **** void int_array_concat(int **res, const int *a)
 893:C:/Users/stapi/OneDrive/Desktop/GD32VW553/V1_MQTT_OK/GD32VW55X_Wifi_BLE_SDK/GD32VW55x_RELEASE_V1.0.2/MSDK/wpa_supplicant/src/utils\common.c **** {
 894:C:/Users/stapi/OneDrive/Desktop/GD32VW553/V1_MQTT_OK/GD32VW55X_Wifi_BLE_SDK/GD32VW55x_RELEASE_V1.0.2/MSDK/wpa_supplicant/src/utils\common.c **** 	size_t reslen, alen, i, max_size;
 895:C:/Users/stapi/OneDrive/Desktop/GD32VW553/V1_MQTT_OK/GD32VW55X_Wifi_BLE_SDK/GD32VW55x_RELEASE_V1.0.2/MSDK/wpa_supplicant/src/utils\common.c **** 	int *n;
 896:C:/Users/stapi/OneDrive/Desktop/GD32VW553/V1_MQTT_OK/GD32VW55X_Wifi_BLE_SDK/GD32VW55x_RELEASE_V1.0.2/MSDK/wpa_supplicant/src/utils\common.c **** 
 897:C:/Users/stapi/OneDrive/Desktop/GD32VW553/V1_MQTT_OK/GD32VW55X_Wifi_BLE_SDK/GD32VW55x_RELEASE_V1.0.2/MSDK/wpa_supplicant/src/utils\common.c **** 	reslen = int_array_len(*res);
 898:C:/Users/stapi/OneDrive/Desktop/GD32VW553/V1_MQTT_OK/GD32VW55X_Wifi_BLE_SDK/GD32VW55x_RELEASE_V1.0.2/MSDK/wpa_supplicant/src/utils\common.c **** 	alen = int_array_len(a);
 899:C:/Users/stapi/OneDrive/Desktop/GD32VW553/V1_MQTT_OK/GD32VW55X_Wifi_BLE_SDK/GD32VW55x_RELEASE_V1.0.2/MSDK/wpa_supplicant/src/utils\common.c **** 	max_size = (size_t) -1;
 900:C:/Users/stapi/OneDrive/Desktop/GD32VW553/V1_MQTT_OK/GD32VW55X_Wifi_BLE_SDK/GD32VW55x_RELEASE_V1.0.2/MSDK/wpa_supplicant/src/utils\common.c **** 	if (alen >= max_size - reslen) {
 901:C:/Users/stapi/OneDrive/Desktop/GD32VW553/V1_MQTT_OK/GD32VW55X_Wifi_BLE_SDK/GD32VW55x_RELEASE_V1.0.2/MSDK/wpa_supplicant/src/utils\common.c **** 		/* This should not really happen, but if it did, something
 902:C:/Users/stapi/OneDrive/Desktop/GD32VW553/V1_MQTT_OK/GD32VW55X_Wifi_BLE_SDK/GD32VW55x_RELEASE_V1.0.2/MSDK/wpa_supplicant/src/utils\common.c **** 		 * would overflow. Do not try to merge the arrays; instead, make
 903:C:/Users/stapi/OneDrive/Desktop/GD32VW553/V1_MQTT_OK/GD32VW55X_Wifi_BLE_SDK/GD32VW55x_RELEASE_V1.0.2/MSDK/wpa_supplicant/src/utils\common.c **** 		 * this behave like memory allocation failure to avoid messing
 904:C:/Users/stapi/OneDrive/Desktop/GD32VW553/V1_MQTT_OK/GD32VW55X_Wifi_BLE_SDK/GD32VW55x_RELEASE_V1.0.2/MSDK/wpa_supplicant/src/utils\common.c **** 		 * up memory. */
 905:C:/Users/stapi/OneDrive/Desktop/GD32VW553/V1_MQTT_OK/GD32VW55X_Wifi_BLE_SDK/GD32VW55x_RELEASE_V1.0.2/MSDK/wpa_supplicant/src/utils\common.c **** 		os_free(*res);
 906:C:/Users/stapi/OneDrive/Desktop/GD32VW553/V1_MQTT_OK/GD32VW55X_Wifi_BLE_SDK/GD32VW55x_RELEASE_V1.0.2/MSDK/wpa_supplicant/src/utils\common.c **** 		*res = NULL;
 907:C:/Users/stapi/OneDrive/Desktop/GD32VW553/V1_MQTT_OK/GD32VW55X_Wifi_BLE_SDK/GD32VW55x_RELEASE_V1.0.2/MSDK/wpa_supplicant/src/utils\common.c **** 		return;
 908:C:/Users/stapi/OneDrive/Desktop/GD32VW553/V1_MQTT_OK/GD32VW55X_Wifi_BLE_SDK/GD32VW55x_RELEASE_V1.0.2/MSDK/wpa_supplicant/src/utils\common.c **** 	}
 909:C:/Users/stapi/OneDrive/Desktop/GD32VW553/V1_MQTT_OK/GD32VW55X_Wifi_BLE_SDK/GD32VW55x_RELEASE_V1.0.2/MSDK/wpa_supplicant/src/utils\common.c **** 	n = os_realloc_array(*res, reslen + alen + 1, sizeof(int));
 910:C:/Users/stapi/OneDrive/Desktop/GD32VW553/V1_MQTT_OK/GD32VW55X_Wifi_BLE_SDK/GD32VW55x_RELEASE_V1.0.2/MSDK/wpa_supplicant/src/utils\common.c **** 	if (n == NULL) {
 911:C:/Users/stapi/OneDrive/Desktop/GD32VW553/V1_MQTT_OK/GD32VW55X_Wifi_BLE_SDK/GD32VW55x_RELEASE_V1.0.2/MSDK/wpa_supplicant/src/utils\common.c **** 		os_free(*res);
 912:C:/Users/stapi/OneDrive/Desktop/GD32VW553/V1_MQTT_OK/GD32VW55X_Wifi_BLE_SDK/GD32VW55x_RELEASE_V1.0.2/MSDK/wpa_supplicant/src/utils\common.c **** 		*res = NULL;
 913:C:/Users/stapi/OneDrive/Desktop/GD32VW553/V1_MQTT_OK/GD32VW55X_Wifi_BLE_SDK/GD32VW55x_RELEASE_V1.0.2/MSDK/wpa_supplicant/src/utils\common.c **** 		return;
 914:C:/Users/stapi/OneDrive/Desktop/GD32VW553/V1_MQTT_OK/GD32VW55X_Wifi_BLE_SDK/GD32VW55x_RELEASE_V1.0.2/MSDK/wpa_supplicant/src/utils\common.c **** 	}
 915:C:/Users/stapi/OneDrive/Desktop/GD32VW553/V1_MQTT_OK/GD32VW55X_Wifi_BLE_SDK/GD32VW55x_RELEASE_V1.0.2/MSDK/wpa_supplicant/src/utils\common.c **** 	for (i = 0; i <= alen; i++)
 916:C:/Users/stapi/OneDrive/Desktop/GD32VW553/V1_MQTT_OK/GD32VW55X_Wifi_BLE_SDK/GD32VW55x_RELEASE_V1.0.2/MSDK/wpa_supplicant/src/utils\common.c **** 		n[reslen + i] = a[i];
 917:C:/Users/stapi/OneDrive/Desktop/GD32VW553/V1_MQTT_OK/GD32VW55X_Wifi_BLE_SDK/GD32VW55x_RELEASE_V1.0.2/MSDK/wpa_supplicant/src/utils\common.c **** 	*res = n;
 918:C:/Users/stapi/OneDrive/Desktop/GD32VW553/V1_MQTT_OK/GD32VW55X_Wifi_BLE_SDK/GD32VW55x_RELEASE_V1.0.2/MSDK/wpa_supplicant/src/utils\common.c **** }
 919:C:/Users/stapi/OneDrive/Desktop/GD32VW553/V1_MQTT_OK/GD32VW55X_Wifi_BLE_SDK/GD32VW55x_RELEASE_V1.0.2/MSDK/wpa_supplicant/src/utils\common.c **** 
 920:C:/Users/stapi/OneDrive/Desktop/GD32VW553/V1_MQTT_OK/GD32VW55X_Wifi_BLE_SDK/GD32VW55x_RELEASE_V1.0.2/MSDK/wpa_supplicant/src/utils\common.c **** 
 921:C:/Users/stapi/OneDrive/Desktop/GD32VW553/V1_MQTT_OK/GD32VW55X_Wifi_BLE_SDK/GD32VW55x_RELEASE_V1.0.2/MSDK/wpa_supplicant/src/utils\common.c **** static int freq_cmp(const void *a, const void *b)
 922:C:/Users/stapi/OneDrive/Desktop/GD32VW553/V1_MQTT_OK/GD32VW55X_Wifi_BLE_SDK/GD32VW55x_RELEASE_V1.0.2/MSDK/wpa_supplicant/src/utils\common.c **** {
  75              		.loc 1 922 1 is_stmt 1
  76              		.cfi_startproc
  77              	.LVL4:
 923:C:/Users/stapi/OneDrive/Desktop/GD32VW553/V1_MQTT_OK/GD32VW55X_Wifi_BLE_SDK/GD32VW55x_RELEASE_V1.0.2/MSDK/wpa_supplicant/src/utils\common.c **** 	int _a = *(int *) a;
  78              		.loc 1 923 2
  79              		.loc 1 923 6 is_stmt 0
  80 0000 1841     		lw	a4,0(a0)
  81              	.LVL5:
 924:C:/Users/stapi/OneDrive/Desktop/GD32VW553/V1_MQTT_OK/GD32VW55X_Wifi_BLE_SDK/GD32VW55x_RELEASE_V1.0.2/MSDK/wpa_supplicant/src/utils\common.c **** 	int _b = *(int *) b;
  82              		.loc 1 924 2 is_stmt 1
  83              		.loc 1 924 6 is_stmt 0
  84 0002 9C41     		lw	a5,0(a1)
  85              	.LVL6:
 925:C:/Users/stapi/OneDrive/Desktop/GD32VW553/V1_MQTT_OK/GD32VW55X_Wifi_BLE_SDK/GD32VW55x_RELEASE_V1.0.2/MSDK/wpa_supplicant/src/utils\common.c **** 
 926:C:/Users/stapi/OneDrive/Desktop/GD32VW553/V1_MQTT_OK/GD32VW55X_Wifi_BLE_SDK/GD32VW55x_RELEASE_V1.0.2/MSDK/wpa_supplicant/src/utils\common.c **** 	if (_a == 0)
  86              		.loc 1 926 2 is_stmt 1
  87              		.loc 1 926 5 is_stmt 0
  88 0004 11C7     		beq	a4,zero,.L9
 927:C:/Users/stapi/OneDrive/Desktop/GD32VW553/V1_MQTT_OK/GD32VW55X_Wifi_BLE_SDK/GD32VW55x_RELEASE_V1.0.2/MSDK/wpa_supplicant/src/utils\common.c **** 		return 1;
 928:C:/Users/stapi/OneDrive/Desktop/GD32VW553/V1_MQTT_OK/GD32VW55X_Wifi_BLE_SDK/GD32VW55x_RELEASE_V1.0.2/MSDK/wpa_supplicant/src/utils\common.c **** 	if (_b == 0)
  89              		.loc 1 928 2 is_stmt 1
 929:C:/Users/stapi/OneDrive/Desktop/GD32VW553/V1_MQTT_OK/GD32VW55X_Wifi_BLE_SDK/GD32VW55x_RELEASE_V1.0.2/MSDK/wpa_supplicant/src/utils\common.c **** 		return -1;
  90              		.loc 1 929 10 is_stmt 0
  91 0006 7D55     		li	a0,-1
  92              	.LVL7:
 928:C:/Users/stapi/OneDrive/Desktop/GD32VW553/V1_MQTT_OK/GD32VW55X_Wifi_BLE_SDK/GD32VW55x_RELEASE_V1.0.2/MSDK/wpa_supplicant/src/utils\common.c **** 		return -1;
  93              		.loc 1 928 5
  94 0008 89C7     		beq	a5,zero,.L7
 930:C:/Users/stapi/OneDrive/Desktop/GD32VW553/V1_MQTT_OK/GD32VW55X_Wifi_BLE_SDK/GD32VW55x_RELEASE_V1.0.2/MSDK/wpa_supplicant/src/utils\common.c **** 	return _a - _b;
  95              		.loc 1 930 2 is_stmt 1
  96              		.loc 1 930 12 is_stmt 0
  97 000a 3305F740 		sub	a0,a4,a5
  98 000e 8280     		ret
  99              	.LVL8:
 100              	.L9:
 927:C:/Users/stapi/OneDrive/Desktop/GD32VW553/V1_MQTT_OK/GD32VW55X_Wifi_BLE_SDK/GD32VW55x_RELEASE_V1.0.2/MSDK/wpa_supplicant/src/utils\common.c **** 	if (_b == 0)
 101              		.loc 1 927 10
 102 0010 0545     		li	a0,1
 103              	.LVL9:
 104              	.L7:
 931:C:/Users/stapi/OneDrive/Desktop/GD32VW553/V1_MQTT_OK/GD32VW55X_Wifi_BLE_SDK/GD32VW55x_RELEASE_V1.0.2/MSDK/wpa_supplicant/src/utils\common.c **** }
 105              		.loc 1 931 1
 106 0012 8280     		ret
 107              		.cfi_endproc
 108              	.LFE103:
 110              		.section	.rodata._wpa_snprintf_hex.str1.4,"aMS",@progbits,1
 111              		.align	2
 112              	.LC0:
 113 0000 25303258 		.string	"%02X"
 113      00
 114 0005 000000   		.align	2
 115              	.LC1:
 116 0008 25303278 		.string	"%02x"
 116      00
 117              		.section	.text._wpa_snprintf_hex,"ax",@progbits
 118              		.align	1
 120              	_wpa_snprintf_hex:
 121              	.LFB85:
 319:C:/Users/stapi/OneDrive/Desktop/GD32VW553/V1_MQTT_OK/GD32VW55X_Wifi_BLE_SDK/GD32VW55x_RELEASE_V1.0.2/MSDK/wpa_supplicant/src/utils\common.c **** 	size_t i;
 122              		.loc 1 319 1 is_stmt 1
 123              		.cfi_startproc
 124              	.LVL10:
 320:C:/Users/stapi/OneDrive/Desktop/GD32VW553/V1_MQTT_OK/GD32VW55X_Wifi_BLE_SDK/GD32VW55x_RELEASE_V1.0.2/MSDK/wpa_supplicant/src/utils\common.c **** 	char *pos = buf, *end = buf + buf_size;
 125              		.loc 1 320 2
 321:C:/Users/stapi/OneDrive/Desktop/GD32VW553/V1_MQTT_OK/GD32VW55X_Wifi_BLE_SDK/GD32VW55x_RELEASE_V1.0.2/MSDK/wpa_supplicant/src/utils\common.c **** 	int ret;
 126              		.loc 1 321 2
 322:C:/Users/stapi/OneDrive/Desktop/GD32VW553/V1_MQTT_OK/GD32VW55X_Wifi_BLE_SDK/GD32VW55x_RELEASE_V1.0.2/MSDK/wpa_supplicant/src/utils\common.c **** 	if (buf_size == 0)
 127              		.loc 1 322 2
 323:C:/Users/stapi/OneDrive/Desktop/GD32VW553/V1_MQTT_OK/GD32VW55X_Wifi_BLE_SDK/GD32VW55x_RELEASE_V1.0.2/MSDK/wpa_supplicant/src/utils\common.c **** 		return 0;
 128              		.loc 1 323 2
 323:C:/Users/stapi/OneDrive/Desktop/GD32VW553/V1_MQTT_OK/GD32VW55X_Wifi_BLE_SDK/GD32VW55x_RELEASE_V1.0.2/MSDK/wpa_supplicant/src/utils\common.c **** 		return 0;
 129              		.loc 1 323 5 is_stmt 0
 130 0000 B5C1     		beq	a1,zero,.L18
 319:C:/Users/stapi/OneDrive/Desktop/GD32VW553/V1_MQTT_OK/GD32VW55X_Wifi_BLE_SDK/GD32VW55x_RELEASE_V1.0.2/MSDK/wpa_supplicant/src/utils\common.c **** 	size_t i;
 131              		.loc 1 319 1
 132 0002 17030000 		call	t0,__riscv_save_7
 132      E7020300 
 133              		.cfi_offset 22, -32
 134              		.cfi_offset 21, -28
 135              		.cfi_offset 20, -24
 136              		.cfi_offset 19, -20
 137              		.cfi_offset 18, -16
 138              		.cfi_offset 9, -12
 139              		.cfi_offset 8, -8
 140              		.cfi_offset 1, -4
 141              		.cfi_def_cfa_offset 32
 142 000a AA89     		mv	s3,a0
 143 000c B284     		mv	s1,a2
 321:C:/Users/stapi/OneDrive/Desktop/GD32VW553/V1_MQTT_OK/GD32VW55X_Wifi_BLE_SDK/GD32VW55x_RELEASE_V1.0.2/MSDK/wpa_supplicant/src/utils\common.c **** 	int ret;
 144              		.loc 1 321 20
 145 000e 3309B500 		add	s2,a0,a1
 146 0012 15C3     		beq	a4,zero,.L13
 147 0014 370A0000 		lui	s4,%hi(.LC0)
 148 0018 130A0A00 		addi	s4,s4,%lo(.LC0)
 149              	.L14:
 150 001c B38AD400 		add	s5,s1,a3
 321:C:/Users/stapi/OneDrive/Desktop/GD32VW553/V1_MQTT_OK/GD32VW55X_Wifi_BLE_SDK/GD32VW55x_RELEASE_V1.0.2/MSDK/wpa_supplicant/src/utils\common.c **** 	int ret;
 151              		.loc 1 321 8
 152 0020 4E84     		mv	s0,s3
 153              	.LVL11:
 154              	.L15:
 325:C:/Users/stapi/OneDrive/Desktop/GD32VW553/V1_MQTT_OK/GD32VW55X_Wifi_BLE_SDK/GD32VW55x_RELEASE_V1.0.2/MSDK/wpa_supplicant/src/utils\common.c **** 		ret = os_snprintf(pos, end - pos, uppercase ? "%02X" : "%02x",
 155              		.loc 1 325 14 is_stmt 1 discriminator 1
 325:C:/Users/stapi/OneDrive/Desktop/GD32VW553/V1_MQTT_OK/GD32VW55X_Wifi_BLE_SDK/GD32VW55x_RELEASE_V1.0.2/MSDK/wpa_supplicant/src/utils\common.c **** 		ret = os_snprintf(pos, end - pos, uppercase ? "%02X" : "%02x",
 156              		.loc 1 325 2 is_stmt 0 discriminator 1
 157 0022 639F5401 		bne	s1,s5,.L17
 158              	.LVL12:
 159              	.L23:
 334:C:/Users/stapi/OneDrive/Desktop/GD32VW553/V1_MQTT_OK/GD32VW55X_Wifi_BLE_SDK/GD32VW55x_RELEASE_V1.0.2/MSDK/wpa_supplicant/src/utils\common.c **** 	return pos - buf;
 160              		.loc 1 334 2 is_stmt 1
 334:C:/Users/stapi/OneDrive/Desktop/GD32VW553/V1_MQTT_OK/GD32VW55X_Wifi_BLE_SDK/GD32VW55x_RELEASE_V1.0.2/MSDK/wpa_supplicant/src/utils\common.c **** 	return pos - buf;
 161              		.loc 1 334 10 is_stmt 0
 162 0026 A30F09FE 		sb	zero,-1(s2)
 335:C:/Users/stapi/OneDrive/Desktop/GD32VW553/V1_MQTT_OK/GD32VW55X_Wifi_BLE_SDK/GD32VW55x_RELEASE_V1.0.2/MSDK/wpa_supplicant/src/utils\common.c **** }
 163              		.loc 1 335 2 is_stmt 1
 335:C:/Users/stapi/OneDrive/Desktop/GD32VW553/V1_MQTT_OK/GD32VW55X_Wifi_BLE_SDK/GD32VW55x_RELEASE_V1.0.2/MSDK/wpa_supplicant/src/utils\common.c **** }
 164              		.loc 1 335 13 is_stmt 0
 165 002a 33053441 		sub	a0,s0,s3
 336:C:/Users/stapi/OneDrive/Desktop/GD32VW553/V1_MQTT_OK/GD32VW55X_Wifi_BLE_SDK/GD32VW55x_RELEASE_V1.0.2/MSDK/wpa_supplicant/src/utils\common.c **** 
 166              		.loc 1 336 1
 167 002e 17030000 		tail	__riscv_restore_7
 167      67000300 
 168              		.cfi_remember_state
 169              		.cfi_restore 22
 170              		.cfi_restore 21
 171              		.cfi_restore 20
 172              		.cfi_restore 19
 173              		.cfi_restore 18
 174              		.cfi_restore 9
 175              		.cfi_restore 8
 176              		.cfi_restore 1
 177              		.cfi_def_cfa_offset 0
 178              	.LVL13:
 179              	.L13:
 180              		.cfi_restore_state
 181 0036 370A0000 		lui	s4,%hi(.LC1)
 182 003a 130A0A00 		addi	s4,s4,%lo(.LC1)
 183 003e F9BF     		j	.L14
 184              	.LVL14:
 185              	.L17:
 326:C:/Users/stapi/OneDrive/Desktop/GD32VW553/V1_MQTT_OK/GD32VW55X_Wifi_BLE_SDK/GD32VW55x_RELEASE_V1.0.2/MSDK/wpa_supplicant/src/utils\common.c **** 				  data[i]);
 186              		.loc 1 326 3 is_stmt 1
 326:C:/Users/stapi/OneDrive/Desktop/GD32VW553/V1_MQTT_OK/GD32VW55X_Wifi_BLE_SDK/GD32VW55x_RELEASE_V1.0.2/MSDK/wpa_supplicant/src/utils\common.c **** 				  data[i]);
 187              		.loc 1 326 9 is_stmt 0
 188 0040 83C60400 		lbu	a3,0(s1)
 326:C:/Users/stapi/OneDrive/Desktop/GD32VW553/V1_MQTT_OK/GD32VW55X_Wifi_BLE_SDK/GD32VW55x_RELEASE_V1.0.2/MSDK/wpa_supplicant/src/utils\common.c **** 				  data[i]);
 189              		.loc 1 326 30
 190 0044 330B8940 		sub	s6,s2,s0
 326:C:/Users/stapi/OneDrive/Desktop/GD32VW553/V1_MQTT_OK/GD32VW55X_Wifi_BLE_SDK/GD32VW55x_RELEASE_V1.0.2/MSDK/wpa_supplicant/src/utils\common.c **** 				  data[i]);
 191              		.loc 1 326 9
 192 0048 5286     		mv	a2,s4
 193 004a DA85     		mv	a1,s6
 194 004c 2285     		mv	a0,s0
 195 004e 97000000 		call	os_snprintf
 195      E7800000 
 196              	.LVL15:
 328:C:/Users/stapi/OneDrive/Desktop/GD32VW553/V1_MQTT_OK/GD32VW55X_Wifi_BLE_SDK/GD32VW55x_RELEASE_V1.0.2/MSDK/wpa_supplicant/src/utils\common.c **** 			end[-1] = '\0';
 197              		.loc 1 328 3 is_stmt 1
 198              	.LBB11:
 199              	.LBB12:
 200              		.file 2 "..\\..\\..\\..\\wpa_supplicant\\src/utils/os.h"
   1:..\..\..\..\wpa_supplicant\src/utils/os.h **** /*
   2:..\..\..\..\wpa_supplicant\src/utils/os.h ****  * OS specific functions
   3:..\..\..\..\wpa_supplicant\src/utils/os.h ****  * Copyright (c) 2005-2009, Jouni Malinen <j@w1.fi>
   4:..\..\..\..\wpa_supplicant\src/utils/os.h ****  *
   5:..\..\..\..\wpa_supplicant\src/utils/os.h ****  * This software may be distributed under the terms of the BSD license.
   6:..\..\..\..\wpa_supplicant\src/utils/os.h ****  * See README for more details.
   7:..\..\..\..\wpa_supplicant\src/utils/os.h ****  */
   8:..\..\..\..\wpa_supplicant\src/utils/os.h **** 
   9:..\..\..\..\wpa_supplicant\src/utils/os.h **** #ifndef OS_H
  10:..\..\..\..\wpa_supplicant\src/utils/os.h **** #define OS_H
  11:..\..\..\..\wpa_supplicant\src/utils/os.h **** 
  12:..\..\..\..\wpa_supplicant\src/utils/os.h **** typedef long os_time_t;
  13:..\..\..\..\wpa_supplicant\src/utils/os.h **** 
  14:..\..\..\..\wpa_supplicant\src/utils/os.h **** /**
  15:..\..\..\..\wpa_supplicant\src/utils/os.h ****  * os_sleep - Sleep (sec, usec)
  16:..\..\..\..\wpa_supplicant\src/utils/os.h ****  * @sec: Number of seconds to sleep
  17:..\..\..\..\wpa_supplicant\src/utils/os.h ****  * @usec: Number of microseconds to sleep
  18:..\..\..\..\wpa_supplicant\src/utils/os.h ****  */
  19:..\..\..\..\wpa_supplicant\src/utils/os.h **** void os_sleep(os_time_t sec, os_time_t usec);
  20:..\..\..\..\wpa_supplicant\src/utils/os.h **** 
  21:..\..\..\..\wpa_supplicant\src/utils/os.h **** struct os_time {
  22:..\..\..\..\wpa_supplicant\src/utils/os.h **** 	os_time_t sec;
  23:..\..\..\..\wpa_supplicant\src/utils/os.h **** 	os_time_t usec;
  24:..\..\..\..\wpa_supplicant\src/utils/os.h **** };
  25:..\..\..\..\wpa_supplicant\src/utils/os.h **** 
  26:..\..\..\..\wpa_supplicant\src/utils/os.h **** struct os_reltime {
  27:..\..\..\..\wpa_supplicant\src/utils/os.h **** 	os_time_t sec;
  28:..\..\..\..\wpa_supplicant\src/utils/os.h **** 	os_time_t usec;
  29:..\..\..\..\wpa_supplicant\src/utils/os.h **** };
  30:..\..\..\..\wpa_supplicant\src/utils/os.h **** 
  31:..\..\..\..\wpa_supplicant\src/utils/os.h **** /**
  32:..\..\..\..\wpa_supplicant\src/utils/os.h ****  * os_get_time - Get current time (sec, usec)
  33:..\..\..\..\wpa_supplicant\src/utils/os.h ****  * @t: Pointer to buffer for the time
  34:..\..\..\..\wpa_supplicant\src/utils/os.h ****  * Returns: 0 on success, -1 on failure
  35:..\..\..\..\wpa_supplicant\src/utils/os.h ****  */
  36:..\..\..\..\wpa_supplicant\src/utils/os.h **** int os_get_time(struct os_time *t);
  37:..\..\..\..\wpa_supplicant\src/utils/os.h **** 
  38:..\..\..\..\wpa_supplicant\src/utils/os.h **** /**
  39:..\..\..\..\wpa_supplicant\src/utils/os.h ****  * os_get_reltime - Get relative time (sec, usec)
  40:..\..\..\..\wpa_supplicant\src/utils/os.h ****  * @t: Pointer to buffer for the time
  41:..\..\..\..\wpa_supplicant\src/utils/os.h ****  * Returns: 0 on success, -1 on failure
  42:..\..\..\..\wpa_supplicant\src/utils/os.h ****  */
  43:..\..\..\..\wpa_supplicant\src/utils/os.h **** int os_get_reltime(struct os_reltime *t);
  44:..\..\..\..\wpa_supplicant\src/utils/os.h **** 
  45:..\..\..\..\wpa_supplicant\src/utils/os.h **** 
  46:..\..\..\..\wpa_supplicant\src/utils/os.h **** /* Helpers for handling struct os_time */
  47:..\..\..\..\wpa_supplicant\src/utils/os.h **** 
  48:..\..\..\..\wpa_supplicant\src/utils/os.h **** static inline int os_time_before(struct os_time *a, struct os_time *b)
  49:..\..\..\..\wpa_supplicant\src/utils/os.h **** {
  50:..\..\..\..\wpa_supplicant\src/utils/os.h **** 	return (a->sec < b->sec) ||
  51:..\..\..\..\wpa_supplicant\src/utils/os.h **** 	       (a->sec == b->sec && a->usec < b->usec);
  52:..\..\..\..\wpa_supplicant\src/utils/os.h **** }
  53:..\..\..\..\wpa_supplicant\src/utils/os.h **** 
  54:..\..\..\..\wpa_supplicant\src/utils/os.h **** 
  55:..\..\..\..\wpa_supplicant\src/utils/os.h **** static inline void os_time_sub(struct os_time *a, struct os_time *b,
  56:..\..\..\..\wpa_supplicant\src/utils/os.h **** 			       struct os_time *res)
  57:..\..\..\..\wpa_supplicant\src/utils/os.h **** {
  58:..\..\..\..\wpa_supplicant\src/utils/os.h **** 	res->sec = a->sec - b->sec;
  59:..\..\..\..\wpa_supplicant\src/utils/os.h **** 	res->usec = a->usec - b->usec;
  60:..\..\..\..\wpa_supplicant\src/utils/os.h **** 	if (res->usec < 0) {
  61:..\..\..\..\wpa_supplicant\src/utils/os.h **** 		res->sec--;
  62:..\..\..\..\wpa_supplicant\src/utils/os.h **** 		res->usec += 1000000;
  63:..\..\..\..\wpa_supplicant\src/utils/os.h **** 	}
  64:..\..\..\..\wpa_supplicant\src/utils/os.h **** }
  65:..\..\..\..\wpa_supplicant\src/utils/os.h **** 
  66:..\..\..\..\wpa_supplicant\src/utils/os.h **** 
  67:..\..\..\..\wpa_supplicant\src/utils/os.h **** /* Helpers for handling struct os_reltime */
  68:..\..\..\..\wpa_supplicant\src/utils/os.h **** 
  69:..\..\..\..\wpa_supplicant\src/utils/os.h **** static inline int os_reltime_before(struct os_reltime *a,
  70:..\..\..\..\wpa_supplicant\src/utils/os.h **** 				    struct os_reltime *b)
  71:..\..\..\..\wpa_supplicant\src/utils/os.h **** {
  72:..\..\..\..\wpa_supplicant\src/utils/os.h **** 	return (a->sec < b->sec) ||
  73:..\..\..\..\wpa_supplicant\src/utils/os.h **** 	       (a->sec == b->sec && a->usec < b->usec);
  74:..\..\..\..\wpa_supplicant\src/utils/os.h **** }
  75:..\..\..\..\wpa_supplicant\src/utils/os.h **** 
  76:..\..\..\..\wpa_supplicant\src/utils/os.h **** 
  77:..\..\..\..\wpa_supplicant\src/utils/os.h **** static inline void os_reltime_sub(struct os_reltime *a, struct os_reltime *b,
  78:..\..\..\..\wpa_supplicant\src/utils/os.h **** 				  struct os_reltime *res)
  79:..\..\..\..\wpa_supplicant\src/utils/os.h **** {
  80:..\..\..\..\wpa_supplicant\src/utils/os.h **** 	res->sec = a->sec - b->sec;
  81:..\..\..\..\wpa_supplicant\src/utils/os.h **** 	res->usec = a->usec - b->usec;
  82:..\..\..\..\wpa_supplicant\src/utils/os.h **** 	if (res->usec < 0) {
  83:..\..\..\..\wpa_supplicant\src/utils/os.h **** 		res->sec--;
  84:..\..\..\..\wpa_supplicant\src/utils/os.h **** 		res->usec += 1000000;
  85:..\..\..\..\wpa_supplicant\src/utils/os.h **** 	}
  86:..\..\..\..\wpa_supplicant\src/utils/os.h **** }
  87:..\..\..\..\wpa_supplicant\src/utils/os.h **** 
  88:..\..\..\..\wpa_supplicant\src/utils/os.h **** 
  89:..\..\..\..\wpa_supplicant\src/utils/os.h **** static inline void os_reltime_age(struct os_reltime *start,
  90:..\..\..\..\wpa_supplicant\src/utils/os.h **** 				  struct os_reltime *age)
  91:..\..\..\..\wpa_supplicant\src/utils/os.h **** {
  92:..\..\..\..\wpa_supplicant\src/utils/os.h **** 	struct os_reltime now;
  93:..\..\..\..\wpa_supplicant\src/utils/os.h **** 
  94:..\..\..\..\wpa_supplicant\src/utils/os.h **** 	os_get_reltime(&now);
  95:..\..\..\..\wpa_supplicant\src/utils/os.h **** 	os_reltime_sub(&now, start, age);
  96:..\..\..\..\wpa_supplicant\src/utils/os.h **** }
  97:..\..\..\..\wpa_supplicant\src/utils/os.h **** 
  98:..\..\..\..\wpa_supplicant\src/utils/os.h **** 
  99:..\..\..\..\wpa_supplicant\src/utils/os.h **** static inline int os_reltime_expired(struct os_reltime *now,
 100:..\..\..\..\wpa_supplicant\src/utils/os.h **** 				     struct os_reltime *ts,
 101:..\..\..\..\wpa_supplicant\src/utils/os.h **** 				     os_time_t timeout_secs)
 102:..\..\..\..\wpa_supplicant\src/utils/os.h **** {
 103:..\..\..\..\wpa_supplicant\src/utils/os.h **** 	struct os_reltime age;
 104:..\..\..\..\wpa_supplicant\src/utils/os.h **** 
 105:..\..\..\..\wpa_supplicant\src/utils/os.h **** 	os_reltime_sub(now, ts, &age);
 106:..\..\..\..\wpa_supplicant\src/utils/os.h **** 	return (age.sec > timeout_secs) ||
 107:..\..\..\..\wpa_supplicant\src/utils/os.h **** 	       (age.sec == timeout_secs && age.usec > 0);
 108:..\..\..\..\wpa_supplicant\src/utils/os.h **** }
 109:..\..\..\..\wpa_supplicant\src/utils/os.h **** 
 110:..\..\..\..\wpa_supplicant\src/utils/os.h **** 
 111:..\..\..\..\wpa_supplicant\src/utils/os.h **** static inline int os_reltime_initialized(struct os_reltime *t)
 112:..\..\..\..\wpa_supplicant\src/utils/os.h **** {
 113:..\..\..\..\wpa_supplicant\src/utils/os.h **** 	return t->sec != 0 || t->usec != 0;
 114:..\..\..\..\wpa_supplicant\src/utils/os.h **** }
 115:..\..\..\..\wpa_supplicant\src/utils/os.h **** 
 116:..\..\..\..\wpa_supplicant\src/utils/os.h **** 
 117:..\..\..\..\wpa_supplicant\src/utils/os.h **** /**
 118:..\..\..\..\wpa_supplicant\src/utils/os.h ****  * os_mktime - Convert broken-down time into seconds since 1970-01-01
 119:..\..\..\..\wpa_supplicant\src/utils/os.h ****  * @year: Four digit year
 120:..\..\..\..\wpa_supplicant\src/utils/os.h ****  * @month: Month (1 .. 12)
 121:..\..\..\..\wpa_supplicant\src/utils/os.h ****  * @day: Day of month (1 .. 31)
 122:..\..\..\..\wpa_supplicant\src/utils/os.h ****  * @hour: Hour (0 .. 23)
 123:..\..\..\..\wpa_supplicant\src/utils/os.h ****  * @min: Minute (0 .. 59)
 124:..\..\..\..\wpa_supplicant\src/utils/os.h ****  * @sec: Second (0 .. 60)
 125:..\..\..\..\wpa_supplicant\src/utils/os.h ****  * @t: Buffer for returning calendar time representation (seconds since
 126:..\..\..\..\wpa_supplicant\src/utils/os.h ****  * 1970-01-01 00:00:00)
 127:..\..\..\..\wpa_supplicant\src/utils/os.h ****  * Returns: 0 on success, -1 on failure
 128:..\..\..\..\wpa_supplicant\src/utils/os.h ****  *
 129:..\..\..\..\wpa_supplicant\src/utils/os.h ****  * Note: The result is in seconds from Epoch, i.e., in UTC, not in local time
 130:..\..\..\..\wpa_supplicant\src/utils/os.h ****  * which is used by POSIX mktime().
 131:..\..\..\..\wpa_supplicant\src/utils/os.h ****  */
 132:..\..\..\..\wpa_supplicant\src/utils/os.h **** int os_mktime(int year, int month, int day, int hour, int min, int sec,
 133:..\..\..\..\wpa_supplicant\src/utils/os.h **** 	      os_time_t *t);
 134:..\..\..\..\wpa_supplicant\src/utils/os.h **** 
 135:..\..\..\..\wpa_supplicant\src/utils/os.h **** struct os_tm {
 136:..\..\..\..\wpa_supplicant\src/utils/os.h **** 	int sec; /* 0..59 or 60 for leap seconds */
 137:..\..\..\..\wpa_supplicant\src/utils/os.h **** 	int min; /* 0..59 */
 138:..\..\..\..\wpa_supplicant\src/utils/os.h **** 	int hour; /* 0..23 */
 139:..\..\..\..\wpa_supplicant\src/utils/os.h **** 	int day; /* 1..31 */
 140:..\..\..\..\wpa_supplicant\src/utils/os.h **** 	int month; /* 1..12 */
 141:..\..\..\..\wpa_supplicant\src/utils/os.h **** 	int year; /* Four digit year */
 142:..\..\..\..\wpa_supplicant\src/utils/os.h **** };
 143:..\..\..\..\wpa_supplicant\src/utils/os.h **** 
 144:..\..\..\..\wpa_supplicant\src/utils/os.h **** int os_gmtime(os_time_t t, struct os_tm *tm);
 145:..\..\..\..\wpa_supplicant\src/utils/os.h **** 
 146:..\..\..\..\wpa_supplicant\src/utils/os.h **** /**
 147:..\..\..\..\wpa_supplicant\src/utils/os.h ****  * os_daemonize - Run in the background (detach from the controlling terminal)
 148:..\..\..\..\wpa_supplicant\src/utils/os.h ****  * @pid_file: File name to write the process ID to or %NULL to skip this
 149:..\..\..\..\wpa_supplicant\src/utils/os.h ****  * Returns: 0 on success, -1 on failure
 150:..\..\..\..\wpa_supplicant\src/utils/os.h ****  */
 151:..\..\..\..\wpa_supplicant\src/utils/os.h **** int os_daemonize(const char *pid_file);
 152:..\..\..\..\wpa_supplicant\src/utils/os.h **** 
 153:..\..\..\..\wpa_supplicant\src/utils/os.h **** /**
 154:..\..\..\..\wpa_supplicant\src/utils/os.h ****  * os_daemonize_terminate - Stop running in the background (remove pid file)
 155:..\..\..\..\wpa_supplicant\src/utils/os.h ****  * @pid_file: File name to write the process ID to or %NULL to skip this
 156:..\..\..\..\wpa_supplicant\src/utils/os.h ****  */
 157:..\..\..\..\wpa_supplicant\src/utils/os.h **** void os_daemonize_terminate(const char *pid_file);
 158:..\..\..\..\wpa_supplicant\src/utils/os.h **** 
 159:..\..\..\..\wpa_supplicant\src/utils/os.h **** /**
 160:..\..\..\..\wpa_supplicant\src/utils/os.h ****  * os_get_random - Get cryptographically strong pseudo random data
 161:..\..\..\..\wpa_supplicant\src/utils/os.h ****  * @buf: Buffer for pseudo random data
 162:..\..\..\..\wpa_supplicant\src/utils/os.h ****  * @len: Length of the buffer
 163:..\..\..\..\wpa_supplicant\src/utils/os.h ****  * Returns: 0 on success, -1 on failure
 164:..\..\..\..\wpa_supplicant\src/utils/os.h ****  */
 165:..\..\..\..\wpa_supplicant\src/utils/os.h **** int os_get_random(unsigned char *buf, size_t len);
 166:..\..\..\..\wpa_supplicant\src/utils/os.h **** 
 167:..\..\..\..\wpa_supplicant\src/utils/os.h **** /**
 168:..\..\..\..\wpa_supplicant\src/utils/os.h ****  * os_random - Get pseudo random value (not necessarily very strong)
 169:..\..\..\..\wpa_supplicant\src/utils/os.h ****  * Returns: Pseudo random value
 170:..\..\..\..\wpa_supplicant\src/utils/os.h ****  */
 171:..\..\..\..\wpa_supplicant\src/utils/os.h **** unsigned long os_random(void);
 172:..\..\..\..\wpa_supplicant\src/utils/os.h **** 
 173:..\..\..\..\wpa_supplicant\src/utils/os.h **** /**
 174:..\..\..\..\wpa_supplicant\src/utils/os.h ****  * os_rel2abs_path - Get an absolute path for a file
 175:..\..\..\..\wpa_supplicant\src/utils/os.h ****  * @rel_path: Relative path to a file
 176:..\..\..\..\wpa_supplicant\src/utils/os.h ****  * Returns: Absolute path for the file or %NULL on failure
 177:..\..\..\..\wpa_supplicant\src/utils/os.h ****  *
 178:..\..\..\..\wpa_supplicant\src/utils/os.h ****  * This function tries to convert a relative path of a file to an absolute path
 179:..\..\..\..\wpa_supplicant\src/utils/os.h ****  * in order for the file to be found even if current working directory has
 180:..\..\..\..\wpa_supplicant\src/utils/os.h ****  * changed. The returned value is allocated and caller is responsible for
 181:..\..\..\..\wpa_supplicant\src/utils/os.h ****  * freeing it. It is acceptable to just return the same path in an allocated
 182:..\..\..\..\wpa_supplicant\src/utils/os.h ****  * buffer, e.g., return strdup(rel_path). This function is only used to find
 183:..\..\..\..\wpa_supplicant\src/utils/os.h ****  * configuration files when os_daemonize() may have changed the current working
 184:..\..\..\..\wpa_supplicant\src/utils/os.h ****  * directory and relative path would be pointing to a different location.
 185:..\..\..\..\wpa_supplicant\src/utils/os.h ****  */
 186:..\..\..\..\wpa_supplicant\src/utils/os.h **** char * os_rel2abs_path(const char *rel_path);
 187:..\..\..\..\wpa_supplicant\src/utils/os.h **** 
 188:..\..\..\..\wpa_supplicant\src/utils/os.h **** /**
 189:..\..\..\..\wpa_supplicant\src/utils/os.h ****  * os_program_init - Program initialization (called at start)
 190:..\..\..\..\wpa_supplicant\src/utils/os.h ****  * Returns: 0 on success, -1 on failure
 191:..\..\..\..\wpa_supplicant\src/utils/os.h ****  *
 192:..\..\..\..\wpa_supplicant\src/utils/os.h ****  * This function is called when a programs starts. If there are any OS specific
 193:..\..\..\..\wpa_supplicant\src/utils/os.h ****  * processing that is needed, it can be placed here. It is also acceptable to
 194:..\..\..\..\wpa_supplicant\src/utils/os.h ****  * just return 0 if not special processing is needed.
 195:..\..\..\..\wpa_supplicant\src/utils/os.h ****  */
 196:..\..\..\..\wpa_supplicant\src/utils/os.h **** int os_program_init(void);
 197:..\..\..\..\wpa_supplicant\src/utils/os.h **** 
 198:..\..\..\..\wpa_supplicant\src/utils/os.h **** /**
 199:..\..\..\..\wpa_supplicant\src/utils/os.h ****  * os_program_deinit - Program deinitialization (called just before exit)
 200:..\..\..\..\wpa_supplicant\src/utils/os.h ****  *
 201:..\..\..\..\wpa_supplicant\src/utils/os.h ****  * This function is called just before a program exists. If there are any OS
 202:..\..\..\..\wpa_supplicant\src/utils/os.h ****  * specific processing, e.g., freeing resourced allocated in os_program_init(),
 203:..\..\..\..\wpa_supplicant\src/utils/os.h ****  * it should be done here. It is also acceptable for this function to do
 204:..\..\..\..\wpa_supplicant\src/utils/os.h ****  * nothing.
 205:..\..\..\..\wpa_supplicant\src/utils/os.h ****  */
 206:..\..\..\..\wpa_supplicant\src/utils/os.h **** void os_program_deinit(void);
 207:..\..\..\..\wpa_supplicant\src/utils/os.h **** 
 208:..\..\..\..\wpa_supplicant\src/utils/os.h **** /**
 209:..\..\..\..\wpa_supplicant\src/utils/os.h ****  * os_setenv - Set environment variable
 210:..\..\..\..\wpa_supplicant\src/utils/os.h ****  * @name: Name of the variable
 211:..\..\..\..\wpa_supplicant\src/utils/os.h ****  * @value: Value to set to the variable
 212:..\..\..\..\wpa_supplicant\src/utils/os.h ****  * @overwrite: Whether existing variable should be overwritten
 213:..\..\..\..\wpa_supplicant\src/utils/os.h ****  * Returns: 0 on success, -1 on error
 214:..\..\..\..\wpa_supplicant\src/utils/os.h ****  *
 215:..\..\..\..\wpa_supplicant\src/utils/os.h ****  * This function is only used for wpa_cli action scripts. OS wrapper does not
 216:..\..\..\..\wpa_supplicant\src/utils/os.h ****  * need to implement this if such functionality is not needed.
 217:..\..\..\..\wpa_supplicant\src/utils/os.h ****  */
 218:..\..\..\..\wpa_supplicant\src/utils/os.h **** int os_setenv(const char *name, const char *value, int overwrite);
 219:..\..\..\..\wpa_supplicant\src/utils/os.h **** 
 220:..\..\..\..\wpa_supplicant\src/utils/os.h **** /**
 221:..\..\..\..\wpa_supplicant\src/utils/os.h ****  * os_unsetenv - Delete environent variable
 222:..\..\..\..\wpa_supplicant\src/utils/os.h ****  * @name: Name of the variable
 223:..\..\..\..\wpa_supplicant\src/utils/os.h ****  * Returns: 0 on success, -1 on error
 224:..\..\..\..\wpa_supplicant\src/utils/os.h ****  *
 225:..\..\..\..\wpa_supplicant\src/utils/os.h ****  * This function is only used for wpa_cli action scripts. OS wrapper does not
 226:..\..\..\..\wpa_supplicant\src/utils/os.h ****  * need to implement this if such functionality is not needed.
 227:..\..\..\..\wpa_supplicant\src/utils/os.h ****  */
 228:..\..\..\..\wpa_supplicant\src/utils/os.h **** int os_unsetenv(const char *name);
 229:..\..\..\..\wpa_supplicant\src/utils/os.h **** 
 230:..\..\..\..\wpa_supplicant\src/utils/os.h **** /**
 231:..\..\..\..\wpa_supplicant\src/utils/os.h ****  * os_readfile - Read a file to an allocated memory buffer
 232:..\..\..\..\wpa_supplicant\src/utils/os.h ****  * @name: Name of the file to read
 233:..\..\..\..\wpa_supplicant\src/utils/os.h ****  * @len: For returning the length of the allocated buffer
 234:..\..\..\..\wpa_supplicant\src/utils/os.h ****  * Returns: Pointer to the allocated buffer or %NULL on failure
 235:..\..\..\..\wpa_supplicant\src/utils/os.h ****  *
 236:..\..\..\..\wpa_supplicant\src/utils/os.h ****  * This function allocates memory and reads the given file to this buffer. Both
 237:..\..\..\..\wpa_supplicant\src/utils/os.h ****  * binary and text files can be read with this function. The caller is
 238:..\..\..\..\wpa_supplicant\src/utils/os.h ****  * responsible for freeing the returned buffer with os_free().
 239:..\..\..\..\wpa_supplicant\src/utils/os.h ****  */
 240:..\..\..\..\wpa_supplicant\src/utils/os.h **** char * os_readfile(const char *name, size_t *len);
 241:..\..\..\..\wpa_supplicant\src/utils/os.h **** 
 242:..\..\..\..\wpa_supplicant\src/utils/os.h **** /**
 243:..\..\..\..\wpa_supplicant\src/utils/os.h ****  * os_file_exists - Check whether the specified file exists
 244:..\..\..\..\wpa_supplicant\src/utils/os.h ****  * @fname: Path and name of the file
 245:..\..\..\..\wpa_supplicant\src/utils/os.h ****  * Returns: 1 if the file exists or 0 if not
 246:..\..\..\..\wpa_supplicant\src/utils/os.h ****  */
 247:..\..\..\..\wpa_supplicant\src/utils/os.h **** int os_file_exists(const char *fname);
 248:..\..\..\..\wpa_supplicant\src/utils/os.h **** 
 249:..\..\..\..\wpa_supplicant\src/utils/os.h **** /**
 250:..\..\..\..\wpa_supplicant\src/utils/os.h ****  * os_fdatasync - Sync a file's (for a given stream) state with storage device
 251:..\..\..\..\wpa_supplicant\src/utils/os.h ****  * @stream: the stream to be flushed
 252:..\..\..\..\wpa_supplicant\src/utils/os.h ****  * Returns: 0 if the operation succeeded or -1 on failure
 253:..\..\..\..\wpa_supplicant\src/utils/os.h ****  */
 254:..\..\..\..\wpa_supplicant\src/utils/os.h **** int os_fdatasync(FILE *stream);
 255:..\..\..\..\wpa_supplicant\src/utils/os.h **** 
 256:..\..\..\..\wpa_supplicant\src/utils/os.h **** /**
 257:..\..\..\..\wpa_supplicant\src/utils/os.h ****  * os_zalloc - Allocate and zero memory
 258:..\..\..\..\wpa_supplicant\src/utils/os.h ****  * @size: Number of bytes to allocate
 259:..\..\..\..\wpa_supplicant\src/utils/os.h ****  * Returns: Pointer to allocated and zeroed memory or %NULL on failure
 260:..\..\..\..\wpa_supplicant\src/utils/os.h ****  *
 261:..\..\..\..\wpa_supplicant\src/utils/os.h ****  * Caller is responsible for freeing the returned buffer with os_free().
 262:..\..\..\..\wpa_supplicant\src/utils/os.h ****  */
 263:..\..\..\..\wpa_supplicant\src/utils/os.h **** void * os_zalloc(size_t size);
 264:..\..\..\..\wpa_supplicant\src/utils/os.h **** 
 265:..\..\..\..\wpa_supplicant\src/utils/os.h **** /**
 266:..\..\..\..\wpa_supplicant\src/utils/os.h ****  * os_calloc - Allocate and zero memory for an array
 267:..\..\..\..\wpa_supplicant\src/utils/os.h ****  * @nmemb: Number of members in the array
 268:..\..\..\..\wpa_supplicant\src/utils/os.h ****  * @size: Number of bytes in each member
 269:..\..\..\..\wpa_supplicant\src/utils/os.h ****  * Returns: Pointer to allocated and zeroed memory or %NULL on failure
 270:..\..\..\..\wpa_supplicant\src/utils/os.h ****  *
 271:..\..\..\..\wpa_supplicant\src/utils/os.h ****  * This function can be used as a wrapper for os_zalloc(nmemb * size) when an
 272:..\..\..\..\wpa_supplicant\src/utils/os.h ****  * allocation is used for an array. The main benefit over os_zalloc() is in
 273:..\..\..\..\wpa_supplicant\src/utils/os.h ****  * having an extra check to catch integer overflows in multiplication.
 274:..\..\..\..\wpa_supplicant\src/utils/os.h ****  *
 275:..\..\..\..\wpa_supplicant\src/utils/os.h ****  * Caller is responsible for freeing the returned buffer with os_free().
 276:..\..\..\..\wpa_supplicant\src/utils/os.h ****  */
 277:..\..\..\..\wpa_supplicant\src/utils/os.h **** static inline void * os_calloc(size_t nmemb, size_t size)
 278:..\..\..\..\wpa_supplicant\src/utils/os.h **** {
 279:..\..\..\..\wpa_supplicant\src/utils/os.h **** 	if (size && nmemb > (~(size_t) 0) / size)
 280:..\..\..\..\wpa_supplicant\src/utils/os.h **** 		return NULL;
 281:..\..\..\..\wpa_supplicant\src/utils/os.h **** 	return os_zalloc(nmemb * size);
 282:..\..\..\..\wpa_supplicant\src/utils/os.h **** }
 283:..\..\..\..\wpa_supplicant\src/utils/os.h **** 
 284:..\..\..\..\wpa_supplicant\src/utils/os.h **** 
 285:..\..\..\..\wpa_supplicant\src/utils/os.h **** /*
 286:..\..\..\..\wpa_supplicant\src/utils/os.h ****  * The following functions are wrapper for standard ANSI C or POSIX functions.
 287:..\..\..\..\wpa_supplicant\src/utils/os.h ****  * By default, they are just defined to use the standard function name and no
 288:..\..\..\..\wpa_supplicant\src/utils/os.h ****  * os_*.c implementation is needed for them. This avoids extra function calls
 289:..\..\..\..\wpa_supplicant\src/utils/os.h ****  * by allowing the C pre-processor take care of the function name mapping.
 290:..\..\..\..\wpa_supplicant\src/utils/os.h ****  *
 291:..\..\..\..\wpa_supplicant\src/utils/os.h ****  * If the target system uses a C library that does not provide these functions,
 292:..\..\..\..\wpa_supplicant\src/utils/os.h ****  * build_config.h can be used to define the wrappers to use a different
 293:..\..\..\..\wpa_supplicant\src/utils/os.h ****  * function name. This can be done on function-by-function basis since the
 294:..\..\..\..\wpa_supplicant\src/utils/os.h ****  * defines here are only used if build_config.h does not define the os_* name.
 295:..\..\..\..\wpa_supplicant\src/utils/os.h ****  * If needed, os_*.c file can be used to implement the functions that are not
 296:..\..\..\..\wpa_supplicant\src/utils/os.h ****  * included in the C library on the target system. Alternatively,
 297:..\..\..\..\wpa_supplicant\src/utils/os.h ****  * OS_NO_C_LIB_DEFINES can be defined to skip all defines here in which case
 298:..\..\..\..\wpa_supplicant\src/utils/os.h ****  * these functions need to be implemented in os_*.c file for the target system.
 299:..\..\..\..\wpa_supplicant\src/utils/os.h ****  */
 300:..\..\..\..\wpa_supplicant\src/utils/os.h **** 
 301:..\..\..\..\wpa_supplicant\src/utils/os.h **** #ifdef OS_NO_C_LIB_DEFINES
 302:..\..\..\..\wpa_supplicant\src/utils/os.h **** 
 303:..\..\..\..\wpa_supplicant\src/utils/os.h **** /**
 304:..\..\..\..\wpa_supplicant\src/utils/os.h ****  * os_malloc - Allocate dynamic memory
 305:..\..\..\..\wpa_supplicant\src/utils/os.h ****  * @size: Size of the buffer to allocate
 306:..\..\..\..\wpa_supplicant\src/utils/os.h ****  * Returns: Allocated buffer or %NULL on failure
 307:..\..\..\..\wpa_supplicant\src/utils/os.h ****  *
 308:..\..\..\..\wpa_supplicant\src/utils/os.h ****  * Caller is responsible for freeing the returned buffer with os_free().
 309:..\..\..\..\wpa_supplicant\src/utils/os.h ****  */
 310:..\..\..\..\wpa_supplicant\src/utils/os.h **** void * os_malloc(size_t size);
 311:..\..\..\..\wpa_supplicant\src/utils/os.h **** 
 312:..\..\..\..\wpa_supplicant\src/utils/os.h **** /**
 313:..\..\..\..\wpa_supplicant\src/utils/os.h ****  * os_realloc - Re-allocate dynamic memory
 314:..\..\..\..\wpa_supplicant\src/utils/os.h ****  * @ptr: Old buffer from os_malloc() or os_realloc()
 315:..\..\..\..\wpa_supplicant\src/utils/os.h ****  * @size: Size of the new buffer
 316:..\..\..\..\wpa_supplicant\src/utils/os.h ****  * Returns: Allocated buffer or %NULL on failure
 317:..\..\..\..\wpa_supplicant\src/utils/os.h ****  *
 318:..\..\..\..\wpa_supplicant\src/utils/os.h ****  * Caller is responsible for freeing the returned buffer with os_free().
 319:..\..\..\..\wpa_supplicant\src/utils/os.h ****  * If re-allocation fails, %NULL is returned and the original buffer (ptr) is
 320:..\..\..\..\wpa_supplicant\src/utils/os.h ****  * not freed and caller is still responsible for freeing it.
 321:..\..\..\..\wpa_supplicant\src/utils/os.h ****  */
 322:..\..\..\..\wpa_supplicant\src/utils/os.h **** void * os_realloc(void *ptr, size_t size);
 323:..\..\..\..\wpa_supplicant\src/utils/os.h **** 
 324:..\..\..\..\wpa_supplicant\src/utils/os.h **** /**
 325:..\..\..\..\wpa_supplicant\src/utils/os.h ****  * os_free - Free dynamic memory
 326:..\..\..\..\wpa_supplicant\src/utils/os.h ****  * @ptr: Old buffer from os_malloc() or os_realloc(); can be %NULL
 327:..\..\..\..\wpa_supplicant\src/utils/os.h ****  */
 328:..\..\..\..\wpa_supplicant\src/utils/os.h **** void os_free(void *ptr);
 329:..\..\..\..\wpa_supplicant\src/utils/os.h **** 
 330:..\..\..\..\wpa_supplicant\src/utils/os.h **** /**
 331:..\..\..\..\wpa_supplicant\src/utils/os.h ****  * os_memcpy - Copy memory area
 332:..\..\..\..\wpa_supplicant\src/utils/os.h ****  * @dest: Destination
 333:..\..\..\..\wpa_supplicant\src/utils/os.h ****  * @src: Source
 334:..\..\..\..\wpa_supplicant\src/utils/os.h ****  * @n: Number of bytes to copy
 335:..\..\..\..\wpa_supplicant\src/utils/os.h ****  * Returns: dest
 336:..\..\..\..\wpa_supplicant\src/utils/os.h ****  *
 337:..\..\..\..\wpa_supplicant\src/utils/os.h ****  * The memory areas src and dst must not overlap. os_memmove() can be used with
 338:..\..\..\..\wpa_supplicant\src/utils/os.h ****  * overlapping memory.
 339:..\..\..\..\wpa_supplicant\src/utils/os.h ****  */
 340:..\..\..\..\wpa_supplicant\src/utils/os.h **** void * os_memcpy(void *dest, const void *src, size_t n);
 341:..\..\..\..\wpa_supplicant\src/utils/os.h **** 
 342:..\..\..\..\wpa_supplicant\src/utils/os.h **** /**
 343:..\..\..\..\wpa_supplicant\src/utils/os.h ****  * os_memmove - Copy memory area
 344:..\..\..\..\wpa_supplicant\src/utils/os.h ****  * @dest: Destination
 345:..\..\..\..\wpa_supplicant\src/utils/os.h ****  * @src: Source
 346:..\..\..\..\wpa_supplicant\src/utils/os.h ****  * @n: Number of bytes to copy
 347:..\..\..\..\wpa_supplicant\src/utils/os.h ****  * Returns: dest
 348:..\..\..\..\wpa_supplicant\src/utils/os.h ****  *
 349:..\..\..\..\wpa_supplicant\src/utils/os.h ****  * The memory areas src and dst may overlap.
 350:..\..\..\..\wpa_supplicant\src/utils/os.h ****  */
 351:..\..\..\..\wpa_supplicant\src/utils/os.h **** void * os_memmove(void *dest, const void *src, size_t n);
 352:..\..\..\..\wpa_supplicant\src/utils/os.h **** 
 353:..\..\..\..\wpa_supplicant\src/utils/os.h **** /**
 354:..\..\..\..\wpa_supplicant\src/utils/os.h ****  * os_memset - Fill memory with a constant byte
 355:..\..\..\..\wpa_supplicant\src/utils/os.h ****  * @s: Memory area to be filled
 356:..\..\..\..\wpa_supplicant\src/utils/os.h ****  * @c: Constant byte
 357:..\..\..\..\wpa_supplicant\src/utils/os.h ****  * @n: Number of bytes started from s to fill with c
 358:..\..\..\..\wpa_supplicant\src/utils/os.h ****  * Returns: s
 359:..\..\..\..\wpa_supplicant\src/utils/os.h ****  */
 360:..\..\..\..\wpa_supplicant\src/utils/os.h **** void * os_memset(void *s, int c, size_t n);
 361:..\..\..\..\wpa_supplicant\src/utils/os.h **** 
 362:..\..\..\..\wpa_supplicant\src/utils/os.h **** /**
 363:..\..\..\..\wpa_supplicant\src/utils/os.h ****  * os_memcmp - Compare memory areas
 364:..\..\..\..\wpa_supplicant\src/utils/os.h ****  * @s1: First buffer
 365:..\..\..\..\wpa_supplicant\src/utils/os.h ****  * @s2: Second buffer
 366:..\..\..\..\wpa_supplicant\src/utils/os.h ****  * @n: Maximum numbers of octets to compare
 367:..\..\..\..\wpa_supplicant\src/utils/os.h ****  * Returns: An integer less than, equal to, or greater than zero if s1 is
 368:..\..\..\..\wpa_supplicant\src/utils/os.h ****  * found to be less than, to match, or be greater than s2. Only first n
 369:..\..\..\..\wpa_supplicant\src/utils/os.h ****  * characters will be compared.
 370:..\..\..\..\wpa_supplicant\src/utils/os.h ****  */
 371:..\..\..\..\wpa_supplicant\src/utils/os.h **** int os_memcmp(const void *s1, const void *s2, size_t n);
 372:..\..\..\..\wpa_supplicant\src/utils/os.h **** 
 373:..\..\..\..\wpa_supplicant\src/utils/os.h **** /**
 374:..\..\..\..\wpa_supplicant\src/utils/os.h ****  * os_strdup - Duplicate a string
 375:..\..\..\..\wpa_supplicant\src/utils/os.h ****  * @s: Source string
 376:..\..\..\..\wpa_supplicant\src/utils/os.h ****  * Returns: Allocated buffer with the string copied into it or %NULL on failure
 377:..\..\..\..\wpa_supplicant\src/utils/os.h ****  *
 378:..\..\..\..\wpa_supplicant\src/utils/os.h ****  * Caller is responsible for freeing the returned buffer with os_free().
 379:..\..\..\..\wpa_supplicant\src/utils/os.h ****  */
 380:..\..\..\..\wpa_supplicant\src/utils/os.h **** char * os_strdup(const char *s);
 381:..\..\..\..\wpa_supplicant\src/utils/os.h **** 
 382:..\..\..\..\wpa_supplicant\src/utils/os.h **** /**
 383:..\..\..\..\wpa_supplicant\src/utils/os.h ****  * os_strlen - Calculate the length of a string
 384:..\..\..\..\wpa_supplicant\src/utils/os.h ****  * @s: '\0' terminated string
 385:..\..\..\..\wpa_supplicant\src/utils/os.h ****  * Returns: Number of characters in s (not counting the '\0' terminator)
 386:..\..\..\..\wpa_supplicant\src/utils/os.h ****  */
 387:..\..\..\..\wpa_supplicant\src/utils/os.h **** size_t os_strlen(const char *s);
 388:..\..\..\..\wpa_supplicant\src/utils/os.h **** 
 389:..\..\..\..\wpa_supplicant\src/utils/os.h **** /**
 390:..\..\..\..\wpa_supplicant\src/utils/os.h ****  * os_strcasecmp - Compare two strings ignoring case
 391:..\..\..\..\wpa_supplicant\src/utils/os.h ****  * @s1: First string
 392:..\..\..\..\wpa_supplicant\src/utils/os.h ****  * @s2: Second string
 393:..\..\..\..\wpa_supplicant\src/utils/os.h ****  * Returns: An integer less than, equal to, or greater than zero if s1 is
 394:..\..\..\..\wpa_supplicant\src/utils/os.h ****  * found to be less than, to match, or be greatred than s2
 395:..\..\..\..\wpa_supplicant\src/utils/os.h ****  */
 396:..\..\..\..\wpa_supplicant\src/utils/os.h **** int os_strcasecmp(const char *s1, const char *s2);
 397:..\..\..\..\wpa_supplicant\src/utils/os.h **** 
 398:..\..\..\..\wpa_supplicant\src/utils/os.h **** /**
 399:..\..\..\..\wpa_supplicant\src/utils/os.h ****  * os_strncasecmp - Compare two strings ignoring case
 400:..\..\..\..\wpa_supplicant\src/utils/os.h ****  * @s1: First string
 401:..\..\..\..\wpa_supplicant\src/utils/os.h ****  * @s2: Second string
 402:..\..\..\..\wpa_supplicant\src/utils/os.h ****  * @n: Maximum numbers of characters to compare
 403:..\..\..\..\wpa_supplicant\src/utils/os.h ****  * Returns: An integer less than, equal to, or greater than zero if s1 is
 404:..\..\..\..\wpa_supplicant\src/utils/os.h ****  * found to be less than, to match, or be greater than s2. Only first n
 405:..\..\..\..\wpa_supplicant\src/utils/os.h ****  * characters will be compared.
 406:..\..\..\..\wpa_supplicant\src/utils/os.h ****  */
 407:..\..\..\..\wpa_supplicant\src/utils/os.h **** int os_strncasecmp(const char *s1, const char *s2, size_t n);
 408:..\..\..\..\wpa_supplicant\src/utils/os.h **** 
 409:..\..\..\..\wpa_supplicant\src/utils/os.h **** /**
 410:..\..\..\..\wpa_supplicant\src/utils/os.h ****  * os_strchr - Locate the first occurrence of a character in string
 411:..\..\..\..\wpa_supplicant\src/utils/os.h ****  * @s: String
 412:..\..\..\..\wpa_supplicant\src/utils/os.h ****  * @c: Character to search for
 413:..\..\..\..\wpa_supplicant\src/utils/os.h ****  * Returns: Pointer to the matched character or %NULL if not found
 414:..\..\..\..\wpa_supplicant\src/utils/os.h ****  */
 415:..\..\..\..\wpa_supplicant\src/utils/os.h **** char * os_strchr(const char *s, int c);
 416:..\..\..\..\wpa_supplicant\src/utils/os.h **** 
 417:..\..\..\..\wpa_supplicant\src/utils/os.h **** /**
 418:..\..\..\..\wpa_supplicant\src/utils/os.h ****  * os_strrchr - Locate the last occurrence of a character in string
 419:..\..\..\..\wpa_supplicant\src/utils/os.h ****  * @s: String
 420:..\..\..\..\wpa_supplicant\src/utils/os.h ****  * @c: Character to search for
 421:..\..\..\..\wpa_supplicant\src/utils/os.h ****  * Returns: Pointer to the matched character or %NULL if not found
 422:..\..\..\..\wpa_supplicant\src/utils/os.h ****  */
 423:..\..\..\..\wpa_supplicant\src/utils/os.h **** char * os_strrchr(const char *s, int c);
 424:..\..\..\..\wpa_supplicant\src/utils/os.h **** 
 425:..\..\..\..\wpa_supplicant\src/utils/os.h **** /**
 426:..\..\..\..\wpa_supplicant\src/utils/os.h ****  * os_strcmp - Compare two strings
 427:..\..\..\..\wpa_supplicant\src/utils/os.h ****  * @s1: First string
 428:..\..\..\..\wpa_supplicant\src/utils/os.h ****  * @s2: Second string
 429:..\..\..\..\wpa_supplicant\src/utils/os.h ****  * Returns: An integer less than, equal to, or greater than zero if s1 is
 430:..\..\..\..\wpa_supplicant\src/utils/os.h ****  * found to be less than, to match, or be greatred than s2
 431:..\..\..\..\wpa_supplicant\src/utils/os.h ****  */
 432:..\..\..\..\wpa_supplicant\src/utils/os.h **** int os_strcmp(const char *s1, const char *s2);
 433:..\..\..\..\wpa_supplicant\src/utils/os.h **** 
 434:..\..\..\..\wpa_supplicant\src/utils/os.h **** /**
 435:..\..\..\..\wpa_supplicant\src/utils/os.h ****  * os_strncmp - Compare two strings
 436:..\..\..\..\wpa_supplicant\src/utils/os.h ****  * @s1: First string
 437:..\..\..\..\wpa_supplicant\src/utils/os.h ****  * @s2: Second string
 438:..\..\..\..\wpa_supplicant\src/utils/os.h ****  * @n: Maximum numbers of characters to compare
 439:..\..\..\..\wpa_supplicant\src/utils/os.h ****  * Returns: An integer less than, equal to, or greater than zero if s1 is
 440:..\..\..\..\wpa_supplicant\src/utils/os.h ****  * found to be less than, to match, or be greater than s2. Only first n
 441:..\..\..\..\wpa_supplicant\src/utils/os.h ****  * characters will be compared.
 442:..\..\..\..\wpa_supplicant\src/utils/os.h ****  */
 443:..\..\..\..\wpa_supplicant\src/utils/os.h **** int os_strncmp(const char *s1, const char *s2, size_t n);
 444:..\..\..\..\wpa_supplicant\src/utils/os.h **** 
 445:..\..\..\..\wpa_supplicant\src/utils/os.h **** /**
 446:..\..\..\..\wpa_supplicant\src/utils/os.h ****  * os_strstr - Locate a substring
 447:..\..\..\..\wpa_supplicant\src/utils/os.h ****  * @haystack: String (haystack) to search from
 448:..\..\..\..\wpa_supplicant\src/utils/os.h ****  * @needle: Needle to search from haystack
 449:..\..\..\..\wpa_supplicant\src/utils/os.h ****  * Returns: Pointer to the beginning of the substring or %NULL if not found
 450:..\..\..\..\wpa_supplicant\src/utils/os.h ****  */
 451:..\..\..\..\wpa_supplicant\src/utils/os.h **** char * os_strstr(const char *haystack, const char *needle);
 452:..\..\..\..\wpa_supplicant\src/utils/os.h **** 
 453:..\..\..\..\wpa_supplicant\src/utils/os.h **** /**
 454:..\..\..\..\wpa_supplicant\src/utils/os.h ****  * os_snprintf - Print to a memory buffer
 455:..\..\..\..\wpa_supplicant\src/utils/os.h ****  * @str: Memory buffer to print into
 456:..\..\..\..\wpa_supplicant\src/utils/os.h ****  * @size: Maximum length of the str buffer
 457:..\..\..\..\wpa_supplicant\src/utils/os.h ****  * @format: printf format
 458:..\..\..\..\wpa_supplicant\src/utils/os.h ****  * Returns: Number of characters printed (not including trailing '\0').
 459:..\..\..\..\wpa_supplicant\src/utils/os.h ****  *
 460:..\..\..\..\wpa_supplicant\src/utils/os.h ****  * If the output buffer is truncated, number of characters which would have
 461:..\..\..\..\wpa_supplicant\src/utils/os.h ****  * been written is returned. Since some C libraries return -1 in such a case,
 462:..\..\..\..\wpa_supplicant\src/utils/os.h ****  * the caller must be prepared on that value, too, to indicate truncation.
 463:..\..\..\..\wpa_supplicant\src/utils/os.h ****  *
 464:..\..\..\..\wpa_supplicant\src/utils/os.h ****  * Note: Some C library implementations of snprintf() may not guarantee null
 465:..\..\..\..\wpa_supplicant\src/utils/os.h ****  * termination in case the output is truncated. The OS wrapper function of
 466:..\..\..\..\wpa_supplicant\src/utils/os.h ****  * os_snprintf() should provide this guarantee, i.e., to null terminate the
 467:..\..\..\..\wpa_supplicant\src/utils/os.h ****  * output buffer if a C library version of the function is used and if that
 468:..\..\..\..\wpa_supplicant\src/utils/os.h ****  * function does not guarantee null termination.
 469:..\..\..\..\wpa_supplicant\src/utils/os.h ****  *
 470:..\..\..\..\wpa_supplicant\src/utils/os.h ****  * If the target system does not include snprintf(), see, e.g.,
 471:..\..\..\..\wpa_supplicant\src/utils/os.h ****  * http://www.ijs.si/software/snprintf/ for an example of a portable
 472:..\..\..\..\wpa_supplicant\src/utils/os.h ****  * implementation of snprintf.
 473:..\..\..\..\wpa_supplicant\src/utils/os.h ****  */
 474:..\..\..\..\wpa_supplicant\src/utils/os.h **** int os_snprintf(char *str, size_t size, const char *format, ...);
 475:..\..\..\..\wpa_supplicant\src/utils/os.h **** 
 476:..\..\..\..\wpa_supplicant\src/utils/os.h **** #else /* OS_NO_C_LIB_DEFINES */
 477:..\..\..\..\wpa_supplicant\src/utils/os.h **** 
 478:..\..\..\..\wpa_supplicant\src/utils/os.h **** #ifdef WPA_TRACE
 479:..\..\..\..\wpa_supplicant\src/utils/os.h **** void * os_malloc(size_t size);
 480:..\..\..\..\wpa_supplicant\src/utils/os.h **** void * os_realloc(void *ptr, size_t size);
 481:..\..\..\..\wpa_supplicant\src/utils/os.h **** void os_free(void *ptr);
 482:..\..\..\..\wpa_supplicant\src/utils/os.h **** char * os_strdup(const char *s);
 483:..\..\..\..\wpa_supplicant\src/utils/os.h **** #else /* WPA_TRACE */
 484:..\..\..\..\wpa_supplicant\src/utils/os.h **** #ifndef os_malloc
 485:..\..\..\..\wpa_supplicant\src/utils/os.h **** #define os_malloc(s) malloc((s))
 486:..\..\..\..\wpa_supplicant\src/utils/os.h **** #endif
 487:..\..\..\..\wpa_supplicant\src/utils/os.h **** #ifndef os_realloc
 488:..\..\..\..\wpa_supplicant\src/utils/os.h **** #define os_realloc(p, s) realloc((p), (s))
 489:..\..\..\..\wpa_supplicant\src/utils/os.h **** #endif
 490:..\..\..\..\wpa_supplicant\src/utils/os.h **** #ifndef os_free
 491:..\..\..\..\wpa_supplicant\src/utils/os.h **** #define os_free(p) free((p))
 492:..\..\..\..\wpa_supplicant\src/utils/os.h **** #endif
 493:..\..\..\..\wpa_supplicant\src/utils/os.h **** #ifndef os_strdup
 494:..\..\..\..\wpa_supplicant\src/utils/os.h **** #ifdef _MSC_VER
 495:..\..\..\..\wpa_supplicant\src/utils/os.h **** #define os_strdup(s) _strdup(s)
 496:..\..\..\..\wpa_supplicant\src/utils/os.h **** #else
 497:..\..\..\..\wpa_supplicant\src/utils/os.h **** #define os_strdup(s) strdup(s)
 498:..\..\..\..\wpa_supplicant\src/utils/os.h **** #endif
 499:..\..\..\..\wpa_supplicant\src/utils/os.h **** #endif
 500:..\..\..\..\wpa_supplicant\src/utils/os.h **** #endif /* WPA_TRACE */
 501:..\..\..\..\wpa_supplicant\src/utils/os.h **** 
 502:..\..\..\..\wpa_supplicant\src/utils/os.h **** #ifndef os_memcpy
 503:..\..\..\..\wpa_supplicant\src/utils/os.h **** #define os_memcpy(d, s, n) memcpy((d), (s), (n))
 504:..\..\..\..\wpa_supplicant\src/utils/os.h **** #endif
 505:..\..\..\..\wpa_supplicant\src/utils/os.h **** #ifndef os_memmove
 506:..\..\..\..\wpa_supplicant\src/utils/os.h **** #define os_memmove(d, s, n) memmove((d), (s), (n))
 507:..\..\..\..\wpa_supplicant\src/utils/os.h **** #endif
 508:..\..\..\..\wpa_supplicant\src/utils/os.h **** #ifndef os_memset
 509:..\..\..\..\wpa_supplicant\src/utils/os.h **** #define os_memset(s, c, n) memset(s, c, n)
 510:..\..\..\..\wpa_supplicant\src/utils/os.h **** #endif
 511:..\..\..\..\wpa_supplicant\src/utils/os.h **** #ifndef os_memcmp
 512:..\..\..\..\wpa_supplicant\src/utils/os.h **** #define os_memcmp(s1, s2, n) memcmp((s1), (s2), (n))
 513:..\..\..\..\wpa_supplicant\src/utils/os.h **** #endif
 514:..\..\..\..\wpa_supplicant\src/utils/os.h **** 
 515:..\..\..\..\wpa_supplicant\src/utils/os.h **** #ifndef os_strlen
 516:..\..\..\..\wpa_supplicant\src/utils/os.h **** #define os_strlen(s) strlen(s)
 517:..\..\..\..\wpa_supplicant\src/utils/os.h **** #endif
 518:..\..\..\..\wpa_supplicant\src/utils/os.h **** #ifndef os_strcasecmp
 519:..\..\..\..\wpa_supplicant\src/utils/os.h **** #ifdef _MSC_VER
 520:..\..\..\..\wpa_supplicant\src/utils/os.h **** #define os_strcasecmp(s1, s2) _stricmp((s1), (s2))
 521:..\..\..\..\wpa_supplicant\src/utils/os.h **** #else
 522:..\..\..\..\wpa_supplicant\src/utils/os.h **** #define os_strcasecmp(s1, s2) strcasecmp((s1), (s2))
 523:..\..\..\..\wpa_supplicant\src/utils/os.h **** #endif
 524:..\..\..\..\wpa_supplicant\src/utils/os.h **** #endif
 525:..\..\..\..\wpa_supplicant\src/utils/os.h **** #ifndef os_strncasecmp
 526:..\..\..\..\wpa_supplicant\src/utils/os.h **** #ifdef _MSC_VER
 527:..\..\..\..\wpa_supplicant\src/utils/os.h **** #define os_strncasecmp(s1, s2, n) _strnicmp((s1), (s2), (n))
 528:..\..\..\..\wpa_supplicant\src/utils/os.h **** #else
 529:..\..\..\..\wpa_supplicant\src/utils/os.h **** #define os_strncasecmp(s1, s2, n) strncasecmp((s1), (s2), (n))
 530:..\..\..\..\wpa_supplicant\src/utils/os.h **** #endif
 531:..\..\..\..\wpa_supplicant\src/utils/os.h **** #endif
 532:..\..\..\..\wpa_supplicant\src/utils/os.h **** #ifndef os_strchr
 533:..\..\..\..\wpa_supplicant\src/utils/os.h **** #define os_strchr(s, c) strchr((s), (c))
 534:..\..\..\..\wpa_supplicant\src/utils/os.h **** #endif
 535:..\..\..\..\wpa_supplicant\src/utils/os.h **** #ifndef os_strcmp
 536:..\..\..\..\wpa_supplicant\src/utils/os.h **** #define os_strcmp(s1, s2) strcmp((s1), (s2))
 537:..\..\..\..\wpa_supplicant\src/utils/os.h **** #endif
 538:..\..\..\..\wpa_supplicant\src/utils/os.h **** #ifndef os_strncmp
 539:..\..\..\..\wpa_supplicant\src/utils/os.h **** #define os_strncmp(s1, s2, n) strncmp((s1), (s2), (n))
 540:..\..\..\..\wpa_supplicant\src/utils/os.h **** #endif
 541:..\..\..\..\wpa_supplicant\src/utils/os.h **** #ifndef os_strrchr
 542:..\..\..\..\wpa_supplicant\src/utils/os.h **** #define os_strrchr(s, c) strrchr((s), (c))
 543:..\..\..\..\wpa_supplicant\src/utils/os.h **** #endif
 544:..\..\..\..\wpa_supplicant\src/utils/os.h **** #ifndef os_strstr
 545:..\..\..\..\wpa_supplicant\src/utils/os.h **** #define os_strstr(h, n) strstr((h), (n))
 546:..\..\..\..\wpa_supplicant\src/utils/os.h **** #endif
 547:..\..\..\..\wpa_supplicant\src/utils/os.h **** 
 548:..\..\..\..\wpa_supplicant\src/utils/os.h **** #ifndef os_snprintf
 549:..\..\..\..\wpa_supplicant\src/utils/os.h **** #ifdef _MSC_VER
 550:..\..\..\..\wpa_supplicant\src/utils/os.h **** #define os_snprintf _snprintf
 551:..\..\..\..\wpa_supplicant\src/utils/os.h **** #else
 552:..\..\..\..\wpa_supplicant\src/utils/os.h **** #define os_snprintf snprintf
 553:..\..\..\..\wpa_supplicant\src/utils/os.h **** #endif
 554:..\..\..\..\wpa_supplicant\src/utils/os.h **** #endif
 555:..\..\..\..\wpa_supplicant\src/utils/os.h **** 
 556:..\..\..\..\wpa_supplicant\src/utils/os.h **** #endif /* OS_NO_C_LIB_DEFINES */
 557:..\..\..\..\wpa_supplicant\src/utils/os.h **** 
 558:..\..\..\..\wpa_supplicant\src/utils/os.h **** 
 559:..\..\..\..\wpa_supplicant\src/utils/os.h **** static inline int os_snprintf_error(size_t size, int res)
 560:..\..\..\..\wpa_supplicant\src/utils/os.h **** {
 561:..\..\..\..\wpa_supplicant\src/utils/os.h **** 	return res < 0 || (unsigned int) res >= size;
 201              		.loc 2 561 2
 202              		.loc 2 561 17 is_stmt 0
 203 0056 E34805FC 		blt	a0,zero,.L23
 204 005a 8504     		addi	s1,s1,1
 205              	.LVL16:
 206 005c E37565FD 		bleu	s6,a0,.L23
 207              	.LVL17:
 208              	.LBE12:
 209              	.LBE11:
 332:C:/Users/stapi/OneDrive/Desktop/GD32VW553/V1_MQTT_OK/GD32VW55X_Wifi_BLE_SDK/GD32VW55x_RELEASE_V1.0.2/MSDK/wpa_supplicant/src/utils\common.c **** 	}
 210              		.loc 1 332 3 is_stmt 1
 332:C:/Users/stapi/OneDrive/Desktop/GD32VW553/V1_MQTT_OK/GD32VW55X_Wifi_BLE_SDK/GD32VW55x_RELEASE_V1.0.2/MSDK/wpa_supplicant/src/utils\common.c **** 	}
 211              		.loc 1 332 7 is_stmt 0
 212 0060 2A94     		add	s0,s0,a0
 213              	.LVL18:
 325:C:/Users/stapi/OneDrive/Desktop/GD32VW553/V1_MQTT_OK/GD32VW55X_Wifi_BLE_SDK/GD32VW55x_RELEASE_V1.0.2/MSDK/wpa_supplicant/src/utils\common.c **** 		ret = os_snprintf(pos, end - pos, uppercase ? "%02X" : "%02x",
 214              		.loc 1 325 23 is_stmt 1
 215 0062 C1B7     		j	.L15
 216              	.LVL19:
 217              	.L18:
 218              		.cfi_def_cfa_offset 0
 219              		.cfi_restore 1
 220              		.cfi_restore 8
 221              		.cfi_restore 9
 222              		.cfi_restore 18
 223              		.cfi_restore 19
 224              		.cfi_restore 20
 225              		.cfi_restore 21
 226              		.cfi_restore 22
 324:C:/Users/stapi/OneDrive/Desktop/GD32VW553/V1_MQTT_OK/GD32VW55X_Wifi_BLE_SDK/GD32VW55x_RELEASE_V1.0.2/MSDK/wpa_supplicant/src/utils\common.c **** 	for (i = 0; i < len; i++) {
 227              		.loc 1 324 10 is_stmt 0
 228 0064 0145     		li	a0,0
 229              	.LVL20:
 336:C:/Users/stapi/OneDrive/Desktop/GD32VW553/V1_MQTT_OK/GD32VW55X_Wifi_BLE_SDK/GD32VW55x_RELEASE_V1.0.2/MSDK/wpa_supplicant/src/utils\common.c **** 
 230              		.loc 1 336 1
 231 0066 8280     		ret
 232              		.cfi_endproc
 233              	.LFE85:
 235              		.section	.text.hex2byte,"ax",@progbits
 236              		.align	1
 237              		.globl	hex2byte
 239              	hex2byte:
 240              	.LFB72:
  29:C:/Users/stapi/OneDrive/Desktop/GD32VW553/V1_MQTT_OK/GD32VW55X_Wifi_BLE_SDK/GD32VW55x_RELEASE_V1.0.2/MSDK/wpa_supplicant/src/utils\common.c **** 	int a, b;
 241              		.loc 1 29 1 is_stmt 1
 242              		.cfi_startproc
 243              	.LVL21:
 244 0000 17030000 		call	t0,__riscv_save_2
 244      E7020300 
 245              		.cfi_offset 9, -12
 246              		.cfi_offset 8, -8
 247              		.cfi_offset 1, -4
 248              		.cfi_def_cfa_offset 16
  30:C:/Users/stapi/OneDrive/Desktop/GD32VW553/V1_MQTT_OK/GD32VW55X_Wifi_BLE_SDK/GD32VW55x_RELEASE_V1.0.2/MSDK/wpa_supplicant/src/utils\common.c **** 	a = hex2num(*hex++);
 249              		.loc 1 30 2
  31:C:/Users/stapi/OneDrive/Desktop/GD32VW553/V1_MQTT_OK/GD32VW55X_Wifi_BLE_SDK/GD32VW55x_RELEASE_V1.0.2/MSDK/wpa_supplicant/src/utils\common.c **** 	if (a < 0)
 250              		.loc 1 31 2
 251              	.LVL22:
  29:C:/Users/stapi/OneDrive/Desktop/GD32VW553/V1_MQTT_OK/GD32VW55X_Wifi_BLE_SDK/GD32VW55x_RELEASE_V1.0.2/MSDK/wpa_supplicant/src/utils\common.c **** 	int a, b;
 252              		.loc 1 29 1 is_stmt 0
 253 0008 AA84     		mv	s1,a0
  31:C:/Users/stapi/OneDrive/Desktop/GD32VW553/V1_MQTT_OK/GD32VW55X_Wifi_BLE_SDK/GD32VW55x_RELEASE_V1.0.2/MSDK/wpa_supplicant/src/utils\common.c **** 	if (a < 0)
 254              		.loc 1 31 6
 255 000a 03050500 		lb	a0,0(a0)
 256              	.LVL23:
 257 000e 97000000 		call	hex2num
 257      E7800000 
 258              	.LVL24:
  32:C:/Users/stapi/OneDrive/Desktop/GD32VW553/V1_MQTT_OK/GD32VW55X_Wifi_BLE_SDK/GD32VW55x_RELEASE_V1.0.2/MSDK/wpa_supplicant/src/utils\common.c **** 		return -1;
 259              		.loc 1 32 2 is_stmt 1
  32:C:/Users/stapi/OneDrive/Desktop/GD32VW553/V1_MQTT_OK/GD32VW55X_Wifi_BLE_SDK/GD32VW55x_RELEASE_V1.0.2/MSDK/wpa_supplicant/src/utils\common.c **** 		return -1;
 260              		.loc 1 32 5 is_stmt 0
 261 0016 63440502 		blt	a0,zero,.L26
 262 001a 2A84     		mv	s0,a0
  34:C:/Users/stapi/OneDrive/Desktop/GD32VW553/V1_MQTT_OK/GD32VW55X_Wifi_BLE_SDK/GD32VW55x_RELEASE_V1.0.2/MSDK/wpa_supplicant/src/utils\common.c **** 	if (b < 0)
 263              		.loc 1 34 2 is_stmt 1
 264              	.LVL25:
  34:C:/Users/stapi/OneDrive/Desktop/GD32VW553/V1_MQTT_OK/GD32VW55X_Wifi_BLE_SDK/GD32VW55x_RELEASE_V1.0.2/MSDK/wpa_supplicant/src/utils\common.c **** 	if (b < 0)
 265              		.loc 1 34 6 is_stmt 0
 266 001c 03851400 		lb	a0,1(s1)
 267              	.LVL26:
 268 0020 97000000 		call	hex2num
 268      E7800000 
 269              	.LVL27:
 270 0028 AA87     		mv	a5,a0
 271              	.LVL28:
  35:C:/Users/stapi/OneDrive/Desktop/GD32VW553/V1_MQTT_OK/GD32VW55X_Wifi_BLE_SDK/GD32VW55x_RELEASE_V1.0.2/MSDK/wpa_supplicant/src/utils\common.c **** 		return -1;
 272              		.loc 1 35 2 is_stmt 1
  33:C:/Users/stapi/OneDrive/Desktop/GD32VW553/V1_MQTT_OK/GD32VW55X_Wifi_BLE_SDK/GD32VW55x_RELEASE_V1.0.2/MSDK/wpa_supplicant/src/utils\common.c **** 	b = hex2num(*hex++);
 273              		.loc 1 33 10 is_stmt 0
 274 002a 7D55     		li	a0,-1
 275              	.LVL29:
  35:C:/Users/stapi/OneDrive/Desktop/GD32VW553/V1_MQTT_OK/GD32VW55X_Wifi_BLE_SDK/GD32VW55x_RELEASE_V1.0.2/MSDK/wpa_supplicant/src/utils\common.c **** 		return -1;
 276              		.loc 1 35 5
 277 002c 63C50700 		blt	a5,zero,.L24
  37:C:/Users/stapi/OneDrive/Desktop/GD32VW553/V1_MQTT_OK/GD32VW55X_Wifi_BLE_SDK/GD32VW55x_RELEASE_V1.0.2/MSDK/wpa_supplicant/src/utils\common.c **** }
 278              		.loc 1 37 2 is_stmt 1
  37:C:/Users/stapi/OneDrive/Desktop/GD32VW553/V1_MQTT_OK/GD32VW55X_Wifi_BLE_SDK/GD32VW55x_RELEASE_V1.0.2/MSDK/wpa_supplicant/src/utils\common.c **** }
 279              		.loc 1 37 12 is_stmt 0
 280 0030 1204     		slli	s0,s0,4
 281              	.LVL30:
  37:C:/Users/stapi/OneDrive/Desktop/GD32VW553/V1_MQTT_OK/GD32VW55X_Wifi_BLE_SDK/GD32VW55x_RELEASE_V1.0.2/MSDK/wpa_supplicant/src/utils\common.c **** }
 282              		.loc 1 37 18
 283 0032 3365F400 		or	a0,s0,a5
 284              	.LVL31:
 285              	.L24:
  38:C:/Users/stapi/OneDrive/Desktop/GD32VW553/V1_MQTT_OK/GD32VW55X_Wifi_BLE_SDK/GD32VW55x_RELEASE_V1.0.2/MSDK/wpa_supplicant/src/utils\common.c **** 
 286              		.loc 1 38 1
 287 0036 17030000 		tail	__riscv_restore_2
 287      67000300 
 288              		.cfi_remember_state
 289              		.cfi_restore 9
 290              		.cfi_restore 8
 291              		.cfi_restore 1
 292              		.cfi_def_cfa_offset 0
 293              	.LVL32:
 294              	.L26:
 295              		.cfi_restore_state
  33:C:/Users/stapi/OneDrive/Desktop/GD32VW553/V1_MQTT_OK/GD32VW55X_Wifi_BLE_SDK/GD32VW55x_RELEASE_V1.0.2/MSDK/wpa_supplicant/src/utils\common.c **** 	b = hex2num(*hex++);
 296              		.loc 1 33 10
 297 003e 7D55     		li	a0,-1
 298              	.LVL33:
 299 0040 DDBF     		j	.L24
 300              		.cfi_endproc
 301              	.LFE72:
 303              		.section	.text.hwaddr_parse,"ax",@progbits
 304              		.align	1
 306              	hwaddr_parse:
 307              	.LFB73:
  42:C:/Users/stapi/OneDrive/Desktop/GD32VW553/V1_MQTT_OK/GD32VW55X_Wifi_BLE_SDK/GD32VW55x_RELEASE_V1.0.2/MSDK/wpa_supplicant/src/utils\common.c **** 	size_t i;
 308              		.loc 1 42 1 is_stmt 1
 309              		.cfi_startproc
 310              	.LVL34:
 311 0000 17030000 		call	t0,__riscv_save_6
 311      E7020300 
 312              		.cfi_offset 21, -28
 313              		.cfi_offset 20, -24
 314              		.cfi_offset 19, -20
 315              		.cfi_offset 18, -16
 316              		.cfi_offset 9, -12
 317              		.cfi_offset 8, -8
 318              		.cfi_offset 1, -4
 319              		.cfi_def_cfa_offset 32
  43:C:/Users/stapi/OneDrive/Desktop/GD32VW553/V1_MQTT_OK/GD32VW55X_Wifi_BLE_SDK/GD32VW55x_RELEASE_V1.0.2/MSDK/wpa_supplicant/src/utils\common.c **** 
 320              		.loc 1 43 2
  45:C:/Users/stapi/OneDrive/Desktop/GD32VW553/V1_MQTT_OK/GD32VW55X_Wifi_BLE_SDK/GD32VW55x_RELEASE_V1.0.2/MSDK/wpa_supplicant/src/utils\common.c **** 		int a;
 321              		.loc 1 45 2
 322              	.LVL35:
  45:C:/Users/stapi/OneDrive/Desktop/GD32VW553/V1_MQTT_OK/GD32VW55X_Wifi_BLE_SDK/GD32VW55x_RELEASE_V1.0.2/MSDK/wpa_supplicant/src/utils\common.c **** 		int a;
 323              		.loc 1 45 14
  42:C:/Users/stapi/OneDrive/Desktop/GD32VW553/V1_MQTT_OK/GD32VW55X_Wifi_BLE_SDK/GD32VW55x_RELEASE_V1.0.2/MSDK/wpa_supplicant/src/utils\common.c **** 	size_t i;
 324              		.loc 1 42 1 is_stmt 0
 325 0008 2E89     		mv	s2,a1
 326 000a 2A84     		mv	s0,a0
  45:C:/Users/stapi/OneDrive/Desktop/GD32VW553/V1_MQTT_OK/GD32VW55X_Wifi_BLE_SDK/GD32VW55x_RELEASE_V1.0.2/MSDK/wpa_supplicant/src/utils\common.c **** 		int a;
 327              		.loc 1 45 9
 328 000c 8144     		li	s1,0
 329              	.LBB13:
  53:C:/Users/stapi/OneDrive/Desktop/GD32VW553/V1_MQTT_OK/GD32VW55X_Wifi_BLE_SDK/GD32VW55x_RELEASE_V1.0.2/MSDK/wpa_supplicant/src/utils\common.c **** 			return NULL;
 330              		.loc 1 53 6
 331 000e 154A     		li	s4,5
  53:C:/Users/stapi/OneDrive/Desktop/GD32VW553/V1_MQTT_OK/GD32VW55X_Wifi_BLE_SDK/GD32VW55x_RELEASE_V1.0.2/MSDK/wpa_supplicant/src/utils\common.c **** 			return NULL;
 332              		.loc 1 53 24
 333 0010 930AA003 		li	s5,58
 334              	.LBE13:
  45:C:/Users/stapi/OneDrive/Desktop/GD32VW553/V1_MQTT_OK/GD32VW55X_Wifi_BLE_SDK/GD32VW55x_RELEASE_V1.0.2/MSDK/wpa_supplicant/src/utils\common.c **** 		int a;
 335              		.loc 1 45 2
 336 0014 9949     		li	s3,6
 337              	.LVL36:
 338              	.L33:
 339              	.LBB14:
  46:C:/Users/stapi/OneDrive/Desktop/GD32VW553/V1_MQTT_OK/GD32VW55X_Wifi_BLE_SDK/GD32VW55x_RELEASE_V1.0.2/MSDK/wpa_supplicant/src/utils\common.c **** 
 340              		.loc 1 46 3 is_stmt 1
  48:C:/Users/stapi/OneDrive/Desktop/GD32VW553/V1_MQTT_OK/GD32VW55X_Wifi_BLE_SDK/GD32VW55x_RELEASE_V1.0.2/MSDK/wpa_supplicant/src/utils\common.c **** 		if (a < 0)
 341              		.loc 1 48 3
  48:C:/Users/stapi/OneDrive/Desktop/GD32VW553/V1_MQTT_OK/GD32VW55X_Wifi_BLE_SDK/GD32VW55x_RELEASE_V1.0.2/MSDK/wpa_supplicant/src/utils\common.c **** 		if (a < 0)
 342              		.loc 1 48 7 is_stmt 0
 343 0016 2285     		mv	a0,s0
 344 0018 97000000 		call	hex2byte
 344      E7800000 
 345              	.LVL37:
  49:C:/Users/stapi/OneDrive/Desktop/GD32VW553/V1_MQTT_OK/GD32VW55X_Wifi_BLE_SDK/GD32VW55x_RELEASE_V1.0.2/MSDK/wpa_supplicant/src/utils\common.c **** 			return NULL;
 346              		.loc 1 49 3 is_stmt 1
  49:C:/Users/stapi/OneDrive/Desktop/GD32VW553/V1_MQTT_OK/GD32VW55X_Wifi_BLE_SDK/GD32VW55x_RELEASE_V1.0.2/MSDK/wpa_supplicant/src/utils\common.c **** 			return NULL;
 347              		.loc 1 49 6 is_stmt 0
 348 0020 63490502 		blt	a0,zero,.L30
  51:C:/Users/stapi/OneDrive/Desktop/GD32VW553/V1_MQTT_OK/GD32VW55X_Wifi_BLE_SDK/GD32VW55x_RELEASE_V1.0.2/MSDK/wpa_supplicant/src/utils\common.c **** 		addr[i] = a;
 349              		.loc 1 51 3 is_stmt 1
 350              	.LVL38:
  52:C:/Users/stapi/OneDrive/Desktop/GD32VW553/V1_MQTT_OK/GD32VW55X_Wifi_BLE_SDK/GD32VW55x_RELEASE_V1.0.2/MSDK/wpa_supplicant/src/utils\common.c **** 		if (i < ETH_ALEN - 1 && *txt++ != ':')
 351              		.loc 1 52 3
  52:C:/Users/stapi/OneDrive/Desktop/GD32VW553/V1_MQTT_OK/GD32VW55X_Wifi_BLE_SDK/GD32VW55x_RELEASE_V1.0.2/MSDK/wpa_supplicant/src/utils\common.c **** 		if (i < ETH_ALEN - 1 && *txt++ != ':')
 352              		.loc 1 52 11 is_stmt 0
 353 0024 B3079900 		add	a5,s2,s1
 354 0028 2380A700 		sb	a0,0(a5)
  53:C:/Users/stapi/OneDrive/Desktop/GD32VW553/V1_MQTT_OK/GD32VW55X_Wifi_BLE_SDK/GD32VW55x_RELEASE_V1.0.2/MSDK/wpa_supplicant/src/utils\common.c **** 			return NULL;
 355              		.loc 1 53 3 is_stmt 1
  53:C:/Users/stapi/OneDrive/Desktop/GD32VW553/V1_MQTT_OK/GD32VW55X_Wifi_BLE_SDK/GD32VW55x_RELEASE_V1.0.2/MSDK/wpa_supplicant/src/utils\common.c **** 			return NULL;
 356              		.loc 1 53 6 is_stmt 0
 357 002c 639B4401 		bne	s1,s4,.L31
  51:C:/Users/stapi/OneDrive/Desktop/GD32VW553/V1_MQTT_OK/GD32VW55X_Wifi_BLE_SDK/GD32VW55x_RELEASE_V1.0.2/MSDK/wpa_supplicant/src/utils\common.c **** 		addr[i] = a;
 358              		.loc 1 51 7
 359 0030 0904     		addi	s0,s0,2
 360              	.LVL39:
 361              	.L32:
 362              	.LBE14:
  45:C:/Users/stapi/OneDrive/Desktop/GD32VW553/V1_MQTT_OK/GD32VW55X_Wifi_BLE_SDK/GD32VW55x_RELEASE_V1.0.2/MSDK/wpa_supplicant/src/utils\common.c **** 		int a;
 363              		.loc 1 45 28 is_stmt 1 discriminator 2
  45:C:/Users/stapi/OneDrive/Desktop/GD32VW553/V1_MQTT_OK/GD32VW55X_Wifi_BLE_SDK/GD32VW55x_RELEASE_V1.0.2/MSDK/wpa_supplicant/src/utils\common.c **** 		int a;
 364              		.loc 1 45 29 is_stmt 0 discriminator 2
 365 0032 8504     		addi	s1,s1,1
 366              	.LVL40:
  45:C:/Users/stapi/OneDrive/Desktop/GD32VW553/V1_MQTT_OK/GD32VW55X_Wifi_BLE_SDK/GD32VW55x_RELEASE_V1.0.2/MSDK/wpa_supplicant/src/utils\common.c **** 		int a;
 367              		.loc 1 45 14 is_stmt 1 discriminator 2
  45:C:/Users/stapi/OneDrive/Desktop/GD32VW553/V1_MQTT_OK/GD32VW55X_Wifi_BLE_SDK/GD32VW55x_RELEASE_V1.0.2/MSDK/wpa_supplicant/src/utils\common.c **** 		int a;
 368              		.loc 1 45 2 is_stmt 0 discriminator 2
 369 0034 E39134FF 		bne	s1,s3,.L33
 370              	.LVL41:
 371              	.L29:
  57:C:/Users/stapi/OneDrive/Desktop/GD32VW553/V1_MQTT_OK/GD32VW55X_Wifi_BLE_SDK/GD32VW55x_RELEASE_V1.0.2/MSDK/wpa_supplicant/src/utils\common.c **** 
 372              		.loc 1 57 1
 373 0038 2285     		mv	a0,s0
 374              	.LVL42:
 375 003a 17030000 		tail	__riscv_restore_6
 375      67000300 
 376              		.cfi_remember_state
 377              		.cfi_restore 21
 378              		.cfi_restore 20
 379              		.cfi_restore 19
 380              		.cfi_restore 18
 381              		.cfi_restore 9
 382              		.cfi_restore 8
 383              		.cfi_restore 1
 384              		.cfi_def_cfa_offset 0
 385              	.LVL43:
 386              	.L31:
 387              		.cfi_restore_state
 388              	.LBB15:
  53:C:/Users/stapi/OneDrive/Desktop/GD32VW553/V1_MQTT_OK/GD32VW55X_Wifi_BLE_SDK/GD32VW55x_RELEASE_V1.0.2/MSDK/wpa_supplicant/src/utils\common.c **** 			return NULL;
 389              		.loc 1 53 31 discriminator 1
 390 0042 93073400 		addi	a5,s0,3
 391              	.LVL44:
  53:C:/Users/stapi/OneDrive/Desktop/GD32VW553/V1_MQTT_OK/GD32VW55X_Wifi_BLE_SDK/GD32VW55x_RELEASE_V1.0.2/MSDK/wpa_supplicant/src/utils\common.c **** 			return NULL;
 392              		.loc 1 53 24 discriminator 1
 393 0046 03072400 		lb	a4,2(s0)
 394 004a 63145701 		bne	a4,s5,.L30
  53:C:/Users/stapi/OneDrive/Desktop/GD32VW553/V1_MQTT_OK/GD32VW55X_Wifi_BLE_SDK/GD32VW55x_RELEASE_V1.0.2/MSDK/wpa_supplicant/src/utils\common.c **** 			return NULL;
 395              		.loc 1 53 31
 396 004e 3E84     		mv	s0,a5
 397 0050 CDB7     		j	.L32
 398              	.LVL45:
 399              	.L30:
  50:C:/Users/stapi/OneDrive/Desktop/GD32VW553/V1_MQTT_OK/GD32VW55X_Wifi_BLE_SDK/GD32VW55x_RELEASE_V1.0.2/MSDK/wpa_supplicant/src/utils\common.c **** 		txt += 2;
 400              		.loc 1 50 11
 401 0052 0144     		li	s0,0
 402 0054 D5B7     		j	.L29
 403              	.LBE15:
 404              		.cfi_endproc
 405              	.LFE73:
 407              		.section	.text.hwaddr_aton,"ax",@progbits
 408              		.align	1
 409              		.globl	hwaddr_aton
 411              	hwaddr_aton:
 412              	.LFB74:
  67:C:/Users/stapi/OneDrive/Desktop/GD32VW553/V1_MQTT_OK/GD32VW55X_Wifi_BLE_SDK/GD32VW55x_RELEASE_V1.0.2/MSDK/wpa_supplicant/src/utils\common.c **** 	return hwaddr_parse(txt, addr) ? 0 : -1;
 413              		.loc 1 67 1 is_stmt 1
 414              		.cfi_startproc
 415              	.LVL46:
 416 0000 17030000 		call	t0,__riscv_save_0
 416      E7020300 
 417              		.cfi_offset 1, -4
 418              		.cfi_def_cfa_offset 16
  68:C:/Users/stapi/OneDrive/Desktop/GD32VW553/V1_MQTT_OK/GD32VW55X_Wifi_BLE_SDK/GD32VW55x_RELEASE_V1.0.2/MSDK/wpa_supplicant/src/utils\common.c **** }
 419              		.loc 1 68 2
  68:C:/Users/stapi/OneDrive/Desktop/GD32VW553/V1_MQTT_OK/GD32VW55X_Wifi_BLE_SDK/GD32VW55x_RELEASE_V1.0.2/MSDK/wpa_supplicant/src/utils\common.c **** }
 420              		.loc 1 68 9 is_stmt 0
 421 0008 97000000 		call	hwaddr_parse
 421      E7800000 
 422              	.LVL47:
  68:C:/Users/stapi/OneDrive/Desktop/GD32VW553/V1_MQTT_OK/GD32VW55X_Wifi_BLE_SDK/GD32VW55x_RELEASE_V1.0.2/MSDK/wpa_supplicant/src/utils\common.c **** }
 423              		.loc 1 68 37
 424 0010 13351500 		seqz	a0,a0
  69:C:/Users/stapi/OneDrive/Desktop/GD32VW553/V1_MQTT_OK/GD32VW55X_Wifi_BLE_SDK/GD32VW55x_RELEASE_V1.0.2/MSDK/wpa_supplicant/src/utils\common.c **** 
 425              		.loc 1 69 1
 426 0014 3305A040 		neg	a0,a0
 427 0018 17030000 		tail	__riscv_restore_0
 427      67000300 
 428              		.cfi_restore 1
 429              		.cfi_def_cfa_offset 0
 430              		.cfi_endproc
 431              	.LFE74:
 433              		.section	.text.hwaddr_masked_aton,"ax",@progbits
 434              		.align	1
 435              		.globl	hwaddr_masked_aton
 437              	hwaddr_masked_aton:
 438              	.LFB75:
  81:C:/Users/stapi/OneDrive/Desktop/GD32VW553/V1_MQTT_OK/GD32VW55X_Wifi_BLE_SDK/GD32VW55x_RELEASE_V1.0.2/MSDK/wpa_supplicant/src/utils\common.c **** 	const char *r;
 439              		.loc 1 81 1 is_stmt 1
 440              		.cfi_startproc
 441              	.LVL48:
 442 0000 17030000 		call	t0,__riscv_save_2
 442      E7020300 
 443              		.cfi_offset 9, -12
 444              		.cfi_offset 8, -8
 445              		.cfi_offset 1, -4
 446              		.cfi_def_cfa_offset 16
  82:C:/Users/stapi/OneDrive/Desktop/GD32VW553/V1_MQTT_OK/GD32VW55X_Wifi_BLE_SDK/GD32VW55x_RELEASE_V1.0.2/MSDK/wpa_supplicant/src/utils\common.c **** 
 447              		.loc 1 82 2
  85:C:/Users/stapi/OneDrive/Desktop/GD32VW553/V1_MQTT_OK/GD32VW55X_Wifi_BLE_SDK/GD32VW55x_RELEASE_V1.0.2/MSDK/wpa_supplicant/src/utils\common.c **** 	if (!r)
 448              		.loc 1 85 2
  81:C:/Users/stapi/OneDrive/Desktop/GD32VW553/V1_MQTT_OK/GD32VW55X_Wifi_BLE_SDK/GD32VW55x_RELEASE_V1.0.2/MSDK/wpa_supplicant/src/utils\common.c **** 	const char *r;
 449              		.loc 1 81 1 is_stmt 0
 450 0008 3284     		mv	s0,a2
 451 000a B684     		mv	s1,a3
  85:C:/Users/stapi/OneDrive/Desktop/GD32VW553/V1_MQTT_OK/GD32VW55X_Wifi_BLE_SDK/GD32VW55x_RELEASE_V1.0.2/MSDK/wpa_supplicant/src/utils\common.c **** 	if (!r)
 452              		.loc 1 85 6
 453 000c 97000000 		call	hwaddr_parse
 453      E7800000 
 454              	.LVL49:
  86:C:/Users/stapi/OneDrive/Desktop/GD32VW553/V1_MQTT_OK/GD32VW55X_Wifi_BLE_SDK/GD32VW55x_RELEASE_V1.0.2/MSDK/wpa_supplicant/src/utils\common.c **** 		return -1;
 455              		.loc 1 86 2 is_stmt 1
  86:C:/Users/stapi/OneDrive/Desktop/GD32VW553/V1_MQTT_OK/GD32VW55X_Wifi_BLE_SDK/GD32VW55x_RELEASE_V1.0.2/MSDK/wpa_supplicant/src/utils\common.c **** 		return -1;
 456              		.loc 1 86 5 is_stmt 0
 457 0014 39CD     		beq	a0,zero,.L43
 458 0016 AA87     		mv	a5,a0
  90:C:/Users/stapi/OneDrive/Desktop/GD32VW553/V1_MQTT_OK/GD32VW55X_Wifi_BLE_SDK/GD32VW55x_RELEASE_V1.0.2/MSDK/wpa_supplicant/src/utils\common.c **** 		/* no mask specified, assume default */
 459              		.loc 1 90 2 is_stmt 1
  90:C:/Users/stapi/OneDrive/Desktop/GD32VW553/V1_MQTT_OK/GD32VW55X_Wifi_BLE_SDK/GD32VW55x_RELEASE_V1.0.2/MSDK/wpa_supplicant/src/utils\common.c **** 		/* no mask specified, assume default */
 460              		.loc 1 90 6 is_stmt 0
 461 0018 03060500 		lb	a2,0(a0)
  90:C:/Users/stapi/OneDrive/Desktop/GD32VW553/V1_MQTT_OK/GD32VW55X_Wifi_BLE_SDK/GD32VW55x_RELEASE_V1.0.2/MSDK/wpa_supplicant/src/utils\common.c **** 		/* no mask specified, assume default */
 462              		.loc 1 90 5
 463 001c 01CE     		beq	a2,zero,.L41
  90:C:/Users/stapi/OneDrive/Desktop/GD32VW553/V1_MQTT_OK/GD32VW55X_Wifi_BLE_SDK/GD32VW55x_RELEASE_V1.0.2/MSDK/wpa_supplicant/src/utils\common.c **** 		/* no mask specified, assume default */
 464              		.loc 1 90 20 discriminator 1
 465 001e B7060000 		lui	a3,%hi(_ctype_+1)
 466 0022 1377F60F 		andi	a4,a2,0xff
 467 0026 93861600 		addi	a3,a3,%lo(_ctype_+1)
 468 002a 3697     		add	a4,a4,a3
  90:C:/Users/stapi/OneDrive/Desktop/GD32VW553/V1_MQTT_OK/GD32VW55X_Wifi_BLE_SDK/GD32VW55x_RELEASE_V1.0.2/MSDK/wpa_supplicant/src/utils\common.c **** 		/* no mask specified, assume default */
 469              		.loc 1 90 17 discriminator 1
 470 002c 03470700 		lbu	a4,0(a4)
 471 0030 218B     		andi	a4,a4,8
 472 0032 11CF     		beq	a4,zero,.L42
 473              	.L41:
  92:C:/Users/stapi/OneDrive/Desktop/GD32VW553/V1_MQTT_OK/GD32VW55X_Wifi_BLE_SDK/GD32VW55x_RELEASE_V1.0.2/MSDK/wpa_supplicant/src/utils\common.c **** 	} else if (maskable && *r == '/') {
 474              		.loc 1 92 3 is_stmt 1
 475 0034 1946     		li	a2,6
 476 0036 9305F00F 		li	a1,255
 477 003a 2285     		mv	a0,s0
 478              	.LVL50:
 479 003c 97000000 		call	os_memset
 479      E7800000 
 480              	.LVL51:
 104:C:/Users/stapi/OneDrive/Desktop/GD32VW553/V1_MQTT_OK/GD32VW55X_Wifi_BLE_SDK/GD32VW55x_RELEASE_V1.0.2/MSDK/wpa_supplicant/src/utils\common.c **** }
 481              		.loc 1 104 9 is_stmt 0
 482 0044 0145     		li	a0,0
 483              	.L39:
 105:C:/Users/stapi/OneDrive/Desktop/GD32VW553/V1_MQTT_OK/GD32VW55X_Wifi_BLE_SDK/GD32VW55x_RELEASE_V1.0.2/MSDK/wpa_supplicant/src/utils\common.c **** 
 484              		.loc 1 105 1
 485 0046 17030000 		tail	__riscv_restore_2
 485      67000300 
 486              		.cfi_remember_state
 487              		.cfi_restore 9
 488              		.cfi_restore 8
 489              		.cfi_restore 1
 490              		.cfi_def_cfa_offset 0
 491              	.LVL52:
 492              	.L42:
 493              		.cfi_restore_state
  93:C:/Users/stapi/OneDrive/Desktop/GD32VW553/V1_MQTT_OK/GD32VW55X_Wifi_BLE_SDK/GD32VW55x_RELEASE_V1.0.2/MSDK/wpa_supplicant/src/utils\common.c **** 		/* mask specified and allowed */
 494              		.loc 1 93 9 is_stmt 1
  87:C:/Users/stapi/OneDrive/Desktop/GD32VW553/V1_MQTT_OK/GD32VW55X_Wifi_BLE_SDK/GD32VW55x_RELEASE_V1.0.2/MSDK/wpa_supplicant/src/utils\common.c **** 
 495              		.loc 1 87 10 is_stmt 0
 496 004e 7D55     		li	a0,-1
 497              	.LVL53:
  93:C:/Users/stapi/OneDrive/Desktop/GD32VW553/V1_MQTT_OK/GD32VW55X_Wifi_BLE_SDK/GD32VW55x_RELEASE_V1.0.2/MSDK/wpa_supplicant/src/utils\common.c **** 		/* mask specified and allowed */
 498              		.loc 1 93 12
 499 0050 FDD8     		beq	s1,zero,.L39
  93:C:/Users/stapi/OneDrive/Desktop/GD32VW553/V1_MQTT_OK/GD32VW55X_Wifi_BLE_SDK/GD32VW55x_RELEASE_V1.0.2/MSDK/wpa_supplicant/src/utils\common.c **** 		/* mask specified and allowed */
 500              		.loc 1 93 22 discriminator 1
 501 0052 1307F002 		li	a4,47
 502 0056 E318E6FE 		bne	a2,a4,.L39
  95:C:/Users/stapi/OneDrive/Desktop/GD32VW553/V1_MQTT_OK/GD32VW55X_Wifi_BLE_SDK/GD32VW55x_RELEASE_V1.0.2/MSDK/wpa_supplicant/src/utils\common.c **** 		/* parser error? */
 503              		.loc 1 95 3 is_stmt 1
  95:C:/Users/stapi/OneDrive/Desktop/GD32VW553/V1_MQTT_OK/GD32VW55X_Wifi_BLE_SDK/GD32VW55x_RELEASE_V1.0.2/MSDK/wpa_supplicant/src/utils\common.c **** 		/* parser error? */
 504              		.loc 1 95 7 is_stmt 0
 505 005a A285     		mv	a1,s0
 506 005c 13851700 		addi	a0,a5,1
 507 0060 97000000 		call	hwaddr_parse
 507      E7800000 
 508              	.LVL54:
  97:C:/Users/stapi/OneDrive/Desktop/GD32VW553/V1_MQTT_OK/GD32VW55X_Wifi_BLE_SDK/GD32VW55x_RELEASE_V1.0.2/MSDK/wpa_supplicant/src/utils\common.c **** 			return -1;
 509              		.loc 1 97 3 is_stmt 1
  97:C:/Users/stapi/OneDrive/Desktop/GD32VW553/V1_MQTT_OK/GD32VW55X_Wifi_BLE_SDK/GD32VW55x_RELEASE_V1.0.2/MSDK/wpa_supplicant/src/utils\common.c **** 			return -1;
 510              		.loc 1 97 6 is_stmt 0
 511 0068 13351500 		seqz	a0,a0
 512              	.LVL55:
 513 006c 3305A040 		neg	a0,a0
 514 0070 D9BF     		j	.L39
 515              	.LVL56:
 516              	.L43:
  87:C:/Users/stapi/OneDrive/Desktop/GD32VW553/V1_MQTT_OK/GD32VW55X_Wifi_BLE_SDK/GD32VW55x_RELEASE_V1.0.2/MSDK/wpa_supplicant/src/utils\common.c **** 
 517              		.loc 1 87 10
 518 0072 7D55     		li	a0,-1
 519              	.LVL57:
 520 0074 C9BF     		j	.L39
 521              		.cfi_endproc
 522              	.LFE75:
 524              		.section	.text.hwaddr_compact_aton,"ax",@progbits
 525              		.align	1
 526              		.globl	hwaddr_compact_aton
 528              	hwaddr_compact_aton:
 529              	.LFB76:
 115:C:/Users/stapi/OneDrive/Desktop/GD32VW553/V1_MQTT_OK/GD32VW55X_Wifi_BLE_SDK/GD32VW55x_RELEASE_V1.0.2/MSDK/wpa_supplicant/src/utils\common.c **** 	int i;
 530              		.loc 1 115 1 is_stmt 1
 531              		.cfi_startproc
 532              	.LVL58:
 533 0000 17030000 		call	t0,__riscv_save_5
 533      E7020300 
 534              		.cfi_offset 20, -24
 535              		.cfi_offset 19, -20
 536              		.cfi_offset 18, -16
 537              		.cfi_offset 9, -12
 538              		.cfi_offset 8, -8
 539              		.cfi_offset 1, -4
 540              		.cfi_def_cfa_offset 32
 116:C:/Users/stapi/OneDrive/Desktop/GD32VW553/V1_MQTT_OK/GD32VW55X_Wifi_BLE_SDK/GD32VW55x_RELEASE_V1.0.2/MSDK/wpa_supplicant/src/utils\common.c **** 
 541              		.loc 1 116 2
 118:C:/Users/stapi/OneDrive/Desktop/GD32VW553/V1_MQTT_OK/GD32VW55X_Wifi_BLE_SDK/GD32VW55x_RELEASE_V1.0.2/MSDK/wpa_supplicant/src/utils\common.c **** 		int a, b;
 542              		.loc 1 118 2
 543              	.LVL59:
 115:C:/Users/stapi/OneDrive/Desktop/GD32VW553/V1_MQTT_OK/GD32VW55X_Wifi_BLE_SDK/GD32VW55x_RELEASE_V1.0.2/MSDK/wpa_supplicant/src/utils\common.c **** 	int i;
 544              		.loc 1 115 1 is_stmt 0
 545 0008 AA84     		mv	s1,a0
 546 000a AE89     		mv	s3,a1
 118:C:/Users/stapi/OneDrive/Desktop/GD32VW553/V1_MQTT_OK/GD32VW55X_Wifi_BLE_SDK/GD32VW55x_RELEASE_V1.0.2/MSDK/wpa_supplicant/src/utils\common.c **** 		int a, b;
 547              		.loc 1 118 14 is_stmt 1
 118:C:/Users/stapi/OneDrive/Desktop/GD32VW553/V1_MQTT_OK/GD32VW55X_Wifi_BLE_SDK/GD32VW55x_RELEASE_V1.0.2/MSDK/wpa_supplicant/src/utils\common.c **** 		int a, b;
 548              		.loc 1 118 9 is_stmt 0
 549 000c 0149     		li	s2,0
 118:C:/Users/stapi/OneDrive/Desktop/GD32VW553/V1_MQTT_OK/GD32VW55X_Wifi_BLE_SDK/GD32VW55x_RELEASE_V1.0.2/MSDK/wpa_supplicant/src/utils\common.c **** 		int a, b;
 550              		.loc 1 118 2
 551 000e 194A     		li	s4,6
 552              	.LVL60:
 553              	.L52:
 554              	.LBB16:
 119:C:/Users/stapi/OneDrive/Desktop/GD32VW553/V1_MQTT_OK/GD32VW55X_Wifi_BLE_SDK/GD32VW55x_RELEASE_V1.0.2/MSDK/wpa_supplicant/src/utils\common.c **** 
 555              		.loc 1 119 3 is_stmt 1
 121:C:/Users/stapi/OneDrive/Desktop/GD32VW553/V1_MQTT_OK/GD32VW55X_Wifi_BLE_SDK/GD32VW55x_RELEASE_V1.0.2/MSDK/wpa_supplicant/src/utils\common.c **** 		if (a < 0)
 556              		.loc 1 121 3
 121:C:/Users/stapi/OneDrive/Desktop/GD32VW553/V1_MQTT_OK/GD32VW55X_Wifi_BLE_SDK/GD32VW55x_RELEASE_V1.0.2/MSDK/wpa_supplicant/src/utils\common.c **** 		if (a < 0)
 557              		.loc 1 121 7 is_stmt 0
 558 0010 03850400 		lb	a0,0(s1)
 559 0014 97000000 		call	hex2num
 559      E7800000 
 560              	.LVL61:
 561 001c 2A84     		mv	s0,a0
 562              	.LVL62:
 122:C:/Users/stapi/OneDrive/Desktop/GD32VW553/V1_MQTT_OK/GD32VW55X_Wifi_BLE_SDK/GD32VW55x_RELEASE_V1.0.2/MSDK/wpa_supplicant/src/utils\common.c **** 			return -1;
 563              		.loc 1 122 3 is_stmt 1
 122:C:/Users/stapi/OneDrive/Desktop/GD32VW553/V1_MQTT_OK/GD32VW55X_Wifi_BLE_SDK/GD32VW55x_RELEASE_V1.0.2/MSDK/wpa_supplicant/src/utils\common.c **** 			return -1;
 564              		.loc 1 122 6 is_stmt 0
 565 001e 63490502 		blt	a0,zero,.L54
 124:C:/Users/stapi/OneDrive/Desktop/GD32VW553/V1_MQTT_OK/GD32VW55X_Wifi_BLE_SDK/GD32VW55x_RELEASE_V1.0.2/MSDK/wpa_supplicant/src/utils\common.c **** 		if (b < 0)
 566              		.loc 1 124 3 is_stmt 1
 567 0022 8904     		addi	s1,s1,2
 568              	.LVL63:
 124:C:/Users/stapi/OneDrive/Desktop/GD32VW553/V1_MQTT_OK/GD32VW55X_Wifi_BLE_SDK/GD32VW55x_RELEASE_V1.0.2/MSDK/wpa_supplicant/src/utils\common.c **** 		if (b < 0)
 569              		.loc 1 124 7 is_stmt 0
 570 0024 0385F4FF 		lb	a0,-1(s1)
 571 0028 97000000 		call	hex2num
 571      E7800000 
 572              	.LVL64:
 125:C:/Users/stapi/OneDrive/Desktop/GD32VW553/V1_MQTT_OK/GD32VW55X_Wifi_BLE_SDK/GD32VW55x_RELEASE_V1.0.2/MSDK/wpa_supplicant/src/utils\common.c **** 			return -1;
 573              		.loc 1 125 3 is_stmt 1
 125:C:/Users/stapi/OneDrive/Desktop/GD32VW553/V1_MQTT_OK/GD32VW55X_Wifi_BLE_SDK/GD32VW55x_RELEASE_V1.0.2/MSDK/wpa_supplicant/src/utils\common.c **** 			return -1;
 574              		.loc 1 125 6 is_stmt 0
 575 0030 63400502 		blt	a0,zero,.L54
 127:C:/Users/stapi/OneDrive/Desktop/GD32VW553/V1_MQTT_OK/GD32VW55X_Wifi_BLE_SDK/GD32VW55x_RELEASE_V1.0.2/MSDK/wpa_supplicant/src/utils\common.c **** 	}
 576              		.loc 1 127 3 is_stmt 1 discriminator 2
 577              	.LVL65:
 127:C:/Users/stapi/OneDrive/Desktop/GD32VW553/V1_MQTT_OK/GD32VW55X_Wifi_BLE_SDK/GD32VW55x_RELEASE_V1.0.2/MSDK/wpa_supplicant/src/utils\common.c **** 	}
 578              		.loc 1 127 16 is_stmt 0 discriminator 2
 579 0034 1204     		slli	s0,s0,4
 580              	.LVL66:
 127:C:/Users/stapi/OneDrive/Desktop/GD32VW553/V1_MQTT_OK/GD32VW55X_Wifi_BLE_SDK/GD32VW55x_RELEASE_V1.0.2/MSDK/wpa_supplicant/src/utils\common.c **** 	}
 581              		.loc 1 127 11 discriminator 2
 582 0036 B3872901 		add	a5,s3,s2
 127:C:/Users/stapi/OneDrive/Desktop/GD32VW553/V1_MQTT_OK/GD32VW55X_Wifi_BLE_SDK/GD32VW55x_RELEASE_V1.0.2/MSDK/wpa_supplicant/src/utils\common.c **** 	}
 583              		.loc 1 127 22 discriminator 2
 584 003a 498C     		or	s0,s0,a0
 127:C:/Users/stapi/OneDrive/Desktop/GD32VW553/V1_MQTT_OK/GD32VW55X_Wifi_BLE_SDK/GD32VW55x_RELEASE_V1.0.2/MSDK/wpa_supplicant/src/utils\common.c **** 	}
 585              		.loc 1 127 11 discriminator 2
 586 003c 23808700 		sb	s0,0(a5)
 587              	.LBE16:
 118:C:/Users/stapi/OneDrive/Desktop/GD32VW553/V1_MQTT_OK/GD32VW55X_Wifi_BLE_SDK/GD32VW55x_RELEASE_V1.0.2/MSDK/wpa_supplicant/src/utils\common.c **** 		int a, b;
 588              		.loc 1 118 21 is_stmt 1 discriminator 2
 118:C:/Users/stapi/OneDrive/Desktop/GD32VW553/V1_MQTT_OK/GD32VW55X_Wifi_BLE_SDK/GD32VW55x_RELEASE_V1.0.2/MSDK/wpa_supplicant/src/utils\common.c **** 		int a, b;
 589              		.loc 1 118 22 is_stmt 0 discriminator 2
 590 0040 0509     		addi	s2,s2,1
 591              	.LVL67:
 118:C:/Users/stapi/OneDrive/Desktop/GD32VW553/V1_MQTT_OK/GD32VW55X_Wifi_BLE_SDK/GD32VW55x_RELEASE_V1.0.2/MSDK/wpa_supplicant/src/utils\common.c **** 		int a, b;
 592              		.loc 1 118 14 is_stmt 1 discriminator 2
 118:C:/Users/stapi/OneDrive/Desktop/GD32VW553/V1_MQTT_OK/GD32VW55X_Wifi_BLE_SDK/GD32VW55x_RELEASE_V1.0.2/MSDK/wpa_supplicant/src/utils\common.c **** 		int a, b;
 593              		.loc 1 118 2 is_stmt 0 discriminator 2
 594 0042 E31749FD 		bne	s2,s4,.L52
 130:C:/Users/stapi/OneDrive/Desktop/GD32VW553/V1_MQTT_OK/GD32VW55X_Wifi_BLE_SDK/GD32VW55x_RELEASE_V1.0.2/MSDK/wpa_supplicant/src/utils\common.c **** }
 595              		.loc 1 130 9
 596 0046 0145     		li	a0,0
 597              	.LVL68:
 598              	.L50:
 131:C:/Users/stapi/OneDrive/Desktop/GD32VW553/V1_MQTT_OK/GD32VW55X_Wifi_BLE_SDK/GD32VW55x_RELEASE_V1.0.2/MSDK/wpa_supplicant/src/utils\common.c **** 
 599              		.loc 1 131 1
 600 0048 17030000 		tail	__riscv_restore_5
 600      67000300 
 601              		.cfi_remember_state
 602              		.cfi_restore 20
 603              		.cfi_restore 19
 604              		.cfi_restore 18
 605              		.cfi_restore 9
 606              		.cfi_restore 8
 607              		.cfi_restore 1
 608              		.cfi_def_cfa_offset 0
 609              	.LVL69:
 610              	.L54:
 611              		.cfi_restore_state
 612              	.LBB17:
 123:C:/Users/stapi/OneDrive/Desktop/GD32VW553/V1_MQTT_OK/GD32VW55X_Wifi_BLE_SDK/GD32VW55x_RELEASE_V1.0.2/MSDK/wpa_supplicant/src/utils\common.c **** 		b = hex2num(*txt++);
 613              		.loc 1 123 11
 614 0050 7D55     		li	a0,-1
 615 0052 DDBF     		j	.L50
 616              	.LBE17:
 617              		.cfi_endproc
 618              	.LFE76:
 620              		.section	.text.hwaddr_aton2,"ax",@progbits
 621              		.align	1
 622              		.globl	hwaddr_aton2
 624              	hwaddr_aton2:
 625              	.LFB77:
 140:C:/Users/stapi/OneDrive/Desktop/GD32VW553/V1_MQTT_OK/GD32VW55X_Wifi_BLE_SDK/GD32VW55x_RELEASE_V1.0.2/MSDK/wpa_supplicant/src/utils\common.c **** 	int i;
 626              		.loc 1 140 1 is_stmt 1
 627              		.cfi_startproc
 628              	.LVL70:
 629 0000 17030000 		call	t0,__riscv_save_9
 629      E7020300 
 630              		.cfi_offset 24, -40
 631              		.cfi_offset 23, -36
 632              		.cfi_offset 22, -32
 633              		.cfi_offset 21, -28
 634              		.cfi_offset 20, -24
 635              		.cfi_offset 19, -20
 636              		.cfi_offset 18, -16
 637              		.cfi_offset 9, -12
 638              		.cfi_offset 8, -8
 639              		.cfi_offset 1, -4
 640              		.cfi_def_cfa_offset 48
 141:C:/Users/stapi/OneDrive/Desktop/GD32VW553/V1_MQTT_OK/GD32VW55X_Wifi_BLE_SDK/GD32VW55x_RELEASE_V1.0.2/MSDK/wpa_supplicant/src/utils\common.c **** 	const char *pos = txt;
 641              		.loc 1 141 2
 142:C:/Users/stapi/OneDrive/Desktop/GD32VW553/V1_MQTT_OK/GD32VW55X_Wifi_BLE_SDK/GD32VW55x_RELEASE_V1.0.2/MSDK/wpa_supplicant/src/utils\common.c **** 
 642              		.loc 1 142 2
 643              	.LVL71:
 144:C:/Users/stapi/OneDrive/Desktop/GD32VW553/V1_MQTT_OK/GD32VW55X_Wifi_BLE_SDK/GD32VW55x_RELEASE_V1.0.2/MSDK/wpa_supplicant/src/utils\common.c **** 		int a, b;
 644              		.loc 1 144 2
 140:C:/Users/stapi/OneDrive/Desktop/GD32VW553/V1_MQTT_OK/GD32VW55X_Wifi_BLE_SDK/GD32VW55x_RELEASE_V1.0.2/MSDK/wpa_supplicant/src/utils\common.c **** 	int i;
 645              		.loc 1 140 1 is_stmt 0
 646 0008 AA89     		mv	s3,a0
 647 000a AE8A     		mv	s5,a1
 144:C:/Users/stapi/OneDrive/Desktop/GD32VW553/V1_MQTT_OK/GD32VW55X_Wifi_BLE_SDK/GD32VW55x_RELEASE_V1.0.2/MSDK/wpa_supplicant/src/utils\common.c **** 		int a, b;
 648              		.loc 1 144 14 is_stmt 1
 142:C:/Users/stapi/OneDrive/Desktop/GD32VW553/V1_MQTT_OK/GD32VW55X_Wifi_BLE_SDK/GD32VW55x_RELEASE_V1.0.2/MSDK/wpa_supplicant/src/utils\common.c **** 
 649              		.loc 1 142 14 is_stmt 0
 650 000c AA84     		mv	s1,a0
 144:C:/Users/stapi/OneDrive/Desktop/GD32VW553/V1_MQTT_OK/GD32VW55X_Wifi_BLE_SDK/GD32VW55x_RELEASE_V1.0.2/MSDK/wpa_supplicant/src/utils\common.c **** 		int a, b;
 651              		.loc 1 144 9
 652 000e 014A     		li	s4,0
 653              	.LBB18:
 147:C:/Users/stapi/OneDrive/Desktop/GD32VW553/V1_MQTT_OK/GD32VW55X_Wifi_BLE_SDK/GD32VW55x_RELEASE_V1.0.2/MSDK/wpa_supplicant/src/utils\common.c **** 			pos++;
 654              		.loc 1 147 9
 655 0010 130BA003 		li	s6,58
 147:C:/Users/stapi/OneDrive/Desktop/GD32VW553/V1_MQTT_OK/GD32VW55X_Wifi_BLE_SDK/GD32VW55x_RELEASE_V1.0.2/MSDK/wpa_supplicant/src/utils\common.c **** 			pos++;
 656              		.loc 1 147 37
 657 0014 854B     		li	s7,1
 658              	.LBE18:
 144:C:/Users/stapi/OneDrive/Desktop/GD32VW553/V1_MQTT_OK/GD32VW55X_Wifi_BLE_SDK/GD32VW55x_RELEASE_V1.0.2/MSDK/wpa_supplicant/src/utils\common.c **** 		int a, b;
 659              		.loc 1 144 2
 660 0016 194C     		li	s8,6
 661              	.LVL72:
 662              	.L58:
 140:C:/Users/stapi/OneDrive/Desktop/GD32VW553/V1_MQTT_OK/GD32VW55X_Wifi_BLE_SDK/GD32VW55x_RELEASE_V1.0.2/MSDK/wpa_supplicant/src/utils\common.c **** 	int i;
 663              		.loc 1 140 1
 664 0018 2689     		mv	s2,s1
 665 001a 11A0     		j	.L62
 666              	.LVL73:
 667              	.L59:
 668              	.LBB19:
 148:C:/Users/stapi/OneDrive/Desktop/GD32VW553/V1_MQTT_OK/GD32VW55X_Wifi_BLE_SDK/GD32VW55x_RELEASE_V1.0.2/MSDK/wpa_supplicant/src/utils\common.c **** 
 669              		.loc 1 148 4 is_stmt 1
 148:C:/Users/stapi/OneDrive/Desktop/GD32VW553/V1_MQTT_OK/GD32VW55X_Wifi_BLE_SDK/GD32VW55x_RELEASE_V1.0.2/MSDK/wpa_supplicant/src/utils\common.c **** 
 670              		.loc 1 148 7 is_stmt 0
 671 001c 0509     		addi	s2,s2,1
 672              	.LVL74:
 673              	.L62:
 147:C:/Users/stapi/OneDrive/Desktop/GD32VW553/V1_MQTT_OK/GD32VW55X_Wifi_BLE_SDK/GD32VW55x_RELEASE_V1.0.2/MSDK/wpa_supplicant/src/utils\common.c **** 			pos++;
 674              		.loc 1 147 9 is_stmt 1
 147:C:/Users/stapi/OneDrive/Desktop/GD32VW553/V1_MQTT_OK/GD32VW55X_Wifi_BLE_SDK/GD32VW55x_RELEASE_V1.0.2/MSDK/wpa_supplicant/src/utils\common.c **** 			pos++;
 675              		.loc 1 147 10 is_stmt 0
 676 001e 03050900 		lb	a0,0(s2)
 147:C:/Users/stapi/OneDrive/Desktop/GD32VW553/V1_MQTT_OK/GD32VW55X_Wifi_BLE_SDK/GD32VW55x_RELEASE_V1.0.2/MSDK/wpa_supplicant/src/utils\common.c **** 			pos++;
 677              		.loc 1 147 9
 678 0022 E30D65FF 		beq	a0,s6,.L59
 147:C:/Users/stapi/OneDrive/Desktop/GD32VW553/V1_MQTT_OK/GD32VW55X_Wifi_BLE_SDK/GD32VW55x_RELEASE_V1.0.2/MSDK/wpa_supplicant/src/utils\common.c **** 			pos++;
 679              		.loc 1 147 37 discriminator 2
 680 0026 930735FD 		addi	a5,a0,-45
 681 002a 93F7F70F 		andi	a5,a5,0xff
 682 002e E3F7FBFE 		bleu	a5,s7,.L59
 150:C:/Users/stapi/OneDrive/Desktop/GD32VW553/V1_MQTT_OK/GD32VW55X_Wifi_BLE_SDK/GD32VW55x_RELEASE_V1.0.2/MSDK/wpa_supplicant/src/utils\common.c **** 		if (a < 0)
 683              		.loc 1 150 3 is_stmt 1
 684              	.LVL75:
 150:C:/Users/stapi/OneDrive/Desktop/GD32VW553/V1_MQTT_OK/GD32VW55X_Wifi_BLE_SDK/GD32VW55x_RELEASE_V1.0.2/MSDK/wpa_supplicant/src/utils\common.c **** 		if (a < 0)
 685              		.loc 1 150 7 is_stmt 0
 686 0032 97000000 		call	hex2num
 686      E7800000 
 687              	.LVL76:
 688 003a 2A84     		mv	s0,a0
 689              	.LVL77:
 151:C:/Users/stapi/OneDrive/Desktop/GD32VW553/V1_MQTT_OK/GD32VW55X_Wifi_BLE_SDK/GD32VW55x_RELEASE_V1.0.2/MSDK/wpa_supplicant/src/utils\common.c **** 			return -1;
 690              		.loc 1 151 3 is_stmt 1
 151:C:/Users/stapi/OneDrive/Desktop/GD32VW553/V1_MQTT_OK/GD32VW55X_Wifi_BLE_SDK/GD32VW55x_RELEASE_V1.0.2/MSDK/wpa_supplicant/src/utils\common.c **** 			return -1;
 691              		.loc 1 151 6 is_stmt 0
 692 003c 634B0502 		blt	a0,zero,.L64
 153:C:/Users/stapi/OneDrive/Desktop/GD32VW553/V1_MQTT_OK/GD32VW55X_Wifi_BLE_SDK/GD32VW55x_RELEASE_V1.0.2/MSDK/wpa_supplicant/src/utils\common.c **** 		if (b < 0)
 693              		.loc 1 153 3 is_stmt 1
 153:C:/Users/stapi/OneDrive/Desktop/GD32VW553/V1_MQTT_OK/GD32VW55X_Wifi_BLE_SDK/GD32VW55x_RELEASE_V1.0.2/MSDK/wpa_supplicant/src/utils\common.c **** 		if (b < 0)
 694              		.loc 1 153 19 is_stmt 0
 695 0040 93042900 		addi	s1,s2,2
 696              	.LVL78:
 153:C:/Users/stapi/OneDrive/Desktop/GD32VW553/V1_MQTT_OK/GD32VW55X_Wifi_BLE_SDK/GD32VW55x_RELEASE_V1.0.2/MSDK/wpa_supplicant/src/utils\common.c **** 		if (b < 0)
 697              		.loc 1 153 7
 698 0044 03051900 		lb	a0,1(s2)
 699 0048 97000000 		call	hex2num
 699      E7800000 
 700              	.LVL79:
 154:C:/Users/stapi/OneDrive/Desktop/GD32VW553/V1_MQTT_OK/GD32VW55X_Wifi_BLE_SDK/GD32VW55x_RELEASE_V1.0.2/MSDK/wpa_supplicant/src/utils\common.c **** 			return -1;
 701              		.loc 1 154 3 is_stmt 1
 154:C:/Users/stapi/OneDrive/Desktop/GD32VW553/V1_MQTT_OK/GD32VW55X_Wifi_BLE_SDK/GD32VW55x_RELEASE_V1.0.2/MSDK/wpa_supplicant/src/utils\common.c **** 			return -1;
 702              		.loc 1 154 6 is_stmt 0
 703 0050 63410502 		blt	a0,zero,.L64
 156:C:/Users/stapi/OneDrive/Desktop/GD32VW553/V1_MQTT_OK/GD32VW55X_Wifi_BLE_SDK/GD32VW55x_RELEASE_V1.0.2/MSDK/wpa_supplicant/src/utils\common.c **** 	}
 704              		.loc 1 156 3 is_stmt 1 discriminator 2
 705              	.LVL80:
 156:C:/Users/stapi/OneDrive/Desktop/GD32VW553/V1_MQTT_OK/GD32VW55X_Wifi_BLE_SDK/GD32VW55x_RELEASE_V1.0.2/MSDK/wpa_supplicant/src/utils\common.c **** 	}
 706              		.loc 1 156 16 is_stmt 0 discriminator 2
 707 0054 1204     		slli	s0,s0,4
 708              	.LVL81:
 156:C:/Users/stapi/OneDrive/Desktop/GD32VW553/V1_MQTT_OK/GD32VW55X_Wifi_BLE_SDK/GD32VW55x_RELEASE_V1.0.2/MSDK/wpa_supplicant/src/utils\common.c **** 	}
 709              		.loc 1 156 11 discriminator 2
 710 0056 B3874A01 		add	a5,s5,s4
 156:C:/Users/stapi/OneDrive/Desktop/GD32VW553/V1_MQTT_OK/GD32VW55X_Wifi_BLE_SDK/GD32VW55x_RELEASE_V1.0.2/MSDK/wpa_supplicant/src/utils\common.c **** 	}
 711              		.loc 1 156 22 discriminator 2
 712 005a 498C     		or	s0,s0,a0
 156:C:/Users/stapi/OneDrive/Desktop/GD32VW553/V1_MQTT_OK/GD32VW55X_Wifi_BLE_SDK/GD32VW55x_RELEASE_V1.0.2/MSDK/wpa_supplicant/src/utils\common.c **** 	}
 713              		.loc 1 156 11 discriminator 2
 714 005c 23808700 		sb	s0,0(a5)
 715              	.LBE19:
 144:C:/Users/stapi/OneDrive/Desktop/GD32VW553/V1_MQTT_OK/GD32VW55X_Wifi_BLE_SDK/GD32VW55x_RELEASE_V1.0.2/MSDK/wpa_supplicant/src/utils\common.c **** 		int a, b;
 716              		.loc 1 144 21 is_stmt 1 discriminator 2
 144:C:/Users/stapi/OneDrive/Desktop/GD32VW553/V1_MQTT_OK/GD32VW55X_Wifi_BLE_SDK/GD32VW55x_RELEASE_V1.0.2/MSDK/wpa_supplicant/src/utils\common.c **** 		int a, b;
 717              		.loc 1 144 22 is_stmt 0 discriminator 2
 718 0060 050A     		addi	s4,s4,1
 719              	.LVL82:
 144:C:/Users/stapi/OneDrive/Desktop/GD32VW553/V1_MQTT_OK/GD32VW55X_Wifi_BLE_SDK/GD32VW55x_RELEASE_V1.0.2/MSDK/wpa_supplicant/src/utils\common.c **** 		int a, b;
 720              		.loc 1 144 14 is_stmt 1 discriminator 2
 144:C:/Users/stapi/OneDrive/Desktop/GD32VW553/V1_MQTT_OK/GD32VW55X_Wifi_BLE_SDK/GD32VW55x_RELEASE_V1.0.2/MSDK/wpa_supplicant/src/utils\common.c **** 		int a, b;
 721              		.loc 1 144 2 is_stmt 0 discriminator 2
 722 0062 E31B8AFB 		bne	s4,s8,.L58
 159:C:/Users/stapi/OneDrive/Desktop/GD32VW553/V1_MQTT_OK/GD32VW55X_Wifi_BLE_SDK/GD32VW55x_RELEASE_V1.0.2/MSDK/wpa_supplicant/src/utils\common.c **** }
 723              		.loc 1 159 2 is_stmt 1
 159:C:/Users/stapi/OneDrive/Desktop/GD32VW553/V1_MQTT_OK/GD32VW55X_Wifi_BLE_SDK/GD32VW55x_RELEASE_V1.0.2/MSDK/wpa_supplicant/src/utils\common.c **** }
 724              		.loc 1 159 13 is_stmt 0
 725 0066 33853441 		sub	a0,s1,s3
 726              	.LVL83:
 727              	.L57:
 160:C:/Users/stapi/OneDrive/Desktop/GD32VW553/V1_MQTT_OK/GD32VW55X_Wifi_BLE_SDK/GD32VW55x_RELEASE_V1.0.2/MSDK/wpa_supplicant/src/utils\common.c **** 
 728              		.loc 1 160 1
 729 006a 17030000 		tail	__riscv_restore_9
 729      67000300 
 730              		.cfi_remember_state
 731              		.cfi_restore 24
 732              		.cfi_restore 23
 733              		.cfi_restore 22
 734              		.cfi_restore 21
 735              		.cfi_restore 20
 736              		.cfi_restore 19
 737              		.cfi_restore 18
 738              		.cfi_restore 9
 739              		.cfi_restore 8
 740              		.cfi_restore 1
 741              		.cfi_def_cfa_offset 0
 742              	.LVL84:
 743              	.L64:
 744              		.cfi_restore_state
 745              	.LBB20:
 152:C:/Users/stapi/OneDrive/Desktop/GD32VW553/V1_MQTT_OK/GD32VW55X_Wifi_BLE_SDK/GD32VW55x_RELEASE_V1.0.2/MSDK/wpa_supplicant/src/utils\common.c **** 		b = hex2num(*pos++);
 746              		.loc 1 152 11
 747 0072 7D55     		li	a0,-1
 748 0074 DDBF     		j	.L57
 749              	.LBE20:
 750              		.cfi_endproc
 751              	.LFE77:
 753              		.section	.text.hexstr2bin,"ax",@progbits
 754              		.align	1
 755              		.globl	hexstr2bin
 757              	hexstr2bin:
 758              	.LFB78:
 172:C:/Users/stapi/OneDrive/Desktop/GD32VW553/V1_MQTT_OK/GD32VW55X_Wifi_BLE_SDK/GD32VW55x_RELEASE_V1.0.2/MSDK/wpa_supplicant/src/utils\common.c **** 	size_t i;
 759              		.loc 1 172 1 is_stmt 1
 760              		.cfi_startproc
 761              	.LVL85:
 762 0000 17030000 		call	t0,__riscv_save_3
 762      E7020300 
 763              		.cfi_offset 18, -16
 764              		.cfi_offset 9, -12
 765              		.cfi_offset 8, -8
 766              		.cfi_offset 1, -4
 767              		.cfi_def_cfa_offset 16
 173:C:/Users/stapi/OneDrive/Desktop/GD32VW553/V1_MQTT_OK/GD32VW55X_Wifi_BLE_SDK/GD32VW55x_RELEASE_V1.0.2/MSDK/wpa_supplicant/src/utils\common.c **** 	int a;
 768              		.loc 1 173 2
 174:C:/Users/stapi/OneDrive/Desktop/GD32VW553/V1_MQTT_OK/GD32VW55X_Wifi_BLE_SDK/GD32VW55x_RELEASE_V1.0.2/MSDK/wpa_supplicant/src/utils\common.c **** 	const char *ipos = hex;
 769              		.loc 1 174 2
 175:C:/Users/stapi/OneDrive/Desktop/GD32VW553/V1_MQTT_OK/GD32VW55X_Wifi_BLE_SDK/GD32VW55x_RELEASE_V1.0.2/MSDK/wpa_supplicant/src/utils\common.c **** 	u8 *opos = buf;
 770              		.loc 1 175 2
 172:C:/Users/stapi/OneDrive/Desktop/GD32VW553/V1_MQTT_OK/GD32VW55X_Wifi_BLE_SDK/GD32VW55x_RELEASE_V1.0.2/MSDK/wpa_supplicant/src/utils\common.c **** 	size_t i;
 771              		.loc 1 172 1 is_stmt 0
 772 0008 AA84     		mv	s1,a0
 773              	.LVL86:
 176:C:/Users/stapi/OneDrive/Desktop/GD32VW553/V1_MQTT_OK/GD32VW55X_Wifi_BLE_SDK/GD32VW55x_RELEASE_V1.0.2/MSDK/wpa_supplicant/src/utils\common.c **** 
 774              		.loc 1 176 2 is_stmt 1
 178:C:/Users/stapi/OneDrive/Desktop/GD32VW553/V1_MQTT_OK/GD32VW55X_Wifi_BLE_SDK/GD32VW55x_RELEASE_V1.0.2/MSDK/wpa_supplicant/src/utils\common.c **** 		a = hex2byte(ipos);
 775              		.loc 1 178 2
 172:C:/Users/stapi/OneDrive/Desktop/GD32VW553/V1_MQTT_OK/GD32VW55X_Wifi_BLE_SDK/GD32VW55x_RELEASE_V1.0.2/MSDK/wpa_supplicant/src/utils\common.c **** 	size_t i;
 776              		.loc 1 172 1 is_stmt 0
 777 000a 2E84     		mv	s0,a1
 778 000c 3389C500 		add	s2,a1,a2
 779              	.LVL87:
 780              	.L67:
 178:C:/Users/stapi/OneDrive/Desktop/GD32VW553/V1_MQTT_OK/GD32VW55X_Wifi_BLE_SDK/GD32VW55x_RELEASE_V1.0.2/MSDK/wpa_supplicant/src/utils\common.c **** 		a = hex2byte(ipos);
 781              		.loc 1 178 14 is_stmt 1 discriminator 1
 178:C:/Users/stapi/OneDrive/Desktop/GD32VW553/V1_MQTT_OK/GD32VW55X_Wifi_BLE_SDK/GD32VW55x_RELEASE_V1.0.2/MSDK/wpa_supplicant/src/utils\common.c **** 		a = hex2byte(ipos);
 782              		.loc 1 178 2 is_stmt 0 discriminator 1
 783 0010 63172401 		bne	s0,s2,.L69
 185:C:/Users/stapi/OneDrive/Desktop/GD32VW553/V1_MQTT_OK/GD32VW55X_Wifi_BLE_SDK/GD32VW55x_RELEASE_V1.0.2/MSDK/wpa_supplicant/src/utils\common.c **** }
 784              		.loc 1 185 9
 785 0014 0145     		li	a0,0
 786              	.L66:
 186:C:/Users/stapi/OneDrive/Desktop/GD32VW553/V1_MQTT_OK/GD32VW55X_Wifi_BLE_SDK/GD32VW55x_RELEASE_V1.0.2/MSDK/wpa_supplicant/src/utils\common.c **** 
 787              		.loc 1 186 1
 788 0016 17030000 		tail	__riscv_restore_3
 788      67000300 
 789              		.cfi_remember_state
 790              		.cfi_restore 18
 791              		.cfi_restore 9
 792              		.cfi_restore 8
 793              		.cfi_restore 1
 794              		.cfi_def_cfa_offset 0
 795              	.L69:
 796              		.cfi_restore_state
 179:C:/Users/stapi/OneDrive/Desktop/GD32VW553/V1_MQTT_OK/GD32VW55X_Wifi_BLE_SDK/GD32VW55x_RELEASE_V1.0.2/MSDK/wpa_supplicant/src/utils\common.c **** 		if (a < 0)
 797              		.loc 1 179 3 is_stmt 1
 179:C:/Users/stapi/OneDrive/Desktop/GD32VW553/V1_MQTT_OK/GD32VW55X_Wifi_BLE_SDK/GD32VW55x_RELEASE_V1.0.2/MSDK/wpa_supplicant/src/utils\common.c **** 		if (a < 0)
 798              		.loc 1 179 7 is_stmt 0
 799 001e 2685     		mv	a0,s1
 800 0020 97000000 		call	hex2byte
 800      E7800000 
 801              	.LVL88:
 180:C:/Users/stapi/OneDrive/Desktop/GD32VW553/V1_MQTT_OK/GD32VW55X_Wifi_BLE_SDK/GD32VW55x_RELEASE_V1.0.2/MSDK/wpa_supplicant/src/utils\common.c **** 			return -1;
 802              		.loc 1 180 3 is_stmt 1
 180:C:/Users/stapi/OneDrive/Desktop/GD32VW553/V1_MQTT_OK/GD32VW55X_Wifi_BLE_SDK/GD32VW55x_RELEASE_V1.0.2/MSDK/wpa_supplicant/src/utils\common.c **** 			return -1;
 803              		.loc 1 180 6 is_stmt 0
 804 0028 63470500 		blt	a0,zero,.L70
 182:C:/Users/stapi/OneDrive/Desktop/GD32VW553/V1_MQTT_OK/GD32VW55X_Wifi_BLE_SDK/GD32VW55x_RELEASE_V1.0.2/MSDK/wpa_supplicant/src/utils\common.c **** 		ipos += 2;
 805              		.loc 1 182 3 is_stmt 1 discriminator 2
 182:C:/Users/stapi/OneDrive/Desktop/GD32VW553/V1_MQTT_OK/GD32VW55X_Wifi_BLE_SDK/GD32VW55x_RELEASE_V1.0.2/MSDK/wpa_supplicant/src/utils\common.c **** 		ipos += 2;
 806              		.loc 1 182 8 is_stmt 0 discriminator 2
 807 002c 0504     		addi	s0,s0,1
 808              	.LVL89:
 183:C:/Users/stapi/OneDrive/Desktop/GD32VW553/V1_MQTT_OK/GD32VW55X_Wifi_BLE_SDK/GD32VW55x_RELEASE_V1.0.2/MSDK/wpa_supplicant/src/utils\common.c **** 	}
 809              		.loc 1 183 8 discriminator 2
 810 002e 8904     		addi	s1,s1,2
 811              	.LVL90:
 182:C:/Users/stapi/OneDrive/Desktop/GD32VW553/V1_MQTT_OK/GD32VW55X_Wifi_BLE_SDK/GD32VW55x_RELEASE_V1.0.2/MSDK/wpa_supplicant/src/utils\common.c **** 		ipos += 2;
 812              		.loc 1 182 11 discriminator 2
 813 0030 A30FA4FE 		sb	a0,-1(s0)
 183:C:/Users/stapi/OneDrive/Desktop/GD32VW553/V1_MQTT_OK/GD32VW55X_Wifi_BLE_SDK/GD32VW55x_RELEASE_V1.0.2/MSDK/wpa_supplicant/src/utils\common.c **** 	}
 814              		.loc 1 183 3 is_stmt 1 discriminator 2
 815              	.LVL91:
 178:C:/Users/stapi/OneDrive/Desktop/GD32VW553/V1_MQTT_OK/GD32VW55X_Wifi_BLE_SDK/GD32VW55x_RELEASE_V1.0.2/MSDK/wpa_supplicant/src/utils\common.c **** 		a = hex2byte(ipos);
 816              		.loc 1 178 23 discriminator 2
 817 0034 F1BF     		j	.L67
 818              	.L70:
 181:C:/Users/stapi/OneDrive/Desktop/GD32VW553/V1_MQTT_OK/GD32VW55X_Wifi_BLE_SDK/GD32VW55x_RELEASE_V1.0.2/MSDK/wpa_supplicant/src/utils\common.c **** 		*opos++ = a;
 819              		.loc 1 181 11 is_stmt 0
 820 0036 7D55     		li	a0,-1
 821              	.LVL92:
 822 0038 F9BF     		j	.L66
 823              		.cfi_endproc
 824              	.LFE78:
 826              		.section	.rodata.hwaddr_mask_txt.str1.4,"aMS",@progbits,1
 827              		.align	2
 828              	.LC2:
 829 0000 25303278 		.string	"%02x:%02x:%02x:%02x:%02x:%02x/%02x:%02x:%02x:%02x:%02x:%02x"
 829      3A253032 
 829      783A2530 
 829      32783A25 
 829      3032783A 
 830              		.align	2
 831              	.LC3:
 832 003c 25303278 		.string	"%02x:%02x:%02x:%02x:%02x:%02x"
 832      3A253032 
 832      783A2530 
 832      32783A25 
 832      3032783A 
 833              		.section	.text.hwaddr_mask_txt,"ax",@progbits
 834              		.align	1
 835              		.globl	hwaddr_mask_txt
 837              	hwaddr_mask_txt:
 838              	.LFB79:
 190:C:/Users/stapi/OneDrive/Desktop/GD32VW553/V1_MQTT_OK/GD32VW55X_Wifi_BLE_SDK/GD32VW55x_RELEASE_V1.0.2/MSDK/wpa_supplicant/src/utils\common.c **** 	size_t i;
 839              		.loc 1 190 1 is_stmt 1
 840              		.cfi_startproc
 841              	.LVL93:
 842 0000 17030000 		call	t0,__riscv_save_1
 842      E7020300 
 843              		.cfi_offset 8, -8
 844              		.cfi_offset 1, -4
 845              		.cfi_def_cfa_offset 16
 191:C:/Users/stapi/OneDrive/Desktop/GD32VW553/V1_MQTT_OK/GD32VW55X_Wifi_BLE_SDK/GD32VW55x_RELEASE_V1.0.2/MSDK/wpa_supplicant/src/utils\common.c **** 	int print_mask = 0;
 846              		.loc 1 191 2
 192:C:/Users/stapi/OneDrive/Desktop/GD32VW553/V1_MQTT_OK/GD32VW55X_Wifi_BLE_SDK/GD32VW55x_RELEASE_V1.0.2/MSDK/wpa_supplicant/src/utils\common.c **** 	int res;
 847              		.loc 1 192 2
 848              	.LVL94:
 193:C:/Users/stapi/OneDrive/Desktop/GD32VW553/V1_MQTT_OK/GD32VW55X_Wifi_BLE_SDK/GD32VW55x_RELEASE_V1.0.2/MSDK/wpa_supplicant/src/utils\common.c **** 
 849              		.loc 1 193 2
 195:C:/Users/stapi/OneDrive/Desktop/GD32VW553/V1_MQTT_OK/GD32VW55X_Wifi_BLE_SDK/GD32VW55x_RELEASE_V1.0.2/MSDK/wpa_supplicant/src/utils\common.c **** 		if (mask[i] != 0xff) {
 850              		.loc 1 195 2
 195:C:/Users/stapi/OneDrive/Desktop/GD32VW553/V1_MQTT_OK/GD32VW55X_Wifi_BLE_SDK/GD32VW55x_RELEASE_V1.0.2/MSDK/wpa_supplicant/src/utils\common.c **** 		if (mask[i] != 0xff) {
 851              		.loc 1 195 14
 190:C:/Users/stapi/OneDrive/Desktop/GD32VW553/V1_MQTT_OK/GD32VW55X_Wifi_BLE_SDK/GD32VW55x_RELEASE_V1.0.2/MSDK/wpa_supplicant/src/utils\common.c **** 	size_t i;
 852              		.loc 1 190 1 is_stmt 0
 853 0008 2E84     		mv	s0,a1
 854 000a 0111     		addi	sp,sp,-32
 855              		.cfi_def_cfa_offset 48
 195:C:/Users/stapi/OneDrive/Desktop/GD32VW553/V1_MQTT_OK/GD32VW55X_Wifi_BLE_SDK/GD32VW55x_RELEASE_V1.0.2/MSDK/wpa_supplicant/src/utils\common.c **** 		if (mask[i] != 0xff) {
 856              		.loc 1 195 9
 857 000c 8147     		li	a5,0
 196:C:/Users/stapi/OneDrive/Desktop/GD32VW553/V1_MQTT_OK/GD32VW55X_Wifi_BLE_SDK/GD32VW55x_RELEASE_V1.0.2/MSDK/wpa_supplicant/src/utils\common.c **** 			print_mask = 1;
 858              		.loc 1 196 6
 859 000e 9305F00F 		li	a1,255
 860              	.LVL95:
 195:C:/Users/stapi/OneDrive/Desktop/GD32VW553/V1_MQTT_OK/GD32VW55X_Wifi_BLE_SDK/GD32VW55x_RELEASE_V1.0.2/MSDK/wpa_supplicant/src/utils\common.c **** 		if (mask[i] != 0xff) {
 861              		.loc 1 195 2
 862 0012 1947     		li	a4,6
 863              	.LVL96:
 864              	.L74:
 196:C:/Users/stapi/OneDrive/Desktop/GD32VW553/V1_MQTT_OK/GD32VW55X_Wifi_BLE_SDK/GD32VW55x_RELEASE_V1.0.2/MSDK/wpa_supplicant/src/utils\common.c **** 			print_mask = 1;
 865              		.loc 1 196 3 is_stmt 1
 196:C:/Users/stapi/OneDrive/Desktop/GD32VW553/V1_MQTT_OK/GD32VW55X_Wifi_BLE_SDK/GD32VW55x_RELEASE_V1.0.2/MSDK/wpa_supplicant/src/utils\common.c **** 			print_mask = 1;
 866              		.loc 1 196 11 is_stmt 0
 867 0014 3388F600 		add	a6,a3,a5
 196:C:/Users/stapi/OneDrive/Desktop/GD32VW553/V1_MQTT_OK/GD32VW55X_Wifi_BLE_SDK/GD32VW55x_RELEASE_V1.0.2/MSDK/wpa_supplicant/src/utils\common.c **** 			print_mask = 1;
 868              		.loc 1 196 6
 869 0018 03480800 		lbu	a6,0(a6)
 870 001c 631EB802 		bne	a6,a1,.L73
 195:C:/Users/stapi/OneDrive/Desktop/GD32VW553/V1_MQTT_OK/GD32VW55X_Wifi_BLE_SDK/GD32VW55x_RELEASE_V1.0.2/MSDK/wpa_supplicant/src/utils\common.c **** 		if (mask[i] != 0xff) {
 871              		.loc 1 195 28 is_stmt 1 discriminator 2
 195:C:/Users/stapi/OneDrive/Desktop/GD32VW553/V1_MQTT_OK/GD32VW55X_Wifi_BLE_SDK/GD32VW55x_RELEASE_V1.0.2/MSDK/wpa_supplicant/src/utils\common.c **** 		if (mask[i] != 0xff) {
 872              		.loc 1 195 29 is_stmt 0 discriminator 2
 873 0020 8507     		addi	a5,a5,1
 874              	.LVL97:
 195:C:/Users/stapi/OneDrive/Desktop/GD32VW553/V1_MQTT_OK/GD32VW55X_Wifi_BLE_SDK/GD32VW55x_RELEASE_V1.0.2/MSDK/wpa_supplicant/src/utils\common.c **** 		if (mask[i] != 0xff) {
 875              		.loc 1 195 14 is_stmt 1 discriminator 2
 195:C:/Users/stapi/OneDrive/Desktop/GD32VW553/V1_MQTT_OK/GD32VW55X_Wifi_BLE_SDK/GD32VW55x_RELEASE_V1.0.2/MSDK/wpa_supplicant/src/utils\common.c **** 		if (mask[i] != 0xff) {
 876              		.loc 1 195 2 is_stmt 0 discriminator 2
 877 0022 E399E7FE 		bne	a5,a4,.L74
 202:C:/Users/stapi/OneDrive/Desktop/GD32VW553/V1_MQTT_OK/GD32VW55X_Wifi_BLE_SDK/GD32VW55x_RELEASE_V1.0.2/MSDK/wpa_supplicant/src/utils\common.c **** 		res = os_snprintf(buf, len, MACSTR "/" MACSTR,
 878              		.loc 1 202 2 is_stmt 1
 206:C:/Users/stapi/OneDrive/Desktop/GD32VW553/V1_MQTT_OK/GD32VW55X_Wifi_BLE_SDK/GD32VW55x_RELEASE_V1.0.2/MSDK/wpa_supplicant/src/utils\common.c **** 	if (os_snprintf_error(len, res))
 879              		.loc 1 206 3
 206:C:/Users/stapi/OneDrive/Desktop/GD32VW553/V1_MQTT_OK/GD32VW55X_Wifi_BLE_SDK/GD32VW55x_RELEASE_V1.0.2/MSDK/wpa_supplicant/src/utils\common.c **** 	if (os_snprintf_error(len, res))
 880              		.loc 1 206 9 is_stmt 0
 881 0026 83475600 		lbu	a5,5(a2)
 882              	.LVL98:
 883 002a A285     		mv	a1,s0
 884 002c 3EC0     		sw	a5,0(sp)
 885 002e 83484600 		lbu	a7,4(a2)
 886 0032 03483600 		lbu	a6,3(a2)
 887 0036 83472600 		lbu	a5,2(a2)
 888 003a 03471600 		lbu	a4,1(a2)
 889 003e 83460600 		lbu	a3,0(a2)
 890              	.LVL99:
 891 0042 37060000 		lui	a2,%hi(.LC3)
 892              	.LVL100:
 893 0046 13060600 		addi	a2,a2,%lo(.LC3)
 894 004a 97000000 		call	os_snprintf
 894      E7800000 
 895              	.LVL101:
 896 0052 99A8     		j	.L77
 897              	.LVL102:
 898              	.L79:
 208:C:/Users/stapi/OneDrive/Desktop/GD32VW553/V1_MQTT_OK/GD32VW55X_Wifi_BLE_SDK/GD32VW55x_RELEASE_V1.0.2/MSDK/wpa_supplicant/src/utils\common.c **** 	return res;
 899              		.loc 1 208 10
 900 0054 7D55     		li	a0,-1
 901              	.LVL103:
 902 0056 A9A8     		j	.L72
 903              	.LVL104:
 904              	.L73:
 202:C:/Users/stapi/OneDrive/Desktop/GD32VW553/V1_MQTT_OK/GD32VW55X_Wifi_BLE_SDK/GD32VW55x_RELEASE_V1.0.2/MSDK/wpa_supplicant/src/utils\common.c **** 		res = os_snprintf(buf, len, MACSTR "/" MACSTR,
 905              		.loc 1 202 2 is_stmt 1
 203:C:/Users/stapi/OneDrive/Desktop/GD32VW553/V1_MQTT_OK/GD32VW55X_Wifi_BLE_SDK/GD32VW55x_RELEASE_V1.0.2/MSDK/wpa_supplicant/src/utils\common.c **** 				  MAC2STR(addr), MAC2STR(mask));
 906              		.loc 1 203 3
 203:C:/Users/stapi/OneDrive/Desktop/GD32VW553/V1_MQTT_OK/GD32VW55X_Wifi_BLE_SDK/GD32VW55x_RELEASE_V1.0.2/MSDK/wpa_supplicant/src/utils\common.c **** 				  MAC2STR(addr), MAC2STR(mask));
 907              		.loc 1 203 9 is_stmt 0
 908 0058 83C75600 		lbu	a5,5(a3)
 909              	.LVL105:
 910 005c A285     		mv	a1,s0
 911 005e 3ECC     		sw	a5,24(sp)
 912 0060 83C74600 		lbu	a5,4(a3)
 913 0064 3ECA     		sw	a5,20(sp)
 914 0066 83C73600 		lbu	a5,3(a3)
 915 006a 3EC8     		sw	a5,16(sp)
 916 006c 83C72600 		lbu	a5,2(a3)
 917 0070 3EC6     		sw	a5,12(sp)
 918 0072 83C71600 		lbu	a5,1(a3)
 919 0076 3EC4     		sw	a5,8(sp)
 920 0078 83C70600 		lbu	a5,0(a3)
 921 007c 3EC2     		sw	a5,4(sp)
 922 007e 83475600 		lbu	a5,5(a2)
 923 0082 3EC0     		sw	a5,0(sp)
 924 0084 83484600 		lbu	a7,4(a2)
 925 0088 03483600 		lbu	a6,3(a2)
 926 008c 83472600 		lbu	a5,2(a2)
 927 0090 03471600 		lbu	a4,1(a2)
 928 0094 83460600 		lbu	a3,0(a2)
 929              	.LVL106:
 930 0098 37060000 		lui	a2,%hi(.LC2)
 931              	.LVL107:
 932 009c 13060600 		addi	a2,a2,%lo(.LC2)
 933 00a0 97000000 		call	os_snprintf
 933      E7800000 
 934              	.LVL108:
 935              	.L77:
 207:C:/Users/stapi/OneDrive/Desktop/GD32VW553/V1_MQTT_OK/GD32VW55X_Wifi_BLE_SDK/GD32VW55x_RELEASE_V1.0.2/MSDK/wpa_supplicant/src/utils\common.c **** 		return -1;
 936              		.loc 1 207 2 is_stmt 1
 937              	.LBB21:
 938              	.LBB22:
 939              		.loc 2 561 2
 940              		.loc 2 561 17 is_stmt 0
 941 00a8 E34605FA 		blt	a0,zero,.L79
 942 00ac E37485FA 		bleu	s0,a0,.L79
 943              	.LVL109:
 944              	.L72:
 945              	.LBE22:
 946              	.LBE21:
 210:C:/Users/stapi/OneDrive/Desktop/GD32VW553/V1_MQTT_OK/GD32VW55X_Wifi_BLE_SDK/GD32VW55x_RELEASE_V1.0.2/MSDK/wpa_supplicant/src/utils\common.c **** 
 947              		.loc 1 210 1
 948 00b0 0561     		addi	sp,sp,32
 949              		.cfi_def_cfa_offset 0
 950 00b2 17030000 		tail	__riscv_restore_1
 950      67000300 
 951              		.cfi_restore 8
 952              		.cfi_restore 1
 953              		.cfi_def_cfa_offset -16
 954              		.cfi_endproc
 955              	.LFE79:
 957              		.section	.text.inc_byte_array,"ax",@progbits
 958              		.align	1
 959              		.globl	inc_byte_array
 961              	inc_byte_array:
 962              	.LFB80:
 223:C:/Users/stapi/OneDrive/Desktop/GD32VW553/V1_MQTT_OK/GD32VW55X_Wifi_BLE_SDK/GD32VW55x_RELEASE_V1.0.2/MSDK/wpa_supplicant/src/utils\common.c **** 	int pos = len - 1;
 963              		.loc 1 223 1 is_stmt 1
 964              		.cfi_startproc
 965              	.LVL110:
 966              	.L88:
 229:C:/Users/stapi/OneDrive/Desktop/GD32VW553/V1_MQTT_OK/GD32VW55X_Wifi_BLE_SDK/GD32VW55x_RELEASE_V1.0.2/MSDK/wpa_supplicant/src/utils\common.c **** 	}
 967              		.loc 1 229 3
 229:C:/Users/stapi/OneDrive/Desktop/GD32VW553/V1_MQTT_OK/GD32VW55X_Wifi_BLE_SDK/GD32VW55x_RELEASE_V1.0.2/MSDK/wpa_supplicant/src/utils\common.c **** 	}
 968              		.loc 1 229 6 is_stmt 0
 969 0000 FD15     		addi	a1,a1,-1
 970              	.LVL111:
 225:C:/Users/stapi/OneDrive/Desktop/GD32VW553/V1_MQTT_OK/GD32VW55X_Wifi_BLE_SDK/GD32VW55x_RELEASE_V1.0.2/MSDK/wpa_supplicant/src/utils\common.c **** 		counter[pos]++;
 971              		.loc 1 225 8 is_stmt 1
 972 0002 63CC0500 		blt	a1,zero,.L83
 226:C:/Users/stapi/OneDrive/Desktop/GD32VW553/V1_MQTT_OK/GD32VW55X_Wifi_BLE_SDK/GD32VW55x_RELEASE_V1.0.2/MSDK/wpa_supplicant/src/utils\common.c **** 		if (counter[pos] != 0)
 973              		.loc 1 226 3
 974 0006 3307B500 		add	a4,a0,a1
 226:C:/Users/stapi/OneDrive/Desktop/GD32VW553/V1_MQTT_OK/GD32VW55X_Wifi_BLE_SDK/GD32VW55x_RELEASE_V1.0.2/MSDK/wpa_supplicant/src/utils\common.c **** 		if (counter[pos] != 0)
 975              		.loc 1 226 15 is_stmt 0
 976 000a 83470700 		lbu	a5,0(a4)
 977 000e 8507     		addi	a5,a5,1
 978 0010 93F7F70F 		andi	a5,a5,0xff
 979 0014 2300F700 		sb	a5,0(a4)
 227:C:/Users/stapi/OneDrive/Desktop/GD32VW553/V1_MQTT_OK/GD32VW55X_Wifi_BLE_SDK/GD32VW55x_RELEASE_V1.0.2/MSDK/wpa_supplicant/src/utils\common.c **** 			break;
 980              		.loc 1 227 3 is_stmt 1
 227:C:/Users/stapi/OneDrive/Desktop/GD32VW553/V1_MQTT_OK/GD32VW55X_Wifi_BLE_SDK/GD32VW55x_RELEASE_V1.0.2/MSDK/wpa_supplicant/src/utils\common.c **** 			break;
 981              		.loc 1 227 6 is_stmt 0
 982 0018 E5D7     		beq	a5,zero,.L88
 983              	.L83:
 231:C:/Users/stapi/OneDrive/Desktop/GD32VW553/V1_MQTT_OK/GD32VW55X_Wifi_BLE_SDK/GD32VW55x_RELEASE_V1.0.2/MSDK/wpa_supplicant/src/utils\common.c **** 
 984              		.loc 1 231 1
 985 001a 8280     		ret
 986              		.cfi_endproc
 987              	.LFE80:
 989              		.section	.text.buf_shift_right,"ax",@progbits
 990              		.align	1
 991              		.globl	buf_shift_right
 993              	buf_shift_right:
 994              	.LFB81:
 235:C:/Users/stapi/OneDrive/Desktop/GD32VW553/V1_MQTT_OK/GD32VW55X_Wifi_BLE_SDK/GD32VW55x_RELEASE_V1.0.2/MSDK/wpa_supplicant/src/utils\common.c **** 	size_t i;
 995              		.loc 1 235 1 is_stmt 1
 996              		.cfi_startproc
 997              	.LVL112:
 236:C:/Users/stapi/OneDrive/Desktop/GD32VW553/V1_MQTT_OK/GD32VW55X_Wifi_BLE_SDK/GD32VW55x_RELEASE_V1.0.2/MSDK/wpa_supplicant/src/utils\common.c **** 
 998              		.loc 1 236 2
 238:C:/Users/stapi/OneDrive/Desktop/GD32VW553/V1_MQTT_OK/GD32VW55X_Wifi_BLE_SDK/GD32VW55x_RELEASE_V1.0.2/MSDK/wpa_supplicant/src/utils\common.c **** 		buf[i] = (buf[i - 1] << (8 - bits)) | (buf[i] >> bits);
 999              		.loc 1 238 2
 239:C:/Users/stapi/OneDrive/Desktop/GD32VW553/V1_MQTT_OK/GD32VW55X_Wifi_BLE_SDK/GD32VW55x_RELEASE_V1.0.2/MSDK/wpa_supplicant/src/utils\common.c **** 	buf[0] >>= bits;
 1000              		.loc 1 239 30 is_stmt 0
 1001 0000 2147     		li	a4,8
 1002 0002 AA95     		add	a1,a0,a1
 1003              	.LVL113:
 1004 0004 118F     		sub	a4,a4,a2
 1005              	.LVL114:
 1006              	.L90:
 238:C:/Users/stapi/OneDrive/Desktop/GD32VW553/V1_MQTT_OK/GD32VW55X_Wifi_BLE_SDK/GD32VW55x_RELEASE_V1.0.2/MSDK/wpa_supplicant/src/utils\common.c **** 		buf[i] = (buf[i - 1] << (8 - bits)) | (buf[i] >> bits);
 1007              		.loc 1 238 20 is_stmt 1 discriminator 1
 238:C:/Users/stapi/OneDrive/Desktop/GD32VW553/V1_MQTT_OK/GD32VW55X_Wifi_BLE_SDK/GD32VW55x_RELEASE_V1.0.2/MSDK/wpa_supplicant/src/utils\common.c **** 		buf[i] = (buf[i - 1] << (8 - bits)) | (buf[i] >> bits);
 1008              		.loc 1 238 2 is_stmt 0 discriminator 1
 1009 0006 FD15     		addi	a1,a1,-1
 1010              	.LVL115:
 1011 0008 6319B500 		bne	a0,a1,.L91
 240:C:/Users/stapi/OneDrive/Desktop/GD32VW553/V1_MQTT_OK/GD32VW55X_Wifi_BLE_SDK/GD32VW55x_RELEASE_V1.0.2/MSDK/wpa_supplicant/src/utils\common.c **** }
 1012              		.loc 1 240 2 is_stmt 1
 240:C:/Users/stapi/OneDrive/Desktop/GD32VW553/V1_MQTT_OK/GD32VW55X_Wifi_BLE_SDK/GD32VW55x_RELEASE_V1.0.2/MSDK/wpa_supplicant/src/utils\common.c **** }
 1013              		.loc 1 240 9 is_stmt 0
 1014 000c 83470500 		lbu	a5,0(a0)
 1015 0010 33D6C740 		sra	a2,a5,a2
 1016              	.LVL116:
 1017 0014 2300C500 		sb	a2,0(a0)
 241:C:/Users/stapi/OneDrive/Desktop/GD32VW553/V1_MQTT_OK/GD32VW55X_Wifi_BLE_SDK/GD32VW55x_RELEASE_V1.0.2/MSDK/wpa_supplicant/src/utils\common.c **** 
 1018              		.loc 1 241 1
 1019 0018 8280     		ret
 1020              	.LVL117:
 1021              	.L91:
 239:C:/Users/stapi/OneDrive/Desktop/GD32VW553/V1_MQTT_OK/GD32VW55X_Wifi_BLE_SDK/GD32VW55x_RELEASE_V1.0.2/MSDK/wpa_supplicant/src/utils\common.c **** 	buf[0] >>= bits;
 1022              		.loc 1 239 3 is_stmt 1 discriminator 3
 239:C:/Users/stapi/OneDrive/Desktop/GD32VW553/V1_MQTT_OK/GD32VW55X_Wifi_BLE_SDK/GD32VW55x_RELEASE_V1.0.2/MSDK/wpa_supplicant/src/utils\common.c **** 	buf[0] >>= bits;
 1023              		.loc 1 239 45 is_stmt 0 discriminator 3
 1024 001a 83C60500 		lbu	a3,0(a1)
 239:C:/Users/stapi/OneDrive/Desktop/GD32VW553/V1_MQTT_OK/GD32VW55X_Wifi_BLE_SDK/GD32VW55x_RELEASE_V1.0.2/MSDK/wpa_supplicant/src/utils\common.c **** 	buf[0] >>= bits;
 1025              		.loc 1 239 16 discriminator 3
 1026 001e 83C7F5FF 		lbu	a5,-1(a1)
 239:C:/Users/stapi/OneDrive/Desktop/GD32VW553/V1_MQTT_OK/GD32VW55X_Wifi_BLE_SDK/GD32VW55x_RELEASE_V1.0.2/MSDK/wpa_supplicant/src/utils\common.c **** 	buf[0] >>= bits;
 1027              		.loc 1 239 49 discriminator 3
 1028 0022 B3D6C640 		sra	a3,a3,a2
 239:C:/Users/stapi/OneDrive/Desktop/GD32VW553/V1_MQTT_OK/GD32VW55X_Wifi_BLE_SDK/GD32VW55x_RELEASE_V1.0.2/MSDK/wpa_supplicant/src/utils\common.c **** 	buf[0] >>= bits;
 1029              		.loc 1 239 24 discriminator 3
 1030 0026 B397E700 		sll	a5,a5,a4
 239:C:/Users/stapi/OneDrive/Desktop/GD32VW553/V1_MQTT_OK/GD32VW55X_Wifi_BLE_SDK/GD32VW55x_RELEASE_V1.0.2/MSDK/wpa_supplicant/src/utils\common.c **** 	buf[0] >>= bits;
 1031              		.loc 1 239 39 discriminator 3
 1032 002a D58F     		or	a5,a5,a3
 239:C:/Users/stapi/OneDrive/Desktop/GD32VW553/V1_MQTT_OK/GD32VW55X_Wifi_BLE_SDK/GD32VW55x_RELEASE_V1.0.2/MSDK/wpa_supplicant/src/utils\common.c **** 	buf[0] >>= bits;
 1033              		.loc 1 239 10 discriminator 3
 1034 002c 2380F500 		sb	a5,0(a1)
 238:C:/Users/stapi/OneDrive/Desktop/GD32VW553/V1_MQTT_OK/GD32VW55X_Wifi_BLE_SDK/GD32VW55x_RELEASE_V1.0.2/MSDK/wpa_supplicant/src/utils\common.c **** 		buf[i] = (buf[i - 1] << (8 - bits)) | (buf[i] >> bits);
 1035              		.loc 1 238 27 is_stmt 1 discriminator 3
 1036              	.LVL118:
 1037 0030 D9BF     		j	.L90
 1038              		.cfi_endproc
 1039              	.LFE81:
 1041              		.section	.text.wpa_get_ntp_timestamp,"ax",@progbits
 1042              		.align	1
 1043              		.globl	wpa_get_ntp_timestamp
 1045              	wpa_get_ntp_timestamp:
 1046              	.LFB82:
 245:C:/Users/stapi/OneDrive/Desktop/GD32VW553/V1_MQTT_OK/GD32VW55X_Wifi_BLE_SDK/GD32VW55x_RELEASE_V1.0.2/MSDK/wpa_supplicant/src/utils\common.c **** 	struct os_time now;
 1047              		.loc 1 245 1
 1048              		.cfi_startproc
 1049              	.LVL119:
 1050 0000 17030000 		call	t0,__riscv_save_2
 1050      E7020300 
 1051              		.cfi_offset 9, -12
 1052              		.cfi_offset 8, -8
 1053              		.cfi_offset 1, -4
 1054              		.cfi_def_cfa_offset 16
 246:C:/Users/stapi/OneDrive/Desktop/GD32VW553/V1_MQTT_OK/GD32VW55X_Wifi_BLE_SDK/GD32VW55x_RELEASE_V1.0.2/MSDK/wpa_supplicant/src/utils\common.c **** 	u32 sec, usec;
 1055              		.loc 1 246 2
 247:C:/Users/stapi/OneDrive/Desktop/GD32VW553/V1_MQTT_OK/GD32VW55X_Wifi_BLE_SDK/GD32VW55x_RELEASE_V1.0.2/MSDK/wpa_supplicant/src/utils\common.c **** 	be32 tmp;
 1056              		.loc 1 247 2
 248:C:/Users/stapi/OneDrive/Desktop/GD32VW553/V1_MQTT_OK/GD32VW55X_Wifi_BLE_SDK/GD32VW55x_RELEASE_V1.0.2/MSDK/wpa_supplicant/src/utils\common.c **** 
 1057              		.loc 1 248 2
 251:C:/Users/stapi/OneDrive/Desktop/GD32VW553/V1_MQTT_OK/GD32VW55X_Wifi_BLE_SDK/GD32VW55x_RELEASE_V1.0.2/MSDK/wpa_supplicant/src/utils\common.c **** 	sec = now.sec + 2208988800U; /* Epoch to 1900 */
 1058              		.loc 1 251 2
 245:C:/Users/stapi/OneDrive/Desktop/GD32VW553/V1_MQTT_OK/GD32VW55X_Wifi_BLE_SDK/GD32VW55x_RELEASE_V1.0.2/MSDK/wpa_supplicant/src/utils\common.c **** 	struct os_time now;
 1059              		.loc 1 245 1 is_stmt 0
 1060 0008 4111     		addi	sp,sp,-16
 1061              		.cfi_def_cfa_offset 32
 245:C:/Users/stapi/OneDrive/Desktop/GD32VW553/V1_MQTT_OK/GD32VW55X_Wifi_BLE_SDK/GD32VW55x_RELEASE_V1.0.2/MSDK/wpa_supplicant/src/utils\common.c **** 	struct os_time now;
 1062              		.loc 1 245 1
 1063 000a AA84     		mv	s1,a0
 251:C:/Users/stapi/OneDrive/Desktop/GD32VW553/V1_MQTT_OK/GD32VW55X_Wifi_BLE_SDK/GD32VW55x_RELEASE_V1.0.2/MSDK/wpa_supplicant/src/utils\common.c **** 	sec = now.sec + 2208988800U; /* Epoch to 1900 */
 1064              		.loc 1 251 2
 1065 000c 2800     		addi	a0,sp,8
 1066              	.LVL120:
 1067 000e 97000000 		call	os_get_time
 1067      E7800000 
 1068              	.LVL121:
 252:C:/Users/stapi/OneDrive/Desktop/GD32VW553/V1_MQTT_OK/GD32VW55X_Wifi_BLE_SDK/GD32VW55x_RELEASE_V1.0.2/MSDK/wpa_supplicant/src/utils\common.c **** 	/* Estimate 2^32/10^6 = 4295 - 1/32 - 1/512 */
 1069              		.loc 1 252 2 is_stmt 1
 254:C:/Users/stapi/OneDrive/Desktop/GD32VW553/V1_MQTT_OK/GD32VW55X_Wifi_BLE_SDK/GD32VW55x_RELEASE_V1.0.2/MSDK/wpa_supplicant/src/utils\common.c **** 	usec = 4295 * usec - (usec >> 5) - (usec >> 9);
 1070              		.loc 1 254 2
 254:C:/Users/stapi/OneDrive/Desktop/GD32VW553/V1_MQTT_OK/GD32VW55X_Wifi_BLE_SDK/GD32VW55x_RELEASE_V1.0.2/MSDK/wpa_supplicant/src/utils\common.c **** 	usec = 4295 * usec - (usec >> 5) - (usec >> 9);
 1071              		.loc 1 254 7 is_stmt 0
 1072 0016 B247     		lw	a5,12(sp)
 1073              	.LVL122:
 255:C:/Users/stapi/OneDrive/Desktop/GD32VW553/V1_MQTT_OK/GD32VW55X_Wifi_BLE_SDK/GD32VW55x_RELEASE_V1.0.2/MSDK/wpa_supplicant/src/utils\common.c **** 	tmp = host_to_be32(sec);
 1074              		.loc 1 255 2 is_stmt 1
 255:C:/Users/stapi/OneDrive/Desktop/GD32VW553/V1_MQTT_OK/GD32VW55X_Wifi_BLE_SDK/GD32VW55x_RELEASE_V1.0.2/MSDK/wpa_supplicant/src/utils\common.c **** 	tmp = host_to_be32(sec);
 1075              		.loc 1 255 14 is_stmt 0
 1076 0018 0564     		li	s0,4096
 1077 001a 1304740C 		addi	s0,s0,199
 1078 001e 33848702 		mul	s0,a5,s0
 255:C:/Users/stapi/OneDrive/Desktop/GD32VW553/V1_MQTT_OK/GD32VW55X_Wifi_BLE_SDK/GD32VW55x_RELEASE_V1.0.2/MSDK/wpa_supplicant/src/utils\common.c **** 	tmp = host_to_be32(sec);
 1079              		.loc 1 255 29
 1080 0022 13D75700 		srli	a4,a5,5
 255:C:/Users/stapi/OneDrive/Desktop/GD32VW553/V1_MQTT_OK/GD32VW55X_Wifi_BLE_SDK/GD32VW55x_RELEASE_V1.0.2/MSDK/wpa_supplicant/src/utils\common.c **** 	tmp = host_to_be32(sec);
 1081              		.loc 1 255 43
 1082 0026 A583     		srli	a5,a5,9
 1083              	.LVL123:
 1084 0028 BA97     		add	a5,a4,a5
 252:C:/Users/stapi/OneDrive/Desktop/GD32VW553/V1_MQTT_OK/GD32VW55X_Wifi_BLE_SDK/GD32VW55x_RELEASE_V1.0.2/MSDK/wpa_supplicant/src/utils\common.c **** 	/* Estimate 2^32/10^6 = 4295 - 1/32 - 1/512 */
 1085              		.loc 1 252 6
 1086 002a 3787AA83 		li	a4,-2085978112
 1087 002e 130707E8 		addi	a4,a4,-384
 257:C:/Users/stapi/OneDrive/Desktop/GD32VW553/V1_MQTT_OK/GD32VW55X_Wifi_BLE_SDK/GD32VW55x_RELEASE_V1.0.2/MSDK/wpa_supplicant/src/utils\common.c **** 	tmp = host_to_be32(usec);
 1088              		.loc 1 257 2
 1089 0032 4C00     		addi	a1,sp,4
 1090 0034 1146     		li	a2,4
 1091 0036 2685     		mv	a0,s1
 255:C:/Users/stapi/OneDrive/Desktop/GD32VW553/V1_MQTT_OK/GD32VW55X_Wifi_BLE_SDK/GD32VW55x_RELEASE_V1.0.2/MSDK/wpa_supplicant/src/utils\common.c **** 	tmp = host_to_be32(sec);
 1092              		.loc 1 255 7
 1093 0038 1D8C     		sub	s0,s0,a5
 1094              	.LVL124:
 256:C:/Users/stapi/OneDrive/Desktop/GD32VW553/V1_MQTT_OK/GD32VW55X_Wifi_BLE_SDK/GD32VW55x_RELEASE_V1.0.2/MSDK/wpa_supplicant/src/utils\common.c **** 	os_memcpy(buf, (u8 *) &tmp, 4);
 1095              		.loc 1 256 2 is_stmt 1
 1096              		.file 3 "..\\..\\..\\..\\wpa_supplicant\\src/utils/common.h"
   1:..\..\..\..\wpa_supplicant\src/utils/common.h **** /*
   2:..\..\..\..\wpa_supplicant\src/utils/common.h ****  * wpa_supplicant/hostapd / common helper functions, etc.
   3:..\..\..\..\wpa_supplicant\src/utils/common.h ****  * Copyright (c) 2002-2007, Jouni Malinen <j@w1.fi>
   4:..\..\..\..\wpa_supplicant\src/utils/common.h ****  *
   5:..\..\..\..\wpa_supplicant\src/utils/common.h ****  * This software may be distributed under the terms of the BSD license.
   6:..\..\..\..\wpa_supplicant\src/utils/common.h ****  * See README for more details.
   7:..\..\..\..\wpa_supplicant\src/utils/common.h ****  */
   8:..\..\..\..\wpa_supplicant\src/utils/common.h **** 
   9:..\..\..\..\wpa_supplicant\src/utils/common.h **** #ifndef COMMON_H
  10:..\..\..\..\wpa_supplicant\src/utils/common.h **** #define COMMON_H
  11:..\..\..\..\wpa_supplicant\src/utils/common.h **** 
  12:..\..\..\..\wpa_supplicant\src/utils/common.h **** #include "os.h"
  13:..\..\..\..\wpa_supplicant\src/utils/common.h **** 
  14:..\..\..\..\wpa_supplicant\src/utils/common.h **** #if defined(__linux__) || defined(__GLIBC__)
  15:..\..\..\..\wpa_supplicant\src/utils/common.h **** #include <endian.h>
  16:..\..\..\..\wpa_supplicant\src/utils/common.h **** #include <byteswap.h>
  17:..\..\..\..\wpa_supplicant\src/utils/common.h **** #endif /* __linux__ */
  18:..\..\..\..\wpa_supplicant\src/utils/common.h **** 
  19:..\..\..\..\wpa_supplicant\src/utils/common.h **** #if defined(__FreeBSD__) || defined(__NetBSD__) || defined(__DragonFly__) || \
  20:..\..\..\..\wpa_supplicant\src/utils/common.h ****     defined(__OpenBSD__)
  21:..\..\..\..\wpa_supplicant\src/utils/common.h **** #include <sys/types.h>
  22:..\..\..\..\wpa_supplicant\src/utils/common.h **** #include <sys/endian.h>
  23:..\..\..\..\wpa_supplicant\src/utils/common.h **** #define __BYTE_ORDER	_BYTE_ORDER
  24:..\..\..\..\wpa_supplicant\src/utils/common.h **** #define	__LITTLE_ENDIAN	_LITTLE_ENDIAN
  25:..\..\..\..\wpa_supplicant\src/utils/common.h **** #define	__BIG_ENDIAN	_BIG_ENDIAN
  26:..\..\..\..\wpa_supplicant\src/utils/common.h **** #ifdef __OpenBSD__
  27:..\..\..\..\wpa_supplicant\src/utils/common.h **** #define bswap_16 swap16
  28:..\..\..\..\wpa_supplicant\src/utils/common.h **** #define bswap_32 swap32
  29:..\..\..\..\wpa_supplicant\src/utils/common.h **** #define bswap_64 swap64
  30:..\..\..\..\wpa_supplicant\src/utils/common.h **** #else /* __OpenBSD__ */
  31:..\..\..\..\wpa_supplicant\src/utils/common.h **** #define bswap_16 bswap16
  32:..\..\..\..\wpa_supplicant\src/utils/common.h **** #define bswap_32 bswap32
  33:..\..\..\..\wpa_supplicant\src/utils/common.h **** #define bswap_64 bswap64
  34:..\..\..\..\wpa_supplicant\src/utils/common.h **** #endif /* __OpenBSD__ */
  35:..\..\..\..\wpa_supplicant\src/utils/common.h **** #endif /* defined(__FreeBSD__) || defined(__NetBSD__) ||
  36:..\..\..\..\wpa_supplicant\src/utils/common.h **** 	* defined(__DragonFly__) || defined(__OpenBSD__) */
  37:..\..\..\..\wpa_supplicant\src/utils/common.h **** 
  38:..\..\..\..\wpa_supplicant\src/utils/common.h **** #ifdef __APPLE__
  39:..\..\..\..\wpa_supplicant\src/utils/common.h **** #include <sys/types.h>
  40:..\..\..\..\wpa_supplicant\src/utils/common.h **** #include <machine/endian.h>
  41:..\..\..\..\wpa_supplicant\src/utils/common.h **** #define __BYTE_ORDER	_BYTE_ORDER
  42:..\..\..\..\wpa_supplicant\src/utils/common.h **** #define __LITTLE_ENDIAN	_LITTLE_ENDIAN
  43:..\..\..\..\wpa_supplicant\src/utils/common.h **** #define __BIG_ENDIAN	_BIG_ENDIAN
  44:..\..\..\..\wpa_supplicant\src/utils/common.h **** static inline unsigned short bswap_16(unsigned short v)
  45:..\..\..\..\wpa_supplicant\src/utils/common.h **** {
  46:..\..\..\..\wpa_supplicant\src/utils/common.h **** 	return ((v & 0xff) << 8) | (v >> 8);
  47:..\..\..\..\wpa_supplicant\src/utils/common.h **** }
  48:..\..\..\..\wpa_supplicant\src/utils/common.h **** 
  49:..\..\..\..\wpa_supplicant\src/utils/common.h **** static inline unsigned int bswap_32(unsigned int v)
  50:..\..\..\..\wpa_supplicant\src/utils/common.h **** {
  51:..\..\..\..\wpa_supplicant\src/utils/common.h **** 	return ((v & 0xff) << 24) | ((v & 0xff00) << 8) |
  52:..\..\..\..\wpa_supplicant\src/utils/common.h **** 		((v & 0xff0000) >> 8) | (v >> 24);
  53:..\..\..\..\wpa_supplicant\src/utils/common.h **** }
  54:..\..\..\..\wpa_supplicant\src/utils/common.h **** #endif /* __APPLE__ */
  55:..\..\..\..\wpa_supplicant\src/utils/common.h **** 
  56:..\..\..\..\wpa_supplicant\src/utils/common.h **** #ifdef CONFIG_GDWIFI
  57:..\..\..\..\wpa_supplicant\src/utils/common.h **** // #include <sys/types.h>
  58:..\..\..\..\wpa_supplicant\src/utils/common.h **** // #include <machine/endian.h>
  59:..\..\..\..\wpa_supplicant\src/utils/common.h **** #define __BYTE_ORDER	BYTE_ORDER
  60:..\..\..\..\wpa_supplicant\src/utils/common.h **** #define __LITTLE_ENDIAN	LITTLE_ENDIAN
  61:..\..\..\..\wpa_supplicant\src/utils/common.h **** #define __BIG_ENDIAN	BIG_ENDIAN
  62:..\..\..\..\wpa_supplicant\src/utils/common.h **** #define ETHER_ADDR_LEN	6
  63:..\..\..\..\wpa_supplicant\src/utils/common.h **** #define ETH_P_802_3	0x0001		/* Dummy type for 802.3 frames  */
  64:..\..\..\..\wpa_supplicant\src/utils/common.h **** 
  65:..\..\..\..\wpa_supplicant\src/utils/common.h **** static inline unsigned short bswap_16(unsigned short v)
  66:..\..\..\..\wpa_supplicant\src/utils/common.h **** {
  67:..\..\..\..\wpa_supplicant\src/utils/common.h **** 	return ((v & 0xff) << 8) | (v >> 8);
  68:..\..\..\..\wpa_supplicant\src/utils/common.h **** }
  69:..\..\..\..\wpa_supplicant\src/utils/common.h **** 
  70:..\..\..\..\wpa_supplicant\src/utils/common.h **** static inline unsigned int bswap_32(unsigned int v)
  71:..\..\..\..\wpa_supplicant\src/utils/common.h **** {
  72:..\..\..\..\wpa_supplicant\src/utils/common.h **** 	return ((v & 0xff) << 24) | ((v & 0xff00) << 8) |
 1097              		.loc 3 72 2
 252:C:/Users/stapi/OneDrive/Desktop/GD32VW553/V1_MQTT_OK/GD32VW55X_Wifi_BLE_SDK/GD32VW55x_RELEASE_V1.0.2/MSDK/wpa_supplicant/src/utils\common.c **** 	/* Estimate 2^32/10^6 = 4295 - 1/32 - 1/512 */
 1098              		.loc 1 252 6 is_stmt 0
 1099 003a A247     		lw	a5,8(sp)
 1100 003c 13548469 		rev8	s0,s0
 1101              	.LVL125:
 1102 0040 BA97     		add	a5,a5,a4
 1103 0042 93D78769 		rev8	a5,a5
 1104              	.LVL126:
 256:C:/Users/stapi/OneDrive/Desktop/GD32VW553/V1_MQTT_OK/GD32VW55X_Wifi_BLE_SDK/GD32VW55x_RELEASE_V1.0.2/MSDK/wpa_supplicant/src/utils\common.c **** 	os_memcpy(buf, (u8 *) &tmp, 4);
 1105              		.loc 1 256 6
 1106 0046 3EC2     		sw	a5,4(sp)
 257:C:/Users/stapi/OneDrive/Desktop/GD32VW553/V1_MQTT_OK/GD32VW55X_Wifi_BLE_SDK/GD32VW55x_RELEASE_V1.0.2/MSDK/wpa_supplicant/src/utils\common.c **** 	tmp = host_to_be32(usec);
 1107              		.loc 1 257 2 is_stmt 1
 1108 0048 97000000 		call	os_memcpy
 1108      E7800000 
 1109              	.LVL127:
 258:C:/Users/stapi/OneDrive/Desktop/GD32VW553/V1_MQTT_OK/GD32VW55X_Wifi_BLE_SDK/GD32VW55x_RELEASE_V1.0.2/MSDK/wpa_supplicant/src/utils\common.c **** 	os_memcpy(buf + 4, (u8 *) &tmp, 4);
 1110              		.loc 1 258 2
 1111              		.loc 3 72 2
 259:C:/Users/stapi/OneDrive/Desktop/GD32VW553/V1_MQTT_OK/GD32VW55X_Wifi_BLE_SDK/GD32VW55x_RELEASE_V1.0.2/MSDK/wpa_supplicant/src/utils\common.c **** }
 1112              		.loc 1 259 2 is_stmt 0
 1113 0050 4C00     		addi	a1,sp,4
 1114 0052 1146     		li	a2,4
 1115 0054 13854400 		addi	a0,s1,4
 258:C:/Users/stapi/OneDrive/Desktop/GD32VW553/V1_MQTT_OK/GD32VW55X_Wifi_BLE_SDK/GD32VW55x_RELEASE_V1.0.2/MSDK/wpa_supplicant/src/utils\common.c **** 	os_memcpy(buf + 4, (u8 *) &tmp, 4);
 1116              		.loc 1 258 6
 1117 0058 22C2     		sw	s0,4(sp)
 259:C:/Users/stapi/OneDrive/Desktop/GD32VW553/V1_MQTT_OK/GD32VW55X_Wifi_BLE_SDK/GD32VW55x_RELEASE_V1.0.2/MSDK/wpa_supplicant/src/utils\common.c **** }
 1118              		.loc 1 259 2 is_stmt 1
 1119 005a 97000000 		call	os_memcpy
 1119      E7800000 
 1120              	.LVL128:
 260:C:/Users/stapi/OneDrive/Desktop/GD32VW553/V1_MQTT_OK/GD32VW55X_Wifi_BLE_SDK/GD32VW55x_RELEASE_V1.0.2/MSDK/wpa_supplicant/src/utils\common.c **** 
 1121              		.loc 1 260 1 is_stmt 0
 1122 0062 4101     		addi	sp,sp,16
 1123              		.cfi_def_cfa_offset 0
 1124 0064 17030000 		tail	__riscv_restore_2
 1124      67000300 
 1125              		.cfi_restore 9
 1126              		.cfi_restore 8
 1127              		.cfi_restore 1
 1128              		.cfi_def_cfa_offset -16
 1129              		.cfi_endproc
 1130              	.LFE82:
 1132              		.section	.text.wpa_scnprintf,"ax",@progbits
 1133              		.align	1
 1134              		.globl	wpa_scnprintf
 1136              	wpa_scnprintf:
 1137              	.LFB83:
 273:C:/Users/stapi/OneDrive/Desktop/GD32VW553/V1_MQTT_OK/GD32VW55X_Wifi_BLE_SDK/GD32VW55x_RELEASE_V1.0.2/MSDK/wpa_supplicant/src/utils\common.c **** 	va_list ap;
 1138              		.loc 1 273 1 is_stmt 1
 1139              		.cfi_startproc
 1140              	.LVL129:
 274:C:/Users/stapi/OneDrive/Desktop/GD32VW553/V1_MQTT_OK/GD32VW55X_Wifi_BLE_SDK/GD32VW55x_RELEASE_V1.0.2/MSDK/wpa_supplicant/src/utils\common.c **** 	int ret;
 1141              		.loc 1 274 2
 275:C:/Users/stapi/OneDrive/Desktop/GD32VW553/V1_MQTT_OK/GD32VW55X_Wifi_BLE_SDK/GD32VW55x_RELEASE_V1.0.2/MSDK/wpa_supplicant/src/utils\common.c **** 
 1142              		.loc 1 275 2
 277:C:/Users/stapi/OneDrive/Desktop/GD32VW553/V1_MQTT_OK/GD32VW55X_Wifi_BLE_SDK/GD32VW55x_RELEASE_V1.0.2/MSDK/wpa_supplicant/src/utils\common.c **** 		return 0;
 1143              		.loc 1 277 2
 273:C:/Users/stapi/OneDrive/Desktop/GD32VW553/V1_MQTT_OK/GD32VW55X_Wifi_BLE_SDK/GD32VW55x_RELEASE_V1.0.2/MSDK/wpa_supplicant/src/utils\common.c **** 	va_list ap;
 1144              		.loc 1 273 1 is_stmt 0
 1145 0000 3971     		addi	sp,sp,-64
 1146              		.cfi_def_cfa_offset 64
 1147 0002 06CE     		sw	ra,28(sp)
 1148 0004 22CC     		sw	s0,24(sp)
 1149              		.cfi_offset 1, -36
 1150              		.cfi_offset 8, -40
 273:C:/Users/stapi/OneDrive/Desktop/GD32VW553/V1_MQTT_OK/GD32VW55X_Wifi_BLE_SDK/GD32VW55x_RELEASE_V1.0.2/MSDK/wpa_supplicant/src/utils\common.c **** 	va_list ap;
 1151              		.loc 1 273 1
 1152 0006 36D6     		sw	a3,44(sp)
 1153 0008 3AD8     		sw	a4,48(sp)
 1154 000a 3EDA     		sw	a5,52(sp)
 1155 000c 42DC     		sw	a6,56(sp)
 1156 000e 46DE     		sw	a7,60(sp)
 277:C:/Users/stapi/OneDrive/Desktop/GD32VW553/V1_MQTT_OK/GD32VW55X_Wifi_BLE_SDK/GD32VW55x_RELEASE_V1.0.2/MSDK/wpa_supplicant/src/utils\common.c **** 		return 0;
 1157              		.loc 1 277 5
 1158 0010 91E5     		bne	a1,zero,.L95
 1159              	.LVL130:
 1160              	.L97:
 278:C:/Users/stapi/OneDrive/Desktop/GD32VW553/V1_MQTT_OK/GD32VW55X_Wifi_BLE_SDK/GD32VW55x_RELEASE_V1.0.2/MSDK/wpa_supplicant/src/utils\common.c **** 
 1161              		.loc 1 278 10
 1162 0012 0145     		li	a0,0
 1163              	.L94:
 290:C:/Users/stapi/OneDrive/Desktop/GD32VW553/V1_MQTT_OK/GD32VW55X_Wifi_BLE_SDK/GD32VW55x_RELEASE_V1.0.2/MSDK/wpa_supplicant/src/utils\common.c **** 
 1164              		.loc 1 290 1
 1165 0014 F240     		lw	ra,28(sp)
 1166              		.cfi_remember_state
 1167              		.cfi_restore 1
 1168 0016 6244     		lw	s0,24(sp)
 1169              		.cfi_restore 8
 1170 0018 2161     		addi	sp,sp,64
 1171              		.cfi_def_cfa_offset 0
 1172 001a 8280     		jr	ra
 1173              	.LVL131:
 1174              	.L95:
 1175              		.cfi_restore_state
 280:C:/Users/stapi/OneDrive/Desktop/GD32VW553/V1_MQTT_OK/GD32VW55X_Wifi_BLE_SDK/GD32VW55x_RELEASE_V1.0.2/MSDK/wpa_supplicant/src/utils\common.c **** 	ret = vsnprintf(buf, size, fmt, ap);
 1176              		.loc 1 280 2
 1177 001c 7810     		addi	a4,sp,44
 281:C:/Users/stapi/OneDrive/Desktop/GD32VW553/V1_MQTT_OK/GD32VW55X_Wifi_BLE_SDK/GD32VW55x_RELEASE_V1.0.2/MSDK/wpa_supplicant/src/utils\common.c **** 	va_end(ap);
 1178              		.loc 1 281 8
 1179 001e B286     		mv	a3,a2
 1180 0020 0146     		li	a2,0
 1181              	.LVL132:
 1182 0022 2E84     		mv	s0,a1
 280:C:/Users/stapi/OneDrive/Desktop/GD32VW553/V1_MQTT_OK/GD32VW55X_Wifi_BLE_SDK/GD32VW55x_RELEASE_V1.0.2/MSDK/wpa_supplicant/src/utils\common.c **** 	ret = vsnprintf(buf, size, fmt, ap);
 1183              		.loc 1 280 2 is_stmt 1
 1184 0024 3AC6     		sw	a4,12(sp)
 281:C:/Users/stapi/OneDrive/Desktop/GD32VW553/V1_MQTT_OK/GD32VW55X_Wifi_BLE_SDK/GD32VW55x_RELEASE_V1.0.2/MSDK/wpa_supplicant/src/utils\common.c **** 	va_end(ap);
 1185              		.loc 1 281 2
 281:C:/Users/stapi/OneDrive/Desktop/GD32VW553/V1_MQTT_OK/GD32VW55X_Wifi_BLE_SDK/GD32VW55x_RELEASE_V1.0.2/MSDK/wpa_supplicant/src/utils\common.c **** 	va_end(ap);
 1186              		.loc 1 281 8 is_stmt 0
 1187 0026 97000000 		call	dbg_vsnprintf_offset
 1187      E7800000 
 1188              	.LVL133:
 282:C:/Users/stapi/OneDrive/Desktop/GD32VW553/V1_MQTT_OK/GD32VW55X_Wifi_BLE_SDK/GD32VW55x_RELEASE_V1.0.2/MSDK/wpa_supplicant/src/utils\common.c **** 
 1189              		.loc 1 282 2 is_stmt 1
 284:C:/Users/stapi/OneDrive/Desktop/GD32VW553/V1_MQTT_OK/GD32VW55X_Wifi_BLE_SDK/GD32VW55x_RELEASE_V1.0.2/MSDK/wpa_supplicant/src/utils\common.c **** 		return 0;
 1190              		.loc 1 284 2
 284:C:/Users/stapi/OneDrive/Desktop/GD32VW553/V1_MQTT_OK/GD32VW55X_Wifi_BLE_SDK/GD32VW55x_RELEASE_V1.0.2/MSDK/wpa_supplicant/src/utils\common.c **** 		return 0;
 1191              		.loc 1 284 5 is_stmt 0
 1192 002e E34205FE 		blt	a0,zero,.L97
 286:C:/Users/stapi/OneDrive/Desktop/GD32VW553/V1_MQTT_OK/GD32VW55X_Wifi_BLE_SDK/GD32VW55x_RELEASE_V1.0.2/MSDK/wpa_supplicant/src/utils\common.c **** 		return size - 1;
 1193              		.loc 1 286 2 is_stmt 1
 286:C:/Users/stapi/OneDrive/Desktop/GD32VW553/V1_MQTT_OK/GD32VW55X_Wifi_BLE_SDK/GD32VW55x_RELEASE_V1.0.2/MSDK/wpa_supplicant/src/utils\common.c **** 		return size - 1;
 1194              		.loc 1 286 5 is_stmt 0
 1195 0032 E36185FE 		bltu	a0,s0,.L94
 287:C:/Users/stapi/OneDrive/Desktop/GD32VW553/V1_MQTT_OK/GD32VW55X_Wifi_BLE_SDK/GD32VW55x_RELEASE_V1.0.2/MSDK/wpa_supplicant/src/utils\common.c **** 
 1196              		.loc 1 287 3 is_stmt 1
 287:C:/Users/stapi/OneDrive/Desktop/GD32VW553/V1_MQTT_OK/GD32VW55X_Wifi_BLE_SDK/GD32VW55x_RELEASE_V1.0.2/MSDK/wpa_supplicant/src/utils\common.c **** 
 1197              		.loc 1 287 15 is_stmt 0
 1198 0036 1305F4FF 		addi	a0,s0,-1
 1199              	.LVL134:
 1200 003a E9BF     		j	.L94
 1201              		.cfi_endproc
 1202              	.LFE83:
 1204              		.section	.rodata.wpa_snprintf_hex_sep.str1.4,"aMS",@progbits,1
 1205              		.align	2
 1206              	.LC4:
 1207 0000 25303278 		.string	"%02x%c"
 1207      256300
 1208              		.section	.text.wpa_snprintf_hex_sep,"ax",@progbits
 1209              		.align	1
 1210              		.globl	wpa_snprintf_hex_sep
 1212              	wpa_snprintf_hex_sep:
 1213              	.LFB84:
 295:C:/Users/stapi/OneDrive/Desktop/GD32VW553/V1_MQTT_OK/GD32VW55X_Wifi_BLE_SDK/GD32VW55x_RELEASE_V1.0.2/MSDK/wpa_supplicant/src/utils\common.c **** 	size_t i;
 1214              		.loc 1 295 1 is_stmt 1
 1215              		.cfi_startproc
 1216              	.LVL135:
 296:C:/Users/stapi/OneDrive/Desktop/GD32VW553/V1_MQTT_OK/GD32VW55X_Wifi_BLE_SDK/GD32VW55x_RELEASE_V1.0.2/MSDK/wpa_supplicant/src/utils\common.c **** 	char *pos = buf, *end = buf + buf_size;
 1217              		.loc 1 296 2
 297:C:/Users/stapi/OneDrive/Desktop/GD32VW553/V1_MQTT_OK/GD32VW55X_Wifi_BLE_SDK/GD32VW55x_RELEASE_V1.0.2/MSDK/wpa_supplicant/src/utils\common.c **** 	int ret;
 1218              		.loc 1 297 2
 298:C:/Users/stapi/OneDrive/Desktop/GD32VW553/V1_MQTT_OK/GD32VW55X_Wifi_BLE_SDK/GD32VW55x_RELEASE_V1.0.2/MSDK/wpa_supplicant/src/utils\common.c **** 
 1219              		.loc 1 298 2
 300:C:/Users/stapi/OneDrive/Desktop/GD32VW553/V1_MQTT_OK/GD32VW55X_Wifi_BLE_SDK/GD32VW55x_RELEASE_V1.0.2/MSDK/wpa_supplicant/src/utils\common.c **** 		return 0;
 1220              		.loc 1 300 2
 300:C:/Users/stapi/OneDrive/Desktop/GD32VW553/V1_MQTT_OK/GD32VW55X_Wifi_BLE_SDK/GD32VW55x_RELEASE_V1.0.2/MSDK/wpa_supplicant/src/utils\common.c **** 		return 0;
 1221              		.loc 1 300 5 is_stmt 0
 1222 0000 A5C1     		beq	a1,zero,.L104
 295:C:/Users/stapi/OneDrive/Desktop/GD32VW553/V1_MQTT_OK/GD32VW55X_Wifi_BLE_SDK/GD32VW55x_RELEASE_V1.0.2/MSDK/wpa_supplicant/src/utils\common.c **** 	size_t i;
 1223              		.loc 1 295 1
 1224 0002 17030000 		call	t0,__riscv_save_8
 1224      E7020300 
 1225              		.cfi_offset 23, -36
 1226              		.cfi_offset 22, -32
 1227              		.cfi_offset 21, -28
 1228              		.cfi_offset 20, -24
 1229              		.cfi_offset 19, -20
 1230              		.cfi_offset 18, -16
 1231              		.cfi_offset 9, -12
 1232              		.cfi_offset 8, -8
 1233              		.cfi_offset 1, -4
 1234              		.cfi_def_cfa_offset 48
 1235 000a AA89     		mv	s3,a0
 1236 000c B284     		mv	s1,a2
 1237 000e BA8A     		mv	s5,a4
 297:C:/Users/stapi/OneDrive/Desktop/GD32VW553/V1_MQTT_OK/GD32VW55X_Wifi_BLE_SDK/GD32VW55x_RELEASE_V1.0.2/MSDK/wpa_supplicant/src/utils\common.c **** 	int ret;
 1238              		.loc 1 297 20
 1239 0010 3309B500 		add	s2,a0,a1
 1240 0014 330AD600 		add	s4,a2,a3
 297:C:/Users/stapi/OneDrive/Desktop/GD32VW553/V1_MQTT_OK/GD32VW55X_Wifi_BLE_SDK/GD32VW55x_RELEASE_V1.0.2/MSDK/wpa_supplicant/src/utils\common.c **** 	int ret;
 1241              		.loc 1 297 8
 1242 0018 2A84     		mv	s0,a0
 304:C:/Users/stapi/OneDrive/Desktop/GD32VW553/V1_MQTT_OK/GD32VW55X_Wifi_BLE_SDK/GD32VW55x_RELEASE_V1.0.2/MSDK/wpa_supplicant/src/utils\common.c **** 				  data[i], sep);
 1243              		.loc 1 304 9
 1244 001a B70B0000 		lui	s7,%hi(.LC4)
 1245              	.LVL136:
 1246              	.L101:
 303:C:/Users/stapi/OneDrive/Desktop/GD32VW553/V1_MQTT_OK/GD32VW55X_Wifi_BLE_SDK/GD32VW55x_RELEASE_V1.0.2/MSDK/wpa_supplicant/src/utils\common.c **** 		ret = os_snprintf(pos, end - pos, "%02x%c",
 1247              		.loc 1 303 14 is_stmt 1 discriminator 1
 303:C:/Users/stapi/OneDrive/Desktop/GD32VW553/V1_MQTT_OK/GD32VW55X_Wifi_BLE_SDK/GD32VW55x_RELEASE_V1.0.2/MSDK/wpa_supplicant/src/utils\common.c **** 		ret = os_snprintf(pos, end - pos, "%02x%c",
 1248              		.loc 1 303 2 is_stmt 0 discriminator 1
 1249 001e 63954401 		bne	s1,s4,.L103
 312:C:/Users/stapi/OneDrive/Desktop/GD32VW553/V1_MQTT_OK/GD32VW55X_Wifi_BLE_SDK/GD32VW55x_RELEASE_V1.0.2/MSDK/wpa_supplicant/src/utils\common.c **** 	return pos - buf;
 1250              		.loc 1 312 2 is_stmt 1
 312:C:/Users/stapi/OneDrive/Desktop/GD32VW553/V1_MQTT_OK/GD32VW55X_Wifi_BLE_SDK/GD32VW55x_RELEASE_V1.0.2/MSDK/wpa_supplicant/src/utils\common.c **** 	return pos - buf;
 1251              		.loc 1 312 10 is_stmt 0
 1252 0022 A30F04FE 		sb	zero,-1(s0)
 1253 0026 3DA0     		j	.L109
 1254              	.L103:
 304:C:/Users/stapi/OneDrive/Desktop/GD32VW553/V1_MQTT_OK/GD32VW55X_Wifi_BLE_SDK/GD32VW55x_RELEASE_V1.0.2/MSDK/wpa_supplicant/src/utils\common.c **** 				  data[i], sep);
 1255              		.loc 1 304 3 is_stmt 1
 304:C:/Users/stapi/OneDrive/Desktop/GD32VW553/V1_MQTT_OK/GD32VW55X_Wifi_BLE_SDK/GD32VW55x_RELEASE_V1.0.2/MSDK/wpa_supplicant/src/utils\common.c **** 				  data[i], sep);
 1256              		.loc 1 304 9 is_stmt 0
 1257 0028 83C60400 		lbu	a3,0(s1)
 304:C:/Users/stapi/OneDrive/Desktop/GD32VW553/V1_MQTT_OK/GD32VW55X_Wifi_BLE_SDK/GD32VW55x_RELEASE_V1.0.2/MSDK/wpa_supplicant/src/utils\common.c **** 				  data[i], sep);
 1258              		.loc 1 304 30
 1259 002c 330B8940 		sub	s6,s2,s0
 304:C:/Users/stapi/OneDrive/Desktop/GD32VW553/V1_MQTT_OK/GD32VW55X_Wifi_BLE_SDK/GD32VW55x_RELEASE_V1.0.2/MSDK/wpa_supplicant/src/utils\common.c **** 				  data[i], sep);
 1260              		.loc 1 304 9
 1261 0030 5687     		mv	a4,s5
 1262 0032 13860B00 		addi	a2,s7,%lo(.LC4)
 1263 0036 DA85     		mv	a1,s6
 1264 0038 2285     		mv	a0,s0
 1265 003a 97000000 		call	os_snprintf
 1265      E7800000 
 1266              	.LVL137:
 306:C:/Users/stapi/OneDrive/Desktop/GD32VW553/V1_MQTT_OK/GD32VW55X_Wifi_BLE_SDK/GD32VW55x_RELEASE_V1.0.2/MSDK/wpa_supplicant/src/utils\common.c **** 			end[-1] = '\0';
 1267              		.loc 1 306 3 is_stmt 1
 1268              	.LBB27:
 1269              	.LBB28:
 1270              		.loc 2 561 2
 1271              		.loc 2 561 17 is_stmt 0
 1272 0042 63470500 		blt	a0,zero,.L102
 1273 0046 8504     		addi	s1,s1,1
 1274              	.LVL138:
 1275 0048 63746501 		bleu	s6,a0,.L102
 1276              	.LVL139:
 1277              	.LBE28:
 1278              	.LBE27:
 310:C:/Users/stapi/OneDrive/Desktop/GD32VW553/V1_MQTT_OK/GD32VW55X_Wifi_BLE_SDK/GD32VW55x_RELEASE_V1.0.2/MSDK/wpa_supplicant/src/utils\common.c **** 	}
 1279              		.loc 1 310 3 is_stmt 1
 310:C:/Users/stapi/OneDrive/Desktop/GD32VW553/V1_MQTT_OK/GD32VW55X_Wifi_BLE_SDK/GD32VW55x_RELEASE_V1.0.2/MSDK/wpa_supplicant/src/utils\common.c **** 	}
 1280              		.loc 1 310 7 is_stmt 0
 1281 004c 2A94     		add	s0,s0,a0
 1282              	.LVL140:
 303:C:/Users/stapi/OneDrive/Desktop/GD32VW553/V1_MQTT_OK/GD32VW55X_Wifi_BLE_SDK/GD32VW55x_RELEASE_V1.0.2/MSDK/wpa_supplicant/src/utils\common.c **** 		ret = os_snprintf(pos, end - pos, "%02x%c",
 1283              		.loc 1 303 23 is_stmt 1
 1284 004e C1BF     		j	.L101
 1285              	.LVL141:
 1286              	.L102:
 307:C:/Users/stapi/OneDrive/Desktop/GD32VW553/V1_MQTT_OK/GD32VW55X_Wifi_BLE_SDK/GD32VW55x_RELEASE_V1.0.2/MSDK/wpa_supplicant/src/utils\common.c **** 			return pos - buf;
 1287              		.loc 1 307 4
 307:C:/Users/stapi/OneDrive/Desktop/GD32VW553/V1_MQTT_OK/GD32VW55X_Wifi_BLE_SDK/GD32VW55x_RELEASE_V1.0.2/MSDK/wpa_supplicant/src/utils\common.c **** 			return pos - buf;
 1288              		.loc 1 307 12 is_stmt 0
 1289 0050 A30F09FE 		sb	zero,-1(s2)
 308:C:/Users/stapi/OneDrive/Desktop/GD32VW553/V1_MQTT_OK/GD32VW55X_Wifi_BLE_SDK/GD32VW55x_RELEASE_V1.0.2/MSDK/wpa_supplicant/src/utils\common.c **** 		}
 1290              		.loc 1 308 4 is_stmt 1
 1291              	.LVL142:
 1292              	.L109:
 313:C:/Users/stapi/OneDrive/Desktop/GD32VW553/V1_MQTT_OK/GD32VW55X_Wifi_BLE_SDK/GD32VW55x_RELEASE_V1.0.2/MSDK/wpa_supplicant/src/utils\common.c **** }
 1293              		.loc 1 313 2
 313:C:/Users/stapi/OneDrive/Desktop/GD32VW553/V1_MQTT_OK/GD32VW55X_Wifi_BLE_SDK/GD32VW55x_RELEASE_V1.0.2/MSDK/wpa_supplicant/src/utils\common.c **** }
 1294              		.loc 1 313 13 is_stmt 0
 1295 0054 33053441 		sub	a0,s0,s3
 314:C:/Users/stapi/OneDrive/Desktop/GD32VW553/V1_MQTT_OK/GD32VW55X_Wifi_BLE_SDK/GD32VW55x_RELEASE_V1.0.2/MSDK/wpa_supplicant/src/utils\common.c **** 
 1296              		.loc 1 314 1
 1297 0058 17030000 		tail	__riscv_restore_8
 1297      67000300 
 1298              		.cfi_restore 23
 1299              		.cfi_restore 22
 1300              		.cfi_restore 21
 1301              		.cfi_restore 20
 1302              		.cfi_restore 19
 1303              		.cfi_restore 18
 1304              		.cfi_restore 9
 1305              		.cfi_restore 8
 1306              		.cfi_restore 1
 1307              		.cfi_def_cfa_offset 0
 1308              	.LVL143:
 1309              	.L104:
 301:C:/Users/stapi/OneDrive/Desktop/GD32VW553/V1_MQTT_OK/GD32VW55X_Wifi_BLE_SDK/GD32VW55x_RELEASE_V1.0.2/MSDK/wpa_supplicant/src/utils\common.c **** 
 1310              		.loc 1 301 10
 1311 0060 0145     		li	a0,0
 1312              	.LVL144:
 314:C:/Users/stapi/OneDrive/Desktop/GD32VW553/V1_MQTT_OK/GD32VW55X_Wifi_BLE_SDK/GD32VW55x_RELEASE_V1.0.2/MSDK/wpa_supplicant/src/utils\common.c **** 
 1313              		.loc 1 314 1
 1314 0062 8280     		ret
 1315              		.cfi_endproc
 1316              	.LFE84:
 1318              		.section	.text.wpa_snprintf_hex,"ax",@progbits
 1319              		.align	1
 1320              		.globl	wpa_snprintf_hex
 1322              	wpa_snprintf_hex:
 1323              	.LFB86:
 347:C:/Users/stapi/OneDrive/Desktop/GD32VW553/V1_MQTT_OK/GD32VW55X_Wifi_BLE_SDK/GD32VW55x_RELEASE_V1.0.2/MSDK/wpa_supplicant/src/utils\common.c **** 	return _wpa_snprintf_hex(buf, buf_size, data, len, 0);
 1324              		.loc 1 347 1 is_stmt 1
 1325              		.cfi_startproc
 1326              	.LVL145:
 348:C:/Users/stapi/OneDrive/Desktop/GD32VW553/V1_MQTT_OK/GD32VW55X_Wifi_BLE_SDK/GD32VW55x_RELEASE_V1.0.2/MSDK/wpa_supplicant/src/utils\common.c **** }
 1327              		.loc 1 348 2
 348:C:/Users/stapi/OneDrive/Desktop/GD32VW553/V1_MQTT_OK/GD32VW55X_Wifi_BLE_SDK/GD32VW55x_RELEASE_V1.0.2/MSDK/wpa_supplicant/src/utils\common.c **** }
 1328              		.loc 1 348 9 is_stmt 0
 1329 0000 0147     		li	a4,0
 1330 0002 17030000 		tail	_wpa_snprintf_hex
 1330      67000300 
 1331              	.LVL146:
 1332              		.cfi_endproc
 1333              	.LFE86:
 1335              		.section	.text.wpa_snprintf_hex_uppercase,"ax",@progbits
 1336              		.align	1
 1337              		.globl	wpa_snprintf_hex_uppercase
 1339              	wpa_snprintf_hex_uppercase:
 1340              	.LFB87:
 362:C:/Users/stapi/OneDrive/Desktop/GD32VW553/V1_MQTT_OK/GD32VW55X_Wifi_BLE_SDK/GD32VW55x_RELEASE_V1.0.2/MSDK/wpa_supplicant/src/utils\common.c **** 	return _wpa_snprintf_hex(buf, buf_size, data, len, 1);
 1341              		.loc 1 362 1 is_stmt 1
 1342              		.cfi_startproc
 1343              	.LVL147:
 363:C:/Users/stapi/OneDrive/Desktop/GD32VW553/V1_MQTT_OK/GD32VW55X_Wifi_BLE_SDK/GD32VW55x_RELEASE_V1.0.2/MSDK/wpa_supplicant/src/utils\common.c **** }
 1344              		.loc 1 363 2
 363:C:/Users/stapi/OneDrive/Desktop/GD32VW553/V1_MQTT_OK/GD32VW55X_Wifi_BLE_SDK/GD32VW55x_RELEASE_V1.0.2/MSDK/wpa_supplicant/src/utils\common.c **** }
 1345              		.loc 1 363 9 is_stmt 0
 1346 0000 0547     		li	a4,1
 1347 0002 17030000 		tail	_wpa_snprintf_hex
 1347      67000300 
 1348              	.LVL148:
 1349              		.cfi_endproc
 1350              	.LFE87:
 1352              		.section	.rodata.printf_encode.str1.4,"aMS",@progbits,1
 1353              		.align	2
 1354              	.LC5:
 1355 0000 5C782530 		.string	"\\x%02x"
 1355      327800
 1356              		.section	.text.printf_encode,"ax",@progbits
 1357              		.align	1
 1358              		.globl	printf_encode
 1360              	printf_encode:
 1361              	.LFB88:
 478:C:/Users/stapi/OneDrive/Desktop/GD32VW553/V1_MQTT_OK/GD32VW55X_Wifi_BLE_SDK/GD32VW55x_RELEASE_V1.0.2/MSDK/wpa_supplicant/src/utils\common.c **** 	char *end = txt + maxlen;
 1362              		.loc 1 478 1 is_stmt 1
 1363              		.cfi_startproc
 1364              	.LVL149:
 1365 0000 17030000 		call	t0,__riscv_save_12
 1365      E7020300 
 1366              		.cfi_offset 27, -52
 1367              		.cfi_offset 26, -48
 1368              		.cfi_offset 25, -44
 1369              		.cfi_offset 24, -40
 1370              		.cfi_offset 23, -36
 1371              		.cfi_offset 22, -32
 1372              		.cfi_offset 21, -28
 1373              		.cfi_offset 20, -24
 1374              		.cfi_offset 19, -20
 1375              		.cfi_offset 18, -16
 1376              		.cfi_offset 9, -12
 1377              		.cfi_offset 8, -8
 1378              		.cfi_offset 1, -4
 1379              		.cfi_def_cfa_offset 64
 479:C:/Users/stapi/OneDrive/Desktop/GD32VW553/V1_MQTT_OK/GD32VW55X_Wifi_BLE_SDK/GD32VW55x_RELEASE_V1.0.2/MSDK/wpa_supplicant/src/utils\common.c **** 	size_t i;
 1380              		.loc 1 479 2
 478:C:/Users/stapi/OneDrive/Desktop/GD32VW553/V1_MQTT_OK/GD32VW55X_Wifi_BLE_SDK/GD32VW55x_RELEASE_V1.0.2/MSDK/wpa_supplicant/src/utils\common.c **** 	char *end = txt + maxlen;
 1381              		.loc 1 478 1 is_stmt 0
 1382 0008 2A84     		mv	s0,a0
 479:C:/Users/stapi/OneDrive/Desktop/GD32VW553/V1_MQTT_OK/GD32VW55X_Wifi_BLE_SDK/GD32VW55x_RELEASE_V1.0.2/MSDK/wpa_supplicant/src/utils\common.c **** 	size_t i;
 1383              		.loc 1 479 8
 1384 000a B309B500 		add	s3,a0,a1
 1385              	.LVL150:
 480:C:/Users/stapi/OneDrive/Desktop/GD32VW553/V1_MQTT_OK/GD32VW55X_Wifi_BLE_SDK/GD32VW55x_RELEASE_V1.0.2/MSDK/wpa_supplicant/src/utils\common.c **** 
 1386              		.loc 1 480 2 is_stmt 1
 482:C:/Users/stapi/OneDrive/Desktop/GD32VW553/V1_MQTT_OK/GD32VW55X_Wifi_BLE_SDK/GD32VW55x_RELEASE_V1.0.2/MSDK/wpa_supplicant/src/utils\common.c **** 		if (txt + 4 >= end)
 1387              		.loc 1 482 2
 1388 000e 3289     		mv	s2,a2
 1389 0010 330AD600 		add	s4,a2,a3
 486:C:/Users/stapi/OneDrive/Desktop/GD32VW553/V1_MQTT_OK/GD32VW55X_Wifi_BLE_SDK/GD32VW55x_RELEASE_V1.0.2/MSDK/wpa_supplicant/src/utils\common.c **** 		case '\"':
 1390              		.loc 1 486 3 is_stmt 0
 1391 0014 ED4A     		li	s5,27
 496:C:/Users/stapi/OneDrive/Desktop/GD32VW553/V1_MQTT_OK/GD32VW55X_Wifi_BLE_SDK/GD32VW55x_RELEASE_V1.0.2/MSDK/wpa_supplicant/src/utils\common.c **** 			*txt++ = 'e';
 1392              		.loc 1 496 11
 1393 0016 9304C005 		li	s1,92
 497:C:/Users/stapi/OneDrive/Desktop/GD32VW553/V1_MQTT_OK/GD32VW55X_Wifi_BLE_SDK/GD32VW55x_RELEASE_V1.0.2/MSDK/wpa_supplicant/src/utils\common.c **** 			break;
 1394              		.loc 1 497 11
 1395 001a 930B5006 		li	s7,101
 512:C:/Users/stapi/OneDrive/Desktop/GD32VW553/V1_MQTT_OK/GD32VW55X_Wifi_BLE_SDK/GD32VW55x_RELEASE_V1.0.2/MSDK/wpa_supplicant/src/utils\common.c **** 				*txt++ = data[i];
 1396              		.loc 1 512 7
 1397 001e 130CE005 		li	s8,94
 515:C:/Users/stapi/OneDrive/Desktop/GD32VW553/V1_MQTT_OK/GD32VW55X_Wifi_BLE_SDK/GD32VW55x_RELEASE_V1.0.2/MSDK/wpa_supplicant/src/utils\common.c **** 						   data[i]);
 1398              		.loc 1 515 12
 1399 0022 B70C0000 		lui	s9,%hi(.LC5)
 486:C:/Users/stapi/OneDrive/Desktop/GD32VW553/V1_MQTT_OK/GD32VW55X_Wifi_BLE_SDK/GD32VW55x_RELEASE_V1.0.2/MSDK/wpa_supplicant/src/utils\common.c **** 		case '\"':
 1400              		.loc 1 486 3
 1401 0026 130B2002 		li	s6,34
 1402 002a 294D     		li	s10,10
 501:C:/Users/stapi/OneDrive/Desktop/GD32VW553/V1_MQTT_OK/GD32VW55X_Wifi_BLE_SDK/GD32VW55x_RELEASE_V1.0.2/MSDK/wpa_supplicant/src/utils\common.c **** 			break;
 1403              		.loc 1 501 11
 1404 002c 930DE006 		li	s11,110
 1405              	.LVL151:
 1406              	.L115:
 482:C:/Users/stapi/OneDrive/Desktop/GD32VW553/V1_MQTT_OK/GD32VW55X_Wifi_BLE_SDK/GD32VW55x_RELEASE_V1.0.2/MSDK/wpa_supplicant/src/utils\common.c **** 		if (txt + 4 >= end)
 1407              		.loc 1 482 14 is_stmt 1 discriminator 1
 482:C:/Users/stapi/OneDrive/Desktop/GD32VW553/V1_MQTT_OK/GD32VW55X_Wifi_BLE_SDK/GD32VW55x_RELEASE_V1.0.2/MSDK/wpa_supplicant/src/utils\common.c **** 		if (txt + 4 >= end)
 1408              		.loc 1 482 2 is_stmt 0 discriminator 1
 1409 0030 63062A01 		beq	s4,s2,.L128
 483:C:/Users/stapi/OneDrive/Desktop/GD32VW553/V1_MQTT_OK/GD32VW55X_Wifi_BLE_SDK/GD32VW55x_RELEASE_V1.0.2/MSDK/wpa_supplicant/src/utils\common.c **** 			break;
 1410              		.loc 1 483 3 is_stmt 1
 483:C:/Users/stapi/OneDrive/Desktop/GD32VW553/V1_MQTT_OK/GD32VW55X_Wifi_BLE_SDK/GD32VW55x_RELEASE_V1.0.2/MSDK/wpa_supplicant/src/utils\common.c **** 			break;
 1411              		.loc 1 483 11 is_stmt 0
 1412 0034 93074400 		addi	a5,s0,4
 483:C:/Users/stapi/OneDrive/Desktop/GD32VW553/V1_MQTT_OK/GD32VW55X_Wifi_BLE_SDK/GD32VW55x_RELEASE_V1.0.2/MSDK/wpa_supplicant/src/utils\common.c **** 			break;
 1413              		.loc 1 483 6
 1414 0038 63E83701 		bgtu	s3,a5,.L116
 1415              	.L128:
 522:C:/Users/stapi/OneDrive/Desktop/GD32VW553/V1_MQTT_OK/GD32VW55X_Wifi_BLE_SDK/GD32VW55x_RELEASE_V1.0.2/MSDK/wpa_supplicant/src/utils\common.c **** }
 1416              		.loc 1 522 2 is_stmt 1
 522:C:/Users/stapi/OneDrive/Desktop/GD32VW553/V1_MQTT_OK/GD32VW55X_Wifi_BLE_SDK/GD32VW55x_RELEASE_V1.0.2/MSDK/wpa_supplicant/src/utils\common.c **** }
 1417              		.loc 1 522 7 is_stmt 0
 1418 003c 23000400 		sb	zero,0(s0)
 523:C:/Users/stapi/OneDrive/Desktop/GD32VW553/V1_MQTT_OK/GD32VW55X_Wifi_BLE_SDK/GD32VW55x_RELEASE_V1.0.2/MSDK/wpa_supplicant/src/utils\common.c **** 
 1419              		.loc 1 523 1
 1420 0040 17030000 		tail	__riscv_restore_12
 1420      67000300 
 1421              		.cfi_remember_state
 1422              		.cfi_restore 27
 1423              		.cfi_restore 26
 1424              		.cfi_restore 25
 1425              		.cfi_restore 24
 1426              		.cfi_restore 23
 1427              		.cfi_restore 22
 1428              		.cfi_restore 21
 1429              		.cfi_restore 20
 1430              		.cfi_restore 19
 1431              		.cfi_restore 18
 1432              		.cfi_restore 9
 1433              		.cfi_restore 8
 1434              		.cfi_restore 1
 1435              		.cfi_def_cfa_offset 0
 1436              	.L116:
 1437              		.cfi_restore_state
 486:C:/Users/stapi/OneDrive/Desktop/GD32VW553/V1_MQTT_OK/GD32VW55X_Wifi_BLE_SDK/GD32VW55x_RELEASE_V1.0.2/MSDK/wpa_supplicant/src/utils\common.c **** 		case '\"':
 1438              		.loc 1 486 3 is_stmt 1
 486:C:/Users/stapi/OneDrive/Desktop/GD32VW553/V1_MQTT_OK/GD32VW55X_Wifi_BLE_SDK/GD32VW55x_RELEASE_V1.0.2/MSDK/wpa_supplicant/src/utils\common.c **** 		case '\"':
 1439              		.loc 1 486 15 is_stmt 0
 1440 0048 83460900 		lbu	a3,0(s2)
 486:C:/Users/stapi/OneDrive/Desktop/GD32VW553/V1_MQTT_OK/GD32VW55X_Wifi_BLE_SDK/GD32VW55x_RELEASE_V1.0.2/MSDK/wpa_supplicant/src/utils\common.c **** 		case '\"':
 1441              		.loc 1 486 3
 1442 004c 63865605 		beq	a3,s5,.L117
 1443 0050 63E4DA02 		bgtu	a3,s5,.L118
 1444 0054 6387A605 		beq	a3,s10,.L119
 1445 0058 B547     		li	a5,13
 1446 005a 6389F604 		beq	a3,a5,.L120
 1447 005e A547     		li	a5,9
 1448 0060 638DF604 		beq	a3,a5,.L121
 1449              	.L122:
 512:C:/Users/stapi/OneDrive/Desktop/GD32VW553/V1_MQTT_OK/GD32VW55X_Wifi_BLE_SDK/GD32VW55x_RELEASE_V1.0.2/MSDK/wpa_supplicant/src/utils\common.c **** 				*txt++ = data[i];
 1450              		.loc 1 512 4 is_stmt 1
 512:C:/Users/stapi/OneDrive/Desktop/GD32VW553/V1_MQTT_OK/GD32VW55X_Wifi_BLE_SDK/GD32VW55x_RELEASE_V1.0.2/MSDK/wpa_supplicant/src/utils\common.c **** 				*txt++ = data[i];
 1451              		.loc 1 512 22 is_stmt 0
 1452 0064 938706FE 		addi	a5,a3,-32
 512:C:/Users/stapi/OneDrive/Desktop/GD32VW553/V1_MQTT_OK/GD32VW55X_Wifi_BLE_SDK/GD32VW55x_RELEASE_V1.0.2/MSDK/wpa_supplicant/src/utils\common.c **** 				*txt++ = data[i];
 1453              		.loc 1 512 7
 1454 0068 93F7F70F 		andi	a5,a5,0xff
 1455 006c 636CFC04 		bgtu	a5,s8,.L126
 513:C:/Users/stapi/OneDrive/Desktop/GD32VW553/V1_MQTT_OK/GD32VW55X_Wifi_BLE_SDK/GD32VW55x_RELEASE_V1.0.2/MSDK/wpa_supplicant/src/utils\common.c **** 			} else {
 1456              		.loc 1 513 5 is_stmt 1
 1457              	.LVL152:
 513:C:/Users/stapi/OneDrive/Desktop/GD32VW553/V1_MQTT_OK/GD32VW55X_Wifi_BLE_SDK/GD32VW55x_RELEASE_V1.0.2/MSDK/wpa_supplicant/src/utils\common.c **** 			} else {
 1458              		.loc 1 513 12 is_stmt 0
 1459 0070 2300D400 		sb	a3,0(s0)
 513:C:/Users/stapi/OneDrive/Desktop/GD32VW553/V1_MQTT_OK/GD32VW55X_Wifi_BLE_SDK/GD32VW55x_RELEASE_V1.0.2/MSDK/wpa_supplicant/src/utils\common.c **** 			} else {
 1460              		.loc 1 513 9
 1461 0074 0504     		addi	s0,s0,1
 1462              	.LVL153:
 1463 0076 39A8     		j	.L125
 1464              	.L118:
 486:C:/Users/stapi/OneDrive/Desktop/GD32VW553/V1_MQTT_OK/GD32VW55X_Wifi_BLE_SDK/GD32VW55x_RELEASE_V1.0.2/MSDK/wpa_supplicant/src/utils\common.c **** 		case '\"':
 1465              		.loc 1 486 3
 1466 0078 63896601 		beq	a3,s6,.L123
 1467 007c E39496FE 		bne	a3,s1,.L122
 492:C:/Users/stapi/OneDrive/Desktop/GD32VW553/V1_MQTT_OK/GD32VW55X_Wifi_BLE_SDK/GD32VW55x_RELEASE_V1.0.2/MSDK/wpa_supplicant/src/utils\common.c **** 			*txt++ = '\\';
 1468              		.loc 1 492 4 is_stmt 1
 1469              	.LVL154:
 492:C:/Users/stapi/OneDrive/Desktop/GD32VW553/V1_MQTT_OK/GD32VW55X_Wifi_BLE_SDK/GD32VW55x_RELEASE_V1.0.2/MSDK/wpa_supplicant/src/utils\common.c **** 			*txt++ = '\\';
 1470              		.loc 1 492 11 is_stmt 0
 1471 0080 23009400 		sb	s1,0(s0)
 493:C:/Users/stapi/OneDrive/Desktop/GD32VW553/V1_MQTT_OK/GD32VW55X_Wifi_BLE_SDK/GD32VW55x_RELEASE_V1.0.2/MSDK/wpa_supplicant/src/utils\common.c **** 			break;
 1472              		.loc 1 493 4 is_stmt 1
 1473              	.LVL155:
 493:C:/Users/stapi/OneDrive/Desktop/GD32VW553/V1_MQTT_OK/GD32VW55X_Wifi_BLE_SDK/GD32VW55x_RELEASE_V1.0.2/MSDK/wpa_supplicant/src/utils\common.c **** 			break;
 1474              		.loc 1 493 11 is_stmt 0
 1475 0084 A3009400 		sb	s1,1(s0)
 494:C:/Users/stapi/OneDrive/Desktop/GD32VW553/V1_MQTT_OK/GD32VW55X_Wifi_BLE_SDK/GD32VW55x_RELEASE_V1.0.2/MSDK/wpa_supplicant/src/utils\common.c **** 		case '\033':
 1476              		.loc 1 494 4 is_stmt 1
 1477 0088 29A0     		j	.L131
 1478              	.LVL156:
 1479              	.L123:
 488:C:/Users/stapi/OneDrive/Desktop/GD32VW553/V1_MQTT_OK/GD32VW55X_Wifi_BLE_SDK/GD32VW55x_RELEASE_V1.0.2/MSDK/wpa_supplicant/src/utils\common.c **** 			*txt++ = '\"';
 1480              		.loc 1 488 4
 488:C:/Users/stapi/OneDrive/Desktop/GD32VW553/V1_MQTT_OK/GD32VW55X_Wifi_BLE_SDK/GD32VW55x_RELEASE_V1.0.2/MSDK/wpa_supplicant/src/utils\common.c **** 			*txt++ = '\"';
 1481              		.loc 1 488 11 is_stmt 0
 1482 008a 23009400 		sb	s1,0(s0)
 489:C:/Users/stapi/OneDrive/Desktop/GD32VW553/V1_MQTT_OK/GD32VW55X_Wifi_BLE_SDK/GD32VW55x_RELEASE_V1.0.2/MSDK/wpa_supplicant/src/utils\common.c **** 			break;
 1483              		.loc 1 489 4 is_stmt 1
 1484              	.LVL157:
 489:C:/Users/stapi/OneDrive/Desktop/GD32VW553/V1_MQTT_OK/GD32VW55X_Wifi_BLE_SDK/GD32VW55x_RELEASE_V1.0.2/MSDK/wpa_supplicant/src/utils\common.c **** 			break;
 1485              		.loc 1 489 11 is_stmt 0
 1486 008e A3006401 		sb	s6,1(s0)
 490:C:/Users/stapi/OneDrive/Desktop/GD32VW553/V1_MQTT_OK/GD32VW55X_Wifi_BLE_SDK/GD32VW55x_RELEASE_V1.0.2/MSDK/wpa_supplicant/src/utils\common.c **** 		case '\\':
 1487              		.loc 1 490 4 is_stmt 1
 1488              	.LVL158:
 1489              	.L131:
 510:C:/Users/stapi/OneDrive/Desktop/GD32VW553/V1_MQTT_OK/GD32VW55X_Wifi_BLE_SDK/GD32VW55x_RELEASE_V1.0.2/MSDK/wpa_supplicant/src/utils\common.c **** 		default:
 1490              		.loc 1 510 4
 509:C:/Users/stapi/OneDrive/Desktop/GD32VW553/V1_MQTT_OK/GD32VW55X_Wifi_BLE_SDK/GD32VW55x_RELEASE_V1.0.2/MSDK/wpa_supplicant/src/utils\common.c **** 			break;
 1491              		.loc 1 509 8 is_stmt 0
 1492 0092 0904     		addi	s0,s0,2
 1493              	.L125:
 1494              	.LVL159:
 482:C:/Users/stapi/OneDrive/Desktop/GD32VW553/V1_MQTT_OK/GD32VW55X_Wifi_BLE_SDK/GD32VW55x_RELEASE_V1.0.2/MSDK/wpa_supplicant/src/utils\common.c **** 		if (txt + 4 >= end)
 1495              		.loc 1 482 23 is_stmt 1 discriminator 2
 1496 0094 0509     		addi	s2,s2,1
 1497              	.LVL160:
 1498 0096 69BF     		j	.L115
 1499              	.L117:
 496:C:/Users/stapi/OneDrive/Desktop/GD32VW553/V1_MQTT_OK/GD32VW55X_Wifi_BLE_SDK/GD32VW55x_RELEASE_V1.0.2/MSDK/wpa_supplicant/src/utils\common.c **** 			*txt++ = 'e';
 1500              		.loc 1 496 4
 1501              	.LVL161:
 496:C:/Users/stapi/OneDrive/Desktop/GD32VW553/V1_MQTT_OK/GD32VW55X_Wifi_BLE_SDK/GD32VW55x_RELEASE_V1.0.2/MSDK/wpa_supplicant/src/utils\common.c **** 			*txt++ = 'e';
 1502              		.loc 1 496 11 is_stmt 0
 1503 0098 23009400 		sb	s1,0(s0)
 497:C:/Users/stapi/OneDrive/Desktop/GD32VW553/V1_MQTT_OK/GD32VW55X_Wifi_BLE_SDK/GD32VW55x_RELEASE_V1.0.2/MSDK/wpa_supplicant/src/utils\common.c **** 			break;
 1504              		.loc 1 497 4 is_stmt 1
 1505              	.LVL162:
 497:C:/Users/stapi/OneDrive/Desktop/GD32VW553/V1_MQTT_OK/GD32VW55X_Wifi_BLE_SDK/GD32VW55x_RELEASE_V1.0.2/MSDK/wpa_supplicant/src/utils\common.c **** 			break;
 1506              		.loc 1 497 11 is_stmt 0
 1507 009c A3007401 		sb	s7,1(s0)
 498:C:/Users/stapi/OneDrive/Desktop/GD32VW553/V1_MQTT_OK/GD32VW55X_Wifi_BLE_SDK/GD32VW55x_RELEASE_V1.0.2/MSDK/wpa_supplicant/src/utils\common.c **** 		case '\n':
 1508              		.loc 1 498 4 is_stmt 1
 1509 00a0 CDBF     		j	.L131
 1510              	.LVL163:
 1511              	.L119:
 500:C:/Users/stapi/OneDrive/Desktop/GD32VW553/V1_MQTT_OK/GD32VW55X_Wifi_BLE_SDK/GD32VW55x_RELEASE_V1.0.2/MSDK/wpa_supplicant/src/utils\common.c **** 			*txt++ = 'n';
 1512              		.loc 1 500 4
 500:C:/Users/stapi/OneDrive/Desktop/GD32VW553/V1_MQTT_OK/GD32VW55X_Wifi_BLE_SDK/GD32VW55x_RELEASE_V1.0.2/MSDK/wpa_supplicant/src/utils\common.c **** 			*txt++ = 'n';
 1513              		.loc 1 500 11 is_stmt 0
 1514 00a2 23009400 		sb	s1,0(s0)
 501:C:/Users/stapi/OneDrive/Desktop/GD32VW553/V1_MQTT_OK/GD32VW55X_Wifi_BLE_SDK/GD32VW55x_RELEASE_V1.0.2/MSDK/wpa_supplicant/src/utils\common.c **** 			break;
 1515              		.loc 1 501 4 is_stmt 1
 1516              	.LVL164:
 501:C:/Users/stapi/OneDrive/Desktop/GD32VW553/V1_MQTT_OK/GD32VW55X_Wifi_BLE_SDK/GD32VW55x_RELEASE_V1.0.2/MSDK/wpa_supplicant/src/utils\common.c **** 			break;
 1517              		.loc 1 501 11 is_stmt 0
 1518 00a6 A300B401 		sb	s11,1(s0)
 502:C:/Users/stapi/OneDrive/Desktop/GD32VW553/V1_MQTT_OK/GD32VW55X_Wifi_BLE_SDK/GD32VW55x_RELEASE_V1.0.2/MSDK/wpa_supplicant/src/utils\common.c **** 		case '\r':
 1519              		.loc 1 502 4 is_stmt 1
 1520 00aa E5B7     		j	.L131
 1521              	.LVL165:
 1522              	.L120:
 504:C:/Users/stapi/OneDrive/Desktop/GD32VW553/V1_MQTT_OK/GD32VW55X_Wifi_BLE_SDK/GD32VW55x_RELEASE_V1.0.2/MSDK/wpa_supplicant/src/utils\common.c **** 			*txt++ = 'r';
 1523              		.loc 1 504 4
 504:C:/Users/stapi/OneDrive/Desktop/GD32VW553/V1_MQTT_OK/GD32VW55X_Wifi_BLE_SDK/GD32VW55x_RELEASE_V1.0.2/MSDK/wpa_supplicant/src/utils\common.c **** 			*txt++ = 'r';
 1524              		.loc 1 504 11 is_stmt 0
 1525 00ac 23009400 		sb	s1,0(s0)
 505:C:/Users/stapi/OneDrive/Desktop/GD32VW553/V1_MQTT_OK/GD32VW55X_Wifi_BLE_SDK/GD32VW55x_RELEASE_V1.0.2/MSDK/wpa_supplicant/src/utils\common.c **** 			break;
 1526              		.loc 1 505 4 is_stmt 1
 1527              	.LVL166:
 505:C:/Users/stapi/OneDrive/Desktop/GD32VW553/V1_MQTT_OK/GD32VW55X_Wifi_BLE_SDK/GD32VW55x_RELEASE_V1.0.2/MSDK/wpa_supplicant/src/utils\common.c **** 			break;
 1528              		.loc 1 505 11 is_stmt 0
 1529 00b0 93072007 		li	a5,114
 1530              	.LVL167:
 1531              	.L132:
 509:C:/Users/stapi/OneDrive/Desktop/GD32VW553/V1_MQTT_OK/GD32VW55X_Wifi_BLE_SDK/GD32VW55x_RELEASE_V1.0.2/MSDK/wpa_supplicant/src/utils\common.c **** 			break;
 1532              		.loc 1 509 11
 1533 00b4 A300F400 		sb	a5,1(s0)
 1534 00b8 E9BF     		j	.L131
 1535              	.LVL168:
 1536              	.L121:
 508:C:/Users/stapi/OneDrive/Desktop/GD32VW553/V1_MQTT_OK/GD32VW55X_Wifi_BLE_SDK/GD32VW55x_RELEASE_V1.0.2/MSDK/wpa_supplicant/src/utils\common.c **** 			*txt++ = 't';
 1537              		.loc 1 508 4 is_stmt 1
 508:C:/Users/stapi/OneDrive/Desktop/GD32VW553/V1_MQTT_OK/GD32VW55X_Wifi_BLE_SDK/GD32VW55x_RELEASE_V1.0.2/MSDK/wpa_supplicant/src/utils\common.c **** 			*txt++ = 't';
 1538              		.loc 1 508 11 is_stmt 0
 1539 00ba 23009400 		sb	s1,0(s0)
 509:C:/Users/stapi/OneDrive/Desktop/GD32VW553/V1_MQTT_OK/GD32VW55X_Wifi_BLE_SDK/GD32VW55x_RELEASE_V1.0.2/MSDK/wpa_supplicant/src/utils\common.c **** 			break;
 1540              		.loc 1 509 4 is_stmt 1
 1541              	.LVL169:
 509:C:/Users/stapi/OneDrive/Desktop/GD32VW553/V1_MQTT_OK/GD32VW55X_Wifi_BLE_SDK/GD32VW55x_RELEASE_V1.0.2/MSDK/wpa_supplicant/src/utils\common.c **** 			break;
 1542              		.loc 1 509 11 is_stmt 0
 1543 00be 93074007 		li	a5,116
 1544 00c2 CDBF     		j	.L132
 1545              	.LVL170:
 1546              	.L126:
 515:C:/Users/stapi/OneDrive/Desktop/GD32VW553/V1_MQTT_OK/GD32VW55X_Wifi_BLE_SDK/GD32VW55x_RELEASE_V1.0.2/MSDK/wpa_supplicant/src/utils\common.c **** 						   data[i]);
 1547              		.loc 1 515 5 is_stmt 1
 515:C:/Users/stapi/OneDrive/Desktop/GD32VW553/V1_MQTT_OK/GD32VW55X_Wifi_BLE_SDK/GD32VW55x_RELEASE_V1.0.2/MSDK/wpa_supplicant/src/utils\common.c **** 						   data[i]);
 1548              		.loc 1 515 12 is_stmt 0
 1549 00c4 B3858940 		sub	a1,s3,s0
 1550 00c8 2285     		mv	a0,s0
 1551 00ca 13860C00 		addi	a2,s9,%lo(.LC5)
 1552 00ce 97000000 		call	os_snprintf
 1552      E7800000 
 1553              	.LVL171:
 515:C:/Users/stapi/OneDrive/Desktop/GD32VW553/V1_MQTT_OK/GD32VW55X_Wifi_BLE_SDK/GD32VW55x_RELEASE_V1.0.2/MSDK/wpa_supplicant/src/utils\common.c **** 						   data[i]);
 1554              		.loc 1 515 9
 1555 00d6 2A94     		add	s0,s0,a0
 1556              	.LVL172:
 1557 00d8 75BF     		j	.L125
 1558              		.cfi_endproc
 1559              	.LFE88:
 1561              		.section	.text.printf_decode,"ax",@progbits
 1562              		.align	1
 1563              		.globl	printf_decode
 1565              	printf_decode:
 1566              	.LFB89:
 527:C:/Users/stapi/OneDrive/Desktop/GD32VW553/V1_MQTT_OK/GD32VW55X_Wifi_BLE_SDK/GD32VW55x_RELEASE_V1.0.2/MSDK/wpa_supplicant/src/utils\common.c **** 	const char *pos = str;
 1567              		.loc 1 527 1 is_stmt 1
 1568              		.cfi_startproc
 1569              	.LVL173:
 1570 0000 17030000 		call	t0,__riscv_save_12
 1570      E7020300 
 1571              		.cfi_offset 27, -52
 1572              		.cfi_offset 26, -48
 1573              		.cfi_offset 25, -44
 1574              		.cfi_offset 24, -40
 1575              		.cfi_offset 23, -36
 1576              		.cfi_offset 22, -32
 1577              		.cfi_offset 21, -28
 1578              		.cfi_offset 20, -24
 1579              		.cfi_offset 19, -20
 1580              		.cfi_offset 18, -16
 1581              		.cfi_offset 9, -12
 1582              		.cfi_offset 8, -8
 1583              		.cfi_offset 1, -4
 1584              		.cfi_def_cfa_offset 64
 527:C:/Users/stapi/OneDrive/Desktop/GD32VW553/V1_MQTT_OK/GD32VW55X_Wifi_BLE_SDK/GD32VW55x_RELEASE_V1.0.2/MSDK/wpa_supplicant/src/utils\common.c **** 	const char *pos = str;
 1585              		.loc 1 527 1 is_stmt 0
 1586 0008 2A8A     		mv	s4,a0
 1587 000a AE84     		mv	s1,a1
 528:C:/Users/stapi/OneDrive/Desktop/GD32VW553/V1_MQTT_OK/GD32VW55X_Wifi_BLE_SDK/GD32VW55x_RELEASE_V1.0.2/MSDK/wpa_supplicant/src/utils\common.c **** 	size_t len = 0;
 1588              		.loc 1 528 2 is_stmt 1
 1589              	.LVL174:
 529:C:/Users/stapi/OneDrive/Desktop/GD32VW553/V1_MQTT_OK/GD32VW55X_Wifi_BLE_SDK/GD32VW55x_RELEASE_V1.0.2/MSDK/wpa_supplicant/src/utils\common.c **** 	int val;
 1590              		.loc 1 529 2
 530:C:/Users/stapi/OneDrive/Desktop/GD32VW553/V1_MQTT_OK/GD32VW55X_Wifi_BLE_SDK/GD32VW55x_RELEASE_V1.0.2/MSDK/wpa_supplicant/src/utils\common.c **** 
 1591              		.loc 1 530 2
 532:C:/Users/stapi/OneDrive/Desktop/GD32VW553/V1_MQTT_OK/GD32VW55X_Wifi_BLE_SDK/GD32VW55x_RELEASE_V1.0.2/MSDK/wpa_supplicant/src/utils\common.c **** 		if (len + 1 >= maxlen)
 1592              		.loc 1 532 2
 527:C:/Users/stapi/OneDrive/Desktop/GD32VW553/V1_MQTT_OK/GD32VW55X_Wifi_BLE_SDK/GD32VW55x_RELEASE_V1.0.2/MSDK/wpa_supplicant/src/utils\common.c **** 	const char *pos = str;
 1593              		.loc 1 527 1 is_stmt 0
 1594 000c B28A     		mv	s5,a2
 529:C:/Users/stapi/OneDrive/Desktop/GD32VW553/V1_MQTT_OK/GD32VW55X_Wifi_BLE_SDK/GD32VW55x_RELEASE_V1.0.2/MSDK/wpa_supplicant/src/utils\common.c **** 	int val;
 1595              		.loc 1 529 9
 1596 000e 0144     		li	s0,0
 535:C:/Users/stapi/OneDrive/Desktop/GD32VW553/V1_MQTT_OK/GD32VW55X_Wifi_BLE_SDK/GD32VW55x_RELEASE_V1.0.2/MSDK/wpa_supplicant/src/utils\common.c **** 		case '\\':
 1597              		.loc 1 535 3
 1598 0010 130BC005 		li	s6,92
 1599 0014 1309E006 		li	s2,110
 1600 0018 130D5006 		li	s10,101
 560:C:/Users/stapi/OneDrive/Desktop/GD32VW553/V1_MQTT_OK/GD32VW55X_Wifi_BLE_SDK/GD32VW55x_RELEASE_V1.0.2/MSDK/wpa_supplicant/src/utils\common.c **** 				pos++;
 1601              		.loc 1 560 16
 1602 001c ED4D     		li	s11,27
 1603 001e 93092002 		li	s3,34
 1604 0022 9D4B     		li	s7,7
 1605              	.LVL175:
 1606              	.L134:
 532:C:/Users/stapi/OneDrive/Desktop/GD32VW553/V1_MQTT_OK/GD32VW55X_Wifi_BLE_SDK/GD32VW55x_RELEASE_V1.0.2/MSDK/wpa_supplicant/src/utils\common.c **** 		if (len + 1 >= maxlen)
 1607              		.loc 1 532 8 is_stmt 1
 532:C:/Users/stapi/OneDrive/Desktop/GD32VW553/V1_MQTT_OK/GD32VW55X_Wifi_BLE_SDK/GD32VW55x_RELEASE_V1.0.2/MSDK/wpa_supplicant/src/utils\common.c **** 		if (len + 1 >= maxlen)
 1608              		.loc 1 532 9 is_stmt 0
 1609 0024 83860A00 		lb	a3,0(s5)
 532:C:/Users/stapi/OneDrive/Desktop/GD32VW553/V1_MQTT_OK/GD32VW55X_Wifi_BLE_SDK/GD32VW55x_RELEASE_V1.0.2/MSDK/wpa_supplicant/src/utils\common.c **** 		if (len + 1 >= maxlen)
 1610              		.loc 1 532 8
 1611 0028 81EE     		bne	a3,zero,.L152
 1612              	.L135:
 601:C:/Users/stapi/OneDrive/Desktop/GD32VW553/V1_MQTT_OK/GD32VW55X_Wifi_BLE_SDK/GD32VW55x_RELEASE_V1.0.2/MSDK/wpa_supplicant/src/utils\common.c **** 		buf[len] = '\0';
 1613              		.loc 1 601 2 is_stmt 1
 601:C:/Users/stapi/OneDrive/Desktop/GD32VW553/V1_MQTT_OK/GD32VW55X_Wifi_BLE_SDK/GD32VW55x_RELEASE_V1.0.2/MSDK/wpa_supplicant/src/utils\common.c **** 		buf[len] = '\0';
 1614              		.loc 1 601 5 is_stmt 0
 1615 002a 63769400 		bgeu	s0,s1,.L133
 602:C:/Users/stapi/OneDrive/Desktop/GD32VW553/V1_MQTT_OK/GD32VW55X_Wifi_BLE_SDK/GD32VW55x_RELEASE_V1.0.2/MSDK/wpa_supplicant/src/utils\common.c **** 
 1616              		.loc 1 602 3 is_stmt 1
 602:C:/Users/stapi/OneDrive/Desktop/GD32VW553/V1_MQTT_OK/GD32VW55X_Wifi_BLE_SDK/GD32VW55x_RELEASE_V1.0.2/MSDK/wpa_supplicant/src/utils\common.c **** 
 1617              		.loc 1 602 12 is_stmt 0
 1618 002e 33078A00 		add	a4,s4,s0
 1619 0032 23000700 		sb	zero,0(a4)
 604:C:/Users/stapi/OneDrive/Desktop/GD32VW553/V1_MQTT_OK/GD32VW55X_Wifi_BLE_SDK/GD32VW55x_RELEASE_V1.0.2/MSDK/wpa_supplicant/src/utils\common.c **** }
 1620              		.loc 1 604 2 is_stmt 1
 1621              	.L133:
 605:C:/Users/stapi/OneDrive/Desktop/GD32VW553/V1_MQTT_OK/GD32VW55X_Wifi_BLE_SDK/GD32VW55x_RELEASE_V1.0.2/MSDK/wpa_supplicant/src/utils\common.c **** 
 1622              		.loc 1 605 1 is_stmt 0
 1623 0036 2285     		mv	a0,s0
 1624 0038 17030000 		tail	__riscv_restore_12
 1624      67000300 
 1625              		.cfi_remember_state
 1626              		.cfi_restore 27
 1627              		.cfi_restore 26
 1628              		.cfi_restore 25
 1629              		.cfi_restore 24
 1630              		.cfi_restore 23
 1631              		.cfi_restore 22
 1632              		.cfi_restore 21
 1633              		.cfi_restore 20
 1634              		.cfi_restore 19
 1635              		.cfi_restore 18
 1636              		.cfi_restore 9
 1637              		.cfi_restore 8
 1638              		.cfi_restore 1
 1639              		.cfi_def_cfa_offset 0
 1640              	.L152:
 1641              		.cfi_restore_state
 533:C:/Users/stapi/OneDrive/Desktop/GD32VW553/V1_MQTT_OK/GD32VW55X_Wifi_BLE_SDK/GD32VW55x_RELEASE_V1.0.2/MSDK/wpa_supplicant/src/utils\common.c **** 			break;
 1642              		.loc 1 533 3 is_stmt 1
 533:C:/Users/stapi/OneDrive/Desktop/GD32VW553/V1_MQTT_OK/GD32VW55X_Wifi_BLE_SDK/GD32VW55x_RELEASE_V1.0.2/MSDK/wpa_supplicant/src/utils\common.c **** 			break;
 1643              		.loc 1 533 11 is_stmt 0
 1644 0040 930C1400 		addi	s9,s0,1
 533:C:/Users/stapi/OneDrive/Desktop/GD32VW553/V1_MQTT_OK/GD32VW55X_Wifi_BLE_SDK/GD32VW55x_RELEASE_V1.0.2/MSDK/wpa_supplicant/src/utils\common.c **** 			break;
 1645              		.loc 1 533 6
 1646 0044 E3F39CFE 		bgeu	s9,s1,.L135
 535:C:/Users/stapi/OneDrive/Desktop/GD32VW553/V1_MQTT_OK/GD32VW55X_Wifi_BLE_SDK/GD32VW55x_RELEASE_V1.0.2/MSDK/wpa_supplicant/src/utils\common.c **** 		case '\\':
 1647              		.loc 1 535 3 is_stmt 1
 537:C:/Users/stapi/OneDrive/Desktop/GD32VW553/V1_MQTT_OK/GD32VW55X_Wifi_BLE_SDK/GD32VW55x_RELEASE_V1.0.2/MSDK/wpa_supplicant/src/utils\common.c **** 			switch (*pos) {
 1648              		.loc 1 537 7 is_stmt 0
 1649 0048 138C1A00 		addi	s8,s5,1
 535:C:/Users/stapi/OneDrive/Desktop/GD32VW553/V1_MQTT_OK/GD32VW55X_Wifi_BLE_SDK/GD32VW55x_RELEASE_V1.0.2/MSDK/wpa_supplicant/src/utils\common.c **** 		case '\\':
 1650              		.loc 1 535 3
 1651 004c 639F660F 		bne	a3,s6,.L136
 537:C:/Users/stapi/OneDrive/Desktop/GD32VW553/V1_MQTT_OK/GD32VW55X_Wifi_BLE_SDK/GD32VW55x_RELEASE_V1.0.2/MSDK/wpa_supplicant/src/utils\common.c **** 			switch (*pos) {
 1652              		.loc 1 537 4 is_stmt 1
 1653              	.LVL176:
 538:C:/Users/stapi/OneDrive/Desktop/GD32VW553/V1_MQTT_OK/GD32VW55X_Wifi_BLE_SDK/GD32VW55x_RELEASE_V1.0.2/MSDK/wpa_supplicant/src/utils\common.c **** 			case '\\':
 1654              		.loc 1 538 4
 538:C:/Users/stapi/OneDrive/Desktop/GD32VW553/V1_MQTT_OK/GD32VW55X_Wifi_BLE_SDK/GD32VW55x_RELEASE_V1.0.2/MSDK/wpa_supplicant/src/utils\common.c **** 			case '\\':
 1655              		.loc 1 538 12 is_stmt 0
 1656 0050 83861A00 		lb	a3,1(s5)
 1657 0054 638B2609 		beq	a3,s2,.L137
 1658 0058 634ED904 		bgt	a3,s2,.L138
 1659 005c 638B6607 		beq	a3,s6,.L139
 1660 0060 6346DB04 		bgt	a3,s6,.L140
 1661 0064 638F3607 		beq	a3,s3,.L141
 1662 0068 938606FD 		addi	a3,a3,-48
 1663 006c 13F5F60F 		andi	a0,a3,0xff
 1664 0070 63E0AB04 		bgtu	a0,s7,.L155
 585:C:/Users/stapi/OneDrive/Desktop/GD32VW553/V1_MQTT_OK/GD32VW55X_Wifi_BLE_SDK/GD32VW55x_RELEASE_V1.0.2/MSDK/wpa_supplicant/src/utils\common.c **** 				if (*pos >= '0' && *pos <= '7')
 1665              		.loc 1 585 5 is_stmt 1
 1666              	.LVL177:
 586:C:/Users/stapi/OneDrive/Desktop/GD32VW553/V1_MQTT_OK/GD32VW55X_Wifi_BLE_SDK/GD32VW55x_RELEASE_V1.0.2/MSDK/wpa_supplicant/src/utils\common.c **** 					val = val * 8 + (*pos++ - '0');
 1667              		.loc 1 586 9 is_stmt 0
 1668 0074 03852A00 		lb	a0,2(s5)
 586:C:/Users/stapi/OneDrive/Desktop/GD32VW553/V1_MQTT_OK/GD32VW55X_Wifi_BLE_SDK/GD32VW55x_RELEASE_V1.0.2/MSDK/wpa_supplicant/src/utils\common.c **** 					val = val * 8 + (*pos++ - '0');
 1669              		.loc 1 586 21
 1670 0078 130505FD 		addi	a0,a0,-48
 586:C:/Users/stapi/OneDrive/Desktop/GD32VW553/V1_MQTT_OK/GD32VW55X_Wifi_BLE_SDK/GD32VW55x_RELEASE_V1.0.2/MSDK/wpa_supplicant/src/utils\common.c **** 					val = val * 8 + (*pos++ - '0');
 1671              		.loc 1 586 8
 1672 007c 9377F50F 		andi	a5,a0,0xff
 585:C:/Users/stapi/OneDrive/Desktop/GD32VW553/V1_MQTT_OK/GD32VW55X_Wifi_BLE_SDK/GD32VW55x_RELEASE_V1.0.2/MSDK/wpa_supplicant/src/utils\common.c **** 				if (*pos >= '0' && *pos <= '7')
 1673              		.loc 1 585 9
 1674 0080 3683     		mv	t1,a3
 1675              	.LVL178:
 586:C:/Users/stapi/OneDrive/Desktop/GD32VW553/V1_MQTT_OK/GD32VW55X_Wifi_BLE_SDK/GD32VW55x_RELEASE_V1.0.2/MSDK/wpa_supplicant/src/utils\common.c **** 					val = val * 8 + (*pos++ - '0');
 1676              		.loc 1 586 5 is_stmt 1
 586:C:/Users/stapi/OneDrive/Desktop/GD32VW553/V1_MQTT_OK/GD32VW55X_Wifi_BLE_SDK/GD32VW55x_RELEASE_V1.0.2/MSDK/wpa_supplicant/src/utils\common.c **** 					val = val * 8 + (*pos++ - '0');
 1677              		.loc 1 586 8 is_stmt 0
 1678 0082 63FDFB0A 		bleu	a5,s7,.L143
 585:C:/Users/stapi/OneDrive/Desktop/GD32VW553/V1_MQTT_OK/GD32VW55X_Wifi_BLE_SDK/GD32VW55x_RELEASE_V1.0.2/MSDK/wpa_supplicant/src/utils\common.c **** 				if (*pos >= '0' && *pos <= '7')
 1679              		.loc 1 585 15
 1680 0086 138C2A00 		addi	s8,s5,2
 1681              	.LVL179:
 1682              	.L150:
 588:C:/Users/stapi/OneDrive/Desktop/GD32VW553/V1_MQTT_OK/GD32VW55X_Wifi_BLE_SDK/GD32VW55x_RELEASE_V1.0.2/MSDK/wpa_supplicant/src/utils\common.c **** 					val = val * 8 + (*pos++ - '0');
 1683              		.loc 1 588 5 is_stmt 1
 588:C:/Users/stapi/OneDrive/Desktop/GD32VW553/V1_MQTT_OK/GD32VW55X_Wifi_BLE_SDK/GD32VW55x_RELEASE_V1.0.2/MSDK/wpa_supplicant/src/utils\common.c **** 					val = val * 8 + (*pos++ - '0');
 1684              		.loc 1 588 9 is_stmt 0
 1685 008a 83060C00 		lb	a3,0(s8)
 588:C:/Users/stapi/OneDrive/Desktop/GD32VW553/V1_MQTT_OK/GD32VW55X_Wifi_BLE_SDK/GD32VW55x_RELEASE_V1.0.2/MSDK/wpa_supplicant/src/utils\common.c **** 					val = val * 8 + (*pos++ - '0');
 1686              		.loc 1 588 21
 1687 008e 938606FD 		addi	a3,a3,-48
 588:C:/Users/stapi/OneDrive/Desktop/GD32VW553/V1_MQTT_OK/GD32VW55X_Wifi_BLE_SDK/GD32VW55x_RELEASE_V1.0.2/MSDK/wpa_supplicant/src/utils\common.c **** 					val = val * 8 + (*pos++ - '0');
 1688              		.loc 1 588 8
 1689 0092 13F6F60F 		andi	a2,a3,0xff
 1690 0096 63E7CB00 		bgtu	a2,s7,.L151
 589:C:/Users/stapi/OneDrive/Desktop/GD32VW553/V1_MQTT_OK/GD32VW55X_Wifi_BLE_SDK/GD32VW55x_RELEASE_V1.0.2/MSDK/wpa_supplicant/src/utils\common.c **** 				buf[len++] = val;
 1691              		.loc 1 589 6 is_stmt 1
 589:C:/Users/stapi/OneDrive/Desktop/GD32VW553/V1_MQTT_OK/GD32VW55X_Wifi_BLE_SDK/GD32VW55x_RELEASE_V1.0.2/MSDK/wpa_supplicant/src/utils\common.c **** 				buf[len++] = val;
 1692              		.loc 1 589 27 is_stmt 0
 1693 009a 050C     		addi	s8,s8,1
 1694              	.LVL180:
 589:C:/Users/stapi/OneDrive/Desktop/GD32VW553/V1_MQTT_OK/GD32VW55X_Wifi_BLE_SDK/GD32VW55x_RELEASE_V1.0.2/MSDK/wpa_supplicant/src/utils\common.c **** 				buf[len++] = val;
 1695              		.loc 1 589 30
 1696 009c 93964660 		sext.b	a3,a3
 589:C:/Users/stapi/OneDrive/Desktop/GD32VW553/V1_MQTT_OK/GD32VW55X_Wifi_BLE_SDK/GD32VW55x_RELEASE_V1.0.2/MSDK/wpa_supplicant/src/utils\common.c **** 				buf[len++] = val;
 1697              		.loc 1 589 10
 1698 00a0 3363D320 		sh3add	t1,t1,a3
 1699              	.LVL181:
 1700              	.L151:
 590:C:/Users/stapi/OneDrive/Desktop/GD32VW553/V1_MQTT_OK/GD32VW55X_Wifi_BLE_SDK/GD32VW55x_RELEASE_V1.0.2/MSDK/wpa_supplicant/src/utils\common.c **** 				break;
 1701              		.loc 1 590 5 is_stmt 1
 590:C:/Users/stapi/OneDrive/Desktop/GD32VW553/V1_MQTT_OK/GD32VW55X_Wifi_BLE_SDK/GD32VW55x_RELEASE_V1.0.2/MSDK/wpa_supplicant/src/utils\common.c **** 				break;
 1702              		.loc 1 590 16 is_stmt 0
 1703 00a4 5294     		add	s0,s4,s0
 1704 00a6 23006400 		sb	t1,0(s0)
 591:C:/Users/stapi/OneDrive/Desktop/GD32VW553/V1_MQTT_OK/GD32VW55X_Wifi_BLE_SDK/GD32VW55x_RELEASE_V1.0.2/MSDK/wpa_supplicant/src/utils\common.c **** 			default:
 1705              		.loc 1 591 5 is_stmt 1
 1706 00aa 0DA8     		j	.L142
 1707              	.LVL182:
 1708              	.L140:
 1709 00ac 6387A605 		beq	a3,s10,.L145
 1710              	.LVL183:
 1711              	.L155:
 595:C:/Users/stapi/OneDrive/Desktop/GD32VW553/V1_MQTT_OK/GD32VW55X_Wifi_BLE_SDK/GD32VW55x_RELEASE_V1.0.2/MSDK/wpa_supplicant/src/utils\common.c **** 		default:
 1712              		.loc 1 595 4 is_stmt 0
 1713 00b0 A28C     		mv	s9,s0
 1714 00b2 2DA0     		j	.L142
 1715              	.LVL184:
 1716              	.L138:
 1717 00b4 93074007 		li	a5,116
 1718 00b8 638EF602 		beq	a3,a5,.L146
 1719 00bc 93078007 		li	a5,120
 1720 00c0 6381F604 		beq	a3,a5,.L147
 1721 00c4 93072007 		li	a5,114
 1722 00c8 E394F6FE 		bne	a3,a5,.L155
 552:C:/Users/stapi/OneDrive/Desktop/GD32VW553/V1_MQTT_OK/GD32VW55X_Wifi_BLE_SDK/GD32VW55x_RELEASE_V1.0.2/MSDK/wpa_supplicant/src/utils\common.c **** 				pos++;
 1723              		.loc 1 552 5 is_stmt 1
 1724              	.LVL185:
 552:C:/Users/stapi/OneDrive/Desktop/GD32VW553/V1_MQTT_OK/GD32VW55X_Wifi_BLE_SDK/GD32VW55x_RELEASE_V1.0.2/MSDK/wpa_supplicant/src/utils\common.c **** 				pos++;
 1725              		.loc 1 552 16 is_stmt 0
 1726 00cc 5294     		add	s0,s4,s0
 1727 00ce B547     		li	a5,13
 1728 00d0 39A8     		j	.L159
 1729              	.LVL186:
 1730              	.L139:
 540:C:/Users/stapi/OneDrive/Desktop/GD32VW553/V1_MQTT_OK/GD32VW55X_Wifi_BLE_SDK/GD32VW55x_RELEASE_V1.0.2/MSDK/wpa_supplicant/src/utils\common.c **** 				pos++;
 1731              		.loc 1 540 5 is_stmt 1
 540:C:/Users/stapi/OneDrive/Desktop/GD32VW553/V1_MQTT_OK/GD32VW55X_Wifi_BLE_SDK/GD32VW55x_RELEASE_V1.0.2/MSDK/wpa_supplicant/src/utils\common.c **** 				pos++;
 1732              		.loc 1 540 16 is_stmt 0
 1733 00d2 5294     		add	s0,s4,s0
 1734 00d4 23006401 		sb	s6,0(s0)
 541:C:/Users/stapi/OneDrive/Desktop/GD32VW553/V1_MQTT_OK/GD32VW55X_Wifi_BLE_SDK/GD32VW55x_RELEASE_V1.0.2/MSDK/wpa_supplicant/src/utils\common.c **** 				break;
 1735              		.loc 1 541 5 is_stmt 1
 1736              	.L158:
 549:C:/Users/stapi/OneDrive/Desktop/GD32VW553/V1_MQTT_OK/GD32VW55X_Wifi_BLE_SDK/GD32VW55x_RELEASE_V1.0.2/MSDK/wpa_supplicant/src/utils\common.c **** 				break;
 1737              		.loc 1 549 5
 549:C:/Users/stapi/OneDrive/Desktop/GD32VW553/V1_MQTT_OK/GD32VW55X_Wifi_BLE_SDK/GD32VW55x_RELEASE_V1.0.2/MSDK/wpa_supplicant/src/utils\common.c **** 				break;
 1738              		.loc 1 549 8 is_stmt 0
 1739 00d8 138C2A00 		addi	s8,s5,2
 1740              	.LVL187:
 550:C:/Users/stapi/OneDrive/Desktop/GD32VW553/V1_MQTT_OK/GD32VW55X_Wifi_BLE_SDK/GD32VW55x_RELEASE_V1.0.2/MSDK/wpa_supplicant/src/utils\common.c **** 			case 'r':
 1741              		.loc 1 550 5 is_stmt 1
 1742              	.L142:
 595:C:/Users/stapi/OneDrive/Desktop/GD32VW553/V1_MQTT_OK/GD32VW55X_Wifi_BLE_SDK/GD32VW55x_RELEASE_V1.0.2/MSDK/wpa_supplicant/src/utils\common.c **** 		default:
 1743              		.loc 1 595 4 is_stmt 0
 1744 00dc 6684     		mv	s0,s9
 1745 00de E28A     		mv	s5,s8
 1746 00e0 91B7     		j	.L134
 1747              	.LVL188:
 1748              	.L141:
 544:C:/Users/stapi/OneDrive/Desktop/GD32VW553/V1_MQTT_OK/GD32VW55X_Wifi_BLE_SDK/GD32VW55x_RELEASE_V1.0.2/MSDK/wpa_supplicant/src/utils\common.c **** 				pos++;
 1749              		.loc 1 544 5 is_stmt 1
 544:C:/Users/stapi/OneDrive/Desktop/GD32VW553/V1_MQTT_OK/GD32VW55X_Wifi_BLE_SDK/GD32VW55x_RELEASE_V1.0.2/MSDK/wpa_supplicant/src/utils\common.c **** 				pos++;
 1750              		.loc 1 544 16 is_stmt 0
 1751 00e2 5294     		add	s0,s4,s0
 1752 00e4 23003401 		sb	s3,0(s0)
 545:C:/Users/stapi/OneDrive/Desktop/GD32VW553/V1_MQTT_OK/GD32VW55X_Wifi_BLE_SDK/GD32VW55x_RELEASE_V1.0.2/MSDK/wpa_supplicant/src/utils\common.c **** 				break;
 1753              		.loc 1 545 5 is_stmt 1
 1754 00e8 C5BF     		j	.L158
 1755              	.LVL189:
 1756              	.L137:
 548:C:/Users/stapi/OneDrive/Desktop/GD32VW553/V1_MQTT_OK/GD32VW55X_Wifi_BLE_SDK/GD32VW55x_RELEASE_V1.0.2/MSDK/wpa_supplicant/src/utils\common.c **** 				pos++;
 1757              		.loc 1 548 5
 548:C:/Users/stapi/OneDrive/Desktop/GD32VW553/V1_MQTT_OK/GD32VW55X_Wifi_BLE_SDK/GD32VW55x_RELEASE_V1.0.2/MSDK/wpa_supplicant/src/utils\common.c **** 				pos++;
 1758              		.loc 1 548 16 is_stmt 0
 1759 00ea 5294     		add	s0,s4,s0
 1760 00ec A947     		li	a5,10
 1761              	.L159:
 1762 00ee 2300F400 		sb	a5,0(s0)
 1763 00f2 DDB7     		j	.L158
 1764              	.LVL190:
 1765              	.L146:
 556:C:/Users/stapi/OneDrive/Desktop/GD32VW553/V1_MQTT_OK/GD32VW55X_Wifi_BLE_SDK/GD32VW55x_RELEASE_V1.0.2/MSDK/wpa_supplicant/src/utils\common.c **** 				pos++;
 1766              		.loc 1 556 5 is_stmt 1
 556:C:/Users/stapi/OneDrive/Desktop/GD32VW553/V1_MQTT_OK/GD32VW55X_Wifi_BLE_SDK/GD32VW55x_RELEASE_V1.0.2/MSDK/wpa_supplicant/src/utils\common.c **** 				pos++;
 1767              		.loc 1 556 16 is_stmt 0
 1768 00f4 5294     		add	s0,s4,s0
 1769 00f6 A547     		li	a5,9
 1770 00f8 DDBF     		j	.L159
 1771              	.LVL191:
 1772              	.L145:
 560:C:/Users/stapi/OneDrive/Desktop/GD32VW553/V1_MQTT_OK/GD32VW55X_Wifi_BLE_SDK/GD32VW55x_RELEASE_V1.0.2/MSDK/wpa_supplicant/src/utils\common.c **** 				pos++;
 1773              		.loc 1 560 5 is_stmt 1
 560:C:/Users/stapi/OneDrive/Desktop/GD32VW553/V1_MQTT_OK/GD32VW55X_Wifi_BLE_SDK/GD32VW55x_RELEASE_V1.0.2/MSDK/wpa_supplicant/src/utils\common.c **** 				pos++;
 1774              		.loc 1 560 16 is_stmt 0
 1775 00fa 5294     		add	s0,s4,s0
 1776 00fc 2300B401 		sb	s11,0(s0)
 561:C:/Users/stapi/OneDrive/Desktop/GD32VW553/V1_MQTT_OK/GD32VW55X_Wifi_BLE_SDK/GD32VW55x_RELEASE_V1.0.2/MSDK/wpa_supplicant/src/utils\common.c **** 				break;
 1777              		.loc 1 561 5 is_stmt 1
 1778 0100 E1BF     		j	.L158
 1779              	.LVL192:
 1780              	.L147:
 564:C:/Users/stapi/OneDrive/Desktop/GD32VW553/V1_MQTT_OK/GD32VW55X_Wifi_BLE_SDK/GD32VW55x_RELEASE_V1.0.2/MSDK/wpa_supplicant/src/utils\common.c **** 				val = hex2byte(pos);
 1781              		.loc 1 564 5
 564:C:/Users/stapi/OneDrive/Desktop/GD32VW553/V1_MQTT_OK/GD32VW55X_Wifi_BLE_SDK/GD32VW55x_RELEASE_V1.0.2/MSDK/wpa_supplicant/src/utils\common.c **** 				val = hex2byte(pos);
 1782              		.loc 1 564 8 is_stmt 0
 1783 0102 138C2A00 		addi	s8,s5,2
 1784              	.LVL193:
 565:C:/Users/stapi/OneDrive/Desktop/GD32VW553/V1_MQTT_OK/GD32VW55X_Wifi_BLE_SDK/GD32VW55x_RELEASE_V1.0.2/MSDK/wpa_supplicant/src/utils\common.c **** 				if (val < 0) {
 1785              		.loc 1 565 5 is_stmt 1
 565:C:/Users/stapi/OneDrive/Desktop/GD32VW553/V1_MQTT_OK/GD32VW55X_Wifi_BLE_SDK/GD32VW55x_RELEASE_V1.0.2/MSDK/wpa_supplicant/src/utils\common.c **** 				if (val < 0) {
 1786              		.loc 1 565 11 is_stmt 0
 1787 0106 6285     		mv	a0,s8
 1788 0108 97000000 		call	hex2byte
 1788      E7800000 
 1789              	.LVL194:
 566:C:/Users/stapi/OneDrive/Desktop/GD32VW553/V1_MQTT_OK/GD32VW55X_Wifi_BLE_SDK/GD32VW55x_RELEASE_V1.0.2/MSDK/wpa_supplicant/src/utils\common.c **** 					val = hex2num(*pos);
 1790              		.loc 1 566 5 is_stmt 1
 566:C:/Users/stapi/OneDrive/Desktop/GD32VW553/V1_MQTT_OK/GD32VW55X_Wifi_BLE_SDK/GD32VW55x_RELEASE_V1.0.2/MSDK/wpa_supplicant/src/utils\common.c **** 					val = hex2num(*pos);
 1791              		.loc 1 566 8 is_stmt 0
 1792 0110 63500502 		bge	a0,zero,.L149
 567:C:/Users/stapi/OneDrive/Desktop/GD32VW553/V1_MQTT_OK/GD32VW55X_Wifi_BLE_SDK/GD32VW55x_RELEASE_V1.0.2/MSDK/wpa_supplicant/src/utils\common.c **** 					if (val < 0)
 1793              		.loc 1 567 6 is_stmt 1
 567:C:/Users/stapi/OneDrive/Desktop/GD32VW553/V1_MQTT_OK/GD32VW55X_Wifi_BLE_SDK/GD32VW55x_RELEASE_V1.0.2/MSDK/wpa_supplicant/src/utils\common.c **** 					if (val < 0)
 1794              		.loc 1 567 12 is_stmt 0
 1795 0114 03852A00 		lb	a0,2(s5)
 1796              	.LVL195:
 1797 0118 97000000 		call	hex2num
 1797      E7800000 
 1798              	.LVL196:
 568:C:/Users/stapi/OneDrive/Desktop/GD32VW553/V1_MQTT_OK/GD32VW55X_Wifi_BLE_SDK/GD32VW55x_RELEASE_V1.0.2/MSDK/wpa_supplicant/src/utils\common.c **** 						break;
 1799              		.loc 1 568 6 is_stmt 1
 568:C:/Users/stapi/OneDrive/Desktop/GD32VW553/V1_MQTT_OK/GD32VW55X_Wifi_BLE_SDK/GD32VW55x_RELEASE_V1.0.2/MSDK/wpa_supplicant/src/utils\common.c **** 						break;
 1800              		.loc 1 568 9 is_stmt 0
 1801 0120 E34805F8 		blt	a0,zero,.L155
 570:C:/Users/stapi/OneDrive/Desktop/GD32VW553/V1_MQTT_OK/GD32VW55X_Wifi_BLE_SDK/GD32VW55x_RELEASE_V1.0.2/MSDK/wpa_supplicant/src/utils\common.c **** 					pos++;
 1802              		.loc 1 570 6 is_stmt 1
 1803              	.LVL197:
 570:C:/Users/stapi/OneDrive/Desktop/GD32VW553/V1_MQTT_OK/GD32VW55X_Wifi_BLE_SDK/GD32VW55x_RELEASE_V1.0.2/MSDK/wpa_supplicant/src/utils\common.c **** 					pos++;
 1804              		.loc 1 570 17 is_stmt 0
 1805 0124 5294     		add	s0,s4,s0
 1806 0126 2300A400 		sb	a0,0(s0)
 571:C:/Users/stapi/OneDrive/Desktop/GD32VW553/V1_MQTT_OK/GD32VW55X_Wifi_BLE_SDK/GD32VW55x_RELEASE_V1.0.2/MSDK/wpa_supplicant/src/utils\common.c **** 				} else {
 1807              		.loc 1 571 6 is_stmt 1
 571:C:/Users/stapi/OneDrive/Desktop/GD32VW553/V1_MQTT_OK/GD32VW55X_Wifi_BLE_SDK/GD32VW55x_RELEASE_V1.0.2/MSDK/wpa_supplicant/src/utils\common.c **** 				} else {
 1808              		.loc 1 571 9 is_stmt 0
 1809 012a 138C3A00 		addi	s8,s5,3
 1810              	.LVL198:
 1811 012e 7DB7     		j	.L142
 1812              	.LVL199:
 1813              	.L149:
 573:C:/Users/stapi/OneDrive/Desktop/GD32VW553/V1_MQTT_OK/GD32VW55X_Wifi_BLE_SDK/GD32VW55x_RELEASE_V1.0.2/MSDK/wpa_supplicant/src/utils\common.c **** 					pos += 2;
 1814              		.loc 1 573 6 is_stmt 1
 573:C:/Users/stapi/OneDrive/Desktop/GD32VW553/V1_MQTT_OK/GD32VW55X_Wifi_BLE_SDK/GD32VW55x_RELEASE_V1.0.2/MSDK/wpa_supplicant/src/utils\common.c **** 					pos += 2;
 1815              		.loc 1 573 17 is_stmt 0
 1816 0130 5294     		add	s0,s4,s0
 1817 0132 2300A400 		sb	a0,0(s0)
 574:C:/Users/stapi/OneDrive/Desktop/GD32VW553/V1_MQTT_OK/GD32VW55X_Wifi_BLE_SDK/GD32VW55x_RELEASE_V1.0.2/MSDK/wpa_supplicant/src/utils\common.c **** 				}
 1818              		.loc 1 574 6 is_stmt 1
 574:C:/Users/stapi/OneDrive/Desktop/GD32VW553/V1_MQTT_OK/GD32VW55X_Wifi_BLE_SDK/GD32VW55x_RELEASE_V1.0.2/MSDK/wpa_supplicant/src/utils\common.c **** 				}
 1819              		.loc 1 574 10 is_stmt 0
 1820 0136 138C4A00 		addi	s8,s5,4
 1821              	.LVL200:
 1822 013a 4DB7     		j	.L142
 1823              	.LVL201:
 1824              	.L143:
 587:C:/Users/stapi/OneDrive/Desktop/GD32VW553/V1_MQTT_OK/GD32VW55X_Wifi_BLE_SDK/GD32VW55x_RELEASE_V1.0.2/MSDK/wpa_supplicant/src/utils\common.c **** 				if (*pos >= '0' && *pos <= '7')
 1825              		.loc 1 587 6 is_stmt 1
 587:C:/Users/stapi/OneDrive/Desktop/GD32VW553/V1_MQTT_OK/GD32VW55X_Wifi_BLE_SDK/GD32VW55x_RELEASE_V1.0.2/MSDK/wpa_supplicant/src/utils\common.c **** 				if (*pos >= '0' && *pos <= '7')
 1826              		.loc 1 587 30 is_stmt 0
 1827 013c 13154560 		sext.b	a0,a0
 587:C:/Users/stapi/OneDrive/Desktop/GD32VW553/V1_MQTT_OK/GD32VW55X_Wifi_BLE_SDK/GD32VW55x_RELEASE_V1.0.2/MSDK/wpa_supplicant/src/utils\common.c **** 				if (*pos >= '0' && *pos <= '7')
 1828              		.loc 1 587 27
 1829 0140 138C3A00 		addi	s8,s5,3
 1830              	.LVL202:
 587:C:/Users/stapi/OneDrive/Desktop/GD32VW553/V1_MQTT_OK/GD32VW55X_Wifi_BLE_SDK/GD32VW55x_RELEASE_V1.0.2/MSDK/wpa_supplicant/src/utils\common.c **** 				if (*pos >= '0' && *pos <= '7')
 1831              		.loc 1 587 10
 1832 0144 33E3A620 		sh3add	t1,a3,a0
 1833              	.LVL203:
 1834 0148 89B7     		j	.L150
 1835              	.LVL204:
 1836              	.L136:
 597:C:/Users/stapi/OneDrive/Desktop/GD32VW553/V1_MQTT_OK/GD32VW55X_Wifi_BLE_SDK/GD32VW55x_RELEASE_V1.0.2/MSDK/wpa_supplicant/src/utils\common.c **** 			break;
 1837              		.loc 1 597 4 is_stmt 1
 597:C:/Users/stapi/OneDrive/Desktop/GD32VW553/V1_MQTT_OK/GD32VW55X_Wifi_BLE_SDK/GD32VW55x_RELEASE_V1.0.2/MSDK/wpa_supplicant/src/utils\common.c **** 			break;
 1838              		.loc 1 597 15 is_stmt 0
 1839 014a 5294     		add	s0,s4,s0
 1840 014c 2300D400 		sb	a3,0(s0)
 598:C:/Users/stapi/OneDrive/Desktop/GD32VW553/V1_MQTT_OK/GD32VW55X_Wifi_BLE_SDK/GD32VW55x_RELEASE_V1.0.2/MSDK/wpa_supplicant/src/utils\common.c **** 		}
 1841              		.loc 1 598 4 is_stmt 1
 1842 0150 71B7     		j	.L142
 1843              		.cfi_endproc
 1844              	.LFE89:
 1846              		.section	.text.wpa_ssid_txt,"ax",@progbits
 1847              		.align	1
 1848              		.globl	wpa_ssid_txt
 1850              	wpa_ssid_txt:
 1851              	.LFB90:
 623:C:/Users/stapi/OneDrive/Desktop/GD32VW553/V1_MQTT_OK/GD32VW55X_Wifi_BLE_SDK/GD32VW55x_RELEASE_V1.0.2/MSDK/wpa_supplicant/src/utils\common.c **** 	static char ssid_txt[SSID_MAX_LEN * 4 + 1];
 1852              		.loc 1 623 1
 1853              		.cfi_startproc
 1854              	.LVL205:
 1855 0000 17030000 		call	t0,__riscv_save_1
 1855      E7020300 
 1856              		.cfi_offset 8, -8
 1857              		.cfi_offset 1, -4
 1858              		.cfi_def_cfa_offset 16
 624:C:/Users/stapi/OneDrive/Desktop/GD32VW553/V1_MQTT_OK/GD32VW55X_Wifi_BLE_SDK/GD32VW55x_RELEASE_V1.0.2/MSDK/wpa_supplicant/src/utils\common.c **** 
 1859              		.loc 1 624 2
 626:C:/Users/stapi/OneDrive/Desktop/GD32VW553/V1_MQTT_OK/GD32VW55X_Wifi_BLE_SDK/GD32VW55x_RELEASE_V1.0.2/MSDK/wpa_supplicant/src/utils\common.c **** 		ssid_txt[0] = '\0';
 1860              		.loc 1 626 2
 1861 0008 37040000 		lui	s0,%hi(.LANCHOR0)
 626:C:/Users/stapi/OneDrive/Desktop/GD32VW553/V1_MQTT_OK/GD32VW55X_Wifi_BLE_SDK/GD32VW55x_RELEASE_V1.0.2/MSDK/wpa_supplicant/src/utils\common.c **** 		ssid_txt[0] = '\0';
 1862              		.loc 1 626 5 is_stmt 0
 1863 000c 09E9     		bne	a0,zero,.L161
 627:C:/Users/stapi/OneDrive/Desktop/GD32VW553/V1_MQTT_OK/GD32VW55X_Wifi_BLE_SDK/GD32VW55x_RELEASE_V1.0.2/MSDK/wpa_supplicant/src/utils\common.c **** 		return ssid_txt;
 1864              		.loc 1 627 3 is_stmt 1
 627:C:/Users/stapi/OneDrive/Desktop/GD32VW553/V1_MQTT_OK/GD32VW55X_Wifi_BLE_SDK/GD32VW55x_RELEASE_V1.0.2/MSDK/wpa_supplicant/src/utils\common.c **** 		return ssid_txt;
 1865              		.loc 1 627 15 is_stmt 0
 1866 000e 23000400 		sb	zero,%lo(.LANCHOR0)(s0)
 628:C:/Users/stapi/OneDrive/Desktop/GD32VW553/V1_MQTT_OK/GD32VW55X_Wifi_BLE_SDK/GD32VW55x_RELEASE_V1.0.2/MSDK/wpa_supplicant/src/utils\common.c **** 	}
 1867              		.loc 1 628 3 is_stmt 1
 1868              	.LVL206:
 1869              	.L162:
 633:C:/Users/stapi/OneDrive/Desktop/GD32VW553/V1_MQTT_OK/GD32VW55X_Wifi_BLE_SDK/GD32VW55x_RELEASE_V1.0.2/MSDK/wpa_supplicant/src/utils\common.c **** 
 1870              		.loc 1 633 1 is_stmt 0
 1871 0012 13050400 		addi	a0,s0,%lo(.LANCHOR0)
 1872 0016 17030000 		tail	__riscv_restore_1
 1872      67000300 
 1873              		.cfi_remember_state
 1874              		.cfi_restore 8
 1875              		.cfi_restore 1
 1876              		.cfi_def_cfa_offset 0
 1877              	.LVL207:
 1878              	.L161:
 1879              		.cfi_restore_state
 1880 001e 2A86     		mv	a2,a0
 1881 0020 AE86     		mv	a3,a1
 631:C:/Users/stapi/OneDrive/Desktop/GD32VW553/V1_MQTT_OK/GD32VW55X_Wifi_BLE_SDK/GD32VW55x_RELEASE_V1.0.2/MSDK/wpa_supplicant/src/utils\common.c **** 	return ssid_txt;
 1882              		.loc 1 631 2 is_stmt 1
 1883 0022 13050400 		addi	a0,s0,%lo(.LANCHOR0)
 1884              	.LVL208:
 1885 0026 93051008 		li	a1,129
 1886              	.LVL209:
 1887 002a 97000000 		call	printf_encode
 1887      E7800000 
 1888              	.LVL210:
 632:C:/Users/stapi/OneDrive/Desktop/GD32VW553/V1_MQTT_OK/GD32VW55X_Wifi_BLE_SDK/GD32VW55x_RELEASE_V1.0.2/MSDK/wpa_supplicant/src/utils\common.c **** }
 1889              		.loc 1 632 2
 632:C:/Users/stapi/OneDrive/Desktop/GD32VW553/V1_MQTT_OK/GD32VW55X_Wifi_BLE_SDK/GD32VW55x_RELEASE_V1.0.2/MSDK/wpa_supplicant/src/utils\common.c **** }
 1890              		.loc 1 632 9 is_stmt 0
 1891 0032 C5B7     		j	.L162
 1892              		.cfi_endproc
 1893              	.LFE90:
 1895              		.section	.text.__hide_aliasing_typecast,"ax",@progbits
 1896              		.align	1
 1897              		.globl	__hide_aliasing_typecast
 1899              	__hide_aliasing_typecast:
 1900              	.LFB91:
 637:C:/Users/stapi/OneDrive/Desktop/GD32VW553/V1_MQTT_OK/GD32VW55X_Wifi_BLE_SDK/GD32VW55x_RELEASE_V1.0.2/MSDK/wpa_supplicant/src/utils\common.c **** 	return foo;
 1901              		.loc 1 637 1 is_stmt 1
 1902              		.cfi_startproc
 1903              	.LVL211:
 638:C:/Users/stapi/OneDrive/Desktop/GD32VW553/V1_MQTT_OK/GD32VW55X_Wifi_BLE_SDK/GD32VW55x_RELEASE_V1.0.2/MSDK/wpa_supplicant/src/utils\common.c **** }
 1904              		.loc 1 638 2
 639:C:/Users/stapi/OneDrive/Desktop/GD32VW553/V1_MQTT_OK/GD32VW55X_Wifi_BLE_SDK/GD32VW55x_RELEASE_V1.0.2/MSDK/wpa_supplicant/src/utils\common.c **** 
 1905              		.loc 1 639 1 is_stmt 0
 1906 0000 8280     		ret
 1907              		.cfi_endproc
 1908              	.LFE91:
 1910              		.section	.text.is_hex,"ax",@progbits
 1911              		.align	1
 1912              		.globl	is_hex
 1914              	is_hex:
 1915              	.LFB93:
 700:C:/Users/stapi/OneDrive/Desktop/GD32VW553/V1_MQTT_OK/GD32VW55X_Wifi_BLE_SDK/GD32VW55x_RELEASE_V1.0.2/MSDK/wpa_supplicant/src/utils\common.c **** 	size_t i;
 1916              		.loc 1 700 1 is_stmt 1
 1917              		.cfi_startproc
 1918              	.LVL212:
 701:C:/Users/stapi/OneDrive/Desktop/GD32VW553/V1_MQTT_OK/GD32VW55X_Wifi_BLE_SDK/GD32VW55x_RELEASE_V1.0.2/MSDK/wpa_supplicant/src/utils\common.c **** 
 1919              		.loc 1 701 2
 703:C:/Users/stapi/OneDrive/Desktop/GD32VW553/V1_MQTT_OK/GD32VW55X_Wifi_BLE_SDK/GD32VW55x_RELEASE_V1.0.2/MSDK/wpa_supplicant/src/utils\common.c **** 		if (data[i] < 32 || data[i] >= 127)
 1920              		.loc 1 703 2
 703:C:/Users/stapi/OneDrive/Desktop/GD32VW553/V1_MQTT_OK/GD32VW55X_Wifi_BLE_SDK/GD32VW55x_RELEASE_V1.0.2/MSDK/wpa_supplicant/src/utils\common.c **** 		if (data[i] < 32 || data[i] >= 127)
 1921              		.loc 1 703 9 is_stmt 0
 1922 0000 0147     		li	a4,0
 704:C:/Users/stapi/OneDrive/Desktop/GD32VW553/V1_MQTT_OK/GD32VW55X_Wifi_BLE_SDK/GD32VW55x_RELEASE_V1.0.2/MSDK/wpa_supplicant/src/utils\common.c **** 			return 1;
 1923              		.loc 1 704 6
 1924 0002 9306E005 		li	a3,94
 1925              	.LVL213:
 1926              	.L166:
 703:C:/Users/stapi/OneDrive/Desktop/GD32VW553/V1_MQTT_OK/GD32VW55X_Wifi_BLE_SDK/GD32VW55x_RELEASE_V1.0.2/MSDK/wpa_supplicant/src/utils\common.c **** 		if (data[i] < 32 || data[i] >= 127)
 1927              		.loc 1 703 14 is_stmt 1 discriminator 1
 703:C:/Users/stapi/OneDrive/Desktop/GD32VW553/V1_MQTT_OK/GD32VW55X_Wifi_BLE_SDK/GD32VW55x_RELEASE_V1.0.2/MSDK/wpa_supplicant/src/utils\common.c **** 		if (data[i] < 32 || data[i] >= 127)
 1928              		.loc 1 703 2 is_stmt 0 discriminator 1
 1929 0006 6314B700 		bne	a4,a1,.L168
 707:C:/Users/stapi/OneDrive/Desktop/GD32VW553/V1_MQTT_OK/GD32VW55X_Wifi_BLE_SDK/GD32VW55x_RELEASE_V1.0.2/MSDK/wpa_supplicant/src/utils\common.c **** }
 1930              		.loc 1 707 9
 1931 000a 0145     		li	a0,0
 1932              	.LVL214:
 1933 000c 8280     		ret
 1934              	.LVL215:
 1935              	.L168:
 704:C:/Users/stapi/OneDrive/Desktop/GD32VW553/V1_MQTT_OK/GD32VW55X_Wifi_BLE_SDK/GD32VW55x_RELEASE_V1.0.2/MSDK/wpa_supplicant/src/utils\common.c **** 			return 1;
 1936              		.loc 1 704 3 is_stmt 1
 704:C:/Users/stapi/OneDrive/Desktop/GD32VW553/V1_MQTT_OK/GD32VW55X_Wifi_BLE_SDK/GD32VW55x_RELEASE_V1.0.2/MSDK/wpa_supplicant/src/utils\common.c **** 			return 1;
 1937              		.loc 1 704 11 is_stmt 0
 1938 000e B307E500 		add	a5,a0,a4
 704:C:/Users/stapi/OneDrive/Desktop/GD32VW553/V1_MQTT_OK/GD32VW55X_Wifi_BLE_SDK/GD32VW55x_RELEASE_V1.0.2/MSDK/wpa_supplicant/src/utils\common.c **** 			return 1;
 1939              		.loc 1 704 20
 1940 0012 83C70700 		lbu	a5,0(a5)
 1941 0016 8117     		addi	a5,a5,-32
 704:C:/Users/stapi/OneDrive/Desktop/GD32VW553/V1_MQTT_OK/GD32VW55X_Wifi_BLE_SDK/GD32VW55x_RELEASE_V1.0.2/MSDK/wpa_supplicant/src/utils\common.c **** 			return 1;
 1942              		.loc 1 704 6
 1943 0018 93F7F70F 		andi	a5,a5,0xff
 1944 001c 63E4F600 		bgtu	a5,a3,.L169
 703:C:/Users/stapi/OneDrive/Desktop/GD32VW553/V1_MQTT_OK/GD32VW55X_Wifi_BLE_SDK/GD32VW55x_RELEASE_V1.0.2/MSDK/wpa_supplicant/src/utils\common.c **** 		if (data[i] < 32 || data[i] >= 127)
 1945              		.loc 1 703 23 is_stmt 1 discriminator 2
 703:C:/Users/stapi/OneDrive/Desktop/GD32VW553/V1_MQTT_OK/GD32VW55X_Wifi_BLE_SDK/GD32VW55x_RELEASE_V1.0.2/MSDK/wpa_supplicant/src/utils\common.c **** 		if (data[i] < 32 || data[i] >= 127)
 1946              		.loc 1 703 24 is_stmt 0 discriminator 2
 1947 0020 0507     		addi	a4,a4,1
 1948              	.LVL216:
 1949 0022 D5B7     		j	.L166
 1950              	.L169:
 705:C:/Users/stapi/OneDrive/Desktop/GD32VW553/V1_MQTT_OK/GD32VW55X_Wifi_BLE_SDK/GD32VW55x_RELEASE_V1.0.2/MSDK/wpa_supplicant/src/utils\common.c **** 	}
 1951              		.loc 1 705 11
 1952 0024 0545     		li	a0,1
 1953              	.LVL217:
 708:C:/Users/stapi/OneDrive/Desktop/GD32VW553/V1_MQTT_OK/GD32VW55X_Wifi_BLE_SDK/GD32VW55x_RELEASE_V1.0.2/MSDK/wpa_supplicant/src/utils\common.c **** 
 1954              		.loc 1 708 1
 1955 0026 8280     		ret
 1956              		.cfi_endproc
 1957              	.LFE93:
 1959              		.section	.text.has_ctrl_char,"ax",@progbits
 1960              		.align	1
 1961              		.globl	has_ctrl_char
 1963              	has_ctrl_char:
 1964              	.LFB94:
 712:C:/Users/stapi/OneDrive/Desktop/GD32VW553/V1_MQTT_OK/GD32VW55X_Wifi_BLE_SDK/GD32VW55x_RELEASE_V1.0.2/MSDK/wpa_supplicant/src/utils\common.c **** 	size_t i;
 1965              		.loc 1 712 1 is_stmt 1
 1966              		.cfi_startproc
 1967              	.LVL218:
 713:C:/Users/stapi/OneDrive/Desktop/GD32VW553/V1_MQTT_OK/GD32VW55X_Wifi_BLE_SDK/GD32VW55x_RELEASE_V1.0.2/MSDK/wpa_supplicant/src/utils\common.c **** 
 1968              		.loc 1 713 2
 715:C:/Users/stapi/OneDrive/Desktop/GD32VW553/V1_MQTT_OK/GD32VW55X_Wifi_BLE_SDK/GD32VW55x_RELEASE_V1.0.2/MSDK/wpa_supplicant/src/utils\common.c **** 		if (data[i] < 32 || data[i] == 127)
 1969              		.loc 1 715 2
 715:C:/Users/stapi/OneDrive/Desktop/GD32VW553/V1_MQTT_OK/GD32VW55X_Wifi_BLE_SDK/GD32VW55x_RELEASE_V1.0.2/MSDK/wpa_supplicant/src/utils\common.c **** 		if (data[i] < 32 || data[i] == 127)
 1970              		.loc 1 715 9 is_stmt 0
 1971 0000 8147     		li	a5,0
 716:C:/Users/stapi/OneDrive/Desktop/GD32VW553/V1_MQTT_OK/GD32VW55X_Wifi_BLE_SDK/GD32VW55x_RELEASE_V1.0.2/MSDK/wpa_supplicant/src/utils\common.c **** 			return 1;
 1972              		.loc 1 716 6
 1973 0002 FD46     		li	a3,31
 716:C:/Users/stapi/OneDrive/Desktop/GD32VW553/V1_MQTT_OK/GD32VW55X_Wifi_BLE_SDK/GD32VW55x_RELEASE_V1.0.2/MSDK/wpa_supplicant/src/utils\common.c **** 			return 1;
 1974              		.loc 1 716 20
 1975 0004 1306F007 		li	a2,127
 1976              	.LVL219:
 1977              	.L171:
 715:C:/Users/stapi/OneDrive/Desktop/GD32VW553/V1_MQTT_OK/GD32VW55X_Wifi_BLE_SDK/GD32VW55x_RELEASE_V1.0.2/MSDK/wpa_supplicant/src/utils\common.c **** 		if (data[i] < 32 || data[i] == 127)
 1978              		.loc 1 715 14 is_stmt 1 discriminator 1
 715:C:/Users/stapi/OneDrive/Desktop/GD32VW553/V1_MQTT_OK/GD32VW55X_Wifi_BLE_SDK/GD32VW55x_RELEASE_V1.0.2/MSDK/wpa_supplicant/src/utils\common.c **** 		if (data[i] < 32 || data[i] == 127)
 1979              		.loc 1 715 2 is_stmt 0 discriminator 1
 1980 0008 6394B700 		bne	a5,a1,.L173
 719:C:/Users/stapi/OneDrive/Desktop/GD32VW553/V1_MQTT_OK/GD32VW55X_Wifi_BLE_SDK/GD32VW55x_RELEASE_V1.0.2/MSDK/wpa_supplicant/src/utils\common.c **** }
 1981              		.loc 1 719 9
 1982 000c 0145     		li	a0,0
 1983              	.LVL220:
 1984 000e 8280     		ret
 1985              	.LVL221:
 1986              	.L173:
 716:C:/Users/stapi/OneDrive/Desktop/GD32VW553/V1_MQTT_OK/GD32VW55X_Wifi_BLE_SDK/GD32VW55x_RELEASE_V1.0.2/MSDK/wpa_supplicant/src/utils\common.c **** 			return 1;
 1987              		.loc 1 716 3 is_stmt 1
 716:C:/Users/stapi/OneDrive/Desktop/GD32VW553/V1_MQTT_OK/GD32VW55X_Wifi_BLE_SDK/GD32VW55x_RELEASE_V1.0.2/MSDK/wpa_supplicant/src/utils\common.c **** 			return 1;
 1988              		.loc 1 716 11 is_stmt 0
 1989 0010 3307F500 		add	a4,a0,a5
 1990 0014 03470700 		lbu	a4,0(a4)
 716:C:/Users/stapi/OneDrive/Desktop/GD32VW553/V1_MQTT_OK/GD32VW55X_Wifi_BLE_SDK/GD32VW55x_RELEASE_V1.0.2/MSDK/wpa_supplicant/src/utils\common.c **** 			return 1;
 1991              		.loc 1 716 6
 1992 0018 63F6E600 		bleu	a4,a3,.L175
 716:C:/Users/stapi/OneDrive/Desktop/GD32VW553/V1_MQTT_OK/GD32VW55X_Wifi_BLE_SDK/GD32VW55x_RELEASE_V1.0.2/MSDK/wpa_supplicant/src/utils\common.c **** 			return 1;
 1993              		.loc 1 716 20 discriminator 1
 1994 001c 6304C700 		beq	a4,a2,.L175
 715:C:/Users/stapi/OneDrive/Desktop/GD32VW553/V1_MQTT_OK/GD32VW55X_Wifi_BLE_SDK/GD32VW55x_RELEASE_V1.0.2/MSDK/wpa_supplicant/src/utils\common.c **** 		if (data[i] < 32 || data[i] == 127)
 1995              		.loc 1 715 23 is_stmt 1 discriminator 2
 715:C:/Users/stapi/OneDrive/Desktop/GD32VW553/V1_MQTT_OK/GD32VW55X_Wifi_BLE_SDK/GD32VW55x_RELEASE_V1.0.2/MSDK/wpa_supplicant/src/utils\common.c **** 		if (data[i] < 32 || data[i] == 127)
 1996              		.loc 1 715 24 is_stmt 0 discriminator 2
 1997 0020 8507     		addi	a5,a5,1
 1998              	.LVL222:
 1999 0022 DDB7     		j	.L171
 2000              	.L175:
 717:C:/Users/stapi/OneDrive/Desktop/GD32VW553/V1_MQTT_OK/GD32VW55X_Wifi_BLE_SDK/GD32VW55x_RELEASE_V1.0.2/MSDK/wpa_supplicant/src/utils\common.c **** 	}
 2001              		.loc 1 717 11
 2002 0024 0545     		li	a0,1
 2003              	.LVL223:
 720:C:/Users/stapi/OneDrive/Desktop/GD32VW553/V1_MQTT_OK/GD32VW55X_Wifi_BLE_SDK/GD32VW55x_RELEASE_V1.0.2/MSDK/wpa_supplicant/src/utils\common.c **** 
 2004              		.loc 1 720 1
 2005 0026 8280     		ret
 2006              		.cfi_endproc
 2007              	.LFE94:
 2009              		.section	.text.has_newline,"ax",@progbits
 2010              		.align	1
 2011              		.globl	has_newline
 2013              	has_newline:
 2014              	.LFB95:
 724:C:/Users/stapi/OneDrive/Desktop/GD32VW553/V1_MQTT_OK/GD32VW55X_Wifi_BLE_SDK/GD32VW55x_RELEASE_V1.0.2/MSDK/wpa_supplicant/src/utils\common.c **** 	while (*str) {
 2015              		.loc 1 724 1 is_stmt 1
 2016              		.cfi_startproc
 2017              	.LVL224:
 725:C:/Users/stapi/OneDrive/Desktop/GD32VW553/V1_MQTT_OK/GD32VW55X_Wifi_BLE_SDK/GD32VW55x_RELEASE_V1.0.2/MSDK/wpa_supplicant/src/utils\common.c **** 		if (*str == '\n' || *str == '\r')
 2018              		.loc 1 725 2
 726:C:/Users/stapi/OneDrive/Desktop/GD32VW553/V1_MQTT_OK/GD32VW55X_Wifi_BLE_SDK/GD32VW55x_RELEASE_V1.0.2/MSDK/wpa_supplicant/src/utils\common.c **** 			return 1;
 2019              		.loc 1 726 6 is_stmt 0
 2020 0000 2947     		li	a4,10
 726:C:/Users/stapi/OneDrive/Desktop/GD32VW553/V1_MQTT_OK/GD32VW55X_Wifi_BLE_SDK/GD32VW55x_RELEASE_V1.0.2/MSDK/wpa_supplicant/src/utils\common.c **** 			return 1;
 2021              		.loc 1 726 20
 2022 0002 B546     		li	a3,13
 2023              	.L177:
 725:C:/Users/stapi/OneDrive/Desktop/GD32VW553/V1_MQTT_OK/GD32VW55X_Wifi_BLE_SDK/GD32VW55x_RELEASE_V1.0.2/MSDK/wpa_supplicant/src/utils\common.c **** 		if (*str == '\n' || *str == '\r')
 2024              		.loc 1 725 8 is_stmt 1
 725:C:/Users/stapi/OneDrive/Desktop/GD32VW553/V1_MQTT_OK/GD32VW55X_Wifi_BLE_SDK/GD32VW55x_RELEASE_V1.0.2/MSDK/wpa_supplicant/src/utils\common.c **** 		if (*str == '\n' || *str == '\r')
 2025              		.loc 1 725 9 is_stmt 0
 2026 0004 83070500 		lb	a5,0(a0)
 725:C:/Users/stapi/OneDrive/Desktop/GD32VW553/V1_MQTT_OK/GD32VW55X_Wifi_BLE_SDK/GD32VW55x_RELEASE_V1.0.2/MSDK/wpa_supplicant/src/utils\common.c **** 		if (*str == '\n' || *str == '\r')
 2027              		.loc 1 725 8
 2028 0008 99E3     		bne	a5,zero,.L179
 730:C:/Users/stapi/OneDrive/Desktop/GD32VW553/V1_MQTT_OK/GD32VW55X_Wifi_BLE_SDK/GD32VW55x_RELEASE_V1.0.2/MSDK/wpa_supplicant/src/utils\common.c **** }
 2029              		.loc 1 730 9
 2030 000a 0145     		li	a0,0
 2031              	.LVL225:
 2032 000c 8280     		ret
 2033              	.LVL226:
 2034              	.L179:
 726:C:/Users/stapi/OneDrive/Desktop/GD32VW553/V1_MQTT_OK/GD32VW55X_Wifi_BLE_SDK/GD32VW55x_RELEASE_V1.0.2/MSDK/wpa_supplicant/src/utils\common.c **** 			return 1;
 2035              		.loc 1 726 3 is_stmt 1
 726:C:/Users/stapi/OneDrive/Desktop/GD32VW553/V1_MQTT_OK/GD32VW55X_Wifi_BLE_SDK/GD32VW55x_RELEASE_V1.0.2/MSDK/wpa_supplicant/src/utils\common.c **** 			return 1;
 2036              		.loc 1 726 6 is_stmt 0
 2037 000e 6386E700 		beq	a5,a4,.L181
 726:C:/Users/stapi/OneDrive/Desktop/GD32VW553/V1_MQTT_OK/GD32VW55X_Wifi_BLE_SDK/GD32VW55x_RELEASE_V1.0.2/MSDK/wpa_supplicant/src/utils\common.c **** 			return 1;
 2038              		.loc 1 726 20 discriminator 1
 2039 0012 6384D700 		beq	a5,a3,.L181
 728:C:/Users/stapi/OneDrive/Desktop/GD32VW553/V1_MQTT_OK/GD32VW55X_Wifi_BLE_SDK/GD32VW55x_RELEASE_V1.0.2/MSDK/wpa_supplicant/src/utils\common.c **** 	}
 2040              		.loc 1 728 3 is_stmt 1
 728:C:/Users/stapi/OneDrive/Desktop/GD32VW553/V1_MQTT_OK/GD32VW55X_Wifi_BLE_SDK/GD32VW55x_RELEASE_V1.0.2/MSDK/wpa_supplicant/src/utils\common.c **** 	}
 2041              		.loc 1 728 6 is_stmt 0
 2042 0016 0505     		addi	a0,a0,1
 2043              	.LVL227:
 2044 0018 F5B7     		j	.L177
 2045              	.L181:
 727:C:/Users/stapi/OneDrive/Desktop/GD32VW553/V1_MQTT_OK/GD32VW55X_Wifi_BLE_SDK/GD32VW55x_RELEASE_V1.0.2/MSDK/wpa_supplicant/src/utils\common.c **** 		str++;
 2046              		.loc 1 727 11
 2047 001a 0545     		li	a0,1
 2048              	.LVL228:
 731:C:/Users/stapi/OneDrive/Desktop/GD32VW553/V1_MQTT_OK/GD32VW55X_Wifi_BLE_SDK/GD32VW55x_RELEASE_V1.0.2/MSDK/wpa_supplicant/src/utils\common.c **** 
 2049              		.loc 1 731 1
 2050 001c 8280     		ret
 2051              		.cfi_endproc
 2052              	.LFE95:
 2054              		.section	.text.merge_byte_arrays,"ax",@progbits
 2055              		.align	1
 2056              		.globl	merge_byte_arrays
 2058              	merge_byte_arrays:
 2059              	.LFB96:
 737:C:/Users/stapi/OneDrive/Desktop/GD32VW553/V1_MQTT_OK/GD32VW55X_Wifi_BLE_SDK/GD32VW55x_RELEASE_V1.0.2/MSDK/wpa_supplicant/src/utils\common.c **** 	size_t len = 0;
 2060              		.loc 1 737 1 is_stmt 1
 2061              		.cfi_startproc
 2062              	.LVL229:
 2063 0000 17030000 		call	t0,__riscv_save_6
 2063      E7020300 
 2064              		.cfi_offset 21, -28
 2065              		.cfi_offset 20, -24
 2066              		.cfi_offset 19, -20
 2067              		.cfi_offset 18, -16
 2068              		.cfi_offset 9, -12
 2069              		.cfi_offset 8, -8
 2070              		.cfi_offset 1, -4
 2071              		.cfi_def_cfa_offset 32
 738:C:/Users/stapi/OneDrive/Desktop/GD32VW553/V1_MQTT_OK/GD32VW55X_Wifi_BLE_SDK/GD32VW55x_RELEASE_V1.0.2/MSDK/wpa_supplicant/src/utils\common.c **** 
 2072              		.loc 1 738 2
 2073              	.LVL230:
 740:C:/Users/stapi/OneDrive/Desktop/GD32VW553/V1_MQTT_OK/GD32VW55X_Wifi_BLE_SDK/GD32VW55x_RELEASE_V1.0.2/MSDK/wpa_supplicant/src/utils\common.c **** 
 2074              		.loc 1 740 2
 737:C:/Users/stapi/OneDrive/Desktop/GD32VW553/V1_MQTT_OK/GD32VW55X_Wifi_BLE_SDK/GD32VW55x_RELEASE_V1.0.2/MSDK/wpa_supplicant/src/utils\common.c **** 	size_t len = 0;
 2075              		.loc 1 737 1 is_stmt 0
 2076 0008 328A     		mv	s4,a2
 2077 000a AE84     		mv	s1,a1
 740:C:/Users/stapi/OneDrive/Desktop/GD32VW553/V1_MQTT_OK/GD32VW55X_Wifi_BLE_SDK/GD32VW55x_RELEASE_V1.0.2/MSDK/wpa_supplicant/src/utils\common.c **** 
 2078              		.loc 1 740 2
 2079 000c 2E86     		mv	a2,a1
 2080              	.LVL231:
 2081 000e 8145     		li	a1,0
 2082              	.LVL232:
 737:C:/Users/stapi/OneDrive/Desktop/GD32VW553/V1_MQTT_OK/GD32VW55X_Wifi_BLE_SDK/GD32VW55x_RELEASE_V1.0.2/MSDK/wpa_supplicant/src/utils\common.c **** 	size_t len = 0;
 2083              		.loc 1 737 1
 2084 0010 2A89     		mv	s2,a0
 2085 0012 3684     		mv	s0,a3
 2086 0014 BA89     		mv	s3,a4
 2087 0016 BE8A     		mv	s5,a5
 740:C:/Users/stapi/OneDrive/Desktop/GD32VW553/V1_MQTT_OK/GD32VW55X_Wifi_BLE_SDK/GD32VW55x_RELEASE_V1.0.2/MSDK/wpa_supplicant/src/utils\common.c **** 
 2088              		.loc 1 740 2
 2089 0018 97000000 		call	os_memset
 2089      E7800000 
 2090              	.LVL233:
 742:C:/Users/stapi/OneDrive/Desktop/GD32VW553/V1_MQTT_OK/GD32VW55X_Wifi_BLE_SDK/GD32VW55x_RELEASE_V1.0.2/MSDK/wpa_supplicant/src/utils\common.c **** 		if (src1_len >= res_len) {
 2091              		.loc 1 742 2 is_stmt 1
 742:C:/Users/stapi/OneDrive/Desktop/GD32VW553/V1_MQTT_OK/GD32VW55X_Wifi_BLE_SDK/GD32VW55x_RELEASE_V1.0.2/MSDK/wpa_supplicant/src/utils\common.c **** 		if (src1_len >= res_len) {
 2092              		.loc 1 742 5 is_stmt 0
 2093 0020 63050A04 		beq	s4,zero,.L187
 743:C:/Users/stapi/OneDrive/Desktop/GD32VW553/V1_MQTT_OK/GD32VW55X_Wifi_BLE_SDK/GD32VW55x_RELEASE_V1.0.2/MSDK/wpa_supplicant/src/utils\common.c **** 			os_memcpy(res, src1, res_len);
 2094              		.loc 1 743 3 is_stmt 1
 743:C:/Users/stapi/OneDrive/Desktop/GD32VW553/V1_MQTT_OK/GD32VW55X_Wifi_BLE_SDK/GD32VW55x_RELEASE_V1.0.2/MSDK/wpa_supplicant/src/utils\common.c **** 			os_memcpy(res, src1, res_len);
 2095              		.loc 1 743 6 is_stmt 0
 2096 0024 636F9400 		bgtu	s1,s0,.L184
 744:C:/Users/stapi/OneDrive/Desktop/GD32VW553/V1_MQTT_OK/GD32VW55X_Wifi_BLE_SDK/GD32VW55x_RELEASE_V1.0.2/MSDK/wpa_supplicant/src/utils\common.c **** 			return res_len;
 2097              		.loc 1 744 4 is_stmt 1
 2098 0028 2686     		mv	a2,s1
 2099 002a D285     		mv	a1,s4
 2100 002c 4A85     		mv	a0,s2
 2101              	.LVL234:
 2102              	.L192:
 754:C:/Users/stapi/OneDrive/Desktop/GD32VW553/V1_MQTT_OK/GD32VW55X_Wifi_BLE_SDK/GD32VW55x_RELEASE_V1.0.2/MSDK/wpa_supplicant/src/utils\common.c **** 			return res_len;
 2103              		.loc 1 754 4 is_stmt 0
 2104 002e 97000000 		call	os_memcpy
 2104      E7800000 
 2105              	.LVL235:
 755:C:/Users/stapi/OneDrive/Desktop/GD32VW553/V1_MQTT_OK/GD32VW55X_Wifi_BLE_SDK/GD32VW55x_RELEASE_V1.0.2/MSDK/wpa_supplicant/src/utils\common.c **** 		}
 2106              		.loc 1 755 4 is_stmt 1
 755:C:/Users/stapi/OneDrive/Desktop/GD32VW553/V1_MQTT_OK/GD32VW55X_Wifi_BLE_SDK/GD32VW55x_RELEASE_V1.0.2/MSDK/wpa_supplicant/src/utils\common.c **** 		}
 2107              		.loc 1 755 11 is_stmt 0
 2108 0036 2686     		mv	a2,s1
 2109              	.L182:
 763:C:/Users/stapi/OneDrive/Desktop/GD32VW553/V1_MQTT_OK/GD32VW55X_Wifi_BLE_SDK/GD32VW55x_RELEASE_V1.0.2/MSDK/wpa_supplicant/src/utils\common.c **** 
 2110              		.loc 1 763 1
 2111 0038 3285     		mv	a0,a2
 2112 003a 17030000 		tail	__riscv_restore_6
 2112      67000300 
 2113              		.cfi_remember_state
 2114              		.cfi_restore 21
 2115              		.cfi_restore 20
 2116              		.cfi_restore 19
 2117              		.cfi_restore 18
 2118              		.cfi_restore 9
 2119              		.cfi_restore 8
 2120              		.cfi_restore 1
 2121              		.cfi_def_cfa_offset 0
 2122              	.LVL236:
 2123              	.L184:
 2124              		.cfi_restore_state
 748:C:/Users/stapi/OneDrive/Desktop/GD32VW553/V1_MQTT_OK/GD32VW55X_Wifi_BLE_SDK/GD32VW55x_RELEASE_V1.0.2/MSDK/wpa_supplicant/src/utils\common.c **** 		len += src1_len;
 2125              		.loc 1 748 3 is_stmt 1
 2126 0042 2286     		mv	a2,s0
 2127 0044 D285     		mv	a1,s4
 2128 0046 4A85     		mv	a0,s2
 2129 0048 97000000 		call	os_memcpy
 2129      E7800000 
 2130              	.LVL237:
 749:C:/Users/stapi/OneDrive/Desktop/GD32VW553/V1_MQTT_OK/GD32VW55X_Wifi_BLE_SDK/GD32VW55x_RELEASE_V1.0.2/MSDK/wpa_supplicant/src/utils\common.c **** 	}
 2131              		.loc 1 749 3
 748:C:/Users/stapi/OneDrive/Desktop/GD32VW553/V1_MQTT_OK/GD32VW55X_Wifi_BLE_SDK/GD32VW55x_RELEASE_V1.0.2/MSDK/wpa_supplicant/src/utils\common.c **** 		len += src1_len;
 2132              		.loc 1 748 3 is_stmt 0
 2133 0050 2286     		mv	a2,s0
 2134              	.LVL238:
 2135              	.L183:
 752:C:/Users/stapi/OneDrive/Desktop/GD32VW553/V1_MQTT_OK/GD32VW55X_Wifi_BLE_SDK/GD32VW55x_RELEASE_V1.0.2/MSDK/wpa_supplicant/src/utils\common.c **** 		if (len + src2_len >= res_len) {
 2136              		.loc 1 752 2 is_stmt 1
 752:C:/Users/stapi/OneDrive/Desktop/GD32VW553/V1_MQTT_OK/GD32VW55X_Wifi_BLE_SDK/GD32VW55x_RELEASE_V1.0.2/MSDK/wpa_supplicant/src/utils\common.c **** 		if (len + src2_len >= res_len) {
 2137              		.loc 1 752 5 is_stmt 0
 2138 0052 E38309FE 		beq	s3,zero,.L182
 753:C:/Users/stapi/OneDrive/Desktop/GD32VW553/V1_MQTT_OK/GD32VW55X_Wifi_BLE_SDK/GD32VW55x_RELEASE_V1.0.2/MSDK/wpa_supplicant/src/utils\common.c **** 			os_memcpy(res + len, src2, res_len - len);
 2139              		.loc 1 753 3 is_stmt 1
 753:C:/Users/stapi/OneDrive/Desktop/GD32VW553/V1_MQTT_OK/GD32VW55X_Wifi_BLE_SDK/GD32VW55x_RELEASE_V1.0.2/MSDK/wpa_supplicant/src/utils\common.c **** 			os_memcpy(res + len, src2, res_len - len);
 2140              		.loc 1 753 11 is_stmt 0
 2141 0056 33045601 		add	s0,a2,s5
 2142              	.LVL239:
 754:C:/Users/stapi/OneDrive/Desktop/GD32VW553/V1_MQTT_OK/GD32VW55X_Wifi_BLE_SDK/GD32VW55x_RELEASE_V1.0.2/MSDK/wpa_supplicant/src/utils\common.c **** 			return res_len;
 2143              		.loc 1 754 18
 2144 005a 3305C900 		add	a0,s2,a2
 753:C:/Users/stapi/OneDrive/Desktop/GD32VW553/V1_MQTT_OK/GD32VW55X_Wifi_BLE_SDK/GD32VW55x_RELEASE_V1.0.2/MSDK/wpa_supplicant/src/utils\common.c **** 			os_memcpy(res + len, src2, res_len - len);
 2145              		.loc 1 753 6
 2146 005e 63689400 		bltu	s0,s1,.L186
 754:C:/Users/stapi/OneDrive/Desktop/GD32VW553/V1_MQTT_OK/GD32VW55X_Wifi_BLE_SDK/GD32VW55x_RELEASE_V1.0.2/MSDK/wpa_supplicant/src/utils\common.c **** 			return res_len;
 2147              		.loc 1 754 4 is_stmt 1
 2148 0062 3386C440 		sub	a2,s1,a2
 2149              	.LVL240:
 2150 0066 CE85     		mv	a1,s3
 2151 0068 D9B7     		j	.L192
 2152              	.LVL241:
 2153              	.L187:
 738:C:/Users/stapi/OneDrive/Desktop/GD32VW553/V1_MQTT_OK/GD32VW55X_Wifi_BLE_SDK/GD32VW55x_RELEASE_V1.0.2/MSDK/wpa_supplicant/src/utils\common.c **** 
 2154              		.loc 1 738 9 is_stmt 0
 2155 006a 0146     		li	a2,0
 2156 006c DDB7     		j	.L183
 2157              	.LVL242:
 2158              	.L186:
 758:C:/Users/stapi/OneDrive/Desktop/GD32VW553/V1_MQTT_OK/GD32VW55X_Wifi_BLE_SDK/GD32VW55x_RELEASE_V1.0.2/MSDK/wpa_supplicant/src/utils\common.c **** 		len += src2_len;
 2159              		.loc 1 758 3 is_stmt 1
 2160 006e 5686     		mv	a2,s5
 2161              	.LVL243:
 2162 0070 CE85     		mv	a1,s3
 2163 0072 97000000 		call	os_memcpy
 2163      E7800000 
 2164              	.LVL244:
 759:C:/Users/stapi/OneDrive/Desktop/GD32VW553/V1_MQTT_OK/GD32VW55X_Wifi_BLE_SDK/GD32VW55x_RELEASE_V1.0.2/MSDK/wpa_supplicant/src/utils\common.c **** 	}
 2165              		.loc 1 759 3
 758:C:/Users/stapi/OneDrive/Desktop/GD32VW553/V1_MQTT_OK/GD32VW55X_Wifi_BLE_SDK/GD32VW55x_RELEASE_V1.0.2/MSDK/wpa_supplicant/src/utils\common.c **** 		len += src2_len;
 2166              		.loc 1 758 3 is_stmt 0
 2167 007a 2286     		mv	a2,s0
 2168              	.LVL245:
 2169 007c 75BF     		j	.L182
 2170              		.cfi_endproc
 2171              	.LFE96:
 2173              		.section	.text.dup_binstr,"ax",@progbits
 2174              		.align	1
 2175              		.globl	dup_binstr
 2177              	dup_binstr:
 2178              	.LFB97:
 767:C:/Users/stapi/OneDrive/Desktop/GD32VW553/V1_MQTT_OK/GD32VW55X_Wifi_BLE_SDK/GD32VW55x_RELEASE_V1.0.2/MSDK/wpa_supplicant/src/utils\common.c **** 	char *res;
 2179              		.loc 1 767 1 is_stmt 1
 2180              		.cfi_startproc
 2181              	.LVL246:
 2182 0000 17030000 		call	t0,__riscv_save_3
 2182      E7020300 
 2183              		.cfi_offset 18, -16
 2184              		.cfi_offset 9, -12
 2185              		.cfi_offset 8, -8
 2186              		.cfi_offset 1, -4
 2187              		.cfi_def_cfa_offset 16
 768:C:/Users/stapi/OneDrive/Desktop/GD32VW553/V1_MQTT_OK/GD32VW55X_Wifi_BLE_SDK/GD32VW55x_RELEASE_V1.0.2/MSDK/wpa_supplicant/src/utils\common.c **** 
 2188              		.loc 1 768 2
 770:C:/Users/stapi/OneDrive/Desktop/GD32VW553/V1_MQTT_OK/GD32VW55X_Wifi_BLE_SDK/GD32VW55x_RELEASE_V1.0.2/MSDK/wpa_supplicant/src/utils\common.c **** 		return NULL;
 2189              		.loc 1 770 2
 771:C:/Users/stapi/OneDrive/Desktop/GD32VW553/V1_MQTT_OK/GD32VW55X_Wifi_BLE_SDK/GD32VW55x_RELEASE_V1.0.2/MSDK/wpa_supplicant/src/utils\common.c **** 	res = os_malloc(len + 1);
 2190              		.loc 1 771 10 is_stmt 0
 2191 0008 8144     		li	s1,0
 770:C:/Users/stapi/OneDrive/Desktop/GD32VW553/V1_MQTT_OK/GD32VW55X_Wifi_BLE_SDK/GD32VW55x_RELEASE_V1.0.2/MSDK/wpa_supplicant/src/utils\common.c **** 		return NULL;
 2192              		.loc 1 770 5
 2193 000a 05C5     		beq	a0,zero,.L193
 2194 000c 2A89     		mv	s2,a0
 772:C:/Users/stapi/OneDrive/Desktop/GD32VW553/V1_MQTT_OK/GD32VW55X_Wifi_BLE_SDK/GD32VW55x_RELEASE_V1.0.2/MSDK/wpa_supplicant/src/utils\common.c **** 	if (res == NULL)
 2195              		.loc 1 772 8
 2196 000e 13851500 		addi	a0,a1,1
 2197              	.LVL247:
 2198 0012 2E84     		mv	s0,a1
 772:C:/Users/stapi/OneDrive/Desktop/GD32VW553/V1_MQTT_OK/GD32VW55X_Wifi_BLE_SDK/GD32VW55x_RELEASE_V1.0.2/MSDK/wpa_supplicant/src/utils\common.c **** 	if (res == NULL)
 2199              		.loc 1 772 2 is_stmt 1
 772:C:/Users/stapi/OneDrive/Desktop/GD32VW553/V1_MQTT_OK/GD32VW55X_Wifi_BLE_SDK/GD32VW55x_RELEASE_V1.0.2/MSDK/wpa_supplicant/src/utils\common.c **** 	if (res == NULL)
 2200              		.loc 1 772 8 is_stmt 0
 2201 0014 97000000 		call	os_malloc
 2201      E7800000 
 2202              	.LVL248:
 2203 001c AA84     		mv	s1,a0
 2204              	.LVL249:
 773:C:/Users/stapi/OneDrive/Desktop/GD32VW553/V1_MQTT_OK/GD32VW55X_Wifi_BLE_SDK/GD32VW55x_RELEASE_V1.0.2/MSDK/wpa_supplicant/src/utils\common.c **** 		return NULL;
 2205              		.loc 1 773 2 is_stmt 1
 773:C:/Users/stapi/OneDrive/Desktop/GD32VW553/V1_MQTT_OK/GD32VW55X_Wifi_BLE_SDK/GD32VW55x_RELEASE_V1.0.2/MSDK/wpa_supplicant/src/utils\common.c **** 		return NULL;
 2206              		.loc 1 773 5 is_stmt 0
 2207 001e 11C9     		beq	a0,zero,.L193
 775:C:/Users/stapi/OneDrive/Desktop/GD32VW553/V1_MQTT_OK/GD32VW55X_Wifi_BLE_SDK/GD32VW55x_RELEASE_V1.0.2/MSDK/wpa_supplicant/src/utils\common.c **** 	res[len] = '\0';
 2208              		.loc 1 775 2 is_stmt 1
 2209 0020 2286     		mv	a2,s0
 2210 0022 CA85     		mv	a1,s2
 776:C:/Users/stapi/OneDrive/Desktop/GD32VW553/V1_MQTT_OK/GD32VW55X_Wifi_BLE_SDK/GD32VW55x_RELEASE_V1.0.2/MSDK/wpa_supplicant/src/utils\common.c **** 
 2211              		.loc 1 776 11 is_stmt 0
 2212 0024 2694     		add	s0,s1,s0
 2213              	.LVL250:
 775:C:/Users/stapi/OneDrive/Desktop/GD32VW553/V1_MQTT_OK/GD32VW55X_Wifi_BLE_SDK/GD32VW55x_RELEASE_V1.0.2/MSDK/wpa_supplicant/src/utils\common.c **** 	res[len] = '\0';
 2214              		.loc 1 775 2
 2215 0026 97000000 		call	os_memcpy
 2215      E7800000 
 2216              	.LVL251:
 776:C:/Users/stapi/OneDrive/Desktop/GD32VW553/V1_MQTT_OK/GD32VW55X_Wifi_BLE_SDK/GD32VW55x_RELEASE_V1.0.2/MSDK/wpa_supplicant/src/utils\common.c **** 
 2217              		.loc 1 776 2 is_stmt 1
 776:C:/Users/stapi/OneDrive/Desktop/GD32VW553/V1_MQTT_OK/GD32VW55X_Wifi_BLE_SDK/GD32VW55x_RELEASE_V1.0.2/MSDK/wpa_supplicant/src/utils\common.c **** 
 2218              		.loc 1 776 11 is_stmt 0
 2219 002e 23000400 		sb	zero,0(s0)
 778:C:/Users/stapi/OneDrive/Desktop/GD32VW553/V1_MQTT_OK/GD32VW55X_Wifi_BLE_SDK/GD32VW55x_RELEASE_V1.0.2/MSDK/wpa_supplicant/src/utils\common.c **** }
 2220              		.loc 1 778 2 is_stmt 1
 2221              	.LVL252:
 2222              	.L193:
 779:C:/Users/stapi/OneDrive/Desktop/GD32VW553/V1_MQTT_OK/GD32VW55X_Wifi_BLE_SDK/GD32VW55x_RELEASE_V1.0.2/MSDK/wpa_supplicant/src/utils\common.c **** 
 2223              		.loc 1 779 1 is_stmt 0
 2224 0032 2685     		mv	a0,s1
 2225 0034 17030000 		tail	__riscv_restore_3
 2225      67000300 
 2226              		.cfi_restore 18
 2227              		.cfi_restore 9
 2228              		.cfi_restore 8
 2229              		.cfi_restore 1
 2230              		.cfi_def_cfa_offset 0
 2231              		.cfi_endproc
 2232              	.LFE97:
 2234              		.section	.text.wpa_config_parse_string,"ax",@progbits
 2235              		.align	1
 2236              		.globl	wpa_config_parse_string
 2238              	wpa_config_parse_string:
 2239              	.LFB92:
 643:C:/Users/stapi/OneDrive/Desktop/GD32VW553/V1_MQTT_OK/GD32VW55X_Wifi_BLE_SDK/GD32VW55x_RELEASE_V1.0.2/MSDK/wpa_supplicant/src/utils\common.c **** 	if (*value == '"') {
 2240              		.loc 1 643 1 is_stmt 1
 2241              		.cfi_startproc
 2242              	.LVL253:
 2243 0000 17030000 		call	t0,__riscv_save_4
 2243      E7020300 
 2244              		.cfi_offset 19, -20
 2245              		.cfi_offset 18, -16
 2246              		.cfi_offset 9, -12
 2247              		.cfi_offset 8, -8
 2248              		.cfi_offset 1, -4
 2249              		.cfi_def_cfa_offset 32
 644:C:/Users/stapi/OneDrive/Desktop/GD32VW553/V1_MQTT_OK/GD32VW55X_Wifi_BLE_SDK/GD32VW55x_RELEASE_V1.0.2/MSDK/wpa_supplicant/src/utils\common.c **** 		const char *pos;
 2250              		.loc 1 644 2
 644:C:/Users/stapi/OneDrive/Desktop/GD32VW553/V1_MQTT_OK/GD32VW55X_Wifi_BLE_SDK/GD32VW55x_RELEASE_V1.0.2/MSDK/wpa_supplicant/src/utils\common.c **** 		const char *pos;
 2251              		.loc 1 644 5 is_stmt 0
 2252 0008 93072002 		li	a5,34
 643:C:/Users/stapi/OneDrive/Desktop/GD32VW553/V1_MQTT_OK/GD32VW55X_Wifi_BLE_SDK/GD32VW55x_RELEASE_V1.0.2/MSDK/wpa_supplicant/src/utils\common.c **** 	if (*value == '"') {
 2253              		.loc 1 643 1
 2254 000c AA84     		mv	s1,a0
 2255 000e AE89     		mv	s3,a1
 644:C:/Users/stapi/OneDrive/Desktop/GD32VW553/V1_MQTT_OK/GD32VW55X_Wifi_BLE_SDK/GD32VW55x_RELEASE_V1.0.2/MSDK/wpa_supplicant/src/utils\common.c **** 		const char *pos;
 2256              		.loc 1 644 6
 2257 0010 03070500 		lb	a4,0(a0)
 644:C:/Users/stapi/OneDrive/Desktop/GD32VW553/V1_MQTT_OK/GD32VW55X_Wifi_BLE_SDK/GD32VW55x_RELEASE_V1.0.2/MSDK/wpa_supplicant/src/utils\common.c **** 		const char *pos;
 2258              		.loc 1 644 5
 2259 0014 6310F704 		bne	a4,a5,.L201
 2260              	.LBB29:
 645:C:/Users/stapi/OneDrive/Desktop/GD32VW553/V1_MQTT_OK/GD32VW55X_Wifi_BLE_SDK/GD32VW55x_RELEASE_V1.0.2/MSDK/wpa_supplicant/src/utils\common.c **** 		char *str;
 2261              		.loc 1 645 3 is_stmt 1
 646:C:/Users/stapi/OneDrive/Desktop/GD32VW553/V1_MQTT_OK/GD32VW55X_Wifi_BLE_SDK/GD32VW55x_RELEASE_V1.0.2/MSDK/wpa_supplicant/src/utils\common.c **** 		value++;
 2262              		.loc 1 646 3
 647:C:/Users/stapi/OneDrive/Desktop/GD32VW553/V1_MQTT_OK/GD32VW55X_Wifi_BLE_SDK/GD32VW55x_RELEASE_V1.0.2/MSDK/wpa_supplicant/src/utils\common.c **** 		pos = os_strrchr(value, '"');
 2263              		.loc 1 647 3
 647:C:/Users/stapi/OneDrive/Desktop/GD32VW553/V1_MQTT_OK/GD32VW55X_Wifi_BLE_SDK/GD32VW55x_RELEASE_V1.0.2/MSDK/wpa_supplicant/src/utils\common.c **** 		pos = os_strrchr(value, '"');
 2264              		.loc 1 647 8 is_stmt 0
 2265 0018 93041500 		addi	s1,a0,1
 2266              	.LVL254:
 648:C:/Users/stapi/OneDrive/Desktop/GD32VW553/V1_MQTT_OK/GD32VW55X_Wifi_BLE_SDK/GD32VW55x_RELEASE_V1.0.2/MSDK/wpa_supplicant/src/utils\common.c **** 		if (pos == NULL || pos[1] != '\0')
 2267              		.loc 1 648 3 is_stmt 1
 648:C:/Users/stapi/OneDrive/Desktop/GD32VW553/V1_MQTT_OK/GD32VW55X_Wifi_BLE_SDK/GD32VW55x_RELEASE_V1.0.2/MSDK/wpa_supplicant/src/utils\common.c **** 		if (pos == NULL || pos[1] != '\0')
 2268              		.loc 1 648 9 is_stmt 0
 2269 001c 93052002 		li	a1,34
 2270              	.LVL255:
 2271 0020 2685     		mv	a0,s1
 2272 0022 97000000 		call	os_strrchr
 2272      E7800000 
 2273              	.LVL256:
 649:C:/Users/stapi/OneDrive/Desktop/GD32VW553/V1_MQTT_OK/GD32VW55X_Wifi_BLE_SDK/GD32VW55x_RELEASE_V1.0.2/MSDK/wpa_supplicant/src/utils\common.c **** 			return NULL;
 2274              		.loc 1 649 3 is_stmt 1
 649:C:/Users/stapi/OneDrive/Desktop/GD32VW553/V1_MQTT_OK/GD32VW55X_Wifi_BLE_SDK/GD32VW55x_RELEASE_V1.0.2/MSDK/wpa_supplicant/src/utils\common.c **** 			return NULL;
 2275              		.loc 1 649 6 is_stmt 0
 2276 002a 19E1     		bne	a0,zero,.L202
 2277              	.LVL257:
 2278              	.L218:
 2279              	.LBE29:
 2280              	.LBB30:
 690:C:/Users/stapi/OneDrive/Desktop/GD32VW553/V1_MQTT_OK/GD32VW55X_Wifi_BLE_SDK/GD32VW55x_RELEASE_V1.0.2/MSDK/wpa_supplicant/src/utils\common.c **** 		}
 2281              		.loc 1 690 4 is_stmt 1
 690:C:/Users/stapi/OneDrive/Desktop/GD32VW553/V1_MQTT_OK/GD32VW55X_Wifi_BLE_SDK/GD32VW55x_RELEASE_V1.0.2/MSDK/wpa_supplicant/src/utils\common.c **** 		}
 2282              		.loc 1 690 11 is_stmt 0
 2283 002c 0144     		li	s0,0
 2284 002e 31A8     		j	.L200
 2285              	.LVL258:
 2286              	.L202:
 2287              	.LBE30:
 2288              	.LBB31:
 649:C:/Users/stapi/OneDrive/Desktop/GD32VW553/V1_MQTT_OK/GD32VW55X_Wifi_BLE_SDK/GD32VW55x_RELEASE_V1.0.2/MSDK/wpa_supplicant/src/utils\common.c **** 			return NULL;
 2289              		.loc 1 649 19 discriminator 1
 2290 0030 83071500 		lb	a5,1(a0)
 2291 0034 E5FF     		bne	a5,zero,.L218
 651:C:/Users/stapi/OneDrive/Desktop/GD32VW553/V1_MQTT_OK/GD32VW55X_Wifi_BLE_SDK/GD32VW55x_RELEASE_V1.0.2/MSDK/wpa_supplicant/src/utils\common.c **** 		str = dup_binstr(value, *len);
 2292              		.loc 1 651 3 is_stmt 1
 651:C:/Users/stapi/OneDrive/Desktop/GD32VW553/V1_MQTT_OK/GD32VW55X_Wifi_BLE_SDK/GD32VW55x_RELEASE_V1.0.2/MSDK/wpa_supplicant/src/utils\common.c **** 		str = dup_binstr(value, *len);
 2293              		.loc 1 651 14 is_stmt 0
 2294 0036 B3059540 		sub	a1,a0,s1
 651:C:/Users/stapi/OneDrive/Desktop/GD32VW553/V1_MQTT_OK/GD32VW55X_Wifi_BLE_SDK/GD32VW55x_RELEASE_V1.0.2/MSDK/wpa_supplicant/src/utils\common.c **** 		str = dup_binstr(value, *len);
 2295              		.loc 1 651 8
 2296 003a 23A0B900 		sw	a1,0(s3)
 652:C:/Users/stapi/OneDrive/Desktop/GD32VW553/V1_MQTT_OK/GD32VW55X_Wifi_BLE_SDK/GD32VW55x_RELEASE_V1.0.2/MSDK/wpa_supplicant/src/utils\common.c **** 		if (str == NULL)
 2297              		.loc 1 652 3 is_stmt 1
 652:C:/Users/stapi/OneDrive/Desktop/GD32VW553/V1_MQTT_OK/GD32VW55X_Wifi_BLE_SDK/GD32VW55x_RELEASE_V1.0.2/MSDK/wpa_supplicant/src/utils\common.c **** 		if (str == NULL)
 2298              		.loc 1 652 9 is_stmt 0
 2299 003e 2685     		mv	a0,s1
 2300              	.LVL259:
 2301 0040 97000000 		call	dup_binstr
 2301      E7800000 
 2302              	.LVL260:
 2303 0048 2A84     		mv	s0,a0
 2304              	.LVL261:
 653:C:/Users/stapi/OneDrive/Desktop/GD32VW553/V1_MQTT_OK/GD32VW55X_Wifi_BLE_SDK/GD32VW55x_RELEASE_V1.0.2/MSDK/wpa_supplicant/src/utils\common.c **** 			return NULL;
 2305              		.loc 1 653 3 is_stmt 1
 2306              	.L200:
 2307              	.LBE31:
 696:C:/Users/stapi/OneDrive/Desktop/GD32VW553/V1_MQTT_OK/GD32VW55X_Wifi_BLE_SDK/GD32VW55x_RELEASE_V1.0.2/MSDK/wpa_supplicant/src/utils\common.c **** 
 2308              		.loc 1 696 1 is_stmt 0
 2309 004a 2285     		mv	a0,s0
 2310 004c 17030000 		tail	__riscv_restore_4
 2310      67000300 
 2311              		.cfi_remember_state
 2312              		.cfi_restore 19
 2313              		.cfi_restore 18
 2314              		.cfi_restore 9
 2315              		.cfi_restore 8
 2316              		.cfi_restore 1
 2317              		.cfi_def_cfa_offset 0
 2318              	.LVL262:
 2319              	.L201:
 2320              		.cfi_restore_state
 656:C:/Users/stapi/OneDrive/Desktop/GD32VW553/V1_MQTT_OK/GD32VW55X_Wifi_BLE_SDK/GD32VW55x_RELEASE_V1.0.2/MSDK/wpa_supplicant/src/utils\common.c **** 		const char *pos;
 2321              		.loc 1 656 9 is_stmt 1
 656:C:/Users/stapi/OneDrive/Desktop/GD32VW553/V1_MQTT_OK/GD32VW55X_Wifi_BLE_SDK/GD32VW55x_RELEASE_V1.0.2/MSDK/wpa_supplicant/src/utils\common.c **** 		const char *pos;
 2322              		.loc 1 656 12 is_stmt 0
 2323 0054 93060005 		li	a3,80
 2324 0058 6315D706 		bne	a4,a3,.L205
 656:C:/Users/stapi/OneDrive/Desktop/GD32VW553/V1_MQTT_OK/GD32VW55X_Wifi_BLE_SDK/GD32VW55x_RELEASE_V1.0.2/MSDK/wpa_supplicant/src/utils\common.c **** 		const char *pos;
 2325              		.loc 1 656 27 discriminator 1
 2326 005c 03071500 		lb	a4,1(a0)
 2327 0060 6311F706 		bne	a4,a5,.L205
 2328              	.LBB32:
 657:C:/Users/stapi/OneDrive/Desktop/GD32VW553/V1_MQTT_OK/GD32VW55X_Wifi_BLE_SDK/GD32VW55x_RELEASE_V1.0.2/MSDK/wpa_supplicant/src/utils\common.c **** 		char *tstr, *str;
 2329              		.loc 1 657 3 is_stmt 1
 658:C:/Users/stapi/OneDrive/Desktop/GD32VW553/V1_MQTT_OK/GD32VW55X_Wifi_BLE_SDK/GD32VW55x_RELEASE_V1.0.2/MSDK/wpa_supplicant/src/utils\common.c **** 		size_t tlen;
 2330              		.loc 1 658 3
 659:C:/Users/stapi/OneDrive/Desktop/GD32VW553/V1_MQTT_OK/GD32VW55X_Wifi_BLE_SDK/GD32VW55x_RELEASE_V1.0.2/MSDK/wpa_supplicant/src/utils\common.c **** 		value += 2;
 2331              		.loc 1 659 3
 660:C:/Users/stapi/OneDrive/Desktop/GD32VW553/V1_MQTT_OK/GD32VW55X_Wifi_BLE_SDK/GD32VW55x_RELEASE_V1.0.2/MSDK/wpa_supplicant/src/utils\common.c **** 		pos = os_strrchr(value, '"');
 2332              		.loc 1 660 3
 660:C:/Users/stapi/OneDrive/Desktop/GD32VW553/V1_MQTT_OK/GD32VW55X_Wifi_BLE_SDK/GD32VW55x_RELEASE_V1.0.2/MSDK/wpa_supplicant/src/utils\common.c **** 		pos = os_strrchr(value, '"');
 2333              		.loc 1 660 9 is_stmt 0
 2334 0064 93042500 		addi	s1,a0,2
 2335              	.LVL263:
 661:C:/Users/stapi/OneDrive/Desktop/GD32VW553/V1_MQTT_OK/GD32VW55X_Wifi_BLE_SDK/GD32VW55x_RELEASE_V1.0.2/MSDK/wpa_supplicant/src/utils\common.c **** 		if (pos == NULL || pos[1] != '\0')
 2336              		.loc 1 661 3 is_stmt 1
 661:C:/Users/stapi/OneDrive/Desktop/GD32VW553/V1_MQTT_OK/GD32VW55X_Wifi_BLE_SDK/GD32VW55x_RELEASE_V1.0.2/MSDK/wpa_supplicant/src/utils\common.c **** 		if (pos == NULL || pos[1] != '\0')
 2337              		.loc 1 661 9 is_stmt 0
 2338 0068 93052002 		li	a1,34
 2339              	.LVL264:
 2340 006c 2685     		mv	a0,s1
 2341 006e 97000000 		call	os_strrchr
 2341      E7800000 
 2342              	.LVL265:
 662:C:/Users/stapi/OneDrive/Desktop/GD32VW553/V1_MQTT_OK/GD32VW55X_Wifi_BLE_SDK/GD32VW55x_RELEASE_V1.0.2/MSDK/wpa_supplicant/src/utils\common.c **** 			return NULL;
 2343              		.loc 1 662 3 is_stmt 1
 662:C:/Users/stapi/OneDrive/Desktop/GD32VW553/V1_MQTT_OK/GD32VW55X_Wifi_BLE_SDK/GD32VW55x_RELEASE_V1.0.2/MSDK/wpa_supplicant/src/utils\common.c **** 			return NULL;
 2344              		.loc 1 662 6 is_stmt 0
 2345 0076 5DD9     		beq	a0,zero,.L218
 662:C:/Users/stapi/OneDrive/Desktop/GD32VW553/V1_MQTT_OK/GD32VW55X_Wifi_BLE_SDK/GD32VW55x_RELEASE_V1.0.2/MSDK/wpa_supplicant/src/utils\common.c **** 			return NULL;
 2346              		.loc 1 662 19 discriminator 1
 2347 0078 83071500 		lb	a5,1(a0)
 2348 007c C5FB     		bne	a5,zero,.L218
 664:C:/Users/stapi/OneDrive/Desktop/GD32VW553/V1_MQTT_OK/GD32VW55X_Wifi_BLE_SDK/GD32VW55x_RELEASE_V1.0.2/MSDK/wpa_supplicant/src/utils\common.c **** 		tstr = dup_binstr(value, tlen);
 2349              		.loc 1 664 3 is_stmt 1
 664:C:/Users/stapi/OneDrive/Desktop/GD32VW553/V1_MQTT_OK/GD32VW55X_Wifi_BLE_SDK/GD32VW55x_RELEASE_V1.0.2/MSDK/wpa_supplicant/src/utils\common.c **** 		tstr = dup_binstr(value, tlen);
 2350              		.loc 1 664 14 is_stmt 0
 2351 007e 33049540 		sub	s0,a0,s1
 2352              	.LVL266:
 665:C:/Users/stapi/OneDrive/Desktop/GD32VW553/V1_MQTT_OK/GD32VW55X_Wifi_BLE_SDK/GD32VW55x_RELEASE_V1.0.2/MSDK/wpa_supplicant/src/utils\common.c **** 		if (tstr == NULL)
 2353              		.loc 1 665 3 is_stmt 1
 665:C:/Users/stapi/OneDrive/Desktop/GD32VW553/V1_MQTT_OK/GD32VW55X_Wifi_BLE_SDK/GD32VW55x_RELEASE_V1.0.2/MSDK/wpa_supplicant/src/utils\common.c **** 		if (tstr == NULL)
 2354              		.loc 1 665 10 is_stmt 0
 2355 0082 A285     		mv	a1,s0
 2356 0084 2685     		mv	a0,s1
 2357              	.LVL267:
 2358 0086 97000000 		call	dup_binstr
 2358      E7800000 
 2359              	.LVL268:
 2360 008e 2A89     		mv	s2,a0
 2361              	.LVL269:
 666:C:/Users/stapi/OneDrive/Desktop/GD32VW553/V1_MQTT_OK/GD32VW55X_Wifi_BLE_SDK/GD32VW55x_RELEASE_V1.0.2/MSDK/wpa_supplicant/src/utils\common.c **** 			return NULL;
 2362              		.loc 1 666 3 is_stmt 1
 666:C:/Users/stapi/OneDrive/Desktop/GD32VW553/V1_MQTT_OK/GD32VW55X_Wifi_BLE_SDK/GD32VW55x_RELEASE_V1.0.2/MSDK/wpa_supplicant/src/utils\common.c **** 			return NULL;
 2363              		.loc 1 666 6 is_stmt 0
 2364 0090 51DD     		beq	a0,zero,.L218
 669:C:/Users/stapi/OneDrive/Desktop/GD32VW553/V1_MQTT_OK/GD32VW55X_Wifi_BLE_SDK/GD32VW55x_RELEASE_V1.0.2/MSDK/wpa_supplicant/src/utils\common.c **** 		if (str == NULL) {
 2365              		.loc 1 669 3 is_stmt 1
 669:C:/Users/stapi/OneDrive/Desktop/GD32VW553/V1_MQTT_OK/GD32VW55X_Wifi_BLE_SDK/GD32VW55x_RELEASE_V1.0.2/MSDK/wpa_supplicant/src/utils\common.c **** 		if (str == NULL) {
 2366              		.loc 1 669 9 is_stmt 0
 2367 0092 93041400 		addi	s1,s0,1
 2368              	.LVL270:
 2369 0096 2685     		mv	a0,s1
 2370              	.LVL271:
 2371 0098 97000000 		call	os_malloc
 2371      E7800000 
 2372              	.LVL272:
 2373 00a0 2A84     		mv	s0,a0
 2374              	.LVL273:
 670:C:/Users/stapi/OneDrive/Desktop/GD32VW553/V1_MQTT_OK/GD32VW55X_Wifi_BLE_SDK/GD32VW55x_RELEASE_V1.0.2/MSDK/wpa_supplicant/src/utils\common.c **** 			os_free(tstr);
 2375              		.loc 1 670 3 is_stmt 1
 670:C:/Users/stapi/OneDrive/Desktop/GD32VW553/V1_MQTT_OK/GD32VW55X_Wifi_BLE_SDK/GD32VW55x_RELEASE_V1.0.2/MSDK/wpa_supplicant/src/utils\common.c **** 			os_free(tstr);
 2376              		.loc 1 670 6 is_stmt 0
 2377 00a2 19E5     		bne	a0,zero,.L206
 2378              	.L219:
 676:C:/Users/stapi/OneDrive/Desktop/GD32VW553/V1_MQTT_OK/GD32VW55X_Wifi_BLE_SDK/GD32VW55x_RELEASE_V1.0.2/MSDK/wpa_supplicant/src/utils\common.c **** 
 2379              		.loc 1 676 3 is_stmt 1
 2380 00a4 4A85     		mv	a0,s2
 2381 00a6 97000000 		call	os_free
 2381      E7800000 
 2382              	.LVL274:
 678:C:/Users/stapi/OneDrive/Desktop/GD32VW553/V1_MQTT_OK/GD32VW55X_Wifi_BLE_SDK/GD32VW55x_RELEASE_V1.0.2/MSDK/wpa_supplicant/src/utils\common.c **** 	} else {
 2383              		.loc 1 678 3
 678:C:/Users/stapi/OneDrive/Desktop/GD32VW553/V1_MQTT_OK/GD32VW55X_Wifi_BLE_SDK/GD32VW55x_RELEASE_V1.0.2/MSDK/wpa_supplicant/src/utils\common.c **** 	} else {
 2384              		.loc 1 678 10 is_stmt 0
 2385 00ae 71BF     		j	.L200
 2386              	.L206:
 675:C:/Users/stapi/OneDrive/Desktop/GD32VW553/V1_MQTT_OK/GD32VW55X_Wifi_BLE_SDK/GD32VW55x_RELEASE_V1.0.2/MSDK/wpa_supplicant/src/utils\common.c **** 		os_free(tstr);
 2387              		.loc 1 675 3 is_stmt 1
 675:C:/Users/stapi/OneDrive/Desktop/GD32VW553/V1_MQTT_OK/GD32VW55X_Wifi_BLE_SDK/GD32VW55x_RELEASE_V1.0.2/MSDK/wpa_supplicant/src/utils\common.c **** 		os_free(tstr);
 2388              		.loc 1 675 10 is_stmt 0
 2389 00b0 4A86     		mv	a2,s2
 2390 00b2 A685     		mv	a1,s1
 2391 00b4 97000000 		call	printf_decode
 2391      E7800000 
 2392              	.LVL275:
 675:C:/Users/stapi/OneDrive/Desktop/GD32VW553/V1_MQTT_OK/GD32VW55X_Wifi_BLE_SDK/GD32VW55x_RELEASE_V1.0.2/MSDK/wpa_supplicant/src/utils\common.c **** 		os_free(tstr);
 2393              		.loc 1 675 8
 2394 00bc 23A0A900 		sw	a0,0(s3)
 2395 00c0 D5B7     		j	.L219
 2396              	.LVL276:
 2397              	.L205:
 2398              	.LBE32:
 2399              	.LBB33:
 680:C:/Users/stapi/OneDrive/Desktop/GD32VW553/V1_MQTT_OK/GD32VW55X_Wifi_BLE_SDK/GD32VW55x_RELEASE_V1.0.2/MSDK/wpa_supplicant/src/utils\common.c **** 		size_t tlen, hlen = os_strlen(value);
 2400              		.loc 1 680 3 is_stmt 1
 681:C:/Users/stapi/OneDrive/Desktop/GD32VW553/V1_MQTT_OK/GD32VW55X_Wifi_BLE_SDK/GD32VW55x_RELEASE_V1.0.2/MSDK/wpa_supplicant/src/utils\common.c **** 		if (hlen & 1)
 2401              		.loc 1 681 3
 681:C:/Users/stapi/OneDrive/Desktop/GD32VW553/V1_MQTT_OK/GD32VW55X_Wifi_BLE_SDK/GD32VW55x_RELEASE_V1.0.2/MSDK/wpa_supplicant/src/utils\common.c **** 		if (hlen & 1)
 2402              		.loc 1 681 23 is_stmt 0
 2403 00c2 2685     		mv	a0,s1
 2404 00c4 97000000 		call	os_strlen
 2404      E7800000 
 2405              	.LVL277:
 682:C:/Users/stapi/OneDrive/Desktop/GD32VW553/V1_MQTT_OK/GD32VW55X_Wifi_BLE_SDK/GD32VW55x_RELEASE_V1.0.2/MSDK/wpa_supplicant/src/utils\common.c **** 			return NULL;
 2406              		.loc 1 682 3 is_stmt 1
 682:C:/Users/stapi/OneDrive/Desktop/GD32VW553/V1_MQTT_OK/GD32VW55X_Wifi_BLE_SDK/GD32VW55x_RELEASE_V1.0.2/MSDK/wpa_supplicant/src/utils\common.c **** 			return NULL;
 2407              		.loc 1 682 12 is_stmt 0
 2408 00cc 93771500 		andi	a5,a0,1
 682:C:/Users/stapi/OneDrive/Desktop/GD32VW553/V1_MQTT_OK/GD32VW55X_Wifi_BLE_SDK/GD32VW55x_RELEASE_V1.0.2/MSDK/wpa_supplicant/src/utils\common.c **** 			return NULL;
 2409              		.loc 1 682 6
 2410 00d0 B1FF     		bne	a5,zero,.L218
 684:C:/Users/stapi/OneDrive/Desktop/GD32VW553/V1_MQTT_OK/GD32VW55X_Wifi_BLE_SDK/GD32VW55x_RELEASE_V1.0.2/MSDK/wpa_supplicant/src/utils\common.c **** 		str = os_malloc(tlen + 1);
 2411              		.loc 1 684 3 is_stmt 1
 684:C:/Users/stapi/OneDrive/Desktop/GD32VW553/V1_MQTT_OK/GD32VW55X_Wifi_BLE_SDK/GD32VW55x_RELEASE_V1.0.2/MSDK/wpa_supplicant/src/utils\common.c **** 		str = os_malloc(tlen + 1);
 2412              		.loc 1 684 8 is_stmt 0
 2413 00d2 13591500 		srli	s2,a0,1
 2414              	.LVL278:
 685:C:/Users/stapi/OneDrive/Desktop/GD32VW553/V1_MQTT_OK/GD32VW55X_Wifi_BLE_SDK/GD32VW55x_RELEASE_V1.0.2/MSDK/wpa_supplicant/src/utils\common.c **** 		if (str == NULL)
 2415              		.loc 1 685 3 is_stmt 1
 685:C:/Users/stapi/OneDrive/Desktop/GD32VW553/V1_MQTT_OK/GD32VW55X_Wifi_BLE_SDK/GD32VW55x_RELEASE_V1.0.2/MSDK/wpa_supplicant/src/utils\common.c **** 		if (str == NULL)
 2416              		.loc 1 685 9 is_stmt 0
 2417 00d6 13051900 		addi	a0,s2,1
 2418              	.LVL279:
 2419 00da 97000000 		call	os_malloc
 2419      E7800000 
 2420              	.LVL280:
 2421 00e2 2A84     		mv	s0,a0
 2422              	.LVL281:
 686:C:/Users/stapi/OneDrive/Desktop/GD32VW553/V1_MQTT_OK/GD32VW55X_Wifi_BLE_SDK/GD32VW55x_RELEASE_V1.0.2/MSDK/wpa_supplicant/src/utils\common.c **** 			return NULL;
 2423              		.loc 1 686 3 is_stmt 1
 686:C:/Users/stapi/OneDrive/Desktop/GD32VW553/V1_MQTT_OK/GD32VW55X_Wifi_BLE_SDK/GD32VW55x_RELEASE_V1.0.2/MSDK/wpa_supplicant/src/utils\common.c **** 			return NULL;
 2424              		.loc 1 686 6 is_stmt 0
 2425 00e4 21D5     		beq	a0,zero,.L218
 688:C:/Users/stapi/OneDrive/Desktop/GD32VW553/V1_MQTT_OK/GD32VW55X_Wifi_BLE_SDK/GD32VW55x_RELEASE_V1.0.2/MSDK/wpa_supplicant/src/utils\common.c **** 			os_free(str);
 2426              		.loc 1 688 3 is_stmt 1
 688:C:/Users/stapi/OneDrive/Desktop/GD32VW553/V1_MQTT_OK/GD32VW55X_Wifi_BLE_SDK/GD32VW55x_RELEASE_V1.0.2/MSDK/wpa_supplicant/src/utils\common.c **** 			os_free(str);
 2427              		.loc 1 688 7 is_stmt 0
 2428 00e6 AA85     		mv	a1,a0
 2429 00e8 4A86     		mv	a2,s2
 2430 00ea 2685     		mv	a0,s1
 2431 00ec 97000000 		call	hexstr2bin
 2431      E7800000 
 2432              	.LVL282:
 688:C:/Users/stapi/OneDrive/Desktop/GD32VW553/V1_MQTT_OK/GD32VW55X_Wifi_BLE_SDK/GD32VW55x_RELEASE_V1.0.2/MSDK/wpa_supplicant/src/utils\common.c **** 			os_free(str);
 2433              		.loc 1 688 6
 2434 00f4 19C5     		beq	a0,zero,.L207
 689:C:/Users/stapi/OneDrive/Desktop/GD32VW553/V1_MQTT_OK/GD32VW55X_Wifi_BLE_SDK/GD32VW55x_RELEASE_V1.0.2/MSDK/wpa_supplicant/src/utils\common.c **** 			return NULL;
 2435              		.loc 1 689 4 is_stmt 1
 2436 00f6 2285     		mv	a0,s0
 2437 00f8 97000000 		call	os_free
 2437      E7800000 
 2438              	.LVL283:
 2439 0100 35B7     		j	.L218
 2440              	.L207:
 692:C:/Users/stapi/OneDrive/Desktop/GD32VW553/V1_MQTT_OK/GD32VW55X_Wifi_BLE_SDK/GD32VW55x_RELEASE_V1.0.2/MSDK/wpa_supplicant/src/utils\common.c **** 		*len = tlen;
 2441              		.loc 1 692 3
 692:C:/Users/stapi/OneDrive/Desktop/GD32VW553/V1_MQTT_OK/GD32VW55X_Wifi_BLE_SDK/GD32VW55x_RELEASE_V1.0.2/MSDK/wpa_supplicant/src/utils\common.c **** 		*len = tlen;
 2442              		.loc 1 692 13 is_stmt 0
 2443 0102 B3072401 		add	a5,s0,s2
 2444 0106 23800700 		sb	zero,0(a5)
 693:C:/Users/stapi/OneDrive/Desktop/GD32VW553/V1_MQTT_OK/GD32VW55X_Wifi_BLE_SDK/GD32VW55x_RELEASE_V1.0.2/MSDK/wpa_supplicant/src/utils\common.c **** 		return (char *) str;
 2445              		.loc 1 693 3 is_stmt 1
 693:C:/Users/stapi/OneDrive/Desktop/GD32VW553/V1_MQTT_OK/GD32VW55X_Wifi_BLE_SDK/GD32VW55x_RELEASE_V1.0.2/MSDK/wpa_supplicant/src/utils\common.c **** 		return (char *) str;
 2446              		.loc 1 693 8 is_stmt 0
 2447 010a 23A02901 		sw	s2,0(s3)
 694:C:/Users/stapi/OneDrive/Desktop/GD32VW553/V1_MQTT_OK/GD32VW55X_Wifi_BLE_SDK/GD32VW55x_RELEASE_V1.0.2/MSDK/wpa_supplicant/src/utils\common.c **** 	}
 2448              		.loc 1 694 3 is_stmt 1
 694:C:/Users/stapi/OneDrive/Desktop/GD32VW553/V1_MQTT_OK/GD32VW55X_Wifi_BLE_SDK/GD32VW55x_RELEASE_V1.0.2/MSDK/wpa_supplicant/src/utils\common.c **** 	}
 2449              		.loc 1 694 10 is_stmt 0
 2450 010e 35BF     		j	.L200
 2451              	.LBE33:
 2452              		.cfi_endproc
 2453              	.LFE92:
 2455              		.section	.text.freq_range_list_parse,"ax",@progbits
 2456              		.align	1
 2457              		.globl	freq_range_list_parse
 2459              	freq_range_list_parse:
 2460              	.LFB98:
 783:C:/Users/stapi/OneDrive/Desktop/GD32VW553/V1_MQTT_OK/GD32VW55X_Wifi_BLE_SDK/GD32VW55x_RELEASE_V1.0.2/MSDK/wpa_supplicant/src/utils\common.c **** 	struct wpa_freq_range *freq = NULL, *n;
 2461              		.loc 1 783 1 is_stmt 1
 2462              		.cfi_startproc
 2463              	.LVL284:
 2464 0000 17030000 		call	t0,__riscv_save_7
 2464      E7020300 
 2465              		.cfi_offset 22, -32
 2466              		.cfi_offset 21, -28
 2467              		.cfi_offset 20, -24
 2468              		.cfi_offset 19, -20
 2469              		.cfi_offset 18, -16
 2470              		.cfi_offset 9, -12
 2471              		.cfi_offset 8, -8
 2472              		.cfi_offset 1, -4
 2473              		.cfi_def_cfa_offset 32
 784:C:/Users/stapi/OneDrive/Desktop/GD32VW553/V1_MQTT_OK/GD32VW55X_Wifi_BLE_SDK/GD32VW55x_RELEASE_V1.0.2/MSDK/wpa_supplicant/src/utils\common.c **** 	unsigned int count = 0;
 2474              		.loc 1 784 2
 2475              	.LVL285:
 785:C:/Users/stapi/OneDrive/Desktop/GD32VW553/V1_MQTT_OK/GD32VW55X_Wifi_BLE_SDK/GD32VW55x_RELEASE_V1.0.2/MSDK/wpa_supplicant/src/utils\common.c **** 	const char *pos, *pos2, *pos3;
 2476              		.loc 1 785 2
 786:C:/Users/stapi/OneDrive/Desktop/GD32VW553/V1_MQTT_OK/GD32VW55X_Wifi_BLE_SDK/GD32VW55x_RELEASE_V1.0.2/MSDK/wpa_supplicant/src/utils\common.c **** 
 2477              		.loc 1 786 2
 792:C:/Users/stapi/OneDrive/Desktop/GD32VW553/V1_MQTT_OK/GD32VW55X_Wifi_BLE_SDK/GD32VW55x_RELEASE_V1.0.2/MSDK/wpa_supplicant/src/utils\common.c **** 	while (pos && pos[0]) {
 2478              		.loc 1 792 2
 783:C:/Users/stapi/OneDrive/Desktop/GD32VW553/V1_MQTT_OK/GD32VW55X_Wifi_BLE_SDK/GD32VW55x_RELEASE_V1.0.2/MSDK/wpa_supplicant/src/utils\common.c **** 	struct wpa_freq_range *freq = NULL, *n;
 2479              		.loc 1 783 1 is_stmt 0
 2480 0008 AA89     		mv	s3,a0
 2481 000a 2E84     		mv	s0,a1
 2482              	.LVL286:
 793:C:/Users/stapi/OneDrive/Desktop/GD32VW553/V1_MQTT_OK/GD32VW55X_Wifi_BLE_SDK/GD32VW55x_RELEASE_V1.0.2/MSDK/wpa_supplicant/src/utils\common.c **** 		if (count == UINT_MAX) {
 2483              		.loc 1 793 2 is_stmt 1
 785:C:/Users/stapi/OneDrive/Desktop/GD32VW553/V1_MQTT_OK/GD32VW55X_Wifi_BLE_SDK/GD32VW55x_RELEASE_V1.0.2/MSDK/wpa_supplicant/src/utils\common.c **** 	const char *pos, *pos2, *pos3;
 2484              		.loc 1 785 15 is_stmt 0
 2485 000c 0149     		li	s2,0
 784:C:/Users/stapi/OneDrive/Desktop/GD32VW553/V1_MQTT_OK/GD32VW55X_Wifi_BLE_SDK/GD32VW55x_RELEASE_V1.0.2/MSDK/wpa_supplicant/src/utils\common.c **** 	unsigned int count = 0;
 2486              		.loc 1 784 25
 2487 000e 014A     		li	s4,0
 794:C:/Users/stapi/OneDrive/Desktop/GD32VW553/V1_MQTT_OK/GD32VW55X_Wifi_BLE_SDK/GD32VW55x_RELEASE_V1.0.2/MSDK/wpa_supplicant/src/utils\common.c **** 			os_free(freq);
 2488              		.loc 1 794 6
 2489 0010 7D5B     		li	s6,-1
 2490              	.LVL287:
 2491              	.L221:
 793:C:/Users/stapi/OneDrive/Desktop/GD32VW553/V1_MQTT_OK/GD32VW55X_Wifi_BLE_SDK/GD32VW55x_RELEASE_V1.0.2/MSDK/wpa_supplicant/src/utils\common.c **** 		if (count == UINT_MAX) {
 2492              		.loc 1 793 8 is_stmt 1
 2493 0012 01C4     		beq	s0,zero,.L232
 793:C:/Users/stapi/OneDrive/Desktop/GD32VW553/V1_MQTT_OK/GD32VW55X_Wifi_BLE_SDK/GD32VW55x_RELEASE_V1.0.2/MSDK/wpa_supplicant/src/utils\common.c **** 		if (count == UINT_MAX) {
 2494              		.loc 1 793 13 is_stmt 0 discriminator 1
 2495 0014 83070400 		lb	a5,0(s0)
 2496 0018 89EF     		bne	a5,zero,.L233
 2497              	.L232:
 819:C:/Users/stapi/OneDrive/Desktop/GD32VW553/V1_MQTT_OK/GD32VW55X_Wifi_BLE_SDK/GD32VW55x_RELEASE_V1.0.2/MSDK/wpa_supplicant/src/utils\common.c **** 	res->range = freq;
 2498              		.loc 1 819 2 is_stmt 1
 2499 001a 03A50900 		lw	a0,0(s3)
 2500 001e 97000000 		call	os_free
 2500      E7800000 
 2501              	.LVL288:
 820:C:/Users/stapi/OneDrive/Desktop/GD32VW553/V1_MQTT_OK/GD32VW55X_Wifi_BLE_SDK/GD32VW55x_RELEASE_V1.0.2/MSDK/wpa_supplicant/src/utils\common.c **** 	res->num = count;
 2502              		.loc 1 820 2
 823:C:/Users/stapi/OneDrive/Desktop/GD32VW553/V1_MQTT_OK/GD32VW55X_Wifi_BLE_SDK/GD32VW55x_RELEASE_V1.0.2/MSDK/wpa_supplicant/src/utils\common.c **** }
 2503              		.loc 1 823 9 is_stmt 0
 2504 0026 0145     		li	a0,0
 820:C:/Users/stapi/OneDrive/Desktop/GD32VW553/V1_MQTT_OK/GD32VW55X_Wifi_BLE_SDK/GD32VW55x_RELEASE_V1.0.2/MSDK/wpa_supplicant/src/utils\common.c **** 	res->num = count;
 2505              		.loc 1 820 13
 2506 0028 23A04901 		sw	s4,0(s3)
 821:C:/Users/stapi/OneDrive/Desktop/GD32VW553/V1_MQTT_OK/GD32VW55X_Wifi_BLE_SDK/GD32VW55x_RELEASE_V1.0.2/MSDK/wpa_supplicant/src/utils\common.c **** 
 2507              		.loc 1 821 2 is_stmt 1
 821:C:/Users/stapi/OneDrive/Desktop/GD32VW553/V1_MQTT_OK/GD32VW55X_Wifi_BLE_SDK/GD32VW55x_RELEASE_V1.0.2/MSDK/wpa_supplicant/src/utils\common.c **** 
 2508              		.loc 1 821 11 is_stmt 0
 2509 002c 23A22901 		sw	s2,4(s3)
 823:C:/Users/stapi/OneDrive/Desktop/GD32VW553/V1_MQTT_OK/GD32VW55X_Wifi_BLE_SDK/GD32VW55x_RELEASE_V1.0.2/MSDK/wpa_supplicant/src/utils\common.c **** }
 2510              		.loc 1 823 2 is_stmt 1
 823:C:/Users/stapi/OneDrive/Desktop/GD32VW553/V1_MQTT_OK/GD32VW55X_Wifi_BLE_SDK/GD32VW55x_RELEASE_V1.0.2/MSDK/wpa_supplicant/src/utils\common.c **** }
 2511              		.loc 1 823 9 is_stmt 0
 2512 0030 09A8     		j	.L220
 2513              	.L233:
 794:C:/Users/stapi/OneDrive/Desktop/GD32VW553/V1_MQTT_OK/GD32VW55X_Wifi_BLE_SDK/GD32VW55x_RELEASE_V1.0.2/MSDK/wpa_supplicant/src/utils\common.c **** 			os_free(freq);
 2514              		.loc 1 794 3 is_stmt 1
 794:C:/Users/stapi/OneDrive/Desktop/GD32VW553/V1_MQTT_OK/GD32VW55X_Wifi_BLE_SDK/GD32VW55x_RELEASE_V1.0.2/MSDK/wpa_supplicant/src/utils\common.c **** 			os_free(freq);
 2515              		.loc 1 794 6 is_stmt 0
 2516 0032 631C6901 		bne	s2,s6,.L222
 2517              	.LVL289:
 2518              	.L227:
 801:C:/Users/stapi/OneDrive/Desktop/GD32VW553/V1_MQTT_OK/GD32VW55X_Wifi_BLE_SDK/GD32VW55x_RELEASE_V1.0.2/MSDK/wpa_supplicant/src/utils\common.c **** 			return -1;
 2519              		.loc 1 801 4 is_stmt 1
 2520 0036 5285     		mv	a0,s4
 2521 0038 97000000 		call	os_free
 2521      E7800000 
 2522              	.LVL290:
 802:C:/Users/stapi/OneDrive/Desktop/GD32VW553/V1_MQTT_OK/GD32VW55X_Wifi_BLE_SDK/GD32VW55x_RELEASE_V1.0.2/MSDK/wpa_supplicant/src/utils\common.c **** 		}
 2523              		.loc 1 802 4
 802:C:/Users/stapi/OneDrive/Desktop/GD32VW553/V1_MQTT_OK/GD32VW55X_Wifi_BLE_SDK/GD32VW55x_RELEASE_V1.0.2/MSDK/wpa_supplicant/src/utils\common.c **** 		}
 2524              		.loc 1 802 11 is_stmt 0
 2525 0040 7D55     		li	a0,-1
 2526              	.L220:
 824:C:/Users/stapi/OneDrive/Desktop/GD32VW553/V1_MQTT_OK/GD32VW55X_Wifi_BLE_SDK/GD32VW55x_RELEASE_V1.0.2/MSDK/wpa_supplicant/src/utils\common.c **** 
 2527              		.loc 1 824 1
 2528 0042 17030000 		tail	__riscv_restore_7
 2528      67000300 
 2529              		.cfi_remember_state
 2530              		.cfi_restore 22
 2531              		.cfi_restore 21
 2532              		.cfi_restore 20
 2533              		.cfi_restore 19
 2534              		.cfi_restore 18
 2535              		.cfi_restore 9
 2536              		.cfi_restore 8
 2537              		.cfi_restore 1
 2538              		.cfi_def_cfa_offset 0
 2539              	.LVL291:
 2540              	.L222:
 2541              		.cfi_restore_state
 798:C:/Users/stapi/OneDrive/Desktop/GD32VW553/V1_MQTT_OK/GD32VW55X_Wifi_BLE_SDK/GD32VW55x_RELEASE_V1.0.2/MSDK/wpa_supplicant/src/utils\common.c **** 				     sizeof(struct wpa_freq_range));
 2542              		.loc 1 798 3 is_stmt 1
 798:C:/Users/stapi/OneDrive/Desktop/GD32VW553/V1_MQTT_OK/GD32VW55X_Wifi_BLE_SDK/GD32VW55x_RELEASE_V1.0.2/MSDK/wpa_supplicant/src/utils\common.c **** 				     sizeof(struct wpa_freq_range));
 2543              		.loc 1 798 7 is_stmt 0
 2544 004a 0509     		addi	s2,s2,1
 2545              	.LVL292:
 2546              	.LBB36:
 2547              	.LBB37:
 562:..\..\..\..\wpa_supplicant\src/utils/os.h **** }
 563:..\..\..\..\wpa_supplicant\src/utils/os.h **** 
 564:..\..\..\..\wpa_supplicant\src/utils/os.h **** 
 565:..\..\..\..\wpa_supplicant\src/utils/os.h **** static inline void * os_realloc_array(void *ptr, size_t nmemb, size_t size)
 566:..\..\..\..\wpa_supplicant\src/utils/os.h **** {
 567:..\..\..\..\wpa_supplicant\src/utils/os.h **** 	if (size && nmemb > (~(size_t) 0) / size)
 2548              		.loc 2 567 2 is_stmt 1
 2549 004c 9357D901 		srli	a5,s2,29
 2550 0050 FDF3     		bne	a5,zero,.L227
 568:..\..\..\..\wpa_supplicant\src/utils/os.h **** 		return NULL;
 569:..\..\..\..\wpa_supplicant\src/utils/os.h **** 	return os_realloc(ptr, nmemb * size);
 2551              		.loc 2 569 2
 2552 0052 93143900 		slli	s1,s2,3
 2553              		.loc 2 569 9 is_stmt 0
 2554 0056 A685     		mv	a1,s1
 2555 0058 5285     		mv	a0,s4
 2556 005a 97000000 		call	os_realloc
 2556      E7800000 
 2557              	.LVL293:
 2558 0062 AA8A     		mv	s5,a0
 2559              	.LVL294:
 2560              	.LBE37:
 2561              	.LBE36:
 800:C:/Users/stapi/OneDrive/Desktop/GD32VW553/V1_MQTT_OK/GD32VW55X_Wifi_BLE_SDK/GD32VW55x_RELEASE_V1.0.2/MSDK/wpa_supplicant/src/utils\common.c **** 			os_free(freq);
 2562              		.loc 1 800 3 is_stmt 1
 800:C:/Users/stapi/OneDrive/Desktop/GD32VW553/V1_MQTT_OK/GD32VW55X_Wifi_BLE_SDK/GD32VW55x_RELEASE_V1.0.2/MSDK/wpa_supplicant/src/utils\common.c **** 			os_free(freq);
 2563              		.loc 1 800 6 is_stmt 0
 2564 0064 69D9     		beq	a0,zero,.L227
 804:C:/Users/stapi/OneDrive/Desktop/GD32VW553/V1_MQTT_OK/GD32VW55X_Wifi_BLE_SDK/GD32VW55x_RELEASE_V1.0.2/MSDK/wpa_supplicant/src/utils\common.c **** 		freq[count].min = atoi(pos);
 2565              		.loc 1 804 3 is_stmt 1
 2566              	.LVL295:
 805:C:/Users/stapi/OneDrive/Desktop/GD32VW553/V1_MQTT_OK/GD32VW55X_Wifi_BLE_SDK/GD32VW55x_RELEASE_V1.0.2/MSDK/wpa_supplicant/src/utils\common.c **** 		pos2 = os_strchr(pos, '-');
 2567              		.loc 1 805 3
 805:C:/Users/stapi/OneDrive/Desktop/GD32VW553/V1_MQTT_OK/GD32VW55X_Wifi_BLE_SDK/GD32VW55x_RELEASE_V1.0.2/MSDK/wpa_supplicant/src/utils\common.c **** 		pos2 = os_strchr(pos, '-');
 2568              		.loc 1 805 21 is_stmt 0
 2569 0066 2285     		mv	a0,s0
 2570              	.LVL296:
 805:C:/Users/stapi/OneDrive/Desktop/GD32VW553/V1_MQTT_OK/GD32VW55X_Wifi_BLE_SDK/GD32VW55x_RELEASE_V1.0.2/MSDK/wpa_supplicant/src/utils\common.c **** 		pos2 = os_strchr(pos, '-');
 2571              		.loc 1 805 7
 2572 0068 E114     		addi	s1,s1,-8
 805:C:/Users/stapi/OneDrive/Desktop/GD32VW553/V1_MQTT_OK/GD32VW55X_Wifi_BLE_SDK/GD32VW55x_RELEASE_V1.0.2/MSDK/wpa_supplicant/src/utils\common.c **** 		pos2 = os_strchr(pos, '-');
 2573              		.loc 1 805 21
 2574 006a 97000000 		call	atoi
 2574      E7800000 
 2575              	.LVL297:
 805:C:/Users/stapi/OneDrive/Desktop/GD32VW553/V1_MQTT_OK/GD32VW55X_Wifi_BLE_SDK/GD32VW55x_RELEASE_V1.0.2/MSDK/wpa_supplicant/src/utils\common.c **** 		pos2 = os_strchr(pos, '-');
 2576              		.loc 1 805 7
 2577 0072 D694     		add	s1,s5,s1
 805:C:/Users/stapi/OneDrive/Desktop/GD32VW553/V1_MQTT_OK/GD32VW55X_Wifi_BLE_SDK/GD32VW55x_RELEASE_V1.0.2/MSDK/wpa_supplicant/src/utils\common.c **** 		pos2 = os_strchr(pos, '-');
 2578              		.loc 1 805 19
 2579 0074 88C0     		sw	a0,0(s1)
 806:C:/Users/stapi/OneDrive/Desktop/GD32VW553/V1_MQTT_OK/GD32VW55X_Wifi_BLE_SDK/GD32VW55x_RELEASE_V1.0.2/MSDK/wpa_supplicant/src/utils\common.c **** 		pos3 = os_strchr(pos, ',');
 2580              		.loc 1 806 3 is_stmt 1
 806:C:/Users/stapi/OneDrive/Desktop/GD32VW553/V1_MQTT_OK/GD32VW55X_Wifi_BLE_SDK/GD32VW55x_RELEASE_V1.0.2/MSDK/wpa_supplicant/src/utils\common.c **** 		pos3 = os_strchr(pos, ',');
 2581              		.loc 1 806 10 is_stmt 0
 2582 0076 9305D002 		li	a1,45
 2583 007a 2285     		mv	a0,s0
 2584 007c 97000000 		call	os_strchr
 2584      E7800000 
 2585              	.LVL298:
 2586 0084 2A8A     		mv	s4,a0
 2587              	.LVL299:
 807:C:/Users/stapi/OneDrive/Desktop/GD32VW553/V1_MQTT_OK/GD32VW55X_Wifi_BLE_SDK/GD32VW55x_RELEASE_V1.0.2/MSDK/wpa_supplicant/src/utils\common.c **** 		if (pos2 && (!pos3 || pos2 < pos3)) {
 2588              		.loc 1 807 3 is_stmt 1
 807:C:/Users/stapi/OneDrive/Desktop/GD32VW553/V1_MQTT_OK/GD32VW55X_Wifi_BLE_SDK/GD32VW55x_RELEASE_V1.0.2/MSDK/wpa_supplicant/src/utils\common.c **** 		if (pos2 && (!pos3 || pos2 < pos3)) {
 2589              		.loc 1 807 10 is_stmt 0
 2590 0086 9305C002 		li	a1,44
 2591 008a 2285     		mv	a0,s0
 2592              	.LVL300:
 2593 008c 97000000 		call	os_strchr
 2593      E7800000 
 2594              	.LVL301:
 2595 0094 2A84     		mv	s0,a0
 2596              	.LVL302:
 808:C:/Users/stapi/OneDrive/Desktop/GD32VW553/V1_MQTT_OK/GD32VW55X_Wifi_BLE_SDK/GD32VW55x_RELEASE_V1.0.2/MSDK/wpa_supplicant/src/utils\common.c **** 			pos2++;
 2597              		.loc 1 808 3 is_stmt 1
 808:C:/Users/stapi/OneDrive/Desktop/GD32VW553/V1_MQTT_OK/GD32VW55X_Wifi_BLE_SDK/GD32VW55x_RELEASE_V1.0.2/MSDK/wpa_supplicant/src/utils\common.c **** 			pos2++;
 2598              		.loc 1 808 6 is_stmt 0
 2599 0096 63000A02 		beq	s4,zero,.L228
 808:C:/Users/stapi/OneDrive/Desktop/GD32VW553/V1_MQTT_OK/GD32VW55X_Wifi_BLE_SDK/GD32VW55x_RELEASE_V1.0.2/MSDK/wpa_supplicant/src/utils\common.c **** 			pos2++;
 2600              		.loc 1 808 12 discriminator 1
 2601 009a 19C1     		beq	a0,zero,.L229
 808:C:/Users/stapi/OneDrive/Desktop/GD32VW553/V1_MQTT_OK/GD32VW55X_Wifi_BLE_SDK/GD32VW55x_RELEASE_V1.0.2/MSDK/wpa_supplicant/src/utils\common.c **** 			pos2++;
 2602              		.loc 1 808 22 discriminator 2
 2603 009c 637DAA00 		bgeu	s4,a0,.L228
 2604              	.L229:
 809:C:/Users/stapi/OneDrive/Desktop/GD32VW553/V1_MQTT_OK/GD32VW55X_Wifi_BLE_SDK/GD32VW55x_RELEASE_V1.0.2/MSDK/wpa_supplicant/src/utils\common.c **** 			freq[count].max = atoi(pos2);
 2605              		.loc 1 809 4 is_stmt 1
 2606              	.LVL303:
 810:C:/Users/stapi/OneDrive/Desktop/GD32VW553/V1_MQTT_OK/GD32VW55X_Wifi_BLE_SDK/GD32VW55x_RELEASE_V1.0.2/MSDK/wpa_supplicant/src/utils\common.c **** 		} else
 2607              		.loc 1 810 4
 810:C:/Users/stapi/OneDrive/Desktop/GD32VW553/V1_MQTT_OK/GD32VW55X_Wifi_BLE_SDK/GD32VW55x_RELEASE_V1.0.2/MSDK/wpa_supplicant/src/utils\common.c **** 		} else
 2608              		.loc 1 810 22 is_stmt 0
 2609 00a0 13051A00 		addi	a0,s4,1
 2610              	.LVL304:
 2611 00a4 97000000 		call	atoi
 2611      E7800000 
 2612              	.LVL305:
 810:C:/Users/stapi/OneDrive/Desktop/GD32VW553/V1_MQTT_OK/GD32VW55X_Wifi_BLE_SDK/GD32VW55x_RELEASE_V1.0.2/MSDK/wpa_supplicant/src/utils\common.c **** 		} else
 2613              		.loc 1 810 20
 2614 00ac C8C0     		sw	a0,4(s1)
 2615              	.LVL306:
 2616              	.L230:
 813:C:/Users/stapi/OneDrive/Desktop/GD32VW553/V1_MQTT_OK/GD32VW55X_Wifi_BLE_SDK/GD32VW55x_RELEASE_V1.0.2/MSDK/wpa_supplicant/src/utils\common.c **** 		if (pos)
 2617              		.loc 1 813 3 is_stmt 1
 814:C:/Users/stapi/OneDrive/Desktop/GD32VW553/V1_MQTT_OK/GD32VW55X_Wifi_BLE_SDK/GD32VW55x_RELEASE_V1.0.2/MSDK/wpa_supplicant/src/utils\common.c **** 			pos++;
 2618              		.loc 1 814 3
 814:C:/Users/stapi/OneDrive/Desktop/GD32VW553/V1_MQTT_OK/GD32VW55X_Wifi_BLE_SDK/GD32VW55x_RELEASE_V1.0.2/MSDK/wpa_supplicant/src/utils\common.c **** 			pos++;
 2619              		.loc 1 814 6 is_stmt 0
 2620 00ae 11C0     		beq	s0,zero,.L231
 815:C:/Users/stapi/OneDrive/Desktop/GD32VW553/V1_MQTT_OK/GD32VW55X_Wifi_BLE_SDK/GD32VW55x_RELEASE_V1.0.2/MSDK/wpa_supplicant/src/utils\common.c **** 		count++;
 2621              		.loc 1 815 4 is_stmt 1
 815:C:/Users/stapi/OneDrive/Desktop/GD32VW553/V1_MQTT_OK/GD32VW55X_Wifi_BLE_SDK/GD32VW55x_RELEASE_V1.0.2/MSDK/wpa_supplicant/src/utils\common.c **** 		count++;
 2622              		.loc 1 815 7 is_stmt 0
 2623 00b0 0504     		addi	s0,s0,1
 2624              	.LVL307:
 2625              	.L231:
 783:C:/Users/stapi/OneDrive/Desktop/GD32VW553/V1_MQTT_OK/GD32VW55X_Wifi_BLE_SDK/GD32VW55x_RELEASE_V1.0.2/MSDK/wpa_supplicant/src/utils\common.c **** 	struct wpa_freq_range *freq = NULL, *n;
 2626              		.loc 1 783 1
 2627 00b2 568A     		mv	s4,s5
 2628 00b4 B9BF     		j	.L221
 2629              	.LVL308:
 2630              	.L228:
 812:C:/Users/stapi/OneDrive/Desktop/GD32VW553/V1_MQTT_OK/GD32VW55X_Wifi_BLE_SDK/GD32VW55x_RELEASE_V1.0.2/MSDK/wpa_supplicant/src/utils\common.c **** 		pos = pos3;
 2631              		.loc 1 812 4 is_stmt 1
 812:C:/Users/stapi/OneDrive/Desktop/GD32VW553/V1_MQTT_OK/GD32VW55X_Wifi_BLE_SDK/GD32VW55x_RELEASE_V1.0.2/MSDK/wpa_supplicant/src/utils\common.c **** 		pos = pos3;
 2632              		.loc 1 812 20 is_stmt 0
 2633 00b6 9C40     		lw	a5,0(s1)
 2634 00b8 DCC0     		sw	a5,4(s1)
 2635 00ba D5BF     		j	.L230
 2636              		.cfi_endproc
 2637              	.LFE98:
 2639              		.section	.text.freq_range_list_includes,"ax",@progbits
 2640              		.align	1
 2641              		.globl	freq_range_list_includes
 2643              	freq_range_list_includes:
 2644              	.LFB99:
 829:C:/Users/stapi/OneDrive/Desktop/GD32VW553/V1_MQTT_OK/GD32VW55X_Wifi_BLE_SDK/GD32VW55x_RELEASE_V1.0.2/MSDK/wpa_supplicant/src/utils\common.c **** 	unsigned int i;
 2645              		.loc 1 829 1 is_stmt 1
 2646              		.cfi_startproc
 2647              	.LVL309:
 830:C:/Users/stapi/OneDrive/Desktop/GD32VW553/V1_MQTT_OK/GD32VW55X_Wifi_BLE_SDK/GD32VW55x_RELEASE_V1.0.2/MSDK/wpa_supplicant/src/utils\common.c **** 
 2648              		.loc 1 830 2
 832:C:/Users/stapi/OneDrive/Desktop/GD32VW553/V1_MQTT_OK/GD32VW55X_Wifi_BLE_SDK/GD32VW55x_RELEASE_V1.0.2/MSDK/wpa_supplicant/src/utils\common.c **** 		return 0;
 2649              		.loc 1 832 2
 832:C:/Users/stapi/OneDrive/Desktop/GD32VW553/V1_MQTT_OK/GD32VW55X_Wifi_BLE_SDK/GD32VW55x_RELEASE_V1.0.2/MSDK/wpa_supplicant/src/utils\common.c **** 		return 0;
 2650              		.loc 1 832 5 is_stmt 0
 2651 0000 09C5     		beq	a0,zero,.L256
 835:C:/Users/stapi/OneDrive/Desktop/GD32VW553/V1_MQTT_OK/GD32VW55X_Wifi_BLE_SDK/GD32VW55x_RELEASE_V1.0.2/MSDK/wpa_supplicant/src/utils\common.c **** 		if (freq >= list->range[i].min && freq <= list->range[i].max)
 2652              		.loc 1 835 22
 2653 0002 5441     		lw	a3,4(a0)
 835:C:/Users/stapi/OneDrive/Desktop/GD32VW553/V1_MQTT_OK/GD32VW55X_Wifi_BLE_SDK/GD32VW55x_RELEASE_V1.0.2/MSDK/wpa_supplicant/src/utils\common.c **** 		if (freq >= list->range[i].min && freq <= list->range[i].max)
 2654              		.loc 1 835 9
 2655 0004 8147     		li	a5,0
 2656              	.L253:
 2657              	.LVL310:
 835:C:/Users/stapi/OneDrive/Desktop/GD32VW553/V1_MQTT_OK/GD32VW55X_Wifi_BLE_SDK/GD32VW55x_RELEASE_V1.0.2/MSDK/wpa_supplicant/src/utils\common.c **** 		if (freq >= list->range[i].min && freq <= list->range[i].max)
 2658              		.loc 1 835 14 is_stmt 1 discriminator 1
 835:C:/Users/stapi/OneDrive/Desktop/GD32VW553/V1_MQTT_OK/GD32VW55X_Wifi_BLE_SDK/GD32VW55x_RELEASE_V1.0.2/MSDK/wpa_supplicant/src/utils\common.c **** 		if (freq >= list->range[i].min && freq <= list->range[i].max)
 2659              		.loc 1 835 2 is_stmt 0 discriminator 1
 2660 0006 6394F600 		bne	a3,a5,.L255
 2661              	.LVL311:
 2662              	.L256:
 833:C:/Users/stapi/OneDrive/Desktop/GD32VW553/V1_MQTT_OK/GD32VW55X_Wifi_BLE_SDK/GD32VW55x_RELEASE_V1.0.2/MSDK/wpa_supplicant/src/utils\common.c **** 
 2663              		.loc 1 833 10
 2664 000a 0145     		li	a0,0
 2665              	.LVL312:
 2666 000c 8280     		ret
 2667              	.LVL313:
 2668              	.L255:
 836:C:/Users/stapi/OneDrive/Desktop/GD32VW553/V1_MQTT_OK/GD32VW55X_Wifi_BLE_SDK/GD32VW55x_RELEASE_V1.0.2/MSDK/wpa_supplicant/src/utils\common.c **** 			return 1;
 2669              		.loc 1 836 3 is_stmt 1
 836:C:/Users/stapi/OneDrive/Desktop/GD32VW553/V1_MQTT_OK/GD32VW55X_Wifi_BLE_SDK/GD32VW55x_RELEASE_V1.0.2/MSDK/wpa_supplicant/src/utils\common.c **** 			return 1;
 2670              		.loc 1 836 26 is_stmt 0
 2671 000e 1841     		lw	a4,0(a0)
 2672 0010 33E7E720 		sh3add	a4,a5,a4
 836:C:/Users/stapi/OneDrive/Desktop/GD32VW553/V1_MQTT_OK/GD32VW55X_Wifi_BLE_SDK/GD32VW55x_RELEASE_V1.0.2/MSDK/wpa_supplicant/src/utils\common.c **** 			return 1;
 2673              		.loc 1 836 6
 2674 0014 1043     		lw	a2,0(a4)
 2675 0016 63E5C500 		bgtu	a2,a1,.L254
 836:C:/Users/stapi/OneDrive/Desktop/GD32VW553/V1_MQTT_OK/GD32VW55X_Wifi_BLE_SDK/GD32VW55x_RELEASE_V1.0.2/MSDK/wpa_supplicant/src/utils\common.c **** 			return 1;
 2676              		.loc 1 836 34 discriminator 1
 2677 001a 5843     		lw	a4,4(a4)
 2678 001c 6374B700 		bgeu	a4,a1,.L257
 2679              	.L254:
 835:C:/Users/stapi/OneDrive/Desktop/GD32VW553/V1_MQTT_OK/GD32VW55X_Wifi_BLE_SDK/GD32VW55x_RELEASE_V1.0.2/MSDK/wpa_supplicant/src/utils\common.c **** 		if (freq >= list->range[i].min && freq <= list->range[i].max)
 2680              		.loc 1 835 29 is_stmt 1 discriminator 2
 835:C:/Users/stapi/OneDrive/Desktop/GD32VW553/V1_MQTT_OK/GD32VW55X_Wifi_BLE_SDK/GD32VW55x_RELEASE_V1.0.2/MSDK/wpa_supplicant/src/utils\common.c **** 		if (freq >= list->range[i].min && freq <= list->range[i].max)
 2681              		.loc 1 835 30 is_stmt 0 discriminator 2
 2682 0020 8507     		addi	a5,a5,1
 2683              	.LVL314:
 2684 0022 D5B7     		j	.L253
 2685              	.L257:
 837:C:/Users/stapi/OneDrive/Desktop/GD32VW553/V1_MQTT_OK/GD32VW55X_Wifi_BLE_SDK/GD32VW55x_RELEASE_V1.0.2/MSDK/wpa_supplicant/src/utils\common.c **** 	}
 2686              		.loc 1 837 11
 2687 0024 0545     		li	a0,1
 2688              	.LVL315:
 841:C:/Users/stapi/OneDrive/Desktop/GD32VW553/V1_MQTT_OK/GD32VW55X_Wifi_BLE_SDK/GD32VW55x_RELEASE_V1.0.2/MSDK/wpa_supplicant/src/utils\common.c **** 
 2689              		.loc 1 841 1
 2690 0026 8280     		ret
 2691              		.cfi_endproc
 2692              	.LFE99:
 2694              		.section	.rodata.freq_range_list_str.str1.4,"aMS",@progbits,1
 2695              		.align	2
 2696              	.LC6:
 2697 0000 00       		.string	""
 2698 0001 000000   		.align	2
 2699              	.LC7:
 2700 0004 2C00     		.string	","
 2701 0006 0000     		.align	2
 2702              	.LC8:
 2703 0008 25732575 		.string	"%s%u"
 2703      00
 2704 000d 000000   		.align	2
 2705              	.LC9:
 2706 0010 25732575 		.string	"%s%u-%u"
 2706      2D257500 
 2707              		.section	.text.freq_range_list_str,"ax",@progbits
 2708              		.align	1
 2709              		.globl	freq_range_list_str
 2711              	freq_range_list_str:
 2712              	.LFB100:
 845:C:/Users/stapi/OneDrive/Desktop/GD32VW553/V1_MQTT_OK/GD32VW55X_Wifi_BLE_SDK/GD32VW55x_RELEASE_V1.0.2/MSDK/wpa_supplicant/src/utils\common.c **** 	char *buf, *pos, *end;
 2713              		.loc 1 845 1 is_stmt 1
 2714              		.cfi_startproc
 2715              	.LVL316:
 2716 0000 17030000 		call	t0,__riscv_save_10
 2716      E7020300 
 2717              		.cfi_offset 25, -44
 2718              		.cfi_offset 24, -40
 2719              		.cfi_offset 23, -36
 2720              		.cfi_offset 22, -32
 2721              		.cfi_offset 21, -28
 2722              		.cfi_offset 20, -24
 2723              		.cfi_offset 19, -20
 2724              		.cfi_offset 18, -16
 2725              		.cfi_offset 9, -12
 2726              		.cfi_offset 8, -8
 2727              		.cfi_offset 1, -4
 2728              		.cfi_def_cfa_offset 48
 846:C:/Users/stapi/OneDrive/Desktop/GD32VW553/V1_MQTT_OK/GD32VW55X_Wifi_BLE_SDK/GD32VW55x_RELEASE_V1.0.2/MSDK/wpa_supplicant/src/utils\common.c **** 	size_t maxlen;
 2729              		.loc 1 846 2
 847:C:/Users/stapi/OneDrive/Desktop/GD32VW553/V1_MQTT_OK/GD32VW55X_Wifi_BLE_SDK/GD32VW55x_RELEASE_V1.0.2/MSDK/wpa_supplicant/src/utils\common.c **** 	unsigned int i;
 2730              		.loc 1 847 2
 848:C:/Users/stapi/OneDrive/Desktop/GD32VW553/V1_MQTT_OK/GD32VW55X_Wifi_BLE_SDK/GD32VW55x_RELEASE_V1.0.2/MSDK/wpa_supplicant/src/utils\common.c **** 	int res;
 2731              		.loc 1 848 2
 849:C:/Users/stapi/OneDrive/Desktop/GD32VW553/V1_MQTT_OK/GD32VW55X_Wifi_BLE_SDK/GD32VW55x_RELEASE_V1.0.2/MSDK/wpa_supplicant/src/utils\common.c **** 
 2732              		.loc 1 849 2
 851:C:/Users/stapi/OneDrive/Desktop/GD32VW553/V1_MQTT_OK/GD32VW55X_Wifi_BLE_SDK/GD32VW55x_RELEASE_V1.0.2/MSDK/wpa_supplicant/src/utils\common.c **** 		return NULL;
 2733              		.loc 1 851 2
 851:C:/Users/stapi/OneDrive/Desktop/GD32VW553/V1_MQTT_OK/GD32VW55X_Wifi_BLE_SDK/GD32VW55x_RELEASE_V1.0.2/MSDK/wpa_supplicant/src/utils\common.c **** 		return NULL;
 2734              		.loc 1 851 10 is_stmt 0
 2735 0008 4441     		lw	s1,4(a0)
 851:C:/Users/stapi/OneDrive/Desktop/GD32VW553/V1_MQTT_OK/GD32VW55X_Wifi_BLE_SDK/GD32VW55x_RELEASE_V1.0.2/MSDK/wpa_supplicant/src/utils\common.c **** 		return NULL;
 2736              		.loc 1 851 5
 2737 000a 99E4     		bne	s1,zero,.L259
 2738              	.LVL317:
 2739              	.L275:
 2740              	.LBB38:
 873:C:/Users/stapi/OneDrive/Desktop/GD32VW553/V1_MQTT_OK/GD32VW55X_Wifi_BLE_SDK/GD32VW55x_RELEASE_V1.0.2/MSDK/wpa_supplicant/src/utils\common.c **** 		}
 2741              		.loc 1 873 4 is_stmt 1
 873:C:/Users/stapi/OneDrive/Desktop/GD32VW553/V1_MQTT_OK/GD32VW55X_Wifi_BLE_SDK/GD32VW55x_RELEASE_V1.0.2/MSDK/wpa_supplicant/src/utils\common.c **** 		}
 2742              		.loc 1 873 11 is_stmt 0
 2743 000c 0144     		li	s0,0
 2744              	.L258:
 2745              	.LBE38:
 879:C:/Users/stapi/OneDrive/Desktop/GD32VW553/V1_MQTT_OK/GD32VW55X_Wifi_BLE_SDK/GD32VW55x_RELEASE_V1.0.2/MSDK/wpa_supplicant/src/utils\common.c **** 
 2746              		.loc 1 879 1
 2747 000e 2285     		mv	a0,s0
 2748 0010 17030000 		tail	__riscv_restore_10
 2748      67000300 
 2749              		.cfi_remember_state
 2750              		.cfi_restore 25
 2751              		.cfi_restore 24
 2752              		.cfi_restore 23
 2753              		.cfi_restore 22
 2754              		.cfi_restore 21
 2755              		.cfi_restore 20
 2756              		.cfi_restore 19
 2757              		.cfi_restore 18
 2758              		.cfi_restore 9
 2759              		.cfi_restore 8
 2760              		.cfi_restore 1
 2761              		.cfi_def_cfa_offset 0
 2762              	.LVL318:
 2763              	.L259:
 2764              		.cfi_restore_state
 854:C:/Users/stapi/OneDrive/Desktop/GD32VW553/V1_MQTT_OK/GD32VW55X_Wifi_BLE_SDK/GD32VW55x_RELEASE_V1.0.2/MSDK/wpa_supplicant/src/utils\common.c **** 	buf = os_malloc(maxlen);
 2765              		.loc 1 854 9
 2766 0018 F947     		li	a5,30
 2767 001a B384F402 		mul	s1,s1,a5
 2768 001e 2A89     		mv	s2,a0
 854:C:/Users/stapi/OneDrive/Desktop/GD32VW553/V1_MQTT_OK/GD32VW55X_Wifi_BLE_SDK/GD32VW55x_RELEASE_V1.0.2/MSDK/wpa_supplicant/src/utils\common.c **** 	buf = os_malloc(maxlen);
 2769              		.loc 1 854 2 is_stmt 1
 2770              	.LVL319:
 855:C:/Users/stapi/OneDrive/Desktop/GD32VW553/V1_MQTT_OK/GD32VW55X_Wifi_BLE_SDK/GD32VW55x_RELEASE_V1.0.2/MSDK/wpa_supplicant/src/utils\common.c **** 	if (buf == NULL)
 2771              		.loc 1 855 2
 855:C:/Users/stapi/OneDrive/Desktop/GD32VW553/V1_MQTT_OK/GD32VW55X_Wifi_BLE_SDK/GD32VW55x_RELEASE_V1.0.2/MSDK/wpa_supplicant/src/utils\common.c **** 	if (buf == NULL)
 2772              		.loc 1 855 8 is_stmt 0
 2773 0020 2685     		mv	a0,s1
 2774              	.LVL320:
 2775 0022 97000000 		call	os_malloc
 2775      E7800000 
 2776              	.LVL321:
 2777 002a 2A84     		mv	s0,a0
 2778              	.LVL322:
 856:C:/Users/stapi/OneDrive/Desktop/GD32VW553/V1_MQTT_OK/GD32VW55X_Wifi_BLE_SDK/GD32VW55x_RELEASE_V1.0.2/MSDK/wpa_supplicant/src/utils\common.c **** 		return NULL;
 2779              		.loc 1 856 2 is_stmt 1
 856:C:/Users/stapi/OneDrive/Desktop/GD32VW553/V1_MQTT_OK/GD32VW55X_Wifi_BLE_SDK/GD32VW55x_RELEASE_V1.0.2/MSDK/wpa_supplicant/src/utils\common.c **** 		return NULL;
 2780              		.loc 1 856 5 is_stmt 0
 2781 002c 65D1     		beq	a0,zero,.L275
 858:C:/Users/stapi/OneDrive/Desktop/GD32VW553/V1_MQTT_OK/GD32VW55X_Wifi_BLE_SDK/GD32VW55x_RELEASE_V1.0.2/MSDK/wpa_supplicant/src/utils\common.c **** 	end = buf + maxlen;
 2782              		.loc 1 858 2 is_stmt 1
 2783              	.LVL323:
 859:C:/Users/stapi/OneDrive/Desktop/GD32VW553/V1_MQTT_OK/GD32VW55X_Wifi_BLE_SDK/GD32VW55x_RELEASE_V1.0.2/MSDK/wpa_supplicant/src/utils\common.c **** 
 2784              		.loc 1 859 2
 2785              	.LBB41:
 868:C:/Users/stapi/OneDrive/Desktop/GD32VW553/V1_MQTT_OK/GD32VW55X_Wifi_BLE_SDK/GD32VW55x_RELEASE_V1.0.2/MSDK/wpa_supplicant/src/utils\common.c **** 					  i == 0 ? "" : ",",
 2786              		.loc 1 868 10 is_stmt 0
 2787 002e B70A0000 		lui	s5,%hi(.LC6)
 2788 0032 370B0000 		lui	s6,%hi(.LC7)
 2789              	.LBE41:
 859:C:/Users/stapi/OneDrive/Desktop/GD32VW553/V1_MQTT_OK/GD32VW55X_Wifi_BLE_SDK/GD32VW55x_RELEASE_V1.0.2/MSDK/wpa_supplicant/src/utils\common.c **** 
 2790              		.loc 1 859 6
 2791 0036 330A9500 		add	s4,a0,s1
 2792              	.LVL324:
 861:C:/Users/stapi/OneDrive/Desktop/GD32VW553/V1_MQTT_OK/GD32VW55X_Wifi_BLE_SDK/GD32VW55x_RELEASE_V1.0.2/MSDK/wpa_supplicant/src/utils\common.c **** 		struct wpa_freq_range *range = &list->range[i];
 2793              		.loc 1 861 2 is_stmt 1
 2794 003a AA89     		mv	s3,a0
 861:C:/Users/stapi/OneDrive/Desktop/GD32VW553/V1_MQTT_OK/GD32VW55X_Wifi_BLE_SDK/GD32VW55x_RELEASE_V1.0.2/MSDK/wpa_supplicant/src/utils\common.c **** 		struct wpa_freq_range *range = &list->range[i];
 2795              		.loc 1 861 9 is_stmt 0
 2796 003c 8144     		li	s1,0
 2797              	.LVL325:
 2798              	.LBB42:
 868:C:/Users/stapi/OneDrive/Desktop/GD32VW553/V1_MQTT_OK/GD32VW55X_Wifi_BLE_SDK/GD32VW55x_RELEASE_V1.0.2/MSDK/wpa_supplicant/src/utils\common.c **** 					  i == 0 ? "" : ",",
 2799              		.loc 1 868 10
 2800 003e B70B0000 		lui	s7,%hi(.LC9)
 2801 0042 938A0A00 		addi	s5,s5,%lo(.LC6)
 2802 0046 130B0B00 		addi	s6,s6,%lo(.LC7)
 865:C:/Users/stapi/OneDrive/Desktop/GD32VW553/V1_MQTT_OK/GD32VW55X_Wifi_BLE_SDK/GD32VW55x_RELEASE_V1.0.2/MSDK/wpa_supplicant/src/utils\common.c **** 					  i == 0 ? "" : ",", range->min);
 2803              		.loc 1 865 10
 2804 004a 370C0000 		lui	s8,%hi(.LC8)
 2805              	.LVL326:
 2806              	.L262:
 2807              	.LBE42:
 861:C:/Users/stapi/OneDrive/Desktop/GD32VW553/V1_MQTT_OK/GD32VW55X_Wifi_BLE_SDK/GD32VW55x_RELEASE_V1.0.2/MSDK/wpa_supplicant/src/utils\common.c **** 		struct wpa_freq_range *range = &list->range[i];
 2808              		.loc 1 861 14 is_stmt 1 discriminator 1
 861:C:/Users/stapi/OneDrive/Desktop/GD32VW553/V1_MQTT_OK/GD32VW55X_Wifi_BLE_SDK/GD32VW55x_RELEASE_V1.0.2/MSDK/wpa_supplicant/src/utils\common.c **** 		struct wpa_freq_range *range = &list->range[i];
 2809              		.loc 1 861 2 is_stmt 0 discriminator 1
 2810 004e 83274900 		lw	a5,4(s2)
 2811 0052 E3FEF4FA 		bleu	a5,s1,.L258
 2812              	.LBB43:
 862:C:/Users/stapi/OneDrive/Desktop/GD32VW553/V1_MQTT_OK/GD32VW55X_Wifi_BLE_SDK/GD32VW55x_RELEASE_V1.0.2/MSDK/wpa_supplicant/src/utils\common.c **** 
 2813              		.loc 1 862 3 is_stmt 1
 862:C:/Users/stapi/OneDrive/Desktop/GD32VW553/V1_MQTT_OK/GD32VW55X_Wifi_BLE_SDK/GD32VW55x_RELEASE_V1.0.2/MSDK/wpa_supplicant/src/utils\common.c **** 
 2814              		.loc 1 862 26 is_stmt 0
 2815 0056 83270900 		lw	a5,0(s2)
 865:C:/Users/stapi/OneDrive/Desktop/GD32VW553/V1_MQTT_OK/GD32VW55X_Wifi_BLE_SDK/GD32VW55x_RELEASE_V1.0.2/MSDK/wpa_supplicant/src/utils\common.c **** 					  i == 0 ? "" : ",", range->min);
 2816              		.loc 1 865 31
 2817 005a B30C3A41 		sub	s9,s4,s3
 865:C:/Users/stapi/OneDrive/Desktop/GD32VW553/V1_MQTT_OK/GD32VW55X_Wifi_BLE_SDK/GD32VW55x_RELEASE_V1.0.2/MSDK/wpa_supplicant/src/utils\common.c **** 					  i == 0 ? "" : ",", range->min);
 2818              		.loc 1 865 10
 2819 005e D686     		mv	a3,s5
 862:C:/Users/stapi/OneDrive/Desktop/GD32VW553/V1_MQTT_OK/GD32VW55X_Wifi_BLE_SDK/GD32VW55x_RELEASE_V1.0.2/MSDK/wpa_supplicant/src/utils\common.c **** 
 2820              		.loc 1 862 26
 2821 0060 B3E7F420 		sh3add	a5,s1,a5
 2822              	.LVL327:
 864:C:/Users/stapi/OneDrive/Desktop/GD32VW553/V1_MQTT_OK/GD32VW55X_Wifi_BLE_SDK/GD32VW55x_RELEASE_V1.0.2/MSDK/wpa_supplicant/src/utils\common.c **** 			res = os_snprintf(pos, end - pos, "%s%u",
 2823              		.loc 1 864 3 is_stmt 1
 864:C:/Users/stapi/OneDrive/Desktop/GD32VW553/V1_MQTT_OK/GD32VW55X_Wifi_BLE_SDK/GD32VW55x_RELEASE_V1.0.2/MSDK/wpa_supplicant/src/utils\common.c **** 			res = os_snprintf(pos, end - pos, "%s%u",
 2824              		.loc 1 864 12 is_stmt 0
 2825 0064 9843     		lw	a4,0(a5)
 864:C:/Users/stapi/OneDrive/Desktop/GD32VW553/V1_MQTT_OK/GD32VW55X_Wifi_BLE_SDK/GD32VW55x_RELEASE_V1.0.2/MSDK/wpa_supplicant/src/utils\common.c **** 			res = os_snprintf(pos, end - pos, "%s%u",
 2826              		.loc 1 864 26
 2827 0066 DC43     		lw	a5,4(a5)
 2828              	.LVL328:
 864:C:/Users/stapi/OneDrive/Desktop/GD32VW553/V1_MQTT_OK/GD32VW55X_Wifi_BLE_SDK/GD32VW55x_RELEASE_V1.0.2/MSDK/wpa_supplicant/src/utils\common.c **** 			res = os_snprintf(pos, end - pos, "%s%u",
 2829              		.loc 1 864 6
 2830 0068 6313F702 		bne	a4,a5,.L263
 865:C:/Users/stapi/OneDrive/Desktop/GD32VW553/V1_MQTT_OK/GD32VW55X_Wifi_BLE_SDK/GD32VW55x_RELEASE_V1.0.2/MSDK/wpa_supplicant/src/utils\common.c **** 					  i == 0 ? "" : ",", range->min);
 2831              		.loc 1 865 4 is_stmt 1
 865:C:/Users/stapi/OneDrive/Desktop/GD32VW553/V1_MQTT_OK/GD32VW55X_Wifi_BLE_SDK/GD32VW55x_RELEASE_V1.0.2/MSDK/wpa_supplicant/src/utils\common.c **** 					  i == 0 ? "" : ",", range->min);
 2832              		.loc 1 865 10 is_stmt 0
 2833 006c 91C0     		beq	s1,zero,.L264
 2834 006e DA86     		mv	a3,s6
 2835              	.L264:
 865:C:/Users/stapi/OneDrive/Desktop/GD32VW553/V1_MQTT_OK/GD32VW55X_Wifi_BLE_SDK/GD32VW55x_RELEASE_V1.0.2/MSDK/wpa_supplicant/src/utils\common.c **** 					  i == 0 ? "" : ",", range->min);
 2836              		.loc 1 865 10 discriminator 4
 2837 0070 13060C00 		addi	a2,s8,%lo(.LC8)
 2838 0074 E685     		mv	a1,s9
 2839 0076 4E85     		mv	a0,s3
 2840 0078 97000000 		call	os_snprintf
 2840      E7800000 
 2841              	.LVL329:
 2842              	.L265:
 871:C:/Users/stapi/OneDrive/Desktop/GD32VW553/V1_MQTT_OK/GD32VW55X_Wifi_BLE_SDK/GD32VW55x_RELEASE_V1.0.2/MSDK/wpa_supplicant/src/utils\common.c **** 			os_free(buf);
 2843              		.loc 1 871 3 is_stmt 1
 2844              	.LBB39:
 2845              	.LBB40:
 561:..\..\..\..\wpa_supplicant\src/utils/os.h **** }
 2846              		.loc 2 561 2
 561:..\..\..\..\wpa_supplicant\src/utils/os.h **** }
 2847              		.loc 2 561 17 is_stmt 0
 2848 0080 63420502 		blt	a0,zero,.L267
 2849 0084 63709503 		bgeu	a0,s9,.L267
 2850              	.LVL330:
 2851              	.LBE40:
 2852              	.LBE39:
 875:C:/Users/stapi/OneDrive/Desktop/GD32VW553/V1_MQTT_OK/GD32VW55X_Wifi_BLE_SDK/GD32VW55x_RELEASE_V1.0.2/MSDK/wpa_supplicant/src/utils\common.c **** 	}
 2853              		.loc 1 875 3 is_stmt 1
 875:C:/Users/stapi/OneDrive/Desktop/GD32VW553/V1_MQTT_OK/GD32VW55X_Wifi_BLE_SDK/GD32VW55x_RELEASE_V1.0.2/MSDK/wpa_supplicant/src/utils\common.c **** 	}
 2854              		.loc 1 875 7 is_stmt 0
 2855 0088 AA99     		add	s3,s3,a0
 2856              	.LVL331:
 2857              	.LBE43:
 861:C:/Users/stapi/OneDrive/Desktop/GD32VW553/V1_MQTT_OK/GD32VW55X_Wifi_BLE_SDK/GD32VW55x_RELEASE_V1.0.2/MSDK/wpa_supplicant/src/utils\common.c **** 		struct wpa_freq_range *range = &list->range[i];
 2858              		.loc 1 861 29 is_stmt 1
 861:C:/Users/stapi/OneDrive/Desktop/GD32VW553/V1_MQTT_OK/GD32VW55X_Wifi_BLE_SDK/GD32VW55x_RELEASE_V1.0.2/MSDK/wpa_supplicant/src/utils\common.c **** 		struct wpa_freq_range *range = &list->range[i];
 2859              		.loc 1 861 30 is_stmt 0
 2860 008a 8504     		addi	s1,s1,1
 2861              	.LVL332:
 2862 008c C9B7     		j	.L262
 2863              	.LVL333:
 2864              	.L263:
 2865              	.LBB44:
 868:C:/Users/stapi/OneDrive/Desktop/GD32VW553/V1_MQTT_OK/GD32VW55X_Wifi_BLE_SDK/GD32VW55x_RELEASE_V1.0.2/MSDK/wpa_supplicant/src/utils\common.c **** 					  i == 0 ? "" : ",",
 2866              		.loc 1 868 4 is_stmt 1
 868:C:/Users/stapi/OneDrive/Desktop/GD32VW553/V1_MQTT_OK/GD32VW55X_Wifi_BLE_SDK/GD32VW55x_RELEASE_V1.0.2/MSDK/wpa_supplicant/src/utils\common.c **** 					  i == 0 ? "" : ",",
 2867              		.loc 1 868 10 is_stmt 0
 2868 008e 91C0     		beq	s1,zero,.L266
 2869 0090 DA86     		mv	a3,s6
 2870              	.L266:
 868:C:/Users/stapi/OneDrive/Desktop/GD32VW553/V1_MQTT_OK/GD32VW55X_Wifi_BLE_SDK/GD32VW55x_RELEASE_V1.0.2/MSDK/wpa_supplicant/src/utils\common.c **** 					  i == 0 ? "" : ",",
 2871              		.loc 1 868 10 discriminator 4
 2872 0092 13860B00 		addi	a2,s7,%lo(.LC9)
 2873 0096 E685     		mv	a1,s9
 2874 0098 4E85     		mv	a0,s3
 2875 009a 97000000 		call	os_snprintf
 2875      E7800000 
 2876              	.LVL334:
 2877 00a2 F9BF     		j	.L265
 2878              	.LVL335:
 2879              	.L267:
 872:C:/Users/stapi/OneDrive/Desktop/GD32VW553/V1_MQTT_OK/GD32VW55X_Wifi_BLE_SDK/GD32VW55x_RELEASE_V1.0.2/MSDK/wpa_supplicant/src/utils\common.c **** 			return NULL;
 2880              		.loc 1 872 4 is_stmt 1
 2881 00a4 2285     		mv	a0,s0
 2882              	.LVL336:
 2883 00a6 97000000 		call	os_free
 2883      E7800000 
 2884              	.LVL337:
 2885 00ae B9BF     		j	.L275
 2886              	.LBE44:
 2887              		.cfi_endproc
 2888              	.LFE100:
 2890              		.section	.text.int_array_len,"ax",@progbits
 2891              		.align	1
 2892              		.globl	int_array_len
 2894              	int_array_len:
 2895              	.LFB101:
 883:C:/Users/stapi/OneDrive/Desktop/GD32VW553/V1_MQTT_OK/GD32VW55X_Wifi_BLE_SDK/GD32VW55x_RELEASE_V1.0.2/MSDK/wpa_supplicant/src/utils\common.c **** 	size_t i;
 2896              		.loc 1 883 1
 2897              		.cfi_startproc
 2898              	.LVL338:
 884:C:/Users/stapi/OneDrive/Desktop/GD32VW553/V1_MQTT_OK/GD32VW55X_Wifi_BLE_SDK/GD32VW55x_RELEASE_V1.0.2/MSDK/wpa_supplicant/src/utils\common.c **** 
 2899              		.loc 1 884 2
 886:C:/Users/stapi/OneDrive/Desktop/GD32VW553/V1_MQTT_OK/GD32VW55X_Wifi_BLE_SDK/GD32VW55x_RELEASE_V1.0.2/MSDK/wpa_supplicant/src/utils\common.c **** 		;
 2900              		.loc 1 886 2
 883:C:/Users/stapi/OneDrive/Desktop/GD32VW553/V1_MQTT_OK/GD32VW55X_Wifi_BLE_SDK/GD32VW55x_RELEASE_V1.0.2/MSDK/wpa_supplicant/src/utils\common.c **** 	size_t i;
 2901              		.loc 1 883 1 is_stmt 0
 2902 0000 AA87     		mv	a5,a0
 886:C:/Users/stapi/OneDrive/Desktop/GD32VW553/V1_MQTT_OK/GD32VW55X_Wifi_BLE_SDK/GD32VW55x_RELEASE_V1.0.2/MSDK/wpa_supplicant/src/utils\common.c **** 		;
 2903              		.loc 1 886 9
 2904 0002 0145     		li	a0,0
 2905              	.LVL339:
 2906              	.L277:
 886:C:/Users/stapi/OneDrive/Desktop/GD32VW553/V1_MQTT_OK/GD32VW55X_Wifi_BLE_SDK/GD32VW55x_RELEASE_V1.0.2/MSDK/wpa_supplicant/src/utils\common.c **** 		;
 2907              		.loc 1 886 14 is_stmt 1 discriminator 1
 886:C:/Users/stapi/OneDrive/Desktop/GD32VW553/V1_MQTT_OK/GD32VW55X_Wifi_BLE_SDK/GD32VW55x_RELEASE_V1.0.2/MSDK/wpa_supplicant/src/utils\common.c **** 		;
 2908              		.loc 1 886 2 is_stmt 0 discriminator 1
 2909 0004 89C7     		beq	a5,zero,.L276
 886:C:/Users/stapi/OneDrive/Desktop/GD32VW553/V1_MQTT_OK/GD32VW55X_Wifi_BLE_SDK/GD32VW55x_RELEASE_V1.0.2/MSDK/wpa_supplicant/src/utils\common.c **** 		;
 2910              		.loc 1 886 20 discriminator 3
 2911 0006 3347F520 		sh2add	a4,a0,a5
 886:C:/Users/stapi/OneDrive/Desktop/GD32VW553/V1_MQTT_OK/GD32VW55X_Wifi_BLE_SDK/GD32VW55x_RELEASE_V1.0.2/MSDK/wpa_supplicant/src/utils\common.c **** 		;
 2912              		.loc 1 886 16 discriminator 3
 2913 000a 1843     		lw	a4,0(a4)
 2914 000c 11E3     		bne	a4,zero,.L279
 2915              	.L276:
 889:C:/Users/stapi/OneDrive/Desktop/GD32VW553/V1_MQTT_OK/GD32VW55X_Wifi_BLE_SDK/GD32VW55x_RELEASE_V1.0.2/MSDK/wpa_supplicant/src/utils\common.c **** 
 2916              		.loc 1 889 1
 2917 000e 8280     		ret
 2918              	.L279:
 887:C:/Users/stapi/OneDrive/Desktop/GD32VW553/V1_MQTT_OK/GD32VW55X_Wifi_BLE_SDK/GD32VW55x_RELEASE_V1.0.2/MSDK/wpa_supplicant/src/utils\common.c **** 	return i;
 2919              		.loc 1 887 3 is_stmt 1 discriminator 4
 886:C:/Users/stapi/OneDrive/Desktop/GD32VW553/V1_MQTT_OK/GD32VW55X_Wifi_BLE_SDK/GD32VW55x_RELEASE_V1.0.2/MSDK/wpa_supplicant/src/utils\common.c **** 		;
 2920              		.loc 1 886 25 discriminator 4
 886:C:/Users/stapi/OneDrive/Desktop/GD32VW553/V1_MQTT_OK/GD32VW55X_Wifi_BLE_SDK/GD32VW55x_RELEASE_V1.0.2/MSDK/wpa_supplicant/src/utils\common.c **** 		;
 2921              		.loc 1 886 26 is_stmt 0 discriminator 4
 2922 0010 0505     		addi	a0,a0,1
 2923              	.LVL340:
 2924 0012 CDBF     		j	.L277
 2925              		.cfi_endproc
 2926              	.LFE101:
 2928              		.section	.text.int_array_concat,"ax",@progbits
 2929              		.align	1
 2930              		.globl	int_array_concat
 2932              	int_array_concat:
 2933              	.LFB102:
 893:C:/Users/stapi/OneDrive/Desktop/GD32VW553/V1_MQTT_OK/GD32VW55X_Wifi_BLE_SDK/GD32VW55x_RELEASE_V1.0.2/MSDK/wpa_supplicant/src/utils\common.c **** 	size_t reslen, alen, i, max_size;
 2934              		.loc 1 893 1 is_stmt 1
 2935              		.cfi_startproc
 2936              	.LVL341:
 2937 0000 17030000 		call	t0,__riscv_save_6
 2937      E7020300 
 2938              		.cfi_offset 21, -28
 2939              		.cfi_offset 20, -24
 2940              		.cfi_offset 19, -20
 2941              		.cfi_offset 18, -16
 2942              		.cfi_offset 9, -12
 2943              		.cfi_offset 8, -8
 2944              		.cfi_offset 1, -4
 2945              		.cfi_def_cfa_offset 32
 894:C:/Users/stapi/OneDrive/Desktop/GD32VW553/V1_MQTT_OK/GD32VW55X_Wifi_BLE_SDK/GD32VW55x_RELEASE_V1.0.2/MSDK/wpa_supplicant/src/utils\common.c **** 	int *n;
 2946              		.loc 1 894 2
 895:C:/Users/stapi/OneDrive/Desktop/GD32VW553/V1_MQTT_OK/GD32VW55X_Wifi_BLE_SDK/GD32VW55x_RELEASE_V1.0.2/MSDK/wpa_supplicant/src/utils\common.c **** 
 2947              		.loc 1 895 2
 897:C:/Users/stapi/OneDrive/Desktop/GD32VW553/V1_MQTT_OK/GD32VW55X_Wifi_BLE_SDK/GD32VW55x_RELEASE_V1.0.2/MSDK/wpa_supplicant/src/utils\common.c **** 	alen = int_array_len(a);
 2948              		.loc 1 897 2
 897:C:/Users/stapi/OneDrive/Desktop/GD32VW553/V1_MQTT_OK/GD32VW55X_Wifi_BLE_SDK/GD32VW55x_RELEASE_V1.0.2/MSDK/wpa_supplicant/src/utils\common.c **** 	alen = int_array_len(a);
 2949              		.loc 1 897 11 is_stmt 0
 2950 0008 832A0500 		lw	s5,0(a0)
 893:C:/Users/stapi/OneDrive/Desktop/GD32VW553/V1_MQTT_OK/GD32VW55X_Wifi_BLE_SDK/GD32VW55x_RELEASE_V1.0.2/MSDK/wpa_supplicant/src/utils\common.c **** 	size_t reslen, alen, i, max_size;
 2951              		.loc 1 893 1
 2952 000c AA84     		mv	s1,a0
 2953 000e 2E8A     		mv	s4,a1
 897:C:/Users/stapi/OneDrive/Desktop/GD32VW553/V1_MQTT_OK/GD32VW55X_Wifi_BLE_SDK/GD32VW55x_RELEASE_V1.0.2/MSDK/wpa_supplicant/src/utils\common.c **** 	alen = int_array_len(a);
 2954              		.loc 1 897 11
 2955 0010 5685     		mv	a0,s5
 2956              	.LVL342:
 2957 0012 97000000 		call	int_array_len
 2957      E7800000 
 2958              	.LVL343:
 2959 001a 2A84     		mv	s0,a0
 2960              	.LVL344:
 898:C:/Users/stapi/OneDrive/Desktop/GD32VW553/V1_MQTT_OK/GD32VW55X_Wifi_BLE_SDK/GD32VW55x_RELEASE_V1.0.2/MSDK/wpa_supplicant/src/utils\common.c **** 	max_size = (size_t) -1;
 2961              		.loc 1 898 2 is_stmt 1
 898:C:/Users/stapi/OneDrive/Desktop/GD32VW553/V1_MQTT_OK/GD32VW55X_Wifi_BLE_SDK/GD32VW55x_RELEASE_V1.0.2/MSDK/wpa_supplicant/src/utils\common.c **** 	max_size = (size_t) -1;
 2962              		.loc 1 898 9 is_stmt 0
 2963 001c 5285     		mv	a0,s4
 2964 001e 97000000 		call	int_array_len
 2964      E7800000 
 2965              	.LVL345:
 899:C:/Users/stapi/OneDrive/Desktop/GD32VW553/V1_MQTT_OK/GD32VW55X_Wifi_BLE_SDK/GD32VW55x_RELEASE_V1.0.2/MSDK/wpa_supplicant/src/utils\common.c **** 	if (alen >= max_size - reslen) {
 2966              		.loc 1 899 2 is_stmt 1
 900:C:/Users/stapi/OneDrive/Desktop/GD32VW553/V1_MQTT_OK/GD32VW55X_Wifi_BLE_SDK/GD32VW55x_RELEASE_V1.0.2/MSDK/wpa_supplicant/src/utils\common.c **** 		/* This should not really happen, but if it did, something
 2967              		.loc 1 900 2
 900:C:/Users/stapi/OneDrive/Desktop/GD32VW553/V1_MQTT_OK/GD32VW55X_Wifi_BLE_SDK/GD32VW55x_RELEASE_V1.0.2/MSDK/wpa_supplicant/src/utils\common.c **** 		/* This should not really happen, but if it did, something
 2968              		.loc 1 900 23 is_stmt 0
 2969 0026 9347F4FF 		not	a5,s0
 900:C:/Users/stapi/OneDrive/Desktop/GD32VW553/V1_MQTT_OK/GD32VW55X_Wifi_BLE_SDK/GD32VW55x_RELEASE_V1.0.2/MSDK/wpa_supplicant/src/utils\common.c **** 		/* This should not really happen, but if it did, something
 2970              		.loc 1 900 5
 2971 002a 636DF500 		bgtu	a5,a0,.L282
 905:C:/Users/stapi/OneDrive/Desktop/GD32VW553/V1_MQTT_OK/GD32VW55X_Wifi_BLE_SDK/GD32VW55x_RELEASE_V1.0.2/MSDK/wpa_supplicant/src/utils\common.c **** 		*res = NULL;
 2972              		.loc 1 905 3 is_stmt 1
 2973 002e 5685     		mv	a0,s5
 2974              	.LVL346:
 2975              	.L296:
 911:C:/Users/stapi/OneDrive/Desktop/GD32VW553/V1_MQTT_OK/GD32VW55X_Wifi_BLE_SDK/GD32VW55x_RELEASE_V1.0.2/MSDK/wpa_supplicant/src/utils\common.c **** 		*res = NULL;
 2976              		.loc 1 911 3 is_stmt 0
 2977 0030 97000000 		call	os_free
 2977      E7800000 
 2978              	.LVL347:
 912:C:/Users/stapi/OneDrive/Desktop/GD32VW553/V1_MQTT_OK/GD32VW55X_Wifi_BLE_SDK/GD32VW55x_RELEASE_V1.0.2/MSDK/wpa_supplicant/src/utils\common.c **** 		return;
 2979              		.loc 1 912 3 is_stmt 1
 912:C:/Users/stapi/OneDrive/Desktop/GD32VW553/V1_MQTT_OK/GD32VW55X_Wifi_BLE_SDK/GD32VW55x_RELEASE_V1.0.2/MSDK/wpa_supplicant/src/utils\common.c **** 		return;
 2980              		.loc 1 912 8 is_stmt 0
 2981 0038 23A00400 		sw	zero,0(s1)
 913:C:/Users/stapi/OneDrive/Desktop/GD32VW553/V1_MQTT_OK/GD32VW55X_Wifi_BLE_SDK/GD32VW55x_RELEASE_V1.0.2/MSDK/wpa_supplicant/src/utils\common.c **** 	}
 2982              		.loc 1 913 3 is_stmt 1
 2983              	.LVL348:
 2984              	.L281:
 918:C:/Users/stapi/OneDrive/Desktop/GD32VW553/V1_MQTT_OK/GD32VW55X_Wifi_BLE_SDK/GD32VW55x_RELEASE_V1.0.2/MSDK/wpa_supplicant/src/utils\common.c **** 
 2985              		.loc 1 918 1 is_stmt 0
 2986 003c 17030000 		tail	__riscv_restore_6
 2986      67000300 
 2987              		.cfi_remember_state
 2988              		.cfi_restore 21
 2989              		.cfi_restore 20
 2990              		.cfi_restore 19
 2991              		.cfi_restore 18
 2992              		.cfi_restore 9
 2993              		.cfi_restore 8
 2994              		.cfi_restore 1
 2995              		.cfi_def_cfa_offset 0
 2996              	.LVL349:
 2997              	.L282:
 2998              		.cfi_restore_state
 909:C:/Users/stapi/OneDrive/Desktop/GD32VW553/V1_MQTT_OK/GD32VW55X_Wifi_BLE_SDK/GD32VW55x_RELEASE_V1.0.2/MSDK/wpa_supplicant/src/utils\common.c **** 	if (n == NULL) {
 2999              		.loc 1 909 36
 3000 0044 B305A400 		add	a1,s0,a0
 909:C:/Users/stapi/OneDrive/Desktop/GD32VW553/V1_MQTT_OK/GD32VW55X_Wifi_BLE_SDK/GD32VW55x_RELEASE_V1.0.2/MSDK/wpa_supplicant/src/utils\common.c **** 	if (n == NULL) {
 3001              		.loc 1 909 6
 3002 0048 8505     		addi	a1,a1,1
 3003 004a 93D7E501 		srli	a5,a1,30
 3004 004e 2A89     		mv	s2,a0
 909:C:/Users/stapi/OneDrive/Desktop/GD32VW553/V1_MQTT_OK/GD32VW55X_Wifi_BLE_SDK/GD32VW55x_RELEASE_V1.0.2/MSDK/wpa_supplicant/src/utils\common.c **** 	if (n == NULL) {
 3005              		.loc 1 909 2 is_stmt 1
 3006              	.LVL350:
 3007              	.LBB47:
 3008              	.LBB48:
 567:..\..\..\..\wpa_supplicant\src/utils/os.h **** 		return NULL;
 3009              		.loc 2 567 2
 3010 0050 89EB     		bne	a5,zero,.L287
 3011              		.loc 2 569 9 is_stmt 0
 3012 0052 8A05     		slli	a1,a1,2
 3013              	.LVL351:
 3014 0054 5685     		mv	a0,s5
 3015              	.LVL352:
 3016 0056 8149     		li	s3,0
 3017              		.loc 2 569 2 is_stmt 1
 3018              		.loc 2 569 9 is_stmt 0
 3019 0058 97000000 		call	os_realloc
 3019      E7800000 
 3020              	.LVL353:
 3021              	.LBE48:
 3022              	.LBE47:
 910:C:/Users/stapi/OneDrive/Desktop/GD32VW553/V1_MQTT_OK/GD32VW55X_Wifi_BLE_SDK/GD32VW55x_RELEASE_V1.0.2/MSDK/wpa_supplicant/src/utils\common.c **** 		os_free(*res);
 3023              		.loc 1 910 2 is_stmt 1
 910:C:/Users/stapi/OneDrive/Desktop/GD32VW553/V1_MQTT_OK/GD32VW55X_Wifi_BLE_SDK/GD32VW55x_RELEASE_V1.0.2/MSDK/wpa_supplicant/src/utils\common.c **** 		os_free(*res);
 3024              		.loc 1 910 5 is_stmt 0
 3025 0060 19E1     		bne	a0,zero,.L294
 3026              	.LVL354:
 3027              	.L287:
 911:C:/Users/stapi/OneDrive/Desktop/GD32VW553/V1_MQTT_OK/GD32VW55X_Wifi_BLE_SDK/GD32VW55x_RELEASE_V1.0.2/MSDK/wpa_supplicant/src/utils\common.c **** 		*res = NULL;
 3028              		.loc 1 911 3 is_stmt 1
 3029 0062 8840     		lw	a0,0(s1)
 3030 0064 F1B7     		j	.L296
 3031              	.LVL355:
 3032              	.L294:
 3033 0066 3344A420 		sh2add	s0,s0,a0
 3034              	.LVL356:
 3035              	.L288:
 916:C:/Users/stapi/OneDrive/Desktop/GD32VW553/V1_MQTT_OK/GD32VW55X_Wifi_BLE_SDK/GD32VW55x_RELEASE_V1.0.2/MSDK/wpa_supplicant/src/utils\common.c **** 	*res = n;
 3036              		.loc 1 916 3 discriminator 3
 916:C:/Users/stapi/OneDrive/Desktop/GD32VW553/V1_MQTT_OK/GD32VW55X_Wifi_BLE_SDK/GD32VW55x_RELEASE_V1.0.2/MSDK/wpa_supplicant/src/utils\common.c **** 	*res = n;
 3037              		.loc 1 916 20 is_stmt 0 discriminator 3
 3038 006a B3C74921 		sh2add	a5,s3,s4
 3039 006e 9C43     		lw	a5,0(a5)
 915:C:/Users/stapi/OneDrive/Desktop/GD32VW553/V1_MQTT_OK/GD32VW55X_Wifi_BLE_SDK/GD32VW55x_RELEASE_V1.0.2/MSDK/wpa_supplicant/src/utils\common.c **** 		n[reslen + i] = a[i];
 3040              		.loc 1 915 26 discriminator 3
 3041 0070 8509     		addi	s3,s3,1
 3042              	.LVL357:
 916:C:/Users/stapi/OneDrive/Desktop/GD32VW553/V1_MQTT_OK/GD32VW55X_Wifi_BLE_SDK/GD32VW55x_RELEASE_V1.0.2/MSDK/wpa_supplicant/src/utils\common.c **** 	*res = n;
 3043              		.loc 1 916 17 discriminator 3
 3044 0072 1CC0     		sw	a5,0(s0)
 915:C:/Users/stapi/OneDrive/Desktop/GD32VW553/V1_MQTT_OK/GD32VW55X_Wifi_BLE_SDK/GD32VW55x_RELEASE_V1.0.2/MSDK/wpa_supplicant/src/utils\common.c **** 		n[reslen + i] = a[i];
 3045              		.loc 1 915 25 is_stmt 1 discriminator 3
 3046              	.LVL358:
 915:C:/Users/stapi/OneDrive/Desktop/GD32VW553/V1_MQTT_OK/GD32VW55X_Wifi_BLE_SDK/GD32VW55x_RELEASE_V1.0.2/MSDK/wpa_supplicant/src/utils\common.c **** 		n[reslen + i] = a[i];
 3047              		.loc 1 915 14 discriminator 3
 915:C:/Users/stapi/OneDrive/Desktop/GD32VW553/V1_MQTT_OK/GD32VW55X_Wifi_BLE_SDK/GD32VW55x_RELEASE_V1.0.2/MSDK/wpa_supplicant/src/utils\common.c **** 		n[reslen + i] = a[i];
 3048              		.loc 1 915 2 is_stmt 0 discriminator 3
 3049 0074 1104     		addi	s0,s0,4
 3050 0076 E37A39FF 		bgeu	s2,s3,.L288
 917:C:/Users/stapi/OneDrive/Desktop/GD32VW553/V1_MQTT_OK/GD32VW55X_Wifi_BLE_SDK/GD32VW55x_RELEASE_V1.0.2/MSDK/wpa_supplicant/src/utils\common.c **** }
 3051              		.loc 1 917 2 is_stmt 1
 917:C:/Users/stapi/OneDrive/Desktop/GD32VW553/V1_MQTT_OK/GD32VW55X_Wifi_BLE_SDK/GD32VW55x_RELEASE_V1.0.2/MSDK/wpa_supplicant/src/utils\common.c **** }
 3052              		.loc 1 917 7 is_stmt 0
 3053 007a 88C0     		sw	a0,0(s1)
 3054 007c C1B7     		j	.L281
 3055              		.cfi_endproc
 3056              	.LFE102:
 3058              		.section	.text.int_array_sort_unique,"ax",@progbits
 3059              		.align	1
 3060              		.globl	int_array_sort_unique
 3062              	int_array_sort_unique:
 3063              	.LFB104:
 932:C:/Users/stapi/OneDrive/Desktop/GD32VW553/V1_MQTT_OK/GD32VW55X_Wifi_BLE_SDK/GD32VW55x_RELEASE_V1.0.2/MSDK/wpa_supplicant/src/utils\common.c **** 
 933:C:/Users/stapi/OneDrive/Desktop/GD32VW553/V1_MQTT_OK/GD32VW55X_Wifi_BLE_SDK/GD32VW55x_RELEASE_V1.0.2/MSDK/wpa_supplicant/src/utils\common.c **** 
 934:C:/Users/stapi/OneDrive/Desktop/GD32VW553/V1_MQTT_OK/GD32VW55X_Wifi_BLE_SDK/GD32VW55x_RELEASE_V1.0.2/MSDK/wpa_supplicant/src/utils\common.c **** void int_array_sort_unique(int *a)
 935:C:/Users/stapi/OneDrive/Desktop/GD32VW553/V1_MQTT_OK/GD32VW55X_Wifi_BLE_SDK/GD32VW55x_RELEASE_V1.0.2/MSDK/wpa_supplicant/src/utils\common.c **** {
 3064              		.loc 1 935 1 is_stmt 1
 3065              		.cfi_startproc
 3066              	.LVL359:
 936:C:/Users/stapi/OneDrive/Desktop/GD32VW553/V1_MQTT_OK/GD32VW55X_Wifi_BLE_SDK/GD32VW55x_RELEASE_V1.0.2/MSDK/wpa_supplicant/src/utils\common.c **** 	size_t alen, i, j;
 3067              		.loc 1 936 2
 937:C:/Users/stapi/OneDrive/Desktop/GD32VW553/V1_MQTT_OK/GD32VW55X_Wifi_BLE_SDK/GD32VW55x_RELEASE_V1.0.2/MSDK/wpa_supplicant/src/utils\common.c **** 
 938:C:/Users/stapi/OneDrive/Desktop/GD32VW553/V1_MQTT_OK/GD32VW55X_Wifi_BLE_SDK/GD32VW55x_RELEASE_V1.0.2/MSDK/wpa_supplicant/src/utils\common.c **** 	if (a == NULL)
 3068              		.loc 1 938 2
 3069              		.loc 1 938 5 is_stmt 0
 3070 0000 29CD     		beq	a0,zero,.L312
 935:C:/Users/stapi/OneDrive/Desktop/GD32VW553/V1_MQTT_OK/GD32VW55X_Wifi_BLE_SDK/GD32VW55x_RELEASE_V1.0.2/MSDK/wpa_supplicant/src/utils\common.c **** 	size_t alen, i, j;
 3071              		.loc 1 935 1
 3072 0002 17030000 		call	t0,__riscv_save_1
 3072      E7020300 
 3073              		.cfi_offset 8, -8
 3074              		.cfi_offset 1, -4
 3075              		.cfi_def_cfa_offset 16
 3076 000a 2A84     		mv	s0,a0
 939:C:/Users/stapi/OneDrive/Desktop/GD32VW553/V1_MQTT_OK/GD32VW55X_Wifi_BLE_SDK/GD32VW55x_RELEASE_V1.0.2/MSDK/wpa_supplicant/src/utils\common.c **** 		return;
 940:C:/Users/stapi/OneDrive/Desktop/GD32VW553/V1_MQTT_OK/GD32VW55X_Wifi_BLE_SDK/GD32VW55x_RELEASE_V1.0.2/MSDK/wpa_supplicant/src/utils\common.c **** 
 941:C:/Users/stapi/OneDrive/Desktop/GD32VW553/V1_MQTT_OK/GD32VW55X_Wifi_BLE_SDK/GD32VW55x_RELEASE_V1.0.2/MSDK/wpa_supplicant/src/utils\common.c **** 	alen = int_array_len(a);
 3077              		.loc 1 941 2 is_stmt 1
 3078              		.loc 1 941 9 is_stmt 0
 3079 000c 97000000 		call	int_array_len
 3079      E7800000 
 3080              	.LVL360:
 942:C:/Users/stapi/OneDrive/Desktop/GD32VW553/V1_MQTT_OK/GD32VW55X_Wifi_BLE_SDK/GD32VW55x_RELEASE_V1.0.2/MSDK/wpa_supplicant/src/utils\common.c **** 	qsort(a, alen, sizeof(int), freq_cmp);
 3081              		.loc 1 942 2
 3082 0014 B7060000 		lui	a3,%hi(freq_cmp)
 941:C:/Users/stapi/OneDrive/Desktop/GD32VW553/V1_MQTT_OK/GD32VW55X_Wifi_BLE_SDK/GD32VW55x_RELEASE_V1.0.2/MSDK/wpa_supplicant/src/utils\common.c **** 	qsort(a, alen, sizeof(int), freq_cmp);
 3083              		.loc 1 941 9
 3084 0018 AA85     		mv	a1,a0
 3085              	.LVL361:
 3086              		.loc 1 942 2 is_stmt 1
 3087 001a 93860600 		addi	a3,a3,%lo(freq_cmp)
 3088 001e 1146     		li	a2,4
 3089 0020 2285     		mv	a0,s0
 3090              	.LVL362:
 3091 0022 97000000 		call	qsort
 3091      E7800000 
 3092              	.LVL363:
 943:C:/Users/stapi/OneDrive/Desktop/GD32VW553/V1_MQTT_OK/GD32VW55X_Wifi_BLE_SDK/GD32VW55x_RELEASE_V1.0.2/MSDK/wpa_supplicant/src/utils\common.c **** 
 944:C:/Users/stapi/OneDrive/Desktop/GD32VW553/V1_MQTT_OK/GD32VW55X_Wifi_BLE_SDK/GD32VW55x_RELEASE_V1.0.2/MSDK/wpa_supplicant/src/utils\common.c **** 	i = 0;
 3093              		.loc 1 944 2
 945:C:/Users/stapi/OneDrive/Desktop/GD32VW553/V1_MQTT_OK/GD32VW55X_Wifi_BLE_SDK/GD32VW55x_RELEASE_V1.0.2/MSDK/wpa_supplicant/src/utils\common.c **** 	j = 1;
 3094              		.loc 1 945 2
 946:C:/Users/stapi/OneDrive/Desktop/GD32VW553/V1_MQTT_OK/GD32VW55X_Wifi_BLE_SDK/GD32VW55x_RELEASE_V1.0.2/MSDK/wpa_supplicant/src/utils\common.c **** 	while (a[i] && a[j]) {
 3095              		.loc 1 946 2
 3096 002a 93064400 		addi	a3,s0,4
 944:C:/Users/stapi/OneDrive/Desktop/GD32VW553/V1_MQTT_OK/GD32VW55X_Wifi_BLE_SDK/GD32VW55x_RELEASE_V1.0.2/MSDK/wpa_supplicant/src/utils\common.c **** 	j = 1;
 3097              		.loc 1 944 4 is_stmt 0
 3098 002e 8147     		li	a5,0
 3099              	.LVL364:
 3100              	.L299:
 3101              		.loc 1 946 8 is_stmt 1
 3102              		.loc 1 946 10 is_stmt 0
 3103 0030 B3C58720 		sh2add	a1,a5,s0
 3104 0034 9041     		lw	a2,0(a1)
 3105              		.loc 1 946 8
 3106 0036 01C6     		beq	a2,zero,.L301
 3107              		.loc 1 946 18 discriminator 1
 3108 0038 9842     		lw	a4,0(a3)
 3109              		.loc 1 946 14 discriminator 1
 3110 003a 11EB     		bne	a4,zero,.L302
 947:C:/Users/stapi/OneDrive/Desktop/GD32VW553/V1_MQTT_OK/GD32VW55X_Wifi_BLE_SDK/GD32VW55x_RELEASE_V1.0.2/MSDK/wpa_supplicant/src/utils\common.c **** 		if (a[i] == a[j]) {
 948:C:/Users/stapi/OneDrive/Desktop/GD32VW553/V1_MQTT_OK/GD32VW55X_Wifi_BLE_SDK/GD32VW55x_RELEASE_V1.0.2/MSDK/wpa_supplicant/src/utils\common.c **** 			j++;
 949:C:/Users/stapi/OneDrive/Desktop/GD32VW553/V1_MQTT_OK/GD32VW55X_Wifi_BLE_SDK/GD32VW55x_RELEASE_V1.0.2/MSDK/wpa_supplicant/src/utils\common.c **** 			continue;
 950:C:/Users/stapi/OneDrive/Desktop/GD32VW553/V1_MQTT_OK/GD32VW55X_Wifi_BLE_SDK/GD32VW55x_RELEASE_V1.0.2/MSDK/wpa_supplicant/src/utils\common.c **** 		}
 951:C:/Users/stapi/OneDrive/Desktop/GD32VW553/V1_MQTT_OK/GD32VW55X_Wifi_BLE_SDK/GD32VW55x_RELEASE_V1.0.2/MSDK/wpa_supplicant/src/utils\common.c **** 		a[++i] = a[j++];
 952:C:/Users/stapi/OneDrive/Desktop/GD32VW553/V1_MQTT_OK/GD32VW55X_Wifi_BLE_SDK/GD32VW55x_RELEASE_V1.0.2/MSDK/wpa_supplicant/src/utils\common.c **** 	}
 953:C:/Users/stapi/OneDrive/Desktop/GD32VW553/V1_MQTT_OK/GD32VW55X_Wifi_BLE_SDK/GD32VW55x_RELEASE_V1.0.2/MSDK/wpa_supplicant/src/utils\common.c **** 	if (a[i])
 3111              		.loc 1 953 2 is_stmt 1
 954:C:/Users/stapi/OneDrive/Desktop/GD32VW553/V1_MQTT_OK/GD32VW55X_Wifi_BLE_SDK/GD32VW55x_RELEASE_V1.0.2/MSDK/wpa_supplicant/src/utils\common.c **** 		i++;
 3112              		.loc 1 954 3
 3113              		.loc 1 954 4 is_stmt 0
 3114 003c 8507     		addi	a5,a5,1
 3115              	.LVL365:
 3116              	.L301:
 955:C:/Users/stapi/OneDrive/Desktop/GD32VW553/V1_MQTT_OK/GD32VW55X_Wifi_BLE_SDK/GD32VW55x_RELEASE_V1.0.2/MSDK/wpa_supplicant/src/utils\common.c **** 	a[i] = 0;
 3117              		.loc 1 955 2 is_stmt 1
 3118              		.loc 1 955 7 is_stmt 0
 3119 003e B3C78720 		sh2add	a5,a5,s0
 3120              	.LVL366:
 3121 0042 23A00700 		sw	zero,0(a5)
 956:C:/Users/stapi/OneDrive/Desktop/GD32VW553/V1_MQTT_OK/GD32VW55X_Wifi_BLE_SDK/GD32VW55x_RELEASE_V1.0.2/MSDK/wpa_supplicant/src/utils\common.c **** }
 3122              		.loc 1 956 1
 3123 0046 17030000 		tail	__riscv_restore_1
 3123      67000300 
 3124              		.cfi_remember_state
 3125              		.cfi_restore 8
 3126              		.cfi_restore 1
 3127              		.cfi_def_cfa_offset 0
 3128              	.LVL367:
 3129              	.L302:
 3130              		.cfi_restore_state
 947:C:/Users/stapi/OneDrive/Desktop/GD32VW553/V1_MQTT_OK/GD32VW55X_Wifi_BLE_SDK/GD32VW55x_RELEASE_V1.0.2/MSDK/wpa_supplicant/src/utils\common.c **** 			j++;
 3131              		.loc 1 947 3 is_stmt 1
 947:C:/Users/stapi/OneDrive/Desktop/GD32VW553/V1_MQTT_OK/GD32VW55X_Wifi_BLE_SDK/GD32VW55x_RELEASE_V1.0.2/MSDK/wpa_supplicant/src/utils\common.c **** 			j++;
 3132              		.loc 1 947 6 is_stmt 0
 3133 004e 6304E600 		beq	a2,a4,.L300
 951:C:/Users/stapi/OneDrive/Desktop/GD32VW553/V1_MQTT_OK/GD32VW55X_Wifi_BLE_SDK/GD32VW55x_RELEASE_V1.0.2/MSDK/wpa_supplicant/src/utils\common.c **** 	}
 3134              		.loc 1 951 3 is_stmt 1
 951:C:/Users/stapi/OneDrive/Desktop/GD32VW553/V1_MQTT_OK/GD32VW55X_Wifi_BLE_SDK/GD32VW55x_RELEASE_V1.0.2/MSDK/wpa_supplicant/src/utils\common.c **** 	}
 3135              		.loc 1 951 10 is_stmt 0
 3136 0052 8507     		addi	a5,a5,1
 3137              	.LVL368:
 3138 0054 D8C1     		sw	a4,4(a1)
 3139              	.L300:
 3140 0056 9106     		addi	a3,a3,4
 3141 0058 E1BF     		j	.L299
 3142              	.LVL369:
 3143              	.L312:
 3144              		.cfi_def_cfa_offset 0
 3145              		.cfi_restore 1
 3146              		.cfi_restore 8
 3147 005a 8280     		ret
 3148              		.cfi_endproc
 3149              	.LFE104:
 3151              		.section	.text.int_array_add_unique,"ax",@progbits
 3152              		.align	1
 3153              		.globl	int_array_add_unique
 3155              	int_array_add_unique:
 3156              	.LFB105:
 957:C:/Users/stapi/OneDrive/Desktop/GD32VW553/V1_MQTT_OK/GD32VW55X_Wifi_BLE_SDK/GD32VW55x_RELEASE_V1.0.2/MSDK/wpa_supplicant/src/utils\common.c **** 
 958:C:/Users/stapi/OneDrive/Desktop/GD32VW553/V1_MQTT_OK/GD32VW55X_Wifi_BLE_SDK/GD32VW55x_RELEASE_V1.0.2/MSDK/wpa_supplicant/src/utils\common.c **** 
 959:C:/Users/stapi/OneDrive/Desktop/GD32VW553/V1_MQTT_OK/GD32VW55X_Wifi_BLE_SDK/GD32VW55x_RELEASE_V1.0.2/MSDK/wpa_supplicant/src/utils\common.c **** void int_array_add_unique(int **res, int a)
 960:C:/Users/stapi/OneDrive/Desktop/GD32VW553/V1_MQTT_OK/GD32VW55X_Wifi_BLE_SDK/GD32VW55x_RELEASE_V1.0.2/MSDK/wpa_supplicant/src/utils\common.c **** {
 3157              		.loc 1 960 1 is_stmt 1
 3158              		.cfi_startproc
 3159              	.LVL370:
 3160 0000 17030000 		call	t0,__riscv_save_3
 3160      E7020300 
 3161              		.cfi_offset 18, -16
 3162              		.cfi_offset 9, -12
 3163              		.cfi_offset 8, -8
 3164              		.cfi_offset 1, -4
 3165              		.cfi_def_cfa_offset 16
 961:C:/Users/stapi/OneDrive/Desktop/GD32VW553/V1_MQTT_OK/GD32VW55X_Wifi_BLE_SDK/GD32VW55x_RELEASE_V1.0.2/MSDK/wpa_supplicant/src/utils\common.c **** 	size_t reslen, max_size;
 3166              		.loc 1 961 2
 962:C:/Users/stapi/OneDrive/Desktop/GD32VW553/V1_MQTT_OK/GD32VW55X_Wifi_BLE_SDK/GD32VW55x_RELEASE_V1.0.2/MSDK/wpa_supplicant/src/utils\common.c **** 	int *n;
 3167              		.loc 1 962 2
 963:C:/Users/stapi/OneDrive/Desktop/GD32VW553/V1_MQTT_OK/GD32VW55X_Wifi_BLE_SDK/GD32VW55x_RELEASE_V1.0.2/MSDK/wpa_supplicant/src/utils\common.c **** 
 964:C:/Users/stapi/OneDrive/Desktop/GD32VW553/V1_MQTT_OK/GD32VW55X_Wifi_BLE_SDK/GD32VW55x_RELEASE_V1.0.2/MSDK/wpa_supplicant/src/utils\common.c **** 	for (reslen = 0; *res && (*res)[reslen]; reslen++) {
 3168              		.loc 1 964 2
 3169              	.LVL371:
 960:C:/Users/stapi/OneDrive/Desktop/GD32VW553/V1_MQTT_OK/GD32VW55X_Wifi_BLE_SDK/GD32VW55x_RELEASE_V1.0.2/MSDK/wpa_supplicant/src/utils\common.c **** 	size_t reslen, max_size;
 3170              		.loc 1 960 1 is_stmt 0
 3171 0008 AA84     		mv	s1,a0
 3172              		.loc 1 964 19
 3173 000a 0841     		lw	a0,0(a0)
 3174              	.LVL372:
 960:C:/Users/stapi/OneDrive/Desktop/GD32VW553/V1_MQTT_OK/GD32VW55X_Wifi_BLE_SDK/GD32VW55x_RELEASE_V1.0.2/MSDK/wpa_supplicant/src/utils\common.c **** 	size_t reslen, max_size;
 3175              		.loc 1 960 1
 3176 000c 2E89     		mv	s2,a1
 3177              		.loc 1 964 14
 3178 000e 8147     		li	a5,0
 3179              	.LVL373:
 3180              	.L316:
 3181              		.loc 1 964 19 is_stmt 1 discriminator 1
 3182              		.loc 1 964 2 is_stmt 0 discriminator 1
 3183 0010 09C5     		beq	a0,zero,.L318
 3184              		.loc 1 964 33 discriminator 3
 3185 0012 33C7A720 		sh2add	a4,a5,a0
 3186 0016 1843     		lw	a4,0(a4)
 3187              		.loc 1 964 24 discriminator 3
 3188 0018 05E3     		bne	a4,zero,.L319
 3189              	.L318:
 965:C:/Users/stapi/OneDrive/Desktop/GD32VW553/V1_MQTT_OK/GD32VW55X_Wifi_BLE_SDK/GD32VW55x_RELEASE_V1.0.2/MSDK/wpa_supplicant/src/utils\common.c **** 		if ((*res)[reslen] == a)
 966:C:/Users/stapi/OneDrive/Desktop/GD32VW553/V1_MQTT_OK/GD32VW55X_Wifi_BLE_SDK/GD32VW55x_RELEASE_V1.0.2/MSDK/wpa_supplicant/src/utils\common.c **** 			return; /* already in the list */
 967:C:/Users/stapi/OneDrive/Desktop/GD32VW553/V1_MQTT_OK/GD32VW55X_Wifi_BLE_SDK/GD32VW55x_RELEASE_V1.0.2/MSDK/wpa_supplicant/src/utils\common.c **** 	}
 968:C:/Users/stapi/OneDrive/Desktop/GD32VW553/V1_MQTT_OK/GD32VW55X_Wifi_BLE_SDK/GD32VW55x_RELEASE_V1.0.2/MSDK/wpa_supplicant/src/utils\common.c **** 
 969:C:/Users/stapi/OneDrive/Desktop/GD32VW553/V1_MQTT_OK/GD32VW55X_Wifi_BLE_SDK/GD32VW55x_RELEASE_V1.0.2/MSDK/wpa_supplicant/src/utils\common.c **** 	max_size = (size_t) -1;
 3190              		.loc 1 969 2 is_stmt 1
 3191              	.LVL374:
 970:C:/Users/stapi/OneDrive/Desktop/GD32VW553/V1_MQTT_OK/GD32VW55X_Wifi_BLE_SDK/GD32VW55x_RELEASE_V1.0.2/MSDK/wpa_supplicant/src/utils\common.c **** 	if (reslen > max_size - 2) {
 3192              		.loc 1 970 2
 971:C:/Users/stapi/OneDrive/Desktop/GD32VW553/V1_MQTT_OK/GD32VW55X_Wifi_BLE_SDK/GD32VW55x_RELEASE_V1.0.2/MSDK/wpa_supplicant/src/utils\common.c **** 		/* This should not really happen in practice, but if it did,
 972:C:/Users/stapi/OneDrive/Desktop/GD32VW553/V1_MQTT_OK/GD32VW55X_Wifi_BLE_SDK/GD32VW55x_RELEASE_V1.0.2/MSDK/wpa_supplicant/src/utils\common.c **** 		 * something would overflow. Do not try to add the new value;
 973:C:/Users/stapi/OneDrive/Desktop/GD32VW553/V1_MQTT_OK/GD32VW55X_Wifi_BLE_SDK/GD32VW55x_RELEASE_V1.0.2/MSDK/wpa_supplicant/src/utils\common.c **** 		 * instead, make this behave like memory allocation failure to
 974:C:/Users/stapi/OneDrive/Desktop/GD32VW553/V1_MQTT_OK/GD32VW55X_Wifi_BLE_SDK/GD32VW55x_RELEASE_V1.0.2/MSDK/wpa_supplicant/src/utils\common.c **** 		 * avoid messing up memory. */
 975:C:/Users/stapi/OneDrive/Desktop/GD32VW553/V1_MQTT_OK/GD32VW55X_Wifi_BLE_SDK/GD32VW55x_RELEASE_V1.0.2/MSDK/wpa_supplicant/src/utils\common.c **** 		os_free(*res);
 976:C:/Users/stapi/OneDrive/Desktop/GD32VW553/V1_MQTT_OK/GD32VW55X_Wifi_BLE_SDK/GD32VW55x_RELEASE_V1.0.2/MSDK/wpa_supplicant/src/utils\common.c **** 		*res = NULL;
 977:C:/Users/stapi/OneDrive/Desktop/GD32VW553/V1_MQTT_OK/GD32VW55X_Wifi_BLE_SDK/GD32VW55x_RELEASE_V1.0.2/MSDK/wpa_supplicant/src/utils\common.c **** 		return;
 978:C:/Users/stapi/OneDrive/Desktop/GD32VW553/V1_MQTT_OK/GD32VW55X_Wifi_BLE_SDK/GD32VW55x_RELEASE_V1.0.2/MSDK/wpa_supplicant/src/utils\common.c **** 	}
 979:C:/Users/stapi/OneDrive/Desktop/GD32VW553/V1_MQTT_OK/GD32VW55X_Wifi_BLE_SDK/GD32VW55x_RELEASE_V1.0.2/MSDK/wpa_supplicant/src/utils\common.c **** 	n = os_realloc_array(*res, reslen + 2, sizeof(int));
 3193              		.loc 1 979 2
 3194              		.loc 1 979 6 is_stmt 0
 3195 001a 8907     		addi	a5,a5,2
 3196              	.LVL375:
 3197              	.LBB51:
 3198              	.LBB52:
 567:..\..\..\..\wpa_supplicant\src/utils/os.h **** 		return NULL;
 3199              		.loc 2 567 2 is_stmt 1
 3200 001c 13D7E701 		srli	a4,a5,30
 3201 0020 05C3     		beq	a4,zero,.L327
 3202              	.LVL376:
 3203              	.L320:
 3204              	.LBE52:
 3205              	.LBE51:
 980:C:/Users/stapi/OneDrive/Desktop/GD32VW553/V1_MQTT_OK/GD32VW55X_Wifi_BLE_SDK/GD32VW55x_RELEASE_V1.0.2/MSDK/wpa_supplicant/src/utils\common.c **** 	if (n == NULL) {
 981:C:/Users/stapi/OneDrive/Desktop/GD32VW553/V1_MQTT_OK/GD32VW55X_Wifi_BLE_SDK/GD32VW55x_RELEASE_V1.0.2/MSDK/wpa_supplicant/src/utils\common.c **** 		os_free(*res);
 3206              		.loc 1 981 3
 3207 0022 8840     		lw	a0,0(s1)
 3208 0024 97000000 		call	os_free
 3208      E7800000 
 3209              	.LVL377:
 982:C:/Users/stapi/OneDrive/Desktop/GD32VW553/V1_MQTT_OK/GD32VW55X_Wifi_BLE_SDK/GD32VW55x_RELEASE_V1.0.2/MSDK/wpa_supplicant/src/utils\common.c **** 		*res = NULL;
 3210              		.loc 1 982 3
 3211              		.loc 1 982 8 is_stmt 0
 3212 002c 23A00400 		sw	zero,0(s1)
 983:C:/Users/stapi/OneDrive/Desktop/GD32VW553/V1_MQTT_OK/GD32VW55X_Wifi_BLE_SDK/GD32VW55x_RELEASE_V1.0.2/MSDK/wpa_supplicant/src/utils\common.c **** 		return;
 3213              		.loc 1 983 3 is_stmt 1
 3214              	.LVL378:
 3215              	.L315:
 984:C:/Users/stapi/OneDrive/Desktop/GD32VW553/V1_MQTT_OK/GD32VW55X_Wifi_BLE_SDK/GD32VW55x_RELEASE_V1.0.2/MSDK/wpa_supplicant/src/utils\common.c **** 	}
 985:C:/Users/stapi/OneDrive/Desktop/GD32VW553/V1_MQTT_OK/GD32VW55X_Wifi_BLE_SDK/GD32VW55x_RELEASE_V1.0.2/MSDK/wpa_supplicant/src/utils\common.c **** 
 986:C:/Users/stapi/OneDrive/Desktop/GD32VW553/V1_MQTT_OK/GD32VW55X_Wifi_BLE_SDK/GD32VW55x_RELEASE_V1.0.2/MSDK/wpa_supplicant/src/utils\common.c **** 	n[reslen] = a;
 987:C:/Users/stapi/OneDrive/Desktop/GD32VW553/V1_MQTT_OK/GD32VW55X_Wifi_BLE_SDK/GD32VW55x_RELEASE_V1.0.2/MSDK/wpa_supplicant/src/utils\common.c **** 	n[reslen + 1] = 0;
 988:C:/Users/stapi/OneDrive/Desktop/GD32VW553/V1_MQTT_OK/GD32VW55X_Wifi_BLE_SDK/GD32VW55x_RELEASE_V1.0.2/MSDK/wpa_supplicant/src/utils\common.c **** 
 989:C:/Users/stapi/OneDrive/Desktop/GD32VW553/V1_MQTT_OK/GD32VW55X_Wifi_BLE_SDK/GD32VW55x_RELEASE_V1.0.2/MSDK/wpa_supplicant/src/utils\common.c **** 	*res = n;
 990:C:/Users/stapi/OneDrive/Desktop/GD32VW553/V1_MQTT_OK/GD32VW55X_Wifi_BLE_SDK/GD32VW55x_RELEASE_V1.0.2/MSDK/wpa_supplicant/src/utils\common.c **** }
 3216              		.loc 1 990 1 is_stmt 0
 3217 0030 17030000 		tail	__riscv_restore_3
 3217      67000300 
 3218              		.cfi_remember_state
 3219              		.cfi_restore 18
 3220              		.cfi_restore 9
 3221              		.cfi_restore 8
 3222              		.cfi_restore 1
 3223              		.cfi_def_cfa_offset 0
 3224              	.LVL379:
 3225              	.L319:
 3226              		.cfi_restore_state
 965:C:/Users/stapi/OneDrive/Desktop/GD32VW553/V1_MQTT_OK/GD32VW55X_Wifi_BLE_SDK/GD32VW55x_RELEASE_V1.0.2/MSDK/wpa_supplicant/src/utils\common.c **** 			return; /* already in the list */
 3227              		.loc 1 965 3 is_stmt 1
 965:C:/Users/stapi/OneDrive/Desktop/GD32VW553/V1_MQTT_OK/GD32VW55X_Wifi_BLE_SDK/GD32VW55x_RELEASE_V1.0.2/MSDK/wpa_supplicant/src/utils\common.c **** 			return; /* already in the list */
 3228              		.loc 1 965 6 is_stmt 0
 3229 0038 E30C27FF 		beq	a4,s2,.L315
 964:C:/Users/stapi/OneDrive/Desktop/GD32VW553/V1_MQTT_OK/GD32VW55X_Wifi_BLE_SDK/GD32VW55x_RELEASE_V1.0.2/MSDK/wpa_supplicant/src/utils\common.c **** 		if ((*res)[reslen] == a)
 3230              		.loc 1 964 43 is_stmt 1 discriminator 2
 964:C:/Users/stapi/OneDrive/Desktop/GD32VW553/V1_MQTT_OK/GD32VW55X_Wifi_BLE_SDK/GD32VW55x_RELEASE_V1.0.2/MSDK/wpa_supplicant/src/utils\common.c **** 		if ((*res)[reslen] == a)
 3231              		.loc 1 964 49 is_stmt 0 discriminator 2
 3232 003c 8507     		addi	a5,a5,1
 3233              	.LVL380:
 3234 003e C9BF     		j	.L316
 3235              	.LVL381:
 3236              	.L327:
 3237              	.LBB54:
 3238              	.LBB53:
 3239              		.loc 2 569 2 is_stmt 1
 3240              		.loc 2 569 9 is_stmt 0
 3241 0040 13942700 		slli	s0,a5,2
 3242 0044 A285     		mv	a1,s0
 3243              	.LVL382:
 3244 0046 97000000 		call	os_realloc
 3244      E7800000 
 3245              	.LVL383:
 3246              	.LBE53:
 3247              	.LBE54:
 980:C:/Users/stapi/OneDrive/Desktop/GD32VW553/V1_MQTT_OK/GD32VW55X_Wifi_BLE_SDK/GD32VW55x_RELEASE_V1.0.2/MSDK/wpa_supplicant/src/utils\common.c **** 		os_free(*res);
 3248              		.loc 1 980 2 is_stmt 1
 980:C:/Users/stapi/OneDrive/Desktop/GD32VW553/V1_MQTT_OK/GD32VW55X_Wifi_BLE_SDK/GD32VW55x_RELEASE_V1.0.2/MSDK/wpa_supplicant/src/utils\common.c **** 		os_free(*res);
 3249              		.loc 1 980 5 is_stmt 0
 3250 004e 71D9     		beq	a0,zero,.L320
 986:C:/Users/stapi/OneDrive/Desktop/GD32VW553/V1_MQTT_OK/GD32VW55X_Wifi_BLE_SDK/GD32VW55x_RELEASE_V1.0.2/MSDK/wpa_supplicant/src/utils\common.c **** 	n[reslen + 1] = 0;
 3251              		.loc 1 986 2 is_stmt 1
 986:C:/Users/stapi/OneDrive/Desktop/GD32VW553/V1_MQTT_OK/GD32VW55X_Wifi_BLE_SDK/GD32VW55x_RELEASE_V1.0.2/MSDK/wpa_supplicant/src/utils\common.c **** 	n[reslen + 1] = 0;
 3252              		.loc 1 986 12 is_stmt 0
 3253 0050 2A94     		add	s0,a0,s0
 3254 0052 232C24FF 		sw	s2,-8(s0)
 987:C:/Users/stapi/OneDrive/Desktop/GD32VW553/V1_MQTT_OK/GD32VW55X_Wifi_BLE_SDK/GD32VW55x_RELEASE_V1.0.2/MSDK/wpa_supplicant/src/utils\common.c **** 
 3255              		.loc 1 987 2 is_stmt 1
 987:C:/Users/stapi/OneDrive/Desktop/GD32VW553/V1_MQTT_OK/GD32VW55X_Wifi_BLE_SDK/GD32VW55x_RELEASE_V1.0.2/MSDK/wpa_supplicant/src/utils\common.c **** 
 3256              		.loc 1 987 16 is_stmt 0
 3257 0056 232E04FE 		sw	zero,-4(s0)
 989:C:/Users/stapi/OneDrive/Desktop/GD32VW553/V1_MQTT_OK/GD32VW55X_Wifi_BLE_SDK/GD32VW55x_RELEASE_V1.0.2/MSDK/wpa_supplicant/src/utils\common.c **** }
 3258              		.loc 1 989 2 is_stmt 1
 989:C:/Users/stapi/OneDrive/Desktop/GD32VW553/V1_MQTT_OK/GD32VW55X_Wifi_BLE_SDK/GD32VW55x_RELEASE_V1.0.2/MSDK/wpa_supplicant/src/utils\common.c **** }
 3259              		.loc 1 989 7 is_stmt 0
 3260 005a 88C0     		sw	a0,0(s1)
 3261 005c D1BF     		j	.L315
 3262              		.cfi_endproc
 3263              	.LFE105:
 3265              		.section	.text.random_mac_addr,"ax",@progbits
 3266              		.align	1
 3267              		.globl	random_mac_addr
 3269              	random_mac_addr:
 3270              	.LFB108:
 991:C:/Users/stapi/OneDrive/Desktop/GD32VW553/V1_MQTT_OK/GD32VW55X_Wifi_BLE_SDK/GD32VW55x_RELEASE_V1.0.2/MSDK/wpa_supplicant/src/utils\common.c **** 
 992:C:/Users/stapi/OneDrive/Desktop/GD32VW553/V1_MQTT_OK/GD32VW55X_Wifi_BLE_SDK/GD32VW55x_RELEASE_V1.0.2/MSDK/wpa_supplicant/src/utils\common.c **** 
 993:C:/Users/stapi/OneDrive/Desktop/GD32VW553/V1_MQTT_OK/GD32VW55X_Wifi_BLE_SDK/GD32VW55x_RELEASE_V1.0.2/MSDK/wpa_supplicant/src/utils\common.c **** void str_clear_free(char *str)
 994:C:/Users/stapi/OneDrive/Desktop/GD32VW553/V1_MQTT_OK/GD32VW55X_Wifi_BLE_SDK/GD32VW55x_RELEASE_V1.0.2/MSDK/wpa_supplicant/src/utils\common.c **** {
 995:C:/Users/stapi/OneDrive/Desktop/GD32VW553/V1_MQTT_OK/GD32VW55X_Wifi_BLE_SDK/GD32VW55x_RELEASE_V1.0.2/MSDK/wpa_supplicant/src/utils\common.c **** 	if (str) {
 996:C:/Users/stapi/OneDrive/Desktop/GD32VW553/V1_MQTT_OK/GD32VW55X_Wifi_BLE_SDK/GD32VW55x_RELEASE_V1.0.2/MSDK/wpa_supplicant/src/utils\common.c **** 		size_t len = os_strlen(str);
 997:C:/Users/stapi/OneDrive/Desktop/GD32VW553/V1_MQTT_OK/GD32VW55X_Wifi_BLE_SDK/GD32VW55x_RELEASE_V1.0.2/MSDK/wpa_supplicant/src/utils\common.c **** 		forced_memzero(str, len);
 998:C:/Users/stapi/OneDrive/Desktop/GD32VW553/V1_MQTT_OK/GD32VW55X_Wifi_BLE_SDK/GD32VW55x_RELEASE_V1.0.2/MSDK/wpa_supplicant/src/utils\common.c **** 		os_free(str);
 999:C:/Users/stapi/OneDrive/Desktop/GD32VW553/V1_MQTT_OK/GD32VW55X_Wifi_BLE_SDK/GD32VW55x_RELEASE_V1.0.2/MSDK/wpa_supplicant/src/utils\common.c **** 	}
1000:C:/Users/stapi/OneDrive/Desktop/GD32VW553/V1_MQTT_OK/GD32VW55X_Wifi_BLE_SDK/GD32VW55x_RELEASE_V1.0.2/MSDK/wpa_supplicant/src/utils\common.c **** }
1001:C:/Users/stapi/OneDrive/Desktop/GD32VW553/V1_MQTT_OK/GD32VW55X_Wifi_BLE_SDK/GD32VW55x_RELEASE_V1.0.2/MSDK/wpa_supplicant/src/utils\common.c **** 
1002:C:/Users/stapi/OneDrive/Desktop/GD32VW553/V1_MQTT_OK/GD32VW55X_Wifi_BLE_SDK/GD32VW55x_RELEASE_V1.0.2/MSDK/wpa_supplicant/src/utils\common.c **** 
1003:C:/Users/stapi/OneDrive/Desktop/GD32VW553/V1_MQTT_OK/GD32VW55X_Wifi_BLE_SDK/GD32VW55x_RELEASE_V1.0.2/MSDK/wpa_supplicant/src/utils\common.c **** void bin_clear_free(void *bin, size_t len)
1004:C:/Users/stapi/OneDrive/Desktop/GD32VW553/V1_MQTT_OK/GD32VW55X_Wifi_BLE_SDK/GD32VW55x_RELEASE_V1.0.2/MSDK/wpa_supplicant/src/utils\common.c **** {
1005:C:/Users/stapi/OneDrive/Desktop/GD32VW553/V1_MQTT_OK/GD32VW55X_Wifi_BLE_SDK/GD32VW55x_RELEASE_V1.0.2/MSDK/wpa_supplicant/src/utils\common.c **** 	if (bin) {
1006:C:/Users/stapi/OneDrive/Desktop/GD32VW553/V1_MQTT_OK/GD32VW55X_Wifi_BLE_SDK/GD32VW55x_RELEASE_V1.0.2/MSDK/wpa_supplicant/src/utils\common.c **** 		forced_memzero(bin, len);
1007:C:/Users/stapi/OneDrive/Desktop/GD32VW553/V1_MQTT_OK/GD32VW55X_Wifi_BLE_SDK/GD32VW55x_RELEASE_V1.0.2/MSDK/wpa_supplicant/src/utils\common.c **** 		os_free(bin);
1008:C:/Users/stapi/OneDrive/Desktop/GD32VW553/V1_MQTT_OK/GD32VW55X_Wifi_BLE_SDK/GD32VW55x_RELEASE_V1.0.2/MSDK/wpa_supplicant/src/utils\common.c **** 	}
1009:C:/Users/stapi/OneDrive/Desktop/GD32VW553/V1_MQTT_OK/GD32VW55X_Wifi_BLE_SDK/GD32VW55x_RELEASE_V1.0.2/MSDK/wpa_supplicant/src/utils\common.c **** }
1010:C:/Users/stapi/OneDrive/Desktop/GD32VW553/V1_MQTT_OK/GD32VW55X_Wifi_BLE_SDK/GD32VW55x_RELEASE_V1.0.2/MSDK/wpa_supplicant/src/utils\common.c **** 
1011:C:/Users/stapi/OneDrive/Desktop/GD32VW553/V1_MQTT_OK/GD32VW55X_Wifi_BLE_SDK/GD32VW55x_RELEASE_V1.0.2/MSDK/wpa_supplicant/src/utils\common.c **** 
1012:C:/Users/stapi/OneDrive/Desktop/GD32VW553/V1_MQTT_OK/GD32VW55X_Wifi_BLE_SDK/GD32VW55x_RELEASE_V1.0.2/MSDK/wpa_supplicant/src/utils\common.c **** int random_mac_addr(u8 *addr)
1013:C:/Users/stapi/OneDrive/Desktop/GD32VW553/V1_MQTT_OK/GD32VW55X_Wifi_BLE_SDK/GD32VW55x_RELEASE_V1.0.2/MSDK/wpa_supplicant/src/utils\common.c **** {
 3271              		.loc 1 1013 1 is_stmt 1
 3272              		.cfi_startproc
 3273              	.LVL384:
 3274 0000 17030000 		call	t0,__riscv_save_1
 3274      E7020300 
 3275              		.cfi_offset 8, -8
 3276              		.cfi_offset 1, -4
 3277              		.cfi_def_cfa_offset 16
1014:C:/Users/stapi/OneDrive/Desktop/GD32VW553/V1_MQTT_OK/GD32VW55X_Wifi_BLE_SDK/GD32VW55x_RELEASE_V1.0.2/MSDK/wpa_supplicant/src/utils\common.c **** 	if (os_get_random(addr, ETH_ALEN) < 0)
 3278              		.loc 1 1014 2
 3279              		.loc 1 1014 6 is_stmt 0
 3280 0008 9945     		li	a1,6
1013:C:/Users/stapi/OneDrive/Desktop/GD32VW553/V1_MQTT_OK/GD32VW55X_Wifi_BLE_SDK/GD32VW55x_RELEASE_V1.0.2/MSDK/wpa_supplicant/src/utils\common.c **** 	if (os_get_random(addr, ETH_ALEN) < 0)
 3281              		.loc 1 1013 1
 3282 000a 2A84     		mv	s0,a0
 3283              		.loc 1 1014 6
 3284 000c 97000000 		call	os_get_random
 3284      E7800000 
 3285              	.LVL385:
 3286              		.loc 1 1014 5
 3287 0014 634E0500 		blt	a0,zero,.L335
1015:C:/Users/stapi/OneDrive/Desktop/GD32VW553/V1_MQTT_OK/GD32VW55X_Wifi_BLE_SDK/GD32VW55x_RELEASE_V1.0.2/MSDK/wpa_supplicant/src/utils\common.c **** 		return -1;
1016:C:/Users/stapi/OneDrive/Desktop/GD32VW553/V1_MQTT_OK/GD32VW55X_Wifi_BLE_SDK/GD32VW55x_RELEASE_V1.0.2/MSDK/wpa_supplicant/src/utils\common.c **** 	addr[0] &= 0xfe; /* unicast */
 3288              		.loc 1 1016 2 is_stmt 1
1017:C:/Users/stapi/OneDrive/Desktop/GD32VW553/V1_MQTT_OK/GD32VW55X_Wifi_BLE_SDK/GD32VW55x_RELEASE_V1.0.2/MSDK/wpa_supplicant/src/utils\common.c **** 	addr[0] |= 0x02; /* locally administered */
 3289              		.loc 1 1017 2
1016:C:/Users/stapi/OneDrive/Desktop/GD32VW553/V1_MQTT_OK/GD32VW55X_Wifi_BLE_SDK/GD32VW55x_RELEASE_V1.0.2/MSDK/wpa_supplicant/src/utils\common.c **** 	addr[0] |= 0x02; /* locally administered */
 3290              		.loc 1 1016 10 is_stmt 0
 3291 0018 83470400 		lbu	a5,0(s0)
1018:C:/Users/stapi/OneDrive/Desktop/GD32VW553/V1_MQTT_OK/GD32VW55X_Wifi_BLE_SDK/GD32VW55x_RELEASE_V1.0.2/MSDK/wpa_supplicant/src/utils\common.c **** 	return 0;
 3292              		.loc 1 1018 9
 3293 001c 0145     		li	a0,0
1016:C:/Users/stapi/OneDrive/Desktop/GD32VW553/V1_MQTT_OK/GD32VW55X_Wifi_BLE_SDK/GD32VW55x_RELEASE_V1.0.2/MSDK/wpa_supplicant/src/utils\common.c **** 	addr[0] |= 0x02; /* locally administered */
 3294              		.loc 1 1016 10
 3295 001e F99B     		andi	a5,a5,-2
1017:C:/Users/stapi/OneDrive/Desktop/GD32VW553/V1_MQTT_OK/GD32VW55X_Wifi_BLE_SDK/GD32VW55x_RELEASE_V1.0.2/MSDK/wpa_supplicant/src/utils\common.c **** 	addr[0] |= 0x02; /* locally administered */
 3296              		.loc 1 1017 10
 3297 0020 93E72700 		ori	a5,a5,2
 3298 0024 2300F400 		sb	a5,0(s0)
 3299              		.loc 1 1018 2 is_stmt 1
 3300              	.L333:
1019:C:/Users/stapi/OneDrive/Desktop/GD32VW553/V1_MQTT_OK/GD32VW55X_Wifi_BLE_SDK/GD32VW55x_RELEASE_V1.0.2/MSDK/wpa_supplicant/src/utils\common.c **** }
 3301              		.loc 1 1019 1 is_stmt 0
 3302 0028 17030000 		tail	__riscv_restore_1
 3302      67000300 
 3303              		.cfi_remember_state
 3304              		.cfi_restore 8
 3305              		.cfi_restore 1
 3306              		.cfi_def_cfa_offset 0
 3307              	.L335:
 3308              		.cfi_restore_state
1015:C:/Users/stapi/OneDrive/Desktop/GD32VW553/V1_MQTT_OK/GD32VW55X_Wifi_BLE_SDK/GD32VW55x_RELEASE_V1.0.2/MSDK/wpa_supplicant/src/utils\common.c **** 	addr[0] &= 0xfe; /* unicast */
 3309              		.loc 1 1015 10
 3310 0030 7D55     		li	a0,-1
 3311 0032 DDBF     		j	.L333
 3312              		.cfi_endproc
 3313              	.LFE108:
 3315              		.section	.text.random_mac_addr_keep_oui,"ax",@progbits
 3316              		.align	1
 3317              		.globl	random_mac_addr_keep_oui
 3319              	random_mac_addr_keep_oui:
 3320              	.LFB109:
1020:C:/Users/stapi/OneDrive/Desktop/GD32VW553/V1_MQTT_OK/GD32VW55X_Wifi_BLE_SDK/GD32VW55x_RELEASE_V1.0.2/MSDK/wpa_supplicant/src/utils\common.c **** 
1021:C:/Users/stapi/OneDrive/Desktop/GD32VW553/V1_MQTT_OK/GD32VW55X_Wifi_BLE_SDK/GD32VW55x_RELEASE_V1.0.2/MSDK/wpa_supplicant/src/utils\common.c **** 
1022:C:/Users/stapi/OneDrive/Desktop/GD32VW553/V1_MQTT_OK/GD32VW55X_Wifi_BLE_SDK/GD32VW55x_RELEASE_V1.0.2/MSDK/wpa_supplicant/src/utils\common.c **** int random_mac_addr_keep_oui(u8 *addr)
1023:C:/Users/stapi/OneDrive/Desktop/GD32VW553/V1_MQTT_OK/GD32VW55X_Wifi_BLE_SDK/GD32VW55x_RELEASE_V1.0.2/MSDK/wpa_supplicant/src/utils\common.c **** {
 3321              		.loc 1 1023 1 is_stmt 1
 3322              		.cfi_startproc
 3323              	.LVL386:
 3324 0000 17030000 		call	t0,__riscv_save_1
 3324      E7020300 
 3325              		.cfi_offset 8, -8
 3326              		.cfi_offset 1, -4
 3327              		.cfi_def_cfa_offset 16
1024:C:/Users/stapi/OneDrive/Desktop/GD32VW553/V1_MQTT_OK/GD32VW55X_Wifi_BLE_SDK/GD32VW55x_RELEASE_V1.0.2/MSDK/wpa_supplicant/src/utils\common.c **** 	if (os_get_random(addr + 3, 3) < 0)
 3328              		.loc 1 1024 2
1023:C:/Users/stapi/OneDrive/Desktop/GD32VW553/V1_MQTT_OK/GD32VW55X_Wifi_BLE_SDK/GD32VW55x_RELEASE_V1.0.2/MSDK/wpa_supplicant/src/utils\common.c **** 	if (os_get_random(addr + 3, 3) < 0)
 3329              		.loc 1 1023 1 is_stmt 0
 3330 0008 2A84     		mv	s0,a0
 3331              		.loc 1 1024 6
 3332 000a 8D45     		li	a1,3
 3333 000c 0D05     		addi	a0,a0,3
 3334              	.LVL387:
 3335 000e 97000000 		call	os_get_random
 3335      E7800000 
 3336              	.LVL388:
 3337              		.loc 1 1024 5
 3338 0016 634E0500 		blt	a0,zero,.L339
1025:C:/Users/stapi/OneDrive/Desktop/GD32VW553/V1_MQTT_OK/GD32VW55X_Wifi_BLE_SDK/GD32VW55x_RELEASE_V1.0.2/MSDK/wpa_supplicant/src/utils\common.c **** 		return -1;
1026:C:/Users/stapi/OneDrive/Desktop/GD32VW553/V1_MQTT_OK/GD32VW55X_Wifi_BLE_SDK/GD32VW55x_RELEASE_V1.0.2/MSDK/wpa_supplicant/src/utils\common.c **** 	addr[0] &= 0xfe; /* unicast */
 3339              		.loc 1 1026 2 is_stmt 1
1027:C:/Users/stapi/OneDrive/Desktop/GD32VW553/V1_MQTT_OK/GD32VW55X_Wifi_BLE_SDK/GD32VW55x_RELEASE_V1.0.2/MSDK/wpa_supplicant/src/utils\common.c **** 	addr[0] |= 0x02; /* locally administered */
 3340              		.loc 1 1027 2
1026:C:/Users/stapi/OneDrive/Desktop/GD32VW553/V1_MQTT_OK/GD32VW55X_Wifi_BLE_SDK/GD32VW55x_RELEASE_V1.0.2/MSDK/wpa_supplicant/src/utils\common.c **** 	addr[0] |= 0x02; /* locally administered */
 3341              		.loc 1 1026 10 is_stmt 0
 3342 001a 83470400 		lbu	a5,0(s0)
1028:C:/Users/stapi/OneDrive/Desktop/GD32VW553/V1_MQTT_OK/GD32VW55X_Wifi_BLE_SDK/GD32VW55x_RELEASE_V1.0.2/MSDK/wpa_supplicant/src/utils\common.c **** 	return 0;
 3343              		.loc 1 1028 9
 3344 001e 0145     		li	a0,0
1026:C:/Users/stapi/OneDrive/Desktop/GD32VW553/V1_MQTT_OK/GD32VW55X_Wifi_BLE_SDK/GD32VW55x_RELEASE_V1.0.2/MSDK/wpa_supplicant/src/utils\common.c **** 	addr[0] |= 0x02; /* locally administered */
 3345              		.loc 1 1026 10
 3346 0020 F99B     		andi	a5,a5,-2
1027:C:/Users/stapi/OneDrive/Desktop/GD32VW553/V1_MQTT_OK/GD32VW55X_Wifi_BLE_SDK/GD32VW55x_RELEASE_V1.0.2/MSDK/wpa_supplicant/src/utils\common.c **** 	addr[0] |= 0x02; /* locally administered */
 3347              		.loc 1 1027 10
 3348 0022 93E72700 		ori	a5,a5,2
 3349 0026 2300F400 		sb	a5,0(s0)
 3350              		.loc 1 1028 2 is_stmt 1
 3351              	.L337:
1029:C:/Users/stapi/OneDrive/Desktop/GD32VW553/V1_MQTT_OK/GD32VW55X_Wifi_BLE_SDK/GD32VW55x_RELEASE_V1.0.2/MSDK/wpa_supplicant/src/utils\common.c **** }
 3352              		.loc 1 1029 1 is_stmt 0
 3353 002a 17030000 		tail	__riscv_restore_1
 3353      67000300 
 3354              		.cfi_remember_state
 3355              		.cfi_restore 8
 3356              		.cfi_restore 1
 3357              		.cfi_def_cfa_offset 0
 3358              	.L339:
 3359              		.cfi_restore_state
1025:C:/Users/stapi/OneDrive/Desktop/GD32VW553/V1_MQTT_OK/GD32VW55X_Wifi_BLE_SDK/GD32VW55x_RELEASE_V1.0.2/MSDK/wpa_supplicant/src/utils\common.c **** 	addr[0] &= 0xfe; /* unicast */
 3360              		.loc 1 1025 10
 3361 0032 7D55     		li	a0,-1
 3362 0034 DDBF     		j	.L337
 3363              		.cfi_endproc
 3364              	.LFE109:
 3366              		.section	.text.cstr_token,"ax",@progbits
 3367              		.align	1
 3368              		.globl	cstr_token
 3370              	cstr_token:
 3371              	.LFB110:
1030:C:/Users/stapi/OneDrive/Desktop/GD32VW553/V1_MQTT_OK/GD32VW55X_Wifi_BLE_SDK/GD32VW55x_RELEASE_V1.0.2/MSDK/wpa_supplicant/src/utils\common.c **** 
1031:C:/Users/stapi/OneDrive/Desktop/GD32VW553/V1_MQTT_OK/GD32VW55X_Wifi_BLE_SDK/GD32VW55x_RELEASE_V1.0.2/MSDK/wpa_supplicant/src/utils\common.c **** 
1032:C:/Users/stapi/OneDrive/Desktop/GD32VW553/V1_MQTT_OK/GD32VW55X_Wifi_BLE_SDK/GD32VW55x_RELEASE_V1.0.2/MSDK/wpa_supplicant/src/utils\common.c **** /**
1033:C:/Users/stapi/OneDrive/Desktop/GD32VW553/V1_MQTT_OK/GD32VW55X_Wifi_BLE_SDK/GD32VW55x_RELEASE_V1.0.2/MSDK/wpa_supplicant/src/utils\common.c ****  * cstr_token - Get next token from const char string
1034:C:/Users/stapi/OneDrive/Desktop/GD32VW553/V1_MQTT_OK/GD32VW55X_Wifi_BLE_SDK/GD32VW55x_RELEASE_V1.0.2/MSDK/wpa_supplicant/src/utils\common.c ****  * @str: a constant string to tokenize
1035:C:/Users/stapi/OneDrive/Desktop/GD32VW553/V1_MQTT_OK/GD32VW55X_Wifi_BLE_SDK/GD32VW55x_RELEASE_V1.0.2/MSDK/wpa_supplicant/src/utils\common.c ****  * @delim: a string of delimiters
1036:C:/Users/stapi/OneDrive/Desktop/GD32VW553/V1_MQTT_OK/GD32VW55X_Wifi_BLE_SDK/GD32VW55x_RELEASE_V1.0.2/MSDK/wpa_supplicant/src/utils\common.c ****  * @last: a pointer to a character following the returned token
1037:C:/Users/stapi/OneDrive/Desktop/GD32VW553/V1_MQTT_OK/GD32VW55X_Wifi_BLE_SDK/GD32VW55x_RELEASE_V1.0.2/MSDK/wpa_supplicant/src/utils\common.c ****  *      It has to be set to NULL for the first call and passed for any
1038:C:/Users/stapi/OneDrive/Desktop/GD32VW553/V1_MQTT_OK/GD32VW55X_Wifi_BLE_SDK/GD32VW55x_RELEASE_V1.0.2/MSDK/wpa_supplicant/src/utils\common.c ****  *      further call.
1039:C:/Users/stapi/OneDrive/Desktop/GD32VW553/V1_MQTT_OK/GD32VW55X_Wifi_BLE_SDK/GD32VW55x_RELEASE_V1.0.2/MSDK/wpa_supplicant/src/utils\common.c ****  * Returns: a pointer to token position in str or NULL
1040:C:/Users/stapi/OneDrive/Desktop/GD32VW553/V1_MQTT_OK/GD32VW55X_Wifi_BLE_SDK/GD32VW55x_RELEASE_V1.0.2/MSDK/wpa_supplicant/src/utils\common.c ****  *
1041:C:/Users/stapi/OneDrive/Desktop/GD32VW553/V1_MQTT_OK/GD32VW55X_Wifi_BLE_SDK/GD32VW55x_RELEASE_V1.0.2/MSDK/wpa_supplicant/src/utils\common.c ****  * This function is similar to str_token, but it can be used with both
1042:C:/Users/stapi/OneDrive/Desktop/GD32VW553/V1_MQTT_OK/GD32VW55X_Wifi_BLE_SDK/GD32VW55x_RELEASE_V1.0.2/MSDK/wpa_supplicant/src/utils\common.c ****  * char and const char strings. Differences:
1043:C:/Users/stapi/OneDrive/Desktop/GD32VW553/V1_MQTT_OK/GD32VW55X_Wifi_BLE_SDK/GD32VW55x_RELEASE_V1.0.2/MSDK/wpa_supplicant/src/utils\common.c ****  * - The str buffer remains unmodified
1044:C:/Users/stapi/OneDrive/Desktop/GD32VW553/V1_MQTT_OK/GD32VW55X_Wifi_BLE_SDK/GD32VW55x_RELEASE_V1.0.2/MSDK/wpa_supplicant/src/utils\common.c ****  * - The returned token is not a NULL terminated string, but a token
1045:C:/Users/stapi/OneDrive/Desktop/GD32VW553/V1_MQTT_OK/GD32VW55X_Wifi_BLE_SDK/GD32VW55x_RELEASE_V1.0.2/MSDK/wpa_supplicant/src/utils\common.c ****  *   position in str buffer. If a return value is not NULL a size
1046:C:/Users/stapi/OneDrive/Desktop/GD32VW553/V1_MQTT_OK/GD32VW55X_Wifi_BLE_SDK/GD32VW55x_RELEASE_V1.0.2/MSDK/wpa_supplicant/src/utils\common.c ****  *   of the returned token could be calculated as (last - token).
1047:C:/Users/stapi/OneDrive/Desktop/GD32VW553/V1_MQTT_OK/GD32VW55X_Wifi_BLE_SDK/GD32VW55x_RELEASE_V1.0.2/MSDK/wpa_supplicant/src/utils\common.c ****  */
1048:C:/Users/stapi/OneDrive/Desktop/GD32VW553/V1_MQTT_OK/GD32VW55X_Wifi_BLE_SDK/GD32VW55x_RELEASE_V1.0.2/MSDK/wpa_supplicant/src/utils\common.c **** const char * cstr_token(const char *str, const char *delim, const char **last)
1049:C:/Users/stapi/OneDrive/Desktop/GD32VW553/V1_MQTT_OK/GD32VW55X_Wifi_BLE_SDK/GD32VW55x_RELEASE_V1.0.2/MSDK/wpa_supplicant/src/utils\common.c **** {
 3372              		.loc 1 1049 1 is_stmt 1
 3373              		.cfi_startproc
 3374              	.LVL389:
 3375 0000 17030000 		call	t0,__riscv_save_4
 3375      E7020300 
 3376              		.cfi_offset 19, -20
 3377              		.cfi_offset 18, -16
 3378              		.cfi_offset 9, -12
 3379              		.cfi_offset 8, -8
 3380              		.cfi_offset 1, -4
 3381              		.cfi_def_cfa_offset 32
1050:C:/Users/stapi/OneDrive/Desktop/GD32VW553/V1_MQTT_OK/GD32VW55X_Wifi_BLE_SDK/GD32VW55x_RELEASE_V1.0.2/MSDK/wpa_supplicant/src/utils\common.c **** 	const char *end, *token = str;
 3382              		.loc 1 1050 2
 3383              	.LVL390:
1051:C:/Users/stapi/OneDrive/Desktop/GD32VW553/V1_MQTT_OK/GD32VW55X_Wifi_BLE_SDK/GD32VW55x_RELEASE_V1.0.2/MSDK/wpa_supplicant/src/utils\common.c **** 
1052:C:/Users/stapi/OneDrive/Desktop/GD32VW553/V1_MQTT_OK/GD32VW55X_Wifi_BLE_SDK/GD32VW55x_RELEASE_V1.0.2/MSDK/wpa_supplicant/src/utils\common.c **** 	if (!str || !delim || !last)
 3384              		.loc 1 1052 2
 3385              		.loc 1 1052 5 is_stmt 0
 3386 0008 19E5     		bne	a0,zero,.L342
 3387              	.LVL391:
 3388              	.L344:
1053:C:/Users/stapi/OneDrive/Desktop/GD32VW553/V1_MQTT_OK/GD32VW55X_Wifi_BLE_SDK/GD32VW55x_RELEASE_V1.0.2/MSDK/wpa_supplicant/src/utils\common.c **** 		return NULL;
 3389              		.loc 1 1053 10
 3390 000a 0144     		li	s0,0
 3391              	.L341:
1054:C:/Users/stapi/OneDrive/Desktop/GD32VW553/V1_MQTT_OK/GD32VW55X_Wifi_BLE_SDK/GD32VW55x_RELEASE_V1.0.2/MSDK/wpa_supplicant/src/utils\common.c **** 
1055:C:/Users/stapi/OneDrive/Desktop/GD32VW553/V1_MQTT_OK/GD32VW55X_Wifi_BLE_SDK/GD32VW55x_RELEASE_V1.0.2/MSDK/wpa_supplicant/src/utils\common.c **** 	if (*last)
1056:C:/Users/stapi/OneDrive/Desktop/GD32VW553/V1_MQTT_OK/GD32VW55X_Wifi_BLE_SDK/GD32VW55x_RELEASE_V1.0.2/MSDK/wpa_supplicant/src/utils\common.c **** 		token = *last;
1057:C:/Users/stapi/OneDrive/Desktop/GD32VW553/V1_MQTT_OK/GD32VW55X_Wifi_BLE_SDK/GD32VW55x_RELEASE_V1.0.2/MSDK/wpa_supplicant/src/utils\common.c **** 
1058:C:/Users/stapi/OneDrive/Desktop/GD32VW553/V1_MQTT_OK/GD32VW55X_Wifi_BLE_SDK/GD32VW55x_RELEASE_V1.0.2/MSDK/wpa_supplicant/src/utils\common.c **** 	while (*token && os_strchr(delim, *token))
1059:C:/Users/stapi/OneDrive/Desktop/GD32VW553/V1_MQTT_OK/GD32VW55X_Wifi_BLE_SDK/GD32VW55x_RELEASE_V1.0.2/MSDK/wpa_supplicant/src/utils\common.c **** 		token++;
1060:C:/Users/stapi/OneDrive/Desktop/GD32VW553/V1_MQTT_OK/GD32VW55X_Wifi_BLE_SDK/GD32VW55x_RELEASE_V1.0.2/MSDK/wpa_supplicant/src/utils\common.c **** 
1061:C:/Users/stapi/OneDrive/Desktop/GD32VW553/V1_MQTT_OK/GD32VW55X_Wifi_BLE_SDK/GD32VW55x_RELEASE_V1.0.2/MSDK/wpa_supplicant/src/utils\common.c **** 	if (!*token)
1062:C:/Users/stapi/OneDrive/Desktop/GD32VW553/V1_MQTT_OK/GD32VW55X_Wifi_BLE_SDK/GD32VW55x_RELEASE_V1.0.2/MSDK/wpa_supplicant/src/utils\common.c **** 		return NULL;
1063:C:/Users/stapi/OneDrive/Desktop/GD32VW553/V1_MQTT_OK/GD32VW55X_Wifi_BLE_SDK/GD32VW55x_RELEASE_V1.0.2/MSDK/wpa_supplicant/src/utils\common.c **** 
1064:C:/Users/stapi/OneDrive/Desktop/GD32VW553/V1_MQTT_OK/GD32VW55X_Wifi_BLE_SDK/GD32VW55x_RELEASE_V1.0.2/MSDK/wpa_supplicant/src/utils\common.c **** 	end = token + 1;
1065:C:/Users/stapi/OneDrive/Desktop/GD32VW553/V1_MQTT_OK/GD32VW55X_Wifi_BLE_SDK/GD32VW55x_RELEASE_V1.0.2/MSDK/wpa_supplicant/src/utils\common.c **** 
1066:C:/Users/stapi/OneDrive/Desktop/GD32VW553/V1_MQTT_OK/GD32VW55X_Wifi_BLE_SDK/GD32VW55x_RELEASE_V1.0.2/MSDK/wpa_supplicant/src/utils\common.c **** 	while (*end && !os_strchr(delim, *end))
1067:C:/Users/stapi/OneDrive/Desktop/GD32VW553/V1_MQTT_OK/GD32VW55X_Wifi_BLE_SDK/GD32VW55x_RELEASE_V1.0.2/MSDK/wpa_supplicant/src/utils\common.c **** 		end++;
1068:C:/Users/stapi/OneDrive/Desktop/GD32VW553/V1_MQTT_OK/GD32VW55X_Wifi_BLE_SDK/GD32VW55x_RELEASE_V1.0.2/MSDK/wpa_supplicant/src/utils\common.c **** 
1069:C:/Users/stapi/OneDrive/Desktop/GD32VW553/V1_MQTT_OK/GD32VW55X_Wifi_BLE_SDK/GD32VW55x_RELEASE_V1.0.2/MSDK/wpa_supplicant/src/utils\common.c **** 	*last = end;
1070:C:/Users/stapi/OneDrive/Desktop/GD32VW553/V1_MQTT_OK/GD32VW55X_Wifi_BLE_SDK/GD32VW55x_RELEASE_V1.0.2/MSDK/wpa_supplicant/src/utils\common.c **** 	return token;
1071:C:/Users/stapi/OneDrive/Desktop/GD32VW553/V1_MQTT_OK/GD32VW55X_Wifi_BLE_SDK/GD32VW55x_RELEASE_V1.0.2/MSDK/wpa_supplicant/src/utils\common.c **** }
 3392              		.loc 1 1071 1
 3393 000c 2285     		mv	a0,s0
 3394 000e 17030000 		tail	__riscv_restore_4
 3394      67000300 
 3395              		.cfi_remember_state
 3396              		.cfi_restore 19
 3397              		.cfi_restore 18
 3398              		.cfi_restore 9
 3399              		.cfi_restore 8
 3400              		.cfi_restore 1
 3401              		.cfi_def_cfa_offset 0
 3402              	.LVL392:
 3403              	.L342:
 3404              		.cfi_restore_state
 3405 0016 2E89     		mv	s2,a1
1052:C:/Users/stapi/OneDrive/Desktop/GD32VW553/V1_MQTT_OK/GD32VW55X_Wifi_BLE_SDK/GD32VW55x_RELEASE_V1.0.2/MSDK/wpa_supplicant/src/utils\common.c **** 		return NULL;
 3406              		.loc 1 1052 11 discriminator 1
 3407 0018 EDD9     		beq	a1,zero,.L344
 3408 001a B284     		mv	s1,a2
1052:C:/Users/stapi/OneDrive/Desktop/GD32VW553/V1_MQTT_OK/GD32VW55X_Wifi_BLE_SDK/GD32VW55x_RELEASE_V1.0.2/MSDK/wpa_supplicant/src/utils\common.c **** 		return NULL;
 3409              		.loc 1 1052 21 discriminator 2
 3410 001c 7DD6     		beq	a2,zero,.L344
 3411              	.LVL393:
1055:C:/Users/stapi/OneDrive/Desktop/GD32VW553/V1_MQTT_OK/GD32VW55X_Wifi_BLE_SDK/GD32VW55x_RELEASE_V1.0.2/MSDK/wpa_supplicant/src/utils\common.c **** 		token = *last;
 3412              		.loc 1 1055 6
 3413 001e 1C42     		lw	a5,0(a2)
 3414 0020 2A84     		mv	s0,a0
1055:C:/Users/stapi/OneDrive/Desktop/GD32VW553/V1_MQTT_OK/GD32VW55X_Wifi_BLE_SDK/GD32VW55x_RELEASE_V1.0.2/MSDK/wpa_supplicant/src/utils\common.c **** 		token = *last;
 3415              		.loc 1 1055 2 is_stmt 1
1055:C:/Users/stapi/OneDrive/Desktop/GD32VW553/V1_MQTT_OK/GD32VW55X_Wifi_BLE_SDK/GD32VW55x_RELEASE_V1.0.2/MSDK/wpa_supplicant/src/utils\common.c **** 		token = *last;
 3416              		.loc 1 1055 5 is_stmt 0
 3417 0022 91C3     		beq	a5,zero,.L346
 3418              	.LVL394:
 3419 0024 3E84     		mv	s0,a5
 3420              	.LVL395:
 3421              	.L346:
1058:C:/Users/stapi/OneDrive/Desktop/GD32VW553/V1_MQTT_OK/GD32VW55X_Wifi_BLE_SDK/GD32VW55x_RELEASE_V1.0.2/MSDK/wpa_supplicant/src/utils\common.c **** 		token++;
 3422              		.loc 1 1058 8 is_stmt 1
1058:C:/Users/stapi/OneDrive/Desktop/GD32VW553/V1_MQTT_OK/GD32VW55X_Wifi_BLE_SDK/GD32VW55x_RELEASE_V1.0.2/MSDK/wpa_supplicant/src/utils\common.c **** 		token++;
 3423              		.loc 1 1058 9 is_stmt 0
 3424 0026 83050400 		lb	a1,0(s0)
1058:C:/Users/stapi/OneDrive/Desktop/GD32VW553/V1_MQTT_OK/GD32VW55X_Wifi_BLE_SDK/GD32VW55x_RELEASE_V1.0.2/MSDK/wpa_supplicant/src/utils\common.c **** 		token++;
 3425              		.loc 1 1058 8
 3426 002a E5D1     		beq	a1,zero,.L344
1058:C:/Users/stapi/OneDrive/Desktop/GD32VW553/V1_MQTT_OK/GD32VW55X_Wifi_BLE_SDK/GD32VW55x_RELEASE_V1.0.2/MSDK/wpa_supplicant/src/utils\common.c **** 		token++;
 3427              		.loc 1 1058 19 discriminator 1
 3428 002c 4A85     		mv	a0,s2
 3429 002e 97000000 		call	os_strchr
 3429      E7800000 
 3430              	.LVL396:
1058:C:/Users/stapi/OneDrive/Desktop/GD32VW553/V1_MQTT_OK/GD32VW55X_Wifi_BLE_SDK/GD32VW55x_RELEASE_V1.0.2/MSDK/wpa_supplicant/src/utils\common.c **** 		token++;
 3431              		.loc 1 1058 16 discriminator 1
 3432 0036 01ED     		bne	a0,zero,.L347
1061:C:/Users/stapi/OneDrive/Desktop/GD32VW553/V1_MQTT_OK/GD32VW55X_Wifi_BLE_SDK/GD32VW55x_RELEASE_V1.0.2/MSDK/wpa_supplicant/src/utils\common.c **** 		return NULL;
 3433              		.loc 1 1061 2 is_stmt 1
1061:C:/Users/stapi/OneDrive/Desktop/GD32VW553/V1_MQTT_OK/GD32VW55X_Wifi_BLE_SDK/GD32VW55x_RELEASE_V1.0.2/MSDK/wpa_supplicant/src/utils\common.c **** 		return NULL;
 3434              		.loc 1 1061 5 is_stmt 0
 3435 0038 83070400 		lb	a5,0(s0)
 3436 003c F9D7     		beq	a5,zero,.L344
1064:C:/Users/stapi/OneDrive/Desktop/GD32VW553/V1_MQTT_OK/GD32VW55X_Wifi_BLE_SDK/GD32VW55x_RELEASE_V1.0.2/MSDK/wpa_supplicant/src/utils\common.c **** 
 3437              		.loc 1 1064 2 is_stmt 1
1064:C:/Users/stapi/OneDrive/Desktop/GD32VW553/V1_MQTT_OK/GD32VW55X_Wifi_BLE_SDK/GD32VW55x_RELEASE_V1.0.2/MSDK/wpa_supplicant/src/utils\common.c **** 
 3438              		.loc 1 1064 6 is_stmt 0
 3439 003e 93091400 		addi	s3,s0,1
 3440              	.LVL397:
1066:C:/Users/stapi/OneDrive/Desktop/GD32VW553/V1_MQTT_OK/GD32VW55X_Wifi_BLE_SDK/GD32VW55x_RELEASE_V1.0.2/MSDK/wpa_supplicant/src/utils\common.c **** 		end++;
 3441              		.loc 1 1066 2 is_stmt 1
 3442              	.L348:
1066:C:/Users/stapi/OneDrive/Desktop/GD32VW553/V1_MQTT_OK/GD32VW55X_Wifi_BLE_SDK/GD32VW55x_RELEASE_V1.0.2/MSDK/wpa_supplicant/src/utils\common.c **** 		end++;
 3443              		.loc 1 1066 8
1066:C:/Users/stapi/OneDrive/Desktop/GD32VW553/V1_MQTT_OK/GD32VW55X_Wifi_BLE_SDK/GD32VW55x_RELEASE_V1.0.2/MSDK/wpa_supplicant/src/utils\common.c **** 		end++;
 3444              		.loc 1 1066 9 is_stmt 0
 3445 0042 83850900 		lb	a1,0(s3)
1066:C:/Users/stapi/OneDrive/Desktop/GD32VW553/V1_MQTT_OK/GD32VW55X_Wifi_BLE_SDK/GD32VW55x_RELEASE_V1.0.2/MSDK/wpa_supplicant/src/utils\common.c **** 		end++;
 3446              		.loc 1 1066 8
 3447 0046 91E5     		bne	a1,zero,.L349
 3448              	.L351:
1069:C:/Users/stapi/OneDrive/Desktop/GD32VW553/V1_MQTT_OK/GD32VW55X_Wifi_BLE_SDK/GD32VW55x_RELEASE_V1.0.2/MSDK/wpa_supplicant/src/utils\common.c **** 	return token;
 3449              		.loc 1 1069 2 is_stmt 1
1069:C:/Users/stapi/OneDrive/Desktop/GD32VW553/V1_MQTT_OK/GD32VW55X_Wifi_BLE_SDK/GD32VW55x_RELEASE_V1.0.2/MSDK/wpa_supplicant/src/utils\common.c **** 	return token;
 3450              		.loc 1 1069 8 is_stmt 0
 3451 0048 23A03401 		sw	s3,0(s1)
1070:C:/Users/stapi/OneDrive/Desktop/GD32VW553/V1_MQTT_OK/GD32VW55X_Wifi_BLE_SDK/GD32VW55x_RELEASE_V1.0.2/MSDK/wpa_supplicant/src/utils\common.c **** }
 3452              		.loc 1 1070 2 is_stmt 1
1070:C:/Users/stapi/OneDrive/Desktop/GD32VW553/V1_MQTT_OK/GD32VW55X_Wifi_BLE_SDK/GD32VW55x_RELEASE_V1.0.2/MSDK/wpa_supplicant/src/utils\common.c **** }
 3453              		.loc 1 1070 9 is_stmt 0
 3454 004c C1B7     		j	.L341
 3455              	.LVL398:
 3456              	.L347:
1059:C:/Users/stapi/OneDrive/Desktop/GD32VW553/V1_MQTT_OK/GD32VW55X_Wifi_BLE_SDK/GD32VW55x_RELEASE_V1.0.2/MSDK/wpa_supplicant/src/utils\common.c **** 
 3457              		.loc 1 1059 3 is_stmt 1
1059:C:/Users/stapi/OneDrive/Desktop/GD32VW553/V1_MQTT_OK/GD32VW55X_Wifi_BLE_SDK/GD32VW55x_RELEASE_V1.0.2/MSDK/wpa_supplicant/src/utils\common.c **** 
 3458              		.loc 1 1059 8 is_stmt 0
 3459 004e 0504     		addi	s0,s0,1
 3460              	.LVL399:
 3461 0050 D9BF     		j	.L346
 3462              	.LVL400:
 3463              	.L349:
1066:C:/Users/stapi/OneDrive/Desktop/GD32VW553/V1_MQTT_OK/GD32VW55X_Wifi_BLE_SDK/GD32VW55x_RELEASE_V1.0.2/MSDK/wpa_supplicant/src/utils\common.c **** 		end++;
 3464              		.loc 1 1066 18 discriminator 1
 3465 0052 4A85     		mv	a0,s2
 3466 0054 97000000 		call	os_strchr
 3466      E7800000 
 3467              	.LVL401:
1066:C:/Users/stapi/OneDrive/Desktop/GD32VW553/V1_MQTT_OK/GD32VW55X_Wifi_BLE_SDK/GD32VW55x_RELEASE_V1.0.2/MSDK/wpa_supplicant/src/utils\common.c **** 		end++;
 3468              		.loc 1 1066 14 discriminator 1
 3469 005c 75F5     		bne	a0,zero,.L351
1067:C:/Users/stapi/OneDrive/Desktop/GD32VW553/V1_MQTT_OK/GD32VW55X_Wifi_BLE_SDK/GD32VW55x_RELEASE_V1.0.2/MSDK/wpa_supplicant/src/utils\common.c **** 
 3470              		.loc 1 1067 3 is_stmt 1
1067:C:/Users/stapi/OneDrive/Desktop/GD32VW553/V1_MQTT_OK/GD32VW55X_Wifi_BLE_SDK/GD32VW55x_RELEASE_V1.0.2/MSDK/wpa_supplicant/src/utils\common.c **** 
 3471              		.loc 1 1067 6 is_stmt 0
 3472 005e 8509     		addi	s3,s3,1
 3473              	.LVL402:
 3474 0060 CDB7     		j	.L348
 3475              		.cfi_endproc
 3476              	.LFE110:
 3478              		.section	.text.str_token,"ax",@progbits
 3479              		.align	1
 3480              		.globl	str_token
 3482              	str_token:
 3483              	.LFB111:
1072:C:/Users/stapi/OneDrive/Desktop/GD32VW553/V1_MQTT_OK/GD32VW55X_Wifi_BLE_SDK/GD32VW55x_RELEASE_V1.0.2/MSDK/wpa_supplicant/src/utils\common.c **** 
1073:C:/Users/stapi/OneDrive/Desktop/GD32VW553/V1_MQTT_OK/GD32VW55X_Wifi_BLE_SDK/GD32VW55x_RELEASE_V1.0.2/MSDK/wpa_supplicant/src/utils\common.c **** 
1074:C:/Users/stapi/OneDrive/Desktop/GD32VW553/V1_MQTT_OK/GD32VW55X_Wifi_BLE_SDK/GD32VW55x_RELEASE_V1.0.2/MSDK/wpa_supplicant/src/utils\common.c **** /**
1075:C:/Users/stapi/OneDrive/Desktop/GD32VW553/V1_MQTT_OK/GD32VW55X_Wifi_BLE_SDK/GD32VW55x_RELEASE_V1.0.2/MSDK/wpa_supplicant/src/utils\common.c ****  * str_token - Get next token from a string
1076:C:/Users/stapi/OneDrive/Desktop/GD32VW553/V1_MQTT_OK/GD32VW55X_Wifi_BLE_SDK/GD32VW55x_RELEASE_V1.0.2/MSDK/wpa_supplicant/src/utils\common.c ****  * @buf: String to tokenize. Note that the string might be modified.
1077:C:/Users/stapi/OneDrive/Desktop/GD32VW553/V1_MQTT_OK/GD32VW55X_Wifi_BLE_SDK/GD32VW55x_RELEASE_V1.0.2/MSDK/wpa_supplicant/src/utils\common.c ****  * @delim: String of delimiters
1078:C:/Users/stapi/OneDrive/Desktop/GD32VW553/V1_MQTT_OK/GD32VW55X_Wifi_BLE_SDK/GD32VW55x_RELEASE_V1.0.2/MSDK/wpa_supplicant/src/utils\common.c ****  * @context: Pointer to save our context. Should be initialized with
1079:C:/Users/stapi/OneDrive/Desktop/GD32VW553/V1_MQTT_OK/GD32VW55X_Wifi_BLE_SDK/GD32VW55x_RELEASE_V1.0.2/MSDK/wpa_supplicant/src/utils\common.c ****  *	NULL on the first call, and passed for any further call.
1080:C:/Users/stapi/OneDrive/Desktop/GD32VW553/V1_MQTT_OK/GD32VW55X_Wifi_BLE_SDK/GD32VW55x_RELEASE_V1.0.2/MSDK/wpa_supplicant/src/utils\common.c ****  * Returns: The next token, NULL if there are no more valid tokens.
1081:C:/Users/stapi/OneDrive/Desktop/GD32VW553/V1_MQTT_OK/GD32VW55X_Wifi_BLE_SDK/GD32VW55x_RELEASE_V1.0.2/MSDK/wpa_supplicant/src/utils\common.c ****  */
1082:C:/Users/stapi/OneDrive/Desktop/GD32VW553/V1_MQTT_OK/GD32VW55X_Wifi_BLE_SDK/GD32VW55x_RELEASE_V1.0.2/MSDK/wpa_supplicant/src/utils\common.c **** char * str_token(char *str, const char *delim, char **context)
1083:C:/Users/stapi/OneDrive/Desktop/GD32VW553/V1_MQTT_OK/GD32VW55X_Wifi_BLE_SDK/GD32VW55x_RELEASE_V1.0.2/MSDK/wpa_supplicant/src/utils\common.c **** {
 3484              		.loc 1 1083 1 is_stmt 1
 3485              		.cfi_startproc
 3486              	.LVL403:
 3487 0000 17030000 		call	t0,__riscv_save_1
 3487      E7020300 
 3488              		.cfi_offset 8, -8
 3489              		.cfi_offset 1, -4
 3490              		.cfi_def_cfa_offset 16
1084:C:/Users/stapi/OneDrive/Desktop/GD32VW553/V1_MQTT_OK/GD32VW55X_Wifi_BLE_SDK/GD32VW55x_RELEASE_V1.0.2/MSDK/wpa_supplicant/src/utils\common.c **** 	char *token = (char *) cstr_token(str, delim, (const char **) context);
 3491              		.loc 1 1084 2
1083:C:/Users/stapi/OneDrive/Desktop/GD32VW553/V1_MQTT_OK/GD32VW55X_Wifi_BLE_SDK/GD32VW55x_RELEASE_V1.0.2/MSDK/wpa_supplicant/src/utils\common.c **** 	char *token = (char *) cstr_token(str, delim, (const char **) context);
 3492              		.loc 1 1083 1 is_stmt 0
 3493 0008 3284     		mv	s0,a2
 3494              		.loc 1 1084 25
 3495 000a 97000000 		call	cstr_token
 3495      E7800000 
 3496              	.LVL404:
1085:C:/Users/stapi/OneDrive/Desktop/GD32VW553/V1_MQTT_OK/GD32VW55X_Wifi_BLE_SDK/GD32VW55x_RELEASE_V1.0.2/MSDK/wpa_supplicant/src/utils\common.c **** 
1086:C:/Users/stapi/OneDrive/Desktop/GD32VW553/V1_MQTT_OK/GD32VW55X_Wifi_BLE_SDK/GD32VW55x_RELEASE_V1.0.2/MSDK/wpa_supplicant/src/utils\common.c **** 	if (token && **context)
 3497              		.loc 1 1086 2 is_stmt 1
 3498              		.loc 1 1086 5 is_stmt 0
 3499 0012 11C9     		beq	a0,zero,.L368
 3500              		.loc 1 1086 16 discriminator 1
 3501 0014 1C40     		lw	a5,0(s0)
 3502              		.loc 1 1086 12 discriminator 1
 3503 0016 03870700 		lb	a4,0(a5)
 3504 001a 11C7     		beq	a4,zero,.L368
1087:C:/Users/stapi/OneDrive/Desktop/GD32VW553/V1_MQTT_OK/GD32VW55X_Wifi_BLE_SDK/GD32VW55x_RELEASE_V1.0.2/MSDK/wpa_supplicant/src/utils\common.c **** 		*(*context)++ = '\0';
 3505              		.loc 1 1087 3 is_stmt 1
 3506              		.loc 1 1087 14 is_stmt 0
 3507 001c 13871700 		addi	a4,a5,1
 3508 0020 18C0     		sw	a4,0(s0)
 3509              		.loc 1 1087 17
 3510 0022 23800700 		sb	zero,0(a5)
1088:C:/Users/stapi/OneDrive/Desktop/GD32VW553/V1_MQTT_OK/GD32VW55X_Wifi_BLE_SDK/GD32VW55x_RELEASE_V1.0.2/MSDK/wpa_supplicant/src/utils\common.c **** 
1089:C:/Users/stapi/OneDrive/Desktop/GD32VW553/V1_MQTT_OK/GD32VW55X_Wifi_BLE_SDK/GD32VW55x_RELEASE_V1.0.2/MSDK/wpa_supplicant/src/utils\common.c **** 	return token;
 3511              		.loc 1 1089 2 is_stmt 1
 3512              	.L368:
1090:C:/Users/stapi/OneDrive/Desktop/GD32VW553/V1_MQTT_OK/GD32VW55X_Wifi_BLE_SDK/GD32VW55x_RELEASE_V1.0.2/MSDK/wpa_supplicant/src/utils\common.c **** }
 3513              		.loc 1 1090 1 is_stmt 0
 3514 0026 17030000 		tail	__riscv_restore_1
 3514      67000300 
 3515              		.cfi_restore 8
 3516              		.cfi_restore 1
 3517              		.cfi_def_cfa_offset 0
 3518              		.cfi_endproc
 3519              	.LFE111:
 3521              		.section	.text.utf8_unescape,"ax",@progbits
 3522              		.align	1
 3523              		.globl	utf8_unescape
 3525              	utf8_unescape:
 3526              	.LFB112:
1091:C:/Users/stapi/OneDrive/Desktop/GD32VW553/V1_MQTT_OK/GD32VW55X_Wifi_BLE_SDK/GD32VW55x_RELEASE_V1.0.2/MSDK/wpa_supplicant/src/utils\common.c **** 
1092:C:/Users/stapi/OneDrive/Desktop/GD32VW553/V1_MQTT_OK/GD32VW55X_Wifi_BLE_SDK/GD32VW55x_RELEASE_V1.0.2/MSDK/wpa_supplicant/src/utils\common.c **** 
1093:C:/Users/stapi/OneDrive/Desktop/GD32VW553/V1_MQTT_OK/GD32VW55X_Wifi_BLE_SDK/GD32VW55x_RELEASE_V1.0.2/MSDK/wpa_supplicant/src/utils\common.c **** size_t utf8_unescape(const char *inp, size_t in_size,
1094:C:/Users/stapi/OneDrive/Desktop/GD32VW553/V1_MQTT_OK/GD32VW55X_Wifi_BLE_SDK/GD32VW55x_RELEASE_V1.0.2/MSDK/wpa_supplicant/src/utils\common.c **** 		     char *outp, size_t out_size)
1095:C:/Users/stapi/OneDrive/Desktop/GD32VW553/V1_MQTT_OK/GD32VW55X_Wifi_BLE_SDK/GD32VW55x_RELEASE_V1.0.2/MSDK/wpa_supplicant/src/utils\common.c **** {
 3527              		.loc 1 1095 1 is_stmt 1
 3528              		.cfi_startproc
 3529              	.LVL405:
1096:C:/Users/stapi/OneDrive/Desktop/GD32VW553/V1_MQTT_OK/GD32VW55X_Wifi_BLE_SDK/GD32VW55x_RELEASE_V1.0.2/MSDK/wpa_supplicant/src/utils\common.c **** 	size_t res_size = 0;
 3530              		.loc 1 1096 2
1097:C:/Users/stapi/OneDrive/Desktop/GD32VW553/V1_MQTT_OK/GD32VW55X_Wifi_BLE_SDK/GD32VW55x_RELEASE_V1.0.2/MSDK/wpa_supplicant/src/utils\common.c **** 
1098:C:/Users/stapi/OneDrive/Desktop/GD32VW553/V1_MQTT_OK/GD32VW55X_Wifi_BLE_SDK/GD32VW55x_RELEASE_V1.0.2/MSDK/wpa_supplicant/src/utils\common.c **** 	if (!inp || !outp)
 3531              		.loc 1 1098 2
 3532              		.loc 1 1098 5 is_stmt 0
 3533 0000 11E9     		bne	a0,zero,.L378
1099:C:/Users/stapi/OneDrive/Desktop/GD32VW553/V1_MQTT_OK/GD32VW55X_Wifi_BLE_SDK/GD32VW55x_RELEASE_V1.0.2/MSDK/wpa_supplicant/src/utils\common.c **** 		return 0;
 3534              		.loc 1 1099 10
 3535 0002 8145     		li	a1,0
 3536              	.LVL406:
1100:C:/Users/stapi/OneDrive/Desktop/GD32VW553/V1_MQTT_OK/GD32VW55X_Wifi_BLE_SDK/GD32VW55x_RELEASE_V1.0.2/MSDK/wpa_supplicant/src/utils\common.c **** 
1101:C:/Users/stapi/OneDrive/Desktop/GD32VW553/V1_MQTT_OK/GD32VW55X_Wifi_BLE_SDK/GD32VW55x_RELEASE_V1.0.2/MSDK/wpa_supplicant/src/utils\common.c **** 	if (!in_size)
1102:C:/Users/stapi/OneDrive/Desktop/GD32VW553/V1_MQTT_OK/GD32VW55X_Wifi_BLE_SDK/GD32VW55x_RELEASE_V1.0.2/MSDK/wpa_supplicant/src/utils\common.c **** 		in_size = os_strlen(inp);
1103:C:/Users/stapi/OneDrive/Desktop/GD32VW553/V1_MQTT_OK/GD32VW55X_Wifi_BLE_SDK/GD32VW55x_RELEASE_V1.0.2/MSDK/wpa_supplicant/src/utils\common.c **** 
1104:C:/Users/stapi/OneDrive/Desktop/GD32VW553/V1_MQTT_OK/GD32VW55X_Wifi_BLE_SDK/GD32VW55x_RELEASE_V1.0.2/MSDK/wpa_supplicant/src/utils\common.c **** 	/* Advance past leading single quote */
1105:C:/Users/stapi/OneDrive/Desktop/GD32VW553/V1_MQTT_OK/GD32VW55X_Wifi_BLE_SDK/GD32VW55x_RELEASE_V1.0.2/MSDK/wpa_supplicant/src/utils\common.c **** 	if (*inp == '\'' && in_size) {
1106:C:/Users/stapi/OneDrive/Desktop/GD32VW553/V1_MQTT_OK/GD32VW55X_Wifi_BLE_SDK/GD32VW55x_RELEASE_V1.0.2/MSDK/wpa_supplicant/src/utils\common.c **** 		inp++;
1107:C:/Users/stapi/OneDrive/Desktop/GD32VW553/V1_MQTT_OK/GD32VW55X_Wifi_BLE_SDK/GD32VW55x_RELEASE_V1.0.2/MSDK/wpa_supplicant/src/utils\common.c **** 		in_size--;
1108:C:/Users/stapi/OneDrive/Desktop/GD32VW553/V1_MQTT_OK/GD32VW55X_Wifi_BLE_SDK/GD32VW55x_RELEASE_V1.0.2/MSDK/wpa_supplicant/src/utils\common.c **** 	}
1109:C:/Users/stapi/OneDrive/Desktop/GD32VW553/V1_MQTT_OK/GD32VW55X_Wifi_BLE_SDK/GD32VW55x_RELEASE_V1.0.2/MSDK/wpa_supplicant/src/utils\common.c **** 
1110:C:/Users/stapi/OneDrive/Desktop/GD32VW553/V1_MQTT_OK/GD32VW55X_Wifi_BLE_SDK/GD32VW55x_RELEASE_V1.0.2/MSDK/wpa_supplicant/src/utils\common.c **** 	while (in_size) {
1111:C:/Users/stapi/OneDrive/Desktop/GD32VW553/V1_MQTT_OK/GD32VW55X_Wifi_BLE_SDK/GD32VW55x_RELEASE_V1.0.2/MSDK/wpa_supplicant/src/utils\common.c **** 		in_size--;
1112:C:/Users/stapi/OneDrive/Desktop/GD32VW553/V1_MQTT_OK/GD32VW55X_Wifi_BLE_SDK/GD32VW55x_RELEASE_V1.0.2/MSDK/wpa_supplicant/src/utils\common.c **** 		if (res_size >= out_size)
1113:C:/Users/stapi/OneDrive/Desktop/GD32VW553/V1_MQTT_OK/GD32VW55X_Wifi_BLE_SDK/GD32VW55x_RELEASE_V1.0.2/MSDK/wpa_supplicant/src/utils\common.c **** 			return 0;
1114:C:/Users/stapi/OneDrive/Desktop/GD32VW553/V1_MQTT_OK/GD32VW55X_Wifi_BLE_SDK/GD32VW55x_RELEASE_V1.0.2/MSDK/wpa_supplicant/src/utils\common.c **** 
1115:C:/Users/stapi/OneDrive/Desktop/GD32VW553/V1_MQTT_OK/GD32VW55X_Wifi_BLE_SDK/GD32VW55x_RELEASE_V1.0.2/MSDK/wpa_supplicant/src/utils\common.c **** 		switch (*inp) {
1116:C:/Users/stapi/OneDrive/Desktop/GD32VW553/V1_MQTT_OK/GD32VW55X_Wifi_BLE_SDK/GD32VW55x_RELEASE_V1.0.2/MSDK/wpa_supplicant/src/utils\common.c **** 		case '\'':
1117:C:/Users/stapi/OneDrive/Desktop/GD32VW553/V1_MQTT_OK/GD32VW55X_Wifi_BLE_SDK/GD32VW55x_RELEASE_V1.0.2/MSDK/wpa_supplicant/src/utils\common.c **** 			/* Terminate on bare single quote */
1118:C:/Users/stapi/OneDrive/Desktop/GD32VW553/V1_MQTT_OK/GD32VW55X_Wifi_BLE_SDK/GD32VW55x_RELEASE_V1.0.2/MSDK/wpa_supplicant/src/utils\common.c **** 			*outp = '\0';
1119:C:/Users/stapi/OneDrive/Desktop/GD32VW553/V1_MQTT_OK/GD32VW55X_Wifi_BLE_SDK/GD32VW55x_RELEASE_V1.0.2/MSDK/wpa_supplicant/src/utils\common.c **** 			return res_size;
1120:C:/Users/stapi/OneDrive/Desktop/GD32VW553/V1_MQTT_OK/GD32VW55X_Wifi_BLE_SDK/GD32VW55x_RELEASE_V1.0.2/MSDK/wpa_supplicant/src/utils\common.c **** 
1121:C:/Users/stapi/OneDrive/Desktop/GD32VW553/V1_MQTT_OK/GD32VW55X_Wifi_BLE_SDK/GD32VW55x_RELEASE_V1.0.2/MSDK/wpa_supplicant/src/utils\common.c **** 		case '\\':
1122:C:/Users/stapi/OneDrive/Desktop/GD32VW553/V1_MQTT_OK/GD32VW55X_Wifi_BLE_SDK/GD32VW55x_RELEASE_V1.0.2/MSDK/wpa_supplicant/src/utils\common.c **** 			if (!in_size)
1123:C:/Users/stapi/OneDrive/Desktop/GD32VW553/V1_MQTT_OK/GD32VW55X_Wifi_BLE_SDK/GD32VW55x_RELEASE_V1.0.2/MSDK/wpa_supplicant/src/utils\common.c **** 				return 0;
1124:C:/Users/stapi/OneDrive/Desktop/GD32VW553/V1_MQTT_OK/GD32VW55X_Wifi_BLE_SDK/GD32VW55x_RELEASE_V1.0.2/MSDK/wpa_supplicant/src/utils\common.c **** 			in_size--;
1125:C:/Users/stapi/OneDrive/Desktop/GD32VW553/V1_MQTT_OK/GD32VW55X_Wifi_BLE_SDK/GD32VW55x_RELEASE_V1.0.2/MSDK/wpa_supplicant/src/utils\common.c **** 			inp++;
1126:C:/Users/stapi/OneDrive/Desktop/GD32VW553/V1_MQTT_OK/GD32VW55X_Wifi_BLE_SDK/GD32VW55x_RELEASE_V1.0.2/MSDK/wpa_supplicant/src/utils\common.c **** 			/* fall through */
1127:C:/Users/stapi/OneDrive/Desktop/GD32VW553/V1_MQTT_OK/GD32VW55X_Wifi_BLE_SDK/GD32VW55x_RELEASE_V1.0.2/MSDK/wpa_supplicant/src/utils\common.c **** 
1128:C:/Users/stapi/OneDrive/Desktop/GD32VW553/V1_MQTT_OK/GD32VW55X_Wifi_BLE_SDK/GD32VW55x_RELEASE_V1.0.2/MSDK/wpa_supplicant/src/utils\common.c **** 		default:
1129:C:/Users/stapi/OneDrive/Desktop/GD32VW553/V1_MQTT_OK/GD32VW55X_Wifi_BLE_SDK/GD32VW55x_RELEASE_V1.0.2/MSDK/wpa_supplicant/src/utils\common.c **** 			*outp++ = *inp++;
1130:C:/Users/stapi/OneDrive/Desktop/GD32VW553/V1_MQTT_OK/GD32VW55X_Wifi_BLE_SDK/GD32VW55x_RELEASE_V1.0.2/MSDK/wpa_supplicant/src/utils\common.c **** 			res_size++;
1131:C:/Users/stapi/OneDrive/Desktop/GD32VW553/V1_MQTT_OK/GD32VW55X_Wifi_BLE_SDK/GD32VW55x_RELEASE_V1.0.2/MSDK/wpa_supplicant/src/utils\common.c **** 		}
1132:C:/Users/stapi/OneDrive/Desktop/GD32VW553/V1_MQTT_OK/GD32VW55X_Wifi_BLE_SDK/GD32VW55x_RELEASE_V1.0.2/MSDK/wpa_supplicant/src/utils\common.c **** 	}
1133:C:/Users/stapi/OneDrive/Desktop/GD32VW553/V1_MQTT_OK/GD32VW55X_Wifi_BLE_SDK/GD32VW55x_RELEASE_V1.0.2/MSDK/wpa_supplicant/src/utils\common.c **** 
1134:C:/Users/stapi/OneDrive/Desktop/GD32VW553/V1_MQTT_OK/GD32VW55X_Wifi_BLE_SDK/GD32VW55x_RELEASE_V1.0.2/MSDK/wpa_supplicant/src/utils\common.c **** 	/* NUL terminate if space allows */
1135:C:/Users/stapi/OneDrive/Desktop/GD32VW553/V1_MQTT_OK/GD32VW55X_Wifi_BLE_SDK/GD32VW55x_RELEASE_V1.0.2/MSDK/wpa_supplicant/src/utils\common.c **** 	if (res_size < out_size)
1136:C:/Users/stapi/OneDrive/Desktop/GD32VW553/V1_MQTT_OK/GD32VW55X_Wifi_BLE_SDK/GD32VW55x_RELEASE_V1.0.2/MSDK/wpa_supplicant/src/utils\common.c **** 		*outp = '\0';
1137:C:/Users/stapi/OneDrive/Desktop/GD32VW553/V1_MQTT_OK/GD32VW55X_Wifi_BLE_SDK/GD32VW55x_RELEASE_V1.0.2/MSDK/wpa_supplicant/src/utils\common.c **** 
1138:C:/Users/stapi/OneDrive/Desktop/GD32VW553/V1_MQTT_OK/GD32VW55X_Wifi_BLE_SDK/GD32VW55x_RELEASE_V1.0.2/MSDK/wpa_supplicant/src/utils\common.c **** 	return res_size;
1139:C:/Users/stapi/OneDrive/Desktop/GD32VW553/V1_MQTT_OK/GD32VW55X_Wifi_BLE_SDK/GD32VW55x_RELEASE_V1.0.2/MSDK/wpa_supplicant/src/utils\common.c **** }
 3537              		.loc 1 1139 1
 3538 0004 2E85     		mv	a0,a1
 3539              	.LVL407:
 3540 0006 8280     		ret
 3541              	.LVL408:
 3542              	.L380:
 3543              		.cfi_def_cfa_offset 16
 3544              		.cfi_offset 1, -4
 3545              		.cfi_offset 8, -8
 3546              		.cfi_offset 9, -12
 3547              		.cfi_offset 18, -16
1099:C:/Users/stapi/OneDrive/Desktop/GD32VW553/V1_MQTT_OK/GD32VW55X_Wifi_BLE_SDK/GD32VW55x_RELEASE_V1.0.2/MSDK/wpa_supplicant/src/utils\common.c **** 		return 0;
 3548              		.loc 1 1099 10
 3549 0008 8145     		li	a1,0
 3550              	.L379:
 3551              		.loc 1 1139 1
 3552 000a 2E85     		mv	a0,a1
 3553 000c 17030000 		tail	__riscv_restore_3
 3553      67000300 
 3554              		.cfi_restore 18
 3555              		.cfi_restore 9
 3556              		.cfi_restore 8
 3557              		.cfi_restore 1
 3558              		.cfi_def_cfa_offset 0
 3559              	.LVL409:
 3560              	.L378:
1095:C:/Users/stapi/OneDrive/Desktop/GD32VW553/V1_MQTT_OK/GD32VW55X_Wifi_BLE_SDK/GD32VW55x_RELEASE_V1.0.2/MSDK/wpa_supplicant/src/utils\common.c **** 	size_t res_size = 0;
 3561              		.loc 1 1095 1 discriminator 1
 3562 0014 17030000 		call	t0,__riscv_save_3
 3562      E7020300 
 3563              		.cfi_offset 18, -16
 3564              		.cfi_offset 9, -12
 3565              		.cfi_offset 8, -8
 3566              		.cfi_offset 1, -4
 3567              		.cfi_def_cfa_offset 16
 3568 001c B284     		mv	s1,a2
1098:C:/Users/stapi/OneDrive/Desktop/GD32VW553/V1_MQTT_OK/GD32VW55X_Wifi_BLE_SDK/GD32VW55x_RELEASE_V1.0.2/MSDK/wpa_supplicant/src/utils\common.c **** 		return 0;
 3569              		.loc 1 1098 11 discriminator 1
 3570 001e 6DD6     		beq	a2,zero,.L380
 3571              	.LVL410:
 3572 0020 2A84     		mv	s0,a0
 3573 0022 3689     		mv	s2,a3
1101:C:/Users/stapi/OneDrive/Desktop/GD32VW553/V1_MQTT_OK/GD32VW55X_Wifi_BLE_SDK/GD32VW55x_RELEASE_V1.0.2/MSDK/wpa_supplicant/src/utils\common.c **** 		in_size = os_strlen(inp);
 3574              		.loc 1 1101 2 is_stmt 1
1101:C:/Users/stapi/OneDrive/Desktop/GD32VW553/V1_MQTT_OK/GD32VW55X_Wifi_BLE_SDK/GD32VW55x_RELEASE_V1.0.2/MSDK/wpa_supplicant/src/utils\common.c **** 		in_size = os_strlen(inp);
 3575              		.loc 1 1101 5 is_stmt 0
 3576 0024 91E5     		bne	a1,zero,.L381
 3577              	.LVL411:
1102:C:/Users/stapi/OneDrive/Desktop/GD32VW553/V1_MQTT_OK/GD32VW55X_Wifi_BLE_SDK/GD32VW55x_RELEASE_V1.0.2/MSDK/wpa_supplicant/src/utils\common.c **** 
 3578              		.loc 1 1102 3 is_stmt 1
1102:C:/Users/stapi/OneDrive/Desktop/GD32VW553/V1_MQTT_OK/GD32VW55X_Wifi_BLE_SDK/GD32VW55x_RELEASE_V1.0.2/MSDK/wpa_supplicant/src/utils\common.c **** 
 3579              		.loc 1 1102 13 is_stmt 0
 3580 0026 97000000 		call	os_strlen
 3580      E7800000 
 3581              	.LVL412:
 3582 002e AA85     		mv	a1,a0
 3583              	.LVL413:
 3584              	.L381:
1105:C:/Users/stapi/OneDrive/Desktop/GD32VW553/V1_MQTT_OK/GD32VW55X_Wifi_BLE_SDK/GD32VW55x_RELEASE_V1.0.2/MSDK/wpa_supplicant/src/utils\common.c **** 		inp++;
 3585              		.loc 1 1105 2 is_stmt 1
1105:C:/Users/stapi/OneDrive/Desktop/GD32VW553/V1_MQTT_OK/GD32VW55X_Wifi_BLE_SDK/GD32VW55x_RELEASE_V1.0.2/MSDK/wpa_supplicant/src/utils\common.c **** 		inp++;
 3586              		.loc 1 1105 5 is_stmt 0
 3587 0030 93077002 		li	a5,39
 3588 0034 03070400 		lb	a4,0(s0)
 3589 0038 6315F700 		bne	a4,a5,.L382
1105:C:/Users/stapi/OneDrive/Desktop/GD32VW553/V1_MQTT_OK/GD32VW55X_Wifi_BLE_SDK/GD32VW55x_RELEASE_V1.0.2/MSDK/wpa_supplicant/src/utils\common.c **** 		inp++;
 3590              		.loc 1 1105 19 discriminator 1
 3591 003c 89CD     		beq	a1,zero,.L383
1106:C:/Users/stapi/OneDrive/Desktop/GD32VW553/V1_MQTT_OK/GD32VW55X_Wifi_BLE_SDK/GD32VW55x_RELEASE_V1.0.2/MSDK/wpa_supplicant/src/utils\common.c **** 		in_size--;
 3592              		.loc 1 1106 3 is_stmt 1
1106:C:/Users/stapi/OneDrive/Desktop/GD32VW553/V1_MQTT_OK/GD32VW55X_Wifi_BLE_SDK/GD32VW55x_RELEASE_V1.0.2/MSDK/wpa_supplicant/src/utils\common.c **** 		in_size--;
 3593              		.loc 1 1106 6 is_stmt 0
 3594 003e 0504     		addi	s0,s0,1
 3595              	.LVL414:
1107:C:/Users/stapi/OneDrive/Desktop/GD32VW553/V1_MQTT_OK/GD32VW55X_Wifi_BLE_SDK/GD32VW55x_RELEASE_V1.0.2/MSDK/wpa_supplicant/src/utils\common.c **** 	}
 3596              		.loc 1 1107 3 is_stmt 1
1107:C:/Users/stapi/OneDrive/Desktop/GD32VW553/V1_MQTT_OK/GD32VW55X_Wifi_BLE_SDK/GD32VW55x_RELEASE_V1.0.2/MSDK/wpa_supplicant/src/utils\common.c **** 	}
 3597              		.loc 1 1107 10 is_stmt 0
 3598 0040 FD15     		addi	a1,a1,-1
 3599              	.LVL415:
 3600              	.L382:
1095:C:/Users/stapi/OneDrive/Desktop/GD32VW553/V1_MQTT_OK/GD32VW55X_Wifi_BLE_SDK/GD32VW55x_RELEASE_V1.0.2/MSDK/wpa_supplicant/src/utils\common.c **** 	size_t res_size = 0;
 3601              		.loc 1 1095 1
 3602 0042 AE87     		mv	a5,a1
1115:C:/Users/stapi/OneDrive/Desktop/GD32VW553/V1_MQTT_OK/GD32VW55X_Wifi_BLE_SDK/GD32VW55x_RELEASE_V1.0.2/MSDK/wpa_supplicant/src/utils\common.c **** 		case '\'':
 3603              		.loc 1 1115 3
 3604 0044 13057002 		li	a0,39
1095:C:/Users/stapi/OneDrive/Desktop/GD32VW553/V1_MQTT_OK/GD32VW55X_Wifi_BLE_SDK/GD32VW55x_RELEASE_V1.0.2/MSDK/wpa_supplicant/src/utils\common.c **** 	size_t res_size = 0;
 3605              		.loc 1 1095 1
 3606 0048 8145     		li	a1,0
 3607              	.LVL416:
1115:C:/Users/stapi/OneDrive/Desktop/GD32VW553/V1_MQTT_OK/GD32VW55X_Wifi_BLE_SDK/GD32VW55x_RELEASE_V1.0.2/MSDK/wpa_supplicant/src/utils\common.c **** 		case '\'':
 3608              		.loc 1 1115 3
 3609 004a 1308C005 		li	a6,92
 3610              	.LVL417:
 3611              	.L384:
 3612 004e 3387B400 		add	a4,s1,a1
 3613              	.LVL418:
1110:C:/Users/stapi/OneDrive/Desktop/GD32VW553/V1_MQTT_OK/GD32VW55X_Wifi_BLE_SDK/GD32VW55x_RELEASE_V1.0.2/MSDK/wpa_supplicant/src/utils\common.c **** 		in_size--;
 3614              		.loc 1 1110 8 is_stmt 1
 3615 0052 99E7     		bne	a5,zero,.L388
 3616 0054 BA84     		mv	s1,a4
 3617              	.LVL419:
 3618              	.L383:
1135:C:/Users/stapi/OneDrive/Desktop/GD32VW553/V1_MQTT_OK/GD32VW55X_Wifi_BLE_SDK/GD32VW55x_RELEASE_V1.0.2/MSDK/wpa_supplicant/src/utils\common.c **** 		*outp = '\0';
 3619              		.loc 1 1135 2
1135:C:/Users/stapi/OneDrive/Desktop/GD32VW553/V1_MQTT_OK/GD32VW55X_Wifi_BLE_SDK/GD32VW55x_RELEASE_V1.0.2/MSDK/wpa_supplicant/src/utils\common.c **** 		*outp = '\0';
 3620              		.loc 1 1135 5 is_stmt 0
 3621 0056 E3FA25FB 		bleu	s2,a1,.L379
1136:C:/Users/stapi/OneDrive/Desktop/GD32VW553/V1_MQTT_OK/GD32VW55X_Wifi_BLE_SDK/GD32VW55x_RELEASE_V1.0.2/MSDK/wpa_supplicant/src/utils\common.c **** 
 3622              		.loc 1 1136 3 is_stmt 1
1136:C:/Users/stapi/OneDrive/Desktop/GD32VW553/V1_MQTT_OK/GD32VW55X_Wifi_BLE_SDK/GD32VW55x_RELEASE_V1.0.2/MSDK/wpa_supplicant/src/utils\common.c **** 
 3623              		.loc 1 1136 9 is_stmt 0
 3624 005a 23800400 		sb	zero,0(s1)
 3625 005e 75B7     		j	.L379
 3626              	.LVL420:
 3627              	.L388:
1111:C:/Users/stapi/OneDrive/Desktop/GD32VW553/V1_MQTT_OK/GD32VW55X_Wifi_BLE_SDK/GD32VW55x_RELEASE_V1.0.2/MSDK/wpa_supplicant/src/utils\common.c **** 		if (res_size >= out_size)
 3628              		.loc 1 1111 3 is_stmt 1
1111:C:/Users/stapi/OneDrive/Desktop/GD32VW553/V1_MQTT_OK/GD32VW55X_Wifi_BLE_SDK/GD32VW55x_RELEASE_V1.0.2/MSDK/wpa_supplicant/src/utils\common.c **** 		if (res_size >= out_size)
 3629              		.loc 1 1111 10 is_stmt 0
 3630 0060 9386F7FF 		addi	a3,a5,-1
 3631              	.LVL421:
1112:C:/Users/stapi/OneDrive/Desktop/GD32VW553/V1_MQTT_OK/GD32VW55X_Wifi_BLE_SDK/GD32VW55x_RELEASE_V1.0.2/MSDK/wpa_supplicant/src/utils\common.c **** 			return 0;
 3632              		.loc 1 1112 3 is_stmt 1
1112:C:/Users/stapi/OneDrive/Desktop/GD32VW553/V1_MQTT_OK/GD32VW55X_Wifi_BLE_SDK/GD32VW55x_RELEASE_V1.0.2/MSDK/wpa_supplicant/src/utils\common.c **** 			return 0;
 3633              		.loc 1 1112 6 is_stmt 0
 3634 0064 E38225FB 		beq	a1,s2,.L380
1115:C:/Users/stapi/OneDrive/Desktop/GD32VW553/V1_MQTT_OK/GD32VW55X_Wifi_BLE_SDK/GD32VW55x_RELEASE_V1.0.2/MSDK/wpa_supplicant/src/utils\common.c **** 		case '\'':
 3635              		.loc 1 1115 3 is_stmt 1
1115:C:/Users/stapi/OneDrive/Desktop/GD32VW553/V1_MQTT_OK/GD32VW55X_Wifi_BLE_SDK/GD32VW55x_RELEASE_V1.0.2/MSDK/wpa_supplicant/src/utils\common.c **** 		case '\'':
 3636              		.loc 1 1115 11 is_stmt 0
 3637 0068 03060400 		lb	a2,0(s0)
1115:C:/Users/stapi/OneDrive/Desktop/GD32VW553/V1_MQTT_OK/GD32VW55X_Wifi_BLE_SDK/GD32VW55x_RELEASE_V1.0.2/MSDK/wpa_supplicant/src/utils\common.c **** 		case '\'':
 3638              		.loc 1 1115 3
 3639 006c 630CA600 		beq	a2,a0,.L385
 3640 0070 630D0601 		beq	a2,a6,.L386
 3641              	.L387:
1129:C:/Users/stapi/OneDrive/Desktop/GD32VW553/V1_MQTT_OK/GD32VW55X_Wifi_BLE_SDK/GD32VW55x_RELEASE_V1.0.2/MSDK/wpa_supplicant/src/utils\common.c **** 			res_size++;
 3642              		.loc 1 1129 4 is_stmt 1
 3643              	.LVL422:
1129:C:/Users/stapi/OneDrive/Desktop/GD32VW553/V1_MQTT_OK/GD32VW55X_Wifi_BLE_SDK/GD32VW55x_RELEASE_V1.0.2/MSDK/wpa_supplicant/src/utils\common.c **** 			res_size++;
 3644              		.loc 1 1129 14 is_stmt 0
 3645 0074 83070400 		lb	a5,0(s0)
1130:C:/Users/stapi/OneDrive/Desktop/GD32VW553/V1_MQTT_OK/GD32VW55X_Wifi_BLE_SDK/GD32VW55x_RELEASE_V1.0.2/MSDK/wpa_supplicant/src/utils\common.c **** 		}
 3646              		.loc 1 1130 12
 3647 0078 8505     		addi	a1,a1,1
 3648              	.LVL423:
1129:C:/Users/stapi/OneDrive/Desktop/GD32VW553/V1_MQTT_OK/GD32VW55X_Wifi_BLE_SDK/GD32VW55x_RELEASE_V1.0.2/MSDK/wpa_supplicant/src/utils\common.c **** 			res_size++;
 3649              		.loc 1 1129 12
 3650 007a 2300F700 		sb	a5,0(a4)
1130:C:/Users/stapi/OneDrive/Desktop/GD32VW553/V1_MQTT_OK/GD32VW55X_Wifi_BLE_SDK/GD32VW55x_RELEASE_V1.0.2/MSDK/wpa_supplicant/src/utils\common.c **** 		}
 3651              		.loc 1 1130 4 is_stmt 1
 3652              	.LVL424:
1129:C:/Users/stapi/OneDrive/Desktop/GD32VW553/V1_MQTT_OK/GD32VW55X_Wifi_BLE_SDK/GD32VW55x_RELEASE_V1.0.2/MSDK/wpa_supplicant/src/utils\common.c **** 			res_size++;
 3653              		.loc 1 1129 18 is_stmt 0
 3654 007e 0504     		addi	s0,s0,1
 3655              	.LVL425:
1130:C:/Users/stapi/OneDrive/Desktop/GD32VW553/V1_MQTT_OK/GD32VW55X_Wifi_BLE_SDK/GD32VW55x_RELEASE_V1.0.2/MSDK/wpa_supplicant/src/utils\common.c **** 		}
 3656              		.loc 1 1130 12
 3657 0080 B687     		mv	a5,a3
 3658 0082 F1B7     		j	.L384
 3659              	.LVL426:
 3660              	.L385:
1118:C:/Users/stapi/OneDrive/Desktop/GD32VW553/V1_MQTT_OK/GD32VW55X_Wifi_BLE_SDK/GD32VW55x_RELEASE_V1.0.2/MSDK/wpa_supplicant/src/utils\common.c **** 			return res_size;
 3661              		.loc 1 1118 4 is_stmt 1
1118:C:/Users/stapi/OneDrive/Desktop/GD32VW553/V1_MQTT_OK/GD32VW55X_Wifi_BLE_SDK/GD32VW55x_RELEASE_V1.0.2/MSDK/wpa_supplicant/src/utils\common.c **** 			return res_size;
 3662              		.loc 1 1118 10 is_stmt 0
 3663 0084 23000700 		sb	zero,0(a4)
1119:C:/Users/stapi/OneDrive/Desktop/GD32VW553/V1_MQTT_OK/GD32VW55X_Wifi_BLE_SDK/GD32VW55x_RELEASE_V1.0.2/MSDK/wpa_supplicant/src/utils\common.c **** 
 3664              		.loc 1 1119 4 is_stmt 1
1119:C:/Users/stapi/OneDrive/Desktop/GD32VW553/V1_MQTT_OK/GD32VW55X_Wifi_BLE_SDK/GD32VW55x_RELEASE_V1.0.2/MSDK/wpa_supplicant/src/utils\common.c **** 
 3665              		.loc 1 1119 11 is_stmt 0
 3666 0088 49B7     		j	.L379
 3667              	.L386:
1122:C:/Users/stapi/OneDrive/Desktop/GD32VW553/V1_MQTT_OK/GD32VW55X_Wifi_BLE_SDK/GD32VW55x_RELEASE_V1.0.2/MSDK/wpa_supplicant/src/utils\common.c **** 				return 0;
 3668              		.loc 1 1122 4 is_stmt 1
1122:C:/Users/stapi/OneDrive/Desktop/GD32VW553/V1_MQTT_OK/GD32VW55X_Wifi_BLE_SDK/GD32VW55x_RELEASE_V1.0.2/MSDK/wpa_supplicant/src/utils\common.c **** 				return 0;
 3669              		.loc 1 1122 7 is_stmt 0
 3670 008a BDDE     		beq	a3,zero,.L380
1124:C:/Users/stapi/OneDrive/Desktop/GD32VW553/V1_MQTT_OK/GD32VW55X_Wifi_BLE_SDK/GD32VW55x_RELEASE_V1.0.2/MSDK/wpa_supplicant/src/utils\common.c **** 			inp++;
 3671              		.loc 1 1124 4 is_stmt 1
1124:C:/Users/stapi/OneDrive/Desktop/GD32VW553/V1_MQTT_OK/GD32VW55X_Wifi_BLE_SDK/GD32VW55x_RELEASE_V1.0.2/MSDK/wpa_supplicant/src/utils\common.c **** 			inp++;
 3672              		.loc 1 1124 11 is_stmt 0
 3673 008c 9386E7FF 		addi	a3,a5,-2
 3674              	.LVL427:
1125:C:/Users/stapi/OneDrive/Desktop/GD32VW553/V1_MQTT_OK/GD32VW55X_Wifi_BLE_SDK/GD32VW55x_RELEASE_V1.0.2/MSDK/wpa_supplicant/src/utils\common.c **** 			/* fall through */
 3675              		.loc 1 1125 4 is_stmt 1
1125:C:/Users/stapi/OneDrive/Desktop/GD32VW553/V1_MQTT_OK/GD32VW55X_Wifi_BLE_SDK/GD32VW55x_RELEASE_V1.0.2/MSDK/wpa_supplicant/src/utils\common.c **** 			/* fall through */
 3676              		.loc 1 1125 7 is_stmt 0
 3677 0090 0504     		addi	s0,s0,1
 3678              	.LVL428:
 3679 0092 CDB7     		j	.L387
 3680              		.cfi_endproc
 3681              	.LFE112:
 3683              		.section	.text.utf8_escape,"ax",@progbits
 3684              		.align	1
 3685              		.globl	utf8_escape
 3687              	utf8_escape:
 3688              	.LFB113:
1140:C:/Users/stapi/OneDrive/Desktop/GD32VW553/V1_MQTT_OK/GD32VW55X_Wifi_BLE_SDK/GD32VW55x_RELEASE_V1.0.2/MSDK/wpa_supplicant/src/utils\common.c **** 
1141:C:/Users/stapi/OneDrive/Desktop/GD32VW553/V1_MQTT_OK/GD32VW55X_Wifi_BLE_SDK/GD32VW55x_RELEASE_V1.0.2/MSDK/wpa_supplicant/src/utils\common.c **** 
1142:C:/Users/stapi/OneDrive/Desktop/GD32VW553/V1_MQTT_OK/GD32VW55X_Wifi_BLE_SDK/GD32VW55x_RELEASE_V1.0.2/MSDK/wpa_supplicant/src/utils\common.c **** size_t utf8_escape(const char *inp, size_t in_size,
1143:C:/Users/stapi/OneDrive/Desktop/GD32VW553/V1_MQTT_OK/GD32VW55X_Wifi_BLE_SDK/GD32VW55x_RELEASE_V1.0.2/MSDK/wpa_supplicant/src/utils\common.c **** 		   char *outp, size_t out_size)
1144:C:/Users/stapi/OneDrive/Desktop/GD32VW553/V1_MQTT_OK/GD32VW55X_Wifi_BLE_SDK/GD32VW55x_RELEASE_V1.0.2/MSDK/wpa_supplicant/src/utils\common.c **** {
 3689              		.loc 1 1144 1 is_stmt 1
 3690              		.cfi_startproc
 3691              	.LVL429:
1145:C:/Users/stapi/OneDrive/Desktop/GD32VW553/V1_MQTT_OK/GD32VW55X_Wifi_BLE_SDK/GD32VW55x_RELEASE_V1.0.2/MSDK/wpa_supplicant/src/utils\common.c **** 	size_t res_size = 0;
 3692              		.loc 1 1145 2
1146:C:/Users/stapi/OneDrive/Desktop/GD32VW553/V1_MQTT_OK/GD32VW55X_Wifi_BLE_SDK/GD32VW55x_RELEASE_V1.0.2/MSDK/wpa_supplicant/src/utils\common.c **** 
1147:C:/Users/stapi/OneDrive/Desktop/GD32VW553/V1_MQTT_OK/GD32VW55X_Wifi_BLE_SDK/GD32VW55x_RELEASE_V1.0.2/MSDK/wpa_supplicant/src/utils\common.c **** 	if (!inp || !outp)
 3693              		.loc 1 1147 2
 3694              		.loc 1 1147 5 is_stmt 0
 3695 0000 01E9     		bne	a0,zero,.L402
1148:C:/Users/stapi/OneDrive/Desktop/GD32VW553/V1_MQTT_OK/GD32VW55X_Wifi_BLE_SDK/GD32VW55x_RELEASE_V1.0.2/MSDK/wpa_supplicant/src/utils\common.c **** 		return 0;
 3696              		.loc 1 1148 10
 3697 0002 0145     		li	a0,0
 3698              	.LVL430:
1149:C:/Users/stapi/OneDrive/Desktop/GD32VW553/V1_MQTT_OK/GD32VW55X_Wifi_BLE_SDK/GD32VW55x_RELEASE_V1.0.2/MSDK/wpa_supplicant/src/utils\common.c **** 
1150:C:/Users/stapi/OneDrive/Desktop/GD32VW553/V1_MQTT_OK/GD32VW55X_Wifi_BLE_SDK/GD32VW55x_RELEASE_V1.0.2/MSDK/wpa_supplicant/src/utils\common.c **** 	/* inp may or may not be NUL terminated, but must be if 0 size
1151:C:/Users/stapi/OneDrive/Desktop/GD32VW553/V1_MQTT_OK/GD32VW55X_Wifi_BLE_SDK/GD32VW55x_RELEASE_V1.0.2/MSDK/wpa_supplicant/src/utils\common.c **** 	 * is specified */
1152:C:/Users/stapi/OneDrive/Desktop/GD32VW553/V1_MQTT_OK/GD32VW55X_Wifi_BLE_SDK/GD32VW55x_RELEASE_V1.0.2/MSDK/wpa_supplicant/src/utils\common.c **** 	if (!in_size)
1153:C:/Users/stapi/OneDrive/Desktop/GD32VW553/V1_MQTT_OK/GD32VW55X_Wifi_BLE_SDK/GD32VW55x_RELEASE_V1.0.2/MSDK/wpa_supplicant/src/utils\common.c **** 		in_size = os_strlen(inp);
1154:C:/Users/stapi/OneDrive/Desktop/GD32VW553/V1_MQTT_OK/GD32VW55X_Wifi_BLE_SDK/GD32VW55x_RELEASE_V1.0.2/MSDK/wpa_supplicant/src/utils\common.c **** 
1155:C:/Users/stapi/OneDrive/Desktop/GD32VW553/V1_MQTT_OK/GD32VW55X_Wifi_BLE_SDK/GD32VW55x_RELEASE_V1.0.2/MSDK/wpa_supplicant/src/utils\common.c **** 	while (in_size) {
1156:C:/Users/stapi/OneDrive/Desktop/GD32VW553/V1_MQTT_OK/GD32VW55X_Wifi_BLE_SDK/GD32VW55x_RELEASE_V1.0.2/MSDK/wpa_supplicant/src/utils\common.c **** 		in_size--;
1157:C:/Users/stapi/OneDrive/Desktop/GD32VW553/V1_MQTT_OK/GD32VW55X_Wifi_BLE_SDK/GD32VW55x_RELEASE_V1.0.2/MSDK/wpa_supplicant/src/utils\common.c **** 		if (res_size++ >= out_size)
1158:C:/Users/stapi/OneDrive/Desktop/GD32VW553/V1_MQTT_OK/GD32VW55X_Wifi_BLE_SDK/GD32VW55x_RELEASE_V1.0.2/MSDK/wpa_supplicant/src/utils\common.c **** 			return 0;
1159:C:/Users/stapi/OneDrive/Desktop/GD32VW553/V1_MQTT_OK/GD32VW55X_Wifi_BLE_SDK/GD32VW55x_RELEASE_V1.0.2/MSDK/wpa_supplicant/src/utils\common.c **** 
1160:C:/Users/stapi/OneDrive/Desktop/GD32VW553/V1_MQTT_OK/GD32VW55X_Wifi_BLE_SDK/GD32VW55x_RELEASE_V1.0.2/MSDK/wpa_supplicant/src/utils\common.c **** 		switch (*inp) {
1161:C:/Users/stapi/OneDrive/Desktop/GD32VW553/V1_MQTT_OK/GD32VW55X_Wifi_BLE_SDK/GD32VW55x_RELEASE_V1.0.2/MSDK/wpa_supplicant/src/utils\common.c **** 		case '\\':
1162:C:/Users/stapi/OneDrive/Desktop/GD32VW553/V1_MQTT_OK/GD32VW55X_Wifi_BLE_SDK/GD32VW55x_RELEASE_V1.0.2/MSDK/wpa_supplicant/src/utils\common.c **** 		case '\'':
1163:C:/Users/stapi/OneDrive/Desktop/GD32VW553/V1_MQTT_OK/GD32VW55X_Wifi_BLE_SDK/GD32VW55x_RELEASE_V1.0.2/MSDK/wpa_supplicant/src/utils\common.c **** 			if (res_size++ >= out_size)
1164:C:/Users/stapi/OneDrive/Desktop/GD32VW553/V1_MQTT_OK/GD32VW55X_Wifi_BLE_SDK/GD32VW55x_RELEASE_V1.0.2/MSDK/wpa_supplicant/src/utils\common.c **** 				return 0;
1165:C:/Users/stapi/OneDrive/Desktop/GD32VW553/V1_MQTT_OK/GD32VW55X_Wifi_BLE_SDK/GD32VW55x_RELEASE_V1.0.2/MSDK/wpa_supplicant/src/utils\common.c **** 			*outp++ = '\\';
1166:C:/Users/stapi/OneDrive/Desktop/GD32VW553/V1_MQTT_OK/GD32VW55X_Wifi_BLE_SDK/GD32VW55x_RELEASE_V1.0.2/MSDK/wpa_supplicant/src/utils\common.c **** 			/* fall through */
1167:C:/Users/stapi/OneDrive/Desktop/GD32VW553/V1_MQTT_OK/GD32VW55X_Wifi_BLE_SDK/GD32VW55x_RELEASE_V1.0.2/MSDK/wpa_supplicant/src/utils\common.c **** 
1168:C:/Users/stapi/OneDrive/Desktop/GD32VW553/V1_MQTT_OK/GD32VW55X_Wifi_BLE_SDK/GD32VW55x_RELEASE_V1.0.2/MSDK/wpa_supplicant/src/utils\common.c **** 		default:
1169:C:/Users/stapi/OneDrive/Desktop/GD32VW553/V1_MQTT_OK/GD32VW55X_Wifi_BLE_SDK/GD32VW55x_RELEASE_V1.0.2/MSDK/wpa_supplicant/src/utils\common.c **** 			*outp++ = *inp++;
1170:C:/Users/stapi/OneDrive/Desktop/GD32VW553/V1_MQTT_OK/GD32VW55X_Wifi_BLE_SDK/GD32VW55x_RELEASE_V1.0.2/MSDK/wpa_supplicant/src/utils\common.c **** 			break;
1171:C:/Users/stapi/OneDrive/Desktop/GD32VW553/V1_MQTT_OK/GD32VW55X_Wifi_BLE_SDK/GD32VW55x_RELEASE_V1.0.2/MSDK/wpa_supplicant/src/utils\common.c **** 		}
1172:C:/Users/stapi/OneDrive/Desktop/GD32VW553/V1_MQTT_OK/GD32VW55X_Wifi_BLE_SDK/GD32VW55x_RELEASE_V1.0.2/MSDK/wpa_supplicant/src/utils\common.c **** 	}
1173:C:/Users/stapi/OneDrive/Desktop/GD32VW553/V1_MQTT_OK/GD32VW55X_Wifi_BLE_SDK/GD32VW55x_RELEASE_V1.0.2/MSDK/wpa_supplicant/src/utils\common.c **** 
1174:C:/Users/stapi/OneDrive/Desktop/GD32VW553/V1_MQTT_OK/GD32VW55X_Wifi_BLE_SDK/GD32VW55x_RELEASE_V1.0.2/MSDK/wpa_supplicant/src/utils\common.c **** 	/* NUL terminate if space allows */
1175:C:/Users/stapi/OneDrive/Desktop/GD32VW553/V1_MQTT_OK/GD32VW55X_Wifi_BLE_SDK/GD32VW55x_RELEASE_V1.0.2/MSDK/wpa_supplicant/src/utils\common.c **** 	if (res_size < out_size)
1176:C:/Users/stapi/OneDrive/Desktop/GD32VW553/V1_MQTT_OK/GD32VW55X_Wifi_BLE_SDK/GD32VW55x_RELEASE_V1.0.2/MSDK/wpa_supplicant/src/utils\common.c **** 		*outp = '\0';
1177:C:/Users/stapi/OneDrive/Desktop/GD32VW553/V1_MQTT_OK/GD32VW55X_Wifi_BLE_SDK/GD32VW55x_RELEASE_V1.0.2/MSDK/wpa_supplicant/src/utils\common.c **** 
1178:C:/Users/stapi/OneDrive/Desktop/GD32VW553/V1_MQTT_OK/GD32VW55X_Wifi_BLE_SDK/GD32VW55x_RELEASE_V1.0.2/MSDK/wpa_supplicant/src/utils\common.c **** 	return res_size;
1179:C:/Users/stapi/OneDrive/Desktop/GD32VW553/V1_MQTT_OK/GD32VW55X_Wifi_BLE_SDK/GD32VW55x_RELEASE_V1.0.2/MSDK/wpa_supplicant/src/utils\common.c **** }
 3699              		.loc 1 1179 1
 3700 0004 8280     		ret
 3701              	.LVL431:
 3702              	.L404:
 3703              		.cfi_def_cfa_offset 16
 3704              		.cfi_offset 1, -4
 3705              		.cfi_offset 8, -8
 3706              		.cfi_offset 9, -12
 3707              		.cfi_offset 18, -16
1148:C:/Users/stapi/OneDrive/Desktop/GD32VW553/V1_MQTT_OK/GD32VW55X_Wifi_BLE_SDK/GD32VW55x_RELEASE_V1.0.2/MSDK/wpa_supplicant/src/utils\common.c **** 		return 0;
 3708              		.loc 1 1148 10
 3709 0006 0145     		li	a0,0
 3710              	.L401:
 3711              		.loc 1 1179 1
 3712 0008 17030000 		tail	__riscv_restore_3
 3712      67000300 
 3713              		.cfi_restore 18
 3714              		.cfi_restore 9
 3715              		.cfi_restore 8
 3716              		.cfi_restore 1
 3717              		.cfi_def_cfa_offset 0
 3718              	.LVL432:
 3719              	.L402:
1144:C:/Users/stapi/OneDrive/Desktop/GD32VW553/V1_MQTT_OK/GD32VW55X_Wifi_BLE_SDK/GD32VW55x_RELEASE_V1.0.2/MSDK/wpa_supplicant/src/utils\common.c **** 	size_t res_size = 0;
 3720              		.loc 1 1144 1 discriminator 1
 3721 0010 17030000 		call	t0,__riscv_save_3
 3721      E7020300 
 3722              		.cfi_offset 18, -16
 3723              		.cfi_offset 9, -12
 3724              		.cfi_offset 8, -8
 3725              		.cfi_offset 1, -4
 3726              		.cfi_def_cfa_offset 16
 3727 0018 3284     		mv	s0,a2
1147:C:/Users/stapi/OneDrive/Desktop/GD32VW553/V1_MQTT_OK/GD32VW55X_Wifi_BLE_SDK/GD32VW55x_RELEASE_V1.0.2/MSDK/wpa_supplicant/src/utils\common.c **** 		return 0;
 3728              		.loc 1 1147 11 discriminator 1
 3729 001a 75D6     		beq	a2,zero,.L404
 3730              	.LVL433:
 3731 001c AA84     		mv	s1,a0
 3732 001e 3689     		mv	s2,a3
1152:C:/Users/stapi/OneDrive/Desktop/GD32VW553/V1_MQTT_OK/GD32VW55X_Wifi_BLE_SDK/GD32VW55x_RELEASE_V1.0.2/MSDK/wpa_supplicant/src/utils\common.c **** 		in_size = os_strlen(inp);
 3733              		.loc 1 1152 2 is_stmt 1
1152:C:/Users/stapi/OneDrive/Desktop/GD32VW553/V1_MQTT_OK/GD32VW55X_Wifi_BLE_SDK/GD32VW55x_RELEASE_V1.0.2/MSDK/wpa_supplicant/src/utils\common.c **** 		in_size = os_strlen(inp);
 3734              		.loc 1 1152 5 is_stmt 0
 3735 0020 91E5     		bne	a1,zero,.L405
 3736              	.LVL434:
1153:C:/Users/stapi/OneDrive/Desktop/GD32VW553/V1_MQTT_OK/GD32VW55X_Wifi_BLE_SDK/GD32VW55x_RELEASE_V1.0.2/MSDK/wpa_supplicant/src/utils\common.c **** 
 3737              		.loc 1 1153 3 is_stmt 1
1153:C:/Users/stapi/OneDrive/Desktop/GD32VW553/V1_MQTT_OK/GD32VW55X_Wifi_BLE_SDK/GD32VW55x_RELEASE_V1.0.2/MSDK/wpa_supplicant/src/utils\common.c **** 
 3738              		.loc 1 1153 13 is_stmt 0
 3739 0022 97000000 		call	os_strlen
 3739      E7800000 
 3740              	.LVL435:
 3741 002a AA85     		mv	a1,a0
 3742              	.LVL436:
 3743              	.L405:
 3744 002c A695     		add	a1,s1,a1
1165:C:/Users/stapi/OneDrive/Desktop/GD32VW553/V1_MQTT_OK/GD32VW55X_Wifi_BLE_SDK/GD32VW55x_RELEASE_V1.0.2/MSDK/wpa_supplicant/src/utils\common.c **** 			/* fall through */
 3745              		.loc 1 1165 9
 3746 002e 0145     		li	a0,0
1160:C:/Users/stapi/OneDrive/Desktop/GD32VW553/V1_MQTT_OK/GD32VW55X_Wifi_BLE_SDK/GD32VW55x_RELEASE_V1.0.2/MSDK/wpa_supplicant/src/utils\common.c **** 		case '\\':
 3747              		.loc 1 1160 3
 3748 0030 13067002 		li	a2,39
1165:C:/Users/stapi/OneDrive/Desktop/GD32VW553/V1_MQTT_OK/GD32VW55X_Wifi_BLE_SDK/GD32VW55x_RELEASE_V1.0.2/MSDK/wpa_supplicant/src/utils\common.c **** 			/* fall through */
 3749              		.loc 1 1165 12
 3750 0034 1307C005 		li	a4,92
 3751              	.LVL437:
 3752              	.L406:
1155:C:/Users/stapi/OneDrive/Desktop/GD32VW553/V1_MQTT_OK/GD32VW55X_Wifi_BLE_SDK/GD32VW55x_RELEASE_V1.0.2/MSDK/wpa_supplicant/src/utils\common.c **** 		in_size--;
 3753              		.loc 1 1155 8 is_stmt 1
 3754 0038 6397B400 		bne	s1,a1,.L409
1175:C:/Users/stapi/OneDrive/Desktop/GD32VW553/V1_MQTT_OK/GD32VW55X_Wifi_BLE_SDK/GD32VW55x_RELEASE_V1.0.2/MSDK/wpa_supplicant/src/utils\common.c **** 		*outp = '\0';
 3755              		.loc 1 1175 2
1175:C:/Users/stapi/OneDrive/Desktop/GD32VW553/V1_MQTT_OK/GD32VW55X_Wifi_BLE_SDK/GD32VW55x_RELEASE_V1.0.2/MSDK/wpa_supplicant/src/utils\common.c **** 		*outp = '\0';
 3756              		.loc 1 1175 5 is_stmt 0
 3757 003c E37625FD 		bgeu	a0,s2,.L401
1176:C:/Users/stapi/OneDrive/Desktop/GD32VW553/V1_MQTT_OK/GD32VW55X_Wifi_BLE_SDK/GD32VW55x_RELEASE_V1.0.2/MSDK/wpa_supplicant/src/utils\common.c **** 
 3758              		.loc 1 1176 3 is_stmt 1
1176:C:/Users/stapi/OneDrive/Desktop/GD32VW553/V1_MQTT_OK/GD32VW55X_Wifi_BLE_SDK/GD32VW55x_RELEASE_V1.0.2/MSDK/wpa_supplicant/src/utils\common.c **** 
 3759              		.loc 1 1176 9 is_stmt 0
 3760 0040 23000400 		sb	zero,0(s0)
 3761 0044 D1B7     		j	.L401
 3762              	.L409:
1156:C:/Users/stapi/OneDrive/Desktop/GD32VW553/V1_MQTT_OK/GD32VW55X_Wifi_BLE_SDK/GD32VW55x_RELEASE_V1.0.2/MSDK/wpa_supplicant/src/utils\common.c **** 		if (res_size++ >= out_size)
 3763              		.loc 1 1156 3 is_stmt 1
1157:C:/Users/stapi/OneDrive/Desktop/GD32VW553/V1_MQTT_OK/GD32VW55X_Wifi_BLE_SDK/GD32VW55x_RELEASE_V1.0.2/MSDK/wpa_supplicant/src/utils\common.c **** 			return 0;
 3764              		.loc 1 1157 3
1157:C:/Users/stapi/OneDrive/Desktop/GD32VW553/V1_MQTT_OK/GD32VW55X_Wifi_BLE_SDK/GD32VW55x_RELEASE_V1.0.2/MSDK/wpa_supplicant/src/utils\common.c **** 			return 0;
 3765              		.loc 1 1157 15 is_stmt 0
 3766 0046 93071500 		addi	a5,a0,1
 3767              	.LVL438:
1157:C:/Users/stapi/OneDrive/Desktop/GD32VW553/V1_MQTT_OK/GD32VW55X_Wifi_BLE_SDK/GD32VW55x_RELEASE_V1.0.2/MSDK/wpa_supplicant/src/utils\common.c **** 			return 0;
 3768              		.loc 1 1157 6
 3769 004a E37E25FB 		bgeu	a0,s2,.L404
1160:C:/Users/stapi/OneDrive/Desktop/GD32VW553/V1_MQTT_OK/GD32VW55X_Wifi_BLE_SDK/GD32VW55x_RELEASE_V1.0.2/MSDK/wpa_supplicant/src/utils\common.c **** 		case '\\':
 3770              		.loc 1 1160 3 is_stmt 1
1160:C:/Users/stapi/OneDrive/Desktop/GD32VW553/V1_MQTT_OK/GD32VW55X_Wifi_BLE_SDK/GD32VW55x_RELEASE_V1.0.2/MSDK/wpa_supplicant/src/utils\common.c **** 		case '\\':
 3771              		.loc 1 1160 11 is_stmt 0
 3772 004e 83860400 		lb	a3,0(s1)
1160:C:/Users/stapi/OneDrive/Desktop/GD32VW553/V1_MQTT_OK/GD32VW55X_Wifi_BLE_SDK/GD32VW55x_RELEASE_V1.0.2/MSDK/wpa_supplicant/src/utils\common.c **** 		case '\\':
 3773              		.loc 1 1160 3
 3774 0052 6384C600 		beq	a3,a2,.L407
 3775 0056 6399E600 		bne	a3,a4,.L408
 3776              	.L407:
1163:C:/Users/stapi/OneDrive/Desktop/GD32VW553/V1_MQTT_OK/GD32VW55X_Wifi_BLE_SDK/GD32VW55x_RELEASE_V1.0.2/MSDK/wpa_supplicant/src/utils\common.c **** 				return 0;
 3777              		.loc 1 1163 4 is_stmt 1
1163:C:/Users/stapi/OneDrive/Desktop/GD32VW553/V1_MQTT_OK/GD32VW55X_Wifi_BLE_SDK/GD32VW55x_RELEASE_V1.0.2/MSDK/wpa_supplicant/src/utils\common.c **** 				return 0;
 3778              		.loc 1 1163 16 is_stmt 0
 3779 005a 0905     		addi	a0,a0,2
 3780              	.LVL439:
1163:C:/Users/stapi/OneDrive/Desktop/GD32VW553/V1_MQTT_OK/GD32VW55X_Wifi_BLE_SDK/GD32VW55x_RELEASE_V1.0.2/MSDK/wpa_supplicant/src/utils\common.c **** 				return 0;
 3781              		.loc 1 1163 7
 3782 005c E3F527FB 		bleu	s2,a5,.L404
1165:C:/Users/stapi/OneDrive/Desktop/GD32VW553/V1_MQTT_OK/GD32VW55X_Wifi_BLE_SDK/GD32VW55x_RELEASE_V1.0.2/MSDK/wpa_supplicant/src/utils\common.c **** 			/* fall through */
 3783              		.loc 1 1165 4 is_stmt 1
 3784              	.LVL440:
1165:C:/Users/stapi/OneDrive/Desktop/GD32VW553/V1_MQTT_OK/GD32VW55X_Wifi_BLE_SDK/GD32VW55x_RELEASE_V1.0.2/MSDK/wpa_supplicant/src/utils\common.c **** 			/* fall through */
 3785              		.loc 1 1165 12 is_stmt 0
 3786 0060 2300E400 		sb	a4,0(s0)
1163:C:/Users/stapi/OneDrive/Desktop/GD32VW553/V1_MQTT_OK/GD32VW55X_Wifi_BLE_SDK/GD32VW55x_RELEASE_V1.0.2/MSDK/wpa_supplicant/src/utils\common.c **** 				return 0;
 3787              		.loc 1 1163 16
 3788 0064 AA87     		mv	a5,a0
1165:C:/Users/stapi/OneDrive/Desktop/GD32VW553/V1_MQTT_OK/GD32VW55X_Wifi_BLE_SDK/GD32VW55x_RELEASE_V1.0.2/MSDK/wpa_supplicant/src/utils\common.c **** 			/* fall through */
 3789              		.loc 1 1165 9
 3790 0066 0504     		addi	s0,s0,1
 3791              	.LVL441:
 3792              	.L408:
1169:C:/Users/stapi/OneDrive/Desktop/GD32VW553/V1_MQTT_OK/GD32VW55X_Wifi_BLE_SDK/GD32VW55x_RELEASE_V1.0.2/MSDK/wpa_supplicant/src/utils\common.c **** 			break;
 3793              		.loc 1 1169 4 is_stmt 1
1169:C:/Users/stapi/OneDrive/Desktop/GD32VW553/V1_MQTT_OK/GD32VW55X_Wifi_BLE_SDK/GD32VW55x_RELEASE_V1.0.2/MSDK/wpa_supplicant/src/utils\common.c **** 			break;
 3794              		.loc 1 1169 18 is_stmt 0
 3795 0068 8504     		addi	s1,s1,1
 3796              	.LVL442:
1169:C:/Users/stapi/OneDrive/Desktop/GD32VW553/V1_MQTT_OK/GD32VW55X_Wifi_BLE_SDK/GD32VW55x_RELEASE_V1.0.2/MSDK/wpa_supplicant/src/utils\common.c **** 			break;
 3797              		.loc 1 1169 14
 3798 006a 8386F4FF 		lb	a3,-1(s1)
1170:C:/Users/stapi/OneDrive/Desktop/GD32VW553/V1_MQTT_OK/GD32VW55X_Wifi_BLE_SDK/GD32VW55x_RELEASE_V1.0.2/MSDK/wpa_supplicant/src/utils\common.c **** 		}
 3799              		.loc 1 1170 4
 3800 006e 3E85     		mv	a0,a5
1169:C:/Users/stapi/OneDrive/Desktop/GD32VW553/V1_MQTT_OK/GD32VW55X_Wifi_BLE_SDK/GD32VW55x_RELEASE_V1.0.2/MSDK/wpa_supplicant/src/utils\common.c **** 			break;
 3801              		.loc 1 1169 12
 3802 0070 2300D400 		sb	a3,0(s0)
1170:C:/Users/stapi/OneDrive/Desktop/GD32VW553/V1_MQTT_OK/GD32VW55X_Wifi_BLE_SDK/GD32VW55x_RELEASE_V1.0.2/MSDK/wpa_supplicant/src/utils\common.c **** 		}
 3803              		.loc 1 1170 4 is_stmt 1
1169:C:/Users/stapi/OneDrive/Desktop/GD32VW553/V1_MQTT_OK/GD32VW55X_Wifi_BLE_SDK/GD32VW55x_RELEASE_V1.0.2/MSDK/wpa_supplicant/src/utils\common.c **** 			break;
 3804              		.loc 1 1169 9 is_stmt 0
 3805 0074 0504     		addi	s0,s0,1
 3806              	.LVL443:
1170:C:/Users/stapi/OneDrive/Desktop/GD32VW553/V1_MQTT_OK/GD32VW55X_Wifi_BLE_SDK/GD32VW55x_RELEASE_V1.0.2/MSDK/wpa_supplicant/src/utils\common.c **** 		}
 3807              		.loc 1 1170 4
 3808 0076 C9B7     		j	.L406
 3809              		.cfi_endproc
 3810              	.LFE113:
 3812              		.section	.text.is_ctrl_char,"ax",@progbits
 3813              		.align	1
 3814              		.globl	is_ctrl_char
 3816              	is_ctrl_char:
 3817              	.LFB114:
1180:C:/Users/stapi/OneDrive/Desktop/GD32VW553/V1_MQTT_OK/GD32VW55X_Wifi_BLE_SDK/GD32VW55x_RELEASE_V1.0.2/MSDK/wpa_supplicant/src/utils\common.c **** 
1181:C:/Users/stapi/OneDrive/Desktop/GD32VW553/V1_MQTT_OK/GD32VW55X_Wifi_BLE_SDK/GD32VW55x_RELEASE_V1.0.2/MSDK/wpa_supplicant/src/utils\common.c **** 
1182:C:/Users/stapi/OneDrive/Desktop/GD32VW553/V1_MQTT_OK/GD32VW55X_Wifi_BLE_SDK/GD32VW55x_RELEASE_V1.0.2/MSDK/wpa_supplicant/src/utils\common.c **** int is_ctrl_char(char c)
1183:C:/Users/stapi/OneDrive/Desktop/GD32VW553/V1_MQTT_OK/GD32VW55X_Wifi_BLE_SDK/GD32VW55x_RELEASE_V1.0.2/MSDK/wpa_supplicant/src/utils\common.c **** {
 3818              		.loc 1 1183 1 is_stmt 1
 3819              		.cfi_startproc
 3820              	.LVL444:
1184:C:/Users/stapi/OneDrive/Desktop/GD32VW553/V1_MQTT_OK/GD32VW55X_Wifi_BLE_SDK/GD32VW55x_RELEASE_V1.0.2/MSDK/wpa_supplicant/src/utils\common.c **** 	return c > 0 && c < 32;
 3821              		.loc 1 1184 2
 3822              		.loc 1 1184 15 is_stmt 0
 3823 0000 7D15     		addi	a0,a0,-1
 3824              	.LVL445:
 3825 0002 1375F50F 		andi	a0,a0,0xff
1185:C:/Users/stapi/OneDrive/Desktop/GD32VW553/V1_MQTT_OK/GD32VW55X_Wifi_BLE_SDK/GD32VW55x_RELEASE_V1.0.2/MSDK/wpa_supplicant/src/utils\common.c **** }
 3826              		.loc 1 1185 1
 3827 0006 1335F501 		sltiu	a0,a0,31
 3828 000a 8280     		ret
 3829              		.cfi_endproc
 3830              	.LFE114:
 3832              		.section	.text.ssid_parse,"ax",@progbits
 3833              		.align	1
 3834              		.globl	ssid_parse
 3836              	ssid_parse:
 3837              	.LFB115:
1186:C:/Users/stapi/OneDrive/Desktop/GD32VW553/V1_MQTT_OK/GD32VW55X_Wifi_BLE_SDK/GD32VW55x_RELEASE_V1.0.2/MSDK/wpa_supplicant/src/utils\common.c **** 
1187:C:/Users/stapi/OneDrive/Desktop/GD32VW553/V1_MQTT_OK/GD32VW55X_Wifi_BLE_SDK/GD32VW55x_RELEASE_V1.0.2/MSDK/wpa_supplicant/src/utils\common.c **** 
1188:C:/Users/stapi/OneDrive/Desktop/GD32VW553/V1_MQTT_OK/GD32VW55X_Wifi_BLE_SDK/GD32VW55x_RELEASE_V1.0.2/MSDK/wpa_supplicant/src/utils\common.c **** /**
1189:C:/Users/stapi/OneDrive/Desktop/GD32VW553/V1_MQTT_OK/GD32VW55X_Wifi_BLE_SDK/GD32VW55x_RELEASE_V1.0.2/MSDK/wpa_supplicant/src/utils\common.c ****  * ssid_parse - Parse a string that contains SSID in hex or text format
1190:C:/Users/stapi/OneDrive/Desktop/GD32VW553/V1_MQTT_OK/GD32VW55X_Wifi_BLE_SDK/GD32VW55x_RELEASE_V1.0.2/MSDK/wpa_supplicant/src/utils\common.c ****  * @buf: Input NULL terminated string that contains the SSID
1191:C:/Users/stapi/OneDrive/Desktop/GD32VW553/V1_MQTT_OK/GD32VW55X_Wifi_BLE_SDK/GD32VW55x_RELEASE_V1.0.2/MSDK/wpa_supplicant/src/utils\common.c ****  * @ssid: Output SSID
1192:C:/Users/stapi/OneDrive/Desktop/GD32VW553/V1_MQTT_OK/GD32VW55X_Wifi_BLE_SDK/GD32VW55x_RELEASE_V1.0.2/MSDK/wpa_supplicant/src/utils\common.c ****  * Returns: 0 on success, -1 otherwise
1193:C:/Users/stapi/OneDrive/Desktop/GD32VW553/V1_MQTT_OK/GD32VW55X_Wifi_BLE_SDK/GD32VW55x_RELEASE_V1.0.2/MSDK/wpa_supplicant/src/utils\common.c ****  *
1194:C:/Users/stapi/OneDrive/Desktop/GD32VW553/V1_MQTT_OK/GD32VW55X_Wifi_BLE_SDK/GD32VW55x_RELEASE_V1.0.2/MSDK/wpa_supplicant/src/utils\common.c ****  * The SSID has to be enclosed in double quotes for the text format or space
1195:C:/Users/stapi/OneDrive/Desktop/GD32VW553/V1_MQTT_OK/GD32VW55X_Wifi_BLE_SDK/GD32VW55x_RELEASE_V1.0.2/MSDK/wpa_supplicant/src/utils\common.c ****  * or NULL terminated string of hex digits for the hex format. buf can include
1196:C:/Users/stapi/OneDrive/Desktop/GD32VW553/V1_MQTT_OK/GD32VW55X_Wifi_BLE_SDK/GD32VW55x_RELEASE_V1.0.2/MSDK/wpa_supplicant/src/utils\common.c ****  * additional arguments after the SSID.
1197:C:/Users/stapi/OneDrive/Desktop/GD32VW553/V1_MQTT_OK/GD32VW55X_Wifi_BLE_SDK/GD32VW55x_RELEASE_V1.0.2/MSDK/wpa_supplicant/src/utils\common.c ****  */
1198:C:/Users/stapi/OneDrive/Desktop/GD32VW553/V1_MQTT_OK/GD32VW55X_Wifi_BLE_SDK/GD32VW55x_RELEASE_V1.0.2/MSDK/wpa_supplicant/src/utils\common.c **** int ssid_parse(const char *buf, struct wpa_ssid_value *ssid)
1199:C:/Users/stapi/OneDrive/Desktop/GD32VW553/V1_MQTT_OK/GD32VW55X_Wifi_BLE_SDK/GD32VW55x_RELEASE_V1.0.2/MSDK/wpa_supplicant/src/utils\common.c **** {
 3838              		.loc 1 1199 1 is_stmt 1
 3839              		.cfi_startproc
 3840              	.LVL446:
 3841 0000 17030000 		call	t0,__riscv_save_3
 3841      E7020300 
 3842              		.cfi_offset 18, -16
 3843              		.cfi_offset 9, -12
 3844              		.cfi_offset 8, -8
 3845              		.cfi_offset 1, -4
 3846              		.cfi_def_cfa_offset 16
1200:C:/Users/stapi/OneDrive/Desktop/GD32VW553/V1_MQTT_OK/GD32VW55X_Wifi_BLE_SDK/GD32VW55x_RELEASE_V1.0.2/MSDK/wpa_supplicant/src/utils\common.c **** 	char *tmp, *res, *end;
 3847              		.loc 1 1200 2
1201:C:/Users/stapi/OneDrive/Desktop/GD32VW553/V1_MQTT_OK/GD32VW55X_Wifi_BLE_SDK/GD32VW55x_RELEASE_V1.0.2/MSDK/wpa_supplicant/src/utils\common.c **** 	size_t len;
 3848              		.loc 1 1201 2
1202:C:/Users/stapi/OneDrive/Desktop/GD32VW553/V1_MQTT_OK/GD32VW55X_Wifi_BLE_SDK/GD32VW55x_RELEASE_V1.0.2/MSDK/wpa_supplicant/src/utils\common.c **** 
1203:C:/Users/stapi/OneDrive/Desktop/GD32VW553/V1_MQTT_OK/GD32VW55X_Wifi_BLE_SDK/GD32VW55x_RELEASE_V1.0.2/MSDK/wpa_supplicant/src/utils\common.c **** 	ssid->ssid_len = 0;
 3849              		.loc 1 1203 2
1199:C:/Users/stapi/OneDrive/Desktop/GD32VW553/V1_MQTT_OK/GD32VW55X_Wifi_BLE_SDK/GD32VW55x_RELEASE_V1.0.2/MSDK/wpa_supplicant/src/utils\common.c **** 	char *tmp, *res, *end;
 3850              		.loc 1 1199 1 is_stmt 0
 3851 0008 4111     		addi	sp,sp,-16
 3852              		.cfi_def_cfa_offset 32
 3853              		.loc 1 1203 17
 3854 000a 23A00502 		sw	zero,32(a1)
1204:C:/Users/stapi/OneDrive/Desktop/GD32VW553/V1_MQTT_OK/GD32VW55X_Wifi_BLE_SDK/GD32VW55x_RELEASE_V1.0.2/MSDK/wpa_supplicant/src/utils\common.c **** 
1205:C:/Users/stapi/OneDrive/Desktop/GD32VW553/V1_MQTT_OK/GD32VW55X_Wifi_BLE_SDK/GD32VW55x_RELEASE_V1.0.2/MSDK/wpa_supplicant/src/utils\common.c **** 	tmp = os_strdup(buf);
 3855              		.loc 1 1205 2 is_stmt 1
1199:C:/Users/stapi/OneDrive/Desktop/GD32VW553/V1_MQTT_OK/GD32VW55X_Wifi_BLE_SDK/GD32VW55x_RELEASE_V1.0.2/MSDK/wpa_supplicant/src/utils\common.c **** 	char *tmp, *res, *end;
 3856              		.loc 1 1199 1 is_stmt 0
 3857 000e AE84     		mv	s1,a1
 3858              		.loc 1 1205 8
 3859 0010 97000000 		call	os_strdup
 3859      E7800000 
 3860              	.LVL447:
1206:C:/Users/stapi/OneDrive/Desktop/GD32VW553/V1_MQTT_OK/GD32VW55X_Wifi_BLE_SDK/GD32VW55x_RELEASE_V1.0.2/MSDK/wpa_supplicant/src/utils\common.c **** 	if (!tmp)
 3861              		.loc 1 1206 2 is_stmt 1
 3862              		.loc 1 1206 5 is_stmt 0
 3863 0018 51C5     		beq	a0,zero,.L423
1207:C:/Users/stapi/OneDrive/Desktop/GD32VW553/V1_MQTT_OK/GD32VW55X_Wifi_BLE_SDK/GD32VW55x_RELEASE_V1.0.2/MSDK/wpa_supplicant/src/utils\common.c **** 		return -1;
1208:C:/Users/stapi/OneDrive/Desktop/GD32VW553/V1_MQTT_OK/GD32VW55X_Wifi_BLE_SDK/GD32VW55x_RELEASE_V1.0.2/MSDK/wpa_supplicant/src/utils\common.c **** 
1209:C:/Users/stapi/OneDrive/Desktop/GD32VW553/V1_MQTT_OK/GD32VW55X_Wifi_BLE_SDK/GD32VW55x_RELEASE_V1.0.2/MSDK/wpa_supplicant/src/utils\common.c **** 	if (*tmp != '"') {
 3864              		.loc 1 1209 5
 3865 001a 93072002 		li	a5,34
 3866 001e 2A84     		mv	s0,a0
 3867              		.loc 1 1209 2 is_stmt 1
 3868              		.loc 1 1209 5 is_stmt 0
 3869 0020 03070500 		lb	a4,0(a0)
 3870 0024 6303F706 		beq	a4,a5,.L419
1210:C:/Users/stapi/OneDrive/Desktop/GD32VW553/V1_MQTT_OK/GD32VW55X_Wifi_BLE_SDK/GD32VW55x_RELEASE_V1.0.2/MSDK/wpa_supplicant/src/utils\common.c **** 		end = os_strchr(tmp, ' ');
 3871              		.loc 1 1210 3 is_stmt 1
 3872              		.loc 1 1210 9 is_stmt 0
 3873 0028 93050002 		li	a1,32
 3874 002c 97000000 		call	os_strchr
 3874      E7800000 
 3875              	.LVL448:
1211:C:/Users/stapi/OneDrive/Desktop/GD32VW553/V1_MQTT_OK/GD32VW55X_Wifi_BLE_SDK/GD32VW55x_RELEASE_V1.0.2/MSDK/wpa_supplicant/src/utils\common.c **** 		if (end)
 3876              		.loc 1 1211 3 is_stmt 1
 3877              		.loc 1 1211 6 is_stmt 0
 3878 0034 19C1     		beq	a0,zero,.L420
1212:C:/Users/stapi/OneDrive/Desktop/GD32VW553/V1_MQTT_OK/GD32VW55X_Wifi_BLE_SDK/GD32VW55x_RELEASE_V1.0.2/MSDK/wpa_supplicant/src/utils\common.c **** 			*end = '\0';
 3879              		.loc 1 1212 4 is_stmt 1
 3880              		.loc 1 1212 9 is_stmt 0
 3881 0036 23000500 		sb	zero,0(a0)
 3882              	.L420:
1213:C:/Users/stapi/OneDrive/Desktop/GD32VW553/V1_MQTT_OK/GD32VW55X_Wifi_BLE_SDK/GD32VW55x_RELEASE_V1.0.2/MSDK/wpa_supplicant/src/utils\common.c **** 	} else {
1214:C:/Users/stapi/OneDrive/Desktop/GD32VW553/V1_MQTT_OK/GD32VW55X_Wifi_BLE_SDK/GD32VW55x_RELEASE_V1.0.2/MSDK/wpa_supplicant/src/utils\common.c **** 		end = os_strchr(tmp + 1, '"');
1215:C:/Users/stapi/OneDrive/Desktop/GD32VW553/V1_MQTT_OK/GD32VW55X_Wifi_BLE_SDK/GD32VW55x_RELEASE_V1.0.2/MSDK/wpa_supplicant/src/utils\common.c **** 		if (!end) {
1216:C:/Users/stapi/OneDrive/Desktop/GD32VW553/V1_MQTT_OK/GD32VW55X_Wifi_BLE_SDK/GD32VW55x_RELEASE_V1.0.2/MSDK/wpa_supplicant/src/utils\common.c **** 			os_free(tmp);
1217:C:/Users/stapi/OneDrive/Desktop/GD32VW553/V1_MQTT_OK/GD32VW55X_Wifi_BLE_SDK/GD32VW55x_RELEASE_V1.0.2/MSDK/wpa_supplicant/src/utils\common.c **** 			return -1;
1218:C:/Users/stapi/OneDrive/Desktop/GD32VW553/V1_MQTT_OK/GD32VW55X_Wifi_BLE_SDK/GD32VW55x_RELEASE_V1.0.2/MSDK/wpa_supplicant/src/utils\common.c **** 		}
1219:C:/Users/stapi/OneDrive/Desktop/GD32VW553/V1_MQTT_OK/GD32VW55X_Wifi_BLE_SDK/GD32VW55x_RELEASE_V1.0.2/MSDK/wpa_supplicant/src/utils\common.c **** 
1220:C:/Users/stapi/OneDrive/Desktop/GD32VW553/V1_MQTT_OK/GD32VW55X_Wifi_BLE_SDK/GD32VW55x_RELEASE_V1.0.2/MSDK/wpa_supplicant/src/utils\common.c **** 		end[1] = '\0';
1221:C:/Users/stapi/OneDrive/Desktop/GD32VW553/V1_MQTT_OK/GD32VW55X_Wifi_BLE_SDK/GD32VW55x_RELEASE_V1.0.2/MSDK/wpa_supplicant/src/utils\common.c **** 	}
1222:C:/Users/stapi/OneDrive/Desktop/GD32VW553/V1_MQTT_OK/GD32VW55X_Wifi_BLE_SDK/GD32VW55x_RELEASE_V1.0.2/MSDK/wpa_supplicant/src/utils\common.c **** 
1223:C:/Users/stapi/OneDrive/Desktop/GD32VW553/V1_MQTT_OK/GD32VW55X_Wifi_BLE_SDK/GD32VW55x_RELEASE_V1.0.2/MSDK/wpa_supplicant/src/utils\common.c **** 	res = wpa_config_parse_string(tmp, &len);
 3883              		.loc 1 1223 2 is_stmt 1
 3884              		.loc 1 1223 8 is_stmt 0
 3885 003a 6C00     		addi	a1,sp,12
 3886 003c 2285     		mv	a0,s0
 3887              	.LVL449:
 3888 003e 97000000 		call	wpa_config_parse_string
 3888      E7800000 
 3889              	.LVL450:
 3890 0046 2A89     		mv	s2,a0
 3891              	.LVL451:
1224:C:/Users/stapi/OneDrive/Desktop/GD32VW553/V1_MQTT_OK/GD32VW55X_Wifi_BLE_SDK/GD32VW55x_RELEASE_V1.0.2/MSDK/wpa_supplicant/src/utils\common.c **** 	if (res && len <= SSID_MAX_LEN) {
 3892              		.loc 1 1224 2 is_stmt 1
 3893              		.loc 1 1224 5 is_stmt 0
 3894 0048 09CD     		beq	a0,zero,.L422
 3895              		.loc 1 1224 17 discriminator 1
 3896 004a 3246     		lw	a2,12(sp)
 3897              		.loc 1 1224 10 discriminator 1
 3898 004c 93070002 		li	a5,32
 3899 0050 63E9C700 		bgtu	a2,a5,.L422
1225:C:/Users/stapi/OneDrive/Desktop/GD32VW553/V1_MQTT_OK/GD32VW55X_Wifi_BLE_SDK/GD32VW55x_RELEASE_V1.0.2/MSDK/wpa_supplicant/src/utils\common.c **** 		ssid->ssid_len = len;
 3900              		.loc 1 1225 3 is_stmt 1
1226:C:/Users/stapi/OneDrive/Desktop/GD32VW553/V1_MQTT_OK/GD32VW55X_Wifi_BLE_SDK/GD32VW55x_RELEASE_V1.0.2/MSDK/wpa_supplicant/src/utils\common.c **** 		os_memcpy(ssid->ssid, res, len);
 3901              		.loc 1 1226 3 is_stmt 0
 3902 0054 AA85     		mv	a1,a0
1225:C:/Users/stapi/OneDrive/Desktop/GD32VW553/V1_MQTT_OK/GD32VW55X_Wifi_BLE_SDK/GD32VW55x_RELEASE_V1.0.2/MSDK/wpa_supplicant/src/utils\common.c **** 		ssid->ssid_len = len;
 3903              		.loc 1 1225 18
 3904 0056 90D0     		sw	a2,32(s1)
 3905              		.loc 1 1226 3 is_stmt 1
 3906 0058 2685     		mv	a0,s1
 3907              	.LVL452:
 3908 005a 97000000 		call	os_memcpy
 3908      E7800000 
 3909              	.LVL453:
 3910              	.L422:
1227:C:/Users/stapi/OneDrive/Desktop/GD32VW553/V1_MQTT_OK/GD32VW55X_Wifi_BLE_SDK/GD32VW55x_RELEASE_V1.0.2/MSDK/wpa_supplicant/src/utils\common.c **** 	}
1228:C:/Users/stapi/OneDrive/Desktop/GD32VW553/V1_MQTT_OK/GD32VW55X_Wifi_BLE_SDK/GD32VW55x_RELEASE_V1.0.2/MSDK/wpa_supplicant/src/utils\common.c **** 
1229:C:/Users/stapi/OneDrive/Desktop/GD32VW553/V1_MQTT_OK/GD32VW55X_Wifi_BLE_SDK/GD32VW55x_RELEASE_V1.0.2/MSDK/wpa_supplicant/src/utils\common.c **** 	os_free(tmp);
 3911              		.loc 1 1229 2
 3912 0062 2285     		mv	a0,s0
 3913 0064 97000000 		call	os_free
 3913      E7800000 
 3914              	.LVL454:
1230:C:/Users/stapi/OneDrive/Desktop/GD32VW553/V1_MQTT_OK/GD32VW55X_Wifi_BLE_SDK/GD32VW55x_RELEASE_V1.0.2/MSDK/wpa_supplicant/src/utils\common.c **** 	os_free(res);
 3915              		.loc 1 1230 2
 3916 006c 4A85     		mv	a0,s2
 3917 006e 97000000 		call	os_free
 3917      E7800000 
 3918              	.LVL455:
1231:C:/Users/stapi/OneDrive/Desktop/GD32VW553/V1_MQTT_OK/GD32VW55X_Wifi_BLE_SDK/GD32VW55x_RELEASE_V1.0.2/MSDK/wpa_supplicant/src/utils\common.c **** 
1232:C:/Users/stapi/OneDrive/Desktop/GD32VW553/V1_MQTT_OK/GD32VW55X_Wifi_BLE_SDK/GD32VW55x_RELEASE_V1.0.2/MSDK/wpa_supplicant/src/utils\common.c **** 	return ssid->ssid_len ? 0 : -1;
 3919              		.loc 1 1232 2
 3920              		.loc 1 1232 28 is_stmt 0
 3921 0076 8850     		lw	a0,32(s1)
 3922 0078 13351500 		seqz	a0,a0
 3923 007c 3305A040 		neg	a0,a0
 3924              	.LVL456:
 3925              	.L417:
1233:C:/Users/stapi/OneDrive/Desktop/GD32VW553/V1_MQTT_OK/GD32VW55X_Wifi_BLE_SDK/GD32VW55x_RELEASE_V1.0.2/MSDK/wpa_supplicant/src/utils\common.c **** }
 3926              		.loc 1 1233 1
 3927 0080 4101     		addi	sp,sp,16
 3928              		.cfi_remember_state
 3929              		.cfi_def_cfa_offset 0
 3930 0082 17030000 		tail	__riscv_restore_3
 3930      67000300 
 3931              		.cfi_restore 18
 3932              		.cfi_restore 9
 3933              		.cfi_restore 8
 3934              		.cfi_restore 1
 3935              		.cfi_def_cfa_offset -16
 3936              	.LVL457:
 3937              	.L419:
 3938              		.cfi_restore_state
1214:C:/Users/stapi/OneDrive/Desktop/GD32VW553/V1_MQTT_OK/GD32VW55X_Wifi_BLE_SDK/GD32VW55x_RELEASE_V1.0.2/MSDK/wpa_supplicant/src/utils\common.c **** 		if (!end) {
 3939              		.loc 1 1214 3 is_stmt 1
1214:C:/Users/stapi/OneDrive/Desktop/GD32VW553/V1_MQTT_OK/GD32VW55X_Wifi_BLE_SDK/GD32VW55x_RELEASE_V1.0.2/MSDK/wpa_supplicant/src/utils\common.c **** 		if (!end) {
 3940              		.loc 1 1214 9 is_stmt 0
 3941 008a 93052002 		li	a1,34
 3942 008e 0505     		addi	a0,a0,1
 3943 0090 97000000 		call	os_strchr
 3943      E7800000 
 3944              	.LVL458:
1215:C:/Users/stapi/OneDrive/Desktop/GD32VW553/V1_MQTT_OK/GD32VW55X_Wifi_BLE_SDK/GD32VW55x_RELEASE_V1.0.2/MSDK/wpa_supplicant/src/utils\common.c **** 			os_free(tmp);
 3945              		.loc 1 1215 3 is_stmt 1
1215:C:/Users/stapi/OneDrive/Desktop/GD32VW553/V1_MQTT_OK/GD32VW55X_Wifi_BLE_SDK/GD32VW55x_RELEASE_V1.0.2/MSDK/wpa_supplicant/src/utils\common.c **** 			os_free(tmp);
 3946              		.loc 1 1215 6 is_stmt 0
 3947 0098 01E9     		bne	a0,zero,.L421
1216:C:/Users/stapi/OneDrive/Desktop/GD32VW553/V1_MQTT_OK/GD32VW55X_Wifi_BLE_SDK/GD32VW55x_RELEASE_V1.0.2/MSDK/wpa_supplicant/src/utils\common.c **** 			return -1;
 3948              		.loc 1 1216 4 is_stmt 1
 3949 009a 2285     		mv	a0,s0
 3950              	.LVL459:
 3951 009c 97000000 		call	os_free
 3951      E7800000 
 3952              	.LVL460:
1217:C:/Users/stapi/OneDrive/Desktop/GD32VW553/V1_MQTT_OK/GD32VW55X_Wifi_BLE_SDK/GD32VW55x_RELEASE_V1.0.2/MSDK/wpa_supplicant/src/utils\common.c **** 		}
 3953              		.loc 1 1217 4
 3954              	.L423:
1207:C:/Users/stapi/OneDrive/Desktop/GD32VW553/V1_MQTT_OK/GD32VW55X_Wifi_BLE_SDK/GD32VW55x_RELEASE_V1.0.2/MSDK/wpa_supplicant/src/utils\common.c **** 
 3955              		.loc 1 1207 10 is_stmt 0
 3956 00a4 7D55     		li	a0,-1
 3957 00a6 E9BF     		j	.L417
 3958              	.LVL461:
 3959              	.L421:
1220:C:/Users/stapi/OneDrive/Desktop/GD32VW553/V1_MQTT_OK/GD32VW55X_Wifi_BLE_SDK/GD32VW55x_RELEASE_V1.0.2/MSDK/wpa_supplicant/src/utils\common.c **** 	}
 3960              		.loc 1 1220 3 is_stmt 1
1220:C:/Users/stapi/OneDrive/Desktop/GD32VW553/V1_MQTT_OK/GD32VW55X_Wifi_BLE_SDK/GD32VW55x_RELEASE_V1.0.2/MSDK/wpa_supplicant/src/utils\common.c **** 	}
 3961              		.loc 1 1220 10 is_stmt 0
 3962 00a8 A3000500 		sb	zero,1(a0)
 3963 00ac 79B7     		j	.L420
 3964              		.cfi_endproc
 3965              	.LFE115:
 3967              		.section	.text.str_starts,"ax",@progbits
 3968              		.align	1
 3969              		.globl	str_starts
 3971              	str_starts:
 3972              	.LFB116:
1234:C:/Users/stapi/OneDrive/Desktop/GD32VW553/V1_MQTT_OK/GD32VW55X_Wifi_BLE_SDK/GD32VW55x_RELEASE_V1.0.2/MSDK/wpa_supplicant/src/utils\common.c **** 
1235:C:/Users/stapi/OneDrive/Desktop/GD32VW553/V1_MQTT_OK/GD32VW55X_Wifi_BLE_SDK/GD32VW55x_RELEASE_V1.0.2/MSDK/wpa_supplicant/src/utils\common.c **** 
1236:C:/Users/stapi/OneDrive/Desktop/GD32VW553/V1_MQTT_OK/GD32VW55X_Wifi_BLE_SDK/GD32VW55x_RELEASE_V1.0.2/MSDK/wpa_supplicant/src/utils\common.c **** int str_starts(const char *str, const char *start)
1237:C:/Users/stapi/OneDrive/Desktop/GD32VW553/V1_MQTT_OK/GD32VW55X_Wifi_BLE_SDK/GD32VW55x_RELEASE_V1.0.2/MSDK/wpa_supplicant/src/utils\common.c **** {
 3973              		.loc 1 1237 1 is_stmt 1
 3974              		.cfi_startproc
 3975              	.LVL462:
 3976 0000 17030000 		call	t0,__riscv_save_1
 3976      E7020300 
 3977              		.cfi_offset 8, -8
 3978              		.cfi_offset 1, -4
 3979              		.cfi_def_cfa_offset 16
1238:C:/Users/stapi/OneDrive/Desktop/GD32VW553/V1_MQTT_OK/GD32VW55X_Wifi_BLE_SDK/GD32VW55x_RELEASE_V1.0.2/MSDK/wpa_supplicant/src/utils\common.c **** 	return os_strncmp(str, start, os_strlen(start)) == 0;
 3980              		.loc 1 1238 2
1237:C:/Users/stapi/OneDrive/Desktop/GD32VW553/V1_MQTT_OK/GD32VW55X_Wifi_BLE_SDK/GD32VW55x_RELEASE_V1.0.2/MSDK/wpa_supplicant/src/utils\common.c **** 	return os_strncmp(str, start, os_strlen(start)) == 0;
 3981              		.loc 1 1237 1 is_stmt 0
 3982 0008 4111     		addi	sp,sp,-16
 3983              		.cfi_def_cfa_offset 32
1237:C:/Users/stapi/OneDrive/Desktop/GD32VW553/V1_MQTT_OK/GD32VW55X_Wifi_BLE_SDK/GD32VW55x_RELEASE_V1.0.2/MSDK/wpa_supplicant/src/utils\common.c **** 	return os_strncmp(str, start, os_strlen(start)) == 0;
 3984              		.loc 1 1237 1
 3985 000a 2A84     		mv	s0,a0
 3986              		.loc 1 1238 9
 3987 000c 2E85     		mv	a0,a1
 3988              	.LVL463:
 3989 000e 2EC6     		sw	a1,12(sp)
 3990 0010 97000000 		call	os_strlen
 3990      E7800000 
 3991              	.LVL464:
 3992 0018 B245     		lw	a1,12(sp)
 3993 001a 2A86     		mv	a2,a0
 3994 001c 2285     		mv	a0,s0
 3995 001e 97000000 		call	os_strncmp
 3995      E7800000 
 3996              	.LVL465:
1239:C:/Users/stapi/OneDrive/Desktop/GD32VW553/V1_MQTT_OK/GD32VW55X_Wifi_BLE_SDK/GD32VW55x_RELEASE_V1.0.2/MSDK/wpa_supplicant/src/utils\common.c **** }
 3997              		.loc 1 1239 1
 3998 0026 13351500 		seqz	a0,a0
 3999 002a 4101     		addi	sp,sp,16
 4000              		.cfi_def_cfa_offset 0
 4001              	.LVL466:
 4002 002c 17030000 		tail	__riscv_restore_1
 4002      67000300 
 4003              		.cfi_restore 8
 4004              		.cfi_restore 1
 4005              		.cfi_def_cfa_offset -16
 4006              		.cfi_endproc
 4007              	.LFE116:
 4009              		.section	.text.rssi_to_rcpi,"ax",@progbits
 4010              		.align	1
 4011              		.globl	rssi_to_rcpi
 4013              	rssi_to_rcpi:
 4014              	.LFB117:
1240:C:/Users/stapi/OneDrive/Desktop/GD32VW553/V1_MQTT_OK/GD32VW55X_Wifi_BLE_SDK/GD32VW55x_RELEASE_V1.0.2/MSDK/wpa_supplicant/src/utils\common.c **** 
1241:C:/Users/stapi/OneDrive/Desktop/GD32VW553/V1_MQTT_OK/GD32VW55X_Wifi_BLE_SDK/GD32VW55x_RELEASE_V1.0.2/MSDK/wpa_supplicant/src/utils\common.c **** 
1242:C:/Users/stapi/OneDrive/Desktop/GD32VW553/V1_MQTT_OK/GD32VW55X_Wifi_BLE_SDK/GD32VW55x_RELEASE_V1.0.2/MSDK/wpa_supplicant/src/utils\common.c **** /**
1243:C:/Users/stapi/OneDrive/Desktop/GD32VW553/V1_MQTT_OK/GD32VW55X_Wifi_BLE_SDK/GD32VW55x_RELEASE_V1.0.2/MSDK/wpa_supplicant/src/utils\common.c ****  * rssi_to_rcpi - Convert RSSI to RCPI
1244:C:/Users/stapi/OneDrive/Desktop/GD32VW553/V1_MQTT_OK/GD32VW55X_Wifi_BLE_SDK/GD32VW55x_RELEASE_V1.0.2/MSDK/wpa_supplicant/src/utils\common.c ****  * @rssi: RSSI to convert
1245:C:/Users/stapi/OneDrive/Desktop/GD32VW553/V1_MQTT_OK/GD32VW55X_Wifi_BLE_SDK/GD32VW55x_RELEASE_V1.0.2/MSDK/wpa_supplicant/src/utils\common.c ****  * Returns: RCPI corresponding to the given RSSI value, or 255 if not available.
1246:C:/Users/stapi/OneDrive/Desktop/GD32VW553/V1_MQTT_OK/GD32VW55X_Wifi_BLE_SDK/GD32VW55x_RELEASE_V1.0.2/MSDK/wpa_supplicant/src/utils\common.c ****  *
1247:C:/Users/stapi/OneDrive/Desktop/GD32VW553/V1_MQTT_OK/GD32VW55X_Wifi_BLE_SDK/GD32VW55x_RELEASE_V1.0.2/MSDK/wpa_supplicant/src/utils\common.c ****  * It's possible to estimate RCPI based on RSSI in dBm. This calculation will
1248:C:/Users/stapi/OneDrive/Desktop/GD32VW553/V1_MQTT_OK/GD32VW55X_Wifi_BLE_SDK/GD32VW55x_RELEASE_V1.0.2/MSDK/wpa_supplicant/src/utils\common.c ****  * not reflect the correct value for high rates, but it's good enough for Action
1249:C:/Users/stapi/OneDrive/Desktop/GD32VW553/V1_MQTT_OK/GD32VW55X_Wifi_BLE_SDK/GD32VW55x_RELEASE_V1.0.2/MSDK/wpa_supplicant/src/utils\common.c ****  * frames which are transmitted with up to 24 Mbps rates.
1250:C:/Users/stapi/OneDrive/Desktop/GD32VW553/V1_MQTT_OK/GD32VW55X_Wifi_BLE_SDK/GD32VW55x_RELEASE_V1.0.2/MSDK/wpa_supplicant/src/utils\common.c ****  */
1251:C:/Users/stapi/OneDrive/Desktop/GD32VW553/V1_MQTT_OK/GD32VW55X_Wifi_BLE_SDK/GD32VW55x_RELEASE_V1.0.2/MSDK/wpa_supplicant/src/utils\common.c **** u8 rssi_to_rcpi(int rssi)
1252:C:/Users/stapi/OneDrive/Desktop/GD32VW553/V1_MQTT_OK/GD32VW55X_Wifi_BLE_SDK/GD32VW55x_RELEASE_V1.0.2/MSDK/wpa_supplicant/src/utils\common.c **** {
 4015              		.loc 1 1252 1 is_stmt 1
 4016              		.cfi_startproc
 4017              	.LVL467:
1253:C:/Users/stapi/OneDrive/Desktop/GD32VW553/V1_MQTT_OK/GD32VW55X_Wifi_BLE_SDK/GD32VW55x_RELEASE_V1.0.2/MSDK/wpa_supplicant/src/utils\common.c **** 	if (!rssi)
 4018              		.loc 1 1253 2
1252:C:/Users/stapi/OneDrive/Desktop/GD32VW553/V1_MQTT_OK/GD32VW55X_Wifi_BLE_SDK/GD32VW55x_RELEASE_V1.0.2/MSDK/wpa_supplicant/src/utils\common.c **** 	if (!rssi)
 4019              		.loc 1 1252 1 is_stmt 0
 4020 0000 AA87     		mv	a5,a0
 4021              		.loc 1 1253 5
 4022 0002 05C1     		beq	a0,zero,.L435
1254:C:/Users/stapi/OneDrive/Desktop/GD32VW553/V1_MQTT_OK/GD32VW55X_Wifi_BLE_SDK/GD32VW55x_RELEASE_V1.0.2/MSDK/wpa_supplicant/src/utils\common.c **** 		return 255; /* not available */
1255:C:/Users/stapi/OneDrive/Desktop/GD32VW553/V1_MQTT_OK/GD32VW55X_Wifi_BLE_SDK/GD32VW55x_RELEASE_V1.0.2/MSDK/wpa_supplicant/src/utils\common.c **** 	if (rssi < -110)
 4023              		.loc 1 1255 2 is_stmt 1
 4024              		.loc 1 1255 5 is_stmt 0
 4025 0004 130720F9 		li	a4,-110
1256:C:/Users/stapi/OneDrive/Desktop/GD32VW553/V1_MQTT_OK/GD32VW55X_Wifi_BLE_SDK/GD32VW55x_RELEASE_V1.0.2/MSDK/wpa_supplicant/src/utils\common.c **** 		return 0;
 4026              		.loc 1 1256 10
 4027 0008 0145     		li	a0,0
 4028              	.LVL468:
1255:C:/Users/stapi/OneDrive/Desktop/GD32VW553/V1_MQTT_OK/GD32VW55X_Wifi_BLE_SDK/GD32VW55x_RELEASE_V1.0.2/MSDK/wpa_supplicant/src/utils\common.c **** 		return 0;
 4029              		.loc 1 1255 5
 4030 000a 63CEE700 		blt	a5,a4,.L434
1257:C:/Users/stapi/OneDrive/Desktop/GD32VW553/V1_MQTT_OK/GD32VW55X_Wifi_BLE_SDK/GD32VW55x_RELEASE_V1.0.2/MSDK/wpa_supplicant/src/utils\common.c **** 	if (rssi > 0)
 4031              		.loc 1 1257 2 is_stmt 1
1258:C:/Users/stapi/OneDrive/Desktop/GD32VW553/V1_MQTT_OK/GD32VW55X_Wifi_BLE_SDK/GD32VW55x_RELEASE_V1.0.2/MSDK/wpa_supplicant/src/utils\common.c **** 		return 220;
 4032              		.loc 1 1258 10 is_stmt 0
 4033 000e 1305C00D 		li	a0,220
1257:C:/Users/stapi/OneDrive/Desktop/GD32VW553/V1_MQTT_OK/GD32VW55X_Wifi_BLE_SDK/GD32VW55x_RELEASE_V1.0.2/MSDK/wpa_supplicant/src/utils\common.c **** 	if (rssi > 0)
 4034              		.loc 1 1257 5
 4035 0012 634AF000 		bgt	a5,zero,.L434
1259:C:/Users/stapi/OneDrive/Desktop/GD32VW553/V1_MQTT_OK/GD32VW55X_Wifi_BLE_SDK/GD32VW55x_RELEASE_V1.0.2/MSDK/wpa_supplicant/src/utils\common.c **** 	return (rssi + 110) * 2;
 4036              		.loc 1 1259 2 is_stmt 1
 4037              		.loc 1 1259 15 is_stmt 0
 4038 0016 1385E706 		addi	a0,a5,110
 4039              		.loc 1 1259 22
 4040 001a 0605     		slli	a0,a0,1
 4041 001c 1375F50F 		andi	a0,a0,0xff
 4042 0020 8280     		ret
 4043              	.LVL469:
 4044              	.L435:
1254:C:/Users/stapi/OneDrive/Desktop/GD32VW553/V1_MQTT_OK/GD32VW55X_Wifi_BLE_SDK/GD32VW55x_RELEASE_V1.0.2/MSDK/wpa_supplicant/src/utils\common.c **** 	if (rssi < -110)
 4045              		.loc 1 1254 10
 4046 0022 1305F00F 		li	a0,255
 4047              	.LVL470:
 4048              	.L434:
1260:C:/Users/stapi/OneDrive/Desktop/GD32VW553/V1_MQTT_OK/GD32VW55X_Wifi_BLE_SDK/GD32VW55x_RELEASE_V1.0.2/MSDK/wpa_supplicant/src/utils\common.c **** }
 4049              		.loc 1 1260 1
 4050 0026 8280     		ret
 4051              		.cfi_endproc
 4052              	.LFE117:
 4054              		.section	.text.get_param,"ax",@progbits
 4055              		.align	1
 4056              		.globl	get_param
 4058              	get_param:
 4059              	.LFB118:
1261:C:/Users/stapi/OneDrive/Desktop/GD32VW553/V1_MQTT_OK/GD32VW55X_Wifi_BLE_SDK/GD32VW55x_RELEASE_V1.0.2/MSDK/wpa_supplicant/src/utils\common.c **** 
1262:C:/Users/stapi/OneDrive/Desktop/GD32VW553/V1_MQTT_OK/GD32VW55X_Wifi_BLE_SDK/GD32VW55x_RELEASE_V1.0.2/MSDK/wpa_supplicant/src/utils\common.c **** 
1263:C:/Users/stapi/OneDrive/Desktop/GD32VW553/V1_MQTT_OK/GD32VW55X_Wifi_BLE_SDK/GD32VW55x_RELEASE_V1.0.2/MSDK/wpa_supplicant/src/utils\common.c **** char * get_param(const char *cmd, const char *param)
1264:C:/Users/stapi/OneDrive/Desktop/GD32VW553/V1_MQTT_OK/GD32VW55X_Wifi_BLE_SDK/GD32VW55x_RELEASE_V1.0.2/MSDK/wpa_supplicant/src/utils\common.c **** {
 4060              		.loc 1 1264 1 is_stmt 1
 4061              		.cfi_startproc
 4062              	.LVL471:
 4063 0000 17030000 		call	t0,__riscv_save_3
 4063      E7020300 
 4064              		.cfi_offset 18, -16
 4065              		.cfi_offset 9, -12
 4066              		.cfi_offset 8, -8
 4067              		.cfi_offset 1, -4
 4068              		.cfi_def_cfa_offset 16
1265:C:/Users/stapi/OneDrive/Desktop/GD32VW553/V1_MQTT_OK/GD32VW55X_Wifi_BLE_SDK/GD32VW55x_RELEASE_V1.0.2/MSDK/wpa_supplicant/src/utils\common.c **** 	const char *pos, *end;
 4069              		.loc 1 1265 2
1266:C:/Users/stapi/OneDrive/Desktop/GD32VW553/V1_MQTT_OK/GD32VW55X_Wifi_BLE_SDK/GD32VW55x_RELEASE_V1.0.2/MSDK/wpa_supplicant/src/utils\common.c **** 	char *val;
 4070              		.loc 1 1266 2
1267:C:/Users/stapi/OneDrive/Desktop/GD32VW553/V1_MQTT_OK/GD32VW55X_Wifi_BLE_SDK/GD32VW55x_RELEASE_V1.0.2/MSDK/wpa_supplicant/src/utils\common.c **** 	size_t len;
 4071              		.loc 1 1267 2
1268:C:/Users/stapi/OneDrive/Desktop/GD32VW553/V1_MQTT_OK/GD32VW55X_Wifi_BLE_SDK/GD32VW55x_RELEASE_V1.0.2/MSDK/wpa_supplicant/src/utils\common.c **** 
1269:C:/Users/stapi/OneDrive/Desktop/GD32VW553/V1_MQTT_OK/GD32VW55X_Wifi_BLE_SDK/GD32VW55x_RELEASE_V1.0.2/MSDK/wpa_supplicant/src/utils\common.c **** 	pos = os_strstr(cmd, param);
 4072              		.loc 1 1269 2
1264:C:/Users/stapi/OneDrive/Desktop/GD32VW553/V1_MQTT_OK/GD32VW55X_Wifi_BLE_SDK/GD32VW55x_RELEASE_V1.0.2/MSDK/wpa_supplicant/src/utils\common.c **** 	const char *pos, *end;
 4073              		.loc 1 1264 1 is_stmt 0
 4074 0008 2E84     		mv	s0,a1
 4075              		.loc 1 1269 8
 4076 000a 97000000 		call	os_strstr
 4076      E7800000 
 4077              	.LVL472:
 4078 0012 AA84     		mv	s1,a0
 4079              	.LVL473:
1270:C:/Users/stapi/OneDrive/Desktop/GD32VW553/V1_MQTT_OK/GD32VW55X_Wifi_BLE_SDK/GD32VW55x_RELEASE_V1.0.2/MSDK/wpa_supplicant/src/utils\common.c **** 	if (!pos)
 4080              		.loc 1 1270 2 is_stmt 1
 4081              		.loc 1 1270 5 is_stmt 0
 4082 0014 29C9     		beq	a0,zero,.L438
1271:C:/Users/stapi/OneDrive/Desktop/GD32VW553/V1_MQTT_OK/GD32VW55X_Wifi_BLE_SDK/GD32VW55x_RELEASE_V1.0.2/MSDK/wpa_supplicant/src/utils\common.c **** 		return NULL;
1272:C:/Users/stapi/OneDrive/Desktop/GD32VW553/V1_MQTT_OK/GD32VW55X_Wifi_BLE_SDK/GD32VW55x_RELEASE_V1.0.2/MSDK/wpa_supplicant/src/utils\common.c **** 
1273:C:/Users/stapi/OneDrive/Desktop/GD32VW553/V1_MQTT_OK/GD32VW55X_Wifi_BLE_SDK/GD32VW55x_RELEASE_V1.0.2/MSDK/wpa_supplicant/src/utils\common.c **** 	pos += os_strlen(param);
 4083              		.loc 1 1273 2 is_stmt 1
 4084              		.loc 1 1273 9 is_stmt 0
 4085 0016 2285     		mv	a0,s0
 4086 0018 97000000 		call	os_strlen
 4086      E7800000 
 4087              	.LVL474:
 4088              		.loc 1 1273 6
 4089 0020 3389A400 		add	s2,s1,a0
 4090              	.LVL475:
1274:C:/Users/stapi/OneDrive/Desktop/GD32VW553/V1_MQTT_OK/GD32VW55X_Wifi_BLE_SDK/GD32VW55x_RELEASE_V1.0.2/MSDK/wpa_supplicant/src/utils\common.c **** 	end = os_strchr(pos, ' ');
 4091              		.loc 1 1274 2 is_stmt 1
 4092              		.loc 1 1274 8 is_stmt 0
 4093 0024 93050002 		li	a1,32
 4094 0028 4A85     		mv	a0,s2
 4095 002a 97000000 		call	os_strchr
 4095      E7800000 
 4096              	.LVL476:
1275:C:/Users/stapi/OneDrive/Desktop/GD32VW553/V1_MQTT_OK/GD32VW55X_Wifi_BLE_SDK/GD32VW55x_RELEASE_V1.0.2/MSDK/wpa_supplicant/src/utils\common.c **** 	if (end)
 4097              		.loc 1 1275 2 is_stmt 1
1276:C:/Users/stapi/OneDrive/Desktop/GD32VW553/V1_MQTT_OK/GD32VW55X_Wifi_BLE_SDK/GD32VW55x_RELEASE_V1.0.2/MSDK/wpa_supplicant/src/utils\common.c **** 		len = end - pos;
 4098              		.loc 1 1276 13 is_stmt 0
 4099 0032 33042541 		sub	s0,a0,s2
 4100              	.LVL477:
1275:C:/Users/stapi/OneDrive/Desktop/GD32VW553/V1_MQTT_OK/GD32VW55X_Wifi_BLE_SDK/GD32VW55x_RELEASE_V1.0.2/MSDK/wpa_supplicant/src/utils\common.c **** 	if (end)
 4101              		.loc 1 1275 5
 4102 0036 19E5     		bne	a0,zero,.L441
1277:C:/Users/stapi/OneDrive/Desktop/GD32VW553/V1_MQTT_OK/GD32VW55X_Wifi_BLE_SDK/GD32VW55x_RELEASE_V1.0.2/MSDK/wpa_supplicant/src/utils\common.c **** 	else
1278:C:/Users/stapi/OneDrive/Desktop/GD32VW553/V1_MQTT_OK/GD32VW55X_Wifi_BLE_SDK/GD32VW55x_RELEASE_V1.0.2/MSDK/wpa_supplicant/src/utils\common.c **** 		len = os_strlen(pos);
 4103              		.loc 1 1278 3 is_stmt 1
 4104              		.loc 1 1278 9 is_stmt 0
 4105 0038 4A85     		mv	a0,s2
 4106              	.LVL478:
 4107 003a 97000000 		call	os_strlen
 4107      E7800000 
 4108              	.LVL479:
 4109 0042 2A84     		mv	s0,a0
 4110              	.LVL480:
 4111              	.L441:
1279:C:/Users/stapi/OneDrive/Desktop/GD32VW553/V1_MQTT_OK/GD32VW55X_Wifi_BLE_SDK/GD32VW55x_RELEASE_V1.0.2/MSDK/wpa_supplicant/src/utils\common.c **** 	val = os_malloc(len + 1);
 4112              		.loc 1 1279 2 is_stmt 1
 4113              		.loc 1 1279 8 is_stmt 0
 4114 0044 13051400 		addi	a0,s0,1
 4115 0048 97000000 		call	os_malloc
 4115      E7800000 
 4116              	.LVL481:
 4117 0050 AA84     		mv	s1,a0
 4118              	.LVL482:
1280:C:/Users/stapi/OneDrive/Desktop/GD32VW553/V1_MQTT_OK/GD32VW55X_Wifi_BLE_SDK/GD32VW55x_RELEASE_V1.0.2/MSDK/wpa_supplicant/src/utils\common.c **** 	if (!val)
 4119              		.loc 1 1280 2 is_stmt 1
 4120              		.loc 1 1280 5 is_stmt 0
 4121 0052 11C9     		beq	a0,zero,.L438
1281:C:/Users/stapi/OneDrive/Desktop/GD32VW553/V1_MQTT_OK/GD32VW55X_Wifi_BLE_SDK/GD32VW55x_RELEASE_V1.0.2/MSDK/wpa_supplicant/src/utils\common.c **** 		return NULL;
1282:C:/Users/stapi/OneDrive/Desktop/GD32VW553/V1_MQTT_OK/GD32VW55X_Wifi_BLE_SDK/GD32VW55x_RELEASE_V1.0.2/MSDK/wpa_supplicant/src/utils\common.c **** 	os_memcpy(val, pos, len);
 4122              		.loc 1 1282 2 is_stmt 1
 4123 0054 2286     		mv	a2,s0
 4124 0056 CA85     		mv	a1,s2
1283:C:/Users/stapi/OneDrive/Desktop/GD32VW553/V1_MQTT_OK/GD32VW55X_Wifi_BLE_SDK/GD32VW55x_RELEASE_V1.0.2/MSDK/wpa_supplicant/src/utils\common.c **** 	val[len] = '\0';
 4125              		.loc 1 1283 11 is_stmt 0
 4126 0058 2694     		add	s0,s1,s0
 4127              	.LVL483:
1282:C:/Users/stapi/OneDrive/Desktop/GD32VW553/V1_MQTT_OK/GD32VW55X_Wifi_BLE_SDK/GD32VW55x_RELEASE_V1.0.2/MSDK/wpa_supplicant/src/utils\common.c **** 	val[len] = '\0';
 4128              		.loc 1 1282 2
 4129 005a 97000000 		call	os_memcpy
 4129      E7800000 
 4130              	.LVL484:
 4131              		.loc 1 1283 2 is_stmt 1
 4132              		.loc 1 1283 11 is_stmt 0
 4133 0062 23000400 		sb	zero,0(s0)
1284:C:/Users/stapi/OneDrive/Desktop/GD32VW553/V1_MQTT_OK/GD32VW55X_Wifi_BLE_SDK/GD32VW55x_RELEASE_V1.0.2/MSDK/wpa_supplicant/src/utils\common.c **** 	return val;
 4134              		.loc 1 1284 2 is_stmt 1
 4135              	.LVL485:
 4136              	.L438:
1285:C:/Users/stapi/OneDrive/Desktop/GD32VW553/V1_MQTT_OK/GD32VW55X_Wifi_BLE_SDK/GD32VW55x_RELEASE_V1.0.2/MSDK/wpa_supplicant/src/utils\common.c **** }
 4137              		.loc 1 1285 1 is_stmt 0
 4138 0066 2685     		mv	a0,s1
 4139 0068 17030000 		tail	__riscv_restore_3
 4139      67000300 
 4140              		.cfi_restore 18
 4141              		.cfi_restore 9
 4142              		.cfi_restore 8
 4143              		.cfi_restore 1
 4144              		.cfi_def_cfa_offset 0
 4145              		.cfi_endproc
 4146              	.LFE118:
 4148              		.section	.text.forced_memzero,"ax",@progbits
 4149              		.align	1
 4150              		.globl	forced_memzero
 4152              	forced_memzero:
 4153              	.LFB119:
1286:C:/Users/stapi/OneDrive/Desktop/GD32VW553/V1_MQTT_OK/GD32VW55X_Wifi_BLE_SDK/GD32VW55x_RELEASE_V1.0.2/MSDK/wpa_supplicant/src/utils\common.c **** 
1287:C:/Users/stapi/OneDrive/Desktop/GD32VW553/V1_MQTT_OK/GD32VW55X_Wifi_BLE_SDK/GD32VW55x_RELEASE_V1.0.2/MSDK/wpa_supplicant/src/utils\common.c **** 
1288:C:/Users/stapi/OneDrive/Desktop/GD32VW553/V1_MQTT_OK/GD32VW55X_Wifi_BLE_SDK/GD32VW55x_RELEASE_V1.0.2/MSDK/wpa_supplicant/src/utils\common.c **** /* Try to prevent most compilers from optimizing out clearing of memory that
1289:C:/Users/stapi/OneDrive/Desktop/GD32VW553/V1_MQTT_OK/GD32VW55X_Wifi_BLE_SDK/GD32VW55x_RELEASE_V1.0.2/MSDK/wpa_supplicant/src/utils\common.c ****  * becomes unaccessible after this function is called. This is mostly the case
1290:C:/Users/stapi/OneDrive/Desktop/GD32VW553/V1_MQTT_OK/GD32VW55X_Wifi_BLE_SDK/GD32VW55x_RELEASE_V1.0.2/MSDK/wpa_supplicant/src/utils\common.c ****  * for clearing local stack variables at the end of a function. This is not
1291:C:/Users/stapi/OneDrive/Desktop/GD32VW553/V1_MQTT_OK/GD32VW55X_Wifi_BLE_SDK/GD32VW55x_RELEASE_V1.0.2/MSDK/wpa_supplicant/src/utils\common.c ****  * exactly perfect, i.e., someone could come up with a compiler that figures out
1292:C:/Users/stapi/OneDrive/Desktop/GD32VW553/V1_MQTT_OK/GD32VW55X_Wifi_BLE_SDK/GD32VW55x_RELEASE_V1.0.2/MSDK/wpa_supplicant/src/utils\common.c ****  * the pointer is pointing to memset and then end up optimizing the call out, so
1293:C:/Users/stapi/OneDrive/Desktop/GD32VW553/V1_MQTT_OK/GD32VW55X_Wifi_BLE_SDK/GD32VW55x_RELEASE_V1.0.2/MSDK/wpa_supplicant/src/utils\common.c ****  * try go a bit further by storing the first octet (now zero) to make this even
1294:C:/Users/stapi/OneDrive/Desktop/GD32VW553/V1_MQTT_OK/GD32VW55X_Wifi_BLE_SDK/GD32VW55x_RELEASE_V1.0.2/MSDK/wpa_supplicant/src/utils\common.c ****  * a bit more difficult to optimize out. Once memset_s() is available, that
1295:C:/Users/stapi/OneDrive/Desktop/GD32VW553/V1_MQTT_OK/GD32VW55X_Wifi_BLE_SDK/GD32VW55x_RELEASE_V1.0.2/MSDK/wpa_supplicant/src/utils\common.c ****  * could be used here instead. */
1296:C:/Users/stapi/OneDrive/Desktop/GD32VW553/V1_MQTT_OK/GD32VW55X_Wifi_BLE_SDK/GD32VW55x_RELEASE_V1.0.2/MSDK/wpa_supplicant/src/utils\common.c **** static void * (* const volatile memset_func)(void *, int, size_t) = memset;
1297:C:/Users/stapi/OneDrive/Desktop/GD32VW553/V1_MQTT_OK/GD32VW55X_Wifi_BLE_SDK/GD32VW55x_RELEASE_V1.0.2/MSDK/wpa_supplicant/src/utils\common.c **** static u8 forced_memzero_val;
1298:C:/Users/stapi/OneDrive/Desktop/GD32VW553/V1_MQTT_OK/GD32VW55X_Wifi_BLE_SDK/GD32VW55x_RELEASE_V1.0.2/MSDK/wpa_supplicant/src/utils\common.c **** 
1299:C:/Users/stapi/OneDrive/Desktop/GD32VW553/V1_MQTT_OK/GD32VW55X_Wifi_BLE_SDK/GD32VW55x_RELEASE_V1.0.2/MSDK/wpa_supplicant/src/utils\common.c **** void forced_memzero(void *ptr, size_t len)
1300:C:/Users/stapi/OneDrive/Desktop/GD32VW553/V1_MQTT_OK/GD32VW55X_Wifi_BLE_SDK/GD32VW55x_RELEASE_V1.0.2/MSDK/wpa_supplicant/src/utils\common.c **** {
 4154              		.loc 1 1300 1 is_stmt 1
 4155              		.cfi_startproc
 4156              	.LVL486:
1301:C:/Users/stapi/OneDrive/Desktop/GD32VW553/V1_MQTT_OK/GD32VW55X_Wifi_BLE_SDK/GD32VW55x_RELEASE_V1.0.2/MSDK/wpa_supplicant/src/utils\common.c **** 	memset_func(ptr, 0, len);
 4157              		.loc 1 1301 2
 4158 0000 B7070000 		lui	a5,%hi(.LANCHOR1)
 4159 0004 83A70700 		lw	a5,%lo(.LANCHOR1)(a5)
1300:C:/Users/stapi/OneDrive/Desktop/GD32VW553/V1_MQTT_OK/GD32VW55X_Wifi_BLE_SDK/GD32VW55x_RELEASE_V1.0.2/MSDK/wpa_supplicant/src/utils\common.c **** 	memset_func(ptr, 0, len);
 4160              		.loc 1 1300 1 is_stmt 0
 4161 0008 2E86     		mv	a2,a1
 4162              		.loc 1 1301 2
 4163 000a 8145     		li	a1,0
 4164              	.LVL487:
 4165 000c 8287     		jr	a5
 4166              	.LVL488:
1302:C:/Users/stapi/OneDrive/Desktop/GD32VW553/V1_MQTT_OK/GD32VW55X_Wifi_BLE_SDK/GD32VW55x_RELEASE_V1.0.2/MSDK/wpa_supplicant/src/utils\common.c **** 	if (len)
 4167              		.loc 1 1302 2 is_stmt 1
 4168              		.cfi_endproc
 4169              	.LFE119:
 4171              		.section	.text.str_clear_free,"ax",@progbits
 4172              		.align	1
 4173              		.globl	str_clear_free
 4175              	str_clear_free:
 4176              	.LFB106:
 994:C:/Users/stapi/OneDrive/Desktop/GD32VW553/V1_MQTT_OK/GD32VW55X_Wifi_BLE_SDK/GD32VW55x_RELEASE_V1.0.2/MSDK/wpa_supplicant/src/utils\common.c **** 	if (str) {
 4177              		.loc 1 994 1
 4178              		.cfi_startproc
 4179              	.LVL489:
 995:C:/Users/stapi/OneDrive/Desktop/GD32VW553/V1_MQTT_OK/GD32VW55X_Wifi_BLE_SDK/GD32VW55x_RELEASE_V1.0.2/MSDK/wpa_supplicant/src/utils\common.c **** 		size_t len = os_strlen(str);
 4180              		.loc 1 995 2
 995:C:/Users/stapi/OneDrive/Desktop/GD32VW553/V1_MQTT_OK/GD32VW55X_Wifi_BLE_SDK/GD32VW55x_RELEASE_V1.0.2/MSDK/wpa_supplicant/src/utils\common.c **** 		size_t len = os_strlen(str);
 4181              		.loc 1 995 5 is_stmt 0
 4182 0000 0DC9     		beq	a0,zero,.L457
 994:C:/Users/stapi/OneDrive/Desktop/GD32VW553/V1_MQTT_OK/GD32VW55X_Wifi_BLE_SDK/GD32VW55x_RELEASE_V1.0.2/MSDK/wpa_supplicant/src/utils\common.c **** 	if (str) {
 4183              		.loc 1 994 1
 4184 0002 17030000 		call	t0,__riscv_save_1
 4184      E7020300 
 4185              		.cfi_offset 8, -8
 4186              		.cfi_offset 1, -4
 4187              		.cfi_def_cfa_offset 16
 4188 000a 2A84     		mv	s0,a0
 4189              	.LBB55:
 996:C:/Users/stapi/OneDrive/Desktop/GD32VW553/V1_MQTT_OK/GD32VW55X_Wifi_BLE_SDK/GD32VW55x_RELEASE_V1.0.2/MSDK/wpa_supplicant/src/utils\common.c **** 		forced_memzero(str, len);
 4190              		.loc 1 996 3 is_stmt 1
 996:C:/Users/stapi/OneDrive/Desktop/GD32VW553/V1_MQTT_OK/GD32VW55X_Wifi_BLE_SDK/GD32VW55x_RELEASE_V1.0.2/MSDK/wpa_supplicant/src/utils\common.c **** 		forced_memzero(str, len);
 4191              		.loc 1 996 16 is_stmt 0
 4192 000c 97000000 		call	os_strlen
 4192      E7800000 
 4193              	.LVL490:
 4194 0014 AA85     		mv	a1,a0
 4195              	.LVL491:
 997:C:/Users/stapi/OneDrive/Desktop/GD32VW553/V1_MQTT_OK/GD32VW55X_Wifi_BLE_SDK/GD32VW55x_RELEASE_V1.0.2/MSDK/wpa_supplicant/src/utils\common.c **** 		os_free(str);
 4196              		.loc 1 997 3 is_stmt 1
 4197 0016 2285     		mv	a0,s0
 4198              	.LVL492:
 4199 0018 97000000 		call	forced_memzero
 4199      E7800000 
 4200              	.LVL493:
 998:C:/Users/stapi/OneDrive/Desktop/GD32VW553/V1_MQTT_OK/GD32VW55X_Wifi_BLE_SDK/GD32VW55x_RELEASE_V1.0.2/MSDK/wpa_supplicant/src/utils\common.c **** 	}
 4201              		.loc 1 998 3
 4202 0020 2285     		mv	a0,s0
 4203 0022 97000000 		call	os_free
 4203      E7800000 
 4204              	.LVL494:
 4205              	.LBE55:
1000:C:/Users/stapi/OneDrive/Desktop/GD32VW553/V1_MQTT_OK/GD32VW55X_Wifi_BLE_SDK/GD32VW55x_RELEASE_V1.0.2/MSDK/wpa_supplicant/src/utils\common.c **** 
 4206              		.loc 1 1000 1 is_stmt 0
 4207 002a 17030000 		tail	__riscv_restore_1
 4207      67000300 
 4208              		.cfi_restore 8
 4209              		.cfi_restore 1
 4210              		.cfi_def_cfa_offset 0
 4211              	.LVL495:
 4212              	.L457:
 4213 0032 8280     		ret
 4214              		.cfi_endproc
 4215              	.LFE106:
 4217              		.section	.text.bin_clear_free,"ax",@progbits
 4218              		.align	1
 4219              		.globl	bin_clear_free
 4221              	bin_clear_free:
 4222              	.LFB107:
1004:C:/Users/stapi/OneDrive/Desktop/GD32VW553/V1_MQTT_OK/GD32VW55X_Wifi_BLE_SDK/GD32VW55x_RELEASE_V1.0.2/MSDK/wpa_supplicant/src/utils\common.c **** 	if (bin) {
 4223              		.loc 1 1004 1 is_stmt 1
 4224              		.cfi_startproc
 4225              	.LVL496:
1005:C:/Users/stapi/OneDrive/Desktop/GD32VW553/V1_MQTT_OK/GD32VW55X_Wifi_BLE_SDK/GD32VW55x_RELEASE_V1.0.2/MSDK/wpa_supplicant/src/utils\common.c **** 		forced_memzero(bin, len);
 4226              		.loc 1 1005 2
1005:C:/Users/stapi/OneDrive/Desktop/GD32VW553/V1_MQTT_OK/GD32VW55X_Wifi_BLE_SDK/GD32VW55x_RELEASE_V1.0.2/MSDK/wpa_supplicant/src/utils\common.c **** 		forced_memzero(bin, len);
 4227              		.loc 1 1005 5 is_stmt 0
 4228 0000 1DC1     		beq	a0,zero,.L466
1004:C:/Users/stapi/OneDrive/Desktop/GD32VW553/V1_MQTT_OK/GD32VW55X_Wifi_BLE_SDK/GD32VW55x_RELEASE_V1.0.2/MSDK/wpa_supplicant/src/utils\common.c **** 	if (bin) {
 4229              		.loc 1 1004 1
 4230 0002 17030000 		call	t0,__riscv_save_1
 4230      E7020300 
 4231              		.cfi_offset 8, -8
 4232              		.cfi_offset 1, -4
 4233              		.cfi_def_cfa_offset 16
 4234 000a 2A84     		mv	s0,a0
1006:C:/Users/stapi/OneDrive/Desktop/GD32VW553/V1_MQTT_OK/GD32VW55X_Wifi_BLE_SDK/GD32VW55x_RELEASE_V1.0.2/MSDK/wpa_supplicant/src/utils\common.c **** 		os_free(bin);
 4235              		.loc 1 1006 3 is_stmt 1
 4236 000c 97000000 		call	forced_memzero
 4236      E7800000 
 4237              	.LVL497:
1007:C:/Users/stapi/OneDrive/Desktop/GD32VW553/V1_MQTT_OK/GD32VW55X_Wifi_BLE_SDK/GD32VW55x_RELEASE_V1.0.2/MSDK/wpa_supplicant/src/utils\common.c **** 	}
 4238              		.loc 1 1007 3
 4239 0014 2285     		mv	a0,s0
 4240 0016 97000000 		call	os_free
 4240      E7800000 
 4241              	.LVL498:
1009:C:/Users/stapi/OneDrive/Desktop/GD32VW553/V1_MQTT_OK/GD32VW55X_Wifi_BLE_SDK/GD32VW55x_RELEASE_V1.0.2/MSDK/wpa_supplicant/src/utils\common.c **** 
 4242              		.loc 1 1009 1 is_stmt 0
 4243 001e 17030000 		tail	__riscv_restore_1
 4243      67000300 
 4244              		.cfi_restore 8
 4245              		.cfi_restore 1
 4246              		.cfi_def_cfa_offset 0
 4247              	.LVL499:
 4248              	.L466:
 4249 0026 8280     		ret
 4250              		.cfi_endproc
 4251              	.LFE107:
 4253              		.section	.bss.ssid_txt.0,"aw",@nobits
 4254              		.align	2
 4255              		.set	.LANCHOR0,. + 0
 4258              	ssid_txt.0:
 4259 0000 00000000 		.zero	129
 4259      00000000 
 4259      00000000 
 4259      00000000 
 4259      00000000 
 4260              		.section	.sdata.memset_func,"aw"
 4261              		.align	2
 4262              		.set	.LANCHOR1,. + 0
 4265              	memset_func:
 4266 0000 00000000 		.word	memset
 4267              		.text
 4268              	.Letext0:
 4269              		.file 4 "c:\\users\\stapi\\onedrive\\desktop\\gd32vw553\\embeddedbuilder_v1.4.7.26843\\tools\\nucl
 4270              		.file 5 "c:\\users\\stapi\\onedrive\\desktop\\gd32vw553\\embeddedbuilder_v1.4.7.26843\\tools\\nucl
 4271              		.file 6 "c:\\users\\stapi\\onedrive\\desktop\\gd32vw553\\embeddedbuilder_v1.4.7.26843\\tools\\nucl
 4272              		.file 7 "c:\\users\\stapi\\onedrive\\desktop\\gd32vw553\\embeddedbuilder_v1.4.7.26843\\tools\\nucl
 4273              		.file 8 "c:\\users\\stapi\\onedrive\\desktop\\gd32vw553\\embeddedbuilder_v1.4.7.26843\\tools\\nucl
 4274              		.file 9 "..\\..\\..\\..\\util\\include/debug_print.h"
 4275              		.file 10 "c:\\users\\stapi\\onedrive\\desktop\\gd32vw553\\embeddedbuilder_v1.4.7.26843\\tools\\nuc
 4276              		.file 11 "..\\..\\..\\..\\lwip\\lwip-2.1.2\\src\\include/lwip/memp.h"
 4277              		.file 12 "..\\..\\..\\..\\lwip\\lwip-2.1.2\\src\\include/lwip/netif.h"
DEFINED SYMBOLS
                            *ABS*:0000000000000000 common.c
C:\Users\stapi\AppData\Local\Temp\ccbUglnk.s:12     .text.hex2num:0000000000000000 hex2num
C:\Users\stapi\AppData\Local\Temp\ccbUglnk.s:16     .text.hex2num:0000000000000000 .L0 
C:\Users\stapi\AppData\Local\Temp\ccbUglnk.s:18     .text.hex2num:0000000000000000 .L0 
C:\Users\stapi\AppData\Local\Temp\ccbUglnk.s:19     .text.hex2num:0000000000000000 .L0 
C:\Users\stapi\AppData\Local\Temp\ccbUglnk.s:20     .text.hex2num:0000000000000000 .L0 
C:\Users\stapi\AppData\Local\Temp\ccbUglnk.s:23     .text.hex2num:0000000000000008 .L0 
C:\Users\stapi\AppData\Local\Temp\ccbUglnk.s:26     .text.hex2num:000000000000000e .L0 
C:\Users\stapi\AppData\Local\Temp\ccbUglnk.s:28     .text.hex2num:0000000000000010 .L0 
C:\Users\stapi\AppData\Local\Temp\ccbUglnk.s:30     .text.hex2num:0000000000000014 .L0 
C:\Users\stapi\AppData\Local\Temp\ccbUglnk.s:31     .text.hex2num:0000000000000014 .L0 
C:\Users\stapi\AppData\Local\Temp\ccbUglnk.s:35     .text.hex2num:0000000000000018 .L0 
C:\Users\stapi\AppData\Local\Temp\ccbUglnk.s:38     .text.hex2num:000000000000001c .L0 
C:\Users\stapi\AppData\Local\Temp\ccbUglnk.s:42     .text.hex2num:000000000000001e .L0 
C:\Users\stapi\AppData\Local\Temp\ccbUglnk.s:43     .text.hex2num:000000000000001e .L0 
C:\Users\stapi\AppData\Local\Temp\ccbUglnk.s:45     .text.hex2num:0000000000000022 .L0 
C:\Users\stapi\AppData\Local\Temp\ccbUglnk.s:49     .text.hex2num:000000000000002c .L0 
C:\Users\stapi\AppData\Local\Temp\ccbUglnk.s:50     .text.hex2num:000000000000002c .L0 
C:\Users\stapi\AppData\Local\Temp\ccbUglnk.s:54     .text.hex2num:0000000000000032 .L0 
C:\Users\stapi\AppData\Local\Temp\ccbUglnk.s:55     .text.hex2num:0000000000000032 .L0 
C:\Users\stapi\AppData\Local\Temp\ccbUglnk.s:57     .text.hex2num:0000000000000036 .L0 
C:\Users\stapi\AppData\Local\Temp\ccbUglnk.s:59     .text.hex2num:000000000000003a .L0 
C:\Users\stapi\AppData\Local\Temp\ccbUglnk.s:62     .text.hex2num:000000000000003c .L0 
C:\Users\stapi\AppData\Local\Temp\ccbUglnk.s:64     .text.hex2num:0000000000000040 .L0 
C:\Users\stapi\AppData\Local\Temp\ccbUglnk.s:65     .text.hex2num:0000000000000040 .L0 
C:\Users\stapi\AppData\Local\Temp\ccbUglnk.s:67     .text.hex2num:0000000000000046 .L0 
C:\Users\stapi\AppData\Local\Temp\ccbUglnk.s:73     .text.freq_cmp:0000000000000000 freq_cmp
C:\Users\stapi\AppData\Local\Temp\ccbUglnk.s:76     .text.freq_cmp:0000000000000000 .L0 
C:\Users\stapi\AppData\Local\Temp\ccbUglnk.s:78     .text.freq_cmp:0000000000000000 .L0 
C:\Users\stapi\AppData\Local\Temp\ccbUglnk.s:79     .text.freq_cmp:0000000000000000 .L0 
C:\Users\stapi\AppData\Local\Temp\ccbUglnk.s:80     .text.freq_cmp:0000000000000000 .L0 
C:\Users\stapi\AppData\Local\Temp\ccbUglnk.s:83     .text.freq_cmp:0000000000000002 .L0 
C:\Users\stapi\AppData\Local\Temp\ccbUglnk.s:84     .text.freq_cmp:0000000000000002 .L0 
C:\Users\stapi\AppData\Local\Temp\ccbUglnk.s:87     .text.freq_cmp:0000000000000004 .L0 
C:\Users\stapi\AppData\Local\Temp\ccbUglnk.s:88     .text.freq_cmp:0000000000000004 .L0 
C:\Users\stapi\AppData\Local\Temp\ccbUglnk.s:90     .text.freq_cmp:0000000000000006 .L0 
C:\Users\stapi\AppData\Local\Temp\ccbUglnk.s:91     .text.freq_cmp:0000000000000006 .L0 
C:\Users\stapi\AppData\Local\Temp\ccbUglnk.s:94     .text.freq_cmp:0000000000000008 .L0 
C:\Users\stapi\AppData\Local\Temp\ccbUglnk.s:96     .text.freq_cmp:000000000000000a .L0 
C:\Users\stapi\AppData\Local\Temp\ccbUglnk.s:97     .text.freq_cmp:000000000000000a .L0 
C:\Users\stapi\AppData\Local\Temp\ccbUglnk.s:102    .text.freq_cmp:0000000000000010 .L0 
C:\Users\stapi\AppData\Local\Temp\ccbUglnk.s:106    .text.freq_cmp:0000000000000012 .L0 
C:\Users\stapi\AppData\Local\Temp\ccbUglnk.s:107    .text.freq_cmp:0000000000000014 .L0 
C:\Users\stapi\AppData\Local\Temp\ccbUglnk.s:120    .text._wpa_snprintf_hex:0000000000000000 _wpa_snprintf_hex
C:\Users\stapi\AppData\Local\Temp\ccbUglnk.s:123    .text._wpa_snprintf_hex:0000000000000000 .L0 
C:\Users\stapi\AppData\Local\Temp\ccbUglnk.s:125    .text._wpa_snprintf_hex:0000000000000000 .L0 
C:\Users\stapi\AppData\Local\Temp\ccbUglnk.s:126    .text._wpa_snprintf_hex:0000000000000000 .L0 
C:\Users\stapi\AppData\Local\Temp\ccbUglnk.s:127    .text._wpa_snprintf_hex:0000000000000000 .L0 
C:\Users\stapi\AppData\Local\Temp\ccbUglnk.s:128    .text._wpa_snprintf_hex:0000000000000000 .L0 
C:\Users\stapi\AppData\Local\Temp\ccbUglnk.s:129    .text._wpa_snprintf_hex:0000000000000000 .L0 
C:\Users\stapi\AppData\Local\Temp\ccbUglnk.s:130    .text._wpa_snprintf_hex:0000000000000000 .L0 
C:\Users\stapi\AppData\Local\Temp\ccbUglnk.s:132    .text._wpa_snprintf_hex:0000000000000002 .L0 
C:\Users\stapi\AppData\Local\Temp\ccbUglnk.s:133    .text._wpa_snprintf_hex:000000000000000a .L0 
C:\Users\stapi\AppData\Local\Temp\ccbUglnk.s:134    .text._wpa_snprintf_hex:000000000000000a .L0 
C:\Users\stapi\AppData\Local\Temp\ccbUglnk.s:135    .text._wpa_snprintf_hex:000000000000000a .L0 
C:\Users\stapi\AppData\Local\Temp\ccbUglnk.s:136    .text._wpa_snprintf_hex:000000000000000a .L0 
C:\Users\stapi\AppData\Local\Temp\ccbUglnk.s:137    .text._wpa_snprintf_hex:000000000000000a .L0 
C:\Users\stapi\AppData\Local\Temp\ccbUglnk.s:138    .text._wpa_snprintf_hex:000000000000000a .L0 
C:\Users\stapi\AppData\Local\Temp\ccbUglnk.s:139    .text._wpa_snprintf_hex:000000000000000a .L0 
C:\Users\stapi\AppData\Local\Temp\ccbUglnk.s:140    .text._wpa_snprintf_hex:000000000000000a .L0 
C:\Users\stapi\AppData\Local\Temp\ccbUglnk.s:141    .text._wpa_snprintf_hex:000000000000000a .L0 
C:\Users\stapi\AppData\Local\Temp\ccbUglnk.s:145    .text._wpa_snprintf_hex:000000000000000e .L0 
C:\Users\stapi\AppData\Local\Temp\ccbUglnk.s:152    .text._wpa_snprintf_hex:0000000000000020 .L0 
C:\Users\stapi\AppData\Local\Temp\ccbUglnk.s:156    .text._wpa_snprintf_hex:0000000000000022 .L0 
C:\Users\stapi\AppData\Local\Temp\ccbUglnk.s:157    .text._wpa_snprintf_hex:0000000000000022 .L0 
C:\Users\stapi\AppData\Local\Temp\ccbUglnk.s:161    .text._wpa_snprintf_hex:0000000000000026 .L0 
C:\Users\stapi\AppData\Local\Temp\ccbUglnk.s:162    .text._wpa_snprintf_hex:0000000000000026 .L0 
C:\Users\stapi\AppData\Local\Temp\ccbUglnk.s:164    .text._wpa_snprintf_hex:000000000000002a .L0 
C:\Users\stapi\AppData\Local\Temp\ccbUglnk.s:165    .text._wpa_snprintf_hex:000000000000002a .L0 
C:\Users\stapi\AppData\Local\Temp\ccbUglnk.s:167    .text._wpa_snprintf_hex:000000000000002e .L0 
C:\Users\stapi\AppData\Local\Temp\ccbUglnk.s:168    .text._wpa_snprintf_hex:0000000000000036 .L0 
C:\Users\stapi\AppData\Local\Temp\ccbUglnk.s:169    .text._wpa_snprintf_hex:0000000000000036 .L0 
C:\Users\stapi\AppData\Local\Temp\ccbUglnk.s:170    .text._wpa_snprintf_hex:0000000000000036 .L0 
C:\Users\stapi\AppData\Local\Temp\ccbUglnk.s:171    .text._wpa_snprintf_hex:0000000000000036 .L0 
C:\Users\stapi\AppData\Local\Temp\ccbUglnk.s:172    .text._wpa_snprintf_hex:0000000000000036 .L0 
C:\Users\stapi\AppData\Local\Temp\ccbUglnk.s:173    .text._wpa_snprintf_hex:0000000000000036 .L0 
C:\Users\stapi\AppData\Local\Temp\ccbUglnk.s:174    .text._wpa_snprintf_hex:0000000000000036 .L0 
C:\Users\stapi\AppData\Local\Temp\ccbUglnk.s:175    .text._wpa_snprintf_hex:0000000000000036 .L0 
C:\Users\stapi\AppData\Local\Temp\ccbUglnk.s:176    .text._wpa_snprintf_hex:0000000000000036 .L0 
C:\Users\stapi\AppData\Local\Temp\ccbUglnk.s:177    .text._wpa_snprintf_hex:0000000000000036 .L0 
C:\Users\stapi\AppData\Local\Temp\ccbUglnk.s:180    .text._wpa_snprintf_hex:0000000000000036 .L0 
C:\Users\stapi\AppData\Local\Temp\ccbUglnk.s:187    .text._wpa_snprintf_hex:0000000000000040 .L0 
C:\Users\stapi\AppData\Local\Temp\ccbUglnk.s:188    .text._wpa_snprintf_hex:0000000000000040 .L0 
C:\Users\stapi\AppData\Local\Temp\ccbUglnk.s:190    .text._wpa_snprintf_hex:0000000000000044 .L0 
C:\Users\stapi\AppData\Local\Temp\ccbUglnk.s:192    .text._wpa_snprintf_hex:0000000000000048 .L0 
C:\Users\stapi\AppData\Local\Temp\ccbUglnk.s:201    .text._wpa_snprintf_hex:0000000000000056 .L0 
C:\Users\stapi\AppData\Local\Temp\ccbUglnk.s:202    .text._wpa_snprintf_hex:0000000000000056 .L0 
C:\Users\stapi\AppData\Local\Temp\ccbUglnk.s:203    .text._wpa_snprintf_hex:0000000000000056 .L0 
C:\Users\stapi\AppData\Local\Temp\ccbUglnk.s:211    .text._wpa_snprintf_hex:0000000000000060 .L0 
C:\Users\stapi\AppData\Local\Temp\ccbUglnk.s:212    .text._wpa_snprintf_hex:0000000000000060 .L0 
C:\Users\stapi\AppData\Local\Temp\ccbUglnk.s:215    .text._wpa_snprintf_hex:0000000000000062 .L0 
C:\Users\stapi\AppData\Local\Temp\ccbUglnk.s:218    .text._wpa_snprintf_hex:0000000000000064 .L0 
C:\Users\stapi\AppData\Local\Temp\ccbUglnk.s:219    .text._wpa_snprintf_hex:0000000000000064 .L0 
C:\Users\stapi\AppData\Local\Temp\ccbUglnk.s:220    .text._wpa_snprintf_hex:0000000000000064 .L0 
C:\Users\stapi\AppData\Local\Temp\ccbUglnk.s:221    .text._wpa_snprintf_hex:0000000000000064 .L0 
C:\Users\stapi\AppData\Local\Temp\ccbUglnk.s:222    .text._wpa_snprintf_hex:0000000000000064 .L0 
C:\Users\stapi\AppData\Local\Temp\ccbUglnk.s:223    .text._wpa_snprintf_hex:0000000000000064 .L0 
C:\Users\stapi\AppData\Local\Temp\ccbUglnk.s:224    .text._wpa_snprintf_hex:0000000000000064 .L0 
C:\Users\stapi\AppData\Local\Temp\ccbUglnk.s:225    .text._wpa_snprintf_hex:0000000000000064 .L0 
C:\Users\stapi\AppData\Local\Temp\ccbUglnk.s:226    .text._wpa_snprintf_hex:0000000000000064 .L0 
C:\Users\stapi\AppData\Local\Temp\ccbUglnk.s:228    .text._wpa_snprintf_hex:0000000000000064 .L0 
C:\Users\stapi\AppData\Local\Temp\ccbUglnk.s:231    .text._wpa_snprintf_hex:0000000000000066 .L0 
C:\Users\stapi\AppData\Local\Temp\ccbUglnk.s:232    .text._wpa_snprintf_hex:0000000000000068 .L0 
C:\Users\stapi\AppData\Local\Temp\ccbUglnk.s:239    .text.hex2byte:0000000000000000 hex2byte
C:\Users\stapi\AppData\Local\Temp\ccbUglnk.s:242    .text.hex2byte:0000000000000000 .L0 
C:\Users\stapi\AppData\Local\Temp\ccbUglnk.s:244    .text.hex2byte:0000000000000000 .L0 
C:\Users\stapi\AppData\Local\Temp\ccbUglnk.s:245    .text.hex2byte:0000000000000008 .L0 
C:\Users\stapi\AppData\Local\Temp\ccbUglnk.s:246    .text.hex2byte:0000000000000008 .L0 
C:\Users\stapi\AppData\Local\Temp\ccbUglnk.s:247    .text.hex2byte:0000000000000008 .L0 
C:\Users\stapi\AppData\Local\Temp\ccbUglnk.s:248    .text.hex2byte:0000000000000008 .L0 
C:\Users\stapi\AppData\Local\Temp\ccbUglnk.s:250    .text.hex2byte:0000000000000008 .L0 
C:\Users\stapi\AppData\Local\Temp\ccbUglnk.s:252    .text.hex2byte:0000000000000008 .L0 
C:\Users\stapi\AppData\Local\Temp\ccbUglnk.s:253    .text.hex2byte:0000000000000008 .L0 
C:\Users\stapi\AppData\Local\Temp\ccbUglnk.s:255    .text.hex2byte:000000000000000a .L0 
C:\Users\stapi\AppData\Local\Temp\ccbUglnk.s:260    .text.hex2byte:0000000000000016 .L0 
C:\Users\stapi\AppData\Local\Temp\ccbUglnk.s:261    .text.hex2byte:0000000000000016 .L0 
C:\Users\stapi\AppData\Local\Temp\ccbUglnk.s:265    .text.hex2byte:000000000000001c .L0 
C:\Users\stapi\AppData\Local\Temp\ccbUglnk.s:266    .text.hex2byte:000000000000001c .L0 
C:\Users\stapi\AppData\Local\Temp\ccbUglnk.s:273    .text.hex2byte:000000000000002a .L0 
C:\Users\stapi\AppData\Local\Temp\ccbUglnk.s:274    .text.hex2byte:000000000000002a .L0 
C:\Users\stapi\AppData\Local\Temp\ccbUglnk.s:277    .text.hex2byte:000000000000002c .L0 
C:\Users\stapi\AppData\Local\Temp\ccbUglnk.s:279    .text.hex2byte:0000000000000030 .L0 
C:\Users\stapi\AppData\Local\Temp\ccbUglnk.s:280    .text.hex2byte:0000000000000030 .L0 
C:\Users\stapi\AppData\Local\Temp\ccbUglnk.s:283    .text.hex2byte:0000000000000032 .L0 
C:\Users\stapi\AppData\Local\Temp\ccbUglnk.s:287    .text.hex2byte:0000000000000036 .L0 
C:\Users\stapi\AppData\Local\Temp\ccbUglnk.s:288    .text.hex2byte:000000000000003e .L0 
C:\Users\stapi\AppData\Local\Temp\ccbUglnk.s:289    .text.hex2byte:000000000000003e .L0 
C:\Users\stapi\AppData\Local\Temp\ccbUglnk.s:290    .text.hex2byte:000000000000003e .L0 
C:\Users\stapi\AppData\Local\Temp\ccbUglnk.s:291    .text.hex2byte:000000000000003e .L0 
C:\Users\stapi\AppData\Local\Temp\ccbUglnk.s:292    .text.hex2byte:000000000000003e .L0 
C:\Users\stapi\AppData\Local\Temp\ccbUglnk.s:295    .text.hex2byte:000000000000003e .L0 
C:\Users\stapi\AppData\Local\Temp\ccbUglnk.s:297    .text.hex2byte:000000000000003e .L0 
C:\Users\stapi\AppData\Local\Temp\ccbUglnk.s:300    .text.hex2byte:0000000000000042 .L0 
C:\Users\stapi\AppData\Local\Temp\ccbUglnk.s:306    .text.hwaddr_parse:0000000000000000 hwaddr_parse
C:\Users\stapi\AppData\Local\Temp\ccbUglnk.s:309    .text.hwaddr_parse:0000000000000000 .L0 
C:\Users\stapi\AppData\Local\Temp\ccbUglnk.s:311    .text.hwaddr_parse:0000000000000000 .L0 
C:\Users\stapi\AppData\Local\Temp\ccbUglnk.s:312    .text.hwaddr_parse:0000000000000008 .L0 
C:\Users\stapi\AppData\Local\Temp\ccbUglnk.s:313    .text.hwaddr_parse:0000000000000008 .L0 
C:\Users\stapi\AppData\Local\Temp\ccbUglnk.s:314    .text.hwaddr_parse:0000000000000008 .L0 
C:\Users\stapi\AppData\Local\Temp\ccbUglnk.s:315    .text.hwaddr_parse:0000000000000008 .L0 
C:\Users\stapi\AppData\Local\Temp\ccbUglnk.s:316    .text.hwaddr_parse:0000000000000008 .L0 
C:\Users\stapi\AppData\Local\Temp\ccbUglnk.s:317    .text.hwaddr_parse:0000000000000008 .L0 
C:\Users\stapi\AppData\Local\Temp\ccbUglnk.s:318    .text.hwaddr_parse:0000000000000008 .L0 
C:\Users\stapi\AppData\Local\Temp\ccbUglnk.s:319    .text.hwaddr_parse:0000000000000008 .L0 
C:\Users\stapi\AppData\Local\Temp\ccbUglnk.s:321    .text.hwaddr_parse:0000000000000008 .L0 
C:\Users\stapi\AppData\Local\Temp\ccbUglnk.s:323    .text.hwaddr_parse:0000000000000008 .L0 
C:\Users\stapi\AppData\Local\Temp\ccbUglnk.s:324    .text.hwaddr_parse:0000000000000008 .L0 
C:\Users\stapi\AppData\Local\Temp\ccbUglnk.s:325    .text.hwaddr_parse:0000000000000008 .L0 
C:\Users\stapi\AppData\Local\Temp\ccbUglnk.s:328    .text.hwaddr_parse:000000000000000c .L0 
C:\Users\stapi\AppData\Local\Temp\ccbUglnk.s:331    .text.hwaddr_parse:000000000000000e .L0 
C:\Users\stapi\AppData\Local\Temp\ccbUglnk.s:333    .text.hwaddr_parse:0000000000000010 .L0 
C:\Users\stapi\AppData\Local\Temp\ccbUglnk.s:336    .text.hwaddr_parse:0000000000000014 .L0 
C:\Users\stapi\AppData\Local\Temp\ccbUglnk.s:341    .text.hwaddr_parse:0000000000000016 .L0 
C:\Users\stapi\AppData\Local\Temp\ccbUglnk.s:342    .text.hwaddr_parse:0000000000000016 .L0 
C:\Users\stapi\AppData\Local\Temp\ccbUglnk.s:343    .text.hwaddr_parse:0000000000000016 .L0 
C:\Users\stapi\AppData\Local\Temp\ccbUglnk.s:347    .text.hwaddr_parse:0000000000000020 .L0 
C:\Users\stapi\AppData\Local\Temp\ccbUglnk.s:348    .text.hwaddr_parse:0000000000000020 .L0 
C:\Users\stapi\AppData\Local\Temp\ccbUglnk.s:351    .text.hwaddr_parse:0000000000000024 .L0 
C:\Users\stapi\AppData\Local\Temp\ccbUglnk.s:352    .text.hwaddr_parse:0000000000000024 .L0 
C:\Users\stapi\AppData\Local\Temp\ccbUglnk.s:353    .text.hwaddr_parse:0000000000000024 .L0 
C:\Users\stapi\AppData\Local\Temp\ccbUglnk.s:356    .text.hwaddr_parse:000000000000002c .L0 
C:\Users\stapi\AppData\Local\Temp\ccbUglnk.s:357    .text.hwaddr_parse:000000000000002c .L0 
C:\Users\stapi\AppData\Local\Temp\ccbUglnk.s:359    .text.hwaddr_parse:0000000000000030 .L0 
C:\Users\stapi\AppData\Local\Temp\ccbUglnk.s:364    .text.hwaddr_parse:0000000000000032 .L0 
C:\Users\stapi\AppData\Local\Temp\ccbUglnk.s:365    .text.hwaddr_parse:0000000000000032 .L0 
C:\Users\stapi\AppData\Local\Temp\ccbUglnk.s:368    .text.hwaddr_parse:0000000000000034 .L0 
C:\Users\stapi\AppData\Local\Temp\ccbUglnk.s:369    .text.hwaddr_parse:0000000000000034 .L0 
C:\Users\stapi\AppData\Local\Temp\ccbUglnk.s:373    .text.hwaddr_parse:0000000000000038 .L0 
C:\Users\stapi\AppData\Local\Temp\ccbUglnk.s:376    .text.hwaddr_parse:0000000000000042 .L0 
C:\Users\stapi\AppData\Local\Temp\ccbUglnk.s:377    .text.hwaddr_parse:0000000000000042 .L0 
C:\Users\stapi\AppData\Local\Temp\ccbUglnk.s:378    .text.hwaddr_parse:0000000000000042 .L0 
C:\Users\stapi\AppData\Local\Temp\ccbUglnk.s:379    .text.hwaddr_parse:0000000000000042 .L0 
C:\Users\stapi\AppData\Local\Temp\ccbUglnk.s:380    .text.hwaddr_parse:0000000000000042 .L0 
C:\Users\stapi\AppData\Local\Temp\ccbUglnk.s:381    .text.hwaddr_parse:0000000000000042 .L0 
C:\Users\stapi\AppData\Local\Temp\ccbUglnk.s:382    .text.hwaddr_parse:0000000000000042 .L0 
C:\Users\stapi\AppData\Local\Temp\ccbUglnk.s:383    .text.hwaddr_parse:0000000000000042 .L0 
C:\Users\stapi\AppData\Local\Temp\ccbUglnk.s:384    .text.hwaddr_parse:0000000000000042 .L0 
C:\Users\stapi\AppData\Local\Temp\ccbUglnk.s:387    .text.hwaddr_parse:0000000000000042 .L0 
C:\Users\stapi\AppData\Local\Temp\ccbUglnk.s:390    .text.hwaddr_parse:0000000000000042 .L0 
C:\Users\stapi\AppData\Local\Temp\ccbUglnk.s:393    .text.hwaddr_parse:0000000000000046 .L0 
C:\Users\stapi\AppData\Local\Temp\ccbUglnk.s:396    .text.hwaddr_parse:000000000000004e .L0 
C:\Users\stapi\AppData\Local\Temp\ccbUglnk.s:401    .text.hwaddr_parse:0000000000000052 .L0 
C:\Users\stapi\AppData\Local\Temp\ccbUglnk.s:404    .text.hwaddr_parse:0000000000000056 .L0 
C:\Users\stapi\AppData\Local\Temp\ccbUglnk.s:411    .text.hwaddr_aton:0000000000000000 hwaddr_aton
C:\Users\stapi\AppData\Local\Temp\ccbUglnk.s:414    .text.hwaddr_aton:0000000000000000 .L0 
C:\Users\stapi\AppData\Local\Temp\ccbUglnk.s:416    .text.hwaddr_aton:0000000000000000 .L0 
C:\Users\stapi\AppData\Local\Temp\ccbUglnk.s:417    .text.hwaddr_aton:0000000000000008 .L0 
C:\Users\stapi\AppData\Local\Temp\ccbUglnk.s:418    .text.hwaddr_aton:0000000000000008 .L0 
C:\Users\stapi\AppData\Local\Temp\ccbUglnk.s:420    .text.hwaddr_aton:0000000000000008 .L0 
C:\Users\stapi\AppData\Local\Temp\ccbUglnk.s:421    .text.hwaddr_aton:0000000000000008 .L0 
C:\Users\stapi\AppData\Local\Temp\ccbUglnk.s:424    .text.hwaddr_aton:0000000000000010 .L0 
C:\Users\stapi\AppData\Local\Temp\ccbUglnk.s:426    .text.hwaddr_aton:0000000000000014 .L0 
C:\Users\stapi\AppData\Local\Temp\ccbUglnk.s:428    .text.hwaddr_aton:0000000000000020 .L0 
C:\Users\stapi\AppData\Local\Temp\ccbUglnk.s:429    .text.hwaddr_aton:0000000000000020 .L0 
C:\Users\stapi\AppData\Local\Temp\ccbUglnk.s:430    .text.hwaddr_aton:0000000000000020 .L0 
C:\Users\stapi\AppData\Local\Temp\ccbUglnk.s:437    .text.hwaddr_masked_aton:0000000000000000 hwaddr_masked_aton
C:\Users\stapi\AppData\Local\Temp\ccbUglnk.s:440    .text.hwaddr_masked_aton:0000000000000000 .L0 
C:\Users\stapi\AppData\Local\Temp\ccbUglnk.s:442    .text.hwaddr_masked_aton:0000000000000000 .L0 
C:\Users\stapi\AppData\Local\Temp\ccbUglnk.s:443    .text.hwaddr_masked_aton:0000000000000008 .L0 
C:\Users\stapi\AppData\Local\Temp\ccbUglnk.s:444    .text.hwaddr_masked_aton:0000000000000008 .L0 
C:\Users\stapi\AppData\Local\Temp\ccbUglnk.s:445    .text.hwaddr_masked_aton:0000000000000008 .L0 
C:\Users\stapi\AppData\Local\Temp\ccbUglnk.s:446    .text.hwaddr_masked_aton:0000000000000008 .L0 
C:\Users\stapi\AppData\Local\Temp\ccbUglnk.s:448    .text.hwaddr_masked_aton:0000000000000008 .L0 
C:\Users\stapi\AppData\Local\Temp\ccbUglnk.s:449    .text.hwaddr_masked_aton:0000000000000008 .L0 
C:\Users\stapi\AppData\Local\Temp\ccbUglnk.s:450    .text.hwaddr_masked_aton:0000000000000008 .L0 
C:\Users\stapi\AppData\Local\Temp\ccbUglnk.s:453    .text.hwaddr_masked_aton:000000000000000c .L0 
C:\Users\stapi\AppData\Local\Temp\ccbUglnk.s:456    .text.hwaddr_masked_aton:0000000000000014 .L0 
C:\Users\stapi\AppData\Local\Temp\ccbUglnk.s:457    .text.hwaddr_masked_aton:0000000000000014 .L0 
C:\Users\stapi\AppData\Local\Temp\ccbUglnk.s:460    .text.hwaddr_masked_aton:0000000000000018 .L0 
C:\Users\stapi\AppData\Local\Temp\ccbUglnk.s:461    .text.hwaddr_masked_aton:0000000000000018 .L0 
C:\Users\stapi\AppData\Local\Temp\ccbUglnk.s:463    .text.hwaddr_masked_aton:000000000000001c .L0 
C:\Users\stapi\AppData\Local\Temp\ccbUglnk.s:465    .text.hwaddr_masked_aton:000000000000001e .L0 
C:\Users\stapi\AppData\Local\Temp\ccbUglnk.s:470    .text.hwaddr_masked_aton:000000000000002c .L0 
C:\Users\stapi\AppData\Local\Temp\ccbUglnk.s:475    .text.hwaddr_masked_aton:0000000000000034 .L0 
C:\Users\stapi\AppData\Local\Temp\ccbUglnk.s:482    .text.hwaddr_masked_aton:0000000000000044 .L0 
C:\Users\stapi\AppData\Local\Temp\ccbUglnk.s:485    .text.hwaddr_masked_aton:0000000000000046 .L0 
C:\Users\stapi\AppData\Local\Temp\ccbUglnk.s:486    .text.hwaddr_masked_aton:000000000000004e .L0 
C:\Users\stapi\AppData\Local\Temp\ccbUglnk.s:487    .text.hwaddr_masked_aton:000000000000004e .L0 
C:\Users\stapi\AppData\Local\Temp\ccbUglnk.s:488    .text.hwaddr_masked_aton:000000000000004e .L0 
C:\Users\stapi\AppData\Local\Temp\ccbUglnk.s:489    .text.hwaddr_masked_aton:000000000000004e .L0 
C:\Users\stapi\AppData\Local\Temp\ccbUglnk.s:490    .text.hwaddr_masked_aton:000000000000004e .L0 
C:\Users\stapi\AppData\Local\Temp\ccbUglnk.s:493    .text.hwaddr_masked_aton:000000000000004e .L0 
C:\Users\stapi\AppData\Local\Temp\ccbUglnk.s:495    .text.hwaddr_masked_aton:000000000000004e .L0 
C:\Users\stapi\AppData\Local\Temp\ccbUglnk.s:496    .text.hwaddr_masked_aton:000000000000004e .L0 
C:\Users\stapi\AppData\Local\Temp\ccbUglnk.s:499    .text.hwaddr_masked_aton:0000000000000050 .L0 
C:\Users\stapi\AppData\Local\Temp\ccbUglnk.s:501    .text.hwaddr_masked_aton:0000000000000052 .L0 
C:\Users\stapi\AppData\Local\Temp\ccbUglnk.s:504    .text.hwaddr_masked_aton:000000000000005a .L0 
C:\Users\stapi\AppData\Local\Temp\ccbUglnk.s:505    .text.hwaddr_masked_aton:000000000000005a .L0 
C:\Users\stapi\AppData\Local\Temp\ccbUglnk.s:510    .text.hwaddr_masked_aton:0000000000000068 .L0 
C:\Users\stapi\AppData\Local\Temp\ccbUglnk.s:511    .text.hwaddr_masked_aton:0000000000000068 .L0 
C:\Users\stapi\AppData\Local\Temp\ccbUglnk.s:518    .text.hwaddr_masked_aton:0000000000000072 .L0 
C:\Users\stapi\AppData\Local\Temp\ccbUglnk.s:521    .text.hwaddr_masked_aton:0000000000000076 .L0 
C:\Users\stapi\AppData\Local\Temp\ccbUglnk.s:528    .text.hwaddr_compact_aton:0000000000000000 hwaddr_compact_aton
C:\Users\stapi\AppData\Local\Temp\ccbUglnk.s:531    .text.hwaddr_compact_aton:0000000000000000 .L0 
C:\Users\stapi\AppData\Local\Temp\ccbUglnk.s:533    .text.hwaddr_compact_aton:0000000000000000 .L0 
C:\Users\stapi\AppData\Local\Temp\ccbUglnk.s:534    .text.hwaddr_compact_aton:0000000000000008 .L0 
C:\Users\stapi\AppData\Local\Temp\ccbUglnk.s:535    .text.hwaddr_compact_aton:0000000000000008 .L0 
C:\Users\stapi\AppData\Local\Temp\ccbUglnk.s:536    .text.hwaddr_compact_aton:0000000000000008 .L0 
C:\Users\stapi\AppData\Local\Temp\ccbUglnk.s:537    .text.hwaddr_compact_aton:0000000000000008 .L0 
C:\Users\stapi\AppData\Local\Temp\ccbUglnk.s:538    .text.hwaddr_compact_aton:0000000000000008 .L0 
C:\Users\stapi\AppData\Local\Temp\ccbUglnk.s:539    .text.hwaddr_compact_aton:0000000000000008 .L0 
C:\Users\stapi\AppData\Local\Temp\ccbUglnk.s:540    .text.hwaddr_compact_aton:0000000000000008 .L0 
C:\Users\stapi\AppData\Local\Temp\ccbUglnk.s:542    .text.hwaddr_compact_aton:0000000000000008 .L0 
C:\Users\stapi\AppData\Local\Temp\ccbUglnk.s:544    .text.hwaddr_compact_aton:0000000000000008 .L0 
C:\Users\stapi\AppData\Local\Temp\ccbUglnk.s:545    .text.hwaddr_compact_aton:0000000000000008 .L0 
C:\Users\stapi\AppData\Local\Temp\ccbUglnk.s:548    .text.hwaddr_compact_aton:000000000000000c .L0 
C:\Users\stapi\AppData\Local\Temp\ccbUglnk.s:549    .text.hwaddr_compact_aton:000000000000000c .L0 
C:\Users\stapi\AppData\Local\Temp\ccbUglnk.s:551    .text.hwaddr_compact_aton:000000000000000e .L0 
C:\Users\stapi\AppData\Local\Temp\ccbUglnk.s:556    .text.hwaddr_compact_aton:0000000000000010 .L0 
C:\Users\stapi\AppData\Local\Temp\ccbUglnk.s:557    .text.hwaddr_compact_aton:0000000000000010 .L0 
C:\Users\stapi\AppData\Local\Temp\ccbUglnk.s:558    .text.hwaddr_compact_aton:0000000000000010 .L0 
C:\Users\stapi\AppData\Local\Temp\ccbUglnk.s:564    .text.hwaddr_compact_aton:000000000000001e .L0 
C:\Users\stapi\AppData\Local\Temp\ccbUglnk.s:565    .text.hwaddr_compact_aton:000000000000001e .L0 
C:\Users\stapi\AppData\Local\Temp\ccbUglnk.s:567    .text.hwaddr_compact_aton:0000000000000022 .L0 
C:\Users\stapi\AppData\Local\Temp\ccbUglnk.s:570    .text.hwaddr_compact_aton:0000000000000024 .L0 
C:\Users\stapi\AppData\Local\Temp\ccbUglnk.s:574    .text.hwaddr_compact_aton:0000000000000030 .L0 
C:\Users\stapi\AppData\Local\Temp\ccbUglnk.s:575    .text.hwaddr_compact_aton:0000000000000030 .L0 
C:\Users\stapi\AppData\Local\Temp\ccbUglnk.s:578    .text.hwaddr_compact_aton:0000000000000034 .L0 
C:\Users\stapi\AppData\Local\Temp\ccbUglnk.s:579    .text.hwaddr_compact_aton:0000000000000034 .L0 
C:\Users\stapi\AppData\Local\Temp\ccbUglnk.s:582    .text.hwaddr_compact_aton:0000000000000036 .L0 
C:\Users\stapi\AppData\Local\Temp\ccbUglnk.s:584    .text.hwaddr_compact_aton:000000000000003a .L0 
C:\Users\stapi\AppData\Local\Temp\ccbUglnk.s:586    .text.hwaddr_compact_aton:000000000000003c .L0 
C:\Users\stapi\AppData\Local\Temp\ccbUglnk.s:589    .text.hwaddr_compact_aton:0000000000000040 .L0 
C:\Users\stapi\AppData\Local\Temp\ccbUglnk.s:590    .text.hwaddr_compact_aton:0000000000000040 .L0 
C:\Users\stapi\AppData\Local\Temp\ccbUglnk.s:593    .text.hwaddr_compact_aton:0000000000000042 .L0 
C:\Users\stapi\AppData\Local\Temp\ccbUglnk.s:594    .text.hwaddr_compact_aton:0000000000000042 .L0 
C:\Users\stapi\AppData\Local\Temp\ccbUglnk.s:596    .text.hwaddr_compact_aton:0000000000000046 .L0 
C:\Users\stapi\AppData\Local\Temp\ccbUglnk.s:600    .text.hwaddr_compact_aton:0000000000000048 .L0 
C:\Users\stapi\AppData\Local\Temp\ccbUglnk.s:601    .text.hwaddr_compact_aton:0000000000000050 .L0 
C:\Users\stapi\AppData\Local\Temp\ccbUglnk.s:602    .text.hwaddr_compact_aton:0000000000000050 .L0 
C:\Users\stapi\AppData\Local\Temp\ccbUglnk.s:603    .text.hwaddr_compact_aton:0000000000000050 .L0 
C:\Users\stapi\AppData\Local\Temp\ccbUglnk.s:604    .text.hwaddr_compact_aton:0000000000000050 .L0 
C:\Users\stapi\AppData\Local\Temp\ccbUglnk.s:605    .text.hwaddr_compact_aton:0000000000000050 .L0 
C:\Users\stapi\AppData\Local\Temp\ccbUglnk.s:606    .text.hwaddr_compact_aton:0000000000000050 .L0 
C:\Users\stapi\AppData\Local\Temp\ccbUglnk.s:607    .text.hwaddr_compact_aton:0000000000000050 .L0 
C:\Users\stapi\AppData\Local\Temp\ccbUglnk.s:608    .text.hwaddr_compact_aton:0000000000000050 .L0 
C:\Users\stapi\AppData\Local\Temp\ccbUglnk.s:611    .text.hwaddr_compact_aton:0000000000000050 .L0 
C:\Users\stapi\AppData\Local\Temp\ccbUglnk.s:614    .text.hwaddr_compact_aton:0000000000000050 .L0 
C:\Users\stapi\AppData\Local\Temp\ccbUglnk.s:617    .text.hwaddr_compact_aton:0000000000000054 .L0 
C:\Users\stapi\AppData\Local\Temp\ccbUglnk.s:624    .text.hwaddr_aton2:0000000000000000 hwaddr_aton2
C:\Users\stapi\AppData\Local\Temp\ccbUglnk.s:627    .text.hwaddr_aton2:0000000000000000 .L0 
C:\Users\stapi\AppData\Local\Temp\ccbUglnk.s:629    .text.hwaddr_aton2:0000000000000000 .L0 
C:\Users\stapi\AppData\Local\Temp\ccbUglnk.s:630    .text.hwaddr_aton2:0000000000000008 .L0 
C:\Users\stapi\AppData\Local\Temp\ccbUglnk.s:631    .text.hwaddr_aton2:0000000000000008 .L0 
C:\Users\stapi\AppData\Local\Temp\ccbUglnk.s:632    .text.hwaddr_aton2:0000000000000008 .L0 
C:\Users\stapi\AppData\Local\Temp\ccbUglnk.s:633    .text.hwaddr_aton2:0000000000000008 .L0 
C:\Users\stapi\AppData\Local\Temp\ccbUglnk.s:634    .text.hwaddr_aton2:0000000000000008 .L0 
C:\Users\stapi\AppData\Local\Temp\ccbUglnk.s:635    .text.hwaddr_aton2:0000000000000008 .L0 
C:\Users\stapi\AppData\Local\Temp\ccbUglnk.s:636    .text.hwaddr_aton2:0000000000000008 .L0 
C:\Users\stapi\AppData\Local\Temp\ccbUglnk.s:637    .text.hwaddr_aton2:0000000000000008 .L0 
C:\Users\stapi\AppData\Local\Temp\ccbUglnk.s:638    .text.hwaddr_aton2:0000000000000008 .L0 
C:\Users\stapi\AppData\Local\Temp\ccbUglnk.s:639    .text.hwaddr_aton2:0000000000000008 .L0 
C:\Users\stapi\AppData\Local\Temp\ccbUglnk.s:640    .text.hwaddr_aton2:0000000000000008 .L0 
C:\Users\stapi\AppData\Local\Temp\ccbUglnk.s:642    .text.hwaddr_aton2:0000000000000008 .L0 
C:\Users\stapi\AppData\Local\Temp\ccbUglnk.s:644    .text.hwaddr_aton2:0000000000000008 .L0 
C:\Users\stapi\AppData\Local\Temp\ccbUglnk.s:645    .text.hwaddr_aton2:0000000000000008 .L0 
C:\Users\stapi\AppData\Local\Temp\ccbUglnk.s:646    .text.hwaddr_aton2:0000000000000008 .L0 
C:\Users\stapi\AppData\Local\Temp\ccbUglnk.s:649    .text.hwaddr_aton2:000000000000000c .L0 
C:\Users\stapi\AppData\Local\Temp\ccbUglnk.s:650    .text.hwaddr_aton2:000000000000000c .L0 
C:\Users\stapi\AppData\Local\Temp\ccbUglnk.s:652    .text.hwaddr_aton2:000000000000000e .L0 
C:\Users\stapi\AppData\Local\Temp\ccbUglnk.s:655    .text.hwaddr_aton2:0000000000000010 .L0 
C:\Users\stapi\AppData\Local\Temp\ccbUglnk.s:657    .text.hwaddr_aton2:0000000000000014 .L0 
C:\Users\stapi\AppData\Local\Temp\ccbUglnk.s:660    .text.hwaddr_aton2:0000000000000016 .L0 
C:\Users\stapi\AppData\Local\Temp\ccbUglnk.s:664    .text.hwaddr_aton2:0000000000000018 .L0 
C:\Users\stapi\AppData\Local\Temp\ccbUglnk.s:670    .text.hwaddr_aton2:000000000000001c .L0 
C:\Users\stapi\AppData\Local\Temp\ccbUglnk.s:671    .text.hwaddr_aton2:000000000000001c .L0 
C:\Users\stapi\AppData\Local\Temp\ccbUglnk.s:675    .text.hwaddr_aton2:000000000000001e .L0 
C:\Users\stapi\AppData\Local\Temp\ccbUglnk.s:676    .text.hwaddr_aton2:000000000000001e .L0 
C:\Users\stapi\AppData\Local\Temp\ccbUglnk.s:678    .text.hwaddr_aton2:0000000000000022 .L0 
C:\Users\stapi\AppData\Local\Temp\ccbUglnk.s:680    .text.hwaddr_aton2:0000000000000026 .L0 
C:\Users\stapi\AppData\Local\Temp\ccbUglnk.s:685    .text.hwaddr_aton2:0000000000000032 .L0 
C:\Users\stapi\AppData\Local\Temp\ccbUglnk.s:686    .text.hwaddr_aton2:0000000000000032 .L0 
C:\Users\stapi\AppData\Local\Temp\ccbUglnk.s:691    .text.hwaddr_aton2:000000000000003c .L0 
C:\Users\stapi\AppData\Local\Temp\ccbUglnk.s:692    .text.hwaddr_aton2:000000000000003c .L0 
C:\Users\stapi\AppData\Local\Temp\ccbUglnk.s:694    .text.hwaddr_aton2:0000000000000040 .L0 
C:\Users\stapi\AppData\Local\Temp\ccbUglnk.s:695    .text.hwaddr_aton2:0000000000000040 .L0 
C:\Users\stapi\AppData\Local\Temp\ccbUglnk.s:698    .text.hwaddr_aton2:0000000000000044 .L0 
C:\Users\stapi\AppData\Local\Temp\ccbUglnk.s:702    .text.hwaddr_aton2:0000000000000050 .L0 
C:\Users\stapi\AppData\Local\Temp\ccbUglnk.s:703    .text.hwaddr_aton2:0000000000000050 .L0 
C:\Users\stapi\AppData\Local\Temp\ccbUglnk.s:706    .text.hwaddr_aton2:0000000000000054 .L0 
C:\Users\stapi\AppData\Local\Temp\ccbUglnk.s:707    .text.hwaddr_aton2:0000000000000054 .L0 
C:\Users\stapi\AppData\Local\Temp\ccbUglnk.s:710    .text.hwaddr_aton2:0000000000000056 .L0 
C:\Users\stapi\AppData\Local\Temp\ccbUglnk.s:712    .text.hwaddr_aton2:000000000000005a .L0 
C:\Users\stapi\AppData\Local\Temp\ccbUglnk.s:714    .text.hwaddr_aton2:000000000000005c .L0 
C:\Users\stapi\AppData\Local\Temp\ccbUglnk.s:717    .text.hwaddr_aton2:0000000000000060 .L0 
C:\Users\stapi\AppData\Local\Temp\ccbUglnk.s:718    .text.hwaddr_aton2:0000000000000060 .L0 
C:\Users\stapi\AppData\Local\Temp\ccbUglnk.s:721    .text.hwaddr_aton2:0000000000000062 .L0 
C:\Users\stapi\AppData\Local\Temp\ccbUglnk.s:722    .text.hwaddr_aton2:0000000000000062 .L0 
C:\Users\stapi\AppData\Local\Temp\ccbUglnk.s:724    .text.hwaddr_aton2:0000000000000066 .L0 
C:\Users\stapi\AppData\Local\Temp\ccbUglnk.s:725    .text.hwaddr_aton2:0000000000000066 .L0 
C:\Users\stapi\AppData\Local\Temp\ccbUglnk.s:729    .text.hwaddr_aton2:000000000000006a .L0 
C:\Users\stapi\AppData\Local\Temp\ccbUglnk.s:730    .text.hwaddr_aton2:0000000000000072 .L0 
C:\Users\stapi\AppData\Local\Temp\ccbUglnk.s:731    .text.hwaddr_aton2:0000000000000072 .L0 
C:\Users\stapi\AppData\Local\Temp\ccbUglnk.s:732    .text.hwaddr_aton2:0000000000000072 .L0 
C:\Users\stapi\AppData\Local\Temp\ccbUglnk.s:733    .text.hwaddr_aton2:0000000000000072 .L0 
C:\Users\stapi\AppData\Local\Temp\ccbUglnk.s:734    .text.hwaddr_aton2:0000000000000072 .L0 
C:\Users\stapi\AppData\Local\Temp\ccbUglnk.s:735    .text.hwaddr_aton2:0000000000000072 .L0 
C:\Users\stapi\AppData\Local\Temp\ccbUglnk.s:736    .text.hwaddr_aton2:0000000000000072 .L0 
C:\Users\stapi\AppData\Local\Temp\ccbUglnk.s:737    .text.hwaddr_aton2:0000000000000072 .L0 
C:\Users\stapi\AppData\Local\Temp\ccbUglnk.s:738    .text.hwaddr_aton2:0000000000000072 .L0 
C:\Users\stapi\AppData\Local\Temp\ccbUglnk.s:739    .text.hwaddr_aton2:0000000000000072 .L0 
C:\Users\stapi\AppData\Local\Temp\ccbUglnk.s:740    .text.hwaddr_aton2:0000000000000072 .L0 
C:\Users\stapi\AppData\Local\Temp\ccbUglnk.s:741    .text.hwaddr_aton2:0000000000000072 .L0 
C:\Users\stapi\AppData\Local\Temp\ccbUglnk.s:744    .text.hwaddr_aton2:0000000000000072 .L0 
C:\Users\stapi\AppData\Local\Temp\ccbUglnk.s:747    .text.hwaddr_aton2:0000000000000072 .L0 
C:\Users\stapi\AppData\Local\Temp\ccbUglnk.s:750    .text.hwaddr_aton2:0000000000000076 .L0 
C:\Users\stapi\AppData\Local\Temp\ccbUglnk.s:757    .text.hexstr2bin:0000000000000000 hexstr2bin
C:\Users\stapi\AppData\Local\Temp\ccbUglnk.s:760    .text.hexstr2bin:0000000000000000 .L0 
C:\Users\stapi\AppData\Local\Temp\ccbUglnk.s:762    .text.hexstr2bin:0000000000000000 .L0 
C:\Users\stapi\AppData\Local\Temp\ccbUglnk.s:763    .text.hexstr2bin:0000000000000008 .L0 
C:\Users\stapi\AppData\Local\Temp\ccbUglnk.s:764    .text.hexstr2bin:0000000000000008 .L0 
C:\Users\stapi\AppData\Local\Temp\ccbUglnk.s:765    .text.hexstr2bin:0000000000000008 .L0 
C:\Users\stapi\AppData\Local\Temp\ccbUglnk.s:766    .text.hexstr2bin:0000000000000008 .L0 
C:\Users\stapi\AppData\Local\Temp\ccbUglnk.s:767    .text.hexstr2bin:0000000000000008 .L0 
C:\Users\stapi\AppData\Local\Temp\ccbUglnk.s:769    .text.hexstr2bin:0000000000000008 .L0 
C:\Users\stapi\AppData\Local\Temp\ccbUglnk.s:770    .text.hexstr2bin:0000000000000008 .L0 
C:\Users\stapi\AppData\Local\Temp\ccbUglnk.s:771    .text.hexstr2bin:0000000000000008 .L0 
C:\Users\stapi\AppData\Local\Temp\ccbUglnk.s:772    .text.hexstr2bin:0000000000000008 .L0 
C:\Users\stapi\AppData\Local\Temp\ccbUglnk.s:775    .text.hexstr2bin:000000000000000a .L0 
C:\Users\stapi\AppData\Local\Temp\ccbUglnk.s:776    .text.hexstr2bin:000000000000000a .L0 
C:\Users\stapi\AppData\Local\Temp\ccbUglnk.s:777    .text.hexstr2bin:000000000000000a .L0 
C:\Users\stapi\AppData\Local\Temp\ccbUglnk.s:782    .text.hexstr2bin:0000000000000010 .L0 
C:\Users\stapi\AppData\Local\Temp\ccbUglnk.s:783    .text.hexstr2bin:0000000000000010 .L0 
C:\Users\stapi\AppData\Local\Temp\ccbUglnk.s:785    .text.hexstr2bin:0000000000000014 .L0 
C:\Users\stapi\AppData\Local\Temp\ccbUglnk.s:788    .text.hexstr2bin:0000000000000016 .L0 
C:\Users\stapi\AppData\Local\Temp\ccbUglnk.s:789    .text.hexstr2bin:000000000000001e .L0 
C:\Users\stapi\AppData\Local\Temp\ccbUglnk.s:790    .text.hexstr2bin:000000000000001e .L0 
C:\Users\stapi\AppData\Local\Temp\ccbUglnk.s:791    .text.hexstr2bin:000000000000001e .L0 
C:\Users\stapi\AppData\Local\Temp\ccbUglnk.s:792    .text.hexstr2bin:000000000000001e .L0 
C:\Users\stapi\AppData\Local\Temp\ccbUglnk.s:793    .text.hexstr2bin:000000000000001e .L0 
C:\Users\stapi\AppData\Local\Temp\ccbUglnk.s:794    .text.hexstr2bin:000000000000001e .L0 
C:\Users\stapi\AppData\Local\Temp\ccbUglnk.s:796    .text.hexstr2bin:000000000000001e .L0 
C:\Users\stapi\AppData\Local\Temp\ccbUglnk.s:798    .text.hexstr2bin:000000000000001e .L0 
C:\Users\stapi\AppData\Local\Temp\ccbUglnk.s:799    .text.hexstr2bin:000000000000001e .L0 
C:\Users\stapi\AppData\Local\Temp\ccbUglnk.s:803    .text.hexstr2bin:0000000000000028 .L0 
C:\Users\stapi\AppData\Local\Temp\ccbUglnk.s:804    .text.hexstr2bin:0000000000000028 .L0 
C:\Users\stapi\AppData\Local\Temp\ccbUglnk.s:806    .text.hexstr2bin:000000000000002c .L0 
C:\Users\stapi\AppData\Local\Temp\ccbUglnk.s:807    .text.hexstr2bin:000000000000002c .L0 
C:\Users\stapi\AppData\Local\Temp\ccbUglnk.s:810    .text.hexstr2bin:000000000000002e .L0 
C:\Users\stapi\AppData\Local\Temp\ccbUglnk.s:813    .text.hexstr2bin:0000000000000030 .L0 
C:\Users\stapi\AppData\Local\Temp\ccbUglnk.s:816    .text.hexstr2bin:0000000000000034 .L0 
C:\Users\stapi\AppData\Local\Temp\ccbUglnk.s:817    .text.hexstr2bin:0000000000000034 .L0 
C:\Users\stapi\AppData\Local\Temp\ccbUglnk.s:820    .text.hexstr2bin:0000000000000036 .L0 
C:\Users\stapi\AppData\Local\Temp\ccbUglnk.s:823    .text.hexstr2bin:000000000000003a .L0 
C:\Users\stapi\AppData\Local\Temp\ccbUglnk.s:837    .text.hwaddr_mask_txt:0000000000000000 hwaddr_mask_txt
C:\Users\stapi\AppData\Local\Temp\ccbUglnk.s:840    .text.hwaddr_mask_txt:0000000000000000 .L0 
C:\Users\stapi\AppData\Local\Temp\ccbUglnk.s:842    .text.hwaddr_mask_txt:0000000000000000 .L0 
C:\Users\stapi\AppData\Local\Temp\ccbUglnk.s:843    .text.hwaddr_mask_txt:0000000000000008 .L0 
C:\Users\stapi\AppData\Local\Temp\ccbUglnk.s:844    .text.hwaddr_mask_txt:0000000000000008 .L0 
C:\Users\stapi\AppData\Local\Temp\ccbUglnk.s:845    .text.hwaddr_mask_txt:0000000000000008 .L0 
C:\Users\stapi\AppData\Local\Temp\ccbUglnk.s:847    .text.hwaddr_mask_txt:0000000000000008 .L0 
C:\Users\stapi\AppData\Local\Temp\ccbUglnk.s:849    .text.hwaddr_mask_txt:0000000000000008 .L0 
C:\Users\stapi\AppData\Local\Temp\ccbUglnk.s:850    .text.hwaddr_mask_txt:0000000000000008 .L0 
C:\Users\stapi\AppData\Local\Temp\ccbUglnk.s:851    .text.hwaddr_mask_txt:0000000000000008 .L0 
C:\Users\stapi\AppData\Local\Temp\ccbUglnk.s:852    .text.hwaddr_mask_txt:0000000000000008 .L0 
C:\Users\stapi\AppData\Local\Temp\ccbUglnk.s:853    .text.hwaddr_mask_txt:0000000000000008 .L0 
C:\Users\stapi\AppData\Local\Temp\ccbUglnk.s:855    .text.hwaddr_mask_txt:000000000000000c .L0 
C:\Users\stapi\AppData\Local\Temp\ccbUglnk.s:857    .text.hwaddr_mask_txt:000000000000000c .L0 
C:\Users\stapi\AppData\Local\Temp\ccbUglnk.s:859    .text.hwaddr_mask_txt:000000000000000e .L0 
C:\Users\stapi\AppData\Local\Temp\ccbUglnk.s:862    .text.hwaddr_mask_txt:0000000000000012 .L0 
C:\Users\stapi\AppData\Local\Temp\ccbUglnk.s:866    .text.hwaddr_mask_txt:0000000000000014 .L0 
C:\Users\stapi\AppData\Local\Temp\ccbUglnk.s:867    .text.hwaddr_mask_txt:0000000000000014 .L0 
C:\Users\stapi\AppData\Local\Temp\ccbUglnk.s:869    .text.hwaddr_mask_txt:0000000000000018 .L0 
C:\Users\stapi\AppData\Local\Temp\ccbUglnk.s:872    .text.hwaddr_mask_txt:0000000000000020 .L0 
C:\Users\stapi\AppData\Local\Temp\ccbUglnk.s:873    .text.hwaddr_mask_txt:0000000000000020 .L0 
C:\Users\stapi\AppData\Local\Temp\ccbUglnk.s:876    .text.hwaddr_mask_txt:0000000000000022 .L0 
C:\Users\stapi\AppData\Local\Temp\ccbUglnk.s:877    .text.hwaddr_mask_txt:0000000000000022 .L0 
C:\Users\stapi\AppData\Local\Temp\ccbUglnk.s:879    .text.hwaddr_mask_txt:0000000000000026 .L0 
C:\Users\stapi\AppData\Local\Temp\ccbUglnk.s:880    .text.hwaddr_mask_txt:0000000000000026 .L0 
C:\Users\stapi\AppData\Local\Temp\ccbUglnk.s:881    .text.hwaddr_mask_txt:0000000000000026 .L0 
C:\Users\stapi\AppData\Local\Temp\ccbUglnk.s:900    .text.hwaddr_mask_txt:0000000000000054 .L0 
C:\Users\stapi\AppData\Local\Temp\ccbUglnk.s:906    .text.hwaddr_mask_txt:0000000000000058 .L0 
C:\Users\stapi\AppData\Local\Temp\ccbUglnk.s:907    .text.hwaddr_mask_txt:0000000000000058 .L0 
C:\Users\stapi\AppData\Local\Temp\ccbUglnk.s:908    .text.hwaddr_mask_txt:0000000000000058 .L0 
C:\Users\stapi\AppData\Local\Temp\ccbUglnk.s:939    .text.hwaddr_mask_txt:00000000000000a8 .L0 
C:\Users\stapi\AppData\Local\Temp\ccbUglnk.s:940    .text.hwaddr_mask_txt:00000000000000a8 .L0 
C:\Users\stapi\AppData\Local\Temp\ccbUglnk.s:941    .text.hwaddr_mask_txt:00000000000000a8 .L0 
C:\Users\stapi\AppData\Local\Temp\ccbUglnk.s:948    .text.hwaddr_mask_txt:00000000000000b0 .L0 
C:\Users\stapi\AppData\Local\Temp\ccbUglnk.s:949    .text.hwaddr_mask_txt:00000000000000b2 .L0 
C:\Users\stapi\AppData\Local\Temp\ccbUglnk.s:951    .text.hwaddr_mask_txt:00000000000000ba .L0 
C:\Users\stapi\AppData\Local\Temp\ccbUglnk.s:952    .text.hwaddr_mask_txt:00000000000000ba .L0 
C:\Users\stapi\AppData\Local\Temp\ccbUglnk.s:953    .text.hwaddr_mask_txt:00000000000000ba .L0 
C:\Users\stapi\AppData\Local\Temp\ccbUglnk.s:954    .text.hwaddr_mask_txt:00000000000000ba .L0 
C:\Users\stapi\AppData\Local\Temp\ccbUglnk.s:961    .text.inc_byte_array:0000000000000000 inc_byte_array
C:\Users\stapi\AppData\Local\Temp\ccbUglnk.s:964    .text.inc_byte_array:0000000000000000 .L0 
C:\Users\stapi\AppData\Local\Temp\ccbUglnk.s:967    .text.inc_byte_array:0000000000000000 .L0 
C:\Users\stapi\AppData\Local\Temp\ccbUglnk.s:968    .text.inc_byte_array:0000000000000000 .L0 
C:\Users\stapi\AppData\Local\Temp\ccbUglnk.s:969    .text.inc_byte_array:0000000000000000 .L0 
C:\Users\stapi\AppData\Local\Temp\ccbUglnk.s:972    .text.inc_byte_array:0000000000000002 .L0 
C:\Users\stapi\AppData\Local\Temp\ccbUglnk.s:974    .text.inc_byte_array:0000000000000006 .L0 
C:\Users\stapi\AppData\Local\Temp\ccbUglnk.s:976    .text.inc_byte_array:000000000000000a .L0 
C:\Users\stapi\AppData\Local\Temp\ccbUglnk.s:981    .text.inc_byte_array:0000000000000018 .L0 
C:\Users\stapi\AppData\Local\Temp\ccbUglnk.s:982    .text.inc_byte_array:0000000000000018 .L0 
C:\Users\stapi\AppData\Local\Temp\ccbUglnk.s:985    .text.inc_byte_array:000000000000001a .L0 
C:\Users\stapi\AppData\Local\Temp\ccbUglnk.s:986    .text.inc_byte_array:000000000000001c .L0 
C:\Users\stapi\AppData\Local\Temp\ccbUglnk.s:993    .text.buf_shift_right:0000000000000000 buf_shift_right
C:\Users\stapi\AppData\Local\Temp\ccbUglnk.s:996    .text.buf_shift_right:0000000000000000 .L0 
C:\Users\stapi\AppData\Local\Temp\ccbUglnk.s:998    .text.buf_shift_right:0000000000000000 .L0 
C:\Users\stapi\AppData\Local\Temp\ccbUglnk.s:999    .text.buf_shift_right:0000000000000000 .L0 
C:\Users\stapi\AppData\Local\Temp\ccbUglnk.s:1000   .text.buf_shift_right:0000000000000000 .L0 
C:\Users\stapi\AppData\Local\Temp\ccbUglnk.s:1001   .text.buf_shift_right:0000000000000000 .L0 
C:\Users\stapi\AppData\Local\Temp\ccbUglnk.s:1008   .text.buf_shift_right:0000000000000006 .L0 
C:\Users\stapi\AppData\Local\Temp\ccbUglnk.s:1009   .text.buf_shift_right:0000000000000006 .L0 
C:\Users\stapi\AppData\Local\Temp\ccbUglnk.s:1013   .text.buf_shift_right:000000000000000c .L0 
C:\Users\stapi\AppData\Local\Temp\ccbUglnk.s:1014   .text.buf_shift_right:000000000000000c .L0 
C:\Users\stapi\AppData\Local\Temp\ccbUglnk.s:1019   .text.buf_shift_right:0000000000000018 .L0 
C:\Users\stapi\AppData\Local\Temp\ccbUglnk.s:1023   .text.buf_shift_right:000000000000001a .L0 
C:\Users\stapi\AppData\Local\Temp\ccbUglnk.s:1024   .text.buf_shift_right:000000000000001a .L0 
C:\Users\stapi\AppData\Local\Temp\ccbUglnk.s:1026   .text.buf_shift_right:000000000000001e .L0 
C:\Users\stapi\AppData\Local\Temp\ccbUglnk.s:1028   .text.buf_shift_right:0000000000000022 .L0 
C:\Users\stapi\AppData\Local\Temp\ccbUglnk.s:1030   .text.buf_shift_right:0000000000000026 .L0 
C:\Users\stapi\AppData\Local\Temp\ccbUglnk.s:1032   .text.buf_shift_right:000000000000002a .L0 
C:\Users\stapi\AppData\Local\Temp\ccbUglnk.s:1034   .text.buf_shift_right:000000000000002c .L0 
C:\Users\stapi\AppData\Local\Temp\ccbUglnk.s:1037   .text.buf_shift_right:0000000000000030 .L0 
C:\Users\stapi\AppData\Local\Temp\ccbUglnk.s:1038   .text.buf_shift_right:0000000000000032 .L0 
C:\Users\stapi\AppData\Local\Temp\ccbUglnk.s:1045   .text.wpa_get_ntp_timestamp:0000000000000000 wpa_get_ntp_timestamp
C:\Users\stapi\AppData\Local\Temp\ccbUglnk.s:1048   .text.wpa_get_ntp_timestamp:0000000000000000 .L0 
C:\Users\stapi\AppData\Local\Temp\ccbUglnk.s:1050   .text.wpa_get_ntp_timestamp:0000000000000000 .L0 
C:\Users\stapi\AppData\Local\Temp\ccbUglnk.s:1051   .text.wpa_get_ntp_timestamp:0000000000000008 .L0 
C:\Users\stapi\AppData\Local\Temp\ccbUglnk.s:1052   .text.wpa_get_ntp_timestamp:0000000000000008 .L0 
C:\Users\stapi\AppData\Local\Temp\ccbUglnk.s:1053   .text.wpa_get_ntp_timestamp:0000000000000008 .L0 
C:\Users\stapi\AppData\Local\Temp\ccbUglnk.s:1054   .text.wpa_get_ntp_timestamp:0000000000000008 .L0 
C:\Users\stapi\AppData\Local\Temp\ccbUglnk.s:1056   .text.wpa_get_ntp_timestamp:0000000000000008 .L0 
C:\Users\stapi\AppData\Local\Temp\ccbUglnk.s:1057   .text.wpa_get_ntp_timestamp:0000000000000008 .L0 
C:\Users\stapi\AppData\Local\Temp\ccbUglnk.s:1058   .text.wpa_get_ntp_timestamp:0000000000000008 .L0 
C:\Users\stapi\AppData\Local\Temp\ccbUglnk.s:1059   .text.wpa_get_ntp_timestamp:0000000000000008 .L0 
C:\Users\stapi\AppData\Local\Temp\ccbUglnk.s:1060   .text.wpa_get_ntp_timestamp:0000000000000008 .L0 
C:\Users\stapi\AppData\Local\Temp\ccbUglnk.s:1061   .text.wpa_get_ntp_timestamp:000000000000000a .L0 
C:\Users\stapi\AppData\Local\Temp\ccbUglnk.s:1063   .text.wpa_get_ntp_timestamp:000000000000000a .L0 
C:\Users\stapi\AppData\Local\Temp\ccbUglnk.s:1065   .text.wpa_get_ntp_timestamp:000000000000000c .L0 
C:\Users\stapi\AppData\Local\Temp\ccbUglnk.s:1070   .text.wpa_get_ntp_timestamp:0000000000000016 .L0 
C:\Users\stapi\AppData\Local\Temp\ccbUglnk.s:1071   .text.wpa_get_ntp_timestamp:0000000000000016 .L0 
C:\Users\stapi\AppData\Local\Temp\ccbUglnk.s:1072   .text.wpa_get_ntp_timestamp:0000000000000016 .L0 
C:\Users\stapi\AppData\Local\Temp\ccbUglnk.s:1075   .text.wpa_get_ntp_timestamp:0000000000000018 .L0 
C:\Users\stapi\AppData\Local\Temp\ccbUglnk.s:1076   .text.wpa_get_ntp_timestamp:0000000000000018 .L0 
C:\Users\stapi\AppData\Local\Temp\ccbUglnk.s:1080   .text.wpa_get_ntp_timestamp:0000000000000022 .L0 
C:\Users\stapi\AppData\Local\Temp\ccbUglnk.s:1082   .text.wpa_get_ntp_timestamp:0000000000000026 .L0 
C:\Users\stapi\AppData\Local\Temp\ccbUglnk.s:1086   .text.wpa_get_ntp_timestamp:000000000000002a .L0 
C:\Users\stapi\AppData\Local\Temp\ccbUglnk.s:1089   .text.wpa_get_ntp_timestamp:0000000000000032 .L0 
C:\Users\stapi\AppData\Local\Temp\ccbUglnk.s:1093   .text.wpa_get_ntp_timestamp:0000000000000038 .L0 
C:\Users\stapi\AppData\Local\Temp\ccbUglnk.s:1097   .text.wpa_get_ntp_timestamp:000000000000003a .L0 
C:\Users\stapi\AppData\Local\Temp\ccbUglnk.s:1098   .text.wpa_get_ntp_timestamp:000000000000003a .L0 
C:\Users\stapi\AppData\Local\Temp\ccbUglnk.s:1099   .text.wpa_get_ntp_timestamp:000000000000003a .L0 
C:\Users\stapi\AppData\Local\Temp\ccbUglnk.s:1106   .text.wpa_get_ntp_timestamp:0000000000000046 .L0 
C:\Users\stapi\AppData\Local\Temp\ccbUglnk.s:1108   .text.wpa_get_ntp_timestamp:0000000000000048 .L0 
C:\Users\stapi\AppData\Local\Temp\ccbUglnk.s:1111   .text.wpa_get_ntp_timestamp:0000000000000050 .L0 
C:\Users\stapi\AppData\Local\Temp\ccbUglnk.s:1112   .text.wpa_get_ntp_timestamp:0000000000000050 .L0 
C:\Users\stapi\AppData\Local\Temp\ccbUglnk.s:1113   .text.wpa_get_ntp_timestamp:0000000000000050 .L0 
C:\Users\stapi\AppData\Local\Temp\ccbUglnk.s:1117   .text.wpa_get_ntp_timestamp:0000000000000058 .L0 
C:\Users\stapi\AppData\Local\Temp\ccbUglnk.s:1119   .text.wpa_get_ntp_timestamp:000000000000005a .L0 
C:\Users\stapi\AppData\Local\Temp\ccbUglnk.s:1122   .text.wpa_get_ntp_timestamp:0000000000000062 .L0 
C:\Users\stapi\AppData\Local\Temp\ccbUglnk.s:1123   .text.wpa_get_ntp_timestamp:0000000000000064 .L0 
C:\Users\stapi\AppData\Local\Temp\ccbUglnk.s:1125   .text.wpa_get_ntp_timestamp:000000000000006c .L0 
C:\Users\stapi\AppData\Local\Temp\ccbUglnk.s:1126   .text.wpa_get_ntp_timestamp:000000000000006c .L0 
C:\Users\stapi\AppData\Local\Temp\ccbUglnk.s:1127   .text.wpa_get_ntp_timestamp:000000000000006c .L0 
C:\Users\stapi\AppData\Local\Temp\ccbUglnk.s:1128   .text.wpa_get_ntp_timestamp:000000000000006c .L0 
C:\Users\stapi\AppData\Local\Temp\ccbUglnk.s:1129   .text.wpa_get_ntp_timestamp:000000000000006c .L0 
C:\Users\stapi\AppData\Local\Temp\ccbUglnk.s:1136   .text.wpa_scnprintf:0000000000000000 wpa_scnprintf
C:\Users\stapi\AppData\Local\Temp\ccbUglnk.s:1139   .text.wpa_scnprintf:0000000000000000 .L0 
C:\Users\stapi\AppData\Local\Temp\ccbUglnk.s:1141   .text.wpa_scnprintf:0000000000000000 .L0 
C:\Users\stapi\AppData\Local\Temp\ccbUglnk.s:1142   .text.wpa_scnprintf:0000000000000000 .L0 
C:\Users\stapi\AppData\Local\Temp\ccbUglnk.s:1143   .text.wpa_scnprintf:0000000000000000 .L0 
C:\Users\stapi\AppData\Local\Temp\ccbUglnk.s:1144   .text.wpa_scnprintf:0000000000000000 .L0 
C:\Users\stapi\AppData\Local\Temp\ccbUglnk.s:1145   .text.wpa_scnprintf:0000000000000000 .L0 
C:\Users\stapi\AppData\Local\Temp\ccbUglnk.s:1146   .text.wpa_scnprintf:0000000000000002 .L0 
C:\Users\stapi\AppData\Local\Temp\ccbUglnk.s:1149   .text.wpa_scnprintf:0000000000000006 .L0 
C:\Users\stapi\AppData\Local\Temp\ccbUglnk.s:1150   .text.wpa_scnprintf:0000000000000006 .L0 
C:\Users\stapi\AppData\Local\Temp\ccbUglnk.s:1152   .text.wpa_scnprintf:0000000000000006 .L0 
C:\Users\stapi\AppData\Local\Temp\ccbUglnk.s:1158   .text.wpa_scnprintf:0000000000000010 .L0 
C:\Users\stapi\AppData\Local\Temp\ccbUglnk.s:1162   .text.wpa_scnprintf:0000000000000012 .L0 
C:\Users\stapi\AppData\Local\Temp\ccbUglnk.s:1165   .text.wpa_scnprintf:0000000000000014 .L0 
C:\Users\stapi\AppData\Local\Temp\ccbUglnk.s:1166   .text.wpa_scnprintf:0000000000000016 .L0 
C:\Users\stapi\AppData\Local\Temp\ccbUglnk.s:1167   .text.wpa_scnprintf:0000000000000016 .L0 
C:\Users\stapi\AppData\Local\Temp\ccbUglnk.s:1169   .text.wpa_scnprintf:0000000000000018 .L0 
C:\Users\stapi\AppData\Local\Temp\ccbUglnk.s:1171   .text.wpa_scnprintf:000000000000001a .L0 
C:\Users\stapi\AppData\Local\Temp\ccbUglnk.s:1175   .text.wpa_scnprintf:000000000000001c .L0 
C:\Users\stapi\AppData\Local\Temp\ccbUglnk.s:1177   .text.wpa_scnprintf:000000000000001c .L0 
C:\Users\stapi\AppData\Local\Temp\ccbUglnk.s:1179   .text.wpa_scnprintf:000000000000001e .L0 
C:\Users\stapi\AppData\Local\Temp\ccbUglnk.s:1184   .text.wpa_scnprintf:0000000000000024 .L0 
C:\Users\stapi\AppData\Local\Temp\ccbUglnk.s:1186   .text.wpa_scnprintf:0000000000000026 .L0 
C:\Users\stapi\AppData\Local\Temp\ccbUglnk.s:1187   .text.wpa_scnprintf:0000000000000026 .L0 
C:\Users\stapi\AppData\Local\Temp\ccbUglnk.s:1190   .text.wpa_scnprintf:000000000000002e .L0 
C:\Users\stapi\AppData\Local\Temp\ccbUglnk.s:1191   .text.wpa_scnprintf:000000000000002e .L0 
C:\Users\stapi\AppData\Local\Temp\ccbUglnk.s:1192   .text.wpa_scnprintf:000000000000002e .L0 
C:\Users\stapi\AppData\Local\Temp\ccbUglnk.s:1194   .text.wpa_scnprintf:0000000000000032 .L0 
C:\Users\stapi\AppData\Local\Temp\ccbUglnk.s:1195   .text.wpa_scnprintf:0000000000000032 .L0 
C:\Users\stapi\AppData\Local\Temp\ccbUglnk.s:1197   .text.wpa_scnprintf:0000000000000036 .L0 
C:\Users\stapi\AppData\Local\Temp\ccbUglnk.s:1198   .text.wpa_scnprintf:0000000000000036 .L0 
C:\Users\stapi\AppData\Local\Temp\ccbUglnk.s:1201   .text.wpa_scnprintf:000000000000003c .L0 
C:\Users\stapi\AppData\Local\Temp\ccbUglnk.s:1212   .text.wpa_snprintf_hex_sep:0000000000000000 wpa_snprintf_hex_sep
C:\Users\stapi\AppData\Local\Temp\ccbUglnk.s:1215   .text.wpa_snprintf_hex_sep:0000000000000000 .L0 
C:\Users\stapi\AppData\Local\Temp\ccbUglnk.s:1217   .text.wpa_snprintf_hex_sep:0000000000000000 .L0 
C:\Users\stapi\AppData\Local\Temp\ccbUglnk.s:1218   .text.wpa_snprintf_hex_sep:0000000000000000 .L0 
C:\Users\stapi\AppData\Local\Temp\ccbUglnk.s:1219   .text.wpa_snprintf_hex_sep:0000000000000000 .L0 
C:\Users\stapi\AppData\Local\Temp\ccbUglnk.s:1220   .text.wpa_snprintf_hex_sep:0000000000000000 .L0 
C:\Users\stapi\AppData\Local\Temp\ccbUglnk.s:1221   .text.wpa_snprintf_hex_sep:0000000000000000 .L0 
C:\Users\stapi\AppData\Local\Temp\ccbUglnk.s:1222   .text.wpa_snprintf_hex_sep:0000000000000000 .L0 
C:\Users\stapi\AppData\Local\Temp\ccbUglnk.s:1224   .text.wpa_snprintf_hex_sep:0000000000000002 .L0 
C:\Users\stapi\AppData\Local\Temp\ccbUglnk.s:1225   .text.wpa_snprintf_hex_sep:000000000000000a .L0 
C:\Users\stapi\AppData\Local\Temp\ccbUglnk.s:1226   .text.wpa_snprintf_hex_sep:000000000000000a .L0 
C:\Users\stapi\AppData\Local\Temp\ccbUglnk.s:1227   .text.wpa_snprintf_hex_sep:000000000000000a .L0 
C:\Users\stapi\AppData\Local\Temp\ccbUglnk.s:1228   .text.wpa_snprintf_hex_sep:000000000000000a .L0 
C:\Users\stapi\AppData\Local\Temp\ccbUglnk.s:1229   .text.wpa_snprintf_hex_sep:000000000000000a .L0 
C:\Users\stapi\AppData\Local\Temp\ccbUglnk.s:1230   .text.wpa_snprintf_hex_sep:000000000000000a .L0 
C:\Users\stapi\AppData\Local\Temp\ccbUglnk.s:1231   .text.wpa_snprintf_hex_sep:000000000000000a .L0 
C:\Users\stapi\AppData\Local\Temp\ccbUglnk.s:1232   .text.wpa_snprintf_hex_sep:000000000000000a .L0 
C:\Users\stapi\AppData\Local\Temp\ccbUglnk.s:1233   .text.wpa_snprintf_hex_sep:000000000000000a .L0 
C:\Users\stapi\AppData\Local\Temp\ccbUglnk.s:1234   .text.wpa_snprintf_hex_sep:000000000000000a .L0 
C:\Users\stapi\AppData\Local\Temp\ccbUglnk.s:1239   .text.wpa_snprintf_hex_sep:0000000000000010 .L0 
C:\Users\stapi\AppData\Local\Temp\ccbUglnk.s:1242   .text.wpa_snprintf_hex_sep:0000000000000018 .L0 
C:\Users\stapi\AppData\Local\Temp\ccbUglnk.s:1244   .text.wpa_snprintf_hex_sep:000000000000001a .L0 
C:\Users\stapi\AppData\Local\Temp\ccbUglnk.s:1248   .text.wpa_snprintf_hex_sep:000000000000001e .L0 
C:\Users\stapi\AppData\Local\Temp\ccbUglnk.s:1249   .text.wpa_snprintf_hex_sep:000000000000001e .L0 
C:\Users\stapi\AppData\Local\Temp\ccbUglnk.s:1251   .text.wpa_snprintf_hex_sep:0000000000000022 .L0 
C:\Users\stapi\AppData\Local\Temp\ccbUglnk.s:1252   .text.wpa_snprintf_hex_sep:0000000000000022 .L0 
C:\Users\stapi\AppData\Local\Temp\ccbUglnk.s:1256   .text.wpa_snprintf_hex_sep:0000000000000028 .L0 
C:\Users\stapi\AppData\Local\Temp\ccbUglnk.s:1257   .text.wpa_snprintf_hex_sep:0000000000000028 .L0 
C:\Users\stapi\AppData\Local\Temp\ccbUglnk.s:1259   .text.wpa_snprintf_hex_sep:000000000000002c .L0 
C:\Users\stapi\AppData\Local\Temp\ccbUglnk.s:1261   .text.wpa_snprintf_hex_sep:0000000000000030 .L0 
C:\Users\stapi\AppData\Local\Temp\ccbUglnk.s:1270   .text.wpa_snprintf_hex_sep:0000000000000042 .L0 
C:\Users\stapi\AppData\Local\Temp\ccbUglnk.s:1271   .text.wpa_snprintf_hex_sep:0000000000000042 .L0 
C:\Users\stapi\AppData\Local\Temp\ccbUglnk.s:1272   .text.wpa_snprintf_hex_sep:0000000000000042 .L0 
C:\Users\stapi\AppData\Local\Temp\ccbUglnk.s:1280   .text.wpa_snprintf_hex_sep:000000000000004c .L0 
C:\Users\stapi\AppData\Local\Temp\ccbUglnk.s:1281   .text.wpa_snprintf_hex_sep:000000000000004c .L0 
C:\Users\stapi\AppData\Local\Temp\ccbUglnk.s:1284   .text.wpa_snprintf_hex_sep:000000000000004e .L0 
C:\Users\stapi\AppData\Local\Temp\ccbUglnk.s:1288   .text.wpa_snprintf_hex_sep:0000000000000050 .L0 
C:\Users\stapi\AppData\Local\Temp\ccbUglnk.s:1289   .text.wpa_snprintf_hex_sep:0000000000000050 .L0 
C:\Users\stapi\AppData\Local\Temp\ccbUglnk.s:1293   .text.wpa_snprintf_hex_sep:0000000000000054 .L0 
C:\Users\stapi\AppData\Local\Temp\ccbUglnk.s:1294   .text.wpa_snprintf_hex_sep:0000000000000054 .L0 
C:\Users\stapi\AppData\Local\Temp\ccbUglnk.s:1295   .text.wpa_snprintf_hex_sep:0000000000000054 .L0 
C:\Users\stapi\AppData\Local\Temp\ccbUglnk.s:1297   .text.wpa_snprintf_hex_sep:0000000000000058 .L0 
C:\Users\stapi\AppData\Local\Temp\ccbUglnk.s:1298   .text.wpa_snprintf_hex_sep:0000000000000060 .L0 
C:\Users\stapi\AppData\Local\Temp\ccbUglnk.s:1299   .text.wpa_snprintf_hex_sep:0000000000000060 .L0 
C:\Users\stapi\AppData\Local\Temp\ccbUglnk.s:1300   .text.wpa_snprintf_hex_sep:0000000000000060 .L0 
C:\Users\stapi\AppData\Local\Temp\ccbUglnk.s:1301   .text.wpa_snprintf_hex_sep:0000000000000060 .L0 
C:\Users\stapi\AppData\Local\Temp\ccbUglnk.s:1302   .text.wpa_snprintf_hex_sep:0000000000000060 .L0 
C:\Users\stapi\AppData\Local\Temp\ccbUglnk.s:1303   .text.wpa_snprintf_hex_sep:0000000000000060 .L0 
C:\Users\stapi\AppData\Local\Temp\ccbUglnk.s:1304   .text.wpa_snprintf_hex_sep:0000000000000060 .L0 
C:\Users\stapi\AppData\Local\Temp\ccbUglnk.s:1305   .text.wpa_snprintf_hex_sep:0000000000000060 .L0 
C:\Users\stapi\AppData\Local\Temp\ccbUglnk.s:1306   .text.wpa_snprintf_hex_sep:0000000000000060 .L0 
C:\Users\stapi\AppData\Local\Temp\ccbUglnk.s:1307   .text.wpa_snprintf_hex_sep:0000000000000060 .L0 
C:\Users\stapi\AppData\Local\Temp\ccbUglnk.s:1311   .text.wpa_snprintf_hex_sep:0000000000000060 .L0 
C:\Users\stapi\AppData\Local\Temp\ccbUglnk.s:1314   .text.wpa_snprintf_hex_sep:0000000000000062 .L0 
C:\Users\stapi\AppData\Local\Temp\ccbUglnk.s:1315   .text.wpa_snprintf_hex_sep:0000000000000064 .L0 
C:\Users\stapi\AppData\Local\Temp\ccbUglnk.s:1322   .text.wpa_snprintf_hex:0000000000000000 wpa_snprintf_hex
C:\Users\stapi\AppData\Local\Temp\ccbUglnk.s:1325   .text.wpa_snprintf_hex:0000000000000000 .L0 
C:\Users\stapi\AppData\Local\Temp\ccbUglnk.s:1327   .text.wpa_snprintf_hex:0000000000000000 .L0 
C:\Users\stapi\AppData\Local\Temp\ccbUglnk.s:1328   .text.wpa_snprintf_hex:0000000000000000 .L0 
C:\Users\stapi\AppData\Local\Temp\ccbUglnk.s:1329   .text.wpa_snprintf_hex:0000000000000000 .L0 
C:\Users\stapi\AppData\Local\Temp\ccbUglnk.s:1332   .text.wpa_snprintf_hex:000000000000000a .L0 
C:\Users\stapi\AppData\Local\Temp\ccbUglnk.s:1339   .text.wpa_snprintf_hex_uppercase:0000000000000000 wpa_snprintf_hex_uppercase
C:\Users\stapi\AppData\Local\Temp\ccbUglnk.s:1342   .text.wpa_snprintf_hex_uppercase:0000000000000000 .L0 
C:\Users\stapi\AppData\Local\Temp\ccbUglnk.s:1344   .text.wpa_snprintf_hex_uppercase:0000000000000000 .L0 
C:\Users\stapi\AppData\Local\Temp\ccbUglnk.s:1345   .text.wpa_snprintf_hex_uppercase:0000000000000000 .L0 
C:\Users\stapi\AppData\Local\Temp\ccbUglnk.s:1346   .text.wpa_snprintf_hex_uppercase:0000000000000000 .L0 
C:\Users\stapi\AppData\Local\Temp\ccbUglnk.s:1349   .text.wpa_snprintf_hex_uppercase:000000000000000a .L0 
C:\Users\stapi\AppData\Local\Temp\ccbUglnk.s:1360   .text.printf_encode:0000000000000000 printf_encode
C:\Users\stapi\AppData\Local\Temp\ccbUglnk.s:1363   .text.printf_encode:0000000000000000 .L0 
C:\Users\stapi\AppData\Local\Temp\ccbUglnk.s:1365   .text.printf_encode:0000000000000000 .L0 
C:\Users\stapi\AppData\Local\Temp\ccbUglnk.s:1366   .text.printf_encode:0000000000000008 .L0 
C:\Users\stapi\AppData\Local\Temp\ccbUglnk.s:1367   .text.printf_encode:0000000000000008 .L0 
C:\Users\stapi\AppData\Local\Temp\ccbUglnk.s:1368   .text.printf_encode:0000000000000008 .L0 
C:\Users\stapi\AppData\Local\Temp\ccbUglnk.s:1369   .text.printf_encode:0000000000000008 .L0 
C:\Users\stapi\AppData\Local\Temp\ccbUglnk.s:1370   .text.printf_encode:0000000000000008 .L0 
C:\Users\stapi\AppData\Local\Temp\ccbUglnk.s:1371   .text.printf_encode:0000000000000008 .L0 
C:\Users\stapi\AppData\Local\Temp\ccbUglnk.s:1372   .text.printf_encode:0000000000000008 .L0 
C:\Users\stapi\AppData\Local\Temp\ccbUglnk.s:1373   .text.printf_encode:0000000000000008 .L0 
C:\Users\stapi\AppData\Local\Temp\ccbUglnk.s:1374   .text.printf_encode:0000000000000008 .L0 
C:\Users\stapi\AppData\Local\Temp\ccbUglnk.s:1375   .text.printf_encode:0000000000000008 .L0 
C:\Users\stapi\AppData\Local\Temp\ccbUglnk.s:1376   .text.printf_encode:0000000000000008 .L0 
C:\Users\stapi\AppData\Local\Temp\ccbUglnk.s:1377   .text.printf_encode:0000000000000008 .L0 
C:\Users\stapi\AppData\Local\Temp\ccbUglnk.s:1378   .text.printf_encode:0000000000000008 .L0 
C:\Users\stapi\AppData\Local\Temp\ccbUglnk.s:1379   .text.printf_encode:0000000000000008 .L0 
C:\Users\stapi\AppData\Local\Temp\ccbUglnk.s:1381   .text.printf_encode:0000000000000008 .L0 
C:\Users\stapi\AppData\Local\Temp\ccbUglnk.s:1382   .text.printf_encode:0000000000000008 .L0 
C:\Users\stapi\AppData\Local\Temp\ccbUglnk.s:1384   .text.printf_encode:000000000000000a .L0 
C:\Users\stapi\AppData\Local\Temp\ccbUglnk.s:1387   .text.printf_encode:000000000000000e .L0 
C:\Users\stapi\AppData\Local\Temp\ccbUglnk.s:1388   .text.printf_encode:000000000000000e .L0 
C:\Users\stapi\AppData\Local\Temp\ccbUglnk.s:1391   .text.printf_encode:0000000000000014 .L0 
C:\Users\stapi\AppData\Local\Temp\ccbUglnk.s:1393   .text.printf_encode:0000000000000016 .L0 
C:\Users\stapi\AppData\Local\Temp\ccbUglnk.s:1395   .text.printf_encode:000000000000001a .L0 
C:\Users\stapi\AppData\Local\Temp\ccbUglnk.s:1397   .text.printf_encode:000000000000001e .L0 
C:\Users\stapi\AppData\Local\Temp\ccbUglnk.s:1399   .text.printf_encode:0000000000000022 .L0 
C:\Users\stapi\AppData\Local\Temp\ccbUglnk.s:1401   .text.printf_encode:0000000000000026 .L0 
C:\Users\stapi\AppData\Local\Temp\ccbUglnk.s:1404   .text.printf_encode:000000000000002c .L0 
C:\Users\stapi\AppData\Local\Temp\ccbUglnk.s:1408   .text.printf_encode:0000000000000030 .L0 
C:\Users\stapi\AppData\Local\Temp\ccbUglnk.s:1409   .text.printf_encode:0000000000000030 .L0 
C:\Users\stapi\AppData\Local\Temp\ccbUglnk.s:1411   .text.printf_encode:0000000000000034 .L0 
C:\Users\stapi\AppData\Local\Temp\ccbUglnk.s:1412   .text.printf_encode:0000000000000034 .L0 
C:\Users\stapi\AppData\Local\Temp\ccbUglnk.s:1414   .text.printf_encode:0000000000000038 .L0 
C:\Users\stapi\AppData\Local\Temp\ccbUglnk.s:1417   .text.printf_encode:000000000000003c .L0 
C:\Users\stapi\AppData\Local\Temp\ccbUglnk.s:1418   .text.printf_encode:000000000000003c .L0 
C:\Users\stapi\AppData\Local\Temp\ccbUglnk.s:1420   .text.printf_encode:0000000000000040 .L0 
C:\Users\stapi\AppData\Local\Temp\ccbUglnk.s:1421   .text.printf_encode:0000000000000048 .L0 
C:\Users\stapi\AppData\Local\Temp\ccbUglnk.s:1422   .text.printf_encode:0000000000000048 .L0 
C:\Users\stapi\AppData\Local\Temp\ccbUglnk.s:1423   .text.printf_encode:0000000000000048 .L0 
C:\Users\stapi\AppData\Local\Temp\ccbUglnk.s:1424   .text.printf_encode:0000000000000048 .L0 
C:\Users\stapi\AppData\Local\Temp\ccbUglnk.s:1425   .text.printf_encode:0000000000000048 .L0 
C:\Users\stapi\AppData\Local\Temp\ccbUglnk.s:1426   .text.printf_encode:0000000000000048 .L0 
C:\Users\stapi\AppData\Local\Temp\ccbUglnk.s:1427   .text.printf_encode:0000000000000048 .L0 
C:\Users\stapi\AppData\Local\Temp\ccbUglnk.s:1428   .text.printf_encode:0000000000000048 .L0 
C:\Users\stapi\AppData\Local\Temp\ccbUglnk.s:1429   .text.printf_encode:0000000000000048 .L0 
C:\Users\stapi\AppData\Local\Temp\ccbUglnk.s:1430   .text.printf_encode:0000000000000048 .L0 
C:\Users\stapi\AppData\Local\Temp\ccbUglnk.s:1431   .text.printf_encode:0000000000000048 .L0 
C:\Users\stapi\AppData\Local\Temp\ccbUglnk.s:1432   .text.printf_encode:0000000000000048 .L0 
C:\Users\stapi\AppData\Local\Temp\ccbUglnk.s:1433   .text.printf_encode:0000000000000048 .L0 
C:\Users\stapi\AppData\Local\Temp\ccbUglnk.s:1434   .text.printf_encode:0000000000000048 .L0 
C:\Users\stapi\AppData\Local\Temp\ccbUglnk.s:1435   .text.printf_encode:0000000000000048 .L0 
C:\Users\stapi\AppData\Local\Temp\ccbUglnk.s:1437   .text.printf_encode:0000000000000048 .L0 
C:\Users\stapi\AppData\Local\Temp\ccbUglnk.s:1439   .text.printf_encode:0000000000000048 .L0 
C:\Users\stapi\AppData\Local\Temp\ccbUglnk.s:1440   .text.printf_encode:0000000000000048 .L0 
C:\Users\stapi\AppData\Local\Temp\ccbUglnk.s:1442   .text.printf_encode:000000000000004c .L0 
C:\Users\stapi\AppData\Local\Temp\ccbUglnk.s:1451   .text.printf_encode:0000000000000064 .L0 
C:\Users\stapi\AppData\Local\Temp\ccbUglnk.s:1452   .text.printf_encode:0000000000000064 .L0 
C:\Users\stapi\AppData\Local\Temp\ccbUglnk.s:1454   .text.printf_encode:0000000000000068 .L0 
C:\Users\stapi\AppData\Local\Temp\ccbUglnk.s:1458   .text.printf_encode:0000000000000070 .L0 
C:\Users\stapi\AppData\Local\Temp\ccbUglnk.s:1459   .text.printf_encode:0000000000000070 .L0 
C:\Users\stapi\AppData\Local\Temp\ccbUglnk.s:1461   .text.printf_encode:0000000000000074 .L0 
C:\Users\stapi\AppData\Local\Temp\ccbUglnk.s:1466   .text.printf_encode:0000000000000078 .L0 
C:\Users\stapi\AppData\Local\Temp\ccbUglnk.s:1470   .text.printf_encode:0000000000000080 .L0 
C:\Users\stapi\AppData\Local\Temp\ccbUglnk.s:1471   .text.printf_encode:0000000000000080 .L0 
C:\Users\stapi\AppData\Local\Temp\ccbUglnk.s:1474   .text.printf_encode:0000000000000084 .L0 
C:\Users\stapi\AppData\Local\Temp\ccbUglnk.s:1475   .text.printf_encode:0000000000000084 .L0 
C:\Users\stapi\AppData\Local\Temp\ccbUglnk.s:1477   .text.printf_encode:0000000000000088 .L0 
C:\Users\stapi\AppData\Local\Temp\ccbUglnk.s:1481   .text.printf_encode:000000000000008a .L0 
C:\Users\stapi\AppData\Local\Temp\ccbUglnk.s:1482   .text.printf_encode:000000000000008a .L0 
C:\Users\stapi\AppData\Local\Temp\ccbUglnk.s:1485   .text.printf_encode:000000000000008e .L0 
C:\Users\stapi\AppData\Local\Temp\ccbUglnk.s:1486   .text.printf_encode:000000000000008e .L0 
C:\Users\stapi\AppData\Local\Temp\ccbUglnk.s:1490   .text.printf_encode:0000000000000092 .L0 
C:\Users\stapi\AppData\Local\Temp\ccbUglnk.s:1491   .text.printf_encode:0000000000000092 .L0 
C:\Users\stapi\AppData\Local\Temp\ccbUglnk.s:1492   .text.printf_encode:0000000000000092 .L0 
C:\Users\stapi\AppData\Local\Temp\ccbUglnk.s:1496   .text.printf_encode:0000000000000094 .L0 
C:\Users\stapi\AppData\Local\Temp\ccbUglnk.s:1502   .text.printf_encode:0000000000000098 .L0 
C:\Users\stapi\AppData\Local\Temp\ccbUglnk.s:1503   .text.printf_encode:0000000000000098 .L0 
C:\Users\stapi\AppData\Local\Temp\ccbUglnk.s:1506   .text.printf_encode:000000000000009c .L0 
C:\Users\stapi\AppData\Local\Temp\ccbUglnk.s:1507   .text.printf_encode:000000000000009c .L0 
C:\Users\stapi\AppData\Local\Temp\ccbUglnk.s:1509   .text.printf_encode:00000000000000a0 .L0 
C:\Users\stapi\AppData\Local\Temp\ccbUglnk.s:1513   .text.printf_encode:00000000000000a2 .L0 
C:\Users\stapi\AppData\Local\Temp\ccbUglnk.s:1514   .text.printf_encode:00000000000000a2 .L0 
C:\Users\stapi\AppData\Local\Temp\ccbUglnk.s:1517   .text.printf_encode:00000000000000a6 .L0 
C:\Users\stapi\AppData\Local\Temp\ccbUglnk.s:1518   .text.printf_encode:00000000000000a6 .L0 
C:\Users\stapi\AppData\Local\Temp\ccbUglnk.s:1520   .text.printf_encode:00000000000000aa .L0 
C:\Users\stapi\AppData\Local\Temp\ccbUglnk.s:1524   .text.printf_encode:00000000000000ac .L0 
C:\Users\stapi\AppData\Local\Temp\ccbUglnk.s:1525   .text.printf_encode:00000000000000ac .L0 
C:\Users\stapi\AppData\Local\Temp\ccbUglnk.s:1528   .text.printf_encode:00000000000000b0 .L0 
C:\Users\stapi\AppData\Local\Temp\ccbUglnk.s:1529   .text.printf_encode:00000000000000b0 .L0 
C:\Users\stapi\AppData\Local\Temp\ccbUglnk.s:1533   .text.printf_encode:00000000000000b4 .L0 
C:\Users\stapi\AppData\Local\Temp\ccbUglnk.s:1538   .text.printf_encode:00000000000000ba .L0 
C:\Users\stapi\AppData\Local\Temp\ccbUglnk.s:1539   .text.printf_encode:00000000000000ba .L0 
C:\Users\stapi\AppData\Local\Temp\ccbUglnk.s:1542   .text.printf_encode:00000000000000be .L0 
C:\Users\stapi\AppData\Local\Temp\ccbUglnk.s:1543   .text.printf_encode:00000000000000be .L0 
C:\Users\stapi\AppData\Local\Temp\ccbUglnk.s:1548   .text.printf_encode:00000000000000c4 .L0 
C:\Users\stapi\AppData\Local\Temp\ccbUglnk.s:1549   .text.printf_encode:00000000000000c4 .L0 
C:\Users\stapi\AppData\Local\Temp\ccbUglnk.s:1555   .text.printf_encode:00000000000000d6 .L0 
C:\Users\stapi\AppData\Local\Temp\ccbUglnk.s:1558   .text.printf_encode:00000000000000da .L0 
C:\Users\stapi\AppData\Local\Temp\ccbUglnk.s:1565   .text.printf_decode:0000000000000000 printf_decode
C:\Users\stapi\AppData\Local\Temp\ccbUglnk.s:1568   .text.printf_decode:0000000000000000 .L0 
C:\Users\stapi\AppData\Local\Temp\ccbUglnk.s:1570   .text.printf_decode:0000000000000000 .L0 
C:\Users\stapi\AppData\Local\Temp\ccbUglnk.s:1571   .text.printf_decode:0000000000000008 .L0 
C:\Users\stapi\AppData\Local\Temp\ccbUglnk.s:1572   .text.printf_decode:0000000000000008 .L0 
C:\Users\stapi\AppData\Local\Temp\ccbUglnk.s:1573   .text.printf_decode:0000000000000008 .L0 
C:\Users\stapi\AppData\Local\Temp\ccbUglnk.s:1574   .text.printf_decode:0000000000000008 .L0 
C:\Users\stapi\AppData\Local\Temp\ccbUglnk.s:1575   .text.printf_decode:0000000000000008 .L0 
C:\Users\stapi\AppData\Local\Temp\ccbUglnk.s:1576   .text.printf_decode:0000000000000008 .L0 
C:\Users\stapi\AppData\Local\Temp\ccbUglnk.s:1577   .text.printf_decode:0000000000000008 .L0 
C:\Users\stapi\AppData\Local\Temp\ccbUglnk.s:1578   .text.printf_decode:0000000000000008 .L0 
C:\Users\stapi\AppData\Local\Temp\ccbUglnk.s:1579   .text.printf_decode:0000000000000008 .L0 
C:\Users\stapi\AppData\Local\Temp\ccbUglnk.s:1580   .text.printf_decode:0000000000000008 .L0 
C:\Users\stapi\AppData\Local\Temp\ccbUglnk.s:1581   .text.printf_decode:0000000000000008 .L0 
C:\Users\stapi\AppData\Local\Temp\ccbUglnk.s:1582   .text.printf_decode:0000000000000008 .L0 
C:\Users\stapi\AppData\Local\Temp\ccbUglnk.s:1583   .text.printf_decode:0000000000000008 .L0 
C:\Users\stapi\AppData\Local\Temp\ccbUglnk.s:1584   .text.printf_decode:0000000000000008 .L0 
C:\Users\stapi\AppData\Local\Temp\ccbUglnk.s:1586   .text.printf_decode:0000000000000008 .L0 
C:\Users\stapi\AppData\Local\Temp\ccbUglnk.s:1590   .text.printf_decode:000000000000000c .L0 
C:\Users\stapi\AppData\Local\Temp\ccbUglnk.s:1591   .text.printf_decode:000000000000000c .L0 
C:\Users\stapi\AppData\Local\Temp\ccbUglnk.s:1592   .text.printf_decode:000000000000000c .L0 
C:\Users\stapi\AppData\Local\Temp\ccbUglnk.s:1593   .text.printf_decode:000000000000000c .L0 
C:\Users\stapi\AppData\Local\Temp\ccbUglnk.s:1594   .text.printf_decode:000000000000000c .L0 
C:\Users\stapi\AppData\Local\Temp\ccbUglnk.s:1596   .text.printf_decode:000000000000000e .L0 
C:\Users\stapi\AppData\Local\Temp\ccbUglnk.s:1598   .text.printf_decode:0000000000000010 .L0 
C:\Users\stapi\AppData\Local\Temp\ccbUglnk.s:1602   .text.printf_decode:000000000000001c .L0 
C:\Users\stapi\AppData\Local\Temp\ccbUglnk.s:1608   .text.printf_decode:0000000000000024 .L0 
C:\Users\stapi\AppData\Local\Temp\ccbUglnk.s:1609   .text.printf_decode:0000000000000024 .L0 
C:\Users\stapi\AppData\Local\Temp\ccbUglnk.s:1611   .text.printf_decode:0000000000000028 .L0 
C:\Users\stapi\AppData\Local\Temp\ccbUglnk.s:1614   .text.printf_decode:000000000000002a .L0 
C:\Users\stapi\AppData\Local\Temp\ccbUglnk.s:1615   .text.printf_decode:000000000000002a .L0 
C:\Users\stapi\AppData\Local\Temp\ccbUglnk.s:1617   .text.printf_decode:000000000000002e .L0 
C:\Users\stapi\AppData\Local\Temp\ccbUglnk.s:1618   .text.printf_decode:000000000000002e .L0 
C:\Users\stapi\AppData\Local\Temp\ccbUglnk.s:1622   .text.printf_decode:0000000000000036 .L0 
C:\Users\stapi\AppData\Local\Temp\ccbUglnk.s:1623   .text.printf_decode:0000000000000036 .L0 
C:\Users\stapi\AppData\Local\Temp\ccbUglnk.s:1625   .text.printf_decode:0000000000000040 .L0 
C:\Users\stapi\AppData\Local\Temp\ccbUglnk.s:1626   .text.printf_decode:0000000000000040 .L0 
C:\Users\stapi\AppData\Local\Temp\ccbUglnk.s:1627   .text.printf_decode:0000000000000040 .L0 
C:\Users\stapi\AppData\Local\Temp\ccbUglnk.s:1628   .text.printf_decode:0000000000000040 .L0 
C:\Users\stapi\AppData\Local\Temp\ccbUglnk.s:1629   .text.printf_decode:0000000000000040 .L0 
C:\Users\stapi\AppData\Local\Temp\ccbUglnk.s:1630   .text.printf_decode:0000000000000040 .L0 
C:\Users\stapi\AppData\Local\Temp\ccbUglnk.s:1631   .text.printf_decode:0000000000000040 .L0 
C:\Users\stapi\AppData\Local\Temp\ccbUglnk.s:1632   .text.printf_decode:0000000000000040 .L0 
C:\Users\stapi\AppData\Local\Temp\ccbUglnk.s:1633   .text.printf_decode:0000000000000040 .L0 
C:\Users\stapi\AppData\Local\Temp\ccbUglnk.s:1634   .text.printf_decode:0000000000000040 .L0 
C:\Users\stapi\AppData\Local\Temp\ccbUglnk.s:1635   .text.printf_decode:0000000000000040 .L0 
C:\Users\stapi\AppData\Local\Temp\ccbUglnk.s:1636   .text.printf_decode:0000000000000040 .L0 
C:\Users\stapi\AppData\Local\Temp\ccbUglnk.s:1637   .text.printf_decode:0000000000000040 .L0 
C:\Users\stapi\AppData\Local\Temp\ccbUglnk.s:1638   .text.printf_decode:0000000000000040 .L0 
C:\Users\stapi\AppData\Local\Temp\ccbUglnk.s:1639   .text.printf_decode:0000000000000040 .L0 
C:\Users\stapi\AppData\Local\Temp\ccbUglnk.s:1641   .text.printf_decode:0000000000000040 .L0 
C:\Users\stapi\AppData\Local\Temp\ccbUglnk.s:1643   .text.printf_decode:0000000000000040 .L0 
C:\Users\stapi\AppData\Local\Temp\ccbUglnk.s:1644   .text.printf_decode:0000000000000040 .L0 
C:\Users\stapi\AppData\Local\Temp\ccbUglnk.s:1646   .text.printf_decode:0000000000000044 .L0 
C:\Users\stapi\AppData\Local\Temp\ccbUglnk.s:1648   .text.printf_decode:0000000000000048 .L0 
C:\Users\stapi\AppData\Local\Temp\ccbUglnk.s:1649   .text.printf_decode:0000000000000048 .L0 
C:\Users\stapi\AppData\Local\Temp\ccbUglnk.s:1651   .text.printf_decode:000000000000004c .L0 
C:\Users\stapi\AppData\Local\Temp\ccbUglnk.s:1654   .text.printf_decode:0000000000000050 .L0 
C:\Users\stapi\AppData\Local\Temp\ccbUglnk.s:1655   .text.printf_decode:0000000000000050 .L0 
C:\Users\stapi\AppData\Local\Temp\ccbUglnk.s:1656   .text.printf_decode:0000000000000050 .L0 
C:\Users\stapi\AppData\Local\Temp\ccbUglnk.s:1667   .text.printf_decode:0000000000000074 .L0 
C:\Users\stapi\AppData\Local\Temp\ccbUglnk.s:1668   .text.printf_decode:0000000000000074 .L0 
C:\Users\stapi\AppData\Local\Temp\ccbUglnk.s:1670   .text.printf_decode:0000000000000078 .L0 
C:\Users\stapi\AppData\Local\Temp\ccbUglnk.s:1672   .text.printf_decode:000000000000007c .L0 
C:\Users\stapi\AppData\Local\Temp\ccbUglnk.s:1674   .text.printf_decode:0000000000000080 .L0 
C:\Users\stapi\AppData\Local\Temp\ccbUglnk.s:1677   .text.printf_decode:0000000000000082 .L0 
C:\Users\stapi\AppData\Local\Temp\ccbUglnk.s:1678   .text.printf_decode:0000000000000082 .L0 
C:\Users\stapi\AppData\Local\Temp\ccbUglnk.s:1680   .text.printf_decode:0000000000000086 .L0 
C:\Users\stapi\AppData\Local\Temp\ccbUglnk.s:1684   .text.printf_decode:000000000000008a .L0 
C:\Users\stapi\AppData\Local\Temp\ccbUglnk.s:1685   .text.printf_decode:000000000000008a .L0 
C:\Users\stapi\AppData\Local\Temp\ccbUglnk.s:1687   .text.printf_decode:000000000000008e .L0 
C:\Users\stapi\AppData\Local\Temp\ccbUglnk.s:1689   .text.printf_decode:0000000000000092 .L0 
C:\Users\stapi\AppData\Local\Temp\ccbUglnk.s:1692   .text.printf_decode:000000000000009a .L0 
C:\Users\stapi\AppData\Local\Temp\ccbUglnk.s:1693   .text.printf_decode:000000000000009a .L0 
C:\Users\stapi\AppData\Local\Temp\ccbUglnk.s:1696   .text.printf_decode:000000000000009c .L0 
C:\Users\stapi\AppData\Local\Temp\ccbUglnk.s:1698   .text.printf_decode:00000000000000a0 .L0 
C:\Users\stapi\AppData\Local\Temp\ccbUglnk.s:1702   .text.printf_decode:00000000000000a4 .L0 
C:\Users\stapi\AppData\Local\Temp\ccbUglnk.s:1703   .text.printf_decode:00000000000000a4 .L0 
C:\Users\stapi\AppData\Local\Temp\ccbUglnk.s:1706   .text.printf_decode:00000000000000aa .L0 
C:\Users\stapi\AppData\Local\Temp\ccbUglnk.s:1713   .text.printf_decode:00000000000000b0 .L0 
C:\Users\stapi\AppData\Local\Temp\ccbUglnk.s:1725   .text.printf_decode:00000000000000cc .L0 
C:\Users\stapi\AppData\Local\Temp\ccbUglnk.s:1726   .text.printf_decode:00000000000000cc .L0 
C:\Users\stapi\AppData\Local\Temp\ccbUglnk.s:1732   .text.printf_decode:00000000000000d2 .L0 
C:\Users\stapi\AppData\Local\Temp\ccbUglnk.s:1733   .text.printf_decode:00000000000000d2 .L0 
C:\Users\stapi\AppData\Local\Temp\ccbUglnk.s:1737   .text.printf_decode:00000000000000d8 .L0 
C:\Users\stapi\AppData\Local\Temp\ccbUglnk.s:1738   .text.printf_decode:00000000000000d8 .L0 
C:\Users\stapi\AppData\Local\Temp\ccbUglnk.s:1739   .text.printf_decode:00000000000000d8 .L0 
C:\Users\stapi\AppData\Local\Temp\ccbUglnk.s:1743   .text.printf_decode:00000000000000dc .L0 
C:\Users\stapi\AppData\Local\Temp\ccbUglnk.s:1744   .text.printf_decode:00000000000000dc .L0 
C:\Users\stapi\AppData\Local\Temp\ccbUglnk.s:1750   .text.printf_decode:00000000000000e2 .L0 
C:\Users\stapi\AppData\Local\Temp\ccbUglnk.s:1751   .text.printf_decode:00000000000000e2 .L0 
C:\Users\stapi\AppData\Local\Temp\ccbUglnk.s:1754   .text.printf_decode:00000000000000e8 .L0 
C:\Users\stapi\AppData\Local\Temp\ccbUglnk.s:1758   .text.printf_decode:00000000000000ea .L0 
C:\Users\stapi\AppData\Local\Temp\ccbUglnk.s:1759   .text.printf_decode:00000000000000ea .L0 
C:\Users\stapi\AppData\Local\Temp\ccbUglnk.s:1767   .text.printf_decode:00000000000000f4 .L0 
C:\Users\stapi\AppData\Local\Temp\ccbUglnk.s:1768   .text.printf_decode:00000000000000f4 .L0 
C:\Users\stapi\AppData\Local\Temp\ccbUglnk.s:1774   .text.printf_decode:00000000000000fa .L0 
C:\Users\stapi\AppData\Local\Temp\ccbUglnk.s:1775   .text.printf_decode:00000000000000fa .L0 
C:\Users\stapi\AppData\Local\Temp\ccbUglnk.s:1778   .text.printf_decode:0000000000000100 .L0 
C:\Users\stapi\AppData\Local\Temp\ccbUglnk.s:1782   .text.printf_decode:0000000000000102 .L0 
C:\Users\stapi\AppData\Local\Temp\ccbUglnk.s:1783   .text.printf_decode:0000000000000102 .L0 
C:\Users\stapi\AppData\Local\Temp\ccbUglnk.s:1786   .text.printf_decode:0000000000000106 .L0 
C:\Users\stapi\AppData\Local\Temp\ccbUglnk.s:1787   .text.printf_decode:0000000000000106 .L0 
C:\Users\stapi\AppData\Local\Temp\ccbUglnk.s:1791   .text.printf_decode:0000000000000110 .L0 
C:\Users\stapi\AppData\Local\Temp\ccbUglnk.s:1792   .text.printf_decode:0000000000000110 .L0 
C:\Users\stapi\AppData\Local\Temp\ccbUglnk.s:1794   .text.printf_decode:0000000000000114 .L0 
C:\Users\stapi\AppData\Local\Temp\ccbUglnk.s:1795   .text.printf_decode:0000000000000114 .L0 
C:\Users\stapi\AppData\Local\Temp\ccbUglnk.s:1800   .text.printf_decode:0000000000000120 .L0 
C:\Users\stapi\AppData\Local\Temp\ccbUglnk.s:1801   .text.printf_decode:0000000000000120 .L0 
C:\Users\stapi\AppData\Local\Temp\ccbUglnk.s:1804   .text.printf_decode:0000000000000124 .L0 
C:\Users\stapi\AppData\Local\Temp\ccbUglnk.s:1805   .text.printf_decode:0000000000000124 .L0 
C:\Users\stapi\AppData\Local\Temp\ccbUglnk.s:1808   .text.printf_decode:000000000000012a .L0 
C:\Users\stapi\AppData\Local\Temp\ccbUglnk.s:1809   .text.printf_decode:000000000000012a .L0 
C:\Users\stapi\AppData\Local\Temp\ccbUglnk.s:1815   .text.printf_decode:0000000000000130 .L0 
C:\Users\stapi\AppData\Local\Temp\ccbUglnk.s:1816   .text.printf_decode:0000000000000130 .L0 
C:\Users\stapi\AppData\Local\Temp\ccbUglnk.s:1819   .text.printf_decode:0000000000000136 .L0 
C:\Users\stapi\AppData\Local\Temp\ccbUglnk.s:1820   .text.printf_decode:0000000000000136 .L0 
C:\Users\stapi\AppData\Local\Temp\ccbUglnk.s:1826   .text.printf_decode:000000000000013c .L0 
C:\Users\stapi\AppData\Local\Temp\ccbUglnk.s:1827   .text.printf_decode:000000000000013c .L0 
C:\Users\stapi\AppData\Local\Temp\ccbUglnk.s:1829   .text.printf_decode:0000000000000140 .L0 
C:\Users\stapi\AppData\Local\Temp\ccbUglnk.s:1832   .text.printf_decode:0000000000000144 .L0 
C:\Users\stapi\AppData\Local\Temp\ccbUglnk.s:1838   .text.printf_decode:000000000000014a .L0 
C:\Users\stapi\AppData\Local\Temp\ccbUglnk.s:1839   .text.printf_decode:000000000000014a .L0 
C:\Users\stapi\AppData\Local\Temp\ccbUglnk.s:1842   .text.printf_decode:0000000000000150 .L0 
C:\Users\stapi\AppData\Local\Temp\ccbUglnk.s:1843   .text.printf_decode:0000000000000152 .L0 
C:\Users\stapi\AppData\Local\Temp\ccbUglnk.s:1850   .text.wpa_ssid_txt:0000000000000000 wpa_ssid_txt
C:\Users\stapi\AppData\Local\Temp\ccbUglnk.s:1853   .text.wpa_ssid_txt:0000000000000000 .L0 
C:\Users\stapi\AppData\Local\Temp\ccbUglnk.s:1855   .text.wpa_ssid_txt:0000000000000000 .L0 
C:\Users\stapi\AppData\Local\Temp\ccbUglnk.s:1856   .text.wpa_ssid_txt:0000000000000008 .L0 
C:\Users\stapi\AppData\Local\Temp\ccbUglnk.s:1857   .text.wpa_ssid_txt:0000000000000008 .L0 
C:\Users\stapi\AppData\Local\Temp\ccbUglnk.s:1858   .text.wpa_ssid_txt:0000000000000008 .L0 
C:\Users\stapi\AppData\Local\Temp\ccbUglnk.s:1860   .text.wpa_ssid_txt:0000000000000008 .L0 
C:\Users\stapi\AppData\Local\Temp\ccbUglnk.s:1861   .text.wpa_ssid_txt:0000000000000008 .L0 
C:\Users\stapi\AppData\Local\Temp\ccbUglnk.s:1863   .text.wpa_ssid_txt:000000000000000c .L0 
C:\Users\stapi\AppData\Local\Temp\ccbUglnk.s:1865   .text.wpa_ssid_txt:000000000000000e .L0 
C:\Users\stapi\AppData\Local\Temp\ccbUglnk.s:1866   .text.wpa_ssid_txt:000000000000000e .L0 
C:\Users\stapi\AppData\Local\Temp\ccbUglnk.s:1870   .text.wpa_ssid_txt:0000000000000012 .L0 
C:\Users\stapi\AppData\Local\Temp\ccbUglnk.s:1871   .text.wpa_ssid_txt:0000000000000012 .L0 
C:\Users\stapi\AppData\Local\Temp\ccbUglnk.s:1873   .text.wpa_ssid_txt:000000000000001e .L0 
C:\Users\stapi\AppData\Local\Temp\ccbUglnk.s:1874   .text.wpa_ssid_txt:000000000000001e .L0 
C:\Users\stapi\AppData\Local\Temp\ccbUglnk.s:1875   .text.wpa_ssid_txt:000000000000001e .L0 
C:\Users\stapi\AppData\Local\Temp\ccbUglnk.s:1876   .text.wpa_ssid_txt:000000000000001e .L0 
C:\Users\stapi\AppData\Local\Temp\ccbUglnk.s:1879   .text.wpa_ssid_txt:000000000000001e .L0 
C:\Users\stapi\AppData\Local\Temp\ccbUglnk.s:1883   .text.wpa_ssid_txt:0000000000000022 .L0 
C:\Users\stapi\AppData\Local\Temp\ccbUglnk.s:1890   .text.wpa_ssid_txt:0000000000000032 .L0 
C:\Users\stapi\AppData\Local\Temp\ccbUglnk.s:1891   .text.wpa_ssid_txt:0000000000000032 .L0 
C:\Users\stapi\AppData\Local\Temp\ccbUglnk.s:1892   .text.wpa_ssid_txt:0000000000000034 .L0 
C:\Users\stapi\AppData\Local\Temp\ccbUglnk.s:1899   .text.__hide_aliasing_typecast:0000000000000000 __hide_aliasing_typecast
C:\Users\stapi\AppData\Local\Temp\ccbUglnk.s:1902   .text.__hide_aliasing_typecast:0000000000000000 .L0 
C:\Users\stapi\AppData\Local\Temp\ccbUglnk.s:1904   .text.__hide_aliasing_typecast:0000000000000000 .L0 
C:\Users\stapi\AppData\Local\Temp\ccbUglnk.s:1905   .text.__hide_aliasing_typecast:0000000000000000 .L0 
C:\Users\stapi\AppData\Local\Temp\ccbUglnk.s:1906   .text.__hide_aliasing_typecast:0000000000000000 .L0 
C:\Users\stapi\AppData\Local\Temp\ccbUglnk.s:1907   .text.__hide_aliasing_typecast:0000000000000002 .L0 
C:\Users\stapi\AppData\Local\Temp\ccbUglnk.s:1914   .text.is_hex:0000000000000000 is_hex
C:\Users\stapi\AppData\Local\Temp\ccbUglnk.s:1917   .text.is_hex:0000000000000000 .L0 
C:\Users\stapi\AppData\Local\Temp\ccbUglnk.s:1919   .text.is_hex:0000000000000000 .L0 
C:\Users\stapi\AppData\Local\Temp\ccbUglnk.s:1920   .text.is_hex:0000000000000000 .L0 
C:\Users\stapi\AppData\Local\Temp\ccbUglnk.s:1921   .text.is_hex:0000000000000000 .L0 
C:\Users\stapi\AppData\Local\Temp\ccbUglnk.s:1922   .text.is_hex:0000000000000000 .L0 
C:\Users\stapi\AppData\Local\Temp\ccbUglnk.s:1924   .text.is_hex:0000000000000002 .L0 
C:\Users\stapi\AppData\Local\Temp\ccbUglnk.s:1928   .text.is_hex:0000000000000006 .L0 
C:\Users\stapi\AppData\Local\Temp\ccbUglnk.s:1929   .text.is_hex:0000000000000006 .L0 
C:\Users\stapi\AppData\Local\Temp\ccbUglnk.s:1931   .text.is_hex:000000000000000a .L0 
C:\Users\stapi\AppData\Local\Temp\ccbUglnk.s:1937   .text.is_hex:000000000000000e .L0 
C:\Users\stapi\AppData\Local\Temp\ccbUglnk.s:1938   .text.is_hex:000000000000000e .L0 
C:\Users\stapi\AppData\Local\Temp\ccbUglnk.s:1940   .text.is_hex:0000000000000012 .L0 
C:\Users\stapi\AppData\Local\Temp\ccbUglnk.s:1943   .text.is_hex:0000000000000018 .L0 
C:\Users\stapi\AppData\Local\Temp\ccbUglnk.s:1946   .text.is_hex:0000000000000020 .L0 
C:\Users\stapi\AppData\Local\Temp\ccbUglnk.s:1947   .text.is_hex:0000000000000020 .L0 
C:\Users\stapi\AppData\Local\Temp\ccbUglnk.s:1952   .text.is_hex:0000000000000024 .L0 
C:\Users\stapi\AppData\Local\Temp\ccbUglnk.s:1955   .text.is_hex:0000000000000026 .L0 
C:\Users\stapi\AppData\Local\Temp\ccbUglnk.s:1956   .text.is_hex:0000000000000028 .L0 
C:\Users\stapi\AppData\Local\Temp\ccbUglnk.s:1963   .text.has_ctrl_char:0000000000000000 has_ctrl_char
C:\Users\stapi\AppData\Local\Temp\ccbUglnk.s:1966   .text.has_ctrl_char:0000000000000000 .L0 
C:\Users\stapi\AppData\Local\Temp\ccbUglnk.s:1968   .text.has_ctrl_char:0000000000000000 .L0 
C:\Users\stapi\AppData\Local\Temp\ccbUglnk.s:1969   .text.has_ctrl_char:0000000000000000 .L0 
C:\Users\stapi\AppData\Local\Temp\ccbUglnk.s:1970   .text.has_ctrl_char:0000000000000000 .L0 
C:\Users\stapi\AppData\Local\Temp\ccbUglnk.s:1971   .text.has_ctrl_char:0000000000000000 .L0 
C:\Users\stapi\AppData\Local\Temp\ccbUglnk.s:1973   .text.has_ctrl_char:0000000000000002 .L0 
C:\Users\stapi\AppData\Local\Temp\ccbUglnk.s:1975   .text.has_ctrl_char:0000000000000004 .L0 
C:\Users\stapi\AppData\Local\Temp\ccbUglnk.s:1979   .text.has_ctrl_char:0000000000000008 .L0 
C:\Users\stapi\AppData\Local\Temp\ccbUglnk.s:1980   .text.has_ctrl_char:0000000000000008 .L0 
C:\Users\stapi\AppData\Local\Temp\ccbUglnk.s:1982   .text.has_ctrl_char:000000000000000c .L0 
C:\Users\stapi\AppData\Local\Temp\ccbUglnk.s:1988   .text.has_ctrl_char:0000000000000010 .L0 
C:\Users\stapi\AppData\Local\Temp\ccbUglnk.s:1989   .text.has_ctrl_char:0000000000000010 .L0 
C:\Users\stapi\AppData\Local\Temp\ccbUglnk.s:1992   .text.has_ctrl_char:0000000000000018 .L0 
C:\Users\stapi\AppData\Local\Temp\ccbUglnk.s:1994   .text.has_ctrl_char:000000000000001c .L0 
C:\Users\stapi\AppData\Local\Temp\ccbUglnk.s:1996   .text.has_ctrl_char:0000000000000020 .L0 
C:\Users\stapi\AppData\Local\Temp\ccbUglnk.s:1997   .text.has_ctrl_char:0000000000000020 .L0 
C:\Users\stapi\AppData\Local\Temp\ccbUglnk.s:2002   .text.has_ctrl_char:0000000000000024 .L0 
C:\Users\stapi\AppData\Local\Temp\ccbUglnk.s:2005   .text.has_ctrl_char:0000000000000026 .L0 
C:\Users\stapi\AppData\Local\Temp\ccbUglnk.s:2006   .text.has_ctrl_char:0000000000000028 .L0 
C:\Users\stapi\AppData\Local\Temp\ccbUglnk.s:2013   .text.has_newline:0000000000000000 has_newline
C:\Users\stapi\AppData\Local\Temp\ccbUglnk.s:2016   .text.has_newline:0000000000000000 .L0 
C:\Users\stapi\AppData\Local\Temp\ccbUglnk.s:2018   .text.has_newline:0000000000000000 .L0 
C:\Users\stapi\AppData\Local\Temp\ccbUglnk.s:2019   .text.has_newline:0000000000000000 .L0 
C:\Users\stapi\AppData\Local\Temp\ccbUglnk.s:2020   .text.has_newline:0000000000000000 .L0 
C:\Users\stapi\AppData\Local\Temp\ccbUglnk.s:2022   .text.has_newline:0000000000000002 .L0 
C:\Users\stapi\AppData\Local\Temp\ccbUglnk.s:2025   .text.has_newline:0000000000000004 .L0 
C:\Users\stapi\AppData\Local\Temp\ccbUglnk.s:2026   .text.has_newline:0000000000000004 .L0 
C:\Users\stapi\AppData\Local\Temp\ccbUglnk.s:2028   .text.has_newline:0000000000000008 .L0 
C:\Users\stapi\AppData\Local\Temp\ccbUglnk.s:2030   .text.has_newline:000000000000000a .L0 
C:\Users\stapi\AppData\Local\Temp\ccbUglnk.s:2036   .text.has_newline:000000000000000e .L0 
C:\Users\stapi\AppData\Local\Temp\ccbUglnk.s:2037   .text.has_newline:000000000000000e .L0 
C:\Users\stapi\AppData\Local\Temp\ccbUglnk.s:2039   .text.has_newline:0000000000000012 .L0 
C:\Users\stapi\AppData\Local\Temp\ccbUglnk.s:2041   .text.has_newline:0000000000000016 .L0 
C:\Users\stapi\AppData\Local\Temp\ccbUglnk.s:2042   .text.has_newline:0000000000000016 .L0 
C:\Users\stapi\AppData\Local\Temp\ccbUglnk.s:2047   .text.has_newline:000000000000001a .L0 
C:\Users\stapi\AppData\Local\Temp\ccbUglnk.s:2050   .text.has_newline:000000000000001c .L0 
C:\Users\stapi\AppData\Local\Temp\ccbUglnk.s:2051   .text.has_newline:000000000000001e .L0 
C:\Users\stapi\AppData\Local\Temp\ccbUglnk.s:2058   .text.merge_byte_arrays:0000000000000000 merge_byte_arrays
C:\Users\stapi\AppData\Local\Temp\ccbUglnk.s:2061   .text.merge_byte_arrays:0000000000000000 .L0 
C:\Users\stapi\AppData\Local\Temp\ccbUglnk.s:2063   .text.merge_byte_arrays:0000000000000000 .L0 
C:\Users\stapi\AppData\Local\Temp\ccbUglnk.s:2064   .text.merge_byte_arrays:0000000000000008 .L0 
C:\Users\stapi\AppData\Local\Temp\ccbUglnk.s:2065   .text.merge_byte_arrays:0000000000000008 .L0 
C:\Users\stapi\AppData\Local\Temp\ccbUglnk.s:2066   .text.merge_byte_arrays:0000000000000008 .L0 
C:\Users\stapi\AppData\Local\Temp\ccbUglnk.s:2067   .text.merge_byte_arrays:0000000000000008 .L0 
C:\Users\stapi\AppData\Local\Temp\ccbUglnk.s:2068   .text.merge_byte_arrays:0000000000000008 .L0 
C:\Users\stapi\AppData\Local\Temp\ccbUglnk.s:2069   .text.merge_byte_arrays:0000000000000008 .L0 
C:\Users\stapi\AppData\Local\Temp\ccbUglnk.s:2070   .text.merge_byte_arrays:0000000000000008 .L0 
C:\Users\stapi\AppData\Local\Temp\ccbUglnk.s:2071   .text.merge_byte_arrays:0000000000000008 .L0 
C:\Users\stapi\AppData\Local\Temp\ccbUglnk.s:2074   .text.merge_byte_arrays:0000000000000008 .L0 
C:\Users\stapi\AppData\Local\Temp\ccbUglnk.s:2075   .text.merge_byte_arrays:0000000000000008 .L0 
C:\Users\stapi\AppData\Local\Temp\ccbUglnk.s:2076   .text.merge_byte_arrays:0000000000000008 .L0 
C:\Users\stapi\AppData\Local\Temp\ccbUglnk.s:2079   .text.merge_byte_arrays:000000000000000c .L0 
C:\Users\stapi\AppData\Local\Temp\ccbUglnk.s:2084   .text.merge_byte_arrays:0000000000000010 .L0 
C:\Users\stapi\AppData\Local\Temp\ccbUglnk.s:2089   .text.merge_byte_arrays:0000000000000018 .L0 
C:\Users\stapi\AppData\Local\Temp\ccbUglnk.s:2092   .text.merge_byte_arrays:0000000000000020 .L0 
C:\Users\stapi\AppData\Local\Temp\ccbUglnk.s:2093   .text.merge_byte_arrays:0000000000000020 .L0 
C:\Users\stapi\AppData\Local\Temp\ccbUglnk.s:2095   .text.merge_byte_arrays:0000000000000024 .L0 
C:\Users\stapi\AppData\Local\Temp\ccbUglnk.s:2096   .text.merge_byte_arrays:0000000000000024 .L0 
C:\Users\stapi\AppData\Local\Temp\ccbUglnk.s:2098   .text.merge_byte_arrays:0000000000000028 .L0 
C:\Users\stapi\AppData\Local\Temp\ccbUglnk.s:2104   .text.merge_byte_arrays:000000000000002e .L0 
C:\Users\stapi\AppData\Local\Temp\ccbUglnk.s:2107   .text.merge_byte_arrays:0000000000000036 .L0 
C:\Users\stapi\AppData\Local\Temp\ccbUglnk.s:2108   .text.merge_byte_arrays:0000000000000036 .L0 
C:\Users\stapi\AppData\Local\Temp\ccbUglnk.s:2111   .text.merge_byte_arrays:0000000000000038 .L0 
C:\Users\stapi\AppData\Local\Temp\ccbUglnk.s:2113   .text.merge_byte_arrays:0000000000000042 .L0 
C:\Users\stapi\AppData\Local\Temp\ccbUglnk.s:2114   .text.merge_byte_arrays:0000000000000042 .L0 
C:\Users\stapi\AppData\Local\Temp\ccbUglnk.s:2115   .text.merge_byte_arrays:0000000000000042 .L0 
C:\Users\stapi\AppData\Local\Temp\ccbUglnk.s:2116   .text.merge_byte_arrays:0000000000000042 .L0 
C:\Users\stapi\AppData\Local\Temp\ccbUglnk.s:2117   .text.merge_byte_arrays:0000000000000042 .L0 
C:\Users\stapi\AppData\Local\Temp\ccbUglnk.s:2118   .text.merge_byte_arrays:0000000000000042 .L0 
C:\Users\stapi\AppData\Local\Temp\ccbUglnk.s:2119   .text.merge_byte_arrays:0000000000000042 .L0 
C:\Users\stapi\AppData\Local\Temp\ccbUglnk.s:2120   .text.merge_byte_arrays:0000000000000042 .L0 
C:\Users\stapi\AppData\Local\Temp\ccbUglnk.s:2121   .text.merge_byte_arrays:0000000000000042 .L0 
C:\Users\stapi\AppData\Local\Temp\ccbUglnk.s:2124   .text.merge_byte_arrays:0000000000000042 .L0 
C:\Users\stapi\AppData\Local\Temp\ccbUglnk.s:2126   .text.merge_byte_arrays:0000000000000042 .L0 
C:\Users\stapi\AppData\Local\Temp\ccbUglnk.s:2132   .text.merge_byte_arrays:0000000000000050 .L0 
C:\Users\stapi\AppData\Local\Temp\ccbUglnk.s:2133   .text.merge_byte_arrays:0000000000000050 .L0 
C:\Users\stapi\AppData\Local\Temp\ccbUglnk.s:2137   .text.merge_byte_arrays:0000000000000052 .L0 
C:\Users\stapi\AppData\Local\Temp\ccbUglnk.s:2138   .text.merge_byte_arrays:0000000000000052 .L0 
C:\Users\stapi\AppData\Local\Temp\ccbUglnk.s:2140   .text.merge_byte_arrays:0000000000000056 .L0 
C:\Users\stapi\AppData\Local\Temp\ccbUglnk.s:2141   .text.merge_byte_arrays:0000000000000056 .L0 
C:\Users\stapi\AppData\Local\Temp\ccbUglnk.s:2144   .text.merge_byte_arrays:000000000000005a .L0 
C:\Users\stapi\AppData\Local\Temp\ccbUglnk.s:2146   .text.merge_byte_arrays:000000000000005e .L0 
C:\Users\stapi\AppData\Local\Temp\ccbUglnk.s:2148   .text.merge_byte_arrays:0000000000000062 .L0 
C:\Users\stapi\AppData\Local\Temp\ccbUglnk.s:2155   .text.merge_byte_arrays:000000000000006a .L0 
C:\Users\stapi\AppData\Local\Temp\ccbUglnk.s:2160   .text.merge_byte_arrays:000000000000006e .L0 
C:\Users\stapi\AppData\Local\Temp\ccbUglnk.s:2166   .text.merge_byte_arrays:000000000000007a .L0 
C:\Users\stapi\AppData\Local\Temp\ccbUglnk.s:2167   .text.merge_byte_arrays:000000000000007a .L0 
C:\Users\stapi\AppData\Local\Temp\ccbUglnk.s:2170   .text.merge_byte_arrays:000000000000007e .L0 
C:\Users\stapi\AppData\Local\Temp\ccbUglnk.s:2177   .text.dup_binstr:0000000000000000 dup_binstr
C:\Users\stapi\AppData\Local\Temp\ccbUglnk.s:2180   .text.dup_binstr:0000000000000000 .L0 
C:\Users\stapi\AppData\Local\Temp\ccbUglnk.s:2182   .text.dup_binstr:0000000000000000 .L0 
C:\Users\stapi\AppData\Local\Temp\ccbUglnk.s:2183   .text.dup_binstr:0000000000000008 .L0 
C:\Users\stapi\AppData\Local\Temp\ccbUglnk.s:2184   .text.dup_binstr:0000000000000008 .L0 
C:\Users\stapi\AppData\Local\Temp\ccbUglnk.s:2185   .text.dup_binstr:0000000000000008 .L0 
C:\Users\stapi\AppData\Local\Temp\ccbUglnk.s:2186   .text.dup_binstr:0000000000000008 .L0 
C:\Users\stapi\AppData\Local\Temp\ccbUglnk.s:2187   .text.dup_binstr:0000000000000008 .L0 
C:\Users\stapi\AppData\Local\Temp\ccbUglnk.s:2189   .text.dup_binstr:0000000000000008 .L0 
C:\Users\stapi\AppData\Local\Temp\ccbUglnk.s:2190   .text.dup_binstr:0000000000000008 .L0 
C:\Users\stapi\AppData\Local\Temp\ccbUglnk.s:2191   .text.dup_binstr:0000000000000008 .L0 
C:\Users\stapi\AppData\Local\Temp\ccbUglnk.s:2193   .text.dup_binstr:000000000000000a .L0 
C:\Users\stapi\AppData\Local\Temp\ccbUglnk.s:2196   .text.dup_binstr:000000000000000e .L0 
C:\Users\stapi\AppData\Local\Temp\ccbUglnk.s:2200   .text.dup_binstr:0000000000000014 .L0 
C:\Users\stapi\AppData\Local\Temp\ccbUglnk.s:2201   .text.dup_binstr:0000000000000014 .L0 
C:\Users\stapi\AppData\Local\Temp\ccbUglnk.s:2206   .text.dup_binstr:000000000000001e .L0 
C:\Users\stapi\AppData\Local\Temp\ccbUglnk.s:2207   .text.dup_binstr:000000000000001e .L0 
C:\Users\stapi\AppData\Local\Temp\ccbUglnk.s:2209   .text.dup_binstr:0000000000000020 .L0 
C:\Users\stapi\AppData\Local\Temp\ccbUglnk.s:2212   .text.dup_binstr:0000000000000024 .L0 
C:\Users\stapi\AppData\Local\Temp\ccbUglnk.s:2215   .text.dup_binstr:0000000000000026 .L0 
C:\Users\stapi\AppData\Local\Temp\ccbUglnk.s:2218   .text.dup_binstr:000000000000002e .L0 
C:\Users\stapi\AppData\Local\Temp\ccbUglnk.s:2219   .text.dup_binstr:000000000000002e .L0 
C:\Users\stapi\AppData\Local\Temp\ccbUglnk.s:2223   .text.dup_binstr:0000000000000032 .L0 
C:\Users\stapi\AppData\Local\Temp\ccbUglnk.s:2224   .text.dup_binstr:0000000000000032 .L0 
C:\Users\stapi\AppData\Local\Temp\ccbUglnk.s:2226   .text.dup_binstr:000000000000003c .L0 
C:\Users\stapi\AppData\Local\Temp\ccbUglnk.s:2227   .text.dup_binstr:000000000000003c .L0 
C:\Users\stapi\AppData\Local\Temp\ccbUglnk.s:2228   .text.dup_binstr:000000000000003c .L0 
C:\Users\stapi\AppData\Local\Temp\ccbUglnk.s:2229   .text.dup_binstr:000000000000003c .L0 
C:\Users\stapi\AppData\Local\Temp\ccbUglnk.s:2230   .text.dup_binstr:000000000000003c .L0 
C:\Users\stapi\AppData\Local\Temp\ccbUglnk.s:2231   .text.dup_binstr:000000000000003c .L0 
C:\Users\stapi\AppData\Local\Temp\ccbUglnk.s:2238   .text.wpa_config_parse_string:0000000000000000 wpa_config_parse_string
C:\Users\stapi\AppData\Local\Temp\ccbUglnk.s:2241   .text.wpa_config_parse_string:0000000000000000 .L0 
C:\Users\stapi\AppData\Local\Temp\ccbUglnk.s:2243   .text.wpa_config_parse_string:0000000000000000 .L0 
C:\Users\stapi\AppData\Local\Temp\ccbUglnk.s:2244   .text.wpa_config_parse_string:0000000000000008 .L0 
C:\Users\stapi\AppData\Local\Temp\ccbUglnk.s:2245   .text.wpa_config_parse_string:0000000000000008 .L0 
C:\Users\stapi\AppData\Local\Temp\ccbUglnk.s:2246   .text.wpa_config_parse_string:0000000000000008 .L0 
C:\Users\stapi\AppData\Local\Temp\ccbUglnk.s:2247   .text.wpa_config_parse_string:0000000000000008 .L0 
C:\Users\stapi\AppData\Local\Temp\ccbUglnk.s:2248   .text.wpa_config_parse_string:0000000000000008 .L0 
C:\Users\stapi\AppData\Local\Temp\ccbUglnk.s:2249   .text.wpa_config_parse_string:0000000000000008 .L0 
C:\Users\stapi\AppData\Local\Temp\ccbUglnk.s:2251   .text.wpa_config_parse_string:0000000000000008 .L0 
C:\Users\stapi\AppData\Local\Temp\ccbUglnk.s:2252   .text.wpa_config_parse_string:0000000000000008 .L0 
C:\Users\stapi\AppData\Local\Temp\ccbUglnk.s:2254   .text.wpa_config_parse_string:000000000000000c .L0 
C:\Users\stapi\AppData\Local\Temp\ccbUglnk.s:2257   .text.wpa_config_parse_string:0000000000000010 .L0 
C:\Users\stapi\AppData\Local\Temp\ccbUglnk.s:2259   .text.wpa_config_parse_string:0000000000000014 .L0 
C:\Users\stapi\AppData\Local\Temp\ccbUglnk.s:2262   .text.wpa_config_parse_string:0000000000000018 .L0 
C:\Users\stapi\AppData\Local\Temp\ccbUglnk.s:2263   .text.wpa_config_parse_string:0000000000000018 .L0 
C:\Users\stapi\AppData\Local\Temp\ccbUglnk.s:2264   .text.wpa_config_parse_string:0000000000000018 .L0 
C:\Users\stapi\AppData\Local\Temp\ccbUglnk.s:2265   .text.wpa_config_parse_string:0000000000000018 .L0 
C:\Users\stapi\AppData\Local\Temp\ccbUglnk.s:2268   .text.wpa_config_parse_string:000000000000001c .L0 
C:\Users\stapi\AppData\Local\Temp\ccbUglnk.s:2269   .text.wpa_config_parse_string:000000000000001c .L0 
C:\Users\stapi\AppData\Local\Temp\ccbUglnk.s:2275   .text.wpa_config_parse_string:000000000000002a .L0 
C:\Users\stapi\AppData\Local\Temp\ccbUglnk.s:2276   .text.wpa_config_parse_string:000000000000002a .L0 
C:\Users\stapi\AppData\Local\Temp\ccbUglnk.s:2282   .text.wpa_config_parse_string:000000000000002c .L0 
C:\Users\stapi\AppData\Local\Temp\ccbUglnk.s:2283   .text.wpa_config_parse_string:000000000000002c .L0 
C:\Users\stapi\AppData\Local\Temp\ccbUglnk.s:2290   .text.wpa_config_parse_string:0000000000000030 .L0 
C:\Users\stapi\AppData\Local\Temp\ccbUglnk.s:2293   .text.wpa_config_parse_string:0000000000000036 .L0 
C:\Users\stapi\AppData\Local\Temp\ccbUglnk.s:2294   .text.wpa_config_parse_string:0000000000000036 .L0 
C:\Users\stapi\AppData\Local\Temp\ccbUglnk.s:2296   .text.wpa_config_parse_string:000000000000003a .L0 
C:\Users\stapi\AppData\Local\Temp\ccbUglnk.s:2298   .text.wpa_config_parse_string:000000000000003e .L0 
C:\Users\stapi\AppData\Local\Temp\ccbUglnk.s:2299   .text.wpa_config_parse_string:000000000000003e .L0 
C:\Users\stapi\AppData\Local\Temp\ccbUglnk.s:2308   .text.wpa_config_parse_string:000000000000004a .L0 
C:\Users\stapi\AppData\Local\Temp\ccbUglnk.s:2309   .text.wpa_config_parse_string:000000000000004a .L0 
C:\Users\stapi\AppData\Local\Temp\ccbUglnk.s:2311   .text.wpa_config_parse_string:0000000000000054 .L0 
C:\Users\stapi\AppData\Local\Temp\ccbUglnk.s:2312   .text.wpa_config_parse_string:0000000000000054 .L0 
C:\Users\stapi\AppData\Local\Temp\ccbUglnk.s:2313   .text.wpa_config_parse_string:0000000000000054 .L0 
C:\Users\stapi\AppData\Local\Temp\ccbUglnk.s:2314   .text.wpa_config_parse_string:0000000000000054 .L0 
C:\Users\stapi\AppData\Local\Temp\ccbUglnk.s:2315   .text.wpa_config_parse_string:0000000000000054 .L0 
C:\Users\stapi\AppData\Local\Temp\ccbUglnk.s:2316   .text.wpa_config_parse_string:0000000000000054 .L0 
C:\Users\stapi\AppData\Local\Temp\ccbUglnk.s:2317   .text.wpa_config_parse_string:0000000000000054 .L0 
C:\Users\stapi\AppData\Local\Temp\ccbUglnk.s:2320   .text.wpa_config_parse_string:0000000000000054 .L0 
C:\Users\stapi\AppData\Local\Temp\ccbUglnk.s:2322   .text.wpa_config_parse_string:0000000000000054 .L0 
C:\Users\stapi\AppData\Local\Temp\ccbUglnk.s:2323   .text.wpa_config_parse_string:0000000000000054 .L0 
C:\Users\stapi\AppData\Local\Temp\ccbUglnk.s:2326   .text.wpa_config_parse_string:000000000000005c .L0 
C:\Users\stapi\AppData\Local\Temp\ccbUglnk.s:2330   .text.wpa_config_parse_string:0000000000000064 .L0 
C:\Users\stapi\AppData\Local\Temp\ccbUglnk.s:2331   .text.wpa_config_parse_string:0000000000000064 .L0 
C:\Users\stapi\AppData\Local\Temp\ccbUglnk.s:2332   .text.wpa_config_parse_string:0000000000000064 .L0 
C:\Users\stapi\AppData\Local\Temp\ccbUglnk.s:2333   .text.wpa_config_parse_string:0000000000000064 .L0 
C:\Users\stapi\AppData\Local\Temp\ccbUglnk.s:2334   .text.wpa_config_parse_string:0000000000000064 .L0 
C:\Users\stapi\AppData\Local\Temp\ccbUglnk.s:2337   .text.wpa_config_parse_string:0000000000000068 .L0 
C:\Users\stapi\AppData\Local\Temp\ccbUglnk.s:2338   .text.wpa_config_parse_string:0000000000000068 .L0 
C:\Users\stapi\AppData\Local\Temp\ccbUglnk.s:2344   .text.wpa_config_parse_string:0000000000000076 .L0 
C:\Users\stapi\AppData\Local\Temp\ccbUglnk.s:2345   .text.wpa_config_parse_string:0000000000000076 .L0 
C:\Users\stapi\AppData\Local\Temp\ccbUglnk.s:2347   .text.wpa_config_parse_string:0000000000000078 .L0 
C:\Users\stapi\AppData\Local\Temp\ccbUglnk.s:2350   .text.wpa_config_parse_string:000000000000007e .L0 
C:\Users\stapi\AppData\Local\Temp\ccbUglnk.s:2351   .text.wpa_config_parse_string:000000000000007e .L0 
C:\Users\stapi\AppData\Local\Temp\ccbUglnk.s:2354   .text.wpa_config_parse_string:0000000000000082 .L0 
C:\Users\stapi\AppData\Local\Temp\ccbUglnk.s:2355   .text.wpa_config_parse_string:0000000000000082 .L0 
C:\Users\stapi\AppData\Local\Temp\ccbUglnk.s:2363   .text.wpa_config_parse_string:0000000000000090 .L0 
C:\Users\stapi\AppData\Local\Temp\ccbUglnk.s:2364   .text.wpa_config_parse_string:0000000000000090 .L0 
C:\Users\stapi\AppData\Local\Temp\ccbUglnk.s:2366   .text.wpa_config_parse_string:0000000000000092 .L0 
C:\Users\stapi\AppData\Local\Temp\ccbUglnk.s:2367   .text.wpa_config_parse_string:0000000000000092 .L0 
C:\Users\stapi\AppData\Local\Temp\ccbUglnk.s:2376   .text.wpa_config_parse_string:00000000000000a2 .L0 
C:\Users\stapi\AppData\Local\Temp\ccbUglnk.s:2377   .text.wpa_config_parse_string:00000000000000a2 .L0 
C:\Users\stapi\AppData\Local\Temp\ccbUglnk.s:2380   .text.wpa_config_parse_string:00000000000000a4 .L0 
C:\Users\stapi\AppData\Local\Temp\ccbUglnk.s:2384   .text.wpa_config_parse_string:00000000000000ae .L0 
C:\Users\stapi\AppData\Local\Temp\ccbUglnk.s:2385   .text.wpa_config_parse_string:00000000000000ae .L0 
C:\Users\stapi\AppData\Local\Temp\ccbUglnk.s:2388   .text.wpa_config_parse_string:00000000000000b0 .L0 
C:\Users\stapi\AppData\Local\Temp\ccbUglnk.s:2389   .text.wpa_config_parse_string:00000000000000b0 .L0 
C:\Users\stapi\AppData\Local\Temp\ccbUglnk.s:2394   .text.wpa_config_parse_string:00000000000000bc .L0 
C:\Users\stapi\AppData\Local\Temp\ccbUglnk.s:2401   .text.wpa_config_parse_string:00000000000000c2 .L0 
C:\Users\stapi\AppData\Local\Temp\ccbUglnk.s:2402   .text.wpa_config_parse_string:00000000000000c2 .L0 
C:\Users\stapi\AppData\Local\Temp\ccbUglnk.s:2403   .text.wpa_config_parse_string:00000000000000c2 .L0 
C:\Users\stapi\AppData\Local\Temp\ccbUglnk.s:2407   .text.wpa_config_parse_string:00000000000000cc .L0 
C:\Users\stapi\AppData\Local\Temp\ccbUglnk.s:2408   .text.wpa_config_parse_string:00000000000000cc .L0 
C:\Users\stapi\AppData\Local\Temp\ccbUglnk.s:2410   .text.wpa_config_parse_string:00000000000000d0 .L0 
C:\Users\stapi\AppData\Local\Temp\ccbUglnk.s:2412   .text.wpa_config_parse_string:00000000000000d2 .L0 
C:\Users\stapi\AppData\Local\Temp\ccbUglnk.s:2413   .text.wpa_config_parse_string:00000000000000d2 .L0 
C:\Users\stapi\AppData\Local\Temp\ccbUglnk.s:2416   .text.wpa_config_parse_string:00000000000000d6 .L0 
C:\Users\stapi\AppData\Local\Temp\ccbUglnk.s:2417   .text.wpa_config_parse_string:00000000000000d6 .L0 
C:\Users\stapi\AppData\Local\Temp\ccbUglnk.s:2424   .text.wpa_config_parse_string:00000000000000e4 .L0 
C:\Users\stapi\AppData\Local\Temp\ccbUglnk.s:2425   .text.wpa_config_parse_string:00000000000000e4 .L0 
C:\Users\stapi\AppData\Local\Temp\ccbUglnk.s:2427   .text.wpa_config_parse_string:00000000000000e6 .L0 
C:\Users\stapi\AppData\Local\Temp\ccbUglnk.s:2428   .text.wpa_config_parse_string:00000000000000e6 .L0 
C:\Users\stapi\AppData\Local\Temp\ccbUglnk.s:2434   .text.wpa_config_parse_string:00000000000000f4 .L0 
C:\Users\stapi\AppData\Local\Temp\ccbUglnk.s:2436   .text.wpa_config_parse_string:00000000000000f6 .L0 
C:\Users\stapi\AppData\Local\Temp\ccbUglnk.s:2442   .text.wpa_config_parse_string:0000000000000102 .L0 
C:\Users\stapi\AppData\Local\Temp\ccbUglnk.s:2443   .text.wpa_config_parse_string:0000000000000102 .L0 
C:\Users\stapi\AppData\Local\Temp\ccbUglnk.s:2446   .text.wpa_config_parse_string:000000000000010a .L0 
C:\Users\stapi\AppData\Local\Temp\ccbUglnk.s:2447   .text.wpa_config_parse_string:000000000000010a .L0 
C:\Users\stapi\AppData\Local\Temp\ccbUglnk.s:2449   .text.wpa_config_parse_string:000000000000010e .L0 
C:\Users\stapi\AppData\Local\Temp\ccbUglnk.s:2450   .text.wpa_config_parse_string:000000000000010e .L0 
C:\Users\stapi\AppData\Local\Temp\ccbUglnk.s:2452   .text.wpa_config_parse_string:0000000000000110 .L0 
C:\Users\stapi\AppData\Local\Temp\ccbUglnk.s:2459   .text.freq_range_list_parse:0000000000000000 freq_range_list_parse
C:\Users\stapi\AppData\Local\Temp\ccbUglnk.s:2462   .text.freq_range_list_parse:0000000000000000 .L0 
C:\Users\stapi\AppData\Local\Temp\ccbUglnk.s:2464   .text.freq_range_list_parse:0000000000000000 .L0 
C:\Users\stapi\AppData\Local\Temp\ccbUglnk.s:2465   .text.freq_range_list_parse:0000000000000008 .L0 
C:\Users\stapi\AppData\Local\Temp\ccbUglnk.s:2466   .text.freq_range_list_parse:0000000000000008 .L0 
C:\Users\stapi\AppData\Local\Temp\ccbUglnk.s:2467   .text.freq_range_list_parse:0000000000000008 .L0 
C:\Users\stapi\AppData\Local\Temp\ccbUglnk.s:2468   .text.freq_range_list_parse:0000000000000008 .L0 
C:\Users\stapi\AppData\Local\Temp\ccbUglnk.s:2469   .text.freq_range_list_parse:0000000000000008 .L0 
C:\Users\stapi\AppData\Local\Temp\ccbUglnk.s:2470   .text.freq_range_list_parse:0000000000000008 .L0 
C:\Users\stapi\AppData\Local\Temp\ccbUglnk.s:2471   .text.freq_range_list_parse:0000000000000008 .L0 
C:\Users\stapi\AppData\Local\Temp\ccbUglnk.s:2472   .text.freq_range_list_parse:0000000000000008 .L0 
C:\Users\stapi\AppData\Local\Temp\ccbUglnk.s:2473   .text.freq_range_list_parse:0000000000000008 .L0 
C:\Users\stapi\AppData\Local\Temp\ccbUglnk.s:2476   .text.freq_range_list_parse:0000000000000008 .L0 
C:\Users\stapi\AppData\Local\Temp\ccbUglnk.s:2477   .text.freq_range_list_parse:0000000000000008 .L0 
C:\Users\stapi\AppData\Local\Temp\ccbUglnk.s:2478   .text.freq_range_list_parse:0000000000000008 .L0 
C:\Users\stapi\AppData\Local\Temp\ccbUglnk.s:2479   .text.freq_range_list_parse:0000000000000008 .L0 
C:\Users\stapi\AppData\Local\Temp\ccbUglnk.s:2480   .text.freq_range_list_parse:0000000000000008 .L0 
C:\Users\stapi\AppData\Local\Temp\ccbUglnk.s:2484   .text.freq_range_list_parse:000000000000000c .L0 
C:\Users\stapi\AppData\Local\Temp\ccbUglnk.s:2485   .text.freq_range_list_parse:000000000000000c .L0 
C:\Users\stapi\AppData\Local\Temp\ccbUglnk.s:2487   .text.freq_range_list_parse:000000000000000e .L0 
C:\Users\stapi\AppData\Local\Temp\ccbUglnk.s:2489   .text.freq_range_list_parse:0000000000000010 .L0 
C:\Users\stapi\AppData\Local\Temp\ccbUglnk.s:2493   .text.freq_range_list_parse:0000000000000012 .L0 
C:\Users\stapi\AppData\Local\Temp\ccbUglnk.s:2495   .text.freq_range_list_parse:0000000000000014 .L0 
C:\Users\stapi\AppData\Local\Temp\ccbUglnk.s:2499   .text.freq_range_list_parse:000000000000001a .L0 
C:\Users\stapi\AppData\Local\Temp\ccbUglnk.s:2503   .text.freq_range_list_parse:0000000000000026 .L0 
C:\Users\stapi\AppData\Local\Temp\ccbUglnk.s:2504   .text.freq_range_list_parse:0000000000000026 .L0 
C:\Users\stapi\AppData\Local\Temp\ccbUglnk.s:2506   .text.freq_range_list_parse:0000000000000028 .L0 
C:\Users\stapi\AppData\Local\Temp\ccbUglnk.s:2508   .text.freq_range_list_parse:000000000000002c .L0 
C:\Users\stapi\AppData\Local\Temp\ccbUglnk.s:2509   .text.freq_range_list_parse:000000000000002c .L0 
C:\Users\stapi\AppData\Local\Temp\ccbUglnk.s:2511   .text.freq_range_list_parse:0000000000000030 .L0 
C:\Users\stapi\AppData\Local\Temp\ccbUglnk.s:2512   .text.freq_range_list_parse:0000000000000030 .L0 
C:\Users\stapi\AppData\Local\Temp\ccbUglnk.s:2515   .text.freq_range_list_parse:0000000000000032 .L0 
C:\Users\stapi\AppData\Local\Temp\ccbUglnk.s:2516   .text.freq_range_list_parse:0000000000000032 .L0 
C:\Users\stapi\AppData\Local\Temp\ccbUglnk.s:2520   .text.freq_range_list_parse:0000000000000036 .L0 
C:\Users\stapi\AppData\Local\Temp\ccbUglnk.s:2524   .text.freq_range_list_parse:0000000000000040 .L0 
C:\Users\stapi\AppData\Local\Temp\ccbUglnk.s:2525   .text.freq_range_list_parse:0000000000000040 .L0 
C:\Users\stapi\AppData\Local\Temp\ccbUglnk.s:2528   .text.freq_range_list_parse:0000000000000042 .L0 
C:\Users\stapi\AppData\Local\Temp\ccbUglnk.s:2529   .text.freq_range_list_parse:000000000000004a .L0 
C:\Users\stapi\AppData\Local\Temp\ccbUglnk.s:2530   .text.freq_range_list_parse:000000000000004a .L0 
C:\Users\stapi\AppData\Local\Temp\ccbUglnk.s:2531   .text.freq_range_list_parse:000000000000004a .L0 
C:\Users\stapi\AppData\Local\Temp\ccbUglnk.s:2532   .text.freq_range_list_parse:000000000000004a .L0 
C:\Users\stapi\AppData\Local\Temp\ccbUglnk.s:2533   .text.freq_range_list_parse:000000000000004a .L0 
C:\Users\stapi\AppData\Local\Temp\ccbUglnk.s:2534   .text.freq_range_list_parse:000000000000004a .L0 
C:\Users\stapi\AppData\Local\Temp\ccbUglnk.s:2535   .text.freq_range_list_parse:000000000000004a .L0 
C:\Users\stapi\AppData\Local\Temp\ccbUglnk.s:2536   .text.freq_range_list_parse:000000000000004a .L0 
C:\Users\stapi\AppData\Local\Temp\ccbUglnk.s:2537   .text.freq_range_list_parse:000000000000004a .L0 
C:\Users\stapi\AppData\Local\Temp\ccbUglnk.s:2538   .text.freq_range_list_parse:000000000000004a .L0 
C:\Users\stapi\AppData\Local\Temp\ccbUglnk.s:2541   .text.freq_range_list_parse:000000000000004a .L0 
C:\Users\stapi\AppData\Local\Temp\ccbUglnk.s:2543   .text.freq_range_list_parse:000000000000004a .L0 
C:\Users\stapi\AppData\Local\Temp\ccbUglnk.s:2544   .text.freq_range_list_parse:000000000000004a .L0 
C:\Users\stapi\AppData\Local\Temp\ccbUglnk.s:2549   .text.freq_range_list_parse:000000000000004c .L0 
C:\Users\stapi\AppData\Local\Temp\ccbUglnk.s:2552   .text.freq_range_list_parse:0000000000000052 .L0 
C:\Users\stapi\AppData\Local\Temp\ccbUglnk.s:2554   .text.freq_range_list_parse:0000000000000056 .L0 
C:\Users\stapi\AppData\Local\Temp\ccbUglnk.s:2563   .text.freq_range_list_parse:0000000000000064 .L0 
C:\Users\stapi\AppData\Local\Temp\ccbUglnk.s:2564   .text.freq_range_list_parse:0000000000000064 .L0 
C:\Users\stapi\AppData\Local\Temp\ccbUglnk.s:2567   .text.freq_range_list_parse:0000000000000066 .L0 
C:\Users\stapi\AppData\Local\Temp\ccbUglnk.s:2568   .text.freq_range_list_parse:0000000000000066 .L0 
C:\Users\stapi\AppData\Local\Temp\ccbUglnk.s:2569   .text.freq_range_list_parse:0000000000000066 .L0 
C:\Users\stapi\AppData\Local\Temp\ccbUglnk.s:2572   .text.freq_range_list_parse:0000000000000068 .L0 
C:\Users\stapi\AppData\Local\Temp\ccbUglnk.s:2574   .text.freq_range_list_parse:000000000000006a .L0 
C:\Users\stapi\AppData\Local\Temp\ccbUglnk.s:2577   .text.freq_range_list_parse:0000000000000072 .L0 
C:\Users\stapi\AppData\Local\Temp\ccbUglnk.s:2579   .text.freq_range_list_parse:0000000000000074 .L0 
C:\Users\stapi\AppData\Local\Temp\ccbUglnk.s:2581   .text.freq_range_list_parse:0000000000000076 .L0 
C:\Users\stapi\AppData\Local\Temp\ccbUglnk.s:2582   .text.freq_range_list_parse:0000000000000076 .L0 
C:\Users\stapi\AppData\Local\Temp\ccbUglnk.s:2589   .text.freq_range_list_parse:0000000000000086 .L0 
C:\Users\stapi\AppData\Local\Temp\ccbUglnk.s:2590   .text.freq_range_list_parse:0000000000000086 .L0 
C:\Users\stapi\AppData\Local\Temp\ccbUglnk.s:2598   .text.freq_range_list_parse:0000000000000096 .L0 
C:\Users\stapi\AppData\Local\Temp\ccbUglnk.s:2599   .text.freq_range_list_parse:0000000000000096 .L0 
C:\Users\stapi\AppData\Local\Temp\ccbUglnk.s:2601   .text.freq_range_list_parse:000000000000009a .L0 
C:\Users\stapi\AppData\Local\Temp\ccbUglnk.s:2603   .text.freq_range_list_parse:000000000000009c .L0 
C:\Users\stapi\AppData\Local\Temp\ccbUglnk.s:2607   .text.freq_range_list_parse:00000000000000a0 .L0 
C:\Users\stapi\AppData\Local\Temp\ccbUglnk.s:2608   .text.freq_range_list_parse:00000000000000a0 .L0 
C:\Users\stapi\AppData\Local\Temp\ccbUglnk.s:2609   .text.freq_range_list_parse:00000000000000a0 .L0 
C:\Users\stapi\AppData\Local\Temp\ccbUglnk.s:2614   .text.freq_range_list_parse:00000000000000ac .L0 
C:\Users\stapi\AppData\Local\Temp\ccbUglnk.s:2618   .text.freq_range_list_parse:00000000000000ae .L0 
C:\Users\stapi\AppData\Local\Temp\ccbUglnk.s:2619   .text.freq_range_list_parse:00000000000000ae .L0 
C:\Users\stapi\AppData\Local\Temp\ccbUglnk.s:2620   .text.freq_range_list_parse:00000000000000ae .L0 
C:\Users\stapi\AppData\Local\Temp\ccbUglnk.s:2622   .text.freq_range_list_parse:00000000000000b0 .L0 
C:\Users\stapi\AppData\Local\Temp\ccbUglnk.s:2623   .text.freq_range_list_parse:00000000000000b0 .L0 
C:\Users\stapi\AppData\Local\Temp\ccbUglnk.s:2627   .text.freq_range_list_parse:00000000000000b2 .L0 
C:\Users\stapi\AppData\Local\Temp\ccbUglnk.s:2632   .text.freq_range_list_parse:00000000000000b6 .L0 
C:\Users\stapi\AppData\Local\Temp\ccbUglnk.s:2633   .text.freq_range_list_parse:00000000000000b6 .L0 
C:\Users\stapi\AppData\Local\Temp\ccbUglnk.s:2636   .text.freq_range_list_parse:00000000000000bc .L0 
C:\Users\stapi\AppData\Local\Temp\ccbUglnk.s:2643   .text.freq_range_list_includes:0000000000000000 freq_range_list_includes
C:\Users\stapi\AppData\Local\Temp\ccbUglnk.s:2646   .text.freq_range_list_includes:0000000000000000 .L0 
C:\Users\stapi\AppData\Local\Temp\ccbUglnk.s:2648   .text.freq_range_list_includes:0000000000000000 .L0 
C:\Users\stapi\AppData\Local\Temp\ccbUglnk.s:2649   .text.freq_range_list_includes:0000000000000000 .L0 
C:\Users\stapi\AppData\Local\Temp\ccbUglnk.s:2650   .text.freq_range_list_includes:0000000000000000 .L0 
C:\Users\stapi\AppData\Local\Temp\ccbUglnk.s:2651   .text.freq_range_list_includes:0000000000000000 .L0 
C:\Users\stapi\AppData\Local\Temp\ccbUglnk.s:2653   .text.freq_range_list_includes:0000000000000002 .L0 
C:\Users\stapi\AppData\Local\Temp\ccbUglnk.s:2655   .text.freq_range_list_includes:0000000000000004 .L0 
C:\Users\stapi\AppData\Local\Temp\ccbUglnk.s:2659   .text.freq_range_list_includes:0000000000000006 .L0 
C:\Users\stapi\AppData\Local\Temp\ccbUglnk.s:2660   .text.freq_range_list_includes:0000000000000006 .L0 
C:\Users\stapi\AppData\Local\Temp\ccbUglnk.s:2664   .text.freq_range_list_includes:000000000000000a .L0 
C:\Users\stapi\AppData\Local\Temp\ccbUglnk.s:2670   .text.freq_range_list_includes:000000000000000e .L0 
C:\Users\stapi\AppData\Local\Temp\ccbUglnk.s:2671   .text.freq_range_list_includes:000000000000000e .L0 
C:\Users\stapi\AppData\Local\Temp\ccbUglnk.s:2674   .text.freq_range_list_includes:0000000000000014 .L0 
C:\Users\stapi\AppData\Local\Temp\ccbUglnk.s:2677   .text.freq_range_list_includes:000000000000001a .L0 
C:\Users\stapi\AppData\Local\Temp\ccbUglnk.s:2681   .text.freq_range_list_includes:0000000000000020 .L0 
C:\Users\stapi\AppData\Local\Temp\ccbUglnk.s:2682   .text.freq_range_list_includes:0000000000000020 .L0 
C:\Users\stapi\AppData\Local\Temp\ccbUglnk.s:2687   .text.freq_range_list_includes:0000000000000024 .L0 
C:\Users\stapi\AppData\Local\Temp\ccbUglnk.s:2690   .text.freq_range_list_includes:0000000000000026 .L0 
C:\Users\stapi\AppData\Local\Temp\ccbUglnk.s:2691   .text.freq_range_list_includes:0000000000000028 .L0 
C:\Users\stapi\AppData\Local\Temp\ccbUglnk.s:2711   .text.freq_range_list_str:0000000000000000 freq_range_list_str
C:\Users\stapi\AppData\Local\Temp\ccbUglnk.s:2714   .text.freq_range_list_str:0000000000000000 .L0 
C:\Users\stapi\AppData\Local\Temp\ccbUglnk.s:2716   .text.freq_range_list_str:0000000000000000 .L0 
C:\Users\stapi\AppData\Local\Temp\ccbUglnk.s:2717   .text.freq_range_list_str:0000000000000008 .L0 
C:\Users\stapi\AppData\Local\Temp\ccbUglnk.s:2718   .text.freq_range_list_str:0000000000000008 .L0 
C:\Users\stapi\AppData\Local\Temp\ccbUglnk.s:2719   .text.freq_range_list_str:0000000000000008 .L0 
C:\Users\stapi\AppData\Local\Temp\ccbUglnk.s:2720   .text.freq_range_list_str:0000000000000008 .L0 
C:\Users\stapi\AppData\Local\Temp\ccbUglnk.s:2721   .text.freq_range_list_str:0000000000000008 .L0 
C:\Users\stapi\AppData\Local\Temp\ccbUglnk.s:2722   .text.freq_range_list_str:0000000000000008 .L0 
C:\Users\stapi\AppData\Local\Temp\ccbUglnk.s:2723   .text.freq_range_list_str:0000000000000008 .L0 
C:\Users\stapi\AppData\Local\Temp\ccbUglnk.s:2724   .text.freq_range_list_str:0000000000000008 .L0 
C:\Users\stapi\AppData\Local\Temp\ccbUglnk.s:2725   .text.freq_range_list_str:0000000000000008 .L0 
C:\Users\stapi\AppData\Local\Temp\ccbUglnk.s:2726   .text.freq_range_list_str:0000000000000008 .L0 
C:\Users\stapi\AppData\Local\Temp\ccbUglnk.s:2727   .text.freq_range_list_str:0000000000000008 .L0 
C:\Users\stapi\AppData\Local\Temp\ccbUglnk.s:2728   .text.freq_range_list_str:0000000000000008 .L0 
C:\Users\stapi\AppData\Local\Temp\ccbUglnk.s:2730   .text.freq_range_list_str:0000000000000008 .L0 
C:\Users\stapi\AppData\Local\Temp\ccbUglnk.s:2731   .text.freq_range_list_str:0000000000000008 .L0 
C:\Users\stapi\AppData\Local\Temp\ccbUglnk.s:2732   .text.freq_range_list_str:0000000000000008 .L0 
C:\Users\stapi\AppData\Local\Temp\ccbUglnk.s:2733   .text.freq_range_list_str:0000000000000008 .L0 
C:\Users\stapi\AppData\Local\Temp\ccbUglnk.s:2734   .text.freq_range_list_str:0000000000000008 .L0 
C:\Users\stapi\AppData\Local\Temp\ccbUglnk.s:2735   .text.freq_range_list_str:0000000000000008 .L0 
C:\Users\stapi\AppData\Local\Temp\ccbUglnk.s:2737   .text.freq_range_list_str:000000000000000a .L0 
C:\Users\stapi\AppData\Local\Temp\ccbUglnk.s:2742   .text.freq_range_list_str:000000000000000c .L0 
C:\Users\stapi\AppData\Local\Temp\ccbUglnk.s:2743   .text.freq_range_list_str:000000000000000c .L0 
C:\Users\stapi\AppData\Local\Temp\ccbUglnk.s:2747   .text.freq_range_list_str:000000000000000e .L0 
C:\Users\stapi\AppData\Local\Temp\ccbUglnk.s:2749   .text.freq_range_list_str:0000000000000018 .L0 
C:\Users\stapi\AppData\Local\Temp\ccbUglnk.s:2750   .text.freq_range_list_str:0000000000000018 .L0 
C:\Users\stapi\AppData\Local\Temp\ccbUglnk.s:2751   .text.freq_range_list_str:0000000000000018 .L0 
C:\Users\stapi\AppData\Local\Temp\ccbUglnk.s:2752   .text.freq_range_list_str:0000000000000018 .L0 
C:\Users\stapi\AppData\Local\Temp\ccbUglnk.s:2753   .text.freq_range_list_str:0000000000000018 .L0 
C:\Users\stapi\AppData\Local\Temp\ccbUglnk.s:2754   .text.freq_range_list_str:0000000000000018 .L0 
C:\Users\stapi\AppData\Local\Temp\ccbUglnk.s:2755   .text.freq_range_list_str:0000000000000018 .L0 
C:\Users\stapi\AppData\Local\Temp\ccbUglnk.s:2756   .text.freq_range_list_str:0000000000000018 .L0 
C:\Users\stapi\AppData\Local\Temp\ccbUglnk.s:2757   .text.freq_range_list_str:0000000000000018 .L0 
C:\Users\stapi\AppData\Local\Temp\ccbUglnk.s:2758   .text.freq_range_list_str:0000000000000018 .L0 
C:\Users\stapi\AppData\Local\Temp\ccbUglnk.s:2759   .text.freq_range_list_str:0000000000000018 .L0 
C:\Users\stapi\AppData\Local\Temp\ccbUglnk.s:2760   .text.freq_range_list_str:0000000000000018 .L0 
C:\Users\stapi\AppData\Local\Temp\ccbUglnk.s:2761   .text.freq_range_list_str:0000000000000018 .L0 
C:\Users\stapi\AppData\Local\Temp\ccbUglnk.s:2764   .text.freq_range_list_str:0000000000000018 .L0 
C:\Users\stapi\AppData\Local\Temp\ccbUglnk.s:2766   .text.freq_range_list_str:0000000000000018 .L0 
C:\Users\stapi\AppData\Local\Temp\ccbUglnk.s:2771   .text.freq_range_list_str:0000000000000020 .L0 
C:\Users\stapi\AppData\Local\Temp\ccbUglnk.s:2772   .text.freq_range_list_str:0000000000000020 .L0 
C:\Users\stapi\AppData\Local\Temp\ccbUglnk.s:2773   .text.freq_range_list_str:0000000000000020 .L0 
C:\Users\stapi\AppData\Local\Temp\ccbUglnk.s:2780   .text.freq_range_list_str:000000000000002c .L0 
C:\Users\stapi\AppData\Local\Temp\ccbUglnk.s:2781   .text.freq_range_list_str:000000000000002c .L0 
C:\Users\stapi\AppData\Local\Temp\ccbUglnk.s:2784   .text.freq_range_list_str:000000000000002e .L0 
C:\Users\stapi\AppData\Local\Temp\ccbUglnk.s:2786   .text.freq_range_list_str:000000000000002e .L0 
C:\Users\stapi\AppData\Local\Temp\ccbUglnk.s:2787   .text.freq_range_list_str:000000000000002e .L0 
C:\Users\stapi\AppData\Local\Temp\ccbUglnk.s:2791   .text.freq_range_list_str:0000000000000036 .L0 
C:\Users\stapi\AppData\Local\Temp\ccbUglnk.s:2794   .text.freq_range_list_str:000000000000003a .L0 
C:\Users\stapi\AppData\Local\Temp\ccbUglnk.s:2796   .text.freq_range_list_str:000000000000003c .L0 
C:\Users\stapi\AppData\Local\Temp\ccbUglnk.s:2800   .text.freq_range_list_str:000000000000003e .L0 
C:\Users\stapi\AppData\Local\Temp\ccbUglnk.s:2804   .text.freq_range_list_str:000000000000004a .L0 
C:\Users\stapi\AppData\Local\Temp\ccbUglnk.s:2809   .text.freq_range_list_str:000000000000004e .L0 
C:\Users\stapi\AppData\Local\Temp\ccbUglnk.s:2810   .text.freq_range_list_str:000000000000004e .L0 
C:\Users\stapi\AppData\Local\Temp\ccbUglnk.s:2814   .text.freq_range_list_str:0000000000000056 .L0 
C:\Users\stapi\AppData\Local\Temp\ccbUglnk.s:2815   .text.freq_range_list_str:0000000000000056 .L0 
C:\Users\stapi\AppData\Local\Temp\ccbUglnk.s:2817   .text.freq_range_list_str:000000000000005a .L0 
C:\Users\stapi\AppData\Local\Temp\ccbUglnk.s:2819   .text.freq_range_list_str:000000000000005e .L0 
C:\Users\stapi\AppData\Local\Temp\ccbUglnk.s:2821   .text.freq_range_list_str:0000000000000060 .L0 
C:\Users\stapi\AppData\Local\Temp\ccbUglnk.s:2824   .text.freq_range_list_str:0000000000000064 .L0 
C:\Users\stapi\AppData\Local\Temp\ccbUglnk.s:2825   .text.freq_range_list_str:0000000000000064 .L0 
C:\Users\stapi\AppData\Local\Temp\ccbUglnk.s:2827   .text.freq_range_list_str:0000000000000066 .L0 
C:\Users\stapi\AppData\Local\Temp\ccbUglnk.s:2830   .text.freq_range_list_str:0000000000000068 .L0 
C:\Users\stapi\AppData\Local\Temp\ccbUglnk.s:2832   .text.freq_range_list_str:000000000000006c .L0 
C:\Users\stapi\AppData\Local\Temp\ccbUglnk.s:2833   .text.freq_range_list_str:000000000000006c .L0 
C:\Users\stapi\AppData\Local\Temp\ccbUglnk.s:2837   .text.freq_range_list_str:0000000000000070 .L0 
C:\Users\stapi\AppData\Local\Temp\ccbUglnk.s:2846   .text.freq_range_list_str:0000000000000080 .L0 
C:\Users\stapi\AppData\Local\Temp\ccbUglnk.s:2847   .text.freq_range_list_str:0000000000000080 .L0 
C:\Users\stapi\AppData\Local\Temp\ccbUglnk.s:2848   .text.freq_range_list_str:0000000000000080 .L0 
C:\Users\stapi\AppData\Local\Temp\ccbUglnk.s:2854   .text.freq_range_list_str:0000000000000088 .L0 
C:\Users\stapi\AppData\Local\Temp\ccbUglnk.s:2855   .text.freq_range_list_str:0000000000000088 .L0 
C:\Users\stapi\AppData\Local\Temp\ccbUglnk.s:2859   .text.freq_range_list_str:000000000000008a .L0 
C:\Users\stapi\AppData\Local\Temp\ccbUglnk.s:2860   .text.freq_range_list_str:000000000000008a .L0 
C:\Users\stapi\AppData\Local\Temp\ccbUglnk.s:2867   .text.freq_range_list_str:000000000000008e .L0 
C:\Users\stapi\AppData\Local\Temp\ccbUglnk.s:2868   .text.freq_range_list_str:000000000000008e .L0 
C:\Users\stapi\AppData\Local\Temp\ccbUglnk.s:2872   .text.freq_range_list_str:0000000000000092 .L0 
C:\Users\stapi\AppData\Local\Temp\ccbUglnk.s:2881   .text.freq_range_list_str:00000000000000a4 .L0 
C:\Users\stapi\AppData\Local\Temp\ccbUglnk.s:2887   .text.freq_range_list_str:00000000000000b0 .L0 
C:\Users\stapi\AppData\Local\Temp\ccbUglnk.s:2894   .text.int_array_len:0000000000000000 int_array_len
C:\Users\stapi\AppData\Local\Temp\ccbUglnk.s:2897   .text.int_array_len:0000000000000000 .L0 
C:\Users\stapi\AppData\Local\Temp\ccbUglnk.s:2899   .text.int_array_len:0000000000000000 .L0 
C:\Users\stapi\AppData\Local\Temp\ccbUglnk.s:2900   .text.int_array_len:0000000000000000 .L0 
C:\Users\stapi\AppData\Local\Temp\ccbUglnk.s:2901   .text.int_array_len:0000000000000000 .L0 
C:\Users\stapi\AppData\Local\Temp\ccbUglnk.s:2902   .text.int_array_len:0000000000000000 .L0 
C:\Users\stapi\AppData\Local\Temp\ccbUglnk.s:2904   .text.int_array_len:0000000000000002 .L0 
C:\Users\stapi\AppData\Local\Temp\ccbUglnk.s:2908   .text.int_array_len:0000000000000004 .L0 
C:\Users\stapi\AppData\Local\Temp\ccbUglnk.s:2909   .text.int_array_len:0000000000000004 .L0 
C:\Users\stapi\AppData\Local\Temp\ccbUglnk.s:2911   .text.int_array_len:0000000000000006 .L0 
C:\Users\stapi\AppData\Local\Temp\ccbUglnk.s:2913   .text.int_array_len:000000000000000a .L0 
C:\Users\stapi\AppData\Local\Temp\ccbUglnk.s:2917   .text.int_array_len:000000000000000e .L0 
C:\Users\stapi\AppData\Local\Temp\ccbUglnk.s:2920   .text.int_array_len:0000000000000010 .L0 
C:\Users\stapi\AppData\Local\Temp\ccbUglnk.s:2921   .text.int_array_len:0000000000000010 .L0 
C:\Users\stapi\AppData\Local\Temp\ccbUglnk.s:2922   .text.int_array_len:0000000000000010 .L0 
C:\Users\stapi\AppData\Local\Temp\ccbUglnk.s:2925   .text.int_array_len:0000000000000014 .L0 
C:\Users\stapi\AppData\Local\Temp\ccbUglnk.s:2932   .text.int_array_concat:0000000000000000 int_array_concat
C:\Users\stapi\AppData\Local\Temp\ccbUglnk.s:2935   .text.int_array_concat:0000000000000000 .L0 
C:\Users\stapi\AppData\Local\Temp\ccbUglnk.s:2937   .text.int_array_concat:0000000000000000 .L0 
C:\Users\stapi\AppData\Local\Temp\ccbUglnk.s:2938   .text.int_array_concat:0000000000000008 .L0 
C:\Users\stapi\AppData\Local\Temp\ccbUglnk.s:2939   .text.int_array_concat:0000000000000008 .L0 
C:\Users\stapi\AppData\Local\Temp\ccbUglnk.s:2940   .text.int_array_concat:0000000000000008 .L0 
C:\Users\stapi\AppData\Local\Temp\ccbUglnk.s:2941   .text.int_array_concat:0000000000000008 .L0 
C:\Users\stapi\AppData\Local\Temp\ccbUglnk.s:2942   .text.int_array_concat:0000000000000008 .L0 
C:\Users\stapi\AppData\Local\Temp\ccbUglnk.s:2943   .text.int_array_concat:0000000000000008 .L0 
C:\Users\stapi\AppData\Local\Temp\ccbUglnk.s:2944   .text.int_array_concat:0000000000000008 .L0 
C:\Users\stapi\AppData\Local\Temp\ccbUglnk.s:2945   .text.int_array_concat:0000000000000008 .L0 
C:\Users\stapi\AppData\Local\Temp\ccbUglnk.s:2947   .text.int_array_concat:0000000000000008 .L0 
C:\Users\stapi\AppData\Local\Temp\ccbUglnk.s:2948   .text.int_array_concat:0000000000000008 .L0 
C:\Users\stapi\AppData\Local\Temp\ccbUglnk.s:2949   .text.int_array_concat:0000000000000008 .L0 
C:\Users\stapi\AppData\Local\Temp\ccbUglnk.s:2950   .text.int_array_concat:0000000000000008 .L0 
C:\Users\stapi\AppData\Local\Temp\ccbUglnk.s:2952   .text.int_array_concat:000000000000000c .L0 
C:\Users\stapi\AppData\Local\Temp\ccbUglnk.s:2955   .text.int_array_concat:0000000000000010 .L0 
C:\Users\stapi\AppData\Local\Temp\ccbUglnk.s:2962   .text.int_array_concat:000000000000001c .L0 
C:\Users\stapi\AppData\Local\Temp\ccbUglnk.s:2963   .text.int_array_concat:000000000000001c .L0 
C:\Users\stapi\AppData\Local\Temp\ccbUglnk.s:2967   .text.int_array_concat:0000000000000026 .L0 
C:\Users\stapi\AppData\Local\Temp\ccbUglnk.s:2968   .text.int_array_concat:0000000000000026 .L0 
C:\Users\stapi\AppData\Local\Temp\ccbUglnk.s:2969   .text.int_array_concat:0000000000000026 .L0 
C:\Users\stapi\AppData\Local\Temp\ccbUglnk.s:2971   .text.int_array_concat:000000000000002a .L0 
C:\Users\stapi\AppData\Local\Temp\ccbUglnk.s:2973   .text.int_array_concat:000000000000002e .L0 
C:\Users\stapi\AppData\Local\Temp\ccbUglnk.s:2977   .text.int_array_concat:0000000000000030 .L0 
C:\Users\stapi\AppData\Local\Temp\ccbUglnk.s:2980   .text.int_array_concat:0000000000000038 .L0 
C:\Users\stapi\AppData\Local\Temp\ccbUglnk.s:2981   .text.int_array_concat:0000000000000038 .L0 
C:\Users\stapi\AppData\Local\Temp\ccbUglnk.s:2985   .text.int_array_concat:000000000000003c .L0 
C:\Users\stapi\AppData\Local\Temp\ccbUglnk.s:2986   .text.int_array_concat:000000000000003c .L0 
C:\Users\stapi\AppData\Local\Temp\ccbUglnk.s:2987   .text.int_array_concat:0000000000000044 .L0 
C:\Users\stapi\AppData\Local\Temp\ccbUglnk.s:2988   .text.int_array_concat:0000000000000044 .L0 
C:\Users\stapi\AppData\Local\Temp\ccbUglnk.s:2989   .text.int_array_concat:0000000000000044 .L0 
C:\Users\stapi\AppData\Local\Temp\ccbUglnk.s:2990   .text.int_array_concat:0000000000000044 .L0 
C:\Users\stapi\AppData\Local\Temp\ccbUglnk.s:2991   .text.int_array_concat:0000000000000044 .L0 
C:\Users\stapi\AppData\Local\Temp\ccbUglnk.s:2992   .text.int_array_concat:0000000000000044 .L0 
C:\Users\stapi\AppData\Local\Temp\ccbUglnk.s:2993   .text.int_array_concat:0000000000000044 .L0 
C:\Users\stapi\AppData\Local\Temp\ccbUglnk.s:2994   .text.int_array_concat:0000000000000044 .L0 
C:\Users\stapi\AppData\Local\Temp\ccbUglnk.s:2995   .text.int_array_concat:0000000000000044 .L0 
C:\Users\stapi\AppData\Local\Temp\ccbUglnk.s:2998   .text.int_array_concat:0000000000000044 .L0 
C:\Users\stapi\AppData\Local\Temp\ccbUglnk.s:3000   .text.int_array_concat:0000000000000044 .L0 
C:\Users\stapi\AppData\Local\Temp\ccbUglnk.s:3002   .text.int_array_concat:0000000000000048 .L0 
C:\Users\stapi\AppData\Local\Temp\ccbUglnk.s:3009   .text.int_array_concat:0000000000000050 .L0 
C:\Users\stapi\AppData\Local\Temp\ccbUglnk.s:3010   .text.int_array_concat:0000000000000050 .L0 
C:\Users\stapi\AppData\Local\Temp\ccbUglnk.s:3012   .text.int_array_concat:0000000000000052 .L0 
C:\Users\stapi\AppData\Local\Temp\ccbUglnk.s:3018   .text.int_array_concat:0000000000000058 .L0 
C:\Users\stapi\AppData\Local\Temp\ccbUglnk.s:3019   .text.int_array_concat:0000000000000058 .L0 
C:\Users\stapi\AppData\Local\Temp\ccbUglnk.s:3024   .text.int_array_concat:0000000000000060 .L0 
C:\Users\stapi\AppData\Local\Temp\ccbUglnk.s:3025   .text.int_array_concat:0000000000000060 .L0 
C:\Users\stapi\AppData\Local\Temp\ccbUglnk.s:3029   .text.int_array_concat:0000000000000062 .L0 
C:\Users\stapi\AppData\Local\Temp\ccbUglnk.s:3037   .text.int_array_concat:000000000000006a .L0 
C:\Users\stapi\AppData\Local\Temp\ccbUglnk.s:3038   .text.int_array_concat:000000000000006a .L0 
C:\Users\stapi\AppData\Local\Temp\ccbUglnk.s:3041   .text.int_array_concat:0000000000000070 .L0 
C:\Users\stapi\AppData\Local\Temp\ccbUglnk.s:3044   .text.int_array_concat:0000000000000072 .L0 
C:\Users\stapi\AppData\Local\Temp\ccbUglnk.s:3047   .text.int_array_concat:0000000000000074 .L0 
C:\Users\stapi\AppData\Local\Temp\ccbUglnk.s:3048   .text.int_array_concat:0000000000000074 .L0 
C:\Users\stapi\AppData\Local\Temp\ccbUglnk.s:3049   .text.int_array_concat:0000000000000074 .L0 
C:\Users\stapi\AppData\Local\Temp\ccbUglnk.s:3052   .text.int_array_concat:000000000000007a .L0 
C:\Users\stapi\AppData\Local\Temp\ccbUglnk.s:3053   .text.int_array_concat:000000000000007a .L0 
C:\Users\stapi\AppData\Local\Temp\ccbUglnk.s:3055   .text.int_array_concat:000000000000007e .L0 
C:\Users\stapi\AppData\Local\Temp\ccbUglnk.s:3062   .text.int_array_sort_unique:0000000000000000 int_array_sort_unique
C:\Users\stapi\AppData\Local\Temp\ccbUglnk.s:3065   .text.int_array_sort_unique:0000000000000000 .L0 
C:\Users\stapi\AppData\Local\Temp\ccbUglnk.s:3067   .text.int_array_sort_unique:0000000000000000 .L0 
C:\Users\stapi\AppData\Local\Temp\ccbUglnk.s:3068   .text.int_array_sort_unique:0000000000000000 .L0 
C:\Users\stapi\AppData\Local\Temp\ccbUglnk.s:3069   .text.int_array_sort_unique:0000000000000000 .L0 
C:\Users\stapi\AppData\Local\Temp\ccbUglnk.s:3070   .text.int_array_sort_unique:0000000000000000 .L0 
C:\Users\stapi\AppData\Local\Temp\ccbUglnk.s:3072   .text.int_array_sort_unique:0000000000000002 .L0 
C:\Users\stapi\AppData\Local\Temp\ccbUglnk.s:3073   .text.int_array_sort_unique:000000000000000a .L0 
C:\Users\stapi\AppData\Local\Temp\ccbUglnk.s:3074   .text.int_array_sort_unique:000000000000000a .L0 
C:\Users\stapi\AppData\Local\Temp\ccbUglnk.s:3075   .text.int_array_sort_unique:000000000000000a .L0 
C:\Users\stapi\AppData\Local\Temp\ccbUglnk.s:3078   .text.int_array_sort_unique:000000000000000c .L0 
C:\Users\stapi\AppData\Local\Temp\ccbUglnk.s:3079   .text.int_array_sort_unique:000000000000000c .L0 
C:\Users\stapi\AppData\Local\Temp\ccbUglnk.s:3082   .text.int_array_sort_unique:0000000000000014 .L0 
C:\Users\stapi\AppData\Local\Temp\ccbUglnk.s:3084   .text.int_array_sort_unique:0000000000000018 .L0 
C:\Users\stapi\AppData\Local\Temp\ccbUglnk.s:3087   .text.int_array_sort_unique:000000000000001a .L0 
C:\Users\stapi\AppData\Local\Temp\ccbUglnk.s:3094   .text.int_array_sort_unique:000000000000002a .L0 
C:\Users\stapi\AppData\Local\Temp\ccbUglnk.s:3095   .text.int_array_sort_unique:000000000000002a .L0 
C:\Users\stapi\AppData\Local\Temp\ccbUglnk.s:3096   .text.int_array_sort_unique:000000000000002a .L0 
C:\Users\stapi\AppData\Local\Temp\ccbUglnk.s:3098   .text.int_array_sort_unique:000000000000002e .L0 
C:\Users\stapi\AppData\Local\Temp\ccbUglnk.s:3102   .text.int_array_sort_unique:0000000000000030 .L0 
C:\Users\stapi\AppData\Local\Temp\ccbUglnk.s:3103   .text.int_array_sort_unique:0000000000000030 .L0 
C:\Users\stapi\AppData\Local\Temp\ccbUglnk.s:3106   .text.int_array_sort_unique:0000000000000036 .L0 
C:\Users\stapi\AppData\Local\Temp\ccbUglnk.s:3108   .text.int_array_sort_unique:0000000000000038 .L0 
C:\Users\stapi\AppData\Local\Temp\ccbUglnk.s:3110   .text.int_array_sort_unique:000000000000003a .L0 
C:\Users\stapi\AppData\Local\Temp\ccbUglnk.s:3112   .text.int_array_sort_unique:000000000000003c .L0 
C:\Users\stapi\AppData\Local\Temp\ccbUglnk.s:3113   .text.int_array_sort_unique:000000000000003c .L0 
C:\Users\stapi\AppData\Local\Temp\ccbUglnk.s:3114   .text.int_array_sort_unique:000000000000003c .L0 
C:\Users\stapi\AppData\Local\Temp\ccbUglnk.s:3118   .text.int_array_sort_unique:000000000000003e .L0 
C:\Users\stapi\AppData\Local\Temp\ccbUglnk.s:3119   .text.int_array_sort_unique:000000000000003e .L0 
C:\Users\stapi\AppData\Local\Temp\ccbUglnk.s:3123   .text.int_array_sort_unique:0000000000000046 .L0 
C:\Users\stapi\AppData\Local\Temp\ccbUglnk.s:3124   .text.int_array_sort_unique:000000000000004e .L0 
C:\Users\stapi\AppData\Local\Temp\ccbUglnk.s:3125   .text.int_array_sort_unique:000000000000004e .L0 
C:\Users\stapi\AppData\Local\Temp\ccbUglnk.s:3126   .text.int_array_sort_unique:000000000000004e .L0 
C:\Users\stapi\AppData\Local\Temp\ccbUglnk.s:3127   .text.int_array_sort_unique:000000000000004e .L0 
C:\Users\stapi\AppData\Local\Temp\ccbUglnk.s:3130   .text.int_array_sort_unique:000000000000004e .L0 
C:\Users\stapi\AppData\Local\Temp\ccbUglnk.s:3132   .text.int_array_sort_unique:000000000000004e .L0 
C:\Users\stapi\AppData\Local\Temp\ccbUglnk.s:3133   .text.int_array_sort_unique:000000000000004e .L0 
C:\Users\stapi\AppData\Local\Temp\ccbUglnk.s:3135   .text.int_array_sort_unique:0000000000000052 .L0 
C:\Users\stapi\AppData\Local\Temp\ccbUglnk.s:3136   .text.int_array_sort_unique:0000000000000052 .L0 
C:\Users\stapi\AppData\Local\Temp\ccbUglnk.s:3144   .text.int_array_sort_unique:000000000000005a .L0 
C:\Users\stapi\AppData\Local\Temp\ccbUglnk.s:3145   .text.int_array_sort_unique:000000000000005a .L0 
C:\Users\stapi\AppData\Local\Temp\ccbUglnk.s:3146   .text.int_array_sort_unique:000000000000005a .L0 
C:\Users\stapi\AppData\Local\Temp\ccbUglnk.s:3148   .text.int_array_sort_unique:000000000000005c .L0 
C:\Users\stapi\AppData\Local\Temp\ccbUglnk.s:3155   .text.int_array_add_unique:0000000000000000 int_array_add_unique
C:\Users\stapi\AppData\Local\Temp\ccbUglnk.s:3158   .text.int_array_add_unique:0000000000000000 .L0 
C:\Users\stapi\AppData\Local\Temp\ccbUglnk.s:3160   .text.int_array_add_unique:0000000000000000 .L0 
C:\Users\stapi\AppData\Local\Temp\ccbUglnk.s:3161   .text.int_array_add_unique:0000000000000008 .L0 
C:\Users\stapi\AppData\Local\Temp\ccbUglnk.s:3162   .text.int_array_add_unique:0000000000000008 .L0 
C:\Users\stapi\AppData\Local\Temp\ccbUglnk.s:3163   .text.int_array_add_unique:0000000000000008 .L0 
C:\Users\stapi\AppData\Local\Temp\ccbUglnk.s:3164   .text.int_array_add_unique:0000000000000008 .L0 
C:\Users\stapi\AppData\Local\Temp\ccbUglnk.s:3165   .text.int_array_add_unique:0000000000000008 .L0 
C:\Users\stapi\AppData\Local\Temp\ccbUglnk.s:3167   .text.int_array_add_unique:0000000000000008 .L0 
C:\Users\stapi\AppData\Local\Temp\ccbUglnk.s:3168   .text.int_array_add_unique:0000000000000008 .L0 
C:\Users\stapi\AppData\Local\Temp\ccbUglnk.s:3170   .text.int_array_add_unique:0000000000000008 .L0 
C:\Users\stapi\AppData\Local\Temp\ccbUglnk.s:3171   .text.int_array_add_unique:0000000000000008 .L0 
C:\Users\stapi\AppData\Local\Temp\ccbUglnk.s:3173   .text.int_array_add_unique:000000000000000a .L0 
C:\Users\stapi\AppData\Local\Temp\ccbUglnk.s:3176   .text.int_array_add_unique:000000000000000c .L0 
C:\Users\stapi\AppData\Local\Temp\ccbUglnk.s:3178   .text.int_array_add_unique:000000000000000e .L0 
C:\Users\stapi\AppData\Local\Temp\ccbUglnk.s:3182   .text.int_array_add_unique:0000000000000010 .L0 
C:\Users\stapi\AppData\Local\Temp\ccbUglnk.s:3183   .text.int_array_add_unique:0000000000000010 .L0 
C:\Users\stapi\AppData\Local\Temp\ccbUglnk.s:3185   .text.int_array_add_unique:0000000000000012 .L0 
C:\Users\stapi\AppData\Local\Temp\ccbUglnk.s:3188   .text.int_array_add_unique:0000000000000018 .L0 
C:\Users\stapi\AppData\Local\Temp\ccbUglnk.s:3192   .text.int_array_add_unique:000000000000001a .L0 
C:\Users\stapi\AppData\Local\Temp\ccbUglnk.s:3193   .text.int_array_add_unique:000000000000001a .L0 
C:\Users\stapi\AppData\Local\Temp\ccbUglnk.s:3194   .text.int_array_add_unique:000000000000001a .L0 
C:\Users\stapi\AppData\Local\Temp\ccbUglnk.s:3195   .text.int_array_add_unique:000000000000001a .L0 
C:\Users\stapi\AppData\Local\Temp\ccbUglnk.s:3200   .text.int_array_add_unique:000000000000001c .L0 
C:\Users\stapi\AppData\Local\Temp\ccbUglnk.s:3207   .text.int_array_add_unique:0000000000000022 .L0 
C:\Users\stapi\AppData\Local\Temp\ccbUglnk.s:3211   .text.int_array_add_unique:000000000000002c .L0 
C:\Users\stapi\AppData\Local\Temp\ccbUglnk.s:3212   .text.int_array_add_unique:000000000000002c .L0 
C:\Users\stapi\AppData\Local\Temp\ccbUglnk.s:3216   .text.int_array_add_unique:0000000000000030 .L0 
C:\Users\stapi\AppData\Local\Temp\ccbUglnk.s:3217   .text.int_array_add_unique:0000000000000030 .L0 
C:\Users\stapi\AppData\Local\Temp\ccbUglnk.s:3218   .text.int_array_add_unique:0000000000000038 .L0 
C:\Users\stapi\AppData\Local\Temp\ccbUglnk.s:3219   .text.int_array_add_unique:0000000000000038 .L0 
C:\Users\stapi\AppData\Local\Temp\ccbUglnk.s:3220   .text.int_array_add_unique:0000000000000038 .L0 
C:\Users\stapi\AppData\Local\Temp\ccbUglnk.s:3221   .text.int_array_add_unique:0000000000000038 .L0 
C:\Users\stapi\AppData\Local\Temp\ccbUglnk.s:3222   .text.int_array_add_unique:0000000000000038 .L0 
C:\Users\stapi\AppData\Local\Temp\ccbUglnk.s:3223   .text.int_array_add_unique:0000000000000038 .L0 
C:\Users\stapi\AppData\Local\Temp\ccbUglnk.s:3226   .text.int_array_add_unique:0000000000000038 .L0 
C:\Users\stapi\AppData\Local\Temp\ccbUglnk.s:3228   .text.int_array_add_unique:0000000000000038 .L0 
C:\Users\stapi\AppData\Local\Temp\ccbUglnk.s:3229   .text.int_array_add_unique:0000000000000038 .L0 
C:\Users\stapi\AppData\Local\Temp\ccbUglnk.s:3231   .text.int_array_add_unique:000000000000003c .L0 
C:\Users\stapi\AppData\Local\Temp\ccbUglnk.s:3232   .text.int_array_add_unique:000000000000003c .L0 
C:\Users\stapi\AppData\Local\Temp\ccbUglnk.s:3240   .text.int_array_add_unique:0000000000000040 .L0 
C:\Users\stapi\AppData\Local\Temp\ccbUglnk.s:3241   .text.int_array_add_unique:0000000000000040 .L0 
C:\Users\stapi\AppData\Local\Temp\ccbUglnk.s:3249   .text.int_array_add_unique:000000000000004e .L0 
C:\Users\stapi\AppData\Local\Temp\ccbUglnk.s:3250   .text.int_array_add_unique:000000000000004e .L0 
C:\Users\stapi\AppData\Local\Temp\ccbUglnk.s:3252   .text.int_array_add_unique:0000000000000050 .L0 
C:\Users\stapi\AppData\Local\Temp\ccbUglnk.s:3253   .text.int_array_add_unique:0000000000000050 .L0 
C:\Users\stapi\AppData\Local\Temp\ccbUglnk.s:3256   .text.int_array_add_unique:0000000000000056 .L0 
C:\Users\stapi\AppData\Local\Temp\ccbUglnk.s:3257   .text.int_array_add_unique:0000000000000056 .L0 
C:\Users\stapi\AppData\Local\Temp\ccbUglnk.s:3259   .text.int_array_add_unique:000000000000005a .L0 
C:\Users\stapi\AppData\Local\Temp\ccbUglnk.s:3260   .text.int_array_add_unique:000000000000005a .L0 
C:\Users\stapi\AppData\Local\Temp\ccbUglnk.s:3262   .text.int_array_add_unique:000000000000005e .L0 
C:\Users\stapi\AppData\Local\Temp\ccbUglnk.s:3269   .text.random_mac_addr:0000000000000000 random_mac_addr
C:\Users\stapi\AppData\Local\Temp\ccbUglnk.s:3272   .text.random_mac_addr:0000000000000000 .L0 
C:\Users\stapi\AppData\Local\Temp\ccbUglnk.s:3274   .text.random_mac_addr:0000000000000000 .L0 
C:\Users\stapi\AppData\Local\Temp\ccbUglnk.s:3275   .text.random_mac_addr:0000000000000008 .L0 
C:\Users\stapi\AppData\Local\Temp\ccbUglnk.s:3276   .text.random_mac_addr:0000000000000008 .L0 
C:\Users\stapi\AppData\Local\Temp\ccbUglnk.s:3277   .text.random_mac_addr:0000000000000008 .L0 
C:\Users\stapi\AppData\Local\Temp\ccbUglnk.s:3279   .text.random_mac_addr:0000000000000008 .L0 
C:\Users\stapi\AppData\Local\Temp\ccbUglnk.s:3280   .text.random_mac_addr:0000000000000008 .L0 
C:\Users\stapi\AppData\Local\Temp\ccbUglnk.s:3282   .text.random_mac_addr:000000000000000a .L0 
C:\Users\stapi\AppData\Local\Temp\ccbUglnk.s:3284   .text.random_mac_addr:000000000000000c .L0 
C:\Users\stapi\AppData\Local\Temp\ccbUglnk.s:3287   .text.random_mac_addr:0000000000000014 .L0 
C:\Users\stapi\AppData\Local\Temp\ccbUglnk.s:3289   .text.random_mac_addr:0000000000000018 .L0 
C:\Users\stapi\AppData\Local\Temp\ccbUglnk.s:3290   .text.random_mac_addr:0000000000000018 .L0 
C:\Users\stapi\AppData\Local\Temp\ccbUglnk.s:3291   .text.random_mac_addr:0000000000000018 .L0 
C:\Users\stapi\AppData\Local\Temp\ccbUglnk.s:3293   .text.random_mac_addr:000000000000001c .L0 
C:\Users\stapi\AppData\Local\Temp\ccbUglnk.s:3295   .text.random_mac_addr:000000000000001e .L0 
C:\Users\stapi\AppData\Local\Temp\ccbUglnk.s:3297   .text.random_mac_addr:0000000000000020 .L0 
C:\Users\stapi\AppData\Local\Temp\ccbUglnk.s:3301   .text.random_mac_addr:0000000000000028 .L0 
C:\Users\stapi\AppData\Local\Temp\ccbUglnk.s:3302   .text.random_mac_addr:0000000000000028 .L0 
C:\Users\stapi\AppData\Local\Temp\ccbUglnk.s:3303   .text.random_mac_addr:0000000000000030 .L0 
C:\Users\stapi\AppData\Local\Temp\ccbUglnk.s:3304   .text.random_mac_addr:0000000000000030 .L0 
C:\Users\stapi\AppData\Local\Temp\ccbUglnk.s:3305   .text.random_mac_addr:0000000000000030 .L0 
C:\Users\stapi\AppData\Local\Temp\ccbUglnk.s:3306   .text.random_mac_addr:0000000000000030 .L0 
C:\Users\stapi\AppData\Local\Temp\ccbUglnk.s:3308   .text.random_mac_addr:0000000000000030 .L0 
C:\Users\stapi\AppData\Local\Temp\ccbUglnk.s:3310   .text.random_mac_addr:0000000000000030 .L0 
C:\Users\stapi\AppData\Local\Temp\ccbUglnk.s:3312   .text.random_mac_addr:0000000000000034 .L0 
C:\Users\stapi\AppData\Local\Temp\ccbUglnk.s:3319   .text.random_mac_addr_keep_oui:0000000000000000 random_mac_addr_keep_oui
C:\Users\stapi\AppData\Local\Temp\ccbUglnk.s:3322   .text.random_mac_addr_keep_oui:0000000000000000 .L0 
C:\Users\stapi\AppData\Local\Temp\ccbUglnk.s:3324   .text.random_mac_addr_keep_oui:0000000000000000 .L0 
C:\Users\stapi\AppData\Local\Temp\ccbUglnk.s:3325   .text.random_mac_addr_keep_oui:0000000000000008 .L0 
C:\Users\stapi\AppData\Local\Temp\ccbUglnk.s:3326   .text.random_mac_addr_keep_oui:0000000000000008 .L0 
C:\Users\stapi\AppData\Local\Temp\ccbUglnk.s:3327   .text.random_mac_addr_keep_oui:0000000000000008 .L0 
C:\Users\stapi\AppData\Local\Temp\ccbUglnk.s:3329   .text.random_mac_addr_keep_oui:0000000000000008 .L0 
C:\Users\stapi\AppData\Local\Temp\ccbUglnk.s:3330   .text.random_mac_addr_keep_oui:0000000000000008 .L0 
C:\Users\stapi\AppData\Local\Temp\ccbUglnk.s:3332   .text.random_mac_addr_keep_oui:000000000000000a .L0 
C:\Users\stapi\AppData\Local\Temp\ccbUglnk.s:3338   .text.random_mac_addr_keep_oui:0000000000000016 .L0 
C:\Users\stapi\AppData\Local\Temp\ccbUglnk.s:3340   .text.random_mac_addr_keep_oui:000000000000001a .L0 
C:\Users\stapi\AppData\Local\Temp\ccbUglnk.s:3341   .text.random_mac_addr_keep_oui:000000000000001a .L0 
C:\Users\stapi\AppData\Local\Temp\ccbUglnk.s:3342   .text.random_mac_addr_keep_oui:000000000000001a .L0 
C:\Users\stapi\AppData\Local\Temp\ccbUglnk.s:3344   .text.random_mac_addr_keep_oui:000000000000001e .L0 
C:\Users\stapi\AppData\Local\Temp\ccbUglnk.s:3346   .text.random_mac_addr_keep_oui:0000000000000020 .L0 
C:\Users\stapi\AppData\Local\Temp\ccbUglnk.s:3348   .text.random_mac_addr_keep_oui:0000000000000022 .L0 
C:\Users\stapi\AppData\Local\Temp\ccbUglnk.s:3352   .text.random_mac_addr_keep_oui:000000000000002a .L0 
C:\Users\stapi\AppData\Local\Temp\ccbUglnk.s:3353   .text.random_mac_addr_keep_oui:000000000000002a .L0 
C:\Users\stapi\AppData\Local\Temp\ccbUglnk.s:3354   .text.random_mac_addr_keep_oui:0000000000000032 .L0 
C:\Users\stapi\AppData\Local\Temp\ccbUglnk.s:3355   .text.random_mac_addr_keep_oui:0000000000000032 .L0 
C:\Users\stapi\AppData\Local\Temp\ccbUglnk.s:3356   .text.random_mac_addr_keep_oui:0000000000000032 .L0 
C:\Users\stapi\AppData\Local\Temp\ccbUglnk.s:3357   .text.random_mac_addr_keep_oui:0000000000000032 .L0 
C:\Users\stapi\AppData\Local\Temp\ccbUglnk.s:3359   .text.random_mac_addr_keep_oui:0000000000000032 .L0 
C:\Users\stapi\AppData\Local\Temp\ccbUglnk.s:3361   .text.random_mac_addr_keep_oui:0000000000000032 .L0 
C:\Users\stapi\AppData\Local\Temp\ccbUglnk.s:3363   .text.random_mac_addr_keep_oui:0000000000000036 .L0 
C:\Users\stapi\AppData\Local\Temp\ccbUglnk.s:3370   .text.cstr_token:0000000000000000 cstr_token
C:\Users\stapi\AppData\Local\Temp\ccbUglnk.s:3373   .text.cstr_token:0000000000000000 .L0 
C:\Users\stapi\AppData\Local\Temp\ccbUglnk.s:3375   .text.cstr_token:0000000000000000 .L0 
C:\Users\stapi\AppData\Local\Temp\ccbUglnk.s:3376   .text.cstr_token:0000000000000008 .L0 
C:\Users\stapi\AppData\Local\Temp\ccbUglnk.s:3377   .text.cstr_token:0000000000000008 .L0 
C:\Users\stapi\AppData\Local\Temp\ccbUglnk.s:3378   .text.cstr_token:0000000000000008 .L0 
C:\Users\stapi\AppData\Local\Temp\ccbUglnk.s:3379   .text.cstr_token:0000000000000008 .L0 
C:\Users\stapi\AppData\Local\Temp\ccbUglnk.s:3380   .text.cstr_token:0000000000000008 .L0 
C:\Users\stapi\AppData\Local\Temp\ccbUglnk.s:3381   .text.cstr_token:0000000000000008 .L0 
C:\Users\stapi\AppData\Local\Temp\ccbUglnk.s:3384   .text.cstr_token:0000000000000008 .L0 
C:\Users\stapi\AppData\Local\Temp\ccbUglnk.s:3385   .text.cstr_token:0000000000000008 .L0 
C:\Users\stapi\AppData\Local\Temp\ccbUglnk.s:3386   .text.cstr_token:0000000000000008 .L0 
C:\Users\stapi\AppData\Local\Temp\ccbUglnk.s:3390   .text.cstr_token:000000000000000a .L0 
C:\Users\stapi\AppData\Local\Temp\ccbUglnk.s:3393   .text.cstr_token:000000000000000c .L0 
C:\Users\stapi\AppData\Local\Temp\ccbUglnk.s:3395   .text.cstr_token:0000000000000016 .L0 
C:\Users\stapi\AppData\Local\Temp\ccbUglnk.s:3396   .text.cstr_token:0000000000000016 .L0 
C:\Users\stapi\AppData\Local\Temp\ccbUglnk.s:3397   .text.cstr_token:0000000000000016 .L0 
C:\Users\stapi\AppData\Local\Temp\ccbUglnk.s:3398   .text.cstr_token:0000000000000016 .L0 
C:\Users\stapi\AppData\Local\Temp\ccbUglnk.s:3399   .text.cstr_token:0000000000000016 .L0 
C:\Users\stapi\AppData\Local\Temp\ccbUglnk.s:3400   .text.cstr_token:0000000000000016 .L0 
C:\Users\stapi\AppData\Local\Temp\ccbUglnk.s:3401   .text.cstr_token:0000000000000016 .L0 
C:\Users\stapi\AppData\Local\Temp\ccbUglnk.s:3404   .text.cstr_token:0000000000000016 .L0 
C:\Users\stapi\AppData\Local\Temp\ccbUglnk.s:3407   .text.cstr_token:0000000000000018 .L0 
C:\Users\stapi\AppData\Local\Temp\ccbUglnk.s:3410   .text.cstr_token:000000000000001c .L0 
C:\Users\stapi\AppData\Local\Temp\ccbUglnk.s:3413   .text.cstr_token:000000000000001e .L0 
C:\Users\stapi\AppData\Local\Temp\ccbUglnk.s:3416   .text.cstr_token:0000000000000022 .L0 
C:\Users\stapi\AppData\Local\Temp\ccbUglnk.s:3417   .text.cstr_token:0000000000000022 .L0 
C:\Users\stapi\AppData\Local\Temp\ccbUglnk.s:3423   .text.cstr_token:0000000000000026 .L0 
C:\Users\stapi\AppData\Local\Temp\ccbUglnk.s:3424   .text.cstr_token:0000000000000026 .L0 
C:\Users\stapi\AppData\Local\Temp\ccbUglnk.s:3426   .text.cstr_token:000000000000002a .L0 
C:\Users\stapi\AppData\Local\Temp\ccbUglnk.s:3428   .text.cstr_token:000000000000002c .L0 
C:\Users\stapi\AppData\Local\Temp\ccbUglnk.s:3432   .text.cstr_token:0000000000000036 .L0 
C:\Users\stapi\AppData\Local\Temp\ccbUglnk.s:3434   .text.cstr_token:0000000000000038 .L0 
C:\Users\stapi\AppData\Local\Temp\ccbUglnk.s:3435   .text.cstr_token:0000000000000038 .L0 
C:\Users\stapi\AppData\Local\Temp\ccbUglnk.s:3438   .text.cstr_token:000000000000003e .L0 
C:\Users\stapi\AppData\Local\Temp\ccbUglnk.s:3439   .text.cstr_token:000000000000003e .L0 
C:\Users\stapi\AppData\Local\Temp\ccbUglnk.s:3443   .text.cstr_token:0000000000000042 .L0 
C:\Users\stapi\AppData\Local\Temp\ccbUglnk.s:3444   .text.cstr_token:0000000000000042 .L0 
C:\Users\stapi\AppData\Local\Temp\ccbUglnk.s:3445   .text.cstr_token:0000000000000042 .L0 
C:\Users\stapi\AppData\Local\Temp\ccbUglnk.s:3447   .text.cstr_token:0000000000000046 .L0 
C:\Users\stapi\AppData\Local\Temp\ccbUglnk.s:3450   .text.cstr_token:0000000000000048 .L0 
C:\Users\stapi\AppData\Local\Temp\ccbUglnk.s:3451   .text.cstr_token:0000000000000048 .L0 
C:\Users\stapi\AppData\Local\Temp\ccbUglnk.s:3453   .text.cstr_token:000000000000004c .L0 
C:\Users\stapi\AppData\Local\Temp\ccbUglnk.s:3454   .text.cstr_token:000000000000004c .L0 
C:\Users\stapi\AppData\Local\Temp\ccbUglnk.s:3458   .text.cstr_token:000000000000004e .L0 
C:\Users\stapi\AppData\Local\Temp\ccbUglnk.s:3459   .text.cstr_token:000000000000004e .L0 
C:\Users\stapi\AppData\Local\Temp\ccbUglnk.s:3465   .text.cstr_token:0000000000000052 .L0 
C:\Users\stapi\AppData\Local\Temp\ccbUglnk.s:3469   .text.cstr_token:000000000000005c .L0 
C:\Users\stapi\AppData\Local\Temp\ccbUglnk.s:3471   .text.cstr_token:000000000000005e .L0 
C:\Users\stapi\AppData\Local\Temp\ccbUglnk.s:3472   .text.cstr_token:000000000000005e .L0 
C:\Users\stapi\AppData\Local\Temp\ccbUglnk.s:3475   .text.cstr_token:0000000000000062 .L0 
C:\Users\stapi\AppData\Local\Temp\ccbUglnk.s:3482   .text.str_token:0000000000000000 str_token
C:\Users\stapi\AppData\Local\Temp\ccbUglnk.s:3485   .text.str_token:0000000000000000 .L0 
C:\Users\stapi\AppData\Local\Temp\ccbUglnk.s:3487   .text.str_token:0000000000000000 .L0 
C:\Users\stapi\AppData\Local\Temp\ccbUglnk.s:3488   .text.str_token:0000000000000008 .L0 
C:\Users\stapi\AppData\Local\Temp\ccbUglnk.s:3489   .text.str_token:0000000000000008 .L0 
C:\Users\stapi\AppData\Local\Temp\ccbUglnk.s:3490   .text.str_token:0000000000000008 .L0 
C:\Users\stapi\AppData\Local\Temp\ccbUglnk.s:3492   .text.str_token:0000000000000008 .L0 
C:\Users\stapi\AppData\Local\Temp\ccbUglnk.s:3493   .text.str_token:0000000000000008 .L0 
C:\Users\stapi\AppData\Local\Temp\ccbUglnk.s:3495   .text.str_token:000000000000000a .L0 
C:\Users\stapi\AppData\Local\Temp\ccbUglnk.s:3498   .text.str_token:0000000000000012 .L0 
C:\Users\stapi\AppData\Local\Temp\ccbUglnk.s:3499   .text.str_token:0000000000000012 .L0 
C:\Users\stapi\AppData\Local\Temp\ccbUglnk.s:3501   .text.str_token:0000000000000014 .L0 
C:\Users\stapi\AppData\Local\Temp\ccbUglnk.s:3503   .text.str_token:0000000000000016 .L0 
C:\Users\stapi\AppData\Local\Temp\ccbUglnk.s:3506   .text.str_token:000000000000001c .L0 
C:\Users\stapi\AppData\Local\Temp\ccbUglnk.s:3507   .text.str_token:000000000000001c .L0 
C:\Users\stapi\AppData\Local\Temp\ccbUglnk.s:3510   .text.str_token:0000000000000022 .L0 
C:\Users\stapi\AppData\Local\Temp\ccbUglnk.s:3513   .text.str_token:0000000000000026 .L0 
C:\Users\stapi\AppData\Local\Temp\ccbUglnk.s:3514   .text.str_token:0000000000000026 .L0 
C:\Users\stapi\AppData\Local\Temp\ccbUglnk.s:3515   .text.str_token:000000000000002e .L0 
C:\Users\stapi\AppData\Local\Temp\ccbUglnk.s:3516   .text.str_token:000000000000002e .L0 
C:\Users\stapi\AppData\Local\Temp\ccbUglnk.s:3517   .text.str_token:000000000000002e .L0 
C:\Users\stapi\AppData\Local\Temp\ccbUglnk.s:3518   .text.str_token:000000000000002e .L0 
C:\Users\stapi\AppData\Local\Temp\ccbUglnk.s:3525   .text.utf8_unescape:0000000000000000 utf8_unescape
C:\Users\stapi\AppData\Local\Temp\ccbUglnk.s:3528   .text.utf8_unescape:0000000000000000 .L0 
C:\Users\stapi\AppData\Local\Temp\ccbUglnk.s:3530   .text.utf8_unescape:0000000000000000 .L0 
C:\Users\stapi\AppData\Local\Temp\ccbUglnk.s:3531   .text.utf8_unescape:0000000000000000 .L0 
C:\Users\stapi\AppData\Local\Temp\ccbUglnk.s:3532   .text.utf8_unescape:0000000000000000 .L0 
C:\Users\stapi\AppData\Local\Temp\ccbUglnk.s:3533   .text.utf8_unescape:0000000000000000 .L0 
C:\Users\stapi\AppData\Local\Temp\ccbUglnk.s:3535   .text.utf8_unescape:0000000000000002 .L0 
C:\Users\stapi\AppData\Local\Temp\ccbUglnk.s:3538   .text.utf8_unescape:0000000000000004 .L0 
C:\Users\stapi\AppData\Local\Temp\ccbUglnk.s:3543   .text.utf8_unescape:0000000000000008 .L0 
C:\Users\stapi\AppData\Local\Temp\ccbUglnk.s:3544   .text.utf8_unescape:0000000000000008 .L0 
C:\Users\stapi\AppData\Local\Temp\ccbUglnk.s:3545   .text.utf8_unescape:0000000000000008 .L0 
C:\Users\stapi\AppData\Local\Temp\ccbUglnk.s:3546   .text.utf8_unescape:0000000000000008 .L0 
C:\Users\stapi\AppData\Local\Temp\ccbUglnk.s:3547   .text.utf8_unescape:0000000000000008 .L0 
C:\Users\stapi\AppData\Local\Temp\ccbUglnk.s:3549   .text.utf8_unescape:0000000000000008 .L0 
C:\Users\stapi\AppData\Local\Temp\ccbUglnk.s:3552   .text.utf8_unescape:000000000000000a .L0 
C:\Users\stapi\AppData\Local\Temp\ccbUglnk.s:3554   .text.utf8_unescape:0000000000000014 .L0 
C:\Users\stapi\AppData\Local\Temp\ccbUglnk.s:3555   .text.utf8_unescape:0000000000000014 .L0 
C:\Users\stapi\AppData\Local\Temp\ccbUglnk.s:3556   .text.utf8_unescape:0000000000000014 .L0 
C:\Users\stapi\AppData\Local\Temp\ccbUglnk.s:3557   .text.utf8_unescape:0000000000000014 .L0 
C:\Users\stapi\AppData\Local\Temp\ccbUglnk.s:3558   .text.utf8_unescape:0000000000000014 .L0 
C:\Users\stapi\AppData\Local\Temp\ccbUglnk.s:3562   .text.utf8_unescape:0000000000000014 .L0 
C:\Users\stapi\AppData\Local\Temp\ccbUglnk.s:3563   .text.utf8_unescape:000000000000001c .L0 
C:\Users\stapi\AppData\Local\Temp\ccbUglnk.s:3564   .text.utf8_unescape:000000000000001c .L0 
C:\Users\stapi\AppData\Local\Temp\ccbUglnk.s:3565   .text.utf8_unescape:000000000000001c .L0 
C:\Users\stapi\AppData\Local\Temp\ccbUglnk.s:3566   .text.utf8_unescape:000000000000001c .L0 
C:\Users\stapi\AppData\Local\Temp\ccbUglnk.s:3567   .text.utf8_unescape:000000000000001c .L0 
C:\Users\stapi\AppData\Local\Temp\ccbUglnk.s:3570   .text.utf8_unescape:000000000000001e .L0 
C:\Users\stapi\AppData\Local\Temp\ccbUglnk.s:3575   .text.utf8_unescape:0000000000000024 .L0 
C:\Users\stapi\AppData\Local\Temp\ccbUglnk.s:3576   .text.utf8_unescape:0000000000000024 .L0 
C:\Users\stapi\AppData\Local\Temp\ccbUglnk.s:3579   .text.utf8_unescape:0000000000000026 .L0 
C:\Users\stapi\AppData\Local\Temp\ccbUglnk.s:3580   .text.utf8_unescape:0000000000000026 .L0 
C:\Users\stapi\AppData\Local\Temp\ccbUglnk.s:3586   .text.utf8_unescape:0000000000000030 .L0 
C:\Users\stapi\AppData\Local\Temp\ccbUglnk.s:3587   .text.utf8_unescape:0000000000000030 .L0 
C:\Users\stapi\AppData\Local\Temp\ccbUglnk.s:3591   .text.utf8_unescape:000000000000003c .L0 
C:\Users\stapi\AppData\Local\Temp\ccbUglnk.s:3593   .text.utf8_unescape:000000000000003e .L0 
C:\Users\stapi\AppData\Local\Temp\ccbUglnk.s:3594   .text.utf8_unescape:000000000000003e .L0 
C:\Users\stapi\AppData\Local\Temp\ccbUglnk.s:3597   .text.utf8_unescape:0000000000000040 .L0 
C:\Users\stapi\AppData\Local\Temp\ccbUglnk.s:3598   .text.utf8_unescape:0000000000000040 .L0 
C:\Users\stapi\AppData\Local\Temp\ccbUglnk.s:3602   .text.utf8_unescape:0000000000000042 .L0 
C:\Users\stapi\AppData\Local\Temp\ccbUglnk.s:3604   .text.utf8_unescape:0000000000000044 .L0 
C:\Users\stapi\AppData\Local\Temp\ccbUglnk.s:3606   .text.utf8_unescape:0000000000000048 .L0 
C:\Users\stapi\AppData\Local\Temp\ccbUglnk.s:3609   .text.utf8_unescape:000000000000004a .L0 
C:\Users\stapi\AppData\Local\Temp\ccbUglnk.s:3615   .text.utf8_unescape:0000000000000052 .L0 
C:\Users\stapi\AppData\Local\Temp\ccbUglnk.s:3620   .text.utf8_unescape:0000000000000056 .L0 
C:\Users\stapi\AppData\Local\Temp\ccbUglnk.s:3621   .text.utf8_unescape:0000000000000056 .L0 
C:\Users\stapi\AppData\Local\Temp\ccbUglnk.s:3623   .text.utf8_unescape:000000000000005a .L0 
C:\Users\stapi\AppData\Local\Temp\ccbUglnk.s:3624   .text.utf8_unescape:000000000000005a .L0 
C:\Users\stapi\AppData\Local\Temp\ccbUglnk.s:3629   .text.utf8_unescape:0000000000000060 .L0 
C:\Users\stapi\AppData\Local\Temp\ccbUglnk.s:3630   .text.utf8_unescape:0000000000000060 .L0 
C:\Users\stapi\AppData\Local\Temp\ccbUglnk.s:3633   .text.utf8_unescape:0000000000000064 .L0 
C:\Users\stapi\AppData\Local\Temp\ccbUglnk.s:3634   .text.utf8_unescape:0000000000000064 .L0 
C:\Users\stapi\AppData\Local\Temp\ccbUglnk.s:3636   .text.utf8_unescape:0000000000000068 .L0 
C:\Users\stapi\AppData\Local\Temp\ccbUglnk.s:3637   .text.utf8_unescape:0000000000000068 .L0 
C:\Users\stapi\AppData\Local\Temp\ccbUglnk.s:3639   .text.utf8_unescape:000000000000006c .L0 
C:\Users\stapi\AppData\Local\Temp\ccbUglnk.s:3644   .text.utf8_unescape:0000000000000074 .L0 
C:\Users\stapi\AppData\Local\Temp\ccbUglnk.s:3645   .text.utf8_unescape:0000000000000074 .L0 
C:\Users\stapi\AppData\Local\Temp\ccbUglnk.s:3647   .text.utf8_unescape:0000000000000078 .L0 
C:\Users\stapi\AppData\Local\Temp\ccbUglnk.s:3650   .text.utf8_unescape:000000000000007a .L0 
C:\Users\stapi\AppData\Local\Temp\ccbUglnk.s:3653   .text.utf8_unescape:000000000000007e .L0 
C:\Users\stapi\AppData\Local\Temp\ccbUglnk.s:3654   .text.utf8_unescape:000000000000007e .L0 
C:\Users\stapi\AppData\Local\Temp\ccbUglnk.s:3657   .text.utf8_unescape:0000000000000080 .L0 
C:\Users\stapi\AppData\Local\Temp\ccbUglnk.s:3662   .text.utf8_unescape:0000000000000084 .L0 
C:\Users\stapi\AppData\Local\Temp\ccbUglnk.s:3663   .text.utf8_unescape:0000000000000084 .L0 
C:\Users\stapi\AppData\Local\Temp\ccbUglnk.s:3665   .text.utf8_unescape:0000000000000088 .L0 
C:\Users\stapi\AppData\Local\Temp\ccbUglnk.s:3666   .text.utf8_unescape:0000000000000088 .L0 
C:\Users\stapi\AppData\Local\Temp\ccbUglnk.s:3669   .text.utf8_unescape:000000000000008a .L0 
C:\Users\stapi\AppData\Local\Temp\ccbUglnk.s:3670   .text.utf8_unescape:000000000000008a .L0 
C:\Users\stapi\AppData\Local\Temp\ccbUglnk.s:3672   .text.utf8_unescape:000000000000008c .L0 
C:\Users\stapi\AppData\Local\Temp\ccbUglnk.s:3673   .text.utf8_unescape:000000000000008c .L0 
C:\Users\stapi\AppData\Local\Temp\ccbUglnk.s:3676   .text.utf8_unescape:0000000000000090 .L0 
C:\Users\stapi\AppData\Local\Temp\ccbUglnk.s:3677   .text.utf8_unescape:0000000000000090 .L0 
C:\Users\stapi\AppData\Local\Temp\ccbUglnk.s:3680   .text.utf8_unescape:0000000000000094 .L0 
C:\Users\stapi\AppData\Local\Temp\ccbUglnk.s:3687   .text.utf8_escape:0000000000000000 utf8_escape
C:\Users\stapi\AppData\Local\Temp\ccbUglnk.s:3690   .text.utf8_escape:0000000000000000 .L0 
C:\Users\stapi\AppData\Local\Temp\ccbUglnk.s:3692   .text.utf8_escape:0000000000000000 .L0 
C:\Users\stapi\AppData\Local\Temp\ccbUglnk.s:3693   .text.utf8_escape:0000000000000000 .L0 
C:\Users\stapi\AppData\Local\Temp\ccbUglnk.s:3694   .text.utf8_escape:0000000000000000 .L0 
C:\Users\stapi\AppData\Local\Temp\ccbUglnk.s:3695   .text.utf8_escape:0000000000000000 .L0 
C:\Users\stapi\AppData\Local\Temp\ccbUglnk.s:3697   .text.utf8_escape:0000000000000002 .L0 
C:\Users\stapi\AppData\Local\Temp\ccbUglnk.s:3700   .text.utf8_escape:0000000000000004 .L0 
C:\Users\stapi\AppData\Local\Temp\ccbUglnk.s:3703   .text.utf8_escape:0000000000000006 .L0 
C:\Users\stapi\AppData\Local\Temp\ccbUglnk.s:3704   .text.utf8_escape:0000000000000006 .L0 
C:\Users\stapi\AppData\Local\Temp\ccbUglnk.s:3705   .text.utf8_escape:0000000000000006 .L0 
C:\Users\stapi\AppData\Local\Temp\ccbUglnk.s:3706   .text.utf8_escape:0000000000000006 .L0 
C:\Users\stapi\AppData\Local\Temp\ccbUglnk.s:3707   .text.utf8_escape:0000000000000006 .L0 
C:\Users\stapi\AppData\Local\Temp\ccbUglnk.s:3709   .text.utf8_escape:0000000000000006 .L0 
C:\Users\stapi\AppData\Local\Temp\ccbUglnk.s:3712   .text.utf8_escape:0000000000000008 .L0 
C:\Users\stapi\AppData\Local\Temp\ccbUglnk.s:3713   .text.utf8_escape:0000000000000010 .L0 
C:\Users\stapi\AppData\Local\Temp\ccbUglnk.s:3714   .text.utf8_escape:0000000000000010 .L0 
C:\Users\stapi\AppData\Local\Temp\ccbUglnk.s:3715   .text.utf8_escape:0000000000000010 .L0 
C:\Users\stapi\AppData\Local\Temp\ccbUglnk.s:3716   .text.utf8_escape:0000000000000010 .L0 
C:\Users\stapi\AppData\Local\Temp\ccbUglnk.s:3717   .text.utf8_escape:0000000000000010 .L0 
C:\Users\stapi\AppData\Local\Temp\ccbUglnk.s:3721   .text.utf8_escape:0000000000000010 .L0 
C:\Users\stapi\AppData\Local\Temp\ccbUglnk.s:3722   .text.utf8_escape:0000000000000018 .L0 
C:\Users\stapi\AppData\Local\Temp\ccbUglnk.s:3723   .text.utf8_escape:0000000000000018 .L0 
C:\Users\stapi\AppData\Local\Temp\ccbUglnk.s:3724   .text.utf8_escape:0000000000000018 .L0 
C:\Users\stapi\AppData\Local\Temp\ccbUglnk.s:3725   .text.utf8_escape:0000000000000018 .L0 
C:\Users\stapi\AppData\Local\Temp\ccbUglnk.s:3726   .text.utf8_escape:0000000000000018 .L0 
C:\Users\stapi\AppData\Local\Temp\ccbUglnk.s:3729   .text.utf8_escape:000000000000001a .L0 
C:\Users\stapi\AppData\Local\Temp\ccbUglnk.s:3734   .text.utf8_escape:0000000000000020 .L0 
C:\Users\stapi\AppData\Local\Temp\ccbUglnk.s:3735   .text.utf8_escape:0000000000000020 .L0 
C:\Users\stapi\AppData\Local\Temp\ccbUglnk.s:3738   .text.utf8_escape:0000000000000022 .L0 
C:\Users\stapi\AppData\Local\Temp\ccbUglnk.s:3739   .text.utf8_escape:0000000000000022 .L0 
C:\Users\stapi\AppData\Local\Temp\ccbUglnk.s:3746   .text.utf8_escape:000000000000002e .L0 
C:\Users\stapi\AppData\Local\Temp\ccbUglnk.s:3748   .text.utf8_escape:0000000000000030 .L0 
C:\Users\stapi\AppData\Local\Temp\ccbUglnk.s:3750   .text.utf8_escape:0000000000000034 .L0 
C:\Users\stapi\AppData\Local\Temp\ccbUglnk.s:3754   .text.utf8_escape:0000000000000038 .L0 
C:\Users\stapi\AppData\Local\Temp\ccbUglnk.s:3756   .text.utf8_escape:000000000000003c .L0 
C:\Users\stapi\AppData\Local\Temp\ccbUglnk.s:3757   .text.utf8_escape:000000000000003c .L0 
C:\Users\stapi\AppData\Local\Temp\ccbUglnk.s:3759   .text.utf8_escape:0000000000000040 .L0 
C:\Users\stapi\AppData\Local\Temp\ccbUglnk.s:3760   .text.utf8_escape:0000000000000040 .L0 
C:\Users\stapi\AppData\Local\Temp\ccbUglnk.s:3764   .text.utf8_escape:0000000000000046 .L0 
C:\Users\stapi\AppData\Local\Temp\ccbUglnk.s:3765   .text.utf8_escape:0000000000000046 .L0 
C:\Users\stapi\AppData\Local\Temp\ccbUglnk.s:3766   .text.utf8_escape:0000000000000046 .L0 
C:\Users\stapi\AppData\Local\Temp\ccbUglnk.s:3769   .text.utf8_escape:000000000000004a .L0 
C:\Users\stapi\AppData\Local\Temp\ccbUglnk.s:3771   .text.utf8_escape:000000000000004e .L0 
C:\Users\stapi\AppData\Local\Temp\ccbUglnk.s:3772   .text.utf8_escape:000000000000004e .L0 
C:\Users\stapi\AppData\Local\Temp\ccbUglnk.s:3774   .text.utf8_escape:0000000000000052 .L0 
C:\Users\stapi\AppData\Local\Temp\ccbUglnk.s:3778   .text.utf8_escape:000000000000005a .L0 
C:\Users\stapi\AppData\Local\Temp\ccbUglnk.s:3779   .text.utf8_escape:000000000000005a .L0 
C:\Users\stapi\AppData\Local\Temp\ccbUglnk.s:3782   .text.utf8_escape:000000000000005c .L0 
C:\Users\stapi\AppData\Local\Temp\ccbUglnk.s:3785   .text.utf8_escape:0000000000000060 .L0 
C:\Users\stapi\AppData\Local\Temp\ccbUglnk.s:3786   .text.utf8_escape:0000000000000060 .L0 
C:\Users\stapi\AppData\Local\Temp\ccbUglnk.s:3788   .text.utf8_escape:0000000000000064 .L0 
C:\Users\stapi\AppData\Local\Temp\ccbUglnk.s:3790   .text.utf8_escape:0000000000000066 .L0 
C:\Users\stapi\AppData\Local\Temp\ccbUglnk.s:3794   .text.utf8_escape:0000000000000068 .L0 
C:\Users\stapi\AppData\Local\Temp\ccbUglnk.s:3795   .text.utf8_escape:0000000000000068 .L0 
C:\Users\stapi\AppData\Local\Temp\ccbUglnk.s:3798   .text.utf8_escape:000000000000006a .L0 
C:\Users\stapi\AppData\Local\Temp\ccbUglnk.s:3800   .text.utf8_escape:000000000000006e .L0 
C:\Users\stapi\AppData\Local\Temp\ccbUglnk.s:3802   .text.utf8_escape:0000000000000070 .L0 
C:\Users\stapi\AppData\Local\Temp\ccbUglnk.s:3804   .text.utf8_escape:0000000000000074 .L0 
C:\Users\stapi\AppData\Local\Temp\ccbUglnk.s:3805   .text.utf8_escape:0000000000000074 .L0 
C:\Users\stapi\AppData\Local\Temp\ccbUglnk.s:3808   .text.utf8_escape:0000000000000076 .L0 
C:\Users\stapi\AppData\Local\Temp\ccbUglnk.s:3809   .text.utf8_escape:0000000000000078 .L0 
C:\Users\stapi\AppData\Local\Temp\ccbUglnk.s:3816   .text.is_ctrl_char:0000000000000000 is_ctrl_char
C:\Users\stapi\AppData\Local\Temp\ccbUglnk.s:3819   .text.is_ctrl_char:0000000000000000 .L0 
C:\Users\stapi\AppData\Local\Temp\ccbUglnk.s:3821   .text.is_ctrl_char:0000000000000000 .L0 
C:\Users\stapi\AppData\Local\Temp\ccbUglnk.s:3822   .text.is_ctrl_char:0000000000000000 .L0 
C:\Users\stapi\AppData\Local\Temp\ccbUglnk.s:3823   .text.is_ctrl_char:0000000000000000 .L0 
C:\Users\stapi\AppData\Local\Temp\ccbUglnk.s:3827   .text.is_ctrl_char:0000000000000006 .L0 
C:\Users\stapi\AppData\Local\Temp\ccbUglnk.s:3829   .text.is_ctrl_char:000000000000000c .L0 
C:\Users\stapi\AppData\Local\Temp\ccbUglnk.s:3836   .text.ssid_parse:0000000000000000 ssid_parse
C:\Users\stapi\AppData\Local\Temp\ccbUglnk.s:3839   .text.ssid_parse:0000000000000000 .L0 
C:\Users\stapi\AppData\Local\Temp\ccbUglnk.s:3841   .text.ssid_parse:0000000000000000 .L0 
C:\Users\stapi\AppData\Local\Temp\ccbUglnk.s:3842   .text.ssid_parse:0000000000000008 .L0 
C:\Users\stapi\AppData\Local\Temp\ccbUglnk.s:3843   .text.ssid_parse:0000000000000008 .L0 
C:\Users\stapi\AppData\Local\Temp\ccbUglnk.s:3844   .text.ssid_parse:0000000000000008 .L0 
C:\Users\stapi\AppData\Local\Temp\ccbUglnk.s:3845   .text.ssid_parse:0000000000000008 .L0 
C:\Users\stapi\AppData\Local\Temp\ccbUglnk.s:3846   .text.ssid_parse:0000000000000008 .L0 
C:\Users\stapi\AppData\Local\Temp\ccbUglnk.s:3848   .text.ssid_parse:0000000000000008 .L0 
C:\Users\stapi\AppData\Local\Temp\ccbUglnk.s:3849   .text.ssid_parse:0000000000000008 .L0 
C:\Users\stapi\AppData\Local\Temp\ccbUglnk.s:3850   .text.ssid_parse:0000000000000008 .L0 
C:\Users\stapi\AppData\Local\Temp\ccbUglnk.s:3851   .text.ssid_parse:0000000000000008 .L0 
C:\Users\stapi\AppData\Local\Temp\ccbUglnk.s:3852   .text.ssid_parse:000000000000000a .L0 
C:\Users\stapi\AppData\Local\Temp\ccbUglnk.s:3854   .text.ssid_parse:000000000000000a .L0 
C:\Users\stapi\AppData\Local\Temp\ccbUglnk.s:3856   .text.ssid_parse:000000000000000e .L0 
C:\Users\stapi\AppData\Local\Temp\ccbUglnk.s:3857   .text.ssid_parse:000000000000000e .L0 
C:\Users\stapi\AppData\Local\Temp\ccbUglnk.s:3859   .text.ssid_parse:0000000000000010 .L0 
C:\Users\stapi\AppData\Local\Temp\ccbUglnk.s:3862   .text.ssid_parse:0000000000000018 .L0 
C:\Users\stapi\AppData\Local\Temp\ccbUglnk.s:3863   .text.ssid_parse:0000000000000018 .L0 
C:\Users\stapi\AppData\Local\Temp\ccbUglnk.s:3865   .text.ssid_parse:000000000000001a .L0 
C:\Users\stapi\AppData\Local\Temp\ccbUglnk.s:3868   .text.ssid_parse:0000000000000020 .L0 
C:\Users\stapi\AppData\Local\Temp\ccbUglnk.s:3869   .text.ssid_parse:0000000000000020 .L0 
C:\Users\stapi\AppData\Local\Temp\ccbUglnk.s:3872   .text.ssid_parse:0000000000000028 .L0 
C:\Users\stapi\AppData\Local\Temp\ccbUglnk.s:3873   .text.ssid_parse:0000000000000028 .L0 
C:\Users\stapi\AppData\Local\Temp\ccbUglnk.s:3877   .text.ssid_parse:0000000000000034 .L0 
C:\Users\stapi\AppData\Local\Temp\ccbUglnk.s:3878   .text.ssid_parse:0000000000000034 .L0 
C:\Users\stapi\AppData\Local\Temp\ccbUglnk.s:3880   .text.ssid_parse:0000000000000036 .L0 
C:\Users\stapi\AppData\Local\Temp\ccbUglnk.s:3881   .text.ssid_parse:0000000000000036 .L0 
C:\Users\stapi\AppData\Local\Temp\ccbUglnk.s:3884   .text.ssid_parse:000000000000003a .L0 
C:\Users\stapi\AppData\Local\Temp\ccbUglnk.s:3885   .text.ssid_parse:000000000000003a .L0 
C:\Users\stapi\AppData\Local\Temp\ccbUglnk.s:3893   .text.ssid_parse:0000000000000048 .L0 
C:\Users\stapi\AppData\Local\Temp\ccbUglnk.s:3894   .text.ssid_parse:0000000000000048 .L0 
C:\Users\stapi\AppData\Local\Temp\ccbUglnk.s:3896   .text.ssid_parse:000000000000004a .L0 
C:\Users\stapi\AppData\Local\Temp\ccbUglnk.s:3898   .text.ssid_parse:000000000000004c .L0 
C:\Users\stapi\AppData\Local\Temp\ccbUglnk.s:3901   .text.ssid_parse:0000000000000054 .L0 
C:\Users\stapi\AppData\Local\Temp\ccbUglnk.s:3902   .text.ssid_parse:0000000000000054 .L0 
C:\Users\stapi\AppData\Local\Temp\ccbUglnk.s:3904   .text.ssid_parse:0000000000000056 .L0 
C:\Users\stapi\AppData\Local\Temp\ccbUglnk.s:3906   .text.ssid_parse:0000000000000058 .L0 
C:\Users\stapi\AppData\Local\Temp\ccbUglnk.s:3912   .text.ssid_parse:0000000000000062 .L0 
C:\Users\stapi\AppData\Local\Temp\ccbUglnk.s:3916   .text.ssid_parse:000000000000006c .L0 
C:\Users\stapi\AppData\Local\Temp\ccbUglnk.s:3920   .text.ssid_parse:0000000000000076 .L0 
C:\Users\stapi\AppData\Local\Temp\ccbUglnk.s:3921   .text.ssid_parse:0000000000000076 .L0 
C:\Users\stapi\AppData\Local\Temp\ccbUglnk.s:3927   .text.ssid_parse:0000000000000080 .L0 
C:\Users\stapi\AppData\Local\Temp\ccbUglnk.s:3928   .text.ssid_parse:0000000000000082 .L0 
C:\Users\stapi\AppData\Local\Temp\ccbUglnk.s:3929   .text.ssid_parse:0000000000000082 .L0 
C:\Users\stapi\AppData\Local\Temp\ccbUglnk.s:3931   .text.ssid_parse:000000000000008a .L0 
C:\Users\stapi\AppData\Local\Temp\ccbUglnk.s:3932   .text.ssid_parse:000000000000008a .L0 
C:\Users\stapi\AppData\Local\Temp\ccbUglnk.s:3933   .text.ssid_parse:000000000000008a .L0 
C:\Users\stapi\AppData\Local\Temp\ccbUglnk.s:3934   .text.ssid_parse:000000000000008a .L0 
C:\Users\stapi\AppData\Local\Temp\ccbUglnk.s:3935   .text.ssid_parse:000000000000008a .L0 
C:\Users\stapi\AppData\Local\Temp\ccbUglnk.s:3938   .text.ssid_parse:000000000000008a .L0 
C:\Users\stapi\AppData\Local\Temp\ccbUglnk.s:3940   .text.ssid_parse:000000000000008a .L0 
C:\Users\stapi\AppData\Local\Temp\ccbUglnk.s:3941   .text.ssid_parse:000000000000008a .L0 
C:\Users\stapi\AppData\Local\Temp\ccbUglnk.s:3946   .text.ssid_parse:0000000000000098 .L0 
C:\Users\stapi\AppData\Local\Temp\ccbUglnk.s:3947   .text.ssid_parse:0000000000000098 .L0 
C:\Users\stapi\AppData\Local\Temp\ccbUglnk.s:3949   .text.ssid_parse:000000000000009a .L0 
C:\Users\stapi\AppData\Local\Temp\ccbUglnk.s:3955   .text.ssid_parse:00000000000000a4 .L0 
C:\Users\stapi\AppData\Local\Temp\ccbUglnk.s:3956   .text.ssid_parse:00000000000000a4 .L0 
C:\Users\stapi\AppData\Local\Temp\ccbUglnk.s:3961   .text.ssid_parse:00000000000000a8 .L0 
C:\Users\stapi\AppData\Local\Temp\ccbUglnk.s:3962   .text.ssid_parse:00000000000000a8 .L0 
C:\Users\stapi\AppData\Local\Temp\ccbUglnk.s:3964   .text.ssid_parse:00000000000000ae .L0 
C:\Users\stapi\AppData\Local\Temp\ccbUglnk.s:3971   .text.str_starts:0000000000000000 str_starts
C:\Users\stapi\AppData\Local\Temp\ccbUglnk.s:3974   .text.str_starts:0000000000000000 .L0 
C:\Users\stapi\AppData\Local\Temp\ccbUglnk.s:3976   .text.str_starts:0000000000000000 .L0 
C:\Users\stapi\AppData\Local\Temp\ccbUglnk.s:3977   .text.str_starts:0000000000000008 .L0 
C:\Users\stapi\AppData\Local\Temp\ccbUglnk.s:3978   .text.str_starts:0000000000000008 .L0 
C:\Users\stapi\AppData\Local\Temp\ccbUglnk.s:3979   .text.str_starts:0000000000000008 .L0 
C:\Users\stapi\AppData\Local\Temp\ccbUglnk.s:3981   .text.str_starts:0000000000000008 .L0 
C:\Users\stapi\AppData\Local\Temp\ccbUglnk.s:3982   .text.str_starts:0000000000000008 .L0 
C:\Users\stapi\AppData\Local\Temp\ccbUglnk.s:3983   .text.str_starts:000000000000000a .L0 
C:\Users\stapi\AppData\Local\Temp\ccbUglnk.s:3985   .text.str_starts:000000000000000a .L0 
C:\Users\stapi\AppData\Local\Temp\ccbUglnk.s:3987   .text.str_starts:000000000000000c .L0 
C:\Users\stapi\AppData\Local\Temp\ccbUglnk.s:3998   .text.str_starts:0000000000000026 .L0 
C:\Users\stapi\AppData\Local\Temp\ccbUglnk.s:4000   .text.str_starts:000000000000002c .L0 
C:\Users\stapi\AppData\Local\Temp\ccbUglnk.s:4003   .text.str_starts:0000000000000034 .L0 
C:\Users\stapi\AppData\Local\Temp\ccbUglnk.s:4004   .text.str_starts:0000000000000034 .L0 
C:\Users\stapi\AppData\Local\Temp\ccbUglnk.s:4005   .text.str_starts:0000000000000034 .L0 
C:\Users\stapi\AppData\Local\Temp\ccbUglnk.s:4006   .text.str_starts:0000000000000034 .L0 
C:\Users\stapi\AppData\Local\Temp\ccbUglnk.s:4013   .text.rssi_to_rcpi:0000000000000000 rssi_to_rcpi
C:\Users\stapi\AppData\Local\Temp\ccbUglnk.s:4016   .text.rssi_to_rcpi:0000000000000000 .L0 
C:\Users\stapi\AppData\Local\Temp\ccbUglnk.s:4018   .text.rssi_to_rcpi:0000000000000000 .L0 
C:\Users\stapi\AppData\Local\Temp\ccbUglnk.s:4019   .text.rssi_to_rcpi:0000000000000000 .L0 
C:\Users\stapi\AppData\Local\Temp\ccbUglnk.s:4020   .text.rssi_to_rcpi:0000000000000000 .L0 
C:\Users\stapi\AppData\Local\Temp\ccbUglnk.s:4022   .text.rssi_to_rcpi:0000000000000002 .L0 
C:\Users\stapi\AppData\Local\Temp\ccbUglnk.s:4024   .text.rssi_to_rcpi:0000000000000004 .L0 
C:\Users\stapi\AppData\Local\Temp\ccbUglnk.s:4025   .text.rssi_to_rcpi:0000000000000004 .L0 
C:\Users\stapi\AppData\Local\Temp\ccbUglnk.s:4027   .text.rssi_to_rcpi:0000000000000008 .L0 
C:\Users\stapi\AppData\Local\Temp\ccbUglnk.s:4030   .text.rssi_to_rcpi:000000000000000a .L0 
C:\Users\stapi\AppData\Local\Temp\ccbUglnk.s:4032   .text.rssi_to_rcpi:000000000000000e .L0 
C:\Users\stapi\AppData\Local\Temp\ccbUglnk.s:4033   .text.rssi_to_rcpi:000000000000000e .L0 
C:\Users\stapi\AppData\Local\Temp\ccbUglnk.s:4035   .text.rssi_to_rcpi:0000000000000012 .L0 
C:\Users\stapi\AppData\Local\Temp\ccbUglnk.s:4037   .text.rssi_to_rcpi:0000000000000016 .L0 
C:\Users\stapi\AppData\Local\Temp\ccbUglnk.s:4038   .text.rssi_to_rcpi:0000000000000016 .L0 
C:\Users\stapi\AppData\Local\Temp\ccbUglnk.s:4040   .text.rssi_to_rcpi:000000000000001a .L0 
C:\Users\stapi\AppData\Local\Temp\ccbUglnk.s:4046   .text.rssi_to_rcpi:0000000000000022 .L0 
C:\Users\stapi\AppData\Local\Temp\ccbUglnk.s:4050   .text.rssi_to_rcpi:0000000000000026 .L0 
C:\Users\stapi\AppData\Local\Temp\ccbUglnk.s:4051   .text.rssi_to_rcpi:0000000000000028 .L0 
C:\Users\stapi\AppData\Local\Temp\ccbUglnk.s:4058   .text.get_param:0000000000000000 get_param
C:\Users\stapi\AppData\Local\Temp\ccbUglnk.s:4061   .text.get_param:0000000000000000 .L0 
C:\Users\stapi\AppData\Local\Temp\ccbUglnk.s:4063   .text.get_param:0000000000000000 .L0 
C:\Users\stapi\AppData\Local\Temp\ccbUglnk.s:4064   .text.get_param:0000000000000008 .L0 
C:\Users\stapi\AppData\Local\Temp\ccbUglnk.s:4065   .text.get_param:0000000000000008 .L0 
C:\Users\stapi\AppData\Local\Temp\ccbUglnk.s:4066   .text.get_param:0000000000000008 .L0 
C:\Users\stapi\AppData\Local\Temp\ccbUglnk.s:4067   .text.get_param:0000000000000008 .L0 
C:\Users\stapi\AppData\Local\Temp\ccbUglnk.s:4068   .text.get_param:0000000000000008 .L0 
C:\Users\stapi\AppData\Local\Temp\ccbUglnk.s:4070   .text.get_param:0000000000000008 .L0 
C:\Users\stapi\AppData\Local\Temp\ccbUglnk.s:4071   .text.get_param:0000000000000008 .L0 
C:\Users\stapi\AppData\Local\Temp\ccbUglnk.s:4072   .text.get_param:0000000000000008 .L0 
C:\Users\stapi\AppData\Local\Temp\ccbUglnk.s:4073   .text.get_param:0000000000000008 .L0 
C:\Users\stapi\AppData\Local\Temp\ccbUglnk.s:4074   .text.get_param:0000000000000008 .L0 
C:\Users\stapi\AppData\Local\Temp\ccbUglnk.s:4076   .text.get_param:000000000000000a .L0 
C:\Users\stapi\AppData\Local\Temp\ccbUglnk.s:4081   .text.get_param:0000000000000014 .L0 
C:\Users\stapi\AppData\Local\Temp\ccbUglnk.s:4082   .text.get_param:0000000000000014 .L0 
C:\Users\stapi\AppData\Local\Temp\ccbUglnk.s:4084   .text.get_param:0000000000000016 .L0 
C:\Users\stapi\AppData\Local\Temp\ccbUglnk.s:4085   .text.get_param:0000000000000016 .L0 
C:\Users\stapi\AppData\Local\Temp\ccbUglnk.s:4089   .text.get_param:0000000000000020 .L0 
C:\Users\stapi\AppData\Local\Temp\ccbUglnk.s:4092   .text.get_param:0000000000000024 .L0 
C:\Users\stapi\AppData\Local\Temp\ccbUglnk.s:4093   .text.get_param:0000000000000024 .L0 
C:\Users\stapi\AppData\Local\Temp\ccbUglnk.s:4098   .text.get_param:0000000000000032 .L0 
C:\Users\stapi\AppData\Local\Temp\ccbUglnk.s:4099   .text.get_param:0000000000000032 .L0 
C:\Users\stapi\AppData\Local\Temp\ccbUglnk.s:4102   .text.get_param:0000000000000036 .L0 
C:\Users\stapi\AppData\Local\Temp\ccbUglnk.s:4104   .text.get_param:0000000000000038 .L0 
C:\Users\stapi\AppData\Local\Temp\ccbUglnk.s:4105   .text.get_param:0000000000000038 .L0 
C:\Users\stapi\AppData\Local\Temp\ccbUglnk.s:4113   .text.get_param:0000000000000044 .L0 
C:\Users\stapi\AppData\Local\Temp\ccbUglnk.s:4114   .text.get_param:0000000000000044 .L0 
C:\Users\stapi\AppData\Local\Temp\ccbUglnk.s:4120   .text.get_param:0000000000000052 .L0 
C:\Users\stapi\AppData\Local\Temp\ccbUglnk.s:4121   .text.get_param:0000000000000052 .L0 
C:\Users\stapi\AppData\Local\Temp\ccbUglnk.s:4123   .text.get_param:0000000000000054 .L0 
C:\Users\stapi\AppData\Local\Temp\ccbUglnk.s:4126   .text.get_param:0000000000000058 .L0 
C:\Users\stapi\AppData\Local\Temp\ccbUglnk.s:4129   .text.get_param:000000000000005a .L0 
C:\Users\stapi\AppData\Local\Temp\ccbUglnk.s:4132   .text.get_param:0000000000000062 .L0 
C:\Users\stapi\AppData\Local\Temp\ccbUglnk.s:4133   .text.get_param:0000000000000062 .L0 
C:\Users\stapi\AppData\Local\Temp\ccbUglnk.s:4137   .text.get_param:0000000000000066 .L0 
C:\Users\stapi\AppData\Local\Temp\ccbUglnk.s:4138   .text.get_param:0000000000000066 .L0 
C:\Users\stapi\AppData\Local\Temp\ccbUglnk.s:4140   .text.get_param:0000000000000070 .L0 
C:\Users\stapi\AppData\Local\Temp\ccbUglnk.s:4141   .text.get_param:0000000000000070 .L0 
C:\Users\stapi\AppData\Local\Temp\ccbUglnk.s:4142   .text.get_param:0000000000000070 .L0 
C:\Users\stapi\AppData\Local\Temp\ccbUglnk.s:4143   .text.get_param:0000000000000070 .L0 
C:\Users\stapi\AppData\Local\Temp\ccbUglnk.s:4144   .text.get_param:0000000000000070 .L0 
C:\Users\stapi\AppData\Local\Temp\ccbUglnk.s:4145   .text.get_param:0000000000000070 .L0 
C:\Users\stapi\AppData\Local\Temp\ccbUglnk.s:4152   .text.forced_memzero:0000000000000000 forced_memzero
C:\Users\stapi\AppData\Local\Temp\ccbUglnk.s:4155   .text.forced_memzero:0000000000000000 .L0 
C:\Users\stapi\AppData\Local\Temp\ccbUglnk.s:4157   .text.forced_memzero:0000000000000000 .L0 
C:\Users\stapi\AppData\Local\Temp\ccbUglnk.s:4158   .text.forced_memzero:0000000000000000 .L0 
C:\Users\stapi\AppData\Local\Temp\ccbUglnk.s:4161   .text.forced_memzero:0000000000000008 .L0 
C:\Users\stapi\AppData\Local\Temp\ccbUglnk.s:4163   .text.forced_memzero:000000000000000a .L0 
C:\Users\stapi\AppData\Local\Temp\ccbUglnk.s:4168   .text.forced_memzero:000000000000000e .L0 
C:\Users\stapi\AppData\Local\Temp\ccbUglnk.s:4175   .text.str_clear_free:0000000000000000 str_clear_free
C:\Users\stapi\AppData\Local\Temp\ccbUglnk.s:4177   .text.str_clear_free:0000000000000000 .L0 
C:\Users\stapi\AppData\Local\Temp\ccbUglnk.s:4178   .text.str_clear_free:0000000000000000 .L0 
C:\Users\stapi\AppData\Local\Temp\ccbUglnk.s:4180   .text.str_clear_free:0000000000000000 .L0 
C:\Users\stapi\AppData\Local\Temp\ccbUglnk.s:4181   .text.str_clear_free:0000000000000000 .L0 
C:\Users\stapi\AppData\Local\Temp\ccbUglnk.s:4182   .text.str_clear_free:0000000000000000 .L0 
C:\Users\stapi\AppData\Local\Temp\ccbUglnk.s:4184   .text.str_clear_free:0000000000000002 .L0 
C:\Users\stapi\AppData\Local\Temp\ccbUglnk.s:4185   .text.str_clear_free:000000000000000a .L0 
C:\Users\stapi\AppData\Local\Temp\ccbUglnk.s:4186   .text.str_clear_free:000000000000000a .L0 
C:\Users\stapi\AppData\Local\Temp\ccbUglnk.s:4187   .text.str_clear_free:000000000000000a .L0 
C:\Users\stapi\AppData\Local\Temp\ccbUglnk.s:4191   .text.str_clear_free:000000000000000c .L0 
C:\Users\stapi\AppData\Local\Temp\ccbUglnk.s:4192   .text.str_clear_free:000000000000000c .L0 
C:\Users\stapi\AppData\Local\Temp\ccbUglnk.s:4197   .text.str_clear_free:0000000000000016 .L0 
C:\Users\stapi\AppData\Local\Temp\ccbUglnk.s:4202   .text.str_clear_free:0000000000000020 .L0 
C:\Users\stapi\AppData\Local\Temp\ccbUglnk.s:4207   .text.str_clear_free:000000000000002a .L0 
C:\Users\stapi\AppData\Local\Temp\ccbUglnk.s:4208   .text.str_clear_free:0000000000000032 .L0 
C:\Users\stapi\AppData\Local\Temp\ccbUglnk.s:4209   .text.str_clear_free:0000000000000032 .L0 
C:\Users\stapi\AppData\Local\Temp\ccbUglnk.s:4210   .text.str_clear_free:0000000000000032 .L0 
C:\Users\stapi\AppData\Local\Temp\ccbUglnk.s:4214   .text.str_clear_free:0000000000000034 .L0 
C:\Users\stapi\AppData\Local\Temp\ccbUglnk.s:4221   .text.bin_clear_free:0000000000000000 bin_clear_free
C:\Users\stapi\AppData\Local\Temp\ccbUglnk.s:4224   .text.bin_clear_free:0000000000000000 .L0 
C:\Users\stapi\AppData\Local\Temp\ccbUglnk.s:4226   .text.bin_clear_free:0000000000000000 .L0 
C:\Users\stapi\AppData\Local\Temp\ccbUglnk.s:4227   .text.bin_clear_free:0000000000000000 .L0 
C:\Users\stapi\AppData\Local\Temp\ccbUglnk.s:4228   .text.bin_clear_free:0000000000000000 .L0 
C:\Users\stapi\AppData\Local\Temp\ccbUglnk.s:4230   .text.bin_clear_free:0000000000000002 .L0 
C:\Users\stapi\AppData\Local\Temp\ccbUglnk.s:4231   .text.bin_clear_free:000000000000000a .L0 
C:\Users\stapi\AppData\Local\Temp\ccbUglnk.s:4232   .text.bin_clear_free:000000000000000a .L0 
C:\Users\stapi\AppData\Local\Temp\ccbUglnk.s:4233   .text.bin_clear_free:000000000000000a .L0 
C:\Users\stapi\AppData\Local\Temp\ccbUglnk.s:4236   .text.bin_clear_free:000000000000000c .L0 
C:\Users\stapi\AppData\Local\Temp\ccbUglnk.s:4239   .text.bin_clear_free:0000000000000014 .L0 
C:\Users\stapi\AppData\Local\Temp\ccbUglnk.s:4243   .text.bin_clear_free:000000000000001e .L0 
C:\Users\stapi\AppData\Local\Temp\ccbUglnk.s:4244   .text.bin_clear_free:0000000000000026 .L0 
C:\Users\stapi\AppData\Local\Temp\ccbUglnk.s:4245   .text.bin_clear_free:0000000000000026 .L0 
C:\Users\stapi\AppData\Local\Temp\ccbUglnk.s:4246   .text.bin_clear_free:0000000000000026 .L0 
C:\Users\stapi\AppData\Local\Temp\ccbUglnk.s:4250   .text.bin_clear_free:0000000000000028 .L0 
C:\Users\stapi\AppData\Local\Temp\ccbUglnk.s:4255   .bss.ssid_txt.0:0000000000000000 .LANCHOR0
C:\Users\stapi\AppData\Local\Temp\ccbUglnk.s:4258   .bss.ssid_txt.0:0000000000000000 ssid_txt.0
C:\Users\stapi\AppData\Local\Temp\ccbUglnk.s:4262   .sdata.memset_func:0000000000000000 .LANCHOR1
C:\Users\stapi\AppData\Local\Temp\ccbUglnk.s:4265   .sdata.memset_func:0000000000000000 memset_func
C:\Users\stapi\AppData\Local\Temp\ccbUglnk.s:70     .text.hex2num:0000000000000046 .L0 
C:\Users\stapi\AppData\Local\Temp\ccbUglnk.s:110    .text.freq_cmp:0000000000000014 .L0 
C:\Users\stapi\AppData\Local\Temp\ccbUglnk.s:235    .text._wpa_snprintf_hex:0000000000000068 .L0 
C:\Users\stapi\AppData\Local\Temp\ccbUglnk.s:303    .text.hex2byte:0000000000000042 .L0 
C:\Users\stapi\AppData\Local\Temp\ccbUglnk.s:407    .text.hwaddr_parse:0000000000000056 .L0 
C:\Users\stapi\AppData\Local\Temp\ccbUglnk.s:433    .text.hwaddr_aton:0000000000000020 .L0 
C:\Users\stapi\AppData\Local\Temp\ccbUglnk.s:524    .text.hwaddr_masked_aton:0000000000000076 .L0 
C:\Users\stapi\AppData\Local\Temp\ccbUglnk.s:620    .text.hwaddr_compact_aton:0000000000000054 .L0 
C:\Users\stapi\AppData\Local\Temp\ccbUglnk.s:753    .text.hwaddr_aton2:0000000000000076 .L0 
C:\Users\stapi\AppData\Local\Temp\ccbUglnk.s:826    .text.hexstr2bin:000000000000003a .L0 
C:\Users\stapi\AppData\Local\Temp\ccbUglnk.s:957    .text.hwaddr_mask_txt:00000000000000ba .L0 
C:\Users\stapi\AppData\Local\Temp\ccbUglnk.s:989    .text.inc_byte_array:000000000000001c .L0 
C:\Users\stapi\AppData\Local\Temp\ccbUglnk.s:1041   .text.buf_shift_right:0000000000000032 .L0 
C:\Users\stapi\AppData\Local\Temp\ccbUglnk.s:1132   .text.wpa_get_ntp_timestamp:000000000000006c .L0 
C:\Users\stapi\AppData\Local\Temp\ccbUglnk.s:1204   .text.wpa_scnprintf:000000000000003c .L0 
C:\Users\stapi\AppData\Local\Temp\ccbUglnk.s:1318   .text.wpa_snprintf_hex_sep:0000000000000064 .L0 
C:\Users\stapi\AppData\Local\Temp\ccbUglnk.s:1335   .text.wpa_snprintf_hex:000000000000000a .L0 
C:\Users\stapi\AppData\Local\Temp\ccbUglnk.s:1352   .text.wpa_snprintf_hex_uppercase:000000000000000a .L0 
C:\Users\stapi\AppData\Local\Temp\ccbUglnk.s:1561   .text.printf_encode:00000000000000da .L0 
C:\Users\stapi\AppData\Local\Temp\ccbUglnk.s:1846   .text.printf_decode:0000000000000152 .L0 
C:\Users\stapi\AppData\Local\Temp\ccbUglnk.s:1895   .text.wpa_ssid_txt:0000000000000034 .L0 
C:\Users\stapi\AppData\Local\Temp\ccbUglnk.s:1910   .text.__hide_aliasing_typecast:0000000000000002 .L0 
C:\Users\stapi\AppData\Local\Temp\ccbUglnk.s:1959   .text.is_hex:0000000000000028 .L0 
C:\Users\stapi\AppData\Local\Temp\ccbUglnk.s:2009   .text.has_ctrl_char:0000000000000028 .L0 
C:\Users\stapi\AppData\Local\Temp\ccbUglnk.s:2054   .text.has_newline:000000000000001e .L0 
C:\Users\stapi\AppData\Local\Temp\ccbUglnk.s:2173   .text.merge_byte_arrays:000000000000007e .L0 
C:\Users\stapi\AppData\Local\Temp\ccbUglnk.s:2234   .text.dup_binstr:000000000000003c .L0 
C:\Users\stapi\AppData\Local\Temp\ccbUglnk.s:2455   .text.wpa_config_parse_string:0000000000000110 .L0 
C:\Users\stapi\AppData\Local\Temp\ccbUglnk.s:2639   .text.freq_range_list_parse:00000000000000bc .L0 
C:\Users\stapi\AppData\Local\Temp\ccbUglnk.s:2694   .text.freq_range_list_includes:0000000000000028 .L0 
C:\Users\stapi\AppData\Local\Temp\ccbUglnk.s:2890   .text.freq_range_list_str:00000000000000b0 .L0 
C:\Users\stapi\AppData\Local\Temp\ccbUglnk.s:2928   .text.int_array_len:0000000000000014 .L0 
C:\Users\stapi\AppData\Local\Temp\ccbUglnk.s:3058   .text.int_array_concat:000000000000007e .L0 
C:\Users\stapi\AppData\Local\Temp\ccbUglnk.s:3151   .text.int_array_sort_unique:000000000000005c .L0 
C:\Users\stapi\AppData\Local\Temp\ccbUglnk.s:3265   .text.int_array_add_unique:000000000000005e .L0 
C:\Users\stapi\AppData\Local\Temp\ccbUglnk.s:3315   .text.random_mac_addr:0000000000000034 .L0 
C:\Users\stapi\AppData\Local\Temp\ccbUglnk.s:3366   .text.random_mac_addr_keep_oui:0000000000000036 .L0 
C:\Users\stapi\AppData\Local\Temp\ccbUglnk.s:3478   .text.cstr_token:0000000000000062 .L0 
C:\Users\stapi\AppData\Local\Temp\ccbUglnk.s:3521   .text.str_token:000000000000002e .L0 
C:\Users\stapi\AppData\Local\Temp\ccbUglnk.s:3683   .text.utf8_unescape:0000000000000094 .L0 
C:\Users\stapi\AppData\Local\Temp\ccbUglnk.s:3812   .text.utf8_escape:0000000000000078 .L0 
C:\Users\stapi\AppData\Local\Temp\ccbUglnk.s:3832   .text.is_ctrl_char:000000000000000c .L0 
C:\Users\stapi\AppData\Local\Temp\ccbUglnk.s:3967   .text.ssid_parse:00000000000000ae .L0 
C:\Users\stapi\AppData\Local\Temp\ccbUglnk.s:4009   .text.str_starts:0000000000000034 .L0 
C:\Users\stapi\AppData\Local\Temp\ccbUglnk.s:4054   .text.rssi_to_rcpi:0000000000000028 .L0 
C:\Users\stapi\AppData\Local\Temp\ccbUglnk.s:4148   .text.get_param:0000000000000070 .L0 
C:\Users\stapi\AppData\Local\Temp\ccbUglnk.s:4171   .text.forced_memzero:000000000000000e .L0 
C:\Users\stapi\AppData\Local\Temp\ccbUglnk.s:4217   .text.str_clear_free:0000000000000034 .L0 
C:\Users\stapi\AppData\Local\Temp\ccbUglnk.s:4253   .text.bin_clear_free:0000000000000028 .L0 
                     .debug_frame:0000000000000000 .L0 
C:\Users\stapi\AppData\Local\Temp\ccbUglnk.s:40     .text.hex2num:000000000000001e .L2
C:\Users\stapi\AppData\Local\Temp\ccbUglnk.s:52     .text.hex2num:0000000000000032 .L4
C:\Users\stapi\AppData\Local\Temp\ccbUglnk.s:33     .text.hex2num:0000000000000018 .L6
C:\Users\stapi\AppData\Local\Temp\ccbUglnk.s:36     .text.hex2num:000000000000001c .L1
C:\Users\stapi\AppData\Local\Temp\ccbUglnk.s:100    .text.freq_cmp:0000000000000010 .L9
C:\Users\stapi\AppData\Local\Temp\ccbUglnk.s:104    .text.freq_cmp:0000000000000012 .L7
C:\Users\stapi\AppData\Local\Temp\ccbUglnk.s:112    .rodata._wpa_snprintf_hex.str1.4:0000000000000000 .LC0
C:\Users\stapi\AppData\Local\Temp\ccbUglnk.s:115    .rodata._wpa_snprintf_hex.str1.4:0000000000000008 .LC1
C:\Users\stapi\AppData\Local\Temp\ccbUglnk.s:217    .text._wpa_snprintf_hex:0000000000000064 .L18
C:\Users\stapi\AppData\Local\Temp\ccbUglnk.s:179    .text._wpa_snprintf_hex:0000000000000036 .L13
C:\Users\stapi\AppData\Local\Temp\ccbUglnk.s:185    .text._wpa_snprintf_hex:0000000000000040 .L17
C:\Users\stapi\AppData\Local\Temp\ccbUglnk.s:149    .text._wpa_snprintf_hex:000000000000001c .L14
C:\Users\stapi\AppData\Local\Temp\ccbUglnk.s:159    .text._wpa_snprintf_hex:0000000000000026 .L23
C:\Users\stapi\AppData\Local\Temp\ccbUglnk.s:154    .text._wpa_snprintf_hex:0000000000000022 .L15
C:\Users\stapi\AppData\Local\Temp\ccbUglnk.s:294    .text.hex2byte:000000000000003e .L26
C:\Users\stapi\AppData\Local\Temp\ccbUglnk.s:285    .text.hex2byte:0000000000000036 .L24
C:\Users\stapi\AppData\Local\Temp\ccbUglnk.s:399    .text.hwaddr_parse:0000000000000052 .L30
C:\Users\stapi\AppData\Local\Temp\ccbUglnk.s:386    .text.hwaddr_parse:0000000000000042 .L31
C:\Users\stapi\AppData\Local\Temp\ccbUglnk.s:338    .text.hwaddr_parse:0000000000000016 .L33
C:\Users\stapi\AppData\Local\Temp\ccbUglnk.s:361    .text.hwaddr_parse:0000000000000032 .L32
C:\Users\stapi\AppData\Local\Temp\ccbUglnk.s:371    .text.hwaddr_parse:0000000000000038 .L29
C:\Users\stapi\AppData\Local\Temp\ccbUglnk.s:516    .text.hwaddr_masked_aton:0000000000000072 .L43
C:\Users\stapi\AppData\Local\Temp\ccbUglnk.s:473    .text.hwaddr_masked_aton:0000000000000034 .L41
C:\Users\stapi\AppData\Local\Temp\ccbUglnk.s:492    .text.hwaddr_masked_aton:000000000000004e .L42
C:\Users\stapi\AppData\Local\Temp\ccbUglnk.s:483    .text.hwaddr_masked_aton:0000000000000046 .L39
C:\Users\stapi\AppData\Local\Temp\ccbUglnk.s:610    .text.hwaddr_compact_aton:0000000000000050 .L54
C:\Users\stapi\AppData\Local\Temp\ccbUglnk.s:553    .text.hwaddr_compact_aton:0000000000000010 .L52
C:\Users\stapi\AppData\Local\Temp\ccbUglnk.s:598    .text.hwaddr_compact_aton:0000000000000048 .L50
C:\Users\stapi\AppData\Local\Temp\ccbUglnk.s:673    .text.hwaddr_aton2:000000000000001e .L62
C:\Users\stapi\AppData\Local\Temp\ccbUglnk.s:667    .text.hwaddr_aton2:000000000000001c .L59
C:\Users\stapi\AppData\Local\Temp\ccbUglnk.s:743    .text.hwaddr_aton2:0000000000000072 .L64
C:\Users\stapi\AppData\Local\Temp\ccbUglnk.s:662    .text.hwaddr_aton2:0000000000000018 .L58
C:\Users\stapi\AppData\Local\Temp\ccbUglnk.s:727    .text.hwaddr_aton2:000000000000006a .L57
C:\Users\stapi\AppData\Local\Temp\ccbUglnk.s:795    .text.hexstr2bin:000000000000001e .L69
C:\Users\stapi\AppData\Local\Temp\ccbUglnk.s:818    .text.hexstr2bin:0000000000000036 .L70
C:\Users\stapi\AppData\Local\Temp\ccbUglnk.s:780    .text.hexstr2bin:0000000000000010 .L67
C:\Users\stapi\AppData\Local\Temp\ccbUglnk.s:786    .text.hexstr2bin:0000000000000016 .L66
C:\Users\stapi\AppData\Local\Temp\ccbUglnk.s:831    .rodata.hwaddr_mask_txt.str1.4:000000000000003c .LC3
C:\Users\stapi\AppData\Local\Temp\ccbUglnk.s:828    .rodata.hwaddr_mask_txt.str1.4:0000000000000000 .LC2
C:\Users\stapi\AppData\Local\Temp\ccbUglnk.s:904    .text.hwaddr_mask_txt:0000000000000058 .L73
C:\Users\stapi\AppData\Local\Temp\ccbUglnk.s:864    .text.hwaddr_mask_txt:0000000000000014 .L74
C:\Users\stapi\AppData\Local\Temp\ccbUglnk.s:935    .text.hwaddr_mask_txt:00000000000000a8 .L77
C:\Users\stapi\AppData\Local\Temp\ccbUglnk.s:944    .text.hwaddr_mask_txt:00000000000000b0 .L72
C:\Users\stapi\AppData\Local\Temp\ccbUglnk.s:898    .text.hwaddr_mask_txt:0000000000000054 .L79
C:\Users\stapi\AppData\Local\Temp\ccbUglnk.s:983    .text.inc_byte_array:000000000000001a .L83
C:\Users\stapi\AppData\Local\Temp\ccbUglnk.s:966    .text.inc_byte_array:0000000000000000 .L88
C:\Users\stapi\AppData\Local\Temp\ccbUglnk.s:1021   .text.buf_shift_right:000000000000001a .L91
C:\Users\stapi\AppData\Local\Temp\ccbUglnk.s:1006   .text.buf_shift_right:0000000000000006 .L90
C:\Users\stapi\AppData\Local\Temp\ccbUglnk.s:1174   .text.wpa_scnprintf:000000000000001c .L95
C:\Users\stapi\AppData\Local\Temp\ccbUglnk.s:1160   .text.wpa_scnprintf:0000000000000012 .L97
C:\Users\stapi\AppData\Local\Temp\ccbUglnk.s:1163   .text.wpa_scnprintf:0000000000000014 .L94
C:\Users\stapi\AppData\Local\Temp\ccbUglnk.s:1206   .rodata.wpa_snprintf_hex_sep.str1.4:0000000000000000 .LC4
C:\Users\stapi\AppData\Local\Temp\ccbUglnk.s:1309   .text.wpa_snprintf_hex_sep:0000000000000060 .L104
C:\Users\stapi\AppData\Local\Temp\ccbUglnk.s:1254   .text.wpa_snprintf_hex_sep:0000000000000028 .L103
C:\Users\stapi\AppData\Local\Temp\ccbUglnk.s:1292   .text.wpa_snprintf_hex_sep:0000000000000054 .L109
C:\Users\stapi\AppData\Local\Temp\ccbUglnk.s:1286   .text.wpa_snprintf_hex_sep:0000000000000050 .L102
C:\Users\stapi\AppData\Local\Temp\ccbUglnk.s:1246   .text.wpa_snprintf_hex_sep:000000000000001e .L101
C:\Users\stapi\AppData\Local\Temp\ccbUglnk.s:1354   .rodata.printf_encode.str1.4:0000000000000000 .LC5
C:\Users\stapi\AppData\Local\Temp\ccbUglnk.s:1415   .text.printf_encode:000000000000003c .L128
C:\Users\stapi\AppData\Local\Temp\ccbUglnk.s:1436   .text.printf_encode:0000000000000048 .L116
C:\Users\stapi\AppData\Local\Temp\ccbUglnk.s:1499   .text.printf_encode:0000000000000098 .L117
C:\Users\stapi\AppData\Local\Temp\ccbUglnk.s:1464   .text.printf_encode:0000000000000078 .L118
C:\Users\stapi\AppData\Local\Temp\ccbUglnk.s:1511   .text.printf_encode:00000000000000a2 .L119
C:\Users\stapi\AppData\Local\Temp\ccbUglnk.s:1522   .text.printf_encode:00000000000000ac .L120
C:\Users\stapi\AppData\Local\Temp\ccbUglnk.s:1536   .text.printf_encode:00000000000000ba .L121
C:\Users\stapi\AppData\Local\Temp\ccbUglnk.s:1546   .text.printf_encode:00000000000000c4 .L126
C:\Users\stapi\AppData\Local\Temp\ccbUglnk.s:1493   .text.printf_encode:0000000000000094 .L125
C:\Users\stapi\AppData\Local\Temp\ccbUglnk.s:1479   .text.printf_encode:000000000000008a .L123
C:\Users\stapi\AppData\Local\Temp\ccbUglnk.s:1449   .text.printf_encode:0000000000000064 .L122
C:\Users\stapi\AppData\Local\Temp\ccbUglnk.s:1489   .text.printf_encode:0000000000000092 .L131
C:\Users\stapi\AppData\Local\Temp\ccbUglnk.s:1406   .text.printf_encode:0000000000000030 .L115
C:\Users\stapi\AppData\Local\Temp\ccbUglnk.s:1531   .text.printf_encode:00000000000000b4 .L132
C:\Users\stapi\AppData\Local\Temp\ccbUglnk.s:1640   .text.printf_decode:0000000000000040 .L152
C:\Users\stapi\AppData\Local\Temp\ccbUglnk.s:1621   .text.printf_decode:0000000000000036 .L133
C:\Users\stapi\AppData\Local\Temp\ccbUglnk.s:1612   .text.printf_decode:000000000000002a .L135
C:\Users\stapi\AppData\Local\Temp\ccbUglnk.s:1836   .text.printf_decode:000000000000014a .L136
C:\Users\stapi\AppData\Local\Temp\ccbUglnk.s:1756   .text.printf_decode:00000000000000ea .L137
C:\Users\stapi\AppData\Local\Temp\ccbUglnk.s:1716   .text.printf_decode:00000000000000b4 .L138
C:\Users\stapi\AppData\Local\Temp\ccbUglnk.s:1730   .text.printf_decode:00000000000000d2 .L139
C:\Users\stapi\AppData\Local\Temp\ccbUglnk.s:1708   .text.printf_decode:00000000000000ac .L140
C:\Users\stapi\AppData\Local\Temp\ccbUglnk.s:1748   .text.printf_decode:00000000000000e2 .L141
C:\Users\stapi\AppData\Local\Temp\ccbUglnk.s:1711   .text.printf_decode:00000000000000b0 .L155
C:\Users\stapi\AppData\Local\Temp\ccbUglnk.s:1824   .text.printf_decode:000000000000013c .L143
C:\Users\stapi\AppData\Local\Temp\ccbUglnk.s:1700   .text.printf_decode:00000000000000a4 .L151
C:\Users\stapi\AppData\Local\Temp\ccbUglnk.s:1742   .text.printf_decode:00000000000000dc .L142
C:\Users\stapi\AppData\Local\Temp\ccbUglnk.s:1772   .text.printf_decode:00000000000000fa .L145
C:\Users\stapi\AppData\Local\Temp\ccbUglnk.s:1765   .text.printf_decode:00000000000000f4 .L146
C:\Users\stapi\AppData\Local\Temp\ccbUglnk.s:1780   .text.printf_decode:0000000000000102 .L147
C:\Users\stapi\AppData\Local\Temp\ccbUglnk.s:1761   .text.printf_decode:00000000000000ee .L159
C:\Users\stapi\AppData\Local\Temp\ccbUglnk.s:1606   .text.printf_decode:0000000000000024 .L134
C:\Users\stapi\AppData\Local\Temp\ccbUglnk.s:1736   .text.printf_decode:00000000000000d8 .L158
C:\Users\stapi\AppData\Local\Temp\ccbUglnk.s:1813   .text.printf_decode:0000000000000130 .L149
C:\Users\stapi\AppData\Local\Temp\ccbUglnk.s:1682   .text.printf_decode:000000000000008a .L150
C:\Users\stapi\AppData\Local\Temp\ccbUglnk.s:1878   .text.wpa_ssid_txt:000000000000001e .L161
C:\Users\stapi\AppData\Local\Temp\ccbUglnk.s:1869   .text.wpa_ssid_txt:0000000000000012 .L162
C:\Users\stapi\AppData\Local\Temp\ccbUglnk.s:1935   .text.is_hex:000000000000000e .L168
C:\Users\stapi\AppData\Local\Temp\ccbUglnk.s:1950   .text.is_hex:0000000000000024 .L169
C:\Users\stapi\AppData\Local\Temp\ccbUglnk.s:1926   .text.is_hex:0000000000000006 .L166
C:\Users\stapi\AppData\Local\Temp\ccbUglnk.s:1986   .text.has_ctrl_char:0000000000000010 .L173
C:\Users\stapi\AppData\Local\Temp\ccbUglnk.s:2000   .text.has_ctrl_char:0000000000000024 .L175
C:\Users\stapi\AppData\Local\Temp\ccbUglnk.s:1977   .text.has_ctrl_char:0000000000000008 .L171
C:\Users\stapi\AppData\Local\Temp\ccbUglnk.s:2034   .text.has_newline:000000000000000e .L179
C:\Users\stapi\AppData\Local\Temp\ccbUglnk.s:2045   .text.has_newline:000000000000001a .L181
C:\Users\stapi\AppData\Local\Temp\ccbUglnk.s:2023   .text.has_newline:0000000000000004 .L177
C:\Users\stapi\AppData\Local\Temp\ccbUglnk.s:2153   .text.merge_byte_arrays:000000000000006a .L187
C:\Users\stapi\AppData\Local\Temp\ccbUglnk.s:2123   .text.merge_byte_arrays:0000000000000042 .L184
C:\Users\stapi\AppData\Local\Temp\ccbUglnk.s:2109   .text.merge_byte_arrays:0000000000000038 .L182
C:\Users\stapi\AppData\Local\Temp\ccbUglnk.s:2158   .text.merge_byte_arrays:000000000000006e .L186
C:\Users\stapi\AppData\Local\Temp\ccbUglnk.s:2102   .text.merge_byte_arrays:000000000000002e .L192
C:\Users\stapi\AppData\Local\Temp\ccbUglnk.s:2135   .text.merge_byte_arrays:0000000000000052 .L183
C:\Users\stapi\AppData\Local\Temp\ccbUglnk.s:2222   .text.dup_binstr:0000000000000032 .L193
C:\Users\stapi\AppData\Local\Temp\ccbUglnk.s:2319   .text.wpa_config_parse_string:0000000000000054 .L201
C:\Users\stapi\AppData\Local\Temp\ccbUglnk.s:2286   .text.wpa_config_parse_string:0000000000000030 .L202
C:\Users\stapi\AppData\Local\Temp\ccbUglnk.s:2306   .text.wpa_config_parse_string:000000000000004a .L200
C:\Users\stapi\AppData\Local\Temp\ccbUglnk.s:2278   .text.wpa_config_parse_string:000000000000002c .L218
C:\Users\stapi\AppData\Local\Temp\ccbUglnk.s:2397   .text.wpa_config_parse_string:00000000000000c2 .L205
C:\Users\stapi\AppData\Local\Temp\ccbUglnk.s:2386   .text.wpa_config_parse_string:00000000000000b0 .L206
C:\Users\stapi\AppData\Local\Temp\ccbUglnk.s:2378   .text.wpa_config_parse_string:00000000000000a4 .L219
C:\Users\stapi\AppData\Local\Temp\ccbUglnk.s:2440   .text.wpa_config_parse_string:0000000000000102 .L207
C:\Users\stapi\AppData\Local\Temp\ccbUglnk.s:2497   .text.freq_range_list_parse:000000000000001a .L232
C:\Users\stapi\AppData\Local\Temp\ccbUglnk.s:2513   .text.freq_range_list_parse:0000000000000032 .L233
C:\Users\stapi\AppData\Local\Temp\ccbUglnk.s:2526   .text.freq_range_list_parse:0000000000000042 .L220
C:\Users\stapi\AppData\Local\Temp\ccbUglnk.s:2540   .text.freq_range_list_parse:000000000000004a .L222
C:\Users\stapi\AppData\Local\Temp\ccbUglnk.s:2518   .text.freq_range_list_parse:0000000000000036 .L227
C:\Users\stapi\AppData\Local\Temp\ccbUglnk.s:2630   .text.freq_range_list_parse:00000000000000b6 .L228
C:\Users\stapi\AppData\Local\Temp\ccbUglnk.s:2604   .text.freq_range_list_parse:00000000000000a0 .L229
C:\Users\stapi\AppData\Local\Temp\ccbUglnk.s:2625   .text.freq_range_list_parse:00000000000000b2 .L231
C:\Users\stapi\AppData\Local\Temp\ccbUglnk.s:2491   .text.freq_range_list_parse:0000000000000012 .L221
C:\Users\stapi\AppData\Local\Temp\ccbUglnk.s:2616   .text.freq_range_list_parse:00000000000000ae .L230
C:\Users\stapi\AppData\Local\Temp\ccbUglnk.s:2662   .text.freq_range_list_includes:000000000000000a .L256
C:\Users\stapi\AppData\Local\Temp\ccbUglnk.s:2668   .text.freq_range_list_includes:000000000000000e .L255
C:\Users\stapi\AppData\Local\Temp\ccbUglnk.s:2679   .text.freq_range_list_includes:0000000000000020 .L254
C:\Users\stapi\AppData\Local\Temp\ccbUglnk.s:2685   .text.freq_range_list_includes:0000000000000024 .L257
C:\Users\stapi\AppData\Local\Temp\ccbUglnk.s:2656   .text.freq_range_list_includes:0000000000000006 .L253
C:\Users\stapi\AppData\Local\Temp\ccbUglnk.s:2696   .rodata.freq_range_list_str.str1.4:0000000000000000 .LC6
C:\Users\stapi\AppData\Local\Temp\ccbUglnk.s:2699   .rodata.freq_range_list_str.str1.4:0000000000000004 .LC7
C:\Users\stapi\AppData\Local\Temp\ccbUglnk.s:2705   .rodata.freq_range_list_str.str1.4:0000000000000010 .LC9
C:\Users\stapi\AppData\Local\Temp\ccbUglnk.s:2702   .rodata.freq_range_list_str.str1.4:0000000000000008 .LC8
C:\Users\stapi\AppData\Local\Temp\ccbUglnk.s:2763   .text.freq_range_list_str:0000000000000018 .L259
C:\Users\stapi\AppData\Local\Temp\ccbUglnk.s:2739   .text.freq_range_list_str:000000000000000c .L275
C:\Users\stapi\AppData\Local\Temp\ccbUglnk.s:2744   .text.freq_range_list_str:000000000000000e .L258
C:\Users\stapi\AppData\Local\Temp\ccbUglnk.s:2864   .text.freq_range_list_str:000000000000008e .L263
C:\Users\stapi\AppData\Local\Temp\ccbUglnk.s:2835   .text.freq_range_list_str:0000000000000070 .L264
C:\Users\stapi\AppData\Local\Temp\ccbUglnk.s:2879   .text.freq_range_list_str:00000000000000a4 .L267
C:\Users\stapi\AppData\Local\Temp\ccbUglnk.s:2806   .text.freq_range_list_str:000000000000004e .L262
C:\Users\stapi\AppData\Local\Temp\ccbUglnk.s:2870   .text.freq_range_list_str:0000000000000092 .L266
C:\Users\stapi\AppData\Local\Temp\ccbUglnk.s:2842   .text.freq_range_list_str:0000000000000080 .L265
C:\Users\stapi\AppData\Local\Temp\ccbUglnk.s:2915   .text.int_array_len:000000000000000e .L276
C:\Users\stapi\AppData\Local\Temp\ccbUglnk.s:2918   .text.int_array_len:0000000000000010 .L279
C:\Users\stapi\AppData\Local\Temp\ccbUglnk.s:2906   .text.int_array_len:0000000000000004 .L277
C:\Users\stapi\AppData\Local\Temp\ccbUglnk.s:2997   .text.int_array_concat:0000000000000044 .L282
C:\Users\stapi\AppData\Local\Temp\ccbUglnk.s:3027   .text.int_array_concat:0000000000000062 .L287
C:\Users\stapi\AppData\Local\Temp\ccbUglnk.s:3032   .text.int_array_concat:0000000000000066 .L294
C:\Users\stapi\AppData\Local\Temp\ccbUglnk.s:2975   .text.int_array_concat:0000000000000030 .L296
C:\Users\stapi\AppData\Local\Temp\ccbUglnk.s:3035   .text.int_array_concat:000000000000006a .L288
C:\Users\stapi\AppData\Local\Temp\ccbUglnk.s:2984   .text.int_array_concat:000000000000003c .L281
C:\Users\stapi\AppData\Local\Temp\ccbUglnk.s:3143   .text.int_array_sort_unique:000000000000005a .L312
C:\Users\stapi\AppData\Local\Temp\ccbUglnk.s:3116   .text.int_array_sort_unique:000000000000003e .L301
C:\Users\stapi\AppData\Local\Temp\ccbUglnk.s:3129   .text.int_array_sort_unique:000000000000004e .L302
C:\Users\stapi\AppData\Local\Temp\ccbUglnk.s:3139   .text.int_array_sort_unique:0000000000000056 .L300
C:\Users\stapi\AppData\Local\Temp\ccbUglnk.s:3100   .text.int_array_sort_unique:0000000000000030 .L299
C:\Users\stapi\AppData\Local\Temp\ccbUglnk.s:3189   .text.int_array_add_unique:000000000000001a .L318
C:\Users\stapi\AppData\Local\Temp\ccbUglnk.s:3225   .text.int_array_add_unique:0000000000000038 .L319
C:\Users\stapi\AppData\Local\Temp\ccbUglnk.s:3236   .text.int_array_add_unique:0000000000000040 .L327
C:\Users\stapi\AppData\Local\Temp\ccbUglnk.s:3215   .text.int_array_add_unique:0000000000000030 .L315
C:\Users\stapi\AppData\Local\Temp\ccbUglnk.s:3180   .text.int_array_add_unique:0000000000000010 .L316
C:\Users\stapi\AppData\Local\Temp\ccbUglnk.s:3203   .text.int_array_add_unique:0000000000000022 .L320
C:\Users\stapi\AppData\Local\Temp\ccbUglnk.s:3307   .text.random_mac_addr:0000000000000030 .L335
C:\Users\stapi\AppData\Local\Temp\ccbUglnk.s:3300   .text.random_mac_addr:0000000000000028 .L333
C:\Users\stapi\AppData\Local\Temp\ccbUglnk.s:3358   .text.random_mac_addr_keep_oui:0000000000000032 .L339
C:\Users\stapi\AppData\Local\Temp\ccbUglnk.s:3351   .text.random_mac_addr_keep_oui:000000000000002a .L337
C:\Users\stapi\AppData\Local\Temp\ccbUglnk.s:3403   .text.cstr_token:0000000000000016 .L342
C:\Users\stapi\AppData\Local\Temp\ccbUglnk.s:3388   .text.cstr_token:000000000000000a .L344
C:\Users\stapi\AppData\Local\Temp\ccbUglnk.s:3421   .text.cstr_token:0000000000000026 .L346
C:\Users\stapi\AppData\Local\Temp\ccbUglnk.s:3456   .text.cstr_token:000000000000004e .L347
C:\Users\stapi\AppData\Local\Temp\ccbUglnk.s:3463   .text.cstr_token:0000000000000052 .L349
C:\Users\stapi\AppData\Local\Temp\ccbUglnk.s:3391   .text.cstr_token:000000000000000c .L341
C:\Users\stapi\AppData\Local\Temp\ccbUglnk.s:3448   .text.cstr_token:0000000000000048 .L351
C:\Users\stapi\AppData\Local\Temp\ccbUglnk.s:3442   .text.cstr_token:0000000000000042 .L348
C:\Users\stapi\AppData\Local\Temp\ccbUglnk.s:3512   .text.str_token:0000000000000026 .L368
C:\Users\stapi\AppData\Local\Temp\ccbUglnk.s:3560   .text.utf8_unescape:0000000000000014 .L378
C:\Users\stapi\AppData\Local\Temp\ccbUglnk.s:3542   .text.utf8_unescape:0000000000000008 .L380
C:\Users\stapi\AppData\Local\Temp\ccbUglnk.s:3584   .text.utf8_unescape:0000000000000030 .L381
C:\Users\stapi\AppData\Local\Temp\ccbUglnk.s:3600   .text.utf8_unescape:0000000000000042 .L382
C:\Users\stapi\AppData\Local\Temp\ccbUglnk.s:3618   .text.utf8_unescape:0000000000000056 .L383
C:\Users\stapi\AppData\Local\Temp\ccbUglnk.s:3627   .text.utf8_unescape:0000000000000060 .L388
C:\Users\stapi\AppData\Local\Temp\ccbUglnk.s:3550   .text.utf8_unescape:000000000000000a .L379
C:\Users\stapi\AppData\Local\Temp\ccbUglnk.s:3660   .text.utf8_unescape:0000000000000084 .L385
C:\Users\stapi\AppData\Local\Temp\ccbUglnk.s:3667   .text.utf8_unescape:000000000000008a .L386
C:\Users\stapi\AppData\Local\Temp\ccbUglnk.s:3611   .text.utf8_unescape:000000000000004e .L384
C:\Users\stapi\AppData\Local\Temp\ccbUglnk.s:3641   .text.utf8_unescape:0000000000000074 .L387
C:\Users\stapi\AppData\Local\Temp\ccbUglnk.s:3719   .text.utf8_escape:0000000000000010 .L402
C:\Users\stapi\AppData\Local\Temp\ccbUglnk.s:3702   .text.utf8_escape:0000000000000006 .L404
C:\Users\stapi\AppData\Local\Temp\ccbUglnk.s:3743   .text.utf8_escape:000000000000002c .L405
C:\Users\stapi\AppData\Local\Temp\ccbUglnk.s:3762   .text.utf8_escape:0000000000000046 .L409
C:\Users\stapi\AppData\Local\Temp\ccbUglnk.s:3710   .text.utf8_escape:0000000000000008 .L401
C:\Users\stapi\AppData\Local\Temp\ccbUglnk.s:3776   .text.utf8_escape:000000000000005a .L407
C:\Users\stapi\AppData\Local\Temp\ccbUglnk.s:3792   .text.utf8_escape:0000000000000068 .L408
C:\Users\stapi\AppData\Local\Temp\ccbUglnk.s:3752   .text.utf8_escape:0000000000000038 .L406
C:\Users\stapi\AppData\Local\Temp\ccbUglnk.s:3954   .text.ssid_parse:00000000000000a4 .L423
C:\Users\stapi\AppData\Local\Temp\ccbUglnk.s:3937   .text.ssid_parse:000000000000008a .L419
C:\Users\stapi\AppData\Local\Temp\ccbUglnk.s:3882   .text.ssid_parse:000000000000003a .L420
C:\Users\stapi\AppData\Local\Temp\ccbUglnk.s:3910   .text.ssid_parse:0000000000000062 .L422
C:\Users\stapi\AppData\Local\Temp\ccbUglnk.s:3959   .text.ssid_parse:00000000000000a8 .L421
C:\Users\stapi\AppData\Local\Temp\ccbUglnk.s:3925   .text.ssid_parse:0000000000000080 .L417
C:\Users\stapi\AppData\Local\Temp\ccbUglnk.s:4044   .text.rssi_to_rcpi:0000000000000022 .L435
C:\Users\stapi\AppData\Local\Temp\ccbUglnk.s:4048   .text.rssi_to_rcpi:0000000000000026 .L434
C:\Users\stapi\AppData\Local\Temp\ccbUglnk.s:4136   .text.get_param:0000000000000066 .L438
C:\Users\stapi\AppData\Local\Temp\ccbUglnk.s:4111   .text.get_param:0000000000000044 .L441
C:\Users\stapi\AppData\Local\Temp\ccbUglnk.s:4212   .text.str_clear_free:0000000000000032 .L457
C:\Users\stapi\AppData\Local\Temp\ccbUglnk.s:4248   .text.bin_clear_free:0000000000000026 .L466
C:\Users\stapi\AppData\Local\Temp\ccbUglnk.s:8399   .debug_abbrev:0000000000000000 .Ldebug_abbrev0
C:\Users\stapi\AppData\Local\Temp\ccbUglnk.s:13659  .debug_str:000000000000033d .LASF163
C:\Users\stapi\AppData\Local\Temp\ccbUglnk.s:13581  .debug_str:00000000000000d7 .LASF164
C:\Users\stapi\AppData\Local\Temp\ccbUglnk.s:13793  .debug_str:0000000000000735 .LASF165
C:\Users\stapi\AppData\Local\Temp\ccbUglnk.s:13389  .debug_ranges:0000000000000000 .Ldebug_ranges0
C:\Users\stapi\AppData\Local\Temp\ccbUglnk.s:13543  .debug_line:0000000000000000 .Ldebug_line0
C:\Users\stapi\AppData\Local\Temp\ccbUglnk.s:13555  .debug_str:0000000000000049 .LASF2
C:\Users\stapi\AppData\Local\Temp\ccbUglnk.s:13655  .debug_str:0000000000000320 .LASF0
C:\Users\stapi\AppData\Local\Temp\ccbUglnk.s:13587  .debug_str:000000000000017f .LASF1
C:\Users\stapi\AppData\Local\Temp\ccbUglnk.s:13561  .debug_str:0000000000000065 .LASF3
C:\Users\stapi\AppData\Local\Temp\ccbUglnk.s:13765  .debug_str:0000000000000669 .LASF4
C:\Users\stapi\AppData\Local\Temp\ccbUglnk.s:13617  .debug_str:0000000000000232 .LASF5
C:\Users\stapi\AppData\Local\Temp\ccbUglnk.s:13825  .debug_str:0000000000000888 .LASF6
C:\Users\stapi\AppData\Local\Temp\ccbUglnk.s:13605  .debug_str:00000000000001e2 .LASF7
C:\Users\stapi\AppData\Local\Temp\ccbUglnk.s:13629  .debug_str:000000000000027c .LASF8
C:\Users\stapi\AppData\Local\Temp\ccbUglnk.s:13593  .debug_str:0000000000000196 .LASF9
C:\Users\stapi\AppData\Local\Temp\ccbUglnk.s:13585  .debug_str:0000000000000171 .LASF10
C:\Users\stapi\AppData\Local\Temp\ccbUglnk.s:13571  .debug_str:000000000000009a .LASF11
C:\Users\stapi\AppData\Local\Temp\ccbUglnk.s:13613  .debug_str:000000000000020f .LASF166
C:\Users\stapi\AppData\Local\Temp\ccbUglnk.s:13801  .debug_str:00000000000007f7 .LASF12
C:\Users\stapi\AppData\Local\Temp\ccbUglnk.s:13719  .debug_str:0000000000000562 .LASF13
C:\Users\stapi\AppData\Local\Temp\ccbUglnk.s:13847  .debug_str:0000000000000925 .LASF14
C:\Users\stapi\AppData\Local\Temp\ccbUglnk.s:13791  .debug_str:000000000000072c .LASF15
C:\Users\stapi\AppData\Local\Temp\ccbUglnk.s:13563  .debug_str:000000000000006f .LASF16
C:\Users\stapi\AppData\Local\Temp\ccbUglnk.s:13815  .debug_str:000000000000084f .LASF167
C:\Users\stapi\AppData\Local\Temp\ccbUglnk.s:13763  .debug_str:0000000000000663 .LASF17
C:\Users\stapi\AppData\Local\Temp\ccbUglnk.s:13609  .debug_str:00000000000001f8 .LASF18
C:\Users\stapi\AppData\Local\Temp\ccbUglnk.s:13549  .debug_str:000000000000001b .LASF19
C:\Users\stapi\AppData\Local\Temp\ccbUglnk.s:13671  .debug_str:000000000000046e .LASF20
C:\Users\stapi\AppData\Local\Temp\ccbUglnk.s:13809  .debug_str:0000000000000822 .LASF21
C:\Users\stapi\AppData\Local\Temp\ccbUglnk.s:13577  .debug_str:00000000000000bf .LASF22
C:\Users\stapi\AppData\Local\Temp\ccbUglnk.s:13747  .debug_str:00000000000005fc .LASF23
C:\Users\stapi\AppData\Local\Temp\ccbUglnk.s:13651  .debug_str:0000000000000309 .LASF24
C:\Users\stapi\AppData\Local\Temp\ccbUglnk.s:13785  .debug_str:0000000000000701 .LASF25
C:\Users\stapi\AppData\Local\Temp\ccbUglnk.s:13805  .debug_str:0000000000000811 .LASF26
C:\Users\stapi\AppData\Local\Temp\ccbUglnk.s:13811  .debug_str:0000000000000836 .LASF27
C:\Users\stapi\AppData\Local\Temp\ccbUglnk.s:13799  .debug_str:00000000000007e4 .LASF28
C:\Users\stapi\AppData\Local\Temp\ccbUglnk.s:13879  .debug_str:00000000000009e1 .LASF29
C:\Users\stapi\AppData\Local\Temp\ccbUglnk.s:13657  .debug_str:000000000000032d .LASF30
C:\Users\stapi\AppData\Local\Temp\ccbUglnk.s:13551  .debug_str:0000000000000028 .LASF31
C:\Users\stapi\AppData\Local\Temp\ccbUglnk.s:13579  .debug_str:00000000000000cc .LASF32
C:\Users\stapi\AppData\Local\Temp\ccbUglnk.s:13663  .debug_str:000000000000043b .LASF33
C:\Users\stapi\AppData\Local\Temp\ccbUglnk.s:13821  .debug_str:0000000000000867 .LASF34
C:\Users\stapi\AppData\Local\Temp\ccbUglnk.s:13701  .debug_str:0000000000000511 .LASF35
C:\Users\stapi\AppData\Local\Temp\ccbUglnk.s:13837  .debug_str:00000000000008cc .LASF168
C:\Users\stapi\AppData\Local\Temp\ccbUglnk.s:13783  .debug_str:00000000000006df .LASF36
C:\Users\stapi\AppData\Local\Temp\ccbUglnk.s:13767  .debug_str:0000000000000677 .LASF37
C:\Users\stapi\AppData\Local\Temp\ccbUglnk.s:13619  .debug_str:000000000000023c .LASF38
C:\Users\stapi\AppData\Local\Temp\ccbUglnk.s:13685  .debug_str:00000000000004ae .LASF39
C:\Users\stapi\AppData\Local\Temp\ccbUglnk.s:13697  .debug_str:0000000000000500 .LASF42
C:\Users\stapi\AppData\Local\Temp\ccbUglnk.s:13731  .debug_str:0000000000000599 .LASF40
C:\Users\stapi\AppData\Local\Temp\ccbUglnk.s:13621  .debug_str:000000000000025d .LASF41
C:\Users\stapi\AppData\Local\Temp\ccbUglnk.s:13827  .debug_str:000000000000089b .LASF43
C:\Users\stapi\AppData\Local\Temp\ccbUglnk.s:13661  .debug_str:0000000000000436 .LASF44
C:\Users\stapi\AppData\Local\Temp\ccbUglnk.s:13565  .debug_str:0000000000000077 .LASF45
C:\Users\stapi\AppData\Local\Temp\ccbUglnk.s:13789  .debug_str:000000000000071d .LASF46
C:\Users\stapi\AppData\Local\Temp\ccbUglnk.s:13751  .debug_str:0000000000000611 .LASF47
C:\Users\stapi\AppData\Local\Temp\ccbUglnk.s:13743  .debug_str:00000000000005dd .LASF48
C:\Users\stapi\AppData\Local\Temp\ccbUglnk.s:13705  .debug_str:0000000000000523 .LASF50
C:\Users\stapi\AppData\Local\Temp\ccbUglnk.s:13757  .debug_str:0000000000000646 .LASF105
C:\Users\stapi\AppData\Local\Temp\ccbUglnk.s:13637  .debug_str:00000000000002bc .LASF73
C:\Users\stapi\AppData\Local\Temp\ccbUglnk.s:4153   .text.forced_memzero:0000000000000000 .LFB119
C:\Users\stapi\AppData\Local\Temp\ccbUglnk.s:4169   .text.forced_memzero:000000000000000e .LFE119
C:\Users\stapi\AppData\Local\Temp\ccbUglnk.s:9519   .debug_loc:0000000000000000 .LLST197
C:\Users\stapi\AppData\Local\Temp\ccbUglnk.s:9533   .debug_loc:0000000000000021 .LLST198
C:\Users\stapi\AppData\Local\Temp\ccbUglnk.s:4166   .text.forced_memzero:000000000000000e .LVL488
C:\Users\stapi\AppData\Local\Temp\ccbUglnk.s:13611  .debug_str:0000000000000205 .LASF51
C:\Users\stapi\AppData\Local\Temp\ccbUglnk.s:4059   .text.get_param:0000000000000000 .LFB118
C:\Users\stapi\AppData\Local\Temp\ccbUglnk.s:4146   .text.get_param:0000000000000070 .LFE118
C:\Users\stapi\AppData\Local\Temp\ccbUglnk.s:9551   .debug_loc:000000000000004d .LLST191
C:\Users\stapi\AppData\Local\Temp\ccbUglnk.s:13725  .debug_str:0000000000000580 .LASF49
C:\Users\stapi\AppData\Local\Temp\ccbUglnk.s:9565   .debug_loc:000000000000006e .LLST192
C:\Users\stapi\AppData\Local\Temp\ccbUglnk.s:9583   .debug_loc:000000000000009a .LLST193
C:\Users\stapi\AppData\Local\Temp\ccbUglnk.s:9594   .debug_loc:00000000000000b8 .LLST194
C:\Users\stapi\AppData\Local\Temp\ccbUglnk.s:9601   .debug_loc:00000000000000cb .LLST195
C:\Users\stapi\AppData\Local\Temp\ccbUglnk.s:9608   .debug_loc:00000000000000de .LLST196
C:\Users\stapi\AppData\Local\Temp\ccbUglnk.s:4077   .text.get_param:0000000000000012 .LVL472
C:\Users\stapi\AppData\Local\Temp\ccbUglnk.s:4087   .text.get_param:0000000000000020 .LVL474
C:\Users\stapi\AppData\Local\Temp\ccbUglnk.s:4096   .text.get_param:0000000000000032 .LVL476
C:\Users\stapi\AppData\Local\Temp\ccbUglnk.s:4108   .text.get_param:0000000000000042 .LVL479
C:\Users\stapi\AppData\Local\Temp\ccbUglnk.s:4116   .text.get_param:0000000000000050 .LVL481
C:\Users\stapi\AppData\Local\Temp\ccbUglnk.s:4130   .text.get_param:0000000000000062 .LVL484
C:\Users\stapi\AppData\Local\Temp\ccbUglnk.s:13835  .debug_str:00000000000008bf .LASF52
C:\Users\stapi\AppData\Local\Temp\ccbUglnk.s:4014   .text.rssi_to_rcpi:0000000000000000 .LFB117
C:\Users\stapi\AppData\Local\Temp\ccbUglnk.s:4052   .text.rssi_to_rcpi:0000000000000028 .LFE117
C:\Users\stapi\AppData\Local\Temp\ccbUglnk.s:13863  .debug_str:000000000000098f .LASF53
C:\Users\stapi\AppData\Local\Temp\ccbUglnk.s:9619   .debug_loc:00000000000000fc .LLST190
C:\Users\stapi\AppData\Local\Temp\ccbUglnk.s:13777  .debug_str:00000000000006c4 .LASF54
C:\Users\stapi\AppData\Local\Temp\ccbUglnk.s:3972   .text.str_starts:0000000000000000 .LFB116
C:\Users\stapi\AppData\Local\Temp\ccbUglnk.s:4007   .text.str_starts:0000000000000034 .LFE116
C:\Users\stapi\AppData\Local\Temp\ccbUglnk.s:9638   .debug_loc:0000000000000130 .LLST188
C:\Users\stapi\AppData\Local\Temp\ccbUglnk.s:13865  .debug_str:0000000000000994 .LASF55
C:\Users\stapi\AppData\Local\Temp\ccbUglnk.s:9649   .debug_loc:000000000000014e .LLST189
C:\Users\stapi\AppData\Local\Temp\ccbUglnk.s:3991   .text.str_starts:0000000000000018 .LVL464
C:\Users\stapi\AppData\Local\Temp\ccbUglnk.s:3996   .text.str_starts:0000000000000026 .LVL465
C:\Users\stapi\AppData\Local\Temp\ccbUglnk.s:13753  .debug_str:0000000000000625 .LASF56
C:\Users\stapi\AppData\Local\Temp\ccbUglnk.s:3837   .text.ssid_parse:0000000000000000 .LFB115
C:\Users\stapi\AppData\Local\Temp\ccbUglnk.s:3965   .text.ssid_parse:00000000000000ae .LFE115
C:\Users\stapi\AppData\Local\Temp\ccbUglnk.s:9666   .debug_loc:0000000000000179 .LLST183
C:\Users\stapi\AppData\Local\Temp\ccbUglnk.s:9680   .debug_loc:000000000000019a .LLST184
C:\Users\stapi\AppData\Local\Temp\ccbUglnk.s:9691   .debug_loc:00000000000001b8 .LLST185
C:\Users\stapi\AppData\Local\Temp\ccbUglnk.s:9710   .debug_loc:00000000000001ec .LLST186
C:\Users\stapi\AppData\Local\Temp\ccbUglnk.s:9725   .debug_loc:0000000000000215 .LLST187
C:\Users\stapi\AppData\Local\Temp\ccbUglnk.s:3860   .text.ssid_parse:0000000000000018 .LVL447
C:\Users\stapi\AppData\Local\Temp\ccbUglnk.s:3875   .text.ssid_parse:0000000000000034 .LVL448
C:\Users\stapi\AppData\Local\Temp\ccbUglnk.s:3889   .text.ssid_parse:0000000000000046 .LVL450
C:\Users\stapi\AppData\Local\Temp\ccbUglnk.s:3909   .text.ssid_parse:0000000000000062 .LVL453
C:\Users\stapi\AppData\Local\Temp\ccbUglnk.s:3914   .text.ssid_parse:000000000000006c .LVL454
C:\Users\stapi\AppData\Local\Temp\ccbUglnk.s:3918   .text.ssid_parse:0000000000000076 .LVL455
C:\Users\stapi\AppData\Local\Temp\ccbUglnk.s:3944   .text.ssid_parse:0000000000000098 .LVL458
C:\Users\stapi\AppData\Local\Temp\ccbUglnk.s:3952   .text.ssid_parse:00000000000000a4 .LVL460
C:\Users\stapi\AppData\Local\Temp\ccbUglnk.s:13595  .debug_str:00000000000001a8 .LASF57
C:\Users\stapi\AppData\Local\Temp\ccbUglnk.s:3817   .text.is_ctrl_char:0000000000000000 .LFB114
C:\Users\stapi\AppData\Local\Temp\ccbUglnk.s:3830   .text.is_ctrl_char:000000000000000c .LFE114
C:\Users\stapi\AppData\Local\Temp\ccbUglnk.s:9740   .debug_loc:000000000000023e .LLST182
C:\Users\stapi\AppData\Local\Temp\ccbUglnk.s:13839  .debug_str:00000000000008f2 .LASF58
C:\Users\stapi\AppData\Local\Temp\ccbUglnk.s:3688   .text.utf8_escape:0000000000000000 .LFB113
C:\Users\stapi\AppData\Local\Temp\ccbUglnk.s:3810   .text.utf8_escape:0000000000000078 .LFE113
C:\Users\stapi\AppData\Local\Temp\ccbUglnk.s:9754   .debug_loc:000000000000025f .LLST177
C:\Users\stapi\AppData\Local\Temp\ccbUglnk.s:13877  .debug_str:00000000000009d9 .LASF59
C:\Users\stapi\AppData\Local\Temp\ccbUglnk.s:9776   .debug_loc:0000000000000296 .LLST178
C:\Users\stapi\AppData\Local\Temp\ccbUglnk.s:13741  .debug_str:00000000000005d8 .LASF60
C:\Users\stapi\AppData\Local\Temp\ccbUglnk.s:9794   .debug_loc:00000000000002c2 .LLST179
C:\Users\stapi\AppData\Local\Temp\ccbUglnk.s:13575  .debug_str:00000000000000b6 .LASF61
C:\Users\stapi\AppData\Local\Temp\ccbUglnk.s:9833   .debug_loc:0000000000000326 .LLST180
C:\Users\stapi\AppData\Local\Temp\ccbUglnk.s:13723  .debug_str:0000000000000577 .LASF62
C:\Users\stapi\AppData\Local\Temp\ccbUglnk.s:9855   .debug_loc:000000000000035d .LLST181
C:\Users\stapi\AppData\Local\Temp\ccbUglnk.s:3740   .text.utf8_escape:000000000000002a .LVL435
C:\Users\stapi\AppData\Local\Temp\ccbUglnk.s:13867  .debug_str:000000000000099a .LASF63
C:\Users\stapi\AppData\Local\Temp\ccbUglnk.s:3526   .text.utf8_unescape:0000000000000000 .LFB112
C:\Users\stapi\AppData\Local\Temp\ccbUglnk.s:3681   .text.utf8_unescape:0000000000000094 .LFE112
C:\Users\stapi\AppData\Local\Temp\ccbUglnk.s:9884   .debug_loc:00000000000003a9 .LLST172
C:\Users\stapi\AppData\Local\Temp\ccbUglnk.s:9920   .debug_loc:0000000000000403 .LLST173
C:\Users\stapi\AppData\Local\Temp\ccbUglnk.s:9961   .debug_loc:0000000000000469 .LLST174
C:\Users\stapi\AppData\Local\Temp\ccbUglnk.s:10008  .debug_loc:00000000000004d5 .LLST175
C:\Users\stapi\AppData\Local\Temp\ccbUglnk.s:10030  .debug_loc:000000000000050c .LLST176
C:\Users\stapi\AppData\Local\Temp\ccbUglnk.s:3581   .text.utf8_unescape:000000000000002e .LVL412
C:\Users\stapi\AppData\Local\Temp\ccbUglnk.s:13711  .debug_str:000000000000053c .LASF64
C:\Users\stapi\AppData\Local\Temp\ccbUglnk.s:3483   .text.str_token:0000000000000000 .LFB111
C:\Users\stapi\AppData\Local\Temp\ccbUglnk.s:3519   .text.str_token:000000000000002e .LFE111
C:\Users\stapi\AppData\Local\Temp\ccbUglnk.s:10061  .debug_loc:000000000000055a .LLST169
C:\Users\stapi\AppData\Local\Temp\ccbUglnk.s:13773  .debug_str:00000000000006ad .LASF65
C:\Users\stapi\AppData\Local\Temp\ccbUglnk.s:10075  .debug_loc:000000000000057b .LLST170
C:\Users\stapi\AppData\Local\Temp\ccbUglnk.s:13859  .debug_str:0000000000000982 .LASF66
C:\Users\stapi\AppData\Local\Temp\ccbUglnk.s:10089  .debug_loc:000000000000059c .LLST171
C:\Users\stapi\AppData\Local\Temp\ccbUglnk.s:13749  .debug_str:000000000000060b .LASF67
C:\Users\stapi\AppData\Local\Temp\ccbUglnk.s:3496   .text.str_token:0000000000000012 .LVL404
C:\Users\stapi\AppData\Local\Temp\ccbUglnk.s:13797  .debug_str:00000000000007d9 .LASF68
C:\Users\stapi\AppData\Local\Temp\ccbUglnk.s:3371   .text.cstr_token:0000000000000000 .LFB110
C:\Users\stapi\AppData\Local\Temp\ccbUglnk.s:3476   .text.cstr_token:0000000000000062 .LFE110
C:\Users\stapi\AppData\Local\Temp\ccbUglnk.s:10100  .debug_loc:00000000000005ba .LLST164
C:\Users\stapi\AppData\Local\Temp\ccbUglnk.s:10129  .debug_loc:00000000000005ff .LLST165
C:\Users\stapi\AppData\Local\Temp\ccbUglnk.s:13683  .debug_str:00000000000004a9 .LASF69
C:\Users\stapi\AppData\Local\Temp\ccbUglnk.s:10151  .debug_loc:0000000000000636 .LLST166
C:\Users\stapi\AppData\Local\Temp\ccbUglnk.s:10173  .debug_loc:000000000000066d .LLST167
C:\Users\stapi\AppData\Local\Temp\ccbUglnk.s:10184  .debug_loc:000000000000068b .LLST168
C:\Users\stapi\AppData\Local\Temp\ccbUglnk.s:3430   .text.cstr_token:0000000000000036 .LVL396
C:\Users\stapi\AppData\Local\Temp\ccbUglnk.s:3467   .text.cstr_token:000000000000005c .LVL401
C:\Users\stapi\AppData\Local\Temp\ccbUglnk.s:13849  .debug_str:000000000000092d .LASF70
C:\Users\stapi\AppData\Local\Temp\ccbUglnk.s:3320   .text.random_mac_addr_keep_oui:0000000000000000 .LFB109
C:\Users\stapi\AppData\Local\Temp\ccbUglnk.s:3364   .text.random_mac_addr_keep_oui:0000000000000036 .LFE109
C:\Users\stapi\AppData\Local\Temp\ccbUglnk.s:13573  .debug_str:00000000000000b1 .LASF71
C:\Users\stapi\AppData\Local\Temp\ccbUglnk.s:10199  .debug_loc:00000000000006b4 .LLST163
C:\Users\stapi\AppData\Local\Temp\ccbUglnk.s:3336   .text.random_mac_addr_keep_oui:0000000000000016 .LVL388
C:\Users\stapi\AppData\Local\Temp\ccbUglnk.s:13851  .debug_str:0000000000000946 .LASF72
C:\Users\stapi\AppData\Local\Temp\ccbUglnk.s:3270   .text.random_mac_addr:0000000000000000 .LFB108
C:\Users\stapi\AppData\Local\Temp\ccbUglnk.s:3313   .text.random_mac_addr:0000000000000034 .LFE108
C:\Users\stapi\AppData\Local\Temp\ccbUglnk.s:10210  .debug_loc:00000000000006d2 .LLST162
C:\Users\stapi\AppData\Local\Temp\ccbUglnk.s:3285   .text.random_mac_addr:0000000000000014 .LVL385
C:\Users\stapi\AppData\Local\Temp\ccbUglnk.s:13599  .debug_str:00000000000001be .LASF74
C:\Users\stapi\AppData\Local\Temp\ccbUglnk.s:4222   .text.bin_clear_free:0000000000000000 .LFB107
C:\Users\stapi\AppData\Local\Temp\ccbUglnk.s:4251   .text.bin_clear_free:0000000000000028 .LFE107
C:\Users\stapi\AppData\Local\Temp\ccbUglnk.s:10221  .debug_loc:00000000000006f0 .LLST201
C:\Users\stapi\AppData\Local\Temp\ccbUglnk.s:10236  .debug_loc:0000000000000719 .LLST202
C:\Users\stapi\AppData\Local\Temp\ccbUglnk.s:4237   .text.bin_clear_free:0000000000000014 .LVL497
C:\Users\stapi\AppData\Local\Temp\ccbUglnk.s:4241   .text.bin_clear_free:000000000000001e .LVL498
C:\Users\stapi\AppData\Local\Temp\ccbUglnk.s:13569  .debug_str:000000000000008b .LASF75
C:\Users\stapi\AppData\Local\Temp\ccbUglnk.s:4176   .text.str_clear_free:0000000000000000 .LFB106
C:\Users\stapi\AppData\Local\Temp\ccbUglnk.s:4215   .text.str_clear_free:0000000000000034 .LFE106
C:\Users\stapi\AppData\Local\Temp\ccbUglnk.s:10254  .debug_loc:0000000000000745 .LLST199
C:\Users\stapi\AppData\Local\Temp\ccbUglnk.s:4189   .text.str_clear_free:000000000000000c .LBB55
C:\Users\stapi\AppData\Local\Temp\ccbUglnk.s:4205   .text.str_clear_free:000000000000002a .LBE55
C:\Users\stapi\AppData\Local\Temp\ccbUglnk.s:10269  .debug_loc:000000000000076e .LLST200
C:\Users\stapi\AppData\Local\Temp\ccbUglnk.s:4193   .text.str_clear_free:0000000000000014 .LVL490
C:\Users\stapi\AppData\Local\Temp\ccbUglnk.s:4200   .text.str_clear_free:0000000000000020 .LVL493
C:\Users\stapi\AppData\Local\Temp\ccbUglnk.s:4204   .text.str_clear_free:000000000000002a .LVL494
C:\Users\stapi\AppData\Local\Temp\ccbUglnk.s:13633  .debug_str:000000000000028c .LASF76
C:\Users\stapi\AppData\Local\Temp\ccbUglnk.s:3156   .text.int_array_add_unique:0000000000000000 .LFB105
C:\Users\stapi\AppData\Local\Temp\ccbUglnk.s:3263   .text.int_array_add_unique:000000000000005e .LFE105
C:\Users\stapi\AppData\Local\Temp\ccbUglnk.s:10280  .debug_loc:000000000000078c .LLST155
C:\Users\stapi\AppData\Local\Temp\ccbUglnk.s:10291  .debug_loc:00000000000007aa .LLST156
C:\Users\stapi\AppData\Local\Temp\ccbUglnk.s:13853  .debug_str:0000000000000956 .LASF77
C:\Users\stapi\AppData\Local\Temp\ccbUglnk.s:10310  .debug_loc:00000000000007de .LLST157
C:\Users\stapi\AppData\Local\Temp\ccbUglnk.s:13845  .debug_str:000000000000091c .LASF78
C:\Users\stapi\AppData\Local\Temp\ccbUglnk.s:10338  .debug_loc:0000000000000822 .LLST158
C:\Users\stapi\AppData\Local\Temp\ccbUglnk.s:3197   .text.int_array_add_unique:000000000000001c .LBB51
C:\Users\stapi\AppData\Local\Temp\ccbUglnk.s:10353  .debug_loc:0000000000000844 .LLST159
C:\Users\stapi\AppData\Local\Temp\ccbUglnk.s:10366  .debug_loc:0000000000000864 .LLST160
C:\Users\stapi\AppData\Local\Temp\ccbUglnk.s:10377  .debug_loc:0000000000000882 .LLST161
C:\Users\stapi\AppData\Local\Temp\ccbUglnk.s:3245   .text.int_array_add_unique:000000000000004e .LVL383
C:\Users\stapi\AppData\Local\Temp\ccbUglnk.s:3209   .text.int_array_add_unique:000000000000002c .LVL377
C:\Users\stapi\AppData\Local\Temp\ccbUglnk.s:13687  .debug_str:00000000000004b8 .LASF79
C:\Users\stapi\AppData\Local\Temp\ccbUglnk.s:3063   .text.int_array_sort_unique:0000000000000000 .LFB104
C:\Users\stapi\AppData\Local\Temp\ccbUglnk.s:3149   .text.int_array_sort_unique:000000000000005c .LFE104
C:\Users\stapi\AppData\Local\Temp\ccbUglnk.s:10388  .debug_loc:00000000000008a0 .LLST151
C:\Users\stapi\AppData\Local\Temp\ccbUglnk.s:13807  .debug_str:000000000000081d .LASF80
C:\Users\stapi\AppData\Local\Temp\ccbUglnk.s:10403  .debug_loc:00000000000008c9 .LLST152
C:\Users\stapi\AppData\Local\Temp\ccbUglnk.s:10414  .debug_loc:00000000000008e7 .LLST153
C:\Users\stapi\AppData\Local\Temp\ccbUglnk.s:10430  .debug_loc:0000000000000911 .LLST154
C:\Users\stapi\AppData\Local\Temp\ccbUglnk.s:3080   .text.int_array_sort_unique:0000000000000014 .LVL360
C:\Users\stapi\AppData\Local\Temp\ccbUglnk.s:3092   .text.int_array_sort_unique:000000000000002a .LVL363
C:\Users\stapi\AppData\Local\Temp\ccbUglnk.s:13729  .debug_str:0000000000000590 .LASF117
C:\Users\stapi\AppData\Local\Temp\ccbUglnk.s:74     .text.freq_cmp:0000000000000000 .LFB103
C:\Users\stapi\AppData\Local\Temp\ccbUglnk.s:108    .text.freq_cmp:0000000000000014 .LFE103
C:\Users\stapi\AppData\Local\Temp\ccbUglnk.s:10438  .debug_loc:0000000000000925 .LLST1
C:\Users\stapi\AppData\Local\Temp\ccbUglnk.s:13615  .debug_str:0000000000000221 .LASF81
C:\Users\stapi\AppData\Local\Temp\ccbUglnk.s:2933   .text.int_array_concat:0000000000000000 .LFB102
C:\Users\stapi\AppData\Local\Temp\ccbUglnk.s:3056   .text.int_array_concat:000000000000007e .LFE102
C:\Users\stapi\AppData\Local\Temp\ccbUglnk.s:10463  .debug_loc:000000000000095f .LLST142
C:\Users\stapi\AppData\Local\Temp\ccbUglnk.s:10474  .debug_loc:000000000000097d .LLST143
C:\Users\stapi\AppData\Local\Temp\ccbUglnk.s:10485  .debug_loc:000000000000099b .LLST144
C:\Users\stapi\AppData\Local\Temp\ccbUglnk.s:10496  .debug_loc:00000000000009b9 .LLST145
C:\Users\stapi\AppData\Local\Temp\ccbUglnk.s:10511  .debug_loc:00000000000009e2 .LLST146
C:\Users\stapi\AppData\Local\Temp\ccbUglnk.s:10528  .debug_loc:0000000000000a0d .LLST147
C:\Users\stapi\AppData\Local\Temp\ccbUglnk.s:3007   .text.int_array_concat:0000000000000050 .LBB47
C:\Users\stapi\AppData\Local\Temp\ccbUglnk.s:3022   .text.int_array_concat:0000000000000060 .LBE47
C:\Users\stapi\AppData\Local\Temp\ccbUglnk.s:10539  .debug_loc:0000000000000a2b .LLST148
C:\Users\stapi\AppData\Local\Temp\ccbUglnk.s:10547  .debug_loc:0000000000000a3f .LLST149
C:\Users\stapi\AppData\Local\Temp\ccbUglnk.s:10576  .debug_loc:0000000000000a76 .LLST150
C:\Users\stapi\AppData\Local\Temp\ccbUglnk.s:3020   .text.int_array_concat:0000000000000060 .LVL353
C:\Users\stapi\AppData\Local\Temp\ccbUglnk.s:2958   .text.int_array_concat:000000000000001a .LVL343
C:\Users\stapi\AppData\Local\Temp\ccbUglnk.s:2965   .text.int_array_concat:0000000000000026 .LVL345
C:\Users\stapi\AppData\Local\Temp\ccbUglnk.s:2978   .text.int_array_concat:0000000000000038 .LVL347
C:\Users\stapi\AppData\Local\Temp\ccbUglnk.s:13693  .debug_str:00000000000004eb .LASF82
C:\Users\stapi\AppData\Local\Temp\ccbUglnk.s:2895   .text.int_array_len:0000000000000000 .LFB101
C:\Users\stapi\AppData\Local\Temp\ccbUglnk.s:2926   .text.int_array_len:0000000000000014 .LFE101
C:\Users\stapi\AppData\Local\Temp\ccbUglnk.s:10583  .debug_loc:0000000000000a89 .LLST140
C:\Users\stapi\AppData\Local\Temp\ccbUglnk.s:10594  .debug_loc:0000000000000aa7 .LLST141
C:\Users\stapi\AppData\Local\Temp\ccbUglnk.s:13841  .debug_str:00000000000008fe .LASF83
C:\Users\stapi\AppData\Local\Temp\ccbUglnk.s:2712   .text.freq_range_list_str:0000000000000000 .LFB100
C:\Users\stapi\AppData\Local\Temp\ccbUglnk.s:2888   .text.freq_range_list_str:00000000000000b0 .LFE100
C:\Users\stapi\AppData\Local\Temp\ccbUglnk.s:13869  .debug_str:00000000000009a8 .LASF84
C:\Users\stapi\AppData\Local\Temp\ccbUglnk.s:10606  .debug_loc:0000000000000ac6 .LLST132
C:\Users\stapi\AppData\Local\Temp\ccbUglnk.s:10628  .debug_loc:0000000000000afd .LLST133
C:\Users\stapi\AppData\Local\Temp\ccbUglnk.s:13695  .debug_str:00000000000004f9 .LASF85
C:\Users\stapi\AppData\Local\Temp\ccbUglnk.s:10639  .debug_loc:0000000000000b1b .LLST134
C:\Users\stapi\AppData\Local\Temp\ccbUglnk.s:10646  .debug_loc:0000000000000b2e .LLST135
C:\Users\stapi\AppData\Local\Temp\ccbUglnk.s:10658  .debug_loc:0000000000000b4d .LLST136
C:\Users\stapi\AppData\Local\Temp\ccbUglnk.s:10669  .debug_loc:0000000000000b6b .LLST137
C:\Users\stapi\AppData\Local\Temp\ccbUglnk.s:2844   .text.freq_range_list_str:0000000000000080 .LBB39
C:\Users\stapi\AppData\Local\Temp\ccbUglnk.s:2852   .text.freq_range_list_str:0000000000000088 .LBE39
C:\Users\stapi\AppData\Local\Temp\ccbUglnk.s:10700  .debug_loc:0000000000000ba4 .LLST138
C:\Users\stapi\AppData\Local\Temp\ccbUglnk.s:10707  .debug_loc:0000000000000bb7 .LLST139
C:\Users\stapi\AppData\Local\Temp\ccbUglnk.s:2841   .text.freq_range_list_str:0000000000000080 .LVL329
C:\Users\stapi\AppData\Local\Temp\ccbUglnk.s:2876   .text.freq_range_list_str:00000000000000a2 .LVL334
C:\Users\stapi\AppData\Local\Temp\ccbUglnk.s:2884   .text.freq_range_list_str:00000000000000ae .LVL337
C:\Users\stapi\AppData\Local\Temp\ccbUglnk.s:2776   .text.freq_range_list_str:000000000000002a .LVL321
C:\Users\stapi\AppData\Local\Temp\ccbUglnk.s:13745  .debug_str:00000000000005e3 .LASF86
C:\Users\stapi\AppData\Local\Temp\ccbUglnk.s:2644   .text.freq_range_list_includes:0000000000000000 .LFB99
C:\Users\stapi\AppData\Local\Temp\ccbUglnk.s:2692   .text.freq_range_list_includes:0000000000000028 .LFE99
C:\Users\stapi\AppData\Local\Temp\ccbUglnk.s:10719  .debug_loc:0000000000000bcf .LLST130
C:\Users\stapi\AppData\Local\Temp\ccbUglnk.s:13589  .debug_str:000000000000018b .LASF87
C:\Users\stapi\AppData\Local\Temp\ccbUglnk.s:10744  .debug_loc:0000000000000c09 .LLST131
C:\Users\stapi\AppData\Local\Temp\ccbUglnk.s:13755  .debug_str:0000000000000630 .LASF88
C:\Users\stapi\AppData\Local\Temp\ccbUglnk.s:2460   .text.freq_range_list_parse:0000000000000000 .LFB98
C:\Users\stapi\AppData\Local\Temp\ccbUglnk.s:2637   .text.freq_range_list_parse:00000000000000bc .LFE98
C:\Users\stapi\AppData\Local\Temp\ccbUglnk.s:10755  .debug_loc:0000000000000c27 .LLST119
C:\Users\stapi\AppData\Local\Temp\ccbUglnk.s:13645  .debug_str:00000000000002e9 .LASF89
C:\Users\stapi\AppData\Local\Temp\ccbUglnk.s:10766  .debug_loc:0000000000000c45 .LLST120
C:\Users\stapi\AppData\Local\Temp\ccbUglnk.s:10780  .debug_loc:0000000000000c66 .LLST121
C:\Users\stapi\AppData\Local\Temp\ccbUglnk.s:10800  .debug_loc:0000000000000c9b .LLST122
C:\Users\stapi\AppData\Local\Temp\ccbUglnk.s:13721  .debug_str:0000000000000571 .LASF90
C:\Users\stapi\AppData\Local\Temp\ccbUglnk.s:10811  .debug_loc:0000000000000cb9 .LLST123
C:\Users\stapi\AppData\Local\Temp\ccbUglnk.s:10833  .debug_loc:0000000000000cf0 .LLST124
C:\Users\stapi\AppData\Local\Temp\ccbUglnk.s:13643  .debug_str:00000000000002e4 .LASF91
C:\Users\stapi\AppData\Local\Temp\ccbUglnk.s:10848  .debug_loc:0000000000000d19 .LLST125
C:\Users\stapi\AppData\Local\Temp\ccbUglnk.s:13715  .debug_str:000000000000054f .LASF92
C:\Users\stapi\AppData\Local\Temp\ccbUglnk.s:10879  .debug_loc:0000000000000d67 .LLST126
C:\Users\stapi\AppData\Local\Temp\ccbUglnk.s:2546   .text.freq_range_list_parse:000000000000004c .LBB36
C:\Users\stapi\AppData\Local\Temp\ccbUglnk.s:2561   .text.freq_range_list_parse:0000000000000064 .LBE36
C:\Users\stapi\AppData\Local\Temp\ccbUglnk.s:10890  .debug_loc:0000000000000d85 .LLST127
C:\Users\stapi\AppData\Local\Temp\ccbUglnk.s:10898  .debug_loc:0000000000000d99 .LLST128
C:\Users\stapi\AppData\Local\Temp\ccbUglnk.s:10905  .debug_loc:0000000000000dac .LLST129
C:\Users\stapi\AppData\Local\Temp\ccbUglnk.s:2557   .text.freq_range_list_parse:0000000000000062 .LVL293
C:\Users\stapi\AppData\Local\Temp\ccbUglnk.s:2501   .text.freq_range_list_parse:0000000000000026 .LVL288
C:\Users\stapi\AppData\Local\Temp\ccbUglnk.s:2522   .text.freq_range_list_parse:0000000000000040 .LVL290
C:\Users\stapi\AppData\Local\Temp\ccbUglnk.s:2575   .text.freq_range_list_parse:0000000000000072 .LVL297
C:\Users\stapi\AppData\Local\Temp\ccbUglnk.s:2585   .text.freq_range_list_parse:0000000000000084 .LVL298
C:\Users\stapi\AppData\Local\Temp\ccbUglnk.s:2594   .text.freq_range_list_parse:0000000000000094 .LVL301
C:\Users\stapi\AppData\Local\Temp\ccbUglnk.s:2612   .text.freq_range_list_parse:00000000000000ac .LVL305
C:\Users\stapi\AppData\Local\Temp\ccbUglnk.s:13737  .debug_str:00000000000005c3 .LASF93
C:\Users\stapi\AppData\Local\Temp\ccbUglnk.s:2178   .text.dup_binstr:0000000000000000 .LFB97
C:\Users\stapi\AppData\Local\Temp\ccbUglnk.s:2232   .text.dup_binstr:000000000000003c .LFE97
C:\Users\stapi\AppData\Local\Temp\ccbUglnk.s:10912  .debug_loc:0000000000000dbf .LLST108
C:\Users\stapi\AppData\Local\Temp\ccbUglnk.s:10930  .debug_loc:0000000000000deb .LLST109
C:\Users\stapi\AppData\Local\Temp\ccbUglnk.s:10952  .debug_loc:0000000000000e22 .LLST110
C:\Users\stapi\AppData\Local\Temp\ccbUglnk.s:2202   .text.dup_binstr:000000000000001c .LVL248
C:\Users\stapi\AppData\Local\Temp\ccbUglnk.s:2216   .text.dup_binstr:000000000000002e .LVL251
C:\Users\stapi\AppData\Local\Temp\ccbUglnk.s:13795  .debug_str:00000000000007c7 .LASF94
C:\Users\stapi\AppData\Local\Temp\ccbUglnk.s:2059   .text.merge_byte_arrays:0000000000000000 .LFB96
C:\Users\stapi\AppData\Local\Temp\ccbUglnk.s:2171   .text.merge_byte_arrays:000000000000007e .LFE96
C:\Users\stapi\AppData\Local\Temp\ccbUglnk.s:10959  .debug_loc:0000000000000e35 .LLST101
C:\Users\stapi\AppData\Local\Temp\ccbUglnk.s:13679  .debug_str:0000000000000493 .LASF95
C:\Users\stapi\AppData\Local\Temp\ccbUglnk.s:10970  .debug_loc:0000000000000e53 .LLST102
C:\Users\stapi\AppData\Local\Temp\ccbUglnk.s:13861  .debug_str:000000000000098a .LASF96
C:\Users\stapi\AppData\Local\Temp\ccbUglnk.s:10981  .debug_loc:0000000000000e71 .LLST103
C:\Users\stapi\AppData\Local\Temp\ccbUglnk.s:13699  .debug_str:0000000000000508 .LASF97
C:\Users\stapi\AppData\Local\Temp\ccbUglnk.s:10992  .debug_loc:0000000000000e8f .LLST104
C:\Users\stapi\AppData\Local\Temp\ccbUglnk.s:13759  .debug_str:0000000000000659 .LASF98
C:\Users\stapi\AppData\Local\Temp\ccbUglnk.s:11032  .debug_loc:0000000000000eed .LLST105
C:\Users\stapi\AppData\Local\Temp\ccbUglnk.s:13673  .debug_str:000000000000047b .LASF99
C:\Users\stapi\AppData\Local\Temp\ccbUglnk.s:11043  .debug_loc:0000000000000f0b .LLST106
C:\Users\stapi\AppData\Local\Temp\ccbUglnk.s:11054  .debug_loc:0000000000000f29 .LLST107
C:\Users\stapi\AppData\Local\Temp\ccbUglnk.s:2090   .text.merge_byte_arrays:0000000000000020 .LVL233
C:\Users\stapi\AppData\Local\Temp\ccbUglnk.s:2105   .text.merge_byte_arrays:0000000000000036 .LVL235
C:\Users\stapi\AppData\Local\Temp\ccbUglnk.s:2130   .text.merge_byte_arrays:0000000000000050 .LVL237
C:\Users\stapi\AppData\Local\Temp\ccbUglnk.s:2164   .text.merge_byte_arrays:000000000000007a .LVL244
C:\Users\stapi\AppData\Local\Temp\ccbUglnk.s:13733  .debug_str:000000000000059e .LASF100
C:\Users\stapi\AppData\Local\Temp\ccbUglnk.s:2014   .text.has_newline:0000000000000000 .LFB95
C:\Users\stapi\AppData\Local\Temp\ccbUglnk.s:2052   .text.has_newline:000000000000001e .LFE95
C:\Users\stapi\AppData\Local\Temp\ccbUglnk.s:11088  .debug_loc:0000000000000f81 .LLST100
C:\Users\stapi\AppData\Local\Temp\ccbUglnk.s:13681  .debug_str:000000000000049b .LASF101
C:\Users\stapi\AppData\Local\Temp\ccbUglnk.s:1964   .text.has_ctrl_char:0000000000000000 .LFB94
C:\Users\stapi\AppData\Local\Temp\ccbUglnk.s:2007   .text.has_ctrl_char:0000000000000028 .LFE94
C:\Users\stapi\AppData\Local\Temp\ccbUglnk.s:13623  .debug_str:0000000000000262 .LASF102
C:\Users\stapi\AppData\Local\Temp\ccbUglnk.s:11099  .debug_loc:0000000000000f9f .LLST98
C:\Users\stapi\AppData\Local\Temp\ccbUglnk.s:11124  .debug_loc:0000000000000fd9 .LLST99
C:\Users\stapi\AppData\Local\Temp\ccbUglnk.s:13557  .debug_str:0000000000000050 .LASF103
C:\Users\stapi\AppData\Local\Temp\ccbUglnk.s:1915   .text.is_hex:0000000000000000 .LFB93
C:\Users\stapi\AppData\Local\Temp\ccbUglnk.s:1957   .text.is_hex:0000000000000028 .LFE93
C:\Users\stapi\AppData\Local\Temp\ccbUglnk.s:11136  .debug_loc:0000000000000ff8 .LLST96
C:\Users\stapi\AppData\Local\Temp\ccbUglnk.s:11161  .debug_loc:0000000000001032 .LLST97
C:\Users\stapi\AppData\Local\Temp\ccbUglnk.s:13857  .debug_str:000000000000096a .LASF104
C:\Users\stapi\AppData\Local\Temp\ccbUglnk.s:2239   .text.wpa_config_parse_string:0000000000000000 .LFB92
C:\Users\stapi\AppData\Local\Temp\ccbUglnk.s:2453   .text.wpa_config_parse_string:0000000000000110 .LFE92
C:\Users\stapi\AppData\Local\Temp\ccbUglnk.s:11173  .debug_loc:0000000000001051 .LLST111
C:\Users\stapi\AppData\Local\Temp\ccbUglnk.s:11201  .debug_loc:0000000000001095 .LLST112
C:\Users\stapi\AppData\Local\Temp\ccbUglnk.s:11228  .debug_loc:00000000000010df .LLST113
C:\Users\stapi\AppData\Local\Temp\ccbUglnk.s:2273   .text.wpa_config_parse_string:000000000000002a .LVL256
C:\Users\stapi\AppData\Local\Temp\ccbUglnk.s:2302   .text.wpa_config_parse_string:0000000000000048 .LVL260
C:\Users\stapi\AppData\Local\Temp\ccbUglnk.s:2328   .text.wpa_config_parse_string:0000000000000064 .LBB32
C:\Users\stapi\AppData\Local\Temp\ccbUglnk.s:2398   .text.wpa_config_parse_string:00000000000000c2 .LBE32
C:\Users\stapi\AppData\Local\Temp\ccbUglnk.s:11239  .debug_loc:00000000000010fd .LLST115
C:\Users\stapi\AppData\Local\Temp\ccbUglnk.s:13781  .debug_str:00000000000006da .LASF106
C:\Users\stapi\AppData\Local\Temp\ccbUglnk.s:11246  .debug_loc:0000000000001110 .LLST116
C:\Users\stapi\AppData\Local\Temp\ccbUglnk.s:11257  .debug_loc:000000000000112e .LLST117
C:\Users\stapi\AppData\Local\Temp\ccbUglnk.s:13817  .debug_str:0000000000000857 .LASF107
C:\Users\stapi\AppData\Local\Temp\ccbUglnk.s:11264  .debug_loc:0000000000001141 .LLST118
C:\Users\stapi\AppData\Local\Temp\ccbUglnk.s:2342   .text.wpa_config_parse_string:0000000000000076 .LVL265
C:\Users\stapi\AppData\Local\Temp\ccbUglnk.s:2359   .text.wpa_config_parse_string:000000000000008e .LVL268
C:\Users\stapi\AppData\Local\Temp\ccbUglnk.s:2372   .text.wpa_config_parse_string:00000000000000a0 .LVL272
C:\Users\stapi\AppData\Local\Temp\ccbUglnk.s:2382   .text.wpa_config_parse_string:00000000000000ae .LVL274
C:\Users\stapi\AppData\Local\Temp\ccbUglnk.s:2392   .text.wpa_config_parse_string:00000000000000bc .LVL275
C:\Users\stapi\AppData\Local\Temp\ccbUglnk.s:13547  .debug_str:0000000000000016 .LASF108
C:\Users\stapi\AppData\Local\Temp\ccbUglnk.s:11277  .debug_loc:0000000000001161 .LLST114
C:\Users\stapi\AppData\Local\Temp\ccbUglnk.s:2405   .text.wpa_config_parse_string:00000000000000cc .LVL277
C:\Users\stapi\AppData\Local\Temp\ccbUglnk.s:2420   .text.wpa_config_parse_string:00000000000000e2 .LVL280
C:\Users\stapi\AppData\Local\Temp\ccbUglnk.s:2432   .text.wpa_config_parse_string:00000000000000f4 .LVL282
C:\Users\stapi\AppData\Local\Temp\ccbUglnk.s:2438   .text.wpa_config_parse_string:0000000000000100 .LVL283
C:\Users\stapi\AppData\Local\Temp\ccbUglnk.s:13735  .debug_str:00000000000005aa .LASF109
C:\Users\stapi\AppData\Local\Temp\ccbUglnk.s:1900   .text.__hide_aliasing_typecast:0000000000000000 .LFB91
C:\Users\stapi\AppData\Local\Temp\ccbUglnk.s:1908   .text.__hide_aliasing_typecast:0000000000000002 .LFE91
C:\Users\stapi\AppData\Local\Temp\ccbUglnk.s:13787  .debug_str:0000000000000710 .LASF110
C:\Users\stapi\AppData\Local\Temp\ccbUglnk.s:1851   .text.wpa_ssid_txt:0000000000000000 .LFB90
C:\Users\stapi\AppData\Local\Temp\ccbUglnk.s:1893   .text.wpa_ssid_txt:0000000000000034 .LFE90
C:\Users\stapi\AppData\Local\Temp\ccbUglnk.s:11284  .debug_loc:0000000000001174 .LLST94
C:\Users\stapi\AppData\Local\Temp\ccbUglnk.s:11313  .debug_loc:00000000000011b9 .LLST95
C:\Users\stapi\AppData\Local\Temp\ccbUglnk.s:13703  .debug_str:000000000000051a .LASF111
C:\Users\stapi\AppData\Local\Temp\ccbUglnk.s:1888   .text.wpa_ssid_txt:0000000000000032 .LVL210
C:\Users\stapi\AppData\Local\Temp\ccbUglnk.s:13559  .debug_str:0000000000000057 .LASF112
C:\Users\stapi\AppData\Local\Temp\ccbUglnk.s:1566   .text.printf_decode:0000000000000000 .LFB89
C:\Users\stapi\AppData\Local\Temp\ccbUglnk.s:1844   .text.printf_decode:0000000000000152 .LFE89
C:\Users\stapi\AppData\Local\Temp\ccbUglnk.s:11342  .debug_loc:00000000000011fe .LLST88
C:\Users\stapi\AppData\Local\Temp\ccbUglnk.s:11353  .debug_loc:000000000000121c .LLST89
C:\Users\stapi\AppData\Local\Temp\ccbUglnk.s:11364  .debug_loc:000000000000123a .LLST90
C:\Users\stapi\AppData\Local\Temp\ccbUglnk.s:11378  .debug_loc:000000000000125b .LLST91
C:\Users\stapi\AppData\Local\Temp\ccbUglnk.s:11443  .debug_loc:00000000000012f5 .LLST92
C:\Users\stapi\AppData\Local\Temp\ccbUglnk.s:11483  .debug_loc:0000000000001361 .LLST93
C:\Users\stapi\AppData\Local\Temp\ccbUglnk.s:1789   .text.printf_decode:0000000000000110 .LVL194
C:\Users\stapi\AppData\Local\Temp\ccbUglnk.s:1798   .text.printf_decode:0000000000000120 .LVL196
C:\Users\stapi\AppData\Local\Temp\ccbUglnk.s:13583  .debug_str:0000000000000163 .LASF113
C:\Users\stapi\AppData\Local\Temp\ccbUglnk.s:1361   .text.printf_encode:0000000000000000 .LFB88
C:\Users\stapi\AppData\Local\Temp\ccbUglnk.s:1559   .text.printf_encode:00000000000000da .LFE88
C:\Users\stapi\AppData\Local\Temp\ccbUglnk.s:11547  .debug_loc:00000000000013d7 .LLST83
C:\Users\stapi\AppData\Local\Temp\ccbUglnk.s:11648  .debug_loc:00000000000014bf .LLST84
C:\Users\stapi\AppData\Local\Temp\ccbUglnk.s:11662  .debug_loc:00000000000014e0 .LLST85
C:\Users\stapi\AppData\Local\Temp\ccbUglnk.s:11676  .debug_loc:0000000000001501 .LLST86
C:\Users\stapi\AppData\Local\Temp\ccbUglnk.s:11690  .debug_loc:0000000000001522 .LLST87
C:\Users\stapi\AppData\Local\Temp\ccbUglnk.s:1553   .text.printf_encode:00000000000000d6 .LVL171
C:\Users\stapi\AppData\Local\Temp\ccbUglnk.s:13635  .debug_str:00000000000002a1 .LASF114
C:\Users\stapi\AppData\Local\Temp\ccbUglnk.s:1340   .text.wpa_snprintf_hex_uppercase:0000000000000000 .LFB87
C:\Users\stapi\AppData\Local\Temp\ccbUglnk.s:1350   .text.wpa_snprintf_hex_uppercase:000000000000000a .LFE87
C:\Users\stapi\AppData\Local\Temp\ccbUglnk.s:11730  .debug_loc:000000000000156b .LLST79
C:\Users\stapi\AppData\Local\Temp\ccbUglnk.s:13713  .debug_str:0000000000000546 .LASF115
C:\Users\stapi\AppData\Local\Temp\ccbUglnk.s:11744  .debug_loc:000000000000158c .LLST80
C:\Users\stapi\AppData\Local\Temp\ccbUglnk.s:11758  .debug_loc:00000000000015ad .LLST81
C:\Users\stapi\AppData\Local\Temp\ccbUglnk.s:11772  .debug_loc:00000000000015ce .LLST82
C:\Users\stapi\AppData\Local\Temp\ccbUglnk.s:1348   .text.wpa_snprintf_hex_uppercase:000000000000000a .LVL148
C:\Users\stapi\AppData\Local\Temp\ccbUglnk.s:13649  .debug_str:00000000000002f8 .LASF116
C:\Users\stapi\AppData\Local\Temp\ccbUglnk.s:1323   .text.wpa_snprintf_hex:0000000000000000 .LFB86
C:\Users\stapi\AppData\Local\Temp\ccbUglnk.s:1333   .text.wpa_snprintf_hex:000000000000000a .LFE86
C:\Users\stapi\AppData\Local\Temp\ccbUglnk.s:11786  .debug_loc:00000000000015ef .LLST75
C:\Users\stapi\AppData\Local\Temp\ccbUglnk.s:11800  .debug_loc:0000000000001610 .LLST76
C:\Users\stapi\AppData\Local\Temp\ccbUglnk.s:11814  .debug_loc:0000000000001631 .LLST77
C:\Users\stapi\AppData\Local\Temp\ccbUglnk.s:11828  .debug_loc:0000000000001652 .LLST78
C:\Users\stapi\AppData\Local\Temp\ccbUglnk.s:1331   .text.wpa_snprintf_hex:000000000000000a .LVL146
C:\Users\stapi\AppData\Local\Temp\ccbUglnk.s:13873  .debug_str:00000000000009bb .LASF118
C:\Users\stapi\AppData\Local\Temp\ccbUglnk.s:121    .text._wpa_snprintf_hex:0000000000000000 .LFB85
C:\Users\stapi\AppData\Local\Temp\ccbUglnk.s:233    .text._wpa_snprintf_hex:0000000000000068 .LFE85
C:\Users\stapi\AppData\Local\Temp\ccbUglnk.s:11842  .debug_loc:0000000000001673 .LLST2
C:\Users\stapi\AppData\Local\Temp\ccbUglnk.s:11872  .debug_loc:00000000000016c0 .LLST3
C:\Users\stapi\AppData\Local\Temp\ccbUglnk.s:11901  .debug_loc:0000000000001705 .LLST4
C:\Users\stapi\AppData\Local\Temp\ccbUglnk.s:11930  .debug_loc:000000000000174a .LLST5
C:\Users\stapi\AppData\Local\Temp\ccbUglnk.s:13625  .debug_str:0000000000000267 .LASF119
C:\Users\stapi\AppData\Local\Temp\ccbUglnk.s:11959  .debug_loc:000000000000178f .LLST6
C:\Users\stapi\AppData\Local\Temp\ccbUglnk.s:11988  .debug_loc:00000000000017d4 .LLST7
C:\Users\stapi\AppData\Local\Temp\ccbUglnk.s:12032  .debug_loc:0000000000001821 .LLST8
C:\Users\stapi\AppData\Local\Temp\ccbUglnk.s:12062  .debug_loc:000000000000186e .LLST9
C:\Users\stapi\AppData\Local\Temp\ccbUglnk.s:12122  .debug_loc:00000000000018d9 .LLST10
C:\Users\stapi\AppData\Local\Temp\ccbUglnk.s:198    .text._wpa_snprintf_hex:0000000000000056 .LBB11
C:\Users\stapi\AppData\Local\Temp\ccbUglnk.s:209    .text._wpa_snprintf_hex:0000000000000060 .LBE11
C:\Users\stapi\AppData\Local\Temp\ccbUglnk.s:12129  .debug_loc:00000000000018ec .LLST11
C:\Users\stapi\AppData\Local\Temp\ccbUglnk.s:12136  .debug_loc:00000000000018ff .LLST12
C:\Users\stapi\AppData\Local\Temp\ccbUglnk.s:196    .text._wpa_snprintf_hex:0000000000000056 .LVL15
C:\Users\stapi\AppData\Local\Temp\ccbUglnk.s:13669  .debug_str:0000000000000459 .LASF120
C:\Users\stapi\AppData\Local\Temp\ccbUglnk.s:1213   .text.wpa_snprintf_hex_sep:0000000000000000 .LFB84
C:\Users\stapi\AppData\Local\Temp\ccbUglnk.s:1316   .text.wpa_snprintf_hex_sep:0000000000000064 .LFE84
C:\Users\stapi\AppData\Local\Temp\ccbUglnk.s:12143  .debug_loc:0000000000001912 .LLST64
C:\Users\stapi\AppData\Local\Temp\ccbUglnk.s:12165  .debug_loc:0000000000001949 .LLST65
C:\Users\stapi\AppData\Local\Temp\ccbUglnk.s:12183  .debug_loc:0000000000001975 .LLST66
C:\Users\stapi\AppData\Local\Temp\ccbUglnk.s:12201  .debug_loc:00000000000019a1 .LLST67
C:\Users\stapi\AppData\Local\Temp\ccbUglnk.s:12219  .debug_loc:00000000000019cd .LLST68
C:\Users\stapi\AppData\Local\Temp\ccbUglnk.s:12237  .debug_loc:00000000000019f9 .LLST69
C:\Users\stapi\AppData\Local\Temp\ccbUglnk.s:12271  .debug_loc:0000000000001a35 .LLST70
C:\Users\stapi\AppData\Local\Temp\ccbUglnk.s:12293  .debug_loc:0000000000001a6c .LLST71
C:\Users\stapi\AppData\Local\Temp\ccbUglnk.s:12334  .debug_loc:0000000000001ab6 .LLST72
C:\Users\stapi\AppData\Local\Temp\ccbUglnk.s:1268   .text.wpa_snprintf_hex_sep:0000000000000042 .LBB27
C:\Users\stapi\AppData\Local\Temp\ccbUglnk.s:1278   .text.wpa_snprintf_hex_sep:000000000000004c .LBE27
C:\Users\stapi\AppData\Local\Temp\ccbUglnk.s:12341  .debug_loc:0000000000001ac9 .LLST73
C:\Users\stapi\AppData\Local\Temp\ccbUglnk.s:12348  .debug_loc:0000000000001adc .LLST74
C:\Users\stapi\AppData\Local\Temp\ccbUglnk.s:1266   .text.wpa_snprintf_hex_sep:0000000000000042 .LVL137
C:\Users\stapi\AppData\Local\Temp\ccbUglnk.s:13871  .debug_str:00000000000009ad .LASF121
C:\Users\stapi\AppData\Local\Temp\ccbUglnk.s:1137   .text.wpa_scnprintf:0000000000000000 .LFB83
C:\Users\stapi\AppData\Local\Temp\ccbUglnk.s:1202   .text.wpa_scnprintf:000000000000003c .LFE83
C:\Users\stapi\AppData\Local\Temp\ccbUglnk.s:12355  .debug_loc:0000000000001aef .LLST60
C:\Users\stapi\AppData\Local\Temp\ccbUglnk.s:13675  .debug_str:0000000000000484 .LASF122
C:\Users\stapi\AppData\Local\Temp\ccbUglnk.s:12380  .debug_loc:0000000000001b29 .LLST61
C:\Users\stapi\AppData\Local\Temp\ccbUglnk.s:12402  .debug_loc:0000000000001b60 .LLST62
C:\Users\stapi\AppData\Local\Temp\ccbUglnk.s:12431  .debug_loc:0000000000001ba5 .LLST63
C:\Users\stapi\AppData\Local\Temp\ccbUglnk.s:1188   .text.wpa_scnprintf:000000000000002e .LVL133
C:\Users\stapi\AppData\Local\Temp\ccbUglnk.s:13545  .debug_str:0000000000000000 .LASF123
C:\Users\stapi\AppData\Local\Temp\ccbUglnk.s:1046   .text.wpa_get_ntp_timestamp:0000000000000000 .LFB82
C:\Users\stapi\AppData\Local\Temp\ccbUglnk.s:1130   .text.wpa_get_ntp_timestamp:000000000000006c .LFE82
C:\Users\stapi\AppData\Local\Temp\ccbUglnk.s:12438  .debug_loc:0000000000001bb8 .LLST57
C:\Users\stapi\AppData\Local\Temp\ccbUglnk.s:12449  .debug_loc:0000000000001bd6 .LLST58
C:\Users\stapi\AppData\Local\Temp\ccbUglnk.s:12462  .debug_loc:0000000000001bf2 .LLST59
C:\Users\stapi\AppData\Local\Temp\ccbUglnk.s:1068   .text.wpa_get_ntp_timestamp:0000000000000016 .LVL121
C:\Users\stapi\AppData\Local\Temp\ccbUglnk.s:1109   .text.wpa_get_ntp_timestamp:0000000000000050 .LVL127
C:\Users\stapi\AppData\Local\Temp\ccbUglnk.s:1120   .text.wpa_get_ntp_timestamp:0000000000000062 .LVL128
C:\Users\stapi\AppData\Local\Temp\ccbUglnk.s:13601  .debug_str:00000000000001cd .LASF124
C:\Users\stapi\AppData\Local\Temp\ccbUglnk.s:994    .text.buf_shift_right:0000000000000000 .LFB81
C:\Users\stapi\AppData\Local\Temp\ccbUglnk.s:1039   .text.buf_shift_right:0000000000000032 .LFE81
C:\Users\stapi\AppData\Local\Temp\ccbUglnk.s:12500  .debug_loc:0000000000001c3a .LLST54
C:\Users\stapi\AppData\Local\Temp\ccbUglnk.s:13603  .debug_str:00000000000001dd .LASF125
C:\Users\stapi\AppData\Local\Temp\ccbUglnk.s:12514  .debug_loc:0000000000001c5b .LLST55
C:\Users\stapi\AppData\Local\Temp\ccbUglnk.s:12532  .debug_loc:0000000000001c87 .LLST56
C:\Users\stapi\AppData\Local\Temp\ccbUglnk.s:13641  .debug_str:00000000000002d5 .LASF126
C:\Users\stapi\AppData\Local\Temp\ccbUglnk.s:962    .text.inc_byte_array:0000000000000000 .LFB80
C:\Users\stapi\AppData\Local\Temp\ccbUglnk.s:987    .text.inc_byte_array:000000000000001c .LFE80
C:\Users\stapi\AppData\Local\Temp\ccbUglnk.s:13769  .debug_str:0000000000000699 .LASF127
C:\Users\stapi\AppData\Local\Temp\ccbUglnk.s:12579  .debug_loc:0000000000001cde .LLST53
C:\Users\stapi\AppData\Local\Temp\ccbUglnk.s:13553  .debug_str:0000000000000039 .LASF128
C:\Users\stapi\AppData\Local\Temp\ccbUglnk.s:838    .text.hwaddr_mask_txt:0000000000000000 .LFB79
C:\Users\stapi\AppData\Local\Temp\ccbUglnk.s:955    .text.hwaddr_mask_txt:00000000000000ba .LFE79
C:\Users\stapi\AppData\Local\Temp\ccbUglnk.s:12593  .debug_loc:0000000000001cff .LLST44
C:\Users\stapi\AppData\Local\Temp\ccbUglnk.s:12618  .debug_loc:0000000000001d39 .LLST45
C:\Users\stapi\AppData\Local\Temp\ccbUglnk.s:12629  .debug_loc:0000000000001d57 .LLST46
C:\Users\stapi\AppData\Local\Temp\ccbUglnk.s:13631  .debug_str:0000000000000287 .LASF129
C:\Users\stapi\AppData\Local\Temp\ccbUglnk.s:12654  .debug_loc:0000000000001d91 .LLST47
C:\Users\stapi\AppData\Local\Temp\ccbUglnk.s:12679  .debug_loc:0000000000001dcb .LLST48
C:\Users\stapi\AppData\Local\Temp\ccbUglnk.s:13665  .debug_str:0000000000000445 .LASF130
C:\Users\stapi\AppData\Local\Temp\ccbUglnk.s:12695  .debug_loc:0000000000001df5 .LLST49
C:\Users\stapi\AppData\Local\Temp\ccbUglnk.s:12708  .debug_loc:0000000000001e15 .LLST50
C:\Users\stapi\AppData\Local\Temp\ccbUglnk.s:937    .text.hwaddr_mask_txt:00000000000000a8 .LBB21
C:\Users\stapi\AppData\Local\Temp\ccbUglnk.s:946    .text.hwaddr_mask_txt:00000000000000b0 .LBE21
C:\Users\stapi\AppData\Local\Temp\ccbUglnk.s:12719  .debug_loc:0000000000001e33 .LLST51
C:\Users\stapi\AppData\Local\Temp\ccbUglnk.s:12730  .debug_loc:0000000000001e51 .LLST52
C:\Users\stapi\AppData\Local\Temp\ccbUglnk.s:895    .text.hwaddr_mask_txt:0000000000000052 .LVL101
C:\Users\stapi\AppData\Local\Temp\ccbUglnk.s:934    .text.hwaddr_mask_txt:00000000000000a8 .LVL108
C:\Users\stapi\AppData\Local\Temp\ccbUglnk.s:13627  .debug_str:0000000000000271 .LASF131
C:\Users\stapi\AppData\Local\Temp\ccbUglnk.s:758    .text.hexstr2bin:0000000000000000 .LFB78
C:\Users\stapi\AppData\Local\Temp\ccbUglnk.s:824    .text.hexstr2bin:000000000000003a .LFE78
C:\Users\stapi\AppData\Local\Temp\ccbUglnk.s:12741  .debug_loc:0000000000001e6f .LLST38
C:\Users\stapi\AppData\Local\Temp\ccbUglnk.s:12755  .debug_loc:0000000000001e90 .LLST39
C:\Users\stapi\AppData\Local\Temp\ccbUglnk.s:12769  .debug_loc:0000000000001eb1 .LLST40
C:\Users\stapi\AppData\Local\Temp\ccbUglnk.s:12783  .debug_loc:0000000000001ed2 .LLST41
C:\Users\stapi\AppData\Local\Temp\ccbUglnk.s:13709  .debug_str:0000000000000537 .LASF132
C:\Users\stapi\AppData\Local\Temp\ccbUglnk.s:12790  .debug_loc:0000000000001ee5 .LLST42
C:\Users\stapi\AppData\Local\Temp\ccbUglnk.s:13829  .debug_str:00000000000008aa .LASF133
C:\Users\stapi\AppData\Local\Temp\ccbUglnk.s:12811  .debug_loc:0000000000001f1b .LLST43
C:\Users\stapi\AppData\Local\Temp\ccbUglnk.s:801    .text.hexstr2bin:0000000000000028 .LVL88
C:\Users\stapi\AppData\Local\Temp\ccbUglnk.s:13607  .debug_str:00000000000001eb .LASF134
C:\Users\stapi\AppData\Local\Temp\ccbUglnk.s:625    .text.hwaddr_aton2:0000000000000000 .LFB77
C:\Users\stapi\AppData\Local\Temp\ccbUglnk.s:751    .text.hwaddr_aton2:0000000000000076 .LFE77
C:\Users\stapi\AppData\Local\Temp\ccbUglnk.s:12822  .debug_loc:0000000000001f39 .LLST32
C:\Users\stapi\AppData\Local\Temp\ccbUglnk.s:12833  .debug_loc:0000000000001f57 .LLST33
C:\Users\stapi\AppData\Local\Temp\ccbUglnk.s:12878  .debug_loc:0000000000001fac .LLST34
C:\Users\stapi\AppData\Local\Temp\ccbUglnk.s:12890  .debug_loc:0000000000001fcb .LLST35
C:\Users\stapi\AppData\Local\Temp\ccbUglnk.s:12915  .debug_loc:000000000000200c .LLST36
C:\Users\stapi\AppData\Local\Temp\ccbUglnk.s:12926  .debug_loc:000000000000202a .LLST37
C:\Users\stapi\AppData\Local\Temp\ccbUglnk.s:687    .text.hwaddr_aton2:000000000000003a .LVL76
C:\Users\stapi\AppData\Local\Temp\ccbUglnk.s:700    .text.hwaddr_aton2:0000000000000050 .LVL79
C:\Users\stapi\AppData\Local\Temp\ccbUglnk.s:13881  .debug_str:00000000000009f6 .LASF135
C:\Users\stapi\AppData\Local\Temp\ccbUglnk.s:529    .text.hwaddr_compact_aton:0000000000000000 .LFB76
C:\Users\stapi\AppData\Local\Temp\ccbUglnk.s:618    .text.hwaddr_compact_aton:0000000000000054 .LFE76
C:\Users\stapi\AppData\Local\Temp\ccbUglnk.s:12933  .debug_loc:000000000000203d .LLST27
C:\Users\stapi\AppData\Local\Temp\ccbUglnk.s:12950  .debug_loc:0000000000002068 .LLST28
C:\Users\stapi\AppData\Local\Temp\ccbUglnk.s:12995  .debug_loc:00000000000020bd .LLST29
C:\Users\stapi\AppData\Local\Temp\ccbUglnk.s:13007  .debug_loc:00000000000020dc .LLST30
C:\Users\stapi\AppData\Local\Temp\ccbUglnk.s:13018  .debug_loc:00000000000020fa .LLST31
C:\Users\stapi\AppData\Local\Temp\ccbUglnk.s:560    .text.hwaddr_compact_aton:000000000000001c .LVL61
C:\Users\stapi\AppData\Local\Temp\ccbUglnk.s:572    .text.hwaddr_compact_aton:0000000000000030 .LVL64
C:\Users\stapi\AppData\Local\Temp\ccbUglnk.s:13691  .debug_str:00000000000004d8 .LASF136
C:\Users\stapi\AppData\Local\Temp\ccbUglnk.s:438    .text.hwaddr_masked_aton:0000000000000000 .LFB75
C:\Users\stapi\AppData\Local\Temp\ccbUglnk.s:522    .text.hwaddr_masked_aton:0000000000000076 .LFE75
C:\Users\stapi\AppData\Local\Temp\ccbUglnk.s:13025  .debug_loc:000000000000210d .LLST22
C:\Users\stapi\AppData\Local\Temp\ccbUglnk.s:13039  .debug_loc:000000000000212e .LLST23
C:\Users\stapi\AppData\Local\Temp\ccbUglnk.s:13053  .debug_loc:000000000000214f .LLST24
C:\Users\stapi\AppData\Local\Temp\ccbUglnk.s:13597  .debug_str:00000000000001b5 .LASF137
C:\Users\stapi\AppData\Local\Temp\ccbUglnk.s:13064  .debug_loc:000000000000216d .LLST25
C:\Users\stapi\AppData\Local\Temp\ccbUglnk.s:13078  .debug_loc:000000000000218e .LLST26
C:\Users\stapi\AppData\Local\Temp\ccbUglnk.s:454    .text.hwaddr_masked_aton:0000000000000014 .LVL49
C:\Users\stapi\AppData\Local\Temp\ccbUglnk.s:480    .text.hwaddr_masked_aton:0000000000000044 .LVL51
C:\Users\stapi\AppData\Local\Temp\ccbUglnk.s:508    .text.hwaddr_masked_aton:0000000000000068 .LVL54
C:\Users\stapi\AppData\Local\Temp\ccbUglnk.s:13813  .debug_str:0000000000000843 .LASF138
C:\Users\stapi\AppData\Local\Temp\ccbUglnk.s:412    .text.hwaddr_aton:0000000000000000 .LFB74
C:\Users\stapi\AppData\Local\Temp\ccbUglnk.s:431    .text.hwaddr_aton:0000000000000020 .LFE74
C:\Users\stapi\AppData\Local\Temp\ccbUglnk.s:13105  .debug_loc:00000000000021d8 .LLST20
C:\Users\stapi\AppData\Local\Temp\ccbUglnk.s:13119  .debug_loc:00000000000021f9 .LLST21
C:\Users\stapi\AppData\Local\Temp\ccbUglnk.s:422    .text.hwaddr_aton:0000000000000010 .LVL47
C:\Users\stapi\AppData\Local\Temp\ccbUglnk.s:13855  .debug_str:000000000000095d .LASF139
C:\Users\stapi\AppData\Local\Temp\ccbUglnk.s:307    .text.hwaddr_parse:0000000000000000 .LFB73
C:\Users\stapi\AppData\Local\Temp\ccbUglnk.s:405    .text.hwaddr_parse:0000000000000056 .LFE73
C:\Users\stapi\AppData\Local\Temp\ccbUglnk.s:13133  .debug_loc:000000000000221a .LLST16
C:\Users\stapi\AppData\Local\Temp\ccbUglnk.s:13164  .debug_loc:0000000000002268 .LLST17
C:\Users\stapi\AppData\Local\Temp\ccbUglnk.s:13175  .debug_loc:0000000000002286 .LLST18
C:\Users\stapi\AppData\Local\Temp\ccbUglnk.s:13187  .debug_loc:00000000000022a5 .LLST19
C:\Users\stapi\AppData\Local\Temp\ccbUglnk.s:345    .text.hwaddr_parse:0000000000000020 .LVL37
C:\Users\stapi\AppData\Local\Temp\ccbUglnk.s:13667  .debug_str:0000000000000450 .LASF140
C:\Users\stapi\AppData\Local\Temp\ccbUglnk.s:240    .text.hex2byte:0000000000000000 .LFB72
C:\Users\stapi\AppData\Local\Temp\ccbUglnk.s:301    .text.hex2byte:0000000000000042 .LFE72
C:\Users\stapi\AppData\Local\Temp\ccbUglnk.s:13198  .debug_loc:00000000000022c3 .LLST13
C:\Users\stapi\AppData\Local\Temp\ccbUglnk.s:13229  .debug_loc:000000000000230a .LLST14
C:\Users\stapi\AppData\Local\Temp\ccbUglnk.s:13244  .debug_loc:0000000000002333 .LLST15
C:\Users\stapi\AppData\Local\Temp\ccbUglnk.s:258    .text.hex2byte:0000000000000016 .LVL24
C:\Users\stapi\AppData\Local\Temp\ccbUglnk.s:269    .text.hex2byte:0000000000000028 .LVL27
C:\Users\stapi\AppData\Local\Temp\ccbUglnk.s:13707  .debug_str:000000000000052f .LASF141
C:\Users\stapi\AppData\Local\Temp\ccbUglnk.s:13     .text.hex2num:0000000000000000 .LFB71
C:\Users\stapi\AppData\Local\Temp\ccbUglnk.s:68     .text.hex2num:0000000000000046 .LFE71
C:\Users\stapi\AppData\Local\Temp\ccbUglnk.s:13255  .debug_loc:0000000000002351 .LLST0
C:\Users\stapi\AppData\Local\Temp\ccbUglnk.s:13647  .debug_str:00000000000002ef .LASF142
C:\Users\stapi\AppData\Local\Temp\ccbUglnk.s:13775  .debug_str:00000000000006b3 .LASF143
C:\Users\stapi\AppData\Local\Temp\ccbUglnk.s:13831  .debug_str:00000000000008af .LASF144
C:\Users\stapi\AppData\Local\Temp\ccbUglnk.s:13823  .debug_str:0000000000000876 .LASF145
C:\Users\stapi\AppData\Local\Temp\ccbUglnk.s:13739  .debug_str:00000000000005ce .LASF146
C:\Users\stapi\AppData\Local\Temp\ccbUglnk.s:13833  .debug_str:00000000000008b5 .LASF147
C:\Users\stapi\AppData\Local\Temp\ccbUglnk.s:13843  .debug_str:0000000000000912 .LASF148
C:\Users\stapi\AppData\Local\Temp\ccbUglnk.s:13727  .debug_str:0000000000000586 .LASF149
C:\Users\stapi\AppData\Local\Temp\ccbUglnk.s:13639  .debug_str:00000000000002cb .LASF150
C:\Users\stapi\AppData\Local\Temp\ccbUglnk.s:13819  .debug_str:000000000000085c .LASF151
C:\Users\stapi\AppData\Local\Temp\ccbUglnk.s:13689  .debug_str:00000000000004ce .LASF152
C:\Users\stapi\AppData\Local\Temp\ccbUglnk.s:13653  .debug_str:0000000000000318 .LASF153
C:\Users\stapi\AppData\Local\Temp\ccbUglnk.s:13717  .debug_str:0000000000000554 .LASF154
C:\Users\stapi\AppData\Local\Temp\ccbUglnk.s:13567  .debug_str:0000000000000080 .LASF155
C:\Users\stapi\AppData\Local\Temp\ccbUglnk.s:13591  .debug_str:0000000000000190 .LASF156
C:\Users\stapi\AppData\Local\Temp\ccbUglnk.s:13875  .debug_str:00000000000009cd .LASF157
C:\Users\stapi\AppData\Local\Temp\ccbUglnk.s:13761  .debug_str:000000000000065e .LASF158
C:\Users\stapi\AppData\Local\Temp\ccbUglnk.s:13677  .debug_str:0000000000000489 .LASF159
C:\Users\stapi\AppData\Local\Temp\ccbUglnk.s:13779  .debug_str:00000000000006cf .LASF160
C:\Users\stapi\AppData\Local\Temp\ccbUglnk.s:13803  .debug_str:00000000000007fc .LASF161
C:\Users\stapi\AppData\Local\Temp\ccbUglnk.s:13771  .debug_str:00000000000006a1 .LASF162
C:\Users\stapi\AppData\Local\Temp\ccbUglnk.s:4156   .text.forced_memzero:0000000000000000 .LVL486
C:\Users\stapi\AppData\Local\Temp\ccbUglnk.s:4164   .text.forced_memzero:000000000000000c .LVL487
C:\Users\stapi\AppData\Local\Temp\ccbUglnk.s:4062   .text.get_param:0000000000000000 .LVL471
C:\Users\stapi\AppData\Local\Temp\ccbUglnk.s:4100   .text.get_param:0000000000000036 .LVL477
C:\Users\stapi\AppData\Local\Temp\ccbUglnk.s:4079   .text.get_param:0000000000000014 .LVL473
C:\Users\stapi\AppData\Local\Temp\ccbUglnk.s:4090   .text.get_param:0000000000000024 .LVL475
C:\Users\stapi\AppData\Local\Temp\ccbUglnk.s:4135   .text.get_param:0000000000000066 .LVL485
C:\Users\stapi\AppData\Local\Temp\ccbUglnk.s:4106   .text.get_param:000000000000003a .LVL478
C:\Users\stapi\AppData\Local\Temp\ccbUglnk.s:4118   .text.get_param:0000000000000052 .LVL482
C:\Users\stapi\AppData\Local\Temp\ccbUglnk.s:4110   .text.get_param:0000000000000044 .LVL480
C:\Users\stapi\AppData\Local\Temp\ccbUglnk.s:4127   .text.get_param:000000000000005a .LVL483
C:\Users\stapi\AppData\Local\Temp\ccbUglnk.s:4017   .text.rssi_to_rcpi:0000000000000000 .LVL467
C:\Users\stapi\AppData\Local\Temp\ccbUglnk.s:4028   .text.rssi_to_rcpi:000000000000000a .LVL468
C:\Users\stapi\AppData\Local\Temp\ccbUglnk.s:4043   .text.rssi_to_rcpi:0000000000000022 .LVL469
C:\Users\stapi\AppData\Local\Temp\ccbUglnk.s:4047   .text.rssi_to_rcpi:0000000000000026 .LVL470
C:\Users\stapi\AppData\Local\Temp\ccbUglnk.s:3975   .text.str_starts:0000000000000000 .LVL462
C:\Users\stapi\AppData\Local\Temp\ccbUglnk.s:3988   .text.str_starts:000000000000000e .LVL463
C:\Users\stapi\AppData\Local\Temp\ccbUglnk.s:4001   .text.str_starts:000000000000002c .LVL466
C:\Users\stapi\AppData\Local\Temp\ccbUglnk.s:3840   .text.ssid_parse:0000000000000000 .LVL446
C:\Users\stapi\AppData\Local\Temp\ccbUglnk.s:3924   .text.ssid_parse:0000000000000080 .LVL456
C:\Users\stapi\AppData\Local\Temp\ccbUglnk.s:3936   .text.ssid_parse:000000000000008a .LVL457
C:\Users\stapi\AppData\Local\Temp\ccbUglnk.s:3958   .text.ssid_parse:00000000000000a8 .LVL461
C:\Users\stapi\AppData\Local\Temp\ccbUglnk.s:3891   .text.ssid_parse:0000000000000048 .LVL451
C:\Users\stapi\AppData\Local\Temp\ccbUglnk.s:3907   .text.ssid_parse:000000000000005a .LVL452
C:\Users\stapi\AppData\Local\Temp\ccbUglnk.s:3887   .text.ssid_parse:000000000000003e .LVL449
C:\Users\stapi\AppData\Local\Temp\ccbUglnk.s:3950   .text.ssid_parse:000000000000009c .LVL459
C:\Users\stapi\AppData\Local\Temp\ccbUglnk.s:3820   .text.is_ctrl_char:0000000000000000 .LVL444
C:\Users\stapi\AppData\Local\Temp\ccbUglnk.s:3824   .text.is_ctrl_char:0000000000000002 .LVL445
C:\Users\stapi\AppData\Local\Temp\ccbUglnk.s:3691   .text.utf8_escape:0000000000000000 .LVL429
C:\Users\stapi\AppData\Local\Temp\ccbUglnk.s:3698   .text.utf8_escape:0000000000000004 .LVL430
C:\Users\stapi\AppData\Local\Temp\ccbUglnk.s:3701   .text.utf8_escape:0000000000000006 .LVL431
C:\Users\stapi\AppData\Local\Temp\ccbUglnk.s:3718   .text.utf8_escape:0000000000000010 .LVL432
C:\Users\stapi\AppData\Local\Temp\ccbUglnk.s:3736   .text.utf8_escape:0000000000000022 .LVL434
C:\Users\stapi\AppData\Local\Temp\ccbUglnk.s:3742   .text.utf8_escape:000000000000002c .LVL436
C:\Users\stapi\AppData\Local\Temp\ccbUglnk.s:3730   .text.utf8_escape:000000000000001c .LVL433
C:\Users\stapi\AppData\Local\Temp\ccbUglnk.s:3784   .text.utf8_escape:0000000000000060 .LVL440
C:\Users\stapi\AppData\Local\Temp\ccbUglnk.s:3791   .text.utf8_escape:0000000000000068 .LVL441
C:\Users\stapi\AppData\Local\Temp\ccbUglnk.s:3796   .text.utf8_escape:000000000000006a .LVL442
C:\Users\stapi\AppData\Local\Temp\ccbUglnk.s:3806   .text.utf8_escape:0000000000000076 .LVL443
C:\Users\stapi\AppData\Local\Temp\ccbUglnk.s:3751   .text.utf8_escape:0000000000000038 .LVL437
C:\Users\stapi\AppData\Local\Temp\ccbUglnk.s:3767   .text.utf8_escape:000000000000004a .LVL438
C:\Users\stapi\AppData\Local\Temp\ccbUglnk.s:3780   .text.utf8_escape:000000000000005c .LVL439
C:\Users\stapi\AppData\Local\Temp\ccbUglnk.s:3529   .text.utf8_unescape:0000000000000000 .LVL405
C:\Users\stapi\AppData\Local\Temp\ccbUglnk.s:3539   .text.utf8_unescape:0000000000000006 .LVL407
C:\Users\stapi\AppData\Local\Temp\ccbUglnk.s:3541   .text.utf8_unescape:0000000000000008 .LVL408
C:\Users\stapi\AppData\Local\Temp\ccbUglnk.s:3559   .text.utf8_unescape:0000000000000014 .LVL409
C:\Users\stapi\AppData\Local\Temp\ccbUglnk.s:3577   .text.utf8_unescape:0000000000000026 .LVL411
C:\Users\stapi\AppData\Local\Temp\ccbUglnk.s:3617   .text.utf8_unescape:0000000000000056 .LVL419
C:\Users\stapi\AppData\Local\Temp\ccbUglnk.s:3626   .text.utf8_unescape:0000000000000060 .LVL420
C:\Users\stapi\AppData\Local\Temp\ccbUglnk.s:3643   .text.utf8_unescape:0000000000000074 .LVL422
C:\Users\stapi\AppData\Local\Temp\ccbUglnk.s:3655   .text.utf8_unescape:0000000000000080 .LVL425
C:\Users\stapi\AppData\Local\Temp\ccbUglnk.s:3536   .text.utf8_unescape:0000000000000004 .LVL406
C:\Users\stapi\AppData\Local\Temp\ccbUglnk.s:3583   .text.utf8_unescape:0000000000000030 .LVL413
C:\Users\stapi\AppData\Local\Temp\ccbUglnk.s:3607   .text.utf8_unescape:000000000000004a .LVL416
C:\Users\stapi\AppData\Local\Temp\ccbUglnk.s:3631   .text.utf8_unescape:0000000000000064 .LVL421
C:\Users\stapi\AppData\Local\Temp\ccbUglnk.s:3571   .text.utf8_unescape:0000000000000020 .LVL410
C:\Users\stapi\AppData\Local\Temp\ccbUglnk.s:3610   .text.utf8_unescape:000000000000004e .LVL417
C:\Users\stapi\AppData\Local\Temp\ccbUglnk.s:3613   .text.utf8_unescape:0000000000000052 .LVL418
C:\Users\stapi\AppData\Local\Temp\ccbUglnk.s:3648   .text.utf8_unescape:000000000000007a .LVL423
C:\Users\stapi\AppData\Local\Temp\ccbUglnk.s:3659   .text.utf8_unescape:0000000000000084 .LVL426
C:\Users\stapi\AppData\Local\Temp\ccbUglnk.s:3652   .text.utf8_unescape:000000000000007e .LVL424
C:\Users\stapi\AppData\Local\Temp\ccbUglnk.s:3486   .text.str_token:0000000000000000 .LVL403
C:\Users\stapi\AppData\Local\Temp\ccbUglnk.s:3374   .text.cstr_token:0000000000000000 .LVL389
C:\Users\stapi\AppData\Local\Temp\ccbUglnk.s:3387   .text.cstr_token:000000000000000a .LVL391
C:\Users\stapi\AppData\Local\Temp\ccbUglnk.s:3402   .text.cstr_token:0000000000000016 .LVL392
C:\Users\stapi\AppData\Local\Temp\ccbUglnk.s:3418   .text.cstr_token:0000000000000024 .LVL394
C:\Users\stapi\AppData\Local\Temp\ccbUglnk.s:3420   .text.cstr_token:0000000000000026 .LVL395
C:\Users\stapi\AppData\Local\Temp\ccbUglnk.s:3411   .text.cstr_token:000000000000001e .LVL393
C:\Users\stapi\AppData\Local\Temp\ccbUglnk.s:3440   .text.cstr_token:0000000000000042 .LVL397
C:\Users\stapi\AppData\Local\Temp\ccbUglnk.s:3455   .text.cstr_token:000000000000004e .LVL398
C:\Users\stapi\AppData\Local\Temp\ccbUglnk.s:3462   .text.cstr_token:0000000000000052 .LVL400
C:\Users\stapi\AppData\Local\Temp\ccbUglnk.s:3383   .text.cstr_token:0000000000000008 .LVL390
C:\Users\stapi\AppData\Local\Temp\ccbUglnk.s:3323   .text.random_mac_addr_keep_oui:0000000000000000 .LVL386
C:\Users\stapi\AppData\Local\Temp\ccbUglnk.s:3334   .text.random_mac_addr_keep_oui:000000000000000e .LVL387
C:\Users\stapi\AppData\Local\Temp\ccbUglnk.s:3273   .text.random_mac_addr:0000000000000000 .LVL384
C:\Users\stapi\AppData\Local\Temp\ccbUglnk.s:4225   .text.bin_clear_free:0000000000000000 .LVL496
C:\Users\stapi\AppData\Local\Temp\ccbUglnk.s:4247   .text.bin_clear_free:0000000000000026 .LVL499
C:\Users\stapi\AppData\Local\Temp\ccbUglnk.s:4179   .text.str_clear_free:0000000000000000 .LVL489
C:\Users\stapi\AppData\Local\Temp\ccbUglnk.s:4211   .text.str_clear_free:0000000000000032 .LVL495
C:\Users\stapi\AppData\Local\Temp\ccbUglnk.s:4195   .text.str_clear_free:0000000000000016 .LVL491
C:\Users\stapi\AppData\Local\Temp\ccbUglnk.s:4198   .text.str_clear_free:0000000000000018 .LVL492
C:\Users\stapi\AppData\Local\Temp\ccbUglnk.s:3159   .text.int_array_add_unique:0000000000000000 .LVL370
C:\Users\stapi\AppData\Local\Temp\ccbUglnk.s:3174   .text.int_array_add_unique:000000000000000c .LVL372
C:\Users\stapi\AppData\Local\Temp\ccbUglnk.s:3202   .text.int_array_add_unique:0000000000000022 .LVL376
C:\Users\stapi\AppData\Local\Temp\ccbUglnk.s:3224   .text.int_array_add_unique:0000000000000038 .LVL379
C:\Users\stapi\AppData\Local\Temp\ccbUglnk.s:3243   .text.int_array_add_unique:0000000000000046 .LVL382
C:\Users\stapi\AppData\Local\Temp\ccbUglnk.s:3169   .text.int_array_add_unique:0000000000000008 .LVL371
C:\Users\stapi\AppData\Local\Temp\ccbUglnk.s:3179   .text.int_array_add_unique:0000000000000010 .LVL373
C:\Users\stapi\AppData\Local\Temp\ccbUglnk.s:3196   .text.int_array_add_unique:000000000000001c .LVL375
C:\Users\stapi\AppData\Local\Temp\ccbUglnk.s:3235   .text.int_array_add_unique:0000000000000040 .LVL381
C:\Users\stapi\AppData\Local\Temp\ccbUglnk.s:3191   .text.int_array_add_unique:000000000000001a .LVL374
C:\Users\stapi\AppData\Local\Temp\ccbUglnk.s:3214   .text.int_array_add_unique:0000000000000030 .LVL378
C:\Users\stapi\AppData\Local\Temp\ccbUglnk.s:3066   .text.int_array_sort_unique:0000000000000000 .LVL359
C:\Users\stapi\AppData\Local\Temp\ccbUglnk.s:3142   .text.int_array_sort_unique:000000000000005a .LVL369
C:\Users\stapi\AppData\Local\Temp\ccbUglnk.s:3085   .text.int_array_sort_unique:000000000000001a .LVL361
C:\Users\stapi\AppData\Local\Temp\ccbUglnk.s:3090   .text.int_array_sort_unique:0000000000000022 .LVL362
C:\Users\stapi\AppData\Local\Temp\ccbUglnk.s:3099   .text.int_array_sort_unique:0000000000000030 .LVL364
C:\Users\stapi\AppData\Local\Temp\ccbUglnk.s:3120   .text.int_array_sort_unique:0000000000000042 .LVL366
C:\Users\stapi\AppData\Local\Temp\ccbUglnk.s:3128   .text.int_array_sort_unique:000000000000004e .LVL367
C:\Users\stapi\AppData\Local\Temp\ccbUglnk.s:77     .text.freq_cmp:0000000000000000 .LVL4
C:\Users\stapi\AppData\Local\Temp\ccbUglnk.s:92     .text.freq_cmp:0000000000000008 .LVL7
C:\Users\stapi\AppData\Local\Temp\ccbUglnk.s:99     .text.freq_cmp:0000000000000010 .LVL8
C:\Users\stapi\AppData\Local\Temp\ccbUglnk.s:103    .text.freq_cmp:0000000000000012 .LVL9
C:\Users\stapi\AppData\Local\Temp\ccbUglnk.s:2936   .text.int_array_concat:0000000000000000 .LVL341
C:\Users\stapi\AppData\Local\Temp\ccbUglnk.s:2956   .text.int_array_concat:0000000000000012 .LVL342
C:\Users\stapi\AppData\Local\Temp\ccbUglnk.s:2960   .text.int_array_concat:000000000000001c .LVL344
C:\Users\stapi\AppData\Local\Temp\ccbUglnk.s:2983   .text.int_array_concat:000000000000003c .LVL348
C:\Users\stapi\AppData\Local\Temp\ccbUglnk.s:2996   .text.int_array_concat:0000000000000044 .LVL349
C:\Users\stapi\AppData\Local\Temp\ccbUglnk.s:3034   .text.int_array_concat:000000000000006a .LVL356
C:\Users\stapi\AppData\Local\Temp\ccbUglnk.s:2974   .text.int_array_concat:0000000000000030 .LVL346
C:\Users\stapi\AppData\Local\Temp\ccbUglnk.s:3015   .text.int_array_concat:0000000000000056 .LVL352
C:\Users\stapi\AppData\Local\Temp\ccbUglnk.s:3042   .text.int_array_concat:0000000000000072 .LVL357
C:\Users\stapi\AppData\Local\Temp\ccbUglnk.s:3046   .text.int_array_concat:0000000000000074 .LVL358
C:\Users\stapi\AppData\Local\Temp\ccbUglnk.s:3026   .text.int_array_concat:0000000000000062 .LVL354
C:\Users\stapi\AppData\Local\Temp\ccbUglnk.s:3031   .text.int_array_concat:0000000000000066 .LVL355
C:\Users\stapi\AppData\Local\Temp\ccbUglnk.s:3006   .text.int_array_concat:0000000000000050 .LVL350
C:\Users\stapi\AppData\Local\Temp\ccbUglnk.s:3013   .text.int_array_concat:0000000000000054 .LVL351
C:\Users\stapi\AppData\Local\Temp\ccbUglnk.s:2898   .text.int_array_len:0000000000000000 .LVL338
C:\Users\stapi\AppData\Local\Temp\ccbUglnk.s:2905   .text.int_array_len:0000000000000004 .LVL339
C:\Users\stapi\AppData\Local\Temp\ccbUglnk.s:2715   .text.freq_range_list_str:0000000000000000 .LVL316
C:\Users\stapi\AppData\Local\Temp\ccbUglnk.s:2738   .text.freq_range_list_str:000000000000000c .LVL317
C:\Users\stapi\AppData\Local\Temp\ccbUglnk.s:2762   .text.freq_range_list_str:0000000000000018 .LVL318
C:\Users\stapi\AppData\Local\Temp\ccbUglnk.s:2774   .text.freq_range_list_str:0000000000000022 .LVL320
C:\Users\stapi\AppData\Local\Temp\ccbUglnk.s:2783   .text.freq_range_list_str:000000000000002e .LVL323
C:\Users\stapi\AppData\Local\Temp\ccbUglnk.s:2805   .text.freq_range_list_str:000000000000004e .LVL326
C:\Users\stapi\AppData\Local\Temp\ccbUglnk.s:2770   .text.freq_range_list_str:0000000000000020 .LVL319
C:\Users\stapi\AppData\Local\Temp\ccbUglnk.s:2797   .text.freq_range_list_str:000000000000003e .LVL325
C:\Users\stapi\AppData\Local\Temp\ccbUglnk.s:2792   .text.freq_range_list_str:000000000000003a .LVL324
C:\Users\stapi\AppData\Local\Temp\ccbUglnk.s:2863   .text.freq_range_list_str:000000000000008e .LVL333
C:\Users\stapi\AppData\Local\Temp\ccbUglnk.s:2882   .text.freq_range_list_str:00000000000000a6 .LVL336
C:\Users\stapi\AppData\Local\Temp\ccbUglnk.s:2822   .text.freq_range_list_str:0000000000000064 .LVL327
C:\Users\stapi\AppData\Local\Temp\ccbUglnk.s:2828   .text.freq_range_list_str:0000000000000068 .LVL328
C:\Users\stapi\AppData\Local\Temp\ccbUglnk.s:2850   .text.freq_range_list_str:0000000000000088 .LVL330
C:\Users\stapi\AppData\Local\Temp\ccbUglnk.s:2647   .text.freq_range_list_includes:0000000000000000 .LVL309
C:\Users\stapi\AppData\Local\Temp\ccbUglnk.s:2665   .text.freq_range_list_includes:000000000000000c .LVL312
C:\Users\stapi\AppData\Local\Temp\ccbUglnk.s:2667   .text.freq_range_list_includes:000000000000000e .LVL313
C:\Users\stapi\AppData\Local\Temp\ccbUglnk.s:2688   .text.freq_range_list_includes:0000000000000026 .LVL315
C:\Users\stapi\AppData\Local\Temp\ccbUglnk.s:2657   .text.freq_range_list_includes:0000000000000006 .LVL310
C:\Users\stapi\AppData\Local\Temp\ccbUglnk.s:2661   .text.freq_range_list_includes:000000000000000a .LVL311
C:\Users\stapi\AppData\Local\Temp\ccbUglnk.s:2463   .text.freq_range_list_parse:0000000000000000 .LVL284
C:\Users\stapi\AppData\Local\Temp\ccbUglnk.s:2490   .text.freq_range_list_parse:0000000000000012 .LVL287
C:\Users\stapi\AppData\Local\Temp\ccbUglnk.s:2475   .text.freq_range_list_parse:0000000000000008 .LVL285
C:\Users\stapi\AppData\Local\Temp\ccbUglnk.s:2566   .text.freq_range_list_parse:0000000000000066 .LVL295
C:\Users\stapi\AppData\Local\Temp\ccbUglnk.s:2570   .text.freq_range_list_parse:0000000000000068 .LVL296
C:\Users\stapi\AppData\Local\Temp\ccbUglnk.s:2559   .text.freq_range_list_parse:0000000000000064 .LVL294
C:\Users\stapi\AppData\Local\Temp\ccbUglnk.s:2517   .text.freq_range_list_parse:0000000000000036 .LVL289
C:\Users\stapi\AppData\Local\Temp\ccbUglnk.s:2539   .text.freq_range_list_parse:000000000000004a .LVL291
C:\Users\stapi\AppData\Local\Temp\ccbUglnk.s:2545   .text.freq_range_list_parse:000000000000004c .LVL292
C:\Users\stapi\AppData\Local\Temp\ccbUglnk.s:2482   .text.freq_range_list_parse:000000000000000c .LVL286
C:\Users\stapi\AppData\Local\Temp\ccbUglnk.s:2596   .text.freq_range_list_parse:0000000000000096 .LVL302
C:\Users\stapi\AppData\Local\Temp\ccbUglnk.s:2615   .text.freq_range_list_parse:00000000000000ae .LVL306
C:\Users\stapi\AppData\Local\Temp\ccbUglnk.s:2629   .text.freq_range_list_parse:00000000000000b6 .LVL308
C:\Users\stapi\AppData\Local\Temp\ccbUglnk.s:2587   .text.freq_range_list_parse:0000000000000086 .LVL299
C:\Users\stapi\AppData\Local\Temp\ccbUglnk.s:2592   .text.freq_range_list_parse:000000000000008c .LVL300
C:\Users\stapi\AppData\Local\Temp\ccbUglnk.s:2606   .text.freq_range_list_parse:00000000000000a0 .LVL303
C:\Users\stapi\AppData\Local\Temp\ccbUglnk.s:2610   .text.freq_range_list_parse:00000000000000a4 .LVL304
C:\Users\stapi\AppData\Local\Temp\ccbUglnk.s:2624   .text.freq_range_list_parse:00000000000000b2 .LVL307
C:\Users\stapi\AppData\Local\Temp\ccbUglnk.s:2181   .text.dup_binstr:0000000000000000 .LVL246
C:\Users\stapi\AppData\Local\Temp\ccbUglnk.s:2197   .text.dup_binstr:0000000000000012 .LVL247
C:\Users\stapi\AppData\Local\Temp\ccbUglnk.s:2221   .text.dup_binstr:0000000000000032 .LVL252
C:\Users\stapi\AppData\Local\Temp\ccbUglnk.s:2213   .text.dup_binstr:0000000000000026 .LVL250
C:\Users\stapi\AppData\Local\Temp\ccbUglnk.s:2204   .text.dup_binstr:000000000000001e .LVL249
C:\Users\stapi\AppData\Local\Temp\ccbUglnk.s:2062   .text.merge_byte_arrays:0000000000000000 .LVL229
C:\Users\stapi\AppData\Local\Temp\ccbUglnk.s:2082   .text.merge_byte_arrays:0000000000000010 .LVL232
C:\Users\stapi\AppData\Local\Temp\ccbUglnk.s:2080   .text.merge_byte_arrays:000000000000000e .LVL231
C:\Users\stapi\AppData\Local\Temp\ccbUglnk.s:2101   .text.merge_byte_arrays:000000000000002e .LVL234
C:\Users\stapi\AppData\Local\Temp\ccbUglnk.s:2122   .text.merge_byte_arrays:0000000000000042 .LVL236
C:\Users\stapi\AppData\Local\Temp\ccbUglnk.s:2142   .text.merge_byte_arrays:000000000000005a .LVL239
C:\Users\stapi\AppData\Local\Temp\ccbUglnk.s:2152   .text.merge_byte_arrays:000000000000006a .LVL241
C:\Users\stapi\AppData\Local\Temp\ccbUglnk.s:2157   .text.merge_byte_arrays:000000000000006e .LVL242
C:\Users\stapi\AppData\Local\Temp\ccbUglnk.s:2073   .text.merge_byte_arrays:0000000000000008 .LVL230
C:\Users\stapi\AppData\Local\Temp\ccbUglnk.s:2134   .text.merge_byte_arrays:0000000000000052 .LVL238
C:\Users\stapi\AppData\Local\Temp\ccbUglnk.s:2149   .text.merge_byte_arrays:0000000000000066 .LVL240
C:\Users\stapi\AppData\Local\Temp\ccbUglnk.s:2161   .text.merge_byte_arrays:0000000000000070 .LVL243
C:\Users\stapi\AppData\Local\Temp\ccbUglnk.s:2168   .text.merge_byte_arrays:000000000000007c .LVL245
C:\Users\stapi\AppData\Local\Temp\ccbUglnk.s:2017   .text.has_newline:0000000000000000 .LVL224
C:\Users\stapi\AppData\Local\Temp\ccbUglnk.s:2031   .text.has_newline:000000000000000c .LVL225
C:\Users\stapi\AppData\Local\Temp\ccbUglnk.s:2033   .text.has_newline:000000000000000e .LVL226
C:\Users\stapi\AppData\Local\Temp\ccbUglnk.s:2048   .text.has_newline:000000000000001c .LVL228
C:\Users\stapi\AppData\Local\Temp\ccbUglnk.s:1967   .text.has_ctrl_char:0000000000000000 .LVL218
C:\Users\stapi\AppData\Local\Temp\ccbUglnk.s:1983   .text.has_ctrl_char:000000000000000e .LVL220
C:\Users\stapi\AppData\Local\Temp\ccbUglnk.s:1985   .text.has_ctrl_char:0000000000000010 .LVL221
C:\Users\stapi\AppData\Local\Temp\ccbUglnk.s:2003   .text.has_ctrl_char:0000000000000026 .LVL223
C:\Users\stapi\AppData\Local\Temp\ccbUglnk.s:1976   .text.has_ctrl_char:0000000000000008 .LVL219
C:\Users\stapi\AppData\Local\Temp\ccbUglnk.s:1918   .text.is_hex:0000000000000000 .LVL212
C:\Users\stapi\AppData\Local\Temp\ccbUglnk.s:1932   .text.is_hex:000000000000000c .LVL214
C:\Users\stapi\AppData\Local\Temp\ccbUglnk.s:1934   .text.is_hex:000000000000000e .LVL215
C:\Users\stapi\AppData\Local\Temp\ccbUglnk.s:1953   .text.is_hex:0000000000000026 .LVL217
C:\Users\stapi\AppData\Local\Temp\ccbUglnk.s:1925   .text.is_hex:0000000000000006 .LVL213
C:\Users\stapi\AppData\Local\Temp\ccbUglnk.s:2242   .text.wpa_config_parse_string:0000000000000000 .LVL253
C:\Users\stapi\AppData\Local\Temp\ccbUglnk.s:2266   .text.wpa_config_parse_string:000000000000001c .LVL254
C:\Users\stapi\AppData\Local\Temp\ccbUglnk.s:2304   .text.wpa_config_parse_string:000000000000004a .LVL261
C:\Users\stapi\AppData\Local\Temp\ccbUglnk.s:2318   .text.wpa_config_parse_string:0000000000000054 .LVL262
C:\Users\stapi\AppData\Local\Temp\ccbUglnk.s:2368   .text.wpa_config_parse_string:0000000000000096 .LVL270
C:\Users\stapi\AppData\Local\Temp\ccbUglnk.s:2396   .text.wpa_config_parse_string:00000000000000c2 .LVL276
C:\Users\stapi\AppData\Local\Temp\ccbUglnk.s:2270   .text.wpa_config_parse_string:0000000000000020 .LVL255
C:\Users\stapi\AppData\Local\Temp\ccbUglnk.s:2339   .text.wpa_config_parse_string:000000000000006c .LVL264
C:\Users\stapi\AppData\Local\Temp\ccbUglnk.s:2277   .text.wpa_config_parse_string:000000000000002c .LVL257
C:\Users\stapi\AppData\Local\Temp\ccbUglnk.s:2285   .text.wpa_config_parse_string:0000000000000030 .LVL258
C:\Users\stapi\AppData\Local\Temp\ccbUglnk.s:2300   .text.wpa_config_parse_string:0000000000000040 .LVL259
C:\Users\stapi\AppData\Local\Temp\ccbUglnk.s:2357   .text.wpa_config_parse_string:0000000000000086 .LVL267
C:\Users\stapi\AppData\Local\Temp\ccbUglnk.s:2361   .text.wpa_config_parse_string:0000000000000090 .LVL269
C:\Users\stapi\AppData\Local\Temp\ccbUglnk.s:2370   .text.wpa_config_parse_string:0000000000000098 .LVL271
C:\Users\stapi\AppData\Local\Temp\ccbUglnk.s:2374   .text.wpa_config_parse_string:00000000000000a2 .LVL273
C:\Users\stapi\AppData\Local\Temp\ccbUglnk.s:2352   .text.wpa_config_parse_string:0000000000000082 .LVL266
C:\Users\stapi\AppData\Local\Temp\ccbUglnk.s:2418   .text.wpa_config_parse_string:00000000000000da .LVL279
C:\Users\stapi\AppData\Local\Temp\ccbUglnk.s:1854   .text.wpa_ssid_txt:0000000000000000 .LVL205
C:\Users\stapi\AppData\Local\Temp\ccbUglnk.s:1868   .text.wpa_ssid_txt:0000000000000012 .LVL206
C:\Users\stapi\AppData\Local\Temp\ccbUglnk.s:1877   .text.wpa_ssid_txt:000000000000001e .LVL207
C:\Users\stapi\AppData\Local\Temp\ccbUglnk.s:1884   .text.wpa_ssid_txt:0000000000000026 .LVL208
C:\Users\stapi\AppData\Local\Temp\ccbUglnk.s:1886   .text.wpa_ssid_txt:000000000000002a .LVL209
C:\Users\stapi\AppData\Local\Temp\ccbUglnk.s:1569   .text.printf_decode:0000000000000000 .LVL173
C:\Users\stapi\AppData\Local\Temp\ccbUglnk.s:1605   .text.printf_decode:0000000000000024 .LVL175
C:\Users\stapi\AppData\Local\Temp\ccbUglnk.s:1589   .text.printf_decode:000000000000000c .LVL174
C:\Users\stapi\AppData\Local\Temp\ccbUglnk.s:1653   .text.printf_decode:0000000000000050 .LVL176
C:\Users\stapi\AppData\Local\Temp\ccbUglnk.s:1666   .text.printf_decode:0000000000000074 .LVL177
C:\Users\stapi\AppData\Local\Temp\ccbUglnk.s:1681   .text.printf_decode:000000000000008a .LVL179
C:\Users\stapi\AppData\Local\Temp\ccbUglnk.s:1707   .text.printf_decode:00000000000000ac .LVL182
C:\Users\stapi\AppData\Local\Temp\ccbUglnk.s:1710   .text.printf_decode:00000000000000b0 .LVL183
C:\Users\stapi\AppData\Local\Temp\ccbUglnk.s:1715   .text.printf_decode:00000000000000b4 .LVL184
C:\Users\stapi\AppData\Local\Temp\ccbUglnk.s:1740   .text.printf_decode:00000000000000dc .LVL187
C:\Users\stapi\AppData\Local\Temp\ccbUglnk.s:1747   .text.printf_decode:00000000000000e2 .LVL188
C:\Users\stapi\AppData\Local\Temp\ccbUglnk.s:1784   .text.printf_decode:0000000000000106 .LVL193
C:\Users\stapi\AppData\Local\Temp\ccbUglnk.s:1823   .text.printf_decode:000000000000013c .LVL201
C:\Users\stapi\AppData\Local\Temp\ccbUglnk.s:1830   .text.printf_decode:0000000000000144 .LVL202
C:\Users\stapi\AppData\Local\Temp\ccbUglnk.s:1835   .text.printf_decode:000000000000014a .LVL204
C:\Users\stapi\AppData\Local\Temp\ccbUglnk.s:1699   .text.printf_decode:00000000000000a4 .LVL181
C:\Users\stapi\AppData\Local\Temp\ccbUglnk.s:1724   .text.printf_decode:00000000000000cc .LVL185
C:\Users\stapi\AppData\Local\Temp\ccbUglnk.s:1779   .text.printf_decode:0000000000000102 .LVL192
C:\Users\stapi\AppData\Local\Temp\ccbUglnk.s:1803   .text.printf_decode:0000000000000124 .LVL197
C:\Users\stapi\AppData\Local\Temp\ccbUglnk.s:1675   .text.printf_decode:0000000000000082 .LVL178
C:\Users\stapi\AppData\Local\Temp\ccbUglnk.s:1796   .text.printf_decode:0000000000000118 .LVL195
C:\Users\stapi\AppData\Local\Temp\ccbUglnk.s:1833   .text.printf_decode:0000000000000148 .LVL203
C:\Users\stapi\AppData\Local\Temp\ccbUglnk.s:1364   .text.printf_encode:0000000000000000 .LVL149
C:\Users\stapi\AppData\Local\Temp\ccbUglnk.s:1405   .text.printf_encode:0000000000000030 .LVL151
C:\Users\stapi\AppData\Local\Temp\ccbUglnk.s:1457   .text.printf_encode:0000000000000070 .LVL152
C:\Users\stapi\AppData\Local\Temp\ccbUglnk.s:1462   .text.printf_encode:0000000000000076 .LVL153
C:\Users\stapi\AppData\Local\Temp\ccbUglnk.s:1469   .text.printf_encode:0000000000000080 .LVL154
C:\Users\stapi\AppData\Local\Temp\ccbUglnk.s:1473   .text.printf_encode:0000000000000084 .LVL155
C:\Users\stapi\AppData\Local\Temp\ccbUglnk.s:1478   .text.printf_encode:000000000000008a .LVL156
C:\Users\stapi\AppData\Local\Temp\ccbUglnk.s:1484   .text.printf_encode:000000000000008e .LVL157
C:\Users\stapi\AppData\Local\Temp\ccbUglnk.s:1488   .text.printf_encode:0000000000000092 .LVL158
C:\Users\stapi\AppData\Local\Temp\ccbUglnk.s:1494   .text.printf_encode:0000000000000094 .LVL159
C:\Users\stapi\AppData\Local\Temp\ccbUglnk.s:1501   .text.printf_encode:0000000000000098 .LVL161
C:\Users\stapi\AppData\Local\Temp\ccbUglnk.s:1505   .text.printf_encode:000000000000009c .LVL162
C:\Users\stapi\AppData\Local\Temp\ccbUglnk.s:1510   .text.printf_encode:00000000000000a2 .LVL163
C:\Users\stapi\AppData\Local\Temp\ccbUglnk.s:1516   .text.printf_encode:00000000000000a6 .LVL164
C:\Users\stapi\AppData\Local\Temp\ccbUglnk.s:1521   .text.printf_encode:00000000000000ac .LVL165
C:\Users\stapi\AppData\Local\Temp\ccbUglnk.s:1527   .text.printf_encode:00000000000000b0 .LVL166
C:\Users\stapi\AppData\Local\Temp\ccbUglnk.s:1530   .text.printf_encode:00000000000000b4 .LVL167
C:\Users\stapi\AppData\Local\Temp\ccbUglnk.s:1535   .text.printf_encode:00000000000000ba .LVL168
C:\Users\stapi\AppData\Local\Temp\ccbUglnk.s:1541   .text.printf_encode:00000000000000be .LVL169
C:\Users\stapi\AppData\Local\Temp\ccbUglnk.s:1545   .text.printf_encode:00000000000000c4 .LVL170
C:\Users\stapi\AppData\Local\Temp\ccbUglnk.s:1385   .text.printf_encode:000000000000000e .LVL150
C:\Users\stapi\AppData\Local\Temp\ccbUglnk.s:1497   .text.printf_encode:0000000000000096 .LVL160
C:\Users\stapi\AppData\Local\Temp\ccbUglnk.s:1343   .text.wpa_snprintf_hex_uppercase:0000000000000000 .LVL147
C:\Users\stapi\AppData\Local\Temp\ccbUglnk.s:1326   .text.wpa_snprintf_hex:0000000000000000 .LVL145
C:\Users\stapi\AppData\Local\Temp\ccbUglnk.s:124    .text._wpa_snprintf_hex:0000000000000000 .LVL10
C:\Users\stapi\AppData\Local\Temp\ccbUglnk.s:153    .text._wpa_snprintf_hex:0000000000000022 .LVL11
C:\Users\stapi\AppData\Local\Temp\ccbUglnk.s:178    .text._wpa_snprintf_hex:0000000000000036 .LVL13
C:\Users\stapi\AppData\Local\Temp\ccbUglnk.s:184    .text._wpa_snprintf_hex:0000000000000040 .LVL14
C:\Users\stapi\AppData\Local\Temp\ccbUglnk.s:216    .text._wpa_snprintf_hex:0000000000000064 .LVL19
C:\Users\stapi\AppData\Local\Temp\ccbUglnk.s:229    .text._wpa_snprintf_hex:0000000000000066 .LVL20
C:\Users\stapi\AppData\Local\Temp\ccbUglnk.s:158    .text._wpa_snprintf_hex:0000000000000026 .LVL12
C:\Users\stapi\AppData\Local\Temp\ccbUglnk.s:205    .text._wpa_snprintf_hex:000000000000005c .LVL16
C:\Users\stapi\AppData\Local\Temp\ccbUglnk.s:213    .text._wpa_snprintf_hex:0000000000000062 .LVL18
C:\Users\stapi\AppData\Local\Temp\ccbUglnk.s:207    .text._wpa_snprintf_hex:0000000000000060 .LVL17
C:\Users\stapi\AppData\Local\Temp\ccbUglnk.s:1216   .text.wpa_snprintf_hex_sep:0000000000000000 .LVL135
C:\Users\stapi\AppData\Local\Temp\ccbUglnk.s:1245   .text.wpa_snprintf_hex_sep:000000000000001e .LVL136
C:\Users\stapi\AppData\Local\Temp\ccbUglnk.s:1308   .text.wpa_snprintf_hex_sep:0000000000000060 .LVL143
C:\Users\stapi\AppData\Local\Temp\ccbUglnk.s:1312   .text.wpa_snprintf_hex_sep:0000000000000062 .LVL144
C:\Users\stapi\AppData\Local\Temp\ccbUglnk.s:1274   .text.wpa_snprintf_hex_sep:0000000000000048 .LVL138
C:\Users\stapi\AppData\Local\Temp\ccbUglnk.s:1282   .text.wpa_snprintf_hex_sep:000000000000004e .LVL140
C:\Users\stapi\AppData\Local\Temp\ccbUglnk.s:1285   .text.wpa_snprintf_hex_sep:0000000000000050 .LVL141
C:\Users\stapi\AppData\Local\Temp\ccbUglnk.s:1291   .text.wpa_snprintf_hex_sep:0000000000000054 .LVL142
C:\Users\stapi\AppData\Local\Temp\ccbUglnk.s:1276   .text.wpa_snprintf_hex_sep:000000000000004c .LVL139
C:\Users\stapi\AppData\Local\Temp\ccbUglnk.s:1140   .text.wpa_scnprintf:0000000000000000 .LVL129
C:\Users\stapi\AppData\Local\Temp\ccbUglnk.s:1159   .text.wpa_scnprintf:0000000000000012 .LVL130
C:\Users\stapi\AppData\Local\Temp\ccbUglnk.s:1173   .text.wpa_scnprintf:000000000000001c .LVL131
C:\Users\stapi\AppData\Local\Temp\ccbUglnk.s:1181   .text.wpa_scnprintf:0000000000000022 .LVL132
C:\Users\stapi\AppData\Local\Temp\ccbUglnk.s:1199   .text.wpa_scnprintf:000000000000003a .LVL134
C:\Users\stapi\AppData\Local\Temp\ccbUglnk.s:1049   .text.wpa_get_ntp_timestamp:0000000000000000 .LVL119
C:\Users\stapi\AppData\Local\Temp\ccbUglnk.s:1066   .text.wpa_get_ntp_timestamp:000000000000000e .LVL120
C:\Users\stapi\AppData\Local\Temp\ccbUglnk.s:1073   .text.wpa_get_ntp_timestamp:0000000000000018 .LVL122
C:\Users\stapi\AppData\Local\Temp\ccbUglnk.s:1083   .text.wpa_get_ntp_timestamp:0000000000000028 .LVL123
C:\Users\stapi\AppData\Local\Temp\ccbUglnk.s:1094   .text.wpa_get_ntp_timestamp:000000000000003a .LVL124
C:\Users\stapi\AppData\Local\Temp\ccbUglnk.s:1101   .text.wpa_get_ntp_timestamp:0000000000000040 .LVL125
C:\Users\stapi\AppData\Local\Temp\ccbUglnk.s:997    .text.buf_shift_right:0000000000000000 .LVL112
C:\Users\stapi\AppData\Local\Temp\ccbUglnk.s:1003   .text.buf_shift_right:0000000000000004 .LVL113
C:\Users\stapi\AppData\Local\Temp\ccbUglnk.s:1016   .text.buf_shift_right:0000000000000014 .LVL116
C:\Users\stapi\AppData\Local\Temp\ccbUglnk.s:1020   .text.buf_shift_right:000000000000001a .LVL117
C:\Users\stapi\AppData\Local\Temp\ccbUglnk.s:1005   .text.buf_shift_right:0000000000000006 .LVL114
C:\Users\stapi\AppData\Local\Temp\ccbUglnk.s:1010   .text.buf_shift_right:0000000000000008 .LVL115
C:\Users\stapi\AppData\Local\Temp\ccbUglnk.s:1036   .text.buf_shift_right:0000000000000030 .LVL118
C:\Users\stapi\AppData\Local\Temp\ccbUglnk.s:965    .text.inc_byte_array:0000000000000000 .LVL110
C:\Users\stapi\AppData\Local\Temp\ccbUglnk.s:841    .text.hwaddr_mask_txt:0000000000000000 .LVL93
C:\Users\stapi\AppData\Local\Temp\ccbUglnk.s:903    .text.hwaddr_mask_txt:0000000000000058 .LVL104
C:\Users\stapi\AppData\Local\Temp\ccbUglnk.s:860    .text.hwaddr_mask_txt:0000000000000012 .LVL95
C:\Users\stapi\AppData\Local\Temp\ccbUglnk.s:892    .text.hwaddr_mask_txt:0000000000000046 .LVL100
C:\Users\stapi\AppData\Local\Temp\ccbUglnk.s:931    .text.hwaddr_mask_txt:000000000000009c .LVL107
C:\Users\stapi\AppData\Local\Temp\ccbUglnk.s:890    .text.hwaddr_mask_txt:0000000000000042 .LVL99
C:\Users\stapi\AppData\Local\Temp\ccbUglnk.s:929    .text.hwaddr_mask_txt:0000000000000098 .LVL106
C:\Users\stapi\AppData\Local\Temp\ccbUglnk.s:848    .text.hwaddr_mask_txt:0000000000000008 .LVL94
C:\Users\stapi\AppData\Local\Temp\ccbUglnk.s:863    .text.hwaddr_mask_txt:0000000000000014 .LVL96
C:\Users\stapi\AppData\Local\Temp\ccbUglnk.s:882    .text.hwaddr_mask_txt:000000000000002a .LVL98
C:\Users\stapi\AppData\Local\Temp\ccbUglnk.s:909    .text.hwaddr_mask_txt:000000000000005c .LVL105
C:\Users\stapi\AppData\Local\Temp\ccbUglnk.s:897    .text.hwaddr_mask_txt:0000000000000054 .LVL102
C:\Users\stapi\AppData\Local\Temp\ccbUglnk.s:901    .text.hwaddr_mask_txt:0000000000000056 .LVL103
C:\Users\stapi\AppData\Local\Temp\ccbUglnk.s:943    .text.hwaddr_mask_txt:00000000000000b0 .LVL109
C:\Users\stapi\AppData\Local\Temp\ccbUglnk.s:761    .text.hexstr2bin:0000000000000000 .LVL85
C:\Users\stapi\AppData\Local\Temp\ccbUglnk.s:779    .text.hexstr2bin:0000000000000010 .LVL87
C:\Users\stapi\AppData\Local\Temp\ccbUglnk.s:821    .text.hexstr2bin:0000000000000038 .LVL92
C:\Users\stapi\AppData\Local\Temp\ccbUglnk.s:773    .text.hexstr2bin:000000000000000a .LVL86
C:\Users\stapi\AppData\Local\Temp\ccbUglnk.s:811    .text.hexstr2bin:0000000000000030 .LVL90
C:\Users\stapi\AppData\Local\Temp\ccbUglnk.s:815    .text.hexstr2bin:0000000000000034 .LVL91
C:\Users\stapi\AppData\Local\Temp\ccbUglnk.s:628    .text.hwaddr_aton2:0000000000000000 .LVL70
C:\Users\stapi\AppData\Local\Temp\ccbUglnk.s:661    .text.hwaddr_aton2:0000000000000018 .LVL72
C:\Users\stapi\AppData\Local\Temp\ccbUglnk.s:705    .text.hwaddr_aton2:0000000000000054 .LVL80
C:\Users\stapi\AppData\Local\Temp\ccbUglnk.s:719    .text.hwaddr_aton2:0000000000000062 .LVL82
C:\Users\stapi\AppData\Local\Temp\ccbUglnk.s:726    .text.hwaddr_aton2:000000000000006a .LVL83
C:\Users\stapi\AppData\Local\Temp\ccbUglnk.s:742    .text.hwaddr_aton2:0000000000000072 .LVL84
C:\Users\stapi\AppData\Local\Temp\ccbUglnk.s:643    .text.hwaddr_aton2:0000000000000008 .LVL71
C:\Users\stapi\AppData\Local\Temp\ccbUglnk.s:666    .text.hwaddr_aton2:000000000000001c .LVL73
C:\Users\stapi\AppData\Local\Temp\ccbUglnk.s:684    .text.hwaddr_aton2:0000000000000032 .LVL75
C:\Users\stapi\AppData\Local\Temp\ccbUglnk.s:696    .text.hwaddr_aton2:0000000000000044 .LVL78
C:\Users\stapi\AppData\Local\Temp\ccbUglnk.s:689    .text.hwaddr_aton2:000000000000003c .LVL77
C:\Users\stapi\AppData\Local\Temp\ccbUglnk.s:708    .text.hwaddr_aton2:0000000000000056 .LVL81
C:\Users\stapi\AppData\Local\Temp\ccbUglnk.s:532    .text.hwaddr_compact_aton:0000000000000000 .LVL58
C:\Users\stapi\AppData\Local\Temp\ccbUglnk.s:552    .text.hwaddr_compact_aton:0000000000000010 .LVL60
C:\Users\stapi\AppData\Local\Temp\ccbUglnk.s:568    .text.hwaddr_compact_aton:0000000000000024 .LVL63
C:\Users\stapi\AppData\Local\Temp\ccbUglnk.s:597    .text.hwaddr_compact_aton:0000000000000048 .LVL68
C:\Users\stapi\AppData\Local\Temp\ccbUglnk.s:577    .text.hwaddr_compact_aton:0000000000000034 .LVL65
C:\Users\stapi\AppData\Local\Temp\ccbUglnk.s:591    .text.hwaddr_compact_aton:0000000000000042 .LVL67
C:\Users\stapi\AppData\Local\Temp\ccbUglnk.s:609    .text.hwaddr_compact_aton:0000000000000050 .LVL69
C:\Users\stapi\AppData\Local\Temp\ccbUglnk.s:543    .text.hwaddr_compact_aton:0000000000000008 .LVL59
C:\Users\stapi\AppData\Local\Temp\ccbUglnk.s:562    .text.hwaddr_compact_aton:000000000000001e .LVL62
C:\Users\stapi\AppData\Local\Temp\ccbUglnk.s:580    .text.hwaddr_compact_aton:0000000000000036 .LVL66
C:\Users\stapi\AppData\Local\Temp\ccbUglnk.s:441    .text.hwaddr_masked_aton:0000000000000000 .LVL48
C:\Users\stapi\AppData\Local\Temp\ccbUglnk.s:478    .text.hwaddr_masked_aton:000000000000003c .LVL50
C:\Users\stapi\AppData\Local\Temp\ccbUglnk.s:491    .text.hwaddr_masked_aton:000000000000004e .LVL52
C:\Users\stapi\AppData\Local\Temp\ccbUglnk.s:497    .text.hwaddr_masked_aton:0000000000000050 .LVL53
C:\Users\stapi\AppData\Local\Temp\ccbUglnk.s:512    .text.hwaddr_masked_aton:000000000000006c .LVL55
C:\Users\stapi\AppData\Local\Temp\ccbUglnk.s:515    .text.hwaddr_masked_aton:0000000000000072 .LVL56
C:\Users\stapi\AppData\Local\Temp\ccbUglnk.s:519    .text.hwaddr_masked_aton:0000000000000074 .LVL57
C:\Users\stapi\AppData\Local\Temp\ccbUglnk.s:415    .text.hwaddr_aton:0000000000000000 .LVL46
C:\Users\stapi\AppData\Local\Temp\ccbUglnk.s:310    .text.hwaddr_parse:0000000000000000 .LVL34
C:\Users\stapi\AppData\Local\Temp\ccbUglnk.s:337    .text.hwaddr_parse:0000000000000016 .LVL36
C:\Users\stapi\AppData\Local\Temp\ccbUglnk.s:350    .text.hwaddr_parse:0000000000000024 .LVL38
C:\Users\stapi\AppData\Local\Temp\ccbUglnk.s:360    .text.hwaddr_parse:0000000000000032 .LVL39
C:\Users\stapi\AppData\Local\Temp\ccbUglnk.s:370    .text.hwaddr_parse:0000000000000038 .LVL41
C:\Users\stapi\AppData\Local\Temp\ccbUglnk.s:385    .text.hwaddr_parse:0000000000000042 .LVL43
C:\Users\stapi\AppData\Local\Temp\ccbUglnk.s:391    .text.hwaddr_parse:0000000000000046 .LVL44
C:\Users\stapi\AppData\Local\Temp\ccbUglnk.s:398    .text.hwaddr_parse:0000000000000052 .LVL45
C:\Users\stapi\AppData\Local\Temp\ccbUglnk.s:322    .text.hwaddr_parse:0000000000000008 .LVL35
C:\Users\stapi\AppData\Local\Temp\ccbUglnk.s:374    .text.hwaddr_parse:000000000000003a .LVL42
C:\Users\stapi\AppData\Local\Temp\ccbUglnk.s:243    .text.hex2byte:0000000000000000 .LVL21
C:\Users\stapi\AppData\Local\Temp\ccbUglnk.s:251    .text.hex2byte:0000000000000008 .LVL22
C:\Users\stapi\AppData\Local\Temp\ccbUglnk.s:256    .text.hex2byte:000000000000000e .LVL23
C:\Users\stapi\AppData\Local\Temp\ccbUglnk.s:264    .text.hex2byte:000000000000001c .LVL25
C:\Users\stapi\AppData\Local\Temp\ccbUglnk.s:284    .text.hex2byte:0000000000000036 .LVL31
C:\Users\stapi\AppData\Local\Temp\ccbUglnk.s:293    .text.hex2byte:000000000000003e .LVL32
C:\Users\stapi\AppData\Local\Temp\ccbUglnk.s:267    .text.hex2byte:0000000000000020 .LVL26
C:\Users\stapi\AppData\Local\Temp\ccbUglnk.s:281    .text.hex2byte:0000000000000032 .LVL30
C:\Users\stapi\AppData\Local\Temp\ccbUglnk.s:298    .text.hex2byte:0000000000000040 .LVL33
C:\Users\stapi\AppData\Local\Temp\ccbUglnk.s:271    .text.hex2byte:000000000000002a .LVL28
C:\Users\stapi\AppData\Local\Temp\ccbUglnk.s:275    .text.hex2byte:000000000000002c .LVL29
C:\Users\stapi\AppData\Local\Temp\ccbUglnk.s:17     .text.hex2num:0000000000000000 .LVL0
C:\Users\stapi\AppData\Local\Temp\ccbUglnk.s:32     .text.hex2num:0000000000000018 .LVL1
C:\Users\stapi\AppData\Local\Temp\ccbUglnk.s:39     .text.hex2num:000000000000001e .LVL2
C:\Users\stapi\AppData\Local\Temp\ccbUglnk.s:60     .text.hex2num:000000000000003c .LVL3
C:\Users\stapi\AppData\Local\Temp\ccbUglnk.s:4279   .debug_info:0000000000000000 .Ldebug_info0
C:\Users\stapi\AppData\Local\Temp\ccbUglnk.s:329    .text.hwaddr_parse:000000000000000e .LBB13
C:\Users\stapi\AppData\Local\Temp\ccbUglnk.s:334    .text.hwaddr_parse:0000000000000014 .LBE13
C:\Users\stapi\AppData\Local\Temp\ccbUglnk.s:339    .text.hwaddr_parse:0000000000000016 .LBB14
C:\Users\stapi\AppData\Local\Temp\ccbUglnk.s:362    .text.hwaddr_parse:0000000000000032 .LBE14
C:\Users\stapi\AppData\Local\Temp\ccbUglnk.s:388    .text.hwaddr_parse:0000000000000042 .LBB15
C:\Users\stapi\AppData\Local\Temp\ccbUglnk.s:403    .text.hwaddr_parse:0000000000000056 .LBE15
C:\Users\stapi\AppData\Local\Temp\ccbUglnk.s:554    .text.hwaddr_compact_aton:0000000000000010 .LBB16
C:\Users\stapi\AppData\Local\Temp\ccbUglnk.s:587    .text.hwaddr_compact_aton:0000000000000040 .LBE16
C:\Users\stapi\AppData\Local\Temp\ccbUglnk.s:612    .text.hwaddr_compact_aton:0000000000000050 .LBB17
C:\Users\stapi\AppData\Local\Temp\ccbUglnk.s:616    .text.hwaddr_compact_aton:0000000000000054 .LBE17
C:\Users\stapi\AppData\Local\Temp\ccbUglnk.s:653    .text.hwaddr_aton2:0000000000000010 .LBB18
C:\Users\stapi\AppData\Local\Temp\ccbUglnk.s:658    .text.hwaddr_aton2:0000000000000016 .LBE18
C:\Users\stapi\AppData\Local\Temp\ccbUglnk.s:668    .text.hwaddr_aton2:000000000000001c .LBB19
C:\Users\stapi\AppData\Local\Temp\ccbUglnk.s:715    .text.hwaddr_aton2:0000000000000060 .LBE19
C:\Users\stapi\AppData\Local\Temp\ccbUglnk.s:745    .text.hwaddr_aton2:0000000000000072 .LBB20
C:\Users\stapi\AppData\Local\Temp\ccbUglnk.s:749    .text.hwaddr_aton2:0000000000000076 .LBE20
C:\Users\stapi\AppData\Local\Temp\ccbUglnk.s:2260   .text.wpa_config_parse_string:0000000000000018 .LBB29
C:\Users\stapi\AppData\Local\Temp\ccbUglnk.s:2279   .text.wpa_config_parse_string:000000000000002c .LBE29
C:\Users\stapi\AppData\Local\Temp\ccbUglnk.s:2288   .text.wpa_config_parse_string:0000000000000030 .LBB31
C:\Users\stapi\AppData\Local\Temp\ccbUglnk.s:2307   .text.wpa_config_parse_string:000000000000004a .LBE31
C:\Users\stapi\AppData\Local\Temp\ccbUglnk.s:2280   .text.wpa_config_parse_string:000000000000002c .LBB30
C:\Users\stapi\AppData\Local\Temp\ccbUglnk.s:2287   .text.wpa_config_parse_string:0000000000000030 .LBE30
C:\Users\stapi\AppData\Local\Temp\ccbUglnk.s:2399   .text.wpa_config_parse_string:00000000000000c2 .LBB33
C:\Users\stapi\AppData\Local\Temp\ccbUglnk.s:2451   .text.wpa_config_parse_string:0000000000000110 .LBE33
C:\Users\stapi\AppData\Local\Temp\ccbUglnk.s:2740   .text.freq_range_list_str:000000000000000c .LBB38
C:\Users\stapi\AppData\Local\Temp\ccbUglnk.s:2745   .text.freq_range_list_str:000000000000000e .LBE38
C:\Users\stapi\AppData\Local\Temp\ccbUglnk.s:2785   .text.freq_range_list_str:000000000000002e .LBB41
C:\Users\stapi\AppData\Local\Temp\ccbUglnk.s:2789   .text.freq_range_list_str:0000000000000036 .LBE41
C:\Users\stapi\AppData\Local\Temp\ccbUglnk.s:2798   .text.freq_range_list_str:000000000000003e .LBB42
C:\Users\stapi\AppData\Local\Temp\ccbUglnk.s:2807   .text.freq_range_list_str:000000000000004e .LBE42
C:\Users\stapi\AppData\Local\Temp\ccbUglnk.s:2812   .text.freq_range_list_str:0000000000000056 .LBB43
C:\Users\stapi\AppData\Local\Temp\ccbUglnk.s:2857   .text.freq_range_list_str:000000000000008a .LBE43
C:\Users\stapi\AppData\Local\Temp\ccbUglnk.s:2865   .text.freq_range_list_str:000000000000008e .LBB44
C:\Users\stapi\AppData\Local\Temp\ccbUglnk.s:2886   .text.freq_range_list_str:00000000000000b0 .LBE44
C:\Users\stapi\AppData\Local\Temp\ccbUglnk.s:3205   .text.int_array_add_unique:0000000000000022 .LBE51
C:\Users\stapi\AppData\Local\Temp\ccbUglnk.s:3237   .text.int_array_add_unique:0000000000000040 .LBB54
C:\Users\stapi\AppData\Local\Temp\ccbUglnk.s:3247   .text.int_array_add_unique:000000000000004e .LBE54

UNDEFINED SYMBOLS
__riscv_save_7
__riscv_restore_7
os_snprintf
__riscv_save_2
__riscv_restore_2
__riscv_save_6
__riscv_restore_6
__riscv_save_0
__riscv_restore_0
_ctype_
os_memset
__riscv_save_5
__riscv_restore_5
__riscv_save_9
__riscv_restore_9
__riscv_save_3
__riscv_restore_3
__riscv_save_1
__riscv_restore_1
os_get_time
os_memcpy
dbg_vsnprintf_offset
__riscv_save_8
__riscv_restore_8
__riscv_save_12
__riscv_restore_12
os_malloc
__riscv_save_4
os_strrchr
__riscv_restore_4
os_free
os_strlen
os_realloc
atoi
os_strchr
__riscv_save_10
__riscv_restore_10
qsort
os_get_random
os_strdup
os_strncmp
os_strstr
memset
