   1              		.file	"ctrl_iface_gdwifi.c"
   2              		.option nopic
   3              		.attribute arch, "rv32i2p0_m2p0_a2p0_f2p0_c2p0_b_p0p94"
   4              		.attribute unaligned_access, 0
   5              		.attribute stack_align, 16
   6              		.text
   7              	.Ltext0:
   8              		.cfi_sections	.debug_frame
   9              		.section	.text.wpa_supplicant_ctrl_iface_msg_cb,"ax",@progbits
  10              		.align	1
  12              	wpa_supplicant_ctrl_iface_msg_cb:
  13              	.LFB161:
  14              		.file 1 "C:/Users/stapi/OneDrive/Desktop/GD32VW553/V1_MQTT_OK/GD32VW55X_Wifi_BLE_SDK/GD32VW55x_REL
   1:C:/Users/stapi/OneDrive/Desktop/GD32VW553/V1_MQTT_OK/GD32VW55X_Wifi_BLE_SDK/GD32VW55x_RELEASE_V1.0.2/MSDK/wpa_supplicant/wpa_supplicant\ctrl_iface_gdwifi.c **** /*
   2:C:/Users/stapi/OneDrive/Desktop/GD32VW553/V1_MQTT_OK/GD32VW55X_Wifi_BLE_SDK/GD32VW55x_RELEASE_V1.0.2/MSDK/wpa_supplicant/wpa_supplicant\ctrl_iface_gdwifi.c ****  * WPA Supplicant / UDP socket -based control interface
   3:C:/Users/stapi/OneDrive/Desktop/GD32VW553/V1_MQTT_OK/GD32VW55X_Wifi_BLE_SDK/GD32VW55x_RELEASE_V1.0.2/MSDK/wpa_supplicant/wpa_supplicant\ctrl_iface_gdwifi.c ****  * Copyright (c) 2004-2016, Jouni Malinen <j@w1.fi>
   4:C:/Users/stapi/OneDrive/Desktop/GD32VW553/V1_MQTT_OK/GD32VW55X_Wifi_BLE_SDK/GD32VW55x_RELEASE_V1.0.2/MSDK/wpa_supplicant/wpa_supplicant\ctrl_iface_gdwifi.c ****  *
   5:C:/Users/stapi/OneDrive/Desktop/GD32VW553/V1_MQTT_OK/GD32VW55X_Wifi_BLE_SDK/GD32VW55x_RELEASE_V1.0.2/MSDK/wpa_supplicant/wpa_supplicant\ctrl_iface_gdwifi.c ****  * This software may be distributed under the terms of the BSD license.
   6:C:/Users/stapi/OneDrive/Desktop/GD32VW553/V1_MQTT_OK/GD32VW55X_Wifi_BLE_SDK/GD32VW55x_RELEASE_V1.0.2/MSDK/wpa_supplicant/wpa_supplicant\ctrl_iface_gdwifi.c ****  * See README for more details.
   7:C:/Users/stapi/OneDrive/Desktop/GD32VW553/V1_MQTT_OK/GD32VW55X_Wifi_BLE_SDK/GD32VW55x_RELEASE_V1.0.2/MSDK/wpa_supplicant/wpa_supplicant\ctrl_iface_gdwifi.c ****  */
   8:C:/Users/stapi/OneDrive/Desktop/GD32VW553/V1_MQTT_OK/GD32VW55X_Wifi_BLE_SDK/GD32VW55x_RELEASE_V1.0.2/MSDK/wpa_supplicant/wpa_supplicant\ctrl_iface_gdwifi.c **** 
   9:C:/Users/stapi/OneDrive/Desktop/GD32VW553/V1_MQTT_OK/GD32VW55X_Wifi_BLE_SDK/GD32VW55x_RELEASE_V1.0.2/MSDK/wpa_supplicant/wpa_supplicant\ctrl_iface_gdwifi.c **** #include "includes.h"
  10:C:/Users/stapi/OneDrive/Desktop/GD32VW553/V1_MQTT_OK/GD32VW55X_Wifi_BLE_SDK/GD32VW55x_RELEASE_V1.0.2/MSDK/wpa_supplicant/wpa_supplicant\ctrl_iface_gdwifi.c **** 
  11:C:/Users/stapi/OneDrive/Desktop/GD32VW553/V1_MQTT_OK/GD32VW55X_Wifi_BLE_SDK/GD32VW55x_RELEASE_V1.0.2/MSDK/wpa_supplicant/wpa_supplicant\ctrl_iface_gdwifi.c **** #include "common.h"
  12:C:/Users/stapi/OneDrive/Desktop/GD32VW553/V1_MQTT_OK/GD32VW55X_Wifi_BLE_SDK/GD32VW55x_RELEASE_V1.0.2/MSDK/wpa_supplicant/wpa_supplicant\ctrl_iface_gdwifi.c **** #include "eloop.h"
  13:C:/Users/stapi/OneDrive/Desktop/GD32VW553/V1_MQTT_OK/GD32VW55X_Wifi_BLE_SDK/GD32VW55x_RELEASE_V1.0.2/MSDK/wpa_supplicant/wpa_supplicant\ctrl_iface_gdwifi.c **** #include "config.h"
  14:C:/Users/stapi/OneDrive/Desktop/GD32VW553/V1_MQTT_OK/GD32VW55X_Wifi_BLE_SDK/GD32VW55x_RELEASE_V1.0.2/MSDK/wpa_supplicant/wpa_supplicant\ctrl_iface_gdwifi.c **** #include "wpa_supplicant_i.h"
  15:C:/Users/stapi/OneDrive/Desktop/GD32VW553/V1_MQTT_OK/GD32VW55X_Wifi_BLE_SDK/GD32VW55x_RELEASE_V1.0.2/MSDK/wpa_supplicant/wpa_supplicant\ctrl_iface_gdwifi.c **** #include "ctrl_iface.h"
  16:C:/Users/stapi/OneDrive/Desktop/GD32VW553/V1_MQTT_OK/GD32VW55X_Wifi_BLE_SDK/GD32VW55x_RELEASE_V1.0.2/MSDK/wpa_supplicant/wpa_supplicant\ctrl_iface_gdwifi.c **** #include "common/wpa_ctrl.h"
  17:C:/Users/stapi/OneDrive/Desktop/GD32VW553/V1_MQTT_OK/GD32VW55X_Wifi_BLE_SDK/GD32VW55x_RELEASE_V1.0.2/MSDK/wpa_supplicant/wpa_supplicant\ctrl_iface_gdwifi.c **** 
  18:C:/Users/stapi/OneDrive/Desktop/GD32VW553/V1_MQTT_OK/GD32VW55X_Wifi_BLE_SDK/GD32VW55x_RELEASE_V1.0.2/MSDK/wpa_supplicant/wpa_supplicant\ctrl_iface_gdwifi.c **** #ifndef CONFIG_NO_WPA_MSG
  19:C:/Users/stapi/OneDrive/Desktop/GD32VW553/V1_MQTT_OK/GD32VW55X_Wifi_BLE_SDK/GD32VW55x_RELEASE_V1.0.2/MSDK/wpa_supplicant/wpa_supplicant\ctrl_iface_gdwifi.c **** static void wpa_supplicant_ctrl_iface_msg_cb(void *ctx, int level,
  20:C:/Users/stapi/OneDrive/Desktop/GD32VW553/V1_MQTT_OK/GD32VW55X_Wifi_BLE_SDK/GD32VW55x_RELEASE_V1.0.2/MSDK/wpa_supplicant/wpa_supplicant\ctrl_iface_gdwifi.c **** 					     enum wpa_msg_type type,
  21:C:/Users/stapi/OneDrive/Desktop/GD32VW553/V1_MQTT_OK/GD32VW55X_Wifi_BLE_SDK/GD32VW55x_RELEASE_V1.0.2/MSDK/wpa_supplicant/wpa_supplicant\ctrl_iface_gdwifi.c **** 					     const char *txt, size_t len)
  22:C:/Users/stapi/OneDrive/Desktop/GD32VW553/V1_MQTT_OK/GD32VW55X_Wifi_BLE_SDK/GD32VW55x_RELEASE_V1.0.2/MSDK/wpa_supplicant/wpa_supplicant\ctrl_iface_gdwifi.c **** {
  15              		.loc 1 22 1
  16              		.cfi_startproc
  17              	.LVL0:
  23:C:/Users/stapi/OneDrive/Desktop/GD32VW553/V1_MQTT_OK/GD32VW55X_Wifi_BLE_SDK/GD32VW55x_RELEASE_V1.0.2/MSDK/wpa_supplicant/wpa_supplicant\ctrl_iface_gdwifi.c **** //	if (level >= wpa_debug_level)
  24:C:/Users/stapi/OneDrive/Desktop/GD32VW553/V1_MQTT_OK/GD32VW55X_Wifi_BLE_SDK/GD32VW55x_RELEASE_V1.0.2/MSDK/wpa_supplicant/wpa_supplicant\ctrl_iface_gdwifi.c **** //		wpa_printf(MSG_WARNING, "[WPA] %s\n", txt);
  25:C:/Users/stapi/OneDrive/Desktop/GD32VW553/V1_MQTT_OK/GD32VW55X_Wifi_BLE_SDK/GD32VW55x_RELEASE_V1.0.2/MSDK/wpa_supplicant/wpa_supplicant\ctrl_iface_gdwifi.c **** }
  18              		.loc 1 25 1
  19 0000 8280     		ret
  20              		.cfi_endproc
  21              	.LFE161:
  23              		.section	.rodata.wpa_supplicant_global_ctrl_iface_receive.str1.4,"aMS",@progbits,1
  24              		.align	2
  25              	.LC0:
  26 0000 4661696C 		.string	"Fail to receive command on WPA ctrl interface"
  26      20746F20 
  26      72656365 
  26      69766520 
  26      636F6D6D 
  27 002e 0000     		.align	2
  28              	.LC1:
  29 0030 4641494C 		.string	"FAIL"
  29      00
  30              		.section	.text.wpa_supplicant_global_ctrl_iface_receive,"ax",@progbits
  31              		.align	1
  33              	wpa_supplicant_global_ctrl_iface_receive:
  34              	.LFB165:
  26:C:/Users/stapi/OneDrive/Desktop/GD32VW553/V1_MQTT_OK/GD32VW55X_Wifi_BLE_SDK/GD32VW55x_RELEASE_V1.0.2/MSDK/wpa_supplicant/wpa_supplicant\ctrl_iface_gdwifi.c **** #endif
  27:C:/Users/stapi/OneDrive/Desktop/GD32VW553/V1_MQTT_OK/GD32VW55X_Wifi_BLE_SDK/GD32VW55x_RELEASE_V1.0.2/MSDK/wpa_supplicant/wpa_supplicant\ctrl_iface_gdwifi.c **** 
  28:C:/Users/stapi/OneDrive/Desktop/GD32VW553/V1_MQTT_OK/GD32VW55X_Wifi_BLE_SDK/GD32VW55x_RELEASE_V1.0.2/MSDK/wpa_supplicant/wpa_supplicant\ctrl_iface_gdwifi.c **** 
  29:C:/Users/stapi/OneDrive/Desktop/GD32VW553/V1_MQTT_OK/GD32VW55X_Wifi_BLE_SDK/GD32VW55x_RELEASE_V1.0.2/MSDK/wpa_supplicant/wpa_supplicant\ctrl_iface_gdwifi.c **** struct ctrl_iface_priv {
  30:C:/Users/stapi/OneDrive/Desktop/GD32VW553/V1_MQTT_OK/GD32VW55X_Wifi_BLE_SDK/GD32VW55x_RELEASE_V1.0.2/MSDK/wpa_supplicant/wpa_supplicant\ctrl_iface_gdwifi.c **** };
  31:C:/Users/stapi/OneDrive/Desktop/GD32VW553/V1_MQTT_OK/GD32VW55X_Wifi_BLE_SDK/GD32VW55x_RELEASE_V1.0.2/MSDK/wpa_supplicant/wpa_supplicant\ctrl_iface_gdwifi.c **** 
  32:C:/Users/stapi/OneDrive/Desktop/GD32VW553/V1_MQTT_OK/GD32VW55X_Wifi_BLE_SDK/GD32VW55x_RELEASE_V1.0.2/MSDK/wpa_supplicant/wpa_supplicant\ctrl_iface_gdwifi.c **** struct ctrl_iface_global_priv {
  33:C:/Users/stapi/OneDrive/Desktop/GD32VW553/V1_MQTT_OK/GD32VW55X_Wifi_BLE_SDK/GD32VW55x_RELEASE_V1.0.2/MSDK/wpa_supplicant/wpa_supplicant\ctrl_iface_gdwifi.c **** 	int sock;
  34:C:/Users/stapi/OneDrive/Desktop/GD32VW553/V1_MQTT_OK/GD32VW55X_Wifi_BLE_SDK/GD32VW55x_RELEASE_V1.0.2/MSDK/wpa_supplicant/wpa_supplicant\ctrl_iface_gdwifi.c **** };
  35:C:/Users/stapi/OneDrive/Desktop/GD32VW553/V1_MQTT_OK/GD32VW55X_Wifi_BLE_SDK/GD32VW55x_RELEASE_V1.0.2/MSDK/wpa_supplicant/wpa_supplicant\ctrl_iface_gdwifi.c **** 
  36:C:/Users/stapi/OneDrive/Desktop/GD32VW553/V1_MQTT_OK/GD32VW55X_Wifi_BLE_SDK/GD32VW55x_RELEASE_V1.0.2/MSDK/wpa_supplicant/wpa_supplicant\ctrl_iface_gdwifi.c **** /* Per interface ctrl interface not used */
  37:C:/Users/stapi/OneDrive/Desktop/GD32VW553/V1_MQTT_OK/GD32VW55X_Wifi_BLE_SDK/GD32VW55x_RELEASE_V1.0.2/MSDK/wpa_supplicant/wpa_supplicant\ctrl_iface_gdwifi.c **** struct ctrl_iface_priv *
  38:C:/Users/stapi/OneDrive/Desktop/GD32VW553/V1_MQTT_OK/GD32VW55X_Wifi_BLE_SDK/GD32VW55x_RELEASE_V1.0.2/MSDK/wpa_supplicant/wpa_supplicant\ctrl_iface_gdwifi.c **** wpa_supplicant_ctrl_iface_init(struct wpa_supplicant *wpa_s)
  39:C:/Users/stapi/OneDrive/Desktop/GD32VW553/V1_MQTT_OK/GD32VW55X_Wifi_BLE_SDK/GD32VW55x_RELEASE_V1.0.2/MSDK/wpa_supplicant/wpa_supplicant\ctrl_iface_gdwifi.c **** {
  40:C:/Users/stapi/OneDrive/Desktop/GD32VW553/V1_MQTT_OK/GD32VW55X_Wifi_BLE_SDK/GD32VW55x_RELEASE_V1.0.2/MSDK/wpa_supplicant/wpa_supplicant\ctrl_iface_gdwifi.c **** 	// cannot return NULL
  41:C:/Users/stapi/OneDrive/Desktop/GD32VW553/V1_MQTT_OK/GD32VW55X_Wifi_BLE_SDK/GD32VW55x_RELEASE_V1.0.2/MSDK/wpa_supplicant/wpa_supplicant\ctrl_iface_gdwifi.c **** 	return (struct ctrl_iface_priv *)1;
  42:C:/Users/stapi/OneDrive/Desktop/GD32VW553/V1_MQTT_OK/GD32VW55X_Wifi_BLE_SDK/GD32VW55x_RELEASE_V1.0.2/MSDK/wpa_supplicant/wpa_supplicant\ctrl_iface_gdwifi.c **** }
  43:C:/Users/stapi/OneDrive/Desktop/GD32VW553/V1_MQTT_OK/GD32VW55X_Wifi_BLE_SDK/GD32VW55x_RELEASE_V1.0.2/MSDK/wpa_supplicant/wpa_supplicant\ctrl_iface_gdwifi.c **** 
  44:C:/Users/stapi/OneDrive/Desktop/GD32VW553/V1_MQTT_OK/GD32VW55X_Wifi_BLE_SDK/GD32VW55x_RELEASE_V1.0.2/MSDK/wpa_supplicant/wpa_supplicant\ctrl_iface_gdwifi.c **** void wpa_supplicant_ctrl_iface_deinit(struct wpa_supplicant *wpa_s,
  45:C:/Users/stapi/OneDrive/Desktop/GD32VW553/V1_MQTT_OK/GD32VW55X_Wifi_BLE_SDK/GD32VW55x_RELEASE_V1.0.2/MSDK/wpa_supplicant/wpa_supplicant\ctrl_iface_gdwifi.c **** 				      struct ctrl_iface_priv *priv)
  46:C:/Users/stapi/OneDrive/Desktop/GD32VW553/V1_MQTT_OK/GD32VW55X_Wifi_BLE_SDK/GD32VW55x_RELEASE_V1.0.2/MSDK/wpa_supplicant/wpa_supplicant\ctrl_iface_gdwifi.c **** {
  47:C:/Users/stapi/OneDrive/Desktop/GD32VW553/V1_MQTT_OK/GD32VW55X_Wifi_BLE_SDK/GD32VW55x_RELEASE_V1.0.2/MSDK/wpa_supplicant/wpa_supplicant\ctrl_iface_gdwifi.c **** }
  48:C:/Users/stapi/OneDrive/Desktop/GD32VW553/V1_MQTT_OK/GD32VW55X_Wifi_BLE_SDK/GD32VW55x_RELEASE_V1.0.2/MSDK/wpa_supplicant/wpa_supplicant\ctrl_iface_gdwifi.c **** 
  49:C:/Users/stapi/OneDrive/Desktop/GD32VW553/V1_MQTT_OK/GD32VW55X_Wifi_BLE_SDK/GD32VW55x_RELEASE_V1.0.2/MSDK/wpa_supplicant/wpa_supplicant\ctrl_iface_gdwifi.c **** void wpa_supplicant_ctrl_iface_wait(struct ctrl_iface_priv *priv)
  50:C:/Users/stapi/OneDrive/Desktop/GD32VW553/V1_MQTT_OK/GD32VW55X_Wifi_BLE_SDK/GD32VW55x_RELEASE_V1.0.2/MSDK/wpa_supplicant/wpa_supplicant\ctrl_iface_gdwifi.c **** {
  51:C:/Users/stapi/OneDrive/Desktop/GD32VW553/V1_MQTT_OK/GD32VW55X_Wifi_BLE_SDK/GD32VW55x_RELEASE_V1.0.2/MSDK/wpa_supplicant/wpa_supplicant\ctrl_iface_gdwifi.c **** }
  52:C:/Users/stapi/OneDrive/Desktop/GD32VW553/V1_MQTT_OK/GD32VW55X_Wifi_BLE_SDK/GD32VW55x_RELEASE_V1.0.2/MSDK/wpa_supplicant/wpa_supplicant\ctrl_iface_gdwifi.c **** 
  53:C:/Users/stapi/OneDrive/Desktop/GD32VW553/V1_MQTT_OK/GD32VW55X_Wifi_BLE_SDK/GD32VW55x_RELEASE_V1.0.2/MSDK/wpa_supplicant/wpa_supplicant\ctrl_iface_gdwifi.c **** /* Global ctrl_iface */
  54:C:/Users/stapi/OneDrive/Desktop/GD32VW553/V1_MQTT_OK/GD32VW55X_Wifi_BLE_SDK/GD32VW55x_RELEASE_V1.0.2/MSDK/wpa_supplicant/wpa_supplicant\ctrl_iface_gdwifi.c **** static void wpa_supplicant_global_ctrl_iface_receive(int sock, void *eloop_ctx,
  55:C:/Users/stapi/OneDrive/Desktop/GD32VW553/V1_MQTT_OK/GD32VW55X_Wifi_BLE_SDK/GD32VW55x_RELEASE_V1.0.2/MSDK/wpa_supplicant/wpa_supplicant\ctrl_iface_gdwifi.c **** 						     void *sock_ctx)
  56:C:/Users/stapi/OneDrive/Desktop/GD32VW553/V1_MQTT_OK/GD32VW55X_Wifi_BLE_SDK/GD32VW55x_RELEASE_V1.0.2/MSDK/wpa_supplicant/wpa_supplicant\ctrl_iface_gdwifi.c **** {
  35              		.loc 1 56 1
  36              		.cfi_startproc
  37              	.LVL1:
  38 0000 17030000 		call	t0,__riscv_save_2
  38      E7020300 
  39              		.cfi_offset 9, -12
  40              		.cfi_offset 8, -8
  41              		.cfi_offset 1, -4
  42              		.cfi_def_cfa_offset 16
  57:C:/Users/stapi/OneDrive/Desktop/GD32VW553/V1_MQTT_OK/GD32VW55X_Wifi_BLE_SDK/GD32VW55x_RELEASE_V1.0.2/MSDK/wpa_supplicant/wpa_supplicant\ctrl_iface_gdwifi.c **** 	struct ctrl_iface_global_priv *priv = sock_ctx;
  43              		.loc 1 57 2
  44              	.LVL2:
  58:C:/Users/stapi/OneDrive/Desktop/GD32VW553/V1_MQTT_OK/GD32VW55X_Wifi_BLE_SDK/GD32VW55x_RELEASE_V1.0.2/MSDK/wpa_supplicant/wpa_supplicant\ctrl_iface_gdwifi.c **** 	struct wpa_global *global = eloop_ctx;
  45              		.loc 1 58 2
  56:C:/Users/stapi/OneDrive/Desktop/GD32VW553/V1_MQTT_OK/GD32VW55X_Wifi_BLE_SDK/GD32VW55x_RELEASE_V1.0.2/MSDK/wpa_supplicant/wpa_supplicant\ctrl_iface_gdwifi.c **** 	struct ctrl_iface_global_priv *priv = sock_ctx;
  46              		.loc 1 56 1 is_stmt 0
  47 0008 7971     		addi	sp,sp,-48
  48              		.cfi_def_cfa_offset 64
  59:C:/Users/stapi/OneDrive/Desktop/GD32VW553/V1_MQTT_OK/GD32VW55X_Wifi_BLE_SDK/GD32VW55x_RELEASE_V1.0.2/MSDK/wpa_supplicant/wpa_supplicant\ctrl_iface_gdwifi.c **** 	struct wifi_wpa_cmd cmd;
  60:C:/Users/stapi/OneDrive/Desktop/GD32VW553/V1_MQTT_OK/GD32VW55X_Wifi_BLE_SDK/GD32VW55x_RELEASE_V1.0.2/MSDK/wpa_supplicant/wpa_supplicant\ctrl_iface_gdwifi.c **** 	struct wifi_wpa_resp resp;
  61:C:/Users/stapi/OneDrive/Desktop/GD32VW553/V1_MQTT_OK/GD32VW55X_Wifi_BLE_SDK/GD32VW55x_RELEASE_V1.0.2/MSDK/wpa_supplicant/wpa_supplicant\ctrl_iface_gdwifi.c **** 	int res;
  62:C:/Users/stapi/OneDrive/Desktop/GD32VW553/V1_MQTT_OK/GD32VW55X_Wifi_BLE_SDK/GD32VW55x_RELEASE_V1.0.2/MSDK/wpa_supplicant/wpa_supplicant\ctrl_iface_gdwifi.c **** 	struct sockaddr_in from;
  63:C:/Users/stapi/OneDrive/Desktop/GD32VW553/V1_MQTT_OK/GD32VW55X_Wifi_BLE_SDK/GD32VW55x_RELEASE_V1.0.2/MSDK/wpa_supplicant/wpa_supplicant\ctrl_iface_gdwifi.c **** 	socklen_t fromlen = sizeof(from);
  49              		.loc 1 63 12
  50 000a C147     		li	a5,16
  56:C:/Users/stapi/OneDrive/Desktop/GD32VW553/V1_MQTT_OK/GD32VW55X_Wifi_BLE_SDK/GD32VW55x_RELEASE_V1.0.2/MSDK/wpa_supplicant/wpa_supplicant\ctrl_iface_gdwifi.c **** 	struct ctrl_iface_global_priv *priv = sock_ctx;
  51              		.loc 1 56 1
  52 000c 2E84     		mv	s0,a1
  53              	.LVL3:
  59:C:/Users/stapi/OneDrive/Desktop/GD32VW553/V1_MQTT_OK/GD32VW55X_Wifi_BLE_SDK/GD32VW55x_RELEASE_V1.0.2/MSDK/wpa_supplicant/wpa_supplicant\ctrl_iface_gdwifi.c **** 	struct wifi_wpa_cmd cmd;
  54              		.loc 1 59 2 is_stmt 1
  60:C:/Users/stapi/OneDrive/Desktop/GD32VW553/V1_MQTT_OK/GD32VW55X_Wifi_BLE_SDK/GD32VW55x_RELEASE_V1.0.2/MSDK/wpa_supplicant/wpa_supplicant\ctrl_iface_gdwifi.c **** 	int res;
  55              		.loc 1 60 2
  61:C:/Users/stapi/OneDrive/Desktop/GD32VW553/V1_MQTT_OK/GD32VW55X_Wifi_BLE_SDK/GD32VW55x_RELEASE_V1.0.2/MSDK/wpa_supplicant/wpa_supplicant\ctrl_iface_gdwifi.c **** 	struct sockaddr_in from;
  56              		.loc 1 61 2
  62:C:/Users/stapi/OneDrive/Desktop/GD32VW553/V1_MQTT_OK/GD32VW55X_Wifi_BLE_SDK/GD32VW55x_RELEASE_V1.0.2/MSDK/wpa_supplicant/wpa_supplicant\ctrl_iface_gdwifi.c **** 	socklen_t fromlen = sizeof(from);
  57              		.loc 1 62 2
  58              		.loc 1 63 2
  59              		.loc 1 63 12 is_stmt 0
  60 000e 3EC0     		sw	a5,0(sp)
  64:C:/Users/stapi/OneDrive/Desktop/GD32VW553/V1_MQTT_OK/GD32VW55X_Wifi_BLE_SDK/GD32VW55x_RELEASE_V1.0.2/MSDK/wpa_supplicant/wpa_supplicant\ctrl_iface_gdwifi.c **** 	char *reply = NULL;
  61              		.loc 1 64 2 is_stmt 1
  62              	.LVL4:
  65:C:/Users/stapi/OneDrive/Desktop/GD32VW553/V1_MQTT_OK/GD32VW55X_Wifi_BLE_SDK/GD32VW55x_RELEASE_V1.0.2/MSDK/wpa_supplicant/wpa_supplicant\ctrl_iface_gdwifi.c **** 	size_t reply_len;
  63              		.loc 1 65 2
  66:C:/Users/stapi/OneDrive/Desktop/GD32VW553/V1_MQTT_OK/GD32VW55X_Wifi_BLE_SDK/GD32VW55x_RELEASE_V1.0.2/MSDK/wpa_supplicant/wpa_supplicant\ctrl_iface_gdwifi.c **** 
  67:C:/Users/stapi/OneDrive/Desktop/GD32VW553/V1_MQTT_OK/GD32VW55X_Wifi_BLE_SDK/GD32VW55x_RELEASE_V1.0.2/MSDK/wpa_supplicant/wpa_supplicant\ctrl_iface_gdwifi.c **** 	res = recvfrom(sock, &cmd, sizeof(cmd) - 1, 0,
  64              		.loc 1 67 2
  65              		.loc 1 67 8 is_stmt 0
  66 0010 1810     		addi	a4,sp,32
  67 0012 8A87     		mv	a5,sp
  68 0014 8146     		li	a3,0
  69 0016 3D46     		li	a2,15
  70              	.LVL5:
  71 0018 0C08     		addi	a1,sp,16
  72              	.LVL6:
  56:C:/Users/stapi/OneDrive/Desktop/GD32VW553/V1_MQTT_OK/GD32VW55X_Wifi_BLE_SDK/GD32VW55x_RELEASE_V1.0.2/MSDK/wpa_supplicant/wpa_supplicant\ctrl_iface_gdwifi.c **** 	struct ctrl_iface_global_priv *priv = sock_ctx;
  73              		.loc 1 56 1
  74 001a AA84     		mv	s1,a0
  75              		.loc 1 67 8
  76 001c 97000000 		call	lwip_recvfrom
  76      E7800000 
  77              	.LVL7:
  68:C:/Users/stapi/OneDrive/Desktop/GD32VW553/V1_MQTT_OK/GD32VW55X_Wifi_BLE_SDK/GD32VW55x_RELEASE_V1.0.2/MSDK/wpa_supplicant/wpa_supplicant\ctrl_iface_gdwifi.c **** 		       (struct sockaddr *) &from, &fromlen);
  69:C:/Users/stapi/OneDrive/Desktop/GD32VW553/V1_MQTT_OK/GD32VW55X_Wifi_BLE_SDK/GD32VW55x_RELEASE_V1.0.2/MSDK/wpa_supplicant/wpa_supplicant\ctrl_iface_gdwifi.c **** 	if (res < 0) {
  78              		.loc 1 69 2 is_stmt 1
  79              		.loc 1 69 5 is_stmt 0
  80 0024 63500502 		bge	a0,zero,.L3
  70:C:/Users/stapi/OneDrive/Desktop/GD32VW553/V1_MQTT_OK/GD32VW55X_Wifi_BLE_SDK/GD32VW55x_RELEASE_V1.0.2/MSDK/wpa_supplicant/wpa_supplicant\ctrl_iface_gdwifi.c **** 		wpa_printf(MSG_ERROR, "Fail to receive command on WPA ctrl interface");
  81              		.loc 1 70 3 is_stmt 1
  82 0028 B7050000 		lui	a1,%hi(.LC0)
  83 002c 93850500 		addi	a1,a1,%lo(.LC0)
  84 0030 1545     		li	a0,5
  85              	.LVL8:
  86 0032 97000000 		call	wpa_printf
  86      E7800000 
  87              	.LVL9:
  71:C:/Users/stapi/OneDrive/Desktop/GD32VW553/V1_MQTT_OK/GD32VW55X_Wifi_BLE_SDK/GD32VW55x_RELEASE_V1.0.2/MSDK/wpa_supplicant/wpa_supplicant\ctrl_iface_gdwifi.c **** 		return;
  88              		.loc 1 71 3
  89              	.L2:
  72:C:/Users/stapi/OneDrive/Desktop/GD32VW553/V1_MQTT_OK/GD32VW55X_Wifi_BLE_SDK/GD32VW55x_RELEASE_V1.0.2/MSDK/wpa_supplicant/wpa_supplicant\ctrl_iface_gdwifi.c **** 	}
  73:C:/Users/stapi/OneDrive/Desktop/GD32VW553/V1_MQTT_OK/GD32VW55X_Wifi_BLE_SDK/GD32VW55x_RELEASE_V1.0.2/MSDK/wpa_supplicant/wpa_supplicant\ctrl_iface_gdwifi.c **** 	resp.len = cmd.resp_len;
  74:C:/Users/stapi/OneDrive/Desktop/GD32VW553/V1_MQTT_OK/GD32VW55X_Wifi_BLE_SDK/GD32VW55x_RELEASE_V1.0.2/MSDK/wpa_supplicant/wpa_supplicant\ctrl_iface_gdwifi.c **** 
  75:C:/Users/stapi/OneDrive/Desktop/GD32VW553/V1_MQTT_OK/GD32VW55X_Wifi_BLE_SDK/GD32VW55x_RELEASE_V1.0.2/MSDK/wpa_supplicant/wpa_supplicant\ctrl_iface_gdwifi.c **** 	if (cmd.ifname[0] == 0)
  76:C:/Users/stapi/OneDrive/Desktop/GD32VW553/V1_MQTT_OK/GD32VW55X_Wifi_BLE_SDK/GD32VW55x_RELEASE_V1.0.2/MSDK/wpa_supplicant/wpa_supplicant\ctrl_iface_gdwifi.c **** 	{
  77:C:/Users/stapi/OneDrive/Desktop/GD32VW553/V1_MQTT_OK/GD32VW55X_Wifi_BLE_SDK/GD32VW55x_RELEASE_V1.0.2/MSDK/wpa_supplicant/wpa_supplicant\ctrl_iface_gdwifi.c **** 		resp.resp = wpa_supplicant_global_ctrl_iface_process(global, cmd.cmd,
  78:C:/Users/stapi/OneDrive/Desktop/GD32VW553/V1_MQTT_OK/GD32VW55X_Wifi_BLE_SDK/GD32VW55x_RELEASE_V1.0.2/MSDK/wpa_supplicant/wpa_supplicant\ctrl_iface_gdwifi.c **** 								     &resp.len, cmd.resp);
  79:C:/Users/stapi/OneDrive/Desktop/GD32VW553/V1_MQTT_OK/GD32VW55X_Wifi_BLE_SDK/GD32VW55x_RELEASE_V1.0.2/MSDK/wpa_supplicant/wpa_supplicant\ctrl_iface_gdwifi.c **** 	}
  80:C:/Users/stapi/OneDrive/Desktop/GD32VW553/V1_MQTT_OK/GD32VW55X_Wifi_BLE_SDK/GD32VW55x_RELEASE_V1.0.2/MSDK/wpa_supplicant/wpa_supplicant\ctrl_iface_gdwifi.c **** 	else
  81:C:/Users/stapi/OneDrive/Desktop/GD32VW553/V1_MQTT_OK/GD32VW55X_Wifi_BLE_SDK/GD32VW55x_RELEASE_V1.0.2/MSDK/wpa_supplicant/wpa_supplicant\ctrl_iface_gdwifi.c **** 	{
  82:C:/Users/stapi/OneDrive/Desktop/GD32VW553/V1_MQTT_OK/GD32VW55X_Wifi_BLE_SDK/GD32VW55x_RELEASE_V1.0.2/MSDK/wpa_supplicant/wpa_supplicant\ctrl_iface_gdwifi.c **** 		struct wpa_supplicant *wpa_s;
  83:C:/Users/stapi/OneDrive/Desktop/GD32VW553/V1_MQTT_OK/GD32VW55X_Wifi_BLE_SDK/GD32VW55x_RELEASE_V1.0.2/MSDK/wpa_supplicant/wpa_supplicant\ctrl_iface_gdwifi.c **** 		for (wpa_s = global->ifaces; wpa_s; wpa_s = wpa_s->next) {
  84:C:/Users/stapi/OneDrive/Desktop/GD32VW553/V1_MQTT_OK/GD32VW55X_Wifi_BLE_SDK/GD32VW55x_RELEASE_V1.0.2/MSDK/wpa_supplicant/wpa_supplicant\ctrl_iface_gdwifi.c **** 			if (os_strcmp(cmd.ifname, wpa_s->ifname) == 0)
  85:C:/Users/stapi/OneDrive/Desktop/GD32VW553/V1_MQTT_OK/GD32VW55X_Wifi_BLE_SDK/GD32VW55x_RELEASE_V1.0.2/MSDK/wpa_supplicant/wpa_supplicant\ctrl_iface_gdwifi.c **** 				break;
  86:C:/Users/stapi/OneDrive/Desktop/GD32VW553/V1_MQTT_OK/GD32VW55X_Wifi_BLE_SDK/GD32VW55x_RELEASE_V1.0.2/MSDK/wpa_supplicant/wpa_supplicant\ctrl_iface_gdwifi.c **** 		}
  87:C:/Users/stapi/OneDrive/Desktop/GD32VW553/V1_MQTT_OK/GD32VW55X_Wifi_BLE_SDK/GD32VW55x_RELEASE_V1.0.2/MSDK/wpa_supplicant/wpa_supplicant\ctrl_iface_gdwifi.c **** 		if (wpa_s != NULL) {
  88:C:/Users/stapi/OneDrive/Desktop/GD32VW553/V1_MQTT_OK/GD32VW55X_Wifi_BLE_SDK/GD32VW55x_RELEASE_V1.0.2/MSDK/wpa_supplicant/wpa_supplicant\ctrl_iface_gdwifi.c **** 			resp.resp = wpa_supplicant_ctrl_iface_process(wpa_s, cmd.cmd,
  89:C:/Users/stapi/OneDrive/Desktop/GD32VW553/V1_MQTT_OK/GD32VW55X_Wifi_BLE_SDK/GD32VW55x_RELEASE_V1.0.2/MSDK/wpa_supplicant/wpa_supplicant\ctrl_iface_gdwifi.c **** 								      &resp.len, cmd.resp);
  90:C:/Users/stapi/OneDrive/Desktop/GD32VW553/V1_MQTT_OK/GD32VW55X_Wifi_BLE_SDK/GD32VW55x_RELEASE_V1.0.2/MSDK/wpa_supplicant/wpa_supplicant\ctrl_iface_gdwifi.c **** 
  91:C:/Users/stapi/OneDrive/Desktop/GD32VW553/V1_MQTT_OK/GD32VW55X_Wifi_BLE_SDK/GD32VW55x_RELEASE_V1.0.2/MSDK/wpa_supplicant/wpa_supplicant\ctrl_iface_gdwifi.c **** 		} else {
  92:C:/Users/stapi/OneDrive/Desktop/GD32VW553/V1_MQTT_OK/GD32VW55X_Wifi_BLE_SDK/GD32VW55x_RELEASE_V1.0.2/MSDK/wpa_supplicant/wpa_supplicant\ctrl_iface_gdwifi.c **** 			resp.resp = NULL;
  93:C:/Users/stapi/OneDrive/Desktop/GD32VW553/V1_MQTT_OK/GD32VW55X_Wifi_BLE_SDK/GD32VW55x_RELEASE_V1.0.2/MSDK/wpa_supplicant/wpa_supplicant\ctrl_iface_gdwifi.c **** 		}
  94:C:/Users/stapi/OneDrive/Desktop/GD32VW553/V1_MQTT_OK/GD32VW55X_Wifi_BLE_SDK/GD32VW55x_RELEASE_V1.0.2/MSDK/wpa_supplicant/wpa_supplicant\ctrl_iface_gdwifi.c **** 	}
  95:C:/Users/stapi/OneDrive/Desktop/GD32VW553/V1_MQTT_OK/GD32VW55X_Wifi_BLE_SDK/GD32VW55x_RELEASE_V1.0.2/MSDK/wpa_supplicant/wpa_supplicant\ctrl_iface_gdwifi.c **** 
  96:C:/Users/stapi/OneDrive/Desktop/GD32VW553/V1_MQTT_OK/GD32VW55X_Wifi_BLE_SDK/GD32VW55x_RELEASE_V1.0.2/MSDK/wpa_supplicant/wpa_supplicant\ctrl_iface_gdwifi.c **** 	if (resp.resp) {
  97:C:/Users/stapi/OneDrive/Desktop/GD32VW553/V1_MQTT_OK/GD32VW55X_Wifi_BLE_SDK/GD32VW55x_RELEASE_V1.0.2/MSDK/wpa_supplicant/wpa_supplicant\ctrl_iface_gdwifi.c **** 		if (os_strncmp(resp.resp, "FAIL", 4) == 0)
  98:C:/Users/stapi/OneDrive/Desktop/GD32VW553/V1_MQTT_OK/GD32VW55X_Wifi_BLE_SDK/GD32VW55x_RELEASE_V1.0.2/MSDK/wpa_supplicant/wpa_supplicant\ctrl_iface_gdwifi.c **** 			resp.status = WIFI_WPA_CMD_FAILED;
  99:C:/Users/stapi/OneDrive/Desktop/GD32VW553/V1_MQTT_OK/GD32VW55X_Wifi_BLE_SDK/GD32VW55x_RELEASE_V1.0.2/MSDK/wpa_supplicant/wpa_supplicant\ctrl_iface_gdwifi.c **** 		else
 100:C:/Users/stapi/OneDrive/Desktop/GD32VW553/V1_MQTT_OK/GD32VW55X_Wifi_BLE_SDK/GD32VW55x_RELEASE_V1.0.2/MSDK/wpa_supplicant/wpa_supplicant\ctrl_iface_gdwifi.c **** 			resp.status = WIFI_WPA_CMD_OK;
 101:C:/Users/stapi/OneDrive/Desktop/GD32VW553/V1_MQTT_OK/GD32VW55X_Wifi_BLE_SDK/GD32VW55x_RELEASE_V1.0.2/MSDK/wpa_supplicant/wpa_supplicant\ctrl_iface_gdwifi.c **** 	} else {
 102:C:/Users/stapi/OneDrive/Desktop/GD32VW553/V1_MQTT_OK/GD32VW55X_Wifi_BLE_SDK/GD32VW55x_RELEASE_V1.0.2/MSDK/wpa_supplicant/wpa_supplicant\ctrl_iface_gdwifi.c **** 		resp.status = WIFI_WPA_CMD_FAILED;
 103:C:/Users/stapi/OneDrive/Desktop/GD32VW553/V1_MQTT_OK/GD32VW55X_Wifi_BLE_SDK/GD32VW55x_RELEASE_V1.0.2/MSDK/wpa_supplicant/wpa_supplicant\ctrl_iface_gdwifi.c **** 		resp.len = 0;
 104:C:/Users/stapi/OneDrive/Desktop/GD32VW553/V1_MQTT_OK/GD32VW55X_Wifi_BLE_SDK/GD32VW55x_RELEASE_V1.0.2/MSDK/wpa_supplicant/wpa_supplicant\ctrl_iface_gdwifi.c **** 	}
 105:C:/Users/stapi/OneDrive/Desktop/GD32VW553/V1_MQTT_OK/GD32VW55X_Wifi_BLE_SDK/GD32VW55x_RELEASE_V1.0.2/MSDK/wpa_supplicant/wpa_supplicant\ctrl_iface_gdwifi.c **** 
 106:C:/Users/stapi/OneDrive/Desktop/GD32VW553/V1_MQTT_OK/GD32VW55X_Wifi_BLE_SDK/GD32VW55x_RELEASE_V1.0.2/MSDK/wpa_supplicant/wpa_supplicant\ctrl_iface_gdwifi.c **** 	sendto(sock, &resp, sizeof(resp), 0, (struct sockaddr *)&from, fromlen);
 107:C:/Users/stapi/OneDrive/Desktop/GD32VW553/V1_MQTT_OK/GD32VW55X_Wifi_BLE_SDK/GD32VW55x_RELEASE_V1.0.2/MSDK/wpa_supplicant/wpa_supplicant\ctrl_iface_gdwifi.c **** }
  90              		.loc 1 107 1 is_stmt 0
  91 003a 4561     		addi	sp,sp,48
  92              		.cfi_remember_state
  93              		.cfi_def_cfa_offset 0
  94 003c 17030000 		tail	__riscv_restore_2
  94      67000300 
  95              		.cfi_restore 9
  96              		.cfi_restore 8
  97              		.cfi_restore 1
  98              		.cfi_def_cfa_offset -16
  99              	.LVL10:
 100              	.L3:
 101              		.cfi_restore_state
  73:C:/Users/stapi/OneDrive/Desktop/GD32VW553/V1_MQTT_OK/GD32VW55X_Wifi_BLE_SDK/GD32VW55x_RELEASE_V1.0.2/MSDK/wpa_supplicant/wpa_supplicant\ctrl_iface_gdwifi.c **** 
 102              		.loc 1 73 2 is_stmt 1
  73:C:/Users/stapi/OneDrive/Desktop/GD32VW553/V1_MQTT_OK/GD32VW55X_Wifi_BLE_SDK/GD32VW55x_RELEASE_V1.0.2/MSDK/wpa_supplicant/wpa_supplicant\ctrl_iface_gdwifi.c **** 
 103              		.loc 1 73 11 is_stmt 0
 104 0044 F247     		lw	a5,28(sp)
 105 0046 3EC6     		sw	a5,12(sp)
  75:C:/Users/stapi/OneDrive/Desktop/GD32VW553/V1_MQTT_OK/GD32VW55X_Wifi_BLE_SDK/GD32VW55x_RELEASE_V1.0.2/MSDK/wpa_supplicant/wpa_supplicant\ctrl_iface_gdwifi.c **** 	{
 106              		.loc 1 75 2 is_stmt 1
  75:C:/Users/stapi/OneDrive/Desktop/GD32VW553/V1_MQTT_OK/GD32VW55X_Wifi_BLE_SDK/GD32VW55x_RELEASE_V1.0.2/MSDK/wpa_supplicant/wpa_supplicant\ctrl_iface_gdwifi.c **** 	{
 107              		.loc 1 75 5 is_stmt 0
 108 0048 83070101 		lb	a5,16(sp)
 109 004c B1E3     		bne	a5,zero,.L5
  77:C:/Users/stapi/OneDrive/Desktop/GD32VW553/V1_MQTT_OK/GD32VW55X_Wifi_BLE_SDK/GD32VW55x_RELEASE_V1.0.2/MSDK/wpa_supplicant/wpa_supplicant\ctrl_iface_gdwifi.c **** 								     &resp.len, cmd.resp);
 110              		.loc 1 77 3 is_stmt 1
  77:C:/Users/stapi/OneDrive/Desktop/GD32VW553/V1_MQTT_OK/GD32VW55X_Wifi_BLE_SDK/GD32VW55x_RELEASE_V1.0.2/MSDK/wpa_supplicant/wpa_supplicant\ctrl_iface_gdwifi.c **** 								     &resp.len, cmd.resp);
 111              		.loc 1 77 15 is_stmt 0
 112 004e E246     		lw	a3,24(sp)
 113 0050 D245     		lw	a1,20(sp)
 114 0052 7000     		addi	a2,sp,12
 115 0054 2285     		mv	a0,s0
 116              	.LVL11:
 117 0056 97000000 		call	wpa_supplicant_global_ctrl_iface_process
 117      E7800000 
 118              	.LVL12:
 119              	.L16:
 120              	.LBB2:
  88:C:/Users/stapi/OneDrive/Desktop/GD32VW553/V1_MQTT_OK/GD32VW55X_Wifi_BLE_SDK/GD32VW55x_RELEASE_V1.0.2/MSDK/wpa_supplicant/wpa_supplicant\ctrl_iface_gdwifi.c **** 								      &resp.len, cmd.resp);
 121              		.loc 1 88 14
 122 005e 2AC4     		sw	a0,8(sp)
 123              	.L6:
 124              	.LBE2:
  96:C:/Users/stapi/OneDrive/Desktop/GD32VW553/V1_MQTT_OK/GD32VW55X_Wifi_BLE_SDK/GD32VW55x_RELEASE_V1.0.2/MSDK/wpa_supplicant/wpa_supplicant\ctrl_iface_gdwifi.c **** 		if (os_strncmp(resp.resp, "FAIL", 4) == 0)
 125              		.loc 1 96 2 is_stmt 1
  96:C:/Users/stapi/OneDrive/Desktop/GD32VW553/V1_MQTT_OK/GD32VW55X_Wifi_BLE_SDK/GD32VW55x_RELEASE_V1.0.2/MSDK/wpa_supplicant/wpa_supplicant\ctrl_iface_gdwifi.c **** 		if (os_strncmp(resp.resp, "FAIL", 4) == 0)
 126              		.loc 1 96 10 is_stmt 0
 127 0060 2245     		lw	a0,8(sp)
  96:C:/Users/stapi/OneDrive/Desktop/GD32VW553/V1_MQTT_OK/GD32VW55X_Wifi_BLE_SDK/GD32VW55x_RELEASE_V1.0.2/MSDK/wpa_supplicant/wpa_supplicant\ctrl_iface_gdwifi.c **** 		if (os_strncmp(resp.resp, "FAIL", 4) == 0)
 128              		.loc 1 96 5
 129 0062 21C9     		beq	a0,zero,.L11
  97:C:/Users/stapi/OneDrive/Desktop/GD32VW553/V1_MQTT_OK/GD32VW55X_Wifi_BLE_SDK/GD32VW55x_RELEASE_V1.0.2/MSDK/wpa_supplicant/wpa_supplicant\ctrl_iface_gdwifi.c **** 			resp.status = WIFI_WPA_CMD_FAILED;
 130              		.loc 1 97 3 is_stmt 1
  97:C:/Users/stapi/OneDrive/Desktop/GD32VW553/V1_MQTT_OK/GD32VW55X_Wifi_BLE_SDK/GD32VW55x_RELEASE_V1.0.2/MSDK/wpa_supplicant/wpa_supplicant\ctrl_iface_gdwifi.c **** 			resp.status = WIFI_WPA_CMD_FAILED;
 131              		.loc 1 97 7 is_stmt 0
 132 0064 B7050000 		lui	a1,%hi(.LC1)
 133 0068 1146     		li	a2,4
 134 006a 93850500 		addi	a1,a1,%lo(.LC1)
 135 006e 97000000 		call	os_strncmp
 135      E7800000 
 136              	.LVL13:
  97:C:/Users/stapi/OneDrive/Desktop/GD32VW553/V1_MQTT_OK/GD32VW55X_Wifi_BLE_SDK/GD32VW55x_RELEASE_V1.0.2/MSDK/wpa_supplicant/wpa_supplicant\ctrl_iface_gdwifi.c **** 			resp.status = WIFI_WPA_CMD_FAILED;
 137              		.loc 1 97 6
 138 0076 1DE9     		bne	a0,zero,.L12
  98:C:/Users/stapi/OneDrive/Desktop/GD32VW553/V1_MQTT_OK/GD32VW55X_Wifi_BLE_SDK/GD32VW55x_RELEASE_V1.0.2/MSDK/wpa_supplicant/wpa_supplicant\ctrl_iface_gdwifi.c **** 		else
 139              		.loc 1 98 4 is_stmt 1
  98:C:/Users/stapi/OneDrive/Desktop/GD32VW553/V1_MQTT_OK/GD32VW55X_Wifi_BLE_SDK/GD32VW55x_RELEASE_V1.0.2/MSDK/wpa_supplicant/wpa_supplicant\ctrl_iface_gdwifi.c **** 		else
 140              		.loc 1 98 16 is_stmt 0
 141 0078 02C2     		sw	zero,4(sp)
 142              	.L13:
 106:C:/Users/stapi/OneDrive/Desktop/GD32VW553/V1_MQTT_OK/GD32VW55X_Wifi_BLE_SDK/GD32VW55x_RELEASE_V1.0.2/MSDK/wpa_supplicant/wpa_supplicant\ctrl_iface_gdwifi.c **** }
 143              		.loc 1 106 2 is_stmt 1 discriminator 1
 144 007a 8247     		lw	a5,0(sp)
 145 007c 1810     		addi	a4,sp,32
 146 007e 8146     		li	a3,0
 147 0080 3146     		li	a2,12
 148 0082 4C00     		addi	a1,sp,4
 149 0084 2685     		mv	a0,s1
 150 0086 97000000 		call	lwip_sendto
 150      E7800000 
 151              	.LVL14:
 152 008e 75B7     		j	.L2
 153              	.LVL15:
 154              	.L5:
 155              	.LBB3:
  82:C:/Users/stapi/OneDrive/Desktop/GD32VW553/V1_MQTT_OK/GD32VW55X_Wifi_BLE_SDK/GD32VW55x_RELEASE_V1.0.2/MSDK/wpa_supplicant/wpa_supplicant\ctrl_iface_gdwifi.c **** 		for (wpa_s = global->ifaces; wpa_s; wpa_s = wpa_s->next) {
 156              		.loc 1 82 3
  83:C:/Users/stapi/OneDrive/Desktop/GD32VW553/V1_MQTT_OK/GD32VW55X_Wifi_BLE_SDK/GD32VW55x_RELEASE_V1.0.2/MSDK/wpa_supplicant/wpa_supplicant\ctrl_iface_gdwifi.c **** 			if (os_strcmp(cmd.ifname, wpa_s->ifname) == 0)
 157              		.loc 1 83 3
  83:C:/Users/stapi/OneDrive/Desktop/GD32VW553/V1_MQTT_OK/GD32VW55X_Wifi_BLE_SDK/GD32VW55x_RELEASE_V1.0.2/MSDK/wpa_supplicant/wpa_supplicant\ctrl_iface_gdwifi.c **** 			if (os_strcmp(cmd.ifname, wpa_s->ifname) == 0)
 158              		.loc 1 83 14 is_stmt 0
 159 0090 0040     		lw	s0,0(s0)
 160              	.LVL16:
 161              	.L7:
  83:C:/Users/stapi/OneDrive/Desktop/GD32VW553/V1_MQTT_OK/GD32VW55X_Wifi_BLE_SDK/GD32VW55x_RELEASE_V1.0.2/MSDK/wpa_supplicant/wpa_supplicant\ctrl_iface_gdwifi.c **** 			if (os_strcmp(cmd.ifname, wpa_s->ifname) == 0)
 162              		.loc 1 83 32 is_stmt 1 discriminator 1
  83:C:/Users/stapi/OneDrive/Desktop/GD32VW553/V1_MQTT_OK/GD32VW55X_Wifi_BLE_SDK/GD32VW55x_RELEASE_V1.0.2/MSDK/wpa_supplicant/wpa_supplicant\ctrl_iface_gdwifi.c **** 			if (os_strcmp(cmd.ifname, wpa_s->ifname) == 0)
 163              		.loc 1 83 3 is_stmt 0 discriminator 1
 164 0092 19E0     		bne	s0,zero,.L9
  87:C:/Users/stapi/OneDrive/Desktop/GD32VW553/V1_MQTT_OK/GD32VW55X_Wifi_BLE_SDK/GD32VW55x_RELEASE_V1.0.2/MSDK/wpa_supplicant/wpa_supplicant\ctrl_iface_gdwifi.c **** 			resp.resp = wpa_supplicant_ctrl_iface_process(wpa_s, cmd.cmd,
 165              		.loc 1 87 3 is_stmt 1
  92:C:/Users/stapi/OneDrive/Desktop/GD32VW553/V1_MQTT_OK/GD32VW55X_Wifi_BLE_SDK/GD32VW55x_RELEASE_V1.0.2/MSDK/wpa_supplicant/wpa_supplicant\ctrl_iface_gdwifi.c **** 		}
 166              		.loc 1 92 4
  92:C:/Users/stapi/OneDrive/Desktop/GD32VW553/V1_MQTT_OK/GD32VW55X_Wifi_BLE_SDK/GD32VW55x_RELEASE_V1.0.2/MSDK/wpa_supplicant/wpa_supplicant\ctrl_iface_gdwifi.c **** 		}
 167              		.loc 1 92 14 is_stmt 0
 168 0094 02C4     		sw	zero,8(sp)
 169 0096 E9B7     		j	.L6
 170              	.L9:
  84:C:/Users/stapi/OneDrive/Desktop/GD32VW553/V1_MQTT_OK/GD32VW55X_Wifi_BLE_SDK/GD32VW55x_RELEASE_V1.0.2/MSDK/wpa_supplicant/wpa_supplicant\ctrl_iface_gdwifi.c **** 				break;
 171              		.loc 1 84 4 is_stmt 1
  84:C:/Users/stapi/OneDrive/Desktop/GD32VW553/V1_MQTT_OK/GD32VW55X_Wifi_BLE_SDK/GD32VW55x_RELEASE_V1.0.2/MSDK/wpa_supplicant/wpa_supplicant\ctrl_iface_gdwifi.c **** 				break;
 172              		.loc 1 84 8 is_stmt 0
 173 0098 93050405 		addi	a1,s0,80
 174 009c 0808     		addi	a0,sp,16
 175 009e 97000000 		call	os_strcmp
 175      E7800000 
 176              	.LVL17:
  84:C:/Users/stapi/OneDrive/Desktop/GD32VW553/V1_MQTT_OK/GD32VW55X_Wifi_BLE_SDK/GD32VW55x_RELEASE_V1.0.2/MSDK/wpa_supplicant/wpa_supplicant\ctrl_iface_gdwifi.c **** 				break;
 177              		.loc 1 84 7
 178 00a6 09C9     		beq	a0,zero,.L8
  83:C:/Users/stapi/OneDrive/Desktop/GD32VW553/V1_MQTT_OK/GD32VW55X_Wifi_BLE_SDK/GD32VW55x_RELEASE_V1.0.2/MSDK/wpa_supplicant/wpa_supplicant\ctrl_iface_gdwifi.c **** 			if (os_strcmp(cmd.ifname, wpa_s->ifname) == 0)
 179              		.loc 1 83 39 is_stmt 1 discriminator 2
  83:C:/Users/stapi/OneDrive/Desktop/GD32VW553/V1_MQTT_OK/GD32VW55X_Wifi_BLE_SDK/GD32VW55x_RELEASE_V1.0.2/MSDK/wpa_supplicant/wpa_supplicant\ctrl_iface_gdwifi.c **** 			if (os_strcmp(cmd.ifname, wpa_s->ifname) == 0)
 180              		.loc 1 83 45 is_stmt 0 discriminator 2
 181 00a8 004C     		lw	s0,24(s0)
 182              	.LVL18:
 183 00aa E5B7     		j	.L7
 184              	.LVL19:
 185              	.L12:
 186              	.LBE3:
 100:C:/Users/stapi/OneDrive/Desktop/GD32VW553/V1_MQTT_OK/GD32VW55X_Wifi_BLE_SDK/GD32VW55x_RELEASE_V1.0.2/MSDK/wpa_supplicant/wpa_supplicant\ctrl_iface_gdwifi.c **** 	} else {
 187              		.loc 1 100 4 is_stmt 1
 100:C:/Users/stapi/OneDrive/Desktop/GD32VW553/V1_MQTT_OK/GD32VW55X_Wifi_BLE_SDK/GD32VW55x_RELEASE_V1.0.2/MSDK/wpa_supplicant/wpa_supplicant\ctrl_iface_gdwifi.c **** 	} else {
 188              		.loc 1 100 16 is_stmt 0
 189 00ac 8547     		li	a5,1
 190 00ae 3EC2     		sw	a5,4(sp)
 191 00b0 E9B7     		j	.L13
 192              	.L11:
 102:C:/Users/stapi/OneDrive/Desktop/GD32VW553/V1_MQTT_OK/GD32VW55X_Wifi_BLE_SDK/GD32VW55x_RELEASE_V1.0.2/MSDK/wpa_supplicant/wpa_supplicant\ctrl_iface_gdwifi.c **** 		resp.len = 0;
 193              		.loc 1 102 3 is_stmt 1
 102:C:/Users/stapi/OneDrive/Desktop/GD32VW553/V1_MQTT_OK/GD32VW55X_Wifi_BLE_SDK/GD32VW55x_RELEASE_V1.0.2/MSDK/wpa_supplicant/wpa_supplicant\ctrl_iface_gdwifi.c **** 		resp.len = 0;
 194              		.loc 1 102 15 is_stmt 0
 195 00b2 02C2     		sw	zero,4(sp)
 103:C:/Users/stapi/OneDrive/Desktop/GD32VW553/V1_MQTT_OK/GD32VW55X_Wifi_BLE_SDK/GD32VW55x_RELEASE_V1.0.2/MSDK/wpa_supplicant/wpa_supplicant\ctrl_iface_gdwifi.c **** 	}
 196              		.loc 1 103 3 is_stmt 1
 103:C:/Users/stapi/OneDrive/Desktop/GD32VW553/V1_MQTT_OK/GD32VW55X_Wifi_BLE_SDK/GD32VW55x_RELEASE_V1.0.2/MSDK/wpa_supplicant/wpa_supplicant\ctrl_iface_gdwifi.c **** 	}
 197              		.loc 1 103 12 is_stmt 0
 198 00b4 02C6     		sw	zero,12(sp)
 199 00b6 D1B7     		j	.L13
 200              	.LVL20:
 201              	.L8:
 202              	.LBB4:
  87:C:/Users/stapi/OneDrive/Desktop/GD32VW553/V1_MQTT_OK/GD32VW55X_Wifi_BLE_SDK/GD32VW55x_RELEASE_V1.0.2/MSDK/wpa_supplicant/wpa_supplicant\ctrl_iface_gdwifi.c **** 			resp.resp = wpa_supplicant_ctrl_iface_process(wpa_s, cmd.cmd,
 203              		.loc 1 87 3 is_stmt 1
  88:C:/Users/stapi/OneDrive/Desktop/GD32VW553/V1_MQTT_OK/GD32VW55X_Wifi_BLE_SDK/GD32VW55x_RELEASE_V1.0.2/MSDK/wpa_supplicant/wpa_supplicant\ctrl_iface_gdwifi.c **** 								      &resp.len, cmd.resp);
 204              		.loc 1 88 4
  88:C:/Users/stapi/OneDrive/Desktop/GD32VW553/V1_MQTT_OK/GD32VW55X_Wifi_BLE_SDK/GD32VW55x_RELEASE_V1.0.2/MSDK/wpa_supplicant/wpa_supplicant\ctrl_iface_gdwifi.c **** 								      &resp.len, cmd.resp);
 205              		.loc 1 88 16 is_stmt 0
 206 00b8 E246     		lw	a3,24(sp)
 207 00ba D245     		lw	a1,20(sp)
 208 00bc 7000     		addi	a2,sp,12
 209 00be 2285     		mv	a0,s0
 210 00c0 97000000 		call	wpa_supplicant_ctrl_iface_process
 210      E7800000 
 211              	.LVL21:
 212 00c8 59BF     		j	.L16
 213              	.LBE4:
 214              		.cfi_endproc
 215              	.LFE165:
 217              		.section	.text.wpa_supplicant_ctrl_iface_init,"ax",@progbits
 218              		.align	1
 219              		.globl	wpa_supplicant_ctrl_iface_init
 221              	wpa_supplicant_ctrl_iface_init:
 222              	.LFB162:
  39:C:/Users/stapi/OneDrive/Desktop/GD32VW553/V1_MQTT_OK/GD32VW55X_Wifi_BLE_SDK/GD32VW55x_RELEASE_V1.0.2/MSDK/wpa_supplicant/wpa_supplicant\ctrl_iface_gdwifi.c **** 	// cannot return NULL
 223              		.loc 1 39 1 is_stmt 1
 224              		.cfi_startproc
 225              	.LVL22:
  41:C:/Users/stapi/OneDrive/Desktop/GD32VW553/V1_MQTT_OK/GD32VW55X_Wifi_BLE_SDK/GD32VW55x_RELEASE_V1.0.2/MSDK/wpa_supplicant/wpa_supplicant\ctrl_iface_gdwifi.c **** }
 226              		.loc 1 41 2
  42:C:/Users/stapi/OneDrive/Desktop/GD32VW553/V1_MQTT_OK/GD32VW55X_Wifi_BLE_SDK/GD32VW55x_RELEASE_V1.0.2/MSDK/wpa_supplicant/wpa_supplicant\ctrl_iface_gdwifi.c **** 
 227              		.loc 1 42 1 is_stmt 0
 228 0000 0545     		li	a0,1
 229              	.LVL23:
 230 0002 8280     		ret
 231              		.cfi_endproc
 232              	.LFE162:
 234              		.section	.text.wpa_supplicant_ctrl_iface_deinit,"ax",@progbits
 235              		.align	1
 236              		.globl	wpa_supplicant_ctrl_iface_deinit
 238              	wpa_supplicant_ctrl_iface_deinit:
 239              	.LFB163:
  46:C:/Users/stapi/OneDrive/Desktop/GD32VW553/V1_MQTT_OK/GD32VW55X_Wifi_BLE_SDK/GD32VW55x_RELEASE_V1.0.2/MSDK/wpa_supplicant/wpa_supplicant\ctrl_iface_gdwifi.c **** }
 240              		.loc 1 46 1 is_stmt 1
 241              		.cfi_startproc
 242              	.LVL24:
  47:C:/Users/stapi/OneDrive/Desktop/GD32VW553/V1_MQTT_OK/GD32VW55X_Wifi_BLE_SDK/GD32VW55x_RELEASE_V1.0.2/MSDK/wpa_supplicant/wpa_supplicant\ctrl_iface_gdwifi.c **** 
 243              		.loc 1 47 1
 244 0000 8280     		ret
 245              		.cfi_endproc
 246              	.LFE163:
 248              		.section	.text.wpa_supplicant_ctrl_iface_wait,"ax",@progbits
 249              		.align	1
 250              		.globl	wpa_supplicant_ctrl_iface_wait
 252              	wpa_supplicant_ctrl_iface_wait:
 253              	.LFB164:
  50:C:/Users/stapi/OneDrive/Desktop/GD32VW553/V1_MQTT_OK/GD32VW55X_Wifi_BLE_SDK/GD32VW55x_RELEASE_V1.0.2/MSDK/wpa_supplicant/wpa_supplicant\ctrl_iface_gdwifi.c **** }
 254              		.loc 1 50 1
 255              		.cfi_startproc
 256              	.LVL25:
  51:C:/Users/stapi/OneDrive/Desktop/GD32VW553/V1_MQTT_OK/GD32VW55X_Wifi_BLE_SDK/GD32VW55x_RELEASE_V1.0.2/MSDK/wpa_supplicant/wpa_supplicant\ctrl_iface_gdwifi.c **** 
 257              		.loc 1 51 1
 258 0000 8280     		ret
 259              		.cfi_endproc
 260              	.LFE164:
 262              		.section	.rodata.wpa_supplicant_global_ctrl_iface_init.str1.4,"aMS",@progbits,1
 263              		.align	2
 264              	.LC2:
 265 0000 4661696C 		.string	"Failed to start WPA ctrl interface"
 265      65642074 
 265      6F207374 
 265      61727420 
 265      57504120 
 266              		.section	.text.wpa_supplicant_global_ctrl_iface_init,"ax",@progbits
 267              		.align	1
 268              		.globl	wpa_supplicant_global_ctrl_iface_init
 270              	wpa_supplicant_global_ctrl_iface_init:
 271              	.LFB166:
 108:C:/Users/stapi/OneDrive/Desktop/GD32VW553/V1_MQTT_OK/GD32VW55X_Wifi_BLE_SDK/GD32VW55x_RELEASE_V1.0.2/MSDK/wpa_supplicant/wpa_supplicant\ctrl_iface_gdwifi.c **** 
 109:C:/Users/stapi/OneDrive/Desktop/GD32VW553/V1_MQTT_OK/GD32VW55X_Wifi_BLE_SDK/GD32VW55x_RELEASE_V1.0.2/MSDK/wpa_supplicant/wpa_supplicant\ctrl_iface_gdwifi.c **** 
 110:C:/Users/stapi/OneDrive/Desktop/GD32VW553/V1_MQTT_OK/GD32VW55X_Wifi_BLE_SDK/GD32VW55x_RELEASE_V1.0.2/MSDK/wpa_supplicant/wpa_supplicant\ctrl_iface_gdwifi.c **** struct ctrl_iface_global_priv *
 111:C:/Users/stapi/OneDrive/Desktop/GD32VW553/V1_MQTT_OK/GD32VW55X_Wifi_BLE_SDK/GD32VW55x_RELEASE_V1.0.2/MSDK/wpa_supplicant/wpa_supplicant\ctrl_iface_gdwifi.c **** wpa_supplicant_global_ctrl_iface_init(struct wpa_global *global)
 112:C:/Users/stapi/OneDrive/Desktop/GD32VW553/V1_MQTT_OK/GD32VW55X_Wifi_BLE_SDK/GD32VW55x_RELEASE_V1.0.2/MSDK/wpa_supplicant/wpa_supplicant\ctrl_iface_gdwifi.c **** {
 272              		.loc 1 112 1
 273              		.cfi_startproc
 274              	.LVL26:
 275 0000 17030000 		call	t0,__riscv_save_4
 275      E7020300 
 276              		.cfi_offset 19, -20
 277              		.cfi_offset 18, -16
 278              		.cfi_offset 9, -12
 279              		.cfi_offset 8, -8
 280              		.cfi_offset 1, -4
 281              		.cfi_def_cfa_offset 32
 113:C:/Users/stapi/OneDrive/Desktop/GD32VW553/V1_MQTT_OK/GD32VW55X_Wifi_BLE_SDK/GD32VW55x_RELEASE_V1.0.2/MSDK/wpa_supplicant/wpa_supplicant\ctrl_iface_gdwifi.c **** 	struct ctrl_iface_global_priv *priv;
 282              		.loc 1 113 2
 114:C:/Users/stapi/OneDrive/Desktop/GD32VW553/V1_MQTT_OK/GD32VW55X_Wifi_BLE_SDK/GD32VW55x_RELEASE_V1.0.2/MSDK/wpa_supplicant/wpa_supplicant\ctrl_iface_gdwifi.c **** 	struct sockaddr_in addr;
 283              		.loc 1 114 2
 115:C:/Users/stapi/OneDrive/Desktop/GD32VW553/V1_MQTT_OK/GD32VW55X_Wifi_BLE_SDK/GD32VW55x_RELEASE_V1.0.2/MSDK/wpa_supplicant/wpa_supplicant\ctrl_iface_gdwifi.c **** 	int port = WPA_GLOBAL_CTRL_IFACE_PORT;
 284              		.loc 1 115 2
 285              	.LVL27:
 116:C:/Users/stapi/OneDrive/Desktop/GD32VW553/V1_MQTT_OK/GD32VW55X_Wifi_BLE_SDK/GD32VW55x_RELEASE_V1.0.2/MSDK/wpa_supplicant/wpa_supplicant\ctrl_iface_gdwifi.c **** 
 117:C:/Users/stapi/OneDrive/Desktop/GD32VW553/V1_MQTT_OK/GD32VW55X_Wifi_BLE_SDK/GD32VW55x_RELEASE_V1.0.2/MSDK/wpa_supplicant/wpa_supplicant\ctrl_iface_gdwifi.c **** 	priv = os_zalloc(sizeof(*priv));
 286              		.loc 1 117 2
 112:C:/Users/stapi/OneDrive/Desktop/GD32VW553/V1_MQTT_OK/GD32VW55X_Wifi_BLE_SDK/GD32VW55x_RELEASE_V1.0.2/MSDK/wpa_supplicant/wpa_supplicant\ctrl_iface_gdwifi.c **** 	struct ctrl_iface_global_priv *priv;
 287              		.loc 1 112 1 is_stmt 0
 288 0008 4111     		addi	sp,sp,-16
 289              		.cfi_def_cfa_offset 48
 112:C:/Users/stapi/OneDrive/Desktop/GD32VW553/V1_MQTT_OK/GD32VW55X_Wifi_BLE_SDK/GD32VW55x_RELEASE_V1.0.2/MSDK/wpa_supplicant/wpa_supplicant\ctrl_iface_gdwifi.c **** 	struct ctrl_iface_global_priv *priv;
 290              		.loc 1 112 1
 291 000a 2A89     		mv	s2,a0
 292              		.loc 1 117 9
 293 000c 1145     		li	a0,4
 294              	.LVL28:
 295 000e 97000000 		call	os_zalloc
 295      E7800000 
 296              	.LVL29:
 297 0016 2A84     		mv	s0,a0
 298              	.LVL30:
 118:C:/Users/stapi/OneDrive/Desktop/GD32VW553/V1_MQTT_OK/GD32VW55X_Wifi_BLE_SDK/GD32VW55x_RELEASE_V1.0.2/MSDK/wpa_supplicant/wpa_supplicant\ctrl_iface_gdwifi.c **** 	if (priv == NULL)
 299              		.loc 1 118 2 is_stmt 1
 300              		.loc 1 118 5 is_stmt 0
 301 0018 35C5     		beq	a0,zero,.L21
 119:C:/Users/stapi/OneDrive/Desktop/GD32VW553/V1_MQTT_OK/GD32VW55X_Wifi_BLE_SDK/GD32VW55x_RELEASE_V1.0.2/MSDK/wpa_supplicant/wpa_supplicant\ctrl_iface_gdwifi.c **** 		goto fail;
 120:C:/Users/stapi/OneDrive/Desktop/GD32VW553/V1_MQTT_OK/GD32VW55X_Wifi_BLE_SDK/GD32VW55x_RELEASE_V1.0.2/MSDK/wpa_supplicant/wpa_supplicant\ctrl_iface_gdwifi.c **** 
 121:C:/Users/stapi/OneDrive/Desktop/GD32VW553/V1_MQTT_OK/GD32VW55X_Wifi_BLE_SDK/GD32VW55x_RELEASE_V1.0.2/MSDK/wpa_supplicant/wpa_supplicant\ctrl_iface_gdwifi.c **** 	priv->sock = socket(PF_INET, SOCK_DGRAM, 0);
 302              		.loc 1 121 2 is_stmt 1
 303              		.loc 1 121 15 is_stmt 0
 304 001a 0146     		li	a2,0
 305 001c 8945     		li	a1,2
 306 001e 0945     		li	a0,2
 307 0020 97000000 		call	lwip_socket
 307      E7800000 
 308              	.LVL31:
 309              		.loc 1 121 13
 310 0028 08C0     		sw	a0,0(s0)
 122:C:/Users/stapi/OneDrive/Desktop/GD32VW553/V1_MQTT_OK/GD32VW55X_Wifi_BLE_SDK/GD32VW55x_RELEASE_V1.0.2/MSDK/wpa_supplicant/wpa_supplicant\ctrl_iface_gdwifi.c **** 	if (priv->sock < 0)
 311              		.loc 1 122 2 is_stmt 1
 312              		.loc 1 122 5 is_stmt 0
 313 002a 634D0504 		blt	a0,zero,.L21
 123:C:/Users/stapi/OneDrive/Desktop/GD32VW553/V1_MQTT_OK/GD32VW55X_Wifi_BLE_SDK/GD32VW55x_RELEASE_V1.0.2/MSDK/wpa_supplicant/wpa_supplicant\ctrl_iface_gdwifi.c **** 		goto fail;
 124:C:/Users/stapi/OneDrive/Desktop/GD32VW553/V1_MQTT_OK/GD32VW55X_Wifi_BLE_SDK/GD32VW55x_RELEASE_V1.0.2/MSDK/wpa_supplicant/wpa_supplicant\ctrl_iface_gdwifi.c **** 
 125:C:/Users/stapi/OneDrive/Desktop/GD32VW553/V1_MQTT_OK/GD32VW55X_Wifi_BLE_SDK/GD32VW55x_RELEASE_V1.0.2/MSDK/wpa_supplicant/wpa_supplicant\ctrl_iface_gdwifi.c **** 	os_memset(&addr, 0, sizeof(addr));
 314              		.loc 1 125 2 is_stmt 1
 315 002e 4146     		li	a2,16
 316 0030 8145     		li	a1,0
 317 0032 0A85     		mv	a0,sp
 318 0034 97000000 		call	os_memset
 318      E7800000 
 319              	.LVL32:
 126:C:/Users/stapi/OneDrive/Desktop/GD32VW553/V1_MQTT_OK/GD32VW55X_Wifi_BLE_SDK/GD32VW55x_RELEASE_V1.0.2/MSDK/wpa_supplicant/wpa_supplicant\ctrl_iface_gdwifi.c **** 	addr.sin_family = AF_INET;
 320              		.loc 1 126 2
 127:C:/Users/stapi/OneDrive/Desktop/GD32VW553/V1_MQTT_OK/GD32VW55X_Wifi_BLE_SDK/GD32VW55x_RELEASE_V1.0.2/MSDK/wpa_supplicant/wpa_supplicant\ctrl_iface_gdwifi.c **** 	addr.sin_addr.s_addr = htonl((127 << 24) | 1);
 321              		.loc 1 127 25 is_stmt 0
 322 003c 3705007F 		li	a0,2130706432
 126:C:/Users/stapi/OneDrive/Desktop/GD32VW553/V1_MQTT_OK/GD32VW55X_Wifi_BLE_SDK/GD32VW55x_RELEASE_V1.0.2/MSDK/wpa_supplicant/wpa_supplicant\ctrl_iface_gdwifi.c **** 	addr.sin_family = AF_INET;
 323              		.loc 1 126 18
 324 0040 8947     		li	a5,2
 325              		.loc 1 127 25
 326 0042 0505     		addi	a0,a0,1
 126:C:/Users/stapi/OneDrive/Desktop/GD32VW553/V1_MQTT_OK/GD32VW55X_Wifi_BLE_SDK/GD32VW55x_RELEASE_V1.0.2/MSDK/wpa_supplicant/wpa_supplicant\ctrl_iface_gdwifi.c **** 	addr.sin_family = AF_INET;
 327              		.loc 1 126 18
 328 0044 A300F100 		sb	a5,1(sp)
 329              		.loc 1 127 2 is_stmt 1
 330              		.loc 1 127 25 is_stmt 0
 331 0048 97000000 		call	lwip_htonl
 331      E7800000 
 332              	.LVL33:
 115:C:/Users/stapi/OneDrive/Desktop/GD32VW553/V1_MQTT_OK/GD32VW55X_Wifi_BLE_SDK/GD32VW55x_RELEASE_V1.0.2/MSDK/wpa_supplicant/wpa_supplicant\ctrl_iface_gdwifi.c **** 
 333              		.loc 1 115 6
 334 0050 8967     		li	a5,8192
 335              		.loc 1 127 23
 336 0052 2AC2     		sw	a0,4(sp)
 115:C:/Users/stapi/OneDrive/Desktop/GD32VW553/V1_MQTT_OK/GD32VW55X_Wifi_BLE_SDK/GD32VW55x_RELEASE_V1.0.2/MSDK/wpa_supplicant/wpa_supplicant\ctrl_iface_gdwifi.c **** 
 337              		.loc 1 115 6
 338 0054 93846769 		addi	s1,a5,1686
 128:C:/Users/stapi/OneDrive/Desktop/GD32VW553/V1_MQTT_OK/GD32VW55X_Wifi_BLE_SDK/GD32VW55x_RELEASE_V1.0.2/MSDK/wpa_supplicant/wpa_supplicant\ctrl_iface_gdwifi.c **** 
 129:C:/Users/stapi/OneDrive/Desktop/GD32VW553/V1_MQTT_OK/GD32VW55X_Wifi_BLE_SDK/GD32VW55x_RELEASE_V1.0.2/MSDK/wpa_supplicant/wpa_supplicant\ctrl_iface_gdwifi.c **** try_again:
 130:C:/Users/stapi/OneDrive/Desktop/GD32VW553/V1_MQTT_OK/GD32VW55X_Wifi_BLE_SDK/GD32VW55x_RELEASE_V1.0.2/MSDK/wpa_supplicant/wpa_supplicant\ctrl_iface_gdwifi.c **** 	addr.sin_port = htons(port);
 131:C:/Users/stapi/OneDrive/Desktop/GD32VW553/V1_MQTT_OK/GD32VW55X_Wifi_BLE_SDK/GD32VW55x_RELEASE_V1.0.2/MSDK/wpa_supplicant/wpa_supplicant\ctrl_iface_gdwifi.c **** 	if (bind(priv->sock, (struct sockaddr *) &addr, sizeof(addr)) < 0) {
 132:C:/Users/stapi/OneDrive/Desktop/GD32VW553/V1_MQTT_OK/GD32VW55X_Wifi_BLE_SDK/GD32VW55x_RELEASE_V1.0.2/MSDK/wpa_supplicant/wpa_supplicant\ctrl_iface_gdwifi.c **** 		port++;
 133:C:/Users/stapi/OneDrive/Desktop/GD32VW553/V1_MQTT_OK/GD32VW55X_Wifi_BLE_SDK/GD32VW55x_RELEASE_V1.0.2/MSDK/wpa_supplicant/wpa_supplicant\ctrl_iface_gdwifi.c **** 		if ((port - WPA_GLOBAL_CTRL_IFACE_PORT) <
 339              		.loc 1 133 6
 340 0058 9389A76A 		addi	s3,a5,1706
 341              	.LVL34:
 342              	.L22:
 130:C:/Users/stapi/OneDrive/Desktop/GD32VW553/V1_MQTT_OK/GD32VW55X_Wifi_BLE_SDK/GD32VW55x_RELEASE_V1.0.2/MSDK/wpa_supplicant/wpa_supplicant\ctrl_iface_gdwifi.c **** 	if (bind(priv->sock, (struct sockaddr *) &addr, sizeof(addr)) < 0) {
 343              		.loc 1 130 2 is_stmt 1
 130:C:/Users/stapi/OneDrive/Desktop/GD32VW553/V1_MQTT_OK/GD32VW55X_Wifi_BLE_SDK/GD32VW55x_RELEASE_V1.0.2/MSDK/wpa_supplicant/wpa_supplicant\ctrl_iface_gdwifi.c **** 	if (bind(priv->sock, (struct sockaddr *) &addr, sizeof(addr)) < 0) {
 344              		.loc 1 130 18 is_stmt 0
 345 005c 33C50408 		zext.h	a0,s1
 346 0060 97000000 		call	lwip_htons
 346      E7800000 
 347              	.LVL35:
 130:C:/Users/stapi/OneDrive/Desktop/GD32VW553/V1_MQTT_OK/GD32VW55X_Wifi_BLE_SDK/GD32VW55x_RELEASE_V1.0.2/MSDK/wpa_supplicant/wpa_supplicant\ctrl_iface_gdwifi.c **** 	if (bind(priv->sock, (struct sockaddr *) &addr, sizeof(addr)) < 0) {
 348              		.loc 1 130 16
 349 0068 2311A100 		sh	a0,2(sp)
 131:C:/Users/stapi/OneDrive/Desktop/GD32VW553/V1_MQTT_OK/GD32VW55X_Wifi_BLE_SDK/GD32VW55x_RELEASE_V1.0.2/MSDK/wpa_supplicant/wpa_supplicant\ctrl_iface_gdwifi.c **** 		port++;
 350              		.loc 1 131 2 is_stmt 1
 131:C:/Users/stapi/OneDrive/Desktop/GD32VW553/V1_MQTT_OK/GD32VW55X_Wifi_BLE_SDK/GD32VW55x_RELEASE_V1.0.2/MSDK/wpa_supplicant/wpa_supplicant\ctrl_iface_gdwifi.c **** 		port++;
 351              		.loc 1 131 6 is_stmt 0
 352 006c 0840     		lw	a0,0(s0)
 353 006e 4146     		li	a2,16
 354 0070 8A85     		mv	a1,sp
 355 0072 97000000 		call	lwip_bind
 355      E7800000 
 356              	.LVL36:
 131:C:/Users/stapi/OneDrive/Desktop/GD32VW553/V1_MQTT_OK/GD32VW55X_Wifi_BLE_SDK/GD32VW55x_RELEASE_V1.0.2/MSDK/wpa_supplicant/wpa_supplicant\ctrl_iface_gdwifi.c **** 		port++;
 357              		.loc 1 131 5
 358 007a 635C0502 		bge	a0,zero,.L23
 132:C:/Users/stapi/OneDrive/Desktop/GD32VW553/V1_MQTT_OK/GD32VW55X_Wifi_BLE_SDK/GD32VW55x_RELEASE_V1.0.2/MSDK/wpa_supplicant/wpa_supplicant\ctrl_iface_gdwifi.c **** 		if ((port - WPA_GLOBAL_CTRL_IFACE_PORT) <
 359              		.loc 1 132 3 is_stmt 1
 132:C:/Users/stapi/OneDrive/Desktop/GD32VW553/V1_MQTT_OK/GD32VW55X_Wifi_BLE_SDK/GD32VW55x_RELEASE_V1.0.2/MSDK/wpa_supplicant/wpa_supplicant\ctrl_iface_gdwifi.c **** 		if ((port - WPA_GLOBAL_CTRL_IFACE_PORT) <
 360              		.loc 1 132 7 is_stmt 0
 361 007e 8504     		addi	s1,s1,1
 362              	.LVL37:
 363              		.loc 1 133 3 is_stmt 1
 364              		.loc 1 133 6 is_stmt 0
 365 0080 E39E34FD 		bne	s1,s3,.L22
 366              	.LVL38:
 367              	.L21:
 368              	.LDL1:
 134:C:/Users/stapi/OneDrive/Desktop/GD32VW553/V1_MQTT_OK/GD32VW55X_Wifi_BLE_SDK/GD32VW55x_RELEASE_V1.0.2/MSDK/wpa_supplicant/wpa_supplicant\ctrl_iface_gdwifi.c **** 		    WPA_GLOBAL_CTRL_IFACE_PORT_LIMIT)
 135:C:/Users/stapi/OneDrive/Desktop/GD32VW553/V1_MQTT_OK/GD32VW55X_Wifi_BLE_SDK/GD32VW55x_RELEASE_V1.0.2/MSDK/wpa_supplicant/wpa_supplicant\ctrl_iface_gdwifi.c **** 			goto try_again;
 136:C:/Users/stapi/OneDrive/Desktop/GD32VW553/V1_MQTT_OK/GD32VW55X_Wifi_BLE_SDK/GD32VW55x_RELEASE_V1.0.2/MSDK/wpa_supplicant/wpa_supplicant\ctrl_iface_gdwifi.c **** 		goto fail;
 137:C:/Users/stapi/OneDrive/Desktop/GD32VW553/V1_MQTT_OK/GD32VW55X_Wifi_BLE_SDK/GD32VW55x_RELEASE_V1.0.2/MSDK/wpa_supplicant/wpa_supplicant\ctrl_iface_gdwifi.c **** 	}
 138:C:/Users/stapi/OneDrive/Desktop/GD32VW553/V1_MQTT_OK/GD32VW55X_Wifi_BLE_SDK/GD32VW55x_RELEASE_V1.0.2/MSDK/wpa_supplicant/wpa_supplicant\ctrl_iface_gdwifi.c **** 
 139:C:/Users/stapi/OneDrive/Desktop/GD32VW553/V1_MQTT_OK/GD32VW55X_Wifi_BLE_SDK/GD32VW55x_RELEASE_V1.0.2/MSDK/wpa_supplicant/wpa_supplicant\ctrl_iface_gdwifi.c **** 	// save port (as dummy char *)
 140:C:/Users/stapi/OneDrive/Desktop/GD32VW553/V1_MQTT_OK/GD32VW55X_Wifi_BLE_SDK/GD32VW55x_RELEASE_V1.0.2/MSDK/wpa_supplicant/wpa_supplicant\ctrl_iface_gdwifi.c **** 	global->params.ctrl_interface = (char *)port;
 141:C:/Users/stapi/OneDrive/Desktop/GD32VW553/V1_MQTT_OK/GD32VW55X_Wifi_BLE_SDK/GD32VW55x_RELEASE_V1.0.2/MSDK/wpa_supplicant/wpa_supplicant\ctrl_iface_gdwifi.c **** 
 142:C:/Users/stapi/OneDrive/Desktop/GD32VW553/V1_MQTT_OK/GD32VW55X_Wifi_BLE_SDK/GD32VW55x_RELEASE_V1.0.2/MSDK/wpa_supplicant/wpa_supplicant\ctrl_iface_gdwifi.c **** 	eloop_register_read_sock(priv->sock,
 143:C:/Users/stapi/OneDrive/Desktop/GD32VW553/V1_MQTT_OK/GD32VW55X_Wifi_BLE_SDK/GD32VW55x_RELEASE_V1.0.2/MSDK/wpa_supplicant/wpa_supplicant\ctrl_iface_gdwifi.c **** 				 wpa_supplicant_global_ctrl_iface_receive,
 144:C:/Users/stapi/OneDrive/Desktop/GD32VW553/V1_MQTT_OK/GD32VW55X_Wifi_BLE_SDK/GD32VW55x_RELEASE_V1.0.2/MSDK/wpa_supplicant/wpa_supplicant\ctrl_iface_gdwifi.c **** 				 global, priv);
 145:C:/Users/stapi/OneDrive/Desktop/GD32VW553/V1_MQTT_OK/GD32VW55X_Wifi_BLE_SDK/GD32VW55x_RELEASE_V1.0.2/MSDK/wpa_supplicant/wpa_supplicant\ctrl_iface_gdwifi.c **** 	wpa_msg_register_cb(wpa_supplicant_ctrl_iface_msg_cb);
 146:C:/Users/stapi/OneDrive/Desktop/GD32VW553/V1_MQTT_OK/GD32VW55X_Wifi_BLE_SDK/GD32VW55x_RELEASE_V1.0.2/MSDK/wpa_supplicant/wpa_supplicant\ctrl_iface_gdwifi.c **** 
 147:C:/Users/stapi/OneDrive/Desktop/GD32VW553/V1_MQTT_OK/GD32VW55X_Wifi_BLE_SDK/GD32VW55x_RELEASE_V1.0.2/MSDK/wpa_supplicant/wpa_supplicant\ctrl_iface_gdwifi.c **** 	return priv;
 148:C:/Users/stapi/OneDrive/Desktop/GD32VW553/V1_MQTT_OK/GD32VW55X_Wifi_BLE_SDK/GD32VW55x_RELEASE_V1.0.2/MSDK/wpa_supplicant/wpa_supplicant\ctrl_iface_gdwifi.c **** 
 149:C:/Users/stapi/OneDrive/Desktop/GD32VW553/V1_MQTT_OK/GD32VW55X_Wifi_BLE_SDK/GD32VW55x_RELEASE_V1.0.2/MSDK/wpa_supplicant/wpa_supplicant\ctrl_iface_gdwifi.c **** fail:
 150:C:/Users/stapi/OneDrive/Desktop/GD32VW553/V1_MQTT_OK/GD32VW55X_Wifi_BLE_SDK/GD32VW55x_RELEASE_V1.0.2/MSDK/wpa_supplicant/wpa_supplicant\ctrl_iface_gdwifi.c **** 	wpa_printf(MSG_ERROR, "Failed to start WPA ctrl interface");
 369              		.loc 1 150 2 is_stmt 1
 370 0084 B7050000 		lui	a1,%hi(.LC2)
 371 0088 1545     		li	a0,5
 372 008a 93850500 		addi	a1,a1,%lo(.LC2)
 373 008e 97000000 		call	wpa_printf
 373      E7800000 
 374              	.LVL39:
 151:C:/Users/stapi/OneDrive/Desktop/GD32VW553/V1_MQTT_OK/GD32VW55X_Wifi_BLE_SDK/GD32VW55x_RELEASE_V1.0.2/MSDK/wpa_supplicant/wpa_supplicant\ctrl_iface_gdwifi.c **** 	if (priv->sock >= 0)
 375              		.loc 1 151 2
 376              		.loc 1 151 10 is_stmt 0
 377 0096 0840     		lw	a0,0(s0)
 378              		.loc 1 151 5
 379 0098 63460500 		blt	a0,zero,.L25
 152:C:/Users/stapi/OneDrive/Desktop/GD32VW553/V1_MQTT_OK/GD32VW55X_Wifi_BLE_SDK/GD32VW55x_RELEASE_V1.0.2/MSDK/wpa_supplicant/wpa_supplicant\ctrl_iface_gdwifi.c **** 		close(priv->sock);
 380              		.loc 1 152 3 is_stmt 1
 381 009c 97000000 		call	lwip_close
 381      E7800000 
 382              	.LVL40:
 383              	.L25:
 153:C:/Users/stapi/OneDrive/Desktop/GD32VW553/V1_MQTT_OK/GD32VW55X_Wifi_BLE_SDK/GD32VW55x_RELEASE_V1.0.2/MSDK/wpa_supplicant/wpa_supplicant\ctrl_iface_gdwifi.c **** 	os_free(priv);
 384              		.loc 1 153 2
 385 00a4 2285     		mv	a0,s0
 386 00a6 97000000 		call	os_free
 386      E7800000 
 387              	.LVL41:
 154:C:/Users/stapi/OneDrive/Desktop/GD32VW553/V1_MQTT_OK/GD32VW55X_Wifi_BLE_SDK/GD32VW55x_RELEASE_V1.0.2/MSDK/wpa_supplicant/wpa_supplicant\ctrl_iface_gdwifi.c **** 	return NULL;
 388              		.loc 1 154 2
 389              		.loc 1 154 9 is_stmt 0
 390 00ae 0144     		li	s0,0
 391              	.LVL42:
 392 00b0 35A0     		j	.L20
 393              	.LVL43:
 394              	.L23:
 140:C:/Users/stapi/OneDrive/Desktop/GD32VW553/V1_MQTT_OK/GD32VW55X_Wifi_BLE_SDK/GD32VW55x_RELEASE_V1.0.2/MSDK/wpa_supplicant/wpa_supplicant\ctrl_iface_gdwifi.c **** 
 395              		.loc 1 140 2 is_stmt 1
 142:C:/Users/stapi/OneDrive/Desktop/GD32VW553/V1_MQTT_OK/GD32VW55X_Wifi_BLE_SDK/GD32VW55x_RELEASE_V1.0.2/MSDK/wpa_supplicant/wpa_supplicant\ctrl_iface_gdwifi.c **** 				 wpa_supplicant_global_ctrl_iface_receive,
 396              		.loc 1 142 2 is_stmt 0
 397 00b2 0840     		lw	a0,0(s0)
 398 00b4 B7050000 		lui	a1,%hi(wpa_supplicant_global_ctrl_iface_receive)
 140:C:/Users/stapi/OneDrive/Desktop/GD32VW553/V1_MQTT_OK/GD32VW55X_Wifi_BLE_SDK/GD32VW55x_RELEASE_V1.0.2/MSDK/wpa_supplicant/wpa_supplicant\ctrl_iface_gdwifi.c **** 
 399              		.loc 1 140 32
 400 00b8 232E9900 		sw	s1,28(s2)
 142:C:/Users/stapi/OneDrive/Desktop/GD32VW553/V1_MQTT_OK/GD32VW55X_Wifi_BLE_SDK/GD32VW55x_RELEASE_V1.0.2/MSDK/wpa_supplicant/wpa_supplicant\ctrl_iface_gdwifi.c **** 				 wpa_supplicant_global_ctrl_iface_receive,
 401              		.loc 1 142 2 is_stmt 1
 402 00bc A286     		mv	a3,s0
 403 00be 4A86     		mv	a2,s2
 404 00c0 93850500 		addi	a1,a1,%lo(wpa_supplicant_global_ctrl_iface_receive)
 405 00c4 97000000 		call	eloop_register_read_sock
 405      E7800000 
 406              	.LVL44:
 145:C:/Users/stapi/OneDrive/Desktop/GD32VW553/V1_MQTT_OK/GD32VW55X_Wifi_BLE_SDK/GD32VW55x_RELEASE_V1.0.2/MSDK/wpa_supplicant/wpa_supplicant\ctrl_iface_gdwifi.c **** 
 407              		.loc 1 145 2
 408 00cc 37050000 		lui	a0,%hi(wpa_supplicant_ctrl_iface_msg_cb)
 409 00d0 13050500 		addi	a0,a0,%lo(wpa_supplicant_ctrl_iface_msg_cb)
 410 00d4 97000000 		call	wpa_msg_register_cb
 410      E7800000 
 411              	.LVL45:
 147:C:/Users/stapi/OneDrive/Desktop/GD32VW553/V1_MQTT_OK/GD32VW55X_Wifi_BLE_SDK/GD32VW55x_RELEASE_V1.0.2/MSDK/wpa_supplicant/wpa_supplicant\ctrl_iface_gdwifi.c **** 
 412              		.loc 1 147 2
 413              	.L20:
 155:C:/Users/stapi/OneDrive/Desktop/GD32VW553/V1_MQTT_OK/GD32VW55X_Wifi_BLE_SDK/GD32VW55x_RELEASE_V1.0.2/MSDK/wpa_supplicant/wpa_supplicant\ctrl_iface_gdwifi.c **** }
 414              		.loc 1 155 1 is_stmt 0
 415 00dc 2285     		mv	a0,s0
 416 00de 4101     		addi	sp,sp,16
 417              		.cfi_def_cfa_offset 0
 418 00e0 17030000 		tail	__riscv_restore_4
 418      67000300 
 419              		.cfi_restore 19
 420              		.cfi_restore 18
 421              		.cfi_restore 9
 422              		.cfi_restore 8
 423              		.cfi_restore 1
 424              		.cfi_def_cfa_offset -32
 425              		.cfi_endproc
 426              	.LFE166:
 428              		.section	.text.wpa_supplicant_global_ctrl_iface_deinit,"ax",@progbits
 429              		.align	1
 430              		.globl	wpa_supplicant_global_ctrl_iface_deinit
 432              	wpa_supplicant_global_ctrl_iface_deinit:
 433              	.LFB167:
 156:C:/Users/stapi/OneDrive/Desktop/GD32VW553/V1_MQTT_OK/GD32VW55X_Wifi_BLE_SDK/GD32VW55x_RELEASE_V1.0.2/MSDK/wpa_supplicant/wpa_supplicant\ctrl_iface_gdwifi.c **** 
 157:C:/Users/stapi/OneDrive/Desktop/GD32VW553/V1_MQTT_OK/GD32VW55X_Wifi_BLE_SDK/GD32VW55x_RELEASE_V1.0.2/MSDK/wpa_supplicant/wpa_supplicant\ctrl_iface_gdwifi.c **** 
 158:C:/Users/stapi/OneDrive/Desktop/GD32VW553/V1_MQTT_OK/GD32VW55X_Wifi_BLE_SDK/GD32VW55x_RELEASE_V1.0.2/MSDK/wpa_supplicant/wpa_supplicant\ctrl_iface_gdwifi.c **** void
 159:C:/Users/stapi/OneDrive/Desktop/GD32VW553/V1_MQTT_OK/GD32VW55X_Wifi_BLE_SDK/GD32VW55x_RELEASE_V1.0.2/MSDK/wpa_supplicant/wpa_supplicant\ctrl_iface_gdwifi.c **** wpa_supplicant_global_ctrl_iface_deinit(struct ctrl_iface_global_priv *priv)
 160:C:/Users/stapi/OneDrive/Desktop/GD32VW553/V1_MQTT_OK/GD32VW55X_Wifi_BLE_SDK/GD32VW55x_RELEASE_V1.0.2/MSDK/wpa_supplicant/wpa_supplicant\ctrl_iface_gdwifi.c **** {
 434              		.loc 1 160 1 is_stmt 1
 435              		.cfi_startproc
 436              	.LVL46:
 437 0000 17030000 		call	t0,__riscv_save_1
 437      E7020300 
 438              		.cfi_offset 8, -8
 439              		.cfi_offset 1, -4
 440              		.cfi_def_cfa_offset 16
 161:C:/Users/stapi/OneDrive/Desktop/GD32VW553/V1_MQTT_OK/GD32VW55X_Wifi_BLE_SDK/GD32VW55x_RELEASE_V1.0.2/MSDK/wpa_supplicant/wpa_supplicant\ctrl_iface_gdwifi.c **** 	if (priv->sock >= 0) {
 441              		.loc 1 161 2
 160:C:/Users/stapi/OneDrive/Desktop/GD32VW553/V1_MQTT_OK/GD32VW55X_Wifi_BLE_SDK/GD32VW55x_RELEASE_V1.0.2/MSDK/wpa_supplicant/wpa_supplicant\ctrl_iface_gdwifi.c **** 	if (priv->sock >= 0) {
 442              		.loc 1 160 1 is_stmt 0
 443 0008 2A84     		mv	s0,a0
 444              		.loc 1 161 10
 445 000a 0841     		lw	a0,0(a0)
 446              	.LVL47:
 447              		.loc 1 161 5
 448 000c 634B0500 		blt	a0,zero,.L32
 162:C:/Users/stapi/OneDrive/Desktop/GD32VW553/V1_MQTT_OK/GD32VW55X_Wifi_BLE_SDK/GD32VW55x_RELEASE_V1.0.2/MSDK/wpa_supplicant/wpa_supplicant\ctrl_iface_gdwifi.c **** 		eloop_unregister_read_sock(priv->sock);
 449              		.loc 1 162 3 is_stmt 1
 450 0010 97000000 		call	eloop_unregister_read_sock
 450      E7800000 
 451              	.LVL48:
 163:C:/Users/stapi/OneDrive/Desktop/GD32VW553/V1_MQTT_OK/GD32VW55X_Wifi_BLE_SDK/GD32VW55x_RELEASE_V1.0.2/MSDK/wpa_supplicant/wpa_supplicant\ctrl_iface_gdwifi.c **** 		close(priv->sock);
 452              		.loc 1 163 3
 453 0018 0840     		lw	a0,0(s0)
 454 001a 97000000 		call	lwip_close
 454      E7800000 
 455              	.LVL49:
 456              	.L32:
 164:C:/Users/stapi/OneDrive/Desktop/GD32VW553/V1_MQTT_OK/GD32VW55X_Wifi_BLE_SDK/GD32VW55x_RELEASE_V1.0.2/MSDK/wpa_supplicant/wpa_supplicant\ctrl_iface_gdwifi.c **** 	}
 165:C:/Users/stapi/OneDrive/Desktop/GD32VW553/V1_MQTT_OK/GD32VW55X_Wifi_BLE_SDK/GD32VW55x_RELEASE_V1.0.2/MSDK/wpa_supplicant/wpa_supplicant\ctrl_iface_gdwifi.c **** 	os_free(priv);
 457              		.loc 1 165 2
 458 0022 2285     		mv	a0,s0
 459 0024 97000000 		call	os_free
 459      E7800000 
 460              	.LVL50:
 166:C:/Users/stapi/OneDrive/Desktop/GD32VW553/V1_MQTT_OK/GD32VW55X_Wifi_BLE_SDK/GD32VW55x_RELEASE_V1.0.2/MSDK/wpa_supplicant/wpa_supplicant\ctrl_iface_gdwifi.c **** }
 461              		.loc 1 166 1 is_stmt 0
 462 002c 17030000 		tail	__riscv_restore_1
 462      67000300 
 463              		.cfi_restore 8
 464              		.cfi_restore 1
 465              		.cfi_def_cfa_offset 0
 466              		.cfi_endproc
 467              	.LFE167:
 469              		.text
 470              	.Letext0:
 471              		.file 2 "c:\\users\\stapi\\onedrive\\desktop\\gd32vw553\\embeddedbuilder_v1.4.7.26843\\tools\\nucl
 472              		.file 3 "c:\\users\\stapi\\onedrive\\desktop\\gd32vw553\\embeddedbuilder_v1.4.7.26843\\tools\\nucl
 473              		.file 4 "c:\\users\\stapi\\onedrive\\desktop\\gd32vw553\\embeddedbuilder_v1.4.7.26843\\tools\\nucl
 474              		.file 5 "..\\..\\..\\..\\lwip\\lwip-2.1.2\\src\\include/lwip/arch.h"
 475              		.file 6 "..\\..\\..\\..\\wifi_manager/wifi_wpa.h"
 476              		.file 7 "..\\..\\..\\..\\lwip\\lwip-2.1.2\\src\\include/lwip/inet.h"
 477              		.file 8 "..\\..\\..\\..\\lwip\\lwip-2.1.2\\src\\include/lwip/sockets.h"
 478              		.file 9 "..\\..\\..\\..\\wpa_supplicant\\src\\utils/os.h"
 479              		.file 10 "..\\..\\..\\..\\wpa_supplicant\\src\\utils/common.h"
 480              		.file 11 "..\\..\\..\\..\\wpa_supplicant\\src\\utils/wpabuf.h"
 481              		.file 12 "..\\..\\..\\..\\wpa_supplicant\\src\\utils/wpa_debug.h"
 482              		.file 13 "..\\..\\..\\..\\wpa_supplicant\\src/common/defs.h"
 483              		.file 14 "..\\..\\..\\..\\wpa_supplicant\\src/utils/list.h"
 484              		.file 15 "..\\..\\..\\..\\wpa_supplicant\\src/eap_peer/eap_config.h"
 485              		.file 16 "C:/Users/stapi/OneDrive/Desktop/GD32VW553/V1_MQTT_OK/GD32VW55X_Wifi_BLE_SDK/GD32VW55x_RE
 486              		.file 17 "..\\..\\..\\..\\wpa_supplicant\\src/common/sae.h"
 487              		.file 18 "..\\..\\..\\..\\wpa_supplicant\\src/common/ieee802_11_defs.h"
 488              		.file 19 "..\\..\\..\\..\\wpa_supplicant\\src/common/ieee802_11_common.h"
 489              		.file 20 "C:/Users/stapi/OneDrive/Desktop/GD32VW553/V1_MQTT_OK/GD32VW55X_Wifi_BLE_SDK/GD32VW55x_RE
 490              		.file 21 "..\\..\\..\\..\\wpa_supplicant\\src/drivers/driver.h"
 491              		.file 22 "C:/Users/stapi/OneDrive/Desktop/GD32VW553/V1_MQTT_OK/GD32VW55X_Wifi_BLE_SDK/GD32VW55x_RE
 492              		.file 23 "..\\..\\..\\..\\wpa_supplicant\\src\\utils/eloop.h"
 493              		.file 24 "..\\..\\..\\..\\lwip\\lwip-2.1.2\\src\\include/lwip/def.h"
 494              		.file 25 "C:/Users/stapi/OneDrive/Desktop/GD32VW553/V1_MQTT_OK/GD32VW55X_Wifi_BLE_SDK/GD32VW55x_RE