   1              		.file	"dragonfly.c"
   2              		.option nopic
   3              		.attribute arch, "rv32i2p0_m2p0_a2p0_f2p0_c2p0_b_p0p94"
   4              		.attribute unaligned_access, 0
   5              		.attribute stack_align, 16
   6              		.text
   7              	.Ltext0:
   8              		.cfi_sections	.debug_frame
   9              		.section	.text.dragonfly_get_rand_2_to_r_1,"ax",@progbits
  10              		.align	1
  12              	dragonfly_get_rand_2_to_r_1:
  13              	.LFB87:
  14              		.file 1 "C:/Users/stapi/OneDrive/Desktop/GD32VW553/V1_MQTT_OK/GD32VW55X_Wifi_BLE_SDK/GD32VW55x_REL
   1:C:/Users/stapi/OneDrive/Desktop/GD32VW553/V1_MQTT_OK/GD32VW55X_Wifi_BLE_SDK/GD32VW55x_RELEASE_V1.0.2/MSDK/wpa_supplicant/src/common\dragonfly.c **** /*
   2:C:/Users/stapi/OneDrive/Desktop/GD32VW553/V1_MQTT_OK/GD32VW55X_Wifi_BLE_SDK/GD32VW55x_RELEASE_V1.0.2/MSDK/wpa_supplicant/src/common\dragonfly.c ****  * Shared Dragonfly functionality
   3:C:/Users/stapi/OneDrive/Desktop/GD32VW553/V1_MQTT_OK/GD32VW55X_Wifi_BLE_SDK/GD32VW55x_RELEASE_V1.0.2/MSDK/wpa_supplicant/src/common\dragonfly.c ****  * Copyright (c) 2012-2016, Jouni Malinen <j@w1.fi>
   4:C:/Users/stapi/OneDrive/Desktop/GD32VW553/V1_MQTT_OK/GD32VW55X_Wifi_BLE_SDK/GD32VW55x_RELEASE_V1.0.2/MSDK/wpa_supplicant/src/common\dragonfly.c ****  * Copyright (c) 2019, The Linux Foundation
   5:C:/Users/stapi/OneDrive/Desktop/GD32VW553/V1_MQTT_OK/GD32VW55X_Wifi_BLE_SDK/GD32VW55x_RELEASE_V1.0.2/MSDK/wpa_supplicant/src/common\dragonfly.c ****  *
   6:C:/Users/stapi/OneDrive/Desktop/GD32VW553/V1_MQTT_OK/GD32VW55X_Wifi_BLE_SDK/GD32VW55x_RELEASE_V1.0.2/MSDK/wpa_supplicant/src/common\dragonfly.c ****  * This software may be distributed under the terms of the BSD license.
   7:C:/Users/stapi/OneDrive/Desktop/GD32VW553/V1_MQTT_OK/GD32VW55X_Wifi_BLE_SDK/GD32VW55x_RELEASE_V1.0.2/MSDK/wpa_supplicant/src/common\dragonfly.c ****  * See README for more details.
   8:C:/Users/stapi/OneDrive/Desktop/GD32VW553/V1_MQTT_OK/GD32VW55X_Wifi_BLE_SDK/GD32VW55x_RELEASE_V1.0.2/MSDK/wpa_supplicant/src/common\dragonfly.c ****  */
   9:C:/Users/stapi/OneDrive/Desktop/GD32VW553/V1_MQTT_OK/GD32VW55X_Wifi_BLE_SDK/GD32VW55x_RELEASE_V1.0.2/MSDK/wpa_supplicant/src/common\dragonfly.c **** 
  10:C:/Users/stapi/OneDrive/Desktop/GD32VW553/V1_MQTT_OK/GD32VW55X_Wifi_BLE_SDK/GD32VW55x_RELEASE_V1.0.2/MSDK/wpa_supplicant/src/common\dragonfly.c **** #include "utils/includes.h"
  11:C:/Users/stapi/OneDrive/Desktop/GD32VW553/V1_MQTT_OK/GD32VW55X_Wifi_BLE_SDK/GD32VW55x_RELEASE_V1.0.2/MSDK/wpa_supplicant/src/common\dragonfly.c **** 
  12:C:/Users/stapi/OneDrive/Desktop/GD32VW553/V1_MQTT_OK/GD32VW55X_Wifi_BLE_SDK/GD32VW55x_RELEASE_V1.0.2/MSDK/wpa_supplicant/src/common\dragonfly.c **** #include "utils/common.h"
  13:C:/Users/stapi/OneDrive/Desktop/GD32VW553/V1_MQTT_OK/GD32VW55X_Wifi_BLE_SDK/GD32VW55x_RELEASE_V1.0.2/MSDK/wpa_supplicant/src/common\dragonfly.c **** #include "utils/const_time.h"
  14:C:/Users/stapi/OneDrive/Desktop/GD32VW553/V1_MQTT_OK/GD32VW55X_Wifi_BLE_SDK/GD32VW55x_RELEASE_V1.0.2/MSDK/wpa_supplicant/src/common\dragonfly.c **** #include "crypto/crypto.h"
  15:C:/Users/stapi/OneDrive/Desktop/GD32VW553/V1_MQTT_OK/GD32VW55X_Wifi_BLE_SDK/GD32VW55x_RELEASE_V1.0.2/MSDK/wpa_supplicant/src/common\dragonfly.c **** #include "dragonfly.h"
  16:C:/Users/stapi/OneDrive/Desktop/GD32VW553/V1_MQTT_OK/GD32VW55X_Wifi_BLE_SDK/GD32VW55x_RELEASE_V1.0.2/MSDK/wpa_supplicant/src/common\dragonfly.c **** 
  17:C:/Users/stapi/OneDrive/Desktop/GD32VW553/V1_MQTT_OK/GD32VW55X_Wifi_BLE_SDK/GD32VW55x_RELEASE_V1.0.2/MSDK/wpa_supplicant/src/common\dragonfly.c **** 
  18:C:/Users/stapi/OneDrive/Desktop/GD32VW553/V1_MQTT_OK/GD32VW55X_Wifi_BLE_SDK/GD32VW55x_RELEASE_V1.0.2/MSDK/wpa_supplicant/src/common\dragonfly.c **** int dragonfly_suitable_group(int group, int ecc_only)
  19:C:/Users/stapi/OneDrive/Desktop/GD32VW553/V1_MQTT_OK/GD32VW55X_Wifi_BLE_SDK/GD32VW55x_RELEASE_V1.0.2/MSDK/wpa_supplicant/src/common\dragonfly.c **** {
  20:C:/Users/stapi/OneDrive/Desktop/GD32VW553/V1_MQTT_OK/GD32VW55X_Wifi_BLE_SDK/GD32VW55x_RELEASE_V1.0.2/MSDK/wpa_supplicant/src/common\dragonfly.c **** 	/* Enforce REVmd rules on which SAE groups are suitable for production
  21:C:/Users/stapi/OneDrive/Desktop/GD32VW553/V1_MQTT_OK/GD32VW55X_Wifi_BLE_SDK/GD32VW55x_RELEASE_V1.0.2/MSDK/wpa_supplicant/src/common\dragonfly.c **** 	 * purposes: FFC groups whose prime is >= 3072 bits and ECC groups
  22:C:/Users/stapi/OneDrive/Desktop/GD32VW553/V1_MQTT_OK/GD32VW55X_Wifi_BLE_SDK/GD32VW55x_RELEASE_V1.0.2/MSDK/wpa_supplicant/src/common\dragonfly.c **** 	 * defined over a prime field whose prime is >= 256 bits. Furthermore,
  23:C:/Users/stapi/OneDrive/Desktop/GD32VW553/V1_MQTT_OK/GD32VW55X_Wifi_BLE_SDK/GD32VW55x_RELEASE_V1.0.2/MSDK/wpa_supplicant/src/common\dragonfly.c **** 	 * ECC groups defined over a characteristic 2 finite field and ECC
  24:C:/Users/stapi/OneDrive/Desktop/GD32VW553/V1_MQTT_OK/GD32VW55X_Wifi_BLE_SDK/GD32VW55x_RELEASE_V1.0.2/MSDK/wpa_supplicant/src/common\dragonfly.c **** 	 * groups with a co-factor greater than 1 are not suitable. Disable
  25:C:/Users/stapi/OneDrive/Desktop/GD32VW553/V1_MQTT_OK/GD32VW55X_Wifi_BLE_SDK/GD32VW55x_RELEASE_V1.0.2/MSDK/wpa_supplicant/src/common\dragonfly.c **** 	 * groups that use Brainpool curves as well for now since they leak more
  26:C:/Users/stapi/OneDrive/Desktop/GD32VW553/V1_MQTT_OK/GD32VW55X_Wifi_BLE_SDK/GD32VW55x_RELEASE_V1.0.2/MSDK/wpa_supplicant/src/common\dragonfly.c **** 	 * timing information due to the prime not being close to a power of
  27:C:/Users/stapi/OneDrive/Desktop/GD32VW553/V1_MQTT_OK/GD32VW55X_Wifi_BLE_SDK/GD32VW55x_RELEASE_V1.0.2/MSDK/wpa_supplicant/src/common\dragonfly.c **** 	 * two. */
  28:C:/Users/stapi/OneDrive/Desktop/GD32VW553/V1_MQTT_OK/GD32VW55X_Wifi_BLE_SDK/GD32VW55x_RELEASE_V1.0.2/MSDK/wpa_supplicant/src/common\dragonfly.c **** 	return group == 19 || group == 20 || group == 21 ||
  29:C:/Users/stapi/OneDrive/Desktop/GD32VW553/V1_MQTT_OK/GD32VW55X_Wifi_BLE_SDK/GD32VW55x_RELEASE_V1.0.2/MSDK/wpa_supplicant/src/common\dragonfly.c **** 		(!ecc_only &&
  30:C:/Users/stapi/OneDrive/Desktop/GD32VW553/V1_MQTT_OK/GD32VW55X_Wifi_BLE_SDK/GD32VW55x_RELEASE_V1.0.2/MSDK/wpa_supplicant/src/common\dragonfly.c **** 		 (group == 15 || group == 16 || group == 17 || group == 18));
  31:C:/Users/stapi/OneDrive/Desktop/GD32VW553/V1_MQTT_OK/GD32VW55X_Wifi_BLE_SDK/GD32VW55x_RELEASE_V1.0.2/MSDK/wpa_supplicant/src/common\dragonfly.c **** }
  32:C:/Users/stapi/OneDrive/Desktop/GD32VW553/V1_MQTT_OK/GD32VW55X_Wifi_BLE_SDK/GD32VW55x_RELEASE_V1.0.2/MSDK/wpa_supplicant/src/common\dragonfly.c **** 
  33:C:/Users/stapi/OneDrive/Desktop/GD32VW553/V1_MQTT_OK/GD32VW55X_Wifi_BLE_SDK/GD32VW55x_RELEASE_V1.0.2/MSDK/wpa_supplicant/src/common\dragonfly.c **** 
  34:C:/Users/stapi/OneDrive/Desktop/GD32VW553/V1_MQTT_OK/GD32VW55X_Wifi_BLE_SDK/GD32VW55x_RELEASE_V1.0.2/MSDK/wpa_supplicant/src/common\dragonfly.c **** unsigned int dragonfly_min_pwe_loop_iter(int group)
  35:C:/Users/stapi/OneDrive/Desktop/GD32VW553/V1_MQTT_OK/GD32VW55X_Wifi_BLE_SDK/GD32VW55x_RELEASE_V1.0.2/MSDK/wpa_supplicant/src/common\dragonfly.c **** {
  36:C:/Users/stapi/OneDrive/Desktop/GD32VW553/V1_MQTT_OK/GD32VW55X_Wifi_BLE_SDK/GD32VW55x_RELEASE_V1.0.2/MSDK/wpa_supplicant/src/common\dragonfly.c **** 	if (group == 22 || group == 23 || group == 24) {
  37:C:/Users/stapi/OneDrive/Desktop/GD32VW553/V1_MQTT_OK/GD32VW55X_Wifi_BLE_SDK/GD32VW55x_RELEASE_V1.0.2/MSDK/wpa_supplicant/src/common\dragonfly.c **** 		/* FFC groups for which pwd-value is likely to be >= p
  38:C:/Users/stapi/OneDrive/Desktop/GD32VW553/V1_MQTT_OK/GD32VW55X_Wifi_BLE_SDK/GD32VW55x_RELEASE_V1.0.2/MSDK/wpa_supplicant/src/common\dragonfly.c **** 		 * frequently */
  39:C:/Users/stapi/OneDrive/Desktop/GD32VW553/V1_MQTT_OK/GD32VW55X_Wifi_BLE_SDK/GD32VW55x_RELEASE_V1.0.2/MSDK/wpa_supplicant/src/common\dragonfly.c **** 		return 40;
  40:C:/Users/stapi/OneDrive/Desktop/GD32VW553/V1_MQTT_OK/GD32VW55X_Wifi_BLE_SDK/GD32VW55x_RELEASE_V1.0.2/MSDK/wpa_supplicant/src/common\dragonfly.c **** 	}
  41:C:/Users/stapi/OneDrive/Desktop/GD32VW553/V1_MQTT_OK/GD32VW55X_Wifi_BLE_SDK/GD32VW55x_RELEASE_V1.0.2/MSDK/wpa_supplicant/src/common\dragonfly.c **** 
  42:C:/Users/stapi/OneDrive/Desktop/GD32VW553/V1_MQTT_OK/GD32VW55X_Wifi_BLE_SDK/GD32VW55x_RELEASE_V1.0.2/MSDK/wpa_supplicant/src/common\dragonfly.c **** 	if (group == 1 || group == 2 || group == 5 || group == 14 ||
  43:C:/Users/stapi/OneDrive/Desktop/GD32VW553/V1_MQTT_OK/GD32VW55X_Wifi_BLE_SDK/GD32VW55x_RELEASE_V1.0.2/MSDK/wpa_supplicant/src/common\dragonfly.c **** 	    group == 15 || group == 16 || group == 17 || group == 18) {
  44:C:/Users/stapi/OneDrive/Desktop/GD32VW553/V1_MQTT_OK/GD32VW55X_Wifi_BLE_SDK/GD32VW55x_RELEASE_V1.0.2/MSDK/wpa_supplicant/src/common\dragonfly.c **** 		/* FFC groups that have prime that is close to a power of two */
  45:C:/Users/stapi/OneDrive/Desktop/GD32VW553/V1_MQTT_OK/GD32VW55X_Wifi_BLE_SDK/GD32VW55x_RELEASE_V1.0.2/MSDK/wpa_supplicant/src/common\dragonfly.c **** 		return 1;
  46:C:/Users/stapi/OneDrive/Desktop/GD32VW553/V1_MQTT_OK/GD32VW55X_Wifi_BLE_SDK/GD32VW55x_RELEASE_V1.0.2/MSDK/wpa_supplicant/src/common\dragonfly.c **** 	}
  47:C:/Users/stapi/OneDrive/Desktop/GD32VW553/V1_MQTT_OK/GD32VW55X_Wifi_BLE_SDK/GD32VW55x_RELEASE_V1.0.2/MSDK/wpa_supplicant/src/common\dragonfly.c **** 
  48:C:/Users/stapi/OneDrive/Desktop/GD32VW553/V1_MQTT_OK/GD32VW55X_Wifi_BLE_SDK/GD32VW55x_RELEASE_V1.0.2/MSDK/wpa_supplicant/src/common\dragonfly.c **** 	/* Default to 40 (this covers most ECC groups) */
  49:C:/Users/stapi/OneDrive/Desktop/GD32VW553/V1_MQTT_OK/GD32VW55X_Wifi_BLE_SDK/GD32VW55x_RELEASE_V1.0.2/MSDK/wpa_supplicant/src/common\dragonfly.c **** 	return 40;
  50:C:/Users/stapi/OneDrive/Desktop/GD32VW553/V1_MQTT_OK/GD32VW55X_Wifi_BLE_SDK/GD32VW55x_RELEASE_V1.0.2/MSDK/wpa_supplicant/src/common\dragonfly.c **** }
  51:C:/Users/stapi/OneDrive/Desktop/GD32VW553/V1_MQTT_OK/GD32VW55X_Wifi_BLE_SDK/GD32VW55x_RELEASE_V1.0.2/MSDK/wpa_supplicant/src/common\dragonfly.c **** 
  52:C:/Users/stapi/OneDrive/Desktop/GD32VW553/V1_MQTT_OK/GD32VW55X_Wifi_BLE_SDK/GD32VW55x_RELEASE_V1.0.2/MSDK/wpa_supplicant/src/common\dragonfly.c **** 
  53:C:/Users/stapi/OneDrive/Desktop/GD32VW553/V1_MQTT_OK/GD32VW55X_Wifi_BLE_SDK/GD32VW55x_RELEASE_V1.0.2/MSDK/wpa_supplicant/src/common\dragonfly.c **** int dragonfly_get_random_qr_qnr(const struct crypto_bignum *prime,
  54:C:/Users/stapi/OneDrive/Desktop/GD32VW553/V1_MQTT_OK/GD32VW55X_Wifi_BLE_SDK/GD32VW55x_RELEASE_V1.0.2/MSDK/wpa_supplicant/src/common\dragonfly.c **** 				struct crypto_bignum **qr,
  55:C:/Users/stapi/OneDrive/Desktop/GD32VW553/V1_MQTT_OK/GD32VW55X_Wifi_BLE_SDK/GD32VW55x_RELEASE_V1.0.2/MSDK/wpa_supplicant/src/common\dragonfly.c **** 				struct crypto_bignum **qnr)
  56:C:/Users/stapi/OneDrive/Desktop/GD32VW553/V1_MQTT_OK/GD32VW55X_Wifi_BLE_SDK/GD32VW55x_RELEASE_V1.0.2/MSDK/wpa_supplicant/src/common\dragonfly.c **** {
  57:C:/Users/stapi/OneDrive/Desktop/GD32VW553/V1_MQTT_OK/GD32VW55X_Wifi_BLE_SDK/GD32VW55x_RELEASE_V1.0.2/MSDK/wpa_supplicant/src/common\dragonfly.c **** 	*qr = *qnr = NULL;
  58:C:/Users/stapi/OneDrive/Desktop/GD32VW553/V1_MQTT_OK/GD32VW55X_Wifi_BLE_SDK/GD32VW55x_RELEASE_V1.0.2/MSDK/wpa_supplicant/src/common\dragonfly.c **** 
  59:C:/Users/stapi/OneDrive/Desktop/GD32VW553/V1_MQTT_OK/GD32VW55X_Wifi_BLE_SDK/GD32VW55x_RELEASE_V1.0.2/MSDK/wpa_supplicant/src/common\dragonfly.c **** 	while (!(*qr) || !(*qnr)) {
  60:C:/Users/stapi/OneDrive/Desktop/GD32VW553/V1_MQTT_OK/GD32VW55X_Wifi_BLE_SDK/GD32VW55x_RELEASE_V1.0.2/MSDK/wpa_supplicant/src/common\dragonfly.c **** 		struct crypto_bignum *tmp;
  61:C:/Users/stapi/OneDrive/Desktop/GD32VW553/V1_MQTT_OK/GD32VW55X_Wifi_BLE_SDK/GD32VW55x_RELEASE_V1.0.2/MSDK/wpa_supplicant/src/common\dragonfly.c **** 		int res;
  62:C:/Users/stapi/OneDrive/Desktop/GD32VW553/V1_MQTT_OK/GD32VW55X_Wifi_BLE_SDK/GD32VW55x_RELEASE_V1.0.2/MSDK/wpa_supplicant/src/common\dragonfly.c **** 
  63:C:/Users/stapi/OneDrive/Desktop/GD32VW553/V1_MQTT_OK/GD32VW55X_Wifi_BLE_SDK/GD32VW55x_RELEASE_V1.0.2/MSDK/wpa_supplicant/src/common\dragonfly.c **** 		tmp = crypto_bignum_init();
  64:C:/Users/stapi/OneDrive/Desktop/GD32VW553/V1_MQTT_OK/GD32VW55X_Wifi_BLE_SDK/GD32VW55x_RELEASE_V1.0.2/MSDK/wpa_supplicant/src/common\dragonfly.c **** 		if (!tmp || crypto_bignum_rand(tmp, prime) < 0) {
  65:C:/Users/stapi/OneDrive/Desktop/GD32VW553/V1_MQTT_OK/GD32VW55X_Wifi_BLE_SDK/GD32VW55x_RELEASE_V1.0.2/MSDK/wpa_supplicant/src/common\dragonfly.c **** 			crypto_bignum_deinit(tmp, 0);
  66:C:/Users/stapi/OneDrive/Desktop/GD32VW553/V1_MQTT_OK/GD32VW55X_Wifi_BLE_SDK/GD32VW55x_RELEASE_V1.0.2/MSDK/wpa_supplicant/src/common\dragonfly.c **** 			break;
  67:C:/Users/stapi/OneDrive/Desktop/GD32VW553/V1_MQTT_OK/GD32VW55X_Wifi_BLE_SDK/GD32VW55x_RELEASE_V1.0.2/MSDK/wpa_supplicant/src/common\dragonfly.c **** 		}
  68:C:/Users/stapi/OneDrive/Desktop/GD32VW553/V1_MQTT_OK/GD32VW55X_Wifi_BLE_SDK/GD32VW55x_RELEASE_V1.0.2/MSDK/wpa_supplicant/src/common\dragonfly.c **** 
  69:C:/Users/stapi/OneDrive/Desktop/GD32VW553/V1_MQTT_OK/GD32VW55X_Wifi_BLE_SDK/GD32VW55x_RELEASE_V1.0.2/MSDK/wpa_supplicant/src/common\dragonfly.c **** 		res = crypto_bignum_legendre(tmp, prime);
  70:C:/Users/stapi/OneDrive/Desktop/GD32VW553/V1_MQTT_OK/GD32VW55X_Wifi_BLE_SDK/GD32VW55x_RELEASE_V1.0.2/MSDK/wpa_supplicant/src/common\dragonfly.c **** 		if (res == 1 && !(*qr))
  71:C:/Users/stapi/OneDrive/Desktop/GD32VW553/V1_MQTT_OK/GD32VW55X_Wifi_BLE_SDK/GD32VW55x_RELEASE_V1.0.2/MSDK/wpa_supplicant/src/common\dragonfly.c **** 			*qr = tmp;
  72:C:/Users/stapi/OneDrive/Desktop/GD32VW553/V1_MQTT_OK/GD32VW55X_Wifi_BLE_SDK/GD32VW55x_RELEASE_V1.0.2/MSDK/wpa_supplicant/src/common\dragonfly.c **** 		else if (res == -1 && !(*qnr))
  73:C:/Users/stapi/OneDrive/Desktop/GD32VW553/V1_MQTT_OK/GD32VW55X_Wifi_BLE_SDK/GD32VW55x_RELEASE_V1.0.2/MSDK/wpa_supplicant/src/common\dragonfly.c **** 			*qnr = tmp;
  74:C:/Users/stapi/OneDrive/Desktop/GD32VW553/V1_MQTT_OK/GD32VW55X_Wifi_BLE_SDK/GD32VW55x_RELEASE_V1.0.2/MSDK/wpa_supplicant/src/common\dragonfly.c **** 		else
  75:C:/Users/stapi/OneDrive/Desktop/GD32VW553/V1_MQTT_OK/GD32VW55X_Wifi_BLE_SDK/GD32VW55x_RELEASE_V1.0.2/MSDK/wpa_supplicant/src/common\dragonfly.c **** 			crypto_bignum_deinit(tmp, 0);
  76:C:/Users/stapi/OneDrive/Desktop/GD32VW553/V1_MQTT_OK/GD32VW55X_Wifi_BLE_SDK/GD32VW55x_RELEASE_V1.0.2/MSDK/wpa_supplicant/src/common\dragonfly.c **** 	}
  77:C:/Users/stapi/OneDrive/Desktop/GD32VW553/V1_MQTT_OK/GD32VW55X_Wifi_BLE_SDK/GD32VW55x_RELEASE_V1.0.2/MSDK/wpa_supplicant/src/common\dragonfly.c **** 
  78:C:/Users/stapi/OneDrive/Desktop/GD32VW553/V1_MQTT_OK/GD32VW55X_Wifi_BLE_SDK/GD32VW55x_RELEASE_V1.0.2/MSDK/wpa_supplicant/src/common\dragonfly.c **** 	if (*qr && *qnr)
  79:C:/Users/stapi/OneDrive/Desktop/GD32VW553/V1_MQTT_OK/GD32VW55X_Wifi_BLE_SDK/GD32VW55x_RELEASE_V1.0.2/MSDK/wpa_supplicant/src/common\dragonfly.c **** 		return 0;
  80:C:/Users/stapi/OneDrive/Desktop/GD32VW553/V1_MQTT_OK/GD32VW55X_Wifi_BLE_SDK/GD32VW55x_RELEASE_V1.0.2/MSDK/wpa_supplicant/src/common\dragonfly.c **** 	crypto_bignum_deinit(*qr, 0);
  81:C:/Users/stapi/OneDrive/Desktop/GD32VW553/V1_MQTT_OK/GD32VW55X_Wifi_BLE_SDK/GD32VW55x_RELEASE_V1.0.2/MSDK/wpa_supplicant/src/common\dragonfly.c **** 	crypto_bignum_deinit(*qnr, 0);
  82:C:/Users/stapi/OneDrive/Desktop/GD32VW553/V1_MQTT_OK/GD32VW55X_Wifi_BLE_SDK/GD32VW55x_RELEASE_V1.0.2/MSDK/wpa_supplicant/src/common\dragonfly.c **** 	*qr = *qnr = NULL;
  83:C:/Users/stapi/OneDrive/Desktop/GD32VW553/V1_MQTT_OK/GD32VW55X_Wifi_BLE_SDK/GD32VW55x_RELEASE_V1.0.2/MSDK/wpa_supplicant/src/common\dragonfly.c **** 	return -1;
  84:C:/Users/stapi/OneDrive/Desktop/GD32VW553/V1_MQTT_OK/GD32VW55X_Wifi_BLE_SDK/GD32VW55x_RELEASE_V1.0.2/MSDK/wpa_supplicant/src/common\dragonfly.c **** }
  85:C:/Users/stapi/OneDrive/Desktop/GD32VW553/V1_MQTT_OK/GD32VW55X_Wifi_BLE_SDK/GD32VW55x_RELEASE_V1.0.2/MSDK/wpa_supplicant/src/common\dragonfly.c **** 
  86:C:/Users/stapi/OneDrive/Desktop/GD32VW553/V1_MQTT_OK/GD32VW55X_Wifi_BLE_SDK/GD32VW55x_RELEASE_V1.0.2/MSDK/wpa_supplicant/src/common\dragonfly.c **** 
  87:C:/Users/stapi/OneDrive/Desktop/GD32VW553/V1_MQTT_OK/GD32VW55X_Wifi_BLE_SDK/GD32VW55x_RELEASE_V1.0.2/MSDK/wpa_supplicant/src/common\dragonfly.c **** static struct crypto_bignum *
  88:C:/Users/stapi/OneDrive/Desktop/GD32VW553/V1_MQTT_OK/GD32VW55X_Wifi_BLE_SDK/GD32VW55x_RELEASE_V1.0.2/MSDK/wpa_supplicant/src/common\dragonfly.c **** dragonfly_get_rand_1_to_p_1(const struct crypto_bignum *prime)
  89:C:/Users/stapi/OneDrive/Desktop/GD32VW553/V1_MQTT_OK/GD32VW55X_Wifi_BLE_SDK/GD32VW55x_RELEASE_V1.0.2/MSDK/wpa_supplicant/src/common\dragonfly.c **** {
  90:C:/Users/stapi/OneDrive/Desktop/GD32VW553/V1_MQTT_OK/GD32VW55X_Wifi_BLE_SDK/GD32VW55x_RELEASE_V1.0.2/MSDK/wpa_supplicant/src/common\dragonfly.c **** 	struct crypto_bignum *tmp, *pm1, *one;
  91:C:/Users/stapi/OneDrive/Desktop/GD32VW553/V1_MQTT_OK/GD32VW55X_Wifi_BLE_SDK/GD32VW55x_RELEASE_V1.0.2/MSDK/wpa_supplicant/src/common\dragonfly.c **** 
  92:C:/Users/stapi/OneDrive/Desktop/GD32VW553/V1_MQTT_OK/GD32VW55X_Wifi_BLE_SDK/GD32VW55x_RELEASE_V1.0.2/MSDK/wpa_supplicant/src/common\dragonfly.c **** 	tmp = crypto_bignum_init();
  93:C:/Users/stapi/OneDrive/Desktop/GD32VW553/V1_MQTT_OK/GD32VW55X_Wifi_BLE_SDK/GD32VW55x_RELEASE_V1.0.2/MSDK/wpa_supplicant/src/common\dragonfly.c **** 	pm1 = crypto_bignum_init();
  94:C:/Users/stapi/OneDrive/Desktop/GD32VW553/V1_MQTT_OK/GD32VW55X_Wifi_BLE_SDK/GD32VW55x_RELEASE_V1.0.2/MSDK/wpa_supplicant/src/common\dragonfly.c **** 	one = crypto_bignum_init_set((const u8 *) "\x01", 1);
  95:C:/Users/stapi/OneDrive/Desktop/GD32VW553/V1_MQTT_OK/GD32VW55X_Wifi_BLE_SDK/GD32VW55x_RELEASE_V1.0.2/MSDK/wpa_supplicant/src/common\dragonfly.c **** 	if (!tmp || !pm1 || !one ||
  96:C:/Users/stapi/OneDrive/Desktop/GD32VW553/V1_MQTT_OK/GD32VW55X_Wifi_BLE_SDK/GD32VW55x_RELEASE_V1.0.2/MSDK/wpa_supplicant/src/common\dragonfly.c **** 	    crypto_bignum_sub(prime, one, pm1) < 0 ||
  97:C:/Users/stapi/OneDrive/Desktop/GD32VW553/V1_MQTT_OK/GD32VW55X_Wifi_BLE_SDK/GD32VW55x_RELEASE_V1.0.2/MSDK/wpa_supplicant/src/common\dragonfly.c **** 	    crypto_bignum_rand(tmp, pm1) < 0 ||
  98:C:/Users/stapi/OneDrive/Desktop/GD32VW553/V1_MQTT_OK/GD32VW55X_Wifi_BLE_SDK/GD32VW55x_RELEASE_V1.0.2/MSDK/wpa_supplicant/src/common\dragonfly.c **** 	    crypto_bignum_add(tmp, one, tmp) < 0) {
  99:C:/Users/stapi/OneDrive/Desktop/GD32VW553/V1_MQTT_OK/GD32VW55X_Wifi_BLE_SDK/GD32VW55x_RELEASE_V1.0.2/MSDK/wpa_supplicant/src/common\dragonfly.c **** 		crypto_bignum_deinit(tmp, 0);
 100:C:/Users/stapi/OneDrive/Desktop/GD32VW553/V1_MQTT_OK/GD32VW55X_Wifi_BLE_SDK/GD32VW55x_RELEASE_V1.0.2/MSDK/wpa_supplicant/src/common\dragonfly.c **** 		tmp = NULL;
 101:C:/Users/stapi/OneDrive/Desktop/GD32VW553/V1_MQTT_OK/GD32VW55X_Wifi_BLE_SDK/GD32VW55x_RELEASE_V1.0.2/MSDK/wpa_supplicant/src/common\dragonfly.c **** 	}
 102:C:/Users/stapi/OneDrive/Desktop/GD32VW553/V1_MQTT_OK/GD32VW55X_Wifi_BLE_SDK/GD32VW55x_RELEASE_V1.0.2/MSDK/wpa_supplicant/src/common\dragonfly.c **** 
 103:C:/Users/stapi/OneDrive/Desktop/GD32VW553/V1_MQTT_OK/GD32VW55X_Wifi_BLE_SDK/GD32VW55x_RELEASE_V1.0.2/MSDK/wpa_supplicant/src/common\dragonfly.c **** 	crypto_bignum_deinit(pm1, 0);
 104:C:/Users/stapi/OneDrive/Desktop/GD32VW553/V1_MQTT_OK/GD32VW55X_Wifi_BLE_SDK/GD32VW55x_RELEASE_V1.0.2/MSDK/wpa_supplicant/src/common\dragonfly.c **** 	crypto_bignum_deinit(one, 0);
 105:C:/Users/stapi/OneDrive/Desktop/GD32VW553/V1_MQTT_OK/GD32VW55X_Wifi_BLE_SDK/GD32VW55x_RELEASE_V1.0.2/MSDK/wpa_supplicant/src/common\dragonfly.c **** 	return tmp;
 106:C:/Users/stapi/OneDrive/Desktop/GD32VW553/V1_MQTT_OK/GD32VW55X_Wifi_BLE_SDK/GD32VW55x_RELEASE_V1.0.2/MSDK/wpa_supplicant/src/common\dragonfly.c **** }
 107:C:/Users/stapi/OneDrive/Desktop/GD32VW553/V1_MQTT_OK/GD32VW55X_Wifi_BLE_SDK/GD32VW55x_RELEASE_V1.0.2/MSDK/wpa_supplicant/src/common\dragonfly.c **** 
 108:C:/Users/stapi/OneDrive/Desktop/GD32VW553/V1_MQTT_OK/GD32VW55X_Wifi_BLE_SDK/GD32VW55x_RELEASE_V1.0.2/MSDK/wpa_supplicant/src/common\dragonfly.c **** 
 109:C:/Users/stapi/OneDrive/Desktop/GD32VW553/V1_MQTT_OK/GD32VW55X_Wifi_BLE_SDK/GD32VW55x_RELEASE_V1.0.2/MSDK/wpa_supplicant/src/common\dragonfly.c **** int dragonfly_is_quadratic_residue_blind(struct crypto_ec *ec,
 110:C:/Users/stapi/OneDrive/Desktop/GD32VW553/V1_MQTT_OK/GD32VW55X_Wifi_BLE_SDK/GD32VW55x_RELEASE_V1.0.2/MSDK/wpa_supplicant/src/common\dragonfly.c **** 					 const u8 *qr, const u8 *qnr,
 111:C:/Users/stapi/OneDrive/Desktop/GD32VW553/V1_MQTT_OK/GD32VW55X_Wifi_BLE_SDK/GD32VW55x_RELEASE_V1.0.2/MSDK/wpa_supplicant/src/common\dragonfly.c **** 					 const struct crypto_bignum *val)
 112:C:/Users/stapi/OneDrive/Desktop/GD32VW553/V1_MQTT_OK/GD32VW55X_Wifi_BLE_SDK/GD32VW55x_RELEASE_V1.0.2/MSDK/wpa_supplicant/src/common\dragonfly.c **** {
 113:C:/Users/stapi/OneDrive/Desktop/GD32VW553/V1_MQTT_OK/GD32VW55X_Wifi_BLE_SDK/GD32VW55x_RELEASE_V1.0.2/MSDK/wpa_supplicant/src/common\dragonfly.c **** 	struct crypto_bignum *r, *num, *qr_or_qnr = NULL;
 114:C:/Users/stapi/OneDrive/Desktop/GD32VW553/V1_MQTT_OK/GD32VW55X_Wifi_BLE_SDK/GD32VW55x_RELEASE_V1.0.2/MSDK/wpa_supplicant/src/common\dragonfly.c **** 	int check, res = -1;
 115:C:/Users/stapi/OneDrive/Desktop/GD32VW553/V1_MQTT_OK/GD32VW55X_Wifi_BLE_SDK/GD32VW55x_RELEASE_V1.0.2/MSDK/wpa_supplicant/src/common\dragonfly.c **** 	u8 qr_or_qnr_bin[DRAGONFLY_MAX_ECC_PRIME_LEN];
 116:C:/Users/stapi/OneDrive/Desktop/GD32VW553/V1_MQTT_OK/GD32VW55X_Wifi_BLE_SDK/GD32VW55x_RELEASE_V1.0.2/MSDK/wpa_supplicant/src/common\dragonfly.c **** 	const struct crypto_bignum *prime;
 117:C:/Users/stapi/OneDrive/Desktop/GD32VW553/V1_MQTT_OK/GD32VW55X_Wifi_BLE_SDK/GD32VW55x_RELEASE_V1.0.2/MSDK/wpa_supplicant/src/common\dragonfly.c **** 	size_t prime_len;
 118:C:/Users/stapi/OneDrive/Desktop/GD32VW553/V1_MQTT_OK/GD32VW55X_Wifi_BLE_SDK/GD32VW55x_RELEASE_V1.0.2/MSDK/wpa_supplicant/src/common\dragonfly.c **** 	unsigned int mask;
 119:C:/Users/stapi/OneDrive/Desktop/GD32VW553/V1_MQTT_OK/GD32VW55X_Wifi_BLE_SDK/GD32VW55x_RELEASE_V1.0.2/MSDK/wpa_supplicant/src/common\dragonfly.c **** 
 120:C:/Users/stapi/OneDrive/Desktop/GD32VW553/V1_MQTT_OK/GD32VW55X_Wifi_BLE_SDK/GD32VW55x_RELEASE_V1.0.2/MSDK/wpa_supplicant/src/common\dragonfly.c **** 	prime = crypto_ec_get_prime(ec);
 121:C:/Users/stapi/OneDrive/Desktop/GD32VW553/V1_MQTT_OK/GD32VW55X_Wifi_BLE_SDK/GD32VW55x_RELEASE_V1.0.2/MSDK/wpa_supplicant/src/common\dragonfly.c **** 	prime_len = crypto_ec_prime_len(ec);
 122:C:/Users/stapi/OneDrive/Desktop/GD32VW553/V1_MQTT_OK/GD32VW55X_Wifi_BLE_SDK/GD32VW55x_RELEASE_V1.0.2/MSDK/wpa_supplicant/src/common\dragonfly.c **** 
 123:C:/Users/stapi/OneDrive/Desktop/GD32VW553/V1_MQTT_OK/GD32VW55X_Wifi_BLE_SDK/GD32VW55x_RELEASE_V1.0.2/MSDK/wpa_supplicant/src/common\dragonfly.c **** 	/*
 124:C:/Users/stapi/OneDrive/Desktop/GD32VW553/V1_MQTT_OK/GD32VW55X_Wifi_BLE_SDK/GD32VW55x_RELEASE_V1.0.2/MSDK/wpa_supplicant/src/common\dragonfly.c **** 	 * Use a blinding technique to mask val while determining whether it is
 125:C:/Users/stapi/OneDrive/Desktop/GD32VW553/V1_MQTT_OK/GD32VW55X_Wifi_BLE_SDK/GD32VW55x_RELEASE_V1.0.2/MSDK/wpa_supplicant/src/common\dragonfly.c **** 	 * a quadratic residue modulo p to avoid leaking timing information
 126:C:/Users/stapi/OneDrive/Desktop/GD32VW553/V1_MQTT_OK/GD32VW55X_Wifi_BLE_SDK/GD32VW55x_RELEASE_V1.0.2/MSDK/wpa_supplicant/src/common\dragonfly.c **** 	 * while determining the Legendre symbol.
 127:C:/Users/stapi/OneDrive/Desktop/GD32VW553/V1_MQTT_OK/GD32VW55X_Wifi_BLE_SDK/GD32VW55x_RELEASE_V1.0.2/MSDK/wpa_supplicant/src/common\dragonfly.c **** 	 *
 128:C:/Users/stapi/OneDrive/Desktop/GD32VW553/V1_MQTT_OK/GD32VW55X_Wifi_BLE_SDK/GD32VW55x_RELEASE_V1.0.2/MSDK/wpa_supplicant/src/common\dragonfly.c **** 	 * v = val
 129:C:/Users/stapi/OneDrive/Desktop/GD32VW553/V1_MQTT_OK/GD32VW55X_Wifi_BLE_SDK/GD32VW55x_RELEASE_V1.0.2/MSDK/wpa_supplicant/src/common\dragonfly.c **** 	 * r = a random number between 1 and p-1, inclusive
 130:C:/Users/stapi/OneDrive/Desktop/GD32VW553/V1_MQTT_OK/GD32VW55X_Wifi_BLE_SDK/GD32VW55x_RELEASE_V1.0.2/MSDK/wpa_supplicant/src/common\dragonfly.c **** 	 * num = (v * r * r) modulo p
 131:C:/Users/stapi/OneDrive/Desktop/GD32VW553/V1_MQTT_OK/GD32VW55X_Wifi_BLE_SDK/GD32VW55x_RELEASE_V1.0.2/MSDK/wpa_supplicant/src/common\dragonfly.c **** 	 */
 132:C:/Users/stapi/OneDrive/Desktop/GD32VW553/V1_MQTT_OK/GD32VW55X_Wifi_BLE_SDK/GD32VW55x_RELEASE_V1.0.2/MSDK/wpa_supplicant/src/common\dragonfly.c **** 	r = dragonfly_get_rand_1_to_p_1(prime);
 133:C:/Users/stapi/OneDrive/Desktop/GD32VW553/V1_MQTT_OK/GD32VW55X_Wifi_BLE_SDK/GD32VW55x_RELEASE_V1.0.2/MSDK/wpa_supplicant/src/common\dragonfly.c **** 	if (!r)
 134:C:/Users/stapi/OneDrive/Desktop/GD32VW553/V1_MQTT_OK/GD32VW55X_Wifi_BLE_SDK/GD32VW55x_RELEASE_V1.0.2/MSDK/wpa_supplicant/src/common\dragonfly.c **** 		return -1;
 135:C:/Users/stapi/OneDrive/Desktop/GD32VW553/V1_MQTT_OK/GD32VW55X_Wifi_BLE_SDK/GD32VW55x_RELEASE_V1.0.2/MSDK/wpa_supplicant/src/common\dragonfly.c **** 
 136:C:/Users/stapi/OneDrive/Desktop/GD32VW553/V1_MQTT_OK/GD32VW55X_Wifi_BLE_SDK/GD32VW55x_RELEASE_V1.0.2/MSDK/wpa_supplicant/src/common\dragonfly.c **** 	num = crypto_bignum_init();
 137:C:/Users/stapi/OneDrive/Desktop/GD32VW553/V1_MQTT_OK/GD32VW55X_Wifi_BLE_SDK/GD32VW55x_RELEASE_V1.0.2/MSDK/wpa_supplicant/src/common\dragonfly.c **** 	if (!num ||
 138:C:/Users/stapi/OneDrive/Desktop/GD32VW553/V1_MQTT_OK/GD32VW55X_Wifi_BLE_SDK/GD32VW55x_RELEASE_V1.0.2/MSDK/wpa_supplicant/src/common\dragonfly.c **** 	    crypto_bignum_mulmod(val, r, prime, num) < 0 ||
 139:C:/Users/stapi/OneDrive/Desktop/GD32VW553/V1_MQTT_OK/GD32VW55X_Wifi_BLE_SDK/GD32VW55x_RELEASE_V1.0.2/MSDK/wpa_supplicant/src/common\dragonfly.c **** 	    crypto_bignum_mulmod(num, r, prime, num) < 0)
 140:C:/Users/stapi/OneDrive/Desktop/GD32VW553/V1_MQTT_OK/GD32VW55X_Wifi_BLE_SDK/GD32VW55x_RELEASE_V1.0.2/MSDK/wpa_supplicant/src/common\dragonfly.c **** 		goto fail;
 141:C:/Users/stapi/OneDrive/Desktop/GD32VW553/V1_MQTT_OK/GD32VW55X_Wifi_BLE_SDK/GD32VW55x_RELEASE_V1.0.2/MSDK/wpa_supplicant/src/common\dragonfly.c **** 
 142:C:/Users/stapi/OneDrive/Desktop/GD32VW553/V1_MQTT_OK/GD32VW55X_Wifi_BLE_SDK/GD32VW55x_RELEASE_V1.0.2/MSDK/wpa_supplicant/src/common\dragonfly.c **** 	/*
 143:C:/Users/stapi/OneDrive/Desktop/GD32VW553/V1_MQTT_OK/GD32VW55X_Wifi_BLE_SDK/GD32VW55x_RELEASE_V1.0.2/MSDK/wpa_supplicant/src/common\dragonfly.c **** 	 * Need to minimize differences in handling different cases, so try to
 144:C:/Users/stapi/OneDrive/Desktop/GD32VW553/V1_MQTT_OK/GD32VW55X_Wifi_BLE_SDK/GD32VW55x_RELEASE_V1.0.2/MSDK/wpa_supplicant/src/common\dragonfly.c **** 	 * avoid branches and timing differences.
 145:C:/Users/stapi/OneDrive/Desktop/GD32VW553/V1_MQTT_OK/GD32VW55X_Wifi_BLE_SDK/GD32VW55x_RELEASE_V1.0.2/MSDK/wpa_supplicant/src/common\dragonfly.c **** 	 *
 146:C:/Users/stapi/OneDrive/Desktop/GD32VW553/V1_MQTT_OK/GD32VW55X_Wifi_BLE_SDK/GD32VW55x_RELEASE_V1.0.2/MSDK/wpa_supplicant/src/common\dragonfly.c **** 	 * If r is odd:
 147:C:/Users/stapi/OneDrive/Desktop/GD32VW553/V1_MQTT_OK/GD32VW55X_Wifi_BLE_SDK/GD32VW55x_RELEASE_V1.0.2/MSDK/wpa_supplicant/src/common\dragonfly.c **** 	 * num = (num * qr) module p
 148:C:/Users/stapi/OneDrive/Desktop/GD32VW553/V1_MQTT_OK/GD32VW55X_Wifi_BLE_SDK/GD32VW55x_RELEASE_V1.0.2/MSDK/wpa_supplicant/src/common\dragonfly.c **** 	 * LGR(num, p) = 1 ==> quadratic residue
 149:C:/Users/stapi/OneDrive/Desktop/GD32VW553/V1_MQTT_OK/GD32VW55X_Wifi_BLE_SDK/GD32VW55x_RELEASE_V1.0.2/MSDK/wpa_supplicant/src/common\dragonfly.c **** 	 * else:
 150:C:/Users/stapi/OneDrive/Desktop/GD32VW553/V1_MQTT_OK/GD32VW55X_Wifi_BLE_SDK/GD32VW55x_RELEASE_V1.0.2/MSDK/wpa_supplicant/src/common\dragonfly.c **** 	 * num = (num * qnr) module p
 151:C:/Users/stapi/OneDrive/Desktop/GD32VW553/V1_MQTT_OK/GD32VW55X_Wifi_BLE_SDK/GD32VW55x_RELEASE_V1.0.2/MSDK/wpa_supplicant/src/common\dragonfly.c **** 	 * LGR(num, p) = -1 ==> quadratic residue
 152:C:/Users/stapi/OneDrive/Desktop/GD32VW553/V1_MQTT_OK/GD32VW55X_Wifi_BLE_SDK/GD32VW55x_RELEASE_V1.0.2/MSDK/wpa_supplicant/src/common\dragonfly.c **** 	 *
 153:C:/Users/stapi/OneDrive/Desktop/GD32VW553/V1_MQTT_OK/GD32VW55X_Wifi_BLE_SDK/GD32VW55x_RELEASE_V1.0.2/MSDK/wpa_supplicant/src/common\dragonfly.c **** 	 * mask is set to !odd(r)
 154:C:/Users/stapi/OneDrive/Desktop/GD32VW553/V1_MQTT_OK/GD32VW55X_Wifi_BLE_SDK/GD32VW55x_RELEASE_V1.0.2/MSDK/wpa_supplicant/src/common\dragonfly.c **** 	 */
 155:C:/Users/stapi/OneDrive/Desktop/GD32VW553/V1_MQTT_OK/GD32VW55X_Wifi_BLE_SDK/GD32VW55x_RELEASE_V1.0.2/MSDK/wpa_supplicant/src/common\dragonfly.c **** 	mask = const_time_is_zero(crypto_bignum_is_odd(r));
 156:C:/Users/stapi/OneDrive/Desktop/GD32VW553/V1_MQTT_OK/GD32VW55X_Wifi_BLE_SDK/GD32VW55x_RELEASE_V1.0.2/MSDK/wpa_supplicant/src/common\dragonfly.c **** 	const_time_select_bin(mask, qnr, qr, prime_len, qr_or_qnr_bin);
 157:C:/Users/stapi/OneDrive/Desktop/GD32VW553/V1_MQTT_OK/GD32VW55X_Wifi_BLE_SDK/GD32VW55x_RELEASE_V1.0.2/MSDK/wpa_supplicant/src/common\dragonfly.c **** 	qr_or_qnr = crypto_bignum_init_set(qr_or_qnr_bin, prime_len);
 158:C:/Users/stapi/OneDrive/Desktop/GD32VW553/V1_MQTT_OK/GD32VW55X_Wifi_BLE_SDK/GD32VW55x_RELEASE_V1.0.2/MSDK/wpa_supplicant/src/common\dragonfly.c **** 	if (!qr_or_qnr ||
 159:C:/Users/stapi/OneDrive/Desktop/GD32VW553/V1_MQTT_OK/GD32VW55X_Wifi_BLE_SDK/GD32VW55x_RELEASE_V1.0.2/MSDK/wpa_supplicant/src/common\dragonfly.c **** 	    crypto_bignum_mulmod(num, qr_or_qnr, prime, num) < 0)
 160:C:/Users/stapi/OneDrive/Desktop/GD32VW553/V1_MQTT_OK/GD32VW55X_Wifi_BLE_SDK/GD32VW55x_RELEASE_V1.0.2/MSDK/wpa_supplicant/src/common\dragonfly.c **** 		goto fail;
 161:C:/Users/stapi/OneDrive/Desktop/GD32VW553/V1_MQTT_OK/GD32VW55X_Wifi_BLE_SDK/GD32VW55x_RELEASE_V1.0.2/MSDK/wpa_supplicant/src/common\dragonfly.c **** 	/* branchless version of check = odd(r) ? 1 : -1, */
 162:C:/Users/stapi/OneDrive/Desktop/GD32VW553/V1_MQTT_OK/GD32VW55X_Wifi_BLE_SDK/GD32VW55x_RELEASE_V1.0.2/MSDK/wpa_supplicant/src/common\dragonfly.c **** 	check = const_time_select_int(mask, -1, 1);
 163:C:/Users/stapi/OneDrive/Desktop/GD32VW553/V1_MQTT_OK/GD32VW55X_Wifi_BLE_SDK/GD32VW55x_RELEASE_V1.0.2/MSDK/wpa_supplicant/src/common\dragonfly.c **** 
 164:C:/Users/stapi/OneDrive/Desktop/GD32VW553/V1_MQTT_OK/GD32VW55X_Wifi_BLE_SDK/GD32VW55x_RELEASE_V1.0.2/MSDK/wpa_supplicant/src/common\dragonfly.c **** 	/* Determine the Legendre symbol on the masked value */
 165:C:/Users/stapi/OneDrive/Desktop/GD32VW553/V1_MQTT_OK/GD32VW55X_Wifi_BLE_SDK/GD32VW55x_RELEASE_V1.0.2/MSDK/wpa_supplicant/src/common\dragonfly.c **** 	res = crypto_bignum_legendre(num, prime);
 166:C:/Users/stapi/OneDrive/Desktop/GD32VW553/V1_MQTT_OK/GD32VW55X_Wifi_BLE_SDK/GD32VW55x_RELEASE_V1.0.2/MSDK/wpa_supplicant/src/common\dragonfly.c **** 	if (res == -2) {
 167:C:/Users/stapi/OneDrive/Desktop/GD32VW553/V1_MQTT_OK/GD32VW55X_Wifi_BLE_SDK/GD32VW55x_RELEASE_V1.0.2/MSDK/wpa_supplicant/src/common\dragonfly.c **** 		res = -1;
 168:C:/Users/stapi/OneDrive/Desktop/GD32VW553/V1_MQTT_OK/GD32VW55X_Wifi_BLE_SDK/GD32VW55x_RELEASE_V1.0.2/MSDK/wpa_supplicant/src/common\dragonfly.c **** 		goto fail;
 169:C:/Users/stapi/OneDrive/Desktop/GD32VW553/V1_MQTT_OK/GD32VW55X_Wifi_BLE_SDK/GD32VW55x_RELEASE_V1.0.2/MSDK/wpa_supplicant/src/common\dragonfly.c **** 	}
 170:C:/Users/stapi/OneDrive/Desktop/GD32VW553/V1_MQTT_OK/GD32VW55X_Wifi_BLE_SDK/GD32VW55x_RELEASE_V1.0.2/MSDK/wpa_supplicant/src/common\dragonfly.c **** 	/* branchless version of res = res == check
 171:C:/Users/stapi/OneDrive/Desktop/GD32VW553/V1_MQTT_OK/GD32VW55X_Wifi_BLE_SDK/GD32VW55x_RELEASE_V1.0.2/MSDK/wpa_supplicant/src/common\dragonfly.c **** 	 * (res is -1, 0, or 1; check is -1 or 1) */
 172:C:/Users/stapi/OneDrive/Desktop/GD32VW553/V1_MQTT_OK/GD32VW55X_Wifi_BLE_SDK/GD32VW55x_RELEASE_V1.0.2/MSDK/wpa_supplicant/src/common\dragonfly.c **** 	mask = const_time_eq(res, check);
 173:C:/Users/stapi/OneDrive/Desktop/GD32VW553/V1_MQTT_OK/GD32VW55X_Wifi_BLE_SDK/GD32VW55x_RELEASE_V1.0.2/MSDK/wpa_supplicant/src/common\dragonfly.c **** 	res = const_time_select_int(mask, 1, 0);
 174:C:/Users/stapi/OneDrive/Desktop/GD32VW553/V1_MQTT_OK/GD32VW55X_Wifi_BLE_SDK/GD32VW55x_RELEASE_V1.0.2/MSDK/wpa_supplicant/src/common\dragonfly.c **** fail:
 175:C:/Users/stapi/OneDrive/Desktop/GD32VW553/V1_MQTT_OK/GD32VW55X_Wifi_BLE_SDK/GD32VW55x_RELEASE_V1.0.2/MSDK/wpa_supplicant/src/common\dragonfly.c **** 	crypto_bignum_deinit(num, 1);
 176:C:/Users/stapi/OneDrive/Desktop/GD32VW553/V1_MQTT_OK/GD32VW55X_Wifi_BLE_SDK/GD32VW55x_RELEASE_V1.0.2/MSDK/wpa_supplicant/src/common\dragonfly.c **** 	crypto_bignum_deinit(r, 1);
 177:C:/Users/stapi/OneDrive/Desktop/GD32VW553/V1_MQTT_OK/GD32VW55X_Wifi_BLE_SDK/GD32VW55x_RELEASE_V1.0.2/MSDK/wpa_supplicant/src/common\dragonfly.c **** 	crypto_bignum_deinit(qr_or_qnr, 1);
 178:C:/Users/stapi/OneDrive/Desktop/GD32VW553/V1_MQTT_OK/GD32VW55X_Wifi_BLE_SDK/GD32VW55x_RELEASE_V1.0.2/MSDK/wpa_supplicant/src/common\dragonfly.c **** 	return res;
 179:C:/Users/stapi/OneDrive/Desktop/GD32VW553/V1_MQTT_OK/GD32VW55X_Wifi_BLE_SDK/GD32VW55x_RELEASE_V1.0.2/MSDK/wpa_supplicant/src/common\dragonfly.c **** }
 180:C:/Users/stapi/OneDrive/Desktop/GD32VW553/V1_MQTT_OK/GD32VW55X_Wifi_BLE_SDK/GD32VW55x_RELEASE_V1.0.2/MSDK/wpa_supplicant/src/common\dragonfly.c **** 
 181:C:/Users/stapi/OneDrive/Desktop/GD32VW553/V1_MQTT_OK/GD32VW55X_Wifi_BLE_SDK/GD32VW55x_RELEASE_V1.0.2/MSDK/wpa_supplicant/src/common\dragonfly.c **** 
 182:C:/Users/stapi/OneDrive/Desktop/GD32VW553/V1_MQTT_OK/GD32VW55X_Wifi_BLE_SDK/GD32VW55x_RELEASE_V1.0.2/MSDK/wpa_supplicant/src/common\dragonfly.c **** static int dragonfly_get_rand_2_to_r_1(struct crypto_bignum *val,
 183:C:/Users/stapi/OneDrive/Desktop/GD32VW553/V1_MQTT_OK/GD32VW55X_Wifi_BLE_SDK/GD32VW55x_RELEASE_V1.0.2/MSDK/wpa_supplicant/src/common\dragonfly.c **** 				       const struct crypto_bignum *order)
 184:C:/Users/stapi/OneDrive/Desktop/GD32VW553/V1_MQTT_OK/GD32VW55X_Wifi_BLE_SDK/GD32VW55x_RELEASE_V1.0.2/MSDK/wpa_supplicant/src/common\dragonfly.c **** {
  15              		.loc 1 184 1
  16              		.cfi_startproc
  17              	.LVL0:
  18 0000 17030000 		call	t0,__riscv_save_1
  18      E7020300 
  19              		.cfi_offset 8, -8
  20              		.cfi_offset 1, -4
  21              		.cfi_def_cfa_offset 16
  22              		.loc 1 184 1 is_stmt 0
  23 0008 2A84     		mv	s0,a0
 185:C:/Users/stapi/OneDrive/Desktop/GD32VW553/V1_MQTT_OK/GD32VW55X_Wifi_BLE_SDK/GD32VW55x_RELEASE_V1.0.2/MSDK/wpa_supplicant/src/common\dragonfly.c **** 	return crypto_bignum_rand(val, order) == 0 &&
  24              		.loc 1 185 2 is_stmt 1
  25              		.loc 1 185 9 is_stmt 0
  26 000a 97000000 		call	crypto_bignum_rand
  26      E7800000 
  27              	.LVL1:
 186:C:/Users/stapi/OneDrive/Desktop/GD32VW553/V1_MQTT_OK/GD32VW55X_Wifi_BLE_SDK/GD32VW55x_RELEASE_V1.0.2/MSDK/wpa_supplicant/src/common\dragonfly.c **** 		!crypto_bignum_is_zero(val) &&
  28              		.loc 1 186 31
  29 0012 11C5     		beq	a0,zero,.L2
  30              	.L4:
  31 0014 0145     		li	a0,0
  32              	.L1:
 187:C:/Users/stapi/OneDrive/Desktop/GD32VW553/V1_MQTT_OK/GD32VW55X_Wifi_BLE_SDK/GD32VW55x_RELEASE_V1.0.2/MSDK/wpa_supplicant/src/common\dragonfly.c **** 		!crypto_bignum_is_one(val);
 188:C:/Users/stapi/OneDrive/Desktop/GD32VW553/V1_MQTT_OK/GD32VW55X_Wifi_BLE_SDK/GD32VW55x_RELEASE_V1.0.2/MSDK/wpa_supplicant/src/common\dragonfly.c **** }
  33              		.loc 1 188 1
  34 0016 17030000 		tail	__riscv_restore_1
  34      67000300 
  35              		.cfi_remember_state
  36              		.cfi_restore 8
  37              		.cfi_restore 1
  38              		.cfi_def_cfa_offset 0
  39              	.L2:
  40              		.cfi_restore_state
 186:C:/Users/stapi/OneDrive/Desktop/GD32VW553/V1_MQTT_OK/GD32VW55X_Wifi_BLE_SDK/GD32VW55x_RELEASE_V1.0.2/MSDK/wpa_supplicant/src/common\dragonfly.c **** 		!crypto_bignum_is_zero(val) &&
  41              		.loc 1 186 4 discriminator 1
  42 001e 2285     		mv	a0,s0
  43 0020 97000000 		call	crypto_bignum_is_zero
  43      E7800000 
  44              	.LVL2:
 185:C:/Users/stapi/OneDrive/Desktop/GD32VW553/V1_MQTT_OK/GD32VW55X_Wifi_BLE_SDK/GD32VW55x_RELEASE_V1.0.2/MSDK/wpa_supplicant/src/common\dragonfly.c **** 		!crypto_bignum_is_zero(val) &&
  45              		.loc 1 185 45 discriminator 1
  46 0028 75F5     		bne	a0,zero,.L4
  47              	.LVL3:
  48              	.LBB22:
  49              	.LBB23:
 187:C:/Users/stapi/OneDrive/Desktop/GD32VW553/V1_MQTT_OK/GD32VW55X_Wifi_BLE_SDK/GD32VW55x_RELEASE_V1.0.2/MSDK/wpa_supplicant/src/common\dragonfly.c **** 		!crypto_bignum_is_one(val);
  50              		.loc 1 187 4
  51 002a 2285     		mv	a0,s0
  52 002c 97000000 		call	crypto_bignum_is_one
  52      E7800000 
  53              	.LVL4:
 186:C:/Users/stapi/OneDrive/Desktop/GD32VW553/V1_MQTT_OK/GD32VW55X_Wifi_BLE_SDK/GD32VW55x_RELEASE_V1.0.2/MSDK/wpa_supplicant/src/common\dragonfly.c **** 		!crypto_bignum_is_zero(val) &&
  54              		.loc 1 186 31
  55 0034 13351500 		seqz	a0,a0
  56              	.LVL5:
  57              	.LBE23:
  58              	.LBE22:
  59 0038 F9BF     		j	.L1
  60              		.cfi_endproc
  61              	.LFE87:
  63              		.section	.text.dragonfly_suitable_group,"ax",@progbits
  64              		.align	1
  65              		.globl	dragonfly_suitable_group
  67              	dragonfly_suitable_group:
  68              	.LFB82:
  19:C:/Users/stapi/OneDrive/Desktop/GD32VW553/V1_MQTT_OK/GD32VW55X_Wifi_BLE_SDK/GD32VW55x_RELEASE_V1.0.2/MSDK/wpa_supplicant/src/common\dragonfly.c **** 	/* Enforce REVmd rules on which SAE groups are suitable for production
  69              		.loc 1 19 1 is_stmt 1
  70              		.cfi_startproc
  71              	.LVL6:
  28:C:/Users/stapi/OneDrive/Desktop/GD32VW553/V1_MQTT_OK/GD32VW55X_Wifi_BLE_SDK/GD32VW55x_RELEASE_V1.0.2/MSDK/wpa_supplicant/src/common\dragonfly.c **** 		(!ecc_only &&
  72              		.loc 1 28 2
  28:C:/Users/stapi/OneDrive/Desktop/GD32VW553/V1_MQTT_OK/GD32VW55X_Wifi_BLE_SDK/GD32VW55x_RELEASE_V1.0.2/MSDK/wpa_supplicant/src/common\dragonfly.c **** 		(!ecc_only &&
  73              		.loc 1 28 36 is_stmt 0
  74 0000 9306D5FE 		addi	a3,a0,-19
  28:C:/Users/stapi/OneDrive/Desktop/GD32VW553/V1_MQTT_OK/GD32VW55X_Wifi_BLE_SDK/GD32VW55x_RELEASE_V1.0.2/MSDK/wpa_supplicant/src/common\dragonfly.c **** 		(!ecc_only &&
  75              		.loc 1 28 51
  76 0004 0947     		li	a4,2
  19:C:/Users/stapi/OneDrive/Desktop/GD32VW553/V1_MQTT_OK/GD32VW55X_Wifi_BLE_SDK/GD32VW55x_RELEASE_V1.0.2/MSDK/wpa_supplicant/src/common\dragonfly.c **** 	/* Enforce REVmd rules on which SAE groups are suitable for production
  77              		.loc 1 19 1
  78 0006 AA87     		mv	a5,a0
  28:C:/Users/stapi/OneDrive/Desktop/GD32VW553/V1_MQTT_OK/GD32VW55X_Wifi_BLE_SDK/GD32VW55x_RELEASE_V1.0.2/MSDK/wpa_supplicant/src/common\dragonfly.c **** 		(!ecc_only &&
  79              		.loc 1 28 51
  80 0008 6378D700 		bleu	a3,a4,.L8
  28:C:/Users/stapi/OneDrive/Desktop/GD32VW553/V1_MQTT_OK/GD32VW55X_Wifi_BLE_SDK/GD32VW55x_RELEASE_V1.0.2/MSDK/wpa_supplicant/src/common\dragonfly.c **** 		(!ecc_only &&
  81              		.loc 1 28 51 discriminator 2
  82 000c 0145     		li	a0,0
  83              	.LVL7:
  84 000e 91E5     		bne	a1,zero,.L6
  30:C:/Users/stapi/OneDrive/Desktop/GD32VW553/V1_MQTT_OK/GD32VW55X_Wifi_BLE_SDK/GD32VW55x_RELEASE_V1.0.2/MSDK/wpa_supplicant/src/common\dragonfly.c **** }
  85              		.loc 1 30 47
  86 0010 C517     		addi	a5,a5,-15
  87              	.LVL8:
  29:C:/Users/stapi/OneDrive/Desktop/GD32VW553/V1_MQTT_OK/GD32VW55X_Wifi_BLE_SDK/GD32VW55x_RELEASE_V1.0.2/MSDK/wpa_supplicant/src/common\dragonfly.c **** 		 (group == 15 || group == 16 || group == 17 || group == 18));
  88              		.loc 1 29 14
  89 0012 13B54700 		sltiu	a0,a5,4
  90 0016 8280     		ret
  91              	.LVL9:
  92              	.L8:
  28:C:/Users/stapi/OneDrive/Desktop/GD32VW553/V1_MQTT_OK/GD32VW55X_Wifi_BLE_SDK/GD32VW55x_RELEASE_V1.0.2/MSDK/wpa_supplicant/src/common\dragonfly.c **** 		(!ecc_only &&
  93              		.loc 1 28 51
  94 0018 0545     		li	a0,1
  95              	.LVL10:
  96              	.L6:
  31:C:/Users/stapi/OneDrive/Desktop/GD32VW553/V1_MQTT_OK/GD32VW55X_Wifi_BLE_SDK/GD32VW55x_RELEASE_V1.0.2/MSDK/wpa_supplicant/src/common\dragonfly.c **** 
  97              		.loc 1 31 1
  98 001a 8280     		ret
  99              		.cfi_endproc
 100              	.LFE82:
 102              		.section	.text.dragonfly_min_pwe_loop_iter,"ax",@progbits
 103              		.align	1
 104              		.globl	dragonfly_min_pwe_loop_iter
 106              	dragonfly_min_pwe_loop_iter:
 107              	.LFB83:
  35:C:/Users/stapi/OneDrive/Desktop/GD32VW553/V1_MQTT_OK/GD32VW55X_Wifi_BLE_SDK/GD32VW55x_RELEASE_V1.0.2/MSDK/wpa_supplicant/src/common\dragonfly.c **** 	if (group == 22 || group == 23 || group == 24) {
 108              		.loc 1 35 1 is_stmt 1
 109              		.cfi_startproc
 110              	.LVL11:
  36:C:/Users/stapi/OneDrive/Desktop/GD32VW553/V1_MQTT_OK/GD32VW55X_Wifi_BLE_SDK/GD32VW55x_RELEASE_V1.0.2/MSDK/wpa_supplicant/src/common\dragonfly.c **** 		/* FFC groups for which pwd-value is likely to be >= p
 111              		.loc 1 36 2
  36:C:/Users/stapi/OneDrive/Desktop/GD32VW553/V1_MQTT_OK/GD32VW55X_Wifi_BLE_SDK/GD32VW55x_RELEASE_V1.0.2/MSDK/wpa_supplicant/src/common\dragonfly.c **** 		/* FFC groups for which pwd-value is likely to be >= p
 112              		.loc 1 36 33 is_stmt 0
 113 0000 9306A5FE 		addi	a3,a0,-22
  36:C:/Users/stapi/OneDrive/Desktop/GD32VW553/V1_MQTT_OK/GD32VW55X_Wifi_BLE_SDK/GD32VW55x_RELEASE_V1.0.2/MSDK/wpa_supplicant/src/common\dragonfly.c **** 		/* FFC groups for which pwd-value is likely to be >= p
 114              		.loc 1 36 5
 115 0004 8947     		li	a5,2
  35:C:/Users/stapi/OneDrive/Desktop/GD32VW553/V1_MQTT_OK/GD32VW55X_Wifi_BLE_SDK/GD32VW55x_RELEASE_V1.0.2/MSDK/wpa_supplicant/src/common\dragonfly.c **** 	if (group == 22 || group == 23 || group == 24) {
 116              		.loc 1 35 1
 117 0006 2A87     		mv	a4,a0
  36:C:/Users/stapi/OneDrive/Desktop/GD32VW553/V1_MQTT_OK/GD32VW55X_Wifi_BLE_SDK/GD32VW55x_RELEASE_V1.0.2/MSDK/wpa_supplicant/src/common\dragonfly.c **** 		/* FFC groups for which pwd-value is likely to be >= p
 118              		.loc 1 36 5
 119 0008 63FFD700 		bleu	a3,a5,.L12
  42:C:/Users/stapi/OneDrive/Desktop/GD32VW553/V1_MQTT_OK/GD32VW55X_Wifi_BLE_SDK/GD32VW55x_RELEASE_V1.0.2/MSDK/wpa_supplicant/src/common\dragonfly.c **** 	    group == 15 || group == 16 || group == 17 || group == 18) {
 120              		.loc 1 42 2 is_stmt 1
  42:C:/Users/stapi/OneDrive/Desktop/GD32VW553/V1_MQTT_OK/GD32VW55X_Wifi_BLE_SDK/GD32VW55x_RELEASE_V1.0.2/MSDK/wpa_supplicant/src/common\dragonfly.c **** 	    group == 15 || group == 16 || group == 17 || group == 18) {
 121              		.loc 1 42 5 is_stmt 0
 122 000c C947     		li	a5,18
  39:C:/Users/stapi/OneDrive/Desktop/GD32VW553/V1_MQTT_OK/GD32VW55X_Wifi_BLE_SDK/GD32VW55x_RELEASE_V1.0.2/MSDK/wpa_supplicant/src/common\dragonfly.c **** 	}
 123              		.loc 1 39 10
 124 000e 13058002 		li	a0,40
 125              	.LVL12:
  42:C:/Users/stapi/OneDrive/Desktop/GD32VW553/V1_MQTT_OK/GD32VW55X_Wifi_BLE_SDK/GD32VW55x_RELEASE_V1.0.2/MSDK/wpa_supplicant/src/common\dragonfly.c **** 	    group == 15 || group == 16 || group == 17 || group == 18) {
 126              		.loc 1 42 5
 127 0012 63ECE700 		bgtu	a4,a5,.L10
 128 0016 B7C70700 		li	a5,507904
 129 001a 93876702 		addi	a5,a5,38
  45:C:/Users/stapi/OneDrive/Desktop/GD32VW553/V1_MQTT_OK/GD32VW55X_Wifi_BLE_SDK/GD32VW55x_RELEASE_V1.0.2/MSDK/wpa_supplicant/src/common\dragonfly.c **** 	}
 130              		.loc 1 45 10
 131 001e 0545     		li	a0,1
  42:C:/Users/stapi/OneDrive/Desktop/GD32VW553/V1_MQTT_OK/GD32VW55X_Wifi_BLE_SDK/GD32VW55x_RELEASE_V1.0.2/MSDK/wpa_supplicant/src/common\dragonfly.c **** 	    group == 15 || group == 16 || group == 17 || group == 18) {
 132              		.loc 1 42 5
 133 0020 B3D7E748 		bext	a5,a5,a4
 134 0024 99E3     		bne	a5,zero,.L10
 135              	.L12:
  39:C:/Users/stapi/OneDrive/Desktop/GD32VW553/V1_MQTT_OK/GD32VW55X_Wifi_BLE_SDK/GD32VW55x_RELEASE_V1.0.2/MSDK/wpa_supplicant/src/common\dragonfly.c **** 	}
 136              		.loc 1 39 10
 137 0026 13058002 		li	a0,40
 138              	.L10:
  50:C:/Users/stapi/OneDrive/Desktop/GD32VW553/V1_MQTT_OK/GD32VW55X_Wifi_BLE_SDK/GD32VW55x_RELEASE_V1.0.2/MSDK/wpa_supplicant/src/common\dragonfly.c **** 
 139              		.loc 1 50 1
 140 002a 8280     		ret
 141              		.cfi_endproc
 142              	.LFE83:
 144              		.section	.text.dragonfly_get_random_qr_qnr,"ax",@progbits
 145              		.align	1
 146              		.globl	dragonfly_get_random_qr_qnr
 148              	dragonfly_get_random_qr_qnr:
 149              	.LFB84:
  56:C:/Users/stapi/OneDrive/Desktop/GD32VW553/V1_MQTT_OK/GD32VW55X_Wifi_BLE_SDK/GD32VW55x_RELEASE_V1.0.2/MSDK/wpa_supplicant/src/common\dragonfly.c **** 	*qr = *qnr = NULL;
 150              		.loc 1 56 1 is_stmt 1
 151              		.cfi_startproc
 152              	.LVL13:
 153 0000 17030000 		call	t0,__riscv_save_6
 153      E7020300 
 154              		.cfi_offset 21, -28
 155              		.cfi_offset 20, -24
 156              		.cfi_offset 19, -20
 157              		.cfi_offset 18, -16
 158              		.cfi_offset 9, -12
 159              		.cfi_offset 8, -8
 160              		.cfi_offset 1, -4
 161              		.cfi_def_cfa_offset 32
  57:C:/Users/stapi/OneDrive/Desktop/GD32VW553/V1_MQTT_OK/GD32VW55X_Wifi_BLE_SDK/GD32VW55x_RELEASE_V1.0.2/MSDK/wpa_supplicant/src/common\dragonfly.c **** 
 162              		.loc 1 57 2
  57:C:/Users/stapi/OneDrive/Desktop/GD32VW553/V1_MQTT_OK/GD32VW55X_Wifi_BLE_SDK/GD32VW55x_RELEASE_V1.0.2/MSDK/wpa_supplicant/src/common\dragonfly.c **** 
 163              		.loc 1 57 13 is_stmt 0
 164 0008 23200600 		sw	zero,0(a2)
  56:C:/Users/stapi/OneDrive/Desktop/GD32VW553/V1_MQTT_OK/GD32VW55X_Wifi_BLE_SDK/GD32VW55x_RELEASE_V1.0.2/MSDK/wpa_supplicant/src/common\dragonfly.c **** 	*qr = *qnr = NULL;
 165              		.loc 1 56 1
 166 000c AA89     		mv	s3,a0
 167 000e AE84     		mv	s1,a1
 168 0010 3284     		mv	s0,a2
  57:C:/Users/stapi/OneDrive/Desktop/GD32VW553/V1_MQTT_OK/GD32VW55X_Wifi_BLE_SDK/GD32VW55x_RELEASE_V1.0.2/MSDK/wpa_supplicant/src/common\dragonfly.c **** 
 169              		.loc 1 57 6
 170 0012 23A00500 		sw	zero,0(a1)
  59:C:/Users/stapi/OneDrive/Desktop/GD32VW553/V1_MQTT_OK/GD32VW55X_Wifi_BLE_SDK/GD32VW55x_RELEASE_V1.0.2/MSDK/wpa_supplicant/src/common\dragonfly.c **** 		struct crypto_bignum *tmp;
 171              		.loc 1 59 2 is_stmt 1
  59:C:/Users/stapi/OneDrive/Desktop/GD32VW553/V1_MQTT_OK/GD32VW55X_Wifi_BLE_SDK/GD32VW55x_RELEASE_V1.0.2/MSDK/wpa_supplicant/src/common\dragonfly.c **** 		struct crypto_bignum *tmp;
 172              		.loc 1 59 8
 173              	.LBB24:
  70:C:/Users/stapi/OneDrive/Desktop/GD32VW553/V1_MQTT_OK/GD32VW55X_Wifi_BLE_SDK/GD32VW55x_RELEASE_V1.0.2/MSDK/wpa_supplicant/src/common\dragonfly.c **** 			*qr = tmp;
 174              		.loc 1 70 6 is_stmt 0
 175 0016 054A     		li	s4,1
  72:C:/Users/stapi/OneDrive/Desktop/GD32VW553/V1_MQTT_OK/GD32VW55X_Wifi_BLE_SDK/GD32VW55x_RELEASE_V1.0.2/MSDK/wpa_supplicant/src/common\dragonfly.c **** 			*qnr = tmp;
 176              		.loc 1 72 11
 177 0018 FD5A     		li	s5,-1
 178              	.LVL14:
 179              	.L17:
  60:C:/Users/stapi/OneDrive/Desktop/GD32VW553/V1_MQTT_OK/GD32VW55X_Wifi_BLE_SDK/GD32VW55x_RELEASE_V1.0.2/MSDK/wpa_supplicant/src/common\dragonfly.c **** 		int res;
 180              		.loc 1 60 3 is_stmt 1
  61:C:/Users/stapi/OneDrive/Desktop/GD32VW553/V1_MQTT_OK/GD32VW55X_Wifi_BLE_SDK/GD32VW55x_RELEASE_V1.0.2/MSDK/wpa_supplicant/src/common\dragonfly.c **** 
 181              		.loc 1 61 3
  63:C:/Users/stapi/OneDrive/Desktop/GD32VW553/V1_MQTT_OK/GD32VW55X_Wifi_BLE_SDK/GD32VW55x_RELEASE_V1.0.2/MSDK/wpa_supplicant/src/common\dragonfly.c **** 		if (!tmp || crypto_bignum_rand(tmp, prime) < 0) {
 182              		.loc 1 63 3
  63:C:/Users/stapi/OneDrive/Desktop/GD32VW553/V1_MQTT_OK/GD32VW55X_Wifi_BLE_SDK/GD32VW55x_RELEASE_V1.0.2/MSDK/wpa_supplicant/src/common\dragonfly.c **** 		if (!tmp || crypto_bignum_rand(tmp, prime) < 0) {
 183              		.loc 1 63 9 is_stmt 0
 184 001a 97000000 		call	crypto_bignum_init
 184      E7800000 
 185              	.LVL15:
 186 0022 2A89     		mv	s2,a0
 187              	.LVL16:
  64:C:/Users/stapi/OneDrive/Desktop/GD32VW553/V1_MQTT_OK/GD32VW55X_Wifi_BLE_SDK/GD32VW55x_RELEASE_V1.0.2/MSDK/wpa_supplicant/src/common\dragonfly.c **** 			crypto_bignum_deinit(tmp, 0);
 188              		.loc 1 64 3 is_stmt 1
  64:C:/Users/stapi/OneDrive/Desktop/GD32VW553/V1_MQTT_OK/GD32VW55X_Wifi_BLE_SDK/GD32VW55x_RELEASE_V1.0.2/MSDK/wpa_supplicant/src/common\dragonfly.c **** 			crypto_bignum_deinit(tmp, 0);
 189              		.loc 1 64 6 is_stmt 0
 190 0024 01C9     		beq	a0,zero,.L18
  64:C:/Users/stapi/OneDrive/Desktop/GD32VW553/V1_MQTT_OK/GD32VW55X_Wifi_BLE_SDK/GD32VW55x_RELEASE_V1.0.2/MSDK/wpa_supplicant/src/common\dragonfly.c **** 			crypto_bignum_deinit(tmp, 0);
 191              		.loc 1 64 15 discriminator 1
 192 0026 CE85     		mv	a1,s3
 193 0028 97000000 		call	crypto_bignum_rand
 193      E7800000 
 194              	.LVL17:
  64:C:/Users/stapi/OneDrive/Desktop/GD32VW553/V1_MQTT_OK/GD32VW55X_Wifi_BLE_SDK/GD32VW55x_RELEASE_V1.0.2/MSDK/wpa_supplicant/src/common\dragonfly.c **** 			crypto_bignum_deinit(tmp, 0);
 195              		.loc 1 64 12 discriminator 1
 196 0030 63520504 		bge	a0,zero,.L19
 197              	.L18:
  65:C:/Users/stapi/OneDrive/Desktop/GD32VW553/V1_MQTT_OK/GD32VW55X_Wifi_BLE_SDK/GD32VW55x_RELEASE_V1.0.2/MSDK/wpa_supplicant/src/common\dragonfly.c **** 			break;
 198              		.loc 1 65 4 is_stmt 1
 199 0034 8145     		li	a1,0
 200 0036 4A85     		mv	a0,s2
 201 0038 97000000 		call	crypto_bignum_deinit
 201      E7800000 
 202              	.LVL18:
  66:C:/Users/stapi/OneDrive/Desktop/GD32VW553/V1_MQTT_OK/GD32VW55X_Wifi_BLE_SDK/GD32VW55x_RELEASE_V1.0.2/MSDK/wpa_supplicant/src/common\dragonfly.c **** 		}
 203              		.loc 1 66 4
 204              	.L20:
 205              	.LBE24:
  78:C:/Users/stapi/OneDrive/Desktop/GD32VW553/V1_MQTT_OK/GD32VW55X_Wifi_BLE_SDK/GD32VW55x_RELEASE_V1.0.2/MSDK/wpa_supplicant/src/common\dragonfly.c **** 		return 0;
 206              		.loc 1 78 2
  78:C:/Users/stapi/OneDrive/Desktop/GD32VW553/V1_MQTT_OK/GD32VW55X_Wifi_BLE_SDK/GD32VW55x_RELEASE_V1.0.2/MSDK/wpa_supplicant/src/common\dragonfly.c **** 		return 0;
 207              		.loc 1 78 6 is_stmt 0
 208 0040 8840     		lw	a0,0(s1)
  78:C:/Users/stapi/OneDrive/Desktop/GD32VW553/V1_MQTT_OK/GD32VW55X_Wifi_BLE_SDK/GD32VW55x_RELEASE_V1.0.2/MSDK/wpa_supplicant/src/common\dragonfly.c **** 		return 0;
 209              		.loc 1 78 5
 210 0042 01C5     		beq	a0,zero,.L26
  78:C:/Users/stapi/OneDrive/Desktop/GD32VW553/V1_MQTT_OK/GD32VW55X_Wifi_BLE_SDK/GD32VW55x_RELEASE_V1.0.2/MSDK/wpa_supplicant/src/common\dragonfly.c **** 		return 0;
 211              		.loc 1 78 10 discriminator 1
 212 0044 1840     		lw	a4,0(s0)
  79:C:/Users/stapi/OneDrive/Desktop/GD32VW553/V1_MQTT_OK/GD32VW55X_Wifi_BLE_SDK/GD32VW55x_RELEASE_V1.0.2/MSDK/wpa_supplicant/src/common\dragonfly.c **** 	crypto_bignum_deinit(*qr, 0);
 213              		.loc 1 79 10 discriminator 1
 214 0046 8147     		li	a5,0
  78:C:/Users/stapi/OneDrive/Desktop/GD32VW553/V1_MQTT_OK/GD32VW55X_Wifi_BLE_SDK/GD32VW55x_RELEASE_V1.0.2/MSDK/wpa_supplicant/src/common\dragonfly.c **** 		return 0;
 215              		.loc 1 78 10 discriminator 1
 216 0048 0DE3     		bne	a4,zero,.L16
 217              	.L26:
  80:C:/Users/stapi/OneDrive/Desktop/GD32VW553/V1_MQTT_OK/GD32VW55X_Wifi_BLE_SDK/GD32VW55x_RELEASE_V1.0.2/MSDK/wpa_supplicant/src/common\dragonfly.c **** 	crypto_bignum_deinit(*qnr, 0);
 218              		.loc 1 80 2 is_stmt 1
 219 004a 8145     		li	a1,0
 220 004c 97000000 		call	crypto_bignum_deinit
 220      E7800000 
 221              	.LVL19:
  81:C:/Users/stapi/OneDrive/Desktop/GD32VW553/V1_MQTT_OK/GD32VW55X_Wifi_BLE_SDK/GD32VW55x_RELEASE_V1.0.2/MSDK/wpa_supplicant/src/common\dragonfly.c **** 	*qr = *qnr = NULL;
 222              		.loc 1 81 2
 223 0054 0840     		lw	a0,0(s0)
 224 0056 8145     		li	a1,0
 225 0058 97000000 		call	crypto_bignum_deinit
 225      E7800000 
 226              	.LVL20:
  82:C:/Users/stapi/OneDrive/Desktop/GD32VW553/V1_MQTT_OK/GD32VW55X_Wifi_BLE_SDK/GD32VW55x_RELEASE_V1.0.2/MSDK/wpa_supplicant/src/common\dragonfly.c **** 	return -1;
 227              		.loc 1 82 2
  82:C:/Users/stapi/OneDrive/Desktop/GD32VW553/V1_MQTT_OK/GD32VW55X_Wifi_BLE_SDK/GD32VW55x_RELEASE_V1.0.2/MSDK/wpa_supplicant/src/common\dragonfly.c **** 	return -1;
 228              		.loc 1 82 13 is_stmt 0
 229 0060 23200400 		sw	zero,0(s0)
  82:C:/Users/stapi/OneDrive/Desktop/GD32VW553/V1_MQTT_OK/GD32VW55X_Wifi_BLE_SDK/GD32VW55x_RELEASE_V1.0.2/MSDK/wpa_supplicant/src/common\dragonfly.c **** 	return -1;
 230              		.loc 1 82 6
 231 0064 23A00400 		sw	zero,0(s1)
  83:C:/Users/stapi/OneDrive/Desktop/GD32VW553/V1_MQTT_OK/GD32VW55X_Wifi_BLE_SDK/GD32VW55x_RELEASE_V1.0.2/MSDK/wpa_supplicant/src/common\dragonfly.c **** }
 232              		.loc 1 83 2 is_stmt 1
  83:C:/Users/stapi/OneDrive/Desktop/GD32VW553/V1_MQTT_OK/GD32VW55X_Wifi_BLE_SDK/GD32VW55x_RELEASE_V1.0.2/MSDK/wpa_supplicant/src/common\dragonfly.c **** }
 233              		.loc 1 83 9 is_stmt 0
 234 0068 FD57     		li	a5,-1
 235              	.L16:
  84:C:/Users/stapi/OneDrive/Desktop/GD32VW553/V1_MQTT_OK/GD32VW55X_Wifi_BLE_SDK/GD32VW55x_RELEASE_V1.0.2/MSDK/wpa_supplicant/src/common\dragonfly.c **** 
 236              		.loc 1 84 1
 237 006a 3E85     		mv	a0,a5
 238 006c 17030000 		tail	__riscv_restore_6
 238      67000300 
 239              		.cfi_remember_state
 240              		.cfi_restore 21
 241              		.cfi_restore 20
 242              		.cfi_restore 19
 243              		.cfi_restore 18
 244              		.cfi_restore 9
 245              		.cfi_restore 8
 246              		.cfi_restore 1
 247              		.cfi_def_cfa_offset 0
 248              	.L19:
 249              		.cfi_restore_state
 250              	.LBB25:
  69:C:/Users/stapi/OneDrive/Desktop/GD32VW553/V1_MQTT_OK/GD32VW55X_Wifi_BLE_SDK/GD32VW55x_RELEASE_V1.0.2/MSDK/wpa_supplicant/src/common\dragonfly.c **** 		if (res == 1 && !(*qr))
 251              		.loc 1 69 3 is_stmt 1
  69:C:/Users/stapi/OneDrive/Desktop/GD32VW553/V1_MQTT_OK/GD32VW55X_Wifi_BLE_SDK/GD32VW55x_RELEASE_V1.0.2/MSDK/wpa_supplicant/src/common\dragonfly.c **** 		if (res == 1 && !(*qr))
 252              		.loc 1 69 9 is_stmt 0
 253 0074 CE85     		mv	a1,s3
 254 0076 4A85     		mv	a0,s2
 255 0078 97000000 		call	crypto_bignum_legendre
 255      E7800000 
 256              	.LVL21:
  70:C:/Users/stapi/OneDrive/Desktop/GD32VW553/V1_MQTT_OK/GD32VW55X_Wifi_BLE_SDK/GD32VW55x_RELEASE_V1.0.2/MSDK/wpa_supplicant/src/common\dragonfly.c **** 			*qr = tmp;
 257              		.loc 1 70 3 is_stmt 1
  70:C:/Users/stapi/OneDrive/Desktop/GD32VW553/V1_MQTT_OK/GD32VW55X_Wifi_BLE_SDK/GD32VW55x_RELEASE_V1.0.2/MSDK/wpa_supplicant/src/common\dragonfly.c **** 			*qr = tmp;
 258              		.loc 1 70 6 is_stmt 0
 259 0080 63194501 		bne	a0,s4,.L21
  70:C:/Users/stapi/OneDrive/Desktop/GD32VW553/V1_MQTT_OK/GD32VW55X_Wifi_BLE_SDK/GD32VW55x_RELEASE_V1.0.2/MSDK/wpa_supplicant/src/common\dragonfly.c **** 			*qr = tmp;
 260              		.loc 1 70 16 discriminator 1
 261 0084 9C40     		lw	a5,0(s1)
 262 0086 99EF     		bne	a5,zero,.L22
  71:C:/Users/stapi/OneDrive/Desktop/GD32VW553/V1_MQTT_OK/GD32VW55X_Wifi_BLE_SDK/GD32VW55x_RELEASE_V1.0.2/MSDK/wpa_supplicant/src/common\dragonfly.c **** 		else if (res == -1 && !(*qnr))
 263              		.loc 1 71 4 is_stmt 1
  71:C:/Users/stapi/OneDrive/Desktop/GD32VW553/V1_MQTT_OK/GD32VW55X_Wifi_BLE_SDK/GD32VW55x_RELEASE_V1.0.2/MSDK/wpa_supplicant/src/common\dragonfly.c **** 		else if (res == -1 && !(*qnr))
 264              		.loc 1 71 8 is_stmt 0
 265 0088 23A02401 		sw	s2,0(s1)
 266              	.LBE25:
  59:C:/Users/stapi/OneDrive/Desktop/GD32VW553/V1_MQTT_OK/GD32VW55X_Wifi_BLE_SDK/GD32VW55x_RELEASE_V1.0.2/MSDK/wpa_supplicant/src/common\dragonfly.c **** 		struct crypto_bignum *tmp;
 267              		.loc 1 59 8 is_stmt 1
 268              	.LVL22:
 269              	.L23:
  59:C:/Users/stapi/OneDrive/Desktop/GD32VW553/V1_MQTT_OK/GD32VW55X_Wifi_BLE_SDK/GD32VW55x_RELEASE_V1.0.2/MSDK/wpa_supplicant/src/common\dragonfly.c **** 		struct crypto_bignum *tmp;
 270              		.loc 1 59 16 is_stmt 0 discriminator 1
 271 008c 1C40     		lw	a5,0(s0)
 272 008e D1D7     		beq	a5,zero,.L17
 273 0090 45BF     		j	.L20
 274              	.LVL23:
 275              	.L21:
 276              	.LBB26:
  72:C:/Users/stapi/OneDrive/Desktop/GD32VW553/V1_MQTT_OK/GD32VW55X_Wifi_BLE_SDK/GD32VW55x_RELEASE_V1.0.2/MSDK/wpa_supplicant/src/common\dragonfly.c **** 			*qnr = tmp;
 277              		.loc 1 72 8 is_stmt 1
  72:C:/Users/stapi/OneDrive/Desktop/GD32VW553/V1_MQTT_OK/GD32VW55X_Wifi_BLE_SDK/GD32VW55x_RELEASE_V1.0.2/MSDK/wpa_supplicant/src/common\dragonfly.c **** 			*qnr = tmp;
 278              		.loc 1 72 11 is_stmt 0
 279 0092 63195501 		bne	a0,s5,.L22
  72:C:/Users/stapi/OneDrive/Desktop/GD32VW553/V1_MQTT_OK/GD32VW55X_Wifi_BLE_SDK/GD32VW55x_RELEASE_V1.0.2/MSDK/wpa_supplicant/src/common\dragonfly.c **** 			*qnr = tmp;
 280              		.loc 1 72 22 discriminator 1
 281 0096 1C40     		lw	a5,0(s0)
 282 0098 91E7     		bne	a5,zero,.L22
  73:C:/Users/stapi/OneDrive/Desktop/GD32VW553/V1_MQTT_OK/GD32VW55X_Wifi_BLE_SDK/GD32VW55x_RELEASE_V1.0.2/MSDK/wpa_supplicant/src/common\dragonfly.c **** 		else
 283              		.loc 1 73 4 is_stmt 1
  73:C:/Users/stapi/OneDrive/Desktop/GD32VW553/V1_MQTT_OK/GD32VW55X_Wifi_BLE_SDK/GD32VW55x_RELEASE_V1.0.2/MSDK/wpa_supplicant/src/common\dragonfly.c **** 		else
 284              		.loc 1 73 9 is_stmt 0
 285 009a 23202401 		sw	s2,0(s0)
 286              	.LVL24:
 287              	.L24:
 288              	.LBE26:
  59:C:/Users/stapi/OneDrive/Desktop/GD32VW553/V1_MQTT_OK/GD32VW55X_Wifi_BLE_SDK/GD32VW55x_RELEASE_V1.0.2/MSDK/wpa_supplicant/src/common\dragonfly.c **** 		struct crypto_bignum *tmp;
 289              		.loc 1 59 8 is_stmt 1
 290 009e 9C40     		lw	a5,0(s1)
 291 00a0 F5F7     		bne	a5,zero,.L23
 292 00a2 A5BF     		j	.L17
 293              	.LVL25:
 294              	.L22:
 295              	.LBB27:
  75:C:/Users/stapi/OneDrive/Desktop/GD32VW553/V1_MQTT_OK/GD32VW55X_Wifi_BLE_SDK/GD32VW55x_RELEASE_V1.0.2/MSDK/wpa_supplicant/src/common\dragonfly.c **** 	}
 296              		.loc 1 75 4
 297 00a4 8145     		li	a1,0
 298 00a6 4A85     		mv	a0,s2
 299              	.LVL26:
 300 00a8 97000000 		call	crypto_bignum_deinit
 300      E7800000 
 301              	.LVL27:
 302 00b0 FDB7     		j	.L24
 303              	.LBE27:
 304              		.cfi_endproc
 305              	.LFE84:
 307              		.section	.rodata.dragonfly_is_quadratic_residue_blind.str1.4,"aMS",@progbits,1
 308              		.align	2
 309              	.LC0:
 310 0000 0100     		.string	"\001"
 311              		.section	.text.dragonfly_is_quadratic_residue_blind,"ax",@progbits
 312              		.align	1
 313              		.globl	dragonfly_is_quadratic_residue_blind
 315              	dragonfly_is_quadratic_residue_blind:
 316              	.LFB86:
 112:C:/Users/stapi/OneDrive/Desktop/GD32VW553/V1_MQTT_OK/GD32VW55X_Wifi_BLE_SDK/GD32VW55x_RELEASE_V1.0.2/MSDK/wpa_supplicant/src/common\dragonfly.c **** 	struct crypto_bignum *r, *num, *qr_or_qnr = NULL;
 317              		.loc 1 112 1
 318              		.cfi_startproc
 319              	.LVL28:
 320 0000 17030000 		call	t0,__riscv_save_8
 320      E7020300 
 321              		.cfi_offset 23, -36
 322              		.cfi_offset 22, -32
 323              		.cfi_offset 21, -28
 324              		.cfi_offset 20, -24
 325              		.cfi_offset 19, -20
 326              		.cfi_offset 18, -16
 327              		.cfi_offset 9, -12
 328              		.cfi_offset 8, -8
 329              		.cfi_offset 1, -4
 330              		.cfi_def_cfa_offset 48
 113:C:/Users/stapi/OneDrive/Desktop/GD32VW553/V1_MQTT_OK/GD32VW55X_Wifi_BLE_SDK/GD32VW55x_RELEASE_V1.0.2/MSDK/wpa_supplicant/src/common\dragonfly.c **** 	int check, res = -1;
 331              		.loc 1 113 2
 332              	.LVL29:
 114:C:/Users/stapi/OneDrive/Desktop/GD32VW553/V1_MQTT_OK/GD32VW55X_Wifi_BLE_SDK/GD32VW55x_RELEASE_V1.0.2/MSDK/wpa_supplicant/src/common\dragonfly.c **** 	u8 qr_or_qnr_bin[DRAGONFLY_MAX_ECC_PRIME_LEN];
 333              		.loc 1 114 2
 115:C:/Users/stapi/OneDrive/Desktop/GD32VW553/V1_MQTT_OK/GD32VW55X_Wifi_BLE_SDK/GD32VW55x_RELEASE_V1.0.2/MSDK/wpa_supplicant/src/common\dragonfly.c **** 	const struct crypto_bignum *prime;
 334              		.loc 1 115 2
 116:C:/Users/stapi/OneDrive/Desktop/GD32VW553/V1_MQTT_OK/GD32VW55X_Wifi_BLE_SDK/GD32VW55x_RELEASE_V1.0.2/MSDK/wpa_supplicant/src/common\dragonfly.c **** 	size_t prime_len;
 335              		.loc 1 116 2
 117:C:/Users/stapi/OneDrive/Desktop/GD32VW553/V1_MQTT_OK/GD32VW55X_Wifi_BLE_SDK/GD32VW55x_RELEASE_V1.0.2/MSDK/wpa_supplicant/src/common\dragonfly.c **** 	unsigned int mask;
 336              		.loc 1 117 2
 118:C:/Users/stapi/OneDrive/Desktop/GD32VW553/V1_MQTT_OK/GD32VW55X_Wifi_BLE_SDK/GD32VW55x_RELEASE_V1.0.2/MSDK/wpa_supplicant/src/common\dragonfly.c **** 
 337              		.loc 1 118 2
 120:C:/Users/stapi/OneDrive/Desktop/GD32VW553/V1_MQTT_OK/GD32VW55X_Wifi_BLE_SDK/GD32VW55x_RELEASE_V1.0.2/MSDK/wpa_supplicant/src/common\dragonfly.c **** 	prime_len = crypto_ec_prime_len(ec);
 338              		.loc 1 120 2
 112:C:/Users/stapi/OneDrive/Desktop/GD32VW553/V1_MQTT_OK/GD32VW55X_Wifi_BLE_SDK/GD32VW55x_RELEASE_V1.0.2/MSDK/wpa_supplicant/src/common\dragonfly.c **** 	struct crypto_bignum *r, *num, *qr_or_qnr = NULL;
 339              		.loc 1 112 1 is_stmt 0
 340 0008 5D71     		addi	sp,sp,-80
 341              		.cfi_def_cfa_offset 128
 112:C:/Users/stapi/OneDrive/Desktop/GD32VW553/V1_MQTT_OK/GD32VW55X_Wifi_BLE_SDK/GD32VW55x_RELEASE_V1.0.2/MSDK/wpa_supplicant/src/common\dragonfly.c **** 	struct crypto_bignum *r, *num, *qr_or_qnr = NULL;
 342              		.loc 1 112 1
 343 000a 2E8B     		mv	s6,a1
 344 000c B28B     		mv	s7,a2
 345 000e B689     		mv	s3,a3
 346 0010 2A84     		mv	s0,a0
 120:C:/Users/stapi/OneDrive/Desktop/GD32VW553/V1_MQTT_OK/GD32VW55X_Wifi_BLE_SDK/GD32VW55x_RELEASE_V1.0.2/MSDK/wpa_supplicant/src/common\dragonfly.c **** 	prime_len = crypto_ec_prime_len(ec);
 347              		.loc 1 120 10
 348 0012 97000000 		call	crypto_ec_get_prime
 348      E7800000 
 349              	.LVL30:
 350 001a AA8A     		mv	s5,a0
 351              	.LVL31:
 121:C:/Users/stapi/OneDrive/Desktop/GD32VW553/V1_MQTT_OK/GD32VW55X_Wifi_BLE_SDK/GD32VW55x_RELEASE_V1.0.2/MSDK/wpa_supplicant/src/common\dragonfly.c **** 
 352              		.loc 1 121 2 is_stmt 1
 121:C:/Users/stapi/OneDrive/Desktop/GD32VW553/V1_MQTT_OK/GD32VW55X_Wifi_BLE_SDK/GD32VW55x_RELEASE_V1.0.2/MSDK/wpa_supplicant/src/common\dragonfly.c **** 
 353              		.loc 1 121 14 is_stmt 0
 354 001c 2285     		mv	a0,s0
 355              	.LVL32:
 356 001e 97000000 		call	crypto_ec_prime_len
 356      E7800000 
 357              	.LVL33:
 358 0026 2A8A     		mv	s4,a0
 359              	.LVL34:
 132:C:/Users/stapi/OneDrive/Desktop/GD32VW553/V1_MQTT_OK/GD32VW55X_Wifi_BLE_SDK/GD32VW55x_RELEASE_V1.0.2/MSDK/wpa_supplicant/src/common\dragonfly.c **** 	if (!r)
 360              		.loc 1 132 2 is_stmt 1
 361              	.LBB47:
 362              	.LBB48:
  90:C:/Users/stapi/OneDrive/Desktop/GD32VW553/V1_MQTT_OK/GD32VW55X_Wifi_BLE_SDK/GD32VW55x_RELEASE_V1.0.2/MSDK/wpa_supplicant/src/common\dragonfly.c **** 
 363              		.loc 1 90 2
  92:C:/Users/stapi/OneDrive/Desktop/GD32VW553/V1_MQTT_OK/GD32VW55X_Wifi_BLE_SDK/GD32VW55x_RELEASE_V1.0.2/MSDK/wpa_supplicant/src/common\dragonfly.c **** 	pm1 = crypto_bignum_init();
 364              		.loc 1 92 2
  92:C:/Users/stapi/OneDrive/Desktop/GD32VW553/V1_MQTT_OK/GD32VW55X_Wifi_BLE_SDK/GD32VW55x_RELEASE_V1.0.2/MSDK/wpa_supplicant/src/common\dragonfly.c **** 	pm1 = crypto_bignum_init();
 365              		.loc 1 92 8 is_stmt 0
 366 0028 97000000 		call	crypto_bignum_init
 366      E7800000 
 367              	.LVL35:
 368 0030 2A84     		mv	s0,a0
 369              	.LVL36:
  93:C:/Users/stapi/OneDrive/Desktop/GD32VW553/V1_MQTT_OK/GD32VW55X_Wifi_BLE_SDK/GD32VW55x_RELEASE_V1.0.2/MSDK/wpa_supplicant/src/common\dragonfly.c **** 	one = crypto_bignum_init_set((const u8 *) "\x01", 1);
 370              		.loc 1 93 2 is_stmt 1
  93:C:/Users/stapi/OneDrive/Desktop/GD32VW553/V1_MQTT_OK/GD32VW55X_Wifi_BLE_SDK/GD32VW55x_RELEASE_V1.0.2/MSDK/wpa_supplicant/src/common\dragonfly.c **** 	one = crypto_bignum_init_set((const u8 *) "\x01", 1);
 371              		.loc 1 93 8 is_stmt 0
 372 0032 97000000 		call	crypto_bignum_init
 372      E7800000 
 373              	.LVL37:
 374 003a 2A89     		mv	s2,a0
 375              	.LVL38:
  94:C:/Users/stapi/OneDrive/Desktop/GD32VW553/V1_MQTT_OK/GD32VW55X_Wifi_BLE_SDK/GD32VW55x_RELEASE_V1.0.2/MSDK/wpa_supplicant/src/common\dragonfly.c **** 	if (!tmp || !pm1 || !one ||
 376              		.loc 1 94 2 is_stmt 1
  94:C:/Users/stapi/OneDrive/Desktop/GD32VW553/V1_MQTT_OK/GD32VW55X_Wifi_BLE_SDK/GD32VW55x_RELEASE_V1.0.2/MSDK/wpa_supplicant/src/common\dragonfly.c **** 	if (!tmp || !pm1 || !one ||
 377              		.loc 1 94 8 is_stmt 0
 378 003c 37050000 		lui	a0,%hi(.LC0)
 379              	.LVL39:
 380 0040 8545     		li	a1,1
 381 0042 13050500 		addi	a0,a0,%lo(.LC0)
 382 0046 97000000 		call	crypto_bignum_init_set
 382      E7800000 
 383              	.LVL40:
 384 004e AA84     		mv	s1,a0
 385              	.LVL41:
  95:C:/Users/stapi/OneDrive/Desktop/GD32VW553/V1_MQTT_OK/GD32VW55X_Wifi_BLE_SDK/GD32VW55x_RELEASE_V1.0.2/MSDK/wpa_supplicant/src/common\dragonfly.c **** 	    crypto_bignum_sub(prime, one, pm1) < 0 ||
 386              		.loc 1 95 2 is_stmt 1
  95:C:/Users/stapi/OneDrive/Desktop/GD32VW553/V1_MQTT_OK/GD32VW55X_Wifi_BLE_SDK/GD32VW55x_RELEASE_V1.0.2/MSDK/wpa_supplicant/src/common\dragonfly.c **** 	    crypto_bignum_sub(prime, one, pm1) < 0 ||
 387              		.loc 1 95 5 is_stmt 0
 388 0050 35E4     		bne	s0,zero,.L43
 389              	.L45:
  99:C:/Users/stapi/OneDrive/Desktop/GD32VW553/V1_MQTT_OK/GD32VW55X_Wifi_BLE_SDK/GD32VW55x_RELEASE_V1.0.2/MSDK/wpa_supplicant/src/common\dragonfly.c **** 		tmp = NULL;
 390              		.loc 1 99 3 is_stmt 1
 391 0052 2285     		mv	a0,s0
 392 0054 8145     		li	a1,0
 393 0056 97000000 		call	crypto_bignum_deinit
 393      E7800000 
 394              	.LVL42:
 100:C:/Users/stapi/OneDrive/Desktop/GD32VW553/V1_MQTT_OK/GD32VW55X_Wifi_BLE_SDK/GD32VW55x_RELEASE_V1.0.2/MSDK/wpa_supplicant/src/common\dragonfly.c **** 	}
 395              		.loc 1 100 3
 100:C:/Users/stapi/OneDrive/Desktop/GD32VW553/V1_MQTT_OK/GD32VW55X_Wifi_BLE_SDK/GD32VW55x_RELEASE_V1.0.2/MSDK/wpa_supplicant/src/common\dragonfly.c **** 	}
 396              		.loc 1 100 7 is_stmt 0
 397 005e 0144     		li	s0,0
 398              	.LVL43:
 399              	.L44:
 103:C:/Users/stapi/OneDrive/Desktop/GD32VW553/V1_MQTT_OK/GD32VW55X_Wifi_BLE_SDK/GD32VW55x_RELEASE_V1.0.2/MSDK/wpa_supplicant/src/common\dragonfly.c **** 	crypto_bignum_deinit(one, 0);
 400              		.loc 1 103 2 is_stmt 1
 401 0060 8145     		li	a1,0
 402 0062 4A85     		mv	a0,s2
 403 0064 97000000 		call	crypto_bignum_deinit
 403      E7800000 
 404              	.LVL44:
 104:C:/Users/stapi/OneDrive/Desktop/GD32VW553/V1_MQTT_OK/GD32VW55X_Wifi_BLE_SDK/GD32VW55x_RELEASE_V1.0.2/MSDK/wpa_supplicant/src/common\dragonfly.c **** 	return tmp;
 405              		.loc 1 104 2
 406 006c 2685     		mv	a0,s1
 407 006e 8145     		li	a1,0
 408 0070 97000000 		call	crypto_bignum_deinit
 408      E7800000 
 409              	.LVL45:
 105:C:/Users/stapi/OneDrive/Desktop/GD32VW553/V1_MQTT_OK/GD32VW55X_Wifi_BLE_SDK/GD32VW55x_RELEASE_V1.0.2/MSDK/wpa_supplicant/src/common\dragonfly.c **** }
 410              		.loc 1 105 2
 411              	.LBE48:
 412              	.LBE47:
 133:C:/Users/stapi/OneDrive/Desktop/GD32VW553/V1_MQTT_OK/GD32VW55X_Wifi_BLE_SDK/GD32VW55x_RELEASE_V1.0.2/MSDK/wpa_supplicant/src/common\dragonfly.c **** 		return -1;
 413              		.loc 1 133 2
 134:C:/Users/stapi/OneDrive/Desktop/GD32VW553/V1_MQTT_OK/GD32VW55X_Wifi_BLE_SDK/GD32VW55x_RELEASE_V1.0.2/MSDK/wpa_supplicant/src/common\dragonfly.c **** 
 414              		.loc 1 134 10 is_stmt 0
 415 0078 FD54     		li	s1,-1
 133:C:/Users/stapi/OneDrive/Desktop/GD32VW553/V1_MQTT_OK/GD32VW55X_Wifi_BLE_SDK/GD32VW55x_RELEASE_V1.0.2/MSDK/wpa_supplicant/src/common\dragonfly.c **** 		return -1;
 416              		.loc 1 133 5
 417 007a 1DC8     		beq	s0,zero,.L42
 136:C:/Users/stapi/OneDrive/Desktop/GD32VW553/V1_MQTT_OK/GD32VW55X_Wifi_BLE_SDK/GD32VW55x_RELEASE_V1.0.2/MSDK/wpa_supplicant/src/common\dragonfly.c **** 	if (!num ||
 418              		.loc 1 136 2 is_stmt 1
 136:C:/Users/stapi/OneDrive/Desktop/GD32VW553/V1_MQTT_OK/GD32VW55X_Wifi_BLE_SDK/GD32VW55x_RELEASE_V1.0.2/MSDK/wpa_supplicant/src/common\dragonfly.c **** 	if (!num ||
 419              		.loc 1 136 8 is_stmt 0
 420 007c 97000000 		call	crypto_bignum_init
 420      E7800000 
 421              	.LVL46:
 422 0084 2A89     		mv	s2,a0
 423              	.LVL47:
 137:C:/Users/stapi/OneDrive/Desktop/GD32VW553/V1_MQTT_OK/GD32VW55X_Wifi_BLE_SDK/GD32VW55x_RELEASE_V1.0.2/MSDK/wpa_supplicant/src/common\dragonfly.c **** 	    crypto_bignum_mulmod(val, r, prime, num) < 0 ||
 424              		.loc 1 137 2 is_stmt 1
 137:C:/Users/stapi/OneDrive/Desktop/GD32VW553/V1_MQTT_OK/GD32VW55X_Wifi_BLE_SDK/GD32VW55x_RELEASE_V1.0.2/MSDK/wpa_supplicant/src/common\dragonfly.c **** 	    crypto_bignum_mulmod(val, r, prime, num) < 0 ||
 425              		.loc 1 137 5 is_stmt 0
 426 0086 2DE9     		bne	a0,zero,.L47
 427              	.LVL48:
 428              	.L49:
 114:C:/Users/stapi/OneDrive/Desktop/GD32VW553/V1_MQTT_OK/GD32VW55X_Wifi_BLE_SDK/GD32VW55x_RELEASE_V1.0.2/MSDK/wpa_supplicant/src/common\dragonfly.c **** 	u8 qr_or_qnr_bin[DRAGONFLY_MAX_ECC_PRIME_LEN];
 429              		.loc 1 114 13
 430 0088 FD54     		li	s1,-1
 113:C:/Users/stapi/OneDrive/Desktop/GD32VW553/V1_MQTT_OK/GD32VW55X_Wifi_BLE_SDK/GD32VW55x_RELEASE_V1.0.2/MSDK/wpa_supplicant/src/common\dragonfly.c **** 	int check, res = -1;
 431              		.loc 1 113 34
 432 008a 014A     		li	s4,0
 433              	.LVL49:
 434              	.L48:
 175:C:/Users/stapi/OneDrive/Desktop/GD32VW553/V1_MQTT_OK/GD32VW55X_Wifi_BLE_SDK/GD32VW55x_RELEASE_V1.0.2/MSDK/wpa_supplicant/src/common\dragonfly.c **** 	crypto_bignum_deinit(r, 1);
 435              		.loc 1 175 2 is_stmt 1
 436 008c 8545     		li	a1,1
 437 008e 4A85     		mv	a0,s2
 438 0090 97000000 		call	crypto_bignum_deinit
 438      E7800000 
 439              	.LVL50:
 176:C:/Users/stapi/OneDrive/Desktop/GD32VW553/V1_MQTT_OK/GD32VW55X_Wifi_BLE_SDK/GD32VW55x_RELEASE_V1.0.2/MSDK/wpa_supplicant/src/common\dragonfly.c **** 	crypto_bignum_deinit(qr_or_qnr, 1);
 440              		.loc 1 176 2
 441 0098 8545     		li	a1,1
 442 009a 2285     		mv	a0,s0
 443 009c 97000000 		call	crypto_bignum_deinit
 443      E7800000 
 444              	.LVL51:
 177:C:/Users/stapi/OneDrive/Desktop/GD32VW553/V1_MQTT_OK/GD32VW55X_Wifi_BLE_SDK/GD32VW55x_RELEASE_V1.0.2/MSDK/wpa_supplicant/src/common\dragonfly.c **** 	return res;
 445              		.loc 1 177 2
 446 00a4 8545     		li	a1,1
 447 00a6 5285     		mv	a0,s4
 448 00a8 97000000 		call	crypto_bignum_deinit
 448      E7800000 
 449              	.LVL52:
 178:C:/Users/stapi/OneDrive/Desktop/GD32VW553/V1_MQTT_OK/GD32VW55X_Wifi_BLE_SDK/GD32VW55x_RELEASE_V1.0.2/MSDK/wpa_supplicant/src/common\dragonfly.c **** }
 450              		.loc 1 178 2
 451              	.L42:
 179:C:/Users/stapi/OneDrive/Desktop/GD32VW553/V1_MQTT_OK/GD32VW55X_Wifi_BLE_SDK/GD32VW55x_RELEASE_V1.0.2/MSDK/wpa_supplicant/src/common\dragonfly.c **** 
 452              		.loc 1 179 1 is_stmt 0
 453 00b0 2685     		mv	a0,s1
 454 00b2 6161     		addi	sp,sp,80
 455              		.cfi_remember_state
 456              		.cfi_def_cfa_offset 0
 457 00b4 17030000 		tail	__riscv_restore_8
 457      67000300 
 458              		.cfi_restore 23
 459              		.cfi_restore 22
 460              		.cfi_restore 21
 461              		.cfi_restore 20
 462              		.cfi_restore 19
 463              		.cfi_restore 18
 464              		.cfi_restore 9
 465              		.cfi_restore 8
 466              		.cfi_restore 1
 467              		.cfi_def_cfa_offset -48
 468              	.LVL53:
 469              	.L43:
 470              		.cfi_restore_state
 471              	.LBB50:
 472              	.LBB49:
  95:C:/Users/stapi/OneDrive/Desktop/GD32VW553/V1_MQTT_OK/GD32VW55X_Wifi_BLE_SDK/GD32VW55x_RELEASE_V1.0.2/MSDK/wpa_supplicant/src/common\dragonfly.c **** 	    crypto_bignum_sub(prime, one, pm1) < 0 ||
 473              		.loc 1 95 11
 474 00bc E30B09F8 		beq	s2,zero,.L45
  95:C:/Users/stapi/OneDrive/Desktop/GD32VW553/V1_MQTT_OK/GD32VW55X_Wifi_BLE_SDK/GD32VW55x_RELEASE_V1.0.2/MSDK/wpa_supplicant/src/common\dragonfly.c **** 	    crypto_bignum_sub(prime, one, pm1) < 0 ||
 475              		.loc 1 95 19
 476 00c0 49D9     		beq	a0,zero,.L45
  96:C:/Users/stapi/OneDrive/Desktop/GD32VW553/V1_MQTT_OK/GD32VW55X_Wifi_BLE_SDK/GD32VW55x_RELEASE_V1.0.2/MSDK/wpa_supplicant/src/common\dragonfly.c **** 	    crypto_bignum_rand(tmp, pm1) < 0 ||
 477              		.loc 1 96 6
 478 00c2 AA85     		mv	a1,a0
 479 00c4 4A86     		mv	a2,s2
 480 00c6 5685     		mv	a0,s5
 481 00c8 97000000 		call	crypto_bignum_sub
 481      E7800000 
 482              	.LVL54:
  95:C:/Users/stapi/OneDrive/Desktop/GD32VW553/V1_MQTT_OK/GD32VW55X_Wifi_BLE_SDK/GD32VW55x_RELEASE_V1.0.2/MSDK/wpa_supplicant/src/common\dragonfly.c **** 	    crypto_bignum_sub(prime, one, pm1) < 0 ||
 483              		.loc 1 95 27
 484 00d0 E34105F8 		blt	a0,zero,.L45
  97:C:/Users/stapi/OneDrive/Desktop/GD32VW553/V1_MQTT_OK/GD32VW55X_Wifi_BLE_SDK/GD32VW55x_RELEASE_V1.0.2/MSDK/wpa_supplicant/src/common\dragonfly.c **** 	    crypto_bignum_add(tmp, one, tmp) < 0) {
 485              		.loc 1 97 6
 486 00d4 CA85     		mv	a1,s2
 487 00d6 2285     		mv	a0,s0
 488 00d8 97000000 		call	crypto_bignum_rand
 488      E7800000 
 489              	.LVL55:
  96:C:/Users/stapi/OneDrive/Desktop/GD32VW553/V1_MQTT_OK/GD32VW55X_Wifi_BLE_SDK/GD32VW55x_RELEASE_V1.0.2/MSDK/wpa_supplicant/src/common\dragonfly.c **** 	    crypto_bignum_rand(tmp, pm1) < 0 ||
 490              		.loc 1 96 45
 491 00e0 E34905F6 		blt	a0,zero,.L45
  98:C:/Users/stapi/OneDrive/Desktop/GD32VW553/V1_MQTT_OK/GD32VW55X_Wifi_BLE_SDK/GD32VW55x_RELEASE_V1.0.2/MSDK/wpa_supplicant/src/common\dragonfly.c **** 		crypto_bignum_deinit(tmp, 0);
 492              		.loc 1 98 6
 493 00e4 2286     		mv	a2,s0
 494 00e6 A685     		mv	a1,s1
 495 00e8 2285     		mv	a0,s0
 496 00ea 97000000 		call	crypto_bignum_add
 496      E7800000 
 497              	.LVL56:
  97:C:/Users/stapi/OneDrive/Desktop/GD32VW553/V1_MQTT_OK/GD32VW55X_Wifi_BLE_SDK/GD32VW55x_RELEASE_V1.0.2/MSDK/wpa_supplicant/src/common\dragonfly.c **** 	    crypto_bignum_add(tmp, one, tmp) < 0) {
 498              		.loc 1 97 39
 499 00f2 E35705F6 		bge	a0,zero,.L44
 500 00f6 B1BF     		j	.L45
 501              	.LVL57:
 502              	.L47:
 503              	.LBE49:
 504              	.LBE50:
 138:C:/Users/stapi/OneDrive/Desktop/GD32VW553/V1_MQTT_OK/GD32VW55X_Wifi_BLE_SDK/GD32VW55x_RELEASE_V1.0.2/MSDK/wpa_supplicant/src/common\dragonfly.c **** 	    crypto_bignum_mulmod(num, r, prime, num) < 0)
 505              		.loc 1 138 6 discriminator 1
 506 00f8 AA86     		mv	a3,a0
 507 00fa 5686     		mv	a2,s5
 508 00fc A285     		mv	a1,s0
 509 00fe 4E85     		mv	a0,s3
 510              	.LVL58:
 511 0100 97000000 		call	crypto_bignum_mulmod
 511      E7800000 
 512              	.LVL59:
 137:C:/Users/stapi/OneDrive/Desktop/GD32VW553/V1_MQTT_OK/GD32VW55X_Wifi_BLE_SDK/GD32VW55x_RELEASE_V1.0.2/MSDK/wpa_supplicant/src/common\dragonfly.c **** 	    crypto_bignum_mulmod(val, r, prime, num) < 0 ||
 513              		.loc 1 137 11 discriminator 1
 514 0108 E34005F8 		blt	a0,zero,.L49
 139:C:/Users/stapi/OneDrive/Desktop/GD32VW553/V1_MQTT_OK/GD32VW55X_Wifi_BLE_SDK/GD32VW55x_RELEASE_V1.0.2/MSDK/wpa_supplicant/src/common\dragonfly.c **** 		goto fail;
 515              		.loc 1 139 6
 516 010c CA86     		mv	a3,s2
 517 010e 5686     		mv	a2,s5
 518 0110 A285     		mv	a1,s0
 519 0112 4A85     		mv	a0,s2
 520 0114 97000000 		call	crypto_bignum_mulmod
 520      E7800000 
 521              	.LVL60:
 138:C:/Users/stapi/OneDrive/Desktop/GD32VW553/V1_MQTT_OK/GD32VW55X_Wifi_BLE_SDK/GD32VW55x_RELEASE_V1.0.2/MSDK/wpa_supplicant/src/common\dragonfly.c **** 	    crypto_bignum_mulmod(num, r, prime, num) < 0)
 522              		.loc 1 138 51
 523 011c E34605F6 		blt	a0,zero,.L49
 155:C:/Users/stapi/OneDrive/Desktop/GD32VW553/V1_MQTT_OK/GD32VW55X_Wifi_BLE_SDK/GD32VW55x_RELEASE_V1.0.2/MSDK/wpa_supplicant/src/common\dragonfly.c **** 	const_time_select_bin(mask, qnr, qr, prime_len, qr_or_qnr_bin);
 524              		.loc 1 155 2 is_stmt 1
 155:C:/Users/stapi/OneDrive/Desktop/GD32VW553/V1_MQTT_OK/GD32VW55X_Wifi_BLE_SDK/GD32VW55x_RELEASE_V1.0.2/MSDK/wpa_supplicant/src/common\dragonfly.c **** 	const_time_select_bin(mask, qnr, qr, prime_len, qr_or_qnr_bin);
 525              		.loc 1 155 28 is_stmt 0
 526 0120 2285     		mv	a0,s0
 527 0122 97000000 		call	crypto_bignum_is_odd
 527      E7800000 
 528              	.LVL61:
 529              	.LBB51:
 530              	.LBB52:
 531              		.file 2 "..\\..\\..\\..\\wpa_supplicant\\src/utils/const_time.h"
   1:..\..\..\..\wpa_supplicant\src/utils/const_time.h **** /*
   2:..\..\..\..\wpa_supplicant\src/utils/const_time.h ****  * Helper functions for constant time operations
   3:..\..\..\..\wpa_supplicant\src/utils/const_time.h ****  * Copyright (c) 2019, The Linux Foundation
   4:..\..\..\..\wpa_supplicant\src/utils/const_time.h ****  *
   5:..\..\..\..\wpa_supplicant\src/utils/const_time.h ****  * This software may be distributed under the terms of the BSD license.
   6:..\..\..\..\wpa_supplicant\src/utils/const_time.h ****  * See README for more details.
   7:..\..\..\..\wpa_supplicant\src/utils/const_time.h ****  *
   8:..\..\..\..\wpa_supplicant\src/utils/const_time.h ****  * These helper functions can be used to implement logic that needs to minimize
   9:..\..\..\..\wpa_supplicant\src/utils/const_time.h ****  * externally visible differences in execution path by avoiding use of branches,
  10:..\..\..\..\wpa_supplicant\src/utils/const_time.h ****  * avoiding early termination or other time differences, and forcing same memory
  11:..\..\..\..\wpa_supplicant\src/utils/const_time.h ****  * access pattern regardless of values.
  12:..\..\..\..\wpa_supplicant\src/utils/const_time.h ****  */
  13:..\..\..\..\wpa_supplicant\src/utils/const_time.h **** 
  14:..\..\..\..\wpa_supplicant\src/utils/const_time.h **** #ifndef CONST_TIME_H
  15:..\..\..\..\wpa_supplicant\src/utils/const_time.h **** #define CONST_TIME_H
  16:..\..\..\..\wpa_supplicant\src/utils/const_time.h **** 
  17:..\..\..\..\wpa_supplicant\src/utils/const_time.h **** 
  18:..\..\..\..\wpa_supplicant\src/utils/const_time.h **** #if defined(__clang__)
  19:..\..\..\..\wpa_supplicant\src/utils/const_time.h **** #define NO_UBSAN_UINT_OVERFLOW \
  20:..\..\..\..\wpa_supplicant\src/utils/const_time.h **** 	__attribute__((no_sanitize("unsigned-integer-overflow")))
  21:..\..\..\..\wpa_supplicant\src/utils/const_time.h **** #else
  22:..\..\..\..\wpa_supplicant\src/utils/const_time.h **** #define NO_UBSAN_UINT_OVERFLOW
  23:..\..\..\..\wpa_supplicant\src/utils/const_time.h **** #endif
  24:..\..\..\..\wpa_supplicant\src/utils/const_time.h **** 
  25:..\..\..\..\wpa_supplicant\src/utils/const_time.h **** 
  26:..\..\..\..\wpa_supplicant\src/utils/const_time.h **** /**
  27:..\..\..\..\wpa_supplicant\src/utils/const_time.h ****  * const_time_fill_msb - Fill all bits with MSB value
  28:..\..\..\..\wpa_supplicant\src/utils/const_time.h ****  * @val: Input value
  29:..\..\..\..\wpa_supplicant\src/utils/const_time.h ****  * Returns: Value with all the bits set to the MSB of the input val
  30:..\..\..\..\wpa_supplicant\src/utils/const_time.h ****  */
  31:..\..\..\..\wpa_supplicant\src/utils/const_time.h **** static inline unsigned int const_time_fill_msb(unsigned int val)
  32:..\..\..\..\wpa_supplicant\src/utils/const_time.h **** {
  33:..\..\..\..\wpa_supplicant\src/utils/const_time.h **** 	/* Move the MSB to LSB and multiple by -1 to fill in all bits. */
  34:..\..\..\..\wpa_supplicant\src/utils/const_time.h **** 	return (val >> (sizeof(val) * 8 - 1)) * ~0U;
  35:..\..\..\..\wpa_supplicant\src/utils/const_time.h **** }
  36:..\..\..\..\wpa_supplicant\src/utils/const_time.h **** 
  37:..\..\..\..\wpa_supplicant\src/utils/const_time.h **** 
  38:..\..\..\..\wpa_supplicant\src/utils/const_time.h **** /* Returns: -1 if val is zero; 0 if val is not zero */
  39:..\..\..\..\wpa_supplicant\src/utils/const_time.h **** static inline unsigned int const_time_is_zero(unsigned int val)
  40:..\..\..\..\wpa_supplicant\src/utils/const_time.h **** 	NO_UBSAN_UINT_OVERFLOW
  41:..\..\..\..\wpa_supplicant\src/utils/const_time.h **** {
  42:..\..\..\..\wpa_supplicant\src/utils/const_time.h **** 	/* Set MSB to 1 for 0 and fill rest of bits with the MSB value */
  43:..\..\..\..\wpa_supplicant\src/utils/const_time.h **** 	return const_time_fill_msb(~val & (val - 1));
 532              		.loc 2 43 2 is_stmt 1
 533              	.LBB53:
 534              	.LBB54:
  34:..\..\..\..\wpa_supplicant\src/utils/const_time.h **** }
 535              		.loc 2 34 2
 536              	.LBE54:
 537              	.LBE53:
 538              		.loc 2 43 41 is_stmt 0
 539 012a 9309F5FF 		addi	s3,a0,-1
 540              	.LVL62:
 541              		.loc 2 43 9
 542 012e 33F5A940 		andn	a0,s3,a0
 543              	.LVL63:
 544              	.LBB56:
 545              	.LBB55:
  34:..\..\..\..\wpa_supplicant\src/utils/const_time.h **** }
 546              		.loc 2 34 40
 547 0132 9359F541 		srai	s3,a0,31
 548              	.LVL64:
 549              	.LBE55:
 550              	.LBE56:
 551              	.LBE52:
 552              	.LBE51:
 156:C:/Users/stapi/OneDrive/Desktop/GD32VW553/V1_MQTT_OK/GD32VW55X_Wifi_BLE_SDK/GD32VW55x_RELEASE_V1.0.2/MSDK/wpa_supplicant/src/common\dragonfly.c **** 	qr_or_qnr = crypto_bignum_init_set(qr_or_qnr_bin, prime_len);
 553              		.loc 1 156 2 is_stmt 1
 554 0136 13F6F90F 		andi	a2,s3,0xff
 555              	.LVL65:
 556              	.LBB57:
 557              	.LBB58:
  44:..\..\..\..\wpa_supplicant\src/utils/const_time.h **** }
  45:..\..\..\..\wpa_supplicant\src/utils/const_time.h **** 
  46:..\..\..\..\wpa_supplicant\src/utils/const_time.h **** 
  47:..\..\..\..\wpa_supplicant\src/utils/const_time.h **** /* Returns: -1 if a == b; 0 if a != b */
  48:..\..\..\..\wpa_supplicant\src/utils/const_time.h **** static inline unsigned int const_time_eq(unsigned int a, unsigned int b)
  49:..\..\..\..\wpa_supplicant\src/utils/const_time.h **** {
  50:..\..\..\..\wpa_supplicant\src/utils/const_time.h **** 	return const_time_is_zero(a ^ b);
  51:..\..\..\..\wpa_supplicant\src/utils/const_time.h **** }
  52:..\..\..\..\wpa_supplicant\src/utils/const_time.h **** 
  53:..\..\..\..\wpa_supplicant\src/utils/const_time.h **** 
  54:..\..\..\..\wpa_supplicant\src/utils/const_time.h **** /* Returns: -1 if a == b; 0 if a != b */
  55:..\..\..\..\wpa_supplicant\src/utils/const_time.h **** static inline u8 const_time_eq_u8(unsigned int a, unsigned int b)
  56:..\..\..\..\wpa_supplicant\src/utils/const_time.h **** {
  57:..\..\..\..\wpa_supplicant\src/utils/const_time.h **** 	return (u8) const_time_eq(a, b);
  58:..\..\..\..\wpa_supplicant\src/utils/const_time.h **** }
  59:..\..\..\..\wpa_supplicant\src/utils/const_time.h **** 
  60:..\..\..\..\wpa_supplicant\src/utils/const_time.h **** 
  61:..\..\..\..\wpa_supplicant\src/utils/const_time.h **** /**
  62:..\..\..\..\wpa_supplicant\src/utils/const_time.h ****  * const_time_eq_bin - Constant time memory comparison
  63:..\..\..\..\wpa_supplicant\src/utils/const_time.h ****  * @a: First buffer to compare
  64:..\..\..\..\wpa_supplicant\src/utils/const_time.h ****  * @b: Second buffer to compare
  65:..\..\..\..\wpa_supplicant\src/utils/const_time.h ****  * @len: Number of octets to compare
  66:..\..\..\..\wpa_supplicant\src/utils/const_time.h ****  * Returns: -1 if buffers are equal, 0 if not
  67:..\..\..\..\wpa_supplicant\src/utils/const_time.h ****  *
  68:..\..\..\..\wpa_supplicant\src/utils/const_time.h ****  * This function is meant for comparing passwords or hash values where
  69:..\..\..\..\wpa_supplicant\src/utils/const_time.h ****  * difference in execution time or memory access pattern could provide external
  70:..\..\..\..\wpa_supplicant\src/utils/const_time.h ****  * observer information about the location of the difference in the memory
  71:..\..\..\..\wpa_supplicant\src/utils/const_time.h ****  * buffers. The return value does not behave like memcmp(), i.e.,
  72:..\..\..\..\wpa_supplicant\src/utils/const_time.h ****  * const_time_eq_bin() cannot be used to sort items into a defined order. Unlike
  73:..\..\..\..\wpa_supplicant\src/utils/const_time.h ****  * memcmp(), the execution time of const_time_eq_bin() does not depend on the
  74:..\..\..\..\wpa_supplicant\src/utils/const_time.h ****  * contents of the compared memory buffers, but only on the total compared
  75:..\..\..\..\wpa_supplicant\src/utils/const_time.h ****  * length.
  76:..\..\..\..\wpa_supplicant\src/utils/const_time.h ****  */
  77:..\..\..\..\wpa_supplicant\src/utils/const_time.h **** static inline unsigned int const_time_eq_bin(const void *a, const void *b,
  78:..\..\..\..\wpa_supplicant\src/utils/const_time.h **** 					     size_t len)
  79:..\..\..\..\wpa_supplicant\src/utils/const_time.h **** {
  80:..\..\..\..\wpa_supplicant\src/utils/const_time.h **** 	const u8 *aa = a;
  81:..\..\..\..\wpa_supplicant\src/utils/const_time.h **** 	const u8 *bb = b;
  82:..\..\..\..\wpa_supplicant\src/utils/const_time.h **** 	size_t i;
  83:..\..\..\..\wpa_supplicant\src/utils/const_time.h **** 	u8 res = 0;
  84:..\..\..\..\wpa_supplicant\src/utils/const_time.h **** 
  85:..\..\..\..\wpa_supplicant\src/utils/const_time.h **** 	for (i = 0; i < len; i++)
  86:..\..\..\..\wpa_supplicant\src/utils/const_time.h **** 		res |= aa[i] ^ bb[i];
  87:..\..\..\..\wpa_supplicant\src/utils/const_time.h **** 
  88:..\..\..\..\wpa_supplicant\src/utils/const_time.h **** 	return const_time_is_zero(res);
  89:..\..\..\..\wpa_supplicant\src/utils/const_time.h **** }
  90:..\..\..\..\wpa_supplicant\src/utils/const_time.h **** 
  91:..\..\..\..\wpa_supplicant\src/utils/const_time.h **** 
  92:..\..\..\..\wpa_supplicant\src/utils/const_time.h **** /**
  93:..\..\..\..\wpa_supplicant\src/utils/const_time.h ****  * const_time_select - Constant time unsigned int selection
  94:..\..\..\..\wpa_supplicant\src/utils/const_time.h ****  * @mask: 0 (false) or -1 (true) to identify which value to select
  95:..\..\..\..\wpa_supplicant\src/utils/const_time.h ****  * @true_val: Value to select for the true case
  96:..\..\..\..\wpa_supplicant\src/utils/const_time.h ****  * @false_val: Value to select for the false case
  97:..\..\..\..\wpa_supplicant\src/utils/const_time.h ****  * Returns: true_val if mask == -1, false_val if mask == 0
  98:..\..\..\..\wpa_supplicant\src/utils/const_time.h ****  */
  99:..\..\..\..\wpa_supplicant\src/utils/const_time.h **** static inline unsigned int const_time_select(unsigned int mask,
 100:..\..\..\..\wpa_supplicant\src/utils/const_time.h **** 					     unsigned int true_val,
 101:..\..\..\..\wpa_supplicant\src/utils/const_time.h **** 					     unsigned int false_val)
 102:..\..\..\..\wpa_supplicant\src/utils/const_time.h **** {
 103:..\..\..\..\wpa_supplicant\src/utils/const_time.h **** 	return (mask & true_val) | (~mask & false_val);
 104:..\..\..\..\wpa_supplicant\src/utils/const_time.h **** }
 105:..\..\..\..\wpa_supplicant\src/utils/const_time.h **** 
 106:..\..\..\..\wpa_supplicant\src/utils/const_time.h **** 
 107:..\..\..\..\wpa_supplicant\src/utils/const_time.h **** /**
 108:..\..\..\..\wpa_supplicant\src/utils/const_time.h ****  * const_time_select_int - Constant time int selection
 109:..\..\..\..\wpa_supplicant\src/utils/const_time.h ****  * @mask: 0 (false) or -1 (true) to identify which value to select
 110:..\..\..\..\wpa_supplicant\src/utils/const_time.h ****  * @true_val: Value to select for the true case
 111:..\..\..\..\wpa_supplicant\src/utils/const_time.h ****  * @false_val: Value to select for the false case
 112:..\..\..\..\wpa_supplicant\src/utils/const_time.h ****  * Returns: true_val if mask == -1, false_val if mask == 0
 113:..\..\..\..\wpa_supplicant\src/utils/const_time.h ****  */
 114:..\..\..\..\wpa_supplicant\src/utils/const_time.h **** static inline int const_time_select_int(unsigned int mask, int true_val,
 115:..\..\..\..\wpa_supplicant\src/utils/const_time.h **** 					int false_val)
 116:..\..\..\..\wpa_supplicant\src/utils/const_time.h **** {
 117:..\..\..\..\wpa_supplicant\src/utils/const_time.h **** 	return (int) const_time_select(mask, (unsigned int) true_val,
 118:..\..\..\..\wpa_supplicant\src/utils/const_time.h **** 				       (unsigned int) false_val);
 119:..\..\..\..\wpa_supplicant\src/utils/const_time.h **** }
 120:..\..\..\..\wpa_supplicant\src/utils/const_time.h **** 
 121:..\..\..\..\wpa_supplicant\src/utils/const_time.h **** 
 122:..\..\..\..\wpa_supplicant\src/utils/const_time.h **** /**
 123:..\..\..\..\wpa_supplicant\src/utils/const_time.h ****  * const_time_select_u8 - Constant time u8 selection
 124:..\..\..\..\wpa_supplicant\src/utils/const_time.h ****  * @mask: 0 (false) or -1 (true) to identify which value to select
 125:..\..\..\..\wpa_supplicant\src/utils/const_time.h ****  * @true_val: Value to select for the true case
 126:..\..\..\..\wpa_supplicant\src/utils/const_time.h ****  * @false_val: Value to select for the false case
 127:..\..\..\..\wpa_supplicant\src/utils/const_time.h ****  * Returns: true_val if mask == -1, false_val if mask == 0
 128:..\..\..\..\wpa_supplicant\src/utils/const_time.h ****  */
 129:..\..\..\..\wpa_supplicant\src/utils/const_time.h **** static inline u8 const_time_select_u8(u8 mask, u8 true_val, u8 false_val)
 130:..\..\..\..\wpa_supplicant\src/utils/const_time.h **** {
 131:..\..\..\..\wpa_supplicant\src/utils/const_time.h **** 	return (u8) const_time_select(mask, true_val, false_val);
 132:..\..\..\..\wpa_supplicant\src/utils/const_time.h **** }
 133:..\..\..\..\wpa_supplicant\src/utils/const_time.h **** 
 134:..\..\..\..\wpa_supplicant\src/utils/const_time.h **** 
 135:..\..\..\..\wpa_supplicant\src/utils/const_time.h **** /**
 136:..\..\..\..\wpa_supplicant\src/utils/const_time.h ****  * const_time_select_s8 - Constant time s8 selection
 137:..\..\..\..\wpa_supplicant\src/utils/const_time.h ****  * @mask: 0 (false) or -1 (true) to identify which value to select
 138:..\..\..\..\wpa_supplicant\src/utils/const_time.h ****  * @true_val: Value to select for the true case
 139:..\..\..\..\wpa_supplicant\src/utils/const_time.h ****  * @false_val: Value to select for the false case
 140:..\..\..\..\wpa_supplicant\src/utils/const_time.h ****  * Returns: true_val if mask == -1, false_val if mask == 0
 141:..\..\..\..\wpa_supplicant\src/utils/const_time.h ****  */
 142:..\..\..\..\wpa_supplicant\src/utils/const_time.h **** static inline s8 const_time_select_s8(u8 mask, s8 true_val, s8 false_val)
 143:..\..\..\..\wpa_supplicant\src/utils/const_time.h **** {
 144:..\..\..\..\wpa_supplicant\src/utils/const_time.h **** 	return (s8) const_time_select(mask, (unsigned int) true_val,
 145:..\..\..\..\wpa_supplicant\src/utils/const_time.h **** 				      (unsigned int) false_val);
 146:..\..\..\..\wpa_supplicant\src/utils/const_time.h **** }
 147:..\..\..\..\wpa_supplicant\src/utils/const_time.h **** 
 148:..\..\..\..\wpa_supplicant\src/utils/const_time.h **** 
 149:..\..\..\..\wpa_supplicant\src/utils/const_time.h **** /**
 150:..\..\..\..\wpa_supplicant\src/utils/const_time.h ****  * const_time_select_bin - Constant time binary buffer selection copy
 151:..\..\..\..\wpa_supplicant\src/utils/const_time.h ****  * @mask: 0 (false) or -1 (true) to identify which value to copy
 152:..\..\..\..\wpa_supplicant\src/utils/const_time.h ****  * @true_val: Buffer to copy for the true case
 153:..\..\..\..\wpa_supplicant\src/utils/const_time.h ****  * @false_val: Buffer to copy for the false case
 154:..\..\..\..\wpa_supplicant\src/utils/const_time.h ****  * @len: Number of octets to copy
 155:..\..\..\..\wpa_supplicant\src/utils/const_time.h ****  * @dst: Destination buffer for the copy
 156:..\..\..\..\wpa_supplicant\src/utils/const_time.h ****  *
 157:..\..\..\..\wpa_supplicant\src/utils/const_time.h ****  * This function copies the specified buffer into the destination buffer using
 158:..\..\..\..\wpa_supplicant\src/utils/const_time.h ****  * operations with identical memory access pattern regardless of which buffer
 159:..\..\..\..\wpa_supplicant\src/utils/const_time.h ****  * is being copied.
 160:..\..\..\..\wpa_supplicant\src/utils/const_time.h ****  */
 161:..\..\..\..\wpa_supplicant\src/utils/const_time.h **** static inline void const_time_select_bin(u8 mask, const u8 *true_val,
 162:..\..\..\..\wpa_supplicant\src/utils/const_time.h **** 					 const u8 *false_val, size_t len,
 163:..\..\..\..\wpa_supplicant\src/utils/const_time.h **** 					 u8 *dst)
 164:..\..\..\..\wpa_supplicant\src/utils/const_time.h **** {
 165:..\..\..\..\wpa_supplicant\src/utils/const_time.h **** 	size_t i;
 166:..\..\..\..\wpa_supplicant\src/utils/const_time.h **** 
 167:..\..\..\..\wpa_supplicant\src/utils/const_time.h **** 	for (i = 0; i < len; i++)
 558              		.loc 2 167 9 is_stmt 0
 559 013a 8147     		li	a5,0
 560              	.L50:
 561              	.LVL66:
 562              		.loc 2 167 14 is_stmt 1
 563              		.loc 2 167 2 is_stmt 0
 564 013c 631AFA04 		bne	s4,a5,.L51
 565              	.LVL67:
 566              	.LBE58:
 567              	.LBE57:
 157:C:/Users/stapi/OneDrive/Desktop/GD32VW553/V1_MQTT_OK/GD32VW55X_Wifi_BLE_SDK/GD32VW55x_RELEASE_V1.0.2/MSDK/wpa_supplicant/src/common\dragonfly.c **** 	if (!qr_or_qnr ||
 568              		.loc 1 157 2 is_stmt 1
 157:C:/Users/stapi/OneDrive/Desktop/GD32VW553/V1_MQTT_OK/GD32VW55X_Wifi_BLE_SDK/GD32VW55x_RELEASE_V1.0.2/MSDK/wpa_supplicant/src/common\dragonfly.c **** 	if (!qr_or_qnr ||
 569              		.loc 1 157 14 is_stmt 0
 570 0140 D285     		mv	a1,s4
 571 0142 6800     		addi	a0,sp,12
 572 0144 97000000 		call	crypto_bignum_init_set
 572      E7800000 
 573              	.LVL68:
 574 014c 2A8A     		mv	s4,a0
 575              	.LVL69:
 158:C:/Users/stapi/OneDrive/Desktop/GD32VW553/V1_MQTT_OK/GD32VW55X_Wifi_BLE_SDK/GD32VW55x_RELEASE_V1.0.2/MSDK/wpa_supplicant/src/common\dragonfly.c **** 	    crypto_bignum_mulmod(num, qr_or_qnr, prime, num) < 0)
 576              		.loc 1 158 2 is_stmt 1
 158:C:/Users/stapi/OneDrive/Desktop/GD32VW553/V1_MQTT_OK/GD32VW55X_Wifi_BLE_SDK/GD32VW55x_RELEASE_V1.0.2/MSDK/wpa_supplicant/src/common\dragonfly.c **** 	    crypto_bignum_mulmod(num, qr_or_qnr, prime, num) < 0)
 577              		.loc 1 158 5 is_stmt 0
 578 014e 0DDD     		beq	a0,zero,.L49
 159:C:/Users/stapi/OneDrive/Desktop/GD32VW553/V1_MQTT_OK/GD32VW55X_Wifi_BLE_SDK/GD32VW55x_RELEASE_V1.0.2/MSDK/wpa_supplicant/src/common\dragonfly.c **** 		goto fail;
 579              		.loc 1 159 6 discriminator 1
 580 0150 AA85     		mv	a1,a0
 581 0152 CA86     		mv	a3,s2
 582 0154 5686     		mv	a2,s5
 583 0156 4A85     		mv	a0,s2
 584              	.LVL70:
 585 0158 97000000 		call	crypto_bignum_mulmod
 585      E7800000 
 586              	.LVL71:
 114:C:/Users/stapi/OneDrive/Desktop/GD32VW553/V1_MQTT_OK/GD32VW55X_Wifi_BLE_SDK/GD32VW55x_RELEASE_V1.0.2/MSDK/wpa_supplicant/src/common\dragonfly.c **** 	u8 qr_or_qnr_bin[DRAGONFLY_MAX_ECC_PRIME_LEN];
 587              		.loc 1 114 13 discriminator 1
 588 0160 FD54     		li	s1,-1
 158:C:/Users/stapi/OneDrive/Desktop/GD32VW553/V1_MQTT_OK/GD32VW55X_Wifi_BLE_SDK/GD32VW55x_RELEASE_V1.0.2/MSDK/wpa_supplicant/src/common\dragonfly.c **** 	    crypto_bignum_mulmod(num, qr_or_qnr, prime, num) < 0)
 589              		.loc 1 158 17 discriminator 1
 590 0162 E34505F2 		blt	a0,zero,.L48
 162:C:/Users/stapi/OneDrive/Desktop/GD32VW553/V1_MQTT_OK/GD32VW55X_Wifi_BLE_SDK/GD32VW55x_RELEASE_V1.0.2/MSDK/wpa_supplicant/src/common\dragonfly.c **** 
 591              		.loc 1 162 2 is_stmt 1
 592              	.LVL72:
 117:..\..\..\..\wpa_supplicant\src/utils/const_time.h **** 				       (unsigned int) false_val);
 593              		.loc 2 117 2
 103:..\..\..\..\wpa_supplicant\src/utils/const_time.h **** }
 594              		.loc 2 103 2
 165:C:/Users/stapi/OneDrive/Desktop/GD32VW553/V1_MQTT_OK/GD32VW55X_Wifi_BLE_SDK/GD32VW55x_RELEASE_V1.0.2/MSDK/wpa_supplicant/src/common\dragonfly.c **** 	if (res == -2) {
 595              		.loc 1 165 8 is_stmt 0
 596 0166 D685     		mv	a1,s5
 597 0168 4A85     		mv	a0,s2
 598 016a 97000000 		call	crypto_bignum_legendre
 598      E7800000 
 599              	.LVL73:
 166:C:/Users/stapi/OneDrive/Desktop/GD32VW553/V1_MQTT_OK/GD32VW55X_Wifi_BLE_SDK/GD32VW55x_RELEASE_V1.0.2/MSDK/wpa_supplicant/src/common\dragonfly.c **** 		res = -1;
 600              		.loc 1 166 5
 601 0172 F957     		li	a5,-2
 602 0174 93F9E9FF 		andi	s3,s3,-2
 603              	.LVL74:
 165:C:/Users/stapi/OneDrive/Desktop/GD32VW553/V1_MQTT_OK/GD32VW55X_Wifi_BLE_SDK/GD32VW55x_RELEASE_V1.0.2/MSDK/wpa_supplicant/src/common\dragonfly.c **** 	if (res == -2) {
 604              		.loc 1 165 2 is_stmt 1
 166:C:/Users/stapi/OneDrive/Desktop/GD32VW553/V1_MQTT_OK/GD32VW55X_Wifi_BLE_SDK/GD32VW55x_RELEASE_V1.0.2/MSDK/wpa_supplicant/src/common\dragonfly.c **** 		res = -1;
 605              		.loc 1 166 2
 166:C:/Users/stapi/OneDrive/Desktop/GD32VW553/V1_MQTT_OK/GD32VW55X_Wifi_BLE_SDK/GD32VW55x_RELEASE_V1.0.2/MSDK/wpa_supplicant/src/common\dragonfly.c **** 		res = -1;
 606              		.loc 1 166 5 is_stmt 0
 607 0178 E30AF5F0 		beq	a0,a5,.L48
 172:C:/Users/stapi/OneDrive/Desktop/GD32VW553/V1_MQTT_OK/GD32VW55X_Wifi_BLE_SDK/GD32VW55x_RELEASE_V1.0.2/MSDK/wpa_supplicant/src/common\dragonfly.c **** 	res = const_time_select_int(mask, 1, 0);
 608              		.loc 1 172 2 is_stmt 1
 609 017c B3473501 		xor	a5,a0,s3
 610              	.LVL75:
 611              	.LBB61:
 612              	.LBB62:
  50:..\..\..\..\wpa_supplicant\src/utils/const_time.h **** }
 613              		.loc 2 50 2
 614              	.LBB63:
 615              	.LBB64:
  43:..\..\..\..\wpa_supplicant\src/utils/const_time.h **** }
 616              		.loc 2 43 2
 617              	.LBE64:
 618              	.LBE63:
 619              	.LBE62:
 620              	.LBE61:
  34:..\..\..\..\wpa_supplicant\src/utils/const_time.h **** }
 621              		.loc 2 34 2
 173:C:/Users/stapi/OneDrive/Desktop/GD32VW553/V1_MQTT_OK/GD32VW55X_Wifi_BLE_SDK/GD32VW55x_RELEASE_V1.0.2/MSDK/wpa_supplicant/src/common\dragonfly.c **** fail:
 622              		.loc 1 173 2
 623              	.LBB68:
 624              	.LBB69:
 117:..\..\..\..\wpa_supplicant\src/utils/const_time.h **** 				       (unsigned int) false_val);
 625              		.loc 2 117 2
 626              	.LBE69:
 627              	.LBE68:
 103:..\..\..\..\wpa_supplicant\src/utils/const_time.h **** }
 628              		.loc 2 103 2
 629              	.LBB71:
 630              	.LBB67:
  50:..\..\..\..\wpa_supplicant\src/utils/const_time.h **** }
 631              		.loc 2 50 9 is_stmt 0
 632 0180 93C41700 		xori	s1,a5,1
 633              	.LBB66:
 634              	.LBB65:
  43:..\..\..\..\wpa_supplicant\src/utils/const_time.h **** }
 635              		.loc 2 43 41
 636 0184 FD14     		addi	s1,s1,-1
  43:..\..\..\..\wpa_supplicant\src/utils/const_time.h **** }
 637              		.loc 2 43 9
 638 0186 93C7E7FF 		xori	a5,a5,-2
 639              	.LVL76:
 640 018a FD8C     		and	s1,s1,a5
 641              	.LVL77:
 642              	.LBE65:
 643              	.LBE66:
 644              	.LBE67:
 645              	.LBE71:
 646              	.LBB72:
 647              	.LBB70:
 117:..\..\..\..\wpa_supplicant\src/utils/const_time.h **** 				       (unsigned int) false_val);
 648              		.loc 2 117 9
 649 018c FD80     		srli	s1,s1,31
 650              	.LVL78:
 651 018e FDBD     		j	.L48
 652              	.LVL79:
 653              	.L51:
 654              	.LBE70:
 655              	.LBE72:
 656              	.LBB73:
 657              	.LBB59:
 168:..\..\..\..\wpa_supplicant\src/utils/const_time.h **** 		dst[i] = const_time_select_u8(mask, true_val[i], false_val[i]);
 658              		.loc 2 168 3 is_stmt 1
 659              		.loc 2 168 12 is_stmt 0
 660 0190 3307FB00 		add	a4,s6,a5
 661 0194 83460700 		lbu	a3,0(a4)
 662              	.LVL80:
 663              	.LBE59:
 664              	.LBE73:
 131:..\..\..\..\wpa_supplicant\src/utils/const_time.h **** }
 665              		.loc 2 131 2 is_stmt 1
 103:..\..\..\..\wpa_supplicant\src/utils/const_time.h **** }
 666              		.loc 2 103 2
 667              	.LBB74:
 668              	.LBB60:
 669              		.loc 2 168 10 is_stmt 0
 670 0198 7800     		addi	a4,sp,12
 671              	.LVL81:
 672 019a B305F700 		add	a1,a4,a5
 673              		.loc 2 168 12
 674 019e 3387FB00 		add	a4,s7,a5
 675              	.LVL82:
 676              		.loc 2 168 10
 677 01a2 03470700 		lbu	a4,0(a4)
 167:..\..\..\..\wpa_supplicant\src/utils/const_time.h **** 		dst[i] = const_time_select_u8(mask, true_val[i], false_val[i]);
 678              		.loc 2 167 24
 679 01a6 8507     		addi	a5,a5,1
 680              	.LVL83:
 681              		.loc 2 168 10
 682 01a8 358F     		xor	a4,a3,a4
 683 01aa 718F     		and	a4,a2,a4
 684 01ac 358F     		xor	a4,a3,a4
 685 01ae 2380E500 		sb	a4,0(a1)
 167:..\..\..\..\wpa_supplicant\src/utils/const_time.h **** 		dst[i] = const_time_select_u8(mask, true_val[i], false_val[i]);
 686              		.loc 2 167 23 is_stmt 1
 687              	.LVL84:
 688 01b2 69B7     		j	.L50
 689              	.LBE60:
 690              	.LBE74:
 691              		.cfi_endproc
 692              	.LFE86:
 694              		.section	.rodata.dragonfly_generate_scalar.str1.4,"aMS",@progbits,1
 695              		.align	2
 696              	.LC1:
 697 0000 64726167 		.string	"dragonfly: Unable to get randomness for own scalar"
 697      6F6E666C 
 697      793A2055 
 697      6E61626C 
 697      6520746F 
 698              		.section	.text.dragonfly_generate_scalar,"ax",@progbits
 699              		.align	1
 700              		.globl	dragonfly_generate_scalar
 702              	dragonfly_generate_scalar:
 703              	.LFB88:
 189:C:/Users/stapi/OneDrive/Desktop/GD32VW553/V1_MQTT_OK/GD32VW55X_Wifi_BLE_SDK/GD32VW55x_RELEASE_V1.0.2/MSDK/wpa_supplicant/src/common\dragonfly.c **** 
 190:C:/Users/stapi/OneDrive/Desktop/GD32VW553/V1_MQTT_OK/GD32VW55X_Wifi_BLE_SDK/GD32VW55x_RELEASE_V1.0.2/MSDK/wpa_supplicant/src/common\dragonfly.c **** 
 191:C:/Users/stapi/OneDrive/Desktop/GD32VW553/V1_MQTT_OK/GD32VW55X_Wifi_BLE_SDK/GD32VW55x_RELEASE_V1.0.2/MSDK/wpa_supplicant/src/common\dragonfly.c **** int dragonfly_generate_scalar(const struct crypto_bignum *order,
 192:C:/Users/stapi/OneDrive/Desktop/GD32VW553/V1_MQTT_OK/GD32VW55X_Wifi_BLE_SDK/GD32VW55x_RELEASE_V1.0.2/MSDK/wpa_supplicant/src/common\dragonfly.c **** 			      struct crypto_bignum *_rand,
 193:C:/Users/stapi/OneDrive/Desktop/GD32VW553/V1_MQTT_OK/GD32VW55X_Wifi_BLE_SDK/GD32VW55x_RELEASE_V1.0.2/MSDK/wpa_supplicant/src/common\dragonfly.c **** 			      struct crypto_bignum *_mask,
 194:C:/Users/stapi/OneDrive/Desktop/GD32VW553/V1_MQTT_OK/GD32VW55X_Wifi_BLE_SDK/GD32VW55x_RELEASE_V1.0.2/MSDK/wpa_supplicant/src/common\dragonfly.c **** 			      struct crypto_bignum *scalar)
 195:C:/Users/stapi/OneDrive/Desktop/GD32VW553/V1_MQTT_OK/GD32VW55X_Wifi_BLE_SDK/GD32VW55x_RELEASE_V1.0.2/MSDK/wpa_supplicant/src/common\dragonfly.c **** {
 704              		.loc 1 195 1
 705              		.cfi_startproc
 706              	.LVL85:
 707 0000 17030000 		call	t0,__riscv_save_5
 707      E7020300 
 708              		.cfi_offset 20, -24
 709              		.cfi_offset 19, -20
 710              		.cfi_offset 18, -16
 711              		.cfi_offset 9, -12
 712              		.cfi_offset 8, -8
 713              		.cfi_offset 1, -4
 714              		.cfi_def_cfa_offset 32
 196:C:/Users/stapi/OneDrive/Desktop/GD32VW553/V1_MQTT_OK/GD32VW55X_Wifi_BLE_SDK/GD32VW55x_RELEASE_V1.0.2/MSDK/wpa_supplicant/src/common\dragonfly.c **** 	int count;
 715              		.loc 1 196 2
 197:C:/Users/stapi/OneDrive/Desktop/GD32VW553/V1_MQTT_OK/GD32VW55X_Wifi_BLE_SDK/GD32VW55x_RELEASE_V1.0.2/MSDK/wpa_supplicant/src/common\dragonfly.c **** 
 198:C:/Users/stapi/OneDrive/Desktop/GD32VW553/V1_MQTT_OK/GD32VW55X_Wifi_BLE_SDK/GD32VW55x_RELEASE_V1.0.2/MSDK/wpa_supplicant/src/common\dragonfly.c **** 	/* Select two random values rand,mask such that 1 < rand,mask < r and
 199:C:/Users/stapi/OneDrive/Desktop/GD32VW553/V1_MQTT_OK/GD32VW55X_Wifi_BLE_SDK/GD32VW55x_RELEASE_V1.0.2/MSDK/wpa_supplicant/src/common\dragonfly.c **** 	 * rand + mask mod r > 1. */
 200:C:/Users/stapi/OneDrive/Desktop/GD32VW553/V1_MQTT_OK/GD32VW55X_Wifi_BLE_SDK/GD32VW55x_RELEASE_V1.0.2/MSDK/wpa_supplicant/src/common\dragonfly.c **** 	for (count = 0; count < 100; count++) {
 716              		.loc 1 200 2
 717              	.LVL86:
 718              		.loc 1 200 18
 195:C:/Users/stapi/OneDrive/Desktop/GD32VW553/V1_MQTT_OK/GD32VW55X_Wifi_BLE_SDK/GD32VW55x_RELEASE_V1.0.2/MSDK/wpa_supplicant/src/common\dragonfly.c **** 	int count;
 719              		.loc 1 195 1 is_stmt 0
 720 0008 AA84     		mv	s1,a0
 721 000a 2E89     		mv	s2,a1
 722 000c B289     		mv	s3,a2
 723 000e 3684     		mv	s0,a3
 724 0010 130A4006 		li	s4,100
 725              	.LVL87:
 726              	.L67:
 201:C:/Users/stapi/OneDrive/Desktop/GD32VW553/V1_MQTT_OK/GD32VW55X_Wifi_BLE_SDK/GD32VW55x_RELEASE_V1.0.2/MSDK/wpa_supplicant/src/common\dragonfly.c **** 		if (dragonfly_get_rand_2_to_r_1(_rand, order) &&
 727              		.loc 1 201 3 is_stmt 1
 728              		.loc 1 201 7 is_stmt 0
 729 0014 A685     		mv	a1,s1
 730 0016 4A85     		mv	a0,s2
 731 0018 97000000 		call	dragonfly_get_rand_2_to_r_1
 731      E7800000 
 732              	.LVL88:
 733              		.loc 1 201 6
 734 0020 19ED     		bne	a0,zero,.L66
 735              	.L69:
 200:C:/Users/stapi/OneDrive/Desktop/GD32VW553/V1_MQTT_OK/GD32VW55X_Wifi_BLE_SDK/GD32VW55x_RELEASE_V1.0.2/MSDK/wpa_supplicant/src/common\dragonfly.c **** 		if (dragonfly_get_rand_2_to_r_1(_rand, order) &&
 736              		.loc 1 200 31 is_stmt 1
 737              	.LVL89:
 200:C:/Users/stapi/OneDrive/Desktop/GD32VW553/V1_MQTT_OK/GD32VW55X_Wifi_BLE_SDK/GD32VW55x_RELEASE_V1.0.2/MSDK/wpa_supplicant/src/common\dragonfly.c **** 		if (dragonfly_get_rand_2_to_r_1(_rand, order) &&
 738              		.loc 1 200 18
 200:C:/Users/stapi/OneDrive/Desktop/GD32VW553/V1_MQTT_OK/GD32VW55X_Wifi_BLE_SDK/GD32VW55x_RELEASE_V1.0.2/MSDK/wpa_supplicant/src/common\dragonfly.c **** 		if (dragonfly_get_rand_2_to_r_1(_rand, order) &&
 739              		.loc 1 200 2 is_stmt 0
 740 0022 7D1A     		addi	s4,s4,-1
 741              	.LVL90:
 742 0024 E3180AFE 		bne	s4,zero,.L67
 202:C:/Users/stapi/OneDrive/Desktop/GD32VW553/V1_MQTT_OK/GD32VW55X_Wifi_BLE_SDK/GD32VW55x_RELEASE_V1.0.2/MSDK/wpa_supplicant/src/common\dragonfly.c **** 		    dragonfly_get_rand_2_to_r_1(_mask, order) &&
 203:C:/Users/stapi/OneDrive/Desktop/GD32VW553/V1_MQTT_OK/GD32VW55X_Wifi_BLE_SDK/GD32VW55x_RELEASE_V1.0.2/MSDK/wpa_supplicant/src/common\dragonfly.c **** 		    crypto_bignum_add(_rand, _mask, scalar) == 0 &&
 204:C:/Users/stapi/OneDrive/Desktop/GD32VW553/V1_MQTT_OK/GD32VW55X_Wifi_BLE_SDK/GD32VW55x_RELEASE_V1.0.2/MSDK/wpa_supplicant/src/common\dragonfly.c **** 		    crypto_bignum_mod(scalar, order, scalar) == 0 &&
 205:C:/Users/stapi/OneDrive/Desktop/GD32VW553/V1_MQTT_OK/GD32VW55X_Wifi_BLE_SDK/GD32VW55x_RELEASE_V1.0.2/MSDK/wpa_supplicant/src/common\dragonfly.c **** 		    !crypto_bignum_is_zero(scalar) &&
 206:C:/Users/stapi/OneDrive/Desktop/GD32VW553/V1_MQTT_OK/GD32VW55X_Wifi_BLE_SDK/GD32VW55x_RELEASE_V1.0.2/MSDK/wpa_supplicant/src/common\dragonfly.c **** 		    !crypto_bignum_is_one(scalar))
 207:C:/Users/stapi/OneDrive/Desktop/GD32VW553/V1_MQTT_OK/GD32VW55X_Wifi_BLE_SDK/GD32VW55x_RELEASE_V1.0.2/MSDK/wpa_supplicant/src/common\dragonfly.c **** 			return 0;
 208:C:/Users/stapi/OneDrive/Desktop/GD32VW553/V1_MQTT_OK/GD32VW55X_Wifi_BLE_SDK/GD32VW55x_RELEASE_V1.0.2/MSDK/wpa_supplicant/src/common\dragonfly.c **** 	}
 209:C:/Users/stapi/OneDrive/Desktop/GD32VW553/V1_MQTT_OK/GD32VW55X_Wifi_BLE_SDK/GD32VW55x_RELEASE_V1.0.2/MSDK/wpa_supplicant/src/common\dragonfly.c **** 
 210:C:/Users/stapi/OneDrive/Desktop/GD32VW553/V1_MQTT_OK/GD32VW55X_Wifi_BLE_SDK/GD32VW55x_RELEASE_V1.0.2/MSDK/wpa_supplicant/src/common\dragonfly.c **** 	/* This should not be reachable in practice if the random number
 211:C:/Users/stapi/OneDrive/Desktop/GD32VW553/V1_MQTT_OK/GD32VW55X_Wifi_BLE_SDK/GD32VW55x_RELEASE_V1.0.2/MSDK/wpa_supplicant/src/common\dragonfly.c **** 	 * generation is working. */
 212:C:/Users/stapi/OneDrive/Desktop/GD32VW553/V1_MQTT_OK/GD32VW55X_Wifi_BLE_SDK/GD32VW55x_RELEASE_V1.0.2/MSDK/wpa_supplicant/src/common\dragonfly.c **** 	wpa_printf(MSG_INFO,
 743              		.loc 1 212 2 is_stmt 1
 744 0028 B7050000 		lui	a1,%hi(.LC1)
 745 002c 0D45     		li	a0,3
 746 002e 93850500 		addi	a1,a1,%lo(.LC1)
 747 0032 97000000 		call	wpa_printf
 747      E7800000 
 748              	.LVL91:
 213:C:/Users/stapi/OneDrive/Desktop/GD32VW553/V1_MQTT_OK/GD32VW55X_Wifi_BLE_SDK/GD32VW55x_RELEASE_V1.0.2/MSDK/wpa_supplicant/src/common\dragonfly.c **** 		   "dragonfly: Unable to get randomness for own scalar");
 214:C:/Users/stapi/OneDrive/Desktop/GD32VW553/V1_MQTT_OK/GD32VW55X_Wifi_BLE_SDK/GD32VW55x_RELEASE_V1.0.2/MSDK/wpa_supplicant/src/common\dragonfly.c **** 	return -1;
 749              		.loc 1 214 2
 750              		.loc 1 214 9 is_stmt 0
 751 003a 7D55     		li	a0,-1
 752 003c A1A0     		j	.L65
 753              	.L66:
 202:C:/Users/stapi/OneDrive/Desktop/GD32VW553/V1_MQTT_OK/GD32VW55X_Wifi_BLE_SDK/GD32VW55x_RELEASE_V1.0.2/MSDK/wpa_supplicant/src/common\dragonfly.c **** 		    dragonfly_get_rand_2_to_r_1(_mask, order) &&
 754              		.loc 1 202 7 discriminator 1
 755 003e A685     		mv	a1,s1
 756 0040 4E85     		mv	a0,s3
 757 0042 97000000 		call	dragonfly_get_rand_2_to_r_1
 757      E7800000 
 758              	.LVL92:
 201:C:/Users/stapi/OneDrive/Desktop/GD32VW553/V1_MQTT_OK/GD32VW55X_Wifi_BLE_SDK/GD32VW55x_RELEASE_V1.0.2/MSDK/wpa_supplicant/src/common\dragonfly.c **** 		    dragonfly_get_rand_2_to_r_1(_mask, order) &&
 759              		.loc 1 201 49 discriminator 1
 760 004a 61DD     		beq	a0,zero,.L69
 203:C:/Users/stapi/OneDrive/Desktop/GD32VW553/V1_MQTT_OK/GD32VW55X_Wifi_BLE_SDK/GD32VW55x_RELEASE_V1.0.2/MSDK/wpa_supplicant/src/common\dragonfly.c **** 		    crypto_bignum_mod(scalar, order, scalar) == 0 &&
 761              		.loc 1 203 7
 762 004c 2286     		mv	a2,s0
 763 004e CE85     		mv	a1,s3
 764 0050 4A85     		mv	a0,s2
 765 0052 97000000 		call	crypto_bignum_add
 765      E7800000 
 766              	.LVL93:
 202:C:/Users/stapi/OneDrive/Desktop/GD32VW553/V1_MQTT_OK/GD32VW55X_Wifi_BLE_SDK/GD32VW55x_RELEASE_V1.0.2/MSDK/wpa_supplicant/src/common\dragonfly.c **** 		    crypto_bignum_add(_rand, _mask, scalar) == 0 &&
 767              		.loc 1 202 49
 768 005a 61F5     		bne	a0,zero,.L69
 204:C:/Users/stapi/OneDrive/Desktop/GD32VW553/V1_MQTT_OK/GD32VW55X_Wifi_BLE_SDK/GD32VW55x_RELEASE_V1.0.2/MSDK/wpa_supplicant/src/common\dragonfly.c **** 		    !crypto_bignum_is_zero(scalar) &&
 769              		.loc 1 204 7
 770 005c 2286     		mv	a2,s0
 771 005e A685     		mv	a1,s1
 772 0060 2285     		mv	a0,s0
 773 0062 97000000 		call	crypto_bignum_mod
 773      E7800000 
 774              	.LVL94:
 203:C:/Users/stapi/OneDrive/Desktop/GD32VW553/V1_MQTT_OK/GD32VW55X_Wifi_BLE_SDK/GD32VW55x_RELEASE_V1.0.2/MSDK/wpa_supplicant/src/common\dragonfly.c **** 		    crypto_bignum_mod(scalar, order, scalar) == 0 &&
 775              		.loc 1 203 52
 776 006a 45FD     		bne	a0,zero,.L69
 205:C:/Users/stapi/OneDrive/Desktop/GD32VW553/V1_MQTT_OK/GD32VW55X_Wifi_BLE_SDK/GD32VW55x_RELEASE_V1.0.2/MSDK/wpa_supplicant/src/common\dragonfly.c **** 		    !crypto_bignum_is_one(scalar))
 777              		.loc 1 205 8
 778 006c 2285     		mv	a0,s0
 779 006e 97000000 		call	crypto_bignum_is_zero
 779      E7800000 
 780              	.LVL95:
 204:C:/Users/stapi/OneDrive/Desktop/GD32VW553/V1_MQTT_OK/GD32VW55X_Wifi_BLE_SDK/GD32VW55x_RELEASE_V1.0.2/MSDK/wpa_supplicant/src/common\dragonfly.c **** 		    !crypto_bignum_is_zero(scalar) &&
 781              		.loc 1 204 53
 782 0076 55F5     		bne	a0,zero,.L69
 206:C:/Users/stapi/OneDrive/Desktop/GD32VW553/V1_MQTT_OK/GD32VW55X_Wifi_BLE_SDK/GD32VW55x_RELEASE_V1.0.2/MSDK/wpa_supplicant/src/common\dragonfly.c **** 			return 0;
 783              		.loc 1 206 8
 784 0078 2285     		mv	a0,s0
 785 007a 97000000 		call	crypto_bignum_is_one
 785      E7800000 
 786              	.LVL96:
 205:C:/Users/stapi/OneDrive/Desktop/GD32VW553/V1_MQTT_OK/GD32VW55X_Wifi_BLE_SDK/GD32VW55x_RELEASE_V1.0.2/MSDK/wpa_supplicant/src/common\dragonfly.c **** 		    !crypto_bignum_is_one(scalar))
 787              		.loc 1 205 38
 788 0082 45F1     		bne	a0,zero,.L69
 789              	.LVL97:
 790              	.L65:
 215:C:/Users/stapi/OneDrive/Desktop/GD32VW553/V1_MQTT_OK/GD32VW55X_Wifi_BLE_SDK/GD32VW55x_RELEASE_V1.0.2/MSDK/wpa_supplicant/src/common\dragonfly.c **** }
 791              		.loc 1 215 1
 792 0084 17030000 		tail	__riscv_restore_5
 792      67000300 
 793              		.cfi_restore 20
 794              		.cfi_restore 19
 795              		.cfi_restore 18
 796              		.cfi_restore 9
 797              		.cfi_restore 8
 798              		.cfi_restore 1
 799              		.cfi_def_cfa_offset 0
 800              		.cfi_endproc
 801              	.LFE88:
 803              		.section	.text.dragonfly_sqrt,"ax",@progbits
 804              		.align	1
 805              		.globl	dragonfly_sqrt
 807              	dragonfly_sqrt:
 808              	.LFB89:
 216:C:/Users/stapi/OneDrive/Desktop/GD32VW553/V1_MQTT_OK/GD32VW55X_Wifi_BLE_SDK/GD32VW55x_RELEASE_V1.0.2/MSDK/wpa_supplicant/src/common\dragonfly.c **** 
 217:C:/Users/stapi/OneDrive/Desktop/GD32VW553/V1_MQTT_OK/GD32VW55X_Wifi_BLE_SDK/GD32VW55x_RELEASE_V1.0.2/MSDK/wpa_supplicant/src/common\dragonfly.c **** 
 218:C:/Users/stapi/OneDrive/Desktop/GD32VW553/V1_MQTT_OK/GD32VW55X_Wifi_BLE_SDK/GD32VW55x_RELEASE_V1.0.2/MSDK/wpa_supplicant/src/common\dragonfly.c **** /* res = sqrt(val) */
 219:C:/Users/stapi/OneDrive/Desktop/GD32VW553/V1_MQTT_OK/GD32VW55X_Wifi_BLE_SDK/GD32VW55x_RELEASE_V1.0.2/MSDK/wpa_supplicant/src/common\dragonfly.c **** int dragonfly_sqrt(struct crypto_ec *ec, const struct crypto_bignum *val,
 220:C:/Users/stapi/OneDrive/Desktop/GD32VW553/V1_MQTT_OK/GD32VW55X_Wifi_BLE_SDK/GD32VW55x_RELEASE_V1.0.2/MSDK/wpa_supplicant/src/common\dragonfly.c **** 		   struct crypto_bignum *res)
 221:C:/Users/stapi/OneDrive/Desktop/GD32VW553/V1_MQTT_OK/GD32VW55X_Wifi_BLE_SDK/GD32VW55x_RELEASE_V1.0.2/MSDK/wpa_supplicant/src/common\dragonfly.c **** {
 809              		.loc 1 221 1 is_stmt 1
 810              		.cfi_startproc
 811              	.LVL98:
 812 0000 17030000 		call	t0,__riscv_save_6
 812      E7020300 
 813              		.cfi_offset 21, -28
 814              		.cfi_offset 20, -24
 815              		.cfi_offset 19, -20
 816              		.cfi_offset 18, -16
 817              		.cfi_offset 9, -12
 818              		.cfi_offset 8, -8
 819              		.cfi_offset 1, -4
 820              		.cfi_def_cfa_offset 32
 222:C:/Users/stapi/OneDrive/Desktop/GD32VW553/V1_MQTT_OK/GD32VW55X_Wifi_BLE_SDK/GD32VW55x_RELEASE_V1.0.2/MSDK/wpa_supplicant/src/common\dragonfly.c **** 	const struct crypto_bignum *prime;
 821              		.loc 1 222 2
 223:C:/Users/stapi/OneDrive/Desktop/GD32VW553/V1_MQTT_OK/GD32VW55X_Wifi_BLE_SDK/GD32VW55x_RELEASE_V1.0.2/MSDK/wpa_supplicant/src/common\dragonfly.c **** 	struct crypto_bignum *tmp, *one;
 822              		.loc 1 223 2
 224:C:/Users/stapi/OneDrive/Desktop/GD32VW553/V1_MQTT_OK/GD32VW55X_Wifi_BLE_SDK/GD32VW55x_RELEASE_V1.0.2/MSDK/wpa_supplicant/src/common\dragonfly.c **** 	int ret = 0;
 823              		.loc 1 224 2
 824              	.LVL99:
 225:C:/Users/stapi/OneDrive/Desktop/GD32VW553/V1_MQTT_OK/GD32VW55X_Wifi_BLE_SDK/GD32VW55x_RELEASE_V1.0.2/MSDK/wpa_supplicant/src/common\dragonfly.c **** 	u8 prime_bin[DRAGONFLY_MAX_ECC_PRIME_LEN];
 825              		.loc 1 225 2
 226:C:/Users/stapi/OneDrive/Desktop/GD32VW553/V1_MQTT_OK/GD32VW55X_Wifi_BLE_SDK/GD32VW55x_RELEASE_V1.0.2/MSDK/wpa_supplicant/src/common\dragonfly.c **** 	size_t prime_len;
 826              		.loc 1 226 2
 227:C:/Users/stapi/OneDrive/Desktop/GD32VW553/V1_MQTT_OK/GD32VW55X_Wifi_BLE_SDK/GD32VW55x_RELEASE_V1.0.2/MSDK/wpa_supplicant/src/common\dragonfly.c **** 
 228:C:/Users/stapi/OneDrive/Desktop/GD32VW553/V1_MQTT_OK/GD32VW55X_Wifi_BLE_SDK/GD32VW55x_RELEASE_V1.0.2/MSDK/wpa_supplicant/src/common\dragonfly.c **** 	/* For prime p such that p = 3 mod 4, sqrt(w) = w^((p+1)/4) mod p */
 229:C:/Users/stapi/OneDrive/Desktop/GD32VW553/V1_MQTT_OK/GD32VW55X_Wifi_BLE_SDK/GD32VW55x_RELEASE_V1.0.2/MSDK/wpa_supplicant/src/common\dragonfly.c **** 
 230:C:/Users/stapi/OneDrive/Desktop/GD32VW553/V1_MQTT_OK/GD32VW55X_Wifi_BLE_SDK/GD32VW55x_RELEASE_V1.0.2/MSDK/wpa_supplicant/src/common\dragonfly.c **** 	prime = crypto_ec_get_prime(ec);
 827              		.loc 1 230 2
 221:C:/Users/stapi/OneDrive/Desktop/GD32VW553/V1_MQTT_OK/GD32VW55X_Wifi_BLE_SDK/GD32VW55x_RELEASE_V1.0.2/MSDK/wpa_supplicant/src/common\dragonfly.c **** 	const struct crypto_bignum *prime;
 828              		.loc 1 221 1 is_stmt 0
 829 0008 5D71     		addi	sp,sp,-80
 830              		.cfi_def_cfa_offset 112
 221:C:/Users/stapi/OneDrive/Desktop/GD32VW553/V1_MQTT_OK/GD32VW55X_Wifi_BLE_SDK/GD32VW55x_RELEASE_V1.0.2/MSDK/wpa_supplicant/src/common\dragonfly.c **** 	const struct crypto_bignum *prime;
 831              		.loc 1 221 1
 832 000a 2E8A     		mv	s4,a1
 833 000c B28A     		mv	s5,a2
 834 000e 2A84     		mv	s0,a0
 835              		.loc 1 230 10
 836 0010 97000000 		call	crypto_ec_get_prime
 836      E7800000 
 837              	.LVL100:
 838 0018 AA89     		mv	s3,a0
 839              	.LVL101:
 231:C:/Users/stapi/OneDrive/Desktop/GD32VW553/V1_MQTT_OK/GD32VW55X_Wifi_BLE_SDK/GD32VW55x_RELEASE_V1.0.2/MSDK/wpa_supplicant/src/common\dragonfly.c **** 	prime_len = crypto_ec_prime_len(ec);
 840              		.loc 1 231 2 is_stmt 1
 841              		.loc 1 231 14 is_stmt 0
 842 001a 2285     		mv	a0,s0
 843              	.LVL102:
 844 001c 97000000 		call	crypto_ec_prime_len
 844      E7800000 
 845              	.LVL103:
 846 0024 AA84     		mv	s1,a0
 847              	.LVL104:
 232:C:/Users/stapi/OneDrive/Desktop/GD32VW553/V1_MQTT_OK/GD32VW55X_Wifi_BLE_SDK/GD32VW55x_RELEASE_V1.0.2/MSDK/wpa_supplicant/src/common\dragonfly.c **** 	tmp = crypto_bignum_init();
 848              		.loc 1 232 2 is_stmt 1
 849              		.loc 1 232 8 is_stmt 0
 850 0026 97000000 		call	crypto_bignum_init
 850      E7800000 
 851              	.LVL105:
 852 002e 2A84     		mv	s0,a0
 853              	.LVL106:
 233:C:/Users/stapi/OneDrive/Desktop/GD32VW553/V1_MQTT_OK/GD32VW55X_Wifi_BLE_SDK/GD32VW55x_RELEASE_V1.0.2/MSDK/wpa_supplicant/src/common\dragonfly.c **** 	one = crypto_bignum_init_uint(1);
 854              		.loc 1 233 2 is_stmt 1
 855              		.loc 1 233 8 is_stmt 0
 856 0030 0545     		li	a0,1
 857 0032 97000000 		call	crypto_bignum_init_uint
 857      E7800000 
 858              	.LVL107:
 859 003a 2A89     		mv	s2,a0
 860              	.LVL108:
 234:C:/Users/stapi/OneDrive/Desktop/GD32VW553/V1_MQTT_OK/GD32VW55X_Wifi_BLE_SDK/GD32VW55x_RELEASE_V1.0.2/MSDK/wpa_supplicant/src/common\dragonfly.c **** 
 235:C:/Users/stapi/OneDrive/Desktop/GD32VW553/V1_MQTT_OK/GD32VW55X_Wifi_BLE_SDK/GD32VW55x_RELEASE_V1.0.2/MSDK/wpa_supplicant/src/common\dragonfly.c **** 	if (crypto_bignum_to_bin(prime, prime_bin, sizeof(prime_bin),
 861              		.loc 1 235 2 is_stmt 1
 862              		.loc 1 235 6 is_stmt 0
 863 003c A686     		mv	a3,s1
 864 003e 13062004 		li	a2,66
 865 0042 6C00     		addi	a1,sp,12
 866 0044 4E85     		mv	a0,s3
 867              	.LVL109:
 868 0046 97000000 		call	crypto_bignum_to_bin
 868      E7800000 
 869              	.LVL110:
 870              		.loc 1 235 5
 871 004e 63550502 		bge	a0,zero,.L81
 872              	.LVL111:
 873              	.L83:
 236:C:/Users/stapi/OneDrive/Desktop/GD32VW553/V1_MQTT_OK/GD32VW55X_Wifi_BLE_SDK/GD32VW55x_RELEASE_V1.0.2/MSDK/wpa_supplicant/src/common\dragonfly.c **** 				 prime_len) < 0 ||
 237:C:/Users/stapi/OneDrive/Desktop/GD32VW553/V1_MQTT_OK/GD32VW55X_Wifi_BLE_SDK/GD32VW55x_RELEASE_V1.0.2/MSDK/wpa_supplicant/src/common\dragonfly.c **** 	    (prime_bin[prime_len - 1] & 0x03) != 3 ||
 238:C:/Users/stapi/OneDrive/Desktop/GD32VW553/V1_MQTT_OK/GD32VW55X_Wifi_BLE_SDK/GD32VW55x_RELEASE_V1.0.2/MSDK/wpa_supplicant/src/common\dragonfly.c **** 	    !tmp || !one ||
 239:C:/Users/stapi/OneDrive/Desktop/GD32VW553/V1_MQTT_OK/GD32VW55X_Wifi_BLE_SDK/GD32VW55x_RELEASE_V1.0.2/MSDK/wpa_supplicant/src/common\dragonfly.c **** 	    /* tmp = (p+1)/4 */
 240:C:/Users/stapi/OneDrive/Desktop/GD32VW553/V1_MQTT_OK/GD32VW55X_Wifi_BLE_SDK/GD32VW55x_RELEASE_V1.0.2/MSDK/wpa_supplicant/src/common\dragonfly.c **** 	    crypto_bignum_add(prime, one, tmp) < 0 ||
 241:C:/Users/stapi/OneDrive/Desktop/GD32VW553/V1_MQTT_OK/GD32VW55X_Wifi_BLE_SDK/GD32VW55x_RELEASE_V1.0.2/MSDK/wpa_supplicant/src/common\dragonfly.c **** 	    crypto_bignum_rshift(tmp, 2, tmp) < 0 ||
 242:C:/Users/stapi/OneDrive/Desktop/GD32VW553/V1_MQTT_OK/GD32VW55X_Wifi_BLE_SDK/GD32VW55x_RELEASE_V1.0.2/MSDK/wpa_supplicant/src/common\dragonfly.c **** 	    /* res = sqrt(val) */
 243:C:/Users/stapi/OneDrive/Desktop/GD32VW553/V1_MQTT_OK/GD32VW55X_Wifi_BLE_SDK/GD32VW55x_RELEASE_V1.0.2/MSDK/wpa_supplicant/src/common\dragonfly.c **** 	    crypto_bignum_exptmod(val, tmp, prime, res) < 0)
 244:C:/Users/stapi/OneDrive/Desktop/GD32VW553/V1_MQTT_OK/GD32VW55X_Wifi_BLE_SDK/GD32VW55x_RELEASE_V1.0.2/MSDK/wpa_supplicant/src/common\dragonfly.c **** 		ret = -1;
 874              		.loc 1 244 7
 875 0052 FD54     		li	s1,-1
 876              	.L82:
 877              	.LVL112:
 245:C:/Users/stapi/OneDrive/Desktop/GD32VW553/V1_MQTT_OK/GD32VW55X_Wifi_BLE_SDK/GD32VW55x_RELEASE_V1.0.2/MSDK/wpa_supplicant/src/common\dragonfly.c **** 
 246:C:/Users/stapi/OneDrive/Desktop/GD32VW553/V1_MQTT_OK/GD32VW55X_Wifi_BLE_SDK/GD32VW55x_RELEASE_V1.0.2/MSDK/wpa_supplicant/src/common\dragonfly.c **** 	crypto_bignum_deinit(tmp, 0);
 878              		.loc 1 246 2 is_stmt 1
 879 0054 2285     		mv	a0,s0
 880 0056 8145     		li	a1,0
 881 0058 97000000 		call	crypto_bignum_deinit
 881      E7800000 
 882              	.LVL113:
 247:C:/Users/stapi/OneDrive/Desktop/GD32VW553/V1_MQTT_OK/GD32VW55X_Wifi_BLE_SDK/GD32VW55x_RELEASE_V1.0.2/MSDK/wpa_supplicant/src/common\dragonfly.c **** 	crypto_bignum_deinit(one, 0);
 883              		.loc 1 247 2
 884 0060 4A85     		mv	a0,s2
 885 0062 8145     		li	a1,0
 886 0064 97000000 		call	crypto_bignum_deinit
 886      E7800000 
 887              	.LVL114:
 248:C:/Users/stapi/OneDrive/Desktop/GD32VW553/V1_MQTT_OK/GD32VW55X_Wifi_BLE_SDK/GD32VW55x_RELEASE_V1.0.2/MSDK/wpa_supplicant/src/common\dragonfly.c **** 	return ret;
 888              		.loc 1 248 2
 249:C:/Users/stapi/OneDrive/Desktop/GD32VW553/V1_MQTT_OK/GD32VW55X_Wifi_BLE_SDK/GD32VW55x_RELEASE_V1.0.2/MSDK/wpa_supplicant/src/common\dragonfly.c **** }
 889              		.loc 1 249 1 is_stmt 0
 890 006c 2685     		mv	a0,s1
 891 006e 6161     		addi	sp,sp,80
 892              		.cfi_remember_state
 893              		.cfi_def_cfa_offset 0
 894 0070 17030000 		tail	__riscv_restore_6
 894      67000300 
 895              		.cfi_restore 21
 896              		.cfi_restore 20
 897              		.cfi_restore 19
 898              		.cfi_restore 18
 899              		.cfi_restore 9
 900              		.cfi_restore 8
 901              		.cfi_restore 1
 902              		.cfi_def_cfa_offset -32
 903              	.LVL115:
 904              	.L81:
 905              		.cfi_restore_state
 237:C:/Users/stapi/OneDrive/Desktop/GD32VW553/V1_MQTT_OK/GD32VW55X_Wifi_BLE_SDK/GD32VW55x_RELEASE_V1.0.2/MSDK/wpa_supplicant/src/common\dragonfly.c **** 	    !tmp || !one ||
 906              		.loc 1 237 16
 907 0078 9C08     		addi	a5,sp,80
 908 007a BE94     		add	s1,a5,s1
 909              	.LVL116:
 236:C:/Users/stapi/OneDrive/Desktop/GD32VW553/V1_MQTT_OK/GD32VW55X_Wifi_BLE_SDK/GD32VW55x_RELEASE_V1.0.2/MSDK/wpa_supplicant/src/common\dragonfly.c **** 	    (prime_bin[prime_len - 1] & 0x03) != 3 ||
 910              		.loc 1 236 21
 911 007c 83C7B4FB 		lbu	a5,-69(s1)
 912 0080 0D47     		li	a4,3
 913 0082 8D8B     		andi	a5,a5,3
 914 0084 E397E7FC 		bne	a5,a4,.L83
 237:C:/Users/stapi/OneDrive/Desktop/GD32VW553/V1_MQTT_OK/GD32VW55X_Wifi_BLE_SDK/GD32VW55x_RELEASE_V1.0.2/MSDK/wpa_supplicant/src/common\dragonfly.c **** 	    !tmp || !one ||
 915              		.loc 1 237 45
 916 0088 69D4     		beq	s0,zero,.L83
 238:C:/Users/stapi/OneDrive/Desktop/GD32VW553/V1_MQTT_OK/GD32VW55X_Wifi_BLE_SDK/GD32VW55x_RELEASE_V1.0.2/MSDK/wpa_supplicant/src/common\dragonfly.c **** 	    /* tmp = (p+1)/4 */
 917              		.loc 1 238 11
 918 008a E30409FC 		beq	s2,zero,.L83
 240:C:/Users/stapi/OneDrive/Desktop/GD32VW553/V1_MQTT_OK/GD32VW55X_Wifi_BLE_SDK/GD32VW55x_RELEASE_V1.0.2/MSDK/wpa_supplicant/src/common\dragonfly.c **** 	    crypto_bignum_rshift(tmp, 2, tmp) < 0 ||
 919              		.loc 1 240 6 discriminator 1
 920 008e 2286     		mv	a2,s0
 921 0090 CA85     		mv	a1,s2
 922 0092 4E85     		mv	a0,s3
 923 0094 97000000 		call	crypto_bignum_add
 923      E7800000 
 924              	.LVL117:
 238:C:/Users/stapi/OneDrive/Desktop/GD32VW553/V1_MQTT_OK/GD32VW55X_Wifi_BLE_SDK/GD32VW55x_RELEASE_V1.0.2/MSDK/wpa_supplicant/src/common\dragonfly.c **** 	    /* tmp = (p+1)/4 */
 925              		.loc 1 238 19 discriminator 1
 926 009c E34B05FA 		blt	a0,zero,.L83
 241:C:/Users/stapi/OneDrive/Desktop/GD32VW553/V1_MQTT_OK/GD32VW55X_Wifi_BLE_SDK/GD32VW55x_RELEASE_V1.0.2/MSDK/wpa_supplicant/src/common\dragonfly.c **** 	    /* res = sqrt(val) */
 927              		.loc 1 241 6
 928 00a0 2286     		mv	a2,s0
 929 00a2 8945     		li	a1,2
 930 00a4 2285     		mv	a0,s0
 931 00a6 97000000 		call	crypto_bignum_rshift
 931      E7800000 
 932              	.LVL118:
 240:C:/Users/stapi/OneDrive/Desktop/GD32VW553/V1_MQTT_OK/GD32VW55X_Wifi_BLE_SDK/GD32VW55x_RELEASE_V1.0.2/MSDK/wpa_supplicant/src/common\dragonfly.c **** 	    crypto_bignum_rshift(tmp, 2, tmp) < 0 ||
 933              		.loc 1 240 45
 934 00ae E34205FA 		blt	a0,zero,.L83
 243:C:/Users/stapi/OneDrive/Desktop/GD32VW553/V1_MQTT_OK/GD32VW55X_Wifi_BLE_SDK/GD32VW55x_RELEASE_V1.0.2/MSDK/wpa_supplicant/src/common\dragonfly.c **** 		ret = -1;
 935              		.loc 1 243 6
 936 00b2 D686     		mv	a3,s5
 937 00b4 4E86     		mv	a2,s3
 938 00b6 A285     		mv	a1,s0
 939 00b8 5285     		mv	a0,s4
 940 00ba 97000000 		call	crypto_bignum_exptmod
 940      E7800000 
 941              	.LVL119:
 241:C:/Users/stapi/OneDrive/Desktop/GD32VW553/V1_MQTT_OK/GD32VW55X_Wifi_BLE_SDK/GD32VW55x_RELEASE_V1.0.2/MSDK/wpa_supplicant/src/common\dragonfly.c **** 	    /* res = sqrt(val) */
 942              		.loc 1 241 44
 943 00c2 9354F541 		srai	s1,a0,31
 944 00c6 79B7     		j	.L82
 945              		.cfi_endproc
 946              	.LFE89:
 948              		.text
 949              	.Letext0:
 950              		.file 3 "c:\\users\\stapi\\onedrive\\desktop\\gd32vw553\\embeddedbuilder_v1.4.7.26843\\tools\\nucl
 951              		.file 4 "c:\\users\\stapi\\onedrive\\desktop\\gd32vw553\\embeddedbuilder_v1.4.7.26843\\tools\\nucl
 952              		.file 5 "c:\\users\\stapi\\onedrive\\desktop\\gd32vw553\\embeddedbuilder_v1.4.7.26843\\tools\\nucl
 953              		.file 6 "..\\..\\..\\..\\wpa_supplicant\\src/crypto/crypto.h"
 954              		.file 7 "..\\..\\..\\..\\wpa_supplicant\\src/utils/wpa_debug.h"
 955              		.file 8 "..\\..\\..\\..\\wpa_supplicant\\src/utils/common.h"
DEFINED SYMBOLS
                            *ABS*:0000000000000000 dragonfly.c
C:\Users\stapi\AppData\Local\Temp\ccmXy7tC.s:12     .text.dragonfly_get_rand_2_to_r_1:0000000000000000 dragonfly_get_rand_2_to_r_1
C:\Users\stapi\AppData\Local\Temp\ccmXy7tC.s:16     .text.dragonfly_get_rand_2_to_r_1:0000000000000000 .L0 
C:\Users\stapi\AppData\Local\Temp\ccmXy7tC.s:18     .text.dragonfly_get_rand_2_to_r_1:0000000000000000 .L0 
C:\Users\stapi\AppData\Local\Temp\ccmXy7tC.s:19     .text.dragonfly_get_rand_2_to_r_1:0000000000000008 .L0 
C:\Users\stapi\AppData\Local\Temp\ccmXy7tC.s:20     .text.dragonfly_get_rand_2_to_r_1:0000000000000008 .L0 
C:\Users\stapi\AppData\Local\Temp\ccmXy7tC.s:21     .text.dragonfly_get_rand_2_to_r_1:0000000000000008 .L0 
C:\Users\stapi\AppData\Local\Temp\ccmXy7tC.s:23     .text.dragonfly_get_rand_2_to_r_1:0000000000000008 .L0 
C:\Users\stapi\AppData\Local\Temp\ccmXy7tC.s:25     .text.dragonfly_get_rand_2_to_r_1:000000000000000a .L0 
C:\Users\stapi\AppData\Local\Temp\ccmXy7tC.s:26     .text.dragonfly_get_rand_2_to_r_1:000000000000000a .L0 
C:\Users\stapi\AppData\Local\Temp\ccmXy7tC.s:29     .text.dragonfly_get_rand_2_to_r_1:0000000000000012 .L0 
C:\Users\stapi\AppData\Local\Temp\ccmXy7tC.s:34     .text.dragonfly_get_rand_2_to_r_1:0000000000000016 .L0 
C:\Users\stapi\AppData\Local\Temp\ccmXy7tC.s:35     .text.dragonfly_get_rand_2_to_r_1:000000000000001e .L0 
C:\Users\stapi\AppData\Local\Temp\ccmXy7tC.s:36     .text.dragonfly_get_rand_2_to_r_1:000000000000001e .L0 
C:\Users\stapi\AppData\Local\Temp\ccmXy7tC.s:37     .text.dragonfly_get_rand_2_to_r_1:000000000000001e .L0 
C:\Users\stapi\AppData\Local\Temp\ccmXy7tC.s:38     .text.dragonfly_get_rand_2_to_r_1:000000000000001e .L0 
C:\Users\stapi\AppData\Local\Temp\ccmXy7tC.s:40     .text.dragonfly_get_rand_2_to_r_1:000000000000001e .L0 
C:\Users\stapi\AppData\Local\Temp\ccmXy7tC.s:42     .text.dragonfly_get_rand_2_to_r_1:000000000000001e .L0 
C:\Users\stapi\AppData\Local\Temp\ccmXy7tC.s:46     .text.dragonfly_get_rand_2_to_r_1:0000000000000028 .L0 
C:\Users\stapi\AppData\Local\Temp\ccmXy7tC.s:51     .text.dragonfly_get_rand_2_to_r_1:000000000000002a .L0 
C:\Users\stapi\AppData\Local\Temp\ccmXy7tC.s:55     .text.dragonfly_get_rand_2_to_r_1:0000000000000034 .L0 
C:\Users\stapi\AppData\Local\Temp\ccmXy7tC.s:60     .text.dragonfly_get_rand_2_to_r_1:000000000000003a .L0 
C:\Users\stapi\AppData\Local\Temp\ccmXy7tC.s:67     .text.dragonfly_suitable_group:0000000000000000 dragonfly_suitable_group
C:\Users\stapi\AppData\Local\Temp\ccmXy7tC.s:70     .text.dragonfly_suitable_group:0000000000000000 .L0 
C:\Users\stapi\AppData\Local\Temp\ccmXy7tC.s:72     .text.dragonfly_suitable_group:0000000000000000 .L0 
C:\Users\stapi\AppData\Local\Temp\ccmXy7tC.s:73     .text.dragonfly_suitable_group:0000000000000000 .L0 
C:\Users\stapi\AppData\Local\Temp\ccmXy7tC.s:74     .text.dragonfly_suitable_group:0000000000000000 .L0 
C:\Users\stapi\AppData\Local\Temp\ccmXy7tC.s:76     .text.dragonfly_suitable_group:0000000000000004 .L0 
C:\Users\stapi\AppData\Local\Temp\ccmXy7tC.s:78     .text.dragonfly_suitable_group:0000000000000006 .L0 
C:\Users\stapi\AppData\Local\Temp\ccmXy7tC.s:80     .text.dragonfly_suitable_group:0000000000000008 .L0 
C:\Users\stapi\AppData\Local\Temp\ccmXy7tC.s:82     .text.dragonfly_suitable_group:000000000000000c .L0 
C:\Users\stapi\AppData\Local\Temp\ccmXy7tC.s:86     .text.dragonfly_suitable_group:0000000000000010 .L0 
C:\Users\stapi\AppData\Local\Temp\ccmXy7tC.s:89     .text.dragonfly_suitable_group:0000000000000012 .L0 
C:\Users\stapi\AppData\Local\Temp\ccmXy7tC.s:94     .text.dragonfly_suitable_group:0000000000000018 .L0 
C:\Users\stapi\AppData\Local\Temp\ccmXy7tC.s:98     .text.dragonfly_suitable_group:000000000000001a .L0 
C:\Users\stapi\AppData\Local\Temp\ccmXy7tC.s:99     .text.dragonfly_suitable_group:000000000000001c .L0 
C:\Users\stapi\AppData\Local\Temp\ccmXy7tC.s:106    .text.dragonfly_min_pwe_loop_iter:0000000000000000 dragonfly_min_pwe_loop_iter
C:\Users\stapi\AppData\Local\Temp\ccmXy7tC.s:109    .text.dragonfly_min_pwe_loop_iter:0000000000000000 .L0 
C:\Users\stapi\AppData\Local\Temp\ccmXy7tC.s:111    .text.dragonfly_min_pwe_loop_iter:0000000000000000 .L0 
C:\Users\stapi\AppData\Local\Temp\ccmXy7tC.s:112    .text.dragonfly_min_pwe_loop_iter:0000000000000000 .L0 
C:\Users\stapi\AppData\Local\Temp\ccmXy7tC.s:113    .text.dragonfly_min_pwe_loop_iter:0000000000000000 .L0 
C:\Users\stapi\AppData\Local\Temp\ccmXy7tC.s:115    .text.dragonfly_min_pwe_loop_iter:0000000000000004 .L0 
C:\Users\stapi\AppData\Local\Temp\ccmXy7tC.s:117    .text.dragonfly_min_pwe_loop_iter:0000000000000006 .L0 
C:\Users\stapi\AppData\Local\Temp\ccmXy7tC.s:119    .text.dragonfly_min_pwe_loop_iter:0000000000000008 .L0 
C:\Users\stapi\AppData\Local\Temp\ccmXy7tC.s:121    .text.dragonfly_min_pwe_loop_iter:000000000000000c .L0 
C:\Users\stapi\AppData\Local\Temp\ccmXy7tC.s:122    .text.dragonfly_min_pwe_loop_iter:000000000000000c .L0 
C:\Users\stapi\AppData\Local\Temp\ccmXy7tC.s:124    .text.dragonfly_min_pwe_loop_iter:000000000000000e .L0 
C:\Users\stapi\AppData\Local\Temp\ccmXy7tC.s:127    .text.dragonfly_min_pwe_loop_iter:0000000000000012 .L0 
C:\Users\stapi\AppData\Local\Temp\ccmXy7tC.s:131    .text.dragonfly_min_pwe_loop_iter:000000000000001e .L0 
C:\Users\stapi\AppData\Local\Temp\ccmXy7tC.s:133    .text.dragonfly_min_pwe_loop_iter:0000000000000020 .L0 
C:\Users\stapi\AppData\Local\Temp\ccmXy7tC.s:137    .text.dragonfly_min_pwe_loop_iter:0000000000000026 .L0 
C:\Users\stapi\AppData\Local\Temp\ccmXy7tC.s:140    .text.dragonfly_min_pwe_loop_iter:000000000000002a .L0 
C:\Users\stapi\AppData\Local\Temp\ccmXy7tC.s:141    .text.dragonfly_min_pwe_loop_iter:000000000000002c .L0 
C:\Users\stapi\AppData\Local\Temp\ccmXy7tC.s:148    .text.dragonfly_get_random_qr_qnr:0000000000000000 dragonfly_get_random_qr_qnr
C:\Users\stapi\AppData\Local\Temp\ccmXy7tC.s:151    .text.dragonfly_get_random_qr_qnr:0000000000000000 .L0 
C:\Users\stapi\AppData\Local\Temp\ccmXy7tC.s:153    .text.dragonfly_get_random_qr_qnr:0000000000000000 .L0 
C:\Users\stapi\AppData\Local\Temp\ccmXy7tC.s:154    .text.dragonfly_get_random_qr_qnr:0000000000000008 .L0 
C:\Users\stapi\AppData\Local\Temp\ccmXy7tC.s:155    .text.dragonfly_get_random_qr_qnr:0000000000000008 .L0 
C:\Users\stapi\AppData\Local\Temp\ccmXy7tC.s:156    .text.dragonfly_get_random_qr_qnr:0000000000000008 .L0 
C:\Users\stapi\AppData\Local\Temp\ccmXy7tC.s:157    .text.dragonfly_get_random_qr_qnr:0000000000000008 .L0 
C:\Users\stapi\AppData\Local\Temp\ccmXy7tC.s:158    .text.dragonfly_get_random_qr_qnr:0000000000000008 .L0 
C:\Users\stapi\AppData\Local\Temp\ccmXy7tC.s:159    .text.dragonfly_get_random_qr_qnr:0000000000000008 .L0 
C:\Users\stapi\AppData\Local\Temp\ccmXy7tC.s:160    .text.dragonfly_get_random_qr_qnr:0000000000000008 .L0 
C:\Users\stapi\AppData\Local\Temp\ccmXy7tC.s:161    .text.dragonfly_get_random_qr_qnr:0000000000000008 .L0 
C:\Users\stapi\AppData\Local\Temp\ccmXy7tC.s:163    .text.dragonfly_get_random_qr_qnr:0000000000000008 .L0 
C:\Users\stapi\AppData\Local\Temp\ccmXy7tC.s:164    .text.dragonfly_get_random_qr_qnr:0000000000000008 .L0 
C:\Users\stapi\AppData\Local\Temp\ccmXy7tC.s:166    .text.dragonfly_get_random_qr_qnr:000000000000000c .L0 
C:\Users\stapi\AppData\Local\Temp\ccmXy7tC.s:170    .text.dragonfly_get_random_qr_qnr:0000000000000012 .L0 
C:\Users\stapi\AppData\Local\Temp\ccmXy7tC.s:172    .text.dragonfly_get_random_qr_qnr:0000000000000016 .L0 
C:\Users\stapi\AppData\Local\Temp\ccmXy7tC.s:174    .text.dragonfly_get_random_qr_qnr:0000000000000016 .L0 
C:\Users\stapi\AppData\Local\Temp\ccmXy7tC.s:175    .text.dragonfly_get_random_qr_qnr:0000000000000016 .L0 
C:\Users\stapi\AppData\Local\Temp\ccmXy7tC.s:177    .text.dragonfly_get_random_qr_qnr:0000000000000018 .L0 
C:\Users\stapi\AppData\Local\Temp\ccmXy7tC.s:181    .text.dragonfly_get_random_qr_qnr:000000000000001a .L0 
C:\Users\stapi\AppData\Local\Temp\ccmXy7tC.s:182    .text.dragonfly_get_random_qr_qnr:000000000000001a .L0 
C:\Users\stapi\AppData\Local\Temp\ccmXy7tC.s:183    .text.dragonfly_get_random_qr_qnr:000000000000001a .L0 
C:\Users\stapi\AppData\Local\Temp\ccmXy7tC.s:184    .text.dragonfly_get_random_qr_qnr:000000000000001a .L0 
C:\Users\stapi\AppData\Local\Temp\ccmXy7tC.s:189    .text.dragonfly_get_random_qr_qnr:0000000000000024 .L0 
C:\Users\stapi\AppData\Local\Temp\ccmXy7tC.s:190    .text.dragonfly_get_random_qr_qnr:0000000000000024 .L0 
C:\Users\stapi\AppData\Local\Temp\ccmXy7tC.s:192    .text.dragonfly_get_random_qr_qnr:0000000000000026 .L0 
C:\Users\stapi\AppData\Local\Temp\ccmXy7tC.s:196    .text.dragonfly_get_random_qr_qnr:0000000000000030 .L0 
C:\Users\stapi\AppData\Local\Temp\ccmXy7tC.s:199    .text.dragonfly_get_random_qr_qnr:0000000000000034 .L0 
C:\Users\stapi\AppData\Local\Temp\ccmXy7tC.s:206    .text.dragonfly_get_random_qr_qnr:0000000000000040 .L0 
C:\Users\stapi\AppData\Local\Temp\ccmXy7tC.s:207    .text.dragonfly_get_random_qr_qnr:0000000000000040 .L0 
C:\Users\stapi\AppData\Local\Temp\ccmXy7tC.s:208    .text.dragonfly_get_random_qr_qnr:0000000000000040 .L0 
C:\Users\stapi\AppData\Local\Temp\ccmXy7tC.s:210    .text.dragonfly_get_random_qr_qnr:0000000000000042 .L0 
C:\Users\stapi\AppData\Local\Temp\ccmXy7tC.s:212    .text.dragonfly_get_random_qr_qnr:0000000000000044 .L0 
C:\Users\stapi\AppData\Local\Temp\ccmXy7tC.s:214    .text.dragonfly_get_random_qr_qnr:0000000000000046 .L0 
C:\Users\stapi\AppData\Local\Temp\ccmXy7tC.s:216    .text.dragonfly_get_random_qr_qnr:0000000000000048 .L0 
C:\Users\stapi\AppData\Local\Temp\ccmXy7tC.s:219    .text.dragonfly_get_random_qr_qnr:000000000000004a .L0 
C:\Users\stapi\AppData\Local\Temp\ccmXy7tC.s:223    .text.dragonfly_get_random_qr_qnr:0000000000000054 .L0 
C:\Users\stapi\AppData\Local\Temp\ccmXy7tC.s:228    .text.dragonfly_get_random_qr_qnr:0000000000000060 .L0 
C:\Users\stapi\AppData\Local\Temp\ccmXy7tC.s:229    .text.dragonfly_get_random_qr_qnr:0000000000000060 .L0 
C:\Users\stapi\AppData\Local\Temp\ccmXy7tC.s:231    .text.dragonfly_get_random_qr_qnr:0000000000000064 .L0 
C:\Users\stapi\AppData\Local\Temp\ccmXy7tC.s:233    .text.dragonfly_get_random_qr_qnr:0000000000000068 .L0 
C:\Users\stapi\AppData\Local\Temp\ccmXy7tC.s:234    .text.dragonfly_get_random_qr_qnr:0000000000000068 .L0 
C:\Users\stapi\AppData\Local\Temp\ccmXy7tC.s:237    .text.dragonfly_get_random_qr_qnr:000000000000006a .L0 
C:\Users\stapi\AppData\Local\Temp\ccmXy7tC.s:239    .text.dragonfly_get_random_qr_qnr:0000000000000074 .L0 
C:\Users\stapi\AppData\Local\Temp\ccmXy7tC.s:240    .text.dragonfly_get_random_qr_qnr:0000000000000074 .L0 
C:\Users\stapi\AppData\Local\Temp\ccmXy7tC.s:241    .text.dragonfly_get_random_qr_qnr:0000000000000074 .L0 
C:\Users\stapi\AppData\Local\Temp\ccmXy7tC.s:242    .text.dragonfly_get_random_qr_qnr:0000000000000074 .L0 
C:\Users\stapi\AppData\Local\Temp\ccmXy7tC.s:243    .text.dragonfly_get_random_qr_qnr:0000000000000074 .L0 
C:\Users\stapi\AppData\Local\Temp\ccmXy7tC.s:244    .text.dragonfly_get_random_qr_qnr:0000000000000074 .L0 
C:\Users\stapi\AppData\Local\Temp\ccmXy7tC.s:245    .text.dragonfly_get_random_qr_qnr:0000000000000074 .L0 
C:\Users\stapi\AppData\Local\Temp\ccmXy7tC.s:246    .text.dragonfly_get_random_qr_qnr:0000000000000074 .L0 
C:\Users\stapi\AppData\Local\Temp\ccmXy7tC.s:247    .text.dragonfly_get_random_qr_qnr:0000000000000074 .L0 
C:\Users\stapi\AppData\Local\Temp\ccmXy7tC.s:249    .text.dragonfly_get_random_qr_qnr:0000000000000074 .L0 
C:\Users\stapi\AppData\Local\Temp\ccmXy7tC.s:252    .text.dragonfly_get_random_qr_qnr:0000000000000074 .L0 
C:\Users\stapi\AppData\Local\Temp\ccmXy7tC.s:253    .text.dragonfly_get_random_qr_qnr:0000000000000074 .L0 
C:\Users\stapi\AppData\Local\Temp\ccmXy7tC.s:258    .text.dragonfly_get_random_qr_qnr:0000000000000080 .L0 
C:\Users\stapi\AppData\Local\Temp\ccmXy7tC.s:259    .text.dragonfly_get_random_qr_qnr:0000000000000080 .L0 
C:\Users\stapi\AppData\Local\Temp\ccmXy7tC.s:261    .text.dragonfly_get_random_qr_qnr:0000000000000084 .L0 
C:\Users\stapi\AppData\Local\Temp\ccmXy7tC.s:264    .text.dragonfly_get_random_qr_qnr:0000000000000088 .L0 
C:\Users\stapi\AppData\Local\Temp\ccmXy7tC.s:265    .text.dragonfly_get_random_qr_qnr:0000000000000088 .L0 
C:\Users\stapi\AppData\Local\Temp\ccmXy7tC.s:270    .text.dragonfly_get_random_qr_qnr:000000000000008c .L0 
C:\Users\stapi\AppData\Local\Temp\ccmXy7tC.s:271    .text.dragonfly_get_random_qr_qnr:000000000000008c .L0 
C:\Users\stapi\AppData\Local\Temp\ccmXy7tC.s:278    .text.dragonfly_get_random_qr_qnr:0000000000000092 .L0 
C:\Users\stapi\AppData\Local\Temp\ccmXy7tC.s:279    .text.dragonfly_get_random_qr_qnr:0000000000000092 .L0 
C:\Users\stapi\AppData\Local\Temp\ccmXy7tC.s:281    .text.dragonfly_get_random_qr_qnr:0000000000000096 .L0 
C:\Users\stapi\AppData\Local\Temp\ccmXy7tC.s:284    .text.dragonfly_get_random_qr_qnr:000000000000009a .L0 
C:\Users\stapi\AppData\Local\Temp\ccmXy7tC.s:285    .text.dragonfly_get_random_qr_qnr:000000000000009a .L0 
C:\Users\stapi\AppData\Local\Temp\ccmXy7tC.s:290    .text.dragonfly_get_random_qr_qnr:000000000000009e .L0 
C:\Users\stapi\AppData\Local\Temp\ccmXy7tC.s:297    .text.dragonfly_get_random_qr_qnr:00000000000000a4 .L0 
C:\Users\stapi\AppData\Local\Temp\ccmXy7tC.s:304    .text.dragonfly_get_random_qr_qnr:00000000000000b2 .L0 
C:\Users\stapi\AppData\Local\Temp\ccmXy7tC.s:315    .text.dragonfly_is_quadratic_residue_blind:0000000000000000 dragonfly_is_quadratic_residue_blind
C:\Users\stapi\AppData\Local\Temp\ccmXy7tC.s:318    .text.dragonfly_is_quadratic_residue_blind:0000000000000000 .L0 
C:\Users\stapi\AppData\Local\Temp\ccmXy7tC.s:320    .text.dragonfly_is_quadratic_residue_blind:0000000000000000 .L0 
C:\Users\stapi\AppData\Local\Temp\ccmXy7tC.s:321    .text.dragonfly_is_quadratic_residue_blind:0000000000000008 .L0 
C:\Users\stapi\AppData\Local\Temp\ccmXy7tC.s:322    .text.dragonfly_is_quadratic_residue_blind:0000000000000008 .L0 
C:\Users\stapi\AppData\Local\Temp\ccmXy7tC.s:323    .text.dragonfly_is_quadratic_residue_blind:0000000000000008 .L0 
C:\Users\stapi\AppData\Local\Temp\ccmXy7tC.s:324    .text.dragonfly_is_quadratic_residue_blind:0000000000000008 .L0 
C:\Users\stapi\AppData\Local\Temp\ccmXy7tC.s:325    .text.dragonfly_is_quadratic_residue_blind:0000000000000008 .L0 
C:\Users\stapi\AppData\Local\Temp\ccmXy7tC.s:326    .text.dragonfly_is_quadratic_residue_blind:0000000000000008 .L0 
C:\Users\stapi\AppData\Local\Temp\ccmXy7tC.s:327    .text.dragonfly_is_quadratic_residue_blind:0000000000000008 .L0 
C:\Users\stapi\AppData\Local\Temp\ccmXy7tC.s:328    .text.dragonfly_is_quadratic_residue_blind:0000000000000008 .L0 
C:\Users\stapi\AppData\Local\Temp\ccmXy7tC.s:329    .text.dragonfly_is_quadratic_residue_blind:0000000000000008 .L0 
C:\Users\stapi\AppData\Local\Temp\ccmXy7tC.s:330    .text.dragonfly_is_quadratic_residue_blind:0000000000000008 .L0 
C:\Users\stapi\AppData\Local\Temp\ccmXy7tC.s:333    .text.dragonfly_is_quadratic_residue_blind:0000000000000008 .L0 
C:\Users\stapi\AppData\Local\Temp\ccmXy7tC.s:334    .text.dragonfly_is_quadratic_residue_blind:0000000000000008 .L0 
C:\Users\stapi\AppData\Local\Temp\ccmXy7tC.s:335    .text.dragonfly_is_quadratic_residue_blind:0000000000000008 .L0 
C:\Users\stapi\AppData\Local\Temp\ccmXy7tC.s:336    .text.dragonfly_is_quadratic_residue_blind:0000000000000008 .L0 
C:\Users\stapi\AppData\Local\Temp\ccmXy7tC.s:337    .text.dragonfly_is_quadratic_residue_blind:0000000000000008 .L0 
C:\Users\stapi\AppData\Local\Temp\ccmXy7tC.s:338    .text.dragonfly_is_quadratic_residue_blind:0000000000000008 .L0 
C:\Users\stapi\AppData\Local\Temp\ccmXy7tC.s:339    .text.dragonfly_is_quadratic_residue_blind:0000000000000008 .L0 
C:\Users\stapi\AppData\Local\Temp\ccmXy7tC.s:340    .text.dragonfly_is_quadratic_residue_blind:0000000000000008 .L0 
C:\Users\stapi\AppData\Local\Temp\ccmXy7tC.s:341    .text.dragonfly_is_quadratic_residue_blind:000000000000000a .L0 
C:\Users\stapi\AppData\Local\Temp\ccmXy7tC.s:343    .text.dragonfly_is_quadratic_residue_blind:000000000000000a .L0 
C:\Users\stapi\AppData\Local\Temp\ccmXy7tC.s:348    .text.dragonfly_is_quadratic_residue_blind:0000000000000012 .L0 
C:\Users\stapi\AppData\Local\Temp\ccmXy7tC.s:353    .text.dragonfly_is_quadratic_residue_blind:000000000000001c .L0 
C:\Users\stapi\AppData\Local\Temp\ccmXy7tC.s:354    .text.dragonfly_is_quadratic_residue_blind:000000000000001c .L0 
C:\Users\stapi\AppData\Local\Temp\ccmXy7tC.s:363    .text.dragonfly_is_quadratic_residue_blind:0000000000000028 .L0 
C:\Users\stapi\AppData\Local\Temp\ccmXy7tC.s:364    .text.dragonfly_is_quadratic_residue_blind:0000000000000028 .L0 
C:\Users\stapi\AppData\Local\Temp\ccmXy7tC.s:365    .text.dragonfly_is_quadratic_residue_blind:0000000000000028 .L0 
C:\Users\stapi\AppData\Local\Temp\ccmXy7tC.s:366    .text.dragonfly_is_quadratic_residue_blind:0000000000000028 .L0 
C:\Users\stapi\AppData\Local\Temp\ccmXy7tC.s:371    .text.dragonfly_is_quadratic_residue_blind:0000000000000032 .L0 
C:\Users\stapi\AppData\Local\Temp\ccmXy7tC.s:372    .text.dragonfly_is_quadratic_residue_blind:0000000000000032 .L0 
C:\Users\stapi\AppData\Local\Temp\ccmXy7tC.s:377    .text.dragonfly_is_quadratic_residue_blind:000000000000003c .L0 
C:\Users\stapi\AppData\Local\Temp\ccmXy7tC.s:378    .text.dragonfly_is_quadratic_residue_blind:000000000000003c .L0 
C:\Users\stapi\AppData\Local\Temp\ccmXy7tC.s:387    .text.dragonfly_is_quadratic_residue_blind:0000000000000050 .L0 
C:\Users\stapi\AppData\Local\Temp\ccmXy7tC.s:388    .text.dragonfly_is_quadratic_residue_blind:0000000000000050 .L0 
C:\Users\stapi\AppData\Local\Temp\ccmXy7tC.s:391    .text.dragonfly_is_quadratic_residue_blind:0000000000000052 .L0 
C:\Users\stapi\AppData\Local\Temp\ccmXy7tC.s:396    .text.dragonfly_is_quadratic_residue_blind:000000000000005e .L0 
C:\Users\stapi\AppData\Local\Temp\ccmXy7tC.s:397    .text.dragonfly_is_quadratic_residue_blind:000000000000005e .L0 
C:\Users\stapi\AppData\Local\Temp\ccmXy7tC.s:401    .text.dragonfly_is_quadratic_residue_blind:0000000000000060 .L0 
C:\Users\stapi\AppData\Local\Temp\ccmXy7tC.s:406    .text.dragonfly_is_quadratic_residue_blind:000000000000006c .L0 
C:\Users\stapi\AppData\Local\Temp\ccmXy7tC.s:413    .text.dragonfly_is_quadratic_residue_blind:0000000000000078 .L0 
C:\Users\stapi\AppData\Local\Temp\ccmXy7tC.s:414    .text.dragonfly_is_quadratic_residue_blind:0000000000000078 .L0 
C:\Users\stapi\AppData\Local\Temp\ccmXy7tC.s:415    .text.dragonfly_is_quadratic_residue_blind:0000000000000078 .L0 
C:\Users\stapi\AppData\Local\Temp\ccmXy7tC.s:417    .text.dragonfly_is_quadratic_residue_blind:000000000000007a .L0 
C:\Users\stapi\AppData\Local\Temp\ccmXy7tC.s:419    .text.dragonfly_is_quadratic_residue_blind:000000000000007c .L0 
C:\Users\stapi\AppData\Local\Temp\ccmXy7tC.s:420    .text.dragonfly_is_quadratic_residue_blind:000000000000007c .L0 
C:\Users\stapi\AppData\Local\Temp\ccmXy7tC.s:425    .text.dragonfly_is_quadratic_residue_blind:0000000000000086 .L0 
C:\Users\stapi\AppData\Local\Temp\ccmXy7tC.s:426    .text.dragonfly_is_quadratic_residue_blind:0000000000000086 .L0 
C:\Users\stapi\AppData\Local\Temp\ccmXy7tC.s:430    .text.dragonfly_is_quadratic_residue_blind:0000000000000088 .L0 
C:\Users\stapi\AppData\Local\Temp\ccmXy7tC.s:432    .text.dragonfly_is_quadratic_residue_blind:000000000000008a .L0 
C:\Users\stapi\AppData\Local\Temp\ccmXy7tC.s:436    .text.dragonfly_is_quadratic_residue_blind:000000000000008c .L0 
C:\Users\stapi\AppData\Local\Temp\ccmXy7tC.s:441    .text.dragonfly_is_quadratic_residue_blind:0000000000000098 .L0 
C:\Users\stapi\AppData\Local\Temp\ccmXy7tC.s:446    .text.dragonfly_is_quadratic_residue_blind:00000000000000a4 .L0 
C:\Users\stapi\AppData\Local\Temp\ccmXy7tC.s:452    .text.dragonfly_is_quadratic_residue_blind:00000000000000b0 .L0 
C:\Users\stapi\AppData\Local\Temp\ccmXy7tC.s:453    .text.dragonfly_is_quadratic_residue_blind:00000000000000b0 .L0 
C:\Users\stapi\AppData\Local\Temp\ccmXy7tC.s:455    .text.dragonfly_is_quadratic_residue_blind:00000000000000b4 .L0 
C:\Users\stapi\AppData\Local\Temp\ccmXy7tC.s:456    .text.dragonfly_is_quadratic_residue_blind:00000000000000b4 .L0 
C:\Users\stapi\AppData\Local\Temp\ccmXy7tC.s:458    .text.dragonfly_is_quadratic_residue_blind:00000000000000bc .L0 
C:\Users\stapi\AppData\Local\Temp\ccmXy7tC.s:459    .text.dragonfly_is_quadratic_residue_blind:00000000000000bc .L0 
C:\Users\stapi\AppData\Local\Temp\ccmXy7tC.s:460    .text.dragonfly_is_quadratic_residue_blind:00000000000000bc .L0 
C:\Users\stapi\AppData\Local\Temp\ccmXy7tC.s:461    .text.dragonfly_is_quadratic_residue_blind:00000000000000bc .L0 
C:\Users\stapi\AppData\Local\Temp\ccmXy7tC.s:462    .text.dragonfly_is_quadratic_residue_blind:00000000000000bc .L0 
C:\Users\stapi\AppData\Local\Temp\ccmXy7tC.s:463    .text.dragonfly_is_quadratic_residue_blind:00000000000000bc .L0 
C:\Users\stapi\AppData\Local\Temp\ccmXy7tC.s:464    .text.dragonfly_is_quadratic_residue_blind:00000000000000bc .L0 
C:\Users\stapi\AppData\Local\Temp\ccmXy7tC.s:465    .text.dragonfly_is_quadratic_residue_blind:00000000000000bc .L0 
C:\Users\stapi\AppData\Local\Temp\ccmXy7tC.s:466    .text.dragonfly_is_quadratic_residue_blind:00000000000000bc .L0 
C:\Users\stapi\AppData\Local\Temp\ccmXy7tC.s:467    .text.dragonfly_is_quadratic_residue_blind:00000000000000bc .L0 
C:\Users\stapi\AppData\Local\Temp\ccmXy7tC.s:470    .text.dragonfly_is_quadratic_residue_blind:00000000000000bc .L0 
C:\Users\stapi\AppData\Local\Temp\ccmXy7tC.s:474    .text.dragonfly_is_quadratic_residue_blind:00000000000000bc .L0 
C:\Users\stapi\AppData\Local\Temp\ccmXy7tC.s:476    .text.dragonfly_is_quadratic_residue_blind:00000000000000c0 .L0 
C:\Users\stapi\AppData\Local\Temp\ccmXy7tC.s:478    .text.dragonfly_is_quadratic_residue_blind:00000000000000c2 .L0 
C:\Users\stapi\AppData\Local\Temp\ccmXy7tC.s:484    .text.dragonfly_is_quadratic_residue_blind:00000000000000d0 .L0 
C:\Users\stapi\AppData\Local\Temp\ccmXy7tC.s:486    .text.dragonfly_is_quadratic_residue_blind:00000000000000d4 .L0 
C:\Users\stapi\AppData\Local\Temp\ccmXy7tC.s:491    .text.dragonfly_is_quadratic_residue_blind:00000000000000e0 .L0 
C:\Users\stapi\AppData\Local\Temp\ccmXy7tC.s:493    .text.dragonfly_is_quadratic_residue_blind:00000000000000e4 .L0 
C:\Users\stapi\AppData\Local\Temp\ccmXy7tC.s:499    .text.dragonfly_is_quadratic_residue_blind:00000000000000f2 .L0 
C:\Users\stapi\AppData\Local\Temp\ccmXy7tC.s:506    .text.dragonfly_is_quadratic_residue_blind:00000000000000f8 .L0 
C:\Users\stapi\AppData\Local\Temp\ccmXy7tC.s:514    .text.dragonfly_is_quadratic_residue_blind:0000000000000108 .L0 
C:\Users\stapi\AppData\Local\Temp\ccmXy7tC.s:516    .text.dragonfly_is_quadratic_residue_blind:000000000000010c .L0 
C:\Users\stapi\AppData\Local\Temp\ccmXy7tC.s:523    .text.dragonfly_is_quadratic_residue_blind:000000000000011c .L0 
C:\Users\stapi\AppData\Local\Temp\ccmXy7tC.s:525    .text.dragonfly_is_quadratic_residue_blind:0000000000000120 .L0 
C:\Users\stapi\AppData\Local\Temp\ccmXy7tC.s:526    .text.dragonfly_is_quadratic_residue_blind:0000000000000120 .L0 
C:\Users\stapi\AppData\Local\Temp\ccmXy7tC.s:535    .text.dragonfly_is_quadratic_residue_blind:000000000000012a .L0 
C:\Users\stapi\AppData\Local\Temp\ccmXy7tC.s:538    .text.dragonfly_is_quadratic_residue_blind:000000000000012a .L0 
C:\Users\stapi\AppData\Local\Temp\ccmXy7tC.s:539    .text.dragonfly_is_quadratic_residue_blind:000000000000012a .L0 
C:\Users\stapi\AppData\Local\Temp\ccmXy7tC.s:542    .text.dragonfly_is_quadratic_residue_blind:000000000000012e .L0 
C:\Users\stapi\AppData\Local\Temp\ccmXy7tC.s:547    .text.dragonfly_is_quadratic_residue_blind:0000000000000132 .L0 
C:\Users\stapi\AppData\Local\Temp\ccmXy7tC.s:554    .text.dragonfly_is_quadratic_residue_blind:0000000000000136 .L0 
C:\Users\stapi\AppData\Local\Temp\ccmXy7tC.s:559    .text.dragonfly_is_quadratic_residue_blind:000000000000013a .L0 
C:\Users\stapi\AppData\Local\Temp\ccmXy7tC.s:563    .text.dragonfly_is_quadratic_residue_blind:000000000000013c .L0 
C:\Users\stapi\AppData\Local\Temp\ccmXy7tC.s:564    .text.dragonfly_is_quadratic_residue_blind:000000000000013c .L0 
C:\Users\stapi\AppData\Local\Temp\ccmXy7tC.s:569    .text.dragonfly_is_quadratic_residue_blind:0000000000000140 .L0 
C:\Users\stapi\AppData\Local\Temp\ccmXy7tC.s:570    .text.dragonfly_is_quadratic_residue_blind:0000000000000140 .L0 
C:\Users\stapi\AppData\Local\Temp\ccmXy7tC.s:577    .text.dragonfly_is_quadratic_residue_blind:000000000000014e .L0 
C:\Users\stapi\AppData\Local\Temp\ccmXy7tC.s:578    .text.dragonfly_is_quadratic_residue_blind:000000000000014e .L0 
C:\Users\stapi\AppData\Local\Temp\ccmXy7tC.s:580    .text.dragonfly_is_quadratic_residue_blind:0000000000000150 .L0 
C:\Users\stapi\AppData\Local\Temp\ccmXy7tC.s:588    .text.dragonfly_is_quadratic_residue_blind:0000000000000160 .L0 
C:\Users\stapi\AppData\Local\Temp\ccmXy7tC.s:590    .text.dragonfly_is_quadratic_residue_blind:0000000000000162 .L0 
C:\Users\stapi\AppData\Local\Temp\ccmXy7tC.s:593    .text.dragonfly_is_quadratic_residue_blind:0000000000000166 .L0 
C:\Users\stapi\AppData\Local\Temp\ccmXy7tC.s:594    .text.dragonfly_is_quadratic_residue_blind:0000000000000166 .L0 
C:\Users\stapi\AppData\Local\Temp\ccmXy7tC.s:595    .text.dragonfly_is_quadratic_residue_blind:0000000000000166 .L0 
C:\Users\stapi\AppData\Local\Temp\ccmXy7tC.s:596    .text.dragonfly_is_quadratic_residue_blind:0000000000000166 .L0 
C:\Users\stapi\AppData\Local\Temp\ccmXy7tC.s:601    .text.dragonfly_is_quadratic_residue_blind:0000000000000172 .L0 
C:\Users\stapi\AppData\Local\Temp\ccmXy7tC.s:605    .text.dragonfly_is_quadratic_residue_blind:0000000000000178 .L0 
C:\Users\stapi\AppData\Local\Temp\ccmXy7tC.s:606    .text.dragonfly_is_quadratic_residue_blind:0000000000000178 .L0 
C:\Users\stapi\AppData\Local\Temp\ccmXy7tC.s:607    .text.dragonfly_is_quadratic_residue_blind:0000000000000178 .L0 
C:\Users\stapi\AppData\Local\Temp\ccmXy7tC.s:609    .text.dragonfly_is_quadratic_residue_blind:000000000000017c .L0 
C:\Users\stapi\AppData\Local\Temp\ccmXy7tC.s:616    .text.dragonfly_is_quadratic_residue_blind:0000000000000180 .L0 
C:\Users\stapi\AppData\Local\Temp\ccmXy7tC.s:621    .text.dragonfly_is_quadratic_residue_blind:0000000000000180 .L0 
C:\Users\stapi\AppData\Local\Temp\ccmXy7tC.s:622    .text.dragonfly_is_quadratic_residue_blind:0000000000000180 .L0 
C:\Users\stapi\AppData\Local\Temp\ccmXy7tC.s:625    .text.dragonfly_is_quadratic_residue_blind:0000000000000180 .L0 
C:\Users\stapi\AppData\Local\Temp\ccmXy7tC.s:628    .text.dragonfly_is_quadratic_residue_blind:0000000000000180 .L0 
C:\Users\stapi\AppData\Local\Temp\ccmXy7tC.s:631    .text.dragonfly_is_quadratic_residue_blind:0000000000000180 .L0 
C:\Users\stapi\AppData\Local\Temp\ccmXy7tC.s:632    .text.dragonfly_is_quadratic_residue_blind:0000000000000180 .L0 
C:\Users\stapi\AppData\Local\Temp\ccmXy7tC.s:636    .text.dragonfly_is_quadratic_residue_blind:0000000000000184 .L0 
C:\Users\stapi\AppData\Local\Temp\ccmXy7tC.s:638    .text.dragonfly_is_quadratic_residue_blind:0000000000000186 .L0 
C:\Users\stapi\AppData\Local\Temp\ccmXy7tC.s:649    .text.dragonfly_is_quadratic_residue_blind:000000000000018c .L0 
C:\Users\stapi\AppData\Local\Temp\ccmXy7tC.s:659    .text.dragonfly_is_quadratic_residue_blind:0000000000000190 .L0 
C:\Users\stapi\AppData\Local\Temp\ccmXy7tC.s:660    .text.dragonfly_is_quadratic_residue_blind:0000000000000190 .L0 
C:\Users\stapi\AppData\Local\Temp\ccmXy7tC.s:666    .text.dragonfly_is_quadratic_residue_blind:0000000000000198 .L0 
C:\Users\stapi\AppData\Local\Temp\ccmXy7tC.s:669    .text.dragonfly_is_quadratic_residue_blind:0000000000000198 .L0 
C:\Users\stapi\AppData\Local\Temp\ccmXy7tC.s:670    .text.dragonfly_is_quadratic_residue_blind:0000000000000198 .L0 
C:\Users\stapi\AppData\Local\Temp\ccmXy7tC.s:674    .text.dragonfly_is_quadratic_residue_blind:000000000000019e .L0 
C:\Users\stapi\AppData\Local\Temp\ccmXy7tC.s:677    .text.dragonfly_is_quadratic_residue_blind:00000000000001a2 .L0 
C:\Users\stapi\AppData\Local\Temp\ccmXy7tC.s:679    .text.dragonfly_is_quadratic_residue_blind:00000000000001a6 .L0 
C:\Users\stapi\AppData\Local\Temp\ccmXy7tC.s:682    .text.dragonfly_is_quadratic_residue_blind:00000000000001a8 .L0 
C:\Users\stapi\AppData\Local\Temp\ccmXy7tC.s:688    .text.dragonfly_is_quadratic_residue_blind:00000000000001b2 .L0 
C:\Users\stapi\AppData\Local\Temp\ccmXy7tC.s:691    .text.dragonfly_is_quadratic_residue_blind:00000000000001b4 .L0 
C:\Users\stapi\AppData\Local\Temp\ccmXy7tC.s:702    .text.dragonfly_generate_scalar:0000000000000000 dragonfly_generate_scalar
C:\Users\stapi\AppData\Local\Temp\ccmXy7tC.s:705    .text.dragonfly_generate_scalar:0000000000000000 .L0 
C:\Users\stapi\AppData\Local\Temp\ccmXy7tC.s:707    .text.dragonfly_generate_scalar:0000000000000000 .L0 
C:\Users\stapi\AppData\Local\Temp\ccmXy7tC.s:708    .text.dragonfly_generate_scalar:0000000000000008 .L0 
C:\Users\stapi\AppData\Local\Temp\ccmXy7tC.s:709    .text.dragonfly_generate_scalar:0000000000000008 .L0 
C:\Users\stapi\AppData\Local\Temp\ccmXy7tC.s:710    .text.dragonfly_generate_scalar:0000000000000008 .L0 
C:\Users\stapi\AppData\Local\Temp\ccmXy7tC.s:711    .text.dragonfly_generate_scalar:0000000000000008 .L0 
C:\Users\stapi\AppData\Local\Temp\ccmXy7tC.s:712    .text.dragonfly_generate_scalar:0000000000000008 .L0 
C:\Users\stapi\AppData\Local\Temp\ccmXy7tC.s:713    .text.dragonfly_generate_scalar:0000000000000008 .L0 
C:\Users\stapi\AppData\Local\Temp\ccmXy7tC.s:714    .text.dragonfly_generate_scalar:0000000000000008 .L0 
C:\Users\stapi\AppData\Local\Temp\ccmXy7tC.s:716    .text.dragonfly_generate_scalar:0000000000000008 .L0 
C:\Users\stapi\AppData\Local\Temp\ccmXy7tC.s:718    .text.dragonfly_generate_scalar:0000000000000008 .L0 
C:\Users\stapi\AppData\Local\Temp\ccmXy7tC.s:719    .text.dragonfly_generate_scalar:0000000000000008 .L0 
C:\Users\stapi\AppData\Local\Temp\ccmXy7tC.s:720    .text.dragonfly_generate_scalar:0000000000000008 .L0 
C:\Users\stapi\AppData\Local\Temp\ccmXy7tC.s:728    .text.dragonfly_generate_scalar:0000000000000014 .L0 
C:\Users\stapi\AppData\Local\Temp\ccmXy7tC.s:729    .text.dragonfly_generate_scalar:0000000000000014 .L0 
C:\Users\stapi\AppData\Local\Temp\ccmXy7tC.s:734    .text.dragonfly_generate_scalar:0000000000000020 .L0 
C:\Users\stapi\AppData\Local\Temp\ccmXy7tC.s:738    .text.dragonfly_generate_scalar:0000000000000022 .L0 
C:\Users\stapi\AppData\Local\Temp\ccmXy7tC.s:739    .text.dragonfly_generate_scalar:0000000000000022 .L0 
C:\Users\stapi\AppData\Local\Temp\ccmXy7tC.s:740    .text.dragonfly_generate_scalar:0000000000000022 .L0 
C:\Users\stapi\AppData\Local\Temp\ccmXy7tC.s:744    .text.dragonfly_generate_scalar:0000000000000028 .L0 
C:\Users\stapi\AppData\Local\Temp\ccmXy7tC.s:750    .text.dragonfly_generate_scalar:000000000000003a .L0 
C:\Users\stapi\AppData\Local\Temp\ccmXy7tC.s:751    .text.dragonfly_generate_scalar:000000000000003a .L0 
C:\Users\stapi\AppData\Local\Temp\ccmXy7tC.s:755    .text.dragonfly_generate_scalar:000000000000003e .L0 
C:\Users\stapi\AppData\Local\Temp\ccmXy7tC.s:760    .text.dragonfly_generate_scalar:000000000000004a .L0 
C:\Users\stapi\AppData\Local\Temp\ccmXy7tC.s:762    .text.dragonfly_generate_scalar:000000000000004c .L0 
C:\Users\stapi\AppData\Local\Temp\ccmXy7tC.s:768    .text.dragonfly_generate_scalar:000000000000005a .L0 
C:\Users\stapi\AppData\Local\Temp\ccmXy7tC.s:770    .text.dragonfly_generate_scalar:000000000000005c .L0 
C:\Users\stapi\AppData\Local\Temp\ccmXy7tC.s:776    .text.dragonfly_generate_scalar:000000000000006a .L0 
C:\Users\stapi\AppData\Local\Temp\ccmXy7tC.s:778    .text.dragonfly_generate_scalar:000000000000006c .L0 
C:\Users\stapi\AppData\Local\Temp\ccmXy7tC.s:782    .text.dragonfly_generate_scalar:0000000000000076 .L0 
C:\Users\stapi\AppData\Local\Temp\ccmXy7tC.s:784    .text.dragonfly_generate_scalar:0000000000000078 .L0 
C:\Users\stapi\AppData\Local\Temp\ccmXy7tC.s:788    .text.dragonfly_generate_scalar:0000000000000082 .L0 
C:\Users\stapi\AppData\Local\Temp\ccmXy7tC.s:792    .text.dragonfly_generate_scalar:0000000000000084 .L0 
C:\Users\stapi\AppData\Local\Temp\ccmXy7tC.s:793    .text.dragonfly_generate_scalar:000000000000008c .L0 
C:\Users\stapi\AppData\Local\Temp\ccmXy7tC.s:794    .text.dragonfly_generate_scalar:000000000000008c .L0 
C:\Users\stapi\AppData\Local\Temp\ccmXy7tC.s:795    .text.dragonfly_generate_scalar:000000000000008c .L0 
C:\Users\stapi\AppData\Local\Temp\ccmXy7tC.s:796    .text.dragonfly_generate_scalar:000000000000008c .L0 
C:\Users\stapi\AppData\Local\Temp\ccmXy7tC.s:797    .text.dragonfly_generate_scalar:000000000000008c .L0 
C:\Users\stapi\AppData\Local\Temp\ccmXy7tC.s:798    .text.dragonfly_generate_scalar:000000000000008c .L0 
C:\Users\stapi\AppData\Local\Temp\ccmXy7tC.s:799    .text.dragonfly_generate_scalar:000000000000008c .L0 
C:\Users\stapi\AppData\Local\Temp\ccmXy7tC.s:800    .text.dragonfly_generate_scalar:000000000000008c .L0 
C:\Users\stapi\AppData\Local\Temp\ccmXy7tC.s:807    .text.dragonfly_sqrt:0000000000000000 dragonfly_sqrt
C:\Users\stapi\AppData\Local\Temp\ccmXy7tC.s:810    .text.dragonfly_sqrt:0000000000000000 .L0 
C:\Users\stapi\AppData\Local\Temp\ccmXy7tC.s:812    .text.dragonfly_sqrt:0000000000000000 .L0 
C:\Users\stapi\AppData\Local\Temp\ccmXy7tC.s:813    .text.dragonfly_sqrt:0000000000000008 .L0 
C:\Users\stapi\AppData\Local\Temp\ccmXy7tC.s:814    .text.dragonfly_sqrt:0000000000000008 .L0 
C:\Users\stapi\AppData\Local\Temp\ccmXy7tC.s:815    .text.dragonfly_sqrt:0000000000000008 .L0 
C:\Users\stapi\AppData\Local\Temp\ccmXy7tC.s:816    .text.dragonfly_sqrt:0000000000000008 .L0 
C:\Users\stapi\AppData\Local\Temp\ccmXy7tC.s:817    .text.dragonfly_sqrt:0000000000000008 .L0 
C:\Users\stapi\AppData\Local\Temp\ccmXy7tC.s:818    .text.dragonfly_sqrt:0000000000000008 .L0 
C:\Users\stapi\AppData\Local\Temp\ccmXy7tC.s:819    .text.dragonfly_sqrt:0000000000000008 .L0 
C:\Users\stapi\AppData\Local\Temp\ccmXy7tC.s:820    .text.dragonfly_sqrt:0000000000000008 .L0 
C:\Users\stapi\AppData\Local\Temp\ccmXy7tC.s:822    .text.dragonfly_sqrt:0000000000000008 .L0 
C:\Users\stapi\AppData\Local\Temp\ccmXy7tC.s:823    .text.dragonfly_sqrt:0000000000000008 .L0 
C:\Users\stapi\AppData\Local\Temp\ccmXy7tC.s:825    .text.dragonfly_sqrt:0000000000000008 .L0 
C:\Users\stapi\AppData\Local\Temp\ccmXy7tC.s:826    .text.dragonfly_sqrt:0000000000000008 .L0 
C:\Users\stapi\AppData\Local\Temp\ccmXy7tC.s:827    .text.dragonfly_sqrt:0000000000000008 .L0 
C:\Users\stapi\AppData\Local\Temp\ccmXy7tC.s:828    .text.dragonfly_sqrt:0000000000000008 .L0 
C:\Users\stapi\AppData\Local\Temp\ccmXy7tC.s:829    .text.dragonfly_sqrt:0000000000000008 .L0 
C:\Users\stapi\AppData\Local\Temp\ccmXy7tC.s:830    .text.dragonfly_sqrt:000000000000000a .L0 
C:\Users\stapi\AppData\Local\Temp\ccmXy7tC.s:832    .text.dragonfly_sqrt:000000000000000a .L0 
C:\Users\stapi\AppData\Local\Temp\ccmXy7tC.s:836    .text.dragonfly_sqrt:0000000000000010 .L0 
C:\Users\stapi\AppData\Local\Temp\ccmXy7tC.s:841    .text.dragonfly_sqrt:000000000000001a .L0 
C:\Users\stapi\AppData\Local\Temp\ccmXy7tC.s:842    .text.dragonfly_sqrt:000000000000001a .L0 
C:\Users\stapi\AppData\Local\Temp\ccmXy7tC.s:849    .text.dragonfly_sqrt:0000000000000026 .L0 
C:\Users\stapi\AppData\Local\Temp\ccmXy7tC.s:850    .text.dragonfly_sqrt:0000000000000026 .L0 
C:\Users\stapi\AppData\Local\Temp\ccmXy7tC.s:855    .text.dragonfly_sqrt:0000000000000030 .L0 
C:\Users\stapi\AppData\Local\Temp\ccmXy7tC.s:856    .text.dragonfly_sqrt:0000000000000030 .L0 
C:\Users\stapi\AppData\Local\Temp\ccmXy7tC.s:862    .text.dragonfly_sqrt:000000000000003c .L0 
C:\Users\stapi\AppData\Local\Temp\ccmXy7tC.s:863    .text.dragonfly_sqrt:000000000000003c .L0 
C:\Users\stapi\AppData\Local\Temp\ccmXy7tC.s:871    .text.dragonfly_sqrt:000000000000004e .L0 
C:\Users\stapi\AppData\Local\Temp\ccmXy7tC.s:875    .text.dragonfly_sqrt:0000000000000052 .L0 
C:\Users\stapi\AppData\Local\Temp\ccmXy7tC.s:879    .text.dragonfly_sqrt:0000000000000054 .L0 
C:\Users\stapi\AppData\Local\Temp\ccmXy7tC.s:884    .text.dragonfly_sqrt:0000000000000060 .L0 
C:\Users\stapi\AppData\Local\Temp\ccmXy7tC.s:889    .text.dragonfly_sqrt:000000000000006c .L0 
C:\Users\stapi\AppData\Local\Temp\ccmXy7tC.s:890    .text.dragonfly_sqrt:000000000000006c .L0 
C:\Users\stapi\AppData\Local\Temp\ccmXy7tC.s:892    .text.dragonfly_sqrt:0000000000000070 .L0 
C:\Users\stapi\AppData\Local\Temp\ccmXy7tC.s:893    .text.dragonfly_sqrt:0000000000000070 .L0 
C:\Users\stapi\AppData\Local\Temp\ccmXy7tC.s:895    .text.dragonfly_sqrt:0000000000000078 .L0 
C:\Users\stapi\AppData\Local\Temp\ccmXy7tC.s:896    .text.dragonfly_sqrt:0000000000000078 .L0 
C:\Users\stapi\AppData\Local\Temp\ccmXy7tC.s:897    .text.dragonfly_sqrt:0000000000000078 .L0 
C:\Users\stapi\AppData\Local\Temp\ccmXy7tC.s:898    .text.dragonfly_sqrt:0000000000000078 .L0 
C:\Users\stapi\AppData\Local\Temp\ccmXy7tC.s:899    .text.dragonfly_sqrt:0000000000000078 .L0 
C:\Users\stapi\AppData\Local\Temp\ccmXy7tC.s:900    .text.dragonfly_sqrt:0000000000000078 .L0 
C:\Users\stapi\AppData\Local\Temp\ccmXy7tC.s:901    .text.dragonfly_sqrt:0000000000000078 .L0 
C:\Users\stapi\AppData\Local\Temp\ccmXy7tC.s:902    .text.dragonfly_sqrt:0000000000000078 .L0 
C:\Users\stapi\AppData\Local\Temp\ccmXy7tC.s:905    .text.dragonfly_sqrt:0000000000000078 .L0 
C:\Users\stapi\AppData\Local\Temp\ccmXy7tC.s:907    .text.dragonfly_sqrt:0000000000000078 .L0 
C:\Users\stapi\AppData\Local\Temp\ccmXy7tC.s:911    .text.dragonfly_sqrt:000000000000007c .L0 
C:\Users\stapi\AppData\Local\Temp\ccmXy7tC.s:916    .text.dragonfly_sqrt:0000000000000088 .L0 
C:\Users\stapi\AppData\Local\Temp\ccmXy7tC.s:918    .text.dragonfly_sqrt:000000000000008a .L0 
C:\Users\stapi\AppData\Local\Temp\ccmXy7tC.s:920    .text.dragonfly_sqrt:000000000000008e .L0 
C:\Users\stapi\AppData\Local\Temp\ccmXy7tC.s:926    .text.dragonfly_sqrt:000000000000009c .L0 
C:\Users\stapi\AppData\Local\Temp\ccmXy7tC.s:928    .text.dragonfly_sqrt:00000000000000a0 .L0 
C:\Users\stapi\AppData\Local\Temp\ccmXy7tC.s:934    .text.dragonfly_sqrt:00000000000000ae .L0 
C:\Users\stapi\AppData\Local\Temp\ccmXy7tC.s:936    .text.dragonfly_sqrt:00000000000000b2 .L0 
C:\Users\stapi\AppData\Local\Temp\ccmXy7tC.s:943    .text.dragonfly_sqrt:00000000000000c2 .L0 
C:\Users\stapi\AppData\Local\Temp\ccmXy7tC.s:945    .text.dragonfly_sqrt:00000000000000c8 .L0 
C:\Users\stapi\AppData\Local\Temp\ccmXy7tC.s:63     .text.dragonfly_get_rand_2_to_r_1:000000000000003a .L0 
C:\Users\stapi\AppData\Local\Temp\ccmXy7tC.s:102    .text.dragonfly_suitable_group:000000000000001c .L0 
C:\Users\stapi\AppData\Local\Temp\ccmXy7tC.s:144    .text.dragonfly_min_pwe_loop_iter:000000000000002c .L0 
C:\Users\stapi\AppData\Local\Temp\ccmXy7tC.s:307    .text.dragonfly_get_random_qr_qnr:00000000000000b2 .L0 
C:\Users\stapi\AppData\Local\Temp\ccmXy7tC.s:694    .text.dragonfly_is_quadratic_residue_blind:00000000000001b4 .L0 
C:\Users\stapi\AppData\Local\Temp\ccmXy7tC.s:803    .text.dragonfly_generate_scalar:000000000000008c .L0 
C:\Users\stapi\AppData\Local\Temp\ccmXy7tC.s:948    .text.dragonfly_sqrt:00000000000000c8 .L0 
                     .debug_frame:0000000000000000 .L0 
C:\Users\stapi\AppData\Local\Temp\ccmXy7tC.s:39     .text.dragonfly_get_rand_2_to_r_1:000000000000001e .L2
C:\Users\stapi\AppData\Local\Temp\ccmXy7tC.s:30     .text.dragonfly_get_rand_2_to_r_1:0000000000000014 .L4
C:\Users\stapi\AppData\Local\Temp\ccmXy7tC.s:32     .text.dragonfly_get_rand_2_to_r_1:0000000000000016 .L1
C:\Users\stapi\AppData\Local\Temp\ccmXy7tC.s:92     .text.dragonfly_suitable_group:0000000000000018 .L8
C:\Users\stapi\AppData\Local\Temp\ccmXy7tC.s:96     .text.dragonfly_suitable_group:000000000000001a .L6
C:\Users\stapi\AppData\Local\Temp\ccmXy7tC.s:135    .text.dragonfly_min_pwe_loop_iter:0000000000000026 .L12
C:\Users\stapi\AppData\Local\Temp\ccmXy7tC.s:138    .text.dragonfly_min_pwe_loop_iter:000000000000002a .L10
C:\Users\stapi\AppData\Local\Temp\ccmXy7tC.s:197    .text.dragonfly_get_random_qr_qnr:0000000000000034 .L18
C:\Users\stapi\AppData\Local\Temp\ccmXy7tC.s:248    .text.dragonfly_get_random_qr_qnr:0000000000000074 .L19
C:\Users\stapi\AppData\Local\Temp\ccmXy7tC.s:217    .text.dragonfly_get_random_qr_qnr:000000000000004a .L26
C:\Users\stapi\AppData\Local\Temp\ccmXy7tC.s:235    .text.dragonfly_get_random_qr_qnr:000000000000006a .L16
C:\Users\stapi\AppData\Local\Temp\ccmXy7tC.s:275    .text.dragonfly_get_random_qr_qnr:0000000000000092 .L21
C:\Users\stapi\AppData\Local\Temp\ccmXy7tC.s:294    .text.dragonfly_get_random_qr_qnr:00000000000000a4 .L22
C:\Users\stapi\AppData\Local\Temp\ccmXy7tC.s:179    .text.dragonfly_get_random_qr_qnr:000000000000001a .L17
C:\Users\stapi\AppData\Local\Temp\ccmXy7tC.s:204    .text.dragonfly_get_random_qr_qnr:0000000000000040 .L20
C:\Users\stapi\AppData\Local\Temp\ccmXy7tC.s:269    .text.dragonfly_get_random_qr_qnr:000000000000008c .L23
C:\Users\stapi\AppData\Local\Temp\ccmXy7tC.s:287    .text.dragonfly_get_random_qr_qnr:000000000000009e .L24
C:\Users\stapi\AppData\Local\Temp\ccmXy7tC.s:309    .rodata.dragonfly_is_quadratic_residue_blind.str1.4:0000000000000000 .LC0
C:\Users\stapi\AppData\Local\Temp\ccmXy7tC.s:469    .text.dragonfly_is_quadratic_residue_blind:00000000000000bc .L43
C:\Users\stapi\AppData\Local\Temp\ccmXy7tC.s:451    .text.dragonfly_is_quadratic_residue_blind:00000000000000b0 .L42
C:\Users\stapi\AppData\Local\Temp\ccmXy7tC.s:502    .text.dragonfly_is_quadratic_residue_blind:00000000000000f8 .L47
C:\Users\stapi\AppData\Local\Temp\ccmXy7tC.s:389    .text.dragonfly_is_quadratic_residue_blind:0000000000000052 .L45
C:\Users\stapi\AppData\Local\Temp\ccmXy7tC.s:399    .text.dragonfly_is_quadratic_residue_blind:0000000000000060 .L44
C:\Users\stapi\AppData\Local\Temp\ccmXy7tC.s:428    .text.dragonfly_is_quadratic_residue_blind:0000000000000088 .L49
C:\Users\stapi\AppData\Local\Temp\ccmXy7tC.s:653    .text.dragonfly_is_quadratic_residue_blind:0000000000000190 .L51
C:\Users\stapi\AppData\Local\Temp\ccmXy7tC.s:434    .text.dragonfly_is_quadratic_residue_blind:000000000000008c .L48
C:\Users\stapi\AppData\Local\Temp\ccmXy7tC.s:560    .text.dragonfly_is_quadratic_residue_blind:000000000000013c .L50
C:\Users\stapi\AppData\Local\Temp\ccmXy7tC.s:696    .rodata.dragonfly_generate_scalar.str1.4:0000000000000000 .LC1
C:\Users\stapi\AppData\Local\Temp\ccmXy7tC.s:753    .text.dragonfly_generate_scalar:000000000000003e .L66
C:\Users\stapi\AppData\Local\Temp\ccmXy7tC.s:726    .text.dragonfly_generate_scalar:0000000000000014 .L67
C:\Users\stapi\AppData\Local\Temp\ccmXy7tC.s:790    .text.dragonfly_generate_scalar:0000000000000084 .L65
C:\Users\stapi\AppData\Local\Temp\ccmXy7tC.s:735    .text.dragonfly_generate_scalar:0000000000000022 .L69
C:\Users\stapi\AppData\Local\Temp\ccmXy7tC.s:904    .text.dragonfly_sqrt:0000000000000078 .L81
C:\Users\stapi\AppData\Local\Temp\ccmXy7tC.s:873    .text.dragonfly_sqrt:0000000000000052 .L83
C:\Users\stapi\AppData\Local\Temp\ccmXy7tC.s:876    .text.dragonfly_sqrt:0000000000000054 .L82
C:\Users\stapi\AppData\Local\Temp\ccmXy7tC.s:2675   .debug_abbrev:0000000000000000 .Ldebug_abbrev0
C:\Users\stapi\AppData\Local\Temp\ccmXy7tC.s:4219   .debug_str:00000000000002ac .LASF71
C:\Users\stapi\AppData\Local\Temp\ccmXy7tC.s:4177   .debug_str:0000000000000073 .LASF72
C:\Users\stapi\AppData\Local\Temp\ccmXy7tC.s:4185   .debug_str:000000000000013b .LASF73
C:\Users\stapi\AppData\Local\Temp\ccmXy7tC.s:4097   .debug_ranges:0000000000000000 .Ldebug_ranges0
C:\Users\stapi\AppData\Local\Temp\ccmXy7tC.s:4163   .debug_line:0000000000000000 .Ldebug_line0
C:\Users\stapi\AppData\Local\Temp\ccmXy7tC.s:4183   .debug_str:0000000000000134 .LASF2
C:\Users\stapi\AppData\Local\Temp\ccmXy7tC.s:4261   .debug_str:00000000000004ae .LASF0
C:\Users\stapi\AppData\Local\Temp\ccmXy7tC.s:4257   .debug_str:000000000000048b .LASF1
C:\Users\stapi\AppData\Local\Temp\ccmXy7tC.s:4237   .debug_str:0000000000000407 .LASF3
C:\Users\stapi\AppData\Local\Temp\ccmXy7tC.s:4247   .debug_str:0000000000000448 .LASF4
C:\Users\stapi\AppData\Local\Temp\ccmXy7tC.s:4205   .debug_str:0000000000000266 .LASF5
C:\Users\stapi\AppData\Local\Temp\ccmXy7tC.s:4273   .debug_str:0000000000000512 .LASF6
C:\Users\stapi\AppData\Local\Temp\ccmXy7tC.s:4233   .debug_str:00000000000003e9 .LASF7
C:\Users\stapi\AppData\Local\Temp\ccmXy7tC.s:4263   .debug_str:00000000000004bb .LASF8
C:\Users\stapi\AppData\Local\Temp\ccmXy7tC.s:4223   .debug_str:00000000000003b9 .LASF9
C:\Users\stapi\AppData\Local\Temp\ccmXy7tC.s:4259   .debug_str:0000000000000497 .LASF10
C:\Users\stapi\AppData\Local\Temp\ccmXy7tC.s:4231   .debug_str:00000000000003e4 .LASF11
C:\Users\stapi\AppData\Local\Temp\ccmXy7tC.s:4211   .debug_str:000000000000028e .LASF12
C:\Users\stapi\AppData\Local\Temp\ccmXy7tC.s:4281   .debug_str:000000000000054c .LASF13
C:\Users\stapi\AppData\Local\Temp\ccmXy7tC.s:4227   .debug_str:00000000000003cc .LASF14
C:\Users\stapi\AppData\Local\Temp\ccmXy7tC.s:4167   .debug_str:000000000000001c .LASF15
C:\Users\stapi\AppData\Local\Temp\ccmXy7tC.s:4229   .debug_str:00000000000003da .LASF16
C:\Users\stapi\AppData\Local\Temp\ccmXy7tC.s:4297   .debug_str:00000000000005d5 .LASF17
C:\Users\stapi\AppData\Local\Temp\ccmXy7tC.s:4199   .debug_str:0000000000000228 .LASF18
C:\Users\stapi\AppData\Local\Temp\ccmXy7tC.s:4279   .debug_str:0000000000000542 .LASF19
C:\Users\stapi\AppData\Local\Temp\ccmXy7tC.s:4271   .debug_str:0000000000000503 .LASF25
C:\Users\stapi\AppData\Local\Temp\ccmXy7tC.s:808    .text.dragonfly_sqrt:0000000000000000 .LFB89
C:\Users\stapi\AppData\Local\Temp\ccmXy7tC.s:946    .text.dragonfly_sqrt:00000000000000c8 .LFE89
C:\Users\stapi\AppData\Local\Temp\ccmXy7tC.s:3258   .debug_loc:0000000000000000 .LLST43
C:\Users\stapi\AppData\Local\Temp\ccmXy7tC.s:3276   .debug_loc:000000000000002c .LLST44
C:\Users\stapi\AppData\Local\Temp\ccmXy7tC.s:3287   .debug_loc:000000000000004a .LLST45
C:\Users\stapi\AppData\Local\Temp\ccmXy7tC.s:4207   .debug_str:0000000000000270 .LASF20
C:\Users\stapi\AppData\Local\Temp\ccmXy7tC.s:3298   .debug_loc:0000000000000068 .LLST46
C:\Users\stapi\AppData\Local\Temp\ccmXy7tC.s:3309   .debug_loc:0000000000000086 .LLST47
C:\Users\stapi\AppData\Local\Temp\ccmXy7tC.s:3320   .debug_loc:00000000000000a4 .LLST48
C:\Users\stapi\AppData\Local\Temp\ccmXy7tC.s:4197   .debug_str:000000000000021e .LASF21
C:\Users\stapi\AppData\Local\Temp\ccmXy7tC.s:4285   .debug_str:0000000000000568 .LASF22
C:\Users\stapi\AppData\Local\Temp\ccmXy7tC.s:3337   .debug_loc:00000000000000cf .LLST49
C:\Users\stapi\AppData\Local\Temp\ccmXy7tC.s:837    .text.dragonfly_sqrt:0000000000000018 .LVL100
C:\Users\stapi\AppData\Local\Temp\ccmXy7tC.s:845    .text.dragonfly_sqrt:0000000000000024 .LVL103
C:\Users\stapi\AppData\Local\Temp\ccmXy7tC.s:851    .text.dragonfly_sqrt:000000000000002e .LVL105
C:\Users\stapi\AppData\Local\Temp\ccmXy7tC.s:858    .text.dragonfly_sqrt:000000000000003a .LVL107
C:\Users\stapi\AppData\Local\Temp\ccmXy7tC.s:869    .text.dragonfly_sqrt:000000000000004e .LVL110
C:\Users\stapi\AppData\Local\Temp\ccmXy7tC.s:882    .text.dragonfly_sqrt:0000000000000060 .LVL113
C:\Users\stapi\AppData\Local\Temp\ccmXy7tC.s:887    .text.dragonfly_sqrt:000000000000006c .LVL114
C:\Users\stapi\AppData\Local\Temp\ccmXy7tC.s:924    .text.dragonfly_sqrt:000000000000009c .LVL117
C:\Users\stapi\AppData\Local\Temp\ccmXy7tC.s:932    .text.dragonfly_sqrt:00000000000000ae .LVL118
C:\Users\stapi\AppData\Local\Temp\ccmXy7tC.s:941    .text.dragonfly_sqrt:00000000000000c2 .LVL119
C:\Users\stapi\AppData\Local\Temp\ccmXy7tC.s:4171   .debug_str:000000000000003a .LASF23
C:\Users\stapi\AppData\Local\Temp\ccmXy7tC.s:4269   .debug_str:00000000000004f5 .LASF24
C:\Users\stapi\AppData\Local\Temp\ccmXy7tC.s:4173   .debug_str:0000000000000044 .LASF26
C:\Users\stapi\AppData\Local\Temp\ccmXy7tC.s:703    .text.dragonfly_generate_scalar:0000000000000000 .LFB88
C:\Users\stapi\AppData\Local\Temp\ccmXy7tC.s:801    .text.dragonfly_generate_scalar:000000000000008c .LFE88
C:\Users\stapi\AppData\Local\Temp\ccmXy7tC.s:4303   .debug_str:00000000000005fd .LASF27
C:\Users\stapi\AppData\Local\Temp\ccmXy7tC.s:3348   .debug_loc:00000000000000ed .LLST38
C:\Users\stapi\AppData\Local\Temp\ccmXy7tC.s:4243   .debug_str:0000000000000430 .LASF28
C:\Users\stapi\AppData\Local\Temp\ccmXy7tC.s:3359   .debug_loc:000000000000010b .LLST39
C:\Users\stapi\AppData\Local\Temp\ccmXy7tC.s:4253   .debug_str:0000000000000472 .LASF29
C:\Users\stapi\AppData\Local\Temp\ccmXy7tC.s:3370   .debug_loc:0000000000000129 .LLST40
C:\Users\stapi\AppData\Local\Temp\ccmXy7tC.s:4213   .debug_str:0000000000000296 .LASF30
C:\Users\stapi\AppData\Local\Temp\ccmXy7tC.s:3381   .debug_loc:0000000000000147 .LLST41
C:\Users\stapi\AppData\Local\Temp\ccmXy7tC.s:4215   .debug_str:000000000000029d .LASF31
C:\Users\stapi\AppData\Local\Temp\ccmXy7tC.s:3392   .debug_loc:0000000000000165 .LLST42
C:\Users\stapi\AppData\Local\Temp\ccmXy7tC.s:732    .text.dragonfly_generate_scalar:0000000000000020 .LVL88
C:\Users\stapi\AppData\Local\Temp\ccmXy7tC.s:748    .text.dragonfly_generate_scalar:000000000000003a .LVL91
C:\Users\stapi\AppData\Local\Temp\ccmXy7tC.s:758    .text.dragonfly_generate_scalar:000000000000004a .LVL92
C:\Users\stapi\AppData\Local\Temp\ccmXy7tC.s:766    .text.dragonfly_generate_scalar:000000000000005a .LVL93
C:\Users\stapi\AppData\Local\Temp\ccmXy7tC.s:774    .text.dragonfly_generate_scalar:000000000000006a .LVL94
C:\Users\stapi\AppData\Local\Temp\ccmXy7tC.s:780    .text.dragonfly_generate_scalar:0000000000000076 .LVL95
C:\Users\stapi\AppData\Local\Temp\ccmXy7tC.s:786    .text.dragonfly_generate_scalar:0000000000000082 .LVL96
C:\Users\stapi\AppData\Local\Temp\ccmXy7tC.s:4203   .debug_str:000000000000024a .LASF37
C:\Users\stapi\AppData\Local\Temp\ccmXy7tC.s:4295   .debug_str:00000000000005b0 .LASF32
C:\Users\stapi\AppData\Local\Temp\ccmXy7tC.s:316    .text.dragonfly_is_quadratic_residue_blind:0000000000000000 .LFB86
C:\Users\stapi\AppData\Local\Temp\ccmXy7tC.s:692    .text.dragonfly_is_quadratic_residue_blind:00000000000001b4 .LFE86
C:\Users\stapi\AppData\Local\Temp\ccmXy7tC.s:3427   .debug_loc:00000000000001a9 .LLST11
C:\Users\stapi\AppData\Local\Temp\ccmXy7tC.s:3445   .debug_loc:00000000000001d5 .LLST12
C:\Users\stapi\AppData\Local\Temp\ccmXy7tC.s:3456   .debug_loc:00000000000001f3 .LLST13
C:\Users\stapi\AppData\Local\Temp\ccmXy7tC.s:3467   .debug_loc:0000000000000211 .LLST14
C:\Users\stapi\AppData\Local\Temp\ccmXy7tC.s:3496   .debug_loc:0000000000000256 .LLST15
C:\Users\stapi\AppData\Local\Temp\ccmXy7tC.s:3507   .debug_loc:0000000000000274 .LLST16
C:\Users\stapi\AppData\Local\Temp\ccmXy7tC.s:4249   .debug_str:0000000000000456 .LASF33
C:\Users\stapi\AppData\Local\Temp\ccmXy7tC.s:3526   .debug_loc:00000000000002a8 .LLST17
C:\Users\stapi\AppData\Local\Temp\ccmXy7tC.s:4301   .debug_str:00000000000005f7 .LASF34
C:\Users\stapi\AppData\Local\Temp\ccmXy7tC.s:3560   .debug_loc:0000000000000300 .LLST18
C:\Users\stapi\AppData\Local\Temp\ccmXy7tC.s:3571   .debug_loc:0000000000000317 .LLST19
C:\Users\stapi\AppData\Local\Temp\ccmXy7tC.s:4187   .debug_str:00000000000001cd .LASF35
C:\Users\stapi\AppData\Local\Temp\ccmXy7tC.s:3604   .debug_loc:0000000000000367 .LLST20
C:\Users\stapi\AppData\Local\Temp\ccmXy7tC.s:3615   .debug_loc:0000000000000385 .LLST21
C:\Users\stapi\AppData\Local\Temp\ccmXy7tC.s:4293   .debug_str:00000000000005ab .LASF36
C:\Users\stapi\AppData\Local\Temp\ccmXy7tC.s:3634   .debug_loc:00000000000003b9 .LLST22
C:\Users\stapi\AppData\Local\Temp\ccmXy7tC.s:4225   .debug_str:00000000000003c7 .LASF74
C:\Users\stapi\AppData\Local\Temp\ccmXy7tC.s:361    .text.dragonfly_is_quadratic_residue_blind:0000000000000028 .LBB47
C:\Users\stapi\AppData\Local\Temp\ccmXy7tC.s:3699   .debug_loc:0000000000000429 .LLST23
C:\Users\stapi\AppData\Local\Temp\ccmXy7tC.s:3710   .debug_loc:0000000000000447 .LLST24
C:\Users\stapi\AppData\Local\Temp\ccmXy7tC.s:3730   .debug_loc:000000000000047c .LLST25
C:\Users\stapi\AppData\Local\Temp\ccmXy7tC.s:3745   .debug_loc:00000000000004a5 .LLST26
C:\Users\stapi\AppData\Local\Temp\ccmXy7tC.s:367    .text.dragonfly_is_quadratic_residue_blind:0000000000000030 .LVL35
C:\Users\stapi\AppData\Local\Temp\ccmXy7tC.s:373    .text.dragonfly_is_quadratic_residue_blind:000000000000003a .LVL37
C:\Users\stapi\AppData\Local\Temp\ccmXy7tC.s:383    .text.dragonfly_is_quadratic_residue_blind:000000000000004e .LVL40
C:\Users\stapi\AppData\Local\Temp\ccmXy7tC.s:394    .text.dragonfly_is_quadratic_residue_blind:000000000000005e .LVL42
C:\Users\stapi\AppData\Local\Temp\ccmXy7tC.s:404    .text.dragonfly_is_quadratic_residue_blind:000000000000006c .LVL44
C:\Users\stapi\AppData\Local\Temp\ccmXy7tC.s:409    .text.dragonfly_is_quadratic_residue_blind:0000000000000078 .LVL45
C:\Users\stapi\AppData\Local\Temp\ccmXy7tC.s:482    .text.dragonfly_is_quadratic_residue_blind:00000000000000d0 .LVL54
C:\Users\stapi\AppData\Local\Temp\ccmXy7tC.s:489    .text.dragonfly_is_quadratic_residue_blind:00000000000000e0 .LVL55
C:\Users\stapi\AppData\Local\Temp\ccmXy7tC.s:497    .text.dragonfly_is_quadratic_residue_blind:00000000000000f2 .LVL56
C:\Users\stapi\AppData\Local\Temp\ccmXy7tC.s:529    .text.dragonfly_is_quadratic_residue_blind:000000000000012a .LBB51
C:\Users\stapi\AppData\Local\Temp\ccmXy7tC.s:552    .text.dragonfly_is_quadratic_residue_blind:0000000000000136 .LBE51
C:\Users\stapi\AppData\Local\Temp\ccmXy7tC.s:3756   .debug_loc:00000000000004c3 .LLST27
C:\Users\stapi\AppData\Local\Temp\ccmXy7tC.s:533    .text.dragonfly_is_quadratic_residue_blind:000000000000012a .LBB53
C:\Users\stapi\AppData\Local\Temp\ccmXy7tC.s:3769   .debug_loc:00000000000004e3 .LLST28
C:\Users\stapi\AppData\Local\Temp\ccmXy7tC.s:556    .text.dragonfly_is_quadratic_residue_blind:000000000000013a .LBB57
C:\Users\stapi\AppData\Local\Temp\ccmXy7tC.s:3786   .debug_loc:0000000000000507 .LLST29
C:\Users\stapi\AppData\Local\Temp\ccmXy7tC.s:3811   .debug_loc:0000000000000544 .LLST30
C:\Users\stapi\AppData\Local\Temp\ccmXy7tC.s:3822   .debug_loc:0000000000000562 .LLST31
C:\Users\stapi\AppData\Local\Temp\ccmXy7tC.s:3833   .debug_loc:0000000000000580 .LLST32
C:\Users\stapi\AppData\Local\Temp\ccmXy7tC.s:3844   .debug_loc:000000000000059e .LLST33
C:\Users\stapi\AppData\Local\Temp\ccmXy7tC.s:3855   .debug_loc:00000000000005bc .LLST34
C:\Users\stapi\AppData\Local\Temp\ccmXy7tC.s:611    .text.dragonfly_is_quadratic_residue_blind:0000000000000180 .LBB61
C:\Users\stapi\AppData\Local\Temp\ccmXy7tC.s:614    .text.dragonfly_is_quadratic_residue_blind:0000000000000180 .LBB63
C:\Users\stapi\AppData\Local\Temp\ccmXy7tC.s:623    .text.dragonfly_is_quadratic_residue_blind:0000000000000180 .LBB68
C:\Users\stapi\AppData\Local\Temp\ccmXy7tC.s:3876   .debug_loc:00000000000005f2 .LLST35
C:\Users\stapi\AppData\Local\Temp\ccmXy7tC.s:3884   .debug_loc:0000000000000606 .LLST36
C:\Users\stapi\AppData\Local\Temp\ccmXy7tC.s:3892   .debug_loc:000000000000061a .LLST37
C:\Users\stapi\AppData\Local\Temp\ccmXy7tC.s:349    .text.dragonfly_is_quadratic_residue_blind:000000000000001a .LVL30
C:\Users\stapi\AppData\Local\Temp\ccmXy7tC.s:357    .text.dragonfly_is_quadratic_residue_blind:0000000000000026 .LVL33
C:\Users\stapi\AppData\Local\Temp\ccmXy7tC.s:421    .text.dragonfly_is_quadratic_residue_blind:0000000000000084 .LVL46
C:\Users\stapi\AppData\Local\Temp\ccmXy7tC.s:439    .text.dragonfly_is_quadratic_residue_blind:0000000000000098 .LVL50
C:\Users\stapi\AppData\Local\Temp\ccmXy7tC.s:444    .text.dragonfly_is_quadratic_residue_blind:00000000000000a4 .LVL51
C:\Users\stapi\AppData\Local\Temp\ccmXy7tC.s:449    .text.dragonfly_is_quadratic_residue_blind:00000000000000b0 .LVL52
C:\Users\stapi\AppData\Local\Temp\ccmXy7tC.s:512    .text.dragonfly_is_quadratic_residue_blind:0000000000000108 .LVL59
C:\Users\stapi\AppData\Local\Temp\ccmXy7tC.s:521    .text.dragonfly_is_quadratic_residue_blind:000000000000011c .LVL60
C:\Users\stapi\AppData\Local\Temp\ccmXy7tC.s:528    .text.dragonfly_is_quadratic_residue_blind:000000000000012a .LVL61
C:\Users\stapi\AppData\Local\Temp\ccmXy7tC.s:573    .text.dragonfly_is_quadratic_residue_blind:000000000000014c .LVL68
C:\Users\stapi\AppData\Local\Temp\ccmXy7tC.s:586    .text.dragonfly_is_quadratic_residue_blind:0000000000000160 .LVL71
C:\Users\stapi\AppData\Local\Temp\ccmXy7tC.s:599    .text.dragonfly_is_quadratic_residue_blind:0000000000000172 .LVL73
C:\Users\stapi\AppData\Local\Temp\ccmXy7tC.s:4165   .debug_str:0000000000000000 .LASF38
C:\Users\stapi\AppData\Local\Temp\ccmXy7tC.s:4313   .debug_str:0000000000000658 .LASF39
C:\Users\stapi\AppData\Local\Temp\ccmXy7tC.s:149    .text.dragonfly_get_random_qr_qnr:0000000000000000 .LFB84
C:\Users\stapi\AppData\Local\Temp\ccmXy7tC.s:305    .text.dragonfly_get_random_qr_qnr:00000000000000b2 .LFE84
C:\Users\stapi\AppData\Local\Temp\ccmXy7tC.s:3935   .debug_loc:000000000000065f .LLST6
C:\Users\stapi\AppData\Local\Temp\ccmXy7tC.s:3946   .debug_loc:000000000000067d .LLST7
C:\Users\stapi\AppData\Local\Temp\ccmXy7tC.s:3957   .debug_loc:000000000000069b .LLST8
C:\Users\stapi\AppData\Local\Temp\ccmXy7tC.s:3968   .debug_loc:00000000000006b9 .LLST9
C:\Users\stapi\AppData\Local\Temp\ccmXy7tC.s:3979   .debug_loc:00000000000006d7 .LLST10
C:\Users\stapi\AppData\Local\Temp\ccmXy7tC.s:185    .text.dragonfly_get_random_qr_qnr:0000000000000022 .LVL15
C:\Users\stapi\AppData\Local\Temp\ccmXy7tC.s:194    .text.dragonfly_get_random_qr_qnr:0000000000000030 .LVL17
C:\Users\stapi\AppData\Local\Temp\ccmXy7tC.s:202    .text.dragonfly_get_random_qr_qnr:0000000000000040 .LVL18
C:\Users\stapi\AppData\Local\Temp\ccmXy7tC.s:256    .text.dragonfly_get_random_qr_qnr:0000000000000080 .LVL21
C:\Users\stapi\AppData\Local\Temp\ccmXy7tC.s:301    .text.dragonfly_get_random_qr_qnr:00000000000000b0 .LVL27
C:\Users\stapi\AppData\Local\Temp\ccmXy7tC.s:221    .text.dragonfly_get_random_qr_qnr:0000000000000054 .LVL19
C:\Users\stapi\AppData\Local\Temp\ccmXy7tC.s:226    .text.dragonfly_get_random_qr_qnr:0000000000000060 .LVL20
C:\Users\stapi\AppData\Local\Temp\ccmXy7tC.s:4179   .debug_str:0000000000000103 .LASF40
C:\Users\stapi\AppData\Local\Temp\ccmXy7tC.s:107    .text.dragonfly_min_pwe_loop_iter:0000000000000000 .LFB83
C:\Users\stapi\AppData\Local\Temp\ccmXy7tC.s:142    .text.dragonfly_min_pwe_loop_iter:000000000000002c .LFE83
C:\Users\stapi\AppData\Local\Temp\ccmXy7tC.s:4189   .debug_str:00000000000001db .LASF41
C:\Users\stapi\AppData\Local\Temp\ccmXy7tC.s:3994   .debug_loc:0000000000000700 .LLST5
C:\Users\stapi\AppData\Local\Temp\ccmXy7tC.s:4299   .debug_str:00000000000005de .LASF42
C:\Users\stapi\AppData\Local\Temp\ccmXy7tC.s:68     .text.dragonfly_suitable_group:0000000000000000 .LFB82
C:\Users\stapi\AppData\Local\Temp\ccmXy7tC.s:100    .text.dragonfly_suitable_group:000000000000001c .LFE82
C:\Users\stapi\AppData\Local\Temp\ccmXy7tC.s:4005   .debug_loc:000000000000071e .LLST4
C:\Users\stapi\AppData\Local\Temp\ccmXy7tC.s:4239   .debug_str:0000000000000411 .LASF43
C:\Users\stapi\AppData\Local\Temp\ccmXy7tC.s:4283   .debug_str:0000000000000552 .LASF75
C:\Users\stapi\AppData\Local\Temp\ccmXy7tC.s:4217   .debug_str:00000000000002a3 .LASF44
C:\Users\stapi\AppData\Local\Temp\ccmXy7tC.s:4277   .debug_str:0000000000000538 .LASF45
C:\Users\stapi\AppData\Local\Temp\ccmXy7tC.s:4265   .debug_str:00000000000004cd .LASF46
C:\Users\stapi\AppData\Local\Temp\ccmXy7tC.s:4291   .debug_str:0000000000000595 .LASF47
C:\Users\stapi\AppData\Local\Temp\ccmXy7tC.s:4245   .debug_str:0000000000000436 .LASF48
C:\Users\stapi\AppData\Local\Temp\ccmXy7tC.s:4287   .debug_str:0000000000000572 .LASF49
C:\Users\stapi\AppData\Local\Temp\ccmXy7tC.s:4267   .debug_str:00000000000004e2 .LASF50
C:\Users\stapi\AppData\Local\Temp\ccmXy7tC.s:4221   .debug_str:00000000000003a5 .LASF51
C:\Users\stapi\AppData\Local\Temp\ccmXy7tC.s:13     .text.dragonfly_get_rand_2_to_r_1:0000000000000000 .LFB87
C:\Users\stapi\AppData\Local\Temp\ccmXy7tC.s:61     .text.dragonfly_get_rand_2_to_r_1:000000000000003a .LFE87
C:\Users\stapi\AppData\Local\Temp\ccmXy7tC.s:4030   .debug_loc:000000000000075f .LLST0
C:\Users\stapi\AppData\Local\Temp\ccmXy7tC.s:4041   .debug_loc:000000000000077d .LLST1
C:\Users\stapi\AppData\Local\Temp\ccmXy7tC.s:48     .text.dragonfly_get_rand_2_to_r_1:000000000000002a .LBB22
C:\Users\stapi\AppData\Local\Temp\ccmXy7tC.s:58     .text.dragonfly_get_rand_2_to_r_1:0000000000000038 .LBE22
C:\Users\stapi\AppData\Local\Temp\ccmXy7tC.s:4055   .debug_loc:000000000000079e .LLST2
C:\Users\stapi\AppData\Local\Temp\ccmXy7tC.s:4065   .debug_loc:00000000000007b4 .LLST3
C:\Users\stapi\AppData\Local\Temp\ccmXy7tC.s:53     .text.dragonfly_get_rand_2_to_r_1:0000000000000034 .LVL4
C:\Users\stapi\AppData\Local\Temp\ccmXy7tC.s:27     .text.dragonfly_get_rand_2_to_r_1:0000000000000012 .LVL1
C:\Users\stapi\AppData\Local\Temp\ccmXy7tC.s:44     .text.dragonfly_get_rand_2_to_r_1:0000000000000028 .LVL2
C:\Users\stapi\AppData\Local\Temp\ccmXy7tC.s:4193   .debug_str:00000000000001f6 .LASF52
C:\Users\stapi\AppData\Local\Temp\ccmXy7tC.s:4195   .debug_str:000000000000020a .LASF53
C:\Users\stapi\AppData\Local\Temp\ccmXy7tC.s:4255   .debug_str:0000000000000478 .LASF54
C:\Users\stapi\AppData\Local\Temp\ccmXy7tC.s:4209   .debug_str:0000000000000276 .LASF55
C:\Users\stapi\AppData\Local\Temp\ccmXy7tC.s:4289   .debug_str:0000000000000580 .LASF56
C:\Users\stapi\AppData\Local\Temp\ccmXy7tC.s:4191   .debug_str:00000000000001e1 .LASF57
C:\Users\stapi\AppData\Local\Temp\ccmXy7tC.s:4251   .debug_str:0000000000000460 .LASF58
C:\Users\stapi\AppData\Local\Temp\ccmXy7tC.s:4309   .debug_str:000000000000062c .LASF59
C:\Users\stapi\AppData\Local\Temp\ccmXy7tC.s:4201   .debug_str:0000000000000234 .LASF60
C:\Users\stapi\AppData\Local\Temp\ccmXy7tC.s:4315   .debug_str:0000000000000674 .LASF61
C:\Users\stapi\AppData\Local\Temp\ccmXy7tC.s:4169   .debug_str:0000000000000028 .LASF62
C:\Users\stapi\AppData\Local\Temp\ccmXy7tC.s:4241   .debug_str:000000000000041a .LASF63
C:\Users\stapi\AppData\Local\Temp\ccmXy7tC.s:4175   .debug_str:000000000000005e .LASF64
C:\Users\stapi\AppData\Local\Temp\ccmXy7tC.s:4311   .debug_str:0000000000000641 .LASF65
C:\Users\stapi\AppData\Local\Temp\ccmXy7tC.s:4307   .debug_str:000000000000061a .LASF66
C:\Users\stapi\AppData\Local\Temp\ccmXy7tC.s:4275   .debug_str:0000000000000525 .LASF67
C:\Users\stapi\AppData\Local\Temp\ccmXy7tC.s:4181   .debug_str:000000000000011f .LASF68
C:\Users\stapi\AppData\Local\Temp\ccmXy7tC.s:4235   .debug_str:00000000000003f2 .LASF69
C:\Users\stapi\AppData\Local\Temp\ccmXy7tC.s:4305   .debug_str:0000000000000603 .LASF70
C:\Users\stapi\AppData\Local\Temp\ccmXy7tC.s:811    .text.dragonfly_sqrt:0000000000000000 .LVL98
C:\Users\stapi\AppData\Local\Temp\ccmXy7tC.s:853    .text.dragonfly_sqrt:0000000000000030 .LVL106
C:\Users\stapi\AppData\Local\Temp\ccmXy7tC.s:839    .text.dragonfly_sqrt:000000000000001a .LVL101
C:\Users\stapi\AppData\Local\Temp\ccmXy7tC.s:843    .text.dragonfly_sqrt:000000000000001c .LVL102
C:\Users\stapi\AppData\Local\Temp\ccmXy7tC.s:860    .text.dragonfly_sqrt:000000000000003c .LVL108
C:\Users\stapi\AppData\Local\Temp\ccmXy7tC.s:867    .text.dragonfly_sqrt:0000000000000046 .LVL109
C:\Users\stapi\AppData\Local\Temp\ccmXy7tC.s:824    .text.dragonfly_sqrt:0000000000000008 .LVL99
C:\Users\stapi\AppData\Local\Temp\ccmXy7tC.s:877    .text.dragonfly_sqrt:0000000000000054 .LVL112
C:\Users\stapi\AppData\Local\Temp\ccmXy7tC.s:903    .text.dragonfly_sqrt:0000000000000078 .LVL115
C:\Users\stapi\AppData\Local\Temp\ccmXy7tC.s:847    .text.dragonfly_sqrt:0000000000000026 .LVL104
C:\Users\stapi\AppData\Local\Temp\ccmXy7tC.s:872    .text.dragonfly_sqrt:0000000000000052 .LVL111
C:\Users\stapi\AppData\Local\Temp\ccmXy7tC.s:909    .text.dragonfly_sqrt:000000000000007c .LVL116
C:\Users\stapi\AppData\Local\Temp\ccmXy7tC.s:706    .text.dragonfly_generate_scalar:0000000000000000 .LVL85
C:\Users\stapi\AppData\Local\Temp\ccmXy7tC.s:725    .text.dragonfly_generate_scalar:0000000000000014 .LVL87
C:\Users\stapi\AppData\Local\Temp\ccmXy7tC.s:717    .text.dragonfly_generate_scalar:0000000000000008 .LVL86
C:\Users\stapi\AppData\Local\Temp\ccmXy7tC.s:737    .text.dragonfly_generate_scalar:0000000000000022 .LVL89
C:\Users\stapi\AppData\Local\Temp\ccmXy7tC.s:741    .text.dragonfly_generate_scalar:0000000000000024 .LVL90
C:\Users\stapi\AppData\Local\Temp\ccmXy7tC.s:789    .text.dragonfly_generate_scalar:0000000000000084 .LVL97
C:\Users\stapi\AppData\Local\Temp\ccmXy7tC.s:319    .text.dragonfly_is_quadratic_residue_blind:0000000000000000 .LVL28
C:\Users\stapi\AppData\Local\Temp\ccmXy7tC.s:369    .text.dragonfly_is_quadratic_residue_blind:0000000000000032 .LVL36
C:\Users\stapi\AppData\Local\Temp\ccmXy7tC.s:427    .text.dragonfly_is_quadratic_residue_blind:0000000000000088 .LVL48
C:\Users\stapi\AppData\Local\Temp\ccmXy7tC.s:468    .text.dragonfly_is_quadratic_residue_blind:00000000000000bc .LVL53
C:\Users\stapi\AppData\Local\Temp\ccmXy7tC.s:540    .text.dragonfly_is_quadratic_residue_blind:000000000000012e .LVL62
C:\Users\stapi\AppData\Local\Temp\ccmXy7tC.s:501    .text.dragonfly_is_quadratic_residue_blind:00000000000000f8 .LVL57
C:\Users\stapi\AppData\Local\Temp\ccmXy7tC.s:423    .text.dragonfly_is_quadratic_residue_blind:0000000000000086 .LVL47
C:\Users\stapi\AppData\Local\Temp\ccmXy7tC.s:510    .text.dragonfly_is_quadratic_residue_blind:0000000000000100 .LVL58
C:\Users\stapi\AppData\Local\Temp\ccmXy7tC.s:332    .text.dragonfly_is_quadratic_residue_blind:0000000000000008 .LVL29
C:\Users\stapi\AppData\Local\Temp\ccmXy7tC.s:433    .text.dragonfly_is_quadratic_residue_blind:000000000000008c .LVL49
C:\Users\stapi\AppData\Local\Temp\ccmXy7tC.s:575    .text.dragonfly_is_quadratic_residue_blind:000000000000014e .LVL69
C:\Users\stapi\AppData\Local\Temp\ccmXy7tC.s:584    .text.dragonfly_is_quadratic_residue_blind:0000000000000158 .LVL70
C:\Users\stapi\AppData\Local\Temp\ccmXy7tC.s:652    .text.dragonfly_is_quadratic_residue_blind:0000000000000190 .LVL79
C:\Users\stapi\AppData\Local\Temp\ccmXy7tC.s:603    .text.dragonfly_is_quadratic_residue_blind:0000000000000178 .LVL74
C:\Users\stapi\AppData\Local\Temp\ccmXy7tC.s:650    .text.dragonfly_is_quadratic_residue_blind:000000000000018e .LVL78
C:\Users\stapi\AppData\Local\Temp\ccmXy7tC.s:351    .text.dragonfly_is_quadratic_residue_blind:000000000000001c .LVL31
C:\Users\stapi\AppData\Local\Temp\ccmXy7tC.s:355    .text.dragonfly_is_quadratic_residue_blind:000000000000001e .LVL32
C:\Users\stapi\AppData\Local\Temp\ccmXy7tC.s:359    .text.dragonfly_is_quadratic_residue_blind:0000000000000028 .LVL34
C:\Users\stapi\AppData\Local\Temp\ccmXy7tC.s:548    .text.dragonfly_is_quadratic_residue_blind:0000000000000136 .LVL64
C:\Users\stapi\AppData\Local\Temp\ccmXy7tC.s:610    .text.dragonfly_is_quadratic_residue_blind:0000000000000180 .LVL75
C:\Users\stapi\AppData\Local\Temp\ccmXy7tC.s:639    .text.dragonfly_is_quadratic_residue_blind:000000000000018a .LVL76
C:\Users\stapi\AppData\Local\Temp\ccmXy7tC.s:641    .text.dragonfly_is_quadratic_residue_blind:000000000000018c .LVL77
C:\Users\stapi\AppData\Local\Temp\ccmXy7tC.s:398    .text.dragonfly_is_quadratic_residue_blind:0000000000000060 .LVL43
C:\Users\stapi\AppData\Local\Temp\ccmXy7tC.s:375    .text.dragonfly_is_quadratic_residue_blind:000000000000003c .LVL38
C:\Users\stapi\AppData\Local\Temp\ccmXy7tC.s:379    .text.dragonfly_is_quadratic_residue_blind:0000000000000040 .LVL39
C:\Users\stapi\AppData\Local\Temp\ccmXy7tC.s:385    .text.dragonfly_is_quadratic_residue_blind:0000000000000050 .LVL41
C:\Users\stapi\AppData\Local\Temp\ccmXy7tC.s:543    .text.dragonfly_is_quadratic_residue_blind:0000000000000132 .LVL63
C:\Users\stapi\AppData\Local\Temp\ccmXy7tC.s:555    .text.dragonfly_is_quadratic_residue_blind:000000000000013a .LVL65
C:\Users\stapi\AppData\Local\Temp\ccmXy7tC.s:565    .text.dragonfly_is_quadratic_residue_blind:0000000000000140 .LVL67
C:\Users\stapi\AppData\Local\Temp\ccmXy7tC.s:671    .text.dragonfly_is_quadratic_residue_blind:000000000000019a .LVL81
C:\Users\stapi\AppData\Local\Temp\ccmXy7tC.s:675    .text.dragonfly_is_quadratic_residue_blind:00000000000001a2 .LVL82
C:\Users\stapi\AppData\Local\Temp\ccmXy7tC.s:561    .text.dragonfly_is_quadratic_residue_blind:000000000000013c .LVL66
C:\Users\stapi\AppData\Local\Temp\ccmXy7tC.s:680    .text.dragonfly_is_quadratic_residue_blind:00000000000001a8 .LVL83
C:\Users\stapi\AppData\Local\Temp\ccmXy7tC.s:687    .text.dragonfly_is_quadratic_residue_blind:00000000000001b2 .LVL84
C:\Users\stapi\AppData\Local\Temp\ccmXy7tC.s:152    .text.dragonfly_get_random_qr_qnr:0000000000000000 .LVL13
C:\Users\stapi\AppData\Local\Temp\ccmXy7tC.s:178    .text.dragonfly_get_random_qr_qnr:000000000000001a .LVL14
C:\Users\stapi\AppData\Local\Temp\ccmXy7tC.s:187    .text.dragonfly_get_random_qr_qnr:0000000000000024 .LVL16
C:\Users\stapi\AppData\Local\Temp\ccmXy7tC.s:268    .text.dragonfly_get_random_qr_qnr:000000000000008c .LVL22
C:\Users\stapi\AppData\Local\Temp\ccmXy7tC.s:274    .text.dragonfly_get_random_qr_qnr:0000000000000092 .LVL23
C:\Users\stapi\AppData\Local\Temp\ccmXy7tC.s:286    .text.dragonfly_get_random_qr_qnr:000000000000009e .LVL24
C:\Users\stapi\AppData\Local\Temp\ccmXy7tC.s:293    .text.dragonfly_get_random_qr_qnr:00000000000000a4 .LVL25
C:\Users\stapi\AppData\Local\Temp\ccmXy7tC.s:299    .text.dragonfly_get_random_qr_qnr:00000000000000a8 .LVL26
C:\Users\stapi\AppData\Local\Temp\ccmXy7tC.s:110    .text.dragonfly_min_pwe_loop_iter:0000000000000000 .LVL11
C:\Users\stapi\AppData\Local\Temp\ccmXy7tC.s:125    .text.dragonfly_min_pwe_loop_iter:0000000000000012 .LVL12
C:\Users\stapi\AppData\Local\Temp\ccmXy7tC.s:71     .text.dragonfly_suitable_group:0000000000000000 .LVL6
C:\Users\stapi\AppData\Local\Temp\ccmXy7tC.s:83     .text.dragonfly_suitable_group:000000000000000e .LVL7
C:\Users\stapi\AppData\Local\Temp\ccmXy7tC.s:87     .text.dragonfly_suitable_group:0000000000000012 .LVL8
C:\Users\stapi\AppData\Local\Temp\ccmXy7tC.s:91     .text.dragonfly_suitable_group:0000000000000018 .LVL9
C:\Users\stapi\AppData\Local\Temp\ccmXy7tC.s:95     .text.dragonfly_suitable_group:000000000000001a .LVL10
C:\Users\stapi\AppData\Local\Temp\ccmXy7tC.s:17     .text.dragonfly_get_rand_2_to_r_1:0000000000000000 .LVL0
C:\Users\stapi\AppData\Local\Temp\ccmXy7tC.s:47     .text.dragonfly_get_rand_2_to_r_1:000000000000002a .LVL3
C:\Users\stapi\AppData\Local\Temp\ccmXy7tC.s:56     .text.dragonfly_get_rand_2_to_r_1:0000000000000038 .LVL5
C:\Users\stapi\AppData\Local\Temp\ccmXy7tC.s:957    .debug_info:0000000000000000 .Ldebug_info0
C:\Users\stapi\AppData\Local\Temp\ccmXy7tC.s:173    .text.dragonfly_get_random_qr_qnr:0000000000000016 .LBB24
C:\Users\stapi\AppData\Local\Temp\ccmXy7tC.s:205    .text.dragonfly_get_random_qr_qnr:0000000000000040 .LBE24
C:\Users\stapi\AppData\Local\Temp\ccmXy7tC.s:250    .text.dragonfly_get_random_qr_qnr:0000000000000074 .LBB25
C:\Users\stapi\AppData\Local\Temp\ccmXy7tC.s:266    .text.dragonfly_get_random_qr_qnr:000000000000008c .LBE25
C:\Users\stapi\AppData\Local\Temp\ccmXy7tC.s:276    .text.dragonfly_get_random_qr_qnr:0000000000000092 .LBB26
C:\Users\stapi\AppData\Local\Temp\ccmXy7tC.s:288    .text.dragonfly_get_random_qr_qnr:000000000000009e .LBE26
C:\Users\stapi\AppData\Local\Temp\ccmXy7tC.s:295    .text.dragonfly_get_random_qr_qnr:00000000000000a4 .LBB27
C:\Users\stapi\AppData\Local\Temp\ccmXy7tC.s:303    .text.dragonfly_get_random_qr_qnr:00000000000000b2 .LBE27
C:\Users\stapi\AppData\Local\Temp\ccmXy7tC.s:412    .text.dragonfly_is_quadratic_residue_blind:0000000000000078 .LBE47
C:\Users\stapi\AppData\Local\Temp\ccmXy7tC.s:471    .text.dragonfly_is_quadratic_residue_blind:00000000000000bc .LBB50
C:\Users\stapi\AppData\Local\Temp\ccmXy7tC.s:504    .text.dragonfly_is_quadratic_residue_blind:00000000000000f8 .LBE50
C:\Users\stapi\AppData\Local\Temp\ccmXy7tC.s:537    .text.dragonfly_is_quadratic_residue_blind:000000000000012a .LBE53
C:\Users\stapi\AppData\Local\Temp\ccmXy7tC.s:544    .text.dragonfly_is_quadratic_residue_blind:0000000000000132 .LBB56
C:\Users\stapi\AppData\Local\Temp\ccmXy7tC.s:550    .text.dragonfly_is_quadratic_residue_blind:0000000000000136 .LBE56
C:\Users\stapi\AppData\Local\Temp\ccmXy7tC.s:567    .text.dragonfly_is_quadratic_residue_blind:0000000000000140 .LBE57
C:\Users\stapi\AppData\Local\Temp\ccmXy7tC.s:656    .text.dragonfly_is_quadratic_residue_blind:0000000000000190 .LBB73
C:\Users\stapi\AppData\Local\Temp\ccmXy7tC.s:664    .text.dragonfly_is_quadratic_residue_blind:0000000000000198 .LBE73
C:\Users\stapi\AppData\Local\Temp\ccmXy7tC.s:667    .text.dragonfly_is_quadratic_residue_blind:0000000000000198 .LBB74
C:\Users\stapi\AppData\Local\Temp\ccmXy7tC.s:690    .text.dragonfly_is_quadratic_residue_blind:00000000000001b4 .LBE74
C:\Users\stapi\AppData\Local\Temp\ccmXy7tC.s:620    .text.dragonfly_is_quadratic_residue_blind:0000000000000180 .LBE61
C:\Users\stapi\AppData\Local\Temp\ccmXy7tC.s:629    .text.dragonfly_is_quadratic_residue_blind:0000000000000180 .LBB71
C:\Users\stapi\AppData\Local\Temp\ccmXy7tC.s:645    .text.dragonfly_is_quadratic_residue_blind:000000000000018c .LBE71
C:\Users\stapi\AppData\Local\Temp\ccmXy7tC.s:618    .text.dragonfly_is_quadratic_residue_blind:0000000000000180 .LBE63
C:\Users\stapi\AppData\Local\Temp\ccmXy7tC.s:633    .text.dragonfly_is_quadratic_residue_blind:0000000000000184 .LBB66
C:\Users\stapi\AppData\Local\Temp\ccmXy7tC.s:643    .text.dragonfly_is_quadratic_residue_blind:000000000000018c .LBE66
C:\Users\stapi\AppData\Local\Temp\ccmXy7tC.s:627    .text.dragonfly_is_quadratic_residue_blind:0000000000000180 .LBE68
C:\Users\stapi\AppData\Local\Temp\ccmXy7tC.s:646    .text.dragonfly_is_quadratic_residue_blind:000000000000018c .LBB72
C:\Users\stapi\AppData\Local\Temp\ccmXy7tC.s:655    .text.dragonfly_is_quadratic_residue_blind:0000000000000190 .LBE72

UNDEFINED SYMBOLS
__riscv_save_1
crypto_bignum_rand
__riscv_restore_1
crypto_bignum_is_zero
crypto_bignum_is_one
__riscv_save_6
crypto_bignum_init
crypto_bignum_deinit
__riscv_restore_6
crypto_bignum_legendre
__riscv_save_8
crypto_ec_get_prime
crypto_ec_prime_len
crypto_bignum_init_set
__riscv_restore_8
crypto_bignum_sub
crypto_bignum_add
crypto_bignum_mulmod
crypto_bignum_is_odd
__riscv_save_5
wpa_printf
crypto_bignum_mod
__riscv_restore_5
crypto_bignum_init_uint
crypto_bignum_to_bin
crypto_bignum_rshift
crypto_bignum_exptmod
