   1              		.file	"driver_common.c"
   2              		.option nopic
   3              		.attribute arch, "rv32i2p0_m2p0_a2p0_f2p0_c2p0_b_p0p94"
   4              		.attribute unaligned_access, 0
   5              		.attribute stack_align, 16
   6              		.text
   7              	.Ltext0:
   8              		.cfi_sections	.debug_frame
   9              		.section	.text.wpa_scan_results_free,"ax",@progbits
  10              		.align	1
  11              		.globl	wpa_scan_results_free
  13              	wpa_scan_results_free:
  14              	.LFB100:
  15              		.file 1 "C:/Users/stapi/OneDrive/Desktop/GD32VW553/V1_MQTT_OK/GD32VW55X_Wifi_BLE_SDK/GD32VW55x_REL
   1:C:/Users/stapi/OneDrive/Desktop/GD32VW553/V1_MQTT_OK/GD32VW55X_Wifi_BLE_SDK/GD32VW55x_RELEASE_V1.0.2/MSDK/wpa_supplicant/src/drivers\driver_common.c **** /*
   2:C:/Users/stapi/OneDrive/Desktop/GD32VW553/V1_MQTT_OK/GD32VW55X_Wifi_BLE_SDK/GD32VW55x_RELEASE_V1.0.2/MSDK/wpa_supplicant/src/drivers\driver_common.c ****  * Common driver-related functions
   3:C:/Users/stapi/OneDrive/Desktop/GD32VW553/V1_MQTT_OK/GD32VW55X_Wifi_BLE_SDK/GD32VW55x_RELEASE_V1.0.2/MSDK/wpa_supplicant/src/drivers\driver_common.c ****  * Copyright (c) 2003-2017, Jouni Malinen <j@w1.fi>
   4:C:/Users/stapi/OneDrive/Desktop/GD32VW553/V1_MQTT_OK/GD32VW55X_Wifi_BLE_SDK/GD32VW55x_RELEASE_V1.0.2/MSDK/wpa_supplicant/src/drivers\driver_common.c ****  *
   5:C:/Users/stapi/OneDrive/Desktop/GD32VW553/V1_MQTT_OK/GD32VW55X_Wifi_BLE_SDK/GD32VW55x_RELEASE_V1.0.2/MSDK/wpa_supplicant/src/drivers\driver_common.c ****  * This software may be distributed under the terms of the BSD license.
   6:C:/Users/stapi/OneDrive/Desktop/GD32VW553/V1_MQTT_OK/GD32VW55X_Wifi_BLE_SDK/GD32VW55x_RELEASE_V1.0.2/MSDK/wpa_supplicant/src/drivers\driver_common.c ****  * See README for more details.
   7:C:/Users/stapi/OneDrive/Desktop/GD32VW553/V1_MQTT_OK/GD32VW55X_Wifi_BLE_SDK/GD32VW55x_RELEASE_V1.0.2/MSDK/wpa_supplicant/src/drivers\driver_common.c ****  */
   8:C:/Users/stapi/OneDrive/Desktop/GD32VW553/V1_MQTT_OK/GD32VW55X_Wifi_BLE_SDK/GD32VW55x_RELEASE_V1.0.2/MSDK/wpa_supplicant/src/drivers\driver_common.c **** 
   9:C:/Users/stapi/OneDrive/Desktop/GD32VW553/V1_MQTT_OK/GD32VW55X_Wifi_BLE_SDK/GD32VW55x_RELEASE_V1.0.2/MSDK/wpa_supplicant/src/drivers\driver_common.c **** #include "includes.h"
  10:C:/Users/stapi/OneDrive/Desktop/GD32VW553/V1_MQTT_OK/GD32VW55X_Wifi_BLE_SDK/GD32VW55x_RELEASE_V1.0.2/MSDK/wpa_supplicant/src/drivers\driver_common.c **** #include "utils/common.h"
  11:C:/Users/stapi/OneDrive/Desktop/GD32VW553/V1_MQTT_OK/GD32VW55X_Wifi_BLE_SDK/GD32VW55x_RELEASE_V1.0.2/MSDK/wpa_supplicant/src/drivers\driver_common.c **** #include "driver.h"
  12:C:/Users/stapi/OneDrive/Desktop/GD32VW553/V1_MQTT_OK/GD32VW55X_Wifi_BLE_SDK/GD32VW55x_RELEASE_V1.0.2/MSDK/wpa_supplicant/src/drivers\driver_common.c **** 
  13:C:/Users/stapi/OneDrive/Desktop/GD32VW553/V1_MQTT_OK/GD32VW55X_Wifi_BLE_SDK/GD32VW55x_RELEASE_V1.0.2/MSDK/wpa_supplicant/src/drivers\driver_common.c **** void wpa_scan_results_free(struct wpa_scan_results *res)
  14:C:/Users/stapi/OneDrive/Desktop/GD32VW553/V1_MQTT_OK/GD32VW55X_Wifi_BLE_SDK/GD32VW55x_RELEASE_V1.0.2/MSDK/wpa_supplicant/src/drivers\driver_common.c **** {
  16              		.loc 1 14 1
  17              		.cfi_startproc
  18              	.LVL0:
  15:C:/Users/stapi/OneDrive/Desktop/GD32VW553/V1_MQTT_OK/GD32VW55X_Wifi_BLE_SDK/GD32VW55x_RELEASE_V1.0.2/MSDK/wpa_supplicant/src/drivers\driver_common.c **** 	size_t i;
  19              		.loc 1 15 2
  16:C:/Users/stapi/OneDrive/Desktop/GD32VW553/V1_MQTT_OK/GD32VW55X_Wifi_BLE_SDK/GD32VW55x_RELEASE_V1.0.2/MSDK/wpa_supplicant/src/drivers\driver_common.c **** 
  17:C:/Users/stapi/OneDrive/Desktop/GD32VW553/V1_MQTT_OK/GD32VW55X_Wifi_BLE_SDK/GD32VW55x_RELEASE_V1.0.2/MSDK/wpa_supplicant/src/drivers\driver_common.c **** 	if (res == NULL)
  20              		.loc 1 17 2
  21              		.loc 1 17 5 is_stmt 0
  22 0000 29C1     		beq	a0,zero,.L9
  14:C:/Users/stapi/OneDrive/Desktop/GD32VW553/V1_MQTT_OK/GD32VW55X_Wifi_BLE_SDK/GD32VW55x_RELEASE_V1.0.2/MSDK/wpa_supplicant/src/drivers\driver_common.c **** 	size_t i;
  23              		.loc 1 14 1
  24 0002 17030000 		call	t0,__riscv_save_2
  24      E7020300 
  25              		.cfi_offset 9, -12
  26              		.cfi_offset 8, -8
  27              		.cfi_offset 1, -4
  28              		.cfi_def_cfa_offset 16
  29 000a 2A84     		mv	s0,a0
  18:C:/Users/stapi/OneDrive/Desktop/GD32VW553/V1_MQTT_OK/GD32VW55X_Wifi_BLE_SDK/GD32VW55x_RELEASE_V1.0.2/MSDK/wpa_supplicant/src/drivers\driver_common.c **** 		return;
  19:C:/Users/stapi/OneDrive/Desktop/GD32VW553/V1_MQTT_OK/GD32VW55X_Wifi_BLE_SDK/GD32VW55x_RELEASE_V1.0.2/MSDK/wpa_supplicant/src/drivers\driver_common.c **** 
  20:C:/Users/stapi/OneDrive/Desktop/GD32VW553/V1_MQTT_OK/GD32VW55X_Wifi_BLE_SDK/GD32VW55x_RELEASE_V1.0.2/MSDK/wpa_supplicant/src/drivers\driver_common.c **** 	for (i = 0; i < res->num; i++)
  30              		.loc 1 20 9
  31 000c 8144     		li	s1,0
  32              	.LVL1:
  33              	.L3:
  34              		.loc 1 20 14 is_stmt 1 discriminator 1
  35              		.loc 1 20 2 is_stmt 0 discriminator 1
  36 000e 5C40     		lw	a5,4(s0)
  21:C:/Users/stapi/OneDrive/Desktop/GD32VW553/V1_MQTT_OK/GD32VW55X_Wifi_BLE_SDK/GD32VW55x_RELEASE_V1.0.2/MSDK/wpa_supplicant/src/drivers\driver_common.c **** 		os_free(res->res[i]);
  37              		.loc 1 21 14 discriminator 1
  38 0010 0840     		lw	a0,0(s0)
  20:C:/Users/stapi/OneDrive/Desktop/GD32VW553/V1_MQTT_OK/GD32VW55X_Wifi_BLE_SDK/GD32VW55x_RELEASE_V1.0.2/MSDK/wpa_supplicant/src/drivers\driver_common.c **** 		os_free(res->res[i]);
  39              		.loc 1 20 2 discriminator 1
  40 0012 63EFF400 		bgtu	a5,s1,.L4
  22:C:/Users/stapi/OneDrive/Desktop/GD32VW553/V1_MQTT_OK/GD32VW55X_Wifi_BLE_SDK/GD32VW55x_RELEASE_V1.0.2/MSDK/wpa_supplicant/src/drivers\driver_common.c **** 	os_free(res->res);
  41              		.loc 1 22 2 is_stmt 1
  42 0016 97000000 		call	os_free
  42      E7800000 
  43              	.LVL2:
  23:C:/Users/stapi/OneDrive/Desktop/GD32VW553/V1_MQTT_OK/GD32VW55X_Wifi_BLE_SDK/GD32VW55x_RELEASE_V1.0.2/MSDK/wpa_supplicant/src/drivers\driver_common.c **** 	os_free(res);
  44              		.loc 1 23 2
  45 001e 2285     		mv	a0,s0
  46 0020 97000000 		call	os_free
  46      E7800000 
  47              	.LVL3:
  24:C:/Users/stapi/OneDrive/Desktop/GD32VW553/V1_MQTT_OK/GD32VW55X_Wifi_BLE_SDK/GD32VW55x_RELEASE_V1.0.2/MSDK/wpa_supplicant/src/drivers\driver_common.c **** }
  48              		.loc 1 24 1 is_stmt 0
  49 0028 17030000 		tail	__riscv_restore_2
  49      67000300 
  50              		.cfi_remember_state
  51              		.cfi_restore 9
  52              		.cfi_restore 8
  53              		.cfi_restore 1
  54              		.cfi_def_cfa_offset 0
  55              	.L4:
  56              		.cfi_restore_state
  21:C:/Users/stapi/OneDrive/Desktop/GD32VW553/V1_MQTT_OK/GD32VW55X_Wifi_BLE_SDK/GD32VW55x_RELEASE_V1.0.2/MSDK/wpa_supplicant/src/drivers\driver_common.c **** 	os_free(res->res);
  57              		.loc 1 21 3 is_stmt 1 discriminator 3
  58 0030 33C5A420 		sh2add	a0,s1,a0
  59 0034 0841     		lw	a0,0(a0)
  20:C:/Users/stapi/OneDrive/Desktop/GD32VW553/V1_MQTT_OK/GD32VW55X_Wifi_BLE_SDK/GD32VW55x_RELEASE_V1.0.2/MSDK/wpa_supplicant/src/drivers\driver_common.c **** 		os_free(res->res[i]);
  60              		.loc 1 20 29 is_stmt 0 discriminator 3
  61 0036 8504     		addi	s1,s1,1
  62              	.LVL4:
  21:C:/Users/stapi/OneDrive/Desktop/GD32VW553/V1_MQTT_OK/GD32VW55X_Wifi_BLE_SDK/GD32VW55x_RELEASE_V1.0.2/MSDK/wpa_supplicant/src/drivers\driver_common.c **** 	os_free(res->res);
  63              		.loc 1 21 3 discriminator 3
  64 0038 97000000 		call	os_free
  64      E7800000 
  65              	.LVL5:
  20:C:/Users/stapi/OneDrive/Desktop/GD32VW553/V1_MQTT_OK/GD32VW55X_Wifi_BLE_SDK/GD32VW55x_RELEASE_V1.0.2/MSDK/wpa_supplicant/src/drivers\driver_common.c **** 		os_free(res->res[i]);
  66              		.loc 1 20 28 is_stmt 1 discriminator 3
  67 0040 F9B7     		j	.L3
  68              	.LVL6:
  69              	.L9:
  70              		.cfi_def_cfa_offset 0
  71              		.cfi_restore 1
  72              		.cfi_restore 8
  73              		.cfi_restore 9
  74 0042 8280     		ret
  75              		.cfi_endproc
  76              	.LFE100:
  78              		.section	.rodata.event_to_string.str1.4,"aMS",@progbits,1
  79              		.align	2
  80              	.LC0:
  81 0000 554E4B4E 		.string	"UNKNOWN"
  81      4F574E00 
  82              		.section	.text.event_to_string,"ax",@progbits
  83              		.align	1
  84              		.globl	event_to_string
  86              	event_to_string:
  87              	.LFB101:
  25:C:/Users/stapi/OneDrive/Desktop/GD32VW553/V1_MQTT_OK/GD32VW55X_Wifi_BLE_SDK/GD32VW55x_RELEASE_V1.0.2/MSDK/wpa_supplicant/src/drivers\driver_common.c **** 
  26:C:/Users/stapi/OneDrive/Desktop/GD32VW553/V1_MQTT_OK/GD32VW55X_Wifi_BLE_SDK/GD32VW55x_RELEASE_V1.0.2/MSDK/wpa_supplicant/src/drivers\driver_common.c **** 
  27:C:/Users/stapi/OneDrive/Desktop/GD32VW553/V1_MQTT_OK/GD32VW55X_Wifi_BLE_SDK/GD32VW55x_RELEASE_V1.0.2/MSDK/wpa_supplicant/src/drivers\driver_common.c **** const char * event_to_string(enum wpa_event_type event)
  28:C:/Users/stapi/OneDrive/Desktop/GD32VW553/V1_MQTT_OK/GD32VW55X_Wifi_BLE_SDK/GD32VW55x_RELEASE_V1.0.2/MSDK/wpa_supplicant/src/drivers\driver_common.c **** {
  88              		.loc 1 28 1
  89              		.cfi_startproc
  90              	.LVL7:
  29:C:/Users/stapi/OneDrive/Desktop/GD32VW553/V1_MQTT_OK/GD32VW55X_Wifi_BLE_SDK/GD32VW55x_RELEASE_V1.0.2/MSDK/wpa_supplicant/src/drivers\driver_common.c **** #define E2S(n) case EVENT_ ## n: return #n
  30:C:/Users/stapi/OneDrive/Desktop/GD32VW553/V1_MQTT_OK/GD32VW55X_Wifi_BLE_SDK/GD32VW55x_RELEASE_V1.0.2/MSDK/wpa_supplicant/src/drivers\driver_common.c **** 	switch (event) {
  91              		.loc 1 30 2
  92 0000 9307D003 		li	a5,61
  93 0004 63EAA700 		bgtu	a0,a5,.L14
  94 0008 B7070000 		lui	a5,%hi(.LANCHOR0)
  95 000c 93870700 		addi	a5,a5,%lo(.LANCHOR0)
  96 0010 3345F520 		sh2add	a0,a0,a5
  97              	.LVL8:
  98 0014 0841     		lw	a0,0(a0)
  99 0016 8280     		ret
 100              	.LVL9:
 101              	.L14:
  28:C:/Users/stapi/OneDrive/Desktop/GD32VW553/V1_MQTT_OK/GD32VW55X_Wifi_BLE_SDK/GD32VW55x_RELEASE_V1.0.2/MSDK/wpa_supplicant/src/drivers\driver_common.c **** #define E2S(n) case EVENT_ ## n: return #n
 102              		.loc 1 28 1 is_stmt 0
 103 0018 37050000 		lui	a0,%hi(.LC0)
 104              	.LVL10:
 105 001c 13050500 		addi	a0,a0,%lo(.LC0)
  31:C:/Users/stapi/OneDrive/Desktop/GD32VW553/V1_MQTT_OK/GD32VW55X_Wifi_BLE_SDK/GD32VW55x_RELEASE_V1.0.2/MSDK/wpa_supplicant/src/drivers\driver_common.c **** 	E2S(ASSOC);
  32:C:/Users/stapi/OneDrive/Desktop/GD32VW553/V1_MQTT_OK/GD32VW55X_Wifi_BLE_SDK/GD32VW55x_RELEASE_V1.0.2/MSDK/wpa_supplicant/src/drivers\driver_common.c **** 	E2S(DISASSOC);
  33:C:/Users/stapi/OneDrive/Desktop/GD32VW553/V1_MQTT_OK/GD32VW55X_Wifi_BLE_SDK/GD32VW55x_RELEASE_V1.0.2/MSDK/wpa_supplicant/src/drivers\driver_common.c **** 	E2S(MICHAEL_MIC_FAILURE);
  34:C:/Users/stapi/OneDrive/Desktop/GD32VW553/V1_MQTT_OK/GD32VW55X_Wifi_BLE_SDK/GD32VW55x_RELEASE_V1.0.2/MSDK/wpa_supplicant/src/drivers\driver_common.c **** 	E2S(SCAN_RESULTS);
  35:C:/Users/stapi/OneDrive/Desktop/GD32VW553/V1_MQTT_OK/GD32VW55X_Wifi_BLE_SDK/GD32VW55x_RELEASE_V1.0.2/MSDK/wpa_supplicant/src/drivers\driver_common.c **** 	E2S(ASSOCINFO);
  36:C:/Users/stapi/OneDrive/Desktop/GD32VW553/V1_MQTT_OK/GD32VW55X_Wifi_BLE_SDK/GD32VW55x_RELEASE_V1.0.2/MSDK/wpa_supplicant/src/drivers\driver_common.c **** 	E2S(INTERFACE_STATUS);
  37:C:/Users/stapi/OneDrive/Desktop/GD32VW553/V1_MQTT_OK/GD32VW55X_Wifi_BLE_SDK/GD32VW55x_RELEASE_V1.0.2/MSDK/wpa_supplicant/src/drivers\driver_common.c **** 	E2S(PMKID_CANDIDATE);
  38:C:/Users/stapi/OneDrive/Desktop/GD32VW553/V1_MQTT_OK/GD32VW55X_Wifi_BLE_SDK/GD32VW55x_RELEASE_V1.0.2/MSDK/wpa_supplicant/src/drivers\driver_common.c **** 	E2S(TDLS);
  39:C:/Users/stapi/OneDrive/Desktop/GD32VW553/V1_MQTT_OK/GD32VW55X_Wifi_BLE_SDK/GD32VW55x_RELEASE_V1.0.2/MSDK/wpa_supplicant/src/drivers\driver_common.c **** 	E2S(FT_RESPONSE);
  40:C:/Users/stapi/OneDrive/Desktop/GD32VW553/V1_MQTT_OK/GD32VW55X_Wifi_BLE_SDK/GD32VW55x_RELEASE_V1.0.2/MSDK/wpa_supplicant/src/drivers\driver_common.c **** 	E2S(IBSS_RSN_START);
  41:C:/Users/stapi/OneDrive/Desktop/GD32VW553/V1_MQTT_OK/GD32VW55X_Wifi_BLE_SDK/GD32VW55x_RELEASE_V1.0.2/MSDK/wpa_supplicant/src/drivers\driver_common.c **** 	E2S(AUTH);
  42:C:/Users/stapi/OneDrive/Desktop/GD32VW553/V1_MQTT_OK/GD32VW55X_Wifi_BLE_SDK/GD32VW55x_RELEASE_V1.0.2/MSDK/wpa_supplicant/src/drivers\driver_common.c **** 	E2S(DEAUTH);
  43:C:/Users/stapi/OneDrive/Desktop/GD32VW553/V1_MQTT_OK/GD32VW55X_Wifi_BLE_SDK/GD32VW55x_RELEASE_V1.0.2/MSDK/wpa_supplicant/src/drivers\driver_common.c **** 	E2S(ASSOC_REJECT);
  44:C:/Users/stapi/OneDrive/Desktop/GD32VW553/V1_MQTT_OK/GD32VW55X_Wifi_BLE_SDK/GD32VW55x_RELEASE_V1.0.2/MSDK/wpa_supplicant/src/drivers\driver_common.c **** 	E2S(AUTH_TIMED_OUT);
  45:C:/Users/stapi/OneDrive/Desktop/GD32VW553/V1_MQTT_OK/GD32VW55X_Wifi_BLE_SDK/GD32VW55x_RELEASE_V1.0.2/MSDK/wpa_supplicant/src/drivers\driver_common.c **** 	E2S(ASSOC_TIMED_OUT);
  46:C:/Users/stapi/OneDrive/Desktop/GD32VW553/V1_MQTT_OK/GD32VW55X_Wifi_BLE_SDK/GD32VW55x_RELEASE_V1.0.2/MSDK/wpa_supplicant/src/drivers\driver_common.c **** 	E2S(WPS_BUTTON_PUSHED);
  47:C:/Users/stapi/OneDrive/Desktop/GD32VW553/V1_MQTT_OK/GD32VW55X_Wifi_BLE_SDK/GD32VW55x_RELEASE_V1.0.2/MSDK/wpa_supplicant/src/drivers\driver_common.c **** 	E2S(TX_STATUS);
  48:C:/Users/stapi/OneDrive/Desktop/GD32VW553/V1_MQTT_OK/GD32VW55X_Wifi_BLE_SDK/GD32VW55x_RELEASE_V1.0.2/MSDK/wpa_supplicant/src/drivers\driver_common.c **** 	E2S(RX_FROM_UNKNOWN);
  49:C:/Users/stapi/OneDrive/Desktop/GD32VW553/V1_MQTT_OK/GD32VW55X_Wifi_BLE_SDK/GD32VW55x_RELEASE_V1.0.2/MSDK/wpa_supplicant/src/drivers\driver_common.c **** 	E2S(RX_MGMT);
  50:C:/Users/stapi/OneDrive/Desktop/GD32VW553/V1_MQTT_OK/GD32VW55X_Wifi_BLE_SDK/GD32VW55x_RELEASE_V1.0.2/MSDK/wpa_supplicant/src/drivers\driver_common.c **** 	E2S(REMAIN_ON_CHANNEL);
  51:C:/Users/stapi/OneDrive/Desktop/GD32VW553/V1_MQTT_OK/GD32VW55X_Wifi_BLE_SDK/GD32VW55x_RELEASE_V1.0.2/MSDK/wpa_supplicant/src/drivers\driver_common.c **** 	E2S(CANCEL_REMAIN_ON_CHANNEL);
  52:C:/Users/stapi/OneDrive/Desktop/GD32VW553/V1_MQTT_OK/GD32VW55X_Wifi_BLE_SDK/GD32VW55x_RELEASE_V1.0.2/MSDK/wpa_supplicant/src/drivers\driver_common.c **** 	E2S(RX_PROBE_REQ);
  53:C:/Users/stapi/OneDrive/Desktop/GD32VW553/V1_MQTT_OK/GD32VW55X_Wifi_BLE_SDK/GD32VW55x_RELEASE_V1.0.2/MSDK/wpa_supplicant/src/drivers\driver_common.c **** 	E2S(NEW_STA);
  54:C:/Users/stapi/OneDrive/Desktop/GD32VW553/V1_MQTT_OK/GD32VW55X_Wifi_BLE_SDK/GD32VW55x_RELEASE_V1.0.2/MSDK/wpa_supplicant/src/drivers\driver_common.c **** 	E2S(EAPOL_RX);
  55:C:/Users/stapi/OneDrive/Desktop/GD32VW553/V1_MQTT_OK/GD32VW55X_Wifi_BLE_SDK/GD32VW55x_RELEASE_V1.0.2/MSDK/wpa_supplicant/src/drivers\driver_common.c **** 	E2S(SIGNAL_CHANGE);
  56:C:/Users/stapi/OneDrive/Desktop/GD32VW553/V1_MQTT_OK/GD32VW55X_Wifi_BLE_SDK/GD32VW55x_RELEASE_V1.0.2/MSDK/wpa_supplicant/src/drivers\driver_common.c **** 	E2S(INTERFACE_ENABLED);
  57:C:/Users/stapi/OneDrive/Desktop/GD32VW553/V1_MQTT_OK/GD32VW55X_Wifi_BLE_SDK/GD32VW55x_RELEASE_V1.0.2/MSDK/wpa_supplicant/src/drivers\driver_common.c **** 	E2S(INTERFACE_DISABLED);
  58:C:/Users/stapi/OneDrive/Desktop/GD32VW553/V1_MQTT_OK/GD32VW55X_Wifi_BLE_SDK/GD32VW55x_RELEASE_V1.0.2/MSDK/wpa_supplicant/src/drivers\driver_common.c **** 	E2S(CHANNEL_LIST_CHANGED);
  59:C:/Users/stapi/OneDrive/Desktop/GD32VW553/V1_MQTT_OK/GD32VW55X_Wifi_BLE_SDK/GD32VW55x_RELEASE_V1.0.2/MSDK/wpa_supplicant/src/drivers\driver_common.c **** 	E2S(INTERFACE_UNAVAILABLE);
  60:C:/Users/stapi/OneDrive/Desktop/GD32VW553/V1_MQTT_OK/GD32VW55X_Wifi_BLE_SDK/GD32VW55x_RELEASE_V1.0.2/MSDK/wpa_supplicant/src/drivers\driver_common.c **** 	E2S(BEST_CHANNEL);
  61:C:/Users/stapi/OneDrive/Desktop/GD32VW553/V1_MQTT_OK/GD32VW55X_Wifi_BLE_SDK/GD32VW55x_RELEASE_V1.0.2/MSDK/wpa_supplicant/src/drivers\driver_common.c **** 	E2S(UNPROT_DEAUTH);
  62:C:/Users/stapi/OneDrive/Desktop/GD32VW553/V1_MQTT_OK/GD32VW55X_Wifi_BLE_SDK/GD32VW55x_RELEASE_V1.0.2/MSDK/wpa_supplicant/src/drivers\driver_common.c **** 	E2S(UNPROT_DISASSOC);
  63:C:/Users/stapi/OneDrive/Desktop/GD32VW553/V1_MQTT_OK/GD32VW55X_Wifi_BLE_SDK/GD32VW55x_RELEASE_V1.0.2/MSDK/wpa_supplicant/src/drivers\driver_common.c **** 	E2S(STATION_LOW_ACK);
  64:C:/Users/stapi/OneDrive/Desktop/GD32VW553/V1_MQTT_OK/GD32VW55X_Wifi_BLE_SDK/GD32VW55x_RELEASE_V1.0.2/MSDK/wpa_supplicant/src/drivers\driver_common.c **** 	E2S(IBSS_PEER_LOST);
  65:C:/Users/stapi/OneDrive/Desktop/GD32VW553/V1_MQTT_OK/GD32VW55X_Wifi_BLE_SDK/GD32VW55x_RELEASE_V1.0.2/MSDK/wpa_supplicant/src/drivers\driver_common.c **** 	E2S(DRIVER_GTK_REKEY);
  66:C:/Users/stapi/OneDrive/Desktop/GD32VW553/V1_MQTT_OK/GD32VW55X_Wifi_BLE_SDK/GD32VW55x_RELEASE_V1.0.2/MSDK/wpa_supplicant/src/drivers\driver_common.c **** 	E2S(SCHED_SCAN_STOPPED);
  67:C:/Users/stapi/OneDrive/Desktop/GD32VW553/V1_MQTT_OK/GD32VW55X_Wifi_BLE_SDK/GD32VW55x_RELEASE_V1.0.2/MSDK/wpa_supplicant/src/drivers\driver_common.c **** 	E2S(DRIVER_CLIENT_POLL_OK);
  68:C:/Users/stapi/OneDrive/Desktop/GD32VW553/V1_MQTT_OK/GD32VW55X_Wifi_BLE_SDK/GD32VW55x_RELEASE_V1.0.2/MSDK/wpa_supplicant/src/drivers\driver_common.c **** 	E2S(EAPOL_TX_STATUS);
  69:C:/Users/stapi/OneDrive/Desktop/GD32VW553/V1_MQTT_OK/GD32VW55X_Wifi_BLE_SDK/GD32VW55x_RELEASE_V1.0.2/MSDK/wpa_supplicant/src/drivers\driver_common.c **** 	E2S(CH_SWITCH);
  70:C:/Users/stapi/OneDrive/Desktop/GD32VW553/V1_MQTT_OK/GD32VW55X_Wifi_BLE_SDK/GD32VW55x_RELEASE_V1.0.2/MSDK/wpa_supplicant/src/drivers\driver_common.c **** 	E2S(CH_SWITCH_STARTED);
  71:C:/Users/stapi/OneDrive/Desktop/GD32VW553/V1_MQTT_OK/GD32VW55X_Wifi_BLE_SDK/GD32VW55x_RELEASE_V1.0.2/MSDK/wpa_supplicant/src/drivers\driver_common.c **** 	E2S(WNM);
  72:C:/Users/stapi/OneDrive/Desktop/GD32VW553/V1_MQTT_OK/GD32VW55X_Wifi_BLE_SDK/GD32VW55x_RELEASE_V1.0.2/MSDK/wpa_supplicant/src/drivers\driver_common.c **** 	E2S(CONNECT_FAILED_REASON);
  73:C:/Users/stapi/OneDrive/Desktop/GD32VW553/V1_MQTT_OK/GD32VW55X_Wifi_BLE_SDK/GD32VW55x_RELEASE_V1.0.2/MSDK/wpa_supplicant/src/drivers\driver_common.c **** 	E2S(DFS_RADAR_DETECTED);
  74:C:/Users/stapi/OneDrive/Desktop/GD32VW553/V1_MQTT_OK/GD32VW55X_Wifi_BLE_SDK/GD32VW55x_RELEASE_V1.0.2/MSDK/wpa_supplicant/src/drivers\driver_common.c **** 	E2S(DFS_CAC_FINISHED);
  75:C:/Users/stapi/OneDrive/Desktop/GD32VW553/V1_MQTT_OK/GD32VW55X_Wifi_BLE_SDK/GD32VW55x_RELEASE_V1.0.2/MSDK/wpa_supplicant/src/drivers\driver_common.c **** 	E2S(DFS_CAC_ABORTED);
  76:C:/Users/stapi/OneDrive/Desktop/GD32VW553/V1_MQTT_OK/GD32VW55X_Wifi_BLE_SDK/GD32VW55x_RELEASE_V1.0.2/MSDK/wpa_supplicant/src/drivers\driver_common.c **** 	E2S(DFS_NOP_FINISHED);
  77:C:/Users/stapi/OneDrive/Desktop/GD32VW553/V1_MQTT_OK/GD32VW55X_Wifi_BLE_SDK/GD32VW55x_RELEASE_V1.0.2/MSDK/wpa_supplicant/src/drivers\driver_common.c **** 	E2S(SURVEY);
  78:C:/Users/stapi/OneDrive/Desktop/GD32VW553/V1_MQTT_OK/GD32VW55X_Wifi_BLE_SDK/GD32VW55x_RELEASE_V1.0.2/MSDK/wpa_supplicant/src/drivers\driver_common.c **** 	E2S(SCAN_STARTED);
  79:C:/Users/stapi/OneDrive/Desktop/GD32VW553/V1_MQTT_OK/GD32VW55X_Wifi_BLE_SDK/GD32VW55x_RELEASE_V1.0.2/MSDK/wpa_supplicant/src/drivers\driver_common.c **** 	E2S(AVOID_FREQUENCIES);
  80:C:/Users/stapi/OneDrive/Desktop/GD32VW553/V1_MQTT_OK/GD32VW55X_Wifi_BLE_SDK/GD32VW55x_RELEASE_V1.0.2/MSDK/wpa_supplicant/src/drivers\driver_common.c **** 	E2S(NEW_PEER_CANDIDATE);
  81:C:/Users/stapi/OneDrive/Desktop/GD32VW553/V1_MQTT_OK/GD32VW55X_Wifi_BLE_SDK/GD32VW55x_RELEASE_V1.0.2/MSDK/wpa_supplicant/src/drivers\driver_common.c **** 	E2S(ACS_CHANNEL_SELECTED);
  82:C:/Users/stapi/OneDrive/Desktop/GD32VW553/V1_MQTT_OK/GD32VW55X_Wifi_BLE_SDK/GD32VW55x_RELEASE_V1.0.2/MSDK/wpa_supplicant/src/drivers\driver_common.c **** 	E2S(DFS_CAC_STARTED);
  83:C:/Users/stapi/OneDrive/Desktop/GD32VW553/V1_MQTT_OK/GD32VW55X_Wifi_BLE_SDK/GD32VW55x_RELEASE_V1.0.2/MSDK/wpa_supplicant/src/drivers\driver_common.c **** 	E2S(P2P_LO_STOP);
  84:C:/Users/stapi/OneDrive/Desktop/GD32VW553/V1_MQTT_OK/GD32VW55X_Wifi_BLE_SDK/GD32VW55x_RELEASE_V1.0.2/MSDK/wpa_supplicant/src/drivers\driver_common.c **** 	E2S(BEACON_LOSS);
  85:C:/Users/stapi/OneDrive/Desktop/GD32VW553/V1_MQTT_OK/GD32VW55X_Wifi_BLE_SDK/GD32VW55x_RELEASE_V1.0.2/MSDK/wpa_supplicant/src/drivers\driver_common.c **** 	E2S(DFS_PRE_CAC_EXPIRED);
  86:C:/Users/stapi/OneDrive/Desktop/GD32VW553/V1_MQTT_OK/GD32VW55X_Wifi_BLE_SDK/GD32VW55x_RELEASE_V1.0.2/MSDK/wpa_supplicant/src/drivers\driver_common.c **** 	E2S(EXTERNAL_AUTH);
  87:C:/Users/stapi/OneDrive/Desktop/GD32VW553/V1_MQTT_OK/GD32VW55X_Wifi_BLE_SDK/GD32VW55x_RELEASE_V1.0.2/MSDK/wpa_supplicant/src/drivers\driver_common.c **** 	E2S(PORT_AUTHORIZED);
  88:C:/Users/stapi/OneDrive/Desktop/GD32VW553/V1_MQTT_OK/GD32VW55X_Wifi_BLE_SDK/GD32VW55x_RELEASE_V1.0.2/MSDK/wpa_supplicant/src/drivers\driver_common.c **** 	E2S(STATION_OPMODE_CHANGED);
  89:C:/Users/stapi/OneDrive/Desktop/GD32VW553/V1_MQTT_OK/GD32VW55X_Wifi_BLE_SDK/GD32VW55x_RELEASE_V1.0.2/MSDK/wpa_supplicant/src/drivers\driver_common.c **** 	E2S(INTERFACE_MAC_CHANGED);
  90:C:/Users/stapi/OneDrive/Desktop/GD32VW553/V1_MQTT_OK/GD32VW55X_Wifi_BLE_SDK/GD32VW55x_RELEASE_V1.0.2/MSDK/wpa_supplicant/src/drivers\driver_common.c **** 	E2S(WDS_STA_INTERFACE_STATUS);
  91:C:/Users/stapi/OneDrive/Desktop/GD32VW553/V1_MQTT_OK/GD32VW55X_Wifi_BLE_SDK/GD32VW55x_RELEASE_V1.0.2/MSDK/wpa_supplicant/src/drivers\driver_common.c **** 	E2S(UPDATE_DH);
  92:C:/Users/stapi/OneDrive/Desktop/GD32VW553/V1_MQTT_OK/GD32VW55X_Wifi_BLE_SDK/GD32VW55x_RELEASE_V1.0.2/MSDK/wpa_supplicant/src/drivers\driver_common.c **** 	E2S(UNPROT_BEACON);
  93:C:/Users/stapi/OneDrive/Desktop/GD32VW553/V1_MQTT_OK/GD32VW55X_Wifi_BLE_SDK/GD32VW55x_RELEASE_V1.0.2/MSDK/wpa_supplicant/src/drivers\driver_common.c **** 	}
  94:C:/Users/stapi/OneDrive/Desktop/GD32VW553/V1_MQTT_OK/GD32VW55X_Wifi_BLE_SDK/GD32VW55x_RELEASE_V1.0.2/MSDK/wpa_supplicant/src/drivers\driver_common.c **** 
  95:C:/Users/stapi/OneDrive/Desktop/GD32VW553/V1_MQTT_OK/GD32VW55X_Wifi_BLE_SDK/GD32VW55x_RELEASE_V1.0.2/MSDK/wpa_supplicant/src/drivers\driver_common.c **** 	return "UNKNOWN";
  96:C:/Users/stapi/OneDrive/Desktop/GD32VW553/V1_MQTT_OK/GD32VW55X_Wifi_BLE_SDK/GD32VW55x_RELEASE_V1.0.2/MSDK/wpa_supplicant/src/drivers\driver_common.c **** #undef E2S
  97:C:/Users/stapi/OneDrive/Desktop/GD32VW553/V1_MQTT_OK/GD32VW55X_Wifi_BLE_SDK/GD32VW55x_RELEASE_V1.0.2/MSDK/wpa_supplicant/src/drivers\driver_common.c **** }
 106              		.loc 1 97 1
 107 0020 8280     		ret
 108              		.cfi_endproc
 109              	.LFE101:
 111              		.section	.rodata.channel_width_to_string.str1.4,"aMS",@progbits,1
 112              		.align	2
 113              	.LC1:
 114 0000 756E6B6E 		.string	"unknown"
 114      6F776E00 
 115              		.section	.text.channel_width_to_string,"ax",@progbits
 116              		.align	1
 117              		.globl	channel_width_to_string
 119              	channel_width_to_string:
 120              	.LFB102:
  98:C:/Users/stapi/OneDrive/Desktop/GD32VW553/V1_MQTT_OK/GD32VW55X_Wifi_BLE_SDK/GD32VW55x_RELEASE_V1.0.2/MSDK/wpa_supplicant/src/drivers\driver_common.c **** 
  99:C:/Users/stapi/OneDrive/Desktop/GD32VW553/V1_MQTT_OK/GD32VW55X_Wifi_BLE_SDK/GD32VW55x_RELEASE_V1.0.2/MSDK/wpa_supplicant/src/drivers\driver_common.c **** 
 100:C:/Users/stapi/OneDrive/Desktop/GD32VW553/V1_MQTT_OK/GD32VW55X_Wifi_BLE_SDK/GD32VW55x_RELEASE_V1.0.2/MSDK/wpa_supplicant/src/drivers\driver_common.c **** const char * channel_width_to_string(enum chan_width width)
 101:C:/Users/stapi/OneDrive/Desktop/GD32VW553/V1_MQTT_OK/GD32VW55X_Wifi_BLE_SDK/GD32VW55x_RELEASE_V1.0.2/MSDK/wpa_supplicant/src/drivers\driver_common.c **** {
 121              		.loc 1 101 1 is_stmt 1
 122              		.cfi_startproc
 123              	.LVL11:
 102:C:/Users/stapi/OneDrive/Desktop/GD32VW553/V1_MQTT_OK/GD32VW55X_Wifi_BLE_SDK/GD32VW55x_RELEASE_V1.0.2/MSDK/wpa_supplicant/src/drivers\driver_common.c **** 	switch (width) {
 124              		.loc 1 102 2
 125 0000 9547     		li	a5,5
 126 0002 63EAA700 		bgtu	a0,a5,.L17
 127 0006 B7070000 		lui	a5,%hi(.LANCHOR1)
 128 000a 93870700 		addi	a5,a5,%lo(.LANCHOR1)
 129 000e 3345F520 		sh2add	a0,a0,a5
 130              	.LVL12:
 131 0012 0841     		lw	a0,0(a0)
 132 0014 8280     		ret
 133              	.LVL13:
 134              	.L17:
 101:C:/Users/stapi/OneDrive/Desktop/GD32VW553/V1_MQTT_OK/GD32VW55X_Wifi_BLE_SDK/GD32VW55x_RELEASE_V1.0.2/MSDK/wpa_supplicant/src/drivers\driver_common.c **** 	switch (width) {
 135              		.loc 1 101 1 is_stmt 0
 136 0016 37050000 		lui	a0,%hi(.LC1)
 137              	.LVL14:
 138 001a 13050500 		addi	a0,a0,%lo(.LC1)
 103:C:/Users/stapi/OneDrive/Desktop/GD32VW553/V1_MQTT_OK/GD32VW55X_Wifi_BLE_SDK/GD32VW55x_RELEASE_V1.0.2/MSDK/wpa_supplicant/src/drivers\driver_common.c **** 	case CHAN_WIDTH_20_NOHT:
 104:C:/Users/stapi/OneDrive/Desktop/GD32VW553/V1_MQTT_OK/GD32VW55X_Wifi_BLE_SDK/GD32VW55x_RELEASE_V1.0.2/MSDK/wpa_supplicant/src/drivers\driver_common.c **** 		return "20 MHz (no HT)";
 105:C:/Users/stapi/OneDrive/Desktop/GD32VW553/V1_MQTT_OK/GD32VW55X_Wifi_BLE_SDK/GD32VW55x_RELEASE_V1.0.2/MSDK/wpa_supplicant/src/drivers\driver_common.c **** 	case CHAN_WIDTH_20:
 106:C:/Users/stapi/OneDrive/Desktop/GD32VW553/V1_MQTT_OK/GD32VW55X_Wifi_BLE_SDK/GD32VW55x_RELEASE_V1.0.2/MSDK/wpa_supplicant/src/drivers\driver_common.c **** 		return "20 MHz";
 107:C:/Users/stapi/OneDrive/Desktop/GD32VW553/V1_MQTT_OK/GD32VW55X_Wifi_BLE_SDK/GD32VW55x_RELEASE_V1.0.2/MSDK/wpa_supplicant/src/drivers\driver_common.c **** 	case CHAN_WIDTH_40:
 108:C:/Users/stapi/OneDrive/Desktop/GD32VW553/V1_MQTT_OK/GD32VW55X_Wifi_BLE_SDK/GD32VW55x_RELEASE_V1.0.2/MSDK/wpa_supplicant/src/drivers\driver_common.c **** 		return "40 MHz";
 109:C:/Users/stapi/OneDrive/Desktop/GD32VW553/V1_MQTT_OK/GD32VW55X_Wifi_BLE_SDK/GD32VW55x_RELEASE_V1.0.2/MSDK/wpa_supplicant/src/drivers\driver_common.c **** 	case CHAN_WIDTH_80:
 110:C:/Users/stapi/OneDrive/Desktop/GD32VW553/V1_MQTT_OK/GD32VW55X_Wifi_BLE_SDK/GD32VW55x_RELEASE_V1.0.2/MSDK/wpa_supplicant/src/drivers\driver_common.c **** 		return "80 MHz";
 111:C:/Users/stapi/OneDrive/Desktop/GD32VW553/V1_MQTT_OK/GD32VW55X_Wifi_BLE_SDK/GD32VW55x_RELEASE_V1.0.2/MSDK/wpa_supplicant/src/drivers\driver_common.c **** 	case CHAN_WIDTH_80P80:
 112:C:/Users/stapi/OneDrive/Desktop/GD32VW553/V1_MQTT_OK/GD32VW55X_Wifi_BLE_SDK/GD32VW55x_RELEASE_V1.0.2/MSDK/wpa_supplicant/src/drivers\driver_common.c **** 		return "80+80 MHz";
 113:C:/Users/stapi/OneDrive/Desktop/GD32VW553/V1_MQTT_OK/GD32VW55X_Wifi_BLE_SDK/GD32VW55x_RELEASE_V1.0.2/MSDK/wpa_supplicant/src/drivers\driver_common.c **** 	case CHAN_WIDTH_160:
 114:C:/Users/stapi/OneDrive/Desktop/GD32VW553/V1_MQTT_OK/GD32VW55X_Wifi_BLE_SDK/GD32VW55x_RELEASE_V1.0.2/MSDK/wpa_supplicant/src/drivers\driver_common.c **** 		return "160 MHz";
 115:C:/Users/stapi/OneDrive/Desktop/GD32VW553/V1_MQTT_OK/GD32VW55X_Wifi_BLE_SDK/GD32VW55x_RELEASE_V1.0.2/MSDK/wpa_supplicant/src/drivers\driver_common.c **** 	default:
 116:C:/Users/stapi/OneDrive/Desktop/GD32VW553/V1_MQTT_OK/GD32VW55X_Wifi_BLE_SDK/GD32VW55x_RELEASE_V1.0.2/MSDK/wpa_supplicant/src/drivers\driver_common.c **** 		return "unknown";
 117:C:/Users/stapi/OneDrive/Desktop/GD32VW553/V1_MQTT_OK/GD32VW55X_Wifi_BLE_SDK/GD32VW55x_RELEASE_V1.0.2/MSDK/wpa_supplicant/src/drivers\driver_common.c **** 	}
 118:C:/Users/stapi/OneDrive/Desktop/GD32VW553/V1_MQTT_OK/GD32VW55X_Wifi_BLE_SDK/GD32VW55x_RELEASE_V1.0.2/MSDK/wpa_supplicant/src/drivers\driver_common.c **** }
 139              		.loc 1 118 1
 140 001e 8280     		ret
 141              		.cfi_endproc
 142              	.LFE102:
 144              		.section	.text.channel_width_to_int,"ax",@progbits
 145              		.align	1
 146              		.globl	channel_width_to_int
 148              	channel_width_to_int:
 149              	.LFB103:
 119:C:/Users/stapi/OneDrive/Desktop/GD32VW553/V1_MQTT_OK/GD32VW55X_Wifi_BLE_SDK/GD32VW55x_RELEASE_V1.0.2/MSDK/wpa_supplicant/src/drivers\driver_common.c **** 
 120:C:/Users/stapi/OneDrive/Desktop/GD32VW553/V1_MQTT_OK/GD32VW55X_Wifi_BLE_SDK/GD32VW55x_RELEASE_V1.0.2/MSDK/wpa_supplicant/src/drivers\driver_common.c **** 
 121:C:/Users/stapi/OneDrive/Desktop/GD32VW553/V1_MQTT_OK/GD32VW55X_Wifi_BLE_SDK/GD32VW55x_RELEASE_V1.0.2/MSDK/wpa_supplicant/src/drivers\driver_common.c **** int channel_width_to_int(enum chan_width width)
 122:C:/Users/stapi/OneDrive/Desktop/GD32VW553/V1_MQTT_OK/GD32VW55X_Wifi_BLE_SDK/GD32VW55x_RELEASE_V1.0.2/MSDK/wpa_supplicant/src/drivers\driver_common.c **** {
 150              		.loc 1 122 1 is_stmt 1
 151              		.cfi_startproc
 152              	.LVL15:
 123:C:/Users/stapi/OneDrive/Desktop/GD32VW553/V1_MQTT_OK/GD32VW55X_Wifi_BLE_SDK/GD32VW55x_RELEASE_V1.0.2/MSDK/wpa_supplicant/src/drivers\driver_common.c **** 	switch (width) {
 153              		.loc 1 123 2
 154 0000 9547     		li	a5,5
 155 0002 63EAA700 		bgtu	a0,a5,.L20
 156 0006 B7070000 		lui	a5,%hi(.LANCHOR2)
 157 000a 93870700 		addi	a5,a5,%lo(.LANCHOR2)
 158 000e 3E95     		add	a0,a5,a0
 159              	.LVL16:
 160 0010 03450500 		lbu	a0,0(a0)
 161 0014 8280     		ret
 162              	.LVL17:
 163              	.L20:
 122:C:/Users/stapi/OneDrive/Desktop/GD32VW553/V1_MQTT_OK/GD32VW55X_Wifi_BLE_SDK/GD32VW55x_RELEASE_V1.0.2/MSDK/wpa_supplicant/src/drivers\driver_common.c **** 	switch (width) {
 164              		.loc 1 122 1 is_stmt 0
 165 0016 0145     		li	a0,0
 166              	.LVL18:
 124:C:/Users/stapi/OneDrive/Desktop/GD32VW553/V1_MQTT_OK/GD32VW55X_Wifi_BLE_SDK/GD32VW55x_RELEASE_V1.0.2/MSDK/wpa_supplicant/src/drivers\driver_common.c **** 	case CHAN_WIDTH_20_NOHT:
 125:C:/Users/stapi/OneDrive/Desktop/GD32VW553/V1_MQTT_OK/GD32VW55X_Wifi_BLE_SDK/GD32VW55x_RELEASE_V1.0.2/MSDK/wpa_supplicant/src/drivers\driver_common.c **** 	case CHAN_WIDTH_20:
 126:C:/Users/stapi/OneDrive/Desktop/GD32VW553/V1_MQTT_OK/GD32VW55X_Wifi_BLE_SDK/GD32VW55x_RELEASE_V1.0.2/MSDK/wpa_supplicant/src/drivers\driver_common.c **** 		return 20;
 127:C:/Users/stapi/OneDrive/Desktop/GD32VW553/V1_MQTT_OK/GD32VW55X_Wifi_BLE_SDK/GD32VW55x_RELEASE_V1.0.2/MSDK/wpa_supplicant/src/drivers\driver_common.c **** 	case CHAN_WIDTH_40:
 128:C:/Users/stapi/OneDrive/Desktop/GD32VW553/V1_MQTT_OK/GD32VW55X_Wifi_BLE_SDK/GD32VW55x_RELEASE_V1.0.2/MSDK/wpa_supplicant/src/drivers\driver_common.c **** 		return 40;
 129:C:/Users/stapi/OneDrive/Desktop/GD32VW553/V1_MQTT_OK/GD32VW55X_Wifi_BLE_SDK/GD32VW55x_RELEASE_V1.0.2/MSDK/wpa_supplicant/src/drivers\driver_common.c **** 	case CHAN_WIDTH_80:
 130:C:/Users/stapi/OneDrive/Desktop/GD32VW553/V1_MQTT_OK/GD32VW55X_Wifi_BLE_SDK/GD32VW55x_RELEASE_V1.0.2/MSDK/wpa_supplicant/src/drivers\driver_common.c **** 		return 80;
 131:C:/Users/stapi/OneDrive/Desktop/GD32VW553/V1_MQTT_OK/GD32VW55X_Wifi_BLE_SDK/GD32VW55x_RELEASE_V1.0.2/MSDK/wpa_supplicant/src/drivers\driver_common.c **** 	case CHAN_WIDTH_80P80:
 132:C:/Users/stapi/OneDrive/Desktop/GD32VW553/V1_MQTT_OK/GD32VW55X_Wifi_BLE_SDK/GD32VW55x_RELEASE_V1.0.2/MSDK/wpa_supplicant/src/drivers\driver_common.c **** 	case CHAN_WIDTH_160:
 133:C:/Users/stapi/OneDrive/Desktop/GD32VW553/V1_MQTT_OK/GD32VW55X_Wifi_BLE_SDK/GD32VW55x_RELEASE_V1.0.2/MSDK/wpa_supplicant/src/drivers\driver_common.c **** 		return 160;
 134:C:/Users/stapi/OneDrive/Desktop/GD32VW553/V1_MQTT_OK/GD32VW55X_Wifi_BLE_SDK/GD32VW55x_RELEASE_V1.0.2/MSDK/wpa_supplicant/src/drivers\driver_common.c **** 	default:
 135:C:/Users/stapi/OneDrive/Desktop/GD32VW553/V1_MQTT_OK/GD32VW55X_Wifi_BLE_SDK/GD32VW55x_RELEASE_V1.0.2/MSDK/wpa_supplicant/src/drivers\driver_common.c **** 		return 0;
 136:C:/Users/stapi/OneDrive/Desktop/GD32VW553/V1_MQTT_OK/GD32VW55X_Wifi_BLE_SDK/GD32VW55x_RELEASE_V1.0.2/MSDK/wpa_supplicant/src/drivers\driver_common.c **** 	}
 137:C:/Users/stapi/OneDrive/Desktop/GD32VW553/V1_MQTT_OK/GD32VW55X_Wifi_BLE_SDK/GD32VW55x_RELEASE_V1.0.2/MSDK/wpa_supplicant/src/drivers\driver_common.c **** }
 167              		.loc 1 137 1
 168 0018 8280     		ret
 169              		.cfi_endproc
 170              	.LFE103:
 172              		.section	.text.ht_supported,"ax",@progbits
 173              		.align	1
 174              		.globl	ht_supported
 176              	ht_supported:
 177              	.LFB104:
 138:C:/Users/stapi/OneDrive/Desktop/GD32VW553/V1_MQTT_OK/GD32VW55X_Wifi_BLE_SDK/GD32VW55x_RELEASE_V1.0.2/MSDK/wpa_supplicant/src/drivers\driver_common.c **** 
 139:C:/Users/stapi/OneDrive/Desktop/GD32VW553/V1_MQTT_OK/GD32VW55X_Wifi_BLE_SDK/GD32VW55x_RELEASE_V1.0.2/MSDK/wpa_supplicant/src/drivers\driver_common.c **** 
 140:C:/Users/stapi/OneDrive/Desktop/GD32VW553/V1_MQTT_OK/GD32VW55X_Wifi_BLE_SDK/GD32VW55x_RELEASE_V1.0.2/MSDK/wpa_supplicant/src/drivers\driver_common.c **** int ht_supported(const struct hostapd_hw_modes *mode)
 141:C:/Users/stapi/OneDrive/Desktop/GD32VW553/V1_MQTT_OK/GD32VW55X_Wifi_BLE_SDK/GD32VW55x_RELEASE_V1.0.2/MSDK/wpa_supplicant/src/drivers\driver_common.c **** {
 178              		.loc 1 141 1 is_stmt 1
 179              		.cfi_startproc
 180              	.LVL19:
 142:C:/Users/stapi/OneDrive/Desktop/GD32VW553/V1_MQTT_OK/GD32VW55X_Wifi_BLE_SDK/GD32VW55x_RELEASE_V1.0.2/MSDK/wpa_supplicant/src/drivers\driver_common.c **** 	if (!(mode->flags & HOSTAPD_MODE_FLAG_HT_INFO_KNOWN)) {
 181              		.loc 1 142 2
 182              		.loc 1 142 20 is_stmt 0
 183 0000 5C59     		lw	a5,52(a0)
 184 0002 858B     		andi	a5,a5,1
 185              		.loc 1 142 5
 186 0004 81CB     		beq	a5,zero,.L23
 143:C:/Users/stapi/OneDrive/Desktop/GD32VW553/V1_MQTT_OK/GD32VW55X_Wifi_BLE_SDK/GD32VW55x_RELEASE_V1.0.2/MSDK/wpa_supplicant/src/drivers\driver_common.c **** 		/*
 144:C:/Users/stapi/OneDrive/Desktop/GD32VW553/V1_MQTT_OK/GD32VW55X_Wifi_BLE_SDK/GD32VW55x_RELEASE_V1.0.2/MSDK/wpa_supplicant/src/drivers\driver_common.c **** 		 * The driver did not indicate whether it supports HT. Assume
 145:C:/Users/stapi/OneDrive/Desktop/GD32VW553/V1_MQTT_OK/GD32VW55X_Wifi_BLE_SDK/GD32VW55x_RELEASE_V1.0.2/MSDK/wpa_supplicant/src/drivers\driver_common.c **** 		 * it does to avoid connection issues.
 146:C:/Users/stapi/OneDrive/Desktop/GD32VW553/V1_MQTT_OK/GD32VW55X_Wifi_BLE_SDK/GD32VW55x_RELEASE_V1.0.2/MSDK/wpa_supplicant/src/drivers\driver_common.c **** 		 */
 147:C:/Users/stapi/OneDrive/Desktop/GD32VW553/V1_MQTT_OK/GD32VW55X_Wifi_BLE_SDK/GD32VW55x_RELEASE_V1.0.2/MSDK/wpa_supplicant/src/drivers\driver_common.c **** 		return 1;
 148:C:/Users/stapi/OneDrive/Desktop/GD32VW553/V1_MQTT_OK/GD32VW55X_Wifi_BLE_SDK/GD32VW55x_RELEASE_V1.0.2/MSDK/wpa_supplicant/src/drivers\driver_common.c **** 	}
 149:C:/Users/stapi/OneDrive/Desktop/GD32VW553/V1_MQTT_OK/GD32VW55X_Wifi_BLE_SDK/GD32VW55x_RELEASE_V1.0.2/MSDK/wpa_supplicant/src/drivers\driver_common.c **** 
 150:C:/Users/stapi/OneDrive/Desktop/GD32VW553/V1_MQTT_OK/GD32VW55X_Wifi_BLE_SDK/GD32VW55x_RELEASE_V1.0.2/MSDK/wpa_supplicant/src/drivers\driver_common.c **** 	/*
 151:C:/Users/stapi/OneDrive/Desktop/GD32VW553/V1_MQTT_OK/GD32VW55X_Wifi_BLE_SDK/GD32VW55x_RELEASE_V1.0.2/MSDK/wpa_supplicant/src/drivers\driver_common.c **** 	 * IEEE Std 802.11n-2009 20.1.1:
 152:C:/Users/stapi/OneDrive/Desktop/GD32VW553/V1_MQTT_OK/GD32VW55X_Wifi_BLE_SDK/GD32VW55x_RELEASE_V1.0.2/MSDK/wpa_supplicant/src/drivers\driver_common.c **** 	 * An HT non-AP STA shall support all EQM rates for one spatial stream.
 153:C:/Users/stapi/OneDrive/Desktop/GD32VW553/V1_MQTT_OK/GD32VW55X_Wifi_BLE_SDK/GD32VW55x_RELEASE_V1.0.2/MSDK/wpa_supplicant/src/drivers\driver_common.c **** 	 */
 154:C:/Users/stapi/OneDrive/Desktop/GD32VW553/V1_MQTT_OK/GD32VW55X_Wifi_BLE_SDK/GD32VW55x_RELEASE_V1.0.2/MSDK/wpa_supplicant/src/drivers\driver_common.c **** 	return mode->mcs_set[0] == 0xff;
 187              		.loc 1 154 2 is_stmt 1
 188              		.loc 1 154 26 is_stmt 0
 189 0006 03456501 		lbu	a0,22(a0)
 190              	.LVL20:
 191 000a 130515F0 		addi	a0,a0,-255
 192 000e 13351500 		seqz	a0,a0
 193 0012 8280     		ret
 194              	.LVL21:
 195              	.L23:
 147:C:/Users/stapi/OneDrive/Desktop/GD32VW553/V1_MQTT_OK/GD32VW55X_Wifi_BLE_SDK/GD32VW55x_RELEASE_V1.0.2/MSDK/wpa_supplicant/src/drivers\driver_common.c **** 	}
 196              		.loc 1 147 10
 197 0014 0545     		li	a0,1
 198              	.LVL22:
 155:C:/Users/stapi/OneDrive/Desktop/GD32VW553/V1_MQTT_OK/GD32VW55X_Wifi_BLE_SDK/GD32VW55x_RELEASE_V1.0.2/MSDK/wpa_supplicant/src/drivers\driver_common.c **** }
 199              		.loc 1 155 1
 200 0016 8280     		ret
 201              		.cfi_endproc
 202              	.LFE104:
 204              		.section	.text.vht_supported,"ax",@progbits
 205              		.align	1
 206              		.globl	vht_supported
 208              	vht_supported:
 209              	.LFB105:
 156:C:/Users/stapi/OneDrive/Desktop/GD32VW553/V1_MQTT_OK/GD32VW55X_Wifi_BLE_SDK/GD32VW55x_RELEASE_V1.0.2/MSDK/wpa_supplicant/src/drivers\driver_common.c **** 
 157:C:/Users/stapi/OneDrive/Desktop/GD32VW553/V1_MQTT_OK/GD32VW55X_Wifi_BLE_SDK/GD32VW55x_RELEASE_V1.0.2/MSDK/wpa_supplicant/src/drivers\driver_common.c **** 
 158:C:/Users/stapi/OneDrive/Desktop/GD32VW553/V1_MQTT_OK/GD32VW55X_Wifi_BLE_SDK/GD32VW55x_RELEASE_V1.0.2/MSDK/wpa_supplicant/src/drivers\driver_common.c **** int vht_supported(const struct hostapd_hw_modes *mode)
 159:C:/Users/stapi/OneDrive/Desktop/GD32VW553/V1_MQTT_OK/GD32VW55X_Wifi_BLE_SDK/GD32VW55x_RELEASE_V1.0.2/MSDK/wpa_supplicant/src/drivers\driver_common.c **** {
 210              		.loc 1 159 1 is_stmt 1
 211              		.cfi_startproc
 212              	.LVL23:
 160:C:/Users/stapi/OneDrive/Desktop/GD32VW553/V1_MQTT_OK/GD32VW55X_Wifi_BLE_SDK/GD32VW55x_RELEASE_V1.0.2/MSDK/wpa_supplicant/src/drivers\driver_common.c **** 	if (!(mode->flags & HOSTAPD_MODE_FLAG_VHT_INFO_KNOWN)) {
 213              		.loc 1 160 2
 214              		.loc 1 160 20 is_stmt 0
 215 0000 5C59     		lw	a5,52(a0)
 216 0002 898B     		andi	a5,a5,2
 217              		.loc 1 160 5
 218 0004 81CB     		beq	a5,zero,.L26
 161:C:/Users/stapi/OneDrive/Desktop/GD32VW553/V1_MQTT_OK/GD32VW55X_Wifi_BLE_SDK/GD32VW55x_RELEASE_V1.0.2/MSDK/wpa_supplicant/src/drivers\driver_common.c **** 		/*
 162:C:/Users/stapi/OneDrive/Desktop/GD32VW553/V1_MQTT_OK/GD32VW55X_Wifi_BLE_SDK/GD32VW55x_RELEASE_V1.0.2/MSDK/wpa_supplicant/src/drivers\driver_common.c **** 		 * The driver did not indicate whether it supports VHT. Assume
 163:C:/Users/stapi/OneDrive/Desktop/GD32VW553/V1_MQTT_OK/GD32VW55X_Wifi_BLE_SDK/GD32VW55x_RELEASE_V1.0.2/MSDK/wpa_supplicant/src/drivers\driver_common.c **** 		 * it does to avoid connection issues.
 164:C:/Users/stapi/OneDrive/Desktop/GD32VW553/V1_MQTT_OK/GD32VW55X_Wifi_BLE_SDK/GD32VW55x_RELEASE_V1.0.2/MSDK/wpa_supplicant/src/drivers\driver_common.c **** 		 */
 165:C:/Users/stapi/OneDrive/Desktop/GD32VW553/V1_MQTT_OK/GD32VW55X_Wifi_BLE_SDK/GD32VW55x_RELEASE_V1.0.2/MSDK/wpa_supplicant/src/drivers\driver_common.c **** 		return 1;
 166:C:/Users/stapi/OneDrive/Desktop/GD32VW553/V1_MQTT_OK/GD32VW55X_Wifi_BLE_SDK/GD32VW55x_RELEASE_V1.0.2/MSDK/wpa_supplicant/src/drivers\driver_common.c **** 	}
 167:C:/Users/stapi/OneDrive/Desktop/GD32VW553/V1_MQTT_OK/GD32VW55X_Wifi_BLE_SDK/GD32VW55x_RELEASE_V1.0.2/MSDK/wpa_supplicant/src/drivers\driver_common.c **** 
 168:C:/Users/stapi/OneDrive/Desktop/GD32VW553/V1_MQTT_OK/GD32VW55X_Wifi_BLE_SDK/GD32VW55x_RELEASE_V1.0.2/MSDK/wpa_supplicant/src/drivers\driver_common.c **** 	/*
 169:C:/Users/stapi/OneDrive/Desktop/GD32VW553/V1_MQTT_OK/GD32VW55X_Wifi_BLE_SDK/GD32VW55x_RELEASE_V1.0.2/MSDK/wpa_supplicant/src/drivers\driver_common.c **** 	 * A VHT non-AP STA shall support MCS 0-7 for one spatial stream.
 170:C:/Users/stapi/OneDrive/Desktop/GD32VW553/V1_MQTT_OK/GD32VW55X_Wifi_BLE_SDK/GD32VW55x_RELEASE_V1.0.2/MSDK/wpa_supplicant/src/drivers\driver_common.c **** 	 * TODO: Verify if this complies with the standard
 171:C:/Users/stapi/OneDrive/Desktop/GD32VW553/V1_MQTT_OK/GD32VW55X_Wifi_BLE_SDK/GD32VW55x_RELEASE_V1.0.2/MSDK/wpa_supplicant/src/drivers\driver_common.c **** 	 */
 172:C:/Users/stapi/OneDrive/Desktop/GD32VW553/V1_MQTT_OK/GD32VW55X_Wifi_BLE_SDK/GD32VW55x_RELEASE_V1.0.2/MSDK/wpa_supplicant/src/drivers\driver_common.c **** 	return (mode->vht_mcs_set[0] & 0x3) != 3;
 219              		.loc 1 172 2 is_stmt 1
 220              		.loc 1 172 38 is_stmt 0
 221 0006 0345C502 		lbu	a0,44(a0)
 222              	.LVL24:
 223 000a 0D89     		andi	a0,a0,3
 224 000c 7515     		addi	a0,a0,-3
 225 000e 3335A000 		snez	a0,a0
 226 0012 8280     		ret
 227              	.LVL25:
 228              	.L26:
 165:C:/Users/stapi/OneDrive/Desktop/GD32VW553/V1_MQTT_OK/GD32VW55X_Wifi_BLE_SDK/GD32VW55x_RELEASE_V1.0.2/MSDK/wpa_supplicant/src/drivers\driver_common.c **** 	}
 229              		.loc 1 165 10
 230 0014 0545     		li	a0,1
 231              	.LVL26:
 173:C:/Users/stapi/OneDrive/Desktop/GD32VW553/V1_MQTT_OK/GD32VW55X_Wifi_BLE_SDK/GD32VW55x_RELEASE_V1.0.2/MSDK/wpa_supplicant/src/drivers\driver_common.c **** }
 232              		.loc 1 173 1
 233 0016 8280     		ret
 234              		.cfi_endproc
 235              	.LFE105:
 237              		.section	.rodata.driver_flag_to_string.str1.4,"aMS",@progbits,1
 238              		.align	2
 239              	.LC2:
 240 0000 44524956 		.string	"DRIVER_IE"
 240      45525F49 
 240      4500
 241 000a 0000     		.align	2
 242              	.LC3:
 243 000c 57495245 		.string	"WIRED"
 243      4400
 244 0012 0000     		.align	2
 245              	.LC4:
 246 0014 564C414E 		.string	"VLAN_OFFLOAD"
 246      5F4F4646 
 246      4C4F4144 
 246      00
 247 0021 000000   		.align	2
 248              	.LC5:
 249 0024 5345545F 		.string	"SET_KEYS_AFTER_ASSOC"
 249      4B455953 
 249      5F414654 
 249      45525F41 
 249      53534F43 
 250 0039 000000   		.align	2
 251              	.LC6:
 252 003c 48545F32 		.string	"HT_2040_COEX"
 252      3034305F 
 252      434F4558 
 252      00
 253 0049 000000   		.align	2
 254              	.LC7:
 255 004c 5345545F 		.string	"SET_KEYS_AFTER_ASSOC_DONE"
 255      4B455953 
 255      5F414654 
 255      45525F41 
 255      53534F43 
 256 0066 0000     		.align	2
 257              	.LC8:
 258 0068 34574159 		.string	"4WAY_HANDSHAKE_8021X"
 258      5F48414E 
 258      44534841 
 258      4B455F38 
 258      30323158 
 259 007d 000000   		.align	2
 260              	.LC9:
 261 0080 415000   		.string	"AP"
 262 0083 00       		.align	2
 263              	.LC10:
 264 0084 4541504F 		.string	"EAPOL_TX_STATUS"
 264      4C5F5458 
 264      5F535441 
 264      54555300 
 265              		.align	2
 266              	.LC11:
 267 0094 5032505F 		.string	"P2P_CAPABLE"
 267      43415041 
 267      424C4500 
 268              		.align	2
 269              	.LC12:
 270 00a0 41505F54 		.string	"AP_TEARDOWN_SUPPORT"
 270      45415244 
 270      4F574E5F 
 270      53555050 
 270      4F525400 
 271              		.align	2
 272              	.LC13:
 273 00b4 5032505F 		.string	"P2P_DEDICATED_INTERFACE"
 273      44454449 
 273      43415445 
 273      445F494E 
 273      54455246 
 274              		.align	2
 275              	.LC14:
 276 00cc 534D4500 		.string	"SME"
 277              		.align	2
 278              	.LC15:
 279 00d0 4F464643 		.string	"OFFCHANNEL_TX"
 279      48414E4E 
 279      454C5F54 
 279      5800
 280 00de 0000     		.align	2
 281              	.LC16:
 282 00e0 5032505F 		.string	"P2P_CONCURRENT"
 282      434F4E43 
 282      55525245 
 282      4E5400
 283 00ef 00       		.align	2
 284              	.LC17:
 285 00f0 56414C49 		.string	"VALID_ERROR_CODES"
 285      445F4552 
 285      524F525F 
 285      434F4445 
 285      5300
 286 0102 0000     		.align	2
 287              	.LC18:
 288 0104 4D455348 		.string	"MESH"
 288      00
 289 0109 000000   		.align	2
 290              	.LC19:
 291 010c 54444C53 		.string	"TDLS_SUPPORT"
 291      5F535550 
 291      504F5254 
 291      00
 292 0119 000000   		.align	2
 293              	.LC20:
 294 011c 54444C53 		.string	"TDLS_EXTERNAL_SETUP"
 294      5F455854 
 294      45524E41 
 294      4C5F5345 
 294      54555000 
 295              		.align	2
 296              	.LC21:
 297 0130 4253535F 		.string	"BSS_SELECTION"
 297      53454C45 
 297      4354494F 
 297      4E00
 298 013e 0000     		.align	2
 299              	.LC22:
 300 0140 41505F4D 		.string	"AP_MLME"
 300      4C4D4500 
 301              		.align	2
 302              	.LC23:
 303 0148 494E4143 		.string	"INACTIVITY_TIMER"
 303      54495649 
 303      54595F54 
 303      494D4552 
 303      00
 304 0159 000000   		.align	2
 305              	.LC24:
 306 015c 44454155 		.string	"DEAUTH_TX_STATUS"
 306      54485F54 
 306      585F5354 
 306      41545553 
 306      00
 307 016d 000000   		.align	2
 308              	.LC25:
 309 0170 41505F55 		.string	"AP_UAPSD"
 309      41505344 
 309      00
 310 0179 000000   		.align	2
 311              	.LC26:
 312 017c 5032505F 		.string	"P2P_MGMT_AND_NON_P2P"
 312      4D474D54 
 312      5F414E44 
 312      5F4E4F4E 
 312      5F503250 
 313 0191 000000   		.align	2
 314              	.LC27:
 315 0194 49425353 		.string	"IBSS"
 315      00
 316 0199 000000   		.align	2
 317              	.LC28:
 318 019c 52414441 		.string	"RADAR"
 318      5200
 319 01a2 0000     		.align	2
 320              	.LC29:
 321 01a4 4F425353 		.string	"OBSS_SCAN"
 321      5F534341 
 321      4E00
 322 01ae 0000     		.align	2
 323              	.LC30:
 324 01b0 50524F42 		.string	"PROBE_RESP_OFFLOAD"
 324      455F5245 
 324      53505F4F 
 324      46464C4F 
 324      414400
 325 01c3 00       		.align	2
 326              	.LC31:
 327 01c4 41505F43 		.string	"AP_CSA"
 327      534100
 328 01cb 00       		.align	2
 329              	.LC32:
 330 01cc 53414500 		.string	"SAE"
 331              		.align	2
 332              	.LC33:
 333 01d0 514F535F 		.string	"QOS_MAPPING"
 333      4D415050 
 333      494E4700 
 334              		.align	2
 335              	.LC34:
 336 01dc 54444C53 		.string	"TDLS_CHANNEL_SWITCH"
 336      5F434841 
 336      4E4E454C 
 336      5F535749 
 336      54434800 
 337              		.align	2
 338              	.LC35:
 339 01f0 48545F49 		.string	"HT_IBSS"
 339      42535300 
 340              		.align	2
 341              	.LC36:
 342 01f8 4B45595F 		.string	"KEY_MGMT_OFFLOAD"
 342      4D474D54 
 342      5F4F4646 
 342      4C4F4144 
 342      00
 343 0209 000000   		.align	2
 344              	.LC37:
 345 020c 46554C4C 		.string	"FULL_AP_CLIENT_STATE"
 345      5F41505F 
 345      434C4945 
 345      4E545F53 
 345      54415445 
 346 0221 000000   		.align	2
 347              	.LC38:
 348 0224 4F464643 		.string	"OFFCHANNEL_SIMULTANEOUS"
 348      48414E4E 
 348      454C5F53 
 348      494D554C 
 348      54414E45 
 349              		.align	2
 350              	.LC39:
 351 023c 4143535F 		.string	"ACS_OFFLOAD"
 351      4F46464C 
 351      4F414400 
 352              		.align	2
 353              	.LC40:
 354 0248 53555050 		.string	"SUPPORT_HW_MODE_ANY"
 354      4F52545F 
 354      48575F4D 
 354      4F44455F 
 354      414E5900 
 355              		.align	2
 356              	.LC41:
 357 025c 53434845 		.string	"SCHED_SCAN_RELATIVE_RSSI"
 357      445F5343 
 357      414E5F52 
 357      454C4154 
 357      4956455F 
 358 0275 000000   		.align	2
 359              	.LC42:
 360 0278 42454143 		.string	"BEACON_RATE_LEGACY"
 360      4F4E5F52 
 360      4154455F 
 360      4C454741 
 360      435900
 361 028b 00       		.align	2
 362              	.LC43:
 363 028c 42454143 		.string	"BEACON_RATE_HT"
 363      4F4E5F52 
 363      4154455F 
 363      485400
 364 029b 00       		.align	2
 365              	.LC44:
 366 029c 53555050 		.string	"SUPPORT_FILS"
 366      4F52545F 
 366      46494C53 
 366      00
 367 02a9 000000   		.align	2
 368              	.LC45:
 369 02ac 5648545F 		.string	"VHT_IBSS"
 369      49425353 
 369      00
 370 02b5 000000   		.align	2
 371              	.LC46:
 372 02b8 4D474D54 		.string	"MGMT_TX_RANDOM_TA_CONNECTED"
 372      5F54585F 
 372      52414E44 
 372      4F4D5F54 
 372      415F434F 
 373              		.align	2
 374              	.LC47:
 375 02d4 5032505F 		.string	"P2P_LISTEN_OFFLOAD"
 375      4C495354 
 375      454E5F4F 
 375      46464C4F 
 375      414400
 376 02e7 00       		.align	2
 377              	.LC48:
 378 02e8 4D474D54 		.string	"MGMT_TX_RANDOM_TA"
 378      5F54585F 
 378      52414E44 
 378      4F4D5F54 
 378      4100
 379 02fa 0000     		.align	2
 380              	.LC49:
 381 02fc 44454449 		.string	"DEDICATED_P2P_DEVICE"
 381      43415445 
 381      445F5032 
 381      505F4445 
 381      56494345 
 382 0311 000000   		.align	2
 383              	.LC50:
 384 0314 4F43455F 		.string	"OCE_STA"
 384      53544100 
 385              		.align	2
 386              	.LC51:
 387 031c 4F43455F 		.string	"OCE_AP"
 387      415000
 388 0323 00       		.align	2
 389              	.LC52:
 390 0324 46494C53 		.string	"FILS_SK_OFFLOAD"
 390      5F534B5F 
 390      4F46464C 
 390      4F414400 
 391              		.align	2
 392              	.LC53:
 393 0334 46544D5F 		.string	"FTM_RESPONDER"
 393      52455350 
 393      4F4E4445 
 393      5200
 394 0342 0000     		.align	2
 395              	.LC54:
 396 0344 53454C46 		.string	"SELF_MANAGED_REGULATORY"
 396      5F4D414E 
 396      41474544 
 396      5F524547 
 396      554C4154 
 397              		.align	2
 398              	.LC55:
 399 035c 48455F43 		.string	"HE_CAPABILITIES"
 399      41504142 
 399      494C4954 
 399      49455300 
 400              		.align	2
 401              	.LC56:
 402 036c 4D46505F 		.string	"MFP_OPTIONAL"
 402      4F505449 
 402      4F4E414C 
 402      00
 403 0379 000000   		.align	2
 404              	.LC57:
 405 037c 42454143 		.string	"BEACON_RATE_VHT"
 405      4F4E5F52 
 405      4154455F 
 405      56485400 
 406              		.align	2
 407              	.LC58:
 408 038c 55504441 		.string	"UPDATE_FT_IES"
 408      54455F46 
 408      545F4945 
 408      5300
 409 039a 0000     		.align	2
 410              	.LC59:
 411 039c 434F4E54 		.string	"CONTROL_PORT"
 411      524F4C5F 
 411      504F5254 
 411      00
 412 03a9 000000   		.align	2
 413              	.LC60:
 414 03ac 4F43455F 		.string	"OCE_STA_CFON"
 414      5354415F 
 414      43464F4E 
 414      00
 415 03b9 000000   		.align	2
 416              	.LC61:
 417 03bc 45585445 		.string	"EXTENDED_KEY_ID"
 417      4E444544 
 417      5F4B4559 
 417      5F494400 
 418              		.align	2
 419              	.LC62:
 420 03cc 34574159 		.string	"4WAY_HANDSHAKE_PSK"
 420      5F48414E 
 420      44534841 
 420      4B455F50 
 420      534B00
 421 03df 00       		.align	2
 422              	.LC63:
 423 03e0 42454143 		.string	"BEACON_PROTECTION"
 423      4F4E5F50 
 423      524F5445 
 423      4354494F 
 423      4E00
 424 03f2 0000     		.align	2
 425              	.LC64:
 426 03f4 4446535F 		.string	"DFS_OFFLOAD"
 426      4F46464C 
 426      4F414400 
 427              		.align	2
 428              	.LC65:
 429 0400 53414645 		.string	"SAFE_PTK0_REKEYS"
 429      5F50544B 
 429      305F5245 
 429      4B455953 
 429      00
 430              		.section	.text.driver_flag_to_string,"ax",@progbits
 431              		.align	1
 432              		.globl	driver_flag_to_string
 434              	driver_flag_to_string:
 435              	.LFB107:
 174:C:/Users/stapi/OneDrive/Desktop/GD32VW553/V1_MQTT_OK/GD32VW55X_Wifi_BLE_SDK/GD32VW55x_RELEASE_V1.0.2/MSDK/wpa_supplicant/src/drivers\driver_common.c **** 
 175:C:/Users/stapi/OneDrive/Desktop/GD32VW553/V1_MQTT_OK/GD32VW55X_Wifi_BLE_SDK/GD32VW55x_RELEASE_V1.0.2/MSDK/wpa_supplicant/src/drivers\driver_common.c **** 
 176:C:/Users/stapi/OneDrive/Desktop/GD32VW553/V1_MQTT_OK/GD32VW55X_Wifi_BLE_SDK/GD32VW55x_RELEASE_V1.0.2/MSDK/wpa_supplicant/src/drivers\driver_common.c **** static int wpa_check_wowlan_trigger(const char *start, const char *trigger,
 177:C:/Users/stapi/OneDrive/Desktop/GD32VW553/V1_MQTT_OK/GD32VW55X_Wifi_BLE_SDK/GD32VW55x_RELEASE_V1.0.2/MSDK/wpa_supplicant/src/drivers\driver_common.c **** 				    int capa_trigger, u8 *param_trigger)
 178:C:/Users/stapi/OneDrive/Desktop/GD32VW553/V1_MQTT_OK/GD32VW55X_Wifi_BLE_SDK/GD32VW55x_RELEASE_V1.0.2/MSDK/wpa_supplicant/src/drivers\driver_common.c **** {
 179:C:/Users/stapi/OneDrive/Desktop/GD32VW553/V1_MQTT_OK/GD32VW55X_Wifi_BLE_SDK/GD32VW55x_RELEASE_V1.0.2/MSDK/wpa_supplicant/src/drivers\driver_common.c **** 	if (os_strcmp(start, trigger) != 0)
 180:C:/Users/stapi/OneDrive/Desktop/GD32VW553/V1_MQTT_OK/GD32VW55X_Wifi_BLE_SDK/GD32VW55x_RELEASE_V1.0.2/MSDK/wpa_supplicant/src/drivers\driver_common.c **** 		return 0;
 181:C:/Users/stapi/OneDrive/Desktop/GD32VW553/V1_MQTT_OK/GD32VW55X_Wifi_BLE_SDK/GD32VW55x_RELEASE_V1.0.2/MSDK/wpa_supplicant/src/drivers\driver_common.c **** 	if (!capa_trigger)
 182:C:/Users/stapi/OneDrive/Desktop/GD32VW553/V1_MQTT_OK/GD32VW55X_Wifi_BLE_SDK/GD32VW55x_RELEASE_V1.0.2/MSDK/wpa_supplicant/src/drivers\driver_common.c **** 		return 0;
 183:C:/Users/stapi/OneDrive/Desktop/GD32VW553/V1_MQTT_OK/GD32VW55X_Wifi_BLE_SDK/GD32VW55x_RELEASE_V1.0.2/MSDK/wpa_supplicant/src/drivers\driver_common.c **** 
 184:C:/Users/stapi/OneDrive/Desktop/GD32VW553/V1_MQTT_OK/GD32VW55X_Wifi_BLE_SDK/GD32VW55x_RELEASE_V1.0.2/MSDK/wpa_supplicant/src/drivers\driver_common.c **** 	*param_trigger = 1;
 185:C:/Users/stapi/OneDrive/Desktop/GD32VW553/V1_MQTT_OK/GD32VW55X_Wifi_BLE_SDK/GD32VW55x_RELEASE_V1.0.2/MSDK/wpa_supplicant/src/drivers\driver_common.c **** 	return 1;
 186:C:/Users/stapi/OneDrive/Desktop/GD32VW553/V1_MQTT_OK/GD32VW55X_Wifi_BLE_SDK/GD32VW55x_RELEASE_V1.0.2/MSDK/wpa_supplicant/src/drivers\driver_common.c **** }
 187:C:/Users/stapi/OneDrive/Desktop/GD32VW553/V1_MQTT_OK/GD32VW55X_Wifi_BLE_SDK/GD32VW55x_RELEASE_V1.0.2/MSDK/wpa_supplicant/src/drivers\driver_common.c **** 
 188:C:/Users/stapi/OneDrive/Desktop/GD32VW553/V1_MQTT_OK/GD32VW55X_Wifi_BLE_SDK/GD32VW55x_RELEASE_V1.0.2/MSDK/wpa_supplicant/src/drivers\driver_common.c **** #ifdef CONFIG_WOWLAN
 189:C:/Users/stapi/OneDrive/Desktop/GD32VW553/V1_MQTT_OK/GD32VW55X_Wifi_BLE_SDK/GD32VW55x_RELEASE_V1.0.2/MSDK/wpa_supplicant/src/drivers\driver_common.c **** struct wowlan_triggers *
 190:C:/Users/stapi/OneDrive/Desktop/GD32VW553/V1_MQTT_OK/GD32VW55X_Wifi_BLE_SDK/GD32VW55x_RELEASE_V1.0.2/MSDK/wpa_supplicant/src/drivers\driver_common.c **** wpa_get_wowlan_triggers(const char *wowlan_triggers,
 191:C:/Users/stapi/OneDrive/Desktop/GD32VW553/V1_MQTT_OK/GD32VW55X_Wifi_BLE_SDK/GD32VW55x_RELEASE_V1.0.2/MSDK/wpa_supplicant/src/drivers\driver_common.c **** 			const struct wpa_driver_capa *capa)
 192:C:/Users/stapi/OneDrive/Desktop/GD32VW553/V1_MQTT_OK/GD32VW55X_Wifi_BLE_SDK/GD32VW55x_RELEASE_V1.0.2/MSDK/wpa_supplicant/src/drivers\driver_common.c **** {
 193:C:/Users/stapi/OneDrive/Desktop/GD32VW553/V1_MQTT_OK/GD32VW55X_Wifi_BLE_SDK/GD32VW55x_RELEASE_V1.0.2/MSDK/wpa_supplicant/src/drivers\driver_common.c **** 	struct wowlan_triggers *triggers;
 194:C:/Users/stapi/OneDrive/Desktop/GD32VW553/V1_MQTT_OK/GD32VW55X_Wifi_BLE_SDK/GD32VW55x_RELEASE_V1.0.2/MSDK/wpa_supplicant/src/drivers\driver_common.c **** 	char *start, *end, *buf;
 195:C:/Users/stapi/OneDrive/Desktop/GD32VW553/V1_MQTT_OK/GD32VW55X_Wifi_BLE_SDK/GD32VW55x_RELEASE_V1.0.2/MSDK/wpa_supplicant/src/drivers\driver_common.c **** 	int last;
 196:C:/Users/stapi/OneDrive/Desktop/GD32VW553/V1_MQTT_OK/GD32VW55X_Wifi_BLE_SDK/GD32VW55x_RELEASE_V1.0.2/MSDK/wpa_supplicant/src/drivers\driver_common.c **** 
 197:C:/Users/stapi/OneDrive/Desktop/GD32VW553/V1_MQTT_OK/GD32VW55X_Wifi_BLE_SDK/GD32VW55x_RELEASE_V1.0.2/MSDK/wpa_supplicant/src/drivers\driver_common.c **** 	if (!wowlan_triggers)
 198:C:/Users/stapi/OneDrive/Desktop/GD32VW553/V1_MQTT_OK/GD32VW55X_Wifi_BLE_SDK/GD32VW55x_RELEASE_V1.0.2/MSDK/wpa_supplicant/src/drivers\driver_common.c **** 		return NULL;
 199:C:/Users/stapi/OneDrive/Desktop/GD32VW553/V1_MQTT_OK/GD32VW55X_Wifi_BLE_SDK/GD32VW55x_RELEASE_V1.0.2/MSDK/wpa_supplicant/src/drivers\driver_common.c **** 
 200:C:/Users/stapi/OneDrive/Desktop/GD32VW553/V1_MQTT_OK/GD32VW55X_Wifi_BLE_SDK/GD32VW55x_RELEASE_V1.0.2/MSDK/wpa_supplicant/src/drivers\driver_common.c **** 	buf = os_strdup(wowlan_triggers);
 201:C:/Users/stapi/OneDrive/Desktop/GD32VW553/V1_MQTT_OK/GD32VW55X_Wifi_BLE_SDK/GD32VW55x_RELEASE_V1.0.2/MSDK/wpa_supplicant/src/drivers\driver_common.c **** 	if (buf == NULL)
 202:C:/Users/stapi/OneDrive/Desktop/GD32VW553/V1_MQTT_OK/GD32VW55X_Wifi_BLE_SDK/GD32VW55x_RELEASE_V1.0.2/MSDK/wpa_supplicant/src/drivers\driver_common.c **** 		return NULL;
 203:C:/Users/stapi/OneDrive/Desktop/GD32VW553/V1_MQTT_OK/GD32VW55X_Wifi_BLE_SDK/GD32VW55x_RELEASE_V1.0.2/MSDK/wpa_supplicant/src/drivers\driver_common.c **** 
 204:C:/Users/stapi/OneDrive/Desktop/GD32VW553/V1_MQTT_OK/GD32VW55X_Wifi_BLE_SDK/GD32VW55x_RELEASE_V1.0.2/MSDK/wpa_supplicant/src/drivers\driver_common.c **** 	triggers = os_zalloc(sizeof(*triggers));
 205:C:/Users/stapi/OneDrive/Desktop/GD32VW553/V1_MQTT_OK/GD32VW55X_Wifi_BLE_SDK/GD32VW55x_RELEASE_V1.0.2/MSDK/wpa_supplicant/src/drivers\driver_common.c **** 	if (triggers == NULL)
 206:C:/Users/stapi/OneDrive/Desktop/GD32VW553/V1_MQTT_OK/GD32VW55X_Wifi_BLE_SDK/GD32VW55x_RELEASE_V1.0.2/MSDK/wpa_supplicant/src/drivers\driver_common.c **** 		goto out;
 207:C:/Users/stapi/OneDrive/Desktop/GD32VW553/V1_MQTT_OK/GD32VW55X_Wifi_BLE_SDK/GD32VW55x_RELEASE_V1.0.2/MSDK/wpa_supplicant/src/drivers\driver_common.c **** 
 208:C:/Users/stapi/OneDrive/Desktop/GD32VW553/V1_MQTT_OK/GD32VW55X_Wifi_BLE_SDK/GD32VW55x_RELEASE_V1.0.2/MSDK/wpa_supplicant/src/drivers\driver_common.c **** #define CHECK_TRIGGER(trigger) \
 209:C:/Users/stapi/OneDrive/Desktop/GD32VW553/V1_MQTT_OK/GD32VW55X_Wifi_BLE_SDK/GD32VW55x_RELEASE_V1.0.2/MSDK/wpa_supplicant/src/drivers\driver_common.c **** 	wpa_check_wowlan_trigger(start, #trigger,			\
 210:C:/Users/stapi/OneDrive/Desktop/GD32VW553/V1_MQTT_OK/GD32VW55X_Wifi_BLE_SDK/GD32VW55x_RELEASE_V1.0.2/MSDK/wpa_supplicant/src/drivers\driver_common.c **** 				  capa->wowlan_triggers.trigger,	\
 211:C:/Users/stapi/OneDrive/Desktop/GD32VW553/V1_MQTT_OK/GD32VW55X_Wifi_BLE_SDK/GD32VW55x_RELEASE_V1.0.2/MSDK/wpa_supplicant/src/drivers\driver_common.c **** 				  &triggers->trigger)
 212:C:/Users/stapi/OneDrive/Desktop/GD32VW553/V1_MQTT_OK/GD32VW55X_Wifi_BLE_SDK/GD32VW55x_RELEASE_V1.0.2/MSDK/wpa_supplicant/src/drivers\driver_common.c **** 
 213:C:/Users/stapi/OneDrive/Desktop/GD32VW553/V1_MQTT_OK/GD32VW55X_Wifi_BLE_SDK/GD32VW55x_RELEASE_V1.0.2/MSDK/wpa_supplicant/src/drivers\driver_common.c **** 	start = buf;
 214:C:/Users/stapi/OneDrive/Desktop/GD32VW553/V1_MQTT_OK/GD32VW55X_Wifi_BLE_SDK/GD32VW55x_RELEASE_V1.0.2/MSDK/wpa_supplicant/src/drivers\driver_common.c **** 	while (*start != '\0') {
 215:C:/Users/stapi/OneDrive/Desktop/GD32VW553/V1_MQTT_OK/GD32VW55X_Wifi_BLE_SDK/GD32VW55x_RELEASE_V1.0.2/MSDK/wpa_supplicant/src/drivers\driver_common.c **** 		while (isblank((unsigned char) *start))
 216:C:/Users/stapi/OneDrive/Desktop/GD32VW553/V1_MQTT_OK/GD32VW55X_Wifi_BLE_SDK/GD32VW55x_RELEASE_V1.0.2/MSDK/wpa_supplicant/src/drivers\driver_common.c **** 			start++;
 217:C:/Users/stapi/OneDrive/Desktop/GD32VW553/V1_MQTT_OK/GD32VW55X_Wifi_BLE_SDK/GD32VW55x_RELEASE_V1.0.2/MSDK/wpa_supplicant/src/drivers\driver_common.c **** 		if (*start == '\0')
 218:C:/Users/stapi/OneDrive/Desktop/GD32VW553/V1_MQTT_OK/GD32VW55X_Wifi_BLE_SDK/GD32VW55x_RELEASE_V1.0.2/MSDK/wpa_supplicant/src/drivers\driver_common.c **** 			break;
 219:C:/Users/stapi/OneDrive/Desktop/GD32VW553/V1_MQTT_OK/GD32VW55X_Wifi_BLE_SDK/GD32VW55x_RELEASE_V1.0.2/MSDK/wpa_supplicant/src/drivers\driver_common.c **** 		end = start;
 220:C:/Users/stapi/OneDrive/Desktop/GD32VW553/V1_MQTT_OK/GD32VW55X_Wifi_BLE_SDK/GD32VW55x_RELEASE_V1.0.2/MSDK/wpa_supplicant/src/drivers\driver_common.c **** 		while (!isblank((unsigned char) *end) && *end != '\0')
 221:C:/Users/stapi/OneDrive/Desktop/GD32VW553/V1_MQTT_OK/GD32VW55X_Wifi_BLE_SDK/GD32VW55x_RELEASE_V1.0.2/MSDK/wpa_supplicant/src/drivers\driver_common.c **** 			end++;
 222:C:/Users/stapi/OneDrive/Desktop/GD32VW553/V1_MQTT_OK/GD32VW55X_Wifi_BLE_SDK/GD32VW55x_RELEASE_V1.0.2/MSDK/wpa_supplicant/src/drivers\driver_common.c **** 		last = *end == '\0';
 223:C:/Users/stapi/OneDrive/Desktop/GD32VW553/V1_MQTT_OK/GD32VW55X_Wifi_BLE_SDK/GD32VW55x_RELEASE_V1.0.2/MSDK/wpa_supplicant/src/drivers\driver_common.c **** 		*end = '\0';
 224:C:/Users/stapi/OneDrive/Desktop/GD32VW553/V1_MQTT_OK/GD32VW55X_Wifi_BLE_SDK/GD32VW55x_RELEASE_V1.0.2/MSDK/wpa_supplicant/src/drivers\driver_common.c **** 
 225:C:/Users/stapi/OneDrive/Desktop/GD32VW553/V1_MQTT_OK/GD32VW55X_Wifi_BLE_SDK/GD32VW55x_RELEASE_V1.0.2/MSDK/wpa_supplicant/src/drivers\driver_common.c **** 		if (!CHECK_TRIGGER(any) &&
 226:C:/Users/stapi/OneDrive/Desktop/GD32VW553/V1_MQTT_OK/GD32VW55X_Wifi_BLE_SDK/GD32VW55x_RELEASE_V1.0.2/MSDK/wpa_supplicant/src/drivers\driver_common.c **** 		    !CHECK_TRIGGER(disconnect) &&
 227:C:/Users/stapi/OneDrive/Desktop/GD32VW553/V1_MQTT_OK/GD32VW55X_Wifi_BLE_SDK/GD32VW55x_RELEASE_V1.0.2/MSDK/wpa_supplicant/src/drivers\driver_common.c **** 		    !CHECK_TRIGGER(magic_pkt) &&
 228:C:/Users/stapi/OneDrive/Desktop/GD32VW553/V1_MQTT_OK/GD32VW55X_Wifi_BLE_SDK/GD32VW55x_RELEASE_V1.0.2/MSDK/wpa_supplicant/src/drivers\driver_common.c **** 		    !CHECK_TRIGGER(gtk_rekey_failure) &&
 229:C:/Users/stapi/OneDrive/Desktop/GD32VW553/V1_MQTT_OK/GD32VW55X_Wifi_BLE_SDK/GD32VW55x_RELEASE_V1.0.2/MSDK/wpa_supplicant/src/drivers\driver_common.c **** 		    !CHECK_TRIGGER(eap_identity_req) &&
 230:C:/Users/stapi/OneDrive/Desktop/GD32VW553/V1_MQTT_OK/GD32VW55X_Wifi_BLE_SDK/GD32VW55x_RELEASE_V1.0.2/MSDK/wpa_supplicant/src/drivers\driver_common.c **** 		    !CHECK_TRIGGER(four_way_handshake) &&
 231:C:/Users/stapi/OneDrive/Desktop/GD32VW553/V1_MQTT_OK/GD32VW55X_Wifi_BLE_SDK/GD32VW55x_RELEASE_V1.0.2/MSDK/wpa_supplicant/src/drivers\driver_common.c **** 		    !CHECK_TRIGGER(rfkill_release)) {
 232:C:/Users/stapi/OneDrive/Desktop/GD32VW553/V1_MQTT_OK/GD32VW55X_Wifi_BLE_SDK/GD32VW55x_RELEASE_V1.0.2/MSDK/wpa_supplicant/src/drivers\driver_common.c **** 			wpa_printf(MSG_DEBUG,
 233:C:/Users/stapi/OneDrive/Desktop/GD32VW553/V1_MQTT_OK/GD32VW55X_Wifi_BLE_SDK/GD32VW55x_RELEASE_V1.0.2/MSDK/wpa_supplicant/src/drivers\driver_common.c **** 				   "Unknown/unsupported wowlan trigger '%s'",
 234:C:/Users/stapi/OneDrive/Desktop/GD32VW553/V1_MQTT_OK/GD32VW55X_Wifi_BLE_SDK/GD32VW55x_RELEASE_V1.0.2/MSDK/wpa_supplicant/src/drivers\driver_common.c **** 				   start);
 235:C:/Users/stapi/OneDrive/Desktop/GD32VW553/V1_MQTT_OK/GD32VW55X_Wifi_BLE_SDK/GD32VW55x_RELEASE_V1.0.2/MSDK/wpa_supplicant/src/drivers\driver_common.c **** 			os_free(triggers);
 236:C:/Users/stapi/OneDrive/Desktop/GD32VW553/V1_MQTT_OK/GD32VW55X_Wifi_BLE_SDK/GD32VW55x_RELEASE_V1.0.2/MSDK/wpa_supplicant/src/drivers\driver_common.c **** 			triggers = NULL;
 237:C:/Users/stapi/OneDrive/Desktop/GD32VW553/V1_MQTT_OK/GD32VW55X_Wifi_BLE_SDK/GD32VW55x_RELEASE_V1.0.2/MSDK/wpa_supplicant/src/drivers\driver_common.c **** 			goto out;
 238:C:/Users/stapi/OneDrive/Desktop/GD32VW553/V1_MQTT_OK/GD32VW55X_Wifi_BLE_SDK/GD32VW55x_RELEASE_V1.0.2/MSDK/wpa_supplicant/src/drivers\driver_common.c **** 		}
 239:C:/Users/stapi/OneDrive/Desktop/GD32VW553/V1_MQTT_OK/GD32VW55X_Wifi_BLE_SDK/GD32VW55x_RELEASE_V1.0.2/MSDK/wpa_supplicant/src/drivers\driver_common.c **** 
 240:C:/Users/stapi/OneDrive/Desktop/GD32VW553/V1_MQTT_OK/GD32VW55X_Wifi_BLE_SDK/GD32VW55x_RELEASE_V1.0.2/MSDK/wpa_supplicant/src/drivers\driver_common.c **** 		if (last)
 241:C:/Users/stapi/OneDrive/Desktop/GD32VW553/V1_MQTT_OK/GD32VW55X_Wifi_BLE_SDK/GD32VW55x_RELEASE_V1.0.2/MSDK/wpa_supplicant/src/drivers\driver_common.c **** 			break;
 242:C:/Users/stapi/OneDrive/Desktop/GD32VW553/V1_MQTT_OK/GD32VW55X_Wifi_BLE_SDK/GD32VW55x_RELEASE_V1.0.2/MSDK/wpa_supplicant/src/drivers\driver_common.c **** 		start = end + 1;
 243:C:/Users/stapi/OneDrive/Desktop/GD32VW553/V1_MQTT_OK/GD32VW55X_Wifi_BLE_SDK/GD32VW55x_RELEASE_V1.0.2/MSDK/wpa_supplicant/src/drivers\driver_common.c **** 	}
 244:C:/Users/stapi/OneDrive/Desktop/GD32VW553/V1_MQTT_OK/GD32VW55X_Wifi_BLE_SDK/GD32VW55x_RELEASE_V1.0.2/MSDK/wpa_supplicant/src/drivers\driver_common.c **** #undef CHECK_TRIGGER
 245:C:/Users/stapi/OneDrive/Desktop/GD32VW553/V1_MQTT_OK/GD32VW55X_Wifi_BLE_SDK/GD32VW55x_RELEASE_V1.0.2/MSDK/wpa_supplicant/src/drivers\driver_common.c **** 
 246:C:/Users/stapi/OneDrive/Desktop/GD32VW553/V1_MQTT_OK/GD32VW55X_Wifi_BLE_SDK/GD32VW55x_RELEASE_V1.0.2/MSDK/wpa_supplicant/src/drivers\driver_common.c **** out:
 247:C:/Users/stapi/OneDrive/Desktop/GD32VW553/V1_MQTT_OK/GD32VW55X_Wifi_BLE_SDK/GD32VW55x_RELEASE_V1.0.2/MSDK/wpa_supplicant/src/drivers\driver_common.c **** 	os_free(buf);
 248:C:/Users/stapi/OneDrive/Desktop/GD32VW553/V1_MQTT_OK/GD32VW55X_Wifi_BLE_SDK/GD32VW55x_RELEASE_V1.0.2/MSDK/wpa_supplicant/src/drivers\driver_common.c **** 	return triggers;
 249:C:/Users/stapi/OneDrive/Desktop/GD32VW553/V1_MQTT_OK/GD32VW55X_Wifi_BLE_SDK/GD32VW55x_RELEASE_V1.0.2/MSDK/wpa_supplicant/src/drivers\driver_common.c **** }
 250:C:/Users/stapi/OneDrive/Desktop/GD32VW553/V1_MQTT_OK/GD32VW55X_Wifi_BLE_SDK/GD32VW55x_RELEASE_V1.0.2/MSDK/wpa_supplicant/src/drivers\driver_common.c **** #endif /* CONFIG_WOWLAN */
 251:C:/Users/stapi/OneDrive/Desktop/GD32VW553/V1_MQTT_OK/GD32VW55X_Wifi_BLE_SDK/GD32VW55x_RELEASE_V1.0.2/MSDK/wpa_supplicant/src/drivers\driver_common.c **** 
 252:C:/Users/stapi/OneDrive/Desktop/GD32VW553/V1_MQTT_OK/GD32VW55X_Wifi_BLE_SDK/GD32VW55x_RELEASE_V1.0.2/MSDK/wpa_supplicant/src/drivers\driver_common.c **** const char * driver_flag_to_string(u64 flag)
 253:C:/Users/stapi/OneDrive/Desktop/GD32VW553/V1_MQTT_OK/GD32VW55X_Wifi_BLE_SDK/GD32VW55x_RELEASE_V1.0.2/MSDK/wpa_supplicant/src/drivers\driver_common.c **** {
 436              		.loc 1 253 1 is_stmt 1
 437              		.cfi_startproc
 438              	.LVL27:
 254:C:/Users/stapi/OneDrive/Desktop/GD32VW553/V1_MQTT_OK/GD32VW55X_Wifi_BLE_SDK/GD32VW55x_RELEASE_V1.0.2/MSDK/wpa_supplicant/src/drivers\driver_common.c **** #define DF2S(x) case WPA_DRIVER_FLAGS_ ## x: return #x
 255:C:/Users/stapi/OneDrive/Desktop/GD32VW553/V1_MQTT_OK/GD32VW55X_Wifi_BLE_SDK/GD32VW55x_RELEASE_V1.0.2/MSDK/wpa_supplicant/src/drivers\driver_common.c **** 	switch (flag) {
 439              		.loc 1 255 2
 440 0000 01E5     		bne	a0,zero,.L172
 441 0002 8547     		li	a5,1
 442 0004 638FF536 		beq	a1,a5,.L256
 443              	.L172:
 444 0008 8547     		li	a5,1
 445 000a 63E9B71A 		bgtu	a1,a5,.L30
 446 000e 6394F500 		bne	a1,a5,.L173
 447 0012 6319051A 		bne	a0,zero,.L205
 448              	.L173:
 449 0016 C167     		li	a5,65536
 450 0018 6318F500 		bne	a0,a5,.L174
 451 001c F1E1     		bne	a1,zero,.L33
 256:C:/Users/stapi/OneDrive/Desktop/GD32VW553/V1_MQTT_OK/GD32VW55X_Wifi_BLE_SDK/GD32VW55x_RELEASE_V1.0.2/MSDK/wpa_supplicant/src/drivers\driver_common.c **** 	DF2S(DRIVER_IE);
 257:C:/Users/stapi/OneDrive/Desktop/GD32VW553/V1_MQTT_OK/GD32VW55X_Wifi_BLE_SDK/GD32VW55x_RELEASE_V1.0.2/MSDK/wpa_supplicant/src/drivers\driver_common.c **** 	DF2S(SET_KEYS_AFTER_ASSOC);
 258:C:/Users/stapi/OneDrive/Desktop/GD32VW553/V1_MQTT_OK/GD32VW55X_Wifi_BLE_SDK/GD32VW55x_RELEASE_V1.0.2/MSDK/wpa_supplicant/src/drivers\driver_common.c **** 	DF2S(DFS_OFFLOAD);
 259:C:/Users/stapi/OneDrive/Desktop/GD32VW553/V1_MQTT_OK/GD32VW55X_Wifi_BLE_SDK/GD32VW55x_RELEASE_V1.0.2/MSDK/wpa_supplicant/src/drivers\driver_common.c **** 	DF2S(4WAY_HANDSHAKE_PSK);
 260:C:/Users/stapi/OneDrive/Desktop/GD32VW553/V1_MQTT_OK/GD32VW55X_Wifi_BLE_SDK/GD32VW55x_RELEASE_V1.0.2/MSDK/wpa_supplicant/src/drivers\driver_common.c **** 	DF2S(4WAY_HANDSHAKE_8021X);
 261:C:/Users/stapi/OneDrive/Desktop/GD32VW553/V1_MQTT_OK/GD32VW55X_Wifi_BLE_SDK/GD32VW55x_RELEASE_V1.0.2/MSDK/wpa_supplicant/src/drivers\driver_common.c **** 	DF2S(WIRED);
 262:C:/Users/stapi/OneDrive/Desktop/GD32VW553/V1_MQTT_OK/GD32VW55X_Wifi_BLE_SDK/GD32VW55x_RELEASE_V1.0.2/MSDK/wpa_supplicant/src/drivers\driver_common.c **** 	DF2S(SME);
 263:C:/Users/stapi/OneDrive/Desktop/GD32VW553/V1_MQTT_OK/GD32VW55X_Wifi_BLE_SDK/GD32VW55x_RELEASE_V1.0.2/MSDK/wpa_supplicant/src/drivers\driver_common.c **** 	DF2S(AP);
 264:C:/Users/stapi/OneDrive/Desktop/GD32VW553/V1_MQTT_OK/GD32VW55X_Wifi_BLE_SDK/GD32VW55x_RELEASE_V1.0.2/MSDK/wpa_supplicant/src/drivers\driver_common.c **** 	DF2S(SET_KEYS_AFTER_ASSOC_DONE);
 265:C:/Users/stapi/OneDrive/Desktop/GD32VW553/V1_MQTT_OK/GD32VW55X_Wifi_BLE_SDK/GD32VW55x_RELEASE_V1.0.2/MSDK/wpa_supplicant/src/drivers\driver_common.c **** 	DF2S(HT_2040_COEX);
 266:C:/Users/stapi/OneDrive/Desktop/GD32VW553/V1_MQTT_OK/GD32VW55X_Wifi_BLE_SDK/GD32VW55x_RELEASE_V1.0.2/MSDK/wpa_supplicant/src/drivers\driver_common.c **** 	DF2S(P2P_CONCURRENT);
 267:C:/Users/stapi/OneDrive/Desktop/GD32VW553/V1_MQTT_OK/GD32VW55X_Wifi_BLE_SDK/GD32VW55x_RELEASE_V1.0.2/MSDK/wpa_supplicant/src/drivers\driver_common.c **** 	DF2S(P2P_DEDICATED_INTERFACE);
 268:C:/Users/stapi/OneDrive/Desktop/GD32VW553/V1_MQTT_OK/GD32VW55X_Wifi_BLE_SDK/GD32VW55x_RELEASE_V1.0.2/MSDK/wpa_supplicant/src/drivers\driver_common.c **** 	DF2S(P2P_CAPABLE);
 269:C:/Users/stapi/OneDrive/Desktop/GD32VW553/V1_MQTT_OK/GD32VW55X_Wifi_BLE_SDK/GD32VW55x_RELEASE_V1.0.2/MSDK/wpa_supplicant/src/drivers\driver_common.c **** 	DF2S(AP_TEARDOWN_SUPPORT);
 270:C:/Users/stapi/OneDrive/Desktop/GD32VW553/V1_MQTT_OK/GD32VW55X_Wifi_BLE_SDK/GD32VW55x_RELEASE_V1.0.2/MSDK/wpa_supplicant/src/drivers\driver_common.c **** 	DF2S(P2P_MGMT_AND_NON_P2P);
 271:C:/Users/stapi/OneDrive/Desktop/GD32VW553/V1_MQTT_OK/GD32VW55X_Wifi_BLE_SDK/GD32VW55x_RELEASE_V1.0.2/MSDK/wpa_supplicant/src/drivers\driver_common.c **** 	DF2S(VALID_ERROR_CODES);
 272:C:/Users/stapi/OneDrive/Desktop/GD32VW553/V1_MQTT_OK/GD32VW55X_Wifi_BLE_SDK/GD32VW55x_RELEASE_V1.0.2/MSDK/wpa_supplicant/src/drivers\driver_common.c **** 	DF2S(OFFCHANNEL_TX);
 273:C:/Users/stapi/OneDrive/Desktop/GD32VW553/V1_MQTT_OK/GD32VW55X_Wifi_BLE_SDK/GD32VW55x_RELEASE_V1.0.2/MSDK/wpa_supplicant/src/drivers\driver_common.c **** 	DF2S(EAPOL_TX_STATUS);
 452              		.loc 1 273 2 is_stmt 0
 453 001e 37050000 		lui	a0,%hi(.LC10)
 454              	.LVL28:
 455 0022 13050500 		addi	a0,a0,%lo(.LC10)
 456 0026 8280     		ret
 457              	.LVL29:
 458              	.L174:
 255:C:/Users/stapi/OneDrive/Desktop/GD32VW553/V1_MQTT_OK/GD32VW55X_Wifi_BLE_SDK/GD32VW55x_RELEASE_V1.0.2/MSDK/wpa_supplicant/src/drivers\driver_common.c **** 	DF2S(DRIVER_IE);
 459              		.loc 1 255 2
 460 0028 C5ED     		bne	a1,zero,.L33
 461 002a C167     		li	a5,65536
 462 002c 63EAA70A 		bgtu	a0,a5,.L33
 463 0030 93070010 		li	a5,256
 464 0034 630CF534 		beq	a0,a5,.L258
 465 0038 63E0A706 		bgtu	a0,a5,.L36
 466 003c C147     		li	a5,16
 467 003e 630CF534 		beq	a0,a5,.L259
 468 0042 63EAA702 		bgtu	a0,a5,.L39
 469 0046 9147     		li	a5,4
 470 0048 630CF534 		beq	a0,a5,.L260
 471 004c 63EDA700 		bgtu	a0,a5,.L42
 472 0050 8547     		li	a5,1
 473 0052 630CF534 		beq	a0,a5,.L261
 474 0056 8947     		li	a5,2
 475 0058 6312F54C 		bne	a0,a5,.L171
 476 005c 37050000 		lui	a0,%hi(.LC5)
 477              	.LVL30:
 478 0060 13050500 		addi	a0,a0,%lo(.LC5)
 479 0064 8280     		ret
 480              	.LVL31:
 481              	.L42:
 482 0066 A147     		li	a5,8
 483 0068 631AF54A 		bne	a0,a5,.L171
 260:C:/Users/stapi/OneDrive/Desktop/GD32VW553/V1_MQTT_OK/GD32VW55X_Wifi_BLE_SDK/GD32VW55x_RELEASE_V1.0.2/MSDK/wpa_supplicant/src/drivers\driver_common.c **** 	DF2S(WIRED);
 484              		.loc 1 260 2
 485 006c 37050000 		lui	a0,%hi(.LC8)
 486              	.LVL32:
 487 0070 13050500 		addi	a0,a0,%lo(.LC8)
 488 0074 8280     		ret
 489              	.LVL33:
 490              	.L39:
 255:C:/Users/stapi/OneDrive/Desktop/GD32VW553/V1_MQTT_OK/GD32VW55X_Wifi_BLE_SDK/GD32VW55x_RELEASE_V1.0.2/MSDK/wpa_supplicant/src/drivers\driver_common.c **** 	DF2S(DRIVER_IE);
 491              		.loc 1 255 2
 492 0076 93070004 		li	a5,64
 493 007a 630DF532 		beq	a0,a5,.L262
 494 007e 93070008 		li	a5,128
 495 0082 630EF532 		beq	a0,a5,.L263
 496 0086 93070002 		li	a5,32
 497 008a 6319F548 		bne	a0,a5,.L171
 262:C:/Users/stapi/OneDrive/Desktop/GD32VW553/V1_MQTT_OK/GD32VW55X_Wifi_BLE_SDK/GD32VW55x_RELEASE_V1.0.2/MSDK/wpa_supplicant/src/drivers\driver_common.c **** 	DF2S(AP);
 498              		.loc 1 262 2
 499 008e 37050000 		lui	a0,%hi(.LC14)
 500              	.LVL34:
 501 0092 13050500 		addi	a0,a0,%lo(.LC14)
 502 0096 8280     		ret
 503              	.LVL35:
 504              	.L36:
 255:C:/Users/stapi/OneDrive/Desktop/GD32VW553/V1_MQTT_OK/GD32VW55X_Wifi_BLE_SDK/GD32VW55x_RELEASE_V1.0.2/MSDK/wpa_supplicant/src/drivers\driver_common.c **** 	DF2S(DRIVER_IE);
 505              		.loc 1 255 2
 506 0098 8567     		li	a5,4096
 507 009a 6307F532 		beq	a0,a5,.L264
 508 009e 63E3A702 		bgtu	a0,a5,.L48
 509 00a2 93070040 		li	a5,1024
 510 00a6 6306F532 		beq	a0,a5,.L265
 511 00aa 93070580 		addi	a5,a0,-2048
 512 00ae 63870732 		beq	a5,zero,.L266
 513 00b2 93070020 		li	a5,512
 514 00b6 6313F546 		bne	a0,a5,.L171
 266:C:/Users/stapi/OneDrive/Desktop/GD32VW553/V1_MQTT_OK/GD32VW55X_Wifi_BLE_SDK/GD32VW55x_RELEASE_V1.0.2/MSDK/wpa_supplicant/src/drivers\driver_common.c **** 	DF2S(P2P_DEDICATED_INTERFACE);
 515              		.loc 1 266 2
 516 00ba 37050000 		lui	a0,%hi(.LC16)
 517              	.LVL36:
 518 00be 13050500 		addi	a0,a0,%lo(.LC16)
 519 00c2 8280     		ret
 520              	.LVL37:
 521              	.L48:
 255:C:/Users/stapi/OneDrive/Desktop/GD32VW553/V1_MQTT_OK/GD32VW55X_Wifi_BLE_SDK/GD32VW55x_RELEASE_V1.0.2/MSDK/wpa_supplicant/src/drivers\driver_common.c **** 	DF2S(DRIVER_IE);
 522              		.loc 1 255 2
 523 00c4 9167     		li	a5,16384
 524 00c6 6300F532 		beq	a0,a5,.L267
 525 00ca A167     		li	a5,32768
 526 00cc 6302F532 		beq	a0,a5,.L268
 527 00d0 8967     		li	a5,8192
 528 00d2 6315F544 		bne	a0,a5,.L171
 270:C:/Users/stapi/OneDrive/Desktop/GD32VW553/V1_MQTT_OK/GD32VW55X_Wifi_BLE_SDK/GD32VW55x_RELEASE_V1.0.2/MSDK/wpa_supplicant/src/drivers\driver_common.c **** 	DF2S(VALID_ERROR_CODES);
 529              		.loc 1 270 2
 530 00d6 37050000 		lui	a0,%hi(.LC26)
 531              	.LVL38:
 532 00da 13050500 		addi	a0,a0,%lo(.LC26)
 533 00de 8280     		ret
 534              	.LVL39:
 535              	.L33:
 255:C:/Users/stapi/OneDrive/Desktop/GD32VW553/V1_MQTT_OK/GD32VW55X_Wifi_BLE_SDK/GD32VW55x_RELEASE_V1.0.2/MSDK/wpa_supplicant/src/drivers\driver_common.c **** 	DF2S(DRIVER_IE);
 536              		.loc 1 255 2
 537 00e0 B7070001 		li	a5,16777216
 538 00e4 6318F500 		bne	a0,a5,.L191
 539 00e8 BDE1     		bne	a1,zero,.L55
 274:C:/Users/stapi/OneDrive/Desktop/GD32VW553/V1_MQTT_OK/GD32VW55X_Wifi_BLE_SDK/GD32VW55x_RELEASE_V1.0.2/MSDK/wpa_supplicant/src/drivers\driver_common.c **** 	DF2S(DEAUTH_TX_STATUS);
 275:C:/Users/stapi/OneDrive/Desktop/GD32VW553/V1_MQTT_OK/GD32VW55X_Wifi_BLE_SDK/GD32VW55x_RELEASE_V1.0.2/MSDK/wpa_supplicant/src/drivers\driver_common.c **** 	DF2S(BSS_SELECTION);
 276:C:/Users/stapi/OneDrive/Desktop/GD32VW553/V1_MQTT_OK/GD32VW55X_Wifi_BLE_SDK/GD32VW55x_RELEASE_V1.0.2/MSDK/wpa_supplicant/src/drivers\driver_common.c **** 	DF2S(TDLS_SUPPORT);
 277:C:/Users/stapi/OneDrive/Desktop/GD32VW553/V1_MQTT_OK/GD32VW55X_Wifi_BLE_SDK/GD32VW55x_RELEASE_V1.0.2/MSDK/wpa_supplicant/src/drivers\driver_common.c **** 	DF2S(TDLS_EXTERNAL_SETUP);
 278:C:/Users/stapi/OneDrive/Desktop/GD32VW553/V1_MQTT_OK/GD32VW55X_Wifi_BLE_SDK/GD32VW55x_RELEASE_V1.0.2/MSDK/wpa_supplicant/src/drivers\driver_common.c **** 	DF2S(PROBE_RESP_OFFLOAD);
 279:C:/Users/stapi/OneDrive/Desktop/GD32VW553/V1_MQTT_OK/GD32VW55X_Wifi_BLE_SDK/GD32VW55x_RELEASE_V1.0.2/MSDK/wpa_supplicant/src/drivers\driver_common.c **** 	DF2S(AP_UAPSD);
 280:C:/Users/stapi/OneDrive/Desktop/GD32VW553/V1_MQTT_OK/GD32VW55X_Wifi_BLE_SDK/GD32VW55x_RELEASE_V1.0.2/MSDK/wpa_supplicant/src/drivers\driver_common.c **** 	DF2S(INACTIVITY_TIMER);
 281:C:/Users/stapi/OneDrive/Desktop/GD32VW553/V1_MQTT_OK/GD32VW55X_Wifi_BLE_SDK/GD32VW55x_RELEASE_V1.0.2/MSDK/wpa_supplicant/src/drivers\driver_common.c **** 	DF2S(AP_MLME);
 540              		.loc 1 281 2
 541 00ea 37050000 		lui	a0,%hi(.LC22)
 542              	.LVL40:
 543 00ee 13050500 		addi	a0,a0,%lo(.LC22)
 544 00f2 8280     		ret
 545              	.LVL41:
 546              	.L191:
 255:C:/Users/stapi/OneDrive/Desktop/GD32VW553/V1_MQTT_OK/GD32VW55X_Wifi_BLE_SDK/GD32VW55x_RELEASE_V1.0.2/MSDK/wpa_supplicant/src/drivers\driver_common.c **** 	DF2S(DRIVER_IE);
 547              		.loc 1 255 2
 548 00f4 A9ED     		bne	a1,zero,.L55
 549 00f6 B7070001 		li	a5,16777216
 550 00fa 63EAA704 		bgtu	a0,a5,.L55
 551 00fe B7071000 		li	a5,1048576
 552 0102 630CF52E 		beq	a0,a5,.L270
 553 0106 63E3A702 		bgtu	a0,a5,.L58
 554 010a B7070400 		li	a5,262144
 555 010e 630BF52E 		beq	a0,a5,.L271
 556 0112 B7070800 		li	a5,524288
 557 0116 630CF52E 		beq	a0,a5,.L272
 558 011a B7070200 		li	a5,131072
 559 011e 631FF53E 		bne	a0,a5,.L171
 274:C:/Users/stapi/OneDrive/Desktop/GD32VW553/V1_MQTT_OK/GD32VW55X_Wifi_BLE_SDK/GD32VW55x_RELEASE_V1.0.2/MSDK/wpa_supplicant/src/drivers\driver_common.c **** 	DF2S(DEAUTH_TX_STATUS);
 560              		.loc 1 274 2
 561 0122 37050000 		lui	a0,%hi(.LC24)
 562              	.LVL42:
 563 0126 13050500 		addi	a0,a0,%lo(.LC24)
 564 012a 8280     		ret
 565              	.LVL43:
 566              	.L58:
 255:C:/Users/stapi/OneDrive/Desktop/GD32VW553/V1_MQTT_OK/GD32VW55X_Wifi_BLE_SDK/GD32VW55x_RELEASE_V1.0.2/MSDK/wpa_supplicant/src/drivers\driver_common.c **** 	DF2S(DRIVER_IE);
 567              		.loc 1 255 2
 568 012c B7074000 		li	a5,4194304
 569 0130 6304F52E 		beq	a0,a5,.L273
 570 0134 B7078000 		li	a5,8388608
 571 0138 6305F52E 		beq	a0,a5,.L274
 572 013c B7072000 		li	a5,2097152
 573 0140 631EF53C 		bne	a0,a5,.L171
 278:C:/Users/stapi/OneDrive/Desktop/GD32VW553/V1_MQTT_OK/GD32VW55X_Wifi_BLE_SDK/GD32VW55x_RELEASE_V1.0.2/MSDK/wpa_supplicant/src/drivers\driver_common.c **** 	DF2S(AP_UAPSD);
 574              		.loc 1 278 2
 575 0144 37050000 		lui	a0,%hi(.LC30)
 576              	.LVL44:
 577 0148 13050500 		addi	a0,a0,%lo(.LC30)
 578 014c 8280     		ret
 579              	.LVL45:
 580              	.L55:
 255:C:/Users/stapi/OneDrive/Desktop/GD32VW553/V1_MQTT_OK/GD32VW55X_Wifi_BLE_SDK/GD32VW55x_RELEASE_V1.0.2/MSDK/wpa_supplicant/src/drivers\driver_common.c **** 	DF2S(DRIVER_IE);
 581              		.loc 1 255 2
 582 014e B7070010 		li	a5,268435456
 583 0152 6318F500 		bne	a0,a5,.L199
 584 0156 85ED     		bne	a1,zero,.L65
 282:C:/Users/stapi/OneDrive/Desktop/GD32VW553/V1_MQTT_OK/GD32VW55X_Wifi_BLE_SDK/GD32VW55x_RELEASE_V1.0.2/MSDK/wpa_supplicant/src/drivers\driver_common.c **** 	DF2S(SAE);
 283:C:/Users/stapi/OneDrive/Desktop/GD32VW553/V1_MQTT_OK/GD32VW55X_Wifi_BLE_SDK/GD32VW55x_RELEASE_V1.0.2/MSDK/wpa_supplicant/src/drivers\driver_common.c **** 	DF2S(OBSS_SCAN);
 284:C:/Users/stapi/OneDrive/Desktop/GD32VW553/V1_MQTT_OK/GD32VW55X_Wifi_BLE_SDK/GD32VW55x_RELEASE_V1.0.2/MSDK/wpa_supplicant/src/drivers\driver_common.c **** 	DF2S(IBSS);
 285:C:/Users/stapi/OneDrive/Desktop/GD32VW553/V1_MQTT_OK/GD32VW55X_Wifi_BLE_SDK/GD32VW55x_RELEASE_V1.0.2/MSDK/wpa_supplicant/src/drivers\driver_common.c **** 	DF2S(RADAR);
 585              		.loc 1 285 2
 586 0158 37050000 		lui	a0,%hi(.LC28)
 587              	.LVL46:
 588 015c 13050500 		addi	a0,a0,%lo(.LC28)
 589 0160 8280     		ret
 590              	.LVL47:
 591              	.L199:
 255:C:/Users/stapi/OneDrive/Desktop/GD32VW553/V1_MQTT_OK/GD32VW55X_Wifi_BLE_SDK/GD32VW55x_RELEASE_V1.0.2/MSDK/wpa_supplicant/src/drivers\driver_common.c **** 	DF2S(DRIVER_IE);
 592              		.loc 1 255 2
 593 0162 95E5     		bne	a1,zero,.L65
 594 0164 B7070010 		li	a5,268435456
 595 0168 63E3A702 		bgtu	a0,a5,.L65
 596 016c B7070004 		li	a5,67108864
 597 0170 630EF52A 		beq	a0,a5,.L276
 598 0174 B7070008 		li	a5,134217728
 599 0178 630FF52A 		beq	a0,a5,.L277
 600 017c B7070002 		li	a5,33554432
 601 0180 631EF538 		bne	a0,a5,.L171
 282:C:/Users/stapi/OneDrive/Desktop/GD32VW553/V1_MQTT_OK/GD32VW55X_Wifi_BLE_SDK/GD32VW55x_RELEASE_V1.0.2/MSDK/wpa_supplicant/src/drivers\driver_common.c **** 	DF2S(SAE);
 602              		.loc 1 282 2
 603 0184 37050000 		lui	a0,%hi(.LC32)
 604              	.LVL48:
 605 0188 13050500 		addi	a0,a0,%lo(.LC32)
 606 018c 8280     		ret
 607              	.LVL49:
 608              	.L65:
 255:C:/Users/stapi/OneDrive/Desktop/GD32VW553/V1_MQTT_OK/GD32VW55X_Wifi_BLE_SDK/GD32VW55x_RELEASE_V1.0.2/MSDK/wpa_supplicant/src/drivers\driver_common.c **** 	DF2S(DRIVER_IE);
 609              		.loc 1 255 2
 610 018e B7070040 		li	a5,1073741824
 611 0192 6314F500 		bne	a0,a5,.L203
 612 0196 6385052A 		beq	a1,zero,.L278
 613              	.L203:
 614 019a B7070080 		li	a5,-2147483648
 615 019e 6314F500 		bne	a0,a5,.L204
 616 01a2 6384052A 		beq	a1,zero,.L279
 617              	.L204:
 618 01a6 B7070020 		li	a5,536870912
 619 01aa 6319F536 		bne	a0,a5,.L171
 620 01ae 63970536 		bne	a1,zero,.L171
 286:C:/Users/stapi/OneDrive/Desktop/GD32VW553/V1_MQTT_OK/GD32VW55X_Wifi_BLE_SDK/GD32VW55x_RELEASE_V1.0.2/MSDK/wpa_supplicant/src/drivers\driver_common.c **** 	DF2S(DEDICATED_P2P_DEVICE);
 621              		.loc 1 286 2
 622 01b2 37050000 		lui	a0,%hi(.LC49)
 623              	.LVL50:
 624 01b6 13050500 		addi	a0,a0,%lo(.LC49)
 625 01ba 8280     		ret
 626              	.LVL51:
 627              	.L30:
 255:C:/Users/stapi/OneDrive/Desktop/GD32VW553/V1_MQTT_OK/GD32VW55X_Wifi_BLE_SDK/GD32VW55x_RELEASE_V1.0.2/MSDK/wpa_supplicant/src/drivers\driver_common.c **** 	DF2S(DRIVER_IE);
 628              		.loc 1 255 2
 629 01bc 01E5     		bne	a0,zero,.L205
 630 01be C167     		li	a5,65536
 631 01c0 638AF528 		beq	a1,a5,.L280
 632              	.L205:
 633 01c4 C167     		li	a5,65536
 634 01c6 63EFB70C 		bgtu	a1,a5,.L72
 635 01ca 639CF500 		bne	a1,a5,.L206
 636 01ce 65E1     		bne	a0,zero,.L221
 637              	.L281:
 638 01d0 93070010 		li	a5,256
 639 01d4 6398F500 		bne	a1,a5,.L207
 287:C:/Users/stapi/OneDrive/Desktop/GD32VW553/V1_MQTT_OK/GD32VW55X_Wifi_BLE_SDK/GD32VW55x_RELEASE_V1.0.2/MSDK/wpa_supplicant/src/drivers\driver_common.c **** 	DF2S(QOS_MAPPING);
 288:C:/Users/stapi/OneDrive/Desktop/GD32VW553/V1_MQTT_OK/GD32VW55X_Wifi_BLE_SDK/GD32VW55x_RELEASE_V1.0.2/MSDK/wpa_supplicant/src/drivers\driver_common.c **** 	DF2S(AP_CSA);
 289:C:/Users/stapi/OneDrive/Desktop/GD32VW553/V1_MQTT_OK/GD32VW55X_Wifi_BLE_SDK/GD32VW55x_RELEASE_V1.0.2/MSDK/wpa_supplicant/src/drivers\driver_common.c **** 	DF2S(MESH);
 290:C:/Users/stapi/OneDrive/Desktop/GD32VW553/V1_MQTT_OK/GD32VW55X_Wifi_BLE_SDK/GD32VW55x_RELEASE_V1.0.2/MSDK/wpa_supplicant/src/drivers\driver_common.c **** 	DF2S(ACS_OFFLOAD);
 291:C:/Users/stapi/OneDrive/Desktop/GD32VW553/V1_MQTT_OK/GD32VW55X_Wifi_BLE_SDK/GD32VW55x_RELEASE_V1.0.2/MSDK/wpa_supplicant/src/drivers\driver_common.c **** 	DF2S(KEY_MGMT_OFFLOAD);
 292:C:/Users/stapi/OneDrive/Desktop/GD32VW553/V1_MQTT_OK/GD32VW55X_Wifi_BLE_SDK/GD32VW55x_RELEASE_V1.0.2/MSDK/wpa_supplicant/src/drivers\driver_common.c **** 	DF2S(TDLS_CHANNEL_SWITCH);
 293:C:/Users/stapi/OneDrive/Desktop/GD32VW553/V1_MQTT_OK/GD32VW55X_Wifi_BLE_SDK/GD32VW55x_RELEASE_V1.0.2/MSDK/wpa_supplicant/src/drivers\driver_common.c **** 	DF2S(HT_IBSS);
 294:C:/Users/stapi/OneDrive/Desktop/GD32VW553/V1_MQTT_OK/GD32VW55X_Wifi_BLE_SDK/GD32VW55x_RELEASE_V1.0.2/MSDK/wpa_supplicant/src/drivers\driver_common.c **** 	DF2S(VHT_IBSS);
 295:C:/Users/stapi/OneDrive/Desktop/GD32VW553/V1_MQTT_OK/GD32VW55X_Wifi_BLE_SDK/GD32VW55x_RELEASE_V1.0.2/MSDK/wpa_supplicant/src/drivers\driver_common.c **** 	DF2S(SUPPORT_HW_MODE_ANY);
 296:C:/Users/stapi/OneDrive/Desktop/GD32VW553/V1_MQTT_OK/GD32VW55X_Wifi_BLE_SDK/GD32VW55x_RELEASE_V1.0.2/MSDK/wpa_supplicant/src/drivers\driver_common.c **** 	DF2S(OFFCHANNEL_SIMULTANEOUS);
 297:C:/Users/stapi/OneDrive/Desktop/GD32VW553/V1_MQTT_OK/GD32VW55X_Wifi_BLE_SDK/GD32VW55x_RELEASE_V1.0.2/MSDK/wpa_supplicant/src/drivers\driver_common.c **** 	DF2S(FULL_AP_CLIENT_STATE);
 640              		.loc 1 297 2
 641 01d8 37050000 		lui	a0,%hi(.LC37)
 642              	.LVL52:
 643 01dc 13050500 		addi	a0,a0,%lo(.LC37)
 644 01e0 8280     		ret
 645              	.LVL53:
 646              	.L206:
 255:C:/Users/stapi/OneDrive/Desktop/GD32VW553/V1_MQTT_OK/GD32VW55X_Wifi_BLE_SDK/GD32VW55x_RELEASE_V1.0.2/MSDK/wpa_supplicant/src/drivers\driver_common.c **** 	DF2S(DRIVER_IE);
 647              		.loc 1 255 2
 648 01e2 7DD5     		beq	a0,zero,.L281
 649              	.L207:
 650 01e4 93070010 		li	a5,256
 651 01e8 63E4B706 		bgtu	a1,a5,.L75
 652 01ec 639BF500 		bne	a1,a5,.L208
 653 01f0 25E5     		bne	a0,zero,.L215
 654              	.L283:
 655 01f2 C147     		li	a5,16
 656 01f4 6398F500 		bne	a1,a5,.L209
 293:C:/Users/stapi/OneDrive/Desktop/GD32VW553/V1_MQTT_OK/GD32VW55X_Wifi_BLE_SDK/GD32VW55x_RELEASE_V1.0.2/MSDK/wpa_supplicant/src/drivers\driver_common.c **** 	DF2S(VHT_IBSS);
 657              		.loc 1 293 2
 658 01f8 37050000 		lui	a0,%hi(.LC35)
 659              	.LVL54:
 660 01fc 13050500 		addi	a0,a0,%lo(.LC35)
 661 0200 8280     		ret
 662              	.LVL55:
 663              	.L208:
 255:C:/Users/stapi/OneDrive/Desktop/GD32VW553/V1_MQTT_OK/GD32VW55X_Wifi_BLE_SDK/GD32VW55x_RELEASE_V1.0.2/MSDK/wpa_supplicant/src/drivers\driver_common.c **** 	DF2S(DRIVER_IE);
 664              		.loc 1 255 2
 665 0202 65D9     		beq	a0,zero,.L283
 666              	.L209:
 667 0204 C147     		li	a5,16
 668 0206 63E2B702 		bgtu	a1,a5,.L78
 669 020a 63190530 		bne	a0,zero,.L171
 670 020e 9147     		li	a5,4
 671 0210 6387F524 		beq	a1,a5,.L286
 672 0214 A147     		li	a5,8
 673 0216 6389F524 		beq	a1,a5,.L287
 674 021a 8947     		li	a5,2
 675 021c 6390F530 		bne	a1,a5,.L171
 290:C:/Users/stapi/OneDrive/Desktop/GD32VW553/V1_MQTT_OK/GD32VW55X_Wifi_BLE_SDK/GD32VW55x_RELEASE_V1.0.2/MSDK/wpa_supplicant/src/drivers\driver_common.c **** 	DF2S(KEY_MGMT_OFFLOAD);
 676              		.loc 1 290 2
 677 0220 37050000 		lui	a0,%hi(.LC39)
 678              	.LVL56:
 679 0224 13050500 		addi	a0,a0,%lo(.LC39)
 680 0228 8280     		ret
 681              	.LVL57:
 682              	.L78:
 255:C:/Users/stapi/OneDrive/Desktop/GD32VW553/V1_MQTT_OK/GD32VW55X_Wifi_BLE_SDK/GD32VW55x_RELEASE_V1.0.2/MSDK/wpa_supplicant/src/drivers\driver_common.c **** 	DF2S(DRIVER_IE);
 683              		.loc 1 255 2
 684 022a 6319052E 		bne	a0,zero,.L171
 685 022e 93070004 		li	a5,64
 686 0232 6380F524 		beq	a1,a5,.L288
 687 0236 93070008 		li	a5,128
 688 023a 6381F524 		beq	a1,a5,.L289
 689 023e 93070002 		li	a5,32
 690 0242 639DF52C 		bne	a1,a5,.L171
 294:C:/Users/stapi/OneDrive/Desktop/GD32VW553/V1_MQTT_OK/GD32VW55X_Wifi_BLE_SDK/GD32VW55x_RELEASE_V1.0.2/MSDK/wpa_supplicant/src/drivers\driver_common.c **** 	DF2S(SUPPORT_HW_MODE_ANY);
 691              		.loc 1 294 2
 692 0246 37050000 		lui	a0,%hi(.LC45)
 693              	.LVL58:
 694 024a 13050500 		addi	a0,a0,%lo(.LC45)
 695 024e 8280     		ret
 696              	.LVL59:
 697              	.L75:
 255:C:/Users/stapi/OneDrive/Desktop/GD32VW553/V1_MQTT_OK/GD32VW55X_Wifi_BLE_SDK/GD32VW55x_RELEASE_V1.0.2/MSDK/wpa_supplicant/src/drivers\driver_common.c **** 	DF2S(DRIVER_IE);
 698              		.loc 1 255 2
 699 0250 01E5     		bne	a0,zero,.L215
 700 0252 8567     		li	a5,4096
 701 0254 6389F522 		beq	a1,a5,.L290
 702              	.L215:
 703 0258 8567     		li	a5,4096
 704 025a 63E5B702 		bgtu	a1,a5,.L85
 705 025e 631F052A 		bne	a0,zero,.L171
 706 0262 93070040 		li	a5,1024
 707 0266 6385F522 		beq	a1,a5,.L292
 708 026a 93870580 		addi	a5,a1,-2048
 709 026e 63860722 		beq	a5,zero,.L293
 710 0272 93070020 		li	a5,512
 711 0276 6393F52A 		bne	a1,a5,.L171
 298:C:/Users/stapi/OneDrive/Desktop/GD32VW553/V1_MQTT_OK/GD32VW55X_Wifi_BLE_SDK/GD32VW55x_RELEASE_V1.0.2/MSDK/wpa_supplicant/src/drivers\driver_common.c **** 	DF2S(P2P_LISTEN_OFFLOAD);
 712              		.loc 1 298 2
 713 027a 37050000 		lui	a0,%hi(.LC47)
 714              	.LVL60:
 715 027e 13050500 		addi	a0,a0,%lo(.LC47)
 716 0282 8280     		ret
 717              	.LVL61:
 718              	.L85:
 255:C:/Users/stapi/OneDrive/Desktop/GD32VW553/V1_MQTT_OK/GD32VW55X_Wifi_BLE_SDK/GD32VW55x_RELEASE_V1.0.2/MSDK/wpa_supplicant/src/drivers\driver_common.c **** 	DF2S(DRIVER_IE);
 719              		.loc 1 255 2
 720 0284 631C0528 		bne	a0,zero,.L171
 721 0288 9167     		li	a5,16384
 722 028a 638DF520 		beq	a1,a5,.L294
 723 028e A167     		li	a5,32768
 724 0290 638FF520 		beq	a1,a5,.L295
 725 0294 8967     		li	a5,8192
 726 0296 6393F528 		bne	a1,a5,.L171
 299:C:/Users/stapi/OneDrive/Desktop/GD32VW553/V1_MQTT_OK/GD32VW55X_Wifi_BLE_SDK/GD32VW55x_RELEASE_V1.0.2/MSDK/wpa_supplicant/src/drivers\driver_common.c **** 	DF2S(SUPPORT_FILS);
 300:C:/Users/stapi/OneDrive/Desktop/GD32VW553/V1_MQTT_OK/GD32VW55X_Wifi_BLE_SDK/GD32VW55x_RELEASE_V1.0.2/MSDK/wpa_supplicant/src/drivers\driver_common.c **** 	DF2S(BEACON_RATE_LEGACY);
 301:C:/Users/stapi/OneDrive/Desktop/GD32VW553/V1_MQTT_OK/GD32VW55X_Wifi_BLE_SDK/GD32VW55x_RELEASE_V1.0.2/MSDK/wpa_supplicant/src/drivers\driver_common.c **** 	DF2S(BEACON_RATE_HT);
 302:C:/Users/stapi/OneDrive/Desktop/GD32VW553/V1_MQTT_OK/GD32VW55X_Wifi_BLE_SDK/GD32VW55x_RELEASE_V1.0.2/MSDK/wpa_supplicant/src/drivers\driver_common.c **** 	DF2S(BEACON_RATE_VHT);
 727              		.loc 1 302 2
 728 029a 37050000 		lui	a0,%hi(.LC57)
 729              	.LVL62:
 730 029e 13050500 		addi	a0,a0,%lo(.LC57)
 731 02a2 8280     		ret
 732              	.LVL63:
 733              	.L72:
 255:C:/Users/stapi/OneDrive/Desktop/GD32VW553/V1_MQTT_OK/GD32VW55X_Wifi_BLE_SDK/GD32VW55x_RELEASE_V1.0.2/MSDK/wpa_supplicant/src/drivers\driver_common.c **** 	DF2S(DRIVER_IE);
 734              		.loc 1 255 2
 735 02a4 09E5     		bne	a0,zero,.L221
 736 02a6 B7070001 		li	a5,16777216
 737 02aa 6387F520 		beq	a1,a5,.L296
 738              	.L221:
 739 02ae B7070001 		li	a5,16777216
 740 02b2 63E9B706 		bgtu	a1,a5,.L92
 741 02b6 639CF500 		bne	a1,a5,.L222
 742 02ba 35E9     		bne	a0,zero,.L229
 743              	.L297:
 744 02bc B7071000 		li	a5,1048576
 745 02c0 6398F500 		bne	a1,a5,.L223
 303:C:/Users/stapi/OneDrive/Desktop/GD32VW553/V1_MQTT_OK/GD32VW55X_Wifi_BLE_SDK/GD32VW55x_RELEASE_V1.0.2/MSDK/wpa_supplicant/src/drivers\driver_common.c **** 	DF2S(MGMT_TX_RANDOM_TA);
 304:C:/Users/stapi/OneDrive/Desktop/GD32VW553/V1_MQTT_OK/GD32VW55X_Wifi_BLE_SDK/GD32VW55x_RELEASE_V1.0.2/MSDK/wpa_supplicant/src/drivers\driver_common.c **** 	DF2S(MGMT_TX_RANDOM_TA_CONNECTED);
 305:C:/Users/stapi/OneDrive/Desktop/GD32VW553/V1_MQTT_OK/GD32VW55X_Wifi_BLE_SDK/GD32VW55x_RELEASE_V1.0.2/MSDK/wpa_supplicant/src/drivers\driver_common.c **** 	DF2S(SCHED_SCAN_RELATIVE_RSSI);
 306:C:/Users/stapi/OneDrive/Desktop/GD32VW553/V1_MQTT_OK/GD32VW55X_Wifi_BLE_SDK/GD32VW55x_RELEASE_V1.0.2/MSDK/wpa_supplicant/src/drivers\driver_common.c **** 	DF2S(HE_CAPABILITIES);
 307:C:/Users/stapi/OneDrive/Desktop/GD32VW553/V1_MQTT_OK/GD32VW55X_Wifi_BLE_SDK/GD32VW55x_RELEASE_V1.0.2/MSDK/wpa_supplicant/src/drivers\driver_common.c **** 	DF2S(FILS_SK_OFFLOAD);
 308:C:/Users/stapi/OneDrive/Desktop/GD32VW553/V1_MQTT_OK/GD32VW55X_Wifi_BLE_SDK/GD32VW55x_RELEASE_V1.0.2/MSDK/wpa_supplicant/src/drivers\driver_common.c **** 	DF2S(OCE_STA);
 309:C:/Users/stapi/OneDrive/Desktop/GD32VW553/V1_MQTT_OK/GD32VW55X_Wifi_BLE_SDK/GD32VW55x_RELEASE_V1.0.2/MSDK/wpa_supplicant/src/drivers\driver_common.c **** 	DF2S(OCE_AP);
 746              		.loc 1 309 2
 747 02c4 37050000 		lui	a0,%hi(.LC51)
 748              	.LVL64:
 749 02c8 13050500 		addi	a0,a0,%lo(.LC51)
 750 02cc 8280     		ret
 751              	.LVL65:
 752              	.L222:
 255:C:/Users/stapi/OneDrive/Desktop/GD32VW553/V1_MQTT_OK/GD32VW55X_Wifi_BLE_SDK/GD32VW55x_RELEASE_V1.0.2/MSDK/wpa_supplicant/src/drivers\driver_common.c **** 	DF2S(DRIVER_IE);
 753              		.loc 1 255 2
 754 02ce 7DD5     		beq	a0,zero,.L297
 755              	.L223:
 756 02d0 B7071000 		li	a5,1048576
 757 02d4 63E5B702 		bgtu	a1,a5,.L95
 758 02d8 63120524 		bne	a0,zero,.L171
 759 02dc B7070400 		li	a5,262144
 760 02e0 6381F51E 		beq	a1,a5,.L300
 761 02e4 B7070800 		li	a5,524288
 762 02e8 6382F51E 		beq	a1,a5,.L301
 763 02ec B7070200 		li	a5,131072
 764 02f0 6396F522 		bne	a1,a5,.L171
 306:C:/Users/stapi/OneDrive/Desktop/GD32VW553/V1_MQTT_OK/GD32VW55X_Wifi_BLE_SDK/GD32VW55x_RELEASE_V1.0.2/MSDK/wpa_supplicant/src/drivers\driver_common.c **** 	DF2S(FILS_SK_OFFLOAD);
 765              		.loc 1 306 2
 766 02f4 37050000 		lui	a0,%hi(.LC55)
 767              	.LVL66:
 768 02f8 13050500 		addi	a0,a0,%lo(.LC55)
 769 02fc 8280     		ret
 770              	.LVL67:
 771              	.L95:
 255:C:/Users/stapi/OneDrive/Desktop/GD32VW553/V1_MQTT_OK/GD32VW55X_Wifi_BLE_SDK/GD32VW55x_RELEASE_V1.0.2/MSDK/wpa_supplicant/src/drivers\driver_common.c **** 	DF2S(DRIVER_IE);
 772              		.loc 1 255 2
 773 02fe 631F0520 		bne	a0,zero,.L171
 774 0302 B7074000 		li	a5,4194304
 775 0306 6388F51C 		beq	a1,a5,.L302
 776 030a B7078000 		li	a5,8388608
 777 030e 6389F51C 		beq	a1,a5,.L303
 778 0312 B7072000 		li	a5,2097152
 779 0316 6393F520 		bne	a1,a5,.L171
 310:C:/Users/stapi/OneDrive/Desktop/GD32VW553/V1_MQTT_OK/GD32VW55X_Wifi_BLE_SDK/GD32VW55x_RELEASE_V1.0.2/MSDK/wpa_supplicant/src/drivers\driver_common.c **** 	DF2S(OCE_STA_CFON);
 780              		.loc 1 310 2
 781 031a 37050000 		lui	a0,%hi(.LC60)
 782              	.LVL68:
 783 031e 13050500 		addi	a0,a0,%lo(.LC60)
 784 0322 8280     		ret
 785              	.LVL69:
 786              	.L92:
 255:C:/Users/stapi/OneDrive/Desktop/GD32VW553/V1_MQTT_OK/GD32VW55X_Wifi_BLE_SDK/GD32VW55x_RELEASE_V1.0.2/MSDK/wpa_supplicant/src/drivers\driver_common.c **** 	DF2S(DRIVER_IE);
 787              		.loc 1 255 2
 788 0324 09E5     		bne	a0,zero,.L229
 789 0326 B7070010 		li	a5,268435456
 790 032a 6380F51C 		beq	a1,a5,.L304
 791              	.L229:
 792 032e B7070010 		li	a5,268435456
 793 0332 63E5B702 		bgtu	a1,a5,.L102
 794 0336 6313051E 		bne	a0,zero,.L171
 795 033a B7070004 		li	a5,67108864
 796 033e 638BF51A 		beq	a1,a5,.L306
 797 0342 B7070008 		li	a5,134217728
 798 0346 638CF51A 		beq	a1,a5,.L307
 799 034a B7070002 		li	a5,33554432
 800 034e 6397F51C 		bne	a1,a5,.L171
 259:C:/Users/stapi/OneDrive/Desktop/GD32VW553/V1_MQTT_OK/GD32VW55X_Wifi_BLE_SDK/GD32VW55x_RELEASE_V1.0.2/MSDK/wpa_supplicant/src/drivers\driver_common.c **** 	DF2S(4WAY_HANDSHAKE_8021X);
 801              		.loc 1 259 2
 802 0352 37050000 		lui	a0,%hi(.LC62)
 803              	.LVL70:
 804 0356 13050500 		addi	a0,a0,%lo(.LC62)
 805 035a 8280     		ret
 806              	.LVL71:
 807              	.L102:
 255:C:/Users/stapi/OneDrive/Desktop/GD32VW553/V1_MQTT_OK/GD32VW55X_Wifi_BLE_SDK/GD32VW55x_RELEASE_V1.0.2/MSDK/wpa_supplicant/src/drivers\driver_common.c **** 	DF2S(DRIVER_IE);
 808              		.loc 1 255 2
 809 035c 6310051C 		bne	a0,zero,.L171
 810 0360 B7070040 		li	a5,1073741824
 811 0364 6382F51A 		beq	a1,a5,.L308
 812 0368 B7070080 		li	a5,-2147483648
 813 036c 6383F51A 		beq	a1,a5,.L309
 814 0370 B7070020 		li	a5,536870912
 815 0374 6394F51A 		bne	a1,a5,.L171
 311:C:/Users/stapi/OneDrive/Desktop/GD32VW553/V1_MQTT_OK/GD32VW55X_Wifi_BLE_SDK/GD32VW55x_RELEASE_V1.0.2/MSDK/wpa_supplicant/src/drivers\driver_common.c **** 	DF2S(MFP_OPTIONAL);
 312:C:/Users/stapi/OneDrive/Desktop/GD32VW553/V1_MQTT_OK/GD32VW55X_Wifi_BLE_SDK/GD32VW55x_RELEASE_V1.0.2/MSDK/wpa_supplicant/src/drivers\driver_common.c **** 	DF2S(SELF_MANAGED_REGULATORY);
 313:C:/Users/stapi/OneDrive/Desktop/GD32VW553/V1_MQTT_OK/GD32VW55X_Wifi_BLE_SDK/GD32VW55x_RELEASE_V1.0.2/MSDK/wpa_supplicant/src/drivers\driver_common.c **** 	DF2S(FTM_RESPONDER);
 314:C:/Users/stapi/OneDrive/Desktop/GD32VW553/V1_MQTT_OK/GD32VW55X_Wifi_BLE_SDK/GD32VW55x_RELEASE_V1.0.2/MSDK/wpa_supplicant/src/drivers\driver_common.c **** 	DF2S(CONTROL_PORT);
 315:C:/Users/stapi/OneDrive/Desktop/GD32VW553/V1_MQTT_OK/GD32VW55X_Wifi_BLE_SDK/GD32VW55x_RELEASE_V1.0.2/MSDK/wpa_supplicant/src/drivers\driver_common.c **** 	DF2S(VLAN_OFFLOAD);
 316:C:/Users/stapi/OneDrive/Desktop/GD32VW553/V1_MQTT_OK/GD32VW55X_Wifi_BLE_SDK/GD32VW55x_RELEASE_V1.0.2/MSDK/wpa_supplicant/src/drivers\driver_common.c **** 	DF2S(UPDATE_FT_IES);
 317:C:/Users/stapi/OneDrive/Desktop/GD32VW553/V1_MQTT_OK/GD32VW55X_Wifi_BLE_SDK/GD32VW55x_RELEASE_V1.0.2/MSDK/wpa_supplicant/src/drivers\driver_common.c **** 	DF2S(SAFE_PTK0_REKEYS);
 816              		.loc 1 317 2
 817 0378 37050000 		lui	a0,%hi(.LC65)
 818              	.LVL72:
 819 037c 13050500 		addi	a0,a0,%lo(.LC65)
 820 0380 8280     		ret
 821              	.LVL73:
 822              	.L256:
 289:C:/Users/stapi/OneDrive/Desktop/GD32VW553/V1_MQTT_OK/GD32VW55X_Wifi_BLE_SDK/GD32VW55x_RELEASE_V1.0.2/MSDK/wpa_supplicant/src/drivers\driver_common.c **** 	DF2S(ACS_OFFLOAD);
 823              		.loc 1 289 2
 824 0382 37050000 		lui	a0,%hi(.LC18)
 825              	.LVL74:
 826 0386 13050500 		addi	a0,a0,%lo(.LC18)
 827 038a 8280     		ret
 828              	.LVL75:
 829              	.L258:
 265:C:/Users/stapi/OneDrive/Desktop/GD32VW553/V1_MQTT_OK/GD32VW55X_Wifi_BLE_SDK/GD32VW55x_RELEASE_V1.0.2/MSDK/wpa_supplicant/src/drivers\driver_common.c **** 	DF2S(P2P_CONCURRENT);
 830              		.loc 1 265 2
 831 038c 37050000 		lui	a0,%hi(.LC6)
 832              	.LVL76:
 833 0390 13050500 		addi	a0,a0,%lo(.LC6)
 834 0394 8280     		ret
 835              	.LVL77:
 836              	.L259:
 261:C:/Users/stapi/OneDrive/Desktop/GD32VW553/V1_MQTT_OK/GD32VW55X_Wifi_BLE_SDK/GD32VW55x_RELEASE_V1.0.2/MSDK/wpa_supplicant/src/drivers\driver_common.c **** 	DF2S(SME);
 837              		.loc 1 261 2
 838 0396 37050000 		lui	a0,%hi(.LC3)
 839              	.LVL78:
 840 039a 13050500 		addi	a0,a0,%lo(.LC3)
 841 039e 8280     		ret
 842              	.LVL79:
 843              	.L260:
 258:C:/Users/stapi/OneDrive/Desktop/GD32VW553/V1_MQTT_OK/GD32VW55X_Wifi_BLE_SDK/GD32VW55x_RELEASE_V1.0.2/MSDK/wpa_supplicant/src/drivers\driver_common.c **** 	DF2S(4WAY_HANDSHAKE_PSK);
 844              		.loc 1 258 2
 845 03a0 37050000 		lui	a0,%hi(.LC64)
 846              	.LVL80:
 847 03a4 13050500 		addi	a0,a0,%lo(.LC64)
 848 03a8 8280     		ret
 849              	.LVL81:
 850              	.L261:
 256:C:/Users/stapi/OneDrive/Desktop/GD32VW553/V1_MQTT_OK/GD32VW55X_Wifi_BLE_SDK/GD32VW55x_RELEASE_V1.0.2/MSDK/wpa_supplicant/src/drivers\driver_common.c **** 	DF2S(SET_KEYS_AFTER_ASSOC);
 851              		.loc 1 256 2
 852 03aa 37050000 		lui	a0,%hi(.LC2)
 853              	.LVL82:
 854 03ae 13050500 		addi	a0,a0,%lo(.LC2)
 855 03b2 8280     		ret
 856              	.LVL83:
 857              	.L262:
 263:C:/Users/stapi/OneDrive/Desktop/GD32VW553/V1_MQTT_OK/GD32VW55X_Wifi_BLE_SDK/GD32VW55x_RELEASE_V1.0.2/MSDK/wpa_supplicant/src/drivers\driver_common.c **** 	DF2S(SET_KEYS_AFTER_ASSOC_DONE);
 858              		.loc 1 263 2
 859 03b4 37050000 		lui	a0,%hi(.LC9)
 860              	.LVL84:
 861 03b8 13050500 		addi	a0,a0,%lo(.LC9)
 862 03bc 8280     		ret
 863              	.LVL85:
 864              	.L263:
 264:C:/Users/stapi/OneDrive/Desktop/GD32VW553/V1_MQTT_OK/GD32VW55X_Wifi_BLE_SDK/GD32VW55x_RELEASE_V1.0.2/MSDK/wpa_supplicant/src/drivers\driver_common.c **** 	DF2S(HT_2040_COEX);
 865              		.loc 1 264 2
 866 03be 37050000 		lui	a0,%hi(.LC7)
 867              	.LVL86:
 868 03c2 13050500 		addi	a0,a0,%lo(.LC7)
 869 03c6 8280     		ret
 870              	.LVL87:
 871              	.L264:
 269:C:/Users/stapi/OneDrive/Desktop/GD32VW553/V1_MQTT_OK/GD32VW55X_Wifi_BLE_SDK/GD32VW55x_RELEASE_V1.0.2/MSDK/wpa_supplicant/src/drivers\driver_common.c **** 	DF2S(P2P_MGMT_AND_NON_P2P);
 872              		.loc 1 269 2
 873 03c8 37050000 		lui	a0,%hi(.LC12)
 874              	.LVL88:
 875 03cc 13050500 		addi	a0,a0,%lo(.LC12)
 876 03d0 8280     		ret
 877              	.LVL89:
 878              	.L265:
 267:C:/Users/stapi/OneDrive/Desktop/GD32VW553/V1_MQTT_OK/GD32VW55X_Wifi_BLE_SDK/GD32VW55x_RELEASE_V1.0.2/MSDK/wpa_supplicant/src/drivers\driver_common.c **** 	DF2S(P2P_CAPABLE);
 879              		.loc 1 267 2
 880 03d2 37050000 		lui	a0,%hi(.LC13)
 881              	.LVL90:
 882 03d6 13050500 		addi	a0,a0,%lo(.LC13)
 883 03da 8280     		ret
 884              	.LVL91:
 885              	.L266:
 268:C:/Users/stapi/OneDrive/Desktop/GD32VW553/V1_MQTT_OK/GD32VW55X_Wifi_BLE_SDK/GD32VW55x_RELEASE_V1.0.2/MSDK/wpa_supplicant/src/drivers\driver_common.c **** 	DF2S(AP_TEARDOWN_SUPPORT);
 886              		.loc 1 268 2
 887 03dc 37050000 		lui	a0,%hi(.LC11)
 888              	.LVL92:
 889 03e0 13050500 		addi	a0,a0,%lo(.LC11)
 890 03e4 8280     		ret
 891              	.LVL93:
 892              	.L267:
 271:C:/Users/stapi/OneDrive/Desktop/GD32VW553/V1_MQTT_OK/GD32VW55X_Wifi_BLE_SDK/GD32VW55x_RELEASE_V1.0.2/MSDK/wpa_supplicant/src/drivers\driver_common.c **** 	DF2S(OFFCHANNEL_TX);
 893              		.loc 1 271 2
 894 03e6 37050000 		lui	a0,%hi(.LC17)
 895              	.LVL94:
 896 03ea 13050500 		addi	a0,a0,%lo(.LC17)
 897 03ee 8280     		ret
 898              	.LVL95:
 899              	.L268:
 272:C:/Users/stapi/OneDrive/Desktop/GD32VW553/V1_MQTT_OK/GD32VW55X_Wifi_BLE_SDK/GD32VW55x_RELEASE_V1.0.2/MSDK/wpa_supplicant/src/drivers\driver_common.c **** 	DF2S(EAPOL_TX_STATUS);
 900              		.loc 1 272 2
 901 03f0 37050000 		lui	a0,%hi(.LC15)
 902              	.LVL96:
 903 03f4 13050500 		addi	a0,a0,%lo(.LC15)
 904 03f8 8280     		ret
 905              	.LVL97:
 906              	.L270:
 277:C:/Users/stapi/OneDrive/Desktop/GD32VW553/V1_MQTT_OK/GD32VW55X_Wifi_BLE_SDK/GD32VW55x_RELEASE_V1.0.2/MSDK/wpa_supplicant/src/drivers\driver_common.c **** 	DF2S(PROBE_RESP_OFFLOAD);
 907              		.loc 1 277 2
 908 03fa 37050000 		lui	a0,%hi(.LC20)
 909              	.LVL98:
 910 03fe 13050500 		addi	a0,a0,%lo(.LC20)
 911 0402 8280     		ret
 912              	.LVL99:
 913              	.L271:
 275:C:/Users/stapi/OneDrive/Desktop/GD32VW553/V1_MQTT_OK/GD32VW55X_Wifi_BLE_SDK/GD32VW55x_RELEASE_V1.0.2/MSDK/wpa_supplicant/src/drivers\driver_common.c **** 	DF2S(TDLS_SUPPORT);
 914              		.loc 1 275 2
 915 0404 37050000 		lui	a0,%hi(.LC21)
 916              	.LVL100:
 917 0408 13050500 		addi	a0,a0,%lo(.LC21)
 918 040c 8280     		ret
 919              	.LVL101:
 920              	.L272:
 276:C:/Users/stapi/OneDrive/Desktop/GD32VW553/V1_MQTT_OK/GD32VW55X_Wifi_BLE_SDK/GD32VW55x_RELEASE_V1.0.2/MSDK/wpa_supplicant/src/drivers\driver_common.c **** 	DF2S(TDLS_EXTERNAL_SETUP);
 921              		.loc 1 276 2
 922 040e 37050000 		lui	a0,%hi(.LC19)
 923              	.LVL102:
 924 0412 13050500 		addi	a0,a0,%lo(.LC19)
 925 0416 8280     		ret
 926              	.LVL103:
 927              	.L273:
 279:C:/Users/stapi/OneDrive/Desktop/GD32VW553/V1_MQTT_OK/GD32VW55X_Wifi_BLE_SDK/GD32VW55x_RELEASE_V1.0.2/MSDK/wpa_supplicant/src/drivers\driver_common.c **** 	DF2S(INACTIVITY_TIMER);
 928              		.loc 1 279 2
 929 0418 37050000 		lui	a0,%hi(.LC25)
 930              	.LVL104:
 931 041c 13050500 		addi	a0,a0,%lo(.LC25)
 932 0420 8280     		ret
 933              	.LVL105:
 934              	.L274:
 280:C:/Users/stapi/OneDrive/Desktop/GD32VW553/V1_MQTT_OK/GD32VW55X_Wifi_BLE_SDK/GD32VW55x_RELEASE_V1.0.2/MSDK/wpa_supplicant/src/drivers\driver_common.c **** 	DF2S(AP_MLME);
 935              		.loc 1 280 2
 936 0422 37050000 		lui	a0,%hi(.LC23)
 937              	.LVL106:
 938 0426 13050500 		addi	a0,a0,%lo(.LC23)
 939 042a 8280     		ret
 940              	.LVL107:
 941              	.L276:
 283:C:/Users/stapi/OneDrive/Desktop/GD32VW553/V1_MQTT_OK/GD32VW55X_Wifi_BLE_SDK/GD32VW55x_RELEASE_V1.0.2/MSDK/wpa_supplicant/src/drivers\driver_common.c **** 	DF2S(IBSS);
 942              		.loc 1 283 2
 943 042c 37050000 		lui	a0,%hi(.LC29)
 944              	.LVL108:
 945 0430 13050500 		addi	a0,a0,%lo(.LC29)
 946 0434 8280     		ret
 947              	.LVL109:
 948              	.L277:
 284:C:/Users/stapi/OneDrive/Desktop/GD32VW553/V1_MQTT_OK/GD32VW55X_Wifi_BLE_SDK/GD32VW55x_RELEASE_V1.0.2/MSDK/wpa_supplicant/src/drivers\driver_common.c **** 	DF2S(RADAR);
 949              		.loc 1 284 2
 950 0436 37050000 		lui	a0,%hi(.LC27)
 951              	.LVL110:
 952 043a 13050500 		addi	a0,a0,%lo(.LC27)
 953 043e 8280     		ret
 954              	.LVL111:
 955              	.L278:
 287:C:/Users/stapi/OneDrive/Desktop/GD32VW553/V1_MQTT_OK/GD32VW55X_Wifi_BLE_SDK/GD32VW55x_RELEASE_V1.0.2/MSDK/wpa_supplicant/src/drivers\driver_common.c **** 	DF2S(AP_CSA);
 956              		.loc 1 287 2
 957 0440 37050000 		lui	a0,%hi(.LC33)
 958              	.LVL112:
 959 0444 13050500 		addi	a0,a0,%lo(.LC33)
 960 0448 8280     		ret
 961              	.LVL113:
 962              	.L279:
 288:C:/Users/stapi/OneDrive/Desktop/GD32VW553/V1_MQTT_OK/GD32VW55X_Wifi_BLE_SDK/GD32VW55x_RELEASE_V1.0.2/MSDK/wpa_supplicant/src/drivers\driver_common.c **** 	DF2S(MESH);
 963              		.loc 1 288 2
 964 044a 37050000 		lui	a0,%hi(.LC31)
 965              	.LVL114:
 966 044e 13050500 		addi	a0,a0,%lo(.LC31)
 967 0452 8280     		ret
 968              	.LVL115:
 969              	.L280:
 305:C:/Users/stapi/OneDrive/Desktop/GD32VW553/V1_MQTT_OK/GD32VW55X_Wifi_BLE_SDK/GD32VW55x_RELEASE_V1.0.2/MSDK/wpa_supplicant/src/drivers\driver_common.c **** 	DF2S(HE_CAPABILITIES);
 970              		.loc 1 305 2
 971 0454 37050000 		lui	a0,%hi(.LC41)
 972              	.LVL116:
 973 0458 13050500 		addi	a0,a0,%lo(.LC41)
 974 045c 8280     		ret
 975              	.LVL117:
 976              	.L286:
 291:C:/Users/stapi/OneDrive/Desktop/GD32VW553/V1_MQTT_OK/GD32VW55X_Wifi_BLE_SDK/GD32VW55x_RELEASE_V1.0.2/MSDK/wpa_supplicant/src/drivers\driver_common.c **** 	DF2S(TDLS_CHANNEL_SWITCH);
 977              		.loc 1 291 2
 978 045e 37050000 		lui	a0,%hi(.LC36)
 979              	.LVL118:
 980 0462 13050500 		addi	a0,a0,%lo(.LC36)
 981 0466 8280     		ret
 982              	.LVL119:
 983              	.L287:
 292:C:/Users/stapi/OneDrive/Desktop/GD32VW553/V1_MQTT_OK/GD32VW55X_Wifi_BLE_SDK/GD32VW55x_RELEASE_V1.0.2/MSDK/wpa_supplicant/src/drivers\driver_common.c **** 	DF2S(HT_IBSS);
 984              		.loc 1 292 2
 985 0468 37050000 		lui	a0,%hi(.LC34)
 986              	.LVL120:
 987 046c 13050500 		addi	a0,a0,%lo(.LC34)
 988 0470 8280     		ret
 989              	.LVL121:
 990              	.L288:
 295:C:/Users/stapi/OneDrive/Desktop/GD32VW553/V1_MQTT_OK/GD32VW55X_Wifi_BLE_SDK/GD32VW55x_RELEASE_V1.0.2/MSDK/wpa_supplicant/src/drivers\driver_common.c **** 	DF2S(OFFCHANNEL_SIMULTANEOUS);
 991              		.loc 1 295 2
 992 0472 37050000 		lui	a0,%hi(.LC40)
 993              	.LVL122:
 994 0476 13050500 		addi	a0,a0,%lo(.LC40)
 995 047a 8280     		ret
 996              	.LVL123:
 997              	.L289:
 296:C:/Users/stapi/OneDrive/Desktop/GD32VW553/V1_MQTT_OK/GD32VW55X_Wifi_BLE_SDK/GD32VW55x_RELEASE_V1.0.2/MSDK/wpa_supplicant/src/drivers\driver_common.c **** 	DF2S(FULL_AP_CLIENT_STATE);
 998              		.loc 1 296 2
 999 047c 37050000 		lui	a0,%hi(.LC38)
 1000              	.LVL124:
 1001 0480 13050500 		addi	a0,a0,%lo(.LC38)
 1002 0484 8280     		ret
 1003              	.LVL125:
 1004              	.L290:
 301:C:/Users/stapi/OneDrive/Desktop/GD32VW553/V1_MQTT_OK/GD32VW55X_Wifi_BLE_SDK/GD32VW55x_RELEASE_V1.0.2/MSDK/wpa_supplicant/src/drivers\driver_common.c **** 	DF2S(BEACON_RATE_VHT);
 1005              		.loc 1 301 2
 1006 0486 37050000 		lui	a0,%hi(.LC43)
 1007              	.LVL126:
 1008 048a 13050500 		addi	a0,a0,%lo(.LC43)
 1009 048e 8280     		ret
 1010              	.LVL127:
 1011              	.L292:
 299:C:/Users/stapi/OneDrive/Desktop/GD32VW553/V1_MQTT_OK/GD32VW55X_Wifi_BLE_SDK/GD32VW55x_RELEASE_V1.0.2/MSDK/wpa_supplicant/src/drivers\driver_common.c **** 	DF2S(BEACON_RATE_LEGACY);
 1012              		.loc 1 299 2
 1013 0490 37050000 		lui	a0,%hi(.LC44)
 1014              	.LVL128:
 1015 0494 13050500 		addi	a0,a0,%lo(.LC44)
 1016 0498 8280     		ret
 1017              	.LVL129:
 1018              	.L293:
 300:C:/Users/stapi/OneDrive/Desktop/GD32VW553/V1_MQTT_OK/GD32VW55X_Wifi_BLE_SDK/GD32VW55x_RELEASE_V1.0.2/MSDK/wpa_supplicant/src/drivers\driver_common.c **** 	DF2S(BEACON_RATE_HT);
 1019              		.loc 1 300 2
 1020 049a 37050000 		lui	a0,%hi(.LC42)
 1021              	.LVL130:
 1022 049e 13050500 		addi	a0,a0,%lo(.LC42)
 1023 04a2 8280     		ret
 1024              	.LVL131:
 1025              	.L294:
 303:C:/Users/stapi/OneDrive/Desktop/GD32VW553/V1_MQTT_OK/GD32VW55X_Wifi_BLE_SDK/GD32VW55x_RELEASE_V1.0.2/MSDK/wpa_supplicant/src/drivers\driver_common.c **** 	DF2S(MGMT_TX_RANDOM_TA_CONNECTED);
 1026              		.loc 1 303 2
 1027 04a4 37050000 		lui	a0,%hi(.LC48)
 1028              	.LVL132:
 1029 04a8 13050500 		addi	a0,a0,%lo(.LC48)
 1030 04ac 8280     		ret
 1031              	.LVL133:
 1032              	.L295:
 304:C:/Users/stapi/OneDrive/Desktop/GD32VW553/V1_MQTT_OK/GD32VW55X_Wifi_BLE_SDK/GD32VW55x_RELEASE_V1.0.2/MSDK/wpa_supplicant/src/drivers\driver_common.c **** 	DF2S(SCHED_SCAN_RELATIVE_RSSI);
 1033              		.loc 1 304 2
 1034 04ae 37050000 		lui	a0,%hi(.LC46)
 1035              	.LVL134:
 1036 04b2 13050500 		addi	a0,a0,%lo(.LC46)
 1037 04b6 8280     		ret
 1038              	.LVL135:
 1039              	.L296:
 313:C:/Users/stapi/OneDrive/Desktop/GD32VW553/V1_MQTT_OK/GD32VW55X_Wifi_BLE_SDK/GD32VW55x_RELEASE_V1.0.2/MSDK/wpa_supplicant/src/drivers\driver_common.c **** 	DF2S(CONTROL_PORT);
 1040              		.loc 1 313 2
 1041 04b8 37050000 		lui	a0,%hi(.LC53)
 1042              	.LVL136:
 1043 04bc 13050500 		addi	a0,a0,%lo(.LC53)
 1044 04c0 8280     		ret
 1045              	.LVL137:
 1046              	.L300:
 307:C:/Users/stapi/OneDrive/Desktop/GD32VW553/V1_MQTT_OK/GD32VW55X_Wifi_BLE_SDK/GD32VW55x_RELEASE_V1.0.2/MSDK/wpa_supplicant/src/drivers\driver_common.c **** 	DF2S(OCE_STA);
 1047              		.loc 1 307 2
 1048 04c2 37050000 		lui	a0,%hi(.LC52)
 1049              	.LVL138:
 1050 04c6 13050500 		addi	a0,a0,%lo(.LC52)
 1051 04ca 8280     		ret
 1052              	.LVL139:
 1053              	.L301:
 308:C:/Users/stapi/OneDrive/Desktop/GD32VW553/V1_MQTT_OK/GD32VW55X_Wifi_BLE_SDK/GD32VW55x_RELEASE_V1.0.2/MSDK/wpa_supplicant/src/drivers\driver_common.c **** 	DF2S(OCE_AP);
 1054              		.loc 1 308 2
 1055 04cc 37050000 		lui	a0,%hi(.LC50)
 1056              	.LVL140:
 1057 04d0 13050500 		addi	a0,a0,%lo(.LC50)
 1058 04d4 8280     		ret
 1059              	.LVL141:
 1060              	.L302:
 311:C:/Users/stapi/OneDrive/Desktop/GD32VW553/V1_MQTT_OK/GD32VW55X_Wifi_BLE_SDK/GD32VW55x_RELEASE_V1.0.2/MSDK/wpa_supplicant/src/drivers\driver_common.c **** 	DF2S(SELF_MANAGED_REGULATORY);
 1061              		.loc 1 311 2
 1062 04d6 37050000 		lui	a0,%hi(.LC56)
 1063              	.LVL142:
 1064 04da 13050500 		addi	a0,a0,%lo(.LC56)
 1065 04de 8280     		ret
 1066              	.LVL143:
 1067              	.L303:
 312:C:/Users/stapi/OneDrive/Desktop/GD32VW553/V1_MQTT_OK/GD32VW55X_Wifi_BLE_SDK/GD32VW55x_RELEASE_V1.0.2/MSDK/wpa_supplicant/src/drivers\driver_common.c **** 	DF2S(FTM_RESPONDER);
 1068              		.loc 1 312 2
 1069 04e0 37050000 		lui	a0,%hi(.LC54)
 1070              	.LVL144:
 1071 04e4 13050500 		addi	a0,a0,%lo(.LC54)
 1072 04e8 8280     		ret
 1073              	.LVL145:
 1074              	.L304:
 316:C:/Users/stapi/OneDrive/Desktop/GD32VW553/V1_MQTT_OK/GD32VW55X_Wifi_BLE_SDK/GD32VW55x_RELEASE_V1.0.2/MSDK/wpa_supplicant/src/drivers\driver_common.c **** 	DF2S(SAFE_PTK0_REKEYS);
 1075              		.loc 1 316 2
 1076 04ea 37050000 		lui	a0,%hi(.LC58)
 1077              	.LVL146:
 1078 04ee 13050500 		addi	a0,a0,%lo(.LC58)
 1079 04f2 8280     		ret
 1080              	.LVL147:
 1081              	.L306:
 314:C:/Users/stapi/OneDrive/Desktop/GD32VW553/V1_MQTT_OK/GD32VW55X_Wifi_BLE_SDK/GD32VW55x_RELEASE_V1.0.2/MSDK/wpa_supplicant/src/drivers\driver_common.c **** 	DF2S(VLAN_OFFLOAD);
 1082              		.loc 1 314 2
 1083 04f4 37050000 		lui	a0,%hi(.LC59)
 1084              	.LVL148:
 1085 04f8 13050500 		addi	a0,a0,%lo(.LC59)
 1086 04fc 8280     		ret
 1087              	.LVL149:
 1088              	.L307:
 315:C:/Users/stapi/OneDrive/Desktop/GD32VW553/V1_MQTT_OK/GD32VW55X_Wifi_BLE_SDK/GD32VW55x_RELEASE_V1.0.2/MSDK/wpa_supplicant/src/drivers\driver_common.c **** 	DF2S(UPDATE_FT_IES);
 1089              		.loc 1 315 2
 1090 04fe 37050000 		lui	a0,%hi(.LC4)
 1091              	.LVL150:
 1092 0502 13050500 		addi	a0,a0,%lo(.LC4)
 1093 0506 8280     		ret
 1094              	.LVL151:
 1095              	.L308:
 318:C:/Users/stapi/OneDrive/Desktop/GD32VW553/V1_MQTT_OK/GD32VW55X_Wifi_BLE_SDK/GD32VW55x_RELEASE_V1.0.2/MSDK/wpa_supplicant/src/drivers\driver_common.c **** 	DF2S(BEACON_PROTECTION);
 1096              		.loc 1 318 2
 1097 0508 37050000 		lui	a0,%hi(.LC63)
 1098              	.LVL152:
 1099 050c 13050500 		addi	a0,a0,%lo(.LC63)
 1100 0510 8280     		ret
 1101              	.LVL153:
 1102              	.L309:
 319:C:/Users/stapi/OneDrive/Desktop/GD32VW553/V1_MQTT_OK/GD32VW55X_Wifi_BLE_SDK/GD32VW55x_RELEASE_V1.0.2/MSDK/wpa_supplicant/src/drivers\driver_common.c **** 	DF2S(EXTENDED_KEY_ID);
 1103              		.loc 1 319 2
 1104 0512 37050000 		lui	a0,%hi(.LC61)
 1105              	.LVL154:
 1106 0516 13050500 		addi	a0,a0,%lo(.LC61)
 1107 051a 8280     		ret
 1108              	.LVL155:
 1109              	.L171:
 320:C:/Users/stapi/OneDrive/Desktop/GD32VW553/V1_MQTT_OK/GD32VW55X_Wifi_BLE_SDK/GD32VW55x_RELEASE_V1.0.2/MSDK/wpa_supplicant/src/drivers\driver_common.c **** 	}
 321:C:/Users/stapi/OneDrive/Desktop/GD32VW553/V1_MQTT_OK/GD32VW55X_Wifi_BLE_SDK/GD32VW55x_RELEASE_V1.0.2/MSDK/wpa_supplicant/src/drivers\driver_common.c **** 	return "UNKNOWN";
 1110              		.loc 1 321 9
 1111 051c 37050000 		lui	a0,%hi(.LC0)
 1112              	.LVL156:
 1113 0520 13050500 		addi	a0,a0,%lo(.LC0)
 322:C:/Users/stapi/OneDrive/Desktop/GD32VW553/V1_MQTT_OK/GD32VW55X_Wifi_BLE_SDK/GD32VW55x_RELEASE_V1.0.2/MSDK/wpa_supplicant/src/drivers\driver_common.c **** #undef DF2S
 323:C:/Users/stapi/OneDrive/Desktop/GD32VW553/V1_MQTT_OK/GD32VW55X_Wifi_BLE_SDK/GD32VW55x_RELEASE_V1.0.2/MSDK/wpa_supplicant/src/drivers\driver_common.c **** }
 1114              		.loc 1 323 1
 1115 0524 8280     		ret
 1116              		.cfi_endproc
 1117              	.LFE107:
 1119              		.section	.rodata.driver_flag2_to_string.str1.4,"aMS",@progbits,1
 1120              		.align	2
 1121              	.LC66:
 1122 0000 434F4E54 		.string	"CONTROL_PORT_RX"
 1122      524F4C5F 
 1122      504F5254 
 1122      5F525800 
 1123              		.align	2
 1124              	.LC67:
 1125 0010 434F4E54 		.string	"CONTROL_PORT_TX_STATUS"
 1125      524F4C5F 
 1125      504F5254 
 1125      5F54585F 
 1125      53544154 
 1126              		.section	.text.driver_flag2_to_string,"ax",@progbits
 1127              		.align	1
 1128              		.globl	driver_flag2_to_string
 1130              	driver_flag2_to_string:
 1131              	.LFB108:
 324:C:/Users/stapi/OneDrive/Desktop/GD32VW553/V1_MQTT_OK/GD32VW55X_Wifi_BLE_SDK/GD32VW55x_RELEASE_V1.0.2/MSDK/wpa_supplicant/src/drivers\driver_common.c **** 
 325:C:/Users/stapi/OneDrive/Desktop/GD32VW553/V1_MQTT_OK/GD32VW55X_Wifi_BLE_SDK/GD32VW55x_RELEASE_V1.0.2/MSDK/wpa_supplicant/src/drivers\driver_common.c **** 
 326:C:/Users/stapi/OneDrive/Desktop/GD32VW553/V1_MQTT_OK/GD32VW55X_Wifi_BLE_SDK/GD32VW55x_RELEASE_V1.0.2/MSDK/wpa_supplicant/src/drivers\driver_common.c **** const char * driver_flag2_to_string(u64 flag2)
 327:C:/Users/stapi/OneDrive/Desktop/GD32VW553/V1_MQTT_OK/GD32VW55X_Wifi_BLE_SDK/GD32VW55x_RELEASE_V1.0.2/MSDK/wpa_supplicant/src/drivers\driver_common.c **** {
 1132              		.loc 1 327 1 is_stmt 1
 1133              		.cfi_startproc
 1134              	.LVL157:
 328:C:/Users/stapi/OneDrive/Desktop/GD32VW553/V1_MQTT_OK/GD32VW55X_Wifi_BLE_SDK/GD32VW55x_RELEASE_V1.0.2/MSDK/wpa_supplicant/src/drivers\driver_common.c **** #define DF2S(x) case WPA_DRIVER_FLAGS2_ ## x: return #x
 329:C:/Users/stapi/OneDrive/Desktop/GD32VW553/V1_MQTT_OK/GD32VW55X_Wifi_BLE_SDK/GD32VW55x_RELEASE_V1.0.2/MSDK/wpa_supplicant/src/drivers\driver_common.c **** 	switch (flag2) {
 1135              		.loc 1 329 2
 1136 0000 8547     		li	a5,1
 1137 0002 6313F500 		bne	a0,a5,.L319
 1138 0006 91C9     		beq	a1,zero,.L320
 1139              	.L319:
 1140 0008 8947     		li	a5,2
 1141 000a 631DF500 		bne	a0,a5,.L318
 1142 000e 99E9     		bne	a1,zero,.L318
 1143 0010 37050000 		lui	a0,%hi(.LC67)
 1144              	.LVL158:
 1145 0014 13050500 		addi	a0,a0,%lo(.LC67)
 1146 0018 8280     		ret
 1147              	.LVL159:
 1148              	.L320:
 330:C:/Users/stapi/OneDrive/Desktop/GD32VW553/V1_MQTT_OK/GD32VW55X_Wifi_BLE_SDK/GD32VW55x_RELEASE_V1.0.2/MSDK/wpa_supplicant/src/drivers\driver_common.c **** 	DF2S(CONTROL_PORT_RX);
 1149              		.loc 1 330 2 is_stmt 0
 1150 001a 37050000 		lui	a0,%hi(.LC66)
 1151              	.LVL160:
 1152 001e 13050500 		addi	a0,a0,%lo(.LC66)
 1153 0022 8280     		ret
 1154              	.LVL161:
 1155              	.L318:
 331:C:/Users/stapi/OneDrive/Desktop/GD32VW553/V1_MQTT_OK/GD32VW55X_Wifi_BLE_SDK/GD32VW55x_RELEASE_V1.0.2/MSDK/wpa_supplicant/src/drivers\driver_common.c **** 	DF2S(CONTROL_PORT_TX_STATUS);
 332:C:/Users/stapi/OneDrive/Desktop/GD32VW553/V1_MQTT_OK/GD32VW55X_Wifi_BLE_SDK/GD32VW55x_RELEASE_V1.0.2/MSDK/wpa_supplicant/src/drivers\driver_common.c **** 	}
 333:C:/Users/stapi/OneDrive/Desktop/GD32VW553/V1_MQTT_OK/GD32VW55X_Wifi_BLE_SDK/GD32VW55x_RELEASE_V1.0.2/MSDK/wpa_supplicant/src/drivers\driver_common.c **** 	return "UNKNOWN";
 1156              		.loc 1 333 9
 1157 0024 37050000 		lui	a0,%hi(.LC0)
 1158              	.LVL162:
 1159 0028 13050500 		addi	a0,a0,%lo(.LC0)
 334:C:/Users/stapi/OneDrive/Desktop/GD32VW553/V1_MQTT_OK/GD32VW55X_Wifi_BLE_SDK/GD32VW55x_RELEASE_V1.0.2/MSDK/wpa_supplicant/src/drivers\driver_common.c **** #undef DF2S
 335:C:/Users/stapi/OneDrive/Desktop/GD32VW553/V1_MQTT_OK/GD32VW55X_Wifi_BLE_SDK/GD32VW55x_RELEASE_V1.0.2/MSDK/wpa_supplicant/src/drivers\driver_common.c **** }
 1160              		.loc 1 335 1
 1161 002c 8280     		ret
 1162              		.cfi_endproc
 1163              	.LFE108:
 1165              		.section	.rodata.str1.4,"aMS",@progbits,1
 1166              		.align	2
 1167              	.LC68:
 1168 0000 3230204D 		.string	"20 MHz (no HT)"
 1168      487A2028 
 1168      6E6F2048 
 1168      542900
 1169 000f 00       		.align	2
 1170              	.LC69:
 1171 0010 3230204D 		.string	"20 MHz"
 1171      487A00
 1172 0017 00       		.align	2
 1173              	.LC70:
 1174 0018 3430204D 		.string	"40 MHz"
 1174      487A00
 1175 001f 00       		.align	2
 1176              	.LC71:
 1177 0020 3830204D 		.string	"80 MHz"
 1177      487A00
 1178 0027 00       		.align	2
 1179              	.LC72:
 1180 0028 38302B38 		.string	"80+80 MHz"
 1180      30204D48 
 1180      7A00
 1181 0032 0000     		.align	2
 1182              	.LC73:
 1183 0034 31363020 		.string	"160 MHz"
 1183      4D487A00 
 1184              		.align	2
 1185              	.LC74:
 1186 003c 4153534F 		.string	"ASSOC"
 1186      4300
 1187 0042 0000     		.align	2
 1188              	.LC75:
 1189 0044 44495341 		.string	"DISASSOC"
 1189      53534F43 
 1189      00
 1190 004d 000000   		.align	2
 1191              	.LC76:
 1192 0050 4D494348 		.string	"MICHAEL_MIC_FAILURE"
 1192      41454C5F 
 1192      4D49435F 
 1192      4641494C 
 1192      55524500 
 1193              		.align	2
 1194              	.LC77:
 1195 0064 5343414E 		.string	"SCAN_RESULTS"
 1195      5F524553 
 1195      554C5453 
 1195      00
 1196 0071 000000   		.align	2
 1197              	.LC78:
 1198 0074 4153534F 		.string	"ASSOCINFO"
 1198      43494E46 
 1198      4F00
 1199 007e 0000     		.align	2
 1200              	.LC79:
 1201 0080 494E5445 		.string	"INTERFACE_STATUS"
 1201      52464143 
 1201      455F5354 
 1201      41545553 
 1201      00
 1202 0091 000000   		.align	2
 1203              	.LC80:
 1204 0094 504D4B49 		.string	"PMKID_CANDIDATE"
 1204      445F4341 
 1204      4E444944 
 1204      41544500 
 1205              		.align	2
 1206              	.LC81:
 1207 00a4 54444C53 		.string	"TDLS"
 1207      00
 1208 00a9 000000   		.align	2
 1209              	.LC82:
 1210 00ac 46545F52 		.string	"FT_RESPONSE"
 1210      4553504F 
 1210      4E534500 
 1211              		.align	2
 1212              	.LC83:
 1213 00b8 49425353 		.string	"IBSS_RSN_START"
 1213      5F52534E 
 1213      5F535441 
 1213      525400
 1214 00c7 00       		.align	2
 1215              	.LC84:
 1216 00c8 41555448 		.string	"AUTH"
 1216      00
 1217 00cd 000000   		.align	2
 1218              	.LC85:
 1219 00d0 44454155 		.string	"DEAUTH"
 1219      544800
 1220 00d7 00       		.align	2
 1221              	.LC86:
 1222 00d8 4153534F 		.string	"ASSOC_REJECT"
 1222      435F5245 
 1222      4A454354 
 1222      00
 1223 00e5 000000   		.align	2
 1224              	.LC87:
 1225 00e8 41555448 		.string	"AUTH_TIMED_OUT"
 1225      5F54494D 
 1225      45445F4F 
 1225      555400
 1226 00f7 00       		.align	2
 1227              	.LC88:
 1228 00f8 4153534F 		.string	"ASSOC_TIMED_OUT"
 1228      435F5449 
 1228      4D45445F 
 1228      4F555400 
 1229              		.align	2
 1230              	.LC89:
 1231 0108 5750535F 		.string	"WPS_BUTTON_PUSHED"
 1231      42555454 
 1231      4F4E5F50 
 1231      55534845 
 1231      4400
 1232 011a 0000     		.align	2
 1233              	.LC90:
 1234 011c 54585F53 		.string	"TX_STATUS"
 1234      54415455 
 1234      5300
 1235 0126 0000     		.align	2
 1236              	.LC91:
 1237 0128 52585F46 		.string	"RX_FROM_UNKNOWN"
 1237      524F4D5F 
 1237      554E4B4E 
 1237      4F574E00 
 1238              		.align	2
 1239              	.LC92:
 1240 0138 52585F4D 		.string	"RX_MGMT"
 1240      474D5400 
 1241              		.align	2
 1242              	.LC93:
 1243 0140 52454D41 		.string	"REMAIN_ON_CHANNEL"
 1243      494E5F4F 
 1243      4E5F4348 
 1243      414E4E45 
 1243      4C00
 1244 0152 0000     		.align	2
 1245              	.LC94:
 1246 0154 43414E43 		.string	"CANCEL_REMAIN_ON_CHANNEL"
 1246      454C5F52 
 1246      454D4149 
 1246      4E5F4F4E 
 1246      5F434841 
 1247 016d 000000   		.align	2
 1248              	.LC95:
 1249 0170 52585F50 		.string	"RX_PROBE_REQ"
 1249      524F4245 
 1249      5F524551 
 1249      00
 1250 017d 000000   		.align	2
 1251              	.LC96:
 1252 0180 4E45575F 		.string	"NEW_STA"
 1252      53544100 
 1253              		.align	2
 1254              	.LC97:
 1255 0188 4541504F 		.string	"EAPOL_RX"
 1255      4C5F5258 
 1255      00
 1256 0191 000000   		.align	2
 1257              	.LC98:
 1258 0194 5349474E 		.string	"SIGNAL_CHANGE"
 1258      414C5F43 
 1258      48414E47 
 1258      4500
 1259 01a2 0000     		.align	2
 1260              	.LC99:
 1261 01a4 494E5445 		.string	"INTERFACE_ENABLED"
 1261      52464143 
 1261      455F454E 
 1261      41424C45 
 1261      4400
 1262 01b6 0000     		.align	2
 1263              	.LC100:
 1264 01b8 494E5445 		.string	"INTERFACE_DISABLED"
 1264      52464143 
 1264      455F4449 
 1264      5341424C 
 1264      454400
 1265 01cb 00       		.align	2
 1266              	.LC101:
 1267 01cc 4348414E 		.string	"CHANNEL_LIST_CHANGED"
 1267      4E454C5F 
 1267      4C495354 
 1267      5F434841 
 1267      4E474544 
 1268 01e1 000000   		.align	2
 1269              	.LC102:
 1270 01e4 494E5445 		.string	"INTERFACE_UNAVAILABLE"
 1270      52464143 
 1270      455F554E 
 1270      41564149 
 1270      4C41424C 
 1271 01fa 0000     		.align	2
 1272              	.LC103:
 1273 01fc 42455354 		.string	"BEST_CHANNEL"
 1273      5F434841 
 1273      4E4E454C 
 1273      00
 1274 0209 000000   		.align	2
 1275              	.LC104:
 1276 020c 554E5052 		.string	"UNPROT_DEAUTH"
 1276      4F545F44 
 1276      45415554 
 1276      4800
 1277 021a 0000     		.align	2
 1278              	.LC105:
 1279 021c 554E5052 		.string	"UNPROT_DISASSOC"
 1279      4F545F44 
 1279      49534153 
 1279      534F4300 
 1280              		.align	2
 1281              	.LC106:
 1282 022c 53544154 		.string	"STATION_LOW_ACK"
 1282      494F4E5F 
 1282      4C4F575F 
 1282      41434B00 
 1283              		.align	2
 1284              	.LC107:
 1285 023c 49425353 		.string	"IBSS_PEER_LOST"
 1285      5F504545 
 1285      525F4C4F 
 1285      535400
 1286 024b 00       		.align	2
 1287              	.LC108:
 1288 024c 44524956 		.string	"DRIVER_GTK_REKEY"
 1288      45525F47 
 1288      544B5F52 
 1288      454B4559 
 1288      00
 1289 025d 000000   		.align	2
 1290              	.LC109:
 1291 0260 53434845 		.string	"SCHED_SCAN_STOPPED"
 1291      445F5343 
 1291      414E5F53 
 1291      544F5050 
 1291      454400
 1292 0273 00       		.align	2
 1293              	.LC110:
 1294 0274 44524956 		.string	"DRIVER_CLIENT_POLL_OK"
 1294      45525F43 
 1294      4C49454E 
 1294      545F504F 
 1294      4C4C5F4F 
 1295 028a 0000     		.align	2
 1296              	.LC111:
 1297 028c 43485F53 		.string	"CH_SWITCH"
 1297      57495443 
 1297      4800
 1298 0296 0000     		.align	2
 1299              	.LC112:
 1300 0298 43485F53 		.string	"CH_SWITCH_STARTED"
 1300      57495443 
 1300      485F5354 
 1300      41525445 
 1300      4400
 1301 02aa 0000     		.align	2
 1302              	.LC113:
 1303 02ac 574E4D00 		.string	"WNM"
 1304              		.align	2
 1305              	.LC114:
 1306 02b0 434F4E4E 		.string	"CONNECT_FAILED_REASON"
 1306      4543545F 
 1306      4641494C 
 1306      45445F52 
 1306      4541534F 
 1307 02c6 0000     		.align	2
 1308              	.LC115:
 1309 02c8 4446535F 		.string	"DFS_RADAR_DETECTED"
 1309      52414441 
 1309      525F4445 
 1309      54454354 
 1309      454400
 1310 02db 00       		.align	2
 1311              	.LC116:
 1312 02dc 4446535F 		.string	"DFS_CAC_FINISHED"
 1312      4341435F 
 1312      46494E49 
 1312      53484544 
 1312      00
 1313 02ed 000000   		.align	2
 1314              	.LC117:
 1315 02f0 4446535F 		.string	"DFS_CAC_ABORTED"
 1315      4341435F 
 1315      41424F52 
 1315      54454400 
 1316              		.align	2
 1317              	.LC118:
 1318 0300 4446535F 		.string	"DFS_NOP_FINISHED"
 1318      4E4F505F 
 1318      46494E49 
 1318      53484544 
 1318      00
 1319 0311 000000   		.align	2
 1320              	.LC119:
 1321 0314 53555256 		.string	"SURVEY"
 1321      455900
 1322 031b 00       		.align	2
 1323              	.LC120:
 1324 031c 5343414E 		.string	"SCAN_STARTED"
 1324      5F535441 
 1324      52544544 
 1324      00
 1325 0329 000000   		.align	2
 1326              	.LC121:
 1327 032c 41564F49 		.string	"AVOID_FREQUENCIES"
 1327      445F4652 
 1327      45515545 
 1327      4E434945 
 1327      5300
 1328 033e 0000     		.align	2
 1329              	.LC122:
 1330 0340 4E45575F 		.string	"NEW_PEER_CANDIDATE"
 1330      50454552 
 1330      5F43414E 
 1330      44494441 
 1330      544500
 1331 0353 00       		.align	2
 1332              	.LC123:
 1333 0354 4143535F 		.string	"ACS_CHANNEL_SELECTED"
 1333      4348414E 
 1333      4E454C5F 
 1333      53454C45 
 1333      43544544 
 1334 0369 000000   		.align	2
 1335              	.LC124:
 1336 036c 4446535F 		.string	"DFS_CAC_STARTED"
 1336      4341435F 
 1336      53544152 
 1336      54454400 
 1337              		.align	2
 1338              	.LC125:
 1339 037c 5032505F 		.string	"P2P_LO_STOP"
 1339      4C4F5F53 
 1339      544F5000 
 1340              		.align	2
 1341              	.LC126:
 1342 0388 42454143 		.string	"BEACON_LOSS"
 1342      4F4E5F4C 
 1342      4F535300 
 1343              		.align	2
 1344              	.LC127:
 1345 0394 4446535F 		.string	"DFS_PRE_CAC_EXPIRED"
 1345      5052455F 
 1345      4341435F 
 1345      45585049 
 1345      52454400 
 1346              		.align	2
 1347              	.LC128:
 1348 03a8 45585445 		.string	"EXTERNAL_AUTH"
 1348      524E414C 
 1348      5F415554 
 1348      4800
 1349 03b6 0000     		.align	2
 1350              	.LC129:
 1351 03b8 504F5254 		.string	"PORT_AUTHORIZED"
 1351      5F415554 
 1351      484F5249 
 1351      5A454400 
 1352              		.align	2
 1353              	.LC130:
 1354 03c8 53544154 		.string	"STATION_OPMODE_CHANGED"
 1354      494F4E5F 
 1354      4F504D4F 
 1354      44455F43 
 1354      48414E47 
 1355 03df 00       		.align	2
 1356              	.LC131:
 1357 03e0 494E5445 		.string	"INTERFACE_MAC_CHANGED"
 1357      52464143 
 1357      455F4D41 
 1357      435F4348 
 1357      414E4745 
 1358 03f6 0000     		.align	2
 1359              	.LC132:
 1360 03f8 5744535F 		.string	"WDS_STA_INTERFACE_STATUS"
 1360      5354415F 
 1360      494E5445 
 1360      52464143 
 1360      455F5354 
 1361 0411 000000   		.align	2
 1362              	.LC133:
 1363 0414 55504441 		.string	"UPDATE_DH"
 1363      54455F44 
 1363      4800
 1364 041e 0000     		.align	2
 1365              	.LC134:
 1366 0420 554E5052 		.string	"UNPROT_BEACON"
 1366      4F545F42 
 1366      4541434F 
 1366      4E00
 1367              		.section	.rodata.CSWTCH.2,"a"
 1368              		.align	2
 1369              		.set	.LANCHOR0,. + 0
 1372              	CSWTCH.2:
 1373 0000 00000000 		.word	.LC74
 1374 0004 00000000 		.word	.LC75
 1375 0008 00000000 		.word	.LC76
 1376 000c 00000000 		.word	.LC77
 1377 0010 00000000 		.word	.LC78
 1378 0014 00000000 		.word	.LC79
 1379 0018 00000000 		.word	.LC80
 1380 001c 00000000 		.word	.LC81
 1381 0020 00000000 		.word	.LC82
 1382 0024 00000000 		.word	.LC83
 1383 0028 00000000 		.word	.LC84
 1384 002c 00000000 		.word	.LC85
 1385 0030 00000000 		.word	.LC86
 1386 0034 00000000 		.word	.LC87
 1387 0038 00000000 		.word	.LC88
 1388 003c 00000000 		.word	.LC89
 1389 0040 00000000 		.word	.LC90
 1390 0044 00000000 		.word	.LC91
 1391 0048 00000000 		.word	.LC92
 1392 004c 00000000 		.word	.LC93
 1393 0050 00000000 		.word	.LC94
 1394 0054 00000000 		.word	.LC95
 1395 0058 00000000 		.word	.LC96
 1396 005c 00000000 		.word	.LC97
 1397 0060 00000000 		.word	.LC98
 1398 0064 00000000 		.word	.LC99
 1399 0068 00000000 		.word	.LC100
 1400 006c 00000000 		.word	.LC101
 1401 0070 00000000 		.word	.LC102
 1402 0074 00000000 		.word	.LC103
 1403 0078 00000000 		.word	.LC104
 1404 007c 00000000 		.word	.LC105
 1405 0080 00000000 		.word	.LC106
 1406 0084 00000000 		.word	.LC107
 1407 0088 00000000 		.word	.LC108
 1408 008c 00000000 		.word	.LC109
 1409 0090 00000000 		.word	.LC110
 1410 0094 00000000 		.word	.LC10
 1411 0098 00000000 		.word	.LC111
 1412 009c 00000000 		.word	.LC112
 1413 00a0 00000000 		.word	.LC113
 1414 00a4 00000000 		.word	.LC114
 1415 00a8 00000000 		.word	.LC115
 1416 00ac 00000000 		.word	.LC116
 1417 00b0 00000000 		.word	.LC117
 1418 00b4 00000000 		.word	.LC118
 1419 00b8 00000000 		.word	.LC119
 1420 00bc 00000000 		.word	.LC120
 1421 00c0 00000000 		.word	.LC121
 1422 00c4 00000000 		.word	.LC122
 1423 00c8 00000000 		.word	.LC123
 1424 00cc 00000000 		.word	.LC124
 1425 00d0 00000000 		.word	.LC125
 1426 00d4 00000000 		.word	.LC126
 1427 00d8 00000000 		.word	.LC127
 1428 00dc 00000000 		.word	.LC128
 1429 00e0 00000000 		.word	.LC129
 1430 00e4 00000000 		.word	.LC130
 1431 00e8 00000000 		.word	.LC131
 1432 00ec 00000000 		.word	.LC132
 1433 00f0 00000000 		.word	.LC133
 1434 00f4 00000000 		.word	.LC134
 1435              		.section	.rodata.CSWTCH.4,"a"
 1436              		.align	2
 1437              		.set	.LANCHOR1,. + 0
 1440              	CSWTCH.4:
 1441 0000 00000000 		.word	.LC68
 1442 0004 00000000 		.word	.LC69
 1443 0008 00000000 		.word	.LC70
 1444 000c 00000000 		.word	.LC71
 1445 0010 00000000 		.word	.LC72
 1446 0014 00000000 		.word	.LC73
 1447              		.section	.srodata.CSWTCH.6,"a"
 1448              		.align	2
 1449              		.set	.LANCHOR2,. + 0
 1452              	CSWTCH.6:
 1453 0000 14       		.byte	20
 1454 0001 14       		.byte	20
 1455 0002 28       		.byte	40
 1456 0003 50       		.byte	80
 1457 0004 A0       		.byte	-96
 1458 0005 A0       		.byte	-96
 1459              		.text
 1460              	.Letext0:
 1461              		.file 2 "c:\\users\\stapi\\onedrive\\desktop\\gd32vw553\\embeddedbuilder_v1.4.7.26843\\tools\\nucl
 1462              		.file 3 "c:\\users\\stapi\\onedrive\\desktop\\gd32vw553\\embeddedbuilder_v1.4.7.26843\\tools\\nucl
 1463              		.file 4 "c:\\users\\stapi\\onedrive\\desktop\\gd32vw553\\embeddedbuilder_v1.4.7.26843\\tools\\nucl
 1464              		.file 5 "..\\..\\..\\..\\wpa_supplicant\\src/utils/os.h"
 1465              		.file 6 "..\\..\\..\\..\\wpa_supplicant\\src/utils/common.h"
 1466              		.file 7 "..\\..\\..\\..\\wpa_supplicant\\src/common/defs.h"
 1467              		.file 8 "..\\..\\..\\..\\wpa_supplicant\\src/common/ieee802_11_defs.h"
 1468              		.file 9 "..\\..\\..\\..\\wpa_supplicant\\src/utils/list.h"
 1469              		.file 10 "C:/Users/stapi/OneDrive/Desktop/GD32VW553/V1_MQTT_OK/GD32VW55X_Wifi_BLE_SDK/GD32VW55x_RE