   1              		.file	"hw_features_common.c"
   2              		.option nopic
   3              		.attribute arch, "rv32i2p0_m2p0_a2p0_f2p0_c2p0_b_p0p94"
   4              		.attribute unaligned_access, 0
   5              		.attribute stack_align, 16
   6              		.text
   7              	.Ltext0:
   8              		.cfi_sections	.debug_frame
   9              		.section	.text.hw_get_channel_chan,"ax",@progbits
  10              		.align	1
  11              		.globl	hw_get_channel_chan
  13              	hw_get_channel_chan:
  14              	.LFB101:
  15              		.file 1 "C:/Users/stapi/OneDrive/Desktop/GD32VW553/V1_MQTT_OK/GD32VW55X_Wifi_BLE_SDK/GD32VW55x_REL
   1:C:/Users/stapi/OneDrive/Desktop/GD32VW553/V1_MQTT_OK/GD32VW55X_Wifi_BLE_SDK/GD32VW55x_RELEASE_V1.0.2/MSDK/wpa_supplicant/src/common\hw_features_common.c **** /*
   2:C:/Users/stapi/OneDrive/Desktop/GD32VW553/V1_MQTT_OK/GD32VW55X_Wifi_BLE_SDK/GD32VW55x_RELEASE_V1.0.2/MSDK/wpa_supplicant/src/common\hw_features_common.c ****  * Common hostapd/wpa_supplicant HW features
   3:C:/Users/stapi/OneDrive/Desktop/GD32VW553/V1_MQTT_OK/GD32VW55X_Wifi_BLE_SDK/GD32VW55x_RELEASE_V1.0.2/MSDK/wpa_supplicant/src/common\hw_features_common.c ****  * Copyright (c) 2002-2013, Jouni Malinen <j@w1.fi>
   4:C:/Users/stapi/OneDrive/Desktop/GD32VW553/V1_MQTT_OK/GD32VW55X_Wifi_BLE_SDK/GD32VW55x_RELEASE_V1.0.2/MSDK/wpa_supplicant/src/common\hw_features_common.c ****  * Copyright (c) 2015, Qualcomm Atheros, Inc.
   5:C:/Users/stapi/OneDrive/Desktop/GD32VW553/V1_MQTT_OK/GD32VW55X_Wifi_BLE_SDK/GD32VW55x_RELEASE_V1.0.2/MSDK/wpa_supplicant/src/common\hw_features_common.c ****  *
   6:C:/Users/stapi/OneDrive/Desktop/GD32VW553/V1_MQTT_OK/GD32VW55X_Wifi_BLE_SDK/GD32VW55x_RELEASE_V1.0.2/MSDK/wpa_supplicant/src/common\hw_features_common.c ****  * This software may be distributed under the terms of the BSD license.
   7:C:/Users/stapi/OneDrive/Desktop/GD32VW553/V1_MQTT_OK/GD32VW55X_Wifi_BLE_SDK/GD32VW55x_RELEASE_V1.0.2/MSDK/wpa_supplicant/src/common\hw_features_common.c ****  * See README for more details.
   8:C:/Users/stapi/OneDrive/Desktop/GD32VW553/V1_MQTT_OK/GD32VW55X_Wifi_BLE_SDK/GD32VW55x_RELEASE_V1.0.2/MSDK/wpa_supplicant/src/common\hw_features_common.c ****  */
   9:C:/Users/stapi/OneDrive/Desktop/GD32VW553/V1_MQTT_OK/GD32VW55X_Wifi_BLE_SDK/GD32VW55x_RELEASE_V1.0.2/MSDK/wpa_supplicant/src/common\hw_features_common.c **** 
  10:C:/Users/stapi/OneDrive/Desktop/GD32VW553/V1_MQTT_OK/GD32VW55X_Wifi_BLE_SDK/GD32VW55x_RELEASE_V1.0.2/MSDK/wpa_supplicant/src/common\hw_features_common.c **** #include "includes.h"
  11:C:/Users/stapi/OneDrive/Desktop/GD32VW553/V1_MQTT_OK/GD32VW55X_Wifi_BLE_SDK/GD32VW55x_RELEASE_V1.0.2/MSDK/wpa_supplicant/src/common\hw_features_common.c **** 
  12:C:/Users/stapi/OneDrive/Desktop/GD32VW553/V1_MQTT_OK/GD32VW55X_Wifi_BLE_SDK/GD32VW55x_RELEASE_V1.0.2/MSDK/wpa_supplicant/src/common\hw_features_common.c **** #include "common.h"
  13:C:/Users/stapi/OneDrive/Desktop/GD32VW553/V1_MQTT_OK/GD32VW55X_Wifi_BLE_SDK/GD32VW55x_RELEASE_V1.0.2/MSDK/wpa_supplicant/src/common\hw_features_common.c **** #include "defs.h"
  14:C:/Users/stapi/OneDrive/Desktop/GD32VW553/V1_MQTT_OK/GD32VW55X_Wifi_BLE_SDK/GD32VW55x_RELEASE_V1.0.2/MSDK/wpa_supplicant/src/common\hw_features_common.c **** #include "ieee802_11_defs.h"
  15:C:/Users/stapi/OneDrive/Desktop/GD32VW553/V1_MQTT_OK/GD32VW55X_Wifi_BLE_SDK/GD32VW55x_RELEASE_V1.0.2/MSDK/wpa_supplicant/src/common\hw_features_common.c **** #include "ieee802_11_common.h"
  16:C:/Users/stapi/OneDrive/Desktop/GD32VW553/V1_MQTT_OK/GD32VW55X_Wifi_BLE_SDK/GD32VW55x_RELEASE_V1.0.2/MSDK/wpa_supplicant/src/common\hw_features_common.c **** #include "hw_features_common.h"
  17:C:/Users/stapi/OneDrive/Desktop/GD32VW553/V1_MQTT_OK/GD32VW55X_Wifi_BLE_SDK/GD32VW55x_RELEASE_V1.0.2/MSDK/wpa_supplicant/src/common\hw_features_common.c **** 
  18:C:/Users/stapi/OneDrive/Desktop/GD32VW553/V1_MQTT_OK/GD32VW55X_Wifi_BLE_SDK/GD32VW55x_RELEASE_V1.0.2/MSDK/wpa_supplicant/src/common\hw_features_common.c **** 
  19:C:/Users/stapi/OneDrive/Desktop/GD32VW553/V1_MQTT_OK/GD32VW55X_Wifi_BLE_SDK/GD32VW55x_RELEASE_V1.0.2/MSDK/wpa_supplicant/src/common\hw_features_common.c **** struct hostapd_channel_data * hw_get_channel_chan(struct hostapd_hw_modes *mode,
  20:C:/Users/stapi/OneDrive/Desktop/GD32VW553/V1_MQTT_OK/GD32VW55X_Wifi_BLE_SDK/GD32VW55x_RELEASE_V1.0.2/MSDK/wpa_supplicant/src/common\hw_features_common.c **** 						  int chan, int *freq)
  21:C:/Users/stapi/OneDrive/Desktop/GD32VW553/V1_MQTT_OK/GD32VW55X_Wifi_BLE_SDK/GD32VW55x_RELEASE_V1.0.2/MSDK/wpa_supplicant/src/common\hw_features_common.c **** {
  16              		.loc 1 21 1
  17              		.cfi_startproc
  18              	.LVL0:
  22:C:/Users/stapi/OneDrive/Desktop/GD32VW553/V1_MQTT_OK/GD32VW55X_Wifi_BLE_SDK/GD32VW55x_RELEASE_V1.0.2/MSDK/wpa_supplicant/src/common\hw_features_common.c **** 	int i;
  19              		.loc 1 22 2
  23:C:/Users/stapi/OneDrive/Desktop/GD32VW553/V1_MQTT_OK/GD32VW55X_Wifi_BLE_SDK/GD32VW55x_RELEASE_V1.0.2/MSDK/wpa_supplicant/src/common\hw_features_common.c **** 
  24:C:/Users/stapi/OneDrive/Desktop/GD32VW553/V1_MQTT_OK/GD32VW55X_Wifi_BLE_SDK/GD32VW55x_RELEASE_V1.0.2/MSDK/wpa_supplicant/src/common\hw_features_common.c **** 	if (freq)
  20              		.loc 1 24 2
  21:C:/Users/stapi/OneDrive/Desktop/GD32VW553/V1_MQTT_OK/GD32VW55X_Wifi_BLE_SDK/GD32VW55x_RELEASE_V1.0.2/MSDK/wpa_supplicant/src/common\hw_features_common.c **** 	int i;
  21              		.loc 1 21 1 is_stmt 0
  22 0000 AA87     		mv	a5,a0
  23              		.loc 1 24 5
  24 0002 19C2     		beq	a2,zero,.L2
  25:C:/Users/stapi/OneDrive/Desktop/GD32VW553/V1_MQTT_OK/GD32VW55X_Wifi_BLE_SDK/GD32VW55x_RELEASE_V1.0.2/MSDK/wpa_supplicant/src/common\hw_features_common.c **** 		*freq = 0;
  25              		.loc 1 25 3 is_stmt 1
  26              		.loc 1 25 9 is_stmt 0
  27 0004 23200600 		sw	zero,0(a2)
  28              	.L2:
  26:C:/Users/stapi/OneDrive/Desktop/GD32VW553/V1_MQTT_OK/GD32VW55X_Wifi_BLE_SDK/GD32VW55x_RELEASE_V1.0.2/MSDK/wpa_supplicant/src/common\hw_features_common.c **** 
  27:C:/Users/stapi/OneDrive/Desktop/GD32VW553/V1_MQTT_OK/GD32VW55X_Wifi_BLE_SDK/GD32VW55x_RELEASE_V1.0.2/MSDK/wpa_supplicant/src/common\hw_features_common.c **** 	if (!mode)
  29              		.loc 1 27 2 is_stmt 1
  28:C:/Users/stapi/OneDrive/Desktop/GD32VW553/V1_MQTT_OK/GD32VW55X_Wifi_BLE_SDK/GD32VW55x_RELEASE_V1.0.2/MSDK/wpa_supplicant/src/common\hw_features_common.c **** 		return NULL;
  30              		.loc 1 28 10 is_stmt 0
  31 0008 0145     		li	a0,0
  32              	.LVL1:
  27:C:/Users/stapi/OneDrive/Desktop/GD32VW553/V1_MQTT_OK/GD32VW55X_Wifi_BLE_SDK/GD32VW55x_RELEASE_V1.0.2/MSDK/wpa_supplicant/src/common\hw_features_common.c **** 		return NULL;
  33              		.loc 1 27 5
  34 000a 81CB     		beq	a5,zero,.L1
  35              	.LBB7:
  36              	.LBB8:
  29:C:/Users/stapi/OneDrive/Desktop/GD32VW553/V1_MQTT_OK/GD32VW55X_Wifi_BLE_SDK/GD32VW55x_RELEASE_V1.0.2/MSDK/wpa_supplicant/src/common\hw_features_common.c **** 
  30:C:/Users/stapi/OneDrive/Desktop/GD32VW553/V1_MQTT_OK/GD32VW55X_Wifi_BLE_SDK/GD32VW55x_RELEASE_V1.0.2/MSDK/wpa_supplicant/src/common\hw_features_common.c **** 	for (i = 0; i < mode->num_channels; i++) {
  37              		.loc 1 30 22
  38 000c D443     		lw	a3,4(a5)
  39              		.loc 1 30 9
  40 000e 0147     		li	a4,0
  41              	.LBB9:
  31:C:/Users/stapi/OneDrive/Desktop/GD32VW553/V1_MQTT_OK/GD32VW55X_Wifi_BLE_SDK/GD32VW55x_RELEASE_V1.0.2/MSDK/wpa_supplicant/src/common\hw_features_common.c **** 		struct hostapd_channel_data *ch = &mode->channels[i];
  42              		.loc 1 31 32
  43 0010 13088006 		li	a6,104
  44              	.L4:
  45              	.LVL2:
  46              	.LBE9:
  30:C:/Users/stapi/OneDrive/Desktop/GD32VW553/V1_MQTT_OK/GD32VW55X_Wifi_BLE_SDK/GD32VW55x_RELEASE_V1.0.2/MSDK/wpa_supplicant/src/common\hw_features_common.c **** 		struct hostapd_channel_data *ch = &mode->channels[i];
  47              		.loc 1 30 14 is_stmt 1
  30:C:/Users/stapi/OneDrive/Desktop/GD32VW553/V1_MQTT_OK/GD32VW55X_Wifi_BLE_SDK/GD32VW55x_RELEASE_V1.0.2/MSDK/wpa_supplicant/src/common\hw_features_common.c **** 		struct hostapd_channel_data *ch = &mode->channels[i];
  48              		.loc 1 30 2 is_stmt 0
  49 0014 6344D700 		blt	a4,a3,.L6
  50              	.LBE8:
  51              	.LBE7:
  28:C:/Users/stapi/OneDrive/Desktop/GD32VW553/V1_MQTT_OK/GD32VW55X_Wifi_BLE_SDK/GD32VW55x_RELEASE_V1.0.2/MSDK/wpa_supplicant/src/common\hw_features_common.c **** 
  52              		.loc 1 28 10
  53 0018 0145     		li	a0,0
  54              	.LVL3:
  55              	.L1:
  32:C:/Users/stapi/OneDrive/Desktop/GD32VW553/V1_MQTT_OK/GD32VW55X_Wifi_BLE_SDK/GD32VW55x_RELEASE_V1.0.2/MSDK/wpa_supplicant/src/common\hw_features_common.c **** 		if (ch->chan == chan) {
  33:C:/Users/stapi/OneDrive/Desktop/GD32VW553/V1_MQTT_OK/GD32VW55X_Wifi_BLE_SDK/GD32VW55x_RELEASE_V1.0.2/MSDK/wpa_supplicant/src/common\hw_features_common.c **** 			if (freq)
  34:C:/Users/stapi/OneDrive/Desktop/GD32VW553/V1_MQTT_OK/GD32VW55X_Wifi_BLE_SDK/GD32VW55x_RELEASE_V1.0.2/MSDK/wpa_supplicant/src/common\hw_features_common.c **** 				*freq = ch->freq;
  35:C:/Users/stapi/OneDrive/Desktop/GD32VW553/V1_MQTT_OK/GD32VW55X_Wifi_BLE_SDK/GD32VW55x_RELEASE_V1.0.2/MSDK/wpa_supplicant/src/common\hw_features_common.c **** 			return ch;
  36:C:/Users/stapi/OneDrive/Desktop/GD32VW553/V1_MQTT_OK/GD32VW55X_Wifi_BLE_SDK/GD32VW55x_RELEASE_V1.0.2/MSDK/wpa_supplicant/src/common\hw_features_common.c **** 		}
  37:C:/Users/stapi/OneDrive/Desktop/GD32VW553/V1_MQTT_OK/GD32VW55X_Wifi_BLE_SDK/GD32VW55x_RELEASE_V1.0.2/MSDK/wpa_supplicant/src/common\hw_features_common.c **** 	}
  38:C:/Users/stapi/OneDrive/Desktop/GD32VW553/V1_MQTT_OK/GD32VW55X_Wifi_BLE_SDK/GD32VW55x_RELEASE_V1.0.2/MSDK/wpa_supplicant/src/common\hw_features_common.c **** 
  39:C:/Users/stapi/OneDrive/Desktop/GD32VW553/V1_MQTT_OK/GD32VW55X_Wifi_BLE_SDK/GD32VW55x_RELEASE_V1.0.2/MSDK/wpa_supplicant/src/common\hw_features_common.c **** 	return NULL;
  40:C:/Users/stapi/OneDrive/Desktop/GD32VW553/V1_MQTT_OK/GD32VW55X_Wifi_BLE_SDK/GD32VW55x_RELEASE_V1.0.2/MSDK/wpa_supplicant/src/common\hw_features_common.c **** }
  56              		.loc 1 40 1
  57 001a 8280     		ret
  58              	.LVL4:
  59              	.L6:
  60              	.LBB12:
  61              	.LBB11:
  62              	.LBB10:
  31:C:/Users/stapi/OneDrive/Desktop/GD32VW553/V1_MQTT_OK/GD32VW55X_Wifi_BLE_SDK/GD32VW55x_RELEASE_V1.0.2/MSDK/wpa_supplicant/src/common\hw_features_common.c **** 		if (ch->chan == chan) {
  63              		.loc 1 31 3 is_stmt 1
  31:C:/Users/stapi/OneDrive/Desktop/GD32VW553/V1_MQTT_OK/GD32VW55X_Wifi_BLE_SDK/GD32VW55x_RELEASE_V1.0.2/MSDK/wpa_supplicant/src/common\hw_features_common.c **** 		if (ch->chan == chan) {
  64              		.loc 1 31 32 is_stmt 0
  65 001c 8847     		lw	a0,8(a5)
  66 001e 7F1507C5 		maddr32	a0, a4, a6
  67              	.LVL5:
  32:C:/Users/stapi/OneDrive/Desktop/GD32VW553/V1_MQTT_OK/GD32VW55X_Wifi_BLE_SDK/GD32VW55x_RELEASE_V1.0.2/MSDK/wpa_supplicant/src/common\hw_features_common.c **** 		if (ch->chan == chan) {
  68              		.loc 1 32 3 is_stmt 1
  32:C:/Users/stapi/OneDrive/Desktop/GD32VW553/V1_MQTT_OK/GD32VW55X_Wifi_BLE_SDK/GD32VW55x_RELEASE_V1.0.2/MSDK/wpa_supplicant/src/common\hw_features_common.c **** 		if (ch->chan == chan) {
  69              		.loc 1 32 9 is_stmt 0
  70 0022 83180500 		lh	a7,0(a0)
  32:C:/Users/stapi/OneDrive/Desktop/GD32VW553/V1_MQTT_OK/GD32VW55X_Wifi_BLE_SDK/GD32VW55x_RELEASE_V1.0.2/MSDK/wpa_supplicant/src/common\hw_features_common.c **** 		if (ch->chan == chan) {
  71              		.loc 1 32 6
  72 0026 63961501 		bne	a1,a7,.L5
  33:C:/Users/stapi/OneDrive/Desktop/GD32VW553/V1_MQTT_OK/GD32VW55X_Wifi_BLE_SDK/GD32VW55x_RELEASE_V1.0.2/MSDK/wpa_supplicant/src/common\hw_features_common.c **** 				*freq = ch->freq;
  73              		.loc 1 33 4 is_stmt 1
  33:C:/Users/stapi/OneDrive/Desktop/GD32VW553/V1_MQTT_OK/GD32VW55X_Wifi_BLE_SDK/GD32VW55x_RELEASE_V1.0.2/MSDK/wpa_supplicant/src/common\hw_features_common.c **** 				*freq = ch->freq;
  74              		.loc 1 33 7 is_stmt 0
  75 002a 65DA     		beq	a2,zero,.L1
  34:C:/Users/stapi/OneDrive/Desktop/GD32VW553/V1_MQTT_OK/GD32VW55X_Wifi_BLE_SDK/GD32VW55x_RELEASE_V1.0.2/MSDK/wpa_supplicant/src/common\hw_features_common.c **** 			return ch;
  76              		.loc 1 34 5 is_stmt 1
  34:C:/Users/stapi/OneDrive/Desktop/GD32VW553/V1_MQTT_OK/GD32VW55X_Wifi_BLE_SDK/GD32VW55x_RELEASE_V1.0.2/MSDK/wpa_supplicant/src/common\hw_features_common.c **** 			return ch;
  77              		.loc 1 34 15 is_stmt 0
  78 002c 5C41     		lw	a5,4(a0)
  79              	.LVL6:
  34:C:/Users/stapi/OneDrive/Desktop/GD32VW553/V1_MQTT_OK/GD32VW55X_Wifi_BLE_SDK/GD32VW55x_RELEASE_V1.0.2/MSDK/wpa_supplicant/src/common\hw_features_common.c **** 			return ch;
  80              		.loc 1 34 11
  81 002e 1CC2     		sw	a5,0(a2)
  82 0030 8280     		ret
  83              	.LVL7:
  84              	.L5:
  85              	.LBE10:
  30:C:/Users/stapi/OneDrive/Desktop/GD32VW553/V1_MQTT_OK/GD32VW55X_Wifi_BLE_SDK/GD32VW55x_RELEASE_V1.0.2/MSDK/wpa_supplicant/src/common\hw_features_common.c **** 		struct hostapd_channel_data *ch = &mode->channels[i];
  86              		.loc 1 30 38 is_stmt 1
  30:C:/Users/stapi/OneDrive/Desktop/GD32VW553/V1_MQTT_OK/GD32VW55X_Wifi_BLE_SDK/GD32VW55x_RELEASE_V1.0.2/MSDK/wpa_supplicant/src/common\hw_features_common.c **** 		struct hostapd_channel_data *ch = &mode->channels[i];
  87              		.loc 1 30 39 is_stmt 0
  88 0032 0507     		addi	a4,a4,1
  89              	.LVL8:
  90 0034 C5B7     		j	.L4
  91              	.LBE11:
  92              	.LBE12:
  93              		.cfi_endproc
  94              	.LFE101:
  96              		.section	.text.hw_mode_get_channel,"ax",@progbits
  97              		.align	1
  98              		.globl	hw_mode_get_channel
 100              	hw_mode_get_channel:
 101              	.LFB102:
  41:C:/Users/stapi/OneDrive/Desktop/GD32VW553/V1_MQTT_OK/GD32VW55X_Wifi_BLE_SDK/GD32VW55x_RELEASE_V1.0.2/MSDK/wpa_supplicant/src/common\hw_features_common.c **** 
  42:C:/Users/stapi/OneDrive/Desktop/GD32VW553/V1_MQTT_OK/GD32VW55X_Wifi_BLE_SDK/GD32VW55x_RELEASE_V1.0.2/MSDK/wpa_supplicant/src/common\hw_features_common.c **** 
  43:C:/Users/stapi/OneDrive/Desktop/GD32VW553/V1_MQTT_OK/GD32VW55X_Wifi_BLE_SDK/GD32VW55x_RELEASE_V1.0.2/MSDK/wpa_supplicant/src/common\hw_features_common.c **** struct hostapd_channel_data *
  44:C:/Users/stapi/OneDrive/Desktop/GD32VW553/V1_MQTT_OK/GD32VW55X_Wifi_BLE_SDK/GD32VW55x_RELEASE_V1.0.2/MSDK/wpa_supplicant/src/common\hw_features_common.c **** hw_mode_get_channel(struct hostapd_hw_modes *mode, int freq, int *chan)
  45:C:/Users/stapi/OneDrive/Desktop/GD32VW553/V1_MQTT_OK/GD32VW55X_Wifi_BLE_SDK/GD32VW55x_RELEASE_V1.0.2/MSDK/wpa_supplicant/src/common\hw_features_common.c **** {
 102              		.loc 1 45 1 is_stmt 1
 103              		.cfi_startproc
 104              	.LVL9:
  46:C:/Users/stapi/OneDrive/Desktop/GD32VW553/V1_MQTT_OK/GD32VW55X_Wifi_BLE_SDK/GD32VW55x_RELEASE_V1.0.2/MSDK/wpa_supplicant/src/common\hw_features_common.c **** 	int i;
 105              		.loc 1 46 2
  47:C:/Users/stapi/OneDrive/Desktop/GD32VW553/V1_MQTT_OK/GD32VW55X_Wifi_BLE_SDK/GD32VW55x_RELEASE_V1.0.2/MSDK/wpa_supplicant/src/common\hw_features_common.c **** 
  48:C:/Users/stapi/OneDrive/Desktop/GD32VW553/V1_MQTT_OK/GD32VW55X_Wifi_BLE_SDK/GD32VW55x_RELEASE_V1.0.2/MSDK/wpa_supplicant/src/common\hw_features_common.c **** 	for (i = 0; i < mode->num_channels; i++) {
 106              		.loc 1 48 2
 107              		.loc 1 48 22 is_stmt 0
 108 0000 5441     		lw	a3,4(a0)
  45:C:/Users/stapi/OneDrive/Desktop/GD32VW553/V1_MQTT_OK/GD32VW55X_Wifi_BLE_SDK/GD32VW55x_RELEASE_V1.0.2/MSDK/wpa_supplicant/src/common\hw_features_common.c **** 	int i;
 109              		.loc 1 45 1
 110 0002 2A87     		mv	a4,a0
 111              		.loc 1 48 9
 112 0004 8147     		li	a5,0
 113              	.LBB13:
  49:C:/Users/stapi/OneDrive/Desktop/GD32VW553/V1_MQTT_OK/GD32VW55X_Wifi_BLE_SDK/GD32VW55x_RELEASE_V1.0.2/MSDK/wpa_supplicant/src/common\hw_features_common.c **** 		struct hostapd_channel_data *ch = &mode->channels[i];
 114              		.loc 1 49 32
 115 0006 13088006 		li	a6,104
 116              	.LVL10:
 117              	.L15:
 118              	.LBE13:
  48:C:/Users/stapi/OneDrive/Desktop/GD32VW553/V1_MQTT_OK/GD32VW55X_Wifi_BLE_SDK/GD32VW55x_RELEASE_V1.0.2/MSDK/wpa_supplicant/src/common\hw_features_common.c **** 		struct hostapd_channel_data *ch = &mode->channels[i];
 119              		.loc 1 48 14 is_stmt 1 discriminator 1
  48:C:/Users/stapi/OneDrive/Desktop/GD32VW553/V1_MQTT_OK/GD32VW55X_Wifi_BLE_SDK/GD32VW55x_RELEASE_V1.0.2/MSDK/wpa_supplicant/src/common\hw_features_common.c **** 		struct hostapd_channel_data *ch = &mode->channels[i];
 120              		.loc 1 48 2 is_stmt 0 discriminator 1
 121 000a 63C4D700 		bgt	a3,a5,.L18
  50:C:/Users/stapi/OneDrive/Desktop/GD32VW553/V1_MQTT_OK/GD32VW55X_Wifi_BLE_SDK/GD32VW55x_RELEASE_V1.0.2/MSDK/wpa_supplicant/src/common\hw_features_common.c **** 
  51:C:/Users/stapi/OneDrive/Desktop/GD32VW553/V1_MQTT_OK/GD32VW55X_Wifi_BLE_SDK/GD32VW55x_RELEASE_V1.0.2/MSDK/wpa_supplicant/src/common\hw_features_common.c **** 		if (ch->freq == freq) {
  52:C:/Users/stapi/OneDrive/Desktop/GD32VW553/V1_MQTT_OK/GD32VW55X_Wifi_BLE_SDK/GD32VW55x_RELEASE_V1.0.2/MSDK/wpa_supplicant/src/common\hw_features_common.c **** 			if (chan)
  53:C:/Users/stapi/OneDrive/Desktop/GD32VW553/V1_MQTT_OK/GD32VW55X_Wifi_BLE_SDK/GD32VW55x_RELEASE_V1.0.2/MSDK/wpa_supplicant/src/common\hw_features_common.c **** 				*chan = ch->chan;
  54:C:/Users/stapi/OneDrive/Desktop/GD32VW553/V1_MQTT_OK/GD32VW55X_Wifi_BLE_SDK/GD32VW55x_RELEASE_V1.0.2/MSDK/wpa_supplicant/src/common\hw_features_common.c **** 			return ch;
  55:C:/Users/stapi/OneDrive/Desktop/GD32VW553/V1_MQTT_OK/GD32VW55X_Wifi_BLE_SDK/GD32VW55x_RELEASE_V1.0.2/MSDK/wpa_supplicant/src/common\hw_features_common.c **** 		}
  56:C:/Users/stapi/OneDrive/Desktop/GD32VW553/V1_MQTT_OK/GD32VW55X_Wifi_BLE_SDK/GD32VW55x_RELEASE_V1.0.2/MSDK/wpa_supplicant/src/common\hw_features_common.c **** 	}
  57:C:/Users/stapi/OneDrive/Desktop/GD32VW553/V1_MQTT_OK/GD32VW55X_Wifi_BLE_SDK/GD32VW55x_RELEASE_V1.0.2/MSDK/wpa_supplicant/src/common\hw_features_common.c **** 
  58:C:/Users/stapi/OneDrive/Desktop/GD32VW553/V1_MQTT_OK/GD32VW55X_Wifi_BLE_SDK/GD32VW55x_RELEASE_V1.0.2/MSDK/wpa_supplicant/src/common\hw_features_common.c **** 	return NULL;
 122              		.loc 1 58 9
 123 000e 0145     		li	a0,0
 124              	.L14:
  59:C:/Users/stapi/OneDrive/Desktop/GD32VW553/V1_MQTT_OK/GD32VW55X_Wifi_BLE_SDK/GD32VW55x_RELEASE_V1.0.2/MSDK/wpa_supplicant/src/common\hw_features_common.c **** }
 125              		.loc 1 59 1
 126 0010 8280     		ret
 127              	.L18:
 128              	.LBB14:
  49:C:/Users/stapi/OneDrive/Desktop/GD32VW553/V1_MQTT_OK/GD32VW55X_Wifi_BLE_SDK/GD32VW55x_RELEASE_V1.0.2/MSDK/wpa_supplicant/src/common\hw_features_common.c **** 
 129              		.loc 1 49 3 is_stmt 1
  49:C:/Users/stapi/OneDrive/Desktop/GD32VW553/V1_MQTT_OK/GD32VW55X_Wifi_BLE_SDK/GD32VW55x_RELEASE_V1.0.2/MSDK/wpa_supplicant/src/common\hw_features_common.c **** 
 130              		.loc 1 49 32 is_stmt 0
 131 0012 0847     		lw	a0,8(a4)
 132 0014 7F9507C5 		maddr32	a0, a5, a6
 133              	.LVL11:
  51:C:/Users/stapi/OneDrive/Desktop/GD32VW553/V1_MQTT_OK/GD32VW55X_Wifi_BLE_SDK/GD32VW55x_RELEASE_V1.0.2/MSDK/wpa_supplicant/src/common\hw_features_common.c **** 			if (chan)
 134              		.loc 1 51 3 is_stmt 1
  51:C:/Users/stapi/OneDrive/Desktop/GD32VW553/V1_MQTT_OK/GD32VW55X_Wifi_BLE_SDK/GD32VW55x_RELEASE_V1.0.2/MSDK/wpa_supplicant/src/common\hw_features_common.c **** 			if (chan)
 135              		.loc 1 51 6 is_stmt 0
 136 0018 83284500 		lw	a7,4(a0)
 137 001c 6397B800 		bne	a7,a1,.L16
  52:C:/Users/stapi/OneDrive/Desktop/GD32VW553/V1_MQTT_OK/GD32VW55X_Wifi_BLE_SDK/GD32VW55x_RELEASE_V1.0.2/MSDK/wpa_supplicant/src/common\hw_features_common.c **** 				*chan = ch->chan;
 138              		.loc 1 52 4 is_stmt 1
  52:C:/Users/stapi/OneDrive/Desktop/GD32VW553/V1_MQTT_OK/GD32VW55X_Wifi_BLE_SDK/GD32VW55x_RELEASE_V1.0.2/MSDK/wpa_supplicant/src/common\hw_features_common.c **** 				*chan = ch->chan;
 139              		.loc 1 52 7 is_stmt 0
 140 0020 65DA     		beq	a2,zero,.L14
  53:C:/Users/stapi/OneDrive/Desktop/GD32VW553/V1_MQTT_OK/GD32VW55X_Wifi_BLE_SDK/GD32VW55x_RELEASE_V1.0.2/MSDK/wpa_supplicant/src/common\hw_features_common.c **** 			return ch;
 141              		.loc 1 53 5 is_stmt 1
  53:C:/Users/stapi/OneDrive/Desktop/GD32VW553/V1_MQTT_OK/GD32VW55X_Wifi_BLE_SDK/GD32VW55x_RELEASE_V1.0.2/MSDK/wpa_supplicant/src/common\hw_features_common.c **** 			return ch;
 142              		.loc 1 53 15 is_stmt 0
 143 0022 83170500 		lh	a5,0(a0)
 144              	.LVL12:
 145 0026 1CC2     		sw	a5,0(a2)
 146 0028 8280     		ret
 147              	.LVL13:
 148              	.L16:
 149              	.LBE14:
  48:C:/Users/stapi/OneDrive/Desktop/GD32VW553/V1_MQTT_OK/GD32VW55X_Wifi_BLE_SDK/GD32VW55x_RELEASE_V1.0.2/MSDK/wpa_supplicant/src/common\hw_features_common.c **** 		struct hostapd_channel_data *ch = &mode->channels[i];
 150              		.loc 1 48 38 is_stmt 1 discriminator 2
  48:C:/Users/stapi/OneDrive/Desktop/GD32VW553/V1_MQTT_OK/GD32VW55X_Wifi_BLE_SDK/GD32VW55x_RELEASE_V1.0.2/MSDK/wpa_supplicant/src/common\hw_features_common.c **** 		struct hostapd_channel_data *ch = &mode->channels[i];
 151              		.loc 1 48 39 is_stmt 0 discriminator 2
 152 002a 8507     		addi	a5,a5,1
 153              	.LVL14:
 154 002c F9BF     		j	.L15
 155              		.cfi_endproc
 156              	.LFE102:
 158              		.section	.text.hw_get_channel_freq,"ax",@progbits
 159              		.align	1
 160              		.globl	hw_get_channel_freq
 162              	hw_get_channel_freq:
 163              	.LFB103:
  60:C:/Users/stapi/OneDrive/Desktop/GD32VW553/V1_MQTT_OK/GD32VW55X_Wifi_BLE_SDK/GD32VW55x_RELEASE_V1.0.2/MSDK/wpa_supplicant/src/common\hw_features_common.c **** 
  61:C:/Users/stapi/OneDrive/Desktop/GD32VW553/V1_MQTT_OK/GD32VW55X_Wifi_BLE_SDK/GD32VW55x_RELEASE_V1.0.2/MSDK/wpa_supplicant/src/common\hw_features_common.c **** 
  62:C:/Users/stapi/OneDrive/Desktop/GD32VW553/V1_MQTT_OK/GD32VW55X_Wifi_BLE_SDK/GD32VW55x_RELEASE_V1.0.2/MSDK/wpa_supplicant/src/common\hw_features_common.c **** struct hostapd_channel_data *
  63:C:/Users/stapi/OneDrive/Desktop/GD32VW553/V1_MQTT_OK/GD32VW55X_Wifi_BLE_SDK/GD32VW55x_RELEASE_V1.0.2/MSDK/wpa_supplicant/src/common\hw_features_common.c **** hw_get_channel_freq(enum hostapd_hw_mode mode, int freq, int *chan,
  64:C:/Users/stapi/OneDrive/Desktop/GD32VW553/V1_MQTT_OK/GD32VW55X_Wifi_BLE_SDK/GD32VW55x_RELEASE_V1.0.2/MSDK/wpa_supplicant/src/common\hw_features_common.c **** 		    struct hostapd_hw_modes *hw_features, int num_hw_features)
  65:C:/Users/stapi/OneDrive/Desktop/GD32VW553/V1_MQTT_OK/GD32VW55X_Wifi_BLE_SDK/GD32VW55x_RELEASE_V1.0.2/MSDK/wpa_supplicant/src/common\hw_features_common.c **** {
 164              		.loc 1 65 1 is_stmt 1
 165              		.cfi_startproc
 166              	.LVL15:
 167 0000 17030000 		call	t0,__riscv_save_6
 167      E7020300 
 168              		.cfi_offset 21, -28
 169              		.cfi_offset 20, -24
 170              		.cfi_offset 19, -20
 171              		.cfi_offset 18, -16
 172              		.cfi_offset 9, -12
 173              		.cfi_offset 8, -8
 174              		.cfi_offset 1, -4
 175              		.cfi_def_cfa_offset 32
  66:C:/Users/stapi/OneDrive/Desktop/GD32VW553/V1_MQTT_OK/GD32VW55X_Wifi_BLE_SDK/GD32VW55x_RELEASE_V1.0.2/MSDK/wpa_supplicant/src/common\hw_features_common.c **** 	struct hostapd_channel_data *chan_data;
 176              		.loc 1 66 2
  67:C:/Users/stapi/OneDrive/Desktop/GD32VW553/V1_MQTT_OK/GD32VW55X_Wifi_BLE_SDK/GD32VW55x_RELEASE_V1.0.2/MSDK/wpa_supplicant/src/common\hw_features_common.c **** 	int i;
 177              		.loc 1 67 2
  68:C:/Users/stapi/OneDrive/Desktop/GD32VW553/V1_MQTT_OK/GD32VW55X_Wifi_BLE_SDK/GD32VW55x_RELEASE_V1.0.2/MSDK/wpa_supplicant/src/common\hw_features_common.c **** 
  69:C:/Users/stapi/OneDrive/Desktop/GD32VW553/V1_MQTT_OK/GD32VW55X_Wifi_BLE_SDK/GD32VW55x_RELEASE_V1.0.2/MSDK/wpa_supplicant/src/common\hw_features_common.c **** 	if (chan)
 178              		.loc 1 69 2
  65:C:/Users/stapi/OneDrive/Desktop/GD32VW553/V1_MQTT_OK/GD32VW55X_Wifi_BLE_SDK/GD32VW55x_RELEASE_V1.0.2/MSDK/wpa_supplicant/src/common\hw_features_common.c **** 	struct hostapd_channel_data *chan_data;
 179              		.loc 1 65 1 is_stmt 0
 180 0008 2A8A     		mv	s4,a0
 181 000a AE8A     		mv	s5,a1
 182 000c B284     		mv	s1,a2
 183 000e 3684     		mv	s0,a3
 184 0010 BA89     		mv	s3,a4
 185              		.loc 1 69 5
 186 0012 19C2     		beq	a2,zero,.L23
  70:C:/Users/stapi/OneDrive/Desktop/GD32VW553/V1_MQTT_OK/GD32VW55X_Wifi_BLE_SDK/GD32VW55x_RELEASE_V1.0.2/MSDK/wpa_supplicant/src/common\hw_features_common.c **** 		*chan = 0;
 187              		.loc 1 70 3 is_stmt 1
 188              		.loc 1 70 9 is_stmt 0
 189 0014 23200600 		sw	zero,0(a2)
 190              	.L23:
  71:C:/Users/stapi/OneDrive/Desktop/GD32VW553/V1_MQTT_OK/GD32VW55X_Wifi_BLE_SDK/GD32VW55x_RELEASE_V1.0.2/MSDK/wpa_supplicant/src/common\hw_features_common.c **** 
  72:C:/Users/stapi/OneDrive/Desktop/GD32VW553/V1_MQTT_OK/GD32VW55X_Wifi_BLE_SDK/GD32VW55x_RELEASE_V1.0.2/MSDK/wpa_supplicant/src/common\hw_features_common.c **** 	if (!hw_features)
 191              		.loc 1 72 2 is_stmt 1
 192              		.loc 1 72 5 is_stmt 0
 193 0018 01C4     		beq	s0,zero,.L24
 194              	.LBB18:
 195              	.LBB19:
  73:C:/Users/stapi/OneDrive/Desktop/GD32VW553/V1_MQTT_OK/GD32VW55X_Wifi_BLE_SDK/GD32VW55x_RELEASE_V1.0.2/MSDK/wpa_supplicant/src/common\hw_features_common.c **** 		return NULL;
  74:C:/Users/stapi/OneDrive/Desktop/GD32VW553/V1_MQTT_OK/GD32VW55X_Wifi_BLE_SDK/GD32VW55x_RELEASE_V1.0.2/MSDK/wpa_supplicant/src/common\hw_features_common.c **** 
  75:C:/Users/stapi/OneDrive/Desktop/GD32VW553/V1_MQTT_OK/GD32VW55X_Wifi_BLE_SDK/GD32VW55x_RELEASE_V1.0.2/MSDK/wpa_supplicant/src/common\hw_features_common.c **** 	for (i = 0; i < num_hw_features; i++) {
 196              		.loc 1 75 9
 197 001a 0149     		li	s2,0
 198              	.LVL16:
 199              	.L25:
 200              		.loc 1 75 14 is_stmt 1
 201              		.loc 1 75 2 is_stmt 0
 202 001c 63473901 		bgt	s3,s2,.L29
 203              	.LVL17:
 204              	.L24:
 205              	.LBE19:
 206              	.LBE18:
  73:C:/Users/stapi/OneDrive/Desktop/GD32VW553/V1_MQTT_OK/GD32VW55X_Wifi_BLE_SDK/GD32VW55x_RELEASE_V1.0.2/MSDK/wpa_supplicant/src/common\hw_features_common.c **** 		return NULL;
 207              		.loc 1 73 10
 208 0020 0145     		li	a0,0
 209              	.L22:
  76:C:/Users/stapi/OneDrive/Desktop/GD32VW553/V1_MQTT_OK/GD32VW55X_Wifi_BLE_SDK/GD32VW55x_RELEASE_V1.0.2/MSDK/wpa_supplicant/src/common\hw_features_common.c **** 		struct hostapd_hw_modes *curr_mode = &hw_features[i];
  77:C:/Users/stapi/OneDrive/Desktop/GD32VW553/V1_MQTT_OK/GD32VW55X_Wifi_BLE_SDK/GD32VW55x_RELEASE_V1.0.2/MSDK/wpa_supplicant/src/common\hw_features_common.c **** 
  78:C:/Users/stapi/OneDrive/Desktop/GD32VW553/V1_MQTT_OK/GD32VW55X_Wifi_BLE_SDK/GD32VW55x_RELEASE_V1.0.2/MSDK/wpa_supplicant/src/common\hw_features_common.c **** 		if (curr_mode->mode != mode)
  79:C:/Users/stapi/OneDrive/Desktop/GD32VW553/V1_MQTT_OK/GD32VW55X_Wifi_BLE_SDK/GD32VW55x_RELEASE_V1.0.2/MSDK/wpa_supplicant/src/common\hw_features_common.c **** 			continue;
  80:C:/Users/stapi/OneDrive/Desktop/GD32VW553/V1_MQTT_OK/GD32VW55X_Wifi_BLE_SDK/GD32VW55x_RELEASE_V1.0.2/MSDK/wpa_supplicant/src/common\hw_features_common.c **** 
  81:C:/Users/stapi/OneDrive/Desktop/GD32VW553/V1_MQTT_OK/GD32VW55X_Wifi_BLE_SDK/GD32VW55x_RELEASE_V1.0.2/MSDK/wpa_supplicant/src/common\hw_features_common.c **** 		chan_data = hw_mode_get_channel(curr_mode, freq, chan);
  82:C:/Users/stapi/OneDrive/Desktop/GD32VW553/V1_MQTT_OK/GD32VW55X_Wifi_BLE_SDK/GD32VW55x_RELEASE_V1.0.2/MSDK/wpa_supplicant/src/common\hw_features_common.c **** 		if (chan_data)
  83:C:/Users/stapi/OneDrive/Desktop/GD32VW553/V1_MQTT_OK/GD32VW55X_Wifi_BLE_SDK/GD32VW55x_RELEASE_V1.0.2/MSDK/wpa_supplicant/src/common\hw_features_common.c **** 			return chan_data;
  84:C:/Users/stapi/OneDrive/Desktop/GD32VW553/V1_MQTT_OK/GD32VW55X_Wifi_BLE_SDK/GD32VW55x_RELEASE_V1.0.2/MSDK/wpa_supplicant/src/common\hw_features_common.c **** 	}
  85:C:/Users/stapi/OneDrive/Desktop/GD32VW553/V1_MQTT_OK/GD32VW55X_Wifi_BLE_SDK/GD32VW55x_RELEASE_V1.0.2/MSDK/wpa_supplicant/src/common\hw_features_common.c **** 
  86:C:/Users/stapi/OneDrive/Desktop/GD32VW553/V1_MQTT_OK/GD32VW55X_Wifi_BLE_SDK/GD32VW55x_RELEASE_V1.0.2/MSDK/wpa_supplicant/src/common\hw_features_common.c **** 	return NULL;
  87:C:/Users/stapi/OneDrive/Desktop/GD32VW553/V1_MQTT_OK/GD32VW55X_Wifi_BLE_SDK/GD32VW55x_RELEASE_V1.0.2/MSDK/wpa_supplicant/src/common\hw_features_common.c **** }
 210              		.loc 1 87 1
 211 0022 17030000 		tail	__riscv_restore_6
 211      67000300 
 212              		.cfi_remember_state
 213              		.cfi_restore 21
 214              		.cfi_restore 20
 215              		.cfi_restore 19
 216              		.cfi_restore 18
 217              		.cfi_restore 9
 218              		.cfi_restore 8
 219              		.cfi_restore 1
 220              		.cfi_def_cfa_offset 0
 221              	.LVL18:
 222              	.L29:
 223              		.cfi_restore_state
 224              	.LBB23:
 225              	.LBB22:
 226              	.LBB20:
  76:C:/Users/stapi/OneDrive/Desktop/GD32VW553/V1_MQTT_OK/GD32VW55X_Wifi_BLE_SDK/GD32VW55x_RELEASE_V1.0.2/MSDK/wpa_supplicant/src/common\hw_features_common.c **** 		struct hostapd_hw_modes *curr_mode = &hw_features[i];
 227              		.loc 1 76 3 is_stmt 1
  78:C:/Users/stapi/OneDrive/Desktop/GD32VW553/V1_MQTT_OK/GD32VW55X_Wifi_BLE_SDK/GD32VW55x_RELEASE_V1.0.2/MSDK/wpa_supplicant/src/common\hw_features_common.c **** 			continue;
 228              		.loc 1 78 3
  78:C:/Users/stapi/OneDrive/Desktop/GD32VW553/V1_MQTT_OK/GD32VW55X_Wifi_BLE_SDK/GD32VW55x_RELEASE_V1.0.2/MSDK/wpa_supplicant/src/common\hw_features_common.c **** 			continue;
 229              		.loc 1 78 6 is_stmt 0
 230 002a 1C40     		lw	a5,0(s0)
 231 002c 6306FA00 		beq	s4,a5,.L27
 232              	.L28:
 233              	.LBE20:
  75:C:/Users/stapi/OneDrive/Desktop/GD32VW553/V1_MQTT_OK/GD32VW55X_Wifi_BLE_SDK/GD32VW55x_RELEASE_V1.0.2/MSDK/wpa_supplicant/src/common\hw_features_common.c **** 		struct hostapd_hw_modes *curr_mode = &hw_features[i];
 234              		.loc 1 75 35 is_stmt 1
  75:C:/Users/stapi/OneDrive/Desktop/GD32VW553/V1_MQTT_OK/GD32VW55X_Wifi_BLE_SDK/GD32VW55x_RELEASE_V1.0.2/MSDK/wpa_supplicant/src/common\hw_features_common.c **** 		struct hostapd_hw_modes *curr_mode = &hw_features[i];
 235              		.loc 1 75 36 is_stmt 0
 236 0030 0509     		addi	s2,s2,1
 237              	.LVL19:
 238 0032 1304C419 		addi	s0,s0,412
 239              	.LVL20:
 240 0036 DDB7     		j	.L25
 241              	.LVL21:
 242              	.L27:
 243              	.LBB21:
  81:C:/Users/stapi/OneDrive/Desktop/GD32VW553/V1_MQTT_OK/GD32VW55X_Wifi_BLE_SDK/GD32VW55x_RELEASE_V1.0.2/MSDK/wpa_supplicant/src/common\hw_features_common.c **** 		if (chan_data)
 244              		.loc 1 81 3 is_stmt 1
  81:C:/Users/stapi/OneDrive/Desktop/GD32VW553/V1_MQTT_OK/GD32VW55X_Wifi_BLE_SDK/GD32VW55x_RELEASE_V1.0.2/MSDK/wpa_supplicant/src/common\hw_features_common.c **** 		if (chan_data)
 245              		.loc 1 81 15 is_stmt 0
 246 0038 2686     		mv	a2,s1
 247 003a D685     		mv	a1,s5
 248 003c 2285     		mv	a0,s0
 249 003e 97000000 		call	hw_mode_get_channel
 249      E7800000 
 250              	.LVL22:
  82:C:/Users/stapi/OneDrive/Desktop/GD32VW553/V1_MQTT_OK/GD32VW55X_Wifi_BLE_SDK/GD32VW55x_RELEASE_V1.0.2/MSDK/wpa_supplicant/src/common\hw_features_common.c **** 			return chan_data;
 251              		.loc 1 82 3 is_stmt 1
  82:C:/Users/stapi/OneDrive/Desktop/GD32VW553/V1_MQTT_OK/GD32VW55X_Wifi_BLE_SDK/GD32VW55x_RELEASE_V1.0.2/MSDK/wpa_supplicant/src/common\hw_features_common.c **** 			return chan_data;
 252              		.loc 1 82 6 is_stmt 0
 253 0046 6DD5     		beq	a0,zero,.L28
 254 0048 E9BF     		j	.L22
 255              	.LBE21:
 256              	.LBE22:
 257              	.LBE23:
 258              		.cfi_endproc
 259              	.LFE103:
 261              		.section	.text.hw_get_freq,"ax",@progbits
 262              		.align	1
 263              		.globl	hw_get_freq
 265              	hw_get_freq:
 266              	.LFB104:
  88:C:/Users/stapi/OneDrive/Desktop/GD32VW553/V1_MQTT_OK/GD32VW55X_Wifi_BLE_SDK/GD32VW55x_RELEASE_V1.0.2/MSDK/wpa_supplicant/src/common\hw_features_common.c **** 
  89:C:/Users/stapi/OneDrive/Desktop/GD32VW553/V1_MQTT_OK/GD32VW55X_Wifi_BLE_SDK/GD32VW55x_RELEASE_V1.0.2/MSDK/wpa_supplicant/src/common\hw_features_common.c **** 
  90:C:/Users/stapi/OneDrive/Desktop/GD32VW553/V1_MQTT_OK/GD32VW55X_Wifi_BLE_SDK/GD32VW55x_RELEASE_V1.0.2/MSDK/wpa_supplicant/src/common\hw_features_common.c **** int hw_get_freq(struct hostapd_hw_modes *mode, int chan)
  91:C:/Users/stapi/OneDrive/Desktop/GD32VW553/V1_MQTT_OK/GD32VW55X_Wifi_BLE_SDK/GD32VW55x_RELEASE_V1.0.2/MSDK/wpa_supplicant/src/common\hw_features_common.c **** {
 267              		.loc 1 91 1 is_stmt 1
 268              		.cfi_startproc
 269              	.LVL23:
 270 0000 17030000 		call	t0,__riscv_save_0
 270      E7020300 
 271              		.cfi_offset 1, -4
 272              		.cfi_def_cfa_offset 16
  92:C:/Users/stapi/OneDrive/Desktop/GD32VW553/V1_MQTT_OK/GD32VW55X_Wifi_BLE_SDK/GD32VW55x_RELEASE_V1.0.2/MSDK/wpa_supplicant/src/common\hw_features_common.c **** 	int freq;
 273              		.loc 1 92 2
  93:C:/Users/stapi/OneDrive/Desktop/GD32VW553/V1_MQTT_OK/GD32VW55X_Wifi_BLE_SDK/GD32VW55x_RELEASE_V1.0.2/MSDK/wpa_supplicant/src/common\hw_features_common.c **** 
  94:C:/Users/stapi/OneDrive/Desktop/GD32VW553/V1_MQTT_OK/GD32VW55X_Wifi_BLE_SDK/GD32VW55x_RELEASE_V1.0.2/MSDK/wpa_supplicant/src/common\hw_features_common.c **** 	hw_get_channel_chan(mode, chan, &freq);
 274              		.loc 1 94 2
  91:C:/Users/stapi/OneDrive/Desktop/GD32VW553/V1_MQTT_OK/GD32VW55X_Wifi_BLE_SDK/GD32VW55x_RELEASE_V1.0.2/MSDK/wpa_supplicant/src/common\hw_features_common.c **** 	int freq;
 275              		.loc 1 91 1 is_stmt 0
 276 0008 4111     		addi	sp,sp,-16
 277              		.cfi_def_cfa_offset 32
 278              		.loc 1 94 2
 279 000a 7000     		addi	a2,sp,12
 280 000c 97000000 		call	hw_get_channel_chan
 280      E7800000 
 281              	.LVL24:
  95:C:/Users/stapi/OneDrive/Desktop/GD32VW553/V1_MQTT_OK/GD32VW55X_Wifi_BLE_SDK/GD32VW55x_RELEASE_V1.0.2/MSDK/wpa_supplicant/src/common\hw_features_common.c **** 
  96:C:/Users/stapi/OneDrive/Desktop/GD32VW553/V1_MQTT_OK/GD32VW55X_Wifi_BLE_SDK/GD32VW55x_RELEASE_V1.0.2/MSDK/wpa_supplicant/src/common\hw_features_common.c **** 	return freq;
 282              		.loc 1 96 2 is_stmt 1
  97:C:/Users/stapi/OneDrive/Desktop/GD32VW553/V1_MQTT_OK/GD32VW55X_Wifi_BLE_SDK/GD32VW55x_RELEASE_V1.0.2/MSDK/wpa_supplicant/src/common\hw_features_common.c **** }
 283              		.loc 1 97 1 is_stmt 0
 284 0014 3245     		lw	a0,12(sp)
 285 0016 4101     		addi	sp,sp,16
 286              		.cfi_def_cfa_offset 0
 287 0018 17030000 		tail	__riscv_restore_0
 287      67000300 
 288              		.cfi_restore 1
 289              		.cfi_def_cfa_offset -16
 290              		.cfi_endproc
 291              	.LFE104:
 293              		.section	.text.hw_get_chan,"ax",@progbits
 294              		.align	1
 295              		.globl	hw_get_chan
 297              	hw_get_chan:
 298              	.LFB105:
  98:C:/Users/stapi/OneDrive/Desktop/GD32VW553/V1_MQTT_OK/GD32VW55X_Wifi_BLE_SDK/GD32VW55x_RELEASE_V1.0.2/MSDK/wpa_supplicant/src/common\hw_features_common.c **** 
  99:C:/Users/stapi/OneDrive/Desktop/GD32VW553/V1_MQTT_OK/GD32VW55X_Wifi_BLE_SDK/GD32VW55x_RELEASE_V1.0.2/MSDK/wpa_supplicant/src/common\hw_features_common.c **** 
 100:C:/Users/stapi/OneDrive/Desktop/GD32VW553/V1_MQTT_OK/GD32VW55X_Wifi_BLE_SDK/GD32VW55x_RELEASE_V1.0.2/MSDK/wpa_supplicant/src/common\hw_features_common.c **** int hw_get_chan(enum hostapd_hw_mode mode, int freq,
 101:C:/Users/stapi/OneDrive/Desktop/GD32VW553/V1_MQTT_OK/GD32VW55X_Wifi_BLE_SDK/GD32VW55x_RELEASE_V1.0.2/MSDK/wpa_supplicant/src/common\hw_features_common.c **** 		struct hostapd_hw_modes *hw_features, int num_hw_features)
 102:C:/Users/stapi/OneDrive/Desktop/GD32VW553/V1_MQTT_OK/GD32VW55X_Wifi_BLE_SDK/GD32VW55x_RELEASE_V1.0.2/MSDK/wpa_supplicant/src/common\hw_features_common.c **** {
 299              		.loc 1 102 1 is_stmt 1
 300              		.cfi_startproc
 301              	.LVL25:
 302 0000 17030000 		call	t0,__riscv_save_0
 302      E7020300 
 303              		.cfi_offset 1, -4
 304              		.cfi_def_cfa_offset 16
 103:C:/Users/stapi/OneDrive/Desktop/GD32VW553/V1_MQTT_OK/GD32VW55X_Wifi_BLE_SDK/GD32VW55x_RELEASE_V1.0.2/MSDK/wpa_supplicant/src/common\hw_features_common.c **** 	int chan;
 305              		.loc 1 103 2
 104:C:/Users/stapi/OneDrive/Desktop/GD32VW553/V1_MQTT_OK/GD32VW55X_Wifi_BLE_SDK/GD32VW55x_RELEASE_V1.0.2/MSDK/wpa_supplicant/src/common\hw_features_common.c **** 
 105:C:/Users/stapi/OneDrive/Desktop/GD32VW553/V1_MQTT_OK/GD32VW55X_Wifi_BLE_SDK/GD32VW55x_RELEASE_V1.0.2/MSDK/wpa_supplicant/src/common\hw_features_common.c **** 	hw_get_channel_freq(mode, freq, &chan, hw_features, num_hw_features);
 306              		.loc 1 105 2
 102:C:/Users/stapi/OneDrive/Desktop/GD32VW553/V1_MQTT_OK/GD32VW55X_Wifi_BLE_SDK/GD32VW55x_RELEASE_V1.0.2/MSDK/wpa_supplicant/src/common\hw_features_common.c **** 	int chan;
 307              		.loc 1 102 1 is_stmt 0
 308 0008 4111     		addi	sp,sp,-16
 309              		.cfi_def_cfa_offset 32
 102:C:/Users/stapi/OneDrive/Desktop/GD32VW553/V1_MQTT_OK/GD32VW55X_Wifi_BLE_SDK/GD32VW55x_RELEASE_V1.0.2/MSDK/wpa_supplicant/src/common\hw_features_common.c **** 	int chan;
 310              		.loc 1 102 1
 311 000a 3687     		mv	a4,a3
 312              		.loc 1 105 2
 313 000c B286     		mv	a3,a2
 314              	.LVL26:
 315 000e 7000     		addi	a2,sp,12
 316              	.LVL27:
 317 0010 97000000 		call	hw_get_channel_freq
 317      E7800000 
 318              	.LVL28:
 106:C:/Users/stapi/OneDrive/Desktop/GD32VW553/V1_MQTT_OK/GD32VW55X_Wifi_BLE_SDK/GD32VW55x_RELEASE_V1.0.2/MSDK/wpa_supplicant/src/common\hw_features_common.c **** 
 107:C:/Users/stapi/OneDrive/Desktop/GD32VW553/V1_MQTT_OK/GD32VW55X_Wifi_BLE_SDK/GD32VW55x_RELEASE_V1.0.2/MSDK/wpa_supplicant/src/common\hw_features_common.c **** 	return chan;
 319              		.loc 1 107 2 is_stmt 1
 108:C:/Users/stapi/OneDrive/Desktop/GD32VW553/V1_MQTT_OK/GD32VW55X_Wifi_BLE_SDK/GD32VW55x_RELEASE_V1.0.2/MSDK/wpa_supplicant/src/common\hw_features_common.c **** }
 320              		.loc 1 108 1 is_stmt 0
 321 0018 3245     		lw	a0,12(sp)
 322 001a 4101     		addi	sp,sp,16
 323              		.cfi_def_cfa_offset 0
 324 001c 17030000 		tail	__riscv_restore_0
 324      67000300 
 325              		.cfi_restore 1
 326              		.cfi_def_cfa_offset -16
 327              		.cfi_endproc
 328              	.LFE105:
 330              		.section	.text.get_pri_sec_chan,"ax",@progbits
 331              		.align	1
 332              		.globl	get_pri_sec_chan
 334              	get_pri_sec_chan:
 335              	.LFB107:
 109:C:/Users/stapi/OneDrive/Desktop/GD32VW553/V1_MQTT_OK/GD32VW55X_Wifi_BLE_SDK/GD32VW55x_RELEASE_V1.0.2/MSDK/wpa_supplicant/src/common\hw_features_common.c **** 
 110:C:/Users/stapi/OneDrive/Desktop/GD32VW553/V1_MQTT_OK/GD32VW55X_Wifi_BLE_SDK/GD32VW55x_RELEASE_V1.0.2/MSDK/wpa_supplicant/src/common\hw_features_common.c **** 
 111:C:/Users/stapi/OneDrive/Desktop/GD32VW553/V1_MQTT_OK/GD32VW55X_Wifi_BLE_SDK/GD32VW55x_RELEASE_V1.0.2/MSDK/wpa_supplicant/src/common\hw_features_common.c **** int allowed_ht40_channel_pair(enum hostapd_hw_mode mode,
 112:C:/Users/stapi/OneDrive/Desktop/GD32VW553/V1_MQTT_OK/GD32VW55X_Wifi_BLE_SDK/GD32VW55x_RELEASE_V1.0.2/MSDK/wpa_supplicant/src/common\hw_features_common.c **** 			      struct hostapd_channel_data *p_chan,
 113:C:/Users/stapi/OneDrive/Desktop/GD32VW553/V1_MQTT_OK/GD32VW55X_Wifi_BLE_SDK/GD32VW55x_RELEASE_V1.0.2/MSDK/wpa_supplicant/src/common\hw_features_common.c **** 			      struct hostapd_channel_data *s_chan)
 114:C:/Users/stapi/OneDrive/Desktop/GD32VW553/V1_MQTT_OK/GD32VW55X_Wifi_BLE_SDK/GD32VW55x_RELEASE_V1.0.2/MSDK/wpa_supplicant/src/common\hw_features_common.c **** {
 115:C:/Users/stapi/OneDrive/Desktop/GD32VW553/V1_MQTT_OK/GD32VW55X_Wifi_BLE_SDK/GD32VW55x_RELEASE_V1.0.2/MSDK/wpa_supplicant/src/common\hw_features_common.c **** 	int ok, first;
 116:C:/Users/stapi/OneDrive/Desktop/GD32VW553/V1_MQTT_OK/GD32VW55X_Wifi_BLE_SDK/GD32VW55x_RELEASE_V1.0.2/MSDK/wpa_supplicant/src/common\hw_features_common.c **** 	int allowed[] = { 36, 44, 52, 60, 100, 108, 116, 124, 132, 140,
 117:C:/Users/stapi/OneDrive/Desktop/GD32VW553/V1_MQTT_OK/GD32VW55X_Wifi_BLE_SDK/GD32VW55x_RELEASE_V1.0.2/MSDK/wpa_supplicant/src/common\hw_features_common.c **** 			  149, 157, 165, 173, 184, 192 };
 118:C:/Users/stapi/OneDrive/Desktop/GD32VW553/V1_MQTT_OK/GD32VW55X_Wifi_BLE_SDK/GD32VW55x_RELEASE_V1.0.2/MSDK/wpa_supplicant/src/common\hw_features_common.c **** 	size_t k;
 119:C:/Users/stapi/OneDrive/Desktop/GD32VW553/V1_MQTT_OK/GD32VW55X_Wifi_BLE_SDK/GD32VW55x_RELEASE_V1.0.2/MSDK/wpa_supplicant/src/common\hw_features_common.c **** 	int ht40_plus, pri_chan, sec_chan;
 120:C:/Users/stapi/OneDrive/Desktop/GD32VW553/V1_MQTT_OK/GD32VW55X_Wifi_BLE_SDK/GD32VW55x_RELEASE_V1.0.2/MSDK/wpa_supplicant/src/common\hw_features_common.c **** 
 121:C:/Users/stapi/OneDrive/Desktop/GD32VW553/V1_MQTT_OK/GD32VW55X_Wifi_BLE_SDK/GD32VW55x_RELEASE_V1.0.2/MSDK/wpa_supplicant/src/common\hw_features_common.c **** 	if (!p_chan || !s_chan)
 122:C:/Users/stapi/OneDrive/Desktop/GD32VW553/V1_MQTT_OK/GD32VW55X_Wifi_BLE_SDK/GD32VW55x_RELEASE_V1.0.2/MSDK/wpa_supplicant/src/common\hw_features_common.c **** 		return 0;
 123:C:/Users/stapi/OneDrive/Desktop/GD32VW553/V1_MQTT_OK/GD32VW55X_Wifi_BLE_SDK/GD32VW55x_RELEASE_V1.0.2/MSDK/wpa_supplicant/src/common\hw_features_common.c **** 	pri_chan = p_chan->chan;
 124:C:/Users/stapi/OneDrive/Desktop/GD32VW553/V1_MQTT_OK/GD32VW55X_Wifi_BLE_SDK/GD32VW55x_RELEASE_V1.0.2/MSDK/wpa_supplicant/src/common\hw_features_common.c **** 	sec_chan = s_chan->chan;
 125:C:/Users/stapi/OneDrive/Desktop/GD32VW553/V1_MQTT_OK/GD32VW55X_Wifi_BLE_SDK/GD32VW55x_RELEASE_V1.0.2/MSDK/wpa_supplicant/src/common\hw_features_common.c **** 
 126:C:/Users/stapi/OneDrive/Desktop/GD32VW553/V1_MQTT_OK/GD32VW55X_Wifi_BLE_SDK/GD32VW55x_RELEASE_V1.0.2/MSDK/wpa_supplicant/src/common\hw_features_common.c **** 	ht40_plus = pri_chan < sec_chan;
 127:C:/Users/stapi/OneDrive/Desktop/GD32VW553/V1_MQTT_OK/GD32VW55X_Wifi_BLE_SDK/GD32VW55x_RELEASE_V1.0.2/MSDK/wpa_supplicant/src/common\hw_features_common.c **** 
 128:C:/Users/stapi/OneDrive/Desktop/GD32VW553/V1_MQTT_OK/GD32VW55X_Wifi_BLE_SDK/GD32VW55x_RELEASE_V1.0.2/MSDK/wpa_supplicant/src/common\hw_features_common.c **** 	if (pri_chan == sec_chan || !sec_chan) {
 129:C:/Users/stapi/OneDrive/Desktop/GD32VW553/V1_MQTT_OK/GD32VW55X_Wifi_BLE_SDK/GD32VW55x_RELEASE_V1.0.2/MSDK/wpa_supplicant/src/common\hw_features_common.c **** 		if (chan_pri_allowed(p_chan))
 130:C:/Users/stapi/OneDrive/Desktop/GD32VW553/V1_MQTT_OK/GD32VW55X_Wifi_BLE_SDK/GD32VW55x_RELEASE_V1.0.2/MSDK/wpa_supplicant/src/common\hw_features_common.c **** 			return 1; /* HT40 not used */
 131:C:/Users/stapi/OneDrive/Desktop/GD32VW553/V1_MQTT_OK/GD32VW55X_Wifi_BLE_SDK/GD32VW55x_RELEASE_V1.0.2/MSDK/wpa_supplicant/src/common\hw_features_common.c **** 
 132:C:/Users/stapi/OneDrive/Desktop/GD32VW553/V1_MQTT_OK/GD32VW55X_Wifi_BLE_SDK/GD32VW55x_RELEASE_V1.0.2/MSDK/wpa_supplicant/src/common\hw_features_common.c **** 		wpa_printf(MSG_ERROR, "Channel %d is not allowed as primary",
 133:C:/Users/stapi/OneDrive/Desktop/GD32VW553/V1_MQTT_OK/GD32VW55X_Wifi_BLE_SDK/GD32VW55x_RELEASE_V1.0.2/MSDK/wpa_supplicant/src/common\hw_features_common.c **** 			   pri_chan);
 134:C:/Users/stapi/OneDrive/Desktop/GD32VW553/V1_MQTT_OK/GD32VW55X_Wifi_BLE_SDK/GD32VW55x_RELEASE_V1.0.2/MSDK/wpa_supplicant/src/common\hw_features_common.c **** 		return 0;
 135:C:/Users/stapi/OneDrive/Desktop/GD32VW553/V1_MQTT_OK/GD32VW55X_Wifi_BLE_SDK/GD32VW55x_RELEASE_V1.0.2/MSDK/wpa_supplicant/src/common\hw_features_common.c **** 	}
 136:C:/Users/stapi/OneDrive/Desktop/GD32VW553/V1_MQTT_OK/GD32VW55X_Wifi_BLE_SDK/GD32VW55x_RELEASE_V1.0.2/MSDK/wpa_supplicant/src/common\hw_features_common.c **** 
 137:C:/Users/stapi/OneDrive/Desktop/GD32VW553/V1_MQTT_OK/GD32VW55X_Wifi_BLE_SDK/GD32VW55x_RELEASE_V1.0.2/MSDK/wpa_supplicant/src/common\hw_features_common.c **** 	wpa_printf(MSG_DEBUG,
 138:C:/Users/stapi/OneDrive/Desktop/GD32VW553/V1_MQTT_OK/GD32VW55X_Wifi_BLE_SDK/GD32VW55x_RELEASE_V1.0.2/MSDK/wpa_supplicant/src/common\hw_features_common.c **** 		   "HT40: control channel: %d (%d MHz), secondary channel: %d (%d MHz)",
 139:C:/Users/stapi/OneDrive/Desktop/GD32VW553/V1_MQTT_OK/GD32VW55X_Wifi_BLE_SDK/GD32VW55x_RELEASE_V1.0.2/MSDK/wpa_supplicant/src/common\hw_features_common.c **** 		   pri_chan, p_chan->freq, sec_chan, s_chan->freq);
 140:C:/Users/stapi/OneDrive/Desktop/GD32VW553/V1_MQTT_OK/GD32VW55X_Wifi_BLE_SDK/GD32VW55x_RELEASE_V1.0.2/MSDK/wpa_supplicant/src/common\hw_features_common.c **** 
 141:C:/Users/stapi/OneDrive/Desktop/GD32VW553/V1_MQTT_OK/GD32VW55X_Wifi_BLE_SDK/GD32VW55x_RELEASE_V1.0.2/MSDK/wpa_supplicant/src/common\hw_features_common.c **** 	/* Verify that HT40 secondary channel is an allowed 20 MHz
 142:C:/Users/stapi/OneDrive/Desktop/GD32VW553/V1_MQTT_OK/GD32VW55X_Wifi_BLE_SDK/GD32VW55x_RELEASE_V1.0.2/MSDK/wpa_supplicant/src/common\hw_features_common.c **** 	 * channel */
 143:C:/Users/stapi/OneDrive/Desktop/GD32VW553/V1_MQTT_OK/GD32VW55X_Wifi_BLE_SDK/GD32VW55x_RELEASE_V1.0.2/MSDK/wpa_supplicant/src/common\hw_features_common.c **** 	if ((s_chan->flag & HOSTAPD_CHAN_DISABLED) ||
 144:C:/Users/stapi/OneDrive/Desktop/GD32VW553/V1_MQTT_OK/GD32VW55X_Wifi_BLE_SDK/GD32VW55x_RELEASE_V1.0.2/MSDK/wpa_supplicant/src/common\hw_features_common.c **** 	    (ht40_plus && !(p_chan->allowed_bw & HOSTAPD_CHAN_WIDTH_40P)) ||
 145:C:/Users/stapi/OneDrive/Desktop/GD32VW553/V1_MQTT_OK/GD32VW55X_Wifi_BLE_SDK/GD32VW55x_RELEASE_V1.0.2/MSDK/wpa_supplicant/src/common\hw_features_common.c **** 	    (!ht40_plus && !(p_chan->allowed_bw & HOSTAPD_CHAN_WIDTH_40M))) {
 146:C:/Users/stapi/OneDrive/Desktop/GD32VW553/V1_MQTT_OK/GD32VW55X_Wifi_BLE_SDK/GD32VW55x_RELEASE_V1.0.2/MSDK/wpa_supplicant/src/common\hw_features_common.c **** 		wpa_printf(MSG_ERROR, "HT40 secondary channel %d not allowed",
 147:C:/Users/stapi/OneDrive/Desktop/GD32VW553/V1_MQTT_OK/GD32VW55X_Wifi_BLE_SDK/GD32VW55x_RELEASE_V1.0.2/MSDK/wpa_supplicant/src/common\hw_features_common.c **** 			   sec_chan);
 148:C:/Users/stapi/OneDrive/Desktop/GD32VW553/V1_MQTT_OK/GD32VW55X_Wifi_BLE_SDK/GD32VW55x_RELEASE_V1.0.2/MSDK/wpa_supplicant/src/common\hw_features_common.c **** 		return 0;
 149:C:/Users/stapi/OneDrive/Desktop/GD32VW553/V1_MQTT_OK/GD32VW55X_Wifi_BLE_SDK/GD32VW55x_RELEASE_V1.0.2/MSDK/wpa_supplicant/src/common\hw_features_common.c **** 	}
 150:C:/Users/stapi/OneDrive/Desktop/GD32VW553/V1_MQTT_OK/GD32VW55X_Wifi_BLE_SDK/GD32VW55x_RELEASE_V1.0.2/MSDK/wpa_supplicant/src/common\hw_features_common.c **** 
 151:C:/Users/stapi/OneDrive/Desktop/GD32VW553/V1_MQTT_OK/GD32VW55X_Wifi_BLE_SDK/GD32VW55x_RELEASE_V1.0.2/MSDK/wpa_supplicant/src/common\hw_features_common.c **** 	/*
 152:C:/Users/stapi/OneDrive/Desktop/GD32VW553/V1_MQTT_OK/GD32VW55X_Wifi_BLE_SDK/GD32VW55x_RELEASE_V1.0.2/MSDK/wpa_supplicant/src/common\hw_features_common.c **** 	 * Verify that HT40 primary,secondary channel pair is allowed per
 153:C:/Users/stapi/OneDrive/Desktop/GD32VW553/V1_MQTT_OK/GD32VW55X_Wifi_BLE_SDK/GD32VW55x_RELEASE_V1.0.2/MSDK/wpa_supplicant/src/common\hw_features_common.c **** 	 * IEEE 802.11n Annex J. This is only needed for 5 GHz band since
 154:C:/Users/stapi/OneDrive/Desktop/GD32VW553/V1_MQTT_OK/GD32VW55X_Wifi_BLE_SDK/GD32VW55x_RELEASE_V1.0.2/MSDK/wpa_supplicant/src/common\hw_features_common.c **** 	 * 2.4 GHz rules allow all cases where the secondary channel fits into
 155:C:/Users/stapi/OneDrive/Desktop/GD32VW553/V1_MQTT_OK/GD32VW55X_Wifi_BLE_SDK/GD32VW55x_RELEASE_V1.0.2/MSDK/wpa_supplicant/src/common\hw_features_common.c **** 	 * the list of allowed channels (already checked above).
 156:C:/Users/stapi/OneDrive/Desktop/GD32VW553/V1_MQTT_OK/GD32VW55X_Wifi_BLE_SDK/GD32VW55x_RELEASE_V1.0.2/MSDK/wpa_supplicant/src/common\hw_features_common.c **** 	 */
 157:C:/Users/stapi/OneDrive/Desktop/GD32VW553/V1_MQTT_OK/GD32VW55X_Wifi_BLE_SDK/GD32VW55x_RELEASE_V1.0.2/MSDK/wpa_supplicant/src/common\hw_features_common.c **** 	if (mode != HOSTAPD_MODE_IEEE80211A)
 158:C:/Users/stapi/OneDrive/Desktop/GD32VW553/V1_MQTT_OK/GD32VW55X_Wifi_BLE_SDK/GD32VW55x_RELEASE_V1.0.2/MSDK/wpa_supplicant/src/common\hw_features_common.c **** 		return 1;
 159:C:/Users/stapi/OneDrive/Desktop/GD32VW553/V1_MQTT_OK/GD32VW55X_Wifi_BLE_SDK/GD32VW55x_RELEASE_V1.0.2/MSDK/wpa_supplicant/src/common\hw_features_common.c **** 
 160:C:/Users/stapi/OneDrive/Desktop/GD32VW553/V1_MQTT_OK/GD32VW55X_Wifi_BLE_SDK/GD32VW55x_RELEASE_V1.0.2/MSDK/wpa_supplicant/src/common\hw_features_common.c **** 	first = pri_chan < sec_chan ? pri_chan : sec_chan;
 161:C:/Users/stapi/OneDrive/Desktop/GD32VW553/V1_MQTT_OK/GD32VW55X_Wifi_BLE_SDK/GD32VW55x_RELEASE_V1.0.2/MSDK/wpa_supplicant/src/common\hw_features_common.c **** 
 162:C:/Users/stapi/OneDrive/Desktop/GD32VW553/V1_MQTT_OK/GD32VW55X_Wifi_BLE_SDK/GD32VW55x_RELEASE_V1.0.2/MSDK/wpa_supplicant/src/common\hw_features_common.c **** 	ok = 0;
 163:C:/Users/stapi/OneDrive/Desktop/GD32VW553/V1_MQTT_OK/GD32VW55X_Wifi_BLE_SDK/GD32VW55x_RELEASE_V1.0.2/MSDK/wpa_supplicant/src/common\hw_features_common.c **** 	for (k = 0; k < ARRAY_SIZE(allowed); k++) {
 164:C:/Users/stapi/OneDrive/Desktop/GD32VW553/V1_MQTT_OK/GD32VW55X_Wifi_BLE_SDK/GD32VW55x_RELEASE_V1.0.2/MSDK/wpa_supplicant/src/common\hw_features_common.c **** 		if (first == allowed[k]) {
 165:C:/Users/stapi/OneDrive/Desktop/GD32VW553/V1_MQTT_OK/GD32VW55X_Wifi_BLE_SDK/GD32VW55x_RELEASE_V1.0.2/MSDK/wpa_supplicant/src/common\hw_features_common.c **** 			ok = 1;
 166:C:/Users/stapi/OneDrive/Desktop/GD32VW553/V1_MQTT_OK/GD32VW55X_Wifi_BLE_SDK/GD32VW55x_RELEASE_V1.0.2/MSDK/wpa_supplicant/src/common\hw_features_common.c **** 			break;
 167:C:/Users/stapi/OneDrive/Desktop/GD32VW553/V1_MQTT_OK/GD32VW55X_Wifi_BLE_SDK/GD32VW55x_RELEASE_V1.0.2/MSDK/wpa_supplicant/src/common\hw_features_common.c **** 		}
 168:C:/Users/stapi/OneDrive/Desktop/GD32VW553/V1_MQTT_OK/GD32VW55X_Wifi_BLE_SDK/GD32VW55x_RELEASE_V1.0.2/MSDK/wpa_supplicant/src/common\hw_features_common.c **** 	}
 169:C:/Users/stapi/OneDrive/Desktop/GD32VW553/V1_MQTT_OK/GD32VW55X_Wifi_BLE_SDK/GD32VW55x_RELEASE_V1.0.2/MSDK/wpa_supplicant/src/common\hw_features_common.c **** 	if (!ok) {
 170:C:/Users/stapi/OneDrive/Desktop/GD32VW553/V1_MQTT_OK/GD32VW55X_Wifi_BLE_SDK/GD32VW55x_RELEASE_V1.0.2/MSDK/wpa_supplicant/src/common\hw_features_common.c **** 		wpa_printf(MSG_ERROR, "HT40 channel pair (%d, %d) not allowed",
 171:C:/Users/stapi/OneDrive/Desktop/GD32VW553/V1_MQTT_OK/GD32VW55X_Wifi_BLE_SDK/GD32VW55x_RELEASE_V1.0.2/MSDK/wpa_supplicant/src/common\hw_features_common.c **** 			   pri_chan, sec_chan);
 172:C:/Users/stapi/OneDrive/Desktop/GD32VW553/V1_MQTT_OK/GD32VW55X_Wifi_BLE_SDK/GD32VW55x_RELEASE_V1.0.2/MSDK/wpa_supplicant/src/common\hw_features_common.c **** 		return 0;
 173:C:/Users/stapi/OneDrive/Desktop/GD32VW553/V1_MQTT_OK/GD32VW55X_Wifi_BLE_SDK/GD32VW55x_RELEASE_V1.0.2/MSDK/wpa_supplicant/src/common\hw_features_common.c **** 	}
 174:C:/Users/stapi/OneDrive/Desktop/GD32VW553/V1_MQTT_OK/GD32VW55X_Wifi_BLE_SDK/GD32VW55x_RELEASE_V1.0.2/MSDK/wpa_supplicant/src/common\hw_features_common.c **** 
 175:C:/Users/stapi/OneDrive/Desktop/GD32VW553/V1_MQTT_OK/GD32VW55X_Wifi_BLE_SDK/GD32VW55x_RELEASE_V1.0.2/MSDK/wpa_supplicant/src/common\hw_features_common.c **** 	return 1;
 176:C:/Users/stapi/OneDrive/Desktop/GD32VW553/V1_MQTT_OK/GD32VW55X_Wifi_BLE_SDK/GD32VW55x_RELEASE_V1.0.2/MSDK/wpa_supplicant/src/common\hw_features_common.c **** }
 177:C:/Users/stapi/OneDrive/Desktop/GD32VW553/V1_MQTT_OK/GD32VW55X_Wifi_BLE_SDK/GD32VW55x_RELEASE_V1.0.2/MSDK/wpa_supplicant/src/common\hw_features_common.c **** 
 178:C:/Users/stapi/OneDrive/Desktop/GD32VW553/V1_MQTT_OK/GD32VW55X_Wifi_BLE_SDK/GD32VW55x_RELEASE_V1.0.2/MSDK/wpa_supplicant/src/common\hw_features_common.c **** 
 179:C:/Users/stapi/OneDrive/Desktop/GD32VW553/V1_MQTT_OK/GD32VW55X_Wifi_BLE_SDK/GD32VW55x_RELEASE_V1.0.2/MSDK/wpa_supplicant/src/common\hw_features_common.c **** void get_pri_sec_chan(struct wpa_scan_res *bss, int *pri_chan, int *sec_chan)
 180:C:/Users/stapi/OneDrive/Desktop/GD32VW553/V1_MQTT_OK/GD32VW55X_Wifi_BLE_SDK/GD32VW55x_RELEASE_V1.0.2/MSDK/wpa_supplicant/src/common\hw_features_common.c **** {
 336              		.loc 1 180 1 is_stmt 1
 337              		.cfi_startproc
 338              	.LVL29:
 339 0000 17030000 		call	t0,__riscv_save_2
 339      E7020300 
 340              		.cfi_offset 9, -12
 341              		.cfi_offset 8, -8
 342              		.cfi_offset 1, -4
 343              		.cfi_def_cfa_offset 16
 181:C:/Users/stapi/OneDrive/Desktop/GD32VW553/V1_MQTT_OK/GD32VW55X_Wifi_BLE_SDK/GD32VW55x_RELEASE_V1.0.2/MSDK/wpa_supplicant/src/common\hw_features_common.c **** 	struct ieee80211_ht_operation *oper;
 344              		.loc 1 181 2
 182:C:/Users/stapi/OneDrive/Desktop/GD32VW553/V1_MQTT_OK/GD32VW55X_Wifi_BLE_SDK/GD32VW55x_RELEASE_V1.0.2/MSDK/wpa_supplicant/src/common\hw_features_common.c **** 	struct ieee802_11_elems elems;
 345              		.loc 1 182 2
 183:C:/Users/stapi/OneDrive/Desktop/GD32VW553/V1_MQTT_OK/GD32VW55X_Wifi_BLE_SDK/GD32VW55x_RELEASE_V1.0.2/MSDK/wpa_supplicant/src/common\hw_features_common.c **** 
 184:C:/Users/stapi/OneDrive/Desktop/GD32VW553/V1_MQTT_OK/GD32VW55X_Wifi_BLE_SDK/GD32VW55x_RELEASE_V1.0.2/MSDK/wpa_supplicant/src/common\hw_features_common.c **** 	*pri_chan = *sec_chan = 0;
 346              		.loc 1 184 2
 347              		.loc 1 184 24 is_stmt 0
 348 0008 23200600 		sw	zero,0(a2)
 349              		.loc 1 184 12
 350 000c 23A00500 		sw	zero,0(a1)
 185:C:/Users/stapi/OneDrive/Desktop/GD32VW553/V1_MQTT_OK/GD32VW55X_Wifi_BLE_SDK/GD32VW55x_RELEASE_V1.0.2/MSDK/wpa_supplicant/src/common\hw_features_common.c **** 
 186:C:/Users/stapi/OneDrive/Desktop/GD32VW553/V1_MQTT_OK/GD32VW55X_Wifi_BLE_SDK/GD32VW55x_RELEASE_V1.0.2/MSDK/wpa_supplicant/src/common\hw_features_common.c **** 	ieee802_11_parse_elems((u8 *) (bss + 1), bss->ie_len, &elems, 0);
 351              		.loc 1 186 2 is_stmt 1
 180:C:/Users/stapi/OneDrive/Desktop/GD32VW553/V1_MQTT_OK/GD32VW55X_Wifi_BLE_SDK/GD32VW55x_RELEASE_V1.0.2/MSDK/wpa_supplicant/src/common\hw_features_common.c **** 	struct ieee80211_ht_operation *oper;
 352              		.loc 1 180 1 is_stmt 0
 353 0010 AE84     		mv	s1,a1
 354              		.loc 1 186 2
 355 0012 2C45     		lw	a1,72(a0)
 356              	.LVL30:
 180:C:/Users/stapi/OneDrive/Desktop/GD32VW553/V1_MQTT_OK/GD32VW55X_Wifi_BLE_SDK/GD32VW55x_RELEASE_V1.0.2/MSDK/wpa_supplicant/src/common\hw_features_common.c **** 	struct ieee80211_ht_operation *oper;
 357              		.loc 1 180 1
 358 0014 2571     		addi	sp,sp,-416
 359              		.cfi_def_cfa_offset 432
 180:C:/Users/stapi/OneDrive/Desktop/GD32VW553/V1_MQTT_OK/GD32VW55X_Wifi_BLE_SDK/GD32VW55x_RELEASE_V1.0.2/MSDK/wpa_supplicant/src/common\hw_features_common.c **** 	struct ieee80211_ht_operation *oper;
 360              		.loc 1 180 1
 361 0016 3284     		mv	s0,a2
 362              		.loc 1 186 2
 363 0018 8146     		li	a3,0
 364 001a 0A86     		mv	a2,sp
 365              	.LVL31:
 366 001c 13050505 		addi	a0,a0,80
 367              	.LVL32:
 368 0020 97000000 		call	ieee802_11_parse_elems
 368      E7800000 
 369              	.LVL33:
 187:C:/Users/stapi/OneDrive/Desktop/GD32VW553/V1_MQTT_OK/GD32VW55X_Wifi_BLE_SDK/GD32VW55x_RELEASE_V1.0.2/MSDK/wpa_supplicant/src/common\hw_features_common.c **** 	if (elems.ht_operation) {
 370              		.loc 1 187 2 is_stmt 1
 371              		.loc 1 187 11 is_stmt 0
 372 0028 1647     		lw	a4,68(sp)
 373              		.loc 1 187 5
 374 002a 19CF     		beq	a4,zero,.L41
 188:C:/Users/stapi/OneDrive/Desktop/GD32VW553/V1_MQTT_OK/GD32VW55X_Wifi_BLE_SDK/GD32VW55x_RELEASE_V1.0.2/MSDK/wpa_supplicant/src/common\hw_features_common.c **** 		oper = (struct ieee80211_ht_operation *) elems.ht_operation;
 375              		.loc 1 188 3 is_stmt 1
 376              	.LVL34:
 189:C:/Users/stapi/OneDrive/Desktop/GD32VW553/V1_MQTT_OK/GD32VW55X_Wifi_BLE_SDK/GD32VW55x_RELEASE_V1.0.2/MSDK/wpa_supplicant/src/common\hw_features_common.c **** 		*pri_chan = oper->primary_chan;
 377              		.loc 1 189 3
 378              		.loc 1 189 19 is_stmt 0
 379 002c 83470700 		lbu	a5,0(a4)
 380              		.loc 1 189 13
 381 0030 9CC0     		sw	a5,0(s1)
 190:C:/Users/stapi/OneDrive/Desktop/GD32VW553/V1_MQTT_OK/GD32VW55X_Wifi_BLE_SDK/GD32VW55x_RELEASE_V1.0.2/MSDK/wpa_supplicant/src/common\hw_features_common.c **** 		if (oper->ht_param & HT_INFO_HT_PARAM_STA_CHNL_WIDTH) {
 382              		.loc 1 190 3 is_stmt 1
 383              		.loc 1 190 11 is_stmt 0
 384 0032 03471700 		lbu	a4,1(a4)
 385              	.LVL35:
 386              		.loc 1 190 6
 387 0036 93764700 		andi	a3,a4,4
 388 003a 99C6     		beq	a3,zero,.L41
 389              	.LBB24:
 191:C:/Users/stapi/OneDrive/Desktop/GD32VW553/V1_MQTT_OK/GD32VW55X_Wifi_BLE_SDK/GD32VW55x_RELEASE_V1.0.2/MSDK/wpa_supplicant/src/common\hw_features_common.c **** 			int sec = oper->ht_param &
 390              		.loc 1 191 4 is_stmt 1
 391 003c 0D8B     		andi	a4,a4,3
 392              	.LVL36:
 192:C:/Users/stapi/OneDrive/Desktop/GD32VW553/V1_MQTT_OK/GD32VW55X_Wifi_BLE_SDK/GD32VW55x_RELEASE_V1.0.2/MSDK/wpa_supplicant/src/common\hw_features_common.c **** 				HT_INFO_HT_PARAM_SECONDARY_CHNL_OFF_MASK;
 193:C:/Users/stapi/OneDrive/Desktop/GD32VW553/V1_MQTT_OK/GD32VW55X_Wifi_BLE_SDK/GD32VW55x_RELEASE_V1.0.2/MSDK/wpa_supplicant/src/common\hw_features_common.c **** 			if (sec == HT_INFO_HT_PARAM_SECONDARY_CHNL_ABOVE)
 393              		.loc 1 193 4
 394              		.loc 1 193 7 is_stmt 0
 395 003e 8546     		li	a3,1
 396 0040 6319D700 		bne	a4,a3,.L45
 194:C:/Users/stapi/OneDrive/Desktop/GD32VW553/V1_MQTT_OK/GD32VW55X_Wifi_BLE_SDK/GD32VW55x_RELEASE_V1.0.2/MSDK/wpa_supplicant/src/common\hw_features_common.c **** 				*sec_chan = *pri_chan + 4;
 397              		.loc 1 194 5 is_stmt 1
 398              		.loc 1 194 27 is_stmt 0
 399 0044 9107     		addi	a5,a5,4
 400              	.L50:
 195:C:/Users/stapi/OneDrive/Desktop/GD32VW553/V1_MQTT_OK/GD32VW55X_Wifi_BLE_SDK/GD32VW55x_RELEASE_V1.0.2/MSDK/wpa_supplicant/src/common\hw_features_common.c **** 			else if (sec == HT_INFO_HT_PARAM_SECONDARY_CHNL_BELOW)
 196:C:/Users/stapi/OneDrive/Desktop/GD32VW553/V1_MQTT_OK/GD32VW55X_Wifi_BLE_SDK/GD32VW55x_RELEASE_V1.0.2/MSDK/wpa_supplicant/src/common\hw_features_common.c **** 				*sec_chan = *pri_chan - 4;
 401              		.loc 1 196 15
 402 0046 1CC0     		sw	a5,0(s0)
 403              	.LVL37:
 404              	.L41:
 405              	.LBE24:
 197:C:/Users/stapi/OneDrive/Desktop/GD32VW553/V1_MQTT_OK/GD32VW55X_Wifi_BLE_SDK/GD32VW55x_RELEASE_V1.0.2/MSDK/wpa_supplicant/src/common\hw_features_common.c **** 		}
 198:C:/Users/stapi/OneDrive/Desktop/GD32VW553/V1_MQTT_OK/GD32VW55X_Wifi_BLE_SDK/GD32VW55x_RELEASE_V1.0.2/MSDK/wpa_supplicant/src/common\hw_features_common.c **** 	}
 199:C:/Users/stapi/OneDrive/Desktop/GD32VW553/V1_MQTT_OK/GD32VW55X_Wifi_BLE_SDK/GD32VW55x_RELEASE_V1.0.2/MSDK/wpa_supplicant/src/common\hw_features_common.c **** }
 406              		.loc 1 199 1
 407 0048 1D61     		addi	sp,sp,416
 408              		.cfi_remember_state
 409              		.cfi_def_cfa_offset 0
 410 004a 17030000 		tail	__riscv_restore_2
 410      67000300 
 411              		.cfi_restore 9
 412              		.cfi_restore 8
 413              		.cfi_restore 1
 414              		.cfi_def_cfa_offset -16
 415              	.LVL38:
 416              	.L45:
 417              		.cfi_restore_state
 418              	.LBB25:
 195:C:/Users/stapi/OneDrive/Desktop/GD32VW553/V1_MQTT_OK/GD32VW55X_Wifi_BLE_SDK/GD32VW55x_RELEASE_V1.0.2/MSDK/wpa_supplicant/src/common\hw_features_common.c **** 			else if (sec == HT_INFO_HT_PARAM_SECONDARY_CHNL_BELOW)
 419              		.loc 1 195 9 is_stmt 1
 195:C:/Users/stapi/OneDrive/Desktop/GD32VW553/V1_MQTT_OK/GD32VW55X_Wifi_BLE_SDK/GD32VW55x_RELEASE_V1.0.2/MSDK/wpa_supplicant/src/common\hw_features_common.c **** 			else if (sec == HT_INFO_HT_PARAM_SECONDARY_CHNL_BELOW)
 420              		.loc 1 195 12 is_stmt 0
 421 0052 8D46     		li	a3,3
 422 0054 E31AD7FE 		bne	a4,a3,.L41
 196:C:/Users/stapi/OneDrive/Desktop/GD32VW553/V1_MQTT_OK/GD32VW55X_Wifi_BLE_SDK/GD32VW55x_RELEASE_V1.0.2/MSDK/wpa_supplicant/src/common\hw_features_common.c **** 		}
 423              		.loc 1 196 5 is_stmt 1
 196:C:/Users/stapi/OneDrive/Desktop/GD32VW553/V1_MQTT_OK/GD32VW55X_Wifi_BLE_SDK/GD32VW55x_RELEASE_V1.0.2/MSDK/wpa_supplicant/src/common\hw_features_common.c **** 		}
 424              		.loc 1 196 27 is_stmt 0
 425 0058 F117     		addi	a5,a5,-4
 426 005a F5B7     		j	.L50
 427              	.LBE25:
 428              		.cfi_endproc
 429              	.LFE107:
 431              		.section	.rodata.check_40mhz_5g.str1.4,"aMS",@progbits,1
 432              		.align	2
 433              	.LC1:
 434 0000 53776974 		.string	"Switch own primary and secondary channel to get secondary channel with no Beacons from ot
 434      6368206F 
 434      776E2070 
 434      72696D61 
 434      72792061 
 435 0063 00       		.align	2
 436              	.LC2:
 437 0064 53776974 		.string	"Switch own primary and secondary channel due to BSS overlap with %02x:%02x:%02x:%02x:%02x
 437      6368206F 
 437      776E2070 
 437      72696D61 
 437      72792061 
 438              		.section	.text.check_40mhz_5g,"ax",@progbits
 439              		.align	1
 440              		.globl	check_40mhz_5g
 442              	check_40mhz_5g:
 443              	.LFB108:
 200:C:/Users/stapi/OneDrive/Desktop/GD32VW553/V1_MQTT_OK/GD32VW55X_Wifi_BLE_SDK/GD32VW55x_RELEASE_V1.0.2/MSDK/wpa_supplicant/src/common\hw_features_common.c **** 
 201:C:/Users/stapi/OneDrive/Desktop/GD32VW553/V1_MQTT_OK/GD32VW55X_Wifi_BLE_SDK/GD32VW55x_RELEASE_V1.0.2/MSDK/wpa_supplicant/src/common\hw_features_common.c **** 
 202:C:/Users/stapi/OneDrive/Desktop/GD32VW553/V1_MQTT_OK/GD32VW55X_Wifi_BLE_SDK/GD32VW55x_RELEASE_V1.0.2/MSDK/wpa_supplicant/src/common\hw_features_common.c **** int check_40mhz_5g(struct wpa_scan_results *scan_res,
 203:C:/Users/stapi/OneDrive/Desktop/GD32VW553/V1_MQTT_OK/GD32VW55X_Wifi_BLE_SDK/GD32VW55x_RELEASE_V1.0.2/MSDK/wpa_supplicant/src/common\hw_features_common.c **** 		   struct hostapd_channel_data *pri_chan,
 204:C:/Users/stapi/OneDrive/Desktop/GD32VW553/V1_MQTT_OK/GD32VW55X_Wifi_BLE_SDK/GD32VW55x_RELEASE_V1.0.2/MSDK/wpa_supplicant/src/common\hw_features_common.c **** 		   struct hostapd_channel_data *sec_chan)
 205:C:/Users/stapi/OneDrive/Desktop/GD32VW553/V1_MQTT_OK/GD32VW55X_Wifi_BLE_SDK/GD32VW55x_RELEASE_V1.0.2/MSDK/wpa_supplicant/src/common\hw_features_common.c **** {
 444              		.loc 1 205 1 is_stmt 1
 445              		.cfi_startproc
 446              	.LVL39:
 206:C:/Users/stapi/OneDrive/Desktop/GD32VW553/V1_MQTT_OK/GD32VW55X_Wifi_BLE_SDK/GD32VW55x_RELEASE_V1.0.2/MSDK/wpa_supplicant/src/common\hw_features_common.c **** 	int pri_bss, sec_bss;
 447              		.loc 1 206 2
 207:C:/Users/stapi/OneDrive/Desktop/GD32VW553/V1_MQTT_OK/GD32VW55X_Wifi_BLE_SDK/GD32VW55x_RELEASE_V1.0.2/MSDK/wpa_supplicant/src/common\hw_features_common.c **** 	int bss_pri_chan, bss_sec_chan;
 448              		.loc 1 207 2
 208:C:/Users/stapi/OneDrive/Desktop/GD32VW553/V1_MQTT_OK/GD32VW55X_Wifi_BLE_SDK/GD32VW55x_RELEASE_V1.0.2/MSDK/wpa_supplicant/src/common\hw_features_common.c **** 	size_t i;
 449              		.loc 1 208 2
 209:C:/Users/stapi/OneDrive/Desktop/GD32VW553/V1_MQTT_OK/GD32VW55X_Wifi_BLE_SDK/GD32VW55x_RELEASE_V1.0.2/MSDK/wpa_supplicant/src/common\hw_features_common.c **** 	int match;
 450              		.loc 1 209 2
 210:C:/Users/stapi/OneDrive/Desktop/GD32VW553/V1_MQTT_OK/GD32VW55X_Wifi_BLE_SDK/GD32VW55x_RELEASE_V1.0.2/MSDK/wpa_supplicant/src/common\hw_features_common.c **** 
 211:C:/Users/stapi/OneDrive/Desktop/GD32VW553/V1_MQTT_OK/GD32VW55X_Wifi_BLE_SDK/GD32VW55x_RELEASE_V1.0.2/MSDK/wpa_supplicant/src/common\hw_features_common.c **** 	if (!scan_res || !pri_chan || !sec_chan ||
 451              		.loc 1 211 2
 452              		.loc 1 211 5 is_stmt 0
 453 0000 63030510 		beq	a0,zero,.L65
 205:C:/Users/stapi/OneDrive/Desktop/GD32VW553/V1_MQTT_OK/GD32VW55X_Wifi_BLE_SDK/GD32VW55x_RELEASE_V1.0.2/MSDK/wpa_supplicant/src/common\hw_features_common.c **** 	int pri_bss, sec_bss;
 454              		.loc 1 205 1 discriminator 1
 455 0004 17030000 		call	t0,__riscv_save_5
 455      E7020300 
 456              		.cfi_offset 20, -24
 457              		.cfi_offset 19, -20
 458              		.cfi_offset 18, -16
 459              		.cfi_offset 9, -12
 460              		.cfi_offset 8, -8
 461              		.cfi_offset 1, -4
 462              		.cfi_def_cfa_offset 32
 463 000c 2A84     		mv	s0,a0
 464 000e 4111     		addi	sp,sp,-16
 465              		.cfi_def_cfa_offset 48
 466 0010 2E89     		mv	s2,a1
 212:C:/Users/stapi/OneDrive/Desktop/GD32VW553/V1_MQTT_OK/GD32VW55X_Wifi_BLE_SDK/GD32VW55x_RELEASE_V1.0.2/MSDK/wpa_supplicant/src/common\hw_features_common.c **** 	    pri_chan->freq == sec_chan->freq)
 213:C:/Users/stapi/OneDrive/Desktop/GD32VW553/V1_MQTT_OK/GD32VW55X_Wifi_BLE_SDK/GD32VW55x_RELEASE_V1.0.2/MSDK/wpa_supplicant/src/common\hw_features_common.c **** 		return 0;
 467              		.loc 1 213 10 discriminator 1
 468 0012 0145     		li	a0,0
 469              	.LVL40:
 211:C:/Users/stapi/OneDrive/Desktop/GD32VW553/V1_MQTT_OK/GD32VW55X_Wifi_BLE_SDK/GD32VW55x_RELEASE_V1.0.2/MSDK/wpa_supplicant/src/common\hw_features_common.c **** 	    pri_chan->freq == sec_chan->freq)
 470              		.loc 1 211 16 discriminator 1
 471 0014 BDCD     		beq	a1,zero,.L51
 472 0016 B289     		mv	s3,a2
 211:C:/Users/stapi/OneDrive/Desktop/GD32VW553/V1_MQTT_OK/GD32VW55X_Wifi_BLE_SDK/GD32VW55x_RELEASE_V1.0.2/MSDK/wpa_supplicant/src/common\hw_features_common.c **** 	    pri_chan->freq == sec_chan->freq)
 473              		.loc 1 211 29 discriminator 2
 474 0018 2DCE     		beq	a2,zero,.L51
 212:C:/Users/stapi/OneDrive/Desktop/GD32VW553/V1_MQTT_OK/GD32VW55X_Wifi_BLE_SDK/GD32VW55x_RELEASE_V1.0.2/MSDK/wpa_supplicant/src/common\hw_features_common.c **** 	    pri_chan->freq == sec_chan->freq)
 475              		.loc 1 212 14 discriminator 3
 476 001a CC41     		lw	a1,4(a1)
 477              	.LVL41:
 212:C:/Users/stapi/OneDrive/Desktop/GD32VW553/V1_MQTT_OK/GD32VW55X_Wifi_BLE_SDK/GD32VW55x_RELEASE_V1.0.2/MSDK/wpa_supplicant/src/common\hw_features_common.c **** 	    pri_chan->freq == sec_chan->freq)
 478              		.loc 1 212 32 discriminator 3
 479 001c 03284600 		lw	a6,4(a2)
 211:C:/Users/stapi/OneDrive/Desktop/GD32VW553/V1_MQTT_OK/GD32VW55X_Wifi_BLE_SDK/GD32VW55x_RELEASE_V1.0.2/MSDK/wpa_supplicant/src/common\hw_features_common.c **** 	    pri_chan->freq == sec_chan->freq)
 480              		.loc 1 211 42 discriminator 3
 481 0020 63890507 		beq	a1,a6,.L51
 214:C:/Users/stapi/OneDrive/Desktop/GD32VW553/V1_MQTT_OK/GD32VW55X_Wifi_BLE_SDK/GD32VW55x_RELEASE_V1.0.2/MSDK/wpa_supplicant/src/common\hw_features_common.c **** 
 215:C:/Users/stapi/OneDrive/Desktop/GD32VW553/V1_MQTT_OK/GD32VW55X_Wifi_BLE_SDK/GD32VW55x_RELEASE_V1.0.2/MSDK/wpa_supplicant/src/common\hw_features_common.c **** 	/*
 216:C:/Users/stapi/OneDrive/Desktop/GD32VW553/V1_MQTT_OK/GD32VW55X_Wifi_BLE_SDK/GD32VW55x_RELEASE_V1.0.2/MSDK/wpa_supplicant/src/common\hw_features_common.c **** 	 * Switch PRI/SEC channels if Beacons were detected on selected SEC
 217:C:/Users/stapi/OneDrive/Desktop/GD32VW553/V1_MQTT_OK/GD32VW55X_Wifi_BLE_SDK/GD32VW55x_RELEASE_V1.0.2/MSDK/wpa_supplicant/src/common\hw_features_common.c **** 	 * channel, but not on selected PRI channel.
 218:C:/Users/stapi/OneDrive/Desktop/GD32VW553/V1_MQTT_OK/GD32VW55X_Wifi_BLE_SDK/GD32VW55x_RELEASE_V1.0.2/MSDK/wpa_supplicant/src/common\hw_features_common.c **** 	 */
 219:C:/Users/stapi/OneDrive/Desktop/GD32VW553/V1_MQTT_OK/GD32VW55X_Wifi_BLE_SDK/GD32VW55x_RELEASE_V1.0.2/MSDK/wpa_supplicant/src/common\hw_features_common.c **** 	pri_bss = sec_bss = 0;
 220:C:/Users/stapi/OneDrive/Desktop/GD32VW553/V1_MQTT_OK/GD32VW55X_Wifi_BLE_SDK/GD32VW55x_RELEASE_V1.0.2/MSDK/wpa_supplicant/src/common\hw_features_common.c **** 	for (i = 0; i < scan_res->num; i++) {
 482              		.loc 1 220 26
 483 0024 4840     		lw	a0,4(s0)
 484              		.loc 1 220 9
 485 0026 8147     		li	a5,0
 219:C:/Users/stapi/OneDrive/Desktop/GD32VW553/V1_MQTT_OK/GD32VW55X_Wifi_BLE_SDK/GD32VW55x_RELEASE_V1.0.2/MSDK/wpa_supplicant/src/common\hw_features_common.c **** 	for (i = 0; i < scan_res->num; i++) {
 486              		.loc 1 219 20
 487 0028 8146     		li	a3,0
 219:C:/Users/stapi/OneDrive/Desktop/GD32VW553/V1_MQTT_OK/GD32VW55X_Wifi_BLE_SDK/GD32VW55x_RELEASE_V1.0.2/MSDK/wpa_supplicant/src/common\hw_features_common.c **** 	for (i = 0; i < scan_res->num; i++) {
 488              		.loc 1 219 10
 489 002a 0147     		li	a4,0
 490              	.LVL42:
 491              	.L53:
 492              		.loc 1 220 14 is_stmt 1 discriminator 1
 493              		.loc 1 220 2 is_stmt 0 discriminator 1
 494 002c 6310F502 		bne	a0,a5,.L56
 221:C:/Users/stapi/OneDrive/Desktop/GD32VW553/V1_MQTT_OK/GD32VW55X_Wifi_BLE_SDK/GD32VW55x_RELEASE_V1.0.2/MSDK/wpa_supplicant/src/common\hw_features_common.c **** 		struct wpa_scan_res *bss = scan_res->res[i];
 222:C:/Users/stapi/OneDrive/Desktop/GD32VW553/V1_MQTT_OK/GD32VW55X_Wifi_BLE_SDK/GD32VW55x_RELEASE_V1.0.2/MSDK/wpa_supplicant/src/common\hw_features_common.c **** 		if (bss->freq == pri_chan->freq)
 223:C:/Users/stapi/OneDrive/Desktop/GD32VW553/V1_MQTT_OK/GD32VW55X_Wifi_BLE_SDK/GD32VW55x_RELEASE_V1.0.2/MSDK/wpa_supplicant/src/common\hw_features_common.c **** 			pri_bss++;
 224:C:/Users/stapi/OneDrive/Desktop/GD32VW553/V1_MQTT_OK/GD32VW55X_Wifi_BLE_SDK/GD32VW55x_RELEASE_V1.0.2/MSDK/wpa_supplicant/src/common\hw_features_common.c **** 		else if (bss->freq == sec_chan->freq)
 225:C:/Users/stapi/OneDrive/Desktop/GD32VW553/V1_MQTT_OK/GD32VW55X_Wifi_BLE_SDK/GD32VW55x_RELEASE_V1.0.2/MSDK/wpa_supplicant/src/common\hw_features_common.c **** 			sec_bss++;
 226:C:/Users/stapi/OneDrive/Desktop/GD32VW553/V1_MQTT_OK/GD32VW55X_Wifi_BLE_SDK/GD32VW55x_RELEASE_V1.0.2/MSDK/wpa_supplicant/src/common\hw_features_common.c **** 	}
 227:C:/Users/stapi/OneDrive/Desktop/GD32VW553/V1_MQTT_OK/GD32VW55X_Wifi_BLE_SDK/GD32VW55x_RELEASE_V1.0.2/MSDK/wpa_supplicant/src/common\hw_features_common.c **** 	if (sec_bss && !pri_bss) {
 495              		.loc 1 227 2 is_stmt 1
 496 0030 8144     		li	s1,0
 497              		.loc 1 227 5 is_stmt 0
 498 0032 B5C6     		beq	a3,zero,.L59
 499              		.loc 1 227 14 discriminator 1
 500 0034 2DE7     		bne	a4,zero,.L59
 228:C:/Users/stapi/OneDrive/Desktop/GD32VW553/V1_MQTT_OK/GD32VW55X_Wifi_BLE_SDK/GD32VW55x_RELEASE_V1.0.2/MSDK/wpa_supplicant/src/common\hw_features_common.c **** 		wpa_printf(MSG_INFO,
 501              		.loc 1 228 3 is_stmt 1
 502 0036 B7050000 		lui	a1,%hi(.LC1)
 503 003a 93850500 		addi	a1,a1,%lo(.LC1)
 504 003e 0D45     		li	a0,3
 505 0040 97000000 		call	wpa_printf
 505      E7800000 
 506              	.LVL43:
 229:C:/Users/stapi/OneDrive/Desktop/GD32VW553/V1_MQTT_OK/GD32VW55X_Wifi_BLE_SDK/GD32VW55x_RELEASE_V1.0.2/MSDK/wpa_supplicant/src/common\hw_features_common.c **** 			   "Switch own primary and secondary channel to get secondary channel with no Beacons from other
 230:C:/Users/stapi/OneDrive/Desktop/GD32VW553/V1_MQTT_OK/GD32VW55X_Wifi_BLE_SDK/GD32VW55x_RELEASE_V1.0.2/MSDK/wpa_supplicant/src/common\hw_features_common.c **** 		return 2;
 507              		.loc 1 230 3
 508              	.L75:
 509              	.LBB26:
 231:C:/Users/stapi/OneDrive/Desktop/GD32VW553/V1_MQTT_OK/GD32VW55X_Wifi_BLE_SDK/GD32VW55x_RELEASE_V1.0.2/MSDK/wpa_supplicant/src/common\hw_features_common.c **** 	}
 232:C:/Users/stapi/OneDrive/Desktop/GD32VW553/V1_MQTT_OK/GD32VW55X_Wifi_BLE_SDK/GD32VW55x_RELEASE_V1.0.2/MSDK/wpa_supplicant/src/common\hw_features_common.c **** 
 233:C:/Users/stapi/OneDrive/Desktop/GD32VW553/V1_MQTT_OK/GD32VW55X_Wifi_BLE_SDK/GD32VW55x_RELEASE_V1.0.2/MSDK/wpa_supplicant/src/common\hw_features_common.c **** 	/*
 234:C:/Users/stapi/OneDrive/Desktop/GD32VW553/V1_MQTT_OK/GD32VW55X_Wifi_BLE_SDK/GD32VW55x_RELEASE_V1.0.2/MSDK/wpa_supplicant/src/common\hw_features_common.c **** 	 * Match PRI/SEC channel with any existing HT40 BSS on the same
 235:C:/Users/stapi/OneDrive/Desktop/GD32VW553/V1_MQTT_OK/GD32VW55X_Wifi_BLE_SDK/GD32VW55x_RELEASE_V1.0.2/MSDK/wpa_supplicant/src/common\hw_features_common.c **** 	 * channels that we are about to use (if already mixed order in
 236:C:/Users/stapi/OneDrive/Desktop/GD32VW553/V1_MQTT_OK/GD32VW55X_Wifi_BLE_SDK/GD32VW55x_RELEASE_V1.0.2/MSDK/wpa_supplicant/src/common\hw_features_common.c **** 	 * existing BSSes, use own preference).
 237:C:/Users/stapi/OneDrive/Desktop/GD32VW553/V1_MQTT_OK/GD32VW55X_Wifi_BLE_SDK/GD32VW55x_RELEASE_V1.0.2/MSDK/wpa_supplicant/src/common\hw_features_common.c **** 	 */
 238:C:/Users/stapi/OneDrive/Desktop/GD32VW553/V1_MQTT_OK/GD32VW55X_Wifi_BLE_SDK/GD32VW55x_RELEASE_V1.0.2/MSDK/wpa_supplicant/src/common\hw_features_common.c **** 	match = 0;
 239:C:/Users/stapi/OneDrive/Desktop/GD32VW553/V1_MQTT_OK/GD32VW55X_Wifi_BLE_SDK/GD32VW55x_RELEASE_V1.0.2/MSDK/wpa_supplicant/src/common\hw_features_common.c **** 	for (i = 0; i < scan_res->num; i++) {
 240:C:/Users/stapi/OneDrive/Desktop/GD32VW553/V1_MQTT_OK/GD32VW55X_Wifi_BLE_SDK/GD32VW55x_RELEASE_V1.0.2/MSDK/wpa_supplicant/src/common\hw_features_common.c **** 		struct wpa_scan_res *bss = scan_res->res[i];
 241:C:/Users/stapi/OneDrive/Desktop/GD32VW553/V1_MQTT_OK/GD32VW55X_Wifi_BLE_SDK/GD32VW55x_RELEASE_V1.0.2/MSDK/wpa_supplicant/src/common\hw_features_common.c **** 		get_pri_sec_chan(bss, &bss_pri_chan, &bss_sec_chan);
 242:C:/Users/stapi/OneDrive/Desktop/GD32VW553/V1_MQTT_OK/GD32VW55X_Wifi_BLE_SDK/GD32VW55x_RELEASE_V1.0.2/MSDK/wpa_supplicant/src/common\hw_features_common.c **** 		if (pri_chan->chan == bss_pri_chan &&
 243:C:/Users/stapi/OneDrive/Desktop/GD32VW553/V1_MQTT_OK/GD32VW55X_Wifi_BLE_SDK/GD32VW55x_RELEASE_V1.0.2/MSDK/wpa_supplicant/src/common\hw_features_common.c **** 		    sec_chan->chan == bss_sec_chan) {
 244:C:/Users/stapi/OneDrive/Desktop/GD32VW553/V1_MQTT_OK/GD32VW55X_Wifi_BLE_SDK/GD32VW55x_RELEASE_V1.0.2/MSDK/wpa_supplicant/src/common\hw_features_common.c **** 			match = 1;
 245:C:/Users/stapi/OneDrive/Desktop/GD32VW553/V1_MQTT_OK/GD32VW55X_Wifi_BLE_SDK/GD32VW55x_RELEASE_V1.0.2/MSDK/wpa_supplicant/src/common\hw_features_common.c **** 			break;
 246:C:/Users/stapi/OneDrive/Desktop/GD32VW553/V1_MQTT_OK/GD32VW55X_Wifi_BLE_SDK/GD32VW55x_RELEASE_V1.0.2/MSDK/wpa_supplicant/src/common\hw_features_common.c **** 		}
 247:C:/Users/stapi/OneDrive/Desktop/GD32VW553/V1_MQTT_OK/GD32VW55X_Wifi_BLE_SDK/GD32VW55x_RELEASE_V1.0.2/MSDK/wpa_supplicant/src/common\hw_features_common.c **** 	}
 248:C:/Users/stapi/OneDrive/Desktop/GD32VW553/V1_MQTT_OK/GD32VW55X_Wifi_BLE_SDK/GD32VW55x_RELEASE_V1.0.2/MSDK/wpa_supplicant/src/common\hw_features_common.c **** 	if (!match) {
 249:C:/Users/stapi/OneDrive/Desktop/GD32VW553/V1_MQTT_OK/GD32VW55X_Wifi_BLE_SDK/GD32VW55x_RELEASE_V1.0.2/MSDK/wpa_supplicant/src/common\hw_features_common.c **** 		for (i = 0; i < scan_res->num; i++) {
 250:C:/Users/stapi/OneDrive/Desktop/GD32VW553/V1_MQTT_OK/GD32VW55X_Wifi_BLE_SDK/GD32VW55x_RELEASE_V1.0.2/MSDK/wpa_supplicant/src/common\hw_features_common.c **** 			struct wpa_scan_res *bss = scan_res->res[i];
 251:C:/Users/stapi/OneDrive/Desktop/GD32VW553/V1_MQTT_OK/GD32VW55X_Wifi_BLE_SDK/GD32VW55x_RELEASE_V1.0.2/MSDK/wpa_supplicant/src/common\hw_features_common.c **** 			get_pri_sec_chan(bss, &bss_pri_chan, &bss_sec_chan);
 252:C:/Users/stapi/OneDrive/Desktop/GD32VW553/V1_MQTT_OK/GD32VW55X_Wifi_BLE_SDK/GD32VW55x_RELEASE_V1.0.2/MSDK/wpa_supplicant/src/common\hw_features_common.c **** 			if (pri_chan->chan == bss_sec_chan &&
 253:C:/Users/stapi/OneDrive/Desktop/GD32VW553/V1_MQTT_OK/GD32VW55X_Wifi_BLE_SDK/GD32VW55x_RELEASE_V1.0.2/MSDK/wpa_supplicant/src/common\hw_features_common.c **** 			    sec_chan->chan == bss_pri_chan) {
 254:C:/Users/stapi/OneDrive/Desktop/GD32VW553/V1_MQTT_OK/GD32VW55X_Wifi_BLE_SDK/GD32VW55x_RELEASE_V1.0.2/MSDK/wpa_supplicant/src/common\hw_features_common.c **** 				wpa_printf(MSG_INFO, "Switch own primary and "
 255:C:/Users/stapi/OneDrive/Desktop/GD32VW553/V1_MQTT_OK/GD32VW55X_Wifi_BLE_SDK/GD32VW55x_RELEASE_V1.0.2/MSDK/wpa_supplicant/src/common\hw_features_common.c **** 					   "secondary channel due to BSS "
 256:C:/Users/stapi/OneDrive/Desktop/GD32VW553/V1_MQTT_OK/GD32VW55X_Wifi_BLE_SDK/GD32VW55x_RELEASE_V1.0.2/MSDK/wpa_supplicant/src/common\hw_features_common.c **** 					   "overlap with " MACSTR,
 257:C:/Users/stapi/OneDrive/Desktop/GD32VW553/V1_MQTT_OK/GD32VW55X_Wifi_BLE_SDK/GD32VW55x_RELEASE_V1.0.2/MSDK/wpa_supplicant/src/common\hw_features_common.c **** 					   MAC2STR(bss->bssid));
 258:C:/Users/stapi/OneDrive/Desktop/GD32VW553/V1_MQTT_OK/GD32VW55X_Wifi_BLE_SDK/GD32VW55x_RELEASE_V1.0.2/MSDK/wpa_supplicant/src/common\hw_features_common.c **** 				return 2;
 510              		.loc 1 258 5
 511              		.loc 1 258 12 is_stmt 0
 512 0048 0945     		li	a0,2
 513 004a A1A0     		j	.L51
 514              	.LVL44:
 515              	.L56:
 516              	.LBE26:
 517              	.LBB27:
 221:C:/Users/stapi/OneDrive/Desktop/GD32VW553/V1_MQTT_OK/GD32VW55X_Wifi_BLE_SDK/GD32VW55x_RELEASE_V1.0.2/MSDK/wpa_supplicant/src/common\hw_features_common.c **** 		if (bss->freq == pri_chan->freq)
 518              		.loc 1 221 3 is_stmt 1
 222:C:/Users/stapi/OneDrive/Desktop/GD32VW553/V1_MQTT_OK/GD32VW55X_Wifi_BLE_SDK/GD32VW55x_RELEASE_V1.0.2/MSDK/wpa_supplicant/src/common\hw_features_common.c **** 			pri_bss++;
 519              		.loc 1 222 3
 221:C:/Users/stapi/OneDrive/Desktop/GD32VW553/V1_MQTT_OK/GD32VW55X_Wifi_BLE_SDK/GD32VW55x_RELEASE_V1.0.2/MSDK/wpa_supplicant/src/common\hw_features_common.c **** 		if (bss->freq == pri_chan->freq)
 520              		.loc 1 221 24 is_stmt 0
 521 004c 1040     		lw	a2,0(s0)
 522 004e 33C6C720 		sh2add	a2,a5,a2
 523              	.LVL45:
 222:C:/Users/stapi/OneDrive/Desktop/GD32VW553/V1_MQTT_OK/GD32VW55X_Wifi_BLE_SDK/GD32VW55x_RELEASE_V1.0.2/MSDK/wpa_supplicant/src/common\hw_features_common.c **** 			pri_bss++;
 524              		.loc 1 222 10
 525 0052 1042     		lw	a2,0(a2)
 526              	.LVL46:
 527 0054 5046     		lw	a2,12(a2)
 528              	.LVL47:
 222:C:/Users/stapi/OneDrive/Desktop/GD32VW553/V1_MQTT_OK/GD32VW55X_Wifi_BLE_SDK/GD32VW55x_RELEASE_V1.0.2/MSDK/wpa_supplicant/src/common\hw_features_common.c **** 			pri_bss++;
 529              		.loc 1 222 6
 530 0056 6395C500 		bne	a1,a2,.L54
 223:C:/Users/stapi/OneDrive/Desktop/GD32VW553/V1_MQTT_OK/GD32VW55X_Wifi_BLE_SDK/GD32VW55x_RELEASE_V1.0.2/MSDK/wpa_supplicant/src/common\hw_features_common.c **** 		else if (bss->freq == sec_chan->freq)
 531              		.loc 1 223 4 is_stmt 1
 223:C:/Users/stapi/OneDrive/Desktop/GD32VW553/V1_MQTT_OK/GD32VW55X_Wifi_BLE_SDK/GD32VW55x_RELEASE_V1.0.2/MSDK/wpa_supplicant/src/common\hw_features_common.c **** 		else if (bss->freq == sec_chan->freq)
 532              		.loc 1 223 11 is_stmt 0
 533 005a 0507     		addi	a4,a4,1
 534              	.LVL48:
 535              	.L55:
 536              	.LBE27:
 220:C:/Users/stapi/OneDrive/Desktop/GD32VW553/V1_MQTT_OK/GD32VW55X_Wifi_BLE_SDK/GD32VW55x_RELEASE_V1.0.2/MSDK/wpa_supplicant/src/common\hw_features_common.c **** 		struct wpa_scan_res *bss = scan_res->res[i];
 537              		.loc 1 220 33 is_stmt 1 discriminator 2
 220:C:/Users/stapi/OneDrive/Desktop/GD32VW553/V1_MQTT_OK/GD32VW55X_Wifi_BLE_SDK/GD32VW55x_RELEASE_V1.0.2/MSDK/wpa_supplicant/src/common\hw_features_common.c **** 		struct wpa_scan_res *bss = scan_res->res[i];
 538              		.loc 1 220 34 is_stmt 0 discriminator 2
 539 005c 8507     		addi	a5,a5,1
 540              	.LVL49:
 541 005e F9B7     		j	.L53
 542              	.LVL50:
 543              	.L54:
 544              	.LBB28:
 224:C:/Users/stapi/OneDrive/Desktop/GD32VW553/V1_MQTT_OK/GD32VW55X_Wifi_BLE_SDK/GD32VW55x_RELEASE_V1.0.2/MSDK/wpa_supplicant/src/common\hw_features_common.c **** 			sec_bss++;
 545              		.loc 1 224 8 is_stmt 1
 224:C:/Users/stapi/OneDrive/Desktop/GD32VW553/V1_MQTT_OK/GD32VW55X_Wifi_BLE_SDK/GD32VW55x_RELEASE_V1.0.2/MSDK/wpa_supplicant/src/common\hw_features_common.c **** 			sec_bss++;
 546              		.loc 1 224 11 is_stmt 0
 547 0060 E31EC8FE 		bne	a6,a2,.L55
 225:C:/Users/stapi/OneDrive/Desktop/GD32VW553/V1_MQTT_OK/GD32VW55X_Wifi_BLE_SDK/GD32VW55x_RELEASE_V1.0.2/MSDK/wpa_supplicant/src/common\hw_features_common.c **** 	}
 548              		.loc 1 225 4 is_stmt 1
 225:C:/Users/stapi/OneDrive/Desktop/GD32VW553/V1_MQTT_OK/GD32VW55X_Wifi_BLE_SDK/GD32VW55x_RELEASE_V1.0.2/MSDK/wpa_supplicant/src/common\hw_features_common.c **** 	}
 549              		.loc 1 225 11 is_stmt 0
 550 0064 8506     		addi	a3,a3,1
 551              	.LVL51:
 552 0066 DDBF     		j	.L55
 553              	.LVL52:
 554              	.L60:
 555              	.LBE28:
 556              	.LBB29:
 240:C:/Users/stapi/OneDrive/Desktop/GD32VW553/V1_MQTT_OK/GD32VW55X_Wifi_BLE_SDK/GD32VW55x_RELEASE_V1.0.2/MSDK/wpa_supplicant/src/common\hw_features_common.c **** 		get_pri_sec_chan(bss, &bss_pri_chan, &bss_sec_chan);
 557              		.loc 1 240 3 is_stmt 1
 241:C:/Users/stapi/OneDrive/Desktop/GD32VW553/V1_MQTT_OK/GD32VW55X_Wifi_BLE_SDK/GD32VW55x_RELEASE_V1.0.2/MSDK/wpa_supplicant/src/common\hw_features_common.c **** 		if (pri_chan->chan == bss_pri_chan &&
 558              		.loc 1 241 3
 240:C:/Users/stapi/OneDrive/Desktop/GD32VW553/V1_MQTT_OK/GD32VW55X_Wifi_BLE_SDK/GD32VW55x_RELEASE_V1.0.2/MSDK/wpa_supplicant/src/common\hw_features_common.c **** 		get_pri_sec_chan(bss, &bss_pri_chan, &bss_sec_chan);
 559              		.loc 1 240 24 is_stmt 0
 560 0068 1C40     		lw	a5,0(s0)
 241:C:/Users/stapi/OneDrive/Desktop/GD32VW553/V1_MQTT_OK/GD32VW55X_Wifi_BLE_SDK/GD32VW55x_RELEASE_V1.0.2/MSDK/wpa_supplicant/src/common\hw_features_common.c **** 		if (pri_chan->chan == bss_pri_chan &&
 561              		.loc 1 241 3
 562 006a 7000     		addi	a2,sp,12
 563 006c 2C00     		addi	a1,sp,8
 240:C:/Users/stapi/OneDrive/Desktop/GD32VW553/V1_MQTT_OK/GD32VW55X_Wifi_BLE_SDK/GD32VW55x_RELEASE_V1.0.2/MSDK/wpa_supplicant/src/common\hw_features_common.c **** 		get_pri_sec_chan(bss, &bss_pri_chan, &bss_sec_chan);
 564              		.loc 1 240 24
 565 006e B3C7F420 		sh2add	a5,s1,a5
 566              	.LVL53:
 241:C:/Users/stapi/OneDrive/Desktop/GD32VW553/V1_MQTT_OK/GD32VW55X_Wifi_BLE_SDK/GD32VW55x_RELEASE_V1.0.2/MSDK/wpa_supplicant/src/common\hw_features_common.c **** 		if (pri_chan->chan == bss_pri_chan &&
 567              		.loc 1 241 3
 568 0072 8843     		lw	a0,0(a5)
 569 0074 97000000 		call	get_pri_sec_chan
 569      E7800000 
 570              	.LVL54:
 242:C:/Users/stapi/OneDrive/Desktop/GD32VW553/V1_MQTT_OK/GD32VW55X_Wifi_BLE_SDK/GD32VW55x_RELEASE_V1.0.2/MSDK/wpa_supplicant/src/common\hw_features_common.c **** 		    sec_chan->chan == bss_sec_chan) {
 571              		.loc 1 242 3 is_stmt 1
 242:C:/Users/stapi/OneDrive/Desktop/GD32VW553/V1_MQTT_OK/GD32VW55X_Wifi_BLE_SDK/GD32VW55x_RELEASE_V1.0.2/MSDK/wpa_supplicant/src/common\hw_features_common.c **** 		    sec_chan->chan == bss_sec_chan) {
 572              		.loc 1 242 6 is_stmt 0
 573 007c A247     		lw	a5,8(sp)
 242:C:/Users/stapi/OneDrive/Desktop/GD32VW553/V1_MQTT_OK/GD32VW55X_Wifi_BLE_SDK/GD32VW55x_RELEASE_V1.0.2/MSDK/wpa_supplicant/src/common\hw_features_common.c **** 		    sec_chan->chan == bss_sec_chan) {
 574              		.loc 1 242 15
 575 007e 03170900 		lh	a4,0(s2)
 242:C:/Users/stapi/OneDrive/Desktop/GD32VW553/V1_MQTT_OK/GD32VW55X_Wifi_BLE_SDK/GD32VW55x_RELEASE_V1.0.2/MSDK/wpa_supplicant/src/common\hw_features_common.c **** 		    sec_chan->chan == bss_sec_chan) {
 576              		.loc 1 242 6
 577 0082 631DF700 		bne	a4,a5,.L58
 242:C:/Users/stapi/OneDrive/Desktop/GD32VW553/V1_MQTT_OK/GD32VW55X_Wifi_BLE_SDK/GD32VW55x_RELEASE_V1.0.2/MSDK/wpa_supplicant/src/common\hw_features_common.c **** 		    sec_chan->chan == bss_sec_chan) {
 578              		.loc 1 242 38 discriminator 1
 579 0086 B247     		lw	a5,12(sp)
 243:C:/Users/stapi/OneDrive/Desktop/GD32VW553/V1_MQTT_OK/GD32VW55X_Wifi_BLE_SDK/GD32VW55x_RELEASE_V1.0.2/MSDK/wpa_supplicant/src/common\hw_features_common.c **** 			match = 1;
 580              		.loc 1 243 15 discriminator 1
 581 0088 03970900 		lh	a4,0(s3)
 242:C:/Users/stapi/OneDrive/Desktop/GD32VW553/V1_MQTT_OK/GD32VW55X_Wifi_BLE_SDK/GD32VW55x_RELEASE_V1.0.2/MSDK/wpa_supplicant/src/common\hw_features_common.c **** 		    sec_chan->chan == bss_sec_chan) {
 582              		.loc 1 242 38 discriminator 1
 583 008c 6318F700 		bne	a4,a5,.L58
 584              	.LVL55:
 585              	.L64:
 586              	.LBE29:
 259:C:/Users/stapi/OneDrive/Desktop/GD32VW553/V1_MQTT_OK/GD32VW55X_Wifi_BLE_SDK/GD32VW55x_RELEASE_V1.0.2/MSDK/wpa_supplicant/src/common\hw_features_common.c **** 			}
 260:C:/Users/stapi/OneDrive/Desktop/GD32VW553/V1_MQTT_OK/GD32VW55X_Wifi_BLE_SDK/GD32VW55x_RELEASE_V1.0.2/MSDK/wpa_supplicant/src/common\hw_features_common.c **** 		}
 261:C:/Users/stapi/OneDrive/Desktop/GD32VW553/V1_MQTT_OK/GD32VW55X_Wifi_BLE_SDK/GD32VW55x_RELEASE_V1.0.2/MSDK/wpa_supplicant/src/common\hw_features_common.c **** 	}
 262:C:/Users/stapi/OneDrive/Desktop/GD32VW553/V1_MQTT_OK/GD32VW55X_Wifi_BLE_SDK/GD32VW55x_RELEASE_V1.0.2/MSDK/wpa_supplicant/src/common\hw_features_common.c **** 
 263:C:/Users/stapi/OneDrive/Desktop/GD32VW553/V1_MQTT_OK/GD32VW55X_Wifi_BLE_SDK/GD32VW55x_RELEASE_V1.0.2/MSDK/wpa_supplicant/src/common\hw_features_common.c **** 	return 1;
 587              		.loc 1 263 9
 588 0090 0545     		li	a0,1
 589              	.LVL56:
 590              	.L51:
 264:C:/Users/stapi/OneDrive/Desktop/GD32VW553/V1_MQTT_OK/GD32VW55X_Wifi_BLE_SDK/GD32VW55x_RELEASE_V1.0.2/MSDK/wpa_supplicant/src/common\hw_features_common.c **** }
 591              		.loc 1 264 1
 592 0092 4101     		addi	sp,sp,16
 593              		.cfi_remember_state
 594              		.cfi_def_cfa_offset 0
 595 0094 17030000 		tail	__riscv_restore_5
 595      67000300 
 596              		.cfi_restore 20
 597              		.cfi_restore 19
 598              		.cfi_restore 18
 599              		.cfi_restore 9
 600              		.cfi_restore 8
 601              		.cfi_restore 1
 602              		.cfi_def_cfa_offset -32
 603              	.LVL57:
 604              	.L58:
 605              		.cfi_restore_state
 239:C:/Users/stapi/OneDrive/Desktop/GD32VW553/V1_MQTT_OK/GD32VW55X_Wifi_BLE_SDK/GD32VW55x_RELEASE_V1.0.2/MSDK/wpa_supplicant/src/common\hw_features_common.c **** 		struct wpa_scan_res *bss = scan_res->res[i];
 606              		.loc 1 239 33 is_stmt 1 discriminator 2
 239:C:/Users/stapi/OneDrive/Desktop/GD32VW553/V1_MQTT_OK/GD32VW55X_Wifi_BLE_SDK/GD32VW55x_RELEASE_V1.0.2/MSDK/wpa_supplicant/src/common\hw_features_common.c **** 		struct wpa_scan_res *bss = scan_res->res[i];
 607              		.loc 1 239 34 is_stmt 0 discriminator 2
 608 009c 8504     		addi	s1,s1,1
 609              	.LVL58:
 610              	.L59:
 239:C:/Users/stapi/OneDrive/Desktop/GD32VW553/V1_MQTT_OK/GD32VW55X_Wifi_BLE_SDK/GD32VW55x_RELEASE_V1.0.2/MSDK/wpa_supplicant/src/common\hw_features_common.c **** 		struct wpa_scan_res *bss = scan_res->res[i];
 611              		.loc 1 239 14 is_stmt 1 discriminator 1
 239:C:/Users/stapi/OneDrive/Desktop/GD32VW553/V1_MQTT_OK/GD32VW55X_Wifi_BLE_SDK/GD32VW55x_RELEASE_V1.0.2/MSDK/wpa_supplicant/src/common\hw_features_common.c **** 		struct wpa_scan_res *bss = scan_res->res[i];
 612              		.loc 1 239 2 is_stmt 0 discriminator 1
 613 009e 5C40     		lw	a5,4(s0)
 614 00a0 E3E4F4FC 		bgtu	a5,s1,.L60
 615 00a4 014A     		li	s4,0
 616              	.LVL59:
 617              	.L61:
 249:C:/Users/stapi/OneDrive/Desktop/GD32VW553/V1_MQTT_OK/GD32VW55X_Wifi_BLE_SDK/GD32VW55x_RELEASE_V1.0.2/MSDK/wpa_supplicant/src/common\hw_features_common.c **** 			struct wpa_scan_res *bss = scan_res->res[i];
 618              		.loc 1 249 15 is_stmt 1 discriminator 1
 249:C:/Users/stapi/OneDrive/Desktop/GD32VW553/V1_MQTT_OK/GD32VW55X_Wifi_BLE_SDK/GD32VW55x_RELEASE_V1.0.2/MSDK/wpa_supplicant/src/common\hw_features_common.c **** 			struct wpa_scan_res *bss = scan_res->res[i];
 619              		.loc 1 249 3 is_stmt 0 discriminator 1
 620 00a6 5C40     		lw	a5,4(s0)
 621 00a8 E374FAFE 		bleu	a5,s4,.L64
 622              	.LBB30:
 250:C:/Users/stapi/OneDrive/Desktop/GD32VW553/V1_MQTT_OK/GD32VW55X_Wifi_BLE_SDK/GD32VW55x_RELEASE_V1.0.2/MSDK/wpa_supplicant/src/common\hw_features_common.c **** 			get_pri_sec_chan(bss, &bss_pri_chan, &bss_sec_chan);
 623              		.loc 1 250 4 is_stmt 1
 250:C:/Users/stapi/OneDrive/Desktop/GD32VW553/V1_MQTT_OK/GD32VW55X_Wifi_BLE_SDK/GD32VW55x_RELEASE_V1.0.2/MSDK/wpa_supplicant/src/common\hw_features_common.c **** 			get_pri_sec_chan(bss, &bss_pri_chan, &bss_sec_chan);
 624              		.loc 1 250 25 is_stmt 0
 625 00ac 1C40     		lw	a5,0(s0)
 251:C:/Users/stapi/OneDrive/Desktop/GD32VW553/V1_MQTT_OK/GD32VW55X_Wifi_BLE_SDK/GD32VW55x_RELEASE_V1.0.2/MSDK/wpa_supplicant/src/common\hw_features_common.c **** 			if (pri_chan->chan == bss_sec_chan &&
 626              		.loc 1 251 4
 627 00ae 7000     		addi	a2,sp,12
 628 00b0 2C00     		addi	a1,sp,8
 250:C:/Users/stapi/OneDrive/Desktop/GD32VW553/V1_MQTT_OK/GD32VW55X_Wifi_BLE_SDK/GD32VW55x_RELEASE_V1.0.2/MSDK/wpa_supplicant/src/common\hw_features_common.c **** 			get_pri_sec_chan(bss, &bss_pri_chan, &bss_sec_chan);
 629              		.loc 1 250 25
 630 00b2 B347FA20 		sh2add	a5,s4,a5
 631 00b6 8443     		lw	s1,0(a5)
 632              	.LVL60:
 251:C:/Users/stapi/OneDrive/Desktop/GD32VW553/V1_MQTT_OK/GD32VW55X_Wifi_BLE_SDK/GD32VW55x_RELEASE_V1.0.2/MSDK/wpa_supplicant/src/common\hw_features_common.c **** 			if (pri_chan->chan == bss_sec_chan &&
 633              		.loc 1 251 4 is_stmt 1
 634 00b8 2685     		mv	a0,s1
 635 00ba 97000000 		call	get_pri_sec_chan
 635      E7800000 
 636              	.LVL61:
 252:C:/Users/stapi/OneDrive/Desktop/GD32VW553/V1_MQTT_OK/GD32VW55X_Wifi_BLE_SDK/GD32VW55x_RELEASE_V1.0.2/MSDK/wpa_supplicant/src/common\hw_features_common.c **** 			    sec_chan->chan == bss_pri_chan) {
 637              		.loc 1 252 4
 252:C:/Users/stapi/OneDrive/Desktop/GD32VW553/V1_MQTT_OK/GD32VW55X_Wifi_BLE_SDK/GD32VW55x_RELEASE_V1.0.2/MSDK/wpa_supplicant/src/common\hw_features_common.c **** 			    sec_chan->chan == bss_pri_chan) {
 638              		.loc 1 252 7 is_stmt 0
 639 00c2 B247     		lw	a5,12(sp)
 252:C:/Users/stapi/OneDrive/Desktop/GD32VW553/V1_MQTT_OK/GD32VW55X_Wifi_BLE_SDK/GD32VW55x_RELEASE_V1.0.2/MSDK/wpa_supplicant/src/common\hw_features_common.c **** 			    sec_chan->chan == bss_pri_chan) {
 640              		.loc 1 252 16
 641 00c4 03170900 		lh	a4,0(s2)
 252:C:/Users/stapi/OneDrive/Desktop/GD32VW553/V1_MQTT_OK/GD32VW55X_Wifi_BLE_SDK/GD32VW55x_RELEASE_V1.0.2/MSDK/wpa_supplicant/src/common\hw_features_common.c **** 			    sec_chan->chan == bss_pri_chan) {
 642              		.loc 1 252 7
 643 00c8 631DF702 		bne	a4,a5,.L62
 252:C:/Users/stapi/OneDrive/Desktop/GD32VW553/V1_MQTT_OK/GD32VW55X_Wifi_BLE_SDK/GD32VW55x_RELEASE_V1.0.2/MSDK/wpa_supplicant/src/common\hw_features_common.c **** 			    sec_chan->chan == bss_pri_chan) {
 644              		.loc 1 252 39 discriminator 1
 645 00cc A247     		lw	a5,8(sp)
 253:C:/Users/stapi/OneDrive/Desktop/GD32VW553/V1_MQTT_OK/GD32VW55X_Wifi_BLE_SDK/GD32VW55x_RELEASE_V1.0.2/MSDK/wpa_supplicant/src/common\hw_features_common.c **** 				wpa_printf(MSG_INFO, "Switch own primary and "
 646              		.loc 1 253 16 discriminator 1
 647 00ce 03970900 		lh	a4,0(s3)
 252:C:/Users/stapi/OneDrive/Desktop/GD32VW553/V1_MQTT_OK/GD32VW55X_Wifi_BLE_SDK/GD32VW55x_RELEASE_V1.0.2/MSDK/wpa_supplicant/src/common\hw_features_common.c **** 			    sec_chan->chan == bss_pri_chan) {
 648              		.loc 1 252 39 discriminator 1
 649 00d2 6318F702 		bne	a4,a5,.L62
 254:C:/Users/stapi/OneDrive/Desktop/GD32VW553/V1_MQTT_OK/GD32VW55X_Wifi_BLE_SDK/GD32VW55x_RELEASE_V1.0.2/MSDK/wpa_supplicant/src/common\hw_features_common.c **** 					   "secondary channel due to BSS "
 650              		.loc 1 254 5 is_stmt 1
 651 00d6 83C89400 		lbu	a7,9(s1)
 652 00da 03C88400 		lbu	a6,8(s1)
 653 00de 83C77400 		lbu	a5,7(s1)
 654 00e2 03C76400 		lbu	a4,6(s1)
 655 00e6 83C65400 		lbu	a3,5(s1)
 656 00ea 03C64400 		lbu	a2,4(s1)
 657 00ee B7050000 		lui	a1,%hi(.LC2)
 658 00f2 93850500 		addi	a1,a1,%lo(.LC2)
 659 00f6 0D45     		li	a0,3
 660 00f8 97000000 		call	wpa_printf
 660      E7800000 
 661              	.LVL62:
 662 0100 A1B7     		j	.L75
 663              	.L62:
 664              	.LBE30:
 249:C:/Users/stapi/OneDrive/Desktop/GD32VW553/V1_MQTT_OK/GD32VW55X_Wifi_BLE_SDK/GD32VW55x_RELEASE_V1.0.2/MSDK/wpa_supplicant/src/common\hw_features_common.c **** 			struct wpa_scan_res *bss = scan_res->res[i];
 665              		.loc 1 249 34 discriminator 2
 249:C:/Users/stapi/OneDrive/Desktop/GD32VW553/V1_MQTT_OK/GD32VW55X_Wifi_BLE_SDK/GD32VW55x_RELEASE_V1.0.2/MSDK/wpa_supplicant/src/common\hw_features_common.c **** 			struct wpa_scan_res *bss = scan_res->res[i];
 666              		.loc 1 249 35 is_stmt 0 discriminator 2
 667 0102 050A     		addi	s4,s4,1
 668              	.LVL63:
 669 0104 4DB7     		j	.L61
 670              	.LVL64:
 671              	.L65:
 672              		.cfi_def_cfa_offset 0
 673              		.cfi_restore 1
 674              		.cfi_restore 8
 675              		.cfi_restore 9
 676              		.cfi_restore 18
 677              		.cfi_restore 19
 678              		.cfi_restore 20
 213:C:/Users/stapi/OneDrive/Desktop/GD32VW553/V1_MQTT_OK/GD32VW55X_Wifi_BLE_SDK/GD32VW55x_RELEASE_V1.0.2/MSDK/wpa_supplicant/src/common\hw_features_common.c **** 
 679              		.loc 1 213 10
 680 0106 0145     		li	a0,0
 681              	.LVL65:
 682              		.loc 1 264 1
 683 0108 8280     		ret
 684              		.cfi_endproc
 685              	.LFE108:
 687              		.section	.rodata.check_40mhz_2g4.str1.4,"aMS",@progbits,1
 688              		.align	2
 689              	.LC3:
 690 0000 3430204D 		.string	"40 MHz affected channel range: [%d,%d] MHz"
 690      487A2061 
 690      66666563 
 690      74656420 
 690      6368616E 
 691 002b 00       		.align	2
 692              	.LC4:
 693 002c 466F756E 		.string	"Found overlapping legacy BSS: %02x:%02x:%02x:%02x:%02x:%02x freq=%d"
 693      64206F76 
 693      65726C61 
 693      7070696E 
 693      67206C65 
 694              		.align	2
 695              	.LC5:
 696 0070 466F756E 		.string	"Found overlapping 20 MHz HT BSS: %02x:%02x:%02x:%02x:%02x:%02x freq=%d"
 696      64206F76 
 696      65726C61 
 696      7070696E 
 696      67203230 
 697 00b7 00       		.align	2
 698              	.LC6:
 699 00b8 4F766572 		.string	"Overlapping 20 MHz BSS is found"
 699      6C617070 
 699      696E6720 
 699      3230204D 
 699      487A2042 
 700              		.align	2
 701              	.LC7:
 702 00d8 4E656967 		.string	"Neighboring BSS: %02x:%02x:%02x:%02x:%02x:%02x freq=%d pri=%d sec=%d"
 702      68626F72 
 702      696E6720 
 702      4253533A 
 702      20253032 
 703 011d 000000   		.align	2
 704              	.LC8:
 705 0120 3430204D 		.string	"40 MHz pri/sec mismatch with BSS %02x:%02x:%02x:%02x:%02x:%02x <%d,%d> (chan=%d%c) vs. <%
 705      487A2070 
 705      72692F73 
 705      6563206D 
 705      69736D61 
 706 017f 00       		.align	2
 707              	.LC9:
 708 0180 3430204D 		.string	"40 MHz Intolerant is set on channel %d in BSS %02x:%02x:%02x:%02x:%02x:%02x"
 708      487A2049 
 708      6E746F6C 
 708      6572616E 
 708      74206973 
 709              		.section	.text.check_40mhz_2g4,"ax",@progbits
 710              		.align	1
 711              		.globl	check_40mhz_2g4
 713              	check_40mhz_2g4:
 714              	.LFB110:
 265:C:/Users/stapi/OneDrive/Desktop/GD32VW553/V1_MQTT_OK/GD32VW55X_Wifi_BLE_SDK/GD32VW55x_RELEASE_V1.0.2/MSDK/wpa_supplicant/src/common\hw_features_common.c **** 
 266:C:/Users/stapi/OneDrive/Desktop/GD32VW553/V1_MQTT_OK/GD32VW55X_Wifi_BLE_SDK/GD32VW55x_RELEASE_V1.0.2/MSDK/wpa_supplicant/src/common\hw_features_common.c **** 
 267:C:/Users/stapi/OneDrive/Desktop/GD32VW553/V1_MQTT_OK/GD32VW55X_Wifi_BLE_SDK/GD32VW55x_RELEASE_V1.0.2/MSDK/wpa_supplicant/src/common\hw_features_common.c **** static int check_20mhz_bss(struct wpa_scan_res *bss, int pri_freq, int start,
 268:C:/Users/stapi/OneDrive/Desktop/GD32VW553/V1_MQTT_OK/GD32VW55X_Wifi_BLE_SDK/GD32VW55x_RELEASE_V1.0.2/MSDK/wpa_supplicant/src/common\hw_features_common.c **** 			   int end)
 269:C:/Users/stapi/OneDrive/Desktop/GD32VW553/V1_MQTT_OK/GD32VW55X_Wifi_BLE_SDK/GD32VW55x_RELEASE_V1.0.2/MSDK/wpa_supplicant/src/common\hw_features_common.c **** {
 270:C:/Users/stapi/OneDrive/Desktop/GD32VW553/V1_MQTT_OK/GD32VW55X_Wifi_BLE_SDK/GD32VW55x_RELEASE_V1.0.2/MSDK/wpa_supplicant/src/common\hw_features_common.c **** 	struct ieee802_11_elems elems;
 271:C:/Users/stapi/OneDrive/Desktop/GD32VW553/V1_MQTT_OK/GD32VW55X_Wifi_BLE_SDK/GD32VW55x_RELEASE_V1.0.2/MSDK/wpa_supplicant/src/common\hw_features_common.c **** 	struct ieee80211_ht_operation *oper;
 272:C:/Users/stapi/OneDrive/Desktop/GD32VW553/V1_MQTT_OK/GD32VW55X_Wifi_BLE_SDK/GD32VW55x_RELEASE_V1.0.2/MSDK/wpa_supplicant/src/common\hw_features_common.c **** 
 273:C:/Users/stapi/OneDrive/Desktop/GD32VW553/V1_MQTT_OK/GD32VW55X_Wifi_BLE_SDK/GD32VW55x_RELEASE_V1.0.2/MSDK/wpa_supplicant/src/common\hw_features_common.c **** 	if (bss->freq < start || bss->freq > end || bss->freq == pri_freq)
 274:C:/Users/stapi/OneDrive/Desktop/GD32VW553/V1_MQTT_OK/GD32VW55X_Wifi_BLE_SDK/GD32VW55x_RELEASE_V1.0.2/MSDK/wpa_supplicant/src/common\hw_features_common.c **** 		return 0;
 275:C:/Users/stapi/OneDrive/Desktop/GD32VW553/V1_MQTT_OK/GD32VW55X_Wifi_BLE_SDK/GD32VW55x_RELEASE_V1.0.2/MSDK/wpa_supplicant/src/common\hw_features_common.c **** 
 276:C:/Users/stapi/OneDrive/Desktop/GD32VW553/V1_MQTT_OK/GD32VW55X_Wifi_BLE_SDK/GD32VW55x_RELEASE_V1.0.2/MSDK/wpa_supplicant/src/common\hw_features_common.c **** 	ieee802_11_parse_elems((u8 *) (bss + 1), bss->ie_len, &elems, 0);
 277:C:/Users/stapi/OneDrive/Desktop/GD32VW553/V1_MQTT_OK/GD32VW55X_Wifi_BLE_SDK/GD32VW55x_RELEASE_V1.0.2/MSDK/wpa_supplicant/src/common\hw_features_common.c **** 	if (!elems.ht_capabilities) {
 278:C:/Users/stapi/OneDrive/Desktop/GD32VW553/V1_MQTT_OK/GD32VW55X_Wifi_BLE_SDK/GD32VW55x_RELEASE_V1.0.2/MSDK/wpa_supplicant/src/common\hw_features_common.c **** 		wpa_printf(MSG_DEBUG, "Found overlapping legacy BSS: "
 279:C:/Users/stapi/OneDrive/Desktop/GD32VW553/V1_MQTT_OK/GD32VW55X_Wifi_BLE_SDK/GD32VW55x_RELEASE_V1.0.2/MSDK/wpa_supplicant/src/common\hw_features_common.c **** 			   MACSTR " freq=%d", MAC2STR(bss->bssid), bss->freq);
 280:C:/Users/stapi/OneDrive/Desktop/GD32VW553/V1_MQTT_OK/GD32VW55X_Wifi_BLE_SDK/GD32VW55x_RELEASE_V1.0.2/MSDK/wpa_supplicant/src/common\hw_features_common.c **** 		return 1;
 281:C:/Users/stapi/OneDrive/Desktop/GD32VW553/V1_MQTT_OK/GD32VW55X_Wifi_BLE_SDK/GD32VW55x_RELEASE_V1.0.2/MSDK/wpa_supplicant/src/common\hw_features_common.c **** 	}
 282:C:/Users/stapi/OneDrive/Desktop/GD32VW553/V1_MQTT_OK/GD32VW55X_Wifi_BLE_SDK/GD32VW55x_RELEASE_V1.0.2/MSDK/wpa_supplicant/src/common\hw_features_common.c **** 
 283:C:/Users/stapi/OneDrive/Desktop/GD32VW553/V1_MQTT_OK/GD32VW55X_Wifi_BLE_SDK/GD32VW55x_RELEASE_V1.0.2/MSDK/wpa_supplicant/src/common\hw_features_common.c **** 	if (elems.ht_operation) {
 284:C:/Users/stapi/OneDrive/Desktop/GD32VW553/V1_MQTT_OK/GD32VW55X_Wifi_BLE_SDK/GD32VW55x_RELEASE_V1.0.2/MSDK/wpa_supplicant/src/common\hw_features_common.c **** 		oper = (struct ieee80211_ht_operation *) elems.ht_operation;
 285:C:/Users/stapi/OneDrive/Desktop/GD32VW553/V1_MQTT_OK/GD32VW55X_Wifi_BLE_SDK/GD32VW55x_RELEASE_V1.0.2/MSDK/wpa_supplicant/src/common\hw_features_common.c **** 		if (oper->ht_param & HT_INFO_HT_PARAM_SECONDARY_CHNL_OFF_MASK)
 286:C:/Users/stapi/OneDrive/Desktop/GD32VW553/V1_MQTT_OK/GD32VW55X_Wifi_BLE_SDK/GD32VW55x_RELEASE_V1.0.2/MSDK/wpa_supplicant/src/common\hw_features_common.c **** 			return 0;
 287:C:/Users/stapi/OneDrive/Desktop/GD32VW553/V1_MQTT_OK/GD32VW55X_Wifi_BLE_SDK/GD32VW55x_RELEASE_V1.0.2/MSDK/wpa_supplicant/src/common\hw_features_common.c **** 
 288:C:/Users/stapi/OneDrive/Desktop/GD32VW553/V1_MQTT_OK/GD32VW55X_Wifi_BLE_SDK/GD32VW55x_RELEASE_V1.0.2/MSDK/wpa_supplicant/src/common\hw_features_common.c **** 		wpa_printf(MSG_DEBUG, "Found overlapping 20 MHz HT BSS: "
 289:C:/Users/stapi/OneDrive/Desktop/GD32VW553/V1_MQTT_OK/GD32VW55X_Wifi_BLE_SDK/GD32VW55x_RELEASE_V1.0.2/MSDK/wpa_supplicant/src/common\hw_features_common.c **** 			   MACSTR " freq=%d", MAC2STR(bss->bssid), bss->freq);
 290:C:/Users/stapi/OneDrive/Desktop/GD32VW553/V1_MQTT_OK/GD32VW55X_Wifi_BLE_SDK/GD32VW55x_RELEASE_V1.0.2/MSDK/wpa_supplicant/src/common\hw_features_common.c **** 		return 1;
 291:C:/Users/stapi/OneDrive/Desktop/GD32VW553/V1_MQTT_OK/GD32VW55X_Wifi_BLE_SDK/GD32VW55x_RELEASE_V1.0.2/MSDK/wpa_supplicant/src/common\hw_features_common.c **** 	}
 292:C:/Users/stapi/OneDrive/Desktop/GD32VW553/V1_MQTT_OK/GD32VW55X_Wifi_BLE_SDK/GD32VW55x_RELEASE_V1.0.2/MSDK/wpa_supplicant/src/common\hw_features_common.c **** 	return 0;
 293:C:/Users/stapi/OneDrive/Desktop/GD32VW553/V1_MQTT_OK/GD32VW55X_Wifi_BLE_SDK/GD32VW55x_RELEASE_V1.0.2/MSDK/wpa_supplicant/src/common\hw_features_common.c **** }
 294:C:/Users/stapi/OneDrive/Desktop/GD32VW553/V1_MQTT_OK/GD32VW55X_Wifi_BLE_SDK/GD32VW55x_RELEASE_V1.0.2/MSDK/wpa_supplicant/src/common\hw_features_common.c **** 
 295:C:/Users/stapi/OneDrive/Desktop/GD32VW553/V1_MQTT_OK/GD32VW55X_Wifi_BLE_SDK/GD32VW55x_RELEASE_V1.0.2/MSDK/wpa_supplicant/src/common\hw_features_common.c **** 
 296:C:/Users/stapi/OneDrive/Desktop/GD32VW553/V1_MQTT_OK/GD32VW55X_Wifi_BLE_SDK/GD32VW55x_RELEASE_V1.0.2/MSDK/wpa_supplicant/src/common\hw_features_common.c **** int check_40mhz_2g4(struct hostapd_hw_modes *mode,
 297:C:/Users/stapi/OneDrive/Desktop/GD32VW553/V1_MQTT_OK/GD32VW55X_Wifi_BLE_SDK/GD32VW55x_RELEASE_V1.0.2/MSDK/wpa_supplicant/src/common\hw_features_common.c **** 		    struct wpa_scan_results *scan_res, int pri_chan,
 298:C:/Users/stapi/OneDrive/Desktop/GD32VW553/V1_MQTT_OK/GD32VW55X_Wifi_BLE_SDK/GD32VW55x_RELEASE_V1.0.2/MSDK/wpa_supplicant/src/common\hw_features_common.c **** 		    int sec_chan)
 299:C:/Users/stapi/OneDrive/Desktop/GD32VW553/V1_MQTT_OK/GD32VW55X_Wifi_BLE_SDK/GD32VW55x_RELEASE_V1.0.2/MSDK/wpa_supplicant/src/common\hw_features_common.c **** {
 715              		.loc 1 299 1 is_stmt 1
 716              		.cfi_startproc
 717              	.LVL66:
 718 0000 17030000 		call	t0,__riscv_save_11
 718      E7020300 
 719              		.cfi_offset 26, -48
 720              		.cfi_offset 25, -44
 721              		.cfi_offset 24, -40
 722              		.cfi_offset 23, -36
 723              		.cfi_offset 22, -32
 724              		.cfi_offset 21, -28
 725              		.cfi_offset 20, -24
 726              		.cfi_offset 19, -20
 727              		.cfi_offset 18, -16
 728              		.cfi_offset 9, -12
 729              		.cfi_offset 8, -8
 730              		.cfi_offset 1, -4
 731              		.cfi_def_cfa_offset 48
 300:C:/Users/stapi/OneDrive/Desktop/GD32VW553/V1_MQTT_OK/GD32VW55X_Wifi_BLE_SDK/GD32VW55x_RELEASE_V1.0.2/MSDK/wpa_supplicant/src/common\hw_features_common.c **** 	int pri_freq, sec_freq;
 732              		.loc 1 300 2
 301:C:/Users/stapi/OneDrive/Desktop/GD32VW553/V1_MQTT_OK/GD32VW55X_Wifi_BLE_SDK/GD32VW55x_RELEASE_V1.0.2/MSDK/wpa_supplicant/src/common\hw_features_common.c **** 	int affected_start, affected_end;
 733              		.loc 1 301 2
 302:C:/Users/stapi/OneDrive/Desktop/GD32VW553/V1_MQTT_OK/GD32VW55X_Wifi_BLE_SDK/GD32VW55x_RELEASE_V1.0.2/MSDK/wpa_supplicant/src/common\hw_features_common.c **** 	size_t i;
 734              		.loc 1 302 2
 303:C:/Users/stapi/OneDrive/Desktop/GD32VW553/V1_MQTT_OK/GD32VW55X_Wifi_BLE_SDK/GD32VW55x_RELEASE_V1.0.2/MSDK/wpa_supplicant/src/common\hw_features_common.c **** 
 304:C:/Users/stapi/OneDrive/Desktop/GD32VW553/V1_MQTT_OK/GD32VW55X_Wifi_BLE_SDK/GD32VW55x_RELEASE_V1.0.2/MSDK/wpa_supplicant/src/common\hw_features_common.c **** 	if (!mode || !scan_res || !pri_chan || !sec_chan ||
 735              		.loc 1 304 2
 299:C:/Users/stapi/OneDrive/Desktop/GD32VW553/V1_MQTT_OK/GD32VW55X_Wifi_BLE_SDK/GD32VW55x_RELEASE_V1.0.2/MSDK/wpa_supplicant/src/common\hw_features_common.c **** 	int pri_freq, sec_freq;
 736              		.loc 1 299 1 is_stmt 0
 737 0008 4571     		addi	sp,sp,-464
 738              		.cfi_def_cfa_offset 512
 299:C:/Users/stapi/OneDrive/Desktop/GD32VW553/V1_MQTT_OK/GD32VW55X_Wifi_BLE_SDK/GD32VW55x_RELEASE_V1.0.2/MSDK/wpa_supplicant/src/common\hw_features_common.c **** 	int pri_freq, sec_freq;
 739              		.loc 1 299 1
 740 000a 32D6     		sw	a2,44(sp)
 741 000c 36D4     		sw	a3,40(sp)
 742              		.loc 1 304 5
 743 000e 7DCD     		beq	a0,zero,.L99
 744 0010 AE8B     		mv	s7,a1
 305:C:/Users/stapi/OneDrive/Desktop/GD32VW553/V1_MQTT_OK/GD32VW55X_Wifi_BLE_SDK/GD32VW55x_RELEASE_V1.0.2/MSDK/wpa_supplicant/src/common\hw_features_common.c **** 	    pri_chan == sec_chan)
 306:C:/Users/stapi/OneDrive/Desktop/GD32VW553/V1_MQTT_OK/GD32VW55X_Wifi_BLE_SDK/GD32VW55x_RELEASE_V1.0.2/MSDK/wpa_supplicant/src/common\hw_features_common.c **** 		return 0;
 745              		.loc 1 306 10 discriminator 1
 746 0012 8145     		li	a1,0
 747              	.LVL67:
 304:C:/Users/stapi/OneDrive/Desktop/GD32VW553/V1_MQTT_OK/GD32VW55X_Wifi_BLE_SDK/GD32VW55x_RELEASE_V1.0.2/MSDK/wpa_supplicant/src/common\hw_features_common.c **** 	    pri_chan == sec_chan)
 748              		.loc 1 304 12 discriminator 1
 749 0014 63800B06 		beq	s7,zero,.L76
 304:C:/Users/stapi/OneDrive/Desktop/GD32VW553/V1_MQTT_OK/GD32VW55X_Wifi_BLE_SDK/GD32VW55x_RELEASE_V1.0.2/MSDK/wpa_supplicant/src/common\hw_features_common.c **** 	    pri_chan == sec_chan)
 750              		.loc 1 304 28 discriminator 2
 751 0018 B285     		mv	a1,a2
 304:C:/Users/stapi/OneDrive/Desktop/GD32VW553/V1_MQTT_OK/GD32VW55X_Wifi_BLE_SDK/GD32VW55x_RELEASE_V1.0.2/MSDK/wpa_supplicant/src/common\hw_features_common.c **** 	    pri_chan == sec_chan)
 752              		.loc 1 304 25 discriminator 2
 753 001a 29CE     		beq	a2,zero,.L76
 304:C:/Users/stapi/OneDrive/Desktop/GD32VW553/V1_MQTT_OK/GD32VW55X_Wifi_BLE_SDK/GD32VW55x_RELEASE_V1.0.2/MSDK/wpa_supplicant/src/common\hw_features_common.c **** 	    pri_chan == sec_chan)
 754              		.loc 1 304 38 discriminator 3
 755 001c E5CA     		beq	a3,zero,.L99
 304:C:/Users/stapi/OneDrive/Desktop/GD32VW553/V1_MQTT_OK/GD32VW55X_Wifi_BLE_SDK/GD32VW55x_RELEASE_V1.0.2/MSDK/wpa_supplicant/src/common\hw_features_common.c **** 	    pri_chan == sec_chan)
 756              		.loc 1 304 51 discriminator 4
 757 001e 6307D60E 		beq	a2,a3,.L99
 758 0022 2A84     		mv	s0,a0
 307:C:/Users/stapi/OneDrive/Desktop/GD32VW553/V1_MQTT_OK/GD32VW55X_Wifi_BLE_SDK/GD32VW55x_RELEASE_V1.0.2/MSDK/wpa_supplicant/src/common\hw_features_common.c **** 
 308:C:/Users/stapi/OneDrive/Desktop/GD32VW553/V1_MQTT_OK/GD32VW55X_Wifi_BLE_SDK/GD32VW55x_RELEASE_V1.0.2/MSDK/wpa_supplicant/src/common\hw_features_common.c **** 	pri_freq = hw_get_freq(mode, pri_chan);
 759              		.loc 1 308 2 is_stmt 1
 760              		.loc 1 308 13 is_stmt 0
 761 0024 97000000 		call	hw_get_freq
 761      E7800000 
 762              	.LVL68:
 309:C:/Users/stapi/OneDrive/Desktop/GD32VW553/V1_MQTT_OK/GD32VW55X_Wifi_BLE_SDK/GD32VW55x_RELEASE_V1.0.2/MSDK/wpa_supplicant/src/common\hw_features_common.c **** 	sec_freq = hw_get_freq(mode, sec_chan);
 763              		.loc 1 309 13
 764 002c A255     		lw	a1,40(sp)
 308:C:/Users/stapi/OneDrive/Desktop/GD32VW553/V1_MQTT_OK/GD32VW55X_Wifi_BLE_SDK/GD32VW55x_RELEASE_V1.0.2/MSDK/wpa_supplicant/src/common\hw_features_common.c **** 	sec_freq = hw_get_freq(mode, sec_chan);
 765              		.loc 1 308 13
 766 002e 2A8A     		mv	s4,a0
 767              	.LVL69:
 768              		.loc 1 309 2 is_stmt 1
 769              		.loc 1 309 13 is_stmt 0
 770 0030 2285     		mv	a0,s0
 771              	.LVL70:
 772 0032 97000000 		call	hw_get_freq
 772      E7800000 
 773              	.LVL71:
 310:C:/Users/stapi/OneDrive/Desktop/GD32VW553/V1_MQTT_OK/GD32VW55X_Wifi_BLE_SDK/GD32VW55x_RELEASE_V1.0.2/MSDK/wpa_supplicant/src/common\hw_features_common.c **** 
 311:C:/Users/stapi/OneDrive/Desktop/GD32VW553/V1_MQTT_OK/GD32VW55X_Wifi_BLE_SDK/GD32VW55x_RELEASE_V1.0.2/MSDK/wpa_supplicant/src/common\hw_features_common.c **** 	affected_start = (pri_freq + sec_freq) / 2 - 25;
 774              		.loc 1 311 29
 775 003a 3309AA00 		add	s2,s4,a0
 776              		.loc 1 311 41
 777 003e 8947     		li	a5,2
 778 0040 3349F902 		div	s2,s2,a5
 312:C:/Users/stapi/OneDrive/Desktop/GD32VW553/V1_MQTT_OK/GD32VW55X_Wifi_BLE_SDK/GD32VW55x_RELEASE_V1.0.2/MSDK/wpa_supplicant/src/common\hw_features_common.c **** 	affected_end = (pri_freq + sec_freq) / 2 + 25;
 313:C:/Users/stapi/OneDrive/Desktop/GD32VW553/V1_MQTT_OK/GD32VW55X_Wifi_BLE_SDK/GD32VW55x_RELEASE_V1.0.2/MSDK/wpa_supplicant/src/common\hw_features_common.c **** 	wpa_printf(MSG_DEBUG, "40 MHz affected channel range: [%d,%d] MHz",
 779              		.loc 1 313 2
 780 0044 B7050000 		lui	a1,%hi(.LC3)
 309:C:/Users/stapi/OneDrive/Desktop/GD32VW553/V1_MQTT_OK/GD32VW55X_Wifi_BLE_SDK/GD32VW55x_RELEASE_V1.0.2/MSDK/wpa_supplicant/src/common\hw_features_common.c **** 
 781              		.loc 1 309 13
 782 0048 AA8A     		mv	s5,a0
 783              	.LVL72:
 311:C:/Users/stapi/OneDrive/Desktop/GD32VW553/V1_MQTT_OK/GD32VW55X_Wifi_BLE_SDK/GD32VW55x_RELEASE_V1.0.2/MSDK/wpa_supplicant/src/common\hw_features_common.c **** 	affected_end = (pri_freq + sec_freq) / 2 + 25;
 784              		.loc 1 311 2 is_stmt 1
 785              		.loc 1 313 2 is_stmt 0
 786 004a 93850500 		addi	a1,a1,%lo(.LC3)
 787 004e 0945     		li	a0,2
 788              	.LVL73:
 314:C:/Users/stapi/OneDrive/Desktop/GD32VW553/V1_MQTT_OK/GD32VW55X_Wifi_BLE_SDK/GD32VW55x_RELEASE_V1.0.2/MSDK/wpa_supplicant/src/common\hw_features_common.c **** 		   affected_start, affected_end);
 315:C:/Users/stapi/OneDrive/Desktop/GD32VW553/V1_MQTT_OK/GD32VW55X_Wifi_BLE_SDK/GD32VW55x_RELEASE_V1.0.2/MSDK/wpa_supplicant/src/common\hw_features_common.c **** 	for (i = 0; i < scan_res->num; i++) {
 789              		.loc 1 315 9
 790 0050 014C     		li	s8,0
 791              	.LBB35:
 316:C:/Users/stapi/OneDrive/Desktop/GD32VW553/V1_MQTT_OK/GD32VW55X_Wifi_BLE_SDK/GD32VW55x_RELEASE_V1.0.2/MSDK/wpa_supplicant/src/common\hw_features_common.c **** 		struct wpa_scan_res *bss = scan_res->res[i];
 317:C:/Users/stapi/OneDrive/Desktop/GD32VW553/V1_MQTT_OK/GD32VW55X_Wifi_BLE_SDK/GD32VW55x_RELEASE_V1.0.2/MSDK/wpa_supplicant/src/common\hw_features_common.c **** 		int pri = bss->freq;
 318:C:/Users/stapi/OneDrive/Desktop/GD32VW553/V1_MQTT_OK/GD32VW55X_Wifi_BLE_SDK/GD32VW55x_RELEASE_V1.0.2/MSDK/wpa_supplicant/src/common\hw_features_common.c **** 		int sec = pri;
 319:C:/Users/stapi/OneDrive/Desktop/GD32VW553/V1_MQTT_OK/GD32VW55X_Wifi_BLE_SDK/GD32VW55x_RELEASE_V1.0.2/MSDK/wpa_supplicant/src/common\hw_features_common.c **** 		struct ieee802_11_elems elems;
 320:C:/Users/stapi/OneDrive/Desktop/GD32VW553/V1_MQTT_OK/GD32VW55X_Wifi_BLE_SDK/GD32VW55x_RELEASE_V1.0.2/MSDK/wpa_supplicant/src/common\hw_features_common.c **** 
 321:C:/Users/stapi/OneDrive/Desktop/GD32VW553/V1_MQTT_OK/GD32VW55X_Wifi_BLE_SDK/GD32VW55x_RELEASE_V1.0.2/MSDK/wpa_supplicant/src/common\hw_features_common.c **** 		/* Check for overlapping 20 MHz BSS */
 322:C:/Users/stapi/OneDrive/Desktop/GD32VW553/V1_MQTT_OK/GD32VW55X_Wifi_BLE_SDK/GD32VW55x_RELEASE_V1.0.2/MSDK/wpa_supplicant/src/common\hw_features_common.c **** 		if (check_20mhz_bss(bss, pri_freq, affected_start,
 323:C:/Users/stapi/OneDrive/Desktop/GD32VW553/V1_MQTT_OK/GD32VW55X_Wifi_BLE_SDK/GD32VW55x_RELEASE_V1.0.2/MSDK/wpa_supplicant/src/common\hw_features_common.c **** 				    affected_end)) {
 324:C:/Users/stapi/OneDrive/Desktop/GD32VW553/V1_MQTT_OK/GD32VW55X_Wifi_BLE_SDK/GD32VW55x_RELEASE_V1.0.2/MSDK/wpa_supplicant/src/common\hw_features_common.c **** 			wpa_printf(MSG_DEBUG,
 325:C:/Users/stapi/OneDrive/Desktop/GD32VW553/V1_MQTT_OK/GD32VW55X_Wifi_BLE_SDK/GD32VW55x_RELEASE_V1.0.2/MSDK/wpa_supplicant/src/common\hw_features_common.c **** 				   "Overlapping 20 MHz BSS is found");
 326:C:/Users/stapi/OneDrive/Desktop/GD32VW553/V1_MQTT_OK/GD32VW55X_Wifi_BLE_SDK/GD32VW55x_RELEASE_V1.0.2/MSDK/wpa_supplicant/src/common\hw_features_common.c **** 			return 0;
 327:C:/Users/stapi/OneDrive/Desktop/GD32VW553/V1_MQTT_OK/GD32VW55X_Wifi_BLE_SDK/GD32VW55x_RELEASE_V1.0.2/MSDK/wpa_supplicant/src/common\hw_features_common.c **** 		}
 328:C:/Users/stapi/OneDrive/Desktop/GD32VW553/V1_MQTT_OK/GD32VW55X_Wifi_BLE_SDK/GD32VW55x_RELEASE_V1.0.2/MSDK/wpa_supplicant/src/common\hw_features_common.c **** 
 329:C:/Users/stapi/OneDrive/Desktop/GD32VW553/V1_MQTT_OK/GD32VW55X_Wifi_BLE_SDK/GD32VW55x_RELEASE_V1.0.2/MSDK/wpa_supplicant/src/common\hw_features_common.c **** 		get_pri_sec_chan(bss, &pri_chan, &sec_chan);
 330:C:/Users/stapi/OneDrive/Desktop/GD32VW553/V1_MQTT_OK/GD32VW55X_Wifi_BLE_SDK/GD32VW55x_RELEASE_V1.0.2/MSDK/wpa_supplicant/src/common\hw_features_common.c **** 
 331:C:/Users/stapi/OneDrive/Desktop/GD32VW553/V1_MQTT_OK/GD32VW55X_Wifi_BLE_SDK/GD32VW55x_RELEASE_V1.0.2/MSDK/wpa_supplicant/src/common\hw_features_common.c **** 		if (sec_chan) {
 332:C:/Users/stapi/OneDrive/Desktop/GD32VW553/V1_MQTT_OK/GD32VW55X_Wifi_BLE_SDK/GD32VW55x_RELEASE_V1.0.2/MSDK/wpa_supplicant/src/common\hw_features_common.c **** 			if (sec_chan < pri_chan)
 333:C:/Users/stapi/OneDrive/Desktop/GD32VW553/V1_MQTT_OK/GD32VW55X_Wifi_BLE_SDK/GD32VW55x_RELEASE_V1.0.2/MSDK/wpa_supplicant/src/common\hw_features_common.c **** 				sec = pri - 20;
 334:C:/Users/stapi/OneDrive/Desktop/GD32VW553/V1_MQTT_OK/GD32VW55X_Wifi_BLE_SDK/GD32VW55x_RELEASE_V1.0.2/MSDK/wpa_supplicant/src/common\hw_features_common.c **** 			else
 335:C:/Users/stapi/OneDrive/Desktop/GD32VW553/V1_MQTT_OK/GD32VW55X_Wifi_BLE_SDK/GD32VW55x_RELEASE_V1.0.2/MSDK/wpa_supplicant/src/common\hw_features_common.c **** 				sec = pri + 20;
 336:C:/Users/stapi/OneDrive/Desktop/GD32VW553/V1_MQTT_OK/GD32VW55X_Wifi_BLE_SDK/GD32VW55x_RELEASE_V1.0.2/MSDK/wpa_supplicant/src/common\hw_features_common.c **** 		}
 337:C:/Users/stapi/OneDrive/Desktop/GD32VW553/V1_MQTT_OK/GD32VW55X_Wifi_BLE_SDK/GD32VW55x_RELEASE_V1.0.2/MSDK/wpa_supplicant/src/common\hw_features_common.c **** 
 338:C:/Users/stapi/OneDrive/Desktop/GD32VW553/V1_MQTT_OK/GD32VW55X_Wifi_BLE_SDK/GD32VW55x_RELEASE_V1.0.2/MSDK/wpa_supplicant/src/common\hw_features_common.c **** 		if ((pri < affected_start || pri > affected_end) &&
 339:C:/Users/stapi/OneDrive/Desktop/GD32VW553/V1_MQTT_OK/GD32VW55X_Wifi_BLE_SDK/GD32VW55x_RELEASE_V1.0.2/MSDK/wpa_supplicant/src/common\hw_features_common.c **** 		    (sec < affected_start || sec > affected_end))
 340:C:/Users/stapi/OneDrive/Desktop/GD32VW553/V1_MQTT_OK/GD32VW55X_Wifi_BLE_SDK/GD32VW55x_RELEASE_V1.0.2/MSDK/wpa_supplicant/src/common\hw_features_common.c **** 			continue; /* not within affected channel range */
 341:C:/Users/stapi/OneDrive/Desktop/GD32VW553/V1_MQTT_OK/GD32VW55X_Wifi_BLE_SDK/GD32VW55x_RELEASE_V1.0.2/MSDK/wpa_supplicant/src/common\hw_features_common.c **** 
 342:C:/Users/stapi/OneDrive/Desktop/GD32VW553/V1_MQTT_OK/GD32VW55X_Wifi_BLE_SDK/GD32VW55x_RELEASE_V1.0.2/MSDK/wpa_supplicant/src/common\hw_features_common.c **** 		wpa_printf(MSG_DEBUG, "Neighboring BSS: " MACSTR
 792              		.loc 1 342 3
 793 0052 B70C0000 		lui	s9,%hi(.LC7)
 794              	.LBB36:
 343:C:/Users/stapi/OneDrive/Desktop/GD32VW553/V1_MQTT_OK/GD32VW55X_Wifi_BLE_SDK/GD32VW55x_RELEASE_V1.0.2/MSDK/wpa_supplicant/src/common\hw_features_common.c **** 			   " freq=%d pri=%d sec=%d",
 344:C:/Users/stapi/OneDrive/Desktop/GD32VW553/V1_MQTT_OK/GD32VW55X_Wifi_BLE_SDK/GD32VW55x_RELEASE_V1.0.2/MSDK/wpa_supplicant/src/common\hw_features_common.c **** 			   MAC2STR(bss->bssid), bss->freq, pri_chan, sec_chan);
 345:C:/Users/stapi/OneDrive/Desktop/GD32VW553/V1_MQTT_OK/GD32VW55X_Wifi_BLE_SDK/GD32VW55x_RELEASE_V1.0.2/MSDK/wpa_supplicant/src/common\hw_features_common.c **** 
 346:C:/Users/stapi/OneDrive/Desktop/GD32VW553/V1_MQTT_OK/GD32VW55X_Wifi_BLE_SDK/GD32VW55x_RELEASE_V1.0.2/MSDK/wpa_supplicant/src/common\hw_features_common.c **** 		if (sec_chan) {
 347:C:/Users/stapi/OneDrive/Desktop/GD32VW553/V1_MQTT_OK/GD32VW55X_Wifi_BLE_SDK/GD32VW55x_RELEASE_V1.0.2/MSDK/wpa_supplicant/src/common\hw_features_common.c **** 			if (pri_freq != pri || sec_freq != sec) {
 348:C:/Users/stapi/OneDrive/Desktop/GD32VW553/V1_MQTT_OK/GD32VW55X_Wifi_BLE_SDK/GD32VW55x_RELEASE_V1.0.2/MSDK/wpa_supplicant/src/common\hw_features_common.c **** 				wpa_printf(MSG_DEBUG,
 349:C:/Users/stapi/OneDrive/Desktop/GD32VW553/V1_MQTT_OK/GD32VW55X_Wifi_BLE_SDK/GD32VW55x_RELEASE_V1.0.2/MSDK/wpa_supplicant/src/common\hw_features_common.c **** 					   "40 MHz pri/sec mismatch with BSS "
 350:C:/Users/stapi/OneDrive/Desktop/GD32VW553/V1_MQTT_OK/GD32VW55X_Wifi_BLE_SDK/GD32VW55x_RELEASE_V1.0.2/MSDK/wpa_supplicant/src/common\hw_features_common.c **** 					   MACSTR
 351:C:/Users/stapi/OneDrive/Desktop/GD32VW553/V1_MQTT_OK/GD32VW55X_Wifi_BLE_SDK/GD32VW55x_RELEASE_V1.0.2/MSDK/wpa_supplicant/src/common\hw_features_common.c **** 					   " <%d,%d> (chan=%d%c) vs. <%d,%d>",
 352:C:/Users/stapi/OneDrive/Desktop/GD32VW553/V1_MQTT_OK/GD32VW55X_Wifi_BLE_SDK/GD32VW55x_RELEASE_V1.0.2/MSDK/wpa_supplicant/src/common\hw_features_common.c **** 					   MAC2STR(bss->bssid),
 353:C:/Users/stapi/OneDrive/Desktop/GD32VW553/V1_MQTT_OK/GD32VW55X_Wifi_BLE_SDK/GD32VW55x_RELEASE_V1.0.2/MSDK/wpa_supplicant/src/common\hw_features_common.c **** 					   pri, sec, pri_chan,
 354:C:/Users/stapi/OneDrive/Desktop/GD32VW553/V1_MQTT_OK/GD32VW55X_Wifi_BLE_SDK/GD32VW55x_RELEASE_V1.0.2/MSDK/wpa_supplicant/src/common\hw_features_common.c **** 					   sec > pri ? '+' : '-',
 355:C:/Users/stapi/OneDrive/Desktop/GD32VW553/V1_MQTT_OK/GD32VW55X_Wifi_BLE_SDK/GD32VW55x_RELEASE_V1.0.2/MSDK/wpa_supplicant/src/common\hw_features_common.c **** 					   pri_freq, sec_freq);
 356:C:/Users/stapi/OneDrive/Desktop/GD32VW553/V1_MQTT_OK/GD32VW55X_Wifi_BLE_SDK/GD32VW55x_RELEASE_V1.0.2/MSDK/wpa_supplicant/src/common\hw_features_common.c **** 				return 0;
 357:C:/Users/stapi/OneDrive/Desktop/GD32VW553/V1_MQTT_OK/GD32VW55X_Wifi_BLE_SDK/GD32VW55x_RELEASE_V1.0.2/MSDK/wpa_supplicant/src/common\hw_features_common.c **** 			}
 358:C:/Users/stapi/OneDrive/Desktop/GD32VW553/V1_MQTT_OK/GD32VW55X_Wifi_BLE_SDK/GD32VW55x_RELEASE_V1.0.2/MSDK/wpa_supplicant/src/common\hw_features_common.c **** 		}
 359:C:/Users/stapi/OneDrive/Desktop/GD32VW553/V1_MQTT_OK/GD32VW55X_Wifi_BLE_SDK/GD32VW55x_RELEASE_V1.0.2/MSDK/wpa_supplicant/src/common\hw_features_common.c **** 
 360:C:/Users/stapi/OneDrive/Desktop/GD32VW553/V1_MQTT_OK/GD32VW55X_Wifi_BLE_SDK/GD32VW55x_RELEASE_V1.0.2/MSDK/wpa_supplicant/src/common\hw_features_common.c **** 		ieee802_11_parse_elems((u8 *) (bss + 1), bss->ie_len, &elems,
 361:C:/Users/stapi/OneDrive/Desktop/GD32VW553/V1_MQTT_OK/GD32VW55X_Wifi_BLE_SDK/GD32VW55x_RELEASE_V1.0.2/MSDK/wpa_supplicant/src/common\hw_features_common.c **** 				       0);
 362:C:/Users/stapi/OneDrive/Desktop/GD32VW553/V1_MQTT_OK/GD32VW55X_Wifi_BLE_SDK/GD32VW55x_RELEASE_V1.0.2/MSDK/wpa_supplicant/src/common\hw_features_common.c **** 		if (elems.ht_capabilities) {
 363:C:/Users/stapi/OneDrive/Desktop/GD32VW553/V1_MQTT_OK/GD32VW55X_Wifi_BLE_SDK/GD32VW55x_RELEASE_V1.0.2/MSDK/wpa_supplicant/src/common\hw_features_common.c **** 			struct ieee80211_ht_capabilities *ht_cap =
 364:C:/Users/stapi/OneDrive/Desktop/GD32VW553/V1_MQTT_OK/GD32VW55X_Wifi_BLE_SDK/GD32VW55x_RELEASE_V1.0.2/MSDK/wpa_supplicant/src/common\hw_features_common.c **** 				(struct ieee80211_ht_capabilities *)
 365:C:/Users/stapi/OneDrive/Desktop/GD32VW553/V1_MQTT_OK/GD32VW55X_Wifi_BLE_SDK/GD32VW55x_RELEASE_V1.0.2/MSDK/wpa_supplicant/src/common\hw_features_common.c **** 				elems.ht_capabilities;
 366:C:/Users/stapi/OneDrive/Desktop/GD32VW553/V1_MQTT_OK/GD32VW55X_Wifi_BLE_SDK/GD32VW55x_RELEASE_V1.0.2/MSDK/wpa_supplicant/src/common\hw_features_common.c **** 
 367:C:/Users/stapi/OneDrive/Desktop/GD32VW553/V1_MQTT_OK/GD32VW55X_Wifi_BLE_SDK/GD32VW55x_RELEASE_V1.0.2/MSDK/wpa_supplicant/src/common\hw_features_common.c **** 			if (le_to_host16(ht_cap->ht_capabilities_info) &
 795              		.loc 1 367 7
 796 0056 116D     		li	s10,16384
 797              	.LBE36:
 798              	.LBE35:
 311:C:/Users/stapi/OneDrive/Desktop/GD32VW553/V1_MQTT_OK/GD32VW55X_Wifi_BLE_SDK/GD32VW55x_RELEASE_V1.0.2/MSDK/wpa_supplicant/src/common\hw_features_common.c **** 	affected_end = (pri_freq + sec_freq) / 2 + 25;
 799              		.loc 1 311 17
 800 0058 130B79FE 		addi	s6,s2,-25
 801              	.LVL74:
 312:C:/Users/stapi/OneDrive/Desktop/GD32VW553/V1_MQTT_OK/GD32VW55X_Wifi_BLE_SDK/GD32VW55x_RELEASE_V1.0.2/MSDK/wpa_supplicant/src/common\hw_features_common.c **** 	wpa_printf(MSG_DEBUG, "40 MHz affected channel range: [%d,%d] MHz",
 802              		.loc 1 312 2 is_stmt 1
 312:C:/Users/stapi/OneDrive/Desktop/GD32VW553/V1_MQTT_OK/GD32VW55X_Wifi_BLE_SDK/GD32VW55x_RELEASE_V1.0.2/MSDK/wpa_supplicant/src/common\hw_features_common.c **** 	wpa_printf(MSG_DEBUG, "40 MHz affected channel range: [%d,%d] MHz",
 803              		.loc 1 312 15 is_stmt 0
 804 005c 6509     		addi	s2,s2,25
 805              	.LVL75:
 313:C:/Users/stapi/OneDrive/Desktop/GD32VW553/V1_MQTT_OK/GD32VW55X_Wifi_BLE_SDK/GD32VW55x_RELEASE_V1.0.2/MSDK/wpa_supplicant/src/common\hw_features_common.c **** 		   affected_start, affected_end);
 806              		.loc 1 313 2 is_stmt 1
 807 005e CA86     		mv	a3,s2
 808 0060 5A86     		mv	a2,s6
 809 0062 97000000 		call	wpa_printf
 809      E7800000 
 810              	.LVL76:
 315:C:/Users/stapi/OneDrive/Desktop/GD32VW553/V1_MQTT_OK/GD32VW55X_Wifi_BLE_SDK/GD32VW55x_RELEASE_V1.0.2/MSDK/wpa_supplicant/src/common\hw_features_common.c **** 		struct wpa_scan_res *bss = scan_res->res[i];
 811              		.loc 1 315 2
 812              	.L78:
 315:C:/Users/stapi/OneDrive/Desktop/GD32VW553/V1_MQTT_OK/GD32VW55X_Wifi_BLE_SDK/GD32VW55x_RELEASE_V1.0.2/MSDK/wpa_supplicant/src/common\hw_features_common.c **** 		struct wpa_scan_res *bss = scan_res->res[i];
 813              		.loc 1 315 14 discriminator 1
 315:C:/Users/stapi/OneDrive/Desktop/GD32VW553/V1_MQTT_OK/GD32VW55X_Wifi_BLE_SDK/GD32VW55x_RELEASE_V1.0.2/MSDK/wpa_supplicant/src/common\hw_features_common.c **** 		struct wpa_scan_res *bss = scan_res->res[i];
 814              		.loc 1 315 2 is_stmt 0 discriminator 1
 815 006a 83A74B00 		lw	a5,4(s7)
 816 006e 6369FC00 		bgtu	a5,s8,.L95
 368:C:/Users/stapi/OneDrive/Desktop/GD32VW553/V1_MQTT_OK/GD32VW55X_Wifi_BLE_SDK/GD32VW55x_RELEASE_V1.0.2/MSDK/wpa_supplicant/src/common\hw_features_common.c **** 			    HT_CAP_INFO_40MHZ_INTOLERANT) {
 369:C:/Users/stapi/OneDrive/Desktop/GD32VW553/V1_MQTT_OK/GD32VW55X_Wifi_BLE_SDK/GD32VW55x_RELEASE_V1.0.2/MSDK/wpa_supplicant/src/common\hw_features_common.c **** 				wpa_printf(MSG_DEBUG,
 370:C:/Users/stapi/OneDrive/Desktop/GD32VW553/V1_MQTT_OK/GD32VW55X_Wifi_BLE_SDK/GD32VW55x_RELEASE_V1.0.2/MSDK/wpa_supplicant/src/common\hw_features_common.c **** 					   "40 MHz Intolerant is set on channel %d in BSS "
 371:C:/Users/stapi/OneDrive/Desktop/GD32VW553/V1_MQTT_OK/GD32VW55X_Wifi_BLE_SDK/GD32VW55x_RELEASE_V1.0.2/MSDK/wpa_supplicant/src/common\hw_features_common.c **** 					   MACSTR, pri, MAC2STR(bss->bssid));
 372:C:/Users/stapi/OneDrive/Desktop/GD32VW553/V1_MQTT_OK/GD32VW55X_Wifi_BLE_SDK/GD32VW55x_RELEASE_V1.0.2/MSDK/wpa_supplicant/src/common\hw_features_common.c **** 				return 0;
 373:C:/Users/stapi/OneDrive/Desktop/GD32VW553/V1_MQTT_OK/GD32VW55X_Wifi_BLE_SDK/GD32VW55x_RELEASE_V1.0.2/MSDK/wpa_supplicant/src/common\hw_features_common.c **** 			}
 374:C:/Users/stapi/OneDrive/Desktop/GD32VW553/V1_MQTT_OK/GD32VW55X_Wifi_BLE_SDK/GD32VW55x_RELEASE_V1.0.2/MSDK/wpa_supplicant/src/common\hw_features_common.c **** 		}
 375:C:/Users/stapi/OneDrive/Desktop/GD32VW553/V1_MQTT_OK/GD32VW55X_Wifi_BLE_SDK/GD32VW55x_RELEASE_V1.0.2/MSDK/wpa_supplicant/src/common\hw_features_common.c **** 	}
 376:C:/Users/stapi/OneDrive/Desktop/GD32VW553/V1_MQTT_OK/GD32VW55X_Wifi_BLE_SDK/GD32VW55x_RELEASE_V1.0.2/MSDK/wpa_supplicant/src/common\hw_features_common.c **** 
 377:C:/Users/stapi/OneDrive/Desktop/GD32VW553/V1_MQTT_OK/GD32VW55X_Wifi_BLE_SDK/GD32VW55x_RELEASE_V1.0.2/MSDK/wpa_supplicant/src/common\hw_features_common.c **** 	return 1;
 817              		.loc 1 377 9
 818 0072 8545     		li	a1,1
 819              	.LVL77:
 820              	.L76:
 378:C:/Users/stapi/OneDrive/Desktop/GD32VW553/V1_MQTT_OK/GD32VW55X_Wifi_BLE_SDK/GD32VW55x_RELEASE_V1.0.2/MSDK/wpa_supplicant/src/common\hw_features_common.c **** }
 821              		.loc 1 378 1
 822 0074 2E85     		mv	a0,a1
 823 0076 7961     		addi	sp,sp,464
 824              		.cfi_remember_state
 825              		.cfi_def_cfa_offset 0
 826 0078 17030000 		tail	__riscv_restore_11
 826      67000300 
 827              		.cfi_restore 26
 828              		.cfi_restore 25
 829              		.cfi_restore 24
 830              		.cfi_restore 23
 831              		.cfi_restore 22
 832              		.cfi_restore 21
 833              		.cfi_restore 20
 834              		.cfi_restore 19
 835              		.cfi_restore 18
 836              		.cfi_restore 9
 837              		.cfi_restore 8
 838              		.cfi_restore 1
 839              		.cfi_def_cfa_offset -48
 840              	.LVL78:
 841              	.L95:
 842              		.cfi_restore_state
 843              	.LBB44:
 316:C:/Users/stapi/OneDrive/Desktop/GD32VW553/V1_MQTT_OK/GD32VW55X_Wifi_BLE_SDK/GD32VW55x_RELEASE_V1.0.2/MSDK/wpa_supplicant/src/common\hw_features_common.c **** 		int pri = bss->freq;
 844              		.loc 1 316 3 is_stmt 1
 316:C:/Users/stapi/OneDrive/Desktop/GD32VW553/V1_MQTT_OK/GD32VW55X_Wifi_BLE_SDK/GD32VW55x_RELEASE_V1.0.2/MSDK/wpa_supplicant/src/common\hw_features_common.c **** 		int pri = bss->freq;
 845              		.loc 1 316 24 is_stmt 0
 846 0080 83A70B00 		lw	a5,0(s7)
 847 0084 B347FC20 		sh2add	a5,s8,a5
 848 0088 8043     		lw	s0,0(a5)
 849              	.LVL79:
 317:C:/Users/stapi/OneDrive/Desktop/GD32VW553/V1_MQTT_OK/GD32VW55X_Wifi_BLE_SDK/GD32VW55x_RELEASE_V1.0.2/MSDK/wpa_supplicant/src/common\hw_features_common.c **** 		int sec = pri;
 850              		.loc 1 317 3 is_stmt 1
 317:C:/Users/stapi/OneDrive/Desktop/GD32VW553/V1_MQTT_OK/GD32VW55X_Wifi_BLE_SDK/GD32VW55x_RELEASE_V1.0.2/MSDK/wpa_supplicant/src/common\hw_features_common.c **** 		int sec = pri;
 851              		.loc 1 317 7 is_stmt 0
 852 008a 4444     		lw	s1,12(s0)
 853              	.LVL80:
 318:C:/Users/stapi/OneDrive/Desktop/GD32VW553/V1_MQTT_OK/GD32VW55X_Wifi_BLE_SDK/GD32VW55x_RELEASE_V1.0.2/MSDK/wpa_supplicant/src/common\hw_features_common.c **** 		struct ieee802_11_elems elems;
 854              		.loc 1 318 3 is_stmt 1
 319:C:/Users/stapi/OneDrive/Desktop/GD32VW553/V1_MQTT_OK/GD32VW55X_Wifi_BLE_SDK/GD32VW55x_RELEASE_V1.0.2/MSDK/wpa_supplicant/src/common\hw_features_common.c **** 
 855              		.loc 1 319 3
 322:C:/Users/stapi/OneDrive/Desktop/GD32VW553/V1_MQTT_OK/GD32VW55X_Wifi_BLE_SDK/GD32VW55x_RELEASE_V1.0.2/MSDK/wpa_supplicant/src/common\hw_features_common.c **** 				    affected_end)) {
 856              		.loc 1 322 3
 857              	.LBB37:
 858              	.LBB38:
 270:C:/Users/stapi/OneDrive/Desktop/GD32VW553/V1_MQTT_OK/GD32VW55X_Wifi_BLE_SDK/GD32VW55x_RELEASE_V1.0.2/MSDK/wpa_supplicant/src/common\hw_features_common.c **** 	struct ieee80211_ht_operation *oper;
 859              		.loc 1 270 2
 271:C:/Users/stapi/OneDrive/Desktop/GD32VW553/V1_MQTT_OK/GD32VW55X_Wifi_BLE_SDK/GD32VW55x_RELEASE_V1.0.2/MSDK/wpa_supplicant/src/common\hw_features_common.c **** 
 860              		.loc 1 271 2
 273:C:/Users/stapi/OneDrive/Desktop/GD32VW553/V1_MQTT_OK/GD32VW55X_Wifi_BLE_SDK/GD32VW55x_RELEASE_V1.0.2/MSDK/wpa_supplicant/src/common\hw_features_common.c **** 		return 0;
 861              		.loc 1 273 2
 273:C:/Users/stapi/OneDrive/Desktop/GD32VW553/V1_MQTT_OK/GD32VW55X_Wifi_BLE_SDK/GD32VW55x_RELEASE_V1.0.2/MSDK/wpa_supplicant/src/common\hw_features_common.c **** 		return 0;
 862              		.loc 1 273 5 is_stmt 0
 863 008c 63D16403 		ble	s6,s1,.L79
 864              	.L82:
 865              	.LVL81:
 866              	.LBE38:
 867              	.LBE37:
 329:C:/Users/stapi/OneDrive/Desktop/GD32VW553/V1_MQTT_OK/GD32VW55X_Wifi_BLE_SDK/GD32VW55x_RELEASE_V1.0.2/MSDK/wpa_supplicant/src/common\hw_features_common.c **** 
 868              		.loc 1 329 3 is_stmt 1
 869 0090 6C10     		addi	a1,sp,44
 870 0092 3010     		addi	a2,sp,40
 871 0094 2285     		mv	a0,s0
 872 0096 97000000 		call	get_pri_sec_chan
 872      E7800000 
 873              	.LVL82:
 331:C:/Users/stapi/OneDrive/Desktop/GD32VW553/V1_MQTT_OK/GD32VW55X_Wifi_BLE_SDK/GD32VW55x_RELEASE_V1.0.2/MSDK/wpa_supplicant/src/common\hw_features_common.c **** 			if (sec_chan < pri_chan)
 874              		.loc 1 331 3
 331:C:/Users/stapi/OneDrive/Desktop/GD32VW553/V1_MQTT_OK/GD32VW55X_Wifi_BLE_SDK/GD32VW55x_RELEASE_V1.0.2/MSDK/wpa_supplicant/src/common\hw_features_common.c **** 			if (sec_chan < pri_chan)
 875              		.loc 1 331 7 is_stmt 0
 876 009e A255     		lw	a1,40(sp)
 331:C:/Users/stapi/OneDrive/Desktop/GD32VW553/V1_MQTT_OK/GD32VW55X_Wifi_BLE_SDK/GD32VW55x_RELEASE_V1.0.2/MSDK/wpa_supplicant/src/common\hw_features_common.c **** 			if (sec_chan < pri_chan)
 877              		.loc 1 331 6
 878 00a0 CDE1     		bne	a1,zero,.L80
 338:C:/Users/stapi/OneDrive/Desktop/GD32VW553/V1_MQTT_OK/GD32VW55X_Wifi_BLE_SDK/GD32VW55x_RELEASE_V1.0.2/MSDK/wpa_supplicant/src/common\hw_features_common.c **** 		    (sec < affected_start || sec > affected_end))
 879              		.loc 1 338 3 is_stmt 1
 338:C:/Users/stapi/OneDrive/Desktop/GD32VW553/V1_MQTT_OK/GD32VW55X_Wifi_BLE_SDK/GD32VW55x_RELEASE_V1.0.2/MSDK/wpa_supplicant/src/common\hw_features_common.c **** 		    (sec < affected_start || sec > affected_end))
 880              		.loc 1 338 6 is_stmt 0
 881 00a2 63CD640B 		bgt	s6,s1,.L91
 338:C:/Users/stapi/OneDrive/Desktop/GD32VW553/V1_MQTT_OK/GD32VW55X_Wifi_BLE_SDK/GD32VW55x_RELEASE_V1.0.2/MSDK/wpa_supplicant/src/common\hw_features_common.c **** 		    (sec < affected_start || sec > affected_end))
 882              		.loc 1 338 29
 883 00a6 634B990A 		blt	s2,s1,.L91
 317:C:/Users/stapi/OneDrive/Desktop/GD32VW553/V1_MQTT_OK/GD32VW55X_Wifi_BLE_SDK/GD32VW55x_RELEASE_V1.0.2/MSDK/wpa_supplicant/src/common\hw_features_common.c **** 		int sec = pri;
 884              		.loc 1 317 7
 885 00aa A689     		mv	s3,s1
 886 00ac 65A8     		j	.L89
 887              	.LVL83:
 888              	.L79:
 889              	.LBB41:
 890              	.LBB39:
 273:C:/Users/stapi/OneDrive/Desktop/GD32VW553/V1_MQTT_OK/GD32VW55X_Wifi_BLE_SDK/GD32VW55x_RELEASE_V1.0.2/MSDK/wpa_supplicant/src/common\hw_features_common.c **** 		return 0;
 891              		.loc 1 273 24
 892 00ae E34199FE 		blt	s2,s1,.L82
 273:C:/Users/stapi/OneDrive/Desktop/GD32VW553/V1_MQTT_OK/GD32VW55X_Wifi_BLE_SDK/GD32VW55x_RELEASE_V1.0.2/MSDK/wpa_supplicant/src/common\hw_features_common.c **** 		return 0;
 893              		.loc 1 273 43
 894 00b2 E30F9AFC 		beq	s4,s1,.L82
 276:C:/Users/stapi/OneDrive/Desktop/GD32VW553/V1_MQTT_OK/GD32VW55X_Wifi_BLE_SDK/GD32VW55x_RELEASE_V1.0.2/MSDK/wpa_supplicant/src/common\hw_features_common.c **** 	if (!elems.ht_capabilities) {
 895              		.loc 1 276 2 is_stmt 1
 896 00b6 2C44     		lw	a1,72(s0)
 897 00b8 8146     		li	a3,0
 898 00ba 1018     		addi	a2,sp,48
 899 00bc 13050405 		addi	a0,s0,80
 900 00c0 97000000 		call	ieee802_11_parse_elems
 900      E7800000 
 901              	.LVL84:
 277:C:/Users/stapi/OneDrive/Desktop/GD32VW553/V1_MQTT_OK/GD32VW55X_Wifi_BLE_SDK/GD32VW55x_RELEASE_V1.0.2/MSDK/wpa_supplicant/src/common\hw_features_common.c **** 		wpa_printf(MSG_DEBUG, "Found overlapping legacy BSS: "
 902              		.loc 1 277 2
 277:C:/Users/stapi/OneDrive/Desktop/GD32VW553/V1_MQTT_OK/GD32VW55X_Wifi_BLE_SDK/GD32VW55x_RELEASE_V1.0.2/MSDK/wpa_supplicant/src/common\hw_features_common.c **** 		wpa_printf(MSG_DEBUG, "Found overlapping legacy BSS: "
 903              		.loc 1 277 5 is_stmt 0
 904 00c8 C657     		lw	a5,112(sp)
 905 00ca B9E3     		bne	a5,zero,.L83
 278:C:/Users/stapi/OneDrive/Desktop/GD32VW553/V1_MQTT_OK/GD32VW55X_Wifi_BLE_SDK/GD32VW55x_RELEASE_V1.0.2/MSDK/wpa_supplicant/src/common\hw_features_common.c **** 			   MACSTR " freq=%d", MAC2STR(bss->bssid), bss->freq);
 906              		.loc 1 278 3 is_stmt 1
 907 00cc 4C44     		lw	a1,12(s0)
 908 00ce 83489400 		lbu	a7,9(s0)
 909 00d2 03488400 		lbu	a6,8(s0)
 910 00d6 83477400 		lbu	a5,7(s0)
 911 00da 03476400 		lbu	a4,6(s0)
 912 00de 83465400 		lbu	a3,5(s0)
 913 00e2 03464400 		lbu	a2,4(s0)
 914 00e6 2EC0     		sw	a1,0(sp)
 915 00e8 B7050000 		lui	a1,%hi(.LC4)
 916 00ec 93850500 		addi	a1,a1,%lo(.LC4)
 917              	.L118:
 288:C:/Users/stapi/OneDrive/Desktop/GD32VW553/V1_MQTT_OK/GD32VW55X_Wifi_BLE_SDK/GD32VW55x_RELEASE_V1.0.2/MSDK/wpa_supplicant/src/common\hw_features_common.c **** 			   MACSTR " freq=%d", MAC2STR(bss->bssid), bss->freq);
 918              		.loc 1 288 3 is_stmt 0
 919 00f0 0945     		li	a0,2
 920 00f2 97000000 		call	wpa_printf
 920      E7800000 
 921              	.LVL85:
 290:C:/Users/stapi/OneDrive/Desktop/GD32VW553/V1_MQTT_OK/GD32VW55X_Wifi_BLE_SDK/GD32VW55x_RELEASE_V1.0.2/MSDK/wpa_supplicant/src/common\hw_features_common.c **** 	}
 922              		.loc 1 290 3 is_stmt 1
 923              	.LBE39:
 924              	.LBE41:
 324:C:/Users/stapi/OneDrive/Desktop/GD32VW553/V1_MQTT_OK/GD32VW55X_Wifi_BLE_SDK/GD32VW55x_RELEASE_V1.0.2/MSDK/wpa_supplicant/src/common\hw_features_common.c **** 				   "Overlapping 20 MHz BSS is found");
 925              		.loc 1 324 4
 926 00fa B7050000 		lui	a1,%hi(.LC6)
 927 00fe 93850500 		addi	a1,a1,%lo(.LC6)
 928 0102 0945     		li	a0,2
 929 0104 97000000 		call	wpa_printf
 929      E7800000 
 930              	.LVL86:
 326:C:/Users/stapi/OneDrive/Desktop/GD32VW553/V1_MQTT_OK/GD32VW55X_Wifi_BLE_SDK/GD32VW55x_RELEASE_V1.0.2/MSDK/wpa_supplicant/src/common\hw_features_common.c **** 		}
 931              		.loc 1 326 4
 932              	.L99:
 933              	.LBE44:
 306:C:/Users/stapi/OneDrive/Desktop/GD32VW553/V1_MQTT_OK/GD32VW55X_Wifi_BLE_SDK/GD32VW55x_RELEASE_V1.0.2/MSDK/wpa_supplicant/src/common\hw_features_common.c **** 
 934              		.loc 1 306 10 is_stmt 0
 935 010c 8145     		li	a1,0
 936 010e 9DB7     		j	.L76
 937              	.LVL87:
 938              	.L83:
 939              	.LBB45:
 940              	.LBB42:
 941              	.LBB40:
 283:C:/Users/stapi/OneDrive/Desktop/GD32VW553/V1_MQTT_OK/GD32VW55X_Wifi_BLE_SDK/GD32VW55x_RELEASE_V1.0.2/MSDK/wpa_supplicant/src/common\hw_features_common.c **** 		oper = (struct ieee80211_ht_operation *) elems.ht_operation;
 942              		.loc 1 283 2 is_stmt 1
 283:C:/Users/stapi/OneDrive/Desktop/GD32VW553/V1_MQTT_OK/GD32VW55X_Wifi_BLE_SDK/GD32VW55x_RELEASE_V1.0.2/MSDK/wpa_supplicant/src/common\hw_features_common.c **** 		oper = (struct ieee80211_ht_operation *) elems.ht_operation;
 943              		.loc 1 283 11 is_stmt 0
 944 0110 D657     		lw	a5,116(sp)
 283:C:/Users/stapi/OneDrive/Desktop/GD32VW553/V1_MQTT_OK/GD32VW55X_Wifi_BLE_SDK/GD32VW55x_RELEASE_V1.0.2/MSDK/wpa_supplicant/src/common\hw_features_common.c **** 		oper = (struct ieee80211_ht_operation *) elems.ht_operation;
 945              		.loc 1 283 5
 946 0112 BDDF     		beq	a5,zero,.L82
 284:C:/Users/stapi/OneDrive/Desktop/GD32VW553/V1_MQTT_OK/GD32VW55X_Wifi_BLE_SDK/GD32VW55x_RELEASE_V1.0.2/MSDK/wpa_supplicant/src/common\hw_features_common.c **** 		if (oper->ht_param & HT_INFO_HT_PARAM_SECONDARY_CHNL_OFF_MASK)
 947              		.loc 1 284 3 is_stmt 1
 948              	.LVL88:
 285:C:/Users/stapi/OneDrive/Desktop/GD32VW553/V1_MQTT_OK/GD32VW55X_Wifi_BLE_SDK/GD32VW55x_RELEASE_V1.0.2/MSDK/wpa_supplicant/src/common\hw_features_common.c **** 			return 0;
 949              		.loc 1 285 3
 285:C:/Users/stapi/OneDrive/Desktop/GD32VW553/V1_MQTT_OK/GD32VW55X_Wifi_BLE_SDK/GD32VW55x_RELEASE_V1.0.2/MSDK/wpa_supplicant/src/common\hw_features_common.c **** 			return 0;
 950              		.loc 1 285 6 is_stmt 0
 951 0114 83C71700 		lbu	a5,1(a5)
 952              	.LVL89:
 953 0118 8D8B     		andi	a5,a5,3
 954 011a BDFB     		bne	a5,zero,.L82
 288:C:/Users/stapi/OneDrive/Desktop/GD32VW553/V1_MQTT_OK/GD32VW55X_Wifi_BLE_SDK/GD32VW55x_RELEASE_V1.0.2/MSDK/wpa_supplicant/src/common\hw_features_common.c **** 			   MACSTR " freq=%d", MAC2STR(bss->bssid), bss->freq);
 955              		.loc 1 288 3 is_stmt 1
 956 011c 4C44     		lw	a1,12(s0)
 957 011e 83489400 		lbu	a7,9(s0)
 958 0122 03488400 		lbu	a6,8(s0)
 959 0126 83477400 		lbu	a5,7(s0)
 960 012a 03476400 		lbu	a4,6(s0)
 961 012e 83465400 		lbu	a3,5(s0)
 962 0132 03464400 		lbu	a2,4(s0)
 963 0136 2EC0     		sw	a1,0(sp)
 964 0138 B7050000 		lui	a1,%hi(.LC5)
 965 013c 93850500 		addi	a1,a1,%lo(.LC5)
 966 0140 45BF     		j	.L118
 967              	.LVL90:
 968              	.L80:
 969              	.LBE40:
 970              	.LBE42:
 332:C:/Users/stapi/OneDrive/Desktop/GD32VW553/V1_MQTT_OK/GD32VW55X_Wifi_BLE_SDK/GD32VW55x_RELEASE_V1.0.2/MSDK/wpa_supplicant/src/common\hw_features_common.c **** 				sec = pri - 20;
 971              		.loc 1 332 4
 332:C:/Users/stapi/OneDrive/Desktop/GD32VW553/V1_MQTT_OK/GD32VW55X_Wifi_BLE_SDK/GD32VW55x_RELEASE_V1.0.2/MSDK/wpa_supplicant/src/common\hw_features_common.c **** 				sec = pri - 20;
 972              		.loc 1 332 7 is_stmt 0
 973 0142 B257     		lw	a5,44(sp)
 335:C:/Users/stapi/OneDrive/Desktop/GD32VW553/V1_MQTT_OK/GD32VW55X_Wifi_BLE_SDK/GD32VW55x_RELEASE_V1.0.2/MSDK/wpa_supplicant/src/common\hw_features_common.c **** 		}
 974              		.loc 1 335 9
 975 0144 93894401 		addi	s3,s1,20
 332:C:/Users/stapi/OneDrive/Desktop/GD32VW553/V1_MQTT_OK/GD32VW55X_Wifi_BLE_SDK/GD32VW55x_RELEASE_V1.0.2/MSDK/wpa_supplicant/src/common\hw_features_common.c **** 				sec = pri - 20;
 976              		.loc 1 332 7
 977 0148 63D4F500 		bge	a1,a5,.L87
 333:C:/Users/stapi/OneDrive/Desktop/GD32VW553/V1_MQTT_OK/GD32VW55X_Wifi_BLE_SDK/GD32VW55x_RELEASE_V1.0.2/MSDK/wpa_supplicant/src/common\hw_features_common.c **** 			else
 978              		.loc 1 333 5 is_stmt 1
 333:C:/Users/stapi/OneDrive/Desktop/GD32VW553/V1_MQTT_OK/GD32VW55X_Wifi_BLE_SDK/GD32VW55x_RELEASE_V1.0.2/MSDK/wpa_supplicant/src/common\hw_features_common.c **** 			else
 979              		.loc 1 333 9 is_stmt 0
 980 014c 9389C4FE 		addi	s3,s1,-20
 981              	.LVL91:
 982              	.L87:
 338:C:/Users/stapi/OneDrive/Desktop/GD32VW553/V1_MQTT_OK/GD32VW55X_Wifi_BLE_SDK/GD32VW55x_RELEASE_V1.0.2/MSDK/wpa_supplicant/src/common\hw_features_common.c **** 		    (sec < affected_start || sec > affected_end))
 983              		.loc 1 338 3 is_stmt 1
 338:C:/Users/stapi/OneDrive/Desktop/GD32VW553/V1_MQTT_OK/GD32VW55X_Wifi_BLE_SDK/GD32VW55x_RELEASE_V1.0.2/MSDK/wpa_supplicant/src/common\hw_features_common.c **** 		    (sec < affected_start || sec > affected_end))
 984              		.loc 1 338 6 is_stmt 0
 985 0150 63C46401 		bgt	s6,s1,.L88
 338:C:/Users/stapi/OneDrive/Desktop/GD32VW553/V1_MQTT_OK/GD32VW55X_Wifi_BLE_SDK/GD32VW55x_RELEASE_V1.0.2/MSDK/wpa_supplicant/src/common\hw_features_common.c **** 		    (sec < affected_start || sec > affected_end))
 986              		.loc 1 338 29 discriminator 2
 987 0154 63589900 		bge	s2,s1,.L89
 988              	.L88:
 338:C:/Users/stapi/OneDrive/Desktop/GD32VW553/V1_MQTT_OK/GD32VW55X_Wifi_BLE_SDK/GD32VW55x_RELEASE_V1.0.2/MSDK/wpa_supplicant/src/common\hw_features_common.c **** 		    (sec < affected_start || sec > affected_end))
 989              		.loc 1 338 52 discriminator 3
 990 0158 63D46901 		bge	s3,s6,.L90
 991              	.LVL92:
 992              	.L91:
 340:C:/Users/stapi/OneDrive/Desktop/GD32VW553/V1_MQTT_OK/GD32VW55X_Wifi_BLE_SDK/GD32VW55x_RELEASE_V1.0.2/MSDK/wpa_supplicant/src/common\hw_features_common.c **** 
 993              		.loc 1 340 4 is_stmt 1
 994              	.LBE45:
 315:C:/Users/stapi/OneDrive/Desktop/GD32VW553/V1_MQTT_OK/GD32VW55X_Wifi_BLE_SDK/GD32VW55x_RELEASE_V1.0.2/MSDK/wpa_supplicant/src/common\hw_features_common.c **** 		struct wpa_scan_res *bss = scan_res->res[i];
 995              		.loc 1 315 33
 315:C:/Users/stapi/OneDrive/Desktop/GD32VW553/V1_MQTT_OK/GD32VW55X_Wifi_BLE_SDK/GD32VW55x_RELEASE_V1.0.2/MSDK/wpa_supplicant/src/common\hw_features_common.c **** 		struct wpa_scan_res *bss = scan_res->res[i];
 996              		.loc 1 315 34 is_stmt 0
 997 015c 050C     		addi	s8,s8,1
 998              	.LVL93:
 999 015e 31B7     		j	.L78
 1000              	.LVL94:
 1001              	.L90:
 1002              	.LBB46:
 339:C:/Users/stapi/OneDrive/Desktop/GD32VW553/V1_MQTT_OK/GD32VW55X_Wifi_BLE_SDK/GD32VW55x_RELEASE_V1.0.2/MSDK/wpa_supplicant/src/common\hw_features_common.c **** 			continue; /* not within affected channel range */
 1003              		.loc 1 339 29
 1004 0160 E34E39FF 		bgt	s3,s2,.L91
 1005              	.L89:
 342:C:/Users/stapi/OneDrive/Desktop/GD32VW553/V1_MQTT_OK/GD32VW55X_Wifi_BLE_SDK/GD32VW55x_RELEASE_V1.0.2/MSDK/wpa_supplicant/src/common\hw_features_common.c **** 			   " freq=%d pri=%d sec=%d",
 1006              		.loc 1 342 3 is_stmt 1
 1007 0164 83477400 		lbu	a5,7(s0)
 1008 0168 83489400 		lbu	a7,9(s0)
 1009 016c 03488400 		lbu	a6,8(s0)
 1010 0170 03476400 		lbu	a4,6(s0)
 1011 0174 83465400 		lbu	a3,5(s0)
 1012 0178 03464400 		lbu	a2,4(s0)
 1013 017c 2EC4     		sw	a1,8(sp)
 1014 017e B255     		lw	a1,44(sp)
 1015 0180 0945     		li	a0,2
 1016 0182 2EC2     		sw	a1,4(sp)
 1017 0184 4C44     		lw	a1,12(s0)
 1018 0186 2EC0     		sw	a1,0(sp)
 1019 0188 93850C00 		addi	a1,s9,%lo(.LC7)
 1020 018c 97000000 		call	wpa_printf
 1020      E7800000 
 1021              	.LVL95:
 346:C:/Users/stapi/OneDrive/Desktop/GD32VW553/V1_MQTT_OK/GD32VW55X_Wifi_BLE_SDK/GD32VW55x_RELEASE_V1.0.2/MSDK/wpa_supplicant/src/common\hw_features_common.c **** 			if (pri_freq != pri || sec_freq != sec) {
 1022              		.loc 1 346 3
 346:C:/Users/stapi/OneDrive/Desktop/GD32VW553/V1_MQTT_OK/GD32VW55X_Wifi_BLE_SDK/GD32VW55x_RELEASE_V1.0.2/MSDK/wpa_supplicant/src/common\hw_features_common.c **** 			if (pri_freq != pri || sec_freq != sec) {
 1023              		.loc 1 346 6 is_stmt 0
 1024 0194 A257     		lw	a5,40(sp)
 1025 0196 A1CB     		beq	a5,zero,.L92
 347:C:/Users/stapi/OneDrive/Desktop/GD32VW553/V1_MQTT_OK/GD32VW55X_Wifi_BLE_SDK/GD32VW55x_RELEASE_V1.0.2/MSDK/wpa_supplicant/src/common\hw_features_common.c **** 				wpa_printf(MSG_DEBUG,
 1026              		.loc 1 347 4 is_stmt 1
 347:C:/Users/stapi/OneDrive/Desktop/GD32VW553/V1_MQTT_OK/GD32VW55X_Wifi_BLE_SDK/GD32VW55x_RELEASE_V1.0.2/MSDK/wpa_supplicant/src/common\hw_features_common.c **** 				wpa_printf(MSG_DEBUG,
 1027              		.loc 1 347 7 is_stmt 0
 1028 0198 63149A00 		bne	s4,s1,.L93
 347:C:/Users/stapi/OneDrive/Desktop/GD32VW553/V1_MQTT_OK/GD32VW55X_Wifi_BLE_SDK/GD32VW55x_RELEASE_V1.0.2/MSDK/wpa_supplicant/src/common\hw_features_common.c **** 				wpa_printf(MSG_DEBUG,
 1029              		.loc 1 347 24 discriminator 1
 1030 019c 63853A05 		beq	s5,s3,.L92
 1031              	.L93:
 348:C:/Users/stapi/OneDrive/Desktop/GD32VW553/V1_MQTT_OK/GD32VW55X_Wifi_BLE_SDK/GD32VW55x_RELEASE_V1.0.2/MSDK/wpa_supplicant/src/common\hw_features_common.c **** 					   "40 MHz pri/sec mismatch with BSS "
 1032              		.loc 1 348 5 is_stmt 1
 1033 01a0 03464400 		lbu	a2,4(s0)
 1034 01a4 83465400 		lbu	a3,5(s0)
 1035 01a8 03476400 		lbu	a4,6(s0)
 1036 01ac 83477400 		lbu	a5,7(s0)
 1037 01b0 03488400 		lbu	a6,8(s0)
 1038 01b4 83489400 		lbu	a7,9(s0)
 1039 01b8 3255     		lw	a0,44(sp)
 1040 01ba 9305B002 		li	a1,43
 1041 01be 63C43401 		blt	s1,s3,.L94
 1042 01c2 9305D002 		li	a1,45
 1043              	.L94:
 348:C:/Users/stapi/OneDrive/Desktop/GD32VW553/V1_MQTT_OK/GD32VW55X_Wifi_BLE_SDK/GD32VW55x_RELEASE_V1.0.2/MSDK/wpa_supplicant/src/common\hw_features_common.c **** 					   "40 MHz pri/sec mismatch with BSS "
 1044              		.loc 1 348 5 is_stmt 0 discriminator 4
 1045 01c6 2EC6     		sw	a1,12(sp)
 1046 01c8 B7050000 		lui	a1,%hi(.LC8)
 1047 01cc 2AC4     		sw	a0,8(sp)
 1048 01ce 56CA     		sw	s5,20(sp)
 1049 01d0 52C8     		sw	s4,16(sp)
 1050 01d2 4EC2     		sw	s3,4(sp)
 1051 01d4 26C0     		sw	s1,0(sp)
 1052 01d6 93850500 		addi	a1,a1,%lo(.LC8)
 1053 01da 0945     		li	a0,2
 1054 01dc 97000000 		call	wpa_printf
 1054      E7800000 
 1055              	.LVL96:
 356:C:/Users/stapi/OneDrive/Desktop/GD32VW553/V1_MQTT_OK/GD32VW55X_Wifi_BLE_SDK/GD32VW55x_RELEASE_V1.0.2/MSDK/wpa_supplicant/src/common\hw_features_common.c **** 			}
 1056              		.loc 1 356 5 is_stmt 1 discriminator 4
 356:C:/Users/stapi/OneDrive/Desktop/GD32VW553/V1_MQTT_OK/GD32VW55X_Wifi_BLE_SDK/GD32VW55x_RELEASE_V1.0.2/MSDK/wpa_supplicant/src/common\hw_features_common.c **** 			}
 1057              		.loc 1 356 12 is_stmt 0 discriminator 4
 1058 01e4 25B7     		j	.L99
 1059              	.L92:
 360:C:/Users/stapi/OneDrive/Desktop/GD32VW553/V1_MQTT_OK/GD32VW55X_Wifi_BLE_SDK/GD32VW55x_RELEASE_V1.0.2/MSDK/wpa_supplicant/src/common\hw_features_common.c **** 				       0);
 1060              		.loc 1 360 3 is_stmt 1
 1061 01e6 2C44     		lw	a1,72(s0)
 1062 01e8 8146     		li	a3,0
 1063 01ea 1018     		addi	a2,sp,48
 1064 01ec 13050405 		addi	a0,s0,80
 1065 01f0 97000000 		call	ieee802_11_parse_elems
 1065      E7800000 
 1066              	.LVL97:
 362:C:/Users/stapi/OneDrive/Desktop/GD32VW553/V1_MQTT_OK/GD32VW55X_Wifi_BLE_SDK/GD32VW55x_RELEASE_V1.0.2/MSDK/wpa_supplicant/src/common\hw_features_common.c **** 			struct ieee80211_ht_capabilities *ht_cap =
 1067              		.loc 1 362 3
 362:C:/Users/stapi/OneDrive/Desktop/GD32VW553/V1_MQTT_OK/GD32VW55X_Wifi_BLE_SDK/GD32VW55x_RELEASE_V1.0.2/MSDK/wpa_supplicant/src/common\hw_features_common.c **** 			struct ieee80211_ht_capabilities *ht_cap =
 1068              		.loc 1 362 12 is_stmt 0
 1069 01f8 4657     		lw	a4,112(sp)
 362:C:/Users/stapi/OneDrive/Desktop/GD32VW553/V1_MQTT_OK/GD32VW55X_Wifi_BLE_SDK/GD32VW55x_RELEASE_V1.0.2/MSDK/wpa_supplicant/src/common\hw_features_common.c **** 			struct ieee80211_ht_capabilities *ht_cap =
 1070              		.loc 1 362 6
 1071 01fa 2DD3     		beq	a4,zero,.L91
 1072              	.LBB43:
 363:C:/Users/stapi/OneDrive/Desktop/GD32VW553/V1_MQTT_OK/GD32VW55X_Wifi_BLE_SDK/GD32VW55x_RELEASE_V1.0.2/MSDK/wpa_supplicant/src/common\hw_features_common.c **** 				(struct ieee80211_ht_capabilities *)
 1073              		.loc 1 363 4 is_stmt 1
 1074              	.LVL98:
 367:C:/Users/stapi/OneDrive/Desktop/GD32VW553/V1_MQTT_OK/GD32VW55X_Wifi_BLE_SDK/GD32VW55x_RELEASE_V1.0.2/MSDK/wpa_supplicant/src/common\hw_features_common.c **** 			    HT_CAP_INFO_40MHZ_INTOLERANT) {
 1075              		.loc 1 367 4
 367:C:/Users/stapi/OneDrive/Desktop/GD32VW553/V1_MQTT_OK/GD32VW55X_Wifi_BLE_SDK/GD32VW55x_RELEASE_V1.0.2/MSDK/wpa_supplicant/src/common\hw_features_common.c **** 			    HT_CAP_INFO_40MHZ_INTOLERANT) {
 1076              		.loc 1 367 8 is_stmt 0
 1077 01fc 83471700 		lbu	a5,1(a4)
 1078 0200 83460700 		lbu	a3,0(a4)
 1079 0204 A207     		slli	a5,a5,8
 1080 0206 D58F     		or	a5,a5,a3
 367:C:/Users/stapi/OneDrive/Desktop/GD32VW553/V1_MQTT_OK/GD32VW55X_Wifi_BLE_SDK/GD32VW55x_RELEASE_V1.0.2/MSDK/wpa_supplicant/src/common\hw_features_common.c **** 			    HT_CAP_INFO_40MHZ_INTOLERANT) {
 1081              		.loc 1 367 7
 1082 0208 B3F7A701 		and	a5,a5,s10
 1083 020c A1DB     		beq	a5,zero,.L91
 369:C:/Users/stapi/OneDrive/Desktop/GD32VW553/V1_MQTT_OK/GD32VW55X_Wifi_BLE_SDK/GD32VW55x_RELEASE_V1.0.2/MSDK/wpa_supplicant/src/common\hw_features_common.c **** 					   "40 MHz Intolerant is set on channel %d in BSS "
 1084              		.loc 1 369 5 is_stmt 1
 1085 020e 03469400 		lbu	a2,9(s0)
 1086 0212 83488400 		lbu	a7,8(s0)
 1087 0216 03487400 		lbu	a6,7(s0)
 1088 021a 83476400 		lbu	a5,6(s0)
 1089 021e 03475400 		lbu	a4,5(s0)
 1090              	.LVL99:
 1091 0222 83464400 		lbu	a3,4(s0)
 1092 0226 B7050000 		lui	a1,%hi(.LC9)
 1093 022a 32C0     		sw	a2,0(sp)
 1094 022c 93850500 		addi	a1,a1,%lo(.LC9)
 1095 0230 2686     		mv	a2,s1
 1096 0232 0945     		li	a0,2
 1097 0234 97000000 		call	wpa_printf
 1097      E7800000 
 1098              	.LVL100:
 372:C:/Users/stapi/OneDrive/Desktop/GD32VW553/V1_MQTT_OK/GD32VW55X_Wifi_BLE_SDK/GD32VW55x_RELEASE_V1.0.2/MSDK/wpa_supplicant/src/common\hw_features_common.c **** 			}
 1099              		.loc 1 372 5
 372:C:/Users/stapi/OneDrive/Desktop/GD32VW553/V1_MQTT_OK/GD32VW55X_Wifi_BLE_SDK/GD32VW55x_RELEASE_V1.0.2/MSDK/wpa_supplicant/src/common\hw_features_common.c **** 			}
 1100              		.loc 1 372 12 is_stmt 0
 1101 023c C1BD     		j	.L99
 1102              	.LBE43:
 1103              	.LBE46:
 1104              		.cfi_endproc
 1105              	.LFE110:
 1107              		.section	.rodata.hostapd_set_freq_params.str1.4,"aMS",@progbits,1
 1108              		.align	2
 1109              	.LC10:
 1110 0000 3430204D 		.string	"40 MHz channel width is not supported in 2.4 GHz"
 1110      487A2063 
 1110      68616E6E 
 1110      656C2077 
 1110      69647468 
 1111 0031 000000   		.align	2
 1112              	.LC11:
 1113 0034 34302F38 		.string	"40/80 MHz channel width is not supported in 5/6 GHz"
 1113      30204D48 
 1113      7A206368 
 1113      616E6E65 
 1113      6C207769 
 1114              		.align	2
 1115              	.LC12:
 1116 0068 38302B38 		.string	"80+80 MHz channel width is not supported in 5/6 GHz"
 1116      30204D48 
 1116      7A206368 
 1116      616E6E65 
 1116      6C207769 
 1117              		.align	2
 1118              	.LC13:
 1119 009c 31363020 		.string	"160 MHz channel width is not supported in 5 / 6GHz"
 1119      4D487A20 
 1119      6368616E 
 1119      6E656C20 
 1119      77696474 
 1120 00cf 00       		.align	2
 1121              	.LC14:
 1122 00d0 38302B38 		.string	"80+80 channel width is not supported!"
 1122      30206368 
 1122      616E6E65 
 1122      6C207769 
 1122      64746820 
 1123 00f6 0000     		.align	2
 1124              	.LC15:
 1125 00f8 31363020 		.string	"160 MHz channel width is not supported!"
 1125      4D487A20 
 1125      6368616E 
 1125      6E656C20 
 1125      77696474 
 1126              		.align	2
 1127              	.LC16:
 1128 0120 32302F34 		.string	"20/40 MHz: center segment 0 (=%d) and center freq 1 (=%d) not in sync"
 1128      30204D48 
 1128      7A3A2063 
 1128      656E7465 
 1128      72207365 
 1129 0166 0000     		.align	2
 1130              	.LC17:
 1131 0168 38302B38 		.string	"80+80 MHz: center segment 1 only 20 MHz apart"
 1131      30204D48 
 1131      7A3A2063 
 1131      656E7465 
 1131      72207365 
 1132 0196 0000     		.align	2
 1133              	.LC18:
 1134 0198 38302F38 		.string	"80/80+80 MHz: no second channel offset"
 1134      302B3830 
 1134      204D487A 
 1134      3A206E6F 
 1134      20736563 
 1135 01bf 00       		.align	2
 1136              	.LC19:
 1137 01c0 3830204D 		.string	"80 MHz: center segment 1 configured"
 1137      487A3A20 
 1137      63656E74 
 1137      65722073 
 1137      65676D65 
 1138              		.align	2
 1139              	.LC20:
 1140 01e4 38302B38 		.string	"80+80 MHz: center segment 1 not configured"
 1140      30204D48 
 1140      7A3A2063 
 1140      656E7465 
 1140      72207365 
 1141 020f 00       		.align	2
 1142              	.LC21:
 1143 0210 57726F6E 		.string	"Wrong coupling between HT and VHT/HE channel setting"
 1143      6720636F 
 1143      75706C69 
 1143      6E672062 
 1143      65747765 
 1144 0245 000000   		.align	2
 1145              	.LC22:
 1146 0248 31363020 		.string	"160 MHz: center segment 1 should not be set"
 1146      4D487A3A 
 1146      2063656E 
 1146      74657220 
 1146      7365676D 
 1147              		.align	2
 1148              	.LC23:
 1149 0274 31363020 		.string	"160 MHz: second channel offset not set"
 1149      4D487A3A 
 1149      20736563 
 1149      6F6E6420 
 1149      6368616E 
 1150 029b 00       		.align	2
 1151              	.LC24:
 1152 029c 31363020 		.string	"160 MHz: HT40 channel band is not in 160 MHz band"
 1152      4D487A3A 
 1152      20485434 
 1152      30206368 
 1152      616E6E65 
 1153              		.section	.text.hostapd_set_freq_params,"ax",@progbits
 1154              		.align	1
 1155              		.globl	hostapd_set_freq_params
 1157              	hostapd_set_freq_params:
 1158              	.LFB111:
 379:C:/Users/stapi/OneDrive/Desktop/GD32VW553/V1_MQTT_OK/GD32VW55X_Wifi_BLE_SDK/GD32VW55x_RELEASE_V1.0.2/MSDK/wpa_supplicant/src/common\hw_features_common.c **** 
 380:C:/Users/stapi/OneDrive/Desktop/GD32VW553/V1_MQTT_OK/GD32VW55X_Wifi_BLE_SDK/GD32VW55x_RELEASE_V1.0.2/MSDK/wpa_supplicant/src/common\hw_features_common.c **** #ifdef CONFIG_HOSTAP_SET_FREQ
 381:C:/Users/stapi/OneDrive/Desktop/GD32VW553/V1_MQTT_OK/GD32VW55X_Wifi_BLE_SDK/GD32VW55x_RELEASE_V1.0.2/MSDK/wpa_supplicant/src/common\hw_features_common.c **** int hostapd_set_freq_params(struct hostapd_freq_params *data,
 382:C:/Users/stapi/OneDrive/Desktop/GD32VW553/V1_MQTT_OK/GD32VW55X_Wifi_BLE_SDK/GD32VW55x_RELEASE_V1.0.2/MSDK/wpa_supplicant/src/common\hw_features_common.c **** 			    enum hostapd_hw_mode mode,
 383:C:/Users/stapi/OneDrive/Desktop/GD32VW553/V1_MQTT_OK/GD32VW55X_Wifi_BLE_SDK/GD32VW55x_RELEASE_V1.0.2/MSDK/wpa_supplicant/src/common\hw_features_common.c **** 			    int freq, int channel, int enable_edmg,
 384:C:/Users/stapi/OneDrive/Desktop/GD32VW553/V1_MQTT_OK/GD32VW55X_Wifi_BLE_SDK/GD32VW55x_RELEASE_V1.0.2/MSDK/wpa_supplicant/src/common\hw_features_common.c **** 			    u8 edmg_channel, int ht_enabled,
 385:C:/Users/stapi/OneDrive/Desktop/GD32VW553/V1_MQTT_OK/GD32VW55X_Wifi_BLE_SDK/GD32VW55x_RELEASE_V1.0.2/MSDK/wpa_supplicant/src/common\hw_features_common.c **** 			    int vht_enabled, int he_enabled,
 386:C:/Users/stapi/OneDrive/Desktop/GD32VW553/V1_MQTT_OK/GD32VW55X_Wifi_BLE_SDK/GD32VW55x_RELEASE_V1.0.2/MSDK/wpa_supplicant/src/common\hw_features_common.c **** 			    int sec_channel_offset,
 387:C:/Users/stapi/OneDrive/Desktop/GD32VW553/V1_MQTT_OK/GD32VW55X_Wifi_BLE_SDK/GD32VW55x_RELEASE_V1.0.2/MSDK/wpa_supplicant/src/common\hw_features_common.c **** 			    int oper_chwidth, int center_segment0,
 388:C:/Users/stapi/OneDrive/Desktop/GD32VW553/V1_MQTT_OK/GD32VW55X_Wifi_BLE_SDK/GD32VW55x_RELEASE_V1.0.2/MSDK/wpa_supplicant/src/common\hw_features_common.c **** 			    int center_segment1, u32 vht_caps,
 389:C:/Users/stapi/OneDrive/Desktop/GD32VW553/V1_MQTT_OK/GD32VW55X_Wifi_BLE_SDK/GD32VW55x_RELEASE_V1.0.2/MSDK/wpa_supplicant/src/common\hw_features_common.c **** 			    struct he_capabilities *he_cap)
 390:C:/Users/stapi/OneDrive/Desktop/GD32VW553/V1_MQTT_OK/GD32VW55X_Wifi_BLE_SDK/GD32VW55x_RELEASE_V1.0.2/MSDK/wpa_supplicant/src/common\hw_features_common.c **** {
 1159              		.loc 1 390 1 is_stmt 1
 1160              		.cfi_startproc
 1161              	.LVL101:
 1162 0000 17030000 		call	t0,__riscv_save_12
 1162      E7020300 
 1163              		.cfi_offset 27, -52
 1164              		.cfi_offset 26, -48
 1165              		.cfi_offset 25, -44
 1166              		.cfi_offset 24, -40
 1167              		.cfi_offset 23, -36
 1168              		.cfi_offset 22, -32
 1169              		.cfi_offset 21, -28
 1170              		.cfi_offset 20, -24
 1171              		.cfi_offset 19, -20
 1172              		.cfi_offset 18, -16
 1173              		.cfi_offset 9, -12
 1174              		.cfi_offset 8, -8
 1175              		.cfi_offset 1, -4
 1176              		.cfi_def_cfa_offset 64
 391:C:/Users/stapi/OneDrive/Desktop/GD32VW553/V1_MQTT_OK/GD32VW55X_Wifi_BLE_SDK/GD32VW55x_RELEASE_V1.0.2/MSDK/wpa_supplicant/src/common\hw_features_common.c **** 	if (!he_cap || !he_cap->he_supported)
 1177              		.loc 1 391 2
 390:C:/Users/stapi/OneDrive/Desktop/GD32VW553/V1_MQTT_OK/GD32VW55X_Wifi_BLE_SDK/GD32VW55x_RELEASE_V1.0.2/MSDK/wpa_supplicant/src/common\hw_features_common.c **** 	if (!he_cap || !he_cap->he_supported)
 1178              		.loc 1 390 1 is_stmt 0
 1179 0008 4111     		addi	sp,sp,-16
 1180              		.cfi_def_cfa_offset 80
 390:C:/Users/stapi/OneDrive/Desktop/GD32VW553/V1_MQTT_OK/GD32VW55X_Wifi_BLE_SDK/GD32VW55x_RELEASE_V1.0.2/MSDK/wpa_supplicant/src/common\hw_features_common.c **** 	if (!he_cap || !he_cap->he_supported)
 1181              		.loc 1 390 1
 1182 000a A65A     		lw	s5,104(sp)
 1183 000c 464C     		lw	s8,80(sp)
 1184 000e D64D     		lw	s11,84(sp)
 1185 0010 664A     		lw	s4,88(sp)
 1186 0012 7649     		lw	s2,92(sp)
 1187 0014 0654     		lw	s0,96(sp)
 1188 0016 165D     		lw	s10,100(sp)
 1189 0018 AA89     		mv	s3,a0
 1190 001a 2E8B     		mv	s6,a1
 1191 001c B28C     		mv	s9,a2
 1192 001e B684     		mv	s1,a3
 1193 0020 C68B     		mv	s7,a7
 1194              		.loc 1 391 5
 1195 0022 63860A06 		beq	s5,zero,.L151
 1196              		.loc 1 391 14 discriminator 1
 1197 0026 83C70A00 		lbu	a5,0(s5)
 1198              	.LVL102:
 1199 002a B5C3     		beq	a5,zero,.L151
 1200              	.L120:
 392:C:/Users/stapi/OneDrive/Desktop/GD32VW553/V1_MQTT_OK/GD32VW55X_Wifi_BLE_SDK/GD32VW55x_RELEASE_V1.0.2/MSDK/wpa_supplicant/src/common\hw_features_common.c **** 		he_enabled = 0;
 393:C:/Users/stapi/OneDrive/Desktop/GD32VW553/V1_MQTT_OK/GD32VW55X_Wifi_BLE_SDK/GD32VW55x_RELEASE_V1.0.2/MSDK/wpa_supplicant/src/common\hw_features_common.c **** 	os_memset(data, 0, sizeof(*data));
 1201              		.loc 1 393 2
 1202 002c 13060003 		li	a2,48
 1203              	.LVL103:
 1204 0030 8145     		li	a1,0
 1205              	.LVL104:
 1206 0032 4E85     		mv	a0,s3
 1207              	.LVL105:
 1208 0034 42C6     		sw	a6,12(sp)
 1209              	.LVL106:
 1210              		.loc 1 393 2 is_stmt 1
 1211 0036 97000000 		call	os_memset
 1211      E7800000 
 1212              	.LVL107:
 394:C:/Users/stapi/OneDrive/Desktop/GD32VW553/V1_MQTT_OK/GD32VW55X_Wifi_BLE_SDK/GD32VW55x_RELEASE_V1.0.2/MSDK/wpa_supplicant/src/common\hw_features_common.c **** 	data->mode = mode;
 1213              		.loc 1 394 2
 395:C:/Users/stapi/OneDrive/Desktop/GD32VW553/V1_MQTT_OK/GD32VW55X_Wifi_BLE_SDK/GD32VW55x_RELEASE_V1.0.2/MSDK/wpa_supplicant/src/common\hw_features_common.c **** 	data->freq = freq;
 396:C:/Users/stapi/OneDrive/Desktop/GD32VW553/V1_MQTT_OK/GD32VW55X_Wifi_BLE_SDK/GD32VW55x_RELEASE_V1.0.2/MSDK/wpa_supplicant/src/common\hw_features_common.c **** 	data->channel = channel;
 397:C:/Users/stapi/OneDrive/Desktop/GD32VW553/V1_MQTT_OK/GD32VW55X_Wifi_BLE_SDK/GD32VW55x_RELEASE_V1.0.2/MSDK/wpa_supplicant/src/common\hw_features_common.c **** 	data->ht_enabled = ht_enabled;
 1214              		.loc 1 397 19 is_stmt 0
 1215 003e 3248     		lw	a6,12(sp)
 398:C:/Users/stapi/OneDrive/Desktop/GD32VW553/V1_MQTT_OK/GD32VW55X_Wifi_BLE_SDK/GD32VW55x_RELEASE_V1.0.2/MSDK/wpa_supplicant/src/common\hw_features_common.c **** 	data->vht_enabled = vht_enabled;
 399:C:/Users/stapi/OneDrive/Desktop/GD32VW553/V1_MQTT_OK/GD32VW55X_Wifi_BLE_SDK/GD32VW55x_RELEASE_V1.0.2/MSDK/wpa_supplicant/src/common\hw_features_common.c **** 	data->he_enabled = he_enabled;
 400:C:/Users/stapi/OneDrive/Desktop/GD32VW553/V1_MQTT_OK/GD32VW55X_Wifi_BLE_SDK/GD32VW55x_RELEASE_V1.0.2/MSDK/wpa_supplicant/src/common\hw_features_common.c **** 	data->sec_channel_offset = sec_channel_offset;
 401:C:/Users/stapi/OneDrive/Desktop/GD32VW553/V1_MQTT_OK/GD32VW55X_Wifi_BLE_SDK/GD32VW55x_RELEASE_V1.0.2/MSDK/wpa_supplicant/src/common\hw_features_common.c **** 	data->center_freq1 = freq + sec_channel_offset * 10;
 1216              		.loc 1 401 28
 1217 0040 A947     		li	a5,10
 1218 0042 E686     		mv	a3,s9
 1219 0044 FF96FDC4 		maddr32	a3, s11, a5
 402:C:/Users/stapi/OneDrive/Desktop/GD32VW553/V1_MQTT_OK/GD32VW55X_Wifi_BLE_SDK/GD32VW55x_RELEASE_V1.0.2/MSDK/wpa_supplicant/src/common\hw_features_common.c **** 	data->center_freq2 = 0;
 403:C:/Users/stapi/OneDrive/Desktop/GD32VW553/V1_MQTT_OK/GD32VW55X_Wifi_BLE_SDK/GD32VW55x_RELEASE_V1.0.2/MSDK/wpa_supplicant/src/common\hw_features_common.c **** #ifndef CONFIG_AP_NO_40MHZ_AND_MORE
 404:C:/Users/stapi/OneDrive/Desktop/GD32VW553/V1_MQTT_OK/GD32VW55X_Wifi_BLE_SDK/GD32VW55x_RELEASE_V1.0.2/MSDK/wpa_supplicant/src/common\hw_features_common.c **** 	if (oper_chwidth == CHANWIDTH_80MHZ)
 405:C:/Users/stapi/OneDrive/Desktop/GD32VW553/V1_MQTT_OK/GD32VW55X_Wifi_BLE_SDK/GD32VW55x_RELEASE_V1.0.2/MSDK/wpa_supplicant/src/common\hw_features_common.c **** 		data->bandwidth = 80;
 406:C:/Users/stapi/OneDrive/Desktop/GD32VW553/V1_MQTT_OK/GD32VW55X_Wifi_BLE_SDK/GD32VW55x_RELEASE_V1.0.2/MSDK/wpa_supplicant/src/common\hw_features_common.c **** 	else if (oper_chwidth == CHANWIDTH_160MHZ ||
 407:C:/Users/stapi/OneDrive/Desktop/GD32VW553/V1_MQTT_OK/GD32VW55X_Wifi_BLE_SDK/GD32VW55x_RELEASE_V1.0.2/MSDK/wpa_supplicant/src/common\hw_features_common.c **** 		 oper_chwidth == CHANWIDTH_80P80MHZ)
 408:C:/Users/stapi/OneDrive/Desktop/GD32VW553/V1_MQTT_OK/GD32VW55X_Wifi_BLE_SDK/GD32VW55x_RELEASE_V1.0.2/MSDK/wpa_supplicant/src/common\hw_features_common.c **** 		data->bandwidth = 160;
 409:C:/Users/stapi/OneDrive/Desktop/GD32VW553/V1_MQTT_OK/GD32VW55X_Wifi_BLE_SDK/GD32VW55x_RELEASE_V1.0.2/MSDK/wpa_supplicant/src/common\hw_features_common.c **** 	else if (sec_channel_offset)
 410:C:/Users/stapi/OneDrive/Desktop/GD32VW553/V1_MQTT_OK/GD32VW55X_Wifi_BLE_SDK/GD32VW55x_RELEASE_V1.0.2/MSDK/wpa_supplicant/src/common\hw_features_common.c **** 		data->bandwidth = 40;
 411:C:/Users/stapi/OneDrive/Desktop/GD32VW553/V1_MQTT_OK/GD32VW55X_Wifi_BLE_SDK/GD32VW55x_RELEASE_V1.0.2/MSDK/wpa_supplicant/src/common\hw_features_common.c **** 	else
 412:C:/Users/stapi/OneDrive/Desktop/GD32VW553/V1_MQTT_OK/GD32VW55X_Wifi_BLE_SDK/GD32VW55x_RELEASE_V1.0.2/MSDK/wpa_supplicant/src/common\hw_features_common.c **** #endif /* CONFIG_AP_NO_40MHZ_AND_MORE */
 413:C:/Users/stapi/OneDrive/Desktop/GD32VW553/V1_MQTT_OK/GD32VW55X_Wifi_BLE_SDK/GD32VW55x_RELEASE_V1.0.2/MSDK/wpa_supplicant/src/common\hw_features_common.c **** 		data->bandwidth = 20;
 1220              		.loc 1 413 19
 1221 0048 D147     		li	a5,20
 394:C:/Users/stapi/OneDrive/Desktop/GD32VW553/V1_MQTT_OK/GD32VW55X_Wifi_BLE_SDK/GD32VW55x_RELEASE_V1.0.2/MSDK/wpa_supplicant/src/common\hw_features_common.c **** 	data->freq = freq;
 1222              		.loc 1 394 13
 1223 004a 23A06901 		sw	s6,0(s3)
 395:C:/Users/stapi/OneDrive/Desktop/GD32VW553/V1_MQTT_OK/GD32VW55X_Wifi_BLE_SDK/GD32VW55x_RELEASE_V1.0.2/MSDK/wpa_supplicant/src/common\hw_features_common.c **** 	data->channel = channel;
 1224              		.loc 1 395 2 is_stmt 1
 395:C:/Users/stapi/OneDrive/Desktop/GD32VW553/V1_MQTT_OK/GD32VW55X_Wifi_BLE_SDK/GD32VW55x_RELEASE_V1.0.2/MSDK/wpa_supplicant/src/common\hw_features_common.c **** 	data->channel = channel;
 1225              		.loc 1 395 13 is_stmt 0
 1226 004e 23A29901 		sw	s9,4(s3)
 396:C:/Users/stapi/OneDrive/Desktop/GD32VW553/V1_MQTT_OK/GD32VW55X_Wifi_BLE_SDK/GD32VW55x_RELEASE_V1.0.2/MSDK/wpa_supplicant/src/common\hw_features_common.c **** 	data->ht_enabled = ht_enabled;
 1227              		.loc 1 396 2 is_stmt 1
 396:C:/Users/stapi/OneDrive/Desktop/GD32VW553/V1_MQTT_OK/GD32VW55X_Wifi_BLE_SDK/GD32VW55x_RELEASE_V1.0.2/MSDK/wpa_supplicant/src/common\hw_features_common.c **** 	data->ht_enabled = ht_enabled;
 1228              		.loc 1 396 16 is_stmt 0
 1229 0052 23A49900 		sw	s1,8(s3)
 397:C:/Users/stapi/OneDrive/Desktop/GD32VW553/V1_MQTT_OK/GD32VW55X_Wifi_BLE_SDK/GD32VW55x_RELEASE_V1.0.2/MSDK/wpa_supplicant/src/common\hw_features_common.c **** 	data->vht_enabled = vht_enabled;
 1230              		.loc 1 397 2 is_stmt 1
 397:C:/Users/stapi/OneDrive/Desktop/GD32VW553/V1_MQTT_OK/GD32VW55X_Wifi_BLE_SDK/GD32VW55x_RELEASE_V1.0.2/MSDK/wpa_supplicant/src/common\hw_features_common.c **** 	data->vht_enabled = vht_enabled;
 1231              		.loc 1 397 19 is_stmt 0
 1232 0056 23A60901 		sw	a6,12(s3)
 398:C:/Users/stapi/OneDrive/Desktop/GD32VW553/V1_MQTT_OK/GD32VW55X_Wifi_BLE_SDK/GD32VW55x_RELEASE_V1.0.2/MSDK/wpa_supplicant/src/common\hw_features_common.c **** 	data->he_enabled = he_enabled;
 1233              		.loc 1 398 2 is_stmt 1
 398:C:/Users/stapi/OneDrive/Desktop/GD32VW553/V1_MQTT_OK/GD32VW55X_Wifi_BLE_SDK/GD32VW55x_RELEASE_V1.0.2/MSDK/wpa_supplicant/src/common\hw_features_common.c **** 	data->he_enabled = he_enabled;
 1234              		.loc 1 398 20 is_stmt 0
 1235 005a 23AA7901 		sw	s7,20(s3)
 399:C:/Users/stapi/OneDrive/Desktop/GD32VW553/V1_MQTT_OK/GD32VW55X_Wifi_BLE_SDK/GD32VW55x_RELEASE_V1.0.2/MSDK/wpa_supplicant/src/common\hw_features_common.c **** 	data->sec_channel_offset = sec_channel_offset;
 1236              		.loc 1 399 2 is_stmt 1
 399:C:/Users/stapi/OneDrive/Desktop/GD32VW553/V1_MQTT_OK/GD32VW55X_Wifi_BLE_SDK/GD32VW55x_RELEASE_V1.0.2/MSDK/wpa_supplicant/src/common\hw_features_common.c **** 	data->sec_channel_offset = sec_channel_offset;
 1237              		.loc 1 399 19 is_stmt 0
 1238 005e 23AC8901 		sw	s8,24(s3)
 400:C:/Users/stapi/OneDrive/Desktop/GD32VW553/V1_MQTT_OK/GD32VW55X_Wifi_BLE_SDK/GD32VW55x_RELEASE_V1.0.2/MSDK/wpa_supplicant/src/common\hw_features_common.c **** 	data->center_freq1 = freq + sec_channel_offset * 10;
 1239              		.loc 1 400 2 is_stmt 1
 400:C:/Users/stapi/OneDrive/Desktop/GD32VW553/V1_MQTT_OK/GD32VW55X_Wifi_BLE_SDK/GD32VW55x_RELEASE_V1.0.2/MSDK/wpa_supplicant/src/common\hw_features_common.c **** 	data->center_freq1 = freq + sec_channel_offset * 10;
 1240              		.loc 1 400 27 is_stmt 0
 1241 0062 23A8B901 		sw	s11,16(s3)
 401:C:/Users/stapi/OneDrive/Desktop/GD32VW553/V1_MQTT_OK/GD32VW55X_Wifi_BLE_SDK/GD32VW55x_RELEASE_V1.0.2/MSDK/wpa_supplicant/src/common\hw_features_common.c **** 	data->center_freq2 = 0;
 1242              		.loc 1 401 2 is_stmt 1
 401:C:/Users/stapi/OneDrive/Desktop/GD32VW553/V1_MQTT_OK/GD32VW55X_Wifi_BLE_SDK/GD32VW55x_RELEASE_V1.0.2/MSDK/wpa_supplicant/src/common\hw_features_common.c **** 	data->center_freq2 = 0;
 1243              		.loc 1 401 21 is_stmt 0
 1244 0066 23AED900 		sw	a3,28(s3)
 402:C:/Users/stapi/OneDrive/Desktop/GD32VW553/V1_MQTT_OK/GD32VW55X_Wifi_BLE_SDK/GD32VW55x_RELEASE_V1.0.2/MSDK/wpa_supplicant/src/common\hw_features_common.c **** #ifndef CONFIG_AP_NO_40MHZ_AND_MORE
 1245              		.loc 1 402 2 is_stmt 1
 402:C:/Users/stapi/OneDrive/Desktop/GD32VW553/V1_MQTT_OK/GD32VW55X_Wifi_BLE_SDK/GD32VW55x_RELEASE_V1.0.2/MSDK/wpa_supplicant/src/common\hw_features_common.c **** #ifndef CONFIG_AP_NO_40MHZ_AND_MORE
 1246              		.loc 1 402 21 is_stmt 0
 1247 006a 23A00902 		sw	zero,32(s3)
 1248              		.loc 1 413 3 is_stmt 1
 1249              		.loc 1 413 19 is_stmt 0
 1250 006e 23A2F902 		sw	a5,36(s3)
 414:C:/Users/stapi/OneDrive/Desktop/GD32VW553/V1_MQTT_OK/GD32VW55X_Wifi_BLE_SDK/GD32VW55x_RELEASE_V1.0.2/MSDK/wpa_supplicant/src/common\hw_features_common.c **** 
 415:C:/Users/stapi/OneDrive/Desktop/GD32VW553/V1_MQTT_OK/GD32VW55X_Wifi_BLE_SDK/GD32VW55x_RELEASE_V1.0.2/MSDK/wpa_supplicant/src/common\hw_features_common.c **** 
 416:C:/Users/stapi/OneDrive/Desktop/GD32VW553/V1_MQTT_OK/GD32VW55X_Wifi_BLE_SDK/GD32VW55x_RELEASE_V1.0.2/MSDK/wpa_supplicant/src/common\hw_features_common.c **** #ifndef CONFIG_NO_EDMG_SUPPORT
 417:C:/Users/stapi/OneDrive/Desktop/GD32VW553/V1_MQTT_OK/GD32VW55X_Wifi_BLE_SDK/GD32VW55x_RELEASE_V1.0.2/MSDK/wpa_supplicant/src/common\hw_features_common.c **** 	hostapd_encode_edmg_chan(enable_edmg, edmg_channel, channel,
 418:C:/Users/stapi/OneDrive/Desktop/GD32VW553/V1_MQTT_OK/GD32VW55X_Wifi_BLE_SDK/GD32VW55x_RELEASE_V1.0.2/MSDK/wpa_supplicant/src/common\hw_features_common.c **** 				 &data->edmg);
 419:C:/Users/stapi/OneDrive/Desktop/GD32VW553/V1_MQTT_OK/GD32VW55X_Wifi_BLE_SDK/GD32VW55x_RELEASE_V1.0.2/MSDK/wpa_supplicant/src/common\hw_features_common.c **** #endif /* CONFIG_NO_EDMG_SUPPORT */
 420:C:/Users/stapi/OneDrive/Desktop/GD32VW553/V1_MQTT_OK/GD32VW55X_Wifi_BLE_SDK/GD32VW55x_RELEASE_V1.0.2/MSDK/wpa_supplicant/src/common\hw_features_common.c **** 
 421:C:/Users/stapi/OneDrive/Desktop/GD32VW553/V1_MQTT_OK/GD32VW55X_Wifi_BLE_SDK/GD32VW55x_RELEASE_V1.0.2/MSDK/wpa_supplicant/src/common\hw_features_common.c **** #ifndef CONFIG_AP_NO_5GHZ_AND_MORE
 422:C:/Users/stapi/OneDrive/Desktop/GD32VW553/V1_MQTT_OK/GD32VW55X_Wifi_BLE_SDK/GD32VW55x_RELEASE_V1.0.2/MSDK/wpa_supplicant/src/common\hw_features_common.c **** 	if (is_6ghz_freq(freq)) {
 423:C:/Users/stapi/OneDrive/Desktop/GD32VW553/V1_MQTT_OK/GD32VW55X_Wifi_BLE_SDK/GD32VW55x_RELEASE_V1.0.2/MSDK/wpa_supplicant/src/common\hw_features_common.c **** 		if (!data->he_enabled) {
 424:C:/Users/stapi/OneDrive/Desktop/GD32VW553/V1_MQTT_OK/GD32VW55X_Wifi_BLE_SDK/GD32VW55x_RELEASE_V1.0.2/MSDK/wpa_supplicant/src/common\hw_features_common.c **** 			wpa_printf(MSG_ERROR,
 425:C:/Users/stapi/OneDrive/Desktop/GD32VW553/V1_MQTT_OK/GD32VW55X_Wifi_BLE_SDK/GD32VW55x_RELEASE_V1.0.2/MSDK/wpa_supplicant/src/common\hw_features_common.c **** 				   "Can't set 6 GHz mode - HE isn't enabled");
 426:C:/Users/stapi/OneDrive/Desktop/GD32VW553/V1_MQTT_OK/GD32VW55X_Wifi_BLE_SDK/GD32VW55x_RELEASE_V1.0.2/MSDK/wpa_supplicant/src/common\hw_features_common.c **** 			return -1;
 427:C:/Users/stapi/OneDrive/Desktop/GD32VW553/V1_MQTT_OK/GD32VW55X_Wifi_BLE_SDK/GD32VW55x_RELEASE_V1.0.2/MSDK/wpa_supplicant/src/common\hw_features_common.c **** 		}
 428:C:/Users/stapi/OneDrive/Desktop/GD32VW553/V1_MQTT_OK/GD32VW55X_Wifi_BLE_SDK/GD32VW55x_RELEASE_V1.0.2/MSDK/wpa_supplicant/src/common\hw_features_common.c **** 
 429:C:/Users/stapi/OneDrive/Desktop/GD32VW553/V1_MQTT_OK/GD32VW55X_Wifi_BLE_SDK/GD32VW55x_RELEASE_V1.0.2/MSDK/wpa_supplicant/src/common\hw_features_common.c **** 		if (center_idx_to_bw_6ghz(channel) < 0) {
 430:C:/Users/stapi/OneDrive/Desktop/GD32VW553/V1_MQTT_OK/GD32VW55X_Wifi_BLE_SDK/GD32VW55x_RELEASE_V1.0.2/MSDK/wpa_supplicant/src/common\hw_features_common.c **** 			wpa_printf(MSG_ERROR,
 431:C:/Users/stapi/OneDrive/Desktop/GD32VW553/V1_MQTT_OK/GD32VW55X_Wifi_BLE_SDK/GD32VW55x_RELEASE_V1.0.2/MSDK/wpa_supplicant/src/common\hw_features_common.c **** 				   "Invalid control channel for 6 GHz band");
 432:C:/Users/stapi/OneDrive/Desktop/GD32VW553/V1_MQTT_OK/GD32VW55X_Wifi_BLE_SDK/GD32VW55x_RELEASE_V1.0.2/MSDK/wpa_supplicant/src/common\hw_features_common.c **** 			return -1;
 433:C:/Users/stapi/OneDrive/Desktop/GD32VW553/V1_MQTT_OK/GD32VW55X_Wifi_BLE_SDK/GD32VW55x_RELEASE_V1.0.2/MSDK/wpa_supplicant/src/common\hw_features_common.c **** 		}
 434:C:/Users/stapi/OneDrive/Desktop/GD32VW553/V1_MQTT_OK/GD32VW55X_Wifi_BLE_SDK/GD32VW55x_RELEASE_V1.0.2/MSDK/wpa_supplicant/src/common\hw_features_common.c **** 
 435:C:/Users/stapi/OneDrive/Desktop/GD32VW553/V1_MQTT_OK/GD32VW55X_Wifi_BLE_SDK/GD32VW55x_RELEASE_V1.0.2/MSDK/wpa_supplicant/src/common\hw_features_common.c **** 		if (!center_segment0) {
 436:C:/Users/stapi/OneDrive/Desktop/GD32VW553/V1_MQTT_OK/GD32VW55X_Wifi_BLE_SDK/GD32VW55x_RELEASE_V1.0.2/MSDK/wpa_supplicant/src/common\hw_features_common.c **** 			if (center_segment1) {
 437:C:/Users/stapi/OneDrive/Desktop/GD32VW553/V1_MQTT_OK/GD32VW55X_Wifi_BLE_SDK/GD32VW55x_RELEASE_V1.0.2/MSDK/wpa_supplicant/src/common\hw_features_common.c **** 				wpa_printf(MSG_ERROR,
 438:C:/Users/stapi/OneDrive/Desktop/GD32VW553/V1_MQTT_OK/GD32VW55X_Wifi_BLE_SDK/GD32VW55x_RELEASE_V1.0.2/MSDK/wpa_supplicant/src/common\hw_features_common.c **** 					   "Segment 0 center frequency isn't set");
 439:C:/Users/stapi/OneDrive/Desktop/GD32VW553/V1_MQTT_OK/GD32VW55X_Wifi_BLE_SDK/GD32VW55x_RELEASE_V1.0.2/MSDK/wpa_supplicant/src/common\hw_features_common.c **** 				return -1;
 440:C:/Users/stapi/OneDrive/Desktop/GD32VW553/V1_MQTT_OK/GD32VW55X_Wifi_BLE_SDK/GD32VW55x_RELEASE_V1.0.2/MSDK/wpa_supplicant/src/common\hw_features_common.c **** 			}
 441:C:/Users/stapi/OneDrive/Desktop/GD32VW553/V1_MQTT_OK/GD32VW55X_Wifi_BLE_SDK/GD32VW55x_RELEASE_V1.0.2/MSDK/wpa_supplicant/src/common\hw_features_common.c **** 			if (!sec_channel_offset)
 442:C:/Users/stapi/OneDrive/Desktop/GD32VW553/V1_MQTT_OK/GD32VW55X_Wifi_BLE_SDK/GD32VW55x_RELEASE_V1.0.2/MSDK/wpa_supplicant/src/common\hw_features_common.c **** 				data->center_freq1 = data->freq;
 443:C:/Users/stapi/OneDrive/Desktop/GD32VW553/V1_MQTT_OK/GD32VW55X_Wifi_BLE_SDK/GD32VW55x_RELEASE_V1.0.2/MSDK/wpa_supplicant/src/common\hw_features_common.c **** 		} else {
 444:C:/Users/stapi/OneDrive/Desktop/GD32VW553/V1_MQTT_OK/GD32VW55X_Wifi_BLE_SDK/GD32VW55x_RELEASE_V1.0.2/MSDK/wpa_supplicant/src/common\hw_features_common.c **** 			int freq1, freq2 = 0;
 445:C:/Users/stapi/OneDrive/Desktop/GD32VW553/V1_MQTT_OK/GD32VW55X_Wifi_BLE_SDK/GD32VW55x_RELEASE_V1.0.2/MSDK/wpa_supplicant/src/common\hw_features_common.c **** 			int bw = center_idx_to_bw_6ghz(center_segment0);
 446:C:/Users/stapi/OneDrive/Desktop/GD32VW553/V1_MQTT_OK/GD32VW55X_Wifi_BLE_SDK/GD32VW55x_RELEASE_V1.0.2/MSDK/wpa_supplicant/src/common\hw_features_common.c **** 
 447:C:/Users/stapi/OneDrive/Desktop/GD32VW553/V1_MQTT_OK/GD32VW55X_Wifi_BLE_SDK/GD32VW55x_RELEASE_V1.0.2/MSDK/wpa_supplicant/src/common\hw_features_common.c **** 			if (bw < 0) {
 448:C:/Users/stapi/OneDrive/Desktop/GD32VW553/V1_MQTT_OK/GD32VW55X_Wifi_BLE_SDK/GD32VW55x_RELEASE_V1.0.2/MSDK/wpa_supplicant/src/common\hw_features_common.c **** 				wpa_printf(MSG_ERROR,
 449:C:/Users/stapi/OneDrive/Desktop/GD32VW553/V1_MQTT_OK/GD32VW55X_Wifi_BLE_SDK/GD32VW55x_RELEASE_V1.0.2/MSDK/wpa_supplicant/src/common\hw_features_common.c **** 					   "Invalid center frequency index for 6 GHz");
 450:C:/Users/stapi/OneDrive/Desktop/GD32VW553/V1_MQTT_OK/GD32VW55X_Wifi_BLE_SDK/GD32VW55x_RELEASE_V1.0.2/MSDK/wpa_supplicant/src/common\hw_features_common.c **** 				return -1;
 451:C:/Users/stapi/OneDrive/Desktop/GD32VW553/V1_MQTT_OK/GD32VW55X_Wifi_BLE_SDK/GD32VW55x_RELEASE_V1.0.2/MSDK/wpa_supplicant/src/common\hw_features_common.c **** 			}
 452:C:/Users/stapi/OneDrive/Desktop/GD32VW553/V1_MQTT_OK/GD32VW55X_Wifi_BLE_SDK/GD32VW55x_RELEASE_V1.0.2/MSDK/wpa_supplicant/src/common\hw_features_common.c **** 
 453:C:/Users/stapi/OneDrive/Desktop/GD32VW553/V1_MQTT_OK/GD32VW55X_Wifi_BLE_SDK/GD32VW55x_RELEASE_V1.0.2/MSDK/wpa_supplicant/src/common\hw_features_common.c **** 			freq1 = ieee80211_chan_to_freq(NULL, 131,
 454:C:/Users/stapi/OneDrive/Desktop/GD32VW553/V1_MQTT_OK/GD32VW55X_Wifi_BLE_SDK/GD32VW55x_RELEASE_V1.0.2/MSDK/wpa_supplicant/src/common\hw_features_common.c **** 						       center_segment0);
 455:C:/Users/stapi/OneDrive/Desktop/GD32VW553/V1_MQTT_OK/GD32VW55X_Wifi_BLE_SDK/GD32VW55x_RELEASE_V1.0.2/MSDK/wpa_supplicant/src/common\hw_features_common.c **** 			if (freq1 < 0) {
 456:C:/Users/stapi/OneDrive/Desktop/GD32VW553/V1_MQTT_OK/GD32VW55X_Wifi_BLE_SDK/GD32VW55x_RELEASE_V1.0.2/MSDK/wpa_supplicant/src/common\hw_features_common.c **** 				wpa_printf(MSG_ERROR,
 457:C:/Users/stapi/OneDrive/Desktop/GD32VW553/V1_MQTT_OK/GD32VW55X_Wifi_BLE_SDK/GD32VW55x_RELEASE_V1.0.2/MSDK/wpa_supplicant/src/common\hw_features_common.c **** 					   "Invalid segment 0 center frequency for 6 GHz");
 458:C:/Users/stapi/OneDrive/Desktop/GD32VW553/V1_MQTT_OK/GD32VW55X_Wifi_BLE_SDK/GD32VW55x_RELEASE_V1.0.2/MSDK/wpa_supplicant/src/common\hw_features_common.c **** 				return -1;
 459:C:/Users/stapi/OneDrive/Desktop/GD32VW553/V1_MQTT_OK/GD32VW55X_Wifi_BLE_SDK/GD32VW55x_RELEASE_V1.0.2/MSDK/wpa_supplicant/src/common\hw_features_common.c **** 			}
 460:C:/Users/stapi/OneDrive/Desktop/GD32VW553/V1_MQTT_OK/GD32VW55X_Wifi_BLE_SDK/GD32VW55x_RELEASE_V1.0.2/MSDK/wpa_supplicant/src/common\hw_features_common.c **** 
 461:C:/Users/stapi/OneDrive/Desktop/GD32VW553/V1_MQTT_OK/GD32VW55X_Wifi_BLE_SDK/GD32VW55x_RELEASE_V1.0.2/MSDK/wpa_supplicant/src/common\hw_features_common.c **** 			if (center_segment1) {
 462:C:/Users/stapi/OneDrive/Desktop/GD32VW553/V1_MQTT_OK/GD32VW55X_Wifi_BLE_SDK/GD32VW55x_RELEASE_V1.0.2/MSDK/wpa_supplicant/src/common\hw_features_common.c **** 				if (center_idx_to_bw_6ghz(center_segment1) != 2 ||
 463:C:/Users/stapi/OneDrive/Desktop/GD32VW553/V1_MQTT_OK/GD32VW55X_Wifi_BLE_SDK/GD32VW55x_RELEASE_V1.0.2/MSDK/wpa_supplicant/src/common\hw_features_common.c **** 				    bw != 2) {
 464:C:/Users/stapi/OneDrive/Desktop/GD32VW553/V1_MQTT_OK/GD32VW55X_Wifi_BLE_SDK/GD32VW55x_RELEASE_V1.0.2/MSDK/wpa_supplicant/src/common\hw_features_common.c **** 					wpa_printf(MSG_ERROR,
 465:C:/Users/stapi/OneDrive/Desktop/GD32VW553/V1_MQTT_OK/GD32VW55X_Wifi_BLE_SDK/GD32VW55x_RELEASE_V1.0.2/MSDK/wpa_supplicant/src/common\hw_features_common.c **** 						   "6 GHz 80+80 MHz configuration doesn't use valid 80 MHz channels");
 466:C:/Users/stapi/OneDrive/Desktop/GD32VW553/V1_MQTT_OK/GD32VW55X_Wifi_BLE_SDK/GD32VW55x_RELEASE_V1.0.2/MSDK/wpa_supplicant/src/common\hw_features_common.c **** 					return -1;
 467:C:/Users/stapi/OneDrive/Desktop/GD32VW553/V1_MQTT_OK/GD32VW55X_Wifi_BLE_SDK/GD32VW55x_RELEASE_V1.0.2/MSDK/wpa_supplicant/src/common\hw_features_common.c **** 				}
 468:C:/Users/stapi/OneDrive/Desktop/GD32VW553/V1_MQTT_OK/GD32VW55X_Wifi_BLE_SDK/GD32VW55x_RELEASE_V1.0.2/MSDK/wpa_supplicant/src/common\hw_features_common.c **** 
 469:C:/Users/stapi/OneDrive/Desktop/GD32VW553/V1_MQTT_OK/GD32VW55X_Wifi_BLE_SDK/GD32VW55x_RELEASE_V1.0.2/MSDK/wpa_supplicant/src/common\hw_features_common.c **** 				freq2 = ieee80211_chan_to_freq(NULL, 131,
 470:C:/Users/stapi/OneDrive/Desktop/GD32VW553/V1_MQTT_OK/GD32VW55X_Wifi_BLE_SDK/GD32VW55x_RELEASE_V1.0.2/MSDK/wpa_supplicant/src/common\hw_features_common.c **** 							       center_segment1);
 471:C:/Users/stapi/OneDrive/Desktop/GD32VW553/V1_MQTT_OK/GD32VW55X_Wifi_BLE_SDK/GD32VW55x_RELEASE_V1.0.2/MSDK/wpa_supplicant/src/common\hw_features_common.c **** 				if (freq2 < 0) {
 472:C:/Users/stapi/OneDrive/Desktop/GD32VW553/V1_MQTT_OK/GD32VW55X_Wifi_BLE_SDK/GD32VW55x_RELEASE_V1.0.2/MSDK/wpa_supplicant/src/common\hw_features_common.c **** 					wpa_printf(MSG_ERROR,
 473:C:/Users/stapi/OneDrive/Desktop/GD32VW553/V1_MQTT_OK/GD32VW55X_Wifi_BLE_SDK/GD32VW55x_RELEASE_V1.0.2/MSDK/wpa_supplicant/src/common\hw_features_common.c **** 						   "Invalid segment 1 center frequency for UHB");
 474:C:/Users/stapi/OneDrive/Desktop/GD32VW553/V1_MQTT_OK/GD32VW55X_Wifi_BLE_SDK/GD32VW55x_RELEASE_V1.0.2/MSDK/wpa_supplicant/src/common\hw_features_common.c **** 					return -1;
 475:C:/Users/stapi/OneDrive/Desktop/GD32VW553/V1_MQTT_OK/GD32VW55X_Wifi_BLE_SDK/GD32VW55x_RELEASE_V1.0.2/MSDK/wpa_supplicant/src/common\hw_features_common.c **** 				}
 476:C:/Users/stapi/OneDrive/Desktop/GD32VW553/V1_MQTT_OK/GD32VW55X_Wifi_BLE_SDK/GD32VW55x_RELEASE_V1.0.2/MSDK/wpa_supplicant/src/common\hw_features_common.c **** 			}
 477:C:/Users/stapi/OneDrive/Desktop/GD32VW553/V1_MQTT_OK/GD32VW55X_Wifi_BLE_SDK/GD32VW55x_RELEASE_V1.0.2/MSDK/wpa_supplicant/src/common\hw_features_common.c **** 
 478:C:/Users/stapi/OneDrive/Desktop/GD32VW553/V1_MQTT_OK/GD32VW55X_Wifi_BLE_SDK/GD32VW55x_RELEASE_V1.0.2/MSDK/wpa_supplicant/src/common\hw_features_common.c **** 			data->bandwidth = (1 << (u8) bw) * 20;
 479:C:/Users/stapi/OneDrive/Desktop/GD32VW553/V1_MQTT_OK/GD32VW55X_Wifi_BLE_SDK/GD32VW55x_RELEASE_V1.0.2/MSDK/wpa_supplicant/src/common\hw_features_common.c **** 			data->center_freq1 = freq1;
 480:C:/Users/stapi/OneDrive/Desktop/GD32VW553/V1_MQTT_OK/GD32VW55X_Wifi_BLE_SDK/GD32VW55x_RELEASE_V1.0.2/MSDK/wpa_supplicant/src/common\hw_features_common.c **** 			data->center_freq2 = freq2;
 481:C:/Users/stapi/OneDrive/Desktop/GD32VW553/V1_MQTT_OK/GD32VW55X_Wifi_BLE_SDK/GD32VW55x_RELEASE_V1.0.2/MSDK/wpa_supplicant/src/common\hw_features_common.c **** 		}
 482:C:/Users/stapi/OneDrive/Desktop/GD32VW553/V1_MQTT_OK/GD32VW55X_Wifi_BLE_SDK/GD32VW55x_RELEASE_V1.0.2/MSDK/wpa_supplicant/src/common\hw_features_common.c **** 		data->ht_enabled = 0;
 483:C:/Users/stapi/OneDrive/Desktop/GD32VW553/V1_MQTT_OK/GD32VW55X_Wifi_BLE_SDK/GD32VW55x_RELEASE_V1.0.2/MSDK/wpa_supplicant/src/common\hw_features_common.c **** 		data->vht_enabled = 0;
 484:C:/Users/stapi/OneDrive/Desktop/GD32VW553/V1_MQTT_OK/GD32VW55X_Wifi_BLE_SDK/GD32VW55x_RELEASE_V1.0.2/MSDK/wpa_supplicant/src/common\hw_features_common.c **** 
 485:C:/Users/stapi/OneDrive/Desktop/GD32VW553/V1_MQTT_OK/GD32VW55X_Wifi_BLE_SDK/GD32VW55x_RELEASE_V1.0.2/MSDK/wpa_supplicant/src/common\hw_features_common.c **** 		return 0;
 486:C:/Users/stapi/OneDrive/Desktop/GD32VW553/V1_MQTT_OK/GD32VW55X_Wifi_BLE_SDK/GD32VW55x_RELEASE_V1.0.2/MSDK/wpa_supplicant/src/common\hw_features_common.c **** 	}
 487:C:/Users/stapi/OneDrive/Desktop/GD32VW553/V1_MQTT_OK/GD32VW55X_Wifi_BLE_SDK/GD32VW55x_RELEASE_V1.0.2/MSDK/wpa_supplicant/src/common\hw_features_common.c **** #endif /* CONFIG_AP_NO_5GHZ_AND_MORE */
 488:C:/Users/stapi/OneDrive/Desktop/GD32VW553/V1_MQTT_OK/GD32VW55X_Wifi_BLE_SDK/GD32VW55x_RELEASE_V1.0.2/MSDK/wpa_supplicant/src/common\hw_features_common.c **** 
 489:C:/Users/stapi/OneDrive/Desktop/GD32VW553/V1_MQTT_OK/GD32VW55X_Wifi_BLE_SDK/GD32VW55x_RELEASE_V1.0.2/MSDK/wpa_supplicant/src/common\hw_features_common.c **** 	if (data->he_enabled) switch (oper_chwidth) {
 1251              		.loc 1 489 2 is_stmt 1
 1252              		.loc 1 489 5 is_stmt 0
 1253 0072 63050C08 		beq	s8,zero,.L121
 1254              		.loc 1 489 24 is_stmt 1
 1255 0076 8947     		li	a5,2
 1256 0078 6308FA06 		beq	s4,a5,.L122
 1257 007c 63CB4701 		bgt	s4,a5,.L123
 1258 0080 63050A02 		beq	s4,zero,.L124
 1259 0084 0547     		li	a4,1
 1260 0086 6305EA04 		beq	s4,a4,.L125
 1261              	.LVL108:
 1262              	.L154:
 490:C:/Users/stapi/OneDrive/Desktop/GD32VW553/V1_MQTT_OK/GD32VW55X_Wifi_BLE_SDK/GD32VW55x_RELEASE_V1.0.2/MSDK/wpa_supplicant/src/common\hw_features_common.c **** 	case CHANWIDTH_USE_HT:
 491:C:/Users/stapi/OneDrive/Desktop/GD32VW553/V1_MQTT_OK/GD32VW55X_Wifi_BLE_SDK/GD32VW55x_RELEASE_V1.0.2/MSDK/wpa_supplicant/src/common\hw_features_common.c **** 		if (sec_channel_offset == 0)
 492:C:/Users/stapi/OneDrive/Desktop/GD32VW553/V1_MQTT_OK/GD32VW55X_Wifi_BLE_SDK/GD32VW55x_RELEASE_V1.0.2/MSDK/wpa_supplicant/src/common\hw_features_common.c **** 			break;
 493:C:/Users/stapi/OneDrive/Desktop/GD32VW553/V1_MQTT_OK/GD32VW55X_Wifi_BLE_SDK/GD32VW55x_RELEASE_V1.0.2/MSDK/wpa_supplicant/src/common\hw_features_common.c **** 
 494:C:/Users/stapi/OneDrive/Desktop/GD32VW553/V1_MQTT_OK/GD32VW55X_Wifi_BLE_SDK/GD32VW55x_RELEASE_V1.0.2/MSDK/wpa_supplicant/src/common\hw_features_common.c **** 		if (mode == HOSTAPD_MODE_IEEE80211G) {
 495:C:/Users/stapi/OneDrive/Desktop/GD32VW553/V1_MQTT_OK/GD32VW55X_Wifi_BLE_SDK/GD32VW55x_RELEASE_V1.0.2/MSDK/wpa_supplicant/src/common\hw_features_common.c **** 			if (!(he_cap->phy_cap[HE_PHYCAP_CHANNEL_WIDTH_SET_IDX] &
 496:C:/Users/stapi/OneDrive/Desktop/GD32VW553/V1_MQTT_OK/GD32VW55X_Wifi_BLE_SDK/GD32VW55x_RELEASE_V1.0.2/MSDK/wpa_supplicant/src/common\hw_features_common.c **** 			      HE_PHYCAP_CHANNEL_WIDTH_SET_40MHZ_IN_2G)) {
 497:C:/Users/stapi/OneDrive/Desktop/GD32VW553/V1_MQTT_OK/GD32VW55X_Wifi_BLE_SDK/GD32VW55x_RELEASE_V1.0.2/MSDK/wpa_supplicant/src/common\hw_features_common.c **** 				wpa_printf(MSG_ERROR,
 498:C:/Users/stapi/OneDrive/Desktop/GD32VW553/V1_MQTT_OK/GD32VW55X_Wifi_BLE_SDK/GD32VW55x_RELEASE_V1.0.2/MSDK/wpa_supplicant/src/common\hw_features_common.c **** 					   "40 MHz channel width is not supported in 2.4 GHz");
 499:C:/Users/stapi/OneDrive/Desktop/GD32VW553/V1_MQTT_OK/GD32VW55X_Wifi_BLE_SDK/GD32VW55x_RELEASE_V1.0.2/MSDK/wpa_supplicant/src/common\hw_features_common.c **** 				return -1;
 500:C:/Users/stapi/OneDrive/Desktop/GD32VW553/V1_MQTT_OK/GD32VW55X_Wifi_BLE_SDK/GD32VW55x_RELEASE_V1.0.2/MSDK/wpa_supplicant/src/common\hw_features_common.c **** 			}
 501:C:/Users/stapi/OneDrive/Desktop/GD32VW553/V1_MQTT_OK/GD32VW55X_Wifi_BLE_SDK/GD32VW55x_RELEASE_V1.0.2/MSDK/wpa_supplicant/src/common\hw_features_common.c **** 			break;
 502:C:/Users/stapi/OneDrive/Desktop/GD32VW553/V1_MQTT_OK/GD32VW55X_Wifi_BLE_SDK/GD32VW55x_RELEASE_V1.0.2/MSDK/wpa_supplicant/src/common\hw_features_common.c **** 		}
 503:C:/Users/stapi/OneDrive/Desktop/GD32VW553/V1_MQTT_OK/GD32VW55X_Wifi_BLE_SDK/GD32VW55x_RELEASE_V1.0.2/MSDK/wpa_supplicant/src/common\hw_features_common.c **** 		/* fall through */
 504:C:/Users/stapi/OneDrive/Desktop/GD32VW553/V1_MQTT_OK/GD32VW55X_Wifi_BLE_SDK/GD32VW55x_RELEASE_V1.0.2/MSDK/wpa_supplicant/src/common\hw_features_common.c **** 	case CHANWIDTH_80MHZ:
 505:C:/Users/stapi/OneDrive/Desktop/GD32VW553/V1_MQTT_OK/GD32VW55X_Wifi_BLE_SDK/GD32VW55x_RELEASE_V1.0.2/MSDK/wpa_supplicant/src/common\hw_features_common.c **** 		if (mode == HOSTAPD_MODE_IEEE80211A) {
 506:C:/Users/stapi/OneDrive/Desktop/GD32VW553/V1_MQTT_OK/GD32VW55X_Wifi_BLE_SDK/GD32VW55x_RELEASE_V1.0.2/MSDK/wpa_supplicant/src/common\hw_features_common.c **** 			if (!(he_cap->phy_cap[HE_PHYCAP_CHANNEL_WIDTH_SET_IDX] &
 507:C:/Users/stapi/OneDrive/Desktop/GD32VW553/V1_MQTT_OK/GD32VW55X_Wifi_BLE_SDK/GD32VW55x_RELEASE_V1.0.2/MSDK/wpa_supplicant/src/common\hw_features_common.c **** 			      HE_PHYCAP_CHANNEL_WIDTH_SET_40MHZ_80MHZ_IN_5G)) {
 508:C:/Users/stapi/OneDrive/Desktop/GD32VW553/V1_MQTT_OK/GD32VW55X_Wifi_BLE_SDK/GD32VW55x_RELEASE_V1.0.2/MSDK/wpa_supplicant/src/common\hw_features_common.c **** 				wpa_printf(MSG_ERROR,
 509:C:/Users/stapi/OneDrive/Desktop/GD32VW553/V1_MQTT_OK/GD32VW55X_Wifi_BLE_SDK/GD32VW55x_RELEASE_V1.0.2/MSDK/wpa_supplicant/src/common\hw_features_common.c **** 					   "40/80 MHz channel width is not supported in 5/6 GHz");
 510:C:/Users/stapi/OneDrive/Desktop/GD32VW553/V1_MQTT_OK/GD32VW55X_Wifi_BLE_SDK/GD32VW55x_RELEASE_V1.0.2/MSDK/wpa_supplicant/src/common\hw_features_common.c **** 				return -1;
 511:C:/Users/stapi/OneDrive/Desktop/GD32VW553/V1_MQTT_OK/GD32VW55X_Wifi_BLE_SDK/GD32VW55x_RELEASE_V1.0.2/MSDK/wpa_supplicant/src/common\hw_features_common.c **** 			}
 512:C:/Users/stapi/OneDrive/Desktop/GD32VW553/V1_MQTT_OK/GD32VW55X_Wifi_BLE_SDK/GD32VW55x_RELEASE_V1.0.2/MSDK/wpa_supplicant/src/common\hw_features_common.c **** 		}
 513:C:/Users/stapi/OneDrive/Desktop/GD32VW553/V1_MQTT_OK/GD32VW55X_Wifi_BLE_SDK/GD32VW55x_RELEASE_V1.0.2/MSDK/wpa_supplicant/src/common\hw_features_common.c **** 		break;
 514:C:/Users/stapi/OneDrive/Desktop/GD32VW553/V1_MQTT_OK/GD32VW55X_Wifi_BLE_SDK/GD32VW55x_RELEASE_V1.0.2/MSDK/wpa_supplicant/src/common\hw_features_common.c **** 	case CHANWIDTH_80P80MHZ:
 515:C:/Users/stapi/OneDrive/Desktop/GD32VW553/V1_MQTT_OK/GD32VW55X_Wifi_BLE_SDK/GD32VW55x_RELEASE_V1.0.2/MSDK/wpa_supplicant/src/common\hw_features_common.c **** 		if (!(he_cap->phy_cap[HE_PHYCAP_CHANNEL_WIDTH_SET_IDX] &
 516:C:/Users/stapi/OneDrive/Desktop/GD32VW553/V1_MQTT_OK/GD32VW55X_Wifi_BLE_SDK/GD32VW55x_RELEASE_V1.0.2/MSDK/wpa_supplicant/src/common\hw_features_common.c **** 		      HE_PHYCAP_CHANNEL_WIDTH_SET_80PLUS80MHZ_IN_5G)) {
 517:C:/Users/stapi/OneDrive/Desktop/GD32VW553/V1_MQTT_OK/GD32VW55X_Wifi_BLE_SDK/GD32VW55x_RELEASE_V1.0.2/MSDK/wpa_supplicant/src/common\hw_features_common.c **** 			wpa_printf(MSG_ERROR,
 518:C:/Users/stapi/OneDrive/Desktop/GD32VW553/V1_MQTT_OK/GD32VW55X_Wifi_BLE_SDK/GD32VW55x_RELEASE_V1.0.2/MSDK/wpa_supplicant/src/common\hw_features_common.c **** 				   "80+80 MHz channel width is not supported in 5/6 GHz");
 519:C:/Users/stapi/OneDrive/Desktop/GD32VW553/V1_MQTT_OK/GD32VW55X_Wifi_BLE_SDK/GD32VW55x_RELEASE_V1.0.2/MSDK/wpa_supplicant/src/common\hw_features_common.c **** 			return -1;
 520:C:/Users/stapi/OneDrive/Desktop/GD32VW553/V1_MQTT_OK/GD32VW55X_Wifi_BLE_SDK/GD32VW55x_RELEASE_V1.0.2/MSDK/wpa_supplicant/src/common\hw_features_common.c **** 		}
 521:C:/Users/stapi/OneDrive/Desktop/GD32VW553/V1_MQTT_OK/GD32VW55X_Wifi_BLE_SDK/GD32VW55x_RELEASE_V1.0.2/MSDK/wpa_supplicant/src/common\hw_features_common.c **** 		break;
 522:C:/Users/stapi/OneDrive/Desktop/GD32VW553/V1_MQTT_OK/GD32VW55X_Wifi_BLE_SDK/GD32VW55x_RELEASE_V1.0.2/MSDK/wpa_supplicant/src/common\hw_features_common.c **** 	case CHANWIDTH_160MHZ:
 523:C:/Users/stapi/OneDrive/Desktop/GD32VW553/V1_MQTT_OK/GD32VW55X_Wifi_BLE_SDK/GD32VW55x_RELEASE_V1.0.2/MSDK/wpa_supplicant/src/common\hw_features_common.c **** 		if (!(he_cap->phy_cap[HE_PHYCAP_CHANNEL_WIDTH_SET_IDX] &
 524:C:/Users/stapi/OneDrive/Desktop/GD32VW553/V1_MQTT_OK/GD32VW55X_Wifi_BLE_SDK/GD32VW55x_RELEASE_V1.0.2/MSDK/wpa_supplicant/src/common\hw_features_common.c **** 		      HE_PHYCAP_CHANNEL_WIDTH_SET_160MHZ_IN_5G)) {
 525:C:/Users/stapi/OneDrive/Desktop/GD32VW553/V1_MQTT_OK/GD32VW55X_Wifi_BLE_SDK/GD32VW55x_RELEASE_V1.0.2/MSDK/wpa_supplicant/src/common\hw_features_common.c **** 			wpa_printf(MSG_ERROR,
 526:C:/Users/stapi/OneDrive/Desktop/GD32VW553/V1_MQTT_OK/GD32VW55X_Wifi_BLE_SDK/GD32VW55x_RELEASE_V1.0.2/MSDK/wpa_supplicant/src/common\hw_features_common.c **** 				   "160 MHz channel width is not supported in 5 / 6GHz");
 527:C:/Users/stapi/OneDrive/Desktop/GD32VW553/V1_MQTT_OK/GD32VW55X_Wifi_BLE_SDK/GD32VW55x_RELEASE_V1.0.2/MSDK/wpa_supplicant/src/common\hw_features_common.c **** 			return -1;
 528:C:/Users/stapi/OneDrive/Desktop/GD32VW553/V1_MQTT_OK/GD32VW55X_Wifi_BLE_SDK/GD32VW55x_RELEASE_V1.0.2/MSDK/wpa_supplicant/src/common\hw_features_common.c **** 		}
 529:C:/Users/stapi/OneDrive/Desktop/GD32VW553/V1_MQTT_OK/GD32VW55X_Wifi_BLE_SDK/GD32VW55x_RELEASE_V1.0.2/MSDK/wpa_supplicant/src/common\hw_features_common.c **** 		break;
 530:C:/Users/stapi/OneDrive/Desktop/GD32VW553/V1_MQTT_OK/GD32VW55X_Wifi_BLE_SDK/GD32VW55x_RELEASE_V1.0.2/MSDK/wpa_supplicant/src/common\hw_features_common.c **** 	} else if (data->vht_enabled) switch (oper_chwidth) {
 531:C:/Users/stapi/OneDrive/Desktop/GD32VW553/V1_MQTT_OK/GD32VW55X_Wifi_BLE_SDK/GD32VW55x_RELEASE_V1.0.2/MSDK/wpa_supplicant/src/common\hw_features_common.c **** 	case CHANWIDTH_USE_HT:
 532:C:/Users/stapi/OneDrive/Desktop/GD32VW553/V1_MQTT_OK/GD32VW55X_Wifi_BLE_SDK/GD32VW55x_RELEASE_V1.0.2/MSDK/wpa_supplicant/src/common\hw_features_common.c **** 		break;
 533:C:/Users/stapi/OneDrive/Desktop/GD32VW553/V1_MQTT_OK/GD32VW55X_Wifi_BLE_SDK/GD32VW55x_RELEASE_V1.0.2/MSDK/wpa_supplicant/src/common\hw_features_common.c **** 	case CHANWIDTH_80P80MHZ:
 534:C:/Users/stapi/OneDrive/Desktop/GD32VW553/V1_MQTT_OK/GD32VW55X_Wifi_BLE_SDK/GD32VW55x_RELEASE_V1.0.2/MSDK/wpa_supplicant/src/common\hw_features_common.c **** 		if (!(vht_caps & VHT_CAP_SUPP_CHAN_WIDTH_160_80PLUS80MHZ)) {
 535:C:/Users/stapi/OneDrive/Desktop/GD32VW553/V1_MQTT_OK/GD32VW55X_Wifi_BLE_SDK/GD32VW55x_RELEASE_V1.0.2/MSDK/wpa_supplicant/src/common\hw_features_common.c **** 			wpa_printf(MSG_ERROR,
 536:C:/Users/stapi/OneDrive/Desktop/GD32VW553/V1_MQTT_OK/GD32VW55X_Wifi_BLE_SDK/GD32VW55x_RELEASE_V1.0.2/MSDK/wpa_supplicant/src/common\hw_features_common.c **** 				   "80+80 channel width is not supported!");
 537:C:/Users/stapi/OneDrive/Desktop/GD32VW553/V1_MQTT_OK/GD32VW55X_Wifi_BLE_SDK/GD32VW55x_RELEASE_V1.0.2/MSDK/wpa_supplicant/src/common\hw_features_common.c **** 			return -1;
 538:C:/Users/stapi/OneDrive/Desktop/GD32VW553/V1_MQTT_OK/GD32VW55X_Wifi_BLE_SDK/GD32VW55x_RELEASE_V1.0.2/MSDK/wpa_supplicant/src/common\hw_features_common.c **** 		}
 539:C:/Users/stapi/OneDrive/Desktop/GD32VW553/V1_MQTT_OK/GD32VW55X_Wifi_BLE_SDK/GD32VW55x_RELEASE_V1.0.2/MSDK/wpa_supplicant/src/common\hw_features_common.c **** 		/* fall through */
 540:C:/Users/stapi/OneDrive/Desktop/GD32VW553/V1_MQTT_OK/GD32VW55X_Wifi_BLE_SDK/GD32VW55x_RELEASE_V1.0.2/MSDK/wpa_supplicant/src/common\hw_features_common.c **** 	case CHANWIDTH_80MHZ:
 541:C:/Users/stapi/OneDrive/Desktop/GD32VW553/V1_MQTT_OK/GD32VW55X_Wifi_BLE_SDK/GD32VW55x_RELEASE_V1.0.2/MSDK/wpa_supplicant/src/common\hw_features_common.c **** 		break;
 542:C:/Users/stapi/OneDrive/Desktop/GD32VW553/V1_MQTT_OK/GD32VW55X_Wifi_BLE_SDK/GD32VW55x_RELEASE_V1.0.2/MSDK/wpa_supplicant/src/common\hw_features_common.c **** 	case CHANWIDTH_160MHZ:
 543:C:/Users/stapi/OneDrive/Desktop/GD32VW553/V1_MQTT_OK/GD32VW55X_Wifi_BLE_SDK/GD32VW55x_RELEASE_V1.0.2/MSDK/wpa_supplicant/src/common\hw_features_common.c **** 		if (!(vht_caps & (VHT_CAP_SUPP_CHAN_WIDTH_160MHZ |
 544:C:/Users/stapi/OneDrive/Desktop/GD32VW553/V1_MQTT_OK/GD32VW55X_Wifi_BLE_SDK/GD32VW55x_RELEASE_V1.0.2/MSDK/wpa_supplicant/src/common\hw_features_common.c **** 				  VHT_CAP_SUPP_CHAN_WIDTH_160_80PLUS80MHZ))) {
 545:C:/Users/stapi/OneDrive/Desktop/GD32VW553/V1_MQTT_OK/GD32VW55X_Wifi_BLE_SDK/GD32VW55x_RELEASE_V1.0.2/MSDK/wpa_supplicant/src/common\hw_features_common.c **** 			wpa_printf(MSG_ERROR,
 546:C:/Users/stapi/OneDrive/Desktop/GD32VW553/V1_MQTT_OK/GD32VW55X_Wifi_BLE_SDK/GD32VW55x_RELEASE_V1.0.2/MSDK/wpa_supplicant/src/common\hw_features_common.c **** 				   "160 MHz channel width is not supported!");
 547:C:/Users/stapi/OneDrive/Desktop/GD32VW553/V1_MQTT_OK/GD32VW55X_Wifi_BLE_SDK/GD32VW55x_RELEASE_V1.0.2/MSDK/wpa_supplicant/src/common\hw_features_common.c **** 			return -1;
 548:C:/Users/stapi/OneDrive/Desktop/GD32VW553/V1_MQTT_OK/GD32VW55X_Wifi_BLE_SDK/GD32VW55x_RELEASE_V1.0.2/MSDK/wpa_supplicant/src/common\hw_features_common.c **** 		}
 549:C:/Users/stapi/OneDrive/Desktop/GD32VW553/V1_MQTT_OK/GD32VW55X_Wifi_BLE_SDK/GD32VW55x_RELEASE_V1.0.2/MSDK/wpa_supplicant/src/common\hw_features_common.c **** 		break;
 550:C:/Users/stapi/OneDrive/Desktop/GD32VW553/V1_MQTT_OK/GD32VW55X_Wifi_BLE_SDK/GD32VW55x_RELEASE_V1.0.2/MSDK/wpa_supplicant/src/common\hw_features_common.c **** 	}
 551:C:/Users/stapi/OneDrive/Desktop/GD32VW553/V1_MQTT_OK/GD32VW55X_Wifi_BLE_SDK/GD32VW55x_RELEASE_V1.0.2/MSDK/wpa_supplicant/src/common\hw_features_common.c **** 
 552:C:/Users/stapi/OneDrive/Desktop/GD32VW553/V1_MQTT_OK/GD32VW55X_Wifi_BLE_SDK/GD32VW55x_RELEASE_V1.0.2/MSDK/wpa_supplicant/src/common\hw_features_common.c **** 	if (data->he_enabled || data->vht_enabled) switch (oper_chwidth) {
 1263              		.loc 1 552 45 is_stmt 0
 1264 008a 0144     		li	s0,0
 1265 008c E5A0     		j	.L166
 1266              	.LVL109:
 1267              	.L151:
 392:C:/Users/stapi/OneDrive/Desktop/GD32VW553/V1_MQTT_OK/GD32VW55X_Wifi_BLE_SDK/GD32VW55x_RELEASE_V1.0.2/MSDK/wpa_supplicant/src/common\hw_features_common.c **** 	os_memset(data, 0, sizeof(*data));
 1268              		.loc 1 392 14
 1269 008e 014C     		li	s8,0
 1270 0090 71BF     		j	.L120
 1271              	.LVL110:
 1272              	.L123:
 489:C:/Users/stapi/OneDrive/Desktop/GD32VW553/V1_MQTT_OK/GD32VW55X_Wifi_BLE_SDK/GD32VW55x_RELEASE_V1.0.2/MSDK/wpa_supplicant/src/common\hw_features_common.c **** 	case CHANWIDTH_USE_HT:
 1273              		.loc 1 489 24
 1274 0092 8D47     		li	a5,3
 1275 0094 E31BFAFE 		bne	s4,a5,.L154
 515:C:/Users/stapi/OneDrive/Desktop/GD32VW553/V1_MQTT_OK/GD32VW55X_Wifi_BLE_SDK/GD32VW55x_RELEASE_V1.0.2/MSDK/wpa_supplicant/src/common\hw_features_common.c **** 		      HE_PHYCAP_CHANNEL_WIDTH_SET_80PLUS80MHZ_IN_5G)) {
 1276              		.loc 1 515 3 is_stmt 1
 515:C:/Users/stapi/OneDrive/Desktop/GD32VW553/V1_MQTT_OK/GD32VW55X_Wifi_BLE_SDK/GD32VW55x_RELEASE_V1.0.2/MSDK/wpa_supplicant/src/common\hw_features_common.c **** 		      HE_PHYCAP_CHANNEL_WIDTH_SET_80PLUS80MHZ_IN_5G)) {
 1277              		.loc 1 515 6 is_stmt 0
 1278 0098 83C71A00 		lbu	a5,1(s5)
 1279 009c C18B     		andi	a5,a5,16
 1280 009e EDE3     		bne	a5,zero,.L132
 517:C:/Users/stapi/OneDrive/Desktop/GD32VW553/V1_MQTT_OK/GD32VW55X_Wifi_BLE_SDK/GD32VW55x_RELEASE_V1.0.2/MSDK/wpa_supplicant/src/common\hw_features_common.c **** 				   "80+80 MHz channel width is not supported in 5/6 GHz");
 1281              		.loc 1 517 4 is_stmt 1
 1282 00a0 B7050000 		lui	a1,%hi(.LC12)
 1283 00a4 93850500 		addi	a1,a1,%lo(.LC12)
 1284 00a8 31A8     		j	.L174
 1285              	.L124:
 491:C:/Users/stapi/OneDrive/Desktop/GD32VW553/V1_MQTT_OK/GD32VW55X_Wifi_BLE_SDK/GD32VW55x_RELEASE_V1.0.2/MSDK/wpa_supplicant/src/common\hw_features_common.c **** 			break;
 1286              		.loc 1 491 3
 491:C:/Users/stapi/OneDrive/Desktop/GD32VW553/V1_MQTT_OK/GD32VW55X_Wifi_BLE_SDK/GD32VW55x_RELEASE_V1.0.2/MSDK/wpa_supplicant/src/common\hw_features_common.c **** 			break;
 1287              		.loc 1 491 6 is_stmt 0
 1288 00aa 63890D08 		beq	s11,zero,.L128
 494:C:/Users/stapi/OneDrive/Desktop/GD32VW553/V1_MQTT_OK/GD32VW55X_Wifi_BLE_SDK/GD32VW55x_RELEASE_V1.0.2/MSDK/wpa_supplicant/src/common\hw_features_common.c **** 			if (!(he_cap->phy_cap[HE_PHYCAP_CHANNEL_WIDTH_SET_IDX] &
 1289              		.loc 1 494 3 is_stmt 1
 494:C:/Users/stapi/OneDrive/Desktop/GD32VW553/V1_MQTT_OK/GD32VW55X_Wifi_BLE_SDK/GD32VW55x_RELEASE_V1.0.2/MSDK/wpa_supplicant/src/common\hw_features_common.c **** 			if (!(he_cap->phy_cap[HE_PHYCAP_CHANNEL_WIDTH_SET_IDX] &
 1290              		.loc 1 494 6 is_stmt 0
 1291 00ae 0547     		li	a4,1
 1292 00b0 6312EB24 		bne	s6,a4,.L129
 495:C:/Users/stapi/OneDrive/Desktop/GD32VW553/V1_MQTT_OK/GD32VW55X_Wifi_BLE_SDK/GD32VW55x_RELEASE_V1.0.2/MSDK/wpa_supplicant/src/common\hw_features_common.c **** 			      HE_PHYCAP_CHANNEL_WIDTH_SET_40MHZ_IN_2G)) {
 1293              		.loc 1 495 4 is_stmt 1
 495:C:/Users/stapi/OneDrive/Desktop/GD32VW553/V1_MQTT_OK/GD32VW55X_Wifi_BLE_SDK/GD32VW55x_RELEASE_V1.0.2/MSDK/wpa_supplicant/src/common\hw_features_common.c **** 			      HE_PHYCAP_CHANNEL_WIDTH_SET_40MHZ_IN_2G)) {
 1294              		.loc 1 495 7 is_stmt 0
 1295 00b4 83C71A00 		lbu	a5,1(s5)
 1296 00b8 898B     		andi	a5,a5,2
 1297 00ba C9E3     		bne	a5,zero,.L128
 497:C:/Users/stapi/OneDrive/Desktop/GD32VW553/V1_MQTT_OK/GD32VW55X_Wifi_BLE_SDK/GD32VW55x_RELEASE_V1.0.2/MSDK/wpa_supplicant/src/common\hw_features_common.c **** 					   "40 MHz channel width is not supported in 2.4 GHz");
 1298              		.loc 1 497 5 is_stmt 1
 1299 00bc B7050000 		lui	a1,%hi(.LC10)
 1300 00c0 93850500 		addi	a1,a1,%lo(.LC10)
 1301              	.LVL111:
 1302              	.L174:
 553:C:/Users/stapi/OneDrive/Desktop/GD32VW553/V1_MQTT_OK/GD32VW55X_Wifi_BLE_SDK/GD32VW55x_RELEASE_V1.0.2/MSDK/wpa_supplicant/src/common\hw_features_common.c **** 	case CHANWIDTH_USE_HT:
 554:C:/Users/stapi/OneDrive/Desktop/GD32VW553/V1_MQTT_OK/GD32VW55X_Wifi_BLE_SDK/GD32VW55x_RELEASE_V1.0.2/MSDK/wpa_supplicant/src/common\hw_features_common.c **** 		if (center_segment1 ||
 555:C:/Users/stapi/OneDrive/Desktop/GD32VW553/V1_MQTT_OK/GD32VW55X_Wifi_BLE_SDK/GD32VW55x_RELEASE_V1.0.2/MSDK/wpa_supplicant/src/common\hw_features_common.c **** 		    (center_segment0 != 0 &&
 556:C:/Users/stapi/OneDrive/Desktop/GD32VW553/V1_MQTT_OK/GD32VW55X_Wifi_BLE_SDK/GD32VW55x_RELEASE_V1.0.2/MSDK/wpa_supplicant/src/common\hw_features_common.c **** 		     5000 + center_segment0 * 5 != data->center_freq1 &&
 557:C:/Users/stapi/OneDrive/Desktop/GD32VW553/V1_MQTT_OK/GD32VW55X_Wifi_BLE_SDK/GD32VW55x_RELEASE_V1.0.2/MSDK/wpa_supplicant/src/common\hw_features_common.c **** 		     2407 + center_segment0 * 5 != data->center_freq1)) {
 558:C:/Users/stapi/OneDrive/Desktop/GD32VW553/V1_MQTT_OK/GD32VW55X_Wifi_BLE_SDK/GD32VW55x_RELEASE_V1.0.2/MSDK/wpa_supplicant/src/common\hw_features_common.c **** 			wpa_printf(MSG_ERROR,
 559:C:/Users/stapi/OneDrive/Desktop/GD32VW553/V1_MQTT_OK/GD32VW55X_Wifi_BLE_SDK/GD32VW55x_RELEASE_V1.0.2/MSDK/wpa_supplicant/src/common\hw_features_common.c **** 				   "20/40 MHz: center segment 0 (=%d) and center freq 1 (=%d) not in sync",
 560:C:/Users/stapi/OneDrive/Desktop/GD32VW553/V1_MQTT_OK/GD32VW55X_Wifi_BLE_SDK/GD32VW55x_RELEASE_V1.0.2/MSDK/wpa_supplicant/src/common\hw_features_common.c **** 				   center_segment0, data->center_freq1);
 561:C:/Users/stapi/OneDrive/Desktop/GD32VW553/V1_MQTT_OK/GD32VW55X_Wifi_BLE_SDK/GD32VW55x_RELEASE_V1.0.2/MSDK/wpa_supplicant/src/common\hw_features_common.c **** 			return -1;
 562:C:/Users/stapi/OneDrive/Desktop/GD32VW553/V1_MQTT_OK/GD32VW55X_Wifi_BLE_SDK/GD32VW55x_RELEASE_V1.0.2/MSDK/wpa_supplicant/src/common\hw_features_common.c **** 		}
 563:C:/Users/stapi/OneDrive/Desktop/GD32VW553/V1_MQTT_OK/GD32VW55X_Wifi_BLE_SDK/GD32VW55x_RELEASE_V1.0.2/MSDK/wpa_supplicant/src/common\hw_features_common.c **** 		break;
 564:C:/Users/stapi/OneDrive/Desktop/GD32VW553/V1_MQTT_OK/GD32VW55X_Wifi_BLE_SDK/GD32VW55x_RELEASE_V1.0.2/MSDK/wpa_supplicant/src/common\hw_features_common.c **** 	case CHANWIDTH_80P80MHZ:
 565:C:/Users/stapi/OneDrive/Desktop/GD32VW553/V1_MQTT_OK/GD32VW55X_Wifi_BLE_SDK/GD32VW55x_RELEASE_V1.0.2/MSDK/wpa_supplicant/src/common\hw_features_common.c **** 		if (center_segment1 == center_segment0 + 4 ||
 566:C:/Users/stapi/OneDrive/Desktop/GD32VW553/V1_MQTT_OK/GD32VW55X_Wifi_BLE_SDK/GD32VW55x_RELEASE_V1.0.2/MSDK/wpa_supplicant/src/common\hw_features_common.c **** 		    center_segment1 == center_segment0 - 4) {
 567:C:/Users/stapi/OneDrive/Desktop/GD32VW553/V1_MQTT_OK/GD32VW55X_Wifi_BLE_SDK/GD32VW55x_RELEASE_V1.0.2/MSDK/wpa_supplicant/src/common\hw_features_common.c **** 			wpa_printf(MSG_ERROR,
 568:C:/Users/stapi/OneDrive/Desktop/GD32VW553/V1_MQTT_OK/GD32VW55X_Wifi_BLE_SDK/GD32VW55x_RELEASE_V1.0.2/MSDK/wpa_supplicant/src/common\hw_features_common.c **** 				   "80+80 MHz: center segment 1 only 20 MHz apart");
 569:C:/Users/stapi/OneDrive/Desktop/GD32VW553/V1_MQTT_OK/GD32VW55X_Wifi_BLE_SDK/GD32VW55x_RELEASE_V1.0.2/MSDK/wpa_supplicant/src/common\hw_features_common.c **** 			return -1;
 570:C:/Users/stapi/OneDrive/Desktop/GD32VW553/V1_MQTT_OK/GD32VW55X_Wifi_BLE_SDK/GD32VW55x_RELEASE_V1.0.2/MSDK/wpa_supplicant/src/common\hw_features_common.c **** 		}
 571:C:/Users/stapi/OneDrive/Desktop/GD32VW553/V1_MQTT_OK/GD32VW55X_Wifi_BLE_SDK/GD32VW55x_RELEASE_V1.0.2/MSDK/wpa_supplicant/src/common\hw_features_common.c **** 		data->center_freq2 = 5000 + center_segment1 * 5;
 572:C:/Users/stapi/OneDrive/Desktop/GD32VW553/V1_MQTT_OK/GD32VW55X_Wifi_BLE_SDK/GD32VW55x_RELEASE_V1.0.2/MSDK/wpa_supplicant/src/common\hw_features_common.c **** 		/* fall through */
 573:C:/Users/stapi/OneDrive/Desktop/GD32VW553/V1_MQTT_OK/GD32VW55X_Wifi_BLE_SDK/GD32VW55x_RELEASE_V1.0.2/MSDK/wpa_supplicant/src/common\hw_features_common.c **** 	case CHANWIDTH_80MHZ:
 574:C:/Users/stapi/OneDrive/Desktop/GD32VW553/V1_MQTT_OK/GD32VW55X_Wifi_BLE_SDK/GD32VW55x_RELEASE_V1.0.2/MSDK/wpa_supplicant/src/common\hw_features_common.c **** 		data->bandwidth = 80;
 575:C:/Users/stapi/OneDrive/Desktop/GD32VW553/V1_MQTT_OK/GD32VW55X_Wifi_BLE_SDK/GD32VW55x_RELEASE_V1.0.2/MSDK/wpa_supplicant/src/common\hw_features_common.c **** 		if (!sec_channel_offset) {
 576:C:/Users/stapi/OneDrive/Desktop/GD32VW553/V1_MQTT_OK/GD32VW55X_Wifi_BLE_SDK/GD32VW55x_RELEASE_V1.0.2/MSDK/wpa_supplicant/src/common\hw_features_common.c **** 			wpa_printf(MSG_ERROR,
 577:C:/Users/stapi/OneDrive/Desktop/GD32VW553/V1_MQTT_OK/GD32VW55X_Wifi_BLE_SDK/GD32VW55x_RELEASE_V1.0.2/MSDK/wpa_supplicant/src/common\hw_features_common.c **** 				   "80/80+80 MHz: no second channel offset");
 578:C:/Users/stapi/OneDrive/Desktop/GD32VW553/V1_MQTT_OK/GD32VW55X_Wifi_BLE_SDK/GD32VW55x_RELEASE_V1.0.2/MSDK/wpa_supplicant/src/common\hw_features_common.c **** 			return -1;
 579:C:/Users/stapi/OneDrive/Desktop/GD32VW553/V1_MQTT_OK/GD32VW55X_Wifi_BLE_SDK/GD32VW55x_RELEASE_V1.0.2/MSDK/wpa_supplicant/src/common\hw_features_common.c **** 		}
 580:C:/Users/stapi/OneDrive/Desktop/GD32VW553/V1_MQTT_OK/GD32VW55X_Wifi_BLE_SDK/GD32VW55x_RELEASE_V1.0.2/MSDK/wpa_supplicant/src/common\hw_features_common.c **** 		if (oper_chwidth == CHANWIDTH_80MHZ && center_segment1) {
 581:C:/Users/stapi/OneDrive/Desktop/GD32VW553/V1_MQTT_OK/GD32VW55X_Wifi_BLE_SDK/GD32VW55x_RELEASE_V1.0.2/MSDK/wpa_supplicant/src/common\hw_features_common.c **** 			wpa_printf(MSG_ERROR,
 582:C:/Users/stapi/OneDrive/Desktop/GD32VW553/V1_MQTT_OK/GD32VW55X_Wifi_BLE_SDK/GD32VW55x_RELEASE_V1.0.2/MSDK/wpa_supplicant/src/common\hw_features_common.c **** 				   "80 MHz: center segment 1 configured");
 583:C:/Users/stapi/OneDrive/Desktop/GD32VW553/V1_MQTT_OK/GD32VW55X_Wifi_BLE_SDK/GD32VW55x_RELEASE_V1.0.2/MSDK/wpa_supplicant/src/common\hw_features_common.c **** 			return -1;
 584:C:/Users/stapi/OneDrive/Desktop/GD32VW553/V1_MQTT_OK/GD32VW55X_Wifi_BLE_SDK/GD32VW55x_RELEASE_V1.0.2/MSDK/wpa_supplicant/src/common\hw_features_common.c **** 		}
 585:C:/Users/stapi/OneDrive/Desktop/GD32VW553/V1_MQTT_OK/GD32VW55X_Wifi_BLE_SDK/GD32VW55x_RELEASE_V1.0.2/MSDK/wpa_supplicant/src/common\hw_features_common.c **** 		if (oper_chwidth == CHANWIDTH_80P80MHZ && !center_segment1) {
 586:C:/Users/stapi/OneDrive/Desktop/GD32VW553/V1_MQTT_OK/GD32VW55X_Wifi_BLE_SDK/GD32VW55x_RELEASE_V1.0.2/MSDK/wpa_supplicant/src/common\hw_features_common.c **** 			wpa_printf(MSG_ERROR,
 587:C:/Users/stapi/OneDrive/Desktop/GD32VW553/V1_MQTT_OK/GD32VW55X_Wifi_BLE_SDK/GD32VW55x_RELEASE_V1.0.2/MSDK/wpa_supplicant/src/common\hw_features_common.c **** 				   "80+80 MHz: center segment 1 not configured");
 588:C:/Users/stapi/OneDrive/Desktop/GD32VW553/V1_MQTT_OK/GD32VW55X_Wifi_BLE_SDK/GD32VW55x_RELEASE_V1.0.2/MSDK/wpa_supplicant/src/common\hw_features_common.c **** 			return -1;
 589:C:/Users/stapi/OneDrive/Desktop/GD32VW553/V1_MQTT_OK/GD32VW55X_Wifi_BLE_SDK/GD32VW55x_RELEASE_V1.0.2/MSDK/wpa_supplicant/src/common\hw_features_common.c **** 		}
 590:C:/Users/stapi/OneDrive/Desktop/GD32VW553/V1_MQTT_OK/GD32VW55X_Wifi_BLE_SDK/GD32VW55x_RELEASE_V1.0.2/MSDK/wpa_supplicant/src/common\hw_features_common.c **** 		if (!center_segment0) {
 591:C:/Users/stapi/OneDrive/Desktop/GD32VW553/V1_MQTT_OK/GD32VW55X_Wifi_BLE_SDK/GD32VW55x_RELEASE_V1.0.2/MSDK/wpa_supplicant/src/common\hw_features_common.c **** 			if (channel <= 48)
 592:C:/Users/stapi/OneDrive/Desktop/GD32VW553/V1_MQTT_OK/GD32VW55X_Wifi_BLE_SDK/GD32VW55x_RELEASE_V1.0.2/MSDK/wpa_supplicant/src/common\hw_features_common.c **** 				center_segment0 = 42;
 593:C:/Users/stapi/OneDrive/Desktop/GD32VW553/V1_MQTT_OK/GD32VW55X_Wifi_BLE_SDK/GD32VW55x_RELEASE_V1.0.2/MSDK/wpa_supplicant/src/common\hw_features_common.c **** 			else if (channel <= 64)
 594:C:/Users/stapi/OneDrive/Desktop/GD32VW553/V1_MQTT_OK/GD32VW55X_Wifi_BLE_SDK/GD32VW55x_RELEASE_V1.0.2/MSDK/wpa_supplicant/src/common\hw_features_common.c **** 				center_segment0 = 58;
 595:C:/Users/stapi/OneDrive/Desktop/GD32VW553/V1_MQTT_OK/GD32VW55X_Wifi_BLE_SDK/GD32VW55x_RELEASE_V1.0.2/MSDK/wpa_supplicant/src/common\hw_features_common.c **** 			else if (channel <= 112)
 596:C:/Users/stapi/OneDrive/Desktop/GD32VW553/V1_MQTT_OK/GD32VW55X_Wifi_BLE_SDK/GD32VW55x_RELEASE_V1.0.2/MSDK/wpa_supplicant/src/common\hw_features_common.c **** 				center_segment0 = 106;
 597:C:/Users/stapi/OneDrive/Desktop/GD32VW553/V1_MQTT_OK/GD32VW55X_Wifi_BLE_SDK/GD32VW55x_RELEASE_V1.0.2/MSDK/wpa_supplicant/src/common\hw_features_common.c **** 			else if (channel <= 128)
 598:C:/Users/stapi/OneDrive/Desktop/GD32VW553/V1_MQTT_OK/GD32VW55X_Wifi_BLE_SDK/GD32VW55x_RELEASE_V1.0.2/MSDK/wpa_supplicant/src/common\hw_features_common.c **** 				center_segment0 = 122;
 599:C:/Users/stapi/OneDrive/Desktop/GD32VW553/V1_MQTT_OK/GD32VW55X_Wifi_BLE_SDK/GD32VW55x_RELEASE_V1.0.2/MSDK/wpa_supplicant/src/common\hw_features_common.c **** 			else if (channel <= 144)
 600:C:/Users/stapi/OneDrive/Desktop/GD32VW553/V1_MQTT_OK/GD32VW55X_Wifi_BLE_SDK/GD32VW55x_RELEASE_V1.0.2/MSDK/wpa_supplicant/src/common\hw_features_common.c **** 				center_segment0 = 138;
 601:C:/Users/stapi/OneDrive/Desktop/GD32VW553/V1_MQTT_OK/GD32VW55X_Wifi_BLE_SDK/GD32VW55x_RELEASE_V1.0.2/MSDK/wpa_supplicant/src/common\hw_features_common.c **** 			else if (channel <= 161)
 602:C:/Users/stapi/OneDrive/Desktop/GD32VW553/V1_MQTT_OK/GD32VW55X_Wifi_BLE_SDK/GD32VW55x_RELEASE_V1.0.2/MSDK/wpa_supplicant/src/common\hw_features_common.c **** 				center_segment0 = 155;
 603:C:/Users/stapi/OneDrive/Desktop/GD32VW553/V1_MQTT_OK/GD32VW55X_Wifi_BLE_SDK/GD32VW55x_RELEASE_V1.0.2/MSDK/wpa_supplicant/src/common\hw_features_common.c **** 			else if (channel <= 177)
 604:C:/Users/stapi/OneDrive/Desktop/GD32VW553/V1_MQTT_OK/GD32VW55X_Wifi_BLE_SDK/GD32VW55x_RELEASE_V1.0.2/MSDK/wpa_supplicant/src/common\hw_features_common.c **** 				center_segment0 = 171;
 605:C:/Users/stapi/OneDrive/Desktop/GD32VW553/V1_MQTT_OK/GD32VW55X_Wifi_BLE_SDK/GD32VW55x_RELEASE_V1.0.2/MSDK/wpa_supplicant/src/common\hw_features_common.c **** 			data->center_freq1 = 5000 + center_segment0 * 5;
 606:C:/Users/stapi/OneDrive/Desktop/GD32VW553/V1_MQTT_OK/GD32VW55X_Wifi_BLE_SDK/GD32VW55x_RELEASE_V1.0.2/MSDK/wpa_supplicant/src/common\hw_features_common.c **** 		} else {
 607:C:/Users/stapi/OneDrive/Desktop/GD32VW553/V1_MQTT_OK/GD32VW55X_Wifi_BLE_SDK/GD32VW55x_RELEASE_V1.0.2/MSDK/wpa_supplicant/src/common\hw_features_common.c **** 			/*
 608:C:/Users/stapi/OneDrive/Desktop/GD32VW553/V1_MQTT_OK/GD32VW55X_Wifi_BLE_SDK/GD32VW55x_RELEASE_V1.0.2/MSDK/wpa_supplicant/src/common\hw_features_common.c **** 			 * Note: HT/VHT config and params are coupled. Check if
 609:C:/Users/stapi/OneDrive/Desktop/GD32VW553/V1_MQTT_OK/GD32VW55X_Wifi_BLE_SDK/GD32VW55x_RELEASE_V1.0.2/MSDK/wpa_supplicant/src/common\hw_features_common.c **** 			 * HT40 channel band is in VHT80 Pri channel band
 610:C:/Users/stapi/OneDrive/Desktop/GD32VW553/V1_MQTT_OK/GD32VW55X_Wifi_BLE_SDK/GD32VW55x_RELEASE_V1.0.2/MSDK/wpa_supplicant/src/common\hw_features_common.c **** 			 * configuration.
 611:C:/Users/stapi/OneDrive/Desktop/GD32VW553/V1_MQTT_OK/GD32VW55X_Wifi_BLE_SDK/GD32VW55x_RELEASE_V1.0.2/MSDK/wpa_supplicant/src/common\hw_features_common.c **** 			 */
 612:C:/Users/stapi/OneDrive/Desktop/GD32VW553/V1_MQTT_OK/GD32VW55X_Wifi_BLE_SDK/GD32VW55x_RELEASE_V1.0.2/MSDK/wpa_supplicant/src/common\hw_features_common.c **** 			if (center_segment0 == channel + 6 ||
 613:C:/Users/stapi/OneDrive/Desktop/GD32VW553/V1_MQTT_OK/GD32VW55X_Wifi_BLE_SDK/GD32VW55x_RELEASE_V1.0.2/MSDK/wpa_supplicant/src/common\hw_features_common.c **** 			    center_segment0 == channel + 2 ||
 614:C:/Users/stapi/OneDrive/Desktop/GD32VW553/V1_MQTT_OK/GD32VW55X_Wifi_BLE_SDK/GD32VW55x_RELEASE_V1.0.2/MSDK/wpa_supplicant/src/common\hw_features_common.c **** 			    center_segment0 == channel - 2 ||
 615:C:/Users/stapi/OneDrive/Desktop/GD32VW553/V1_MQTT_OK/GD32VW55X_Wifi_BLE_SDK/GD32VW55x_RELEASE_V1.0.2/MSDK/wpa_supplicant/src/common\hw_features_common.c **** 			    center_segment0 == channel - 6)
 616:C:/Users/stapi/OneDrive/Desktop/GD32VW553/V1_MQTT_OK/GD32VW55X_Wifi_BLE_SDK/GD32VW55x_RELEASE_V1.0.2/MSDK/wpa_supplicant/src/common\hw_features_common.c **** 				data->center_freq1 = 5000 + center_segment0 * 5;
 617:C:/Users/stapi/OneDrive/Desktop/GD32VW553/V1_MQTT_OK/GD32VW55X_Wifi_BLE_SDK/GD32VW55x_RELEASE_V1.0.2/MSDK/wpa_supplicant/src/common\hw_features_common.c **** 			else {
 618:C:/Users/stapi/OneDrive/Desktop/GD32VW553/V1_MQTT_OK/GD32VW55X_Wifi_BLE_SDK/GD32VW55x_RELEASE_V1.0.2/MSDK/wpa_supplicant/src/common\hw_features_common.c **** 				wpa_printf(MSG_ERROR,
 619:C:/Users/stapi/OneDrive/Desktop/GD32VW553/V1_MQTT_OK/GD32VW55X_Wifi_BLE_SDK/GD32VW55x_RELEASE_V1.0.2/MSDK/wpa_supplicant/src/common\hw_features_common.c **** 					   "Wrong coupling between HT and VHT/HE channel setting");
 620:C:/Users/stapi/OneDrive/Desktop/GD32VW553/V1_MQTT_OK/GD32VW55X_Wifi_BLE_SDK/GD32VW55x_RELEASE_V1.0.2/MSDK/wpa_supplicant/src/common\hw_features_common.c **** 				return -1;
 621:C:/Users/stapi/OneDrive/Desktop/GD32VW553/V1_MQTT_OK/GD32VW55X_Wifi_BLE_SDK/GD32VW55x_RELEASE_V1.0.2/MSDK/wpa_supplicant/src/common\hw_features_common.c **** 			}
 622:C:/Users/stapi/OneDrive/Desktop/GD32VW553/V1_MQTT_OK/GD32VW55X_Wifi_BLE_SDK/GD32VW55x_RELEASE_V1.0.2/MSDK/wpa_supplicant/src/common\hw_features_common.c **** 		}
 623:C:/Users/stapi/OneDrive/Desktop/GD32VW553/V1_MQTT_OK/GD32VW55X_Wifi_BLE_SDK/GD32VW55x_RELEASE_V1.0.2/MSDK/wpa_supplicant/src/common\hw_features_common.c **** 		break;
 624:C:/Users/stapi/OneDrive/Desktop/GD32VW553/V1_MQTT_OK/GD32VW55X_Wifi_BLE_SDK/GD32VW55x_RELEASE_V1.0.2/MSDK/wpa_supplicant/src/common\hw_features_common.c **** 	case CHANWIDTH_160MHZ:
 625:C:/Users/stapi/OneDrive/Desktop/GD32VW553/V1_MQTT_OK/GD32VW55X_Wifi_BLE_SDK/GD32VW55x_RELEASE_V1.0.2/MSDK/wpa_supplicant/src/common\hw_features_common.c **** 		data->bandwidth = 160;
 626:C:/Users/stapi/OneDrive/Desktop/GD32VW553/V1_MQTT_OK/GD32VW55X_Wifi_BLE_SDK/GD32VW55x_RELEASE_V1.0.2/MSDK/wpa_supplicant/src/common\hw_features_common.c **** 		if (center_segment1) {
 627:C:/Users/stapi/OneDrive/Desktop/GD32VW553/V1_MQTT_OK/GD32VW55X_Wifi_BLE_SDK/GD32VW55x_RELEASE_V1.0.2/MSDK/wpa_supplicant/src/common\hw_features_common.c **** 			wpa_printf(MSG_ERROR,
 628:C:/Users/stapi/OneDrive/Desktop/GD32VW553/V1_MQTT_OK/GD32VW55X_Wifi_BLE_SDK/GD32VW55x_RELEASE_V1.0.2/MSDK/wpa_supplicant/src/common\hw_features_common.c **** 				   "160 MHz: center segment 1 should not be set");
 629:C:/Users/stapi/OneDrive/Desktop/GD32VW553/V1_MQTT_OK/GD32VW55X_Wifi_BLE_SDK/GD32VW55x_RELEASE_V1.0.2/MSDK/wpa_supplicant/src/common\hw_features_common.c **** 			return -1;
 630:C:/Users/stapi/OneDrive/Desktop/GD32VW553/V1_MQTT_OK/GD32VW55X_Wifi_BLE_SDK/GD32VW55x_RELEASE_V1.0.2/MSDK/wpa_supplicant/src/common\hw_features_common.c **** 		}
 631:C:/Users/stapi/OneDrive/Desktop/GD32VW553/V1_MQTT_OK/GD32VW55X_Wifi_BLE_SDK/GD32VW55x_RELEASE_V1.0.2/MSDK/wpa_supplicant/src/common\hw_features_common.c **** 		if (!sec_channel_offset) {
 632:C:/Users/stapi/OneDrive/Desktop/GD32VW553/V1_MQTT_OK/GD32VW55X_Wifi_BLE_SDK/GD32VW55x_RELEASE_V1.0.2/MSDK/wpa_supplicant/src/common\hw_features_common.c **** 			wpa_printf(MSG_ERROR,
 633:C:/Users/stapi/OneDrive/Desktop/GD32VW553/V1_MQTT_OK/GD32VW55X_Wifi_BLE_SDK/GD32VW55x_RELEASE_V1.0.2/MSDK/wpa_supplicant/src/common\hw_features_common.c **** 				   "160 MHz: second channel offset not set");
 634:C:/Users/stapi/OneDrive/Desktop/GD32VW553/V1_MQTT_OK/GD32VW55X_Wifi_BLE_SDK/GD32VW55x_RELEASE_V1.0.2/MSDK/wpa_supplicant/src/common\hw_features_common.c **** 			return -1;
 635:C:/Users/stapi/OneDrive/Desktop/GD32VW553/V1_MQTT_OK/GD32VW55X_Wifi_BLE_SDK/GD32VW55x_RELEASE_V1.0.2/MSDK/wpa_supplicant/src/common\hw_features_common.c **** 		}
 636:C:/Users/stapi/OneDrive/Desktop/GD32VW553/V1_MQTT_OK/GD32VW55X_Wifi_BLE_SDK/GD32VW55x_RELEASE_V1.0.2/MSDK/wpa_supplicant/src/common\hw_features_common.c **** 		/*
 637:C:/Users/stapi/OneDrive/Desktop/GD32VW553/V1_MQTT_OK/GD32VW55X_Wifi_BLE_SDK/GD32VW55x_RELEASE_V1.0.2/MSDK/wpa_supplicant/src/common\hw_features_common.c **** 		 * Note: HT/VHT config and params are coupled. Check if
 638:C:/Users/stapi/OneDrive/Desktop/GD32VW553/V1_MQTT_OK/GD32VW55X_Wifi_BLE_SDK/GD32VW55x_RELEASE_V1.0.2/MSDK/wpa_supplicant/src/common\hw_features_common.c **** 		 * HT40 channel band is in VHT160 channel band configuration.
 639:C:/Users/stapi/OneDrive/Desktop/GD32VW553/V1_MQTT_OK/GD32VW55X_Wifi_BLE_SDK/GD32VW55x_RELEASE_V1.0.2/MSDK/wpa_supplicant/src/common\hw_features_common.c **** 		 */
 640:C:/Users/stapi/OneDrive/Desktop/GD32VW553/V1_MQTT_OK/GD32VW55X_Wifi_BLE_SDK/GD32VW55x_RELEASE_V1.0.2/MSDK/wpa_supplicant/src/common\hw_features_common.c **** 		if (center_segment0 == channel + 14 ||
 641:C:/Users/stapi/OneDrive/Desktop/GD32VW553/V1_MQTT_OK/GD32VW55X_Wifi_BLE_SDK/GD32VW55x_RELEASE_V1.0.2/MSDK/wpa_supplicant/src/common\hw_features_common.c **** 		    center_segment0 == channel + 10 ||
 642:C:/Users/stapi/OneDrive/Desktop/GD32VW553/V1_MQTT_OK/GD32VW55X_Wifi_BLE_SDK/GD32VW55x_RELEASE_V1.0.2/MSDK/wpa_supplicant/src/common\hw_features_common.c **** 		    center_segment0 == channel + 6 ||
 643:C:/Users/stapi/OneDrive/Desktop/GD32VW553/V1_MQTT_OK/GD32VW55X_Wifi_BLE_SDK/GD32VW55x_RELEASE_V1.0.2/MSDK/wpa_supplicant/src/common\hw_features_common.c **** 		    center_segment0 == channel + 2 ||
 644:C:/Users/stapi/OneDrive/Desktop/GD32VW553/V1_MQTT_OK/GD32VW55X_Wifi_BLE_SDK/GD32VW55x_RELEASE_V1.0.2/MSDK/wpa_supplicant/src/common\hw_features_common.c **** 		    center_segment0 == channel - 2 ||
 645:C:/Users/stapi/OneDrive/Desktop/GD32VW553/V1_MQTT_OK/GD32VW55X_Wifi_BLE_SDK/GD32VW55x_RELEASE_V1.0.2/MSDK/wpa_supplicant/src/common\hw_features_common.c **** 		    center_segment0 == channel - 6 ||
 646:C:/Users/stapi/OneDrive/Desktop/GD32VW553/V1_MQTT_OK/GD32VW55X_Wifi_BLE_SDK/GD32VW55x_RELEASE_V1.0.2/MSDK/wpa_supplicant/src/common\hw_features_common.c **** 		    center_segment0 == channel - 10 ||
 647:C:/Users/stapi/OneDrive/Desktop/GD32VW553/V1_MQTT_OK/GD32VW55X_Wifi_BLE_SDK/GD32VW55x_RELEASE_V1.0.2/MSDK/wpa_supplicant/src/common\hw_features_common.c **** 		    center_segment0 == channel - 14)
 648:C:/Users/stapi/OneDrive/Desktop/GD32VW553/V1_MQTT_OK/GD32VW55X_Wifi_BLE_SDK/GD32VW55x_RELEASE_V1.0.2/MSDK/wpa_supplicant/src/common\hw_features_common.c **** 			data->center_freq1 = 5000 + center_segment0 * 5;
 649:C:/Users/stapi/OneDrive/Desktop/GD32VW553/V1_MQTT_OK/GD32VW55X_Wifi_BLE_SDK/GD32VW55x_RELEASE_V1.0.2/MSDK/wpa_supplicant/src/common\hw_features_common.c **** 		else {
 650:C:/Users/stapi/OneDrive/Desktop/GD32VW553/V1_MQTT_OK/GD32VW55X_Wifi_BLE_SDK/GD32VW55x_RELEASE_V1.0.2/MSDK/wpa_supplicant/src/common\hw_features_common.c **** 			wpa_printf(MSG_ERROR,
 1303              		.loc 1 650 4 is_stmt 0
 1304 00c4 1545     		li	a0,5
 1305 00c6 97000000 		call	wpa_printf
 1305      E7800000 
 1306              	.LVL112:
 1307 00ce 55A0     		j	.L175
 1308              	.LVL113:
 1309              	.L125:
 505:C:/Users/stapi/OneDrive/Desktop/GD32VW553/V1_MQTT_OK/GD32VW55X_Wifi_BLE_SDK/GD32VW55x_RELEASE_V1.0.2/MSDK/wpa_supplicant/src/common\hw_features_common.c **** 			if (!(he_cap->phy_cap[HE_PHYCAP_CHANNEL_WIDTH_SET_IDX] &
 1310              		.loc 1 505 3 is_stmt 1
 505:C:/Users/stapi/OneDrive/Desktop/GD32VW553/V1_MQTT_OK/GD32VW55X_Wifi_BLE_SDK/GD32VW55x_RELEASE_V1.0.2/MSDK/wpa_supplicant/src/common\hw_features_common.c **** 			if (!(he_cap->phy_cap[HE_PHYCAP_CHANNEL_WIDTH_SET_IDX] &
 1311              		.loc 1 505 6 is_stmt 0
 1312 00d0 631DFB0C 		bne	s6,a5,.L130
 1313              	.L148:
 506:C:/Users/stapi/OneDrive/Desktop/GD32VW553/V1_MQTT_OK/GD32VW55X_Wifi_BLE_SDK/GD32VW55x_RELEASE_V1.0.2/MSDK/wpa_supplicant/src/common\hw_features_common.c **** 			      HE_PHYCAP_CHANNEL_WIDTH_SET_40MHZ_80MHZ_IN_5G)) {
 1314              		.loc 1 506 4 is_stmt 1
 506:C:/Users/stapi/OneDrive/Desktop/GD32VW553/V1_MQTT_OK/GD32VW55X_Wifi_BLE_SDK/GD32VW55x_RELEASE_V1.0.2/MSDK/wpa_supplicant/src/common\hw_features_common.c **** 			      HE_PHYCAP_CHANNEL_WIDTH_SET_40MHZ_80MHZ_IN_5G)) {
 1315              		.loc 1 506 7 is_stmt 0
 1316 00d4 83C71A00 		lbu	a5,1(s5)
 1317 00d8 918B     		andi	a5,a5,4
 1318 00da 63900722 		bne	a5,zero,.L131
 508:C:/Users/stapi/OneDrive/Desktop/GD32VW553/V1_MQTT_OK/GD32VW55X_Wifi_BLE_SDK/GD32VW55x_RELEASE_V1.0.2/MSDK/wpa_supplicant/src/common\hw_features_common.c **** 					   "40/80 MHz channel width is not supported in 5/6 GHz");
 1319              		.loc 1 508 5 is_stmt 1
 1320 00de B7050000 		lui	a1,%hi(.LC11)
 1321 00e2 93850500 		addi	a1,a1,%lo(.LC11)
 1322 00e6 F9BF     		j	.L174
 1323              	.L122:
 523:C:/Users/stapi/OneDrive/Desktop/GD32VW553/V1_MQTT_OK/GD32VW55X_Wifi_BLE_SDK/GD32VW55x_RELEASE_V1.0.2/MSDK/wpa_supplicant/src/common\hw_features_common.c **** 		      HE_PHYCAP_CHANNEL_WIDTH_SET_160MHZ_IN_5G)) {
 1324              		.loc 1 523 3
 523:C:/Users/stapi/OneDrive/Desktop/GD32VW553/V1_MQTT_OK/GD32VW55X_Wifi_BLE_SDK/GD32VW55x_RELEASE_V1.0.2/MSDK/wpa_supplicant/src/common\hw_features_common.c **** 		      HE_PHYCAP_CHANNEL_WIDTH_SET_160MHZ_IN_5G)) {
 1325              		.loc 1 523 6 is_stmt 0
 1326 00e8 83C71A00 		lbu	a5,1(s5)
 1327 00ec A18B     		andi	a5,a5,8
 1328 00ee 639E0718 		bne	a5,zero,.L133
 525:C:/Users/stapi/OneDrive/Desktop/GD32VW553/V1_MQTT_OK/GD32VW55X_Wifi_BLE_SDK/GD32VW55x_RELEASE_V1.0.2/MSDK/wpa_supplicant/src/common\hw_features_common.c **** 				   "160 MHz channel width is not supported in 5 / 6GHz");
 1329              		.loc 1 525 4 is_stmt 1
 1330 00f2 B7050000 		lui	a1,%hi(.LC13)
 1331 00f6 93850500 		addi	a1,a1,%lo(.LC13)
 1332 00fa E9B7     		j	.L174
 1333              	.L121:
 1334              	.LVL114:
 530:C:/Users/stapi/OneDrive/Desktop/GD32VW553/V1_MQTT_OK/GD32VW55X_Wifi_BLE_SDK/GD32VW55x_RELEASE_V1.0.2/MSDK/wpa_supplicant/src/common\hw_features_common.c **** 	case CHANWIDTH_USE_HT:
 1335              		.loc 1 530 9
 530:C:/Users/stapi/OneDrive/Desktop/GD32VW553/V1_MQTT_OK/GD32VW55X_Wifi_BLE_SDK/GD32VW55x_RELEASE_V1.0.2/MSDK/wpa_supplicant/src/common\hw_features_common.c **** 	case CHANWIDTH_USE_HT:
 1336              		.loc 1 530 12 is_stmt 0
 1337 00fc E3870BF8 		beq	s7,zero,.L154
 530:C:/Users/stapi/OneDrive/Desktop/GD32VW553/V1_MQTT_OK/GD32VW55X_Wifi_BLE_SDK/GD32VW55x_RELEASE_V1.0.2/MSDK/wpa_supplicant/src/common\hw_features_common.c **** 	case CHANWIDTH_USE_HT:
 1338              		.loc 1 530 32 is_stmt 1
 1339 0100 8947     		li	a5,2
 1340 0102 630DFA00 		beq	s4,a5,.L134
 1341 0106 8D47     		li	a5,3
 1342 0108 6313FA02 		bne	s4,a5,.L135
 534:C:/Users/stapi/OneDrive/Desktop/GD32VW553/V1_MQTT_OK/GD32VW55X_Wifi_BLE_SDK/GD32VW55x_RELEASE_V1.0.2/MSDK/wpa_supplicant/src/common\hw_features_common.c **** 			wpa_printf(MSG_ERROR,
 1343              		.loc 1 534 3
 534:C:/Users/stapi/OneDrive/Desktop/GD32VW553/V1_MQTT_OK/GD32VW55X_Wifi_BLE_SDK/GD32VW55x_RELEASE_V1.0.2/MSDK/wpa_supplicant/src/common\hw_features_common.c **** 			wpa_printf(MSG_ERROR,
 1344              		.loc 1 534 18 is_stmt 0
 1345 010c 93778D00 		andi	a5,s10,8
 534:C:/Users/stapi/OneDrive/Desktop/GD32VW553/V1_MQTT_OK/GD32VW55X_Wifi_BLE_SDK/GD32VW55x_RELEASE_V1.0.2/MSDK/wpa_supplicant/src/common\hw_features_common.c **** 			wpa_printf(MSG_ERROR,
 1346              		.loc 1 534 6
 1347 0110 A5EB     		bne	a5,zero,.L132
 535:C:/Users/stapi/OneDrive/Desktop/GD32VW553/V1_MQTT_OK/GD32VW55X_Wifi_BLE_SDK/GD32VW55x_RELEASE_V1.0.2/MSDK/wpa_supplicant/src/common\hw_features_common.c **** 				   "80+80 channel width is not supported!");
 1348              		.loc 1 535 4 is_stmt 1
 1349 0112 B7050000 		lui	a1,%hi(.LC14)
 1350 0116 93850500 		addi	a1,a1,%lo(.LC14)
 1351 011a 6DB7     		j	.L174
 1352              	.L134:
 543:C:/Users/stapi/OneDrive/Desktop/GD32VW553/V1_MQTT_OK/GD32VW55X_Wifi_BLE_SDK/GD32VW55x_RELEASE_V1.0.2/MSDK/wpa_supplicant/src/common\hw_features_common.c **** 				  VHT_CAP_SUPP_CHAN_WIDTH_160_80PLUS80MHZ))) {
 1353              		.loc 1 543 3
 543:C:/Users/stapi/OneDrive/Desktop/GD32VW553/V1_MQTT_OK/GD32VW55X_Wifi_BLE_SDK/GD32VW55x_RELEASE_V1.0.2/MSDK/wpa_supplicant/src/common\hw_features_common.c **** 				  VHT_CAP_SUPP_CHAN_WIDTH_160_80PLUS80MHZ))) {
 1354              		.loc 1 543 18 is_stmt 0
 1355 011c 9377CD00 		andi	a5,s10,12
 543:C:/Users/stapi/OneDrive/Desktop/GD32VW553/V1_MQTT_OK/GD32VW55X_Wifi_BLE_SDK/GD32VW55x_RELEASE_V1.0.2/MSDK/wpa_supplicant/src/common\hw_features_common.c **** 				  VHT_CAP_SUPP_CHAN_WIDTH_160_80PLUS80MHZ))) {
 1356              		.loc 1 543 6
 1357 0120 63950716 		bne	a5,zero,.L133
 545:C:/Users/stapi/OneDrive/Desktop/GD32VW553/V1_MQTT_OK/GD32VW55X_Wifi_BLE_SDK/GD32VW55x_RELEASE_V1.0.2/MSDK/wpa_supplicant/src/common\hw_features_common.c **** 				   "160 MHz channel width is not supported!");
 1358              		.loc 1 545 4 is_stmt 1
 1359 0124 B7050000 		lui	a1,%hi(.LC15)
 1360 0128 93850500 		addi	a1,a1,%lo(.LC15)
 1361 012c 61BF     		j	.L174
 1362              	.L135:
 552:C:/Users/stapi/OneDrive/Desktop/GD32VW553/V1_MQTT_OK/GD32VW55X_Wifi_BLE_SDK/GD32VW55x_RELEASE_V1.0.2/MSDK/wpa_supplicant/src/common\hw_features_common.c **** 	case CHANWIDTH_USE_HT:
 1363              		.loc 1 552 45
 1364 012e 8547     		li	a5,1
 1365 0130 630DFA06 		beq	s4,a5,.L130
 1366 0134 E3CB47F5 		bgt	s4,a5,.L154
 1367              	.LVL115:
 1368              	.L149:
 1369 0138 E3190AF4 		bne	s4,zero,.L154
 1370              	.L128:
 554:C:/Users/stapi/OneDrive/Desktop/GD32VW553/V1_MQTT_OK/GD32VW55X_Wifi_BLE_SDK/GD32VW55x_RELEASE_V1.0.2/MSDK/wpa_supplicant/src/common\hw_features_common.c **** 		    (center_segment0 != 0 &&
 1371              		.loc 1 554 3
 554:C:/Users/stapi/OneDrive/Desktop/GD32VW553/V1_MQTT_OK/GD32VW55X_Wifi_BLE_SDK/GD32VW55x_RELEASE_V1.0.2/MSDK/wpa_supplicant/src/common\hw_features_common.c **** 		    (center_segment0 != 0 &&
 1372              		.loc 1 554 6 is_stmt 0
 1373 013c 0DE0     		bne	s0,zero,.L136
 554:C:/Users/stapi/OneDrive/Desktop/GD32VW553/V1_MQTT_OK/GD32VW55X_Wifi_BLE_SDK/GD32VW55x_RELEASE_V1.0.2/MSDK/wpa_supplicant/src/common\hw_features_common.c **** 		    (center_segment0 != 0 &&
 1374              		.loc 1 554 23 discriminator 1
 1375 013e 630B0902 		beq	s2,zero,.L166
 556:C:/Users/stapi/OneDrive/Desktop/GD32VW553/V1_MQTT_OK/GD32VW55X_Wifi_BLE_SDK/GD32VW55x_RELEASE_V1.0.2/MSDK/wpa_supplicant/src/common\hw_features_common.c **** 		     2407 + center_segment0 * 5 != data->center_freq1)) {
 1376              		.loc 1 556 31
 1377 0142 9547     		li	a5,5
 1378 0144 B307F902 		mul	a5,s2,a5
 556:C:/Users/stapi/OneDrive/Desktop/GD32VW553/V1_MQTT_OK/GD32VW55X_Wifi_BLE_SDK/GD32VW55x_RELEASE_V1.0.2/MSDK/wpa_supplicant/src/common\hw_features_common.c **** 		     2407 + center_segment0 * 5 != data->center_freq1)) {
 1379              		.loc 1 556 13
 1380 0148 0567     		li	a4,4096
 1381 014a 13068738 		addi	a2,a4,904
 1382 014e 3E96     		add	a2,a5,a2
 555:C:/Users/stapi/OneDrive/Desktop/GD32VW553/V1_MQTT_OK/GD32VW55X_Wifi_BLE_SDK/GD32VW55x_RELEASE_V1.0.2/MSDK/wpa_supplicant/src/common\hw_features_common.c **** 		     5000 + center_segment0 * 5 != data->center_freq1 &&
 1383              		.loc 1 555 29
 1384 0150 6382C602 		beq	a3,a2,.L166
 557:C:/Users/stapi/OneDrive/Desktop/GD32VW553/V1_MQTT_OK/GD32VW55X_Wifi_BLE_SDK/GD32VW55x_RELEASE_V1.0.2/MSDK/wpa_supplicant/src/common\hw_features_common.c **** 			wpa_printf(MSG_ERROR,
 1385              		.loc 1 557 13
 1386 0154 13077796 		addi	a4,a4,-1689
 1387 0158 BA97     		add	a5,a5,a4
 556:C:/Users/stapi/OneDrive/Desktop/GD32VW553/V1_MQTT_OK/GD32VW55X_Wifi_BLE_SDK/GD32VW55x_RELEASE_V1.0.2/MSDK/wpa_supplicant/src/common\hw_features_common.c **** 		     2407 + center_segment0 * 5 != data->center_freq1)) {
 1388              		.loc 1 556 57
 1389 015a 638DF600 		beq	a3,a5,.L166
 1390              	.L136:
 558:C:/Users/stapi/OneDrive/Desktop/GD32VW553/V1_MQTT_OK/GD32VW55X_Wifi_BLE_SDK/GD32VW55x_RELEASE_V1.0.2/MSDK/wpa_supplicant/src/common\hw_features_common.c **** 				   "20/40 MHz: center segment 0 (=%d) and center freq 1 (=%d) not in sync",
 1391              		.loc 1 558 4 is_stmt 1
 1392 015e B7050000 		lui	a1,%hi(.LC16)
 1393 0162 4A86     		mv	a2,s2
 1394 0164 93850500 		addi	a1,a1,%lo(.LC16)
 1395 0168 1545     		li	a0,5
 1396 016a 97000000 		call	wpa_printf
 1396      E7800000 
 1397              	.LVL116:
 561:C:/Users/stapi/OneDrive/Desktop/GD32VW553/V1_MQTT_OK/GD32VW55X_Wifi_BLE_SDK/GD32VW55x_RELEASE_V1.0.2/MSDK/wpa_supplicant/src/common\hw_features_common.c **** 		}
 1398              		.loc 1 561 4
 1399              	.L175:
 651:C:/Users/stapi/OneDrive/Desktop/GD32VW553/V1_MQTT_OK/GD32VW55X_Wifi_BLE_SDK/GD32VW55x_RELEASE_V1.0.2/MSDK/wpa_supplicant/src/common\hw_features_common.c **** 				   "160 MHz: HT40 channel band is not in 160 MHz band");
 652:C:/Users/stapi/OneDrive/Desktop/GD32VW553/V1_MQTT_OK/GD32VW55X_Wifi_BLE_SDK/GD32VW55x_RELEASE_V1.0.2/MSDK/wpa_supplicant/src/common\hw_features_common.c **** 			return -1;
 1400              		.loc 1 652 4
 1401              		.loc 1 652 11 is_stmt 0
 1402 0172 7D54     		li	s0,-1
 1403              	.LVL117:
 1404              	.L166:
 653:C:/Users/stapi/OneDrive/Desktop/GD32VW553/V1_MQTT_OK/GD32VW55X_Wifi_BLE_SDK/GD32VW55x_RELEASE_V1.0.2/MSDK/wpa_supplicant/src/common\hw_features_common.c **** 		}
 654:C:/Users/stapi/OneDrive/Desktop/GD32VW553/V1_MQTT_OK/GD32VW55X_Wifi_BLE_SDK/GD32VW55x_RELEASE_V1.0.2/MSDK/wpa_supplicant/src/common\hw_features_common.c **** 		break;
 655:C:/Users/stapi/OneDrive/Desktop/GD32VW553/V1_MQTT_OK/GD32VW55X_Wifi_BLE_SDK/GD32VW55x_RELEASE_V1.0.2/MSDK/wpa_supplicant/src/common\hw_features_common.c **** 	}
 656:C:/Users/stapi/OneDrive/Desktop/GD32VW553/V1_MQTT_OK/GD32VW55X_Wifi_BLE_SDK/GD32VW55x_RELEASE_V1.0.2/MSDK/wpa_supplicant/src/common\hw_features_common.c **** 
 657:C:/Users/stapi/OneDrive/Desktop/GD32VW553/V1_MQTT_OK/GD32VW55X_Wifi_BLE_SDK/GD32VW55x_RELEASE_V1.0.2/MSDK/wpa_supplicant/src/common\hw_features_common.c **** 	return 0;
 658:C:/Users/stapi/OneDrive/Desktop/GD32VW553/V1_MQTT_OK/GD32VW55X_Wifi_BLE_SDK/GD32VW55x_RELEASE_V1.0.2/MSDK/wpa_supplicant/src/common\hw_features_common.c **** }
 1405              		.loc 1 658 1
 1406 0174 2285     		mv	a0,s0
 1407 0176 4101     		addi	sp,sp,16
 1408              		.cfi_remember_state
 1409              		.cfi_def_cfa_offset 0
 1410              	.LVL118:
 1411 0178 17030000 		tail	__riscv_restore_12
 1411      67000300 
 1412              		.cfi_restore 27
 1413              		.cfi_restore 26
 1414              		.cfi_restore 25
 1415              		.cfi_restore 24
 1416              		.cfi_restore 23
 1417              		.cfi_restore 22
 1418              		.cfi_restore 21
 1419              		.cfi_restore 20
 1420              		.cfi_restore 19
 1421              		.cfi_restore 18
 1422              		.cfi_restore 9
 1423              		.cfi_restore 8
 1424              		.cfi_restore 1
 1425              		.cfi_def_cfa_offset -64
 1426              	.LVL119:
 1427              	.L132:
 1428              		.cfi_restore_state
 565:C:/Users/stapi/OneDrive/Desktop/GD32VW553/V1_MQTT_OK/GD32VW55X_Wifi_BLE_SDK/GD32VW55x_RELEASE_V1.0.2/MSDK/wpa_supplicant/src/common\hw_features_common.c **** 		    center_segment1 == center_segment0 - 4) {
 1429              		.loc 1 565 3 is_stmt 1
 565:C:/Users/stapi/OneDrive/Desktop/GD32VW553/V1_MQTT_OK/GD32VW55X_Wifi_BLE_SDK/GD32VW55x_RELEASE_V1.0.2/MSDK/wpa_supplicant/src/common\hw_features_common.c **** 		    center_segment1 == center_segment0 - 4) {
 1430              		.loc 1 565 42 is_stmt 0
 1431 0180 93074900 		addi	a5,s2,4
 565:C:/Users/stapi/OneDrive/Desktop/GD32VW553/V1_MQTT_OK/GD32VW55X_Wifi_BLE_SDK/GD32VW55x_RELEASE_V1.0.2/MSDK/wpa_supplicant/src/common\hw_features_common.c **** 		    center_segment1 == center_segment0 - 4) {
 1432              		.loc 1 565 6
 1433 0184 63868700 		beq	a5,s0,.L137
 566:C:/Users/stapi/OneDrive/Desktop/GD32VW553/V1_MQTT_OK/GD32VW55X_Wifi_BLE_SDK/GD32VW55x_RELEASE_V1.0.2/MSDK/wpa_supplicant/src/common\hw_features_common.c **** 			wpa_printf(MSG_ERROR,
 1434              		.loc 1 566 42 discriminator 1
 1435 0188 9307C9FF 		addi	a5,s2,-4
 565:C:/Users/stapi/OneDrive/Desktop/GD32VW553/V1_MQTT_OK/GD32VW55X_Wifi_BLE_SDK/GD32VW55x_RELEASE_V1.0.2/MSDK/wpa_supplicant/src/common\hw_features_common.c **** 		    center_segment1 == center_segment0 - 4) {
 1436              		.loc 1 565 46 discriminator 1
 1437 018c 63978700 		bne	a5,s0,.L138
 1438              	.L137:
 567:C:/Users/stapi/OneDrive/Desktop/GD32VW553/V1_MQTT_OK/GD32VW55X_Wifi_BLE_SDK/GD32VW55x_RELEASE_V1.0.2/MSDK/wpa_supplicant/src/common\hw_features_common.c **** 				   "80+80 MHz: center segment 1 only 20 MHz apart");
 1439              		.loc 1 567 4 is_stmt 1
 1440 0190 B7050000 		lui	a1,%hi(.LC17)
 1441 0194 93850500 		addi	a1,a1,%lo(.LC17)
 1442 0198 35B7     		j	.L174
 1443              	.L138:
 571:C:/Users/stapi/OneDrive/Desktop/GD32VW553/V1_MQTT_OK/GD32VW55X_Wifi_BLE_SDK/GD32VW55x_RELEASE_V1.0.2/MSDK/wpa_supplicant/src/common\hw_features_common.c **** 		/* fall through */
 1444              		.loc 1 571 3
 571:C:/Users/stapi/OneDrive/Desktop/GD32VW553/V1_MQTT_OK/GD32VW55X_Wifi_BLE_SDK/GD32VW55x_RELEASE_V1.0.2/MSDK/wpa_supplicant/src/common\hw_features_common.c **** 		/* fall through */
 1445              		.loc 1 571 29 is_stmt 0
 1446 019a 8567     		li	a5,4096
 1447 019c 1547     		li	a4,5
 1448 019e 93878738 		addi	a5,a5,904
 1449 01a2 FF17E4C4 		maddr32	a5, s0, a4
 571:C:/Users/stapi/OneDrive/Desktop/GD32VW553/V1_MQTT_OK/GD32VW55X_Wifi_BLE_SDK/GD32VW55x_RELEASE_V1.0.2/MSDK/wpa_supplicant/src/common\hw_features_common.c **** 		/* fall through */
 1450              		.loc 1 571 22
 1451 01a6 23A0F902 		sw	a5,32(s3)
 1452              	.L130:
 574:C:/Users/stapi/OneDrive/Desktop/GD32VW553/V1_MQTT_OK/GD32VW55X_Wifi_BLE_SDK/GD32VW55x_RELEASE_V1.0.2/MSDK/wpa_supplicant/src/common\hw_features_common.c **** 		if (!sec_channel_offset) {
 1453              		.loc 1 574 3 is_stmt 1
 574:C:/Users/stapi/OneDrive/Desktop/GD32VW553/V1_MQTT_OK/GD32VW55X_Wifi_BLE_SDK/GD32VW55x_RELEASE_V1.0.2/MSDK/wpa_supplicant/src/common\hw_features_common.c **** 		if (!sec_channel_offset) {
 1454              		.loc 1 574 19 is_stmt 0
 1455 01aa 93070005 		li	a5,80
 1456 01ae 23A2F902 		sw	a5,36(s3)
 575:C:/Users/stapi/OneDrive/Desktop/GD32VW553/V1_MQTT_OK/GD32VW55X_Wifi_BLE_SDK/GD32VW55x_RELEASE_V1.0.2/MSDK/wpa_supplicant/src/common\hw_features_common.c **** 			wpa_printf(MSG_ERROR,
 1457              		.loc 1 575 3 is_stmt 1
 575:C:/Users/stapi/OneDrive/Desktop/GD32VW553/V1_MQTT_OK/GD32VW55X_Wifi_BLE_SDK/GD32VW55x_RELEASE_V1.0.2/MSDK/wpa_supplicant/src/common\hw_features_common.c **** 			wpa_printf(MSG_ERROR,
 1458              		.loc 1 575 6 is_stmt 0
 1459 01b2 63970D00 		bne	s11,zero,.L139
 576:C:/Users/stapi/OneDrive/Desktop/GD32VW553/V1_MQTT_OK/GD32VW55X_Wifi_BLE_SDK/GD32VW55x_RELEASE_V1.0.2/MSDK/wpa_supplicant/src/common\hw_features_common.c **** 				   "80/80+80 MHz: no second channel offset");
 1460              		.loc 1 576 4 is_stmt 1
 1461 01b6 B7050000 		lui	a1,%hi(.LC18)
 1462 01ba 93850500 		addi	a1,a1,%lo(.LC18)
 1463 01be 19B7     		j	.L174
 1464              	.L139:
 580:C:/Users/stapi/OneDrive/Desktop/GD32VW553/V1_MQTT_OK/GD32VW55X_Wifi_BLE_SDK/GD32VW55x_RELEASE_V1.0.2/MSDK/wpa_supplicant/src/common\hw_features_common.c **** 			wpa_printf(MSG_ERROR,
 1465              		.loc 1 580 3
 580:C:/Users/stapi/OneDrive/Desktop/GD32VW553/V1_MQTT_OK/GD32VW55X_Wifi_BLE_SDK/GD32VW55x_RELEASE_V1.0.2/MSDK/wpa_supplicant/src/common\hw_features_common.c **** 			wpa_printf(MSG_ERROR,
 1466              		.loc 1 580 6 is_stmt 0
 1467 01c0 8547     		li	a5,1
 1468 01c2 6318FA00 		bne	s4,a5,.L140
 580:C:/Users/stapi/OneDrive/Desktop/GD32VW553/V1_MQTT_OK/GD32VW55X_Wifi_BLE_SDK/GD32VW55x_RELEASE_V1.0.2/MSDK/wpa_supplicant/src/common\hw_features_common.c **** 			wpa_printf(MSG_ERROR,
 1469              		.loc 1 580 39 discriminator 1
 1470 01c6 19CC     		beq	s0,zero,.L141
 581:C:/Users/stapi/OneDrive/Desktop/GD32VW553/V1_MQTT_OK/GD32VW55X_Wifi_BLE_SDK/GD32VW55x_RELEASE_V1.0.2/MSDK/wpa_supplicant/src/common\hw_features_common.c **** 				   "80 MHz: center segment 1 configured");
 1471              		.loc 1 581 4 is_stmt 1
 1472 01c8 B7050000 		lui	a1,%hi(.LC19)
 1473 01cc 93850500 		addi	a1,a1,%lo(.LC19)
 1474 01d0 D5BD     		j	.L174
 1475              	.L140:
 585:C:/Users/stapi/OneDrive/Desktop/GD32VW553/V1_MQTT_OK/GD32VW55X_Wifi_BLE_SDK/GD32VW55x_RELEASE_V1.0.2/MSDK/wpa_supplicant/src/common\hw_features_common.c **** 			wpa_printf(MSG_ERROR,
 1476              		.loc 1 585 3
 585:C:/Users/stapi/OneDrive/Desktop/GD32VW553/V1_MQTT_OK/GD32VW55X_Wifi_BLE_SDK/GD32VW55x_RELEASE_V1.0.2/MSDK/wpa_supplicant/src/common\hw_features_common.c **** 			wpa_printf(MSG_ERROR,
 1477              		.loc 1 585 6 is_stmt 0
 1478 01d2 8D47     		li	a5,3
 1479 01d4 6318FA00 		bne	s4,a5,.L141
 585:C:/Users/stapi/OneDrive/Desktop/GD32VW553/V1_MQTT_OK/GD32VW55X_Wifi_BLE_SDK/GD32VW55x_RELEASE_V1.0.2/MSDK/wpa_supplicant/src/common\hw_features_common.c **** 			wpa_printf(MSG_ERROR,
 1480              		.loc 1 585 42 discriminator 1
 1481 01d8 11E4     		bne	s0,zero,.L141
 586:C:/Users/stapi/OneDrive/Desktop/GD32VW553/V1_MQTT_OK/GD32VW55X_Wifi_BLE_SDK/GD32VW55x_RELEASE_V1.0.2/MSDK/wpa_supplicant/src/common\hw_features_common.c **** 				   "80+80 MHz: center segment 1 not configured");
 1482              		.loc 1 586 4 is_stmt 1
 1483 01da B7050000 		lui	a1,%hi(.LC20)
 1484 01de 93850500 		addi	a1,a1,%lo(.LC20)
 1485 01e2 CDB5     		j	.L174
 1486              	.L141:
 590:C:/Users/stapi/OneDrive/Desktop/GD32VW553/V1_MQTT_OK/GD32VW55X_Wifi_BLE_SDK/GD32VW55x_RELEASE_V1.0.2/MSDK/wpa_supplicant/src/common\hw_features_common.c **** 			if (channel <= 48)
 1487              		.loc 1 590 3
 590:C:/Users/stapi/OneDrive/Desktop/GD32VW553/V1_MQTT_OK/GD32VW55X_Wifi_BLE_SDK/GD32VW55x_RELEASE_V1.0.2/MSDK/wpa_supplicant/src/common\hw_features_common.c **** 			if (channel <= 48)
 1488              		.loc 1 590 6 is_stmt 0
 1489 01e4 63160906 		bne	s2,zero,.L142
 591:C:/Users/stapi/OneDrive/Desktop/GD32VW553/V1_MQTT_OK/GD32VW55X_Wifi_BLE_SDK/GD32VW55x_RELEASE_V1.0.2/MSDK/wpa_supplicant/src/common\hw_features_common.c **** 				center_segment0 = 42;
 1490              		.loc 1 591 4 is_stmt 1
 591:C:/Users/stapi/OneDrive/Desktop/GD32VW553/V1_MQTT_OK/GD32VW55X_Wifi_BLE_SDK/GD32VW55x_RELEASE_V1.0.2/MSDK/wpa_supplicant/src/common\hw_features_common.c **** 				center_segment0 = 42;
 1491              		.loc 1 591 7 is_stmt 0
 1492 01e8 13070003 		li	a4,48
 592:C:/Users/stapi/OneDrive/Desktop/GD32VW553/V1_MQTT_OK/GD32VW55X_Wifi_BLE_SDK/GD32VW55x_RELEASE_V1.0.2/MSDK/wpa_supplicant/src/common\hw_features_common.c **** 			else if (channel <= 64)
 1493              		.loc 1 592 21
 1494 01ec 9307A002 		li	a5,42
 591:C:/Users/stapi/OneDrive/Desktop/GD32VW553/V1_MQTT_OK/GD32VW55X_Wifi_BLE_SDK/GD32VW55x_RELEASE_V1.0.2/MSDK/wpa_supplicant/src/common\hw_features_common.c **** 				center_segment0 = 42;
 1495              		.loc 1 591 7
 1496 01f0 63579704 		ble	s1,a4,.L143
 593:C:/Users/stapi/OneDrive/Desktop/GD32VW553/V1_MQTT_OK/GD32VW55X_Wifi_BLE_SDK/GD32VW55x_RELEASE_V1.0.2/MSDK/wpa_supplicant/src/common\hw_features_common.c **** 				center_segment0 = 58;
 1497              		.loc 1 593 9 is_stmt 1
 593:C:/Users/stapi/OneDrive/Desktop/GD32VW553/V1_MQTT_OK/GD32VW55X_Wifi_BLE_SDK/GD32VW55x_RELEASE_V1.0.2/MSDK/wpa_supplicant/src/common\hw_features_common.c **** 				center_segment0 = 58;
 1498              		.loc 1 593 12 is_stmt 0
 1499 01f4 13070004 		li	a4,64
 594:C:/Users/stapi/OneDrive/Desktop/GD32VW553/V1_MQTT_OK/GD32VW55X_Wifi_BLE_SDK/GD32VW55x_RELEASE_V1.0.2/MSDK/wpa_supplicant/src/common\hw_features_common.c **** 			else if (channel <= 112)
 1500              		.loc 1 594 21
 1501 01f8 9307A003 		li	a5,58
 593:C:/Users/stapi/OneDrive/Desktop/GD32VW553/V1_MQTT_OK/GD32VW55X_Wifi_BLE_SDK/GD32VW55x_RELEASE_V1.0.2/MSDK/wpa_supplicant/src/common\hw_features_common.c **** 				center_segment0 = 58;
 1502              		.loc 1 593 12
 1503 01fc 63519704 		ble	s1,a4,.L143
 595:C:/Users/stapi/OneDrive/Desktop/GD32VW553/V1_MQTT_OK/GD32VW55X_Wifi_BLE_SDK/GD32VW55x_RELEASE_V1.0.2/MSDK/wpa_supplicant/src/common\hw_features_common.c **** 				center_segment0 = 106;
 1504              		.loc 1 595 9 is_stmt 1
 595:C:/Users/stapi/OneDrive/Desktop/GD32VW553/V1_MQTT_OK/GD32VW55X_Wifi_BLE_SDK/GD32VW55x_RELEASE_V1.0.2/MSDK/wpa_supplicant/src/common\hw_features_common.c **** 				center_segment0 = 106;
 1505              		.loc 1 595 12 is_stmt 0
 1506 0200 13070007 		li	a4,112
 596:C:/Users/stapi/OneDrive/Desktop/GD32VW553/V1_MQTT_OK/GD32VW55X_Wifi_BLE_SDK/GD32VW55x_RELEASE_V1.0.2/MSDK/wpa_supplicant/src/common\hw_features_common.c **** 			else if (channel <= 128)
 1507              		.loc 1 596 21
 1508 0204 9307A006 		li	a5,106
 595:C:/Users/stapi/OneDrive/Desktop/GD32VW553/V1_MQTT_OK/GD32VW55X_Wifi_BLE_SDK/GD32VW55x_RELEASE_V1.0.2/MSDK/wpa_supplicant/src/common\hw_features_common.c **** 				center_segment0 = 106;
 1509              		.loc 1 595 12
 1510 0208 635B9702 		ble	s1,a4,.L143
 597:C:/Users/stapi/OneDrive/Desktop/GD32VW553/V1_MQTT_OK/GD32VW55X_Wifi_BLE_SDK/GD32VW55x_RELEASE_V1.0.2/MSDK/wpa_supplicant/src/common\hw_features_common.c **** 				center_segment0 = 122;
 1511              		.loc 1 597 9 is_stmt 1
 597:C:/Users/stapi/OneDrive/Desktop/GD32VW553/V1_MQTT_OK/GD32VW55X_Wifi_BLE_SDK/GD32VW55x_RELEASE_V1.0.2/MSDK/wpa_supplicant/src/common\hw_features_common.c **** 				center_segment0 = 122;
 1512              		.loc 1 597 12 is_stmt 0
 1513 020c 13070008 		li	a4,128
 598:C:/Users/stapi/OneDrive/Desktop/GD32VW553/V1_MQTT_OK/GD32VW55X_Wifi_BLE_SDK/GD32VW55x_RELEASE_V1.0.2/MSDK/wpa_supplicant/src/common\hw_features_common.c **** 			else if (channel <= 144)
 1514              		.loc 1 598 21
 1515 0210 9307A007 		li	a5,122
 597:C:/Users/stapi/OneDrive/Desktop/GD32VW553/V1_MQTT_OK/GD32VW55X_Wifi_BLE_SDK/GD32VW55x_RELEASE_V1.0.2/MSDK/wpa_supplicant/src/common\hw_features_common.c **** 				center_segment0 = 122;
 1516              		.loc 1 597 12
 1517 0214 63559702 		ble	s1,a4,.L143
 599:C:/Users/stapi/OneDrive/Desktop/GD32VW553/V1_MQTT_OK/GD32VW55X_Wifi_BLE_SDK/GD32VW55x_RELEASE_V1.0.2/MSDK/wpa_supplicant/src/common\hw_features_common.c **** 				center_segment0 = 138;
 1518              		.loc 1 599 9 is_stmt 1
 599:C:/Users/stapi/OneDrive/Desktop/GD32VW553/V1_MQTT_OK/GD32VW55X_Wifi_BLE_SDK/GD32VW55x_RELEASE_V1.0.2/MSDK/wpa_supplicant/src/common\hw_features_common.c **** 				center_segment0 = 138;
 1519              		.loc 1 599 12 is_stmt 0
 1520 0218 13070009 		li	a4,144
 600:C:/Users/stapi/OneDrive/Desktop/GD32VW553/V1_MQTT_OK/GD32VW55X_Wifi_BLE_SDK/GD32VW55x_RELEASE_V1.0.2/MSDK/wpa_supplicant/src/common\hw_features_common.c **** 			else if (channel <= 161)
 1521              		.loc 1 600 21
 1522 021c 9307A008 		li	a5,138
 599:C:/Users/stapi/OneDrive/Desktop/GD32VW553/V1_MQTT_OK/GD32VW55X_Wifi_BLE_SDK/GD32VW55x_RELEASE_V1.0.2/MSDK/wpa_supplicant/src/common\hw_features_common.c **** 				center_segment0 = 138;
 1523              		.loc 1 599 12
 1524 0220 635F9700 		ble	s1,a4,.L143
 601:C:/Users/stapi/OneDrive/Desktop/GD32VW553/V1_MQTT_OK/GD32VW55X_Wifi_BLE_SDK/GD32VW55x_RELEASE_V1.0.2/MSDK/wpa_supplicant/src/common\hw_features_common.c **** 				center_segment0 = 155;
 1525              		.loc 1 601 9 is_stmt 1
 601:C:/Users/stapi/OneDrive/Desktop/GD32VW553/V1_MQTT_OK/GD32VW55X_Wifi_BLE_SDK/GD32VW55x_RELEASE_V1.0.2/MSDK/wpa_supplicant/src/common\hw_features_common.c **** 				center_segment0 = 155;
 1526              		.loc 1 601 12 is_stmt 0
 1527 0224 1307100A 		li	a4,161
 602:C:/Users/stapi/OneDrive/Desktop/GD32VW553/V1_MQTT_OK/GD32VW55X_Wifi_BLE_SDK/GD32VW55x_RELEASE_V1.0.2/MSDK/wpa_supplicant/src/common\hw_features_common.c **** 			else if (channel <= 177)
 1528              		.loc 1 602 21
 1529 0228 9307B009 		li	a5,155
 601:C:/Users/stapi/OneDrive/Desktop/GD32VW553/V1_MQTT_OK/GD32VW55X_Wifi_BLE_SDK/GD32VW55x_RELEASE_V1.0.2/MSDK/wpa_supplicant/src/common\hw_features_common.c **** 				center_segment0 = 155;
 1530              		.loc 1 601 12
 1531 022c 63599700 		ble	s1,a4,.L143
 603:C:/Users/stapi/OneDrive/Desktop/GD32VW553/V1_MQTT_OK/GD32VW55X_Wifi_BLE_SDK/GD32VW55x_RELEASE_V1.0.2/MSDK/wpa_supplicant/src/common\hw_features_common.c **** 				center_segment0 = 171;
 1532              		.loc 1 603 9 is_stmt 1
 603:C:/Users/stapi/OneDrive/Desktop/GD32VW553/V1_MQTT_OK/GD32VW55X_Wifi_BLE_SDK/GD32VW55x_RELEASE_V1.0.2/MSDK/wpa_supplicant/src/common\hw_features_common.c **** 				center_segment0 = 171;
 1533              		.loc 1 603 12 is_stmt 0
 1534 0230 1307100B 		li	a4,177
 1535 0234 8147     		li	a5,0
 1536 0236 63449700 		bgt	s1,a4,.L143
 604:C:/Users/stapi/OneDrive/Desktop/GD32VW553/V1_MQTT_OK/GD32VW55X_Wifi_BLE_SDK/GD32VW55x_RELEASE_V1.0.2/MSDK/wpa_supplicant/src/common\hw_features_common.c **** 			data->center_freq1 = 5000 + center_segment0 * 5;
 1537              		.loc 1 604 21
 1538 023a 9307B00A 		li	a5,171
 1539              	.L143:
 1540              	.LVL120:
 605:C:/Users/stapi/OneDrive/Desktop/GD32VW553/V1_MQTT_OK/GD32VW55X_Wifi_BLE_SDK/GD32VW55x_RELEASE_V1.0.2/MSDK/wpa_supplicant/src/common\hw_features_common.c **** 		} else {
 1541              		.loc 1 605 4 is_stmt 1
 605:C:/Users/stapi/OneDrive/Desktop/GD32VW553/V1_MQTT_OK/GD32VW55X_Wifi_BLE_SDK/GD32VW55x_RELEASE_V1.0.2/MSDK/wpa_supplicant/src/common\hw_features_common.c **** 		} else {
 1542              		.loc 1 605 30 is_stmt 0
 1543 023e 0567     		li	a4,4096
 1544 0240 9546     		li	a3,5
 1545 0242 13078738 		addi	a4,a4,904
 1546 0246 7F97D7C4 		maddr32	a4, a5, a3
 605:C:/Users/stapi/OneDrive/Desktop/GD32VW553/V1_MQTT_OK/GD32VW55X_Wifi_BLE_SDK/GD32VW55x_RELEASE_V1.0.2/MSDK/wpa_supplicant/src/common\hw_features_common.c **** 		} else {
 1547              		.loc 1 605 23
 1548 024a 23AEE900 		sw	a4,28(s3)
 1549 024e 35BD     		j	.L154
 1550              	.LVL121:
 1551              	.L142:
 612:C:/Users/stapi/OneDrive/Desktop/GD32VW553/V1_MQTT_OK/GD32VW55X_Wifi_BLE_SDK/GD32VW55x_RELEASE_V1.0.2/MSDK/wpa_supplicant/src/common\hw_features_common.c **** 			    center_segment0 == channel + 2 ||
 1552              		.loc 1 612 4 is_stmt 1
 612:C:/Users/stapi/OneDrive/Desktop/GD32VW553/V1_MQTT_OK/GD32VW55X_Wifi_BLE_SDK/GD32VW55x_RELEASE_V1.0.2/MSDK/wpa_supplicant/src/common\hw_features_common.c **** 			    center_segment0 == channel + 2 ||
 1553              		.loc 1 612 35 is_stmt 0
 1554 0250 93876400 		addi	a5,s1,6
 612:C:/Users/stapi/OneDrive/Desktop/GD32VW553/V1_MQTT_OK/GD32VW55X_Wifi_BLE_SDK/GD32VW55x_RELEASE_V1.0.2/MSDK/wpa_supplicant/src/common\hw_features_common.c **** 			    center_segment0 == channel + 2 ||
 1555              		.loc 1 612 7
 1556 0254 639B2701 		bne	a5,s2,.L144
 1557              	.LVL122:
 1558              	.L145:
 616:C:/Users/stapi/OneDrive/Desktop/GD32VW553/V1_MQTT_OK/GD32VW55X_Wifi_BLE_SDK/GD32VW55x_RELEASE_V1.0.2/MSDK/wpa_supplicant/src/common\hw_features_common.c **** 			else {
 1559              		.loc 1 616 5 is_stmt 1
 616:C:/Users/stapi/OneDrive/Desktop/GD32VW553/V1_MQTT_OK/GD32VW55X_Wifi_BLE_SDK/GD32VW55x_RELEASE_V1.0.2/MSDK/wpa_supplicant/src/common\hw_features_common.c **** 			else {
 1560              		.loc 1 616 31 is_stmt 0
 1561 0258 8567     		li	a5,4096
 1562 025a 1547     		li	a4,5
 1563 025c 93878738 		addi	a5,a5,904
 1564 0260 FF17E9C4 		maddr32	a5, s2, a4
 616:C:/Users/stapi/OneDrive/Desktop/GD32VW553/V1_MQTT_OK/GD32VW55X_Wifi_BLE_SDK/GD32VW55x_RELEASE_V1.0.2/MSDK/wpa_supplicant/src/common\hw_features_common.c **** 			else {
 1565              		.loc 1 616 24
 1566 0264 23AEF900 		sw	a5,28(s3)
 1567 0268 0DB5     		j	.L154
 1568              	.LVL123:
 1569              	.L144:
 613:C:/Users/stapi/OneDrive/Desktop/GD32VW553/V1_MQTT_OK/GD32VW55X_Wifi_BLE_SDK/GD32VW55x_RELEASE_V1.0.2/MSDK/wpa_supplicant/src/common\hw_features_common.c **** 			    center_segment0 == channel - 2 ||
 1570              		.loc 1 613 35 discriminator 1
 1571 026a 93872400 		addi	a5,s1,2
 612:C:/Users/stapi/OneDrive/Desktop/GD32VW553/V1_MQTT_OK/GD32VW55X_Wifi_BLE_SDK/GD32VW55x_RELEASE_V1.0.2/MSDK/wpa_supplicant/src/common\hw_features_common.c **** 			    center_segment0 == channel + 2 ||
 1572              		.loc 1 612 39 discriminator 1
 1573 026e E38527FF 		beq	a5,s2,.L145
 614:C:/Users/stapi/OneDrive/Desktop/GD32VW553/V1_MQTT_OK/GD32VW55X_Wifi_BLE_SDK/GD32VW55x_RELEASE_V1.0.2/MSDK/wpa_supplicant/src/common\hw_features_common.c **** 			    center_segment0 == channel - 6)
 1574              		.loc 1 614 35
 1575 0272 9387E4FF 		addi	a5,s1,-2
 613:C:/Users/stapi/OneDrive/Desktop/GD32VW553/V1_MQTT_OK/GD32VW55X_Wifi_BLE_SDK/GD32VW55x_RELEASE_V1.0.2/MSDK/wpa_supplicant/src/common\hw_features_common.c **** 			    center_segment0 == channel - 2 ||
 1576              		.loc 1 613 39
 1577 0276 E38127FF 		beq	a5,s2,.L145
 615:C:/Users/stapi/OneDrive/Desktop/GD32VW553/V1_MQTT_OK/GD32VW55X_Wifi_BLE_SDK/GD32VW55x_RELEASE_V1.0.2/MSDK/wpa_supplicant/src/common\hw_features_common.c **** 				data->center_freq1 = 5000 + center_segment0 * 5;
 1578              		.loc 1 615 35
 1579 027a E914     		addi	s1,s1,-6
 1580              	.LVL124:
 614:C:/Users/stapi/OneDrive/Desktop/GD32VW553/V1_MQTT_OK/GD32VW55X_Wifi_BLE_SDK/GD32VW55x_RELEASE_V1.0.2/MSDK/wpa_supplicant/src/common\hw_features_common.c **** 			    center_segment0 == channel - 6)
 1581              		.loc 1 614 39
 1582 027c E38E24FD 		beq	s1,s2,.L145
 618:C:/Users/stapi/OneDrive/Desktop/GD32VW553/V1_MQTT_OK/GD32VW55X_Wifi_BLE_SDK/GD32VW55x_RELEASE_V1.0.2/MSDK/wpa_supplicant/src/common\hw_features_common.c **** 					   "Wrong coupling between HT and VHT/HE channel setting");
 1583              		.loc 1 618 5 is_stmt 1
 1584 0280 B7050000 		lui	a1,%hi(.LC21)
 1585 0284 93850500 		addi	a1,a1,%lo(.LC21)
 1586 0288 35BD     		j	.L174
 1587              	.LVL125:
 1588              	.L133:
 625:C:/Users/stapi/OneDrive/Desktop/GD32VW553/V1_MQTT_OK/GD32VW55X_Wifi_BLE_SDK/GD32VW55x_RELEASE_V1.0.2/MSDK/wpa_supplicant/src/common\hw_features_common.c **** 		if (center_segment1) {
 1589              		.loc 1 625 3
 625:C:/Users/stapi/OneDrive/Desktop/GD32VW553/V1_MQTT_OK/GD32VW55X_Wifi_BLE_SDK/GD32VW55x_RELEASE_V1.0.2/MSDK/wpa_supplicant/src/common\hw_features_common.c **** 		if (center_segment1) {
 1590              		.loc 1 625 19 is_stmt 0
 1591 028a 9307000A 		li	a5,160
 1592 028e 23A2F902 		sw	a5,36(s3)
 626:C:/Users/stapi/OneDrive/Desktop/GD32VW553/V1_MQTT_OK/GD32VW55X_Wifi_BLE_SDK/GD32VW55x_RELEASE_V1.0.2/MSDK/wpa_supplicant/src/common\hw_features_common.c **** 			wpa_printf(MSG_ERROR,
 1593              		.loc 1 626 3 is_stmt 1
 626:C:/Users/stapi/OneDrive/Desktop/GD32VW553/V1_MQTT_OK/GD32VW55X_Wifi_BLE_SDK/GD32VW55x_RELEASE_V1.0.2/MSDK/wpa_supplicant/src/common\hw_features_common.c **** 			wpa_printf(MSG_ERROR,
 1594              		.loc 1 626 6 is_stmt 0
 1595 0292 11C4     		beq	s0,zero,.L146
 627:C:/Users/stapi/OneDrive/Desktop/GD32VW553/V1_MQTT_OK/GD32VW55X_Wifi_BLE_SDK/GD32VW55x_RELEASE_V1.0.2/MSDK/wpa_supplicant/src/common\hw_features_common.c **** 				   "160 MHz: center segment 1 should not be set");
 1596              		.loc 1 627 4 is_stmt 1
 1597 0294 B7050000 		lui	a1,%hi(.LC22)
 1598 0298 93850500 		addi	a1,a1,%lo(.LC22)
 1599 029c 25B5     		j	.L174
 1600              	.L146:
 631:C:/Users/stapi/OneDrive/Desktop/GD32VW553/V1_MQTT_OK/GD32VW55X_Wifi_BLE_SDK/GD32VW55x_RELEASE_V1.0.2/MSDK/wpa_supplicant/src/common\hw_features_common.c **** 			wpa_printf(MSG_ERROR,
 1601              		.loc 1 631 3
 631:C:/Users/stapi/OneDrive/Desktop/GD32VW553/V1_MQTT_OK/GD32VW55X_Wifi_BLE_SDK/GD32VW55x_RELEASE_V1.0.2/MSDK/wpa_supplicant/src/common\hw_features_common.c **** 			wpa_printf(MSG_ERROR,
 1602              		.loc 1 631 6 is_stmt 0
 1603 029e 63970D00 		bne	s11,zero,.L147
 632:C:/Users/stapi/OneDrive/Desktop/GD32VW553/V1_MQTT_OK/GD32VW55X_Wifi_BLE_SDK/GD32VW55x_RELEASE_V1.0.2/MSDK/wpa_supplicant/src/common\hw_features_common.c **** 				   "160 MHz: second channel offset not set");
 1604              		.loc 1 632 4 is_stmt 1
 1605 02a2 B7050000 		lui	a1,%hi(.LC23)
 1606 02a6 93850500 		addi	a1,a1,%lo(.LC23)
 1607 02aa 29BD     		j	.L174
 1608              	.L147:
 640:C:/Users/stapi/OneDrive/Desktop/GD32VW553/V1_MQTT_OK/GD32VW55X_Wifi_BLE_SDK/GD32VW55x_RELEASE_V1.0.2/MSDK/wpa_supplicant/src/common\hw_features_common.c **** 		    center_segment0 == channel + 10 ||
 1609              		.loc 1 640 3
 640:C:/Users/stapi/OneDrive/Desktop/GD32VW553/V1_MQTT_OK/GD32VW55X_Wifi_BLE_SDK/GD32VW55x_RELEASE_V1.0.2/MSDK/wpa_supplicant/src/common\hw_features_common.c **** 		    center_segment0 == channel + 10 ||
 1610              		.loc 1 640 34 is_stmt 0
 1611 02ac 9387E400 		addi	a5,s1,14
 640:C:/Users/stapi/OneDrive/Desktop/GD32VW553/V1_MQTT_OK/GD32VW55X_Wifi_BLE_SDK/GD32VW55x_RELEASE_V1.0.2/MSDK/wpa_supplicant/src/common\hw_features_common.c **** 		    center_segment0 == channel + 10 ||
 1612              		.loc 1 640 6
 1613 02b0 E38427FB 		beq	a5,s2,.L145
 641:C:/Users/stapi/OneDrive/Desktop/GD32VW553/V1_MQTT_OK/GD32VW55X_Wifi_BLE_SDK/GD32VW55x_RELEASE_V1.0.2/MSDK/wpa_supplicant/src/common\hw_features_common.c **** 		    center_segment0 == channel + 6 ||
 1614              		.loc 1 641 34 discriminator 1
 1615 02b4 9387A400 		addi	a5,s1,10
 640:C:/Users/stapi/OneDrive/Desktop/GD32VW553/V1_MQTT_OK/GD32VW55X_Wifi_BLE_SDK/GD32VW55x_RELEASE_V1.0.2/MSDK/wpa_supplicant/src/common\hw_features_common.c **** 		    center_segment0 == channel + 10 ||
 1616              		.loc 1 640 39 discriminator 1
 1617 02b8 E38027FB 		beq	a5,s2,.L145
 642:C:/Users/stapi/OneDrive/Desktop/GD32VW553/V1_MQTT_OK/GD32VW55X_Wifi_BLE_SDK/GD32VW55x_RELEASE_V1.0.2/MSDK/wpa_supplicant/src/common\hw_features_common.c **** 		    center_segment0 == channel + 2 ||
 1618              		.loc 1 642 34
 1619 02bc 93876400 		addi	a5,s1,6
 641:C:/Users/stapi/OneDrive/Desktop/GD32VW553/V1_MQTT_OK/GD32VW55X_Wifi_BLE_SDK/GD32VW55x_RELEASE_V1.0.2/MSDK/wpa_supplicant/src/common\hw_features_common.c **** 		    center_segment0 == channel + 6 ||
 1620              		.loc 1 641 39
 1621 02c0 E38C27F9 		beq	a5,s2,.L145
 643:C:/Users/stapi/OneDrive/Desktop/GD32VW553/V1_MQTT_OK/GD32VW55X_Wifi_BLE_SDK/GD32VW55x_RELEASE_V1.0.2/MSDK/wpa_supplicant/src/common\hw_features_common.c **** 		    center_segment0 == channel - 2 ||
 1622              		.loc 1 643 34
 1623 02c4 93872400 		addi	a5,s1,2
 642:C:/Users/stapi/OneDrive/Desktop/GD32VW553/V1_MQTT_OK/GD32VW55X_Wifi_BLE_SDK/GD32VW55x_RELEASE_V1.0.2/MSDK/wpa_supplicant/src/common\hw_features_common.c **** 		    center_segment0 == channel + 2 ||
 1624              		.loc 1 642 38
 1625 02c8 E38827F9 		beq	a5,s2,.L145
 644:C:/Users/stapi/OneDrive/Desktop/GD32VW553/V1_MQTT_OK/GD32VW55X_Wifi_BLE_SDK/GD32VW55x_RELEASE_V1.0.2/MSDK/wpa_supplicant/src/common\hw_features_common.c **** 		    center_segment0 == channel - 6 ||
 1626              		.loc 1 644 34
 1627 02cc 9387E4FF 		addi	a5,s1,-2
 643:C:/Users/stapi/OneDrive/Desktop/GD32VW553/V1_MQTT_OK/GD32VW55X_Wifi_BLE_SDK/GD32VW55x_RELEASE_V1.0.2/MSDK/wpa_supplicant/src/common\hw_features_common.c **** 		    center_segment0 == channel - 2 ||
 1628              		.loc 1 643 38
 1629 02d0 E38427F9 		beq	a5,s2,.L145
 645:C:/Users/stapi/OneDrive/Desktop/GD32VW553/V1_MQTT_OK/GD32VW55X_Wifi_BLE_SDK/GD32VW55x_RELEASE_V1.0.2/MSDK/wpa_supplicant/src/common\hw_features_common.c **** 		    center_segment0 == channel - 10 ||
 1630              		.loc 1 645 34
 1631 02d4 9387A4FF 		addi	a5,s1,-6
 644:C:/Users/stapi/OneDrive/Desktop/GD32VW553/V1_MQTT_OK/GD32VW55X_Wifi_BLE_SDK/GD32VW55x_RELEASE_V1.0.2/MSDK/wpa_supplicant/src/common\hw_features_common.c **** 		    center_segment0 == channel - 6 ||
 1632              		.loc 1 644 38
 1633 02d8 E38027F9 		beq	a5,s2,.L145
 646:C:/Users/stapi/OneDrive/Desktop/GD32VW553/V1_MQTT_OK/GD32VW55X_Wifi_BLE_SDK/GD32VW55x_RELEASE_V1.0.2/MSDK/wpa_supplicant/src/common\hw_features_common.c **** 		    center_segment0 == channel - 14)
 1634              		.loc 1 646 34
 1635 02dc 938764FF 		addi	a5,s1,-10
 645:C:/Users/stapi/OneDrive/Desktop/GD32VW553/V1_MQTT_OK/GD32VW55X_Wifi_BLE_SDK/GD32VW55x_RELEASE_V1.0.2/MSDK/wpa_supplicant/src/common\hw_features_common.c **** 		    center_segment0 == channel - 10 ||
 1636              		.loc 1 645 38
 1637 02e0 E38C27F7 		beq	a5,s2,.L145
 647:C:/Users/stapi/OneDrive/Desktop/GD32VW553/V1_MQTT_OK/GD32VW55X_Wifi_BLE_SDK/GD32VW55x_RELEASE_V1.0.2/MSDK/wpa_supplicant/src/common\hw_features_common.c **** 			data->center_freq1 = 5000 + center_segment0 * 5;
 1638              		.loc 1 647 34
 1639 02e4 C914     		addi	s1,s1,-14
 1640              	.LVL126:
 646:C:/Users/stapi/OneDrive/Desktop/GD32VW553/V1_MQTT_OK/GD32VW55X_Wifi_BLE_SDK/GD32VW55x_RELEASE_V1.0.2/MSDK/wpa_supplicant/src/common\hw_features_common.c **** 		    center_segment0 == channel - 14)
 1641              		.loc 1 646 39
 1642 02e6 E38924F7 		beq	s1,s2,.L145
 650:C:/Users/stapi/OneDrive/Desktop/GD32VW553/V1_MQTT_OK/GD32VW55X_Wifi_BLE_SDK/GD32VW55x_RELEASE_V1.0.2/MSDK/wpa_supplicant/src/common\hw_features_common.c **** 				   "160 MHz: HT40 channel band is not in 160 MHz band");
 1643              		.loc 1 650 4 is_stmt 1
 1644 02ea B7050000 		lui	a1,%hi(.LC24)
 1645 02ee 93850500 		addi	a1,a1,%lo(.LC24)
 1646 02f2 C9BB     		j	.L174
 1647              	.LVL127:
 1648              	.L129:
 505:C:/Users/stapi/OneDrive/Desktop/GD32VW553/V1_MQTT_OK/GD32VW55X_Wifi_BLE_SDK/GD32VW55x_RELEASE_V1.0.2/MSDK/wpa_supplicant/src/common\hw_features_common.c **** 			if (!(he_cap->phy_cap[HE_PHYCAP_CHANNEL_WIDTH_SET_IDX] &
 1649              		.loc 1 505 3
 505:C:/Users/stapi/OneDrive/Desktop/GD32VW553/V1_MQTT_OK/GD32VW55X_Wifi_BLE_SDK/GD32VW55x_RELEASE_V1.0.2/MSDK/wpa_supplicant/src/common\hw_features_common.c **** 			if (!(he_cap->phy_cap[HE_PHYCAP_CHANNEL_WIDTH_SET_IDX] &
 1650              		.loc 1 505 6 is_stmt 0
 1651 02f4 E314FBE4 		bne	s6,a5,.L128
 1652 02f8 F1BB     		j	.L148
 1653              	.L131:
 552:C:/Users/stapi/OneDrive/Desktop/GD32VW553/V1_MQTT_OK/GD32VW55X_Wifi_BLE_SDK/GD32VW55x_RELEASE_V1.0.2/MSDK/wpa_supplicant/src/common\hw_features_common.c **** 	case CHANWIDTH_USE_HT:
 1654              		.loc 1 552 45 is_stmt 1
 1655 02fa 8547     		li	a5,1
 1656 02fc E307FAEA 		beq	s4,a5,.L130
 1657 0300 25BD     		j	.L149
 1658              		.cfi_endproc
 1659              	.LFE111:
 1661              		.section	.text.set_disable_ht40,"ax",@progbits
 1662              		.align	1
 1663              		.globl	set_disable_ht40
 1665              	set_disable_ht40:
 1666              	.LFB112:
 659:C:/Users/stapi/OneDrive/Desktop/GD32VW553/V1_MQTT_OK/GD32VW55X_Wifi_BLE_SDK/GD32VW55x_RELEASE_V1.0.2/MSDK/wpa_supplicant/src/common\hw_features_common.c **** #endif /* CONFIG_HOSTAP_SET_FREQ */
 660:C:/Users/stapi/OneDrive/Desktop/GD32VW553/V1_MQTT_OK/GD32VW55X_Wifi_BLE_SDK/GD32VW55x_RELEASE_V1.0.2/MSDK/wpa_supplicant/src/common\hw_features_common.c **** 
 661:C:/Users/stapi/OneDrive/Desktop/GD32VW553/V1_MQTT_OK/GD32VW55X_Wifi_BLE_SDK/GD32VW55x_RELEASE_V1.0.2/MSDK/wpa_supplicant/src/common\hw_features_common.c **** void set_disable_ht40(struct ieee80211_ht_capabilities *htcaps,
 662:C:/Users/stapi/OneDrive/Desktop/GD32VW553/V1_MQTT_OK/GD32VW55X_Wifi_BLE_SDK/GD32VW55x_RELEASE_V1.0.2/MSDK/wpa_supplicant/src/common\hw_features_common.c **** 		      int disabled)
 663:C:/Users/stapi/OneDrive/Desktop/GD32VW553/V1_MQTT_OK/GD32VW55X_Wifi_BLE_SDK/GD32VW55x_RELEASE_V1.0.2/MSDK/wpa_supplicant/src/common\hw_features_common.c **** {
 1667              		.loc 1 663 1
 1668              		.cfi_startproc
 1669              	.LVL128:
 664:C:/Users/stapi/OneDrive/Desktop/GD32VW553/V1_MQTT_OK/GD32VW55X_Wifi_BLE_SDK/GD32VW55x_RELEASE_V1.0.2/MSDK/wpa_supplicant/src/common\hw_features_common.c **** 	/* Masking these out disables HT40 */
 665:C:/Users/stapi/OneDrive/Desktop/GD32VW553/V1_MQTT_OK/GD32VW55X_Wifi_BLE_SDK/GD32VW55x_RELEASE_V1.0.2/MSDK/wpa_supplicant/src/common\hw_features_common.c **** 	le16 msk = host_to_le16(HT_CAP_INFO_SUPP_CHANNEL_WIDTH_SET |
 1670              		.loc 1 665 2
 666:C:/Users/stapi/OneDrive/Desktop/GD32VW553/V1_MQTT_OK/GD32VW55X_Wifi_BLE_SDK/GD32VW55x_RELEASE_V1.0.2/MSDK/wpa_supplicant/src/common\hw_features_common.c **** 				HT_CAP_INFO_SHORT_GI40MHZ);
 667:C:/Users/stapi/OneDrive/Desktop/GD32VW553/V1_MQTT_OK/GD32VW55X_Wifi_BLE_SDK/GD32VW55x_RELEASE_V1.0.2/MSDK/wpa_supplicant/src/common\hw_features_common.c **** 
 668:C:/Users/stapi/OneDrive/Desktop/GD32VW553/V1_MQTT_OK/GD32VW55X_Wifi_BLE_SDK/GD32VW55x_RELEASE_V1.0.2/MSDK/wpa_supplicant/src/common\hw_features_common.c **** 	if (disabled)
 1671              		.loc 1 668 2
 669:C:/Users/stapi/OneDrive/Desktop/GD32VW553/V1_MQTT_OK/GD32VW55X_Wifi_BLE_SDK/GD32VW55x_RELEASE_V1.0.2/MSDK/wpa_supplicant/src/common\hw_features_common.c **** 		htcaps->ht_capabilities_info &= ~msk;
 1672              		.loc 1 669 32 is_stmt 0
 1673 0000 83471500 		lbu	a5,1(a0)
 1674 0004 03470500 		lbu	a4,0(a0)
 1675 0008 A207     		slli	a5,a5,8
 1676 000a D98F     		or	a5,a5,a4
 670:C:/Users/stapi/OneDrive/Desktop/GD32VW553/V1_MQTT_OK/GD32VW55X_Wifi_BLE_SDK/GD32VW55x_RELEASE_V1.0.2/MSDK/wpa_supplicant/src/common\hw_features_common.c **** 	else
 671:C:/Users/stapi/OneDrive/Desktop/GD32VW553/V1_MQTT_OK/GD32VW55X_Wifi_BLE_SDK/GD32VW55x_RELEASE_V1.0.2/MSDK/wpa_supplicant/src/common\hw_features_common.c **** 		htcaps->ht_capabilities_info |= msk;
 1677              		.loc 1 671 32
 1678 000c 13E72704 		ori	a4,a5,66
 668:C:/Users/stapi/OneDrive/Desktop/GD32VW553/V1_MQTT_OK/GD32VW55X_Wifi_BLE_SDK/GD32VW55x_RELEASE_V1.0.2/MSDK/wpa_supplicant/src/common\hw_features_common.c **** 		htcaps->ht_capabilities_info &= ~msk;
 1679              		.loc 1 668 5
 1680 0010 89C5     		beq	a1,zero,.L178
 669:C:/Users/stapi/OneDrive/Desktop/GD32VW553/V1_MQTT_OK/GD32VW55X_Wifi_BLE_SDK/GD32VW55x_RELEASE_V1.0.2/MSDK/wpa_supplicant/src/common\hw_features_common.c **** 		htcaps->ht_capabilities_info &= ~msk;
 1681              		.loc 1 669 3 is_stmt 1
 669:C:/Users/stapi/OneDrive/Desktop/GD32VW553/V1_MQTT_OK/GD32VW55X_Wifi_BLE_SDK/GD32VW55x_RELEASE_V1.0.2/MSDK/wpa_supplicant/src/common\hw_features_common.c **** 		htcaps->ht_capabilities_info &= ~msk;
 1682              		.loc 1 669 32 is_stmt 0
 1683 0012 93F7D7FB 		andi	a5,a5,-67
 1684 0016 33C70708 		zext.h	a4,a5
 1685              	.L178:
 1686 001a 93578700 		srli	a5,a4,8
 1687 001e 2300E500 		sb	a4,0(a0)
 1688 0022 A300F500 		sb	a5,1(a0)
 672:C:/Users/stapi/OneDrive/Desktop/GD32VW553/V1_MQTT_OK/GD32VW55X_Wifi_BLE_SDK/GD32VW55x_RELEASE_V1.0.2/MSDK/wpa_supplicant/src/common\hw_features_common.c **** }
 1689              		.loc 1 672 1
 1690 0026 8280     		ret
 1691              		.cfi_endproc
 1692              	.LFE112:
 1694              		.section	.text.num_chan_to_bw,"ax",@progbits
 1695              		.align	1
 1696              		.globl	num_chan_to_bw
 1698              	num_chan_to_bw:
 1699              	.LFB113:
 673:C:/Users/stapi/OneDrive/Desktop/GD32VW553/V1_MQTT_OK/GD32VW55X_Wifi_BLE_SDK/GD32VW55x_RELEASE_V1.0.2/MSDK/wpa_supplicant/src/common\hw_features_common.c **** 
 674:C:/Users/stapi/OneDrive/Desktop/GD32VW553/V1_MQTT_OK/GD32VW55X_Wifi_BLE_SDK/GD32VW55x_RELEASE_V1.0.2/MSDK/wpa_supplicant/src/common\hw_features_common.c **** 
 675:C:/Users/stapi/OneDrive/Desktop/GD32VW553/V1_MQTT_OK/GD32VW55X_Wifi_BLE_SDK/GD32VW55x_RELEASE_V1.0.2/MSDK/wpa_supplicant/src/common\hw_features_common.c **** #ifdef CONFIG_IEEE80211AC
 676:C:/Users/stapi/OneDrive/Desktop/GD32VW553/V1_MQTT_OK/GD32VW55X_Wifi_BLE_SDK/GD32VW55x_RELEASE_V1.0.2/MSDK/wpa_supplicant/src/common\hw_features_common.c **** 
 677:C:/Users/stapi/OneDrive/Desktop/GD32VW553/V1_MQTT_OK/GD32VW55X_Wifi_BLE_SDK/GD32VW55x_RELEASE_V1.0.2/MSDK/wpa_supplicant/src/common\hw_features_common.c **** static int _ieee80211ac_cap_check(u32 hw, u32 conf, u32 cap,
 678:C:/Users/stapi/OneDrive/Desktop/GD32VW553/V1_MQTT_OK/GD32VW55X_Wifi_BLE_SDK/GD32VW55x_RELEASE_V1.0.2/MSDK/wpa_supplicant/src/common\hw_features_common.c **** 				  const char *name)
 679:C:/Users/stapi/OneDrive/Desktop/GD32VW553/V1_MQTT_OK/GD32VW55X_Wifi_BLE_SDK/GD32VW55x_RELEASE_V1.0.2/MSDK/wpa_supplicant/src/common\hw_features_common.c **** {
 680:C:/Users/stapi/OneDrive/Desktop/GD32VW553/V1_MQTT_OK/GD32VW55X_Wifi_BLE_SDK/GD32VW55x_RELEASE_V1.0.2/MSDK/wpa_supplicant/src/common\hw_features_common.c **** 	u32 req_cap = conf & cap;
 681:C:/Users/stapi/OneDrive/Desktop/GD32VW553/V1_MQTT_OK/GD32VW55X_Wifi_BLE_SDK/GD32VW55x_RELEASE_V1.0.2/MSDK/wpa_supplicant/src/common\hw_features_common.c **** 
 682:C:/Users/stapi/OneDrive/Desktop/GD32VW553/V1_MQTT_OK/GD32VW55X_Wifi_BLE_SDK/GD32VW55x_RELEASE_V1.0.2/MSDK/wpa_supplicant/src/common\hw_features_common.c **** 	/*
 683:C:/Users/stapi/OneDrive/Desktop/GD32VW553/V1_MQTT_OK/GD32VW55X_Wifi_BLE_SDK/GD32VW55x_RELEASE_V1.0.2/MSDK/wpa_supplicant/src/common\hw_features_common.c **** 	 * Make sure we support all requested capabilities.
 684:C:/Users/stapi/OneDrive/Desktop/GD32VW553/V1_MQTT_OK/GD32VW55X_Wifi_BLE_SDK/GD32VW55x_RELEASE_V1.0.2/MSDK/wpa_supplicant/src/common\hw_features_common.c **** 	 * NOTE: We assume that 'cap' represents a capability mask,
 685:C:/Users/stapi/OneDrive/Desktop/GD32VW553/V1_MQTT_OK/GD32VW55X_Wifi_BLE_SDK/GD32VW55x_RELEASE_V1.0.2/MSDK/wpa_supplicant/src/common\hw_features_common.c **** 	 * not a discrete value.
 686:C:/Users/stapi/OneDrive/Desktop/GD32VW553/V1_MQTT_OK/GD32VW55X_Wifi_BLE_SDK/GD32VW55x_RELEASE_V1.0.2/MSDK/wpa_supplicant/src/common\hw_features_common.c **** 	 */
 687:C:/Users/stapi/OneDrive/Desktop/GD32VW553/V1_MQTT_OK/GD32VW55X_Wifi_BLE_SDK/GD32VW55x_RELEASE_V1.0.2/MSDK/wpa_supplicant/src/common\hw_features_common.c **** 	if ((hw & req_cap) != req_cap) {
 688:C:/Users/stapi/OneDrive/Desktop/GD32VW553/V1_MQTT_OK/GD32VW55X_Wifi_BLE_SDK/GD32VW55x_RELEASE_V1.0.2/MSDK/wpa_supplicant/src/common\hw_features_common.c **** 		wpa_printf(MSG_ERROR,
 689:C:/Users/stapi/OneDrive/Desktop/GD32VW553/V1_MQTT_OK/GD32VW55X_Wifi_BLE_SDK/GD32VW55x_RELEASE_V1.0.2/MSDK/wpa_supplicant/src/common\hw_features_common.c **** 			   "Driver does not support configured VHT capability [%s]",
 690:C:/Users/stapi/OneDrive/Desktop/GD32VW553/V1_MQTT_OK/GD32VW55X_Wifi_BLE_SDK/GD32VW55x_RELEASE_V1.0.2/MSDK/wpa_supplicant/src/common\hw_features_common.c **** 			   name);
 691:C:/Users/stapi/OneDrive/Desktop/GD32VW553/V1_MQTT_OK/GD32VW55X_Wifi_BLE_SDK/GD32VW55x_RELEASE_V1.0.2/MSDK/wpa_supplicant/src/common\hw_features_common.c **** 		return 0;
 692:C:/Users/stapi/OneDrive/Desktop/GD32VW553/V1_MQTT_OK/GD32VW55X_Wifi_BLE_SDK/GD32VW55x_RELEASE_V1.0.2/MSDK/wpa_supplicant/src/common\hw_features_common.c **** 	}
 693:C:/Users/stapi/OneDrive/Desktop/GD32VW553/V1_MQTT_OK/GD32VW55X_Wifi_BLE_SDK/GD32VW55x_RELEASE_V1.0.2/MSDK/wpa_supplicant/src/common\hw_features_common.c **** 	return 1;
 694:C:/Users/stapi/OneDrive/Desktop/GD32VW553/V1_MQTT_OK/GD32VW55X_Wifi_BLE_SDK/GD32VW55x_RELEASE_V1.0.2/MSDK/wpa_supplicant/src/common\hw_features_common.c **** }
 695:C:/Users/stapi/OneDrive/Desktop/GD32VW553/V1_MQTT_OK/GD32VW55X_Wifi_BLE_SDK/GD32VW55x_RELEASE_V1.0.2/MSDK/wpa_supplicant/src/common\hw_features_common.c **** 
 696:C:/Users/stapi/OneDrive/Desktop/GD32VW553/V1_MQTT_OK/GD32VW55X_Wifi_BLE_SDK/GD32VW55x_RELEASE_V1.0.2/MSDK/wpa_supplicant/src/common\hw_features_common.c **** 
 697:C:/Users/stapi/OneDrive/Desktop/GD32VW553/V1_MQTT_OK/GD32VW55X_Wifi_BLE_SDK/GD32VW55x_RELEASE_V1.0.2/MSDK/wpa_supplicant/src/common\hw_features_common.c **** static int ieee80211ac_cap_check_max(u32 hw, u32 conf, u32 mask,
 698:C:/Users/stapi/OneDrive/Desktop/GD32VW553/V1_MQTT_OK/GD32VW55X_Wifi_BLE_SDK/GD32VW55x_RELEASE_V1.0.2/MSDK/wpa_supplicant/src/common\hw_features_common.c **** 				     unsigned int shift,
 699:C:/Users/stapi/OneDrive/Desktop/GD32VW553/V1_MQTT_OK/GD32VW55X_Wifi_BLE_SDK/GD32VW55x_RELEASE_V1.0.2/MSDK/wpa_supplicant/src/common\hw_features_common.c **** 				     const char *name)
 700:C:/Users/stapi/OneDrive/Desktop/GD32VW553/V1_MQTT_OK/GD32VW55X_Wifi_BLE_SDK/GD32VW55x_RELEASE_V1.0.2/MSDK/wpa_supplicant/src/common\hw_features_common.c **** {
 701:C:/Users/stapi/OneDrive/Desktop/GD32VW553/V1_MQTT_OK/GD32VW55X_Wifi_BLE_SDK/GD32VW55x_RELEASE_V1.0.2/MSDK/wpa_supplicant/src/common\hw_features_common.c **** 	u32 hw_max = hw & mask;
 702:C:/Users/stapi/OneDrive/Desktop/GD32VW553/V1_MQTT_OK/GD32VW55X_Wifi_BLE_SDK/GD32VW55x_RELEASE_V1.0.2/MSDK/wpa_supplicant/src/common\hw_features_common.c **** 	u32 conf_val = conf & mask;
 703:C:/Users/stapi/OneDrive/Desktop/GD32VW553/V1_MQTT_OK/GD32VW55X_Wifi_BLE_SDK/GD32VW55x_RELEASE_V1.0.2/MSDK/wpa_supplicant/src/common\hw_features_common.c **** 
 704:C:/Users/stapi/OneDrive/Desktop/GD32VW553/V1_MQTT_OK/GD32VW55X_Wifi_BLE_SDK/GD32VW55x_RELEASE_V1.0.2/MSDK/wpa_supplicant/src/common\hw_features_common.c **** 	if (conf_val > hw_max) {
 705:C:/Users/stapi/OneDrive/Desktop/GD32VW553/V1_MQTT_OK/GD32VW55X_Wifi_BLE_SDK/GD32VW55x_RELEASE_V1.0.2/MSDK/wpa_supplicant/src/common\hw_features_common.c **** 		wpa_printf(MSG_ERROR,
 706:C:/Users/stapi/OneDrive/Desktop/GD32VW553/V1_MQTT_OK/GD32VW55X_Wifi_BLE_SDK/GD32VW55x_RELEASE_V1.0.2/MSDK/wpa_supplicant/src/common\hw_features_common.c **** 			   "Configured VHT capability [%s] exceeds max value supported by the driver (%d > %d)",
 707:C:/Users/stapi/OneDrive/Desktop/GD32VW553/V1_MQTT_OK/GD32VW55X_Wifi_BLE_SDK/GD32VW55x_RELEASE_V1.0.2/MSDK/wpa_supplicant/src/common\hw_features_common.c **** 			   name, conf_val >> shift, hw_max >> shift);
 708:C:/Users/stapi/OneDrive/Desktop/GD32VW553/V1_MQTT_OK/GD32VW55X_Wifi_BLE_SDK/GD32VW55x_RELEASE_V1.0.2/MSDK/wpa_supplicant/src/common\hw_features_common.c **** 		return 0;
 709:C:/Users/stapi/OneDrive/Desktop/GD32VW553/V1_MQTT_OK/GD32VW55X_Wifi_BLE_SDK/GD32VW55x_RELEASE_V1.0.2/MSDK/wpa_supplicant/src/common\hw_features_common.c **** 	}
 710:C:/Users/stapi/OneDrive/Desktop/GD32VW553/V1_MQTT_OK/GD32VW55X_Wifi_BLE_SDK/GD32VW55x_RELEASE_V1.0.2/MSDK/wpa_supplicant/src/common\hw_features_common.c **** 	return 1;
 711:C:/Users/stapi/OneDrive/Desktop/GD32VW553/V1_MQTT_OK/GD32VW55X_Wifi_BLE_SDK/GD32VW55x_RELEASE_V1.0.2/MSDK/wpa_supplicant/src/common\hw_features_common.c **** }
 712:C:/Users/stapi/OneDrive/Desktop/GD32VW553/V1_MQTT_OK/GD32VW55X_Wifi_BLE_SDK/GD32VW55x_RELEASE_V1.0.2/MSDK/wpa_supplicant/src/common\hw_features_common.c **** 
 713:C:/Users/stapi/OneDrive/Desktop/GD32VW553/V1_MQTT_OK/GD32VW55X_Wifi_BLE_SDK/GD32VW55x_RELEASE_V1.0.2/MSDK/wpa_supplicant/src/common\hw_features_common.c **** 
 714:C:/Users/stapi/OneDrive/Desktop/GD32VW553/V1_MQTT_OK/GD32VW55X_Wifi_BLE_SDK/GD32VW55x_RELEASE_V1.0.2/MSDK/wpa_supplicant/src/common\hw_features_common.c **** int ieee80211ac_cap_check(u32 hw, u32 conf)
 715:C:/Users/stapi/OneDrive/Desktop/GD32VW553/V1_MQTT_OK/GD32VW55X_Wifi_BLE_SDK/GD32VW55x_RELEASE_V1.0.2/MSDK/wpa_supplicant/src/common\hw_features_common.c **** {
 716:C:/Users/stapi/OneDrive/Desktop/GD32VW553/V1_MQTT_OK/GD32VW55X_Wifi_BLE_SDK/GD32VW55x_RELEASE_V1.0.2/MSDK/wpa_supplicant/src/common\hw_features_common.c **** #define VHT_CAP_CHECK(cap) \
 717:C:/Users/stapi/OneDrive/Desktop/GD32VW553/V1_MQTT_OK/GD32VW55X_Wifi_BLE_SDK/GD32VW55x_RELEASE_V1.0.2/MSDK/wpa_supplicant/src/common\hw_features_common.c **** 	do { \
 718:C:/Users/stapi/OneDrive/Desktop/GD32VW553/V1_MQTT_OK/GD32VW55X_Wifi_BLE_SDK/GD32VW55x_RELEASE_V1.0.2/MSDK/wpa_supplicant/src/common\hw_features_common.c **** 		if (!_ieee80211ac_cap_check(hw, conf, cap, #cap)) \
 719:C:/Users/stapi/OneDrive/Desktop/GD32VW553/V1_MQTT_OK/GD32VW55X_Wifi_BLE_SDK/GD32VW55x_RELEASE_V1.0.2/MSDK/wpa_supplicant/src/common\hw_features_common.c **** 			return 0; \
 720:C:/Users/stapi/OneDrive/Desktop/GD32VW553/V1_MQTT_OK/GD32VW55X_Wifi_BLE_SDK/GD32VW55x_RELEASE_V1.0.2/MSDK/wpa_supplicant/src/common\hw_features_common.c **** 	} while (0)
 721:C:/Users/stapi/OneDrive/Desktop/GD32VW553/V1_MQTT_OK/GD32VW55X_Wifi_BLE_SDK/GD32VW55x_RELEASE_V1.0.2/MSDK/wpa_supplicant/src/common\hw_features_common.c **** 
 722:C:/Users/stapi/OneDrive/Desktop/GD32VW553/V1_MQTT_OK/GD32VW55X_Wifi_BLE_SDK/GD32VW55x_RELEASE_V1.0.2/MSDK/wpa_supplicant/src/common\hw_features_common.c **** #define VHT_CAP_CHECK_MAX(cap) \
 723:C:/Users/stapi/OneDrive/Desktop/GD32VW553/V1_MQTT_OK/GD32VW55X_Wifi_BLE_SDK/GD32VW55x_RELEASE_V1.0.2/MSDK/wpa_supplicant/src/common\hw_features_common.c **** 	do { \
 724:C:/Users/stapi/OneDrive/Desktop/GD32VW553/V1_MQTT_OK/GD32VW55X_Wifi_BLE_SDK/GD32VW55x_RELEASE_V1.0.2/MSDK/wpa_supplicant/src/common\hw_features_common.c **** 		if (!ieee80211ac_cap_check_max(hw, conf, cap, cap ## _SHIFT, \
 725:C:/Users/stapi/OneDrive/Desktop/GD32VW553/V1_MQTT_OK/GD32VW55X_Wifi_BLE_SDK/GD32VW55x_RELEASE_V1.0.2/MSDK/wpa_supplicant/src/common\hw_features_common.c **** 					       #cap)) \
 726:C:/Users/stapi/OneDrive/Desktop/GD32VW553/V1_MQTT_OK/GD32VW55X_Wifi_BLE_SDK/GD32VW55x_RELEASE_V1.0.2/MSDK/wpa_supplicant/src/common\hw_features_common.c **** 			return 0; \
 727:C:/Users/stapi/OneDrive/Desktop/GD32VW553/V1_MQTT_OK/GD32VW55X_Wifi_BLE_SDK/GD32VW55x_RELEASE_V1.0.2/MSDK/wpa_supplicant/src/common\hw_features_common.c **** 	} while (0)
 728:C:/Users/stapi/OneDrive/Desktop/GD32VW553/V1_MQTT_OK/GD32VW55X_Wifi_BLE_SDK/GD32VW55x_RELEASE_V1.0.2/MSDK/wpa_supplicant/src/common\hw_features_common.c **** 
 729:C:/Users/stapi/OneDrive/Desktop/GD32VW553/V1_MQTT_OK/GD32VW55X_Wifi_BLE_SDK/GD32VW55x_RELEASE_V1.0.2/MSDK/wpa_supplicant/src/common\hw_features_common.c **** 	VHT_CAP_CHECK_MAX(VHT_CAP_MAX_MPDU_LENGTH_MASK);
 730:C:/Users/stapi/OneDrive/Desktop/GD32VW553/V1_MQTT_OK/GD32VW55X_Wifi_BLE_SDK/GD32VW55x_RELEASE_V1.0.2/MSDK/wpa_supplicant/src/common\hw_features_common.c **** 	VHT_CAP_CHECK_MAX(VHT_CAP_SUPP_CHAN_WIDTH_MASK);
 731:C:/Users/stapi/OneDrive/Desktop/GD32VW553/V1_MQTT_OK/GD32VW55X_Wifi_BLE_SDK/GD32VW55x_RELEASE_V1.0.2/MSDK/wpa_supplicant/src/common\hw_features_common.c **** 	VHT_CAP_CHECK(VHT_CAP_RXLDPC);
 732:C:/Users/stapi/OneDrive/Desktop/GD32VW553/V1_MQTT_OK/GD32VW55X_Wifi_BLE_SDK/GD32VW55x_RELEASE_V1.0.2/MSDK/wpa_supplicant/src/common\hw_features_common.c **** 	VHT_CAP_CHECK(VHT_CAP_SHORT_GI_80);
 733:C:/Users/stapi/OneDrive/Desktop/GD32VW553/V1_MQTT_OK/GD32VW55X_Wifi_BLE_SDK/GD32VW55x_RELEASE_V1.0.2/MSDK/wpa_supplicant/src/common\hw_features_common.c **** 	VHT_CAP_CHECK(VHT_CAP_SHORT_GI_160);
 734:C:/Users/stapi/OneDrive/Desktop/GD32VW553/V1_MQTT_OK/GD32VW55X_Wifi_BLE_SDK/GD32VW55x_RELEASE_V1.0.2/MSDK/wpa_supplicant/src/common\hw_features_common.c **** 	VHT_CAP_CHECK(VHT_CAP_TXSTBC);
 735:C:/Users/stapi/OneDrive/Desktop/GD32VW553/V1_MQTT_OK/GD32VW55X_Wifi_BLE_SDK/GD32VW55x_RELEASE_V1.0.2/MSDK/wpa_supplicant/src/common\hw_features_common.c **** 	VHT_CAP_CHECK_MAX(VHT_CAP_RXSTBC_MASK);
 736:C:/Users/stapi/OneDrive/Desktop/GD32VW553/V1_MQTT_OK/GD32VW55X_Wifi_BLE_SDK/GD32VW55x_RELEASE_V1.0.2/MSDK/wpa_supplicant/src/common\hw_features_common.c **** 	VHT_CAP_CHECK(VHT_CAP_SU_BEAMFORMER_CAPABLE);
 737:C:/Users/stapi/OneDrive/Desktop/GD32VW553/V1_MQTT_OK/GD32VW55X_Wifi_BLE_SDK/GD32VW55x_RELEASE_V1.0.2/MSDK/wpa_supplicant/src/common\hw_features_common.c **** 	VHT_CAP_CHECK(VHT_CAP_SU_BEAMFORMEE_CAPABLE);
 738:C:/Users/stapi/OneDrive/Desktop/GD32VW553/V1_MQTT_OK/GD32VW55X_Wifi_BLE_SDK/GD32VW55x_RELEASE_V1.0.2/MSDK/wpa_supplicant/src/common\hw_features_common.c **** 	VHT_CAP_CHECK_MAX(VHT_CAP_BEAMFORMEE_STS_MAX);
 739:C:/Users/stapi/OneDrive/Desktop/GD32VW553/V1_MQTT_OK/GD32VW55X_Wifi_BLE_SDK/GD32VW55x_RELEASE_V1.0.2/MSDK/wpa_supplicant/src/common\hw_features_common.c **** 	VHT_CAP_CHECK_MAX(VHT_CAP_SOUNDING_DIMENSION_MAX);
 740:C:/Users/stapi/OneDrive/Desktop/GD32VW553/V1_MQTT_OK/GD32VW55X_Wifi_BLE_SDK/GD32VW55x_RELEASE_V1.0.2/MSDK/wpa_supplicant/src/common\hw_features_common.c **** 	VHT_CAP_CHECK(VHT_CAP_MU_BEAMFORMER_CAPABLE);
 741:C:/Users/stapi/OneDrive/Desktop/GD32VW553/V1_MQTT_OK/GD32VW55X_Wifi_BLE_SDK/GD32VW55x_RELEASE_V1.0.2/MSDK/wpa_supplicant/src/common\hw_features_common.c **** 	VHT_CAP_CHECK(VHT_CAP_MU_BEAMFORMEE_CAPABLE);
 742:C:/Users/stapi/OneDrive/Desktop/GD32VW553/V1_MQTT_OK/GD32VW55X_Wifi_BLE_SDK/GD32VW55x_RELEASE_V1.0.2/MSDK/wpa_supplicant/src/common\hw_features_common.c **** 	VHT_CAP_CHECK(VHT_CAP_VHT_TXOP_PS);
 743:C:/Users/stapi/OneDrive/Desktop/GD32VW553/V1_MQTT_OK/GD32VW55X_Wifi_BLE_SDK/GD32VW55x_RELEASE_V1.0.2/MSDK/wpa_supplicant/src/common\hw_features_common.c **** 	VHT_CAP_CHECK(VHT_CAP_HTC_VHT);
 744:C:/Users/stapi/OneDrive/Desktop/GD32VW553/V1_MQTT_OK/GD32VW55X_Wifi_BLE_SDK/GD32VW55x_RELEASE_V1.0.2/MSDK/wpa_supplicant/src/common\hw_features_common.c **** 	VHT_CAP_CHECK_MAX(VHT_CAP_MAX_A_MPDU_LENGTH_EXPONENT_MAX);
 745:C:/Users/stapi/OneDrive/Desktop/GD32VW553/V1_MQTT_OK/GD32VW55X_Wifi_BLE_SDK/GD32VW55x_RELEASE_V1.0.2/MSDK/wpa_supplicant/src/common\hw_features_common.c **** 	VHT_CAP_CHECK(VHT_CAP_VHT_LINK_ADAPTATION_VHT_UNSOL_MFB);
 746:C:/Users/stapi/OneDrive/Desktop/GD32VW553/V1_MQTT_OK/GD32VW55X_Wifi_BLE_SDK/GD32VW55x_RELEASE_V1.0.2/MSDK/wpa_supplicant/src/common\hw_features_common.c **** 	VHT_CAP_CHECK(VHT_CAP_VHT_LINK_ADAPTATION_VHT_MRQ_MFB);
 747:C:/Users/stapi/OneDrive/Desktop/GD32VW553/V1_MQTT_OK/GD32VW55X_Wifi_BLE_SDK/GD32VW55x_RELEASE_V1.0.2/MSDK/wpa_supplicant/src/common\hw_features_common.c **** 	VHT_CAP_CHECK(VHT_CAP_RX_ANTENNA_PATTERN);
 748:C:/Users/stapi/OneDrive/Desktop/GD32VW553/V1_MQTT_OK/GD32VW55X_Wifi_BLE_SDK/GD32VW55x_RELEASE_V1.0.2/MSDK/wpa_supplicant/src/common\hw_features_common.c **** 	VHT_CAP_CHECK(VHT_CAP_TX_ANTENNA_PATTERN);
 749:C:/Users/stapi/OneDrive/Desktop/GD32VW553/V1_MQTT_OK/GD32VW55X_Wifi_BLE_SDK/GD32VW55x_RELEASE_V1.0.2/MSDK/wpa_supplicant/src/common\hw_features_common.c **** 
 750:C:/Users/stapi/OneDrive/Desktop/GD32VW553/V1_MQTT_OK/GD32VW55X_Wifi_BLE_SDK/GD32VW55x_RELEASE_V1.0.2/MSDK/wpa_supplicant/src/common\hw_features_common.c **** #undef VHT_CAP_CHECK
 751:C:/Users/stapi/OneDrive/Desktop/GD32VW553/V1_MQTT_OK/GD32VW55X_Wifi_BLE_SDK/GD32VW55x_RELEASE_V1.0.2/MSDK/wpa_supplicant/src/common\hw_features_common.c **** #undef VHT_CAP_CHECK_MAX
 752:C:/Users/stapi/OneDrive/Desktop/GD32VW553/V1_MQTT_OK/GD32VW55X_Wifi_BLE_SDK/GD32VW55x_RELEASE_V1.0.2/MSDK/wpa_supplicant/src/common\hw_features_common.c **** 
 753:C:/Users/stapi/OneDrive/Desktop/GD32VW553/V1_MQTT_OK/GD32VW55X_Wifi_BLE_SDK/GD32VW55x_RELEASE_V1.0.2/MSDK/wpa_supplicant/src/common\hw_features_common.c **** 	return 1;
 754:C:/Users/stapi/OneDrive/Desktop/GD32VW553/V1_MQTT_OK/GD32VW55X_Wifi_BLE_SDK/GD32VW55x_RELEASE_V1.0.2/MSDK/wpa_supplicant/src/common\hw_features_common.c **** }
 755:C:/Users/stapi/OneDrive/Desktop/GD32VW553/V1_MQTT_OK/GD32VW55X_Wifi_BLE_SDK/GD32VW55x_RELEASE_V1.0.2/MSDK/wpa_supplicant/src/common\hw_features_common.c **** 
 756:C:/Users/stapi/OneDrive/Desktop/GD32VW553/V1_MQTT_OK/GD32VW55X_Wifi_BLE_SDK/GD32VW55x_RELEASE_V1.0.2/MSDK/wpa_supplicant/src/common\hw_features_common.c **** #endif /* CONFIG_IEEE80211AC */
 757:C:/Users/stapi/OneDrive/Desktop/GD32VW553/V1_MQTT_OK/GD32VW55X_Wifi_BLE_SDK/GD32VW55x_RELEASE_V1.0.2/MSDK/wpa_supplicant/src/common\hw_features_common.c **** 
 758:C:/Users/stapi/OneDrive/Desktop/GD32VW553/V1_MQTT_OK/GD32VW55X_Wifi_BLE_SDK/GD32VW55x_RELEASE_V1.0.2/MSDK/wpa_supplicant/src/common\hw_features_common.c **** 
 759:C:/Users/stapi/OneDrive/Desktop/GD32VW553/V1_MQTT_OK/GD32VW55X_Wifi_BLE_SDK/GD32VW55x_RELEASE_V1.0.2/MSDK/wpa_supplicant/src/common\hw_features_common.c **** u32 num_chan_to_bw(int num_chans)
 760:C:/Users/stapi/OneDrive/Desktop/GD32VW553/V1_MQTT_OK/GD32VW55X_Wifi_BLE_SDK/GD32VW55x_RELEASE_V1.0.2/MSDK/wpa_supplicant/src/common\hw_features_common.c **** {
 1700              		.loc 1 760 1 is_stmt 1
 1701              		.cfi_startproc
 1702              	.LVL129:
 761:C:/Users/stapi/OneDrive/Desktop/GD32VW553/V1_MQTT_OK/GD32VW55X_Wifi_BLE_SDK/GD32VW55x_RELEASE_V1.0.2/MSDK/wpa_supplicant/src/common\hw_features_common.c **** 	switch (num_chans) {
 1703              		.loc 1 761 2
 1704 0000 2147     		li	a4,8
 760:C:/Users/stapi/OneDrive/Desktop/GD32VW553/V1_MQTT_OK/GD32VW55X_Wifi_BLE_SDK/GD32VW55x_RELEASE_V1.0.2/MSDK/wpa_supplicant/src/common\hw_features_common.c **** 	switch (num_chans) {
 1705              		.loc 1 760 1 is_stmt 0
 1706 0002 AA87     		mv	a5,a0
 1707 0004 636BA700 		bgtu	a0,a4,.L181
 1708 0008 3317A028 		bset	a4,x0,a0
 1709 000c 13774711 		andi	a4,a4,276
 1710 0010 5145     		li	a0,20
 1711              	.LVL130:
 1712 0012 09C7     		beq	a4,zero,.L179
 762:C:/Users/stapi/OneDrive/Desktop/GD32VW553/V1_MQTT_OK/GD32VW55X_Wifi_BLE_SDK/GD32VW55x_RELEASE_V1.0.2/MSDK/wpa_supplicant/src/common\hw_features_common.c **** 	case 2:
 763:C:/Users/stapi/OneDrive/Desktop/GD32VW553/V1_MQTT_OK/GD32VW55X_Wifi_BLE_SDK/GD32VW55x_RELEASE_V1.0.2/MSDK/wpa_supplicant/src/common\hw_features_common.c **** 	case 4:
 764:C:/Users/stapi/OneDrive/Desktop/GD32VW553/V1_MQTT_OK/GD32VW55X_Wifi_BLE_SDK/GD32VW55x_RELEASE_V1.0.2/MSDK/wpa_supplicant/src/common\hw_features_common.c **** 	case 8:
 765:C:/Users/stapi/OneDrive/Desktop/GD32VW553/V1_MQTT_OK/GD32VW55X_Wifi_BLE_SDK/GD32VW55x_RELEASE_V1.0.2/MSDK/wpa_supplicant/src/common\hw_features_common.c **** 		return num_chans * 20;
 1713              		.loc 1 765 3 is_stmt 1
 1714              		.loc 1 765 20 is_stmt 0
 1715 0014 3385A702 		mul	a0,a5,a0
 1716 0018 8280     		ret
 1717              	.LVL131:
 1718              	.L181:
 760:C:/Users/stapi/OneDrive/Desktop/GD32VW553/V1_MQTT_OK/GD32VW55X_Wifi_BLE_SDK/GD32VW55x_RELEASE_V1.0.2/MSDK/wpa_supplicant/src/common\hw_features_common.c **** 	switch (num_chans) {
 1719              		.loc 1 760 1
 1720 001a 5145     		li	a0,20
 1721              	.LVL132:
 1722              	.L179:
 766:C:/Users/stapi/OneDrive/Desktop/GD32VW553/V1_MQTT_OK/GD32VW55X_Wifi_BLE_SDK/GD32VW55x_RELEASE_V1.0.2/MSDK/wpa_supplicant/src/common\hw_features_common.c **** 	default:
 767:C:/Users/stapi/OneDrive/Desktop/GD32VW553/V1_MQTT_OK/GD32VW55X_Wifi_BLE_SDK/GD32VW55x_RELEASE_V1.0.2/MSDK/wpa_supplicant/src/common\hw_features_common.c **** 		return 20;
 768:C:/Users/stapi/OneDrive/Desktop/GD32VW553/V1_MQTT_OK/GD32VW55X_Wifi_BLE_SDK/GD32VW55x_RELEASE_V1.0.2/MSDK/wpa_supplicant/src/common\hw_features_common.c **** 	}
 769:C:/Users/stapi/OneDrive/Desktop/GD32VW553/V1_MQTT_OK/GD32VW55X_Wifi_BLE_SDK/GD32VW55x_RELEASE_V1.0.2/MSDK/wpa_supplicant/src/common\hw_features_common.c **** }
 1723              		.loc 1 769 1
 1724 001c 8280     		ret
 1725              		.cfi_endproc
 1726              	.LFE113:
 1728              		.section	.text.chan_bw_allowed,"ax",@progbits
 1729              		.align	1
 1730              		.globl	chan_bw_allowed
 1732              	chan_bw_allowed:
 1733              	.LFB114:
 770:C:/Users/stapi/OneDrive/Desktop/GD32VW553/V1_MQTT_OK/GD32VW55X_Wifi_BLE_SDK/GD32VW55x_RELEASE_V1.0.2/MSDK/wpa_supplicant/src/common\hw_features_common.c **** 
 771:C:/Users/stapi/OneDrive/Desktop/GD32VW553/V1_MQTT_OK/GD32VW55X_Wifi_BLE_SDK/GD32VW55x_RELEASE_V1.0.2/MSDK/wpa_supplicant/src/common\hw_features_common.c **** 
 772:C:/Users/stapi/OneDrive/Desktop/GD32VW553/V1_MQTT_OK/GD32VW55X_Wifi_BLE_SDK/GD32VW55x_RELEASE_V1.0.2/MSDK/wpa_supplicant/src/common\hw_features_common.c **** /* check if BW is applicable for channel */
 773:C:/Users/stapi/OneDrive/Desktop/GD32VW553/V1_MQTT_OK/GD32VW55X_Wifi_BLE_SDK/GD32VW55x_RELEASE_V1.0.2/MSDK/wpa_supplicant/src/common\hw_features_common.c **** int chan_bw_allowed(const struct hostapd_channel_data *chan, u32 bw,
 774:C:/Users/stapi/OneDrive/Desktop/GD32VW553/V1_MQTT_OK/GD32VW55X_Wifi_BLE_SDK/GD32VW55x_RELEASE_V1.0.2/MSDK/wpa_supplicant/src/common\hw_features_common.c **** 		    int ht40_plus, int pri)
 775:C:/Users/stapi/OneDrive/Desktop/GD32VW553/V1_MQTT_OK/GD32VW55X_Wifi_BLE_SDK/GD32VW55x_RELEASE_V1.0.2/MSDK/wpa_supplicant/src/common\hw_features_common.c **** {
 1734              		.loc 1 775 1 is_stmt 1
 1735              		.cfi_startproc
 1736              	.LVL133:
 776:C:/Users/stapi/OneDrive/Desktop/GD32VW553/V1_MQTT_OK/GD32VW55X_Wifi_BLE_SDK/GD32VW55x_RELEASE_V1.0.2/MSDK/wpa_supplicant/src/common\hw_features_common.c **** 	u32 bw_mask;
 1737              		.loc 1 776 2
 777:C:/Users/stapi/OneDrive/Desktop/GD32VW553/V1_MQTT_OK/GD32VW55X_Wifi_BLE_SDK/GD32VW55x_RELEASE_V1.0.2/MSDK/wpa_supplicant/src/common\hw_features_common.c **** 
 778:C:/Users/stapi/OneDrive/Desktop/GD32VW553/V1_MQTT_OK/GD32VW55X_Wifi_BLE_SDK/GD32VW55x_RELEASE_V1.0.2/MSDK/wpa_supplicant/src/common\hw_features_common.c **** 	switch (bw) {
 1738              		.loc 1 778 2
 1739 0000 93070005 		li	a5,80
 1740 0004 6381F504 		beq	a1,a5,.L188
 1741 0008 63E1B702 		bgtu	a1,a5,.L186
 1742 000c 5147     		li	a4,20
 779:C:/Users/stapi/OneDrive/Desktop/GD32VW553/V1_MQTT_OK/GD32VW55X_Wifi_BLE_SDK/GD32VW55x_RELEASE_V1.0.2/MSDK/wpa_supplicant/src/common\hw_features_common.c **** 	case 20:
 780:C:/Users/stapi/OneDrive/Desktop/GD32VW553/V1_MQTT_OK/GD32VW55X_Wifi_BLE_SDK/GD32VW55x_RELEASE_V1.0.2/MSDK/wpa_supplicant/src/common\hw_features_common.c **** 		bw_mask = HOSTAPD_CHAN_WIDTH_20;
 1743              		.loc 1 780 11 is_stmt 0
 1744 000e 8947     		li	a5,2
 778:C:/Users/stapi/OneDrive/Desktop/GD32VW553/V1_MQTT_OK/GD32VW55X_Wifi_BLE_SDK/GD32VW55x_RELEASE_V1.0.2/MSDK/wpa_supplicant/src/common\hw_features_common.c **** 	case 20:
 1745              		.loc 1 778 2
 1746 0010 6387E500 		beq	a1,a4,.L185
 1747 0014 93078002 		li	a5,40
 1748 0018 6381F502 		beq	a1,a5,.L187
 781:C:/Users/stapi/OneDrive/Desktop/GD32VW553/V1_MQTT_OK/GD32VW55X_Wifi_BLE_SDK/GD32VW55x_RELEASE_V1.0.2/MSDK/wpa_supplicant/src/common\hw_features_common.c **** 		break;
 782:C:/Users/stapi/OneDrive/Desktop/GD32VW553/V1_MQTT_OK/GD32VW55X_Wifi_BLE_SDK/GD32VW55x_RELEASE_V1.0.2/MSDK/wpa_supplicant/src/common\hw_features_common.c **** 	case 40:
 783:C:/Users/stapi/OneDrive/Desktop/GD32VW553/V1_MQTT_OK/GD32VW55X_Wifi_BLE_SDK/GD32VW55x_RELEASE_V1.0.2/MSDK/wpa_supplicant/src/common\hw_features_common.c **** 		/* HT 40 MHz support declared only for primary channel,
 784:C:/Users/stapi/OneDrive/Desktop/GD32VW553/V1_MQTT_OK/GD32VW55X_Wifi_BLE_SDK/GD32VW55x_RELEASE_V1.0.2/MSDK/wpa_supplicant/src/common\hw_features_common.c **** 		 * just skip 40 MHz secondary checking */
 785:C:/Users/stapi/OneDrive/Desktop/GD32VW553/V1_MQTT_OK/GD32VW55X_Wifi_BLE_SDK/GD32VW55x_RELEASE_V1.0.2/MSDK/wpa_supplicant/src/common\hw_features_common.c **** 		if (pri && ht40_plus)
 786:C:/Users/stapi/OneDrive/Desktop/GD32VW553/V1_MQTT_OK/GD32VW55X_Wifi_BLE_SDK/GD32VW55x_RELEASE_V1.0.2/MSDK/wpa_supplicant/src/common\hw_features_common.c **** 			bw_mask = HOSTAPD_CHAN_WIDTH_40P;
 787:C:/Users/stapi/OneDrive/Desktop/GD32VW553/V1_MQTT_OK/GD32VW55X_Wifi_BLE_SDK/GD32VW55x_RELEASE_V1.0.2/MSDK/wpa_supplicant/src/common\hw_features_common.c **** 		else if (pri && !ht40_plus)
 788:C:/Users/stapi/OneDrive/Desktop/GD32VW553/V1_MQTT_OK/GD32VW55X_Wifi_BLE_SDK/GD32VW55x_RELEASE_V1.0.2/MSDK/wpa_supplicant/src/common\hw_features_common.c **** 			bw_mask = HOSTAPD_CHAN_WIDTH_40M;
 789:C:/Users/stapi/OneDrive/Desktop/GD32VW553/V1_MQTT_OK/GD32VW55X_Wifi_BLE_SDK/GD32VW55x_RELEASE_V1.0.2/MSDK/wpa_supplicant/src/common\hw_features_common.c **** 		else
 790:C:/Users/stapi/OneDrive/Desktop/GD32VW553/V1_MQTT_OK/GD32VW55X_Wifi_BLE_SDK/GD32VW55x_RELEASE_V1.0.2/MSDK/wpa_supplicant/src/common\hw_features_common.c **** 			bw_mask = 0;
 791:C:/Users/stapi/OneDrive/Desktop/GD32VW553/V1_MQTT_OK/GD32VW55X_Wifi_BLE_SDK/GD32VW55x_RELEASE_V1.0.2/MSDK/wpa_supplicant/src/common\hw_features_common.c **** 		break;
 792:C:/Users/stapi/OneDrive/Desktop/GD32VW553/V1_MQTT_OK/GD32VW55X_Wifi_BLE_SDK/GD32VW55x_RELEASE_V1.0.2/MSDK/wpa_supplicant/src/common\hw_features_common.c **** 	case 80:
 793:C:/Users/stapi/OneDrive/Desktop/GD32VW553/V1_MQTT_OK/GD32VW55X_Wifi_BLE_SDK/GD32VW55x_RELEASE_V1.0.2/MSDK/wpa_supplicant/src/common\hw_features_common.c **** 		bw_mask = HOSTAPD_CHAN_WIDTH_80;
 794:C:/Users/stapi/OneDrive/Desktop/GD32VW553/V1_MQTT_OK/GD32VW55X_Wifi_BLE_SDK/GD32VW55x_RELEASE_V1.0.2/MSDK/wpa_supplicant/src/common\hw_features_common.c **** 		break;
 795:C:/Users/stapi/OneDrive/Desktop/GD32VW553/V1_MQTT_OK/GD32VW55X_Wifi_BLE_SDK/GD32VW55x_RELEASE_V1.0.2/MSDK/wpa_supplicant/src/common\hw_features_common.c **** 	case 160:
 796:C:/Users/stapi/OneDrive/Desktop/GD32VW553/V1_MQTT_OK/GD32VW55X_Wifi_BLE_SDK/GD32VW55x_RELEASE_V1.0.2/MSDK/wpa_supplicant/src/common\hw_features_common.c **** 		bw_mask = HOSTAPD_CHAN_WIDTH_160;
 797:C:/Users/stapi/OneDrive/Desktop/GD32VW553/V1_MQTT_OK/GD32VW55X_Wifi_BLE_SDK/GD32VW55x_RELEASE_V1.0.2/MSDK/wpa_supplicant/src/common\hw_features_common.c **** 		break;
 798:C:/Users/stapi/OneDrive/Desktop/GD32VW553/V1_MQTT_OK/GD32VW55X_Wifi_BLE_SDK/GD32VW55x_RELEASE_V1.0.2/MSDK/wpa_supplicant/src/common\hw_features_common.c **** 	default:
 799:C:/Users/stapi/OneDrive/Desktop/GD32VW553/V1_MQTT_OK/GD32VW55X_Wifi_BLE_SDK/GD32VW55x_RELEASE_V1.0.2/MSDK/wpa_supplicant/src/common\hw_features_common.c **** 		bw_mask = 0;
 1749              		.loc 1 799 11
 1750 001c 8147     		li	a5,0
 1751              	.L185:
 1752              	.LVL134:
 800:C:/Users/stapi/OneDrive/Desktop/GD32VW553/V1_MQTT_OK/GD32VW55X_Wifi_BLE_SDK/GD32VW55x_RELEASE_V1.0.2/MSDK/wpa_supplicant/src/common\hw_features_common.c **** 		break;
 801:C:/Users/stapi/OneDrive/Desktop/GD32VW553/V1_MQTT_OK/GD32VW55X_Wifi_BLE_SDK/GD32VW55x_RELEASE_V1.0.2/MSDK/wpa_supplicant/src/common\hw_features_common.c **** 	}
 802:C:/Users/stapi/OneDrive/Desktop/GD32VW553/V1_MQTT_OK/GD32VW55X_Wifi_BLE_SDK/GD32VW55x_RELEASE_V1.0.2/MSDK/wpa_supplicant/src/common\hw_features_common.c **** 
 803:C:/Users/stapi/OneDrive/Desktop/GD32VW553/V1_MQTT_OK/GD32VW55X_Wifi_BLE_SDK/GD32VW55x_RELEASE_V1.0.2/MSDK/wpa_supplicant/src/common\hw_features_common.c **** 	return (chan->allowed_bw & bw_mask) == bw_mask;
 1753              		.loc 1 803 2 is_stmt 1
 1754              		.loc 1 803 27 is_stmt 0
 1755 001e 4845     		lw	a0,12(a0)
 1756              	.LVL135:
 1757              		.loc 1 803 38
 1758 0020 33F5A740 		andn	a0,a5,a0
 804:C:/Users/stapi/OneDrive/Desktop/GD32VW553/V1_MQTT_OK/GD32VW55X_Wifi_BLE_SDK/GD32VW55x_RELEASE_V1.0.2/MSDK/wpa_supplicant/src/common\hw_features_common.c **** }
 1759              		.loc 1 804 1
 1760 0024 13351500 		seqz	a0,a0
 1761 0028 8280     		ret
 1762              	.LVL136:
 1763              	.L186:
 778:C:/Users/stapi/OneDrive/Desktop/GD32VW553/V1_MQTT_OK/GD32VW55X_Wifi_BLE_SDK/GD32VW55x_RELEASE_V1.0.2/MSDK/wpa_supplicant/src/common\hw_features_common.c **** 	case 20:
 1764              		.loc 1 778 2
 1765 002a 1307000A 		li	a4,160
 799:C:/Users/stapi/OneDrive/Desktop/GD32VW553/V1_MQTT_OK/GD32VW55X_Wifi_BLE_SDK/GD32VW55x_RELEASE_V1.0.2/MSDK/wpa_supplicant/src/common\hw_features_common.c **** 		break;
 1766              		.loc 1 799 11
 1767 002e 8147     		li	a5,0
 778:C:/Users/stapi/OneDrive/Desktop/GD32VW553/V1_MQTT_OK/GD32VW55X_Wifi_BLE_SDK/GD32VW55x_RELEASE_V1.0.2/MSDK/wpa_supplicant/src/common\hw_features_common.c **** 	case 20:
 1768              		.loc 1 778 2
 1769 0030 E397E5FE 		bne	a1,a4,.L185
 796:C:/Users/stapi/OneDrive/Desktop/GD32VW553/V1_MQTT_OK/GD32VW55X_Wifi_BLE_SDK/GD32VW55x_RELEASE_V1.0.2/MSDK/wpa_supplicant/src/common\hw_features_common.c **** 		break;
 1770              		.loc 1 796 11
 1771 0034 93070002 		li	a5,32
 1772 0038 DDB7     		j	.L185
 1773              	.L187:
 785:C:/Users/stapi/OneDrive/Desktop/GD32VW553/V1_MQTT_OK/GD32VW55X_Wifi_BLE_SDK/GD32VW55x_RELEASE_V1.0.2/MSDK/wpa_supplicant/src/common\hw_features_common.c **** 			bw_mask = HOSTAPD_CHAN_WIDTH_40P;
 1774              		.loc 1 785 3 is_stmt 1
 790:C:/Users/stapi/OneDrive/Desktop/GD32VW553/V1_MQTT_OK/GD32VW55X_Wifi_BLE_SDK/GD32VW55x_RELEASE_V1.0.2/MSDK/wpa_supplicant/src/common\hw_features_common.c **** 		break;
 1775              		.loc 1 790 12 is_stmt 0
 1776 003a 8147     		li	a5,0
 785:C:/Users/stapi/OneDrive/Desktop/GD32VW553/V1_MQTT_OK/GD32VW55X_Wifi_BLE_SDK/GD32VW55x_RELEASE_V1.0.2/MSDK/wpa_supplicant/src/common\hw_features_common.c **** 			bw_mask = HOSTAPD_CHAN_WIDTH_40P;
 1777              		.loc 1 785 6
 1778 003c EDD2     		beq	a3,zero,.L185
 786:C:/Users/stapi/OneDrive/Desktop/GD32VW553/V1_MQTT_OK/GD32VW55X_Wifi_BLE_SDK/GD32VW55x_RELEASE_V1.0.2/MSDK/wpa_supplicant/src/common\hw_features_common.c **** 		else if (pri && !ht40_plus)
 1779              		.loc 1 786 12 discriminator 1
 1780 003e 9147     		li	a5,4
 785:C:/Users/stapi/OneDrive/Desktop/GD32VW553/V1_MQTT_OK/GD32VW55X_Wifi_BLE_SDK/GD32VW55x_RELEASE_V1.0.2/MSDK/wpa_supplicant/src/common\hw_features_common.c **** 			bw_mask = HOSTAPD_CHAN_WIDTH_40P;
 1781              		.loc 1 785 11 discriminator 1
 1782 0040 79FE     		bne	a2,zero,.L185
 788:C:/Users/stapi/OneDrive/Desktop/GD32VW553/V1_MQTT_OK/GD32VW55X_Wifi_BLE_SDK/GD32VW55x_RELEASE_V1.0.2/MSDK/wpa_supplicant/src/common\hw_features_common.c **** 		else
 1783              		.loc 1 788 12
 1784 0042 A147     		li	a5,8
 1785 0044 E9BF     		j	.L185
 1786              	.L188:
 778:C:/Users/stapi/OneDrive/Desktop/GD32VW553/V1_MQTT_OK/GD32VW55X_Wifi_BLE_SDK/GD32VW55x_RELEASE_V1.0.2/MSDK/wpa_supplicant/src/common\hw_features_common.c **** 	case 20:
 1787              		.loc 1 778 2
 1788 0046 C147     		li	a5,16
 1789 0048 D9BF     		j	.L185
 1790              		.cfi_endproc
 1791              	.LFE114:
 1793              		.section	.text.chan_pri_allowed,"ax",@progbits
 1794              		.align	1
 1795              		.globl	chan_pri_allowed
 1797              	chan_pri_allowed:
 1798              	.LFB115:
 805:C:/Users/stapi/OneDrive/Desktop/GD32VW553/V1_MQTT_OK/GD32VW55X_Wifi_BLE_SDK/GD32VW55x_RELEASE_V1.0.2/MSDK/wpa_supplicant/src/common\hw_features_common.c **** 
 806:C:/Users/stapi/OneDrive/Desktop/GD32VW553/V1_MQTT_OK/GD32VW55X_Wifi_BLE_SDK/GD32VW55x_RELEASE_V1.0.2/MSDK/wpa_supplicant/src/common\hw_features_common.c **** 
 807:C:/Users/stapi/OneDrive/Desktop/GD32VW553/V1_MQTT_OK/GD32VW55X_Wifi_BLE_SDK/GD32VW55x_RELEASE_V1.0.2/MSDK/wpa_supplicant/src/common\hw_features_common.c **** /* check if channel is allowed to be used as primary */
 808:C:/Users/stapi/OneDrive/Desktop/GD32VW553/V1_MQTT_OK/GD32VW55X_Wifi_BLE_SDK/GD32VW55x_RELEASE_V1.0.2/MSDK/wpa_supplicant/src/common\hw_features_common.c **** int chan_pri_allowed(const struct hostapd_channel_data *chan)
 809:C:/Users/stapi/OneDrive/Desktop/GD32VW553/V1_MQTT_OK/GD32VW55X_Wifi_BLE_SDK/GD32VW55x_RELEASE_V1.0.2/MSDK/wpa_supplicant/src/common\hw_features_common.c **** {
 1799              		.loc 1 809 1 is_stmt 1
 1800              		.cfi_startproc
 1801              	.LVL137:
 810:C:/Users/stapi/OneDrive/Desktop/GD32VW553/V1_MQTT_OK/GD32VW55X_Wifi_BLE_SDK/GD32VW55x_RELEASE_V1.0.2/MSDK/wpa_supplicant/src/common\hw_features_common.c **** 	return !(chan->flag & HOSTAPD_CHAN_DISABLED) &&
 1802              		.loc 1 810 2
 1803              		.loc 1 810 22 is_stmt 0
 1804 0000 1C45     		lw	a5,8(a0)
 1805 0002 858B     		andi	a5,a5,1
 1806              		.loc 1 810 47
 1807 0004 89E7     		bne	a5,zero,.L196
 1808              		.loc 1 810 47 discriminator 1
 1809 0006 4845     		lw	a0,12(a0)
 1810              	.LVL138:
 1811 0008 13551548 		bexti	a0,a0,1
 1812 000c 8280     		ret
 1813              	.LVL139:
 1814              	.L196:
 1815              		.loc 1 810 47
 1816 000e 0145     		li	a0,0
 1817              	.LVL140:
 811:C:/Users/stapi/OneDrive/Desktop/GD32VW553/V1_MQTT_OK/GD32VW55X_Wifi_BLE_SDK/GD32VW55x_RELEASE_V1.0.2/MSDK/wpa_supplicant/src/common\hw_features_common.c **** 		(chan->allowed_bw & HOSTAPD_CHAN_WIDTH_20);
 812:C:/Users/stapi/OneDrive/Desktop/GD32VW553/V1_MQTT_OK/GD32VW55X_Wifi_BLE_SDK/GD32VW55x_RELEASE_V1.0.2/MSDK/wpa_supplicant/src/common\hw_features_common.c **** }
 1818              		.loc 1 812 1
 1819 0010 8280     		ret
 1820              		.cfi_endproc
 1821              	.LFE115:
 1823              		.section	.rodata.allowed_ht40_channel_pair.str1.4,"aMS",@progbits,1
 1824              		.align	2
 1825              	.LC25:
 1826 0000 4368616E 		.string	"Channel %d is not allowed as primary"
 1826      6E656C20 
 1826      25642069 
 1826      73206E6F 
 1826      7420616C 
 1827 0025 000000   		.align	2
 1828              	.LC26:
 1829 0028 48543430 		.string	"HT40: control channel: %d (%d MHz), secondary channel: %d (%d MHz)"
 1829      3A20636F 
 1829      6E74726F 
 1829      6C206368 
 1829      616E6E65 
 1830 006b 00       		.align	2
 1831              	.LC27:
 1832 006c 48543430 		.string	"HT40 secondary channel %d not allowed"
 1832      20736563 
 1832      6F6E6461 
 1832      72792063 
 1832      68616E6E 
 1833 0092 0000     		.align	2
 1834              	.LC28:
 1835 0094 48543430 		.string	"HT40 channel pair (%d, %d) not allowed"
 1835      20636861 
 1835      6E6E656C 
 1835      20706169 
 1835      72202825 
 1836              		.section	.text.allowed_ht40_channel_pair,"ax",@progbits
 1837              		.align	1
 1838              		.globl	allowed_ht40_channel_pair
 1840              	allowed_ht40_channel_pair:
 1841              	.LFB106:
 114:C:/Users/stapi/OneDrive/Desktop/GD32VW553/V1_MQTT_OK/GD32VW55X_Wifi_BLE_SDK/GD32VW55x_RELEASE_V1.0.2/MSDK/wpa_supplicant/src/common\hw_features_common.c **** 	int ok, first;
 1842              		.loc 1 114 1 is_stmt 1
 1843              		.cfi_startproc
 1844              	.LVL141:
 1845 0000 17030000 		call	t0,__riscv_save_5
 1845      E7020300 
 1846              		.cfi_offset 20, -24
 1847              		.cfi_offset 19, -20
 1848              		.cfi_offset 18, -16
 1849              		.cfi_offset 9, -12
 1850              		.cfi_offset 8, -8
 1851              		.cfi_offset 1, -4
 1852              		.cfi_def_cfa_offset 32
 115:C:/Users/stapi/OneDrive/Desktop/GD32VW553/V1_MQTT_OK/GD32VW55X_Wifi_BLE_SDK/GD32VW55x_RELEASE_V1.0.2/MSDK/wpa_supplicant/src/common\hw_features_common.c **** 	int allowed[] = { 36, 44, 52, 60, 100, 108, 116, 124, 132, 140,
 1853              		.loc 1 115 2
 116:C:/Users/stapi/OneDrive/Desktop/GD32VW553/V1_MQTT_OK/GD32VW55X_Wifi_BLE_SDK/GD32VW55x_RELEASE_V1.0.2/MSDK/wpa_supplicant/src/common\hw_features_common.c **** 			  149, 157, 165, 173, 184, 192 };
 1854              		.loc 1 116 2
 114:C:/Users/stapi/OneDrive/Desktop/GD32VW553/V1_MQTT_OK/GD32VW55X_Wifi_BLE_SDK/GD32VW55x_RELEASE_V1.0.2/MSDK/wpa_supplicant/src/common\hw_features_common.c **** 	int ok, first;
 1855              		.loc 1 114 1 is_stmt 0
 1856 0008 5D71     		addi	sp,sp,-80
 1857              		.cfi_def_cfa_offset 112
 114:C:/Users/stapi/OneDrive/Desktop/GD32VW553/V1_MQTT_OK/GD32VW55X_Wifi_BLE_SDK/GD32VW55x_RELEASE_V1.0.2/MSDK/wpa_supplicant/src/common\hw_features_common.c **** 	int ok, first;
 1858              		.loc 1 114 1
 1859 000a 2E89     		mv	s2,a1
 116:C:/Users/stapi/OneDrive/Desktop/GD32VW553/V1_MQTT_OK/GD32VW55X_Wifi_BLE_SDK/GD32VW55x_RELEASE_V1.0.2/MSDK/wpa_supplicant/src/common\hw_features_common.c **** 			  149, 157, 165, 173, 184, 192 };
 1860              		.loc 1 116 6
 1861 000c B7050000 		lui	a1,%hi(.LANCHOR0)
 1862              	.LVL142:
 114:C:/Users/stapi/OneDrive/Desktop/GD32VW553/V1_MQTT_OK/GD32VW55X_Wifi_BLE_SDK/GD32VW55x_RELEASE_V1.0.2/MSDK/wpa_supplicant/src/common\hw_features_common.c **** 	int ok, first;
 1863              		.loc 1 114 1
 1864 0010 2A8A     		mv	s4,a0
 1865 0012 B289     		mv	s3,a2
 116:C:/Users/stapi/OneDrive/Desktop/GD32VW553/V1_MQTT_OK/GD32VW55X_Wifi_BLE_SDK/GD32VW55x_RELEASE_V1.0.2/MSDK/wpa_supplicant/src/common\hw_features_common.c **** 			  149, 157, 165, 173, 184, 192 };
 1866              		.loc 1 116 6
 1867 0014 93850500 		addi	a1,a1,%lo(.LANCHOR0)
 1868 0018 13060004 		li	a2,64
 1869              	.LVL143:
 1870 001c 0808     		addi	a0,sp,16
 1871              	.LVL144:
 1872 001e 97000000 		call	memcpy
 1872      E7800000 
 1873              	.LVL145:
 118:C:/Users/stapi/OneDrive/Desktop/GD32VW553/V1_MQTT_OK/GD32VW55X_Wifi_BLE_SDK/GD32VW55x_RELEASE_V1.0.2/MSDK/wpa_supplicant/src/common\hw_features_common.c **** 	int ht40_plus, pri_chan, sec_chan;
 1874              		.loc 1 118 2 is_stmt 1
 119:C:/Users/stapi/OneDrive/Desktop/GD32VW553/V1_MQTT_OK/GD32VW55X_Wifi_BLE_SDK/GD32VW55x_RELEASE_V1.0.2/MSDK/wpa_supplicant/src/common\hw_features_common.c **** 
 1875              		.loc 1 119 2
 121:C:/Users/stapi/OneDrive/Desktop/GD32VW553/V1_MQTT_OK/GD32VW55X_Wifi_BLE_SDK/GD32VW55x_RELEASE_V1.0.2/MSDK/wpa_supplicant/src/common\hw_features_common.c **** 		return 0;
 1876              		.loc 1 121 2
 122:C:/Users/stapi/OneDrive/Desktop/GD32VW553/V1_MQTT_OK/GD32VW55X_Wifi_BLE_SDK/GD32VW55x_RELEASE_V1.0.2/MSDK/wpa_supplicant/src/common\hw_features_common.c **** 	pri_chan = p_chan->chan;
 1877              		.loc 1 122 10 is_stmt 0
 1878 0026 0144     		li	s0,0
 121:C:/Users/stapi/OneDrive/Desktop/GD32VW553/V1_MQTT_OK/GD32VW55X_Wifi_BLE_SDK/GD32VW55x_RELEASE_V1.0.2/MSDK/wpa_supplicant/src/common\hw_features_common.c **** 		return 0;
 1879              		.loc 1 121 5
 1880 0028 63050902 		beq	s2,zero,.L197
 121:C:/Users/stapi/OneDrive/Desktop/GD32VW553/V1_MQTT_OK/GD32VW55X_Wifi_BLE_SDK/GD32VW55x_RELEASE_V1.0.2/MSDK/wpa_supplicant/src/common\hw_features_common.c **** 		return 0;
 1881              		.loc 1 121 14 discriminator 1
 1882 002c 63830902 		beq	s3,zero,.L197
 123:C:/Users/stapi/OneDrive/Desktop/GD32VW553/V1_MQTT_OK/GD32VW55X_Wifi_BLE_SDK/GD32VW55x_RELEASE_V1.0.2/MSDK/wpa_supplicant/src/common\hw_features_common.c **** 	sec_chan = s_chan->chan;
 1883              		.loc 1 123 2 is_stmt 1
 123:C:/Users/stapi/OneDrive/Desktop/GD32VW553/V1_MQTT_OK/GD32VW55X_Wifi_BLE_SDK/GD32VW55x_RELEASE_V1.0.2/MSDK/wpa_supplicant/src/common\hw_features_common.c **** 	sec_chan = s_chan->chan;
 1884              		.loc 1 123 11 is_stmt 0
 1885 0030 03160900 		lh	a2,0(s2)
 1886              	.LVL146:
 124:C:/Users/stapi/OneDrive/Desktop/GD32VW553/V1_MQTT_OK/GD32VW55X_Wifi_BLE_SDK/GD32VW55x_RELEASE_V1.0.2/MSDK/wpa_supplicant/src/common\hw_features_common.c **** 
 1887              		.loc 1 124 2 is_stmt 1
 124:C:/Users/stapi/OneDrive/Desktop/GD32VW553/V1_MQTT_OK/GD32VW55X_Wifi_BLE_SDK/GD32VW55x_RELEASE_V1.0.2/MSDK/wpa_supplicant/src/common\hw_features_common.c **** 
 1888              		.loc 1 124 11 is_stmt 0
 1889 0034 83940900 		lh	s1,0(s3)
 1890              	.LVL147:
 126:C:/Users/stapi/OneDrive/Desktop/GD32VW553/V1_MQTT_OK/GD32VW55X_Wifi_BLE_SDK/GD32VW55x_RELEASE_V1.0.2/MSDK/wpa_supplicant/src/common\hw_features_common.c **** 
 1891              		.loc 1 126 2 is_stmt 1
 128:C:/Users/stapi/OneDrive/Desktop/GD32VW553/V1_MQTT_OK/GD32VW55X_Wifi_BLE_SDK/GD32VW55x_RELEASE_V1.0.2/MSDK/wpa_supplicant/src/common\hw_features_common.c **** 		if (chan_pri_allowed(p_chan))
 1892              		.loc 1 128 2
 128:C:/Users/stapi/OneDrive/Desktop/GD32VW553/V1_MQTT_OK/GD32VW55X_Wifi_BLE_SDK/GD32VW55x_RELEASE_V1.0.2/MSDK/wpa_supplicant/src/common\hw_features_common.c **** 		if (chan_pri_allowed(p_chan))
 1893              		.loc 1 128 5 is_stmt 0
 1894 0038 63039600 		beq	a2,s1,.L199
 128:C:/Users/stapi/OneDrive/Desktop/GD32VW553/V1_MQTT_OK/GD32VW55X_Wifi_BLE_SDK/GD32VW55x_RELEASE_V1.0.2/MSDK/wpa_supplicant/src/common\hw_features_common.c **** 		if (chan_pri_allowed(p_chan))
 1895              		.loc 1 128 27 discriminator 1
 1896 003c 9DE8     		bne	s1,zero,.L200
 1897              	.L199:
 129:C:/Users/stapi/OneDrive/Desktop/GD32VW553/V1_MQTT_OK/GD32VW55X_Wifi_BLE_SDK/GD32VW55x_RELEASE_V1.0.2/MSDK/wpa_supplicant/src/common\hw_features_common.c **** 			return 1; /* HT40 not used */
 1898              		.loc 1 129 7
 1899 003e 4A85     		mv	a0,s2
 1900 0040 32C6     		sw	a2,12(sp)
 129:C:/Users/stapi/OneDrive/Desktop/GD32VW553/V1_MQTT_OK/GD32VW55X_Wifi_BLE_SDK/GD32VW55x_RELEASE_V1.0.2/MSDK/wpa_supplicant/src/common\hw_features_common.c **** 			return 1; /* HT40 not used */
 1901              		.loc 1 129 3 is_stmt 1
 129:C:/Users/stapi/OneDrive/Desktop/GD32VW553/V1_MQTT_OK/GD32VW55X_Wifi_BLE_SDK/GD32VW55x_RELEASE_V1.0.2/MSDK/wpa_supplicant/src/common\hw_features_common.c **** 			return 1; /* HT40 not used */
 1902              		.loc 1 129 7 is_stmt 0
 1903 0042 97000000 		call	chan_pri_allowed
 1903      E7800000 
 1904              	.LVL148:
 129:C:/Users/stapi/OneDrive/Desktop/GD32VW553/V1_MQTT_OK/GD32VW55X_Wifi_BLE_SDK/GD32VW55x_RELEASE_V1.0.2/MSDK/wpa_supplicant/src/common\hw_features_common.c **** 			return 1; /* HT40 not used */
 1905              		.loc 1 129 6
 1906 004a 3246     		lw	a2,12(sp)
 129:C:/Users/stapi/OneDrive/Desktop/GD32VW553/V1_MQTT_OK/GD32VW55X_Wifi_BLE_SDK/GD32VW55x_RELEASE_V1.0.2/MSDK/wpa_supplicant/src/common\hw_features_common.c **** 			return 1; /* HT40 not used */
 1907              		.loc 1 129 7
 1908 004c 2A84     		mv	s0,a0
 129:C:/Users/stapi/OneDrive/Desktop/GD32VW553/V1_MQTT_OK/GD32VW55X_Wifi_BLE_SDK/GD32VW55x_RELEASE_V1.0.2/MSDK/wpa_supplicant/src/common\hw_features_common.c **** 			return 1; /* HT40 not used */
 1909              		.loc 1 129 6
 1910 004e 01C9     		beq	a0,zero,.L201
 1911              	.L205:
 130:C:/Users/stapi/OneDrive/Desktop/GD32VW553/V1_MQTT_OK/GD32VW55X_Wifi_BLE_SDK/GD32VW55x_RELEASE_V1.0.2/MSDK/wpa_supplicant/src/common\hw_features_common.c **** 
 1912              		.loc 1 130 11
 1913 0050 0544     		li	s0,1
 1914              	.LVL149:
 1915              	.L197:
 176:C:/Users/stapi/OneDrive/Desktop/GD32VW553/V1_MQTT_OK/GD32VW55X_Wifi_BLE_SDK/GD32VW55x_RELEASE_V1.0.2/MSDK/wpa_supplicant/src/common\hw_features_common.c **** 
 1916              		.loc 1 176 1
 1917 0052 2285     		mv	a0,s0
 1918 0054 6161     		addi	sp,sp,80
 1919              		.cfi_remember_state
 1920              		.cfi_def_cfa_offset 0
 1921 0056 17030000 		tail	__riscv_restore_5
 1921      67000300 
 1922              		.cfi_restore 20
 1923              		.cfi_restore 19
 1924              		.cfi_restore 18
 1925              		.cfi_restore 9
 1926              		.cfi_restore 8
 1927              		.cfi_restore 1
 1928              		.cfi_def_cfa_offset -32
 1929              	.LVL150:
 1930              	.L201:
 1931              		.cfi_restore_state
 132:C:/Users/stapi/OneDrive/Desktop/GD32VW553/V1_MQTT_OK/GD32VW55X_Wifi_BLE_SDK/GD32VW55x_RELEASE_V1.0.2/MSDK/wpa_supplicant/src/common\hw_features_common.c **** 			   pri_chan);
 1932              		.loc 1 132 3 is_stmt 1
 1933 005e B7050000 		lui	a1,%hi(.LC25)
 1934 0062 93850500 		addi	a1,a1,%lo(.LC25)
 1935 0066 1545     		li	a0,5
 1936 0068 97000000 		call	wpa_printf
 1936      E7800000 
 1937              	.LVL151:
 134:C:/Users/stapi/OneDrive/Desktop/GD32VW553/V1_MQTT_OK/GD32VW55X_Wifi_BLE_SDK/GD32VW55x_RELEASE_V1.0.2/MSDK/wpa_supplicant/src/common\hw_features_common.c **** 	}
 1938              		.loc 1 134 3
 134:C:/Users/stapi/OneDrive/Desktop/GD32VW553/V1_MQTT_OK/GD32VW55X_Wifi_BLE_SDK/GD32VW55x_RELEASE_V1.0.2/MSDK/wpa_supplicant/src/common\hw_features_common.c **** 	}
 1939              		.loc 1 134 10 is_stmt 0
 1940 0070 CDB7     		j	.L197
 1941              	.LVL152:
 1942              	.L200:
 137:C:/Users/stapi/OneDrive/Desktop/GD32VW553/V1_MQTT_OK/GD32VW55X_Wifi_BLE_SDK/GD32VW55x_RELEASE_V1.0.2/MSDK/wpa_supplicant/src/common\hw_features_common.c **** 		   "HT40: control channel: %d (%d MHz), secondary channel: %d (%d MHz)",
 1943              		.loc 1 137 2 is_stmt 1
 1944 0072 83A74900 		lw	a5,4(s3)
 1945 0076 83264900 		lw	a3,4(s2)
 1946 007a B7050000 		lui	a1,%hi(.LC26)
 1947 007e 2687     		mv	a4,s1
 1948 0080 93850500 		addi	a1,a1,%lo(.LC26)
 1949 0084 0945     		li	a0,2
 1950 0086 32C6     		sw	a2,12(sp)
 1951 0088 97000000 		call	wpa_printf
 1951      E7800000 
 1952              	.LVL153:
 143:C:/Users/stapi/OneDrive/Desktop/GD32VW553/V1_MQTT_OK/GD32VW55X_Wifi_BLE_SDK/GD32VW55x_RELEASE_V1.0.2/MSDK/wpa_supplicant/src/common\hw_features_common.c **** 	    (ht40_plus && !(p_chan->allowed_bw & HOSTAPD_CHAN_WIDTH_40P)) ||
 1953              		.loc 1 143 2
 143:C:/Users/stapi/OneDrive/Desktop/GD32VW553/V1_MQTT_OK/GD32VW55X_Wifi_BLE_SDK/GD32VW55x_RELEASE_V1.0.2/MSDK/wpa_supplicant/src/common\hw_features_common.c **** 	    (ht40_plus && !(p_chan->allowed_bw & HOSTAPD_CHAN_WIDTH_40P)) ||
 1954              		.loc 1 143 20 is_stmt 0
 1955 0090 03A48900 		lw	s0,8(s3)
 1956 0094 0588     		andi	s0,s0,1
 143:C:/Users/stapi/OneDrive/Desktop/GD32VW553/V1_MQTT_OK/GD32VW55X_Wifi_BLE_SDK/GD32VW55x_RELEASE_V1.0.2/MSDK/wpa_supplicant/src/common\hw_features_common.c **** 	    (ht40_plus && !(p_chan->allowed_bw & HOSTAPD_CHAN_WIDTH_40P)) ||
 1957              		.loc 1 143 5
 1958 0096 01E8     		bne	s0,zero,.L202
 143:C:/Users/stapi/OneDrive/Desktop/GD32VW553/V1_MQTT_OK/GD32VW55X_Wifi_BLE_SDK/GD32VW55x_RELEASE_V1.0.2/MSDK/wpa_supplicant/src/common\hw_features_common.c **** 	    (ht40_plus && !(p_chan->allowed_bw & HOSTAPD_CHAN_WIDTH_40P)) ||
 1959              		.loc 1 143 45 discriminator 1
 1960 0098 3246     		lw	a2,12(sp)
 144:C:/Users/stapi/OneDrive/Desktop/GD32VW553/V1_MQTT_OK/GD32VW55X_Wifi_BLE_SDK/GD32VW55x_RELEASE_V1.0.2/MSDK/wpa_supplicant/src/common\hw_features_common.c **** 	    (!ht40_plus && !(p_chan->allowed_bw & HOSTAPD_CHAN_WIDTH_40M))) {
 1961              		.loc 1 144 28 discriminator 1
 1962 009a 8327C900 		lw	a5,12(s2)
 143:C:/Users/stapi/OneDrive/Desktop/GD32VW553/V1_MQTT_OK/GD32VW55X_Wifi_BLE_SDK/GD32VW55x_RELEASE_V1.0.2/MSDK/wpa_supplicant/src/common\hw_features_common.c **** 	    (ht40_plus && !(p_chan->allowed_bw & HOSTAPD_CHAN_WIDTH_40P)) ||
 1963              		.loc 1 143 45 discriminator 1
 1964 009e 63509602 		bge	a2,s1,.L203
 144:C:/Users/stapi/OneDrive/Desktop/GD32VW553/V1_MQTT_OK/GD32VW55X_Wifi_BLE_SDK/GD32VW55x_RELEASE_V1.0.2/MSDK/wpa_supplicant/src/common\hw_features_common.c **** 	    (!ht40_plus && !(p_chan->allowed_bw & HOSTAPD_CHAN_WIDTH_40M))) {
 1965              		.loc 1 144 41
 1966 00a2 918B     		andi	a5,a5,4
 1967              	.L217:
 145:C:/Users/stapi/OneDrive/Desktop/GD32VW553/V1_MQTT_OK/GD32VW55X_Wifi_BLE_SDK/GD32VW55x_RELEASE_V1.0.2/MSDK/wpa_supplicant/src/common\hw_features_common.c **** 		wpa_printf(MSG_ERROR, "HT40 secondary channel %d not allowed",
 1968              		.loc 1 145 18
 1969 00a4 99EF     		bne	a5,zero,.L204
 1970              	.L202:
 146:C:/Users/stapi/OneDrive/Desktop/GD32VW553/V1_MQTT_OK/GD32VW55X_Wifi_BLE_SDK/GD32VW55x_RELEASE_V1.0.2/MSDK/wpa_supplicant/src/common\hw_features_common.c **** 			   sec_chan);
 1971              		.loc 1 146 3 is_stmt 1
 1972 00a6 B7050000 		lui	a1,%hi(.LC27)
 1973 00aa 2686     		mv	a2,s1
 1974 00ac 93850500 		addi	a1,a1,%lo(.LC27)
 1975 00b0 1545     		li	a0,5
 1976 00b2 97000000 		call	wpa_printf
 1976      E7800000 
 1977              	.LVL154:
 148:C:/Users/stapi/OneDrive/Desktop/GD32VW553/V1_MQTT_OK/GD32VW55X_Wifi_BLE_SDK/GD32VW55x_RELEASE_V1.0.2/MSDK/wpa_supplicant/src/common\hw_features_common.c **** 	}
 1978              		.loc 1 148 3
 148:C:/Users/stapi/OneDrive/Desktop/GD32VW553/V1_MQTT_OK/GD32VW55X_Wifi_BLE_SDK/GD32VW55x_RELEASE_V1.0.2/MSDK/wpa_supplicant/src/common\hw_features_common.c **** 	}
 1979              		.loc 1 148 10 is_stmt 0
 1980 00ba 0144     		li	s0,0
 1981 00bc 59BF     		j	.L197
 1982              	.L203:
 145:C:/Users/stapi/OneDrive/Desktop/GD32VW553/V1_MQTT_OK/GD32VW55X_Wifi_BLE_SDK/GD32VW55x_RELEASE_V1.0.2/MSDK/wpa_supplicant/src/common\hw_features_common.c **** 		wpa_printf(MSG_ERROR, "HT40 secondary channel %d not allowed",
 1983              		.loc 1 145 42
 1984 00be A18B     		andi	a5,a5,8
 1985 00c0 D5B7     		j	.L217
 1986              	.L204:
 157:C:/Users/stapi/OneDrive/Desktop/GD32VW553/V1_MQTT_OK/GD32VW55X_Wifi_BLE_SDK/GD32VW55x_RELEASE_V1.0.2/MSDK/wpa_supplicant/src/common\hw_features_common.c **** 		return 1;
 1987              		.loc 1 157 2 is_stmt 1
 157:C:/Users/stapi/OneDrive/Desktop/GD32VW553/V1_MQTT_OK/GD32VW55X_Wifi_BLE_SDK/GD32VW55x_RELEASE_V1.0.2/MSDK/wpa_supplicant/src/common\hw_features_common.c **** 		return 1;
 1988              		.loc 1 157 5 is_stmt 0
 1989 00c2 8947     		li	a5,2
 1990 00c4 E316FAF8 		bne	s4,a5,.L205
 160:C:/Users/stapi/OneDrive/Desktop/GD32VW553/V1_MQTT_OK/GD32VW55X_Wifi_BLE_SDK/GD32VW55x_RELEASE_V1.0.2/MSDK/wpa_supplicant/src/common\hw_features_common.c **** 
 1991              		.loc 1 160 2 is_stmt 1
 1992 00c8 1C08     		addi	a5,sp,16
 160:C:/Users/stapi/OneDrive/Desktop/GD32VW553/V1_MQTT_OK/GD32VW55X_Wifi_BLE_SDK/GD32VW55x_RELEASE_V1.0.2/MSDK/wpa_supplicant/src/common\hw_features_common.c **** 
 1993              		.loc 1 160 8 is_stmt 0
 1994 00ca 3347960A 		min	a4,a2,s1
 1995              	.LVL155:
 162:C:/Users/stapi/OneDrive/Desktop/GD32VW553/V1_MQTT_OK/GD32VW55X_Wifi_BLE_SDK/GD32VW55x_RELEASE_V1.0.2/MSDK/wpa_supplicant/src/common\hw_features_common.c **** 	for (k = 0; k < ARRAY_SIZE(allowed); k++) {
 1996              		.loc 1 162 2 is_stmt 1
 163:C:/Users/stapi/OneDrive/Desktop/GD32VW553/V1_MQTT_OK/GD32VW55X_Wifi_BLE_SDK/GD32VW55x_RELEASE_V1.0.2/MSDK/wpa_supplicant/src/common\hw_features_common.c **** 		if (first == allowed[k]) {
 1997              		.loc 1 163 2
 163:C:/Users/stapi/OneDrive/Desktop/GD32VW553/V1_MQTT_OK/GD32VW55X_Wifi_BLE_SDK/GD32VW55x_RELEASE_V1.0.2/MSDK/wpa_supplicant/src/common\hw_features_common.c **** 		if (first == allowed[k]) {
 1998              		.loc 1 163 14
 1999              	.L206:
 164:C:/Users/stapi/OneDrive/Desktop/GD32VW553/V1_MQTT_OK/GD32VW55X_Wifi_BLE_SDK/GD32VW55x_RELEASE_V1.0.2/MSDK/wpa_supplicant/src/common\hw_features_common.c **** 			ok = 1;
 2000              		.loc 1 164 3
 164:C:/Users/stapi/OneDrive/Desktop/GD32VW553/V1_MQTT_OK/GD32VW55X_Wifi_BLE_SDK/GD32VW55x_RELEASE_V1.0.2/MSDK/wpa_supplicant/src/common\hw_features_common.c **** 			ok = 1;
 2001              		.loc 1 164 6 is_stmt 0
 2002 00ce 9443     		lw	a3,0(a5)
 2003 00d0 E380E6F8 		beq	a3,a4,.L205
 163:C:/Users/stapi/OneDrive/Desktop/GD32VW553/V1_MQTT_OK/GD32VW55X_Wifi_BLE_SDK/GD32VW55x_RELEASE_V1.0.2/MSDK/wpa_supplicant/src/common\hw_features_common.c **** 		if (first == allowed[k]) {
 2004              		.loc 1 163 39 is_stmt 1 discriminator 2
 163:C:/Users/stapi/OneDrive/Desktop/GD32VW553/V1_MQTT_OK/GD32VW55X_Wifi_BLE_SDK/GD32VW55x_RELEASE_V1.0.2/MSDK/wpa_supplicant/src/common\hw_features_common.c **** 		if (first == allowed[k]) {
 2005              		.loc 1 163 14 discriminator 2
 163:C:/Users/stapi/OneDrive/Desktop/GD32VW553/V1_MQTT_OK/GD32VW55X_Wifi_BLE_SDK/GD32VW55x_RELEASE_V1.0.2/MSDK/wpa_supplicant/src/common\hw_features_common.c **** 		if (first == allowed[k]) {
 2006              		.loc 1 163 2 is_stmt 0 discriminator 2
 2007 00d4 9107     		addi	a5,a5,4
 2008 00d6 9408     		addi	a3,sp,80
 2009              	.LVL156:
 2010 00d8 E39BF6FE 		bne	a3,a5,.L206
 169:C:/Users/stapi/OneDrive/Desktop/GD32VW553/V1_MQTT_OK/GD32VW55X_Wifi_BLE_SDK/GD32VW55x_RELEASE_V1.0.2/MSDK/wpa_supplicant/src/common\hw_features_common.c **** 		wpa_printf(MSG_ERROR, "HT40 channel pair (%d, %d) not allowed",
 2011              		.loc 1 169 2 is_stmt 1
 170:C:/Users/stapi/OneDrive/Desktop/GD32VW553/V1_MQTT_OK/GD32VW55X_Wifi_BLE_SDK/GD32VW55x_RELEASE_V1.0.2/MSDK/wpa_supplicant/src/common\hw_features_common.c **** 			   pri_chan, sec_chan);
 2012              		.loc 1 170 3
 2013 00dc B7050000 		lui	a1,%hi(.LC28)
 2014 00e0 A686     		mv	a3,s1
 2015              	.LVL157:
 2016 00e2 93850500 		addi	a1,a1,%lo(.LC28)
 2017 00e6 1545     		li	a0,5
 2018 00e8 97000000 		call	wpa_printf
 2018      E7800000 
 2019              	.LVL158:
 172:C:/Users/stapi/OneDrive/Desktop/GD32VW553/V1_MQTT_OK/GD32VW55X_Wifi_BLE_SDK/GD32VW55x_RELEASE_V1.0.2/MSDK/wpa_supplicant/src/common\hw_features_common.c **** 	}
 2020              		.loc 1 172 3
 172:C:/Users/stapi/OneDrive/Desktop/GD32VW553/V1_MQTT_OK/GD32VW55X_Wifi_BLE_SDK/GD32VW55x_RELEASE_V1.0.2/MSDK/wpa_supplicant/src/common\hw_features_common.c **** 	}
 2021              		.loc 1 172 10 is_stmt 0
 2022 00f0 8DB7     		j	.L197
 2023              		.cfi_endproc
 2024              	.LFE106:
 2026              		.section	.rodata
 2027              		.align	2
 2028              		.set	.LANCHOR0,. + 0
 2029              	.LC0:
 2030 0000 24000000 		.word	36
 2031 0004 2C000000 		.word	44
 2032 0008 34000000 		.word	52
 2033 000c 3C000000 		.word	60
 2034 0010 64000000 		.word	100
 2035 0014 6C000000 		.word	108
 2036 0018 74000000 		.word	116
 2037 001c 7C000000 		.word	124
 2038 0020 84000000 		.word	132
 2039 0024 8C000000 		.word	140
 2040 0028 95000000 		.word	149
 2041 002c 9D000000 		.word	157
 2042 0030 A5000000 		.word	165
 2043 0034 AD000000 		.word	173
 2044 0038 B8000000 		.word	184
 2045 003c C0000000 		.word	192
 2046              		.text
 2047              	.Letext0:
 2048              		.file 2 "c:\\users\\stapi\\onedrive\\desktop\\gd32vw553\\embeddedbuilder_v1.4.7.26843\\tools\\nucl
 2049              		.file 3 "c:\\users\\stapi\\onedrive\\desktop\\gd32vw553\\embeddedbuilder_v1.4.7.26843\\tools\\nucl
 2050              		.file 4 "c:\\users\\stapi\\onedrive\\desktop\\gd32vw553\\embeddedbuilder_v1.4.7.26843\\tools\\nucl
 2051              		.file 5 "..\\..\\..\\..\\wpa_supplicant\\src\\utils/os.h"
 2052              		.file 6 "..\\..\\..\\..\\wpa_supplicant\\src\\utils/common.h"
 2053              		.file 7 "C:/Users/stapi/OneDrive/Desktop/GD32VW553/V1_MQTT_OK/GD32VW55X_Wifi_BLE_SDK/GD32VW55x_REL
 2054              		.file 8 "C:/Users/stapi/OneDrive/Desktop/GD32VW553/V1_MQTT_OK/GD32VW55X_Wifi_BLE_SDK/GD32VW55x_REL
 2055              		.file 9 "C:/Users/stapi/OneDrive/Desktop/GD32VW553/V1_MQTT_OK/GD32VW55X_Wifi_BLE_SDK/GD32VW55x_REL
 2056              		.file 10 "..\\..\\..\\..\\wpa_supplicant\\src/utils/list.h"
 2057              		.file 11 "..\\..\\..\\..\\wpa_supplicant\\src/drivers/driver.h"
 2058              		.file 12 "..\\..\\..\\..\\wpa_supplicant\\src\\utils/wpa_debug.h"
 2059              		.file 13 "<built-in>"
DEFINED SYMBOLS
                            *ABS*:0000000000000000 hw_features_common.c
C:\Users\stapi\AppData\Local\Temp\ccxEGDhx.s:13     .text.hw_get_channel_chan:0000000000000000 hw_get_channel_chan
C:\Users\stapi\AppData\Local\Temp\ccxEGDhx.s:17     .text.hw_get_channel_chan:0000000000000000 .L0 
C:\Users\stapi\AppData\Local\Temp\ccxEGDhx.s:19     .text.hw_get_channel_chan:0000000000000000 .L0 
C:\Users\stapi\AppData\Local\Temp\ccxEGDhx.s:20     .text.hw_get_channel_chan:0000000000000000 .L0 
C:\Users\stapi\AppData\Local\Temp\ccxEGDhx.s:21     .text.hw_get_channel_chan:0000000000000000 .L0 
C:\Users\stapi\AppData\Local\Temp\ccxEGDhx.s:22     .text.hw_get_channel_chan:0000000000000000 .L0 
C:\Users\stapi\AppData\Local\Temp\ccxEGDhx.s:24     .text.hw_get_channel_chan:0000000000000002 .L0 
C:\Users\stapi\AppData\Local\Temp\ccxEGDhx.s:26     .text.hw_get_channel_chan:0000000000000004 .L0 
C:\Users\stapi\AppData\Local\Temp\ccxEGDhx.s:27     .text.hw_get_channel_chan:0000000000000004 .L0 
C:\Users\stapi\AppData\Local\Temp\ccxEGDhx.s:30     .text.hw_get_channel_chan:0000000000000008 .L0 
C:\Users\stapi\AppData\Local\Temp\ccxEGDhx.s:31     .text.hw_get_channel_chan:0000000000000008 .L0 
C:\Users\stapi\AppData\Local\Temp\ccxEGDhx.s:34     .text.hw_get_channel_chan:000000000000000a .L0 
C:\Users\stapi\AppData\Local\Temp\ccxEGDhx.s:38     .text.hw_get_channel_chan:000000000000000c .L0 
C:\Users\stapi\AppData\Local\Temp\ccxEGDhx.s:40     .text.hw_get_channel_chan:000000000000000e .L0 
C:\Users\stapi\AppData\Local\Temp\ccxEGDhx.s:43     .text.hw_get_channel_chan:0000000000000010 .L0 
C:\Users\stapi\AppData\Local\Temp\ccxEGDhx.s:48     .text.hw_get_channel_chan:0000000000000014 .L0 
C:\Users\stapi\AppData\Local\Temp\ccxEGDhx.s:49     .text.hw_get_channel_chan:0000000000000014 .L0 
C:\Users\stapi\AppData\Local\Temp\ccxEGDhx.s:53     .text.hw_get_channel_chan:0000000000000018 .L0 
C:\Users\stapi\AppData\Local\Temp\ccxEGDhx.s:57     .text.hw_get_channel_chan:000000000000001a .L0 
C:\Users\stapi\AppData\Local\Temp\ccxEGDhx.s:64     .text.hw_get_channel_chan:000000000000001c .L0 
C:\Users\stapi\AppData\Local\Temp\ccxEGDhx.s:65     .text.hw_get_channel_chan:000000000000001c .L0 
C:\Users\stapi\AppData\Local\Temp\ccxEGDhx.s:69     .text.hw_get_channel_chan:0000000000000022 .L0 
C:\Users\stapi\AppData\Local\Temp\ccxEGDhx.s:70     .text.hw_get_channel_chan:0000000000000022 .L0 
C:\Users\stapi\AppData\Local\Temp\ccxEGDhx.s:72     .text.hw_get_channel_chan:0000000000000026 .L0 
C:\Users\stapi\AppData\Local\Temp\ccxEGDhx.s:74     .text.hw_get_channel_chan:000000000000002a .L0 
C:\Users\stapi\AppData\Local\Temp\ccxEGDhx.s:75     .text.hw_get_channel_chan:000000000000002a .L0 
C:\Users\stapi\AppData\Local\Temp\ccxEGDhx.s:77     .text.hw_get_channel_chan:000000000000002c .L0 
C:\Users\stapi\AppData\Local\Temp\ccxEGDhx.s:78     .text.hw_get_channel_chan:000000000000002c .L0 
C:\Users\stapi\AppData\Local\Temp\ccxEGDhx.s:81     .text.hw_get_channel_chan:000000000000002e .L0 
C:\Users\stapi\AppData\Local\Temp\ccxEGDhx.s:87     .text.hw_get_channel_chan:0000000000000032 .L0 
C:\Users\stapi\AppData\Local\Temp\ccxEGDhx.s:88     .text.hw_get_channel_chan:0000000000000032 .L0 
C:\Users\stapi\AppData\Local\Temp\ccxEGDhx.s:93     .text.hw_get_channel_chan:0000000000000036 .L0 
C:\Users\stapi\AppData\Local\Temp\ccxEGDhx.s:100    .text.hw_mode_get_channel:0000000000000000 hw_mode_get_channel
C:\Users\stapi\AppData\Local\Temp\ccxEGDhx.s:103    .text.hw_mode_get_channel:0000000000000000 .L0 
C:\Users\stapi\AppData\Local\Temp\ccxEGDhx.s:105    .text.hw_mode_get_channel:0000000000000000 .L0 
C:\Users\stapi\AppData\Local\Temp\ccxEGDhx.s:106    .text.hw_mode_get_channel:0000000000000000 .L0 
C:\Users\stapi\AppData\Local\Temp\ccxEGDhx.s:107    .text.hw_mode_get_channel:0000000000000000 .L0 
C:\Users\stapi\AppData\Local\Temp\ccxEGDhx.s:108    .text.hw_mode_get_channel:0000000000000000 .L0 
C:\Users\stapi\AppData\Local\Temp\ccxEGDhx.s:110    .text.hw_mode_get_channel:0000000000000002 .L0 
C:\Users\stapi\AppData\Local\Temp\ccxEGDhx.s:112    .text.hw_mode_get_channel:0000000000000004 .L0 
C:\Users\stapi\AppData\Local\Temp\ccxEGDhx.s:115    .text.hw_mode_get_channel:0000000000000006 .L0 
C:\Users\stapi\AppData\Local\Temp\ccxEGDhx.s:120    .text.hw_mode_get_channel:000000000000000a .L0 
C:\Users\stapi\AppData\Local\Temp\ccxEGDhx.s:121    .text.hw_mode_get_channel:000000000000000a .L0 
C:\Users\stapi\AppData\Local\Temp\ccxEGDhx.s:123    .text.hw_mode_get_channel:000000000000000e .L0 
C:\Users\stapi\AppData\Local\Temp\ccxEGDhx.s:126    .text.hw_mode_get_channel:0000000000000010 .L0 
C:\Users\stapi\AppData\Local\Temp\ccxEGDhx.s:130    .text.hw_mode_get_channel:0000000000000012 .L0 
C:\Users\stapi\AppData\Local\Temp\ccxEGDhx.s:131    .text.hw_mode_get_channel:0000000000000012 .L0 
C:\Users\stapi\AppData\Local\Temp\ccxEGDhx.s:135    .text.hw_mode_get_channel:0000000000000018 .L0 
C:\Users\stapi\AppData\Local\Temp\ccxEGDhx.s:136    .text.hw_mode_get_channel:0000000000000018 .L0 
C:\Users\stapi\AppData\Local\Temp\ccxEGDhx.s:139    .text.hw_mode_get_channel:0000000000000020 .L0 
C:\Users\stapi\AppData\Local\Temp\ccxEGDhx.s:140    .text.hw_mode_get_channel:0000000000000020 .L0 
C:\Users\stapi\AppData\Local\Temp\ccxEGDhx.s:142    .text.hw_mode_get_channel:0000000000000022 .L0 
C:\Users\stapi\AppData\Local\Temp\ccxEGDhx.s:143    .text.hw_mode_get_channel:0000000000000022 .L0 
C:\Users\stapi\AppData\Local\Temp\ccxEGDhx.s:151    .text.hw_mode_get_channel:000000000000002a .L0 
C:\Users\stapi\AppData\Local\Temp\ccxEGDhx.s:152    .text.hw_mode_get_channel:000000000000002a .L0 
C:\Users\stapi\AppData\Local\Temp\ccxEGDhx.s:155    .text.hw_mode_get_channel:000000000000002e .L0 
C:\Users\stapi\AppData\Local\Temp\ccxEGDhx.s:162    .text.hw_get_channel_freq:0000000000000000 hw_get_channel_freq
C:\Users\stapi\AppData\Local\Temp\ccxEGDhx.s:165    .text.hw_get_channel_freq:0000000000000000 .L0 
C:\Users\stapi\AppData\Local\Temp\ccxEGDhx.s:167    .text.hw_get_channel_freq:0000000000000000 .L0 
C:\Users\stapi\AppData\Local\Temp\ccxEGDhx.s:168    .text.hw_get_channel_freq:0000000000000008 .L0 
C:\Users\stapi\AppData\Local\Temp\ccxEGDhx.s:169    .text.hw_get_channel_freq:0000000000000008 .L0 
C:\Users\stapi\AppData\Local\Temp\ccxEGDhx.s:170    .text.hw_get_channel_freq:0000000000000008 .L0 
C:\Users\stapi\AppData\Local\Temp\ccxEGDhx.s:171    .text.hw_get_channel_freq:0000000000000008 .L0 
C:\Users\stapi\AppData\Local\Temp\ccxEGDhx.s:172    .text.hw_get_channel_freq:0000000000000008 .L0 
C:\Users\stapi\AppData\Local\Temp\ccxEGDhx.s:173    .text.hw_get_channel_freq:0000000000000008 .L0 
C:\Users\stapi\AppData\Local\Temp\ccxEGDhx.s:174    .text.hw_get_channel_freq:0000000000000008 .L0 
C:\Users\stapi\AppData\Local\Temp\ccxEGDhx.s:175    .text.hw_get_channel_freq:0000000000000008 .L0 
C:\Users\stapi\AppData\Local\Temp\ccxEGDhx.s:177    .text.hw_get_channel_freq:0000000000000008 .L0 
C:\Users\stapi\AppData\Local\Temp\ccxEGDhx.s:178    .text.hw_get_channel_freq:0000000000000008 .L0 
C:\Users\stapi\AppData\Local\Temp\ccxEGDhx.s:179    .text.hw_get_channel_freq:0000000000000008 .L0 
C:\Users\stapi\AppData\Local\Temp\ccxEGDhx.s:180    .text.hw_get_channel_freq:0000000000000008 .L0 
C:\Users\stapi\AppData\Local\Temp\ccxEGDhx.s:186    .text.hw_get_channel_freq:0000000000000012 .L0 
C:\Users\stapi\AppData\Local\Temp\ccxEGDhx.s:188    .text.hw_get_channel_freq:0000000000000014 .L0 
C:\Users\stapi\AppData\Local\Temp\ccxEGDhx.s:189    .text.hw_get_channel_freq:0000000000000014 .L0 
C:\Users\stapi\AppData\Local\Temp\ccxEGDhx.s:192    .text.hw_get_channel_freq:0000000000000018 .L0 
C:\Users\stapi\AppData\Local\Temp\ccxEGDhx.s:193    .text.hw_get_channel_freq:0000000000000018 .L0 
C:\Users\stapi\AppData\Local\Temp\ccxEGDhx.s:197    .text.hw_get_channel_freq:000000000000001a .L0 
C:\Users\stapi\AppData\Local\Temp\ccxEGDhx.s:201    .text.hw_get_channel_freq:000000000000001c .L0 
C:\Users\stapi\AppData\Local\Temp\ccxEGDhx.s:202    .text.hw_get_channel_freq:000000000000001c .L0 
C:\Users\stapi\AppData\Local\Temp\ccxEGDhx.s:208    .text.hw_get_channel_freq:0000000000000020 .L0 
C:\Users\stapi\AppData\Local\Temp\ccxEGDhx.s:211    .text.hw_get_channel_freq:0000000000000022 .L0 
C:\Users\stapi\AppData\Local\Temp\ccxEGDhx.s:212    .text.hw_get_channel_freq:000000000000002a .L0 
C:\Users\stapi\AppData\Local\Temp\ccxEGDhx.s:213    .text.hw_get_channel_freq:000000000000002a .L0 
C:\Users\stapi\AppData\Local\Temp\ccxEGDhx.s:214    .text.hw_get_channel_freq:000000000000002a .L0 
C:\Users\stapi\AppData\Local\Temp\ccxEGDhx.s:215    .text.hw_get_channel_freq:000000000000002a .L0 
C:\Users\stapi\AppData\Local\Temp\ccxEGDhx.s:216    .text.hw_get_channel_freq:000000000000002a .L0 
C:\Users\stapi\AppData\Local\Temp\ccxEGDhx.s:217    .text.hw_get_channel_freq:000000000000002a .L0 
C:\Users\stapi\AppData\Local\Temp\ccxEGDhx.s:218    .text.hw_get_channel_freq:000000000000002a .L0 
C:\Users\stapi\AppData\Local\Temp\ccxEGDhx.s:219    .text.hw_get_channel_freq:000000000000002a .L0 
C:\Users\stapi\AppData\Local\Temp\ccxEGDhx.s:220    .text.hw_get_channel_freq:000000000000002a .L0 
C:\Users\stapi\AppData\Local\Temp\ccxEGDhx.s:223    .text.hw_get_channel_freq:000000000000002a .L0 
C:\Users\stapi\AppData\Local\Temp\ccxEGDhx.s:228    .text.hw_get_channel_freq:000000000000002a .L0 
C:\Users\stapi\AppData\Local\Temp\ccxEGDhx.s:229    .text.hw_get_channel_freq:000000000000002a .L0 
C:\Users\stapi\AppData\Local\Temp\ccxEGDhx.s:230    .text.hw_get_channel_freq:000000000000002a .L0 
C:\Users\stapi\AppData\Local\Temp\ccxEGDhx.s:235    .text.hw_get_channel_freq:0000000000000030 .L0 
C:\Users\stapi\AppData\Local\Temp\ccxEGDhx.s:236    .text.hw_get_channel_freq:0000000000000030 .L0 
C:\Users\stapi\AppData\Local\Temp\ccxEGDhx.s:245    .text.hw_get_channel_freq:0000000000000038 .L0 
C:\Users\stapi\AppData\Local\Temp\ccxEGDhx.s:246    .text.hw_get_channel_freq:0000000000000038 .L0 
C:\Users\stapi\AppData\Local\Temp\ccxEGDhx.s:252    .text.hw_get_channel_freq:0000000000000046 .L0 
C:\Users\stapi\AppData\Local\Temp\ccxEGDhx.s:253    .text.hw_get_channel_freq:0000000000000046 .L0 
C:\Users\stapi\AppData\Local\Temp\ccxEGDhx.s:258    .text.hw_get_channel_freq:000000000000004a .L0 
C:\Users\stapi\AppData\Local\Temp\ccxEGDhx.s:265    .text.hw_get_freq:0000000000000000 hw_get_freq
C:\Users\stapi\AppData\Local\Temp\ccxEGDhx.s:268    .text.hw_get_freq:0000000000000000 .L0 
C:\Users\stapi\AppData\Local\Temp\ccxEGDhx.s:270    .text.hw_get_freq:0000000000000000 .L0 
C:\Users\stapi\AppData\Local\Temp\ccxEGDhx.s:271    .text.hw_get_freq:0000000000000008 .L0 
C:\Users\stapi\AppData\Local\Temp\ccxEGDhx.s:272    .text.hw_get_freq:0000000000000008 .L0 
C:\Users\stapi\AppData\Local\Temp\ccxEGDhx.s:274    .text.hw_get_freq:0000000000000008 .L0 
C:\Users\stapi\AppData\Local\Temp\ccxEGDhx.s:275    .text.hw_get_freq:0000000000000008 .L0 
C:\Users\stapi\AppData\Local\Temp\ccxEGDhx.s:276    .text.hw_get_freq:0000000000000008 .L0 
C:\Users\stapi\AppData\Local\Temp\ccxEGDhx.s:277    .text.hw_get_freq:000000000000000a .L0 
C:\Users\stapi\AppData\Local\Temp\ccxEGDhx.s:279    .text.hw_get_freq:000000000000000a .L0 
C:\Users\stapi\AppData\Local\Temp\ccxEGDhx.s:283    .text.hw_get_freq:0000000000000014 .L0 
C:\Users\stapi\AppData\Local\Temp\ccxEGDhx.s:284    .text.hw_get_freq:0000000000000014 .L0 
C:\Users\stapi\AppData\Local\Temp\ccxEGDhx.s:286    .text.hw_get_freq:0000000000000018 .L0 
C:\Users\stapi\AppData\Local\Temp\ccxEGDhx.s:288    .text.hw_get_freq:0000000000000020 .L0 
C:\Users\stapi\AppData\Local\Temp\ccxEGDhx.s:289    .text.hw_get_freq:0000000000000020 .L0 
C:\Users\stapi\AppData\Local\Temp\ccxEGDhx.s:290    .text.hw_get_freq:0000000000000020 .L0 
C:\Users\stapi\AppData\Local\Temp\ccxEGDhx.s:297    .text.hw_get_chan:0000000000000000 hw_get_chan
C:\Users\stapi\AppData\Local\Temp\ccxEGDhx.s:300    .text.hw_get_chan:0000000000000000 .L0 
C:\Users\stapi\AppData\Local\Temp\ccxEGDhx.s:302    .text.hw_get_chan:0000000000000000 .L0 
C:\Users\stapi\AppData\Local\Temp\ccxEGDhx.s:303    .text.hw_get_chan:0000000000000008 .L0 
C:\Users\stapi\AppData\Local\Temp\ccxEGDhx.s:304    .text.hw_get_chan:0000000000000008 .L0 
C:\Users\stapi\AppData\Local\Temp\ccxEGDhx.s:306    .text.hw_get_chan:0000000000000008 .L0 
C:\Users\stapi\AppData\Local\Temp\ccxEGDhx.s:307    .text.hw_get_chan:0000000000000008 .L0 
C:\Users\stapi\AppData\Local\Temp\ccxEGDhx.s:308    .text.hw_get_chan:0000000000000008 .L0 
C:\Users\stapi\AppData\Local\Temp\ccxEGDhx.s:309    .text.hw_get_chan:000000000000000a .L0 
C:\Users\stapi\AppData\Local\Temp\ccxEGDhx.s:311    .text.hw_get_chan:000000000000000a .L0 
C:\Users\stapi\AppData\Local\Temp\ccxEGDhx.s:313    .text.hw_get_chan:000000000000000c .L0 
C:\Users\stapi\AppData\Local\Temp\ccxEGDhx.s:320    .text.hw_get_chan:0000000000000018 .L0 
C:\Users\stapi\AppData\Local\Temp\ccxEGDhx.s:321    .text.hw_get_chan:0000000000000018 .L0 
C:\Users\stapi\AppData\Local\Temp\ccxEGDhx.s:323    .text.hw_get_chan:000000000000001c .L0 
C:\Users\stapi\AppData\Local\Temp\ccxEGDhx.s:325    .text.hw_get_chan:0000000000000024 .L0 
C:\Users\stapi\AppData\Local\Temp\ccxEGDhx.s:326    .text.hw_get_chan:0000000000000024 .L0 
C:\Users\stapi\AppData\Local\Temp\ccxEGDhx.s:327    .text.hw_get_chan:0000000000000024 .L0 
C:\Users\stapi\AppData\Local\Temp\ccxEGDhx.s:334    .text.get_pri_sec_chan:0000000000000000 get_pri_sec_chan
C:\Users\stapi\AppData\Local\Temp\ccxEGDhx.s:337    .text.get_pri_sec_chan:0000000000000000 .L0 
C:\Users\stapi\AppData\Local\Temp\ccxEGDhx.s:339    .text.get_pri_sec_chan:0000000000000000 .L0 
C:\Users\stapi\AppData\Local\Temp\ccxEGDhx.s:340    .text.get_pri_sec_chan:0000000000000008 .L0 
C:\Users\stapi\AppData\Local\Temp\ccxEGDhx.s:341    .text.get_pri_sec_chan:0000000000000008 .L0 
C:\Users\stapi\AppData\Local\Temp\ccxEGDhx.s:342    .text.get_pri_sec_chan:0000000000000008 .L0 
C:\Users\stapi\AppData\Local\Temp\ccxEGDhx.s:343    .text.get_pri_sec_chan:0000000000000008 .L0 
C:\Users\stapi\AppData\Local\Temp\ccxEGDhx.s:345    .text.get_pri_sec_chan:0000000000000008 .L0 
C:\Users\stapi\AppData\Local\Temp\ccxEGDhx.s:346    .text.get_pri_sec_chan:0000000000000008 .L0 
C:\Users\stapi\AppData\Local\Temp\ccxEGDhx.s:347    .text.get_pri_sec_chan:0000000000000008 .L0 
C:\Users\stapi\AppData\Local\Temp\ccxEGDhx.s:348    .text.get_pri_sec_chan:0000000000000008 .L0 
C:\Users\stapi\AppData\Local\Temp\ccxEGDhx.s:350    .text.get_pri_sec_chan:000000000000000c .L0 
C:\Users\stapi\AppData\Local\Temp\ccxEGDhx.s:352    .text.get_pri_sec_chan:0000000000000010 .L0 
C:\Users\stapi\AppData\Local\Temp\ccxEGDhx.s:353    .text.get_pri_sec_chan:0000000000000010 .L0 
C:\Users\stapi\AppData\Local\Temp\ccxEGDhx.s:355    .text.get_pri_sec_chan:0000000000000012 .L0 
C:\Users\stapi\AppData\Local\Temp\ccxEGDhx.s:358    .text.get_pri_sec_chan:0000000000000014 .L0 
C:\Users\stapi\AppData\Local\Temp\ccxEGDhx.s:359    .text.get_pri_sec_chan:0000000000000016 .L0 
C:\Users\stapi\AppData\Local\Temp\ccxEGDhx.s:361    .text.get_pri_sec_chan:0000000000000016 .L0 
C:\Users\stapi\AppData\Local\Temp\ccxEGDhx.s:363    .text.get_pri_sec_chan:0000000000000018 .L0 
C:\Users\stapi\AppData\Local\Temp\ccxEGDhx.s:371    .text.get_pri_sec_chan:0000000000000028 .L0 
C:\Users\stapi\AppData\Local\Temp\ccxEGDhx.s:372    .text.get_pri_sec_chan:0000000000000028 .L0 
C:\Users\stapi\AppData\Local\Temp\ccxEGDhx.s:374    .text.get_pri_sec_chan:000000000000002a .L0 
C:\Users\stapi\AppData\Local\Temp\ccxEGDhx.s:377    .text.get_pri_sec_chan:000000000000002c .L0 
C:\Users\stapi\AppData\Local\Temp\ccxEGDhx.s:378    .text.get_pri_sec_chan:000000000000002c .L0 
C:\Users\stapi\AppData\Local\Temp\ccxEGDhx.s:379    .text.get_pri_sec_chan:000000000000002c .L0 
C:\Users\stapi\AppData\Local\Temp\ccxEGDhx.s:381    .text.get_pri_sec_chan:0000000000000030 .L0 
C:\Users\stapi\AppData\Local\Temp\ccxEGDhx.s:383    .text.get_pri_sec_chan:0000000000000032 .L0 
C:\Users\stapi\AppData\Local\Temp\ccxEGDhx.s:384    .text.get_pri_sec_chan:0000000000000032 .L0 
C:\Users\stapi\AppData\Local\Temp\ccxEGDhx.s:387    .text.get_pri_sec_chan:0000000000000036 .L0 
C:\Users\stapi\AppData\Local\Temp\ccxEGDhx.s:391    .text.get_pri_sec_chan:000000000000003c .L0 
C:\Users\stapi\AppData\Local\Temp\ccxEGDhx.s:394    .text.get_pri_sec_chan:000000000000003e .L0 
C:\Users\stapi\AppData\Local\Temp\ccxEGDhx.s:395    .text.get_pri_sec_chan:000000000000003e .L0 
C:\Users\stapi\AppData\Local\Temp\ccxEGDhx.s:398    .text.get_pri_sec_chan:0000000000000044 .L0 
C:\Users\stapi\AppData\Local\Temp\ccxEGDhx.s:399    .text.get_pri_sec_chan:0000000000000044 .L0 
C:\Users\stapi\AppData\Local\Temp\ccxEGDhx.s:402    .text.get_pri_sec_chan:0000000000000046 .L0 
C:\Users\stapi\AppData\Local\Temp\ccxEGDhx.s:407    .text.get_pri_sec_chan:0000000000000048 .L0 
C:\Users\stapi\AppData\Local\Temp\ccxEGDhx.s:408    .text.get_pri_sec_chan:000000000000004a .L0 
C:\Users\stapi\AppData\Local\Temp\ccxEGDhx.s:409    .text.get_pri_sec_chan:000000000000004a .L0 
C:\Users\stapi\AppData\Local\Temp\ccxEGDhx.s:411    .text.get_pri_sec_chan:0000000000000052 .L0 
C:\Users\stapi\AppData\Local\Temp\ccxEGDhx.s:412    .text.get_pri_sec_chan:0000000000000052 .L0 
C:\Users\stapi\AppData\Local\Temp\ccxEGDhx.s:413    .text.get_pri_sec_chan:0000000000000052 .L0 
C:\Users\stapi\AppData\Local\Temp\ccxEGDhx.s:414    .text.get_pri_sec_chan:0000000000000052 .L0 
C:\Users\stapi\AppData\Local\Temp\ccxEGDhx.s:417    .text.get_pri_sec_chan:0000000000000052 .L0 
C:\Users\stapi\AppData\Local\Temp\ccxEGDhx.s:420    .text.get_pri_sec_chan:0000000000000052 .L0 
C:\Users\stapi\AppData\Local\Temp\ccxEGDhx.s:421    .text.get_pri_sec_chan:0000000000000052 .L0 
C:\Users\stapi\AppData\Local\Temp\ccxEGDhx.s:424    .text.get_pri_sec_chan:0000000000000058 .L0 
C:\Users\stapi\AppData\Local\Temp\ccxEGDhx.s:425    .text.get_pri_sec_chan:0000000000000058 .L0 
C:\Users\stapi\AppData\Local\Temp\ccxEGDhx.s:428    .text.get_pri_sec_chan:000000000000005c .L0 
C:\Users\stapi\AppData\Local\Temp\ccxEGDhx.s:442    .text.check_40mhz_5g:0000000000000000 check_40mhz_5g
C:\Users\stapi\AppData\Local\Temp\ccxEGDhx.s:445    .text.check_40mhz_5g:0000000000000000 .L0 
C:\Users\stapi\AppData\Local\Temp\ccxEGDhx.s:447    .text.check_40mhz_5g:0000000000000000 .L0 
C:\Users\stapi\AppData\Local\Temp\ccxEGDhx.s:448    .text.check_40mhz_5g:0000000000000000 .L0 
C:\Users\stapi\AppData\Local\Temp\ccxEGDhx.s:449    .text.check_40mhz_5g:0000000000000000 .L0 
C:\Users\stapi\AppData\Local\Temp\ccxEGDhx.s:450    .text.check_40mhz_5g:0000000000000000 .L0 
C:\Users\stapi\AppData\Local\Temp\ccxEGDhx.s:451    .text.check_40mhz_5g:0000000000000000 .L0 
C:\Users\stapi\AppData\Local\Temp\ccxEGDhx.s:452    .text.check_40mhz_5g:0000000000000000 .L0 
C:\Users\stapi\AppData\Local\Temp\ccxEGDhx.s:453    .text.check_40mhz_5g:0000000000000000 .L0 
C:\Users\stapi\AppData\Local\Temp\ccxEGDhx.s:455    .text.check_40mhz_5g:0000000000000004 .L0 
C:\Users\stapi\AppData\Local\Temp\ccxEGDhx.s:456    .text.check_40mhz_5g:000000000000000c .L0 
C:\Users\stapi\AppData\Local\Temp\ccxEGDhx.s:457    .text.check_40mhz_5g:000000000000000c .L0 
C:\Users\stapi\AppData\Local\Temp\ccxEGDhx.s:458    .text.check_40mhz_5g:000000000000000c .L0 
C:\Users\stapi\AppData\Local\Temp\ccxEGDhx.s:459    .text.check_40mhz_5g:000000000000000c .L0 
C:\Users\stapi\AppData\Local\Temp\ccxEGDhx.s:460    .text.check_40mhz_5g:000000000000000c .L0 
C:\Users\stapi\AppData\Local\Temp\ccxEGDhx.s:461    .text.check_40mhz_5g:000000000000000c .L0 
C:\Users\stapi\AppData\Local\Temp\ccxEGDhx.s:462    .text.check_40mhz_5g:000000000000000c .L0 
C:\Users\stapi\AppData\Local\Temp\ccxEGDhx.s:465    .text.check_40mhz_5g:0000000000000010 .L0 
C:\Users\stapi\AppData\Local\Temp\ccxEGDhx.s:468    .text.check_40mhz_5g:0000000000000012 .L0 
C:\Users\stapi\AppData\Local\Temp\ccxEGDhx.s:471    .text.check_40mhz_5g:0000000000000014 .L0 
C:\Users\stapi\AppData\Local\Temp\ccxEGDhx.s:474    .text.check_40mhz_5g:0000000000000018 .L0 
C:\Users\stapi\AppData\Local\Temp\ccxEGDhx.s:476    .text.check_40mhz_5g:000000000000001a .L0 
C:\Users\stapi\AppData\Local\Temp\ccxEGDhx.s:479    .text.check_40mhz_5g:000000000000001c .L0 
C:\Users\stapi\AppData\Local\Temp\ccxEGDhx.s:481    .text.check_40mhz_5g:0000000000000020 .L0 
C:\Users\stapi\AppData\Local\Temp\ccxEGDhx.s:483    .text.check_40mhz_5g:0000000000000024 .L0 
C:\Users\stapi\AppData\Local\Temp\ccxEGDhx.s:485    .text.check_40mhz_5g:0000000000000026 .L0 
C:\Users\stapi\AppData\Local\Temp\ccxEGDhx.s:487    .text.check_40mhz_5g:0000000000000028 .L0 
C:\Users\stapi\AppData\Local\Temp\ccxEGDhx.s:489    .text.check_40mhz_5g:000000000000002a .L0 
C:\Users\stapi\AppData\Local\Temp\ccxEGDhx.s:493    .text.check_40mhz_5g:000000000000002c .L0 
C:\Users\stapi\AppData\Local\Temp\ccxEGDhx.s:494    .text.check_40mhz_5g:000000000000002c .L0 
C:\Users\stapi\AppData\Local\Temp\ccxEGDhx.s:496    .text.check_40mhz_5g:0000000000000030 .L0 
C:\Users\stapi\AppData\Local\Temp\ccxEGDhx.s:498    .text.check_40mhz_5g:0000000000000032 .L0 
C:\Users\stapi\AppData\Local\Temp\ccxEGDhx.s:500    .text.check_40mhz_5g:0000000000000034 .L0 
C:\Users\stapi\AppData\Local\Temp\ccxEGDhx.s:502    .text.check_40mhz_5g:0000000000000036 .L0 
C:\Users\stapi\AppData\Local\Temp\ccxEGDhx.s:510    .text.check_40mhz_5g:0000000000000048 .L0 
C:\Users\stapi\AppData\Local\Temp\ccxEGDhx.s:511    .text.check_40mhz_5g:0000000000000048 .L0 
C:\Users\stapi\AppData\Local\Temp\ccxEGDhx.s:512    .text.check_40mhz_5g:0000000000000048 .L0 
C:\Users\stapi\AppData\Local\Temp\ccxEGDhx.s:519    .text.check_40mhz_5g:000000000000004c .L0 
C:\Users\stapi\AppData\Local\Temp\ccxEGDhx.s:520    .text.check_40mhz_5g:000000000000004c .L0 
C:\Users\stapi\AppData\Local\Temp\ccxEGDhx.s:521    .text.check_40mhz_5g:000000000000004c .L0 
C:\Users\stapi\AppData\Local\Temp\ccxEGDhx.s:525    .text.check_40mhz_5g:0000000000000052 .L0 
C:\Users\stapi\AppData\Local\Temp\ccxEGDhx.s:530    .text.check_40mhz_5g:0000000000000056 .L0 
C:\Users\stapi\AppData\Local\Temp\ccxEGDhx.s:532    .text.check_40mhz_5g:000000000000005a .L0 
C:\Users\stapi\AppData\Local\Temp\ccxEGDhx.s:533    .text.check_40mhz_5g:000000000000005a .L0 
C:\Users\stapi\AppData\Local\Temp\ccxEGDhx.s:538    .text.check_40mhz_5g:000000000000005c .L0 
C:\Users\stapi\AppData\Local\Temp\ccxEGDhx.s:539    .text.check_40mhz_5g:000000000000005c .L0 
C:\Users\stapi\AppData\Local\Temp\ccxEGDhx.s:546    .text.check_40mhz_5g:0000000000000060 .L0 
C:\Users\stapi\AppData\Local\Temp\ccxEGDhx.s:547    .text.check_40mhz_5g:0000000000000060 .L0 
C:\Users\stapi\AppData\Local\Temp\ccxEGDhx.s:549    .text.check_40mhz_5g:0000000000000064 .L0 
C:\Users\stapi\AppData\Local\Temp\ccxEGDhx.s:550    .text.check_40mhz_5g:0000000000000064 .L0 
C:\Users\stapi\AppData\Local\Temp\ccxEGDhx.s:558    .text.check_40mhz_5g:0000000000000068 .L0 
C:\Users\stapi\AppData\Local\Temp\ccxEGDhx.s:559    .text.check_40mhz_5g:0000000000000068 .L0 
C:\Users\stapi\AppData\Local\Temp\ccxEGDhx.s:560    .text.check_40mhz_5g:0000000000000068 .L0 
C:\Users\stapi\AppData\Local\Temp\ccxEGDhx.s:562    .text.check_40mhz_5g:000000000000006a .L0 
C:\Users\stapi\AppData\Local\Temp\ccxEGDhx.s:565    .text.check_40mhz_5g:000000000000006e .L0 
C:\Users\stapi\AppData\Local\Temp\ccxEGDhx.s:568    .text.check_40mhz_5g:0000000000000072 .L0 
C:\Users\stapi\AppData\Local\Temp\ccxEGDhx.s:572    .text.check_40mhz_5g:000000000000007c .L0 
C:\Users\stapi\AppData\Local\Temp\ccxEGDhx.s:573    .text.check_40mhz_5g:000000000000007c .L0 
C:\Users\stapi\AppData\Local\Temp\ccxEGDhx.s:575    .text.check_40mhz_5g:000000000000007e .L0 
C:\Users\stapi\AppData\Local\Temp\ccxEGDhx.s:577    .text.check_40mhz_5g:0000000000000082 .L0 
C:\Users\stapi\AppData\Local\Temp\ccxEGDhx.s:579    .text.check_40mhz_5g:0000000000000086 .L0 
C:\Users\stapi\AppData\Local\Temp\ccxEGDhx.s:581    .text.check_40mhz_5g:0000000000000088 .L0 
C:\Users\stapi\AppData\Local\Temp\ccxEGDhx.s:583    .text.check_40mhz_5g:000000000000008c .L0 
C:\Users\stapi\AppData\Local\Temp\ccxEGDhx.s:588    .text.check_40mhz_5g:0000000000000090 .L0 
C:\Users\stapi\AppData\Local\Temp\ccxEGDhx.s:592    .text.check_40mhz_5g:0000000000000092 .L0 
C:\Users\stapi\AppData\Local\Temp\ccxEGDhx.s:593    .text.check_40mhz_5g:0000000000000094 .L0 
C:\Users\stapi\AppData\Local\Temp\ccxEGDhx.s:594    .text.check_40mhz_5g:0000000000000094 .L0 
C:\Users\stapi\AppData\Local\Temp\ccxEGDhx.s:596    .text.check_40mhz_5g:000000000000009c .L0 
C:\Users\stapi\AppData\Local\Temp\ccxEGDhx.s:597    .text.check_40mhz_5g:000000000000009c .L0 
C:\Users\stapi\AppData\Local\Temp\ccxEGDhx.s:598    .text.check_40mhz_5g:000000000000009c .L0 
C:\Users\stapi\AppData\Local\Temp\ccxEGDhx.s:599    .text.check_40mhz_5g:000000000000009c .L0 
C:\Users\stapi\AppData\Local\Temp\ccxEGDhx.s:600    .text.check_40mhz_5g:000000000000009c .L0 
C:\Users\stapi\AppData\Local\Temp\ccxEGDhx.s:601    .text.check_40mhz_5g:000000000000009c .L0 
C:\Users\stapi\AppData\Local\Temp\ccxEGDhx.s:602    .text.check_40mhz_5g:000000000000009c .L0 
C:\Users\stapi\AppData\Local\Temp\ccxEGDhx.s:605    .text.check_40mhz_5g:000000000000009c .L0 
C:\Users\stapi\AppData\Local\Temp\ccxEGDhx.s:607    .text.check_40mhz_5g:000000000000009c .L0 
C:\Users\stapi\AppData\Local\Temp\ccxEGDhx.s:608    .text.check_40mhz_5g:000000000000009c .L0 
C:\Users\stapi\AppData\Local\Temp\ccxEGDhx.s:612    .text.check_40mhz_5g:000000000000009e .L0 
C:\Users\stapi\AppData\Local\Temp\ccxEGDhx.s:613    .text.check_40mhz_5g:000000000000009e .L0 
C:\Users\stapi\AppData\Local\Temp\ccxEGDhx.s:619    .text.check_40mhz_5g:00000000000000a6 .L0 
C:\Users\stapi\AppData\Local\Temp\ccxEGDhx.s:620    .text.check_40mhz_5g:00000000000000a6 .L0 
C:\Users\stapi\AppData\Local\Temp\ccxEGDhx.s:624    .text.check_40mhz_5g:00000000000000ac .L0 
C:\Users\stapi\AppData\Local\Temp\ccxEGDhx.s:625    .text.check_40mhz_5g:00000000000000ac .L0 
C:\Users\stapi\AppData\Local\Temp\ccxEGDhx.s:627    .text.check_40mhz_5g:00000000000000ae .L0 
C:\Users\stapi\AppData\Local\Temp\ccxEGDhx.s:630    .text.check_40mhz_5g:00000000000000b2 .L0 
C:\Users\stapi\AppData\Local\Temp\ccxEGDhx.s:634    .text.check_40mhz_5g:00000000000000b8 .L0 
C:\Users\stapi\AppData\Local\Temp\ccxEGDhx.s:638    .text.check_40mhz_5g:00000000000000c2 .L0 
C:\Users\stapi\AppData\Local\Temp\ccxEGDhx.s:639    .text.check_40mhz_5g:00000000000000c2 .L0 
C:\Users\stapi\AppData\Local\Temp\ccxEGDhx.s:641    .text.check_40mhz_5g:00000000000000c4 .L0 
C:\Users\stapi\AppData\Local\Temp\ccxEGDhx.s:643    .text.check_40mhz_5g:00000000000000c8 .L0 
C:\Users\stapi\AppData\Local\Temp\ccxEGDhx.s:645    .text.check_40mhz_5g:00000000000000cc .L0 
C:\Users\stapi\AppData\Local\Temp\ccxEGDhx.s:647    .text.check_40mhz_5g:00000000000000ce .L0 
C:\Users\stapi\AppData\Local\Temp\ccxEGDhx.s:649    .text.check_40mhz_5g:00000000000000d2 .L0 
C:\Users\stapi\AppData\Local\Temp\ccxEGDhx.s:651    .text.check_40mhz_5g:00000000000000d6 .L0 
C:\Users\stapi\AppData\Local\Temp\ccxEGDhx.s:666    .text.check_40mhz_5g:0000000000000102 .L0 
C:\Users\stapi\AppData\Local\Temp\ccxEGDhx.s:667    .text.check_40mhz_5g:0000000000000102 .L0 
C:\Users\stapi\AppData\Local\Temp\ccxEGDhx.s:672    .text.check_40mhz_5g:0000000000000106 .L0 
C:\Users\stapi\AppData\Local\Temp\ccxEGDhx.s:673    .text.check_40mhz_5g:0000000000000106 .L0 
C:\Users\stapi\AppData\Local\Temp\ccxEGDhx.s:674    .text.check_40mhz_5g:0000000000000106 .L0 
C:\Users\stapi\AppData\Local\Temp\ccxEGDhx.s:675    .text.check_40mhz_5g:0000000000000106 .L0 
C:\Users\stapi\AppData\Local\Temp\ccxEGDhx.s:676    .text.check_40mhz_5g:0000000000000106 .L0 
C:\Users\stapi\AppData\Local\Temp\ccxEGDhx.s:677    .text.check_40mhz_5g:0000000000000106 .L0 
C:\Users\stapi\AppData\Local\Temp\ccxEGDhx.s:678    .text.check_40mhz_5g:0000000000000106 .L0 
C:\Users\stapi\AppData\Local\Temp\ccxEGDhx.s:680    .text.check_40mhz_5g:0000000000000106 .L0 
C:\Users\stapi\AppData\Local\Temp\ccxEGDhx.s:683    .text.check_40mhz_5g:0000000000000108 .L0 
C:\Users\stapi\AppData\Local\Temp\ccxEGDhx.s:684    .text.check_40mhz_5g:000000000000010a .L0 
C:\Users\stapi\AppData\Local\Temp\ccxEGDhx.s:713    .text.check_40mhz_2g4:0000000000000000 check_40mhz_2g4
C:\Users\stapi\AppData\Local\Temp\ccxEGDhx.s:716    .text.check_40mhz_2g4:0000000000000000 .L0 
C:\Users\stapi\AppData\Local\Temp\ccxEGDhx.s:718    .text.check_40mhz_2g4:0000000000000000 .L0 
C:\Users\stapi\AppData\Local\Temp\ccxEGDhx.s:719    .text.check_40mhz_2g4:0000000000000008 .L0 
C:\Users\stapi\AppData\Local\Temp\ccxEGDhx.s:720    .text.check_40mhz_2g4:0000000000000008 .L0 
C:\Users\stapi\AppData\Local\Temp\ccxEGDhx.s:721    .text.check_40mhz_2g4:0000000000000008 .L0 
C:\Users\stapi\AppData\Local\Temp\ccxEGDhx.s:722    .text.check_40mhz_2g4:0000000000000008 .L0 
C:\Users\stapi\AppData\Local\Temp\ccxEGDhx.s:723    .text.check_40mhz_2g4:0000000000000008 .L0 
C:\Users\stapi\AppData\Local\Temp\ccxEGDhx.s:724    .text.check_40mhz_2g4:0000000000000008 .L0 
C:\Users\stapi\AppData\Local\Temp\ccxEGDhx.s:725    .text.check_40mhz_2g4:0000000000000008 .L0 
C:\Users\stapi\AppData\Local\Temp\ccxEGDhx.s:726    .text.check_40mhz_2g4:0000000000000008 .L0 
C:\Users\stapi\AppData\Local\Temp\ccxEGDhx.s:727    .text.check_40mhz_2g4:0000000000000008 .L0 
C:\Users\stapi\AppData\Local\Temp\ccxEGDhx.s:728    .text.check_40mhz_2g4:0000000000000008 .L0 
C:\Users\stapi\AppData\Local\Temp\ccxEGDhx.s:729    .text.check_40mhz_2g4:0000000000000008 .L0 
C:\Users\stapi\AppData\Local\Temp\ccxEGDhx.s:730    .text.check_40mhz_2g4:0000000000000008 .L0 
C:\Users\stapi\AppData\Local\Temp\ccxEGDhx.s:731    .text.check_40mhz_2g4:0000000000000008 .L0 
C:\Users\stapi\AppData\Local\Temp\ccxEGDhx.s:733    .text.check_40mhz_2g4:0000000000000008 .L0 
C:\Users\stapi\AppData\Local\Temp\ccxEGDhx.s:734    .text.check_40mhz_2g4:0000000000000008 .L0 
C:\Users\stapi\AppData\Local\Temp\ccxEGDhx.s:735    .text.check_40mhz_2g4:0000000000000008 .L0 
C:\Users\stapi\AppData\Local\Temp\ccxEGDhx.s:736    .text.check_40mhz_2g4:0000000000000008 .L0 
C:\Users\stapi\AppData\Local\Temp\ccxEGDhx.s:737    .text.check_40mhz_2g4:0000000000000008 .L0 
C:\Users\stapi\AppData\Local\Temp\ccxEGDhx.s:738    .text.check_40mhz_2g4:000000000000000a .L0 
C:\Users\stapi\AppData\Local\Temp\ccxEGDhx.s:740    .text.check_40mhz_2g4:000000000000000a .L0 
C:\Users\stapi\AppData\Local\Temp\ccxEGDhx.s:743    .text.check_40mhz_2g4:000000000000000e .L0 
C:\Users\stapi\AppData\Local\Temp\ccxEGDhx.s:746    .text.check_40mhz_2g4:0000000000000012 .L0 
C:\Users\stapi\AppData\Local\Temp\ccxEGDhx.s:749    .text.check_40mhz_2g4:0000000000000014 .L0 
C:\Users\stapi\AppData\Local\Temp\ccxEGDhx.s:751    .text.check_40mhz_2g4:0000000000000018 .L0 
C:\Users\stapi\AppData\Local\Temp\ccxEGDhx.s:753    .text.check_40mhz_2g4:000000000000001a .L0 
C:\Users\stapi\AppData\Local\Temp\ccxEGDhx.s:755    .text.check_40mhz_2g4:000000000000001c .L0 
C:\Users\stapi\AppData\Local\Temp\ccxEGDhx.s:757    .text.check_40mhz_2g4:000000000000001e .L0 
C:\Users\stapi\AppData\Local\Temp\ccxEGDhx.s:760    .text.check_40mhz_2g4:0000000000000024 .L0 
C:\Users\stapi\AppData\Local\Temp\ccxEGDhx.s:761    .text.check_40mhz_2g4:0000000000000024 .L0 
C:\Users\stapi\AppData\Local\Temp\ccxEGDhx.s:764    .text.check_40mhz_2g4:000000000000002c .L0 
C:\Users\stapi\AppData\Local\Temp\ccxEGDhx.s:766    .text.check_40mhz_2g4:000000000000002e .L0 
C:\Users\stapi\AppData\Local\Temp\ccxEGDhx.s:769    .text.check_40mhz_2g4:0000000000000030 .L0 
C:\Users\stapi\AppData\Local\Temp\ccxEGDhx.s:770    .text.check_40mhz_2g4:0000000000000030 .L0 
C:\Users\stapi\AppData\Local\Temp\ccxEGDhx.s:775    .text.check_40mhz_2g4:000000000000003a .L0 
C:\Users\stapi\AppData\Local\Temp\ccxEGDhx.s:777    .text.check_40mhz_2g4:000000000000003e .L0 
C:\Users\stapi\AppData\Local\Temp\ccxEGDhx.s:780    .text.check_40mhz_2g4:0000000000000044 .L0 
C:\Users\stapi\AppData\Local\Temp\ccxEGDhx.s:782    .text.check_40mhz_2g4:0000000000000048 .L0 
C:\Users\stapi\AppData\Local\Temp\ccxEGDhx.s:785    .text.check_40mhz_2g4:000000000000004a .L0 
C:\Users\stapi\AppData\Local\Temp\ccxEGDhx.s:786    .text.check_40mhz_2g4:000000000000004a .L0 
C:\Users\stapi\AppData\Local\Temp\ccxEGDhx.s:790    .text.check_40mhz_2g4:0000000000000050 .L0 
C:\Users\stapi\AppData\Local\Temp\ccxEGDhx.s:793    .text.check_40mhz_2g4:0000000000000052 .L0 
C:\Users\stapi\AppData\Local\Temp\ccxEGDhx.s:796    .text.check_40mhz_2g4:0000000000000056 .L0 
C:\Users\stapi\AppData\Local\Temp\ccxEGDhx.s:800    .text.check_40mhz_2g4:0000000000000058 .L0 
C:\Users\stapi\AppData\Local\Temp\ccxEGDhx.s:803    .text.check_40mhz_2g4:000000000000005c .L0 
C:\Users\stapi\AppData\Local\Temp\ccxEGDhx.s:804    .text.check_40mhz_2g4:000000000000005c .L0 
C:\Users\stapi\AppData\Local\Temp\ccxEGDhx.s:807    .text.check_40mhz_2g4:000000000000005e .L0 
C:\Users\stapi\AppData\Local\Temp\ccxEGDhx.s:813    .text.check_40mhz_2g4:000000000000006a .L0 
C:\Users\stapi\AppData\Local\Temp\ccxEGDhx.s:814    .text.check_40mhz_2g4:000000000000006a .L0 
C:\Users\stapi\AppData\Local\Temp\ccxEGDhx.s:815    .text.check_40mhz_2g4:000000000000006a .L0 
C:\Users\stapi\AppData\Local\Temp\ccxEGDhx.s:818    .text.check_40mhz_2g4:0000000000000072 .L0 
C:\Users\stapi\AppData\Local\Temp\ccxEGDhx.s:822    .text.check_40mhz_2g4:0000000000000074 .L0 
C:\Users\stapi\AppData\Local\Temp\ccxEGDhx.s:824    .text.check_40mhz_2g4:0000000000000078 .L0 
C:\Users\stapi\AppData\Local\Temp\ccxEGDhx.s:825    .text.check_40mhz_2g4:0000000000000078 .L0 
C:\Users\stapi\AppData\Local\Temp\ccxEGDhx.s:827    .text.check_40mhz_2g4:0000000000000080 .L0 
C:\Users\stapi\AppData\Local\Temp\ccxEGDhx.s:828    .text.check_40mhz_2g4:0000000000000080 .L0 
C:\Users\stapi\AppData\Local\Temp\ccxEGDhx.s:829    .text.check_40mhz_2g4:0000000000000080 .L0 
C:\Users\stapi\AppData\Local\Temp\ccxEGDhx.s:830    .text.check_40mhz_2g4:0000000000000080 .L0 
C:\Users\stapi\AppData\Local\Temp\ccxEGDhx.s:831    .text.check_40mhz_2g4:0000000000000080 .L0 
C:\Users\stapi\AppData\Local\Temp\ccxEGDhx.s:832    .text.check_40mhz_2g4:0000000000000080 .L0 
C:\Users\stapi\AppData\Local\Temp\ccxEGDhx.s:833    .text.check_40mhz_2g4:0000000000000080 .L0 
C:\Users\stapi\AppData\Local\Temp\ccxEGDhx.s:834    .text.check_40mhz_2g4:0000000000000080 .L0 
C:\Users\stapi\AppData\Local\Temp\ccxEGDhx.s:835    .text.check_40mhz_2g4:0000000000000080 .L0 
C:\Users\stapi\AppData\Local\Temp\ccxEGDhx.s:836    .text.check_40mhz_2g4:0000000000000080 .L0 
C:\Users\stapi\AppData\Local\Temp\ccxEGDhx.s:837    .text.check_40mhz_2g4:0000000000000080 .L0 
C:\Users\stapi\AppData\Local\Temp\ccxEGDhx.s:838    .text.check_40mhz_2g4:0000000000000080 .L0 
C:\Users\stapi\AppData\Local\Temp\ccxEGDhx.s:839    .text.check_40mhz_2g4:0000000000000080 .L0 
C:\Users\stapi\AppData\Local\Temp\ccxEGDhx.s:842    .text.check_40mhz_2g4:0000000000000080 .L0 
C:\Users\stapi\AppData\Local\Temp\ccxEGDhx.s:845    .text.check_40mhz_2g4:0000000000000080 .L0 
C:\Users\stapi\AppData\Local\Temp\ccxEGDhx.s:846    .text.check_40mhz_2g4:0000000000000080 .L0 
C:\Users\stapi\AppData\Local\Temp\ccxEGDhx.s:851    .text.check_40mhz_2g4:000000000000008a .L0 
C:\Users\stapi\AppData\Local\Temp\ccxEGDhx.s:852    .text.check_40mhz_2g4:000000000000008a .L0 
C:\Users\stapi\AppData\Local\Temp\ccxEGDhx.s:855    .text.check_40mhz_2g4:000000000000008c .L0 
C:\Users\stapi\AppData\Local\Temp\ccxEGDhx.s:856    .text.check_40mhz_2g4:000000000000008c .L0 
C:\Users\stapi\AppData\Local\Temp\ccxEGDhx.s:859    .text.check_40mhz_2g4:000000000000008c .L0 
C:\Users\stapi\AppData\Local\Temp\ccxEGDhx.s:860    .text.check_40mhz_2g4:000000000000008c .L0 
C:\Users\stapi\AppData\Local\Temp\ccxEGDhx.s:861    .text.check_40mhz_2g4:000000000000008c .L0 
C:\Users\stapi\AppData\Local\Temp\ccxEGDhx.s:862    .text.check_40mhz_2g4:000000000000008c .L0 
C:\Users\stapi\AppData\Local\Temp\ccxEGDhx.s:863    .text.check_40mhz_2g4:000000000000008c .L0 
C:\Users\stapi\AppData\Local\Temp\ccxEGDhx.s:869    .text.check_40mhz_2g4:0000000000000090 .L0 
C:\Users\stapi\AppData\Local\Temp\ccxEGDhx.s:875    .text.check_40mhz_2g4:000000000000009e .L0 
C:\Users\stapi\AppData\Local\Temp\ccxEGDhx.s:876    .text.check_40mhz_2g4:000000000000009e .L0 
C:\Users\stapi\AppData\Local\Temp\ccxEGDhx.s:878    .text.check_40mhz_2g4:00000000000000a0 .L0 
C:\Users\stapi\AppData\Local\Temp\ccxEGDhx.s:880    .text.check_40mhz_2g4:00000000000000a2 .L0 
C:\Users\stapi\AppData\Local\Temp\ccxEGDhx.s:881    .text.check_40mhz_2g4:00000000000000a2 .L0 
C:\Users\stapi\AppData\Local\Temp\ccxEGDhx.s:883    .text.check_40mhz_2g4:00000000000000a6 .L0 
C:\Users\stapi\AppData\Local\Temp\ccxEGDhx.s:885    .text.check_40mhz_2g4:00000000000000aa .L0 
C:\Users\stapi\AppData\Local\Temp\ccxEGDhx.s:892    .text.check_40mhz_2g4:00000000000000ae .L0 
C:\Users\stapi\AppData\Local\Temp\ccxEGDhx.s:894    .text.check_40mhz_2g4:00000000000000b2 .L0 
C:\Users\stapi\AppData\Local\Temp\ccxEGDhx.s:896    .text.check_40mhz_2g4:00000000000000b6 .L0 
C:\Users\stapi\AppData\Local\Temp\ccxEGDhx.s:903    .text.check_40mhz_2g4:00000000000000c8 .L0 
C:\Users\stapi\AppData\Local\Temp\ccxEGDhx.s:904    .text.check_40mhz_2g4:00000000000000c8 .L0 
C:\Users\stapi\AppData\Local\Temp\ccxEGDhx.s:907    .text.check_40mhz_2g4:00000000000000cc .L0 
C:\Users\stapi\AppData\Local\Temp\ccxEGDhx.s:919    .text.check_40mhz_2g4:00000000000000f0 .L0 
C:\Users\stapi\AppData\Local\Temp\ccxEGDhx.s:925    .text.check_40mhz_2g4:00000000000000fa .L0 
C:\Users\stapi\AppData\Local\Temp\ccxEGDhx.s:926    .text.check_40mhz_2g4:00000000000000fa .L0 
C:\Users\stapi\AppData\Local\Temp\ccxEGDhx.s:934    .text.check_40mhz_2g4:000000000000010c .L0 
C:\Users\stapi\AppData\Local\Temp\ccxEGDhx.s:935    .text.check_40mhz_2g4:000000000000010c .L0 
C:\Users\stapi\AppData\Local\Temp\ccxEGDhx.s:943    .text.check_40mhz_2g4:0000000000000110 .L0 
C:\Users\stapi\AppData\Local\Temp\ccxEGDhx.s:944    .text.check_40mhz_2g4:0000000000000110 .L0 
C:\Users\stapi\AppData\Local\Temp\ccxEGDhx.s:946    .text.check_40mhz_2g4:0000000000000112 .L0 
C:\Users\stapi\AppData\Local\Temp\ccxEGDhx.s:949    .text.check_40mhz_2g4:0000000000000114 .L0 
C:\Users\stapi\AppData\Local\Temp\ccxEGDhx.s:950    .text.check_40mhz_2g4:0000000000000114 .L0 
C:\Users\stapi\AppData\Local\Temp\ccxEGDhx.s:951    .text.check_40mhz_2g4:0000000000000114 .L0 
C:\Users\stapi\AppData\Local\Temp\ccxEGDhx.s:956    .text.check_40mhz_2g4:000000000000011c .L0 
C:\Users\stapi\AppData\Local\Temp\ccxEGDhx.s:972    .text.check_40mhz_2g4:0000000000000142 .L0 
C:\Users\stapi\AppData\Local\Temp\ccxEGDhx.s:973    .text.check_40mhz_2g4:0000000000000142 .L0 
C:\Users\stapi\AppData\Local\Temp\ccxEGDhx.s:975    .text.check_40mhz_2g4:0000000000000144 .L0 
C:\Users\stapi\AppData\Local\Temp\ccxEGDhx.s:977    .text.check_40mhz_2g4:0000000000000148 .L0 
C:\Users\stapi\AppData\Local\Temp\ccxEGDhx.s:979    .text.check_40mhz_2g4:000000000000014c .L0 
C:\Users\stapi\AppData\Local\Temp\ccxEGDhx.s:980    .text.check_40mhz_2g4:000000000000014c .L0 
C:\Users\stapi\AppData\Local\Temp\ccxEGDhx.s:984    .text.check_40mhz_2g4:0000000000000150 .L0 
C:\Users\stapi\AppData\Local\Temp\ccxEGDhx.s:985    .text.check_40mhz_2g4:0000000000000150 .L0 
C:\Users\stapi\AppData\Local\Temp\ccxEGDhx.s:987    .text.check_40mhz_2g4:0000000000000154 .L0 
C:\Users\stapi\AppData\Local\Temp\ccxEGDhx.s:990    .text.check_40mhz_2g4:0000000000000158 .L0 
C:\Users\stapi\AppData\Local\Temp\ccxEGDhx.s:995    .text.check_40mhz_2g4:000000000000015c .L0 
C:\Users\stapi\AppData\Local\Temp\ccxEGDhx.s:996    .text.check_40mhz_2g4:000000000000015c .L0 
C:\Users\stapi\AppData\Local\Temp\ccxEGDhx.s:997    .text.check_40mhz_2g4:000000000000015c .L0 
C:\Users\stapi\AppData\Local\Temp\ccxEGDhx.s:1004   .text.check_40mhz_2g4:0000000000000160 .L0 
C:\Users\stapi\AppData\Local\Temp\ccxEGDhx.s:1007   .text.check_40mhz_2g4:0000000000000164 .L0 
C:\Users\stapi\AppData\Local\Temp\ccxEGDhx.s:1023   .text.check_40mhz_2g4:0000000000000194 .L0 
C:\Users\stapi\AppData\Local\Temp\ccxEGDhx.s:1024   .text.check_40mhz_2g4:0000000000000194 .L0 
C:\Users\stapi\AppData\Local\Temp\ccxEGDhx.s:1027   .text.check_40mhz_2g4:0000000000000198 .L0 
C:\Users\stapi\AppData\Local\Temp\ccxEGDhx.s:1028   .text.check_40mhz_2g4:0000000000000198 .L0 
C:\Users\stapi\AppData\Local\Temp\ccxEGDhx.s:1030   .text.check_40mhz_2g4:000000000000019c .L0 
C:\Users\stapi\AppData\Local\Temp\ccxEGDhx.s:1033   .text.check_40mhz_2g4:00000000000001a0 .L0 
C:\Users\stapi\AppData\Local\Temp\ccxEGDhx.s:1045   .text.check_40mhz_2g4:00000000000001c6 .L0 
C:\Users\stapi\AppData\Local\Temp\ccxEGDhx.s:1057   .text.check_40mhz_2g4:00000000000001e4 .L0 
C:\Users\stapi\AppData\Local\Temp\ccxEGDhx.s:1058   .text.check_40mhz_2g4:00000000000001e4 .L0 
C:\Users\stapi\AppData\Local\Temp\ccxEGDhx.s:1061   .text.check_40mhz_2g4:00000000000001e6 .L0 
C:\Users\stapi\AppData\Local\Temp\ccxEGDhx.s:1068   .text.check_40mhz_2g4:00000000000001f8 .L0 
C:\Users\stapi\AppData\Local\Temp\ccxEGDhx.s:1069   .text.check_40mhz_2g4:00000000000001f8 .L0 
C:\Users\stapi\AppData\Local\Temp\ccxEGDhx.s:1071   .text.check_40mhz_2g4:00000000000001fa .L0 
C:\Users\stapi\AppData\Local\Temp\ccxEGDhx.s:1075   .text.check_40mhz_2g4:00000000000001fc .L0 
C:\Users\stapi\AppData\Local\Temp\ccxEGDhx.s:1076   .text.check_40mhz_2g4:00000000000001fc .L0 
C:\Users\stapi\AppData\Local\Temp\ccxEGDhx.s:1077   .text.check_40mhz_2g4:00000000000001fc .L0 
C:\Users\stapi\AppData\Local\Temp\ccxEGDhx.s:1082   .text.check_40mhz_2g4:0000000000000208 .L0 
C:\Users\stapi\AppData\Local\Temp\ccxEGDhx.s:1085   .text.check_40mhz_2g4:000000000000020e .L0 
C:\Users\stapi\AppData\Local\Temp\ccxEGDhx.s:1100   .text.check_40mhz_2g4:000000000000023c .L0 
C:\Users\stapi\AppData\Local\Temp\ccxEGDhx.s:1101   .text.check_40mhz_2g4:000000000000023c .L0 
C:\Users\stapi\AppData\Local\Temp\ccxEGDhx.s:1104   .text.check_40mhz_2g4:000000000000023e .L0 
C:\Users\stapi\AppData\Local\Temp\ccxEGDhx.s:1157   .text.hostapd_set_freq_params:0000000000000000 hostapd_set_freq_params
C:\Users\stapi\AppData\Local\Temp\ccxEGDhx.s:1160   .text.hostapd_set_freq_params:0000000000000000 .L0 
C:\Users\stapi\AppData\Local\Temp\ccxEGDhx.s:1162   .text.hostapd_set_freq_params:0000000000000000 .L0 
C:\Users\stapi\AppData\Local\Temp\ccxEGDhx.s:1163   .text.hostapd_set_freq_params:0000000000000008 .L0 
C:\Users\stapi\AppData\Local\Temp\ccxEGDhx.s:1164   .text.hostapd_set_freq_params:0000000000000008 .L0 
C:\Users\stapi\AppData\Local\Temp\ccxEGDhx.s:1165   .text.hostapd_set_freq_params:0000000000000008 .L0 
C:\Users\stapi\AppData\Local\Temp\ccxEGDhx.s:1166   .text.hostapd_set_freq_params:0000000000000008 .L0 
C:\Users\stapi\AppData\Local\Temp\ccxEGDhx.s:1167   .text.hostapd_set_freq_params:0000000000000008 .L0 
C:\Users\stapi\AppData\Local\Temp\ccxEGDhx.s:1168   .text.hostapd_set_freq_params:0000000000000008 .L0 
C:\Users\stapi\AppData\Local\Temp\ccxEGDhx.s:1169   .text.hostapd_set_freq_params:0000000000000008 .L0 
C:\Users\stapi\AppData\Local\Temp\ccxEGDhx.s:1170   .text.hostapd_set_freq_params:0000000000000008 .L0 
C:\Users\stapi\AppData\Local\Temp\ccxEGDhx.s:1171   .text.hostapd_set_freq_params:0000000000000008 .L0 
C:\Users\stapi\AppData\Local\Temp\ccxEGDhx.s:1172   .text.hostapd_set_freq_params:0000000000000008 .L0 
C:\Users\stapi\AppData\Local\Temp\ccxEGDhx.s:1173   .text.hostapd_set_freq_params:0000000000000008 .L0 
C:\Users\stapi\AppData\Local\Temp\ccxEGDhx.s:1174   .text.hostapd_set_freq_params:0000000000000008 .L0 
C:\Users\stapi\AppData\Local\Temp\ccxEGDhx.s:1175   .text.hostapd_set_freq_params:0000000000000008 .L0 
C:\Users\stapi\AppData\Local\Temp\ccxEGDhx.s:1176   .text.hostapd_set_freq_params:0000000000000008 .L0 
C:\Users\stapi\AppData\Local\Temp\ccxEGDhx.s:1178   .text.hostapd_set_freq_params:0000000000000008 .L0 
C:\Users\stapi\AppData\Local\Temp\ccxEGDhx.s:1179   .text.hostapd_set_freq_params:0000000000000008 .L0 
C:\Users\stapi\AppData\Local\Temp\ccxEGDhx.s:1180   .text.hostapd_set_freq_params:000000000000000a .L0 
C:\Users\stapi\AppData\Local\Temp\ccxEGDhx.s:1182   .text.hostapd_set_freq_params:000000000000000a .L0 
C:\Users\stapi\AppData\Local\Temp\ccxEGDhx.s:1195   .text.hostapd_set_freq_params:0000000000000022 .L0 
C:\Users\stapi\AppData\Local\Temp\ccxEGDhx.s:1197   .text.hostapd_set_freq_params:0000000000000026 .L0 
C:\Users\stapi\AppData\Local\Temp\ccxEGDhx.s:1202   .text.hostapd_set_freq_params:000000000000002c .L0 
C:\Users\stapi\AppData\Local\Temp\ccxEGDhx.s:1211   .text.hostapd_set_freq_params:0000000000000036 .L0 
C:\Users\stapi\AppData\Local\Temp\ccxEGDhx.s:1214   .text.hostapd_set_freq_params:000000000000003e .L0 
C:\Users\stapi\AppData\Local\Temp\ccxEGDhx.s:1215   .text.hostapd_set_freq_params:000000000000003e .L0 
C:\Users\stapi\AppData\Local\Temp\ccxEGDhx.s:1217   .text.hostapd_set_freq_params:0000000000000040 .L0 
C:\Users\stapi\AppData\Local\Temp\ccxEGDhx.s:1221   .text.hostapd_set_freq_params:0000000000000048 .L0 
C:\Users\stapi\AppData\Local\Temp\ccxEGDhx.s:1223   .text.hostapd_set_freq_params:000000000000004a .L0 
C:\Users\stapi\AppData\Local\Temp\ccxEGDhx.s:1225   .text.hostapd_set_freq_params:000000000000004e .L0 
C:\Users\stapi\AppData\Local\Temp\ccxEGDhx.s:1226   .text.hostapd_set_freq_params:000000000000004e .L0 
C:\Users\stapi\AppData\Local\Temp\ccxEGDhx.s:1228   .text.hostapd_set_freq_params:0000000000000052 .L0 
C:\Users\stapi\AppData\Local\Temp\ccxEGDhx.s:1229   .text.hostapd_set_freq_params:0000000000000052 .L0 
C:\Users\stapi\AppData\Local\Temp\ccxEGDhx.s:1231   .text.hostapd_set_freq_params:0000000000000056 .L0 
C:\Users\stapi\AppData\Local\Temp\ccxEGDhx.s:1232   .text.hostapd_set_freq_params:0000000000000056 .L0 
C:\Users\stapi\AppData\Local\Temp\ccxEGDhx.s:1234   .text.hostapd_set_freq_params:000000000000005a .L0 
C:\Users\stapi\AppData\Local\Temp\ccxEGDhx.s:1235   .text.hostapd_set_freq_params:000000000000005a .L0 
C:\Users\stapi\AppData\Local\Temp\ccxEGDhx.s:1237   .text.hostapd_set_freq_params:000000000000005e .L0 
C:\Users\stapi\AppData\Local\Temp\ccxEGDhx.s:1238   .text.hostapd_set_freq_params:000000000000005e .L0 
C:\Users\stapi\AppData\Local\Temp\ccxEGDhx.s:1240   .text.hostapd_set_freq_params:0000000000000062 .L0 
C:\Users\stapi\AppData\Local\Temp\ccxEGDhx.s:1241   .text.hostapd_set_freq_params:0000000000000062 .L0 
C:\Users\stapi\AppData\Local\Temp\ccxEGDhx.s:1243   .text.hostapd_set_freq_params:0000000000000066 .L0 
C:\Users\stapi\AppData\Local\Temp\ccxEGDhx.s:1244   .text.hostapd_set_freq_params:0000000000000066 .L0 
C:\Users\stapi\AppData\Local\Temp\ccxEGDhx.s:1246   .text.hostapd_set_freq_params:000000000000006a .L0 
C:\Users\stapi\AppData\Local\Temp\ccxEGDhx.s:1247   .text.hostapd_set_freq_params:000000000000006a .L0 
C:\Users\stapi\AppData\Local\Temp\ccxEGDhx.s:1249   .text.hostapd_set_freq_params:000000000000006e .L0 
C:\Users\stapi\AppData\Local\Temp\ccxEGDhx.s:1250   .text.hostapd_set_freq_params:000000000000006e .L0 
C:\Users\stapi\AppData\Local\Temp\ccxEGDhx.s:1252   .text.hostapd_set_freq_params:0000000000000072 .L0 
C:\Users\stapi\AppData\Local\Temp\ccxEGDhx.s:1253   .text.hostapd_set_freq_params:0000000000000072 .L0 
C:\Users\stapi\AppData\Local\Temp\ccxEGDhx.s:1255   .text.hostapd_set_freq_params:0000000000000076 .L0 
C:\Users\stapi\AppData\Local\Temp\ccxEGDhx.s:1264   .text.hostapd_set_freq_params:000000000000008a .L0 
C:\Users\stapi\AppData\Local\Temp\ccxEGDhx.s:1269   .text.hostapd_set_freq_params:000000000000008e .L0 
C:\Users\stapi\AppData\Local\Temp\ccxEGDhx.s:1274   .text.hostapd_set_freq_params:0000000000000092 .L0 
C:\Users\stapi\AppData\Local\Temp\ccxEGDhx.s:1277   .text.hostapd_set_freq_params:0000000000000098 .L0 
C:\Users\stapi\AppData\Local\Temp\ccxEGDhx.s:1278   .text.hostapd_set_freq_params:0000000000000098 .L0 
C:\Users\stapi\AppData\Local\Temp\ccxEGDhx.s:1282   .text.hostapd_set_freq_params:00000000000000a0 .L0 
C:\Users\stapi\AppData\Local\Temp\ccxEGDhx.s:1287   .text.hostapd_set_freq_params:00000000000000aa .L0 
C:\Users\stapi\AppData\Local\Temp\ccxEGDhx.s:1288   .text.hostapd_set_freq_params:00000000000000aa .L0 
C:\Users\stapi\AppData\Local\Temp\ccxEGDhx.s:1290   .text.hostapd_set_freq_params:00000000000000ae .L0 
C:\Users\stapi\AppData\Local\Temp\ccxEGDhx.s:1291   .text.hostapd_set_freq_params:00000000000000ae .L0 
C:\Users\stapi\AppData\Local\Temp\ccxEGDhx.s:1294   .text.hostapd_set_freq_params:00000000000000b4 .L0 
C:\Users\stapi\AppData\Local\Temp\ccxEGDhx.s:1295   .text.hostapd_set_freq_params:00000000000000b4 .L0 
C:\Users\stapi\AppData\Local\Temp\ccxEGDhx.s:1299   .text.hostapd_set_freq_params:00000000000000bc .L0 
C:\Users\stapi\AppData\Local\Temp\ccxEGDhx.s:1304   .text.hostapd_set_freq_params:00000000000000c4 .L0 
C:\Users\stapi\AppData\Local\Temp\ccxEGDhx.s:1311   .text.hostapd_set_freq_params:00000000000000d0 .L0 
C:\Users\stapi\AppData\Local\Temp\ccxEGDhx.s:1312   .text.hostapd_set_freq_params:00000000000000d0 .L0 
C:\Users\stapi\AppData\Local\Temp\ccxEGDhx.s:1315   .text.hostapd_set_freq_params:00000000000000d4 .L0 
C:\Users\stapi\AppData\Local\Temp\ccxEGDhx.s:1316   .text.hostapd_set_freq_params:00000000000000d4 .L0 
C:\Users\stapi\AppData\Local\Temp\ccxEGDhx.s:1320   .text.hostapd_set_freq_params:00000000000000de .L0 
C:\Users\stapi\AppData\Local\Temp\ccxEGDhx.s:1325   .text.hostapd_set_freq_params:00000000000000e8 .L0 
C:\Users\stapi\AppData\Local\Temp\ccxEGDhx.s:1326   .text.hostapd_set_freq_params:00000000000000e8 .L0 
C:\Users\stapi\AppData\Local\Temp\ccxEGDhx.s:1330   .text.hostapd_set_freq_params:00000000000000f2 .L0 
C:\Users\stapi\AppData\Local\Temp\ccxEGDhx.s:1336   .text.hostapd_set_freq_params:00000000000000fc .L0 
C:\Users\stapi\AppData\Local\Temp\ccxEGDhx.s:1337   .text.hostapd_set_freq_params:00000000000000fc .L0 
C:\Users\stapi\AppData\Local\Temp\ccxEGDhx.s:1339   .text.hostapd_set_freq_params:0000000000000100 .L0 
C:\Users\stapi\AppData\Local\Temp\ccxEGDhx.s:1344   .text.hostapd_set_freq_params:000000000000010c .L0 
C:\Users\stapi\AppData\Local\Temp\ccxEGDhx.s:1345   .text.hostapd_set_freq_params:000000000000010c .L0 
C:\Users\stapi\AppData\Local\Temp\ccxEGDhx.s:1347   .text.hostapd_set_freq_params:0000000000000110 .L0 
C:\Users\stapi\AppData\Local\Temp\ccxEGDhx.s:1349   .text.hostapd_set_freq_params:0000000000000112 .L0 
C:\Users\stapi\AppData\Local\Temp\ccxEGDhx.s:1354   .text.hostapd_set_freq_params:000000000000011c .L0 
C:\Users\stapi\AppData\Local\Temp\ccxEGDhx.s:1355   .text.hostapd_set_freq_params:000000000000011c .L0 
C:\Users\stapi\AppData\Local\Temp\ccxEGDhx.s:1357   .text.hostapd_set_freq_params:0000000000000120 .L0 
C:\Users\stapi\AppData\Local\Temp\ccxEGDhx.s:1359   .text.hostapd_set_freq_params:0000000000000124 .L0 
C:\Users\stapi\AppData\Local\Temp\ccxEGDhx.s:1364   .text.hostapd_set_freq_params:000000000000012e .L0 
C:\Users\stapi\AppData\Local\Temp\ccxEGDhx.s:1372   .text.hostapd_set_freq_params:000000000000013c .L0 
C:\Users\stapi\AppData\Local\Temp\ccxEGDhx.s:1373   .text.hostapd_set_freq_params:000000000000013c .L0 
C:\Users\stapi\AppData\Local\Temp\ccxEGDhx.s:1375   .text.hostapd_set_freq_params:000000000000013e .L0 
C:\Users\stapi\AppData\Local\Temp\ccxEGDhx.s:1377   .text.hostapd_set_freq_params:0000000000000142 .L0 
C:\Users\stapi\AppData\Local\Temp\ccxEGDhx.s:1380   .text.hostapd_set_freq_params:0000000000000148 .L0 
C:\Users\stapi\AppData\Local\Temp\ccxEGDhx.s:1384   .text.hostapd_set_freq_params:0000000000000150 .L0 
C:\Users\stapi\AppData\Local\Temp\ccxEGDhx.s:1386   .text.hostapd_set_freq_params:0000000000000154 .L0 
C:\Users\stapi\AppData\Local\Temp\ccxEGDhx.s:1389   .text.hostapd_set_freq_params:000000000000015a .L0 
C:\Users\stapi\AppData\Local\Temp\ccxEGDhx.s:1392   .text.hostapd_set_freq_params:000000000000015e .L0 
C:\Users\stapi\AppData\Local\Temp\ccxEGDhx.s:1400   .text.hostapd_set_freq_params:0000000000000172 .L0 
C:\Users\stapi\AppData\Local\Temp\ccxEGDhx.s:1401   .text.hostapd_set_freq_params:0000000000000172 .L0 
C:\Users\stapi\AppData\Local\Temp\ccxEGDhx.s:1402   .text.hostapd_set_freq_params:0000000000000172 .L0 
C:\Users\stapi\AppData\Local\Temp\ccxEGDhx.s:1406   .text.hostapd_set_freq_params:0000000000000174 .L0 
C:\Users\stapi\AppData\Local\Temp\ccxEGDhx.s:1408   .text.hostapd_set_freq_params:0000000000000178 .L0 
C:\Users\stapi\AppData\Local\Temp\ccxEGDhx.s:1409   .text.hostapd_set_freq_params:0000000000000178 .L0 
C:\Users\stapi\AppData\Local\Temp\ccxEGDhx.s:1412   .text.hostapd_set_freq_params:0000000000000180 .L0 
C:\Users\stapi\AppData\Local\Temp\ccxEGDhx.s:1413   .text.hostapd_set_freq_params:0000000000000180 .L0 
C:\Users\stapi\AppData\Local\Temp\ccxEGDhx.s:1414   .text.hostapd_set_freq_params:0000000000000180 .L0 
C:\Users\stapi\AppData\Local\Temp\ccxEGDhx.s:1415   .text.hostapd_set_freq_params:0000000000000180 .L0 
C:\Users\stapi\AppData\Local\Temp\ccxEGDhx.s:1416   .text.hostapd_set_freq_params:0000000000000180 .L0 
C:\Users\stapi\AppData\Local\Temp\ccxEGDhx.s:1417   .text.hostapd_set_freq_params:0000000000000180 .L0 
C:\Users\stapi\AppData\Local\Temp\ccxEGDhx.s:1418   .text.hostapd_set_freq_params:0000000000000180 .L0 
C:\Users\stapi\AppData\Local\Temp\ccxEGDhx.s:1419   .text.hostapd_set_freq_params:0000000000000180 .L0 
C:\Users\stapi\AppData\Local\Temp\ccxEGDhx.s:1420   .text.hostapd_set_freq_params:0000000000000180 .L0 
C:\Users\stapi\AppData\Local\Temp\ccxEGDhx.s:1421   .text.hostapd_set_freq_params:0000000000000180 .L0 
C:\Users\stapi\AppData\Local\Temp\ccxEGDhx.s:1422   .text.hostapd_set_freq_params:0000000000000180 .L0 
C:\Users\stapi\AppData\Local\Temp\ccxEGDhx.s:1423   .text.hostapd_set_freq_params:0000000000000180 .L0 
C:\Users\stapi\AppData\Local\Temp\ccxEGDhx.s:1424   .text.hostapd_set_freq_params:0000000000000180 .L0 
C:\Users\stapi\AppData\Local\Temp\ccxEGDhx.s:1425   .text.hostapd_set_freq_params:0000000000000180 .L0 
C:\Users\stapi\AppData\Local\Temp\ccxEGDhx.s:1428   .text.hostapd_set_freq_params:0000000000000180 .L0 
C:\Users\stapi\AppData\Local\Temp\ccxEGDhx.s:1430   .text.hostapd_set_freq_params:0000000000000180 .L0 
C:\Users\stapi\AppData\Local\Temp\ccxEGDhx.s:1431   .text.hostapd_set_freq_params:0000000000000180 .L0 
C:\Users\stapi\AppData\Local\Temp\ccxEGDhx.s:1433   .text.hostapd_set_freq_params:0000000000000184 .L0 
C:\Users\stapi\AppData\Local\Temp\ccxEGDhx.s:1435   .text.hostapd_set_freq_params:0000000000000188 .L0 
C:\Users\stapi\AppData\Local\Temp\ccxEGDhx.s:1437   .text.hostapd_set_freq_params:000000000000018c .L0 
C:\Users\stapi\AppData\Local\Temp\ccxEGDhx.s:1440   .text.hostapd_set_freq_params:0000000000000190 .L0 
C:\Users\stapi\AppData\Local\Temp\ccxEGDhx.s:1445   .text.hostapd_set_freq_params:000000000000019a .L0 
C:\Users\stapi\AppData\Local\Temp\ccxEGDhx.s:1446   .text.hostapd_set_freq_params:000000000000019a .L0 
C:\Users\stapi\AppData\Local\Temp\ccxEGDhx.s:1451   .text.hostapd_set_freq_params:00000000000001a6 .L0 
C:\Users\stapi\AppData\Local\Temp\ccxEGDhx.s:1454   .text.hostapd_set_freq_params:00000000000001aa .L0 
C:\Users\stapi\AppData\Local\Temp\ccxEGDhx.s:1455   .text.hostapd_set_freq_params:00000000000001aa .L0 
C:\Users\stapi\AppData\Local\Temp\ccxEGDhx.s:1458   .text.hostapd_set_freq_params:00000000000001b2 .L0 
C:\Users\stapi\AppData\Local\Temp\ccxEGDhx.s:1459   .text.hostapd_set_freq_params:00000000000001b2 .L0 
C:\Users\stapi\AppData\Local\Temp\ccxEGDhx.s:1461   .text.hostapd_set_freq_params:00000000000001b6 .L0 
C:\Users\stapi\AppData\Local\Temp\ccxEGDhx.s:1466   .text.hostapd_set_freq_params:00000000000001c0 .L0 
C:\Users\stapi\AppData\Local\Temp\ccxEGDhx.s:1467   .text.hostapd_set_freq_params:00000000000001c0 .L0 
C:\Users\stapi\AppData\Local\Temp\ccxEGDhx.s:1470   .text.hostapd_set_freq_params:00000000000001c6 .L0 
C:\Users\stapi\AppData\Local\Temp\ccxEGDhx.s:1472   .text.hostapd_set_freq_params:00000000000001c8 .L0 
C:\Users\stapi\AppData\Local\Temp\ccxEGDhx.s:1477   .text.hostapd_set_freq_params:00000000000001d2 .L0 
C:\Users\stapi\AppData\Local\Temp\ccxEGDhx.s:1478   .text.hostapd_set_freq_params:00000000000001d2 .L0 
C:\Users\stapi\AppData\Local\Temp\ccxEGDhx.s:1481   .text.hostapd_set_freq_params:00000000000001d8 .L0 
C:\Users\stapi\AppData\Local\Temp\ccxEGDhx.s:1483   .text.hostapd_set_freq_params:00000000000001da .L0 
C:\Users\stapi\AppData\Local\Temp\ccxEGDhx.s:1488   .text.hostapd_set_freq_params:00000000000001e4 .L0 
C:\Users\stapi\AppData\Local\Temp\ccxEGDhx.s:1489   .text.hostapd_set_freq_params:00000000000001e4 .L0 
C:\Users\stapi\AppData\Local\Temp\ccxEGDhx.s:1491   .text.hostapd_set_freq_params:00000000000001e8 .L0 
C:\Users\stapi\AppData\Local\Temp\ccxEGDhx.s:1492   .text.hostapd_set_freq_params:00000000000001e8 .L0 
C:\Users\stapi\AppData\Local\Temp\ccxEGDhx.s:1494   .text.hostapd_set_freq_params:00000000000001ec .L0 
C:\Users\stapi\AppData\Local\Temp\ccxEGDhx.s:1496   .text.hostapd_set_freq_params:00000000000001f0 .L0 
C:\Users\stapi\AppData\Local\Temp\ccxEGDhx.s:1498   .text.hostapd_set_freq_params:00000000000001f4 .L0 
C:\Users\stapi\AppData\Local\Temp\ccxEGDhx.s:1499   .text.hostapd_set_freq_params:00000000000001f4 .L0 
C:\Users\stapi\AppData\Local\Temp\ccxEGDhx.s:1501   .text.hostapd_set_freq_params:00000000000001f8 .L0 
C:\Users\stapi\AppData\Local\Temp\ccxEGDhx.s:1503   .text.hostapd_set_freq_params:00000000000001fc .L0 
C:\Users\stapi\AppData\Local\Temp\ccxEGDhx.s:1505   .text.hostapd_set_freq_params:0000000000000200 .L0 
C:\Users\stapi\AppData\Local\Temp\ccxEGDhx.s:1506   .text.hostapd_set_freq_params:0000000000000200 .L0 
C:\Users\stapi\AppData\Local\Temp\ccxEGDhx.s:1508   .text.hostapd_set_freq_params:0000000000000204 .L0 
C:\Users\stapi\AppData\Local\Temp\ccxEGDhx.s:1510   .text.hostapd_set_freq_params:0000000000000208 .L0 
C:\Users\stapi\AppData\Local\Temp\ccxEGDhx.s:1512   .text.hostapd_set_freq_params:000000000000020c .L0 
C:\Users\stapi\AppData\Local\Temp\ccxEGDhx.s:1513   .text.hostapd_set_freq_params:000000000000020c .L0 
C:\Users\stapi\AppData\Local\Temp\ccxEGDhx.s:1515   .text.hostapd_set_freq_params:0000000000000210 .L0 
C:\Users\stapi\AppData\Local\Temp\ccxEGDhx.s:1517   .text.hostapd_set_freq_params:0000000000000214 .L0 
C:\Users\stapi\AppData\Local\Temp\ccxEGDhx.s:1519   .text.hostapd_set_freq_params:0000000000000218 .L0 
C:\Users\stapi\AppData\Local\Temp\ccxEGDhx.s:1520   .text.hostapd_set_freq_params:0000000000000218 .L0 
C:\Users\stapi\AppData\Local\Temp\ccxEGDhx.s:1522   .text.hostapd_set_freq_params:000000000000021c .L0 
C:\Users\stapi\AppData\Local\Temp\ccxEGDhx.s:1524   .text.hostapd_set_freq_params:0000000000000220 .L0 
C:\Users\stapi\AppData\Local\Temp\ccxEGDhx.s:1526   .text.hostapd_set_freq_params:0000000000000224 .L0 
C:\Users\stapi\AppData\Local\Temp\ccxEGDhx.s:1527   .text.hostapd_set_freq_params:0000000000000224 .L0 
C:\Users\stapi\AppData\Local\Temp\ccxEGDhx.s:1529   .text.hostapd_set_freq_params:0000000000000228 .L0 
C:\Users\stapi\AppData\Local\Temp\ccxEGDhx.s:1531   .text.hostapd_set_freq_params:000000000000022c .L0 
C:\Users\stapi\AppData\Local\Temp\ccxEGDhx.s:1533   .text.hostapd_set_freq_params:0000000000000230 .L0 
C:\Users\stapi\AppData\Local\Temp\ccxEGDhx.s:1534   .text.hostapd_set_freq_params:0000000000000230 .L0 
C:\Users\stapi\AppData\Local\Temp\ccxEGDhx.s:1538   .text.hostapd_set_freq_params:000000000000023a .L0 
C:\Users\stapi\AppData\Local\Temp\ccxEGDhx.s:1542   .text.hostapd_set_freq_params:000000000000023e .L0 
C:\Users\stapi\AppData\Local\Temp\ccxEGDhx.s:1543   .text.hostapd_set_freq_params:000000000000023e .L0 
C:\Users\stapi\AppData\Local\Temp\ccxEGDhx.s:1548   .text.hostapd_set_freq_params:000000000000024a .L0 
C:\Users\stapi\AppData\Local\Temp\ccxEGDhx.s:1553   .text.hostapd_set_freq_params:0000000000000250 .L0 
C:\Users\stapi\AppData\Local\Temp\ccxEGDhx.s:1554   .text.hostapd_set_freq_params:0000000000000250 .L0 
C:\Users\stapi\AppData\Local\Temp\ccxEGDhx.s:1556   .text.hostapd_set_freq_params:0000000000000254 .L0 
C:\Users\stapi\AppData\Local\Temp\ccxEGDhx.s:1560   .text.hostapd_set_freq_params:0000000000000258 .L0 
C:\Users\stapi\AppData\Local\Temp\ccxEGDhx.s:1561   .text.hostapd_set_freq_params:0000000000000258 .L0 
C:\Users\stapi\AppData\Local\Temp\ccxEGDhx.s:1566   .text.hostapd_set_freq_params:0000000000000264 .L0 
C:\Users\stapi\AppData\Local\Temp\ccxEGDhx.s:1571   .text.hostapd_set_freq_params:000000000000026a .L0 
C:\Users\stapi\AppData\Local\Temp\ccxEGDhx.s:1573   .text.hostapd_set_freq_params:000000000000026e .L0 
C:\Users\stapi\AppData\Local\Temp\ccxEGDhx.s:1575   .text.hostapd_set_freq_params:0000000000000272 .L0 
C:\Users\stapi\AppData\Local\Temp\ccxEGDhx.s:1577   .text.hostapd_set_freq_params:0000000000000276 .L0 
C:\Users\stapi\AppData\Local\Temp\ccxEGDhx.s:1579   .text.hostapd_set_freq_params:000000000000027a .L0 
C:\Users\stapi\AppData\Local\Temp\ccxEGDhx.s:1582   .text.hostapd_set_freq_params:000000000000027c .L0 
C:\Users\stapi\AppData\Local\Temp\ccxEGDhx.s:1584   .text.hostapd_set_freq_params:0000000000000280 .L0 
C:\Users\stapi\AppData\Local\Temp\ccxEGDhx.s:1590   .text.hostapd_set_freq_params:000000000000028a .L0 
C:\Users\stapi\AppData\Local\Temp\ccxEGDhx.s:1591   .text.hostapd_set_freq_params:000000000000028a .L0 
C:\Users\stapi\AppData\Local\Temp\ccxEGDhx.s:1594   .text.hostapd_set_freq_params:0000000000000292 .L0 
C:\Users\stapi\AppData\Local\Temp\ccxEGDhx.s:1595   .text.hostapd_set_freq_params:0000000000000292 .L0 
C:\Users\stapi\AppData\Local\Temp\ccxEGDhx.s:1597   .text.hostapd_set_freq_params:0000000000000294 .L0 
C:\Users\stapi\AppData\Local\Temp\ccxEGDhx.s:1602   .text.hostapd_set_freq_params:000000000000029e .L0 
C:\Users\stapi\AppData\Local\Temp\ccxEGDhx.s:1603   .text.hostapd_set_freq_params:000000000000029e .L0 
C:\Users\stapi\AppData\Local\Temp\ccxEGDhx.s:1605   .text.hostapd_set_freq_params:00000000000002a2 .L0 
C:\Users\stapi\AppData\Local\Temp\ccxEGDhx.s:1610   .text.hostapd_set_freq_params:00000000000002ac .L0 
C:\Users\stapi\AppData\Local\Temp\ccxEGDhx.s:1611   .text.hostapd_set_freq_params:00000000000002ac .L0 
C:\Users\stapi\AppData\Local\Temp\ccxEGDhx.s:1613   .text.hostapd_set_freq_params:00000000000002b0 .L0 
C:\Users\stapi\AppData\Local\Temp\ccxEGDhx.s:1615   .text.hostapd_set_freq_params:00000000000002b4 .L0 
C:\Users\stapi\AppData\Local\Temp\ccxEGDhx.s:1617   .text.hostapd_set_freq_params:00000000000002b8 .L0 
C:\Users\stapi\AppData\Local\Temp\ccxEGDhx.s:1619   .text.hostapd_set_freq_params:00000000000002bc .L0 
C:\Users\stapi\AppData\Local\Temp\ccxEGDhx.s:1621   .text.hostapd_set_freq_params:00000000000002c0 .L0 
C:\Users\stapi\AppData\Local\Temp\ccxEGDhx.s:1623   .text.hostapd_set_freq_params:00000000000002c4 .L0 
C:\Users\stapi\AppData\Local\Temp\ccxEGDhx.s:1625   .text.hostapd_set_freq_params:00000000000002c8 .L0 
C:\Users\stapi\AppData\Local\Temp\ccxEGDhx.s:1627   .text.hostapd_set_freq_params:00000000000002cc .L0 
C:\Users\stapi\AppData\Local\Temp\ccxEGDhx.s:1629   .text.hostapd_set_freq_params:00000000000002d0 .L0 
C:\Users\stapi\AppData\Local\Temp\ccxEGDhx.s:1631   .text.hostapd_set_freq_params:00000000000002d4 .L0 
C:\Users\stapi\AppData\Local\Temp\ccxEGDhx.s:1633   .text.hostapd_set_freq_params:00000000000002d8 .L0 
C:\Users\stapi\AppData\Local\Temp\ccxEGDhx.s:1635   .text.hostapd_set_freq_params:00000000000002dc .L0 
C:\Users\stapi\AppData\Local\Temp\ccxEGDhx.s:1637   .text.hostapd_set_freq_params:00000000000002e0 .L0 
C:\Users\stapi\AppData\Local\Temp\ccxEGDhx.s:1639   .text.hostapd_set_freq_params:00000000000002e4 .L0 
C:\Users\stapi\AppData\Local\Temp\ccxEGDhx.s:1642   .text.hostapd_set_freq_params:00000000000002e6 .L0 
C:\Users\stapi\AppData\Local\Temp\ccxEGDhx.s:1644   .text.hostapd_set_freq_params:00000000000002ea .L0 
C:\Users\stapi\AppData\Local\Temp\ccxEGDhx.s:1650   .text.hostapd_set_freq_params:00000000000002f4 .L0 
C:\Users\stapi\AppData\Local\Temp\ccxEGDhx.s:1651   .text.hostapd_set_freq_params:00000000000002f4 .L0 
C:\Users\stapi\AppData\Local\Temp\ccxEGDhx.s:1655   .text.hostapd_set_freq_params:00000000000002fa .L0 
C:\Users\stapi\AppData\Local\Temp\ccxEGDhx.s:1658   .text.hostapd_set_freq_params:0000000000000302 .L0 
C:\Users\stapi\AppData\Local\Temp\ccxEGDhx.s:1665   .text.set_disable_ht40:0000000000000000 set_disable_ht40
C:\Users\stapi\AppData\Local\Temp\ccxEGDhx.s:1668   .text.set_disable_ht40:0000000000000000 .L0 
C:\Users\stapi\AppData\Local\Temp\ccxEGDhx.s:1670   .text.set_disable_ht40:0000000000000000 .L0 
C:\Users\stapi\AppData\Local\Temp\ccxEGDhx.s:1671   .text.set_disable_ht40:0000000000000000 .L0 
C:\Users\stapi\AppData\Local\Temp\ccxEGDhx.s:1672   .text.set_disable_ht40:0000000000000000 .L0 
C:\Users\stapi\AppData\Local\Temp\ccxEGDhx.s:1673   .text.set_disable_ht40:0000000000000000 .L0 
C:\Users\stapi\AppData\Local\Temp\ccxEGDhx.s:1678   .text.set_disable_ht40:000000000000000c .L0 
C:\Users\stapi\AppData\Local\Temp\ccxEGDhx.s:1680   .text.set_disable_ht40:0000000000000010 .L0 
C:\Users\stapi\AppData\Local\Temp\ccxEGDhx.s:1682   .text.set_disable_ht40:0000000000000012 .L0 
C:\Users\stapi\AppData\Local\Temp\ccxEGDhx.s:1683   .text.set_disable_ht40:0000000000000012 .L0 
C:\Users\stapi\AppData\Local\Temp\ccxEGDhx.s:1690   .text.set_disable_ht40:0000000000000026 .L0 
C:\Users\stapi\AppData\Local\Temp\ccxEGDhx.s:1691   .text.set_disable_ht40:0000000000000028 .L0 
C:\Users\stapi\AppData\Local\Temp\ccxEGDhx.s:1698   .text.num_chan_to_bw:0000000000000000 num_chan_to_bw
C:\Users\stapi\AppData\Local\Temp\ccxEGDhx.s:1701   .text.num_chan_to_bw:0000000000000000 .L0 
C:\Users\stapi\AppData\Local\Temp\ccxEGDhx.s:1703   .text.num_chan_to_bw:0000000000000000 .L0 
C:\Users\stapi\AppData\Local\Temp\ccxEGDhx.s:1704   .text.num_chan_to_bw:0000000000000000 .L0 
C:\Users\stapi\AppData\Local\Temp\ccxEGDhx.s:1706   .text.num_chan_to_bw:0000000000000002 .L0 
C:\Users\stapi\AppData\Local\Temp\ccxEGDhx.s:1714   .text.num_chan_to_bw:0000000000000014 .L0 
C:\Users\stapi\AppData\Local\Temp\ccxEGDhx.s:1715   .text.num_chan_to_bw:0000000000000014 .L0 
C:\Users\stapi\AppData\Local\Temp\ccxEGDhx.s:1720   .text.num_chan_to_bw:000000000000001a .L0 
C:\Users\stapi\AppData\Local\Temp\ccxEGDhx.s:1724   .text.num_chan_to_bw:000000000000001c .L0 
C:\Users\stapi\AppData\Local\Temp\ccxEGDhx.s:1725   .text.num_chan_to_bw:000000000000001e .L0 
C:\Users\stapi\AppData\Local\Temp\ccxEGDhx.s:1732   .text.chan_bw_allowed:0000000000000000 chan_bw_allowed
C:\Users\stapi\AppData\Local\Temp\ccxEGDhx.s:1735   .text.chan_bw_allowed:0000000000000000 .L0 
C:\Users\stapi\AppData\Local\Temp\ccxEGDhx.s:1737   .text.chan_bw_allowed:0000000000000000 .L0 
C:\Users\stapi\AppData\Local\Temp\ccxEGDhx.s:1738   .text.chan_bw_allowed:0000000000000000 .L0 
C:\Users\stapi\AppData\Local\Temp\ccxEGDhx.s:1739   .text.chan_bw_allowed:0000000000000000 .L0 
C:\Users\stapi\AppData\Local\Temp\ccxEGDhx.s:1744   .text.chan_bw_allowed:000000000000000e .L0 
C:\Users\stapi\AppData\Local\Temp\ccxEGDhx.s:1746   .text.chan_bw_allowed:0000000000000010 .L0 
C:\Users\stapi\AppData\Local\Temp\ccxEGDhx.s:1750   .text.chan_bw_allowed:000000000000001c .L0 
C:\Users\stapi\AppData\Local\Temp\ccxEGDhx.s:1754   .text.chan_bw_allowed:000000000000001e .L0 
C:\Users\stapi\AppData\Local\Temp\ccxEGDhx.s:1755   .text.chan_bw_allowed:000000000000001e .L0 
C:\Users\stapi\AppData\Local\Temp\ccxEGDhx.s:1758   .text.chan_bw_allowed:0000000000000020 .L0 
C:\Users\stapi\AppData\Local\Temp\ccxEGDhx.s:1760   .text.chan_bw_allowed:0000000000000024 .L0 
C:\Users\stapi\AppData\Local\Temp\ccxEGDhx.s:1765   .text.chan_bw_allowed:000000000000002a .L0 
C:\Users\stapi\AppData\Local\Temp\ccxEGDhx.s:1767   .text.chan_bw_allowed:000000000000002e .L0 
C:\Users\stapi\AppData\Local\Temp\ccxEGDhx.s:1769   .text.chan_bw_allowed:0000000000000030 .L0 
C:\Users\stapi\AppData\Local\Temp\ccxEGDhx.s:1771   .text.chan_bw_allowed:0000000000000034 .L0 
C:\Users\stapi\AppData\Local\Temp\ccxEGDhx.s:1775   .text.chan_bw_allowed:000000000000003a .L0 
C:\Users\stapi\AppData\Local\Temp\ccxEGDhx.s:1776   .text.chan_bw_allowed:000000000000003a .L0 
C:\Users\stapi\AppData\Local\Temp\ccxEGDhx.s:1778   .text.chan_bw_allowed:000000000000003c .L0 
C:\Users\stapi\AppData\Local\Temp\ccxEGDhx.s:1780   .text.chan_bw_allowed:000000000000003e .L0 
C:\Users\stapi\AppData\Local\Temp\ccxEGDhx.s:1782   .text.chan_bw_allowed:0000000000000040 .L0 
C:\Users\stapi\AppData\Local\Temp\ccxEGDhx.s:1784   .text.chan_bw_allowed:0000000000000042 .L0 
C:\Users\stapi\AppData\Local\Temp\ccxEGDhx.s:1788   .text.chan_bw_allowed:0000000000000046 .L0 
C:\Users\stapi\AppData\Local\Temp\ccxEGDhx.s:1790   .text.chan_bw_allowed:000000000000004a .L0 
C:\Users\stapi\AppData\Local\Temp\ccxEGDhx.s:1797   .text.chan_pri_allowed:0000000000000000 chan_pri_allowed
C:\Users\stapi\AppData\Local\Temp\ccxEGDhx.s:1800   .text.chan_pri_allowed:0000000000000000 .L0 
C:\Users\stapi\AppData\Local\Temp\ccxEGDhx.s:1802   .text.chan_pri_allowed:0000000000000000 .L0 
C:\Users\stapi\AppData\Local\Temp\ccxEGDhx.s:1803   .text.chan_pri_allowed:0000000000000000 .L0 
C:\Users\stapi\AppData\Local\Temp\ccxEGDhx.s:1804   .text.chan_pri_allowed:0000000000000000 .L0 
C:\Users\stapi\AppData\Local\Temp\ccxEGDhx.s:1807   .text.chan_pri_allowed:0000000000000004 .L0 
C:\Users\stapi\AppData\Local\Temp\ccxEGDhx.s:1809   .text.chan_pri_allowed:0000000000000006 .L0 
C:\Users\stapi\AppData\Local\Temp\ccxEGDhx.s:1816   .text.chan_pri_allowed:000000000000000e .L0 
C:\Users\stapi\AppData\Local\Temp\ccxEGDhx.s:1819   .text.chan_pri_allowed:0000000000000010 .L0 
C:\Users\stapi\AppData\Local\Temp\ccxEGDhx.s:1820   .text.chan_pri_allowed:0000000000000012 .L0 
C:\Users\stapi\AppData\Local\Temp\ccxEGDhx.s:1840   .text.allowed_ht40_channel_pair:0000000000000000 allowed_ht40_channel_pair
C:\Users\stapi\AppData\Local\Temp\ccxEGDhx.s:1843   .text.allowed_ht40_channel_pair:0000000000000000 .L0 
C:\Users\stapi\AppData\Local\Temp\ccxEGDhx.s:1845   .text.allowed_ht40_channel_pair:0000000000000000 .L0 
C:\Users\stapi\AppData\Local\Temp\ccxEGDhx.s:1846   .text.allowed_ht40_channel_pair:0000000000000008 .L0 
C:\Users\stapi\AppData\Local\Temp\ccxEGDhx.s:1847   .text.allowed_ht40_channel_pair:0000000000000008 .L0 
C:\Users\stapi\AppData\Local\Temp\ccxEGDhx.s:1848   .text.allowed_ht40_channel_pair:0000000000000008 .L0 
C:\Users\stapi\AppData\Local\Temp\ccxEGDhx.s:1849   .text.allowed_ht40_channel_pair:0000000000000008 .L0 
C:\Users\stapi\AppData\Local\Temp\ccxEGDhx.s:1850   .text.allowed_ht40_channel_pair:0000000000000008 .L0 
C:\Users\stapi\AppData\Local\Temp\ccxEGDhx.s:1851   .text.allowed_ht40_channel_pair:0000000000000008 .L0 
C:\Users\stapi\AppData\Local\Temp\ccxEGDhx.s:1852   .text.allowed_ht40_channel_pair:0000000000000008 .L0 
C:\Users\stapi\AppData\Local\Temp\ccxEGDhx.s:1854   .text.allowed_ht40_channel_pair:0000000000000008 .L0 
C:\Users\stapi\AppData\Local\Temp\ccxEGDhx.s:1855   .text.allowed_ht40_channel_pair:0000000000000008 .L0 
C:\Users\stapi\AppData\Local\Temp\ccxEGDhx.s:1856   .text.allowed_ht40_channel_pair:0000000000000008 .L0 
C:\Users\stapi\AppData\Local\Temp\ccxEGDhx.s:1857   .text.allowed_ht40_channel_pair:000000000000000a .L0 
C:\Users\stapi\AppData\Local\Temp\ccxEGDhx.s:1859   .text.allowed_ht40_channel_pair:000000000000000a .L0 
C:\Users\stapi\AppData\Local\Temp\ccxEGDhx.s:1861   .text.allowed_ht40_channel_pair:000000000000000c .L0 
C:\Users\stapi\AppData\Local\Temp\ccxEGDhx.s:1864   .text.allowed_ht40_channel_pair:0000000000000010 .L0 
C:\Users\stapi\AppData\Local\Temp\ccxEGDhx.s:1867   .text.allowed_ht40_channel_pair:0000000000000014 .L0 
C:\Users\stapi\AppData\Local\Temp\ccxEGDhx.s:1875   .text.allowed_ht40_channel_pair:0000000000000026 .L0 
C:\Users\stapi\AppData\Local\Temp\ccxEGDhx.s:1876   .text.allowed_ht40_channel_pair:0000000000000026 .L0 
C:\Users\stapi\AppData\Local\Temp\ccxEGDhx.s:1877   .text.allowed_ht40_channel_pair:0000000000000026 .L0 
C:\Users\stapi\AppData\Local\Temp\ccxEGDhx.s:1878   .text.allowed_ht40_channel_pair:0000000000000026 .L0 
C:\Users\stapi\AppData\Local\Temp\ccxEGDhx.s:1880   .text.allowed_ht40_channel_pair:0000000000000028 .L0 
C:\Users\stapi\AppData\Local\Temp\ccxEGDhx.s:1882   .text.allowed_ht40_channel_pair:000000000000002c .L0 
C:\Users\stapi\AppData\Local\Temp\ccxEGDhx.s:1884   .text.allowed_ht40_channel_pair:0000000000000030 .L0 
C:\Users\stapi\AppData\Local\Temp\ccxEGDhx.s:1885   .text.allowed_ht40_channel_pair:0000000000000030 .L0 
C:\Users\stapi\AppData\Local\Temp\ccxEGDhx.s:1888   .text.allowed_ht40_channel_pair:0000000000000034 .L0 
C:\Users\stapi\AppData\Local\Temp\ccxEGDhx.s:1889   .text.allowed_ht40_channel_pair:0000000000000034 .L0 
C:\Users\stapi\AppData\Local\Temp\ccxEGDhx.s:1892   .text.allowed_ht40_channel_pair:0000000000000038 .L0 
C:\Users\stapi\AppData\Local\Temp\ccxEGDhx.s:1893   .text.allowed_ht40_channel_pair:0000000000000038 .L0 
C:\Users\stapi\AppData\Local\Temp\ccxEGDhx.s:1894   .text.allowed_ht40_channel_pair:0000000000000038 .L0 
C:\Users\stapi\AppData\Local\Temp\ccxEGDhx.s:1896   .text.allowed_ht40_channel_pair:000000000000003c .L0 
C:\Users\stapi\AppData\Local\Temp\ccxEGDhx.s:1899   .text.allowed_ht40_channel_pair:000000000000003e .L0 
C:\Users\stapi\AppData\Local\Temp\ccxEGDhx.s:1902   .text.allowed_ht40_channel_pair:0000000000000042 .L0 
C:\Users\stapi\AppData\Local\Temp\ccxEGDhx.s:1903   .text.allowed_ht40_channel_pair:0000000000000042 .L0 
C:\Users\stapi\AppData\Local\Temp\ccxEGDhx.s:1906   .text.allowed_ht40_channel_pair:000000000000004a .L0 
C:\Users\stapi\AppData\Local\Temp\ccxEGDhx.s:1908   .text.allowed_ht40_channel_pair:000000000000004c .L0 
C:\Users\stapi\AppData\Local\Temp\ccxEGDhx.s:1910   .text.allowed_ht40_channel_pair:000000000000004e .L0 
C:\Users\stapi\AppData\Local\Temp\ccxEGDhx.s:1913   .text.allowed_ht40_channel_pair:0000000000000050 .L0 
C:\Users\stapi\AppData\Local\Temp\ccxEGDhx.s:1917   .text.allowed_ht40_channel_pair:0000000000000052 .L0 
C:\Users\stapi\AppData\Local\Temp\ccxEGDhx.s:1919   .text.allowed_ht40_channel_pair:0000000000000056 .L0 
C:\Users\stapi\AppData\Local\Temp\ccxEGDhx.s:1920   .text.allowed_ht40_channel_pair:0000000000000056 .L0 
C:\Users\stapi\AppData\Local\Temp\ccxEGDhx.s:1922   .text.allowed_ht40_channel_pair:000000000000005e .L0 
C:\Users\stapi\AppData\Local\Temp\ccxEGDhx.s:1923   .text.allowed_ht40_channel_pair:000000000000005e .L0 
C:\Users\stapi\AppData\Local\Temp\ccxEGDhx.s:1924   .text.allowed_ht40_channel_pair:000000000000005e .L0 
C:\Users\stapi\AppData\Local\Temp\ccxEGDhx.s:1925   .text.allowed_ht40_channel_pair:000000000000005e .L0 
C:\Users\stapi\AppData\Local\Temp\ccxEGDhx.s:1926   .text.allowed_ht40_channel_pair:000000000000005e .L0 
C:\Users\stapi\AppData\Local\Temp\ccxEGDhx.s:1927   .text.allowed_ht40_channel_pair:000000000000005e .L0 
C:\Users\stapi\AppData\Local\Temp\ccxEGDhx.s:1928   .text.allowed_ht40_channel_pair:000000000000005e .L0 
C:\Users\stapi\AppData\Local\Temp\ccxEGDhx.s:1931   .text.allowed_ht40_channel_pair:000000000000005e .L0 
C:\Users\stapi\AppData\Local\Temp\ccxEGDhx.s:1933   .text.allowed_ht40_channel_pair:000000000000005e .L0 
C:\Users\stapi\AppData\Local\Temp\ccxEGDhx.s:1939   .text.allowed_ht40_channel_pair:0000000000000070 .L0 
C:\Users\stapi\AppData\Local\Temp\ccxEGDhx.s:1940   .text.allowed_ht40_channel_pair:0000000000000070 .L0 
C:\Users\stapi\AppData\Local\Temp\ccxEGDhx.s:1944   .text.allowed_ht40_channel_pair:0000000000000072 .L0 
C:\Users\stapi\AppData\Local\Temp\ccxEGDhx.s:1954   .text.allowed_ht40_channel_pair:0000000000000090 .L0 
C:\Users\stapi\AppData\Local\Temp\ccxEGDhx.s:1955   .text.allowed_ht40_channel_pair:0000000000000090 .L0 
C:\Users\stapi\AppData\Local\Temp\ccxEGDhx.s:1958   .text.allowed_ht40_channel_pair:0000000000000096 .L0 
C:\Users\stapi\AppData\Local\Temp\ccxEGDhx.s:1960   .text.allowed_ht40_channel_pair:0000000000000098 .L0 
C:\Users\stapi\AppData\Local\Temp\ccxEGDhx.s:1962   .text.allowed_ht40_channel_pair:000000000000009a .L0 
C:\Users\stapi\AppData\Local\Temp\ccxEGDhx.s:1964   .text.allowed_ht40_channel_pair:000000000000009e .L0 
C:\Users\stapi\AppData\Local\Temp\ccxEGDhx.s:1966   .text.allowed_ht40_channel_pair:00000000000000a2 .L0 
C:\Users\stapi\AppData\Local\Temp\ccxEGDhx.s:1969   .text.allowed_ht40_channel_pair:00000000000000a4 .L0 
C:\Users\stapi\AppData\Local\Temp\ccxEGDhx.s:1972   .text.allowed_ht40_channel_pair:00000000000000a6 .L0 
C:\Users\stapi\AppData\Local\Temp\ccxEGDhx.s:1979   .text.allowed_ht40_channel_pair:00000000000000ba .L0 
C:\Users\stapi\AppData\Local\Temp\ccxEGDhx.s:1980   .text.allowed_ht40_channel_pair:00000000000000ba .L0 
C:\Users\stapi\AppData\Local\Temp\ccxEGDhx.s:1984   .text.allowed_ht40_channel_pair:00000000000000be .L0 
C:\Users\stapi\AppData\Local\Temp\ccxEGDhx.s:1988   .text.allowed_ht40_channel_pair:00000000000000c2 .L0 
C:\Users\stapi\AppData\Local\Temp\ccxEGDhx.s:1989   .text.allowed_ht40_channel_pair:00000000000000c2 .L0 
C:\Users\stapi\AppData\Local\Temp\ccxEGDhx.s:1992   .text.allowed_ht40_channel_pair:00000000000000c8 .L0 
C:\Users\stapi\AppData\Local\Temp\ccxEGDhx.s:1994   .text.allowed_ht40_channel_pair:00000000000000ca .L0 
C:\Users\stapi\AppData\Local\Temp\ccxEGDhx.s:1997   .text.allowed_ht40_channel_pair:00000000000000ce .L0 
C:\Users\stapi\AppData\Local\Temp\ccxEGDhx.s:1998   .text.allowed_ht40_channel_pair:00000000000000ce .L0 
C:\Users\stapi\AppData\Local\Temp\ccxEGDhx.s:2000   .text.allowed_ht40_channel_pair:00000000000000ce .L0 
C:\Users\stapi\AppData\Local\Temp\ccxEGDhx.s:2001   .text.allowed_ht40_channel_pair:00000000000000ce .L0 
C:\Users\stapi\AppData\Local\Temp\ccxEGDhx.s:2002   .text.allowed_ht40_channel_pair:00000000000000ce .L0 
C:\Users\stapi\AppData\Local\Temp\ccxEGDhx.s:2005   .text.allowed_ht40_channel_pair:00000000000000d4 .L0 
C:\Users\stapi\AppData\Local\Temp\ccxEGDhx.s:2006   .text.allowed_ht40_channel_pair:00000000000000d4 .L0 
C:\Users\stapi\AppData\Local\Temp\ccxEGDhx.s:2007   .text.allowed_ht40_channel_pair:00000000000000d4 .L0 
C:\Users\stapi\AppData\Local\Temp\ccxEGDhx.s:2012   .text.allowed_ht40_channel_pair:00000000000000dc .L0 
C:\Users\stapi\AppData\Local\Temp\ccxEGDhx.s:2013   .text.allowed_ht40_channel_pair:00000000000000dc .L0 
C:\Users\stapi\AppData\Local\Temp\ccxEGDhx.s:2021   .text.allowed_ht40_channel_pair:00000000000000f0 .L0 
C:\Users\stapi\AppData\Local\Temp\ccxEGDhx.s:2022   .text.allowed_ht40_channel_pair:00000000000000f0 .L0 
C:\Users\stapi\AppData\Local\Temp\ccxEGDhx.s:2023   .text.allowed_ht40_channel_pair:00000000000000f2 .L0 
C:\Users\stapi\AppData\Local\Temp\ccxEGDhx.s:2028   .rodata:0000000000000000 .LANCHOR0
C:\Users\stapi\AppData\Local\Temp\ccxEGDhx.s:96     .text.hw_get_channel_chan:0000000000000036 .L0 
C:\Users\stapi\AppData\Local\Temp\ccxEGDhx.s:158    .text.hw_mode_get_channel:000000000000002e .L0 
C:\Users\stapi\AppData\Local\Temp\ccxEGDhx.s:261    .text.hw_get_channel_freq:000000000000004a .L0 
C:\Users\stapi\AppData\Local\Temp\ccxEGDhx.s:293    .text.hw_get_freq:0000000000000020 .L0 
C:\Users\stapi\AppData\Local\Temp\ccxEGDhx.s:330    .text.hw_get_chan:0000000000000024 .L0 
C:\Users\stapi\AppData\Local\Temp\ccxEGDhx.s:431    .text.get_pri_sec_chan:000000000000005c .L0 
C:\Users\stapi\AppData\Local\Temp\ccxEGDhx.s:687    .text.check_40mhz_5g:000000000000010a .L0 
C:\Users\stapi\AppData\Local\Temp\ccxEGDhx.s:1107   .text.check_40mhz_2g4:000000000000023e .L0 
C:\Users\stapi\AppData\Local\Temp\ccxEGDhx.s:1661   .text.hostapd_set_freq_params:0000000000000302 .L0 
C:\Users\stapi\AppData\Local\Temp\ccxEGDhx.s:1694   .text.set_disable_ht40:0000000000000028 .L0 
C:\Users\stapi\AppData\Local\Temp\ccxEGDhx.s:1728   .text.num_chan_to_bw:000000000000001e .L0 
C:\Users\stapi\AppData\Local\Temp\ccxEGDhx.s:1793   .text.chan_bw_allowed:000000000000004a .L0 
C:\Users\stapi\AppData\Local\Temp\ccxEGDhx.s:1823   .text.chan_pri_allowed:0000000000000012 .L0 
C:\Users\stapi\AppData\Local\Temp\ccxEGDhx.s:2026   .text.allowed_ht40_channel_pair:00000000000000f2 .L0 
                     .debug_frame:0000000000000000 .L0 
C:\Users\stapi\AppData\Local\Temp\ccxEGDhx.s:28     .text.hw_get_channel_chan:0000000000000008 .L2
C:\Users\stapi\AppData\Local\Temp\ccxEGDhx.s:55     .text.hw_get_channel_chan:000000000000001a .L1
C:\Users\stapi\AppData\Local\Temp\ccxEGDhx.s:59     .text.hw_get_channel_chan:000000000000001c .L6
C:\Users\stapi\AppData\Local\Temp\ccxEGDhx.s:84     .text.hw_get_channel_chan:0000000000000032 .L5
C:\Users\stapi\AppData\Local\Temp\ccxEGDhx.s:44     .text.hw_get_channel_chan:0000000000000014 .L4
C:\Users\stapi\AppData\Local\Temp\ccxEGDhx.s:127    .text.hw_mode_get_channel:0000000000000012 .L18
C:\Users\stapi\AppData\Local\Temp\ccxEGDhx.s:148    .text.hw_mode_get_channel:000000000000002a .L16
C:\Users\stapi\AppData\Local\Temp\ccxEGDhx.s:124    .text.hw_mode_get_channel:0000000000000010 .L14
C:\Users\stapi\AppData\Local\Temp\ccxEGDhx.s:117    .text.hw_mode_get_channel:000000000000000a .L15
C:\Users\stapi\AppData\Local\Temp\ccxEGDhx.s:190    .text.hw_get_channel_freq:0000000000000018 .L23
C:\Users\stapi\AppData\Local\Temp\ccxEGDhx.s:204    .text.hw_get_channel_freq:0000000000000020 .L24
C:\Users\stapi\AppData\Local\Temp\ccxEGDhx.s:222    .text.hw_get_channel_freq:000000000000002a .L29
C:\Users\stapi\AppData\Local\Temp\ccxEGDhx.s:242    .text.hw_get_channel_freq:0000000000000038 .L27
C:\Users\stapi\AppData\Local\Temp\ccxEGDhx.s:199    .text.hw_get_channel_freq:000000000000001c .L25
C:\Users\stapi\AppData\Local\Temp\ccxEGDhx.s:232    .text.hw_get_channel_freq:0000000000000030 .L28
C:\Users\stapi\AppData\Local\Temp\ccxEGDhx.s:209    .text.hw_get_channel_freq:0000000000000022 .L22
C:\Users\stapi\AppData\Local\Temp\ccxEGDhx.s:404    .text.get_pri_sec_chan:0000000000000048 .L41
C:\Users\stapi\AppData\Local\Temp\ccxEGDhx.s:416    .text.get_pri_sec_chan:0000000000000052 .L45
C:\Users\stapi\AppData\Local\Temp\ccxEGDhx.s:400    .text.get_pri_sec_chan:0000000000000046 .L50
C:\Users\stapi\AppData\Local\Temp\ccxEGDhx.s:433    .rodata.check_40mhz_5g.str1.4:0000000000000000 .LC1
C:\Users\stapi\AppData\Local\Temp\ccxEGDhx.s:436    .rodata.check_40mhz_5g.str1.4:0000000000000064 .LC2
C:\Users\stapi\AppData\Local\Temp\ccxEGDhx.s:671    .text.check_40mhz_5g:0000000000000106 .L65
C:\Users\stapi\AppData\Local\Temp\ccxEGDhx.s:590    .text.check_40mhz_5g:0000000000000092 .L51
C:\Users\stapi\AppData\Local\Temp\ccxEGDhx.s:515    .text.check_40mhz_5g:000000000000004c .L56
C:\Users\stapi\AppData\Local\Temp\ccxEGDhx.s:610    .text.check_40mhz_5g:000000000000009e .L59
C:\Users\stapi\AppData\Local\Temp\ccxEGDhx.s:543    .text.check_40mhz_5g:0000000000000060 .L54
C:\Users\stapi\AppData\Local\Temp\ccxEGDhx.s:491    .text.check_40mhz_5g:000000000000002c .L53
C:\Users\stapi\AppData\Local\Temp\ccxEGDhx.s:535    .text.check_40mhz_5g:000000000000005c .L55
C:\Users\stapi\AppData\Local\Temp\ccxEGDhx.s:604    .text.check_40mhz_5g:000000000000009c .L58
C:\Users\stapi\AppData\Local\Temp\ccxEGDhx.s:554    .text.check_40mhz_5g:0000000000000068 .L60
C:\Users\stapi\AppData\Local\Temp\ccxEGDhx.s:585    .text.check_40mhz_5g:0000000000000090 .L64
C:\Users\stapi\AppData\Local\Temp\ccxEGDhx.s:663    .text.check_40mhz_5g:0000000000000102 .L62
C:\Users\stapi\AppData\Local\Temp\ccxEGDhx.s:508    .text.check_40mhz_5g:0000000000000048 .L75
C:\Users\stapi\AppData\Local\Temp\ccxEGDhx.s:617    .text.check_40mhz_5g:00000000000000a6 .L61
C:\Users\stapi\AppData\Local\Temp\ccxEGDhx.s:689    .rodata.check_40mhz_2g4.str1.4:0000000000000000 .LC3
C:\Users\stapi\AppData\Local\Temp\ccxEGDhx.s:701    .rodata.check_40mhz_2g4.str1.4:00000000000000d8 .LC7
C:\Users\stapi\AppData\Local\Temp\ccxEGDhx.s:692    .rodata.check_40mhz_2g4.str1.4:000000000000002c .LC4
C:\Users\stapi\AppData\Local\Temp\ccxEGDhx.s:698    .rodata.check_40mhz_2g4.str1.4:00000000000000b8 .LC6
C:\Users\stapi\AppData\Local\Temp\ccxEGDhx.s:695    .rodata.check_40mhz_2g4.str1.4:0000000000000070 .LC5
C:\Users\stapi\AppData\Local\Temp\ccxEGDhx.s:704    .rodata.check_40mhz_2g4.str1.4:0000000000000120 .LC8
C:\Users\stapi\AppData\Local\Temp\ccxEGDhx.s:707    .rodata.check_40mhz_2g4.str1.4:0000000000000180 .LC9
C:\Users\stapi\AppData\Local\Temp\ccxEGDhx.s:932    .text.check_40mhz_2g4:000000000000010c .L99
C:\Users\stapi\AppData\Local\Temp\ccxEGDhx.s:820    .text.check_40mhz_2g4:0000000000000074 .L76
C:\Users\stapi\AppData\Local\Temp\ccxEGDhx.s:841    .text.check_40mhz_2g4:0000000000000080 .L95
C:\Users\stapi\AppData\Local\Temp\ccxEGDhx.s:888    .text.check_40mhz_2g4:00000000000000ae .L79
C:\Users\stapi\AppData\Local\Temp\ccxEGDhx.s:968    .text.check_40mhz_2g4:0000000000000142 .L80
C:\Users\stapi\AppData\Local\Temp\ccxEGDhx.s:992    .text.check_40mhz_2g4:000000000000015c .L91
C:\Users\stapi\AppData\Local\Temp\ccxEGDhx.s:1005   .text.check_40mhz_2g4:0000000000000164 .L89
C:\Users\stapi\AppData\Local\Temp\ccxEGDhx.s:864    .text.check_40mhz_2g4:0000000000000090 .L82
C:\Users\stapi\AppData\Local\Temp\ccxEGDhx.s:938    .text.check_40mhz_2g4:0000000000000110 .L83
C:\Users\stapi\AppData\Local\Temp\ccxEGDhx.s:917    .text.check_40mhz_2g4:00000000000000f0 .L118
C:\Users\stapi\AppData\Local\Temp\ccxEGDhx.s:982    .text.check_40mhz_2g4:0000000000000150 .L87
C:\Users\stapi\AppData\Local\Temp\ccxEGDhx.s:988    .text.check_40mhz_2g4:0000000000000158 .L88
C:\Users\stapi\AppData\Local\Temp\ccxEGDhx.s:1001   .text.check_40mhz_2g4:0000000000000160 .L90
C:\Users\stapi\AppData\Local\Temp\ccxEGDhx.s:812    .text.check_40mhz_2g4:000000000000006a .L78
C:\Users\stapi\AppData\Local\Temp\ccxEGDhx.s:1059   .text.check_40mhz_2g4:00000000000001e6 .L92
C:\Users\stapi\AppData\Local\Temp\ccxEGDhx.s:1031   .text.check_40mhz_2g4:00000000000001a0 .L93
C:\Users\stapi\AppData\Local\Temp\ccxEGDhx.s:1043   .text.check_40mhz_2g4:00000000000001c6 .L94
C:\Users\stapi\AppData\Local\Temp\ccxEGDhx.s:1115   .rodata.hostapd_set_freq_params.str1.4:0000000000000068 .LC12
C:\Users\stapi\AppData\Local\Temp\ccxEGDhx.s:1109   .rodata.hostapd_set_freq_params.str1.4:0000000000000000 .LC10
C:\Users\stapi\AppData\Local\Temp\ccxEGDhx.s:1112   .rodata.hostapd_set_freq_params.str1.4:0000000000000034 .LC11
C:\Users\stapi\AppData\Local\Temp\ccxEGDhx.s:1118   .rodata.hostapd_set_freq_params.str1.4:000000000000009c .LC13
C:\Users\stapi\AppData\Local\Temp\ccxEGDhx.s:1121   .rodata.hostapd_set_freq_params.str1.4:00000000000000d0 .LC14
C:\Users\stapi\AppData\Local\Temp\ccxEGDhx.s:1124   .rodata.hostapd_set_freq_params.str1.4:00000000000000f8 .LC15
C:\Users\stapi\AppData\Local\Temp\ccxEGDhx.s:1127   .rodata.hostapd_set_freq_params.str1.4:0000000000000120 .LC16
C:\Users\stapi\AppData\Local\Temp\ccxEGDhx.s:1130   .rodata.hostapd_set_freq_params.str1.4:0000000000000168 .LC17
C:\Users\stapi\AppData\Local\Temp\ccxEGDhx.s:1133   .rodata.hostapd_set_freq_params.str1.4:0000000000000198 .LC18
C:\Users\stapi\AppData\Local\Temp\ccxEGDhx.s:1136   .rodata.hostapd_set_freq_params.str1.4:00000000000001c0 .LC19
C:\Users\stapi\AppData\Local\Temp\ccxEGDhx.s:1139   .rodata.hostapd_set_freq_params.str1.4:00000000000001e4 .LC20
C:\Users\stapi\AppData\Local\Temp\ccxEGDhx.s:1142   .rodata.hostapd_set_freq_params.str1.4:0000000000000210 .LC21
C:\Users\stapi\AppData\Local\Temp\ccxEGDhx.s:1145   .rodata.hostapd_set_freq_params.str1.4:0000000000000248 .LC22
C:\Users\stapi\AppData\Local\Temp\ccxEGDhx.s:1148   .rodata.hostapd_set_freq_params.str1.4:0000000000000274 .LC23
C:\Users\stapi\AppData\Local\Temp\ccxEGDhx.s:1151   .rodata.hostapd_set_freq_params.str1.4:000000000000029c .LC24
C:\Users\stapi\AppData\Local\Temp\ccxEGDhx.s:1267   .text.hostapd_set_freq_params:000000000000008e .L151
C:\Users\stapi\AppData\Local\Temp\ccxEGDhx.s:1333   .text.hostapd_set_freq_params:00000000000000fc .L121
C:\Users\stapi\AppData\Local\Temp\ccxEGDhx.s:1323   .text.hostapd_set_freq_params:00000000000000e8 .L122
C:\Users\stapi\AppData\Local\Temp\ccxEGDhx.s:1272   .text.hostapd_set_freq_params:0000000000000092 .L123
C:\Users\stapi\AppData\Local\Temp\ccxEGDhx.s:1285   .text.hostapd_set_freq_params:00000000000000aa .L124
C:\Users\stapi\AppData\Local\Temp\ccxEGDhx.s:1309   .text.hostapd_set_freq_params:00000000000000d0 .L125
C:\Users\stapi\AppData\Local\Temp\ccxEGDhx.s:1404   .text.hostapd_set_freq_params:0000000000000174 .L166
C:\Users\stapi\AppData\Local\Temp\ccxEGDhx.s:1200   .text.hostapd_set_freq_params:000000000000002c .L120
C:\Users\stapi\AppData\Local\Temp\ccxEGDhx.s:1262   .text.hostapd_set_freq_params:000000000000008a .L154
C:\Users\stapi\AppData\Local\Temp\ccxEGDhx.s:1427   .text.hostapd_set_freq_params:0000000000000180 .L132
C:\Users\stapi\AppData\Local\Temp\ccxEGDhx.s:1302   .text.hostapd_set_freq_params:00000000000000c4 .L174
C:\Users\stapi\AppData\Local\Temp\ccxEGDhx.s:1370   .text.hostapd_set_freq_params:000000000000013c .L128
C:\Users\stapi\AppData\Local\Temp\ccxEGDhx.s:1648   .text.hostapd_set_freq_params:00000000000002f4 .L129
C:\Users\stapi\AppData\Local\Temp\ccxEGDhx.s:1399   .text.hostapd_set_freq_params:0000000000000172 .L175
C:\Users\stapi\AppData\Local\Temp\ccxEGDhx.s:1452   .text.hostapd_set_freq_params:00000000000001aa .L130
C:\Users\stapi\AppData\Local\Temp\ccxEGDhx.s:1653   .text.hostapd_set_freq_params:00000000000002fa .L131
C:\Users\stapi\AppData\Local\Temp\ccxEGDhx.s:1588   .text.hostapd_set_freq_params:000000000000028a .L133
C:\Users\stapi\AppData\Local\Temp\ccxEGDhx.s:1352   .text.hostapd_set_freq_params:000000000000011c .L134
C:\Users\stapi\AppData\Local\Temp\ccxEGDhx.s:1362   .text.hostapd_set_freq_params:000000000000012e .L135
C:\Users\stapi\AppData\Local\Temp\ccxEGDhx.s:1390   .text.hostapd_set_freq_params:000000000000015e .L136
C:\Users\stapi\AppData\Local\Temp\ccxEGDhx.s:1438   .text.hostapd_set_freq_params:0000000000000190 .L137
C:\Users\stapi\AppData\Local\Temp\ccxEGDhx.s:1443   .text.hostapd_set_freq_params:000000000000019a .L138
C:\Users\stapi\AppData\Local\Temp\ccxEGDhx.s:1464   .text.hostapd_set_freq_params:00000000000001c0 .L139
C:\Users\stapi\AppData\Local\Temp\ccxEGDhx.s:1475   .text.hostapd_set_freq_params:00000000000001d2 .L140
C:\Users\stapi\AppData\Local\Temp\ccxEGDhx.s:1486   .text.hostapd_set_freq_params:00000000000001e4 .L141
C:\Users\stapi\AppData\Local\Temp\ccxEGDhx.s:1551   .text.hostapd_set_freq_params:0000000000000250 .L142
C:\Users\stapi\AppData\Local\Temp\ccxEGDhx.s:1539   .text.hostapd_set_freq_params:000000000000023e .L143
C:\Users\stapi\AppData\Local\Temp\ccxEGDhx.s:1569   .text.hostapd_set_freq_params:000000000000026a .L144
C:\Users\stapi\AppData\Local\Temp\ccxEGDhx.s:1558   .text.hostapd_set_freq_params:0000000000000258 .L145
C:\Users\stapi\AppData\Local\Temp\ccxEGDhx.s:1600   .text.hostapd_set_freq_params:000000000000029e .L146
C:\Users\stapi\AppData\Local\Temp\ccxEGDhx.s:1608   .text.hostapd_set_freq_params:00000000000002ac .L147
C:\Users\stapi\AppData\Local\Temp\ccxEGDhx.s:1313   .text.hostapd_set_freq_params:00000000000000d4 .L148
C:\Users\stapi\AppData\Local\Temp\ccxEGDhx.s:1368   .text.hostapd_set_freq_params:0000000000000138 .L149
C:\Users\stapi\AppData\Local\Temp\ccxEGDhx.s:1685   .text.set_disable_ht40:000000000000001a .L178
C:\Users\stapi\AppData\Local\Temp\ccxEGDhx.s:1718   .text.num_chan_to_bw:000000000000001a .L181
C:\Users\stapi\AppData\Local\Temp\ccxEGDhx.s:1722   .text.num_chan_to_bw:000000000000001c .L179
C:\Users\stapi\AppData\Local\Temp\ccxEGDhx.s:1786   .text.chan_bw_allowed:0000000000000046 .L188
C:\Users\stapi\AppData\Local\Temp\ccxEGDhx.s:1763   .text.chan_bw_allowed:000000000000002a .L186
C:\Users\stapi\AppData\Local\Temp\ccxEGDhx.s:1751   .text.chan_bw_allowed:000000000000001e .L185
C:\Users\stapi\AppData\Local\Temp\ccxEGDhx.s:1773   .text.chan_bw_allowed:000000000000003a .L187
C:\Users\stapi\AppData\Local\Temp\ccxEGDhx.s:1814   .text.chan_pri_allowed:000000000000000e .L196
C:\Users\stapi\AppData\Local\Temp\ccxEGDhx.s:1825   .rodata.allowed_ht40_channel_pair.str1.4:0000000000000000 .LC25
C:\Users\stapi\AppData\Local\Temp\ccxEGDhx.s:1828   .rodata.allowed_ht40_channel_pair.str1.4:0000000000000028 .LC26
C:\Users\stapi\AppData\Local\Temp\ccxEGDhx.s:1831   .rodata.allowed_ht40_channel_pair.str1.4:000000000000006c .LC27
C:\Users\stapi\AppData\Local\Temp\ccxEGDhx.s:1834   .rodata.allowed_ht40_channel_pair.str1.4:0000000000000094 .LC28
C:\Users\stapi\AppData\Local\Temp\ccxEGDhx.s:1915   .text.allowed_ht40_channel_pair:0000000000000052 .L197
C:\Users\stapi\AppData\Local\Temp\ccxEGDhx.s:1897   .text.allowed_ht40_channel_pair:000000000000003e .L199
C:\Users\stapi\AppData\Local\Temp\ccxEGDhx.s:1942   .text.allowed_ht40_channel_pair:0000000000000072 .L200
C:\Users\stapi\AppData\Local\Temp\ccxEGDhx.s:1930   .text.allowed_ht40_channel_pair:000000000000005e .L201
C:\Users\stapi\AppData\Local\Temp\ccxEGDhx.s:1970   .text.allowed_ht40_channel_pair:00000000000000a6 .L202
C:\Users\stapi\AppData\Local\Temp\ccxEGDhx.s:1982   .text.allowed_ht40_channel_pair:00000000000000be .L203
C:\Users\stapi\AppData\Local\Temp\ccxEGDhx.s:1986   .text.allowed_ht40_channel_pair:00000000000000c2 .L204
C:\Users\stapi\AppData\Local\Temp\ccxEGDhx.s:1967   .text.allowed_ht40_channel_pair:00000000000000a4 .L217
C:\Users\stapi\AppData\Local\Temp\ccxEGDhx.s:1911   .text.allowed_ht40_channel_pair:0000000000000050 .L205
C:\Users\stapi\AppData\Local\Temp\ccxEGDhx.s:1999   .text.allowed_ht40_channel_pair:00000000000000ce .L206
C:\Users\stapi\AppData\Local\Temp\ccxEGDhx.s:5744   .debug_abbrev:0000000000000000 .Ldebug_abbrev0
C:\Users\stapi\AppData\Local\Temp\ccxEGDhx.s:9001   .debug_str:0000000000000f44 .LASF306
C:\Users\stapi\AppData\Local\Temp\ccxEGDhx.s:8829   .debug_str:0000000000000a5a .LASF307
C:\Users\stapi\AppData\Local\Temp\ccxEGDhx.s:8575   .debug_str:000000000000042b .LASF308
C:\Users\stapi\AppData\Local\Temp\ccxEGDhx.s:8307   .debug_ranges:0000000000000000 .Ldebug_ranges0
C:\Users\stapi\AppData\Local\Temp\ccxEGDhx.s:8411   .debug_line:0000000000000000 .Ldebug_line0
C:\Users\stapi\AppData\Local\Temp\ccxEGDhx.s:8599   .debug_str:0000000000000548 .LASF1
C:\Users\stapi\AppData\Local\Temp\ccxEGDhx.s:8883   .debug_str:0000000000000c46 .LASF0
C:\Users\stapi\AppData\Local\Temp\ccxEGDhx.s:8783   .debug_str:0000000000000963 .LASF2
C:\Users\stapi\AppData\Local\Temp\ccxEGDhx.s:8969   .debug_str:0000000000000e7e .LASF3
C:\Users\stapi\AppData\Local\Temp\ccxEGDhx.s:8869   .debug_str:0000000000000c01 .LASF4
C:\Users\stapi\AppData\Local\Temp\ccxEGDhx.s:8927   .debug_str:0000000000000d56 .LASF5
C:\Users\stapi\AppData\Local\Temp\ccxEGDhx.s:8821   .debug_str:0000000000000a38 .LASF6
C:\Users\stapi\AppData\Local\Temp\ccxEGDhx.s:8567   .debug_str:00000000000003f4 .LASF7
C:\Users\stapi\AppData\Local\Temp\ccxEGDhx.s:8973   .debug_str:0000000000000e97 .LASF8
C:\Users\stapi\AppData\Local\Temp\ccxEGDhx.s:8827   .debug_str:0000000000000a51 .LASF9
C:\Users\stapi\AppData\Local\Temp\ccxEGDhx.s:8929   .debug_str:0000000000000d64 .LASF10
C:\Users\stapi\AppData\Local\Temp\ccxEGDhx.s:8895   .debug_str:0000000000000c96 .LASF11
C:\Users\stapi\AppData\Local\Temp\ccxEGDhx.s:8707   .debug_str:0000000000000795 .LASF12
C:\Users\stapi\AppData\Local\Temp\ccxEGDhx.s:8625   .debug_str:00000000000005c5 .LASF13
C:\Users\stapi\AppData\Local\Temp\ccxEGDhx.s:8563   .debug_str:00000000000003d5 .LASF14
C:\Users\stapi\AppData\Local\Temp\ccxEGDhx.s:8661   .debug_str:0000000000000682 .LASF15
C:\Users\stapi\AppData\Local\Temp\ccxEGDhx.s:8531   .debug_str:000000000000030c .LASF16
C:\Users\stapi\AppData\Local\Temp\ccxEGDhx.s:8689   .debug_str:0000000000000724 .LASF17
C:\Users\stapi\AppData\Local\Temp\ccxEGDhx.s:8923   .debug_str:0000000000000d40 .LASF18
C:\Users\stapi\AppData\Local\Temp\ccxEGDhx.s:8529   .debug_str:0000000000000303 .LASF19
C:\Users\stapi\AppData\Local\Temp\ccxEGDhx.s:8849   .debug_str:0000000000000b81 .LASF20
C:\Users\stapi\AppData\Local\Temp\ccxEGDhx.s:8613   .debug_str:0000000000000593 .LASF21
C:\Users\stapi\AppData\Local\Temp\ccxEGDhx.s:8703   .debug_str:0000000000000782 .LASF22
C:\Users\stapi\AppData\Local\Temp\ccxEGDhx.s:8983   .debug_str:0000000000000ed5 .LASF38
C:\Users\stapi\AppData\Local\Temp\ccxEGDhx.s:8981   .debug_str:0000000000000ed0 .LASF23
C:\Users\stapi\AppData\Local\Temp\ccxEGDhx.s:8533   .debug_str:0000000000000313 .LASF24
C:\Users\stapi\AppData\Local\Temp\ccxEGDhx.s:8609   .debug_str:0000000000000589 .LASF25
C:\Users\stapi\AppData\Local\Temp\ccxEGDhx.s:8605   .debug_str:000000000000056c .LASF26
C:\Users\stapi\AppData\Local\Temp\ccxEGDhx.s:8781   .debug_str:0000000000000957 .LASF27
C:\Users\stapi\AppData\Local\Temp\ccxEGDhx.s:8577   .debug_str:00000000000004bd .LASF28
C:\Users\stapi\AppData\Local\Temp\ccxEGDhx.s:8705   .debug_str:000000000000078c .LASF29
C:\Users\stapi\AppData\Local\Temp\ccxEGDhx.s:8719   .debug_str:00000000000007d9 .LASF30
C:\Users\stapi\AppData\Local\Temp\ccxEGDhx.s:8675   .debug_str:00000000000006db .LASF31
C:\Users\stapi\AppData\Local\Temp\ccxEGDhx.s:8907   .debug_str:0000000000000ce9 .LASF52
C:\Users\stapi\AppData\Local\Temp\ccxEGDhx.s:8519   .debug_str:00000000000002a2 .LASF32
C:\Users\stapi\AppData\Local\Temp\ccxEGDhx.s:8851   .debug_str:0000000000000b8a .LASF33
C:\Users\stapi\AppData\Local\Temp\ccxEGDhx.s:8845   .debug_str:0000000000000b64 .LASF34
C:\Users\stapi\AppData\Local\Temp\ccxEGDhx.s:8521   .debug_str:00000000000002ba .LASF35
C:\Users\stapi\AppData\Local\Temp\ccxEGDhx.s:8831   .debug_str:0000000000000af3 .LASF36
C:\Users\stapi\AppData\Local\Temp\ccxEGDhx.s:8709   .debug_str:00000000000007a3 .LASF37
C:\Users\stapi\AppData\Local\Temp\ccxEGDhx.s:8967   .debug_str:0000000000000e64 .LASF39
C:\Users\stapi\AppData\Local\Temp\ccxEGDhx.s:8947   .debug_str:0000000000000dc9 .LASF40
C:\Users\stapi\AppData\Local\Temp\ccxEGDhx.s:9031   .debug_str:00000000000010f1 .LASF41
C:\Users\stapi\AppData\Local\Temp\ccxEGDhx.s:8873   .debug_str:0000000000000c17 .LASF42
C:\Users\stapi\AppData\Local\Temp\ccxEGDhx.s:8525   .debug_str:00000000000002dd .LASF43
C:\Users\stapi\AppData\Local\Temp\ccxEGDhx.s:8699   .debug_str:000000000000075c .LASF44
C:\Users\stapi\AppData\Local\Temp\ccxEGDhx.s:8489   .debug_str:00000000000001de .LASF45
C:\Users\stapi\AppData\Local\Temp\ccxEGDhx.s:8545   .debug_str:000000000000035f .LASF46
C:\Users\stapi\AppData\Local\Temp\ccxEGDhx.s:8841   .debug_str:0000000000000b4b .LASF47
C:\Users\stapi\AppData\Local\Temp\ccxEGDhx.s:8421   .debug_str:000000000000004b .LASF48
C:\Users\stapi\AppData\Local\Temp\ccxEGDhx.s:8859   .debug_str:0000000000000bd1 .LASF49
C:\Users\stapi\AppData\Local\Temp\ccxEGDhx.s:8743   .debug_str:0000000000000856 .LASF50
C:\Users\stapi\AppData\Local\Temp\ccxEGDhx.s:8515   .debug_str:000000000000027d .LASF51
C:\Users\stapi\AppData\Local\Temp\ccxEGDhx.s:8607   .debug_str:000000000000057a .LASF53
C:\Users\stapi\AppData\Local\Temp\ccxEGDhx.s:8749   .debug_str:000000000000086c .LASF54
C:\Users\stapi\AppData\Local\Temp\ccxEGDhx.s:8751   .debug_str:000000000000087d .LASF55
C:\Users\stapi\AppData\Local\Temp\ccxEGDhx.s:8555   .debug_str:00000000000003a6 .LASF56
C:\Users\stapi\AppData\Local\Temp\ccxEGDhx.s:8691   .debug_str:000000000000072c .LASF57
C:\Users\stapi\AppData\Local\Temp\ccxEGDhx.s:8797   .debug_str:00000000000009b1 .LASF58
C:\Users\stapi\AppData\Local\Temp\ccxEGDhx.s:8645   .debug_str:0000000000000629 .LASF59
C:\Users\stapi\AppData\Local\Temp\ccxEGDhx.s:8801   .debug_str:00000000000009c3 .LASF60
C:\Users\stapi\AppData\Local\Temp\ccxEGDhx.s:8725   .debug_str:0000000000000805 .LASF61
C:\Users\stapi\AppData\Local\Temp\ccxEGDhx.s:8941   .debug_str:0000000000000dae .LASF62
C:\Users\stapi\AppData\Local\Temp\ccxEGDhx.s:8877   .debug_str:0000000000000c32 .LASF63
C:\Users\stapi\AppData\Local\Temp\ccxEGDhx.s:8535   .debug_str:0000000000000318 .LASF64
C:\Users\stapi\AppData\Local\Temp\ccxEGDhx.s:8901   .debug_str:0000000000000cc0 .LASF65
C:\Users\stapi\AppData\Local\Temp\ccxEGDhx.s:8659   .debug_str:000000000000067d .LASF66
C:\Users\stapi\AppData\Local\Temp\ccxEGDhx.s:8861   .debug_str:0000000000000be0 .LASF67
C:\Users\stapi\AppData\Local\Temp\ccxEGDhx.s:9029   .debug_str:00000000000010e7 .LASF68
C:\Users\stapi\AppData\Local\Temp\ccxEGDhx.s:8893   .debug_str:0000000000000c8c .LASF69
C:\Users\stapi\AppData\Local\Temp\ccxEGDhx.s:8637   .debug_str:0000000000000600 .LASF70
C:\Users\stapi\AppData\Local\Temp\ccxEGDhx.s:8727   .debug_str:000000000000080b .LASF71
C:\Users\stapi\AppData\Local\Temp\ccxEGDhx.s:8509   .debug_str:0000000000000263 .LASF72
C:\Users\stapi\AppData\Local\Temp\ccxEGDhx.s:8739   .debug_str:0000000000000848 .LASF73
C:\Users\stapi\AppData\Local\Temp\ccxEGDhx.s:8451   .debug_str:0000000000000118 .LASF74
C:\Users\stapi\AppData\Local\Temp\ccxEGDhx.s:8483   .debug_str:00000000000001b9 .LASF75
C:\Users\stapi\AppData\Local\Temp\ccxEGDhx.s:8755   .debug_str:000000000000089c .LASF76
C:\Users\stapi\AppData\Local\Temp\ccxEGDhx.s:8889   .debug_str:0000000000000c6d .LASF77
C:\Users\stapi\AppData\Local\Temp\ccxEGDhx.s:8469   .debug_str:000000000000017d .LASF78
C:\Users\stapi\AppData\Local\Temp\ccxEGDhx.s:8945   .debug_str:0000000000000dc4 .LASF79
C:\Users\stapi\AppData\Local\Temp\ccxEGDhx.s:8803   .debug_str:00000000000009d1 .LASF80
C:\Users\stapi\AppData\Local\Temp\ccxEGDhx.s:8603   .debug_str:000000000000055c .LASF81
C:\Users\stapi\AppData\Local\Temp\ccxEGDhx.s:8487   .debug_str:00000000000001d1 .LASF82
C:\Users\stapi\AppData\Local\Temp\ccxEGDhx.s:8871   .debug_str:0000000000000c0b .LASF83
C:\Users\stapi\AppData\Local\Temp\ccxEGDhx.s:8437   .debug_str:00000000000000c0 .LASF84
C:\Users\stapi\AppData\Local\Temp\ccxEGDhx.s:8589   .debug_str:000000000000050a .LASF85
C:\Users\stapi\AppData\Local\Temp\ccxEGDhx.s:8763   .debug_str:00000000000008d3 .LASF86
C:\Users\stapi\AppData\Local\Temp\ccxEGDhx.s:8765   .debug_str:00000000000008e4 .LASF87
C:\Users\stapi\AppData\Local\Temp\ccxEGDhx.s:8417   .debug_str:0000000000000020 .LASF88
C:\Users\stapi\AppData\Local\Temp\ccxEGDhx.s:8933   .debug_str:0000000000000d83 .LASF89
C:\Users\stapi\AppData\Local\Temp\ccxEGDhx.s:8993   .debug_str:0000000000000f1f .LASF90
C:\Users\stapi\AppData\Local\Temp\ccxEGDhx.s:8585   .debug_str:00000000000004f2 .LASF91
C:\Users\stapi\AppData\Local\Temp\ccxEGDhx.s:8601   .debug_str:000000000000054f .LASF92
C:\Users\stapi\AppData\Local\Temp\ccxEGDhx.s:8843   .debug_str:0000000000000b58 .LASF93
C:\Users\stapi\AppData\Local\Temp\ccxEGDhx.s:8717   .debug_str:00000000000007d4 .LASF94
C:\Users\stapi\AppData\Local\Temp\ccxEGDhx.s:8465   .debug_str:0000000000000169 .LASF95
C:\Users\stapi\AppData\Local\Temp\ccxEGDhx.s:8977   .debug_str:0000000000000eb1 .LASF96
C:\Users\stapi\AppData\Local\Temp\ccxEGDhx.s:8643   .debug_str:000000000000061f .LASF97
C:\Users\stapi\AppData\Local\Temp\ccxEGDhx.s:9003   .debug_str:000000000000103d .LASF98
C:\Users\stapi\AppData\Local\Temp\ccxEGDhx.s:8539   .debug_str:000000000000033d .LASF99
C:\Users\stapi\AppData\Local\Temp\ccxEGDhx.s:8949   .debug_str:0000000000000dde .LASF100
C:\Users\stapi\AppData\Local\Temp\ccxEGDhx.s:8919   .debug_str:0000000000000d2a .LASF101
C:\Users\stapi\AppData\Local\Temp\ccxEGDhx.s:8453   .debug_str:000000000000011e .LASF102
C:\Users\stapi\AppData\Local\Temp\ccxEGDhx.s:8987   .debug_str:0000000000000eec .LASF103
C:\Users\stapi\AppData\Local\Temp\ccxEGDhx.s:9005   .debug_str:0000000000001042 .LASF104
C:\Users\stapi\AppData\Local\Temp\ccxEGDhx.s:9009   .debug_str:0000000000001059 .LASF105
C:\Users\stapi\AppData\Local\Temp\ccxEGDhx.s:8471   .debug_str:0000000000000182 .LASF106
C:\Users\stapi\AppData\Local\Temp\ccxEGDhx.s:8795   .debug_str:00000000000009a0 .LASF107
C:\Users\stapi\AppData\Local\Temp\ccxEGDhx.s:8961   .debug_str:0000000000000e43 .LASF108
C:\Users\stapi\AppData\Local\Temp\ccxEGDhx.s:9033   .debug_str:00000000000010ff .LASF109
C:\Users\stapi\AppData\Local\Temp\ccxEGDhx.s:8681   .debug_str:00000000000006f3 .LASF110
C:\Users\stapi\AppData\Local\Temp\ccxEGDhx.s:8785   .debug_str:000000000000096c .LASF111
C:\Users\stapi\AppData\Local\Temp\ccxEGDhx.s:8413   .debug_str:0000000000000000 .LASF112
C:\Users\stapi\AppData\Local\Temp\ccxEGDhx.s:8627   .debug_str:00000000000005d0 .LASF113
C:\Users\stapi\AppData\Local\Temp\ccxEGDhx.s:8615   .debug_str:0000000000000599 .LASF114
C:\Users\stapi\AppData\Local\Temp\ccxEGDhx.s:8903   .debug_str:0000000000000cd1 .LASF115
C:\Users\stapi\AppData\Local\Temp\ccxEGDhx.s:8693   .debug_str:0000000000000738 .LASF116
C:\Users\stapi\AppData\Local\Temp\ccxEGDhx.s:8911   .debug_str:0000000000000d02 .LASF117
C:\Users\stapi\AppData\Local\Temp\ccxEGDhx.s:8415   .debug_str:0000000000000014 .LASF118
C:\Users\stapi\AppData\Local\Temp\ccxEGDhx.s:8891   .debug_str:0000000000000c7b .LASF119
C:\Users\stapi\AppData\Local\Temp\ccxEGDhx.s:8593   .debug_str:0000000000000520 .LASF120
C:\Users\stapi\AppData\Local\Temp\ccxEGDhx.s:8935   .debug_str:0000000000000d91 .LASF121
C:\Users\stapi\AppData\Local\Temp\ccxEGDhx.s:8761   .debug_str:00000000000008c3 .LASF122
C:\Users\stapi\AppData\Local\Temp\ccxEGDhx.s:8815   .debug_str:0000000000000a17 .LASF123
C:\Users\stapi\AppData\Local\Temp\ccxEGDhx.s:8429   .debug_str:000000000000007f .LASF124
C:\Users\stapi\AppData\Local\Temp\ccxEGDhx.s:8503   .debug_str:0000000000000232 .LASF125
C:\Users\stapi\AppData\Local\Temp\ccxEGDhx.s:8621   .debug_str:00000000000005b5 .LASF126
C:\Users\stapi\AppData\Local\Temp\ccxEGDhx.s:8467   .debug_str:0000000000000173 .LASF127
C:\Users\stapi\AppData\Local\Temp\ccxEGDhx.s:8913   .debug_str:0000000000000d09 .LASF128
C:\Users\stapi\AppData\Local\Temp\ccxEGDhx.s:8695   .debug_str:0000000000000743 .LASF129
C:\Users\stapi\AppData\Local\Temp\ccxEGDhx.s:8809   .debug_str:00000000000009f0 .LASF130
C:\Users\stapi\AppData\Local\Temp\ccxEGDhx.s:8485   .debug_str:00000000000001c3 .LASF131
C:\Users\stapi\AppData\Local\Temp\ccxEGDhx.s:8647   .debug_str:0000000000000631 .LASF132
C:\Users\stapi\AppData\Local\Temp\ccxEGDhx.s:8769   .debug_str:00000000000008fa .LASF133
C:\Users\stapi\AppData\Local\Temp\ccxEGDhx.s:9013   .debug_str:000000000000106f .LASF134
C:\Users\stapi\AppData\Local\Temp\ccxEGDhx.s:8799   .debug_str:00000000000009b9 .LASF135
C:\Users\stapi\AppData\Local\Temp\ccxEGDhx.s:8511   .debug_str:000000000000026a .LASF136
C:\Users\stapi\AppData\Local\Temp\ccxEGDhx.s:8753   .debug_str:000000000000088e .LASF137
C:\Users\stapi\AppData\Local\Temp\ccxEGDhx.s:8897   .debug_str:0000000000000ca8 .LASF138
C:\Users\stapi\AppData\Local\Temp\ccxEGDhx.s:8449   .debug_str:0000000000000106 .LASF139
C:\Users\stapi\AppData\Local\Temp\ccxEGDhx.s:8715   .debug_str:00000000000007cb .LASF140
C:\Users\stapi\AppData\Local\Temp\ccxEGDhx.s:8965   .debug_str:0000000000000e5b .LASF141
C:\Users\stapi\AppData\Local\Temp\ccxEGDhx.s:8905   .debug_str:0000000000000cd9 .LASF142
C:\Users\stapi\AppData\Local\Temp\ccxEGDhx.s:8955   .debug_str:0000000000000e19 .LASF143
C:\Users\stapi\AppData\Local\Temp\ccxEGDhx.s:8759   .debug_str:00000000000008b5 .LASF144
C:\Users\stapi\AppData\Local\Temp\ccxEGDhx.s:8757   .debug_str:00000000000008a3 .LASF145
C:\Users\stapi\AppData\Local\Temp\ccxEGDhx.s:8857   .debug_str:0000000000000bc2 .LASF146
C:\Users\stapi\AppData\Local\Temp\ccxEGDhx.s:8721   .debug_str:00000000000007e5 .LASF147
C:\Users\stapi\AppData\Local\Temp\ccxEGDhx.s:8501   .debug_str:000000000000022a .LASF148
C:\Users\stapi\AppData\Local\Temp\ccxEGDhx.s:8777   .debug_str:0000000000000931 .LASF149
C:\Users\stapi\AppData\Local\Temp\ccxEGDhx.s:8701   .debug_str:0000000000000772 .LASF150
C:\Users\stapi\AppData\Local\Temp\ccxEGDhx.s:8623   .debug_str:00000000000005bc .LASF151
C:\Users\stapi\AppData\Local\Temp\ccxEGDhx.s:8943   .debug_str:0000000000000db6 .LASF152
C:\Users\stapi\AppData\Local\Temp\ccxEGDhx.s:8793   .debug_str:0000000000000992 .LASF153
C:\Users\stapi\AppData\Local\Temp\ccxEGDhx.s:8439   .debug_str:00000000000000c8 .LASF154
C:\Users\stapi\AppData\Local\Temp\ccxEGDhx.s:8553   .debug_str:000000000000039e .LASF155
C:\Users\stapi\AppData\Local\Temp\ccxEGDhx.s:8683   .debug_str:0000000000000700 .LASF156
C:\Users\stapi\AppData\Local\Temp\ccxEGDhx.s:8825   .debug_str:0000000000000a49 .LASF157
C:\Users\stapi\AppData\Local\Temp\ccxEGDhx.s:8853   .debug_str:0000000000000ba2 .LASF158
C:\Users\stapi\AppData\Local\Temp\ccxEGDhx.s:8989   .debug_str:0000000000000ef7 .LASF159
C:\Users\stapi\AppData\Local\Temp\ccxEGDhx.s:8441   .debug_str:00000000000000d1 .LASF160
C:\Users\stapi\AppData\Local\Temp\ccxEGDhx.s:8957   .debug_str:0000000000000e25 .LASF161
C:\Users\stapi\AppData\Local\Temp\ccxEGDhx.s:8547   .debug_str:0000000000000376 .LASF162
C:\Users\stapi\AppData\Local\Temp\ccxEGDhx.s:9027   .debug_str:00000000000010de .LASF163
C:\Users\stapi\AppData\Local\Temp\ccxEGDhx.s:8991   .debug_str:0000000000000f0b .LASF164
C:\Users\stapi\AppData\Local\Temp\ccxEGDhx.s:8457   .debug_str:0000000000000136 .LASF165
C:\Users\stapi\AppData\Local\Temp\ccxEGDhx.s:8971   .debug_str:0000000000000e8a .LASF166
C:\Users\stapi\AppData\Local\Temp\ccxEGDhx.s:8667   .debug_str:000000000000069c .LASF167
C:\Users\stapi\AppData\Local\Temp\ccxEGDhx.s:8499   .debug_str:0000000000000219 .LASF168
C:\Users\stapi\AppData\Local\Temp\ccxEGDhx.s:8633   .debug_str:00000000000005e9 .LASF169
C:\Users\stapi\AppData\Local\Temp\ccxEGDhx.s:8787   .debug_str:0000000000000975 .LASF170
C:\Users\stapi\AppData\Local\Temp\ccxEGDhx.s:8425   .debug_str:0000000000000060 .LASF171
C:\Users\stapi\AppData\Local\Temp\ccxEGDhx.s:8697   .debug_str:000000000000074c .LASF172
C:\Users\stapi\AppData\Local\Temp\ccxEGDhx.s:8779   .debug_str:0000000000000942 .LASF173
C:\Users\stapi\AppData\Local\Temp\ccxEGDhx.s:8811   .debug_str:00000000000009ff .LASF174
C:\Users\stapi\AppData\Local\Temp\ccxEGDhx.s:8463   .debug_str:0000000000000161 .LASF175
C:\Users\stapi\AppData\Local\Temp\ccxEGDhx.s:8527   .debug_str:00000000000002f6 .LASF176
C:\Users\stapi\AppData\Local\Temp\ccxEGDhx.s:8431   .debug_str:000000000000008f .LASF177
C:\Users\stapi\AppData\Local\Temp\ccxEGDhx.s:8733   .debug_str:000000000000082c .LASF178
C:\Users\stapi\AppData\Local\Temp\ccxEGDhx.s:9025   .debug_str:00000000000010ca .LASF179
C:\Users\stapi\AppData\Local\Temp\ccxEGDhx.s:8979   .debug_str:0000000000000ec5 .LASF180
C:\Users\stapi\AppData\Local\Temp\ccxEGDhx.s:8885   .debug_str:0000000000000c53 .LASF181
C:\Users\stapi\AppData\Local\Temp\ccxEGDhx.s:8747   .debug_str:0000000000000865 .LASF182
C:\Users\stapi\AppData\Local\Temp\ccxEGDhx.s:8729   .debug_str:000000000000081a .LASF183
C:\Users\stapi\AppData\Local\Temp\ccxEGDhx.s:8963   .debug_str:0000000000000e53 .LASF184
C:\Users\stapi\AppData\Local\Temp\ccxEGDhx.s:8459   .debug_str:000000000000014b .LASF185
C:\Users\stapi\AppData\Local\Temp\ccxEGDhx.s:8493   .debug_str:00000000000001fa .LASF186
C:\Users\stapi\AppData\Local\Temp\ccxEGDhx.s:8723   .debug_str:00000000000007ed .LASF187
C:\Users\stapi\AppData\Local\Temp\ccxEGDhx.s:8435   .debug_str:00000000000000aa .LASF188
C:\Users\stapi\AppData\Local\Temp\ccxEGDhx.s:8595   .debug_str:000000000000052c .LASF189
C:\Users\stapi\AppData\Local\Temp\ccxEGDhx.s:8953   .debug_str:0000000000000e02 .LASF190
C:\Users\stapi\AppData\Local\Temp\ccxEGDhx.s:8447   .debug_str:00000000000000ef .LASF191
C:\Users\stapi\AppData\Local\Temp\ccxEGDhx.s:8839   .debug_str:0000000000000b35 .LASF192
C:\Users\stapi\AppData\Local\Temp\ccxEGDhx.s:8517   .debug_str:000000000000028b .LASF193
C:\Users\stapi\AppData\Local\Temp\ccxEGDhx.s:8673   .debug_str:00000000000006ca .LASF194
C:\Users\stapi\AppData\Local\Temp\ccxEGDhx.s:8665   .debug_str:0000000000000692 .LASF195
C:\Users\stapi\AppData\Local\Temp\ccxEGDhx.s:8639   .debug_str:0000000000000609 .LASF196
C:\Users\stapi\AppData\Local\Temp\ccxEGDhx.s:8677   .debug_str:00000000000006e5 .LASF197
C:\Users\stapi\AppData\Local\Temp\ccxEGDhx.s:8909   .debug_str:0000000000000cf9 .LASF198
C:\Users\stapi\AppData\Local\Temp\ccxEGDhx.s:8951   .debug_str:0000000000000ded .LASF199
C:\Users\stapi\AppData\Local\Temp\ccxEGDhx.s:8655   .debug_str:0000000000000669 .LASF200
C:\Users\stapi\AppData\Local\Temp\ccxEGDhx.s:8631   .debug_str:00000000000005e4 .LASF201
C:\Users\stapi\AppData\Local\Temp\ccxEGDhx.s:8847   .debug_str:0000000000000b7c .LASF202
C:\Users\stapi\AppData\Local\Temp\ccxEGDhx.s:8477   .debug_str:00000000000001a0 .LASF203
C:\Users\stapi\AppData\Local\Temp\ccxEGDhx.s:8899   .debug_str:0000000000000cb3 .LASF204
C:\Users\stapi\AppData\Local\Temp\ccxEGDhx.s:8571   .debug_str:000000000000040c .LASF205
C:\Users\stapi\AppData\Local\Temp\ccxEGDhx.s:8629   .debug_str:00000000000005dd .LASF206
C:\Users\stapi\AppData\Local\Temp\ccxEGDhx.s:8513   .debug_str:0000000000000272 .LASF207
C:\Users\stapi\AppData\Local\Temp\ccxEGDhx.s:9007   .debug_str:0000000000001049 .LASF208
C:\Users\stapi\AppData\Local\Temp\ccxEGDhx.s:8651   .debug_str:0000000000000651 .LASF209
C:\Users\stapi\AppData\Local\Temp\ccxEGDhx.s:8579   .debug_str:00000000000004c7 .LASF210
C:\Users\stapi\AppData\Local\Temp\ccxEGDhx.s:8549   .debug_str:0000000000000385 .LASF211
C:\Users\stapi\AppData\Local\Temp\ccxEGDhx.s:8443   .debug_str:00000000000000e1 .LASF212
C:\Users\stapi\AppData\Local\Temp\ccxEGDhx.s:8617   .debug_str:00000000000005a6 .LASF213
C:\Users\stapi\AppData\Local\Temp\ccxEGDhx.s:8649   .debug_str:0000000000000644 .LASF214
C:\Users\stapi\AppData\Local\Temp\ccxEGDhx.s:8543   .debug_str:0000000000000349 .LASF215
C:\Users\stapi\AppData\Local\Temp\ccxEGDhx.s:8731   .debug_str:0000000000000823 .LASF216
C:\Users\stapi\AppData\Local\Temp\ccxEGDhx.s:8685   .debug_str:0000000000000709 .LASF217
C:\Users\stapi\AppData\Local\Temp\ccxEGDhx.s:8551   .debug_str:000000000000038d .LASF218
C:\Users\stapi\AppData\Local\Temp\ccxEGDhx.s:8611   .debug_str:000000000000058e .LASF219
C:\Users\stapi\AppData\Local\Temp\ccxEGDhx.s:8833   .debug_str:0000000000000b0d .LASF220
C:\Users\stapi\AppData\Local\Temp\ccxEGDhx.s:8619   .debug_str:00000000000005ab .LASF221
C:\Users\stapi\AppData\Local\Temp\ccxEGDhx.s:8921   .debug_str:0000000000000d3a .LASF222
C:\Users\stapi\AppData\Local\Temp\ccxEGDhx.s:8875   .debug_str:0000000000000c29 .LASF223
C:\Users\stapi\AppData\Local\Temp\ccxEGDhx.s:8565   .debug_str:00000000000003ec .LASF224
C:\Users\stapi\AppData\Local\Temp\ccxEGDhx.s:8523   .debug_str:00000000000002d3 .LASF225
C:\Users\stapi\AppData\Local\Temp\ccxEGDhx.s:8789   .debug_str:0000000000000981 .LASF226
C:\Users\stapi\AppData\Local\Temp\ccxEGDhx.s:8445   .debug_str:00000000000000e9 .LASF227
C:\Users\stapi\AppData\Local\Temp\ccxEGDhx.s:8671   .debug_str:00000000000006c1 .LASF228
C:\Users\stapi\AppData\Local\Temp\ccxEGDhx.s:8879   .debug_str:0000000000000c3b .LASF229
C:\Users\stapi\AppData\Local\Temp\ccxEGDhx.s:8939   .debug_str:0000000000000da1 .LASF230
C:\Users\stapi\AppData\Local\Temp\ccxEGDhx.s:8867   .debug_str:0000000000000bfb .LASF231
C:\Users\stapi\AppData\Local\Temp\ccxEGDhx.s:8771   .debug_str:0000000000000905 .LASF232
C:\Users\stapi\AppData\Local\Temp\ccxEGDhx.s:8791   .debug_str:000000000000098d .LASF233
C:\Users\stapi\AppData\Local\Temp\ccxEGDhx.s:8735   .debug_str:000000000000083d .LASF234
C:\Users\stapi\AppData\Local\Temp\ccxEGDhx.s:8999   .debug_str:0000000000000f3e .LASF235
C:\Users\stapi\AppData\Local\Temp\ccxEGDhx.s:8481   .debug_str:00000000000001b3 .LASF236
C:\Users\stapi\AppData\Local\Temp\ccxEGDhx.s:8657   .debug_str:000000000000066e .LASF237
C:\Users\stapi\AppData\Local\Temp\ccxEGDhx.s:9011   .debug_str:0000000000001064 .LASF238
C:\Users\stapi\AppData\Local\Temp\ccxEGDhx.s:8583   .debug_str:00000000000004e8 .LASF239
C:\Users\stapi\AppData\Local\Temp\ccxEGDhx.s:8653   .debug_str:000000000000065b .LASF240
C:\Users\stapi\AppData\Local\Temp\ccxEGDhx.s:8461   .debug_str:0000000000000150 .LASF241
C:\Users\stapi\AppData\Local\Temp\ccxEGDhx.s:8663   .debug_str:0000000000000687 .LASF242
C:\Users\stapi\AppData\Local\Temp\ccxEGDhx.s:8931   .debug_str:0000000000000d6f .LASF243
C:\Users\stapi\AppData\Local\Temp\ccxEGDhx.s:8807   .debug_str:00000000000009e8 .LASF244
C:\Users\stapi\AppData\Local\Temp\ccxEGDhx.s:8997   .debug_str:0000000000000f33 .LASF245
C:\Users\stapi\AppData\Local\Temp\ccxEGDhx.s:8573   .debug_str:0000000000000418 .LASF246
C:\Users\stapi\AppData\Local\Temp\ccxEGDhx.s:8423   .debug_str:0000000000000054 .LASF247
C:\Users\stapi\AppData\Local\Temp\ccxEGDhx.s:8805   .debug_str:00000000000009dd .LASF248
C:\Users\stapi\AppData\Local\Temp\ccxEGDhx.s:8569   .debug_str:00000000000003ff .LASF249
C:\Users\stapi\AppData\Local\Temp\ccxEGDhx.s:8917   .debug_str:0000000000000d1d .LASF250
C:\Users\stapi\AppData\Local\Temp\ccxEGDhx.s:8887   .debug_str:0000000000000c63 .LASF251
C:\Users\stapi\AppData\Local\Temp\ccxEGDhx.s:8687   .debug_str:0000000000000713 .LASF252
C:\Users\stapi\AppData\Local\Temp\ccxEGDhx.s:1798   .text.chan_pri_allowed:0000000000000000 .LFB115
C:\Users\stapi\AppData\Local\Temp\ccxEGDhx.s:1821   .text.chan_pri_allowed:0000000000000012 .LFE115
C:\Users\stapi\AppData\Local\Temp\ccxEGDhx.s:6835   .debug_loc:0000000000000000 .LLST67
C:\Users\stapi\AppData\Local\Temp\ccxEGDhx.s:8473   .debug_str:0000000000000187 .LASF253
C:\Users\stapi\AppData\Local\Temp\ccxEGDhx.s:1733   .text.chan_bw_allowed:0000000000000000 .LFB114
C:\Users\stapi\AppData\Local\Temp\ccxEGDhx.s:1791   .text.chan_bw_allowed:000000000000004a .LFE114
C:\Users\stapi\AppData\Local\Temp\ccxEGDhx.s:6860   .debug_loc:000000000000003a .LLST65
C:\Users\stapi\AppData\Local\Temp\ccxEGDhx.s:8491   .debug_str:00000000000001f0 .LASF254
C:\Users\stapi\AppData\Local\Temp\ccxEGDhx.s:8479   .debug_str:00000000000001ab .LASF259
C:\Users\stapi\AppData\Local\Temp\ccxEGDhx.s:6878   .debug_loc:0000000000000066 .LLST66
C:\Users\stapi\AppData\Local\Temp\ccxEGDhx.s:8559   .debug_str:00000000000003bd .LASF255
C:\Users\stapi\AppData\Local\Temp\ccxEGDhx.s:1699   .text.num_chan_to_bw:0000000000000000 .LFB113
C:\Users\stapi\AppData\Local\Temp\ccxEGDhx.s:1726   .text.num_chan_to_bw:000000000000001e .LFE113
C:\Users\stapi\AppData\Local\Temp\ccxEGDhx.s:8819   .debug_str:0000000000000a2e .LASF256
C:\Users\stapi\AppData\Local\Temp\ccxEGDhx.s:6885   .debug_loc:0000000000000079 .LLST64
C:\Users\stapi\AppData\Local\Temp\ccxEGDhx.s:8835   .debug_str:0000000000000b1a .LASF287
C:\Users\stapi\AppData\Local\Temp\ccxEGDhx.s:1666   .text.set_disable_ht40:0000000000000000 .LFB112
C:\Users\stapi\AppData\Local\Temp\ccxEGDhx.s:1692   .text.set_disable_ht40:0000000000000028 .LFE112
C:\Users\stapi\AppData\Local\Temp\ccxEGDhx.s:8433   .debug_str:00000000000000a3 .LASF257
C:\Users\stapi\AppData\Local\Temp\ccxEGDhx.s:8561   .debug_str:00000000000003cc .LASF258
C:\Users\stapi\AppData\Local\Temp\ccxEGDhx.s:8537   .debug_str:0000000000000325 .LASF260
C:\Users\stapi\AppData\Local\Temp\ccxEGDhx.s:1158   .text.hostapd_set_freq_params:0000000000000000 .LFB111
C:\Users\stapi\AppData\Local\Temp\ccxEGDhx.s:1659   .text.hostapd_set_freq_params:0000000000000302 .LFE111
C:\Users\stapi\AppData\Local\Temp\ccxEGDhx.s:8679   .debug_str:00000000000006ee .LASF261
C:\Users\stapi\AppData\Local\Temp\ccxEGDhx.s:6904   .debug_loc:00000000000000ad .LLST49
C:\Users\stapi\AppData\Local\Temp\ccxEGDhx.s:6923   .debug_loc:00000000000000e1 .LLST50
C:\Users\stapi\AppData\Local\Temp\ccxEGDhx.s:6942   .debug_loc:0000000000000115 .LLST51
C:\Users\stapi\AppData\Local\Temp\ccxEGDhx.s:6961   .debug_loc:0000000000000149 .LLST52
C:\Users\stapi\AppData\Local\Temp\ccxEGDhx.s:8455   .debug_str:000000000000012a .LASF262
C:\Users\stapi\AppData\Local\Temp\ccxEGDhx.s:7035   .debug_loc:0000000000000201 .LLST53
C:\Users\stapi\AppData\Local\Temp\ccxEGDhx.s:8669   .debug_str:00000000000006b4 .LASF263
C:\Users\stapi\AppData\Local\Temp\ccxEGDhx.s:7060   .debug_loc:000000000000023b .LLST54
C:\Users\stapi\AppData\Local\Temp\ccxEGDhx.s:7074   .debug_loc:000000000000025c .LLST55
C:\Users\stapi\AppData\Local\Temp\ccxEGDhx.s:7105   .debug_loc:00000000000002aa .LLST56
C:\Users\stapi\AppData\Local\Temp\ccxEGDhx.s:7124   .debug_loc:00000000000002de .LLST57
C:\Users\stapi\AppData\Local\Temp\ccxEGDhx.s:7158   .debug_loc:0000000000000336 .LLST58
C:\Users\stapi\AppData\Local\Temp\ccxEGDhx.s:8711   .debug_str:00000000000007b5 .LASF264
C:\Users\stapi\AppData\Local\Temp\ccxEGDhx.s:7176   .debug_loc:0000000000000362 .LLST59
C:\Users\stapi\AppData\Local\Temp\ccxEGDhx.s:8505   .debug_str:0000000000000243 .LASF265
C:\Users\stapi\AppData\Local\Temp\ccxEGDhx.s:7194   .debug_loc:000000000000038e .LLST60
C:\Users\stapi\AppData\Local\Temp\ccxEGDhx.s:8507   .debug_str:0000000000000253 .LASF266
C:\Users\stapi\AppData\Local\Temp\ccxEGDhx.s:7221   .debug_loc:00000000000003d1 .LLST61
C:\Users\stapi\AppData\Local\Temp\ccxEGDhx.s:8713   .debug_str:00000000000007c2 .LASF267
C:\Users\stapi\AppData\Local\Temp\ccxEGDhx.s:7239   .debug_loc:00000000000003fd .LLST62
C:\Users\stapi\AppData\Local\Temp\ccxEGDhx.s:8823   .debug_str:0000000000000a42 .LASF268
C:\Users\stapi\AppData\Local\Temp\ccxEGDhx.s:7257   .debug_loc:0000000000000429 .LLST63
C:\Users\stapi\AppData\Local\Temp\ccxEGDhx.s:1212   .text.hostapd_set_freq_params:000000000000003e .LVL107
C:\Users\stapi\AppData\Local\Temp\ccxEGDhx.s:1306   .text.hostapd_set_freq_params:00000000000000ce .LVL112
C:\Users\stapi\AppData\Local\Temp\ccxEGDhx.s:1397   .text.hostapd_set_freq_params:0000000000000172 .LVL116
C:\Users\stapi\AppData\Local\Temp\ccxEGDhx.s:9023   .debug_str:00000000000010ba .LASF269
C:\Users\stapi\AppData\Local\Temp\ccxEGDhx.s:714    .text.check_40mhz_2g4:0000000000000000 .LFB110
C:\Users\stapi\AppData\Local\Temp\ccxEGDhx.s:1105   .text.check_40mhz_2g4:000000000000023e .LFE110
C:\Users\stapi\AppData\Local\Temp\ccxEGDhx.s:7275   .debug_loc:0000000000000455 .LLST31
C:\Users\stapi\AppData\Local\Temp\ccxEGDhx.s:8745   .debug_str:000000000000085c .LASF270
C:\Users\stapi\AppData\Local\Temp\ccxEGDhx.s:7293   .debug_loc:0000000000000481 .LLST32
C:\Users\stapi\AppData\Local\Temp\ccxEGDhx.s:9017   .debug_str:0000000000001089 .LASF271
C:\Users\stapi\AppData\Local\Temp\ccxEGDhx.s:7326   .debug_loc:00000000000004d1 .LLST33
C:\Users\stapi\AppData\Local\Temp\ccxEGDhx.s:8495   .debug_str:00000000000001ff .LASF272
C:\Users\stapi\AppData\Local\Temp\ccxEGDhx.s:7333   .debug_loc:00000000000004e4 .LLST34
C:\Users\stapi\AppData\Local\Temp\ccxEGDhx.s:8995   .debug_str:0000000000000f2a .LASF273
C:\Users\stapi\AppData\Local\Temp\ccxEGDhx.s:7340   .debug_loc:00000000000004f7 .LLST35
C:\Users\stapi\AppData\Local\Temp\ccxEGDhx.s:8475   .debug_str:0000000000000197 .LASF274
C:\Users\stapi\AppData\Local\Temp\ccxEGDhx.s:7359   .debug_loc:000000000000052b .LLST36
C:\Users\stapi\AppData\Local\Temp\ccxEGDhx.s:8959   .debug_str:0000000000000e34 .LASF275
C:\Users\stapi\AppData\Local\Temp\ccxEGDhx.s:7378   .debug_loc:000000000000055f .LLST37
C:\Users\stapi\AppData\Local\Temp\ccxEGDhx.s:8925   .debug_str:0000000000000d49 .LASF276
C:\Users\stapi\AppData\Local\Temp\ccxEGDhx.s:7393   .debug_loc:0000000000000588 .LLST38
C:\Users\stapi\AppData\Local\Temp\ccxEGDhx.s:7408   .debug_loc:00000000000005b1 .LLST39
C:\Users\stapi\AppData\Local\Temp\ccxEGDhx.s:7423   .debug_loc:00000000000005da .LLST40
C:\Users\stapi\AppData\Local\Temp\ccxEGDhx.s:7434   .debug_loc:00000000000005f8 .LLST41
C:\Users\stapi\AppData\Local\Temp\ccxEGDhx.s:7445   .debug_loc:0000000000000616 .LLST42
C:\Users\stapi\AppData\Local\Temp\ccxEGDhx.s:8597   .debug_str:0000000000000542 .LASF277
C:\Users\stapi\AppData\Local\Temp\ccxEGDhx.s:8741   .debug_str:000000000000084f .LASF278
C:\Users\stapi\AppData\Local\Temp\ccxEGDhx.s:7464   .debug_loc:000000000000064a .LLST43
C:\Users\stapi\AppData\Local\Temp\ccxEGDhx.s:1098   .text.check_40mhz_2g4:000000000000023c .LVL100
C:\Users\stapi\AppData\Local\Temp\ccxEGDhx.s:857    .text.check_40mhz_2g4:000000000000008c .LBB37
C:\Users\stapi\AppData\Local\Temp\ccxEGDhx.s:7476   .debug_loc:000000000000066a .LLST44
C:\Users\stapi\AppData\Local\Temp\ccxEGDhx.s:7491   .debug_loc:0000000000000693 .LLST45
C:\Users\stapi\AppData\Local\Temp\ccxEGDhx.s:7506   .debug_loc:00000000000006bc .LLST46
C:\Users\stapi\AppData\Local\Temp\ccxEGDhx.s:7521   .debug_loc:00000000000006e5 .LLST47
C:\Users\stapi\AppData\Local\Temp\ccxEGDhx.s:7536   .debug_loc:000000000000070e .LLST48
C:\Users\stapi\AppData\Local\Temp\ccxEGDhx.s:901    .text.check_40mhz_2g4:00000000000000c8 .LVL84
C:\Users\stapi\AppData\Local\Temp\ccxEGDhx.s:921    .text.check_40mhz_2g4:00000000000000fa .LVL85
C:\Users\stapi\AppData\Local\Temp\ccxEGDhx.s:873    .text.check_40mhz_2g4:000000000000009e .LVL82
C:\Users\stapi\AppData\Local\Temp\ccxEGDhx.s:930    .text.check_40mhz_2g4:000000000000010c .LVL86
C:\Users\stapi\AppData\Local\Temp\ccxEGDhx.s:1021   .text.check_40mhz_2g4:0000000000000194 .LVL95
C:\Users\stapi\AppData\Local\Temp\ccxEGDhx.s:1055   .text.check_40mhz_2g4:00000000000001e4 .LVL96
C:\Users\stapi\AppData\Local\Temp\ccxEGDhx.s:1066   .text.check_40mhz_2g4:00000000000001f8 .LVL97
C:\Users\stapi\AppData\Local\Temp\ccxEGDhx.s:762    .text.check_40mhz_2g4:000000000000002c .LVL68
C:\Users\stapi\AppData\Local\Temp\ccxEGDhx.s:773    .text.check_40mhz_2g4:000000000000003a .LVL71
C:\Users\stapi\AppData\Local\Temp\ccxEGDhx.s:810    .text.check_40mhz_2g4:000000000000006a .LVL76
C:\Users\stapi\AppData\Local\Temp\ccxEGDhx.s:8587   .debug_str:00000000000004fa .LASF309
C:\Users\stapi\AppData\Local\Temp\ccxEGDhx.s:8881   .debug_str:0000000000000c40 .LASF279
C:\Users\stapi\AppData\Local\Temp\ccxEGDhx.s:8865   .debug_str:0000000000000bf6 .LASF280
C:\Users\stapi\AppData\Local\Temp\ccxEGDhx.s:9015   .debug_str:000000000000107a .LASF281
C:\Users\stapi\AppData\Local\Temp\ccxEGDhx.s:443    .text.check_40mhz_5g:0000000000000000 .LFB108
C:\Users\stapi\AppData\Local\Temp\ccxEGDhx.s:685    .text.check_40mhz_5g:000000000000010a .LFE108
C:\Users\stapi\AppData\Local\Temp\ccxEGDhx.s:7548   .debug_loc:000000000000072e .LLST22
C:\Users\stapi\AppData\Local\Temp\ccxEGDhx.s:7570   .debug_loc:0000000000000765 .LLST23
C:\Users\stapi\AppData\Local\Temp\ccxEGDhx.s:7585   .debug_loc:000000000000078e .LLST24
C:\Users\stapi\AppData\Local\Temp\ccxEGDhx.s:8813   .debug_str:0000000000000a0f .LASF282
C:\Users\stapi\AppData\Local\Temp\ccxEGDhx.s:7611   .debug_loc:00000000000007d0 .LLST25
C:\Users\stapi\AppData\Local\Temp\ccxEGDhx.s:8767   .debug_str:00000000000008f2 .LASF283
C:\Users\stapi\AppData\Local\Temp\ccxEGDhx.s:7622   .debug_loc:00000000000007ee .LLST26
C:\Users\stapi\AppData\Local\Temp\ccxEGDhx.s:8855   .debug_str:0000000000000bb5 .LASF284
C:\Users\stapi\AppData\Local\Temp\ccxEGDhx.s:8773   .debug_str:0000000000000910 .LASF285
C:\Users\stapi\AppData\Local\Temp\ccxEGDhx.s:7633   .debug_loc:000000000000080c .LLST27
C:\Users\stapi\AppData\Local\Temp\ccxEGDhx.s:8737   .debug_str:0000000000000842 .LASF286
C:\Users\stapi\AppData\Local\Temp\ccxEGDhx.s:7656   .debug_loc:000000000000084b .LLST29
C:\Users\stapi\AppData\Local\Temp\ccxEGDhx.s:556    .text.check_40mhz_5g:0000000000000068 .LBB29
C:\Users\stapi\AppData\Local\Temp\ccxEGDhx.s:586    .text.check_40mhz_5g:0000000000000090 .LBE29
C:\Users\stapi\AppData\Local\Temp\ccxEGDhx.s:7712   .debug_loc:00000000000008b2 .LLST30
C:\Users\stapi\AppData\Local\Temp\ccxEGDhx.s:570    .text.check_40mhz_5g:000000000000007c .LVL54
C:\Users\stapi\AppData\Local\Temp\ccxEGDhx.s:7731   .debug_loc:00000000000008d8 .LLST28
C:\Users\stapi\AppData\Local\Temp\ccxEGDhx.s:636    .text.check_40mhz_5g:00000000000000c2 .LVL61
C:\Users\stapi\AppData\Local\Temp\ccxEGDhx.s:661    .text.check_40mhz_5g:0000000000000100 .LVL62
C:\Users\stapi\AppData\Local\Temp\ccxEGDhx.s:506    .text.check_40mhz_5g:0000000000000048 .LVL43
C:\Users\stapi\AppData\Local\Temp\ccxEGDhx.s:9021   .debug_str:00000000000010a9 .LASF288
C:\Users\stapi\AppData\Local\Temp\ccxEGDhx.s:335    .text.get_pri_sec_chan:0000000000000000 .LFB107
C:\Users\stapi\AppData\Local\Temp\ccxEGDhx.s:429    .text.get_pri_sec_chan:000000000000005c .LFE107
C:\Users\stapi\AppData\Local\Temp\ccxEGDhx.s:7738   .debug_loc:00000000000008eb .LLST17
C:\Users\stapi\AppData\Local\Temp\ccxEGDhx.s:7758   .debug_loc:000000000000091a .LLST18
C:\Users\stapi\AppData\Local\Temp\ccxEGDhx.s:7769   .debug_loc:0000000000000938 .LLST19
C:\Users\stapi\AppData\Local\Temp\ccxEGDhx.s:7780   .debug_loc:0000000000000956 .LLST20
C:\Users\stapi\AppData\Local\Temp\ccxEGDhx.s:7797   .debug_loc:0000000000000983 .LLST21
C:\Users\stapi\AppData\Local\Temp\ccxEGDhx.s:369    .text.get_pri_sec_chan:0000000000000028 .LVL33
C:\Users\stapi\AppData\Local\Temp\ccxEGDhx.s:8419   .debug_str:0000000000000031 .LASF289
C:\Users\stapi\AppData\Local\Temp\ccxEGDhx.s:1841   .text.allowed_ht40_channel_pair:0000000000000000 .LFB106
C:\Users\stapi\AppData\Local\Temp\ccxEGDhx.s:2024   .text.allowed_ht40_channel_pair:00000000000000f2 .LFE106
C:\Users\stapi\AppData\Local\Temp\ccxEGDhx.s:7818   .debug_loc:00000000000009ab .LLST68
C:\Users\stapi\AppData\Local\Temp\ccxEGDhx.s:8541   .debug_str:0000000000000342 .LASF290
C:\Users\stapi\AppData\Local\Temp\ccxEGDhx.s:7829   .debug_loc:00000000000009c9 .LLST69
C:\Users\stapi\AppData\Local\Temp\ccxEGDhx.s:8937   .debug_str:0000000000000d9a .LASF291
C:\Users\stapi\AppData\Local\Temp\ccxEGDhx.s:7840   .debug_loc:00000000000009e7 .LLST70
C:\Users\stapi\AppData\Local\Temp\ccxEGDhx.s:8635   .debug_str:00000000000005fa .LASF292
C:\Users\stapi\AppData\Local\Temp\ccxEGDhx.s:7851   .debug_loc:0000000000000a05 .LLST71
C:\Users\stapi\AppData\Local\Temp\ccxEGDhx.s:8915   .debug_str:0000000000000d15 .LASF293
C:\Users\stapi\AppData\Local\Temp\ccxEGDhx.s:7875   .debug_loc:0000000000000a32 .LLST72
C:\Users\stapi\AppData\Local\Temp\ccxEGDhx.s:7979   .debug_loc:0000000000000adc .LLST73
C:\Users\stapi\AppData\Local\Temp\ccxEGDhx.s:8019   .debug_loc:0000000000000b46 .LLST74
C:\Users\stapi\AppData\Local\Temp\ccxEGDhx.s:1873   .text.allowed_ht40_channel_pair:0000000000000026 .LVL145
C:\Users\stapi\AppData\Local\Temp\ccxEGDhx.s:1904   .text.allowed_ht40_channel_pair:000000000000004a .LVL148
C:\Users\stapi\AppData\Local\Temp\ccxEGDhx.s:1937   .text.allowed_ht40_channel_pair:0000000000000070 .LVL151
C:\Users\stapi\AppData\Local\Temp\ccxEGDhx.s:1952   .text.allowed_ht40_channel_pair:0000000000000090 .LVL153
C:\Users\stapi\AppData\Local\Temp\ccxEGDhx.s:1977   .text.allowed_ht40_channel_pair:00000000000000ba .LVL154
C:\Users\stapi\AppData\Local\Temp\ccxEGDhx.s:2019   .text.allowed_ht40_channel_pair:00000000000000f0 .LVL158
C:\Users\stapi\AppData\Local\Temp\ccxEGDhx.s:8591   .debug_str:0000000000000514 .LASF294
C:\Users\stapi\AppData\Local\Temp\ccxEGDhx.s:298    .text.hw_get_chan:0000000000000000 .LFB105
C:\Users\stapi\AppData\Local\Temp\ccxEGDhx.s:328    .text.hw_get_chan:0000000000000024 .LFE105
C:\Users\stapi\AppData\Local\Temp\ccxEGDhx.s:8030   .debug_loc:0000000000000b64 .LLST13
C:\Users\stapi\AppData\Local\Temp\ccxEGDhx.s:8044   .debug_loc:0000000000000b85 .LLST14
C:\Users\stapi\AppData\Local\Temp\ccxEGDhx.s:8641   .debug_str:0000000000000613 .LASF295
C:\Users\stapi\AppData\Local\Temp\ccxEGDhx.s:8058   .debug_loc:0000000000000ba6 .LLST15
C:\Users\stapi\AppData\Local\Temp\ccxEGDhx.s:8557   .debug_str:00000000000003ad .LASF296
C:\Users\stapi\AppData\Local\Temp\ccxEGDhx.s:8076   .debug_loc:0000000000000bd2 .LLST16
C:\Users\stapi\AppData\Local\Temp\ccxEGDhx.s:318    .text.hw_get_chan:0000000000000018 .LVL28
C:\Users\stapi\AppData\Local\Temp\ccxEGDhx.s:8985   .debug_str:0000000000000ee0 .LASF297
C:\Users\stapi\AppData\Local\Temp\ccxEGDhx.s:266    .text.hw_get_freq:0000000000000000 .LFB104
C:\Users\stapi\AppData\Local\Temp\ccxEGDhx.s:291    .text.hw_get_freq:0000000000000020 .LFE104
C:\Users\stapi\AppData\Local\Temp\ccxEGDhx.s:8094   .debug_loc:0000000000000bfe .LLST11
C:\Users\stapi\AppData\Local\Temp\ccxEGDhx.s:8108   .debug_loc:0000000000000c1f .LLST12
C:\Users\stapi\AppData\Local\Temp\ccxEGDhx.s:281    .text.hw_get_freq:0000000000000014 .LVL24
C:\Users\stapi\AppData\Local\Temp\ccxEGDhx.s:8427   .debug_str:000000000000006b .LASF301
C:\Users\stapi\AppData\Local\Temp\ccxEGDhx.s:8837   .debug_str:0000000000000b2b .LASF298
C:\Users\stapi\AppData\Local\Temp\ccxEGDhx.s:9035   .debug_str:0000000000001110 .LASF299
C:\Users\stapi\AppData\Local\Temp\ccxEGDhx.s:8775   .debug_str:000000000000091d .LASF300
C:\Users\stapi\AppData\Local\Temp\ccxEGDhx.s:101    .text.hw_mode_get_channel:0000000000000000 .LFB102
C:\Users\stapi\AppData\Local\Temp\ccxEGDhx.s:156    .text.hw_mode_get_channel:000000000000002e .LFE102
C:\Users\stapi\AppData\Local\Temp\ccxEGDhx.s:8122   .debug_loc:0000000000000c40 .LLST2
C:\Users\stapi\AppData\Local\Temp\ccxEGDhx.s:8133   .debug_loc:0000000000000c5e .LLST3
C:\Users\stapi\AppData\Local\Temp\ccxEGDhx.s:8581   .debug_str:00000000000004d4 .LASF302
C:\Users\stapi\AppData\Local\Temp\ccxEGDhx.s:14     .text.hw_get_channel_chan:0000000000000000 .LFB101
C:\Users\stapi\AppData\Local\Temp\ccxEGDhx.s:94     .text.hw_get_channel_chan:0000000000000036 .LFE101
C:\Users\stapi\AppData\Local\Temp\ccxEGDhx.s:8149   .debug_loc:0000000000000c88 .LLST0
C:\Users\stapi\AppData\Local\Temp\ccxEGDhx.s:35     .text.hw_get_channel_chan:000000000000000c .LBB7
C:\Users\stapi\AppData\Local\Temp\ccxEGDhx.s:8171   .debug_loc:0000000000000cbf .LLST1
C:\Users\stapi\AppData\Local\Temp\ccxEGDhx.s:163    .text.hw_get_channel_freq:0000000000000000 .LFB103
C:\Users\stapi\AppData\Local\Temp\ccxEGDhx.s:259    .text.hw_get_channel_freq:000000000000004a .LFE103
C:\Users\stapi\AppData\Local\Temp\ccxEGDhx.s:8182   .debug_loc:0000000000000cdd .LLST4
C:\Users\stapi\AppData\Local\Temp\ccxEGDhx.s:8193   .debug_loc:0000000000000cfb .LLST5
C:\Users\stapi\AppData\Local\Temp\ccxEGDhx.s:8204   .debug_loc:0000000000000d19 .LLST6
C:\Users\stapi\AppData\Local\Temp\ccxEGDhx.s:8215   .debug_loc:0000000000000d37 .LLST7
C:\Users\stapi\AppData\Local\Temp\ccxEGDhx.s:8229   .debug_loc:0000000000000d58 .LLST8
C:\Users\stapi\AppData\Local\Temp\ccxEGDhx.s:194    .text.hw_get_channel_freq:000000000000001a .LBB18
C:\Users\stapi\AppData\Local\Temp\ccxEGDhx.s:8240   .debug_loc:0000000000000d76 .LLST9
C:\Users\stapi\AppData\Local\Temp\ccxEGDhx.s:8251   .debug_loc:0000000000000d94 .LLST10
C:\Users\stapi\AppData\Local\Temp\ccxEGDhx.s:250    .text.hw_get_channel_freq:0000000000000046 .LVL22
C:\Users\stapi\AppData\Local\Temp\ccxEGDhx.s:8817   .debug_str:0000000000000a24 .LASF303
C:\Users\stapi\AppData\Local\Temp\ccxEGDhx.s:8863   .debug_str:0000000000000beb .LASF304
C:\Users\stapi\AppData\Local\Temp\ccxEGDhx.s:9019   .debug_str:0000000000001092 .LASF305
C:\Users\stapi\AppData\Local\Temp\ccxEGDhx.s:8975   .debug_str:0000000000000eaa .LASF310
C:\Users\stapi\AppData\Local\Temp\ccxEGDhx.s:8497   .debug_str:0000000000000208 .LASF311
C:\Users\stapi\AppData\Local\Temp\ccxEGDhx.s:1801   .text.chan_pri_allowed:0000000000000000 .LVL137
C:\Users\stapi\AppData\Local\Temp\ccxEGDhx.s:1810   .text.chan_pri_allowed:0000000000000008 .LVL138
C:\Users\stapi\AppData\Local\Temp\ccxEGDhx.s:1813   .text.chan_pri_allowed:000000000000000e .LVL139
C:\Users\stapi\AppData\Local\Temp\ccxEGDhx.s:1817   .text.chan_pri_allowed:0000000000000010 .LVL140
C:\Users\stapi\AppData\Local\Temp\ccxEGDhx.s:1736   .text.chan_bw_allowed:0000000000000000 .LVL133
C:\Users\stapi\AppData\Local\Temp\ccxEGDhx.s:1756   .text.chan_bw_allowed:0000000000000020 .LVL135
C:\Users\stapi\AppData\Local\Temp\ccxEGDhx.s:1762   .text.chan_bw_allowed:000000000000002a .LVL136
C:\Users\stapi\AppData\Local\Temp\ccxEGDhx.s:1752   .text.chan_bw_allowed:000000000000001e .LVL134
C:\Users\stapi\AppData\Local\Temp\ccxEGDhx.s:1702   .text.num_chan_to_bw:0000000000000000 .LVL129
C:\Users\stapi\AppData\Local\Temp\ccxEGDhx.s:1711   .text.num_chan_to_bw:0000000000000012 .LVL130
C:\Users\stapi\AppData\Local\Temp\ccxEGDhx.s:1717   .text.num_chan_to_bw:000000000000001a .LVL131
C:\Users\stapi\AppData\Local\Temp\ccxEGDhx.s:1721   .text.num_chan_to_bw:000000000000001c .LVL132
C:\Users\stapi\AppData\Local\Temp\ccxEGDhx.s:1161   .text.hostapd_set_freq_params:0000000000000000 .LVL101
C:\Users\stapi\AppData\Local\Temp\ccxEGDhx.s:1207   .text.hostapd_set_freq_params:0000000000000034 .LVL105
C:\Users\stapi\AppData\Local\Temp\ccxEGDhx.s:1266   .text.hostapd_set_freq_params:000000000000008e .LVL109
C:\Users\stapi\AppData\Local\Temp\ccxEGDhx.s:1271   .text.hostapd_set_freq_params:0000000000000092 .LVL110
C:\Users\stapi\AppData\Local\Temp\ccxEGDhx.s:1205   .text.hostapd_set_freq_params:0000000000000032 .LVL104
C:\Users\stapi\AppData\Local\Temp\ccxEGDhx.s:1203   .text.hostapd_set_freq_params:0000000000000030 .LVL103
C:\Users\stapi\AppData\Local\Temp\ccxEGDhx.s:1261   .text.hostapd_set_freq_params:000000000000008a .LVL108
C:\Users\stapi\AppData\Local\Temp\ccxEGDhx.s:1301   .text.hostapd_set_freq_params:00000000000000c4 .LVL111
C:\Users\stapi\AppData\Local\Temp\ccxEGDhx.s:1308   .text.hostapd_set_freq_params:00000000000000d0 .LVL113
C:\Users\stapi\AppData\Local\Temp\ccxEGDhx.s:1426   .text.hostapd_set_freq_params:0000000000000180 .LVL119
C:\Users\stapi\AppData\Local\Temp\ccxEGDhx.s:1557   .text.hostapd_set_freq_params:0000000000000258 .LVL122
C:\Users\stapi\AppData\Local\Temp\ccxEGDhx.s:1568   .text.hostapd_set_freq_params:000000000000026a .LVL123
C:\Users\stapi\AppData\Local\Temp\ccxEGDhx.s:1580   .text.hostapd_set_freq_params:000000000000027c .LVL124
C:\Users\stapi\AppData\Local\Temp\ccxEGDhx.s:1587   .text.hostapd_set_freq_params:000000000000028a .LVL125
C:\Users\stapi\AppData\Local\Temp\ccxEGDhx.s:1640   .text.hostapd_set_freq_params:00000000000002e6 .LVL126
C:\Users\stapi\AppData\Local\Temp\ccxEGDhx.s:1647   .text.hostapd_set_freq_params:00000000000002f4 .LVL127
C:\Users\stapi\AppData\Local\Temp\ccxEGDhx.s:1198   .text.hostapd_set_freq_params:000000000000002a .LVL102
C:\Users\stapi\AppData\Local\Temp\ccxEGDhx.s:1410   .text.hostapd_set_freq_params:0000000000000178 .LVL118
C:\Users\stapi\AppData\Local\Temp\ccxEGDhx.s:1209   .text.hostapd_set_freq_params:0000000000000036 .LVL106
C:\Users\stapi\AppData\Local\Temp\ccxEGDhx.s:1334   .text.hostapd_set_freq_params:00000000000000fc .LVL114
C:\Users\stapi\AppData\Local\Temp\ccxEGDhx.s:1367   .text.hostapd_set_freq_params:0000000000000138 .LVL115
C:\Users\stapi\AppData\Local\Temp\ccxEGDhx.s:1403   .text.hostapd_set_freq_params:0000000000000174 .LVL117
C:\Users\stapi\AppData\Local\Temp\ccxEGDhx.s:1540   .text.hostapd_set_freq_params:000000000000023e .LVL120
C:\Users\stapi\AppData\Local\Temp\ccxEGDhx.s:1550   .text.hostapd_set_freq_params:0000000000000250 .LVL121
C:\Users\stapi\AppData\Local\Temp\ccxEGDhx.s:717    .text.check_40mhz_2g4:0000000000000000 .LVL66
C:\Users\stapi\AppData\Local\Temp\ccxEGDhx.s:747    .text.check_40mhz_2g4:0000000000000014 .LVL67
C:\Users\stapi\AppData\Local\Temp\ccxEGDhx.s:819    .text.check_40mhz_2g4:0000000000000074 .LVL77
C:\Users\stapi\AppData\Local\Temp\ccxEGDhx.s:840    .text.check_40mhz_2g4:0000000000000080 .LVL78
C:\Users\stapi\AppData\Local\Temp\ccxEGDhx.s:937    .text.check_40mhz_2g4:0000000000000110 .LVL87
C:\Users\stapi\AppData\Local\Temp\ccxEGDhx.s:767    .text.check_40mhz_2g4:0000000000000030 .LVL69
C:\Users\stapi\AppData\Local\Temp\ccxEGDhx.s:771    .text.check_40mhz_2g4:0000000000000032 .LVL70
C:\Users\stapi\AppData\Local\Temp\ccxEGDhx.s:783    .text.check_40mhz_2g4:000000000000004a .LVL72
C:\Users\stapi\AppData\Local\Temp\ccxEGDhx.s:788    .text.check_40mhz_2g4:0000000000000050 .LVL73
C:\Users\stapi\AppData\Local\Temp\ccxEGDhx.s:801    .text.check_40mhz_2g4:000000000000005c .LVL74
C:\Users\stapi\AppData\Local\Temp\ccxEGDhx.s:805    .text.check_40mhz_2g4:000000000000005e .LVL75
C:\Users\stapi\AppData\Local\Temp\ccxEGDhx.s:849    .text.check_40mhz_2g4:000000000000008a .LVL79
C:\Users\stapi\AppData\Local\Temp\ccxEGDhx.s:853    .text.check_40mhz_2g4:000000000000008c .LVL80
C:\Users\stapi\AppData\Local\Temp\ccxEGDhx.s:981    .text.check_40mhz_2g4:0000000000000150 .LVL91
C:\Users\stapi\AppData\Local\Temp\ccxEGDhx.s:991    .text.check_40mhz_2g4:000000000000015c .LVL92
C:\Users\stapi\AppData\Local\Temp\ccxEGDhx.s:1000   .text.check_40mhz_2g4:0000000000000160 .LVL94
C:\Users\stapi\AppData\Local\Temp\ccxEGDhx.s:1074   .text.check_40mhz_2g4:00000000000001fc .LVL98
C:\Users\stapi\AppData\Local\Temp\ccxEGDhx.s:1090   .text.check_40mhz_2g4:0000000000000222 .LVL99
C:\Users\stapi\AppData\Local\Temp\ccxEGDhx.s:865    .text.check_40mhz_2g4:0000000000000090 .LVL81
C:\Users\stapi\AppData\Local\Temp\ccxEGDhx.s:887    .text.check_40mhz_2g4:00000000000000ae .LVL83
C:\Users\stapi\AppData\Local\Temp\ccxEGDhx.s:967    .text.check_40mhz_2g4:0000000000000142 .LVL90
C:\Users\stapi\AppData\Local\Temp\ccxEGDhx.s:948    .text.check_40mhz_2g4:0000000000000114 .LVL88
C:\Users\stapi\AppData\Local\Temp\ccxEGDhx.s:952    .text.check_40mhz_2g4:0000000000000118 .LVL89
C:\Users\stapi\AppData\Local\Temp\ccxEGDhx.s:446    .text.check_40mhz_5g:0000000000000000 .LVL39
C:\Users\stapi\AppData\Local\Temp\ccxEGDhx.s:469    .text.check_40mhz_5g:0000000000000014 .LVL40
C:\Users\stapi\AppData\Local\Temp\ccxEGDhx.s:670    .text.check_40mhz_5g:0000000000000106 .LVL64
C:\Users\stapi\AppData\Local\Temp\ccxEGDhx.s:681    .text.check_40mhz_5g:0000000000000108 .LVL65
C:\Users\stapi\AppData\Local\Temp\ccxEGDhx.s:477    .text.check_40mhz_5g:000000000000001c .LVL41
C:\Users\stapi\AppData\Local\Temp\ccxEGDhx.s:490    .text.check_40mhz_5g:000000000000002c .LVL42
C:\Users\stapi\AppData\Local\Temp\ccxEGDhx.s:589    .text.check_40mhz_5g:0000000000000092 .LVL56
C:\Users\stapi\AppData\Local\Temp\ccxEGDhx.s:603    .text.check_40mhz_5g:000000000000009c .LVL57
C:\Users\stapi\AppData\Local\Temp\ccxEGDhx.s:514    .text.check_40mhz_5g:000000000000004c .LVL44
C:\Users\stapi\AppData\Local\Temp\ccxEGDhx.s:553    .text.check_40mhz_5g:0000000000000068 .LVL52
C:\Users\stapi\AppData\Local\Temp\ccxEGDhx.s:584    .text.check_40mhz_5g:0000000000000090 .LVL55
C:\Users\stapi\AppData\Local\Temp\ccxEGDhx.s:616    .text.check_40mhz_5g:00000000000000a6 .LVL59
C:\Users\stapi\AppData\Local\Temp\ccxEGDhx.s:523    .text.check_40mhz_5g:0000000000000052 .LVL45
C:\Users\stapi\AppData\Local\Temp\ccxEGDhx.s:526    .text.check_40mhz_5g:0000000000000054 .LVL46
C:\Users\stapi\AppData\Local\Temp\ccxEGDhx.s:528    .text.check_40mhz_5g:0000000000000056 .LVL47
C:\Users\stapi\AppData\Local\Temp\ccxEGDhx.s:540    .text.check_40mhz_5g:000000000000005e .LVL49
C:\Users\stapi\AppData\Local\Temp\ccxEGDhx.s:542    .text.check_40mhz_5g:0000000000000060 .LVL50
C:\Users\stapi\AppData\Local\Temp\ccxEGDhx.s:566    .text.check_40mhz_5g:0000000000000072 .LVL53
C:\Users\stapi\AppData\Local\Temp\ccxEGDhx.s:632    .text.check_40mhz_5g:00000000000000b8 .LVL60
C:\Users\stapi\AppData\Local\Temp\ccxEGDhx.s:338    .text.get_pri_sec_chan:0000000000000000 .LVL29
C:\Users\stapi\AppData\Local\Temp\ccxEGDhx.s:367    .text.get_pri_sec_chan:0000000000000020 .LVL32
C:\Users\stapi\AppData\Local\Temp\ccxEGDhx.s:356    .text.get_pri_sec_chan:0000000000000014 .LVL30
C:\Users\stapi\AppData\Local\Temp\ccxEGDhx.s:365    .text.get_pri_sec_chan:000000000000001c .LVL31
C:\Users\stapi\AppData\Local\Temp\ccxEGDhx.s:376    .text.get_pri_sec_chan:000000000000002c .LVL34
C:\Users\stapi\AppData\Local\Temp\ccxEGDhx.s:385    .text.get_pri_sec_chan:0000000000000036 .LVL35
C:\Users\stapi\AppData\Local\Temp\ccxEGDhx.s:403    .text.get_pri_sec_chan:0000000000000048 .LVL37
C:\Users\stapi\AppData\Local\Temp\ccxEGDhx.s:415    .text.get_pri_sec_chan:0000000000000052 .LVL38
C:\Users\stapi\AppData\Local\Temp\ccxEGDhx.s:392    .text.get_pri_sec_chan:000000000000003e .LVL36
C:\Users\stapi\AppData\Local\Temp\ccxEGDhx.s:1844   .text.allowed_ht40_channel_pair:0000000000000000 .LVL141
C:\Users\stapi\AppData\Local\Temp\ccxEGDhx.s:1871   .text.allowed_ht40_channel_pair:000000000000001e .LVL144
C:\Users\stapi\AppData\Local\Temp\ccxEGDhx.s:1862   .text.allowed_ht40_channel_pair:0000000000000010 .LVL142
C:\Users\stapi\AppData\Local\Temp\ccxEGDhx.s:1869   .text.allowed_ht40_channel_pair:000000000000001c .LVL143
C:\Users\stapi\AppData\Local\Temp\ccxEGDhx.s:1995   .text.allowed_ht40_channel_pair:00000000000000ce .LVL155
C:\Users\stapi\AppData\Local\Temp\ccxEGDhx.s:1890   .text.allowed_ht40_channel_pair:0000000000000038 .LVL147
C:\Users\stapi\AppData\Local\Temp\ccxEGDhx.s:1914   .text.allowed_ht40_channel_pair:0000000000000052 .LVL149
C:\Users\stapi\AppData\Local\Temp\ccxEGDhx.s:1929   .text.allowed_ht40_channel_pair:000000000000005e .LVL150
C:\Users\stapi\AppData\Local\Temp\ccxEGDhx.s:1941   .text.allowed_ht40_channel_pair:0000000000000072 .LVL152
C:\Users\stapi\AppData\Local\Temp\ccxEGDhx.s:2009   .text.allowed_ht40_channel_pair:00000000000000d8 .LVL156
C:\Users\stapi\AppData\Local\Temp\ccxEGDhx.s:2015   .text.allowed_ht40_channel_pair:00000000000000e2 .LVL157
C:\Users\stapi\AppData\Local\Temp\ccxEGDhx.s:1886   .text.allowed_ht40_channel_pair:0000000000000034 .LVL146
C:\Users\stapi\AppData\Local\Temp\ccxEGDhx.s:301    .text.hw_get_chan:0000000000000000 .LVL25
C:\Users\stapi\AppData\Local\Temp\ccxEGDhx.s:316    .text.hw_get_chan:0000000000000010 .LVL27
C:\Users\stapi\AppData\Local\Temp\ccxEGDhx.s:314    .text.hw_get_chan:000000000000000e .LVL26
C:\Users\stapi\AppData\Local\Temp\ccxEGDhx.s:269    .text.hw_get_freq:0000000000000000 .LVL23
C:\Users\stapi\AppData\Local\Temp\ccxEGDhx.s:104    .text.hw_mode_get_channel:0000000000000000 .LVL9
C:\Users\stapi\AppData\Local\Temp\ccxEGDhx.s:116    .text.hw_mode_get_channel:000000000000000a .LVL10
C:\Users\stapi\AppData\Local\Temp\ccxEGDhx.s:144    .text.hw_mode_get_channel:0000000000000026 .LVL12
C:\Users\stapi\AppData\Local\Temp\ccxEGDhx.s:147    .text.hw_mode_get_channel:000000000000002a .LVL13
C:\Users\stapi\AppData\Local\Temp\ccxEGDhx.s:18     .text.hw_get_channel_chan:0000000000000000 .LVL0
C:\Users\stapi\AppData\Local\Temp\ccxEGDhx.s:32     .text.hw_get_channel_chan:000000000000000a .LVL1
C:\Users\stapi\AppData\Local\Temp\ccxEGDhx.s:79     .text.hw_get_channel_chan:000000000000002e .LVL6
C:\Users\stapi\AppData\Local\Temp\ccxEGDhx.s:83     .text.hw_get_channel_chan:0000000000000032 .LVL7
C:\Users\stapi\AppData\Local\Temp\ccxEGDhx.s:45     .text.hw_get_channel_chan:0000000000000014 .LVL2
C:\Users\stapi\AppData\Local\Temp\ccxEGDhx.s:54     .text.hw_get_channel_chan:000000000000001a .LVL3
C:\Users\stapi\AppData\Local\Temp\ccxEGDhx.s:58     .text.hw_get_channel_chan:000000000000001c .LVL4
C:\Users\stapi\AppData\Local\Temp\ccxEGDhx.s:166    .text.hw_get_channel_freq:0000000000000000 .LVL15
C:\Users\stapi\AppData\Local\Temp\ccxEGDhx.s:198    .text.hw_get_channel_freq:000000000000001c .LVL16
C:\Users\stapi\AppData\Local\Temp\ccxEGDhx.s:203    .text.hw_get_channel_freq:0000000000000020 .LVL17
C:\Users\stapi\AppData\Local\Temp\ccxEGDhx.s:221    .text.hw_get_channel_freq:000000000000002a .LVL18
C:\Users\stapi\AppData\Local\Temp\ccxEGDhx.s:239    .text.hw_get_channel_freq:0000000000000036 .LVL20
C:\Users\stapi\AppData\Local\Temp\ccxEGDhx.s:241    .text.hw_get_channel_freq:0000000000000038 .LVL21
C:\Users\stapi\AppData\Local\Temp\ccxEGDhx.s:2061   .debug_info:0000000000000000 .Ldebug_info0
C:\Users\stapi\AppData\Local\Temp\ccxEGDhx.s:51     .text.hw_get_channel_chan:0000000000000018 .LBE7
C:\Users\stapi\AppData\Local\Temp\ccxEGDhx.s:60     .text.hw_get_channel_chan:000000000000001c .LBB12
C:\Users\stapi\AppData\Local\Temp\ccxEGDhx.s:92     .text.hw_get_channel_chan:0000000000000036 .LBE12
C:\Users\stapi\AppData\Local\Temp\ccxEGDhx.s:41     .text.hw_get_channel_chan:0000000000000010 .LBB9
C:\Users\stapi\AppData\Local\Temp\ccxEGDhx.s:46     .text.hw_get_channel_chan:0000000000000014 .LBE9
C:\Users\stapi\AppData\Local\Temp\ccxEGDhx.s:62     .text.hw_get_channel_chan:000000000000001c .LBB10
C:\Users\stapi\AppData\Local\Temp\ccxEGDhx.s:85     .text.hw_get_channel_chan:0000000000000032 .LBE10
C:\Users\stapi\AppData\Local\Temp\ccxEGDhx.s:113    .text.hw_mode_get_channel:0000000000000006 .LBB13
C:\Users\stapi\AppData\Local\Temp\ccxEGDhx.s:118    .text.hw_mode_get_channel:000000000000000a .LBE13
C:\Users\stapi\AppData\Local\Temp\ccxEGDhx.s:128    .text.hw_mode_get_channel:0000000000000012 .LBB14
C:\Users\stapi\AppData\Local\Temp\ccxEGDhx.s:149    .text.hw_mode_get_channel:000000000000002a .LBE14
C:\Users\stapi\AppData\Local\Temp\ccxEGDhx.s:206    .text.hw_get_channel_freq:0000000000000020 .LBE18
C:\Users\stapi\AppData\Local\Temp\ccxEGDhx.s:224    .text.hw_get_channel_freq:000000000000002a .LBB23
C:\Users\stapi\AppData\Local\Temp\ccxEGDhx.s:257    .text.hw_get_channel_freq:000000000000004a .LBE23
C:\Users\stapi\AppData\Local\Temp\ccxEGDhx.s:226    .text.hw_get_channel_freq:000000000000002a .LBB20
C:\Users\stapi\AppData\Local\Temp\ccxEGDhx.s:233    .text.hw_get_channel_freq:0000000000000030 .LBE20
C:\Users\stapi\AppData\Local\Temp\ccxEGDhx.s:243    .text.hw_get_channel_freq:0000000000000038 .LBB21
C:\Users\stapi\AppData\Local\Temp\ccxEGDhx.s:255    .text.hw_get_channel_freq:000000000000004a .LBE21
C:\Users\stapi\AppData\Local\Temp\ccxEGDhx.s:389    .text.get_pri_sec_chan:000000000000003c .LBB24
C:\Users\stapi\AppData\Local\Temp\ccxEGDhx.s:405    .text.get_pri_sec_chan:0000000000000048 .LBE24
C:\Users\stapi\AppData\Local\Temp\ccxEGDhx.s:418    .text.get_pri_sec_chan:0000000000000052 .LBB25
C:\Users\stapi\AppData\Local\Temp\ccxEGDhx.s:427    .text.get_pri_sec_chan:000000000000005c .LBE25
C:\Users\stapi\AppData\Local\Temp\ccxEGDhx.s:509    .text.check_40mhz_5g:0000000000000048 .LBB26
C:\Users\stapi\AppData\Local\Temp\ccxEGDhx.s:516    .text.check_40mhz_5g:000000000000004c .LBE26
C:\Users\stapi\AppData\Local\Temp\ccxEGDhx.s:622    .text.check_40mhz_5g:00000000000000ac .LBB30
C:\Users\stapi\AppData\Local\Temp\ccxEGDhx.s:664    .text.check_40mhz_5g:0000000000000102 .LBE30
C:\Users\stapi\AppData\Local\Temp\ccxEGDhx.s:517    .text.check_40mhz_5g:000000000000004c .LBB27
C:\Users\stapi\AppData\Local\Temp\ccxEGDhx.s:536    .text.check_40mhz_5g:000000000000005c .LBE27
C:\Users\stapi\AppData\Local\Temp\ccxEGDhx.s:544    .text.check_40mhz_5g:0000000000000060 .LBB28
C:\Users\stapi\AppData\Local\Temp\ccxEGDhx.s:555    .text.check_40mhz_5g:0000000000000068 .LBE28
C:\Users\stapi\AppData\Local\Temp\ccxEGDhx.s:791    .text.check_40mhz_2g4:0000000000000052 .LBB35
C:\Users\stapi\AppData\Local\Temp\ccxEGDhx.s:798    .text.check_40mhz_2g4:0000000000000058 .LBE35
C:\Users\stapi\AppData\Local\Temp\ccxEGDhx.s:843    .text.check_40mhz_2g4:0000000000000080 .LBB44
C:\Users\stapi\AppData\Local\Temp\ccxEGDhx.s:933    .text.check_40mhz_2g4:000000000000010c .LBE44
C:\Users\stapi\AppData\Local\Temp\ccxEGDhx.s:939    .text.check_40mhz_2g4:0000000000000110 .LBB45
C:\Users\stapi\AppData\Local\Temp\ccxEGDhx.s:994    .text.check_40mhz_2g4:000000000000015c .LBE45
C:\Users\stapi\AppData\Local\Temp\ccxEGDhx.s:1002   .text.check_40mhz_2g4:0000000000000160 .LBB46
C:\Users\stapi\AppData\Local\Temp\ccxEGDhx.s:1103   .text.check_40mhz_2g4:000000000000023e .LBE46
C:\Users\stapi\AppData\Local\Temp\ccxEGDhx.s:794    .text.check_40mhz_2g4:0000000000000056 .LBB36
C:\Users\stapi\AppData\Local\Temp\ccxEGDhx.s:797    .text.check_40mhz_2g4:0000000000000058 .LBE36
C:\Users\stapi\AppData\Local\Temp\ccxEGDhx.s:1072   .text.check_40mhz_2g4:00000000000001fc .LBB43
C:\Users\stapi\AppData\Local\Temp\ccxEGDhx.s:1102   .text.check_40mhz_2g4:000000000000023e .LBE43
C:\Users\stapi\AppData\Local\Temp\ccxEGDhx.s:867    .text.check_40mhz_2g4:0000000000000090 .LBE37
C:\Users\stapi\AppData\Local\Temp\ccxEGDhx.s:889    .text.check_40mhz_2g4:00000000000000ae .LBB41
C:\Users\stapi\AppData\Local\Temp\ccxEGDhx.s:924    .text.check_40mhz_2g4:00000000000000fa .LBE41
C:\Users\stapi\AppData\Local\Temp\ccxEGDhx.s:940    .text.check_40mhz_2g4:0000000000000110 .LBB42
C:\Users\stapi\AppData\Local\Temp\ccxEGDhx.s:970    .text.check_40mhz_2g4:0000000000000142 .LBE42

UNDEFINED SYMBOLS
__riscv_save_6
__riscv_restore_6
__riscv_save_0
__riscv_restore_0
__riscv_save_2
ieee802_11_parse_elems
__riscv_restore_2
__riscv_save_5
wpa_printf
__riscv_restore_5
__riscv_save_11
__riscv_restore_11
__riscv_save_12
os_memset
__riscv_restore_12
memcpy
