   1              		.file	"main_gdwifi.c"
   2              		.option nopic
   3              		.attribute arch, "rv32i2p0_m2p0_a2p0_f2p0_c2p0_b_p0p94"
   4              		.attribute unaligned_access, 0
   5              		.attribute stack_align, 16
   6              		.text
   7              	.Ltext0:
   8              		.cfi_sections	.debug_frame
   9              		.section	.text.wpa_supplicant_main,"ax",@progbits
  10              		.align	1
  11              		.globl	wpa_supplicant_main
  13              	wpa_supplicant_main:
  14              	.LFB161:
  15              		.file 1 "C:/Users/stapi/OneDrive/Desktop/GD32VW553/V1_MQTT_OK/GD32VW55X_Wifi_BLE_SDK/GD32VW55x_REL
   1:C:/Users/stapi/OneDrive/Desktop/GD32VW553/V1_MQTT_OK/GD32VW55X_Wifi_BLE_SDK/GD32VW55x_RELEASE_V1.0.2/MSDK/wpa_supplicant/wpa_supplicant\main_gdwifi.c **** /*
   2:C:/Users/stapi/OneDrive/Desktop/GD32VW553/V1_MQTT_OK/GD32VW55X_Wifi_BLE_SDK/GD32VW55x_RELEASE_V1.0.2/MSDK/wpa_supplicant/wpa_supplicant\main_gdwifi.c ****  * WPA Supplicant / Example program entrypoint
   3:C:/Users/stapi/OneDrive/Desktop/GD32VW553/V1_MQTT_OK/GD32VW55X_Wifi_BLE_SDK/GD32VW55x_RELEASE_V1.0.2/MSDK/wpa_supplicant/wpa_supplicant\main_gdwifi.c ****  * Copyright (c) 2003-2005, Jouni Malinen <j@w1.fi>
   4:C:/Users/stapi/OneDrive/Desktop/GD32VW553/V1_MQTT_OK/GD32VW55X_Wifi_BLE_SDK/GD32VW55x_RELEASE_V1.0.2/MSDK/wpa_supplicant/wpa_supplicant\main_gdwifi.c ****  *
   5:C:/Users/stapi/OneDrive/Desktop/GD32VW553/V1_MQTT_OK/GD32VW55X_Wifi_BLE_SDK/GD32VW55x_RELEASE_V1.0.2/MSDK/wpa_supplicant/wpa_supplicant\main_gdwifi.c ****  * This software may be distributed under the terms of the BSD license.
   6:C:/Users/stapi/OneDrive/Desktop/GD32VW553/V1_MQTT_OK/GD32VW55X_Wifi_BLE_SDK/GD32VW55x_RELEASE_V1.0.2/MSDK/wpa_supplicant/wpa_supplicant\main_gdwifi.c ****  * See README for more details.
   7:C:/Users/stapi/OneDrive/Desktop/GD32VW553/V1_MQTT_OK/GD32VW55X_Wifi_BLE_SDK/GD32VW55x_RELEASE_V1.0.2/MSDK/wpa_supplicant/wpa_supplicant\main_gdwifi.c ****  */
   8:C:/Users/stapi/OneDrive/Desktop/GD32VW553/V1_MQTT_OK/GD32VW55X_Wifi_BLE_SDK/GD32VW55x_RELEASE_V1.0.2/MSDK/wpa_supplicant/wpa_supplicant\main_gdwifi.c **** 
   9:C:/Users/stapi/OneDrive/Desktop/GD32VW553/V1_MQTT_OK/GD32VW55X_Wifi_BLE_SDK/GD32VW55x_RELEASE_V1.0.2/MSDK/wpa_supplicant/wpa_supplicant\main_gdwifi.c **** #include "includes.h"
  10:C:/Users/stapi/OneDrive/Desktop/GD32VW553/V1_MQTT_OK/GD32VW55X_Wifi_BLE_SDK/GD32VW55x_RELEASE_V1.0.2/MSDK/wpa_supplicant/wpa_supplicant\main_gdwifi.c **** 
  11:C:/Users/stapi/OneDrive/Desktop/GD32VW553/V1_MQTT_OK/GD32VW55X_Wifi_BLE_SDK/GD32VW55x_RELEASE_V1.0.2/MSDK/wpa_supplicant/wpa_supplicant\main_gdwifi.c **** #include "common.h"
  12:C:/Users/stapi/OneDrive/Desktop/GD32VW553/V1_MQTT_OK/GD32VW55X_Wifi_BLE_SDK/GD32VW55x_RELEASE_V1.0.2/MSDK/wpa_supplicant/wpa_supplicant\main_gdwifi.c **** #include "wpa_supplicant_i.h"
  13:C:/Users/stapi/OneDrive/Desktop/GD32VW553/V1_MQTT_OK/GD32VW55X_Wifi_BLE_SDK/GD32VW55x_RELEASE_V1.0.2/MSDK/wpa_supplicant/wpa_supplicant\main_gdwifi.c **** #include "config.h"
  14:C:/Users/stapi/OneDrive/Desktop/GD32VW553/V1_MQTT_OK/GD32VW55X_Wifi_BLE_SDK/GD32VW55x_RELEASE_V1.0.2/MSDK/wpa_supplicant/wpa_supplicant\main_gdwifi.c **** #include "wifi_wpa.h"
  15:C:/Users/stapi/OneDrive/Desktop/GD32VW553/V1_MQTT_OK/GD32VW55X_Wifi_BLE_SDK/GD32VW55x_RELEASE_V1.0.2/MSDK/wpa_supplicant/wpa_supplicant\main_gdwifi.c **** #include "wifi_init.h"
  16:C:/Users/stapi/OneDrive/Desktop/GD32VW553/V1_MQTT_OK/GD32VW55X_Wifi_BLE_SDK/GD32VW55x_RELEASE_V1.0.2/MSDK/wpa_supplicant/wpa_supplicant\main_gdwifi.c **** 
  17:C:/Users/stapi/OneDrive/Desktop/GD32VW553/V1_MQTT_OK/GD32VW55X_Wifi_BLE_SDK/GD32VW55x_RELEASE_V1.0.2/MSDK/wpa_supplicant/wpa_supplicant\main_gdwifi.c **** void wpa_supplicant_main(void *env)
  18:C:/Users/stapi/OneDrive/Desktop/GD32VW553/V1_MQTT_OK/GD32VW55X_Wifi_BLE_SDK/GD32VW55x_RELEASE_V1.0.2/MSDK/wpa_supplicant/wpa_supplicant\main_gdwifi.c **** {
  16              		.loc 1 18 1
  17              		.cfi_startproc
  18              	.LVL0:
  19 0000 17030000 		call	t0,__riscv_save_1
  19      E7020300 
  20              		.cfi_offset 8, -8
  21              		.cfi_offset 1, -4
  22              		.cfi_def_cfa_offset 16
  19:C:/Users/stapi/OneDrive/Desktop/GD32VW553/V1_MQTT_OK/GD32VW55X_Wifi_BLE_SDK/GD32VW55x_RELEASE_V1.0.2/MSDK/wpa_supplicant/wpa_supplicant\main_gdwifi.c **** 	int exitcode = 0;
  23              		.loc 1 19 2
  24              	.LVL1:
  20:C:/Users/stapi/OneDrive/Desktop/GD32VW553/V1_MQTT_OK/GD32VW55X_Wifi_BLE_SDK/GD32VW55x_RELEASE_V1.0.2/MSDK/wpa_supplicant/wpa_supplicant\main_gdwifi.c **** 	struct wpa_params params;
  25              		.loc 1 20 2
  21:C:/Users/stapi/OneDrive/Desktop/GD32VW553/V1_MQTT_OK/GD32VW55X_Wifi_BLE_SDK/GD32VW55x_RELEASE_V1.0.2/MSDK/wpa_supplicant/wpa_supplicant\main_gdwifi.c **** 	struct wpa_global *global;
  26              		.loc 1 21 2
  22:C:/Users/stapi/OneDrive/Desktop/GD32VW553/V1_MQTT_OK/GD32VW55X_Wifi_BLE_SDK/GD32VW55x_RELEASE_V1.0.2/MSDK/wpa_supplicant/wpa_supplicant\main_gdwifi.c **** 
  23:C:/Users/stapi/OneDrive/Desktop/GD32VW553/V1_MQTT_OK/GD32VW55X_Wifi_BLE_SDK/GD32VW55x_RELEASE_V1.0.2/MSDK/wpa_supplicant/wpa_supplicant\main_gdwifi.c **** 	memset(&params, 0, sizeof(params));
  27              		.loc 1 23 2
  18:C:/Users/stapi/OneDrive/Desktop/GD32VW553/V1_MQTT_OK/GD32VW55X_Wifi_BLE_SDK/GD32VW55x_RELEASE_V1.0.2/MSDK/wpa_supplicant/wpa_supplicant\main_gdwifi.c **** 	int exitcode = 0;
  28              		.loc 1 18 1 is_stmt 0
  29 0008 5D71     		addi	sp,sp,-80
  30              		.cfi_def_cfa_offset 96
  31              		.loc 1 23 2
  32 000a 8145     		li	a1,0
  33 000c 1306C003 		li	a2,60
  34 0010 4808     		addi	a0,sp,20
  35              	.LVL2:
  36 0012 97000000 		call	memset
  36      E7800000 
  37              	.LVL3:
  24:C:/Users/stapi/OneDrive/Desktop/GD32VW553/V1_MQTT_OK/GD32VW55X_Wifi_BLE_SDK/GD32VW55x_RELEASE_V1.0.2/MSDK/wpa_supplicant/wpa_supplicant\main_gdwifi.c **** 	params.wpa_debug_level = MSG_WARNING; //MSG_DEBUG
  38              		.loc 1 24 2 is_stmt 1
  39              		.loc 1 24 25 is_stmt 0
  40 001a 9147     		li	a5,4
  25:C:/Users/stapi/OneDrive/Desktop/GD32VW553/V1_MQTT_OK/GD32VW55X_Wifi_BLE_SDK/GD32VW55x_RELEASE_V1.0.2/MSDK/wpa_supplicant/wpa_supplicant\main_gdwifi.c **** 
  26:C:/Users/stapi/OneDrive/Desktop/GD32VW553/V1_MQTT_OK/GD32VW55X_Wifi_BLE_SDK/GD32VW55x_RELEASE_V1.0.2/MSDK/wpa_supplicant/wpa_supplicant\main_gdwifi.c ****     params.wpa_debug_show_keys = 0;
  27:C:/Users/stapi/OneDrive/Desktop/GD32VW553/V1_MQTT_OK/GD32VW55X_Wifi_BLE_SDK/GD32VW55x_RELEASE_V1.0.2/MSDK/wpa_supplicant/wpa_supplicant\main_gdwifi.c **** 
  28:C:/Users/stapi/OneDrive/Desktop/GD32VW553/V1_MQTT_OK/GD32VW55X_Wifi_BLE_SDK/GD32VW55x_RELEASE_V1.0.2/MSDK/wpa_supplicant/wpa_supplicant\main_gdwifi.c **** 	global = wpa_supplicant_init(&params);
  41              		.loc 1 28 11
  42 001c 4808     		addi	a0,sp,20
  24:C:/Users/stapi/OneDrive/Desktop/GD32VW553/V1_MQTT_OK/GD32VW55X_Wifi_BLE_SDK/GD32VW55x_RELEASE_V1.0.2/MSDK/wpa_supplicant/wpa_supplicant\main_gdwifi.c **** 	params.wpa_debug_level = MSG_WARNING; //MSG_DEBUG
  43              		.loc 1 24 25
  44 001e 3ED0     		sw	a5,32(sp)
  26:C:/Users/stapi/OneDrive/Desktop/GD32VW553/V1_MQTT_OK/GD32VW55X_Wifi_BLE_SDK/GD32VW55x_RELEASE_V1.0.2/MSDK/wpa_supplicant/wpa_supplicant\main_gdwifi.c **** 
  45              		.loc 1 26 5 is_stmt 1
  46              		.loc 1 28 2
  47              		.loc 1 28 11 is_stmt 0
  48 0020 97000000 		call	wpa_supplicant_init
  48      E7800000 
  49              	.LVL4:
  29:C:/Users/stapi/OneDrive/Desktop/GD32VW553/V1_MQTT_OK/GD32VW55X_Wifi_BLE_SDK/GD32VW55x_RELEASE_V1.0.2/MSDK/wpa_supplicant/wpa_supplicant\main_gdwifi.c **** 	if (global == NULL)
  50              		.loc 1 29 2 is_stmt 1
  51 0028 8145     		li	a1,0
  52              		.loc 1 29 5 is_stmt 0
  53 002a 0DCD     		beq	a0,zero,.L2
  30:C:/Users/stapi/OneDrive/Desktop/GD32VW553/V1_MQTT_OK/GD32VW55X_Wifi_BLE_SDK/GD32VW55x_RELEASE_V1.0.2/MSDK/wpa_supplicant/wpa_supplicant\main_gdwifi.c **** 		goto end;
  31:C:/Users/stapi/OneDrive/Desktop/GD32VW553/V1_MQTT_OK/GD32VW55X_Wifi_BLE_SDK/GD32VW55x_RELEASE_V1.0.2/MSDK/wpa_supplicant/wpa_supplicant\main_gdwifi.c **** 	wifi_wpa_send_event(WIFI_WPA_STARTED, global->params.ctrl_interface, 0, WIFI_WPA_GLOBAL_VIF);
  54              		.loc 1 31 2
  55 002c 4C4D     		lw	a1,28(a0)
  56 002e 2A84     		mv	s0,a0
  57              		.loc 1 31 2 is_stmt 1
  58 0030 8946     		li	a3,2
  59 0032 0146     		li	a2,0
  60 0034 0945     		li	a0,2
  61              	.LVL5:
  62 0036 97000000 		call	wifi_wpa_send_event
  62      E7800000 
  63              	.LVL6:
  32:C:/Users/stapi/OneDrive/Desktop/GD32VW553/V1_MQTT_OK/GD32VW55X_Wifi_BLE_SDK/GD32VW55x_RELEASE_V1.0.2/MSDK/wpa_supplicant/wpa_supplicant\main_gdwifi.c **** 	global->params.ctrl_interface = NULL;
  64              		.loc 1 32 2
  33:C:/Users/stapi/OneDrive/Desktop/GD32VW553/V1_MQTT_OK/GD32VW55X_Wifi_BLE_SDK/GD32VW55x_RELEASE_V1.0.2/MSDK/wpa_supplicant/wpa_supplicant\main_gdwifi.c **** 
  34:C:/Users/stapi/OneDrive/Desktop/GD32VW553/V1_MQTT_OK/GD32VW55X_Wifi_BLE_SDK/GD32VW55x_RELEASE_V1.0.2/MSDK/wpa_supplicant/wpa_supplicant\main_gdwifi.c **** 	exitcode = wpa_supplicant_run(global);
  65              		.loc 1 34 13 is_stmt 0
  66 003e 2285     		mv	a0,s0
  32:C:/Users/stapi/OneDrive/Desktop/GD32VW553/V1_MQTT_OK/GD32VW55X_Wifi_BLE_SDK/GD32VW55x_RELEASE_V1.0.2/MSDK/wpa_supplicant/wpa_supplicant\main_gdwifi.c **** 	global->params.ctrl_interface = NULL;
  67              		.loc 1 32 32
  68 0040 232E0400 		sw	zero,28(s0)
  69              		.loc 1 34 2 is_stmt 1
  70              		.loc 1 34 13 is_stmt 0
  71 0044 97000000 		call	wpa_supplicant_run
  71      E7800000 
  72              	.LVL7:
  73 004c 2AC6     		sw	a0,12(sp)
  74              	.LVL8:
  35:C:/Users/stapi/OneDrive/Desktop/GD32VW553/V1_MQTT_OK/GD32VW55X_Wifi_BLE_SDK/GD32VW55x_RELEASE_V1.0.2/MSDK/wpa_supplicant/wpa_supplicant\main_gdwifi.c **** 
  36:C:/Users/stapi/OneDrive/Desktop/GD32VW553/V1_MQTT_OK/GD32VW55X_Wifi_BLE_SDK/GD32VW55x_RELEASE_V1.0.2/MSDK/wpa_supplicant/wpa_supplicant\main_gdwifi.c **** 	wpa_supplicant_deinit(global);
  75              		.loc 1 36 2 is_stmt 1
  76 004e 2285     		mv	a0,s0
  77              	.LVL9:
  78 0050 97000000 		call	wpa_supplicant_deinit
  78      E7800000 
  79              	.LVL10:
  37:C:/Users/stapi/OneDrive/Desktop/GD32VW553/V1_MQTT_OK/GD32VW55X_Wifi_BLE_SDK/GD32VW55x_RELEASE_V1.0.2/MSDK/wpa_supplicant/wpa_supplicant\main_gdwifi.c **** 
  38:C:/Users/stapi/OneDrive/Desktop/GD32VW553/V1_MQTT_OK/GD32VW55X_Wifi_BLE_SDK/GD32VW55x_RELEASE_V1.0.2/MSDK/wpa_supplicant/wpa_supplicant\main_gdwifi.c ****     wifi_task_terminated(SUPPLICANT_TASK);
  80              		.loc 1 38 5
  81 0058 0D45     		li	a0,3
  82 005a 97000000 		call	wifi_task_terminated
  82      E7800000 
  83              	.LVL11:
  84 0062 B245     		lw	a1,12(sp)
  85              	.LVL12:
  86              	.L2:
  39:C:/Users/stapi/OneDrive/Desktop/GD32VW553/V1_MQTT_OK/GD32VW55X_Wifi_BLE_SDK/GD32VW55x_RELEASE_V1.0.2/MSDK/wpa_supplicant/wpa_supplicant\main_gdwifi.c ****   end:
  40:C:/Users/stapi/OneDrive/Desktop/GD32VW553/V1_MQTT_OK/GD32VW55X_Wifi_BLE_SDK/GD32VW55x_RELEASE_V1.0.2/MSDK/wpa_supplicant/wpa_supplicant\main_gdwifi.c **** 	wifi_wpa_send_event(WIFI_WPA_EXIT, (void *)exitcode, 0, WIFI_WPA_GLOBAL_VIF);
  87              		.loc 1 40 2
  88 0064 8946     		li	a3,2
  89 0066 0146     		li	a2,0
  90 0068 0545     		li	a0,1
  91 006a 97000000 		call	wifi_wpa_send_event
  91      E7800000 
  92              	.LVL13:
  41:C:/Users/stapi/OneDrive/Desktop/GD32VW553/V1_MQTT_OK/GD32VW55X_Wifi_BLE_SDK/GD32VW55x_RELEASE_V1.0.2/MSDK/wpa_supplicant/wpa_supplicant\main_gdwifi.c **** 	sys_task_delete(NULL);
  93              		.loc 1 41 2
  94 0072 0145     		li	a0,0
  95 0074 97000000 		call	sys_task_delete
  95      E7800000 
  96              	.LVL14:
  42:C:/Users/stapi/OneDrive/Desktop/GD32VW553/V1_MQTT_OK/GD32VW55X_Wifi_BLE_SDK/GD32VW55x_RELEASE_V1.0.2/MSDK/wpa_supplicant/wpa_supplicant\main_gdwifi.c **** }
  97              		.loc 1 42 1 is_stmt 0
  98 007c 6161     		addi	sp,sp,80
  99              		.cfi_def_cfa_offset 0
 100 007e 17030000 		tail	__riscv_restore_1
 100      67000300 
 101              		.cfi_restore 8
 102              		.cfi_restore 1
 103              		.cfi_def_cfa_offset -16
 104              		.cfi_endproc
 105              	.LFE161:
 107              		.text
 108              	.Letext0:
 109              		.file 2 "c:\\users\\stapi\\onedrive\\desktop\\gd32vw553\\embeddedbuilder_v1.4.7.26843\\tools\\nucl
 110              		.file 3 "c:\\users\\stapi\\onedrive\\desktop\\gd32vw553\\embeddedbuilder_v1.4.7.26843\\tools\\nucl
 111              		.file 4 "c:\\users\\stapi\\onedrive\\desktop\\gd32vw553\\embeddedbuilder_v1.4.7.26843\\tools\\nucl
 112              		.file 5 "..\\..\\..\\..\\macsw\\export/macif_types.h"
 113              		.file 6 "..\\..\\..\\..\\wifi_manager/wifi_wpa.h"
 114              		.file 7 "..\\..\\..\\..\\wpa_supplicant\\src\\utils/os.h"
 115              		.file 8 "..\\..\\..\\..\\wpa_supplicant\\src\\utils/common.h"
 116              		.file 9 "..\\..\\..\\..\\wpa_supplicant\\src\\utils/wpabuf.h"
 117              		.file 10 "..\\..\\..\\..\\wpa_supplicant\\src/utils/list.h"
 118              		.file 11 "..\\..\\..\\..\\wpa_supplicant\\src/common/defs.h"
 119              		.file 12 "..\\..\\..\\..\\wpa_supplicant\\src/common/sae.h"
 120              		.file 13 "..\\..\\..\\..\\wpa_supplicant\\src/eap_peer/eap_config.h"
 121              		.file 14 "C:/Users/stapi/OneDrive/Desktop/GD32VW553/V1_MQTT_OK/GD32VW55X_Wifi_BLE_SDK/GD32VW55x_RE
 122              		.file 15 "..\\..\\..\\..\\wpa_supplicant\\src/common/ieee802_11_defs.h"
 123              		.file 16 "..\\..\\..\\..\\wpa_supplicant\\src/drivers/driver.h"
 124              		.file 17 "..\\..\\..\\..\\wpa_supplicant\\src\\utils/wpa_debug.h"
 125              		.file 18 "C:/Users/stapi/OneDrive/Desktop/GD32VW553/V1_MQTT_OK/GD32VW55X_Wifi_BLE_SDK/GD32VW55x_RE
 126              		.file 19 "C:/Users/stapi/OneDrive/Desktop/GD32VW553/V1_MQTT_OK/GD32VW55X_Wifi_BLE_SDK/GD32VW55x_RE
 127              		.file 20 "..\\..\\..\\..\\wpa_supplicant\\src/common/ieee802_11_common.h"
 128              		.file 21 "..\\..\\..\\..\\wifi_manager/wifi_init.h"
 129              		.file 22 "..\\..\\..\\..\\macsw\\import/rtos_import.h"
 130              		.file 23 "<built-in>"