   1              		.file	"md5-internal.c"
   2              		.option nopic
   3              		.attribute arch, "rv32i2p0_m2p0_a2p0_f2p0_c2p0_b_p0p94"
   4              		.attribute unaligned_access, 0
   5              		.attribute stack_align, 16
   6              		.text
   7              	.Ltext0:
   8              		.cfi_sections	.debug_frame
   9              		.section	.text.MD5Transform,"ax",@progbits
  10              		.align	1
  12              	MD5Transform:
  13              	.LFB436:
  14              		.file 1 "C:/Users/stapi/OneDrive/Desktop/GD32VW553/V1_MQTT_OK/GD32VW55X_Wifi_BLE_SDK/GD32VW55x_REL
   1:C:/Users/stapi/OneDrive/Desktop/GD32VW553/V1_MQTT_OK/GD32VW55X_Wifi_BLE_SDK/GD32VW55x_RELEASE_V1.0.2/MSDK/wpa_supplicant/src/crypto\md5-internal.c **** /*
   2:C:/Users/stapi/OneDrive/Desktop/GD32VW553/V1_MQTT_OK/GD32VW55X_Wifi_BLE_SDK/GD32VW55x_RELEASE_V1.0.2/MSDK/wpa_supplicant/src/crypto\md5-internal.c ****  * MD5 hash implementation and interface functions
   3:C:/Users/stapi/OneDrive/Desktop/GD32VW553/V1_MQTT_OK/GD32VW55X_Wifi_BLE_SDK/GD32VW55x_RELEASE_V1.0.2/MSDK/wpa_supplicant/src/crypto\md5-internal.c ****  * Copyright (c) 2003-2005, Jouni Malinen <j@w1.fi>
   4:C:/Users/stapi/OneDrive/Desktop/GD32VW553/V1_MQTT_OK/GD32VW55X_Wifi_BLE_SDK/GD32VW55x_RELEASE_V1.0.2/MSDK/wpa_supplicant/src/crypto\md5-internal.c ****  *
   5:C:/Users/stapi/OneDrive/Desktop/GD32VW553/V1_MQTT_OK/GD32VW55X_Wifi_BLE_SDK/GD32VW55x_RELEASE_V1.0.2/MSDK/wpa_supplicant/src/crypto\md5-internal.c ****  * This software may be distributed under the terms of the BSD license.
   6:C:/Users/stapi/OneDrive/Desktop/GD32VW553/V1_MQTT_OK/GD32VW55X_Wifi_BLE_SDK/GD32VW55x_RELEASE_V1.0.2/MSDK/wpa_supplicant/src/crypto\md5-internal.c ****  * See README for more details.
   7:C:/Users/stapi/OneDrive/Desktop/GD32VW553/V1_MQTT_OK/GD32VW55X_Wifi_BLE_SDK/GD32VW55x_RELEASE_V1.0.2/MSDK/wpa_supplicant/src/crypto\md5-internal.c ****  */
   8:C:/Users/stapi/OneDrive/Desktop/GD32VW553/V1_MQTT_OK/GD32VW55X_Wifi_BLE_SDK/GD32VW55x_RELEASE_V1.0.2/MSDK/wpa_supplicant/src/crypto\md5-internal.c **** 
   9:C:/Users/stapi/OneDrive/Desktop/GD32VW553/V1_MQTT_OK/GD32VW55X_Wifi_BLE_SDK/GD32VW55x_RELEASE_V1.0.2/MSDK/wpa_supplicant/src/crypto\md5-internal.c **** #include "gd32vw55x_hau.h"
  10:C:/Users/stapi/OneDrive/Desktop/GD32VW553/V1_MQTT_OK/GD32VW55X_Wifi_BLE_SDK/GD32VW55x_RELEASE_V1.0.2/MSDK/wpa_supplicant/src/crypto\md5-internal.c **** #include "includes.h"
  11:C:/Users/stapi/OneDrive/Desktop/GD32VW553/V1_MQTT_OK/GD32VW55X_Wifi_BLE_SDK/GD32VW55x_RELEASE_V1.0.2/MSDK/wpa_supplicant/src/crypto\md5-internal.c **** #include "common.h"
  12:C:/Users/stapi/OneDrive/Desktop/GD32VW553/V1_MQTT_OK/GD32VW55X_Wifi_BLE_SDK/GD32VW55x_RELEASE_V1.0.2/MSDK/wpa_supplicant/src/crypto\md5-internal.c **** #include "md5.h"
  13:C:/Users/stapi/OneDrive/Desktop/GD32VW553/V1_MQTT_OK/GD32VW55X_Wifi_BLE_SDK/GD32VW55x_RELEASE_V1.0.2/MSDK/wpa_supplicant/src/crypto\md5-internal.c **** #include "md5_i.h"
  14:C:/Users/stapi/OneDrive/Desktop/GD32VW553/V1_MQTT_OK/GD32VW55X_Wifi_BLE_SDK/GD32VW55x_RELEASE_V1.0.2/MSDK/wpa_supplicant/src/crypto\md5-internal.c **** #include "crypto.h"
  15:C:/Users/stapi/OneDrive/Desktop/GD32VW553/V1_MQTT_OK/GD32VW55X_Wifi_BLE_SDK/GD32VW55x_RELEASE_V1.0.2/MSDK/wpa_supplicant/src/crypto\md5-internal.c **** 
  16:C:/Users/stapi/OneDrive/Desktop/GD32VW553/V1_MQTT_OK/GD32VW55X_Wifi_BLE_SDK/GD32VW55x_RELEASE_V1.0.2/MSDK/wpa_supplicant/src/crypto\md5-internal.c **** 
  17:C:/Users/stapi/OneDrive/Desktop/GD32VW553/V1_MQTT_OK/GD32VW55X_Wifi_BLE_SDK/GD32VW55x_RELEASE_V1.0.2/MSDK/wpa_supplicant/src/crypto\md5-internal.c **** static void MD5Transform(u32 buf[4], u32 const in[16]);
  18:C:/Users/stapi/OneDrive/Desktop/GD32VW553/V1_MQTT_OK/GD32VW55X_Wifi_BLE_SDK/GD32VW55x_RELEASE_V1.0.2/MSDK/wpa_supplicant/src/crypto\md5-internal.c **** 
  19:C:/Users/stapi/OneDrive/Desktop/GD32VW553/V1_MQTT_OK/GD32VW55X_Wifi_BLE_SDK/GD32VW55x_RELEASE_V1.0.2/MSDK/wpa_supplicant/src/crypto\md5-internal.c **** 
  20:C:/Users/stapi/OneDrive/Desktop/GD32VW553/V1_MQTT_OK/GD32VW55X_Wifi_BLE_SDK/GD32VW55x_RELEASE_V1.0.2/MSDK/wpa_supplicant/src/crypto\md5-internal.c **** typedef struct MD5Context MD5_CTX;
  21:C:/Users/stapi/OneDrive/Desktop/GD32VW553/V1_MQTT_OK/GD32VW55X_Wifi_BLE_SDK/GD32VW55x_RELEASE_V1.0.2/MSDK/wpa_supplicant/src/crypto\md5-internal.c **** 
  22:C:/Users/stapi/OneDrive/Desktop/GD32VW553/V1_MQTT_OK/GD32VW55X_Wifi_BLE_SDK/GD32VW55x_RELEASE_V1.0.2/MSDK/wpa_supplicant/src/crypto\md5-internal.c **** 
  23:C:/Users/stapi/OneDrive/Desktop/GD32VW553/V1_MQTT_OK/GD32VW55X_Wifi_BLE_SDK/GD32VW55x_RELEASE_V1.0.2/MSDK/wpa_supplicant/src/crypto\md5-internal.c **** /**
  24:C:/Users/stapi/OneDrive/Desktop/GD32VW553/V1_MQTT_OK/GD32VW55X_Wifi_BLE_SDK/GD32VW55x_RELEASE_V1.0.2/MSDK/wpa_supplicant/src/crypto\md5-internal.c ****  * md5_vector - MD5 hash for data vector
  25:C:/Users/stapi/OneDrive/Desktop/GD32VW553/V1_MQTT_OK/GD32VW55X_Wifi_BLE_SDK/GD32VW55x_RELEASE_V1.0.2/MSDK/wpa_supplicant/src/crypto\md5-internal.c ****  * @num_elem: Number of elements in the data vector
  26:C:/Users/stapi/OneDrive/Desktop/GD32VW553/V1_MQTT_OK/GD32VW55X_Wifi_BLE_SDK/GD32VW55x_RELEASE_V1.0.2/MSDK/wpa_supplicant/src/crypto\md5-internal.c ****  * @addr: Pointers to the data areas
  27:C:/Users/stapi/OneDrive/Desktop/GD32VW553/V1_MQTT_OK/GD32VW55X_Wifi_BLE_SDK/GD32VW55x_RELEASE_V1.0.2/MSDK/wpa_supplicant/src/crypto\md5-internal.c ****  * @len: Lengths of the data blocks
  28:C:/Users/stapi/OneDrive/Desktop/GD32VW553/V1_MQTT_OK/GD32VW55X_Wifi_BLE_SDK/GD32VW55x_RELEASE_V1.0.2/MSDK/wpa_supplicant/src/crypto\md5-internal.c ****  * @mac: Buffer for the hash
  29:C:/Users/stapi/OneDrive/Desktop/GD32VW553/V1_MQTT_OK/GD32VW55X_Wifi_BLE_SDK/GD32VW55x_RELEASE_V1.0.2/MSDK/wpa_supplicant/src/crypto\md5-internal.c ****  * Returns: 0 on success, -1 of failure
  30:C:/Users/stapi/OneDrive/Desktop/GD32VW553/V1_MQTT_OK/GD32VW55X_Wifi_BLE_SDK/GD32VW55x_RELEASE_V1.0.2/MSDK/wpa_supplicant/src/crypto\md5-internal.c ****  */
  31:C:/Users/stapi/OneDrive/Desktop/GD32VW553/V1_MQTT_OK/GD32VW55X_Wifi_BLE_SDK/GD32VW55x_RELEASE_V1.0.2/MSDK/wpa_supplicant/src/crypto\md5-internal.c **** int md5_vector(size_t num_elem, const u8 *addr[], const size_t *len, u8 *mac)
  32:C:/Users/stapi/OneDrive/Desktop/GD32VW553/V1_MQTT_OK/GD32VW55X_Wifi_BLE_SDK/GD32VW55x_RELEASE_V1.0.2/MSDK/wpa_supplicant/src/crypto\md5-internal.c **** {
  33:C:/Users/stapi/OneDrive/Desktop/GD32VW553/V1_MQTT_OK/GD32VW55X_Wifi_BLE_SDK/GD32VW55x_RELEASE_V1.0.2/MSDK/wpa_supplicant/src/crypto\md5-internal.c **** #ifdef WPA_HW_SECURITY_ENGINE_ENABLE
  34:C:/Users/stapi/OneDrive/Desktop/GD32VW553/V1_MQTT_OK/GD32VW55X_Wifi_BLE_SDK/GD32VW55x_RELEASE_V1.0.2/MSDK/wpa_supplicant/src/crypto\md5-internal.c **** 	uint8_t *input = NULL;
  35:C:/Users/stapi/OneDrive/Desktop/GD32VW553/V1_MQTT_OK/GD32VW55X_Wifi_BLE_SDK/GD32VW55x_RELEASE_V1.0.2/MSDK/wpa_supplicant/src/crypto\md5-internal.c **** 	uint32_t input_len = 0;
  36:C:/Users/stapi/OneDrive/Desktop/GD32VW553/V1_MQTT_OK/GD32VW55X_Wifi_BLE_SDK/GD32VW55x_RELEASE_V1.0.2/MSDK/wpa_supplicant/src/crypto\md5-internal.c **** 	uint32_t i;
  37:C:/Users/stapi/OneDrive/Desktop/GD32VW553/V1_MQTT_OK/GD32VW55X_Wifi_BLE_SDK/GD32VW55x_RELEASE_V1.0.2/MSDK/wpa_supplicant/src/crypto\md5-internal.c **** 	int ret;
  38:C:/Users/stapi/OneDrive/Desktop/GD32VW553/V1_MQTT_OK/GD32VW55X_Wifi_BLE_SDK/GD32VW55x_RELEASE_V1.0.2/MSDK/wpa_supplicant/src/crypto\md5-internal.c **** 
  39:C:/Users/stapi/OneDrive/Desktop/GD32VW553/V1_MQTT_OK/GD32VW55X_Wifi_BLE_SDK/GD32VW55x_RELEASE_V1.0.2/MSDK/wpa_supplicant/src/crypto\md5-internal.c **** 	for (i = 0; i < num_elem; i++) {
  40:C:/Users/stapi/OneDrive/Desktop/GD32VW553/V1_MQTT_OK/GD32VW55X_Wifi_BLE_SDK/GD32VW55x_RELEASE_V1.0.2/MSDK/wpa_supplicant/src/crypto\md5-internal.c **** 		input_len += len[i];
  41:C:/Users/stapi/OneDrive/Desktop/GD32VW553/V1_MQTT_OK/GD32VW55X_Wifi_BLE_SDK/GD32VW55x_RELEASE_V1.0.2/MSDK/wpa_supplicant/src/crypto\md5-internal.c **** 	}
  42:C:/Users/stapi/OneDrive/Desktop/GD32VW553/V1_MQTT_OK/GD32VW55X_Wifi_BLE_SDK/GD32VW55x_RELEASE_V1.0.2/MSDK/wpa_supplicant/src/crypto\md5-internal.c **** 
  43:C:/Users/stapi/OneDrive/Desktop/GD32VW553/V1_MQTT_OK/GD32VW55X_Wifi_BLE_SDK/GD32VW55x_RELEASE_V1.0.2/MSDK/wpa_supplicant/src/crypto\md5-internal.c **** 	input = (uint8_t *)os_malloc(input_len * sizeof(uint8_t));
  44:C:/Users/stapi/OneDrive/Desktop/GD32VW553/V1_MQTT_OK/GD32VW55X_Wifi_BLE_SDK/GD32VW55x_RELEASE_V1.0.2/MSDK/wpa_supplicant/src/crypto\md5-internal.c **** 	if(NULL == input)
  45:C:/Users/stapi/OneDrive/Desktop/GD32VW553/V1_MQTT_OK/GD32VW55X_Wifi_BLE_SDK/GD32VW55x_RELEASE_V1.0.2/MSDK/wpa_supplicant/src/crypto\md5-internal.c **** 		return -1;
  46:C:/Users/stapi/OneDrive/Desktop/GD32VW553/V1_MQTT_OK/GD32VW55X_Wifi_BLE_SDK/GD32VW55x_RELEASE_V1.0.2/MSDK/wpa_supplicant/src/crypto\md5-internal.c **** 
  47:C:/Users/stapi/OneDrive/Desktop/GD32VW553/V1_MQTT_OK/GD32VW55X_Wifi_BLE_SDK/GD32VW55x_RELEASE_V1.0.2/MSDK/wpa_supplicant/src/crypto\md5-internal.c **** 	for (i = 0, input_len = 0; i < num_elem; i++) {
  48:C:/Users/stapi/OneDrive/Desktop/GD32VW553/V1_MQTT_OK/GD32VW55X_Wifi_BLE_SDK/GD32VW55x_RELEASE_V1.0.2/MSDK/wpa_supplicant/src/crypto\md5-internal.c **** 		os_memcpy(input + input_len, addr[i], len[i]);
  49:C:/Users/stapi/OneDrive/Desktop/GD32VW553/V1_MQTT_OK/GD32VW55X_Wifi_BLE_SDK/GD32VW55x_RELEASE_V1.0.2/MSDK/wpa_supplicant/src/crypto\md5-internal.c **** 		input_len += len[i];
  50:C:/Users/stapi/OneDrive/Desktop/GD32VW553/V1_MQTT_OK/GD32VW55X_Wifi_BLE_SDK/GD32VW55x_RELEASE_V1.0.2/MSDK/wpa_supplicant/src/crypto\md5-internal.c **** 	}
  51:C:/Users/stapi/OneDrive/Desktop/GD32VW553/V1_MQTT_OK/GD32VW55X_Wifi_BLE_SDK/GD32VW55x_RELEASE_V1.0.2/MSDK/wpa_supplicant/src/crypto\md5-internal.c **** 
  52:C:/Users/stapi/OneDrive/Desktop/GD32VW553/V1_MQTT_OK/GD32VW55X_Wifi_BLE_SDK/GD32VW55x_RELEASE_V1.0.2/MSDK/wpa_supplicant/src/crypto\md5-internal.c **** 	HW_ACC_ENGINE_LOCK();
  53:C:/Users/stapi/OneDrive/Desktop/GD32VW553/V1_MQTT_OK/GD32VW55X_Wifi_BLE_SDK/GD32VW55x_RELEASE_V1.0.2/MSDK/wpa_supplicant/src/crypto\md5-internal.c **** 	ret = hau_hash_md5(input, input_len, mac);
  54:C:/Users/stapi/OneDrive/Desktop/GD32VW553/V1_MQTT_OK/GD32VW55X_Wifi_BLE_SDK/GD32VW55x_RELEASE_V1.0.2/MSDK/wpa_supplicant/src/crypto\md5-internal.c **** 	HW_ACC_ENGINE_UNLOCK();
  55:C:/Users/stapi/OneDrive/Desktop/GD32VW553/V1_MQTT_OK/GD32VW55X_Wifi_BLE_SDK/GD32VW55x_RELEASE_V1.0.2/MSDK/wpa_supplicant/src/crypto\md5-internal.c **** 
  56:C:/Users/stapi/OneDrive/Desktop/GD32VW553/V1_MQTT_OK/GD32VW55X_Wifi_BLE_SDK/GD32VW55x_RELEASE_V1.0.2/MSDK/wpa_supplicant/src/crypto\md5-internal.c **** 	os_free(input);
  57:C:/Users/stapi/OneDrive/Desktop/GD32VW553/V1_MQTT_OK/GD32VW55X_Wifi_BLE_SDK/GD32VW55x_RELEASE_V1.0.2/MSDK/wpa_supplicant/src/crypto\md5-internal.c **** 	return (ret == ERROR) ? -1 : 0;
  58:C:/Users/stapi/OneDrive/Desktop/GD32VW553/V1_MQTT_OK/GD32VW55X_Wifi_BLE_SDK/GD32VW55x_RELEASE_V1.0.2/MSDK/wpa_supplicant/src/crypto\md5-internal.c **** #else
  59:C:/Users/stapi/OneDrive/Desktop/GD32VW553/V1_MQTT_OK/GD32VW55X_Wifi_BLE_SDK/GD32VW55x_RELEASE_V1.0.2/MSDK/wpa_supplicant/src/crypto\md5-internal.c **** 	MD5_CTX ctx;
  60:C:/Users/stapi/OneDrive/Desktop/GD32VW553/V1_MQTT_OK/GD32VW55X_Wifi_BLE_SDK/GD32VW55x_RELEASE_V1.0.2/MSDK/wpa_supplicant/src/crypto\md5-internal.c **** 	size_t i;
  61:C:/Users/stapi/OneDrive/Desktop/GD32VW553/V1_MQTT_OK/GD32VW55X_Wifi_BLE_SDK/GD32VW55x_RELEASE_V1.0.2/MSDK/wpa_supplicant/src/crypto\md5-internal.c **** 
  62:C:/Users/stapi/OneDrive/Desktop/GD32VW553/V1_MQTT_OK/GD32VW55X_Wifi_BLE_SDK/GD32VW55x_RELEASE_V1.0.2/MSDK/wpa_supplicant/src/crypto\md5-internal.c **** 	if (TEST_FAIL())
  63:C:/Users/stapi/OneDrive/Desktop/GD32VW553/V1_MQTT_OK/GD32VW55X_Wifi_BLE_SDK/GD32VW55x_RELEASE_V1.0.2/MSDK/wpa_supplicant/src/crypto\md5-internal.c **** 		return -1;
  64:C:/Users/stapi/OneDrive/Desktop/GD32VW553/V1_MQTT_OK/GD32VW55X_Wifi_BLE_SDK/GD32VW55x_RELEASE_V1.0.2/MSDK/wpa_supplicant/src/crypto\md5-internal.c **** 
  65:C:/Users/stapi/OneDrive/Desktop/GD32VW553/V1_MQTT_OK/GD32VW55X_Wifi_BLE_SDK/GD32VW55x_RELEASE_V1.0.2/MSDK/wpa_supplicant/src/crypto\md5-internal.c **** 	MD5Init(&ctx);
  66:C:/Users/stapi/OneDrive/Desktop/GD32VW553/V1_MQTT_OK/GD32VW55X_Wifi_BLE_SDK/GD32VW55x_RELEASE_V1.0.2/MSDK/wpa_supplicant/src/crypto\md5-internal.c **** 	for (i = 0; i < num_elem; i++)
  67:C:/Users/stapi/OneDrive/Desktop/GD32VW553/V1_MQTT_OK/GD32VW55X_Wifi_BLE_SDK/GD32VW55x_RELEASE_V1.0.2/MSDK/wpa_supplicant/src/crypto\md5-internal.c **** 		MD5Update(&ctx, addr[i], len[i]);
  68:C:/Users/stapi/OneDrive/Desktop/GD32VW553/V1_MQTT_OK/GD32VW55X_Wifi_BLE_SDK/GD32VW55x_RELEASE_V1.0.2/MSDK/wpa_supplicant/src/crypto\md5-internal.c **** 	MD5Final(mac, &ctx);
  69:C:/Users/stapi/OneDrive/Desktop/GD32VW553/V1_MQTT_OK/GD32VW55X_Wifi_BLE_SDK/GD32VW55x_RELEASE_V1.0.2/MSDK/wpa_supplicant/src/crypto\md5-internal.c **** 	return 0;
  70:C:/Users/stapi/OneDrive/Desktop/GD32VW553/V1_MQTT_OK/GD32VW55X_Wifi_BLE_SDK/GD32VW55x_RELEASE_V1.0.2/MSDK/wpa_supplicant/src/crypto\md5-internal.c **** #endif
  71:C:/Users/stapi/OneDrive/Desktop/GD32VW553/V1_MQTT_OK/GD32VW55X_Wifi_BLE_SDK/GD32VW55x_RELEASE_V1.0.2/MSDK/wpa_supplicant/src/crypto\md5-internal.c **** }
  72:C:/Users/stapi/OneDrive/Desktop/GD32VW553/V1_MQTT_OK/GD32VW55X_Wifi_BLE_SDK/GD32VW55x_RELEASE_V1.0.2/MSDK/wpa_supplicant/src/crypto\md5-internal.c **** 
  73:C:/Users/stapi/OneDrive/Desktop/GD32VW553/V1_MQTT_OK/GD32VW55X_Wifi_BLE_SDK/GD32VW55x_RELEASE_V1.0.2/MSDK/wpa_supplicant/src/crypto\md5-internal.c **** 
  74:C:/Users/stapi/OneDrive/Desktop/GD32VW553/V1_MQTT_OK/GD32VW55X_Wifi_BLE_SDK/GD32VW55x_RELEASE_V1.0.2/MSDK/wpa_supplicant/src/crypto\md5-internal.c **** /* ===== start - public domain MD5 implementation ===== */
  75:C:/Users/stapi/OneDrive/Desktop/GD32VW553/V1_MQTT_OK/GD32VW55X_Wifi_BLE_SDK/GD32VW55x_RELEASE_V1.0.2/MSDK/wpa_supplicant/src/crypto\md5-internal.c **** /*
  76:C:/Users/stapi/OneDrive/Desktop/GD32VW553/V1_MQTT_OK/GD32VW55X_Wifi_BLE_SDK/GD32VW55x_RELEASE_V1.0.2/MSDK/wpa_supplicant/src/crypto\md5-internal.c ****  * This code implements the MD5 message-digest algorithm.
  77:C:/Users/stapi/OneDrive/Desktop/GD32VW553/V1_MQTT_OK/GD32VW55X_Wifi_BLE_SDK/GD32VW55x_RELEASE_V1.0.2/MSDK/wpa_supplicant/src/crypto\md5-internal.c ****  * The algorithm is due to Ron Rivest.  This code was
  78:C:/Users/stapi/OneDrive/Desktop/GD32VW553/V1_MQTT_OK/GD32VW55X_Wifi_BLE_SDK/GD32VW55x_RELEASE_V1.0.2/MSDK/wpa_supplicant/src/crypto\md5-internal.c ****  * written by Colin Plumb in 1993, no copyright is claimed.
  79:C:/Users/stapi/OneDrive/Desktop/GD32VW553/V1_MQTT_OK/GD32VW55X_Wifi_BLE_SDK/GD32VW55x_RELEASE_V1.0.2/MSDK/wpa_supplicant/src/crypto\md5-internal.c ****  * This code is in the public domain; do with it what you wish.
  80:C:/Users/stapi/OneDrive/Desktop/GD32VW553/V1_MQTT_OK/GD32VW55X_Wifi_BLE_SDK/GD32VW55x_RELEASE_V1.0.2/MSDK/wpa_supplicant/src/crypto\md5-internal.c ****  *
  81:C:/Users/stapi/OneDrive/Desktop/GD32VW553/V1_MQTT_OK/GD32VW55X_Wifi_BLE_SDK/GD32VW55x_RELEASE_V1.0.2/MSDK/wpa_supplicant/src/crypto\md5-internal.c ****  * Equivalent code is available from RSA Data Security, Inc.
  82:C:/Users/stapi/OneDrive/Desktop/GD32VW553/V1_MQTT_OK/GD32VW55X_Wifi_BLE_SDK/GD32VW55x_RELEASE_V1.0.2/MSDK/wpa_supplicant/src/crypto\md5-internal.c ****  * This code has been tested against that, and is equivalent,
  83:C:/Users/stapi/OneDrive/Desktop/GD32VW553/V1_MQTT_OK/GD32VW55X_Wifi_BLE_SDK/GD32VW55x_RELEASE_V1.0.2/MSDK/wpa_supplicant/src/crypto\md5-internal.c ****  * except that you don't need to include two pages of legalese
  84:C:/Users/stapi/OneDrive/Desktop/GD32VW553/V1_MQTT_OK/GD32VW55X_Wifi_BLE_SDK/GD32VW55x_RELEASE_V1.0.2/MSDK/wpa_supplicant/src/crypto\md5-internal.c ****  * with every copy.
  85:C:/Users/stapi/OneDrive/Desktop/GD32VW553/V1_MQTT_OK/GD32VW55X_Wifi_BLE_SDK/GD32VW55x_RELEASE_V1.0.2/MSDK/wpa_supplicant/src/crypto\md5-internal.c ****  *
  86:C:/Users/stapi/OneDrive/Desktop/GD32VW553/V1_MQTT_OK/GD32VW55X_Wifi_BLE_SDK/GD32VW55x_RELEASE_V1.0.2/MSDK/wpa_supplicant/src/crypto\md5-internal.c ****  * To compute the message digest of a chunk of bytes, declare an
  87:C:/Users/stapi/OneDrive/Desktop/GD32VW553/V1_MQTT_OK/GD32VW55X_Wifi_BLE_SDK/GD32VW55x_RELEASE_V1.0.2/MSDK/wpa_supplicant/src/crypto\md5-internal.c ****  * MD5Context structure, pass it to MD5Init, call MD5Update as
  88:C:/Users/stapi/OneDrive/Desktop/GD32VW553/V1_MQTT_OK/GD32VW55X_Wifi_BLE_SDK/GD32VW55x_RELEASE_V1.0.2/MSDK/wpa_supplicant/src/crypto\md5-internal.c ****  * needed on buffers full of bytes, and then call MD5Final, which
  89:C:/Users/stapi/OneDrive/Desktop/GD32VW553/V1_MQTT_OK/GD32VW55X_Wifi_BLE_SDK/GD32VW55x_RELEASE_V1.0.2/MSDK/wpa_supplicant/src/crypto\md5-internal.c ****  * will fill a supplied 16-byte array with the digest.
  90:C:/Users/stapi/OneDrive/Desktop/GD32VW553/V1_MQTT_OK/GD32VW55X_Wifi_BLE_SDK/GD32VW55x_RELEASE_V1.0.2/MSDK/wpa_supplicant/src/crypto\md5-internal.c ****  */
  91:C:/Users/stapi/OneDrive/Desktop/GD32VW553/V1_MQTT_OK/GD32VW55X_Wifi_BLE_SDK/GD32VW55x_RELEASE_V1.0.2/MSDK/wpa_supplicant/src/crypto\md5-internal.c **** 
  92:C:/Users/stapi/OneDrive/Desktop/GD32VW553/V1_MQTT_OK/GD32VW55X_Wifi_BLE_SDK/GD32VW55x_RELEASE_V1.0.2/MSDK/wpa_supplicant/src/crypto\md5-internal.c **** #if 1 //ndef WPA_HW_SECURITY_ENGINE_ENABLE
  93:C:/Users/stapi/OneDrive/Desktop/GD32VW553/V1_MQTT_OK/GD32VW55X_Wifi_BLE_SDK/GD32VW55x_RELEASE_V1.0.2/MSDK/wpa_supplicant/src/crypto\md5-internal.c **** 
  94:C:/Users/stapi/OneDrive/Desktop/GD32VW553/V1_MQTT_OK/GD32VW55X_Wifi_BLE_SDK/GD32VW55x_RELEASE_V1.0.2/MSDK/wpa_supplicant/src/crypto\md5-internal.c **** #ifndef WORDS_BIGENDIAN
  95:C:/Users/stapi/OneDrive/Desktop/GD32VW553/V1_MQTT_OK/GD32VW55X_Wifi_BLE_SDK/GD32VW55x_RELEASE_V1.0.2/MSDK/wpa_supplicant/src/crypto\md5-internal.c **** #define byteReverse(buf, len)	/* Nothing */
  96:C:/Users/stapi/OneDrive/Desktop/GD32VW553/V1_MQTT_OK/GD32VW55X_Wifi_BLE_SDK/GD32VW55x_RELEASE_V1.0.2/MSDK/wpa_supplicant/src/crypto\md5-internal.c **** #else
  97:C:/Users/stapi/OneDrive/Desktop/GD32VW553/V1_MQTT_OK/GD32VW55X_Wifi_BLE_SDK/GD32VW55x_RELEASE_V1.0.2/MSDK/wpa_supplicant/src/crypto\md5-internal.c **** /*
  98:C:/Users/stapi/OneDrive/Desktop/GD32VW553/V1_MQTT_OK/GD32VW55X_Wifi_BLE_SDK/GD32VW55x_RELEASE_V1.0.2/MSDK/wpa_supplicant/src/crypto\md5-internal.c ****  * Note: this code is harmless on little-endian machines.
  99:C:/Users/stapi/OneDrive/Desktop/GD32VW553/V1_MQTT_OK/GD32VW55X_Wifi_BLE_SDK/GD32VW55x_RELEASE_V1.0.2/MSDK/wpa_supplicant/src/crypto\md5-internal.c ****  */
 100:C:/Users/stapi/OneDrive/Desktop/GD32VW553/V1_MQTT_OK/GD32VW55X_Wifi_BLE_SDK/GD32VW55x_RELEASE_V1.0.2/MSDK/wpa_supplicant/src/crypto\md5-internal.c **** static void byteReverse(unsigned char *buf, unsigned longs)
 101:C:/Users/stapi/OneDrive/Desktop/GD32VW553/V1_MQTT_OK/GD32VW55X_Wifi_BLE_SDK/GD32VW55x_RELEASE_V1.0.2/MSDK/wpa_supplicant/src/crypto\md5-internal.c **** {
 102:C:/Users/stapi/OneDrive/Desktop/GD32VW553/V1_MQTT_OK/GD32VW55X_Wifi_BLE_SDK/GD32VW55x_RELEASE_V1.0.2/MSDK/wpa_supplicant/src/crypto\md5-internal.c ****     u32 t;
 103:C:/Users/stapi/OneDrive/Desktop/GD32VW553/V1_MQTT_OK/GD32VW55X_Wifi_BLE_SDK/GD32VW55x_RELEASE_V1.0.2/MSDK/wpa_supplicant/src/crypto\md5-internal.c ****     do {
 104:C:/Users/stapi/OneDrive/Desktop/GD32VW553/V1_MQTT_OK/GD32VW55X_Wifi_BLE_SDK/GD32VW55x_RELEASE_V1.0.2/MSDK/wpa_supplicant/src/crypto\md5-internal.c **** 	t = (u32) ((unsigned) buf[3] << 8 | buf[2]) << 16 |
 105:C:/Users/stapi/OneDrive/Desktop/GD32VW553/V1_MQTT_OK/GD32VW55X_Wifi_BLE_SDK/GD32VW55x_RELEASE_V1.0.2/MSDK/wpa_supplicant/src/crypto\md5-internal.c **** 	    ((unsigned) buf[1] << 8 | buf[0]);
 106:C:/Users/stapi/OneDrive/Desktop/GD32VW553/V1_MQTT_OK/GD32VW55X_Wifi_BLE_SDK/GD32VW55x_RELEASE_V1.0.2/MSDK/wpa_supplicant/src/crypto\md5-internal.c **** 	*(u32 *) buf = t;
 107:C:/Users/stapi/OneDrive/Desktop/GD32VW553/V1_MQTT_OK/GD32VW55X_Wifi_BLE_SDK/GD32VW55x_RELEASE_V1.0.2/MSDK/wpa_supplicant/src/crypto\md5-internal.c **** 	buf += 4;
 108:C:/Users/stapi/OneDrive/Desktop/GD32VW553/V1_MQTT_OK/GD32VW55X_Wifi_BLE_SDK/GD32VW55x_RELEASE_V1.0.2/MSDK/wpa_supplicant/src/crypto\md5-internal.c ****     } while (--longs);
 109:C:/Users/stapi/OneDrive/Desktop/GD32VW553/V1_MQTT_OK/GD32VW55X_Wifi_BLE_SDK/GD32VW55x_RELEASE_V1.0.2/MSDK/wpa_supplicant/src/crypto\md5-internal.c **** }
 110:C:/Users/stapi/OneDrive/Desktop/GD32VW553/V1_MQTT_OK/GD32VW55X_Wifi_BLE_SDK/GD32VW55x_RELEASE_V1.0.2/MSDK/wpa_supplicant/src/crypto\md5-internal.c **** #endif
 111:C:/Users/stapi/OneDrive/Desktop/GD32VW553/V1_MQTT_OK/GD32VW55X_Wifi_BLE_SDK/GD32VW55x_RELEASE_V1.0.2/MSDK/wpa_supplicant/src/crypto\md5-internal.c **** 
 112:C:/Users/stapi/OneDrive/Desktop/GD32VW553/V1_MQTT_OK/GD32VW55X_Wifi_BLE_SDK/GD32VW55x_RELEASE_V1.0.2/MSDK/wpa_supplicant/src/crypto\md5-internal.c **** /*
 113:C:/Users/stapi/OneDrive/Desktop/GD32VW553/V1_MQTT_OK/GD32VW55X_Wifi_BLE_SDK/GD32VW55x_RELEASE_V1.0.2/MSDK/wpa_supplicant/src/crypto\md5-internal.c ****  * Start MD5 accumulation.  Set bit count to 0 and buffer to mysterious
 114:C:/Users/stapi/OneDrive/Desktop/GD32VW553/V1_MQTT_OK/GD32VW55X_Wifi_BLE_SDK/GD32VW55x_RELEASE_V1.0.2/MSDK/wpa_supplicant/src/crypto\md5-internal.c ****  * initialization constants.
 115:C:/Users/stapi/OneDrive/Desktop/GD32VW553/V1_MQTT_OK/GD32VW55X_Wifi_BLE_SDK/GD32VW55x_RELEASE_V1.0.2/MSDK/wpa_supplicant/src/crypto\md5-internal.c ****  */
 116:C:/Users/stapi/OneDrive/Desktop/GD32VW553/V1_MQTT_OK/GD32VW55X_Wifi_BLE_SDK/GD32VW55x_RELEASE_V1.0.2/MSDK/wpa_supplicant/src/crypto\md5-internal.c **** void MD5Init(struct MD5Context *ctx)
 117:C:/Users/stapi/OneDrive/Desktop/GD32VW553/V1_MQTT_OK/GD32VW55X_Wifi_BLE_SDK/GD32VW55x_RELEASE_V1.0.2/MSDK/wpa_supplicant/src/crypto\md5-internal.c **** {
 118:C:/Users/stapi/OneDrive/Desktop/GD32VW553/V1_MQTT_OK/GD32VW55X_Wifi_BLE_SDK/GD32VW55x_RELEASE_V1.0.2/MSDK/wpa_supplicant/src/crypto\md5-internal.c ****     ctx->buf[0] = 0x67452301;
 119:C:/Users/stapi/OneDrive/Desktop/GD32VW553/V1_MQTT_OK/GD32VW55X_Wifi_BLE_SDK/GD32VW55x_RELEASE_V1.0.2/MSDK/wpa_supplicant/src/crypto\md5-internal.c ****     ctx->buf[1] = 0xefcdab89;
 120:C:/Users/stapi/OneDrive/Desktop/GD32VW553/V1_MQTT_OK/GD32VW55X_Wifi_BLE_SDK/GD32VW55x_RELEASE_V1.0.2/MSDK/wpa_supplicant/src/crypto\md5-internal.c ****     ctx->buf[2] = 0x98badcfe;
 121:C:/Users/stapi/OneDrive/Desktop/GD32VW553/V1_MQTT_OK/GD32VW55X_Wifi_BLE_SDK/GD32VW55x_RELEASE_V1.0.2/MSDK/wpa_supplicant/src/crypto\md5-internal.c ****     ctx->buf[3] = 0x10325476;
 122:C:/Users/stapi/OneDrive/Desktop/GD32VW553/V1_MQTT_OK/GD32VW55X_Wifi_BLE_SDK/GD32VW55x_RELEASE_V1.0.2/MSDK/wpa_supplicant/src/crypto\md5-internal.c **** 
 123:C:/Users/stapi/OneDrive/Desktop/GD32VW553/V1_MQTT_OK/GD32VW55X_Wifi_BLE_SDK/GD32VW55x_RELEASE_V1.0.2/MSDK/wpa_supplicant/src/crypto\md5-internal.c ****     ctx->bits[0] = 0;
 124:C:/Users/stapi/OneDrive/Desktop/GD32VW553/V1_MQTT_OK/GD32VW55X_Wifi_BLE_SDK/GD32VW55x_RELEASE_V1.0.2/MSDK/wpa_supplicant/src/crypto\md5-internal.c ****     ctx->bits[1] = 0;
 125:C:/Users/stapi/OneDrive/Desktop/GD32VW553/V1_MQTT_OK/GD32VW55X_Wifi_BLE_SDK/GD32VW55x_RELEASE_V1.0.2/MSDK/wpa_supplicant/src/crypto\md5-internal.c **** }
 126:C:/Users/stapi/OneDrive/Desktop/GD32VW553/V1_MQTT_OK/GD32VW55X_Wifi_BLE_SDK/GD32VW55x_RELEASE_V1.0.2/MSDK/wpa_supplicant/src/crypto\md5-internal.c **** 
 127:C:/Users/stapi/OneDrive/Desktop/GD32VW553/V1_MQTT_OK/GD32VW55X_Wifi_BLE_SDK/GD32VW55x_RELEASE_V1.0.2/MSDK/wpa_supplicant/src/crypto\md5-internal.c **** /*
 128:C:/Users/stapi/OneDrive/Desktop/GD32VW553/V1_MQTT_OK/GD32VW55X_Wifi_BLE_SDK/GD32VW55x_RELEASE_V1.0.2/MSDK/wpa_supplicant/src/crypto\md5-internal.c ****  * Update context to reflect the concatenation of another buffer full
 129:C:/Users/stapi/OneDrive/Desktop/GD32VW553/V1_MQTT_OK/GD32VW55X_Wifi_BLE_SDK/GD32VW55x_RELEASE_V1.0.2/MSDK/wpa_supplicant/src/crypto\md5-internal.c ****  * of bytes.
 130:C:/Users/stapi/OneDrive/Desktop/GD32VW553/V1_MQTT_OK/GD32VW55X_Wifi_BLE_SDK/GD32VW55x_RELEASE_V1.0.2/MSDK/wpa_supplicant/src/crypto\md5-internal.c ****  */
 131:C:/Users/stapi/OneDrive/Desktop/GD32VW553/V1_MQTT_OK/GD32VW55X_Wifi_BLE_SDK/GD32VW55x_RELEASE_V1.0.2/MSDK/wpa_supplicant/src/crypto\md5-internal.c **** void MD5Update(struct MD5Context *ctx, unsigned char const *buf, unsigned len)
 132:C:/Users/stapi/OneDrive/Desktop/GD32VW553/V1_MQTT_OK/GD32VW55X_Wifi_BLE_SDK/GD32VW55x_RELEASE_V1.0.2/MSDK/wpa_supplicant/src/crypto\md5-internal.c **** {
 133:C:/Users/stapi/OneDrive/Desktop/GD32VW553/V1_MQTT_OK/GD32VW55X_Wifi_BLE_SDK/GD32VW55x_RELEASE_V1.0.2/MSDK/wpa_supplicant/src/crypto\md5-internal.c ****     u32 t;
 134:C:/Users/stapi/OneDrive/Desktop/GD32VW553/V1_MQTT_OK/GD32VW55X_Wifi_BLE_SDK/GD32VW55x_RELEASE_V1.0.2/MSDK/wpa_supplicant/src/crypto\md5-internal.c **** 
 135:C:/Users/stapi/OneDrive/Desktop/GD32VW553/V1_MQTT_OK/GD32VW55X_Wifi_BLE_SDK/GD32VW55x_RELEASE_V1.0.2/MSDK/wpa_supplicant/src/crypto\md5-internal.c ****     /* Update bitcount */
 136:C:/Users/stapi/OneDrive/Desktop/GD32VW553/V1_MQTT_OK/GD32VW55X_Wifi_BLE_SDK/GD32VW55x_RELEASE_V1.0.2/MSDK/wpa_supplicant/src/crypto\md5-internal.c **** 
 137:C:/Users/stapi/OneDrive/Desktop/GD32VW553/V1_MQTT_OK/GD32VW55X_Wifi_BLE_SDK/GD32VW55x_RELEASE_V1.0.2/MSDK/wpa_supplicant/src/crypto\md5-internal.c ****     t = ctx->bits[0];
 138:C:/Users/stapi/OneDrive/Desktop/GD32VW553/V1_MQTT_OK/GD32VW55X_Wifi_BLE_SDK/GD32VW55x_RELEASE_V1.0.2/MSDK/wpa_supplicant/src/crypto\md5-internal.c ****     if ((ctx->bits[0] = t + ((u32) len << 3)) < t)
 139:C:/Users/stapi/OneDrive/Desktop/GD32VW553/V1_MQTT_OK/GD32VW55X_Wifi_BLE_SDK/GD32VW55x_RELEASE_V1.0.2/MSDK/wpa_supplicant/src/crypto\md5-internal.c **** 	ctx->bits[1]++;		/* Carry from low to high */
 140:C:/Users/stapi/OneDrive/Desktop/GD32VW553/V1_MQTT_OK/GD32VW55X_Wifi_BLE_SDK/GD32VW55x_RELEASE_V1.0.2/MSDK/wpa_supplicant/src/crypto\md5-internal.c ****     ctx->bits[1] += len >> 29;
 141:C:/Users/stapi/OneDrive/Desktop/GD32VW553/V1_MQTT_OK/GD32VW55X_Wifi_BLE_SDK/GD32VW55x_RELEASE_V1.0.2/MSDK/wpa_supplicant/src/crypto\md5-internal.c **** 
 142:C:/Users/stapi/OneDrive/Desktop/GD32VW553/V1_MQTT_OK/GD32VW55X_Wifi_BLE_SDK/GD32VW55x_RELEASE_V1.0.2/MSDK/wpa_supplicant/src/crypto\md5-internal.c ****     t = (t >> 3) & 0x3f;	/* Bytes already in shsInfo->data */
 143:C:/Users/stapi/OneDrive/Desktop/GD32VW553/V1_MQTT_OK/GD32VW55X_Wifi_BLE_SDK/GD32VW55x_RELEASE_V1.0.2/MSDK/wpa_supplicant/src/crypto\md5-internal.c **** 
 144:C:/Users/stapi/OneDrive/Desktop/GD32VW553/V1_MQTT_OK/GD32VW55X_Wifi_BLE_SDK/GD32VW55x_RELEASE_V1.0.2/MSDK/wpa_supplicant/src/crypto\md5-internal.c ****     /* Handle any leading odd-sized chunks */
 145:C:/Users/stapi/OneDrive/Desktop/GD32VW553/V1_MQTT_OK/GD32VW55X_Wifi_BLE_SDK/GD32VW55x_RELEASE_V1.0.2/MSDK/wpa_supplicant/src/crypto\md5-internal.c **** 
 146:C:/Users/stapi/OneDrive/Desktop/GD32VW553/V1_MQTT_OK/GD32VW55X_Wifi_BLE_SDK/GD32VW55x_RELEASE_V1.0.2/MSDK/wpa_supplicant/src/crypto\md5-internal.c ****     if (t) {
 147:C:/Users/stapi/OneDrive/Desktop/GD32VW553/V1_MQTT_OK/GD32VW55X_Wifi_BLE_SDK/GD32VW55x_RELEASE_V1.0.2/MSDK/wpa_supplicant/src/crypto\md5-internal.c **** 	unsigned char *p = (unsigned char *) ctx->in + t;
 148:C:/Users/stapi/OneDrive/Desktop/GD32VW553/V1_MQTT_OK/GD32VW55X_Wifi_BLE_SDK/GD32VW55x_RELEASE_V1.0.2/MSDK/wpa_supplicant/src/crypto\md5-internal.c **** 
 149:C:/Users/stapi/OneDrive/Desktop/GD32VW553/V1_MQTT_OK/GD32VW55X_Wifi_BLE_SDK/GD32VW55x_RELEASE_V1.0.2/MSDK/wpa_supplicant/src/crypto\md5-internal.c **** 	t = 64 - t;
 150:C:/Users/stapi/OneDrive/Desktop/GD32VW553/V1_MQTT_OK/GD32VW55X_Wifi_BLE_SDK/GD32VW55x_RELEASE_V1.0.2/MSDK/wpa_supplicant/src/crypto\md5-internal.c **** 	if (len < t) {
 151:C:/Users/stapi/OneDrive/Desktop/GD32VW553/V1_MQTT_OK/GD32VW55X_Wifi_BLE_SDK/GD32VW55x_RELEASE_V1.0.2/MSDK/wpa_supplicant/src/crypto\md5-internal.c **** 	    os_memcpy(p, buf, len);
 152:C:/Users/stapi/OneDrive/Desktop/GD32VW553/V1_MQTT_OK/GD32VW55X_Wifi_BLE_SDK/GD32VW55x_RELEASE_V1.0.2/MSDK/wpa_supplicant/src/crypto\md5-internal.c **** 	    return;
 153:C:/Users/stapi/OneDrive/Desktop/GD32VW553/V1_MQTT_OK/GD32VW55X_Wifi_BLE_SDK/GD32VW55x_RELEASE_V1.0.2/MSDK/wpa_supplicant/src/crypto\md5-internal.c **** 	}
 154:C:/Users/stapi/OneDrive/Desktop/GD32VW553/V1_MQTT_OK/GD32VW55X_Wifi_BLE_SDK/GD32VW55x_RELEASE_V1.0.2/MSDK/wpa_supplicant/src/crypto\md5-internal.c **** 	os_memcpy(p, buf, t);
 155:C:/Users/stapi/OneDrive/Desktop/GD32VW553/V1_MQTT_OK/GD32VW55X_Wifi_BLE_SDK/GD32VW55x_RELEASE_V1.0.2/MSDK/wpa_supplicant/src/crypto\md5-internal.c **** 	byteReverse(ctx->in, 16);
 156:C:/Users/stapi/OneDrive/Desktop/GD32VW553/V1_MQTT_OK/GD32VW55X_Wifi_BLE_SDK/GD32VW55x_RELEASE_V1.0.2/MSDK/wpa_supplicant/src/crypto\md5-internal.c **** 	MD5Transform(ctx->buf, (u32 *) ctx->in);
 157:C:/Users/stapi/OneDrive/Desktop/GD32VW553/V1_MQTT_OK/GD32VW55X_Wifi_BLE_SDK/GD32VW55x_RELEASE_V1.0.2/MSDK/wpa_supplicant/src/crypto\md5-internal.c **** 	buf += t;
 158:C:/Users/stapi/OneDrive/Desktop/GD32VW553/V1_MQTT_OK/GD32VW55X_Wifi_BLE_SDK/GD32VW55x_RELEASE_V1.0.2/MSDK/wpa_supplicant/src/crypto\md5-internal.c **** 	len -= t;
 159:C:/Users/stapi/OneDrive/Desktop/GD32VW553/V1_MQTT_OK/GD32VW55X_Wifi_BLE_SDK/GD32VW55x_RELEASE_V1.0.2/MSDK/wpa_supplicant/src/crypto\md5-internal.c ****     }
 160:C:/Users/stapi/OneDrive/Desktop/GD32VW553/V1_MQTT_OK/GD32VW55X_Wifi_BLE_SDK/GD32VW55x_RELEASE_V1.0.2/MSDK/wpa_supplicant/src/crypto\md5-internal.c ****     /* Process data in 64-byte chunks */
 161:C:/Users/stapi/OneDrive/Desktop/GD32VW553/V1_MQTT_OK/GD32VW55X_Wifi_BLE_SDK/GD32VW55x_RELEASE_V1.0.2/MSDK/wpa_supplicant/src/crypto\md5-internal.c **** 
 162:C:/Users/stapi/OneDrive/Desktop/GD32VW553/V1_MQTT_OK/GD32VW55X_Wifi_BLE_SDK/GD32VW55x_RELEASE_V1.0.2/MSDK/wpa_supplicant/src/crypto\md5-internal.c ****     while (len >= 64) {
 163:C:/Users/stapi/OneDrive/Desktop/GD32VW553/V1_MQTT_OK/GD32VW55X_Wifi_BLE_SDK/GD32VW55x_RELEASE_V1.0.2/MSDK/wpa_supplicant/src/crypto\md5-internal.c **** 	os_memcpy(ctx->in, buf, 64);
 164:C:/Users/stapi/OneDrive/Desktop/GD32VW553/V1_MQTT_OK/GD32VW55X_Wifi_BLE_SDK/GD32VW55x_RELEASE_V1.0.2/MSDK/wpa_supplicant/src/crypto\md5-internal.c **** 	byteReverse(ctx->in, 16);
 165:C:/Users/stapi/OneDrive/Desktop/GD32VW553/V1_MQTT_OK/GD32VW55X_Wifi_BLE_SDK/GD32VW55x_RELEASE_V1.0.2/MSDK/wpa_supplicant/src/crypto\md5-internal.c **** 	MD5Transform(ctx->buf, (u32 *) ctx->in);
 166:C:/Users/stapi/OneDrive/Desktop/GD32VW553/V1_MQTT_OK/GD32VW55X_Wifi_BLE_SDK/GD32VW55x_RELEASE_V1.0.2/MSDK/wpa_supplicant/src/crypto\md5-internal.c **** 	buf += 64;
 167:C:/Users/stapi/OneDrive/Desktop/GD32VW553/V1_MQTT_OK/GD32VW55X_Wifi_BLE_SDK/GD32VW55x_RELEASE_V1.0.2/MSDK/wpa_supplicant/src/crypto\md5-internal.c **** 	len -= 64;
 168:C:/Users/stapi/OneDrive/Desktop/GD32VW553/V1_MQTT_OK/GD32VW55X_Wifi_BLE_SDK/GD32VW55x_RELEASE_V1.0.2/MSDK/wpa_supplicant/src/crypto\md5-internal.c ****     }
 169:C:/Users/stapi/OneDrive/Desktop/GD32VW553/V1_MQTT_OK/GD32VW55X_Wifi_BLE_SDK/GD32VW55x_RELEASE_V1.0.2/MSDK/wpa_supplicant/src/crypto\md5-internal.c **** 
 170:C:/Users/stapi/OneDrive/Desktop/GD32VW553/V1_MQTT_OK/GD32VW55X_Wifi_BLE_SDK/GD32VW55x_RELEASE_V1.0.2/MSDK/wpa_supplicant/src/crypto\md5-internal.c ****     /* Handle any remaining bytes of data. */
 171:C:/Users/stapi/OneDrive/Desktop/GD32VW553/V1_MQTT_OK/GD32VW55X_Wifi_BLE_SDK/GD32VW55x_RELEASE_V1.0.2/MSDK/wpa_supplicant/src/crypto\md5-internal.c **** 
 172:C:/Users/stapi/OneDrive/Desktop/GD32VW553/V1_MQTT_OK/GD32VW55X_Wifi_BLE_SDK/GD32VW55x_RELEASE_V1.0.2/MSDK/wpa_supplicant/src/crypto\md5-internal.c ****     os_memcpy(ctx->in, buf, len);
 173:C:/Users/stapi/OneDrive/Desktop/GD32VW553/V1_MQTT_OK/GD32VW55X_Wifi_BLE_SDK/GD32VW55x_RELEASE_V1.0.2/MSDK/wpa_supplicant/src/crypto\md5-internal.c **** }
 174:C:/Users/stapi/OneDrive/Desktop/GD32VW553/V1_MQTT_OK/GD32VW55X_Wifi_BLE_SDK/GD32VW55x_RELEASE_V1.0.2/MSDK/wpa_supplicant/src/crypto\md5-internal.c **** 
 175:C:/Users/stapi/OneDrive/Desktop/GD32VW553/V1_MQTT_OK/GD32VW55X_Wifi_BLE_SDK/GD32VW55x_RELEASE_V1.0.2/MSDK/wpa_supplicant/src/crypto\md5-internal.c **** /*
 176:C:/Users/stapi/OneDrive/Desktop/GD32VW553/V1_MQTT_OK/GD32VW55X_Wifi_BLE_SDK/GD32VW55x_RELEASE_V1.0.2/MSDK/wpa_supplicant/src/crypto\md5-internal.c ****  * Final wrapup - pad to 64-byte boundary with the bit pattern
 177:C:/Users/stapi/OneDrive/Desktop/GD32VW553/V1_MQTT_OK/GD32VW55X_Wifi_BLE_SDK/GD32VW55x_RELEASE_V1.0.2/MSDK/wpa_supplicant/src/crypto\md5-internal.c ****  * 1 0* (64-bit count of bits processed, MSB-first)
 178:C:/Users/stapi/OneDrive/Desktop/GD32VW553/V1_MQTT_OK/GD32VW55X_Wifi_BLE_SDK/GD32VW55x_RELEASE_V1.0.2/MSDK/wpa_supplicant/src/crypto\md5-internal.c ****  */
 179:C:/Users/stapi/OneDrive/Desktop/GD32VW553/V1_MQTT_OK/GD32VW55X_Wifi_BLE_SDK/GD32VW55x_RELEASE_V1.0.2/MSDK/wpa_supplicant/src/crypto\md5-internal.c **** void MD5Final(unsigned char digest[16], struct MD5Context *ctx)
 180:C:/Users/stapi/OneDrive/Desktop/GD32VW553/V1_MQTT_OK/GD32VW55X_Wifi_BLE_SDK/GD32VW55x_RELEASE_V1.0.2/MSDK/wpa_supplicant/src/crypto\md5-internal.c **** {
 181:C:/Users/stapi/OneDrive/Desktop/GD32VW553/V1_MQTT_OK/GD32VW55X_Wifi_BLE_SDK/GD32VW55x_RELEASE_V1.0.2/MSDK/wpa_supplicant/src/crypto\md5-internal.c ****     unsigned count;
 182:C:/Users/stapi/OneDrive/Desktop/GD32VW553/V1_MQTT_OK/GD32VW55X_Wifi_BLE_SDK/GD32VW55x_RELEASE_V1.0.2/MSDK/wpa_supplicant/src/crypto\md5-internal.c ****     unsigned char *p;
 183:C:/Users/stapi/OneDrive/Desktop/GD32VW553/V1_MQTT_OK/GD32VW55X_Wifi_BLE_SDK/GD32VW55x_RELEASE_V1.0.2/MSDK/wpa_supplicant/src/crypto\md5-internal.c **** 
 184:C:/Users/stapi/OneDrive/Desktop/GD32VW553/V1_MQTT_OK/GD32VW55X_Wifi_BLE_SDK/GD32VW55x_RELEASE_V1.0.2/MSDK/wpa_supplicant/src/crypto\md5-internal.c ****     /* Compute number of bytes mod 64 */
 185:C:/Users/stapi/OneDrive/Desktop/GD32VW553/V1_MQTT_OK/GD32VW55X_Wifi_BLE_SDK/GD32VW55x_RELEASE_V1.0.2/MSDK/wpa_supplicant/src/crypto\md5-internal.c ****     count = (ctx->bits[0] >> 3) & 0x3F;
 186:C:/Users/stapi/OneDrive/Desktop/GD32VW553/V1_MQTT_OK/GD32VW55X_Wifi_BLE_SDK/GD32VW55x_RELEASE_V1.0.2/MSDK/wpa_supplicant/src/crypto\md5-internal.c **** 
 187:C:/Users/stapi/OneDrive/Desktop/GD32VW553/V1_MQTT_OK/GD32VW55X_Wifi_BLE_SDK/GD32VW55x_RELEASE_V1.0.2/MSDK/wpa_supplicant/src/crypto\md5-internal.c ****     /* Set the first char of padding to 0x80.  This is safe since there is
 188:C:/Users/stapi/OneDrive/Desktop/GD32VW553/V1_MQTT_OK/GD32VW55X_Wifi_BLE_SDK/GD32VW55x_RELEASE_V1.0.2/MSDK/wpa_supplicant/src/crypto\md5-internal.c ****        always at least one byte free */
 189:C:/Users/stapi/OneDrive/Desktop/GD32VW553/V1_MQTT_OK/GD32VW55X_Wifi_BLE_SDK/GD32VW55x_RELEASE_V1.0.2/MSDK/wpa_supplicant/src/crypto\md5-internal.c ****     p = ctx->in + count;
 190:C:/Users/stapi/OneDrive/Desktop/GD32VW553/V1_MQTT_OK/GD32VW55X_Wifi_BLE_SDK/GD32VW55x_RELEASE_V1.0.2/MSDK/wpa_supplicant/src/crypto\md5-internal.c ****     *p++ = 0x80;
 191:C:/Users/stapi/OneDrive/Desktop/GD32VW553/V1_MQTT_OK/GD32VW55X_Wifi_BLE_SDK/GD32VW55x_RELEASE_V1.0.2/MSDK/wpa_supplicant/src/crypto\md5-internal.c **** 
 192:C:/Users/stapi/OneDrive/Desktop/GD32VW553/V1_MQTT_OK/GD32VW55X_Wifi_BLE_SDK/GD32VW55x_RELEASE_V1.0.2/MSDK/wpa_supplicant/src/crypto\md5-internal.c ****     /* Bytes of padding needed to make 64 bytes */
 193:C:/Users/stapi/OneDrive/Desktop/GD32VW553/V1_MQTT_OK/GD32VW55X_Wifi_BLE_SDK/GD32VW55x_RELEASE_V1.0.2/MSDK/wpa_supplicant/src/crypto\md5-internal.c ****     count = 64 - 1 - count;
 194:C:/Users/stapi/OneDrive/Desktop/GD32VW553/V1_MQTT_OK/GD32VW55X_Wifi_BLE_SDK/GD32VW55x_RELEASE_V1.0.2/MSDK/wpa_supplicant/src/crypto\md5-internal.c **** 
 195:C:/Users/stapi/OneDrive/Desktop/GD32VW553/V1_MQTT_OK/GD32VW55X_Wifi_BLE_SDK/GD32VW55x_RELEASE_V1.0.2/MSDK/wpa_supplicant/src/crypto\md5-internal.c ****     /* Pad out to 56 mod 64 */
 196:C:/Users/stapi/OneDrive/Desktop/GD32VW553/V1_MQTT_OK/GD32VW55X_Wifi_BLE_SDK/GD32VW55x_RELEASE_V1.0.2/MSDK/wpa_supplicant/src/crypto\md5-internal.c ****     if (count < 8) {
 197:C:/Users/stapi/OneDrive/Desktop/GD32VW553/V1_MQTT_OK/GD32VW55X_Wifi_BLE_SDK/GD32VW55x_RELEASE_V1.0.2/MSDK/wpa_supplicant/src/crypto\md5-internal.c **** 	/* Two lots of padding:  Pad the first block to 64 bytes */
 198:C:/Users/stapi/OneDrive/Desktop/GD32VW553/V1_MQTT_OK/GD32VW55X_Wifi_BLE_SDK/GD32VW55x_RELEASE_V1.0.2/MSDK/wpa_supplicant/src/crypto\md5-internal.c **** 	os_memset(p, 0, count);
 199:C:/Users/stapi/OneDrive/Desktop/GD32VW553/V1_MQTT_OK/GD32VW55X_Wifi_BLE_SDK/GD32VW55x_RELEASE_V1.0.2/MSDK/wpa_supplicant/src/crypto\md5-internal.c **** 	byteReverse(ctx->in, 16);
 200:C:/Users/stapi/OneDrive/Desktop/GD32VW553/V1_MQTT_OK/GD32VW55X_Wifi_BLE_SDK/GD32VW55x_RELEASE_V1.0.2/MSDK/wpa_supplicant/src/crypto\md5-internal.c **** 	MD5Transform(ctx->buf, (u32 *) ctx->in);
 201:C:/Users/stapi/OneDrive/Desktop/GD32VW553/V1_MQTT_OK/GD32VW55X_Wifi_BLE_SDK/GD32VW55x_RELEASE_V1.0.2/MSDK/wpa_supplicant/src/crypto\md5-internal.c **** 
 202:C:/Users/stapi/OneDrive/Desktop/GD32VW553/V1_MQTT_OK/GD32VW55X_Wifi_BLE_SDK/GD32VW55x_RELEASE_V1.0.2/MSDK/wpa_supplicant/src/crypto\md5-internal.c **** 	/* Now fill the next block with 56 bytes */
 203:C:/Users/stapi/OneDrive/Desktop/GD32VW553/V1_MQTT_OK/GD32VW55X_Wifi_BLE_SDK/GD32VW55x_RELEASE_V1.0.2/MSDK/wpa_supplicant/src/crypto\md5-internal.c **** 	os_memset(ctx->in, 0, 56);
 204:C:/Users/stapi/OneDrive/Desktop/GD32VW553/V1_MQTT_OK/GD32VW55X_Wifi_BLE_SDK/GD32VW55x_RELEASE_V1.0.2/MSDK/wpa_supplicant/src/crypto\md5-internal.c ****     } else {
 205:C:/Users/stapi/OneDrive/Desktop/GD32VW553/V1_MQTT_OK/GD32VW55X_Wifi_BLE_SDK/GD32VW55x_RELEASE_V1.0.2/MSDK/wpa_supplicant/src/crypto\md5-internal.c **** 	/* Pad block to 56 bytes */
 206:C:/Users/stapi/OneDrive/Desktop/GD32VW553/V1_MQTT_OK/GD32VW55X_Wifi_BLE_SDK/GD32VW55x_RELEASE_V1.0.2/MSDK/wpa_supplicant/src/crypto\md5-internal.c **** 	os_memset(p, 0, count - 8);
 207:C:/Users/stapi/OneDrive/Desktop/GD32VW553/V1_MQTT_OK/GD32VW55X_Wifi_BLE_SDK/GD32VW55x_RELEASE_V1.0.2/MSDK/wpa_supplicant/src/crypto\md5-internal.c ****     }
 208:C:/Users/stapi/OneDrive/Desktop/GD32VW553/V1_MQTT_OK/GD32VW55X_Wifi_BLE_SDK/GD32VW55x_RELEASE_V1.0.2/MSDK/wpa_supplicant/src/crypto\md5-internal.c ****     byteReverse(ctx->in, 14);
 209:C:/Users/stapi/OneDrive/Desktop/GD32VW553/V1_MQTT_OK/GD32VW55X_Wifi_BLE_SDK/GD32VW55x_RELEASE_V1.0.2/MSDK/wpa_supplicant/src/crypto\md5-internal.c **** 
 210:C:/Users/stapi/OneDrive/Desktop/GD32VW553/V1_MQTT_OK/GD32VW55X_Wifi_BLE_SDK/GD32VW55x_RELEASE_V1.0.2/MSDK/wpa_supplicant/src/crypto\md5-internal.c ****     /* Append length in bits and transform */
 211:C:/Users/stapi/OneDrive/Desktop/GD32VW553/V1_MQTT_OK/GD32VW55X_Wifi_BLE_SDK/GD32VW55x_RELEASE_V1.0.2/MSDK/wpa_supplicant/src/crypto\md5-internal.c ****     ((u32 *) aliasing_hide_typecast(ctx->in, u32))[14] = ctx->bits[0];
 212:C:/Users/stapi/OneDrive/Desktop/GD32VW553/V1_MQTT_OK/GD32VW55X_Wifi_BLE_SDK/GD32VW55x_RELEASE_V1.0.2/MSDK/wpa_supplicant/src/crypto\md5-internal.c ****     ((u32 *) aliasing_hide_typecast(ctx->in, u32))[15] = ctx->bits[1];
 213:C:/Users/stapi/OneDrive/Desktop/GD32VW553/V1_MQTT_OK/GD32VW55X_Wifi_BLE_SDK/GD32VW55x_RELEASE_V1.0.2/MSDK/wpa_supplicant/src/crypto\md5-internal.c **** 
 214:C:/Users/stapi/OneDrive/Desktop/GD32VW553/V1_MQTT_OK/GD32VW55X_Wifi_BLE_SDK/GD32VW55x_RELEASE_V1.0.2/MSDK/wpa_supplicant/src/crypto\md5-internal.c ****     MD5Transform(ctx->buf, (u32 *) ctx->in);
 215:C:/Users/stapi/OneDrive/Desktop/GD32VW553/V1_MQTT_OK/GD32VW55X_Wifi_BLE_SDK/GD32VW55x_RELEASE_V1.0.2/MSDK/wpa_supplicant/src/crypto\md5-internal.c ****     byteReverse((unsigned char *) ctx->buf, 4);
 216:C:/Users/stapi/OneDrive/Desktop/GD32VW553/V1_MQTT_OK/GD32VW55X_Wifi_BLE_SDK/GD32VW55x_RELEASE_V1.0.2/MSDK/wpa_supplicant/src/crypto\md5-internal.c ****     os_memcpy(digest, ctx->buf, 16);
 217:C:/Users/stapi/OneDrive/Desktop/GD32VW553/V1_MQTT_OK/GD32VW55X_Wifi_BLE_SDK/GD32VW55x_RELEASE_V1.0.2/MSDK/wpa_supplicant/src/crypto\md5-internal.c ****     os_memset(ctx, 0, sizeof(*ctx));	/* In case it's sensitive */
 218:C:/Users/stapi/OneDrive/Desktop/GD32VW553/V1_MQTT_OK/GD32VW55X_Wifi_BLE_SDK/GD32VW55x_RELEASE_V1.0.2/MSDK/wpa_supplicant/src/crypto\md5-internal.c **** }
 219:C:/Users/stapi/OneDrive/Desktop/GD32VW553/V1_MQTT_OK/GD32VW55X_Wifi_BLE_SDK/GD32VW55x_RELEASE_V1.0.2/MSDK/wpa_supplicant/src/crypto\md5-internal.c **** 
 220:C:/Users/stapi/OneDrive/Desktop/GD32VW553/V1_MQTT_OK/GD32VW55X_Wifi_BLE_SDK/GD32VW55x_RELEASE_V1.0.2/MSDK/wpa_supplicant/src/crypto\md5-internal.c **** /* The four core functions - F1 is optimized somewhat */
 221:C:/Users/stapi/OneDrive/Desktop/GD32VW553/V1_MQTT_OK/GD32VW55X_Wifi_BLE_SDK/GD32VW55x_RELEASE_V1.0.2/MSDK/wpa_supplicant/src/crypto\md5-internal.c **** 
 222:C:/Users/stapi/OneDrive/Desktop/GD32VW553/V1_MQTT_OK/GD32VW55X_Wifi_BLE_SDK/GD32VW55x_RELEASE_V1.0.2/MSDK/wpa_supplicant/src/crypto\md5-internal.c **** /* #define F1(x, y, z) (x & y | ~x & z) */
 223:C:/Users/stapi/OneDrive/Desktop/GD32VW553/V1_MQTT_OK/GD32VW55X_Wifi_BLE_SDK/GD32VW55x_RELEASE_V1.0.2/MSDK/wpa_supplicant/src/crypto\md5-internal.c **** #define F1(x, y, z) (z ^ (x & (y ^ z)))
 224:C:/Users/stapi/OneDrive/Desktop/GD32VW553/V1_MQTT_OK/GD32VW55X_Wifi_BLE_SDK/GD32VW55x_RELEASE_V1.0.2/MSDK/wpa_supplicant/src/crypto\md5-internal.c **** #define F2(x, y, z) F1(z, x, y)
 225:C:/Users/stapi/OneDrive/Desktop/GD32VW553/V1_MQTT_OK/GD32VW55X_Wifi_BLE_SDK/GD32VW55x_RELEASE_V1.0.2/MSDK/wpa_supplicant/src/crypto\md5-internal.c **** #define F3(x, y, z) (x ^ y ^ z)
 226:C:/Users/stapi/OneDrive/Desktop/GD32VW553/V1_MQTT_OK/GD32VW55X_Wifi_BLE_SDK/GD32VW55x_RELEASE_V1.0.2/MSDK/wpa_supplicant/src/crypto\md5-internal.c **** #define F4(x, y, z) (y ^ (x | ~z))
 227:C:/Users/stapi/OneDrive/Desktop/GD32VW553/V1_MQTT_OK/GD32VW55X_Wifi_BLE_SDK/GD32VW55x_RELEASE_V1.0.2/MSDK/wpa_supplicant/src/crypto\md5-internal.c **** 
 228:C:/Users/stapi/OneDrive/Desktop/GD32VW553/V1_MQTT_OK/GD32VW55X_Wifi_BLE_SDK/GD32VW55x_RELEASE_V1.0.2/MSDK/wpa_supplicant/src/crypto\md5-internal.c **** /* This is the central step in the MD5 algorithm. */
 229:C:/Users/stapi/OneDrive/Desktop/GD32VW553/V1_MQTT_OK/GD32VW55X_Wifi_BLE_SDK/GD32VW55x_RELEASE_V1.0.2/MSDK/wpa_supplicant/src/crypto\md5-internal.c **** #define MD5STEP(f, w, x, y, z, data, s) \
 230:C:/Users/stapi/OneDrive/Desktop/GD32VW553/V1_MQTT_OK/GD32VW55X_Wifi_BLE_SDK/GD32VW55x_RELEASE_V1.0.2/MSDK/wpa_supplicant/src/crypto\md5-internal.c **** 	( w += f(x, y, z) + data,  w = w<<s | w>>(32-s),  w += x )
 231:C:/Users/stapi/OneDrive/Desktop/GD32VW553/V1_MQTT_OK/GD32VW55X_Wifi_BLE_SDK/GD32VW55x_RELEASE_V1.0.2/MSDK/wpa_supplicant/src/crypto\md5-internal.c **** 
 232:C:/Users/stapi/OneDrive/Desktop/GD32VW553/V1_MQTT_OK/GD32VW55X_Wifi_BLE_SDK/GD32VW55x_RELEASE_V1.0.2/MSDK/wpa_supplicant/src/crypto\md5-internal.c **** /*
 233:C:/Users/stapi/OneDrive/Desktop/GD32VW553/V1_MQTT_OK/GD32VW55X_Wifi_BLE_SDK/GD32VW55x_RELEASE_V1.0.2/MSDK/wpa_supplicant/src/crypto\md5-internal.c ****  * The core of the MD5 algorithm, this alters an existing MD5 hash to
 234:C:/Users/stapi/OneDrive/Desktop/GD32VW553/V1_MQTT_OK/GD32VW55X_Wifi_BLE_SDK/GD32VW55x_RELEASE_V1.0.2/MSDK/wpa_supplicant/src/crypto\md5-internal.c ****  * reflect the addition of 16 longwords of new data.  MD5Update blocks
 235:C:/Users/stapi/OneDrive/Desktop/GD32VW553/V1_MQTT_OK/GD32VW55X_Wifi_BLE_SDK/GD32VW55x_RELEASE_V1.0.2/MSDK/wpa_supplicant/src/crypto\md5-internal.c ****  * the data and converts bytes into longwords for this routine.
 236:C:/Users/stapi/OneDrive/Desktop/GD32VW553/V1_MQTT_OK/GD32VW55X_Wifi_BLE_SDK/GD32VW55x_RELEASE_V1.0.2/MSDK/wpa_supplicant/src/crypto\md5-internal.c ****  */
 237:C:/Users/stapi/OneDrive/Desktop/GD32VW553/V1_MQTT_OK/GD32VW55X_Wifi_BLE_SDK/GD32VW55x_RELEASE_V1.0.2/MSDK/wpa_supplicant/src/crypto\md5-internal.c **** static void MD5Transform(u32 buf[4], u32 const in[16])
 238:C:/Users/stapi/OneDrive/Desktop/GD32VW553/V1_MQTT_OK/GD32VW55X_Wifi_BLE_SDK/GD32VW55x_RELEASE_V1.0.2/MSDK/wpa_supplicant/src/crypto\md5-internal.c **** {
  15              		.loc 1 238 1
  16              		.cfi_startproc
  17              	.LVL0:
 239:C:/Users/stapi/OneDrive/Desktop/GD32VW553/V1_MQTT_OK/GD32VW55X_Wifi_BLE_SDK/GD32VW55x_RELEASE_V1.0.2/MSDK/wpa_supplicant/src/crypto\md5-internal.c ****     register u32 a, b, c, d;
  18              		.loc 1 239 5
 240:C:/Users/stapi/OneDrive/Desktop/GD32VW553/V1_MQTT_OK/GD32VW55X_Wifi_BLE_SDK/GD32VW55x_RELEASE_V1.0.2/MSDK/wpa_supplicant/src/crypto\md5-internal.c **** 
 241:C:/Users/stapi/OneDrive/Desktop/GD32VW553/V1_MQTT_OK/GD32VW55X_Wifi_BLE_SDK/GD32VW55x_RELEASE_V1.0.2/MSDK/wpa_supplicant/src/crypto\md5-internal.c ****     a = buf[0];
  19              		.loc 1 241 5
 242:C:/Users/stapi/OneDrive/Desktop/GD32VW553/V1_MQTT_OK/GD32VW55X_Wifi_BLE_SDK/GD32VW55x_RELEASE_V1.0.2/MSDK/wpa_supplicant/src/crypto\md5-internal.c ****     b = buf[1];
  20              		.loc 1 242 5
 238:C:/Users/stapi/OneDrive/Desktop/GD32VW553/V1_MQTT_OK/GD32VW55X_Wifi_BLE_SDK/GD32VW55x_RELEASE_V1.0.2/MSDK/wpa_supplicant/src/crypto\md5-internal.c ****     register u32 a, b, c, d;
  21              		.loc 1 238 1 is_stmt 0
  22 0000 7971     		addi	sp,sp,-48
  23              		.cfi_def_cfa_offset 48
  24 0002 5EC8     		sw	s7,16(sp)
  25              		.cfi_offset 23, -32
 243:C:/Users/stapi/OneDrive/Desktop/GD32VW553/V1_MQTT_OK/GD32VW55X_Wifi_BLE_SDK/GD32VW55x_RELEASE_V1.0.2/MSDK/wpa_supplicant/src/crypto\md5-internal.c ****     c = buf[2];
 244:C:/Users/stapi/OneDrive/Desktop/GD32VW553/V1_MQTT_OK/GD32VW55X_Wifi_BLE_SDK/GD32VW55x_RELEASE_V1.0.2/MSDK/wpa_supplicant/src/crypto\md5-internal.c ****     d = buf[3];
 245:C:/Users/stapi/OneDrive/Desktop/GD32VW553/V1_MQTT_OK/GD32VW55X_Wifi_BLE_SDK/GD32VW55x_RELEASE_V1.0.2/MSDK/wpa_supplicant/src/crypto\md5-internal.c **** 
 246:C:/Users/stapi/OneDrive/Desktop/GD32VW553/V1_MQTT_OK/GD32VW55X_Wifi_BLE_SDK/GD32VW55x_RELEASE_V1.0.2/MSDK/wpa_supplicant/src/crypto\md5-internal.c ****     MD5STEP(F1, a, b, c, d, in[0] + 0xd76aa478, 7);
  26              		.loc 1 246 5
  27 0004 83AB0500 		lw	s7,0(a1)
 238:C:/Users/stapi/OneDrive/Desktop/GD32VW553/V1_MQTT_OK/GD32VW55X_Wifi_BLE_SDK/GD32VW55x_RELEASE_V1.0.2/MSDK/wpa_supplicant/src/crypto\md5-internal.c ****     register u32 a, b, c, d;
  28              		.loc 1 238 1
  29 0008 62C6     		sw	s8,12(sp)
  30              		.loc 1 246 5
  31 000a 5845     		lw	a4,12(a0)
  32              		.cfi_offset 24, -36
 243:C:/Users/stapi/OneDrive/Desktop/GD32VW553/V1_MQTT_OK/GD32VW55X_Wifi_BLE_SDK/GD32VW55x_RELEASE_V1.0.2/MSDK/wpa_supplicant/src/crypto\md5-internal.c ****     c = buf[2];
  33              		.loc 1 243 7
  34 000c 032C8500 		lw	s8,8(a0)
  35 0010 1C41     		lw	a5,0(a0)
  36 0012 37A66AD7 		li	a2,-680878080
 242:C:/Users/stapi/OneDrive/Desktop/GD32VW553/V1_MQTT_OK/GD32VW55X_Wifi_BLE_SDK/GD32VW55x_RELEASE_V1.0.2/MSDK/wpa_supplicant/src/crypto\md5-internal.c ****     c = buf[2];
  37              		.loc 1 242 7
  38 0016 03284500 		lw	a6,4(a0)
  39              	.LVL1:
 243:C:/Users/stapi/OneDrive/Desktop/GD32VW553/V1_MQTT_OK/GD32VW55X_Wifi_BLE_SDK/GD32VW55x_RELEASE_V1.0.2/MSDK/wpa_supplicant/src/crypto\md5-internal.c ****     c = buf[2];
  40              		.loc 1 243 5 is_stmt 1
 244:C:/Users/stapi/OneDrive/Desktop/GD32VW553/V1_MQTT_OK/GD32VW55X_Wifi_BLE_SDK/GD32VW55x_RELEASE_V1.0.2/MSDK/wpa_supplicant/src/crypto\md5-internal.c **** 
  41              		.loc 1 244 5
  42              		.loc 1 246 5
  43 001a 13068647 		addi	a2,a2,1144
  44 001e 5E96     		add	a2,s7,a2
 238:C:/Users/stapi/OneDrive/Desktop/GD32VW553/V1_MQTT_OK/GD32VW55X_Wifi_BLE_SDK/GD32VW55x_RELEASE_V1.0.2/MSDK/wpa_supplicant/src/crypto\md5-internal.c ****     register u32 a, b, c, d;
  45              		.loc 1 238 1 is_stmt 0
  46 0020 22D6     		sw	s0,44(sp)
  47 0022 B297     		add	a5,a2,a5
  48              		.cfi_offset 8, -4
 247:C:/Users/stapi/OneDrive/Desktop/GD32VW553/V1_MQTT_OK/GD32VW55X_Wifi_BLE_SDK/GD32VW55x_RELEASE_V1.0.2/MSDK/wpa_supplicant/src/crypto\md5-internal.c ****     MD5STEP(F1, d, a, b, c, in[1] + 0xe8c7b756, 12);
  49              		.loc 1 247 5
  50 0024 C041     		lw	s0,4(a1)
 246:C:/Users/stapi/OneDrive/Desktop/GD32VW553/V1_MQTT_OK/GD32VW55X_Wifi_BLE_SDK/GD32VW55x_RELEASE_V1.0.2/MSDK/wpa_supplicant/src/crypto\md5-internal.c ****     MD5STEP(F1, d, a, b, c, in[1] + 0xe8c7b756, 12);
  51              		.loc 1 246 5
  52 0026 3346EC00 		xor	a2,s8,a4
  53 002a 33760601 		and	a2,a2,a6
  54 002e B7B6C7E8 		li	a3,-389566464
  55 0032 398E     		xor	a2,a2,a4
  56 0034 93866675 		addi	a3,a3,1878
 238:C:/Users/stapi/OneDrive/Desktop/GD32VW553/V1_MQTT_OK/GD32VW55X_Wifi_BLE_SDK/GD32VW55x_RELEASE_V1.0.2/MSDK/wpa_supplicant/src/crypto\md5-internal.c ****     register u32 a, b, c, d;
  57              		.loc 1 238 1
  58 0038 56CC     		sw	s5,24(sp)
  59 003a A296     		add	a3,s0,a3
  60              		.cfi_offset 21, -24
 246:C:/Users/stapi/OneDrive/Desktop/GD32VW553/V1_MQTT_OK/GD32VW55X_Wifi_BLE_SDK/GD32VW55x_RELEASE_V1.0.2/MSDK/wpa_supplicant/src/crypto\md5-internal.c ****     MD5STEP(F1, d, a, b, c, in[1] + 0xe8c7b756, 12);
  61              		.loc 1 246 5
  62 003c 9D4A     		li	s5,7
  63 003e 3E96     		add	a2,a2,a5
  64              	.LVL2:
  65 0040 33165661 		rol	a2,a2,s5
  66              	.LVL3:
  67 0044 B387E600 		add	a5,a3,a4
  68 0048 4296     		add	a2,a6,a2
  69              	.LVL4:
  70              		.loc 1 247 5 is_stmt 1
  71 004a B3468801 		xor	a3,a6,s8
  72 004e F18E     		and	a3,a3,a2
 248:C:/Users/stapi/OneDrive/Desktop/GD32VW553/V1_MQTT_OK/GD32VW55X_Wifi_BLE_SDK/GD32VW55x_RELEASE_V1.0.2/MSDK/wpa_supplicant/src/crypto\md5-internal.c ****     MD5STEP(F1, c, d, a, b, in[2] + 0x242070db, 17);
  73              		.loc 1 248 5 is_stmt 0
  74 0050 03A38500 		lw	t1,8(a1)
 247:C:/Users/stapi/OneDrive/Desktop/GD32VW553/V1_MQTT_OK/GD32VW55X_Wifi_BLE_SDK/GD32VW55x_RELEASE_V1.0.2/MSDK/wpa_supplicant/src/crypto\md5-internal.c ****     MD5STEP(F1, d, a, b, c, in[1] + 0xe8c7b756, 12);
  75              		.loc 1 247 5
  76 0054 B3C68601 		xor	a3,a3,s8
  77 0058 BE96     		add	a3,a3,a5
  78              	.LVL5:
  79 005a B7772024 		li	a5,606105600
  80 005e 9387B70D 		addi	a5,a5,219
  81 0062 B142     		li	t0,12
  82 0064 9A97     		add	a5,t1,a5
  83 0066 33878701 		add	a4,a5,s8
  84 006a B3965660 		rol	a3,a3,t0
  85              	.LVL6:
  86              		.loc 1 248 5
  87 006e B347C800 		xor	a5,a6,a2
 247:C:/Users/stapi/OneDrive/Desktop/GD32VW553/V1_MQTT_OK/GD32VW55X_Wifi_BLE_SDK/GD32VW55x_RELEASE_V1.0.2/MSDK/wpa_supplicant/src/crypto\md5-internal.c ****     MD5STEP(F1, d, a, b, c, in[1] + 0xe8c7b756, 12);
  88              		.loc 1 247 5
  89 0072 B296     		add	a3,a2,a3
  90              	.LVL7:
  91              		.loc 1 248 5 is_stmt 1
  92 0074 F58F     		and	a5,a5,a3
 238:C:/Users/stapi/OneDrive/Desktop/GD32VW553/V1_MQTT_OK/GD32VW55X_Wifi_BLE_SDK/GD32VW55x_RELEASE_V1.0.2/MSDK/wpa_supplicant/src/crypto\md5-internal.c ****     register u32 a, b, c, d;
  93              		.loc 1 238 1 is_stmt 0
  94 0076 4AD2     		sw	s2,36(sp)
  95              		.loc 1 248 5
  96 0078 B3C70701 		xor	a5,a5,a6
  97              		.cfi_offset 18, -12
 249:C:/Users/stapi/OneDrive/Desktop/GD32VW553/V1_MQTT_OK/GD32VW55X_Wifi_BLE_SDK/GD32VW55x_RELEASE_V1.0.2/MSDK/wpa_supplicant/src/crypto\md5-internal.c ****     MD5STEP(F1, b, c, d, a, in[3] + 0xc1bdceee, 22);
  98              		.loc 1 249 5
  99 007c 03A9C500 		lw	s2,12(a1)
 248:C:/Users/stapi/OneDrive/Desktop/GD32VW553/V1_MQTT_OK/GD32VW55X_Wifi_BLE_SDK/GD32VW55x_RELEASE_V1.0.2/MSDK/wpa_supplicant/src/crypto\md5-internal.c ****     MD5STEP(F1, c, d, a, b, in[2] + 0x242070db, 17);
 100              		.loc 1 248 5
 101 0080 BA97     		add	a5,a5,a4
 102              	.LVL8:
 103 0082 37D7BDC1 		li	a4,-1044525056
 104 0086 1307E7EE 		addi	a4,a4,-274
 105 008a 4A97     		add	a4,s2,a4
 106 008c B3080701 		add	a7,a4,a6
 107 0090 93D7F760 		rori	a5,a5,15
 108              	.LVL9:
 109              		.loc 1 249 5
 110 0094 3347D600 		xor	a4,a2,a3
 248:C:/Users/stapi/OneDrive/Desktop/GD32VW553/V1_MQTT_OK/GD32VW55X_Wifi_BLE_SDK/GD32VW55x_RELEASE_V1.0.2/MSDK/wpa_supplicant/src/crypto\md5-internal.c ****     MD5STEP(F1, c, d, a, b, in[2] + 0x242070db, 17);
 111              		.loc 1 248 5
 112 0098 B697     		add	a5,a3,a5
 113              	.LVL10:
 114              		.loc 1 249 5 is_stmt 1
 115 009a 7D8F     		and	a4,a4,a5
 250:C:/Users/stapi/OneDrive/Desktop/GD32VW553/V1_MQTT_OK/GD32VW55X_Wifi_BLE_SDK/GD32VW55x_RELEASE_V1.0.2/MSDK/wpa_supplicant/src/crypto\md5-internal.c ****     MD5STEP(F1, a, b, c, d, in[4] + 0xf57c0faf, 7);
 116              		.loc 1 250 5 is_stmt 0
 117 009c 83AE0501 		lw	t4,16(a1)
 249:C:/Users/stapi/OneDrive/Desktop/GD32VW553/V1_MQTT_OK/GD32VW55X_Wifi_BLE_SDK/GD32VW55x_RELEASE_V1.0.2/MSDK/wpa_supplicant/src/crypto\md5-internal.c ****     MD5STEP(F1, b, c, d, a, in[3] + 0xc1bdceee, 22);
 118              		.loc 1 249 5
 119 00a0 318F     		xor	a4,a4,a2
 120 00a2 4697     		add	a4,a4,a7
 121              	.LVL11:
 122 00a4 B7187CF5 		li	a7,-176418816
 123 00a8 9388F8FA 		addi	a7,a7,-81
 124 00ac F698     		add	a7,t4,a7
 125 00ae B298     		add	a7,a7,a2
 126 00b0 1357A760 		rori	a4,a4,10
 127              	.LVL12:
 128              		.loc 1 250 5
 129 00b4 33C6F600 		xor	a2,a3,a5
 130              	.LVL13:
 249:C:/Users/stapi/OneDrive/Desktop/GD32VW553/V1_MQTT_OK/GD32VW55X_Wifi_BLE_SDK/GD32VW55x_RELEASE_V1.0.2/MSDK/wpa_supplicant/src/crypto\md5-internal.c ****     MD5STEP(F1, b, c, d, a, in[3] + 0xc1bdceee, 22);
 131              		.loc 1 249 5
 132 00b8 3E97     		add	a4,a5,a4
 133              	.LVL14:
 134              		.loc 1 250 5 is_stmt 1
 135 00ba 798E     		and	a2,a2,a4
 238:C:/Users/stapi/OneDrive/Desktop/GD32VW553/V1_MQTT_OK/GD32VW55X_Wifi_BLE_SDK/GD32VW55x_RELEASE_V1.0.2/MSDK/wpa_supplicant/src/crypto\md5-internal.c ****     register u32 a, b, c, d;
 136              		.loc 1 238 1 is_stmt 0
 137 00bc 52CE     		sw	s4,28(sp)
 138              		.loc 1 250 5
 139 00be 358E     		xor	a2,a2,a3
 140              		.cfi_offset 20, -20
 251:C:/Users/stapi/OneDrive/Desktop/GD32VW553/V1_MQTT_OK/GD32VW55X_Wifi_BLE_SDK/GD32VW55x_RELEASE_V1.0.2/MSDK/wpa_supplicant/src/crypto\md5-internal.c ****     MD5STEP(F1, d, a, b, c, in[5] + 0x4787c62a, 12);
 141              		.loc 1 251 5
 142 00c0 03AA4501 		lw	s4,20(a1)
 250:C:/Users/stapi/OneDrive/Desktop/GD32VW553/V1_MQTT_OK/GD32VW55X_Wifi_BLE_SDK/GD32VW55x_RELEASE_V1.0.2/MSDK/wpa_supplicant/src/crypto\md5-internal.c ****     MD5STEP(F1, a, b, c, d, in[4] + 0xf57c0faf, 7);
 143              		.loc 1 250 5
 144 00c4 4696     		add	a2,a2,a7
 145              	.LVL15:
 146 00c6 B7C88747 		li	a7,1200078848
 147 00ca 9388A862 		addi	a7,a7,1578
 148 00ce D298     		add	a7,s4,a7
 149 00d0 B698     		add	a7,a7,a3
 150 00d2 33165661 		rol	a2,a2,s5
 151              	.LVL16:
 152              		.loc 1 251 5
 153 00d6 B3C6E700 		xor	a3,a5,a4
 154              	.LVL17:
 250:C:/Users/stapi/OneDrive/Desktop/GD32VW553/V1_MQTT_OK/GD32VW55X_Wifi_BLE_SDK/GD32VW55x_RELEASE_V1.0.2/MSDK/wpa_supplicant/src/crypto\md5-internal.c ****     MD5STEP(F1, a, b, c, d, in[4] + 0xf57c0faf, 7);
 155              		.loc 1 250 5
 156 00da 3A96     		add	a2,a4,a2
 157              	.LVL18:
 158              		.loc 1 251 5 is_stmt 1
 159 00dc F18E     		and	a3,a3,a2
 252:C:/Users/stapi/OneDrive/Desktop/GD32VW553/V1_MQTT_OK/GD32VW55X_Wifi_BLE_SDK/GD32VW55x_RELEASE_V1.0.2/MSDK/wpa_supplicant/src/crypto\md5-internal.c ****     MD5STEP(F1, c, d, a, b, in[6] + 0xa8304613, 17);
 160              		.loc 1 252 5 is_stmt 0
 161 00de 83AF8501 		lw	t6,24(a1)
 251:C:/Users/stapi/OneDrive/Desktop/GD32VW553/V1_MQTT_OK/GD32VW55X_Wifi_BLE_SDK/GD32VW55x_RELEASE_V1.0.2/MSDK/wpa_supplicant/src/crypto\md5-internal.c ****     MD5STEP(F1, d, a, b, c, in[5] + 0x4787c62a, 12);
 162              		.loc 1 251 5
 163 00e2 BD8E     		xor	a3,a3,a5
 164 00e4 C696     		add	a3,a3,a7
 165              	.LVL19:
 166 00e6 B74830A8 		li	a7,-1473232896
 167 00ea 93883861 		addi	a7,a7,1555
 168 00ee FE98     		add	a7,t6,a7
 169 00f0 BE98     		add	a7,a7,a5
 170 00f2 B3965660 		rol	a3,a3,t0
 171              	.LVL20:
 172              		.loc 1 252 5
 173 00f6 B347C700 		xor	a5,a4,a2
 174              	.LVL21:
 251:C:/Users/stapi/OneDrive/Desktop/GD32VW553/V1_MQTT_OK/GD32VW55X_Wifi_BLE_SDK/GD32VW55x_RELEASE_V1.0.2/MSDK/wpa_supplicant/src/crypto\md5-internal.c ****     MD5STEP(F1, d, a, b, c, in[5] + 0x4787c62a, 12);
 175              		.loc 1 251 5
 176 00fa B296     		add	a3,a2,a3
 177              	.LVL22:
 178              		.loc 1 252 5 is_stmt 1
 179 00fc F58F     		and	a5,a5,a3
 238:C:/Users/stapi/OneDrive/Desktop/GD32VW553/V1_MQTT_OK/GD32VW55X_Wifi_BLE_SDK/GD32VW55x_RELEASE_V1.0.2/MSDK/wpa_supplicant/src/crypto\md5-internal.c ****     register u32 a, b, c, d;
 180              		.loc 1 238 1 is_stmt 0
 181 00fe 5ACA     		sw	s6,20(sp)
 182              		.loc 1 252 5
 183 0100 B98F     		xor	a5,a5,a4
 184              		.cfi_offset 22, -28
 253:C:/Users/stapi/OneDrive/Desktop/GD32VW553/V1_MQTT_OK/GD32VW55X_Wifi_BLE_SDK/GD32VW55x_RELEASE_V1.0.2/MSDK/wpa_supplicant/src/crypto\md5-internal.c ****     MD5STEP(F1, b, c, d, a, in[7] + 0xfd469501, 22);
 185              		.loc 1 253 5
 186 0102 03ABC501 		lw	s6,28(a1)
 252:C:/Users/stapi/OneDrive/Desktop/GD32VW553/V1_MQTT_OK/GD32VW55X_Wifi_BLE_SDK/GD32VW55x_RELEASE_V1.0.2/MSDK/wpa_supplicant/src/crypto\md5-internal.c ****     MD5STEP(F1, c, d, a, b, in[6] + 0xa8304613, 17);
 187              		.loc 1 252 5
 188 0106 C697     		add	a5,a5,a7
 189              	.LVL23:
 190 0108 B79846FD 		li	a7,-45707264
 191 010c 93881850 		addi	a7,a7,1281
 192 0110 DA98     		add	a7,s6,a7
 254:C:/Users/stapi/OneDrive/Desktop/GD32VW553/V1_MQTT_OK/GD32VW55X_Wifi_BLE_SDK/GD32VW55x_RELEASE_V1.0.2/MSDK/wpa_supplicant/src/crypto\md5-internal.c ****     MD5STEP(F1, a, b, c, d, in[8] + 0x698098d8, 7);
 193              		.loc 1 254 5
 194 0112 83A30502 		lw	t2,32(a1)
 195 0116 BA98     		add	a7,a7,a4
 252:C:/Users/stapi/OneDrive/Desktop/GD32VW553/V1_MQTT_OK/GD32VW55X_Wifi_BLE_SDK/GD32VW55x_RELEASE_V1.0.2/MSDK/wpa_supplicant/src/crypto\md5-internal.c ****     MD5STEP(F1, b, c, d, a, in[7] + 0xfd469501, 22);
 196              		.loc 1 252 5
 197 0118 93D7F760 		rori	a5,a5,15
 198              	.LVL24:
 253:C:/Users/stapi/OneDrive/Desktop/GD32VW553/V1_MQTT_OK/GD32VW55X_Wifi_BLE_SDK/GD32VW55x_RELEASE_V1.0.2/MSDK/wpa_supplicant/src/crypto\md5-internal.c ****     MD5STEP(F1, b, c, d, a, in[7] + 0xfd469501, 22);
 199              		.loc 1 253 5
 200 011c 3347D600 		xor	a4,a2,a3
 201              	.LVL25:
 252:C:/Users/stapi/OneDrive/Desktop/GD32VW553/V1_MQTT_OK/GD32VW55X_Wifi_BLE_SDK/GD32VW55x_RELEASE_V1.0.2/MSDK/wpa_supplicant/src/crypto\md5-internal.c ****     MD5STEP(F1, b, c, d, a, in[7] + 0xfd469501, 22);
 202              		.loc 1 252 5
 203 0120 B697     		add	a5,a3,a5
 204              	.LVL26:
 253:C:/Users/stapi/OneDrive/Desktop/GD32VW553/V1_MQTT_OK/GD32VW55X_Wifi_BLE_SDK/GD32VW55x_RELEASE_V1.0.2/MSDK/wpa_supplicant/src/crypto\md5-internal.c ****     MD5STEP(F1, b, c, d, a, in[7] + 0xfd469501, 22);
 205              		.loc 1 253 5 is_stmt 1
 206 0122 7D8F     		and	a4,a4,a5
 207 0124 37AF8069 		li	t5,1770037248
 208 0128 318F     		xor	a4,a4,a2
 209 012a 130F8F8D 		addi	t5,t5,-1832
 210 012e 1E9F     		add	t5,t2,t5
 211 0130 4697     		add	a4,a4,a7
 212              	.LVL27:
 213 0132 7A96     		add	a2,t5,a2
 214              	.LVL28:
 215 0134 1357A760 		rori	a4,a4,10
 216              	.LVL29:
 217              		.loc 1 254 5 is_stmt 0
 218 0138 33CFF600 		xor	t5,a3,a5
 253:C:/Users/stapi/OneDrive/Desktop/GD32VW553/V1_MQTT_OK/GD32VW55X_Wifi_BLE_SDK/GD32VW55x_RELEASE_V1.0.2/MSDK/wpa_supplicant/src/crypto\md5-internal.c ****     MD5STEP(F1, b, c, d, a, in[7] + 0xfd469501, 22);
 219              		.loc 1 253 5
 220 013c 3E97     		add	a4,a5,a4
 221              	.LVL30:
 222              		.loc 1 254 5 is_stmt 1
 223 013e 337FEF00 		and	t5,t5,a4
 255:C:/Users/stapi/OneDrive/Desktop/GD32VW553/V1_MQTT_OK/GD32VW55X_Wifi_BLE_SDK/GD32VW55x_RELEASE_V1.0.2/MSDK/wpa_supplicant/src/crypto\md5-internal.c ****     MD5STEP(F1, d, a, b, c, in[9] + 0x8b44f7af, 12);
 224              		.loc 1 255 5 is_stmt 0
 225 0142 83A84502 		lw	a7,36(a1)
 254:C:/Users/stapi/OneDrive/Desktop/GD32VW553/V1_MQTT_OK/GD32VW55X_Wifi_BLE_SDK/GD32VW55x_RELEASE_V1.0.2/MSDK/wpa_supplicant/src/crypto\md5-internal.c ****     MD5STEP(F1, a, b, c, d, in[8] + 0x698098d8, 7);
 226              		.loc 1 254 5
 227 0146 334FDF00 		xor	t5,t5,a3
 228 014a 329F     		add	t5,t5,a2
 229              	.LVL31:
 230 014c 37F6448B 		li	a2,-1958416384
 231 0150 1306F67A 		addi	a2,a2,1967
 232 0154 4696     		add	a2,a7,a2
 233 0156 3696     		add	a2,a2,a3
 234 0158 331F5F61 		rol	t5,t5,s5
 235              	.LVL32:
 236              		.loc 1 255 5
 237 015c B3C6E700 		xor	a3,a5,a4
 238              	.LVL33:
 254:C:/Users/stapi/OneDrive/Desktop/GD32VW553/V1_MQTT_OK/GD32VW55X_Wifi_BLE_SDK/GD32VW55x_RELEASE_V1.0.2/MSDK/wpa_supplicant/src/crypto\md5-internal.c ****     MD5STEP(F1, a, b, c, d, in[8] + 0x698098d8, 7);
 239              		.loc 1 254 5
 240 0160 3A9F     		add	t5,a4,t5
 241              	.LVL34:
 242              		.loc 1 255 5 is_stmt 1
 243 0162 B3F6E601 		and	a3,a3,t5
 238:C:/Users/stapi/OneDrive/Desktop/GD32VW553/V1_MQTT_OK/GD32VW55X_Wifi_BLE_SDK/GD32VW55x_RELEASE_V1.0.2/MSDK/wpa_supplicant/src/crypto\md5-internal.c ****     register u32 a, b, c, d;
 244              		.loc 1 238 1 is_stmt 0
 245 0166 26D4     		sw	s1,40(sp)
 246              		.loc 1 255 5
 247 0168 BD8E     		xor	a3,a3,a5
 248              		.cfi_offset 9, -8
 256:C:/Users/stapi/OneDrive/Desktop/GD32VW553/V1_MQTT_OK/GD32VW55X_Wifi_BLE_SDK/GD32VW55x_RELEASE_V1.0.2/MSDK/wpa_supplicant/src/crypto\md5-internal.c ****     MD5STEP(F1, c, d, a, b, in[10] + 0xffff5bb1, 17);
 249              		.loc 1 256 5
 250 016a 8455     		lw	s1,40(a1)
 255:C:/Users/stapi/OneDrive/Desktop/GD32VW553/V1_MQTT_OK/GD32VW55X_Wifi_BLE_SDK/GD32VW55x_RELEASE_V1.0.2/MSDK/wpa_supplicant/src/crypto\md5-internal.c ****     MD5STEP(F1, d, a, b, c, in[9] + 0x8b44f7af, 12);
 251              		.loc 1 255 5
 252 016c B296     		add	a3,a3,a2
 253              	.LVL35:
 254 016e 5976     		li	a2,-40960
 255 0170 130616BB 		addi	a2,a2,-1103
 256 0174 2696     		add	a2,s1,a2
 257 0176 3E96     		add	a2,a2,a5
 258 0178 B3965660 		rol	a3,a3,t0
 259              	.LVL36:
 260              		.loc 1 256 5
 261 017c B347E701 		xor	a5,a4,t5
 262              	.LVL37:
 255:C:/Users/stapi/OneDrive/Desktop/GD32VW553/V1_MQTT_OK/GD32VW55X_Wifi_BLE_SDK/GD32VW55x_RELEASE_V1.0.2/MSDK/wpa_supplicant/src/crypto\md5-internal.c ****     MD5STEP(F1, d, a, b, c, in[9] + 0x8b44f7af, 12);
 263              		.loc 1 255 5
 264 0180 FA96     		add	a3,t5,a3
 265              	.LVL38:
 266              		.loc 1 256 5 is_stmt 1
 267 0182 F58F     		and	a5,a5,a3
 257:C:/Users/stapi/OneDrive/Desktop/GD32VW553/V1_MQTT_OK/GD32VW55X_Wifi_BLE_SDK/GD32VW55x_RELEASE_V1.0.2/MSDK/wpa_supplicant/src/crypto\md5-internal.c ****     MD5STEP(F1, b, c, d, a, in[11] + 0x895cd7be, 22);
 268              		.loc 1 257 5 is_stmt 0
 269 0184 03AEC502 		lw	t3,44(a1)
 256:C:/Users/stapi/OneDrive/Desktop/GD32VW553/V1_MQTT_OK/GD32VW55X_Wifi_BLE_SDK/GD32VW55x_RELEASE_V1.0.2/MSDK/wpa_supplicant/src/crypto\md5-internal.c ****     MD5STEP(F1, c, d, a, b, in[10] + 0xffff5bb1, 17);
 270              		.loc 1 256 5
 271 0188 B98F     		xor	a5,a5,a4
 272 018a B297     		add	a5,a5,a2
 273              	.LVL39:
 274 018c 37D65C89 		li	a2,-1990406144
 275 0190 1306E67B 		addi	a2,a2,1982
 276 0194 7296     		add	a2,t3,a2
 238:C:/Users/stapi/OneDrive/Desktop/GD32VW553/V1_MQTT_OK/GD32VW55X_Wifi_BLE_SDK/GD32VW55x_RELEASE_V1.0.2/MSDK/wpa_supplicant/src/crypto\md5-internal.c ****     register u32 a, b, c, d;
 277              		.loc 1 238 1
 278 0196 4ED0     		sw	s3,32(sp)
 279 0198 3A96     		add	a2,a2,a4
 280              		.cfi_offset 19, -16
 258:C:/Users/stapi/OneDrive/Desktop/GD32VW553/V1_MQTT_OK/GD32VW55X_Wifi_BLE_SDK/GD32VW55x_RELEASE_V1.0.2/MSDK/wpa_supplicant/src/crypto\md5-internal.c ****     MD5STEP(F1, a, b, c, d, in[12] + 0x6b901122, 7);
 281              		.loc 1 258 5
 282 019a 83A90503 		lw	s3,48(a1)
 257:C:/Users/stapi/OneDrive/Desktop/GD32VW553/V1_MQTT_OK/GD32VW55X_Wifi_BLE_SDK/GD32VW55x_RELEASE_V1.0.2/MSDK/wpa_supplicant/src/crypto\md5-internal.c ****     MD5STEP(F1, b, c, d, a, in[11] + 0x895cd7be, 22);
 283              		.loc 1 257 5
 284 019e 3347DF00 		xor	a4,t5,a3
 285              	.LVL40:
 256:C:/Users/stapi/OneDrive/Desktop/GD32VW553/V1_MQTT_OK/GD32VW55X_Wifi_BLE_SDK/GD32VW55x_RELEASE_V1.0.2/MSDK/wpa_supplicant/src/crypto\md5-internal.c ****     MD5STEP(F1, c, d, a, b, in[10] + 0xffff5bb1, 17);
 286              		.loc 1 256 5
 287 01a2 93D7F760 		rori	a5,a5,15
 288              	.LVL41:
 289 01a6 B697     		add	a5,a3,a5
 290              	.LVL42:
 257:C:/Users/stapi/OneDrive/Desktop/GD32VW553/V1_MQTT_OK/GD32VW55X_Wifi_BLE_SDK/GD32VW55x_RELEASE_V1.0.2/MSDK/wpa_supplicant/src/crypto\md5-internal.c ****     MD5STEP(F1, b, c, d, a, in[11] + 0x895cd7be, 22);
 291              		.loc 1 257 5 is_stmt 1
 238:C:/Users/stapi/OneDrive/Desktop/GD32VW553/V1_MQTT_OK/GD32VW55X_Wifi_BLE_SDK/GD32VW55x_RELEASE_V1.0.2/MSDK/wpa_supplicant/src/crypto\md5-internal.c ****     register u32 a, b, c, d;
 292              		.loc 1 238 1 is_stmt 0
 293 01a8 66C4     		sw	s9,8(sp)
 257:C:/Users/stapi/OneDrive/Desktop/GD32VW553/V1_MQTT_OK/GD32VW55X_Wifi_BLE_SDK/GD32VW55x_RELEASE_V1.0.2/MSDK/wpa_supplicant/src/crypto\md5-internal.c ****     MD5STEP(F1, b, c, d, a, in[11] + 0x895cd7be, 22);
 294              		.loc 1 257 5
 295 01aa 7D8F     		and	a4,a4,a5
 296              		.cfi_offset 25, -40
 297 01ac B71C906B 		li	s9,1804603392
 298 01b0 3347E701 		xor	a4,a4,t5
 299 01b4 938C2C12 		addi	s9,s9,290
 300 01b8 CE9C     		add	s9,s3,s9
 301 01ba 3297     		add	a4,a4,a2
 302              	.LVL43:
 303 01bc 669F     		add	t5,s9,t5
 304              	.LVL44:
 305 01be 1357A760 		rori	a4,a4,10
 306              	.LVL45:
 307              		.loc 1 258 5
 308 01c2 B3CCF600 		xor	s9,a3,a5
 257:C:/Users/stapi/OneDrive/Desktop/GD32VW553/V1_MQTT_OK/GD32VW55X_Wifi_BLE_SDK/GD32VW55x_RELEASE_V1.0.2/MSDK/wpa_supplicant/src/crypto\md5-internal.c ****     MD5STEP(F1, b, c, d, a, in[11] + 0x895cd7be, 22);
 309              		.loc 1 257 5
 310 01c6 3E97     		add	a4,a5,a4
 311              	.LVL46:
 312              		.loc 1 258 5 is_stmt 1
 313 01c8 B3FCEC00 		and	s9,s9,a4
 314 01cc B3CCDC00 		xor	s9,s9,a3
 315 01d0 FA9C     		add	s9,s9,t5
 316              	.LVL47:
 259:C:/Users/stapi/OneDrive/Desktop/GD32VW553/V1_MQTT_OK/GD32VW55X_Wifi_BLE_SDK/GD32VW55x_RELEASE_V1.0.2/MSDK/wpa_supplicant/src/crypto\md5-internal.c ****     MD5STEP(F1, d, a, b, c, in[13] + 0xfd987193, 12);
 317              		.loc 1 259 5 is_stmt 0
 318 01d2 03AF4503 		lw	t5,52(a1)
 319 01d6 377698FD 		li	a2,-40341504
 320 01da 13063619 		addi	a2,a2,403
 321 01de 7A96     		add	a2,t5,a2
 322 01e0 B296     		add	a3,a2,a3
 323              	.LVL48:
 258:C:/Users/stapi/OneDrive/Desktop/GD32VW553/V1_MQTT_OK/GD32VW55X_Wifi_BLE_SDK/GD32VW55x_RELEASE_V1.0.2/MSDK/wpa_supplicant/src/crypto\md5-internal.c ****     MD5STEP(F1, a, b, c, d, in[12] + 0x6b901122, 7);
 324              		.loc 1 258 5
 325 01e2 B39C5C61 		rol	s9,s9,s5
 326              	.LVL49:
 327              		.loc 1 259 5
 328 01e6 33C6E700 		xor	a2,a5,a4
 258:C:/Users/stapi/OneDrive/Desktop/GD32VW553/V1_MQTT_OK/GD32VW55X_Wifi_BLE_SDK/GD32VW55x_RELEASE_V1.0.2/MSDK/wpa_supplicant/src/crypto\md5-internal.c ****     MD5STEP(F1, a, b, c, d, in[12] + 0x6b901122, 7);
 329              		.loc 1 258 5
 330 01ea BA9C     		add	s9,a4,s9
 331              	.LVL50:
 332              		.loc 1 259 5 is_stmt 1
 333 01ec 33769601 		and	a2,a2,s9
 260:C:/Users/stapi/OneDrive/Desktop/GD32VW553/V1_MQTT_OK/GD32VW55X_Wifi_BLE_SDK/GD32VW55x_RELEASE_V1.0.2/MSDK/wpa_supplicant/src/crypto\md5-internal.c ****     MD5STEP(F1, c, d, a, b, in[14] + 0xa679438e, 17);
 334              		.loc 1 260 5 is_stmt 0
 335 01f0 83AA8503 		lw	s5,56(a1)
 259:C:/Users/stapi/OneDrive/Desktop/GD32VW553/V1_MQTT_OK/GD32VW55X_Wifi_BLE_SDK/GD32VW55x_RELEASE_V1.0.2/MSDK/wpa_supplicant/src/crypto\md5-internal.c ****     MD5STEP(F1, d, a, b, c, in[13] + 0xfd987193, 12);
 336              		.loc 1 259 5
 337 01f4 3D8E     		xor	a2,a2,a5
 338 01f6 3696     		add	a2,a2,a3
 339              	.LVL51:
 340 01f8 B74679A6 		li	a3,-1502003200
 341 01fc 9386E638 		addi	a3,a3,910
 342 0200 D696     		add	a3,s5,a3
 343 0202 BE96     		add	a3,a3,a5
 344 0204 33165660 		rol	a2,a2,t0
 345              	.LVL52:
 346              		.loc 1 260 5
 347 0208 B3479701 		xor	a5,a4,s9
 348              	.LVL53:
 259:C:/Users/stapi/OneDrive/Desktop/GD32VW553/V1_MQTT_OK/GD32VW55X_Wifi_BLE_SDK/GD32VW55x_RELEASE_V1.0.2/MSDK/wpa_supplicant/src/crypto\md5-internal.c ****     MD5STEP(F1, d, a, b, c, in[13] + 0xfd987193, 12);
 349              		.loc 1 259 5
 350 020c 6696     		add	a2,s9,a2
 351              	.LVL54:
 352              		.loc 1 260 5 is_stmt 1
 353 020e F18F     		and	a5,a5,a2
 261:C:/Users/stapi/OneDrive/Desktop/GD32VW553/V1_MQTT_OK/GD32VW55X_Wifi_BLE_SDK/GD32VW55x_RELEASE_V1.0.2/MSDK/wpa_supplicant/src/crypto\md5-internal.c ****     MD5STEP(F1, b, c, d, a, in[15] + 0x49b40821, 22);
 354              		.loc 1 261 5 is_stmt 0
 355 0210 83A2C503 		lw	t0,60(a1)
 260:C:/Users/stapi/OneDrive/Desktop/GD32VW553/V1_MQTT_OK/GD32VW55X_Wifi_BLE_SDK/GD32VW55x_RELEASE_V1.0.2/MSDK/wpa_supplicant/src/crypto\md5-internal.c ****     MD5STEP(F1, c, d, a, b, in[14] + 0xa679438e, 17);
 356              		.loc 1 260 5
 357 0214 B98F     		xor	a5,a5,a4
 358 0216 B697     		add	a5,a5,a3
 359              	.LVL55:
 360 0218 B716B449 		li	a3,1236537344
 361 021c 93861682 		addi	a3,a3,-2015
 362 0220 9696     		add	a3,t0,a3
 363 0222 BA96     		add	a3,a3,a4
 364 0224 93D7F760 		rori	a5,a5,15
 365              	.LVL56:
 366              		.loc 1 261 5
 367 0228 33C7CC00 		xor	a4,s9,a2
 368              	.LVL57:
 260:C:/Users/stapi/OneDrive/Desktop/GD32VW553/V1_MQTT_OK/GD32VW55X_Wifi_BLE_SDK/GD32VW55x_RELEASE_V1.0.2/MSDK/wpa_supplicant/src/crypto\md5-internal.c ****     MD5STEP(F1, c, d, a, b, in[14] + 0xa679438e, 17);
 369              		.loc 1 260 5
 370 022c B297     		add	a5,a2,a5
 371              	.LVL58:
 372              		.loc 1 261 5 is_stmt 1
 373 022e 7D8F     		and	a4,a4,a5
 374 0230 33479701 		xor	a4,a4,s9
 375 0234 B7251EF6 		li	a1,-165797888
 376              	.LVL59:
 377 0238 3697     		add	a4,a4,a3
 378              	.LVL60:
 379 023a 93852556 		addi	a1,a1,1378
 380 023e A295     		add	a1,s0,a1
 381 0240 1357A760 		rori	a4,a4,10
 382              	.LVL61:
 383 0244 3E97     		add	a4,a5,a4
 384              	.LVL62:
 262:C:/Users/stapi/OneDrive/Desktop/GD32VW553/V1_MQTT_OK/GD32VW55X_Wifi_BLE_SDK/GD32VW55x_RELEASE_V1.0.2/MSDK/wpa_supplicant/src/crypto\md5-internal.c **** 
 263:C:/Users/stapi/OneDrive/Desktop/GD32VW553/V1_MQTT_OK/GD32VW55X_Wifi_BLE_SDK/GD32VW55x_RELEASE_V1.0.2/MSDK/wpa_supplicant/src/crypto\md5-internal.c ****     MD5STEP(F2, a, b, c, d, in[1] + 0xf61e2562, 5);
 385              		.loc 1 263 5
 386 0246 AE9C     		add	s9,a1,s9
 387              	.LVL63:
 388 0248 B3C5E700 		xor	a1,a5,a4
 389 024c F18D     		and	a1,a1,a2
 390 024e BD8D     		xor	a1,a1,a5
 391 0250 B7B640C0 		li	a3,-1069502464
 238:C:/Users/stapi/OneDrive/Desktop/GD32VW553/V1_MQTT_OK/GD32VW55X_Wifi_BLE_SDK/GD32VW55x_RELEASE_V1.0.2/MSDK/wpa_supplicant/src/crypto\md5-internal.c ****     register u32 a, b, c, d;
 392              		.loc 1 238 1 is_stmt 0
 393 0254 6EC0     		sw	s11,0(sp)
 394              		.loc 1 263 5
 395 0256 E695     		add	a1,a1,s9
 396              	.LVL64:
 397              		.cfi_offset 27, -48
 398 0258 954D     		li	s11,5
 399 025a 93860634 		addi	a3,a3,832
 400 025e FE96     		add	a3,t6,a3
 401 0260 B395B561 		rol	a1,a1,s11
 402              	.LVL65:
 403 0264 BA95     		add	a1,a4,a1
 404              	.LVL66:
 264:C:/Users/stapi/OneDrive/Desktop/GD32VW553/V1_MQTT_OK/GD32VW55X_Wifi_BLE_SDK/GD32VW55x_RELEASE_V1.0.2/MSDK/wpa_supplicant/src/crypto\md5-internal.c ****     MD5STEP(F2, d, a, b, c, in[6] + 0xc040b340, 9);
 405              		.loc 1 264 5 is_stmt 1
 406 0266 B296     		add	a3,a3,a2
 407 0268 3346B700 		xor	a2,a4,a1
 408              	.LVL67:
 409 026c 7D8E     		and	a2,a2,a5
 410 026e 398E     		xor	a2,a2,a4
 411 0270 3696     		add	a2,a2,a3
 412              	.LVL68:
 413 0272 B7665E26 		li	a3,643719168
 238:C:/Users/stapi/OneDrive/Desktop/GD32VW553/V1_MQTT_OK/GD32VW55X_Wifi_BLE_SDK/GD32VW55x_RELEASE_V1.0.2/MSDK/wpa_supplicant/src/crypto\md5-internal.c ****     register u32 a, b, c, d;
 414              		.loc 1 238 1 is_stmt 0
 415 0276 6AC2     		sw	s10,4(sp)
 416              		.cfi_offset 26, -44
 417 0278 938616A5 		addi	a3,a3,-1455
 418              		.loc 1 264 5
 419 027c 254D     		li	s10,9
 420 027e F296     		add	a3,t3,a3
 421 0280 3316A661 		rol	a2,a2,s10
 422              	.LVL69:
 423 0284 2E96     		add	a2,a1,a2
 424              	.LVL70:
 265:C:/Users/stapi/OneDrive/Desktop/GD32VW553/V1_MQTT_OK/GD32VW55X_Wifi_BLE_SDK/GD32VW55x_RELEASE_V1.0.2/MSDK/wpa_supplicant/src/crypto\md5-internal.c ****     MD5STEP(F2, c, d, a, b, in[11] + 0x265e5a51, 14);
 425              		.loc 1 265 5 is_stmt 1
 426 0286 B697     		add	a5,a3,a5
 427              	.LVL71:
 428 0288 B3C6C500 		xor	a3,a1,a2
 429 028c F98E     		and	a3,a3,a4
 430 028e AD8E     		xor	a3,a3,a1
 431 0290 BE96     		add	a3,a3,a5
 432              	.LVL72:
 433 0292 B7C7B6E9 		li	a5,-373899264
 434 0296 B94C     		li	s9,14
 435 0298 9387A77A 		addi	a5,a5,1962
 436 029c DE97     		add	a5,s7,a5
 437 029e B3969661 		rol	a3,a3,s9
 438              	.LVL73:
 439 02a2 B296     		add	a3,a2,a3
 440              	.LVL74:
 266:C:/Users/stapi/OneDrive/Desktop/GD32VW553/V1_MQTT_OK/GD32VW55X_Wifi_BLE_SDK/GD32VW55x_RELEASE_V1.0.2/MSDK/wpa_supplicant/src/crypto\md5-internal.c ****     MD5STEP(F2, b, c, d, a, in[0] + 0xe9b6c7aa, 20);
 441              		.loc 1 266 5
 442 02a4 BA97     		add	a5,a5,a4
 443 02a6 3347D600 		xor	a4,a2,a3
 444              	.LVL75:
 445 02aa 6D8F     		and	a4,a4,a1
 446 02ac 318F     		xor	a4,a4,a2
 447 02ae 3E97     		add	a4,a4,a5
 448              	.LVL76:
 449 02b0 B7172FD6 		li	a5,-701558784
 450 02b4 9387D705 		addi	a5,a5,93
 451 02b8 D297     		add	a5,s4,a5
 452 02ba 1357C760 		rori	a4,a4,12
 453              	.LVL77:
 454 02be 3697     		add	a4,a3,a4
 455              	.LVL78:
 267:C:/Users/stapi/OneDrive/Desktop/GD32VW553/V1_MQTT_OK/GD32VW55X_Wifi_BLE_SDK/GD32VW55x_RELEASE_V1.0.2/MSDK/wpa_supplicant/src/crypto\md5-internal.c ****     MD5STEP(F2, a, b, c, d, in[5] + 0xd62f105d, 5);
 456              		.loc 1 267 5
 457 02c0 AE97     		add	a5,a5,a1
 458 02c2 B3C5E600 		xor	a1,a3,a4
 459              	.LVL79:
 460 02c6 F18D     		and	a1,a1,a2
 461 02c8 B58D     		xor	a1,a1,a3
 462 02ca BE95     		add	a1,a1,a5
 463              	.LVL80:
 464 02cc B7174402 		li	a5,38014976
 465 02d0 93873745 		addi	a5,a5,1107
 466 02d4 A697     		add	a5,s1,a5
 467 02d6 B395B561 		rol	a1,a1,s11
 468              	.LVL81:
 469 02da BA95     		add	a1,a4,a1
 470              	.LVL82:
 268:C:/Users/stapi/OneDrive/Desktop/GD32VW553/V1_MQTT_OK/GD32VW55X_Wifi_BLE_SDK/GD32VW55x_RELEASE_V1.0.2/MSDK/wpa_supplicant/src/crypto\md5-internal.c ****     MD5STEP(F2, d, a, b, c, in[10] + 0x02441453, 9);
 471              		.loc 1 268 5
 472 02dc B297     		add	a5,a5,a2
 473 02de 3346B700 		xor	a2,a4,a1
 474              	.LVL83:
 475 02e2 758E     		and	a2,a2,a3
 476 02e4 398E     		xor	a2,a2,a4
 477 02e6 3E96     		add	a2,a2,a5
 478              	.LVL84:
 479 02e8 B7E7A1D8 		li	a5,-660480000
 480 02ec 93871768 		addi	a5,a5,1665
 481 02f0 9697     		add	a5,t0,a5
 482 02f2 3316A661 		rol	a2,a2,s10
 483              	.LVL85:
 484 02f6 2E96     		add	a2,a1,a2
 485              	.LVL86:
 269:C:/Users/stapi/OneDrive/Desktop/GD32VW553/V1_MQTT_OK/GD32VW55X_Wifi_BLE_SDK/GD32VW55x_RELEASE_V1.0.2/MSDK/wpa_supplicant/src/crypto\md5-internal.c ****     MD5STEP(F2, c, d, a, b, in[15] + 0xd8a1e681, 14);
 486              		.loc 1 269 5
 487 02f8 B697     		add	a5,a5,a3
 488 02fa B3C6C500 		xor	a3,a1,a2
 489              	.LVL87:
 490 02fe F98E     		and	a3,a3,a4
 491 0300 AD8E     		xor	a3,a3,a1
 492 0302 BE96     		add	a3,a3,a5
 493              	.LVL88:
 494 0304 B707D4E7 		li	a5,-405536768
 495 0308 938787BC 		addi	a5,a5,-1080
 496 030c F697     		add	a5,t4,a5
 497 030e B3969661 		rol	a3,a3,s9
 498              	.LVL89:
 499 0312 B296     		add	a3,a2,a3
 500              	.LVL90:
 270:C:/Users/stapi/OneDrive/Desktop/GD32VW553/V1_MQTT_OK/GD32VW55X_Wifi_BLE_SDK/GD32VW55x_RELEASE_V1.0.2/MSDK/wpa_supplicant/src/crypto\md5-internal.c ****     MD5STEP(F2, b, c, d, a, in[4] + 0xe7d3fbc8, 20);
 501              		.loc 1 270 5
 502 0314 BA97     		add	a5,a5,a4
 503 0316 3347D600 		xor	a4,a2,a3
 504              	.LVL91:
 505 031a 6D8F     		and	a4,a4,a1
 506 031c 318F     		xor	a4,a4,a2
 507 031e 3E97     		add	a4,a4,a5
 508              	.LVL92:
 509 0320 B7D7E121 		li	a5,568446976
 510 0324 938767DE 		addi	a5,a5,-538
 511 0328 C697     		add	a5,a7,a5
 512 032a 1357C760 		rori	a4,a4,12
 513              	.LVL93:
 514 032e 3697     		add	a4,a3,a4
 515              	.LVL94:
 271:C:/Users/stapi/OneDrive/Desktop/GD32VW553/V1_MQTT_OK/GD32VW55X_Wifi_BLE_SDK/GD32VW55x_RELEASE_V1.0.2/MSDK/wpa_supplicant/src/crypto\md5-internal.c ****     MD5STEP(F2, a, b, c, d, in[9] + 0x21e1cde6, 5);
 516              		.loc 1 271 5
 517 0330 AE97     		add	a5,a5,a1
 518 0332 B3C5E600 		xor	a1,a3,a4
 519              	.LVL95:
 520 0336 F18D     		and	a1,a1,a2
 521 0338 B58D     		xor	a1,a1,a3
 522 033a BE95     		add	a1,a1,a5
 523              	.LVL96:
 524 033c B70737C3 		li	a5,-1019805696
 525 0340 9387677D 		addi	a5,a5,2006
 526 0344 D697     		add	a5,s5,a5
 527 0346 B395B561 		rol	a1,a1,s11
 528              	.LVL97:
 529 034a BA95     		add	a1,a4,a1
 530              	.LVL98:
 272:C:/Users/stapi/OneDrive/Desktop/GD32VW553/V1_MQTT_OK/GD32VW55X_Wifi_BLE_SDK/GD32VW55x_RELEASE_V1.0.2/MSDK/wpa_supplicant/src/crypto\md5-internal.c ****     MD5STEP(F2, d, a, b, c, in[14] + 0xc33707d6, 9);
 531              		.loc 1 272 5
 532 034c B297     		add	a5,a5,a2
 533 034e 3346B700 		xor	a2,a4,a1
 534              	.LVL99:
 535 0352 758E     		and	a2,a2,a3
 536 0354 398E     		xor	a2,a2,a4
 537 0356 3E96     		add	a2,a2,a5
 538              	.LVL100:
 539 0358 B717D5F4 		li	a5,-187363328
 540 035c 938777D8 		addi	a5,a5,-633
 541 0360 CA97     		add	a5,s2,a5
 542 0362 3316A661 		rol	a2,a2,s10
 543              	.LVL101:
 544 0366 2E96     		add	a2,a1,a2
 545              	.LVL102:
 273:C:/Users/stapi/OneDrive/Desktop/GD32VW553/V1_MQTT_OK/GD32VW55X_Wifi_BLE_SDK/GD32VW55x_RELEASE_V1.0.2/MSDK/wpa_supplicant/src/crypto\md5-internal.c ****     MD5STEP(F2, c, d, a, b, in[3] + 0xf4d50d87, 14);
 546              		.loc 1 273 5
 547 0368 B697     		add	a5,a5,a3
 548 036a B3C6C500 		xor	a3,a1,a2
 549              	.LVL103:
 550 036e F98E     		and	a3,a3,a4
 551 0370 AD8E     		xor	a3,a3,a1
 552 0372 BE96     		add	a3,a3,a5
 553              	.LVL104:
 554 0374 B7175A45 		li	a5,1163530240
 555 0378 9387D74E 		addi	a5,a5,1261
 556 037c 9E97     		add	a5,t2,a5
 557 037e B3969661 		rol	a3,a3,s9
 558              	.LVL105:
 559 0382 B296     		add	a3,a2,a3
 560              	.LVL106:
 274:C:/Users/stapi/OneDrive/Desktop/GD32VW553/V1_MQTT_OK/GD32VW55X_Wifi_BLE_SDK/GD32VW55x_RELEASE_V1.0.2/MSDK/wpa_supplicant/src/crypto\md5-internal.c ****     MD5STEP(F2, b, c, d, a, in[8] + 0x455a14ed, 20);
 561              		.loc 1 274 5
 562 0384 BA97     		add	a5,a5,a4
 563 0386 3347D600 		xor	a4,a2,a3
 564              	.LVL107:
 565 038a 6D8F     		and	a4,a4,a1
 566 038c 318F     		xor	a4,a4,a2
 567 038e 3E97     		add	a4,a4,a5
 568              	.LVL108:
 569 0390 B7F7E3A9 		li	a5,-1444679680
 570 0394 93875790 		addi	a5,a5,-1787
 571 0398 FA97     		add	a5,t5,a5
 572 039a 1357C760 		rori	a4,a4,12
 573              	.LVL109:
 574 039e 3697     		add	a4,a3,a4
 575              	.LVL110:
 275:C:/Users/stapi/OneDrive/Desktop/GD32VW553/V1_MQTT_OK/GD32VW55X_Wifi_BLE_SDK/GD32VW55x_RELEASE_V1.0.2/MSDK/wpa_supplicant/src/crypto\md5-internal.c ****     MD5STEP(F2, a, b, c, d, in[13] + 0xa9e3e905, 5);
 576              		.loc 1 275 5
 577 03a0 BE95     		add	a1,a5,a1
 578              	.LVL111:
 579 03a2 B3C7E600 		xor	a5,a3,a4
 580 03a6 F18F     		and	a5,a5,a2
 581 03a8 B58F     		xor	a5,a5,a3
 582 03aa AE97     		add	a5,a5,a1
 583              	.LVL112:
 584 03ac B7A5EFFC 		li	a1,-51404800
 585 03b0 9385853F 		addi	a1,a1,1016
 586 03b4 9A95     		add	a1,t1,a1
 587 03b6 B397B761 		rol	a5,a5,s11
 588              	.LVL113:
 589 03ba BA97     		add	a5,a4,a5
 590              	.LVL114:
 276:C:/Users/stapi/OneDrive/Desktop/GD32VW553/V1_MQTT_OK/GD32VW55X_Wifi_BLE_SDK/GD32VW55x_RELEASE_V1.0.2/MSDK/wpa_supplicant/src/crypto\md5-internal.c ****     MD5STEP(F2, d, a, b, c, in[2] + 0xfcefa3f8, 9);
 591              		.loc 1 276 5
 592 03bc 2E96     		add	a2,a1,a2
 593              	.LVL115:
 594 03be B345F700 		xor	a1,a4,a5
 595 03c2 F58D     		and	a1,a1,a3
 596 03c4 B98D     		xor	a1,a1,a4
 597 03c6 2E96     		add	a2,a1,a2
 598              	.LVL116:
 599 03c8 331DA661 		rol	s10,a2,s10
 600              	.LVL117:
 601 03cc 37066F67 		li	a2,1735327744
 602 03d0 1306962D 		addi	a2,a2,729
 603 03d4 3E9D     		add	s10,a5,s10
 604              	.LVL118:
 277:C:/Users/stapi/OneDrive/Desktop/GD32VW553/V1_MQTT_OK/GD32VW55X_Wifi_BLE_SDK/GD32VW55x_RELEASE_V1.0.2/MSDK/wpa_supplicant/src/crypto\md5-internal.c ****     MD5STEP(F2, c, d, a, b, in[7] + 0x676f02d9, 14);
 605              		.loc 1 277 5
 606 03d6 5A96     		add	a2,s6,a2
 607 03d8 3696     		add	a2,a2,a3
 608 03da B3C6A701 		xor	a3,a5,s10
 609              	.LVL119:
 610 03de F98E     		and	a3,a3,a4
 611 03e0 BD8E     		xor	a3,a3,a5
 612 03e2 B296     		add	a3,a3,a2
 613              	.LVL120:
 614 03e4 37562A8D 		li	a2,-1926606848
 615 03e8 B39C9661 		rol	s9,a3,s9
 616              	.LVL121:
 617 03ec 1306A6C8 		addi	a2,a2,-886
 618 03f0 EA9C     		add	s9,s10,s9
 619              	.LVL122:
 278:C:/Users/stapi/OneDrive/Desktop/GD32VW553/V1_MQTT_OK/GD32VW55X_Wifi_BLE_SDK/GD32VW55x_RELEASE_V1.0.2/MSDK/wpa_supplicant/src/crypto\md5-internal.c ****     MD5STEP(F2, b, c, d, a, in[12] + 0x8d2a4c8a, 20);
 620              		.loc 1 278 5
 621 03f2 B3469D01 		xor	a3,s10,s9
 622 03f6 4E96     		add	a2,s3,a2
 623 03f8 3A96     		add	a2,a2,a4
 624 03fa 33F7F600 		and	a4,a3,a5
 625              	.LVL123:
 626 03fe 3347A701 		xor	a4,a4,s10
 627 0402 3297     		add	a4,a4,a2
 628              	.LVL124:
 629 0404 3746FAFF 		li	a2,-376832
 630 0408 13062694 		addi	a2,a2,-1726
 631 040c 5296     		add	a2,s4,a2
 632 040e 1357C760 		rori	a4,a4,12
 633              	.LVL125:
 634 0412 6697     		add	a4,s9,a4
 635              	.LVL126:
 279:C:/Users/stapi/OneDrive/Desktop/GD32VW553/V1_MQTT_OK/GD32VW55X_Wifi_BLE_SDK/GD32VW55x_RELEASE_V1.0.2/MSDK/wpa_supplicant/src/crypto\md5-internal.c **** 
 280:C:/Users/stapi/OneDrive/Desktop/GD32VW553/V1_MQTT_OK/GD32VW55X_Wifi_BLE_SDK/GD32VW55x_RELEASE_V1.0.2/MSDK/wpa_supplicant/src/crypto\md5-internal.c ****     MD5STEP(F3, a, b, c, d, in[5] + 0xfffa3942, 4);
 636              		.loc 1 280 5
 637 0414 3E96     		add	a2,a2,a5
 638 0416 B3C7E600 		xor	a5,a3,a4
 639              	.LVL127:
 640 041a B7F67187 		li	a3,-2022576128
 641 041e 93861668 		addi	a3,a3,1665
 642 0422 9E96     		add	a3,t2,a3
 643 0424 B297     		add	a5,a5,a2
 644              	.LVL128:
 645 0426 1146     		li	a2,4
 646 0428 369D     		add	s10,a3,s10
 647              	.LVL129:
 648 042a B397C760 		rol	a5,a5,a2
 649              	.LVL130:
 281:C:/Users/stapi/OneDrive/Desktop/GD32VW553/V1_MQTT_OK/GD32VW55X_Wifi_BLE_SDK/GD32VW55x_RELEASE_V1.0.2/MSDK/wpa_supplicant/src/crypto\md5-internal.c ****     MD5STEP(F3, d, a, b, c, in[8] + 0x8771f681, 11);
 650              		.loc 1 281 5 is_stmt 0
 651 042e B3C6EC00 		xor	a3,s9,a4
 280:C:/Users/stapi/OneDrive/Desktop/GD32VW553/V1_MQTT_OK/GD32VW55X_Wifi_BLE_SDK/GD32VW55x_RELEASE_V1.0.2/MSDK/wpa_supplicant/src/crypto\md5-internal.c ****     MD5STEP(F3, d, a, b, c, in[8] + 0x8771f681, 11);
 652              		.loc 1 280 5
 653 0432 BA97     		add	a5,a4,a5
 654              	.LVL131:
 655              		.loc 1 281 5 is_stmt 1
 656 0434 BD8E     		xor	a3,a3,a5
 657 0436 EA96     		add	a3,a3,s10
 658              	.LVL132:
 659 0438 376D9D6D 		li	s10,1839030272
 660 043c 130D2D12 		addi	s10,s10,290
 661 0440 AD45     		li	a1,11
 662 0442 729D     		add	s10,t3,s10
 663 0444 669D     		add	s10,s10,s9
 664 0446 B396B660 		rol	a3,a3,a1
 665              	.LVL133:
 282:C:/Users/stapi/OneDrive/Desktop/GD32VW553/V1_MQTT_OK/GD32VW55X_Wifi_BLE_SDK/GD32VW55x_RELEASE_V1.0.2/MSDK/wpa_supplicant/src/crypto\md5-internal.c ****     MD5STEP(F3, c, d, a, b, in[11] + 0x6d9d6122, 16);
 666              		.loc 1 282 5 is_stmt 0
 667 044a B34CF700 		xor	s9,a4,a5
 668              	.LVL134:
 281:C:/Users/stapi/OneDrive/Desktop/GD32VW553/V1_MQTT_OK/GD32VW55X_Wifi_BLE_SDK/GD32VW55x_RELEASE_V1.0.2/MSDK/wpa_supplicant/src/crypto\md5-internal.c ****     MD5STEP(F3, d, a, b, c, in[8] + 0x8771f681, 11);
 669              		.loc 1 281 5
 670 044e BE96     		add	a3,a5,a3
 671              	.LVL135:
 672              		.loc 1 282 5 is_stmt 1
 673 0450 B3CCDC00 		xor	s9,s9,a3
 674 0454 EA9C     		add	s9,s9,s10
 675              	.LVL136:
 676 0456 374DE5FD 		li	s10,-35307520
 677 045a 130DCD80 		addi	s10,s10,-2036
 678 045e C14D     		li	s11,16
 679 0460 569D     		add	s10,s5,s10
 680 0462 3A9D     		add	s10,s10,a4
 681 0464 B39CBC61 		rol	s9,s9,s11
 682              	.LVL137:
 283:C:/Users/stapi/OneDrive/Desktop/GD32VW553/V1_MQTT_OK/GD32VW55X_Wifi_BLE_SDK/GD32VW55x_RELEASE_V1.0.2/MSDK/wpa_supplicant/src/crypto\md5-internal.c ****     MD5STEP(F3, b, c, d, a, in[14] + 0xfde5380c, 23);
 683              		.loc 1 283 5 is_stmt 0
 684 0468 33C7D700 		xor	a4,a5,a3
 685              	.LVL138:
 282:C:/Users/stapi/OneDrive/Desktop/GD32VW553/V1_MQTT_OK/GD32VW55X_Wifi_BLE_SDK/GD32VW55x_RELEASE_V1.0.2/MSDK/wpa_supplicant/src/crypto\md5-internal.c ****     MD5STEP(F3, c, d, a, b, in[11] + 0x6d9d6122, 16);
 686              		.loc 1 282 5
 687 046c B69C     		add	s9,a3,s9
 688              	.LVL139:
 689              		.loc 1 283 5 is_stmt 1
 690 046e 33479701 		xor	a4,a4,s9
 691 0472 6A97     		add	a4,a4,s10
 692              	.LVL140:
 693 0474 37FDBEA4 		li	s10,-1530990592
 694 0478 130D4DA4 		addi	s10,s10,-1468
 695 047c 229D     		add	s10,s0,s10
 696 047e 3E9D     		add	s10,s10,a5
 697 0480 13579760 		rori	a4,a4,9
 698              	.LVL141:
 284:C:/Users/stapi/OneDrive/Desktop/GD32VW553/V1_MQTT_OK/GD32VW55X_Wifi_BLE_SDK/GD32VW55x_RELEASE_V1.0.2/MSDK/wpa_supplicant/src/crypto\md5-internal.c ****     MD5STEP(F3, a, b, c, d, in[1] + 0xa4beea44, 4);
 699              		.loc 1 284 5 is_stmt 0
 700 0484 B3C79601 		xor	a5,a3,s9
 701              	.LVL142:
 283:C:/Users/stapi/OneDrive/Desktop/GD32VW553/V1_MQTT_OK/GD32VW55X_Wifi_BLE_SDK/GD32VW55x_RELEASE_V1.0.2/MSDK/wpa_supplicant/src/crypto\md5-internal.c ****     MD5STEP(F3, b, c, d, a, in[14] + 0xfde5380c, 23);
 702              		.loc 1 283 5
 703 0488 6697     		add	a4,s9,a4
 704              	.LVL143:
 705              		.loc 1 284 5 is_stmt 1
 706 048a B98F     		xor	a5,a5,a4
 707 048c EA97     		add	a5,a5,s10
 708              	.LVL144:
 709 048e 37DDDE4B 		li	s10,1272893440
 710 0492 130D9DFA 		addi	s10,s10,-87
 711 0496 769D     		add	s10,t4,s10
 712 0498 369D     		add	s10,s10,a3
 713 049a B397C760 		rol	a5,a5,a2
 714              	.LVL145:
 285:C:/Users/stapi/OneDrive/Desktop/GD32VW553/V1_MQTT_OK/GD32VW55X_Wifi_BLE_SDK/GD32VW55x_RELEASE_V1.0.2/MSDK/wpa_supplicant/src/crypto\md5-internal.c ****     MD5STEP(F3, d, a, b, c, in[4] + 0x4bdecfa9, 11);
 715              		.loc 1 285 5 is_stmt 0
 716 049e B3C6EC00 		xor	a3,s9,a4
 717              	.LVL146:
 284:C:/Users/stapi/OneDrive/Desktop/GD32VW553/V1_MQTT_OK/GD32VW55X_Wifi_BLE_SDK/GD32VW55x_RELEASE_V1.0.2/MSDK/wpa_supplicant/src/crypto\md5-internal.c ****     MD5STEP(F3, a, b, c, d, in[1] + 0xa4beea44, 4);
 718              		.loc 1 284 5
 719 04a2 BA97     		add	a5,a4,a5
 720              	.LVL147:
 721              		.loc 1 285 5 is_stmt 1
 722 04a4 BD8E     		xor	a3,a3,a5
 723 04a6 EA96     		add	a3,a3,s10
 724              	.LVL148:
 725 04a8 375DBBF6 		li	s10,-155496448
 726 04ac 130D0DB6 		addi	s10,s10,-1184
 727 04b0 5A9D     		add	s10,s6,s10
 728 04b2 669D     		add	s10,s10,s9
 729 04b4 B396B660 		rol	a3,a3,a1
 730              	.LVL149:
 286:C:/Users/stapi/OneDrive/Desktop/GD32VW553/V1_MQTT_OK/GD32VW55X_Wifi_BLE_SDK/GD32VW55x_RELEASE_V1.0.2/MSDK/wpa_supplicant/src/crypto\md5-internal.c ****     MD5STEP(F3, c, d, a, b, in[7] + 0xf6bb4b60, 16);
 731              		.loc 1 286 5 is_stmt 0
 732 04b8 B34CF700 		xor	s9,a4,a5
 733              	.LVL150:
 285:C:/Users/stapi/OneDrive/Desktop/GD32VW553/V1_MQTT_OK/GD32VW55X_Wifi_BLE_SDK/GD32VW55x_RELEASE_V1.0.2/MSDK/wpa_supplicant/src/crypto\md5-internal.c ****     MD5STEP(F3, d, a, b, c, in[4] + 0x4bdecfa9, 11);
 734              		.loc 1 285 5
 735 04bc BE96     		add	a3,a5,a3
 736              	.LVL151:
 737              		.loc 1 286 5 is_stmt 1
 738 04be B3CCDC00 		xor	s9,s9,a3
 739 04c2 EA9C     		add	s9,s9,s10
 740              	.LVL152:
 741 04c4 37CDBFBE 		li	s10,-1094729728
 742 04c8 130D0DC7 		addi	s10,s10,-912
 743 04cc 269D     		add	s10,s1,s10
 744 04ce 6A97     		add	a4,s10,a4
 745              	.LVL153:
 746 04d0 B39CBC61 		rol	s9,s9,s11
 747              	.LVL154:
 287:C:/Users/stapi/OneDrive/Desktop/GD32VW553/V1_MQTT_OK/GD32VW55X_Wifi_BLE_SDK/GD32VW55x_RELEASE_V1.0.2/MSDK/wpa_supplicant/src/crypto\md5-internal.c ****     MD5STEP(F3, b, c, d, a, in[10] + 0xbebfbc70, 23);
 748              		.loc 1 287 5 is_stmt 0
 749 04d4 33CDD700 		xor	s10,a5,a3
 286:C:/Users/stapi/OneDrive/Desktop/GD32VW553/V1_MQTT_OK/GD32VW55X_Wifi_BLE_SDK/GD32VW55x_RELEASE_V1.0.2/MSDK/wpa_supplicant/src/crypto\md5-internal.c ****     MD5STEP(F3, c, d, a, b, in[7] + 0xf6bb4b60, 16);
 750              		.loc 1 286 5
 751 04d8 B69C     		add	s9,a3,s9
 752              	.LVL155:
 753              		.loc 1 287 5 is_stmt 1
 754 04da 334D9D01 		xor	s10,s10,s9
 755 04de 3A9D     		add	s10,s10,a4
 756              	.LVL156:
 757 04e0 37879B28 		li	a4,681279488
 758 04e4 130767EC 		addi	a4,a4,-314
 759 04e8 7A97     		add	a4,t5,a4
 760 04ea BA97     		add	a5,a4,a5
 761              	.LVL157:
 762 04ec 135D9D60 		rori	s10,s10,9
 763              	.LVL158:
 288:C:/Users/stapi/OneDrive/Desktop/GD32VW553/V1_MQTT_OK/GD32VW55X_Wifi_BLE_SDK/GD32VW55x_RELEASE_V1.0.2/MSDK/wpa_supplicant/src/crypto\md5-internal.c ****     MD5STEP(F3, a, b, c, d, in[13] + 0x289b7ec6, 4);
 764              		.loc 1 288 5 is_stmt 0
 765 04f0 33C79601 		xor	a4,a3,s9
 287:C:/Users/stapi/OneDrive/Desktop/GD32VW553/V1_MQTT_OK/GD32VW55X_Wifi_BLE_SDK/GD32VW55x_RELEASE_V1.0.2/MSDK/wpa_supplicant/src/crypto\md5-internal.c ****     MD5STEP(F3, b, c, d, a, in[10] + 0xbebfbc70, 23);
 766              		.loc 1 287 5
 767 04f4 669D     		add	s10,s9,s10
 768              	.LVL159:
 769              		.loc 1 288 5 is_stmt 1
 770 04f6 3347A701 		xor	a4,a4,s10
 771 04fa 3E97     		add	a4,a4,a5
 772              	.LVL160:
 773 04fc B727A1EA 		li	a5,-358539264
 774 0500 9387A77F 		addi	a5,a5,2042
 775 0504 DE97     		add	a5,s7,a5
 776 0506 B697     		add	a5,a5,a3
 777 0508 3317C760 		rol	a4,a4,a2
 778              	.LVL161:
 289:C:/Users/stapi/OneDrive/Desktop/GD32VW553/V1_MQTT_OK/GD32VW55X_Wifi_BLE_SDK/GD32VW55x_RELEASE_V1.0.2/MSDK/wpa_supplicant/src/crypto\md5-internal.c ****     MD5STEP(F3, d, a, b, c, in[0] + 0xeaa127fa, 11);
 779              		.loc 1 289 5 is_stmt 0
 780 050c B3C6AC01 		xor	a3,s9,s10
 781              	.LVL162:
 288:C:/Users/stapi/OneDrive/Desktop/GD32VW553/V1_MQTT_OK/GD32VW55X_Wifi_BLE_SDK/GD32VW55x_RELEASE_V1.0.2/MSDK/wpa_supplicant/src/crypto\md5-internal.c ****     MD5STEP(F3, a, b, c, d, in[13] + 0x289b7ec6, 4);
 782              		.loc 1 288 5
 783 0510 6A97     		add	a4,s10,a4
 784              	.LVL163:
 785              		.loc 1 289 5 is_stmt 1
 786 0512 B98E     		xor	a3,a3,a4
 787 0514 BE96     		add	a3,a3,a5
 788              	.LVL164:
 789 0516 B737EFD4 		li	a5,-722522112
 790 051a 93875708 		addi	a5,a5,133
 791 051e CA97     		add	a5,s2,a5
 792 0520 E697     		add	a5,a5,s9
 793 0522 B396B660 		rol	a3,a3,a1
 794              	.LVL165:
 290:C:/Users/stapi/OneDrive/Desktop/GD32VW553/V1_MQTT_OK/GD32VW55X_Wifi_BLE_SDK/GD32VW55x_RELEASE_V1.0.2/MSDK/wpa_supplicant/src/crypto\md5-internal.c ****     MD5STEP(F3, c, d, a, b, in[3] + 0xd4ef3085, 16);
 795              		.loc 1 290 5 is_stmt 0
 796 0526 B34CED00 		xor	s9,s10,a4
 797              	.LVL166:
 289:C:/Users/stapi/OneDrive/Desktop/GD32VW553/V1_MQTT_OK/GD32VW55X_Wifi_BLE_SDK/GD32VW55x_RELEASE_V1.0.2/MSDK/wpa_supplicant/src/crypto\md5-internal.c ****     MD5STEP(F3, d, a, b, c, in[0] + 0xeaa127fa, 11);
 798              		.loc 1 289 5
 799 052a BA96     		add	a3,a4,a3
 800              	.LVL167:
 801              		.loc 1 290 5 is_stmt 1
 802 052c B3CCDC00 		xor	s9,s9,a3
 803 0530 BE9C     		add	s9,s9,a5
 804              	.LVL168:
 805 0532 B7278804 		li	a5,76029952
 806 0536 938757D0 		addi	a5,a5,-763
 807 053a FE97     		add	a5,t6,a5
 808 053c 3E9D     		add	s10,a5,s10
 809              	.LVL169:
 810 053e B39CBC61 		rol	s9,s9,s11
 811              	.LVL170:
 291:C:/Users/stapi/OneDrive/Desktop/GD32VW553/V1_MQTT_OK/GD32VW55X_Wifi_BLE_SDK/GD32VW55x_RELEASE_V1.0.2/MSDK/wpa_supplicant/src/crypto\md5-internal.c ****     MD5STEP(F3, b, c, d, a, in[6] + 0x04881d05, 23);
 812              		.loc 1 291 5 is_stmt 0
 813 0542 B347D700 		xor	a5,a4,a3
 290:C:/Users/stapi/OneDrive/Desktop/GD32VW553/V1_MQTT_OK/GD32VW55X_Wifi_BLE_SDK/GD32VW55x_RELEASE_V1.0.2/MSDK/wpa_supplicant/src/crypto\md5-internal.c ****     MD5STEP(F3, c, d, a, b, in[3] + 0xd4ef3085, 16);
 814              		.loc 1 290 5
 815 0546 B69C     		add	s9,a3,s9
 816              	.LVL171:
 817              		.loc 1 291 5 is_stmt 1
 818 0548 B3C79701 		xor	a5,a5,s9
 819 054c EA97     		add	a5,a5,s10
 820              	.LVL172:
 821 054e 37DDD4D9 		li	s10,-640364544
 822 0552 130D9D03 		addi	s10,s10,57
 823 0556 469D     		add	s10,a7,s10
 824 0558 3A9D     		add	s10,s10,a4
 825 055a 93D79760 		rori	a5,a5,9
 826              	.LVL173:
 292:C:/Users/stapi/OneDrive/Desktop/GD32VW553/V1_MQTT_OK/GD32VW55X_Wifi_BLE_SDK/GD32VW55x_RELEASE_V1.0.2/MSDK/wpa_supplicant/src/crypto\md5-internal.c ****     MD5STEP(F3, a, b, c, d, in[9] + 0xd9d4d039, 4);
 827              		.loc 1 292 5 is_stmt 0
 828 055e 33C79601 		xor	a4,a3,s9
 829              	.LVL174:
 291:C:/Users/stapi/OneDrive/Desktop/GD32VW553/V1_MQTT_OK/GD32VW55X_Wifi_BLE_SDK/GD32VW55x_RELEASE_V1.0.2/MSDK/wpa_supplicant/src/crypto\md5-internal.c ****     MD5STEP(F3, b, c, d, a, in[6] + 0x04881d05, 23);
 830              		.loc 1 291 5
 831 0562 E697     		add	a5,s9,a5
 832              	.LVL175:
 833              		.loc 1 292 5 is_stmt 1
 834 0564 3D8F     		xor	a4,a4,a5
 835 0566 3A9D     		add	s10,a4,s10
 836              	.LVL176:
 837 0568 37A7DBE6 		li	a4,-421814272
 838 056c 1307579E 		addi	a4,a4,-1563
 839 0570 4E97     		add	a4,s3,a4
 840 0572 BA96     		add	a3,a4,a3
 841              	.LVL177:
 842 0574 331DCD60 		rol	s10,s10,a2
 843              	.LVL178:
 293:C:/Users/stapi/OneDrive/Desktop/GD32VW553/V1_MQTT_OK/GD32VW55X_Wifi_BLE_SDK/GD32VW55x_RELEASE_V1.0.2/MSDK/wpa_supplicant/src/crypto\md5-internal.c ****     MD5STEP(F3, d, a, b, c, in[12] + 0xe6db99e5, 11);
 844              		.loc 1 293 5 is_stmt 0
 845 0578 33C7FC00 		xor	a4,s9,a5
 292:C:/Users/stapi/OneDrive/Desktop/GD32VW553/V1_MQTT_OK/GD32VW55X_Wifi_BLE_SDK/GD32VW55x_RELEASE_V1.0.2/MSDK/wpa_supplicant/src/crypto\md5-internal.c ****     MD5STEP(F3, a, b, c, d, in[9] + 0xd9d4d039, 4);
 846              		.loc 1 292 5
 847 057c 3386A701 		add	a2,a5,s10
 848              	.LVL179:
 849              		.loc 1 293 5 is_stmt 1
 850 0580 318F     		xor	a4,a4,a2
 851 0582 BA96     		add	a3,a4,a3
 852              	.LVL180:
 853 0584 3787A21F 		li	a4,530743296
 854 0588 130787CF 		addi	a4,a4,-776
 855 058c 1697     		add	a4,t0,a4
 856 058e 6697     		add	a4,a4,s9
 857 0590 B395B660 		rol	a1,a3,a1
 858              	.LVL181:
 294:C:/Users/stapi/OneDrive/Desktop/GD32VW553/V1_MQTT_OK/GD32VW55X_Wifi_BLE_SDK/GD32VW55x_RELEASE_V1.0.2/MSDK/wpa_supplicant/src/crypto\md5-internal.c ****     MD5STEP(F3, c, d, a, b, in[15] + 0x1fa27cf8, 16);
 859              		.loc 1 294 5 is_stmt 0
 860 0594 B3CCC700 		xor	s9,a5,a2
 861              	.LVL182:
 293:C:/Users/stapi/OneDrive/Desktop/GD32VW553/V1_MQTT_OK/GD32VW55X_Wifi_BLE_SDK/GD32VW55x_RELEASE_V1.0.2/MSDK/wpa_supplicant/src/crypto\md5-internal.c ****     MD5STEP(F3, d, a, b, c, in[12] + 0xe6db99e5, 11);
 862              		.loc 1 293 5
 863 0598 B295     		add	a1,a2,a1
 864              	.LVL183:
 865              		.loc 1 294 5 is_stmt 1
 866 059a B3CCBC00 		xor	s9,s9,a1
 867 059e BA9C     		add	s9,s9,a4
 868              	.LVL184:
 869 05a0 3757ACC4 		li	a4,-995340288
 870 05a4 13075766 		addi	a4,a4,1637
 871 05a8 1A97     		add	a4,t1,a4
 872 05aa 3E97     		add	a4,a4,a5
 873 05ac B39DBC61 		rol	s11,s9,s11
 874              	.LVL185:
 295:C:/Users/stapi/OneDrive/Desktop/GD32VW553/V1_MQTT_OK/GD32VW55X_Wifi_BLE_SDK/GD32VW55x_RELEASE_V1.0.2/MSDK/wpa_supplicant/src/crypto\md5-internal.c ****     MD5STEP(F3, b, c, d, a, in[2] + 0xc4ac5665, 23);
 875              		.loc 1 295 5 is_stmt 0
 876 05b0 B347B600 		xor	a5,a2,a1
 877              	.LVL186:
 294:C:/Users/stapi/OneDrive/Desktop/GD32VW553/V1_MQTT_OK/GD32VW55X_Wifi_BLE_SDK/GD32VW55x_RELEASE_V1.0.2/MSDK/wpa_supplicant/src/crypto\md5-internal.c ****     MD5STEP(F3, c, d, a, b, in[15] + 0x1fa27cf8, 16);
 878              		.loc 1 294 5
 879 05b4 AE9D     		add	s11,a1,s11
 880              	.LVL187:
 881              		.loc 1 295 5 is_stmt 1
 882 05b6 B3C7B701 		xor	a5,a5,s11
 883 05ba BA97     		add	a5,a5,a4
 884              	.LVL188:
 885 05bc 372729F4 		li	a4,-198631424
 886 05c0 13074724 		addi	a4,a4,580
 887 05c4 BA9B     		add	s7,s7,a4
 888 05c6 93D79760 		rori	a5,a5,9
 889              	.LVL189:
 890 05ca EE97     		add	a5,s11,a5
 891              	.LVL190:
 296:C:/Users/stapi/OneDrive/Desktop/GD32VW553/V1_MQTT_OK/GD32VW55X_Wifi_BLE_SDK/GD32VW55x_RELEASE_V1.0.2/MSDK/wpa_supplicant/src/crypto\md5-internal.c **** 
 297:C:/Users/stapi/OneDrive/Desktop/GD32VW553/V1_MQTT_OK/GD32VW55X_Wifi_BLE_SDK/GD32VW55x_RELEASE_V1.0.2/MSDK/wpa_supplicant/src/crypto\md5-internal.c ****     MD5STEP(F4, a, b, c, d, in[0] + 0xf4292244, 6);
 892              		.loc 1 297 5
 893 05cc 5E96     		add	a2,s7,a2
 894              	.LVL191:
 895 05ce 37072B43 		li	a4,1126891520
 896 05d2 B3EBB740 		orn	s7,a5,a1
 897 05d6 B3CBBB01 		xor	s7,s7,s11
 898 05da 994C     		li	s9,6
 899 05dc 5E96     		add	a2,s7,a2
 900              	.LVL192:
 901 05de 130777F9 		addi	a4,a4,-105
 902 05e2 3A9B     		add	s6,s6,a4
 903 05e4 33169661 		rol	a2,a2,s9
 904              	.LVL193:
 905 05e8 3E96     		add	a2,a5,a2
 906              	.LVL194:
 298:C:/Users/stapi/OneDrive/Desktop/GD32VW553/V1_MQTT_OK/GD32VW55X_Wifi_BLE_SDK/GD32VW55x_RELEASE_V1.0.2/MSDK/wpa_supplicant/src/crypto\md5-internal.c ****     MD5STEP(F4, d, a, b, c, in[7] + 0x432aff97, 10);
 907              		.loc 1 298 5
 908 05ea 3367B641 		orn	a4,a2,s11
 909 05ee DA95     		add	a1,s6,a1
 910              	.LVL195:
 911 05f0 3D8F     		xor	a4,a4,a5
 912 05f2 B72694AB 		li	a3,-1416355840
 913 05f6 A94B     		li	s7,10
 914 05f8 BA95     		add	a1,a4,a1
 915              	.LVL196:
 916 05fa 9386763A 		addi	a3,a3,935
 917 05fe B69A     		add	s5,s5,a3
 918 0600 33977561 		rol	a4,a1,s7
 919              	.LVL197:
 920 0604 3297     		add	a4,a2,a4
 921              	.LVL198:
 299:C:/Users/stapi/OneDrive/Desktop/GD32VW553/V1_MQTT_OK/GD32VW55X_Wifi_BLE_SDK/GD32VW55x_RELEASE_V1.0.2/MSDK/wpa_supplicant/src/crypto\md5-internal.c ****     MD5STEP(F4, c, d, a, b, in[14] + 0xab9423a7, 15);
 922              		.loc 1 299 5
 923 0606 D69D     		add	s11,s5,s11
 924              	.LVL199:
 925 0608 B7A693FC 		li	a3,-57434112
 926 060c B36AF740 		orn	s5,a4,a5
 927 0610 B3CACA00 		xor	s5,s5,a2
 928 0614 3D4B     		li	s6,15
 929 0616 D69D     		add	s11,s5,s11
 930              	.LVL200:
 931 0618 93869603 		addi	a3,a3,57
 932 061c 369A     		add	s4,s4,a3
 933 061e B39D6D61 		rol	s11,s11,s6
 934              	.LVL201:
 935 0622 BA9D     		add	s11,a4,s11
 936              	.LVL202:
 300:C:/Users/stapi/OneDrive/Desktop/GD32VW553/V1_MQTT_OK/GD32VW55X_Wifi_BLE_SDK/GD32VW55x_RELEASE_V1.0.2/MSDK/wpa_supplicant/src/crypto\md5-internal.c ****     MD5STEP(F4, b, c, d, a, in[5] + 0xfc93a039, 21);
 937              		.loc 1 300 5
 938 0624 D297     		add	a5,s4,a5
 939              	.LVL203:
 940 0626 B7665B65 		li	a3,1700487168
 941 062a 33EACD40 		orn	s4,s11,a2
 942 062e 334AEA00 		xor	s4,s4,a4
 943 0632 D297     		add	a5,s4,a5
 944              	.LVL204:
 945 0634 9386369C 		addi	a3,a3,-1597
 946 0638 B699     		add	s3,s3,a3
 947 063a 93D7B760 		rori	a5,a5,11
 948              	.LVL205:
 949 063e EE97     		add	a5,s11,a5
 950              	.LVL206:
 301:C:/Users/stapi/OneDrive/Desktop/GD32VW553/V1_MQTT_OK/GD32VW55X_Wifi_BLE_SDK/GD32VW55x_RELEASE_V1.0.2/MSDK/wpa_supplicant/src/crypto\md5-internal.c ****     MD5STEP(F4, a, b, c, d, in[12] + 0x655b59c3, 6);
 951              		.loc 1 301 5
 952 0640 4E96     		add	a2,s3,a2
 953              	.LVL207:
 954 0642 B3E9E740 		orn	s3,a5,a4
 955 0646 B3C9B901 		xor	s3,s3,s11
 956 064a B299     		add	s3,s3,a2
 957              	.LVL208:
 958 064c 37D60C8F 		li	a2,-1894985728
 959 0650 130626C9 		addi	a2,a2,-878
 960 0654 3299     		add	s2,s2,a2
 961 0656 B3999961 		rol	s3,s3,s9
 962              	.LVL209:
 963 065a BE99     		add	s3,a5,s3
 964              	.LVL210:
 302:C:/Users/stapi/OneDrive/Desktop/GD32VW553/V1_MQTT_OK/GD32VW55X_Wifi_BLE_SDK/GD32VW55x_RELEASE_V1.0.2/MSDK/wpa_supplicant/src/crypto\md5-internal.c ****     MD5STEP(F4, d, a, b, c, in[3] + 0x8f0ccc92, 10);
 965              		.loc 1 302 5
 966 065c 33E6B941 		orn	a2,s3,s11
 967 0660 4A97     		add	a4,s2,a4
 968              	.LVL211:
 969 0662 3D8E     		xor	a2,a2,a5
 970 0664 B7F6EFFF 		li	a3,-1052672
 971 0668 3297     		add	a4,a2,a4
 972              	.LVL212:
 973 066a 9386D647 		addi	a3,a3,1149
 974 066e B694     		add	s1,s1,a3
 975 0670 33167761 		rol	a2,a4,s7
 976              	.LVL213:
 977 0674 4E96     		add	a2,s3,a2
 978              	.LVL214:
 303:C:/Users/stapi/OneDrive/Desktop/GD32VW553/V1_MQTT_OK/GD32VW55X_Wifi_BLE_SDK/GD32VW55x_RELEASE_V1.0.2/MSDK/wpa_supplicant/src/crypto\md5-internal.c ****     MD5STEP(F4, c, d, a, b, in[10] + 0xffeff47d, 15);
 979              		.loc 1 303 5
 980 0676 B366F640 		orn	a3,a2,a5
 981 067a A69D     		add	s11,s1,s11
 982              	.LVL215:
 983 067c B3C63601 		xor	a3,a3,s3
 984 0680 37678485 		li	a4,-2054922240
 985 0684 B69D     		add	s11,a3,s11
 986              	.LVL216:
 987 0686 130717DD 		addi	a4,a4,-559
 988 068a 3A94     		add	s0,s0,a4
 989 068c B3966D61 		rol	a3,s11,s6
 990              	.LVL217:
 991 0690 B296     		add	a3,a2,a3
 992              	.LVL218:
 304:C:/Users/stapi/OneDrive/Desktop/GD32VW553/V1_MQTT_OK/GD32VW55X_Wifi_BLE_SDK/GD32VW55x_RELEASE_V1.0.2/MSDK/wpa_supplicant/src/crypto\md5-internal.c ****     MD5STEP(F4, b, c, d, a, in[1] + 0x85845dd1, 21);
 993              		.loc 1 304 5
 994 0692 33E73641 		orn	a4,a3,s3
 995 0696 A297     		add	a5,s0,a5
 996              	.LVL219:
 997 0698 318F     		xor	a4,a4,a2
 998 069a B785A86F 		li	a1,1873313792
 999 069e BA97     		add	a5,a4,a5
 1000              	.LVL220:
 1001 06a0 9385F5E4 		addi	a1,a1,-433
 1002 06a4 AE93     		add	t2,t2,a1
 1003 06a6 13D7B760 		rori	a4,a5,11
 1004              	.LVL221:
 1005 06aa 3697     		add	a4,a3,a4
 1006              	.LVL222:
 305:C:/Users/stapi/OneDrive/Desktop/GD32VW553/V1_MQTT_OK/GD32VW55X_Wifi_BLE_SDK/GD32VW55x_RELEASE_V1.0.2/MSDK/wpa_supplicant/src/crypto\md5-internal.c ****     MD5STEP(F4, a, b, c, d, in[8] + 0x6fa87e4f, 6);
 1007              		.loc 1 305 5
 1008 06ac B365C740 		orn	a1,a4,a2
 1009 06b0 9E99     		add	s3,t2,s3
 1010              	.LVL223:
 1011 06b2 B58D     		xor	a1,a1,a3
 1012 06b4 B7E72CFE 		li	a5,-30613504
 1013 06b8 AE99     		add	s3,a1,s3
 1014              	.LVL224:
 1015 06ba 9387076E 		addi	a5,a5,1760
 1016 06be BE92     		add	t0,t0,a5
 1017 06c0 B3959961 		rol	a1,s3,s9
 1018              	.LVL225:
 1019 06c4 BA95     		add	a1,a4,a1
 1020              	.LVL226:
 306:C:/Users/stapi/OneDrive/Desktop/GD32VW553/V1_MQTT_OK/GD32VW55X_Wifi_BLE_SDK/GD32VW55x_RELEASE_V1.0.2/MSDK/wpa_supplicant/src/crypto\md5-internal.c ****     MD5STEP(F4, d, a, b, c, in[15] + 0xfe2ce6e0, 10);
 1021              		.loc 1 306 5
 1022 06c6 1696     		add	a2,t0,a2
 1023              	.LVL227:
 1024 06c8 B74701A3 		li	a5,-1560199168
 1025 06cc B3E2D540 		orn	t0,a1,a3
 1026 06d0 B3C2E200 		xor	t0,t0,a4
 1027 06d4 93874731 		addi	a5,a5,788
 1028 06d8 1696     		add	a2,t0,a2
 1029              	.LVL228:
 1030 06da BE9F     		add	t6,t6,a5
 1031 06dc 33167661 		rol	a2,a2,s7
 1032              	.LVL229:
 1033 06e0 2E96     		add	a2,a1,a2
 1034              	.LVL230:
 307:C:/Users/stapi/OneDrive/Desktop/GD32VW553/V1_MQTT_OK/GD32VW55X_Wifi_BLE_SDK/GD32VW55x_RELEASE_V1.0.2/MSDK/wpa_supplicant/src/crypto\md5-internal.c ****     MD5STEP(F4, c, d, a, b, in[6] + 0xa3014314, 15);
 1035              		.loc 1 307 5
 1036 06e2 FE96     		add	a3,t6,a3
 1037              	.LVL231:
 1038 06e4 B717084E 		li	a5,1309151232
 1039 06e8 B36FE640 		orn	t6,a2,a4
 1040 06ec B3CFBF00 		xor	t6,t6,a1
 1041 06f0 9387171A 		addi	a5,a5,417
 1042 06f4 FE96     		add	a3,t6,a3
 1043              	.LVL232:
 1044 06f6 3E9F     		add	t5,t5,a5
 1045 06f8 B3966661 		rol	a3,a3,s6
 1046              	.LVL233:
 1047 06fc B296     		add	a3,a2,a3
 1048              	.LVL234:
 308:C:/Users/stapi/OneDrive/Desktop/GD32VW553/V1_MQTT_OK/GD32VW55X_Wifi_BLE_SDK/GD32VW55x_RELEASE_V1.0.2/MSDK/wpa_supplicant/src/crypto\md5-internal.c ****     MD5STEP(F4, b, c, d, a, in[13] + 0x4e0811a1, 21);
 1049              		.loc 1 308 5
 1050 06fe 7A97     		add	a4,t5,a4
 1051              	.LVL235:
 1052 0700 B78753F7 		li	a5,-145522688
 1053 0704 33EFB640 		orn	t5,a3,a1
 1054 0708 334FCF00 		xor	t5,t5,a2
 1055 070c 938727E8 		addi	a5,a5,-382
 1056 0710 7A97     		add	a4,t5,a4
 1057              	.LVL236:
 1058 0712 BE9E     		add	t4,t4,a5
 1059 0714 1357B760 		rori	a4,a4,11
 1060              	.LVL237:
 1061 0718 3697     		add	a4,a3,a4
 1062              	.LVL238:
 309:C:/Users/stapi/OneDrive/Desktop/GD32VW553/V1_MQTT_OK/GD32VW55X_Wifi_BLE_SDK/GD32VW55x_RELEASE_V1.0.2/MSDK/wpa_supplicant/src/crypto\md5-internal.c ****     MD5STEP(F4, a, b, c, d, in[4] + 0xf7537e82, 6);
 1063              		.loc 1 309 5
 1064 071a B367C740 		orn	a5,a4,a2
 1065 071e F695     		add	a1,t4,a1
 1066              	.LVL239:
 1067 0720 B58F     		xor	a5,a5,a3
 1068 0722 BE95     		add	a1,a5,a1
 1069              	.LVL240:
 1070 0724 B3979561 		rol	a5,a1,s9
 1071              	.LVL241:
 1072 0728 B7F53ABD 		li	a1,-1120210944
 1073 072c 93855523 		addi	a1,a1,565
 1074 0730 BA97     		add	a5,a4,a5
 1075              	.LVL242:
 310:C:/Users/stapi/OneDrive/Desktop/GD32VW553/V1_MQTT_OK/GD32VW55X_Wifi_BLE_SDK/GD32VW55x_RELEASE_V1.0.2/MSDK/wpa_supplicant/src/crypto\md5-internal.c ****     MD5STEP(F4, d, a, b, c, in[11] + 0xbd3af235, 10);
 1076              		.loc 1 310 5
 1077 0732 2E9E     		add	t3,t3,a1
 1078 0734 7296     		add	a2,t3,a2
 1079              	.LVL243:
 1080 0736 33EED740 		orn	t3,a5,a3
 1081 073a 334EEE00 		xor	t3,t3,a4
 1082 073e 7296     		add	a2,t3,a2
 1083              	.LVL244:
 1084 0740 B31B7661 		rol	s7,a2,s7
 1085              	.LVL245:
 1086 0744 37D6D72A 		li	a2,718786560
 1087 0748 1306B62B 		addi	a2,a2,699
 1088 074c BE9B     		add	s7,a5,s7
 1089              	.LVL246:
 311:C:/Users/stapi/OneDrive/Desktop/GD32VW553/V1_MQTT_OK/GD32VW55X_Wifi_BLE_SDK/GD32VW55x_RELEASE_V1.0.2/MSDK/wpa_supplicant/src/crypto\md5-internal.c ****     MD5STEP(F4, c, d, a, b, in[2] + 0x2ad7d2bb, 15);
 1090              		.loc 1 311 5
 1091 074e 3293     		add	t1,t1,a2
 1092 0750 3693     		add	t1,t1,a3
 1093 0752 B3E6EB40 		orn	a3,s7,a4
 1094              	.LVL247:
 1095 0756 BD8E     		xor	a3,a3,a5
 1096 0758 9A96     		add	a3,a3,t1
 1097              	.LVL248:
 1098 075a 339B6661 		rol	s6,a3,s6
 1099              	.LVL249:
 1100 075e B7D686EB 		li	a3,-343486464
 1101 0762 93861639 		addi	a3,a3,913
 1102 0766 B698     		add	a7,a7,a3
 312:C:/Users/stapi/OneDrive/Desktop/GD32VW553/V1_MQTT_OK/GD32VW55X_Wifi_BLE_SDK/GD32VW55x_RELEASE_V1.0.2/MSDK/wpa_supplicant/src/crypto\md5-internal.c ****     MD5STEP(F4, b, c, d, a, in[9] + 0xeb86d391, 21);
 313:C:/Users/stapi/OneDrive/Desktop/GD32VW553/V1_MQTT_OK/GD32VW55X_Wifi_BLE_SDK/GD32VW55x_RELEASE_V1.0.2/MSDK/wpa_supplicant/src/crypto\md5-internal.c **** 
 314:C:/Users/stapi/OneDrive/Desktop/GD32VW553/V1_MQTT_OK/GD32VW55X_Wifi_BLE_SDK/GD32VW55x_RELEASE_V1.0.2/MSDK/wpa_supplicant/src/crypto\md5-internal.c ****     buf[0] += a;
 1103              		.loc 1 314 12 is_stmt 0
 1104 0768 1441     		lw	a3,0(a0)
 311:C:/Users/stapi/OneDrive/Desktop/GD32VW553/V1_MQTT_OK/GD32VW55X_Wifi_BLE_SDK/GD32VW55x_RELEASE_V1.0.2/MSDK/wpa_supplicant/src/crypto\md5-internal.c ****     MD5STEP(F4, c, d, a, b, in[2] + 0x2ad7d2bb, 15);
 1105              		.loc 1 311 5
 1106 076a 5E9B     		add	s6,s7,s6
 1107              	.LVL250:
 312:C:/Users/stapi/OneDrive/Desktop/GD32VW553/V1_MQTT_OK/GD32VW55X_Wifi_BLE_SDK/GD32VW55x_RELEASE_V1.0.2/MSDK/wpa_supplicant/src/crypto\md5-internal.c ****     MD5STEP(F4, b, c, d, a, in[9] + 0xeb86d391, 21);
 1108              		.loc 1 312 5 is_stmt 1
 1109 076c BA98     		add	a7,a7,a4
 1110 076e 3367FB40 		orn	a4,s6,a5
 1111              	.LVL251:
 1112              		.loc 1 314 12 is_stmt 0
 1113 0772 B697     		add	a5,a3,a5
 1114              	.LVL252:
 1115 0774 1CC1     		sw	a5,0(a0)
 315:C:/Users/stapi/OneDrive/Desktop/GD32VW553/V1_MQTT_OK/GD32VW55X_Wifi_BLE_SDK/GD32VW55x_RELEASE_V1.0.2/MSDK/wpa_supplicant/src/crypto\md5-internal.c ****     buf[1] += b;
 316:C:/Users/stapi/OneDrive/Desktop/GD32VW553/V1_MQTT_OK/GD32VW55X_Wifi_BLE_SDK/GD32VW55x_RELEASE_V1.0.2/MSDK/wpa_supplicant/src/crypto\md5-internal.c ****     buf[2] += c;
 317:C:/Users/stapi/OneDrive/Desktop/GD32VW553/V1_MQTT_OK/GD32VW55X_Wifi_BLE_SDK/GD32VW55x_RELEASE_V1.0.2/MSDK/wpa_supplicant/src/crypto\md5-internal.c ****     buf[3] += d;
 1116              		.loc 1 317 12
 1117 0776 5C45     		lw	a5,12(a0)
 312:C:/Users/stapi/OneDrive/Desktop/GD32VW553/V1_MQTT_OK/GD32VW55X_Wifi_BLE_SDK/GD32VW55x_RELEASE_V1.0.2/MSDK/wpa_supplicant/src/crypto\md5-internal.c ****     MD5STEP(F4, b, c, d, a, in[9] + 0xeb86d391, 21);
 1118              		.loc 1 312 5
 1119 0778 33477701 		xor	a4,a4,s7
 318:C:/Users/stapi/OneDrive/Desktop/GD32VW553/V1_MQTT_OK/GD32VW55X_Wifi_BLE_SDK/GD32VW55x_RELEASE_V1.0.2/MSDK/wpa_supplicant/src/crypto\md5-internal.c **** }
 1120              		.loc 1 318 1
 1121 077c 3254     		lw	s0,44(sp)
 1122              		.cfi_restore 8
 315:C:/Users/stapi/OneDrive/Desktop/GD32VW553/V1_MQTT_OK/GD32VW55X_Wifi_BLE_SDK/GD32VW55x_RELEASE_V1.0.2/MSDK/wpa_supplicant/src/crypto\md5-internal.c ****     buf[1] += b;
 1123              		.loc 1 315 12
 1124 077e 5A98     		add	a6,a6,s6
 312:C:/Users/stapi/OneDrive/Desktop/GD32VW553/V1_MQTT_OK/GD32VW55X_Wifi_BLE_SDK/GD32VW55x_RELEASE_V1.0.2/MSDK/wpa_supplicant/src/crypto\md5-internal.c ****     MD5STEP(F4, b, c, d, a, in[9] + 0xeb86d391, 21);
 1125              		.loc 1 312 5
 1126 0780 4697     		add	a4,a4,a7
 1127              	.LVL253:
 314:C:/Users/stapi/OneDrive/Desktop/GD32VW553/V1_MQTT_OK/GD32VW55X_Wifi_BLE_SDK/GD32VW55x_RELEASE_V1.0.2/MSDK/wpa_supplicant/src/crypto\md5-internal.c ****     buf[1] += b;
 1128              		.loc 1 314 5 is_stmt 1
 315:C:/Users/stapi/OneDrive/Desktop/GD32VW553/V1_MQTT_OK/GD32VW55X_Wifi_BLE_SDK/GD32VW55x_RELEASE_V1.0.2/MSDK/wpa_supplicant/src/crypto\md5-internal.c ****     buf[1] += b;
 1129              		.loc 1 315 5
 316:C:/Users/stapi/OneDrive/Desktop/GD32VW553/V1_MQTT_OK/GD32VW55X_Wifi_BLE_SDK/GD32VW55x_RELEASE_V1.0.2/MSDK/wpa_supplicant/src/crypto\md5-internal.c ****     buf[3] += d;
 1130              		.loc 1 316 12 is_stmt 0
 1131 0782 629B     		add	s6,s8,s6
 1132              	.LVL254:
 317:C:/Users/stapi/OneDrive/Desktop/GD32VW553/V1_MQTT_OK/GD32VW55X_Wifi_BLE_SDK/GD32VW55x_RELEASE_V1.0.2/MSDK/wpa_supplicant/src/crypto\md5-internal.c **** }
 1133              		.loc 1 317 12
 1134 0784 BE9B     		add	s7,a5,s7
 1135              	.LVL255:
 312:C:/Users/stapi/OneDrive/Desktop/GD32VW553/V1_MQTT_OK/GD32VW55X_Wifi_BLE_SDK/GD32VW55x_RELEASE_V1.0.2/MSDK/wpa_supplicant/src/crypto\md5-internal.c **** 
 1136              		.loc 1 312 5
 1137 0786 1357B760 		rori	a4,a4,11
 315:C:/Users/stapi/OneDrive/Desktop/GD32VW553/V1_MQTT_OK/GD32VW55X_Wifi_BLE_SDK/GD32VW55x_RELEASE_V1.0.2/MSDK/wpa_supplicant/src/crypto\md5-internal.c ****     buf[2] += c;
 1138              		.loc 1 315 12
 1139 078a 3A98     		add	a6,a4,a6
 316:C:/Users/stapi/OneDrive/Desktop/GD32VW553/V1_MQTT_OK/GD32VW55X_Wifi_BLE_SDK/GD32VW55x_RELEASE_V1.0.2/MSDK/wpa_supplicant/src/crypto\md5-internal.c ****     buf[3] += d;
 1140              		.loc 1 316 12
 1141 078c 23246501 		sw	s6,8(a0)
 317:C:/Users/stapi/OneDrive/Desktop/GD32VW553/V1_MQTT_OK/GD32VW55X_Wifi_BLE_SDK/GD32VW55x_RELEASE_V1.0.2/MSDK/wpa_supplicant/src/crypto\md5-internal.c **** }
 1142              		.loc 1 317 12
 1143 0790 23267501 		sw	s7,12(a0)
 315:C:/Users/stapi/OneDrive/Desktop/GD32VW553/V1_MQTT_OK/GD32VW55X_Wifi_BLE_SDK/GD32VW55x_RELEASE_V1.0.2/MSDK/wpa_supplicant/src/crypto\md5-internal.c ****     buf[2] += c;
 1144              		.loc 1 315 12
 1145 0794 23220501 		sw	a6,4(a0)
 316:C:/Users/stapi/OneDrive/Desktop/GD32VW553/V1_MQTT_OK/GD32VW55X_Wifi_BLE_SDK/GD32VW55x_RELEASE_V1.0.2/MSDK/wpa_supplicant/src/crypto\md5-internal.c ****     buf[3] += d;
 1146              		.loc 1 316 5 is_stmt 1
 317:C:/Users/stapi/OneDrive/Desktop/GD32VW553/V1_MQTT_OK/GD32VW55X_Wifi_BLE_SDK/GD32VW55x_RELEASE_V1.0.2/MSDK/wpa_supplicant/src/crypto\md5-internal.c **** }
 1147              		.loc 1 317 5
 1148              		.loc 1 318 1 is_stmt 0
 1149 0798 A254     		lw	s1,40(sp)
 1150              		.cfi_restore 9
 1151 079a 1259     		lw	s2,36(sp)
 1152              		.cfi_restore 18
 1153 079c 8259     		lw	s3,32(sp)
 1154              		.cfi_restore 19
 1155 079e 724A     		lw	s4,28(sp)
 1156              		.cfi_restore 20
 1157 07a0 E24A     		lw	s5,24(sp)
 1158              		.cfi_restore 21
 1159 07a2 524B     		lw	s6,20(sp)
 1160              		.cfi_restore 22
 1161 07a4 C24B     		lw	s7,16(sp)
 1162              		.cfi_restore 23
 1163 07a6 324C     		lw	s8,12(sp)
 1164              		.cfi_restore 24
 1165 07a8 A24C     		lw	s9,8(sp)
 1166              		.cfi_restore 25
 1167 07aa 124D     		lw	s10,4(sp)
 1168              		.cfi_restore 26
 1169 07ac 824D     		lw	s11,0(sp)
 1170              		.cfi_restore 27
 1171 07ae 4561     		addi	sp,sp,48
 1172              		.cfi_def_cfa_offset 0
 1173 07b0 8280     		jr	ra
 1174              		.cfi_endproc
 1175              	.LFE436:
 1177              		.section	.text.md5_vector,"ax",@progbits
 1178              		.align	1
 1179              		.globl	md5_vector
 1181              	md5_vector:
 1182              	.LFB432:
  32:C:/Users/stapi/OneDrive/Desktop/GD32VW553/V1_MQTT_OK/GD32VW55X_Wifi_BLE_SDK/GD32VW55x_RELEASE_V1.0.2/MSDK/wpa_supplicant/src/crypto\md5-internal.c **** #ifdef WPA_HW_SECURITY_ENGINE_ENABLE
 1183              		.loc 1 32 1 is_stmt 1
 1184              		.cfi_startproc
 1185              	.LVL256:
 1186 0000 17030000 		call	t0,__riscv_save_8
 1186      E7020300 
 1187              		.cfi_offset 23, -36
 1188              		.cfi_offset 22, -32
 1189              		.cfi_offset 21, -28
 1190              		.cfi_offset 20, -24
 1191              		.cfi_offset 19, -20
 1192              		.cfi_offset 18, -16
 1193              		.cfi_offset 9, -12
 1194              		.cfi_offset 8, -8
 1195              		.cfi_offset 1, -4
 1196              		.cfi_def_cfa_offset 48
  34:C:/Users/stapi/OneDrive/Desktop/GD32VW553/V1_MQTT_OK/GD32VW55X_Wifi_BLE_SDK/GD32VW55x_RELEASE_V1.0.2/MSDK/wpa_supplicant/src/crypto\md5-internal.c **** 	uint32_t input_len = 0;
 1197              		.loc 1 34 2
 1198              	.LVL257:
  35:C:/Users/stapi/OneDrive/Desktop/GD32VW553/V1_MQTT_OK/GD32VW55X_Wifi_BLE_SDK/GD32VW55x_RELEASE_V1.0.2/MSDK/wpa_supplicant/src/crypto\md5-internal.c **** 	uint32_t i;
 1199              		.loc 1 35 2
  36:C:/Users/stapi/OneDrive/Desktop/GD32VW553/V1_MQTT_OK/GD32VW55X_Wifi_BLE_SDK/GD32VW55x_RELEASE_V1.0.2/MSDK/wpa_supplicant/src/crypto\md5-internal.c **** 	int ret;
 1200              		.loc 1 36 2
  37:C:/Users/stapi/OneDrive/Desktop/GD32VW553/V1_MQTT_OK/GD32VW55X_Wifi_BLE_SDK/GD32VW55x_RELEASE_V1.0.2/MSDK/wpa_supplicant/src/crypto\md5-internal.c **** 
 1201              		.loc 1 37 2
  39:C:/Users/stapi/OneDrive/Desktop/GD32VW553/V1_MQTT_OK/GD32VW55X_Wifi_BLE_SDK/GD32VW55x_RELEASE_V1.0.2/MSDK/wpa_supplicant/src/crypto\md5-internal.c **** 		input_len += len[i];
 1202              		.loc 1 39 2
  32:C:/Users/stapi/OneDrive/Desktop/GD32VW553/V1_MQTT_OK/GD32VW55X_Wifi_BLE_SDK/GD32VW55x_RELEASE_V1.0.2/MSDK/wpa_supplicant/src/crypto\md5-internal.c **** #ifdef WPA_HW_SECURITY_ENGINE_ENABLE
 1203              		.loc 1 32 1 is_stmt 0
 1204 0008 AA87     		mv	a5,a0
 1205 000a 2E8B     		mv	s6,a1
 1206 000c 328A     		mv	s4,a2
 1207 000e B68A     		mv	s5,a3
  39:C:/Users/stapi/OneDrive/Desktop/GD32VW553/V1_MQTT_OK/GD32VW55X_Wifi_BLE_SDK/GD32VW55x_RELEASE_V1.0.2/MSDK/wpa_supplicant/src/crypto\md5-internal.c **** 		input_len += len[i];
 1208              		.loc 1 39 9
 1209 0010 0144     		li	s0,0
  35:C:/Users/stapi/OneDrive/Desktop/GD32VW553/V1_MQTT_OK/GD32VW55X_Wifi_BLE_SDK/GD32VW55x_RELEASE_V1.0.2/MSDK/wpa_supplicant/src/crypto\md5-internal.c **** 	uint32_t i;
 1210              		.loc 1 35 11
 1211 0012 0145     		li	a0,0
 1212              	.LVL258:
 1213              	.L4:
  39:C:/Users/stapi/OneDrive/Desktop/GD32VW553/V1_MQTT_OK/GD32VW55X_Wifi_BLE_SDK/GD32VW55x_RELEASE_V1.0.2/MSDK/wpa_supplicant/src/crypto\md5-internal.c **** 		input_len += len[i];
 1214              		.loc 1 39 14 is_stmt 1 discriminator 1
  39:C:/Users/stapi/OneDrive/Desktop/GD32VW553/V1_MQTT_OK/GD32VW55X_Wifi_BLE_SDK/GD32VW55x_RELEASE_V1.0.2/MSDK/wpa_supplicant/src/crypto\md5-internal.c **** 		input_len += len[i];
 1215              		.loc 1 39 2 is_stmt 0 discriminator 1
 1216 0014 631BF404 		bne	s0,a5,.L5
  43:C:/Users/stapi/OneDrive/Desktop/GD32VW553/V1_MQTT_OK/GD32VW55X_Wifi_BLE_SDK/GD32VW55x_RELEASE_V1.0.2/MSDK/wpa_supplicant/src/crypto\md5-internal.c **** 	if(NULL == input)
 1217              		.loc 1 43 2 is_stmt 1
  43:C:/Users/stapi/OneDrive/Desktop/GD32VW553/V1_MQTT_OK/GD32VW55X_Wifi_BLE_SDK/GD32VW55x_RELEASE_V1.0.2/MSDK/wpa_supplicant/src/crypto\md5-internal.c **** 	if(NULL == input)
 1218              		.loc 1 43 21 is_stmt 0
 1219 0018 97000000 		call	os_malloc
 1219      E7800000 
 1220              	.LVL259:
 1221 0020 AA84     		mv	s1,a0
 1222              	.LVL260:
  44:C:/Users/stapi/OneDrive/Desktop/GD32VW553/V1_MQTT_OK/GD32VW55X_Wifi_BLE_SDK/GD32VW55x_RELEASE_V1.0.2/MSDK/wpa_supplicant/src/crypto\md5-internal.c **** 		return -1;
 1223              		.loc 1 44 2 is_stmt 1
  45:C:/Users/stapi/OneDrive/Desktop/GD32VW553/V1_MQTT_OK/GD32VW55X_Wifi_BLE_SDK/GD32VW55x_RELEASE_V1.0.2/MSDK/wpa_supplicant/src/crypto\md5-internal.c **** 
 1224              		.loc 1 45 10 is_stmt 0
 1225 0022 7D55     		li	a0,-1
  44:C:/Users/stapi/OneDrive/Desktop/GD32VW553/V1_MQTT_OK/GD32VW55X_Wifi_BLE_SDK/GD32VW55x_RELEASE_V1.0.2/MSDK/wpa_supplicant/src/crypto\md5-internal.c **** 		return -1;
 1226              		.loc 1 44 4
 1227 0024 9DCC     		beq	s1,zero,.L3
 1228 0026 0A04     		slli	s0,s0,2
 1229              	.LVL261:
 1230 0028 0149     		li	s2,0
  47:C:/Users/stapi/OneDrive/Desktop/GD32VW553/V1_MQTT_OK/GD32VW55X_Wifi_BLE_SDK/GD32VW55x_RELEASE_V1.0.2/MSDK/wpa_supplicant/src/crypto\md5-internal.c **** 		os_memcpy(input + input_len, addr[i], len[i]);
 1231              		.loc 1 47 24
 1232 002a 8149     		li	s3,0
 1233              	.L7:
 1234              	.LVL262:
  47:C:/Users/stapi/OneDrive/Desktop/GD32VW553/V1_MQTT_OK/GD32VW55X_Wifi_BLE_SDK/GD32VW55x_RELEASE_V1.0.2/MSDK/wpa_supplicant/src/crypto\md5-internal.c **** 		os_memcpy(input + input_len, addr[i], len[i]);
 1235              		.loc 1 47 29 is_stmt 1 discriminator 1
  47:C:/Users/stapi/OneDrive/Desktop/GD32VW553/V1_MQTT_OK/GD32VW55X_Wifi_BLE_SDK/GD32VW55x_RELEASE_V1.0.2/MSDK/wpa_supplicant/src/crypto\md5-internal.c **** 		os_memcpy(input + input_len, addr[i], len[i]);
 1236              		.loc 1 47 2 is_stmt 0 discriminator 1
 1237 002c 63158904 		bne	s2,s0,.L8
  52:C:/Users/stapi/OneDrive/Desktop/GD32VW553/V1_MQTT_OK/GD32VW55X_Wifi_BLE_SDK/GD32VW55x_RELEASE_V1.0.2/MSDK/wpa_supplicant/src/crypto\md5-internal.c **** 	ret = hau_hash_md5(input, input_len, mac);
 1238              		.loc 1 52 2 is_stmt 1
 1239 0030 97000000 		call	sys_enter_critical
 1239      E7800000 
 1240              	.LVL263:
  53:C:/Users/stapi/OneDrive/Desktop/GD32VW553/V1_MQTT_OK/GD32VW55X_Wifi_BLE_SDK/GD32VW55x_RELEASE_V1.0.2/MSDK/wpa_supplicant/src/crypto\md5-internal.c **** 	HW_ACC_ENGINE_UNLOCK();
 1241              		.loc 1 53 2
  53:C:/Users/stapi/OneDrive/Desktop/GD32VW553/V1_MQTT_OK/GD32VW55X_Wifi_BLE_SDK/GD32VW55x_RELEASE_V1.0.2/MSDK/wpa_supplicant/src/crypto\md5-internal.c **** 	HW_ACC_ENGINE_UNLOCK();
 1242              		.loc 1 53 8 is_stmt 0
 1243 0038 5686     		mv	a2,s5
 1244 003a CE85     		mv	a1,s3
 1245 003c 2685     		mv	a0,s1
 1246 003e 97000000 		call	hau_hash_md5
 1246      E7800000 
 1247              	.LVL264:
 1248 0046 2A84     		mv	s0,a0
 1249              	.LVL265:
  54:C:/Users/stapi/OneDrive/Desktop/GD32VW553/V1_MQTT_OK/GD32VW55X_Wifi_BLE_SDK/GD32VW55x_RELEASE_V1.0.2/MSDK/wpa_supplicant/src/crypto\md5-internal.c **** 
 1250              		.loc 1 54 2 is_stmt 1
 1251 0048 97000000 		call	sys_exit_critical
 1251      E7800000 
 1252              	.LVL266:
  56:C:/Users/stapi/OneDrive/Desktop/GD32VW553/V1_MQTT_OK/GD32VW55X_Wifi_BLE_SDK/GD32VW55x_RELEASE_V1.0.2/MSDK/wpa_supplicant/src/crypto\md5-internal.c **** 	return (ret == ERROR) ? -1 : 0;
 1253              		.loc 1 56 2
 1254 0050 2685     		mv	a0,s1
 1255 0052 97000000 		call	os_free
 1255      E7800000 
 1256              	.LVL267:
  57:C:/Users/stapi/OneDrive/Desktop/GD32VW553/V1_MQTT_OK/GD32VW55X_Wifi_BLE_SDK/GD32VW55x_RELEASE_V1.0.2/MSDK/wpa_supplicant/src/crypto\md5-internal.c **** #else
 1257              		.loc 1 57 2
  57:C:/Users/stapi/OneDrive/Desktop/GD32VW553/V1_MQTT_OK/GD32VW55X_Wifi_BLE_SDK/GD32VW55x_RELEASE_V1.0.2/MSDK/wpa_supplicant/src/crypto\md5-internal.c **** #else
 1258              		.loc 1 57 29 is_stmt 0
 1259 005a 13351400 		seqz	a0,s0
 1260 005e 3305A040 		neg	a0,a0
 1261              	.LVL268:
 1262              	.L3:
  71:C:/Users/stapi/OneDrive/Desktop/GD32VW553/V1_MQTT_OK/GD32VW55X_Wifi_BLE_SDK/GD32VW55x_RELEASE_V1.0.2/MSDK/wpa_supplicant/src/crypto\md5-internal.c **** 
 1263              		.loc 1 71 1
 1264 0062 17030000 		tail	__riscv_restore_8
 1264      67000300 
 1265              		.cfi_remember_state
 1266              		.cfi_restore 23
 1267              		.cfi_restore 22
 1268              		.cfi_restore 21
 1269              		.cfi_restore 20
 1270              		.cfi_restore 19
 1271              		.cfi_restore 18
 1272              		.cfi_restore 9
 1273              		.cfi_restore 8
 1274              		.cfi_restore 1
 1275              		.cfi_def_cfa_offset 0
 1276              	.LVL269:
 1277              	.L5:
 1278              		.cfi_restore_state
  40:C:/Users/stapi/OneDrive/Desktop/GD32VW553/V1_MQTT_OK/GD32VW55X_Wifi_BLE_SDK/GD32VW55x_RELEASE_V1.0.2/MSDK/wpa_supplicant/src/crypto\md5-internal.c **** 	}
 1279              		.loc 1 40 3 is_stmt 1 discriminator 3
  40:C:/Users/stapi/OneDrive/Desktop/GD32VW553/V1_MQTT_OK/GD32VW55X_Wifi_BLE_SDK/GD32VW55x_RELEASE_V1.0.2/MSDK/wpa_supplicant/src/crypto\md5-internal.c **** 	}
 1280              		.loc 1 40 19 is_stmt 0 discriminator 3
 1281 006a 33474421 		sh2add	a4,s0,s4
  40:C:/Users/stapi/OneDrive/Desktop/GD32VW553/V1_MQTT_OK/GD32VW55X_Wifi_BLE_SDK/GD32VW55x_RELEASE_V1.0.2/MSDK/wpa_supplicant/src/crypto\md5-internal.c **** 	}
 1282              		.loc 1 40 13 discriminator 3
 1283 006e 1843     		lw	a4,0(a4)
  39:C:/Users/stapi/OneDrive/Desktop/GD32VW553/V1_MQTT_OK/GD32VW55X_Wifi_BLE_SDK/GD32VW55x_RELEASE_V1.0.2/MSDK/wpa_supplicant/src/crypto\md5-internal.c **** 		input_len += len[i];
 1284              		.loc 1 39 29 discriminator 3
 1285 0070 0504     		addi	s0,s0,1
 1286              	.LVL270:
  40:C:/Users/stapi/OneDrive/Desktop/GD32VW553/V1_MQTT_OK/GD32VW55X_Wifi_BLE_SDK/GD32VW55x_RELEASE_V1.0.2/MSDK/wpa_supplicant/src/crypto\md5-internal.c **** 	}
 1287              		.loc 1 40 13 discriminator 3
 1288 0072 3A95     		add	a0,a0,a4
 1289              	.LVL271:
  39:C:/Users/stapi/OneDrive/Desktop/GD32VW553/V1_MQTT_OK/GD32VW55X_Wifi_BLE_SDK/GD32VW55x_RELEASE_V1.0.2/MSDK/wpa_supplicant/src/crypto\md5-internal.c **** 		input_len += len[i];
 1290              		.loc 1 39 28 is_stmt 1 discriminator 3
 1291 0074 45B7     		j	.L4
 1292              	.LVL272:
 1293              	.L8:
  48:C:/Users/stapi/OneDrive/Desktop/GD32VW553/V1_MQTT_OK/GD32VW55X_Wifi_BLE_SDK/GD32VW55x_RELEASE_V1.0.2/MSDK/wpa_supplicant/src/crypto\md5-internal.c **** 		input_len += len[i];
 1294              		.loc 1 48 3 discriminator 3
 1295 0076 B3072B01 		add	a5,s6,s2
 1296 007a B30B2A01 		add	s7,s4,s2
 1297 007e 8C43     		lw	a1,0(a5)
 1298 0080 03A60B00 		lw	a2,0(s7)
 1299 0084 33853401 		add	a0,s1,s3
 1300 0088 1109     		addi	s2,s2,4
 1301 008a 97000000 		call	os_memcpy
 1301      E7800000 
 1302              	.LVL273:
  49:C:/Users/stapi/OneDrive/Desktop/GD32VW553/V1_MQTT_OK/GD32VW55X_Wifi_BLE_SDK/GD32VW55x_RELEASE_V1.0.2/MSDK/wpa_supplicant/src/crypto\md5-internal.c **** 	}
 1303              		.loc 1 49 3 discriminator 3
  49:C:/Users/stapi/OneDrive/Desktop/GD32VW553/V1_MQTT_OK/GD32VW55X_Wifi_BLE_SDK/GD32VW55x_RELEASE_V1.0.2/MSDK/wpa_supplicant/src/crypto\md5-internal.c **** 	}
 1304              		.loc 1 49 13 is_stmt 0 discriminator 3
 1305 0092 83A70B00 		lw	a5,0(s7)
 1306 0096 BE99     		add	s3,s3,a5
 1307              	.LVL274:
  47:C:/Users/stapi/OneDrive/Desktop/GD32VW553/V1_MQTT_OK/GD32VW55X_Wifi_BLE_SDK/GD32VW55x_RELEASE_V1.0.2/MSDK/wpa_supplicant/src/crypto\md5-internal.c **** 		os_memcpy(input + input_len, addr[i], len[i]);
 1308              		.loc 1 47 43 is_stmt 1 discriminator 3
 1309 0098 51BF     		j	.L7
 1310              		.cfi_endproc
 1311              	.LFE432:
 1313              		.section	.text.MD5Init,"ax",@progbits
 1314              		.align	1
 1315              		.globl	MD5Init
 1317              	MD5Init:
 1318              	.LFB433:
 117:C:/Users/stapi/OneDrive/Desktop/GD32VW553/V1_MQTT_OK/GD32VW55X_Wifi_BLE_SDK/GD32VW55x_RELEASE_V1.0.2/MSDK/wpa_supplicant/src/crypto\md5-internal.c ****     ctx->buf[0] = 0x67452301;
 1319              		.loc 1 117 1
 1320              		.cfi_startproc
 1321              	.LVL275:
 118:C:/Users/stapi/OneDrive/Desktop/GD32VW553/V1_MQTT_OK/GD32VW55X_Wifi_BLE_SDK/GD32VW55x_RELEASE_V1.0.2/MSDK/wpa_supplicant/src/crypto\md5-internal.c ****     ctx->buf[1] = 0xefcdab89;
 1322              		.loc 1 118 5
 118:C:/Users/stapi/OneDrive/Desktop/GD32VW553/V1_MQTT_OK/GD32VW55X_Wifi_BLE_SDK/GD32VW55x_RELEASE_V1.0.2/MSDK/wpa_supplicant/src/crypto\md5-internal.c ****     ctx->buf[1] = 0xefcdab89;
 1323              		.loc 1 118 17 is_stmt 0
 1324 0000 B7274567 		li	a5,1732583424
 1325 0004 93871730 		addi	a5,a5,769
 1326 0008 1CC1     		sw	a5,0(a0)
 119:C:/Users/stapi/OneDrive/Desktop/GD32VW553/V1_MQTT_OK/GD32VW55X_Wifi_BLE_SDK/GD32VW55x_RELEASE_V1.0.2/MSDK/wpa_supplicant/src/crypto\md5-internal.c ****     ctx->buf[2] = 0x98badcfe;
 1327              		.loc 1 119 5 is_stmt 1
 119:C:/Users/stapi/OneDrive/Desktop/GD32VW553/V1_MQTT_OK/GD32VW55X_Wifi_BLE_SDK/GD32VW55x_RELEASE_V1.0.2/MSDK/wpa_supplicant/src/crypto\md5-internal.c ****     ctx->buf[2] = 0x98badcfe;
 1328              		.loc 1 119 17 is_stmt 0
 1329 000a B7B7CDEF 		li	a5,-271732736
 1330 000e 938797B8 		addi	a5,a5,-1143
 1331 0012 5CC1     		sw	a5,4(a0)
 120:C:/Users/stapi/OneDrive/Desktop/GD32VW553/V1_MQTT_OK/GD32VW55X_Wifi_BLE_SDK/GD32VW55x_RELEASE_V1.0.2/MSDK/wpa_supplicant/src/crypto\md5-internal.c ****     ctx->buf[3] = 0x10325476;
 1332              		.loc 1 120 5 is_stmt 1
 120:C:/Users/stapi/OneDrive/Desktop/GD32VW553/V1_MQTT_OK/GD32VW55X_Wifi_BLE_SDK/GD32VW55x_RELEASE_V1.0.2/MSDK/wpa_supplicant/src/crypto\md5-internal.c ****     ctx->buf[3] = 0x10325476;
 1333              		.loc 1 120 17 is_stmt 0
 1334 0014 B7E7BA98 		li	a5,-1732583424
 1335 0018 9387E7CF 		addi	a5,a5,-770
 1336 001c 1CC5     		sw	a5,8(a0)
 121:C:/Users/stapi/OneDrive/Desktop/GD32VW553/V1_MQTT_OK/GD32VW55X_Wifi_BLE_SDK/GD32VW55x_RELEASE_V1.0.2/MSDK/wpa_supplicant/src/crypto\md5-internal.c **** 
 1337              		.loc 1 121 5 is_stmt 1
 121:C:/Users/stapi/OneDrive/Desktop/GD32VW553/V1_MQTT_OK/GD32VW55X_Wifi_BLE_SDK/GD32VW55x_RELEASE_V1.0.2/MSDK/wpa_supplicant/src/crypto\md5-internal.c **** 
 1338              		.loc 1 121 17 is_stmt 0
 1339 001e B7573210 		li	a5,271732736
 1340 0022 93876747 		addi	a5,a5,1142
 1341 0026 5CC5     		sw	a5,12(a0)
 123:C:/Users/stapi/OneDrive/Desktop/GD32VW553/V1_MQTT_OK/GD32VW55X_Wifi_BLE_SDK/GD32VW55x_RELEASE_V1.0.2/MSDK/wpa_supplicant/src/crypto\md5-internal.c ****     ctx->bits[1] = 0;
 1342              		.loc 1 123 5 is_stmt 1
 123:C:/Users/stapi/OneDrive/Desktop/GD32VW553/V1_MQTT_OK/GD32VW55X_Wifi_BLE_SDK/GD32VW55x_RELEASE_V1.0.2/MSDK/wpa_supplicant/src/crypto\md5-internal.c ****     ctx->bits[1] = 0;
 1343              		.loc 1 123 18 is_stmt 0
 1344 0028 23280500 		sw	zero,16(a0)
 124:C:/Users/stapi/OneDrive/Desktop/GD32VW553/V1_MQTT_OK/GD32VW55X_Wifi_BLE_SDK/GD32VW55x_RELEASE_V1.0.2/MSDK/wpa_supplicant/src/crypto\md5-internal.c **** }
 1345              		.loc 1 124 5 is_stmt 1
 124:C:/Users/stapi/OneDrive/Desktop/GD32VW553/V1_MQTT_OK/GD32VW55X_Wifi_BLE_SDK/GD32VW55x_RELEASE_V1.0.2/MSDK/wpa_supplicant/src/crypto\md5-internal.c **** }
 1346              		.loc 1 124 18 is_stmt 0
 1347 002c 232A0500 		sw	zero,20(a0)
 125:C:/Users/stapi/OneDrive/Desktop/GD32VW553/V1_MQTT_OK/GD32VW55X_Wifi_BLE_SDK/GD32VW55x_RELEASE_V1.0.2/MSDK/wpa_supplicant/src/crypto\md5-internal.c **** 
 1348              		.loc 1 125 1
 1349 0030 8280     		ret
 1350              		.cfi_endproc
 1351              	.LFE433:
 1353              		.section	.text.MD5Update,"ax",@progbits
 1354              		.align	1
 1355              		.globl	MD5Update
 1357              	MD5Update:
 1358              	.LFB434:
 132:C:/Users/stapi/OneDrive/Desktop/GD32VW553/V1_MQTT_OK/GD32VW55X_Wifi_BLE_SDK/GD32VW55x_RELEASE_V1.0.2/MSDK/wpa_supplicant/src/crypto\md5-internal.c ****     u32 t;
 1359              		.loc 1 132 1 is_stmt 1
 1360              		.cfi_startproc
 1361              	.LVL276:
 1362 0000 17030000 		call	t0,__riscv_save_7
 1362      E7020300 
 1363              		.cfi_offset 22, -32
 1364              		.cfi_offset 21, -28
 1365              		.cfi_offset 20, -24
 1366              		.cfi_offset 19, -20
 1367              		.cfi_offset 18, -16
 1368              		.cfi_offset 9, -12
 1369              		.cfi_offset 8, -8
 1370              		.cfi_offset 1, -4
 1371              		.cfi_def_cfa_offset 32
 133:C:/Users/stapi/OneDrive/Desktop/GD32VW553/V1_MQTT_OK/GD32VW55X_Wifi_BLE_SDK/GD32VW55x_RELEASE_V1.0.2/MSDK/wpa_supplicant/src/crypto\md5-internal.c **** 
 1372              		.loc 1 133 5
 137:C:/Users/stapi/OneDrive/Desktop/GD32VW553/V1_MQTT_OK/GD32VW55X_Wifi_BLE_SDK/GD32VW55x_RELEASE_V1.0.2/MSDK/wpa_supplicant/src/crypto\md5-internal.c ****     if ((ctx->bits[0] = t + ((u32) len << 3)) < t)
 1373              		.loc 1 137 5
 137:C:/Users/stapi/OneDrive/Desktop/GD32VW553/V1_MQTT_OK/GD32VW55X_Wifi_BLE_SDK/GD32VW55x_RELEASE_V1.0.2/MSDK/wpa_supplicant/src/crypto\md5-internal.c ****     if ((ctx->bits[0] = t + ((u32) len << 3)) < t)
 1374              		.loc 1 137 7 is_stmt 0
 1375 0008 03290501 		lw	s2,16(a0)
 1376              	.LVL277:
 138:C:/Users/stapi/OneDrive/Desktop/GD32VW553/V1_MQTT_OK/GD32VW55X_Wifi_BLE_SDK/GD32VW55x_RELEASE_V1.0.2/MSDK/wpa_supplicant/src/crypto\md5-internal.c **** 	ctx->bits[1]++;		/* Carry from low to high */
 1377              		.loc 1 138 5 is_stmt 1
 132:C:/Users/stapi/OneDrive/Desktop/GD32VW553/V1_MQTT_OK/GD32VW55X_Wifi_BLE_SDK/GD32VW55x_RELEASE_V1.0.2/MSDK/wpa_supplicant/src/crypto\md5-internal.c ****     u32 t;
 1378              		.loc 1 132 1 is_stmt 0
 1379 000c AA84     		mv	s1,a0
 1380 000e AE89     		mv	s3,a1
 138:C:/Users/stapi/OneDrive/Desktop/GD32VW553/V1_MQTT_OK/GD32VW55X_Wifi_BLE_SDK/GD32VW55x_RELEASE_V1.0.2/MSDK/wpa_supplicant/src/crypto\md5-internal.c **** 	ctx->bits[1]++;		/* Carry from low to high */
 1381              		.loc 1 138 27
 1382 0010 B3672621 		sh3add	a5,a2,s2
 138:C:/Users/stapi/OneDrive/Desktop/GD32VW553/V1_MQTT_OK/GD32VW55X_Wifi_BLE_SDK/GD32VW55x_RELEASE_V1.0.2/MSDK/wpa_supplicant/src/crypto\md5-internal.c **** 	ctx->bits[1]++;		/* Carry from low to high */
 1383              		.loc 1 138 23
 1384 0014 1CC9     		sw	a5,16(a0)
 132:C:/Users/stapi/OneDrive/Desktop/GD32VW553/V1_MQTT_OK/GD32VW55X_Wifi_BLE_SDK/GD32VW55x_RELEASE_V1.0.2/MSDK/wpa_supplicant/src/crypto\md5-internal.c ****     u32 t;
 1385              		.loc 1 132 1
 1386 0016 3284     		mv	s0,a2
 138:C:/Users/stapi/OneDrive/Desktop/GD32VW553/V1_MQTT_OK/GD32VW55X_Wifi_BLE_SDK/GD32VW55x_RELEASE_V1.0.2/MSDK/wpa_supplicant/src/crypto\md5-internal.c **** 	ctx->bits[1]++;		/* Carry from low to high */
 1387              		.loc 1 138 8
 1388 0018 63F52701 		bgeu	a5,s2,.L13
 139:C:/Users/stapi/OneDrive/Desktop/GD32VW553/V1_MQTT_OK/GD32VW55X_Wifi_BLE_SDK/GD32VW55x_RELEASE_V1.0.2/MSDK/wpa_supplicant/src/crypto\md5-internal.c ****     ctx->bits[1] += len >> 29;
 1389              		.loc 1 139 2 is_stmt 1
 139:C:/Users/stapi/OneDrive/Desktop/GD32VW553/V1_MQTT_OK/GD32VW55X_Wifi_BLE_SDK/GD32VW55x_RELEASE_V1.0.2/MSDK/wpa_supplicant/src/crypto\md5-internal.c ****     ctx->bits[1] += len >> 29;
 1390              		.loc 1 139 14 is_stmt 0
 1391 001c 5C49     		lw	a5,20(a0)
 1392 001e 8507     		addi	a5,a5,1
 1393 0020 5CC9     		sw	a5,20(a0)
 1394              	.L13:
 140:C:/Users/stapi/OneDrive/Desktop/GD32VW553/V1_MQTT_OK/GD32VW55X_Wifi_BLE_SDK/GD32VW55x_RELEASE_V1.0.2/MSDK/wpa_supplicant/src/crypto\md5-internal.c **** 
 1395              		.loc 1 140 5 is_stmt 1
 140:C:/Users/stapi/OneDrive/Desktop/GD32VW553/V1_MQTT_OK/GD32VW55X_Wifi_BLE_SDK/GD32VW55x_RELEASE_V1.0.2/MSDK/wpa_supplicant/src/crypto\md5-internal.c **** 
 1396              		.loc 1 140 18 is_stmt 0
 1397 0022 D848     		lw	a4,20(s1)
 140:C:/Users/stapi/OneDrive/Desktop/GD32VW553/V1_MQTT_OK/GD32VW55X_Wifi_BLE_SDK/GD32VW55x_RELEASE_V1.0.2/MSDK/wpa_supplicant/src/crypto\md5-internal.c **** 
 1398              		.loc 1 140 25
 1399 0024 9357D401 		srli	a5,s0,29
 142:C:/Users/stapi/OneDrive/Desktop/GD32VW553/V1_MQTT_OK/GD32VW55X_Wifi_BLE_SDK/GD32VW55x_RELEASE_V1.0.2/MSDK/wpa_supplicant/src/crypto\md5-internal.c **** 
 1400              		.loc 1 142 12
 1401 0028 13593900 		srli	s2,s2,3
 1402              	.LVL278:
 140:C:/Users/stapi/OneDrive/Desktop/GD32VW553/V1_MQTT_OK/GD32VW55X_Wifi_BLE_SDK/GD32VW55x_RELEASE_V1.0.2/MSDK/wpa_supplicant/src/crypto\md5-internal.c **** 
 1403              		.loc 1 140 18
 1404 002c BA97     		add	a5,a4,a5
 1405 002e DCC8     		sw	a5,20(s1)
 142:C:/Users/stapi/OneDrive/Desktop/GD32VW553/V1_MQTT_OK/GD32VW55X_Wifi_BLE_SDK/GD32VW55x_RELEASE_V1.0.2/MSDK/wpa_supplicant/src/crypto\md5-internal.c **** 
 1406              		.loc 1 142 5 is_stmt 1
 142:C:/Users/stapi/OneDrive/Desktop/GD32VW553/V1_MQTT_OK/GD32VW55X_Wifi_BLE_SDK/GD32VW55x_RELEASE_V1.0.2/MSDK/wpa_supplicant/src/crypto\md5-internal.c **** 
 1407              		.loc 1 142 7 is_stmt 0
 1408 0030 1379F903 		andi	s2,s2,63
 1409              	.LVL279:
 146:C:/Users/stapi/OneDrive/Desktop/GD32VW553/V1_MQTT_OK/GD32VW55X_Wifi_BLE_SDK/GD32VW55x_RELEASE_V1.0.2/MSDK/wpa_supplicant/src/crypto\md5-internal.c **** 	unsigned char *p = (unsigned char *) ctx->in + t;
 1410              		.loc 1 146 5 is_stmt 1
 1411              	.LBB2:
 147:C:/Users/stapi/OneDrive/Desktop/GD32VW553/V1_MQTT_OK/GD32VW55X_Wifi_BLE_SDK/GD32VW55x_RELEASE_V1.0.2/MSDK/wpa_supplicant/src/crypto\md5-internal.c **** 
 1412              		.loc 1 147 39 is_stmt 0
 1413 0034 138A8401 		addi	s4,s1,24
 1414              	.LBE2:
 146:C:/Users/stapi/OneDrive/Desktop/GD32VW553/V1_MQTT_OK/GD32VW55X_Wifi_BLE_SDK/GD32VW55x_RELEASE_V1.0.2/MSDK/wpa_supplicant/src/crypto\md5-internal.c **** 	unsigned char *p = (unsigned char *) ctx->in + t;
 1415              		.loc 1 146 8
 1416 0038 63040904 		beq	s2,zero,.L14
 1417              	.LBB3:
 147:C:/Users/stapi/OneDrive/Desktop/GD32VW553/V1_MQTT_OK/GD32VW55X_Wifi_BLE_SDK/GD32VW55x_RELEASE_V1.0.2/MSDK/wpa_supplicant/src/crypto\md5-internal.c **** 
 1418              		.loc 1 147 2 is_stmt 1
 149:C:/Users/stapi/OneDrive/Desktop/GD32VW553/V1_MQTT_OK/GD32VW55X_Wifi_BLE_SDK/GD32VW55x_RELEASE_V1.0.2/MSDK/wpa_supplicant/src/crypto\md5-internal.c **** 	if (len < t) {
 1419              		.loc 1 149 4 is_stmt 0
 1420 003c 930A0004 		li	s5,64
 1421 0040 B38A2A41 		sub	s5,s5,s2
 147:C:/Users/stapi/OneDrive/Desktop/GD32VW553/V1_MQTT_OK/GD32VW55X_Wifi_BLE_SDK/GD32VW55x_RELEASE_V1.0.2/MSDK/wpa_supplicant/src/crypto\md5-internal.c **** 
 1422              		.loc 1 147 17
 1423 0044 33052A01 		add	a0,s4,s2
 1424              	.LVL280:
 149:C:/Users/stapi/OneDrive/Desktop/GD32VW553/V1_MQTT_OK/GD32VW55X_Wifi_BLE_SDK/GD32VW55x_RELEASE_V1.0.2/MSDK/wpa_supplicant/src/crypto\md5-internal.c **** 	if (len < t) {
 1425              		.loc 1 149 2 is_stmt 1
 150:C:/Users/stapi/OneDrive/Desktop/GD32VW553/V1_MQTT_OK/GD32VW55X_Wifi_BLE_SDK/GD32VW55x_RELEASE_V1.0.2/MSDK/wpa_supplicant/src/crypto\md5-internal.c **** 	    os_memcpy(p, buf, len);
 1426              		.loc 1 150 2
 150:C:/Users/stapi/OneDrive/Desktop/GD32VW553/V1_MQTT_OK/GD32VW55X_Wifi_BLE_SDK/GD32VW55x_RELEASE_V1.0.2/MSDK/wpa_supplicant/src/crypto\md5-internal.c **** 	    os_memcpy(p, buf, len);
 1427              		.loc 1 150 5 is_stmt 0
 1428 0048 637C5401 		bgeu	s0,s5,.L15
 151:C:/Users/stapi/OneDrive/Desktop/GD32VW553/V1_MQTT_OK/GD32VW55X_Wifi_BLE_SDK/GD32VW55x_RELEASE_V1.0.2/MSDK/wpa_supplicant/src/crypto\md5-internal.c **** 	    return;
 1429              		.loc 1 151 6 is_stmt 1
 1430 004c 2286     		mv	a2,s0
 1431              	.LVL281:
 1432 004e CE85     		mv	a1,s3
 1433              	.LVL282:
 1434              	.L23:
 1435              	.LBE3:
 172:C:/Users/stapi/OneDrive/Desktop/GD32VW553/V1_MQTT_OK/GD32VW55X_Wifi_BLE_SDK/GD32VW55x_RELEASE_V1.0.2/MSDK/wpa_supplicant/src/crypto\md5-internal.c **** }
 1436              		.loc 1 172 5 is_stmt 0
 1437 0050 97000000 		call	os_memcpy
 1437      E7800000 
 1438              	.LVL283:
 173:C:/Users/stapi/OneDrive/Desktop/GD32VW553/V1_MQTT_OK/GD32VW55X_Wifi_BLE_SDK/GD32VW55x_RELEASE_V1.0.2/MSDK/wpa_supplicant/src/crypto\md5-internal.c **** 
 1439              		.loc 1 173 1
 1440 0058 17030000 		tail	__riscv_restore_7
 1440      67000300 
 1441              		.cfi_remember_state
 1442              		.cfi_restore 22
 1443              		.cfi_restore 21
 1444              		.cfi_restore 20
 1445              		.cfi_restore 19
 1446              		.cfi_restore 18
 1447              		.cfi_restore 9
 1448              		.cfi_restore 8
 1449              		.cfi_restore 1
 1450              		.cfi_def_cfa_offset 0
 1451              	.LVL284:
 1452              	.L15:
 1453              		.cfi_restore_state
 1454              	.LBB4:
 154:C:/Users/stapi/OneDrive/Desktop/GD32VW553/V1_MQTT_OK/GD32VW55X_Wifi_BLE_SDK/GD32VW55x_RELEASE_V1.0.2/MSDK/wpa_supplicant/src/crypto\md5-internal.c **** 	byteReverse(ctx->in, 16);
 1455              		.loc 1 154 2 is_stmt 1
 1456 0060 CE85     		mv	a1,s3
 1457              	.LVL285:
 1458 0062 5686     		mv	a2,s5
 1459 0064 97000000 		call	os_memcpy
 1459      E7800000 
 1460              	.LVL286:
 155:C:/Users/stapi/OneDrive/Desktop/GD32VW553/V1_MQTT_OK/GD32VW55X_Wifi_BLE_SDK/GD32VW55x_RELEASE_V1.0.2/MSDK/wpa_supplicant/src/crypto\md5-internal.c **** 	MD5Transform(ctx->buf, (u32 *) ctx->in);
 1461              		.loc 1 155 26
 156:C:/Users/stapi/OneDrive/Desktop/GD32VW553/V1_MQTT_OK/GD32VW55X_Wifi_BLE_SDK/GD32VW55x_RELEASE_V1.0.2/MSDK/wpa_supplicant/src/crypto\md5-internal.c **** 	buf += t;
 1462              		.loc 1 156 2
 1463 006c D285     		mv	a1,s4
 1464 006e 2685     		mv	a0,s1
 1465 0070 130404FC 		addi	s0,s0,-64
 1466              	.LVL287:
 1467 0074 97000000 		call	MD5Transform
 1467      E7800000 
 1468              	.LVL288:
 157:C:/Users/stapi/OneDrive/Desktop/GD32VW553/V1_MQTT_OK/GD32VW55X_Wifi_BLE_SDK/GD32VW55x_RELEASE_V1.0.2/MSDK/wpa_supplicant/src/crypto\md5-internal.c **** 	len -= t;
 1469              		.loc 1 157 2
 157:C:/Users/stapi/OneDrive/Desktop/GD32VW553/V1_MQTT_OK/GD32VW55X_Wifi_BLE_SDK/GD32VW55x_RELEASE_V1.0.2/MSDK/wpa_supplicant/src/crypto\md5-internal.c **** 	len -= t;
 1470              		.loc 1 157 6 is_stmt 0
 1471 007c D699     		add	s3,s3,s5
 1472              	.LVL289:
 158:C:/Users/stapi/OneDrive/Desktop/GD32VW553/V1_MQTT_OK/GD32VW55X_Wifi_BLE_SDK/GD32VW55x_RELEASE_V1.0.2/MSDK/wpa_supplicant/src/crypto\md5-internal.c ****     }
 1473              		.loc 1 158 2 is_stmt 1
 158:C:/Users/stapi/OneDrive/Desktop/GD32VW553/V1_MQTT_OK/GD32VW55X_Wifi_BLE_SDK/GD32VW55x_RELEASE_V1.0.2/MSDK/wpa_supplicant/src/crypto\md5-internal.c ****     }
 1474              		.loc 1 158 6 is_stmt 0
 1475 007e 4A94     		add	s0,s0,s2
 1476              	.LVL290:
 1477              	.L14:
 1478              	.LBE4:
 132:C:/Users/stapi/OneDrive/Desktop/GD32VW553/V1_MQTT_OK/GD32VW55X_Wifi_BLE_SDK/GD32VW55x_RELEASE_V1.0.2/MSDK/wpa_supplicant/src/crypto\md5-internal.c ****     u32 t;
 1479              		.loc 1 132 1
 1480 0080 2289     		mv	s2,s0
 1481 0082 338B8900 		add	s6,s3,s0
 162:C:/Users/stapi/OneDrive/Desktop/GD32VW553/V1_MQTT_OK/GD32VW55X_Wifi_BLE_SDK/GD32VW55x_RELEASE_V1.0.2/MSDK/wpa_supplicant/src/crypto\md5-internal.c **** 	os_memcpy(ctx->in, buf, 64);
 1482              		.loc 1 162 11
 1483 0086 930AF003 		li	s5,63
 1484              	.LVL291:
 1485              	.L17:
 1486 008a B3052B41 		sub	a1,s6,s2
 1487              	.LVL292:
 162:C:/Users/stapi/OneDrive/Desktop/GD32VW553/V1_MQTT_OK/GD32VW55X_Wifi_BLE_SDK/GD32VW55x_RELEASE_V1.0.2/MSDK/wpa_supplicant/src/crypto\md5-internal.c **** 	os_memcpy(ctx->in, buf, 64);
 1488              		.loc 1 162 11 is_stmt 1
 1489 008e 63EE2A01 		bgtu	s2,s5,.L18
 1490 0092 13576400 		srli	a4,s0,6
 172:C:/Users/stapi/OneDrive/Desktop/GD32VW553/V1_MQTT_OK/GD32VW55X_Wifi_BLE_SDK/GD32VW55x_RELEASE_V1.0.2/MSDK/wpa_supplicant/src/crypto\md5-internal.c **** }
 1491              		.loc 1 172 5
 1492 0096 937504FC 		andi	a1,s0,-64
 1493              	.LVL293:
 1494 009a 930700FC 		li	a5,-64
 1495 009e 2286     		mv	a2,s0
 1496 00a0 CE95     		add	a1,s3,a1
 1497 00a2 5285     		mv	a0,s4
 1498 00a4 7F16F7C4 		maddr32	a2, a4, a5
 1499 00a8 65B7     		j	.L23
 1500              	.LVL294:
 1501              	.L18:
 163:C:/Users/stapi/OneDrive/Desktop/GD32VW553/V1_MQTT_OK/GD32VW55X_Wifi_BLE_SDK/GD32VW55x_RELEASE_V1.0.2/MSDK/wpa_supplicant/src/crypto\md5-internal.c **** 	byteReverse(ctx->in, 16);
 1502              		.loc 1 163 2
 1503 00aa 13060004 		li	a2,64
 1504 00ae 5285     		mv	a0,s4
 1505 00b0 97000000 		call	os_memcpy
 1505      E7800000 
 1506              	.LVL295:
 164:C:/Users/stapi/OneDrive/Desktop/GD32VW553/V1_MQTT_OK/GD32VW55X_Wifi_BLE_SDK/GD32VW55x_RELEASE_V1.0.2/MSDK/wpa_supplicant/src/crypto\md5-internal.c **** 	MD5Transform(ctx->buf, (u32 *) ctx->in);
 1507              		.loc 1 164 26
 165:C:/Users/stapi/OneDrive/Desktop/GD32VW553/V1_MQTT_OK/GD32VW55X_Wifi_BLE_SDK/GD32VW55x_RELEASE_V1.0.2/MSDK/wpa_supplicant/src/crypto\md5-internal.c **** 	buf += 64;
 1508              		.loc 1 165 2
 1509 00b8 D285     		mv	a1,s4
 1510 00ba 2685     		mv	a0,s1
 1511 00bc 97000000 		call	MD5Transform
 1511      E7800000 
 1512              	.LVL296:
 166:C:/Users/stapi/OneDrive/Desktop/GD32VW553/V1_MQTT_OK/GD32VW55X_Wifi_BLE_SDK/GD32VW55x_RELEASE_V1.0.2/MSDK/wpa_supplicant/src/crypto\md5-internal.c **** 	len -= 64;
 1513              		.loc 1 166 2
 167:C:/Users/stapi/OneDrive/Desktop/GD32VW553/V1_MQTT_OK/GD32VW55X_Wifi_BLE_SDK/GD32VW55x_RELEASE_V1.0.2/MSDK/wpa_supplicant/src/crypto\md5-internal.c ****     }
 1514              		.loc 1 167 2
 167:C:/Users/stapi/OneDrive/Desktop/GD32VW553/V1_MQTT_OK/GD32VW55X_Wifi_BLE_SDK/GD32VW55x_RELEASE_V1.0.2/MSDK/wpa_supplicant/src/crypto\md5-internal.c ****     }
 1515              		.loc 1 167 6 is_stmt 0
 1516 00c4 130909FC 		addi	s2,s2,-64
 1517              	.LVL297:
 1518 00c8 C9B7     		j	.L17
 1519              		.cfi_endproc
 1520              	.LFE434:
 1522              		.section	.text.MD5Final,"ax",@progbits
 1523              		.align	1
 1524              		.globl	MD5Final
 1526              	MD5Final:
 1527              	.LFB435:
 180:C:/Users/stapi/OneDrive/Desktop/GD32VW553/V1_MQTT_OK/GD32VW55X_Wifi_BLE_SDK/GD32VW55x_RELEASE_V1.0.2/MSDK/wpa_supplicant/src/crypto\md5-internal.c ****     unsigned count;
 1528              		.loc 1 180 1 is_stmt 1
 1529              		.cfi_startproc
 1530              	.LVL298:
 1531 0000 17030000 		call	t0,__riscv_save_3
 1531      E7020300 
 1532              		.cfi_offset 18, -16
 1533              		.cfi_offset 9, -12
 1534              		.cfi_offset 8, -8
 1535              		.cfi_offset 1, -4
 1536              		.cfi_def_cfa_offset 16
 181:C:/Users/stapi/OneDrive/Desktop/GD32VW553/V1_MQTT_OK/GD32VW55X_Wifi_BLE_SDK/GD32VW55x_RELEASE_V1.0.2/MSDK/wpa_supplicant/src/crypto\md5-internal.c ****     unsigned char *p;
 1537              		.loc 1 181 5
 182:C:/Users/stapi/OneDrive/Desktop/GD32VW553/V1_MQTT_OK/GD32VW55X_Wifi_BLE_SDK/GD32VW55x_RELEASE_V1.0.2/MSDK/wpa_supplicant/src/crypto\md5-internal.c **** 
 1538              		.loc 1 182 5
 185:C:/Users/stapi/OneDrive/Desktop/GD32VW553/V1_MQTT_OK/GD32VW55X_Wifi_BLE_SDK/GD32VW55x_RELEASE_V1.0.2/MSDK/wpa_supplicant/src/crypto\md5-internal.c **** 
 1539              		.loc 1 185 5
 185:C:/Users/stapi/OneDrive/Desktop/GD32VW553/V1_MQTT_OK/GD32VW55X_Wifi_BLE_SDK/GD32VW55x_RELEASE_V1.0.2/MSDK/wpa_supplicant/src/crypto\md5-internal.c **** 
 1540              		.loc 1 185 27 is_stmt 0
 1541 0008 9C49     		lw	a5,16(a1)
 189:C:/Users/stapi/OneDrive/Desktop/GD32VW553/V1_MQTT_OK/GD32VW55X_Wifi_BLE_SDK/GD32VW55x_RELEASE_V1.0.2/MSDK/wpa_supplicant/src/crypto\md5-internal.c ****     *p++ = 0x80;
 1542              		.loc 1 189 9
 1543 000a 93848501 		addi	s1,a1,24
 190:C:/Users/stapi/OneDrive/Desktop/GD32VW553/V1_MQTT_OK/GD32VW55X_Wifi_BLE_SDK/GD32VW55x_RELEASE_V1.0.2/MSDK/wpa_supplicant/src/crypto\md5-internal.c **** 
 1544              		.loc 1 190 10
 1545 000e 930600F8 		li	a3,-128
 185:C:/Users/stapi/OneDrive/Desktop/GD32VW553/V1_MQTT_OK/GD32VW55X_Wifi_BLE_SDK/GD32VW55x_RELEASE_V1.0.2/MSDK/wpa_supplicant/src/crypto\md5-internal.c **** 
 1546              		.loc 1 185 27
 1547 0012 8D83     		srli	a5,a5,3
 185:C:/Users/stapi/OneDrive/Desktop/GD32VW553/V1_MQTT_OK/GD32VW55X_Wifi_BLE_SDK/GD32VW55x_RELEASE_V1.0.2/MSDK/wpa_supplicant/src/crypto\md5-internal.c **** 
 1548              		.loc 1 185 11
 1549 0014 93F7F703 		andi	a5,a5,63
 1550              	.LVL299:
 189:C:/Users/stapi/OneDrive/Desktop/GD32VW553/V1_MQTT_OK/GD32VW55X_Wifi_BLE_SDK/GD32VW55x_RELEASE_V1.0.2/MSDK/wpa_supplicant/src/crypto\md5-internal.c ****     *p++ = 0x80;
 1551              		.loc 1 189 5 is_stmt 1
 189:C:/Users/stapi/OneDrive/Desktop/GD32VW553/V1_MQTT_OK/GD32VW55X_Wifi_BLE_SDK/GD32VW55x_RELEASE_V1.0.2/MSDK/wpa_supplicant/src/crypto\md5-internal.c ****     *p++ = 0x80;
 1552              		.loc 1 189 7 is_stmt 0
 1553 0018 3387F400 		add	a4,s1,a5
 1554              	.LVL300:
 190:C:/Users/stapi/OneDrive/Desktop/GD32VW553/V1_MQTT_OK/GD32VW55X_Wifi_BLE_SDK/GD32VW55x_RELEASE_V1.0.2/MSDK/wpa_supplicant/src/crypto\md5-internal.c **** 
 1555              		.loc 1 190 5 is_stmt 1
 193:C:/Users/stapi/OneDrive/Desktop/GD32VW553/V1_MQTT_OK/GD32VW55X_Wifi_BLE_SDK/GD32VW55x_RELEASE_V1.0.2/MSDK/wpa_supplicant/src/crypto\md5-internal.c **** 
 1556              		.loc 1 193 11 is_stmt 0
 1557 001c 1306F003 		li	a2,63
 180:C:/Users/stapi/OneDrive/Desktop/GD32VW553/V1_MQTT_OK/GD32VW55X_Wifi_BLE_SDK/GD32VW55x_RELEASE_V1.0.2/MSDK/wpa_supplicant/src/crypto\md5-internal.c ****     unsigned count;
 1558              		.loc 1 180 1
 1559 0020 2A89     		mv	s2,a0
 190:C:/Users/stapi/OneDrive/Desktop/GD32VW553/V1_MQTT_OK/GD32VW55X_Wifi_BLE_SDK/GD32VW55x_RELEASE_V1.0.2/MSDK/wpa_supplicant/src/crypto\md5-internal.c **** 
 1560              		.loc 1 190 10
 1561 0022 2300D700 		sb	a3,0(a4)
 190:C:/Users/stapi/OneDrive/Desktop/GD32VW553/V1_MQTT_OK/GD32VW55X_Wifi_BLE_SDK/GD32VW55x_RELEASE_V1.0.2/MSDK/wpa_supplicant/src/crypto\md5-internal.c **** 
 1562              		.loc 1 190 7
 1563 0026 13051700 		addi	a0,a4,1
 1564              	.LVL301:
 193:C:/Users/stapi/OneDrive/Desktop/GD32VW553/V1_MQTT_OK/GD32VW55X_Wifi_BLE_SDK/GD32VW55x_RELEASE_V1.0.2/MSDK/wpa_supplicant/src/crypto\md5-internal.c **** 
 1565              		.loc 1 193 5 is_stmt 1
 193:C:/Users/stapi/OneDrive/Desktop/GD32VW553/V1_MQTT_OK/GD32VW55X_Wifi_BLE_SDK/GD32VW55x_RELEASE_V1.0.2/MSDK/wpa_supplicant/src/crypto\md5-internal.c **** 
 1566              		.loc 1 193 11 is_stmt 0
 1567 002a 1D8E     		sub	a2,a2,a5
 1568              	.LVL302:
 196:C:/Users/stapi/OneDrive/Desktop/GD32VW553/V1_MQTT_OK/GD32VW55X_Wifi_BLE_SDK/GD32VW55x_RELEASE_V1.0.2/MSDK/wpa_supplicant/src/crypto\md5-internal.c **** 	/* Two lots of padding:  Pad the first block to 64 bytes */
 1569              		.loc 1 196 5 is_stmt 1
 196:C:/Users/stapi/OneDrive/Desktop/GD32VW553/V1_MQTT_OK/GD32VW55X_Wifi_BLE_SDK/GD32VW55x_RELEASE_V1.0.2/MSDK/wpa_supplicant/src/crypto\md5-internal.c **** 	/* Two lots of padding:  Pad the first block to 64 bytes */
 1570              		.loc 1 196 8 is_stmt 0
 1571 002c 1D47     		li	a4,7
 180:C:/Users/stapi/OneDrive/Desktop/GD32VW553/V1_MQTT_OK/GD32VW55X_Wifi_BLE_SDK/GD32VW55x_RELEASE_V1.0.2/MSDK/wpa_supplicant/src/crypto\md5-internal.c ****     unsigned count;
 1572              		.loc 1 180 1
 1573 002e 2E84     		mv	s0,a1
 196:C:/Users/stapi/OneDrive/Desktop/GD32VW553/V1_MQTT_OK/GD32VW55X_Wifi_BLE_SDK/GD32VW55x_RELEASE_V1.0.2/MSDK/wpa_supplicant/src/crypto\md5-internal.c **** 	/* Two lots of padding:  Pad the first block to 64 bytes */
 1574              		.loc 1 196 8
 1575 0030 636CC706 		bgtu	a2,a4,.L25
 198:C:/Users/stapi/OneDrive/Desktop/GD32VW553/V1_MQTT_OK/GD32VW55X_Wifi_BLE_SDK/GD32VW55x_RELEASE_V1.0.2/MSDK/wpa_supplicant/src/crypto\md5-internal.c **** 	byteReverse(ctx->in, 16);
 1576              		.loc 1 198 2 is_stmt 1
 1577 0034 8145     		li	a1,0
 1578              	.LVL303:
 1579 0036 97000000 		call	os_memset
 1579      E7800000 
 1580              	.LVL304:
 199:C:/Users/stapi/OneDrive/Desktop/GD32VW553/V1_MQTT_OK/GD32VW55X_Wifi_BLE_SDK/GD32VW55x_RELEASE_V1.0.2/MSDK/wpa_supplicant/src/crypto\md5-internal.c **** 	MD5Transform(ctx->buf, (u32 *) ctx->in);
 1581              		.loc 1 199 26
 200:C:/Users/stapi/OneDrive/Desktop/GD32VW553/V1_MQTT_OK/GD32VW55X_Wifi_BLE_SDK/GD32VW55x_RELEASE_V1.0.2/MSDK/wpa_supplicant/src/crypto\md5-internal.c **** 
 1582              		.loc 1 200 2
 1583 003e A685     		mv	a1,s1
 1584 0040 2285     		mv	a0,s0
 1585 0042 97000000 		call	MD5Transform
 1585      E7800000 
 1586              	.LVL305:
 203:C:/Users/stapi/OneDrive/Desktop/GD32VW553/V1_MQTT_OK/GD32VW55X_Wifi_BLE_SDK/GD32VW55x_RELEASE_V1.0.2/MSDK/wpa_supplicant/src/crypto\md5-internal.c ****     } else {
 1587              		.loc 1 203 2
 1588 004a 13068003 		li	a2,56
 1589 004e 8145     		li	a1,0
 1590 0050 2685     		mv	a0,s1
 1591              	.L28:
 206:C:/Users/stapi/OneDrive/Desktop/GD32VW553/V1_MQTT_OK/GD32VW55X_Wifi_BLE_SDK/GD32VW55x_RELEASE_V1.0.2/MSDK/wpa_supplicant/src/crypto\md5-internal.c ****     }
 1592              		.loc 1 206 2 is_stmt 0
 1593 0052 97000000 		call	os_memset
 1593      E7800000 
 1594              	.LVL306:
 208:C:/Users/stapi/OneDrive/Desktop/GD32VW553/V1_MQTT_OK/GD32VW55X_Wifi_BLE_SDK/GD32VW55x_RELEASE_V1.0.2/MSDK/wpa_supplicant/src/crypto\md5-internal.c **** 
 1595              		.loc 1 208 29 is_stmt 1
 211:C:/Users/stapi/OneDrive/Desktop/GD32VW553/V1_MQTT_OK/GD32VW55X_Wifi_BLE_SDK/GD32VW55x_RELEASE_V1.0.2/MSDK/wpa_supplicant/src/crypto\md5-internal.c ****     ((u32 *) aliasing_hide_typecast(ctx->in, u32))[15] = ctx->bits[1];
 1596              		.loc 1 211 5
 211:C:/Users/stapi/OneDrive/Desktop/GD32VW553/V1_MQTT_OK/GD32VW55X_Wifi_BLE_SDK/GD32VW55x_RELEASE_V1.0.2/MSDK/wpa_supplicant/src/crypto\md5-internal.c ****     ((u32 *) aliasing_hide_typecast(ctx->in, u32))[15] = ctx->bits[1];
 1597              		.loc 1 211 14 is_stmt 0
 1598 005a 2685     		mv	a0,s1
 1599 005c 97000000 		call	__hide_aliasing_typecast
 1599      E7800000 
 1600              	.LVL307:
 211:C:/Users/stapi/OneDrive/Desktop/GD32VW553/V1_MQTT_OK/GD32VW55X_Wifi_BLE_SDK/GD32VW55x_RELEASE_V1.0.2/MSDK/wpa_supplicant/src/crypto\md5-internal.c ****     ((u32 *) aliasing_hide_typecast(ctx->in, u32))[15] = ctx->bits[1];
 1601              		.loc 1 211 67
 1602 0064 1C48     		lw	a5,16(s0)
 211:C:/Users/stapi/OneDrive/Desktop/GD32VW553/V1_MQTT_OK/GD32VW55X_Wifi_BLE_SDK/GD32VW55x_RELEASE_V1.0.2/MSDK/wpa_supplicant/src/crypto\md5-internal.c ****     ((u32 *) aliasing_hide_typecast(ctx->in, u32))[15] = ctx->bits[1];
 1603              		.loc 1 211 56
 1604 0066 1CDD     		sw	a5,56(a0)
 212:C:/Users/stapi/OneDrive/Desktop/GD32VW553/V1_MQTT_OK/GD32VW55X_Wifi_BLE_SDK/GD32VW55x_RELEASE_V1.0.2/MSDK/wpa_supplicant/src/crypto\md5-internal.c **** 
 1605              		.loc 1 212 5 is_stmt 1
 212:C:/Users/stapi/OneDrive/Desktop/GD32VW553/V1_MQTT_OK/GD32VW55X_Wifi_BLE_SDK/GD32VW55x_RELEASE_V1.0.2/MSDK/wpa_supplicant/src/crypto\md5-internal.c **** 
 1606              		.loc 1 212 14 is_stmt 0
 1607 0068 2685     		mv	a0,s1
 1608 006a 97000000 		call	__hide_aliasing_typecast
 1608      E7800000 
 1609              	.LVL308:
 212:C:/Users/stapi/OneDrive/Desktop/GD32VW553/V1_MQTT_OK/GD32VW55X_Wifi_BLE_SDK/GD32VW55x_RELEASE_V1.0.2/MSDK/wpa_supplicant/src/crypto\md5-internal.c **** 
 1610              		.loc 1 212 67
 1611 0072 5C48     		lw	a5,20(s0)
 214:C:/Users/stapi/OneDrive/Desktop/GD32VW553/V1_MQTT_OK/GD32VW55X_Wifi_BLE_SDK/GD32VW55x_RELEASE_V1.0.2/MSDK/wpa_supplicant/src/crypto\md5-internal.c ****     byteReverse((unsigned char *) ctx->buf, 4);
 1612              		.loc 1 214 5
 1613 0074 A685     		mv	a1,s1
 212:C:/Users/stapi/OneDrive/Desktop/GD32VW553/V1_MQTT_OK/GD32VW55X_Wifi_BLE_SDK/GD32VW55x_RELEASE_V1.0.2/MSDK/wpa_supplicant/src/crypto\md5-internal.c **** 
 1614              		.loc 1 212 56
 1615 0076 5CDD     		sw	a5,60(a0)
 214:C:/Users/stapi/OneDrive/Desktop/GD32VW553/V1_MQTT_OK/GD32VW55X_Wifi_BLE_SDK/GD32VW55x_RELEASE_V1.0.2/MSDK/wpa_supplicant/src/crypto\md5-internal.c ****     byteReverse((unsigned char *) ctx->buf, 4);
 1616              		.loc 1 214 5 is_stmt 1
 1617 0078 2285     		mv	a0,s0
 1618 007a 97000000 		call	MD5Transform
 1618      E7800000 
 1619              	.LVL309:
 215:C:/Users/stapi/OneDrive/Desktop/GD32VW553/V1_MQTT_OK/GD32VW55X_Wifi_BLE_SDK/GD32VW55x_RELEASE_V1.0.2/MSDK/wpa_supplicant/src/crypto\md5-internal.c ****     os_memcpy(digest, ctx->buf, 16);
 1620              		.loc 1 215 47
 216:C:/Users/stapi/OneDrive/Desktop/GD32VW553/V1_MQTT_OK/GD32VW55X_Wifi_BLE_SDK/GD32VW55x_RELEASE_V1.0.2/MSDK/wpa_supplicant/src/crypto\md5-internal.c ****     os_memset(ctx, 0, sizeof(*ctx));	/* In case it's sensitive */
 1621              		.loc 1 216 5
 1622 0082 A285     		mv	a1,s0
 1623 0084 4146     		li	a2,16
 1624 0086 4A85     		mv	a0,s2
 1625 0088 97000000 		call	os_memcpy
 1625      E7800000 
 1626              	.LVL310:
 217:C:/Users/stapi/OneDrive/Desktop/GD32VW553/V1_MQTT_OK/GD32VW55X_Wifi_BLE_SDK/GD32VW55x_RELEASE_V1.0.2/MSDK/wpa_supplicant/src/crypto\md5-internal.c **** }
 1627              		.loc 1 217 5
 1628 0090 13068005 		li	a2,88
 1629 0094 8145     		li	a1,0
 1630 0096 2285     		mv	a0,s0
 1631 0098 97000000 		call	os_memset
 1631      E7800000 
 1632              	.LVL311:
 218:C:/Users/stapi/OneDrive/Desktop/GD32VW553/V1_MQTT_OK/GD32VW55X_Wifi_BLE_SDK/GD32VW55x_RELEASE_V1.0.2/MSDK/wpa_supplicant/src/crypto\md5-internal.c **** 
 1633              		.loc 1 218 1 is_stmt 0
 1634 00a0 17030000 		tail	__riscv_restore_3
 1634      67000300 
 1635              		.cfi_remember_state
 1636              		.cfi_restore 18
 1637              		.cfi_restore 9
 1638              		.cfi_restore 8
 1639              		.cfi_restore 1
 1640              		.cfi_def_cfa_offset 0
 1641              	.LVL312:
 1642              	.L25:
 1643              		.cfi_restore_state
 206:C:/Users/stapi/OneDrive/Desktop/GD32VW553/V1_MQTT_OK/GD32VW55X_Wifi_BLE_SDK/GD32VW55x_RELEASE_V1.0.2/MSDK/wpa_supplicant/src/crypto\md5-internal.c ****     }
 1644              		.loc 1 206 2 is_stmt 1
 1645 00a8 13067003 		li	a2,55
 1646              	.LVL313:
 1647 00ac 1D8E     		sub	a2,a2,a5
 1648 00ae 8145     		li	a1,0
 1649 00b0 4DB7     		j	.L28
 1650              		.cfi_endproc
 1651              	.LFE435:
 1653              		.text
 1654              	.Letext0:
 1655              		.file 2 "c:\\users\\stapi\\onedrive\\desktop\\gd32vw553\\embeddedbuilder_v1.4.7.26843\\tools\\nucl
 1656              		.file 3 "c:\\users\\stapi\\onedrive\\desktop\\gd32vw553\\embeddedbuilder_v1.4.7.26843\\tools\\nucl
 1657              		.file 4 "c:\\users\\stapi\\onedrive\\desktop\\gd32vw553\\embeddedbuilder_v1.4.7.26843\\tools\\nucl
 1658              		.file 5 "..\\..\\..\\..\\wpa_supplicant\\src\\utils/common.h"
 1659              		.file 6 "C:/Users/stapi/OneDrive/Desktop/GD32VW553/V1_MQTT_OK/GD32VW55X_Wifi_BLE_SDK/GD32VW55x_REL
 1660              		.file 7 "..\\..\\..\\..\\wpa_supplicant\\src\\utils/os.h"
 1661              		.file 8 "..\\..\\..\\..\\macsw\\import/rtos_import.h"
 1662              		.file 9 "..\\..\\..\\..\\plf\\GD32VW55x_standard_peripheral\\Include/gd32vw55x_hau.h"
 1663              		.file 10 "..\\..\\..\\..\\plf\\riscv\\gd32vw55x/gd32vw55x.h"
DEFINED SYMBOLS
                            *ABS*:0000000000000000 md5-internal.c
C:\Users\stapi\AppData\Local\Temp\ccjHAWc4.s:12     .text.MD5Transform:0000000000000000 MD5Transform
C:\Users\stapi\AppData\Local\Temp\ccjHAWc4.s:16     .text.MD5Transform:0000000000000000 .L0 
C:\Users\stapi\AppData\Local\Temp\ccjHAWc4.s:18     .text.MD5Transform:0000000000000000 .L0 
C:\Users\stapi\AppData\Local\Temp\ccjHAWc4.s:19     .text.MD5Transform:0000000000000000 .L0 
C:\Users\stapi\AppData\Local\Temp\ccjHAWc4.s:20     .text.MD5Transform:0000000000000000 .L0 
C:\Users\stapi\AppData\Local\Temp\ccjHAWc4.s:21     .text.MD5Transform:0000000000000000 .L0 
C:\Users\stapi\AppData\Local\Temp\ccjHAWc4.s:22     .text.MD5Transform:0000000000000000 .L0 
C:\Users\stapi\AppData\Local\Temp\ccjHAWc4.s:23     .text.MD5Transform:0000000000000002 .L0 
C:\Users\stapi\AppData\Local\Temp\ccjHAWc4.s:25     .text.MD5Transform:0000000000000004 .L0 
C:\Users\stapi\AppData\Local\Temp\ccjHAWc4.s:27     .text.MD5Transform:0000000000000004 .L0 
C:\Users\stapi\AppData\Local\Temp\ccjHAWc4.s:29     .text.MD5Transform:0000000000000008 .L0 
C:\Users\stapi\AppData\Local\Temp\ccjHAWc4.s:31     .text.MD5Transform:000000000000000a .L0 
C:\Users\stapi\AppData\Local\Temp\ccjHAWc4.s:32     .text.MD5Transform:000000000000000c .L0 
C:\Users\stapi\AppData\Local\Temp\ccjHAWc4.s:34     .text.MD5Transform:000000000000000c .L0 
C:\Users\stapi\AppData\Local\Temp\ccjHAWc4.s:38     .text.MD5Transform:0000000000000016 .L0 
C:\Users\stapi\AppData\Local\Temp\ccjHAWc4.s:41     .text.MD5Transform:000000000000001a .L0 
C:\Users\stapi\AppData\Local\Temp\ccjHAWc4.s:42     .text.MD5Transform:000000000000001a .L0 
C:\Users\stapi\AppData\Local\Temp\ccjHAWc4.s:43     .text.MD5Transform:000000000000001a .L0 
C:\Users\stapi\AppData\Local\Temp\ccjHAWc4.s:46     .text.MD5Transform:0000000000000020 .L0 
C:\Users\stapi\AppData\Local\Temp\ccjHAWc4.s:48     .text.MD5Transform:0000000000000024 .L0 
C:\Users\stapi\AppData\Local\Temp\ccjHAWc4.s:50     .text.MD5Transform:0000000000000024 .L0 
C:\Users\stapi\AppData\Local\Temp\ccjHAWc4.s:52     .text.MD5Transform:0000000000000026 .L0 
C:\Users\stapi\AppData\Local\Temp\ccjHAWc4.s:58     .text.MD5Transform:0000000000000038 .L0 
C:\Users\stapi\AppData\Local\Temp\ccjHAWc4.s:60     .text.MD5Transform:000000000000003c .L0 
C:\Users\stapi\AppData\Local\Temp\ccjHAWc4.s:62     .text.MD5Transform:000000000000003c .L0 
C:\Users\stapi\AppData\Local\Temp\ccjHAWc4.s:71     .text.MD5Transform:000000000000004a .L0 
C:\Users\stapi\AppData\Local\Temp\ccjHAWc4.s:74     .text.MD5Transform:0000000000000050 .L0 
C:\Users\stapi\AppData\Local\Temp\ccjHAWc4.s:76     .text.MD5Transform:0000000000000054 .L0 
C:\Users\stapi\AppData\Local\Temp\ccjHAWc4.s:87     .text.MD5Transform:000000000000006e .L0 
C:\Users\stapi\AppData\Local\Temp\ccjHAWc4.s:89     .text.MD5Transform:0000000000000072 .L0 
C:\Users\stapi\AppData\Local\Temp\ccjHAWc4.s:92     .text.MD5Transform:0000000000000074 .L0 
C:\Users\stapi\AppData\Local\Temp\ccjHAWc4.s:94     .text.MD5Transform:0000000000000076 .L0 
C:\Users\stapi\AppData\Local\Temp\ccjHAWc4.s:96     .text.MD5Transform:0000000000000078 .L0 
C:\Users\stapi\AppData\Local\Temp\ccjHAWc4.s:97     .text.MD5Transform:000000000000007c .L0 
C:\Users\stapi\AppData\Local\Temp\ccjHAWc4.s:99     .text.MD5Transform:000000000000007c .L0 
C:\Users\stapi\AppData\Local\Temp\ccjHAWc4.s:101    .text.MD5Transform:0000000000000080 .L0 
C:\Users\stapi\AppData\Local\Temp\ccjHAWc4.s:110    .text.MD5Transform:0000000000000094 .L0 
C:\Users\stapi\AppData\Local\Temp\ccjHAWc4.s:112    .text.MD5Transform:0000000000000098 .L0 
C:\Users\stapi\AppData\Local\Temp\ccjHAWc4.s:115    .text.MD5Transform:000000000000009a .L0 
C:\Users\stapi\AppData\Local\Temp\ccjHAWc4.s:117    .text.MD5Transform:000000000000009c .L0 
C:\Users\stapi\AppData\Local\Temp\ccjHAWc4.s:119    .text.MD5Transform:00000000000000a0 .L0 
C:\Users\stapi\AppData\Local\Temp\ccjHAWc4.s:129    .text.MD5Transform:00000000000000b4 .L0 
C:\Users\stapi\AppData\Local\Temp\ccjHAWc4.s:132    .text.MD5Transform:00000000000000b8 .L0 
C:\Users\stapi\AppData\Local\Temp\ccjHAWc4.s:135    .text.MD5Transform:00000000000000ba .L0 
C:\Users\stapi\AppData\Local\Temp\ccjHAWc4.s:137    .text.MD5Transform:00000000000000bc .L0 
C:\Users\stapi\AppData\Local\Temp\ccjHAWc4.s:139    .text.MD5Transform:00000000000000be .L0 
C:\Users\stapi\AppData\Local\Temp\ccjHAWc4.s:140    .text.MD5Transform:00000000000000c0 .L0 
C:\Users\stapi\AppData\Local\Temp\ccjHAWc4.s:142    .text.MD5Transform:00000000000000c0 .L0 
C:\Users\stapi\AppData\Local\Temp\ccjHAWc4.s:144    .text.MD5Transform:00000000000000c4 .L0 
C:\Users\stapi\AppData\Local\Temp\ccjHAWc4.s:153    .text.MD5Transform:00000000000000d6 .L0 
C:\Users\stapi\AppData\Local\Temp\ccjHAWc4.s:156    .text.MD5Transform:00000000000000da .L0 
C:\Users\stapi\AppData\Local\Temp\ccjHAWc4.s:159    .text.MD5Transform:00000000000000dc .L0 
C:\Users\stapi\AppData\Local\Temp\ccjHAWc4.s:161    .text.MD5Transform:00000000000000de .L0 
C:\Users\stapi\AppData\Local\Temp\ccjHAWc4.s:163    .text.MD5Transform:00000000000000e2 .L0 
C:\Users\stapi\AppData\Local\Temp\ccjHAWc4.s:173    .text.MD5Transform:00000000000000f6 .L0 
C:\Users\stapi\AppData\Local\Temp\ccjHAWc4.s:176    .text.MD5Transform:00000000000000fa .L0 
C:\Users\stapi\AppData\Local\Temp\ccjHAWc4.s:179    .text.MD5Transform:00000000000000fc .L0 
C:\Users\stapi\AppData\Local\Temp\ccjHAWc4.s:181    .text.MD5Transform:00000000000000fe .L0 
C:\Users\stapi\AppData\Local\Temp\ccjHAWc4.s:183    .text.MD5Transform:0000000000000100 .L0 
C:\Users\stapi\AppData\Local\Temp\ccjHAWc4.s:184    .text.MD5Transform:0000000000000102 .L0 
C:\Users\stapi\AppData\Local\Temp\ccjHAWc4.s:186    .text.MD5Transform:0000000000000102 .L0 
C:\Users\stapi\AppData\Local\Temp\ccjHAWc4.s:188    .text.MD5Transform:0000000000000106 .L0 
C:\Users\stapi\AppData\Local\Temp\ccjHAWc4.s:194    .text.MD5Transform:0000000000000112 .L0 
C:\Users\stapi\AppData\Local\Temp\ccjHAWc4.s:197    .text.MD5Transform:0000000000000118 .L0 
C:\Users\stapi\AppData\Local\Temp\ccjHAWc4.s:200    .text.MD5Transform:000000000000011c .L0 
C:\Users\stapi\AppData\Local\Temp\ccjHAWc4.s:203    .text.MD5Transform:0000000000000120 .L0 
C:\Users\stapi\AppData\Local\Temp\ccjHAWc4.s:206    .text.MD5Transform:0000000000000122 .L0 
C:\Users\stapi\AppData\Local\Temp\ccjHAWc4.s:218    .text.MD5Transform:0000000000000138 .L0 
C:\Users\stapi\AppData\Local\Temp\ccjHAWc4.s:220    .text.MD5Transform:000000000000013c .L0 
C:\Users\stapi\AppData\Local\Temp\ccjHAWc4.s:223    .text.MD5Transform:000000000000013e .L0 
C:\Users\stapi\AppData\Local\Temp\ccjHAWc4.s:225    .text.MD5Transform:0000000000000142 .L0 
C:\Users\stapi\AppData\Local\Temp\ccjHAWc4.s:227    .text.MD5Transform:0000000000000146 .L0 
C:\Users\stapi\AppData\Local\Temp\ccjHAWc4.s:237    .text.MD5Transform:000000000000015c .L0 
C:\Users\stapi\AppData\Local\Temp\ccjHAWc4.s:240    .text.MD5Transform:0000000000000160 .L0 
C:\Users\stapi\AppData\Local\Temp\ccjHAWc4.s:243    .text.MD5Transform:0000000000000162 .L0 
C:\Users\stapi\AppData\Local\Temp\ccjHAWc4.s:245    .text.MD5Transform:0000000000000166 .L0 
C:\Users\stapi\AppData\Local\Temp\ccjHAWc4.s:247    .text.MD5Transform:0000000000000168 .L0 
C:\Users\stapi\AppData\Local\Temp\ccjHAWc4.s:248    .text.MD5Transform:000000000000016a .L0 
C:\Users\stapi\AppData\Local\Temp\ccjHAWc4.s:250    .text.MD5Transform:000000000000016a .L0 
C:\Users\stapi\AppData\Local\Temp\ccjHAWc4.s:252    .text.MD5Transform:000000000000016c .L0 
C:\Users\stapi\AppData\Local\Temp\ccjHAWc4.s:261    .text.MD5Transform:000000000000017c .L0 
C:\Users\stapi\AppData\Local\Temp\ccjHAWc4.s:264    .text.MD5Transform:0000000000000180 .L0 
C:\Users\stapi\AppData\Local\Temp\ccjHAWc4.s:267    .text.MD5Transform:0000000000000182 .L0 
C:\Users\stapi\AppData\Local\Temp\ccjHAWc4.s:269    .text.MD5Transform:0000000000000184 .L0 
C:\Users\stapi\AppData\Local\Temp\ccjHAWc4.s:271    .text.MD5Transform:0000000000000188 .L0 
C:\Users\stapi\AppData\Local\Temp\ccjHAWc4.s:278    .text.MD5Transform:0000000000000196 .L0 
C:\Users\stapi\AppData\Local\Temp\ccjHAWc4.s:280    .text.MD5Transform:000000000000019a .L0 
C:\Users\stapi\AppData\Local\Temp\ccjHAWc4.s:282    .text.MD5Transform:000000000000019a .L0 
C:\Users\stapi\AppData\Local\Temp\ccjHAWc4.s:284    .text.MD5Transform:000000000000019e .L0 
C:\Users\stapi\AppData\Local\Temp\ccjHAWc4.s:287    .text.MD5Transform:00000000000001a2 .L0 
C:\Users\stapi\AppData\Local\Temp\ccjHAWc4.s:292    .text.MD5Transform:00000000000001a8 .L0 
C:\Users\stapi\AppData\Local\Temp\ccjHAWc4.s:293    .text.MD5Transform:00000000000001a8 .L0 
C:\Users\stapi\AppData\Local\Temp\ccjHAWc4.s:295    .text.MD5Transform:00000000000001aa .L0 
C:\Users\stapi\AppData\Local\Temp\ccjHAWc4.s:296    .text.MD5Transform:00000000000001ac .L0 
C:\Users\stapi\AppData\Local\Temp\ccjHAWc4.s:308    .text.MD5Transform:00000000000001c2 .L0 
C:\Users\stapi\AppData\Local\Temp\ccjHAWc4.s:310    .text.MD5Transform:00000000000001c6 .L0 
C:\Users\stapi\AppData\Local\Temp\ccjHAWc4.s:313    .text.MD5Transform:00000000000001c8 .L0 
C:\Users\stapi\AppData\Local\Temp\ccjHAWc4.s:318    .text.MD5Transform:00000000000001d2 .L0 
C:\Users\stapi\AppData\Local\Temp\ccjHAWc4.s:325    .text.MD5Transform:00000000000001e2 .L0 
C:\Users\stapi\AppData\Local\Temp\ccjHAWc4.s:328    .text.MD5Transform:00000000000001e6 .L0 
C:\Users\stapi\AppData\Local\Temp\ccjHAWc4.s:330    .text.MD5Transform:00000000000001ea .L0 
C:\Users\stapi\AppData\Local\Temp\ccjHAWc4.s:333    .text.MD5Transform:00000000000001ec .L0 
C:\Users\stapi\AppData\Local\Temp\ccjHAWc4.s:335    .text.MD5Transform:00000000000001f0 .L0 
C:\Users\stapi\AppData\Local\Temp\ccjHAWc4.s:337    .text.MD5Transform:00000000000001f4 .L0 
C:\Users\stapi\AppData\Local\Temp\ccjHAWc4.s:347    .text.MD5Transform:0000000000000208 .L0 
C:\Users\stapi\AppData\Local\Temp\ccjHAWc4.s:350    .text.MD5Transform:000000000000020c .L0 
C:\Users\stapi\AppData\Local\Temp\ccjHAWc4.s:353    .text.MD5Transform:000000000000020e .L0 
C:\Users\stapi\AppData\Local\Temp\ccjHAWc4.s:355    .text.MD5Transform:0000000000000210 .L0 
C:\Users\stapi\AppData\Local\Temp\ccjHAWc4.s:357    .text.MD5Transform:0000000000000214 .L0 
C:\Users\stapi\AppData\Local\Temp\ccjHAWc4.s:367    .text.MD5Transform:0000000000000228 .L0 
C:\Users\stapi\AppData\Local\Temp\ccjHAWc4.s:370    .text.MD5Transform:000000000000022c .L0 
C:\Users\stapi\AppData\Local\Temp\ccjHAWc4.s:373    .text.MD5Transform:000000000000022e .L0 
C:\Users\stapi\AppData\Local\Temp\ccjHAWc4.s:386    .text.MD5Transform:0000000000000246 .L0 
C:\Users\stapi\AppData\Local\Temp\ccjHAWc4.s:393    .text.MD5Transform:0000000000000254 .L0 
C:\Users\stapi\AppData\Local\Temp\ccjHAWc4.s:395    .text.MD5Transform:0000000000000256 .L0 
C:\Users\stapi\AppData\Local\Temp\ccjHAWc4.s:397    .text.MD5Transform:0000000000000258 .L0 
C:\Users\stapi\AppData\Local\Temp\ccjHAWc4.s:406    .text.MD5Transform:0000000000000266 .L0 
C:\Users\stapi\AppData\Local\Temp\ccjHAWc4.s:415    .text.MD5Transform:0000000000000276 .L0 
C:\Users\stapi\AppData\Local\Temp\ccjHAWc4.s:416    .text.MD5Transform:0000000000000278 .L0 
C:\Users\stapi\AppData\Local\Temp\ccjHAWc4.s:419    .text.MD5Transform:000000000000027c .L0 
C:\Users\stapi\AppData\Local\Temp\ccjHAWc4.s:426    .text.MD5Transform:0000000000000286 .L0 
C:\Users\stapi\AppData\Local\Temp\ccjHAWc4.s:442    .text.MD5Transform:00000000000002a4 .L0 
C:\Users\stapi\AppData\Local\Temp\ccjHAWc4.s:457    .text.MD5Transform:00000000000002c0 .L0 
C:\Users\stapi\AppData\Local\Temp\ccjHAWc4.s:472    .text.MD5Transform:00000000000002dc .L0 
C:\Users\stapi\AppData\Local\Temp\ccjHAWc4.s:487    .text.MD5Transform:00000000000002f8 .L0 
C:\Users\stapi\AppData\Local\Temp\ccjHAWc4.s:502    .text.MD5Transform:0000000000000314 .L0 
C:\Users\stapi\AppData\Local\Temp\ccjHAWc4.s:517    .text.MD5Transform:0000000000000330 .L0 
C:\Users\stapi\AppData\Local\Temp\ccjHAWc4.s:532    .text.MD5Transform:000000000000034c .L0 
C:\Users\stapi\AppData\Local\Temp\ccjHAWc4.s:547    .text.MD5Transform:0000000000000368 .L0 
C:\Users\stapi\AppData\Local\Temp\ccjHAWc4.s:562    .text.MD5Transform:0000000000000384 .L0 
C:\Users\stapi\AppData\Local\Temp\ccjHAWc4.s:577    .text.MD5Transform:00000000000003a0 .L0 
C:\Users\stapi\AppData\Local\Temp\ccjHAWc4.s:592    .text.MD5Transform:00000000000003bc .L0 
C:\Users\stapi\AppData\Local\Temp\ccjHAWc4.s:606    .text.MD5Transform:00000000000003d6 .L0 
C:\Users\stapi\AppData\Local\Temp\ccjHAWc4.s:621    .text.MD5Transform:00000000000003f2 .L0 
C:\Users\stapi\AppData\Local\Temp\ccjHAWc4.s:637    .text.MD5Transform:0000000000000414 .L0 
C:\Users\stapi\AppData\Local\Temp\ccjHAWc4.s:651    .text.MD5Transform:000000000000042e .L0 
C:\Users\stapi\AppData\Local\Temp\ccjHAWc4.s:653    .text.MD5Transform:0000000000000432 .L0 
C:\Users\stapi\AppData\Local\Temp\ccjHAWc4.s:656    .text.MD5Transform:0000000000000434 .L0 
C:\Users\stapi\AppData\Local\Temp\ccjHAWc4.s:667    .text.MD5Transform:000000000000044a .L0 
C:\Users\stapi\AppData\Local\Temp\ccjHAWc4.s:670    .text.MD5Transform:000000000000044e .L0 
C:\Users\stapi\AppData\Local\Temp\ccjHAWc4.s:673    .text.MD5Transform:0000000000000450 .L0 
C:\Users\stapi\AppData\Local\Temp\ccjHAWc4.s:684    .text.MD5Transform:0000000000000468 .L0 
C:\Users\stapi\AppData\Local\Temp\ccjHAWc4.s:687    .text.MD5Transform:000000000000046c .L0 
C:\Users\stapi\AppData\Local\Temp\ccjHAWc4.s:690    .text.MD5Transform:000000000000046e .L0 
C:\Users\stapi\AppData\Local\Temp\ccjHAWc4.s:700    .text.MD5Transform:0000000000000484 .L0 
C:\Users\stapi\AppData\Local\Temp\ccjHAWc4.s:703    .text.MD5Transform:0000000000000488 .L0 
C:\Users\stapi\AppData\Local\Temp\ccjHAWc4.s:706    .text.MD5Transform:000000000000048a .L0 
C:\Users\stapi\AppData\Local\Temp\ccjHAWc4.s:716    .text.MD5Transform:000000000000049e .L0 
C:\Users\stapi\AppData\Local\Temp\ccjHAWc4.s:719    .text.MD5Transform:00000000000004a2 .L0 
C:\Users\stapi\AppData\Local\Temp\ccjHAWc4.s:722    .text.MD5Transform:00000000000004a4 .L0 
C:\Users\stapi\AppData\Local\Temp\ccjHAWc4.s:732    .text.MD5Transform:00000000000004b8 .L0 
C:\Users\stapi\AppData\Local\Temp\ccjHAWc4.s:735    .text.MD5Transform:00000000000004bc .L0 
C:\Users\stapi\AppData\Local\Temp\ccjHAWc4.s:738    .text.MD5Transform:00000000000004be .L0 
C:\Users\stapi\AppData\Local\Temp\ccjHAWc4.s:749    .text.MD5Transform:00000000000004d4 .L0 
C:\Users\stapi\AppData\Local\Temp\ccjHAWc4.s:751    .text.MD5Transform:00000000000004d8 .L0 
C:\Users\stapi\AppData\Local\Temp\ccjHAWc4.s:754    .text.MD5Transform:00000000000004da .L0 
C:\Users\stapi\AppData\Local\Temp\ccjHAWc4.s:765    .text.MD5Transform:00000000000004f0 .L0 
C:\Users\stapi\AppData\Local\Temp\ccjHAWc4.s:767    .text.MD5Transform:00000000000004f4 .L0 
C:\Users\stapi\AppData\Local\Temp\ccjHAWc4.s:770    .text.MD5Transform:00000000000004f6 .L0 
C:\Users\stapi\AppData\Local\Temp\ccjHAWc4.s:780    .text.MD5Transform:000000000000050c .L0 
C:\Users\stapi\AppData\Local\Temp\ccjHAWc4.s:783    .text.MD5Transform:0000000000000510 .L0 
C:\Users\stapi\AppData\Local\Temp\ccjHAWc4.s:786    .text.MD5Transform:0000000000000512 .L0 
C:\Users\stapi\AppData\Local\Temp\ccjHAWc4.s:796    .text.MD5Transform:0000000000000526 .L0 
C:\Users\stapi\AppData\Local\Temp\ccjHAWc4.s:799    .text.MD5Transform:000000000000052a .L0 
C:\Users\stapi\AppData\Local\Temp\ccjHAWc4.s:802    .text.MD5Transform:000000000000052c .L0 
C:\Users\stapi\AppData\Local\Temp\ccjHAWc4.s:813    .text.MD5Transform:0000000000000542 .L0 
C:\Users\stapi\AppData\Local\Temp\ccjHAWc4.s:815    .text.MD5Transform:0000000000000546 .L0 
C:\Users\stapi\AppData\Local\Temp\ccjHAWc4.s:818    .text.MD5Transform:0000000000000548 .L0 
C:\Users\stapi\AppData\Local\Temp\ccjHAWc4.s:828    .text.MD5Transform:000000000000055e .L0 
C:\Users\stapi\AppData\Local\Temp\ccjHAWc4.s:831    .text.MD5Transform:0000000000000562 .L0 
C:\Users\stapi\AppData\Local\Temp\ccjHAWc4.s:834    .text.MD5Transform:0000000000000564 .L0 
C:\Users\stapi\AppData\Local\Temp\ccjHAWc4.s:845    .text.MD5Transform:0000000000000578 .L0 
C:\Users\stapi\AppData\Local\Temp\ccjHAWc4.s:847    .text.MD5Transform:000000000000057c .L0 
C:\Users\stapi\AppData\Local\Temp\ccjHAWc4.s:850    .text.MD5Transform:0000000000000580 .L0 
C:\Users\stapi\AppData\Local\Temp\ccjHAWc4.s:860    .text.MD5Transform:0000000000000594 .L0 
C:\Users\stapi\AppData\Local\Temp\ccjHAWc4.s:863    .text.MD5Transform:0000000000000598 .L0 
C:\Users\stapi\AppData\Local\Temp\ccjHAWc4.s:866    .text.MD5Transform:000000000000059a .L0 
C:\Users\stapi\AppData\Local\Temp\ccjHAWc4.s:876    .text.MD5Transform:00000000000005b0 .L0 
C:\Users\stapi\AppData\Local\Temp\ccjHAWc4.s:879    .text.MD5Transform:00000000000005b4 .L0 
C:\Users\stapi\AppData\Local\Temp\ccjHAWc4.s:882    .text.MD5Transform:00000000000005b6 .L0 
C:\Users\stapi\AppData\Local\Temp\ccjHAWc4.s:893    .text.MD5Transform:00000000000005cc .L0 
C:\Users\stapi\AppData\Local\Temp\ccjHAWc4.s:908    .text.MD5Transform:00000000000005ea .L0 
C:\Users\stapi\AppData\Local\Temp\ccjHAWc4.s:923    .text.MD5Transform:0000000000000606 .L0 
C:\Users\stapi\AppData\Local\Temp\ccjHAWc4.s:938    .text.MD5Transform:0000000000000624 .L0 
C:\Users\stapi\AppData\Local\Temp\ccjHAWc4.s:952    .text.MD5Transform:0000000000000640 .L0 
C:\Users\stapi\AppData\Local\Temp\ccjHAWc4.s:966    .text.MD5Transform:000000000000065c .L0 
C:\Users\stapi\AppData\Local\Temp\ccjHAWc4.s:980    .text.MD5Transform:0000000000000676 .L0 
C:\Users\stapi\AppData\Local\Temp\ccjHAWc4.s:994    .text.MD5Transform:0000000000000692 .L0 
C:\Users\stapi\AppData\Local\Temp\ccjHAWc4.s:1008   .text.MD5Transform:00000000000006ac .L0 
C:\Users\stapi\AppData\Local\Temp\ccjHAWc4.s:1022   .text.MD5Transform:00000000000006c6 .L0 
C:\Users\stapi\AppData\Local\Temp\ccjHAWc4.s:1036   .text.MD5Transform:00000000000006e2 .L0 
C:\Users\stapi\AppData\Local\Temp\ccjHAWc4.s:1050   .text.MD5Transform:00000000000006fe .L0 
C:\Users\stapi\AppData\Local\Temp\ccjHAWc4.s:1064   .text.MD5Transform:000000000000071a .L0 
C:\Users\stapi\AppData\Local\Temp\ccjHAWc4.s:1077   .text.MD5Transform:0000000000000732 .L0 
C:\Users\stapi\AppData\Local\Temp\ccjHAWc4.s:1091   .text.MD5Transform:000000000000074e .L0 
C:\Users\stapi\AppData\Local\Temp\ccjHAWc4.s:1104   .text.MD5Transform:0000000000000768 .L0 
C:\Users\stapi\AppData\Local\Temp\ccjHAWc4.s:1106   .text.MD5Transform:000000000000076a .L0 
C:\Users\stapi\AppData\Local\Temp\ccjHAWc4.s:1109   .text.MD5Transform:000000000000076c .L0 
C:\Users\stapi\AppData\Local\Temp\ccjHAWc4.s:1113   .text.MD5Transform:0000000000000772 .L0 
C:\Users\stapi\AppData\Local\Temp\ccjHAWc4.s:1117   .text.MD5Transform:0000000000000776 .L0 
C:\Users\stapi\AppData\Local\Temp\ccjHAWc4.s:1119   .text.MD5Transform:0000000000000778 .L0 
C:\Users\stapi\AppData\Local\Temp\ccjHAWc4.s:1121   .text.MD5Transform:000000000000077c .L0 
C:\Users\stapi\AppData\Local\Temp\ccjHAWc4.s:1122   .text.MD5Transform:000000000000077e .L0 
C:\Users\stapi\AppData\Local\Temp\ccjHAWc4.s:1124   .text.MD5Transform:000000000000077e .L0 
C:\Users\stapi\AppData\Local\Temp\ccjHAWc4.s:1126   .text.MD5Transform:0000000000000780 .L0 
C:\Users\stapi\AppData\Local\Temp\ccjHAWc4.s:1129   .text.MD5Transform:0000000000000782 .L0 
C:\Users\stapi\AppData\Local\Temp\ccjHAWc4.s:1130   .text.MD5Transform:0000000000000782 .L0 
C:\Users\stapi\AppData\Local\Temp\ccjHAWc4.s:1131   .text.MD5Transform:0000000000000782 .L0 
C:\Users\stapi\AppData\Local\Temp\ccjHAWc4.s:1134   .text.MD5Transform:0000000000000784 .L0 
C:\Users\stapi\AppData\Local\Temp\ccjHAWc4.s:1137   .text.MD5Transform:0000000000000786 .L0 
C:\Users\stapi\AppData\Local\Temp\ccjHAWc4.s:1139   .text.MD5Transform:000000000000078a .L0 
C:\Users\stapi\AppData\Local\Temp\ccjHAWc4.s:1141   .text.MD5Transform:000000000000078c .L0 
C:\Users\stapi\AppData\Local\Temp\ccjHAWc4.s:1143   .text.MD5Transform:0000000000000790 .L0 
C:\Users\stapi\AppData\Local\Temp\ccjHAWc4.s:1145   .text.MD5Transform:0000000000000794 .L0 
C:\Users\stapi\AppData\Local\Temp\ccjHAWc4.s:1147   .text.MD5Transform:0000000000000798 .L0 
C:\Users\stapi\AppData\Local\Temp\ccjHAWc4.s:1148   .text.MD5Transform:0000000000000798 .L0 
C:\Users\stapi\AppData\Local\Temp\ccjHAWc4.s:1149   .text.MD5Transform:0000000000000798 .L0 
C:\Users\stapi\AppData\Local\Temp\ccjHAWc4.s:1150   .text.MD5Transform:000000000000079a .L0 
C:\Users\stapi\AppData\Local\Temp\ccjHAWc4.s:1152   .text.MD5Transform:000000000000079c .L0 
C:\Users\stapi\AppData\Local\Temp\ccjHAWc4.s:1154   .text.MD5Transform:000000000000079e .L0 
C:\Users\stapi\AppData\Local\Temp\ccjHAWc4.s:1156   .text.MD5Transform:00000000000007a0 .L0 
C:\Users\stapi\AppData\Local\Temp\ccjHAWc4.s:1158   .text.MD5Transform:00000000000007a2 .L0 
C:\Users\stapi\AppData\Local\Temp\ccjHAWc4.s:1160   .text.MD5Transform:00000000000007a4 .L0 
C:\Users\stapi\AppData\Local\Temp\ccjHAWc4.s:1162   .text.MD5Transform:00000000000007a6 .L0 
C:\Users\stapi\AppData\Local\Temp\ccjHAWc4.s:1164   .text.MD5Transform:00000000000007a8 .L0 
C:\Users\stapi\AppData\Local\Temp\ccjHAWc4.s:1166   .text.MD5Transform:00000000000007aa .L0 
C:\Users\stapi\AppData\Local\Temp\ccjHAWc4.s:1168   .text.MD5Transform:00000000000007ac .L0 
C:\Users\stapi\AppData\Local\Temp\ccjHAWc4.s:1170   .text.MD5Transform:00000000000007ae .L0 
C:\Users\stapi\AppData\Local\Temp\ccjHAWc4.s:1172   .text.MD5Transform:00000000000007b0 .L0 
C:\Users\stapi\AppData\Local\Temp\ccjHAWc4.s:1174   .text.MD5Transform:00000000000007b2 .L0 
C:\Users\stapi\AppData\Local\Temp\ccjHAWc4.s:1181   .text.md5_vector:0000000000000000 md5_vector
C:\Users\stapi\AppData\Local\Temp\ccjHAWc4.s:1184   .text.md5_vector:0000000000000000 .L0 
C:\Users\stapi\AppData\Local\Temp\ccjHAWc4.s:1186   .text.md5_vector:0000000000000000 .L0 
C:\Users\stapi\AppData\Local\Temp\ccjHAWc4.s:1187   .text.md5_vector:0000000000000008 .L0 
C:\Users\stapi\AppData\Local\Temp\ccjHAWc4.s:1188   .text.md5_vector:0000000000000008 .L0 
C:\Users\stapi\AppData\Local\Temp\ccjHAWc4.s:1189   .text.md5_vector:0000000000000008 .L0 
C:\Users\stapi\AppData\Local\Temp\ccjHAWc4.s:1190   .text.md5_vector:0000000000000008 .L0 
C:\Users\stapi\AppData\Local\Temp\ccjHAWc4.s:1191   .text.md5_vector:0000000000000008 .L0 
C:\Users\stapi\AppData\Local\Temp\ccjHAWc4.s:1192   .text.md5_vector:0000000000000008 .L0 
C:\Users\stapi\AppData\Local\Temp\ccjHAWc4.s:1193   .text.md5_vector:0000000000000008 .L0 
C:\Users\stapi\AppData\Local\Temp\ccjHAWc4.s:1194   .text.md5_vector:0000000000000008 .L0 
C:\Users\stapi\AppData\Local\Temp\ccjHAWc4.s:1195   .text.md5_vector:0000000000000008 .L0 
C:\Users\stapi\AppData\Local\Temp\ccjHAWc4.s:1196   .text.md5_vector:0000000000000008 .L0 
C:\Users\stapi\AppData\Local\Temp\ccjHAWc4.s:1199   .text.md5_vector:0000000000000008 .L0 
C:\Users\stapi\AppData\Local\Temp\ccjHAWc4.s:1200   .text.md5_vector:0000000000000008 .L0 
C:\Users\stapi\AppData\Local\Temp\ccjHAWc4.s:1201   .text.md5_vector:0000000000000008 .L0 
C:\Users\stapi\AppData\Local\Temp\ccjHAWc4.s:1202   .text.md5_vector:0000000000000008 .L0 
C:\Users\stapi\AppData\Local\Temp\ccjHAWc4.s:1203   .text.md5_vector:0000000000000008 .L0 
C:\Users\stapi\AppData\Local\Temp\ccjHAWc4.s:1204   .text.md5_vector:0000000000000008 .L0 
C:\Users\stapi\AppData\Local\Temp\ccjHAWc4.s:1209   .text.md5_vector:0000000000000010 .L0 
C:\Users\stapi\AppData\Local\Temp\ccjHAWc4.s:1211   .text.md5_vector:0000000000000012 .L0 
C:\Users\stapi\AppData\Local\Temp\ccjHAWc4.s:1215   .text.md5_vector:0000000000000014 .L0 
C:\Users\stapi\AppData\Local\Temp\ccjHAWc4.s:1216   .text.md5_vector:0000000000000014 .L0 
C:\Users\stapi\AppData\Local\Temp\ccjHAWc4.s:1218   .text.md5_vector:0000000000000018 .L0 
C:\Users\stapi\AppData\Local\Temp\ccjHAWc4.s:1219   .text.md5_vector:0000000000000018 .L0 
C:\Users\stapi\AppData\Local\Temp\ccjHAWc4.s:1224   .text.md5_vector:0000000000000022 .L0 
C:\Users\stapi\AppData\Local\Temp\ccjHAWc4.s:1225   .text.md5_vector:0000000000000022 .L0 
C:\Users\stapi\AppData\Local\Temp\ccjHAWc4.s:1227   .text.md5_vector:0000000000000024 .L0 
C:\Users\stapi\AppData\Local\Temp\ccjHAWc4.s:1232   .text.md5_vector:000000000000002a .L0 
C:\Users\stapi\AppData\Local\Temp\ccjHAWc4.s:1236   .text.md5_vector:000000000000002c .L0 
C:\Users\stapi\AppData\Local\Temp\ccjHAWc4.s:1237   .text.md5_vector:000000000000002c .L0 
C:\Users\stapi\AppData\Local\Temp\ccjHAWc4.s:1239   .text.md5_vector:0000000000000030 .L0 
C:\Users\stapi\AppData\Local\Temp\ccjHAWc4.s:1242   .text.md5_vector:0000000000000038 .L0 
C:\Users\stapi\AppData\Local\Temp\ccjHAWc4.s:1243   .text.md5_vector:0000000000000038 .L0 
C:\Users\stapi\AppData\Local\Temp\ccjHAWc4.s:1251   .text.md5_vector:0000000000000048 .L0 
C:\Users\stapi\AppData\Local\Temp\ccjHAWc4.s:1254   .text.md5_vector:0000000000000050 .L0 
C:\Users\stapi\AppData\Local\Temp\ccjHAWc4.s:1258   .text.md5_vector:000000000000005a .L0 
C:\Users\stapi\AppData\Local\Temp\ccjHAWc4.s:1259   .text.md5_vector:000000000000005a .L0 
C:\Users\stapi\AppData\Local\Temp\ccjHAWc4.s:1264   .text.md5_vector:0000000000000062 .L0 
C:\Users\stapi\AppData\Local\Temp\ccjHAWc4.s:1265   .text.md5_vector:000000000000006a .L0 
C:\Users\stapi\AppData\Local\Temp\ccjHAWc4.s:1266   .text.md5_vector:000000000000006a .L0 
C:\Users\stapi\AppData\Local\Temp\ccjHAWc4.s:1267   .text.md5_vector:000000000000006a .L0 
C:\Users\stapi\AppData\Local\Temp\ccjHAWc4.s:1268   .text.md5_vector:000000000000006a .L0 
C:\Users\stapi\AppData\Local\Temp\ccjHAWc4.s:1269   .text.md5_vector:000000000000006a .L0 
C:\Users\stapi\AppData\Local\Temp\ccjHAWc4.s:1270   .text.md5_vector:000000000000006a .L0 
C:\Users\stapi\AppData\Local\Temp\ccjHAWc4.s:1271   .text.md5_vector:000000000000006a .L0 
C:\Users\stapi\AppData\Local\Temp\ccjHAWc4.s:1272   .text.md5_vector:000000000000006a .L0 
C:\Users\stapi\AppData\Local\Temp\ccjHAWc4.s:1273   .text.md5_vector:000000000000006a .L0 
C:\Users\stapi\AppData\Local\Temp\ccjHAWc4.s:1274   .text.md5_vector:000000000000006a .L0 
C:\Users\stapi\AppData\Local\Temp\ccjHAWc4.s:1275   .text.md5_vector:000000000000006a .L0 
C:\Users\stapi\AppData\Local\Temp\ccjHAWc4.s:1278   .text.md5_vector:000000000000006a .L0 
C:\Users\stapi\AppData\Local\Temp\ccjHAWc4.s:1280   .text.md5_vector:000000000000006a .L0 
C:\Users\stapi\AppData\Local\Temp\ccjHAWc4.s:1281   .text.md5_vector:000000000000006a .L0 
C:\Users\stapi\AppData\Local\Temp\ccjHAWc4.s:1283   .text.md5_vector:000000000000006e .L0 
C:\Users\stapi\AppData\Local\Temp\ccjHAWc4.s:1285   .text.md5_vector:0000000000000070 .L0 
C:\Users\stapi\AppData\Local\Temp\ccjHAWc4.s:1288   .text.md5_vector:0000000000000072 .L0 
C:\Users\stapi\AppData\Local\Temp\ccjHAWc4.s:1291   .text.md5_vector:0000000000000074 .L0 
C:\Users\stapi\AppData\Local\Temp\ccjHAWc4.s:1295   .text.md5_vector:0000000000000076 .L0 
C:\Users\stapi\AppData\Local\Temp\ccjHAWc4.s:1304   .text.md5_vector:0000000000000092 .L0 
C:\Users\stapi\AppData\Local\Temp\ccjHAWc4.s:1305   .text.md5_vector:0000000000000092 .L0 
C:\Users\stapi\AppData\Local\Temp\ccjHAWc4.s:1309   .text.md5_vector:0000000000000098 .L0 
C:\Users\stapi\AppData\Local\Temp\ccjHAWc4.s:1310   .text.md5_vector:000000000000009a .L0 
C:\Users\stapi\AppData\Local\Temp\ccjHAWc4.s:1317   .text.MD5Init:0000000000000000 MD5Init
C:\Users\stapi\AppData\Local\Temp\ccjHAWc4.s:1320   .text.MD5Init:0000000000000000 .L0 
C:\Users\stapi\AppData\Local\Temp\ccjHAWc4.s:1322   .text.MD5Init:0000000000000000 .L0 
C:\Users\stapi\AppData\Local\Temp\ccjHAWc4.s:1323   .text.MD5Init:0000000000000000 .L0 
C:\Users\stapi\AppData\Local\Temp\ccjHAWc4.s:1324   .text.MD5Init:0000000000000000 .L0 
C:\Users\stapi\AppData\Local\Temp\ccjHAWc4.s:1328   .text.MD5Init:000000000000000a .L0 
C:\Users\stapi\AppData\Local\Temp\ccjHAWc4.s:1329   .text.MD5Init:000000000000000a .L0 
C:\Users\stapi\AppData\Local\Temp\ccjHAWc4.s:1333   .text.MD5Init:0000000000000014 .L0 
C:\Users\stapi\AppData\Local\Temp\ccjHAWc4.s:1334   .text.MD5Init:0000000000000014 .L0 
C:\Users\stapi\AppData\Local\Temp\ccjHAWc4.s:1338   .text.MD5Init:000000000000001e .L0 
C:\Users\stapi\AppData\Local\Temp\ccjHAWc4.s:1339   .text.MD5Init:000000000000001e .L0 
C:\Users\stapi\AppData\Local\Temp\ccjHAWc4.s:1343   .text.MD5Init:0000000000000028 .L0 
C:\Users\stapi\AppData\Local\Temp\ccjHAWc4.s:1344   .text.MD5Init:0000000000000028 .L0 
C:\Users\stapi\AppData\Local\Temp\ccjHAWc4.s:1346   .text.MD5Init:000000000000002c .L0 
C:\Users\stapi\AppData\Local\Temp\ccjHAWc4.s:1347   .text.MD5Init:000000000000002c .L0 
C:\Users\stapi\AppData\Local\Temp\ccjHAWc4.s:1349   .text.MD5Init:0000000000000030 .L0 
C:\Users\stapi\AppData\Local\Temp\ccjHAWc4.s:1350   .text.MD5Init:0000000000000032 .L0 
C:\Users\stapi\AppData\Local\Temp\ccjHAWc4.s:1357   .text.MD5Update:0000000000000000 MD5Update
C:\Users\stapi\AppData\Local\Temp\ccjHAWc4.s:1360   .text.MD5Update:0000000000000000 .L0 
C:\Users\stapi\AppData\Local\Temp\ccjHAWc4.s:1362   .text.MD5Update:0000000000000000 .L0 
C:\Users\stapi\AppData\Local\Temp\ccjHAWc4.s:1363   .text.MD5Update:0000000000000008 .L0 
C:\Users\stapi\AppData\Local\Temp\ccjHAWc4.s:1364   .text.MD5Update:0000000000000008 .L0 
C:\Users\stapi\AppData\Local\Temp\ccjHAWc4.s:1365   .text.MD5Update:0000000000000008 .L0 
C:\Users\stapi\AppData\Local\Temp\ccjHAWc4.s:1366   .text.MD5Update:0000000000000008 .L0 
C:\Users\stapi\AppData\Local\Temp\ccjHAWc4.s:1367   .text.MD5Update:0000000000000008 .L0 
C:\Users\stapi\AppData\Local\Temp\ccjHAWc4.s:1368   .text.MD5Update:0000000000000008 .L0 
C:\Users\stapi\AppData\Local\Temp\ccjHAWc4.s:1369   .text.MD5Update:0000000000000008 .L0 
C:\Users\stapi\AppData\Local\Temp\ccjHAWc4.s:1370   .text.MD5Update:0000000000000008 .L0 
C:\Users\stapi\AppData\Local\Temp\ccjHAWc4.s:1371   .text.MD5Update:0000000000000008 .L0 
C:\Users\stapi\AppData\Local\Temp\ccjHAWc4.s:1373   .text.MD5Update:0000000000000008 .L0 
C:\Users\stapi\AppData\Local\Temp\ccjHAWc4.s:1374   .text.MD5Update:0000000000000008 .L0 
C:\Users\stapi\AppData\Local\Temp\ccjHAWc4.s:1375   .text.MD5Update:0000000000000008 .L0 
C:\Users\stapi\AppData\Local\Temp\ccjHAWc4.s:1378   .text.MD5Update:000000000000000c .L0 
C:\Users\stapi\AppData\Local\Temp\ccjHAWc4.s:1379   .text.MD5Update:000000000000000c .L0 
C:\Users\stapi\AppData\Local\Temp\ccjHAWc4.s:1382   .text.MD5Update:0000000000000010 .L0 
C:\Users\stapi\AppData\Local\Temp\ccjHAWc4.s:1384   .text.MD5Update:0000000000000014 .L0 
C:\Users\stapi\AppData\Local\Temp\ccjHAWc4.s:1386   .text.MD5Update:0000000000000016 .L0 
C:\Users\stapi\AppData\Local\Temp\ccjHAWc4.s:1388   .text.MD5Update:0000000000000018 .L0 
C:\Users\stapi\AppData\Local\Temp\ccjHAWc4.s:1390   .text.MD5Update:000000000000001c .L0 
C:\Users\stapi\AppData\Local\Temp\ccjHAWc4.s:1391   .text.MD5Update:000000000000001c .L0 
C:\Users\stapi\AppData\Local\Temp\ccjHAWc4.s:1396   .text.MD5Update:0000000000000022 .L0 
C:\Users\stapi\AppData\Local\Temp\ccjHAWc4.s:1397   .text.MD5Update:0000000000000022 .L0 
C:\Users\stapi\AppData\Local\Temp\ccjHAWc4.s:1399   .text.MD5Update:0000000000000024 .L0 
C:\Users\stapi\AppData\Local\Temp\ccjHAWc4.s:1401   .text.MD5Update:0000000000000028 .L0 
C:\Users\stapi\AppData\Local\Temp\ccjHAWc4.s:1404   .text.MD5Update:000000000000002c .L0 
C:\Users\stapi\AppData\Local\Temp\ccjHAWc4.s:1407   .text.MD5Update:0000000000000030 .L0 
C:\Users\stapi\AppData\Local\Temp\ccjHAWc4.s:1408   .text.MD5Update:0000000000000030 .L0 
C:\Users\stapi\AppData\Local\Temp\ccjHAWc4.s:1412   .text.MD5Update:0000000000000034 .L0 
C:\Users\stapi\AppData\Local\Temp\ccjHAWc4.s:1413   .text.MD5Update:0000000000000034 .L0 
C:\Users\stapi\AppData\Local\Temp\ccjHAWc4.s:1416   .text.MD5Update:0000000000000038 .L0 
C:\Users\stapi\AppData\Local\Temp\ccjHAWc4.s:1419   .text.MD5Update:000000000000003c .L0 
C:\Users\stapi\AppData\Local\Temp\ccjHAWc4.s:1420   .text.MD5Update:000000000000003c .L0 
C:\Users\stapi\AppData\Local\Temp\ccjHAWc4.s:1423   .text.MD5Update:0000000000000044 .L0 
C:\Users\stapi\AppData\Local\Temp\ccjHAWc4.s:1426   .text.MD5Update:0000000000000048 .L0 
C:\Users\stapi\AppData\Local\Temp\ccjHAWc4.s:1427   .text.MD5Update:0000000000000048 .L0 
C:\Users\stapi\AppData\Local\Temp\ccjHAWc4.s:1428   .text.MD5Update:0000000000000048 .L0 
C:\Users\stapi\AppData\Local\Temp\ccjHAWc4.s:1430   .text.MD5Update:000000000000004c .L0 
C:\Users\stapi\AppData\Local\Temp\ccjHAWc4.s:1437   .text.MD5Update:0000000000000050 .L0 
C:\Users\stapi\AppData\Local\Temp\ccjHAWc4.s:1440   .text.MD5Update:0000000000000058 .L0 
C:\Users\stapi\AppData\Local\Temp\ccjHAWc4.s:1441   .text.MD5Update:0000000000000060 .L0 
C:\Users\stapi\AppData\Local\Temp\ccjHAWc4.s:1442   .text.MD5Update:0000000000000060 .L0 
C:\Users\stapi\AppData\Local\Temp\ccjHAWc4.s:1443   .text.MD5Update:0000000000000060 .L0 
C:\Users\stapi\AppData\Local\Temp\ccjHAWc4.s:1444   .text.MD5Update:0000000000000060 .L0 
C:\Users\stapi\AppData\Local\Temp\ccjHAWc4.s:1445   .text.MD5Update:0000000000000060 .L0 
C:\Users\stapi\AppData\Local\Temp\ccjHAWc4.s:1446   .text.MD5Update:0000000000000060 .L0 
C:\Users\stapi\AppData\Local\Temp\ccjHAWc4.s:1447   .text.MD5Update:0000000000000060 .L0 
C:\Users\stapi\AppData\Local\Temp\ccjHAWc4.s:1448   .text.MD5Update:0000000000000060 .L0 
C:\Users\stapi\AppData\Local\Temp\ccjHAWc4.s:1449   .text.MD5Update:0000000000000060 .L0 
C:\Users\stapi\AppData\Local\Temp\ccjHAWc4.s:1450   .text.MD5Update:0000000000000060 .L0 
C:\Users\stapi\AppData\Local\Temp\ccjHAWc4.s:1453   .text.MD5Update:0000000000000060 .L0 
C:\Users\stapi\AppData\Local\Temp\ccjHAWc4.s:1456   .text.MD5Update:0000000000000060 .L0 
C:\Users\stapi\AppData\Local\Temp\ccjHAWc4.s:1462   .text.MD5Update:000000000000006c .L0 
C:\Users\stapi\AppData\Local\Temp\ccjHAWc4.s:1463   .text.MD5Update:000000000000006c .L0 
C:\Users\stapi\AppData\Local\Temp\ccjHAWc4.s:1470   .text.MD5Update:000000000000007c .L0 
C:\Users\stapi\AppData\Local\Temp\ccjHAWc4.s:1471   .text.MD5Update:000000000000007c .L0 
C:\Users\stapi\AppData\Local\Temp\ccjHAWc4.s:1474   .text.MD5Update:000000000000007e .L0 
C:\Users\stapi\AppData\Local\Temp\ccjHAWc4.s:1475   .text.MD5Update:000000000000007e .L0 
C:\Users\stapi\AppData\Local\Temp\ccjHAWc4.s:1480   .text.MD5Update:0000000000000080 .L0 
C:\Users\stapi\AppData\Local\Temp\ccjHAWc4.s:1483   .text.MD5Update:0000000000000086 .L0 
C:\Users\stapi\AppData\Local\Temp\ccjHAWc4.s:1489   .text.MD5Update:000000000000008e .L0 
C:\Users\stapi\AppData\Local\Temp\ccjHAWc4.s:1492   .text.MD5Update:0000000000000096 .L0 
C:\Users\stapi\AppData\Local\Temp\ccjHAWc4.s:1503   .text.MD5Update:00000000000000aa .L0 
C:\Users\stapi\AppData\Local\Temp\ccjHAWc4.s:1508   .text.MD5Update:00000000000000b8 .L0 
C:\Users\stapi\AppData\Local\Temp\ccjHAWc4.s:1509   .text.MD5Update:00000000000000b8 .L0 
C:\Users\stapi\AppData\Local\Temp\ccjHAWc4.s:1514   .text.MD5Update:00000000000000c4 .L0 
C:\Users\stapi\AppData\Local\Temp\ccjHAWc4.s:1515   .text.MD5Update:00000000000000c4 .L0 
C:\Users\stapi\AppData\Local\Temp\ccjHAWc4.s:1516   .text.MD5Update:00000000000000c4 .L0 
C:\Users\stapi\AppData\Local\Temp\ccjHAWc4.s:1519   .text.MD5Update:00000000000000ca .L0 
C:\Users\stapi\AppData\Local\Temp\ccjHAWc4.s:1526   .text.MD5Final:0000000000000000 MD5Final
C:\Users\stapi\AppData\Local\Temp\ccjHAWc4.s:1529   .text.MD5Final:0000000000000000 .L0 
C:\Users\stapi\AppData\Local\Temp\ccjHAWc4.s:1531   .text.MD5Final:0000000000000000 .L0 
C:\Users\stapi\AppData\Local\Temp\ccjHAWc4.s:1532   .text.MD5Final:0000000000000008 .L0 
C:\Users\stapi\AppData\Local\Temp\ccjHAWc4.s:1533   .text.MD5Final:0000000000000008 .L0 
C:\Users\stapi\AppData\Local\Temp\ccjHAWc4.s:1534   .text.MD5Final:0000000000000008 .L0 
C:\Users\stapi\AppData\Local\Temp\ccjHAWc4.s:1535   .text.MD5Final:0000000000000008 .L0 
C:\Users\stapi\AppData\Local\Temp\ccjHAWc4.s:1536   .text.MD5Final:0000000000000008 .L0 
C:\Users\stapi\AppData\Local\Temp\ccjHAWc4.s:1538   .text.MD5Final:0000000000000008 .L0 
C:\Users\stapi\AppData\Local\Temp\ccjHAWc4.s:1539   .text.MD5Final:0000000000000008 .L0 
C:\Users\stapi\AppData\Local\Temp\ccjHAWc4.s:1540   .text.MD5Final:0000000000000008 .L0 
C:\Users\stapi\AppData\Local\Temp\ccjHAWc4.s:1541   .text.MD5Final:0000000000000008 .L0 
C:\Users\stapi\AppData\Local\Temp\ccjHAWc4.s:1543   .text.MD5Final:000000000000000a .L0 
C:\Users\stapi\AppData\Local\Temp\ccjHAWc4.s:1545   .text.MD5Final:000000000000000e .L0 
C:\Users\stapi\AppData\Local\Temp\ccjHAWc4.s:1547   .text.MD5Final:0000000000000012 .L0 
C:\Users\stapi\AppData\Local\Temp\ccjHAWc4.s:1549   .text.MD5Final:0000000000000014 .L0 
C:\Users\stapi\AppData\Local\Temp\ccjHAWc4.s:1552   .text.MD5Final:0000000000000018 .L0 
C:\Users\stapi\AppData\Local\Temp\ccjHAWc4.s:1553   .text.MD5Final:0000000000000018 .L0 
C:\Users\stapi\AppData\Local\Temp\ccjHAWc4.s:1556   .text.MD5Final:000000000000001c .L0 
C:\Users\stapi\AppData\Local\Temp\ccjHAWc4.s:1557   .text.MD5Final:000000000000001c .L0 
C:\Users\stapi\AppData\Local\Temp\ccjHAWc4.s:1559   .text.MD5Final:0000000000000020 .L0 
C:\Users\stapi\AppData\Local\Temp\ccjHAWc4.s:1561   .text.MD5Final:0000000000000022 .L0 
C:\Users\stapi\AppData\Local\Temp\ccjHAWc4.s:1563   .text.MD5Final:0000000000000026 .L0 
C:\Users\stapi\AppData\Local\Temp\ccjHAWc4.s:1566   .text.MD5Final:000000000000002a .L0 
C:\Users\stapi\AppData\Local\Temp\ccjHAWc4.s:1567   .text.MD5Final:000000000000002a .L0 
C:\Users\stapi\AppData\Local\Temp\ccjHAWc4.s:1570   .text.MD5Final:000000000000002c .L0 
C:\Users\stapi\AppData\Local\Temp\ccjHAWc4.s:1571   .text.MD5Final:000000000000002c .L0 
C:\Users\stapi\AppData\Local\Temp\ccjHAWc4.s:1573   .text.MD5Final:000000000000002e .L0 
C:\Users\stapi\AppData\Local\Temp\ccjHAWc4.s:1575   .text.MD5Final:0000000000000030 .L0 
C:\Users\stapi\AppData\Local\Temp\ccjHAWc4.s:1577   .text.MD5Final:0000000000000034 .L0 
C:\Users\stapi\AppData\Local\Temp\ccjHAWc4.s:1582   .text.MD5Final:000000000000003e .L0 
C:\Users\stapi\AppData\Local\Temp\ccjHAWc4.s:1583   .text.MD5Final:000000000000003e .L0 
C:\Users\stapi\AppData\Local\Temp\ccjHAWc4.s:1588   .text.MD5Final:000000000000004a .L0 
C:\Users\stapi\AppData\Local\Temp\ccjHAWc4.s:1593   .text.MD5Final:0000000000000052 .L0 
C:\Users\stapi\AppData\Local\Temp\ccjHAWc4.s:1596   .text.MD5Final:000000000000005a .L0 
C:\Users\stapi\AppData\Local\Temp\ccjHAWc4.s:1597   .text.MD5Final:000000000000005a .L0 
C:\Users\stapi\AppData\Local\Temp\ccjHAWc4.s:1598   .text.MD5Final:000000000000005a .L0 
C:\Users\stapi\AppData\Local\Temp\ccjHAWc4.s:1602   .text.MD5Final:0000000000000064 .L0 
C:\Users\stapi\AppData\Local\Temp\ccjHAWc4.s:1604   .text.MD5Final:0000000000000066 .L0 
C:\Users\stapi\AppData\Local\Temp\ccjHAWc4.s:1606   .text.MD5Final:0000000000000068 .L0 
C:\Users\stapi\AppData\Local\Temp\ccjHAWc4.s:1607   .text.MD5Final:0000000000000068 .L0 
C:\Users\stapi\AppData\Local\Temp\ccjHAWc4.s:1611   .text.MD5Final:0000000000000072 .L0 
C:\Users\stapi\AppData\Local\Temp\ccjHAWc4.s:1613   .text.MD5Final:0000000000000074 .L0 
C:\Users\stapi\AppData\Local\Temp\ccjHAWc4.s:1615   .text.MD5Final:0000000000000076 .L0 
C:\Users\stapi\AppData\Local\Temp\ccjHAWc4.s:1617   .text.MD5Final:0000000000000078 .L0 
C:\Users\stapi\AppData\Local\Temp\ccjHAWc4.s:1621   .text.MD5Final:0000000000000082 .L0 
C:\Users\stapi\AppData\Local\Temp\ccjHAWc4.s:1622   .text.MD5Final:0000000000000082 .L0 
C:\Users\stapi\AppData\Local\Temp\ccjHAWc4.s:1628   .text.MD5Final:0000000000000090 .L0 
C:\Users\stapi\AppData\Local\Temp\ccjHAWc4.s:1634   .text.MD5Final:00000000000000a0 .L0 
C:\Users\stapi\AppData\Local\Temp\ccjHAWc4.s:1635   .text.MD5Final:00000000000000a8 .L0 
C:\Users\stapi\AppData\Local\Temp\ccjHAWc4.s:1636   .text.MD5Final:00000000000000a8 .L0 
C:\Users\stapi\AppData\Local\Temp\ccjHAWc4.s:1637   .text.MD5Final:00000000000000a8 .L0 
C:\Users\stapi\AppData\Local\Temp\ccjHAWc4.s:1638   .text.MD5Final:00000000000000a8 .L0 
C:\Users\stapi\AppData\Local\Temp\ccjHAWc4.s:1639   .text.MD5Final:00000000000000a8 .L0 
C:\Users\stapi\AppData\Local\Temp\ccjHAWc4.s:1640   .text.MD5Final:00000000000000a8 .L0 
C:\Users\stapi\AppData\Local\Temp\ccjHAWc4.s:1643   .text.MD5Final:00000000000000a8 .L0 
C:\Users\stapi\AppData\Local\Temp\ccjHAWc4.s:1645   .text.MD5Final:00000000000000a8 .L0 
C:\Users\stapi\AppData\Local\Temp\ccjHAWc4.s:1650   .text.MD5Final:00000000000000b2 .L0 
C:\Users\stapi\AppData\Local\Temp\ccjHAWc4.s:1177   .text.MD5Transform:00000000000007b2 .L0 
C:\Users\stapi\AppData\Local\Temp\ccjHAWc4.s:1313   .text.md5_vector:000000000000009a .L0 
C:\Users\stapi\AppData\Local\Temp\ccjHAWc4.s:1353   .text.MD5Init:0000000000000032 .L0 
C:\Users\stapi\AppData\Local\Temp\ccjHAWc4.s:1522   .text.MD5Update:00000000000000ca .L0 
C:\Users\stapi\AppData\Local\Temp\ccjHAWc4.s:1653   .text.MD5Final:00000000000000b2 .L0 
                     .debug_frame:0000000000000000 .L0 
C:\Users\stapi\AppData\Local\Temp\ccjHAWc4.s:1277   .text.md5_vector:000000000000006a .L5
C:\Users\stapi\AppData\Local\Temp\ccjHAWc4.s:1262   .text.md5_vector:0000000000000062 .L3
C:\Users\stapi\AppData\Local\Temp\ccjHAWc4.s:1293   .text.md5_vector:0000000000000076 .L8
C:\Users\stapi\AppData\Local\Temp\ccjHAWc4.s:1213   .text.md5_vector:0000000000000014 .L4
C:\Users\stapi\AppData\Local\Temp\ccjHAWc4.s:1233   .text.md5_vector:000000000000002c .L7
C:\Users\stapi\AppData\Local\Temp\ccjHAWc4.s:1394   .text.MD5Update:0000000000000022 .L13
C:\Users\stapi\AppData\Local\Temp\ccjHAWc4.s:1477   .text.MD5Update:0000000000000080 .L14
C:\Users\stapi\AppData\Local\Temp\ccjHAWc4.s:1452   .text.MD5Update:0000000000000060 .L15
C:\Users\stapi\AppData\Local\Temp\ccjHAWc4.s:1501   .text.MD5Update:00000000000000aa .L18
C:\Users\stapi\AppData\Local\Temp\ccjHAWc4.s:1434   .text.MD5Update:0000000000000050 .L23
C:\Users\stapi\AppData\Local\Temp\ccjHAWc4.s:1485   .text.MD5Update:000000000000008a .L17
C:\Users\stapi\AppData\Local\Temp\ccjHAWc4.s:1642   .text.MD5Final:00000000000000a8 .L25
C:\Users\stapi\AppData\Local\Temp\ccjHAWc4.s:1591   .text.MD5Final:0000000000000052 .L28
C:\Users\stapi\AppData\Local\Temp\ccjHAWc4.s:2388   .debug_abbrev:0000000000000000 .Ldebug_abbrev0
C:\Users\stapi\AppData\Local\Temp\ccjHAWc4.s:3801   .debug_str:00000000000001b0 .LASF36
C:\Users\stapi\AppData\Local\Temp\ccjHAWc4.s:3799   .debug_str:000000000000011d .LASF37
C:\Users\stapi\AppData\Local\Temp\ccjHAWc4.s:3771   .debug_str:0000000000000000 .LASF38
C:\Users\stapi\AppData\Local\Temp\ccjHAWc4.s:3747   .debug_ranges:0000000000000000 .Ldebug_ranges0
C:\Users\stapi\AppData\Local\Temp\ccjHAWc4.s:3769   .debug_line:0000000000000000 .Ldebug_line0
C:\Users\stapi\AppData\Local\Temp\ccjHAWc4.s:3775   .debug_str:000000000000009c .LASF2
C:\Users\stapi\AppData\Local\Temp\ccjHAWc4.s:3819   .debug_str:000000000000030d .LASF0
C:\Users\stapi\AppData\Local\Temp\ccjHAWc4.s:3791   .debug_str:00000000000000f5 .LASF1
C:\Users\stapi\AppData\Local\Temp\ccjHAWc4.s:3773   .debug_str:0000000000000092 .LASF3
C:\Users\stapi\AppData\Local\Temp\ccjHAWc4.s:3793   .debug_str:0000000000000101 .LASF4
C:\Users\stapi\AppData\Local\Temp\ccjHAWc4.s:3785   .debug_str:00000000000000cf .LASF5
C:\Users\stapi\AppData\Local\Temp\ccjHAWc4.s:3783   .debug_str:00000000000000bc .LASF6
C:\Users\stapi\AppData\Local\Temp\ccjHAWc4.s:3781   .debug_str:00000000000000b3 .LASF7
C:\Users\stapi\AppData\Local\Temp\ccjHAWc4.s:3813   .debug_str:00000000000002dc .LASF8
C:\Users\stapi\AppData\Local\Temp\ccjHAWc4.s:3809   .debug_str:00000000000002bf .LASF9
C:\Users\stapi\AppData\Local\Temp\ccjHAWc4.s:3833   .debug_str:000000000000034f .LASF10
C:\Users\stapi\AppData\Local\Temp\ccjHAWc4.s:3853   .debug_str:00000000000003b0 .LASF11
C:\Users\stapi\AppData\Local\Temp\ccjHAWc4.s:3825   .debug_str:000000000000032d .LASF12
C:\Users\stapi\AppData\Local\Temp\ccjHAWc4.s:3827   .debug_str:0000000000000332 .LASF13
C:\Users\stapi\AppData\Local\Temp\ccjHAWc4.s:3805   .debug_str:00000000000002ae .LASF14
C:\Users\stapi\AppData\Local\Temp\ccjHAWc4.s:3849   .debug_str:00000000000003a4 .LASF15
C:\Users\stapi\AppData\Local\Temp\ccjHAWc4.s:3795   .debug_str:000000000000010f .LASF16
C:\Users\stapi\AppData\Local\Temp\ccjHAWc4.s:3851   .debug_str:00000000000003aa .LASF17
C:\Users\stapi\AppData\Local\Temp\ccjHAWc4.s:3845   .debug_str:0000000000000392 .LASF39
C:\Users\stapi\AppData\Local\Temp\ccjHAWc4.s:3837   .debug_str:0000000000000367 .LASF18
C:\Users\stapi\AppData\Local\Temp\ccjHAWc4.s:3817   .debug_str:0000000000000300 .LASF40
C:\Users\stapi\AppData\Local\Temp\ccjHAWc4.s:13     .text.MD5Transform:0000000000000000 .LFB436
C:\Users\stapi\AppData\Local\Temp\ccjHAWc4.s:1175   .text.MD5Transform:00000000000007b2 .LFE436
C:\Users\stapi\AppData\Local\Temp\ccjHAWc4.s:2827   .debug_loc:0000000000000000 .LLST0
C:\Users\stapi\AppData\Local\Temp\ccjHAWc4.s:2841   .debug_loc:0000000000000021 .LLST1
C:\Users\stapi\AppData\Local\Temp\ccjHAWc4.s:2969   .debug_loc:000000000000013c .LLST2
C:\Users\stapi\AppData\Local\Temp\ccjHAWc4.s:3059   .debug_loc:0000000000000219 .LLST3
C:\Users\stapi\AppData\Local\Temp\ccjHAWc4.s:3146   .debug_loc:0000000000000308 .LLST4
C:\Users\stapi\AppData\Local\Temp\ccjHAWc4.s:3823   .debug_str:0000000000000324 .LASF21
C:\Users\stapi\AppData\Local\Temp\ccjHAWc4.s:1527   .text.MD5Final:0000000000000000 .LFB435
C:\Users\stapi\AppData\Local\Temp\ccjHAWc4.s:1651   .text.MD5Final:00000000000000b2 .LFE435
C:\Users\stapi\AppData\Local\Temp\ccjHAWc4.s:3847   .debug_str:000000000000039d .LASF19
C:\Users\stapi\AppData\Local\Temp\ccjHAWc4.s:3355   .debug_loc:0000000000000488 .LLST18
C:\Users\stapi\AppData\Local\Temp\ccjHAWc4.s:3366   .debug_loc:00000000000004a6 .LLST19
C:\Users\stapi\AppData\Local\Temp\ccjHAWc4.s:3779   .debug_str:00000000000000ad .LASF20
C:\Users\stapi\AppData\Local\Temp\ccjHAWc4.s:3377   .debug_loc:00000000000004c4 .LLST20
C:\Users\stapi\AppData\Local\Temp\ccjHAWc4.s:3401   .debug_loc:00000000000004fd .LLST21
C:\Users\stapi\AppData\Local\Temp\ccjHAWc4.s:1580   .text.MD5Final:000000000000003e .LVL304
C:\Users\stapi\AppData\Local\Temp\ccjHAWc4.s:1586   .text.MD5Final:000000000000004a .LVL305
C:\Users\stapi\AppData\Local\Temp\ccjHAWc4.s:1594   .text.MD5Final:000000000000005a .LVL306
C:\Users\stapi\AppData\Local\Temp\ccjHAWc4.s:1600   .text.MD5Final:0000000000000064 .LVL307
C:\Users\stapi\AppData\Local\Temp\ccjHAWc4.s:1609   .text.MD5Final:0000000000000072 .LVL308
C:\Users\stapi\AppData\Local\Temp\ccjHAWc4.s:1619   .text.MD5Final:0000000000000082 .LVL309
C:\Users\stapi\AppData\Local\Temp\ccjHAWc4.s:1626   .text.MD5Final:0000000000000090 .LVL310
C:\Users\stapi\AppData\Local\Temp\ccjHAWc4.s:1632   .text.MD5Final:00000000000000a0 .LVL311
C:\Users\stapi\AppData\Local\Temp\ccjHAWc4.s:3839   .debug_str:000000000000036c .LASF22
C:\Users\stapi\AppData\Local\Temp\ccjHAWc4.s:1358   .text.MD5Update:0000000000000000 .LFB434
C:\Users\stapi\AppData\Local\Temp\ccjHAWc4.s:1520   .text.MD5Update:00000000000000ca .LFE434
C:\Users\stapi\AppData\Local\Temp\ccjHAWc4.s:3416   .debug_loc:0000000000000526 .LLST13
C:\Users\stapi\AppData\Local\Temp\ccjHAWc4.s:3427   .debug_loc:0000000000000544 .LLST14
C:\Users\stapi\AppData\Local\Temp\ccjHAWc4.s:3494   .debug_loc:00000000000005cb .LLST15
C:\Users\stapi\AppData\Local\Temp\ccjHAWc4.s:3523   .debug_loc:0000000000000618 .LLST16
C:\Users\stapi\AppData\Local\Temp\ccjHAWc4.s:3542   .debug_loc:000000000000064c .LLST17
C:\Users\stapi\AppData\Local\Temp\ccjHAWc4.s:1460   .text.MD5Update:000000000000006c .LVL286
C:\Users\stapi\AppData\Local\Temp\ccjHAWc4.s:1468   .text.MD5Update:000000000000007c .LVL288
C:\Users\stapi\AppData\Local\Temp\ccjHAWc4.s:1438   .text.MD5Update:0000000000000058 .LVL283
C:\Users\stapi\AppData\Local\Temp\ccjHAWc4.s:1506   .text.MD5Update:00000000000000b8 .LVL295
C:\Users\stapi\AppData\Local\Temp\ccjHAWc4.s:1512   .text.MD5Update:00000000000000c4 .LVL296
C:\Users\stapi\AppData\Local\Temp\ccjHAWc4.s:3807   .debug_str:00000000000002b7 .LASF23
C:\Users\stapi\AppData\Local\Temp\ccjHAWc4.s:1318   .text.MD5Init:0000000000000000 .LFB433
C:\Users\stapi\AppData\Local\Temp\ccjHAWc4.s:1351   .text.MD5Init:0000000000000032 .LFE433
C:\Users\stapi\AppData\Local\Temp\ccjHAWc4.s:3811   .debug_str:00000000000002d1 .LASF41
C:\Users\stapi\AppData\Local\Temp\ccjHAWc4.s:1182   .text.md5_vector:0000000000000000 .LFB432
C:\Users\stapi\AppData\Local\Temp\ccjHAWc4.s:1311   .text.md5_vector:000000000000009a .LFE432
C:\Users\stapi\AppData\Local\Temp\ccjHAWc4.s:3841   .debug_str:0000000000000376 .LASF24
C:\Users\stapi\AppData\Local\Temp\ccjHAWc4.s:3562   .debug_loc:000000000000067a .LLST5
C:\Users\stapi\AppData\Local\Temp\ccjHAWc4.s:3803   .debug_str:00000000000002a9 .LASF25
C:\Users\stapi\AppData\Local\Temp\ccjHAWc4.s:3591   .debug_loc:00000000000006bf .LLST6
C:\Users\stapi\AppData\Local\Temp\ccjHAWc4.s:3610   .debug_loc:00000000000006f3 .LLST7
C:\Users\stapi\AppData\Local\Temp\ccjHAWc4.s:3629   .debug_loc:0000000000000727 .LLST8
C:\Users\stapi\AppData\Local\Temp\ccjHAWc4.s:3797   .debug_str:0000000000000117 .LASF26
C:\Users\stapi\AppData\Local\Temp\ccjHAWc4.s:3648   .debug_loc:000000000000075b .LLST9
C:\Users\stapi\AppData\Local\Temp\ccjHAWc4.s:3821   .debug_str:000000000000031a .LASF27
C:\Users\stapi\AppData\Local\Temp\ccjHAWc4.s:3669   .debug_loc:0000000000000791 .LLST10
C:\Users\stapi\AppData\Local\Temp\ccjHAWc4.s:3693   .debug_loc:00000000000007d1 .LLST11
C:\Users\stapi\AppData\Local\Temp\ccjHAWc4.s:3719   .debug_loc:0000000000000813 .LLST12
C:\Users\stapi\AppData\Local\Temp\ccjHAWc4.s:1220   .text.md5_vector:0000000000000020 .LVL259
C:\Users\stapi\AppData\Local\Temp\ccjHAWc4.s:1240   .text.md5_vector:0000000000000038 .LVL263
C:\Users\stapi\AppData\Local\Temp\ccjHAWc4.s:1247   .text.md5_vector:0000000000000046 .LVL264
C:\Users\stapi\AppData\Local\Temp\ccjHAWc4.s:1252   .text.md5_vector:0000000000000050 .LVL266
C:\Users\stapi\AppData\Local\Temp\ccjHAWc4.s:1256   .text.md5_vector:000000000000005a .LVL267
C:\Users\stapi\AppData\Local\Temp\ccjHAWc4.s:1302   .text.md5_vector:0000000000000092 .LVL273
C:\Users\stapi\AppData\Local\Temp\ccjHAWc4.s:3835   .debug_str:000000000000035d .LASF28
C:\Users\stapi\AppData\Local\Temp\ccjHAWc4.s:3815   .debug_str:00000000000002e7 .LASF29
C:\Users\stapi\AppData\Local\Temp\ccjHAWc4.s:3777   .debug_str:00000000000000a3 .LASF30
C:\Users\stapi\AppData\Local\Temp\ccjHAWc4.s:3789   .debug_str:00000000000000eb .LASF31
C:\Users\stapi\AppData\Local\Temp\ccjHAWc4.s:3843   .debug_str:000000000000037f .LASF32
C:\Users\stapi\AppData\Local\Temp\ccjHAWc4.s:3829   .debug_str:000000000000033a .LASF33
C:\Users\stapi\AppData\Local\Temp\ccjHAWc4.s:3787   .debug_str:00000000000000d9 .LASF34
C:\Users\stapi\AppData\Local\Temp\ccjHAWc4.s:3831   .debug_str:0000000000000347 .LASF35
C:\Users\stapi\AppData\Local\Temp\ccjHAWc4.s:17     .text.MD5Transform:0000000000000000 .LVL0
C:\Users\stapi\AppData\Local\Temp\ccjHAWc4.s:376    .text.MD5Transform:0000000000000238 .LVL59
C:\Users\stapi\AppData\Local\Temp\ccjHAWc4.s:64     .text.MD5Transform:0000000000000040 .LVL2
C:\Users\stapi\AppData\Local\Temp\ccjHAWc4.s:130    .text.MD5Transform:00000000000000b8 .LVL13
C:\Users\stapi\AppData\Local\Temp\ccjHAWc4.s:145    .text.MD5Transform:00000000000000c6 .LVL15
C:\Users\stapi\AppData\Local\Temp\ccjHAWc4.s:214    .text.MD5Transform:0000000000000134 .LVL28
C:\Users\stapi\AppData\Local\Temp\ccjHAWc4.s:229    .text.MD5Transform:000000000000014c .LVL31
C:\Users\stapi\AppData\Local\Temp\ccjHAWc4.s:304    .text.MD5Transform:00000000000001be .LVL44
C:\Users\stapi\AppData\Local\Temp\ccjHAWc4.s:316    .text.MD5Transform:00000000000001d2 .LVL47
C:\Users\stapi\AppData\Local\Temp\ccjHAWc4.s:387    .text.MD5Transform:0000000000000248 .LVL63
C:\Users\stapi\AppData\Local\Temp\ccjHAWc4.s:396    .text.MD5Transform:0000000000000258 .LVL64
C:\Users\stapi\AppData\Local\Temp\ccjHAWc4.s:459    .text.MD5Transform:00000000000002c6 .LVL79
C:\Users\stapi\AppData\Local\Temp\ccjHAWc4.s:463    .text.MD5Transform:00000000000002cc .LVL80
C:\Users\stapi\AppData\Local\Temp\ccjHAWc4.s:519    .text.MD5Transform:0000000000000336 .LVL95
C:\Users\stapi\AppData\Local\Temp\ccjHAWc4.s:523    .text.MD5Transform:000000000000033c .LVL96
C:\Users\stapi\AppData\Local\Temp\ccjHAWc4.s:578    .text.MD5Transform:00000000000003a2 .LVL111
C:\Users\stapi\AppData\Local\Temp\ccjHAWc4.s:583    .text.MD5Transform:00000000000003ac .LVL112
C:\Users\stapi\AppData\Local\Temp\ccjHAWc4.s:639    .text.MD5Transform:000000000000041a .LVL127
C:\Users\stapi\AppData\Local\Temp\ccjHAWc4.s:644    .text.MD5Transform:0000000000000426 .LVL128
C:\Users\stapi\AppData\Local\Temp\ccjHAWc4.s:701    .text.MD5Transform:0000000000000488 .LVL142
C:\Users\stapi\AppData\Local\Temp\ccjHAWc4.s:708    .text.MD5Transform:000000000000048e .LVL144
C:\Users\stapi\AppData\Local\Temp\ccjHAWc4.s:761    .text.MD5Transform:00000000000004ec .LVL157
C:\Users\stapi\AppData\Local\Temp\ccjHAWc4.s:772    .text.MD5Transform:00000000000004fc .LVL160
C:\Users\stapi\AppData\Local\Temp\ccjHAWc4.s:829    .text.MD5Transform:0000000000000562 .LVL174
C:\Users\stapi\AppData\Local\Temp\ccjHAWc4.s:836    .text.MD5Transform:0000000000000568 .LVL176
C:\Users\stapi\AppData\Local\Temp\ccjHAWc4.s:848    .text.MD5Transform:0000000000000580 .LVL179
C:\Users\stapi\AppData\Local\Temp\ccjHAWc4.s:894    .text.MD5Transform:00000000000005ce .LVL191
C:\Users\stapi\AppData\Local\Temp\ccjHAWc4.s:900    .text.MD5Transform:00000000000005de .LVL192
C:\Users\stapi\AppData\Local\Temp\ccjHAWc4.s:953    .text.MD5Transform:0000000000000642 .LVL207
C:\Users\stapi\AppData\Local\Temp\ccjHAWc4.s:957    .text.MD5Transform:000000000000064c .LVL208
C:\Users\stapi\AppData\Local\Temp\ccjHAWc4.s:1010   .text.MD5Transform:00000000000006b2 .LVL223
C:\Users\stapi\AppData\Local\Temp\ccjHAWc4.s:1014   .text.MD5Transform:00000000000006ba .LVL224
C:\Users\stapi\AppData\Local\Temp\ccjHAWc4.s:1018   .text.MD5Transform:00000000000006c4 .LVL225
C:\Users\stapi\AppData\Local\Temp\ccjHAWc4.s:1066   .text.MD5Transform:0000000000000720 .LVL239
C:\Users\stapi\AppData\Local\Temp\ccjHAWc4.s:1069   .text.MD5Transform:0000000000000724 .LVL240
C:\Users\stapi\AppData\Local\Temp\ccjHAWc4.s:1071   .text.MD5Transform:0000000000000728 .LVL241
C:\Users\stapi\AppData\Local\Temp\ccjHAWc4.s:1114   .text.MD5Transform:0000000000000774 .LVL252
C:\Users\stapi\AppData\Local\Temp\ccjHAWc4.s:39     .text.MD5Transform:000000000000001a .LVL1
C:\Users\stapi\AppData\Local\Temp\ccjHAWc4.s:121    .text.MD5Transform:00000000000000a4 .LVL11
C:\Users\stapi\AppData\Local\Temp\ccjHAWc4.s:201    .text.MD5Transform:0000000000000120 .LVL25
C:\Users\stapi\AppData\Local\Temp\ccjHAWc4.s:212    .text.MD5Transform:0000000000000132 .LVL27
C:\Users\stapi\AppData\Local\Temp\ccjHAWc4.s:285    .text.MD5Transform:00000000000001a2 .LVL40
C:\Users\stapi\AppData\Local\Temp\ccjHAWc4.s:302    .text.MD5Transform:00000000000001bc .LVL43
C:\Users\stapi\AppData\Local\Temp\ccjHAWc4.s:368    .text.MD5Transform:000000000000022c .LVL57
C:\Users\stapi\AppData\Local\Temp\ccjHAWc4.s:378    .text.MD5Transform:000000000000023a .LVL60
C:\Users\stapi\AppData\Local\Temp\ccjHAWc4.s:444    .text.MD5Transform:00000000000002aa .LVL75
C:\Users\stapi\AppData\Local\Temp\ccjHAWc4.s:448    .text.MD5Transform:00000000000002b0 .LVL76
C:\Users\stapi\AppData\Local\Temp\ccjHAWc4.s:504    .text.MD5Transform:000000000000031a .LVL91
C:\Users\stapi\AppData\Local\Temp\ccjHAWc4.s:508    .text.MD5Transform:0000000000000320 .LVL92
C:\Users\stapi\AppData\Local\Temp\ccjHAWc4.s:564    .text.MD5Transform:000000000000038a .LVL107
C:\Users\stapi\AppData\Local\Temp\ccjHAWc4.s:568    .text.MD5Transform:0000000000000390 .LVL108
C:\Users\stapi\AppData\Local\Temp\ccjHAWc4.s:625    .text.MD5Transform:00000000000003fe .LVL123
C:\Users\stapi\AppData\Local\Temp\ccjHAWc4.s:628    .text.MD5Transform:0000000000000404 .LVL124
C:\Users\stapi\AppData\Local\Temp\ccjHAWc4.s:685    .text.MD5Transform:000000000000046c .LVL138
C:\Users\stapi\AppData\Local\Temp\ccjHAWc4.s:692    .text.MD5Transform:0000000000000474 .LVL140
C:\Users\stapi\AppData\Local\Temp\ccjHAWc4.s:745    .text.MD5Transform:00000000000004d0 .LVL153
C:\Users\stapi\AppData\Local\Temp\ccjHAWc4.s:756    .text.MD5Transform:00000000000004e0 .LVL156
C:\Users\stapi\AppData\Local\Temp\ccjHAWc4.s:809    .text.MD5Transform:000000000000053e .LVL169
C:\Users\stapi\AppData\Local\Temp\ccjHAWc4.s:820    .text.MD5Transform:000000000000054e .LVL172
C:\Users\stapi\AppData\Local\Temp\ccjHAWc4.s:877    .text.MD5Transform:00000000000005b4 .LVL186
C:\Users\stapi\AppData\Local\Temp\ccjHAWc4.s:884    .text.MD5Transform:00000000000005bc .LVL188
C:\Users\stapi\AppData\Local\Temp\ccjHAWc4.s:939    .text.MD5Transform:0000000000000626 .LVL203
C:\Users\stapi\AppData\Local\Temp\ccjHAWc4.s:944    .text.MD5Transform:0000000000000634 .LVL204
C:\Users\stapi\AppData\Local\Temp\ccjHAWc4.s:996    .text.MD5Transform:0000000000000698 .LVL219
C:\Users\stapi\AppData\Local\Temp\ccjHAWc4.s:1000   .text.MD5Transform:00000000000006a0 .LVL220
C:\Users\stapi\AppData\Local\Temp\ccjHAWc4.s:1004   .text.MD5Transform:00000000000006aa .LVL221
C:\Users\stapi\AppData\Local\Temp\ccjHAWc4.s:1051   .text.MD5Transform:0000000000000700 .LVL235
C:\Users\stapi\AppData\Local\Temp\ccjHAWc4.s:1057   .text.MD5Transform:0000000000000712 .LVL236
C:\Users\stapi\AppData\Local\Temp\ccjHAWc4.s:1111   .text.MD5Transform:0000000000000772 .LVL251
C:\Users\stapi\AppData\Local\Temp\ccjHAWc4.s:1127   .text.MD5Transform:0000000000000782 .LVL253
C:\Users\stapi\AppData\Local\Temp\ccjHAWc4.s:1132   .text.MD5Transform:0000000000000784 .LVL254
C:\Users\stapi\AppData\Local\Temp\ccjHAWc4.s:102    .text.MD5Transform:0000000000000082 .LVL8
C:\Users\stapi\AppData\Local\Temp\ccjHAWc4.s:174    .text.MD5Transform:00000000000000fa .LVL21
C:\Users\stapi\AppData\Local\Temp\ccjHAWc4.s:189    .text.MD5Transform:0000000000000108 .LVL23
C:\Users\stapi\AppData\Local\Temp\ccjHAWc4.s:262    .text.MD5Transform:0000000000000180 .LVL37
C:\Users\stapi\AppData\Local\Temp\ccjHAWc4.s:273    .text.MD5Transform:000000000000018c .LVL39
C:\Users\stapi\AppData\Local\Temp\ccjHAWc4.s:348    .text.MD5Transform:000000000000020c .LVL53
C:\Users\stapi\AppData\Local\Temp\ccjHAWc4.s:359    .text.MD5Transform:0000000000000218 .LVL55
C:\Users\stapi\AppData\Local\Temp\ccjHAWc4.s:427    .text.MD5Transform:0000000000000288 .LVL71
C:\Users\stapi\AppData\Local\Temp\ccjHAWc4.s:432    .text.MD5Transform:0000000000000292 .LVL72
C:\Users\stapi\AppData\Local\Temp\ccjHAWc4.s:489    .text.MD5Transform:00000000000002fe .LVL87
C:\Users\stapi\AppData\Local\Temp\ccjHAWc4.s:493    .text.MD5Transform:0000000000000304 .LVL88
C:\Users\stapi\AppData\Local\Temp\ccjHAWc4.s:549    .text.MD5Transform:000000000000036e .LVL103
C:\Users\stapi\AppData\Local\Temp\ccjHAWc4.s:553    .text.MD5Transform:0000000000000374 .LVL104
C:\Users\stapi\AppData\Local\Temp\ccjHAWc4.s:609    .text.MD5Transform:00000000000003de .LVL119
C:\Users\stapi\AppData\Local\Temp\ccjHAWc4.s:613    .text.MD5Transform:00000000000003e4 .LVL120
C:\Users\stapi\AppData\Local\Temp\ccjHAWc4.s:616    .text.MD5Transform:00000000000003ec .LVL121
C:\Users\stapi\AppData\Local\Temp\ccjHAWc4.s:668    .text.MD5Transform:000000000000044e .LVL134
C:\Users\stapi\AppData\Local\Temp\ccjHAWc4.s:675    .text.MD5Transform:0000000000000456 .LVL136
C:\Users\stapi\AppData\Local\Temp\ccjHAWc4.s:733    .text.MD5Transform:00000000000004bc .LVL150
C:\Users\stapi\AppData\Local\Temp\ccjHAWc4.s:740    .text.MD5Transform:00000000000004c4 .LVL152
C:\Users\stapi\AppData\Local\Temp\ccjHAWc4.s:797    .text.MD5Transform:000000000000052a .LVL166
C:\Users\stapi\AppData\Local\Temp\ccjHAWc4.s:804    .text.MD5Transform:0000000000000532 .LVL168
C:\Users\stapi\AppData\Local\Temp\ccjHAWc4.s:861    .text.MD5Transform:0000000000000598 .LVL182
C:\Users\stapi\AppData\Local\Temp\ccjHAWc4.s:868    .text.MD5Transform:00000000000005a0 .LVL184
C:\Users\stapi\AppData\Local\Temp\ccjHAWc4.s:874    .text.MD5Transform:00000000000005b0 .LVL185
C:\Users\stapi\AppData\Local\Temp\ccjHAWc4.s:924    .text.MD5Transform:0000000000000608 .LVL199
C:\Users\stapi\AppData\Local\Temp\ccjHAWc4.s:930    .text.MD5Transform:0000000000000618 .LVL200
C:\Users\stapi\AppData\Local\Temp\ccjHAWc4.s:982    .text.MD5Transform:000000000000067c .LVL215
C:\Users\stapi\AppData\Local\Temp\ccjHAWc4.s:986    .text.MD5Transform:0000000000000686 .LVL216
C:\Users\stapi\AppData\Local\Temp\ccjHAWc4.s:990    .text.MD5Transform:0000000000000690 .LVL217
C:\Users\stapi\AppData\Local\Temp\ccjHAWc4.s:1037   .text.MD5Transform:00000000000006e4 .LVL231
C:\Users\stapi\AppData\Local\Temp\ccjHAWc4.s:1043   .text.MD5Transform:00000000000006f6 .LVL232
C:\Users\stapi\AppData\Local\Temp\ccjHAWc4.s:1094   .text.MD5Transform:0000000000000756 .LVL247
C:\Users\stapi\AppData\Local\Temp\ccjHAWc4.s:1097   .text.MD5Transform:000000000000075a .LVL248
C:\Users\stapi\AppData\Local\Temp\ccjHAWc4.s:1099   .text.MD5Transform:000000000000075e .LVL249
C:\Users\stapi\AppData\Local\Temp\ccjHAWc4.s:78     .text.MD5Transform:000000000000005a .LVL5
C:\Users\stapi\AppData\Local\Temp\ccjHAWc4.s:154    .text.MD5Transform:00000000000000da .LVL17
C:\Users\stapi\AppData\Local\Temp\ccjHAWc4.s:165    .text.MD5Transform:00000000000000e6 .LVL19
C:\Users\stapi\AppData\Local\Temp\ccjHAWc4.s:238    .text.MD5Transform:0000000000000160 .LVL33
C:\Users\stapi\AppData\Local\Temp\ccjHAWc4.s:253    .text.MD5Transform:000000000000016e .LVL35
C:\Users\stapi\AppData\Local\Temp\ccjHAWc4.s:323    .text.MD5Transform:00000000000001e2 .LVL48
C:\Users\stapi\AppData\Local\Temp\ccjHAWc4.s:339    .text.MD5Transform:00000000000001f8 .LVL51
C:\Users\stapi\AppData\Local\Temp\ccjHAWc4.s:408    .text.MD5Transform:000000000000026c .LVL67
C:\Users\stapi\AppData\Local\Temp\ccjHAWc4.s:412    .text.MD5Transform:0000000000000272 .LVL68
C:\Users\stapi\AppData\Local\Temp\ccjHAWc4.s:474    .text.MD5Transform:00000000000002e2 .LVL83
C:\Users\stapi\AppData\Local\Temp\ccjHAWc4.s:478    .text.MD5Transform:00000000000002e8 .LVL84
C:\Users\stapi\AppData\Local\Temp\ccjHAWc4.s:534    .text.MD5Transform:0000000000000352 .LVL99
C:\Users\stapi\AppData\Local\Temp\ccjHAWc4.s:538    .text.MD5Transform:0000000000000358 .LVL100
C:\Users\stapi\AppData\Local\Temp\ccjHAWc4.s:593    .text.MD5Transform:00000000000003be .LVL115
C:\Users\stapi\AppData\Local\Temp\ccjHAWc4.s:598    .text.MD5Transform:00000000000003c8 .LVL116
C:\Users\stapi\AppData\Local\Temp\ccjHAWc4.s:600    .text.MD5Transform:00000000000003cc .LVL117
C:\Users\stapi\AppData\Local\Temp\ccjHAWc4.s:647    .text.MD5Transform:000000000000042a .LVL129
C:\Users\stapi\AppData\Local\Temp\ccjHAWc4.s:658    .text.MD5Transform:0000000000000438 .LVL132
C:\Users\stapi\AppData\Local\Temp\ccjHAWc4.s:717    .text.MD5Transform:00000000000004a2 .LVL146
C:\Users\stapi\AppData\Local\Temp\ccjHAWc4.s:724    .text.MD5Transform:00000000000004a8 .LVL148
C:\Users\stapi\AppData\Local\Temp\ccjHAWc4.s:781    .text.MD5Transform:0000000000000510 .LVL162
C:\Users\stapi\AppData\Local\Temp\ccjHAWc4.s:788    .text.MD5Transform:0000000000000516 .LVL164
C:\Users\stapi\AppData\Local\Temp\ccjHAWc4.s:841    .text.MD5Transform:0000000000000574 .LVL177
C:\Users\stapi\AppData\Local\Temp\ccjHAWc4.s:852    .text.MD5Transform:0000000000000584 .LVL180
C:\Users\stapi\AppData\Local\Temp\ccjHAWc4.s:858    .text.MD5Transform:0000000000000594 .LVL181
C:\Users\stapi\AppData\Local\Temp\ccjHAWc4.s:910    .text.MD5Transform:00000000000005f0 .LVL195
C:\Users\stapi\AppData\Local\Temp\ccjHAWc4.s:915    .text.MD5Transform:00000000000005fa .LVL196
C:\Users\stapi\AppData\Local\Temp\ccjHAWc4.s:919    .text.MD5Transform:0000000000000604 .LVL197
C:\Users\stapi\AppData\Local\Temp\ccjHAWc4.s:968    .text.MD5Transform:0000000000000662 .LVL211
C:\Users\stapi\AppData\Local\Temp\ccjHAWc4.s:972    .text.MD5Transform:000000000000066a .LVL212
C:\Users\stapi\AppData\Local\Temp\ccjHAWc4.s:976    .text.MD5Transform:0000000000000674 .LVL213
C:\Users\stapi\AppData\Local\Temp\ccjHAWc4.s:1023   .text.MD5Transform:00000000000006c8 .LVL227
C:\Users\stapi\AppData\Local\Temp\ccjHAWc4.s:1029   .text.MD5Transform:00000000000006da .LVL228
C:\Users\stapi\AppData\Local\Temp\ccjHAWc4.s:1079   .text.MD5Transform:0000000000000736 .LVL243
C:\Users\stapi\AppData\Local\Temp\ccjHAWc4.s:1083   .text.MD5Transform:0000000000000740 .LVL244
C:\Users\stapi\AppData\Local\Temp\ccjHAWc4.s:1085   .text.MD5Transform:0000000000000744 .LVL245
C:\Users\stapi\AppData\Local\Temp\ccjHAWc4.s:1135   .text.MD5Transform:0000000000000786 .LVL255
C:\Users\stapi\AppData\Local\Temp\ccjHAWc4.s:1530   .text.MD5Final:0000000000000000 .LVL298
C:\Users\stapi\AppData\Local\Temp\ccjHAWc4.s:1564   .text.MD5Final:000000000000002a .LVL301
C:\Users\stapi\AppData\Local\Temp\ccjHAWc4.s:1578   .text.MD5Final:0000000000000036 .LVL303
C:\Users\stapi\AppData\Local\Temp\ccjHAWc4.s:1550   .text.MD5Final:0000000000000018 .LVL299
C:\Users\stapi\AppData\Local\Temp\ccjHAWc4.s:1568   .text.MD5Final:000000000000002c .LVL302
C:\Users\stapi\AppData\Local\Temp\ccjHAWc4.s:1641   .text.MD5Final:00000000000000a8 .LVL312
C:\Users\stapi\AppData\Local\Temp\ccjHAWc4.s:1646   .text.MD5Final:00000000000000ac .LVL313
C:\Users\stapi\AppData\Local\Temp\ccjHAWc4.s:1554   .text.MD5Final:000000000000001c .LVL300
C:\Users\stapi\AppData\Local\Temp\ccjHAWc4.s:1361   .text.MD5Update:0000000000000000 .LVL276
C:\Users\stapi\AppData\Local\Temp\ccjHAWc4.s:1424   .text.MD5Update:0000000000000048 .LVL280
C:\Users\stapi\AppData\Local\Temp\ccjHAWc4.s:1433   .text.MD5Update:0000000000000050 .LVL282
C:\Users\stapi\AppData\Local\Temp\ccjHAWc4.s:1451   .text.MD5Update:0000000000000060 .LVL284
C:\Users\stapi\AppData\Local\Temp\ccjHAWc4.s:1457   .text.MD5Update:0000000000000062 .LVL285
C:\Users\stapi\AppData\Local\Temp\ccjHAWc4.s:1484   .text.MD5Update:000000000000008a .LVL291
C:\Users\stapi\AppData\Local\Temp\ccjHAWc4.s:1487   .text.MD5Update:000000000000008e .LVL292
C:\Users\stapi\AppData\Local\Temp\ccjHAWc4.s:1493   .text.MD5Update:000000000000009a .LVL293
C:\Users\stapi\AppData\Local\Temp\ccjHAWc4.s:1500   .text.MD5Update:00000000000000aa .LVL294
C:\Users\stapi\AppData\Local\Temp\ccjHAWc4.s:1517   .text.MD5Update:00000000000000c8 .LVL297
C:\Users\stapi\AppData\Local\Temp\ccjHAWc4.s:1431   .text.MD5Update:000000000000004e .LVL281
C:\Users\stapi\AppData\Local\Temp\ccjHAWc4.s:1466   .text.MD5Update:0000000000000074 .LVL287
C:\Users\stapi\AppData\Local\Temp\ccjHAWc4.s:1476   .text.MD5Update:0000000000000080 .LVL290
C:\Users\stapi\AppData\Local\Temp\ccjHAWc4.s:1376   .text.MD5Update:000000000000000c .LVL277
C:\Users\stapi\AppData\Local\Temp\ccjHAWc4.s:1402   .text.MD5Update:000000000000002c .LVL278
C:\Users\stapi\AppData\Local\Temp\ccjHAWc4.s:1409   .text.MD5Update:0000000000000034 .LVL279
C:\Users\stapi\AppData\Local\Temp\ccjHAWc4.s:1185   .text.md5_vector:0000000000000000 .LVL256
C:\Users\stapi\AppData\Local\Temp\ccjHAWc4.s:1212   .text.md5_vector:0000000000000014 .LVL258
C:\Users\stapi\AppData\Local\Temp\ccjHAWc4.s:1276   .text.md5_vector:000000000000006a .LVL269
C:\Users\stapi\AppData\Local\Temp\ccjHAWc4.s:1292   .text.md5_vector:0000000000000076 .LVL272
C:\Users\stapi\AppData\Local\Temp\ccjHAWc4.s:1198   .text.md5_vector:0000000000000008 .LVL257
C:\Users\stapi\AppData\Local\Temp\ccjHAWc4.s:1222   .text.md5_vector:0000000000000022 .LVL260
C:\Users\stapi\AppData\Local\Temp\ccjHAWc4.s:1234   .text.md5_vector:000000000000002c .LVL262
C:\Users\stapi\AppData\Local\Temp\ccjHAWc4.s:1261   .text.md5_vector:0000000000000062 .LVL268
C:\Users\stapi\AppData\Local\Temp\ccjHAWc4.s:1229   .text.md5_vector:0000000000000028 .LVL261
C:\Users\stapi\AppData\Local\Temp\ccjHAWc4.s:1286   .text.md5_vector:0000000000000072 .LVL270
C:\Users\stapi\AppData\Local\Temp\ccjHAWc4.s:1289   .text.md5_vector:0000000000000074 .LVL271
C:\Users\stapi\AppData\Local\Temp\ccjHAWc4.s:1249   .text.md5_vector:0000000000000048 .LVL265
C:\Users\stapi\AppData\Local\Temp\ccjHAWc4.s:1665   .debug_info:0000000000000000 .Ldebug_info0
C:\Users\stapi\AppData\Local\Temp\ccjHAWc4.s:1411   .text.MD5Update:0000000000000034 .LBB2
C:\Users\stapi\AppData\Local\Temp\ccjHAWc4.s:1414   .text.MD5Update:0000000000000038 .LBE2
C:\Users\stapi\AppData\Local\Temp\ccjHAWc4.s:1417   .text.MD5Update:000000000000003c .LBB3
C:\Users\stapi\AppData\Local\Temp\ccjHAWc4.s:1435   .text.MD5Update:0000000000000050 .LBE3
C:\Users\stapi\AppData\Local\Temp\ccjHAWc4.s:1454   .text.MD5Update:0000000000000060 .LBB4
C:\Users\stapi\AppData\Local\Temp\ccjHAWc4.s:1478   .text.MD5Update:0000000000000080 .LBE4

UNDEFINED SYMBOLS
__riscv_save_8
os_malloc
sys_enter_critical
hau_hash_md5
sys_exit_critical
os_free
__riscv_restore_8
os_memcpy
__riscv_save_7
__riscv_restore_7
__riscv_save_3
os_memset
__hide_aliasing_typecast
__riscv_restore_3
