   1              		.file	"op_classes.c"
   2              		.option nopic
   3              		.attribute arch, "rv32i2p0_m2p0_a2p0_f2p0_c2p0_b_p0p94"
   4              		.attribute unaligned_access, 0
   5              		.attribute stack_align, 16
   6              		.text
   7              	.Ltext0:
   8              		.cfi_sections	.debug_frame
   9              		.section	.text.allow_channel,"ax",@progbits
  10              		.align	1
  12              	allow_channel:
  13              	.LFB141:
  14              		.file 1 "C:/Users/stapi/OneDrive/Desktop/GD32VW553/V1_MQTT_OK/GD32VW55X_Wifi_BLE_SDK/GD32VW55x_REL
   1:C:/Users/stapi/OneDrive/Desktop/GD32VW553/V1_MQTT_OK/GD32VW55X_Wifi_BLE_SDK/GD32VW55x_RELEASE_V1.0.2/MSDK/wpa_supplicant/wpa_supplicant\op_classes.c **** /*
   2:C:/Users/stapi/OneDrive/Desktop/GD32VW553/V1_MQTT_OK/GD32VW55X_Wifi_BLE_SDK/GD32VW55x_RELEASE_V1.0.2/MSDK/wpa_supplicant/wpa_supplicant\op_classes.c ****  * Operating classes
   3:C:/Users/stapi/OneDrive/Desktop/GD32VW553/V1_MQTT_OK/GD32VW55X_Wifi_BLE_SDK/GD32VW55x_RELEASE_V1.0.2/MSDK/wpa_supplicant/wpa_supplicant\op_classes.c ****  * Copyright(c) 2015 Intel Deutschland GmbH
   4:C:/Users/stapi/OneDrive/Desktop/GD32VW553/V1_MQTT_OK/GD32VW55X_Wifi_BLE_SDK/GD32VW55x_RELEASE_V1.0.2/MSDK/wpa_supplicant/wpa_supplicant\op_classes.c ****  * Contact Information:
   5:C:/Users/stapi/OneDrive/Desktop/GD32VW553/V1_MQTT_OK/GD32VW55X_Wifi_BLE_SDK/GD32VW55x_RELEASE_V1.0.2/MSDK/wpa_supplicant/wpa_supplicant\op_classes.c ****  * Intel Linux Wireless <ilw@linux.intel.com>
   6:C:/Users/stapi/OneDrive/Desktop/GD32VW553/V1_MQTT_OK/GD32VW55X_Wifi_BLE_SDK/GD32VW55x_RELEASE_V1.0.2/MSDK/wpa_supplicant/wpa_supplicant\op_classes.c ****  * Intel Corporation, 5200 N.E. Elam Young Parkway, Hillsboro, OR 97124-6497
   7:C:/Users/stapi/OneDrive/Desktop/GD32VW553/V1_MQTT_OK/GD32VW55X_Wifi_BLE_SDK/GD32VW55x_RELEASE_V1.0.2/MSDK/wpa_supplicant/wpa_supplicant\op_classes.c ****  *
   8:C:/Users/stapi/OneDrive/Desktop/GD32VW553/V1_MQTT_OK/GD32VW55X_Wifi_BLE_SDK/GD32VW55x_RELEASE_V1.0.2/MSDK/wpa_supplicant/wpa_supplicant\op_classes.c ****  * This software may be distributed under the terms of the BSD license.
   9:C:/Users/stapi/OneDrive/Desktop/GD32VW553/V1_MQTT_OK/GD32VW55X_Wifi_BLE_SDK/GD32VW55x_RELEASE_V1.0.2/MSDK/wpa_supplicant/wpa_supplicant\op_classes.c ****  * See README for more details.
  10:C:/Users/stapi/OneDrive/Desktop/GD32VW553/V1_MQTT_OK/GD32VW55X_Wifi_BLE_SDK/GD32VW55x_RELEASE_V1.0.2/MSDK/wpa_supplicant/wpa_supplicant\op_classes.c ****  */
  11:C:/Users/stapi/OneDrive/Desktop/GD32VW553/V1_MQTT_OK/GD32VW55X_Wifi_BLE_SDK/GD32VW55x_RELEASE_V1.0.2/MSDK/wpa_supplicant/wpa_supplicant\op_classes.c **** 
  12:C:/Users/stapi/OneDrive/Desktop/GD32VW553/V1_MQTT_OK/GD32VW55X_Wifi_BLE_SDK/GD32VW55x_RELEASE_V1.0.2/MSDK/wpa_supplicant/wpa_supplicant\op_classes.c **** #include "utils/includes.h"
  13:C:/Users/stapi/OneDrive/Desktop/GD32VW553/V1_MQTT_OK/GD32VW55X_Wifi_BLE_SDK/GD32VW55x_RELEASE_V1.0.2/MSDK/wpa_supplicant/wpa_supplicant\op_classes.c **** 
  14:C:/Users/stapi/OneDrive/Desktop/GD32VW553/V1_MQTT_OK/GD32VW55X_Wifi_BLE_SDK/GD32VW55x_RELEASE_V1.0.2/MSDK/wpa_supplicant/wpa_supplicant\op_classes.c **** #include "utils/common.h"
  15:C:/Users/stapi/OneDrive/Desktop/GD32VW553/V1_MQTT_OK/GD32VW55X_Wifi_BLE_SDK/GD32VW55x_RELEASE_V1.0.2/MSDK/wpa_supplicant/wpa_supplicant\op_classes.c **** #include "common/ieee802_11_common.h"
  16:C:/Users/stapi/OneDrive/Desktop/GD32VW553/V1_MQTT_OK/GD32VW55X_Wifi_BLE_SDK/GD32VW55x_RELEASE_V1.0.2/MSDK/wpa_supplicant/wpa_supplicant\op_classes.c **** #include "wpa_supplicant_i.h"
  17:C:/Users/stapi/OneDrive/Desktop/GD32VW553/V1_MQTT_OK/GD32VW55X_Wifi_BLE_SDK/GD32VW55x_RELEASE_V1.0.2/MSDK/wpa_supplicant/wpa_supplicant\op_classes.c **** #include "bss.h"
  18:C:/Users/stapi/OneDrive/Desktop/GD32VW553/V1_MQTT_OK/GD32VW55X_Wifi_BLE_SDK/GD32VW55x_RELEASE_V1.0.2/MSDK/wpa_supplicant/wpa_supplicant\op_classes.c **** 
  19:C:/Users/stapi/OneDrive/Desktop/GD32VW553/V1_MQTT_OK/GD32VW55X_Wifi_BLE_SDK/GD32VW55x_RELEASE_V1.0.2/MSDK/wpa_supplicant/wpa_supplicant\op_classes.c **** 
  20:C:/Users/stapi/OneDrive/Desktop/GD32VW553/V1_MQTT_OK/GD32VW55X_Wifi_BLE_SDK/GD32VW55x_RELEASE_V1.0.2/MSDK/wpa_supplicant/wpa_supplicant\op_classes.c **** static enum chan_allowed allow_channel(struct hostapd_hw_modes *mode,
  21:C:/Users/stapi/OneDrive/Desktop/GD32VW553/V1_MQTT_OK/GD32VW55X_Wifi_BLE_SDK/GD32VW55x_RELEASE_V1.0.2/MSDK/wpa_supplicant/wpa_supplicant\op_classes.c **** 				       u8 op_class, u8 chan,
  22:C:/Users/stapi/OneDrive/Desktop/GD32VW553/V1_MQTT_OK/GD32VW55X_Wifi_BLE_SDK/GD32VW55x_RELEASE_V1.0.2/MSDK/wpa_supplicant/wpa_supplicant\op_classes.c **** 				       unsigned int *flags)
  23:C:/Users/stapi/OneDrive/Desktop/GD32VW553/V1_MQTT_OK/GD32VW55X_Wifi_BLE_SDK/GD32VW55x_RELEASE_V1.0.2/MSDK/wpa_supplicant/wpa_supplicant\op_classes.c **** {
  15              		.loc 1 23 1
  16              		.cfi_startproc
  17              	.LVL0:
  24:C:/Users/stapi/OneDrive/Desktop/GD32VW553/V1_MQTT_OK/GD32VW55X_Wifi_BLE_SDK/GD32VW55x_RELEASE_V1.0.2/MSDK/wpa_supplicant/wpa_supplicant\op_classes.c **** 	int i;
  18              		.loc 1 24 2
  25:C:/Users/stapi/OneDrive/Desktop/GD32VW553/V1_MQTT_OK/GD32VW55X_Wifi_BLE_SDK/GD32VW55x_RELEASE_V1.0.2/MSDK/wpa_supplicant/wpa_supplicant\op_classes.c **** 	bool is_6ghz = op_class >= 131 && op_class <= 136;
  19              		.loc 1 25 2
  20              		.loc 1 25 33 is_stmt 0
  21 0000 9385D507 		addi	a1,a1,125
  22              	.LVL1:
  26:C:/Users/stapi/OneDrive/Desktop/GD32VW553/V1_MQTT_OK/GD32VW55X_Wifi_BLE_SDK/GD32VW55x_RELEASE_V1.0.2/MSDK/wpa_supplicant/wpa_supplicant\op_classes.c **** 
  27:C:/Users/stapi/OneDrive/Desktop/GD32VW553/V1_MQTT_OK/GD32VW55X_Wifi_BLE_SDK/GD32VW55x_RELEASE_V1.0.2/MSDK/wpa_supplicant/wpa_supplicant\op_classes.c **** 	for (i = 0; i < mode->num_channels; i++) {
  23              		.loc 1 27 22
  24 0004 03234500 		lw	t1,4(a0)
  25:C:/Users/stapi/OneDrive/Desktop/GD32VW553/V1_MQTT_OK/GD32VW55X_Wifi_BLE_SDK/GD32VW55x_RELEASE_V1.0.2/MSDK/wpa_supplicant/wpa_supplicant\op_classes.c **** 	bool is_6ghz = op_class >= 131 && op_class <= 136;
  25              		.loc 1 25 7
  26 0008 93F5F50F 		andi	a1,a1,0xff
  27              	.LBB5:
  28:C:/Users/stapi/OneDrive/Desktop/GD32VW553/V1_MQTT_OK/GD32VW55X_Wifi_BLE_SDK/GD32VW55x_RELEASE_V1.0.2/MSDK/wpa_supplicant/wpa_supplicant\op_classes.c **** 		bool chan_is_6ghz;
  29:C:/Users/stapi/OneDrive/Desktop/GD32VW553/V1_MQTT_OK/GD32VW55X_Wifi_BLE_SDK/GD32VW55x_RELEASE_V1.0.2/MSDK/wpa_supplicant/wpa_supplicant\op_classes.c **** 
  30:C:/Users/stapi/OneDrive/Desktop/GD32VW553/V1_MQTT_OK/GD32VW55X_Wifi_BLE_SDK/GD32VW55x_RELEASE_V1.0.2/MSDK/wpa_supplicant/wpa_supplicant\op_classes.c **** 		chan_is_6ghz = mode->channels[i].freq >= 5935 &&
  28              		.loc 1 30 49
  29 000c FD78     		li	a7,-4096
  30              	.LBE5:
  23:C:/Users/stapi/OneDrive/Desktop/GD32VW553/V1_MQTT_OK/GD32VW55X_Wifi_BLE_SDK/GD32VW55x_RELEASE_V1.0.2/MSDK/wpa_supplicant/wpa_supplicant\op_classes.c **** 	int i;
  31              		.loc 1 23 1
  32 000e 2A87     		mv	a4,a0
  25:C:/Users/stapi/OneDrive/Desktop/GD32VW553/V1_MQTT_OK/GD32VW55X_Wifi_BLE_SDK/GD32VW55x_RELEASE_V1.0.2/MSDK/wpa_supplicant/wpa_supplicant\op_classes.c **** 
  33              		.loc 1 25 7
  34 0010 93B56500 		sltiu	a1,a1,6
  35              	.LVL2:
  27:C:/Users/stapi/OneDrive/Desktop/GD32VW553/V1_MQTT_OK/GD32VW55X_Wifi_BLE_SDK/GD32VW55x_RELEASE_V1.0.2/MSDK/wpa_supplicant/wpa_supplicant\op_classes.c **** 		bool chan_is_6ghz;
  36              		.loc 1 27 2 is_stmt 1
  27:C:/Users/stapi/OneDrive/Desktop/GD32VW553/V1_MQTT_OK/GD32VW55X_Wifi_BLE_SDK/GD32VW55x_RELEASE_V1.0.2/MSDK/wpa_supplicant/wpa_supplicant\op_classes.c **** 		bool chan_is_6ghz;
  37              		.loc 1 27 9 is_stmt 0
  38 0014 8147     		li	a5,0
  39              	.LBB6:
  40              		.loc 1 30 32
  41 0016 130E8006 		li	t3,104
  42              		.loc 1 30 49
  43 001a 9388188D 		addi	a7,a7,-1839
  44              	.LVL3:
  45              	.L2:
  46              	.LBE6:
  27:C:/Users/stapi/OneDrive/Desktop/GD32VW553/V1_MQTT_OK/GD32VW55X_Wifi_BLE_SDK/GD32VW55x_RELEASE_V1.0.2/MSDK/wpa_supplicant/wpa_supplicant\op_classes.c **** 		bool chan_is_6ghz;
  47              		.loc 1 27 14 is_stmt 1 discriminator 1
  27:C:/Users/stapi/OneDrive/Desktop/GD32VW553/V1_MQTT_OK/GD32VW55X_Wifi_BLE_SDK/GD32VW55x_RELEASE_V1.0.2/MSDK/wpa_supplicant/wpa_supplicant\op_classes.c **** 		bool chan_is_6ghz;
  48              		.loc 1 27 2 is_stmt 0 discriminator 1
  49 001e 63C66700 		bgt	t1,a5,.L6
  31:C:/Users/stapi/OneDrive/Desktop/GD32VW553/V1_MQTT_OK/GD32VW55X_Wifi_BLE_SDK/GD32VW55x_RELEASE_V1.0.2/MSDK/wpa_supplicant/wpa_supplicant\op_classes.c **** 			mode->channels[i].freq <= 7115;
  32:C:/Users/stapi/OneDrive/Desktop/GD32VW553/V1_MQTT_OK/GD32VW55X_Wifi_BLE_SDK/GD32VW55x_RELEASE_V1.0.2/MSDK/wpa_supplicant/wpa_supplicant\op_classes.c **** 		if (is_6ghz == chan_is_6ghz && mode->channels[i].chan == chan)
  33:C:/Users/stapi/OneDrive/Desktop/GD32VW553/V1_MQTT_OK/GD32VW55X_Wifi_BLE_SDK/GD32VW55x_RELEASE_V1.0.2/MSDK/wpa_supplicant/wpa_supplicant\op_classes.c **** 			break;
  34:C:/Users/stapi/OneDrive/Desktop/GD32VW553/V1_MQTT_OK/GD32VW55X_Wifi_BLE_SDK/GD32VW55x_RELEASE_V1.0.2/MSDK/wpa_supplicant/wpa_supplicant\op_classes.c **** 	}
  35:C:/Users/stapi/OneDrive/Desktop/GD32VW553/V1_MQTT_OK/GD32VW55X_Wifi_BLE_SDK/GD32VW55x_RELEASE_V1.0.2/MSDK/wpa_supplicant/wpa_supplicant\op_classes.c **** 
  36:C:/Users/stapi/OneDrive/Desktop/GD32VW553/V1_MQTT_OK/GD32VW55X_Wifi_BLE_SDK/GD32VW55x_RELEASE_V1.0.2/MSDK/wpa_supplicant/wpa_supplicant\op_classes.c **** 	if (i == mode->num_channels ||
  50              		.loc 1 36 2 is_stmt 1
  37:C:/Users/stapi/OneDrive/Desktop/GD32VW553/V1_MQTT_OK/GD32VW55X_Wifi_BLE_SDK/GD32VW55x_RELEASE_V1.0.2/MSDK/wpa_supplicant/wpa_supplicant\op_classes.c **** 	    (mode->channels[i].flag & HOSTAPD_CHAN_DISABLED))
  38:C:/Users/stapi/OneDrive/Desktop/GD32VW553/V1_MQTT_OK/GD32VW55X_Wifi_BLE_SDK/GD32VW55x_RELEASE_V1.0.2/MSDK/wpa_supplicant/wpa_supplicant\op_classes.c **** 		return NOT_ALLOWED;
  51              		.loc 1 38 10 is_stmt 0
  52 0022 0145     		li	a0,0
  36:C:/Users/stapi/OneDrive/Desktop/GD32VW553/V1_MQTT_OK/GD32VW55X_Wifi_BLE_SDK/GD32VW55x_RELEASE_V1.0.2/MSDK/wpa_supplicant/wpa_supplicant\op_classes.c **** 	    (mode->channels[i].flag & HOSTAPD_CHAN_DISABLED))
  53              		.loc 1 36 5
  54 0024 6312F302 		bne	t1,a5,.L7
  55 0028 8280     		ret
  56              	.L6:
  57              	.LBB7:
  28:C:/Users/stapi/OneDrive/Desktop/GD32VW553/V1_MQTT_OK/GD32VW55X_Wifi_BLE_SDK/GD32VW55x_RELEASE_V1.0.2/MSDK/wpa_supplicant/wpa_supplicant\op_classes.c **** 
  58              		.loc 1 28 3 is_stmt 1
  30:C:/Users/stapi/OneDrive/Desktop/GD32VW553/V1_MQTT_OK/GD32VW55X_Wifi_BLE_SDK/GD32VW55x_RELEASE_V1.0.2/MSDK/wpa_supplicant/wpa_supplicant\op_classes.c **** 			mode->channels[i].freq <= 7115;
  59              		.loc 1 30 3
  30:C:/Users/stapi/OneDrive/Desktop/GD32VW553/V1_MQTT_OK/GD32VW55X_Wifi_BLE_SDK/GD32VW55x_RELEASE_V1.0.2/MSDK/wpa_supplicant/wpa_supplicant\op_classes.c **** 			mode->channels[i].freq <= 7115;
  60              		.loc 1 30 32 is_stmt 0
  61 002a 03288700 		lw	a6,8(a4)
  62 002e 7F98C7C5 		maddr32	a6, a5, t3
  63              	.LVL4:
  32:C:/Users/stapi/OneDrive/Desktop/GD32VW553/V1_MQTT_OK/GD32VW55X_Wifi_BLE_SDK/GD32VW55x_RELEASE_V1.0.2/MSDK/wpa_supplicant/wpa_supplicant\op_classes.c **** 			break;
  64              		.loc 1 32 3 is_stmt 1
  30:C:/Users/stapi/OneDrive/Desktop/GD32VW553/V1_MQTT_OK/GD32VW55X_Wifi_BLE_SDK/GD32VW55x_RELEASE_V1.0.2/MSDK/wpa_supplicant/wpa_supplicant\op_classes.c **** 			mode->channels[i].freq <= 7115;
  65              		.loc 1 30 49 is_stmt 0
  66 0032 03254800 		lw	a0,4(a6)
  67 0036 4695     		add	a0,a0,a7
  32:C:/Users/stapi/OneDrive/Desktop/GD32VW553/V1_MQTT_OK/GD32VW55X_Wifi_BLE_SDK/GD32VW55x_RELEASE_V1.0.2/MSDK/wpa_supplicant/wpa_supplicant\op_classes.c **** 			break;
  68              		.loc 1 32 6
  69 0038 1335D549 		sltiu	a0,a0,1181
  70 003c 6311B502 		bne	a0,a1,.L3
  32:C:/Users/stapi/OneDrive/Desktop/GD32VW553/V1_MQTT_OK/GD32VW55X_Wifi_BLE_SDK/GD32VW55x_RELEASE_V1.0.2/MSDK/wpa_supplicant/wpa_supplicant\op_classes.c **** 			break;
  71              		.loc 1 32 51 discriminator 1
  72 0040 03150800 		lh	a0,0(a6)
  32:C:/Users/stapi/OneDrive/Desktop/GD32VW553/V1_MQTT_OK/GD32VW55X_Wifi_BLE_SDK/GD32VW55x_RELEASE_V1.0.2/MSDK/wpa_supplicant/wpa_supplicant\op_classes.c **** 			break;
  73              		.loc 1 32 31 discriminator 1
  74 0044 631DC500 		bne	a0,a2,.L3
  75              	.LVL5:
  76              	.L7:
  77              	.LBE7:
  37:C:/Users/stapi/OneDrive/Desktop/GD32VW553/V1_MQTT_OK/GD32VW55X_Wifi_BLE_SDK/GD32VW55x_RELEASE_V1.0.2/MSDK/wpa_supplicant/wpa_supplicant\op_classes.c **** 		return NOT_ALLOWED;
  78              		.loc 1 37 21
  79 0048 1847     		lw	a4,8(a4)
  80              	.LVL6:
  81 004a 13068006 		li	a2,104
  82              	.LVL7:
  83              		.loc 1 38 10
  84 004e 0145     		li	a0,0
  37:C:/Users/stapi/OneDrive/Desktop/GD32VW553/V1_MQTT_OK/GD32VW55X_Wifi_BLE_SDK/GD32VW55x_RELEASE_V1.0.2/MSDK/wpa_supplicant/wpa_supplicant\op_classes.c **** 		return NOT_ALLOWED;
  85              		.loc 1 37 21
  86 0050 7F97C7C4 		maddr32	a4, a5, a2
  37:C:/Users/stapi/OneDrive/Desktop/GD32VW553/V1_MQTT_OK/GD32VW55X_Wifi_BLE_SDK/GD32VW55x_RELEASE_V1.0.2/MSDK/wpa_supplicant/wpa_supplicant\op_classes.c **** 		return NOT_ALLOWED;
  87              		.loc 1 37 24
  88 0054 1C47     		lw	a5,8(a4)
  89              	.LVL8:
  37:C:/Users/stapi/OneDrive/Desktop/GD32VW553/V1_MQTT_OK/GD32VW55X_Wifi_BLE_SDK/GD32VW55x_RELEASE_V1.0.2/MSDK/wpa_supplicant/wpa_supplicant\op_classes.c **** 		return NOT_ALLOWED;
  90              		.loc 1 37 30
  91 0056 13F61700 		andi	a2,a5,1
  36:C:/Users/stapi/OneDrive/Desktop/GD32VW553/V1_MQTT_OK/GD32VW55X_Wifi_BLE_SDK/GD32VW55x_RELEASE_V1.0.2/MSDK/wpa_supplicant/wpa_supplicant\op_classes.c **** 	    (mode->channels[i].flag & HOSTAPD_CHAN_DISABLED))
  92              		.loc 1 36 30
  93 005a 01C6     		beq	a2,zero,.L16
  94 005c 8280     		ret
  95              	.LVL9:
  96              	.L3:
  27:C:/Users/stapi/OneDrive/Desktop/GD32VW553/V1_MQTT_OK/GD32VW55X_Wifi_BLE_SDK/GD32VW55x_RELEASE_V1.0.2/MSDK/wpa_supplicant/wpa_supplicant\op_classes.c **** 		bool chan_is_6ghz;
  97              		.loc 1 27 38 is_stmt 1 discriminator 2
  27:C:/Users/stapi/OneDrive/Desktop/GD32VW553/V1_MQTT_OK/GD32VW55X_Wifi_BLE_SDK/GD32VW55x_RELEASE_V1.0.2/MSDK/wpa_supplicant/wpa_supplicant\op_classes.c **** 		bool chan_is_6ghz;
  98              		.loc 1 27 39 is_stmt 0 discriminator 2
  99 005e 8507     		addi	a5,a5,1
 100              	.LVL10:
 101 0060 7DBF     		j	.L2
 102              	.LVL11:
 103              	.L16:
  39:C:/Users/stapi/OneDrive/Desktop/GD32VW553/V1_MQTT_OK/GD32VW55X_Wifi_BLE_SDK/GD32VW55x_RELEASE_V1.0.2/MSDK/wpa_supplicant/wpa_supplicant\op_classes.c **** 
  40:C:/Users/stapi/OneDrive/Desktop/GD32VW553/V1_MQTT_OK/GD32VW55X_Wifi_BLE_SDK/GD32VW55x_RELEASE_V1.0.2/MSDK/wpa_supplicant/wpa_supplicant\op_classes.c **** 	if (flags)
 104              		.loc 1 40 2 is_stmt 1
 105              		.loc 1 40 5 is_stmt 0
 106 0062 91C2     		beq	a3,zero,.L8
  41:C:/Users/stapi/OneDrive/Desktop/GD32VW553/V1_MQTT_OK/GD32VW55X_Wifi_BLE_SDK/GD32VW55x_RELEASE_V1.0.2/MSDK/wpa_supplicant/wpa_supplicant\op_classes.c **** 		*flags = mode->channels[i].flag;
 107              		.loc 1 41 3 is_stmt 1
 108              		.loc 1 41 10 is_stmt 0
 109 0064 9CC2     		sw	a5,0(a3)
 110              	.L8:
  42:C:/Users/stapi/OneDrive/Desktop/GD32VW553/V1_MQTT_OK/GD32VW55X_Wifi_BLE_SDK/GD32VW55x_RELEASE_V1.0.2/MSDK/wpa_supplicant/wpa_supplicant\op_classes.c **** 
  43:C:/Users/stapi/OneDrive/Desktop/GD32VW553/V1_MQTT_OK/GD32VW55X_Wifi_BLE_SDK/GD32VW55x_RELEASE_V1.0.2/MSDK/wpa_supplicant/wpa_supplicant\op_classes.c **** 	if (mode->channels[i].flag & HOSTAPD_CHAN_NO_IR)
 111              		.loc 1 43 2 is_stmt 1
 112              		.loc 1 43 29 is_stmt 0
 113 0066 1C47     		lw	a5,8(a4)
  44:C:/Users/stapi/OneDrive/Desktop/GD32VW553/V1_MQTT_OK/GD32VW55X_Wifi_BLE_SDK/GD32VW55x_RELEASE_V1.0.2/MSDK/wpa_supplicant/wpa_supplicant\op_classes.c **** 		return NO_IR;
  45:C:/Users/stapi/OneDrive/Desktop/GD32VW553/V1_MQTT_OK/GD32VW55X_Wifi_BLE_SDK/GD32VW55x_RELEASE_V1.0.2/MSDK/wpa_supplicant/wpa_supplicant\op_classes.c **** 
  46:C:/Users/stapi/OneDrive/Desktop/GD32VW553/V1_MQTT_OK/GD32VW55X_Wifi_BLE_SDK/GD32VW55x_RELEASE_V1.0.2/MSDK/wpa_supplicant/wpa_supplicant\op_classes.c **** 	return ALLOWED;
 114              		.loc 1 46 9
 115 0068 0D45     		li	a0,3
  43:C:/Users/stapi/OneDrive/Desktop/GD32VW553/V1_MQTT_OK/GD32VW55X_Wifi_BLE_SDK/GD32VW55x_RELEASE_V1.0.2/MSDK/wpa_supplicant/wpa_supplicant\op_classes.c **** 		return NO_IR;
 116              		.loc 1 43 29
 117 006a 898B     		andi	a5,a5,2
  43:C:/Users/stapi/OneDrive/Desktop/GD32VW553/V1_MQTT_OK/GD32VW55X_Wifi_BLE_SDK/GD32VW55x_RELEASE_V1.0.2/MSDK/wpa_supplicant/wpa_supplicant\op_classes.c **** 		return NO_IR;
 118              		.loc 1 43 5
 119 006c 91C3     		beq	a5,zero,.L1
  44:C:/Users/stapi/OneDrive/Desktop/GD32VW553/V1_MQTT_OK/GD32VW55X_Wifi_BLE_SDK/GD32VW55x_RELEASE_V1.0.2/MSDK/wpa_supplicant/wpa_supplicant\op_classes.c **** 		return NO_IR;
 120              		.loc 1 44 10
 121 006e 0545     		li	a0,1
 122              	.L1:
  47:C:/Users/stapi/OneDrive/Desktop/GD32VW553/V1_MQTT_OK/GD32VW55X_Wifi_BLE_SDK/GD32VW55x_RELEASE_V1.0.2/MSDK/wpa_supplicant/wpa_supplicant\op_classes.c **** }
 123              		.loc 1 47 1
 124 0070 8280     		ret
 125              		.cfi_endproc
 126              	.LFE141:
 128              		.section	.rodata.verify_80mhz.str1.4,"aMS",@progbits,1
 129              		.align	2
 130              	.LC0:
 131 0000 2A3A6A7A 		.string	"*:jz\212\233\253"
 131      8A9BAB00 
 132              		.align	2
 133              	.LC1:
 134 0008 07172737 		.string	"\007\027'7GWgw\207\227\247\267\307\327"
 134      47576777 
 134      8797A7B7 
 134      C7D700
 135              		.section	.text.verify_80mhz,"ax",@progbits
 136              		.align	1
 138              	verify_80mhz:
 139              	.LFB143:
  48:C:/Users/stapi/OneDrive/Desktop/GD32VW553/V1_MQTT_OK/GD32VW55X_Wifi_BLE_SDK/GD32VW55x_RELEASE_V1.0.2/MSDK/wpa_supplicant/wpa_supplicant\op_classes.c **** 
  49:C:/Users/stapi/OneDrive/Desktop/GD32VW553/V1_MQTT_OK/GD32VW55X_Wifi_BLE_SDK/GD32VW55x_RELEASE_V1.0.2/MSDK/wpa_supplicant/wpa_supplicant\op_classes.c **** 
  50:C:/Users/stapi/OneDrive/Desktop/GD32VW553/V1_MQTT_OK/GD32VW55X_Wifi_BLE_SDK/GD32VW55x_RELEASE_V1.0.2/MSDK/wpa_supplicant/wpa_supplicant\op_classes.c **** static int get_center_80mhz(struct hostapd_hw_modes *mode, u8 channel,
  51:C:/Users/stapi/OneDrive/Desktop/GD32VW553/V1_MQTT_OK/GD32VW55X_Wifi_BLE_SDK/GD32VW55x_RELEASE_V1.0.2/MSDK/wpa_supplicant/wpa_supplicant\op_classes.c **** 			    const u8 *center_channels, size_t num_chan)
  52:C:/Users/stapi/OneDrive/Desktop/GD32VW553/V1_MQTT_OK/GD32VW55X_Wifi_BLE_SDK/GD32VW55x_RELEASE_V1.0.2/MSDK/wpa_supplicant/wpa_supplicant\op_classes.c **** {
  53:C:/Users/stapi/OneDrive/Desktop/GD32VW553/V1_MQTT_OK/GD32VW55X_Wifi_BLE_SDK/GD32VW55x_RELEASE_V1.0.2/MSDK/wpa_supplicant/wpa_supplicant\op_classes.c **** 	size_t i;
  54:C:/Users/stapi/OneDrive/Desktop/GD32VW553/V1_MQTT_OK/GD32VW55X_Wifi_BLE_SDK/GD32VW55x_RELEASE_V1.0.2/MSDK/wpa_supplicant/wpa_supplicant\op_classes.c **** 
  55:C:/Users/stapi/OneDrive/Desktop/GD32VW553/V1_MQTT_OK/GD32VW55X_Wifi_BLE_SDK/GD32VW55x_RELEASE_V1.0.2/MSDK/wpa_supplicant/wpa_supplicant\op_classes.c **** 	if (mode->mode != HOSTAPD_MODE_IEEE80211A)
  56:C:/Users/stapi/OneDrive/Desktop/GD32VW553/V1_MQTT_OK/GD32VW55X_Wifi_BLE_SDK/GD32VW55x_RELEASE_V1.0.2/MSDK/wpa_supplicant/wpa_supplicant\op_classes.c **** 		return 0;
  57:C:/Users/stapi/OneDrive/Desktop/GD32VW553/V1_MQTT_OK/GD32VW55X_Wifi_BLE_SDK/GD32VW55x_RELEASE_V1.0.2/MSDK/wpa_supplicant/wpa_supplicant\op_classes.c **** 
  58:C:/Users/stapi/OneDrive/Desktop/GD32VW553/V1_MQTT_OK/GD32VW55X_Wifi_BLE_SDK/GD32VW55x_RELEASE_V1.0.2/MSDK/wpa_supplicant/wpa_supplicant\op_classes.c **** 	for (i = 0; i < num_chan; i++) {
  59:C:/Users/stapi/OneDrive/Desktop/GD32VW553/V1_MQTT_OK/GD32VW55X_Wifi_BLE_SDK/GD32VW55x_RELEASE_V1.0.2/MSDK/wpa_supplicant/wpa_supplicant\op_classes.c **** 		/*
  60:C:/Users/stapi/OneDrive/Desktop/GD32VW553/V1_MQTT_OK/GD32VW55X_Wifi_BLE_SDK/GD32VW55x_RELEASE_V1.0.2/MSDK/wpa_supplicant/wpa_supplicant\op_classes.c **** 		 * In 80 MHz, the bandwidth "spans" 12 channels (e.g., 36-48),
  61:C:/Users/stapi/OneDrive/Desktop/GD32VW553/V1_MQTT_OK/GD32VW55X_Wifi_BLE_SDK/GD32VW55x_RELEASE_V1.0.2/MSDK/wpa_supplicant/wpa_supplicant\op_classes.c **** 		 * so the center channel is 6 channels away from the start/end.
  62:C:/Users/stapi/OneDrive/Desktop/GD32VW553/V1_MQTT_OK/GD32VW55X_Wifi_BLE_SDK/GD32VW55x_RELEASE_V1.0.2/MSDK/wpa_supplicant/wpa_supplicant\op_classes.c **** 		 */
  63:C:/Users/stapi/OneDrive/Desktop/GD32VW553/V1_MQTT_OK/GD32VW55X_Wifi_BLE_SDK/GD32VW55x_RELEASE_V1.0.2/MSDK/wpa_supplicant/wpa_supplicant\op_classes.c **** 		if (channel >= center_channels[i] - 6 &&
  64:C:/Users/stapi/OneDrive/Desktop/GD32VW553/V1_MQTT_OK/GD32VW55X_Wifi_BLE_SDK/GD32VW55x_RELEASE_V1.0.2/MSDK/wpa_supplicant/wpa_supplicant\op_classes.c **** 		    channel <= center_channels[i] + 6)
  65:C:/Users/stapi/OneDrive/Desktop/GD32VW553/V1_MQTT_OK/GD32VW55X_Wifi_BLE_SDK/GD32VW55x_RELEASE_V1.0.2/MSDK/wpa_supplicant/wpa_supplicant\op_classes.c **** 			return center_channels[i];
  66:C:/Users/stapi/OneDrive/Desktop/GD32VW553/V1_MQTT_OK/GD32VW55X_Wifi_BLE_SDK/GD32VW55x_RELEASE_V1.0.2/MSDK/wpa_supplicant/wpa_supplicant\op_classes.c **** 	}
  67:C:/Users/stapi/OneDrive/Desktop/GD32VW553/V1_MQTT_OK/GD32VW55X_Wifi_BLE_SDK/GD32VW55x_RELEASE_V1.0.2/MSDK/wpa_supplicant/wpa_supplicant\op_classes.c **** 
  68:C:/Users/stapi/OneDrive/Desktop/GD32VW553/V1_MQTT_OK/GD32VW55X_Wifi_BLE_SDK/GD32VW55x_RELEASE_V1.0.2/MSDK/wpa_supplicant/wpa_supplicant\op_classes.c **** 	return 0;
  69:C:/Users/stapi/OneDrive/Desktop/GD32VW553/V1_MQTT_OK/GD32VW55X_Wifi_BLE_SDK/GD32VW55x_RELEASE_V1.0.2/MSDK/wpa_supplicant/wpa_supplicant\op_classes.c **** }
  70:C:/Users/stapi/OneDrive/Desktop/GD32VW553/V1_MQTT_OK/GD32VW55X_Wifi_BLE_SDK/GD32VW55x_RELEASE_V1.0.2/MSDK/wpa_supplicant/wpa_supplicant\op_classes.c **** 
  71:C:/Users/stapi/OneDrive/Desktop/GD32VW553/V1_MQTT_OK/GD32VW55X_Wifi_BLE_SDK/GD32VW55x_RELEASE_V1.0.2/MSDK/wpa_supplicant/wpa_supplicant\op_classes.c **** 
  72:C:/Users/stapi/OneDrive/Desktop/GD32VW553/V1_MQTT_OK/GD32VW55X_Wifi_BLE_SDK/GD32VW55x_RELEASE_V1.0.2/MSDK/wpa_supplicant/wpa_supplicant\op_classes.c **** static enum chan_allowed verify_80mhz(struct hostapd_hw_modes *mode,
  73:C:/Users/stapi/OneDrive/Desktop/GD32VW553/V1_MQTT_OK/GD32VW55X_Wifi_BLE_SDK/GD32VW55x_RELEASE_V1.0.2/MSDK/wpa_supplicant/wpa_supplicant\op_classes.c **** 				      u8 op_class, u8 channel)
  74:C:/Users/stapi/OneDrive/Desktop/GD32VW553/V1_MQTT_OK/GD32VW55X_Wifi_BLE_SDK/GD32VW55x_RELEASE_V1.0.2/MSDK/wpa_supplicant/wpa_supplicant\op_classes.c **** {
 140              		.loc 1 74 1 is_stmt 1
 141              		.cfi_startproc
 142              	.LVL12:
 143 0000 17030000 		call	t0,__riscv_save_12
 143      E7020300 
 144              		.cfi_offset 27, -52
 145              		.cfi_offset 26, -48
 146              		.cfi_offset 25, -44
 147              		.cfi_offset 24, -40
 148              		.cfi_offset 23, -36
 149              		.cfi_offset 22, -32
 150              		.cfi_offset 21, -28
 151              		.cfi_offset 20, -24
 152              		.cfi_offset 19, -20
 153              		.cfi_offset 18, -16
 154              		.cfi_offset 9, -12
 155              		.cfi_offset 8, -8
 156              		.cfi_offset 1, -4
 157              		.cfi_def_cfa_offset 64
  75:C:/Users/stapi/OneDrive/Desktop/GD32VW553/V1_MQTT_OK/GD32VW55X_Wifi_BLE_SDK/GD32VW55x_RELEASE_V1.0.2/MSDK/wpa_supplicant/wpa_supplicant\op_classes.c **** 	u8 center_chan;
 158              		.loc 1 75 2
  76:C:/Users/stapi/OneDrive/Desktop/GD32VW553/V1_MQTT_OK/GD32VW55X_Wifi_BLE_SDK/GD32VW55x_RELEASE_V1.0.2/MSDK/wpa_supplicant/wpa_supplicant\op_classes.c **** 	unsigned int i;
 159              		.loc 1 76 2
  77:C:/Users/stapi/OneDrive/Desktop/GD32VW553/V1_MQTT_OK/GD32VW55X_Wifi_BLE_SDK/GD32VW55x_RELEASE_V1.0.2/MSDK/wpa_supplicant/wpa_supplicant\op_classes.c **** 	unsigned int no_ir = 0;
 160              		.loc 1 77 2
 161              	.LVL13:
  78:C:/Users/stapi/OneDrive/Desktop/GD32VW553/V1_MQTT_OK/GD32VW55X_Wifi_BLE_SDK/GD32VW55x_RELEASE_V1.0.2/MSDK/wpa_supplicant/wpa_supplicant\op_classes.c **** 	const u8 *center_channels;
 162              		.loc 1 78 2
  79:C:/Users/stapi/OneDrive/Desktop/GD32VW553/V1_MQTT_OK/GD32VW55X_Wifi_BLE_SDK/GD32VW55x_RELEASE_V1.0.2/MSDK/wpa_supplicant/wpa_supplicant\op_classes.c **** 	size_t num_chan;
 163              		.loc 1 79 2
  80:C:/Users/stapi/OneDrive/Desktop/GD32VW553/V1_MQTT_OK/GD32VW55X_Wifi_BLE_SDK/GD32VW55x_RELEASE_V1.0.2/MSDK/wpa_supplicant/wpa_supplicant\op_classes.c **** 	const u8 center_channels_5ghz[] = { 42, 58, 106, 122, 138, 155, 171 };
 164              		.loc 1 80 2
  74:C:/Users/stapi/OneDrive/Desktop/GD32VW553/V1_MQTT_OK/GD32VW55X_Wifi_BLE_SDK/GD32VW55x_RELEASE_V1.0.2/MSDK/wpa_supplicant/wpa_supplicant\op_classes.c **** 	u8 center_chan;
 165              		.loc 1 74 1 is_stmt 0
 166 0008 0111     		addi	sp,sp,-32
 167              		.cfi_def_cfa_offset 96
  74:C:/Users/stapi/OneDrive/Desktop/GD32VW553/V1_MQTT_OK/GD32VW55X_Wifi_BLE_SDK/GD32VW55x_RELEASE_V1.0.2/MSDK/wpa_supplicant/wpa_supplicant\op_classes.c **** 	u8 center_chan;
 168              		.loc 1 74 1
 169 000a 2E8A     		mv	s4,a1
 170              		.loc 1 80 11
 171 000c B7050000 		lui	a1,%hi(.LC0)
 172              	.LVL14:
 173 0010 93850500 		addi	a1,a1,%lo(.LC0)
  74:C:/Users/stapi/OneDrive/Desktop/GD32VW553/V1_MQTT_OK/GD32VW55X_Wifi_BLE_SDK/GD32VW55x_RELEASE_V1.0.2/MSDK/wpa_supplicant/wpa_supplicant\op_classes.c **** 	u8 center_chan;
 174              		.loc 1 74 1
 175 0014 AA89     		mv	s3,a0
 176 0016 3284     		mv	s0,a2
 177              		.loc 1 80 11
 178 0018 2800     		addi	a0,sp,8
 179              	.LVL15:
 180 001a 1D46     		li	a2,7
 181              	.LVL16:
 182 001c 97000000 		call	memcpy
 182      E7800000 
 183              	.LVL17:
  81:C:/Users/stapi/OneDrive/Desktop/GD32VW553/V1_MQTT_OK/GD32VW55X_Wifi_BLE_SDK/GD32VW55x_RELEASE_V1.0.2/MSDK/wpa_supplicant/wpa_supplicant\op_classes.c **** 	const u8 center_channels_6ghz[] = { 7, 23, 39, 55, 71, 87, 103, 119,
 184              		.loc 1 81 2 is_stmt 1
 185              		.loc 1 81 11 is_stmt 0
 186 0024 B7050000 		lui	a1,%hi(.LC1)
 187 0028 3946     		li	a2,14
 188 002a 93850500 		addi	a1,a1,%lo(.LC1)
 189 002e 0808     		addi	a0,sp,16
 190 0030 97000000 		call	memcpy
 190      E7800000 
 191              	.LVL18:
  82:C:/Users/stapi/OneDrive/Desktop/GD32VW553/V1_MQTT_OK/GD32VW55X_Wifi_BLE_SDK/GD32VW55x_RELEASE_V1.0.2/MSDK/wpa_supplicant/wpa_supplicant\op_classes.c **** 					    135, 151, 167, 183, 199, 215 };
  83:C:/Users/stapi/OneDrive/Desktop/GD32VW553/V1_MQTT_OK/GD32VW55X_Wifi_BLE_SDK/GD32VW55x_RELEASE_V1.0.2/MSDK/wpa_supplicant/wpa_supplicant\op_classes.c **** 
  84:C:/Users/stapi/OneDrive/Desktop/GD32VW553/V1_MQTT_OK/GD32VW55X_Wifi_BLE_SDK/GD32VW55x_RELEASE_V1.0.2/MSDK/wpa_supplicant/wpa_supplicant\op_classes.c **** 	if (is_6ghz_op_class(op_class)) {
 192              		.loc 1 84 2 is_stmt 1
 193              		.loc 1 84 6 is_stmt 0
 194 0038 5285     		mv	a0,s4
 195 003a 97000000 		call	is_6ghz_op_class
 195      E7800000 
 196              	.LVL19:
 197              		.loc 1 84 5
 198 0042 1DE9     		bne	a0,zero,.L31
  85:C:/Users/stapi/OneDrive/Desktop/GD32VW553/V1_MQTT_OK/GD32VW55X_Wifi_BLE_SDK/GD32VW55x_RELEASE_V1.0.2/MSDK/wpa_supplicant/wpa_supplicant\op_classes.c **** 		center_channels = center_channels_6ghz;
  86:C:/Users/stapi/OneDrive/Desktop/GD32VW553/V1_MQTT_OK/GD32VW55X_Wifi_BLE_SDK/GD32VW55x_RELEASE_V1.0.2/MSDK/wpa_supplicant/wpa_supplicant\op_classes.c **** 		num_chan = ARRAY_SIZE(center_channels_6ghz);
  87:C:/Users/stapi/OneDrive/Desktop/GD32VW553/V1_MQTT_OK/GD32VW55X_Wifi_BLE_SDK/GD32VW55x_RELEASE_V1.0.2/MSDK/wpa_supplicant/wpa_supplicant\op_classes.c **** 	} else {
  88:C:/Users/stapi/OneDrive/Desktop/GD32VW553/V1_MQTT_OK/GD32VW55X_Wifi_BLE_SDK/GD32VW55x_RELEASE_V1.0.2/MSDK/wpa_supplicant/wpa_supplicant\op_classes.c **** 		center_channels = center_channels_5ghz;
  89:C:/Users/stapi/OneDrive/Desktop/GD32VW553/V1_MQTT_OK/GD32VW55X_Wifi_BLE_SDK/GD32VW55x_RELEASE_V1.0.2/MSDK/wpa_supplicant/wpa_supplicant\op_classes.c **** 		num_chan = ARRAY_SIZE(center_channels_5ghz);
 199              		.loc 1 89 12
 200 0044 1D46     		li	a2,7
  88:C:/Users/stapi/OneDrive/Desktop/GD32VW553/V1_MQTT_OK/GD32VW55X_Wifi_BLE_SDK/GD32VW55x_RELEASE_V1.0.2/MSDK/wpa_supplicant/wpa_supplicant\op_classes.c **** 		num_chan = ARRAY_SIZE(center_channels_5ghz);
 201              		.loc 1 88 19
 202 0046 3C00     		addi	a5,sp,8
 203              	.L18:
 204              	.LVL20:
  90:C:/Users/stapi/OneDrive/Desktop/GD32VW553/V1_MQTT_OK/GD32VW55X_Wifi_BLE_SDK/GD32VW55x_RELEASE_V1.0.2/MSDK/wpa_supplicant/wpa_supplicant\op_classes.c **** 	}
  91:C:/Users/stapi/OneDrive/Desktop/GD32VW553/V1_MQTT_OK/GD32VW55X_Wifi_BLE_SDK/GD32VW55x_RELEASE_V1.0.2/MSDK/wpa_supplicant/wpa_supplicant\op_classes.c **** 
  92:C:/Users/stapi/OneDrive/Desktop/GD32VW553/V1_MQTT_OK/GD32VW55X_Wifi_BLE_SDK/GD32VW55x_RELEASE_V1.0.2/MSDK/wpa_supplicant/wpa_supplicant\op_classes.c **** 	center_chan = get_center_80mhz(mode, channel, center_channels,
 205              		.loc 1 92 2 is_stmt 1
 206              	.LBB11:
 207              	.LBB12:
  53:C:/Users/stapi/OneDrive/Desktop/GD32VW553/V1_MQTT_OK/GD32VW55X_Wifi_BLE_SDK/GD32VW55x_RELEASE_V1.0.2/MSDK/wpa_supplicant/wpa_supplicant\op_classes.c **** 
 208              		.loc 1 53 2
  55:C:/Users/stapi/OneDrive/Desktop/GD32VW553/V1_MQTT_OK/GD32VW55X_Wifi_BLE_SDK/GD32VW55x_RELEASE_V1.0.2/MSDK/wpa_supplicant/wpa_supplicant\op_classes.c **** 		return 0;
 209              		.loc 1 55 2
  55:C:/Users/stapi/OneDrive/Desktop/GD32VW553/V1_MQTT_OK/GD32VW55X_Wifi_BLE_SDK/GD32VW55x_RELEASE_V1.0.2/MSDK/wpa_supplicant/wpa_supplicant\op_classes.c **** 		return 0;
 210              		.loc 1 55 5 is_stmt 0
 211 0048 83A60900 		lw	a3,0(s3)
 212 004c 0947     		li	a4,2
 213              	.LBE12:
 214              	.LBE11:
  93:C:/Users/stapi/OneDrive/Desktop/GD32VW553/V1_MQTT_OK/GD32VW55X_Wifi_BLE_SDK/GD32VW55x_RELEASE_V1.0.2/MSDK/wpa_supplicant/wpa_supplicant\op_classes.c **** 				       num_chan);
  94:C:/Users/stapi/OneDrive/Desktop/GD32VW553/V1_MQTT_OK/GD32VW55X_Wifi_BLE_SDK/GD32VW55x_RELEASE_V1.0.2/MSDK/wpa_supplicant/wpa_supplicant\op_classes.c **** 	if (!center_chan)
  95:C:/Users/stapi/OneDrive/Desktop/GD32VW553/V1_MQTT_OK/GD32VW55X_Wifi_BLE_SDK/GD32VW55x_RELEASE_V1.0.2/MSDK/wpa_supplicant/wpa_supplicant\op_classes.c **** 		return NOT_ALLOWED;
 215              		.loc 1 95 10
 216 004e 8144     		li	s1,0
 217              	.LBB14:
 218              	.LBB13:
  55:C:/Users/stapi/OneDrive/Desktop/GD32VW553/V1_MQTT_OK/GD32VW55X_Wifi_BLE_SDK/GD32VW55x_RELEASE_V1.0.2/MSDK/wpa_supplicant/wpa_supplicant\op_classes.c **** 		return 0;
 219              		.loc 1 55 5
 220 0050 639AE608 		bne	a3,a4,.L17
  58:C:/Users/stapi/OneDrive/Desktop/GD32VW553/V1_MQTT_OK/GD32VW55X_Wifi_BLE_SDK/GD32VW55x_RELEASE_V1.0.2/MSDK/wpa_supplicant/wpa_supplicant\op_classes.c **** 		/*
 221              		.loc 1 58 9
 222 0054 8146     		li	a3,0
 223              	.L22:
 224              	.LVL21:
  63:C:/Users/stapi/OneDrive/Desktop/GD32VW553/V1_MQTT_OK/GD32VW55X_Wifi_BLE_SDK/GD32VW55x_RELEASE_V1.0.2/MSDK/wpa_supplicant/wpa_supplicant\op_classes.c **** 		    channel <= center_channels[i] + 6)
 225              		.loc 1 63 3 is_stmt 1
  63:C:/Users/stapi/OneDrive/Desktop/GD32VW553/V1_MQTT_OK/GD32VW55X_Wifi_BLE_SDK/GD32VW55x_RELEASE_V1.0.2/MSDK/wpa_supplicant/wpa_supplicant\op_classes.c **** 		    channel <= center_channels[i] + 6)
 226              		.loc 1 63 33 is_stmt 0
 227 0056 3387D700 		add	a4,a5,a3
 228 005a 03470700 		lbu	a4,0(a4)
  63:C:/Users/stapi/OneDrive/Desktop/GD32VW553/V1_MQTT_OK/GD32VW55X_Wifi_BLE_SDK/GD32VW55x_RELEASE_V1.0.2/MSDK/wpa_supplicant/wpa_supplicant\op_classes.c **** 		    channel <= center_channels[i] + 6)
 229              		.loc 1 63 37
 230 005e 9305A7FF 		addi	a1,a4,-6
  63:C:/Users/stapi/OneDrive/Desktop/GD32VW553/V1_MQTT_OK/GD32VW55X_Wifi_BLE_SDK/GD32VW55x_RELEASE_V1.0.2/MSDK/wpa_supplicant/wpa_supplicant\op_classes.c **** 		    channel <= center_channels[i] + 6)
 231              		.loc 1 63 6
 232 0062 6346B400 		blt	s0,a1,.L20
  64:C:/Users/stapi/OneDrive/Desktop/GD32VW553/V1_MQTT_OK/GD32VW55X_Wifi_BLE_SDK/GD32VW55x_RELEASE_V1.0.2/MSDK/wpa_supplicant/wpa_supplicant\op_classes.c **** 			return center_channels[i];
 233              		.loc 1 64 37
 234 0066 93056700 		addi	a1,a4,6
  63:C:/Users/stapi/OneDrive/Desktop/GD32VW553/V1_MQTT_OK/GD32VW55X_Wifi_BLE_SDK/GD32VW55x_RELEASE_V1.0.2/MSDK/wpa_supplicant/wpa_supplicant\op_classes.c **** 		    channel <= center_channels[i] + 6)
 235              		.loc 1 63 41
 236 006a 63DA8500 		ble	s0,a1,.L21
 237              	.L20:
  58:C:/Users/stapi/OneDrive/Desktop/GD32VW553/V1_MQTT_OK/GD32VW55X_Wifi_BLE_SDK/GD32VW55x_RELEASE_V1.0.2/MSDK/wpa_supplicant/wpa_supplicant\op_classes.c **** 		/*
 238              		.loc 1 58 28 is_stmt 1
  58:C:/Users/stapi/OneDrive/Desktop/GD32VW553/V1_MQTT_OK/GD32VW55X_Wifi_BLE_SDK/GD32VW55x_RELEASE_V1.0.2/MSDK/wpa_supplicant/wpa_supplicant\op_classes.c **** 		/*
 239              		.loc 1 58 29 is_stmt 0
 240 006e 8506     		addi	a3,a3,1
 241              	.LVL22:
  58:C:/Users/stapi/OneDrive/Desktop/GD32VW553/V1_MQTT_OK/GD32VW55X_Wifi_BLE_SDK/GD32VW55x_RELEASE_V1.0.2/MSDK/wpa_supplicant/wpa_supplicant\op_classes.c **** 		/*
 242              		.loc 1 58 14 is_stmt 1
  58:C:/Users/stapi/OneDrive/Desktop/GD32VW553/V1_MQTT_OK/GD32VW55X_Wifi_BLE_SDK/GD32VW55x_RELEASE_V1.0.2/MSDK/wpa_supplicant/wpa_supplicant\op_classes.c **** 		/*
 243              		.loc 1 58 2 is_stmt 0
 244 0070 E313D6FE 		bne	a2,a3,.L22
 245              	.LVL23:
 246              	.L33:
 247              	.LBE13:
 248              	.LBE14:
 249              		.loc 1 95 10
 250 0074 8144     		li	s1,0
 251 0076 BDA0     		j	.L17
 252              	.LVL24:
 253              	.L31:
  86:C:/Users/stapi/OneDrive/Desktop/GD32VW553/V1_MQTT_OK/GD32VW55X_Wifi_BLE_SDK/GD32VW55x_RELEASE_V1.0.2/MSDK/wpa_supplicant/wpa_supplicant\op_classes.c **** 	} else {
 254              		.loc 1 86 12
 255 0078 3946     		li	a2,14
  85:C:/Users/stapi/OneDrive/Desktop/GD32VW553/V1_MQTT_OK/GD32VW55X_Wifi_BLE_SDK/GD32VW55x_RELEASE_V1.0.2/MSDK/wpa_supplicant/wpa_supplicant\op_classes.c **** 		num_chan = ARRAY_SIZE(center_channels_6ghz);
 256              		.loc 1 85 19
 257 007a 1C08     		addi	a5,sp,16
 258 007c F1B7     		j	.L18
 259              	.LVL25:
 260              	.L21:
  92:C:/Users/stapi/OneDrive/Desktop/GD32VW553/V1_MQTT_OK/GD32VW55X_Wifi_BLE_SDK/GD32VW55x_RELEASE_V1.0.2/MSDK/wpa_supplicant/wpa_supplicant\op_classes.c **** 				       num_chan);
 261              		.loc 1 92 14
 262 007e 1374F70F 		andi	s0,a4,0xff
 263              	.LVL26:
  94:C:/Users/stapi/OneDrive/Desktop/GD32VW553/V1_MQTT_OK/GD32VW55X_Wifi_BLE_SDK/GD32VW55x_RELEASE_V1.0.2/MSDK/wpa_supplicant/wpa_supplicant\op_classes.c **** 		return NOT_ALLOWED;
 264              		.loc 1 94 2 is_stmt 1
  94:C:/Users/stapi/OneDrive/Desktop/GD32VW553/V1_MQTT_OK/GD32VW55X_Wifi_BLE_SDK/GD32VW55x_RELEASE_V1.0.2/MSDK/wpa_supplicant/wpa_supplicant\op_classes.c **** 		return NOT_ALLOWED;
 265              		.loc 1 94 5 is_stmt 0
 266 0082 6DDB     		beq	a4,zero,.L33
 267 0084 6914     		addi	s0,s0,-6
 268              	.LVL27:
 269              	.LBB15:
  96:C:/Users/stapi/OneDrive/Desktop/GD32VW553/V1_MQTT_OK/GD32VW55X_Wifi_BLE_SDK/GD32VW55x_RELEASE_V1.0.2/MSDK/wpa_supplicant/wpa_supplicant\op_classes.c **** 
  97:C:/Users/stapi/OneDrive/Desktop/GD32VW553/V1_MQTT_OK/GD32VW55X_Wifi_BLE_SDK/GD32VW55x_RELEASE_V1.0.2/MSDK/wpa_supplicant/wpa_supplicant\op_classes.c **** 	/* check all the channels are available */
  98:C:/Users/stapi/OneDrive/Desktop/GD32VW553/V1_MQTT_OK/GD32VW55X_Wifi_BLE_SDK/GD32VW55x_RELEASE_V1.0.2/MSDK/wpa_supplicant/wpa_supplicant\op_classes.c **** 	for (i = 0; i < 4; i++) {
  99:C:/Users/stapi/OneDrive/Desktop/GD32VW553/V1_MQTT_OK/GD32VW55X_Wifi_BLE_SDK/GD32VW55x_RELEASE_V1.0.2/MSDK/wpa_supplicant/wpa_supplicant\op_classes.c **** 		unsigned int flags;
 100:C:/Users/stapi/OneDrive/Desktop/GD32VW553/V1_MQTT_OK/GD32VW55X_Wifi_BLE_SDK/GD32VW55x_RELEASE_V1.0.2/MSDK/wpa_supplicant/wpa_supplicant\op_classes.c **** 		u8 adj_chan = center_chan - 6 + i * 4;
 101:C:/Users/stapi/OneDrive/Desktop/GD32VW553/V1_MQTT_OK/GD32VW55X_Wifi_BLE_SDK/GD32VW55x_RELEASE_V1.0.2/MSDK/wpa_supplicant/wpa_supplicant\op_classes.c **** 
 102:C:/Users/stapi/OneDrive/Desktop/GD32VW553/V1_MQTT_OK/GD32VW55X_Wifi_BLE_SDK/GD32VW55x_RELEASE_V1.0.2/MSDK/wpa_supplicant/wpa_supplicant\op_classes.c **** 		if (allow_channel(mode, op_class, adj_chan, &flags) ==
 103:C:/Users/stapi/OneDrive/Desktop/GD32VW553/V1_MQTT_OK/GD32VW55X_Wifi_BLE_SDK/GD32VW55x_RELEASE_V1.0.2/MSDK/wpa_supplicant/wpa_supplicant\op_classes.c **** 		    NOT_ALLOWED)
 104:C:/Users/stapi/OneDrive/Desktop/GD32VW553/V1_MQTT_OK/GD32VW55X_Wifi_BLE_SDK/GD32VW55x_RELEASE_V1.0.2/MSDK/wpa_supplicant/wpa_supplicant\op_classes.c **** 			return NOT_ALLOWED;
 105:C:/Users/stapi/OneDrive/Desktop/GD32VW553/V1_MQTT_OK/GD32VW55X_Wifi_BLE_SDK/GD32VW55x_RELEASE_V1.0.2/MSDK/wpa_supplicant/wpa_supplicant\op_classes.c **** 
 106:C:/Users/stapi/OneDrive/Desktop/GD32VW553/V1_MQTT_OK/GD32VW55X_Wifi_BLE_SDK/GD32VW55x_RELEASE_V1.0.2/MSDK/wpa_supplicant/wpa_supplicant\op_classes.c **** 		if ((i == 0 && !(flags & HOSTAPD_CHAN_VHT_10_70)) ||
 107:C:/Users/stapi/OneDrive/Desktop/GD32VW553/V1_MQTT_OK/GD32VW55X_Wifi_BLE_SDK/GD32VW55x_RELEASE_V1.0.2/MSDK/wpa_supplicant/wpa_supplicant\op_classes.c **** 		    (i == 1 && !(flags & HOSTAPD_CHAN_VHT_30_50)) ||
 270              		.loc 1 107 26
 271 0086 856A     		li	s5,4096
 272 0088 1374F40F 		andi	s0,s0,0xff
 273              	.LVL28:
 274              	.LBE15:
  77:C:/Users/stapi/OneDrive/Desktop/GD32VW553/V1_MQTT_OK/GD32VW55X_Wifi_BLE_SDK/GD32VW55x_RELEASE_V1.0.2/MSDK/wpa_supplicant/wpa_supplicant\op_classes.c **** 	const u8 *center_channels;
 275              		.loc 1 77 15
 276 008c 8144     		li	s1,0
  98:C:/Users/stapi/OneDrive/Desktop/GD32VW553/V1_MQTT_OK/GD32VW55X_Wifi_BLE_SDK/GD32VW55x_RELEASE_V1.0.2/MSDK/wpa_supplicant/wpa_supplicant\op_classes.c **** 		unsigned int flags;
 277              		.loc 1 98 9
 278 008e 0149     		li	s2,0
 279              	.LBB16:
 106:C:/Users/stapi/OneDrive/Desktop/GD32VW553/V1_MQTT_OK/GD32VW55X_Wifi_BLE_SDK/GD32VW55x_RELEASE_V1.0.2/MSDK/wpa_supplicant/wpa_supplicant\op_classes.c **** 		    (i == 1 && !(flags & HOSTAPD_CHAN_VHT_30_50)) ||
 280              		.loc 1 106 53
 281 0090 854B     		li	s7,1
 282              		.loc 1 107 53
 283 0092 094C     		li	s8,2
 108:C:/Users/stapi/OneDrive/Desktop/GD32VW553/V1_MQTT_OK/GD32VW55X_Wifi_BLE_SDK/GD32VW55x_RELEASE_V1.0.2/MSDK/wpa_supplicant/wpa_supplicant\op_classes.c **** 		    (i == 2 && !(flags & HOSTAPD_CHAN_VHT_50_30)) ||
 109:C:/Users/stapi/OneDrive/Desktop/GD32VW553/V1_MQTT_OK/GD32VW55X_Wifi_BLE_SDK/GD32VW55x_RELEASE_V1.0.2/MSDK/wpa_supplicant/wpa_supplicant\op_classes.c **** 		    (i == 3 && !(flags & HOSTAPD_CHAN_VHT_70_10)))
 284              		.loc 1 109 26
 285 0094 916C     		li	s9,16384
 108:C:/Users/stapi/OneDrive/Desktop/GD32VW553/V1_MQTT_OK/GD32VW55X_Wifi_BLE_SDK/GD32VW55x_RELEASE_V1.0.2/MSDK/wpa_supplicant/wpa_supplicant\op_classes.c **** 		    (i == 2 && !(flags & HOSTAPD_CHAN_VHT_50_30)) ||
 286              		.loc 1 108 26
 287 0096 096D     		li	s10,8192
 106:C:/Users/stapi/OneDrive/Desktop/GD32VW553/V1_MQTT_OK/GD32VW55X_Wifi_BLE_SDK/GD32VW55x_RELEASE_V1.0.2/MSDK/wpa_supplicant/wpa_supplicant\op_classes.c **** 		    (i == 1 && !(flags & HOSTAPD_CHAN_VHT_30_50)) ||
 288              		.loc 1 106 26
 289 0098 938D0A80 		addi	s11,s5,-2048
 290              	.LBE16:
  98:C:/Users/stapi/OneDrive/Desktop/GD32VW553/V1_MQTT_OK/GD32VW55X_Wifi_BLE_SDK/GD32VW55x_RELEASE_V1.0.2/MSDK/wpa_supplicant/wpa_supplicant\op_classes.c **** 		unsigned int flags;
 291              		.loc 1 98 2
 292 009c 114B     		li	s6,4
 293              	.LVL29:
 294              	.L29:
 295              	.LBB17:
  99:C:/Users/stapi/OneDrive/Desktop/GD32VW553/V1_MQTT_OK/GD32VW55X_Wifi_BLE_SDK/GD32VW55x_RELEASE_V1.0.2/MSDK/wpa_supplicant/wpa_supplicant\op_classes.c **** 		u8 adj_chan = center_chan - 6 + i * 4;
 296              		.loc 1 99 3 is_stmt 1
 100:C:/Users/stapi/OneDrive/Desktop/GD32VW553/V1_MQTT_OK/GD32VW55X_Wifi_BLE_SDK/GD32VW55x_RELEASE_V1.0.2/MSDK/wpa_supplicant/wpa_supplicant\op_classes.c **** 
 297              		.loc 1 100 3
 102:C:/Users/stapi/OneDrive/Desktop/GD32VW553/V1_MQTT_OK/GD32VW55X_Wifi_BLE_SDK/GD32VW55x_RELEASE_V1.0.2/MSDK/wpa_supplicant/wpa_supplicant\op_classes.c **** 		    NOT_ALLOWED)
 298              		.loc 1 102 3
 102:C:/Users/stapi/OneDrive/Desktop/GD32VW553/V1_MQTT_OK/GD32VW55X_Wifi_BLE_SDK/GD32VW55x_RELEASE_V1.0.2/MSDK/wpa_supplicant/wpa_supplicant\op_classes.c **** 		    NOT_ALLOWED)
 299              		.loc 1 102 7 is_stmt 0
 300 009e 5400     		addi	a3,sp,4
 301 00a0 2286     		mv	a2,s0
 302 00a2 D285     		mv	a1,s4
 303 00a4 4E85     		mv	a0,s3
 304 00a6 97000000 		call	allow_channel
 304      E7800000 
 305              	.LVL30:
 102:C:/Users/stapi/OneDrive/Desktop/GD32VW553/V1_MQTT_OK/GD32VW55X_Wifi_BLE_SDK/GD32VW55x_RELEASE_V1.0.2/MSDK/wpa_supplicant/wpa_supplicant\op_classes.c **** 		    NOT_ALLOWED)
 306              		.loc 1 102 6
 307 00ae 79D1     		beq	a0,zero,.L33
 106:C:/Users/stapi/OneDrive/Desktop/GD32VW553/V1_MQTT_OK/GD32VW55X_Wifi_BLE_SDK/GD32VW55x_RELEASE_V1.0.2/MSDK/wpa_supplicant/wpa_supplicant\op_classes.c **** 		    (i == 1 && !(flags & HOSTAPD_CHAN_VHT_30_50)) ||
 308              		.loc 1 106 3 is_stmt 1
 106:C:/Users/stapi/OneDrive/Desktop/GD32VW553/V1_MQTT_OK/GD32VW55X_Wifi_BLE_SDK/GD32VW55x_RELEASE_V1.0.2/MSDK/wpa_supplicant/wpa_supplicant\op_classes.c **** 		    (i == 1 && !(flags & HOSTAPD_CHAN_VHT_30_50)) ||
 309              		.loc 1 106 26 is_stmt 0
 310 00b0 9247     		lw	a5,4(sp)
 311 00b2 33F7B701 		and	a4,a5,s11
 106:C:/Users/stapi/OneDrive/Desktop/GD32VW553/V1_MQTT_OK/GD32VW55X_Wifi_BLE_SDK/GD32VW55x_RELEASE_V1.0.2/MSDK/wpa_supplicant/wpa_supplicant\op_classes.c **** 		    (i == 1 && !(flags & HOSTAPD_CHAN_VHT_30_50)) ||
 312              		.loc 1 106 6
 313 00b6 630C0900 		beq	s2,zero,.L59
 107:C:/Users/stapi/OneDrive/Desktop/GD32VW553/V1_MQTT_OK/GD32VW55X_Wifi_BLE_SDK/GD32VW55x_RELEASE_V1.0.2/MSDK/wpa_supplicant/wpa_supplicant\op_classes.c **** 		    (i == 2 && !(flags & HOSTAPD_CHAN_VHT_50_30)) ||
 314              		.loc 1 107 26 discriminator 3
 315 00ba 33F75701 		and	a4,a5,s5
 106:C:/Users/stapi/OneDrive/Desktop/GD32VW553/V1_MQTT_OK/GD32VW55X_Wifi_BLE_SDK/GD32VW55x_RELEASE_V1.0.2/MSDK/wpa_supplicant/wpa_supplicant\op_classes.c **** 		    (i == 1 && !(flags & HOSTAPD_CHAN_VHT_30_50)) ||
 316              		.loc 1 106 53 discriminator 3
 317 00be 63087901 		beq	s2,s7,.L59
 108:C:/Users/stapi/OneDrive/Desktop/GD32VW553/V1_MQTT_OK/GD32VW55X_Wifi_BLE_SDK/GD32VW55x_RELEASE_V1.0.2/MSDK/wpa_supplicant/wpa_supplicant\op_classes.c **** 		    (i == 3 && !(flags & HOSTAPD_CHAN_VHT_70_10)))
 318              		.loc 1 108 26 discriminator 1
 319 00c2 33F7A701 		and	a4,a5,s10
 107:C:/Users/stapi/OneDrive/Desktop/GD32VW553/V1_MQTT_OK/GD32VW55X_Wifi_BLE_SDK/GD32VW55x_RELEASE_V1.0.2/MSDK/wpa_supplicant/wpa_supplicant\op_classes.c **** 		    (i == 2 && !(flags & HOSTAPD_CHAN_VHT_50_30)) ||
 320              		.loc 1 107 53 discriminator 1
 321 00c6 63048901 		beq	s2,s8,.L59
 322              		.loc 1 109 26
 323 00ca 33F79701 		and	a4,a5,s9
 324              	.L59:
 325              		.loc 1 109 15
 326 00ce 5DD3     		beq	a4,zero,.L33
 110:C:/Users/stapi/OneDrive/Desktop/GD32VW553/V1_MQTT_OK/GD32VW55X_Wifi_BLE_SDK/GD32VW55x_RELEASE_V1.0.2/MSDK/wpa_supplicant/wpa_supplicant\op_classes.c **** 			return NOT_ALLOWED;
 111:C:/Users/stapi/OneDrive/Desktop/GD32VW553/V1_MQTT_OK/GD32VW55X_Wifi_BLE_SDK/GD32VW55x_RELEASE_V1.0.2/MSDK/wpa_supplicant/wpa_supplicant\op_classes.c **** 
 112:C:/Users/stapi/OneDrive/Desktop/GD32VW553/V1_MQTT_OK/GD32VW55X_Wifi_BLE_SDK/GD32VW55x_RELEASE_V1.0.2/MSDK/wpa_supplicant/wpa_supplicant\op_classes.c **** 		if (flags & HOSTAPD_CHAN_NO_IR)
 327              		.loc 1 112 3 is_stmt 1
 328              		.loc 1 112 13 is_stmt 0
 329 00d0 898B     		andi	a5,a5,2
 330              		.loc 1 112 6
 331 00d2 91C3     		beq	a5,zero,.L28
 113:C:/Users/stapi/OneDrive/Desktop/GD32VW553/V1_MQTT_OK/GD32VW55X_Wifi_BLE_SDK/GD32VW55x_RELEASE_V1.0.2/MSDK/wpa_supplicant/wpa_supplicant\op_classes.c **** 			no_ir = 1;
 332              		.loc 1 113 10
 333 00d4 8544     		li	s1,1
 334              	.LVL31:
 335              	.L28:
 336              	.LBE17:
  98:C:/Users/stapi/OneDrive/Desktop/GD32VW553/V1_MQTT_OK/GD32VW55X_Wifi_BLE_SDK/GD32VW55x_RELEASE_V1.0.2/MSDK/wpa_supplicant/wpa_supplicant\op_classes.c **** 		unsigned int flags;
 337              		.loc 1 98 21 is_stmt 1
  98:C:/Users/stapi/OneDrive/Desktop/GD32VW553/V1_MQTT_OK/GD32VW55X_Wifi_BLE_SDK/GD32VW55x_RELEASE_V1.0.2/MSDK/wpa_supplicant/wpa_supplicant\op_classes.c **** 		unsigned int flags;
 338              		.loc 1 98 2 is_stmt 0
 339 00d6 1104     		addi	s0,s0,4
 340              	.LVL32:
  98:C:/Users/stapi/OneDrive/Desktop/GD32VW553/V1_MQTT_OK/GD32VW55X_Wifi_BLE_SDK/GD32VW55x_RELEASE_V1.0.2/MSDK/wpa_supplicant/wpa_supplicant\op_classes.c **** 		unsigned int flags;
 341              		.loc 1 98 22
 342 00d8 0509     		addi	s2,s2,1
 343              	.LVL33:
  98:C:/Users/stapi/OneDrive/Desktop/GD32VW553/V1_MQTT_OK/GD32VW55X_Wifi_BLE_SDK/GD32VW55x_RELEASE_V1.0.2/MSDK/wpa_supplicant/wpa_supplicant\op_classes.c **** 		unsigned int flags;
 344              		.loc 1 98 14 is_stmt 1
  98:C:/Users/stapi/OneDrive/Desktop/GD32VW553/V1_MQTT_OK/GD32VW55X_Wifi_BLE_SDK/GD32VW55x_RELEASE_V1.0.2/MSDK/wpa_supplicant/wpa_supplicant\op_classes.c **** 		unsigned int flags;
 345              		.loc 1 98 2 is_stmt 0
 346 00da 1374F40F 		andi	s0,s0,0xff
 347 00de E31069FD 		bne	s2,s6,.L29
 348              	.LVL34:
 114:C:/Users/stapi/OneDrive/Desktop/GD32VW553/V1_MQTT_OK/GD32VW55X_Wifi_BLE_SDK/GD32VW55x_RELEASE_V1.0.2/MSDK/wpa_supplicant/wpa_supplicant\op_classes.c **** 	}
 115:C:/Users/stapi/OneDrive/Desktop/GD32VW553/V1_MQTT_OK/GD32VW55X_Wifi_BLE_SDK/GD32VW55x_RELEASE_V1.0.2/MSDK/wpa_supplicant/wpa_supplicant\op_classes.c **** 
 116:C:/Users/stapi/OneDrive/Desktop/GD32VW553/V1_MQTT_OK/GD32VW55X_Wifi_BLE_SDK/GD32VW55x_RELEASE_V1.0.2/MSDK/wpa_supplicant/wpa_supplicant\op_classes.c **** 	if (no_ir)
 349              		.loc 1 116 2 is_stmt 1
 350              		.loc 1 116 5 is_stmt 0
 351 00e2 99C4     		beq	s1,zero,.L34
 352              	.LVL35:
 353              	.L17:
 117:C:/Users/stapi/OneDrive/Desktop/GD32VW553/V1_MQTT_OK/GD32VW55X_Wifi_BLE_SDK/GD32VW55x_RELEASE_V1.0.2/MSDK/wpa_supplicant/wpa_supplicant\op_classes.c **** 		return NO_IR;
 118:C:/Users/stapi/OneDrive/Desktop/GD32VW553/V1_MQTT_OK/GD32VW55X_Wifi_BLE_SDK/GD32VW55x_RELEASE_V1.0.2/MSDK/wpa_supplicant/wpa_supplicant\op_classes.c **** 
 119:C:/Users/stapi/OneDrive/Desktop/GD32VW553/V1_MQTT_OK/GD32VW55X_Wifi_BLE_SDK/GD32VW55x_RELEASE_V1.0.2/MSDK/wpa_supplicant/wpa_supplicant\op_classes.c **** 	return ALLOWED;
 120:C:/Users/stapi/OneDrive/Desktop/GD32VW553/V1_MQTT_OK/GD32VW55X_Wifi_BLE_SDK/GD32VW55x_RELEASE_V1.0.2/MSDK/wpa_supplicant/wpa_supplicant\op_classes.c **** }
 354              		.loc 1 120 1
 355 00e4 2685     		mv	a0,s1
 356 00e6 0561     		addi	sp,sp,32
 357              		.cfi_remember_state
 358              		.cfi_def_cfa_offset 0
 359 00e8 17030000 		tail	__riscv_restore_12
 359      67000300 
 360              		.cfi_restore 27
 361              		.cfi_restore 26
 362              		.cfi_restore 25
 363              		.cfi_restore 24
 364              		.cfi_restore 23
 365              		.cfi_restore 22
 366              		.cfi_restore 21
 367              		.cfi_restore 20
 368              		.cfi_restore 19
 369              		.cfi_restore 18
 370              		.cfi_restore 9
 371              		.cfi_restore 8
 372              		.cfi_restore 1
 373              		.cfi_def_cfa_offset -64
 374              	.LVL36:
 375              	.L34:
 376              		.cfi_restore_state
 119:C:/Users/stapi/OneDrive/Desktop/GD32VW553/V1_MQTT_OK/GD32VW55X_Wifi_BLE_SDK/GD32VW55x_RELEASE_V1.0.2/MSDK/wpa_supplicant/wpa_supplicant\op_classes.c **** }
 377              		.loc 1 119 9
 378 00f0 8D44     		li	s1,3
 379              	.LVL37:
 380 00f2 CDBF     		j	.L17
 381              		.cfi_endproc
 382              	.LFE143:
 384              		.section	.rodata.verify_channel.str1.4,"aMS",@progbits,1
 385              		.align	2
 386              	.LC2:
 387 0000 0F2F4F6F 		.string	"\017/Oo\217\257\317"
 387      8FAFCF00 
 388              		.section	.text.verify_channel,"ax",@progbits
 389              		.align	1
 390              		.globl	verify_channel
 392              	verify_channel:
 393              	.LFB146:
 121:C:/Users/stapi/OneDrive/Desktop/GD32VW553/V1_MQTT_OK/GD32VW55X_Wifi_BLE_SDK/GD32VW55x_RELEASE_V1.0.2/MSDK/wpa_supplicant/wpa_supplicant\op_classes.c **** 
 122:C:/Users/stapi/OneDrive/Desktop/GD32VW553/V1_MQTT_OK/GD32VW55X_Wifi_BLE_SDK/GD32VW55x_RELEASE_V1.0.2/MSDK/wpa_supplicant/wpa_supplicant\op_classes.c **** 
 123:C:/Users/stapi/OneDrive/Desktop/GD32VW553/V1_MQTT_OK/GD32VW55X_Wifi_BLE_SDK/GD32VW55x_RELEASE_V1.0.2/MSDK/wpa_supplicant/wpa_supplicant\op_classes.c **** static int get_center_160mhz(struct hostapd_hw_modes *mode, u8 channel,
 124:C:/Users/stapi/OneDrive/Desktop/GD32VW553/V1_MQTT_OK/GD32VW55X_Wifi_BLE_SDK/GD32VW55x_RELEASE_V1.0.2/MSDK/wpa_supplicant/wpa_supplicant\op_classes.c **** 			     const u8 *center_channels, size_t num_chan)
 125:C:/Users/stapi/OneDrive/Desktop/GD32VW553/V1_MQTT_OK/GD32VW55X_Wifi_BLE_SDK/GD32VW55x_RELEASE_V1.0.2/MSDK/wpa_supplicant/wpa_supplicant\op_classes.c **** {
 126:C:/Users/stapi/OneDrive/Desktop/GD32VW553/V1_MQTT_OK/GD32VW55X_Wifi_BLE_SDK/GD32VW55x_RELEASE_V1.0.2/MSDK/wpa_supplicant/wpa_supplicant\op_classes.c **** 	unsigned int i;
 127:C:/Users/stapi/OneDrive/Desktop/GD32VW553/V1_MQTT_OK/GD32VW55X_Wifi_BLE_SDK/GD32VW55x_RELEASE_V1.0.2/MSDK/wpa_supplicant/wpa_supplicant\op_classes.c **** 
 128:C:/Users/stapi/OneDrive/Desktop/GD32VW553/V1_MQTT_OK/GD32VW55X_Wifi_BLE_SDK/GD32VW55x_RELEASE_V1.0.2/MSDK/wpa_supplicant/wpa_supplicant\op_classes.c **** 	if (mode->mode != HOSTAPD_MODE_IEEE80211A)
 129:C:/Users/stapi/OneDrive/Desktop/GD32VW553/V1_MQTT_OK/GD32VW55X_Wifi_BLE_SDK/GD32VW55x_RELEASE_V1.0.2/MSDK/wpa_supplicant/wpa_supplicant\op_classes.c **** 		return 0;
 130:C:/Users/stapi/OneDrive/Desktop/GD32VW553/V1_MQTT_OK/GD32VW55X_Wifi_BLE_SDK/GD32VW55x_RELEASE_V1.0.2/MSDK/wpa_supplicant/wpa_supplicant\op_classes.c **** 
 131:C:/Users/stapi/OneDrive/Desktop/GD32VW553/V1_MQTT_OK/GD32VW55X_Wifi_BLE_SDK/GD32VW55x_RELEASE_V1.0.2/MSDK/wpa_supplicant/wpa_supplicant\op_classes.c **** 	for (i = 0; i < num_chan; i++) {
 132:C:/Users/stapi/OneDrive/Desktop/GD32VW553/V1_MQTT_OK/GD32VW55X_Wifi_BLE_SDK/GD32VW55x_RELEASE_V1.0.2/MSDK/wpa_supplicant/wpa_supplicant\op_classes.c **** 		/*
 133:C:/Users/stapi/OneDrive/Desktop/GD32VW553/V1_MQTT_OK/GD32VW55X_Wifi_BLE_SDK/GD32VW55x_RELEASE_V1.0.2/MSDK/wpa_supplicant/wpa_supplicant\op_classes.c **** 		 * In 160 MHz, the bandwidth "spans" 28 channels (e.g., 36-64),
 134:C:/Users/stapi/OneDrive/Desktop/GD32VW553/V1_MQTT_OK/GD32VW55X_Wifi_BLE_SDK/GD32VW55x_RELEASE_V1.0.2/MSDK/wpa_supplicant/wpa_supplicant\op_classes.c **** 		 * so the center channel is 14 channels away from the start/end.
 135:C:/Users/stapi/OneDrive/Desktop/GD32VW553/V1_MQTT_OK/GD32VW55X_Wifi_BLE_SDK/GD32VW55x_RELEASE_V1.0.2/MSDK/wpa_supplicant/wpa_supplicant\op_classes.c **** 		 */
 136:C:/Users/stapi/OneDrive/Desktop/GD32VW553/V1_MQTT_OK/GD32VW55X_Wifi_BLE_SDK/GD32VW55x_RELEASE_V1.0.2/MSDK/wpa_supplicant/wpa_supplicant\op_classes.c **** 		if (channel >= center_channels[i] - 14 &&
 137:C:/Users/stapi/OneDrive/Desktop/GD32VW553/V1_MQTT_OK/GD32VW55X_Wifi_BLE_SDK/GD32VW55x_RELEASE_V1.0.2/MSDK/wpa_supplicant/wpa_supplicant\op_classes.c **** 		    channel <= center_channels[i] + 14)
 138:C:/Users/stapi/OneDrive/Desktop/GD32VW553/V1_MQTT_OK/GD32VW55X_Wifi_BLE_SDK/GD32VW55x_RELEASE_V1.0.2/MSDK/wpa_supplicant/wpa_supplicant\op_classes.c **** 			return center_channels[i];
 139:C:/Users/stapi/OneDrive/Desktop/GD32VW553/V1_MQTT_OK/GD32VW55X_Wifi_BLE_SDK/GD32VW55x_RELEASE_V1.0.2/MSDK/wpa_supplicant/wpa_supplicant\op_classes.c **** 	}
 140:C:/Users/stapi/OneDrive/Desktop/GD32VW553/V1_MQTT_OK/GD32VW55X_Wifi_BLE_SDK/GD32VW55x_RELEASE_V1.0.2/MSDK/wpa_supplicant/wpa_supplicant\op_classes.c **** 
 141:C:/Users/stapi/OneDrive/Desktop/GD32VW553/V1_MQTT_OK/GD32VW55X_Wifi_BLE_SDK/GD32VW55x_RELEASE_V1.0.2/MSDK/wpa_supplicant/wpa_supplicant\op_classes.c **** 	return 0;
 142:C:/Users/stapi/OneDrive/Desktop/GD32VW553/V1_MQTT_OK/GD32VW55X_Wifi_BLE_SDK/GD32VW55x_RELEASE_V1.0.2/MSDK/wpa_supplicant/wpa_supplicant\op_classes.c **** }
 143:C:/Users/stapi/OneDrive/Desktop/GD32VW553/V1_MQTT_OK/GD32VW55X_Wifi_BLE_SDK/GD32VW55x_RELEASE_V1.0.2/MSDK/wpa_supplicant/wpa_supplicant\op_classes.c **** 
 144:C:/Users/stapi/OneDrive/Desktop/GD32VW553/V1_MQTT_OK/GD32VW55X_Wifi_BLE_SDK/GD32VW55x_RELEASE_V1.0.2/MSDK/wpa_supplicant/wpa_supplicant\op_classes.c **** 
 145:C:/Users/stapi/OneDrive/Desktop/GD32VW553/V1_MQTT_OK/GD32VW55X_Wifi_BLE_SDK/GD32VW55x_RELEASE_V1.0.2/MSDK/wpa_supplicant/wpa_supplicant\op_classes.c **** static enum chan_allowed verify_160mhz(struct hostapd_hw_modes *mode,
 146:C:/Users/stapi/OneDrive/Desktop/GD32VW553/V1_MQTT_OK/GD32VW55X_Wifi_BLE_SDK/GD32VW55x_RELEASE_V1.0.2/MSDK/wpa_supplicant/wpa_supplicant\op_classes.c **** 				       u8 op_class, u8 channel)
 147:C:/Users/stapi/OneDrive/Desktop/GD32VW553/V1_MQTT_OK/GD32VW55X_Wifi_BLE_SDK/GD32VW55x_RELEASE_V1.0.2/MSDK/wpa_supplicant/wpa_supplicant\op_classes.c **** {
 148:C:/Users/stapi/OneDrive/Desktop/GD32VW553/V1_MQTT_OK/GD32VW55X_Wifi_BLE_SDK/GD32VW55x_RELEASE_V1.0.2/MSDK/wpa_supplicant/wpa_supplicant\op_classes.c **** 	u8 center_chan;
 149:C:/Users/stapi/OneDrive/Desktop/GD32VW553/V1_MQTT_OK/GD32VW55X_Wifi_BLE_SDK/GD32VW55x_RELEASE_V1.0.2/MSDK/wpa_supplicant/wpa_supplicant\op_classes.c **** 	unsigned int i;
 150:C:/Users/stapi/OneDrive/Desktop/GD32VW553/V1_MQTT_OK/GD32VW55X_Wifi_BLE_SDK/GD32VW55x_RELEASE_V1.0.2/MSDK/wpa_supplicant/wpa_supplicant\op_classes.c **** 	unsigned int no_ir = 0;
 151:C:/Users/stapi/OneDrive/Desktop/GD32VW553/V1_MQTT_OK/GD32VW55X_Wifi_BLE_SDK/GD32VW55x_RELEASE_V1.0.2/MSDK/wpa_supplicant/wpa_supplicant\op_classes.c **** 	const u8 *center_channels;
 152:C:/Users/stapi/OneDrive/Desktop/GD32VW553/V1_MQTT_OK/GD32VW55X_Wifi_BLE_SDK/GD32VW55x_RELEASE_V1.0.2/MSDK/wpa_supplicant/wpa_supplicant\op_classes.c **** 	size_t num_chan;
 153:C:/Users/stapi/OneDrive/Desktop/GD32VW553/V1_MQTT_OK/GD32VW55X_Wifi_BLE_SDK/GD32VW55x_RELEASE_V1.0.2/MSDK/wpa_supplicant/wpa_supplicant\op_classes.c **** 	const u8 center_channels_5ghz[] = { 50, 114, 163 };
 154:C:/Users/stapi/OneDrive/Desktop/GD32VW553/V1_MQTT_OK/GD32VW55X_Wifi_BLE_SDK/GD32VW55x_RELEASE_V1.0.2/MSDK/wpa_supplicant/wpa_supplicant\op_classes.c **** 	const u8 center_channels_6ghz[] = { 15, 47, 79, 111, 143, 175, 207 };
 155:C:/Users/stapi/OneDrive/Desktop/GD32VW553/V1_MQTT_OK/GD32VW55X_Wifi_BLE_SDK/GD32VW55x_RELEASE_V1.0.2/MSDK/wpa_supplicant/wpa_supplicant\op_classes.c **** 
 156:C:/Users/stapi/OneDrive/Desktop/GD32VW553/V1_MQTT_OK/GD32VW55X_Wifi_BLE_SDK/GD32VW55x_RELEASE_V1.0.2/MSDK/wpa_supplicant/wpa_supplicant\op_classes.c **** 	if (is_6ghz_op_class(op_class)) {
 157:C:/Users/stapi/OneDrive/Desktop/GD32VW553/V1_MQTT_OK/GD32VW55X_Wifi_BLE_SDK/GD32VW55x_RELEASE_V1.0.2/MSDK/wpa_supplicant/wpa_supplicant\op_classes.c **** 		center_channels = center_channels_6ghz;
 158:C:/Users/stapi/OneDrive/Desktop/GD32VW553/V1_MQTT_OK/GD32VW55X_Wifi_BLE_SDK/GD32VW55x_RELEASE_V1.0.2/MSDK/wpa_supplicant/wpa_supplicant\op_classes.c **** 		num_chan = ARRAY_SIZE(center_channels_6ghz);
 159:C:/Users/stapi/OneDrive/Desktop/GD32VW553/V1_MQTT_OK/GD32VW55X_Wifi_BLE_SDK/GD32VW55x_RELEASE_V1.0.2/MSDK/wpa_supplicant/wpa_supplicant\op_classes.c **** 	} else {
 160:C:/Users/stapi/OneDrive/Desktop/GD32VW553/V1_MQTT_OK/GD32VW55X_Wifi_BLE_SDK/GD32VW55x_RELEASE_V1.0.2/MSDK/wpa_supplicant/wpa_supplicant\op_classes.c **** 		center_channels = center_channels_5ghz;
 161:C:/Users/stapi/OneDrive/Desktop/GD32VW553/V1_MQTT_OK/GD32VW55X_Wifi_BLE_SDK/GD32VW55x_RELEASE_V1.0.2/MSDK/wpa_supplicant/wpa_supplicant\op_classes.c **** 		num_chan = ARRAY_SIZE(center_channels_5ghz);
 162:C:/Users/stapi/OneDrive/Desktop/GD32VW553/V1_MQTT_OK/GD32VW55X_Wifi_BLE_SDK/GD32VW55x_RELEASE_V1.0.2/MSDK/wpa_supplicant/wpa_supplicant\op_classes.c **** 	}
 163:C:/Users/stapi/OneDrive/Desktop/GD32VW553/V1_MQTT_OK/GD32VW55X_Wifi_BLE_SDK/GD32VW55x_RELEASE_V1.0.2/MSDK/wpa_supplicant/wpa_supplicant\op_classes.c **** 
 164:C:/Users/stapi/OneDrive/Desktop/GD32VW553/V1_MQTT_OK/GD32VW55X_Wifi_BLE_SDK/GD32VW55x_RELEASE_V1.0.2/MSDK/wpa_supplicant/wpa_supplicant\op_classes.c **** 	center_chan = get_center_160mhz(mode, channel, center_channels,
 165:C:/Users/stapi/OneDrive/Desktop/GD32VW553/V1_MQTT_OK/GD32VW55X_Wifi_BLE_SDK/GD32VW55x_RELEASE_V1.0.2/MSDK/wpa_supplicant/wpa_supplicant\op_classes.c **** 					num_chan);
 166:C:/Users/stapi/OneDrive/Desktop/GD32VW553/V1_MQTT_OK/GD32VW55X_Wifi_BLE_SDK/GD32VW55x_RELEASE_V1.0.2/MSDK/wpa_supplicant/wpa_supplicant\op_classes.c **** 	if (!center_chan)
 167:C:/Users/stapi/OneDrive/Desktop/GD32VW553/V1_MQTT_OK/GD32VW55X_Wifi_BLE_SDK/GD32VW55x_RELEASE_V1.0.2/MSDK/wpa_supplicant/wpa_supplicant\op_classes.c **** 		return NOT_ALLOWED;
 168:C:/Users/stapi/OneDrive/Desktop/GD32VW553/V1_MQTT_OK/GD32VW55X_Wifi_BLE_SDK/GD32VW55x_RELEASE_V1.0.2/MSDK/wpa_supplicant/wpa_supplicant\op_classes.c **** 
 169:C:/Users/stapi/OneDrive/Desktop/GD32VW553/V1_MQTT_OK/GD32VW55X_Wifi_BLE_SDK/GD32VW55x_RELEASE_V1.0.2/MSDK/wpa_supplicant/wpa_supplicant\op_classes.c **** 	/* Check all the channels are available */
 170:C:/Users/stapi/OneDrive/Desktop/GD32VW553/V1_MQTT_OK/GD32VW55X_Wifi_BLE_SDK/GD32VW55x_RELEASE_V1.0.2/MSDK/wpa_supplicant/wpa_supplicant\op_classes.c **** 	for (i = 0; i < 8; i++) {
 171:C:/Users/stapi/OneDrive/Desktop/GD32VW553/V1_MQTT_OK/GD32VW55X_Wifi_BLE_SDK/GD32VW55x_RELEASE_V1.0.2/MSDK/wpa_supplicant/wpa_supplicant\op_classes.c **** 		unsigned int flags;
 172:C:/Users/stapi/OneDrive/Desktop/GD32VW553/V1_MQTT_OK/GD32VW55X_Wifi_BLE_SDK/GD32VW55x_RELEASE_V1.0.2/MSDK/wpa_supplicant/wpa_supplicant\op_classes.c **** 		u8 adj_chan = center_chan - 14 + i * 4;
 173:C:/Users/stapi/OneDrive/Desktop/GD32VW553/V1_MQTT_OK/GD32VW55X_Wifi_BLE_SDK/GD32VW55x_RELEASE_V1.0.2/MSDK/wpa_supplicant/wpa_supplicant\op_classes.c **** 
 174:C:/Users/stapi/OneDrive/Desktop/GD32VW553/V1_MQTT_OK/GD32VW55X_Wifi_BLE_SDK/GD32VW55x_RELEASE_V1.0.2/MSDK/wpa_supplicant/wpa_supplicant\op_classes.c **** 		if (allow_channel(mode, op_class, adj_chan, &flags) ==
 175:C:/Users/stapi/OneDrive/Desktop/GD32VW553/V1_MQTT_OK/GD32VW55X_Wifi_BLE_SDK/GD32VW55x_RELEASE_V1.0.2/MSDK/wpa_supplicant/wpa_supplicant\op_classes.c **** 		    NOT_ALLOWED)
 176:C:/Users/stapi/OneDrive/Desktop/GD32VW553/V1_MQTT_OK/GD32VW55X_Wifi_BLE_SDK/GD32VW55x_RELEASE_V1.0.2/MSDK/wpa_supplicant/wpa_supplicant\op_classes.c **** 			return NOT_ALLOWED;
 177:C:/Users/stapi/OneDrive/Desktop/GD32VW553/V1_MQTT_OK/GD32VW55X_Wifi_BLE_SDK/GD32VW55x_RELEASE_V1.0.2/MSDK/wpa_supplicant/wpa_supplicant\op_classes.c **** 
 178:C:/Users/stapi/OneDrive/Desktop/GD32VW553/V1_MQTT_OK/GD32VW55X_Wifi_BLE_SDK/GD32VW55x_RELEASE_V1.0.2/MSDK/wpa_supplicant/wpa_supplicant\op_classes.c **** 		if ((i == 0 && !(flags & HOSTAPD_CHAN_VHT_10_150)) ||
 179:C:/Users/stapi/OneDrive/Desktop/GD32VW553/V1_MQTT_OK/GD32VW55X_Wifi_BLE_SDK/GD32VW55x_RELEASE_V1.0.2/MSDK/wpa_supplicant/wpa_supplicant\op_classes.c **** 		    (i == 1 && !(flags & HOSTAPD_CHAN_VHT_30_130)) ||
 180:C:/Users/stapi/OneDrive/Desktop/GD32VW553/V1_MQTT_OK/GD32VW55X_Wifi_BLE_SDK/GD32VW55x_RELEASE_V1.0.2/MSDK/wpa_supplicant/wpa_supplicant\op_classes.c **** 		    (i == 2 && !(flags & HOSTAPD_CHAN_VHT_50_110)) ||
 181:C:/Users/stapi/OneDrive/Desktop/GD32VW553/V1_MQTT_OK/GD32VW55X_Wifi_BLE_SDK/GD32VW55x_RELEASE_V1.0.2/MSDK/wpa_supplicant/wpa_supplicant\op_classes.c **** 		    (i == 3 && !(flags & HOSTAPD_CHAN_VHT_70_90)) ||
 182:C:/Users/stapi/OneDrive/Desktop/GD32VW553/V1_MQTT_OK/GD32VW55X_Wifi_BLE_SDK/GD32VW55x_RELEASE_V1.0.2/MSDK/wpa_supplicant/wpa_supplicant\op_classes.c **** 		    (i == 4 && !(flags & HOSTAPD_CHAN_VHT_90_70)) ||
 183:C:/Users/stapi/OneDrive/Desktop/GD32VW553/V1_MQTT_OK/GD32VW55X_Wifi_BLE_SDK/GD32VW55x_RELEASE_V1.0.2/MSDK/wpa_supplicant/wpa_supplicant\op_classes.c **** 		    (i == 5 && !(flags & HOSTAPD_CHAN_VHT_110_50)) ||
 184:C:/Users/stapi/OneDrive/Desktop/GD32VW553/V1_MQTT_OK/GD32VW55X_Wifi_BLE_SDK/GD32VW55x_RELEASE_V1.0.2/MSDK/wpa_supplicant/wpa_supplicant\op_classes.c **** 		    (i == 6 && !(flags & HOSTAPD_CHAN_VHT_130_30)) ||
 185:C:/Users/stapi/OneDrive/Desktop/GD32VW553/V1_MQTT_OK/GD32VW55X_Wifi_BLE_SDK/GD32VW55x_RELEASE_V1.0.2/MSDK/wpa_supplicant/wpa_supplicant\op_classes.c **** 		    (i == 7 && !(flags & HOSTAPD_CHAN_VHT_150_10)))
 186:C:/Users/stapi/OneDrive/Desktop/GD32VW553/V1_MQTT_OK/GD32VW55X_Wifi_BLE_SDK/GD32VW55x_RELEASE_V1.0.2/MSDK/wpa_supplicant/wpa_supplicant\op_classes.c **** 			return NOT_ALLOWED;
 187:C:/Users/stapi/OneDrive/Desktop/GD32VW553/V1_MQTT_OK/GD32VW55X_Wifi_BLE_SDK/GD32VW55x_RELEASE_V1.0.2/MSDK/wpa_supplicant/wpa_supplicant\op_classes.c **** 
 188:C:/Users/stapi/OneDrive/Desktop/GD32VW553/V1_MQTT_OK/GD32VW55X_Wifi_BLE_SDK/GD32VW55x_RELEASE_V1.0.2/MSDK/wpa_supplicant/wpa_supplicant\op_classes.c **** 		if (flags & HOSTAPD_CHAN_NO_IR)
 189:C:/Users/stapi/OneDrive/Desktop/GD32VW553/V1_MQTT_OK/GD32VW55X_Wifi_BLE_SDK/GD32VW55x_RELEASE_V1.0.2/MSDK/wpa_supplicant/wpa_supplicant\op_classes.c **** 			no_ir = 1;
 190:C:/Users/stapi/OneDrive/Desktop/GD32VW553/V1_MQTT_OK/GD32VW55X_Wifi_BLE_SDK/GD32VW55x_RELEASE_V1.0.2/MSDK/wpa_supplicant/wpa_supplicant\op_classes.c **** 	}
 191:C:/Users/stapi/OneDrive/Desktop/GD32VW553/V1_MQTT_OK/GD32VW55X_Wifi_BLE_SDK/GD32VW55x_RELEASE_V1.0.2/MSDK/wpa_supplicant/wpa_supplicant\op_classes.c **** 
 192:C:/Users/stapi/OneDrive/Desktop/GD32VW553/V1_MQTT_OK/GD32VW55X_Wifi_BLE_SDK/GD32VW55x_RELEASE_V1.0.2/MSDK/wpa_supplicant/wpa_supplicant\op_classes.c **** 	if (no_ir)
 193:C:/Users/stapi/OneDrive/Desktop/GD32VW553/V1_MQTT_OK/GD32VW55X_Wifi_BLE_SDK/GD32VW55x_RELEASE_V1.0.2/MSDK/wpa_supplicant/wpa_supplicant\op_classes.c **** 		return NO_IR;
 194:C:/Users/stapi/OneDrive/Desktop/GD32VW553/V1_MQTT_OK/GD32VW55X_Wifi_BLE_SDK/GD32VW55x_RELEASE_V1.0.2/MSDK/wpa_supplicant/wpa_supplicant\op_classes.c **** 
 195:C:/Users/stapi/OneDrive/Desktop/GD32VW553/V1_MQTT_OK/GD32VW55X_Wifi_BLE_SDK/GD32VW55x_RELEASE_V1.0.2/MSDK/wpa_supplicant/wpa_supplicant\op_classes.c **** 	return ALLOWED;
 196:C:/Users/stapi/OneDrive/Desktop/GD32VW553/V1_MQTT_OK/GD32VW55X_Wifi_BLE_SDK/GD32VW55x_RELEASE_V1.0.2/MSDK/wpa_supplicant/wpa_supplicant\op_classes.c **** }
 197:C:/Users/stapi/OneDrive/Desktop/GD32VW553/V1_MQTT_OK/GD32VW55X_Wifi_BLE_SDK/GD32VW55x_RELEASE_V1.0.2/MSDK/wpa_supplicant/wpa_supplicant\op_classes.c **** 
 198:C:/Users/stapi/OneDrive/Desktop/GD32VW553/V1_MQTT_OK/GD32VW55X_Wifi_BLE_SDK/GD32VW55x_RELEASE_V1.0.2/MSDK/wpa_supplicant/wpa_supplicant\op_classes.c **** 
 199:C:/Users/stapi/OneDrive/Desktop/GD32VW553/V1_MQTT_OK/GD32VW55X_Wifi_BLE_SDK/GD32VW55x_RELEASE_V1.0.2/MSDK/wpa_supplicant/wpa_supplicant\op_classes.c **** enum chan_allowed verify_channel(struct hostapd_hw_modes *mode, u8 op_class,
 200:C:/Users/stapi/OneDrive/Desktop/GD32VW553/V1_MQTT_OK/GD32VW55X_Wifi_BLE_SDK/GD32VW55x_RELEASE_V1.0.2/MSDK/wpa_supplicant/wpa_supplicant\op_classes.c **** 				 u8 channel, u8 bw)
 201:C:/Users/stapi/OneDrive/Desktop/GD32VW553/V1_MQTT_OK/GD32VW55X_Wifi_BLE_SDK/GD32VW55x_RELEASE_V1.0.2/MSDK/wpa_supplicant/wpa_supplicant\op_classes.c **** {
 394              		.loc 1 201 1 is_stmt 1
 395              		.cfi_startproc
 396              	.LVL38:
 397 0000 17030000 		call	t0,__riscv_save_12
 397      E7020300 
 398              		.cfi_offset 27, -52
 399              		.cfi_offset 26, -48
 400              		.cfi_offset 25, -44
 401              		.cfi_offset 24, -40
 402              		.cfi_offset 23, -36
 403              		.cfi_offset 22, -32
 404              		.cfi_offset 21, -28
 405              		.cfi_offset 20, -24
 406              		.cfi_offset 19, -20
 407              		.cfi_offset 18, -16
 408              		.cfi_offset 9, -12
 409              		.cfi_offset 8, -8
 410              		.cfi_offset 1, -4
 411              		.cfi_def_cfa_offset 64
 202:C:/Users/stapi/OneDrive/Desktop/GD32VW553/V1_MQTT_OK/GD32VW55X_Wifi_BLE_SDK/GD32VW55x_RELEASE_V1.0.2/MSDK/wpa_supplicant/wpa_supplicant\op_classes.c **** 	unsigned int flag = 0;
 412              		.loc 1 202 2
 201:C:/Users/stapi/OneDrive/Desktop/GD32VW553/V1_MQTT_OK/GD32VW55X_Wifi_BLE_SDK/GD32VW55x_RELEASE_V1.0.2/MSDK/wpa_supplicant/wpa_supplicant\op_classes.c **** 	unsigned int flag = 0;
 413              		.loc 1 201 1 is_stmt 0
 414 0008 0111     		addi	sp,sp,-32
 415              		.cfi_def_cfa_offset 96
 201:C:/Users/stapi/OneDrive/Desktop/GD32VW553/V1_MQTT_OK/GD32VW55X_Wifi_BLE_SDK/GD32VW55x_RELEASE_V1.0.2/MSDK/wpa_supplicant/wpa_supplicant\op_classes.c **** 	unsigned int flag = 0;
 416              		.loc 1 201 1
 417 000a B689     		mv	s3,a3
 203:C:/Users/stapi/OneDrive/Desktop/GD32VW553/V1_MQTT_OK/GD32VW55X_Wifi_BLE_SDK/GD32VW55x_RELEASE_V1.0.2/MSDK/wpa_supplicant/wpa_supplicant\op_classes.c **** 	enum chan_allowed res, res2;
 204:C:/Users/stapi/OneDrive/Desktop/GD32VW553/V1_MQTT_OK/GD32VW55X_Wifi_BLE_SDK/GD32VW55x_RELEASE_V1.0.2/MSDK/wpa_supplicant/wpa_supplicant\op_classes.c **** 
 205:C:/Users/stapi/OneDrive/Desktop/GD32VW553/V1_MQTT_OK/GD32VW55X_Wifi_BLE_SDK/GD32VW55x_RELEASE_V1.0.2/MSDK/wpa_supplicant/wpa_supplicant\op_classes.c **** 	res2 = res = allow_channel(mode, op_class, channel, &flag);
 418              		.loc 1 205 15
 419 000c 1408     		addi	a3,sp,16
 420              	.LVL39:
 201:C:/Users/stapi/OneDrive/Desktop/GD32VW553/V1_MQTT_OK/GD32VW55X_Wifi_BLE_SDK/GD32VW55x_RELEASE_V1.0.2/MSDK/wpa_supplicant/wpa_supplicant\op_classes.c **** 	unsigned int flag = 0;
 421              		.loc 1 201 1
 422 000e 2A8A     		mv	s4,a0
 423 0010 2E89     		mv	s2,a1
 424 0012 B284     		mv	s1,a2
 202:C:/Users/stapi/OneDrive/Desktop/GD32VW553/V1_MQTT_OK/GD32VW55X_Wifi_BLE_SDK/GD32VW55x_RELEASE_V1.0.2/MSDK/wpa_supplicant/wpa_supplicant\op_classes.c **** 	enum chan_allowed res, res2;
 425              		.loc 1 202 15
 426 0014 02C8     		sw	zero,16(sp)
 203:C:/Users/stapi/OneDrive/Desktop/GD32VW553/V1_MQTT_OK/GD32VW55X_Wifi_BLE_SDK/GD32VW55x_RELEASE_V1.0.2/MSDK/wpa_supplicant/wpa_supplicant\op_classes.c **** 	enum chan_allowed res, res2;
 427              		.loc 1 203 2 is_stmt 1
 428              		.loc 1 205 2
 429              		.loc 1 205 15 is_stmt 0
 430 0016 97000000 		call	allow_channel
 430      E7800000 
 431              	.LVL40:
 206:C:/Users/stapi/OneDrive/Desktop/GD32VW553/V1_MQTT_OK/GD32VW55X_Wifi_BLE_SDK/GD32VW55x_RELEASE_V1.0.2/MSDK/wpa_supplicant/wpa_supplicant\op_classes.c **** 	if (bw == BW40MINUS || (bw == BW40 && (((channel - 1) / 4) % 2))) {
 432              		.loc 1 206 5
 433 001e 8947     		li	a5,2
 205:C:/Users/stapi/OneDrive/Desktop/GD32VW553/V1_MQTT_OK/GD32VW55X_Wifi_BLE_SDK/GD32VW55x_RELEASE_V1.0.2/MSDK/wpa_supplicant/wpa_supplicant\op_classes.c **** 	if (bw == BW40MINUS || (bw == BW40 && (((channel - 1) / 4) % 2))) {
 434              		.loc 1 205 15
 435 0020 2A84     		mv	s0,a0
 436              	.LVL41:
 437              		.loc 1 206 2 is_stmt 1
 438              		.loc 1 206 5 is_stmt 0
 439 0022 638CF900 		beq	s3,a5,.L61
 440              		.loc 1 206 22 discriminator 1
 441 0026 8D47     		li	a5,3
 442 0028 6394F902 		bne	s3,a5,.L62
 443              		.loc 1 206 51 discriminator 2
 444 002c 9387F4FF 		addi	a5,s1,-1
 445              		.loc 1 206 56 discriminator 2
 446 0030 1147     		li	a4,4
 447 0032 B3C7E702 		div	a5,a5,a4
 448              		.loc 1 206 37 discriminator 2
 449 0036 858B     		andi	a5,a5,1
 450 0038 8DC7     		beq	a5,zero,.L63
 451              	.L61:
 207:C:/Users/stapi/OneDrive/Desktop/GD32VW553/V1_MQTT_OK/GD32VW55X_Wifi_BLE_SDK/GD32VW55x_RELEASE_V1.0.2/MSDK/wpa_supplicant/wpa_supplicant\op_classes.c **** 		if (!(flag & HOSTAPD_CHAN_HT40MINUS))
 452              		.loc 1 207 3 is_stmt 1
 453              		.loc 1 207 14 is_stmt 0
 454 003a C247     		lw	a5,16(sp)
 455 003c 93F70702 		andi	a5,a5,32
 456              		.loc 1 207 6
 457 0040 A9E3     		bne	a5,zero,.L147
 458              	.LVL42:
 459              	.L67:
 208:C:/Users/stapi/OneDrive/Desktop/GD32VW553/V1_MQTT_OK/GD32VW55X_Wifi_BLE_SDK/GD32VW55x_RELEASE_V1.0.2/MSDK/wpa_supplicant/wpa_supplicant\op_classes.c **** 			return NOT_ALLOWED;
 460              		.loc 1 208 11
 461 0042 0144     		li	s0,0
 462              	.LVL43:
 463              	.L60:
 209:C:/Users/stapi/OneDrive/Desktop/GD32VW553/V1_MQTT_OK/GD32VW55X_Wifi_BLE_SDK/GD32VW55x_RELEASE_V1.0.2/MSDK/wpa_supplicant/wpa_supplicant\op_classes.c **** 		res2 = allow_channel(mode, op_class, channel - 4, NULL);
 210:C:/Users/stapi/OneDrive/Desktop/GD32VW553/V1_MQTT_OK/GD32VW55X_Wifi_BLE_SDK/GD32VW55x_RELEASE_V1.0.2/MSDK/wpa_supplicant/wpa_supplicant\op_classes.c **** 	} else if (bw == BW40PLUS) {
 211:C:/Users/stapi/OneDrive/Desktop/GD32VW553/V1_MQTT_OK/GD32VW55X_Wifi_BLE_SDK/GD32VW55x_RELEASE_V1.0.2/MSDK/wpa_supplicant/wpa_supplicant\op_classes.c **** 		if (!(flag & HOSTAPD_CHAN_HT40PLUS))
 212:C:/Users/stapi/OneDrive/Desktop/GD32VW553/V1_MQTT_OK/GD32VW55X_Wifi_BLE_SDK/GD32VW55x_RELEASE_V1.0.2/MSDK/wpa_supplicant/wpa_supplicant\op_classes.c **** 			return NOT_ALLOWED;
 213:C:/Users/stapi/OneDrive/Desktop/GD32VW553/V1_MQTT_OK/GD32VW55X_Wifi_BLE_SDK/GD32VW55x_RELEASE_V1.0.2/MSDK/wpa_supplicant/wpa_supplicant\op_classes.c **** 		res2 = allow_channel(mode, op_class, channel + 4, NULL);
 214:C:/Users/stapi/OneDrive/Desktop/GD32VW553/V1_MQTT_OK/GD32VW55X_Wifi_BLE_SDK/GD32VW55x_RELEASE_V1.0.2/MSDK/wpa_supplicant/wpa_supplicant\op_classes.c **** 	} else if (is_6ghz_op_class(op_class) && bw == BW40) {
 215:C:/Users/stapi/OneDrive/Desktop/GD32VW553/V1_MQTT_OK/GD32VW55X_Wifi_BLE_SDK/GD32VW55x_RELEASE_V1.0.2/MSDK/wpa_supplicant/wpa_supplicant\op_classes.c **** 		if (get_6ghz_sec_channel(channel) < 0)
 216:C:/Users/stapi/OneDrive/Desktop/GD32VW553/V1_MQTT_OK/GD32VW55X_Wifi_BLE_SDK/GD32VW55x_RELEASE_V1.0.2/MSDK/wpa_supplicant/wpa_supplicant\op_classes.c **** 			res2 = allow_channel(mode, op_class, channel - 4, NULL);
 217:C:/Users/stapi/OneDrive/Desktop/GD32VW553/V1_MQTT_OK/GD32VW55X_Wifi_BLE_SDK/GD32VW55x_RELEASE_V1.0.2/MSDK/wpa_supplicant/wpa_supplicant\op_classes.c **** 		else
 218:C:/Users/stapi/OneDrive/Desktop/GD32VW553/V1_MQTT_OK/GD32VW55X_Wifi_BLE_SDK/GD32VW55x_RELEASE_V1.0.2/MSDK/wpa_supplicant/wpa_supplicant\op_classes.c **** 			res2 = allow_channel(mode, op_class, channel + 4, NULL);
 219:C:/Users/stapi/OneDrive/Desktop/GD32VW553/V1_MQTT_OK/GD32VW55X_Wifi_BLE_SDK/GD32VW55x_RELEASE_V1.0.2/MSDK/wpa_supplicant/wpa_supplicant\op_classes.c **** 	} else if (bw == BW80) {
 220:C:/Users/stapi/OneDrive/Desktop/GD32VW553/V1_MQTT_OK/GD32VW55X_Wifi_BLE_SDK/GD32VW55x_RELEASE_V1.0.2/MSDK/wpa_supplicant/wpa_supplicant\op_classes.c **** 		/*
 221:C:/Users/stapi/OneDrive/Desktop/GD32VW553/V1_MQTT_OK/GD32VW55X_Wifi_BLE_SDK/GD32VW55x_RELEASE_V1.0.2/MSDK/wpa_supplicant/wpa_supplicant\op_classes.c **** 		 * channel is a center channel and as such, not necessarily a
 222:C:/Users/stapi/OneDrive/Desktop/GD32VW553/V1_MQTT_OK/GD32VW55X_Wifi_BLE_SDK/GD32VW55x_RELEASE_V1.0.2/MSDK/wpa_supplicant/wpa_supplicant\op_classes.c **** 		 * valid 20 MHz channels. Override earlier allow_channel()
 223:C:/Users/stapi/OneDrive/Desktop/GD32VW553/V1_MQTT_OK/GD32VW55X_Wifi_BLE_SDK/GD32VW55x_RELEASE_V1.0.2/MSDK/wpa_supplicant/wpa_supplicant\op_classes.c **** 		 * result and use only the 80 MHz specific version.
 224:C:/Users/stapi/OneDrive/Desktop/GD32VW553/V1_MQTT_OK/GD32VW55X_Wifi_BLE_SDK/GD32VW55x_RELEASE_V1.0.2/MSDK/wpa_supplicant/wpa_supplicant\op_classes.c **** 		 */
 225:C:/Users/stapi/OneDrive/Desktop/GD32VW553/V1_MQTT_OK/GD32VW55X_Wifi_BLE_SDK/GD32VW55x_RELEASE_V1.0.2/MSDK/wpa_supplicant/wpa_supplicant\op_classes.c **** 		res2 = res = verify_80mhz(mode, op_class, channel);
 226:C:/Users/stapi/OneDrive/Desktop/GD32VW553/V1_MQTT_OK/GD32VW55X_Wifi_BLE_SDK/GD32VW55x_RELEASE_V1.0.2/MSDK/wpa_supplicant/wpa_supplicant\op_classes.c **** 	} else if (bw == BW160) {
 227:C:/Users/stapi/OneDrive/Desktop/GD32VW553/V1_MQTT_OK/GD32VW55X_Wifi_BLE_SDK/GD32VW55x_RELEASE_V1.0.2/MSDK/wpa_supplicant/wpa_supplicant\op_classes.c **** 		/*
 228:C:/Users/stapi/OneDrive/Desktop/GD32VW553/V1_MQTT_OK/GD32VW55X_Wifi_BLE_SDK/GD32VW55x_RELEASE_V1.0.2/MSDK/wpa_supplicant/wpa_supplicant\op_classes.c **** 		 * channel is a center channel and as such, not necessarily a
 229:C:/Users/stapi/OneDrive/Desktop/GD32VW553/V1_MQTT_OK/GD32VW55X_Wifi_BLE_SDK/GD32VW55x_RELEASE_V1.0.2/MSDK/wpa_supplicant/wpa_supplicant\op_classes.c **** 		 * valid 20 MHz channels. Override earlier allow_channel()
 230:C:/Users/stapi/OneDrive/Desktop/GD32VW553/V1_MQTT_OK/GD32VW55X_Wifi_BLE_SDK/GD32VW55x_RELEASE_V1.0.2/MSDK/wpa_supplicant/wpa_supplicant\op_classes.c **** 		 * result and use only the 160 MHz specific version.
 231:C:/Users/stapi/OneDrive/Desktop/GD32VW553/V1_MQTT_OK/GD32VW55X_Wifi_BLE_SDK/GD32VW55x_RELEASE_V1.0.2/MSDK/wpa_supplicant/wpa_supplicant\op_classes.c **** 		 */
 232:C:/Users/stapi/OneDrive/Desktop/GD32VW553/V1_MQTT_OK/GD32VW55X_Wifi_BLE_SDK/GD32VW55x_RELEASE_V1.0.2/MSDK/wpa_supplicant/wpa_supplicant\op_classes.c **** 		res2 = res = verify_160mhz(mode, op_class, channel);
 233:C:/Users/stapi/OneDrive/Desktop/GD32VW553/V1_MQTT_OK/GD32VW55X_Wifi_BLE_SDK/GD32VW55x_RELEASE_V1.0.2/MSDK/wpa_supplicant/wpa_supplicant\op_classes.c **** 	} else if (bw == BW80P80) {
 234:C:/Users/stapi/OneDrive/Desktop/GD32VW553/V1_MQTT_OK/GD32VW55X_Wifi_BLE_SDK/GD32VW55x_RELEASE_V1.0.2/MSDK/wpa_supplicant/wpa_supplicant\op_classes.c **** 		/*
 235:C:/Users/stapi/OneDrive/Desktop/GD32VW553/V1_MQTT_OK/GD32VW55X_Wifi_BLE_SDK/GD32VW55x_RELEASE_V1.0.2/MSDK/wpa_supplicant/wpa_supplicant\op_classes.c **** 		 * channel is a center channel and as such, not necessarily a
 236:C:/Users/stapi/OneDrive/Desktop/GD32VW553/V1_MQTT_OK/GD32VW55X_Wifi_BLE_SDK/GD32VW55x_RELEASE_V1.0.2/MSDK/wpa_supplicant/wpa_supplicant\op_classes.c **** 		 * valid 20 MHz channels. Override earlier allow_channel()
 237:C:/Users/stapi/OneDrive/Desktop/GD32VW553/V1_MQTT_OK/GD32VW55X_Wifi_BLE_SDK/GD32VW55x_RELEASE_V1.0.2/MSDK/wpa_supplicant/wpa_supplicant\op_classes.c **** 		 * result and use only the 80 MHz specific version.
 238:C:/Users/stapi/OneDrive/Desktop/GD32VW553/V1_MQTT_OK/GD32VW55X_Wifi_BLE_SDK/GD32VW55x_RELEASE_V1.0.2/MSDK/wpa_supplicant/wpa_supplicant\op_classes.c **** 		 */
 239:C:/Users/stapi/OneDrive/Desktop/GD32VW553/V1_MQTT_OK/GD32VW55X_Wifi_BLE_SDK/GD32VW55x_RELEASE_V1.0.2/MSDK/wpa_supplicant/wpa_supplicant\op_classes.c **** 		res2 = res = verify_80mhz(mode, op_class, channel);
 240:C:/Users/stapi/OneDrive/Desktop/GD32VW553/V1_MQTT_OK/GD32VW55X_Wifi_BLE_SDK/GD32VW55x_RELEASE_V1.0.2/MSDK/wpa_supplicant/wpa_supplicant\op_classes.c **** 	}
 241:C:/Users/stapi/OneDrive/Desktop/GD32VW553/V1_MQTT_OK/GD32VW55X_Wifi_BLE_SDK/GD32VW55x_RELEASE_V1.0.2/MSDK/wpa_supplicant/wpa_supplicant\op_classes.c **** 
 242:C:/Users/stapi/OneDrive/Desktop/GD32VW553/V1_MQTT_OK/GD32VW55X_Wifi_BLE_SDK/GD32VW55x_RELEASE_V1.0.2/MSDK/wpa_supplicant/wpa_supplicant\op_classes.c **** 	if (res == NOT_ALLOWED || res2 == NOT_ALLOWED)
 243:C:/Users/stapi/OneDrive/Desktop/GD32VW553/V1_MQTT_OK/GD32VW55X_Wifi_BLE_SDK/GD32VW55x_RELEASE_V1.0.2/MSDK/wpa_supplicant/wpa_supplicant\op_classes.c **** 		return NOT_ALLOWED;
 244:C:/Users/stapi/OneDrive/Desktop/GD32VW553/V1_MQTT_OK/GD32VW55X_Wifi_BLE_SDK/GD32VW55x_RELEASE_V1.0.2/MSDK/wpa_supplicant/wpa_supplicant\op_classes.c **** 
 245:C:/Users/stapi/OneDrive/Desktop/GD32VW553/V1_MQTT_OK/GD32VW55X_Wifi_BLE_SDK/GD32VW55x_RELEASE_V1.0.2/MSDK/wpa_supplicant/wpa_supplicant\op_classes.c **** 	if (res == NO_IR || res2 == NO_IR)
 246:C:/Users/stapi/OneDrive/Desktop/GD32VW553/V1_MQTT_OK/GD32VW55X_Wifi_BLE_SDK/GD32VW55x_RELEASE_V1.0.2/MSDK/wpa_supplicant/wpa_supplicant\op_classes.c **** 		return NO_IR;
 247:C:/Users/stapi/OneDrive/Desktop/GD32VW553/V1_MQTT_OK/GD32VW55X_Wifi_BLE_SDK/GD32VW55x_RELEASE_V1.0.2/MSDK/wpa_supplicant/wpa_supplicant\op_classes.c **** 
 248:C:/Users/stapi/OneDrive/Desktop/GD32VW553/V1_MQTT_OK/GD32VW55X_Wifi_BLE_SDK/GD32VW55x_RELEASE_V1.0.2/MSDK/wpa_supplicant/wpa_supplicant\op_classes.c **** 	return ALLOWED;
 249:C:/Users/stapi/OneDrive/Desktop/GD32VW553/V1_MQTT_OK/GD32VW55X_Wifi_BLE_SDK/GD32VW55x_RELEASE_V1.0.2/MSDK/wpa_supplicant/wpa_supplicant\op_classes.c **** }
 464              		.loc 1 249 1
 465 0044 2285     		mv	a0,s0
 466              	.LVL44:
 467 0046 0561     		addi	sp,sp,32
 468              		.cfi_remember_state
 469              		.cfi_def_cfa_offset 0
 470 0048 17030000 		tail	__riscv_restore_12
 470      67000300 
 471              		.cfi_restore 27
 472              		.cfi_restore 26
 473              		.cfi_restore 25
 474              		.cfi_restore 24
 475              		.cfi_restore 23
 476              		.cfi_restore 22
 477              		.cfi_restore 21
 478              		.cfi_restore 20
 479              		.cfi_restore 19
 480              		.cfi_restore 18
 481              		.cfi_restore 9
 482              		.cfi_restore 8
 483              		.cfi_restore 1
 484              		.cfi_def_cfa_offset -64
 485              	.LVL45:
 486              	.L62:
 487              		.cfi_restore_state
 210:C:/Users/stapi/OneDrive/Desktop/GD32VW553/V1_MQTT_OK/GD32VW55X_Wifi_BLE_SDK/GD32VW55x_RELEASE_V1.0.2/MSDK/wpa_supplicant/wpa_supplicant\op_classes.c **** 		if (!(flag & HOSTAPD_CHAN_HT40PLUS))
 488              		.loc 1 210 9 is_stmt 1
 210:C:/Users/stapi/OneDrive/Desktop/GD32VW553/V1_MQTT_OK/GD32VW55X_Wifi_BLE_SDK/GD32VW55x_RELEASE_V1.0.2/MSDK/wpa_supplicant/wpa_supplicant\op_classes.c **** 		if (!(flag & HOSTAPD_CHAN_HT40PLUS))
 489              		.loc 1 210 12 is_stmt 0
 490 0050 8547     		li	a5,1
 491 0052 6398F900 		bne	s3,a5,.L63
 211:C:/Users/stapi/OneDrive/Desktop/GD32VW553/V1_MQTT_OK/GD32VW55X_Wifi_BLE_SDK/GD32VW55x_RELEASE_V1.0.2/MSDK/wpa_supplicant/wpa_supplicant\op_classes.c **** 			return NOT_ALLOWED;
 492              		.loc 1 211 3 is_stmt 1
 211:C:/Users/stapi/OneDrive/Desktop/GD32VW553/V1_MQTT_OK/GD32VW55X_Wifi_BLE_SDK/GD32VW55x_RELEASE_V1.0.2/MSDK/wpa_supplicant/wpa_supplicant\op_classes.c **** 			return NOT_ALLOWED;
 493              		.loc 1 211 14 is_stmt 0
 494 0056 C247     		lw	a5,16(sp)
 495 0058 C18B     		andi	a5,a5,16
 211:C:/Users/stapi/OneDrive/Desktop/GD32VW553/V1_MQTT_OK/GD32VW55X_Wifi_BLE_SDK/GD32VW55x_RELEASE_V1.0.2/MSDK/wpa_supplicant/wpa_supplicant\op_classes.c **** 			return NOT_ALLOWED;
 496              		.loc 1 211 6
 497 005a E5D7     		beq	a5,zero,.L67
 498              	.L69:
 218:C:/Users/stapi/OneDrive/Desktop/GD32VW553/V1_MQTT_OK/GD32VW55X_Wifi_BLE_SDK/GD32VW55x_RELEASE_V1.0.2/MSDK/wpa_supplicant/wpa_supplicant\op_classes.c **** 	} else if (bw == BW80) {
 499              		.loc 1 218 4 is_stmt 1
 218:C:/Users/stapi/OneDrive/Desktop/GD32VW553/V1_MQTT_OK/GD32VW55X_Wifi_BLE_SDK/GD32VW55x_RELEASE_V1.0.2/MSDK/wpa_supplicant/wpa_supplicant\op_classes.c **** 	} else if (bw == BW80) {
 500              		.loc 1 218 11 is_stmt 0
 501 005c 13864400 		addi	a2,s1,4
 502 0060 1DA0     		j	.L149
 503              	.L63:
 214:C:/Users/stapi/OneDrive/Desktop/GD32VW553/V1_MQTT_OK/GD32VW55X_Wifi_BLE_SDK/GD32VW55x_RELEASE_V1.0.2/MSDK/wpa_supplicant/wpa_supplicant\op_classes.c **** 		if (get_6ghz_sec_channel(channel) < 0)
 504              		.loc 1 214 9 is_stmt 1
 214:C:/Users/stapi/OneDrive/Desktop/GD32VW553/V1_MQTT_OK/GD32VW55X_Wifi_BLE_SDK/GD32VW55x_RELEASE_V1.0.2/MSDK/wpa_supplicant/wpa_supplicant\op_classes.c **** 		if (get_6ghz_sec_channel(channel) < 0)
 505              		.loc 1 214 13 is_stmt 0
 506 0062 4A85     		mv	a0,s2
 507 0064 97000000 		call	is_6ghz_op_class
 507      E7800000 
 508              	.LVL46:
 214:C:/Users/stapi/OneDrive/Desktop/GD32VW553/V1_MQTT_OK/GD32VW55X_Wifi_BLE_SDK/GD32VW55x_RELEASE_V1.0.2/MSDK/wpa_supplicant/wpa_supplicant\op_classes.c **** 		if (get_6ghz_sec_channel(channel) < 0)
 509              		.loc 1 214 12
 510 006c 21C1     		beq	a0,zero,.L68
 214:C:/Users/stapi/OneDrive/Desktop/GD32VW553/V1_MQTT_OK/GD32VW55X_Wifi_BLE_SDK/GD32VW55x_RELEASE_V1.0.2/MSDK/wpa_supplicant/wpa_supplicant\op_classes.c **** 		if (get_6ghz_sec_channel(channel) < 0)
 511              		.loc 1 214 40 discriminator 1
 512 006e 8D47     		li	a5,3
 513 0070 639EF902 		bne	s3,a5,.L68
 215:C:/Users/stapi/OneDrive/Desktop/GD32VW553/V1_MQTT_OK/GD32VW55X_Wifi_BLE_SDK/GD32VW55x_RELEASE_V1.0.2/MSDK/wpa_supplicant/wpa_supplicant\op_classes.c **** 			res2 = allow_channel(mode, op_class, channel - 4, NULL);
 514              		.loc 1 215 3 is_stmt 1
 215:C:/Users/stapi/OneDrive/Desktop/GD32VW553/V1_MQTT_OK/GD32VW55X_Wifi_BLE_SDK/GD32VW55x_RELEASE_V1.0.2/MSDK/wpa_supplicant/wpa_supplicant\op_classes.c **** 			res2 = allow_channel(mode, op_class, channel - 4, NULL);
 515              		.loc 1 215 7 is_stmt 0
 516 0074 2685     		mv	a0,s1
 517 0076 97000000 		call	get_6ghz_sec_channel
 517      E7800000 
 518              	.LVL47:
 215:C:/Users/stapi/OneDrive/Desktop/GD32VW553/V1_MQTT_OK/GD32VW55X_Wifi_BLE_SDK/GD32VW55x_RELEASE_V1.0.2/MSDK/wpa_supplicant/wpa_supplicant\op_classes.c **** 			res2 = allow_channel(mode, op_class, channel - 4, NULL);
 519              		.loc 1 215 6
 520 007e E35F05FC 		bge	a0,zero,.L69
 521              	.L147:
 216:C:/Users/stapi/OneDrive/Desktop/GD32VW553/V1_MQTT_OK/GD32VW55X_Wifi_BLE_SDK/GD32VW55x_RELEASE_V1.0.2/MSDK/wpa_supplicant/wpa_supplicant\op_classes.c **** 		else
 522              		.loc 1 216 4 is_stmt 1
 216:C:/Users/stapi/OneDrive/Desktop/GD32VW553/V1_MQTT_OK/GD32VW55X_Wifi_BLE_SDK/GD32VW55x_RELEASE_V1.0.2/MSDK/wpa_supplicant/wpa_supplicant\op_classes.c **** 		else
 523              		.loc 1 216 11 is_stmt 0
 524 0082 1386C4FF 		addi	a2,s1,-4
 525              	.L149:
 526 0086 8146     		li	a3,0
 527 0088 1376F60F 		andi	a2,a2,0xff
 528 008c CA85     		mv	a1,s2
 529 008e 5285     		mv	a0,s4
 530 0090 97000000 		call	allow_channel
 530      E7800000 
 531              	.LVL48:
 532              	.L66:
 242:C:/Users/stapi/OneDrive/Desktop/GD32VW553/V1_MQTT_OK/GD32VW55X_Wifi_BLE_SDK/GD32VW55x_RELEASE_V1.0.2/MSDK/wpa_supplicant/wpa_supplicant\op_classes.c **** 		return NOT_ALLOWED;
 533              		.loc 1 242 2 is_stmt 1
 242:C:/Users/stapi/OneDrive/Desktop/GD32VW553/V1_MQTT_OK/GD32VW55X_Wifi_BLE_SDK/GD32VW55x_RELEASE_V1.0.2/MSDK/wpa_supplicant/wpa_supplicant\op_classes.c **** 		return NOT_ALLOWED;
 534              		.loc 1 242 5 is_stmt 0
 535 0098 4DD4     		beq	s0,zero,.L67
 242:C:/Users/stapi/OneDrive/Desktop/GD32VW553/V1_MQTT_OK/GD32VW55X_Wifi_BLE_SDK/GD32VW55x_RELEASE_V1.0.2/MSDK/wpa_supplicant/wpa_supplicant\op_classes.c **** 		return NOT_ALLOWED;
 536              		.loc 1 242 25 discriminator 1
 537 009a 45D5     		beq	a0,zero,.L67
 245:C:/Users/stapi/OneDrive/Desktop/GD32VW553/V1_MQTT_OK/GD32VW55X_Wifi_BLE_SDK/GD32VW55x_RELEASE_V1.0.2/MSDK/wpa_supplicant/wpa_supplicant\op_classes.c **** 		return NO_IR;
 538              		.loc 1 245 2 is_stmt 1
 245:C:/Users/stapi/OneDrive/Desktop/GD32VW553/V1_MQTT_OK/GD32VW55X_Wifi_BLE_SDK/GD32VW55x_RELEASE_V1.0.2/MSDK/wpa_supplicant/wpa_supplicant\op_classes.c **** 		return NO_IR;
 539              		.loc 1 245 5 is_stmt 0
 540 009c 8547     		li	a5,1
 541 009e E303F4FA 		beq	s0,a5,.L60
 248:C:/Users/stapi/OneDrive/Desktop/GD32VW553/V1_MQTT_OK/GD32VW55X_Wifi_BLE_SDK/GD32VW55x_RELEASE_V1.0.2/MSDK/wpa_supplicant/wpa_supplicant\op_classes.c **** }
 542              		.loc 1 248 9 discriminator 1
 543 00a2 0D44     		li	s0,3
 544              	.LVL49:
 245:C:/Users/stapi/OneDrive/Desktop/GD32VW553/V1_MQTT_OK/GD32VW55X_Wifi_BLE_SDK/GD32VW55x_RELEASE_V1.0.2/MSDK/wpa_supplicant/wpa_supplicant\op_classes.c **** 		return NO_IR;
 545              		.loc 1 245 19 discriminator 1
 546 00a4 E310F5FA 		bne	a0,a5,.L60
 246:C:/Users/stapi/OneDrive/Desktop/GD32VW553/V1_MQTT_OK/GD32VW55X_Wifi_BLE_SDK/GD32VW55x_RELEASE_V1.0.2/MSDK/wpa_supplicant/wpa_supplicant\op_classes.c **** 
 547              		.loc 1 246 10
 548 00a8 0544     		li	s0,1
 549 00aa 69BF     		j	.L60
 550              	.LVL50:
 551              	.L68:
 219:C:/Users/stapi/OneDrive/Desktop/GD32VW553/V1_MQTT_OK/GD32VW55X_Wifi_BLE_SDK/GD32VW55x_RELEASE_V1.0.2/MSDK/wpa_supplicant/wpa_supplicant\op_classes.c **** 		/*
 552              		.loc 1 219 9 is_stmt 1
 219:C:/Users/stapi/OneDrive/Desktop/GD32VW553/V1_MQTT_OK/GD32VW55X_Wifi_BLE_SDK/GD32VW55x_RELEASE_V1.0.2/MSDK/wpa_supplicant/wpa_supplicant\op_classes.c **** 		/*
 553              		.loc 1 219 12 is_stmt 0
 554 00ac 9147     		li	a5,4
 555 00ae 639CF900 		bne	s3,a5,.L70
 556              	.L89:
 225:C:/Users/stapi/OneDrive/Desktop/GD32VW553/V1_MQTT_OK/GD32VW55X_Wifi_BLE_SDK/GD32VW55x_RELEASE_V1.0.2/MSDK/wpa_supplicant/wpa_supplicant\op_classes.c **** 	} else if (bw == BW160) {
 557              		.loc 1 225 3 is_stmt 1
 225:C:/Users/stapi/OneDrive/Desktop/GD32VW553/V1_MQTT_OK/GD32VW55X_Wifi_BLE_SDK/GD32VW55x_RELEASE_V1.0.2/MSDK/wpa_supplicant/wpa_supplicant\op_classes.c **** 	} else if (bw == BW160) {
 558              		.loc 1 225 16 is_stmt 0
 559 00b2 2686     		mv	a2,s1
 560 00b4 CA85     		mv	a1,s2
 561 00b6 5285     		mv	a0,s4
 562 00b8 97000000 		call	verify_80mhz
 562      E7800000 
 563              	.LVL51:
 564 00c0 2A84     		mv	s0,a0
 565              	.LVL52:
 566              	.L148:
 205:C:/Users/stapi/OneDrive/Desktop/GD32VW553/V1_MQTT_OK/GD32VW55X_Wifi_BLE_SDK/GD32VW55x_RELEASE_V1.0.2/MSDK/wpa_supplicant/wpa_supplicant\op_classes.c **** 	if (bw == BW40MINUS || (bw == BW40 && (((channel - 1) / 4) % 2))) {
 567              		.loc 1 205 7
 568 00c2 2285     		mv	a0,s0
 569 00c4 D1BF     		j	.L66
 570              	.LVL53:
 571              	.L70:
 226:C:/Users/stapi/OneDrive/Desktop/GD32VW553/V1_MQTT_OK/GD32VW55X_Wifi_BLE_SDK/GD32VW55x_RELEASE_V1.0.2/MSDK/wpa_supplicant/wpa_supplicant\op_classes.c **** 		/*
 572              		.loc 1 226 9 is_stmt 1
 226:C:/Users/stapi/OneDrive/Desktop/GD32VW553/V1_MQTT_OK/GD32VW55X_Wifi_BLE_SDK/GD32VW55x_RELEASE_V1.0.2/MSDK/wpa_supplicant/wpa_supplicant\op_classes.c **** 		/*
 573              		.loc 1 226 12 is_stmt 0
 574 00c6 9947     		li	a5,6
 575 00c8 639EF90E 		bne	s3,a5,.L71
 232:C:/Users/stapi/OneDrive/Desktop/GD32VW553/V1_MQTT_OK/GD32VW55X_Wifi_BLE_SDK/GD32VW55x_RELEASE_V1.0.2/MSDK/wpa_supplicant/wpa_supplicant\op_classes.c **** 	} else if (bw == BW80P80) {
 576              		.loc 1 232 3 is_stmt 1
 577              	.LVL54:
 578              	.LBB23:
 579              	.LBB24:
 148:C:/Users/stapi/OneDrive/Desktop/GD32VW553/V1_MQTT_OK/GD32VW55X_Wifi_BLE_SDK/GD32VW55x_RELEASE_V1.0.2/MSDK/wpa_supplicant/wpa_supplicant\op_classes.c **** 	unsigned int i;
 580              		.loc 1 148 2
 149:C:/Users/stapi/OneDrive/Desktop/GD32VW553/V1_MQTT_OK/GD32VW55X_Wifi_BLE_SDK/GD32VW55x_RELEASE_V1.0.2/MSDK/wpa_supplicant/wpa_supplicant\op_classes.c **** 	unsigned int no_ir = 0;
 581              		.loc 1 149 2
 150:C:/Users/stapi/OneDrive/Desktop/GD32VW553/V1_MQTT_OK/GD32VW55X_Wifi_BLE_SDK/GD32VW55x_RELEASE_V1.0.2/MSDK/wpa_supplicant/wpa_supplicant\op_classes.c **** 	const u8 *center_channels;
 582              		.loc 1 150 2
 151:C:/Users/stapi/OneDrive/Desktop/GD32VW553/V1_MQTT_OK/GD32VW55X_Wifi_BLE_SDK/GD32VW55x_RELEASE_V1.0.2/MSDK/wpa_supplicant/wpa_supplicant\op_classes.c **** 	size_t num_chan;
 583              		.loc 1 151 2
 152:C:/Users/stapi/OneDrive/Desktop/GD32VW553/V1_MQTT_OK/GD32VW55X_Wifi_BLE_SDK/GD32VW55x_RELEASE_V1.0.2/MSDK/wpa_supplicant/wpa_supplicant\op_classes.c **** 	const u8 center_channels_5ghz[] = { 50, 114, 163 };
 584              		.loc 1 152 2
 153:C:/Users/stapi/OneDrive/Desktop/GD32VW553/V1_MQTT_OK/GD32VW55X_Wifi_BLE_SDK/GD32VW55x_RELEASE_V1.0.2/MSDK/wpa_supplicant/wpa_supplicant\op_classes.c **** 	const u8 center_channels_6ghz[] = { 15, 47, 79, 111, 143, 175, 207 };
 585              		.loc 1 153 2
 153:C:/Users/stapi/OneDrive/Desktop/GD32VW553/V1_MQTT_OK/GD32VW55X_Wifi_BLE_SDK/GD32VW55x_RELEASE_V1.0.2/MSDK/wpa_supplicant/wpa_supplicant\op_classes.c **** 	const u8 center_channels_6ghz[] = { 15, 47, 79, 111, 143, 175, 207 };
 586              		.loc 1 153 11 is_stmt 0
 587 00cc 9D67     		li	a5,28672
 588 00ce 93872723 		addi	a5,a5,562
 154:C:/Users/stapi/OneDrive/Desktop/GD32VW553/V1_MQTT_OK/GD32VW55X_Wifi_BLE_SDK/GD32VW55x_RELEASE_V1.0.2/MSDK/wpa_supplicant/wpa_supplicant\op_classes.c **** 
 589              		.loc 1 154 11
 590 00d2 B7050000 		lui	a1,%hi(.LC2)
 153:C:/Users/stapi/OneDrive/Desktop/GD32VW553/V1_MQTT_OK/GD32VW55X_Wifi_BLE_SDK/GD32VW55x_RELEASE_V1.0.2/MSDK/wpa_supplicant/wpa_supplicant\op_classes.c **** 	const u8 center_channels_6ghz[] = { 15, 47, 79, 111, 143, 175, 207 };
 591              		.loc 1 153 11
 592 00d6 2316F100 		sh	a5,12(sp)
 154:C:/Users/stapi/OneDrive/Desktop/GD32VW553/V1_MQTT_OK/GD32VW55X_Wifi_BLE_SDK/GD32VW55x_RELEASE_V1.0.2/MSDK/wpa_supplicant/wpa_supplicant\op_classes.c **** 
 593              		.loc 1 154 11
 594 00da 1D46     		li	a2,7
 153:C:/Users/stapi/OneDrive/Desktop/GD32VW553/V1_MQTT_OK/GD32VW55X_Wifi_BLE_SDK/GD32VW55x_RELEASE_V1.0.2/MSDK/wpa_supplicant/wpa_supplicant\op_classes.c **** 	const u8 center_channels_6ghz[] = { 15, 47, 79, 111, 143, 175, 207 };
 595              		.loc 1 153 11
 596 00dc 930730FA 		li	a5,-93
 154:C:/Users/stapi/OneDrive/Desktop/GD32VW553/V1_MQTT_OK/GD32VW55X_Wifi_BLE_SDK/GD32VW55x_RELEASE_V1.0.2/MSDK/wpa_supplicant/wpa_supplicant\op_classes.c **** 
 597              		.loc 1 154 11
 598 00e0 93850500 		addi	a1,a1,%lo(.LC2)
 599 00e4 2808     		addi	a0,sp,24
 153:C:/Users/stapi/OneDrive/Desktop/GD32VW553/V1_MQTT_OK/GD32VW55X_Wifi_BLE_SDK/GD32VW55x_RELEASE_V1.0.2/MSDK/wpa_supplicant/wpa_supplicant\op_classes.c **** 	const u8 center_channels_6ghz[] = { 15, 47, 79, 111, 143, 175, 207 };
 600              		.loc 1 153 11
 601 00e6 2307F100 		sb	a5,14(sp)
 154:C:/Users/stapi/OneDrive/Desktop/GD32VW553/V1_MQTT_OK/GD32VW55X_Wifi_BLE_SDK/GD32VW55x_RELEASE_V1.0.2/MSDK/wpa_supplicant/wpa_supplicant\op_classes.c **** 
 602              		.loc 1 154 2 is_stmt 1
 154:C:/Users/stapi/OneDrive/Desktop/GD32VW553/V1_MQTT_OK/GD32VW55X_Wifi_BLE_SDK/GD32VW55x_RELEASE_V1.0.2/MSDK/wpa_supplicant/wpa_supplicant\op_classes.c **** 
 603              		.loc 1 154 11 is_stmt 0
 604 00ea 97000000 		call	memcpy
 604      E7800000 
 605              	.LVL55:
 156:C:/Users/stapi/OneDrive/Desktop/GD32VW553/V1_MQTT_OK/GD32VW55X_Wifi_BLE_SDK/GD32VW55x_RELEASE_V1.0.2/MSDK/wpa_supplicant/wpa_supplicant\op_classes.c **** 		center_channels = center_channels_6ghz;
 606              		.loc 1 156 2 is_stmt 1
 156:C:/Users/stapi/OneDrive/Desktop/GD32VW553/V1_MQTT_OK/GD32VW55X_Wifi_BLE_SDK/GD32VW55x_RELEASE_V1.0.2/MSDK/wpa_supplicant/wpa_supplicant\op_classes.c **** 		center_channels = center_channels_6ghz;
 607              		.loc 1 156 6 is_stmt 0
 608 00f2 4A85     		mv	a0,s2
 609 00f4 97000000 		call	is_6ghz_op_class
 609      E7800000 
 610              	.LVL56:
 156:C:/Users/stapi/OneDrive/Desktop/GD32VW553/V1_MQTT_OK/GD32VW55X_Wifi_BLE_SDK/GD32VW55x_RELEASE_V1.0.2/MSDK/wpa_supplicant/wpa_supplicant\op_classes.c **** 		center_channels = center_channels_6ghz;
 611              		.loc 1 156 5
 612 00fc 1DE9     		bne	a0,zero,.L90
 161:C:/Users/stapi/OneDrive/Desktop/GD32VW553/V1_MQTT_OK/GD32VW55X_Wifi_BLE_SDK/GD32VW55x_RELEASE_V1.0.2/MSDK/wpa_supplicant/wpa_supplicant\op_classes.c **** 	}
 613              		.loc 1 161 12
 614 00fe 0D46     		li	a2,3
 160:C:/Users/stapi/OneDrive/Desktop/GD32VW553/V1_MQTT_OK/GD32VW55X_Wifi_BLE_SDK/GD32VW55x_RELEASE_V1.0.2/MSDK/wpa_supplicant/wpa_supplicant\op_classes.c **** 		num_chan = ARRAY_SIZE(center_channels_5ghz);
 615              		.loc 1 160 19
 616 0100 7C00     		addi	a5,sp,12
 617              	.L72:
 618              	.LVL57:
 164:C:/Users/stapi/OneDrive/Desktop/GD32VW553/V1_MQTT_OK/GD32VW55X_Wifi_BLE_SDK/GD32VW55x_RELEASE_V1.0.2/MSDK/wpa_supplicant/wpa_supplicant\op_classes.c **** 					num_chan);
 619              		.loc 1 164 2 is_stmt 1
 620              	.LBB25:
 621              	.LBB26:
 126:C:/Users/stapi/OneDrive/Desktop/GD32VW553/V1_MQTT_OK/GD32VW55X_Wifi_BLE_SDK/GD32VW55x_RELEASE_V1.0.2/MSDK/wpa_supplicant/wpa_supplicant\op_classes.c **** 
 622              		.loc 1 126 2
 128:C:/Users/stapi/OneDrive/Desktop/GD32VW553/V1_MQTT_OK/GD32VW55X_Wifi_BLE_SDK/GD32VW55x_RELEASE_V1.0.2/MSDK/wpa_supplicant/wpa_supplicant\op_classes.c **** 		return 0;
 623              		.loc 1 128 2
 128:C:/Users/stapi/OneDrive/Desktop/GD32VW553/V1_MQTT_OK/GD32VW55X_Wifi_BLE_SDK/GD32VW55x_RELEASE_V1.0.2/MSDK/wpa_supplicant/wpa_supplicant\op_classes.c **** 		return 0;
 624              		.loc 1 128 5 is_stmt 0
 625 0102 83260A00 		lw	a3,0(s4)
 626 0106 0947     		li	a4,2
 627              	.LBE26:
 628              	.LBE25:
 167:C:/Users/stapi/OneDrive/Desktop/GD32VW553/V1_MQTT_OK/GD32VW55X_Wifi_BLE_SDK/GD32VW55x_RELEASE_V1.0.2/MSDK/wpa_supplicant/wpa_supplicant\op_classes.c **** 
 629              		.loc 1 167 10
 630 0108 0144     		li	s0,0
 631              	.LVL58:
 632              	.LBB28:
 633              	.LBB27:
 128:C:/Users/stapi/OneDrive/Desktop/GD32VW553/V1_MQTT_OK/GD32VW55X_Wifi_BLE_SDK/GD32VW55x_RELEASE_V1.0.2/MSDK/wpa_supplicant/wpa_supplicant\op_classes.c **** 		return 0;
 634              		.loc 1 128 5
 635 010a E39CE6FA 		bne	a3,a4,.L148
 131:C:/Users/stapi/OneDrive/Desktop/GD32VW553/V1_MQTT_OK/GD32VW55X_Wifi_BLE_SDK/GD32VW55x_RELEASE_V1.0.2/MSDK/wpa_supplicant/wpa_supplicant\op_classes.c **** 		/*
 636              		.loc 1 131 9
 637 010e 8146     		li	a3,0
 638              	.L76:
 639              	.LVL59:
 136:C:/Users/stapi/OneDrive/Desktop/GD32VW553/V1_MQTT_OK/GD32VW55X_Wifi_BLE_SDK/GD32VW55x_RELEASE_V1.0.2/MSDK/wpa_supplicant/wpa_supplicant\op_classes.c **** 		    channel <= center_channels[i] + 14)
 640              		.loc 1 136 3 is_stmt 1
 136:C:/Users/stapi/OneDrive/Desktop/GD32VW553/V1_MQTT_OK/GD32VW55X_Wifi_BLE_SDK/GD32VW55x_RELEASE_V1.0.2/MSDK/wpa_supplicant/wpa_supplicant\op_classes.c **** 		    channel <= center_channels[i] + 14)
 641              		.loc 1 136 33 is_stmt 0
 642 0110 3387D700 		add	a4,a5,a3
 643 0114 03470700 		lbu	a4,0(a4)
 136:C:/Users/stapi/OneDrive/Desktop/GD32VW553/V1_MQTT_OK/GD32VW55X_Wifi_BLE_SDK/GD32VW55x_RELEASE_V1.0.2/MSDK/wpa_supplicant/wpa_supplicant\op_classes.c **** 		    channel <= center_channels[i] + 14)
 644              		.loc 1 136 37
 645 0118 930527FF 		addi	a1,a4,-14
 136:C:/Users/stapi/OneDrive/Desktop/GD32VW553/V1_MQTT_OK/GD32VW55X_Wifi_BLE_SDK/GD32VW55x_RELEASE_V1.0.2/MSDK/wpa_supplicant/wpa_supplicant\op_classes.c **** 		    channel <= center_channels[i] + 14)
 646              		.loc 1 136 6
 647 011c 63C6B400 		blt	s1,a1,.L74
 137:C:/Users/stapi/OneDrive/Desktop/GD32VW553/V1_MQTT_OK/GD32VW55X_Wifi_BLE_SDK/GD32VW55x_RELEASE_V1.0.2/MSDK/wpa_supplicant/wpa_supplicant\op_classes.c **** 			return center_channels[i];
 648              		.loc 1 137 37
 649 0120 9305E700 		addi	a1,a4,14
 136:C:/Users/stapi/OneDrive/Desktop/GD32VW553/V1_MQTT_OK/GD32VW55X_Wifi_BLE_SDK/GD32VW55x_RELEASE_V1.0.2/MSDK/wpa_supplicant/wpa_supplicant\op_classes.c **** 		    channel <= center_channels[i] + 14)
 650              		.loc 1 136 42
 651 0124 63DA9500 		ble	s1,a1,.L75
 652              	.L74:
 131:C:/Users/stapi/OneDrive/Desktop/GD32VW553/V1_MQTT_OK/GD32VW55X_Wifi_BLE_SDK/GD32VW55x_RELEASE_V1.0.2/MSDK/wpa_supplicant/wpa_supplicant\op_classes.c **** 		/*
 653              		.loc 1 131 28 is_stmt 1
 131:C:/Users/stapi/OneDrive/Desktop/GD32VW553/V1_MQTT_OK/GD32VW55X_Wifi_BLE_SDK/GD32VW55x_RELEASE_V1.0.2/MSDK/wpa_supplicant/wpa_supplicant\op_classes.c **** 		/*
 654              		.loc 1 131 29 is_stmt 0
 655 0128 8506     		addi	a3,a3,1
 656              	.LVL60:
 131:C:/Users/stapi/OneDrive/Desktop/GD32VW553/V1_MQTT_OK/GD32VW55X_Wifi_BLE_SDK/GD32VW55x_RELEASE_V1.0.2/MSDK/wpa_supplicant/wpa_supplicant\op_classes.c **** 		/*
 657              		.loc 1 131 14 is_stmt 1
 131:C:/Users/stapi/OneDrive/Desktop/GD32VW553/V1_MQTT_OK/GD32VW55X_Wifi_BLE_SDK/GD32VW55x_RELEASE_V1.0.2/MSDK/wpa_supplicant/wpa_supplicant\op_classes.c **** 		/*
 658              		.loc 1 131 2 is_stmt 0
 659 012a E313D6FE 		bne	a2,a3,.L76
 660              	.LVL61:
 661              	.L92:
 662              	.LBE27:
 663              	.LBE28:
 167:C:/Users/stapi/OneDrive/Desktop/GD32VW553/V1_MQTT_OK/GD32VW55X_Wifi_BLE_SDK/GD32VW55x_RELEASE_V1.0.2/MSDK/wpa_supplicant/wpa_supplicant\op_classes.c **** 
 664              		.loc 1 167 10
 665 012e 0144     		li	s0,0
 666 0130 49BF     		j	.L148
 667              	.LVL62:
 668              	.L90:
 158:C:/Users/stapi/OneDrive/Desktop/GD32VW553/V1_MQTT_OK/GD32VW55X_Wifi_BLE_SDK/GD32VW55x_RELEASE_V1.0.2/MSDK/wpa_supplicant/wpa_supplicant\op_classes.c **** 	} else {
 669              		.loc 1 158 12
 670 0132 1D46     		li	a2,7
 157:C:/Users/stapi/OneDrive/Desktop/GD32VW553/V1_MQTT_OK/GD32VW55X_Wifi_BLE_SDK/GD32VW55x_RELEASE_V1.0.2/MSDK/wpa_supplicant/wpa_supplicant\op_classes.c **** 		num_chan = ARRAY_SIZE(center_channels_6ghz);
 671              		.loc 1 157 19
 672 0134 3C08     		addi	a5,sp,24
 673 0136 F1B7     		j	.L72
 674              	.LVL63:
 675              	.L75:
 164:C:/Users/stapi/OneDrive/Desktop/GD32VW553/V1_MQTT_OK/GD32VW55X_Wifi_BLE_SDK/GD32VW55x_RELEASE_V1.0.2/MSDK/wpa_supplicant/wpa_supplicant\op_classes.c **** 					num_chan);
 676              		.loc 1 164 14
 677 0138 9379F70F 		andi	s3,a4,0xff
 678              	.LVL64:
 166:C:/Users/stapi/OneDrive/Desktop/GD32VW553/V1_MQTT_OK/GD32VW55X_Wifi_BLE_SDK/GD32VW55x_RELEASE_V1.0.2/MSDK/wpa_supplicant/wpa_supplicant\op_classes.c **** 		return NOT_ALLOWED;
 679              		.loc 1 166 2 is_stmt 1
 166:C:/Users/stapi/OneDrive/Desktop/GD32VW553/V1_MQTT_OK/GD32VW55X_Wifi_BLE_SDK/GD32VW55x_RELEASE_V1.0.2/MSDK/wpa_supplicant/wpa_supplicant\op_classes.c **** 		return NOT_ALLOWED;
 680              		.loc 1 166 5 is_stmt 0
 681 013c 6DDB     		beq	a4,zero,.L92
 682 013e C919     		addi	s3,s3,-14
 683              	.LVL65:
 684 0140 93F9F90F 		andi	s3,s3,0xff
 685              	.LVL66:
 150:C:/Users/stapi/OneDrive/Desktop/GD32VW553/V1_MQTT_OK/GD32VW55X_Wifi_BLE_SDK/GD32VW55x_RELEASE_V1.0.2/MSDK/wpa_supplicant/wpa_supplicant\op_classes.c **** 	const u8 *center_channels;
 686              		.loc 1 150 15
 687 0144 0144     		li	s0,0
 170:C:/Users/stapi/OneDrive/Desktop/GD32VW553/V1_MQTT_OK/GD32VW55X_Wifi_BLE_SDK/GD32VW55x_RELEASE_V1.0.2/MSDK/wpa_supplicant/wpa_supplicant\op_classes.c **** 		unsigned int flags;
 688              		.loc 1 170 9
 689 0146 8144     		li	s1,0
 690              	.LVL67:
 691              	.LBB29:
 178:C:/Users/stapi/OneDrive/Desktop/GD32VW553/V1_MQTT_OK/GD32VW55X_Wifi_BLE_SDK/GD32VW55x_RELEASE_V1.0.2/MSDK/wpa_supplicant/wpa_supplicant\op_classes.c **** 		    (i == 1 && !(flags & HOSTAPD_CHAN_VHT_30_130)) ||
 692              		.loc 1 178 54
 693 0148 854A     		li	s5,1
 179:C:/Users/stapi/OneDrive/Desktop/GD32VW553/V1_MQTT_OK/GD32VW55X_Wifi_BLE_SDK/GD32VW55x_RELEASE_V1.0.2/MSDK/wpa_supplicant/wpa_supplicant\op_classes.c **** 		    (i == 2 && !(flags & HOSTAPD_CHAN_VHT_50_110)) ||
 694              		.loc 1 179 54
 695 014a 094B     		li	s6,2
 180:C:/Users/stapi/OneDrive/Desktop/GD32VW553/V1_MQTT_OK/GD32VW55X_Wifi_BLE_SDK/GD32VW55x_RELEASE_V1.0.2/MSDK/wpa_supplicant/wpa_supplicant\op_classes.c **** 		    (i == 3 && !(flags & HOSTAPD_CHAN_VHT_70_90)) ||
 696              		.loc 1 180 54
 697 014c 8D4B     		li	s7,3
 181:C:/Users/stapi/OneDrive/Desktop/GD32VW553/V1_MQTT_OK/GD32VW55X_Wifi_BLE_SDK/GD32VW55x_RELEASE_V1.0.2/MSDK/wpa_supplicant/wpa_supplicant\op_classes.c **** 		    (i == 4 && !(flags & HOSTAPD_CHAN_VHT_90_70)) ||
 698              		.loc 1 181 53
 699 014e 114C     		li	s8,4
 182:C:/Users/stapi/OneDrive/Desktop/GD32VW553/V1_MQTT_OK/GD32VW55X_Wifi_BLE_SDK/GD32VW55x_RELEASE_V1.0.2/MSDK/wpa_supplicant/wpa_supplicant\op_classes.c **** 		    (i == 5 && !(flags & HOSTAPD_CHAN_VHT_110_50)) ||
 700              		.loc 1 182 53
 701 0150 954C     		li	s9,5
 183:C:/Users/stapi/OneDrive/Desktop/GD32VW553/V1_MQTT_OK/GD32VW55X_Wifi_BLE_SDK/GD32VW55x_RELEASE_V1.0.2/MSDK/wpa_supplicant/wpa_supplicant\op_classes.c **** 		    (i == 6 && !(flags & HOSTAPD_CHAN_VHT_130_30)) ||
 702              		.loc 1 183 54
 703 0152 194D     		li	s10,6
 185:C:/Users/stapi/OneDrive/Desktop/GD32VW553/V1_MQTT_OK/GD32VW55X_Wifi_BLE_SDK/GD32VW55x_RELEASE_V1.0.2/MSDK/wpa_supplicant/wpa_supplicant\op_classes.c **** 			return NOT_ALLOWED;
 704              		.loc 1 185 26
 705 0154 B70D0008 		li	s11,134217728
 706              	.LVL68:
 707              	.L87:
 171:C:/Users/stapi/OneDrive/Desktop/GD32VW553/V1_MQTT_OK/GD32VW55X_Wifi_BLE_SDK/GD32VW55x_RELEASE_V1.0.2/MSDK/wpa_supplicant/wpa_supplicant\op_classes.c **** 		u8 adj_chan = center_chan - 14 + i * 4;
 708              		.loc 1 171 3 is_stmt 1
 172:C:/Users/stapi/OneDrive/Desktop/GD32VW553/V1_MQTT_OK/GD32VW55X_Wifi_BLE_SDK/GD32VW55x_RELEASE_V1.0.2/MSDK/wpa_supplicant/wpa_supplicant\op_classes.c **** 
 709              		.loc 1 172 3
 174:C:/Users/stapi/OneDrive/Desktop/GD32VW553/V1_MQTT_OK/GD32VW55X_Wifi_BLE_SDK/GD32VW55x_RELEASE_V1.0.2/MSDK/wpa_supplicant/wpa_supplicant\op_classes.c **** 		    NOT_ALLOWED)
 710              		.loc 1 174 3
 174:C:/Users/stapi/OneDrive/Desktop/GD32VW553/V1_MQTT_OK/GD32VW55X_Wifi_BLE_SDK/GD32VW55x_RELEASE_V1.0.2/MSDK/wpa_supplicant/wpa_supplicant\op_classes.c **** 		    NOT_ALLOWED)
 711              		.loc 1 174 7 is_stmt 0
 712 0158 5408     		addi	a3,sp,20
 713 015a 4E86     		mv	a2,s3
 714 015c CA85     		mv	a1,s2
 715 015e 5285     		mv	a0,s4
 716 0160 97000000 		call	allow_channel
 716      E7800000 
 717              	.LVL69:
 174:C:/Users/stapi/OneDrive/Desktop/GD32VW553/V1_MQTT_OK/GD32VW55X_Wifi_BLE_SDK/GD32VW55x_RELEASE_V1.0.2/MSDK/wpa_supplicant/wpa_supplicant\op_classes.c **** 		    NOT_ALLOWED)
 718              		.loc 1 174 6
 719 0168 79D1     		beq	a0,zero,.L92
 178:C:/Users/stapi/OneDrive/Desktop/GD32VW553/V1_MQTT_OK/GD32VW55X_Wifi_BLE_SDK/GD32VW55x_RELEASE_V1.0.2/MSDK/wpa_supplicant/wpa_supplicant\op_classes.c **** 		    (i == 1 && !(flags & HOSTAPD_CHAN_VHT_30_130)) ||
 720              		.loc 1 178 3 is_stmt 1
 178:C:/Users/stapi/OneDrive/Desktop/GD32VW553/V1_MQTT_OK/GD32VW55X_Wifi_BLE_SDK/GD32VW55x_RELEASE_V1.0.2/MSDK/wpa_supplicant/wpa_supplicant\op_classes.c **** 		    (i == 1 && !(flags & HOSTAPD_CHAN_VHT_30_130)) ||
 721              		.loc 1 178 26 is_stmt 0
 722 016a D247     		lw	a5,20(sp)
 723 016c 37071000 		li	a4,1048576
 178:C:/Users/stapi/OneDrive/Desktop/GD32VW553/V1_MQTT_OK/GD32VW55X_Wifi_BLE_SDK/GD32VW55x_RELEASE_V1.0.2/MSDK/wpa_supplicant/wpa_supplicant\op_classes.c **** 		    (i == 1 && !(flags & HOSTAPD_CHAN_VHT_30_130)) ||
 724              		.loc 1 178 6
 725 0170 9DC8     		beq	s1,zero,.L150
 179:C:/Users/stapi/OneDrive/Desktop/GD32VW553/V1_MQTT_OK/GD32VW55X_Wifi_BLE_SDK/GD32VW55x_RELEASE_V1.0.2/MSDK/wpa_supplicant/wpa_supplicant\op_classes.c **** 		    (i == 2 && !(flags & HOSTAPD_CHAN_VHT_50_110)) ||
 726              		.loc 1 179 26
 727 0172 37072000 		li	a4,2097152
 178:C:/Users/stapi/OneDrive/Desktop/GD32VW553/V1_MQTT_OK/GD32VW55X_Wifi_BLE_SDK/GD32VW55x_RELEASE_V1.0.2/MSDK/wpa_supplicant/wpa_supplicant\op_classes.c **** 		    (i == 1 && !(flags & HOSTAPD_CHAN_VHT_30_130)) ||
 728              		.loc 1 178 54
 729 0176 63885403 		beq	s1,s5,.L150
 180:C:/Users/stapi/OneDrive/Desktop/GD32VW553/V1_MQTT_OK/GD32VW55X_Wifi_BLE_SDK/GD32VW55x_RELEASE_V1.0.2/MSDK/wpa_supplicant/wpa_supplicant\op_classes.c **** 		    (i == 3 && !(flags & HOSTAPD_CHAN_VHT_70_90)) ||
 730              		.loc 1 180 26
 731 017a 37074000 		li	a4,4194304
 179:C:/Users/stapi/OneDrive/Desktop/GD32VW553/V1_MQTT_OK/GD32VW55X_Wifi_BLE_SDK/GD32VW55x_RELEASE_V1.0.2/MSDK/wpa_supplicant/wpa_supplicant\op_classes.c **** 		    (i == 2 && !(flags & HOSTAPD_CHAN_VHT_50_110)) ||
 732              		.loc 1 179 54
 733 017e 63846403 		beq	s1,s6,.L150
 181:C:/Users/stapi/OneDrive/Desktop/GD32VW553/V1_MQTT_OK/GD32VW55X_Wifi_BLE_SDK/GD32VW55x_RELEASE_V1.0.2/MSDK/wpa_supplicant/wpa_supplicant\op_classes.c **** 		    (i == 4 && !(flags & HOSTAPD_CHAN_VHT_90_70)) ||
 734              		.loc 1 181 26
 735 0182 37078000 		li	a4,8388608
 180:C:/Users/stapi/OneDrive/Desktop/GD32VW553/V1_MQTT_OK/GD32VW55X_Wifi_BLE_SDK/GD32VW55x_RELEASE_V1.0.2/MSDK/wpa_supplicant/wpa_supplicant\op_classes.c **** 		    (i == 3 && !(flags & HOSTAPD_CHAN_VHT_70_90)) ||
 736              		.loc 1 180 54
 737 0186 63807403 		beq	s1,s7,.L150
 182:C:/Users/stapi/OneDrive/Desktop/GD32VW553/V1_MQTT_OK/GD32VW55X_Wifi_BLE_SDK/GD32VW55x_RELEASE_V1.0.2/MSDK/wpa_supplicant/wpa_supplicant\op_classes.c **** 		    (i == 5 && !(flags & HOSTAPD_CHAN_VHT_110_50)) ||
 738              		.loc 1 182 26
 739 018a 37070001 		li	a4,16777216
 181:C:/Users/stapi/OneDrive/Desktop/GD32VW553/V1_MQTT_OK/GD32VW55X_Wifi_BLE_SDK/GD32VW55x_RELEASE_V1.0.2/MSDK/wpa_supplicant/wpa_supplicant\op_classes.c **** 		    (i == 4 && !(flags & HOSTAPD_CHAN_VHT_90_70)) ||
 740              		.loc 1 181 53
 741 018e 638C8401 		beq	s1,s8,.L150
 183:C:/Users/stapi/OneDrive/Desktop/GD32VW553/V1_MQTT_OK/GD32VW55X_Wifi_BLE_SDK/GD32VW55x_RELEASE_V1.0.2/MSDK/wpa_supplicant/wpa_supplicant\op_classes.c **** 		    (i == 6 && !(flags & HOSTAPD_CHAN_VHT_130_30)) ||
 742              		.loc 1 183 26
 743 0192 37070002 		li	a4,33554432
 182:C:/Users/stapi/OneDrive/Desktop/GD32VW553/V1_MQTT_OK/GD32VW55X_Wifi_BLE_SDK/GD32VW55x_RELEASE_V1.0.2/MSDK/wpa_supplicant/wpa_supplicant\op_classes.c **** 		    (i == 5 && !(flags & HOSTAPD_CHAN_VHT_110_50)) ||
 744              		.loc 1 182 53
 745 0196 63889401 		beq	s1,s9,.L150
 185:C:/Users/stapi/OneDrive/Desktop/GD32VW553/V1_MQTT_OK/GD32VW55X_Wifi_BLE_SDK/GD32VW55x_RELEASE_V1.0.2/MSDK/wpa_supplicant/wpa_supplicant\op_classes.c **** 			return NOT_ALLOWED;
 746              		.loc 1 185 26
 747 019a 33F7B701 		and	a4,a5,s11
 183:C:/Users/stapi/OneDrive/Desktop/GD32VW553/V1_MQTT_OK/GD32VW55X_Wifi_BLE_SDK/GD32VW55x_RELEASE_V1.0.2/MSDK/wpa_supplicant/wpa_supplicant\op_classes.c **** 		    (i == 6 && !(flags & HOSTAPD_CHAN_VHT_130_30)) ||
 748              		.loc 1 183 54
 749 019e 6395A401 		bne	s1,s10,.L146
 184:C:/Users/stapi/OneDrive/Desktop/GD32VW553/V1_MQTT_OK/GD32VW55X_Wifi_BLE_SDK/GD32VW55x_RELEASE_V1.0.2/MSDK/wpa_supplicant/wpa_supplicant\op_classes.c **** 		    (i == 7 && !(flags & HOSTAPD_CHAN_VHT_150_10)))
 750              		.loc 1 184 26
 751 01a2 37070004 		li	a4,67108864
 752              	.L150:
 753 01a6 7D8F     		and	a4,a5,a4
 754              	.L146:
 185:C:/Users/stapi/OneDrive/Desktop/GD32VW553/V1_MQTT_OK/GD32VW55X_Wifi_BLE_SDK/GD32VW55x_RELEASE_V1.0.2/MSDK/wpa_supplicant/wpa_supplicant\op_classes.c **** 			return NOT_ALLOWED;
 755              		.loc 1 185 15
 756 01a8 59D3     		beq	a4,zero,.L92
 188:C:/Users/stapi/OneDrive/Desktop/GD32VW553/V1_MQTT_OK/GD32VW55X_Wifi_BLE_SDK/GD32VW55x_RELEASE_V1.0.2/MSDK/wpa_supplicant/wpa_supplicant\op_classes.c **** 			no_ir = 1;
 757              		.loc 1 188 3 is_stmt 1
 188:C:/Users/stapi/OneDrive/Desktop/GD32VW553/V1_MQTT_OK/GD32VW55X_Wifi_BLE_SDK/GD32VW55x_RELEASE_V1.0.2/MSDK/wpa_supplicant/wpa_supplicant\op_classes.c **** 			no_ir = 1;
 758              		.loc 1 188 13 is_stmt 0
 759 01aa 898B     		andi	a5,a5,2
 188:C:/Users/stapi/OneDrive/Desktop/GD32VW553/V1_MQTT_OK/GD32VW55X_Wifi_BLE_SDK/GD32VW55x_RELEASE_V1.0.2/MSDK/wpa_supplicant/wpa_supplicant\op_classes.c **** 			no_ir = 1;
 760              		.loc 1 188 6
 761 01ac 91C3     		beq	a5,zero,.L86
 189:C:/Users/stapi/OneDrive/Desktop/GD32VW553/V1_MQTT_OK/GD32VW55X_Wifi_BLE_SDK/GD32VW55x_RELEASE_V1.0.2/MSDK/wpa_supplicant/wpa_supplicant\op_classes.c **** 	}
 762              		.loc 1 189 10
 763 01ae 0544     		li	s0,1
 764              	.LVL70:
 765              	.L86:
 766              	.LBE29:
 170:C:/Users/stapi/OneDrive/Desktop/GD32VW553/V1_MQTT_OK/GD32VW55X_Wifi_BLE_SDK/GD32VW55x_RELEASE_V1.0.2/MSDK/wpa_supplicant/wpa_supplicant\op_classes.c **** 		unsigned int flags;
 767              		.loc 1 170 21 is_stmt 1
 170:C:/Users/stapi/OneDrive/Desktop/GD32VW553/V1_MQTT_OK/GD32VW55X_Wifi_BLE_SDK/GD32VW55x_RELEASE_V1.0.2/MSDK/wpa_supplicant/wpa_supplicant\op_classes.c **** 		unsigned int flags;
 768              		.loc 1 170 2 is_stmt 0
 769 01b0 9109     		addi	s3,s3,4
 770              	.LVL71:
 170:C:/Users/stapi/OneDrive/Desktop/GD32VW553/V1_MQTT_OK/GD32VW55X_Wifi_BLE_SDK/GD32VW55x_RELEASE_V1.0.2/MSDK/wpa_supplicant/wpa_supplicant\op_classes.c **** 		unsigned int flags;
 771              		.loc 1 170 22
 772 01b2 8504     		addi	s1,s1,1
 773              	.LVL72:
 170:C:/Users/stapi/OneDrive/Desktop/GD32VW553/V1_MQTT_OK/GD32VW55X_Wifi_BLE_SDK/GD32VW55x_RELEASE_V1.0.2/MSDK/wpa_supplicant/wpa_supplicant\op_classes.c **** 		unsigned int flags;
 774              		.loc 1 170 14 is_stmt 1
 170:C:/Users/stapi/OneDrive/Desktop/GD32VW553/V1_MQTT_OK/GD32VW55X_Wifi_BLE_SDK/GD32VW55x_RELEASE_V1.0.2/MSDK/wpa_supplicant/wpa_supplicant\op_classes.c **** 		unsigned int flags;
 775              		.loc 1 170 2 is_stmt 0
 776 01b4 A147     		li	a5,8
 777 01b6 93F9F90F 		andi	s3,s3,0xff
 778 01ba E39FF4F8 		bne	s1,a5,.L87
 779              	.LVL73:
 192:C:/Users/stapi/OneDrive/Desktop/GD32VW553/V1_MQTT_OK/GD32VW55X_Wifi_BLE_SDK/GD32VW55x_RELEASE_V1.0.2/MSDK/wpa_supplicant/wpa_supplicant\op_classes.c **** 		return NO_IR;
 780              		.loc 1 192 2 is_stmt 1
 192:C:/Users/stapi/OneDrive/Desktop/GD32VW553/V1_MQTT_OK/GD32VW55X_Wifi_BLE_SDK/GD32VW55x_RELEASE_V1.0.2/MSDK/wpa_supplicant/wpa_supplicant\op_classes.c **** 		return NO_IR;
 781              		.loc 1 192 5 is_stmt 0
 782 01be 11F0     		bne	s0,zero,.L148
 195:C:/Users/stapi/OneDrive/Desktop/GD32VW553/V1_MQTT_OK/GD32VW55X_Wifi_BLE_SDK/GD32VW55x_RELEASE_V1.0.2/MSDK/wpa_supplicant/wpa_supplicant\op_classes.c **** }
 783              		.loc 1 195 9
 784 01c0 0D44     		li	s0,3
 785              	.LVL74:
 786 01c2 01B7     		j	.L148
 787              	.L71:
 788              	.LBE24:
 789              	.LBE23:
 233:C:/Users/stapi/OneDrive/Desktop/GD32VW553/V1_MQTT_OK/GD32VW55X_Wifi_BLE_SDK/GD32VW55x_RELEASE_V1.0.2/MSDK/wpa_supplicant/wpa_supplicant\op_classes.c **** 		/*
 790              		.loc 1 233 9 is_stmt 1
 233:C:/Users/stapi/OneDrive/Desktop/GD32VW553/V1_MQTT_OK/GD32VW55X_Wifi_BLE_SDK/GD32VW55x_RELEASE_V1.0.2/MSDK/wpa_supplicant/wpa_supplicant\op_classes.c **** 		/*
 791              		.loc 1 233 12 is_stmt 0
 792 01c4 9D47     		li	a5,7
 793 01c6 E39EF9EE 		bne	s3,a5,.L148
 794 01ca E5B5     		j	.L89
 795              		.cfi_endproc
 796              	.LFE146:
 798              		.section	.text.wpas_supp_op_classes,"ax",@progbits
 799              		.align	1
 800              		.globl	wpas_supp_op_classes
 802              	wpas_supp_op_classes:
 803              	.LFB148:
 250:C:/Users/stapi/OneDrive/Desktop/GD32VW553/V1_MQTT_OK/GD32VW55X_Wifi_BLE_SDK/GD32VW55x_RELEASE_V1.0.2/MSDK/wpa_supplicant/wpa_supplicant\op_classes.c **** 
 251:C:/Users/stapi/OneDrive/Desktop/GD32VW553/V1_MQTT_OK/GD32VW55X_Wifi_BLE_SDK/GD32VW55x_RELEASE_V1.0.2/MSDK/wpa_supplicant/wpa_supplicant\op_classes.c **** 
 252:C:/Users/stapi/OneDrive/Desktop/GD32VW553/V1_MQTT_OK/GD32VW55X_Wifi_BLE_SDK/GD32VW55x_RELEASE_V1.0.2/MSDK/wpa_supplicant/wpa_supplicant\op_classes.c **** static int wpas_op_class_supported(struct wpa_supplicant *wpa_s,
 253:C:/Users/stapi/OneDrive/Desktop/GD32VW553/V1_MQTT_OK/GD32VW55X_Wifi_BLE_SDK/GD32VW55x_RELEASE_V1.0.2/MSDK/wpa_supplicant/wpa_supplicant\op_classes.c **** 				   struct wpa_ssid *ssid,
 254:C:/Users/stapi/OneDrive/Desktop/GD32VW553/V1_MQTT_OK/GD32VW55X_Wifi_BLE_SDK/GD32VW55x_RELEASE_V1.0.2/MSDK/wpa_supplicant/wpa_supplicant\op_classes.c **** 				   const struct oper_class_map *op_class)
 255:C:/Users/stapi/OneDrive/Desktop/GD32VW553/V1_MQTT_OK/GD32VW55X_Wifi_BLE_SDK/GD32VW55x_RELEASE_V1.0.2/MSDK/wpa_supplicant/wpa_supplicant\op_classes.c **** {
 256:C:/Users/stapi/OneDrive/Desktop/GD32VW553/V1_MQTT_OK/GD32VW55X_Wifi_BLE_SDK/GD32VW55x_RELEASE_V1.0.2/MSDK/wpa_supplicant/wpa_supplicant\op_classes.c **** 	int chan;
 257:C:/Users/stapi/OneDrive/Desktop/GD32VW553/V1_MQTT_OK/GD32VW55X_Wifi_BLE_SDK/GD32VW55x_RELEASE_V1.0.2/MSDK/wpa_supplicant/wpa_supplicant\op_classes.c **** 	size_t i;
 258:C:/Users/stapi/OneDrive/Desktop/GD32VW553/V1_MQTT_OK/GD32VW55X_Wifi_BLE_SDK/GD32VW55x_RELEASE_V1.0.2/MSDK/wpa_supplicant/wpa_supplicant\op_classes.c **** 	struct hostapd_hw_modes *mode;
 259:C:/Users/stapi/OneDrive/Desktop/GD32VW553/V1_MQTT_OK/GD32VW55X_Wifi_BLE_SDK/GD32VW55x_RELEASE_V1.0.2/MSDK/wpa_supplicant/wpa_supplicant\op_classes.c **** 	int found;
 260:C:/Users/stapi/OneDrive/Desktop/GD32VW553/V1_MQTT_OK/GD32VW55X_Wifi_BLE_SDK/GD32VW55x_RELEASE_V1.0.2/MSDK/wpa_supplicant/wpa_supplicant\op_classes.c **** 	int z;
 261:C:/Users/stapi/OneDrive/Desktop/GD32VW553/V1_MQTT_OK/GD32VW55X_Wifi_BLE_SDK/GD32VW55x_RELEASE_V1.0.2/MSDK/wpa_supplicant/wpa_supplicant\op_classes.c **** 	int freq2 = 0;
 262:C:/Users/stapi/OneDrive/Desktop/GD32VW553/V1_MQTT_OK/GD32VW55X_Wifi_BLE_SDK/GD32VW55x_RELEASE_V1.0.2/MSDK/wpa_supplicant/wpa_supplicant\op_classes.c **** 	int freq5 = 0;
 263:C:/Users/stapi/OneDrive/Desktop/GD32VW553/V1_MQTT_OK/GD32VW55X_Wifi_BLE_SDK/GD32VW55x_RELEASE_V1.0.2/MSDK/wpa_supplicant/wpa_supplicant\op_classes.c **** 
 264:C:/Users/stapi/OneDrive/Desktop/GD32VW553/V1_MQTT_OK/GD32VW55X_Wifi_BLE_SDK/GD32VW55x_RELEASE_V1.0.2/MSDK/wpa_supplicant/wpa_supplicant\op_classes.c **** 	mode = get_mode(wpa_s->hw.modes, wpa_s->hw.num_modes, op_class->mode,
 265:C:/Users/stapi/OneDrive/Desktop/GD32VW553/V1_MQTT_OK/GD32VW55X_Wifi_BLE_SDK/GD32VW55x_RELEASE_V1.0.2/MSDK/wpa_supplicant/wpa_supplicant\op_classes.c **** 			is_6ghz_op_class(op_class->op_class));
 266:C:/Users/stapi/OneDrive/Desktop/GD32VW553/V1_MQTT_OK/GD32VW55X_Wifi_BLE_SDK/GD32VW55x_RELEASE_V1.0.2/MSDK/wpa_supplicant/wpa_supplicant\op_classes.c **** 	if (!mode)
 267:C:/Users/stapi/OneDrive/Desktop/GD32VW553/V1_MQTT_OK/GD32VW55X_Wifi_BLE_SDK/GD32VW55x_RELEASE_V1.0.2/MSDK/wpa_supplicant/wpa_supplicant\op_classes.c **** 		return 0;
 268:C:/Users/stapi/OneDrive/Desktop/GD32VW553/V1_MQTT_OK/GD32VW55X_Wifi_BLE_SDK/GD32VW55x_RELEASE_V1.0.2/MSDK/wpa_supplicant/wpa_supplicant\op_classes.c **** 
 269:C:/Users/stapi/OneDrive/Desktop/GD32VW553/V1_MQTT_OK/GD32VW55X_Wifi_BLE_SDK/GD32VW55x_RELEASE_V1.0.2/MSDK/wpa_supplicant/wpa_supplicant\op_classes.c **** 	/* If we are configured to disable certain things, take that into
 270:C:/Users/stapi/OneDrive/Desktop/GD32VW553/V1_MQTT_OK/GD32VW55X_Wifi_BLE_SDK/GD32VW55x_RELEASE_V1.0.2/MSDK/wpa_supplicant/wpa_supplicant\op_classes.c **** 	 * account here. */
 271:C:/Users/stapi/OneDrive/Desktop/GD32VW553/V1_MQTT_OK/GD32VW55X_Wifi_BLE_SDK/GD32VW55x_RELEASE_V1.0.2/MSDK/wpa_supplicant/wpa_supplicant\op_classes.c **** 	if (ssid && ssid->freq_list && ssid->freq_list[0]) {
 272:C:/Users/stapi/OneDrive/Desktop/GD32VW553/V1_MQTT_OK/GD32VW55X_Wifi_BLE_SDK/GD32VW55x_RELEASE_V1.0.2/MSDK/wpa_supplicant/wpa_supplicant\op_classes.c **** 		for (z = 0; ; z++) {
 273:C:/Users/stapi/OneDrive/Desktop/GD32VW553/V1_MQTT_OK/GD32VW55X_Wifi_BLE_SDK/GD32VW55x_RELEASE_V1.0.2/MSDK/wpa_supplicant/wpa_supplicant\op_classes.c **** 			int f = ssid->freq_list[z];
 274:C:/Users/stapi/OneDrive/Desktop/GD32VW553/V1_MQTT_OK/GD32VW55X_Wifi_BLE_SDK/GD32VW55x_RELEASE_V1.0.2/MSDK/wpa_supplicant/wpa_supplicant\op_classes.c **** 
 275:C:/Users/stapi/OneDrive/Desktop/GD32VW553/V1_MQTT_OK/GD32VW55X_Wifi_BLE_SDK/GD32VW55x_RELEASE_V1.0.2/MSDK/wpa_supplicant/wpa_supplicant\op_classes.c **** 			if (f == 0)
 276:C:/Users/stapi/OneDrive/Desktop/GD32VW553/V1_MQTT_OK/GD32VW55X_Wifi_BLE_SDK/GD32VW55x_RELEASE_V1.0.2/MSDK/wpa_supplicant/wpa_supplicant\op_classes.c **** 				break; /* end of list */
 277:C:/Users/stapi/OneDrive/Desktop/GD32VW553/V1_MQTT_OK/GD32VW55X_Wifi_BLE_SDK/GD32VW55x_RELEASE_V1.0.2/MSDK/wpa_supplicant/wpa_supplicant\op_classes.c **** 			if (f > 4000 && f < 6000)
 278:C:/Users/stapi/OneDrive/Desktop/GD32VW553/V1_MQTT_OK/GD32VW55X_Wifi_BLE_SDK/GD32VW55x_RELEASE_V1.0.2/MSDK/wpa_supplicant/wpa_supplicant\op_classes.c **** 				freq5 = 1;
 279:C:/Users/stapi/OneDrive/Desktop/GD32VW553/V1_MQTT_OK/GD32VW55X_Wifi_BLE_SDK/GD32VW55x_RELEASE_V1.0.2/MSDK/wpa_supplicant/wpa_supplicant\op_classes.c **** 			else if (f > 2400 && f < 2500)
 280:C:/Users/stapi/OneDrive/Desktop/GD32VW553/V1_MQTT_OK/GD32VW55X_Wifi_BLE_SDK/GD32VW55x_RELEASE_V1.0.2/MSDK/wpa_supplicant/wpa_supplicant\op_classes.c **** 				freq2 = 1;
 281:C:/Users/stapi/OneDrive/Desktop/GD32VW553/V1_MQTT_OK/GD32VW55X_Wifi_BLE_SDK/GD32VW55x_RELEASE_V1.0.2/MSDK/wpa_supplicant/wpa_supplicant\op_classes.c **** 		}
 282:C:/Users/stapi/OneDrive/Desktop/GD32VW553/V1_MQTT_OK/GD32VW55X_Wifi_BLE_SDK/GD32VW55x_RELEASE_V1.0.2/MSDK/wpa_supplicant/wpa_supplicant\op_classes.c **** 	} else {
 283:C:/Users/stapi/OneDrive/Desktop/GD32VW553/V1_MQTT_OK/GD32VW55X_Wifi_BLE_SDK/GD32VW55x_RELEASE_V1.0.2/MSDK/wpa_supplicant/wpa_supplicant\op_classes.c **** 		/* No frequencies specified, can use anything hardware supports.
 284:C:/Users/stapi/OneDrive/Desktop/GD32VW553/V1_MQTT_OK/GD32VW55X_Wifi_BLE_SDK/GD32VW55x_RELEASE_V1.0.2/MSDK/wpa_supplicant/wpa_supplicant\op_classes.c **** 		 */
 285:C:/Users/stapi/OneDrive/Desktop/GD32VW553/V1_MQTT_OK/GD32VW55X_Wifi_BLE_SDK/GD32VW55x_RELEASE_V1.0.2/MSDK/wpa_supplicant/wpa_supplicant\op_classes.c **** 		freq2 = freq5 = 1;
 286:C:/Users/stapi/OneDrive/Desktop/GD32VW553/V1_MQTT_OK/GD32VW55X_Wifi_BLE_SDK/GD32VW55x_RELEASE_V1.0.2/MSDK/wpa_supplicant/wpa_supplicant\op_classes.c **** 	}
 287:C:/Users/stapi/OneDrive/Desktop/GD32VW553/V1_MQTT_OK/GD32VW55X_Wifi_BLE_SDK/GD32VW55x_RELEASE_V1.0.2/MSDK/wpa_supplicant/wpa_supplicant\op_classes.c **** 
 288:C:/Users/stapi/OneDrive/Desktop/GD32VW553/V1_MQTT_OK/GD32VW55X_Wifi_BLE_SDK/GD32VW55x_RELEASE_V1.0.2/MSDK/wpa_supplicant/wpa_supplicant\op_classes.c **** 	if (op_class->op_class >= 115 && op_class->op_class <= 130 && !freq5)
 289:C:/Users/stapi/OneDrive/Desktop/GD32VW553/V1_MQTT_OK/GD32VW55X_Wifi_BLE_SDK/GD32VW55x_RELEASE_V1.0.2/MSDK/wpa_supplicant/wpa_supplicant\op_classes.c **** 		return 0;
 290:C:/Users/stapi/OneDrive/Desktop/GD32VW553/V1_MQTT_OK/GD32VW55X_Wifi_BLE_SDK/GD32VW55x_RELEASE_V1.0.2/MSDK/wpa_supplicant/wpa_supplicant\op_classes.c **** 	if (op_class->op_class >= 81 && op_class->op_class <= 84 && !freq2)
 291:C:/Users/stapi/OneDrive/Desktop/GD32VW553/V1_MQTT_OK/GD32VW55X_Wifi_BLE_SDK/GD32VW55x_RELEASE_V1.0.2/MSDK/wpa_supplicant/wpa_supplicant\op_classes.c **** 		return 0;
 292:C:/Users/stapi/OneDrive/Desktop/GD32VW553/V1_MQTT_OK/GD32VW55X_Wifi_BLE_SDK/GD32VW55x_RELEASE_V1.0.2/MSDK/wpa_supplicant/wpa_supplicant\op_classes.c **** 
 293:C:/Users/stapi/OneDrive/Desktop/GD32VW553/V1_MQTT_OK/GD32VW55X_Wifi_BLE_SDK/GD32VW55x_RELEASE_V1.0.2/MSDK/wpa_supplicant/wpa_supplicant\op_classes.c **** #ifdef CONFIG_HT_OVERRIDES
 294:C:/Users/stapi/OneDrive/Desktop/GD32VW553/V1_MQTT_OK/GD32VW55X_Wifi_BLE_SDK/GD32VW55x_RELEASE_V1.0.2/MSDK/wpa_supplicant/wpa_supplicant\op_classes.c **** 	if (ssid && ssid->disable_ht) {
 295:C:/Users/stapi/OneDrive/Desktop/GD32VW553/V1_MQTT_OK/GD32VW55X_Wifi_BLE_SDK/GD32VW55x_RELEASE_V1.0.2/MSDK/wpa_supplicant/wpa_supplicant\op_classes.c **** 		switch (op_class->op_class) {
 296:C:/Users/stapi/OneDrive/Desktop/GD32VW553/V1_MQTT_OK/GD32VW55X_Wifi_BLE_SDK/GD32VW55x_RELEASE_V1.0.2/MSDK/wpa_supplicant/wpa_supplicant\op_classes.c **** 		case 83:
 297:C:/Users/stapi/OneDrive/Desktop/GD32VW553/V1_MQTT_OK/GD32VW55X_Wifi_BLE_SDK/GD32VW55x_RELEASE_V1.0.2/MSDK/wpa_supplicant/wpa_supplicant\op_classes.c **** 		case 84:
 298:C:/Users/stapi/OneDrive/Desktop/GD32VW553/V1_MQTT_OK/GD32VW55X_Wifi_BLE_SDK/GD32VW55x_RELEASE_V1.0.2/MSDK/wpa_supplicant/wpa_supplicant\op_classes.c **** 		case 104:
 299:C:/Users/stapi/OneDrive/Desktop/GD32VW553/V1_MQTT_OK/GD32VW55X_Wifi_BLE_SDK/GD32VW55x_RELEASE_V1.0.2/MSDK/wpa_supplicant/wpa_supplicant\op_classes.c **** 		case 105:
 300:C:/Users/stapi/OneDrive/Desktop/GD32VW553/V1_MQTT_OK/GD32VW55X_Wifi_BLE_SDK/GD32VW55x_RELEASE_V1.0.2/MSDK/wpa_supplicant/wpa_supplicant\op_classes.c **** 		case 116:
 301:C:/Users/stapi/OneDrive/Desktop/GD32VW553/V1_MQTT_OK/GD32VW55X_Wifi_BLE_SDK/GD32VW55x_RELEASE_V1.0.2/MSDK/wpa_supplicant/wpa_supplicant\op_classes.c **** 		case 117:
 302:C:/Users/stapi/OneDrive/Desktop/GD32VW553/V1_MQTT_OK/GD32VW55X_Wifi_BLE_SDK/GD32VW55x_RELEASE_V1.0.2/MSDK/wpa_supplicant/wpa_supplicant\op_classes.c **** 		case 119:
 303:C:/Users/stapi/OneDrive/Desktop/GD32VW553/V1_MQTT_OK/GD32VW55X_Wifi_BLE_SDK/GD32VW55x_RELEASE_V1.0.2/MSDK/wpa_supplicant/wpa_supplicant\op_classes.c **** 		case 120:
 304:C:/Users/stapi/OneDrive/Desktop/GD32VW553/V1_MQTT_OK/GD32VW55X_Wifi_BLE_SDK/GD32VW55x_RELEASE_V1.0.2/MSDK/wpa_supplicant/wpa_supplicant\op_classes.c **** 		case 122:
 305:C:/Users/stapi/OneDrive/Desktop/GD32VW553/V1_MQTT_OK/GD32VW55X_Wifi_BLE_SDK/GD32VW55x_RELEASE_V1.0.2/MSDK/wpa_supplicant/wpa_supplicant\op_classes.c **** 		case 123:
 306:C:/Users/stapi/OneDrive/Desktop/GD32VW553/V1_MQTT_OK/GD32VW55X_Wifi_BLE_SDK/GD32VW55x_RELEASE_V1.0.2/MSDK/wpa_supplicant/wpa_supplicant\op_classes.c **** 		case 126:
 307:C:/Users/stapi/OneDrive/Desktop/GD32VW553/V1_MQTT_OK/GD32VW55X_Wifi_BLE_SDK/GD32VW55x_RELEASE_V1.0.2/MSDK/wpa_supplicant/wpa_supplicant\op_classes.c **** 		case 127:
 308:C:/Users/stapi/OneDrive/Desktop/GD32VW553/V1_MQTT_OK/GD32VW55X_Wifi_BLE_SDK/GD32VW55x_RELEASE_V1.0.2/MSDK/wpa_supplicant/wpa_supplicant\op_classes.c **** 		case 128:
 309:C:/Users/stapi/OneDrive/Desktop/GD32VW553/V1_MQTT_OK/GD32VW55X_Wifi_BLE_SDK/GD32VW55x_RELEASE_V1.0.2/MSDK/wpa_supplicant/wpa_supplicant\op_classes.c **** 		case 129:
 310:C:/Users/stapi/OneDrive/Desktop/GD32VW553/V1_MQTT_OK/GD32VW55X_Wifi_BLE_SDK/GD32VW55x_RELEASE_V1.0.2/MSDK/wpa_supplicant/wpa_supplicant\op_classes.c **** 		case 130:
 311:C:/Users/stapi/OneDrive/Desktop/GD32VW553/V1_MQTT_OK/GD32VW55X_Wifi_BLE_SDK/GD32VW55x_RELEASE_V1.0.2/MSDK/wpa_supplicant/wpa_supplicant\op_classes.c **** 			/* Disable >= 40 MHz channels if HT is disabled */
 312:C:/Users/stapi/OneDrive/Desktop/GD32VW553/V1_MQTT_OK/GD32VW55X_Wifi_BLE_SDK/GD32VW55x_RELEASE_V1.0.2/MSDK/wpa_supplicant/wpa_supplicant\op_classes.c **** 			return 0;
 313:C:/Users/stapi/OneDrive/Desktop/GD32VW553/V1_MQTT_OK/GD32VW55X_Wifi_BLE_SDK/GD32VW55x_RELEASE_V1.0.2/MSDK/wpa_supplicant/wpa_supplicant\op_classes.c **** 		}
 314:C:/Users/stapi/OneDrive/Desktop/GD32VW553/V1_MQTT_OK/GD32VW55X_Wifi_BLE_SDK/GD32VW55x_RELEASE_V1.0.2/MSDK/wpa_supplicant/wpa_supplicant\op_classes.c **** 	}
 315:C:/Users/stapi/OneDrive/Desktop/GD32VW553/V1_MQTT_OK/GD32VW55X_Wifi_BLE_SDK/GD32VW55x_RELEASE_V1.0.2/MSDK/wpa_supplicant/wpa_supplicant\op_classes.c **** #endif /* CONFIG_HT_OVERRIDES */
 316:C:/Users/stapi/OneDrive/Desktop/GD32VW553/V1_MQTT_OK/GD32VW55X_Wifi_BLE_SDK/GD32VW55x_RELEASE_V1.0.2/MSDK/wpa_supplicant/wpa_supplicant\op_classes.c **** 
 317:C:/Users/stapi/OneDrive/Desktop/GD32VW553/V1_MQTT_OK/GD32VW55X_Wifi_BLE_SDK/GD32VW55x_RELEASE_V1.0.2/MSDK/wpa_supplicant/wpa_supplicant\op_classes.c **** #ifdef CONFIG_VHT_OVERRIDES
 318:C:/Users/stapi/OneDrive/Desktop/GD32VW553/V1_MQTT_OK/GD32VW55X_Wifi_BLE_SDK/GD32VW55x_RELEASE_V1.0.2/MSDK/wpa_supplicant/wpa_supplicant\op_classes.c **** 	if (ssid && ssid->disable_vht) {
 319:C:/Users/stapi/OneDrive/Desktop/GD32VW553/V1_MQTT_OK/GD32VW55X_Wifi_BLE_SDK/GD32VW55x_RELEASE_V1.0.2/MSDK/wpa_supplicant/wpa_supplicant\op_classes.c **** 		if (op_class->op_class >= 128 && op_class->op_class <= 130) {
 320:C:/Users/stapi/OneDrive/Desktop/GD32VW553/V1_MQTT_OK/GD32VW55X_Wifi_BLE_SDK/GD32VW55x_RELEASE_V1.0.2/MSDK/wpa_supplicant/wpa_supplicant\op_classes.c **** 			/* Disable >= 80 MHz channels if VHT is disabled */
 321:C:/Users/stapi/OneDrive/Desktop/GD32VW553/V1_MQTT_OK/GD32VW55X_Wifi_BLE_SDK/GD32VW55x_RELEASE_V1.0.2/MSDK/wpa_supplicant/wpa_supplicant\op_classes.c **** 			return 0;
 322:C:/Users/stapi/OneDrive/Desktop/GD32VW553/V1_MQTT_OK/GD32VW55X_Wifi_BLE_SDK/GD32VW55x_RELEASE_V1.0.2/MSDK/wpa_supplicant/wpa_supplicant\op_classes.c **** 		}
 323:C:/Users/stapi/OneDrive/Desktop/GD32VW553/V1_MQTT_OK/GD32VW55X_Wifi_BLE_SDK/GD32VW55x_RELEASE_V1.0.2/MSDK/wpa_supplicant/wpa_supplicant\op_classes.c **** 	}
 324:C:/Users/stapi/OneDrive/Desktop/GD32VW553/V1_MQTT_OK/GD32VW55X_Wifi_BLE_SDK/GD32VW55x_RELEASE_V1.0.2/MSDK/wpa_supplicant/wpa_supplicant\op_classes.c **** #endif /* CONFIG_VHT_OVERRIDES */
 325:C:/Users/stapi/OneDrive/Desktop/GD32VW553/V1_MQTT_OK/GD32VW55X_Wifi_BLE_SDK/GD32VW55x_RELEASE_V1.0.2/MSDK/wpa_supplicant/wpa_supplicant\op_classes.c **** 
 326:C:/Users/stapi/OneDrive/Desktop/GD32VW553/V1_MQTT_OK/GD32VW55X_Wifi_BLE_SDK/GD32VW55x_RELEASE_V1.0.2/MSDK/wpa_supplicant/wpa_supplicant\op_classes.c **** 	if (op_class->op_class == 128) {
 327:C:/Users/stapi/OneDrive/Desktop/GD32VW553/V1_MQTT_OK/GD32VW55X_Wifi_BLE_SDK/GD32VW55x_RELEASE_V1.0.2/MSDK/wpa_supplicant/wpa_supplicant\op_classes.c **** 		u8 channels[] = { 42, 58, 106, 122, 138, 155, 171 };
 328:C:/Users/stapi/OneDrive/Desktop/GD32VW553/V1_MQTT_OK/GD32VW55X_Wifi_BLE_SDK/GD32VW55x_RELEASE_V1.0.2/MSDK/wpa_supplicant/wpa_supplicant\op_classes.c **** 
 329:C:/Users/stapi/OneDrive/Desktop/GD32VW553/V1_MQTT_OK/GD32VW55X_Wifi_BLE_SDK/GD32VW55x_RELEASE_V1.0.2/MSDK/wpa_supplicant/wpa_supplicant\op_classes.c **** 		for (i = 0; i < ARRAY_SIZE(channels); i++) {
 330:C:/Users/stapi/OneDrive/Desktop/GD32VW553/V1_MQTT_OK/GD32VW55X_Wifi_BLE_SDK/GD32VW55x_RELEASE_V1.0.2/MSDK/wpa_supplicant/wpa_supplicant\op_classes.c **** 			if (verify_channel(mode, op_class->op_class,
 331:C:/Users/stapi/OneDrive/Desktop/GD32VW553/V1_MQTT_OK/GD32VW55X_Wifi_BLE_SDK/GD32VW55x_RELEASE_V1.0.2/MSDK/wpa_supplicant/wpa_supplicant\op_classes.c **** 					   channels[i], op_class->bw) !=
 332:C:/Users/stapi/OneDrive/Desktop/GD32VW553/V1_MQTT_OK/GD32VW55X_Wifi_BLE_SDK/GD32VW55x_RELEASE_V1.0.2/MSDK/wpa_supplicant/wpa_supplicant\op_classes.c **** 			    NOT_ALLOWED)
 333:C:/Users/stapi/OneDrive/Desktop/GD32VW553/V1_MQTT_OK/GD32VW55X_Wifi_BLE_SDK/GD32VW55x_RELEASE_V1.0.2/MSDK/wpa_supplicant/wpa_supplicant\op_classes.c **** 				return 1;
 334:C:/Users/stapi/OneDrive/Desktop/GD32VW553/V1_MQTT_OK/GD32VW55X_Wifi_BLE_SDK/GD32VW55x_RELEASE_V1.0.2/MSDK/wpa_supplicant/wpa_supplicant\op_classes.c **** 		}
 335:C:/Users/stapi/OneDrive/Desktop/GD32VW553/V1_MQTT_OK/GD32VW55X_Wifi_BLE_SDK/GD32VW55x_RELEASE_V1.0.2/MSDK/wpa_supplicant/wpa_supplicant\op_classes.c **** 
 336:C:/Users/stapi/OneDrive/Desktop/GD32VW553/V1_MQTT_OK/GD32VW55X_Wifi_BLE_SDK/GD32VW55x_RELEASE_V1.0.2/MSDK/wpa_supplicant/wpa_supplicant\op_classes.c **** 		return 0;
 337:C:/Users/stapi/OneDrive/Desktop/GD32VW553/V1_MQTT_OK/GD32VW55X_Wifi_BLE_SDK/GD32VW55x_RELEASE_V1.0.2/MSDK/wpa_supplicant/wpa_supplicant\op_classes.c **** 	}
 338:C:/Users/stapi/OneDrive/Desktop/GD32VW553/V1_MQTT_OK/GD32VW55X_Wifi_BLE_SDK/GD32VW55x_RELEASE_V1.0.2/MSDK/wpa_supplicant/wpa_supplicant\op_classes.c **** 
 339:C:/Users/stapi/OneDrive/Desktop/GD32VW553/V1_MQTT_OK/GD32VW55X_Wifi_BLE_SDK/GD32VW55x_RELEASE_V1.0.2/MSDK/wpa_supplicant/wpa_supplicant\op_classes.c **** 	if (op_class->op_class == 129) {
 340:C:/Users/stapi/OneDrive/Desktop/GD32VW553/V1_MQTT_OK/GD32VW55X_Wifi_BLE_SDK/GD32VW55x_RELEASE_V1.0.2/MSDK/wpa_supplicant/wpa_supplicant\op_classes.c **** 		/* Check if either 160 MHz channels is allowed */
 341:C:/Users/stapi/OneDrive/Desktop/GD32VW553/V1_MQTT_OK/GD32VW55X_Wifi_BLE_SDK/GD32VW55x_RELEASE_V1.0.2/MSDK/wpa_supplicant/wpa_supplicant\op_classes.c **** 		return verify_channel(mode, op_class->op_class, 50,
 342:C:/Users/stapi/OneDrive/Desktop/GD32VW553/V1_MQTT_OK/GD32VW55X_Wifi_BLE_SDK/GD32VW55x_RELEASE_V1.0.2/MSDK/wpa_supplicant/wpa_supplicant\op_classes.c **** 				      op_class->bw) != NOT_ALLOWED ||
 343:C:/Users/stapi/OneDrive/Desktop/GD32VW553/V1_MQTT_OK/GD32VW55X_Wifi_BLE_SDK/GD32VW55x_RELEASE_V1.0.2/MSDK/wpa_supplicant/wpa_supplicant\op_classes.c **** 			verify_channel(mode, op_class->op_class, 114,
 344:C:/Users/stapi/OneDrive/Desktop/GD32VW553/V1_MQTT_OK/GD32VW55X_Wifi_BLE_SDK/GD32VW55x_RELEASE_V1.0.2/MSDK/wpa_supplicant/wpa_supplicant\op_classes.c **** 				       op_class->bw) != NOT_ALLOWED ||
 345:C:/Users/stapi/OneDrive/Desktop/GD32VW553/V1_MQTT_OK/GD32VW55X_Wifi_BLE_SDK/GD32VW55x_RELEASE_V1.0.2/MSDK/wpa_supplicant/wpa_supplicant\op_classes.c **** 			verify_channel(mode, op_class->op_class, 163,
 346:C:/Users/stapi/OneDrive/Desktop/GD32VW553/V1_MQTT_OK/GD32VW55X_Wifi_BLE_SDK/GD32VW55x_RELEASE_V1.0.2/MSDK/wpa_supplicant/wpa_supplicant\op_classes.c **** 				       op_class->bw) != NOT_ALLOWED;
 347:C:/Users/stapi/OneDrive/Desktop/GD32VW553/V1_MQTT_OK/GD32VW55X_Wifi_BLE_SDK/GD32VW55x_RELEASE_V1.0.2/MSDK/wpa_supplicant/wpa_supplicant\op_classes.c **** 	}
 348:C:/Users/stapi/OneDrive/Desktop/GD32VW553/V1_MQTT_OK/GD32VW55X_Wifi_BLE_SDK/GD32VW55x_RELEASE_V1.0.2/MSDK/wpa_supplicant/wpa_supplicant\op_classes.c **** 
 349:C:/Users/stapi/OneDrive/Desktop/GD32VW553/V1_MQTT_OK/GD32VW55X_Wifi_BLE_SDK/GD32VW55x_RELEASE_V1.0.2/MSDK/wpa_supplicant/wpa_supplicant\op_classes.c **** 	if (op_class->op_class == 130) {
 350:C:/Users/stapi/OneDrive/Desktop/GD32VW553/V1_MQTT_OK/GD32VW55X_Wifi_BLE_SDK/GD32VW55x_RELEASE_V1.0.2/MSDK/wpa_supplicant/wpa_supplicant\op_classes.c **** 		/* Need at least two non-contiguous 80 MHz segments */
 351:C:/Users/stapi/OneDrive/Desktop/GD32VW553/V1_MQTT_OK/GD32VW55X_Wifi_BLE_SDK/GD32VW55x_RELEASE_V1.0.2/MSDK/wpa_supplicant/wpa_supplicant\op_classes.c **** 		found = 0;
 352:C:/Users/stapi/OneDrive/Desktop/GD32VW553/V1_MQTT_OK/GD32VW55X_Wifi_BLE_SDK/GD32VW55x_RELEASE_V1.0.2/MSDK/wpa_supplicant/wpa_supplicant\op_classes.c **** 
 353:C:/Users/stapi/OneDrive/Desktop/GD32VW553/V1_MQTT_OK/GD32VW55X_Wifi_BLE_SDK/GD32VW55x_RELEASE_V1.0.2/MSDK/wpa_supplicant/wpa_supplicant\op_classes.c **** 		if (verify_channel(mode, op_class->op_class, 42,
 354:C:/Users/stapi/OneDrive/Desktop/GD32VW553/V1_MQTT_OK/GD32VW55X_Wifi_BLE_SDK/GD32VW55x_RELEASE_V1.0.2/MSDK/wpa_supplicant/wpa_supplicant\op_classes.c **** 				   op_class->bw) != NOT_ALLOWED ||
 355:C:/Users/stapi/OneDrive/Desktop/GD32VW553/V1_MQTT_OK/GD32VW55X_Wifi_BLE_SDK/GD32VW55x_RELEASE_V1.0.2/MSDK/wpa_supplicant/wpa_supplicant\op_classes.c **** 		    verify_channel(mode, op_class->op_class, 58,
 356:C:/Users/stapi/OneDrive/Desktop/GD32VW553/V1_MQTT_OK/GD32VW55X_Wifi_BLE_SDK/GD32VW55x_RELEASE_V1.0.2/MSDK/wpa_supplicant/wpa_supplicant\op_classes.c **** 				   op_class->bw) != NOT_ALLOWED)
 357:C:/Users/stapi/OneDrive/Desktop/GD32VW553/V1_MQTT_OK/GD32VW55X_Wifi_BLE_SDK/GD32VW55x_RELEASE_V1.0.2/MSDK/wpa_supplicant/wpa_supplicant\op_classes.c **** 			found++;
 358:C:/Users/stapi/OneDrive/Desktop/GD32VW553/V1_MQTT_OK/GD32VW55X_Wifi_BLE_SDK/GD32VW55x_RELEASE_V1.0.2/MSDK/wpa_supplicant/wpa_supplicant\op_classes.c **** 		if (verify_channel(mode, op_class->op_class, 106,
 359:C:/Users/stapi/OneDrive/Desktop/GD32VW553/V1_MQTT_OK/GD32VW55X_Wifi_BLE_SDK/GD32VW55x_RELEASE_V1.0.2/MSDK/wpa_supplicant/wpa_supplicant\op_classes.c **** 				   op_class->bw) != NOT_ALLOWED ||
 360:C:/Users/stapi/OneDrive/Desktop/GD32VW553/V1_MQTT_OK/GD32VW55X_Wifi_BLE_SDK/GD32VW55x_RELEASE_V1.0.2/MSDK/wpa_supplicant/wpa_supplicant\op_classes.c **** 		    verify_channel(mode, op_class->op_class, 122,
 361:C:/Users/stapi/OneDrive/Desktop/GD32VW553/V1_MQTT_OK/GD32VW55X_Wifi_BLE_SDK/GD32VW55x_RELEASE_V1.0.2/MSDK/wpa_supplicant/wpa_supplicant\op_classes.c **** 				   op_class->bw) != NOT_ALLOWED ||
 362:C:/Users/stapi/OneDrive/Desktop/GD32VW553/V1_MQTT_OK/GD32VW55X_Wifi_BLE_SDK/GD32VW55x_RELEASE_V1.0.2/MSDK/wpa_supplicant/wpa_supplicant\op_classes.c **** 		    verify_channel(mode, op_class->op_class, 138,
 363:C:/Users/stapi/OneDrive/Desktop/GD32VW553/V1_MQTT_OK/GD32VW55X_Wifi_BLE_SDK/GD32VW55x_RELEASE_V1.0.2/MSDK/wpa_supplicant/wpa_supplicant\op_classes.c **** 				   op_class->bw) != NOT_ALLOWED ||
 364:C:/Users/stapi/OneDrive/Desktop/GD32VW553/V1_MQTT_OK/GD32VW55X_Wifi_BLE_SDK/GD32VW55x_RELEASE_V1.0.2/MSDK/wpa_supplicant/wpa_supplicant\op_classes.c **** 		    verify_channel(mode, op_class->op_class, 155,
 365:C:/Users/stapi/OneDrive/Desktop/GD32VW553/V1_MQTT_OK/GD32VW55X_Wifi_BLE_SDK/GD32VW55x_RELEASE_V1.0.2/MSDK/wpa_supplicant/wpa_supplicant\op_classes.c **** 				   op_class->bw) != NOT_ALLOWED ||
 366:C:/Users/stapi/OneDrive/Desktop/GD32VW553/V1_MQTT_OK/GD32VW55X_Wifi_BLE_SDK/GD32VW55x_RELEASE_V1.0.2/MSDK/wpa_supplicant/wpa_supplicant\op_classes.c **** 		    verify_channel(mode, op_class->op_class, 171,
 367:C:/Users/stapi/OneDrive/Desktop/GD32VW553/V1_MQTT_OK/GD32VW55X_Wifi_BLE_SDK/GD32VW55x_RELEASE_V1.0.2/MSDK/wpa_supplicant/wpa_supplicant\op_classes.c **** 				   op_class->bw) != NOT_ALLOWED)
 368:C:/Users/stapi/OneDrive/Desktop/GD32VW553/V1_MQTT_OK/GD32VW55X_Wifi_BLE_SDK/GD32VW55x_RELEASE_V1.0.2/MSDK/wpa_supplicant/wpa_supplicant\op_classes.c **** 			found++;
 369:C:/Users/stapi/OneDrive/Desktop/GD32VW553/V1_MQTT_OK/GD32VW55X_Wifi_BLE_SDK/GD32VW55x_RELEASE_V1.0.2/MSDK/wpa_supplicant/wpa_supplicant\op_classes.c **** 		if (verify_channel(mode, op_class->op_class, 106,
 370:C:/Users/stapi/OneDrive/Desktop/GD32VW553/V1_MQTT_OK/GD32VW55X_Wifi_BLE_SDK/GD32VW55x_RELEASE_V1.0.2/MSDK/wpa_supplicant/wpa_supplicant\op_classes.c **** 				   op_class->bw) != NOT_ALLOWED &&
 371:C:/Users/stapi/OneDrive/Desktop/GD32VW553/V1_MQTT_OK/GD32VW55X_Wifi_BLE_SDK/GD32VW55x_RELEASE_V1.0.2/MSDK/wpa_supplicant/wpa_supplicant\op_classes.c **** 		    verify_channel(mode, op_class->op_class, 138,
 372:C:/Users/stapi/OneDrive/Desktop/GD32VW553/V1_MQTT_OK/GD32VW55X_Wifi_BLE_SDK/GD32VW55x_RELEASE_V1.0.2/MSDK/wpa_supplicant/wpa_supplicant\op_classes.c **** 				   op_class->bw) != NOT_ALLOWED)
 373:C:/Users/stapi/OneDrive/Desktop/GD32VW553/V1_MQTT_OK/GD32VW55X_Wifi_BLE_SDK/GD32VW55x_RELEASE_V1.0.2/MSDK/wpa_supplicant/wpa_supplicant\op_classes.c **** 			found++;
 374:C:/Users/stapi/OneDrive/Desktop/GD32VW553/V1_MQTT_OK/GD32VW55X_Wifi_BLE_SDK/GD32VW55x_RELEASE_V1.0.2/MSDK/wpa_supplicant/wpa_supplicant\op_classes.c **** 		if (verify_channel(mode, op_class->op_class, 122,
 375:C:/Users/stapi/OneDrive/Desktop/GD32VW553/V1_MQTT_OK/GD32VW55X_Wifi_BLE_SDK/GD32VW55x_RELEASE_V1.0.2/MSDK/wpa_supplicant/wpa_supplicant\op_classes.c **** 				   op_class->bw) != NOT_ALLOWED &&
 376:C:/Users/stapi/OneDrive/Desktop/GD32VW553/V1_MQTT_OK/GD32VW55X_Wifi_BLE_SDK/GD32VW55x_RELEASE_V1.0.2/MSDK/wpa_supplicant/wpa_supplicant\op_classes.c **** 		    verify_channel(mode, op_class->op_class, 155,
 377:C:/Users/stapi/OneDrive/Desktop/GD32VW553/V1_MQTT_OK/GD32VW55X_Wifi_BLE_SDK/GD32VW55x_RELEASE_V1.0.2/MSDK/wpa_supplicant/wpa_supplicant\op_classes.c **** 				   op_class->bw) != NOT_ALLOWED)
 378:C:/Users/stapi/OneDrive/Desktop/GD32VW553/V1_MQTT_OK/GD32VW55X_Wifi_BLE_SDK/GD32VW55x_RELEASE_V1.0.2/MSDK/wpa_supplicant/wpa_supplicant\op_classes.c **** 			found++;
 379:C:/Users/stapi/OneDrive/Desktop/GD32VW553/V1_MQTT_OK/GD32VW55X_Wifi_BLE_SDK/GD32VW55x_RELEASE_V1.0.2/MSDK/wpa_supplicant/wpa_supplicant\op_classes.c **** 		if (verify_channel(mode, op_class->op_class, 138,
 380:C:/Users/stapi/OneDrive/Desktop/GD32VW553/V1_MQTT_OK/GD32VW55X_Wifi_BLE_SDK/GD32VW55x_RELEASE_V1.0.2/MSDK/wpa_supplicant/wpa_supplicant\op_classes.c **** 				   op_class->bw) != NOT_ALLOWED &&
 381:C:/Users/stapi/OneDrive/Desktop/GD32VW553/V1_MQTT_OK/GD32VW55X_Wifi_BLE_SDK/GD32VW55x_RELEASE_V1.0.2/MSDK/wpa_supplicant/wpa_supplicant\op_classes.c **** 		    verify_channel(mode, op_class->op_class, 171,
 382:C:/Users/stapi/OneDrive/Desktop/GD32VW553/V1_MQTT_OK/GD32VW55X_Wifi_BLE_SDK/GD32VW55x_RELEASE_V1.0.2/MSDK/wpa_supplicant/wpa_supplicant\op_classes.c **** 				   op_class->bw) != NOT_ALLOWED)
 383:C:/Users/stapi/OneDrive/Desktop/GD32VW553/V1_MQTT_OK/GD32VW55X_Wifi_BLE_SDK/GD32VW55x_RELEASE_V1.0.2/MSDK/wpa_supplicant/wpa_supplicant\op_classes.c **** 			found++;
 384:C:/Users/stapi/OneDrive/Desktop/GD32VW553/V1_MQTT_OK/GD32VW55X_Wifi_BLE_SDK/GD32VW55x_RELEASE_V1.0.2/MSDK/wpa_supplicant/wpa_supplicant\op_classes.c **** 
 385:C:/Users/stapi/OneDrive/Desktop/GD32VW553/V1_MQTT_OK/GD32VW55X_Wifi_BLE_SDK/GD32VW55x_RELEASE_V1.0.2/MSDK/wpa_supplicant/wpa_supplicant\op_classes.c **** 		if (found >= 2)
 386:C:/Users/stapi/OneDrive/Desktop/GD32VW553/V1_MQTT_OK/GD32VW55X_Wifi_BLE_SDK/GD32VW55x_RELEASE_V1.0.2/MSDK/wpa_supplicant/wpa_supplicant\op_classes.c **** 			return 1;
 387:C:/Users/stapi/OneDrive/Desktop/GD32VW553/V1_MQTT_OK/GD32VW55X_Wifi_BLE_SDK/GD32VW55x_RELEASE_V1.0.2/MSDK/wpa_supplicant/wpa_supplicant\op_classes.c **** 
 388:C:/Users/stapi/OneDrive/Desktop/GD32VW553/V1_MQTT_OK/GD32VW55X_Wifi_BLE_SDK/GD32VW55x_RELEASE_V1.0.2/MSDK/wpa_supplicant/wpa_supplicant\op_classes.c **** 		return 0;
 389:C:/Users/stapi/OneDrive/Desktop/GD32VW553/V1_MQTT_OK/GD32VW55X_Wifi_BLE_SDK/GD32VW55x_RELEASE_V1.0.2/MSDK/wpa_supplicant/wpa_supplicant\op_classes.c **** 	}
 390:C:/Users/stapi/OneDrive/Desktop/GD32VW553/V1_MQTT_OK/GD32VW55X_Wifi_BLE_SDK/GD32VW55x_RELEASE_V1.0.2/MSDK/wpa_supplicant/wpa_supplicant\op_classes.c **** 
 391:C:/Users/stapi/OneDrive/Desktop/GD32VW553/V1_MQTT_OK/GD32VW55X_Wifi_BLE_SDK/GD32VW55x_RELEASE_V1.0.2/MSDK/wpa_supplicant/wpa_supplicant\op_classes.c **** 	if (op_class->op_class == 135) {
 392:C:/Users/stapi/OneDrive/Desktop/GD32VW553/V1_MQTT_OK/GD32VW55X_Wifi_BLE_SDK/GD32VW55x_RELEASE_V1.0.2/MSDK/wpa_supplicant/wpa_supplicant\op_classes.c **** 		/* Need at least two 80 MHz segments which do not fall under the
 393:C:/Users/stapi/OneDrive/Desktop/GD32VW553/V1_MQTT_OK/GD32VW55X_Wifi_BLE_SDK/GD32VW55x_RELEASE_V1.0.2/MSDK/wpa_supplicant/wpa_supplicant\op_classes.c **** 		 * same 160 MHz segment to support 80+80 in 6 GHz.
 394:C:/Users/stapi/OneDrive/Desktop/GD32VW553/V1_MQTT_OK/GD32VW55X_Wifi_BLE_SDK/GD32VW55x_RELEASE_V1.0.2/MSDK/wpa_supplicant/wpa_supplicant\op_classes.c **** 		 */
 395:C:/Users/stapi/OneDrive/Desktop/GD32VW553/V1_MQTT_OK/GD32VW55X_Wifi_BLE_SDK/GD32VW55x_RELEASE_V1.0.2/MSDK/wpa_supplicant/wpa_supplicant\op_classes.c **** 		int first_seg = 0;
 396:C:/Users/stapi/OneDrive/Desktop/GD32VW553/V1_MQTT_OK/GD32VW55X_Wifi_BLE_SDK/GD32VW55x_RELEASE_V1.0.2/MSDK/wpa_supplicant/wpa_supplicant\op_classes.c **** 		int curr_seg = 0;
 397:C:/Users/stapi/OneDrive/Desktop/GD32VW553/V1_MQTT_OK/GD32VW55X_Wifi_BLE_SDK/GD32VW55x_RELEASE_V1.0.2/MSDK/wpa_supplicant/wpa_supplicant\op_classes.c **** 
 398:C:/Users/stapi/OneDrive/Desktop/GD32VW553/V1_MQTT_OK/GD32VW55X_Wifi_BLE_SDK/GD32VW55x_RELEASE_V1.0.2/MSDK/wpa_supplicant/wpa_supplicant\op_classes.c **** 		for (chan = op_class->min_chan; chan <= op_class->max_chan;
 399:C:/Users/stapi/OneDrive/Desktop/GD32VW553/V1_MQTT_OK/GD32VW55X_Wifi_BLE_SDK/GD32VW55x_RELEASE_V1.0.2/MSDK/wpa_supplicant/wpa_supplicant\op_classes.c **** 		     chan += op_class->inc) {
 400:C:/Users/stapi/OneDrive/Desktop/GD32VW553/V1_MQTT_OK/GD32VW55X_Wifi_BLE_SDK/GD32VW55x_RELEASE_V1.0.2/MSDK/wpa_supplicant/wpa_supplicant\op_classes.c **** 			curr_seg++;
 401:C:/Users/stapi/OneDrive/Desktop/GD32VW553/V1_MQTT_OK/GD32VW55X_Wifi_BLE_SDK/GD32VW55x_RELEASE_V1.0.2/MSDK/wpa_supplicant/wpa_supplicant\op_classes.c **** 			if (verify_channel(mode, op_class->op_class, chan,
 402:C:/Users/stapi/OneDrive/Desktop/GD32VW553/V1_MQTT_OK/GD32VW55X_Wifi_BLE_SDK/GD32VW55x_RELEASE_V1.0.2/MSDK/wpa_supplicant/wpa_supplicant\op_classes.c **** 					   op_class->bw) != NOT_ALLOWED) {
 403:C:/Users/stapi/OneDrive/Desktop/GD32VW553/V1_MQTT_OK/GD32VW55X_Wifi_BLE_SDK/GD32VW55x_RELEASE_V1.0.2/MSDK/wpa_supplicant/wpa_supplicant\op_classes.c **** 				if (!first_seg) {
 404:C:/Users/stapi/OneDrive/Desktop/GD32VW553/V1_MQTT_OK/GD32VW55X_Wifi_BLE_SDK/GD32VW55x_RELEASE_V1.0.2/MSDK/wpa_supplicant/wpa_supplicant\op_classes.c **** 					first_seg = curr_seg;
 405:C:/Users/stapi/OneDrive/Desktop/GD32VW553/V1_MQTT_OK/GD32VW55X_Wifi_BLE_SDK/GD32VW55x_RELEASE_V1.0.2/MSDK/wpa_supplicant/wpa_supplicant\op_classes.c **** 					continue;
 406:C:/Users/stapi/OneDrive/Desktop/GD32VW553/V1_MQTT_OK/GD32VW55X_Wifi_BLE_SDK/GD32VW55x_RELEASE_V1.0.2/MSDK/wpa_supplicant/wpa_supplicant\op_classes.c **** 				}
 407:C:/Users/stapi/OneDrive/Desktop/GD32VW553/V1_MQTT_OK/GD32VW55X_Wifi_BLE_SDK/GD32VW55x_RELEASE_V1.0.2/MSDK/wpa_supplicant/wpa_supplicant\op_classes.c **** 
 408:C:/Users/stapi/OneDrive/Desktop/GD32VW553/V1_MQTT_OK/GD32VW55X_Wifi_BLE_SDK/GD32VW55x_RELEASE_V1.0.2/MSDK/wpa_supplicant/wpa_supplicant\op_classes.c **** 				/* Supported if at least two non-consecutive 80
 409:C:/Users/stapi/OneDrive/Desktop/GD32VW553/V1_MQTT_OK/GD32VW55X_Wifi_BLE_SDK/GD32VW55x_RELEASE_V1.0.2/MSDK/wpa_supplicant/wpa_supplicant\op_classes.c **** 				 * MHz segments allowed.
 410:C:/Users/stapi/OneDrive/Desktop/GD32VW553/V1_MQTT_OK/GD32VW55X_Wifi_BLE_SDK/GD32VW55x_RELEASE_V1.0.2/MSDK/wpa_supplicant/wpa_supplicant\op_classes.c **** 				 */
 411:C:/Users/stapi/OneDrive/Desktop/GD32VW553/V1_MQTT_OK/GD32VW55X_Wifi_BLE_SDK/GD32VW55x_RELEASE_V1.0.2/MSDK/wpa_supplicant/wpa_supplicant\op_classes.c **** 				if ((curr_seg - first_seg) > 1)
 412:C:/Users/stapi/OneDrive/Desktop/GD32VW553/V1_MQTT_OK/GD32VW55X_Wifi_BLE_SDK/GD32VW55x_RELEASE_V1.0.2/MSDK/wpa_supplicant/wpa_supplicant\op_classes.c **** 					return 1;
 413:C:/Users/stapi/OneDrive/Desktop/GD32VW553/V1_MQTT_OK/GD32VW55X_Wifi_BLE_SDK/GD32VW55x_RELEASE_V1.0.2/MSDK/wpa_supplicant/wpa_supplicant\op_classes.c **** 
 414:C:/Users/stapi/OneDrive/Desktop/GD32VW553/V1_MQTT_OK/GD32VW55X_Wifi_BLE_SDK/GD32VW55x_RELEASE_V1.0.2/MSDK/wpa_supplicant/wpa_supplicant\op_classes.c **** 				/* Supported even if the 80 MHz segments are
 415:C:/Users/stapi/OneDrive/Desktop/GD32VW553/V1_MQTT_OK/GD32VW55X_Wifi_BLE_SDK/GD32VW55x_RELEASE_V1.0.2/MSDK/wpa_supplicant/wpa_supplicant\op_classes.c **** 				 * consecutive when they do not fall under the
 416:C:/Users/stapi/OneDrive/Desktop/GD32VW553/V1_MQTT_OK/GD32VW55X_Wifi_BLE_SDK/GD32VW55x_RELEASE_V1.0.2/MSDK/wpa_supplicant/wpa_supplicant\op_classes.c **** 				 * same 160 MHz segment.
 417:C:/Users/stapi/OneDrive/Desktop/GD32VW553/V1_MQTT_OK/GD32VW55X_Wifi_BLE_SDK/GD32VW55x_RELEASE_V1.0.2/MSDK/wpa_supplicant/wpa_supplicant\op_classes.c **** 				 */
 418:C:/Users/stapi/OneDrive/Desktop/GD32VW553/V1_MQTT_OK/GD32VW55X_Wifi_BLE_SDK/GD32VW55x_RELEASE_V1.0.2/MSDK/wpa_supplicant/wpa_supplicant\op_classes.c **** 				if ((first_seg % 2) == 0)
 419:C:/Users/stapi/OneDrive/Desktop/GD32VW553/V1_MQTT_OK/GD32VW55X_Wifi_BLE_SDK/GD32VW55x_RELEASE_V1.0.2/MSDK/wpa_supplicant/wpa_supplicant\op_classes.c **** 					return 1;
 420:C:/Users/stapi/OneDrive/Desktop/GD32VW553/V1_MQTT_OK/GD32VW55X_Wifi_BLE_SDK/GD32VW55x_RELEASE_V1.0.2/MSDK/wpa_supplicant/wpa_supplicant\op_classes.c **** 			}
 421:C:/Users/stapi/OneDrive/Desktop/GD32VW553/V1_MQTT_OK/GD32VW55X_Wifi_BLE_SDK/GD32VW55x_RELEASE_V1.0.2/MSDK/wpa_supplicant/wpa_supplicant\op_classes.c **** 		}
 422:C:/Users/stapi/OneDrive/Desktop/GD32VW553/V1_MQTT_OK/GD32VW55X_Wifi_BLE_SDK/GD32VW55x_RELEASE_V1.0.2/MSDK/wpa_supplicant/wpa_supplicant\op_classes.c **** 
 423:C:/Users/stapi/OneDrive/Desktop/GD32VW553/V1_MQTT_OK/GD32VW55X_Wifi_BLE_SDK/GD32VW55x_RELEASE_V1.0.2/MSDK/wpa_supplicant/wpa_supplicant\op_classes.c **** 		return 0;
 424:C:/Users/stapi/OneDrive/Desktop/GD32VW553/V1_MQTT_OK/GD32VW55X_Wifi_BLE_SDK/GD32VW55x_RELEASE_V1.0.2/MSDK/wpa_supplicant/wpa_supplicant\op_classes.c **** 	}
 425:C:/Users/stapi/OneDrive/Desktop/GD32VW553/V1_MQTT_OK/GD32VW55X_Wifi_BLE_SDK/GD32VW55x_RELEASE_V1.0.2/MSDK/wpa_supplicant/wpa_supplicant\op_classes.c **** 
 426:C:/Users/stapi/OneDrive/Desktop/GD32VW553/V1_MQTT_OK/GD32VW55X_Wifi_BLE_SDK/GD32VW55x_RELEASE_V1.0.2/MSDK/wpa_supplicant/wpa_supplicant\op_classes.c **** 	found = 0;
 427:C:/Users/stapi/OneDrive/Desktop/GD32VW553/V1_MQTT_OK/GD32VW55X_Wifi_BLE_SDK/GD32VW55x_RELEASE_V1.0.2/MSDK/wpa_supplicant/wpa_supplicant\op_classes.c **** 	for (chan = op_class->min_chan; chan <= op_class->max_chan;
 428:C:/Users/stapi/OneDrive/Desktop/GD32VW553/V1_MQTT_OK/GD32VW55X_Wifi_BLE_SDK/GD32VW55x_RELEASE_V1.0.2/MSDK/wpa_supplicant/wpa_supplicant\op_classes.c **** 	     chan += op_class->inc) {
 429:C:/Users/stapi/OneDrive/Desktop/GD32VW553/V1_MQTT_OK/GD32VW55X_Wifi_BLE_SDK/GD32VW55x_RELEASE_V1.0.2/MSDK/wpa_supplicant/wpa_supplicant\op_classes.c **** 		if (verify_channel(mode, op_class->op_class, chan,
 430:C:/Users/stapi/OneDrive/Desktop/GD32VW553/V1_MQTT_OK/GD32VW55X_Wifi_BLE_SDK/GD32VW55x_RELEASE_V1.0.2/MSDK/wpa_supplicant/wpa_supplicant\op_classes.c **** 				   op_class->bw) != NOT_ALLOWED) {
 431:C:/Users/stapi/OneDrive/Desktop/GD32VW553/V1_MQTT_OK/GD32VW55X_Wifi_BLE_SDK/GD32VW55x_RELEASE_V1.0.2/MSDK/wpa_supplicant/wpa_supplicant\op_classes.c **** 			found = 1;
 432:C:/Users/stapi/OneDrive/Desktop/GD32VW553/V1_MQTT_OK/GD32VW55X_Wifi_BLE_SDK/GD32VW55x_RELEASE_V1.0.2/MSDK/wpa_supplicant/wpa_supplicant\op_classes.c **** 			break;
 433:C:/Users/stapi/OneDrive/Desktop/GD32VW553/V1_MQTT_OK/GD32VW55X_Wifi_BLE_SDK/GD32VW55x_RELEASE_V1.0.2/MSDK/wpa_supplicant/wpa_supplicant\op_classes.c **** 		}
 434:C:/Users/stapi/OneDrive/Desktop/GD32VW553/V1_MQTT_OK/GD32VW55X_Wifi_BLE_SDK/GD32VW55x_RELEASE_V1.0.2/MSDK/wpa_supplicant/wpa_supplicant\op_classes.c **** 	}
 435:C:/Users/stapi/OneDrive/Desktop/GD32VW553/V1_MQTT_OK/GD32VW55X_Wifi_BLE_SDK/GD32VW55x_RELEASE_V1.0.2/MSDK/wpa_supplicant/wpa_supplicant\op_classes.c **** 
 436:C:/Users/stapi/OneDrive/Desktop/GD32VW553/V1_MQTT_OK/GD32VW55X_Wifi_BLE_SDK/GD32VW55x_RELEASE_V1.0.2/MSDK/wpa_supplicant/wpa_supplicant\op_classes.c **** 	return found;
 437:C:/Users/stapi/OneDrive/Desktop/GD32VW553/V1_MQTT_OK/GD32VW55X_Wifi_BLE_SDK/GD32VW55x_RELEASE_V1.0.2/MSDK/wpa_supplicant/wpa_supplicant\op_classes.c **** }
 438:C:/Users/stapi/OneDrive/Desktop/GD32VW553/V1_MQTT_OK/GD32VW55X_Wifi_BLE_SDK/GD32VW55x_RELEASE_V1.0.2/MSDK/wpa_supplicant/wpa_supplicant\op_classes.c **** 
 439:C:/Users/stapi/OneDrive/Desktop/GD32VW553/V1_MQTT_OK/GD32VW55X_Wifi_BLE_SDK/GD32VW55x_RELEASE_V1.0.2/MSDK/wpa_supplicant/wpa_supplicant\op_classes.c **** #ifndef CONFIG_NO_RRM
 440:C:/Users/stapi/OneDrive/Desktop/GD32VW553/V1_MQTT_OK/GD32VW55X_Wifi_BLE_SDK/GD32VW55x_RELEASE_V1.0.2/MSDK/wpa_supplicant/wpa_supplicant\op_classes.c **** static int wpas_sta_secondary_channel_offset(struct wpa_bss *bss, u8 *current,
 441:C:/Users/stapi/OneDrive/Desktop/GD32VW553/V1_MQTT_OK/GD32VW55X_Wifi_BLE_SDK/GD32VW55x_RELEASE_V1.0.2/MSDK/wpa_supplicant/wpa_supplicant\op_classes.c **** 					     u8 *channel)
 442:C:/Users/stapi/OneDrive/Desktop/GD32VW553/V1_MQTT_OK/GD32VW55X_Wifi_BLE_SDK/GD32VW55x_RELEASE_V1.0.2/MSDK/wpa_supplicant/wpa_supplicant\op_classes.c **** {
 443:C:/Users/stapi/OneDrive/Desktop/GD32VW553/V1_MQTT_OK/GD32VW55X_Wifi_BLE_SDK/GD32VW55x_RELEASE_V1.0.2/MSDK/wpa_supplicant/wpa_supplicant\op_classes.c **** 
 444:C:/Users/stapi/OneDrive/Desktop/GD32VW553/V1_MQTT_OK/GD32VW55X_Wifi_BLE_SDK/GD32VW55x_RELEASE_V1.0.2/MSDK/wpa_supplicant/wpa_supplicant\op_classes.c **** 	const u8 *ies;
 445:C:/Users/stapi/OneDrive/Desktop/GD32VW553/V1_MQTT_OK/GD32VW55X_Wifi_BLE_SDK/GD32VW55x_RELEASE_V1.0.2/MSDK/wpa_supplicant/wpa_supplicant\op_classes.c **** 	u8 phy_type;
 446:C:/Users/stapi/OneDrive/Desktop/GD32VW553/V1_MQTT_OK/GD32VW55X_Wifi_BLE_SDK/GD32VW55x_RELEASE_V1.0.2/MSDK/wpa_supplicant/wpa_supplicant\op_classes.c **** 	size_t ies_len;
 447:C:/Users/stapi/OneDrive/Desktop/GD32VW553/V1_MQTT_OK/GD32VW55X_Wifi_BLE_SDK/GD32VW55x_RELEASE_V1.0.2/MSDK/wpa_supplicant/wpa_supplicant\op_classes.c **** 
 448:C:/Users/stapi/OneDrive/Desktop/GD32VW553/V1_MQTT_OK/GD32VW55X_Wifi_BLE_SDK/GD32VW55x_RELEASE_V1.0.2/MSDK/wpa_supplicant/wpa_supplicant\op_classes.c **** 	if (!bss)
 449:C:/Users/stapi/OneDrive/Desktop/GD32VW553/V1_MQTT_OK/GD32VW55X_Wifi_BLE_SDK/GD32VW55x_RELEASE_V1.0.2/MSDK/wpa_supplicant/wpa_supplicant\op_classes.c **** 		return -1;
 450:C:/Users/stapi/OneDrive/Desktop/GD32VW553/V1_MQTT_OK/GD32VW55X_Wifi_BLE_SDK/GD32VW55x_RELEASE_V1.0.2/MSDK/wpa_supplicant/wpa_supplicant\op_classes.c **** 	ies = wpa_bss_ie_ptr(bss);
 451:C:/Users/stapi/OneDrive/Desktop/GD32VW553/V1_MQTT_OK/GD32VW55X_Wifi_BLE_SDK/GD32VW55x_RELEASE_V1.0.2/MSDK/wpa_supplicant/wpa_supplicant\op_classes.c **** 	ies_len = bss->ie_len ? bss->ie_len : bss->beacon_ie_len;
 452:C:/Users/stapi/OneDrive/Desktop/GD32VW553/V1_MQTT_OK/GD32VW55X_Wifi_BLE_SDK/GD32VW55x_RELEASE_V1.0.2/MSDK/wpa_supplicant/wpa_supplicant\op_classes.c **** 	return wpas_get_op_chan_phy(bss->freq, ies, ies_len, current,
 453:C:/Users/stapi/OneDrive/Desktop/GD32VW553/V1_MQTT_OK/GD32VW55X_Wifi_BLE_SDK/GD32VW55x_RELEASE_V1.0.2/MSDK/wpa_supplicant/wpa_supplicant\op_classes.c **** 				    channel, &phy_type);
 454:C:/Users/stapi/OneDrive/Desktop/GD32VW553/V1_MQTT_OK/GD32VW55X_Wifi_BLE_SDK/GD32VW55x_RELEASE_V1.0.2/MSDK/wpa_supplicant/wpa_supplicant\op_classes.c **** }
 455:C:/Users/stapi/OneDrive/Desktop/GD32VW553/V1_MQTT_OK/GD32VW55X_Wifi_BLE_SDK/GD32VW55x_RELEASE_V1.0.2/MSDK/wpa_supplicant/wpa_supplicant\op_classes.c **** 
 456:C:/Users/stapi/OneDrive/Desktop/GD32VW553/V1_MQTT_OK/GD32VW55X_Wifi_BLE_SDK/GD32VW55x_RELEASE_V1.0.2/MSDK/wpa_supplicant/wpa_supplicant\op_classes.c **** 
 457:C:/Users/stapi/OneDrive/Desktop/GD32VW553/V1_MQTT_OK/GD32VW55X_Wifi_BLE_SDK/GD32VW55x_RELEASE_V1.0.2/MSDK/wpa_supplicant/wpa_supplicant\op_classes.c **** size_t wpas_supp_op_class_ie(struct wpa_supplicant *wpa_s,
 458:C:/Users/stapi/OneDrive/Desktop/GD32VW553/V1_MQTT_OK/GD32VW55X_Wifi_BLE_SDK/GD32VW55x_RELEASE_V1.0.2/MSDK/wpa_supplicant/wpa_supplicant\op_classes.c **** 			     struct wpa_ssid *ssid,
 459:C:/Users/stapi/OneDrive/Desktop/GD32VW553/V1_MQTT_OK/GD32VW55X_Wifi_BLE_SDK/GD32VW55x_RELEASE_V1.0.2/MSDK/wpa_supplicant/wpa_supplicant\op_classes.c **** 			     struct wpa_bss *bss, u8 *pos, size_t len)
 460:C:/Users/stapi/OneDrive/Desktop/GD32VW553/V1_MQTT_OK/GD32VW55X_Wifi_BLE_SDK/GD32VW55x_RELEASE_V1.0.2/MSDK/wpa_supplicant/wpa_supplicant\op_classes.c **** {
 461:C:/Users/stapi/OneDrive/Desktop/GD32VW553/V1_MQTT_OK/GD32VW55X_Wifi_BLE_SDK/GD32VW55x_RELEASE_V1.0.2/MSDK/wpa_supplicant/wpa_supplicant\op_classes.c **** 	struct wpabuf *buf;
 462:C:/Users/stapi/OneDrive/Desktop/GD32VW553/V1_MQTT_OK/GD32VW55X_Wifi_BLE_SDK/GD32VW55x_RELEASE_V1.0.2/MSDK/wpa_supplicant/wpa_supplicant\op_classes.c **** 	u8 op, current, chan;
 463:C:/Users/stapi/OneDrive/Desktop/GD32VW553/V1_MQTT_OK/GD32VW55X_Wifi_BLE_SDK/GD32VW55x_RELEASE_V1.0.2/MSDK/wpa_supplicant/wpa_supplicant\op_classes.c **** 	u8 *ie_len;
 464:C:/Users/stapi/OneDrive/Desktop/GD32VW553/V1_MQTT_OK/GD32VW55X_Wifi_BLE_SDK/GD32VW55x_RELEASE_V1.0.2/MSDK/wpa_supplicant/wpa_supplicant\op_classes.c **** 	size_t res;
 465:C:/Users/stapi/OneDrive/Desktop/GD32VW553/V1_MQTT_OK/GD32VW55X_Wifi_BLE_SDK/GD32VW55x_RELEASE_V1.0.2/MSDK/wpa_supplicant/wpa_supplicant\op_classes.c **** 
 466:C:/Users/stapi/OneDrive/Desktop/GD32VW553/V1_MQTT_OK/GD32VW55X_Wifi_BLE_SDK/GD32VW55x_RELEASE_V1.0.2/MSDK/wpa_supplicant/wpa_supplicant\op_classes.c **** 	/*
 467:C:/Users/stapi/OneDrive/Desktop/GD32VW553/V1_MQTT_OK/GD32VW55X_Wifi_BLE_SDK/GD32VW55x_RELEASE_V1.0.2/MSDK/wpa_supplicant/wpa_supplicant\op_classes.c **** 	 * Determine the current operating class correct mode based on
 468:C:/Users/stapi/OneDrive/Desktop/GD32VW553/V1_MQTT_OK/GD32VW55X_Wifi_BLE_SDK/GD32VW55x_RELEASE_V1.0.2/MSDK/wpa_supplicant/wpa_supplicant\op_classes.c **** 	 * advertised BSS capabilities, if available. Fall back to a less
 469:C:/Users/stapi/OneDrive/Desktop/GD32VW553/V1_MQTT_OK/GD32VW55X_Wifi_BLE_SDK/GD32VW55x_RELEASE_V1.0.2/MSDK/wpa_supplicant/wpa_supplicant\op_classes.c **** 	 * accurate guess based on frequency if the needed IEs are not available
 470:C:/Users/stapi/OneDrive/Desktop/GD32VW553/V1_MQTT_OK/GD32VW55X_Wifi_BLE_SDK/GD32VW55x_RELEASE_V1.0.2/MSDK/wpa_supplicant/wpa_supplicant\op_classes.c **** 	 * or used.
 471:C:/Users/stapi/OneDrive/Desktop/GD32VW553/V1_MQTT_OK/GD32VW55X_Wifi_BLE_SDK/GD32VW55x_RELEASE_V1.0.2/MSDK/wpa_supplicant/wpa_supplicant\op_classes.c **** 	 */
 472:C:/Users/stapi/OneDrive/Desktop/GD32VW553/V1_MQTT_OK/GD32VW55X_Wifi_BLE_SDK/GD32VW55x_RELEASE_V1.0.2/MSDK/wpa_supplicant/wpa_supplicant\op_classes.c **** 	if (wpas_sta_secondary_channel_offset(bss, &current, &chan) < 0 &&
 473:C:/Users/stapi/OneDrive/Desktop/GD32VW553/V1_MQTT_OK/GD32VW55X_Wifi_BLE_SDK/GD32VW55x_RELEASE_V1.0.2/MSDK/wpa_supplicant/wpa_supplicant\op_classes.c **** 	    ieee80211_freq_to_channel_ext(bss->freq, 0, CHANWIDTH_USE_HT,
 474:C:/Users/stapi/OneDrive/Desktop/GD32VW553/V1_MQTT_OK/GD32VW55X_Wifi_BLE_SDK/GD32VW55x_RELEASE_V1.0.2/MSDK/wpa_supplicant/wpa_supplicant\op_classes.c **** 					  &current, &chan) == NUM_HOSTAPD_MODES)
 475:C:/Users/stapi/OneDrive/Desktop/GD32VW553/V1_MQTT_OK/GD32VW55X_Wifi_BLE_SDK/GD32VW55x_RELEASE_V1.0.2/MSDK/wpa_supplicant/wpa_supplicant\op_classes.c **** 		return 0;
 476:C:/Users/stapi/OneDrive/Desktop/GD32VW553/V1_MQTT_OK/GD32VW55X_Wifi_BLE_SDK/GD32VW55x_RELEASE_V1.0.2/MSDK/wpa_supplicant/wpa_supplicant\op_classes.c **** 
 477:C:/Users/stapi/OneDrive/Desktop/GD32VW553/V1_MQTT_OK/GD32VW55X_Wifi_BLE_SDK/GD32VW55x_RELEASE_V1.0.2/MSDK/wpa_supplicant/wpa_supplicant\op_classes.c **** 	/*
 478:C:/Users/stapi/OneDrive/Desktop/GD32VW553/V1_MQTT_OK/GD32VW55X_Wifi_BLE_SDK/GD32VW55x_RELEASE_V1.0.2/MSDK/wpa_supplicant/wpa_supplicant\op_classes.c **** 	 * Need 3 bytes for EID, length, and current operating class, plus
 479:C:/Users/stapi/OneDrive/Desktop/GD32VW553/V1_MQTT_OK/GD32VW55X_Wifi_BLE_SDK/GD32VW55x_RELEASE_V1.0.2/MSDK/wpa_supplicant/wpa_supplicant\op_classes.c **** 	 * 1 byte for every other supported operating class.
 480:C:/Users/stapi/OneDrive/Desktop/GD32VW553/V1_MQTT_OK/GD32VW55X_Wifi_BLE_SDK/GD32VW55x_RELEASE_V1.0.2/MSDK/wpa_supplicant/wpa_supplicant\op_classes.c **** 	 */
 481:C:/Users/stapi/OneDrive/Desktop/GD32VW553/V1_MQTT_OK/GD32VW55X_Wifi_BLE_SDK/GD32VW55x_RELEASE_V1.0.2/MSDK/wpa_supplicant/wpa_supplicant\op_classes.c **** 	buf = wpabuf_alloc(global_op_class_size + 3);
 482:C:/Users/stapi/OneDrive/Desktop/GD32VW553/V1_MQTT_OK/GD32VW55X_Wifi_BLE_SDK/GD32VW55x_RELEASE_V1.0.2/MSDK/wpa_supplicant/wpa_supplicant\op_classes.c **** 	if (!buf)
 483:C:/Users/stapi/OneDrive/Desktop/GD32VW553/V1_MQTT_OK/GD32VW55X_Wifi_BLE_SDK/GD32VW55x_RELEASE_V1.0.2/MSDK/wpa_supplicant/wpa_supplicant\op_classes.c **** 		return 0;
 484:C:/Users/stapi/OneDrive/Desktop/GD32VW553/V1_MQTT_OK/GD32VW55X_Wifi_BLE_SDK/GD32VW55x_RELEASE_V1.0.2/MSDK/wpa_supplicant/wpa_supplicant\op_classes.c **** 
 485:C:/Users/stapi/OneDrive/Desktop/GD32VW553/V1_MQTT_OK/GD32VW55X_Wifi_BLE_SDK/GD32VW55x_RELEASE_V1.0.2/MSDK/wpa_supplicant/wpa_supplicant\op_classes.c **** 	wpabuf_put_u8(buf, WLAN_EID_SUPPORTED_OPERATING_CLASSES);
 486:C:/Users/stapi/OneDrive/Desktop/GD32VW553/V1_MQTT_OK/GD32VW55X_Wifi_BLE_SDK/GD32VW55x_RELEASE_V1.0.2/MSDK/wpa_supplicant/wpa_supplicant\op_classes.c **** 	/* Will set the length later, putting a placeholder */
 487:C:/Users/stapi/OneDrive/Desktop/GD32VW553/V1_MQTT_OK/GD32VW55X_Wifi_BLE_SDK/GD32VW55x_RELEASE_V1.0.2/MSDK/wpa_supplicant/wpa_supplicant\op_classes.c **** 	ie_len = wpabuf_put(buf, 1);
 488:C:/Users/stapi/OneDrive/Desktop/GD32VW553/V1_MQTT_OK/GD32VW55X_Wifi_BLE_SDK/GD32VW55x_RELEASE_V1.0.2/MSDK/wpa_supplicant/wpa_supplicant\op_classes.c **** 	wpabuf_put_u8(buf, current);
 489:C:/Users/stapi/OneDrive/Desktop/GD32VW553/V1_MQTT_OK/GD32VW55X_Wifi_BLE_SDK/GD32VW55x_RELEASE_V1.0.2/MSDK/wpa_supplicant/wpa_supplicant\op_classes.c **** 
 490:C:/Users/stapi/OneDrive/Desktop/GD32VW553/V1_MQTT_OK/GD32VW55X_Wifi_BLE_SDK/GD32VW55x_RELEASE_V1.0.2/MSDK/wpa_supplicant/wpa_supplicant\op_classes.c **** 	for (op = 0; global_op_class[op].op_class; op++) {
 491:C:/Users/stapi/OneDrive/Desktop/GD32VW553/V1_MQTT_OK/GD32VW55X_Wifi_BLE_SDK/GD32VW55x_RELEASE_V1.0.2/MSDK/wpa_supplicant/wpa_supplicant\op_classes.c **** 		if (wpas_op_class_supported(wpa_s, ssid, &global_op_class[op]))
 492:C:/Users/stapi/OneDrive/Desktop/GD32VW553/V1_MQTT_OK/GD32VW55X_Wifi_BLE_SDK/GD32VW55x_RELEASE_V1.0.2/MSDK/wpa_supplicant/wpa_supplicant\op_classes.c **** 			wpabuf_put_u8(buf, global_op_class[op].op_class);
 493:C:/Users/stapi/OneDrive/Desktop/GD32VW553/V1_MQTT_OK/GD32VW55X_Wifi_BLE_SDK/GD32VW55x_RELEASE_V1.0.2/MSDK/wpa_supplicant/wpa_supplicant\op_classes.c **** 	}
 494:C:/Users/stapi/OneDrive/Desktop/GD32VW553/V1_MQTT_OK/GD32VW55X_Wifi_BLE_SDK/GD32VW55x_RELEASE_V1.0.2/MSDK/wpa_supplicant/wpa_supplicant\op_classes.c **** 
 495:C:/Users/stapi/OneDrive/Desktop/GD32VW553/V1_MQTT_OK/GD32VW55X_Wifi_BLE_SDK/GD32VW55x_RELEASE_V1.0.2/MSDK/wpa_supplicant/wpa_supplicant\op_classes.c **** 	*ie_len = wpabuf_len(buf) - 2;
 496:C:/Users/stapi/OneDrive/Desktop/GD32VW553/V1_MQTT_OK/GD32VW55X_Wifi_BLE_SDK/GD32VW55x_RELEASE_V1.0.2/MSDK/wpa_supplicant/wpa_supplicant\op_classes.c **** 	if (*ie_len < 2) {
 497:C:/Users/stapi/OneDrive/Desktop/GD32VW553/V1_MQTT_OK/GD32VW55X_Wifi_BLE_SDK/GD32VW55x_RELEASE_V1.0.2/MSDK/wpa_supplicant/wpa_supplicant\op_classes.c **** 		wpa_printf(MSG_DEBUG,
 498:C:/Users/stapi/OneDrive/Desktop/GD32VW553/V1_MQTT_OK/GD32VW55X_Wifi_BLE_SDK/GD32VW55x_RELEASE_V1.0.2/MSDK/wpa_supplicant/wpa_supplicant\op_classes.c **** 			   "No supported operating classes IE to add");
 499:C:/Users/stapi/OneDrive/Desktop/GD32VW553/V1_MQTT_OK/GD32VW55X_Wifi_BLE_SDK/GD32VW55x_RELEASE_V1.0.2/MSDK/wpa_supplicant/wpa_supplicant\op_classes.c **** 		res = 0;
 500:C:/Users/stapi/OneDrive/Desktop/GD32VW553/V1_MQTT_OK/GD32VW55X_Wifi_BLE_SDK/GD32VW55x_RELEASE_V1.0.2/MSDK/wpa_supplicant/wpa_supplicant\op_classes.c **** 	} else if (wpabuf_len(buf) > len) {
 501:C:/Users/stapi/OneDrive/Desktop/GD32VW553/V1_MQTT_OK/GD32VW55X_Wifi_BLE_SDK/GD32VW55x_RELEASE_V1.0.2/MSDK/wpa_supplicant/wpa_supplicant\op_classes.c **** 		wpa_printf(MSG_ERROR,
 502:C:/Users/stapi/OneDrive/Desktop/GD32VW553/V1_MQTT_OK/GD32VW55X_Wifi_BLE_SDK/GD32VW55x_RELEASE_V1.0.2/MSDK/wpa_supplicant/wpa_supplicant\op_classes.c **** 			   "Supported operating classes IE exceeds maximum buffer length");
 503:C:/Users/stapi/OneDrive/Desktop/GD32VW553/V1_MQTT_OK/GD32VW55X_Wifi_BLE_SDK/GD32VW55x_RELEASE_V1.0.2/MSDK/wpa_supplicant/wpa_supplicant\op_classes.c **** 		res = 0;
 504:C:/Users/stapi/OneDrive/Desktop/GD32VW553/V1_MQTT_OK/GD32VW55X_Wifi_BLE_SDK/GD32VW55x_RELEASE_V1.0.2/MSDK/wpa_supplicant/wpa_supplicant\op_classes.c **** 	} else {
 505:C:/Users/stapi/OneDrive/Desktop/GD32VW553/V1_MQTT_OK/GD32VW55X_Wifi_BLE_SDK/GD32VW55x_RELEASE_V1.0.2/MSDK/wpa_supplicant/wpa_supplicant\op_classes.c **** 		os_memcpy(pos, wpabuf_head(buf), wpabuf_len(buf));
 506:C:/Users/stapi/OneDrive/Desktop/GD32VW553/V1_MQTT_OK/GD32VW55X_Wifi_BLE_SDK/GD32VW55x_RELEASE_V1.0.2/MSDK/wpa_supplicant/wpa_supplicant\op_classes.c **** 		res = wpabuf_len(buf);
 507:C:/Users/stapi/OneDrive/Desktop/GD32VW553/V1_MQTT_OK/GD32VW55X_Wifi_BLE_SDK/GD32VW55x_RELEASE_V1.0.2/MSDK/wpa_supplicant/wpa_supplicant\op_classes.c **** 		wpa_hexdump_buf(MSG_DEBUG,
 508:C:/Users/stapi/OneDrive/Desktop/GD32VW553/V1_MQTT_OK/GD32VW55X_Wifi_BLE_SDK/GD32VW55x_RELEASE_V1.0.2/MSDK/wpa_supplicant/wpa_supplicant\op_classes.c **** 				"Added supported operating classes IE", buf);
 509:C:/Users/stapi/OneDrive/Desktop/GD32VW553/V1_MQTT_OK/GD32VW55X_Wifi_BLE_SDK/GD32VW55x_RELEASE_V1.0.2/MSDK/wpa_supplicant/wpa_supplicant\op_classes.c **** 	}
 510:C:/Users/stapi/OneDrive/Desktop/GD32VW553/V1_MQTT_OK/GD32VW55X_Wifi_BLE_SDK/GD32VW55x_RELEASE_V1.0.2/MSDK/wpa_supplicant/wpa_supplicant\op_classes.c **** 
 511:C:/Users/stapi/OneDrive/Desktop/GD32VW553/V1_MQTT_OK/GD32VW55X_Wifi_BLE_SDK/GD32VW55x_RELEASE_V1.0.2/MSDK/wpa_supplicant/wpa_supplicant\op_classes.c **** 	wpabuf_free(buf);
 512:C:/Users/stapi/OneDrive/Desktop/GD32VW553/V1_MQTT_OK/GD32VW55X_Wifi_BLE_SDK/GD32VW55x_RELEASE_V1.0.2/MSDK/wpa_supplicant/wpa_supplicant\op_classes.c **** 	return res;
 513:C:/Users/stapi/OneDrive/Desktop/GD32VW553/V1_MQTT_OK/GD32VW55X_Wifi_BLE_SDK/GD32VW55x_RELEASE_V1.0.2/MSDK/wpa_supplicant/wpa_supplicant\op_classes.c **** }
 514:C:/Users/stapi/OneDrive/Desktop/GD32VW553/V1_MQTT_OK/GD32VW55X_Wifi_BLE_SDK/GD32VW55x_RELEASE_V1.0.2/MSDK/wpa_supplicant/wpa_supplicant\op_classes.c **** #endif /* CONFIG_NO_RRM */
 515:C:/Users/stapi/OneDrive/Desktop/GD32VW553/V1_MQTT_OK/GD32VW55X_Wifi_BLE_SDK/GD32VW55x_RELEASE_V1.0.2/MSDK/wpa_supplicant/wpa_supplicant\op_classes.c **** 
 516:C:/Users/stapi/OneDrive/Desktop/GD32VW553/V1_MQTT_OK/GD32VW55X_Wifi_BLE_SDK/GD32VW55x_RELEASE_V1.0.2/MSDK/wpa_supplicant/wpa_supplicant\op_classes.c **** 
 517:C:/Users/stapi/OneDrive/Desktop/GD32VW553/V1_MQTT_OK/GD32VW55X_Wifi_BLE_SDK/GD32VW55x_RELEASE_V1.0.2/MSDK/wpa_supplicant/wpa_supplicant\op_classes.c **** int * wpas_supp_op_classes(struct wpa_supplicant *wpa_s)
 518:C:/Users/stapi/OneDrive/Desktop/GD32VW553/V1_MQTT_OK/GD32VW55X_Wifi_BLE_SDK/GD32VW55x_RELEASE_V1.0.2/MSDK/wpa_supplicant/wpa_supplicant\op_classes.c **** {
 804              		.loc 1 518 1 is_stmt 1
 805              		.cfi_startproc
 806              	.LVL75:
 807 0000 17030000 		call	t0,__riscv_save_12
 807      E7020300 
 808              		.cfi_offset 27, -52
 809              		.cfi_offset 26, -48
 810              		.cfi_offset 25, -44
 811              		.cfi_offset 24, -40
 812              		.cfi_offset 23, -36
 813              		.cfi_offset 22, -32
 814              		.cfi_offset 21, -28
 815              		.cfi_offset 20, -24
 816              		.cfi_offset 19, -20
 817              		.cfi_offset 18, -16
 818              		.cfi_offset 9, -12
 819              		.cfi_offset 8, -8
 820              		.cfi_offset 1, -4
 821              		.cfi_def_cfa_offset 64
 519:C:/Users/stapi/OneDrive/Desktop/GD32VW553/V1_MQTT_OK/GD32VW55X_Wifi_BLE_SDK/GD32VW55x_RELEASE_V1.0.2/MSDK/wpa_supplicant/wpa_supplicant\op_classes.c **** 	int op;
 822              		.loc 1 519 2
 520:C:/Users/stapi/OneDrive/Desktop/GD32VW553/V1_MQTT_OK/GD32VW55X_Wifi_BLE_SDK/GD32VW55x_RELEASE_V1.0.2/MSDK/wpa_supplicant/wpa_supplicant\op_classes.c **** 	unsigned int pos, max_num = 0;
 823              		.loc 1 520 2
 824              	.LVL76:
 521:C:/Users/stapi/OneDrive/Desktop/GD32VW553/V1_MQTT_OK/GD32VW55X_Wifi_BLE_SDK/GD32VW55x_RELEASE_V1.0.2/MSDK/wpa_supplicant/wpa_supplicant\op_classes.c **** 	int *classes;
 825              		.loc 1 521 2
 522:C:/Users/stapi/OneDrive/Desktop/GD32VW553/V1_MQTT_OK/GD32VW55X_Wifi_BLE_SDK/GD32VW55x_RELEASE_V1.0.2/MSDK/wpa_supplicant/wpa_supplicant\op_classes.c **** 
 523:C:/Users/stapi/OneDrive/Desktop/GD32VW553/V1_MQTT_OK/GD32VW55X_Wifi_BLE_SDK/GD32VW55x_RELEASE_V1.0.2/MSDK/wpa_supplicant/wpa_supplicant\op_classes.c **** 	for (op = 0; global_op_class[op].op_class; op++)
 826              		.loc 1 523 2
 827 0008 B7070000 		lui	a5,%hi(global_op_class)
 518:C:/Users/stapi/OneDrive/Desktop/GD32VW553/V1_MQTT_OK/GD32VW55X_Wifi_BLE_SDK/GD32VW55x_RELEASE_V1.0.2/MSDK/wpa_supplicant/wpa_supplicant\op_classes.c **** 	int op;
 828              		.loc 1 518 1 is_stmt 0
 829 000c AA8A     		mv	s5,a0
 830 000e 93840700 		addi	s1,a5,%lo(global_op_class)
 831 0012 0111     		addi	sp,sp,-32
 832              		.cfi_def_cfa_offset 96
 833              		.loc 1 523 2
 834 0014 93870700 		addi	a5,a5,%lo(global_op_class)
 520:C:/Users/stapi/OneDrive/Desktop/GD32VW553/V1_MQTT_OK/GD32VW55X_Wifi_BLE_SDK/GD32VW55x_RELEASE_V1.0.2/MSDK/wpa_supplicant/wpa_supplicant\op_classes.c **** 	int *classes;
 835              		.loc 1 520 20
 836 0018 0145     		li	a0,0
 837              	.LVL77:
 838              	.L152:
 839              		.loc 1 523 15 is_stmt 1 discriminator 1
 840              		.loc 1 523 34 is_stmt 0 discriminator 1
 841 001a 03C74700 		lbu	a4,4(a5)
 524:C:/Users/stapi/OneDrive/Desktop/GD32VW553/V1_MQTT_OK/GD32VW55X_Wifi_BLE_SDK/GD32VW55x_RELEASE_V1.0.2/MSDK/wpa_supplicant/wpa_supplicant\op_classes.c **** 		max_num++;
 842              		.loc 1 524 10 discriminator 1
 843 001e 0505     		addi	a0,a0,1
 844              	.LVL78:
 523:C:/Users/stapi/OneDrive/Desktop/GD32VW553/V1_MQTT_OK/GD32VW55X_Wifi_BLE_SDK/GD32VW55x_RELEASE_V1.0.2/MSDK/wpa_supplicant/wpa_supplicant\op_classes.c **** 		max_num++;
 845              		.loc 1 523 2 discriminator 1
 846 0020 C107     		addi	a5,a5,16
 847 0022 65FF     		bne	a4,zero,.L152
 525:C:/Users/stapi/OneDrive/Desktop/GD32VW553/V1_MQTT_OK/GD32VW55X_Wifi_BLE_SDK/GD32VW55x_RELEASE_V1.0.2/MSDK/wpa_supplicant/wpa_supplicant\op_classes.c **** 	classes = os_zalloc((max_num + 1) * sizeof(int));
 848              		.loc 1 525 2 is_stmt 1
 849              		.loc 1 525 12 is_stmt 0
 850 0024 0A05     		slli	a0,a0,2
 851              	.LVL79:
 852 0026 97000000 		call	os_zalloc
 852      E7800000 
 853              	.LVL80:
 854 002e 2A8A     		mv	s4,a0
 855              	.LVL81:
 526:C:/Users/stapi/OneDrive/Desktop/GD32VW553/V1_MQTT_OK/GD32VW55X_Wifi_BLE_SDK/GD32VW55x_RELEASE_V1.0.2/MSDK/wpa_supplicant/wpa_supplicant\op_classes.c **** 	if (!classes)
 856              		.loc 1 526 2 is_stmt 1
 857              		.loc 1 526 5 is_stmt 0
 858 0030 09CD     		beq	a0,zero,.L151
 527:C:/Users/stapi/OneDrive/Desktop/GD32VW553/V1_MQTT_OK/GD32VW55X_Wifi_BLE_SDK/GD32VW55x_RELEASE_V1.0.2/MSDK/wpa_supplicant/wpa_supplicant\op_classes.c **** 		return NULL;
 528:C:/Users/stapi/OneDrive/Desktop/GD32VW553/V1_MQTT_OK/GD32VW55X_Wifi_BLE_SDK/GD32VW55x_RELEASE_V1.0.2/MSDK/wpa_supplicant/wpa_supplicant\op_classes.c **** 
 529:C:/Users/stapi/OneDrive/Desktop/GD32VW553/V1_MQTT_OK/GD32VW55X_Wifi_BLE_SDK/GD32VW55x_RELEASE_V1.0.2/MSDK/wpa_supplicant/wpa_supplicant\op_classes.c **** 	for (op = 0, pos = 0; global_op_class[op].op_class; op++) {
 859              		.loc 1 529 19
 860 0032 014B     		li	s6,0
 861              	.LBB35:
 862              	.LBB36:
 349:C:/Users/stapi/OneDrive/Desktop/GD32VW553/V1_MQTT_OK/GD32VW55X_Wifi_BLE_SDK/GD32VW55x_RELEASE_V1.0.2/MSDK/wpa_supplicant/wpa_supplicant\op_classes.c **** 		/* Need at least two non-contiguous 80 MHz segments */
 863              		.loc 1 349 5
 864 0034 930C2008 		li	s9,130
 391:C:/Users/stapi/OneDrive/Desktop/GD32VW553/V1_MQTT_OK/GD32VW55X_Wifi_BLE_SDK/GD32VW55x_RELEASE_V1.0.2/MSDK/wpa_supplicant/wpa_supplicant\op_classes.c **** 		/* Need at least two 80 MHz segments which do not fall under the
 865              		.loc 1 391 5
 866 0038 130D7008 		li	s10,135
 867              	.LBB37:
 411:C:/Users/stapi/OneDrive/Desktop/GD32VW553/V1_MQTT_OK/GD32VW55X_Wifi_BLE_SDK/GD32VW55x_RELEASE_V1.0.2/MSDK/wpa_supplicant/wpa_supplicant\op_classes.c **** 					return 1;
 868              		.loc 1 411 8
 869 003c 854B     		li	s7,1
 870              	.LBE37:
 871              	.LBB38:
 327:C:/Users/stapi/OneDrive/Desktop/GD32VW553/V1_MQTT_OK/GD32VW55X_Wifi_BLE_SDK/GD32VW55x_RELEASE_V1.0.2/MSDK/wpa_supplicant/wpa_supplicant\op_classes.c **** 
 872              		.loc 1 327 6
 873 003e B70D0000 		lui	s11,%hi(.LC0)
 874              	.LVL82:
 875              	.L154:
 876              	.LBE38:
 877              	.LBE36:
 878              	.LBE35:
 879              		.loc 1 529 24 is_stmt 1 discriminator 1
 880              		.loc 1 529 43 is_stmt 0 discriminator 1
 881 0042 83C94400 		lbu	s3,4(s1)
 882              		.loc 1 529 2 discriminator 1
 883 0046 63980900 		bne	s3,zero,.L175
 884              	.LVL83:
 885              	.L151:
 530:C:/Users/stapi/OneDrive/Desktop/GD32VW553/V1_MQTT_OK/GD32VW55X_Wifi_BLE_SDK/GD32VW55x_RELEASE_V1.0.2/MSDK/wpa_supplicant/wpa_supplicant\op_classes.c **** 		if (wpas_op_class_supported(wpa_s, NULL, &global_op_class[op]))
 531:C:/Users/stapi/OneDrive/Desktop/GD32VW553/V1_MQTT_OK/GD32VW55X_Wifi_BLE_SDK/GD32VW55x_RELEASE_V1.0.2/MSDK/wpa_supplicant/wpa_supplicant\op_classes.c **** 			classes[pos++] = global_op_class[op].op_class;
 532:C:/Users/stapi/OneDrive/Desktop/GD32VW553/V1_MQTT_OK/GD32VW55X_Wifi_BLE_SDK/GD32VW55x_RELEASE_V1.0.2/MSDK/wpa_supplicant/wpa_supplicant\op_classes.c **** 	}
 533:C:/Users/stapi/OneDrive/Desktop/GD32VW553/V1_MQTT_OK/GD32VW55X_Wifi_BLE_SDK/GD32VW55x_RELEASE_V1.0.2/MSDK/wpa_supplicant/wpa_supplicant\op_classes.c **** 
 534:C:/Users/stapi/OneDrive/Desktop/GD32VW553/V1_MQTT_OK/GD32VW55X_Wifi_BLE_SDK/GD32VW55x_RELEASE_V1.0.2/MSDK/wpa_supplicant/wpa_supplicant\op_classes.c **** 	return classes;
 535:C:/Users/stapi/OneDrive/Desktop/GD32VW553/V1_MQTT_OK/GD32VW55X_Wifi_BLE_SDK/GD32VW55x_RELEASE_V1.0.2/MSDK/wpa_supplicant/wpa_supplicant\op_classes.c **** }
 886              		.loc 1 535 1
 887 004a 5285     		mv	a0,s4
 888 004c 0561     		addi	sp,sp,32
 889              		.cfi_remember_state
 890              		.cfi_def_cfa_offset 0
 891 004e 17030000 		tail	__riscv_restore_12
 891      67000300 
 892              		.cfi_restore 27
 893              		.cfi_restore 26
 894              		.cfi_restore 25
 895              		.cfi_restore 24
 896              		.cfi_restore 23
 897              		.cfi_restore 22
 898              		.cfi_restore 21
 899              		.cfi_restore 20
 900              		.cfi_restore 19
 901              		.cfi_restore 18
 902              		.cfi_restore 9
 903              		.cfi_restore 8
 904              		.cfi_restore 1
 905              		.cfi_def_cfa_offset -64
 906              	.LVL84:
 907              	.L175:
 908              		.cfi_restore_state
 530:C:/Users/stapi/OneDrive/Desktop/GD32VW553/V1_MQTT_OK/GD32VW55X_Wifi_BLE_SDK/GD32VW55x_RELEASE_V1.0.2/MSDK/wpa_supplicant/wpa_supplicant\op_classes.c **** 		if (wpas_op_class_supported(wpa_s, NULL, &global_op_class[op]))
 909              		.loc 1 530 3 is_stmt 1
 910              	.LBB45:
 911              	.LBB42:
 256:C:/Users/stapi/OneDrive/Desktop/GD32VW553/V1_MQTT_OK/GD32VW55X_Wifi_BLE_SDK/GD32VW55x_RELEASE_V1.0.2/MSDK/wpa_supplicant/wpa_supplicant\op_classes.c **** 	size_t i;
 912              		.loc 1 256 2
 257:C:/Users/stapi/OneDrive/Desktop/GD32VW553/V1_MQTT_OK/GD32VW55X_Wifi_BLE_SDK/GD32VW55x_RELEASE_V1.0.2/MSDK/wpa_supplicant/wpa_supplicant\op_classes.c **** 	struct hostapd_hw_modes *mode;
 913              		.loc 1 257 2
 258:C:/Users/stapi/OneDrive/Desktop/GD32VW553/V1_MQTT_OK/GD32VW55X_Wifi_BLE_SDK/GD32VW55x_RELEASE_V1.0.2/MSDK/wpa_supplicant/wpa_supplicant\op_classes.c **** 	int found;
 914              		.loc 1 258 2
 259:C:/Users/stapi/OneDrive/Desktop/GD32VW553/V1_MQTT_OK/GD32VW55X_Wifi_BLE_SDK/GD32VW55x_RELEASE_V1.0.2/MSDK/wpa_supplicant/wpa_supplicant\op_classes.c **** 	int z;
 915              		.loc 1 259 2
 260:C:/Users/stapi/OneDrive/Desktop/GD32VW553/V1_MQTT_OK/GD32VW55X_Wifi_BLE_SDK/GD32VW55x_RELEASE_V1.0.2/MSDK/wpa_supplicant/wpa_supplicant\op_classes.c **** 	int freq2 = 0;
 916              		.loc 1 260 2
 261:C:/Users/stapi/OneDrive/Desktop/GD32VW553/V1_MQTT_OK/GD32VW55X_Wifi_BLE_SDK/GD32VW55x_RELEASE_V1.0.2/MSDK/wpa_supplicant/wpa_supplicant\op_classes.c **** 	int freq5 = 0;
 917              		.loc 1 261 2
 262:C:/Users/stapi/OneDrive/Desktop/GD32VW553/V1_MQTT_OK/GD32VW55X_Wifi_BLE_SDK/GD32VW55x_RELEASE_V1.0.2/MSDK/wpa_supplicant/wpa_supplicant\op_classes.c **** 
 918              		.loc 1 262 2
 264:C:/Users/stapi/OneDrive/Desktop/GD32VW553/V1_MQTT_OK/GD32VW55X_Wifi_BLE_SDK/GD32VW55x_RELEASE_V1.0.2/MSDK/wpa_supplicant/wpa_supplicant\op_classes.c **** 			is_6ghz_op_class(op_class->op_class));
 919              		.loc 1 264 2
 264:C:/Users/stapi/OneDrive/Desktop/GD32VW553/V1_MQTT_OK/GD32VW55X_Wifi_BLE_SDK/GD32VW55x_RELEASE_V1.0.2/MSDK/wpa_supplicant/wpa_supplicant\op_classes.c **** 			is_6ghz_op_class(op_class->op_class));
 920              		.loc 1 264 9 is_stmt 0
 921 0056 83D50A37 		lhu	a1,880(s5)
 922 005a 9040     		lw	a2,0(s1)
 923 005c 4E85     		mv	a0,s3
 924 005e 03A4CA36 		lw	s0,876(s5)
 925 0062 2EC6     		sw	a1,12(sp)
 926 0064 32C4     		sw	a2,8(sp)
 927 0066 97000000 		call	is_6ghz_op_class
 927      E7800000 
 928              	.LVL85:
 929 006e 2246     		lw	a2,8(sp)
 930 0070 B245     		lw	a1,12(sp)
 931 0072 AA86     		mv	a3,a0
 932 0074 2285     		mv	a0,s0
 933 0076 97000000 		call	get_mode
 933      E7800000 
 934              	.LVL86:
 935 007e 2A84     		mv	s0,a0
 936              	.LVL87:
 266:C:/Users/stapi/OneDrive/Desktop/GD32VW553/V1_MQTT_OK/GD32VW55X_Wifi_BLE_SDK/GD32VW55x_RELEASE_V1.0.2/MSDK/wpa_supplicant/wpa_supplicant\op_classes.c **** 		return 0;
 937              		.loc 1 266 2 is_stmt 1
 266:C:/Users/stapi/OneDrive/Desktop/GD32VW553/V1_MQTT_OK/GD32VW55X_Wifi_BLE_SDK/GD32VW55x_RELEASE_V1.0.2/MSDK/wpa_supplicant/wpa_supplicant\op_classes.c **** 		return 0;
 938              		.loc 1 266 5 is_stmt 0
 939 0080 21C1     		beq	a0,zero,.L155
 271:C:/Users/stapi/OneDrive/Desktop/GD32VW553/V1_MQTT_OK/GD32VW55X_Wifi_BLE_SDK/GD32VW55x_RELEASE_V1.0.2/MSDK/wpa_supplicant/wpa_supplicant\op_classes.c **** 		for (z = 0; ; z++) {
 940              		.loc 1 271 2 is_stmt 1
 941              	.LVL88:
 288:C:/Users/stapi/OneDrive/Desktop/GD32VW553/V1_MQTT_OK/GD32VW55X_Wifi_BLE_SDK/GD32VW55x_RELEASE_V1.0.2/MSDK/wpa_supplicant/wpa_supplicant\op_classes.c **** 		return 0;
 942              		.loc 1 288 2
 290:C:/Users/stapi/OneDrive/Desktop/GD32VW553/V1_MQTT_OK/GD32VW55X_Wifi_BLE_SDK/GD32VW55x_RELEASE_V1.0.2/MSDK/wpa_supplicant/wpa_supplicant\op_classes.c **** 		return 0;
 943              		.loc 1 290 2
 326:C:/Users/stapi/OneDrive/Desktop/GD32VW553/V1_MQTT_OK/GD32VW55X_Wifi_BLE_SDK/GD32VW55x_RELEASE_V1.0.2/MSDK/wpa_supplicant/wpa_supplicant\op_classes.c **** 		u8 channels[] = { 42, 58, 106, 122, 138, 155, 171 };
 944              		.loc 1 326 2
 326:C:/Users/stapi/OneDrive/Desktop/GD32VW553/V1_MQTT_OK/GD32VW55X_Wifi_BLE_SDK/GD32VW55x_RELEASE_V1.0.2/MSDK/wpa_supplicant/wpa_supplicant\op_classes.c **** 		u8 channels[] = { 42, 58, 106, 122, 138, 155, 171 };
 945              		.loc 1 326 5 is_stmt 0
 946 0082 93070008 		li	a5,128
 947 0086 639FF902 		bne	s3,a5,.L156
 948              	.LBB39:
 327:C:/Users/stapi/OneDrive/Desktop/GD32VW553/V1_MQTT_OK/GD32VW55X_Wifi_BLE_SDK/GD32VW55x_RELEASE_V1.0.2/MSDK/wpa_supplicant/wpa_supplicant\op_classes.c **** 
 949              		.loc 1 327 3 is_stmt 1
 327:C:/Users/stapi/OneDrive/Desktop/GD32VW553/V1_MQTT_OK/GD32VW55X_Wifi_BLE_SDK/GD32VW55x_RELEASE_V1.0.2/MSDK/wpa_supplicant/wpa_supplicant\op_classes.c **** 
 950              		.loc 1 327 6 is_stmt 0
 951 008a 1D46     		li	a2,7
 952 008c 93850D00 		addi	a1,s11,%lo(.LC0)
 953 0090 2808     		addi	a0,sp,24
 954 0092 97000000 		call	memcpy
 954      E7800000 
 955              	.LVL89:
 329:C:/Users/stapi/OneDrive/Desktop/GD32VW553/V1_MQTT_OK/GD32VW55X_Wifi_BLE_SDK/GD32VW55x_RELEASE_V1.0.2/MSDK/wpa_supplicant/wpa_supplicant\op_classes.c **** 			if (verify_channel(mode, op_class->op_class,
 956              		.loc 1 329 3 is_stmt 1
 329:C:/Users/stapi/OneDrive/Desktop/GD32VW553/V1_MQTT_OK/GD32VW55X_Wifi_BLE_SDK/GD32VW55x_RELEASE_V1.0.2/MSDK/wpa_supplicant/wpa_supplicant\op_classes.c **** 			if (verify_channel(mode, op_class->op_class,
 957              		.loc 1 329 15
 329:C:/Users/stapi/OneDrive/Desktop/GD32VW553/V1_MQTT_OK/GD32VW55X_Wifi_BLE_SDK/GD32VW55x_RELEASE_V1.0.2/MSDK/wpa_supplicant/wpa_supplicant\op_classes.c **** 			if (verify_channel(mode, op_class->op_class,
 958              		.loc 1 329 10 is_stmt 0
 959 009a 0149     		li	s2,0
 329:C:/Users/stapi/OneDrive/Desktop/GD32VW553/V1_MQTT_OK/GD32VW55X_Wifi_BLE_SDK/GD32VW55x_RELEASE_V1.0.2/MSDK/wpa_supplicant/wpa_supplicant\op_classes.c **** 			if (verify_channel(mode, op_class->op_class,
 960              		.loc 1 329 3
 961 009c 1D4C     		li	s8,7
 962              	.LVL90:
 963              	.L158:
 330:C:/Users/stapi/OneDrive/Desktop/GD32VW553/V1_MQTT_OK/GD32VW55X_Wifi_BLE_SDK/GD32VW55x_RELEASE_V1.0.2/MSDK/wpa_supplicant/wpa_supplicant\op_classes.c **** 					   channels[i], op_class->bw) !=
 964              		.loc 1 330 4 is_stmt 1
 330:C:/Users/stapi/OneDrive/Desktop/GD32VW553/V1_MQTT_OK/GD32VW55X_Wifi_BLE_SDK/GD32VW55x_RELEASE_V1.0.2/MSDK/wpa_supplicant/wpa_supplicant\op_classes.c **** 					   channels[i], op_class->bw) !=
 965              		.loc 1 330 8 is_stmt 0
 966 009e 3C08     		addi	a5,sp,24
 967 00a0 CA97     		add	a5,a5,s2
 968 00a2 83C68400 		lbu	a3,8(s1)
 969 00a6 03C60700 		lbu	a2,0(a5)
 970 00aa 93050008 		li	a1,128
 971 00ae 2285     		mv	a0,s0
 972 00b0 97000000 		call	verify_channel
 972      E7800000 
 973              	.LVL91:
 330:C:/Users/stapi/OneDrive/Desktop/GD32VW553/V1_MQTT_OK/GD32VW55X_Wifi_BLE_SDK/GD32VW55x_RELEASE_V1.0.2/MSDK/wpa_supplicant/wpa_supplicant\op_classes.c **** 					   channels[i], op_class->bw) !=
 974              		.loc 1 330 7
 975 00b8 21ED     		bne	a0,zero,.L176
 329:C:/Users/stapi/OneDrive/Desktop/GD32VW553/V1_MQTT_OK/GD32VW55X_Wifi_BLE_SDK/GD32VW55x_RELEASE_V1.0.2/MSDK/wpa_supplicant/wpa_supplicant\op_classes.c **** 			if (verify_channel(mode, op_class->op_class,
 976              		.loc 1 329 41 is_stmt 1
 329:C:/Users/stapi/OneDrive/Desktop/GD32VW553/V1_MQTT_OK/GD32VW55X_Wifi_BLE_SDK/GD32VW55x_RELEASE_V1.0.2/MSDK/wpa_supplicant/wpa_supplicant\op_classes.c **** 			if (verify_channel(mode, op_class->op_class,
 977              		.loc 1 329 42 is_stmt 0
 978 00ba 0509     		addi	s2,s2,1
 979              	.LVL92:
 329:C:/Users/stapi/OneDrive/Desktop/GD32VW553/V1_MQTT_OK/GD32VW55X_Wifi_BLE_SDK/GD32VW55x_RELEASE_V1.0.2/MSDK/wpa_supplicant/wpa_supplicant\op_classes.c **** 			if (verify_channel(mode, op_class->op_class,
 980              		.loc 1 329 15 is_stmt 1
 329:C:/Users/stapi/OneDrive/Desktop/GD32VW553/V1_MQTT_OK/GD32VW55X_Wifi_BLE_SDK/GD32VW55x_RELEASE_V1.0.2/MSDK/wpa_supplicant/wpa_supplicant\op_classes.c **** 			if (verify_channel(mode, op_class->op_class,
 981              		.loc 1 329 3 is_stmt 0
 982 00bc E31189FF 		bne	s2,s8,.L158
 983              	.LVL93:
 984              	.L155:
 985              	.LBE39:
 986              	.LBE42:
 987              	.LBE45:
 529:C:/Users/stapi/OneDrive/Desktop/GD32VW553/V1_MQTT_OK/GD32VW55X_Wifi_BLE_SDK/GD32VW55x_RELEASE_V1.0.2/MSDK/wpa_supplicant/wpa_supplicant\op_classes.c **** 		if (wpas_op_class_supported(wpa_s, NULL, &global_op_class[op]))
 988              		.loc 1 529 54 is_stmt 1 discriminator 2
 989 00c0 C104     		addi	s1,s1,16
 990 00c2 41B7     		j	.L154
 991              	.LVL94:
 992              	.L156:
 993              	.LBB46:
 994              	.LBB43:
 339:C:/Users/stapi/OneDrive/Desktop/GD32VW553/V1_MQTT_OK/GD32VW55X_Wifi_BLE_SDK/GD32VW55x_RELEASE_V1.0.2/MSDK/wpa_supplicant/wpa_supplicant\op_classes.c **** 		/* Check if either 160 MHz channels is allowed */
 995              		.loc 1 339 2
 339:C:/Users/stapi/OneDrive/Desktop/GD32VW553/V1_MQTT_OK/GD32VW55X_Wifi_BLE_SDK/GD32VW55x_RELEASE_V1.0.2/MSDK/wpa_supplicant/wpa_supplicant\op_classes.c **** 		/* Check if either 160 MHz channels is allowed */
 996              		.loc 1 339 5 is_stmt 0
 997 00c4 93071008 		li	a5,129
 998 00c8 639AF904 		bne	s3,a5,.L160
 341:C:/Users/stapi/OneDrive/Desktop/GD32VW553/V1_MQTT_OK/GD32VW55X_Wifi_BLE_SDK/GD32VW55x_RELEASE_V1.0.2/MSDK/wpa_supplicant/wpa_supplicant\op_classes.c **** 				      op_class->bw) != NOT_ALLOWED ||
 999              		.loc 1 341 3 is_stmt 1
 341:C:/Users/stapi/OneDrive/Desktop/GD32VW553/V1_MQTT_OK/GD32VW55X_Wifi_BLE_SDK/GD32VW55x_RELEASE_V1.0.2/MSDK/wpa_supplicant/wpa_supplicant\op_classes.c **** 				      op_class->bw) != NOT_ALLOWED ||
 1000              		.loc 1 341 10 is_stmt 0
 1001 00cc 83C68400 		lbu	a3,8(s1)
 1002 00d0 13062003 		li	a2,50
 1003 00d4 93051008 		li	a1,129
 1004 00d8 36C4     		sw	a3,8(sp)
 1005 00da 97000000 		call	verify_channel
 1005      E7800000 
 1006              	.LVL95:
 344:C:/Users/stapi/OneDrive/Desktop/GD32VW553/V1_MQTT_OK/GD32VW55X_Wifi_BLE_SDK/GD32VW55x_RELEASE_V1.0.2/MSDK/wpa_supplicant/wpa_supplicant\op_classes.c **** 			verify_channel(mode, op_class->op_class, 163,
 1007              		.loc 1 344 41
 1008 00e2 A246     		lw	a3,8(sp)
 1009 00e4 15E5     		bne	a0,zero,.L176
 343:C:/Users/stapi/OneDrive/Desktop/GD32VW553/V1_MQTT_OK/GD32VW55X_Wifi_BLE_SDK/GD32VW55x_RELEASE_V1.0.2/MSDK/wpa_supplicant/wpa_supplicant\op_classes.c **** 				       op_class->bw) != NOT_ALLOWED ||
 1010              		.loc 1 343 4
 1011 00e6 13062007 		li	a2,114
 1012 00ea 93051008 		li	a1,129
 1013 00ee 2285     		mv	a0,s0
 1014 00f0 97000000 		call	verify_channel
 1014      E7800000 
 1015              	.LVL96:
 342:C:/Users/stapi/OneDrive/Desktop/GD32VW553/V1_MQTT_OK/GD32VW55X_Wifi_BLE_SDK/GD32VW55x_RELEASE_V1.0.2/MSDK/wpa_supplicant/wpa_supplicant\op_classes.c **** 			verify_channel(mode, op_class->op_class, 114,
 1016              		.loc 1 342 40
 1017 00f8 A246     		lw	a3,8(sp)
 1018 00fa 19E9     		bne	a0,zero,.L176
 345:C:/Users/stapi/OneDrive/Desktop/GD32VW553/V1_MQTT_OK/GD32VW55X_Wifi_BLE_SDK/GD32VW55x_RELEASE_V1.0.2/MSDK/wpa_supplicant/wpa_supplicant\op_classes.c **** 				       op_class->bw) != NOT_ALLOWED;
 1019              		.loc 1 345 4
 1020 00fc 1306300A 		li	a2,163
 1021 0100 93051008 		li	a1,129
 1022 0104 2285     		mv	a0,s0
 1023 0106 97000000 		call	verify_channel
 1023      E7800000 
 1024              	.LVL97:
 344:C:/Users/stapi/OneDrive/Desktop/GD32VW553/V1_MQTT_OK/GD32VW55X_Wifi_BLE_SDK/GD32VW55x_RELEASE_V1.0.2/MSDK/wpa_supplicant/wpa_supplicant\op_classes.c **** 			verify_channel(mode, op_class->op_class, 163,
 1025              		.loc 1 344 41
 1026 010e 4DD9     		beq	a0,zero,.L155
 1027              	.L176:
 1028              	.LVL98:
 1029              	.LBE43:
 1030              	.LBE46:
 531:C:/Users/stapi/OneDrive/Desktop/GD32VW553/V1_MQTT_OK/GD32VW55X_Wifi_BLE_SDK/GD32VW55x_RELEASE_V1.0.2/MSDK/wpa_supplicant/wpa_supplicant\op_classes.c **** 	}
 1031              		.loc 1 531 4 is_stmt 1
 531:C:/Users/stapi/OneDrive/Desktop/GD32VW553/V1_MQTT_OK/GD32VW55X_Wifi_BLE_SDK/GD32VW55x_RELEASE_V1.0.2/MSDK/wpa_supplicant/wpa_supplicant\op_classes.c **** 	}
 1032              		.loc 1 531 19 is_stmt 0
 1033 0110 B3474B21 		sh2add	a5,s6,s4
 531:C:/Users/stapi/OneDrive/Desktop/GD32VW553/V1_MQTT_OK/GD32VW55X_Wifi_BLE_SDK/GD32VW55x_RELEASE_V1.0.2/MSDK/wpa_supplicant/wpa_supplicant\op_classes.c **** 	}
 1034              		.loc 1 531 15
 1035 0114 050B     		addi	s6,s6,1
 1036              	.LVL99:
 531:C:/Users/stapi/OneDrive/Desktop/GD32VW553/V1_MQTT_OK/GD32VW55X_Wifi_BLE_SDK/GD32VW55x_RELEASE_V1.0.2/MSDK/wpa_supplicant/wpa_supplicant\op_classes.c **** 	}
 1037              		.loc 1 531 40
 1038 0116 23A03701 		sw	s3,0(a5)
 1039 011a 5DB7     		j	.L155
 1040              	.LVL100:
 1041              	.L160:
 1042              	.LBB47:
 1043              	.LBB44:
 349:C:/Users/stapi/OneDrive/Desktop/GD32VW553/V1_MQTT_OK/GD32VW55X_Wifi_BLE_SDK/GD32VW55x_RELEASE_V1.0.2/MSDK/wpa_supplicant/wpa_supplicant\op_classes.c **** 		/* Need at least two non-contiguous 80 MHz segments */
 1044              		.loc 1 349 2 is_stmt 1
 349:C:/Users/stapi/OneDrive/Desktop/GD32VW553/V1_MQTT_OK/GD32VW55X_Wifi_BLE_SDK/GD32VW55x_RELEASE_V1.0.2/MSDK/wpa_supplicant/wpa_supplicant\op_classes.c **** 		/* Need at least two non-contiguous 80 MHz segments */
 1045              		.loc 1 349 5 is_stmt 0
 1046 011c 639C9913 		bne	s3,s9,.L162
 351:C:/Users/stapi/OneDrive/Desktop/GD32VW553/V1_MQTT_OK/GD32VW55X_Wifi_BLE_SDK/GD32VW55x_RELEASE_V1.0.2/MSDK/wpa_supplicant/wpa_supplicant\op_classes.c **** 
 1047              		.loc 1 351 3 is_stmt 1
 1048              	.LVL101:
 353:C:/Users/stapi/OneDrive/Desktop/GD32VW553/V1_MQTT_OK/GD32VW55X_Wifi_BLE_SDK/GD32VW55x_RELEASE_V1.0.2/MSDK/wpa_supplicant/wpa_supplicant\op_classes.c **** 				   op_class->bw) != NOT_ALLOWED ||
 1049              		.loc 1 353 3
 353:C:/Users/stapi/OneDrive/Desktop/GD32VW553/V1_MQTT_OK/GD32VW55X_Wifi_BLE_SDK/GD32VW55x_RELEASE_V1.0.2/MSDK/wpa_supplicant/wpa_supplicant\op_classes.c **** 				   op_class->bw) != NOT_ALLOWED ||
 1050              		.loc 1 353 7 is_stmt 0
 1051 0120 03CC8400 		lbu	s8,8(s1)
 1052 0124 1306A002 		li	a2,42
 1053 0128 93052008 		li	a1,130
 1054 012c E286     		mv	a3,s8
 1055 012e 97000000 		call	verify_channel
 1055      E7800000 
 1056              	.LVL102:
 357:C:/Users/stapi/OneDrive/Desktop/GD32VW553/V1_MQTT_OK/GD32VW55X_Wifi_BLE_SDK/GD32VW55x_RELEASE_V1.0.2/MSDK/wpa_supplicant/wpa_supplicant\op_classes.c **** 		if (verify_channel(mode, op_class->op_class, 106,
 1057              		.loc 1 357 9
 1058 0136 0549     		li	s2,1
 353:C:/Users/stapi/OneDrive/Desktop/GD32VW553/V1_MQTT_OK/GD32VW55X_Wifi_BLE_SDK/GD32VW55x_RELEASE_V1.0.2/MSDK/wpa_supplicant/wpa_supplicant\op_classes.c **** 				   op_class->bw) != NOT_ALLOWED ||
 1059              		.loc 1 353 6
 1060 0138 09ED     		bne	a0,zero,.L163
 355:C:/Users/stapi/OneDrive/Desktop/GD32VW553/V1_MQTT_OK/GD32VW55X_Wifi_BLE_SDK/GD32VW55x_RELEASE_V1.0.2/MSDK/wpa_supplicant/wpa_supplicant\op_classes.c **** 				   op_class->bw) != NOT_ALLOWED)
 1061              		.loc 1 355 7
 1062 013a E286     		mv	a3,s8
 1063 013c 1306A003 		li	a2,58
 1064 0140 93052008 		li	a1,130
 1065 0144 2285     		mv	a0,s0
 1066 0146 97000000 		call	verify_channel
 1066      E7800000 
 1067              	.LVL103:
 354:C:/Users/stapi/OneDrive/Desktop/GD32VW553/V1_MQTT_OK/GD32VW55X_Wifi_BLE_SDK/GD32VW55x_RELEASE_V1.0.2/MSDK/wpa_supplicant/wpa_supplicant\op_classes.c **** 		    verify_channel(mode, op_class->op_class, 58,
 1068              		.loc 1 354 37
 1069 014e 3339A000 		snez	s2,a0
 1070              	.L163:
 1071              	.LVL104:
 358:C:/Users/stapi/OneDrive/Desktop/GD32VW553/V1_MQTT_OK/GD32VW55X_Wifi_BLE_SDK/GD32VW55x_RELEASE_V1.0.2/MSDK/wpa_supplicant/wpa_supplicant\op_classes.c **** 				   op_class->bw) != NOT_ALLOWED ||
 1072              		.loc 1 358 3 is_stmt 1
 358:C:/Users/stapi/OneDrive/Desktop/GD32VW553/V1_MQTT_OK/GD32VW55X_Wifi_BLE_SDK/GD32VW55x_RELEASE_V1.0.2/MSDK/wpa_supplicant/wpa_supplicant\op_classes.c **** 				   op_class->bw) != NOT_ALLOWED ||
 1073              		.loc 1 358 7 is_stmt 0
 1074 0152 E286     		mv	a3,s8
 1075 0154 1306A006 		li	a2,106
 1076 0158 93052008 		li	a1,130
 1077 015c 2285     		mv	a0,s0
 1078 015e 97000000 		call	verify_channel
 1078      E7800000 
 1079              	.LVL105:
 358:C:/Users/stapi/OneDrive/Desktop/GD32VW553/V1_MQTT_OK/GD32VW55X_Wifi_BLE_SDK/GD32VW55x_RELEASE_V1.0.2/MSDK/wpa_supplicant/wpa_supplicant\op_classes.c **** 				   op_class->bw) != NOT_ALLOWED ||
 1080              		.loc 1 358 6
 1081 0166 51C9     		beq	a0,zero,.L164
 1082              	.L166:
 368:C:/Users/stapi/OneDrive/Desktop/GD32VW553/V1_MQTT_OK/GD32VW55X_Wifi_BLE_SDK/GD32VW55x_RELEASE_V1.0.2/MSDK/wpa_supplicant/wpa_supplicant\op_classes.c **** 		if (verify_channel(mode, op_class->op_class, 106,
 1083              		.loc 1 368 4 is_stmt 1
 368:C:/Users/stapi/OneDrive/Desktop/GD32VW553/V1_MQTT_OK/GD32VW55X_Wifi_BLE_SDK/GD32VW55x_RELEASE_V1.0.2/MSDK/wpa_supplicant/wpa_supplicant\op_classes.c **** 		if (verify_channel(mode, op_class->op_class, 106,
 1084              		.loc 1 368 9 is_stmt 0
 1085 0168 0509     		addi	s2,s2,1
 1086              	.LVL106:
 1087              	.L165:
 369:C:/Users/stapi/OneDrive/Desktop/GD32VW553/V1_MQTT_OK/GD32VW55X_Wifi_BLE_SDK/GD32VW55x_RELEASE_V1.0.2/MSDK/wpa_supplicant/wpa_supplicant\op_classes.c **** 				   op_class->bw) != NOT_ALLOWED &&
 1088              		.loc 1 369 3 is_stmt 1
 369:C:/Users/stapi/OneDrive/Desktop/GD32VW553/V1_MQTT_OK/GD32VW55X_Wifi_BLE_SDK/GD32VW55x_RELEASE_V1.0.2/MSDK/wpa_supplicant/wpa_supplicant\op_classes.c **** 				   op_class->bw) != NOT_ALLOWED &&
 1089              		.loc 1 369 7 is_stmt 0
 1090 016a E286     		mv	a3,s8
 1091 016c 1306A006 		li	a2,106
 1092 0170 93052008 		li	a1,130
 1093 0174 2285     		mv	a0,s0
 1094 0176 97000000 		call	verify_channel
 1094      E7800000 
 1095              	.LVL107:
 369:C:/Users/stapi/OneDrive/Desktop/GD32VW553/V1_MQTT_OK/GD32VW55X_Wifi_BLE_SDK/GD32VW55x_RELEASE_V1.0.2/MSDK/wpa_supplicant/wpa_supplicant\op_classes.c **** 				   op_class->bw) != NOT_ALLOWED &&
 1096              		.loc 1 369 6
 1097 017e 09CD     		beq	a0,zero,.L167
 371:C:/Users/stapi/OneDrive/Desktop/GD32VW553/V1_MQTT_OK/GD32VW55X_Wifi_BLE_SDK/GD32VW55x_RELEASE_V1.0.2/MSDK/wpa_supplicant/wpa_supplicant\op_classes.c **** 				   op_class->bw) != NOT_ALLOWED)
 1098              		.loc 1 371 7
 1099 0180 E286     		mv	a3,s8
 1100 0182 1306A008 		li	a2,138
 1101 0186 93052008 		li	a1,130
 1102 018a 2285     		mv	a0,s0
 1103 018c 97000000 		call	verify_channel
 1103      E7800000 
 1104              	.LVL108:
 370:C:/Users/stapi/OneDrive/Desktop/GD32VW553/V1_MQTT_OK/GD32VW55X_Wifi_BLE_SDK/GD32VW55x_RELEASE_V1.0.2/MSDK/wpa_supplicant/wpa_supplicant\op_classes.c **** 		    verify_channel(mode, op_class->op_class, 138,
 1105              		.loc 1 370 37
 1106 0194 11C1     		beq	a0,zero,.L167
 373:C:/Users/stapi/OneDrive/Desktop/GD32VW553/V1_MQTT_OK/GD32VW55X_Wifi_BLE_SDK/GD32VW55x_RELEASE_V1.0.2/MSDK/wpa_supplicant/wpa_supplicant\op_classes.c **** 		if (verify_channel(mode, op_class->op_class, 122,
 1107              		.loc 1 373 4 is_stmt 1
 373:C:/Users/stapi/OneDrive/Desktop/GD32VW553/V1_MQTT_OK/GD32VW55X_Wifi_BLE_SDK/GD32VW55x_RELEASE_V1.0.2/MSDK/wpa_supplicant/wpa_supplicant\op_classes.c **** 		if (verify_channel(mode, op_class->op_class, 122,
 1108              		.loc 1 373 9 is_stmt 0
 1109 0196 0509     		addi	s2,s2,1
 1110              	.LVL109:
 1111              	.L167:
 374:C:/Users/stapi/OneDrive/Desktop/GD32VW553/V1_MQTT_OK/GD32VW55X_Wifi_BLE_SDK/GD32VW55x_RELEASE_V1.0.2/MSDK/wpa_supplicant/wpa_supplicant\op_classes.c **** 				   op_class->bw) != NOT_ALLOWED &&
 1112              		.loc 1 374 3 is_stmt 1
 374:C:/Users/stapi/OneDrive/Desktop/GD32VW553/V1_MQTT_OK/GD32VW55X_Wifi_BLE_SDK/GD32VW55x_RELEASE_V1.0.2/MSDK/wpa_supplicant/wpa_supplicant\op_classes.c **** 				   op_class->bw) != NOT_ALLOWED &&
 1113              		.loc 1 374 7 is_stmt 0
 1114 0198 E286     		mv	a3,s8
 1115 019a 1306A007 		li	a2,122
 1116 019e 93052008 		li	a1,130
 1117 01a2 2285     		mv	a0,s0
 1118 01a4 97000000 		call	verify_channel
 1118      E7800000 
 1119              	.LVL110:
 374:C:/Users/stapi/OneDrive/Desktop/GD32VW553/V1_MQTT_OK/GD32VW55X_Wifi_BLE_SDK/GD32VW55x_RELEASE_V1.0.2/MSDK/wpa_supplicant/wpa_supplicant\op_classes.c **** 				   op_class->bw) != NOT_ALLOWED &&
 1120              		.loc 1 374 6
 1121 01ac 09CD     		beq	a0,zero,.L168
 376:C:/Users/stapi/OneDrive/Desktop/GD32VW553/V1_MQTT_OK/GD32VW55X_Wifi_BLE_SDK/GD32VW55x_RELEASE_V1.0.2/MSDK/wpa_supplicant/wpa_supplicant\op_classes.c **** 				   op_class->bw) != NOT_ALLOWED)
 1122              		.loc 1 376 7
 1123 01ae E286     		mv	a3,s8
 1124 01b0 1306B009 		li	a2,155
 1125 01b4 93052008 		li	a1,130
 1126 01b8 2285     		mv	a0,s0
 1127 01ba 97000000 		call	verify_channel
 1127      E7800000 
 1128              	.LVL111:
 375:C:/Users/stapi/OneDrive/Desktop/GD32VW553/V1_MQTT_OK/GD32VW55X_Wifi_BLE_SDK/GD32VW55x_RELEASE_V1.0.2/MSDK/wpa_supplicant/wpa_supplicant\op_classes.c **** 		    verify_channel(mode, op_class->op_class, 155,
 1129              		.loc 1 375 37
 1130 01c2 11C1     		beq	a0,zero,.L168
 378:C:/Users/stapi/OneDrive/Desktop/GD32VW553/V1_MQTT_OK/GD32VW55X_Wifi_BLE_SDK/GD32VW55x_RELEASE_V1.0.2/MSDK/wpa_supplicant/wpa_supplicant\op_classes.c **** 		if (verify_channel(mode, op_class->op_class, 138,
 1131              		.loc 1 378 4 is_stmt 1
 378:C:/Users/stapi/OneDrive/Desktop/GD32VW553/V1_MQTT_OK/GD32VW55X_Wifi_BLE_SDK/GD32VW55x_RELEASE_V1.0.2/MSDK/wpa_supplicant/wpa_supplicant\op_classes.c **** 		if (verify_channel(mode, op_class->op_class, 138,
 1132              		.loc 1 378 9 is_stmt 0
 1133 01c4 0509     		addi	s2,s2,1
 1134              	.LVL112:
 1135              	.L168:
 379:C:/Users/stapi/OneDrive/Desktop/GD32VW553/V1_MQTT_OK/GD32VW55X_Wifi_BLE_SDK/GD32VW55x_RELEASE_V1.0.2/MSDK/wpa_supplicant/wpa_supplicant\op_classes.c **** 				   op_class->bw) != NOT_ALLOWED &&
 1136              		.loc 1 379 3 is_stmt 1
 379:C:/Users/stapi/OneDrive/Desktop/GD32VW553/V1_MQTT_OK/GD32VW55X_Wifi_BLE_SDK/GD32VW55x_RELEASE_V1.0.2/MSDK/wpa_supplicant/wpa_supplicant\op_classes.c **** 				   op_class->bw) != NOT_ALLOWED &&
 1137              		.loc 1 379 7 is_stmt 0
 1138 01c6 E286     		mv	a3,s8
 1139 01c8 1306A008 		li	a2,138
 1140 01cc 93052008 		li	a1,130
 1141 01d0 2285     		mv	a0,s0
 1142 01d2 97000000 		call	verify_channel
 1142      E7800000 
 1143              	.LVL113:
 379:C:/Users/stapi/OneDrive/Desktop/GD32VW553/V1_MQTT_OK/GD32VW55X_Wifi_BLE_SDK/GD32VW55x_RELEASE_V1.0.2/MSDK/wpa_supplicant/wpa_supplicant\op_classes.c **** 				   op_class->bw) != NOT_ALLOWED &&
 1144              		.loc 1 379 6
 1145 01da 09CD     		beq	a0,zero,.L169
 381:C:/Users/stapi/OneDrive/Desktop/GD32VW553/V1_MQTT_OK/GD32VW55X_Wifi_BLE_SDK/GD32VW55x_RELEASE_V1.0.2/MSDK/wpa_supplicant/wpa_supplicant\op_classes.c **** 				   op_class->bw) != NOT_ALLOWED)
 1146              		.loc 1 381 7
 1147 01dc E286     		mv	a3,s8
 1148 01de 1306B00A 		li	a2,171
 1149 01e2 93052008 		li	a1,130
 1150 01e6 2285     		mv	a0,s0
 1151 01e8 97000000 		call	verify_channel
 1151      E7800000 
 1152              	.LVL114:
 380:C:/Users/stapi/OneDrive/Desktop/GD32VW553/V1_MQTT_OK/GD32VW55X_Wifi_BLE_SDK/GD32VW55x_RELEASE_V1.0.2/MSDK/wpa_supplicant/wpa_supplicant\op_classes.c **** 		    verify_channel(mode, op_class->op_class, 171,
 1153              		.loc 1 380 37
 1154 01f0 11C1     		beq	a0,zero,.L169
 383:C:/Users/stapi/OneDrive/Desktop/GD32VW553/V1_MQTT_OK/GD32VW55X_Wifi_BLE_SDK/GD32VW55x_RELEASE_V1.0.2/MSDK/wpa_supplicant/wpa_supplicant\op_classes.c **** 
 1155              		.loc 1 383 4 is_stmt 1
 383:C:/Users/stapi/OneDrive/Desktop/GD32VW553/V1_MQTT_OK/GD32VW55X_Wifi_BLE_SDK/GD32VW55x_RELEASE_V1.0.2/MSDK/wpa_supplicant/wpa_supplicant\op_classes.c **** 
 1156              		.loc 1 383 9 is_stmt 0
 1157 01f2 0509     		addi	s2,s2,1
 1158              	.LVL115:
 1159              	.L169:
 385:C:/Users/stapi/OneDrive/Desktop/GD32VW553/V1_MQTT_OK/GD32VW55X_Wifi_BLE_SDK/GD32VW55x_RELEASE_V1.0.2/MSDK/wpa_supplicant/wpa_supplicant\op_classes.c **** 			return 1;
 1160              		.loc 1 385 3 is_stmt 1
 385:C:/Users/stapi/OneDrive/Desktop/GD32VW553/V1_MQTT_OK/GD32VW55X_Wifi_BLE_SDK/GD32VW55x_RELEASE_V1.0.2/MSDK/wpa_supplicant/wpa_supplicant\op_classes.c **** 			return 1;
 1161              		.loc 1 385 6 is_stmt 0
 1162 01f4 E3CE2BF1 		bgt	s2,s7,.L176
 1163 01f8 E1B5     		j	.L155
 1164              	.L164:
 360:C:/Users/stapi/OneDrive/Desktop/GD32VW553/V1_MQTT_OK/GD32VW55X_Wifi_BLE_SDK/GD32VW55x_RELEASE_V1.0.2/MSDK/wpa_supplicant/wpa_supplicant\op_classes.c **** 				   op_class->bw) != NOT_ALLOWED ||
 1165              		.loc 1 360 7
 1166 01fa E286     		mv	a3,s8
 1167 01fc 1306A007 		li	a2,122
 1168 0200 93052008 		li	a1,130
 1169 0204 2285     		mv	a0,s0
 1170 0206 97000000 		call	verify_channel
 1170      E7800000 
 1171              	.LVL116:
 359:C:/Users/stapi/OneDrive/Desktop/GD32VW553/V1_MQTT_OK/GD32VW55X_Wifi_BLE_SDK/GD32VW55x_RELEASE_V1.0.2/MSDK/wpa_supplicant/wpa_supplicant\op_classes.c **** 		    verify_channel(mode, op_class->op_class, 122,
 1172              		.loc 1 359 37
 1173 020e 29FD     		bne	a0,zero,.L166
 362:C:/Users/stapi/OneDrive/Desktop/GD32VW553/V1_MQTT_OK/GD32VW55X_Wifi_BLE_SDK/GD32VW55x_RELEASE_V1.0.2/MSDK/wpa_supplicant/wpa_supplicant\op_classes.c **** 				   op_class->bw) != NOT_ALLOWED ||
 1174              		.loc 1 362 7
 1175 0210 E286     		mv	a3,s8
 1176 0212 1306A008 		li	a2,138
 1177 0216 93052008 		li	a1,130
 1178 021a 2285     		mv	a0,s0
 1179 021c 97000000 		call	verify_channel
 1179      E7800000 
 1180              	.LVL117:
 361:C:/Users/stapi/OneDrive/Desktop/GD32VW553/V1_MQTT_OK/GD32VW55X_Wifi_BLE_SDK/GD32VW55x_RELEASE_V1.0.2/MSDK/wpa_supplicant/wpa_supplicant\op_classes.c **** 		    verify_channel(mode, op_class->op_class, 138,
 1181              		.loc 1 361 37
 1182 0224 31F1     		bne	a0,zero,.L166
 364:C:/Users/stapi/OneDrive/Desktop/GD32VW553/V1_MQTT_OK/GD32VW55X_Wifi_BLE_SDK/GD32VW55x_RELEASE_V1.0.2/MSDK/wpa_supplicant/wpa_supplicant\op_classes.c **** 				   op_class->bw) != NOT_ALLOWED ||
 1183              		.loc 1 364 7
 1184 0226 E286     		mv	a3,s8
 1185 0228 1306B009 		li	a2,155
 1186 022c 93052008 		li	a1,130
 1187 0230 2285     		mv	a0,s0
 1188 0232 97000000 		call	verify_channel
 1188      E7800000 
 1189              	.LVL118:
 363:C:/Users/stapi/OneDrive/Desktop/GD32VW553/V1_MQTT_OK/GD32VW55X_Wifi_BLE_SDK/GD32VW55x_RELEASE_V1.0.2/MSDK/wpa_supplicant/wpa_supplicant\op_classes.c **** 		    verify_channel(mode, op_class->op_class, 155,
 1190              		.loc 1 363 37
 1191 023a 1DF5     		bne	a0,zero,.L166
 366:C:/Users/stapi/OneDrive/Desktop/GD32VW553/V1_MQTT_OK/GD32VW55X_Wifi_BLE_SDK/GD32VW55x_RELEASE_V1.0.2/MSDK/wpa_supplicant/wpa_supplicant\op_classes.c **** 				   op_class->bw) != NOT_ALLOWED)
 1192              		.loc 1 366 7
 1193 023c E286     		mv	a3,s8
 1194 023e 1306B00A 		li	a2,171
 1195 0242 93052008 		li	a1,130
 1196 0246 2285     		mv	a0,s0
 1197 0248 97000000 		call	verify_channel
 1197      E7800000 
 1198              	.LVL119:
 365:C:/Users/stapi/OneDrive/Desktop/GD32VW553/V1_MQTT_OK/GD32VW55X_Wifi_BLE_SDK/GD32VW55x_RELEASE_V1.0.2/MSDK/wpa_supplicant/wpa_supplicant\op_classes.c **** 		    verify_channel(mode, op_class->op_class, 171,
 1199              		.loc 1 365 37
 1200 0250 01FD     		bne	a0,zero,.L166
 1201 0252 21BF     		j	.L165
 1202              	.LVL120:
 1203              	.L162:
 391:C:/Users/stapi/OneDrive/Desktop/GD32VW553/V1_MQTT_OK/GD32VW55X_Wifi_BLE_SDK/GD32VW55x_RELEASE_V1.0.2/MSDK/wpa_supplicant/wpa_supplicant\op_classes.c **** 		/* Need at least two 80 MHz segments which do not fall under the
 1204              		.loc 1 391 2 is_stmt 1
 1205              	.LBB40:
 398:C:/Users/stapi/OneDrive/Desktop/GD32VW553/V1_MQTT_OK/GD32VW55X_Wifi_BLE_SDK/GD32VW55x_RELEASE_V1.0.2/MSDK/wpa_supplicant/wpa_supplicant\op_classes.c **** 		     chan += op_class->inc) {
 1206              		.loc 1 398 13 is_stmt 0
 1207 0254 03C95400 		lbu	s2,5(s1)
 1208              	.LBE40:
 391:C:/Users/stapi/OneDrive/Desktop/GD32VW553/V1_MQTT_OK/GD32VW55X_Wifi_BLE_SDK/GD32VW55x_RELEASE_V1.0.2/MSDK/wpa_supplicant/wpa_supplicant\op_classes.c **** 		/* Need at least two 80 MHz segments which do not fall under the
 1209              		.loc 1 391 5
 1210 0258 6398A907 		bne	s3,s10,.L171
 1211              	.LBB41:
 396:C:/Users/stapi/OneDrive/Desktop/GD32VW553/V1_MQTT_OK/GD32VW55X_Wifi_BLE_SDK/GD32VW55x_RELEASE_V1.0.2/MSDK/wpa_supplicant/wpa_supplicant\op_classes.c **** 
 1212              		.loc 1 396 7
 1213 025c 8147     		li	a5,0
 395:C:/Users/stapi/OneDrive/Desktop/GD32VW553/V1_MQTT_OK/GD32VW55X_Wifi_BLE_SDK/GD32VW55x_RELEASE_V1.0.2/MSDK/wpa_supplicant/wpa_supplicant\op_classes.c **** 		int curr_seg = 0;
 1214              		.loc 1 395 7
 1215 025e 0147     		li	a4,0
 1216 0260 35A8     		j	.L170
 1217              	.LVL121:
 1218              	.L173:
 401:C:/Users/stapi/OneDrive/Desktop/GD32VW553/V1_MQTT_OK/GD32VW55X_Wifi_BLE_SDK/GD32VW55x_RELEASE_V1.0.2/MSDK/wpa_supplicant/wpa_supplicant\op_classes.c **** 					   op_class->bw) != NOT_ALLOWED) {
 1219              		.loc 1 401 8
 1220 0262 83C68400 		lbu	a3,8(s1)
 400:C:/Users/stapi/OneDrive/Desktop/GD32VW553/V1_MQTT_OK/GD32VW55X_Wifi_BLE_SDK/GD32VW55x_RELEASE_V1.0.2/MSDK/wpa_supplicant/wpa_supplicant\op_classes.c **** 			if (verify_channel(mode, op_class->op_class, chan,
 1221              		.loc 1 400 12
 1222 0266 8507     		addi	a5,a5,1
 1223              	.LVL122:
 401:C:/Users/stapi/OneDrive/Desktop/GD32VW553/V1_MQTT_OK/GD32VW55X_Wifi_BLE_SDK/GD32VW55x_RELEASE_V1.0.2/MSDK/wpa_supplicant/wpa_supplicant\op_classes.c **** 					   op_class->bw) != NOT_ALLOWED) {
 1224              		.loc 1 401 8
 1225 0268 1376F90F 		andi	a2,s2,0xff
 1226 026c 93057008 		li	a1,135
 1227 0270 2285     		mv	a0,s0
 1228 0272 3AC6     		sw	a4,12(sp)
 400:C:/Users/stapi/OneDrive/Desktop/GD32VW553/V1_MQTT_OK/GD32VW55X_Wifi_BLE_SDK/GD32VW55x_RELEASE_V1.0.2/MSDK/wpa_supplicant/wpa_supplicant\op_classes.c **** 			if (verify_channel(mode, op_class->op_class, chan,
 1229              		.loc 1 400 4 is_stmt 1
 1230              	.LVL123:
 401:C:/Users/stapi/OneDrive/Desktop/GD32VW553/V1_MQTT_OK/GD32VW55X_Wifi_BLE_SDK/GD32VW55x_RELEASE_V1.0.2/MSDK/wpa_supplicant/wpa_supplicant\op_classes.c **** 					   op_class->bw) != NOT_ALLOWED) {
 1231              		.loc 1 401 4
 400:C:/Users/stapi/OneDrive/Desktop/GD32VW553/V1_MQTT_OK/GD32VW55X_Wifi_BLE_SDK/GD32VW55x_RELEASE_V1.0.2/MSDK/wpa_supplicant/wpa_supplicant\op_classes.c **** 			if (verify_channel(mode, op_class->op_class, chan,
 1232              		.loc 1 400 12 is_stmt 0
 1233 0274 3EC4     		sw	a5,8(sp)
 401:C:/Users/stapi/OneDrive/Desktop/GD32VW553/V1_MQTT_OK/GD32VW55X_Wifi_BLE_SDK/GD32VW55x_RELEASE_V1.0.2/MSDK/wpa_supplicant/wpa_supplicant\op_classes.c **** 					   op_class->bw) != NOT_ALLOWED) {
 1234              		.loc 1 401 8
 1235 0276 97000000 		call	verify_channel
 1235      E7800000 
 1236              	.LVL124:
 401:C:/Users/stapi/OneDrive/Desktop/GD32VW553/V1_MQTT_OK/GD32VW55X_Wifi_BLE_SDK/GD32VW55x_RELEASE_V1.0.2/MSDK/wpa_supplicant/wpa_supplicant\op_classes.c **** 					   op_class->bw) != NOT_ALLOWED) {
 1237              		.loc 1 401 7
 1238 027e A247     		lw	a5,8(sp)
 1239 0280 3247     		lw	a4,12(sp)
 1240 0282 11C9     		beq	a0,zero,.L172
 403:C:/Users/stapi/OneDrive/Desktop/GD32VW553/V1_MQTT_OK/GD32VW55X_Wifi_BLE_SDK/GD32VW55x_RELEASE_V1.0.2/MSDK/wpa_supplicant/wpa_supplicant\op_classes.c **** 					first_seg = curr_seg;
 1241              		.loc 1 403 5 is_stmt 1
 403:C:/Users/stapi/OneDrive/Desktop/GD32VW553/V1_MQTT_OK/GD32VW55X_Wifi_BLE_SDK/GD32VW55x_RELEASE_V1.0.2/MSDK/wpa_supplicant/wpa_supplicant\op_classes.c **** 					first_seg = curr_seg;
 1242              		.loc 1 403 8 is_stmt 0
 1243 0284 0DC3     		beq	a4,zero,.L179
 411:C:/Users/stapi/OneDrive/Desktop/GD32VW553/V1_MQTT_OK/GD32VW55X_Wifi_BLE_SDK/GD32VW55x_RELEASE_V1.0.2/MSDK/wpa_supplicant/wpa_supplicant\op_classes.c **** 					return 1;
 1244              		.loc 1 411 5 is_stmt 1
 411:C:/Users/stapi/OneDrive/Desktop/GD32VW553/V1_MQTT_OK/GD32VW55X_Wifi_BLE_SDK/GD32VW55x_RELEASE_V1.0.2/MSDK/wpa_supplicant/wpa_supplicant\op_classes.c **** 					return 1;
 1245              		.loc 1 411 19 is_stmt 0
 1246 0286 B386E740 		sub	a3,a5,a4
 411:C:/Users/stapi/OneDrive/Desktop/GD32VW553/V1_MQTT_OK/GD32VW55X_Wifi_BLE_SDK/GD32VW55x_RELEASE_V1.0.2/MSDK/wpa_supplicant/wpa_supplicant\op_classes.c **** 					return 1;
 1247              		.loc 1 411 8
 1248 028a E3C3DBE8 		bgt	a3,s7,.L176
 418:C:/Users/stapi/OneDrive/Desktop/GD32VW553/V1_MQTT_OK/GD32VW55X_Wifi_BLE_SDK/GD32VW55x_RELEASE_V1.0.2/MSDK/wpa_supplicant/wpa_supplicant\op_classes.c **** 					return 1;
 1249              		.loc 1 418 5 is_stmt 1
 418:C:/Users/stapi/OneDrive/Desktop/GD32VW553/V1_MQTT_OK/GD32VW55X_Wifi_BLE_SDK/GD32VW55x_RELEASE_V1.0.2/MSDK/wpa_supplicant/wpa_supplicant\op_classes.c **** 					return 1;
 1250              		.loc 1 418 25 is_stmt 0
 1251 028e 93761700 		andi	a3,a4,1
 418:C:/Users/stapi/OneDrive/Desktop/GD32VW553/V1_MQTT_OK/GD32VW55X_Wifi_BLE_SDK/GD32VW55x_RELEASE_V1.0.2/MSDK/wpa_supplicant/wpa_supplicant\op_classes.c **** 					return 1;
 1252              		.loc 1 418 8
 1253 0292 E38F06E6 		beq	a3,zero,.L176
 1254              	.L172:
 1255              	.LVL125:
 399:C:/Users/stapi/OneDrive/Desktop/GD32VW553/V1_MQTT_OK/GD32VW55X_Wifi_BLE_SDK/GD32VW55x_RELEASE_V1.0.2/MSDK/wpa_supplicant/wpa_supplicant\op_classes.c **** 			curr_seg++;
 1256              		.loc 1 399 8 is_stmt 1
 399:C:/Users/stapi/OneDrive/Desktop/GD32VW553/V1_MQTT_OK/GD32VW55X_Wifi_BLE_SDK/GD32VW55x_RELEASE_V1.0.2/MSDK/wpa_supplicant/wpa_supplicant\op_classes.c **** 			curr_seg++;
 1257              		.loc 1 399 24 is_stmt 0
 1258 0296 83C67400 		lbu	a3,7(s1)
 399:C:/Users/stapi/OneDrive/Desktop/GD32VW553/V1_MQTT_OK/GD32VW55X_Wifi_BLE_SDK/GD32VW55x_RELEASE_V1.0.2/MSDK/wpa_supplicant/wpa_supplicant\op_classes.c **** 			curr_seg++;
 1259              		.loc 1 399 13
 1260 029a 3699     		add	s2,s2,a3
 1261              	.LVL126:
 1262              	.L170:
 398:C:/Users/stapi/OneDrive/Desktop/GD32VW553/V1_MQTT_OK/GD32VW55X_Wifi_BLE_SDK/GD32VW55x_RELEASE_V1.0.2/MSDK/wpa_supplicant/wpa_supplicant\op_classes.c **** 		     chan += op_class->inc) {
 1263              		.loc 1 398 35 is_stmt 1
 398:C:/Users/stapi/OneDrive/Desktop/GD32VW553/V1_MQTT_OK/GD32VW55X_Wifi_BLE_SDK/GD32VW55x_RELEASE_V1.0.2/MSDK/wpa_supplicant/wpa_supplicant\op_classes.c **** 		     chan += op_class->inc) {
 1264              		.loc 1 398 51 is_stmt 0
 1265 029c 83C66400 		lbu	a3,6(s1)
 398:C:/Users/stapi/OneDrive/Desktop/GD32VW553/V1_MQTT_OK/GD32VW55X_Wifi_BLE_SDK/GD32VW55x_RELEASE_V1.0.2/MSDK/wpa_supplicant/wpa_supplicant\op_classes.c **** 		     chan += op_class->inc) {
 1266              		.loc 1 398 3
 1267 02a0 E3D126FD 		ble	s2,a3,.L173
 1268 02a4 31BD     		j	.L155
 1269              	.LVL127:
 1270              	.L179:
 404:C:/Users/stapi/OneDrive/Desktop/GD32VW553/V1_MQTT_OK/GD32VW55X_Wifi_BLE_SDK/GD32VW55x_RELEASE_V1.0.2/MSDK/wpa_supplicant/wpa_supplicant\op_classes.c **** 					continue;
 1271              		.loc 1 404 16
 1272 02a6 3E87     		mv	a4,a5
 1273 02a8 FDB7     		j	.L172
 1274              	.LVL128:
 1275              	.L174:
 1276              	.LBE41:
 429:C:/Users/stapi/OneDrive/Desktop/GD32VW553/V1_MQTT_OK/GD32VW55X_Wifi_BLE_SDK/GD32VW55x_RELEASE_V1.0.2/MSDK/wpa_supplicant/wpa_supplicant\op_classes.c **** 				   op_class->bw) != NOT_ALLOWED) {
 1277              		.loc 1 429 3 is_stmt 1
 429:C:/Users/stapi/OneDrive/Desktop/GD32VW553/V1_MQTT_OK/GD32VW55X_Wifi_BLE_SDK/GD32VW55x_RELEASE_V1.0.2/MSDK/wpa_supplicant/wpa_supplicant\op_classes.c **** 				   op_class->bw) != NOT_ALLOWED) {
 1278              		.loc 1 429 7 is_stmt 0
 1279 02aa 83C68400 		lbu	a3,8(s1)
 1280 02ae 1376F90F 		andi	a2,s2,0xff
 1281 02b2 CE85     		mv	a1,s3
 1282 02b4 2285     		mv	a0,s0
 1283 02b6 97000000 		call	verify_channel
 1283      E7800000 
 1284              	.LVL129:
 429:C:/Users/stapi/OneDrive/Desktop/GD32VW553/V1_MQTT_OK/GD32VW55X_Wifi_BLE_SDK/GD32VW55x_RELEASE_V1.0.2/MSDK/wpa_supplicant/wpa_supplicant\op_classes.c **** 				   op_class->bw) != NOT_ALLOWED) {
 1285              		.loc 1 429 6
 1286 02be E31905E4 		bne	a0,zero,.L176
 428:C:/Users/stapi/OneDrive/Desktop/GD32VW553/V1_MQTT_OK/GD32VW55X_Wifi_BLE_SDK/GD32VW55x_RELEASE_V1.0.2/MSDK/wpa_supplicant/wpa_supplicant\op_classes.c **** 		if (verify_channel(mode, op_class->op_class, chan,
 1287              		.loc 1 428 7 is_stmt 1
 428:C:/Users/stapi/OneDrive/Desktop/GD32VW553/V1_MQTT_OK/GD32VW55X_Wifi_BLE_SDK/GD32VW55x_RELEASE_V1.0.2/MSDK/wpa_supplicant/wpa_supplicant\op_classes.c **** 		if (verify_channel(mode, op_class->op_class, chan,
 1288              		.loc 1 428 23 is_stmt 0
 1289 02c2 83C77400 		lbu	a5,7(s1)
 428:C:/Users/stapi/OneDrive/Desktop/GD32VW553/V1_MQTT_OK/GD32VW55X_Wifi_BLE_SDK/GD32VW55x_RELEASE_V1.0.2/MSDK/wpa_supplicant/wpa_supplicant\op_classes.c **** 		if (verify_channel(mode, op_class->op_class, chan,
 1290              		.loc 1 428 12
 1291 02c6 3E99     		add	s2,s2,a5
 1292              	.LVL130:
 1293              	.L171:
 427:C:/Users/stapi/OneDrive/Desktop/GD32VW553/V1_MQTT_OK/GD32VW55X_Wifi_BLE_SDK/GD32VW55x_RELEASE_V1.0.2/MSDK/wpa_supplicant/wpa_supplicant\op_classes.c **** 	     chan += op_class->inc) {
 1294              		.loc 1 427 34 is_stmt 1
 427:C:/Users/stapi/OneDrive/Desktop/GD32VW553/V1_MQTT_OK/GD32VW55X_Wifi_BLE_SDK/GD32VW55x_RELEASE_V1.0.2/MSDK/wpa_supplicant/wpa_supplicant\op_classes.c **** 	     chan += op_class->inc) {
 1295              		.loc 1 427 50 is_stmt 0
 1296 02c8 83C76400 		lbu	a5,6(s1)
 427:C:/Users/stapi/OneDrive/Desktop/GD32VW553/V1_MQTT_OK/GD32VW55X_Wifi_BLE_SDK/GD32VW55x_RELEASE_V1.0.2/MSDK/wpa_supplicant/wpa_supplicant\op_classes.c **** 	     chan += op_class->inc) {
 1297              		.loc 1 427 2
 1298 02cc E3DF27FD 		ble	s2,a5,.L174
 1299 02d0 C5BB     		j	.L155
 1300              	.LBE44:
 1301              	.LBE47:
 1302              		.cfi_endproc
 1303              	.LFE148:
 1305              		.text
 1306              	.Letext0:
 1307              		.file 2 "c:\\users\\stapi\\onedrive\\desktop\\gd32vw553\\embeddedbuilder_v1.4.7.26843\\tools\\nucl
 1308              		.file 3 "c:\\users\\stapi\\onedrive\\desktop\\gd32vw553\\embeddedbuilder_v1.4.7.26843\\tools\\nucl
 1309              		.file 4 "c:\\users\\stapi\\onedrive\\desktop\\gd32vw553\\embeddedbuilder_v1.4.7.26843\\tools\\nucl
 1310              		.file 5 "..\\..\\..\\..\\wpa_supplicant\\src/utils/os.h"
 1311              		.file 6 "..\\..\\..\\..\\wpa_supplicant\\src/utils/common.h"
 1312              		.file 7 "..\\..\\..\\..\\wpa_supplicant\\src/utils/wpabuf.h"
 1313              		.file 8 "..\\..\\..\\..\\wpa_supplicant\\src/common/defs.h"
 1314              		.file 9 "..\\..\\..\\..\\wpa_supplicant\\src/common/ieee802_11_defs.h"
 1315              		.file 10 "..\\..\\..\\..\\wpa_supplicant\\src/common/ieee802_11_common.h"
 1316              		.file 11 "..\\..\\..\\..\\wpa_supplicant\\src/utils/list.h"
 1317              		.file 12 "..\\..\\..\\..\\wpa_supplicant\\src/common/sae.h"
 1318              		.file 13 "C:/Users/stapi/OneDrive/Desktop/GD32VW553/V1_MQTT_OK/GD32VW55X_Wifi_BLE_SDK/GD32VW55x_RE
 1319              		.file 14 "..\\..\\..\\..\\wpa_supplicant\\src/drivers/driver.h"
 1320              		.file 15 "C:/Users/stapi/OneDrive/Desktop/GD32VW553/V1_MQTT_OK/GD32VW55X_Wifi_BLE_SDK/GD32VW55x_RE
 1321              		.file 16 "C:/Users/stapi/OneDrive/Desktop/GD32VW553/V1_MQTT_OK/GD32VW55X_Wifi_BLE_SDK/GD32VW55x_RE
 1322              		.file 17 "<built-in>"
DEFINED SYMBOLS
                            *ABS*:0000000000000000 op_classes.c
C:\Users\stapi\AppData\Local\Temp\ccc7K78d.s:12     .text.allow_channel:0000000000000000 allow_channel
C:\Users\stapi\AppData\Local\Temp\ccc7K78d.s:16     .text.allow_channel:0000000000000000 .L0 
C:\Users\stapi\AppData\Local\Temp\ccc7K78d.s:18     .text.allow_channel:0000000000000000 .L0 
C:\Users\stapi\AppData\Local\Temp\ccc7K78d.s:19     .text.allow_channel:0000000000000000 .L0 
C:\Users\stapi\AppData\Local\Temp\ccc7K78d.s:20     .text.allow_channel:0000000000000000 .L0 
C:\Users\stapi\AppData\Local\Temp\ccc7K78d.s:21     .text.allow_channel:0000000000000000 .L0 
C:\Users\stapi\AppData\Local\Temp\ccc7K78d.s:24     .text.allow_channel:0000000000000004 .L0 
C:\Users\stapi\AppData\Local\Temp\ccc7K78d.s:26     .text.allow_channel:0000000000000008 .L0 
C:\Users\stapi\AppData\Local\Temp\ccc7K78d.s:29     .text.allow_channel:000000000000000c .L0 
C:\Users\stapi\AppData\Local\Temp\ccc7K78d.s:32     .text.allow_channel:000000000000000e .L0 
C:\Users\stapi\AppData\Local\Temp\ccc7K78d.s:34     .text.allow_channel:0000000000000010 .L0 
C:\Users\stapi\AppData\Local\Temp\ccc7K78d.s:37     .text.allow_channel:0000000000000014 .L0 
C:\Users\stapi\AppData\Local\Temp\ccc7K78d.s:38     .text.allow_channel:0000000000000014 .L0 
C:\Users\stapi\AppData\Local\Temp\ccc7K78d.s:41     .text.allow_channel:0000000000000016 .L0 
C:\Users\stapi\AppData\Local\Temp\ccc7K78d.s:43     .text.allow_channel:000000000000001a .L0 
C:\Users\stapi\AppData\Local\Temp\ccc7K78d.s:48     .text.allow_channel:000000000000001e .L0 
C:\Users\stapi\AppData\Local\Temp\ccc7K78d.s:49     .text.allow_channel:000000000000001e .L0 
C:\Users\stapi\AppData\Local\Temp\ccc7K78d.s:51     .text.allow_channel:0000000000000022 .L0 
C:\Users\stapi\AppData\Local\Temp\ccc7K78d.s:52     .text.allow_channel:0000000000000022 .L0 
C:\Users\stapi\AppData\Local\Temp\ccc7K78d.s:54     .text.allow_channel:0000000000000024 .L0 
C:\Users\stapi\AppData\Local\Temp\ccc7K78d.s:59     .text.allow_channel:000000000000002a .L0 
C:\Users\stapi\AppData\Local\Temp\ccc7K78d.s:60     .text.allow_channel:000000000000002a .L0 
C:\Users\stapi\AppData\Local\Temp\ccc7K78d.s:61     .text.allow_channel:000000000000002a .L0 
C:\Users\stapi\AppData\Local\Temp\ccc7K78d.s:65     .text.allow_channel:0000000000000032 .L0 
C:\Users\stapi\AppData\Local\Temp\ccc7K78d.s:66     .text.allow_channel:0000000000000032 .L0 
C:\Users\stapi\AppData\Local\Temp\ccc7K78d.s:69     .text.allow_channel:0000000000000038 .L0 
C:\Users\stapi\AppData\Local\Temp\ccc7K78d.s:72     .text.allow_channel:0000000000000040 .L0 
C:\Users\stapi\AppData\Local\Temp\ccc7K78d.s:74     .text.allow_channel:0000000000000044 .L0 
C:\Users\stapi\AppData\Local\Temp\ccc7K78d.s:79     .text.allow_channel:0000000000000048 .L0 
C:\Users\stapi\AppData\Local\Temp\ccc7K78d.s:84     .text.allow_channel:000000000000004e .L0 
C:\Users\stapi\AppData\Local\Temp\ccc7K78d.s:86     .text.allow_channel:0000000000000050 .L0 
C:\Users\stapi\AppData\Local\Temp\ccc7K78d.s:88     .text.allow_channel:0000000000000054 .L0 
C:\Users\stapi\AppData\Local\Temp\ccc7K78d.s:91     .text.allow_channel:0000000000000056 .L0 
C:\Users\stapi\AppData\Local\Temp\ccc7K78d.s:93     .text.allow_channel:000000000000005a .L0 
C:\Users\stapi\AppData\Local\Temp\ccc7K78d.s:98     .text.allow_channel:000000000000005e .L0 
C:\Users\stapi\AppData\Local\Temp\ccc7K78d.s:99     .text.allow_channel:000000000000005e .L0 
C:\Users\stapi\AppData\Local\Temp\ccc7K78d.s:105    .text.allow_channel:0000000000000062 .L0 
C:\Users\stapi\AppData\Local\Temp\ccc7K78d.s:106    .text.allow_channel:0000000000000062 .L0 
C:\Users\stapi\AppData\Local\Temp\ccc7K78d.s:108    .text.allow_channel:0000000000000064 .L0 
C:\Users\stapi\AppData\Local\Temp\ccc7K78d.s:109    .text.allow_channel:0000000000000064 .L0 
C:\Users\stapi\AppData\Local\Temp\ccc7K78d.s:112    .text.allow_channel:0000000000000066 .L0 
C:\Users\stapi\AppData\Local\Temp\ccc7K78d.s:113    .text.allow_channel:0000000000000066 .L0 
C:\Users\stapi\AppData\Local\Temp\ccc7K78d.s:115    .text.allow_channel:0000000000000068 .L0 
C:\Users\stapi\AppData\Local\Temp\ccc7K78d.s:117    .text.allow_channel:000000000000006a .L0 
C:\Users\stapi\AppData\Local\Temp\ccc7K78d.s:119    .text.allow_channel:000000000000006c .L0 
C:\Users\stapi\AppData\Local\Temp\ccc7K78d.s:121    .text.allow_channel:000000000000006e .L0 
C:\Users\stapi\AppData\Local\Temp\ccc7K78d.s:124    .text.allow_channel:0000000000000070 .L0 
C:\Users\stapi\AppData\Local\Temp\ccc7K78d.s:125    .text.allow_channel:0000000000000072 .L0 
C:\Users\stapi\AppData\Local\Temp\ccc7K78d.s:138    .text.verify_80mhz:0000000000000000 verify_80mhz
C:\Users\stapi\AppData\Local\Temp\ccc7K78d.s:141    .text.verify_80mhz:0000000000000000 .L0 
C:\Users\stapi\AppData\Local\Temp\ccc7K78d.s:143    .text.verify_80mhz:0000000000000000 .L0 
C:\Users\stapi\AppData\Local\Temp\ccc7K78d.s:144    .text.verify_80mhz:0000000000000008 .L0 
C:\Users\stapi\AppData\Local\Temp\ccc7K78d.s:145    .text.verify_80mhz:0000000000000008 .L0 
C:\Users\stapi\AppData\Local\Temp\ccc7K78d.s:146    .text.verify_80mhz:0000000000000008 .L0 
C:\Users\stapi\AppData\Local\Temp\ccc7K78d.s:147    .text.verify_80mhz:0000000000000008 .L0 
C:\Users\stapi\AppData\Local\Temp\ccc7K78d.s:148    .text.verify_80mhz:0000000000000008 .L0 
C:\Users\stapi\AppData\Local\Temp\ccc7K78d.s:149    .text.verify_80mhz:0000000000000008 .L0 
C:\Users\stapi\AppData\Local\Temp\ccc7K78d.s:150    .text.verify_80mhz:0000000000000008 .L0 
C:\Users\stapi\AppData\Local\Temp\ccc7K78d.s:151    .text.verify_80mhz:0000000000000008 .L0 
C:\Users\stapi\AppData\Local\Temp\ccc7K78d.s:152    .text.verify_80mhz:0000000000000008 .L0 
C:\Users\stapi\AppData\Local\Temp\ccc7K78d.s:153    .text.verify_80mhz:0000000000000008 .L0 
C:\Users\stapi\AppData\Local\Temp\ccc7K78d.s:154    .text.verify_80mhz:0000000000000008 .L0 
C:\Users\stapi\AppData\Local\Temp\ccc7K78d.s:155    .text.verify_80mhz:0000000000000008 .L0 
C:\Users\stapi\AppData\Local\Temp\ccc7K78d.s:156    .text.verify_80mhz:0000000000000008 .L0 
C:\Users\stapi\AppData\Local\Temp\ccc7K78d.s:157    .text.verify_80mhz:0000000000000008 .L0 
C:\Users\stapi\AppData\Local\Temp\ccc7K78d.s:159    .text.verify_80mhz:0000000000000008 .L0 
C:\Users\stapi\AppData\Local\Temp\ccc7K78d.s:160    .text.verify_80mhz:0000000000000008 .L0 
C:\Users\stapi\AppData\Local\Temp\ccc7K78d.s:162    .text.verify_80mhz:0000000000000008 .L0 
C:\Users\stapi\AppData\Local\Temp\ccc7K78d.s:163    .text.verify_80mhz:0000000000000008 .L0 
C:\Users\stapi\AppData\Local\Temp\ccc7K78d.s:164    .text.verify_80mhz:0000000000000008 .L0 
C:\Users\stapi\AppData\Local\Temp\ccc7K78d.s:165    .text.verify_80mhz:0000000000000008 .L0 
C:\Users\stapi\AppData\Local\Temp\ccc7K78d.s:166    .text.verify_80mhz:0000000000000008 .L0 
C:\Users\stapi\AppData\Local\Temp\ccc7K78d.s:167    .text.verify_80mhz:000000000000000a .L0 
C:\Users\stapi\AppData\Local\Temp\ccc7K78d.s:169    .text.verify_80mhz:000000000000000a .L0 
C:\Users\stapi\AppData\Local\Temp\ccc7K78d.s:171    .text.verify_80mhz:000000000000000c .L0 
C:\Users\stapi\AppData\Local\Temp\ccc7K78d.s:175    .text.verify_80mhz:0000000000000014 .L0 
C:\Users\stapi\AppData\Local\Temp\ccc7K78d.s:178    .text.verify_80mhz:0000000000000018 .L0 
C:\Users\stapi\AppData\Local\Temp\ccc7K78d.s:185    .text.verify_80mhz:0000000000000024 .L0 
C:\Users\stapi\AppData\Local\Temp\ccc7K78d.s:186    .text.verify_80mhz:0000000000000024 .L0 
C:\Users\stapi\AppData\Local\Temp\ccc7K78d.s:193    .text.verify_80mhz:0000000000000038 .L0 
C:\Users\stapi\AppData\Local\Temp\ccc7K78d.s:194    .text.verify_80mhz:0000000000000038 .L0 
C:\Users\stapi\AppData\Local\Temp\ccc7K78d.s:198    .text.verify_80mhz:0000000000000042 .L0 
C:\Users\stapi\AppData\Local\Temp\ccc7K78d.s:200    .text.verify_80mhz:0000000000000044 .L0 
C:\Users\stapi\AppData\Local\Temp\ccc7K78d.s:202    .text.verify_80mhz:0000000000000046 .L0 
C:\Users\stapi\AppData\Local\Temp\ccc7K78d.s:208    .text.verify_80mhz:0000000000000048 .L0 
C:\Users\stapi\AppData\Local\Temp\ccc7K78d.s:209    .text.verify_80mhz:0000000000000048 .L0 
C:\Users\stapi\AppData\Local\Temp\ccc7K78d.s:210    .text.verify_80mhz:0000000000000048 .L0 
C:\Users\stapi\AppData\Local\Temp\ccc7K78d.s:211    .text.verify_80mhz:0000000000000048 .L0 
C:\Users\stapi\AppData\Local\Temp\ccc7K78d.s:216    .text.verify_80mhz:000000000000004e .L0 
C:\Users\stapi\AppData\Local\Temp\ccc7K78d.s:220    .text.verify_80mhz:0000000000000050 .L0 
C:\Users\stapi\AppData\Local\Temp\ccc7K78d.s:222    .text.verify_80mhz:0000000000000054 .L0 
C:\Users\stapi\AppData\Local\Temp\ccc7K78d.s:226    .text.verify_80mhz:0000000000000056 .L0 
C:\Users\stapi\AppData\Local\Temp\ccc7K78d.s:227    .text.verify_80mhz:0000000000000056 .L0 
C:\Users\stapi\AppData\Local\Temp\ccc7K78d.s:230    .text.verify_80mhz:000000000000005e .L0 
C:\Users\stapi\AppData\Local\Temp\ccc7K78d.s:232    .text.verify_80mhz:0000000000000062 .L0 
C:\Users\stapi\AppData\Local\Temp\ccc7K78d.s:234    .text.verify_80mhz:0000000000000066 .L0 
C:\Users\stapi\AppData\Local\Temp\ccc7K78d.s:236    .text.verify_80mhz:000000000000006a .L0 
C:\Users\stapi\AppData\Local\Temp\ccc7K78d.s:239    .text.verify_80mhz:000000000000006e .L0 
C:\Users\stapi\AppData\Local\Temp\ccc7K78d.s:240    .text.verify_80mhz:000000000000006e .L0 
C:\Users\stapi\AppData\Local\Temp\ccc7K78d.s:243    .text.verify_80mhz:0000000000000070 .L0 
C:\Users\stapi\AppData\Local\Temp\ccc7K78d.s:244    .text.verify_80mhz:0000000000000070 .L0 
C:\Users\stapi\AppData\Local\Temp\ccc7K78d.s:250    .text.verify_80mhz:0000000000000074 .L0 
C:\Users\stapi\AppData\Local\Temp\ccc7K78d.s:255    .text.verify_80mhz:0000000000000078 .L0 
C:\Users\stapi\AppData\Local\Temp\ccc7K78d.s:257    .text.verify_80mhz:000000000000007a .L0 
C:\Users\stapi\AppData\Local\Temp\ccc7K78d.s:262    .text.verify_80mhz:000000000000007e .L0 
C:\Users\stapi\AppData\Local\Temp\ccc7K78d.s:265    .text.verify_80mhz:0000000000000082 .L0 
C:\Users\stapi\AppData\Local\Temp\ccc7K78d.s:266    .text.verify_80mhz:0000000000000082 .L0 
C:\Users\stapi\AppData\Local\Temp\ccc7K78d.s:271    .text.verify_80mhz:0000000000000086 .L0 
C:\Users\stapi\AppData\Local\Temp\ccc7K78d.s:276    .text.verify_80mhz:000000000000008c .L0 
C:\Users\stapi\AppData\Local\Temp\ccc7K78d.s:278    .text.verify_80mhz:000000000000008e .L0 
C:\Users\stapi\AppData\Local\Temp\ccc7K78d.s:281    .text.verify_80mhz:0000000000000090 .L0 
C:\Users\stapi\AppData\Local\Temp\ccc7K78d.s:283    .text.verify_80mhz:0000000000000092 .L0 
C:\Users\stapi\AppData\Local\Temp\ccc7K78d.s:285    .text.verify_80mhz:0000000000000094 .L0 
C:\Users\stapi\AppData\Local\Temp\ccc7K78d.s:287    .text.verify_80mhz:0000000000000096 .L0 
C:\Users\stapi\AppData\Local\Temp\ccc7K78d.s:289    .text.verify_80mhz:0000000000000098 .L0 
C:\Users\stapi\AppData\Local\Temp\ccc7K78d.s:292    .text.verify_80mhz:000000000000009c .L0 
C:\Users\stapi\AppData\Local\Temp\ccc7K78d.s:297    .text.verify_80mhz:000000000000009e .L0 
C:\Users\stapi\AppData\Local\Temp\ccc7K78d.s:298    .text.verify_80mhz:000000000000009e .L0 
C:\Users\stapi\AppData\Local\Temp\ccc7K78d.s:299    .text.verify_80mhz:000000000000009e .L0 
C:\Users\stapi\AppData\Local\Temp\ccc7K78d.s:300    .text.verify_80mhz:000000000000009e .L0 
C:\Users\stapi\AppData\Local\Temp\ccc7K78d.s:307    .text.verify_80mhz:00000000000000ae .L0 
C:\Users\stapi\AppData\Local\Temp\ccc7K78d.s:309    .text.verify_80mhz:00000000000000b0 .L0 
C:\Users\stapi\AppData\Local\Temp\ccc7K78d.s:310    .text.verify_80mhz:00000000000000b0 .L0 
C:\Users\stapi\AppData\Local\Temp\ccc7K78d.s:313    .text.verify_80mhz:00000000000000b6 .L0 
C:\Users\stapi\AppData\Local\Temp\ccc7K78d.s:315    .text.verify_80mhz:00000000000000ba .L0 
C:\Users\stapi\AppData\Local\Temp\ccc7K78d.s:317    .text.verify_80mhz:00000000000000be .L0 
C:\Users\stapi\AppData\Local\Temp\ccc7K78d.s:319    .text.verify_80mhz:00000000000000c2 .L0 
C:\Users\stapi\AppData\Local\Temp\ccc7K78d.s:321    .text.verify_80mhz:00000000000000c6 .L0 
C:\Users\stapi\AppData\Local\Temp\ccc7K78d.s:323    .text.verify_80mhz:00000000000000ca .L0 
C:\Users\stapi\AppData\Local\Temp\ccc7K78d.s:326    .text.verify_80mhz:00000000000000ce .L0 
C:\Users\stapi\AppData\Local\Temp\ccc7K78d.s:328    .text.verify_80mhz:00000000000000d0 .L0 
C:\Users\stapi\AppData\Local\Temp\ccc7K78d.s:329    .text.verify_80mhz:00000000000000d0 .L0 
C:\Users\stapi\AppData\Local\Temp\ccc7K78d.s:331    .text.verify_80mhz:00000000000000d2 .L0 
C:\Users\stapi\AppData\Local\Temp\ccc7K78d.s:333    .text.verify_80mhz:00000000000000d4 .L0 
C:\Users\stapi\AppData\Local\Temp\ccc7K78d.s:338    .text.verify_80mhz:00000000000000d6 .L0 
C:\Users\stapi\AppData\Local\Temp\ccc7K78d.s:339    .text.verify_80mhz:00000000000000d6 .L0 
C:\Users\stapi\AppData\Local\Temp\ccc7K78d.s:342    .text.verify_80mhz:00000000000000d8 .L0 
C:\Users\stapi\AppData\Local\Temp\ccc7K78d.s:345    .text.verify_80mhz:00000000000000da .L0 
C:\Users\stapi\AppData\Local\Temp\ccc7K78d.s:346    .text.verify_80mhz:00000000000000da .L0 
C:\Users\stapi\AppData\Local\Temp\ccc7K78d.s:350    .text.verify_80mhz:00000000000000e2 .L0 
C:\Users\stapi\AppData\Local\Temp\ccc7K78d.s:351    .text.verify_80mhz:00000000000000e2 .L0 
C:\Users\stapi\AppData\Local\Temp\ccc7K78d.s:355    .text.verify_80mhz:00000000000000e4 .L0 
C:\Users\stapi\AppData\Local\Temp\ccc7K78d.s:357    .text.verify_80mhz:00000000000000e8 .L0 
C:\Users\stapi\AppData\Local\Temp\ccc7K78d.s:358    .text.verify_80mhz:00000000000000e8 .L0 
C:\Users\stapi\AppData\Local\Temp\ccc7K78d.s:360    .text.verify_80mhz:00000000000000f0 .L0 
C:\Users\stapi\AppData\Local\Temp\ccc7K78d.s:361    .text.verify_80mhz:00000000000000f0 .L0 
C:\Users\stapi\AppData\Local\Temp\ccc7K78d.s:362    .text.verify_80mhz:00000000000000f0 .L0 
C:\Users\stapi\AppData\Local\Temp\ccc7K78d.s:363    .text.verify_80mhz:00000000000000f0 .L0 
C:\Users\stapi\AppData\Local\Temp\ccc7K78d.s:364    .text.verify_80mhz:00000000000000f0 .L0 
C:\Users\stapi\AppData\Local\Temp\ccc7K78d.s:365    .text.verify_80mhz:00000000000000f0 .L0 
C:\Users\stapi\AppData\Local\Temp\ccc7K78d.s:366    .text.verify_80mhz:00000000000000f0 .L0 
C:\Users\stapi\AppData\Local\Temp\ccc7K78d.s:367    .text.verify_80mhz:00000000000000f0 .L0 
C:\Users\stapi\AppData\Local\Temp\ccc7K78d.s:368    .text.verify_80mhz:00000000000000f0 .L0 
C:\Users\stapi\AppData\Local\Temp\ccc7K78d.s:369    .text.verify_80mhz:00000000000000f0 .L0 
C:\Users\stapi\AppData\Local\Temp\ccc7K78d.s:370    .text.verify_80mhz:00000000000000f0 .L0 
C:\Users\stapi\AppData\Local\Temp\ccc7K78d.s:371    .text.verify_80mhz:00000000000000f0 .L0 
C:\Users\stapi\AppData\Local\Temp\ccc7K78d.s:372    .text.verify_80mhz:00000000000000f0 .L0 
C:\Users\stapi\AppData\Local\Temp\ccc7K78d.s:373    .text.verify_80mhz:00000000000000f0 .L0 
C:\Users\stapi\AppData\Local\Temp\ccc7K78d.s:376    .text.verify_80mhz:00000000000000f0 .L0 
C:\Users\stapi\AppData\Local\Temp\ccc7K78d.s:378    .text.verify_80mhz:00000000000000f0 .L0 
C:\Users\stapi\AppData\Local\Temp\ccc7K78d.s:381    .text.verify_80mhz:00000000000000f4 .L0 
C:\Users\stapi\AppData\Local\Temp\ccc7K78d.s:392    .text.verify_channel:0000000000000000 verify_channel
C:\Users\stapi\AppData\Local\Temp\ccc7K78d.s:395    .text.verify_channel:0000000000000000 .L0 
C:\Users\stapi\AppData\Local\Temp\ccc7K78d.s:397    .text.verify_channel:0000000000000000 .L0 
C:\Users\stapi\AppData\Local\Temp\ccc7K78d.s:398    .text.verify_channel:0000000000000008 .L0 
C:\Users\stapi\AppData\Local\Temp\ccc7K78d.s:399    .text.verify_channel:0000000000000008 .L0 
C:\Users\stapi\AppData\Local\Temp\ccc7K78d.s:400    .text.verify_channel:0000000000000008 .L0 
C:\Users\stapi\AppData\Local\Temp\ccc7K78d.s:401    .text.verify_channel:0000000000000008 .L0 
C:\Users\stapi\AppData\Local\Temp\ccc7K78d.s:402    .text.verify_channel:0000000000000008 .L0 
C:\Users\stapi\AppData\Local\Temp\ccc7K78d.s:403    .text.verify_channel:0000000000000008 .L0 
C:\Users\stapi\AppData\Local\Temp\ccc7K78d.s:404    .text.verify_channel:0000000000000008 .L0 
C:\Users\stapi\AppData\Local\Temp\ccc7K78d.s:405    .text.verify_channel:0000000000000008 .L0 
C:\Users\stapi\AppData\Local\Temp\ccc7K78d.s:406    .text.verify_channel:0000000000000008 .L0 
C:\Users\stapi\AppData\Local\Temp\ccc7K78d.s:407    .text.verify_channel:0000000000000008 .L0 
C:\Users\stapi\AppData\Local\Temp\ccc7K78d.s:408    .text.verify_channel:0000000000000008 .L0 
C:\Users\stapi\AppData\Local\Temp\ccc7K78d.s:409    .text.verify_channel:0000000000000008 .L0 
C:\Users\stapi\AppData\Local\Temp\ccc7K78d.s:410    .text.verify_channel:0000000000000008 .L0 
C:\Users\stapi\AppData\Local\Temp\ccc7K78d.s:411    .text.verify_channel:0000000000000008 .L0 
C:\Users\stapi\AppData\Local\Temp\ccc7K78d.s:413    .text.verify_channel:0000000000000008 .L0 
C:\Users\stapi\AppData\Local\Temp\ccc7K78d.s:414    .text.verify_channel:0000000000000008 .L0 
C:\Users\stapi\AppData\Local\Temp\ccc7K78d.s:415    .text.verify_channel:000000000000000a .L0 
C:\Users\stapi\AppData\Local\Temp\ccc7K78d.s:417    .text.verify_channel:000000000000000a .L0 
C:\Users\stapi\AppData\Local\Temp\ccc7K78d.s:419    .text.verify_channel:000000000000000c .L0 
C:\Users\stapi\AppData\Local\Temp\ccc7K78d.s:422    .text.verify_channel:000000000000000e .L0 
C:\Users\stapi\AppData\Local\Temp\ccc7K78d.s:426    .text.verify_channel:0000000000000014 .L0 
C:\Users\stapi\AppData\Local\Temp\ccc7K78d.s:428    .text.verify_channel:0000000000000016 .L0 
C:\Users\stapi\AppData\Local\Temp\ccc7K78d.s:429    .text.verify_channel:0000000000000016 .L0 
C:\Users\stapi\AppData\Local\Temp\ccc7K78d.s:430    .text.verify_channel:0000000000000016 .L0 
C:\Users\stapi\AppData\Local\Temp\ccc7K78d.s:433    .text.verify_channel:000000000000001e .L0 
C:\Users\stapi\AppData\Local\Temp\ccc7K78d.s:435    .text.verify_channel:0000000000000020 .L0 
C:\Users\stapi\AppData\Local\Temp\ccc7K78d.s:438    .text.verify_channel:0000000000000022 .L0 
C:\Users\stapi\AppData\Local\Temp\ccc7K78d.s:439    .text.verify_channel:0000000000000022 .L0 
C:\Users\stapi\AppData\Local\Temp\ccc7K78d.s:441    .text.verify_channel:0000000000000026 .L0 
C:\Users\stapi\AppData\Local\Temp\ccc7K78d.s:444    .text.verify_channel:000000000000002c .L0 
C:\Users\stapi\AppData\Local\Temp\ccc7K78d.s:446    .text.verify_channel:0000000000000030 .L0 
C:\Users\stapi\AppData\Local\Temp\ccc7K78d.s:449    .text.verify_channel:0000000000000036 .L0 
C:\Users\stapi\AppData\Local\Temp\ccc7K78d.s:453    .text.verify_channel:000000000000003a .L0 
C:\Users\stapi\AppData\Local\Temp\ccc7K78d.s:454    .text.verify_channel:000000000000003a .L0 
C:\Users\stapi\AppData\Local\Temp\ccc7K78d.s:457    .text.verify_channel:0000000000000040 .L0 
C:\Users\stapi\AppData\Local\Temp\ccc7K78d.s:461    .text.verify_channel:0000000000000042 .L0 
C:\Users\stapi\AppData\Local\Temp\ccc7K78d.s:465    .text.verify_channel:0000000000000044 .L0 
C:\Users\stapi\AppData\Local\Temp\ccc7K78d.s:468    .text.verify_channel:0000000000000048 .L0 
C:\Users\stapi\AppData\Local\Temp\ccc7K78d.s:469    .text.verify_channel:0000000000000048 .L0 
C:\Users\stapi\AppData\Local\Temp\ccc7K78d.s:471    .text.verify_channel:0000000000000050 .L0 
C:\Users\stapi\AppData\Local\Temp\ccc7K78d.s:472    .text.verify_channel:0000000000000050 .L0 
C:\Users\stapi\AppData\Local\Temp\ccc7K78d.s:473    .text.verify_channel:0000000000000050 .L0 
C:\Users\stapi\AppData\Local\Temp\ccc7K78d.s:474    .text.verify_channel:0000000000000050 .L0 
C:\Users\stapi\AppData\Local\Temp\ccc7K78d.s:475    .text.verify_channel:0000000000000050 .L0 
C:\Users\stapi\AppData\Local\Temp\ccc7K78d.s:476    .text.verify_channel:0000000000000050 .L0 
C:\Users\stapi\AppData\Local\Temp\ccc7K78d.s:477    .text.verify_channel:0000000000000050 .L0 
C:\Users\stapi\AppData\Local\Temp\ccc7K78d.s:478    .text.verify_channel:0000000000000050 .L0 
C:\Users\stapi\AppData\Local\Temp\ccc7K78d.s:479    .text.verify_channel:0000000000000050 .L0 
C:\Users\stapi\AppData\Local\Temp\ccc7K78d.s:480    .text.verify_channel:0000000000000050 .L0 
C:\Users\stapi\AppData\Local\Temp\ccc7K78d.s:481    .text.verify_channel:0000000000000050 .L0 
C:\Users\stapi\AppData\Local\Temp\ccc7K78d.s:482    .text.verify_channel:0000000000000050 .L0 
C:\Users\stapi\AppData\Local\Temp\ccc7K78d.s:483    .text.verify_channel:0000000000000050 .L0 
C:\Users\stapi\AppData\Local\Temp\ccc7K78d.s:484    .text.verify_channel:0000000000000050 .L0 
C:\Users\stapi\AppData\Local\Temp\ccc7K78d.s:487    .text.verify_channel:0000000000000050 .L0 
C:\Users\stapi\AppData\Local\Temp\ccc7K78d.s:489    .text.verify_channel:0000000000000050 .L0 
C:\Users\stapi\AppData\Local\Temp\ccc7K78d.s:490    .text.verify_channel:0000000000000050 .L0 
C:\Users\stapi\AppData\Local\Temp\ccc7K78d.s:493    .text.verify_channel:0000000000000056 .L0 
C:\Users\stapi\AppData\Local\Temp\ccc7K78d.s:494    .text.verify_channel:0000000000000056 .L0 
C:\Users\stapi\AppData\Local\Temp\ccc7K78d.s:497    .text.verify_channel:000000000000005a .L0 
C:\Users\stapi\AppData\Local\Temp\ccc7K78d.s:500    .text.verify_channel:000000000000005c .L0 
C:\Users\stapi\AppData\Local\Temp\ccc7K78d.s:501    .text.verify_channel:000000000000005c .L0 
C:\Users\stapi\AppData\Local\Temp\ccc7K78d.s:505    .text.verify_channel:0000000000000062 .L0 
C:\Users\stapi\AppData\Local\Temp\ccc7K78d.s:506    .text.verify_channel:0000000000000062 .L0 
C:\Users\stapi\AppData\Local\Temp\ccc7K78d.s:510    .text.verify_channel:000000000000006c .L0 
C:\Users\stapi\AppData\Local\Temp\ccc7K78d.s:512    .text.verify_channel:000000000000006e .L0 
C:\Users\stapi\AppData\Local\Temp\ccc7K78d.s:515    .text.verify_channel:0000000000000074 .L0 
C:\Users\stapi\AppData\Local\Temp\ccc7K78d.s:516    .text.verify_channel:0000000000000074 .L0 
C:\Users\stapi\AppData\Local\Temp\ccc7K78d.s:520    .text.verify_channel:000000000000007e .L0 
C:\Users\stapi\AppData\Local\Temp\ccc7K78d.s:523    .text.verify_channel:0000000000000082 .L0 
C:\Users\stapi\AppData\Local\Temp\ccc7K78d.s:524    .text.verify_channel:0000000000000082 .L0 
C:\Users\stapi\AppData\Local\Temp\ccc7K78d.s:534    .text.verify_channel:0000000000000098 .L0 
C:\Users\stapi\AppData\Local\Temp\ccc7K78d.s:535    .text.verify_channel:0000000000000098 .L0 
C:\Users\stapi\AppData\Local\Temp\ccc7K78d.s:537    .text.verify_channel:000000000000009a .L0 
C:\Users\stapi\AppData\Local\Temp\ccc7K78d.s:539    .text.verify_channel:000000000000009c .L0 
C:\Users\stapi\AppData\Local\Temp\ccc7K78d.s:540    .text.verify_channel:000000000000009c .L0 
C:\Users\stapi\AppData\Local\Temp\ccc7K78d.s:543    .text.verify_channel:00000000000000a2 .L0 
C:\Users\stapi\AppData\Local\Temp\ccc7K78d.s:546    .text.verify_channel:00000000000000a4 .L0 
C:\Users\stapi\AppData\Local\Temp\ccc7K78d.s:548    .text.verify_channel:00000000000000a8 .L0 
C:\Users\stapi\AppData\Local\Temp\ccc7K78d.s:553    .text.verify_channel:00000000000000ac .L0 
C:\Users\stapi\AppData\Local\Temp\ccc7K78d.s:554    .text.verify_channel:00000000000000ac .L0 
C:\Users\stapi\AppData\Local\Temp\ccc7K78d.s:558    .text.verify_channel:00000000000000b2 .L0 
C:\Users\stapi\AppData\Local\Temp\ccc7K78d.s:559    .text.verify_channel:00000000000000b2 .L0 
C:\Users\stapi\AppData\Local\Temp\ccc7K78d.s:568    .text.verify_channel:00000000000000c2 .L0 
C:\Users\stapi\AppData\Local\Temp\ccc7K78d.s:573    .text.verify_channel:00000000000000c6 .L0 
C:\Users\stapi\AppData\Local\Temp\ccc7K78d.s:574    .text.verify_channel:00000000000000c6 .L0 
C:\Users\stapi\AppData\Local\Temp\ccc7K78d.s:580    .text.verify_channel:00000000000000cc .L0 
C:\Users\stapi\AppData\Local\Temp\ccc7K78d.s:581    .text.verify_channel:00000000000000cc .L0 
C:\Users\stapi\AppData\Local\Temp\ccc7K78d.s:582    .text.verify_channel:00000000000000cc .L0 
C:\Users\stapi\AppData\Local\Temp\ccc7K78d.s:583    .text.verify_channel:00000000000000cc .L0 
C:\Users\stapi\AppData\Local\Temp\ccc7K78d.s:584    .text.verify_channel:00000000000000cc .L0 
C:\Users\stapi\AppData\Local\Temp\ccc7K78d.s:585    .text.verify_channel:00000000000000cc .L0 
C:\Users\stapi\AppData\Local\Temp\ccc7K78d.s:586    .text.verify_channel:00000000000000cc .L0 
C:\Users\stapi\AppData\Local\Temp\ccc7K78d.s:587    .text.verify_channel:00000000000000cc .L0 
C:\Users\stapi\AppData\Local\Temp\ccc7K78d.s:590    .text.verify_channel:00000000000000d2 .L0 
C:\Users\stapi\AppData\Local\Temp\ccc7K78d.s:592    .text.verify_channel:00000000000000d6 .L0 
C:\Users\stapi\AppData\Local\Temp\ccc7K78d.s:594    .text.verify_channel:00000000000000da .L0 
C:\Users\stapi\AppData\Local\Temp\ccc7K78d.s:596    .text.verify_channel:00000000000000dc .L0 
C:\Users\stapi\AppData\Local\Temp\ccc7K78d.s:598    .text.verify_channel:00000000000000e0 .L0 
C:\Users\stapi\AppData\Local\Temp\ccc7K78d.s:601    .text.verify_channel:00000000000000e6 .L0 
C:\Users\stapi\AppData\Local\Temp\ccc7K78d.s:603    .text.verify_channel:00000000000000ea .L0 
C:\Users\stapi\AppData\Local\Temp\ccc7K78d.s:604    .text.verify_channel:00000000000000ea .L0 
C:\Users\stapi\AppData\Local\Temp\ccc7K78d.s:607    .text.verify_channel:00000000000000f2 .L0 
C:\Users\stapi\AppData\Local\Temp\ccc7K78d.s:608    .text.verify_channel:00000000000000f2 .L0 
C:\Users\stapi\AppData\Local\Temp\ccc7K78d.s:612    .text.verify_channel:00000000000000fc .L0 
C:\Users\stapi\AppData\Local\Temp\ccc7K78d.s:614    .text.verify_channel:00000000000000fe .L0 
C:\Users\stapi\AppData\Local\Temp\ccc7K78d.s:616    .text.verify_channel:0000000000000100 .L0 
C:\Users\stapi\AppData\Local\Temp\ccc7K78d.s:622    .text.verify_channel:0000000000000102 .L0 
C:\Users\stapi\AppData\Local\Temp\ccc7K78d.s:623    .text.verify_channel:0000000000000102 .L0 
C:\Users\stapi\AppData\Local\Temp\ccc7K78d.s:624    .text.verify_channel:0000000000000102 .L0 
C:\Users\stapi\AppData\Local\Temp\ccc7K78d.s:625    .text.verify_channel:0000000000000102 .L0 
C:\Users\stapi\AppData\Local\Temp\ccc7K78d.s:630    .text.verify_channel:0000000000000108 .L0 
C:\Users\stapi\AppData\Local\Temp\ccc7K78d.s:635    .text.verify_channel:000000000000010a .L0 
C:\Users\stapi\AppData\Local\Temp\ccc7K78d.s:637    .text.verify_channel:000000000000010e .L0 
C:\Users\stapi\AppData\Local\Temp\ccc7K78d.s:641    .text.verify_channel:0000000000000110 .L0 
C:\Users\stapi\AppData\Local\Temp\ccc7K78d.s:642    .text.verify_channel:0000000000000110 .L0 
C:\Users\stapi\AppData\Local\Temp\ccc7K78d.s:645    .text.verify_channel:0000000000000118 .L0 
C:\Users\stapi\AppData\Local\Temp\ccc7K78d.s:647    .text.verify_channel:000000000000011c .L0 
C:\Users\stapi\AppData\Local\Temp\ccc7K78d.s:649    .text.verify_channel:0000000000000120 .L0 
C:\Users\stapi\AppData\Local\Temp\ccc7K78d.s:651    .text.verify_channel:0000000000000124 .L0 
C:\Users\stapi\AppData\Local\Temp\ccc7K78d.s:654    .text.verify_channel:0000000000000128 .L0 
C:\Users\stapi\AppData\Local\Temp\ccc7K78d.s:655    .text.verify_channel:0000000000000128 .L0 
C:\Users\stapi\AppData\Local\Temp\ccc7K78d.s:658    .text.verify_channel:000000000000012a .L0 
C:\Users\stapi\AppData\Local\Temp\ccc7K78d.s:659    .text.verify_channel:000000000000012a .L0 
C:\Users\stapi\AppData\Local\Temp\ccc7K78d.s:665    .text.verify_channel:000000000000012e .L0 
C:\Users\stapi\AppData\Local\Temp\ccc7K78d.s:670    .text.verify_channel:0000000000000132 .L0 
C:\Users\stapi\AppData\Local\Temp\ccc7K78d.s:672    .text.verify_channel:0000000000000134 .L0 
C:\Users\stapi\AppData\Local\Temp\ccc7K78d.s:677    .text.verify_channel:0000000000000138 .L0 
C:\Users\stapi\AppData\Local\Temp\ccc7K78d.s:680    .text.verify_channel:000000000000013c .L0 
C:\Users\stapi\AppData\Local\Temp\ccc7K78d.s:681    .text.verify_channel:000000000000013c .L0 
C:\Users\stapi\AppData\Local\Temp\ccc7K78d.s:687    .text.verify_channel:0000000000000144 .L0 
C:\Users\stapi\AppData\Local\Temp\ccc7K78d.s:689    .text.verify_channel:0000000000000146 .L0 
C:\Users\stapi\AppData\Local\Temp\ccc7K78d.s:693    .text.verify_channel:0000000000000148 .L0 
C:\Users\stapi\AppData\Local\Temp\ccc7K78d.s:695    .text.verify_channel:000000000000014a .L0 
C:\Users\stapi\AppData\Local\Temp\ccc7K78d.s:697    .text.verify_channel:000000000000014c .L0 
C:\Users\stapi\AppData\Local\Temp\ccc7K78d.s:699    .text.verify_channel:000000000000014e .L0 
C:\Users\stapi\AppData\Local\Temp\ccc7K78d.s:701    .text.verify_channel:0000000000000150 .L0 
C:\Users\stapi\AppData\Local\Temp\ccc7K78d.s:703    .text.verify_channel:0000000000000152 .L0 
C:\Users\stapi\AppData\Local\Temp\ccc7K78d.s:705    .text.verify_channel:0000000000000154 .L0 
C:\Users\stapi\AppData\Local\Temp\ccc7K78d.s:709    .text.verify_channel:0000000000000158 .L0 
C:\Users\stapi\AppData\Local\Temp\ccc7K78d.s:710    .text.verify_channel:0000000000000158 .L0 
C:\Users\stapi\AppData\Local\Temp\ccc7K78d.s:711    .text.verify_channel:0000000000000158 .L0 
C:\Users\stapi\AppData\Local\Temp\ccc7K78d.s:712    .text.verify_channel:0000000000000158 .L0 
C:\Users\stapi\AppData\Local\Temp\ccc7K78d.s:719    .text.verify_channel:0000000000000168 .L0 
C:\Users\stapi\AppData\Local\Temp\ccc7K78d.s:721    .text.verify_channel:000000000000016a .L0 
C:\Users\stapi\AppData\Local\Temp\ccc7K78d.s:722    .text.verify_channel:000000000000016a .L0 
C:\Users\stapi\AppData\Local\Temp\ccc7K78d.s:725    .text.verify_channel:0000000000000170 .L0 
C:\Users\stapi\AppData\Local\Temp\ccc7K78d.s:727    .text.verify_channel:0000000000000172 .L0 
C:\Users\stapi\AppData\Local\Temp\ccc7K78d.s:729    .text.verify_channel:0000000000000176 .L0 
C:\Users\stapi\AppData\Local\Temp\ccc7K78d.s:731    .text.verify_channel:000000000000017a .L0 
C:\Users\stapi\AppData\Local\Temp\ccc7K78d.s:733    .text.verify_channel:000000000000017e .L0 
C:\Users\stapi\AppData\Local\Temp\ccc7K78d.s:735    .text.verify_channel:0000000000000182 .L0 
C:\Users\stapi\AppData\Local\Temp\ccc7K78d.s:737    .text.verify_channel:0000000000000186 .L0 
C:\Users\stapi\AppData\Local\Temp\ccc7K78d.s:739    .text.verify_channel:000000000000018a .L0 
C:\Users\stapi\AppData\Local\Temp\ccc7K78d.s:741    .text.verify_channel:000000000000018e .L0 
C:\Users\stapi\AppData\Local\Temp\ccc7K78d.s:743    .text.verify_channel:0000000000000192 .L0 
C:\Users\stapi\AppData\Local\Temp\ccc7K78d.s:745    .text.verify_channel:0000000000000196 .L0 
C:\Users\stapi\AppData\Local\Temp\ccc7K78d.s:747    .text.verify_channel:000000000000019a .L0 
C:\Users\stapi\AppData\Local\Temp\ccc7K78d.s:749    .text.verify_channel:000000000000019e .L0 
C:\Users\stapi\AppData\Local\Temp\ccc7K78d.s:751    .text.verify_channel:00000000000001a2 .L0 
C:\Users\stapi\AppData\Local\Temp\ccc7K78d.s:756    .text.verify_channel:00000000000001a8 .L0 
C:\Users\stapi\AppData\Local\Temp\ccc7K78d.s:758    .text.verify_channel:00000000000001aa .L0 
C:\Users\stapi\AppData\Local\Temp\ccc7K78d.s:759    .text.verify_channel:00000000000001aa .L0 
C:\Users\stapi\AppData\Local\Temp\ccc7K78d.s:761    .text.verify_channel:00000000000001ac .L0 
C:\Users\stapi\AppData\Local\Temp\ccc7K78d.s:763    .text.verify_channel:00000000000001ae .L0 
C:\Users\stapi\AppData\Local\Temp\ccc7K78d.s:768    .text.verify_channel:00000000000001b0 .L0 
C:\Users\stapi\AppData\Local\Temp\ccc7K78d.s:769    .text.verify_channel:00000000000001b0 .L0 
C:\Users\stapi\AppData\Local\Temp\ccc7K78d.s:772    .text.verify_channel:00000000000001b2 .L0 
C:\Users\stapi\AppData\Local\Temp\ccc7K78d.s:775    .text.verify_channel:00000000000001b4 .L0 
C:\Users\stapi\AppData\Local\Temp\ccc7K78d.s:776    .text.verify_channel:00000000000001b4 .L0 
C:\Users\stapi\AppData\Local\Temp\ccc7K78d.s:781    .text.verify_channel:00000000000001be .L0 
C:\Users\stapi\AppData\Local\Temp\ccc7K78d.s:782    .text.verify_channel:00000000000001be .L0 
C:\Users\stapi\AppData\Local\Temp\ccc7K78d.s:784    .text.verify_channel:00000000000001c0 .L0 
C:\Users\stapi\AppData\Local\Temp\ccc7K78d.s:791    .text.verify_channel:00000000000001c4 .L0 
C:\Users\stapi\AppData\Local\Temp\ccc7K78d.s:792    .text.verify_channel:00000000000001c4 .L0 
C:\Users\stapi\AppData\Local\Temp\ccc7K78d.s:795    .text.verify_channel:00000000000001cc .L0 
C:\Users\stapi\AppData\Local\Temp\ccc7K78d.s:802    .text.wpas_supp_op_classes:0000000000000000 wpas_supp_op_classes
C:\Users\stapi\AppData\Local\Temp\ccc7K78d.s:805    .text.wpas_supp_op_classes:0000000000000000 .L0 
C:\Users\stapi\AppData\Local\Temp\ccc7K78d.s:807    .text.wpas_supp_op_classes:0000000000000000 .L0 
C:\Users\stapi\AppData\Local\Temp\ccc7K78d.s:808    .text.wpas_supp_op_classes:0000000000000008 .L0 
C:\Users\stapi\AppData\Local\Temp\ccc7K78d.s:809    .text.wpas_supp_op_classes:0000000000000008 .L0 
C:\Users\stapi\AppData\Local\Temp\ccc7K78d.s:810    .text.wpas_supp_op_classes:0000000000000008 .L0 
C:\Users\stapi\AppData\Local\Temp\ccc7K78d.s:811    .text.wpas_supp_op_classes:0000000000000008 .L0 
C:\Users\stapi\AppData\Local\Temp\ccc7K78d.s:812    .text.wpas_supp_op_classes:0000000000000008 .L0 
C:\Users\stapi\AppData\Local\Temp\ccc7K78d.s:813    .text.wpas_supp_op_classes:0000000000000008 .L0 
C:\Users\stapi\AppData\Local\Temp\ccc7K78d.s:814    .text.wpas_supp_op_classes:0000000000000008 .L0 
C:\Users\stapi\AppData\Local\Temp\ccc7K78d.s:815    .text.wpas_supp_op_classes:0000000000000008 .L0 
C:\Users\stapi\AppData\Local\Temp\ccc7K78d.s:816    .text.wpas_supp_op_classes:0000000000000008 .L0 
C:\Users\stapi\AppData\Local\Temp\ccc7K78d.s:817    .text.wpas_supp_op_classes:0000000000000008 .L0 
C:\Users\stapi\AppData\Local\Temp\ccc7K78d.s:818    .text.wpas_supp_op_classes:0000000000000008 .L0 
C:\Users\stapi\AppData\Local\Temp\ccc7K78d.s:819    .text.wpas_supp_op_classes:0000000000000008 .L0 
C:\Users\stapi\AppData\Local\Temp\ccc7K78d.s:820    .text.wpas_supp_op_classes:0000000000000008 .L0 
C:\Users\stapi\AppData\Local\Temp\ccc7K78d.s:821    .text.wpas_supp_op_classes:0000000000000008 .L0 
C:\Users\stapi\AppData\Local\Temp\ccc7K78d.s:823    .text.wpas_supp_op_classes:0000000000000008 .L0 
C:\Users\stapi\AppData\Local\Temp\ccc7K78d.s:825    .text.wpas_supp_op_classes:0000000000000008 .L0 
C:\Users\stapi\AppData\Local\Temp\ccc7K78d.s:826    .text.wpas_supp_op_classes:0000000000000008 .L0 
C:\Users\stapi\AppData\Local\Temp\ccc7K78d.s:827    .text.wpas_supp_op_classes:0000000000000008 .L0 
C:\Users\stapi\AppData\Local\Temp\ccc7K78d.s:829    .text.wpas_supp_op_classes:000000000000000c .L0 
C:\Users\stapi\AppData\Local\Temp\ccc7K78d.s:832    .text.wpas_supp_op_classes:0000000000000014 .L0 
C:\Users\stapi\AppData\Local\Temp\ccc7K78d.s:834    .text.wpas_supp_op_classes:0000000000000014 .L0 
C:\Users\stapi\AppData\Local\Temp\ccc7K78d.s:836    .text.wpas_supp_op_classes:0000000000000018 .L0 
C:\Users\stapi\AppData\Local\Temp\ccc7K78d.s:840    .text.wpas_supp_op_classes:000000000000001a .L0 
C:\Users\stapi\AppData\Local\Temp\ccc7K78d.s:841    .text.wpas_supp_op_classes:000000000000001a .L0 
C:\Users\stapi\AppData\Local\Temp\ccc7K78d.s:843    .text.wpas_supp_op_classes:000000000000001e .L0 
C:\Users\stapi\AppData\Local\Temp\ccc7K78d.s:846    .text.wpas_supp_op_classes:0000000000000020 .L0 
C:\Users\stapi\AppData\Local\Temp\ccc7K78d.s:849    .text.wpas_supp_op_classes:0000000000000024 .L0 
C:\Users\stapi\AppData\Local\Temp\ccc7K78d.s:850    .text.wpas_supp_op_classes:0000000000000024 .L0 
C:\Users\stapi\AppData\Local\Temp\ccc7K78d.s:857    .text.wpas_supp_op_classes:0000000000000030 .L0 
C:\Users\stapi\AppData\Local\Temp\ccc7K78d.s:858    .text.wpas_supp_op_classes:0000000000000030 .L0 
C:\Users\stapi\AppData\Local\Temp\ccc7K78d.s:860    .text.wpas_supp_op_classes:0000000000000032 .L0 
C:\Users\stapi\AppData\Local\Temp\ccc7K78d.s:864    .text.wpas_supp_op_classes:0000000000000034 .L0 
C:\Users\stapi\AppData\Local\Temp\ccc7K78d.s:866    .text.wpas_supp_op_classes:0000000000000038 .L0 
C:\Users\stapi\AppData\Local\Temp\ccc7K78d.s:869    .text.wpas_supp_op_classes:000000000000003c .L0 
C:\Users\stapi\AppData\Local\Temp\ccc7K78d.s:873    .text.wpas_supp_op_classes:000000000000003e .L0 
C:\Users\stapi\AppData\Local\Temp\ccc7K78d.s:880    .text.wpas_supp_op_classes:0000000000000042 .L0 
C:\Users\stapi\AppData\Local\Temp\ccc7K78d.s:881    .text.wpas_supp_op_classes:0000000000000042 .L0 
C:\Users\stapi\AppData\Local\Temp\ccc7K78d.s:883    .text.wpas_supp_op_classes:0000000000000046 .L0 
C:\Users\stapi\AppData\Local\Temp\ccc7K78d.s:887    .text.wpas_supp_op_classes:000000000000004a .L0 
C:\Users\stapi\AppData\Local\Temp\ccc7K78d.s:889    .text.wpas_supp_op_classes:000000000000004e .L0 
C:\Users\stapi\AppData\Local\Temp\ccc7K78d.s:890    .text.wpas_supp_op_classes:000000000000004e .L0 
C:\Users\stapi\AppData\Local\Temp\ccc7K78d.s:892    .text.wpas_supp_op_classes:0000000000000056 .L0 
C:\Users\stapi\AppData\Local\Temp\ccc7K78d.s:893    .text.wpas_supp_op_classes:0000000000000056 .L0 
C:\Users\stapi\AppData\Local\Temp\ccc7K78d.s:894    .text.wpas_supp_op_classes:0000000000000056 .L0 
C:\Users\stapi\AppData\Local\Temp\ccc7K78d.s:895    .text.wpas_supp_op_classes:0000000000000056 .L0 
C:\Users\stapi\AppData\Local\Temp\ccc7K78d.s:896    .text.wpas_supp_op_classes:0000000000000056 .L0 
C:\Users\stapi\AppData\Local\Temp\ccc7K78d.s:897    .text.wpas_supp_op_classes:0000000000000056 .L0 
C:\Users\stapi\AppData\Local\Temp\ccc7K78d.s:898    .text.wpas_supp_op_classes:0000000000000056 .L0 
C:\Users\stapi\AppData\Local\Temp\ccc7K78d.s:899    .text.wpas_supp_op_classes:0000000000000056 .L0 
C:\Users\stapi\AppData\Local\Temp\ccc7K78d.s:900    .text.wpas_supp_op_classes:0000000000000056 .L0 
C:\Users\stapi\AppData\Local\Temp\ccc7K78d.s:901    .text.wpas_supp_op_classes:0000000000000056 .L0 
C:\Users\stapi\AppData\Local\Temp\ccc7K78d.s:902    .text.wpas_supp_op_classes:0000000000000056 .L0 
C:\Users\stapi\AppData\Local\Temp\ccc7K78d.s:903    .text.wpas_supp_op_classes:0000000000000056 .L0 
C:\Users\stapi\AppData\Local\Temp\ccc7K78d.s:904    .text.wpas_supp_op_classes:0000000000000056 .L0 
C:\Users\stapi\AppData\Local\Temp\ccc7K78d.s:905    .text.wpas_supp_op_classes:0000000000000056 .L0 
C:\Users\stapi\AppData\Local\Temp\ccc7K78d.s:908    .text.wpas_supp_op_classes:0000000000000056 .L0 
C:\Users\stapi\AppData\Local\Temp\ccc7K78d.s:912    .text.wpas_supp_op_classes:0000000000000056 .L0 
C:\Users\stapi\AppData\Local\Temp\ccc7K78d.s:913    .text.wpas_supp_op_classes:0000000000000056 .L0 
C:\Users\stapi\AppData\Local\Temp\ccc7K78d.s:914    .text.wpas_supp_op_classes:0000000000000056 .L0 
C:\Users\stapi\AppData\Local\Temp\ccc7K78d.s:915    .text.wpas_supp_op_classes:0000000000000056 .L0 
C:\Users\stapi\AppData\Local\Temp\ccc7K78d.s:916    .text.wpas_supp_op_classes:0000000000000056 .L0 
C:\Users\stapi\AppData\Local\Temp\ccc7K78d.s:917    .text.wpas_supp_op_classes:0000000000000056 .L0 
C:\Users\stapi\AppData\Local\Temp\ccc7K78d.s:918    .text.wpas_supp_op_classes:0000000000000056 .L0 
C:\Users\stapi\AppData\Local\Temp\ccc7K78d.s:919    .text.wpas_supp_op_classes:0000000000000056 .L0 
C:\Users\stapi\AppData\Local\Temp\ccc7K78d.s:920    .text.wpas_supp_op_classes:0000000000000056 .L0 
C:\Users\stapi\AppData\Local\Temp\ccc7K78d.s:921    .text.wpas_supp_op_classes:0000000000000056 .L0 
C:\Users\stapi\AppData\Local\Temp\ccc7K78d.s:938    .text.wpas_supp_op_classes:0000000000000080 .L0 
C:\Users\stapi\AppData\Local\Temp\ccc7K78d.s:939    .text.wpas_supp_op_classes:0000000000000080 .L0 
C:\Users\stapi\AppData\Local\Temp\ccc7K78d.s:942    .text.wpas_supp_op_classes:0000000000000082 .L0 
C:\Users\stapi\AppData\Local\Temp\ccc7K78d.s:943    .text.wpas_supp_op_classes:0000000000000082 .L0 
C:\Users\stapi\AppData\Local\Temp\ccc7K78d.s:944    .text.wpas_supp_op_classes:0000000000000082 .L0 
C:\Users\stapi\AppData\Local\Temp\ccc7K78d.s:945    .text.wpas_supp_op_classes:0000000000000082 .L0 
C:\Users\stapi\AppData\Local\Temp\ccc7K78d.s:946    .text.wpas_supp_op_classes:0000000000000082 .L0 
C:\Users\stapi\AppData\Local\Temp\ccc7K78d.s:950    .text.wpas_supp_op_classes:000000000000008a .L0 
C:\Users\stapi\AppData\Local\Temp\ccc7K78d.s:951    .text.wpas_supp_op_classes:000000000000008a .L0 
C:\Users\stapi\AppData\Local\Temp\ccc7K78d.s:957    .text.wpas_supp_op_classes:000000000000009a .L0 
C:\Users\stapi\AppData\Local\Temp\ccc7K78d.s:958    .text.wpas_supp_op_classes:000000000000009a .L0 
C:\Users\stapi\AppData\Local\Temp\ccc7K78d.s:959    .text.wpas_supp_op_classes:000000000000009a .L0 
C:\Users\stapi\AppData\Local\Temp\ccc7K78d.s:961    .text.wpas_supp_op_classes:000000000000009c .L0 
C:\Users\stapi\AppData\Local\Temp\ccc7K78d.s:965    .text.wpas_supp_op_classes:000000000000009e .L0 
C:\Users\stapi\AppData\Local\Temp\ccc7K78d.s:966    .text.wpas_supp_op_classes:000000000000009e .L0 
C:\Users\stapi\AppData\Local\Temp\ccc7K78d.s:975    .text.wpas_supp_op_classes:00000000000000b8 .L0 
C:\Users\stapi\AppData\Local\Temp\ccc7K78d.s:977    .text.wpas_supp_op_classes:00000000000000ba .L0 
C:\Users\stapi\AppData\Local\Temp\ccc7K78d.s:978    .text.wpas_supp_op_classes:00000000000000ba .L0 
C:\Users\stapi\AppData\Local\Temp\ccc7K78d.s:981    .text.wpas_supp_op_classes:00000000000000bc .L0 
C:\Users\stapi\AppData\Local\Temp\ccc7K78d.s:982    .text.wpas_supp_op_classes:00000000000000bc .L0 
C:\Users\stapi\AppData\Local\Temp\ccc7K78d.s:989    .text.wpas_supp_op_classes:00000000000000c0 .L0 
C:\Users\stapi\AppData\Local\Temp\ccc7K78d.s:996    .text.wpas_supp_op_classes:00000000000000c4 .L0 
C:\Users\stapi\AppData\Local\Temp\ccc7K78d.s:997    .text.wpas_supp_op_classes:00000000000000c4 .L0 
C:\Users\stapi\AppData\Local\Temp\ccc7K78d.s:1000   .text.wpas_supp_op_classes:00000000000000cc .L0 
C:\Users\stapi\AppData\Local\Temp\ccc7K78d.s:1001   .text.wpas_supp_op_classes:00000000000000cc .L0 
C:\Users\stapi\AppData\Local\Temp\ccc7K78d.s:1008   .text.wpas_supp_op_classes:00000000000000e2 .L0 
C:\Users\stapi\AppData\Local\Temp\ccc7K78d.s:1011   .text.wpas_supp_op_classes:00000000000000e6 .L0 
C:\Users\stapi\AppData\Local\Temp\ccc7K78d.s:1017   .text.wpas_supp_op_classes:00000000000000f8 .L0 
C:\Users\stapi\AppData\Local\Temp\ccc7K78d.s:1020   .text.wpas_supp_op_classes:00000000000000fc .L0 
C:\Users\stapi\AppData\Local\Temp\ccc7K78d.s:1026   .text.wpas_supp_op_classes:000000000000010e .L0 
C:\Users\stapi\AppData\Local\Temp\ccc7K78d.s:1032   .text.wpas_supp_op_classes:0000000000000110 .L0 
C:\Users\stapi\AppData\Local\Temp\ccc7K78d.s:1033   .text.wpas_supp_op_classes:0000000000000110 .L0 
C:\Users\stapi\AppData\Local\Temp\ccc7K78d.s:1035   .text.wpas_supp_op_classes:0000000000000114 .L0 
C:\Users\stapi\AppData\Local\Temp\ccc7K78d.s:1038   .text.wpas_supp_op_classes:0000000000000116 .L0 
C:\Users\stapi\AppData\Local\Temp\ccc7K78d.s:1045   .text.wpas_supp_op_classes:000000000000011c .L0 
C:\Users\stapi\AppData\Local\Temp\ccc7K78d.s:1046   .text.wpas_supp_op_classes:000000000000011c .L0 
C:\Users\stapi\AppData\Local\Temp\ccc7K78d.s:1049   .text.wpas_supp_op_classes:0000000000000120 .L0 
C:\Users\stapi\AppData\Local\Temp\ccc7K78d.s:1050   .text.wpas_supp_op_classes:0000000000000120 .L0 
C:\Users\stapi\AppData\Local\Temp\ccc7K78d.s:1051   .text.wpas_supp_op_classes:0000000000000120 .L0 
C:\Users\stapi\AppData\Local\Temp\ccc7K78d.s:1058   .text.wpas_supp_op_classes:0000000000000136 .L0 
C:\Users\stapi\AppData\Local\Temp\ccc7K78d.s:1060   .text.wpas_supp_op_classes:0000000000000138 .L0 
C:\Users\stapi\AppData\Local\Temp\ccc7K78d.s:1062   .text.wpas_supp_op_classes:000000000000013a .L0 
C:\Users\stapi\AppData\Local\Temp\ccc7K78d.s:1069   .text.wpas_supp_op_classes:000000000000014e .L0 
C:\Users\stapi\AppData\Local\Temp\ccc7K78d.s:1073   .text.wpas_supp_op_classes:0000000000000152 .L0 
C:\Users\stapi\AppData\Local\Temp\ccc7K78d.s:1074   .text.wpas_supp_op_classes:0000000000000152 .L0 
C:\Users\stapi\AppData\Local\Temp\ccc7K78d.s:1081   .text.wpas_supp_op_classes:0000000000000166 .L0 
C:\Users\stapi\AppData\Local\Temp\ccc7K78d.s:1084   .text.wpas_supp_op_classes:0000000000000168 .L0 
C:\Users\stapi\AppData\Local\Temp\ccc7K78d.s:1085   .text.wpas_supp_op_classes:0000000000000168 .L0 
C:\Users\stapi\AppData\Local\Temp\ccc7K78d.s:1089   .text.wpas_supp_op_classes:000000000000016a .L0 
C:\Users\stapi\AppData\Local\Temp\ccc7K78d.s:1090   .text.wpas_supp_op_classes:000000000000016a .L0 
C:\Users\stapi\AppData\Local\Temp\ccc7K78d.s:1097   .text.wpas_supp_op_classes:000000000000017e .L0 
C:\Users\stapi\AppData\Local\Temp\ccc7K78d.s:1099   .text.wpas_supp_op_classes:0000000000000180 .L0 
C:\Users\stapi\AppData\Local\Temp\ccc7K78d.s:1106   .text.wpas_supp_op_classes:0000000000000194 .L0 
C:\Users\stapi\AppData\Local\Temp\ccc7K78d.s:1108   .text.wpas_supp_op_classes:0000000000000196 .L0 
C:\Users\stapi\AppData\Local\Temp\ccc7K78d.s:1109   .text.wpas_supp_op_classes:0000000000000196 .L0 
C:\Users\stapi\AppData\Local\Temp\ccc7K78d.s:1113   .text.wpas_supp_op_classes:0000000000000198 .L0 
C:\Users\stapi\AppData\Local\Temp\ccc7K78d.s:1114   .text.wpas_supp_op_classes:0000000000000198 .L0 
C:\Users\stapi\AppData\Local\Temp\ccc7K78d.s:1121   .text.wpas_supp_op_classes:00000000000001ac .L0 
C:\Users\stapi\AppData\Local\Temp\ccc7K78d.s:1123   .text.wpas_supp_op_classes:00000000000001ae .L0 
C:\Users\stapi\AppData\Local\Temp\ccc7K78d.s:1130   .text.wpas_supp_op_classes:00000000000001c2 .L0 
C:\Users\stapi\AppData\Local\Temp\ccc7K78d.s:1132   .text.wpas_supp_op_classes:00000000000001c4 .L0 
C:\Users\stapi\AppData\Local\Temp\ccc7K78d.s:1133   .text.wpas_supp_op_classes:00000000000001c4 .L0 
C:\Users\stapi\AppData\Local\Temp\ccc7K78d.s:1137   .text.wpas_supp_op_classes:00000000000001c6 .L0 
C:\Users\stapi\AppData\Local\Temp\ccc7K78d.s:1138   .text.wpas_supp_op_classes:00000000000001c6 .L0 
C:\Users\stapi\AppData\Local\Temp\ccc7K78d.s:1145   .text.wpas_supp_op_classes:00000000000001da .L0 
C:\Users\stapi\AppData\Local\Temp\ccc7K78d.s:1147   .text.wpas_supp_op_classes:00000000000001dc .L0 
C:\Users\stapi\AppData\Local\Temp\ccc7K78d.s:1154   .text.wpas_supp_op_classes:00000000000001f0 .L0 
C:\Users\stapi\AppData\Local\Temp\ccc7K78d.s:1156   .text.wpas_supp_op_classes:00000000000001f2 .L0 
C:\Users\stapi\AppData\Local\Temp\ccc7K78d.s:1157   .text.wpas_supp_op_classes:00000000000001f2 .L0 
C:\Users\stapi\AppData\Local\Temp\ccc7K78d.s:1161   .text.wpas_supp_op_classes:00000000000001f4 .L0 
C:\Users\stapi\AppData\Local\Temp\ccc7K78d.s:1162   .text.wpas_supp_op_classes:00000000000001f4 .L0 
C:\Users\stapi\AppData\Local\Temp\ccc7K78d.s:1166   .text.wpas_supp_op_classes:00000000000001fa .L0 
C:\Users\stapi\AppData\Local\Temp\ccc7K78d.s:1173   .text.wpas_supp_op_classes:000000000000020e .L0 
C:\Users\stapi\AppData\Local\Temp\ccc7K78d.s:1175   .text.wpas_supp_op_classes:0000000000000210 .L0 
C:\Users\stapi\AppData\Local\Temp\ccc7K78d.s:1182   .text.wpas_supp_op_classes:0000000000000224 .L0 
C:\Users\stapi\AppData\Local\Temp\ccc7K78d.s:1184   .text.wpas_supp_op_classes:0000000000000226 .L0 
C:\Users\stapi\AppData\Local\Temp\ccc7K78d.s:1191   .text.wpas_supp_op_classes:000000000000023a .L0 
C:\Users\stapi\AppData\Local\Temp\ccc7K78d.s:1193   .text.wpas_supp_op_classes:000000000000023c .L0 
C:\Users\stapi\AppData\Local\Temp\ccc7K78d.s:1200   .text.wpas_supp_op_classes:0000000000000250 .L0 
C:\Users\stapi\AppData\Local\Temp\ccc7K78d.s:1206   .text.wpas_supp_op_classes:0000000000000254 .L0 
C:\Users\stapi\AppData\Local\Temp\ccc7K78d.s:1207   .text.wpas_supp_op_classes:0000000000000254 .L0 
C:\Users\stapi\AppData\Local\Temp\ccc7K78d.s:1210   .text.wpas_supp_op_classes:0000000000000258 .L0 
C:\Users\stapi\AppData\Local\Temp\ccc7K78d.s:1213   .text.wpas_supp_op_classes:000000000000025c .L0 
C:\Users\stapi\AppData\Local\Temp\ccc7K78d.s:1215   .text.wpas_supp_op_classes:000000000000025e .L0 
C:\Users\stapi\AppData\Local\Temp\ccc7K78d.s:1220   .text.wpas_supp_op_classes:0000000000000262 .L0 
C:\Users\stapi\AppData\Local\Temp\ccc7K78d.s:1222   .text.wpas_supp_op_classes:0000000000000266 .L0 
C:\Users\stapi\AppData\Local\Temp\ccc7K78d.s:1225   .text.wpas_supp_op_classes:0000000000000268 .L0 
C:\Users\stapi\AppData\Local\Temp\ccc7K78d.s:1231   .text.wpas_supp_op_classes:0000000000000274 .L0 
C:\Users\stapi\AppData\Local\Temp\ccc7K78d.s:1232   .text.wpas_supp_op_classes:0000000000000274 .L0 
C:\Users\stapi\AppData\Local\Temp\ccc7K78d.s:1233   .text.wpas_supp_op_classes:0000000000000274 .L0 
C:\Users\stapi\AppData\Local\Temp\ccc7K78d.s:1235   .text.wpas_supp_op_classes:0000000000000276 .L0 
C:\Users\stapi\AppData\Local\Temp\ccc7K78d.s:1238   .text.wpas_supp_op_classes:000000000000027e .L0 
C:\Users\stapi\AppData\Local\Temp\ccc7K78d.s:1242   .text.wpas_supp_op_classes:0000000000000284 .L0 
C:\Users\stapi\AppData\Local\Temp\ccc7K78d.s:1243   .text.wpas_supp_op_classes:0000000000000284 .L0 
C:\Users\stapi\AppData\Local\Temp\ccc7K78d.s:1245   .text.wpas_supp_op_classes:0000000000000286 .L0 
C:\Users\stapi\AppData\Local\Temp\ccc7K78d.s:1246   .text.wpas_supp_op_classes:0000000000000286 .L0 
C:\Users\stapi\AppData\Local\Temp\ccc7K78d.s:1248   .text.wpas_supp_op_classes:000000000000028a .L0 
C:\Users\stapi\AppData\Local\Temp\ccc7K78d.s:1250   .text.wpas_supp_op_classes:000000000000028e .L0 
C:\Users\stapi\AppData\Local\Temp\ccc7K78d.s:1251   .text.wpas_supp_op_classes:000000000000028e .L0 
C:\Users\stapi\AppData\Local\Temp\ccc7K78d.s:1253   .text.wpas_supp_op_classes:0000000000000292 .L0 
C:\Users\stapi\AppData\Local\Temp\ccc7K78d.s:1257   .text.wpas_supp_op_classes:0000000000000296 .L0 
C:\Users\stapi\AppData\Local\Temp\ccc7K78d.s:1258   .text.wpas_supp_op_classes:0000000000000296 .L0 
C:\Users\stapi\AppData\Local\Temp\ccc7K78d.s:1260   .text.wpas_supp_op_classes:000000000000029a .L0 
C:\Users\stapi\AppData\Local\Temp\ccc7K78d.s:1264   .text.wpas_supp_op_classes:000000000000029c .L0 
C:\Users\stapi\AppData\Local\Temp\ccc7K78d.s:1265   .text.wpas_supp_op_classes:000000000000029c .L0 
C:\Users\stapi\AppData\Local\Temp\ccc7K78d.s:1267   .text.wpas_supp_op_classes:00000000000002a0 .L0 
C:\Users\stapi\AppData\Local\Temp\ccc7K78d.s:1272   .text.wpas_supp_op_classes:00000000000002a6 .L0 
C:\Users\stapi\AppData\Local\Temp\ccc7K78d.s:1278   .text.wpas_supp_op_classes:00000000000002aa .L0 
C:\Users\stapi\AppData\Local\Temp\ccc7K78d.s:1279   .text.wpas_supp_op_classes:00000000000002aa .L0 
C:\Users\stapi\AppData\Local\Temp\ccc7K78d.s:1286   .text.wpas_supp_op_classes:00000000000002be .L0 
C:\Users\stapi\AppData\Local\Temp\ccc7K78d.s:1288   .text.wpas_supp_op_classes:00000000000002c2 .L0 
C:\Users\stapi\AppData\Local\Temp\ccc7K78d.s:1289   .text.wpas_supp_op_classes:00000000000002c2 .L0 
C:\Users\stapi\AppData\Local\Temp\ccc7K78d.s:1291   .text.wpas_supp_op_classes:00000000000002c6 .L0 
C:\Users\stapi\AppData\Local\Temp\ccc7K78d.s:1295   .text.wpas_supp_op_classes:00000000000002c8 .L0 
C:\Users\stapi\AppData\Local\Temp\ccc7K78d.s:1296   .text.wpas_supp_op_classes:00000000000002c8 .L0 
C:\Users\stapi\AppData\Local\Temp\ccc7K78d.s:1298   .text.wpas_supp_op_classes:00000000000002cc .L0 
C:\Users\stapi\AppData\Local\Temp\ccc7K78d.s:1302   .text.wpas_supp_op_classes:00000000000002d2 .L0 
C:\Users\stapi\AppData\Local\Temp\ccc7K78d.s:128    .text.allow_channel:0000000000000072 .L0 
C:\Users\stapi\AppData\Local\Temp\ccc7K78d.s:384    .text.verify_80mhz:00000000000000f4 .L0 
C:\Users\stapi\AppData\Local\Temp\ccc7K78d.s:798    .text.verify_channel:00000000000001cc .L0 
C:\Users\stapi\AppData\Local\Temp\ccc7K78d.s:1305   .text.wpas_supp_op_classes:00000000000002d2 .L0 
                     .debug_frame:0000000000000000 .L0 
C:\Users\stapi\AppData\Local\Temp\ccc7K78d.s:56     .text.allow_channel:000000000000002a .L6
C:\Users\stapi\AppData\Local\Temp\ccc7K78d.s:76     .text.allow_channel:0000000000000048 .L7
C:\Users\stapi\AppData\Local\Temp\ccc7K78d.s:96     .text.allow_channel:000000000000005e .L3
C:\Users\stapi\AppData\Local\Temp\ccc7K78d.s:103    .text.allow_channel:0000000000000062 .L16
C:\Users\stapi\AppData\Local\Temp\ccc7K78d.s:45     .text.allow_channel:000000000000001e .L2
C:\Users\stapi\AppData\Local\Temp\ccc7K78d.s:110    .text.allow_channel:0000000000000066 .L8
C:\Users\stapi\AppData\Local\Temp\ccc7K78d.s:122    .text.allow_channel:0000000000000070 .L1
C:\Users\stapi\AppData\Local\Temp\ccc7K78d.s:130    .rodata.verify_80mhz.str1.4:0000000000000000 .LC0
C:\Users\stapi\AppData\Local\Temp\ccc7K78d.s:133    .rodata.verify_80mhz.str1.4:0000000000000008 .LC1
C:\Users\stapi\AppData\Local\Temp\ccc7K78d.s:253    .text.verify_80mhz:0000000000000078 .L31
C:\Users\stapi\AppData\Local\Temp\ccc7K78d.s:353    .text.verify_80mhz:00000000000000e4 .L17
C:\Users\stapi\AppData\Local\Temp\ccc7K78d.s:237    .text.verify_80mhz:000000000000006e .L20
C:\Users\stapi\AppData\Local\Temp\ccc7K78d.s:260    .text.verify_80mhz:000000000000007e .L21
C:\Users\stapi\AppData\Local\Temp\ccc7K78d.s:223    .text.verify_80mhz:0000000000000056 .L22
C:\Users\stapi\AppData\Local\Temp\ccc7K78d.s:203    .text.verify_80mhz:0000000000000048 .L18
C:\Users\stapi\AppData\Local\Temp\ccc7K78d.s:246    .text.verify_80mhz:0000000000000074 .L33
C:\Users\stapi\AppData\Local\Temp\ccc7K78d.s:324    .text.verify_80mhz:00000000000000ce .L59
C:\Users\stapi\AppData\Local\Temp\ccc7K78d.s:335    .text.verify_80mhz:00000000000000d6 .L28
C:\Users\stapi\AppData\Local\Temp\ccc7K78d.s:294    .text.verify_80mhz:000000000000009e .L29
C:\Users\stapi\AppData\Local\Temp\ccc7K78d.s:375    .text.verify_80mhz:00000000000000f0 .L34
C:\Users\stapi\AppData\Local\Temp\ccc7K78d.s:386    .rodata.verify_channel.str1.4:0000000000000000 .LC2
C:\Users\stapi\AppData\Local\Temp\ccc7K78d.s:451    .text.verify_channel:000000000000003a .L61
C:\Users\stapi\AppData\Local\Temp\ccc7K78d.s:486    .text.verify_channel:0000000000000050 .L62
C:\Users\stapi\AppData\Local\Temp\ccc7K78d.s:503    .text.verify_channel:0000000000000062 .L63
C:\Users\stapi\AppData\Local\Temp\ccc7K78d.s:521    .text.verify_channel:0000000000000082 .L147
C:\Users\stapi\AppData\Local\Temp\ccc7K78d.s:459    .text.verify_channel:0000000000000042 .L67
C:\Users\stapi\AppData\Local\Temp\ccc7K78d.s:525    .text.verify_channel:0000000000000086 .L149
C:\Users\stapi\AppData\Local\Temp\ccc7K78d.s:551    .text.verify_channel:00000000000000ac .L68
C:\Users\stapi\AppData\Local\Temp\ccc7K78d.s:498    .text.verify_channel:000000000000005c .L69
C:\Users\stapi\AppData\Local\Temp\ccc7K78d.s:463    .text.verify_channel:0000000000000044 .L60
C:\Users\stapi\AppData\Local\Temp\ccc7K78d.s:571    .text.verify_channel:00000000000000c6 .L70
C:\Users\stapi\AppData\Local\Temp\ccc7K78d.s:532    .text.verify_channel:0000000000000098 .L66
C:\Users\stapi\AppData\Local\Temp\ccc7K78d.s:787    .text.verify_channel:00000000000001c4 .L71
C:\Users\stapi\AppData\Local\Temp\ccc7K78d.s:668    .text.verify_channel:0000000000000132 .L90
C:\Users\stapi\AppData\Local\Temp\ccc7K78d.s:566    .text.verify_channel:00000000000000c2 .L148
C:\Users\stapi\AppData\Local\Temp\ccc7K78d.s:652    .text.verify_channel:0000000000000128 .L74
C:\Users\stapi\AppData\Local\Temp\ccc7K78d.s:675    .text.verify_channel:0000000000000138 .L75
C:\Users\stapi\AppData\Local\Temp\ccc7K78d.s:638    .text.verify_channel:0000000000000110 .L76
C:\Users\stapi\AppData\Local\Temp\ccc7K78d.s:617    .text.verify_channel:0000000000000102 .L72
C:\Users\stapi\AppData\Local\Temp\ccc7K78d.s:661    .text.verify_channel:000000000000012e .L92
C:\Users\stapi\AppData\Local\Temp\ccc7K78d.s:752    .text.verify_channel:00000000000001a6 .L150
C:\Users\stapi\AppData\Local\Temp\ccc7K78d.s:754    .text.verify_channel:00000000000001a8 .L146
C:\Users\stapi\AppData\Local\Temp\ccc7K78d.s:765    .text.verify_channel:00000000000001b0 .L86
C:\Users\stapi\AppData\Local\Temp\ccc7K78d.s:707    .text.verify_channel:0000000000000158 .L87
C:\Users\stapi\AppData\Local\Temp\ccc7K78d.s:556    .text.verify_channel:00000000000000b2 .L89
C:\Users\stapi\AppData\Local\Temp\ccc7K78d.s:838    .text.wpas_supp_op_classes:000000000000001a .L152
C:\Users\stapi\AppData\Local\Temp\ccc7K78d.s:885    .text.wpas_supp_op_classes:000000000000004a .L151
C:\Users\stapi\AppData\Local\Temp\ccc7K78d.s:907    .text.wpas_supp_op_classes:0000000000000056 .L175
C:\Users\stapi\AppData\Local\Temp\ccc7K78d.s:984    .text.wpas_supp_op_classes:00000000000000c0 .L155
C:\Users\stapi\AppData\Local\Temp\ccc7K78d.s:992    .text.wpas_supp_op_classes:00000000000000c4 .L156
C:\Users\stapi\AppData\Local\Temp\ccc7K78d.s:1027   .text.wpas_supp_op_classes:0000000000000110 .L176
C:\Users\stapi\AppData\Local\Temp\ccc7K78d.s:963    .text.wpas_supp_op_classes:000000000000009e .L158
C:\Users\stapi\AppData\Local\Temp\ccc7K78d.s:875    .text.wpas_supp_op_classes:0000000000000042 .L154
C:\Users\stapi\AppData\Local\Temp\ccc7K78d.s:1041   .text.wpas_supp_op_classes:000000000000011c .L160
C:\Users\stapi\AppData\Local\Temp\ccc7K78d.s:1203   .text.wpas_supp_op_classes:0000000000000254 .L162
C:\Users\stapi\AppData\Local\Temp\ccc7K78d.s:1070   .text.wpas_supp_op_classes:0000000000000152 .L163
C:\Users\stapi\AppData\Local\Temp\ccc7K78d.s:1164   .text.wpas_supp_op_classes:00000000000001fa .L164
C:\Users\stapi\AppData\Local\Temp\ccc7K78d.s:1111   .text.wpas_supp_op_classes:0000000000000198 .L167
C:\Users\stapi\AppData\Local\Temp\ccc7K78d.s:1135   .text.wpas_supp_op_classes:00000000000001c6 .L168
C:\Users\stapi\AppData\Local\Temp\ccc7K78d.s:1159   .text.wpas_supp_op_classes:00000000000001f4 .L169
C:\Users\stapi\AppData\Local\Temp\ccc7K78d.s:1082   .text.wpas_supp_op_classes:0000000000000168 .L166
C:\Users\stapi\AppData\Local\Temp\ccc7K78d.s:1087   .text.wpas_supp_op_classes:000000000000016a .L165
C:\Users\stapi\AppData\Local\Temp\ccc7K78d.s:1293   .text.wpas_supp_op_classes:00000000000002c8 .L171
C:\Users\stapi\AppData\Local\Temp\ccc7K78d.s:1262   .text.wpas_supp_op_classes:000000000000029c .L170
C:\Users\stapi\AppData\Local\Temp\ccc7K78d.s:1254   .text.wpas_supp_op_classes:0000000000000296 .L172
C:\Users\stapi\AppData\Local\Temp\ccc7K78d.s:1270   .text.wpas_supp_op_classes:00000000000002a6 .L179
C:\Users\stapi\AppData\Local\Temp\ccc7K78d.s:1218   .text.wpas_supp_op_classes:0000000000000262 .L173
C:\Users\stapi\AppData\Local\Temp\ccc7K78d.s:1275   .text.wpas_supp_op_classes:00000000000002aa .L174
C:\Users\stapi\AppData\Local\Temp\ccc7K78d.s:13839  .debug_abbrev:0000000000000000 .Ldebug_abbrev0
C:\Users\stapi\AppData\Local\Temp\ccc7K78d.s:17092  .debug_str:000000000000241d .LASF1155
C:\Users\stapi\AppData\Local\Temp\ccc7K78d.s:17964  .debug_str:0000000000003de0 .LASF1156
C:\Users\stapi\AppData\Local\Temp\ccc7K78d.s:17966  .debug_str:0000000000003e75 .LASF1157
C:\Users\stapi\AppData\Local\Temp\ccc7K78d.s:15726  .debug_ranges:0000000000000000 .Ldebug_ranges0
C:\Users\stapi\AppData\Local\Temp\ccc7K78d.s:15790  .debug_line:0000000000000000 .Ldebug_line0
C:\Users\stapi\AppData\Local\Temp\ccc7K78d.s:16130  .debug_str:0000000000000988 .LASF1
C:\Users\stapi\AppData\Local\Temp\ccc7K78d.s:18106  .debug_str:0000000000004315 .LASF0
C:\Users\stapi\AppData\Local\Temp\ccc7K78d.s:16698  .debug_str:00000000000018f2 .LASF2
C:\Users\stapi\AppData\Local\Temp\ccc7K78d.s:17614  .debug_str:00000000000033de .LASF3
C:\Users\stapi\AppData\Local\Temp\ccc7K78d.s:16250  .debug_str:0000000000000c9b .LASF4
C:\Users\stapi\AppData\Local\Temp\ccc7K78d.s:16924  .debug_str:0000000000001f55 .LASF5
C:\Users\stapi\AppData\Local\Temp\ccc7K78d.s:17318  .debug_str:0000000000002bb1 .LASF6
C:\Users\stapi\AppData\Local\Temp\ccc7K78d.s:16484  .debug_str:00000000000012d6 .LASF7
C:\Users\stapi\AppData\Local\Temp\ccc7K78d.s:16802  .debug_str:0000000000001c33 .LASF8
C:\Users\stapi\AppData\Local\Temp\ccc7K78d.s:17414  .debug_str:0000000000002e32 .LASF9
C:\Users\stapi\AppData\Local\Temp\ccc7K78d.s:17408  .debug_str:0000000000002e08 .LASF10
C:\Users\stapi\AppData\Local\Temp\ccc7K78d.s:17064  .debug_str:000000000000232e .LASF11
C:\Users\stapi\AppData\Local\Temp\ccc7K78d.s:15820  .debug_str:00000000000000ba .LASF12
C:\Users\stapi\AppData\Local\Temp\ccc7K78d.s:15794  .debug_str:0000000000000009 .LASF13
C:\Users\stapi\AppData\Local\Temp\ccc7K78d.s:17682  .debug_str:00000000000035e3 .LASF14
C:\Users\stapi\AppData\Local\Temp\ccc7K78d.s:17722  .debug_str:00000000000036e6 .LASF15
C:\Users\stapi\AppData\Local\Temp\ccc7K78d.s:17834  .debug_str:0000000000003a06 .LASF16
C:\Users\stapi\AppData\Local\Temp\ccc7K78d.s:17690  .debug_str:000000000000361c .LASF17
C:\Users\stapi\AppData\Local\Temp\ccc7K78d.s:16874  .debug_str:0000000000001e1d .LASF18
C:\Users\stapi\AppData\Local\Temp\ccc7K78d.s:17714  .debug_str:00000000000036b8 .LASF19
C:\Users\stapi\AppData\Local\Temp\ccc7K78d.s:18064  .debug_str:00000000000041ec .LASF20
C:\Users\stapi\AppData\Local\Temp\ccc7K78d.s:15988  .debug_str:0000000000000577 .LASF21
C:\Users\stapi\AppData\Local\Temp\ccc7K78d.s:16518  .debug_str:00000000000013d5 .LASF22
C:\Users\stapi\AppData\Local\Temp\ccc7K78d.s:16556  .debug_str:00000000000014c2 .LASF23
C:\Users\stapi\AppData\Local\Temp\ccc7K78d.s:16646  .debug_str:0000000000001744 .LASF24
C:\Users\stapi\AppData\Local\Temp\ccc7K78d.s:17548  .debug_str:00000000000031d2 .LASF26
C:\Users\stapi\AppData\Local\Temp\ccc7K78d.s:17810  .debug_str:0000000000003964 .LASF25
C:\Users\stapi\AppData\Local\Temp\ccc7K78d.s:16748  .debug_str:0000000000001a97 .LASF27
C:\Users\stapi\AppData\Local\Temp\ccc7K78d.s:16456  .debug_str:0000000000001231 .LASF28
C:\Users\stapi\AppData\Local\Temp\ccc7K78d.s:16508  .debug_str:000000000000138e .LASF29
C:\Users\stapi\AppData\Local\Temp\ccc7K78d.s:16776  .debug_str:0000000000001b7d .LASF30
C:\Users\stapi\AppData\Local\Temp\ccc7K78d.s:16840  .debug_str:0000000000001d2f .LASF31
C:\Users\stapi\AppData\Local\Temp\ccc7K78d.s:16060  .debug_str:0000000000000787 .LASF32
C:\Users\stapi\AppData\Local\Temp\ccc7K78d.s:15880  .debug_str:000000000000027d .LASF33
C:\Users\stapi\AppData\Local\Temp\ccc7K78d.s:16088  .debug_str:0000000000000855 .LASF34
C:\Users\stapi\AppData\Local\Temp\ccc7K78d.s:17812  .debug_str:0000000000003969 .LASF35
C:\Users\stapi\AppData\Local\Temp\ccc7K78d.s:17808  .debug_str:000000000000395e .LASF36
C:\Users\stapi\AppData\Local\Temp\ccc7K78d.s:16790  .debug_str:0000000000001be7 .LASF37
C:\Users\stapi\AppData\Local\Temp\ccc7K78d.s:17782  .debug_str:000000000000389b .LASF38
C:\Users\stapi\AppData\Local\Temp\ccc7K78d.s:17952  .debug_str:0000000000003d99 .LASF39
C:\Users\stapi\AppData\Local\Temp\ccc7K78d.s:18050  .debug_str:000000000000418d .LASF53
C:\Users\stapi\AppData\Local\Temp\ccc7K78d.s:17488  .debug_str:0000000000003009 .LASF40
C:\Users\stapi\AppData\Local\Temp\ccc7K78d.s:17026  .debug_str:000000000000220e .LASF41
C:\Users\stapi\AppData\Local\Temp\ccc7K78d.s:17696  .debug_str:0000000000003647 .LASF42
C:\Users\stapi\AppData\Local\Temp\ccc7K78d.s:16342  .debug_str:0000000000000f08 .LASF43
C:\Users\stapi\AppData\Local\Temp\ccc7K78d.s:17416  .debug_str:0000000000002e3c .LASF44
C:\Users\stapi\AppData\Local\Temp\ccc7K78d.s:16092  .debug_str:000000000000087d .LASF45
C:\Users\stapi\AppData\Local\Temp\ccc7K78d.s:16392  .debug_str:0000000000001065 .LASF46
C:\Users\stapi\AppData\Local\Temp\ccc7K78d.s:15970  .debug_str:00000000000004e5 .LASF47
C:\Users\stapi\AppData\Local\Temp\ccc7K78d.s:17800  .debug_str:0000000000003923 .LASF48
C:\Users\stapi\AppData\Local\Temp\ccc7K78d.s:17542  .debug_str:00000000000031ab .LASF49
C:\Users\stapi\AppData\Local\Temp\ccc7K78d.s:17658  .debug_str:000000000000351e .LASF50
C:\Users\stapi\AppData\Local\Temp\ccc7K78d.s:16644  .debug_str:000000000000172f .LASF51
C:\Users\stapi\AppData\Local\Temp\ccc7K78d.s:17734  .debug_str:0000000000003750 .LASF52
C:\Users\stapi\AppData\Local\Temp\ccc7K78d.s:17160  .debug_str:0000000000002724 .LASF54
C:\Users\stapi\AppData\Local\Temp\ccc7K78d.s:16608  .debug_str:000000000000161e .LASF55
C:\Users\stapi\AppData\Local\Temp\ccc7K78d.s:16056  .debug_str:0000000000000764 .LASF56
C:\Users\stapi\AppData\Local\Temp\ccc7K78d.s:17344  .debug_str:0000000000002c57 .LASF57
C:\Users\stapi\AppData\Local\Temp\ccc7K78d.s:17340  .debug_str:0000000000002c34 .LASF58
C:\Users\stapi\AppData\Local\Temp\ccc7K78d.s:16030  .debug_str:0000000000000694 .LASF59
C:\Users\stapi\AppData\Local\Temp\ccc7K78d.s:16700  .debug_str:00000000000018fb .LASF60
C:\Users\stapi\AppData\Local\Temp\ccc7K78d.s:17816  .debug_str:0000000000003984 .LASF61
C:\Users\stapi\AppData\Local\Temp\ccc7K78d.s:17866  .debug_str:0000000000003b19 .LASF62
C:\Users\stapi\AppData\Local\Temp\ccc7K78d.s:16572  .debug_str:0000000000001520 .LASF63
C:\Users\stapi\AppData\Local\Temp\ccc7K78d.s:16622  .debug_str:0000000000001699 .LASF64
C:\Users\stapi\AppData\Local\Temp\ccc7K78d.s:17400  .debug_str:0000000000002ddc .LASF65
C:\Users\stapi\AppData\Local\Temp\ccc7K78d.s:15830  .debug_str:000000000000011b .LASF66
C:\Users\stapi\AppData\Local\Temp\ccc7K78d.s:17044  .debug_str:000000000000228d .LASF67
C:\Users\stapi\AppData\Local\Temp\ccc7K78d.s:16106  .debug_str:00000000000008c2 .LASF68
C:\Users\stapi\AppData\Local\Temp\ccc7K78d.s:16338  .debug_str:0000000000000eef .LASF69
C:\Users\stapi\AppData\Local\Temp\ccc7K78d.s:17108  .debug_str:000000000000259b .LASF70
C:\Users\stapi\AppData\Local\Temp\ccc7K78d.s:17110  .debug_str:00000000000025b3 .LASF71
C:\Users\stapi\AppData\Local\Temp\ccc7K78d.s:17106  .debug_str:0000000000002583 .LASF72
C:\Users\stapi\AppData\Local\Temp\ccc7K78d.s:17142  .debug_str:0000000000002696 .LASF73
C:\Users\stapi\AppData\Local\Temp\ccc7K78d.s:15968  .debug_str:00000000000004cb .LASF74
C:\Users\stapi\AppData\Local\Temp\ccc7K78d.s:17524  .debug_str:0000000000003125 .LASF75
C:\Users\stapi\AppData\Local\Temp\ccc7K78d.s:16178  .debug_str:0000000000000a9d .LASF76
C:\Users\stapi\AppData\Local\Temp\ccc7K78d.s:16912  .debug_str:0000000000001efe .LASF77
C:\Users\stapi\AppData\Local\Temp\ccc7K78d.s:17992  .debug_str:0000000000003fc1 .LASF78
C:\Users\stapi\AppData\Local\Temp\ccc7K78d.s:17938  .debug_str:0000000000003d2d .LASF79
C:\Users\stapi\AppData\Local\Temp\ccc7K78d.s:18012  .debug_str:0000000000004041 .LASF80
C:\Users\stapi\AppData\Local\Temp\ccc7K78d.s:16194  .debug_str:0000000000000b07 .LASF81
C:\Users\stapi\AppData\Local\Temp\ccc7K78d.s:17636  .debug_str:000000000000346b .LASF82
C:\Users\stapi\AppData\Local\Temp\ccc7K78d.s:16672  .debug_str:000000000000181b .LASF83
C:\Users\stapi\AppData\Local\Temp\ccc7K78d.s:17596  .debug_str:0000000000003329 .LASF84
C:\Users\stapi\AppData\Local\Temp\ccc7K78d.s:16668  .debug_str:00000000000017f5 .LASF85
C:\Users\stapi\AppData\Local\Temp\ccc7K78d.s:17224  .debug_str:0000000000002930 .LASF86
C:\Users\stapi\AppData\Local\Temp\ccc7K78d.s:16684  .debug_str:000000000000188b .LASF87
C:\Users\stapi\AppData\Local\Temp\ccc7K78d.s:16434  .debug_str:000000000000118a .LASF88
C:\Users\stapi\AppData\Local\Temp\ccc7K78d.s:16470  .debug_str:000000000000128c .LASF89
C:\Users\stapi\AppData\Local\Temp\ccc7K78d.s:16558  .debug_str:00000000000014c8 .LASF90
C:\Users\stapi\AppData\Local\Temp\ccc7K78d.s:16448  .debug_str:00000000000011f8 .LASF91
C:\Users\stapi\AppData\Local\Temp\ccc7K78d.s:16120  .debug_str:0000000000000943 .LASF92
C:\Users\stapi\AppData\Local\Temp\ccc7K78d.s:16070  .debug_str:00000000000007c2 .LASF93
C:\Users\stapi\AppData\Local\Temp\ccc7K78d.s:17222  .debug_str:0000000000002920 .LASF94
C:\Users\stapi\AppData\Local\Temp\ccc7K78d.s:17296  .debug_str:0000000000002b23 .LASF95
C:\Users\stapi\AppData\Local\Temp\ccc7K78d.s:16154  .debug_str:0000000000000a1a .LASF96
C:\Users\stapi\AppData\Local\Temp\ccc7K78d.s:17672  .debug_str:000000000000359c .LASF97
C:\Users\stapi\AppData\Local\Temp\ccc7K78d.s:16540  .debug_str:0000000000001452 .LASF98
C:\Users\stapi\AppData\Local\Temp\ccc7K78d.s:17836  .debug_str:0000000000003a0b .LASF99
C:\Users\stapi\AppData\Local\Temp\ccc7K78d.s:16050  .debug_str:0000000000000731 .LASF100
C:\Users\stapi\AppData\Local\Temp\ccc7K78d.s:16550  .debug_str:0000000000001496 .LASF101
C:\Users\stapi\AppData\Local\Temp\ccc7K78d.s:16592  .debug_str:00000000000015ae .LASF102
C:\Users\stapi\AppData\Local\Temp\ccc7K78d.s:16062  .debug_str:0000000000000790 .LASF103
C:\Users\stapi\AppData\Local\Temp\ccc7K78d.s:18020  .debug_str:0000000000004089 .LASF104
C:\Users\stapi\AppData\Local\Temp\ccc7K78d.s:16842  .debug_str:0000000000001d34 .LASF105
C:\Users\stapi\AppData\Local\Temp\ccc7K78d.s:17824  .debug_str:00000000000039bc .LASF106
C:\Users\stapi\AppData\Local\Temp\ccc7K78d.s:16348  .debug_str:0000000000000f3a .LASF107
C:\Users\stapi\AppData\Local\Temp\ccc7K78d.s:17902  .debug_str:0000000000003c14 .LASF108
C:\Users\stapi\AppData\Local\Temp\ccc7K78d.s:16652  .debug_str:000000000000176e .LASF109
C:\Users\stapi\AppData\Local\Temp\ccc7K78d.s:17140  .debug_str:000000000000267c .LASF110
C:\Users\stapi\AppData\Local\Temp\ccc7K78d.s:16708  .debug_str:000000000000193c .LASF111
C:\Users\stapi\AppData\Local\Temp\ccc7K78d.s:17820  .debug_str:000000000000399d .LASF112
C:\Users\stapi\AppData\Local\Temp\ccc7K78d.s:17170  .debug_str:000000000000276d .LASF113
C:\Users\stapi\AppData\Local\Temp\ccc7K78d.s:15984  .debug_str:0000000000000555 .LASF114
C:\Users\stapi\AppData\Local\Temp\ccc7K78d.s:16824  .debug_str:0000000000001cad .LASF115
C:\Users\stapi\AppData\Local\Temp\ccc7K78d.s:18088  .debug_str:0000000000004296 .LASF116
C:\Users\stapi\AppData\Local\Temp\ccc7K78d.s:17018  .debug_str:00000000000021cd .LASF117
C:\Users\stapi\AppData\Local\Temp\ccc7K78d.s:16720  .debug_str:0000000000001999 .LASF118
C:\Users\stapi\AppData\Local\Temp\ccc7K78d.s:17638  .debug_str:000000000000347e .LASF119
C:\Users\stapi\AppData\Local\Temp\ccc7K78d.s:16670  .debug_str:0000000000001804 .LASF120
C:\Users\stapi\AppData\Local\Temp\ccc7K78d.s:16148  .debug_str:00000000000009f6 .LASF121
C:\Users\stapi\AppData\Local\Temp\ccc7K78d.s:16206  .debug_str:0000000000000b70 .LASF122
C:\Users\stapi\AppData\Local\Temp\ccc7K78d.s:17498  .debug_str:0000000000003056 .LASF123
C:\Users\stapi\AppData\Local\Temp\ccc7K78d.s:17336  .debug_str:0000000000002c17 .LASF124
C:\Users\stapi\AppData\Local\Temp\ccc7K78d.s:15868  .debug_str:000000000000022c .LASF125
C:\Users\stapi\AppData\Local\Temp\ccc7K78d.s:16736  .debug_str:0000000000001a3f .LASF126
C:\Users\stapi\AppData\Local\Temp\ccc7K78d.s:17946  .debug_str:0000000000003d69 .LASF127
C:\Users\stapi\AppData\Local\Temp\ccc7K78d.s:16104  .debug_str:00000000000008bb .LASF128
C:\Users\stapi\AppData\Local\Temp\ccc7K78d.s:17886  .debug_str:0000000000003bb4 .LASF129
C:\Users\stapi\AppData\Local\Temp\ccc7K78d.s:17534  .debug_str:0000000000003173 .LASF130
C:\Users\stapi\AppData\Local\Temp\ccc7K78d.s:16878  .debug_str:0000000000001e2a .LASF131
C:\Users\stapi\AppData\Local\Temp\ccc7K78d.s:17606  .debug_str:0000000000003387 .LASF132
C:\Users\stapi\AppData\Local\Temp\ccc7K78d.s:17830  .debug_str:00000000000039eb .LASF133
C:\Users\stapi\AppData\Local\Temp\ccc7K78d.s:16220  .debug_str:0000000000000bd1 .LASF134
C:\Users\stapi\AppData\Local\Temp\ccc7K78d.s:16760  .debug_str:0000000000001ae7 .LASF135
C:\Users\stapi\AppData\Local\Temp\ccc7K78d.s:18034  .debug_str:000000000000410f .LASF136
C:\Users\stapi\AppData\Local\Temp\ccc7K78d.s:17550  .debug_str:00000000000031da .LASF137
C:\Users\stapi\AppData\Local\Temp\ccc7K78d.s:15870  .debug_str:0000000000000245 .LASF138
C:\Users\stapi\AppData\Local\Temp\ccc7K78d.s:17066  .debug_str:0000000000002339 .LASF139
C:\Users\stapi\AppData\Local\Temp\ccc7K78d.s:17334  .debug_str:0000000000002c11 .LASF140
C:\Users\stapi\AppData\Local\Temp\ccc7K78d.s:16418  .debug_str:0000000000001114 .LASF141
C:\Users\stapi\AppData\Local\Temp\ccc7K78d.s:17098  .debug_str:0000000000002529 .LASF142
C:\Users\stapi\AppData\Local\Temp\ccc7K78d.s:17100  .debug_str:000000000000253a .LASF143
C:\Users\stapi\AppData\Local\Temp\ccc7K78d.s:16814  .debug_str:0000000000001c7b .LASF144
C:\Users\stapi\AppData\Local\Temp\ccc7K78d.s:15882  .debug_str:0000000000000284 .LASF145
C:\Users\stapi\AppData\Local\Temp\ccc7K78d.s:17980  .debug_str:0000000000003f77 .LASF146
C:\Users\stapi\AppData\Local\Temp\ccc7K78d.s:16860  .debug_str:0000000000001dbb .LASF147
C:\Users\stapi\AppData\Local\Temp\ccc7K78d.s:16948  .debug_str:0000000000001ffa .LASF148
C:\Users\stapi\AppData\Local\Temp\ccc7K78d.s:16888  .debug_str:0000000000001e63 .LASF149
C:\Users\stapi\AppData\Local\Temp\ccc7K78d.s:16988  .debug_str:0000000000002105 .LASF150
C:\Users\stapi\AppData\Local\Temp\ccc7K78d.s:17772  .debug_str:0000000000003862 .LASF151
C:\Users\stapi\AppData\Local\Temp\ccc7K78d.s:18078  .debug_str:000000000000425a .LASF152
C:\Users\stapi\AppData\Local\Temp\ccc7K78d.s:15838  .debug_str:000000000000015f .LASF153
C:\Users\stapi\AppData\Local\Temp\ccc7K78d.s:16986  .debug_str:00000000000020fe .LASF154
C:\Users\stapi\AppData\Local\Temp\ccc7K78d.s:15972  .debug_str:00000000000004f1 .LASF155
C:\Users\stapi\AppData\Local\Temp\ccc7K78d.s:16192  .debug_str:0000000000000afb .LASF156
C:\Users\stapi\AppData\Local\Temp\ccc7K78d.s:16582  .debug_str:0000000000001569 .LASF157
C:\Users\stapi\AppData\Local\Temp\ccc7K78d.s:17960  .debug_str:0000000000003dc0 .LASF158
C:\Users\stapi\AppData\Local\Temp\ccc7K78d.s:16730  .debug_str:0000000000001a0d .LASF159
C:\Users\stapi\AppData\Local\Temp\ccc7K78d.s:17508  .debug_str:00000000000030a2 .LASF160
C:\Users\stapi\AppData\Local\Temp\ccc7K78d.s:17068  .debug_str:0000000000002354 .LASF161
C:\Users\stapi\AppData\Local\Temp\ccc7K78d.s:17862  .debug_str:0000000000003aff .LASF1158
C:\Users\stapi\AppData\Local\Temp\ccc7K78d.s:17704  .debug_str:0000000000003674 .LASF162
C:\Users\stapi\AppData\Local\Temp\ccc7K78d.s:16536  .debug_str:000000000000143d .LASF163
C:\Users\stapi\AppData\Local\Temp\ccc7K78d.s:17486  .debug_str:0000000000003004 .LASF164
C:\Users\stapi\AppData\Local\Temp\ccc7K78d.s:15954  .debug_str:0000000000000476 .LASF165
C:\Users\stapi\AppData\Local\Temp\ccc7K78d.s:16792  .debug_str:0000000000001bf6 .LASF166
C:\Users\stapi\AppData\Local\Temp\ccc7K78d.s:16112  .debug_str:00000000000008f3 .LASF167
C:\Users\stapi\AppData\Local\Temp\ccc7K78d.s:17854  .debug_str:0000000000003aa4 .LASF168
C:\Users\stapi\AppData\Local\Temp\ccc7K78d.s:16552  .debug_str:00000000000014a2 .LASF169
C:\Users\stapi\AppData\Local\Temp\ccc7K78d.s:16906  .debug_str:0000000000001edd .LASF170
C:\Users\stapi\AppData\Local\Temp\ccc7K78d.s:16522  .debug_str:00000000000013eb .LASF171
C:\Users\stapi\AppData\Local\Temp\ccc7K78d.s:17362  .debug_str:0000000000002cc4 .LASF172
C:\Users\stapi\AppData\Local\Temp\ccc7K78d.s:16274  .debug_str:0000000000000d39 .LASF173
C:\Users\stapi\AppData\Local\Temp\ccc7K78d.s:16158  .debug_str:0000000000000a36 .LASF174
C:\Users\stapi\AppData\Local\Temp\ccc7K78d.s:16242  .debug_str:0000000000000c67 .LASF175
C:\Users\stapi\AppData\Local\Temp\ccc7K78d.s:16532  .debug_str:000000000000141e .LASF176
C:\Users\stapi\AppData\Local\Temp\ccc7K78d.s:17776  .debug_str:0000000000003875 .LASF177
C:\Users\stapi\AppData\Local\Temp\ccc7K78d.s:16866  .debug_str:0000000000001de0 .LASF178
C:\Users\stapi\AppData\Local\Temp\ccc7K78d.s:16316  .debug_str:0000000000000e5a .LASF179
C:\Users\stapi\AppData\Local\Temp\ccc7K78d.s:16940  .debug_str:0000000000001fbf .LASF180
C:\Users\stapi\AppData\Local\Temp\ccc7K78d.s:16170  .debug_str:0000000000000a75 .LASF181
C:\Users\stapi\AppData\Local\Temp\ccc7K78d.s:17242  .debug_str:00000000000029b7 .LASF182
C:\Users\stapi\AppData\Local\Temp\ccc7K78d.s:17090  .debug_str:0000000000002408 .LASF183
C:\Users\stapi\AppData\Local\Temp\ccc7K78d.s:16920  .debug_str:0000000000001f39 .LASF202
C:\Users\stapi\AppData\Local\Temp\ccc7K78d.s:16648  .debug_str:000000000000174e .LASF184
C:\Users\stapi\AppData\Local\Temp\ccc7K78d.s:17138  .debug_str:000000000000266c .LASF185
C:\Users\stapi\AppData\Local\Temp\ccc7K78d.s:17266  .debug_str:0000000000002a73 .LASF186
C:\Users\stapi\AppData\Local\Temp\ccc7K78d.s:17328  .debug_str:0000000000002be7 .LASF187
C:\Users\stapi\AppData\Local\Temp\ccc7K78d.s:16084  .debug_str:0000000000000844 .LASF188
C:\Users\stapi\AppData\Local\Temp\ccc7K78d.s:16174  .debug_str:0000000000000a86 .LASF189
C:\Users\stapi\AppData\Local\Temp\ccc7K78d.s:17048  .debug_str:00000000000022ba .LASF190
C:\Users\stapi\AppData\Local\Temp\ccc7K78d.s:16466  .debug_str:0000000000001276 .LASF191
C:\Users\stapi\AppData\Local\Temp\ccc7K78d.s:16314  .debug_str:0000000000000e4c .LASF192
C:\Users\stapi\AppData\Local\Temp\ccc7K78d.s:17370  .debug_str:0000000000002d01 .LASF193
C:\Users\stapi\AppData\Local\Temp\ccc7K78d.s:16788  .debug_str:0000000000001bda .LASF194
C:\Users\stapi\AppData\Local\Temp\ccc7K78d.s:16478  .debug_str:00000000000012b7 .LASF195
C:\Users\stapi\AppData\Local\Temp\ccc7K78d.s:17438  .debug_str:0000000000002ee4 .LASF196
C:\Users\stapi\AppData\Local\Temp\ccc7K78d.s:16366  .debug_str:0000000000000fa7 .LASF197
C:\Users\stapi\AppData\Local\Temp\ccc7K78d.s:17234  .debug_str:0000000000002984 .LASF198
C:\Users\stapi\AppData\Local\Temp\ccc7K78d.s:17910  .debug_str:0000000000003c6a .LASF199
C:\Users\stapi\AppData\Local\Temp\ccc7K78d.s:17644  .debug_str:00000000000034ad .LASF200
C:\Users\stapi\AppData\Local\Temp\ccc7K78d.s:17620  .debug_str:0000000000003401 .LASF201
C:\Users\stapi\AppData\Local\Temp\ccc7K78d.s:15818  .debug_str:00000000000000b1 .LASF203
C:\Users\stapi\AppData\Local\Temp\ccc7K78d.s:17082  .debug_str:00000000000023cd .LASF204
C:\Users\stapi\AppData\Local\Temp\ccc7K78d.s:15912  .debug_str:0000000000000367 .LASF205
C:\Users\stapi\AppData\Local\Temp\ccc7K78d.s:16394  .debug_str:0000000000001072 .LASF206
C:\Users\stapi\AppData\Local\Temp\ccc7K78d.s:16480  .debug_str:00000000000012c0 .LASF207
C:\Users\stapi\AppData\Local\Temp\ccc7K78d.s:17852  .debug_str:0000000000003a94 .LASF208
C:\Users\stapi\AppData\Local\Temp\ccc7K78d.s:16320  .debug_str:0000000000000e6e .LASF209
C:\Users\stapi\AppData\Local\Temp\ccc7K78d.s:17040  .debug_str:000000000000226c .LASF210
C:\Users\stapi\AppData\Local\Temp\ccc7K78d.s:17346  .debug_str:0000000000002c64 .LASF211
C:\Users\stapi\AppData\Local\Temp\ccc7K78d.s:17076  .debug_str:0000000000002393 .LASF212
C:\Users\stapi\AppData\Local\Temp\ccc7K78d.s:17518  .debug_str:00000000000030f6 .LASF213
C:\Users\stapi\AppData\Local\Temp\ccc7K78d.s:17030  .debug_str:0000000000002226 .LASF214
C:\Users\stapi\AppData\Local\Temp\ccc7K78d.s:16724  .debug_str:00000000000019bf .LASF215
C:\Users\stapi\AppData\Local\Temp\ccc7K78d.s:17626  .debug_str:000000000000342e .LASF216
C:\Users\stapi\AppData\Local\Temp\ccc7K78d.s:16332  .debug_str:0000000000000ec5 .LASF217
C:\Users\stapi\AppData\Local\Temp\ccc7K78d.s:16778  .debug_str:0000000000001b8c .LASF218
C:\Users\stapi\AppData\Local\Temp\ccc7K78d.s:16210  .debug_str:0000000000000b8b .LASF219
C:\Users\stapi\AppData\Local\Temp\ccc7K78d.s:16248  .debug_str:0000000000000c92 .LASF220
C:\Users\stapi\AppData\Local\Temp\ccc7K78d.s:16704  .debug_str:000000000000191e .LASF221
C:\Users\stapi\AppData\Local\Temp\ccc7K78d.s:17300  .debug_str:0000000000002b40 .LASF222
C:\Users\stapi\AppData\Local\Temp\ccc7K78d.s:17880  .debug_str:0000000000003b8a .LASF223
C:\Users\stapi\AppData\Local\Temp\ccc7K78d.s:16118  .debug_str:0000000000000932 .LASF224
C:\Users\stapi\AppData\Local\Temp\ccc7K78d.s:17730  .debug_str:0000000000003736 .LASF225
C:\Users\stapi\AppData\Local\Temp\ccc7K78d.s:15854  .debug_str:00000000000001d6 .LASF226
C:\Users\stapi\AppData\Local\Temp\ccc7K78d.s:15914  .debug_str:000000000000036c .LASF227
C:\Users\stapi\AppData\Local\Temp\ccc7K78d.s:17130  .debug_str:000000000000262b .LASF228
C:\Users\stapi\AppData\Local\Temp\ccc7K78d.s:17762  .debug_str:0000000000003828 .LASF229
C:\Users\stapi\AppData\Local\Temp\ccc7K78d.s:17742  .debug_str:0000000000003798 .LASF230
C:\Users\stapi\AppData\Local\Temp\ccc7K78d.s:17546  .debug_str:00000000000031c5 .LASF231
C:\Users\stapi\AppData\Local\Temp\ccc7K78d.s:15808  .debug_str:0000000000000065 .LASF232
C:\Users\stapi\AppData\Local\Temp\ccc7K78d.s:16270  .debug_str:0000000000000d1b .LASF233
C:\Users\stapi\AppData\Local\Temp\ccc7K78d.s:16402  .debug_str:00000000000010a6 .LASF234
C:\Users\stapi\AppData\Local\Temp\ccc7K78d.s:16400  .debug_str:0000000000001096 .LASF235
C:\Users\stapi\AppData\Local\Temp\ccc7K78d.s:16124  .debug_str:0000000000000963 .LASF236
C:\Users\stapi\AppData\Local\Temp\ccc7K78d.s:16004  .debug_str:00000000000005f1 .LASF237
C:\Users\stapi\AppData\Local\Temp\ccc7K78d.s:17446  .debug_str:0000000000002f14 .LASF238
C:\Users\stapi\AppData\Local\Temp\ccc7K78d.s:17668  .debug_str:0000000000003578 .LASF239
C:\Users\stapi\AppData\Local\Temp\ccc7K78d.s:16936  .debug_str:0000000000001fb4 .LASF240
C:\Users\stapi\AppData\Local\Temp\ccc7K78d.s:15966  .debug_str:00000000000004c2 .LASF241
C:\Users\stapi\AppData\Local\Temp\ccc7K78d.s:16028  .debug_str:000000000000068a .LASF242
C:\Users\stapi\AppData\Local\Temp\ccc7K78d.s:17342  .debug_str:0000000000002c41 .LASF243
C:\Users\stapi\AppData\Local\Temp\ccc7K78d.s:15866  .debug_str:0000000000000221 .LASF244
C:\Users\stapi\AppData\Local\Temp\ccc7K78d.s:16012  .debug_str:0000000000000644 .LASF245
C:\Users\stapi\AppData\Local\Temp\ccc7K78d.s:17306  .debug_str:0000000000002b64 .LASF246
C:\Users\stapi\AppData\Local\Temp\ccc7K78d.s:15850  .debug_str:00000000000001b2 .LASF247
C:\Users\stapi\AppData\Local\Temp\ccc7K78d.s:17380  .debug_str:0000000000002d51 .LASF248
C:\Users\stapi\AppData\Local\Temp\ccc7K78d.s:17790  .debug_str:00000000000038d3 .LASF249
C:\Users\stapi\AppData\Local\Temp\ccc7K78d.s:15936  .debug_str:00000000000003fb .LASF250
C:\Users\stapi\AppData\Local\Temp\ccc7K78d.s:16328  .debug_str:0000000000000ead .LASF251
C:\Users\stapi\AppData\Local\Temp\ccc7K78d.s:16122  .debug_str:0000000000000952 .LASF252
C:\Users\stapi\AppData\Local\Temp\ccc7K78d.s:15994  .debug_str:000000000000059c .LASF253
C:\Users\stapi\AppData\Local\Temp\ccc7K78d.s:17182  .debug_str:00000000000027e0 .LASF254
C:\Users\stapi\AppData\Local\Temp\ccc7K78d.s:17982  .debug_str:0000000000003f81 .LASF255
C:\Users\stapi\AppData\Local\Temp\ccc7K78d.s:16658  .debug_str:00000000000017a4 .LASF256
C:\Users\stapi\AppData\Local\Temp\ccc7K78d.s:17958  .debug_str:0000000000003db4 .LASF257
C:\Users\stapi\AppData\Local\Temp\ccc7K78d.s:17348  .debug_str:0000000000002c75 .LASF258
C:\Users\stapi\AppData\Local\Temp\ccc7K78d.s:17262  .debug_str:0000000000002a58 .LASF259
C:\Users\stapi\AppData\Local\Temp\ccc7K78d.s:18014  .debug_str:0000000000004050 .LASF260
C:\Users\stapi\AppData\Local\Temp\ccc7K78d.s:18016  .debug_str:0000000000004061 .LASF261
C:\Users\stapi\AppData\Local\Temp\ccc7K78d.s:17046  .debug_str:00000000000022ac .LASF262
C:\Users\stapi\AppData\Local\Temp\ccc7K78d.s:16290  .debug_str:0000000000000da7 .LASF263
C:\Users\stapi\AppData\Local\Temp\ccc7K78d.s:16058  .debug_str:000000000000077b .LASF264
C:\Users\stapi\AppData\Local\Temp\ccc7K78d.s:16196  .debug_str:0000000000000b18 .LASF265
C:\Users\stapi\AppData\Local\Temp\ccc7K78d.s:16718  .debug_str:0000000000001992 .LASF266
C:\Users\stapi\AppData\Local\Temp\ccc7K78d.s:16890  .debug_str:0000000000001e6a .LASF267
C:\Users\stapi\AppData\Local\Temp\ccc7K78d.s:16022  .debug_str:000000000000066f .LASF268
C:\Users\stapi\AppData\Local\Temp\ccc7K78d.s:16032  .debug_str:00000000000006a7 .LASF269
C:\Users\stapi\AppData\Local\Temp\ccc7K78d.s:16288  .debug_str:0000000000000d97 .LASF270
C:\Users\stapi\AppData\Local\Temp\ccc7K78d.s:18008  .debug_str:0000000000004023 .LASF271
C:\Users\stapi\AppData\Local\Temp\ccc7K78d.s:17818  .debug_str:0000000000003993 .LASF272
C:\Users\stapi\AppData\Local\Temp\ccc7K78d.s:17200  .debug_str:0000000000002883 .LASF273
C:\Users\stapi\AppData\Local\Temp\ccc7K78d.s:17210  .debug_str:00000000000028ca .LASF274
C:\Users\stapi\AppData\Local\Temp\ccc7K78d.s:17248  .debug_str:00000000000029e2 .LASF275
C:\Users\stapi\AppData\Local\Temp\ccc7K78d.s:17312  .debug_str:0000000000002b8d .LASF276
C:\Users\stapi\AppData\Local\Temp\ccc7K78d.s:16276  .debug_str:0000000000000d43 .LASF277
C:\Users\stapi\AppData\Local\Temp\ccc7K78d.s:16172  .debug_str:0000000000000a7b .LASF278
C:\Users\stapi\AppData\Local\Temp\ccc7K78d.s:17368  .debug_str:0000000000002cf3 .LASF279
C:\Users\stapi\AppData\Local\Temp\ccc7K78d.s:17194  .debug_str:0000000000002847 .LASF280
C:\Users\stapi\AppData\Local\Temp\ccc7K78d.s:15796  .debug_str:0000000000000017 .LASF281
C:\Users\stapi\AppData\Local\Temp\ccc7K78d.s:16096  .debug_str:0000000000000894 .LASF282
C:\Users\stapi\AppData\Local\Temp\ccc7K78d.s:16688  .debug_str:00000000000018ae .LASF283
C:\Users\stapi\AppData\Local\Temp\ccc7K78d.s:17868  .debug_str:0000000000003b2c .LASF284
C:\Users\stapi\AppData\Local\Temp\ccc7K78d.s:17216  .debug_str:00000000000028f2 .LASF285
C:\Users\stapi\AppData\Local\Temp\ccc7K78d.s:16404  .debug_str:00000000000010b3 .LASF286
C:\Users\stapi\AppData\Local\Temp\ccc7K78d.s:18102  .debug_str:0000000000004300 .LASF287
C:\Users\stapi\AppData\Local\Temp\ccc7K78d.s:17912  .debug_str:0000000000003c7d .LASF288
C:\Users\stapi\AppData\Local\Temp\ccc7K78d.s:15810  .debug_str:0000000000000075 .LASF289
C:\Users\stapi\AppData\Local\Temp\ccc7K78d.s:16388  .debug_str:000000000000103f .LASF290
C:\Users\stapi\AppData\Local\Temp\ccc7K78d.s:17710  .debug_str:0000000000003696 .LASF291
C:\Users\stapi\AppData\Local\Temp\ccc7K78d.s:17434  .debug_str:0000000000002ec5 .LASF292
C:\Users\stapi\AppData\Local\Temp\ccc7K78d.s:16444  .debug_str:00000000000011e1 .LASF293
C:\Users\stapi\AppData\Local\Temp\ccc7K78d.s:16512  .debug_str:00000000000013a3 .LASF294
C:\Users\stapi\AppData\Local\Temp\ccc7K78d.s:17678  .debug_str:00000000000035c4 .LASF295
C:\Users\stapi\AppData\Local\Temp\ccc7K78d.s:15998  .debug_str:00000000000005bd .LASF296
C:\Users\stapi\AppData\Local\Temp\ccc7K78d.s:17694  .debug_str:0000000000003636 .LASF297
C:\Users\stapi\AppData\Local\Temp\ccc7K78d.s:16598  .debug_str:00000000000015d5 .LASF298
C:\Users\stapi\AppData\Local\Temp\ccc7K78d.s:16452  .debug_str:000000000000121d .LASF299
C:\Users\stapi\AppData\Local\Temp\ccc7K78d.s:17870  .debug_str:0000000000003b39 .LASF300
C:\Users\stapi\AppData\Local\Temp\ccc7K78d.s:17600  .debug_str:0000000000003345 .LASF301
C:\Users\stapi\AppData\Local\Temp\ccc7K78d.s:17814  .debug_str:000000000000396e .LASF302
C:\Users\stapi\AppData\Local\Temp\ccc7K78d.s:16500  .debug_str:0000000000001356 .LASF303
C:\Users\stapi\AppData\Local\Temp\ccc7K78d.s:17748  .debug_str:00000000000037c2 .LASF304
C:\Users\stapi\AppData\Local\Temp\ccc7K78d.s:16186  .debug_str:0000000000000ac6 .LASF305
C:\Users\stapi\AppData\Local\Temp\ccc7K78d.s:17326  .debug_str:0000000000002be0 .LASF306
C:\Users\stapi\AppData\Local\Temp\ccc7K78d.s:17660  .debug_str:0000000000003533 .LASF307
C:\Users\stapi\AppData\Local\Temp\ccc7K78d.s:17050  .debug_str:00000000000022c4 .LASF308
C:\Users\stapi\AppData\Local\Temp\ccc7K78d.s:16706  .debug_str:000000000000192b .LASF309
C:\Users\stapi\AppData\Local\Temp\ccc7K78d.s:17428  .debug_str:0000000000002e9a .LASF310
C:\Users\stapi\AppData\Local\Temp\ccc7K78d.s:17282  .debug_str:0000000000002aca .LASF311
C:\Users\stapi\AppData\Local\Temp\ccc7K78d.s:17890  .debug_str:0000000000003bca .LASF312
C:\Users\stapi\AppData\Local\Temp\ccc7K78d.s:17320  .debug_str:0000000000002bbb .LASF313
C:\Users\stapi\AppData\Local\Temp\ccc7K78d.s:17846  .debug_str:0000000000003a5f .LASF314
C:\Users\stapi\AppData\Local\Temp\ccc7K78d.s:17832  .debug_str:0000000000003a01 .LASF315
C:\Users\stapi\AppData\Local\Temp\ccc7K78d.s:17056  .debug_str:00000000000022f0 .LASF316
C:\Users\stapi\AppData\Local\Temp\ccc7K78d.s:16310  .debug_str:0000000000000e3b .LASF317
C:\Users\stapi\AppData\Local\Temp\ccc7K78d.s:17756  .debug_str:00000000000037fb .LASF318
C:\Users\stapi\AppData\Local\Temp\ccc7K78d.s:16980  .debug_str:00000000000020d6 .LASF319
C:\Users\stapi\AppData\Local\Temp\ccc7K78d.s:16560  .debug_str:00000000000014d6 .LASF320
C:\Users\stapi\AppData\Local\Temp\ccc7K78d.s:16880  .debug_str:0000000000001e35 .LASF321
C:\Users\stapi\AppData\Local\Temp\ccc7K78d.s:15990  .debug_str:0000000000000580 .LASF322
C:\Users\stapi\AppData\Local\Temp\ccc7K78d.s:17474  .debug_str:0000000000002fac .LASF323
C:\Users\stapi\AppData\Local\Temp\ccc7K78d.s:16368  .debug_str:0000000000000fb4 .LASF324
C:\Users\stapi\AppData\Local\Temp\ccc7K78d.s:16510  .debug_str:0000000000001393 .LASF325
C:\Users\stapi\AppData\Local\Temp\ccc7K78d.s:16330  .debug_str:0000000000000eb8 .LASF326
C:\Users\stapi\AppData\Local\Temp\ccc7K78d.s:17554  .debug_str:00000000000031ff .LASF327
C:\Users\stapi\AppData\Local\Temp\ccc7K78d.s:16820  .debug_str:0000000000001c95 .LASF328
C:\Users\stapi\AppData\Local\Temp\ccc7K78d.s:17272  .debug_str:0000000000002a95 .LASF329
C:\Users\stapi\AppData\Local\Temp\ccc7K78d.s:17604  .debug_str:000000000000337a .LASF330
C:\Users\stapi\AppData\Local\Temp\ccc7K78d.s:17176  .debug_str:00000000000027b2 .LASF331
C:\Users\stapi\AppData\Local\Temp\ccc7K78d.s:17404  .debug_str:0000000000002df1 .LASF332
C:\Users\stapi\AppData\Local\Temp\ccc7K78d.s:16146  .debug_str:00000000000009ec .LASF333
C:\Users\stapi\AppData\Local\Temp\ccc7K78d.s:17376  .debug_str:0000000000002d2c .LASF334
C:\Users\stapi\AppData\Local\Temp\ccc7K78d.s:17178  .debug_str:00000000000027c8 .LASF335
C:\Users\stapi\AppData\Local\Temp\ccc7K78d.s:17654  .debug_str:0000000000003500 .LASF336
C:\Users\stapi\AppData\Local\Temp\ccc7K78d.s:16258  .debug_str:0000000000000cd4 .LASF337
C:\Users\stapi\AppData\Local\Temp\ccc7K78d.s:16498  .debug_str:000000000000134d .LASF338
C:\Users\stapi\AppData\Local\Temp\ccc7K78d.s:16554  .debug_str:00000000000014ba .LASF339
C:\Users\stapi\AppData\Local\Temp\ccc7K78d.s:16590  .debug_str:00000000000015a4 .LASF340
C:\Users\stapi\AppData\Local\Temp\ccc7K78d.s:17080  .debug_str:00000000000023c1 .LASF341
C:\Users\stapi\AppData\Local\Temp\ccc7K78d.s:17166  .debug_str:0000000000002756 .LASF342
C:\Users\stapi\AppData\Local\Temp\ccc7K78d.s:16300  .debug_str:0000000000000e03 .LASF343
C:\Users\stapi\AppData\Local\Temp\ccc7K78d.s:16322  .debug_str:0000000000000e7d .LASF344
C:\Users\stapi\AppData\Local\Temp\ccc7K78d.s:16182  .debug_str:0000000000000ab6 .LASF345
C:\Users\stapi\AppData\Local\Temp\ccc7K78d.s:15942  .debug_str:000000000000042b .LASF346
C:\Users\stapi\AppData\Local\Temp\ccc7K78d.s:17484  .debug_str:0000000000002ffe .LASF347
C:\Users\stapi\AppData\Local\Temp\ccc7K78d.s:16356  .debug_str:0000000000000f71 .LASF348
C:\Users\stapi\AppData\Local\Temp\ccc7K78d.s:17122  .debug_str:0000000000002602 .LASF349
C:\Users\stapi\AppData\Local\Temp\ccc7K78d.s:17504  .debug_str:000000000000308f .LASF350
C:\Users\stapi\AppData\Local\Temp\ccc7K78d.s:16360  .debug_str:0000000000000f82 .LASF351
C:\Users\stapi\AppData\Local\Temp\ccc7K78d.s:17838  .debug_str:0000000000003a1b .LASF352
C:\Users\stapi\AppData\Local\Temp\ccc7K78d.s:16722  .debug_str:00000000000019b1 .LASF353
C:\Users\stapi\AppData\Local\Temp\ccc7K78d.s:17794  .debug_str:00000000000038f1 .LASF354
C:\Users\stapi\AppData\Local\Temp\ccc7K78d.s:16086  .debug_str:000000000000084a .LASF355
C:\Users\stapi\AppData\Local\Temp\ccc7K78d.s:17418  .debug_str:0000000000002e51 .LASF356
C:\Users\stapi\AppData\Local\Temp\ccc7K78d.s:17766  .debug_str:000000000000383a .LASF357
C:\Users\stapi\AppData\Local\Temp\ccc7K78d.s:16040  .debug_str:00000000000006e3 .LASF358
C:\Users\stapi\AppData\Local\Temp\ccc7K78d.s:16222  .debug_str:0000000000000be7 .LASF359
C:\Users\stapi\AppData\Local\Temp\ccc7K78d.s:17228  .debug_str:0000000000002949 .LASF360
C:\Users\stapi\AppData\Local\Temp\ccc7K78d.s:17738  .debug_str:0000000000003774 .LASF361
C:\Users\stapi\AppData\Local\Temp\ccc7K78d.s:18096  .debug_str:00000000000042c9 .LASF362
C:\Users\stapi\AppData\Local\Temp\ccc7K78d.s:16886  .debug_str:0000000000001e5a .LASF363
C:\Users\stapi\AppData\Local\Temp\ccc7K78d.s:16110  .debug_str:00000000000008e8 .LASF364
C:\Users\stapi\AppData\Local\Temp\ccc7K78d.s:17396  .debug_str:0000000000002db9 .LASF365
C:\Users\stapi\AppData\Local\Temp\ccc7K78d.s:17462  .debug_str:0000000000002f73 .LASF366
C:\Users\stapi\AppData\Local\Temp\ccc7K78d.s:17784  .debug_str:00000000000038af .LASF367
C:\Users\stapi\AppData\Local\Temp\ccc7K78d.s:16280  .debug_str:0000000000000d5d .LASF368
C:\Users\stapi\AppData\Local\Temp\ccc7K78d.s:17848  .debug_str:0000000000003a74 .LASF369
C:\Users\stapi\AppData\Local\Temp\ccc7K78d.s:16818  .debug_str:0000000000001c8f .LASF370
C:\Users\stapi\AppData\Local\Temp\ccc7K78d.s:17698  .debug_str:0000000000003654 .LASF371
C:\Users\stapi\AppData\Local\Temp\ccc7K78d.s:15956  .debug_str:0000000000000489 .LASF372
C:\Users\stapi\AppData\Local\Temp\ccc7K78d.s:16922  .debug_str:0000000000001f49 .LASF373
C:\Users\stapi\AppData\Local\Temp\ccc7K78d.s:16036  .debug_str:00000000000006c4 .LASF374
C:\Users\stapi\AppData\Local\Temp\ccc7K78d.s:16294  .debug_str:0000000000000dcb .LASF375
C:\Users\stapi\AppData\Local\Temp\ccc7K78d.s:17900  .debug_str:0000000000003c07 .LASF376
C:\Users\stapi\AppData\Local\Temp\ccc7K78d.s:17254  .debug_str:0000000000002a1d .LASF377
C:\Users\stapi\AppData\Local\Temp\ccc7K78d.s:16006  .debug_str:0000000000000603 .LASF378
C:\Users\stapi\AppData\Local\Temp\ccc7K78d.s:16054  .debug_str:0000000000000753 .LASF379
C:\Users\stapi\AppData\Local\Temp\ccc7K78d.s:16534  .debug_str:0000000000001428 .LASF380
C:\Users\stapi\AppData\Local\Temp\ccc7K78d.s:16136  .debug_str:00000000000009a2 .LASF381
C:\Users\stapi\AppData\Local\Temp\ccc7K78d.s:16482  .debug_str:00000000000012ca .LASF382
C:\Users\stapi\AppData\Local\Temp\ccc7K78d.s:17402  .debug_str:0000000000002de8 .LASF383
C:\Users\stapi\AppData\Local\Temp\ccc7K78d.s:16604  .debug_str:00000000000015fa .LASF384
C:\Users\stapi\AppData\Local\Temp\ccc7K78d.s:16624  .debug_str:00000000000016a7 .LASF385
C:\Users\stapi\AppData\Local\Temp\ccc7K78d.s:17004  .debug_str:0000000000002181 .LASF386
C:\Users\stapi\AppData\Local\Temp\ccc7K78d.s:18036  .debug_str:0000000000004121 .LASF387
C:\Users\stapi\AppData\Local\Temp\ccc7K78d.s:16618  .debug_str:0000000000001673 .LASF388
C:\Users\stapi\AppData\Local\Temp\ccc7K78d.s:17544  .debug_str:00000000000031bc .LASF389
C:\Users\stapi\AppData\Local\Temp\ccc7K78d.s:17936  .debug_str:0000000000003d1c .LASF390
C:\Users\stapi\AppData\Local\Temp\ccc7K78d.s:16766  .debug_str:0000000000001b20 .LASF391
C:\Users\stapi\AppData\Local\Temp\ccc7K78d.s:16374  .debug_str:0000000000000fcf .LASF392
C:\Users\stapi\AppData\Local\Temp\ccc7K78d.s:16364  .debug_str:0000000000000f9b .LASF393
C:\Users\stapi\AppData\Local\Temp\ccc7K78d.s:16218  .debug_str:0000000000000bc3 .LASF394
C:\Users\stapi\AppData\Local\Temp\ccc7K78d.s:17940  .debug_str:0000000000003d3c .LASF395
C:\Users\stapi\AppData\Local\Temp\ccc7K78d.s:17316  .debug_str:0000000000002ba7 .LASF396
C:\Users\stapi\AppData\Local\Temp\ccc7K78d.s:17566  .debug_str:0000000000003259 .LASF397
C:\Users\stapi\AppData\Local\Temp\ccc7K78d.s:16962  .debug_str:0000000000002068 .LASF398
C:\Users\stapi\AppData\Local\Temp\ccc7K78d.s:15892  .debug_str:00000000000002d5 .LASF399
C:\Users\stapi\AppData\Local\Temp\ccc7K78d.s:16318  .debug_str:0000000000000e60 .LASF400
C:\Users\stapi\AppData\Local\Temp\ccc7K78d.s:17164  .debug_str:0000000000002745 .LASF401
C:\Users\stapi\AppData\Local\Temp\ccc7K78d.s:16422  .debug_str:0000000000001129 .LASF402
C:\Users\stapi\AppData\Local\Temp\ccc7K78d.s:15858  .debug_str:00000000000001f2 .LASF403
C:\Users\stapi\AppData\Local\Temp\ccc7K78d.s:17394  .debug_str:0000000000002dae .LASF404
C:\Users\stapi\AppData\Local\Temp\ccc7K78d.s:17612  .debug_str:00000000000033cb .LASF405
C:\Users\stapi\AppData\Local\Temp\ccc7K78d.s:16312  .debug_str:0000000000000e40 .LASF406
C:\Users\stapi\AppData\Local\Temp\ccc7K78d.s:17134  .debug_str:0000000000002652 .LASF407
C:\Users\stapi\AppData\Local\Temp\ccc7K78d.s:16964  .debug_str:0000000000002071 .LASF408
C:\Users\stapi\AppData\Local\Temp\ccc7K78d.s:16966  .debug_str:000000000000207e .LASF409
C:\Users\stapi\AppData\Local\Temp\ccc7K78d.s:17556  .debug_str:0000000000003207 .LASF410
C:\Users\stapi\AppData\Local\Temp\ccc7K78d.s:16116  .debug_str:0000000000000917 .LASF411
C:\Users\stapi\AppData\Local\Temp\ccc7K78d.s:15792  .debug_str:0000000000000000 .LASF412
C:\Users\stapi\AppData\Local\Temp\ccc7K78d.s:16370  .debug_str:0000000000000fbe .LASF413
C:\Users\stapi\AppData\Local\Temp\ccc7K78d.s:16504  .debug_str:0000000000001370 .LASF414
C:\Users\stapi\AppData\Local\Temp\ccc7K78d.s:17426  .debug_str:0000000000002e8e .LASF415
C:\Users\stapi\AppData\Local\Temp\ccc7K78d.s:16516  .debug_str:00000000000013c9 .LASF416
C:\Users\stapi\AppData\Local\Temp\ccc7K78d.s:16020  .debug_str:0000000000000666 .LASF417
C:\Users\stapi\AppData\Local\Temp\ccc7K78d.s:16414  .debug_str:00000000000010fc .LASF418
C:\Users\stapi\AppData\Local\Temp\ccc7K78d.s:18024  .debug_str:00000000000040b0 .LASF419
C:\Users\stapi\AppData\Local\Temp\ccc7K78d.s:16048  .debug_str:0000000000000727 .LASF420
C:\Users\stapi\AppData\Local\Temp\ccc7K78d.s:16432  .debug_str:0000000000001183 .LASF421
C:\Users\stapi\AppData\Local\Temp\ccc7K78d.s:16576  .debug_str:0000000000001543 .LASF422
C:\Users\stapi\AppData\Local\Temp\ccc7K78d.s:16712  .debug_str:0000000000001964 .LASF423
C:\Users\stapi\AppData\Local\Temp\ccc7K78d.s:16602  .debug_str:00000000000015eb .LASF424
C:\Users\stapi\AppData\Local\Temp\ccc7K78d.s:17598  .debug_str:0000000000003339 .LASF425
C:\Users\stapi\AppData\Local\Temp\ccc7K78d.s:15856  .debug_str:00000000000001e1 .LASF426
C:\Users\stapi\AppData\Local\Temp\ccc7K78d.s:17352  .debug_str:0000000000002c84 .LASF427
C:\Users\stapi\AppData\Local\Temp\ccc7K78d.s:17162  .debug_str:000000000000272f .LASF428
C:\Users\stapi\AppData\Local\Temp\ccc7K78d.s:17948  .debug_str:0000000000003d7b .LASF429
C:\Users\stapi\AppData\Local\Temp\ccc7K78d.s:17976  .debug_str:0000000000003f59 .LASF430
C:\Users\stapi\AppData\Local\Temp\ccc7K78d.s:17126  .debug_str:000000000000261d .LASF431
C:\Users\stapi\AppData\Local\Temp\ccc7K78d.s:16978  .debug_str:00000000000020ca .LASF432
C:\Users\stapi\AppData\Local\Temp\ccc7K78d.s:17884  .debug_str:0000000000003ba9 .LASF433
C:\Users\stapi\AppData\Local\Temp\ccc7K78d.s:17688  .debug_str:0000000000003615 .LASF434
C:\Users\stapi\AppData\Local\Temp\ccc7K78d.s:16476  .debug_str:00000000000012ab .LASF435
C:\Users\stapi\AppData\Local\Temp\ccc7K78d.s:16960  .debug_str:0000000000002053 .LASF436
C:\Users\stapi\AppData\Local\Temp\ccc7K78d.s:15932  .debug_str:00000000000003d8 .LASF437
C:\Users\stapi\AppData\Local\Temp\ccc7K78d.s:15918  .debug_str:000000000000038d .LASF438
C:\Users\stapi\AppData\Local\Temp\ccc7K78d.s:16236  .debug_str:0000000000000c46 .LASF439
C:\Users\stapi\AppData\Local\Temp\ccc7K78d.s:16380  .debug_str:0000000000000ffc .LASF440
C:\Users\stapi\AppData\Local\Temp\ccc7K78d.s:17454  .debug_str:0000000000002f36 .LASF441
C:\Users\stapi\AppData\Local\Temp\ccc7K78d.s:16786  .debug_str:0000000000001bc4 .LASF442
C:\Users\stapi\AppData\Local\Temp\ccc7K78d.s:17150  .debug_str:00000000000026e3 .LASF443
C:\Users\stapi\AppData\Local\Temp\ccc7K78d.s:17460  .debug_str:0000000000002f60 .LASF444
C:\Users\stapi\AppData\Local\Temp\ccc7K78d.s:15910  .debug_str:0000000000000351 .LASF445
C:\Users\stapi\AppData\Local\Temp\ccc7K78d.s:15844  .debug_str:000000000000017a .LASF446
C:\Users\stapi\AppData\Local\Temp\ccc7K78d.s:15992  .debug_str:000000000000058b .LASF447
C:\Users\stapi\AppData\Local\Temp\ccc7K78d.s:17392  .debug_str:0000000000002da4 .LASF448
C:\Users\stapi\AppData\Local\Temp\ccc7K78d.s:15976  .debug_str:0000000000000509 .LASF449
C:\Users\stapi\AppData\Local\Temp\ccc7K78d.s:17202  .debug_str:0000000000002898 .LASF450
C:\Users\stapi\AppData\Local\Temp\ccc7K78d.s:18100  .debug_str:00000000000042e6 .LASF451
C:\Users\stapi\AppData\Local\Temp\ccc7K78d.s:16538  .debug_str:0000000000001442 .LASF452
C:\Users\stapi\AppData\Local\Temp\ccc7K78d.s:17686  .debug_str:000000000000360a .LASF453
C:\Users\stapi\AppData\Local\Temp\ccc7K78d.s:17290  .debug_str:0000000000002b02 .LASF454
C:\Users\stapi\AppData\Local\Temp\ccc7K78d.s:16954  .debug_str:000000000000201f .LASF455
C:\Users\stapi\AppData\Local\Temp\ccc7K78d.s:16606  .debug_str:000000000000160d .LASF456
C:\Users\stapi\AppData\Local\Temp\ccc7K78d.s:17154  .debug_str:00000000000026fc .LASF457
C:\Users\stapi\AppData\Local\Temp\ccc7K78d.s:15974  .debug_str:00000000000004fa .LASF458
C:\Users\stapi\AppData\Local\Temp\ccc7K78d.s:17436  .debug_str:0000000000002ecf .LASF459
C:\Users\stapi\AppData\Local\Temp\ccc7K78d.s:17720  .debug_str:00000000000036e1 .LASF460
C:\Users\stapi\AppData\Local\Temp\ccc7K78d.s:17580  .debug_str:00000000000032ad .LASF461
C:\Users\stapi\AppData\Local\Temp\ccc7K78d.s:16502  .debug_str:000000000000136b .LASF462
C:\Users\stapi\AppData\Local\Temp\ccc7K78d.s:16160  .debug_str:0000000000000a3c .LASF463
C:\Users\stapi\AppData\Local\Temp\ccc7K78d.s:16190  .debug_str:0000000000000aef .LASF464
C:\Users\stapi\AppData\Local\Temp\ccc7K78d.s:15806  .debug_str:0000000000000059 .LASF465
C:\Users\stapi\AppData\Local\Temp\ccc7K78d.s:17560  .debug_str:0000000000003226 .LASF466
C:\Users\stapi\AppData\Local\Temp\ccc7K78d.s:17330  .debug_str:0000000000002bee .LASF467
C:\Users\stapi\AppData\Local\Temp\ccc7K78d.s:17284  .debug_str:0000000000002ad4 .LASF468
C:\Users\stapi\AppData\Local\Temp\ccc7K78d.s:17086  .debug_str:00000000000023e1 .LASF469
C:\Users\stapi\AppData\Local\Temp\ccc7K78d.s:17934  .debug_str:0000000000003d0c .LASF470
C:\Users\stapi\AppData\Local\Temp\ccc7K78d.s:16742  .debug_str:0000000000001a74 .LASF471
C:\Users\stapi\AppData\Local\Temp\ccc7K78d.s:16066  .debug_str:00000000000007ae .LASF472
C:\Users\stapi\AppData\Local\Temp\ccc7K78d.s:17826  .debug_str:00000000000039cb .LASF473
C:\Users\stapi\AppData\Local\Temp\ccc7K78d.s:16024  .debug_str:0000000000000679 .LASF474
C:\Users\stapi\AppData\Local\Temp\ccc7K78d.s:15802  .debug_str:0000000000000037 .LASF475
C:\Users\stapi\AppData\Local\Temp\ccc7K78d.s:17500  .debug_str:0000000000003064 .LASF476
C:\Users\stapi\AppData\Local\Temp\ccc7K78d.s:17314  .debug_str:0000000000002b9f .LASF477
C:\Users\stapi\AppData\Local\Temp\ccc7K78d.s:18086  .debug_str:000000000000428a .LASF478
C:\Users\stapi\AppData\Local\Temp\ccc7K78d.s:16430  .debug_str:000000000000117a .LASF479
C:\Users\stapi\AppData\Local\Temp\ccc7K78d.s:17860  .debug_str:0000000000003aef .LASF480
C:\Users\stapi\AppData\Local\Temp\ccc7K78d.s:17746  .debug_str:00000000000037b8 .LASF481
C:\Users\stapi\AppData\Local\Temp\ccc7K78d.s:17432  .debug_str:0000000000002eb8 .LASF482
C:\Users\stapi\AppData\Local\Temp\ccc7K78d.s:17674  .debug_str:00000000000035af .LASF483
C:\Users\stapi\AppData\Local\Temp\ccc7K78d.s:16496  .debug_str:0000000000001339 .LASF484
C:\Users\stapi\AppData\Local\Temp\ccc7K78d.s:16262  .debug_str:0000000000000ce5 .LASF485
C:\Users\stapi\AppData\Local\Temp\ccc7K78d.s:16812  .debug_str:0000000000001c6e .LASF486
C:\Users\stapi\AppData\Local\Temp\ccc7K78d.s:17084  .debug_str:00000000000023dc .LASF487
C:\Users\stapi\AppData\Local\Temp\ccc7K78d.s:16544  .debug_str:0000000000001475 .LASF488
C:\Users\stapi\AppData\Local\Temp\ccc7K78d.s:17512  .debug_str:00000000000030c4 .LASF489
C:\Users\stapi\AppData\Local\Temp\ccc7K78d.s:17806  .debug_str:0000000000003950 .LASF490
C:\Users\stapi\AppData\Local\Temp\ccc7K78d.s:16102  .debug_str:00000000000008b5 .LASF491
C:\Users\stapi\AppData\Local\Temp\ccc7K78d.s:16284  .debug_str:0000000000000d76 .LASF492
C:\Users\stapi\AppData\Local\Temp\ccc7K78d.s:16728  .debug_str:00000000000019eb .LASF493
C:\Users\stapi\AppData\Local\Temp\ccc7K78d.s:16078  .debug_str:00000000000007f9 .LASF494
C:\Users\stapi\AppData\Local\Temp\ccc7K78d.s:17198  .debug_str:0000000000002865 .LASF495
C:\Users\stapi\AppData\Local\Temp\ccc7K78d.s:15846  .debug_str:0000000000000187 .LASF496
C:\Users\stapi\AppData\Local\Temp\ccc7K78d.s:16406  .debug_str:00000000000010c0 .LASF497
C:\Users\stapi\AppData\Local\Temp\ccc7K78d.s:17088  .debug_str:00000000000023f2 .LASF498
C:\Users\stapi\AppData\Local\Temp\ccc7K78d.s:17708  .debug_str:0000000000003681 .LASF499
C:\Users\stapi\AppData\Local\Temp\ccc7K78d.s:17874  .debug_str:0000000000003b5d .LASF500
C:\Users\stapi\AppData\Local\Temp\ccc7K78d.s:17562  .debug_str:0000000000003230 .LASF501
C:\Users\stapi\AppData\Local\Temp\ccc7K78d.s:17244  .debug_str:00000000000029cb .LASF502
C:\Users\stapi\AppData\Local\Temp\ccc7K78d.s:17338  .debug_str:0000000000002c29 .LASF503
C:\Users\stapi\AppData\Local\Temp\ccc7K78d.s:17184  .debug_str:00000000000027f6 .LASF504
C:\Users\stapi\AppData\Local\Temp\ccc7K78d.s:16762  .debug_str:0000000000001b01 .LASF505
C:\Users\stapi\AppData\Local\Temp\ccc7K78d.s:17492  .debug_str:0000000000003024 .LASF506
C:\Users\stapi\AppData\Local\Temp\ccc7K78d.s:17684  .debug_str:00000000000035ee .LASF507
C:\Users\stapi\AppData\Local\Temp\ccc7K78d.s:17104  .debug_str:0000000000002563 .LASF508
C:\Users\stapi\AppData\Local\Temp\ccc7K78d.s:17962  .debug_str:0000000000003dc5 .LASF509
C:\Users\stapi\AppData\Local\Temp\ccc7K78d.s:17924  .debug_str:0000000000003cce .LASF510
C:\Users\stapi\AppData\Local\Temp\ccc7K78d.s:15916  .debug_str:000000000000037b .LASF511
C:\Users\stapi\AppData\Local\Temp\ccc7K78d.s:17480  .debug_str:0000000000002fd7 .LASF512
C:\Users\stapi\AppData\Local\Temp\ccc7K78d.s:17136  .debug_str:000000000000265d .LASF513
C:\Users\stapi\AppData\Local\Temp\ccc7K78d.s:16226  .debug_str:0000000000000bf8 .LASF514
C:\Users\stapi\AppData\Local\Temp\ccc7K78d.s:17252  .debug_str:0000000000002a01 .LASF515
C:\Users\stapi\AppData\Local\Temp\ccc7K78d.s:16564  .debug_str:00000000000014eb .LASF516
C:\Users\stapi\AppData\Local\Temp\ccc7K78d.s:15814  .debug_str:000000000000008e .LASF517
C:\Users\stapi\AppData\Local\Temp\ccc7K78d.s:17706  .debug_str:000000000000367c .LASF518
C:\Users\stapi\AppData\Local\Temp\ccc7K78d.s:17238  .debug_str:000000000000299d .LASF519
C:\Users\stapi\AppData\Local\Temp\ccc7K78d.s:16542  .debug_str:000000000000145b .LASF520
C:\Users\stapi\AppData\Local\Temp\ccc7K78d.s:17114  .debug_str:00000000000025d8 .LASF521
C:\Users\stapi\AppData\Local\Temp\ccc7K78d.s:16996  .debug_str:0000000000002143 .LASF522
C:\Users\stapi\AppData\Local\Temp\ccc7K78d.s:16464  .debug_str:000000000000126e .LASF523
C:\Users\stapi\AppData\Local\Temp\ccc7K78d.s:16308  .debug_str:0000000000000e33 .LASF524
C:\Users\stapi\AppData\Local\Temp\ccc7K78d.s:17072  .debug_str:000000000000236e .LASF525
C:\Users\stapi\AppData\Local\Temp\ccc7K78d.s:17240  .debug_str:00000000000029a8 .LASF526
C:\Users\stapi\AppData\Local\Temp\ccc7K78d.s:16930  .debug_str:0000000000001f79 .LASF527
C:\Users\stapi\AppData\Local\Temp\ccc7K78d.s:17356  .debug_str:0000000000002c9e .LASF528
C:\Users\stapi\AppData\Local\Temp\ccc7K78d.s:17516  .debug_str:00000000000030e8 .LASF529
C:\Users\stapi\AppData\Local\Temp\ccc7K78d.s:16424  .debug_str:000000000000113d .LASF530
C:\Users\stapi\AppData\Local\Temp\ccc7K78d.s:17904  .debug_str:0000000000003c31 .LASF531
C:\Users\stapi\AppData\Local\Temp\ccc7K78d.s:18042  .debug_str:0000000000004155 .LASF532
C:\Users\stapi\AppData\Local\Temp\ccc7K78d.s:16528  .debug_str:0000000000001408 .LASF533
C:\Users\stapi\AppData\Local\Temp\ccc7K78d.s:16336  .debug_str:0000000000000ee3 .LASF534
C:\Users\stapi\AppData\Local\Temp\ccc7K78d.s:16856  .debug_str:0000000000001da2 .LASF535
C:\Users\stapi\AppData\Local\Temp\ccc7K78d.s:17642  .debug_str:00000000000034a2 .LASF536
C:\Users\stapi\AppData\Local\Temp\ccc7K78d.s:16358  .debug_str:0000000000000f77 .LASF537
C:\Users\stapi\AppData\Local\Temp\ccc7K78d.s:17572  .debug_str:000000000000327f .LASF538
C:\Users\stapi\AppData\Local\Temp\ccc7K78d.s:17278  .debug_str:0000000000002ab5 .LASF539
C:\Users\stapi\AppData\Local\Temp\ccc7K78d.s:17448  .debug_str:0000000000002f1d .LASF540
C:\Users\stapi\AppData\Local\Temp\ccc7K78d.s:17716  .debug_str:00000000000036c1 .LASF541
C:\Users\stapi\AppData\Local\Temp\ccc7K78d.s:17586  .debug_str:00000000000032da .LASF542
C:\Users\stapi\AppData\Local\Temp\ccc7K78d.s:17058  .debug_str:00000000000022f5 .LASF543
C:\Users\stapi\AppData\Local\Temp\ccc7K78d.s:16438  .debug_str:00000000000011a3 .LASF544
C:\Users\stapi\AppData\Local\Temp\ccc7K78d.s:16932  .debug_str:0000000000001f88 .LASF545
C:\Users\stapi\AppData\Local\Temp\ccc7K78d.s:18076  .debug_str:0000000000004245 .LASF546
C:\Users\stapi\AppData\Local\Temp\ccc7K78d.s:16228  .debug_str:0000000000000c03 .LASF547
C:\Users\stapi\AppData\Local\Temp\ccc7K78d.s:16674  .debug_str:000000000000182a .LASF548
C:\Users\stapi\AppData\Local\Temp\ccc7K78d.s:17856  .debug_str:0000000000003abb .LASF549
C:\Users\stapi\AppData\Local\Temp\ccc7K78d.s:16038  .debug_str:00000000000006ce .LASF550
C:\Users\stapi\AppData\Local\Temp\ccc7K78d.s:17582  .debug_str:00000000000032b6 .LASF551
C:\Users\stapi\AppData\Local\Temp\ccc7K78d.s:17236  .debug_str:000000000000298a .LASF552
C:\Users\stapi\AppData\Local\Temp\ccc7K78d.s:16266  .debug_str:0000000000000cfd .LASF553
C:\Users\stapi\AppData\Local\Temp\ccc7K78d.s:18052  .debug_str:0000000000004195 .LASF554
C:\Users\stapi\AppData\Local\Temp\ccc7K78d.s:17190  .debug_str:000000000000281d .LASF555
C:\Users\stapi\AppData\Local\Temp\ccc7K78d.s:17718  .debug_str:00000000000036c8 .LASF556
C:\Users\stapi\AppData\Local\Temp\ccc7K78d.s:17406  .debug_str:0000000000002dfa .LASF557
C:\Users\stapi\AppData\Local\Temp\ccc7K78d.s:17440  .debug_str:0000000000002eea .LASF558
C:\Users\stapi\AppData\Local\Temp\ccc7K78d.s:17622  .debug_str:0000000000003406 .LASF559
C:\Users\stapi\AppData\Local\Temp\ccc7K78d.s:16372  .debug_str:0000000000000fc5 .LASF560
C:\Users\stapi\AppData\Local\Temp\ccc7K78d.s:17094  .debug_str:0000000000002516 .LASF561
C:\Users\stapi\AppData\Local\Temp\ccc7K78d.s:17882  .debug_str:0000000000003b97 .LASF562
C:\Users\stapi\AppData\Local\Temp\ccc7K78d.s:17034  .debug_str:0000000000002239 .LASF563
C:\Users\stapi\AppData\Local\Temp\ccc7K78d.s:16902  .debug_str:0000000000001ebc .LASF564
C:\Users\stapi\AppData\Local\Temp\ccc7K78d.s:18018  .debug_str:0000000000004072 .LASF565
C:\Users\stapi\AppData\Local\Temp\ccc7K78d.s:16378  .debug_str:0000000000000ff1 .LASF566
C:\Users\stapi\AppData\Local\Temp\ccc7K78d.s:17750  .debug_str:00000000000037ce .LASF567
C:\Users\stapi\AppData\Local\Temp\ccc7K78d.s:15924  .debug_str:00000000000003ad .LASF568
C:\Users\stapi\AppData\Local\Temp\ccc7K78d.s:17156  .debug_str:000000000000270f .LASF569
C:\Users\stapi\AppData\Local\Temp\ccc7K78d.s:18028  .debug_str:00000000000040e0 .LASF570
C:\Users\stapi\AppData\Local\Temp\ccc7K78d.s:17008  .debug_str:0000000000002194 .LASF571
C:\Users\stapi\AppData\Local\Temp\ccc7K78d.s:18092  .debug_str:00000000000042ae .LASF572
C:\Users\stapi\AppData\Local\Temp\ccc7K78d.s:17536  .debug_str:000000000000317a .LASF573
C:\Users\stapi\AppData\Local\Temp\ccc7K78d.s:17972  .debug_str:0000000000003f2e .LASF574
C:\Users\stapi\AppData\Local\Temp\ccc7K78d.s:16494  .debug_str:000000000000132b .LASF575
C:\Users\stapi\AppData\Local\Temp\ccc7K78d.s:16694  .debug_str:00000000000018d7 .LASF576
C:\Users\stapi\AppData\Local\Temp\ccc7K78d.s:16486  .debug_str:00000000000012e1 .LASF577
C:\Users\stapi\AppData\Local\Temp\ccc7K78d.s:17610  .debug_str:00000000000033bb .LASF578
C:\Users\stapi\AppData\Local\Temp\ccc7K78d.s:17804  .debug_str:0000000000003941 .LASF579
C:\Users\stapi\AppData\Local\Temp\ccc7K78d.s:17920  .debug_str:0000000000003cb2 .LASF580
C:\Users\stapi\AppData\Local\Temp\ccc7K78d.s:16256  .debug_str:0000000000000cc4 .LASF581
C:\Users\stapi\AppData\Local\Temp\ccc7K78d.s:17490  .debug_str:0000000000003016 .LASF582
C:\Users\stapi\AppData\Local\Temp\ccc7K78d.s:16758  .debug_str:0000000000001ae0 .LASF583
C:\Users\stapi\AppData\Local\Temp\ccc7K78d.s:17864  .debug_str:0000000000003b0f .LASF584
C:\Users\stapi\AppData\Local\Temp\ccc7K78d.s:15960  .debug_str:00000000000004a3 .LASF585
C:\Users\stapi\AppData\Local\Temp\ccc7K78d.s:16144  .debug_str:00000000000009e5 .LASF586
C:\Users\stapi\AppData\Local\Temp\ccc7K78d.s:17574  .debug_str:000000000000328f .LASF587
C:\Users\stapi\AppData\Local\Temp\ccc7K78d.s:17774  .debug_str:000000000000386a .LASF588
C:\Users\stapi\AppData\Local\Temp\ccc7K78d.s:16746  .debug_str:0000000000001a8c .LASF589
C:\Users\stapi\AppData\Local\Temp\ccc7K78d.s:16138  .debug_str:00000000000009b9 .LASF590
C:\Users\stapi\AppData\Local\Temp\ccc7K78d.s:17354  .debug_str:0000000000002c93 .LASF591
C:\Users\stapi\AppData\Local\Temp\ccc7K78d.s:17180  .debug_str:00000000000027d5 .LASF592
C:\Users\stapi\AppData\Local\Temp\ccc7K78d.s:16282  .debug_str:0000000000000d67 .LASF593
C:\Users\stapi\AppData\Local\Temp\ccc7K78d.s:16862  .debug_str:0000000000001dc0 .LASF594
C:\Users\stapi\AppData\Local\Temp\ccc7K78d.s:15890  .debug_str:00000000000002c5 .LASF595
C:\Users\stapi\AppData\Local\Temp\ccc7K78d.s:17070  .debug_str:000000000000235d .LASF596
C:\Users\stapi\AppData\Local\Temp\ccc7K78d.s:17052  .debug_str:00000000000022cc .LASF597
C:\Users\stapi\AppData\Local\Temp\ccc7K78d.s:16408  .debug_str:00000000000010dc .LASF598
C:\Users\stapi\AppData\Local\Temp\ccc7K78d.s:16956  .debug_str:0000000000002031 .LASF599
C:\Users\stapi\AppData\Local\Temp\ccc7K78d.s:17168  .debug_str:000000000000275f .LASF600
C:\Users\stapi\AppData\Local\Temp\ccc7K78d.s:16900  .debug_str:0000000000001eb1 .LASF601
C:\Users\stapi\AppData\Local\Temp\ccc7K78d.s:16264  .debug_str:0000000000000cf5 .LASF602
C:\Users\stapi\AppData\Local\Temp\ccc7K78d.s:17712  .debug_str:00000000000036ae .LASF603
C:\Users\stapi\AppData\Local\Temp\ccc7K78d.s:16488  .debug_str:00000000000012f3 .LASF604
C:\Users\stapi\AppData\Local\Temp\ccc7K78d.s:16928  .debug_str:0000000000001f6b .LASF605
C:\Users\stapi\AppData\Local\Temp\ccc7K78d.s:16426  .debug_str:000000000000114f .LASF606
C:\Users\stapi\AppData\Local\Temp\ccc7K78d.s:16692  .debug_str:00000000000018c5 .LASF607
C:\Users\stapi\AppData\Local\Temp\ccc7K78d.s:17476  .debug_str:0000000000002fbc .LASF608
C:\Users\stapi\AppData\Local\Temp\ccc7K78d.s:17844  .debug_str:0000000000003a50 .LASF609
C:\Users\stapi\AppData\Local\Temp\ccc7K78d.s:18082  .debug_str:0000000000004272 .LASF610
C:\Users\stapi\AppData\Local\Temp\ccc7K78d.s:16702  .debug_str:000000000000190b .LASF611
C:\Users\stapi\AppData\Local\Temp\ccc7K78d.s:16134  .debug_str:0000000000000997 .LASF612
C:\Users\stapi\AppData\Local\Temp\ccc7K78d.s:15862  .debug_str:000000000000020b .LASF613
C:\Users\stapi\AppData\Local\Temp\ccc7K78d.s:16634  .debug_str:00000000000016f9 .LASF614
C:\Users\stapi\AppData\Local\Temp\ccc7K78d.s:17078  .debug_str:00000000000023b1 .LASF615
C:\Users\stapi\AppData\Local\Temp\ccc7K78d.s:16580  .debug_str:000000000000155d .LASF616
C:\Users\stapi\AppData\Local\Temp\ccc7K78d.s:17878  .debug_str:0000000000003b7c .LASF617
C:\Users\stapi\AppData\Local\Temp\ccc7K78d.s:17760  .debug_str:0000000000003815 .LASF618
C:\Users\stapi\AppData\Local\Temp\ccc7K78d.s:16976  .debug_str:00000000000020c3 .LASF619
C:\Users\stapi\AppData\Local\Temp\ccc7K78d.s:17450  .debug_str:0000000000002f22 .LASF620
C:\Users\stapi\AppData\Local\Temp\ccc7K78d.s:17908  .debug_str:0000000000003c5b .LASF621
C:\Users\stapi\AppData\Local\Temp\ccc7K78d.s:15812  .debug_str:0000000000000086 .LASF622
C:\Users\stapi\AppData\Local\Temp\ccc7K78d.s:15986  .debug_str:000000000000056c .LASF623
C:\Users\stapi\AppData\Local\Temp\ccc7K78d.s:15874  .debug_str:0000000000000258 .LASF624
C:\Users\stapi\AppData\Local\Temp\ccc7K78d.s:16098  .debug_str:000000000000089c .LASF625
C:\Users\stapi\AppData\Local\Temp\ccc7K78d.s:16162  .debug_str:0000000000000a45 .LASF626
C:\Users\stapi\AppData\Local\Temp\ccc7K78d.s:18084  .debug_str:000000000000427e .LASF627
C:\Users\stapi\AppData\Local\Temp\ccc7K78d.s:17764  .debug_str:0000000000003830 .LASF628
C:\Users\stapi\AppData\Local\Temp\ccc7K78d.s:17148  .debug_str:00000000000026d0 .LASF629
C:\Users\stapi\AppData\Local\Temp\ccc7K78d.s:17466  .debug_str:0000000000002f8a .LASF630
C:\Users\stapi\AppData\Local\Temp\ccc7K78d.s:17922  .debug_str:0000000000003cc0 .LASF631
C:\Users\stapi\AppData\Local\Temp\ccc7K78d.s:17872  .debug_str:0000000000003b4c .LASF632
C:\Users\stapi\AppData\Local\Temp\ccc7K78d.s:17000  .debug_str:0000000000002164 .LASF633
C:\Users\stapi\AppData\Local\Temp\ccc7K78d.s:17292  .debug_str:0000000000002b0c .LASF634
C:\Users\stapi\AppData\Local\Temp\ccc7K78d.s:17998  .debug_str:0000000000003fec .LASF635
C:\Users\stapi\AppData\Local\Temp\ccc7K78d.s:17646  .debug_str:00000000000034c9 .LASF636
C:\Users\stapi\AppData\Local\Temp\ccc7K78d.s:16326  .debug_str:0000000000000e95 .LASF637
C:\Users\stapi\AppData\Local\Temp\ccc7K78d.s:17858  .debug_str:0000000000003ada .LASF638
C:\Users\stapi\AppData\Local\Temp\ccc7K78d.s:16202  .debug_str:0000000000000b45 .LASF639
C:\Users\stapi\AppData\Local\Temp\ccc7K78d.s:16204  .debug_str:0000000000000b5c .LASF640
C:\Users\stapi\AppData\Local\Temp\ccc7K78d.s:17332  .debug_str:0000000000002bf8 .LASF641
C:\Users\stapi\AppData\Local\Temp\ccc7K78d.s:17752  .debug_str:00000000000037d9 .LASF642
C:\Users\stapi\AppData\Local\Temp\ccc7K78d.s:17036  .debug_str:000000000000224b .LASF643
C:\Users\stapi\AppData\Local\Temp\ccc7K78d.s:16630  .debug_str:00000000000016d3 .LASF644
C:\Users\stapi\AppData\Local\Temp\ccc7K78d.s:16244  .debug_str:0000000000000c6d .LASF645
C:\Users\stapi\AppData\Local\Temp\ccc7K78d.s:16344  .debug_str:0000000000000f15 .LASF646
C:\Users\stapi\AppData\Local\Temp\ccc7K78d.s:16298  .debug_str:0000000000000dee .LASF647
C:\Users\stapi\AppData\Local\Temp\ccc7K78d.s:17220  .debug_str:0000000000002910 .LASF648
C:\Users\stapi\AppData\Local\Temp\ccc7K78d.s:16252  .debug_str:0000000000000ca5 .LASF649
C:\Users\stapi\AppData\Local\Temp\ccc7K78d.s:18062  .debug_str:00000000000041dd .LASF650
C:\Users\stapi\AppData\Local\Temp\ccc7K78d.s:17294  .debug_str:0000000000002b18 .LASF651
C:\Users\stapi\AppData\Local\Temp\ccc7K78d.s:17074  .debug_str:0000000000002381 .LASF652
C:\Users\stapi\AppData\Local\Temp\ccc7K78d.s:16614  .debug_str:000000000000164e .LASF653
C:\Users\stapi\AppData\Local\Temp\ccc7K78d.s:17020  .debug_str:00000000000021e1 .LASF654
C:\Users\stapi\AppData\Local\Temp\ccc7K78d.s:16526  .debug_str:00000000000013fe .LASF655
C:\Users\stapi\AppData\Local\Temp\ccc7K78d.s:15900  .debug_str:0000000000000310 .LASF656
C:\Users\stapi\AppData\Local\Temp\ccc7K78d.s:15902  .debug_str:000000000000031c .LASF657
C:\Users\stapi\AppData\Local\Temp\ccc7K78d.s:16390  .debug_str:0000000000001054 .LASF658
C:\Users\stapi\AppData\Local\Temp\ccc7K78d.s:17028  .debug_str:000000000000221a .LASF659
C:\Users\stapi\AppData\Local\Temp\ccc7K78d.s:16200  .debug_str:0000000000000b3c .LASF660
C:\Users\stapi\AppData\Local\Temp\ccc7K78d.s:17988  .debug_str:0000000000003fa9 .LASF661
C:\Users\stapi\AppData\Local\Temp\ccc7K78d.s:16916  .debug_str:0000000000001f20 .LASF662
C:\Users\stapi\AppData\Local\Temp\ccc7K78d.s:16072  .debug_str:00000000000007d2 .LASF663
C:\Users\stapi\AppData\Local\Temp\ccc7K78d.s:17360  .debug_str:0000000000002cb2 .LASF664
C:\Users\stapi\AppData\Local\Temp\ccc7K78d.s:17174  .debug_str:00000000000027a0 .LASF665
C:\Users\stapi\AppData\Local\Temp\ccc7K78d.s:16662  .debug_str:00000000000017d0 .LASF666
C:\Users\stapi\AppData\Local\Temp\ccc7K78d.s:17112  .debug_str:00000000000025cb .LASF667
C:\Users\stapi\AppData\Local\Temp\ccc7K78d.s:18000  .debug_str:0000000000003ff9 .LASF668
C:\Users\stapi\AppData\Local\Temp\ccc7K78d.s:16636  .debug_str:0000000000001701 .LASF669
C:\Users\stapi\AppData\Local\Temp\ccc7K78d.s:17398  .debug_str:0000000000002dd0 .LASF670
C:\Users\stapi\AppData\Local\Temp\ccc7K78d.s:17926  .debug_str:0000000000003cda .LASF671
C:\Users\stapi\AppData\Local\Temp\ccc7K78d.s:15934  .debug_str:00000000000003ee .LASF672
C:\Users\stapi\AppData\Local\Temp\ccc7K78d.s:15826  .debug_str:00000000000000f1 .LASF673
C:\Users\stapi\AppData\Local\Temp\ccc7K78d.s:16570  .debug_str:000000000000150b .LASF674
C:\Users\stapi\AppData\Local\Temp\ccc7K78d.s:16796  .debug_str:0000000000001c09 .LASF675
C:\Users\stapi\AppData\Local\Temp\ccc7K78d.s:16080  .debug_str:0000000000000817 .LASF676
C:\Users\stapi\AppData\Local\Temp\ccc7K78d.s:16992  .debug_str:0000000000002115 .LASF677
C:\Users\stapi\AppData\Local\Temp\ccc7K78d.s:16982  .debug_str:00000000000020e3 .LASF678
C:\Users\stapi\AppData\Local\Temp\ccc7K78d.s:16934  .debug_str:0000000000001f97 .LASF679
C:\Users\stapi\AppData\Local\Temp\ccc7K78d.s:16198  .debug_str:0000000000000b22 .LASF680
C:\Users\stapi\AppData\Local\Temp\ccc7K78d.s:18094  .debug_str:00000000000042ba .LASF681
C:\Users\stapi\AppData\Local\Temp\ccc7K78d.s:17616  .debug_str:00000000000033ea .LASF682
C:\Users\stapi\AppData\Local\Temp\ccc7K78d.s:16696  .debug_str:00000000000018e5 .LASF683
C:\Users\stapi\AppData\Local\Temp\ccc7K78d.s:16640  .debug_str:0000000000001711 .LASF684
C:\Users\stapi\AppData\Local\Temp\ccc7K78d.s:16868  .debug_str:0000000000001df4 .LASF685
C:\Users\stapi\AppData\Local\Temp\ccc7K78d.s:15848  .debug_str:000000000000019f .LASF686
C:\Users\stapi\AppData\Local\Temp\ccc7K78d.s:16716  .debug_str:000000000000197c .LASF687
C:\Users\stapi\AppData\Local\Temp\ccc7K78d.s:17898  .debug_str:0000000000003bfa .LASF688
C:\Users\stapi\AppData\Local\Temp\ccc7K78d.s:17308  .debug_str:0000000000002b6d .LASF689
C:\Users\stapi\AppData\Local\Temp\ccc7K78d.s:15872  .debug_str:000000000000024e .LASF690
C:\Users\stapi\AppData\Local\Temp\ccc7K78d.s:17786  .debug_str:00000000000038b9 .LASF691
C:\Users\stapi\AppData\Local\Temp\ccc7K78d.s:16616  .debug_str:000000000000165c .LASF692
C:\Users\stapi\AppData\Local\Temp\ccc7K78d.s:16416  .debug_str:0000000000001109 .LASF693
C:\Users\stapi\AppData\Local\Temp\ccc7K78d.s:16612  .debug_str:000000000000163d .LASF694
C:\Users\stapi\AppData\Local\Temp\ccc7K78d.s:16972  .debug_str:00000000000020a7 .LASF695
C:\Users\stapi\AppData\Local\Temp\ccc7K78d.s:16132  .debug_str:000000000000098f .LASF696
C:\Users\stapi\AppData\Local\Temp\ccc7K78d.s:17802  .debug_str:0000000000003934 .LASF697
C:\Users\stapi\AppData\Local\Temp\ccc7K78d.s:16594  .debug_str:00000000000015ba .LASF698
C:\Users\stapi\AppData\Local\Temp\ccc7K78d.s:16090  .debug_str:000000000000085a .LASF699
C:\Users\stapi\AppData\Local\Temp\ccc7K78d.s:17510  .debug_str:00000000000030ab .LASF700
C:\Users\stapi\AppData\Local\Temp\ccc7K78d.s:15888  .debug_str:00000000000002a8 .LASF701
C:\Users\stapi\AppData\Local\Temp\ccc7K78d.s:16428  .debug_str:0000000000001161 .LASF702
C:\Users\stapi\AppData\Local\Temp\ccc7K78d.s:17736  .debug_str:0000000000003765 .LASF703
C:\Users\stapi\AppData\Local\Temp\ccc7K78d.s:17758  .debug_str:0000000000003806 .LASF704
C:\Users\stapi\AppData\Local\Temp\ccc7K78d.s:16846  .debug_str:0000000000001d4e .LASF705
C:\Users\stapi\AppData\Local\Temp\ccc7K78d.s:17206  .debug_str:00000000000028b5 .LASF706
C:\Users\stapi\AppData\Local\Temp\ccc7K78d.s:17246  .debug_str:00000000000029d6 .LASF707
C:\Users\stapi\AppData\Local\Temp\ccc7K78d.s:16458  .debug_str:0000000000001236 .LASF708
C:\Users\stapi\AppData\Local\Temp\ccc7K78d.s:16440  .debug_str:00000000000011c6 .LASF709
C:\Users\stapi\AppData\Local\Temp\ccc7K78d.s:17102  .debug_str:000000000000254b .LASF710
C:\Users\stapi\AppData\Local\Temp\ccc7K78d.s:17576  .debug_str:0000000000003296 .LASF711
C:\Users\stapi\AppData\Local\Temp\ccc7K78d.s:15920  .debug_str:0000000000000396 .LASF712
C:\Users\stapi\AppData\Local\Temp\ccc7K78d.s:16752  .debug_str:0000000000001ab5 .LASF713
C:\Users\stapi\AppData\Local\Temp\ccc7K78d.s:17930  .debug_str:0000000000003cf5 .LASF714
C:\Users\stapi\AppData\Local\Temp\ccc7K78d.s:16304  .debug_str:0000000000000e15 .LASF715
C:\Users\stapi\AppData\Local\Temp\ccc7K78d.s:16016  .debug_str:0000000000000653 .LASF716
C:\Users\stapi\AppData\Local\Temp\ccc7K78d.s:17268  .debug_str:0000000000002a7d .LASF717
C:\Users\stapi\AppData\Local\Temp\ccc7K78d.s:17442  .debug_str:0000000000002efd .LASF718
C:\Users\stapi\AppData\Local\Temp\ccc7K78d.s:16232  .debug_str:0000000000000c25 .LASF719
C:\Users\stapi\AppData\Local\Temp\ccc7K78d.s:16574  .debug_str:0000000000001534 .LASF720
C:\Users\stapi\AppData\Local\Temp\ccc7K78d.s:17152  .debug_str:00000000000026f2 .LASF721
C:\Users\stapi\AppData\Local\Temp\ccc7K78d.s:15842  .debug_str:0000000000000170 .LASF722
C:\Users\stapi\AppData\Local\Temp\ccc7K78d.s:16588  .debug_str:0000000000001597 .LASF723
C:\Users\stapi\AppData\Local\Temp\ccc7K78d.s:16076  .debug_str:00000000000007ed .LASF724
C:\Users\stapi\AppData\Local\Temp\ccc7K78d.s:17634  .debug_str:0000000000003462 .LASF725
C:\Users\stapi\AppData\Local\Temp\ccc7K78d.s:16152  .debug_str:0000000000000a15 .LASF726
C:\Users\stapi\AppData\Local\Temp\ccc7K78d.s:16666  .debug_str:00000000000017e9 .LASF727
C:\Users\stapi\AppData\Local\Temp\ccc7K78d.s:16798  .debug_str:0000000000001c1a .LASF728
C:\Users\stapi\AppData\Local\Temp\ccc7K78d.s:16034  .debug_str:00000000000006b7 .LASF729
C:\Users\stapi\AppData\Local\Temp\ccc7K78d.s:17188  .debug_str:000000000000280f .LASF730
C:\Users\stapi\AppData\Local\Temp\ccc7K78d.s:16772  .debug_str:0000000000001b59 .LASF731
C:\Users\stapi\AppData\Local\Temp\ccc7K78d.s:17378  .debug_str:0000000000002d3d .LASF732
C:\Users\stapi\AppData\Local\Temp\ccc7K78d.s:16442  .debug_str:00000000000011d7 .LASF733
C:\Users\stapi\AppData\Local\Temp\ccc7K78d.s:16690  .debug_str:00000000000018b7 .LASF734
C:\Users\stapi\AppData\Local\Temp\ccc7K78d.s:17420  .debug_str:0000000000002e64 .LASF735
C:\Users\stapi\AppData\Local\Temp\ccc7K78d.s:16074  .debug_str:00000000000007e1 .LASF736
C:\Users\stapi\AppData\Local\Temp\ccc7K78d.s:16738  .debug_str:0000000000001a55 .LASF737
C:\Users\stapi\AppData\Local\Temp\ccc7K78d.s:16100  .debug_str:00000000000008a9 .LASF738
C:\Users\stapi\AppData\Local\Temp\ccc7K78d.s:17932  .debug_str:0000000000003cfe .LASF739
C:\Users\stapi\AppData\Local\Temp\ccc7K78d.s:16352  .debug_str:0000000000000f62 .LASF740
C:\Users\stapi\AppData\Local\Temp\ccc7K78d.s:16254  .debug_str:0000000000000cb5 .LASF741
C:\Users\stapi\AppData\Local\Temp\ccc7K78d.s:18038  .debug_str:0000000000004136 .LASF742
C:\Users\stapi\AppData\Local\Temp\ccc7K78d.s:16844  .debug_str:0000000000001d41 .LASF743
C:\Users\stapi\AppData\Local\Temp\ccc7K78d.s:17986  .debug_str:0000000000003fa2 .LASF744
C:\Users\stapi\AppData\Local\Temp\ccc7K78d.s:17456  .debug_str:0000000000002f48 .LASF745
C:\Users\stapi\AppData\Local\Temp\ccc7K78d.s:17494  .debug_str:0000000000003044 .LASF746
C:\Users\stapi\AppData\Local\Temp\ccc7K78d.s:17702  .debug_str:0000000000003668 .LASF747
C:\Users\stapi\AppData\Local\Temp\ccc7K78d.s:16018  .debug_str:0000000000000658 .LASF748
C:\Users\stapi\AppData\Local\Temp\ccc7K78d.s:16492  .debug_str:000000000000131f .LASF749
C:\Users\stapi\AppData\Local\Temp\ccc7K78d.s:17540  .debug_str:00000000000031a0 .LASF750
C:\Users\stapi\AppData\Local\Temp\ccc7K78d.s:17956  .debug_str:0000000000003dae .LASF751
C:\Users\stapi\AppData\Local\Temp\ccc7K78d.s:17422  .debug_str:0000000000002e76 .LASF752
C:\Users\stapi\AppData\Local\Temp\ccc7K78d.s:16278  .debug_str:0000000000000d4f .LASF753
C:\Users\stapi\AppData\Local\Temp\ccc7K78d.s:17632  .debug_str:0000000000003452 .LASF754
C:\Users\stapi\AppData\Local\Temp\ccc7K78d.s:18074  .debug_str:0000000000004235 .LASF755
C:\Users\stapi\AppData\Local\Temp\ccc7K78d.s:17526  .debug_str:0000000000003137 .LASF756
C:\Users\stapi\AppData\Local\Temp\ccc7K78d.s:16230  .debug_str:0000000000000c18 .LASF757
C:\Users\stapi\AppData\Local\Temp\ccc7K78d.s:16872  .debug_str:0000000000001e12 .LASF758
C:\Users\stapi\AppData\Local\Temp\ccc7K78d.s:16892  .debug_str:0000000000001e80 .LASF759
C:\Users\stapi\AppData\Local\Temp\ccc7K78d.s:17568  .debug_str:0000000000003267 .LASF760
C:\Users\stapi\AppData\Local\Temp\ccc7K78d.s:18040  .debug_str:000000000000413c .LASF761
C:\Users\stapi\AppData\Local\Temp\ccc7K78d.s:16926  .debug_str:0000000000001f63 .LASF762
C:\Users\stapi\AppData\Local\Temp\ccc7K78d.s:16800  .debug_str:0000000000001c25 .LASF763
C:\Users\stapi\AppData\Local\Temp\ccc7K78d.s:16756  .debug_str:0000000000001ad0 .LASF764
C:\Users\stapi\AppData\Local\Temp\ccc7K78d.s:16412  .debug_str:00000000000010f3 .LASF765
C:\Users\stapi\AppData\Local\Temp\ccc7K78d.s:16224  .debug_str:0000000000000bf0 .LASF766
C:\Users\stapi\AppData\Local\Temp\ccc7K78d.s:16354  .debug_str:0000000000000f68 .LASF767
C:\Users\stapi\AppData\Local\Temp\ccc7K78d.s:16974  .debug_str:00000000000020b5 .LASF768
C:\Users\stapi\AppData\Local\Temp\ccc7K78d.s:17770  .debug_str:000000000000384b .LASF769
C:\Users\stapi\AppData\Local\Temp\ccc7K78d.s:17430  .debug_str:0000000000002ea4 .LASF770
C:\Users\stapi\AppData\Local\Temp\ccc7K78d.s:18112  .debug_str:000000000000434a .LASF771
C:\Users\stapi\AppData\Local\Temp\ccc7K78d.s:17628  .debug_str:000000000000343f .LASF772
C:\Users\stapi\AppData\Local\Temp\ccc7K78d.s:16520  .debug_str:00000000000013de .LASF773
C:\Users\stapi\AppData\Local\Temp\ccc7K78d.s:16238  .debug_str:0000000000000c52 .LASF774
C:\Users\stapi\AppData\Local\Temp\ccc7K78d.s:16678  .debug_str:0000000000001855 .LASF775
C:\Users\stapi\AppData\Local\Temp\ccc7K78d.s:17840  .debug_str:0000000000003a22 .LASF776
C:\Users\stapi\AppData\Local\Temp\ccc7K78d.s:17212  .debug_str:00000000000028d4 .LASF777
C:\Users\stapi\AppData\Local\Temp\ccc7K78d.s:17522  .debug_str:0000000000003117 .LASF778
C:\Users\stapi\AppData\Local\Temp\ccc7K78d.s:16600  .debug_str:00000000000015df .LASF779
C:\Users\stapi\AppData\Local\Temp\ccc7K78d.s:16970  .debug_str:000000000000209b .LASF780
C:\Users\stapi\AppData\Local\Temp\ccc7K78d.s:15978  .debug_str:0000000000000518 .LASF781
C:\Users\stapi\AppData\Local\Temp\ccc7K78d.s:15906  .debug_str:000000000000032e .LASF782
C:\Users\stapi\AppData\Local\Temp\ccc7K78d.s:17382  .debug_str:0000000000002d58 .LASF783
C:\Users\stapi\AppData\Local\Temp\ccc7K78d.s:17146  .debug_str:00000000000026bf .LASF784
C:\Users\stapi\AppData\Local\Temp\ccc7K78d.s:16014  .debug_str:0000000000000649 .LASF785
C:\Users\stapi\AppData\Local\Temp\ccc7K78d.s:17260  .debug_str:0000000000002a49 .LASF786
C:\Users\stapi\AppData\Local\Temp\ccc7K78d.s:15962  .debug_str:00000000000004ad .LASF787
C:\Users\stapi\AppData\Local\Temp\ccc7K78d.s:15944  .debug_str:0000000000000430 .LASF788
C:\Users\stapi\AppData\Local\Temp\ccc7K78d.s:18002  .debug_str:0000000000004002 .LASF789
C:\Users\stapi\AppData\Local\Temp\ccc7K78d.s:18056  .debug_str:00000000000041b3 .LASF790
C:\Users\stapi\AppData\Local\Temp\ccc7K78d.s:18006  .debug_str:000000000000401b .LASF791
C:\Users\stapi\AppData\Local\Temp\ccc7K78d.s:17520  .debug_str:0000000000003105 .LASF792
C:\Users\stapi\AppData\Local\Temp\ccc7K78d.s:15832  .debug_str:0000000000000134 .LASF793
C:\Users\stapi\AppData\Local\Temp\ccc7K78d.s:15950  .debug_str:000000000000045c .LASF794
C:\Users\stapi\AppData\Local\Temp\ccc7K78d.s:16064  .debug_str:000000000000079f .LASF795
C:\Users\stapi\AppData\Local\Temp\ccc7K78d.s:17788  .debug_str:00000000000038c7 .LASF796
C:\Users\stapi\AppData\Local\Temp\ccc7K78d.s:16994  .debug_str:0000000000002133 .LASF797
C:\Users\stapi\AppData\Local\Temp\ccc7K78d.s:17792  .debug_str:00000000000038de .LASF798
C:\Users\stapi\AppData\Local\Temp\ccc7K78d.s:16774  .debug_str:0000000000001b6c .LASF799
C:\Users\stapi\AppData\Local\Temp\ccc7K78d.s:15948  .debug_str:000000000000044b .LASF800
C:\Users\stapi\AppData\Local\Temp\ccc7K78d.s:17186  .debug_str:0000000000002804 .LASF801
C:\Users\stapi\AppData\Local\Temp\ccc7K78d.s:15952  .debug_str:000000000000046b .LASF802
C:\Users\stapi\AppData\Local\Temp\ccc7K78d.s:17158  .debug_str:0000000000002718 .LASF803
C:\Users\stapi\AppData\Local\Temp\ccc7K78d.s:16234  .debug_str:0000000000000c39 .LASF804
C:\Users\stapi\AppData\Local\Temp\ccc7K78d.s:16548  .debug_str:0000000000001489 .LASF805
C:\Users\stapi\AppData\Local\Temp\ccc7K78d.s:17470  .debug_str:0000000000002f9b .LASF806
C:\Users\stapi\AppData\Local\Temp\ccc7K78d.s:17942  .debug_str:0000000000003d4f .LASF807
C:\Users\stapi\AppData\Local\Temp\ccc7K78d.s:17350  .debug_str:0000000000002c7a .LASF808
C:\Users\stapi\AppData\Local\Temp\ccc7K78d.s:16334  .debug_str:0000000000000eda .LASF809
C:\Users\stapi\AppData\Local\Temp\ccc7K78d.s:17302  .debug_str:0000000000002b51 .LASF810
C:\Users\stapi\AppData\Local\Temp\ccc7K78d.s:16382  .debug_str:000000000000100c .LASF811
C:\Users\stapi\AppData\Local\Temp\ccc7K78d.s:16324  .debug_str:0000000000000e8a .LASF812
C:\Users\stapi\AppData\Local\Temp\ccc7K78d.s:16904  .debug_str:0000000000001ecd .LASF813
C:\Users\stapi\AppData\Local\Temp\ccc7K78d.s:17532  .debug_str:0000000000003167 .LASF814
C:\Users\stapi\AppData\Local\Temp\ccc7K78d.s:16714  .debug_str:000000000000196e .LASF815
C:\Users\stapi\AppData\Local\Temp\ccc7K78d.s:16782  .debug_str:0000000000001ba2 .LASF816
C:\Users\stapi\AppData\Local\Temp\ccc7K78d.s:15938  .debug_str:0000000000000405 .LASF817
C:\Users\stapi\AppData\Local\Temp\ccc7K78d.s:17822  .debug_str:00000000000039b2 .LASF818
C:\Users\stapi\AppData\Local\Temp\ccc7K78d.s:17974  .debug_str:0000000000003f3e .LASF819
C:\Users\stapi\AppData\Local\Temp\ccc7K78d.s:16010  .debug_str:0000000000000628 .LASF820
C:\Users\stapi\AppData\Local\Temp\ccc7K78d.s:15800  .debug_str:0000000000000029 .LASF821
C:\Users\stapi\AppData\Local\Temp\ccc7K78d.s:17496  .debug_str:000000000000304e .LASF822
C:\Users\stapi\AppData\Local\Temp\ccc7K78d.s:16260  .debug_str:0000000000000cda .LASF823
C:\Users\stapi\AppData\Local\Temp\ccc7K78d.s:17038  .debug_str:0000000000002264 .LASF824
C:\Users\stapi\AppData\Local\Temp\ccc7K78d.s:15996  .debug_str:00000000000005b0 .LASF825
C:\Users\stapi\AppData\Local\Temp\ccc7K78d.s:16858  .debug_str:0000000000001dae .LASF826
C:\Users\stapi\AppData\Local\Temp\ccc7K78d.s:16530  .debug_str:0000000000001414 .LASF827
C:\Users\stapi\AppData\Local\Temp\ccc7K78d.s:16126  .debug_str:0000000000000970 .LASF828
C:\Users\stapi\AppData\Local\Temp\ccc7K78d.s:17888  .debug_str:0000000000003bbf .LASF829
C:\Users\stapi\AppData\Local\Temp\ccc7K78d.s:16710  .debug_str:0000000000001954 .LASF830
C:\Users\stapi\AppData\Local\Temp\ccc7K78d.s:17700  .debug_str:0000000000003661 .LASF831
C:\Users\stapi\AppData\Local\Temp\ccc7K78d.s:17692  .debug_str:0000000000003623 .LASF832
C:\Users\stapi\AppData\Local\Temp\ccc7K78d.s:17230  .debug_str:000000000000295e .LASF833
C:\Users\stapi\AppData\Local\Temp\ccc7K78d.s:16794  .debug_str:0000000000001bfe .LASF834
C:\Users\stapi\AppData\Local\Temp\ccc7K78d.s:17502  .debug_str:0000000000003072 .LASF835
C:\Users\stapi\AppData\Local\Temp\ccc7K78d.s:17728  .debug_str:0000000000003728 .LASF836
C:\Users\stapi\AppData\Local\Temp\ccc7K78d.s:16302  .debug_str:0000000000000e08 .LASF837
C:\Users\stapi\AppData\Local\Temp\ccc7K78d.s:16212  .debug_str:0000000000000b91 .LASF838
C:\Users\stapi\AppData\Local\Temp\ccc7K78d.s:17670  .debug_str:0000000000003587 .LASF839
C:\Users\stapi\AppData\Local\Temp\ccc7K78d.s:16918  .debug_str:0000000000001f2b .LASF840
C:\Users\stapi\AppData\Local\Temp\ccc7K78d.s:16732  .debug_str:0000000000001a16 .LASF841
C:\Users\stapi\AppData\Local\Temp\ccc7K78d.s:16272  .debug_str:0000000000000d23 .LASF842
C:\Users\stapi\AppData\Local\Temp\ccc7K78d.s:16008  .debug_str:0000000000000611 .LASF843
C:\Users\stapi\AppData\Local\Temp\ccc7K78d.s:16726  .debug_str:00000000000019d5 .LASF844
C:\Users\stapi\AppData\Local\Temp\ccc7K78d.s:16376  .debug_str:0000000000000fd7 .LASF845
C:\Users\stapi\AppData\Local\Temp\ccc7K78d.s:17666  .debug_str:0000000000003569 .LASF846
C:\Users\stapi\AppData\Local\Temp\ccc7K78d.s:17298  .debug_str:0000000000002b33 .LASF847
C:\Users\stapi\AppData\Local\Temp\ccc7K78d.s:16436  .debug_str:0000000000001198 .LASF848
C:\Users\stapi\AppData\Local\Temp\ccc7K78d.s:16454  .debug_str:0000000000001226 .LASF849
C:\Users\stapi\AppData\Local\Temp\ccc7K78d.s:16764  .debug_str:0000000000001b13 .LASF850
C:\Users\stapi\AppData\Local\Temp\ccc7K78d.s:16184  .debug_str:0000000000000abb .LASF851
C:\Users\stapi\AppData\Local\Temp\ccc7K78d.s:16468  .debug_str:0000000000001282 .LASF852
C:\Users\stapi\AppData\Local\Temp\ccc7K78d.s:16870  .debug_str:0000000000001e01 .LASF853
C:\Users\stapi\AppData\Local\Temp\ccc7K78d.s:16340  .debug_str:0000000000000eff .LASF854
C:\Users\stapi\AppData\Local\Temp\ccc7K78d.s:17322  .debug_str:0000000000002bc4 .LASF855
C:\Users\stapi\AppData\Local\Temp\ccc7K78d.s:17726  .debug_str:0000000000003714 .LASF856
C:\Users\stapi\AppData\Local\Temp\ccc7K78d.s:16506  .debug_str:000000000000137a .LASF857
C:\Users\stapi\AppData\Local\Temp\ccc7K78d.s:17024  .debug_str:00000000000021ff .LASF858
C:\Users\stapi\AppData\Local\Temp\ccc7K78d.s:16838  .debug_str:0000000000001d1a .LASF859
C:\Users\stapi\AppData\Local\Temp\ccc7K78d.s:15828  .debug_str:0000000000000107 .LASF860
C:\Users\stapi\AppData\Local\Temp\ccc7K78d.s:17662  .debug_str:000000000000354d .LASF861
C:\Users\stapi\AppData\Local\Temp\ccc7K78d.s:15908  .debug_str:0000000000000340 .LASF862
C:\Users\stapi\AppData\Local\Temp\ccc7K78d.s:17876  .debug_str:0000000000003b6a .LASF863
C:\Users\stapi\AppData\Local\Temp\ccc7K78d.s:16168  .debug_str:0000000000000a65 .LASF864
C:\Users\stapi\AppData\Local\Temp\ccc7K78d.s:16828  .debug_str:0000000000001cd1 .LASF865
C:\Users\stapi\AppData\Local\Temp\ccc7K78d.s:17918  .debug_str:0000000000003ca5 .LASF866
C:\Users\stapi\AppData\Local\Temp\ccc7K78d.s:17374  .debug_str:0000000000002d1e .LASF867
C:\Users\stapi\AppData\Local\Temp\ccc7K78d.s:16460  .debug_str:000000000000124b .LASF868
C:\Users\stapi\AppData\Local\Temp\ccc7K78d.s:17386  .debug_str:0000000000002d83 .LASF869
C:\Users\stapi\AppData\Local\Temp\ccc7K78d.s:17968  .debug_str:0000000000003f07 .LASF870
C:\Users\stapi\AppData\Local\Temp\ccc7K78d.s:17588  .debug_str:00000000000032eb .LASF871
C:\Users\stapi\AppData\Local\Temp\ccc7K78d.s:17032  .debug_str:0000000000002232 .LASF872
C:\Users\stapi\AppData\Local\Temp\ccc7K78d.s:16142  .debug_str:00000000000009de .LASF873
C:\Users\stapi\AppData\Local\Temp\ccc7K78d.s:16346  .debug_str:0000000000000f2f .LASF874
C:\Users\stapi\AppData\Local\Temp\ccc7K78d.s:16876  .debug_str:0000000000001e25 .LASF875
C:\Users\stapi\AppData\Local\Temp\ccc7K78d.s:17424  .debug_str:0000000000002e87 .LASF876
C:\Users\stapi\AppData\Local\Temp\ccc7K78d.s:17894  .debug_str:0000000000003be0 .LASF877
C:\Users\stapi\AppData\Local\Temp\ccc7K78d.s:16094  .debug_str:000000000000088a .LASF878
C:\Users\stapi\AppData\Local\Temp\ccc7K78d.s:16942  .debug_str:0000000000001fc7 .LASF879
C:\Users\stapi\AppData\Local\Temp\ccc7K78d.s:17778  .debug_str:000000000000387f .LASF880
C:\Users\stapi\AppData\Local\Temp\ccc7K78d.s:16946  .debug_str:0000000000001fe6 .LASF881
C:\Users\stapi\AppData\Local\Temp\ccc7K78d.s:17590  .debug_str:00000000000032f6 .LASF882
C:\Users\stapi\AppData\Local\Temp\ccc7K78d.s:17892  .debug_str:0000000000003bd3 .LASF883
C:\Users\stapi\AppData\Local\Temp\ccc7K78d.s:17250  .debug_str:00000000000029ee .LASF884
C:\Users\stapi\AppData\Local\Temp\ccc7K78d.s:15894  .debug_str:00000000000002e3 .LASF885
C:\Users\stapi\AppData\Local\Temp\ccc7K78d.s:17996  .debug_str:0000000000003fdf .LASF886
C:\Users\stapi\AppData\Local\Temp\ccc7K78d.s:15886  .debug_str:000000000000029b .LASF887
C:\Users\stapi\AppData\Local\Temp\ccc7K78d.s:17594  .debug_str:0000000000003318 .LASF888
C:\Users\stapi\AppData\Local\Temp\ccc7K78d.s:17144  .debug_str:00000000000026af .LASF889
C:\Users\stapi\AppData\Local\Temp\ccc7K78d.s:16944  .debug_str:0000000000001fd4 .LASF890
C:\Users\stapi\AppData\Local\Temp\ccc7K78d.s:15922  .debug_str:000000000000039b .LASF891
C:\Users\stapi\AppData\Local\Temp\ccc7K78d.s:16166  .debug_str:0000000000000a5b .LASF892
C:\Users\stapi\AppData\Local\Temp\ccc7K78d.s:16864  .debug_str:0000000000001dd0 .LASF893
C:\Users\stapi\AppData\Local\Temp\ccc7K78d.s:17608  .debug_str:00000000000033a2 .LASF894
C:\Users\stapi\AppData\Local\Temp\ccc7K78d.s:16656  .debug_str:000000000000178a .LASF895
C:\Users\stapi\AppData\Local\Temp\ccc7K78d.s:17232  .debug_str:0000000000002971 .LASF896
C:\Users\stapi\AppData\Local\Temp\ccc7K78d.s:16002  .debug_str:00000000000005d4 .LASF897
C:\Users\stapi\AppData\Local\Temp\ccc7K78d.s:17828  .debug_str:00000000000039d3 .LASF898
C:\Users\stapi\AppData\Local\Temp\ccc7K78d.s:17578  .debug_str:00000000000032a5 .LASF899
C:\Users\stapi\AppData\Local\Temp\ccc7K78d.s:17060  .debug_str:0000000000002312 .LASF900
C:\Users\stapi\AppData\Local\Temp\ccc7K78d.s:16474  .debug_str:00000000000012a4 .LASF901
C:\Users\stapi\AppData\Local\Temp\ccc7K78d.s:16834  .debug_str:0000000000001cfb .LASF902
C:\Users\stapi\AppData\Local\Temp\ccc7K78d.s:17002  .debug_str:0000000000002176 .LASF903
C:\Users\stapi\AppData\Local\Temp\ccc7K78d.s:16566  .debug_str:00000000000014f2 .LASF904
C:\Users\stapi\AppData\Local\Temp\ccc7K78d.s:15930  .debug_str:00000000000003d1 .LASF905
C:\Users\stapi\AppData\Local\Temp\ccc7K78d.s:18048  .debug_str:0000000000004187 .LASF906
C:\Users\stapi\AppData\Local\Temp\ccc7K78d.s:16950  .debug_str:0000000000001fff .LASF907
C:\Users\stapi\AppData\Local\Temp\ccc7K78d.s:18004  .debug_str:0000000000004011 .LASF908
C:\Users\stapi\AppData\Local\Temp\ccc7K78d.s:17256  .debug_str:0000000000002a2b .LASF909
C:\Users\stapi\AppData\Local\Temp\ccc7K78d.s:15824  .debug_str:00000000000000e2 .LASF910
C:\Users\stapi\AppData\Local\Temp\ccc7K78d.s:16830  .debug_str:0000000000001ce9 .LASF911
C:\Users\stapi\AppData\Local\Temp\ccc7K78d.s:16676  .debug_str:0000000000001847 .LASF912
C:\Users\stapi\AppData\Local\Temp\ccc7K78d.s:17214  .debug_str:00000000000028e2 .LASF913
C:\Users\stapi\AppData\Local\Temp\ccc7K78d.s:16854  .debug_str:0000000000001d8b .LASF914
C:\Users\stapi\AppData\Local\Temp\ccc7K78d.s:16128  .debug_str:000000000000097a .LASF915
C:\Users\stapi\AppData\Local\Temp\ccc7K78d.s:16768  .debug_str:0000000000001b37 .LASF916
C:\Users\stapi\AppData\Local\Temp\ccc7K78d.s:17464  .debug_str:0000000000002f79 .LASF917
C:\Users\stapi\AppData\Local\Temp\ccc7K78d.s:17896  .debug_str:0000000000003be9 .LASF918
C:\Users\stapi\AppData\Local\Temp\ccc7K78d.s:17054  .debug_str:00000000000022df .LASF919
C:\Users\stapi\AppData\Local\Temp\ccc7K78d.s:17740  .debug_str:000000000000378b .LASF920
C:\Users\stapi\AppData\Local\Temp\ccc7K78d.s:17950  .debug_str:0000000000003d8c .LASF921
C:\Users\stapi\AppData\Local\Temp\ccc7K78d.s:15864  .debug_str:0000000000000217 .LASF922
C:\Users\stapi\AppData\Local\Temp\ccc7K78d.s:17990  .debug_str:0000000000003fb5 .LASF923
C:\Users\stapi\AppData\Local\Temp\ccc7K78d.s:16042  .debug_str:00000000000006e8 .LASF924
C:\Users\stapi\AppData\Local\Temp\ccc7K78d.s:16546  .debug_str:000000000000147e .LASF925
C:\Users\stapi\AppData\Local\Temp\ccc7K78d.s:15898  .debug_str:00000000000002fc .LASF926
C:\Users\stapi\AppData\Local\Temp\ccc7K78d.s:17482  .debug_str:0000000000002fe6 .LASF927
C:\Users\stapi\AppData\Local\Temp\ccc7K78d.s:17258  .debug_str:0000000000002a39 .LASF928
C:\Users\stapi\AppData\Local\Temp\ccc7K78d.s:16396  .debug_str:0000000000001077 .LASF929
C:\Users\stapi\AppData\Local\Temp\ccc7K78d.s:16968  .debug_str:000000000000208b .LASF930
C:\Users\stapi\AppData\Local\Temp\ccc7K78d.s:18068  .debug_str:0000000000004206 .LASF931
C:\Users\stapi\AppData\Local\Temp\ccc7K78d.s:17650  .debug_str:00000000000034e4 .LASF932
C:\Users\stapi\AppData\Local\Temp\ccc7K78d.s:17528  .debug_str:0000000000003142 .LASF933
C:\Users\stapi\AppData\Local\Temp\ccc7K78d.s:16836  .debug_str:0000000000001d01 .LASF934
C:\Users\stapi\AppData\Local\Temp\ccc7K78d.s:17118  .debug_str:00000000000025e8 .LASF935
C:\Users\stapi\AppData\Local\Temp\ccc7K78d.s:15980  .debug_str:0000000000000530 .LASF936
C:\Users\stapi\AppData\Local\Temp\ccc7K78d.s:16462  .debug_str:0000000000001261 .LASF937
C:\Users\stapi\AppData\Local\Temp\ccc7K78d.s:16990  .debug_str:000000000000210b .LASF938
C:\Users\stapi\AppData\Local\Temp\ccc7K78d.s:16350  .debug_str:0000000000000f4f .LASF939
C:\Users\stapi\AppData\Local\Temp\ccc7K78d.s:16046  .debug_str:0000000000000718 .LASF940
C:\Users\stapi\AppData\Local\Temp\ccc7K78d.s:16384  .debug_str:0000000000001019 .LASF941
C:\Users\stapi\AppData\Local\Temp\ccc7K78d.s:16188  .debug_str:0000000000000ad9 .LASF942
C:\Users\stapi\AppData\Local\Temp\ccc7K78d.s:16108  .debug_str:00000000000008e1 .LASF943
C:\Users\stapi\AppData\Local\Temp\ccc7K78d.s:17506  .debug_str:000000000000309a .LASF944
C:\Users\stapi\AppData\Local\Temp\ccc7K78d.s:16816  .debug_str:0000000000001c80 .LASF945
C:\Users\stapi\AppData\Local\Temp\ccc7K78d.s:17274  .debug_str:0000000000002a9a .LASF946
C:\Users\stapi\AppData\Local\Temp\ccc7K78d.s:16810  .debug_str:0000000000001c60 .LASF947
C:\Users\stapi\AppData\Local\Temp\ccc7K78d.s:16740  .debug_str:0000000000001a61 .LASF948
C:\Users\stapi\AppData\Local\Temp\ccc7K78d.s:17366  .debug_str:0000000000002ce0 .LASF949
C:\Users\stapi\AppData\Local\Temp\ccc7K78d.s:16246  .debug_str:0000000000000c88 .LASF950
C:\Users\stapi\AppData\Local\Temp\ccc7K78d.s:18104  .debug_str:000000000000430e .LASF951
C:\Users\stapi\AppData\Local\Temp\ccc7K78d.s:16568  .debug_str:00000000000014f9 .LASF952
C:\Users\stapi\AppData\Local\Temp\ccc7K78d.s:17472  .debug_str:0000000000002fa6 .LASF953
C:\Users\stapi\AppData\Local\Temp\ccc7K78d.s:16026  .debug_str:0000000000000684 .LASF954
C:\Users\stapi\AppData\Local\Temp\ccc7K78d.s:17264  .debug_str:0000000000002a69 .LASF955
C:\Users\stapi\AppData\Local\Temp\ccc7K78d.s:17768  .debug_str:0000000000003841 .LASF956
C:\Users\stapi\AppData\Local\Temp\ccc7K78d.s:17452  .debug_str:0000000000002f2d .LASF957
C:\Users\stapi\AppData\Local\Temp\ccc7K78d.s:17514  .debug_str:00000000000030d9 .LASF958
C:\Users\stapi\AppData\Local\Temp\ccc7K78d.s:18058  .debug_str:00000000000041bb .LASF959
C:\Users\stapi\AppData\Local\Temp\ccc7K78d.s:17196  .debug_str:0000000000002856 .LASF960
C:\Users\stapi\AppData\Local\Temp\ccc7K78d.s:16734  .debug_str:0000000000001a30 .LASF961
C:\Users\stapi\AppData\Local\Temp\ccc7K78d.s:15798  .debug_str:0000000000000023 .LASF962
C:\Users\stapi\AppData\Local\Temp\ccc7K78d.s:17570  .debug_str:0000000000003275 .LASF963
C:\Users\stapi\AppData\Local\Temp\ccc7K78d.s:17618  .debug_str:00000000000033f2 .LASF964
C:\Users\stapi\AppData\Local\Temp\ccc7K78d.s:17016  .debug_str:00000000000021c0 .LASF965
C:\Users\stapi\AppData\Local\Temp\ccc7K78d.s:16998  .debug_str:000000000000214a .LASF966
C:\Users\stapi\AppData\Local\Temp\ccc7K78d.s:17652  .debug_str:00000000000034f7 .LASF967
C:\Users\stapi\AppData\Local\Temp\ccc7K78d.s:16806  .debug_str:0000000000001c4c .LASF968
C:\Users\stapi\AppData\Local\Temp\ccc7K78d.s:18026  .debug_str:00000000000040cc .LASF969
C:\Users\stapi\AppData\Local\Temp\ccc7K78d.s:16650  .debug_str:000000000000175c .LASF970
C:\Users\stapi\AppData\Local\Temp\ccc7K78d.s:16686  .debug_str:000000000000189e .LASF971
C:\Users\stapi\AppData\Local\Temp\ccc7K78d.s:16214  .debug_str:0000000000000b9d .LASF972
C:\Users\stapi\AppData\Local\Temp\ccc7K78d.s:16984  .debug_str:00000000000020f4 .LASF973
C:\Users\stapi\AppData\Local\Temp\ccc7K78d.s:16826  .debug_str:0000000000001cc1 .LASF974
C:\Users\stapi\AppData\Local\Temp\ccc7K78d.s:16044  .debug_str:00000000000006fe .LASF975
C:\Users\stapi\AppData\Local\Temp\ccc7K78d.s:16114  .debug_str:0000000000000905 .LASF976
C:\Users\stapi\AppData\Local\Temp\ccc7K78d.s:17842  .debug_str:0000000000003a38 .LASF977
C:\Users\stapi\AppData\Local\Temp\ccc7K78d.s:15804  .debug_str:0000000000000045 .LASF978
C:\Users\stapi\AppData\Local\Temp\ccc7K78d.s:16784  .debug_str:0000000000001bb1 .LASF979
C:\Users\stapi\AppData\Local\Temp\ccc7K78d.s:18010  .debug_str:000000000000402c .LASF980
C:\Users\stapi\AppData\Local\Temp\ccc7K78d.s:17286  .debug_str:0000000000002ae2 .LASF981
C:\Users\stapi\AppData\Local\Temp\ccc7K78d.s:16848  .debug_str:0000000000001d5c .LASF982
C:\Users\stapi\AppData\Local\Temp\ccc7K78d.s:18110  .debug_str:0000000000004332 .LASF983
C:\Users\stapi\AppData\Local\Temp\ccc7K78d.s:16000  .debug_str:00000000000005c5 .LASF984
C:\Users\stapi\AppData\Local\Temp\ccc7K78d.s:15884  .debug_str:000000000000028d .LASF985
C:\Users\stapi\AppData\Local\Temp\ccc7K78d.s:15964  .debug_str:00000000000004b5 .LASF986
C:\Users\stapi\AppData\Local\Temp\ccc7K78d.s:16450  .debug_str:0000000000001209 .LASF987
C:\Users\stapi\AppData\Local\Temp\ccc7K78d.s:16052  .debug_str:0000000000000742 .LASF988
C:\Users\stapi\AppData\Local\Temp\ccc7K78d.s:17916  .debug_str:0000000000003c9d .LASF989
C:\Users\stapi\AppData\Local\Temp\ccc7K78d.s:16744  .debug_str:0000000000001a7e .LASF990
C:\Users\stapi\AppData\Local\Temp\ccc7K78d.s:16180  .debug_str:0000000000000aa6 .LASF991
C:\Users\stapi\AppData\Local\Temp\ccc7K78d.s:16490  .debug_str:0000000000001301 .LASF992
C:\Users\stapi\AppData\Local\Temp\ccc7K78d.s:17172  .debug_str:000000000000278c .LASF993
C:\Users\stapi\AppData\Local\Temp\ccc7K78d.s:17796  .debug_str:0000000000003902 .LASF994
C:\Users\stapi\AppData\Local\Temp\ccc7K78d.s:18108  .debug_str:0000000000004322 .LASF995
C:\Users\stapi\AppData\Local\Temp\ccc7K78d.s:16660  .debug_str:00000000000017bc .LASF996
C:\Users\stapi\AppData\Local\Temp\ccc7K78d.s:17270  .debug_str:0000000000002a84 .LASF997
C:\Users\stapi\AppData\Local\Temp\ccc7K78d.s:17042  .debug_str:0000000000002279 .LASF998
C:\Users\stapi\AppData\Local\Temp\ccc7K78d.s:17640  .debug_str:0000000000003498 .LASF999
C:\Users\stapi\AppData\Local\Temp\ccc7K78d.s:16910  .debug_str:0000000000001ef3 .LASF1000
C:\Users\stapi\AppData\Local\Temp\ccc7K78d.s:16068  .debug_str:00000000000007ba .LASF1001
C:\Users\stapi\AppData\Local\Temp\ccc7K78d.s:15836  .debug_str:0000000000000146 .LASF1002
C:\Users\stapi\AppData\Local\Temp\ccc7K78d.s:16514  .debug_str:00000000000013ae .LASF1003
C:\Users\stapi\AppData\Local\Temp\ccc7K78d.s:16822  .debug_str:0000000000001c9d .LASF1004
C:\Users\stapi\AppData\Local\Temp\ccc7K78d.s:16386  .debug_str:000000000000102a .LASF1005
C:\Users\stapi\AppData\Local\Temp\ccc7K78d.s:16620  .debug_str:0000000000001688 .LASF1006
C:\Users\stapi\AppData\Local\Temp\ccc7K78d.s:16306  .debug_str:0000000000000e1d .LASF1007
C:\Users\stapi\AppData\Local\Temp\ccc7K78d.s:17744  .debug_str:00000000000037a3 .LASF1008
C:\Users\stapi\AppData\Local\Temp\ccc7K78d.s:17906  .debug_str:0000000000003c42 .LASF1009
C:\Users\stapi\AppData\Local\Temp\ccc7K78d.s:18022  .debug_str:000000000000409b .LASF1010
C:\Users\stapi\AppData\Local\Temp\ccc7K78d.s:15896  .debug_str:00000000000002f3 .LASF1011
C:\Users\stapi\AppData\Local\Temp\ccc7K78d.s:16754  .debug_str:0000000000001abf .LASF1012
C:\Users\stapi\AppData\Local\Temp\ccc7K78d.s:15840  .debug_str:0000000000000166 .LASF1013
C:\Users\stapi\AppData\Local\Temp\ccc7K78d.s:18046  .debug_str:0000000000004179 .LASF1014
C:\Users\stapi\AppData\Local\Temp\ccc7K78d.s:17624  .debug_str:0000000000003418 .LASF1015
C:\Users\stapi\AppData\Local\Temp\ccc7K78d.s:15822  .debug_str:00000000000000cc .LASF1016
C:\Users\stapi\AppData\Local\Temp\ccc7K78d.s:17372  .debug_str:0000000000002d0f .LASF1017
C:\Users\stapi\AppData\Local\Temp\ccc7K78d.s:17676  .debug_str:00000000000035b6 .LASF1018
C:\Users\stapi\AppData\Local\Temp\ccc7K78d.s:16578  .debug_str:000000000000154e .LASF1019
C:\Users\stapi\AppData\Local\Temp\ccc7K78d.s:16240  .debug_str:0000000000000c59 .LASF1020
C:\Users\stapi\AppData\Local\Temp\ccc7K78d.s:16292  .debug_str:0000000000000dbb .LASF1021
C:\Users\stapi\AppData\Local\Temp\ccc7K78d.s:17208  .debug_str:00000000000028bc .LASF1022
C:\Users\stapi\AppData\Local\Temp\ccc7K78d.s:18054  .debug_str:00000000000041a9 .LASF1023
C:\Users\stapi\AppData\Local\Temp\ccc7K78d.s:17444  .debug_str:0000000000002f07 .LASF1024
C:\Users\stapi\AppData\Local\Temp\ccc7K78d.s:17304  .debug_str:0000000000002b5b .LASF1025
C:\Users\stapi\AppData\Local\Temp\ccc7K78d.s:15926  .debug_str:00000000000003b6 .LASF1026
C:\Users\stapi\AppData\Local\Temp\ccc7K78d.s:17592  .debug_str:0000000000003307 .LASF1027
C:\Users\stapi\AppData\Local\Temp\ccc7K78d.s:16286  .debug_str:0000000000000d82 .LASF1028
C:\Users\stapi\AppData\Local\Temp\ccc7K78d.s:16770  .debug_str:0000000000001b43 .LASF1029
C:\Users\stapi\AppData\Local\Temp\ccc7K78d.s:17388  .debug_str:0000000000002d95 .LASF1030
C:\Users\stapi\AppData\Local\Temp\ccc7K78d.s:16164  .debug_str:0000000000000a52 .LASF1031
C:\Users\stapi\AppData\Local\Temp\ccc7K78d.s:17970  .debug_str:0000000000003f19 .LASF1032
C:\Users\stapi\AppData\Local\Temp\ccc7K78d.s:16216  .debug_str:0000000000000bab .LASF1033
C:\Users\stapi\AppData\Local\Temp\ccc7K78d.s:15982  .debug_str:0000000000000548 .LASF1034
C:\Users\stapi\AppData\Local\Temp\ccc7K78d.s:16156  .debug_str:0000000000000a2a .LASF1035
C:\Users\stapi\AppData\Local\Temp\ccc7K78d.s:16296  .debug_str:0000000000000ddc .LASF1036
C:\Users\stapi\AppData\Local\Temp\ccc7K78d.s:18070  .debug_str:0000000000004213 .LASF1037
C:\Users\stapi\AppData\Local\Temp\ccc7K78d.s:15958  .debug_str:000000000000049a .LASF1038
C:\Users\stapi\AppData\Local\Temp\ccc7K78d.s:18066  .debug_str:00000000000041f4 .LASF1039
C:\Users\stapi\AppData\Local\Temp\ccc7K78d.s:17412  .debug_str:0000000000002e21 .LASF1040
C:\Users\stapi\AppData\Local\Temp\ccc7K78d.s:18044  .debug_str:0000000000004167 .LASF1041
C:\Users\stapi\AppData\Local\Temp\ccc7K78d.s:18060  .debug_str:00000000000041cf .LASF1042
C:\Users\stapi\AppData\Local\Temp\ccc7K78d.s:15816  .debug_str:0000000000000099 .LASF1043
C:\Users\stapi\AppData\Local\Temp\ccc7K78d.s:18072  .debug_str:0000000000004222 .LASF1044
C:\Users\stapi\AppData\Local\Temp\ccc7K78d.s:17558  .debug_str:0000000000003211 .LASF1045
C:\Users\stapi\AppData\Local\Temp\ccc7K78d.s:16082  .debug_str:0000000000000831 .LASF1046
C:\Users\stapi\AppData\Local\Temp\ccc7K78d.s:17914  .debug_str:0000000000003c8b .LASF1047
C:\Users\stapi\AppData\Local\Temp\ccc7K78d.s:17564  .debug_str:000000000000323e .LASF1048
C:\Users\stapi\AppData\Local\Temp\ccc7K78d.s:16584  .debug_str:0000000000001578 .LASF1049
C:\Users\stapi\AppData\Local\Temp\ccc7K78d.s:17584  .debug_str:00000000000032c5 .LASF1050
C:\Users\stapi\AppData\Local\Temp\ccc7K78d.s:16882  .debug_str:0000000000001e3c .LASF1051
C:\Users\stapi\AppData\Local\Temp\ccc7K78d.s:18030  .debug_str:00000000000040eb .LASF1052
C:\Users\stapi\AppData\Local\Temp\ccc7K78d.s:17062  .debug_str:0000000000002321 .LASF1053
C:\Users\stapi\AppData\Local\Temp\ccc7K78d.s:18098  .debug_str:00000000000042d9 .LASF1054
C:\Users\stapi\AppData\Local\Temp\ccc7K78d.s:16632  .debug_str:00000000000016ed .LASF1055
C:\Users\stapi\AppData\Local\Temp\ccc7K78d.s:17978  .debug_str:0000000000003f64 .LASF1056
C:\Users\stapi\AppData\Local\Temp\ccc7K78d.s:16446  .debug_str:00000000000011ef .LASF1057
C:\Users\stapi\AppData\Local\Temp\ccc7K78d.s:17754  .debug_str:00000000000037f3 .LASF1058
C:\Users\stapi\AppData\Local\Temp\ccc7K78d.s:17538  .debug_str:000000000000318a .LASF1059
C:\Users\stapi\AppData\Local\Temp\ccc7K78d.s:17124  .debug_str:0000000000002611 .LASF1060
C:\Users\stapi\AppData\Local\Temp\ccc7K78d.s:17552  .debug_str:00000000000031ec .LASF1061
C:\Users\stapi\AppData\Local\Temp\ccc7K78d.s:17384  .debug_str:0000000000002d71 .LASF1062
C:\Users\stapi\AppData\Local\Temp\ccc7K78d.s:16850  .debug_str:0000000000001d6d .LASF1063
C:\Users\stapi\AppData\Local\Temp\ccc7K78d.s:17324  .debug_str:0000000000002bd4 .LASF1064
C:\Users\stapi\AppData\Local\Temp\ccc7K78d.s:15928  .debug_str:00000000000003bf .LASF1065
C:\Users\stapi\AppData\Local\Temp\ccc7K78d.s:16750  .debug_str:0000000000001aa2 .LASF1066
C:\Users\stapi\AppData\Local\Temp\ccc7K78d.s:17132  .debug_str:000000000000263b .LASF1067
C:\Users\stapi\AppData\Local\Temp\ccc7K78d.s:15852  .debug_str:00000000000001c7 .LASF1068
C:\Users\stapi\AppData\Local\Temp\ccc7K78d.s:16628  .debug_str:00000000000016c2 .LASF1069
C:\Users\stapi\AppData\Local\Temp\ccc7K78d.s:17984  .debug_str:0000000000003f99 .LASF1070
C:\Users\stapi\AppData\Local\Temp\ccc7K78d.s:16654  .debug_str:0000000000001780 .LASF1071
C:\Users\stapi\AppData\Local\Temp\ccc7K78d.s:15940  .debug_str:000000000000040f .LASF1072
C:\Users\stapi\AppData\Local\Temp\ccc7K78d.s:16894  .debug_str:0000000000001e8e .LASF1073
C:\Users\stapi\AppData\Local\Temp\ccc7K78d.s:16938  .debug_str:0000000000001fba .LASF1074
C:\Users\stapi\AppData\Local\Temp\ccc7K78d.s:16680  .debug_str:0000000000001869 .LASF1075
C:\Users\stapi\AppData\Local\Temp\ccc7K78d.s:17006  .debug_str:000000000000218f .LASF1076
C:\Users\stapi\AppData\Local\Temp\ccc7K78d.s:16420  .debug_str:0000000000001123 .LASF1077
C:\Users\stapi\AppData\Local\Temp\ccc7K78d.s:17096  .debug_str:0000000000002521 .LASF1078
C:\Users\stapi\AppData\Local\Temp\ccc7K78d.s:17478  .debug_str:0000000000002fd2 .LASF1079
C:\Users\stapi\AppData\Local\Temp\ccc7K78d.s:16804  .debug_str:0000000000001c46 .LASF1080
C:\Users\stapi\AppData\Local\Temp\ccc7K78d.s:17116  .debug_str:00000000000025e0 .LASF1081
C:\Users\stapi\AppData\Local\Temp\ccc7K78d.s:16832  .debug_str:0000000000001cf3 .LASF1082
C:\Users\stapi\AppData\Local\Temp\ccc7K78d.s:17410  .debug_str:0000000000002e11 .LASF1083
C:\Users\stapi\AppData\Local\Temp\ccc7K78d.s:16884  .debug_str:0000000000001e4a .LASF1084
C:\Users\stapi\AppData\Local\Temp\ccc7K78d.s:15878  .debug_str:0000000000000271 .LASF1085
C:\Users\stapi\AppData\Local\Temp\ccc7K78d.s:17280  .debug_str:0000000000002ac5 .LASF1086
C:\Users\stapi\AppData\Local\Temp\ccc7K78d.s:17226  .debug_str:000000000000293b .LASF1087
C:\Users\stapi\AppData\Local\Temp\ccc7K78d.s:17680  .debug_str:00000000000035d3 .LASF1088
C:\Users\stapi\AppData\Local\Temp\ccc7K78d.s:17310  .debug_str:0000000000002b7c .LASF1089
C:\Users\stapi\AppData\Local\Temp\ccc7K78d.s:17928  .debug_str:0000000000003ce5 .LASF1090
C:\Users\stapi\AppData\Local\Temp\ccc7K78d.s:15946  .debug_str:0000000000000437 .LASF1091
C:\Users\stapi\AppData\Local\Temp\ccc7K78d.s:17022  .debug_str:00000000000021f0 .LASF1092
C:\Users\stapi\AppData\Local\Temp\ccc7K78d.s:16682  .debug_str:0000000000001878 .LASF1093
C:\Users\stapi\AppData\Local\Temp\ccc7K78d.s:17530  .debug_str:0000000000003155 .LASF1094
C:\Users\stapi\AppData\Local\Temp\ccc7K78d.s:17994  .debug_str:0000000000003fd0 .LASF1095
C:\Users\stapi\AppData\Local\Temp\ccc7K78d.s:17724  .debug_str:00000000000036fd .LASF1096
C:\Users\stapi\AppData\Local\Temp\ccc7K78d.s:16852  .debug_str:0000000000001d81 .LASF1097
C:\Users\stapi\AppData\Local\Temp\ccc7K78d.s:16176  .debug_str:0000000000000a8d .LASF1098
C:\Users\stapi\AppData\Local\Temp\ccc7K78d.s:17850  .debug_str:0000000000003a82 .LASF1099
C:\Users\stapi\AppData\Local\Temp\ccc7K78d.s:17014  .debug_str:00000000000021b8 .LASF1100
C:\Users\stapi\AppData\Local\Temp\ccc7K78d.s:15876  .debug_str:0000000000000262 .LASF1101
C:\Users\stapi\AppData\Local\Temp\ccc7K78d.s:16908  .debug_str:0000000000001ee5 .LASF1102
C:\Users\stapi\AppData\Local\Temp\ccc7K78d.s:17364  .debug_str:0000000000002cce .LASF1103
C:\Users\stapi\AppData\Local\Temp\ccc7K78d.s:17656  .debug_str:000000000000350a .LASF1104
C:\Users\stapi\AppData\Local\Temp\ccc7K78d.s:17468  .debug_str:0000000000002f95 .LASF1105
C:\Users\stapi\AppData\Local\Temp\ccc7K78d.s:16524  .debug_str:00000000000013f4 .LASF1106
C:\Users\stapi\AppData\Local\Temp\ccc7K78d.s:17954  .debug_str:0000000000003d9f .LASF1107
C:\Users\stapi\AppData\Local\Temp\ccc7K78d.s:18032  .debug_str:00000000000040ff .LASF1108
C:\Users\stapi\AppData\Local\Temp\ccc7K78d.s:17630  .debug_str:0000000000003449 .LASF1109
C:\Users\stapi\AppData\Local\Temp\ccc7K78d.s:17944  .debug_str:0000000000003d5e .LASF1110
C:\Users\stapi\AppData\Local\Temp\ccc7K78d.s:17218  .debug_str:0000000000002906 .LASF1111
C:\Users\stapi\AppData\Local\Temp\ccc7K78d.s:17276  .debug_str:0000000000002aa6 .LASF1112
C:\Users\stapi\AppData\Local\Temp\ccc7K78d.s:17010  .debug_str:000000000000219f .LASF1113
C:\Users\stapi\AppData\Local\Temp\ccc7K78d.s:16638  .debug_str:000000000000170a .LASF1114
C:\Users\stapi\AppData\Local\Temp\ccc7K78d.s:15834  .debug_str:000000000000013a .LASF1115
C:\Users\stapi\AppData\Local\Temp\ccc7K78d.s:17732  .debug_str:0000000000003740 .LASF1116
C:\Users\stapi\AppData\Local\Temp\ccc7K78d.s:16914  .debug_str:0000000000001f0f .LASF1117
C:\Users\stapi\AppData\Local\Temp\ccc7K78d.s:16140  .debug_str:00000000000009d0 .LASF1118
C:\Users\stapi\AppData\Local\Temp\ccc7K78d.s:17288  .debug_str:0000000000002af5 .LASF1119
C:\Users\stapi\AppData\Local\Temp\ccc7K78d.s:16896  .debug_str:0000000000001e9f .LASF1120
C:\Users\stapi\AppData\Local\Temp\ccc7K78d.s:18090  .debug_str:00000000000042a8 .LASF1121
C:\Users\stapi\AppData\Local\Temp\ccc7K78d.s:17358  .debug_str:0000000000002cac .LASF1122
C:\Users\stapi\AppData\Local\Temp\ccc7K78d.s:17664  .debug_str:0000000000003561 .LASF1123
C:\Users\stapi\AppData\Local\Temp\ccc7K78d.s:17780  .debug_str:000000000000388e .LASF1124
C:\Users\stapi\AppData\Local\Temp\ccc7K78d.s:16898  .debug_str:0000000000001eab .LASF1125
C:\Users\stapi\AppData\Local\Temp\ccc7K78d.s:16642  .debug_str:000000000000171a .LASF1133
C:\Users\stapi\AppData\Local\Temp\ccc7K78d.s:803    .text.wpas_supp_op_classes:0000000000000000 .LFB148
C:\Users\stapi\AppData\Local\Temp\ccc7K78d.s:1303   .text.wpas_supp_op_classes:00000000000002d2 .LFE148
C:\Users\stapi\AppData\Local\Temp\ccc7K78d.s:14970  .debug_loc:0000000000000000 .LLST39
C:\Users\stapi\AppData\Local\Temp\ccc7K78d.s:14981  .debug_loc:000000000000001e .LLST40
C:\Users\stapi\AppData\Local\Temp\ccc7K78d.s:14999  .debug_loc:000000000000004a .LLST41
C:\Users\stapi\AppData\Local\Temp\ccc7K78d.s:17128  .debug_str:0000000000002623 .LASF1126
C:\Users\stapi\AppData\Local\Temp\ccc7K78d.s:17204  .debug_str:00000000000028ad .LASF1127
C:\Users\stapi\AppData\Local\Temp\ccc7K78d.s:15020  .debug_loc:0000000000000080 .LLST43
C:\Users\stapi\AppData\Local\Temp\ccc7K78d.s:861    .text.wpas_supp_op_classes:0000000000000034 .LBB35
C:\Users\stapi\AppData\Local\Temp\ccc7K78d.s:15031  .debug_loc:000000000000009e .LLST44
C:\Users\stapi\AppData\Local\Temp\ccc7K78d.s:15049  .debug_loc:00000000000000ca .LLST45
C:\Users\stapi\AppData\Local\Temp\ccc7K78d.s:15064  .debug_loc:00000000000000f3 .LLST46
C:\Users\stapi\AppData\Local\Temp\ccc7K78d.s:15076  .debug_loc:0000000000000112 .LLST47
C:\Users\stapi\AppData\Local\Temp\ccc7K78d.s:15091  .debug_loc:000000000000013b .LLST48
C:\Users\stapi\AppData\Local\Temp\ccc7K78d.s:15103  .debug_loc:000000000000015a .LLST49
C:\Users\stapi\AppData\Local\Temp\ccc7K78d.s:15126  .debug_loc:0000000000000192 .LLST51
C:\Users\stapi\AppData\Local\Temp\ccc7K78d.s:15147  .debug_loc:00000000000001c8 .LLST52
C:\Users\stapi\AppData\Local\Temp\ccc7K78d.s:1236   .text.wpas_supp_op_classes:000000000000027e .LVL124
C:\Users\stapi\AppData\Local\Temp\ccc7K78d.s:955    .text.wpas_supp_op_classes:000000000000009a .LVL89
C:\Users\stapi\AppData\Local\Temp\ccc7K78d.s:973    .text.wpas_supp_op_classes:00000000000000b8 .LVL91
C:\Users\stapi\AppData\Local\Temp\ccc7K78d.s:928    .text.wpas_supp_op_classes:000000000000006e .LVL85
C:\Users\stapi\AppData\Local\Temp\ccc7K78d.s:934    .text.wpas_supp_op_classes:000000000000007e .LVL86
C:\Users\stapi\AppData\Local\Temp\ccc7K78d.s:1006   .text.wpas_supp_op_classes:00000000000000e2 .LVL95
C:\Users\stapi\AppData\Local\Temp\ccc7K78d.s:1015   .text.wpas_supp_op_classes:00000000000000f8 .LVL96
C:\Users\stapi\AppData\Local\Temp\ccc7K78d.s:1024   .text.wpas_supp_op_classes:000000000000010e .LVL97
C:\Users\stapi\AppData\Local\Temp\ccc7K78d.s:1056   .text.wpas_supp_op_classes:0000000000000136 .LVL102
C:\Users\stapi\AppData\Local\Temp\ccc7K78d.s:1067   .text.wpas_supp_op_classes:000000000000014e .LVL103
C:\Users\stapi\AppData\Local\Temp\ccc7K78d.s:1079   .text.wpas_supp_op_classes:0000000000000166 .LVL105
C:\Users\stapi\AppData\Local\Temp\ccc7K78d.s:1095   .text.wpas_supp_op_classes:000000000000017e .LVL107
C:\Users\stapi\AppData\Local\Temp\ccc7K78d.s:1104   .text.wpas_supp_op_classes:0000000000000194 .LVL108
C:\Users\stapi\AppData\Local\Temp\ccc7K78d.s:1119   .text.wpas_supp_op_classes:00000000000001ac .LVL110
C:\Users\stapi\AppData\Local\Temp\ccc7K78d.s:1128   .text.wpas_supp_op_classes:00000000000001c2 .LVL111
C:\Users\stapi\AppData\Local\Temp\ccc7K78d.s:1143   .text.wpas_supp_op_classes:00000000000001da .LVL113
C:\Users\stapi\AppData\Local\Temp\ccc7K78d.s:1152   .text.wpas_supp_op_classes:00000000000001f0 .LVL114
C:\Users\stapi\AppData\Local\Temp\ccc7K78d.s:1171   .text.wpas_supp_op_classes:000000000000020e .LVL116
C:\Users\stapi\AppData\Local\Temp\ccc7K78d.s:1180   .text.wpas_supp_op_classes:0000000000000224 .LVL117
C:\Users\stapi\AppData\Local\Temp\ccc7K78d.s:1189   .text.wpas_supp_op_classes:000000000000023a .LVL118
C:\Users\stapi\AppData\Local\Temp\ccc7K78d.s:1198   .text.wpas_supp_op_classes:0000000000000250 .LVL119
C:\Users\stapi\AppData\Local\Temp\ccc7K78d.s:1284   .text.wpas_supp_op_classes:00000000000002be .LVL129
C:\Users\stapi\AppData\Local\Temp\ccc7K78d.s:853    .text.wpas_supp_op_classes:000000000000002e .LVL80
C:\Users\stapi\AppData\Local\Temp\ccc7K78d.s:17192  .debug_str:000000000000282f .LASF1136
C:\Users\stapi\AppData\Local\Temp\ccc7K78d.s:15904  .debug_str:0000000000000328 .LASF1128
C:\Users\stapi\AppData\Local\Temp\ccc7K78d.s:16596  .debug_str:00000000000015cf .LASF1129
C:\Users\stapi\AppData\Local\Temp\ccc7K78d.s:16808  .debug_str:0000000000001c5a .LASF1130
C:\Users\stapi\AppData\Local\Temp\ccc7K78d.s:16664  .debug_str:00000000000017df .LASF1131
C:\Users\stapi\AppData\Local\Temp\ccc7K78d.s:16562  .debug_str:00000000000014e2 .LASF1132
C:\Users\stapi\AppData\Local\Temp\ccc7K78d.s:16362  .debug_str:0000000000000f8c .LASF1134
C:\Users\stapi\AppData\Local\Temp\ccc7K78d.s:393    .text.verify_channel:0000000000000000 .LFB146
C:\Users\stapi\AppData\Local\Temp\ccc7K78d.s:796    .text.verify_channel:00000000000001cc .LFE146
C:\Users\stapi\AppData\Local\Temp\ccc7K78d.s:15178  .debug_loc:0000000000000216 .LLST19
C:\Users\stapi\AppData\Local\Temp\ccc7K78d.s:15189  .debug_loc:0000000000000234 .LLST20
C:\Users\stapi\AppData\Local\Temp\ccc7K78d.s:15203  .debug_loc:0000000000000255 .LLST21
C:\Users\stapi\AppData\Local\Temp\ccc7K78d.s:15217  .debug_loc:0000000000000276 .LLST22
C:\Users\stapi\AppData\Local\Temp\ccc7K78d.s:15231  .debug_loc:0000000000000297 .LLST23
C:\Users\stapi\AppData\Local\Temp\ccc7K78d.s:16150  .debug_str:0000000000000a10 .LASF1135
C:\Users\stapi\AppData\Local\Temp\ccc7K78d.s:15258  .debug_loc:00000000000002e1 .LLST24
C:\Users\stapi\AppData\Local\Temp\ccc7K78d.s:578    .text.verify_channel:00000000000000cc .LBB23
C:\Users\stapi\AppData\Local\Temp\ccc7K78d.s:789    .text.verify_channel:00000000000001c4 .LBE23
C:\Users\stapi\AppData\Local\Temp\ccc7K78d.s:15293  .debug_loc:0000000000000341 .LLST25
C:\Users\stapi\AppData\Local\Temp\ccc7K78d.s:15304  .debug_loc:000000000000035f .LLST26
C:\Users\stapi\AppData\Local\Temp\ccc7K78d.s:15311  .debug_loc:0000000000000372 .LLST27
C:\Users\stapi\AppData\Local\Temp\ccc7K78d.s:15318  .debug_loc:0000000000000385 .LLST28
C:\Users\stapi\AppData\Local\Temp\ccc7K78d.s:15335  .debug_loc:00000000000003b0 .LLST29
C:\Users\stapi\AppData\Local\Temp\ccc7K78d.s:15347  .debug_loc:00000000000003cf .LLST30
C:\Users\stapi\AppData\Local\Temp\ccc7K78d.s:15364  .debug_loc:00000000000003fa .LLST31
C:\Users\stapi\AppData\Local\Temp\ccc7K78d.s:15375  .debug_loc:0000000000000418 .LLST32
C:\Users\stapi\AppData\Local\Temp\ccc7K78d.s:620    .text.verify_channel:0000000000000102 .LBB25
C:\Users\stapi\AppData\Local\Temp\ccc7K78d.s:15386  .debug_loc:0000000000000436 .LLST33
C:\Users\stapi\AppData\Local\Temp\ccc7K78d.s:15393  .debug_loc:0000000000000449 .LLST34
C:\Users\stapi\AppData\Local\Temp\ccc7K78d.s:15400  .debug_loc:000000000000045c .LLST35
C:\Users\stapi\AppData\Local\Temp\ccc7K78d.s:15407  .debug_loc:000000000000046f .LLST36
C:\Users\stapi\AppData\Local\Temp\ccc7K78d.s:15414  .debug_loc:0000000000000482 .LLST37
C:\Users\stapi\AppData\Local\Temp\ccc7K78d.s:691    .text.verify_channel:0000000000000148 .LBB29
C:\Users\stapi\AppData\Local\Temp\ccc7K78d.s:766    .text.verify_channel:00000000000001b0 .LBE29
C:\Users\stapi\AppData\Local\Temp\ccc7K78d.s:15421  .debug_loc:0000000000000495 .LLST38
C:\Users\stapi\AppData\Local\Temp\ccc7K78d.s:717    .text.verify_channel:0000000000000168 .LVL69
C:\Users\stapi\AppData\Local\Temp\ccc7K78d.s:605    .text.verify_channel:00000000000000f2 .LVL55
C:\Users\stapi\AppData\Local\Temp\ccc7K78d.s:610    .text.verify_channel:00000000000000fc .LVL56
C:\Users\stapi\AppData\Local\Temp\ccc7K78d.s:431    .text.verify_channel:000000000000001e .LVL40
C:\Users\stapi\AppData\Local\Temp\ccc7K78d.s:508    .text.verify_channel:000000000000006c .LVL46
C:\Users\stapi\AppData\Local\Temp\ccc7K78d.s:518    .text.verify_channel:000000000000007e .LVL47
C:\Users\stapi\AppData\Local\Temp\ccc7K78d.s:531    .text.verify_channel:0000000000000098 .LVL48
C:\Users\stapi\AppData\Local\Temp\ccc7K78d.s:563    .text.verify_channel:00000000000000c0 .LVL51
C:\Users\stapi\AppData\Local\Temp\ccc7K78d.s:17012  .debug_str:00000000000021aa .LASF1137
C:\Users\stapi\AppData\Local\Temp\ccc7K78d.s:16410  .debug_str:00000000000010e7 .LASF1138
C:\Users\stapi\AppData\Local\Temp\ccc7K78d.s:16208  .debug_str:0000000000000b85 .LASF1139
C:\Users\stapi\AppData\Local\Temp\ccc7K78d.s:17458  .debug_str:0000000000002f50 .LASF1140
C:\Users\stapi\AppData\Local\Temp\ccc7K78d.s:17390  .debug_str:0000000000002d9b .LASF1141
C:\Users\stapi\AppData\Local\Temp\ccc7K78d.s:17602  .debug_str:0000000000003365 .LASF1142
C:\Users\stapi\AppData\Local\Temp\ccc7K78d.s:16958  .debug_str:000000000000203e .LASF1143
C:\Users\stapi\AppData\Local\Temp\ccc7K78d.s:17798  .debug_str:000000000000391a .LASF1144
C:\Users\stapi\AppData\Local\Temp\ccc7K78d.s:17648  .debug_str:00000000000034d2 .LASF1145
C:\Users\stapi\AppData\Local\Temp\ccc7K78d.s:16398  .debug_str:0000000000001089 .LASF1147
C:\Users\stapi\AppData\Local\Temp\ccc7K78d.s:139    .text.verify_80mhz:0000000000000000 .LFB143
C:\Users\stapi\AppData\Local\Temp\ccc7K78d.s:382    .text.verify_80mhz:00000000000000f4 .LFE143
C:\Users\stapi\AppData\Local\Temp\ccc7K78d.s:15428  .debug_loc:00000000000004a8 .LLST5
C:\Users\stapi\AppData\Local\Temp\ccc7K78d.s:15439  .debug_loc:00000000000004c6 .LLST6
C:\Users\stapi\AppData\Local\Temp\ccc7K78d.s:15453  .debug_loc:00000000000004e7 .LLST7
C:\Users\stapi\AppData\Local\Temp\ccc7K78d.s:15467  .debug_loc:0000000000000508 .LLST8
C:\Users\stapi\AppData\Local\Temp\ccc7K78d.s:15484  .debug_loc:0000000000000533 .LLST9
C:\Users\stapi\AppData\Local\Temp\ccc7K78d.s:15501  .debug_loc:000000000000055e .LLST10
C:\Users\stapi\AppData\Local\Temp\ccc7K78d.s:15522  .debug_loc:0000000000000594 .LLST11
C:\Users\stapi\AppData\Local\Temp\ccc7K78d.s:15533  .debug_loc:00000000000005b2 .LLST12
C:\Users\stapi\AppData\Local\Temp\ccc7K78d.s:15544  .debug_loc:00000000000005d0 .LLST18
C:\Users\stapi\AppData\Local\Temp\ccc7K78d.s:305    .text.verify_80mhz:00000000000000ae .LVL30
C:\Users\stapi\AppData\Local\Temp\ccc7K78d.s:206    .text.verify_80mhz:0000000000000048 .LBB11
C:\Users\stapi\AppData\Local\Temp\ccc7K78d.s:15551  .debug_loc:00000000000005e3 .LLST13
C:\Users\stapi\AppData\Local\Temp\ccc7K78d.s:15558  .debug_loc:00000000000005f6 .LLST14
C:\Users\stapi\AppData\Local\Temp\ccc7K78d.s:15565  .debug_loc:0000000000000609 .LLST15
C:\Users\stapi\AppData\Local\Temp\ccc7K78d.s:15572  .debug_loc:000000000000061c .LLST16
C:\Users\stapi\AppData\Local\Temp\ccc7K78d.s:15579  .debug_loc:000000000000062f .LLST17
C:\Users\stapi\AppData\Local\Temp\ccc7K78d.s:183    .text.verify_80mhz:0000000000000024 .LVL17
C:\Users\stapi\AppData\Local\Temp\ccc7K78d.s:191    .text.verify_80mhz:0000000000000038 .LVL18
C:\Users\stapi\AppData\Local\Temp\ccc7K78d.s:196    .text.verify_80mhz:0000000000000042 .LVL19
C:\Users\stapi\AppData\Local\Temp\ccc7K78d.s:16268  .debug_str:0000000000000d0a .LASF1146
C:\Users\stapi\AppData\Local\Temp\ccc7K78d.s:16610  .debug_str:000000000000162f .LASF1148
C:\Users\stapi\AppData\Local\Temp\ccc7K78d.s:13     .text.allow_channel:0000000000000000 .LFB141
C:\Users\stapi\AppData\Local\Temp\ccc7K78d.s:126    .text.allow_channel:0000000000000072 .LFE141
C:\Users\stapi\AppData\Local\Temp\ccc7K78d.s:15586  .debug_loc:0000000000000642 .LLST0
C:\Users\stapi\AppData\Local\Temp\ccc7K78d.s:15615  .debug_loc:0000000000000687 .LLST1
C:\Users\stapi\AppData\Local\Temp\ccc7K78d.s:15629  .debug_loc:00000000000006a8 .LLST2
C:\Users\stapi\AppData\Local\Temp\ccc7K78d.s:15654  .debug_loc:00000000000006e2 .LLST3
C:\Users\stapi\AppData\Local\Temp\ccc7K78d.s:17120  .debug_str:00000000000025fa .LASF1149
C:\Users\stapi\AppData\Local\Temp\ccc7K78d.s:16780  .debug_str:0000000000001b95 .LASF1150
C:\Users\stapi\AppData\Local\Temp\ccc7K78d.s:15670  .debug_loc:000000000000070c .LLST4
C:\Users\stapi\AppData\Local\Temp\ccc7K78d.s:16586  .debug_str:0000000000001590 .LASF1159
C:\Users\stapi\AppData\Local\Temp\ccc7K78d.s:15860  .debug_str:00000000000001fa .LASF1160
C:\Users\stapi\AppData\Local\Temp\ccc7K78d.s:18080  .debug_str:0000000000004261 .LASF1151
C:\Users\stapi\AppData\Local\Temp\ccc7K78d.s:16626  .debug_str:00000000000016b9 .LASF1152
C:\Users\stapi\AppData\Local\Temp\ccc7K78d.s:16472  .debug_str:000000000000129a .LASF1153
C:\Users\stapi\AppData\Local\Temp\ccc7K78d.s:16952  .debug_str:000000000000200a .LASF1154
C:\Users\stapi\AppData\Local\Temp\ccc7K78d.s:806    .text.wpas_supp_op_classes:0000000000000000 .LVL75
C:\Users\stapi\AppData\Local\Temp\ccc7K78d.s:837    .text.wpas_supp_op_classes:000000000000001a .LVL77
C:\Users\stapi\AppData\Local\Temp\ccc7K78d.s:824    .text.wpas_supp_op_classes:0000000000000008 .LVL76
C:\Users\stapi\AppData\Local\Temp\ccc7K78d.s:844    .text.wpas_supp_op_classes:0000000000000020 .LVL78
C:\Users\stapi\AppData\Local\Temp\ccc7K78d.s:851    .text.wpas_supp_op_classes:0000000000000026 .LVL79
C:\Users\stapi\AppData\Local\Temp\ccc7K78d.s:874    .text.wpas_supp_op_classes:0000000000000042 .LVL82
C:\Users\stapi\AppData\Local\Temp\ccc7K78d.s:884    .text.wpas_supp_op_classes:000000000000004a .LVL83
C:\Users\stapi\AppData\Local\Temp\ccc7K78d.s:906    .text.wpas_supp_op_classes:0000000000000056 .LVL84
C:\Users\stapi\AppData\Local\Temp\ccc7K78d.s:1028   .text.wpas_supp_op_classes:0000000000000110 .LVL98
C:\Users\stapi\AppData\Local\Temp\ccc7K78d.s:1036   .text.wpas_supp_op_classes:0000000000000116 .LVL99
C:\Users\stapi\AppData\Local\Temp\ccc7K78d.s:855    .text.wpas_supp_op_classes:0000000000000030 .LVL81
C:\Users\stapi\AppData\Local\Temp\ccc7K78d.s:983    .text.wpas_supp_op_classes:00000000000000c0 .LVL93
C:\Users\stapi\AppData\Local\Temp\ccc7K78d.s:991    .text.wpas_supp_op_classes:00000000000000c4 .LVL94
C:\Users\stapi\AppData\Local\Temp\ccc7K78d.s:1040   .text.wpas_supp_op_classes:000000000000011c .LVL100
C:\Users\stapi\AppData\Local\Temp\ccc7K78d.s:962    .text.wpas_supp_op_classes:000000000000009e .LVL90
C:\Users\stapi\AppData\Local\Temp\ccc7K78d.s:936    .text.wpas_supp_op_classes:0000000000000080 .LVL87
C:\Users\stapi\AppData\Local\Temp\ccc7K78d.s:1048   .text.wpas_supp_op_classes:0000000000000120 .LVL101
C:\Users\stapi\AppData\Local\Temp\ccc7K78d.s:1071   .text.wpas_supp_op_classes:0000000000000152 .LVL104
C:\Users\stapi\AppData\Local\Temp\ccc7K78d.s:1202   .text.wpas_supp_op_classes:0000000000000254 .LVL120
C:\Users\stapi\AppData\Local\Temp\ccc7K78d.s:941    .text.wpas_supp_op_classes:0000000000000082 .LVL88
C:\Users\stapi\AppData\Local\Temp\ccc7K78d.s:1217   .text.wpas_supp_op_classes:0000000000000262 .LVL121
C:\Users\stapi\AppData\Local\Temp\ccc7K78d.s:1255   .text.wpas_supp_op_classes:0000000000000296 .LVL125
C:\Users\stapi\AppData\Local\Temp\ccc7K78d.s:1269   .text.wpas_supp_op_classes:00000000000002a6 .LVL127
C:\Users\stapi\AppData\Local\Temp\ccc7K78d.s:1274   .text.wpas_supp_op_classes:00000000000002aa .LVL128
C:\Users\stapi\AppData\Local\Temp\ccc7K78d.s:1223   .text.wpas_supp_op_classes:0000000000000268 .LVL122
C:\Users\stapi\AppData\Local\Temp\ccc7K78d.s:1230   .text.wpas_supp_op_classes:0000000000000274 .LVL123
C:\Users\stapi\AppData\Local\Temp\ccc7K78d.s:1261   .text.wpas_supp_op_classes:000000000000029c .LVL126
C:\Users\stapi\AppData\Local\Temp\ccc7K78d.s:396    .text.verify_channel:0000000000000000 .LVL38
C:\Users\stapi\AppData\Local\Temp\ccc7K78d.s:420    .text.verify_channel:000000000000000e .LVL39
C:\Users\stapi\AppData\Local\Temp\ccc7K78d.s:436    .text.verify_channel:0000000000000022 .LVL41
C:\Users\stapi\AppData\Local\Temp\ccc7K78d.s:462    .text.verify_channel:0000000000000044 .LVL43
C:\Users\stapi\AppData\Local\Temp\ccc7K78d.s:485    .text.verify_channel:0000000000000050 .LVL45
C:\Users\stapi\AppData\Local\Temp\ccc7K78d.s:544    .text.verify_channel:00000000000000a4 .LVL49
C:\Users\stapi\AppData\Local\Temp\ccc7K78d.s:550    .text.verify_channel:00000000000000ac .LVL50
C:\Users\stapi\AppData\Local\Temp\ccc7K78d.s:565    .text.verify_channel:00000000000000c2 .LVL52
C:\Users\stapi\AppData\Local\Temp\ccc7K78d.s:570    .text.verify_channel:00000000000000c6 .LVL53
C:\Users\stapi\AppData\Local\Temp\ccc7K78d.s:631    .text.verify_channel:000000000000010a .LVL58
C:\Users\stapi\AppData\Local\Temp\ccc7K78d.s:667    .text.verify_channel:0000000000000132 .LVL62
C:\Users\stapi\AppData\Local\Temp\ccc7K78d.s:674    .text.verify_channel:0000000000000138 .LVL63
C:\Users\stapi\AppData\Local\Temp\ccc7K78d.s:785    .text.verify_channel:00000000000001c2 .LVL74
C:\Users\stapi\AppData\Local\Temp\ccc7K78d.s:458    .text.verify_channel:0000000000000042 .LVL42
C:\Users\stapi\AppData\Local\Temp\ccc7K78d.s:466    .text.verify_channel:0000000000000046 .LVL44
C:\Users\stapi\AppData\Local\Temp\ccc7K78d.s:577    .text.verify_channel:00000000000000cc .LVL54
C:\Users\stapi\AppData\Local\Temp\ccc7K78d.s:660    .text.verify_channel:000000000000012e .LVL61
C:\Users\stapi\AppData\Local\Temp\ccc7K78d.s:690    .text.verify_channel:0000000000000148 .LVL67
C:\Users\stapi\AppData\Local\Temp\ccc7K78d.s:678    .text.verify_channel:000000000000013c .LVL64
C:\Users\stapi\AppData\Local\Temp\ccc7K78d.s:683    .text.verify_channel:0000000000000140 .LVL65
C:\Users\stapi\AppData\Local\Temp\ccc7K78d.s:685    .text.verify_channel:0000000000000144 .LVL66
C:\Users\stapi\AppData\Local\Temp\ccc7K78d.s:706    .text.verify_channel:0000000000000158 .LVL68
C:\Users\stapi\AppData\Local\Temp\ccc7K78d.s:779    .text.verify_channel:00000000000001be .LVL73
C:\Users\stapi\AppData\Local\Temp\ccc7K78d.s:618    .text.verify_channel:0000000000000102 .LVL57
C:\Users\stapi\AppData\Local\Temp\ccc7K78d.s:639    .text.verify_channel:0000000000000110 .LVL59
C:\Users\stapi\AppData\Local\Temp\ccc7K78d.s:770    .text.verify_channel:00000000000001b2 .LVL71
C:\Users\stapi\AppData\Local\Temp\ccc7K78d.s:142    .text.verify_80mhz:0000000000000000 .LVL12
C:\Users\stapi\AppData\Local\Temp\ccc7K78d.s:179    .text.verify_80mhz:000000000000001a .LVL15
C:\Users\stapi\AppData\Local\Temp\ccc7K78d.s:172    .text.verify_80mhz:0000000000000010 .LVL14
C:\Users\stapi\AppData\Local\Temp\ccc7K78d.s:181    .text.verify_80mhz:000000000000001c .LVL16
C:\Users\stapi\AppData\Local\Temp\ccc7K78d.s:263    .text.verify_80mhz:0000000000000082 .LVL26
C:\Users\stapi\AppData\Local\Temp\ccc7K78d.s:268    .text.verify_80mhz:0000000000000086 .LVL27
C:\Users\stapi\AppData\Local\Temp\ccc7K78d.s:273    .text.verify_80mhz:000000000000008c .LVL28
C:\Users\stapi\AppData\Local\Temp\ccc7K78d.s:293    .text.verify_80mhz:000000000000009e .LVL29
C:\Users\stapi\AppData\Local\Temp\ccc7K78d.s:348    .text.verify_80mhz:00000000000000e2 .LVL34
C:\Users\stapi\AppData\Local\Temp\ccc7K78d.s:352    .text.verify_80mhz:00000000000000e4 .LVL35
C:\Users\stapi\AppData\Local\Temp\ccc7K78d.s:374    .text.verify_80mhz:00000000000000f0 .LVL36
C:\Users\stapi\AppData\Local\Temp\ccc7K78d.s:161    .text.verify_80mhz:0000000000000008 .LVL13
C:\Users\stapi\AppData\Local\Temp\ccc7K78d.s:245    .text.verify_80mhz:0000000000000074 .LVL23
C:\Users\stapi\AppData\Local\Temp\ccc7K78d.s:252    .text.verify_80mhz:0000000000000078 .LVL24
C:\Users\stapi\AppData\Local\Temp\ccc7K78d.s:379    .text.verify_80mhz:00000000000000f2 .LVL37
C:\Users\stapi\AppData\Local\Temp\ccc7K78d.s:204    .text.verify_80mhz:0000000000000048 .LVL20
C:\Users\stapi\AppData\Local\Temp\ccc7K78d.s:259    .text.verify_80mhz:000000000000007e .LVL25
C:\Users\stapi\AppData\Local\Temp\ccc7K78d.s:340    .text.verify_80mhz:00000000000000d8 .LVL32
C:\Users\stapi\AppData\Local\Temp\ccc7K78d.s:224    .text.verify_80mhz:0000000000000056 .LVL21
C:\Users\stapi\AppData\Local\Temp\ccc7K78d.s:17     .text.allow_channel:0000000000000000 .LVL0
C:\Users\stapi\AppData\Local\Temp\ccc7K78d.s:44     .text.allow_channel:000000000000001e .LVL3
C:\Users\stapi\AppData\Local\Temp\ccc7K78d.s:80     .text.allow_channel:000000000000004a .LVL6
C:\Users\stapi\AppData\Local\Temp\ccc7K78d.s:95     .text.allow_channel:000000000000005e .LVL9
C:\Users\stapi\AppData\Local\Temp\ccc7K78d.s:102    .text.allow_channel:0000000000000062 .LVL11
C:\Users\stapi\AppData\Local\Temp\ccc7K78d.s:22     .text.allow_channel:0000000000000004 .LVL1
C:\Users\stapi\AppData\Local\Temp\ccc7K78d.s:82     .text.allow_channel:000000000000004e .LVL7
C:\Users\stapi\AppData\Local\Temp\ccc7K78d.s:35     .text.allow_channel:0000000000000014 .LVL2
C:\Users\stapi\AppData\Local\Temp\ccc7K78d.s:89     .text.allow_channel:0000000000000056 .LVL8
C:\Users\stapi\AppData\Local\Temp\ccc7K78d.s:63     .text.allow_channel:0000000000000032 .LVL4
C:\Users\stapi\AppData\Local\Temp\ccc7K78d.s:75     .text.allow_channel:0000000000000048 .LVL5
C:\Users\stapi\AppData\Local\Temp\ccc7K78d.s:1324   .debug_info:0000000000000000 .Ldebug_info0
C:\Users\stapi\AppData\Local\Temp\ccc7K78d.s:27     .text.allow_channel:000000000000000c .LBB5
C:\Users\stapi\AppData\Local\Temp\ccc7K78d.s:30     .text.allow_channel:000000000000000e .LBE5
C:\Users\stapi\AppData\Local\Temp\ccc7K78d.s:39     .text.allow_channel:0000000000000016 .LBB6
C:\Users\stapi\AppData\Local\Temp\ccc7K78d.s:46     .text.allow_channel:000000000000001e .LBE6
C:\Users\stapi\AppData\Local\Temp\ccc7K78d.s:57     .text.allow_channel:000000000000002a .LBB7
C:\Users\stapi\AppData\Local\Temp\ccc7K78d.s:77     .text.allow_channel:0000000000000048 .LBE7
C:\Users\stapi\AppData\Local\Temp\ccc7K78d.s:214    .text.verify_80mhz:000000000000004e .LBE11
C:\Users\stapi\AppData\Local\Temp\ccc7K78d.s:217    .text.verify_80mhz:0000000000000050 .LBB14
C:\Users\stapi\AppData\Local\Temp\ccc7K78d.s:248    .text.verify_80mhz:0000000000000074 .LBE14
C:\Users\stapi\AppData\Local\Temp\ccc7K78d.s:269    .text.verify_80mhz:0000000000000086 .LBB15
C:\Users\stapi\AppData\Local\Temp\ccc7K78d.s:274    .text.verify_80mhz:000000000000008c .LBE15
C:\Users\stapi\AppData\Local\Temp\ccc7K78d.s:279    .text.verify_80mhz:0000000000000090 .LBB16
C:\Users\stapi\AppData\Local\Temp\ccc7K78d.s:290    .text.verify_80mhz:000000000000009c .LBE16
C:\Users\stapi\AppData\Local\Temp\ccc7K78d.s:295    .text.verify_80mhz:000000000000009e .LBB17
C:\Users\stapi\AppData\Local\Temp\ccc7K78d.s:336    .text.verify_80mhz:00000000000000d6 .LBE17
C:\Users\stapi\AppData\Local\Temp\ccc7K78d.s:628    .text.verify_channel:0000000000000108 .LBE25
C:\Users\stapi\AppData\Local\Temp\ccc7K78d.s:632    .text.verify_channel:000000000000010a .LBB28
C:\Users\stapi\AppData\Local\Temp\ccc7K78d.s:663    .text.verify_channel:000000000000012e .LBE28
C:\Users\stapi\AppData\Local\Temp\ccc7K78d.s:878    .text.wpas_supp_op_classes:0000000000000042 .LBE35
C:\Users\stapi\AppData\Local\Temp\ccc7K78d.s:910    .text.wpas_supp_op_classes:0000000000000056 .LBB45
C:\Users\stapi\AppData\Local\Temp\ccc7K78d.s:987    .text.wpas_supp_op_classes:00000000000000c0 .LBE45
C:\Users\stapi\AppData\Local\Temp\ccc7K78d.s:993    .text.wpas_supp_op_classes:00000000000000c4 .LBB46
C:\Users\stapi\AppData\Local\Temp\ccc7K78d.s:1030   .text.wpas_supp_op_classes:0000000000000110 .LBE46
C:\Users\stapi\AppData\Local\Temp\ccc7K78d.s:1042   .text.wpas_supp_op_classes:000000000000011c .LBB47
C:\Users\stapi\AppData\Local\Temp\ccc7K78d.s:1301   .text.wpas_supp_op_classes:00000000000002d2 .LBE47
C:\Users\stapi\AppData\Local\Temp\ccc7K78d.s:867    .text.wpas_supp_op_classes:000000000000003c .LBB37
C:\Users\stapi\AppData\Local\Temp\ccc7K78d.s:870    .text.wpas_supp_op_classes:000000000000003e .LBE37
C:\Users\stapi\AppData\Local\Temp\ccc7K78d.s:1205   .text.wpas_supp_op_classes:0000000000000254 .LBB40
C:\Users\stapi\AppData\Local\Temp\ccc7K78d.s:1208   .text.wpas_supp_op_classes:0000000000000258 .LBE40
C:\Users\stapi\AppData\Local\Temp\ccc7K78d.s:1211   .text.wpas_supp_op_classes:000000000000025c .LBB41
C:\Users\stapi\AppData\Local\Temp\ccc7K78d.s:1276   .text.wpas_supp_op_classes:00000000000002aa .LBE41
C:\Users\stapi\AppData\Local\Temp\ccc7K78d.s:871    .text.wpas_supp_op_classes:000000000000003e .LBB38
C:\Users\stapi\AppData\Local\Temp\ccc7K78d.s:876    .text.wpas_supp_op_classes:0000000000000042 .LBE38
C:\Users\stapi\AppData\Local\Temp\ccc7K78d.s:948    .text.wpas_supp_op_classes:000000000000008a .LBB39
C:\Users\stapi\AppData\Local\Temp\ccc7K78d.s:985    .text.wpas_supp_op_classes:00000000000000c0 .LBE39

UNDEFINED SYMBOLS
__riscv_save_12
memcpy
is_6ghz_op_class
__riscv_restore_12
get_6ghz_sec_channel
global_op_class
os_zalloc
get_mode
