   1              		.file	"os_gdwifi.c"
   2              		.option nopic
   3              		.attribute arch, "rv32i2p0_m2p0_a2p0_f2p0_c2p0_b_p0p94"
   4              		.attribute unaligned_access, 0
   5              		.attribute stack_align, 16
   6              		.text
   7              	.Ltext0:
   8              		.cfi_sections	.debug_frame
   9              		.section	.text.os_sleep,"ax",@progbits
  10              		.align	1
  11              		.globl	os_sleep
  13              	os_sleep:
  14              	.LFB71:
  15              		.file 1 "C:/Users/stapi/OneDrive/Desktop/GD32VW553/V1_MQTT_OK/GD32VW55X_Wifi_BLE_SDK/GD32VW55x_REL
   1:C:/Users/stapi/OneDrive/Desktop/GD32VW553/V1_MQTT_OK/GD32VW55X_Wifi_BLE_SDK/GD32VW55x_RELEASE_V1.0.2/MSDK/wpa_supplicant/src/utils\os_gdwifi.c **** /*
   2:C:/Users/stapi/OneDrive/Desktop/GD32VW553/V1_MQTT_OK/GD32VW55X_Wifi_BLE_SDK/GD32VW55x_RELEASE_V1.0.2/MSDK/wpa_supplicant/src/utils\os_gdwifi.c ****  * OS specific functions for GDWIFI system
   3:C:/Users/stapi/OneDrive/Desktop/GD32VW553/V1_MQTT_OK/GD32VW55X_Wifi_BLE_SDK/GD32VW55x_RELEASE_V1.0.2/MSDK/wpa_supplicant/src/utils\os_gdwifi.c ****  * Copyright (C) GigaDevice 2023-2023
   4:C:/Users/stapi/OneDrive/Desktop/GD32VW553/V1_MQTT_OK/GD32VW55X_Wifi_BLE_SDK/GD32VW55x_RELEASE_V1.0.2/MSDK/wpa_supplicant/src/utils\os_gdwifi.c ****  */
   5:C:/Users/stapi/OneDrive/Desktop/GD32VW553/V1_MQTT_OK/GD32VW55X_Wifi_BLE_SDK/GD32VW55x_RELEASE_V1.0.2/MSDK/wpa_supplicant/src/utils\os_gdwifi.c **** 
   6:C:/Users/stapi/OneDrive/Desktop/GD32VW553/V1_MQTT_OK/GD32VW55X_Wifi_BLE_SDK/GD32VW55x_RELEASE_V1.0.2/MSDK/wpa_supplicant/src/utils\os_gdwifi.c **** #include "includes.h"
   7:C:/Users/stapi/OneDrive/Desktop/GD32VW553/V1_MQTT_OK/GD32VW55X_Wifi_BLE_SDK/GD32VW55x_RELEASE_V1.0.2/MSDK/wpa_supplicant/src/utils\os_gdwifi.c **** 
   8:C:/Users/stapi/OneDrive/Desktop/GD32VW553/V1_MQTT_OK/GD32VW55X_Wifi_BLE_SDK/GD32VW55x_RELEASE_V1.0.2/MSDK/wpa_supplicant/src/utils\os_gdwifi.c **** #include "os.h"
   9:C:/Users/stapi/OneDrive/Desktop/GD32VW553/V1_MQTT_OK/GD32VW55X_Wifi_BLE_SDK/GD32VW55x_RELEASE_V1.0.2/MSDK/wpa_supplicant/src/utils\os_gdwifi.c **** #include "trace.h"
  10:C:/Users/stapi/OneDrive/Desktop/GD32VW553/V1_MQTT_OK/GD32VW55X_Wifi_BLE_SDK/GD32VW55x_RELEASE_V1.0.2/MSDK/wpa_supplicant/src/utils\os_gdwifi.c **** #include "systime.h"
  11:C:/Users/stapi/OneDrive/Desktop/GD32VW553/V1_MQTT_OK/GD32VW55X_Wifi_BLE_SDK/GD32VW55x_RELEASE_V1.0.2/MSDK/wpa_supplicant/src/utils\os_gdwifi.c **** #include <stdarg.h>
  12:C:/Users/stapi/OneDrive/Desktop/GD32VW553/V1_MQTT_OK/GD32VW55X_Wifi_BLE_SDK/GD32VW55x_RELEASE_V1.0.2/MSDK/wpa_supplicant/src/utils\os_gdwifi.c **** #include "trng.h"
  13:C:/Users/stapi/OneDrive/Desktop/GD32VW553/V1_MQTT_OK/GD32VW55X_Wifi_BLE_SDK/GD32VW55x_RELEASE_V1.0.2/MSDK/wpa_supplicant/src/utils\os_gdwifi.c **** #include "common.h"
  14:C:/Users/stapi/OneDrive/Desktop/GD32VW553/V1_MQTT_OK/GD32VW55X_Wifi_BLE_SDK/GD32VW55x_RELEASE_V1.0.2/MSDK/wpa_supplicant/src/utils\os_gdwifi.c **** 
  15:C:/Users/stapi/OneDrive/Desktop/GD32VW553/V1_MQTT_OK/GD32VW55X_Wifi_BLE_SDK/GD32VW55x_RELEASE_V1.0.2/MSDK/wpa_supplicant/src/utils\os_gdwifi.c **** void os_sleep(os_time_t sec, os_time_t usec)
  16:C:/Users/stapi/OneDrive/Desktop/GD32VW553/V1_MQTT_OK/GD32VW55X_Wifi_BLE_SDK/GD32VW55x_RELEASE_V1.0.2/MSDK/wpa_supplicant/src/utils\os_gdwifi.c **** {
  16              		.loc 1 16 1
  17              		.cfi_startproc
  18              	.LVL0:
  17:C:/Users/stapi/OneDrive/Desktop/GD32VW553/V1_MQTT_OK/GD32VW55X_Wifi_BLE_SDK/GD32VW55x_RELEASE_V1.0.2/MSDK/wpa_supplicant/src/utils\os_gdwifi.c **** 	uint32_t delay;
  19              		.loc 1 17 2
  18:C:/Users/stapi/OneDrive/Desktop/GD32VW553/V1_MQTT_OK/GD32VW55X_Wifi_BLE_SDK/GD32VW55x_RELEASE_V1.0.2/MSDK/wpa_supplicant/src/utils\os_gdwifi.c **** 	delay = (sec * 1000) + (usec / 1000);
  20              		.loc 1 18 2
  19:C:/Users/stapi/OneDrive/Desktop/GD32VW553/V1_MQTT_OK/GD32VW55X_Wifi_BLE_SDK/GD32VW55x_RELEASE_V1.0.2/MSDK/wpa_supplicant/src/utils\os_gdwifi.c **** 	sys_ms_sleep(delay);
  21              		.loc 1 19 2
  18:C:/Users/stapi/OneDrive/Desktop/GD32VW553/V1_MQTT_OK/GD32VW55X_Wifi_BLE_SDK/GD32VW55x_RELEASE_V1.0.2/MSDK/wpa_supplicant/src/utils\os_gdwifi.c **** 	delay = (sec * 1000) + (usec / 1000);
  22              		.loc 1 18 15 is_stmt 0
  23 0000 9307803E 		li	a5,1000
  18:C:/Users/stapi/OneDrive/Desktop/GD32VW553/V1_MQTT_OK/GD32VW55X_Wifi_BLE_SDK/GD32VW55x_RELEASE_V1.0.2/MSDK/wpa_supplicant/src/utils\os_gdwifi.c **** 	delay = (sec * 1000) + (usec / 1000);
  24              		.loc 1 18 31
  25 0004 B3C5F502 		div	a1,a1,a5
  26              	.LVL1:
  27              		.loc 1 19 2
  28 0008 FF15F5C4 		maddr32	a1, a0, a5
  29              	.LVL2:
  30 000c 2E85     		mv	a0,a1
  31              	.LVL3:
  32 000e 17030000 		tail	sys_ms_sleep
  32      67000300 
  33              	.LVL4:
  34              		.cfi_endproc
  35              	.LFE71:
  37              		.section	.text.os_get_time,"ax",@progbits
  38              		.align	1
  39              		.globl	os_get_time
  41              	os_get_time:
  42              	.LFB72:
  20:C:/Users/stapi/OneDrive/Desktop/GD32VW553/V1_MQTT_OK/GD32VW55X_Wifi_BLE_SDK/GD32VW55x_RELEASE_V1.0.2/MSDK/wpa_supplicant/src/utils\os_gdwifi.c **** }
  21:C:/Users/stapi/OneDrive/Desktop/GD32VW553/V1_MQTT_OK/GD32VW55X_Wifi_BLE_SDK/GD32VW55x_RELEASE_V1.0.2/MSDK/wpa_supplicant/src/utils\os_gdwifi.c **** 
  22:C:/Users/stapi/OneDrive/Desktop/GD32VW553/V1_MQTT_OK/GD32VW55X_Wifi_BLE_SDK/GD32VW55x_RELEASE_V1.0.2/MSDK/wpa_supplicant/src/utils\os_gdwifi.c **** 
  23:C:/Users/stapi/OneDrive/Desktop/GD32VW553/V1_MQTT_OK/GD32VW55X_Wifi_BLE_SDK/GD32VW55x_RELEASE_V1.0.2/MSDK/wpa_supplicant/src/utils\os_gdwifi.c **** int os_get_time(struct os_time *t)
  24:C:/Users/stapi/OneDrive/Desktop/GD32VW553/V1_MQTT_OK/GD32VW55X_Wifi_BLE_SDK/GD32VW55x_RELEASE_V1.0.2/MSDK/wpa_supplicant/src/utils\os_gdwifi.c **** {
  43              		.loc 1 24 1 is_stmt 1
  44              		.cfi_startproc
  45              	.LVL5:
  46 0000 17030000 		call	t0,__riscv_save_1
  46      E7020300 
  47              		.cfi_offset 8, -8
  48              		.cfi_offset 1, -4
  49              		.cfi_def_cfa_offset 16
  25:C:/Users/stapi/OneDrive/Desktop/GD32VW553/V1_MQTT_OK/GD32VW55X_Wifi_BLE_SDK/GD32VW55x_RELEASE_V1.0.2/MSDK/wpa_supplicant/src/utils\os_gdwifi.c **** 	uint32_t sec, usec;
  50              		.loc 1 25 2
  26:C:/Users/stapi/OneDrive/Desktop/GD32VW553/V1_MQTT_OK/GD32VW55X_Wifi_BLE_SDK/GD32VW55x_RELEASE_V1.0.2/MSDK/wpa_supplicant/src/utils\os_gdwifi.c **** 	int ret;
  51              		.loc 1 26 2
  27:C:/Users/stapi/OneDrive/Desktop/GD32VW553/V1_MQTT_OK/GD32VW55X_Wifi_BLE_SDK/GD32VW55x_RELEASE_V1.0.2/MSDK/wpa_supplicant/src/utils\os_gdwifi.c **** 
  28:C:/Users/stapi/OneDrive/Desktop/GD32VW553/V1_MQTT_OK/GD32VW55X_Wifi_BLE_SDK/GD32VW55x_RELEASE_V1.0.2/MSDK/wpa_supplicant/src/utils\os_gdwifi.c **** 	ret = get_time(SINCE_EPOCH, &sec, &usec);
  52              		.loc 1 28 2
  24:C:/Users/stapi/OneDrive/Desktop/GD32VW553/V1_MQTT_OK/GD32VW55X_Wifi_BLE_SDK/GD32VW55x_RELEASE_V1.0.2/MSDK/wpa_supplicant/src/utils\os_gdwifi.c **** 	uint32_t sec, usec;
  53              		.loc 1 24 1 is_stmt 0
  54 0008 4111     		addi	sp,sp,-16
  55              		.cfi_def_cfa_offset 32
  24:C:/Users/stapi/OneDrive/Desktop/GD32VW553/V1_MQTT_OK/GD32VW55X_Wifi_BLE_SDK/GD32VW55x_RELEASE_V1.0.2/MSDK/wpa_supplicant/src/utils\os_gdwifi.c **** 	uint32_t sec, usec;
  56              		.loc 1 24 1
  57 000a 2A84     		mv	s0,a0
  58              		.loc 1 28 8
  59 000c 7000     		addi	a2,sp,12
  60 000e 2C00     		addi	a1,sp,8
  61 0010 0545     		li	a0,1
  62              	.LVL6:
  63 0012 97000000 		call	get_time
  63      E7800000 
  64              	.LVL7:
  29:C:/Users/stapi/OneDrive/Desktop/GD32VW553/V1_MQTT_OK/GD32VW55X_Wifi_BLE_SDK/GD32VW55x_RELEASE_V1.0.2/MSDK/wpa_supplicant/src/utils\os_gdwifi.c **** 	t->sec = sec;
  65              		.loc 1 29 2 is_stmt 1
  66              		.loc 1 29 9 is_stmt 0
  67 001a A247     		lw	a5,8(sp)
  68 001c 1CC0     		sw	a5,0(s0)
  30:C:/Users/stapi/OneDrive/Desktop/GD32VW553/V1_MQTT_OK/GD32VW55X_Wifi_BLE_SDK/GD32VW55x_RELEASE_V1.0.2/MSDK/wpa_supplicant/src/utils\os_gdwifi.c **** 	t->usec = usec;
  69              		.loc 1 30 2 is_stmt 1
  70              		.loc 1 30 10 is_stmt 0
  71 001e B247     		lw	a5,12(sp)
  72 0020 5CC0     		sw	a5,4(s0)
  31:C:/Users/stapi/OneDrive/Desktop/GD32VW553/V1_MQTT_OK/GD32VW55X_Wifi_BLE_SDK/GD32VW55x_RELEASE_V1.0.2/MSDK/wpa_supplicant/src/utils\os_gdwifi.c **** 	return ret;
  73              		.loc 1 31 2 is_stmt 1
  32:C:/Users/stapi/OneDrive/Desktop/GD32VW553/V1_MQTT_OK/GD32VW55X_Wifi_BLE_SDK/GD32VW55x_RELEASE_V1.0.2/MSDK/wpa_supplicant/src/utils\os_gdwifi.c **** }
  74              		.loc 1 32 1 is_stmt 0
  75 0022 4101     		addi	sp,sp,16
  76              		.cfi_def_cfa_offset 0
  77 0024 17030000 		tail	__riscv_restore_1
  77      67000300 
  78              		.cfi_restore 8
  79              		.cfi_restore 1
  80              		.cfi_def_cfa_offset -16
  81              		.cfi_endproc
  82              	.LFE72:
  84              		.section	.text.os_get_reltime,"ax",@progbits
  85              		.align	1
  86              		.globl	os_get_reltime
  88              	os_get_reltime:
  89              	.LFB73:
  33:C:/Users/stapi/OneDrive/Desktop/GD32VW553/V1_MQTT_OK/GD32VW55X_Wifi_BLE_SDK/GD32VW55x_RELEASE_V1.0.2/MSDK/wpa_supplicant/src/utils\os_gdwifi.c **** 
  34:C:/Users/stapi/OneDrive/Desktop/GD32VW553/V1_MQTT_OK/GD32VW55X_Wifi_BLE_SDK/GD32VW55x_RELEASE_V1.0.2/MSDK/wpa_supplicant/src/utils\os_gdwifi.c **** 
  35:C:/Users/stapi/OneDrive/Desktop/GD32VW553/V1_MQTT_OK/GD32VW55X_Wifi_BLE_SDK/GD32VW55x_RELEASE_V1.0.2/MSDK/wpa_supplicant/src/utils\os_gdwifi.c **** int os_get_reltime(struct os_reltime *t)
  36:C:/Users/stapi/OneDrive/Desktop/GD32VW553/V1_MQTT_OK/GD32VW55X_Wifi_BLE_SDK/GD32VW55x_RELEASE_V1.0.2/MSDK/wpa_supplicant/src/utils\os_gdwifi.c **** {
  90              		.loc 1 36 1 is_stmt 1
  91              		.cfi_startproc
  92              	.LVL8:
  93 0000 17030000 		call	t0,__riscv_save_1
  93      E7020300 
  94              		.cfi_offset 8, -8
  95              		.cfi_offset 1, -4
  96              		.cfi_def_cfa_offset 16
  37:C:/Users/stapi/OneDrive/Desktop/GD32VW553/V1_MQTT_OK/GD32VW55X_Wifi_BLE_SDK/GD32VW55x_RELEASE_V1.0.2/MSDK/wpa_supplicant/src/utils\os_gdwifi.c **** 	uint32_t sec, usec;
  97              		.loc 1 37 2
  38:C:/Users/stapi/OneDrive/Desktop/GD32VW553/V1_MQTT_OK/GD32VW55X_Wifi_BLE_SDK/GD32VW55x_RELEASE_V1.0.2/MSDK/wpa_supplicant/src/utils\os_gdwifi.c **** 	int ret;
  98              		.loc 1 38 2
  39:C:/Users/stapi/OneDrive/Desktop/GD32VW553/V1_MQTT_OK/GD32VW55X_Wifi_BLE_SDK/GD32VW55x_RELEASE_V1.0.2/MSDK/wpa_supplicant/src/utils\os_gdwifi.c **** 
  40:C:/Users/stapi/OneDrive/Desktop/GD32VW553/V1_MQTT_OK/GD32VW55X_Wifi_BLE_SDK/GD32VW55x_RELEASE_V1.0.2/MSDK/wpa_supplicant/src/utils\os_gdwifi.c **** 	ret = get_time(SINCE_BOOT, &sec, &usec);
  99              		.loc 1 40 2
  36:C:/Users/stapi/OneDrive/Desktop/GD32VW553/V1_MQTT_OK/GD32VW55X_Wifi_BLE_SDK/GD32VW55x_RELEASE_V1.0.2/MSDK/wpa_supplicant/src/utils\os_gdwifi.c **** 	uint32_t sec, usec;
 100              		.loc 1 36 1 is_stmt 0
 101 0008 4111     		addi	sp,sp,-16
 102              		.cfi_def_cfa_offset 32
  36:C:/Users/stapi/OneDrive/Desktop/GD32VW553/V1_MQTT_OK/GD32VW55X_Wifi_BLE_SDK/GD32VW55x_RELEASE_V1.0.2/MSDK/wpa_supplicant/src/utils\os_gdwifi.c **** 	uint32_t sec, usec;
 103              		.loc 1 36 1
 104 000a 2A84     		mv	s0,a0
 105              		.loc 1 40 8
 106 000c 7000     		addi	a2,sp,12
 107 000e 2C00     		addi	a1,sp,8
 108 0010 0145     		li	a0,0
 109              	.LVL9:
 110 0012 97000000 		call	get_time
 110      E7800000 
 111              	.LVL10:
  41:C:/Users/stapi/OneDrive/Desktop/GD32VW553/V1_MQTT_OK/GD32VW55X_Wifi_BLE_SDK/GD32VW55x_RELEASE_V1.0.2/MSDK/wpa_supplicant/src/utils\os_gdwifi.c **** 	t->sec = sec;
 112              		.loc 1 41 2 is_stmt 1
 113              		.loc 1 41 9 is_stmt 0
 114 001a A247     		lw	a5,8(sp)
 115 001c 1CC0     		sw	a5,0(s0)
  42:C:/Users/stapi/OneDrive/Desktop/GD32VW553/V1_MQTT_OK/GD32VW55X_Wifi_BLE_SDK/GD32VW55x_RELEASE_V1.0.2/MSDK/wpa_supplicant/src/utils\os_gdwifi.c **** 	t->usec = usec;
 116              		.loc 1 42 2 is_stmt 1
 117              		.loc 1 42 10 is_stmt 0
 118 001e B247     		lw	a5,12(sp)
 119 0020 5CC0     		sw	a5,4(s0)
  43:C:/Users/stapi/OneDrive/Desktop/GD32VW553/V1_MQTT_OK/GD32VW55X_Wifi_BLE_SDK/GD32VW55x_RELEASE_V1.0.2/MSDK/wpa_supplicant/src/utils\os_gdwifi.c **** 	return ret;
 120              		.loc 1 43 2 is_stmt 1
  44:C:/Users/stapi/OneDrive/Desktop/GD32VW553/V1_MQTT_OK/GD32VW55X_Wifi_BLE_SDK/GD32VW55x_RELEASE_V1.0.2/MSDK/wpa_supplicant/src/utils\os_gdwifi.c **** }
 121              		.loc 1 44 1 is_stmt 0
 122 0022 4101     		addi	sp,sp,16
 123              		.cfi_def_cfa_offset 0
 124 0024 17030000 		tail	__riscv_restore_1
 124      67000300 
 125              		.cfi_restore 8
 126              		.cfi_restore 1
 127              		.cfi_def_cfa_offset -16
 128              		.cfi_endproc
 129              	.LFE73:
 131              		.section	.text.os_mktime,"ax",@progbits
 132              		.align	1
 133              		.globl	os_mktime
 135              	os_mktime:
 136              	.LFB74:
  45:C:/Users/stapi/OneDrive/Desktop/GD32VW553/V1_MQTT_OK/GD32VW55X_Wifi_BLE_SDK/GD32VW55x_RELEASE_V1.0.2/MSDK/wpa_supplicant/src/utils\os_gdwifi.c **** 
  46:C:/Users/stapi/OneDrive/Desktop/GD32VW553/V1_MQTT_OK/GD32VW55X_Wifi_BLE_SDK/GD32VW55x_RELEASE_V1.0.2/MSDK/wpa_supplicant/src/utils\os_gdwifi.c **** 
  47:C:/Users/stapi/OneDrive/Desktop/GD32VW553/V1_MQTT_OK/GD32VW55X_Wifi_BLE_SDK/GD32VW55x_RELEASE_V1.0.2/MSDK/wpa_supplicant/src/utils\os_gdwifi.c **** int os_mktime(int year, int month, int day, int hour, int min, int sec,
  48:C:/Users/stapi/OneDrive/Desktop/GD32VW553/V1_MQTT_OK/GD32VW55X_Wifi_BLE_SDK/GD32VW55x_RELEASE_V1.0.2/MSDK/wpa_supplicant/src/utils\os_gdwifi.c **** 	      os_time_t *t)
  49:C:/Users/stapi/OneDrive/Desktop/GD32VW553/V1_MQTT_OK/GD32VW55X_Wifi_BLE_SDK/GD32VW55x_RELEASE_V1.0.2/MSDK/wpa_supplicant/src/utils\os_gdwifi.c **** {
 137              		.loc 1 49 1 is_stmt 1
 138              		.cfi_startproc
 139              	.LVL11:
 140 0000 17030000 		call	t0,__riscv_save_8
 140      E7020300 
 141              		.cfi_offset 23, -36
 142              		.cfi_offset 22, -32
 143              		.cfi_offset 21, -28
 144              		.cfi_offset 20, -24
 145              		.cfi_offset 19, -20
 146              		.cfi_offset 18, -16
 147              		.cfi_offset 9, -12
 148              		.cfi_offset 8, -8
 149              		.cfi_offset 1, -4
 150              		.cfi_def_cfa_offset 48
  50:C:/Users/stapi/OneDrive/Desktop/GD32VW553/V1_MQTT_OK/GD32VW55X_Wifi_BLE_SDK/GD32VW55x_RELEASE_V1.0.2/MSDK/wpa_supplicant/src/utils\os_gdwifi.c ****     int leap_years = 0, i = 0, time_zone = 8;
 151              		.loc 1 50 5
 152              	.LVL12:
  51:C:/Users/stapi/OneDrive/Desktop/GD32VW553/V1_MQTT_OK/GD32VW55X_Wifi_BLE_SDK/GD32VW55x_RELEASE_V1.0.2/MSDK/wpa_supplicant/src/utils\os_gdwifi.c ****     unsigned int days = 0, resultValue = 0;
 153              		.loc 1 51 5
  52:C:/Users/stapi/OneDrive/Desktop/GD32VW553/V1_MQTT_OK/GD32VW55X_Wifi_BLE_SDK/GD32VW55x_RELEASE_V1.0.2/MSDK/wpa_supplicant/src/utils\os_gdwifi.c ****     int year_t = year - 1;
 154              		.loc 1 52 5
  49:C:/Users/stapi/OneDrive/Desktop/GD32VW553/V1_MQTT_OK/GD32VW55X_Wifi_BLE_SDK/GD32VW55x_RELEASE_V1.0.2/MSDK/wpa_supplicant/src/utils\os_gdwifi.c ****     int leap_years = 0, i = 0, time_zone = 8;
 155              		.loc 1 49 1 is_stmt 0
 156 0008 7971     		addi	sp,sp,-48
 157              		.cfi_def_cfa_offset 96
  49:C:/Users/stapi/OneDrive/Desktop/GD32VW553/V1_MQTT_OK/GD32VW55X_Wifi_BLE_SDK/GD32VW55x_RELEASE_V1.0.2/MSDK/wpa_supplicant/src/utils\os_gdwifi.c ****     int leap_years = 0, i = 0, time_zone = 8;
 158              		.loc 1 49 1
 159 000a AE89     		mv	s3,a1
  53:C:/Users/stapi/OneDrive/Desktop/GD32VW553/V1_MQTT_OK/GD32VW55X_Wifi_BLE_SDK/GD32VW55x_RELEASE_V1.0.2/MSDK/wpa_supplicant/src/utils\os_gdwifi.c ****     const int month_days[] = {31,28,31,30,31,30,31,31,30,31,30,31};
 160              		.loc 1 53 15
 161 000c B7050000 		lui	a1,%hi(.LANCHOR0)
 162              	.LVL13:
  52:C:/Users/stapi/OneDrive/Desktop/GD32VW553/V1_MQTT_OK/GD32VW55X_Wifi_BLE_SDK/GD32VW55x_RELEASE_V1.0.2/MSDK/wpa_supplicant/src/utils\os_gdwifi.c ****     int year_t = year - 1;
 163              		.loc 1 52 9
 164 0010 130AF5FF 		addi	s4,a0,-1
 165              	.LVL14:
 166              		.loc 1 53 5 is_stmt 1
  49:C:/Users/stapi/OneDrive/Desktop/GD32VW553/V1_MQTT_OK/GD32VW55X_Wifi_BLE_SDK/GD32VW55x_RELEASE_V1.0.2/MSDK/wpa_supplicant/src/utils\os_gdwifi.c ****     int leap_years = 0, i = 0, time_zone = 8;
 167              		.loc 1 49 1 is_stmt 0
 168 0014 AA84     		mv	s1,a0
 169 0016 3289     		mv	s2,a2
 170              		.loc 1 53 15
 171 0018 93850500 		addi	a1,a1,%lo(.LANCHOR0)
 172 001c 13060003 		li	a2,48
 173              	.LVL15:
 174 0020 0A85     		mv	a0,sp
 175              	.LVL16:
  49:C:/Users/stapi/OneDrive/Desktop/GD32VW553/V1_MQTT_OK/GD32VW55X_Wifi_BLE_SDK/GD32VW55x_RELEASE_V1.0.2/MSDK/wpa_supplicant/src/utils\os_gdwifi.c ****     int leap_years = 0, i = 0, time_zone = 8;
 176              		.loc 1 49 1
 177 0022 B68B     		mv	s7,a3
 178 0024 3A84     		mv	s0,a4
 179 0026 3E8B     		mv	s6,a5
 180 0028 C28A     		mv	s5,a6
 181              		.loc 1 53 15
 182 002a 97000000 		call	memcpy
 182      E7800000 
 183              	.LVL17:
  54:C:/Users/stapi/OneDrive/Desktop/GD32VW553/V1_MQTT_OK/GD32VW55X_Wifi_BLE_SDK/GD32VW55x_RELEASE_V1.0.2/MSDK/wpa_supplicant/src/utils\os_gdwifi.c **** 
  55:C:/Users/stapi/OneDrive/Desktop/GD32VW553/V1_MQTT_OK/GD32VW55X_Wifi_BLE_SDK/GD32VW55x_RELEASE_V1.0.2/MSDK/wpa_supplicant/src/utils\os_gdwifi.c ****     leap_years = (year_t / 4) - (year_t / 100);
 184              		.loc 1 55 5 is_stmt 1
 185              		.loc 1 55 26 is_stmt 0
 186 0032 9148     		li	a7,4
 187              		.loc 1 55 41
 188 0034 9307C0F9 		li	a5,-100
 189 0038 B347FA02 		div	a5,s4,a5
  56:C:/Users/stapi/OneDrive/Desktop/GD32VW553/V1_MQTT_OK/GD32VW55X_Wifi_BLE_SDK/GD32VW55x_RELEASE_V1.0.2/MSDK/wpa_supplicant/src/utils\os_gdwifi.c ****     leap_years += (year_t / 400);
 190              		.loc 1 56 27
 191 003c 13070019 		li	a4,400
  57:C:/Users/stapi/OneDrive/Desktop/GD32VW553/V1_MQTT_OK/GD32VW55X_Wifi_BLE_SDK/GD32VW55x_RELEASE_V1.0.2/MSDK/wpa_supplicant/src/utils\os_gdwifi.c ****     days = year_t * 365 + leap_years;
  58:C:/Users/stapi/OneDrive/Desktop/GD32VW553/V1_MQTT_OK/GD32VW55X_Wifi_BLE_SDK/GD32VW55x_RELEASE_V1.0.2/MSDK/wpa_supplicant/src/utils\os_gdwifi.c **** 
  59:C:/Users/stapi/OneDrive/Desktop/GD32VW553/V1_MQTT_OK/GD32VW55X_Wifi_BLE_SDK/GD32VW55x_RELEASE_V1.0.2/MSDK/wpa_supplicant/src/utils\os_gdwifi.c ****     for (i = 0; i < month - 1; i++) {
 192              		.loc 1 59 27
 193 0040 9386F9FF 		addi	a3,s3,-1
  55:C:/Users/stapi/OneDrive/Desktop/GD32VW553/V1_MQTT_OK/GD32VW55X_Wifi_BLE_SDK/GD32VW55x_RELEASE_V1.0.2/MSDK/wpa_supplicant/src/utils\os_gdwifi.c ****     leap_years += (year_t / 400);
 194              		.loc 1 55 26
 195 0044 B3481A03 		div	a7,s4,a7
  56:C:/Users/stapi/OneDrive/Desktop/GD32VW553/V1_MQTT_OK/GD32VW55X_Wifi_BLE_SDK/GD32VW55x_RELEASE_V1.0.2/MSDK/wpa_supplicant/src/utils\os_gdwifi.c ****     leap_years += (year_t / 400);
 196              		.loc 1 56 27
 197 0048 3347EA02 		div	a4,s4,a4
  55:C:/Users/stapi/OneDrive/Desktop/GD32VW553/V1_MQTT_OK/GD32VW55X_Wifi_BLE_SDK/GD32VW55x_RELEASE_V1.0.2/MSDK/wpa_supplicant/src/utils\os_gdwifi.c ****     leap_years += (year_t / 400);
 198              		.loc 1 55 16
 199 004c BE98     		add	a7,a7,a5
 200              	.LVL18:
  56:C:/Users/stapi/OneDrive/Desktop/GD32VW553/V1_MQTT_OK/GD32VW55X_Wifi_BLE_SDK/GD32VW55x_RELEASE_V1.0.2/MSDK/wpa_supplicant/src/utils\os_gdwifi.c ****     leap_years += (year_t / 400);
 201              		.loc 1 56 5 is_stmt 1
  57:C:/Users/stapi/OneDrive/Desktop/GD32VW553/V1_MQTT_OK/GD32VW55X_Wifi_BLE_SDK/GD32VW55x_RELEASE_V1.0.2/MSDK/wpa_supplicant/src/utils\os_gdwifi.c ****     days = year_t * 365 + leap_years;
 202              		.loc 1 57 5
  57:C:/Users/stapi/OneDrive/Desktop/GD32VW553/V1_MQTT_OK/GD32VW55X_Wifi_BLE_SDK/GD32VW55x_RELEASE_V1.0.2/MSDK/wpa_supplicant/src/utils\os_gdwifi.c ****     days = year_t * 365 + leap_years;
 203              		.loc 1 57 25 is_stmt 0
 204 004e 9307D016 		li	a5,365
  56:C:/Users/stapi/OneDrive/Desktop/GD32VW553/V1_MQTT_OK/GD32VW55X_Wifi_BLE_SDK/GD32VW55x_RELEASE_V1.0.2/MSDK/wpa_supplicant/src/utils\os_gdwifi.c ****     leap_years += (year_t / 400);
 205              		.loc 1 56 16
 206 0052 BA98     		add	a7,a4,a7
 207              	.LVL19:
  57:C:/Users/stapi/OneDrive/Desktop/GD32VW553/V1_MQTT_OK/GD32VW55X_Wifi_BLE_SDK/GD32VW55x_RELEASE_V1.0.2/MSDK/wpa_supplicant/src/utils\os_gdwifi.c ****     days = year_t * 365 + leap_years;
 208              		.loc 1 57 25
 209 0054 FF18FAC4 		maddr32	a7, s4, a5
 210              	.LVL20:
 211              		.loc 1 59 5 is_stmt 1
 212 0058 0A87     		mv	a4,sp
 213              		.loc 1 59 12 is_stmt 0
 214 005a 8147     		li	a5,0
 215              	.LVL21:
 216              	.L8:
 217              		.loc 1 59 17 is_stmt 1 discriminator 1
 218              		.loc 1 59 5 is_stmt 0 discriminator 1
 219 005c 63C2D706 		bgt	a3,a5,.L9
  60:C:/Users/stapi/OneDrive/Desktop/GD32VW553/V1_MQTT_OK/GD32VW55X_Wifi_BLE_SDK/GD32VW55x_RELEASE_V1.0.2/MSDK/wpa_supplicant/src/utils\os_gdwifi.c ****         days += month_days[i];
  61:C:/Users/stapi/OneDrive/Desktop/GD32VW553/V1_MQTT_OK/GD32VW55X_Wifi_BLE_SDK/GD32VW55x_RELEASE_V1.0.2/MSDK/wpa_supplicant/src/utils\os_gdwifi.c ****     }
  62:C:/Users/stapi/OneDrive/Desktop/GD32VW553/V1_MQTT_OK/GD32VW55X_Wifi_BLE_SDK/GD32VW55x_RELEASE_V1.0.2/MSDK/wpa_supplicant/src/utils\os_gdwifi.c **** 
  63:C:/Users/stapi/OneDrive/Desktop/GD32VW553/V1_MQTT_OK/GD32VW55X_Wifi_BLE_SDK/GD32VW55x_RELEASE_V1.0.2/MSDK/wpa_supplicant/src/utils\os_gdwifi.c ****     if (month > 2) {
 220              		.loc 1 63 5 is_stmt 1
 221              		.loc 1 63 8 is_stmt 0
 222 0060 8947     		li	a5,2
 223              	.LVL22:
 224 0062 63D03703 		ble	s3,a5,.L10
  64:C:/Users/stapi/OneDrive/Desktop/GD32VW553/V1_MQTT_OK/GD32VW55X_Wifi_BLE_SDK/GD32VW55x_RELEASE_V1.0.2/MSDK/wpa_supplicant/src/utils\os_gdwifi.c ****         if (((((year) % 4) == 0) && (((year) % 100) != 0)) || (((year) % 400) == 0))
 225              		.loc 1 64 9 is_stmt 1
 226              		.loc 1 64 28 is_stmt 0
 227 0066 93F73400 		andi	a5,s1,3
 228              		.loc 1 64 12
 229 006a 91E7     		bne	a5,zero,.L11
 230 006c 93074006 		li	a5,100
 231 0070 B3E7F402 		rem	a5,s1,a5
 232              		.loc 1 64 34 discriminator 1
 233 0074 91E7     		bne	a5,zero,.L12
 234              	.L11:
 235 0076 13050019 		li	a0,400
 236 007a 33E5A402 		rem	a0,s1,a0
 237              		.loc 1 64 60 discriminator 3
 238 007e 11E1     		bne	a0,zero,.L10
 239              	.L12:
  65:C:/Users/stapi/OneDrive/Desktop/GD32VW553/V1_MQTT_OK/GD32VW55X_Wifi_BLE_SDK/GD32VW55x_RELEASE_V1.0.2/MSDK/wpa_supplicant/src/utils\os_gdwifi.c ****         days ++;
 240              		.loc 1 65 9 is_stmt 1
 241              		.loc 1 65 14 is_stmt 0
 242 0080 8508     		addi	a7,a7,1
 243              	.LVL23:
 244              	.L10:
  66:C:/Users/stapi/OneDrive/Desktop/GD32VW553/V1_MQTT_OK/GD32VW55X_Wifi_BLE_SDK/GD32VW55x_RELEASE_V1.0.2/MSDK/wpa_supplicant/src/utils\os_gdwifi.c ****     }
  67:C:/Users/stapi/OneDrive/Desktop/GD32VW553/V1_MQTT_OK/GD32VW55X_Wifi_BLE_SDK/GD32VW55x_RELEASE_V1.0.2/MSDK/wpa_supplicant/src/utils\os_gdwifi.c **** 
  68:C:/Users/stapi/OneDrive/Desktop/GD32VW553/V1_MQTT_OK/GD32VW55X_Wifi_BLE_SDK/GD32VW55x_RELEASE_V1.0.2/MSDK/wpa_supplicant/src/utils\os_gdwifi.c ****     days = days + day - 1;
 245              		.loc 1 68 5 is_stmt 1
  69:C:/Users/stapi/OneDrive/Desktop/GD32VW553/V1_MQTT_OK/GD32VW55X_Wifi_BLE_SDK/GD32VW55x_RELEASE_V1.0.2/MSDK/wpa_supplicant/src/utils\os_gdwifi.c **** 
  70:C:/Users/stapi/OneDrive/Desktop/GD32VW553/V1_MQTT_OK/GD32VW55X_Wifi_BLE_SDK/GD32VW55x_RELEASE_V1.0.2/MSDK/wpa_supplicant/src/utils\os_gdwifi.c ****     resultValue = (days - 719162) * 24 * 3600;
 246              		.loc 1 70 5
  71:C:/Users/stapi/OneDrive/Desktop/GD32VW553/V1_MQTT_OK/GD32VW55X_Wifi_BLE_SDK/GD32VW55x_RELEASE_V1.0.2/MSDK/wpa_supplicant/src/utils\os_gdwifi.c ****     resultValue += ((hour) * 3600 + (min) * 60 + sec);
 247              		.loc 1 71 5
  72:C:/Users/stapi/OneDrive/Desktop/GD32VW553/V1_MQTT_OK/GD32VW55X_Wifi_BLE_SDK/GD32VW55x_RELEASE_V1.0.2/MSDK/wpa_supplicant/src/utils\os_gdwifi.c ****     resultValue -= ((unsigned int)time_zone) * 3600;
 248              		.loc 1 72 5
  73:C:/Users/stapi/OneDrive/Desktop/GD32VW553/V1_MQTT_OK/GD32VW55X_Wifi_BLE_SDK/GD32VW55x_RELEASE_V1.0.2/MSDK/wpa_supplicant/src/utils\os_gdwifi.c **** 
  74:C:/Users/stapi/OneDrive/Desktop/GD32VW553/V1_MQTT_OK/GD32VW55X_Wifi_BLE_SDK/GD32VW55x_RELEASE_V1.0.2/MSDK/wpa_supplicant/src/utils\os_gdwifi.c ****     *t = (os_time_t)resultValue;
 249              		.loc 1 74 5
  71:C:/Users/stapi/OneDrive/Desktop/GD32VW553/V1_MQTT_OK/GD32VW55X_Wifi_BLE_SDK/GD32VW55x_RELEASE_V1.0.2/MSDK/wpa_supplicant/src/utils\os_gdwifi.c ****     resultValue -= ((unsigned int)time_zone) * 3600;
 250              		.loc 1 71 43 is_stmt 0
 251 0082 9307C003 		li	a5,60
 252 0086 B307F402 		mul	a5,s0,a5
  71:C:/Users/stapi/OneDrive/Desktop/GD32VW553/V1_MQTT_OK/GD32VW55X_Wifi_BLE_SDK/GD32VW55x_RELEASE_V1.0.2/MSDK/wpa_supplicant/src/utils\os_gdwifi.c ****     resultValue -= ((unsigned int)time_zone) * 3600;
 253              		.loc 1 71 35
 254 008a 0567     		li	a4,4096
 255 008c 130707E1 		addi	a4,a4,-496
  72:C:/Users/stapi/OneDrive/Desktop/GD32VW553/V1_MQTT_OK/GD32VW55X_Wifi_BLE_SDK/GD32VW55x_RELEASE_V1.0.2/MSDK/wpa_supplicant/src/utils\os_gdwifi.c ****     resultValue -= ((unsigned int)time_zone) * 3600;
 256              		.loc 1 72 17
 257 0090 37A46D88 		li	s0,-2006081536
 258              	.LVL24:
 259 0094 13040488 		addi	s0,s0,-1920
  68:C:/Users/stapi/OneDrive/Desktop/GD32VW553/V1_MQTT_OK/GD32VW55X_Wifi_BLE_SDK/GD32VW55x_RELEASE_V1.0.2/MSDK/wpa_supplicant/src/utils\os_gdwifi.c **** 
 260              		.loc 1 68 10
 261 0098 1306F9FF 		addi	a2,s2,-1
 262 009c B298     		add	a7,a2,a7
 263              	.LVL25:
  75:C:/Users/stapi/OneDrive/Desktop/GD32VW553/V1_MQTT_OK/GD32VW55X_Wifi_BLE_SDK/GD32VW55x_RELEASE_V1.0.2/MSDK/wpa_supplicant/src/utils\os_gdwifi.c **** 
  76:C:/Users/stapi/OneDrive/Desktop/GD32VW553/V1_MQTT_OK/GD32VW55X_Wifi_BLE_SDK/GD32VW55x_RELEASE_V1.0.2/MSDK/wpa_supplicant/src/utils\os_gdwifi.c ****     return 0;
  77:C:/Users/stapi/OneDrive/Desktop/GD32VW553/V1_MQTT_OK/GD32VW55X_Wifi_BLE_SDK/GD32VW55x_RELEASE_V1.0.2/MSDK/wpa_supplicant/src/utils\os_gdwifi.c **** }
 264              		.loc 1 77 1
 265 009e 0145     		li	a0,0
  71:C:/Users/stapi/OneDrive/Desktop/GD32VW553/V1_MQTT_OK/GD32VW55X_Wifi_BLE_SDK/GD32VW55x_RELEASE_V1.0.2/MSDK/wpa_supplicant/src/utils\os_gdwifi.c ****     resultValue -= ((unsigned int)time_zone) * 3600;
 266              		.loc 1 71 35
 267 00a0 FF97EBC4 		maddr32	a5, s7, a4
  72:C:/Users/stapi/OneDrive/Desktop/GD32VW553/V1_MQTT_OK/GD32VW55X_Wifi_BLE_SDK/GD32VW55x_RELEASE_V1.0.2/MSDK/wpa_supplicant/src/utils\os_gdwifi.c **** 
 268              		.loc 1 72 17
 269 00a4 5567     		li	a4,86016
  71:C:/Users/stapi/OneDrive/Desktop/GD32VW553/V1_MQTT_OK/GD32VW55X_Wifi_BLE_SDK/GD32VW55x_RELEASE_V1.0.2/MSDK/wpa_supplicant/src/utils\os_gdwifi.c ****     resultValue -= ((unsigned int)time_zone) * 3600;
 270              		.loc 1 71 48
 271 00a6 DA97     		add	a5,a5,s6
  72:C:/Users/stapi/OneDrive/Desktop/GD32VW553/V1_MQTT_OK/GD32VW55X_Wifi_BLE_SDK/GD32VW55x_RELEASE_V1.0.2/MSDK/wpa_supplicant/src/utils\os_gdwifi.c **** 
 272              		.loc 1 72 17
 273 00a8 A297     		add	a5,a5,s0
 274 00aa 13070718 		addi	a4,a4,384
 275 00ae FF97E8C4 		maddr32	a5, a7, a4
  74:C:/Users/stapi/OneDrive/Desktop/GD32VW553/V1_MQTT_OK/GD32VW55X_Wifi_BLE_SDK/GD32VW55x_RELEASE_V1.0.2/MSDK/wpa_supplicant/src/utils\os_gdwifi.c **** 
 276              		.loc 1 74 8
 277 00b2 23A0FA00 		sw	a5,0(s5)
  76:C:/Users/stapi/OneDrive/Desktop/GD32VW553/V1_MQTT_OK/GD32VW55X_Wifi_BLE_SDK/GD32VW55x_RELEASE_V1.0.2/MSDK/wpa_supplicant/src/utils\os_gdwifi.c **** }
 278              		.loc 1 76 5 is_stmt 1
 279              		.loc 1 77 1 is_stmt 0
 280 00b6 4561     		addi	sp,sp,48
 281              		.cfi_remember_state
 282              		.cfi_def_cfa_offset 0
 283 00b8 17030000 		tail	__riscv_restore_8
 283      67000300 
 284              		.cfi_restore 23
 285              		.cfi_restore 22
 286              		.cfi_restore 21
 287              		.cfi_restore 20
 288              		.cfi_restore 19
 289              		.cfi_restore 18
 290              		.cfi_restore 9
 291              		.cfi_restore 8
 292              		.cfi_restore 1
 293              		.cfi_def_cfa_offset -48
 294              	.LVL26:
 295              	.L9:
 296              		.cfi_restore_state
  60:C:/Users/stapi/OneDrive/Desktop/GD32VW553/V1_MQTT_OK/GD32VW55X_Wifi_BLE_SDK/GD32VW55x_RELEASE_V1.0.2/MSDK/wpa_supplicant/src/utils\os_gdwifi.c ****     }
 297              		.loc 1 60 9 is_stmt 1 discriminator 3
  60:C:/Users/stapi/OneDrive/Desktop/GD32VW553/V1_MQTT_OK/GD32VW55X_Wifi_BLE_SDK/GD32VW55x_RELEASE_V1.0.2/MSDK/wpa_supplicant/src/utils\os_gdwifi.c ****     }
 298              		.loc 1 60 14 is_stmt 0 discriminator 3
 299 00c0 1043     		lw	a2,0(a4)
  59:C:/Users/stapi/OneDrive/Desktop/GD32VW553/V1_MQTT_OK/GD32VW55X_Wifi_BLE_SDK/GD32VW55x_RELEASE_V1.0.2/MSDK/wpa_supplicant/src/utils\os_gdwifi.c ****         days += month_days[i];
 300              		.loc 1 59 33 discriminator 3
 301 00c2 8507     		addi	a5,a5,1
 302              	.LVL27:
 303 00c4 1107     		addi	a4,a4,4
  60:C:/Users/stapi/OneDrive/Desktop/GD32VW553/V1_MQTT_OK/GD32VW55X_Wifi_BLE_SDK/GD32VW55x_RELEASE_V1.0.2/MSDK/wpa_supplicant/src/utils\os_gdwifi.c ****     }
 304              		.loc 1 60 14 discriminator 3
 305 00c6 B298     		add	a7,a7,a2
 306              	.LVL28:
  59:C:/Users/stapi/OneDrive/Desktop/GD32VW553/V1_MQTT_OK/GD32VW55X_Wifi_BLE_SDK/GD32VW55x_RELEASE_V1.0.2/MSDK/wpa_supplicant/src/utils\os_gdwifi.c ****         days += month_days[i];
 307              		.loc 1 59 32 is_stmt 1 discriminator 3
 308 00c8 51BF     		j	.L8
 309              		.cfi_endproc
 310              	.LFE74:
 312              		.section	.rodata.os_gmtime.str1.4,"aMS",@progbits,1
 313              		.align	2
 314              	.LC1:
 315 0000 544F444F 		.string	"TODO: os_gmtime"
 315      3A206F73 
 315      5F676D74 
 315      696D6500 
 316              		.section	.text.os_gmtime,"ax",@progbits
 317              		.align	1
 318              		.globl	os_gmtime
 320              	os_gmtime:
 321              	.LFB75:
  78:C:/Users/stapi/OneDrive/Desktop/GD32VW553/V1_MQTT_OK/GD32VW55X_Wifi_BLE_SDK/GD32VW55x_RELEASE_V1.0.2/MSDK/wpa_supplicant/src/utils\os_gdwifi.c **** 
  79:C:/Users/stapi/OneDrive/Desktop/GD32VW553/V1_MQTT_OK/GD32VW55X_Wifi_BLE_SDK/GD32VW55x_RELEASE_V1.0.2/MSDK/wpa_supplicant/src/utils\os_gdwifi.c **** int os_gmtime(os_time_t t, struct os_tm *tm)
  80:C:/Users/stapi/OneDrive/Desktop/GD32VW553/V1_MQTT_OK/GD32VW55X_Wifi_BLE_SDK/GD32VW55x_RELEASE_V1.0.2/MSDK/wpa_supplicant/src/utils\os_gdwifi.c **** {
 322              		.loc 1 80 1
 323              		.cfi_startproc
 324              	.LVL29:
 325 0000 17030000 		call	t0,__riscv_save_0
 325      E7020300 
 326              		.cfi_offset 1, -4
 327              		.cfi_def_cfa_offset 16
  81:C:/Users/stapi/OneDrive/Desktop/GD32VW553/V1_MQTT_OK/GD32VW55X_Wifi_BLE_SDK/GD32VW55x_RELEASE_V1.0.2/MSDK/wpa_supplicant/src/utils\os_gdwifi.c **** 	wpa_printf(MSG_INFO, "TODO: os_gmtime");
 328              		.loc 1 81 2
 329 0008 B7050000 		lui	a1,%hi(.LC1)
 330              	.LVL30:
 331 000c 93850500 		addi	a1,a1,%lo(.LC1)
 332 0010 0D45     		li	a0,3
 333              	.LVL31:
 334 0012 97000000 		call	wpa_printf
 334      E7800000 
 335              	.LVL32:
  82:C:/Users/stapi/OneDrive/Desktop/GD32VW553/V1_MQTT_OK/GD32VW55X_Wifi_BLE_SDK/GD32VW55x_RELEASE_V1.0.2/MSDK/wpa_supplicant/src/utils\os_gdwifi.c **** 	return -1;
 336              		.loc 1 82 2
  83:C:/Users/stapi/OneDrive/Desktop/GD32VW553/V1_MQTT_OK/GD32VW55X_Wifi_BLE_SDK/GD32VW55x_RELEASE_V1.0.2/MSDK/wpa_supplicant/src/utils\os_gdwifi.c **** }
 337              		.loc 1 83 1 is_stmt 0
 338 001a 7D55     		li	a0,-1
 339 001c 17030000 		tail	__riscv_restore_0
 339      67000300 
 340              		.cfi_restore 1
 341              		.cfi_def_cfa_offset 0
 342              		.cfi_endproc
 343              	.LFE75:
 345              		.section	.rodata.os_daemonize.str1.4,"aMS",@progbits,1
 346              		.align	2
 347              	.LC2:
 348 0000 544F444F 		.string	"TODO: os_daemonize"
 348      3A206F73 
 348      5F646165 
 348      6D6F6E69 
 348      7A6500
 349              		.section	.text.os_daemonize,"ax",@progbits
 350              		.align	1
 351              		.globl	os_daemonize
 353              	os_daemonize:
 354              	.LFB76:
  84:C:/Users/stapi/OneDrive/Desktop/GD32VW553/V1_MQTT_OK/GD32VW55X_Wifi_BLE_SDK/GD32VW55x_RELEASE_V1.0.2/MSDK/wpa_supplicant/src/utils\os_gdwifi.c **** 
  85:C:/Users/stapi/OneDrive/Desktop/GD32VW553/V1_MQTT_OK/GD32VW55X_Wifi_BLE_SDK/GD32VW55x_RELEASE_V1.0.2/MSDK/wpa_supplicant/src/utils\os_gdwifi.c **** 
  86:C:/Users/stapi/OneDrive/Desktop/GD32VW553/V1_MQTT_OK/GD32VW55X_Wifi_BLE_SDK/GD32VW55x_RELEASE_V1.0.2/MSDK/wpa_supplicant/src/utils\os_gdwifi.c **** int os_daemonize(const char *pid_file)
  87:C:/Users/stapi/OneDrive/Desktop/GD32VW553/V1_MQTT_OK/GD32VW55X_Wifi_BLE_SDK/GD32VW55x_RELEASE_V1.0.2/MSDK/wpa_supplicant/src/utils\os_gdwifi.c **** {
 355              		.loc 1 87 1 is_stmt 1
 356              		.cfi_startproc
 357              	.LVL33:
 358 0000 17030000 		call	t0,__riscv_save_0
 358      E7020300 
 359              		.cfi_offset 1, -4
 360              		.cfi_def_cfa_offset 16
  88:C:/Users/stapi/OneDrive/Desktop/GD32VW553/V1_MQTT_OK/GD32VW55X_Wifi_BLE_SDK/GD32VW55x_RELEASE_V1.0.2/MSDK/wpa_supplicant/src/utils\os_gdwifi.c **** 	wpa_printf(MSG_INFO, "TODO: os_daemonize");
 361              		.loc 1 88 2
 362 0008 B7050000 		lui	a1,%hi(.LC2)
 363 000c 93850500 		addi	a1,a1,%lo(.LC2)
 364 0010 0D45     		li	a0,3
 365              	.LVL34:
 366 0012 97000000 		call	wpa_printf
 366      E7800000 
 367              	.LVL35:
  89:C:/Users/stapi/OneDrive/Desktop/GD32VW553/V1_MQTT_OK/GD32VW55X_Wifi_BLE_SDK/GD32VW55x_RELEASE_V1.0.2/MSDK/wpa_supplicant/src/utils\os_gdwifi.c **** 	return -1;
 368              		.loc 1 89 2
  90:C:/Users/stapi/OneDrive/Desktop/GD32VW553/V1_MQTT_OK/GD32VW55X_Wifi_BLE_SDK/GD32VW55x_RELEASE_V1.0.2/MSDK/wpa_supplicant/src/utils\os_gdwifi.c **** }
 369              		.loc 1 90 1 is_stmt 0
 370 001a 7D55     		li	a0,-1
 371 001c 17030000 		tail	__riscv_restore_0
 371      67000300 
 372              		.cfi_restore 1
 373              		.cfi_def_cfa_offset 0
 374              		.cfi_endproc
 375              	.LFE76:
 377              		.section	.rodata.os_daemonize_terminate.str1.4,"aMS",@progbits,1
 378              		.align	2
 379              	.LC3:
 380 0000 544F444F 		.string	"TODO: os_daemonize_terminate"
 380      3A206F73 
 380      5F646165 
 380      6D6F6E69 
 380      7A655F74 
 381              		.section	.text.os_daemonize_terminate,"ax",@progbits
 382              		.align	1
 383              		.globl	os_daemonize_terminate
 385              	os_daemonize_terminate:
 386              	.LFB77:
  91:C:/Users/stapi/OneDrive/Desktop/GD32VW553/V1_MQTT_OK/GD32VW55X_Wifi_BLE_SDK/GD32VW55x_RELEASE_V1.0.2/MSDK/wpa_supplicant/src/utils\os_gdwifi.c **** 
  92:C:/Users/stapi/OneDrive/Desktop/GD32VW553/V1_MQTT_OK/GD32VW55X_Wifi_BLE_SDK/GD32VW55x_RELEASE_V1.0.2/MSDK/wpa_supplicant/src/utils\os_gdwifi.c **** 
  93:C:/Users/stapi/OneDrive/Desktop/GD32VW553/V1_MQTT_OK/GD32VW55X_Wifi_BLE_SDK/GD32VW55x_RELEASE_V1.0.2/MSDK/wpa_supplicant/src/utils\os_gdwifi.c **** void os_daemonize_terminate(const char *pid_file)
  94:C:/Users/stapi/OneDrive/Desktop/GD32VW553/V1_MQTT_OK/GD32VW55X_Wifi_BLE_SDK/GD32VW55x_RELEASE_V1.0.2/MSDK/wpa_supplicant/src/utils\os_gdwifi.c **** {
 387              		.loc 1 94 1 is_stmt 1
 388              		.cfi_startproc
 389              	.LVL36:
  95:C:/Users/stapi/OneDrive/Desktop/GD32VW553/V1_MQTT_OK/GD32VW55X_Wifi_BLE_SDK/GD32VW55x_RELEASE_V1.0.2/MSDK/wpa_supplicant/src/utils\os_gdwifi.c **** 	wpa_printf(MSG_INFO, "TODO: os_daemonize_terminate");
 390              		.loc 1 95 2
 391 0000 B7050000 		lui	a1,%hi(.LC3)
 392 0004 93850500 		addi	a1,a1,%lo(.LC3)
 393 0008 0D45     		li	a0,3
 394              	.LVL37:
 395 000a 17030000 		tail	wpa_printf
 395      67000300 
 396              	.LVL38:
 397              		.cfi_endproc
 398              	.LFE77:
 400              		.section	.text.os_get_random,"ax",@progbits
 401              		.align	1
 402              		.globl	os_get_random
 404              	os_get_random:
 405              	.LFB78:
  96:C:/Users/stapi/OneDrive/Desktop/GD32VW553/V1_MQTT_OK/GD32VW55X_Wifi_BLE_SDK/GD32VW55x_RELEASE_V1.0.2/MSDK/wpa_supplicant/src/utils\os_gdwifi.c **** }
  97:C:/Users/stapi/OneDrive/Desktop/GD32VW553/V1_MQTT_OK/GD32VW55X_Wifi_BLE_SDK/GD32VW55x_RELEASE_V1.0.2/MSDK/wpa_supplicant/src/utils\os_gdwifi.c **** 
  98:C:/Users/stapi/OneDrive/Desktop/GD32VW553/V1_MQTT_OK/GD32VW55X_Wifi_BLE_SDK/GD32VW55x_RELEASE_V1.0.2/MSDK/wpa_supplicant/src/utils\os_gdwifi.c **** /* TODO: Check this is good enough */
  99:C:/Users/stapi/OneDrive/Desktop/GD32VW553/V1_MQTT_OK/GD32VW55X_Wifi_BLE_SDK/GD32VW55x_RELEASE_V1.0.2/MSDK/wpa_supplicant/src/utils\os_gdwifi.c **** int os_get_random(unsigned char *buf, size_t len)
 100:C:/Users/stapi/OneDrive/Desktop/GD32VW553/V1_MQTT_OK/GD32VW55X_Wifi_BLE_SDK/GD32VW55x_RELEASE_V1.0.2/MSDK/wpa_supplicant/src/utils\os_gdwifi.c **** {
 406              		.loc 1 100 1
 407              		.cfi_startproc
 408              	.LVL39:
 409 0000 17030000 		call	t0,__riscv_save_0
 409      E7020300 
 410              		.cfi_offset 1, -4
 411              		.cfi_def_cfa_offset 16
 101:C:/Users/stapi/OneDrive/Desktop/GD32VW553/V1_MQTT_OK/GD32VW55X_Wifi_BLE_SDK/GD32VW55x_RELEASE_V1.0.2/MSDK/wpa_supplicant/src/utils\os_gdwifi.c **** #ifdef CONFIG_NO_RANDOM_POOL
 102:C:/Users/stapi/OneDrive/Desktop/GD32VW553/V1_MQTT_OK/GD32VW55X_Wifi_BLE_SDK/GD32VW55x_RELEASE_V1.0.2/MSDK/wpa_supplicant/src/utils\os_gdwifi.c **** 	random_get(buf, len);
 412              		.loc 1 102 2
 413 0008 97000000 		call	random_get
 413      E7800000 
 414              	.LVL40:
 103:C:/Users/stapi/OneDrive/Desktop/GD32VW553/V1_MQTT_OK/GD32VW55X_Wifi_BLE_SDK/GD32VW55x_RELEASE_V1.0.2/MSDK/wpa_supplicant/src/utils\os_gdwifi.c **** 	return 0;
 415              		.loc 1 103 2
 104:C:/Users/stapi/OneDrive/Desktop/GD32VW553/V1_MQTT_OK/GD32VW55X_Wifi_BLE_SDK/GD32VW55x_RELEASE_V1.0.2/MSDK/wpa_supplicant/src/utils\os_gdwifi.c **** #else
 105:C:/Users/stapi/OneDrive/Desktop/GD32VW553/V1_MQTT_OK/GD32VW55X_Wifi_BLE_SDK/GD32VW55x_RELEASE_V1.0.2/MSDK/wpa_supplicant/src/utils\os_gdwifi.c **** 	size_t i;
 106:C:/Users/stapi/OneDrive/Desktop/GD32VW553/V1_MQTT_OK/GD32VW55X_Wifi_BLE_SDK/GD32VW55x_RELEASE_V1.0.2/MSDK/wpa_supplicant/src/utils\os_gdwifi.c **** 	for (i = 0; i < len ; i++) {
 107:C:/Users/stapi/OneDrive/Desktop/GD32VW553/V1_MQTT_OK/GD32VW55X_Wifi_BLE_SDK/GD32VW55x_RELEASE_V1.0.2/MSDK/wpa_supplicant/src/utils\os_gdwifi.c **** 		buf[i] = co_rand_byte();
 108:C:/Users/stapi/OneDrive/Desktop/GD32VW553/V1_MQTT_OK/GD32VW55X_Wifi_BLE_SDK/GD32VW55x_RELEASE_V1.0.2/MSDK/wpa_supplicant/src/utils\os_gdwifi.c **** 	}
 109:C:/Users/stapi/OneDrive/Desktop/GD32VW553/V1_MQTT_OK/GD32VW55X_Wifi_BLE_SDK/GD32VW55x_RELEASE_V1.0.2/MSDK/wpa_supplicant/src/utils\os_gdwifi.c **** 	return 0;
 110:C:/Users/stapi/OneDrive/Desktop/GD32VW553/V1_MQTT_OK/GD32VW55X_Wifi_BLE_SDK/GD32VW55x_RELEASE_V1.0.2/MSDK/wpa_supplicant/src/utils\os_gdwifi.c **** #endif
 111:C:/Users/stapi/OneDrive/Desktop/GD32VW553/V1_MQTT_OK/GD32VW55X_Wifi_BLE_SDK/GD32VW55x_RELEASE_V1.0.2/MSDK/wpa_supplicant/src/utils\os_gdwifi.c **** }
 416              		.loc 1 111 1 is_stmt 0
 417 0010 0145     		li	a0,0
 418 0012 17030000 		tail	__riscv_restore_0
 418      67000300 
 419              		.cfi_restore 1
 420              		.cfi_def_cfa_offset 0
 421              		.cfi_endproc
 422              	.LFE78:
 424              		.section	.text.os_random,"ax",@progbits
 425              		.align	1
 426              		.globl	os_random
 428              	os_random:
 429              	.LFB79:
 112:C:/Users/stapi/OneDrive/Desktop/GD32VW553/V1_MQTT_OK/GD32VW55X_Wifi_BLE_SDK/GD32VW55x_RELEASE_V1.0.2/MSDK/wpa_supplicant/src/utils\os_gdwifi.c **** 
 113:C:/Users/stapi/OneDrive/Desktop/GD32VW553/V1_MQTT_OK/GD32VW55X_Wifi_BLE_SDK/GD32VW55x_RELEASE_V1.0.2/MSDK/wpa_supplicant/src/utils\os_gdwifi.c **** 
 114:C:/Users/stapi/OneDrive/Desktop/GD32VW553/V1_MQTT_OK/GD32VW55X_Wifi_BLE_SDK/GD32VW55x_RELEASE_V1.0.2/MSDK/wpa_supplicant/src/utils\os_gdwifi.c **** unsigned long os_random(void)
 115:C:/Users/stapi/OneDrive/Desktop/GD32VW553/V1_MQTT_OK/GD32VW55X_Wifi_BLE_SDK/GD32VW55x_RELEASE_V1.0.2/MSDK/wpa_supplicant/src/utils\os_gdwifi.c **** {
 430              		.loc 1 115 1 is_stmt 1
 431              		.cfi_startproc
 432 0000 17030000 		call	t0,__riscv_save_0
 432      E7020300 
 433              		.cfi_offset 1, -4
 434              		.cfi_def_cfa_offset 16
 116:C:/Users/stapi/OneDrive/Desktop/GD32VW553/V1_MQTT_OK/GD32VW55X_Wifi_BLE_SDK/GD32VW55x_RELEASE_V1.0.2/MSDK/wpa_supplicant/src/utils\os_gdwifi.c **** #ifdef CONFIG_NO_RANDOM_POOL
 117:C:/Users/stapi/OneDrive/Desktop/GD32VW553/V1_MQTT_OK/GD32VW55X_Wifi_BLE_SDK/GD32VW55x_RELEASE_V1.0.2/MSDK/wpa_supplicant/src/utils\os_gdwifi.c **** 	unsigned long random_byte = 0;
 435              		.loc 1 117 2
 115:C:/Users/stapi/OneDrive/Desktop/GD32VW553/V1_MQTT_OK/GD32VW55X_Wifi_BLE_SDK/GD32VW55x_RELEASE_V1.0.2/MSDK/wpa_supplicant/src/utils\os_gdwifi.c **** #ifdef CONFIG_NO_RANDOM_POOL
 436              		.loc 1 115 1 is_stmt 0
 437 0008 4111     		addi	sp,sp,-16
 438              		.cfi_def_cfa_offset 32
 118:C:/Users/stapi/OneDrive/Desktop/GD32VW553/V1_MQTT_OK/GD32VW55X_Wifi_BLE_SDK/GD32VW55x_RELEASE_V1.0.2/MSDK/wpa_supplicant/src/utils\os_gdwifi.c **** 	random_get((unsigned char *)&random_byte, sizeof(unsigned long));
 439              		.loc 1 118 2
 440 000a 9145     		li	a1,4
 441 000c 6800     		addi	a0,sp,12
 117:C:/Users/stapi/OneDrive/Desktop/GD32VW553/V1_MQTT_OK/GD32VW55X_Wifi_BLE_SDK/GD32VW55x_RELEASE_V1.0.2/MSDK/wpa_supplicant/src/utils\os_gdwifi.c **** 	random_get((unsigned char *)&random_byte, sizeof(unsigned long));
 442              		.loc 1 117 16
 443 000e 02C6     		sw	zero,12(sp)
 444              		.loc 1 118 2 is_stmt 1
 445 0010 97000000 		call	random_get
 445      E7800000 
 446              	.LVL41:
 119:C:/Users/stapi/OneDrive/Desktop/GD32VW553/V1_MQTT_OK/GD32VW55X_Wifi_BLE_SDK/GD32VW55x_RELEASE_V1.0.2/MSDK/wpa_supplicant/src/utils\os_gdwifi.c **** 	return random_byte;
 447              		.loc 1 119 2
 120:C:/Users/stapi/OneDrive/Desktop/GD32VW553/V1_MQTT_OK/GD32VW55X_Wifi_BLE_SDK/GD32VW55x_RELEASE_V1.0.2/MSDK/wpa_supplicant/src/utils\os_gdwifi.c **** #else
 121:C:/Users/stapi/OneDrive/Desktop/GD32VW553/V1_MQTT_OK/GD32VW55X_Wifi_BLE_SDK/GD32VW55x_RELEASE_V1.0.2/MSDK/wpa_supplicant/src/utils\os_gdwifi.c **** 	return co_rand_word();
 122:C:/Users/stapi/OneDrive/Desktop/GD32VW553/V1_MQTT_OK/GD32VW55X_Wifi_BLE_SDK/GD32VW55x_RELEASE_V1.0.2/MSDK/wpa_supplicant/src/utils\os_gdwifi.c **** #endif
 123:C:/Users/stapi/OneDrive/Desktop/GD32VW553/V1_MQTT_OK/GD32VW55X_Wifi_BLE_SDK/GD32VW55x_RELEASE_V1.0.2/MSDK/wpa_supplicant/src/utils\os_gdwifi.c **** }
 448              		.loc 1 123 1 is_stmt 0
 449 0018 3245     		lw	a0,12(sp)
 450 001a 4101     		addi	sp,sp,16
 451              		.cfi_def_cfa_offset 0
 452 001c 17030000 		tail	__riscv_restore_0
 452      67000300 
 453              		.cfi_restore 1
 454              		.cfi_def_cfa_offset -16
 455              		.cfi_endproc
 456              	.LFE79:
 458              		.section	.rodata.os_rel2abs_path.str1.4,"aMS",@progbits,1
 459              		.align	2
 460              	.LC4:
 461 0000 544F444F 		.string	"TODO: os_rel2abs_path"
 461      3A206F73 
 461      5F72656C 
 461      32616273 
 461      5F706174 
 462              		.section	.text.os_rel2abs_path,"ax",@progbits
 463              		.align	1
 464              		.globl	os_rel2abs_path
 466              	os_rel2abs_path:
 467              	.LFB80:
 124:C:/Users/stapi/OneDrive/Desktop/GD32VW553/V1_MQTT_OK/GD32VW55X_Wifi_BLE_SDK/GD32VW55x_RELEASE_V1.0.2/MSDK/wpa_supplicant/src/utils\os_gdwifi.c **** 
 125:C:/Users/stapi/OneDrive/Desktop/GD32VW553/V1_MQTT_OK/GD32VW55X_Wifi_BLE_SDK/GD32VW55x_RELEASE_V1.0.2/MSDK/wpa_supplicant/src/utils\os_gdwifi.c **** 
 126:C:/Users/stapi/OneDrive/Desktop/GD32VW553/V1_MQTT_OK/GD32VW55X_Wifi_BLE_SDK/GD32VW55x_RELEASE_V1.0.2/MSDK/wpa_supplicant/src/utils\os_gdwifi.c **** char * os_rel2abs_path(const char *rel_path)
 127:C:/Users/stapi/OneDrive/Desktop/GD32VW553/V1_MQTT_OK/GD32VW55X_Wifi_BLE_SDK/GD32VW55x_RELEASE_V1.0.2/MSDK/wpa_supplicant/src/utils\os_gdwifi.c **** {
 468              		.loc 1 127 1 is_stmt 1
 469              		.cfi_startproc
 470              	.LVL42:
 471 0000 17030000 		call	t0,__riscv_save_0
 471      E7020300 
 472              		.cfi_offset 1, -4
 473              		.cfi_def_cfa_offset 16
 128:C:/Users/stapi/OneDrive/Desktop/GD32VW553/V1_MQTT_OK/GD32VW55X_Wifi_BLE_SDK/GD32VW55x_RELEASE_V1.0.2/MSDK/wpa_supplicant/src/utils\os_gdwifi.c **** 	wpa_printf(MSG_INFO, "TODO: os_rel2abs_path");
 474              		.loc 1 128 2
 475 0008 B7050000 		lui	a1,%hi(.LC4)
 476 000c 93850500 		addi	a1,a1,%lo(.LC4)
 477 0010 0D45     		li	a0,3
 478              	.LVL43:
 479 0012 97000000 		call	wpa_printf
 479      E7800000 
 480              	.LVL44:
 129:C:/Users/stapi/OneDrive/Desktop/GD32VW553/V1_MQTT_OK/GD32VW55X_Wifi_BLE_SDK/GD32VW55x_RELEASE_V1.0.2/MSDK/wpa_supplicant/src/utils\os_gdwifi.c **** 	return NULL; /* strdup(rel_path) can be used here */
 481              		.loc 1 129 2
 130:C:/Users/stapi/OneDrive/Desktop/GD32VW553/V1_MQTT_OK/GD32VW55X_Wifi_BLE_SDK/GD32VW55x_RELEASE_V1.0.2/MSDK/wpa_supplicant/src/utils\os_gdwifi.c **** }
 482              		.loc 1 130 1 is_stmt 0
 483 001a 0145     		li	a0,0
 484 001c 17030000 		tail	__riscv_restore_0
 484      67000300 
 485              		.cfi_restore 1
 486              		.cfi_def_cfa_offset 0
 487              		.cfi_endproc
 488              	.LFE80:
 490              		.section	.rodata.os_program_init.str1.4,"aMS",@progbits,1
 491              		.align	2
 492              	.LC5:
 493 0000 544F444F 		.string	"TODO: os_program_init"
 493      3A206F73 
 493      5F70726F 
 493      6772616D 
 493      5F696E69 
 494              		.section	.text.os_program_init,"ax",@progbits
 495              		.align	1
 496              		.globl	os_program_init
 498              	os_program_init:
 499              	.LFB81:
 131:C:/Users/stapi/OneDrive/Desktop/GD32VW553/V1_MQTT_OK/GD32VW55X_Wifi_BLE_SDK/GD32VW55x_RELEASE_V1.0.2/MSDK/wpa_supplicant/src/utils\os_gdwifi.c **** 
 132:C:/Users/stapi/OneDrive/Desktop/GD32VW553/V1_MQTT_OK/GD32VW55X_Wifi_BLE_SDK/GD32VW55x_RELEASE_V1.0.2/MSDK/wpa_supplicant/src/utils\os_gdwifi.c **** 
 133:C:/Users/stapi/OneDrive/Desktop/GD32VW553/V1_MQTT_OK/GD32VW55X_Wifi_BLE_SDK/GD32VW55x_RELEASE_V1.0.2/MSDK/wpa_supplicant/src/utils\os_gdwifi.c **** int os_program_init(void)
 134:C:/Users/stapi/OneDrive/Desktop/GD32VW553/V1_MQTT_OK/GD32VW55X_Wifi_BLE_SDK/GD32VW55x_RELEASE_V1.0.2/MSDK/wpa_supplicant/src/utils\os_gdwifi.c **** {
 500              		.loc 1 134 1 is_stmt 1
 501              		.cfi_startproc
 502 0000 17030000 		call	t0,__riscv_save_0
 502      E7020300 
 503              		.cfi_offset 1, -4
 504              		.cfi_def_cfa_offset 16
 135:C:/Users/stapi/OneDrive/Desktop/GD32VW553/V1_MQTT_OK/GD32VW55X_Wifi_BLE_SDK/GD32VW55x_RELEASE_V1.0.2/MSDK/wpa_supplicant/src/utils\os_gdwifi.c **** 	wpa_printf(MSG_INFO, "TODO: os_program_init");
 505              		.loc 1 135 2
 506 0008 B7050000 		lui	a1,%hi(.LC5)
 507 000c 93850500 		addi	a1,a1,%lo(.LC5)
 508 0010 0D45     		li	a0,3
 509 0012 97000000 		call	wpa_printf
 509      E7800000 
 510              	.LVL45:
 136:C:/Users/stapi/OneDrive/Desktop/GD32VW553/V1_MQTT_OK/GD32VW55X_Wifi_BLE_SDK/GD32VW55x_RELEASE_V1.0.2/MSDK/wpa_supplicant/src/utils\os_gdwifi.c **** 	return 0;
 511              		.loc 1 136 2
 137:C:/Users/stapi/OneDrive/Desktop/GD32VW553/V1_MQTT_OK/GD32VW55X_Wifi_BLE_SDK/GD32VW55x_RELEASE_V1.0.2/MSDK/wpa_supplicant/src/utils\os_gdwifi.c **** }
 512              		.loc 1 137 1 is_stmt 0
 513 001a 0145     		li	a0,0
 514 001c 17030000 		tail	__riscv_restore_0
 514      67000300 
 515              		.cfi_restore 1
 516              		.cfi_def_cfa_offset 0
 517              		.cfi_endproc
 518              	.LFE81:
 520              		.section	.rodata.os_program_deinit.str1.4,"aMS",@progbits,1
 521              		.align	2
 522              	.LC6:
 523 0000 544F444F 		.string	"TODO: os_program_deinit"
 523      3A206F73 
 523      5F70726F 
 523      6772616D 
 523      5F646569 
 524              		.section	.text.os_program_deinit,"ax",@progbits
 525              		.align	1
 526              		.globl	os_program_deinit
 528              	os_program_deinit:
 529              	.LFB82:
 138:C:/Users/stapi/OneDrive/Desktop/GD32VW553/V1_MQTT_OK/GD32VW55X_Wifi_BLE_SDK/GD32VW55x_RELEASE_V1.0.2/MSDK/wpa_supplicant/src/utils\os_gdwifi.c **** 
 139:C:/Users/stapi/OneDrive/Desktop/GD32VW553/V1_MQTT_OK/GD32VW55X_Wifi_BLE_SDK/GD32VW55x_RELEASE_V1.0.2/MSDK/wpa_supplicant/src/utils\os_gdwifi.c **** 
 140:C:/Users/stapi/OneDrive/Desktop/GD32VW553/V1_MQTT_OK/GD32VW55X_Wifi_BLE_SDK/GD32VW55x_RELEASE_V1.0.2/MSDK/wpa_supplicant/src/utils\os_gdwifi.c **** void os_program_deinit(void)
 141:C:/Users/stapi/OneDrive/Desktop/GD32VW553/V1_MQTT_OK/GD32VW55X_Wifi_BLE_SDK/GD32VW55x_RELEASE_V1.0.2/MSDK/wpa_supplicant/src/utils\os_gdwifi.c **** {
 530              		.loc 1 141 1 is_stmt 1
 531              		.cfi_startproc
 142:C:/Users/stapi/OneDrive/Desktop/GD32VW553/V1_MQTT_OK/GD32VW55X_Wifi_BLE_SDK/GD32VW55x_RELEASE_V1.0.2/MSDK/wpa_supplicant/src/utils\os_gdwifi.c **** 	wpa_printf(MSG_INFO, "TODO: os_program_deinit");
 532              		.loc 1 142 2
 533 0000 B7050000 		lui	a1,%hi(.LC6)
 534 0004 93850500 		addi	a1,a1,%lo(.LC6)
 535 0008 0D45     		li	a0,3
 536 000a 17030000 		tail	wpa_printf
 536      67000300 
 537              	.LVL46:
 538              		.cfi_endproc
 539              	.LFE82:
 541              		.section	.rodata.os_setenv.str1.4,"aMS",@progbits,1
 542              		.align	2
 543              	.LC7:
 544 0000 544F444F 		.string	"TODO: os_setenv"
 544      3A206F73 
 544      5F736574 
 544      656E7600 
 545              		.section	.text.os_setenv,"ax",@progbits
 546              		.align	1
 547              		.globl	os_setenv
 549              	os_setenv:
 550              	.LFB83:
 143:C:/Users/stapi/OneDrive/Desktop/GD32VW553/V1_MQTT_OK/GD32VW55X_Wifi_BLE_SDK/GD32VW55x_RELEASE_V1.0.2/MSDK/wpa_supplicant/src/utils\os_gdwifi.c **** }
 144:C:/Users/stapi/OneDrive/Desktop/GD32VW553/V1_MQTT_OK/GD32VW55X_Wifi_BLE_SDK/GD32VW55x_RELEASE_V1.0.2/MSDK/wpa_supplicant/src/utils\os_gdwifi.c **** 
 145:C:/Users/stapi/OneDrive/Desktop/GD32VW553/V1_MQTT_OK/GD32VW55X_Wifi_BLE_SDK/GD32VW55x_RELEASE_V1.0.2/MSDK/wpa_supplicant/src/utils\os_gdwifi.c **** 
 146:C:/Users/stapi/OneDrive/Desktop/GD32VW553/V1_MQTT_OK/GD32VW55X_Wifi_BLE_SDK/GD32VW55x_RELEASE_V1.0.2/MSDK/wpa_supplicant/src/utils\os_gdwifi.c **** int os_setenv(const char *name, const char *value, int overwrite)
 147:C:/Users/stapi/OneDrive/Desktop/GD32VW553/V1_MQTT_OK/GD32VW55X_Wifi_BLE_SDK/GD32VW55x_RELEASE_V1.0.2/MSDK/wpa_supplicant/src/utils\os_gdwifi.c **** {
 551              		.loc 1 147 1
 552              		.cfi_startproc
 553              	.LVL47:
 554 0000 17030000 		call	t0,__riscv_save_0
 554      E7020300 
 555              		.cfi_offset 1, -4
 556              		.cfi_def_cfa_offset 16
 148:C:/Users/stapi/OneDrive/Desktop/GD32VW553/V1_MQTT_OK/GD32VW55X_Wifi_BLE_SDK/GD32VW55x_RELEASE_V1.0.2/MSDK/wpa_supplicant/src/utils\os_gdwifi.c **** 	wpa_printf(MSG_INFO, "TODO: os_setenv");
 557              		.loc 1 148 2
 558 0008 B7050000 		lui	a1,%hi(.LC7)
 559              	.LVL48:
 560 000c 93850500 		addi	a1,a1,%lo(.LC7)
 561 0010 0D45     		li	a0,3
 562              	.LVL49:
 563 0012 97000000 		call	wpa_printf
 563      E7800000 
 564              	.LVL50:
 149:C:/Users/stapi/OneDrive/Desktop/GD32VW553/V1_MQTT_OK/GD32VW55X_Wifi_BLE_SDK/GD32VW55x_RELEASE_V1.0.2/MSDK/wpa_supplicant/src/utils\os_gdwifi.c **** 	return -1;
 565              		.loc 1 149 2
 150:C:/Users/stapi/OneDrive/Desktop/GD32VW553/V1_MQTT_OK/GD32VW55X_Wifi_BLE_SDK/GD32VW55x_RELEASE_V1.0.2/MSDK/wpa_supplicant/src/utils\os_gdwifi.c **** }
 566              		.loc 1 150 1 is_stmt 0
 567 001a 7D55     		li	a0,-1
 568 001c 17030000 		tail	__riscv_restore_0
 568      67000300 
 569              		.cfi_restore 1
 570              		.cfi_def_cfa_offset 0
 571              		.cfi_endproc
 572              	.LFE83:
 574              		.section	.rodata.os_unsetenv.str1.4,"aMS",@progbits,1
 575              		.align	2
 576              	.LC8:
 577 0000 544F444F 		.string	"TODO: os_unsetenv"
 577      3A206F73 
 577      5F756E73 
 577      6574656E 
 577      7600
 578              		.section	.text.os_unsetenv,"ax",@progbits
 579              		.align	1
 580              		.globl	os_unsetenv
 582              	os_unsetenv:
 583              	.LFB84:
 151:C:/Users/stapi/OneDrive/Desktop/GD32VW553/V1_MQTT_OK/GD32VW55X_Wifi_BLE_SDK/GD32VW55x_RELEASE_V1.0.2/MSDK/wpa_supplicant/src/utils\os_gdwifi.c **** 
 152:C:/Users/stapi/OneDrive/Desktop/GD32VW553/V1_MQTT_OK/GD32VW55X_Wifi_BLE_SDK/GD32VW55x_RELEASE_V1.0.2/MSDK/wpa_supplicant/src/utils\os_gdwifi.c **** int os_unsetenv(const char *name)
 153:C:/Users/stapi/OneDrive/Desktop/GD32VW553/V1_MQTT_OK/GD32VW55X_Wifi_BLE_SDK/GD32VW55x_RELEASE_V1.0.2/MSDK/wpa_supplicant/src/utils\os_gdwifi.c **** {
 584              		.loc 1 153 1 is_stmt 1
 585              		.cfi_startproc
 586              	.LVL51:
 587 0000 17030000 		call	t0,__riscv_save_0
 587      E7020300 
 588              		.cfi_offset 1, -4
 589              		.cfi_def_cfa_offset 16
 154:C:/Users/stapi/OneDrive/Desktop/GD32VW553/V1_MQTT_OK/GD32VW55X_Wifi_BLE_SDK/GD32VW55x_RELEASE_V1.0.2/MSDK/wpa_supplicant/src/utils\os_gdwifi.c **** 	wpa_printf(MSG_INFO, "TODO: os_unsetenv");
 590              		.loc 1 154 2
 591 0008 B7050000 		lui	a1,%hi(.LC8)
 592 000c 93850500 		addi	a1,a1,%lo(.LC8)
 593 0010 0D45     		li	a0,3
 594              	.LVL52:
 595 0012 97000000 		call	wpa_printf
 595      E7800000 
 596              	.LVL53:
 155:C:/Users/stapi/OneDrive/Desktop/GD32VW553/V1_MQTT_OK/GD32VW55X_Wifi_BLE_SDK/GD32VW55x_RELEASE_V1.0.2/MSDK/wpa_supplicant/src/utils\os_gdwifi.c **** 	return -1;
 597              		.loc 1 155 2
 156:C:/Users/stapi/OneDrive/Desktop/GD32VW553/V1_MQTT_OK/GD32VW55X_Wifi_BLE_SDK/GD32VW55x_RELEASE_V1.0.2/MSDK/wpa_supplicant/src/utils\os_gdwifi.c **** }
 598              		.loc 1 156 1 is_stmt 0
 599 001a 7D55     		li	a0,-1
 600 001c 17030000 		tail	__riscv_restore_0
 600      67000300 
 601              		.cfi_restore 1
 602              		.cfi_def_cfa_offset 0
 603              		.cfi_endproc
 604              	.LFE84:
 606              		.section	.rodata.os_readfile.str1.4,"aMS",@progbits,1
 607              		.align	2
 608              	.LC9:
 609 0000 544F444F 		.string	"TODO: os_readfile"
 609      3A206F73 
 609      5F726561 
 609      6466696C 
 609      6500
 610              		.section	.text.os_readfile,"ax",@progbits
 611              		.align	1
 612              		.globl	os_readfile
 614              	os_readfile:
 615              	.LFB85:
 157:C:/Users/stapi/OneDrive/Desktop/GD32VW553/V1_MQTT_OK/GD32VW55X_Wifi_BLE_SDK/GD32VW55x_RELEASE_V1.0.2/MSDK/wpa_supplicant/src/utils\os_gdwifi.c **** 
 158:C:/Users/stapi/OneDrive/Desktop/GD32VW553/V1_MQTT_OK/GD32VW55X_Wifi_BLE_SDK/GD32VW55x_RELEASE_V1.0.2/MSDK/wpa_supplicant/src/utils\os_gdwifi.c **** 
 159:C:/Users/stapi/OneDrive/Desktop/GD32VW553/V1_MQTT_OK/GD32VW55X_Wifi_BLE_SDK/GD32VW55x_RELEASE_V1.0.2/MSDK/wpa_supplicant/src/utils\os_gdwifi.c **** char * os_readfile(const char *name, size_t *len)
 160:C:/Users/stapi/OneDrive/Desktop/GD32VW553/V1_MQTT_OK/GD32VW55X_Wifi_BLE_SDK/GD32VW55x_RELEASE_V1.0.2/MSDK/wpa_supplicant/src/utils\os_gdwifi.c **** {
 616              		.loc 1 160 1 is_stmt 1
 617              		.cfi_startproc
 618              	.LVL54:
 619 0000 17030000 		call	t0,__riscv_save_0
 619      E7020300 
 620              		.cfi_offset 1, -4
 621              		.cfi_def_cfa_offset 16
 161:C:/Users/stapi/OneDrive/Desktop/GD32VW553/V1_MQTT_OK/GD32VW55X_Wifi_BLE_SDK/GD32VW55x_RELEASE_V1.0.2/MSDK/wpa_supplicant/src/utils\os_gdwifi.c **** #ifdef CFG_8021x_EAP_TLS
 162:C:/Users/stapi/OneDrive/Desktop/GD32VW553/V1_MQTT_OK/GD32VW55X_Wifi_BLE_SDK/GD32VW55x_RELEASE_V1.0.2/MSDK/wpa_supplicant/src/utils\os_gdwifi.c **** 	return wifi_wpa_sta_read_eap_tls_files(name, len);
 163:C:/Users/stapi/OneDrive/Desktop/GD32VW553/V1_MQTT_OK/GD32VW55X_Wifi_BLE_SDK/GD32VW55x_RELEASE_V1.0.2/MSDK/wpa_supplicant/src/utils\os_gdwifi.c **** #else
 164:C:/Users/stapi/OneDrive/Desktop/GD32VW553/V1_MQTT_OK/GD32VW55X_Wifi_BLE_SDK/GD32VW55x_RELEASE_V1.0.2/MSDK/wpa_supplicant/src/utils\os_gdwifi.c **** 	wpa_printf(MSG_INFO, "TODO: os_readfile");
 622              		.loc 1 164 2
 623 0008 B7050000 		lui	a1,%hi(.LC9)
 624              	.LVL55:
 625 000c 93850500 		addi	a1,a1,%lo(.LC9)
 626 0010 0D45     		li	a0,3
 627              	.LVL56:
 628 0012 97000000 		call	wpa_printf
 628      E7800000 
 629              	.LVL57:
 165:C:/Users/stapi/OneDrive/Desktop/GD32VW553/V1_MQTT_OK/GD32VW55X_Wifi_BLE_SDK/GD32VW55x_RELEASE_V1.0.2/MSDK/wpa_supplicant/src/utils\os_gdwifi.c **** 	return NULL;
 630              		.loc 1 165 2
 166:C:/Users/stapi/OneDrive/Desktop/GD32VW553/V1_MQTT_OK/GD32VW55X_Wifi_BLE_SDK/GD32VW55x_RELEASE_V1.0.2/MSDK/wpa_supplicant/src/utils\os_gdwifi.c **** #endif
 167:C:/Users/stapi/OneDrive/Desktop/GD32VW553/V1_MQTT_OK/GD32VW55X_Wifi_BLE_SDK/GD32VW55x_RELEASE_V1.0.2/MSDK/wpa_supplicant/src/utils\os_gdwifi.c **** }
 631              		.loc 1 167 1 is_stmt 0
 632 001a 0145     		li	a0,0
 633 001c 17030000 		tail	__riscv_restore_0
 633      67000300 
 634              		.cfi_restore 1
 635              		.cfi_def_cfa_offset 0
 636              		.cfi_endproc
 637              	.LFE85:
 639              		.section	.rodata.os_fdatasync.str1.4,"aMS",@progbits,1
 640              		.align	2
 641              	.LC10:
 642 0000 544F444F 		.string	"TODO: os_fdatasync"
 642      3A206F73 
 642      5F666461 
 642      74617379 
 642      6E6300
 643              		.section	.text.os_fdatasync,"ax",@progbits
 644              		.align	1
 645              		.globl	os_fdatasync
 647              	os_fdatasync:
 648              	.LFB86:
 168:C:/Users/stapi/OneDrive/Desktop/GD32VW553/V1_MQTT_OK/GD32VW55X_Wifi_BLE_SDK/GD32VW55x_RELEASE_V1.0.2/MSDK/wpa_supplicant/src/utils\os_gdwifi.c **** 
 169:C:/Users/stapi/OneDrive/Desktop/GD32VW553/V1_MQTT_OK/GD32VW55X_Wifi_BLE_SDK/GD32VW55x_RELEASE_V1.0.2/MSDK/wpa_supplicant/src/utils\os_gdwifi.c **** 
 170:C:/Users/stapi/OneDrive/Desktop/GD32VW553/V1_MQTT_OK/GD32VW55X_Wifi_BLE_SDK/GD32VW55x_RELEASE_V1.0.2/MSDK/wpa_supplicant/src/utils\os_gdwifi.c **** int os_fdatasync(FILE *stream)
 171:C:/Users/stapi/OneDrive/Desktop/GD32VW553/V1_MQTT_OK/GD32VW55X_Wifi_BLE_SDK/GD32VW55x_RELEASE_V1.0.2/MSDK/wpa_supplicant/src/utils\os_gdwifi.c **** {
 649              		.loc 1 171 1 is_stmt 1
 650              		.cfi_startproc
 651              	.LVL58:
 652 0000 17030000 		call	t0,__riscv_save_0
 652      E7020300 
 653              		.cfi_offset 1, -4
 654              		.cfi_def_cfa_offset 16
 172:C:/Users/stapi/OneDrive/Desktop/GD32VW553/V1_MQTT_OK/GD32VW55X_Wifi_BLE_SDK/GD32VW55x_RELEASE_V1.0.2/MSDK/wpa_supplicant/src/utils\os_gdwifi.c **** 	wpa_printf(MSG_INFO, "TODO: os_fdatasync");
 655              		.loc 1 172 2
 656 0008 B7050000 		lui	a1,%hi(.LC10)
 657 000c 93850500 		addi	a1,a1,%lo(.LC10)
 658 0010 0D45     		li	a0,3
 659              	.LVL59:
 660 0012 97000000 		call	wpa_printf
 660      E7800000 
 661              	.LVL60:
 173:C:/Users/stapi/OneDrive/Desktop/GD32VW553/V1_MQTT_OK/GD32VW55X_Wifi_BLE_SDK/GD32VW55x_RELEASE_V1.0.2/MSDK/wpa_supplicant/src/utils\os_gdwifi.c **** 	return 0;
 662              		.loc 1 173 2
 174:C:/Users/stapi/OneDrive/Desktop/GD32VW553/V1_MQTT_OK/GD32VW55X_Wifi_BLE_SDK/GD32VW55x_RELEASE_V1.0.2/MSDK/wpa_supplicant/src/utils\os_gdwifi.c **** }
 663              		.loc 1 174 1 is_stmt 0
 664 001a 0145     		li	a0,0
 665 001c 17030000 		tail	__riscv_restore_0
 665      67000300 
 666              		.cfi_restore 1
 667              		.cfi_def_cfa_offset 0
 668              		.cfi_endproc
 669              	.LFE86:
 671              		.section	.text.os_malloc,"ax",@progbits
 672              		.align	1
 673              		.globl	os_malloc
 675              	os_malloc:
 676              	.LFB88:
 175:C:/Users/stapi/OneDrive/Desktop/GD32VW553/V1_MQTT_OK/GD32VW55X_Wifi_BLE_SDK/GD32VW55x_RELEASE_V1.0.2/MSDK/wpa_supplicant/src/utils\os_gdwifi.c **** 
 176:C:/Users/stapi/OneDrive/Desktop/GD32VW553/V1_MQTT_OK/GD32VW55X_Wifi_BLE_SDK/GD32VW55x_RELEASE_V1.0.2/MSDK/wpa_supplicant/src/utils\os_gdwifi.c **** 
 177:C:/Users/stapi/OneDrive/Desktop/GD32VW553/V1_MQTT_OK/GD32VW55X_Wifi_BLE_SDK/GD32VW55x_RELEASE_V1.0.2/MSDK/wpa_supplicant/src/utils\os_gdwifi.c **** void * os_zalloc(size_t size)
 178:C:/Users/stapi/OneDrive/Desktop/GD32VW553/V1_MQTT_OK/GD32VW55X_Wifi_BLE_SDK/GD32VW55x_RELEASE_V1.0.2/MSDK/wpa_supplicant/src/utils\os_gdwifi.c **** {
 179:C:/Users/stapi/OneDrive/Desktop/GD32VW553/V1_MQTT_OK/GD32VW55X_Wifi_BLE_SDK/GD32VW55x_RELEASE_V1.0.2/MSDK/wpa_supplicant/src/utils\os_gdwifi.c **** 	void * ptr = os_malloc(size);
 180:C:/Users/stapi/OneDrive/Desktop/GD32VW553/V1_MQTT_OK/GD32VW55X_Wifi_BLE_SDK/GD32VW55x_RELEASE_V1.0.2/MSDK/wpa_supplicant/src/utils\os_gdwifi.c **** 	if (ptr) {
 181:C:/Users/stapi/OneDrive/Desktop/GD32VW553/V1_MQTT_OK/GD32VW55X_Wifi_BLE_SDK/GD32VW55x_RELEASE_V1.0.2/MSDK/wpa_supplicant/src/utils\os_gdwifi.c **** 		os_memset(ptr, 0, size);
 182:C:/Users/stapi/OneDrive/Desktop/GD32VW553/V1_MQTT_OK/GD32VW55X_Wifi_BLE_SDK/GD32VW55x_RELEASE_V1.0.2/MSDK/wpa_supplicant/src/utils\os_gdwifi.c **** 	}
 183:C:/Users/stapi/OneDrive/Desktop/GD32VW553/V1_MQTT_OK/GD32VW55X_Wifi_BLE_SDK/GD32VW55x_RELEASE_V1.0.2/MSDK/wpa_supplicant/src/utils\os_gdwifi.c **** 	return ptr;
 184:C:/Users/stapi/OneDrive/Desktop/GD32VW553/V1_MQTT_OK/GD32VW55X_Wifi_BLE_SDK/GD32VW55x_RELEASE_V1.0.2/MSDK/wpa_supplicant/src/utils\os_gdwifi.c **** }
 185:C:/Users/stapi/OneDrive/Desktop/GD32VW553/V1_MQTT_OK/GD32VW55X_Wifi_BLE_SDK/GD32VW55x_RELEASE_V1.0.2/MSDK/wpa_supplicant/src/utils\os_gdwifi.c **** 
 186:C:/Users/stapi/OneDrive/Desktop/GD32VW553/V1_MQTT_OK/GD32VW55X_Wifi_BLE_SDK/GD32VW55x_RELEASE_V1.0.2/MSDK/wpa_supplicant/src/utils\os_gdwifi.c **** 
 187:C:/Users/stapi/OneDrive/Desktop/GD32VW553/V1_MQTT_OK/GD32VW55X_Wifi_BLE_SDK/GD32VW55x_RELEASE_V1.0.2/MSDK/wpa_supplicant/src/utils\os_gdwifi.c **** #ifdef OS_NO_C_LIB_DEFINES
 188:C:/Users/stapi/OneDrive/Desktop/GD32VW553/V1_MQTT_OK/GD32VW55X_Wifi_BLE_SDK/GD32VW55x_RELEASE_V1.0.2/MSDK/wpa_supplicant/src/utils\os_gdwifi.c **** void * os_malloc(size_t size)
 189:C:/Users/stapi/OneDrive/Desktop/GD32VW553/V1_MQTT_OK/GD32VW55X_Wifi_BLE_SDK/GD32VW55x_RELEASE_V1.0.2/MSDK/wpa_supplicant/src/utils\os_gdwifi.c **** {
 677              		.loc 1 189 1 is_stmt 1
 678              		.cfi_startproc
 679              	.LVL61:
 190:C:/Users/stapi/OneDrive/Desktop/GD32VW553/V1_MQTT_OK/GD32VW55X_Wifi_BLE_SDK/GD32VW55x_RELEASE_V1.0.2/MSDK/wpa_supplicant/src/utils\os_gdwifi.c **** 	return sys_malloc(size);
 680              		.loc 1 190 2
 681              		.loc 1 190 9 is_stmt 0
 682 0000 17030000 		tail	sys_malloc
 682      67000300 
 683              	.LVL62:
 684              		.cfi_endproc
 685              	.LFE88:
 687              		.section	.text.os_realloc,"ax",@progbits
 688              		.align	1
 689              		.globl	os_realloc
 691              	os_realloc:
 692              	.LFB90:
 191:C:/Users/stapi/OneDrive/Desktop/GD32VW553/V1_MQTT_OK/GD32VW55X_Wifi_BLE_SDK/GD32VW55x_RELEASE_V1.0.2/MSDK/wpa_supplicant/src/utils\os_gdwifi.c **** }
 192:C:/Users/stapi/OneDrive/Desktop/GD32VW553/V1_MQTT_OK/GD32VW55X_Wifi_BLE_SDK/GD32VW55x_RELEASE_V1.0.2/MSDK/wpa_supplicant/src/utils\os_gdwifi.c **** 
 193:C:/Users/stapi/OneDrive/Desktop/GD32VW553/V1_MQTT_OK/GD32VW55X_Wifi_BLE_SDK/GD32VW55x_RELEASE_V1.0.2/MSDK/wpa_supplicant/src/utils\os_gdwifi.c **** void * os_memdup(const void *src, size_t len)
 194:C:/Users/stapi/OneDrive/Desktop/GD32VW553/V1_MQTT_OK/GD32VW55X_Wifi_BLE_SDK/GD32VW55x_RELEASE_V1.0.2/MSDK/wpa_supplicant/src/utils\os_gdwifi.c **** {
 195:C:/Users/stapi/OneDrive/Desktop/GD32VW553/V1_MQTT_OK/GD32VW55X_Wifi_BLE_SDK/GD32VW55x_RELEASE_V1.0.2/MSDK/wpa_supplicant/src/utils\os_gdwifi.c ****     void *r = os_malloc(len);
 196:C:/Users/stapi/OneDrive/Desktop/GD32VW553/V1_MQTT_OK/GD32VW55X_Wifi_BLE_SDK/GD32VW55x_RELEASE_V1.0.2/MSDK/wpa_supplicant/src/utils\os_gdwifi.c **** 
 197:C:/Users/stapi/OneDrive/Desktop/GD32VW553/V1_MQTT_OK/GD32VW55X_Wifi_BLE_SDK/GD32VW55x_RELEASE_V1.0.2/MSDK/wpa_supplicant/src/utils\os_gdwifi.c ****     if (r)
 198:C:/Users/stapi/OneDrive/Desktop/GD32VW553/V1_MQTT_OK/GD32VW55X_Wifi_BLE_SDK/GD32VW55x_RELEASE_V1.0.2/MSDK/wpa_supplicant/src/utils\os_gdwifi.c ****         os_memcpy(r, src, len);
 199:C:/Users/stapi/OneDrive/Desktop/GD32VW553/V1_MQTT_OK/GD32VW55X_Wifi_BLE_SDK/GD32VW55x_RELEASE_V1.0.2/MSDK/wpa_supplicant/src/utils\os_gdwifi.c ****     return r;
 200:C:/Users/stapi/OneDrive/Desktop/GD32VW553/V1_MQTT_OK/GD32VW55X_Wifi_BLE_SDK/GD32VW55x_RELEASE_V1.0.2/MSDK/wpa_supplicant/src/utils\os_gdwifi.c **** }
 201:C:/Users/stapi/OneDrive/Desktop/GD32VW553/V1_MQTT_OK/GD32VW55X_Wifi_BLE_SDK/GD32VW55x_RELEASE_V1.0.2/MSDK/wpa_supplicant/src/utils\os_gdwifi.c **** 
 202:C:/Users/stapi/OneDrive/Desktop/GD32VW553/V1_MQTT_OK/GD32VW55X_Wifi_BLE_SDK/GD32VW55x_RELEASE_V1.0.2/MSDK/wpa_supplicant/src/utils\os_gdwifi.c **** void * os_realloc(void *ptr, size_t size)
 203:C:/Users/stapi/OneDrive/Desktop/GD32VW553/V1_MQTT_OK/GD32VW55X_Wifi_BLE_SDK/GD32VW55x_RELEASE_V1.0.2/MSDK/wpa_supplicant/src/utils\os_gdwifi.c **** {
 693              		.loc 1 203 1 is_stmt 1
 694              		.cfi_startproc
 695              	.LVL63:
 204:C:/Users/stapi/OneDrive/Desktop/GD32VW553/V1_MQTT_OK/GD32VW55X_Wifi_BLE_SDK/GD32VW55x_RELEASE_V1.0.2/MSDK/wpa_supplicant/src/utils\os_gdwifi.c **** #ifdef CONFIG_GDWIFI
 205:C:/Users/stapi/OneDrive/Desktop/GD32VW553/V1_MQTT_OK/GD32VW55X_Wifi_BLE_SDK/GD32VW55x_RELEASE_V1.0.2/MSDK/wpa_supplicant/src/utils\os_gdwifi.c **** 	return sys_realloc(ptr, size);
 696              		.loc 1 205 2
 697              		.loc 1 205 9 is_stmt 0
 698 0000 17030000 		tail	sys_realloc
 698      67000300 
 699              	.LVL64:
 700              		.cfi_endproc
 701              	.LFE90:
 703              		.section	.text.os_free,"ax",@progbits
 704              		.align	1
 705              		.globl	os_free
 707              	os_free:
 708              	.LFB91:
 206:C:/Users/stapi/OneDrive/Desktop/GD32VW553/V1_MQTT_OK/GD32VW55X_Wifi_BLE_SDK/GD32VW55x_RELEASE_V1.0.2/MSDK/wpa_supplicant/src/utils\os_gdwifi.c **** #else
 207:C:/Users/stapi/OneDrive/Desktop/GD32VW553/V1_MQTT_OK/GD32VW55X_Wifi_BLE_SDK/GD32VW55x_RELEASE_V1.0.2/MSDK/wpa_supplicant/src/utils\os_gdwifi.c **** 	void *res;
 208:C:/Users/stapi/OneDrive/Desktop/GD32VW553/V1_MQTT_OK/GD32VW55X_Wifi_BLE_SDK/GD32VW55x_RELEASE_V1.0.2/MSDK/wpa_supplicant/src/utils\os_gdwifi.c **** 
 209:C:/Users/stapi/OneDrive/Desktop/GD32VW553/V1_MQTT_OK/GD32VW55X_Wifi_BLE_SDK/GD32VW55x_RELEASE_V1.0.2/MSDK/wpa_supplicant/src/utils\os_gdwifi.c **** 	if (!ptr)
 210:C:/Users/stapi/OneDrive/Desktop/GD32VW553/V1_MQTT_OK/GD32VW55X_Wifi_BLE_SDK/GD32VW55x_RELEASE_V1.0.2/MSDK/wpa_supplicant/src/utils\os_gdwifi.c **** 		return os_malloc(size);
 211:C:/Users/stapi/OneDrive/Desktop/GD32VW553/V1_MQTT_OK/GD32VW55X_Wifi_BLE_SDK/GD32VW55x_RELEASE_V1.0.2/MSDK/wpa_supplicant/src/utils\os_gdwifi.c **** 
 212:C:/Users/stapi/OneDrive/Desktop/GD32VW553/V1_MQTT_OK/GD32VW55X_Wifi_BLE_SDK/GD32VW55x_RELEASE_V1.0.2/MSDK/wpa_supplicant/src/utils\os_gdwifi.c **** 	if (!size) {
 213:C:/Users/stapi/OneDrive/Desktop/GD32VW553/V1_MQTT_OK/GD32VW55X_Wifi_BLE_SDK/GD32VW55x_RELEASE_V1.0.2/MSDK/wpa_supplicant/src/utils\os_gdwifi.c **** 		os_free(ptr);
 214:C:/Users/stapi/OneDrive/Desktop/GD32VW553/V1_MQTT_OK/GD32VW55X_Wifi_BLE_SDK/GD32VW55x_RELEASE_V1.0.2/MSDK/wpa_supplicant/src/utils\os_gdwifi.c **** 		return NULL;
 215:C:/Users/stapi/OneDrive/Desktop/GD32VW553/V1_MQTT_OK/GD32VW55X_Wifi_BLE_SDK/GD32VW55x_RELEASE_V1.0.2/MSDK/wpa_supplicant/src/utils\os_gdwifi.c **** 	}
 216:C:/Users/stapi/OneDrive/Desktop/GD32VW553/V1_MQTT_OK/GD32VW55X_Wifi_BLE_SDK/GD32VW55x_RELEASE_V1.0.2/MSDK/wpa_supplicant/src/utils\os_gdwifi.c **** 
 217:C:/Users/stapi/OneDrive/Desktop/GD32VW553/V1_MQTT_OK/GD32VW55X_Wifi_BLE_SDK/GD32VW55x_RELEASE_V1.0.2/MSDK/wpa_supplicant/src/utils\os_gdwifi.c **** 	res = os_malloc(size);
 218:C:/Users/stapi/OneDrive/Desktop/GD32VW553/V1_MQTT_OK/GD32VW55X_Wifi_BLE_SDK/GD32VW55x_RELEASE_V1.0.2/MSDK/wpa_supplicant/src/utils\os_gdwifi.c **** 
 219:C:/Users/stapi/OneDrive/Desktop/GD32VW553/V1_MQTT_OK/GD32VW55X_Wifi_BLE_SDK/GD32VW55x_RELEASE_V1.0.2/MSDK/wpa_supplicant/src/utils\os_gdwifi.c **** #if WIFI_PLF == GD32VW55X
 220:C:/Users/stapi/OneDrive/Desktop/GD32VW553/V1_MQTT_OK/GD32VW55X_Wifi_BLE_SDK/GD32VW55x_RELEASE_V1.0.2/MSDK/wpa_supplicant/src/utils\os_gdwifi.c **** 	if (res) {
 221:C:/Users/stapi/OneDrive/Desktop/GD32VW553/V1_MQTT_OK/GD32VW55X_Wifi_BLE_SDK/GD32VW55x_RELEASE_V1.0.2/MSDK/wpa_supplicant/src/utils\os_gdwifi.c **** 		os_memcpy(res, ptr, size);
 222:C:/Users/stapi/OneDrive/Desktop/GD32VW553/V1_MQTT_OK/GD32VW55X_Wifi_BLE_SDK/GD32VW55x_RELEASE_V1.0.2/MSDK/wpa_supplicant/src/utils\os_gdwifi.c **** 		os_free(ptr);
 223:C:/Users/stapi/OneDrive/Desktop/GD32VW553/V1_MQTT_OK/GD32VW55X_Wifi_BLE_SDK/GD32VW55x_RELEASE_V1.0.2/MSDK/wpa_supplicant/src/utils\os_gdwifi.c **** 	}
 224:C:/Users/stapi/OneDrive/Desktop/GD32VW553/V1_MQTT_OK/GD32VW55X_Wifi_BLE_SDK/GD32VW55x_RELEASE_V1.0.2/MSDK/wpa_supplicant/src/utils\os_gdwifi.c **** #else
 225:C:/Users/stapi/OneDrive/Desktop/GD32VW553/V1_MQTT_OK/GD32VW55X_Wifi_BLE_SDK/GD32VW55x_RELEASE_V1.0.2/MSDK/wpa_supplicant/src/utils\os_gdwifi.c **** 	if (size)
 226:C:/Users/stapi/OneDrive/Desktop/GD32VW553/V1_MQTT_OK/GD32VW55X_Wifi_BLE_SDK/GD32VW55x_RELEASE_V1.0.2/MSDK/wpa_supplicant/src/utils\os_gdwifi.c **** 		os_memcpy(res, ptr, size);
 227:C:/Users/stapi/OneDrive/Desktop/GD32VW553/V1_MQTT_OK/GD32VW55X_Wifi_BLE_SDK/GD32VW55x_RELEASE_V1.0.2/MSDK/wpa_supplicant/src/utils\os_gdwifi.c **** 	os_free(ptr);
 228:C:/Users/stapi/OneDrive/Desktop/GD32VW553/V1_MQTT_OK/GD32VW55X_Wifi_BLE_SDK/GD32VW55x_RELEASE_V1.0.2/MSDK/wpa_supplicant/src/utils\os_gdwifi.c **** #endif
 229:C:/Users/stapi/OneDrive/Desktop/GD32VW553/V1_MQTT_OK/GD32VW55X_Wifi_BLE_SDK/GD32VW55x_RELEASE_V1.0.2/MSDK/wpa_supplicant/src/utils\os_gdwifi.c **** 
 230:C:/Users/stapi/OneDrive/Desktop/GD32VW553/V1_MQTT_OK/GD32VW55X_Wifi_BLE_SDK/GD32VW55x_RELEASE_V1.0.2/MSDK/wpa_supplicant/src/utils\os_gdwifi.c **** 	return res;
 231:C:/Users/stapi/OneDrive/Desktop/GD32VW553/V1_MQTT_OK/GD32VW55X_Wifi_BLE_SDK/GD32VW55x_RELEASE_V1.0.2/MSDK/wpa_supplicant/src/utils\os_gdwifi.c **** #endif
 232:C:/Users/stapi/OneDrive/Desktop/GD32VW553/V1_MQTT_OK/GD32VW55X_Wifi_BLE_SDK/GD32VW55x_RELEASE_V1.0.2/MSDK/wpa_supplicant/src/utils\os_gdwifi.c **** }
 233:C:/Users/stapi/OneDrive/Desktop/GD32VW553/V1_MQTT_OK/GD32VW55X_Wifi_BLE_SDK/GD32VW55x_RELEASE_V1.0.2/MSDK/wpa_supplicant/src/utils\os_gdwifi.c **** 
 234:C:/Users/stapi/OneDrive/Desktop/GD32VW553/V1_MQTT_OK/GD32VW55X_Wifi_BLE_SDK/GD32VW55x_RELEASE_V1.0.2/MSDK/wpa_supplicant/src/utils\os_gdwifi.c **** 
 235:C:/Users/stapi/OneDrive/Desktop/GD32VW553/V1_MQTT_OK/GD32VW55X_Wifi_BLE_SDK/GD32VW55x_RELEASE_V1.0.2/MSDK/wpa_supplicant/src/utils\os_gdwifi.c **** void os_free(void *ptr)
 236:C:/Users/stapi/OneDrive/Desktop/GD32VW553/V1_MQTT_OK/GD32VW55X_Wifi_BLE_SDK/GD32VW55x_RELEASE_V1.0.2/MSDK/wpa_supplicant/src/utils\os_gdwifi.c **** {
 709              		.loc 1 236 1 is_stmt 1
 710              		.cfi_startproc
 711              	.LVL65:
 237:C:/Users/stapi/OneDrive/Desktop/GD32VW553/V1_MQTT_OK/GD32VW55X_Wifi_BLE_SDK/GD32VW55x_RELEASE_V1.0.2/MSDK/wpa_supplicant/src/utils\os_gdwifi.c **** 	if (ptr == NULL)
 712              		.loc 1 237 2
 713              		.loc 1 237 5 is_stmt 0
 714 0000 09C5     		beq	a0,zero,.L48
 238:C:/Users/stapi/OneDrive/Desktop/GD32VW553/V1_MQTT_OK/GD32VW55X_Wifi_BLE_SDK/GD32VW55x_RELEASE_V1.0.2/MSDK/wpa_supplicant/src/utils\os_gdwifi.c **** 		return;
 239:C:/Users/stapi/OneDrive/Desktop/GD32VW553/V1_MQTT_OK/GD32VW55X_Wifi_BLE_SDK/GD32VW55x_RELEASE_V1.0.2/MSDK/wpa_supplicant/src/utils\os_gdwifi.c **** 	sys_mfree(ptr);
 715              		.loc 1 239 2 is_stmt 1
 716 0002 17030000 		tail	sys_mfree
 716      67000300 
 717              	.LVL66:
 718              	.L48:
 719 000a 8280     		ret
 720              		.cfi_endproc
 721              	.LFE91:
 723              		.section	.text.os_memcpy,"ax",@progbits
 724              		.align	1
 725              		.globl	os_memcpy
 727              	os_memcpy:
 728              	.LFB92:
 240:C:/Users/stapi/OneDrive/Desktop/GD32VW553/V1_MQTT_OK/GD32VW55X_Wifi_BLE_SDK/GD32VW55x_RELEASE_V1.0.2/MSDK/wpa_supplicant/src/utils\os_gdwifi.c **** }
 241:C:/Users/stapi/OneDrive/Desktop/GD32VW553/V1_MQTT_OK/GD32VW55X_Wifi_BLE_SDK/GD32VW55x_RELEASE_V1.0.2/MSDK/wpa_supplicant/src/utils\os_gdwifi.c **** 
 242:C:/Users/stapi/OneDrive/Desktop/GD32VW553/V1_MQTT_OK/GD32VW55X_Wifi_BLE_SDK/GD32VW55x_RELEASE_V1.0.2/MSDK/wpa_supplicant/src/utils\os_gdwifi.c **** 
 243:C:/Users/stapi/OneDrive/Desktop/GD32VW553/V1_MQTT_OK/GD32VW55X_Wifi_BLE_SDK/GD32VW55x_RELEASE_V1.0.2/MSDK/wpa_supplicant/src/utils\os_gdwifi.c **** void * os_memcpy(void *dest, const void *src, size_t n)
 244:C:/Users/stapi/OneDrive/Desktop/GD32VW553/V1_MQTT_OK/GD32VW55X_Wifi_BLE_SDK/GD32VW55x_RELEASE_V1.0.2/MSDK/wpa_supplicant/src/utils\os_gdwifi.c **** {
 729              		.loc 1 244 1
 730              		.cfi_startproc
 731              	.LVL67:
 245:C:/Users/stapi/OneDrive/Desktop/GD32VW553/V1_MQTT_OK/GD32VW55X_Wifi_BLE_SDK/GD32VW55x_RELEASE_V1.0.2/MSDK/wpa_supplicant/src/utils\os_gdwifi.c **** 	return memcpy(dest, src, n);
 732              		.loc 1 245 2
 733              		.loc 1 245 9 is_stmt 0
 734 0000 17030000 		tail	memcpy
 734      67000300 
 735              	.LVL68:
 736              		.cfi_endproc
 737              	.LFE92:
 739              		.section	.text.os_memdup,"ax",@progbits
 740              		.align	1
 741              		.globl	os_memdup
 743              	os_memdup:
 744              	.LFB89:
 194:C:/Users/stapi/OneDrive/Desktop/GD32VW553/V1_MQTT_OK/GD32VW55X_Wifi_BLE_SDK/GD32VW55x_RELEASE_V1.0.2/MSDK/wpa_supplicant/src/utils\os_gdwifi.c ****     void *r = os_malloc(len);
 745              		.loc 1 194 1 is_stmt 1
 746              		.cfi_startproc
 747              	.LVL69:
 748 0000 17030000 		call	t0,__riscv_save_2
 748      E7020300 
 749              		.cfi_offset 9, -12
 750              		.cfi_offset 8, -8
 751              		.cfi_offset 1, -4
 752              		.cfi_def_cfa_offset 16
 195:C:/Users/stapi/OneDrive/Desktop/GD32VW553/V1_MQTT_OK/GD32VW55X_Wifi_BLE_SDK/GD32VW55x_RELEASE_V1.0.2/MSDK/wpa_supplicant/src/utils\os_gdwifi.c **** 
 753              		.loc 1 195 5
 754              	.LBB14:
 755              	.LBB15:
 190:C:/Users/stapi/OneDrive/Desktop/GD32VW553/V1_MQTT_OK/GD32VW55X_Wifi_BLE_SDK/GD32VW55x_RELEASE_V1.0.2/MSDK/wpa_supplicant/src/utils\os_gdwifi.c **** }
 756              		.loc 1 190 2
 757              	.LBE15:
 758              	.LBE14:
 194:C:/Users/stapi/OneDrive/Desktop/GD32VW553/V1_MQTT_OK/GD32VW55X_Wifi_BLE_SDK/GD32VW55x_RELEASE_V1.0.2/MSDK/wpa_supplicant/src/utils\os_gdwifi.c ****     void *r = os_malloc(len);
 759              		.loc 1 194 1 is_stmt 0
 760 0008 4111     		addi	sp,sp,-16
 761              		.cfi_def_cfa_offset 32
 194:C:/Users/stapi/OneDrive/Desktop/GD32VW553/V1_MQTT_OK/GD32VW55X_Wifi_BLE_SDK/GD32VW55x_RELEASE_V1.0.2/MSDK/wpa_supplicant/src/utils\os_gdwifi.c ****     void *r = os_malloc(len);
 762              		.loc 1 194 1
 763 000a AA84     		mv	s1,a0
 764              	.LBB17:
 765              	.LBB16:
 190:C:/Users/stapi/OneDrive/Desktop/GD32VW553/V1_MQTT_OK/GD32VW55X_Wifi_BLE_SDK/GD32VW55x_RELEASE_V1.0.2/MSDK/wpa_supplicant/src/utils\os_gdwifi.c **** }
 766              		.loc 1 190 9
 767 000c 2E85     		mv	a0,a1
 768              	.LVL70:
 769 000e 2EC6     		sw	a1,12(sp)
 770 0010 97000000 		call	sys_malloc
 770      E7800000 
 771              	.LVL71:
 772 0018 2A84     		mv	s0,a0
 773              	.LVL72:
 774              	.LBE16:
 775              	.LBE17:
 197:C:/Users/stapi/OneDrive/Desktop/GD32VW553/V1_MQTT_OK/GD32VW55X_Wifi_BLE_SDK/GD32VW55x_RELEASE_V1.0.2/MSDK/wpa_supplicant/src/utils\os_gdwifi.c ****         os_memcpy(r, src, len);
 776              		.loc 1 197 5 is_stmt 1
 197:C:/Users/stapi/OneDrive/Desktop/GD32VW553/V1_MQTT_OK/GD32VW55X_Wifi_BLE_SDK/GD32VW55x_RELEASE_V1.0.2/MSDK/wpa_supplicant/src/utils\os_gdwifi.c ****         os_memcpy(r, src, len);
 777              		.loc 1 197 8 is_stmt 0
 778 001a 19C5     		beq	a0,zero,.L53
 198:C:/Users/stapi/OneDrive/Desktop/GD32VW553/V1_MQTT_OK/GD32VW55X_Wifi_BLE_SDK/GD32VW55x_RELEASE_V1.0.2/MSDK/wpa_supplicant/src/utils\os_gdwifi.c ****     return r;
 779              		.loc 1 198 9 is_stmt 1
 780 001c 3246     		lw	a2,12(sp)
 781 001e A685     		mv	a1,s1
 782 0020 97000000 		call	os_memcpy
 782      E7800000 
 783              	.LVL73:
 199:C:/Users/stapi/OneDrive/Desktop/GD32VW553/V1_MQTT_OK/GD32VW55X_Wifi_BLE_SDK/GD32VW55x_RELEASE_V1.0.2/MSDK/wpa_supplicant/src/utils\os_gdwifi.c **** }
 784              		.loc 1 199 5
 785              	.L53:
 200:C:/Users/stapi/OneDrive/Desktop/GD32VW553/V1_MQTT_OK/GD32VW55X_Wifi_BLE_SDK/GD32VW55x_RELEASE_V1.0.2/MSDK/wpa_supplicant/src/utils\os_gdwifi.c **** 
 786              		.loc 1 200 1 is_stmt 0
 787 0028 2285     		mv	a0,s0
 788 002a 4101     		addi	sp,sp,16
 789              		.cfi_def_cfa_offset 0
 790              	.LVL74:
 791 002c 17030000 		tail	__riscv_restore_2
 791      67000300 
 792              		.cfi_restore 9
 793              		.cfi_restore 8
 794              		.cfi_restore 1
 795              		.cfi_def_cfa_offset -16
 796              		.cfi_endproc
 797              	.LFE89:
 799              		.section	.text.os_memmove,"ax",@progbits
 800              		.align	1
 801              		.globl	os_memmove
 803              	os_memmove:
 804              	.LFB93:
 246:C:/Users/stapi/OneDrive/Desktop/GD32VW553/V1_MQTT_OK/GD32VW55X_Wifi_BLE_SDK/GD32VW55x_RELEASE_V1.0.2/MSDK/wpa_supplicant/src/utils\os_gdwifi.c **** }
 247:C:/Users/stapi/OneDrive/Desktop/GD32VW553/V1_MQTT_OK/GD32VW55X_Wifi_BLE_SDK/GD32VW55x_RELEASE_V1.0.2/MSDK/wpa_supplicant/src/utils\os_gdwifi.c **** 
 248:C:/Users/stapi/OneDrive/Desktop/GD32VW553/V1_MQTT_OK/GD32VW55X_Wifi_BLE_SDK/GD32VW55x_RELEASE_V1.0.2/MSDK/wpa_supplicant/src/utils\os_gdwifi.c **** 
 249:C:/Users/stapi/OneDrive/Desktop/GD32VW553/V1_MQTT_OK/GD32VW55X_Wifi_BLE_SDK/GD32VW55x_RELEASE_V1.0.2/MSDK/wpa_supplicant/src/utils\os_gdwifi.c **** void * os_memmove(void *dest, const void *src, size_t n)
 250:C:/Users/stapi/OneDrive/Desktop/GD32VW553/V1_MQTT_OK/GD32VW55X_Wifi_BLE_SDK/GD32VW55x_RELEASE_V1.0.2/MSDK/wpa_supplicant/src/utils\os_gdwifi.c **** {
 805              		.loc 1 250 1 is_stmt 1
 806              		.cfi_startproc
 807              	.LVL75:
 251:C:/Users/stapi/OneDrive/Desktop/GD32VW553/V1_MQTT_OK/GD32VW55X_Wifi_BLE_SDK/GD32VW55x_RELEASE_V1.0.2/MSDK/wpa_supplicant/src/utils\os_gdwifi.c **** 	return memmove(dest, src, n);
 808              		.loc 1 251 2
 809              		.loc 1 251 9 is_stmt 0
 810 0000 17030000 		tail	memmove
 810      67000300 
 811              	.LVL76:
 812              		.cfi_endproc
 813              	.LFE93:
 815              		.section	.text.os_memset,"ax",@progbits
 816              		.align	1
 817              		.globl	os_memset
 819              	os_memset:
 820              	.LFB94:
 252:C:/Users/stapi/OneDrive/Desktop/GD32VW553/V1_MQTT_OK/GD32VW55X_Wifi_BLE_SDK/GD32VW55x_RELEASE_V1.0.2/MSDK/wpa_supplicant/src/utils\os_gdwifi.c **** }
 253:C:/Users/stapi/OneDrive/Desktop/GD32VW553/V1_MQTT_OK/GD32VW55X_Wifi_BLE_SDK/GD32VW55x_RELEASE_V1.0.2/MSDK/wpa_supplicant/src/utils\os_gdwifi.c **** 
 254:C:/Users/stapi/OneDrive/Desktop/GD32VW553/V1_MQTT_OK/GD32VW55X_Wifi_BLE_SDK/GD32VW55x_RELEASE_V1.0.2/MSDK/wpa_supplicant/src/utils\os_gdwifi.c **** 
 255:C:/Users/stapi/OneDrive/Desktop/GD32VW553/V1_MQTT_OK/GD32VW55X_Wifi_BLE_SDK/GD32VW55x_RELEASE_V1.0.2/MSDK/wpa_supplicant/src/utils\os_gdwifi.c **** void * os_memset(void *s, int c, size_t n)
 256:C:/Users/stapi/OneDrive/Desktop/GD32VW553/V1_MQTT_OK/GD32VW55X_Wifi_BLE_SDK/GD32VW55x_RELEASE_V1.0.2/MSDK/wpa_supplicant/src/utils\os_gdwifi.c **** {
 821              		.loc 1 256 1 is_stmt 1
 822              		.cfi_startproc
 823              	.LVL77:
 257:C:/Users/stapi/OneDrive/Desktop/GD32VW553/V1_MQTT_OK/GD32VW55X_Wifi_BLE_SDK/GD32VW55x_RELEASE_V1.0.2/MSDK/wpa_supplicant/src/utils\os_gdwifi.c **** 	return memset(s, c, n);
 824              		.loc 1 257 2
 825              		.loc 1 257 9 is_stmt 0
 826 0000 17030000 		tail	memset
 826      67000300 
 827              	.LVL78:
 828              		.cfi_endproc
 829              	.LFE94:
 831              		.section	.text.os_zalloc,"ax",@progbits
 832              		.align	1
 833              		.globl	os_zalloc
 835              	os_zalloc:
 836              	.LFB87:
 178:C:/Users/stapi/OneDrive/Desktop/GD32VW553/V1_MQTT_OK/GD32VW55X_Wifi_BLE_SDK/GD32VW55x_RELEASE_V1.0.2/MSDK/wpa_supplicant/src/utils\os_gdwifi.c **** 	void * ptr = os_malloc(size);
 837              		.loc 1 178 1 is_stmt 1
 838              		.cfi_startproc
 839              	.LVL79:
 840 0000 17030000 		call	t0,__riscv_save_1
 840      E7020300 
 841              		.cfi_offset 8, -8
 842              		.cfi_offset 1, -4
 843              		.cfi_def_cfa_offset 16
 179:C:/Users/stapi/OneDrive/Desktop/GD32VW553/V1_MQTT_OK/GD32VW55X_Wifi_BLE_SDK/GD32VW55x_RELEASE_V1.0.2/MSDK/wpa_supplicant/src/utils\os_gdwifi.c **** 	if (ptr) {
 844              		.loc 1 179 2
 178:C:/Users/stapi/OneDrive/Desktop/GD32VW553/V1_MQTT_OK/GD32VW55X_Wifi_BLE_SDK/GD32VW55x_RELEASE_V1.0.2/MSDK/wpa_supplicant/src/utils\os_gdwifi.c **** 	void * ptr = os_malloc(size);
 845              		.loc 1 178 1 is_stmt 0
 846 0008 4111     		addi	sp,sp,-16
 847              		.cfi_def_cfa_offset 32
 848              	.LVL80:
 849              	.LBB18:
 850              	.LBB19:
 190:C:/Users/stapi/OneDrive/Desktop/GD32VW553/V1_MQTT_OK/GD32VW55X_Wifi_BLE_SDK/GD32VW55x_RELEASE_V1.0.2/MSDK/wpa_supplicant/src/utils\os_gdwifi.c **** }
 851              		.loc 1 190 2 is_stmt 1
 852              	.LBE19:
 853              	.LBE18:
 178:C:/Users/stapi/OneDrive/Desktop/GD32VW553/V1_MQTT_OK/GD32VW55X_Wifi_BLE_SDK/GD32VW55x_RELEASE_V1.0.2/MSDK/wpa_supplicant/src/utils\os_gdwifi.c **** 	void * ptr = os_malloc(size);
 854              		.loc 1 178 1 is_stmt 0
 855 000a 2AC6     		sw	a0,12(sp)
 856              	.LVL81:
 857              	.LBB21:
 858              	.LBB20:
 190:C:/Users/stapi/OneDrive/Desktop/GD32VW553/V1_MQTT_OK/GD32VW55X_Wifi_BLE_SDK/GD32VW55x_RELEASE_V1.0.2/MSDK/wpa_supplicant/src/utils\os_gdwifi.c **** }
 859              		.loc 1 190 9
 860 000c 97000000 		call	sys_malloc
 860      E7800000 
 861              	.LVL82:
 862 0014 2A84     		mv	s0,a0
 863              	.LVL83:
 864              	.LBE20:
 865              	.LBE21:
 180:C:/Users/stapi/OneDrive/Desktop/GD32VW553/V1_MQTT_OK/GD32VW55X_Wifi_BLE_SDK/GD32VW55x_RELEASE_V1.0.2/MSDK/wpa_supplicant/src/utils\os_gdwifi.c **** 		os_memset(ptr, 0, size);
 866              		.loc 1 180 2 is_stmt 1
 180:C:/Users/stapi/OneDrive/Desktop/GD32VW553/V1_MQTT_OK/GD32VW55X_Wifi_BLE_SDK/GD32VW55x_RELEASE_V1.0.2/MSDK/wpa_supplicant/src/utils\os_gdwifi.c **** 		os_memset(ptr, 0, size);
 867              		.loc 1 180 5 is_stmt 0
 868 0016 19C5     		beq	a0,zero,.L63
 181:C:/Users/stapi/OneDrive/Desktop/GD32VW553/V1_MQTT_OK/GD32VW55X_Wifi_BLE_SDK/GD32VW55x_RELEASE_V1.0.2/MSDK/wpa_supplicant/src/utils\os_gdwifi.c **** 	}
 869              		.loc 1 181 3 is_stmt 1
 870 0018 3246     		lw	a2,12(sp)
 871 001a 8145     		li	a1,0
 872 001c 97000000 		call	os_memset
 872      E7800000 
 873              	.LVL84:
 183:C:/Users/stapi/OneDrive/Desktop/GD32VW553/V1_MQTT_OK/GD32VW55X_Wifi_BLE_SDK/GD32VW55x_RELEASE_V1.0.2/MSDK/wpa_supplicant/src/utils\os_gdwifi.c **** }
 874              		.loc 1 183 2
 875              	.L63:
 184:C:/Users/stapi/OneDrive/Desktop/GD32VW553/V1_MQTT_OK/GD32VW55X_Wifi_BLE_SDK/GD32VW55x_RELEASE_V1.0.2/MSDK/wpa_supplicant/src/utils\os_gdwifi.c **** 
 876              		.loc 1 184 1 is_stmt 0
 877 0024 2285     		mv	a0,s0
 878 0026 4101     		addi	sp,sp,16
 879              		.cfi_def_cfa_offset 0
 880              	.LVL85:
 881 0028 17030000 		tail	__riscv_restore_1
 881      67000300 
 882              		.cfi_restore 8
 883              		.cfi_restore 1
 884              		.cfi_def_cfa_offset -16
 885              		.cfi_endproc
 886              	.LFE87:
 888              		.section	.text.os_memcmp,"ax",@progbits
 889              		.align	1
 890              		.globl	os_memcmp
 892              	os_memcmp:
 893              	.LFB95:
 258:C:/Users/stapi/OneDrive/Desktop/GD32VW553/V1_MQTT_OK/GD32VW55X_Wifi_BLE_SDK/GD32VW55x_RELEASE_V1.0.2/MSDK/wpa_supplicant/src/utils\os_gdwifi.c **** }
 259:C:/Users/stapi/OneDrive/Desktop/GD32VW553/V1_MQTT_OK/GD32VW55X_Wifi_BLE_SDK/GD32VW55x_RELEASE_V1.0.2/MSDK/wpa_supplicant/src/utils\os_gdwifi.c **** 
 260:C:/Users/stapi/OneDrive/Desktop/GD32VW553/V1_MQTT_OK/GD32VW55X_Wifi_BLE_SDK/GD32VW55x_RELEASE_V1.0.2/MSDK/wpa_supplicant/src/utils\os_gdwifi.c **** 
 261:C:/Users/stapi/OneDrive/Desktop/GD32VW553/V1_MQTT_OK/GD32VW55X_Wifi_BLE_SDK/GD32VW55x_RELEASE_V1.0.2/MSDK/wpa_supplicant/src/utils\os_gdwifi.c **** int os_memcmp(const void *s1, const void *s2, size_t n)
 262:C:/Users/stapi/OneDrive/Desktop/GD32VW553/V1_MQTT_OK/GD32VW55X_Wifi_BLE_SDK/GD32VW55x_RELEASE_V1.0.2/MSDK/wpa_supplicant/src/utils\os_gdwifi.c **** {
 894              		.loc 1 262 1 is_stmt 1
 895              		.cfi_startproc
 896              	.LVL86:
 263:C:/Users/stapi/OneDrive/Desktop/GD32VW553/V1_MQTT_OK/GD32VW55X_Wifi_BLE_SDK/GD32VW55x_RELEASE_V1.0.2/MSDK/wpa_supplicant/src/utils\os_gdwifi.c **** #ifdef CONFIG_GDWIFI
 264:C:/Users/stapi/OneDrive/Desktop/GD32VW553/V1_MQTT_OK/GD32VW55X_Wifi_BLE_SDK/GD32VW55x_RELEASE_V1.0.2/MSDK/wpa_supplicant/src/utils\os_gdwifi.c **** 	return sys_memcmp(s1, s2, n);
 897              		.loc 1 264 2
 898              		.loc 1 264 9 is_stmt 0
 899 0000 17030000 		tail	sys_memcmp
 899      67000300 
 900              	.LVL87:
 901              		.cfi_endproc
 902              	.LFE95:
 904              		.section	.text.os_strdup,"ax",@progbits
 905              		.align	1
 906              		.globl	os_strdup
 908              	os_strdup:
 909              	.LFB96:
 265:C:/Users/stapi/OneDrive/Desktop/GD32VW553/V1_MQTT_OK/GD32VW55X_Wifi_BLE_SDK/GD32VW55x_RELEASE_V1.0.2/MSDK/wpa_supplicant/src/utils\os_gdwifi.c **** #else
 266:C:/Users/stapi/OneDrive/Desktop/GD32VW553/V1_MQTT_OK/GD32VW55X_Wifi_BLE_SDK/GD32VW55x_RELEASE_V1.0.2/MSDK/wpa_supplicant/src/utils\os_gdwifi.c **** 	const uint8_t *ptr1=s1, *ptr2=s2;
 267:C:/Users/stapi/OneDrive/Desktop/GD32VW553/V1_MQTT_OK/GD32VW55X_Wifi_BLE_SDK/GD32VW55x_RELEASE_V1.0.2/MSDK/wpa_supplicant/src/utils\os_gdwifi.c **** 
 268:C:/Users/stapi/OneDrive/Desktop/GD32VW553/V1_MQTT_OK/GD32VW55X_Wifi_BLE_SDK/GD32VW55x_RELEASE_V1.0.2/MSDK/wpa_supplicant/src/utils\os_gdwifi.c **** 	while(n) {
 269:C:/Users/stapi/OneDrive/Desktop/GD32VW553/V1_MQTT_OK/GD32VW55X_Wifi_BLE_SDK/GD32VW55x_RELEASE_V1.0.2/MSDK/wpa_supplicant/src/utils\os_gdwifi.c **** 		int diff = (*ptr1++ - *ptr2++);
 270:C:/Users/stapi/OneDrive/Desktop/GD32VW553/V1_MQTT_OK/GD32VW55X_Wifi_BLE_SDK/GD32VW55x_RELEASE_V1.0.2/MSDK/wpa_supplicant/src/utils\os_gdwifi.c **** 		if (diff)
 271:C:/Users/stapi/OneDrive/Desktop/GD32VW553/V1_MQTT_OK/GD32VW55X_Wifi_BLE_SDK/GD32VW55x_RELEASE_V1.0.2/MSDK/wpa_supplicant/src/utils\os_gdwifi.c **** 			return diff;
 272:C:/Users/stapi/OneDrive/Desktop/GD32VW553/V1_MQTT_OK/GD32VW55X_Wifi_BLE_SDK/GD32VW55x_RELEASE_V1.0.2/MSDK/wpa_supplicant/src/utils\os_gdwifi.c **** 		n--;
 273:C:/Users/stapi/OneDrive/Desktop/GD32VW553/V1_MQTT_OK/GD32VW55X_Wifi_BLE_SDK/GD32VW55x_RELEASE_V1.0.2/MSDK/wpa_supplicant/src/utils\os_gdwifi.c **** 	}
 274:C:/Users/stapi/OneDrive/Desktop/GD32VW553/V1_MQTT_OK/GD32VW55X_Wifi_BLE_SDK/GD32VW55x_RELEASE_V1.0.2/MSDK/wpa_supplicant/src/utils\os_gdwifi.c **** 
 275:C:/Users/stapi/OneDrive/Desktop/GD32VW553/V1_MQTT_OK/GD32VW55X_Wifi_BLE_SDK/GD32VW55x_RELEASE_V1.0.2/MSDK/wpa_supplicant/src/utils\os_gdwifi.c **** 	return 0;
 276:C:/Users/stapi/OneDrive/Desktop/GD32VW553/V1_MQTT_OK/GD32VW55X_Wifi_BLE_SDK/GD32VW55x_RELEASE_V1.0.2/MSDK/wpa_supplicant/src/utils\os_gdwifi.c **** #endif
 277:C:/Users/stapi/OneDrive/Desktop/GD32VW553/V1_MQTT_OK/GD32VW55X_Wifi_BLE_SDK/GD32VW55x_RELEASE_V1.0.2/MSDK/wpa_supplicant/src/utils\os_gdwifi.c **** }
 278:C:/Users/stapi/OneDrive/Desktop/GD32VW553/V1_MQTT_OK/GD32VW55X_Wifi_BLE_SDK/GD32VW55x_RELEASE_V1.0.2/MSDK/wpa_supplicant/src/utils\os_gdwifi.c **** 
 279:C:/Users/stapi/OneDrive/Desktop/GD32VW553/V1_MQTT_OK/GD32VW55X_Wifi_BLE_SDK/GD32VW55x_RELEASE_V1.0.2/MSDK/wpa_supplicant/src/utils\os_gdwifi.c **** 
 280:C:/Users/stapi/OneDrive/Desktop/GD32VW553/V1_MQTT_OK/GD32VW55X_Wifi_BLE_SDK/GD32VW55x_RELEASE_V1.0.2/MSDK/wpa_supplicant/src/utils\os_gdwifi.c **** char * os_strdup(const char *s)
 281:C:/Users/stapi/OneDrive/Desktop/GD32VW553/V1_MQTT_OK/GD32VW55X_Wifi_BLE_SDK/GD32VW55x_RELEASE_V1.0.2/MSDK/wpa_supplicant/src/utils\os_gdwifi.c **** {
 910              		.loc 1 281 1 is_stmt 1
 911              		.cfi_startproc
 912              	.LVL88:
 913 0000 17030000 		call	t0,__riscv_save_1
 913      E7020300 
 914              		.cfi_offset 8, -8
 915              		.cfi_offset 1, -4
 916              		.cfi_def_cfa_offset 16
 282:C:/Users/stapi/OneDrive/Desktop/GD32VW553/V1_MQTT_OK/GD32VW55X_Wifi_BLE_SDK/GD32VW55x_RELEASE_V1.0.2/MSDK/wpa_supplicant/src/utils\os_gdwifi.c **** 	char *res;
 917              		.loc 1 282 2
 283:C:/Users/stapi/OneDrive/Desktop/GD32VW553/V1_MQTT_OK/GD32VW55X_Wifi_BLE_SDK/GD32VW55x_RELEASE_V1.0.2/MSDK/wpa_supplicant/src/utils\os_gdwifi.c **** 	size_t len = os_strlen(s) + 1;
 918              		.loc 1 283 2
 281:C:/Users/stapi/OneDrive/Desktop/GD32VW553/V1_MQTT_OK/GD32VW55X_Wifi_BLE_SDK/GD32VW55x_RELEASE_V1.0.2/MSDK/wpa_supplicant/src/utils\os_gdwifi.c **** 	char *res;
 919              		.loc 1 281 1 is_stmt 0
 920 0008 4111     		addi	sp,sp,-16
 921              		.cfi_def_cfa_offset 32
 922              	.LVL89:
 923              	.LBB22:
 924              	.LBB23:
 284:C:/Users/stapi/OneDrive/Desktop/GD32VW553/V1_MQTT_OK/GD32VW55X_Wifi_BLE_SDK/GD32VW55x_RELEASE_V1.0.2/MSDK/wpa_supplicant/src/utils\os_gdwifi.c **** 	res = os_malloc(len);
 285:C:/Users/stapi/OneDrive/Desktop/GD32VW553/V1_MQTT_OK/GD32VW55X_Wifi_BLE_SDK/GD32VW55x_RELEASE_V1.0.2/MSDK/wpa_supplicant/src/utils\os_gdwifi.c **** 	if (res)
 286:C:/Users/stapi/OneDrive/Desktop/GD32VW553/V1_MQTT_OK/GD32VW55X_Wifi_BLE_SDK/GD32VW55x_RELEASE_V1.0.2/MSDK/wpa_supplicant/src/utils\os_gdwifi.c **** 		os_memcpy(res, s, len);
 287:C:/Users/stapi/OneDrive/Desktop/GD32VW553/V1_MQTT_OK/GD32VW55X_Wifi_BLE_SDK/GD32VW55x_RELEASE_V1.0.2/MSDK/wpa_supplicant/src/utils\os_gdwifi.c **** 
 288:C:/Users/stapi/OneDrive/Desktop/GD32VW553/V1_MQTT_OK/GD32VW55X_Wifi_BLE_SDK/GD32VW55x_RELEASE_V1.0.2/MSDK/wpa_supplicant/src/utils\os_gdwifi.c **** 	return res;
 289:C:/Users/stapi/OneDrive/Desktop/GD32VW553/V1_MQTT_OK/GD32VW55X_Wifi_BLE_SDK/GD32VW55x_RELEASE_V1.0.2/MSDK/wpa_supplicant/src/utils\os_gdwifi.c **** }
 290:C:/Users/stapi/OneDrive/Desktop/GD32VW553/V1_MQTT_OK/GD32VW55X_Wifi_BLE_SDK/GD32VW55x_RELEASE_V1.0.2/MSDK/wpa_supplicant/src/utils\os_gdwifi.c **** 
 291:C:/Users/stapi/OneDrive/Desktop/GD32VW553/V1_MQTT_OK/GD32VW55X_Wifi_BLE_SDK/GD32VW55x_RELEASE_V1.0.2/MSDK/wpa_supplicant/src/utils\os_gdwifi.c **** 
 292:C:/Users/stapi/OneDrive/Desktop/GD32VW553/V1_MQTT_OK/GD32VW55X_Wifi_BLE_SDK/GD32VW55x_RELEASE_V1.0.2/MSDK/wpa_supplicant/src/utils\os_gdwifi.c **** size_t os_strlen(const char *s)
 293:C:/Users/stapi/OneDrive/Desktop/GD32VW553/V1_MQTT_OK/GD32VW55X_Wifi_BLE_SDK/GD32VW55x_RELEASE_V1.0.2/MSDK/wpa_supplicant/src/utils\os_gdwifi.c **** {
 294:C:/Users/stapi/OneDrive/Desktop/GD32VW553/V1_MQTT_OK/GD32VW55X_Wifi_BLE_SDK/GD32VW55x_RELEASE_V1.0.2/MSDK/wpa_supplicant/src/utils\os_gdwifi.c **** 	return strlen(s);
 925              		.loc 1 294 2 is_stmt 1
 926              	.LBE23:
 927              	.LBE22:
 281:C:/Users/stapi/OneDrive/Desktop/GD32VW553/V1_MQTT_OK/GD32VW55X_Wifi_BLE_SDK/GD32VW55x_RELEASE_V1.0.2/MSDK/wpa_supplicant/src/utils\os_gdwifi.c **** 	char *res;
 928              		.loc 1 281 1 is_stmt 0
 929 000a 2AC6     		sw	a0,12(sp)
 930              	.LVL90:
 931              	.LBB25:
 932              	.LBB24:
 933              		.loc 1 294 9
 934 000c 97000000 		call	strlen
 934      E7800000 
 935              	.LVL91:
 936              	.LBE24:
 937              	.LBE25:
 283:C:/Users/stapi/OneDrive/Desktop/GD32VW553/V1_MQTT_OK/GD32VW55X_Wifi_BLE_SDK/GD32VW55x_RELEASE_V1.0.2/MSDK/wpa_supplicant/src/utils\os_gdwifi.c **** 	res = os_malloc(len);
 938              		.loc 1 283 9
 939 0014 13061500 		addi	a2,a0,1
 940              	.LVL92:
 284:C:/Users/stapi/OneDrive/Desktop/GD32VW553/V1_MQTT_OK/GD32VW55X_Wifi_BLE_SDK/GD32VW55x_RELEASE_V1.0.2/MSDK/wpa_supplicant/src/utils\os_gdwifi.c **** 	res = os_malloc(len);
 941              		.loc 1 284 2 is_stmt 1
 942              	.LBB26:
 943              	.LBB27:
 190:C:/Users/stapi/OneDrive/Desktop/GD32VW553/V1_MQTT_OK/GD32VW55X_Wifi_BLE_SDK/GD32VW55x_RELEASE_V1.0.2/MSDK/wpa_supplicant/src/utils\os_gdwifi.c **** }
 944              		.loc 1 190 2
 190:C:/Users/stapi/OneDrive/Desktop/GD32VW553/V1_MQTT_OK/GD32VW55X_Wifi_BLE_SDK/GD32VW55x_RELEASE_V1.0.2/MSDK/wpa_supplicant/src/utils\os_gdwifi.c **** }
 945              		.loc 1 190 9 is_stmt 0
 946 0018 3285     		mv	a0,a2
 947 001a 32C4     		sw	a2,8(sp)
 948 001c 97000000 		call	sys_malloc
 948      E7800000 
 949              	.LVL93:
 950 0024 2A84     		mv	s0,a0
 951              	.LVL94:
 952              	.LBE27:
 953              	.LBE26:
 285:C:/Users/stapi/OneDrive/Desktop/GD32VW553/V1_MQTT_OK/GD32VW55X_Wifi_BLE_SDK/GD32VW55x_RELEASE_V1.0.2/MSDK/wpa_supplicant/src/utils\os_gdwifi.c **** 		os_memcpy(res, s, len);
 954              		.loc 1 285 2 is_stmt 1
 285:C:/Users/stapi/OneDrive/Desktop/GD32VW553/V1_MQTT_OK/GD32VW55X_Wifi_BLE_SDK/GD32VW55x_RELEASE_V1.0.2/MSDK/wpa_supplicant/src/utils\os_gdwifi.c **** 		os_memcpy(res, s, len);
 955              		.loc 1 285 5 is_stmt 0
 956 0026 19C5     		beq	a0,zero,.L71
 286:C:/Users/stapi/OneDrive/Desktop/GD32VW553/V1_MQTT_OK/GD32VW55X_Wifi_BLE_SDK/GD32VW55x_RELEASE_V1.0.2/MSDK/wpa_supplicant/src/utils\os_gdwifi.c **** 
 957              		.loc 1 286 3 is_stmt 1
 958 0028 2246     		lw	a2,8(sp)
 959 002a B245     		lw	a1,12(sp)
 960 002c 97000000 		call	os_memcpy
 960      E7800000 
 961              	.LVL95:
 288:C:/Users/stapi/OneDrive/Desktop/GD32VW553/V1_MQTT_OK/GD32VW55X_Wifi_BLE_SDK/GD32VW55x_RELEASE_V1.0.2/MSDK/wpa_supplicant/src/utils\os_gdwifi.c **** }
 962              		.loc 1 288 2
 963              	.L71:
 289:C:/Users/stapi/OneDrive/Desktop/GD32VW553/V1_MQTT_OK/GD32VW55X_Wifi_BLE_SDK/GD32VW55x_RELEASE_V1.0.2/MSDK/wpa_supplicant/src/utils\os_gdwifi.c **** 
 964              		.loc 1 289 1 is_stmt 0
 965 0034 2285     		mv	a0,s0
 966 0036 4101     		addi	sp,sp,16
 967              		.cfi_def_cfa_offset 0
 968              	.LVL96:
 969 0038 17030000 		tail	__riscv_restore_1
 969      67000300 
 970              		.cfi_restore 8
 971              		.cfi_restore 1
 972              		.cfi_def_cfa_offset -16
 973              		.cfi_endproc
 974              	.LFE96:
 976              		.section	.text.os_strlen,"ax",@progbits
 977              		.align	1
 978              		.globl	os_strlen
 980              	os_strlen:
 981              	.LFB97:
 293:C:/Users/stapi/OneDrive/Desktop/GD32VW553/V1_MQTT_OK/GD32VW55X_Wifi_BLE_SDK/GD32VW55x_RELEASE_V1.0.2/MSDK/wpa_supplicant/src/utils\os_gdwifi.c **** 	return strlen(s);
 982              		.loc 1 293 1 is_stmt 1
 983              		.cfi_startproc
 984              	.LVL97:
 985              		.loc 1 294 2
 986              		.loc 1 294 9 is_stmt 0
 987 0000 17030000 		tail	strlen
 987      67000300 
 988              	.LVL98:
 989              		.cfi_endproc
 990              	.LFE97:
 992              		.section	.text.os_strcasecmp,"ax",@progbits
 993              		.align	1
 994              		.globl	os_strcasecmp
 996              	os_strcasecmp:
 997              	.LFB98:
 295:C:/Users/stapi/OneDrive/Desktop/GD32VW553/V1_MQTT_OK/GD32VW55X_Wifi_BLE_SDK/GD32VW55x_RELEASE_V1.0.2/MSDK/wpa_supplicant/src/utils\os_gdwifi.c **** }
 296:C:/Users/stapi/OneDrive/Desktop/GD32VW553/V1_MQTT_OK/GD32VW55X_Wifi_BLE_SDK/GD32VW55x_RELEASE_V1.0.2/MSDK/wpa_supplicant/src/utils\os_gdwifi.c **** 
 297:C:/Users/stapi/OneDrive/Desktop/GD32VW553/V1_MQTT_OK/GD32VW55X_Wifi_BLE_SDK/GD32VW55x_RELEASE_V1.0.2/MSDK/wpa_supplicant/src/utils\os_gdwifi.c **** 
 298:C:/Users/stapi/OneDrive/Desktop/GD32VW553/V1_MQTT_OK/GD32VW55X_Wifi_BLE_SDK/GD32VW55x_RELEASE_V1.0.2/MSDK/wpa_supplicant/src/utils\os_gdwifi.c **** int os_strcasecmp(const char *s1, const char *s2)
 299:C:/Users/stapi/OneDrive/Desktop/GD32VW553/V1_MQTT_OK/GD32VW55X_Wifi_BLE_SDK/GD32VW55x_RELEASE_V1.0.2/MSDK/wpa_supplicant/src/utils\os_gdwifi.c **** {
 998              		.loc 1 299 1 is_stmt 1
 999              		.cfi_startproc
 1000              	.LVL99:
 300:C:/Users/stapi/OneDrive/Desktop/GD32VW553/V1_MQTT_OK/GD32VW55X_Wifi_BLE_SDK/GD32VW55x_RELEASE_V1.0.2/MSDK/wpa_supplicant/src/utils\os_gdwifi.c **** 	/*
 301:C:/Users/stapi/OneDrive/Desktop/GD32VW553/V1_MQTT_OK/GD32VW55X_Wifi_BLE_SDK/GD32VW55x_RELEASE_V1.0.2/MSDK/wpa_supplicant/src/utils\os_gdwifi.c **** 	 * Ignoring case is not required for main functionality, so just use
 302:C:/Users/stapi/OneDrive/Desktop/GD32VW553/V1_MQTT_OK/GD32VW55X_Wifi_BLE_SDK/GD32VW55x_RELEASE_V1.0.2/MSDK/wpa_supplicant/src/utils\os_gdwifi.c **** 	 * the case sensitive version of the function.
 303:C:/Users/stapi/OneDrive/Desktop/GD32VW553/V1_MQTT_OK/GD32VW55X_Wifi_BLE_SDK/GD32VW55x_RELEASE_V1.0.2/MSDK/wpa_supplicant/src/utils\os_gdwifi.c **** 	 */
 304:C:/Users/stapi/OneDrive/Desktop/GD32VW553/V1_MQTT_OK/GD32VW55X_Wifi_BLE_SDK/GD32VW55x_RELEASE_V1.0.2/MSDK/wpa_supplicant/src/utils\os_gdwifi.c **** 	return os_strcmp(s1, s2);
 1001              		.loc 1 304 2
 1002              	.LBB30:
 1003              	.LBB31:
 305:C:/Users/stapi/OneDrive/Desktop/GD32VW553/V1_MQTT_OK/GD32VW55X_Wifi_BLE_SDK/GD32VW55x_RELEASE_V1.0.2/MSDK/wpa_supplicant/src/utils\os_gdwifi.c **** }
 306:C:/Users/stapi/OneDrive/Desktop/GD32VW553/V1_MQTT_OK/GD32VW55X_Wifi_BLE_SDK/GD32VW55x_RELEASE_V1.0.2/MSDK/wpa_supplicant/src/utils\os_gdwifi.c **** 
 307:C:/Users/stapi/OneDrive/Desktop/GD32VW553/V1_MQTT_OK/GD32VW55X_Wifi_BLE_SDK/GD32VW55x_RELEASE_V1.0.2/MSDK/wpa_supplicant/src/utils\os_gdwifi.c **** 
 308:C:/Users/stapi/OneDrive/Desktop/GD32VW553/V1_MQTT_OK/GD32VW55X_Wifi_BLE_SDK/GD32VW55x_RELEASE_V1.0.2/MSDK/wpa_supplicant/src/utils\os_gdwifi.c **** int os_strncasecmp(const char *s1, const char *s2, size_t n)
 309:C:/Users/stapi/OneDrive/Desktop/GD32VW553/V1_MQTT_OK/GD32VW55X_Wifi_BLE_SDK/GD32VW55x_RELEASE_V1.0.2/MSDK/wpa_supplicant/src/utils\os_gdwifi.c **** {
 310:C:/Users/stapi/OneDrive/Desktop/GD32VW553/V1_MQTT_OK/GD32VW55X_Wifi_BLE_SDK/GD32VW55x_RELEASE_V1.0.2/MSDK/wpa_supplicant/src/utils\os_gdwifi.c **** 	/*
 311:C:/Users/stapi/OneDrive/Desktop/GD32VW553/V1_MQTT_OK/GD32VW55X_Wifi_BLE_SDK/GD32VW55x_RELEASE_V1.0.2/MSDK/wpa_supplicant/src/utils\os_gdwifi.c **** 	 * Ignoring case is not required for main functionality, so just use
 312:C:/Users/stapi/OneDrive/Desktop/GD32VW553/V1_MQTT_OK/GD32VW55X_Wifi_BLE_SDK/GD32VW55x_RELEASE_V1.0.2/MSDK/wpa_supplicant/src/utils\os_gdwifi.c **** 	 * the case sensitive version of the function.
 313:C:/Users/stapi/OneDrive/Desktop/GD32VW553/V1_MQTT_OK/GD32VW55X_Wifi_BLE_SDK/GD32VW55x_RELEASE_V1.0.2/MSDK/wpa_supplicant/src/utils\os_gdwifi.c **** 	 */
 314:C:/Users/stapi/OneDrive/Desktop/GD32VW553/V1_MQTT_OK/GD32VW55X_Wifi_BLE_SDK/GD32VW55x_RELEASE_V1.0.2/MSDK/wpa_supplicant/src/utils\os_gdwifi.c **** 	return os_strncmp(s1, s2, n);
 315:C:/Users/stapi/OneDrive/Desktop/GD32VW553/V1_MQTT_OK/GD32VW55X_Wifi_BLE_SDK/GD32VW55x_RELEASE_V1.0.2/MSDK/wpa_supplicant/src/utils\os_gdwifi.c **** }
 316:C:/Users/stapi/OneDrive/Desktop/GD32VW553/V1_MQTT_OK/GD32VW55X_Wifi_BLE_SDK/GD32VW55x_RELEASE_V1.0.2/MSDK/wpa_supplicant/src/utils\os_gdwifi.c **** 
 317:C:/Users/stapi/OneDrive/Desktop/GD32VW553/V1_MQTT_OK/GD32VW55X_Wifi_BLE_SDK/GD32VW55x_RELEASE_V1.0.2/MSDK/wpa_supplicant/src/utils\os_gdwifi.c **** 
 318:C:/Users/stapi/OneDrive/Desktop/GD32VW553/V1_MQTT_OK/GD32VW55X_Wifi_BLE_SDK/GD32VW55x_RELEASE_V1.0.2/MSDK/wpa_supplicant/src/utils\os_gdwifi.c **** char * os_strchr(const char *s, int c)
 319:C:/Users/stapi/OneDrive/Desktop/GD32VW553/V1_MQTT_OK/GD32VW55X_Wifi_BLE_SDK/GD32VW55x_RELEASE_V1.0.2/MSDK/wpa_supplicant/src/utils\os_gdwifi.c **** {
 320:C:/Users/stapi/OneDrive/Desktop/GD32VW553/V1_MQTT_OK/GD32VW55X_Wifi_BLE_SDK/GD32VW55x_RELEASE_V1.0.2/MSDK/wpa_supplicant/src/utils\os_gdwifi.c **** 	return strchr(s, c);
 321:C:/Users/stapi/OneDrive/Desktop/GD32VW553/V1_MQTT_OK/GD32VW55X_Wifi_BLE_SDK/GD32VW55x_RELEASE_V1.0.2/MSDK/wpa_supplicant/src/utils\os_gdwifi.c **** }
 322:C:/Users/stapi/OneDrive/Desktop/GD32VW553/V1_MQTT_OK/GD32VW55X_Wifi_BLE_SDK/GD32VW55x_RELEASE_V1.0.2/MSDK/wpa_supplicant/src/utils\os_gdwifi.c **** 
 323:C:/Users/stapi/OneDrive/Desktop/GD32VW553/V1_MQTT_OK/GD32VW55X_Wifi_BLE_SDK/GD32VW55x_RELEASE_V1.0.2/MSDK/wpa_supplicant/src/utils\os_gdwifi.c **** 
 324:C:/Users/stapi/OneDrive/Desktop/GD32VW553/V1_MQTT_OK/GD32VW55X_Wifi_BLE_SDK/GD32VW55x_RELEASE_V1.0.2/MSDK/wpa_supplicant/src/utils\os_gdwifi.c **** char * os_strrchr(const char *s, int c)
 325:C:/Users/stapi/OneDrive/Desktop/GD32VW553/V1_MQTT_OK/GD32VW55X_Wifi_BLE_SDK/GD32VW55x_RELEASE_V1.0.2/MSDK/wpa_supplicant/src/utils\os_gdwifi.c **** {
 326:C:/Users/stapi/OneDrive/Desktop/GD32VW553/V1_MQTT_OK/GD32VW55X_Wifi_BLE_SDK/GD32VW55x_RELEASE_V1.0.2/MSDK/wpa_supplicant/src/utils\os_gdwifi.c **** 	return strrchr(s, c);
 327:C:/Users/stapi/OneDrive/Desktop/GD32VW553/V1_MQTT_OK/GD32VW55X_Wifi_BLE_SDK/GD32VW55x_RELEASE_V1.0.2/MSDK/wpa_supplicant/src/utils\os_gdwifi.c **** }
 328:C:/Users/stapi/OneDrive/Desktop/GD32VW553/V1_MQTT_OK/GD32VW55X_Wifi_BLE_SDK/GD32VW55x_RELEASE_V1.0.2/MSDK/wpa_supplicant/src/utils\os_gdwifi.c **** 
 329:C:/Users/stapi/OneDrive/Desktop/GD32VW553/V1_MQTT_OK/GD32VW55X_Wifi_BLE_SDK/GD32VW55x_RELEASE_V1.0.2/MSDK/wpa_supplicant/src/utils\os_gdwifi.c **** 
 330:C:/Users/stapi/OneDrive/Desktop/GD32VW553/V1_MQTT_OK/GD32VW55X_Wifi_BLE_SDK/GD32VW55x_RELEASE_V1.0.2/MSDK/wpa_supplicant/src/utils\os_gdwifi.c **** int os_strcmp(const char *s1, const char *s2)
 331:C:/Users/stapi/OneDrive/Desktop/GD32VW553/V1_MQTT_OK/GD32VW55X_Wifi_BLE_SDK/GD32VW55x_RELEASE_V1.0.2/MSDK/wpa_supplicant/src/utils\os_gdwifi.c **** {
 332:C:/Users/stapi/OneDrive/Desktop/GD32VW553/V1_MQTT_OK/GD32VW55X_Wifi_BLE_SDK/GD32VW55x_RELEASE_V1.0.2/MSDK/wpa_supplicant/src/utils\os_gdwifi.c **** 	return strcmp(s1, s2);
 1004              		.loc 1 332 2
 1005              		.loc 1 332 9 is_stmt 0
 1006 0000 17030000 		tail	strcmp
 1006      67000300 
 1007              	.LVL100:
 1008              	.LBE31:
 1009              	.LBE30:
 1010              		.cfi_endproc
 1011              	.LFE98:
 1013              		.section	.text.os_strncasecmp,"ax",@progbits
 1014              		.align	1
 1015              		.globl	os_strncasecmp
 1017              	os_strncasecmp:
 1018              	.LFB99:
 309:C:/Users/stapi/OneDrive/Desktop/GD32VW553/V1_MQTT_OK/GD32VW55X_Wifi_BLE_SDK/GD32VW55x_RELEASE_V1.0.2/MSDK/wpa_supplicant/src/utils\os_gdwifi.c **** 	/*
 1019              		.loc 1 309 1 is_stmt 1
 1020              		.cfi_startproc
 1021              	.LVL101:
 314:C:/Users/stapi/OneDrive/Desktop/GD32VW553/V1_MQTT_OK/GD32VW55X_Wifi_BLE_SDK/GD32VW55x_RELEASE_V1.0.2/MSDK/wpa_supplicant/src/utils\os_gdwifi.c **** }
 1022              		.loc 1 314 2
 1023              	.LBB34:
 1024              	.LBB35:
 333:C:/Users/stapi/OneDrive/Desktop/GD32VW553/V1_MQTT_OK/GD32VW55X_Wifi_BLE_SDK/GD32VW55x_RELEASE_V1.0.2/MSDK/wpa_supplicant/src/utils\os_gdwifi.c **** }
 334:C:/Users/stapi/OneDrive/Desktop/GD32VW553/V1_MQTT_OK/GD32VW55X_Wifi_BLE_SDK/GD32VW55x_RELEASE_V1.0.2/MSDK/wpa_supplicant/src/utils\os_gdwifi.c **** 
 335:C:/Users/stapi/OneDrive/Desktop/GD32VW553/V1_MQTT_OK/GD32VW55X_Wifi_BLE_SDK/GD32VW55x_RELEASE_V1.0.2/MSDK/wpa_supplicant/src/utils\os_gdwifi.c **** 
 336:C:/Users/stapi/OneDrive/Desktop/GD32VW553/V1_MQTT_OK/GD32VW55X_Wifi_BLE_SDK/GD32VW55x_RELEASE_V1.0.2/MSDK/wpa_supplicant/src/utils\os_gdwifi.c **** int os_strncmp(const char *s1, const char *s2, size_t n)
 337:C:/Users/stapi/OneDrive/Desktop/GD32VW553/V1_MQTT_OK/GD32VW55X_Wifi_BLE_SDK/GD32VW55x_RELEASE_V1.0.2/MSDK/wpa_supplicant/src/utils\os_gdwifi.c **** {
 338:C:/Users/stapi/OneDrive/Desktop/GD32VW553/V1_MQTT_OK/GD32VW55X_Wifi_BLE_SDK/GD32VW55x_RELEASE_V1.0.2/MSDK/wpa_supplicant/src/utils\os_gdwifi.c **** 	return strncmp(s1, s2, n);
 1025              		.loc 1 338 2
 1026              		.loc 1 338 9 is_stmt 0
 1027 0000 17030000 		tail	strncmp
 1027      67000300 
 1028              	.LVL102:
 1029              	.LBE35:
 1030              	.LBE34:
 1031              		.cfi_endproc
 1032              	.LFE99:
 1034              		.section	.text.os_strchr,"ax",@progbits
 1035              		.align	1
 1036              		.globl	os_strchr
 1038              	os_strchr:
 1039              	.LFB100:
 319:C:/Users/stapi/OneDrive/Desktop/GD32VW553/V1_MQTT_OK/GD32VW55X_Wifi_BLE_SDK/GD32VW55x_RELEASE_V1.0.2/MSDK/wpa_supplicant/src/utils\os_gdwifi.c **** 	return strchr(s, c);
 1040              		.loc 1 319 1 is_stmt 1
 1041              		.cfi_startproc
 1042              	.LVL103:
 320:C:/Users/stapi/OneDrive/Desktop/GD32VW553/V1_MQTT_OK/GD32VW55X_Wifi_BLE_SDK/GD32VW55x_RELEASE_V1.0.2/MSDK/wpa_supplicant/src/utils\os_gdwifi.c **** }
 1043              		.loc 1 320 2
 320:C:/Users/stapi/OneDrive/Desktop/GD32VW553/V1_MQTT_OK/GD32VW55X_Wifi_BLE_SDK/GD32VW55x_RELEASE_V1.0.2/MSDK/wpa_supplicant/src/utils\os_gdwifi.c **** }
 1044              		.loc 1 320 9 is_stmt 0
 1045 0000 17030000 		tail	strchr
 1045      67000300 
 1046              	.LVL104:
 1047              		.cfi_endproc
 1048              	.LFE100:
 1050              		.section	.text.os_strrchr,"ax",@progbits
 1051              		.align	1
 1052              		.globl	os_strrchr
 1054              	os_strrchr:
 1055              	.LFB101:
 325:C:/Users/stapi/OneDrive/Desktop/GD32VW553/V1_MQTT_OK/GD32VW55X_Wifi_BLE_SDK/GD32VW55x_RELEASE_V1.0.2/MSDK/wpa_supplicant/src/utils\os_gdwifi.c **** 	return strrchr(s, c);
 1056              		.loc 1 325 1 is_stmt 1
 1057              		.cfi_startproc
 1058              	.LVL105:
 326:C:/Users/stapi/OneDrive/Desktop/GD32VW553/V1_MQTT_OK/GD32VW55X_Wifi_BLE_SDK/GD32VW55x_RELEASE_V1.0.2/MSDK/wpa_supplicant/src/utils\os_gdwifi.c **** }
 1059              		.loc 1 326 2
 326:C:/Users/stapi/OneDrive/Desktop/GD32VW553/V1_MQTT_OK/GD32VW55X_Wifi_BLE_SDK/GD32VW55x_RELEASE_V1.0.2/MSDK/wpa_supplicant/src/utils\os_gdwifi.c **** }
 1060              		.loc 1 326 9 is_stmt 0
 1061 0000 17030000 		tail	strrchr
 1061      67000300 
 1062              	.LVL106:
 1063              		.cfi_endproc
 1064              	.LFE101:
 1066              		.section	.text.os_strcmp,"ax",@progbits
 1067              		.align	1
 1068              		.globl	os_strcmp
 1070              	os_strcmp:
 1071              	.LFB111:
 1072              		.cfi_startproc
 1073 0000 17030000 		tail	strcmp
 1073      67000300 
 1074              		.cfi_endproc
 1075              	.LFE111:
 1077              		.section	.text.os_strncmp,"ax",@progbits
 1078              		.align	1
 1079              		.globl	os_strncmp
 1081              	os_strncmp:
 1082              	.LFB113:
 1083              		.cfi_startproc
 1084 0000 17030000 		tail	strncmp
 1084      67000300 
 1085              		.cfi_endproc
 1086              	.LFE113:
 1088              		.section	.text.os_strncpy,"ax",@progbits
 1089              		.align	1
 1090              		.globl	os_strncpy
 1092              	os_strncpy:
 1093              	.LFB104:
 339:C:/Users/stapi/OneDrive/Desktop/GD32VW553/V1_MQTT_OK/GD32VW55X_Wifi_BLE_SDK/GD32VW55x_RELEASE_V1.0.2/MSDK/wpa_supplicant/src/utils\os_gdwifi.c **** }
 340:C:/Users/stapi/OneDrive/Desktop/GD32VW553/V1_MQTT_OK/GD32VW55X_Wifi_BLE_SDK/GD32VW55x_RELEASE_V1.0.2/MSDK/wpa_supplicant/src/utils\os_gdwifi.c **** 
 341:C:/Users/stapi/OneDrive/Desktop/GD32VW553/V1_MQTT_OK/GD32VW55X_Wifi_BLE_SDK/GD32VW55x_RELEASE_V1.0.2/MSDK/wpa_supplicant/src/utils\os_gdwifi.c **** 
 342:C:/Users/stapi/OneDrive/Desktop/GD32VW553/V1_MQTT_OK/GD32VW55X_Wifi_BLE_SDK/GD32VW55x_RELEASE_V1.0.2/MSDK/wpa_supplicant/src/utils\os_gdwifi.c **** char * os_strncpy(char *dest, const char *src, size_t n)
 343:C:/Users/stapi/OneDrive/Desktop/GD32VW553/V1_MQTT_OK/GD32VW55X_Wifi_BLE_SDK/GD32VW55x_RELEASE_V1.0.2/MSDK/wpa_supplicant/src/utils\os_gdwifi.c **** {
 1094              		.loc 1 343 1 is_stmt 1
 1095              		.cfi_startproc
 1096              	.LVL107:
 344:C:/Users/stapi/OneDrive/Desktop/GD32VW553/V1_MQTT_OK/GD32VW55X_Wifi_BLE_SDK/GD32VW55x_RELEASE_V1.0.2/MSDK/wpa_supplicant/src/utils\os_gdwifi.c **** 	return strncpy(dest, src, n);
 1097              		.loc 1 344 2
 1098              		.loc 1 344 9 is_stmt 0
 1099 0000 17030000 		tail	strncpy
 1099      67000300 
 1100              	.LVL108:
 1101              		.cfi_endproc
 1102              	.LFE104:
 1104              		.section	.text.os_strlcpy,"ax",@progbits
 1105              		.align	1
 1106              		.globl	os_strlcpy
 1108              	os_strlcpy:
 1109              	.LFB105:
 345:C:/Users/stapi/OneDrive/Desktop/GD32VW553/V1_MQTT_OK/GD32VW55X_Wifi_BLE_SDK/GD32VW55x_RELEASE_V1.0.2/MSDK/wpa_supplicant/src/utils\os_gdwifi.c **** }
 346:C:/Users/stapi/OneDrive/Desktop/GD32VW553/V1_MQTT_OK/GD32VW55X_Wifi_BLE_SDK/GD32VW55x_RELEASE_V1.0.2/MSDK/wpa_supplicant/src/utils\os_gdwifi.c **** 
 347:C:/Users/stapi/OneDrive/Desktop/GD32VW553/V1_MQTT_OK/GD32VW55X_Wifi_BLE_SDK/GD32VW55x_RELEASE_V1.0.2/MSDK/wpa_supplicant/src/utils\os_gdwifi.c **** 
 348:C:/Users/stapi/OneDrive/Desktop/GD32VW553/V1_MQTT_OK/GD32VW55X_Wifi_BLE_SDK/GD32VW55x_RELEASE_V1.0.2/MSDK/wpa_supplicant/src/utils\os_gdwifi.c **** size_t os_strlcpy(char *dest, const char *src, size_t size)
 349:C:/Users/stapi/OneDrive/Desktop/GD32VW553/V1_MQTT_OK/GD32VW55X_Wifi_BLE_SDK/GD32VW55x_RELEASE_V1.0.2/MSDK/wpa_supplicant/src/utils\os_gdwifi.c **** {
 1110              		.loc 1 349 1 is_stmt 1
 1111              		.cfi_startproc
 1112              	.LVL109:
 1113              		.loc 1 349 1 is_stmt 0
 1114 0000 2A87     		mv	a4,a0
 350:C:/Users/stapi/OneDrive/Desktop/GD32VW553/V1_MQTT_OK/GD32VW55X_Wifi_BLE_SDK/GD32VW55x_RELEASE_V1.0.2/MSDK/wpa_supplicant/src/utils\os_gdwifi.c **** 	const char *s = src;
 1115              		.loc 1 350 2 is_stmt 1
 1116              	.LVL110:
 351:C:/Users/stapi/OneDrive/Desktop/GD32VW553/V1_MQTT_OK/GD32VW55X_Wifi_BLE_SDK/GD32VW55x_RELEASE_V1.0.2/MSDK/wpa_supplicant/src/utils\os_gdwifi.c **** 	size_t left = size;
 1117              		.loc 1 351 2
 352:C:/Users/stapi/OneDrive/Desktop/GD32VW553/V1_MQTT_OK/GD32VW55X_Wifi_BLE_SDK/GD32VW55x_RELEASE_V1.0.2/MSDK/wpa_supplicant/src/utils\os_gdwifi.c **** 
 353:C:/Users/stapi/OneDrive/Desktop/GD32VW553/V1_MQTT_OK/GD32VW55X_Wifi_BLE_SDK/GD32VW55x_RELEASE_V1.0.2/MSDK/wpa_supplicant/src/utils\os_gdwifi.c **** 	if (left) {
 1118              		.loc 1 353 2
 1119              		.loc 1 353 5 is_stmt 0
 1120 0002 0DC6     		beq	a2,zero,.L100
 1121 0004 2E96     		add	a2,a1,a2
 1122              	.LVL111:
 350:C:/Users/stapi/OneDrive/Desktop/GD32VW553/V1_MQTT_OK/GD32VW55X_Wifi_BLE_SDK/GD32VW55x_RELEASE_V1.0.2/MSDK/wpa_supplicant/src/utils\os_gdwifi.c **** 	size_t left = size;
 1123              		.loc 1 350 14
 1124 0006 AE87     		mv	a5,a1
 1125              	.LVL112:
 1126              	.L95:
 354:C:/Users/stapi/OneDrive/Desktop/GD32VW553/V1_MQTT_OK/GD32VW55X_Wifi_BLE_SDK/GD32VW55x_RELEASE_V1.0.2/MSDK/wpa_supplicant/src/utils\os_gdwifi.c **** 		/* Copy string up to the maximum size of the dest buffer */
 355:C:/Users/stapi/OneDrive/Desktop/GD32VW553/V1_MQTT_OK/GD32VW55X_Wifi_BLE_SDK/GD32VW55x_RELEASE_V1.0.2/MSDK/wpa_supplicant/src/utils\os_gdwifi.c **** 		while (--left != 0) {
 1127              		.loc 1 355 9 is_stmt 1
 1128 0008 BE86     		mv	a3,a5
 356:C:/Users/stapi/OneDrive/Desktop/GD32VW553/V1_MQTT_OK/GD32VW55X_Wifi_BLE_SDK/GD32VW55x_RELEASE_V1.0.2/MSDK/wpa_supplicant/src/utils\os_gdwifi.c **** 			if ((*dest++ = *s++) == '\0')
 1129              		.loc 1 356 21 is_stmt 0
 1130 000a 8507     		addi	a5,a5,1
 1131              	.LVL113:
 355:C:/Users/stapi/OneDrive/Desktop/GD32VW553/V1_MQTT_OK/GD32VW55X_Wifi_BLE_SDK/GD32VW55x_RELEASE_V1.0.2/MSDK/wpa_supplicant/src/utils\os_gdwifi.c **** 			if ((*dest++ = *s++) == '\0')
 1132              		.loc 1 355 9
 1133 000c 6396C700 		bne	a5,a2,.L97
 1134              	.LVL114:
 357:C:/Users/stapi/OneDrive/Desktop/GD32VW553/V1_MQTT_OK/GD32VW55X_Wifi_BLE_SDK/GD32VW55x_RELEASE_V1.0.2/MSDK/wpa_supplicant/src/utils\os_gdwifi.c **** 				break;
 358:C:/Users/stapi/OneDrive/Desktop/GD32VW553/V1_MQTT_OK/GD32VW55X_Wifi_BLE_SDK/GD32VW55x_RELEASE_V1.0.2/MSDK/wpa_supplicant/src/utils\os_gdwifi.c **** 		}
 359:C:/Users/stapi/OneDrive/Desktop/GD32VW553/V1_MQTT_OK/GD32VW55X_Wifi_BLE_SDK/GD32VW55x_RELEASE_V1.0.2/MSDK/wpa_supplicant/src/utils\os_gdwifi.c **** 	}
 360:C:/Users/stapi/OneDrive/Desktop/GD32VW553/V1_MQTT_OK/GD32VW55X_Wifi_BLE_SDK/GD32VW55x_RELEASE_V1.0.2/MSDK/wpa_supplicant/src/utils\os_gdwifi.c **** 
 361:C:/Users/stapi/OneDrive/Desktop/GD32VW553/V1_MQTT_OK/GD32VW55X_Wifi_BLE_SDK/GD32VW55x_RELEASE_V1.0.2/MSDK/wpa_supplicant/src/utils\os_gdwifi.c **** 	if (left == 0) {
 1135              		.loc 1 361 2 is_stmt 1
 362:C:/Users/stapi/OneDrive/Desktop/GD32VW553/V1_MQTT_OK/GD32VW55X_Wifi_BLE_SDK/GD32VW55x_RELEASE_V1.0.2/MSDK/wpa_supplicant/src/utils\os_gdwifi.c **** 		/* Not enough room for the string; force NUL-termination */
 363:C:/Users/stapi/OneDrive/Desktop/GD32VW553/V1_MQTT_OK/GD32VW55X_Wifi_BLE_SDK/GD32VW55x_RELEASE_V1.0.2/MSDK/wpa_supplicant/src/utils\os_gdwifi.c **** 		if (size != 0)
 364:C:/Users/stapi/OneDrive/Desktop/GD32VW553/V1_MQTT_OK/GD32VW55X_Wifi_BLE_SDK/GD32VW55x_RELEASE_V1.0.2/MSDK/wpa_supplicant/src/utils\os_gdwifi.c **** 			*dest = '\0';
 1136              		.loc 1 364 4
 1137              		.loc 1 364 10 is_stmt 0
 1138 0010 23000700 		sb	zero,0(a4)
 1139 0014 B687     		mv	a5,a3
 1140 0016 21A8     		j	.L99
 1141              	.LVL115:
 1142              	.L97:
 356:C:/Users/stapi/OneDrive/Desktop/GD32VW553/V1_MQTT_OK/GD32VW55X_Wifi_BLE_SDK/GD32VW55x_RELEASE_V1.0.2/MSDK/wpa_supplicant/src/utils\os_gdwifi.c **** 				break;
 1143              		.loc 1 356 4 is_stmt 1
 356:C:/Users/stapi/OneDrive/Desktop/GD32VW553/V1_MQTT_OK/GD32VW55X_Wifi_BLE_SDK/GD32VW55x_RELEASE_V1.0.2/MSDK/wpa_supplicant/src/utils\os_gdwifi.c **** 				break;
 1144              		.loc 1 356 14 is_stmt 0
 1145 0018 0507     		addi	a4,a4,1
 1146              	.LVL116:
 356:C:/Users/stapi/OneDrive/Desktop/GD32VW553/V1_MQTT_OK/GD32VW55X_Wifi_BLE_SDK/GD32VW55x_RELEASE_V1.0.2/MSDK/wpa_supplicant/src/utils\os_gdwifi.c **** 				break;
 1147              		.loc 1 356 19
 1148 001a 8386F7FF 		lb	a3,-1(a5)
 1149              	.LVL117:
 356:C:/Users/stapi/OneDrive/Desktop/GD32VW553/V1_MQTT_OK/GD32VW55X_Wifi_BLE_SDK/GD32VW55x_RELEASE_V1.0.2/MSDK/wpa_supplicant/src/utils\os_gdwifi.c **** 				break;
 1150              		.loc 1 356 17
 1151 001e A30FD7FE 		sb	a3,-1(a4)
 356:C:/Users/stapi/OneDrive/Desktop/GD32VW553/V1_MQTT_OK/GD32VW55X_Wifi_BLE_SDK/GD32VW55x_RELEASE_V1.0.2/MSDK/wpa_supplicant/src/utils\os_gdwifi.c **** 				break;
 1152              		.loc 1 356 7
 1153 0022 FDF2     		bne	a3,zero,.L95
 1154              	.LVL118:
 1155              	.L96:
 365:C:/Users/stapi/OneDrive/Desktop/GD32VW553/V1_MQTT_OK/GD32VW55X_Wifi_BLE_SDK/GD32VW55x_RELEASE_V1.0.2/MSDK/wpa_supplicant/src/utils\os_gdwifi.c **** 		while (*s++)
 366:C:/Users/stapi/OneDrive/Desktop/GD32VW553/V1_MQTT_OK/GD32VW55X_Wifi_BLE_SDK/GD32VW55x_RELEASE_V1.0.2/MSDK/wpa_supplicant/src/utils\os_gdwifi.c **** 			; /* determine total src string length */
 367:C:/Users/stapi/OneDrive/Desktop/GD32VW553/V1_MQTT_OK/GD32VW55X_Wifi_BLE_SDK/GD32VW55x_RELEASE_V1.0.2/MSDK/wpa_supplicant/src/utils\os_gdwifi.c **** 	}
 368:C:/Users/stapi/OneDrive/Desktop/GD32VW553/V1_MQTT_OK/GD32VW55X_Wifi_BLE_SDK/GD32VW55x_RELEASE_V1.0.2/MSDK/wpa_supplicant/src/utils\os_gdwifi.c **** 
 369:C:/Users/stapi/OneDrive/Desktop/GD32VW553/V1_MQTT_OK/GD32VW55X_Wifi_BLE_SDK/GD32VW55x_RELEASE_V1.0.2/MSDK/wpa_supplicant/src/utils\os_gdwifi.c **** 	return s - src - 1;
 1156              		.loc 1 369 2 is_stmt 1
 1157              		.loc 1 369 11 is_stmt 0
 1158 0024 3385B740 		sub	a0,a5,a1
 1159              		.loc 1 369 17
 1160 0028 7D15     		addi	a0,a0,-1
 370:C:/Users/stapi/OneDrive/Desktop/GD32VW553/V1_MQTT_OK/GD32VW55X_Wifi_BLE_SDK/GD32VW55x_RELEASE_V1.0.2/MSDK/wpa_supplicant/src/utils\os_gdwifi.c **** }
 1161              		.loc 1 370 1
 1162 002a 8280     		ret
 1163              	.LVL119:
 1164              	.L100:
 350:C:/Users/stapi/OneDrive/Desktop/GD32VW553/V1_MQTT_OK/GD32VW55X_Wifi_BLE_SDK/GD32VW55x_RELEASE_V1.0.2/MSDK/wpa_supplicant/src/utils\os_gdwifi.c **** 	size_t left = size;
 1165              		.loc 1 350 14
 1166 002c AE87     		mv	a5,a1
 1167              	.LVL120:
 1168              	.L99:
 366:C:/Users/stapi/OneDrive/Desktop/GD32VW553/V1_MQTT_OK/GD32VW55X_Wifi_BLE_SDK/GD32VW55x_RELEASE_V1.0.2/MSDK/wpa_supplicant/src/utils\os_gdwifi.c **** 	}
 1169              		.loc 1 366 4 is_stmt 1 discriminator 1
 365:C:/Users/stapi/OneDrive/Desktop/GD32VW553/V1_MQTT_OK/GD32VW55X_Wifi_BLE_SDK/GD32VW55x_RELEASE_V1.0.2/MSDK/wpa_supplicant/src/utils\os_gdwifi.c **** 			; /* determine total src string length */
 1170              		.loc 1 365 9 discriminator 1
 365:C:/Users/stapi/OneDrive/Desktop/GD32VW553/V1_MQTT_OK/GD32VW55X_Wifi_BLE_SDK/GD32VW55x_RELEASE_V1.0.2/MSDK/wpa_supplicant/src/utils\os_gdwifi.c **** 			; /* determine total src string length */
 1171              		.loc 1 365 12 is_stmt 0 discriminator 1
 1172 002e 8507     		addi	a5,a5,1
 1173              	.LVL121:
 365:C:/Users/stapi/OneDrive/Desktop/GD32VW553/V1_MQTT_OK/GD32VW55X_Wifi_BLE_SDK/GD32VW55x_RELEASE_V1.0.2/MSDK/wpa_supplicant/src/utils\os_gdwifi.c **** 			; /* determine total src string length */
 1174              		.loc 1 365 9 discriminator 1
 1175 0030 0387F7FF 		lb	a4,-1(a5)
 1176 0034 6DFF     		bne	a4,zero,.L99
 1177 0036 FDB7     		j	.L96
 1178              		.cfi_endproc
 1179              	.LFE105:
 1181              		.section	.text.os_memcmp_const,"ax",@progbits
 1182              		.align	1
 1183              		.globl	os_memcmp_const
 1185              	os_memcmp_const:
 1186              	.LFB106:
 371:C:/Users/stapi/OneDrive/Desktop/GD32VW553/V1_MQTT_OK/GD32VW55X_Wifi_BLE_SDK/GD32VW55x_RELEASE_V1.0.2/MSDK/wpa_supplicant/src/utils\os_gdwifi.c **** 
 372:C:/Users/stapi/OneDrive/Desktop/GD32VW553/V1_MQTT_OK/GD32VW55X_Wifi_BLE_SDK/GD32VW55x_RELEASE_V1.0.2/MSDK/wpa_supplicant/src/utils\os_gdwifi.c **** 
 373:C:/Users/stapi/OneDrive/Desktop/GD32VW553/V1_MQTT_OK/GD32VW55X_Wifi_BLE_SDK/GD32VW55x_RELEASE_V1.0.2/MSDK/wpa_supplicant/src/utils\os_gdwifi.c **** int os_memcmp_const(const void *a, const void *b, size_t len)
 374:C:/Users/stapi/OneDrive/Desktop/GD32VW553/V1_MQTT_OK/GD32VW55X_Wifi_BLE_SDK/GD32VW55x_RELEASE_V1.0.2/MSDK/wpa_supplicant/src/utils\os_gdwifi.c **** {
 1187              		.loc 1 374 1 is_stmt 1
 1188              		.cfi_startproc
 1189              	.LVL122:
 375:C:/Users/stapi/OneDrive/Desktop/GD32VW553/V1_MQTT_OK/GD32VW55X_Wifi_BLE_SDK/GD32VW55x_RELEASE_V1.0.2/MSDK/wpa_supplicant/src/utils\os_gdwifi.c **** 	const uint8_t *aa = a;
 1190              		.loc 1 375 2
 374:C:/Users/stapi/OneDrive/Desktop/GD32VW553/V1_MQTT_OK/GD32VW55X_Wifi_BLE_SDK/GD32VW55x_RELEASE_V1.0.2/MSDK/wpa_supplicant/src/utils\os_gdwifi.c **** 	const uint8_t *aa = a;
 1191              		.loc 1 374 1 is_stmt 0
 1192 0000 2A87     		mv	a4,a0
 1193              	.LVL123:
 376:C:/Users/stapi/OneDrive/Desktop/GD32VW553/V1_MQTT_OK/GD32VW55X_Wifi_BLE_SDK/GD32VW55x_RELEASE_V1.0.2/MSDK/wpa_supplicant/src/utils\os_gdwifi.c **** 	const uint8_t *bb = b;
 1194              		.loc 1 376 2 is_stmt 1
 377:C:/Users/stapi/OneDrive/Desktop/GD32VW553/V1_MQTT_OK/GD32VW55X_Wifi_BLE_SDK/GD32VW55x_RELEASE_V1.0.2/MSDK/wpa_supplicant/src/utils\os_gdwifi.c **** 	size_t i;
 1195              		.loc 1 377 2
 378:C:/Users/stapi/OneDrive/Desktop/GD32VW553/V1_MQTT_OK/GD32VW55X_Wifi_BLE_SDK/GD32VW55x_RELEASE_V1.0.2/MSDK/wpa_supplicant/src/utils\os_gdwifi.c **** 	uint8_t res;
 1196              		.loc 1 378 2
 379:C:/Users/stapi/OneDrive/Desktop/GD32VW553/V1_MQTT_OK/GD32VW55X_Wifi_BLE_SDK/GD32VW55x_RELEASE_V1.0.2/MSDK/wpa_supplicant/src/utils\os_gdwifi.c **** 
 380:C:/Users/stapi/OneDrive/Desktop/GD32VW553/V1_MQTT_OK/GD32VW55X_Wifi_BLE_SDK/GD32VW55x_RELEASE_V1.0.2/MSDK/wpa_supplicant/src/utils\os_gdwifi.c **** 	for (res = 0, i = 0; i < len; i++)
 1197              		.loc 1 380 2
 1198              		.loc 1 380 18 is_stmt 0
 1199 0002 8147     		li	a5,0
 1200              		.loc 1 380 11
 1201 0004 0145     		li	a0,0
 1202              	.LVL124:
 1203              	.L108:
 1204              		.loc 1 380 23 is_stmt 1 discriminator 1
 1205              		.loc 1 380 2 is_stmt 0 discriminator 1
 1206 0006 6393C700 		bne	a5,a2,.L109
 381:C:/Users/stapi/OneDrive/Desktop/GD32VW553/V1_MQTT_OK/GD32VW55X_Wifi_BLE_SDK/GD32VW55x_RELEASE_V1.0.2/MSDK/wpa_supplicant/src/utils\os_gdwifi.c **** 		res |= aa[i] ^ bb[i];
 382:C:/Users/stapi/OneDrive/Desktop/GD32VW553/V1_MQTT_OK/GD32VW55X_Wifi_BLE_SDK/GD32VW55x_RELEASE_V1.0.2/MSDK/wpa_supplicant/src/utils\os_gdwifi.c **** 
 383:C:/Users/stapi/OneDrive/Desktop/GD32VW553/V1_MQTT_OK/GD32VW55X_Wifi_BLE_SDK/GD32VW55x_RELEASE_V1.0.2/MSDK/wpa_supplicant/src/utils\os_gdwifi.c **** 	return res;
 1207              		.loc 1 383 2 is_stmt 1
 384:C:/Users/stapi/OneDrive/Desktop/GD32VW553/V1_MQTT_OK/GD32VW55X_Wifi_BLE_SDK/GD32VW55x_RELEASE_V1.0.2/MSDK/wpa_supplicant/src/utils\os_gdwifi.c **** }
 1208              		.loc 1 384 1 is_stmt 0
 1209 000a 8280     		ret
 1210              	.L109:
 381:C:/Users/stapi/OneDrive/Desktop/GD32VW553/V1_MQTT_OK/GD32VW55X_Wifi_BLE_SDK/GD32VW55x_RELEASE_V1.0.2/MSDK/wpa_supplicant/src/utils\os_gdwifi.c **** 		res |= aa[i] ^ bb[i];
 1211              		.loc 1 381 3 is_stmt 1 discriminator 3
 381:C:/Users/stapi/OneDrive/Desktop/GD32VW553/V1_MQTT_OK/GD32VW55X_Wifi_BLE_SDK/GD32VW55x_RELEASE_V1.0.2/MSDK/wpa_supplicant/src/utils\os_gdwifi.c **** 		res |= aa[i] ^ bb[i];
 1212              		.loc 1 381 12 is_stmt 0 discriminator 3
 1213 000c B306F700 		add	a3,a4,a5
 381:C:/Users/stapi/OneDrive/Desktop/GD32VW553/V1_MQTT_OK/GD32VW55X_Wifi_BLE_SDK/GD32VW55x_RELEASE_V1.0.2/MSDK/wpa_supplicant/src/utils\os_gdwifi.c **** 		res |= aa[i] ^ bb[i];
 1214              		.loc 1 381 20 discriminator 3
 1215 0010 3388F500 		add	a6,a1,a5
 381:C:/Users/stapi/OneDrive/Desktop/GD32VW553/V1_MQTT_OK/GD32VW55X_Wifi_BLE_SDK/GD32VW55x_RELEASE_V1.0.2/MSDK/wpa_supplicant/src/utils\os_gdwifi.c **** 		res |= aa[i] ^ bb[i];
 1216              		.loc 1 381 7 discriminator 3
 1217 0014 83C60600 		lbu	a3,0(a3)
 1218 0018 03480800 		lbu	a6,0(a6)
 380:C:/Users/stapi/OneDrive/Desktop/GD32VW553/V1_MQTT_OK/GD32VW55X_Wifi_BLE_SDK/GD32VW55x_RELEASE_V1.0.2/MSDK/wpa_supplicant/src/utils\os_gdwifi.c **** 		res |= aa[i] ^ bb[i];
 1219              		.loc 1 380 33 discriminator 3
 1220 001c 8507     		addi	a5,a5,1
 1221              	.LVL125:
 381:C:/Users/stapi/OneDrive/Desktop/GD32VW553/V1_MQTT_OK/GD32VW55X_Wifi_BLE_SDK/GD32VW55x_RELEASE_V1.0.2/MSDK/wpa_supplicant/src/utils\os_gdwifi.c **** 		res |= aa[i] ^ bb[i];
 1222              		.loc 1 381 7 discriminator 3
 1223 001e B3C60601 		xor	a3,a3,a6
 1224 0022 558D     		or	a0,a0,a3
 1225              	.LVL126:
 1226 0024 1375F50F 		andi	a0,a0,0xff
 1227              	.LVL127:
 380:C:/Users/stapi/OneDrive/Desktop/GD32VW553/V1_MQTT_OK/GD32VW55X_Wifi_BLE_SDK/GD32VW55x_RELEASE_V1.0.2/MSDK/wpa_supplicant/src/utils\os_gdwifi.c **** 		res |= aa[i] ^ bb[i];
 1228              		.loc 1 380 32 is_stmt 1 discriminator 3
 1229 0028 F9BF     		j	.L108
 1230              		.cfi_endproc
 1231              	.LFE106:
 1233              		.section	.text.os_strstr,"ax",@progbits
 1234              		.align	1
 1235              		.globl	os_strstr
 1237              	os_strstr:
 1238              	.LFB107:
 385:C:/Users/stapi/OneDrive/Desktop/GD32VW553/V1_MQTT_OK/GD32VW55X_Wifi_BLE_SDK/GD32VW55x_RELEASE_V1.0.2/MSDK/wpa_supplicant/src/utils\os_gdwifi.c **** 
 386:C:/Users/stapi/OneDrive/Desktop/GD32VW553/V1_MQTT_OK/GD32VW55X_Wifi_BLE_SDK/GD32VW55x_RELEASE_V1.0.2/MSDK/wpa_supplicant/src/utils\os_gdwifi.c **** char * os_strstr(const char *haystack, const char *needle)
 387:C:/Users/stapi/OneDrive/Desktop/GD32VW553/V1_MQTT_OK/GD32VW55X_Wifi_BLE_SDK/GD32VW55x_RELEASE_V1.0.2/MSDK/wpa_supplicant/src/utils\os_gdwifi.c **** {
 1239              		.loc 1 387 1
 1240              		.cfi_startproc
 1241              	.LVL128:
 388:C:/Users/stapi/OneDrive/Desktop/GD32VW553/V1_MQTT_OK/GD32VW55X_Wifi_BLE_SDK/GD32VW55x_RELEASE_V1.0.2/MSDK/wpa_supplicant/src/utils\os_gdwifi.c **** 	return strstr(haystack, needle);
 1242              		.loc 1 388 2
 1243              		.loc 1 388 9 is_stmt 0
 1244 0000 17030000 		tail	strstr
 1244      67000300 
 1245              	.LVL129:
 1246              		.cfi_endproc
 1247              	.LFE107:
 1249              		.section	.text.os_snprintf,"ax",@progbits
 1250              		.align	1
 1251              		.globl	os_snprintf
 1253              	os_snprintf:
 1254              	.LFB108:
 389:C:/Users/stapi/OneDrive/Desktop/GD32VW553/V1_MQTT_OK/GD32VW55X_Wifi_BLE_SDK/GD32VW55x_RELEASE_V1.0.2/MSDK/wpa_supplicant/src/utils\os_gdwifi.c **** }
 390:C:/Users/stapi/OneDrive/Desktop/GD32VW553/V1_MQTT_OK/GD32VW55X_Wifi_BLE_SDK/GD32VW55x_RELEASE_V1.0.2/MSDK/wpa_supplicant/src/utils\os_gdwifi.c **** 
 391:C:/Users/stapi/OneDrive/Desktop/GD32VW553/V1_MQTT_OK/GD32VW55X_Wifi_BLE_SDK/GD32VW55x_RELEASE_V1.0.2/MSDK/wpa_supplicant/src/utils\os_gdwifi.c **** 
 392:C:/Users/stapi/OneDrive/Desktop/GD32VW553/V1_MQTT_OK/GD32VW55X_Wifi_BLE_SDK/GD32VW55x_RELEASE_V1.0.2/MSDK/wpa_supplicant/src/utils\os_gdwifi.c **** 
 393:C:/Users/stapi/OneDrive/Desktop/GD32VW553/V1_MQTT_OK/GD32VW55X_Wifi_BLE_SDK/GD32VW55x_RELEASE_V1.0.2/MSDK/wpa_supplicant/src/utils\os_gdwifi.c **** int os_snprintf(char *str, size_t size, const char *format, ...)
 394:C:/Users/stapi/OneDrive/Desktop/GD32VW553/V1_MQTT_OK/GD32VW55X_Wifi_BLE_SDK/GD32VW55x_RELEASE_V1.0.2/MSDK/wpa_supplicant/src/utils\os_gdwifi.c **** {
 1255              		.loc 1 394 1 is_stmt 1
 1256              		.cfi_startproc
 1257              	.LVL130:
 395:C:/Users/stapi/OneDrive/Desktop/GD32VW553/V1_MQTT_OK/GD32VW55X_Wifi_BLE_SDK/GD32VW55x_RELEASE_V1.0.2/MSDK/wpa_supplicant/src/utils\os_gdwifi.c **** 	int ret;
 1258              		.loc 1 395 2
 396:C:/Users/stapi/OneDrive/Desktop/GD32VW553/V1_MQTT_OK/GD32VW55X_Wifi_BLE_SDK/GD32VW55x_RELEASE_V1.0.2/MSDK/wpa_supplicant/src/utils\os_gdwifi.c **** 	va_list args;
 1259              		.loc 1 396 2
 397:C:/Users/stapi/OneDrive/Desktop/GD32VW553/V1_MQTT_OK/GD32VW55X_Wifi_BLE_SDK/GD32VW55x_RELEASE_V1.0.2/MSDK/wpa_supplicant/src/utils\os_gdwifi.c **** 	va_start(args, format);
 1260              		.loc 1 397 2
 394:C:/Users/stapi/OneDrive/Desktop/GD32VW553/V1_MQTT_OK/GD32VW55X_Wifi_BLE_SDK/GD32VW55x_RELEASE_V1.0.2/MSDK/wpa_supplicant/src/utils\os_gdwifi.c **** 	int ret;
 1261              		.loc 1 394 1 is_stmt 0
 1262 0000 3971     		addi	sp,sp,-64
 1263              		.cfi_def_cfa_offset 64
 1264 0002 36D6     		sw	a3,44(sp)
 1265 0004 3AD8     		sw	a4,48(sp)
 398:C:/Users/stapi/OneDrive/Desktop/GD32VW553/V1_MQTT_OK/GD32VW55X_Wifi_BLE_SDK/GD32VW55x_RELEASE_V1.0.2/MSDK/wpa_supplicant/src/utils\os_gdwifi.c **** 	ret = dbg_vsnprintf(str, size, format, args);
 1266              		.loc 1 398 8
 1267 0006 B286     		mv	a3,a2
 397:C:/Users/stapi/OneDrive/Desktop/GD32VW553/V1_MQTT_OK/GD32VW55X_Wifi_BLE_SDK/GD32VW55x_RELEASE_V1.0.2/MSDK/wpa_supplicant/src/utils\os_gdwifi.c **** 	va_start(args, format);
 1268              		.loc 1 397 2
 1269 0008 7810     		addi	a4,sp,44
 1270              		.loc 1 398 8
 1271 000a 0146     		li	a2,0
 1272              	.LVL131:
 394:C:/Users/stapi/OneDrive/Desktop/GD32VW553/V1_MQTT_OK/GD32VW55X_Wifi_BLE_SDK/GD32VW55x_RELEASE_V1.0.2/MSDK/wpa_supplicant/src/utils\os_gdwifi.c **** 	int ret;
 1273              		.loc 1 394 1
 1274 000c 06CE     		sw	ra,28(sp)
 1275              		.cfi_offset 1, -36
 394:C:/Users/stapi/OneDrive/Desktop/GD32VW553/V1_MQTT_OK/GD32VW55X_Wifi_BLE_SDK/GD32VW55x_RELEASE_V1.0.2/MSDK/wpa_supplicant/src/utils\os_gdwifi.c **** 	int ret;
 1276              		.loc 1 394 1
 1277 000e 3EDA     		sw	a5,52(sp)
 1278 0010 42DC     		sw	a6,56(sp)
 1279 0012 46DE     		sw	a7,60(sp)
 397:C:/Users/stapi/OneDrive/Desktop/GD32VW553/V1_MQTT_OK/GD32VW55X_Wifi_BLE_SDK/GD32VW55x_RELEASE_V1.0.2/MSDK/wpa_supplicant/src/utils\os_gdwifi.c **** 	va_start(args, format);
 1280              		.loc 1 397 2
 1281 0014 3AC6     		sw	a4,12(sp)
 1282              		.loc 1 398 2 is_stmt 1
 1283              		.loc 1 398 8 is_stmt 0
 1284 0016 97000000 		call	dbg_vsnprintf_offset
 1284      E7800000 
 1285              	.LVL132:
 399:C:/Users/stapi/OneDrive/Desktop/GD32VW553/V1_MQTT_OK/GD32VW55X_Wifi_BLE_SDK/GD32VW55x_RELEASE_V1.0.2/MSDK/wpa_supplicant/src/utils\os_gdwifi.c **** 	va_end(args);
 1286              		.loc 1 399 2 is_stmt 1
 400:C:/Users/stapi/OneDrive/Desktop/GD32VW553/V1_MQTT_OK/GD32VW55X_Wifi_BLE_SDK/GD32VW55x_RELEASE_V1.0.2/MSDK/wpa_supplicant/src/utils\os_gdwifi.c **** 
 401:C:/Users/stapi/OneDrive/Desktop/GD32VW553/V1_MQTT_OK/GD32VW55X_Wifi_BLE_SDK/GD32VW55x_RELEASE_V1.0.2/MSDK/wpa_supplicant/src/utils\os_gdwifi.c **** 	return ret;
 1287              		.loc 1 401 2
 402:C:/Users/stapi/OneDrive/Desktop/GD32VW553/V1_MQTT_OK/GD32VW55X_Wifi_BLE_SDK/GD32VW55x_RELEASE_V1.0.2/MSDK/wpa_supplicant/src/utils\os_gdwifi.c **** }
 1288              		.loc 1 402 1 is_stmt 0
 1289 001e F240     		lw	ra,28(sp)
 1290              		.cfi_restore 1
 1291 0020 2161     		addi	sp,sp,64
 1292              		.cfi_def_cfa_offset 0
 1293 0022 8280     		jr	ra
 1294              		.cfi_endproc
 1295              	.LFE108:
 1297              		.section	.rodata.os_exec.str1.4,"aMS",@progbits,1
 1298              		.align	2
 1299              	.LC11:
 1300 0000 544F444F 		.string	"TODO: os_exec"
 1300      3A206F73 
 1300      5F657865 
 1300      6300
 1301              		.section	.text.os_exec,"ax",@progbits
 1302              		.align	1
 1303              		.globl	os_exec
 1305              	os_exec:
 1306              	.LFB109:
 403:C:/Users/stapi/OneDrive/Desktop/GD32VW553/V1_MQTT_OK/GD32VW55X_Wifi_BLE_SDK/GD32VW55x_RELEASE_V1.0.2/MSDK/wpa_supplicant/src/utils\os_gdwifi.c **** #endif /* OS_NO_C_LIB_DEFINES */
 404:C:/Users/stapi/OneDrive/Desktop/GD32VW553/V1_MQTT_OK/GD32VW55X_Wifi_BLE_SDK/GD32VW55x_RELEASE_V1.0.2/MSDK/wpa_supplicant/src/utils\os_gdwifi.c **** 
 405:C:/Users/stapi/OneDrive/Desktop/GD32VW553/V1_MQTT_OK/GD32VW55X_Wifi_BLE_SDK/GD32VW55x_RELEASE_V1.0.2/MSDK/wpa_supplicant/src/utils\os_gdwifi.c **** 
 406:C:/Users/stapi/OneDrive/Desktop/GD32VW553/V1_MQTT_OK/GD32VW55X_Wifi_BLE_SDK/GD32VW55x_RELEASE_V1.0.2/MSDK/wpa_supplicant/src/utils\os_gdwifi.c **** int os_exec(const char *program, const char *arg, int wait_completion)
 407:C:/Users/stapi/OneDrive/Desktop/GD32VW553/V1_MQTT_OK/GD32VW55X_Wifi_BLE_SDK/GD32VW55x_RELEASE_V1.0.2/MSDK/wpa_supplicant/src/utils\os_gdwifi.c **** {
 1307              		.loc 1 407 1 is_stmt 1
 1308              		.cfi_startproc
 1309              	.LVL133:
 1310 0000 17030000 		call	t0,__riscv_save_0
 1310      E7020300 
 1311              		.cfi_offset 1, -4
 1312              		.cfi_def_cfa_offset 16
 408:C:/Users/stapi/OneDrive/Desktop/GD32VW553/V1_MQTT_OK/GD32VW55X_Wifi_BLE_SDK/GD32VW55x_RELEASE_V1.0.2/MSDK/wpa_supplicant/src/utils\os_gdwifi.c **** 	wpa_printf(MSG_INFO, "TODO: os_exec");
 1313              		.loc 1 408 2
 1314 0008 B7050000 		lui	a1,%hi(.LC11)
 1315              	.LVL134:
 1316 000c 93850500 		addi	a1,a1,%lo(.LC11)
 1317 0010 0D45     		li	a0,3
 1318              	.LVL135:
 1319 0012 97000000 		call	wpa_printf
 1319      E7800000 
 1320              	.LVL136:
 409:C:/Users/stapi/OneDrive/Desktop/GD32VW553/V1_MQTT_OK/GD32VW55X_Wifi_BLE_SDK/GD32VW55x_RELEASE_V1.0.2/MSDK/wpa_supplicant/src/utils\os_gdwifi.c **** 	return -1;
 1321              		.loc 1 409 2
 410:C:/Users/stapi/OneDrive/Desktop/GD32VW553/V1_MQTT_OK/GD32VW55X_Wifi_BLE_SDK/GD32VW55x_RELEASE_V1.0.2/MSDK/wpa_supplicant/src/utils\os_gdwifi.c **** }
 1322              		.loc 1 410 1 is_stmt 0
 1323 001a 7D55     		li	a0,-1
 1324 001c 17030000 		tail	__riscv_restore_0
 1324      67000300 
 1325              		.cfi_restore 1
 1326              		.cfi_def_cfa_offset 0
 1327              		.cfi_endproc
 1328              	.LFE109:
 1330              		.section	.rodata
 1331              		.align	2
 1332              		.set	.LANCHOR0,. + 0
 1333              	.LC0:
 1334 0000 1F000000 		.word	31
 1335 0004 1C000000 		.word	28
 1336 0008 1F000000 		.word	31
 1337 000c 1E000000 		.word	30
 1338 0010 1F000000 		.word	31
 1339 0014 1E000000 		.word	30
 1340 0018 1F000000 		.word	31
 1341 001c 1F000000 		.word	31
 1342 0020 1E000000 		.word	30
 1343 0024 1F000000 		.word	31
 1344 0028 1E000000 		.word	30
 1345 002c 1F000000 		.word	31
 1346              		.text
 1347              	.Letext0:
 1348              		.file 2 "c:\\users\\stapi\\onedrive\\desktop\\gd32vw553\\embeddedbuilder_v1.4.7.26843\\tools\\nucl
 1349              		.file 3 "c:\\users\\stapi\\onedrive\\desktop\\gd32vw553\\embeddedbuilder_v1.4.7.26843\\tools\\nucl
 1350              		.file 4 "c:\\users\\stapi\\onedrive\\desktop\\gd32vw553\\embeddedbuilder_v1.4.7.26843\\tools\\nucl
 1351              		.file 5 "c:\\users\\stapi\\onedrive\\desktop\\gd32vw553\\embeddedbuilder_v1.4.7.26843\\tools\\nucl
 1352              		.file 6 "c:\\users\\stapi\\onedrive\\desktop\\gd32vw553\\embeddedbuilder_v1.4.7.26843\\tools\\nucl
 1353              		.file 7 "c:\\users\\stapi\\onedrive\\desktop\\gd32vw553\\embeddedbuilder_v1.4.7.26843\\tools\\nucl
 1354              		.file 8 "c:\\users\\stapi\\onedrive\\desktop\\gd32vw553\\embeddedbuilder_v1.4.7.26843\\tools\\nucl
 1355              		.file 9 "c:\\users\\stapi\\onedrive\\desktop\\gd32vw553\\embeddedbuilder_v1.4.7.26843\\tools\\nucl
 1356              		.file 10 "C:/Users/stapi/OneDrive/Desktop/GD32VW553/V1_MQTT_OK/GD32VW55X_Wifi_BLE_SDK/GD32VW55x_RE
 1357              		.file 11 "C:/Users/stapi/OneDrive/Desktop/GD32VW553/V1_MQTT_OK/GD32VW55X_Wifi_BLE_SDK/GD32VW55x_RE
 1358              		.file 12 "..\\..\\..\\..\\util\\include/debug_print.h"
 1359              		.file 13 "c:\\users\\stapi\\onedrive\\desktop\\gd32vw553\\embeddedbuilder_v1.4.7.26843\\tools\\nuc
 1360              		.file 14 "..\\..\\..\\..\\macsw\\import/rtos_import.h"
 1361              		.file 15 "..\\..\\..\\..\\rtos\\rtos_wrapper/wrapper_os.h"
 1362              		.file 16 "..\\..\\..\\..\\plf\\src\\trng/trng.h"
 1363              		.file 17 "..\\..\\..\\..\\plf\\src\\time/systime.h"
 1364              		.file 18 "<built-in>"
DEFINED SYMBOLS
                            *ABS*:0000000000000000 os_gdwifi.c
C:\Users\stapi\AppData\Local\Temp\ccErmMOj.s:13     .text.os_sleep:0000000000000000 os_sleep
C:\Users\stapi\AppData\Local\Temp\ccErmMOj.s:17     .text.os_sleep:0000000000000000 .L0 
C:\Users\stapi\AppData\Local\Temp\ccErmMOj.s:19     .text.os_sleep:0000000000000000 .L0 
C:\Users\stapi\AppData\Local\Temp\ccErmMOj.s:20     .text.os_sleep:0000000000000000 .L0 
C:\Users\stapi\AppData\Local\Temp\ccErmMOj.s:21     .text.os_sleep:0000000000000000 .L0 
C:\Users\stapi\AppData\Local\Temp\ccErmMOj.s:22     .text.os_sleep:0000000000000000 .L0 
C:\Users\stapi\AppData\Local\Temp\ccErmMOj.s:23     .text.os_sleep:0000000000000000 .L0 
C:\Users\stapi\AppData\Local\Temp\ccErmMOj.s:25     .text.os_sleep:0000000000000004 .L0 
C:\Users\stapi\AppData\Local\Temp\ccErmMOj.s:28     .text.os_sleep:0000000000000008 .L0 
C:\Users\stapi\AppData\Local\Temp\ccErmMOj.s:34     .text.os_sleep:0000000000000016 .L0 
C:\Users\stapi\AppData\Local\Temp\ccErmMOj.s:41     .text.os_get_time:0000000000000000 os_get_time
C:\Users\stapi\AppData\Local\Temp\ccErmMOj.s:44     .text.os_get_time:0000000000000000 .L0 
C:\Users\stapi\AppData\Local\Temp\ccErmMOj.s:46     .text.os_get_time:0000000000000000 .L0 
C:\Users\stapi\AppData\Local\Temp\ccErmMOj.s:47     .text.os_get_time:0000000000000008 .L0 
C:\Users\stapi\AppData\Local\Temp\ccErmMOj.s:48     .text.os_get_time:0000000000000008 .L0 
C:\Users\stapi\AppData\Local\Temp\ccErmMOj.s:49     .text.os_get_time:0000000000000008 .L0 
C:\Users\stapi\AppData\Local\Temp\ccErmMOj.s:51     .text.os_get_time:0000000000000008 .L0 
C:\Users\stapi\AppData\Local\Temp\ccErmMOj.s:52     .text.os_get_time:0000000000000008 .L0 
C:\Users\stapi\AppData\Local\Temp\ccErmMOj.s:53     .text.os_get_time:0000000000000008 .L0 
C:\Users\stapi\AppData\Local\Temp\ccErmMOj.s:54     .text.os_get_time:0000000000000008 .L0 
C:\Users\stapi\AppData\Local\Temp\ccErmMOj.s:55     .text.os_get_time:000000000000000a .L0 
C:\Users\stapi\AppData\Local\Temp\ccErmMOj.s:57     .text.os_get_time:000000000000000a .L0 
C:\Users\stapi\AppData\Local\Temp\ccErmMOj.s:59     .text.os_get_time:000000000000000c .L0 
C:\Users\stapi\AppData\Local\Temp\ccErmMOj.s:66     .text.os_get_time:000000000000001a .L0 
C:\Users\stapi\AppData\Local\Temp\ccErmMOj.s:67     .text.os_get_time:000000000000001a .L0 
C:\Users\stapi\AppData\Local\Temp\ccErmMOj.s:70     .text.os_get_time:000000000000001e .L0 
C:\Users\stapi\AppData\Local\Temp\ccErmMOj.s:71     .text.os_get_time:000000000000001e .L0 
C:\Users\stapi\AppData\Local\Temp\ccErmMOj.s:74     .text.os_get_time:0000000000000022 .L0 
C:\Users\stapi\AppData\Local\Temp\ccErmMOj.s:75     .text.os_get_time:0000000000000022 .L0 
C:\Users\stapi\AppData\Local\Temp\ccErmMOj.s:76     .text.os_get_time:0000000000000024 .L0 
C:\Users\stapi\AppData\Local\Temp\ccErmMOj.s:78     .text.os_get_time:000000000000002c .L0 
C:\Users\stapi\AppData\Local\Temp\ccErmMOj.s:79     .text.os_get_time:000000000000002c .L0 
C:\Users\stapi\AppData\Local\Temp\ccErmMOj.s:80     .text.os_get_time:000000000000002c .L0 
C:\Users\stapi\AppData\Local\Temp\ccErmMOj.s:81     .text.os_get_time:000000000000002c .L0 
C:\Users\stapi\AppData\Local\Temp\ccErmMOj.s:88     .text.os_get_reltime:0000000000000000 os_get_reltime
C:\Users\stapi\AppData\Local\Temp\ccErmMOj.s:91     .text.os_get_reltime:0000000000000000 .L0 
C:\Users\stapi\AppData\Local\Temp\ccErmMOj.s:93     .text.os_get_reltime:0000000000000000 .L0 
C:\Users\stapi\AppData\Local\Temp\ccErmMOj.s:94     .text.os_get_reltime:0000000000000008 .L0 
C:\Users\stapi\AppData\Local\Temp\ccErmMOj.s:95     .text.os_get_reltime:0000000000000008 .L0 
C:\Users\stapi\AppData\Local\Temp\ccErmMOj.s:96     .text.os_get_reltime:0000000000000008 .L0 
C:\Users\stapi\AppData\Local\Temp\ccErmMOj.s:98     .text.os_get_reltime:0000000000000008 .L0 
C:\Users\stapi\AppData\Local\Temp\ccErmMOj.s:99     .text.os_get_reltime:0000000000000008 .L0 
C:\Users\stapi\AppData\Local\Temp\ccErmMOj.s:100    .text.os_get_reltime:0000000000000008 .L0 
C:\Users\stapi\AppData\Local\Temp\ccErmMOj.s:101    .text.os_get_reltime:0000000000000008 .L0 
C:\Users\stapi\AppData\Local\Temp\ccErmMOj.s:102    .text.os_get_reltime:000000000000000a .L0 
C:\Users\stapi\AppData\Local\Temp\ccErmMOj.s:104    .text.os_get_reltime:000000000000000a .L0 
C:\Users\stapi\AppData\Local\Temp\ccErmMOj.s:106    .text.os_get_reltime:000000000000000c .L0 
C:\Users\stapi\AppData\Local\Temp\ccErmMOj.s:113    .text.os_get_reltime:000000000000001a .L0 
C:\Users\stapi\AppData\Local\Temp\ccErmMOj.s:114    .text.os_get_reltime:000000000000001a .L0 
C:\Users\stapi\AppData\Local\Temp\ccErmMOj.s:117    .text.os_get_reltime:000000000000001e .L0 
C:\Users\stapi\AppData\Local\Temp\ccErmMOj.s:118    .text.os_get_reltime:000000000000001e .L0 
C:\Users\stapi\AppData\Local\Temp\ccErmMOj.s:121    .text.os_get_reltime:0000000000000022 .L0 
C:\Users\stapi\AppData\Local\Temp\ccErmMOj.s:122    .text.os_get_reltime:0000000000000022 .L0 
C:\Users\stapi\AppData\Local\Temp\ccErmMOj.s:123    .text.os_get_reltime:0000000000000024 .L0 
C:\Users\stapi\AppData\Local\Temp\ccErmMOj.s:125    .text.os_get_reltime:000000000000002c .L0 
C:\Users\stapi\AppData\Local\Temp\ccErmMOj.s:126    .text.os_get_reltime:000000000000002c .L0 
C:\Users\stapi\AppData\Local\Temp\ccErmMOj.s:127    .text.os_get_reltime:000000000000002c .L0 
C:\Users\stapi\AppData\Local\Temp\ccErmMOj.s:128    .text.os_get_reltime:000000000000002c .L0 
C:\Users\stapi\AppData\Local\Temp\ccErmMOj.s:135    .text.os_mktime:0000000000000000 os_mktime
C:\Users\stapi\AppData\Local\Temp\ccErmMOj.s:138    .text.os_mktime:0000000000000000 .L0 
C:\Users\stapi\AppData\Local\Temp\ccErmMOj.s:140    .text.os_mktime:0000000000000000 .L0 
C:\Users\stapi\AppData\Local\Temp\ccErmMOj.s:141    .text.os_mktime:0000000000000008 .L0 
C:\Users\stapi\AppData\Local\Temp\ccErmMOj.s:142    .text.os_mktime:0000000000000008 .L0 
C:\Users\stapi\AppData\Local\Temp\ccErmMOj.s:143    .text.os_mktime:0000000000000008 .L0 
C:\Users\stapi\AppData\Local\Temp\ccErmMOj.s:144    .text.os_mktime:0000000000000008 .L0 
C:\Users\stapi\AppData\Local\Temp\ccErmMOj.s:145    .text.os_mktime:0000000000000008 .L0 
C:\Users\stapi\AppData\Local\Temp\ccErmMOj.s:146    .text.os_mktime:0000000000000008 .L0 
C:\Users\stapi\AppData\Local\Temp\ccErmMOj.s:147    .text.os_mktime:0000000000000008 .L0 
C:\Users\stapi\AppData\Local\Temp\ccErmMOj.s:148    .text.os_mktime:0000000000000008 .L0 
C:\Users\stapi\AppData\Local\Temp\ccErmMOj.s:149    .text.os_mktime:0000000000000008 .L0 
C:\Users\stapi\AppData\Local\Temp\ccErmMOj.s:150    .text.os_mktime:0000000000000008 .L0 
C:\Users\stapi\AppData\Local\Temp\ccErmMOj.s:153    .text.os_mktime:0000000000000008 .L0 
C:\Users\stapi\AppData\Local\Temp\ccErmMOj.s:154    .text.os_mktime:0000000000000008 .L0 
C:\Users\stapi\AppData\Local\Temp\ccErmMOj.s:155    .text.os_mktime:0000000000000008 .L0 
C:\Users\stapi\AppData\Local\Temp\ccErmMOj.s:156    .text.os_mktime:0000000000000008 .L0 
C:\Users\stapi\AppData\Local\Temp\ccErmMOj.s:157    .text.os_mktime:000000000000000a .L0 
C:\Users\stapi\AppData\Local\Temp\ccErmMOj.s:159    .text.os_mktime:000000000000000a .L0 
C:\Users\stapi\AppData\Local\Temp\ccErmMOj.s:161    .text.os_mktime:000000000000000c .L0 
C:\Users\stapi\AppData\Local\Temp\ccErmMOj.s:164    .text.os_mktime:0000000000000010 .L0 
C:\Users\stapi\AppData\Local\Temp\ccErmMOj.s:167    .text.os_mktime:0000000000000014 .L0 
C:\Users\stapi\AppData\Local\Temp\ccErmMOj.s:168    .text.os_mktime:0000000000000014 .L0 
C:\Users\stapi\AppData\Local\Temp\ccErmMOj.s:171    .text.os_mktime:0000000000000018 .L0 
C:\Users\stapi\AppData\Local\Temp\ccErmMOj.s:177    .text.os_mktime:0000000000000022 .L0 
C:\Users\stapi\AppData\Local\Temp\ccErmMOj.s:182    .text.os_mktime:000000000000002a .L0 
C:\Users\stapi\AppData\Local\Temp\ccErmMOj.s:185    .text.os_mktime:0000000000000032 .L0 
C:\Users\stapi\AppData\Local\Temp\ccErmMOj.s:186    .text.os_mktime:0000000000000032 .L0 
C:\Users\stapi\AppData\Local\Temp\ccErmMOj.s:188    .text.os_mktime:0000000000000034 .L0 
C:\Users\stapi\AppData\Local\Temp\ccErmMOj.s:191    .text.os_mktime:000000000000003c .L0 
C:\Users\stapi\AppData\Local\Temp\ccErmMOj.s:193    .text.os_mktime:0000000000000040 .L0 
C:\Users\stapi\AppData\Local\Temp\ccErmMOj.s:195    .text.os_mktime:0000000000000044 .L0 
C:\Users\stapi\AppData\Local\Temp\ccErmMOj.s:197    .text.os_mktime:0000000000000048 .L0 
C:\Users\stapi\AppData\Local\Temp\ccErmMOj.s:199    .text.os_mktime:000000000000004c .L0 
C:\Users\stapi\AppData\Local\Temp\ccErmMOj.s:202    .text.os_mktime:000000000000004e .L0 
C:\Users\stapi\AppData\Local\Temp\ccErmMOj.s:203    .text.os_mktime:000000000000004e .L0 
C:\Users\stapi\AppData\Local\Temp\ccErmMOj.s:204    .text.os_mktime:000000000000004e .L0 
C:\Users\stapi\AppData\Local\Temp\ccErmMOj.s:206    .text.os_mktime:0000000000000052 .L0 
C:\Users\stapi\AppData\Local\Temp\ccErmMOj.s:209    .text.os_mktime:0000000000000054 .L0 
C:\Users\stapi\AppData\Local\Temp\ccErmMOj.s:212    .text.os_mktime:0000000000000058 .L0 
C:\Users\stapi\AppData\Local\Temp\ccErmMOj.s:214    .text.os_mktime:000000000000005a .L0 
C:\Users\stapi\AppData\Local\Temp\ccErmMOj.s:218    .text.os_mktime:000000000000005c .L0 
C:\Users\stapi\AppData\Local\Temp\ccErmMOj.s:219    .text.os_mktime:000000000000005c .L0 
C:\Users\stapi\AppData\Local\Temp\ccErmMOj.s:221    .text.os_mktime:0000000000000060 .L0 
C:\Users\stapi\AppData\Local\Temp\ccErmMOj.s:222    .text.os_mktime:0000000000000060 .L0 
C:\Users\stapi\AppData\Local\Temp\ccErmMOj.s:226    .text.os_mktime:0000000000000066 .L0 
C:\Users\stapi\AppData\Local\Temp\ccErmMOj.s:227    .text.os_mktime:0000000000000066 .L0 
C:\Users\stapi\AppData\Local\Temp\ccErmMOj.s:229    .text.os_mktime:000000000000006a .L0 
C:\Users\stapi\AppData\Local\Temp\ccErmMOj.s:233    .text.os_mktime:0000000000000074 .L0 
C:\Users\stapi\AppData\Local\Temp\ccErmMOj.s:238    .text.os_mktime:000000000000007e .L0 
C:\Users\stapi\AppData\Local\Temp\ccErmMOj.s:241    .text.os_mktime:0000000000000080 .L0 
C:\Users\stapi\AppData\Local\Temp\ccErmMOj.s:242    .text.os_mktime:0000000000000080 .L0 
C:\Users\stapi\AppData\Local\Temp\ccErmMOj.s:246    .text.os_mktime:0000000000000082 .L0 
C:\Users\stapi\AppData\Local\Temp\ccErmMOj.s:247    .text.os_mktime:0000000000000082 .L0 
C:\Users\stapi\AppData\Local\Temp\ccErmMOj.s:248    .text.os_mktime:0000000000000082 .L0 
C:\Users\stapi\AppData\Local\Temp\ccErmMOj.s:249    .text.os_mktime:0000000000000082 .L0 
C:\Users\stapi\AppData\Local\Temp\ccErmMOj.s:250    .text.os_mktime:0000000000000082 .L0 
C:\Users\stapi\AppData\Local\Temp\ccErmMOj.s:251    .text.os_mktime:0000000000000082 .L0 
C:\Users\stapi\AppData\Local\Temp\ccErmMOj.s:254    .text.os_mktime:000000000000008a .L0 
C:\Users\stapi\AppData\Local\Temp\ccErmMOj.s:257    .text.os_mktime:0000000000000090 .L0 
C:\Users\stapi\AppData\Local\Temp\ccErmMOj.s:261    .text.os_mktime:0000000000000098 .L0 
C:\Users\stapi\AppData\Local\Temp\ccErmMOj.s:265    .text.os_mktime:000000000000009e .L0 
C:\Users\stapi\AppData\Local\Temp\ccErmMOj.s:267    .text.os_mktime:00000000000000a0 .L0 
C:\Users\stapi\AppData\Local\Temp\ccErmMOj.s:269    .text.os_mktime:00000000000000a4 .L0 
C:\Users\stapi\AppData\Local\Temp\ccErmMOj.s:271    .text.os_mktime:00000000000000a6 .L0 
C:\Users\stapi\AppData\Local\Temp\ccErmMOj.s:273    .text.os_mktime:00000000000000a8 .L0 
C:\Users\stapi\AppData\Local\Temp\ccErmMOj.s:277    .text.os_mktime:00000000000000b2 .L0 
C:\Users\stapi\AppData\Local\Temp\ccErmMOj.s:279    .text.os_mktime:00000000000000b6 .L0 
C:\Users\stapi\AppData\Local\Temp\ccErmMOj.s:280    .text.os_mktime:00000000000000b6 .L0 
C:\Users\stapi\AppData\Local\Temp\ccErmMOj.s:281    .text.os_mktime:00000000000000b8 .L0 
C:\Users\stapi\AppData\Local\Temp\ccErmMOj.s:282    .text.os_mktime:00000000000000b8 .L0 
C:\Users\stapi\AppData\Local\Temp\ccErmMOj.s:284    .text.os_mktime:00000000000000c0 .L0 
C:\Users\stapi\AppData\Local\Temp\ccErmMOj.s:285    .text.os_mktime:00000000000000c0 .L0 
C:\Users\stapi\AppData\Local\Temp\ccErmMOj.s:286    .text.os_mktime:00000000000000c0 .L0 
C:\Users\stapi\AppData\Local\Temp\ccErmMOj.s:287    .text.os_mktime:00000000000000c0 .L0 
C:\Users\stapi\AppData\Local\Temp\ccErmMOj.s:288    .text.os_mktime:00000000000000c0 .L0 
C:\Users\stapi\AppData\Local\Temp\ccErmMOj.s:289    .text.os_mktime:00000000000000c0 .L0 
C:\Users\stapi\AppData\Local\Temp\ccErmMOj.s:290    .text.os_mktime:00000000000000c0 .L0 
C:\Users\stapi\AppData\Local\Temp\ccErmMOj.s:291    .text.os_mktime:00000000000000c0 .L0 
C:\Users\stapi\AppData\Local\Temp\ccErmMOj.s:292    .text.os_mktime:00000000000000c0 .L0 
C:\Users\stapi\AppData\Local\Temp\ccErmMOj.s:293    .text.os_mktime:00000000000000c0 .L0 
C:\Users\stapi\AppData\Local\Temp\ccErmMOj.s:296    .text.os_mktime:00000000000000c0 .L0 
C:\Users\stapi\AppData\Local\Temp\ccErmMOj.s:298    .text.os_mktime:00000000000000c0 .L0 
C:\Users\stapi\AppData\Local\Temp\ccErmMOj.s:299    .text.os_mktime:00000000000000c0 .L0 
C:\Users\stapi\AppData\Local\Temp\ccErmMOj.s:301    .text.os_mktime:00000000000000c2 .L0 
C:\Users\stapi\AppData\Local\Temp\ccErmMOj.s:305    .text.os_mktime:00000000000000c6 .L0 
C:\Users\stapi\AppData\Local\Temp\ccErmMOj.s:308    .text.os_mktime:00000000000000c8 .L0 
C:\Users\stapi\AppData\Local\Temp\ccErmMOj.s:309    .text.os_mktime:00000000000000ca .L0 
C:\Users\stapi\AppData\Local\Temp\ccErmMOj.s:320    .text.os_gmtime:0000000000000000 os_gmtime
C:\Users\stapi\AppData\Local\Temp\ccErmMOj.s:323    .text.os_gmtime:0000000000000000 .L0 
C:\Users\stapi\AppData\Local\Temp\ccErmMOj.s:325    .text.os_gmtime:0000000000000000 .L0 
C:\Users\stapi\AppData\Local\Temp\ccErmMOj.s:326    .text.os_gmtime:0000000000000008 .L0 
C:\Users\stapi\AppData\Local\Temp\ccErmMOj.s:327    .text.os_gmtime:0000000000000008 .L0 
C:\Users\stapi\AppData\Local\Temp\ccErmMOj.s:329    .text.os_gmtime:0000000000000008 .L0 
C:\Users\stapi\AppData\Local\Temp\ccErmMOj.s:337    .text.os_gmtime:000000000000001a .L0 
C:\Users\stapi\AppData\Local\Temp\ccErmMOj.s:338    .text.os_gmtime:000000000000001a .L0 
C:\Users\stapi\AppData\Local\Temp\ccErmMOj.s:340    .text.os_gmtime:0000000000000024 .L0 
C:\Users\stapi\AppData\Local\Temp\ccErmMOj.s:341    .text.os_gmtime:0000000000000024 .L0 
C:\Users\stapi\AppData\Local\Temp\ccErmMOj.s:342    .text.os_gmtime:0000000000000024 .L0 
C:\Users\stapi\AppData\Local\Temp\ccErmMOj.s:353    .text.os_daemonize:0000000000000000 os_daemonize
C:\Users\stapi\AppData\Local\Temp\ccErmMOj.s:356    .text.os_daemonize:0000000000000000 .L0 
C:\Users\stapi\AppData\Local\Temp\ccErmMOj.s:358    .text.os_daemonize:0000000000000000 .L0 
C:\Users\stapi\AppData\Local\Temp\ccErmMOj.s:359    .text.os_daemonize:0000000000000008 .L0 
C:\Users\stapi\AppData\Local\Temp\ccErmMOj.s:360    .text.os_daemonize:0000000000000008 .L0 
C:\Users\stapi\AppData\Local\Temp\ccErmMOj.s:362    .text.os_daemonize:0000000000000008 .L0 
C:\Users\stapi\AppData\Local\Temp\ccErmMOj.s:369    .text.os_daemonize:000000000000001a .L0 
C:\Users\stapi\AppData\Local\Temp\ccErmMOj.s:370    .text.os_daemonize:000000000000001a .L0 
C:\Users\stapi\AppData\Local\Temp\ccErmMOj.s:372    .text.os_daemonize:0000000000000024 .L0 
C:\Users\stapi\AppData\Local\Temp\ccErmMOj.s:373    .text.os_daemonize:0000000000000024 .L0 
C:\Users\stapi\AppData\Local\Temp\ccErmMOj.s:374    .text.os_daemonize:0000000000000024 .L0 
C:\Users\stapi\AppData\Local\Temp\ccErmMOj.s:385    .text.os_daemonize_terminate:0000000000000000 os_daemonize_terminate
C:\Users\stapi\AppData\Local\Temp\ccErmMOj.s:388    .text.os_daemonize_terminate:0000000000000000 .L0 
C:\Users\stapi\AppData\Local\Temp\ccErmMOj.s:390    .text.os_daemonize_terminate:0000000000000000 .L0 
C:\Users\stapi\AppData\Local\Temp\ccErmMOj.s:391    .text.os_daemonize_terminate:0000000000000000 .L0 
C:\Users\stapi\AppData\Local\Temp\ccErmMOj.s:397    .text.os_daemonize_terminate:0000000000000012 .L0 
C:\Users\stapi\AppData\Local\Temp\ccErmMOj.s:404    .text.os_get_random:0000000000000000 os_get_random
C:\Users\stapi\AppData\Local\Temp\ccErmMOj.s:407    .text.os_get_random:0000000000000000 .L0 
C:\Users\stapi\AppData\Local\Temp\ccErmMOj.s:409    .text.os_get_random:0000000000000000 .L0 
C:\Users\stapi\AppData\Local\Temp\ccErmMOj.s:410    .text.os_get_random:0000000000000008 .L0 
C:\Users\stapi\AppData\Local\Temp\ccErmMOj.s:411    .text.os_get_random:0000000000000008 .L0 
C:\Users\stapi\AppData\Local\Temp\ccErmMOj.s:413    .text.os_get_random:0000000000000008 .L0 
C:\Users\stapi\AppData\Local\Temp\ccErmMOj.s:416    .text.os_get_random:0000000000000010 .L0 
C:\Users\stapi\AppData\Local\Temp\ccErmMOj.s:417    .text.os_get_random:0000000000000010 .L0 
C:\Users\stapi\AppData\Local\Temp\ccErmMOj.s:419    .text.os_get_random:000000000000001a .L0 
C:\Users\stapi\AppData\Local\Temp\ccErmMOj.s:420    .text.os_get_random:000000000000001a .L0 
C:\Users\stapi\AppData\Local\Temp\ccErmMOj.s:421    .text.os_get_random:000000000000001a .L0 
C:\Users\stapi\AppData\Local\Temp\ccErmMOj.s:428    .text.os_random:0000000000000000 os_random
C:\Users\stapi\AppData\Local\Temp\ccErmMOj.s:431    .text.os_random:0000000000000000 .L0 
C:\Users\stapi\AppData\Local\Temp\ccErmMOj.s:432    .text.os_random:0000000000000000 .L0 
C:\Users\stapi\AppData\Local\Temp\ccErmMOj.s:433    .text.os_random:0000000000000008 .L0 
C:\Users\stapi\AppData\Local\Temp\ccErmMOj.s:434    .text.os_random:0000000000000008 .L0 
C:\Users\stapi\AppData\Local\Temp\ccErmMOj.s:436    .text.os_random:0000000000000008 .L0 
C:\Users\stapi\AppData\Local\Temp\ccErmMOj.s:437    .text.os_random:0000000000000008 .L0 
C:\Users\stapi\AppData\Local\Temp\ccErmMOj.s:438    .text.os_random:000000000000000a .L0 
C:\Users\stapi\AppData\Local\Temp\ccErmMOj.s:440    .text.os_random:000000000000000a .L0 
C:\Users\stapi\AppData\Local\Temp\ccErmMOj.s:443    .text.os_random:000000000000000e .L0 
C:\Users\stapi\AppData\Local\Temp\ccErmMOj.s:445    .text.os_random:0000000000000010 .L0 
C:\Users\stapi\AppData\Local\Temp\ccErmMOj.s:448    .text.os_random:0000000000000018 .L0 
C:\Users\stapi\AppData\Local\Temp\ccErmMOj.s:449    .text.os_random:0000000000000018 .L0 
C:\Users\stapi\AppData\Local\Temp\ccErmMOj.s:451    .text.os_random:000000000000001c .L0 
C:\Users\stapi\AppData\Local\Temp\ccErmMOj.s:453    .text.os_random:0000000000000024 .L0 
C:\Users\stapi\AppData\Local\Temp\ccErmMOj.s:454    .text.os_random:0000000000000024 .L0 
C:\Users\stapi\AppData\Local\Temp\ccErmMOj.s:455    .text.os_random:0000000000000024 .L0 
C:\Users\stapi\AppData\Local\Temp\ccErmMOj.s:466    .text.os_rel2abs_path:0000000000000000 os_rel2abs_path
C:\Users\stapi\AppData\Local\Temp\ccErmMOj.s:469    .text.os_rel2abs_path:0000000000000000 .L0 
C:\Users\stapi\AppData\Local\Temp\ccErmMOj.s:471    .text.os_rel2abs_path:0000000000000000 .L0 
C:\Users\stapi\AppData\Local\Temp\ccErmMOj.s:472    .text.os_rel2abs_path:0000000000000008 .L0 
C:\Users\stapi\AppData\Local\Temp\ccErmMOj.s:473    .text.os_rel2abs_path:0000000000000008 .L0 
C:\Users\stapi\AppData\Local\Temp\ccErmMOj.s:475    .text.os_rel2abs_path:0000000000000008 .L0 
C:\Users\stapi\AppData\Local\Temp\ccErmMOj.s:482    .text.os_rel2abs_path:000000000000001a .L0 
C:\Users\stapi\AppData\Local\Temp\ccErmMOj.s:483    .text.os_rel2abs_path:000000000000001a .L0 
C:\Users\stapi\AppData\Local\Temp\ccErmMOj.s:485    .text.os_rel2abs_path:0000000000000024 .L0 
C:\Users\stapi\AppData\Local\Temp\ccErmMOj.s:486    .text.os_rel2abs_path:0000000000000024 .L0 
C:\Users\stapi\AppData\Local\Temp\ccErmMOj.s:487    .text.os_rel2abs_path:0000000000000024 .L0 
C:\Users\stapi\AppData\Local\Temp\ccErmMOj.s:498    .text.os_program_init:0000000000000000 os_program_init
C:\Users\stapi\AppData\Local\Temp\ccErmMOj.s:501    .text.os_program_init:0000000000000000 .L0 
C:\Users\stapi\AppData\Local\Temp\ccErmMOj.s:502    .text.os_program_init:0000000000000000 .L0 
C:\Users\stapi\AppData\Local\Temp\ccErmMOj.s:503    .text.os_program_init:0000000000000008 .L0 
C:\Users\stapi\AppData\Local\Temp\ccErmMOj.s:504    .text.os_program_init:0000000000000008 .L0 
C:\Users\stapi\AppData\Local\Temp\ccErmMOj.s:506    .text.os_program_init:0000000000000008 .L0 
C:\Users\stapi\AppData\Local\Temp\ccErmMOj.s:512    .text.os_program_init:000000000000001a .L0 
C:\Users\stapi\AppData\Local\Temp\ccErmMOj.s:513    .text.os_program_init:000000000000001a .L0 
C:\Users\stapi\AppData\Local\Temp\ccErmMOj.s:515    .text.os_program_init:0000000000000024 .L0 
C:\Users\stapi\AppData\Local\Temp\ccErmMOj.s:516    .text.os_program_init:0000000000000024 .L0 
C:\Users\stapi\AppData\Local\Temp\ccErmMOj.s:517    .text.os_program_init:0000000000000024 .L0 
C:\Users\stapi\AppData\Local\Temp\ccErmMOj.s:528    .text.os_program_deinit:0000000000000000 os_program_deinit
C:\Users\stapi\AppData\Local\Temp\ccErmMOj.s:531    .text.os_program_deinit:0000000000000000 .L0 
C:\Users\stapi\AppData\Local\Temp\ccErmMOj.s:532    .text.os_program_deinit:0000000000000000 .L0 
C:\Users\stapi\AppData\Local\Temp\ccErmMOj.s:533    .text.os_program_deinit:0000000000000000 .L0 
C:\Users\stapi\AppData\Local\Temp\ccErmMOj.s:538    .text.os_program_deinit:0000000000000012 .L0 
C:\Users\stapi\AppData\Local\Temp\ccErmMOj.s:549    .text.os_setenv:0000000000000000 os_setenv
C:\Users\stapi\AppData\Local\Temp\ccErmMOj.s:552    .text.os_setenv:0000000000000000 .L0 
C:\Users\stapi\AppData\Local\Temp\ccErmMOj.s:554    .text.os_setenv:0000000000000000 .L0 
C:\Users\stapi\AppData\Local\Temp\ccErmMOj.s:555    .text.os_setenv:0000000000000008 .L0 
C:\Users\stapi\AppData\Local\Temp\ccErmMOj.s:556    .text.os_setenv:0000000000000008 .L0 
C:\Users\stapi\AppData\Local\Temp\ccErmMOj.s:558    .text.os_setenv:0000000000000008 .L0 
C:\Users\stapi\AppData\Local\Temp\ccErmMOj.s:566    .text.os_setenv:000000000000001a .L0 
C:\Users\stapi\AppData\Local\Temp\ccErmMOj.s:567    .text.os_setenv:000000000000001a .L0 
C:\Users\stapi\AppData\Local\Temp\ccErmMOj.s:569    .text.os_setenv:0000000000000024 .L0 
C:\Users\stapi\AppData\Local\Temp\ccErmMOj.s:570    .text.os_setenv:0000000000000024 .L0 
C:\Users\stapi\AppData\Local\Temp\ccErmMOj.s:571    .text.os_setenv:0000000000000024 .L0 
C:\Users\stapi\AppData\Local\Temp\ccErmMOj.s:582    .text.os_unsetenv:0000000000000000 os_unsetenv
C:\Users\stapi\AppData\Local\Temp\ccErmMOj.s:585    .text.os_unsetenv:0000000000000000 .L0 
C:\Users\stapi\AppData\Local\Temp\ccErmMOj.s:587    .text.os_unsetenv:0000000000000000 .L0 
C:\Users\stapi\AppData\Local\Temp\ccErmMOj.s:588    .text.os_unsetenv:0000000000000008 .L0 
C:\Users\stapi\AppData\Local\Temp\ccErmMOj.s:589    .text.os_unsetenv:0000000000000008 .L0 
C:\Users\stapi\AppData\Local\Temp\ccErmMOj.s:591    .text.os_unsetenv:0000000000000008 .L0 
C:\Users\stapi\AppData\Local\Temp\ccErmMOj.s:598    .text.os_unsetenv:000000000000001a .L0 
C:\Users\stapi\AppData\Local\Temp\ccErmMOj.s:599    .text.os_unsetenv:000000000000001a .L0 
C:\Users\stapi\AppData\Local\Temp\ccErmMOj.s:601    .text.os_unsetenv:0000000000000024 .L0 
C:\Users\stapi\AppData\Local\Temp\ccErmMOj.s:602    .text.os_unsetenv:0000000000000024 .L0 
C:\Users\stapi\AppData\Local\Temp\ccErmMOj.s:603    .text.os_unsetenv:0000000000000024 .L0 
C:\Users\stapi\AppData\Local\Temp\ccErmMOj.s:614    .text.os_readfile:0000000000000000 os_readfile
C:\Users\stapi\AppData\Local\Temp\ccErmMOj.s:617    .text.os_readfile:0000000000000000 .L0 
C:\Users\stapi\AppData\Local\Temp\ccErmMOj.s:619    .text.os_readfile:0000000000000000 .L0 
C:\Users\stapi\AppData\Local\Temp\ccErmMOj.s:620    .text.os_readfile:0000000000000008 .L0 
C:\Users\stapi\AppData\Local\Temp\ccErmMOj.s:621    .text.os_readfile:0000000000000008 .L0 
C:\Users\stapi\AppData\Local\Temp\ccErmMOj.s:623    .text.os_readfile:0000000000000008 .L0 
C:\Users\stapi\AppData\Local\Temp\ccErmMOj.s:631    .text.os_readfile:000000000000001a .L0 
C:\Users\stapi\AppData\Local\Temp\ccErmMOj.s:632    .text.os_readfile:000000000000001a .L0 
C:\Users\stapi\AppData\Local\Temp\ccErmMOj.s:634    .text.os_readfile:0000000000000024 .L0 
C:\Users\stapi\AppData\Local\Temp\ccErmMOj.s:635    .text.os_readfile:0000000000000024 .L0 
C:\Users\stapi\AppData\Local\Temp\ccErmMOj.s:636    .text.os_readfile:0000000000000024 .L0 
C:\Users\stapi\AppData\Local\Temp\ccErmMOj.s:647    .text.os_fdatasync:0000000000000000 os_fdatasync
C:\Users\stapi\AppData\Local\Temp\ccErmMOj.s:650    .text.os_fdatasync:0000000000000000 .L0 
C:\Users\stapi\AppData\Local\Temp\ccErmMOj.s:652    .text.os_fdatasync:0000000000000000 .L0 
C:\Users\stapi\AppData\Local\Temp\ccErmMOj.s:653    .text.os_fdatasync:0000000000000008 .L0 
C:\Users\stapi\AppData\Local\Temp\ccErmMOj.s:654    .text.os_fdatasync:0000000000000008 .L0 
C:\Users\stapi\AppData\Local\Temp\ccErmMOj.s:656    .text.os_fdatasync:0000000000000008 .L0 
C:\Users\stapi\AppData\Local\Temp\ccErmMOj.s:663    .text.os_fdatasync:000000000000001a .L0 
C:\Users\stapi\AppData\Local\Temp\ccErmMOj.s:664    .text.os_fdatasync:000000000000001a .L0 
C:\Users\stapi\AppData\Local\Temp\ccErmMOj.s:666    .text.os_fdatasync:0000000000000024 .L0 
C:\Users\stapi\AppData\Local\Temp\ccErmMOj.s:667    .text.os_fdatasync:0000000000000024 .L0 
C:\Users\stapi\AppData\Local\Temp\ccErmMOj.s:668    .text.os_fdatasync:0000000000000024 .L0 
C:\Users\stapi\AppData\Local\Temp\ccErmMOj.s:675    .text.os_malloc:0000000000000000 os_malloc
C:\Users\stapi\AppData\Local\Temp\ccErmMOj.s:678    .text.os_malloc:0000000000000000 .L0 
C:\Users\stapi\AppData\Local\Temp\ccErmMOj.s:680    .text.os_malloc:0000000000000000 .L0 
C:\Users\stapi\AppData\Local\Temp\ccErmMOj.s:681    .text.os_malloc:0000000000000000 .L0 
C:\Users\stapi\AppData\Local\Temp\ccErmMOj.s:682    .text.os_malloc:0000000000000000 .L0 
C:\Users\stapi\AppData\Local\Temp\ccErmMOj.s:684    .text.os_malloc:0000000000000008 .L0 
C:\Users\stapi\AppData\Local\Temp\ccErmMOj.s:691    .text.os_realloc:0000000000000000 os_realloc
C:\Users\stapi\AppData\Local\Temp\ccErmMOj.s:694    .text.os_realloc:0000000000000000 .L0 
C:\Users\stapi\AppData\Local\Temp\ccErmMOj.s:696    .text.os_realloc:0000000000000000 .L0 
C:\Users\stapi\AppData\Local\Temp\ccErmMOj.s:697    .text.os_realloc:0000000000000000 .L0 
C:\Users\stapi\AppData\Local\Temp\ccErmMOj.s:698    .text.os_realloc:0000000000000000 .L0 
C:\Users\stapi\AppData\Local\Temp\ccErmMOj.s:700    .text.os_realloc:0000000000000008 .L0 
C:\Users\stapi\AppData\Local\Temp\ccErmMOj.s:707    .text.os_free:0000000000000000 os_free
C:\Users\stapi\AppData\Local\Temp\ccErmMOj.s:710    .text.os_free:0000000000000000 .L0 
C:\Users\stapi\AppData\Local\Temp\ccErmMOj.s:712    .text.os_free:0000000000000000 .L0 
C:\Users\stapi\AppData\Local\Temp\ccErmMOj.s:713    .text.os_free:0000000000000000 .L0 
C:\Users\stapi\AppData\Local\Temp\ccErmMOj.s:714    .text.os_free:0000000000000000 .L0 
C:\Users\stapi\AppData\Local\Temp\ccErmMOj.s:716    .text.os_free:0000000000000002 .L0 
C:\Users\stapi\AppData\Local\Temp\ccErmMOj.s:720    .text.os_free:000000000000000c .L0 
C:\Users\stapi\AppData\Local\Temp\ccErmMOj.s:727    .text.os_memcpy:0000000000000000 os_memcpy
C:\Users\stapi\AppData\Local\Temp\ccErmMOj.s:730    .text.os_memcpy:0000000000000000 .L0 
C:\Users\stapi\AppData\Local\Temp\ccErmMOj.s:732    .text.os_memcpy:0000000000000000 .L0 
C:\Users\stapi\AppData\Local\Temp\ccErmMOj.s:733    .text.os_memcpy:0000000000000000 .L0 
C:\Users\stapi\AppData\Local\Temp\ccErmMOj.s:734    .text.os_memcpy:0000000000000000 .L0 
C:\Users\stapi\AppData\Local\Temp\ccErmMOj.s:736    .text.os_memcpy:0000000000000008 .L0 
C:\Users\stapi\AppData\Local\Temp\ccErmMOj.s:743    .text.os_memdup:0000000000000000 os_memdup
C:\Users\stapi\AppData\Local\Temp\ccErmMOj.s:746    .text.os_memdup:0000000000000000 .L0 
C:\Users\stapi\AppData\Local\Temp\ccErmMOj.s:748    .text.os_memdup:0000000000000000 .L0 
C:\Users\stapi\AppData\Local\Temp\ccErmMOj.s:749    .text.os_memdup:0000000000000008 .L0 
C:\Users\stapi\AppData\Local\Temp\ccErmMOj.s:750    .text.os_memdup:0000000000000008 .L0 
C:\Users\stapi\AppData\Local\Temp\ccErmMOj.s:751    .text.os_memdup:0000000000000008 .L0 
C:\Users\stapi\AppData\Local\Temp\ccErmMOj.s:752    .text.os_memdup:0000000000000008 .L0 
C:\Users\stapi\AppData\Local\Temp\ccErmMOj.s:756    .text.os_memdup:0000000000000008 .L0 
C:\Users\stapi\AppData\Local\Temp\ccErmMOj.s:759    .text.os_memdup:0000000000000008 .L0 
C:\Users\stapi\AppData\Local\Temp\ccErmMOj.s:760    .text.os_memdup:0000000000000008 .L0 
C:\Users\stapi\AppData\Local\Temp\ccErmMOj.s:761    .text.os_memdup:000000000000000a .L0 
C:\Users\stapi\AppData\Local\Temp\ccErmMOj.s:763    .text.os_memdup:000000000000000a .L0 
C:\Users\stapi\AppData\Local\Temp\ccErmMOj.s:767    .text.os_memdup:000000000000000c .L0 
C:\Users\stapi\AppData\Local\Temp\ccErmMOj.s:777    .text.os_memdup:000000000000001a .L0 
C:\Users\stapi\AppData\Local\Temp\ccErmMOj.s:778    .text.os_memdup:000000000000001a .L0 
C:\Users\stapi\AppData\Local\Temp\ccErmMOj.s:780    .text.os_memdup:000000000000001c .L0 
C:\Users\stapi\AppData\Local\Temp\ccErmMOj.s:786    .text.os_memdup:0000000000000028 .L0 
C:\Users\stapi\AppData\Local\Temp\ccErmMOj.s:787    .text.os_memdup:0000000000000028 .L0 
C:\Users\stapi\AppData\Local\Temp\ccErmMOj.s:789    .text.os_memdup:000000000000002c .L0 
C:\Users\stapi\AppData\Local\Temp\ccErmMOj.s:792    .text.os_memdup:0000000000000034 .L0 
C:\Users\stapi\AppData\Local\Temp\ccErmMOj.s:793    .text.os_memdup:0000000000000034 .L0 
C:\Users\stapi\AppData\Local\Temp\ccErmMOj.s:794    .text.os_memdup:0000000000000034 .L0 
C:\Users\stapi\AppData\Local\Temp\ccErmMOj.s:795    .text.os_memdup:0000000000000034 .L0 
C:\Users\stapi\AppData\Local\Temp\ccErmMOj.s:796    .text.os_memdup:0000000000000034 .L0 
C:\Users\stapi\AppData\Local\Temp\ccErmMOj.s:803    .text.os_memmove:0000000000000000 os_memmove
C:\Users\stapi\AppData\Local\Temp\ccErmMOj.s:806    .text.os_memmove:0000000000000000 .L0 
C:\Users\stapi\AppData\Local\Temp\ccErmMOj.s:808    .text.os_memmove:0000000000000000 .L0 
C:\Users\stapi\AppData\Local\Temp\ccErmMOj.s:809    .text.os_memmove:0000000000000000 .L0 
C:\Users\stapi\AppData\Local\Temp\ccErmMOj.s:810    .text.os_memmove:0000000000000000 .L0 
C:\Users\stapi\AppData\Local\Temp\ccErmMOj.s:812    .text.os_memmove:0000000000000008 .L0 
C:\Users\stapi\AppData\Local\Temp\ccErmMOj.s:819    .text.os_memset:0000000000000000 os_memset
C:\Users\stapi\AppData\Local\Temp\ccErmMOj.s:822    .text.os_memset:0000000000000000 .L0 
C:\Users\stapi\AppData\Local\Temp\ccErmMOj.s:824    .text.os_memset:0000000000000000 .L0 
C:\Users\stapi\AppData\Local\Temp\ccErmMOj.s:825    .text.os_memset:0000000000000000 .L0 
C:\Users\stapi\AppData\Local\Temp\ccErmMOj.s:826    .text.os_memset:0000000000000000 .L0 
C:\Users\stapi\AppData\Local\Temp\ccErmMOj.s:828    .text.os_memset:0000000000000008 .L0 
C:\Users\stapi\AppData\Local\Temp\ccErmMOj.s:835    .text.os_zalloc:0000000000000000 os_zalloc
C:\Users\stapi\AppData\Local\Temp\ccErmMOj.s:838    .text.os_zalloc:0000000000000000 .L0 
C:\Users\stapi\AppData\Local\Temp\ccErmMOj.s:840    .text.os_zalloc:0000000000000000 .L0 
C:\Users\stapi\AppData\Local\Temp\ccErmMOj.s:841    .text.os_zalloc:0000000000000008 .L0 
C:\Users\stapi\AppData\Local\Temp\ccErmMOj.s:842    .text.os_zalloc:0000000000000008 .L0 
C:\Users\stapi\AppData\Local\Temp\ccErmMOj.s:843    .text.os_zalloc:0000000000000008 .L0 
C:\Users\stapi\AppData\Local\Temp\ccErmMOj.s:845    .text.os_zalloc:0000000000000008 .L0 
C:\Users\stapi\AppData\Local\Temp\ccErmMOj.s:846    .text.os_zalloc:0000000000000008 .L0 
C:\Users\stapi\AppData\Local\Temp\ccErmMOj.s:847    .text.os_zalloc:000000000000000a .L0 
C:\Users\stapi\AppData\Local\Temp\ccErmMOj.s:854    .text.os_zalloc:000000000000000a .L0 
C:\Users\stapi\AppData\Local\Temp\ccErmMOj.s:855    .text.os_zalloc:000000000000000a .L0 
C:\Users\stapi\AppData\Local\Temp\ccErmMOj.s:860    .text.os_zalloc:000000000000000c .L0 
C:\Users\stapi\AppData\Local\Temp\ccErmMOj.s:867    .text.os_zalloc:0000000000000016 .L0 
C:\Users\stapi\AppData\Local\Temp\ccErmMOj.s:868    .text.os_zalloc:0000000000000016 .L0 
C:\Users\stapi\AppData\Local\Temp\ccErmMOj.s:870    .text.os_zalloc:0000000000000018 .L0 
C:\Users\stapi\AppData\Local\Temp\ccErmMOj.s:876    .text.os_zalloc:0000000000000024 .L0 
C:\Users\stapi\AppData\Local\Temp\ccErmMOj.s:877    .text.os_zalloc:0000000000000024 .L0 
C:\Users\stapi\AppData\Local\Temp\ccErmMOj.s:879    .text.os_zalloc:0000000000000028 .L0 
C:\Users\stapi\AppData\Local\Temp\ccErmMOj.s:882    .text.os_zalloc:0000000000000030 .L0 
C:\Users\stapi\AppData\Local\Temp\ccErmMOj.s:883    .text.os_zalloc:0000000000000030 .L0 
C:\Users\stapi\AppData\Local\Temp\ccErmMOj.s:884    .text.os_zalloc:0000000000000030 .L0 
C:\Users\stapi\AppData\Local\Temp\ccErmMOj.s:885    .text.os_zalloc:0000000000000030 .L0 
C:\Users\stapi\AppData\Local\Temp\ccErmMOj.s:892    .text.os_memcmp:0000000000000000 os_memcmp
C:\Users\stapi\AppData\Local\Temp\ccErmMOj.s:895    .text.os_memcmp:0000000000000000 .L0 
C:\Users\stapi\AppData\Local\Temp\ccErmMOj.s:897    .text.os_memcmp:0000000000000000 .L0 
C:\Users\stapi\AppData\Local\Temp\ccErmMOj.s:898    .text.os_memcmp:0000000000000000 .L0 
C:\Users\stapi\AppData\Local\Temp\ccErmMOj.s:899    .text.os_memcmp:0000000000000000 .L0 
C:\Users\stapi\AppData\Local\Temp\ccErmMOj.s:901    .text.os_memcmp:0000000000000008 .L0 
C:\Users\stapi\AppData\Local\Temp\ccErmMOj.s:908    .text.os_strdup:0000000000000000 os_strdup
C:\Users\stapi\AppData\Local\Temp\ccErmMOj.s:911    .text.os_strdup:0000000000000000 .L0 
C:\Users\stapi\AppData\Local\Temp\ccErmMOj.s:913    .text.os_strdup:0000000000000000 .L0 
C:\Users\stapi\AppData\Local\Temp\ccErmMOj.s:914    .text.os_strdup:0000000000000008 .L0 
C:\Users\stapi\AppData\Local\Temp\ccErmMOj.s:915    .text.os_strdup:0000000000000008 .L0 
C:\Users\stapi\AppData\Local\Temp\ccErmMOj.s:916    .text.os_strdup:0000000000000008 .L0 
C:\Users\stapi\AppData\Local\Temp\ccErmMOj.s:918    .text.os_strdup:0000000000000008 .L0 
C:\Users\stapi\AppData\Local\Temp\ccErmMOj.s:919    .text.os_strdup:0000000000000008 .L0 
C:\Users\stapi\AppData\Local\Temp\ccErmMOj.s:920    .text.os_strdup:0000000000000008 .L0 
C:\Users\stapi\AppData\Local\Temp\ccErmMOj.s:921    .text.os_strdup:000000000000000a .L0 
C:\Users\stapi\AppData\Local\Temp\ccErmMOj.s:928    .text.os_strdup:000000000000000a .L0 
C:\Users\stapi\AppData\Local\Temp\ccErmMOj.s:929    .text.os_strdup:000000000000000a .L0 
C:\Users\stapi\AppData\Local\Temp\ccErmMOj.s:934    .text.os_strdup:000000000000000c .L0 
C:\Users\stapi\AppData\Local\Temp\ccErmMOj.s:939    .text.os_strdup:0000000000000014 .L0 
C:\Users\stapi\AppData\Local\Temp\ccErmMOj.s:944    .text.os_strdup:0000000000000018 .L0 
C:\Users\stapi\AppData\Local\Temp\ccErmMOj.s:945    .text.os_strdup:0000000000000018 .L0 
C:\Users\stapi\AppData\Local\Temp\ccErmMOj.s:946    .text.os_strdup:0000000000000018 .L0 
C:\Users\stapi\AppData\Local\Temp\ccErmMOj.s:955    .text.os_strdup:0000000000000026 .L0 
C:\Users\stapi\AppData\Local\Temp\ccErmMOj.s:956    .text.os_strdup:0000000000000026 .L0 
C:\Users\stapi\AppData\Local\Temp\ccErmMOj.s:958    .text.os_strdup:0000000000000028 .L0 
C:\Users\stapi\AppData\Local\Temp\ccErmMOj.s:964    .text.os_strdup:0000000000000034 .L0 
C:\Users\stapi\AppData\Local\Temp\ccErmMOj.s:965    .text.os_strdup:0000000000000034 .L0 
C:\Users\stapi\AppData\Local\Temp\ccErmMOj.s:967    .text.os_strdup:0000000000000038 .L0 
C:\Users\stapi\AppData\Local\Temp\ccErmMOj.s:970    .text.os_strdup:0000000000000040 .L0 
C:\Users\stapi\AppData\Local\Temp\ccErmMOj.s:971    .text.os_strdup:0000000000000040 .L0 
C:\Users\stapi\AppData\Local\Temp\ccErmMOj.s:972    .text.os_strdup:0000000000000040 .L0 
C:\Users\stapi\AppData\Local\Temp\ccErmMOj.s:973    .text.os_strdup:0000000000000040 .L0 
C:\Users\stapi\AppData\Local\Temp\ccErmMOj.s:980    .text.os_strlen:0000000000000000 os_strlen
C:\Users\stapi\AppData\Local\Temp\ccErmMOj.s:983    .text.os_strlen:0000000000000000 .L0 
C:\Users\stapi\AppData\Local\Temp\ccErmMOj.s:985    .text.os_strlen:0000000000000000 .L0 
C:\Users\stapi\AppData\Local\Temp\ccErmMOj.s:986    .text.os_strlen:0000000000000000 .L0 
C:\Users\stapi\AppData\Local\Temp\ccErmMOj.s:987    .text.os_strlen:0000000000000000 .L0 
C:\Users\stapi\AppData\Local\Temp\ccErmMOj.s:989    .text.os_strlen:0000000000000008 .L0 
C:\Users\stapi\AppData\Local\Temp\ccErmMOj.s:996    .text.os_strcasecmp:0000000000000000 os_strcasecmp
C:\Users\stapi\AppData\Local\Temp\ccErmMOj.s:999    .text.os_strcasecmp:0000000000000000 .L0 
C:\Users\stapi\AppData\Local\Temp\ccErmMOj.s:1001   .text.os_strcasecmp:0000000000000000 .L0 
C:\Users\stapi\AppData\Local\Temp\ccErmMOj.s:1004   .text.os_strcasecmp:0000000000000000 .L0 
C:\Users\stapi\AppData\Local\Temp\ccErmMOj.s:1005   .text.os_strcasecmp:0000000000000000 .L0 
C:\Users\stapi\AppData\Local\Temp\ccErmMOj.s:1006   .text.os_strcasecmp:0000000000000000 .L0 
C:\Users\stapi\AppData\Local\Temp\ccErmMOj.s:1010   .text.os_strcasecmp:0000000000000008 .L0 
C:\Users\stapi\AppData\Local\Temp\ccErmMOj.s:1017   .text.os_strncasecmp:0000000000000000 os_strncasecmp
C:\Users\stapi\AppData\Local\Temp\ccErmMOj.s:1020   .text.os_strncasecmp:0000000000000000 .L0 
C:\Users\stapi\AppData\Local\Temp\ccErmMOj.s:1022   .text.os_strncasecmp:0000000000000000 .L0 
C:\Users\stapi\AppData\Local\Temp\ccErmMOj.s:1025   .text.os_strncasecmp:0000000000000000 .L0 
C:\Users\stapi\AppData\Local\Temp\ccErmMOj.s:1026   .text.os_strncasecmp:0000000000000000 .L0 
C:\Users\stapi\AppData\Local\Temp\ccErmMOj.s:1027   .text.os_strncasecmp:0000000000000000 .L0 
C:\Users\stapi\AppData\Local\Temp\ccErmMOj.s:1031   .text.os_strncasecmp:0000000000000008 .L0 
C:\Users\stapi\AppData\Local\Temp\ccErmMOj.s:1038   .text.os_strchr:0000000000000000 os_strchr
C:\Users\stapi\AppData\Local\Temp\ccErmMOj.s:1041   .text.os_strchr:0000000000000000 .L0 
C:\Users\stapi\AppData\Local\Temp\ccErmMOj.s:1043   .text.os_strchr:0000000000000000 .L0 
C:\Users\stapi\AppData\Local\Temp\ccErmMOj.s:1044   .text.os_strchr:0000000000000000 .L0 
C:\Users\stapi\AppData\Local\Temp\ccErmMOj.s:1045   .text.os_strchr:0000000000000000 .L0 
C:\Users\stapi\AppData\Local\Temp\ccErmMOj.s:1047   .text.os_strchr:0000000000000008 .L0 
C:\Users\stapi\AppData\Local\Temp\ccErmMOj.s:1054   .text.os_strrchr:0000000000000000 os_strrchr
C:\Users\stapi\AppData\Local\Temp\ccErmMOj.s:1057   .text.os_strrchr:0000000000000000 .L0 
C:\Users\stapi\AppData\Local\Temp\ccErmMOj.s:1059   .text.os_strrchr:0000000000000000 .L0 
C:\Users\stapi\AppData\Local\Temp\ccErmMOj.s:1060   .text.os_strrchr:0000000000000000 .L0 
C:\Users\stapi\AppData\Local\Temp\ccErmMOj.s:1061   .text.os_strrchr:0000000000000000 .L0 
C:\Users\stapi\AppData\Local\Temp\ccErmMOj.s:1063   .text.os_strrchr:0000000000000008 .L0 
C:\Users\stapi\AppData\Local\Temp\ccErmMOj.s:1070   .text.os_strcmp:0000000000000000 os_strcmp
C:\Users\stapi\AppData\Local\Temp\ccErmMOj.s:1072   .text.os_strcmp:0000000000000000 .L0 
C:\Users\stapi\AppData\Local\Temp\ccErmMOj.s:1074   .text.os_strcmp:0000000000000008 .L0 
C:\Users\stapi\AppData\Local\Temp\ccErmMOj.s:1081   .text.os_strncmp:0000000000000000 os_strncmp
C:\Users\stapi\AppData\Local\Temp\ccErmMOj.s:1083   .text.os_strncmp:0000000000000000 .L0 
C:\Users\stapi\AppData\Local\Temp\ccErmMOj.s:1085   .text.os_strncmp:0000000000000008 .L0 
C:\Users\stapi\AppData\Local\Temp\ccErmMOj.s:1092   .text.os_strncpy:0000000000000000 os_strncpy
C:\Users\stapi\AppData\Local\Temp\ccErmMOj.s:1095   .text.os_strncpy:0000000000000000 .L0 
C:\Users\stapi\AppData\Local\Temp\ccErmMOj.s:1097   .text.os_strncpy:0000000000000000 .L0 
C:\Users\stapi\AppData\Local\Temp\ccErmMOj.s:1098   .text.os_strncpy:0000000000000000 .L0 
C:\Users\stapi\AppData\Local\Temp\ccErmMOj.s:1099   .text.os_strncpy:0000000000000000 .L0 
C:\Users\stapi\AppData\Local\Temp\ccErmMOj.s:1101   .text.os_strncpy:0000000000000008 .L0 
C:\Users\stapi\AppData\Local\Temp\ccErmMOj.s:1108   .text.os_strlcpy:0000000000000000 os_strlcpy
C:\Users\stapi\AppData\Local\Temp\ccErmMOj.s:1111   .text.os_strlcpy:0000000000000000 .L0 
C:\Users\stapi\AppData\Local\Temp\ccErmMOj.s:1113   .text.os_strlcpy:0000000000000000 .L0 
C:\Users\stapi\AppData\Local\Temp\ccErmMOj.s:1114   .text.os_strlcpy:0000000000000000 .L0 
C:\Users\stapi\AppData\Local\Temp\ccErmMOj.s:1117   .text.os_strlcpy:0000000000000002 .L0 
C:\Users\stapi\AppData\Local\Temp\ccErmMOj.s:1118   .text.os_strlcpy:0000000000000002 .L0 
C:\Users\stapi\AppData\Local\Temp\ccErmMOj.s:1119   .text.os_strlcpy:0000000000000002 .L0 
C:\Users\stapi\AppData\Local\Temp\ccErmMOj.s:1120   .text.os_strlcpy:0000000000000002 .L0 
C:\Users\stapi\AppData\Local\Temp\ccErmMOj.s:1124   .text.os_strlcpy:0000000000000006 .L0 
C:\Users\stapi\AppData\Local\Temp\ccErmMOj.s:1128   .text.os_strlcpy:0000000000000008 .L0 
C:\Users\stapi\AppData\Local\Temp\ccErmMOj.s:1130   .text.os_strlcpy:000000000000000a .L0 
C:\Users\stapi\AppData\Local\Temp\ccErmMOj.s:1133   .text.os_strlcpy:000000000000000c .L0 
C:\Users\stapi\AppData\Local\Temp\ccErmMOj.s:1136   .text.os_strlcpy:0000000000000010 .L0 
C:\Users\stapi\AppData\Local\Temp\ccErmMOj.s:1137   .text.os_strlcpy:0000000000000010 .L0 
C:\Users\stapi\AppData\Local\Temp\ccErmMOj.s:1138   .text.os_strlcpy:0000000000000010 .L0 
C:\Users\stapi\AppData\Local\Temp\ccErmMOj.s:1144   .text.os_strlcpy:0000000000000018 .L0 
C:\Users\stapi\AppData\Local\Temp\ccErmMOj.s:1145   .text.os_strlcpy:0000000000000018 .L0 
C:\Users\stapi\AppData\Local\Temp\ccErmMOj.s:1148   .text.os_strlcpy:000000000000001a .L0 
C:\Users\stapi\AppData\Local\Temp\ccErmMOj.s:1151   .text.os_strlcpy:000000000000001e .L0 
C:\Users\stapi\AppData\Local\Temp\ccErmMOj.s:1153   .text.os_strlcpy:0000000000000022 .L0 
C:\Users\stapi\AppData\Local\Temp\ccErmMOj.s:1157   .text.os_strlcpy:0000000000000024 .L0 
C:\Users\stapi\AppData\Local\Temp\ccErmMOj.s:1158   .text.os_strlcpy:0000000000000024 .L0 
C:\Users\stapi\AppData\Local\Temp\ccErmMOj.s:1160   .text.os_strlcpy:0000000000000028 .L0 
C:\Users\stapi\AppData\Local\Temp\ccErmMOj.s:1162   .text.os_strlcpy:000000000000002a .L0 
C:\Users\stapi\AppData\Local\Temp\ccErmMOj.s:1166   .text.os_strlcpy:000000000000002c .L0 
C:\Users\stapi\AppData\Local\Temp\ccErmMOj.s:1170   .text.os_strlcpy:000000000000002e .L0 
C:\Users\stapi\AppData\Local\Temp\ccErmMOj.s:1171   .text.os_strlcpy:000000000000002e .L0 
C:\Users\stapi\AppData\Local\Temp\ccErmMOj.s:1172   .text.os_strlcpy:000000000000002e .L0 
C:\Users\stapi\AppData\Local\Temp\ccErmMOj.s:1175   .text.os_strlcpy:0000000000000030 .L0 
C:\Users\stapi\AppData\Local\Temp\ccErmMOj.s:1178   .text.os_strlcpy:0000000000000038 .L0 
C:\Users\stapi\AppData\Local\Temp\ccErmMOj.s:1185   .text.os_memcmp_const:0000000000000000 os_memcmp_const
C:\Users\stapi\AppData\Local\Temp\ccErmMOj.s:1188   .text.os_memcmp_const:0000000000000000 .L0 
C:\Users\stapi\AppData\Local\Temp\ccErmMOj.s:1190   .text.os_memcmp_const:0000000000000000 .L0 
C:\Users\stapi\AppData\Local\Temp\ccErmMOj.s:1191   .text.os_memcmp_const:0000000000000000 .L0 
C:\Users\stapi\AppData\Local\Temp\ccErmMOj.s:1192   .text.os_memcmp_const:0000000000000000 .L0 
C:\Users\stapi\AppData\Local\Temp\ccErmMOj.s:1195   .text.os_memcmp_const:0000000000000002 .L0 
C:\Users\stapi\AppData\Local\Temp\ccErmMOj.s:1196   .text.os_memcmp_const:0000000000000002 .L0 
C:\Users\stapi\AppData\Local\Temp\ccErmMOj.s:1197   .text.os_memcmp_const:0000000000000002 .L0 
C:\Users\stapi\AppData\Local\Temp\ccErmMOj.s:1198   .text.os_memcmp_const:0000000000000002 .L0 
C:\Users\stapi\AppData\Local\Temp\ccErmMOj.s:1199   .text.os_memcmp_const:0000000000000002 .L0 
C:\Users\stapi\AppData\Local\Temp\ccErmMOj.s:1201   .text.os_memcmp_const:0000000000000004 .L0 
C:\Users\stapi\AppData\Local\Temp\ccErmMOj.s:1205   .text.os_memcmp_const:0000000000000006 .L0 
C:\Users\stapi\AppData\Local\Temp\ccErmMOj.s:1206   .text.os_memcmp_const:0000000000000006 .L0 
C:\Users\stapi\AppData\Local\Temp\ccErmMOj.s:1208   .text.os_memcmp_const:000000000000000a .L0 
C:\Users\stapi\AppData\Local\Temp\ccErmMOj.s:1209   .text.os_memcmp_const:000000000000000a .L0 
C:\Users\stapi\AppData\Local\Temp\ccErmMOj.s:1212   .text.os_memcmp_const:000000000000000c .L0 
C:\Users\stapi\AppData\Local\Temp\ccErmMOj.s:1213   .text.os_memcmp_const:000000000000000c .L0 
C:\Users\stapi\AppData\Local\Temp\ccErmMOj.s:1215   .text.os_memcmp_const:0000000000000010 .L0 
C:\Users\stapi\AppData\Local\Temp\ccErmMOj.s:1217   .text.os_memcmp_const:0000000000000014 .L0 
C:\Users\stapi\AppData\Local\Temp\ccErmMOj.s:1220   .text.os_memcmp_const:000000000000001c .L0 
C:\Users\stapi\AppData\Local\Temp\ccErmMOj.s:1223   .text.os_memcmp_const:000000000000001e .L0 
C:\Users\stapi\AppData\Local\Temp\ccErmMOj.s:1229   .text.os_memcmp_const:0000000000000028 .L0 
C:\Users\stapi\AppData\Local\Temp\ccErmMOj.s:1230   .text.os_memcmp_const:000000000000002a .L0 
C:\Users\stapi\AppData\Local\Temp\ccErmMOj.s:1237   .text.os_strstr:0000000000000000 os_strstr
C:\Users\stapi\AppData\Local\Temp\ccErmMOj.s:1240   .text.os_strstr:0000000000000000 .L0 
C:\Users\stapi\AppData\Local\Temp\ccErmMOj.s:1242   .text.os_strstr:0000000000000000 .L0 
C:\Users\stapi\AppData\Local\Temp\ccErmMOj.s:1243   .text.os_strstr:0000000000000000 .L0 
C:\Users\stapi\AppData\Local\Temp\ccErmMOj.s:1244   .text.os_strstr:0000000000000000 .L0 
C:\Users\stapi\AppData\Local\Temp\ccErmMOj.s:1246   .text.os_strstr:0000000000000008 .L0 
C:\Users\stapi\AppData\Local\Temp\ccErmMOj.s:1253   .text.os_snprintf:0000000000000000 os_snprintf
C:\Users\stapi\AppData\Local\Temp\ccErmMOj.s:1256   .text.os_snprintf:0000000000000000 .L0 
C:\Users\stapi\AppData\Local\Temp\ccErmMOj.s:1258   .text.os_snprintf:0000000000000000 .L0 
C:\Users\stapi\AppData\Local\Temp\ccErmMOj.s:1259   .text.os_snprintf:0000000000000000 .L0 
C:\Users\stapi\AppData\Local\Temp\ccErmMOj.s:1260   .text.os_snprintf:0000000000000000 .L0 
C:\Users\stapi\AppData\Local\Temp\ccErmMOj.s:1261   .text.os_snprintf:0000000000000000 .L0 
C:\Users\stapi\AppData\Local\Temp\ccErmMOj.s:1262   .text.os_snprintf:0000000000000000 .L0 
C:\Users\stapi\AppData\Local\Temp\ccErmMOj.s:1263   .text.os_snprintf:0000000000000002 .L0 
C:\Users\stapi\AppData\Local\Temp\ccErmMOj.s:1267   .text.os_snprintf:0000000000000006 .L0 
C:\Users\stapi\AppData\Local\Temp\ccErmMOj.s:1269   .text.os_snprintf:0000000000000008 .L0 
C:\Users\stapi\AppData\Local\Temp\ccErmMOj.s:1271   .text.os_snprintf:000000000000000a .L0 
C:\Users\stapi\AppData\Local\Temp\ccErmMOj.s:1274   .text.os_snprintf:000000000000000c .L0 
C:\Users\stapi\AppData\Local\Temp\ccErmMOj.s:1275   .text.os_snprintf:000000000000000e .L0 
C:\Users\stapi\AppData\Local\Temp\ccErmMOj.s:1277   .text.os_snprintf:000000000000000e .L0 
C:\Users\stapi\AppData\Local\Temp\ccErmMOj.s:1281   .text.os_snprintf:0000000000000014 .L0 
C:\Users\stapi\AppData\Local\Temp\ccErmMOj.s:1283   .text.os_snprintf:0000000000000016 .L0 
C:\Users\stapi\AppData\Local\Temp\ccErmMOj.s:1284   .text.os_snprintf:0000000000000016 .L0 
C:\Users\stapi\AppData\Local\Temp\ccErmMOj.s:1287   .text.os_snprintf:000000000000001e .L0 
C:\Users\stapi\AppData\Local\Temp\ccErmMOj.s:1288   .text.os_snprintf:000000000000001e .L0 
C:\Users\stapi\AppData\Local\Temp\ccErmMOj.s:1289   .text.os_snprintf:000000000000001e .L0 
C:\Users\stapi\AppData\Local\Temp\ccErmMOj.s:1290   .text.os_snprintf:0000000000000020 .L0 
C:\Users\stapi\AppData\Local\Temp\ccErmMOj.s:1292   .text.os_snprintf:0000000000000022 .L0 
C:\Users\stapi\AppData\Local\Temp\ccErmMOj.s:1294   .text.os_snprintf:0000000000000024 .L0 
C:\Users\stapi\AppData\Local\Temp\ccErmMOj.s:1305   .text.os_exec:0000000000000000 os_exec
C:\Users\stapi\AppData\Local\Temp\ccErmMOj.s:1308   .text.os_exec:0000000000000000 .L0 
C:\Users\stapi\AppData\Local\Temp\ccErmMOj.s:1310   .text.os_exec:0000000000000000 .L0 
C:\Users\stapi\AppData\Local\Temp\ccErmMOj.s:1311   .text.os_exec:0000000000000008 .L0 
C:\Users\stapi\AppData\Local\Temp\ccErmMOj.s:1312   .text.os_exec:0000000000000008 .L0 
C:\Users\stapi\AppData\Local\Temp\ccErmMOj.s:1314   .text.os_exec:0000000000000008 .L0 
C:\Users\stapi\AppData\Local\Temp\ccErmMOj.s:1322   .text.os_exec:000000000000001a .L0 
C:\Users\stapi\AppData\Local\Temp\ccErmMOj.s:1323   .text.os_exec:000000000000001a .L0 
C:\Users\stapi\AppData\Local\Temp\ccErmMOj.s:1325   .text.os_exec:0000000000000024 .L0 
C:\Users\stapi\AppData\Local\Temp\ccErmMOj.s:1326   .text.os_exec:0000000000000024 .L0 
C:\Users\stapi\AppData\Local\Temp\ccErmMOj.s:1327   .text.os_exec:0000000000000024 .L0 
C:\Users\stapi\AppData\Local\Temp\ccErmMOj.s:1332   .rodata:0000000000000000 .LANCHOR0
C:\Users\stapi\AppData\Local\Temp\ccErmMOj.s:37     .text.os_sleep:0000000000000016 .L0 
C:\Users\stapi\AppData\Local\Temp\ccErmMOj.s:84     .text.os_get_time:000000000000002c .L0 
C:\Users\stapi\AppData\Local\Temp\ccErmMOj.s:131    .text.os_get_reltime:000000000000002c .L0 
C:\Users\stapi\AppData\Local\Temp\ccErmMOj.s:312    .text.os_mktime:00000000000000ca .L0 
C:\Users\stapi\AppData\Local\Temp\ccErmMOj.s:345    .text.os_gmtime:0000000000000024 .L0 
C:\Users\stapi\AppData\Local\Temp\ccErmMOj.s:377    .text.os_daemonize:0000000000000024 .L0 
C:\Users\stapi\AppData\Local\Temp\ccErmMOj.s:400    .text.os_daemonize_terminate:0000000000000012 .L0 
C:\Users\stapi\AppData\Local\Temp\ccErmMOj.s:424    .text.os_get_random:000000000000001a .L0 
C:\Users\stapi\AppData\Local\Temp\ccErmMOj.s:458    .text.os_random:0000000000000024 .L0 
C:\Users\stapi\AppData\Local\Temp\ccErmMOj.s:490    .text.os_rel2abs_path:0000000000000024 .L0 
C:\Users\stapi\AppData\Local\Temp\ccErmMOj.s:520    .text.os_program_init:0000000000000024 .L0 
C:\Users\stapi\AppData\Local\Temp\ccErmMOj.s:541    .text.os_program_deinit:0000000000000012 .L0 
C:\Users\stapi\AppData\Local\Temp\ccErmMOj.s:574    .text.os_setenv:0000000000000024 .L0 
C:\Users\stapi\AppData\Local\Temp\ccErmMOj.s:606    .text.os_unsetenv:0000000000000024 .L0 
C:\Users\stapi\AppData\Local\Temp\ccErmMOj.s:639    .text.os_readfile:0000000000000024 .L0 
C:\Users\stapi\AppData\Local\Temp\ccErmMOj.s:671    .text.os_fdatasync:0000000000000024 .L0 
C:\Users\stapi\AppData\Local\Temp\ccErmMOj.s:687    .text.os_malloc:0000000000000008 .L0 
C:\Users\stapi\AppData\Local\Temp\ccErmMOj.s:703    .text.os_realloc:0000000000000008 .L0 
C:\Users\stapi\AppData\Local\Temp\ccErmMOj.s:723    .text.os_free:000000000000000c .L0 
C:\Users\stapi\AppData\Local\Temp\ccErmMOj.s:739    .text.os_memcpy:0000000000000008 .L0 
C:\Users\stapi\AppData\Local\Temp\ccErmMOj.s:799    .text.os_memdup:0000000000000034 .L0 
C:\Users\stapi\AppData\Local\Temp\ccErmMOj.s:815    .text.os_memmove:0000000000000008 .L0 
C:\Users\stapi\AppData\Local\Temp\ccErmMOj.s:831    .text.os_memset:0000000000000008 .L0 
C:\Users\stapi\AppData\Local\Temp\ccErmMOj.s:888    .text.os_zalloc:0000000000000030 .L0 
C:\Users\stapi\AppData\Local\Temp\ccErmMOj.s:904    .text.os_memcmp:0000000000000008 .L0 
C:\Users\stapi\AppData\Local\Temp\ccErmMOj.s:976    .text.os_strdup:0000000000000040 .L0 
C:\Users\stapi\AppData\Local\Temp\ccErmMOj.s:992    .text.os_strlen:0000000000000008 .L0 
C:\Users\stapi\AppData\Local\Temp\ccErmMOj.s:1013   .text.os_strcasecmp:0000000000000008 .L0 
C:\Users\stapi\AppData\Local\Temp\ccErmMOj.s:1034   .text.os_strncasecmp:0000000000000008 .L0 
C:\Users\stapi\AppData\Local\Temp\ccErmMOj.s:1050   .text.os_strchr:0000000000000008 .L0 
C:\Users\stapi\AppData\Local\Temp\ccErmMOj.s:1066   .text.os_strrchr:0000000000000008 .L0 
C:\Users\stapi\AppData\Local\Temp\ccErmMOj.s:1104   .text.os_strncpy:0000000000000008 .L0 
C:\Users\stapi\AppData\Local\Temp\ccErmMOj.s:1181   .text.os_strlcpy:0000000000000038 .L0 
C:\Users\stapi\AppData\Local\Temp\ccErmMOj.s:1233   .text.os_memcmp_const:000000000000002a .L0 
C:\Users\stapi\AppData\Local\Temp\ccErmMOj.s:1249   .text.os_strstr:0000000000000008 .L0 
C:\Users\stapi\AppData\Local\Temp\ccErmMOj.s:1297   .text.os_snprintf:0000000000000024 .L0 
C:\Users\stapi\AppData\Local\Temp\ccErmMOj.s:1330   .text.os_exec:0000000000000024 .L0 
                     .debug_frame:0000000000000000 .L0 
C:\Users\stapi\AppData\Local\Temp\ccErmMOj.s:295    .text.os_mktime:00000000000000c0 .L9
C:\Users\stapi\AppData\Local\Temp\ccErmMOj.s:244    .text.os_mktime:0000000000000082 .L10
C:\Users\stapi\AppData\Local\Temp\ccErmMOj.s:234    .text.os_mktime:0000000000000076 .L11
C:\Users\stapi\AppData\Local\Temp\ccErmMOj.s:239    .text.os_mktime:0000000000000080 .L12
C:\Users\stapi\AppData\Local\Temp\ccErmMOj.s:216    .text.os_mktime:000000000000005c .L8
C:\Users\stapi\AppData\Local\Temp\ccErmMOj.s:314    .rodata.os_gmtime.str1.4:0000000000000000 .LC1
C:\Users\stapi\AppData\Local\Temp\ccErmMOj.s:347    .rodata.os_daemonize.str1.4:0000000000000000 .LC2
C:\Users\stapi\AppData\Local\Temp\ccErmMOj.s:379    .rodata.os_daemonize_terminate.str1.4:0000000000000000 .LC3
C:\Users\stapi\AppData\Local\Temp\ccErmMOj.s:460    .rodata.os_rel2abs_path.str1.4:0000000000000000 .LC4
C:\Users\stapi\AppData\Local\Temp\ccErmMOj.s:492    .rodata.os_program_init.str1.4:0000000000000000 .LC5
C:\Users\stapi\AppData\Local\Temp\ccErmMOj.s:522    .rodata.os_program_deinit.str1.4:0000000000000000 .LC6
C:\Users\stapi\AppData\Local\Temp\ccErmMOj.s:543    .rodata.os_setenv.str1.4:0000000000000000 .LC7
C:\Users\stapi\AppData\Local\Temp\ccErmMOj.s:576    .rodata.os_unsetenv.str1.4:0000000000000000 .LC8
C:\Users\stapi\AppData\Local\Temp\ccErmMOj.s:608    .rodata.os_readfile.str1.4:0000000000000000 .LC9
C:\Users\stapi\AppData\Local\Temp\ccErmMOj.s:641    .rodata.os_fdatasync.str1.4:0000000000000000 .LC10
C:\Users\stapi\AppData\Local\Temp\ccErmMOj.s:718    .text.os_free:000000000000000a .L48
C:\Users\stapi\AppData\Local\Temp\ccErmMOj.s:785    .text.os_memdup:0000000000000028 .L53
C:\Users\stapi\AppData\Local\Temp\ccErmMOj.s:875    .text.os_zalloc:0000000000000024 .L63
C:\Users\stapi\AppData\Local\Temp\ccErmMOj.s:963    .text.os_strdup:0000000000000034 .L71
C:\Users\stapi\AppData\Local\Temp\ccErmMOj.s:1164   .text.os_strlcpy:000000000000002c .L100
C:\Users\stapi\AppData\Local\Temp\ccErmMOj.s:1142   .text.os_strlcpy:0000000000000018 .L97
C:\Users\stapi\AppData\Local\Temp\ccErmMOj.s:1168   .text.os_strlcpy:000000000000002e .L99
C:\Users\stapi\AppData\Local\Temp\ccErmMOj.s:1126   .text.os_strlcpy:0000000000000008 .L95
C:\Users\stapi\AppData\Local\Temp\ccErmMOj.s:1155   .text.os_strlcpy:0000000000000024 .L96
C:\Users\stapi\AppData\Local\Temp\ccErmMOj.s:1210   .text.os_memcmp_const:000000000000000c .L109
C:\Users\stapi\AppData\Local\Temp\ccErmMOj.s:1203   .text.os_memcmp_const:0000000000000006 .L108
C:\Users\stapi\AppData\Local\Temp\ccErmMOj.s:1299   .rodata.os_exec.str1.4:0000000000000000 .LC11
C:\Users\stapi\AppData\Local\Temp\ccErmMOj.s:4896   .debug_abbrev:0000000000000000 .Ldebug_abbrev0
C:\Users\stapi\AppData\Local\Temp\ccErmMOj.s:7699   .debug_str:00000000000003bb .LASF222
C:\Users\stapi\AppData\Local\Temp\ccErmMOj.s:7561   .debug_str:0000000000000000 .LASF223
C:\Users\stapi\AppData\Local\Temp\ccErmMOj.s:7687   .debug_str:0000000000000301 .LASF224
C:\Users\stapi\AppData\Local\Temp\ccErmMOj.s:7463   .debug_ranges:0000000000000000 .Ldebug_ranges0
C:\Users\stapi\AppData\Local\Temp\ccErmMOj.s:7559   .debug_line:0000000000000000 .Ldebug_line0
C:\Users\stapi\AppData\Local\Temp\ccErmMOj.s:7703   .debug_str:00000000000004c3 .LASF1
C:\Users\stapi\AppData\Local\Temp\ccErmMOj.s:7589   .debug_str:000000000000010c .LASF0
C:\Users\stapi\AppData\Local\Temp\ccErmMOj.s:7917   .debug_str:00000000000008af .LASF2
C:\Users\stapi\AppData\Local\Temp\ccErmMOj.s:7963   .debug_str:00000000000009ae .LASF3
C:\Users\stapi\AppData\Local\Temp\ccErmMOj.s:7887   .debug_str:000000000000082a .LASF4
C:\Users\stapi\AppData\Local\Temp\ccErmMOj.s:7931   .debug_str:00000000000008ec .LASF5
C:\Users\stapi\AppData\Local\Temp\ccErmMOj.s:7607   .debug_str:0000000000000160 .LASF6
C:\Users\stapi\AppData\Local\Temp\ccErmMOj.s:7967   .debug_str:00000000000009c1 .LASF7
C:\Users\stapi\AppData\Local\Temp\ccErmMOj.s:7863   .debug_str:00000000000007ca .LASF8
C:\Users\stapi\AppData\Local\Temp\ccErmMOj.s:7933   .debug_str:00000000000008fa .LASF9
C:\Users\stapi\AppData\Local\Temp\ccErmMOj.s:7911   .debug_str:000000000000088c .LASF10
C:\Users\stapi\AppData\Local\Temp\ccErmMOj.s:7797   .debug_str:000000000000068a .LASF11
C:\Users\stapi\AppData\Local\Temp\ccErmMOj.s:7667   .debug_str:000000000000029f .LASF12
C:\Users\stapi\AppData\Local\Temp\ccErmMOj.s:7987   .debug_str:0000000000000a29 .LASF13
C:\Users\stapi\AppData\Local\Temp\ccErmMOj.s:7597   .debug_str:0000000000000130 .LASF14
C:\Users\stapi\AppData\Local\Temp\ccErmMOj.s:7829   .debug_str:0000000000000724 .LASF15
C:\Users\stapi\AppData\Local\Temp\ccErmMOj.s:7769   .debug_str:000000000000060b .LASF16
C:\Users\stapi\AppData\Local\Temp\ccErmMOj.s:7875   .debug_str:00000000000007f2 .LASF17
C:\Users\stapi\AppData\Local\Temp\ccErmMOj.s:7651   .debug_str:000000000000024d .LASF18
C:\Users\stapi\AppData\Local\Temp\ccErmMOj.s:7737   .debug_str:0000000000000560 .LASF19
C:\Users\stapi\AppData\Local\Temp\ccErmMOj.s:7821   .debug_str:0000000000000704 .LASF20
C:\Users\stapi\AppData\Local\Temp\ccErmMOj.s:7971   .debug_str:00000000000009db .LASF225
C:\Users\stapi\AppData\Local\Temp\ccErmMOj.s:7619   .debug_str:00000000000001ad .LASF21
C:\Users\stapi\AppData\Local\Temp\ccErmMOj.s:7943   .debug_str:0000000000000945 .LASF22
C:\Users\stapi\AppData\Local\Temp\ccErmMOj.s:7609   .debug_str:000000000000016a .LASF23
C:\Users\stapi\AppData\Local\Temp\ccErmMOj.s:7639   .debug_str:0000000000000211 .LASF28
C:\Users\stapi\AppData\Local\Temp\ccErmMOj.s:7727   .debug_str:000000000000052f .LASF24
C:\Users\stapi\AppData\Local\Temp\ccErmMOj.s:7567   .debug_str:000000000000009d .LASF25
C:\Users\stapi\AppData\Local\Temp\ccErmMOj.s:7869   .debug_str:00000000000007de .LASF26
C:\Users\stapi\AppData\Local\Temp\ccErmMOj.s:7675   .debug_str:00000000000002d3 .LASF27
C:\Users\stapi\AppData\Local\Temp\ccErmMOj.s:7905   .debug_str:000000000000087c .LASF29
C:\Users\stapi\AppData\Local\Temp\ccErmMOj.s:7713   .debug_str:00000000000004f9 .LASF30
C:\Users\stapi\AppData\Local\Temp\ccErmMOj.s:7657   .debug_str:0000000000000268 .LASF31
C:\Users\stapi\AppData\Local\Temp\ccErmMOj.s:7649   .debug_str:0000000000000243 .LASF32
C:\Users\stapi\AppData\Local\Temp\ccErmMOj.s:7753   .debug_str:00000000000005af .LASF33
C:\Users\stapi\AppData\Local\Temp\ccErmMOj.s:7837   .debug_str:000000000000074f .LASF34
C:\Users\stapi\AppData\Local\Temp\ccErmMOj.s:7877   .debug_str:00000000000007f9 .LASF35
C:\Users\stapi\AppData\Local\Temp\ccErmMOj.s:7641   .debug_str:0000000000000219 .LASF36
C:\Users\stapi\AppData\Local\Temp\ccErmMOj.s:7715   .debug_str:0000000000000502 .LASF37
C:\Users\stapi\AppData\Local\Temp\ccErmMOj.s:7825   .debug_str:0000000000000714 .LASF38
C:\Users\stapi\AppData\Local\Temp\ccErmMOj.s:7571   .debug_str:00000000000000ac .LASF39
C:\Users\stapi\AppData\Local\Temp\ccErmMOj.s:7961   .debug_str:00000000000009a6 .LASF40
C:\Users\stapi\AppData\Local\Temp\ccErmMOj.s:7925   .debug_str:00000000000008cd .LASF41
C:\Users\stapi\AppData\Local\Temp\ccErmMOj.s:7981   .debug_str:0000000000000a0c .LASF42
C:\Users\stapi\AppData\Local\Temp\ccErmMOj.s:7999   .debug_str:0000000000000a5b .LASF43
C:\Users\stapi\AppData\Local\Temp\ccErmMOj.s:7849   .debug_str:0000000000000789 .LASF44
C:\Users\stapi\AppData\Local\Temp\ccErmMOj.s:7827   .debug_str:000000000000071f .LASF45
C:\Users\stapi\AppData\Local\Temp\ccErmMOj.s:7631   .debug_str:00000000000001f0 .LASF46
C:\Users\stapi\AppData\Local\Temp\ccErmMOj.s:7945   .debug_str:0000000000000957 .LASF47
C:\Users\stapi\AppData\Local\Temp\ccErmMOj.s:7801   .debug_str:00000000000006a5 .LASF48
C:\Users\stapi\AppData\Local\Temp\ccErmMOj.s:7983   .debug_str:0000000000000a15 .LASF49
C:\Users\stapi\AppData\Local\Temp\ccErmMOj.s:7673   .debug_str:00000000000002cb .LASF50
C:\Users\stapi\AppData\Local\Temp\ccErmMOj.s:7593   .debug_str:0000000000000122 .LASF51
C:\Users\stapi\AppData\Local\Temp\ccErmMOj.s:7815   .debug_str:00000000000006e8 .LASF52
C:\Users\stapi\AppData\Local\Temp\ccErmMOj.s:7591   .debug_str:0000000000000119 .LASF53
C:\Users\stapi\AppData\Local\Temp\ccErmMOj.s:7635   .debug_str:00000000000001fe .LASF54
C:\Users\stapi\AppData\Local\Temp\ccErmMOj.s:7617   .debug_str:00000000000001a7 .LASF55
C:\Users\stapi\AppData\Local\Temp\ccErmMOj.s:7845   .debug_str:0000000000000774 .LASF56
C:\Users\stapi\AppData\Local\Temp\ccErmMOj.s:8009   .debug_str:0000000000000a84 .LASF57
C:\Users\stapi\AppData\Local\Temp\ccErmMOj.s:7777   .debug_str:000000000000062b .LASF58
C:\Users\stapi\AppData\Local\Temp\ccErmMOj.s:7689   .debug_str:0000000000000393 .LASF59
C:\Users\stapi\AppData\Local\Temp\ccErmMOj.s:7991   .debug_str:0000000000000a3b .LASF60
C:\Users\stapi\AppData\Local\Temp\ccErmMOj.s:7901   .debug_str:0000000000000863 .LASF61
C:\Users\stapi\AppData\Local\Temp\ccErmMOj.s:7685   .debug_str:00000000000002f9 .LASF62
C:\Users\stapi\AppData\Local\Temp\ccErmMOj.s:7873   .debug_str:00000000000007ec .LASF63
C:\Users\stapi\AppData\Local\Temp\ccErmMOj.s:7907   .debug_str:0000000000000881 .LASF64
C:\Users\stapi\AppData\Local\Temp\ccErmMOj.s:7611   .debug_str:0000000000000173 .LASF65
C:\Users\stapi\AppData\Local\Temp\ccErmMOj.s:7997   .debug_str:0000000000000a53 .LASF66
C:\Users\stapi\AppData\Local\Temp\ccErmMOj.s:7965   .debug_str:00000000000009ba .LASF67
C:\Users\stapi\AppData\Local\Temp\ccErmMOj.s:7595   .debug_str:0000000000000129 .LASF68
C:\Users\stapi\AppData\Local\Temp\ccErmMOj.s:7793   .debug_str:0000000000000674 .LASF69
C:\Users\stapi\AppData\Local\Temp\ccErmMOj.s:7625   .debug_str:00000000000001d4 .LASF70
C:\Users\stapi\AppData\Local\Temp\ccErmMOj.s:8013   .debug_str:0000000000000a9a .LASF71
C:\Users\stapi\AppData\Local\Temp\ccErmMOj.s:7717   .debug_str:000000000000050c .LASF72
C:\Users\stapi\AppData\Local\Temp\ccErmMOj.s:7695   .debug_str:00000000000003a9 .LASF73
C:\Users\stapi\AppData\Local\Temp\ccErmMOj.s:7615   .debug_str:000000000000018e .LASF74
C:\Users\stapi\AppData\Local\Temp\ccErmMOj.s:7959   .debug_str:000000000000099e .LASF75
C:\Users\stapi\AppData\Local\Temp\ccErmMOj.s:7605   .debug_str:0000000000000155 .LASF76
C:\Users\stapi\AppData\Local\Temp\ccErmMOj.s:7819   .debug_str:00000000000006fa .LASF77
C:\Users\stapi\AppData\Local\Temp\ccErmMOj.s:7645   .debug_str:0000000000000232 .LASF78
C:\Users\stapi\AppData\Local\Temp\ccErmMOj.s:7765   .debug_str:00000000000005fa .LASF79
C:\Users\stapi\AppData\Local\Temp\ccErmMOj.s:7741   .debug_str:0000000000000571 .LASF80
C:\Users\stapi\AppData\Local\Temp\ccErmMOj.s:7803   .debug_str:00000000000006ab .LASF81
C:\Users\stapi\AppData\Local\Temp\ccErmMOj.s:7891   .debug_str:0000000000000839 .LASF82
C:\Users\stapi\AppData\Local\Temp\ccErmMOj.s:7929   .debug_str:00000000000008e4 .LASF83
C:\Users\stapi\AppData\Local\Temp\ccErmMOj.s:7889   .debug_str:0000000000000834 .LASF84
C:\Users\stapi\AppData\Local\Temp\ccErmMOj.s:7759   .debug_str:00000000000005d2 .LASF85
C:\Users\stapi\AppData\Local\Temp\ccErmMOj.s:7755   .debug_str:00000000000005b9 .LASF86
C:\Users\stapi\AppData\Local\Temp\ccErmMOj.s:7951   .debug_str:000000000000096e .LASF87
C:\Users\stapi\AppData\Local\Temp\ccErmMOj.s:7867   .debug_str:00000000000007d9 .LASF88
C:\Users\stapi\AppData\Local\Temp\ccErmMOj.s:7751   .debug_str:00000000000005aa .LASF89
C:\Users\stapi\AppData\Local\Temp\ccErmMOj.s:7681   .debug_str:00000000000002e9 .LASF90
C:\Users\stapi\AppData\Local\Temp\ccErmMOj.s:7947   .debug_str:000000000000095e .LASF91
C:\Users\stapi\AppData\Local\Temp\ccErmMOj.s:7915   .debug_str:00000000000008a8 .LASF92
C:\Users\stapi\AppData\Local\Temp\ccErmMOj.s:7771   .debug_str:0000000000000611 .LASF93
C:\Users\stapi\AppData\Local\Temp\ccErmMOj.s:7677   .debug_str:00000000000002d8 .LASF94
C:\Users\stapi\AppData\Local\Temp\ccErmMOj.s:8001   .debug_str:0000000000000a63 .LASF95
C:\Users\stapi\AppData\Local\Temp\ccErmMOj.s:7805   .debug_str:00000000000006b5 .LASF96
C:\Users\stapi\AppData\Local\Temp\ccErmMOj.s:7807   .debug_str:00000000000006bb .LASF97
C:\Users\stapi\AppData\Local\Temp\ccErmMOj.s:7993   .debug_str:0000000000000a41 .LASF98
C:\Users\stapi\AppData\Local\Temp\ccErmMOj.s:7955   .debug_str:0000000000000983 .LASF99
C:\Users\stapi\AppData\Local\Temp\ccErmMOj.s:7669   .debug_str:00000000000002b6 .LASF100
C:\Users\stapi\AppData\Local\Temp\ccErmMOj.s:7883   .debug_str:0000000000000813 .LASF101
C:\Users\stapi\AppData\Local\Temp\ccErmMOj.s:7795   .debug_str:000000000000067b .LASF102
C:\Users\stapi\AppData\Local\Temp\ccErmMOj.s:8003   .debug_str:0000000000000a69 .LASF103
C:\Users\stapi\AppData\Local\Temp\ccErmMOj.s:7583   .debug_str:00000000000000f4 .LASF104
C:\Users\stapi\AppData\Local\Temp\ccErmMOj.s:7749   .debug_str:000000000000059d .LASF105
C:\Users\stapi\AppData\Local\Temp\ccErmMOj.s:7957   .debug_str:0000000000000990 .LASF106
C:\Users\stapi\AppData\Local\Temp\ccErmMOj.s:7577   .debug_str:00000000000000cc .LASF107
C:\Users\stapi\AppData\Local\Temp\ccErmMOj.s:7895   .debug_str:0000000000000846 .LASF108
C:\Users\stapi\AppData\Local\Temp\ccErmMOj.s:7587   .debug_str:0000000000000100 .LASF109
C:\Users\stapi\AppData\Local\Temp\ccErmMOj.s:7953   .debug_str:0000000000000976 .LASF110
C:\Users\stapi\AppData\Local\Temp\ccErmMOj.s:7621   .debug_str:00000000000001b5 .LASF111
C:\Users\stapi\AppData\Local\Temp\ccErmMOj.s:7757   .debug_str:00000000000005c3 .LASF112
C:\Users\stapi\AppData\Local\Temp\ccErmMOj.s:7665   .debug_str:000000000000028e .LASF113
C:\Users\stapi\AppData\Local\Temp\ccErmMOj.s:7811   .debug_str:00000000000006cc .LASF114
C:\Users\stapi\AppData\Local\Temp\ccErmMOj.s:7747   .debug_str:000000000000058c .LASF115
C:\Users\stapi\AppData\Local\Temp\ccErmMOj.s:7683   .debug_str:00000000000002f0 .LASF116
C:\Users\stapi\AppData\Local\Temp\ccErmMOj.s:7659   .debug_str:0000000000000271 .LASF117
C:\Users\stapi\AppData\Local\Temp\ccErmMOj.s:8015   .debug_str:0000000000000aa2 .LASF118
C:\Users\stapi\AppData\Local\Temp\ccErmMOj.s:7885   .debug_str:0000000000000822 .LASF119
C:\Users\stapi\AppData\Local\Temp\ccErmMOj.s:8005   .debug_str:0000000000000a74 .LASF226
C:\Users\stapi\AppData\Local\Temp\ccErmMOj.s:7701   .debug_str:00000000000004b4 .LASF120
C:\Users\stapi\AppData\Local\Temp\ccErmMOj.s:7773   .debug_str:0000000000000617 .LASF121
C:\Users\stapi\AppData\Local\Temp\ccErmMOj.s:7647   .debug_str:000000000000023a .LASF122
C:\Users\stapi\AppData\Local\Temp\ccErmMOj.s:7995   .debug_str:0000000000000a4e .LASF123
C:\Users\stapi\AppData\Local\Temp\ccErmMOj.s:7789   .debug_str:000000000000065f .LASF124
C:\Users\stapi\AppData\Local\Temp\ccErmMOj.s:7719   .debug_str:0000000000000511 .LASF125
C:\Users\stapi\AppData\Local\Temp\ccErmMOj.s:7787   .debug_str:0000000000000655 .LASF126
C:\Users\stapi\AppData\Local\Temp\ccErmMOj.s:7871   .debug_str:00000000000007e4 .LASF127
C:\Users\stapi\AppData\Local\Temp\ccErmMOj.s:7975   .debug_str:00000000000009f7 .LASF128
C:\Users\stapi\AppData\Local\Temp\ccErmMOj.s:7977   .debug_str:00000000000009fc .LASF129
C:\Users\stapi\AppData\Local\Temp\ccErmMOj.s:7563   .debug_str:000000000000008f .LASF130
C:\Users\stapi\AppData\Local\Temp\ccErmMOj.s:7979   .debug_str:0000000000000a07 .LASF131
C:\Users\stapi\AppData\Local\Temp\ccErmMOj.s:7721   .debug_str:0000000000000517 .LASF132
C:\Users\stapi\AppData\Local\Temp\ccErmMOj.s:7923   .debug_str:00000000000008c8 .LASF133
C:\Users\stapi\AppData\Local\Temp\ccErmMOj.s:7985   .debug_str:0000000000000a1b .LASF227
C:\Users\stapi\AppData\Local\Temp\ccErmMOj.s:7989   .debug_str:0000000000000a30 .LASF134
C:\Users\stapi\AppData\Local\Temp\ccErmMOj.s:7745   .debug_str:0000000000000580 .LASF135
C:\Users\stapi\AppData\Local\Temp\ccErmMOj.s:7707   .debug_str:00000000000004d4 .LASF136
C:\Users\stapi\AppData\Local\Temp\ccErmMOj.s:7833   .debug_str:0000000000000738 .LASF137
C:\Users\stapi\AppData\Local\Temp\ccErmMOj.s:7691   .debug_str:0000000000000399 .LASF138
C:\Users\stapi\AppData\Local\Temp\ccErmMOj.s:7711   .debug_str:00000000000004f0 .LASF139
C:\Users\stapi\AppData\Local\Temp\ccErmMOj.s:7809   .debug_str:00000000000006c0 .LASF140
C:\Users\stapi\AppData\Local\Temp\ccErmMOj.s:7743   .debug_str:0000000000000576 .LASF141
C:\Users\stapi\AppData\Local\Temp\ccErmMOj.s:7785   .debug_str:000000000000064d .LASF144
C:\Users\stapi\AppData\Local\Temp\ccErmMOj.s:1306   .text.os_exec:0000000000000000 .LFB109
C:\Users\stapi\AppData\Local\Temp\ccErmMOj.s:1328   .text.os_exec:0000000000000024 .LFE109
C:\Users\stapi\AppData\Local\Temp\ccErmMOj.s:7723   .debug_str:000000000000051d .LASF142
C:\Users\stapi\AppData\Local\Temp\ccErmMOj.s:5937   .debug_loc:0000000000000000 .LLST85
C:\Users\stapi\AppData\Local\Temp\ccErmMOj.s:5951   .debug_loc:0000000000000021 .LLST86
C:\Users\stapi\AppData\Local\Temp\ccErmMOj.s:8011   .debug_str:0000000000000a8a .LASF143
C:\Users\stapi\AppData\Local\Temp\ccErmMOj.s:5965   .debug_loc:0000000000000042 .LLST87
C:\Users\stapi\AppData\Local\Temp\ccErmMOj.s:1320   .text.os_exec:000000000000001a .LVL136
C:\Users\stapi\AppData\Local\Temp\ccErmMOj.s:7663   .debug_str:0000000000000282 .LASF145
C:\Users\stapi\AppData\Local\Temp\ccErmMOj.s:1254   .text.os_snprintf:0000000000000000 .LFB108
C:\Users\stapi\AppData\Local\Temp\ccErmMOj.s:1295   .text.os_snprintf:0000000000000024 .LFE108
C:\Users\stapi\AppData\Local\Temp\ccErmMOj.s:5979   .debug_loc:0000000000000063 .LLST82
C:\Users\stapi\AppData\Local\Temp\ccErmMOj.s:7823   .debug_str:000000000000070f .LASF146
C:\Users\stapi\AppData\Local\Temp\ccErmMOj.s:5993   .debug_loc:0000000000000084 .LLST83
C:\Users\stapi\AppData\Local\Temp\ccErmMOj.s:7697   .debug_str:00000000000003b4 .LASF147
C:\Users\stapi\AppData\Local\Temp\ccErmMOj.s:6007   .debug_loc:00000000000000a5 .LLST84
C:\Users\stapi\AppData\Local\Temp\ccErmMOj.s:7839   .debug_str:0000000000000758 .LASF148
C:\Users\stapi\AppData\Local\Temp\ccErmMOj.s:1285   .text.os_snprintf:000000000000001e .LVL132
C:\Users\stapi\AppData\Local\Temp\ccErmMOj.s:7973   .debug_str:00000000000009ed .LASF149
C:\Users\stapi\AppData\Local\Temp\ccErmMOj.s:1238   .text.os_strstr:0000000000000000 .LFB107
C:\Users\stapi\AppData\Local\Temp\ccErmMOj.s:1247   .text.os_strstr:0000000000000008 .LFE107
C:\Users\stapi\AppData\Local\Temp\ccErmMOj.s:7781   .debug_str:0000000000000639 .LASF150
C:\Users\stapi\AppData\Local\Temp\ccErmMOj.s:6025   .debug_loc:00000000000000d1 .LLST80
C:\Users\stapi\AppData\Local\Temp\ccErmMOj.s:7585   .debug_str:00000000000000f9 .LASF151
C:\Users\stapi\AppData\Local\Temp\ccErmMOj.s:6039   .debug_loc:00000000000000f2 .LLST81
C:\Users\stapi\AppData\Local\Temp\ccErmMOj.s:1245   .text.os_strstr:0000000000000008 .LVL129
C:\Users\stapi\AppData\Local\Temp\ccErmMOj.s:7903   .debug_str:000000000000086c .LASF152
C:\Users\stapi\AppData\Local\Temp\ccErmMOj.s:1186   .text.os_memcmp_const:0000000000000000 .LFB106
C:\Users\stapi\AppData\Local\Temp\ccErmMOj.s:1231   .text.os_memcmp_const:000000000000002a .LFE106
C:\Users\stapi\AppData\Local\Temp\ccErmMOj.s:6053   .debug_loc:0000000000000113 .LLST76
C:\Users\stapi\AppData\Local\Temp\ccErmMOj.s:6064   .debug_loc:0000000000000131 .LLST77
C:\Users\stapi\AppData\Local\Temp\ccErmMOj.s:6075   .debug_loc:000000000000014f .LLST78
C:\Users\stapi\AppData\Local\Temp\ccErmMOj.s:6097   .debug_loc:0000000000000186 .LLST79
C:\Users\stapi\AppData\Local\Temp\ccErmMOj.s:7857   .debug_str:00000000000007ac .LASF153
C:\Users\stapi\AppData\Local\Temp\ccErmMOj.s:1109   .text.os_strlcpy:0000000000000000 .LFB105
C:\Users\stapi\AppData\Local\Temp\ccErmMOj.s:1179   .text.os_strlcpy:0000000000000038 .LFE105
C:\Users\stapi\AppData\Local\Temp\ccErmMOj.s:8007   .debug_str:0000000000000a7f .LASF154
C:\Users\stapi\AppData\Local\Temp\ccErmMOj.s:6113   .debug_loc:00000000000001b0 .LLST72
C:\Users\stapi\AppData\Local\Temp\ccErmMOj.s:6128   .debug_loc:00000000000001d9 .LLST73
C:\Users\stapi\AppData\Local\Temp\ccErmMOj.s:6153   .debug_loc:0000000000000213 .LLST74
C:\Users\stapi\AppData\Local\Temp\ccErmMOj.s:7881   .debug_str:000000000000080e .LASF155
C:\Users\stapi\AppData\Local\Temp\ccErmMOj.s:6186   .debug_loc:000000000000026a .LLST75
C:\Users\stapi\AppData\Local\Temp\ccErmMOj.s:7927   .debug_str:00000000000008d9 .LASF156
C:\Users\stapi\AppData\Local\Temp\ccErmMOj.s:1093   .text.os_strncpy:0000000000000000 .LFB104
C:\Users\stapi\AppData\Local\Temp\ccErmMOj.s:1102   .text.os_strncpy:0000000000000008 .LFE104
C:\Users\stapi\AppData\Local\Temp\ccErmMOj.s:6227   .debug_loc:00000000000002c2 .LLST69
C:\Users\stapi\AppData\Local\Temp\ccErmMOj.s:6241   .debug_loc:00000000000002e3 .LLST70
C:\Users\stapi\AppData\Local\Temp\ccErmMOj.s:6255   .debug_loc:0000000000000304 .LLST71
C:\Users\stapi\AppData\Local\Temp\ccErmMOj.s:1100   .text.os_strncpy:0000000000000008 .LVL108
C:\Users\stapi\AppData\Local\Temp\ccErmMOj.s:7843   .debug_str:0000000000000769 .LASF157
C:\Users\stapi\AppData\Local\Temp\ccErmMOj.s:7603   .debug_str:000000000000014b .LASF158
C:\Users\stapi\AppData\Local\Temp\ccErmMOj.s:7831   .debug_str:000000000000072d .LASF159
C:\Users\stapi\AppData\Local\Temp\ccErmMOj.s:1055   .text.os_strrchr:0000000000000000 .LFB101
C:\Users\stapi\AppData\Local\Temp\ccErmMOj.s:1064   .text.os_strrchr:0000000000000008 .LFE101
C:\Users\stapi\AppData\Local\Temp\ccErmMOj.s:6269   .debug_loc:0000000000000325 .LLST67
C:\Users\stapi\AppData\Local\Temp\ccErmMOj.s:6283   .debug_loc:0000000000000346 .LLST68
C:\Users\stapi\AppData\Local\Temp\ccErmMOj.s:1062   .text.os_strrchr:0000000000000008 .LVL106
C:\Users\stapi\AppData\Local\Temp\ccErmMOj.s:7913   .debug_str:000000000000089e .LASF160
C:\Users\stapi\AppData\Local\Temp\ccErmMOj.s:1039   .text.os_strchr:0000000000000000 .LFB100
C:\Users\stapi\AppData\Local\Temp\ccErmMOj.s:1048   .text.os_strchr:0000000000000008 .LFE100
C:\Users\stapi\AppData\Local\Temp\ccErmMOj.s:6297   .debug_loc:0000000000000367 .LLST65
C:\Users\stapi\AppData\Local\Temp\ccErmMOj.s:6311   .debug_loc:0000000000000388 .LLST66
C:\Users\stapi\AppData\Local\Temp\ccErmMOj.s:1046   .text.os_strchr:0000000000000008 .LVL104
C:\Users\stapi\AppData\Local\Temp\ccErmMOj.s:7763   .debug_str:00000000000005eb .LASF161
C:\Users\stapi\AppData\Local\Temp\ccErmMOj.s:7847   .debug_str:000000000000077b .LASF162
C:\Users\stapi\AppData\Local\Temp\ccErmMOj.s:7629   .debug_str:00000000000001e6 .LASF163
C:\Users\stapi\AppData\Local\Temp\ccErmMOj.s:7949   .debug_str:0000000000000964 .LASF164
C:\Users\stapi\AppData\Local\Temp\ccErmMOj.s:909    .text.os_strdup:0000000000000000 .LFB96
C:\Users\stapi\AppData\Local\Temp\ccErmMOj.s:974    .text.os_strdup:0000000000000040 .LFE96
C:\Users\stapi\AppData\Local\Temp\ccErmMOj.s:6325   .debug_loc:00000000000003a9 .LLST50
C:\Users\stapi\AppData\Local\Temp\ccErmMOj.s:6342   .debug_loc:00000000000003d4 .LLST51
C:\Users\stapi\AppData\Local\Temp\ccErmMOj.s:923    .text.os_strdup:000000000000000a .LBB22
C:\Users\stapi\AppData\Local\Temp\ccErmMOj.s:6359   .debug_loc:00000000000003ff .LLST52
C:\Users\stapi\AppData\Local\Temp\ccErmMOj.s:935    .text.os_strdup:0000000000000014 .LVL91
C:\Users\stapi\AppData\Local\Temp\ccErmMOj.s:942    .text.os_strdup:0000000000000018 .LBB26
C:\Users\stapi\AppData\Local\Temp\ccErmMOj.s:953    .text.os_strdup:0000000000000026 .LBE26
C:\Users\stapi\AppData\Local\Temp\ccErmMOj.s:6367   .debug_loc:0000000000000413 .LLST53
C:\Users\stapi\AppData\Local\Temp\ccErmMOj.s:949    .text.os_strdup:0000000000000024 .LVL93
C:\Users\stapi\AppData\Local\Temp\ccErmMOj.s:961    .text.os_strdup:0000000000000034 .LVL95
C:\Users\stapi\AppData\Local\Temp\ccErmMOj.s:7939   .debug_str:0000000000000924 .LASF165
C:\Users\stapi\AppData\Local\Temp\ccErmMOj.s:893    .text.os_memcmp:0000000000000000 .LFB95
C:\Users\stapi\AppData\Local\Temp\ccErmMOj.s:902    .text.os_memcmp:0000000000000008 .LFE95
C:\Users\stapi\AppData\Local\Temp\ccErmMOj.s:6379   .debug_loc:0000000000000432 .LLST47
C:\Users\stapi\AppData\Local\Temp\ccErmMOj.s:6393   .debug_loc:0000000000000453 .LLST48
C:\Users\stapi\AppData\Local\Temp\ccErmMOj.s:6407   .debug_loc:0000000000000474 .LLST49
C:\Users\stapi\AppData\Local\Temp\ccErmMOj.s:900    .text.os_memcmp:0000000000000008 .LVL87
C:\Users\stapi\AppData\Local\Temp\ccErmMOj.s:7855   .debug_str:00000000000007a2 .LASF166
C:\Users\stapi\AppData\Local\Temp\ccErmMOj.s:820    .text.os_memset:0000000000000000 .LFB94
C:\Users\stapi\AppData\Local\Temp\ccErmMOj.s:829    .text.os_memset:0000000000000008 .LFE94
C:\Users\stapi\AppData\Local\Temp\ccErmMOj.s:6421   .debug_loc:0000000000000495 .LLST42
C:\Users\stapi\AppData\Local\Temp\ccErmMOj.s:6435   .debug_loc:00000000000004b6 .LLST43
C:\Users\stapi\AppData\Local\Temp\ccErmMOj.s:6449   .debug_loc:00000000000004d7 .LLST44
C:\Users\stapi\AppData\Local\Temp\ccErmMOj.s:827    .text.os_memset:0000000000000008 .LVL78
C:\Users\stapi\AppData\Local\Temp\ccErmMOj.s:7919   .debug_str:00000000000008b6 .LASF167
C:\Users\stapi\AppData\Local\Temp\ccErmMOj.s:804    .text.os_memmove:0000000000000000 .LFB93
C:\Users\stapi\AppData\Local\Temp\ccErmMOj.s:813    .text.os_memmove:0000000000000008 .LFE93
C:\Users\stapi\AppData\Local\Temp\ccErmMOj.s:6463   .debug_loc:00000000000004f8 .LLST39
C:\Users\stapi\AppData\Local\Temp\ccErmMOj.s:6477   .debug_loc:0000000000000519 .LLST40
C:\Users\stapi\AppData\Local\Temp\ccErmMOj.s:6491   .debug_loc:000000000000053a .LLST41
C:\Users\stapi\AppData\Local\Temp\ccErmMOj.s:811    .text.os_memmove:0000000000000008 .LVL76
C:\Users\stapi\AppData\Local\Temp\ccErmMOj.s:7579   .debug_str:00000000000000da .LASF168
C:\Users\stapi\AppData\Local\Temp\ccErmMOj.s:728    .text.os_memcpy:0000000000000000 .LFB92
C:\Users\stapi\AppData\Local\Temp\ccErmMOj.s:737    .text.os_memcpy:0000000000000008 .LFE92
C:\Users\stapi\AppData\Local\Temp\ccErmMOj.s:6505   .debug_loc:000000000000055b .LLST34
C:\Users\stapi\AppData\Local\Temp\ccErmMOj.s:6519   .debug_loc:000000000000057c .LLST35
C:\Users\stapi\AppData\Local\Temp\ccErmMOj.s:6533   .debug_loc:000000000000059d .LLST36
C:\Users\stapi\AppData\Local\Temp\ccErmMOj.s:735    .text.os_memcpy:0000000000000008 .LVL68
C:\Users\stapi\AppData\Local\Temp\ccErmMOj.s:7861   .debug_str:00000000000007c2 .LASF181
C:\Users\stapi\AppData\Local\Temp\ccErmMOj.s:708    .text.os_free:0000000000000000 .LFB91
C:\Users\stapi\AppData\Local\Temp\ccErmMOj.s:721    .text.os_free:000000000000000c .LFE91
C:\Users\stapi\AppData\Local\Temp\ccErmMOj.s:6547   .debug_loc:00000000000005be .LLST33
C:\Users\stapi\AppData\Local\Temp\ccErmMOj.s:717    .text.os_free:000000000000000a .LVL66
C:\Users\stapi\AppData\Local\Temp\ccErmMOj.s:7783   .debug_str:0000000000000642 .LASF169
C:\Users\stapi\AppData\Local\Temp\ccErmMOj.s:692    .text.os_realloc:0000000000000000 .LFB90
C:\Users\stapi\AppData\Local\Temp\ccErmMOj.s:701    .text.os_realloc:0000000000000008 .LFE90
C:\Users\stapi\AppData\Local\Temp\ccErmMOj.s:6565   .debug_loc:00000000000005ea .LLST31
C:\Users\stapi\AppData\Local\Temp\ccErmMOj.s:6579   .debug_loc:000000000000060b .LLST32
C:\Users\stapi\AppData\Local\Temp\ccErmMOj.s:699    .text.os_realloc:0000000000000008 .LVL64
C:\Users\stapi\AppData\Local\Temp\ccErmMOj.s:7899   .debug_str:0000000000000859 .LASF170
C:\Users\stapi\AppData\Local\Temp\ccErmMOj.s:744    .text.os_memdup:0000000000000000 .LFB89
C:\Users\stapi\AppData\Local\Temp\ccErmMOj.s:797    .text.os_memdup:0000000000000034 .LFE89
C:\Users\stapi\AppData\Local\Temp\ccErmMOj.s:6593   .debug_loc:000000000000062c .LLST37
C:\Users\stapi\AppData\Local\Temp\ccErmMOj.s:6604   .debug_loc:000000000000064a .LLST38
C:\Users\stapi\AppData\Local\Temp\ccErmMOj.s:754    .text.os_memdup:0000000000000008 .LBB14
C:\Users\stapi\AppData\Local\Temp\ccErmMOj.s:771    .text.os_memdup:0000000000000018 .LVL71
C:\Users\stapi\AppData\Local\Temp\ccErmMOj.s:783    .text.os_memdup:0000000000000028 .LVL73
C:\Users\stapi\AppData\Local\Temp\ccErmMOj.s:7725   .debug_str:0000000000000525 .LASF171
C:\Users\stapi\AppData\Local\Temp\ccErmMOj.s:7661   .debug_str:0000000000000278 .LASF172
C:\Users\stapi\AppData\Local\Temp\ccErmMOj.s:836    .text.os_zalloc:0000000000000000 .LFB87
C:\Users\stapi\AppData\Local\Temp\ccErmMOj.s:886    .text.os_zalloc:0000000000000030 .LFE87
C:\Users\stapi\AppData\Local\Temp\ccErmMOj.s:6621   .debug_loc:0000000000000675 .LLST45
C:\Users\stapi\AppData\Local\Temp\ccErmMOj.s:849    .text.os_zalloc:000000000000000a .LBB18
C:\Users\stapi\AppData\Local\Temp\ccErmMOj.s:6638   .debug_loc:00000000000006a0 .LLST46
C:\Users\stapi\AppData\Local\Temp\ccErmMOj.s:861    .text.os_zalloc:0000000000000014 .LVL82
C:\Users\stapi\AppData\Local\Temp\ccErmMOj.s:873    .text.os_zalloc:0000000000000024 .LVL84
C:\Users\stapi\AppData\Local\Temp\ccErmMOj.s:7813   .debug_str:00000000000006db .LASF173
C:\Users\stapi\AppData\Local\Temp\ccErmMOj.s:648    .text.os_fdatasync:0000000000000000 .LFB86
C:\Users\stapi\AppData\Local\Temp\ccErmMOj.s:669    .text.os_fdatasync:0000000000000024 .LFE86
C:\Users\stapi\AppData\Local\Temp\ccErmMOj.s:8017   .debug_str:0000000000000aab .LASF174
C:\Users\stapi\AppData\Local\Temp\ccErmMOj.s:6646   .debug_loc:00000000000006b4 .LLST29
C:\Users\stapi\AppData\Local\Temp\ccErmMOj.s:661    .text.os_fdatasync:000000000000001a .LVL60
C:\Users\stapi\AppData\Local\Temp\ccErmMOj.s:7733   .debug_str:000000000000054a .LASF175
C:\Users\stapi\AppData\Local\Temp\ccErmMOj.s:615    .text.os_readfile:0000000000000000 .LFB85
C:\Users\stapi\AppData\Local\Temp\ccErmMOj.s:637    .text.os_readfile:0000000000000024 .LFE85
C:\Users\stapi\AppData\Local\Temp\ccErmMOj.s:7893   .debug_str:0000000000000841 .LASF176
C:\Users\stapi\AppData\Local\Temp\ccErmMOj.s:6660   .debug_loc:00000000000006d5 .LLST27
C:\Users\stapi\AppData\Local\Temp\ccErmMOj.s:6674   .debug_loc:00000000000006f6 .LLST28
C:\Users\stapi\AppData\Local\Temp\ccErmMOj.s:629    .text.os_readfile:000000000000001a .LVL57
C:\Users\stapi\AppData\Local\Temp\ccErmMOj.s:7841   .debug_str:000000000000075d .LASF177
C:\Users\stapi\AppData\Local\Temp\ccErmMOj.s:583    .text.os_unsetenv:0000000000000000 .LFB84
C:\Users\stapi\AppData\Local\Temp\ccErmMOj.s:604    .text.os_unsetenv:0000000000000024 .LFE84
C:\Users\stapi\AppData\Local\Temp\ccErmMOj.s:6688   .debug_loc:0000000000000717 .LLST26
C:\Users\stapi\AppData\Local\Temp\ccErmMOj.s:596    .text.os_unsetenv:000000000000001a .LVL53
C:\Users\stapi\AppData\Local\Temp\ccErmMOj.s:7729   .debug_str:0000000000000535 .LASF178
C:\Users\stapi\AppData\Local\Temp\ccErmMOj.s:550    .text.os_setenv:0000000000000000 .LFB83
C:\Users\stapi\AppData\Local\Temp\ccErmMOj.s:572    .text.os_setenv:0000000000000024 .LFE83
C:\Users\stapi\AppData\Local\Temp\ccErmMOj.s:6702   .debug_loc:0000000000000738 .LLST23
C:\Users\stapi\AppData\Local\Temp\ccErmMOj.s:7693   .debug_str:00000000000003a3 .LASF179
C:\Users\stapi\AppData\Local\Temp\ccErmMOj.s:6716   .debug_loc:0000000000000759 .LLST24
C:\Users\stapi\AppData\Local\Temp\ccErmMOj.s:7853   .debug_str:0000000000000798 .LASF180
C:\Users\stapi\AppData\Local\Temp\ccErmMOj.s:6730   .debug_loc:000000000000077a .LLST25
C:\Users\stapi\AppData\Local\Temp\ccErmMOj.s:564    .text.os_setenv:000000000000001a .LVL50
C:\Users\stapi\AppData\Local\Temp\ccErmMOj.s:7613   .debug_str:000000000000017c .LASF182
C:\Users\stapi\AppData\Local\Temp\ccErmMOj.s:529    .text.os_program_deinit:0000000000000000 .LFB82
C:\Users\stapi\AppData\Local\Temp\ccErmMOj.s:539    .text.os_program_deinit:0000000000000012 .LFE82
C:\Users\stapi\AppData\Local\Temp\ccErmMOj.s:537    .text.os_program_deinit:0000000000000012 .LVL46
C:\Users\stapi\AppData\Local\Temp\ccErmMOj.s:7761   .debug_str:00000000000005db .LASF183
C:\Users\stapi\AppData\Local\Temp\ccErmMOj.s:499    .text.os_program_init:0000000000000000 .LFB81
C:\Users\stapi\AppData\Local\Temp\ccErmMOj.s:518    .text.os_program_init:0000000000000024 .LFE81
C:\Users\stapi\AppData\Local\Temp\ccErmMOj.s:510    .text.os_program_init:000000000000001a .LVL45
C:\Users\stapi\AppData\Local\Temp\ccErmMOj.s:7581   .debug_str:00000000000000e4 .LASF184
C:\Users\stapi\AppData\Local\Temp\ccErmMOj.s:467    .text.os_rel2abs_path:0000000000000000 .LFB80
C:\Users\stapi\AppData\Local\Temp\ccErmMOj.s:488    .text.os_rel2abs_path:0000000000000024 .LFE80
C:\Users\stapi\AppData\Local\Temp\ccErmMOj.s:7679   .debug_str:00000000000002e0 .LASF185
C:\Users\stapi\AppData\Local\Temp\ccErmMOj.s:6744   .debug_loc:000000000000079b .LLST22
C:\Users\stapi\AppData\Local\Temp\ccErmMOj.s:480    .text.os_rel2abs_path:000000000000001a .LVL44
C:\Users\stapi\AppData\Local\Temp\ccErmMOj.s:7705   .debug_str:00000000000004ca .LASF186
C:\Users\stapi\AppData\Local\Temp\ccErmMOj.s:429    .text.os_random:0000000000000000 .LFB79
C:\Users\stapi\AppData\Local\Temp\ccErmMOj.s:456    .text.os_random:0000000000000024 .LFE79
C:\Users\stapi\AppData\Local\Temp\ccErmMOj.s:8019   .debug_str:0000000000000ab2 .LASF187
C:\Users\stapi\AppData\Local\Temp\ccErmMOj.s:446    .text.os_random:0000000000000018 .LVL41
C:\Users\stapi\AppData\Local\Temp\ccErmMOj.s:7709   .debug_str:00000000000004e2 .LASF188
C:\Users\stapi\AppData\Local\Temp\ccErmMOj.s:405    .text.os_get_random:0000000000000000 .LFB78
C:\Users\stapi\AppData\Local\Temp\ccErmMOj.s:422    .text.os_get_random:000000000000001a .LFE78
C:\Users\stapi\AppData\Local\Temp\ccErmMOj.s:6758   .debug_loc:00000000000007bc .LLST20
C:\Users\stapi\AppData\Local\Temp\ccErmMOj.s:6772   .debug_loc:00000000000007dd .LLST21
C:\Users\stapi\AppData\Local\Temp\ccErmMOj.s:414    .text.os_get_random:0000000000000010 .LVL40
C:\Users\stapi\AppData\Local\Temp\ccErmMOj.s:7941   .debug_str:000000000000092e .LASF189
C:\Users\stapi\AppData\Local\Temp\ccErmMOj.s:386    .text.os_daemonize_terminate:0000000000000000 .LFB77
C:\Users\stapi\AppData\Local\Temp\ccErmMOj.s:398    .text.os_daemonize_terminate:0000000000000012 .LFE77
C:\Users\stapi\AppData\Local\Temp\ccErmMOj.s:7897   .debug_str:0000000000000850 .LASF190
C:\Users\stapi\AppData\Local\Temp\ccErmMOj.s:6786   .debug_loc:00000000000007fe .LLST19
C:\Users\stapi\AppData\Local\Temp\ccErmMOj.s:396    .text.os_daemonize_terminate:0000000000000012 .LVL38
C:\Users\stapi\AppData\Local\Temp\ccErmMOj.s:7799   .debug_str:0000000000000698 .LASF191
C:\Users\stapi\AppData\Local\Temp\ccErmMOj.s:354    .text.os_daemonize:0000000000000000 .LFB76
C:\Users\stapi\AppData\Local\Temp\ccErmMOj.s:375    .text.os_daemonize:0000000000000024 .LFE76
C:\Users\stapi\AppData\Local\Temp\ccErmMOj.s:6800   .debug_loc:000000000000081f .LLST18
C:\Users\stapi\AppData\Local\Temp\ccErmMOj.s:367    .text.os_daemonize:000000000000001a .LVL35
C:\Users\stapi\AppData\Local\Temp\ccErmMOj.s:7937   .debug_str:000000000000091a .LASF192
C:\Users\stapi\AppData\Local\Temp\ccErmMOj.s:321    .text.os_gmtime:0000000000000000 .LFB75
C:\Users\stapi\AppData\Local\Temp\ccErmMOj.s:343    .text.os_gmtime:0000000000000024 .LFE75
C:\Users\stapi\AppData\Local\Temp\ccErmMOj.s:6814   .debug_loc:0000000000000840 .LLST16
C:\Users\stapi\AppData\Local\Temp\ccErmMOj.s:6828   .debug_loc:0000000000000861 .LLST17
C:\Users\stapi\AppData\Local\Temp\ccErmMOj.s:335    .text.os_gmtime:000000000000001a .LVL32
C:\Users\stapi\AppData\Local\Temp\ccErmMOj.s:7627   .debug_str:00000000000001dc .LASF193
C:\Users\stapi\AppData\Local\Temp\ccErmMOj.s:136    .text.os_mktime:0000000000000000 .LFB74
C:\Users\stapi\AppData\Local\Temp\ccErmMOj.s:310    .text.os_mktime:00000000000000ca .LFE74
C:\Users\stapi\AppData\Local\Temp\ccErmMOj.s:6842   .debug_loc:0000000000000882 .LLST5
C:\Users\stapi\AppData\Local\Temp\ccErmMOj.s:6853   .debug_loc:00000000000008a0 .LLST6
C:\Users\stapi\AppData\Local\Temp\ccErmMOj.s:6864   .debug_loc:00000000000008be .LLST7
C:\Users\stapi\AppData\Local\Temp\ccErmMOj.s:6875   .debug_loc:00000000000008dc .LLST8
C:\Users\stapi\AppData\Local\Temp\ccErmMOj.s:6886   .debug_loc:00000000000008fa .LLST9
C:\Users\stapi\AppData\Local\Temp\ccErmMOj.s:6908   .debug_loc:0000000000000931 .LLST10
C:\Users\stapi\AppData\Local\Temp\ccErmMOj.s:6919   .debug_loc:000000000000094f .LLST11
C:\Users\stapi\AppData\Local\Temp\ccErmMOj.s:7653   .debug_str:0000000000000255 .LASF194
C:\Users\stapi\AppData\Local\Temp\ccErmMOj.s:6930   .debug_loc:000000000000096d .LLST12
C:\Users\stapi\AppData\Local\Temp\ccErmMOj.s:6974   .debug_loc:00000000000009bc .LLST13
C:\Users\stapi\AppData\Local\Temp\ccErmMOj.s:7573   .debug_str:00000000000000ba .LASF195
C:\Users\stapi\AppData\Local\Temp\ccErmMOj.s:7909   .debug_str:0000000000000887 .LASF196
C:\Users\stapi\AppData\Local\Temp\ccErmMOj.s:7000   .debug_loc:00000000000009fe .LLST14
C:\Users\stapi\AppData\Local\Temp\ccErmMOj.s:7817   .debug_str:00000000000006ee .LASF197
C:\Users\stapi\AppData\Local\Temp\ccErmMOj.s:7027   .debug_loc:0000000000000a3a .LLST15
C:\Users\stapi\AppData\Local\Temp\ccErmMOj.s:7779   .debug_str:0000000000000632 .LASF198
C:\Users\stapi\AppData\Local\Temp\ccErmMOj.s:7835   .debug_str:0000000000000744 .LASF199
C:\Users\stapi\AppData\Local\Temp\ccErmMOj.s:183    .text.os_mktime:0000000000000032 .LVL17
C:\Users\stapi\AppData\Local\Temp\ccErmMOj.s:7643   .debug_str:0000000000000223 .LASF200
C:\Users\stapi\AppData\Local\Temp\ccErmMOj.s:89     .text.os_get_reltime:0000000000000000 .LFB73
C:\Users\stapi\AppData\Local\Temp\ccErmMOj.s:129    .text.os_get_reltime:000000000000002c .LFE73
C:\Users\stapi\AppData\Local\Temp\ccErmMOj.s:7105   .debug_loc:0000000000000ab7 .LLST4
C:\Users\stapi\AppData\Local\Temp\ccErmMOj.s:111    .text.os_get_reltime:000000000000001a .LVL10
C:\Users\stapi\AppData\Local\Temp\ccErmMOj.s:7601   .debug_str:000000000000013f .LASF201
C:\Users\stapi\AppData\Local\Temp\ccErmMOj.s:42     .text.os_get_time:0000000000000000 .LFB72
C:\Users\stapi\AppData\Local\Temp\ccErmMOj.s:82     .text.os_get_time:000000000000002c .LFE72
C:\Users\stapi\AppData\Local\Temp\ccErmMOj.s:7116   .debug_loc:0000000000000ad5 .LLST3
C:\Users\stapi\AppData\Local\Temp\ccErmMOj.s:64     .text.os_get_time:000000000000001a .LVL7
C:\Users\stapi\AppData\Local\Temp\ccErmMOj.s:7739   .debug_str:0000000000000568 .LASF202
C:\Users\stapi\AppData\Local\Temp\ccErmMOj.s:14     .text.os_sleep:0000000000000000 .LFB71
C:\Users\stapi\AppData\Local\Temp\ccErmMOj.s:35     .text.os_sleep:0000000000000016 .LFE71
C:\Users\stapi\AppData\Local\Temp\ccErmMOj.s:7127   .debug_loc:0000000000000af3 .LLST0
C:\Users\stapi\AppData\Local\Temp\ccErmMOj.s:7141   .debug_loc:0000000000000b14 .LLST1
C:\Users\stapi\AppData\Local\Temp\ccErmMOj.s:7865   .debug_str:00000000000007d3 .LASF203
C:\Users\stapi\AppData\Local\Temp\ccErmMOj.s:7155   .debug_loc:0000000000000b35 .LLST2
C:\Users\stapi\AppData\Local\Temp\ccErmMOj.s:33     .text.os_sleep:0000000000000016 .LVL4
C:\Users\stapi\AppData\Local\Temp\ccErmMOj.s:676    .text.os_malloc:0000000000000000 .LFB88
C:\Users\stapi\AppData\Local\Temp\ccErmMOj.s:685    .text.os_malloc:0000000000000008 .LFE88
C:\Users\stapi\AppData\Local\Temp\ccErmMOj.s:7210   .debug_loc:0000000000000b93 .LLST30
C:\Users\stapi\AppData\Local\Temp\ccErmMOj.s:683    .text.os_malloc:0000000000000008 .LVL62
C:\Users\stapi\AppData\Local\Temp\ccErmMOj.s:981    .text.os_strlen:0000000000000000 .LFB97
C:\Users\stapi\AppData\Local\Temp\ccErmMOj.s:990    .text.os_strlen:0000000000000008 .LFE97
C:\Users\stapi\AppData\Local\Temp\ccErmMOj.s:7224   .debug_loc:0000000000000bb4 .LLST54
C:\Users\stapi\AppData\Local\Temp\ccErmMOj.s:988    .text.os_strlen:0000000000000008 .LVL98
C:\Users\stapi\AppData\Local\Temp\ccErmMOj.s:997    .text.os_strcasecmp:0000000000000000 .LFB98
C:\Users\stapi\AppData\Local\Temp\ccErmMOj.s:1011   .text.os_strcasecmp:0000000000000008 .LFE98
C:\Users\stapi\AppData\Local\Temp\ccErmMOj.s:7238   .debug_loc:0000000000000bd5 .LLST55
C:\Users\stapi\AppData\Local\Temp\ccErmMOj.s:7252   .debug_loc:0000000000000bf6 .LLST56
C:\Users\stapi\AppData\Local\Temp\ccErmMOj.s:1002   .text.os_strcasecmp:0000000000000000 .LBB30
C:\Users\stapi\AppData\Local\Temp\ccErmMOj.s:1009   .text.os_strcasecmp:0000000000000008 .LBE30
C:\Users\stapi\AppData\Local\Temp\ccErmMOj.s:7266   .debug_loc:0000000000000c17 .LLST57
C:\Users\stapi\AppData\Local\Temp\ccErmMOj.s:7280   .debug_loc:0000000000000c38 .LLST58
C:\Users\stapi\AppData\Local\Temp\ccErmMOj.s:1007   .text.os_strcasecmp:0000000000000008 .LVL100
C:\Users\stapi\AppData\Local\Temp\ccErmMOj.s:1018   .text.os_strncasecmp:0000000000000000 .LFB99
C:\Users\stapi\AppData\Local\Temp\ccErmMOj.s:1032   .text.os_strncasecmp:0000000000000008 .LFE99
C:\Users\stapi\AppData\Local\Temp\ccErmMOj.s:7294   .debug_loc:0000000000000c59 .LLST59
C:\Users\stapi\AppData\Local\Temp\ccErmMOj.s:7308   .debug_loc:0000000000000c7a .LLST60
C:\Users\stapi\AppData\Local\Temp\ccErmMOj.s:7322   .debug_loc:0000000000000c9b .LLST61
C:\Users\stapi\AppData\Local\Temp\ccErmMOj.s:1023   .text.os_strncasecmp:0000000000000000 .LBB34
C:\Users\stapi\AppData\Local\Temp\ccErmMOj.s:1030   .text.os_strncasecmp:0000000000000008 .LBE34
C:\Users\stapi\AppData\Local\Temp\ccErmMOj.s:7336   .debug_loc:0000000000000cbc .LLST62
C:\Users\stapi\AppData\Local\Temp\ccErmMOj.s:7350   .debug_loc:0000000000000cdd .LLST63
C:\Users\stapi\AppData\Local\Temp\ccErmMOj.s:7364   .debug_loc:0000000000000cfe .LLST64
C:\Users\stapi\AppData\Local\Temp\ccErmMOj.s:1028   .text.os_strncasecmp:0000000000000008 .LVL102
C:\Users\stapi\AppData\Local\Temp\ccErmMOj.s:7879   .debug_str:0000000000000803 .LASF204
C:\Users\stapi\AppData\Local\Temp\ccErmMOj.s:7935   .debug_str:0000000000000905 .LASF205
C:\Users\stapi\AppData\Local\Temp\ccErmMOj.s:7921   .debug_str:00000000000008c1 .LASF206
C:\Users\stapi\AppData\Local\Temp\ccErmMOj.s:7671   .debug_str:00000000000002c3 .LASF207
C:\Users\stapi\AppData\Local\Temp\ccErmMOj.s:7565   .debug_str:0000000000000095 .LASF208
C:\Users\stapi\AppData\Local\Temp\ccErmMOj.s:7851   .debug_str:0000000000000791 .LASF209
C:\Users\stapi\AppData\Local\Temp\ccErmMOj.s:7569   .debug_str:00000000000000a5 .LASF210
C:\Users\stapi\AppData\Local\Temp\ccErmMOj.s:7859   .debug_str:00000000000007b7 .LASF211
C:\Users\stapi\AppData\Local\Temp\ccErmMOj.s:7637   .debug_str:0000000000000206 .LASF212
C:\Users\stapi\AppData\Local\Temp\ccErmMOj.s:7599   .debug_str:0000000000000138 .LASF213
C:\Users\stapi\AppData\Local\Temp\ccErmMOj.s:7655   .debug_str:0000000000000260 .LASF214
C:\Users\stapi\AppData\Local\Temp\ccErmMOj.s:7969   .debug_str:00000000000009d4 .LASF228
C:\Users\stapi\AppData\Local\Temp\ccErmMOj.s:7623   .debug_str:00000000000001c3 .LASF229
C:\Users\stapi\AppData\Local\Temp\ccErmMOj.s:7735   .debug_str:0000000000000556 .LASF215
C:\Users\stapi\AppData\Local\Temp\ccErmMOj.s:7775   .debug_str:000000000000061f .LASF216
C:\Users\stapi\AppData\Local\Temp\ccErmMOj.s:7731   .debug_str:000000000000053f .LASF217
C:\Users\stapi\AppData\Local\Temp\ccErmMOj.s:7633   .debug_str:00000000000001f5 .LASF218
C:\Users\stapi\AppData\Local\Temp\ccErmMOj.s:7791   .debug_str:0000000000000667 .LASF219
C:\Users\stapi\AppData\Local\Temp\ccErmMOj.s:7767   .debug_str:0000000000000604 .LASF220
C:\Users\stapi\AppData\Local\Temp\ccErmMOj.s:7575   .debug_str:00000000000000c4 .LASF221
C:\Users\stapi\AppData\Local\Temp\ccErmMOj.s:1309   .text.os_exec:0000000000000000 .LVL133
C:\Users\stapi\AppData\Local\Temp\ccErmMOj.s:1318   .text.os_exec:0000000000000012 .LVL135
C:\Users\stapi\AppData\Local\Temp\ccErmMOj.s:1315   .text.os_exec:000000000000000c .LVL134
C:\Users\stapi\AppData\Local\Temp\ccErmMOj.s:1257   .text.os_snprintf:0000000000000000 .LVL130
C:\Users\stapi\AppData\Local\Temp\ccErmMOj.s:1272   .text.os_snprintf:000000000000000c .LVL131
C:\Users\stapi\AppData\Local\Temp\ccErmMOj.s:1241   .text.os_strstr:0000000000000000 .LVL128
C:\Users\stapi\AppData\Local\Temp\ccErmMOj.s:1189   .text.os_memcmp_const:0000000000000000 .LVL122
C:\Users\stapi\AppData\Local\Temp\ccErmMOj.s:1202   .text.os_memcmp_const:0000000000000006 .LVL124
C:\Users\stapi\AppData\Local\Temp\ccErmMOj.s:1193   .text.os_memcmp_const:0000000000000002 .LVL123
C:\Users\stapi\AppData\Local\Temp\ccErmMOj.s:1221   .text.os_memcmp_const:000000000000001e .LVL125
C:\Users\stapi\AppData\Local\Temp\ccErmMOj.s:1227   .text.os_memcmp_const:0000000000000028 .LVL127
C:\Users\stapi\AppData\Local\Temp\ccErmMOj.s:1225   .text.os_memcmp_const:0000000000000024 .LVL126
C:\Users\stapi\AppData\Local\Temp\ccErmMOj.s:1112   .text.os_strlcpy:0000000000000000 .LVL109
C:\Users\stapi\AppData\Local\Temp\ccErmMOj.s:1125   .text.os_strlcpy:0000000000000008 .LVL112
C:\Users\stapi\AppData\Local\Temp\ccErmMOj.s:1154   .text.os_strlcpy:0000000000000024 .LVL118
C:\Users\stapi\AppData\Local\Temp\ccErmMOj.s:1163   .text.os_strlcpy:000000000000002c .LVL119
C:\Users\stapi\AppData\Local\Temp\ccErmMOj.s:1167   .text.os_strlcpy:000000000000002e .LVL120
C:\Users\stapi\AppData\Local\Temp\ccErmMOj.s:1122   .text.os_strlcpy:0000000000000006 .LVL111
C:\Users\stapi\AppData\Local\Temp\ccErmMOj.s:1116   .text.os_strlcpy:0000000000000002 .LVL110
C:\Users\stapi\AppData\Local\Temp\ccErmMOj.s:1131   .text.os_strlcpy:000000000000000c .LVL113
C:\Users\stapi\AppData\Local\Temp\ccErmMOj.s:1141   .text.os_strlcpy:0000000000000018 .LVL115
C:\Users\stapi\AppData\Local\Temp\ccErmMOj.s:1149   .text.os_strlcpy:000000000000001e .LVL117
C:\Users\stapi\AppData\Local\Temp\ccErmMOj.s:1134   .text.os_strlcpy:0000000000000010 .LVL114
C:\Users\stapi\AppData\Local\Temp\ccErmMOj.s:1096   .text.os_strncpy:0000000000000000 .LVL107
C:\Users\stapi\AppData\Local\Temp\ccErmMOj.s:1058   .text.os_strrchr:0000000000000000 .LVL105
C:\Users\stapi\AppData\Local\Temp\ccErmMOj.s:1042   .text.os_strchr:0000000000000000 .LVL103
C:\Users\stapi\AppData\Local\Temp\ccErmMOj.s:912    .text.os_strdup:0000000000000000 .LVL88
C:\Users\stapi\AppData\Local\Temp\ccErmMOj.s:968    .text.os_strdup:0000000000000038 .LVL96
C:\Users\stapi\AppData\Local\Temp\ccErmMOj.s:940    .text.os_strdup:0000000000000018 .LVL92
C:\Users\stapi\AppData\Local\Temp\ccErmMOj.s:922    .text.os_strdup:000000000000000a .LVL89
C:\Users\stapi\AppData\Local\Temp\ccErmMOj.s:930    .text.os_strdup:000000000000000c .LVL90
C:\Users\stapi\AppData\Local\Temp\ccErmMOj.s:951    .text.os_strdup:0000000000000026 .LVL94
C:\Users\stapi\AppData\Local\Temp\ccErmMOj.s:896    .text.os_memcmp:0000000000000000 .LVL86
C:\Users\stapi\AppData\Local\Temp\ccErmMOj.s:823    .text.os_memset:0000000000000000 .LVL77
C:\Users\stapi\AppData\Local\Temp\ccErmMOj.s:807    .text.os_memmove:0000000000000000 .LVL75
C:\Users\stapi\AppData\Local\Temp\ccErmMOj.s:731    .text.os_memcpy:0000000000000000 .LVL67
C:\Users\stapi\AppData\Local\Temp\ccErmMOj.s:711    .text.os_free:0000000000000000 .LVL65
C:\Users\stapi\AppData\Local\Temp\ccErmMOj.s:695    .text.os_realloc:0000000000000000 .LVL63
C:\Users\stapi\AppData\Local\Temp\ccErmMOj.s:747    .text.os_memdup:0000000000000000 .LVL69
C:\Users\stapi\AppData\Local\Temp\ccErmMOj.s:768    .text.os_memdup:000000000000000e .LVL70
C:\Users\stapi\AppData\Local\Temp\ccErmMOj.s:790    .text.os_memdup:000000000000002c .LVL74
C:\Users\stapi\AppData\Local\Temp\ccErmMOj.s:839    .text.os_zalloc:0000000000000000 .LVL79
C:\Users\stapi\AppData\Local\Temp\ccErmMOj.s:880    .text.os_zalloc:0000000000000028 .LVL85
C:\Users\stapi\AppData\Local\Temp\ccErmMOj.s:848    .text.os_zalloc:000000000000000a .LVL80
C:\Users\stapi\AppData\Local\Temp\ccErmMOj.s:856    .text.os_zalloc:000000000000000c .LVL81
C:\Users\stapi\AppData\Local\Temp\ccErmMOj.s:651    .text.os_fdatasync:0000000000000000 .LVL58
C:\Users\stapi\AppData\Local\Temp\ccErmMOj.s:659    .text.os_fdatasync:0000000000000012 .LVL59
C:\Users\stapi\AppData\Local\Temp\ccErmMOj.s:618    .text.os_readfile:0000000000000000 .LVL54
C:\Users\stapi\AppData\Local\Temp\ccErmMOj.s:627    .text.os_readfile:0000000000000012 .LVL56
C:\Users\stapi\AppData\Local\Temp\ccErmMOj.s:624    .text.os_readfile:000000000000000c .LVL55
C:\Users\stapi\AppData\Local\Temp\ccErmMOj.s:586    .text.os_unsetenv:0000000000000000 .LVL51
C:\Users\stapi\AppData\Local\Temp\ccErmMOj.s:594    .text.os_unsetenv:0000000000000012 .LVL52
C:\Users\stapi\AppData\Local\Temp\ccErmMOj.s:553    .text.os_setenv:0000000000000000 .LVL47
C:\Users\stapi\AppData\Local\Temp\ccErmMOj.s:562    .text.os_setenv:0000000000000012 .LVL49
C:\Users\stapi\AppData\Local\Temp\ccErmMOj.s:559    .text.os_setenv:000000000000000c .LVL48
C:\Users\stapi\AppData\Local\Temp\ccErmMOj.s:470    .text.os_rel2abs_path:0000000000000000 .LVL42
C:\Users\stapi\AppData\Local\Temp\ccErmMOj.s:478    .text.os_rel2abs_path:0000000000000012 .LVL43
C:\Users\stapi\AppData\Local\Temp\ccErmMOj.s:408    .text.os_get_random:0000000000000000 .LVL39
C:\Users\stapi\AppData\Local\Temp\ccErmMOj.s:389    .text.os_daemonize_terminate:0000000000000000 .LVL36
C:\Users\stapi\AppData\Local\Temp\ccErmMOj.s:394    .text.os_daemonize_terminate:000000000000000a .LVL37
C:\Users\stapi\AppData\Local\Temp\ccErmMOj.s:357    .text.os_daemonize:0000000000000000 .LVL33
C:\Users\stapi\AppData\Local\Temp\ccErmMOj.s:365    .text.os_daemonize:0000000000000012 .LVL34
C:\Users\stapi\AppData\Local\Temp\ccErmMOj.s:324    .text.os_gmtime:0000000000000000 .LVL29
C:\Users\stapi\AppData\Local\Temp\ccErmMOj.s:333    .text.os_gmtime:0000000000000012 .LVL31
C:\Users\stapi\AppData\Local\Temp\ccErmMOj.s:330    .text.os_gmtime:000000000000000c .LVL30
C:\Users\stapi\AppData\Local\Temp\ccErmMOj.s:139    .text.os_mktime:0000000000000000 .LVL11
C:\Users\stapi\AppData\Local\Temp\ccErmMOj.s:175    .text.os_mktime:0000000000000022 .LVL16
C:\Users\stapi\AppData\Local\Temp\ccErmMOj.s:162    .text.os_mktime:0000000000000010 .LVL13
C:\Users\stapi\AppData\Local\Temp\ccErmMOj.s:173    .text.os_mktime:0000000000000020 .LVL15
C:\Users\stapi\AppData\Local\Temp\ccErmMOj.s:258    .text.os_mktime:0000000000000094 .LVL24
C:\Users\stapi\AppData\Local\Temp\ccErmMOj.s:294    .text.os_mktime:00000000000000c0 .LVL26
C:\Users\stapi\AppData\Local\Temp\ccErmMOj.s:152    .text.os_mktime:0000000000000008 .LVL12
C:\Users\stapi\AppData\Local\Temp\ccErmMOj.s:200    .text.os_mktime:000000000000004e .LVL18
C:\Users\stapi\AppData\Local\Temp\ccErmMOj.s:207    .text.os_mktime:0000000000000054 .LVL19
C:\Users\stapi\AppData\Local\Temp\ccErmMOj.s:210    .text.os_mktime:0000000000000058 .LVL20
C:\Users\stapi\AppData\Local\Temp\ccErmMOj.s:215    .text.os_mktime:000000000000005c .LVL21
C:\Users\stapi\AppData\Local\Temp\ccErmMOj.s:223    .text.os_mktime:0000000000000062 .LVL22
C:\Users\stapi\AppData\Local\Temp\ccErmMOj.s:302    .text.os_mktime:00000000000000c4 .LVL27
C:\Users\stapi\AppData\Local\Temp\ccErmMOj.s:306    .text.os_mktime:00000000000000c8 .LVL28
C:\Users\stapi\AppData\Local\Temp\ccErmMOj.s:243    .text.os_mktime:0000000000000082 .LVL23
C:\Users\stapi\AppData\Local\Temp\ccErmMOj.s:263    .text.os_mktime:000000000000009e .LVL25
C:\Users\stapi\AppData\Local\Temp\ccErmMOj.s:92     .text.os_get_reltime:0000000000000000 .LVL8
C:\Users\stapi\AppData\Local\Temp\ccErmMOj.s:109    .text.os_get_reltime:0000000000000012 .LVL9
C:\Users\stapi\AppData\Local\Temp\ccErmMOj.s:45     .text.os_get_time:0000000000000000 .LVL5
C:\Users\stapi\AppData\Local\Temp\ccErmMOj.s:62     .text.os_get_time:0000000000000012 .LVL6
C:\Users\stapi\AppData\Local\Temp\ccErmMOj.s:18     .text.os_sleep:0000000000000000 .LVL0
C:\Users\stapi\AppData\Local\Temp\ccErmMOj.s:31     .text.os_sleep:000000000000000e .LVL3
C:\Users\stapi\AppData\Local\Temp\ccErmMOj.s:26     .text.os_sleep:0000000000000008 .LVL1
C:\Users\stapi\AppData\Local\Temp\ccErmMOj.s:29     .text.os_sleep:000000000000000c .LVL2
C:\Users\stapi\AppData\Local\Temp\ccErmMOj.s:679    .text.os_malloc:0000000000000000 .LVL61
C:\Users\stapi\AppData\Local\Temp\ccErmMOj.s:984    .text.os_strlen:0000000000000000 .LVL97
C:\Users\stapi\AppData\Local\Temp\ccErmMOj.s:1000   .text.os_strcasecmp:0000000000000000 .LVL99
C:\Users\stapi\AppData\Local\Temp\ccErmMOj.s:1021   .text.os_strncasecmp:0000000000000000 .LVL101
C:\Users\stapi\AppData\Local\Temp\ccErmMOj.s:1366   .debug_info:0000000000000000 .Ldebug_info0
C:\Users\stapi\AppData\Local\Temp\ccErmMOj.s:758    .text.os_memdup:0000000000000008 .LBE14
C:\Users\stapi\AppData\Local\Temp\ccErmMOj.s:764    .text.os_memdup:000000000000000c .LBB17
C:\Users\stapi\AppData\Local\Temp\ccErmMOj.s:775    .text.os_memdup:000000000000001a .LBE17
C:\Users\stapi\AppData\Local\Temp\ccErmMOj.s:853    .text.os_zalloc:000000000000000a .LBE18
C:\Users\stapi\AppData\Local\Temp\ccErmMOj.s:857    .text.os_zalloc:000000000000000c .LBB21
C:\Users\stapi\AppData\Local\Temp\ccErmMOj.s:865    .text.os_zalloc:0000000000000016 .LBE21
C:\Users\stapi\AppData\Local\Temp\ccErmMOj.s:927    .text.os_strdup:000000000000000a .LBE22
C:\Users\stapi\AppData\Local\Temp\ccErmMOj.s:931    .text.os_strdup:000000000000000c .LBB25
C:\Users\stapi\AppData\Local\Temp\ccErmMOj.s:937    .text.os_strdup:0000000000000014 .LBE25

UNDEFINED SYMBOLS
sys_ms_sleep
__riscv_save_1
get_time
__riscv_restore_1
__riscv_save_8
memcpy
__riscv_restore_8
__riscv_save_0
wpa_printf
__riscv_restore_0
random_get
sys_malloc
sys_realloc
sys_mfree
__riscv_save_2
__riscv_restore_2
memmove
memset
sys_memcmp
strlen
strcmp
strncmp
strchr
strrchr
strncpy
strstr
dbg_vsnprintf_offset
