   1              		.file	"pmksa_cache.c"
   2              		.option nopic
   3              		.attribute arch, "rv32i2p0_m2p0_a2p0_f2p0_c2p0_b_p0p94"
   4              		.attribute unaligned_access, 0
   5              		.attribute stack_align, 16
   6              		.text
   7              	.Ltext0:
   8              		.cfi_sections	.debug_frame
   9              		.section	.text.pmksa_cache_reauth,"ax",@progbits
  10              		.align	1
  12              	pmksa_cache_reauth:
  13              	.LFB162:
  14              		.file 1 "C:/Users/stapi/OneDrive/Desktop/GD32VW553/V1_MQTT_OK/GD32VW55X_Wifi_BLE_SDK/GD32VW55x_REL
   1:C:/Users/stapi/OneDrive/Desktop/GD32VW553/V1_MQTT_OK/GD32VW55X_Wifi_BLE_SDK/GD32VW55x_RELEASE_V1.0.2/MSDK/wpa_supplicant/src/rsn_supp\pmksa_cache.c **** /*
   2:C:/Users/stapi/OneDrive/Desktop/GD32VW553/V1_MQTT_OK/GD32VW55X_Wifi_BLE_SDK/GD32VW55x_RELEASE_V1.0.2/MSDK/wpa_supplicant/src/rsn_supp\pmksa_cache.c ****  * WPA Supplicant - RSN PMKSA cache
   3:C:/Users/stapi/OneDrive/Desktop/GD32VW553/V1_MQTT_OK/GD32VW55X_Wifi_BLE_SDK/GD32VW55x_RELEASE_V1.0.2/MSDK/wpa_supplicant/src/rsn_supp\pmksa_cache.c ****  * Copyright (c) 2004-2009, 2011-2015, Jouni Malinen <j@w1.fi>
   4:C:/Users/stapi/OneDrive/Desktop/GD32VW553/V1_MQTT_OK/GD32VW55X_Wifi_BLE_SDK/GD32VW55x_RELEASE_V1.0.2/MSDK/wpa_supplicant/src/rsn_supp\pmksa_cache.c ****  *
   5:C:/Users/stapi/OneDrive/Desktop/GD32VW553/V1_MQTT_OK/GD32VW55X_Wifi_BLE_SDK/GD32VW55x_RELEASE_V1.0.2/MSDK/wpa_supplicant/src/rsn_supp\pmksa_cache.c ****  * This software may be distributed under the terms of the BSD license.
   6:C:/Users/stapi/OneDrive/Desktop/GD32VW553/V1_MQTT_OK/GD32VW55X_Wifi_BLE_SDK/GD32VW55x_RELEASE_V1.0.2/MSDK/wpa_supplicant/src/rsn_supp\pmksa_cache.c ****  * See README for more details.
   7:C:/Users/stapi/OneDrive/Desktop/GD32VW553/V1_MQTT_OK/GD32VW55X_Wifi_BLE_SDK/GD32VW55x_RELEASE_V1.0.2/MSDK/wpa_supplicant/src/rsn_supp\pmksa_cache.c ****  */
   8:C:/Users/stapi/OneDrive/Desktop/GD32VW553/V1_MQTT_OK/GD32VW55X_Wifi_BLE_SDK/GD32VW55x_RELEASE_V1.0.2/MSDK/wpa_supplicant/src/rsn_supp\pmksa_cache.c **** 
   9:C:/Users/stapi/OneDrive/Desktop/GD32VW553/V1_MQTT_OK/GD32VW55X_Wifi_BLE_SDK/GD32VW55x_RELEASE_V1.0.2/MSDK/wpa_supplicant/src/rsn_supp\pmksa_cache.c **** #include "includes.h"
  10:C:/Users/stapi/OneDrive/Desktop/GD32VW553/V1_MQTT_OK/GD32VW55X_Wifi_BLE_SDK/GD32VW55x_RELEASE_V1.0.2/MSDK/wpa_supplicant/src/rsn_supp\pmksa_cache.c **** 
  11:C:/Users/stapi/OneDrive/Desktop/GD32VW553/V1_MQTT_OK/GD32VW55X_Wifi_BLE_SDK/GD32VW55x_RELEASE_V1.0.2/MSDK/wpa_supplicant/src/rsn_supp\pmksa_cache.c **** #include "common.h"
  12:C:/Users/stapi/OneDrive/Desktop/GD32VW553/V1_MQTT_OK/GD32VW55X_Wifi_BLE_SDK/GD32VW55x_RELEASE_V1.0.2/MSDK/wpa_supplicant/src/rsn_supp\pmksa_cache.c **** #include "eloop.h"
  13:C:/Users/stapi/OneDrive/Desktop/GD32VW553/V1_MQTT_OK/GD32VW55X_Wifi_BLE_SDK/GD32VW55x_RELEASE_V1.0.2/MSDK/wpa_supplicant/src/rsn_supp\pmksa_cache.c **** #include "eapol_supp/eapol_supp_sm.h"
  14:C:/Users/stapi/OneDrive/Desktop/GD32VW553/V1_MQTT_OK/GD32VW55X_Wifi_BLE_SDK/GD32VW55x_RELEASE_V1.0.2/MSDK/wpa_supplicant/src/rsn_supp\pmksa_cache.c **** #include "wpa.h"
  15:C:/Users/stapi/OneDrive/Desktop/GD32VW553/V1_MQTT_OK/GD32VW55X_Wifi_BLE_SDK/GD32VW55x_RELEASE_V1.0.2/MSDK/wpa_supplicant/src/rsn_supp\pmksa_cache.c **** #include "wpa_i.h"
  16:C:/Users/stapi/OneDrive/Desktop/GD32VW553/V1_MQTT_OK/GD32VW55X_Wifi_BLE_SDK/GD32VW55x_RELEASE_V1.0.2/MSDK/wpa_supplicant/src/rsn_supp\pmksa_cache.c **** #include "pmksa_cache.h"
  17:C:/Users/stapi/OneDrive/Desktop/GD32VW553/V1_MQTT_OK/GD32VW55X_Wifi_BLE_SDK/GD32VW55x_RELEASE_V1.0.2/MSDK/wpa_supplicant/src/rsn_supp\pmksa_cache.c **** 
  18:C:/Users/stapi/OneDrive/Desktop/GD32VW553/V1_MQTT_OK/GD32VW55X_Wifi_BLE_SDK/GD32VW55x_RELEASE_V1.0.2/MSDK/wpa_supplicant/src/rsn_supp\pmksa_cache.c **** #if defined(IEEE8021X_EAPOL) && !defined(CONFIG_NO_WPA) || defined(CONFIG_WPA3_PMK_CACHE_ENABLE)
  19:C:/Users/stapi/OneDrive/Desktop/GD32VW553/V1_MQTT_OK/GD32VW55X_Wifi_BLE_SDK/GD32VW55x_RELEASE_V1.0.2/MSDK/wpa_supplicant/src/rsn_supp\pmksa_cache.c **** 
  20:C:/Users/stapi/OneDrive/Desktop/GD32VW553/V1_MQTT_OK/GD32VW55X_Wifi_BLE_SDK/GD32VW55x_RELEASE_V1.0.2/MSDK/wpa_supplicant/src/rsn_supp\pmksa_cache.c **** static const int pmksa_cache_max_entries = 32;
  21:C:/Users/stapi/OneDrive/Desktop/GD32VW553/V1_MQTT_OK/GD32VW55X_Wifi_BLE_SDK/GD32VW55x_RELEASE_V1.0.2/MSDK/wpa_supplicant/src/rsn_supp\pmksa_cache.c **** 
  22:C:/Users/stapi/OneDrive/Desktop/GD32VW553/V1_MQTT_OK/GD32VW55X_Wifi_BLE_SDK/GD32VW55x_RELEASE_V1.0.2/MSDK/wpa_supplicant/src/rsn_supp\pmksa_cache.c **** struct rsn_pmksa_cache {
  23:C:/Users/stapi/OneDrive/Desktop/GD32VW553/V1_MQTT_OK/GD32VW55X_Wifi_BLE_SDK/GD32VW55x_RELEASE_V1.0.2/MSDK/wpa_supplicant/src/rsn_supp\pmksa_cache.c **** 	struct rsn_pmksa_cache_entry *pmksa; /* PMKSA cache */
  24:C:/Users/stapi/OneDrive/Desktop/GD32VW553/V1_MQTT_OK/GD32VW55X_Wifi_BLE_SDK/GD32VW55x_RELEASE_V1.0.2/MSDK/wpa_supplicant/src/rsn_supp\pmksa_cache.c **** 	int pmksa_count; /* number of entries in PMKSA cache */
  25:C:/Users/stapi/OneDrive/Desktop/GD32VW553/V1_MQTT_OK/GD32VW55X_Wifi_BLE_SDK/GD32VW55x_RELEASE_V1.0.2/MSDK/wpa_supplicant/src/rsn_supp\pmksa_cache.c **** 	struct wpa_sm *sm; /* TODO: get rid of this reference(?) */
  26:C:/Users/stapi/OneDrive/Desktop/GD32VW553/V1_MQTT_OK/GD32VW55X_Wifi_BLE_SDK/GD32VW55x_RELEASE_V1.0.2/MSDK/wpa_supplicant/src/rsn_supp\pmksa_cache.c **** 
  27:C:/Users/stapi/OneDrive/Desktop/GD32VW553/V1_MQTT_OK/GD32VW55X_Wifi_BLE_SDK/GD32VW55x_RELEASE_V1.0.2/MSDK/wpa_supplicant/src/rsn_supp\pmksa_cache.c **** 	void (*free_cb)(struct rsn_pmksa_cache_entry *entry, void *ctx,
  28:C:/Users/stapi/OneDrive/Desktop/GD32VW553/V1_MQTT_OK/GD32VW55X_Wifi_BLE_SDK/GD32VW55x_RELEASE_V1.0.2/MSDK/wpa_supplicant/src/rsn_supp\pmksa_cache.c **** 			enum pmksa_free_reason reason);
  29:C:/Users/stapi/OneDrive/Desktop/GD32VW553/V1_MQTT_OK/GD32VW55X_Wifi_BLE_SDK/GD32VW55x_RELEASE_V1.0.2/MSDK/wpa_supplicant/src/rsn_supp\pmksa_cache.c **** 	bool (*is_current_cb)(struct rsn_pmksa_cache_entry *entry,
  30:C:/Users/stapi/OneDrive/Desktop/GD32VW553/V1_MQTT_OK/GD32VW55X_Wifi_BLE_SDK/GD32VW55x_RELEASE_V1.0.2/MSDK/wpa_supplicant/src/rsn_supp\pmksa_cache.c **** 			      void *ctx);
  31:C:/Users/stapi/OneDrive/Desktop/GD32VW553/V1_MQTT_OK/GD32VW55X_Wifi_BLE_SDK/GD32VW55x_RELEASE_V1.0.2/MSDK/wpa_supplicant/src/rsn_supp\pmksa_cache.c **** 	void *ctx;
  32:C:/Users/stapi/OneDrive/Desktop/GD32VW553/V1_MQTT_OK/GD32VW55X_Wifi_BLE_SDK/GD32VW55x_RELEASE_V1.0.2/MSDK/wpa_supplicant/src/rsn_supp\pmksa_cache.c **** };
  33:C:/Users/stapi/OneDrive/Desktop/GD32VW553/V1_MQTT_OK/GD32VW55X_Wifi_BLE_SDK/GD32VW55x_RELEASE_V1.0.2/MSDK/wpa_supplicant/src/rsn_supp\pmksa_cache.c **** 
  34:C:/Users/stapi/OneDrive/Desktop/GD32VW553/V1_MQTT_OK/GD32VW55X_Wifi_BLE_SDK/GD32VW55x_RELEASE_V1.0.2/MSDK/wpa_supplicant/src/rsn_supp\pmksa_cache.c **** 
  35:C:/Users/stapi/OneDrive/Desktop/GD32VW553/V1_MQTT_OK/GD32VW55X_Wifi_BLE_SDK/GD32VW55x_RELEASE_V1.0.2/MSDK/wpa_supplicant/src/rsn_supp\pmksa_cache.c **** static void pmksa_cache_set_expiration(struct rsn_pmksa_cache *pmksa);
  36:C:/Users/stapi/OneDrive/Desktop/GD32VW553/V1_MQTT_OK/GD32VW55X_Wifi_BLE_SDK/GD32VW55x_RELEASE_V1.0.2/MSDK/wpa_supplicant/src/rsn_supp\pmksa_cache.c **** 
  37:C:/Users/stapi/OneDrive/Desktop/GD32VW553/V1_MQTT_OK/GD32VW55X_Wifi_BLE_SDK/GD32VW55x_RELEASE_V1.0.2/MSDK/wpa_supplicant/src/rsn_supp\pmksa_cache.c **** 
  38:C:/Users/stapi/OneDrive/Desktop/GD32VW553/V1_MQTT_OK/GD32VW55X_Wifi_BLE_SDK/GD32VW55x_RELEASE_V1.0.2/MSDK/wpa_supplicant/src/rsn_supp\pmksa_cache.c **** static void _pmksa_cache_free_entry(struct rsn_pmksa_cache_entry *entry)
  39:C:/Users/stapi/OneDrive/Desktop/GD32VW553/V1_MQTT_OK/GD32VW55X_Wifi_BLE_SDK/GD32VW55x_RELEASE_V1.0.2/MSDK/wpa_supplicant/src/rsn_supp\pmksa_cache.c **** {
  40:C:/Users/stapi/OneDrive/Desktop/GD32VW553/V1_MQTT_OK/GD32VW55X_Wifi_BLE_SDK/GD32VW55x_RELEASE_V1.0.2/MSDK/wpa_supplicant/src/rsn_supp\pmksa_cache.c **** 	bin_clear_free(entry, sizeof(*entry));
  41:C:/Users/stapi/OneDrive/Desktop/GD32VW553/V1_MQTT_OK/GD32VW55X_Wifi_BLE_SDK/GD32VW55x_RELEASE_V1.0.2/MSDK/wpa_supplicant/src/rsn_supp\pmksa_cache.c **** }
  42:C:/Users/stapi/OneDrive/Desktop/GD32VW553/V1_MQTT_OK/GD32VW55X_Wifi_BLE_SDK/GD32VW55x_RELEASE_V1.0.2/MSDK/wpa_supplicant/src/rsn_supp\pmksa_cache.c **** 
  43:C:/Users/stapi/OneDrive/Desktop/GD32VW553/V1_MQTT_OK/GD32VW55X_Wifi_BLE_SDK/GD32VW55x_RELEASE_V1.0.2/MSDK/wpa_supplicant/src/rsn_supp\pmksa_cache.c **** 
  44:C:/Users/stapi/OneDrive/Desktop/GD32VW553/V1_MQTT_OK/GD32VW55X_Wifi_BLE_SDK/GD32VW55x_RELEASE_V1.0.2/MSDK/wpa_supplicant/src/rsn_supp\pmksa_cache.c **** static void pmksa_cache_free_entry(struct rsn_pmksa_cache *pmksa,
  45:C:/Users/stapi/OneDrive/Desktop/GD32VW553/V1_MQTT_OK/GD32VW55X_Wifi_BLE_SDK/GD32VW55x_RELEASE_V1.0.2/MSDK/wpa_supplicant/src/rsn_supp\pmksa_cache.c **** 				   struct rsn_pmksa_cache_entry *entry,
  46:C:/Users/stapi/OneDrive/Desktop/GD32VW553/V1_MQTT_OK/GD32VW55X_Wifi_BLE_SDK/GD32VW55x_RELEASE_V1.0.2/MSDK/wpa_supplicant/src/rsn_supp\pmksa_cache.c **** 				   enum pmksa_free_reason reason)
  47:C:/Users/stapi/OneDrive/Desktop/GD32VW553/V1_MQTT_OK/GD32VW55X_Wifi_BLE_SDK/GD32VW55x_RELEASE_V1.0.2/MSDK/wpa_supplicant/src/rsn_supp\pmksa_cache.c **** {
  48:C:/Users/stapi/OneDrive/Desktop/GD32VW553/V1_MQTT_OK/GD32VW55X_Wifi_BLE_SDK/GD32VW55x_RELEASE_V1.0.2/MSDK/wpa_supplicant/src/rsn_supp\pmksa_cache.c **** 	wpa_sm_remove_pmkid(pmksa->sm, entry->network_ctx, entry->aa,
  49:C:/Users/stapi/OneDrive/Desktop/GD32VW553/V1_MQTT_OK/GD32VW55X_Wifi_BLE_SDK/GD32VW55x_RELEASE_V1.0.2/MSDK/wpa_supplicant/src/rsn_supp\pmksa_cache.c **** 			    entry->pmkid,
  50:C:/Users/stapi/OneDrive/Desktop/GD32VW553/V1_MQTT_OK/GD32VW55X_Wifi_BLE_SDK/GD32VW55x_RELEASE_V1.0.2/MSDK/wpa_supplicant/src/rsn_supp\pmksa_cache.c **** 			    entry->fils_cache_id_set ? entry->fils_cache_id :
  51:C:/Users/stapi/OneDrive/Desktop/GD32VW553/V1_MQTT_OK/GD32VW55X_Wifi_BLE_SDK/GD32VW55x_RELEASE_V1.0.2/MSDK/wpa_supplicant/src/rsn_supp\pmksa_cache.c **** 			    NULL);
  52:C:/Users/stapi/OneDrive/Desktop/GD32VW553/V1_MQTT_OK/GD32VW55X_Wifi_BLE_SDK/GD32VW55x_RELEASE_V1.0.2/MSDK/wpa_supplicant/src/rsn_supp\pmksa_cache.c **** 	pmksa->pmksa_count--;
  53:C:/Users/stapi/OneDrive/Desktop/GD32VW553/V1_MQTT_OK/GD32VW55X_Wifi_BLE_SDK/GD32VW55x_RELEASE_V1.0.2/MSDK/wpa_supplicant/src/rsn_supp\pmksa_cache.c **** 	pmksa->free_cb(entry, pmksa->ctx, reason);
  54:C:/Users/stapi/OneDrive/Desktop/GD32VW553/V1_MQTT_OK/GD32VW55X_Wifi_BLE_SDK/GD32VW55x_RELEASE_V1.0.2/MSDK/wpa_supplicant/src/rsn_supp\pmksa_cache.c **** 	_pmksa_cache_free_entry(entry);
  55:C:/Users/stapi/OneDrive/Desktop/GD32VW553/V1_MQTT_OK/GD32VW55X_Wifi_BLE_SDK/GD32VW55x_RELEASE_V1.0.2/MSDK/wpa_supplicant/src/rsn_supp\pmksa_cache.c **** }
  56:C:/Users/stapi/OneDrive/Desktop/GD32VW553/V1_MQTT_OK/GD32VW55X_Wifi_BLE_SDK/GD32VW55x_RELEASE_V1.0.2/MSDK/wpa_supplicant/src/rsn_supp\pmksa_cache.c **** 
  57:C:/Users/stapi/OneDrive/Desktop/GD32VW553/V1_MQTT_OK/GD32VW55X_Wifi_BLE_SDK/GD32VW55x_RELEASE_V1.0.2/MSDK/wpa_supplicant/src/rsn_supp\pmksa_cache.c **** 
  58:C:/Users/stapi/OneDrive/Desktop/GD32VW553/V1_MQTT_OK/GD32VW55X_Wifi_BLE_SDK/GD32VW55x_RELEASE_V1.0.2/MSDK/wpa_supplicant/src/rsn_supp\pmksa_cache.c **** static void pmksa_cache_expire(void *eloop_ctx, void *timeout_ctx)
  59:C:/Users/stapi/OneDrive/Desktop/GD32VW553/V1_MQTT_OK/GD32VW55X_Wifi_BLE_SDK/GD32VW55x_RELEASE_V1.0.2/MSDK/wpa_supplicant/src/rsn_supp\pmksa_cache.c **** {
  60:C:/Users/stapi/OneDrive/Desktop/GD32VW553/V1_MQTT_OK/GD32VW55X_Wifi_BLE_SDK/GD32VW55x_RELEASE_V1.0.2/MSDK/wpa_supplicant/src/rsn_supp\pmksa_cache.c **** 	struct rsn_pmksa_cache *pmksa = eloop_ctx;
  61:C:/Users/stapi/OneDrive/Desktop/GD32VW553/V1_MQTT_OK/GD32VW55X_Wifi_BLE_SDK/GD32VW55x_RELEASE_V1.0.2/MSDK/wpa_supplicant/src/rsn_supp\pmksa_cache.c **** 	struct os_reltime now;
  62:C:/Users/stapi/OneDrive/Desktop/GD32VW553/V1_MQTT_OK/GD32VW55X_Wifi_BLE_SDK/GD32VW55x_RELEASE_V1.0.2/MSDK/wpa_supplicant/src/rsn_supp\pmksa_cache.c **** 	struct rsn_pmksa_cache_entry *prev = NULL, *tmp;
  63:C:/Users/stapi/OneDrive/Desktop/GD32VW553/V1_MQTT_OK/GD32VW55X_Wifi_BLE_SDK/GD32VW55x_RELEASE_V1.0.2/MSDK/wpa_supplicant/src/rsn_supp\pmksa_cache.c **** 	struct rsn_pmksa_cache_entry *entry = pmksa->pmksa;
  64:C:/Users/stapi/OneDrive/Desktop/GD32VW553/V1_MQTT_OK/GD32VW55X_Wifi_BLE_SDK/GD32VW55x_RELEASE_V1.0.2/MSDK/wpa_supplicant/src/rsn_supp\pmksa_cache.c **** 
  65:C:/Users/stapi/OneDrive/Desktop/GD32VW553/V1_MQTT_OK/GD32VW55X_Wifi_BLE_SDK/GD32VW55x_RELEASE_V1.0.2/MSDK/wpa_supplicant/src/rsn_supp\pmksa_cache.c **** 	os_get_reltime(&now);
  66:C:/Users/stapi/OneDrive/Desktop/GD32VW553/V1_MQTT_OK/GD32VW55X_Wifi_BLE_SDK/GD32VW55x_RELEASE_V1.0.2/MSDK/wpa_supplicant/src/rsn_supp\pmksa_cache.c **** 	while (entry && entry->expiration <= now.sec) {
  67:C:/Users/stapi/OneDrive/Desktop/GD32VW553/V1_MQTT_OK/GD32VW55X_Wifi_BLE_SDK/GD32VW55x_RELEASE_V1.0.2/MSDK/wpa_supplicant/src/rsn_supp\pmksa_cache.c **** 		if (wpa_key_mgmt_sae(entry->akmp) &&
  68:C:/Users/stapi/OneDrive/Desktop/GD32VW553/V1_MQTT_OK/GD32VW55X_Wifi_BLE_SDK/GD32VW55x_RELEASE_V1.0.2/MSDK/wpa_supplicant/src/rsn_supp\pmksa_cache.c **** 		    pmksa->is_current_cb(entry, pmksa->ctx)) {
  69:C:/Users/stapi/OneDrive/Desktop/GD32VW553/V1_MQTT_OK/GD32VW55X_Wifi_BLE_SDK/GD32VW55x_RELEASE_V1.0.2/MSDK/wpa_supplicant/src/rsn_supp\pmksa_cache.c **** 			/* Do not expire the currently used PMKSA entry for SAE
  70:C:/Users/stapi/OneDrive/Desktop/GD32VW553/V1_MQTT_OK/GD32VW55X_Wifi_BLE_SDK/GD32VW55x_RELEASE_V1.0.2/MSDK/wpa_supplicant/src/rsn_supp\pmksa_cache.c **** 			 * since there is no convenient mechanism for
  71:C:/Users/stapi/OneDrive/Desktop/GD32VW553/V1_MQTT_OK/GD32VW55X_Wifi_BLE_SDK/GD32VW55x_RELEASE_V1.0.2/MSDK/wpa_supplicant/src/rsn_supp\pmksa_cache.c **** 			 * reauthenticating during an association with SAE. The
  72:C:/Users/stapi/OneDrive/Desktop/GD32VW553/V1_MQTT_OK/GD32VW55X_Wifi_BLE_SDK/GD32VW55x_RELEASE_V1.0.2/MSDK/wpa_supplicant/src/rsn_supp\pmksa_cache.c **** 			 * expired entry will be removed after this association
  73:C:/Users/stapi/OneDrive/Desktop/GD32VW553/V1_MQTT_OK/GD32VW55X_Wifi_BLE_SDK/GD32VW55x_RELEASE_V1.0.2/MSDK/wpa_supplicant/src/rsn_supp\pmksa_cache.c **** 			 * has been lost. */
  74:C:/Users/stapi/OneDrive/Desktop/GD32VW553/V1_MQTT_OK/GD32VW55X_Wifi_BLE_SDK/GD32VW55x_RELEASE_V1.0.2/MSDK/wpa_supplicant/src/rsn_supp\pmksa_cache.c **** 			wpa_printf(MSG_DEBUG,
  75:C:/Users/stapi/OneDrive/Desktop/GD32VW553/V1_MQTT_OK/GD32VW55X_Wifi_BLE_SDK/GD32VW55x_RELEASE_V1.0.2/MSDK/wpa_supplicant/src/rsn_supp\pmksa_cache.c **** 				   "RSN: postpone PMKSA cache entry expiration for SAE with "
  76:C:/Users/stapi/OneDrive/Desktop/GD32VW553/V1_MQTT_OK/GD32VW55X_Wifi_BLE_SDK/GD32VW55x_RELEASE_V1.0.2/MSDK/wpa_supplicant/src/rsn_supp\pmksa_cache.c **** 				   MACSTR, MAC2STR(entry->aa));
  77:C:/Users/stapi/OneDrive/Desktop/GD32VW553/V1_MQTT_OK/GD32VW55X_Wifi_BLE_SDK/GD32VW55x_RELEASE_V1.0.2/MSDK/wpa_supplicant/src/rsn_supp\pmksa_cache.c **** 			prev = entry;
  78:C:/Users/stapi/OneDrive/Desktop/GD32VW553/V1_MQTT_OK/GD32VW55X_Wifi_BLE_SDK/GD32VW55x_RELEASE_V1.0.2/MSDK/wpa_supplicant/src/rsn_supp\pmksa_cache.c **** 			entry = entry->next;
  79:C:/Users/stapi/OneDrive/Desktop/GD32VW553/V1_MQTT_OK/GD32VW55X_Wifi_BLE_SDK/GD32VW55x_RELEASE_V1.0.2/MSDK/wpa_supplicant/src/rsn_supp\pmksa_cache.c **** 			continue;
  80:C:/Users/stapi/OneDrive/Desktop/GD32VW553/V1_MQTT_OK/GD32VW55X_Wifi_BLE_SDK/GD32VW55x_RELEASE_V1.0.2/MSDK/wpa_supplicant/src/rsn_supp\pmksa_cache.c **** 		}
  81:C:/Users/stapi/OneDrive/Desktop/GD32VW553/V1_MQTT_OK/GD32VW55X_Wifi_BLE_SDK/GD32VW55x_RELEASE_V1.0.2/MSDK/wpa_supplicant/src/rsn_supp\pmksa_cache.c **** 
  82:C:/Users/stapi/OneDrive/Desktop/GD32VW553/V1_MQTT_OK/GD32VW55X_Wifi_BLE_SDK/GD32VW55x_RELEASE_V1.0.2/MSDK/wpa_supplicant/src/rsn_supp\pmksa_cache.c **** 		wpa_printf(MSG_DEBUG, "RSN: expired PMKSA cache entry for "
  83:C:/Users/stapi/OneDrive/Desktop/GD32VW553/V1_MQTT_OK/GD32VW55X_Wifi_BLE_SDK/GD32VW55x_RELEASE_V1.0.2/MSDK/wpa_supplicant/src/rsn_supp\pmksa_cache.c **** 			   MACSTR, MAC2STR(entry->aa));
  84:C:/Users/stapi/OneDrive/Desktop/GD32VW553/V1_MQTT_OK/GD32VW55X_Wifi_BLE_SDK/GD32VW55x_RELEASE_V1.0.2/MSDK/wpa_supplicant/src/rsn_supp\pmksa_cache.c **** 		if (prev)
  85:C:/Users/stapi/OneDrive/Desktop/GD32VW553/V1_MQTT_OK/GD32VW55X_Wifi_BLE_SDK/GD32VW55x_RELEASE_V1.0.2/MSDK/wpa_supplicant/src/rsn_supp\pmksa_cache.c **** 			prev->next = entry->next;
  86:C:/Users/stapi/OneDrive/Desktop/GD32VW553/V1_MQTT_OK/GD32VW55X_Wifi_BLE_SDK/GD32VW55x_RELEASE_V1.0.2/MSDK/wpa_supplicant/src/rsn_supp\pmksa_cache.c **** 		else
  87:C:/Users/stapi/OneDrive/Desktop/GD32VW553/V1_MQTT_OK/GD32VW55X_Wifi_BLE_SDK/GD32VW55x_RELEASE_V1.0.2/MSDK/wpa_supplicant/src/rsn_supp\pmksa_cache.c **** 			pmksa->pmksa = entry->next;
  88:C:/Users/stapi/OneDrive/Desktop/GD32VW553/V1_MQTT_OK/GD32VW55X_Wifi_BLE_SDK/GD32VW55x_RELEASE_V1.0.2/MSDK/wpa_supplicant/src/rsn_supp\pmksa_cache.c **** 		tmp = entry;
  89:C:/Users/stapi/OneDrive/Desktop/GD32VW553/V1_MQTT_OK/GD32VW55X_Wifi_BLE_SDK/GD32VW55x_RELEASE_V1.0.2/MSDK/wpa_supplicant/src/rsn_supp\pmksa_cache.c **** 		entry = entry->next;
  90:C:/Users/stapi/OneDrive/Desktop/GD32VW553/V1_MQTT_OK/GD32VW55X_Wifi_BLE_SDK/GD32VW55x_RELEASE_V1.0.2/MSDK/wpa_supplicant/src/rsn_supp\pmksa_cache.c **** 		pmksa_cache_free_entry(pmksa, tmp, PMKSA_EXPIRE);
  91:C:/Users/stapi/OneDrive/Desktop/GD32VW553/V1_MQTT_OK/GD32VW55X_Wifi_BLE_SDK/GD32VW55x_RELEASE_V1.0.2/MSDK/wpa_supplicant/src/rsn_supp\pmksa_cache.c **** 	}
  92:C:/Users/stapi/OneDrive/Desktop/GD32VW553/V1_MQTT_OK/GD32VW55X_Wifi_BLE_SDK/GD32VW55x_RELEASE_V1.0.2/MSDK/wpa_supplicant/src/rsn_supp\pmksa_cache.c **** 
  93:C:/Users/stapi/OneDrive/Desktop/GD32VW553/V1_MQTT_OK/GD32VW55X_Wifi_BLE_SDK/GD32VW55x_RELEASE_V1.0.2/MSDK/wpa_supplicant/src/rsn_supp\pmksa_cache.c **** 	pmksa_cache_set_expiration(pmksa);
  94:C:/Users/stapi/OneDrive/Desktop/GD32VW553/V1_MQTT_OK/GD32VW55X_Wifi_BLE_SDK/GD32VW55x_RELEASE_V1.0.2/MSDK/wpa_supplicant/src/rsn_supp\pmksa_cache.c **** }
  95:C:/Users/stapi/OneDrive/Desktop/GD32VW553/V1_MQTT_OK/GD32VW55X_Wifi_BLE_SDK/GD32VW55x_RELEASE_V1.0.2/MSDK/wpa_supplicant/src/rsn_supp\pmksa_cache.c **** 
  96:C:/Users/stapi/OneDrive/Desktop/GD32VW553/V1_MQTT_OK/GD32VW55X_Wifi_BLE_SDK/GD32VW55x_RELEASE_V1.0.2/MSDK/wpa_supplicant/src/rsn_supp\pmksa_cache.c **** 
  97:C:/Users/stapi/OneDrive/Desktop/GD32VW553/V1_MQTT_OK/GD32VW55X_Wifi_BLE_SDK/GD32VW55x_RELEASE_V1.0.2/MSDK/wpa_supplicant/src/rsn_supp\pmksa_cache.c **** static void pmksa_cache_reauth(void *eloop_ctx, void *timeout_ctx)
  98:C:/Users/stapi/OneDrive/Desktop/GD32VW553/V1_MQTT_OK/GD32VW55X_Wifi_BLE_SDK/GD32VW55x_RELEASE_V1.0.2/MSDK/wpa_supplicant/src/rsn_supp\pmksa_cache.c **** {
  15              		.loc 1 98 1
  16              		.cfi_startproc
  17              	.LVL0:
  99:C:/Users/stapi/OneDrive/Desktop/GD32VW553/V1_MQTT_OK/GD32VW55X_Wifi_BLE_SDK/GD32VW55x_RELEASE_V1.0.2/MSDK/wpa_supplicant/src/rsn_supp\pmksa_cache.c **** 	struct rsn_pmksa_cache *pmksa = eloop_ctx;
  18              		.loc 1 99 2
 100:C:/Users/stapi/OneDrive/Desktop/GD32VW553/V1_MQTT_OK/GD32VW55X_Wifi_BLE_SDK/GD32VW55x_RELEASE_V1.0.2/MSDK/wpa_supplicant/src/rsn_supp\pmksa_cache.c **** 	pmksa->sm->cur_pmksa = NULL;
  19              		.loc 1 100 2
  20              		.loc 1 100 23 is_stmt 0
  21 0000 1C45     		lw	a5,8(a0)
  22 0002 23A0073C 		sw	zero,960(a5)
 101:C:/Users/stapi/OneDrive/Desktop/GD32VW553/V1_MQTT_OK/GD32VW55X_Wifi_BLE_SDK/GD32VW55x_RELEASE_V1.0.2/MSDK/wpa_supplicant/src/rsn_supp\pmksa_cache.c **** 	eapol_sm_request_reauth(pmksa->sm->eapol);
  23              		.loc 1 101 2 is_stmt 1
  24              	.LVL1:
  25              		.file 2 "..\\..\\..\\..\\wpa_supplicant\\src/eapol_supp/eapol_supp_sm.h"
   1:..\..\..\..\wpa_supplicant\src/eapol_supp/eapol_supp_sm.h **** /*
   2:..\..\..\..\wpa_supplicant\src/eapol_supp/eapol_supp_sm.h ****  * EAPOL supplicant state machines
   3:..\..\..\..\wpa_supplicant\src/eapol_supp/eapol_supp_sm.h ****  * Copyright (c) 2004-2012, Jouni Malinen <j@w1.fi>
   4:..\..\..\..\wpa_supplicant\src/eapol_supp/eapol_supp_sm.h ****  *
   5:..\..\..\..\wpa_supplicant\src/eapol_supp/eapol_supp_sm.h ****  * This software may be distributed under the terms of the BSD license.
   6:..\..\..\..\wpa_supplicant\src/eapol_supp/eapol_supp_sm.h ****  * See README for more details.
   7:..\..\..\..\wpa_supplicant\src/eapol_supp/eapol_supp_sm.h ****  */
   8:..\..\..\..\wpa_supplicant\src/eapol_supp/eapol_supp_sm.h **** 
   9:..\..\..\..\wpa_supplicant\src/eapol_supp/eapol_supp_sm.h **** #ifndef EAPOL_SUPP_SM_H
  10:..\..\..\..\wpa_supplicant\src/eapol_supp/eapol_supp_sm.h **** #define EAPOL_SUPP_SM_H
  11:..\..\..\..\wpa_supplicant\src/eapol_supp/eapol_supp_sm.h **** 
  12:..\..\..\..\wpa_supplicant\src/eapol_supp/eapol_supp_sm.h **** #include "common/defs.h"
  13:..\..\..\..\wpa_supplicant\src/eapol_supp/eapol_supp_sm.h **** 
  14:..\..\..\..\wpa_supplicant\src/eapol_supp/eapol_supp_sm.h **** struct tls_cert_data;
  15:..\..\..\..\wpa_supplicant\src/eapol_supp/eapol_supp_sm.h **** 
  16:..\..\..\..\wpa_supplicant\src/eapol_supp/eapol_supp_sm.h **** typedef enum { Unauthorized, Authorized } PortStatus;
  17:..\..\..\..\wpa_supplicant\src/eapol_supp/eapol_supp_sm.h **** typedef enum { Auto, ForceUnauthorized, ForceAuthorized } PortControl;
  18:..\..\..\..\wpa_supplicant\src/eapol_supp/eapol_supp_sm.h **** 
  19:..\..\..\..\wpa_supplicant\src/eapol_supp/eapol_supp_sm.h **** /**
  20:..\..\..\..\wpa_supplicant\src/eapol_supp/eapol_supp_sm.h ****  * struct eapol_config - Per network configuration for EAPOL state machines
  21:..\..\..\..\wpa_supplicant\src/eapol_supp/eapol_supp_sm.h ****  */
  22:..\..\..\..\wpa_supplicant\src/eapol_supp/eapol_supp_sm.h **** struct eapol_config {
  23:..\..\..\..\wpa_supplicant\src/eapol_supp/eapol_supp_sm.h **** 	/**
  24:..\..\..\..\wpa_supplicant\src/eapol_supp/eapol_supp_sm.h **** 	 * accept_802_1x_keys - Accept IEEE 802.1X (non-WPA) EAPOL-Key frames
  25:..\..\..\..\wpa_supplicant\src/eapol_supp/eapol_supp_sm.h **** 	 *
  26:..\..\..\..\wpa_supplicant\src/eapol_supp/eapol_supp_sm.h **** 	 * This variable should be set to 1 when using EAPOL state machines
  27:..\..\..\..\wpa_supplicant\src/eapol_supp/eapol_supp_sm.h **** 	 * with non-WPA security policy to generate dynamic WEP keys. When
  28:..\..\..\..\wpa_supplicant\src/eapol_supp/eapol_supp_sm.h **** 	 * using WPA, this should be set to 0 so that WPA state machine can
  29:..\..\..\..\wpa_supplicant\src/eapol_supp/eapol_supp_sm.h **** 	 * process the EAPOL-Key frames.
  30:..\..\..\..\wpa_supplicant\src/eapol_supp/eapol_supp_sm.h **** 	 */
  31:..\..\..\..\wpa_supplicant\src/eapol_supp/eapol_supp_sm.h **** 	int accept_802_1x_keys;
  32:..\..\..\..\wpa_supplicant\src/eapol_supp/eapol_supp_sm.h **** 
  33:..\..\..\..\wpa_supplicant\src/eapol_supp/eapol_supp_sm.h **** #define EAPOL_REQUIRE_KEY_UNICAST BIT(0)
  34:..\..\..\..\wpa_supplicant\src/eapol_supp/eapol_supp_sm.h **** #define EAPOL_REQUIRE_KEY_BROADCAST BIT(1)
  35:..\..\..\..\wpa_supplicant\src/eapol_supp/eapol_supp_sm.h **** 	/**
  36:..\..\..\..\wpa_supplicant\src/eapol_supp/eapol_supp_sm.h **** 	 * required_keys - Which EAPOL-Key packets are required
  37:..\..\..\..\wpa_supplicant\src/eapol_supp/eapol_supp_sm.h **** 	 *
  38:..\..\..\..\wpa_supplicant\src/eapol_supp/eapol_supp_sm.h **** 	 * This variable determines which EAPOL-Key packets are required before
  39:..\..\..\..\wpa_supplicant\src/eapol_supp/eapol_supp_sm.h **** 	 * marking connection authenticated. This is a bit field of
  40:..\..\..\..\wpa_supplicant\src/eapol_supp/eapol_supp_sm.h **** 	 * EAPOL_REQUIRE_KEY_UNICAST and EAPOL_REQUIRE_KEY_BROADCAST flags.
  41:..\..\..\..\wpa_supplicant\src/eapol_supp/eapol_supp_sm.h **** 	 */
  42:..\..\..\..\wpa_supplicant\src/eapol_supp/eapol_supp_sm.h **** 	int required_keys;
  43:..\..\..\..\wpa_supplicant\src/eapol_supp/eapol_supp_sm.h **** 
  44:..\..\..\..\wpa_supplicant\src/eapol_supp/eapol_supp_sm.h **** 	/**
  45:..\..\..\..\wpa_supplicant\src/eapol_supp/eapol_supp_sm.h **** 	 * fast_reauth - Whether fast EAP reauthentication is enabled
  46:..\..\..\..\wpa_supplicant\src/eapol_supp/eapol_supp_sm.h **** 	 */
  47:..\..\..\..\wpa_supplicant\src/eapol_supp/eapol_supp_sm.h **** 	int fast_reauth;
  48:..\..\..\..\wpa_supplicant\src/eapol_supp/eapol_supp_sm.h **** 
  49:..\..\..\..\wpa_supplicant\src/eapol_supp/eapol_supp_sm.h **** 	/**
  50:..\..\..\..\wpa_supplicant\src/eapol_supp/eapol_supp_sm.h **** 	 * workaround - Whether EAP workarounds are enabled
  51:..\..\..\..\wpa_supplicant\src/eapol_supp/eapol_supp_sm.h **** 	 */
  52:..\..\..\..\wpa_supplicant\src/eapol_supp/eapol_supp_sm.h **** 	unsigned int workaround;
  53:..\..\..\..\wpa_supplicant\src/eapol_supp/eapol_supp_sm.h **** 
  54:..\..\..\..\wpa_supplicant\src/eapol_supp/eapol_supp_sm.h **** 	/**
  55:..\..\..\..\wpa_supplicant\src/eapol_supp/eapol_supp_sm.h **** 	 * eap_disabled - Whether EAP is disabled
  56:..\..\..\..\wpa_supplicant\src/eapol_supp/eapol_supp_sm.h **** 	 */
  57:..\..\..\..\wpa_supplicant\src/eapol_supp/eapol_supp_sm.h **** 	int eap_disabled;
  58:..\..\..\..\wpa_supplicant\src/eapol_supp/eapol_supp_sm.h **** 
  59:..\..\..\..\wpa_supplicant\src/eapol_supp/eapol_supp_sm.h **** 	/**
  60:..\..\..\..\wpa_supplicant\src/eapol_supp/eapol_supp_sm.h **** 	 * external_sim - Use external processing for SIM/USIM operations
  61:..\..\..\..\wpa_supplicant\src/eapol_supp/eapol_supp_sm.h **** 	 */
  62:..\..\..\..\wpa_supplicant\src/eapol_supp/eapol_supp_sm.h **** 	int external_sim;
  63:..\..\..\..\wpa_supplicant\src/eapol_supp/eapol_supp_sm.h **** 
  64:..\..\..\..\wpa_supplicant\src/eapol_supp/eapol_supp_sm.h **** #define EAPOL_LOCAL_WPS_IN_USE BIT(0)
  65:..\..\..\..\wpa_supplicant\src/eapol_supp/eapol_supp_sm.h **** #define EAPOL_PEER_IS_WPS20_AP BIT(1)
  66:..\..\..\..\wpa_supplicant\src/eapol_supp/eapol_supp_sm.h **** 	/**
  67:..\..\..\..\wpa_supplicant\src/eapol_supp/eapol_supp_sm.h **** 	 * wps - Whether this connection is used for WPS
  68:..\..\..\..\wpa_supplicant\src/eapol_supp/eapol_supp_sm.h **** 	 */
  69:..\..\..\..\wpa_supplicant\src/eapol_supp/eapol_supp_sm.h **** 	int wps;
  70:..\..\..\..\wpa_supplicant\src/eapol_supp/eapol_supp_sm.h **** };
  71:..\..\..\..\wpa_supplicant\src/eapol_supp/eapol_supp_sm.h **** 
  72:..\..\..\..\wpa_supplicant\src/eapol_supp/eapol_supp_sm.h **** struct eapol_sm;
  73:..\..\..\..\wpa_supplicant\src/eapol_supp/eapol_supp_sm.h **** struct wpa_config_blob;
  74:..\..\..\..\wpa_supplicant\src/eapol_supp/eapol_supp_sm.h **** 
  75:..\..\..\..\wpa_supplicant\src/eapol_supp/eapol_supp_sm.h **** enum eapol_supp_result {
  76:..\..\..\..\wpa_supplicant\src/eapol_supp/eapol_supp_sm.h **** 	EAPOL_SUPP_RESULT_FAILURE,
  77:..\..\..\..\wpa_supplicant\src/eapol_supp/eapol_supp_sm.h **** 	EAPOL_SUPP_RESULT_SUCCESS,
  78:..\..\..\..\wpa_supplicant\src/eapol_supp/eapol_supp_sm.h **** 	EAPOL_SUPP_RESULT_EXPECTED_FAILURE
  79:..\..\..\..\wpa_supplicant\src/eapol_supp/eapol_supp_sm.h **** };
  80:..\..\..\..\wpa_supplicant\src/eapol_supp/eapol_supp_sm.h **** 
  81:..\..\..\..\wpa_supplicant\src/eapol_supp/eapol_supp_sm.h **** /**
  82:..\..\..\..\wpa_supplicant\src/eapol_supp/eapol_supp_sm.h ****  * struct eapol_ctx - Global (for all networks) EAPOL state machine context
  83:..\..\..\..\wpa_supplicant\src/eapol_supp/eapol_supp_sm.h ****  */
  84:..\..\..\..\wpa_supplicant\src/eapol_supp/eapol_supp_sm.h **** struct eapol_ctx {
  85:..\..\..\..\wpa_supplicant\src/eapol_supp/eapol_supp_sm.h **** 	/**
  86:..\..\..\..\wpa_supplicant\src/eapol_supp/eapol_supp_sm.h **** 	 * ctx - Pointer to arbitrary upper level context
  87:..\..\..\..\wpa_supplicant\src/eapol_supp/eapol_supp_sm.h **** 	 */
  88:..\..\..\..\wpa_supplicant\src/eapol_supp/eapol_supp_sm.h **** 	void *ctx;
  89:..\..\..\..\wpa_supplicant\src/eapol_supp/eapol_supp_sm.h **** 
  90:..\..\..\..\wpa_supplicant\src/eapol_supp/eapol_supp_sm.h **** 	/**
  91:..\..\..\..\wpa_supplicant\src/eapol_supp/eapol_supp_sm.h **** 	 * preauth - IEEE 802.11i/RSN pre-authentication
  92:..\..\..\..\wpa_supplicant\src/eapol_supp/eapol_supp_sm.h **** 	 *
  93:..\..\..\..\wpa_supplicant\src/eapol_supp/eapol_supp_sm.h **** 	 * This EAPOL state machine is used for IEEE 802.11i/RSN
  94:..\..\..\..\wpa_supplicant\src/eapol_supp/eapol_supp_sm.h **** 	 * pre-authentication
  95:..\..\..\..\wpa_supplicant\src/eapol_supp/eapol_supp_sm.h **** 	 */
  96:..\..\..\..\wpa_supplicant\src/eapol_supp/eapol_supp_sm.h **** 	int preauth;
  97:..\..\..\..\wpa_supplicant\src/eapol_supp/eapol_supp_sm.h **** 
  98:..\..\..\..\wpa_supplicant\src/eapol_supp/eapol_supp_sm.h **** 	/**
  99:..\..\..\..\wpa_supplicant\src/eapol_supp/eapol_supp_sm.h **** 	 * cb - Function to be called when EAPOL negotiation has been completed
 100:..\..\..\..\wpa_supplicant\src/eapol_supp/eapol_supp_sm.h **** 	 * @eapol: Pointer to EAPOL state machine data
 101:..\..\..\..\wpa_supplicant\src/eapol_supp/eapol_supp_sm.h **** 	 * @result: Whether the authentication was completed successfully
 102:..\..\..\..\wpa_supplicant\src/eapol_supp/eapol_supp_sm.h **** 	 * @ctx: Pointer to context data (cb_ctx)
 103:..\..\..\..\wpa_supplicant\src/eapol_supp/eapol_supp_sm.h **** 	 *
 104:..\..\..\..\wpa_supplicant\src/eapol_supp/eapol_supp_sm.h **** 	 * This optional callback function will be called when the EAPOL
 105:..\..\..\..\wpa_supplicant\src/eapol_supp/eapol_supp_sm.h **** 	 * authentication has been completed. This allows the owner of the
 106:..\..\..\..\wpa_supplicant\src/eapol_supp/eapol_supp_sm.h **** 	 * EAPOL state machine to process the key and terminate the EAPOL state
 107:..\..\..\..\wpa_supplicant\src/eapol_supp/eapol_supp_sm.h **** 	 * machine. Currently, this is used only in RSN pre-authentication.
 108:..\..\..\..\wpa_supplicant\src/eapol_supp/eapol_supp_sm.h **** 	 */
 109:..\..\..\..\wpa_supplicant\src/eapol_supp/eapol_supp_sm.h **** 	void (*cb)(struct eapol_sm *eapol, enum eapol_supp_result result,
 110:..\..\..\..\wpa_supplicant\src/eapol_supp/eapol_supp_sm.h **** 		   void *ctx);
 111:..\..\..\..\wpa_supplicant\src/eapol_supp/eapol_supp_sm.h **** 
 112:..\..\..\..\wpa_supplicant\src/eapol_supp/eapol_supp_sm.h **** 	/**
 113:..\..\..\..\wpa_supplicant\src/eapol_supp/eapol_supp_sm.h **** 	 * cb_ctx - Callback context for cb()
 114:..\..\..\..\wpa_supplicant\src/eapol_supp/eapol_supp_sm.h **** 	 */
 115:..\..\..\..\wpa_supplicant\src/eapol_supp/eapol_supp_sm.h **** 	void *cb_ctx;
 116:..\..\..\..\wpa_supplicant\src/eapol_supp/eapol_supp_sm.h **** 
 117:..\..\..\..\wpa_supplicant\src/eapol_supp/eapol_supp_sm.h **** 	/**
 118:..\..\..\..\wpa_supplicant\src/eapol_supp/eapol_supp_sm.h **** 	 * msg_ctx - Callback context for wpa_msg() calls
 119:..\..\..\..\wpa_supplicant\src/eapol_supp/eapol_supp_sm.h **** 	 */
 120:..\..\..\..\wpa_supplicant\src/eapol_supp/eapol_supp_sm.h **** 	void *msg_ctx;
 121:..\..\..\..\wpa_supplicant\src/eapol_supp/eapol_supp_sm.h **** 
 122:..\..\..\..\wpa_supplicant\src/eapol_supp/eapol_supp_sm.h **** 	/**
 123:..\..\..\..\wpa_supplicant\src/eapol_supp/eapol_supp_sm.h **** 	 * scard_ctx - Callback context for PC/SC scard_*() function calls
 124:..\..\..\..\wpa_supplicant\src/eapol_supp/eapol_supp_sm.h **** 	 *
 125:..\..\..\..\wpa_supplicant\src/eapol_supp/eapol_supp_sm.h **** 	 * This context can be updated with eapol_sm_register_scard_ctx().
 126:..\..\..\..\wpa_supplicant\src/eapol_supp/eapol_supp_sm.h **** 	 */
 127:..\..\..\..\wpa_supplicant\src/eapol_supp/eapol_supp_sm.h **** 	void *scard_ctx;
 128:..\..\..\..\wpa_supplicant\src/eapol_supp/eapol_supp_sm.h **** 
 129:..\..\..\..\wpa_supplicant\src/eapol_supp/eapol_supp_sm.h **** 	/**
 130:..\..\..\..\wpa_supplicant\src/eapol_supp/eapol_supp_sm.h **** 	 * eapol_send_ctx - Callback context for eapol_send() calls
 131:..\..\..\..\wpa_supplicant\src/eapol_supp/eapol_supp_sm.h **** 	 */
 132:..\..\..\..\wpa_supplicant\src/eapol_supp/eapol_supp_sm.h **** 	void *eapol_send_ctx;
 133:..\..\..\..\wpa_supplicant\src/eapol_supp/eapol_supp_sm.h **** 
 134:..\..\..\..\wpa_supplicant\src/eapol_supp/eapol_supp_sm.h **** 	/**
 135:..\..\..\..\wpa_supplicant\src/eapol_supp/eapol_supp_sm.h **** 	 * eapol_done_cb - Function to be called at successful completion
 136:..\..\..\..\wpa_supplicant\src/eapol_supp/eapol_supp_sm.h **** 	 * @ctx: Callback context (ctx)
 137:..\..\..\..\wpa_supplicant\src/eapol_supp/eapol_supp_sm.h **** 	 *
 138:..\..\..\..\wpa_supplicant\src/eapol_supp/eapol_supp_sm.h **** 	 * This function is called at the successful completion of EAPOL
 139:..\..\..\..\wpa_supplicant\src/eapol_supp/eapol_supp_sm.h **** 	 * authentication. If dynamic WEP keys are used, this is called only
 140:..\..\..\..\wpa_supplicant\src/eapol_supp/eapol_supp_sm.h **** 	 * after all the expected keys have been received.
 141:..\..\..\..\wpa_supplicant\src/eapol_supp/eapol_supp_sm.h **** 	 */
 142:..\..\..\..\wpa_supplicant\src/eapol_supp/eapol_supp_sm.h **** 	void (*eapol_done_cb)(void *ctx);
 143:..\..\..\..\wpa_supplicant\src/eapol_supp/eapol_supp_sm.h **** 
 144:..\..\..\..\wpa_supplicant\src/eapol_supp/eapol_supp_sm.h **** 	/**
 145:..\..\..\..\wpa_supplicant\src/eapol_supp/eapol_supp_sm.h **** 	 * eapol_send - Send EAPOL packets
 146:..\..\..\..\wpa_supplicant\src/eapol_supp/eapol_supp_sm.h **** 	 * @ctx: Callback context (eapol_send_ctx)
 147:..\..\..\..\wpa_supplicant\src/eapol_supp/eapol_supp_sm.h **** 	 * @type: EAPOL type (IEEE802_1X_TYPE_*)
 148:..\..\..\..\wpa_supplicant\src/eapol_supp/eapol_supp_sm.h **** 	 * @buf: Pointer to EAPOL payload
 149:..\..\..\..\wpa_supplicant\src/eapol_supp/eapol_supp_sm.h **** 	 * @len: Length of the EAPOL payload
 150:..\..\..\..\wpa_supplicant\src/eapol_supp/eapol_supp_sm.h **** 	 * Returns: 0 on success, -1 on failure
 151:..\..\..\..\wpa_supplicant\src/eapol_supp/eapol_supp_sm.h **** 	 */
 152:..\..\..\..\wpa_supplicant\src/eapol_supp/eapol_supp_sm.h **** 	int (*eapol_send)(void *ctx, int type, const u8 *buf, size_t len);
 153:..\..\..\..\wpa_supplicant\src/eapol_supp/eapol_supp_sm.h **** 
 154:..\..\..\..\wpa_supplicant\src/eapol_supp/eapol_supp_sm.h **** 	/**
 155:..\..\..\..\wpa_supplicant\src/eapol_supp/eapol_supp_sm.h **** 	 * set_wep_key - Configure WEP keys
 156:..\..\..\..\wpa_supplicant\src/eapol_supp/eapol_supp_sm.h **** 	 * @ctx: Callback context (ctx)
 157:..\..\..\..\wpa_supplicant\src/eapol_supp/eapol_supp_sm.h **** 	 * @unicast: Non-zero = unicast, 0 = multicast/broadcast key
 158:..\..\..\..\wpa_supplicant\src/eapol_supp/eapol_supp_sm.h **** 	 * @keyidx: Key index (0..3)
 159:..\..\..\..\wpa_supplicant\src/eapol_supp/eapol_supp_sm.h **** 	 * @key: WEP key
 160:..\..\..\..\wpa_supplicant\src/eapol_supp/eapol_supp_sm.h **** 	 * @keylen: Length of the WEP key
 161:..\..\..\..\wpa_supplicant\src/eapol_supp/eapol_supp_sm.h **** 	 * Returns: 0 on success, -1 on failure
 162:..\..\..\..\wpa_supplicant\src/eapol_supp/eapol_supp_sm.h **** 	 */
 163:..\..\..\..\wpa_supplicant\src/eapol_supp/eapol_supp_sm.h **** 	int (*set_wep_key)(void *ctx, int unicast, int keyidx,
 164:..\..\..\..\wpa_supplicant\src/eapol_supp/eapol_supp_sm.h **** 			   const u8 *key, size_t keylen);
 165:..\..\..\..\wpa_supplicant\src/eapol_supp/eapol_supp_sm.h **** 
 166:..\..\..\..\wpa_supplicant\src/eapol_supp/eapol_supp_sm.h **** 	/**
 167:..\..\..\..\wpa_supplicant\src/eapol_supp/eapol_supp_sm.h **** 	 * set_config_blob - Set or add a named configuration blob
 168:..\..\..\..\wpa_supplicant\src/eapol_supp/eapol_supp_sm.h **** 	 * @ctx: Callback context (ctx)
 169:..\..\..\..\wpa_supplicant\src/eapol_supp/eapol_supp_sm.h **** 	 * @blob: New value for the blob
 170:..\..\..\..\wpa_supplicant\src/eapol_supp/eapol_supp_sm.h **** 	 *
 171:..\..\..\..\wpa_supplicant\src/eapol_supp/eapol_supp_sm.h **** 	 * Adds a new configuration blob or replaces the current value of an
 172:..\..\..\..\wpa_supplicant\src/eapol_supp/eapol_supp_sm.h **** 	 * existing blob.
 173:..\..\..\..\wpa_supplicant\src/eapol_supp/eapol_supp_sm.h **** 	 */
 174:..\..\..\..\wpa_supplicant\src/eapol_supp/eapol_supp_sm.h **** 	void (*set_config_blob)(void *ctx, struct wpa_config_blob *blob);
 175:..\..\..\..\wpa_supplicant\src/eapol_supp/eapol_supp_sm.h **** 
 176:..\..\..\..\wpa_supplicant\src/eapol_supp/eapol_supp_sm.h **** 	/**
 177:..\..\..\..\wpa_supplicant\src/eapol_supp/eapol_supp_sm.h **** 	 * get_config_blob - Get a named configuration blob
 178:..\..\..\..\wpa_supplicant\src/eapol_supp/eapol_supp_sm.h **** 	 * @ctx: Callback context (ctx)
 179:..\..\..\..\wpa_supplicant\src/eapol_supp/eapol_supp_sm.h **** 	 * @name: Name of the blob
 180:..\..\..\..\wpa_supplicant\src/eapol_supp/eapol_supp_sm.h **** 	 * Returns: Pointer to blob data or %NULL if not found
 181:..\..\..\..\wpa_supplicant\src/eapol_supp/eapol_supp_sm.h **** 	 */
 182:..\..\..\..\wpa_supplicant\src/eapol_supp/eapol_supp_sm.h **** 	const struct wpa_config_blob * (*get_config_blob)(void *ctx,
 183:..\..\..\..\wpa_supplicant\src/eapol_supp/eapol_supp_sm.h **** 							  const char *name);
 184:..\..\..\..\wpa_supplicant\src/eapol_supp/eapol_supp_sm.h **** 
 185:..\..\..\..\wpa_supplicant\src/eapol_supp/eapol_supp_sm.h **** 	/**
 186:..\..\..\..\wpa_supplicant\src/eapol_supp/eapol_supp_sm.h **** 	 * aborted_cached - Notify that cached PMK attempt was aborted
 187:..\..\..\..\wpa_supplicant\src/eapol_supp/eapol_supp_sm.h **** 	 * @ctx: Callback context (ctx)
 188:..\..\..\..\wpa_supplicant\src/eapol_supp/eapol_supp_sm.h **** 	 */
 189:..\..\..\..\wpa_supplicant\src/eapol_supp/eapol_supp_sm.h **** 	void (*aborted_cached)(void *ctx);
 190:..\..\..\..\wpa_supplicant\src/eapol_supp/eapol_supp_sm.h **** 
 191:..\..\..\..\wpa_supplicant\src/eapol_supp/eapol_supp_sm.h **** 	/**
 192:..\..\..\..\wpa_supplicant\src/eapol_supp/eapol_supp_sm.h **** 	 * opensc_engine_path - Path to the OpenSSL engine for opensc
 193:..\..\..\..\wpa_supplicant\src/eapol_supp/eapol_supp_sm.h **** 	 *
 194:..\..\..\..\wpa_supplicant\src/eapol_supp/eapol_supp_sm.h **** 	 * This is an OpenSSL specific configuration option for loading OpenSC
 195:..\..\..\..\wpa_supplicant\src/eapol_supp/eapol_supp_sm.h **** 	 * engine (engine_opensc.so); if %NULL, this engine is not loaded.
 196:..\..\..\..\wpa_supplicant\src/eapol_supp/eapol_supp_sm.h **** 	 */
 197:..\..\..\..\wpa_supplicant\src/eapol_supp/eapol_supp_sm.h **** 	const char *opensc_engine_path;
 198:..\..\..\..\wpa_supplicant\src/eapol_supp/eapol_supp_sm.h **** 
 199:..\..\..\..\wpa_supplicant\src/eapol_supp/eapol_supp_sm.h **** 	/**
 200:..\..\..\..\wpa_supplicant\src/eapol_supp/eapol_supp_sm.h **** 	 * pkcs11_engine_path - Path to the OpenSSL engine for PKCS#11
 201:..\..\..\..\wpa_supplicant\src/eapol_supp/eapol_supp_sm.h **** 	 *
 202:..\..\..\..\wpa_supplicant\src/eapol_supp/eapol_supp_sm.h **** 	 * This is an OpenSSL specific configuration option for loading PKCS#11
 203:..\..\..\..\wpa_supplicant\src/eapol_supp/eapol_supp_sm.h **** 	 * engine (engine_pkcs11.so); if %NULL, this engine is not loaded.
 204:..\..\..\..\wpa_supplicant\src/eapol_supp/eapol_supp_sm.h **** 	 */
 205:..\..\..\..\wpa_supplicant\src/eapol_supp/eapol_supp_sm.h **** 	const char *pkcs11_engine_path;
 206:..\..\..\..\wpa_supplicant\src/eapol_supp/eapol_supp_sm.h **** 
 207:..\..\..\..\wpa_supplicant\src/eapol_supp/eapol_supp_sm.h **** 	/**
 208:..\..\..\..\wpa_supplicant\src/eapol_supp/eapol_supp_sm.h **** 	 * pkcs11_module_path - Path to the OpenSSL OpenSC/PKCS#11 module
 209:..\..\..\..\wpa_supplicant\src/eapol_supp/eapol_supp_sm.h **** 	 *
 210:..\..\..\..\wpa_supplicant\src/eapol_supp/eapol_supp_sm.h **** 	 * This is an OpenSSL specific configuration option for configuring
 211:..\..\..\..\wpa_supplicant\src/eapol_supp/eapol_supp_sm.h **** 	 * path to OpenSC/PKCS#11 engine (opensc-pkcs11.so); if %NULL, this
 212:..\..\..\..\wpa_supplicant\src/eapol_supp/eapol_supp_sm.h **** 	 * module is not loaded.
 213:..\..\..\..\wpa_supplicant\src/eapol_supp/eapol_supp_sm.h **** 	 */
 214:..\..\..\..\wpa_supplicant\src/eapol_supp/eapol_supp_sm.h **** 	const char *pkcs11_module_path;
 215:..\..\..\..\wpa_supplicant\src/eapol_supp/eapol_supp_sm.h **** 
 216:..\..\..\..\wpa_supplicant\src/eapol_supp/eapol_supp_sm.h **** 	/**
 217:..\..\..\..\wpa_supplicant\src/eapol_supp/eapol_supp_sm.h **** 	 * openssl_ciphers - OpenSSL cipher string
 218:..\..\..\..\wpa_supplicant\src/eapol_supp/eapol_supp_sm.h **** 	 *
 219:..\..\..\..\wpa_supplicant\src/eapol_supp/eapol_supp_sm.h **** 	 * This is an OpenSSL specific configuration option for configuring the
 220:..\..\..\..\wpa_supplicant\src/eapol_supp/eapol_supp_sm.h **** 	 * default ciphers. If not set, "DEFAULT:!EXP:!LOW" is used as the
 221:..\..\..\..\wpa_supplicant\src/eapol_supp/eapol_supp_sm.h **** 	 * default.
 222:..\..\..\..\wpa_supplicant\src/eapol_supp/eapol_supp_sm.h **** 	 */
 223:..\..\..\..\wpa_supplicant\src/eapol_supp/eapol_supp_sm.h **** 	const char *openssl_ciphers;
 224:..\..\..\..\wpa_supplicant\src/eapol_supp/eapol_supp_sm.h **** 
 225:..\..\..\..\wpa_supplicant\src/eapol_supp/eapol_supp_sm.h **** 	/**
 226:..\..\..\..\wpa_supplicant\src/eapol_supp/eapol_supp_sm.h **** 	 * wps - WPS context data
 227:..\..\..\..\wpa_supplicant\src/eapol_supp/eapol_supp_sm.h **** 	 *
 228:..\..\..\..\wpa_supplicant\src/eapol_supp/eapol_supp_sm.h **** 	 * This is only used by EAP-WSC and can be left %NULL if not available.
 229:..\..\..\..\wpa_supplicant\src/eapol_supp/eapol_supp_sm.h **** 	 */
 230:..\..\..\..\wpa_supplicant\src/eapol_supp/eapol_supp_sm.h **** 	struct wps_context *wps;
 231:..\..\..\..\wpa_supplicant\src/eapol_supp/eapol_supp_sm.h **** 
 232:..\..\..\..\wpa_supplicant\src/eapol_supp/eapol_supp_sm.h **** 	/**
 233:..\..\..\..\wpa_supplicant\src/eapol_supp/eapol_supp_sm.h **** 	 * eap_param_needed - Notify that EAP parameter is needed
 234:..\..\..\..\wpa_supplicant\src/eapol_supp/eapol_supp_sm.h **** 	 * @ctx: Callback context (ctx)
 235:..\..\..\..\wpa_supplicant\src/eapol_supp/eapol_supp_sm.h **** 	 * @field: Field indicator (e.g., WPA_CTRL_REQ_EAP_IDENTITY)
 236:..\..\..\..\wpa_supplicant\src/eapol_supp/eapol_supp_sm.h **** 	 * @txt: User readable text describing the required parameter
 237:..\..\..\..\wpa_supplicant\src/eapol_supp/eapol_supp_sm.h **** 	 */
 238:..\..\..\..\wpa_supplicant\src/eapol_supp/eapol_supp_sm.h **** 	void (*eap_param_needed)(void *ctx, enum wpa_ctrl_req_type field,
 239:..\..\..\..\wpa_supplicant\src/eapol_supp/eapol_supp_sm.h **** 				 const char *txt);
 240:..\..\..\..\wpa_supplicant\src/eapol_supp/eapol_supp_sm.h **** 
 241:..\..\..\..\wpa_supplicant\src/eapol_supp/eapol_supp_sm.h **** 	/**
 242:..\..\..\..\wpa_supplicant\src/eapol_supp/eapol_supp_sm.h **** 	 * port_cb - Set port authorized/unauthorized callback (optional)
 243:..\..\..\..\wpa_supplicant\src/eapol_supp/eapol_supp_sm.h **** 	 * @ctx: Callback context (ctx)
 244:..\..\..\..\wpa_supplicant\src/eapol_supp/eapol_supp_sm.h **** 	 * @authorized: Whether the supplicant port is now in authorized state
 245:..\..\..\..\wpa_supplicant\src/eapol_supp/eapol_supp_sm.h **** 	 */
 246:..\..\..\..\wpa_supplicant\src/eapol_supp/eapol_supp_sm.h **** 	void (*port_cb)(void *ctx, int authorized);
 247:..\..\..\..\wpa_supplicant\src/eapol_supp/eapol_supp_sm.h **** 
 248:..\..\..\..\wpa_supplicant\src/eapol_supp/eapol_supp_sm.h **** 	/**
 249:..\..\..\..\wpa_supplicant\src/eapol_supp/eapol_supp_sm.h **** 	 * cert_cb - Notification of a peer certificate
 250:..\..\..\..\wpa_supplicant\src/eapol_supp/eapol_supp_sm.h **** 	 * @ctx: Callback context (ctx)
 251:..\..\..\..\wpa_supplicant\src/eapol_supp/eapol_supp_sm.h **** 	 * @cert: Certificate information
 252:..\..\..\..\wpa_supplicant\src/eapol_supp/eapol_supp_sm.h **** 	 * @cert_hash: SHA-256 hash of the certificate
 253:..\..\..\..\wpa_supplicant\src/eapol_supp/eapol_supp_sm.h **** 	 */
 254:..\..\..\..\wpa_supplicant\src/eapol_supp/eapol_supp_sm.h **** 	void (*cert_cb)(void *ctx, struct tls_cert_data *cert,
 255:..\..\..\..\wpa_supplicant\src/eapol_supp/eapol_supp_sm.h **** 			const char *cert_hash);
 256:..\..\..\..\wpa_supplicant\src/eapol_supp/eapol_supp_sm.h **** 
 257:..\..\..\..\wpa_supplicant\src/eapol_supp/eapol_supp_sm.h **** 	/**
 258:..\..\..\..\wpa_supplicant\src/eapol_supp/eapol_supp_sm.h **** 	 * cert_in_cb - Include server certificates in callback
 259:..\..\..\..\wpa_supplicant\src/eapol_supp/eapol_supp_sm.h **** 	 */
 260:..\..\..\..\wpa_supplicant\src/eapol_supp/eapol_supp_sm.h **** 	int cert_in_cb;
 261:..\..\..\..\wpa_supplicant\src/eapol_supp/eapol_supp_sm.h **** 
 262:..\..\..\..\wpa_supplicant\src/eapol_supp/eapol_supp_sm.h **** 	/**
 263:..\..\..\..\wpa_supplicant\src/eapol_supp/eapol_supp_sm.h **** 	 * status_cb - Notification of a change in EAP status
 264:..\..\..\..\wpa_supplicant\src/eapol_supp/eapol_supp_sm.h **** 	 * @ctx: Callback context (ctx)
 265:..\..\..\..\wpa_supplicant\src/eapol_supp/eapol_supp_sm.h **** 	 * @status: Step in the process of EAP authentication
 266:..\..\..\..\wpa_supplicant\src/eapol_supp/eapol_supp_sm.h **** 	 * @parameter: Step-specific parameter, e.g., EAP method name
 267:..\..\..\..\wpa_supplicant\src/eapol_supp/eapol_supp_sm.h **** 	 */
 268:..\..\..\..\wpa_supplicant\src/eapol_supp/eapol_supp_sm.h **** 	void (*status_cb)(void *ctx, const char *status,
 269:..\..\..\..\wpa_supplicant\src/eapol_supp/eapol_supp_sm.h **** 			  const char *parameter);
 270:..\..\..\..\wpa_supplicant\src/eapol_supp/eapol_supp_sm.h **** 
 271:..\..\..\..\wpa_supplicant\src/eapol_supp/eapol_supp_sm.h **** 	/**
 272:..\..\..\..\wpa_supplicant\src/eapol_supp/eapol_supp_sm.h **** 	 * eap_error_cb - Notification of EAP method error
 273:..\..\..\..\wpa_supplicant\src/eapol_supp/eapol_supp_sm.h **** 	 * @ctx: Callback context (ctx)
 274:..\..\..\..\wpa_supplicant\src/eapol_supp/eapol_supp_sm.h **** 	 * @error_code: EAP method error code
 275:..\..\..\..\wpa_supplicant\src/eapol_supp/eapol_supp_sm.h **** 	 */
 276:..\..\..\..\wpa_supplicant\src/eapol_supp/eapol_supp_sm.h **** 	void (*eap_error_cb)(void *ctx, int error_code);
 277:..\..\..\..\wpa_supplicant\src/eapol_supp/eapol_supp_sm.h **** 
 278:..\..\..\..\wpa_supplicant\src/eapol_supp/eapol_supp_sm.h **** #ifdef CONFIG_EAP_PROXY
 279:..\..\..\..\wpa_supplicant\src/eapol_supp/eapol_supp_sm.h **** 	/**
 280:..\..\..\..\wpa_supplicant\src/eapol_supp/eapol_supp_sm.h **** 	 * eap_proxy_cb - Callback signifying any updates from eap_proxy
 281:..\..\..\..\wpa_supplicant\src/eapol_supp/eapol_supp_sm.h **** 	 * @ctx: eapol_ctx from eap_peer_sm_init() call
 282:..\..\..\..\wpa_supplicant\src/eapol_supp/eapol_supp_sm.h **** 	 */
 283:..\..\..\..\wpa_supplicant\src/eapol_supp/eapol_supp_sm.h **** 	void (*eap_proxy_cb)(void *ctx);
 284:..\..\..\..\wpa_supplicant\src/eapol_supp/eapol_supp_sm.h **** 
 285:..\..\..\..\wpa_supplicant\src/eapol_supp/eapol_supp_sm.h **** 	/**
 286:..\..\..\..\wpa_supplicant\src/eapol_supp/eapol_supp_sm.h **** 	 * eap_proxy_notify_sim_status - Notification of SIM status change
 287:..\..\..\..\wpa_supplicant\src/eapol_supp/eapol_supp_sm.h **** 	 * @ctx: eapol_ctx from eap_peer_sm_init() call
 288:..\..\..\..\wpa_supplicant\src/eapol_supp/eapol_supp_sm.h **** 	 * @status: One of enum value from sim_state
 289:..\..\..\..\wpa_supplicant\src/eapol_supp/eapol_supp_sm.h **** 	 */
 290:..\..\..\..\wpa_supplicant\src/eapol_supp/eapol_supp_sm.h **** 	void (*eap_proxy_notify_sim_status)(void *ctx,
 291:..\..\..\..\wpa_supplicant\src/eapol_supp/eapol_supp_sm.h **** 					    enum eap_proxy_sim_state sim_state);
 292:..\..\..\..\wpa_supplicant\src/eapol_supp/eapol_supp_sm.h **** #endif /* CONFIG_EAP_PROXY */
 293:..\..\..\..\wpa_supplicant\src/eapol_supp/eapol_supp_sm.h **** 
 294:..\..\..\..\wpa_supplicant\src/eapol_supp/eapol_supp_sm.h **** 	/**
 295:..\..\..\..\wpa_supplicant\src/eapol_supp/eapol_supp_sm.h **** 	 * set_anon_id - Set or add anonymous identity
 296:..\..\..\..\wpa_supplicant\src/eapol_supp/eapol_supp_sm.h **** 	 * @ctx: eapol_ctx from eap_peer_sm_init() call
 297:..\..\..\..\wpa_supplicant\src/eapol_supp/eapol_supp_sm.h **** 	 * @id: Anonymous identity (e.g., EAP-SIM pseudonym)
 298:..\..\..\..\wpa_supplicant\src/eapol_supp/eapol_supp_sm.h **** 	 * @len: Length of anonymous identity in octets
 299:..\..\..\..\wpa_supplicant\src/eapol_supp/eapol_supp_sm.h **** 	 */
 300:..\..\..\..\wpa_supplicant\src/eapol_supp/eapol_supp_sm.h **** 	void (*set_anon_id)(void *ctx, const u8 *id, size_t len);
 301:..\..\..\..\wpa_supplicant\src/eapol_supp/eapol_supp_sm.h **** 
 302:..\..\..\..\wpa_supplicant\src/eapol_supp/eapol_supp_sm.h **** 	/**
 303:..\..\..\..\wpa_supplicant\src/eapol_supp/eapol_supp_sm.h **** 	 * confirm_auth_cb - Callback confirming if we can install a new PTK
 304:..\..\..\..\wpa_supplicant\src/eapol_supp/eapol_supp_sm.h **** 	 * @ctx: eapol_ctx from eap_peer_sm_init() call
 305:..\..\..\..\wpa_supplicant\src/eapol_supp/eapol_supp_sm.h **** 	 * Returns: 0 when authentication can continue, -1 when reconnecting
 306:..\..\..\..\wpa_supplicant\src/eapol_supp/eapol_supp_sm.h **** 	 *
 307:..\..\..\..\wpa_supplicant\src/eapol_supp/eapol_supp_sm.h **** 	 * Automatically triggers a reconnect when not.
 308:..\..\..\..\wpa_supplicant\src/eapol_supp/eapol_supp_sm.h **** 	 */
 309:..\..\..\..\wpa_supplicant\src/eapol_supp/eapol_supp_sm.h **** 	int (*confirm_auth_cb)(void *ctx);
 310:..\..\..\..\wpa_supplicant\src/eapol_supp/eapol_supp_sm.h **** };
 311:..\..\..\..\wpa_supplicant\src/eapol_supp/eapol_supp_sm.h **** 
 312:..\..\..\..\wpa_supplicant\src/eapol_supp/eapol_supp_sm.h **** 
 313:..\..\..\..\wpa_supplicant\src/eapol_supp/eapol_supp_sm.h **** struct eap_peer_config;
 314:..\..\..\..\wpa_supplicant\src/eapol_supp/eapol_supp_sm.h **** struct ext_password_data;
 315:..\..\..\..\wpa_supplicant\src/eapol_supp/eapol_supp_sm.h **** 
 316:..\..\..\..\wpa_supplicant\src/eapol_supp/eapol_supp_sm.h **** #ifdef IEEE8021X_EAPOL
 317:..\..\..\..\wpa_supplicant\src/eapol_supp/eapol_supp_sm.h **** struct eapol_sm *eapol_sm_init(struct eapol_ctx *ctx);
 318:..\..\..\..\wpa_supplicant\src/eapol_supp/eapol_supp_sm.h **** void eapol_sm_deinit(struct eapol_sm *sm);
 319:..\..\..\..\wpa_supplicant\src/eapol_supp/eapol_supp_sm.h **** void eapol_sm_step(struct eapol_sm *sm);
 320:..\..\..\..\wpa_supplicant\src/eapol_supp/eapol_supp_sm.h **** int eapol_sm_get_status(struct eapol_sm *sm, char *buf, size_t buflen,
 321:..\..\..\..\wpa_supplicant\src/eapol_supp/eapol_supp_sm.h **** 			int verbose);
 322:..\..\..\..\wpa_supplicant\src/eapol_supp/eapol_supp_sm.h **** int eapol_sm_get_mib(struct eapol_sm *sm, char *buf, size_t buflen);
 323:..\..\..\..\wpa_supplicant\src/eapol_supp/eapol_supp_sm.h **** void eapol_sm_configure(struct eapol_sm *sm, int heldPeriod, int authPeriod,
 324:..\..\..\..\wpa_supplicant\src/eapol_supp/eapol_supp_sm.h **** 			int startPeriod, int maxStart);
 325:..\..\..\..\wpa_supplicant\src/eapol_supp/eapol_supp_sm.h **** int eapol_sm_rx_eapol(struct eapol_sm *sm, const u8 *src, const u8 *buf,
 326:..\..\..\..\wpa_supplicant\src/eapol_supp/eapol_supp_sm.h **** 		      size_t len);
 327:..\..\..\..\wpa_supplicant\src/eapol_supp/eapol_supp_sm.h **** void eapol_sm_notify_tx_eapol_key(struct eapol_sm *sm);
 328:..\..\..\..\wpa_supplicant\src/eapol_supp/eapol_supp_sm.h **** void eapol_sm_notify_portEnabled(struct eapol_sm *sm, bool enabled);
 329:..\..\..\..\wpa_supplicant\src/eapol_supp/eapol_supp_sm.h **** void eapol_sm_notify_portValid(struct eapol_sm *sm, bool valid);
 330:..\..\..\..\wpa_supplicant\src/eapol_supp/eapol_supp_sm.h **** void eapol_sm_notify_eap_success(struct eapol_sm *sm, bool success);
 331:..\..\..\..\wpa_supplicant\src/eapol_supp/eapol_supp_sm.h **** void eapol_sm_notify_eap_fail(struct eapol_sm *sm, bool fail);
 332:..\..\..\..\wpa_supplicant\src/eapol_supp/eapol_supp_sm.h **** void eapol_sm_notify_config(struct eapol_sm *sm,
 333:..\..\..\..\wpa_supplicant\src/eapol_supp/eapol_supp_sm.h **** 			    struct eap_peer_config *config,
 334:..\..\..\..\wpa_supplicant\src/eapol_supp/eapol_supp_sm.h **** 			    const struct eapol_config *conf);
 335:..\..\..\..\wpa_supplicant\src/eapol_supp/eapol_supp_sm.h **** int eapol_sm_get_key(struct eapol_sm *sm, u8 *key, size_t len);
 336:..\..\..\..\wpa_supplicant\src/eapol_supp/eapol_supp_sm.h **** const u8 * eapol_sm_get_session_id(struct eapol_sm *sm, size_t *len);
 337:..\..\..\..\wpa_supplicant\src/eapol_supp/eapol_supp_sm.h **** void eapol_sm_notify_logoff(struct eapol_sm *sm, bool logoff);
 338:..\..\..\..\wpa_supplicant\src/eapol_supp/eapol_supp_sm.h **** void eapol_sm_notify_cached(struct eapol_sm *sm);
 339:..\..\..\..\wpa_supplicant\src/eapol_supp/eapol_supp_sm.h **** void eapol_sm_notify_pmkid_attempt(struct eapol_sm *sm);
 340:..\..\..\..\wpa_supplicant\src/eapol_supp/eapol_supp_sm.h **** void eapol_sm_register_scard_ctx(struct eapol_sm *sm, void *ctx);
 341:..\..\..\..\wpa_supplicant\src/eapol_supp/eapol_supp_sm.h **** void eapol_sm_notify_portControl(struct eapol_sm *sm, PortControl portControl);
 342:..\..\..\..\wpa_supplicant\src/eapol_supp/eapol_supp_sm.h **** void eapol_sm_notify_ctrl_attached(struct eapol_sm *sm);
 343:..\..\..\..\wpa_supplicant\src/eapol_supp/eapol_supp_sm.h **** void eapol_sm_notify_ctrl_response(struct eapol_sm *sm);
 344:..\..\..\..\wpa_supplicant\src/eapol_supp/eapol_supp_sm.h **** void eapol_sm_request_reauth(struct eapol_sm *sm);
 345:..\..\..\..\wpa_supplicant\src/eapol_supp/eapol_supp_sm.h **** void eapol_sm_notify_lower_layer_success(struct eapol_sm *sm, int in_eapol_sm);
 346:..\..\..\..\wpa_supplicant\src/eapol_supp/eapol_supp_sm.h **** void eapol_sm_invalidate_cached_session(struct eapol_sm *sm);
 347:..\..\..\..\wpa_supplicant\src/eapol_supp/eapol_supp_sm.h **** const char * eapol_sm_get_method_name(struct eapol_sm *sm);
 348:..\..\..\..\wpa_supplicant\src/eapol_supp/eapol_supp_sm.h **** void eapol_sm_set_ext_pw_ctx(struct eapol_sm *sm,
 349:..\..\..\..\wpa_supplicant\src/eapol_supp/eapol_supp_sm.h **** 			     struct ext_password_data *ext);
 350:..\..\..\..\wpa_supplicant\src/eapol_supp/eapol_supp_sm.h **** int eapol_sm_failed(struct eapol_sm *sm);
 351:..\..\..\..\wpa_supplicant\src/eapol_supp/eapol_supp_sm.h **** void eapol_sm_erp_flush(struct eapol_sm *sm);
 352:..\..\..\..\wpa_supplicant\src/eapol_supp/eapol_supp_sm.h **** struct wpabuf * eapol_sm_build_erp_reauth_start(struct eapol_sm *sm);
 353:..\..\..\..\wpa_supplicant\src/eapol_supp/eapol_supp_sm.h **** void eapol_sm_process_erp_finish(struct eapol_sm *sm, const u8 *buf,
 354:..\..\..\..\wpa_supplicant\src/eapol_supp/eapol_supp_sm.h **** 				 size_t len);
 355:..\..\..\..\wpa_supplicant\src/eapol_supp/eapol_supp_sm.h **** int eapol_sm_get_eap_proxy_imsi(void *ctx, int sim_num, char *imsi,
 356:..\..\..\..\wpa_supplicant\src/eapol_supp/eapol_supp_sm.h **** 				size_t *len);
 357:..\..\..\..\wpa_supplicant\src/eapol_supp/eapol_supp_sm.h **** int eapol_sm_update_erp_next_seq_num(struct eapol_sm *sm, u16 next_seq_num);
 358:..\..\..\..\wpa_supplicant\src/eapol_supp/eapol_supp_sm.h **** int eapol_sm_get_erp_info(struct eapol_sm *sm, struct eap_peer_config *config,
 359:..\..\..\..\wpa_supplicant\src/eapol_supp/eapol_supp_sm.h **** 			  const u8 **username, size_t *username_len,
 360:..\..\..\..\wpa_supplicant\src/eapol_supp/eapol_supp_sm.h **** 			  const u8 **realm, size_t *realm_len,
 361:..\..\..\..\wpa_supplicant\src/eapol_supp/eapol_supp_sm.h **** 			  u16 *erp_next_seq_num, const u8 **rrk,
 362:..\..\..\..\wpa_supplicant\src/eapol_supp/eapol_supp_sm.h **** 			  size_t *rrk_len);
 363:..\..\..\..\wpa_supplicant\src/eapol_supp/eapol_supp_sm.h **** 
 364:..\..\..\..\wpa_supplicant\src/eapol_supp/eapol_supp_sm.h **** #else /* IEEE8021X_EAPOL */
 365:..\..\..\..\wpa_supplicant\src/eapol_supp/eapol_supp_sm.h **** static inline struct eapol_sm *eapol_sm_init(struct eapol_ctx *ctx)
 366:..\..\..\..\wpa_supplicant\src/eapol_supp/eapol_supp_sm.h **** {
 367:..\..\..\..\wpa_supplicant\src/eapol_supp/eapol_supp_sm.h **** 	free(ctx);
 368:..\..\..\..\wpa_supplicant\src/eapol_supp/eapol_supp_sm.h **** 	return (struct eapol_sm *) 1;
 369:..\..\..\..\wpa_supplicant\src/eapol_supp/eapol_supp_sm.h **** }
 370:..\..\..\..\wpa_supplicant\src/eapol_supp/eapol_supp_sm.h **** static inline void eapol_sm_deinit(struct eapol_sm *sm)
 371:..\..\..\..\wpa_supplicant\src/eapol_supp/eapol_supp_sm.h **** {
 372:..\..\..\..\wpa_supplicant\src/eapol_supp/eapol_supp_sm.h **** }
 373:..\..\..\..\wpa_supplicant\src/eapol_supp/eapol_supp_sm.h **** static inline void eapol_sm_step(struct eapol_sm *sm)
 374:..\..\..\..\wpa_supplicant\src/eapol_supp/eapol_supp_sm.h **** {
 375:..\..\..\..\wpa_supplicant\src/eapol_supp/eapol_supp_sm.h **** }
 376:..\..\..\..\wpa_supplicant\src/eapol_supp/eapol_supp_sm.h **** static inline int eapol_sm_get_status(struct eapol_sm *sm, char *buf,
 377:..\..\..\..\wpa_supplicant\src/eapol_supp/eapol_supp_sm.h **** 				      size_t buflen, int verbose)
 378:..\..\..\..\wpa_supplicant\src/eapol_supp/eapol_supp_sm.h **** {
 379:..\..\..\..\wpa_supplicant\src/eapol_supp/eapol_supp_sm.h **** 	return 0;
 380:..\..\..\..\wpa_supplicant\src/eapol_supp/eapol_supp_sm.h **** }
 381:..\..\..\..\wpa_supplicant\src/eapol_supp/eapol_supp_sm.h **** static inline int eapol_sm_get_mib(struct eapol_sm *sm, char *buf,
 382:..\..\..\..\wpa_supplicant\src/eapol_supp/eapol_supp_sm.h **** 				   size_t buflen)
 383:..\..\..\..\wpa_supplicant\src/eapol_supp/eapol_supp_sm.h **** {
 384:..\..\..\..\wpa_supplicant\src/eapol_supp/eapol_supp_sm.h **** 	return 0;
 385:..\..\..\..\wpa_supplicant\src/eapol_supp/eapol_supp_sm.h **** }
 386:..\..\..\..\wpa_supplicant\src/eapol_supp/eapol_supp_sm.h **** static inline void eapol_sm_configure(struct eapol_sm *sm, int heldPeriod,
 387:..\..\..\..\wpa_supplicant\src/eapol_supp/eapol_supp_sm.h **** 				      int authPeriod, int startPeriod,
 388:..\..\..\..\wpa_supplicant\src/eapol_supp/eapol_supp_sm.h **** 				      int maxStart)
 389:..\..\..\..\wpa_supplicant\src/eapol_supp/eapol_supp_sm.h **** {
 390:..\..\..\..\wpa_supplicant\src/eapol_supp/eapol_supp_sm.h **** }
 391:..\..\..\..\wpa_supplicant\src/eapol_supp/eapol_supp_sm.h **** static inline int eapol_sm_rx_eapol(struct eapol_sm *sm, const u8 *src,
 392:..\..\..\..\wpa_supplicant\src/eapol_supp/eapol_supp_sm.h **** 				    const u8 *buf, size_t len)
 393:..\..\..\..\wpa_supplicant\src/eapol_supp/eapol_supp_sm.h **** {
 394:..\..\..\..\wpa_supplicant\src/eapol_supp/eapol_supp_sm.h **** 	return 0;
 395:..\..\..\..\wpa_supplicant\src/eapol_supp/eapol_supp_sm.h **** }
 396:..\..\..\..\wpa_supplicant\src/eapol_supp/eapol_supp_sm.h **** static inline void eapol_sm_notify_tx_eapol_key(struct eapol_sm *sm)
 397:..\..\..\..\wpa_supplicant\src/eapol_supp/eapol_supp_sm.h **** {
 398:..\..\..\..\wpa_supplicant\src/eapol_supp/eapol_supp_sm.h **** }
 399:..\..\..\..\wpa_supplicant\src/eapol_supp/eapol_supp_sm.h **** static inline void eapol_sm_notify_portEnabled(struct eapol_sm *sm,
 400:..\..\..\..\wpa_supplicant\src/eapol_supp/eapol_supp_sm.h **** 					       bool enabled)
 401:..\..\..\..\wpa_supplicant\src/eapol_supp/eapol_supp_sm.h **** {
 402:..\..\..\..\wpa_supplicant\src/eapol_supp/eapol_supp_sm.h **** }
 403:..\..\..\..\wpa_supplicant\src/eapol_supp/eapol_supp_sm.h **** static inline void eapol_sm_notify_portValid(struct eapol_sm *sm,
 404:..\..\..\..\wpa_supplicant\src/eapol_supp/eapol_supp_sm.h **** 					     bool valid)
 405:..\..\..\..\wpa_supplicant\src/eapol_supp/eapol_supp_sm.h **** {
 406:..\..\..\..\wpa_supplicant\src/eapol_supp/eapol_supp_sm.h **** }
 407:..\..\..\..\wpa_supplicant\src/eapol_supp/eapol_supp_sm.h **** static inline void eapol_sm_notify_eap_success(struct eapol_sm *sm,
 408:..\..\..\..\wpa_supplicant\src/eapol_supp/eapol_supp_sm.h **** 					       bool success)
 409:..\..\..\..\wpa_supplicant\src/eapol_supp/eapol_supp_sm.h **** {
 410:..\..\..\..\wpa_supplicant\src/eapol_supp/eapol_supp_sm.h **** }
 411:..\..\..\..\wpa_supplicant\src/eapol_supp/eapol_supp_sm.h **** static inline void eapol_sm_notify_eap_fail(struct eapol_sm *sm, bool fail)
 412:..\..\..\..\wpa_supplicant\src/eapol_supp/eapol_supp_sm.h **** {
 413:..\..\..\..\wpa_supplicant\src/eapol_supp/eapol_supp_sm.h **** }
 414:..\..\..\..\wpa_supplicant\src/eapol_supp/eapol_supp_sm.h **** static inline void eapol_sm_notify_config(struct eapol_sm *sm,
 415:..\..\..\..\wpa_supplicant\src/eapol_supp/eapol_supp_sm.h **** 					  struct eap_peer_config *config,
 416:..\..\..\..\wpa_supplicant\src/eapol_supp/eapol_supp_sm.h **** 					  struct eapol_config *conf)
 417:..\..\..\..\wpa_supplicant\src/eapol_supp/eapol_supp_sm.h **** {
 418:..\..\..\..\wpa_supplicant\src/eapol_supp/eapol_supp_sm.h **** }
 419:..\..\..\..\wpa_supplicant\src/eapol_supp/eapol_supp_sm.h **** static inline int eapol_sm_get_key(struct eapol_sm *sm, u8 *key, size_t len)
 420:..\..\..\..\wpa_supplicant\src/eapol_supp/eapol_supp_sm.h **** {
 421:..\..\..\..\wpa_supplicant\src/eapol_supp/eapol_supp_sm.h **** 	return -1;
 422:..\..\..\..\wpa_supplicant\src/eapol_supp/eapol_supp_sm.h **** }
 423:..\..\..\..\wpa_supplicant\src/eapol_supp/eapol_supp_sm.h **** static inline const u8 *
 424:..\..\..\..\wpa_supplicant\src/eapol_supp/eapol_supp_sm.h **** eapol_sm_get_session_id(struct eapol_sm *sm, size_t *len)
 425:..\..\..\..\wpa_supplicant\src/eapol_supp/eapol_supp_sm.h **** {
 426:..\..\..\..\wpa_supplicant\src/eapol_supp/eapol_supp_sm.h **** 	return NULL;
 427:..\..\..\..\wpa_supplicant\src/eapol_supp/eapol_supp_sm.h **** }
 428:..\..\..\..\wpa_supplicant\src/eapol_supp/eapol_supp_sm.h **** static inline void eapol_sm_notify_logoff(struct eapol_sm *sm, bool logoff)
 429:..\..\..\..\wpa_supplicant\src/eapol_supp/eapol_supp_sm.h **** {
 430:..\..\..\..\wpa_supplicant\src/eapol_supp/eapol_supp_sm.h **** }
 431:..\..\..\..\wpa_supplicant\src/eapol_supp/eapol_supp_sm.h **** static inline void eapol_sm_notify_cached(struct eapol_sm *sm)
 432:..\..\..\..\wpa_supplicant\src/eapol_supp/eapol_supp_sm.h **** {
 433:..\..\..\..\wpa_supplicant\src/eapol_supp/eapol_supp_sm.h **** }
 434:..\..\..\..\wpa_supplicant\src/eapol_supp/eapol_supp_sm.h **** static inline void eapol_sm_notify_pmkid_attempt(struct eapol_sm *sm)
 435:..\..\..\..\wpa_supplicant\src/eapol_supp/eapol_supp_sm.h **** {
 436:..\..\..\..\wpa_supplicant\src/eapol_supp/eapol_supp_sm.h **** }
 437:..\..\..\..\wpa_supplicant\src/eapol_supp/eapol_supp_sm.h **** #define eapol_sm_register_scard_ctx(sm, ctx) do { } while (0)
 438:..\..\..\..\wpa_supplicant\src/eapol_supp/eapol_supp_sm.h **** static inline void eapol_sm_notify_portControl(struct eapol_sm *sm,
 439:..\..\..\..\wpa_supplicant\src/eapol_supp/eapol_supp_sm.h **** 					       PortControl portControl)
 440:..\..\..\..\wpa_supplicant\src/eapol_supp/eapol_supp_sm.h **** {
 441:..\..\..\..\wpa_supplicant\src/eapol_supp/eapol_supp_sm.h **** }
 442:..\..\..\..\wpa_supplicant\src/eapol_supp/eapol_supp_sm.h **** static inline void eapol_sm_notify_ctrl_attached(struct eapol_sm *sm)
 443:..\..\..\..\wpa_supplicant\src/eapol_supp/eapol_supp_sm.h **** {
 444:..\..\..\..\wpa_supplicant\src/eapol_supp/eapol_supp_sm.h **** }
 445:..\..\..\..\wpa_supplicant\src/eapol_supp/eapol_supp_sm.h **** static inline void eapol_sm_notify_ctrl_response(struct eapol_sm *sm)
 446:..\..\..\..\wpa_supplicant\src/eapol_supp/eapol_supp_sm.h **** {
 447:..\..\..\..\wpa_supplicant\src/eapol_supp/eapol_supp_sm.h **** }
 448:..\..\..\..\wpa_supplicant\src/eapol_supp/eapol_supp_sm.h **** static inline void eapol_sm_request_reauth(struct eapol_sm *sm)
 449:..\..\..\..\wpa_supplicant\src/eapol_supp/eapol_supp_sm.h **** {
 450:..\..\..\..\wpa_supplicant\src/eapol_supp/eapol_supp_sm.h **** }
  26              		.loc 2 450 1
 102:C:/Users/stapi/OneDrive/Desktop/GD32VW553/V1_MQTT_OK/GD32VW55X_Wifi_BLE_SDK/GD32VW55x_RELEASE_V1.0.2/MSDK/wpa_supplicant/src/rsn_supp\pmksa_cache.c **** }
  27              		.loc 1 102 1 is_stmt 0
  28 0006 8280     		ret
  29              		.cfi_endproc
  30              	.LFE162:
  32              		.section	.text.pmksa_cache_free_entry,"ax",@progbits
  33              		.align	1
  35              	pmksa_cache_free_entry:
  36              	.LFB160:
  47:C:/Users/stapi/OneDrive/Desktop/GD32VW553/V1_MQTT_OK/GD32VW55X_Wifi_BLE_SDK/GD32VW55x_RELEASE_V1.0.2/MSDK/wpa_supplicant/src/rsn_supp\pmksa_cache.c **** 	wpa_sm_remove_pmkid(pmksa->sm, entry->network_ctx, entry->aa,
  37              		.loc 1 47 1 is_stmt 1
  38              		.cfi_startproc
  39              	.LVL2:
  40 0000 17030000 		call	t0,__riscv_save_3
  40      E7020300 
  41              		.cfi_offset 18, -16
  42              		.cfi_offset 9, -12
  43              		.cfi_offset 8, -8
  44              		.cfi_offset 1, -4
  45              		.cfi_def_cfa_offset 16
  48:C:/Users/stapi/OneDrive/Desktop/GD32VW553/V1_MQTT_OK/GD32VW55X_Wifi_BLE_SDK/GD32VW55x_RELEASE_V1.0.2/MSDK/wpa_supplicant/src/rsn_supp\pmksa_cache.c **** 			    entry->pmkid,
  46              		.loc 1 48 2
  47:C:/Users/stapi/OneDrive/Desktop/GD32VW553/V1_MQTT_OK/GD32VW55X_Wifi_BLE_SDK/GD32VW55x_RELEASE_V1.0.2/MSDK/wpa_supplicant/src/rsn_supp\pmksa_cache.c **** 	wpa_sm_remove_pmkid(pmksa->sm, entry->network_ctx, entry->aa,
  47              		.loc 1 47 1 is_stmt 0
  48 0008 2E84     		mv	s0,a1
  50:C:/Users/stapi/OneDrive/Desktop/GD32VW553/V1_MQTT_OK/GD32VW55X_Wifi_BLE_SDK/GD32VW55x_RELEASE_V1.0.2/MSDK/wpa_supplicant/src/rsn_supp\pmksa_cache.c **** 			    NULL);
  49              		.loc 1 50 33
  50 000a 83478406 		lbu	a5,104(s0)
  47:C:/Users/stapi/OneDrive/Desktop/GD32VW553/V1_MQTT_OK/GD32VW55X_Wifi_BLE_SDK/GD32VW55x_RELEASE_V1.0.2/MSDK/wpa_supplicant/src/rsn_supp\pmksa_cache.c **** 	wpa_sm_remove_pmkid(pmksa->sm, entry->network_ctx, entry->aa,
  51              		.loc 1 47 1
  52 000e AA84     		mv	s1,a0
  53 0010 3289     		mv	s2,a2
  48:C:/Users/stapi/OneDrive/Desktop/GD32VW553/V1_MQTT_OK/GD32VW55X_Wifi_BLE_SDK/GD32VW55x_RELEASE_V1.0.2/MSDK/wpa_supplicant/src/rsn_supp\pmksa_cache.c **** 			    entry->pmkid,
  54              		.loc 1 48 2
  55 0012 858B     		andi	a5,a5,1
  56 0014 0845     		lw	a0,8(a0)
  57              	.LVL3:
  58 0016 AC59     		lw	a1,112(a1)
  59              	.LVL4:
  48:C:/Users/stapi/OneDrive/Desktop/GD32VW553/V1_MQTT_OK/GD32VW55X_Wifi_BLE_SDK/GD32VW55x_RELEASE_V1.0.2/MSDK/wpa_supplicant/src/rsn_supp\pmksa_cache.c **** 			    entry->pmkid,
  60              		.loc 1 48 58
  61 0018 13060406 		addi	a2,s0,96
  62              	.LVL5:
  49:C:/Users/stapi/OneDrive/Desktop/GD32VW553/V1_MQTT_OK/GD32VW55X_Wifi_BLE_SDK/GD32VW55x_RELEASE_V1.0.2/MSDK/wpa_supplicant/src/rsn_supp\pmksa_cache.c **** 			    entry->fils_cache_id_set ? entry->fils_cache_id :
  63              		.loc 1 49 13
  64 001c 93064400 		addi	a3,s0,4
  48:C:/Users/stapi/OneDrive/Desktop/GD32VW553/V1_MQTT_OK/GD32VW55X_Wifi_BLE_SDK/GD32VW55x_RELEASE_V1.0.2/MSDK/wpa_supplicant/src/rsn_supp\pmksa_cache.c **** 			    entry->pmkid,
  65              		.loc 1 48 2
  66 0020 13076406 		addi	a4,s0,102
  67 0024 91E3     		bne	a5,zero,.L3
  68 0026 0147     		li	a4,0
  69              	.L3:
  70 0028 8327453E 		lw	a5,996(a0)
  71              	.LVL6:
  72              	.LBB44:
  73              	.LBB45:
  74              		.file 3 "C:/Users/stapi/OneDrive/Desktop/GD32VW553/V1_MQTT_OK/GD32VW55X_Wifi_BLE_SDK/GD32VW55x_REL
   1:C:/Users/stapi/OneDrive/Desktop/GD32VW553/V1_MQTT_OK/GD32VW55X_Wifi_BLE_SDK/GD32VW55x_RELEASE_V1.0.2/MSDK/wpa_supplicant/src/rsn_supp\wpa_i.h **** /*
   2:C:/Users/stapi/OneDrive/Desktop/GD32VW553/V1_MQTT_OK/GD32VW55X_Wifi_BLE_SDK/GD32VW55x_RELEASE_V1.0.2/MSDK/wpa_supplicant/src/rsn_supp\wpa_i.h ****  * Internal WPA/RSN supplicant state machine definitions
   3:C:/Users/stapi/OneDrive/Desktop/GD32VW553/V1_MQTT_OK/GD32VW55X_Wifi_BLE_SDK/GD32VW55x_RELEASE_V1.0.2/MSDK/wpa_supplicant/src/rsn_supp\wpa_i.h ****  * Copyright (c) 2004-2018, Jouni Malinen <j@w1.fi>
   4:C:/Users/stapi/OneDrive/Desktop/GD32VW553/V1_MQTT_OK/GD32VW55X_Wifi_BLE_SDK/GD32VW55x_RELEASE_V1.0.2/MSDK/wpa_supplicant/src/rsn_supp\wpa_i.h ****  *
   5:C:/Users/stapi/OneDrive/Desktop/GD32VW553/V1_MQTT_OK/GD32VW55X_Wifi_BLE_SDK/GD32VW55x_RELEASE_V1.0.2/MSDK/wpa_supplicant/src/rsn_supp\wpa_i.h ****  * This software may be distributed under the terms of the BSD license.
   6:C:/Users/stapi/OneDrive/Desktop/GD32VW553/V1_MQTT_OK/GD32VW55X_Wifi_BLE_SDK/GD32VW55x_RELEASE_V1.0.2/MSDK/wpa_supplicant/src/rsn_supp\wpa_i.h ****  * See README for more details.
   7:C:/Users/stapi/OneDrive/Desktop/GD32VW553/V1_MQTT_OK/GD32VW55X_Wifi_BLE_SDK/GD32VW55x_RELEASE_V1.0.2/MSDK/wpa_supplicant/src/rsn_supp\wpa_i.h ****  */
   8:C:/Users/stapi/OneDrive/Desktop/GD32VW553/V1_MQTT_OK/GD32VW55X_Wifi_BLE_SDK/GD32VW55x_RELEASE_V1.0.2/MSDK/wpa_supplicant/src/rsn_supp\wpa_i.h **** 
   9:C:/Users/stapi/OneDrive/Desktop/GD32VW553/V1_MQTT_OK/GD32VW55X_Wifi_BLE_SDK/GD32VW55x_RELEASE_V1.0.2/MSDK/wpa_supplicant/src/rsn_supp\wpa_i.h **** #ifndef WPA_I_H
  10:C:/Users/stapi/OneDrive/Desktop/GD32VW553/V1_MQTT_OK/GD32VW55X_Wifi_BLE_SDK/GD32VW55x_RELEASE_V1.0.2/MSDK/wpa_supplicant/src/rsn_supp\wpa_i.h **** #define WPA_I_H
  11:C:/Users/stapi/OneDrive/Desktop/GD32VW553/V1_MQTT_OK/GD32VW55X_Wifi_BLE_SDK/GD32VW55x_RELEASE_V1.0.2/MSDK/wpa_supplicant/src/rsn_supp\wpa_i.h **** 
  12:C:/Users/stapi/OneDrive/Desktop/GD32VW553/V1_MQTT_OK/GD32VW55X_Wifi_BLE_SDK/GD32VW55x_RELEASE_V1.0.2/MSDK/wpa_supplicant/src/rsn_supp\wpa_i.h **** #include "utils/list.h"
  13:C:/Users/stapi/OneDrive/Desktop/GD32VW553/V1_MQTT_OK/GD32VW55X_Wifi_BLE_SDK/GD32VW55x_RELEASE_V1.0.2/MSDK/wpa_supplicant/src/rsn_supp\wpa_i.h **** 
  14:C:/Users/stapi/OneDrive/Desktop/GD32VW553/V1_MQTT_OK/GD32VW55X_Wifi_BLE_SDK/GD32VW55x_RELEASE_V1.0.2/MSDK/wpa_supplicant/src/rsn_supp\wpa_i.h **** struct wpa_tdls_peer;
  15:C:/Users/stapi/OneDrive/Desktop/GD32VW553/V1_MQTT_OK/GD32VW55X_Wifi_BLE_SDK/GD32VW55x_RELEASE_V1.0.2/MSDK/wpa_supplicant/src/rsn_supp\wpa_i.h **** struct wpa_eapol_key;
  16:C:/Users/stapi/OneDrive/Desktop/GD32VW553/V1_MQTT_OK/GD32VW55X_Wifi_BLE_SDK/GD32VW55x_RELEASE_V1.0.2/MSDK/wpa_supplicant/src/rsn_supp\wpa_i.h **** 
  17:C:/Users/stapi/OneDrive/Desktop/GD32VW553/V1_MQTT_OK/GD32VW55X_Wifi_BLE_SDK/GD32VW55x_RELEASE_V1.0.2/MSDK/wpa_supplicant/src/rsn_supp\wpa_i.h **** struct pasn_ft_r1kh {
  18:C:/Users/stapi/OneDrive/Desktop/GD32VW553/V1_MQTT_OK/GD32VW55X_Wifi_BLE_SDK/GD32VW55x_RELEASE_V1.0.2/MSDK/wpa_supplicant/src/rsn_supp\wpa_i.h **** 	u8 bssid[ETH_ALEN];
  19:C:/Users/stapi/OneDrive/Desktop/GD32VW553/V1_MQTT_OK/GD32VW55X_Wifi_BLE_SDK/GD32VW55x_RELEASE_V1.0.2/MSDK/wpa_supplicant/src/rsn_supp\wpa_i.h **** 	u8 r1kh_id[FT_R1KH_ID_LEN];
  20:C:/Users/stapi/OneDrive/Desktop/GD32VW553/V1_MQTT_OK/GD32VW55X_Wifi_BLE_SDK/GD32VW55x_RELEASE_V1.0.2/MSDK/wpa_supplicant/src/rsn_supp\wpa_i.h **** };
  21:C:/Users/stapi/OneDrive/Desktop/GD32VW553/V1_MQTT_OK/GD32VW55X_Wifi_BLE_SDK/GD32VW55x_RELEASE_V1.0.2/MSDK/wpa_supplicant/src/rsn_supp\wpa_i.h **** 
  22:C:/Users/stapi/OneDrive/Desktop/GD32VW553/V1_MQTT_OK/GD32VW55X_Wifi_BLE_SDK/GD32VW55x_RELEASE_V1.0.2/MSDK/wpa_supplicant/src/rsn_supp\wpa_i.h **** /**
  23:C:/Users/stapi/OneDrive/Desktop/GD32VW553/V1_MQTT_OK/GD32VW55X_Wifi_BLE_SDK/GD32VW55x_RELEASE_V1.0.2/MSDK/wpa_supplicant/src/rsn_supp\wpa_i.h ****  * struct wpa_sm - Internal WPA state machine data
  24:C:/Users/stapi/OneDrive/Desktop/GD32VW553/V1_MQTT_OK/GD32VW55X_Wifi_BLE_SDK/GD32VW55x_RELEASE_V1.0.2/MSDK/wpa_supplicant/src/rsn_supp\wpa_i.h ****  */
  25:C:/Users/stapi/OneDrive/Desktop/GD32VW553/V1_MQTT_OK/GD32VW55X_Wifi_BLE_SDK/GD32VW55x_RELEASE_V1.0.2/MSDK/wpa_supplicant/src/rsn_supp\wpa_i.h **** struct wpa_sm {
  26:C:/Users/stapi/OneDrive/Desktop/GD32VW553/V1_MQTT_OK/GD32VW55X_Wifi_BLE_SDK/GD32VW55x_RELEASE_V1.0.2/MSDK/wpa_supplicant/src/rsn_supp\wpa_i.h **** 	u8 pmk[PMK_LEN_MAX];
  27:C:/Users/stapi/OneDrive/Desktop/GD32VW553/V1_MQTT_OK/GD32VW55X_Wifi_BLE_SDK/GD32VW55x_RELEASE_V1.0.2/MSDK/wpa_supplicant/src/rsn_supp\wpa_i.h **** 	size_t pmk_len;
  28:C:/Users/stapi/OneDrive/Desktop/GD32VW553/V1_MQTT_OK/GD32VW55X_Wifi_BLE_SDK/GD32VW55x_RELEASE_V1.0.2/MSDK/wpa_supplicant/src/rsn_supp\wpa_i.h **** 	struct wpa_ptk ptk, tptk;
  29:C:/Users/stapi/OneDrive/Desktop/GD32VW553/V1_MQTT_OK/GD32VW55X_Wifi_BLE_SDK/GD32VW55x_RELEASE_V1.0.2/MSDK/wpa_supplicant/src/rsn_supp\wpa_i.h **** 	int ptk_set, tptk_set;
  30:C:/Users/stapi/OneDrive/Desktop/GD32VW553/V1_MQTT_OK/GD32VW55X_Wifi_BLE_SDK/GD32VW55x_RELEASE_V1.0.2/MSDK/wpa_supplicant/src/rsn_supp\wpa_i.h **** 	unsigned int msg_3_of_4_ok:1;
  31:C:/Users/stapi/OneDrive/Desktop/GD32VW553/V1_MQTT_OK/GD32VW55X_Wifi_BLE_SDK/GD32VW55x_RELEASE_V1.0.2/MSDK/wpa_supplicant/src/rsn_supp\wpa_i.h **** 	u8 snonce[WPA_NONCE_LEN];
  32:C:/Users/stapi/OneDrive/Desktop/GD32VW553/V1_MQTT_OK/GD32VW55X_Wifi_BLE_SDK/GD32VW55x_RELEASE_V1.0.2/MSDK/wpa_supplicant/src/rsn_supp\wpa_i.h **** 	u8 anonce[WPA_NONCE_LEN]; /* ANonce from the last 1/4 msg */
  33:C:/Users/stapi/OneDrive/Desktop/GD32VW553/V1_MQTT_OK/GD32VW55X_Wifi_BLE_SDK/GD32VW55x_RELEASE_V1.0.2/MSDK/wpa_supplicant/src/rsn_supp\wpa_i.h **** 	int renew_snonce;
  34:C:/Users/stapi/OneDrive/Desktop/GD32VW553/V1_MQTT_OK/GD32VW55X_Wifi_BLE_SDK/GD32VW55x_RELEASE_V1.0.2/MSDK/wpa_supplicant/src/rsn_supp\wpa_i.h **** 	u8 rx_replay_counter[WPA_REPLAY_COUNTER_LEN];
  35:C:/Users/stapi/OneDrive/Desktop/GD32VW553/V1_MQTT_OK/GD32VW55X_Wifi_BLE_SDK/GD32VW55x_RELEASE_V1.0.2/MSDK/wpa_supplicant/src/rsn_supp\wpa_i.h **** 	int rx_replay_counter_set;
  36:C:/Users/stapi/OneDrive/Desktop/GD32VW553/V1_MQTT_OK/GD32VW55X_Wifi_BLE_SDK/GD32VW55x_RELEASE_V1.0.2/MSDK/wpa_supplicant/src/rsn_supp\wpa_i.h **** 	u8 request_counter[WPA_REPLAY_COUNTER_LEN];
  37:C:/Users/stapi/OneDrive/Desktop/GD32VW553/V1_MQTT_OK/GD32VW55X_Wifi_BLE_SDK/GD32VW55x_RELEASE_V1.0.2/MSDK/wpa_supplicant/src/rsn_supp\wpa_i.h **** 	struct wpa_gtk gtk;
  38:C:/Users/stapi/OneDrive/Desktop/GD32VW553/V1_MQTT_OK/GD32VW55X_Wifi_BLE_SDK/GD32VW55x_RELEASE_V1.0.2/MSDK/wpa_supplicant/src/rsn_supp\wpa_i.h **** 	struct wpa_gtk gtk_wnm_sleep;
  39:C:/Users/stapi/OneDrive/Desktop/GD32VW553/V1_MQTT_OK/GD32VW55X_Wifi_BLE_SDK/GD32VW55x_RELEASE_V1.0.2/MSDK/wpa_supplicant/src/rsn_supp\wpa_i.h **** 	struct wpa_igtk igtk;
  40:C:/Users/stapi/OneDrive/Desktop/GD32VW553/V1_MQTT_OK/GD32VW55X_Wifi_BLE_SDK/GD32VW55x_RELEASE_V1.0.2/MSDK/wpa_supplicant/src/rsn_supp\wpa_i.h **** 	struct wpa_igtk igtk_wnm_sleep;
  41:C:/Users/stapi/OneDrive/Desktop/GD32VW553/V1_MQTT_OK/GD32VW55X_Wifi_BLE_SDK/GD32VW55x_RELEASE_V1.0.2/MSDK/wpa_supplicant/src/rsn_supp\wpa_i.h **** 	struct wpa_bigtk bigtk;
  42:C:/Users/stapi/OneDrive/Desktop/GD32VW553/V1_MQTT_OK/GD32VW55X_Wifi_BLE_SDK/GD32VW55x_RELEASE_V1.0.2/MSDK/wpa_supplicant/src/rsn_supp\wpa_i.h **** 	struct wpa_bigtk bigtk_wnm_sleep;
  43:C:/Users/stapi/OneDrive/Desktop/GD32VW553/V1_MQTT_OK/GD32VW55X_Wifi_BLE_SDK/GD32VW55x_RELEASE_V1.0.2/MSDK/wpa_supplicant/src/rsn_supp\wpa_i.h **** 
  44:C:/Users/stapi/OneDrive/Desktop/GD32VW553/V1_MQTT_OK/GD32VW55X_Wifi_BLE_SDK/GD32VW55x_RELEASE_V1.0.2/MSDK/wpa_supplicant/src/rsn_supp\wpa_i.h **** 	struct eapol_sm *eapol; /* EAPOL state machine from upper level code */
  45:C:/Users/stapi/OneDrive/Desktop/GD32VW553/V1_MQTT_OK/GD32VW55X_Wifi_BLE_SDK/GD32VW55x_RELEASE_V1.0.2/MSDK/wpa_supplicant/src/rsn_supp\wpa_i.h **** 
  46:C:/Users/stapi/OneDrive/Desktop/GD32VW553/V1_MQTT_OK/GD32VW55X_Wifi_BLE_SDK/GD32VW55x_RELEASE_V1.0.2/MSDK/wpa_supplicant/src/rsn_supp\wpa_i.h **** 	struct rsn_pmksa_cache *pmksa; /* PMKSA cache */
  47:C:/Users/stapi/OneDrive/Desktop/GD32VW553/V1_MQTT_OK/GD32VW55X_Wifi_BLE_SDK/GD32VW55x_RELEASE_V1.0.2/MSDK/wpa_supplicant/src/rsn_supp\wpa_i.h **** 	struct rsn_pmksa_cache_entry *cur_pmksa; /* current PMKSA entry */
  48:C:/Users/stapi/OneDrive/Desktop/GD32VW553/V1_MQTT_OK/GD32VW55X_Wifi_BLE_SDK/GD32VW55x_RELEASE_V1.0.2/MSDK/wpa_supplicant/src/rsn_supp\wpa_i.h **** 	struct dl_list pmksa_candidates;
  49:C:/Users/stapi/OneDrive/Desktop/GD32VW553/V1_MQTT_OK/GD32VW55X_Wifi_BLE_SDK/GD32VW55x_RELEASE_V1.0.2/MSDK/wpa_supplicant/src/rsn_supp\wpa_i.h **** 
  50:C:/Users/stapi/OneDrive/Desktop/GD32VW553/V1_MQTT_OK/GD32VW55X_Wifi_BLE_SDK/GD32VW55x_RELEASE_V1.0.2/MSDK/wpa_supplicant/src/rsn_supp\wpa_i.h **** 	struct l2_packet_data *l2_preauth;
  51:C:/Users/stapi/OneDrive/Desktop/GD32VW553/V1_MQTT_OK/GD32VW55X_Wifi_BLE_SDK/GD32VW55x_RELEASE_V1.0.2/MSDK/wpa_supplicant/src/rsn_supp\wpa_i.h **** 	struct l2_packet_data *l2_preauth_br;
  52:C:/Users/stapi/OneDrive/Desktop/GD32VW553/V1_MQTT_OK/GD32VW55X_Wifi_BLE_SDK/GD32VW55x_RELEASE_V1.0.2/MSDK/wpa_supplicant/src/rsn_supp\wpa_i.h **** 	struct l2_packet_data *l2_tdls;
  53:C:/Users/stapi/OneDrive/Desktop/GD32VW553/V1_MQTT_OK/GD32VW55X_Wifi_BLE_SDK/GD32VW55x_RELEASE_V1.0.2/MSDK/wpa_supplicant/src/rsn_supp\wpa_i.h **** 	u8 preauth_bssid[ETH_ALEN]; /* current RSN pre-auth peer or
  54:C:/Users/stapi/OneDrive/Desktop/GD32VW553/V1_MQTT_OK/GD32VW55X_Wifi_BLE_SDK/GD32VW55x_RELEASE_V1.0.2/MSDK/wpa_supplicant/src/rsn_supp\wpa_i.h **** 				     * 00:00:00:00:00:00 if no pre-auth is
  55:C:/Users/stapi/OneDrive/Desktop/GD32VW553/V1_MQTT_OK/GD32VW55X_Wifi_BLE_SDK/GD32VW55x_RELEASE_V1.0.2/MSDK/wpa_supplicant/src/rsn_supp\wpa_i.h **** 				     * in progress */
  56:C:/Users/stapi/OneDrive/Desktop/GD32VW553/V1_MQTT_OK/GD32VW55X_Wifi_BLE_SDK/GD32VW55x_RELEASE_V1.0.2/MSDK/wpa_supplicant/src/rsn_supp\wpa_i.h **** 	struct eapol_sm *preauth_eapol;
  57:C:/Users/stapi/OneDrive/Desktop/GD32VW553/V1_MQTT_OK/GD32VW55X_Wifi_BLE_SDK/GD32VW55x_RELEASE_V1.0.2/MSDK/wpa_supplicant/src/rsn_supp\wpa_i.h **** 
  58:C:/Users/stapi/OneDrive/Desktop/GD32VW553/V1_MQTT_OK/GD32VW55X_Wifi_BLE_SDK/GD32VW55x_RELEASE_V1.0.2/MSDK/wpa_supplicant/src/rsn_supp\wpa_i.h **** 	struct wpa_sm_ctx *ctx;
  59:C:/Users/stapi/OneDrive/Desktop/GD32VW553/V1_MQTT_OK/GD32VW55X_Wifi_BLE_SDK/GD32VW55x_RELEASE_V1.0.2/MSDK/wpa_supplicant/src/rsn_supp\wpa_i.h **** 
  60:C:/Users/stapi/OneDrive/Desktop/GD32VW553/V1_MQTT_OK/GD32VW55X_Wifi_BLE_SDK/GD32VW55x_RELEASE_V1.0.2/MSDK/wpa_supplicant/src/rsn_supp\wpa_i.h **** 	void *scard_ctx; /* context for smartcard callbacks */
  61:C:/Users/stapi/OneDrive/Desktop/GD32VW553/V1_MQTT_OK/GD32VW55X_Wifi_BLE_SDK/GD32VW55x_RELEASE_V1.0.2/MSDK/wpa_supplicant/src/rsn_supp\wpa_i.h **** 	int fast_reauth; /* whether EAP fast re-authentication is enabled */
  62:C:/Users/stapi/OneDrive/Desktop/GD32VW553/V1_MQTT_OK/GD32VW55X_Wifi_BLE_SDK/GD32VW55x_RELEASE_V1.0.2/MSDK/wpa_supplicant/src/rsn_supp\wpa_i.h **** 
  63:C:/Users/stapi/OneDrive/Desktop/GD32VW553/V1_MQTT_OK/GD32VW55X_Wifi_BLE_SDK/GD32VW55x_RELEASE_V1.0.2/MSDK/wpa_supplicant/src/rsn_supp\wpa_i.h **** 	void *network_ctx;
  64:C:/Users/stapi/OneDrive/Desktop/GD32VW553/V1_MQTT_OK/GD32VW55X_Wifi_BLE_SDK/GD32VW55x_RELEASE_V1.0.2/MSDK/wpa_supplicant/src/rsn_supp\wpa_i.h **** 	int allowed_pairwise_cipher; /* bitfield of WPA_CIPHER_* */
  65:C:/Users/stapi/OneDrive/Desktop/GD32VW553/V1_MQTT_OK/GD32VW55X_Wifi_BLE_SDK/GD32VW55x_RELEASE_V1.0.2/MSDK/wpa_supplicant/src/rsn_supp\wpa_i.h **** 	int proactive_key_caching;
  66:C:/Users/stapi/OneDrive/Desktop/GD32VW553/V1_MQTT_OK/GD32VW55X_Wifi_BLE_SDK/GD32VW55x_RELEASE_V1.0.2/MSDK/wpa_supplicant/src/rsn_supp\wpa_i.h **** 	int eap_workaround;
  67:C:/Users/stapi/OneDrive/Desktop/GD32VW553/V1_MQTT_OK/GD32VW55X_Wifi_BLE_SDK/GD32VW55x_RELEASE_V1.0.2/MSDK/wpa_supplicant/src/rsn_supp\wpa_i.h **** 	void *eap_conf_ctx;
  68:C:/Users/stapi/OneDrive/Desktop/GD32VW553/V1_MQTT_OK/GD32VW55X_Wifi_BLE_SDK/GD32VW55x_RELEASE_V1.0.2/MSDK/wpa_supplicant/src/rsn_supp\wpa_i.h **** 	u8 ssid[32];
  69:C:/Users/stapi/OneDrive/Desktop/GD32VW553/V1_MQTT_OK/GD32VW55X_Wifi_BLE_SDK/GD32VW55x_RELEASE_V1.0.2/MSDK/wpa_supplicant/src/rsn_supp\wpa_i.h **** 	size_t ssid_len;
  70:C:/Users/stapi/OneDrive/Desktop/GD32VW553/V1_MQTT_OK/GD32VW55X_Wifi_BLE_SDK/GD32VW55x_RELEASE_V1.0.2/MSDK/wpa_supplicant/src/rsn_supp\wpa_i.h **** 	int wpa_ptk_rekey;
  71:C:/Users/stapi/OneDrive/Desktop/GD32VW553/V1_MQTT_OK/GD32VW55X_Wifi_BLE_SDK/GD32VW55x_RELEASE_V1.0.2/MSDK/wpa_supplicant/src/rsn_supp\wpa_i.h **** 	int wpa_deny_ptk0_rekey:1;
  72:C:/Users/stapi/OneDrive/Desktop/GD32VW553/V1_MQTT_OK/GD32VW55X_Wifi_BLE_SDK/GD32VW55x_RELEASE_V1.0.2/MSDK/wpa_supplicant/src/rsn_supp\wpa_i.h **** 	int p2p;
  73:C:/Users/stapi/OneDrive/Desktop/GD32VW553/V1_MQTT_OK/GD32VW55X_Wifi_BLE_SDK/GD32VW55x_RELEASE_V1.0.2/MSDK/wpa_supplicant/src/rsn_supp\wpa_i.h **** 	int wpa_rsc_relaxation;
  74:C:/Users/stapi/OneDrive/Desktop/GD32VW553/V1_MQTT_OK/GD32VW55X_Wifi_BLE_SDK/GD32VW55x_RELEASE_V1.0.2/MSDK/wpa_supplicant/src/rsn_supp\wpa_i.h **** 	int owe_ptk_workaround;
  75:C:/Users/stapi/OneDrive/Desktop/GD32VW553/V1_MQTT_OK/GD32VW55X_Wifi_BLE_SDK/GD32VW55x_RELEASE_V1.0.2/MSDK/wpa_supplicant/src/rsn_supp\wpa_i.h **** 	int beacon_prot;
  76:C:/Users/stapi/OneDrive/Desktop/GD32VW553/V1_MQTT_OK/GD32VW55X_Wifi_BLE_SDK/GD32VW55x_RELEASE_V1.0.2/MSDK/wpa_supplicant/src/rsn_supp\wpa_i.h **** 	int ext_key_id; /* whether Extended Key ID is enabled */
  77:C:/Users/stapi/OneDrive/Desktop/GD32VW553/V1_MQTT_OK/GD32VW55X_Wifi_BLE_SDK/GD32VW55x_RELEASE_V1.0.2/MSDK/wpa_supplicant/src/rsn_supp\wpa_i.h **** 	int use_ext_key_id; /* whether Extended Key ID has been detected
  78:C:/Users/stapi/OneDrive/Desktop/GD32VW553/V1_MQTT_OK/GD32VW55X_Wifi_BLE_SDK/GD32VW55x_RELEASE_V1.0.2/MSDK/wpa_supplicant/src/rsn_supp\wpa_i.h **** 			     * to be used */
  79:C:/Users/stapi/OneDrive/Desktop/GD32VW553/V1_MQTT_OK/GD32VW55X_Wifi_BLE_SDK/GD32VW55x_RELEASE_V1.0.2/MSDK/wpa_supplicant/src/rsn_supp\wpa_i.h **** 	int keyidx_active; /* Key ID for the active TK */
  80:C:/Users/stapi/OneDrive/Desktop/GD32VW553/V1_MQTT_OK/GD32VW55X_Wifi_BLE_SDK/GD32VW55x_RELEASE_V1.0.2/MSDK/wpa_supplicant/src/rsn_supp\wpa_i.h **** 
  81:C:/Users/stapi/OneDrive/Desktop/GD32VW553/V1_MQTT_OK/GD32VW55X_Wifi_BLE_SDK/GD32VW55x_RELEASE_V1.0.2/MSDK/wpa_supplicant/src/rsn_supp\wpa_i.h **** 	/*
  82:C:/Users/stapi/OneDrive/Desktop/GD32VW553/V1_MQTT_OK/GD32VW55X_Wifi_BLE_SDK/GD32VW55x_RELEASE_V1.0.2/MSDK/wpa_supplicant/src/rsn_supp\wpa_i.h **** 	 * If set Key Derivation Key should be derived as part of PMK to
  83:C:/Users/stapi/OneDrive/Desktop/GD32VW553/V1_MQTT_OK/GD32VW55X_Wifi_BLE_SDK/GD32VW55x_RELEASE_V1.0.2/MSDK/wpa_supplicant/src/rsn_supp\wpa_i.h **** 	 * PTK derivation regardless of advertised capabilities.
  84:C:/Users/stapi/OneDrive/Desktop/GD32VW553/V1_MQTT_OK/GD32VW55X_Wifi_BLE_SDK/GD32VW55x_RELEASE_V1.0.2/MSDK/wpa_supplicant/src/rsn_supp\wpa_i.h **** 	 */
  85:C:/Users/stapi/OneDrive/Desktop/GD32VW553/V1_MQTT_OK/GD32VW55X_Wifi_BLE_SDK/GD32VW55x_RELEASE_V1.0.2/MSDK/wpa_supplicant/src/rsn_supp\wpa_i.h **** 	bool force_kdk_derivation;
  86:C:/Users/stapi/OneDrive/Desktop/GD32VW553/V1_MQTT_OK/GD32VW55X_Wifi_BLE_SDK/GD32VW55x_RELEASE_V1.0.2/MSDK/wpa_supplicant/src/rsn_supp\wpa_i.h **** 
  87:C:/Users/stapi/OneDrive/Desktop/GD32VW553/V1_MQTT_OK/GD32VW55X_Wifi_BLE_SDK/GD32VW55x_RELEASE_V1.0.2/MSDK/wpa_supplicant/src/rsn_supp\wpa_i.h **** 	u8 own_addr[ETH_ALEN];
  88:C:/Users/stapi/OneDrive/Desktop/GD32VW553/V1_MQTT_OK/GD32VW55X_Wifi_BLE_SDK/GD32VW55x_RELEASE_V1.0.2/MSDK/wpa_supplicant/src/rsn_supp\wpa_i.h **** 	const char *ifname;
  89:C:/Users/stapi/OneDrive/Desktop/GD32VW553/V1_MQTT_OK/GD32VW55X_Wifi_BLE_SDK/GD32VW55x_RELEASE_V1.0.2/MSDK/wpa_supplicant/src/rsn_supp\wpa_i.h **** 	const char *bridge_ifname;
  90:C:/Users/stapi/OneDrive/Desktop/GD32VW553/V1_MQTT_OK/GD32VW55X_Wifi_BLE_SDK/GD32VW55x_RELEASE_V1.0.2/MSDK/wpa_supplicant/src/rsn_supp\wpa_i.h **** 	u8 bssid[ETH_ALEN];
  91:C:/Users/stapi/OneDrive/Desktop/GD32VW553/V1_MQTT_OK/GD32VW55X_Wifi_BLE_SDK/GD32VW55x_RELEASE_V1.0.2/MSDK/wpa_supplicant/src/rsn_supp\wpa_i.h **** 
  92:C:/Users/stapi/OneDrive/Desktop/GD32VW553/V1_MQTT_OK/GD32VW55X_Wifi_BLE_SDK/GD32VW55x_RELEASE_V1.0.2/MSDK/wpa_supplicant/src/rsn_supp\wpa_i.h **** 	unsigned int dot11RSNAConfigPMKLifetime;
  93:C:/Users/stapi/OneDrive/Desktop/GD32VW553/V1_MQTT_OK/GD32VW55X_Wifi_BLE_SDK/GD32VW55x_RELEASE_V1.0.2/MSDK/wpa_supplicant/src/rsn_supp\wpa_i.h **** 	unsigned int dot11RSNAConfigPMKReauthThreshold;
  94:C:/Users/stapi/OneDrive/Desktop/GD32VW553/V1_MQTT_OK/GD32VW55X_Wifi_BLE_SDK/GD32VW55x_RELEASE_V1.0.2/MSDK/wpa_supplicant/src/rsn_supp\wpa_i.h **** 	unsigned int dot11RSNAConfigSATimeout;
  95:C:/Users/stapi/OneDrive/Desktop/GD32VW553/V1_MQTT_OK/GD32VW55X_Wifi_BLE_SDK/GD32VW55x_RELEASE_V1.0.2/MSDK/wpa_supplicant/src/rsn_supp\wpa_i.h **** 
  96:C:/Users/stapi/OneDrive/Desktop/GD32VW553/V1_MQTT_OK/GD32VW55X_Wifi_BLE_SDK/GD32VW55x_RELEASE_V1.0.2/MSDK/wpa_supplicant/src/rsn_supp\wpa_i.h **** 	unsigned int dot11RSNA4WayHandshakeFailures;
  97:C:/Users/stapi/OneDrive/Desktop/GD32VW553/V1_MQTT_OK/GD32VW55X_Wifi_BLE_SDK/GD32VW55x_RELEASE_V1.0.2/MSDK/wpa_supplicant/src/rsn_supp\wpa_i.h **** 
  98:C:/Users/stapi/OneDrive/Desktop/GD32VW553/V1_MQTT_OK/GD32VW55X_Wifi_BLE_SDK/GD32VW55x_RELEASE_V1.0.2/MSDK/wpa_supplicant/src/rsn_supp\wpa_i.h **** 	/* Selected configuration (based on Beacon/ProbeResp WPA IE) */
  99:C:/Users/stapi/OneDrive/Desktop/GD32VW553/V1_MQTT_OK/GD32VW55X_Wifi_BLE_SDK/GD32VW55x_RELEASE_V1.0.2/MSDK/wpa_supplicant/src/rsn_supp\wpa_i.h **** 	unsigned int proto;
 100:C:/Users/stapi/OneDrive/Desktop/GD32VW553/V1_MQTT_OK/GD32VW55X_Wifi_BLE_SDK/GD32VW55x_RELEASE_V1.0.2/MSDK/wpa_supplicant/src/rsn_supp\wpa_i.h **** 	unsigned int pairwise_cipher;
 101:C:/Users/stapi/OneDrive/Desktop/GD32VW553/V1_MQTT_OK/GD32VW55X_Wifi_BLE_SDK/GD32VW55x_RELEASE_V1.0.2/MSDK/wpa_supplicant/src/rsn_supp\wpa_i.h **** 	unsigned int group_cipher;
 102:C:/Users/stapi/OneDrive/Desktop/GD32VW553/V1_MQTT_OK/GD32VW55X_Wifi_BLE_SDK/GD32VW55x_RELEASE_V1.0.2/MSDK/wpa_supplicant/src/rsn_supp\wpa_i.h **** 	unsigned int key_mgmt;
 103:C:/Users/stapi/OneDrive/Desktop/GD32VW553/V1_MQTT_OK/GD32VW55X_Wifi_BLE_SDK/GD32VW55x_RELEASE_V1.0.2/MSDK/wpa_supplicant/src/rsn_supp\wpa_i.h **** 	unsigned int mgmt_group_cipher;
 104:C:/Users/stapi/OneDrive/Desktop/GD32VW553/V1_MQTT_OK/GD32VW55X_Wifi_BLE_SDK/GD32VW55x_RELEASE_V1.0.2/MSDK/wpa_supplicant/src/rsn_supp\wpa_i.h **** 
 105:C:/Users/stapi/OneDrive/Desktop/GD32VW553/V1_MQTT_OK/GD32VW55X_Wifi_BLE_SDK/GD32VW55x_RELEASE_V1.0.2/MSDK/wpa_supplicant/src/rsn_supp\wpa_i.h **** 	int rsn_enabled; /* Whether RSN is enabled in configuration */
 106:C:/Users/stapi/OneDrive/Desktop/GD32VW553/V1_MQTT_OK/GD32VW55X_Wifi_BLE_SDK/GD32VW55x_RELEASE_V1.0.2/MSDK/wpa_supplicant/src/rsn_supp\wpa_i.h **** 	int mfp; /* 0 = disabled, 1 = optional, 2 = mandatory */
 107:C:/Users/stapi/OneDrive/Desktop/GD32VW553/V1_MQTT_OK/GD32VW55X_Wifi_BLE_SDK/GD32VW55x_RELEASE_V1.0.2/MSDK/wpa_supplicant/src/rsn_supp\wpa_i.h **** 	int ocv; /* Operating Channel Validation */
 108:C:/Users/stapi/OneDrive/Desktop/GD32VW553/V1_MQTT_OK/GD32VW55X_Wifi_BLE_SDK/GD32VW55x_RELEASE_V1.0.2/MSDK/wpa_supplicant/src/rsn_supp\wpa_i.h **** 	int sae_pwe; /* SAE PWE generation options */
 109:C:/Users/stapi/OneDrive/Desktop/GD32VW553/V1_MQTT_OK/GD32VW55X_Wifi_BLE_SDK/GD32VW55x_RELEASE_V1.0.2/MSDK/wpa_supplicant/src/rsn_supp\wpa_i.h **** 
 110:C:/Users/stapi/OneDrive/Desktop/GD32VW553/V1_MQTT_OK/GD32VW55X_Wifi_BLE_SDK/GD32VW55x_RELEASE_V1.0.2/MSDK/wpa_supplicant/src/rsn_supp\wpa_i.h **** 	unsigned int sae_pk:1; /* whether SAE-PK is used */
 111:C:/Users/stapi/OneDrive/Desktop/GD32VW553/V1_MQTT_OK/GD32VW55X_Wifi_BLE_SDK/GD32VW55x_RELEASE_V1.0.2/MSDK/wpa_supplicant/src/rsn_supp\wpa_i.h **** 	unsigned int secure_ltf:1;
 112:C:/Users/stapi/OneDrive/Desktop/GD32VW553/V1_MQTT_OK/GD32VW55X_Wifi_BLE_SDK/GD32VW55x_RELEASE_V1.0.2/MSDK/wpa_supplicant/src/rsn_supp\wpa_i.h **** 	unsigned int secure_rtt:1;
 113:C:/Users/stapi/OneDrive/Desktop/GD32VW553/V1_MQTT_OK/GD32VW55X_Wifi_BLE_SDK/GD32VW55x_RELEASE_V1.0.2/MSDK/wpa_supplicant/src/rsn_supp\wpa_i.h **** 	unsigned int prot_range_neg:1;
 114:C:/Users/stapi/OneDrive/Desktop/GD32VW553/V1_MQTT_OK/GD32VW55X_Wifi_BLE_SDK/GD32VW55x_RELEASE_V1.0.2/MSDK/wpa_supplicant/src/rsn_supp\wpa_i.h **** 
 115:C:/Users/stapi/OneDrive/Desktop/GD32VW553/V1_MQTT_OK/GD32VW55X_Wifi_BLE_SDK/GD32VW55x_RELEASE_V1.0.2/MSDK/wpa_supplicant/src/rsn_supp\wpa_i.h **** 	u8 *assoc_wpa_ie; /* Own WPA/RSN IE from (Re)AssocReq */
 116:C:/Users/stapi/OneDrive/Desktop/GD32VW553/V1_MQTT_OK/GD32VW55X_Wifi_BLE_SDK/GD32VW55x_RELEASE_V1.0.2/MSDK/wpa_supplicant/src/rsn_supp\wpa_i.h **** 	size_t assoc_wpa_ie_len;
 117:C:/Users/stapi/OneDrive/Desktop/GD32VW553/V1_MQTT_OK/GD32VW55X_Wifi_BLE_SDK/GD32VW55x_RELEASE_V1.0.2/MSDK/wpa_supplicant/src/rsn_supp\wpa_i.h **** 	u8 *assoc_rsnxe; /* Own RSNXE from (Re)AssocReq */
 118:C:/Users/stapi/OneDrive/Desktop/GD32VW553/V1_MQTT_OK/GD32VW55X_Wifi_BLE_SDK/GD32VW55x_RELEASE_V1.0.2/MSDK/wpa_supplicant/src/rsn_supp\wpa_i.h **** 	size_t assoc_rsnxe_len;
 119:C:/Users/stapi/OneDrive/Desktop/GD32VW553/V1_MQTT_OK/GD32VW55X_Wifi_BLE_SDK/GD32VW55x_RELEASE_V1.0.2/MSDK/wpa_supplicant/src/rsn_supp\wpa_i.h **** 	u8 *ap_wpa_ie, *ap_rsn_ie, *ap_rsnxe;
 120:C:/Users/stapi/OneDrive/Desktop/GD32VW553/V1_MQTT_OK/GD32VW55X_Wifi_BLE_SDK/GD32VW55x_RELEASE_V1.0.2/MSDK/wpa_supplicant/src/rsn_supp\wpa_i.h **** 	size_t ap_wpa_ie_len, ap_rsn_ie_len, ap_rsnxe_len;
 121:C:/Users/stapi/OneDrive/Desktop/GD32VW553/V1_MQTT_OK/GD32VW55X_Wifi_BLE_SDK/GD32VW55x_RELEASE_V1.0.2/MSDK/wpa_supplicant/src/rsn_supp\wpa_i.h **** 
 122:C:/Users/stapi/OneDrive/Desktop/GD32VW553/V1_MQTT_OK/GD32VW55X_Wifi_BLE_SDK/GD32VW55x_RELEASE_V1.0.2/MSDK/wpa_supplicant/src/rsn_supp\wpa_i.h **** #ifdef CONFIG_TDLS
 123:C:/Users/stapi/OneDrive/Desktop/GD32VW553/V1_MQTT_OK/GD32VW55X_Wifi_BLE_SDK/GD32VW55x_RELEASE_V1.0.2/MSDK/wpa_supplicant/src/rsn_supp\wpa_i.h **** 	struct wpa_tdls_peer *tdls;
 124:C:/Users/stapi/OneDrive/Desktop/GD32VW553/V1_MQTT_OK/GD32VW55X_Wifi_BLE_SDK/GD32VW55x_RELEASE_V1.0.2/MSDK/wpa_supplicant/src/rsn_supp\wpa_i.h **** 	int tdls_prohibited;
 125:C:/Users/stapi/OneDrive/Desktop/GD32VW553/V1_MQTT_OK/GD32VW55X_Wifi_BLE_SDK/GD32VW55x_RELEASE_V1.0.2/MSDK/wpa_supplicant/src/rsn_supp\wpa_i.h **** 	int tdls_chan_switch_prohibited;
 126:C:/Users/stapi/OneDrive/Desktop/GD32VW553/V1_MQTT_OK/GD32VW55X_Wifi_BLE_SDK/GD32VW55x_RELEASE_V1.0.2/MSDK/wpa_supplicant/src/rsn_supp\wpa_i.h **** 	int tdls_disabled;
 127:C:/Users/stapi/OneDrive/Desktop/GD32VW553/V1_MQTT_OK/GD32VW55X_Wifi_BLE_SDK/GD32VW55x_RELEASE_V1.0.2/MSDK/wpa_supplicant/src/rsn_supp\wpa_i.h **** 
 128:C:/Users/stapi/OneDrive/Desktop/GD32VW553/V1_MQTT_OK/GD32VW55X_Wifi_BLE_SDK/GD32VW55x_RELEASE_V1.0.2/MSDK/wpa_supplicant/src/rsn_supp\wpa_i.h **** 	/* The driver supports TDLS */
 129:C:/Users/stapi/OneDrive/Desktop/GD32VW553/V1_MQTT_OK/GD32VW55X_Wifi_BLE_SDK/GD32VW55x_RELEASE_V1.0.2/MSDK/wpa_supplicant/src/rsn_supp\wpa_i.h **** 	int tdls_supported;
 130:C:/Users/stapi/OneDrive/Desktop/GD32VW553/V1_MQTT_OK/GD32VW55X_Wifi_BLE_SDK/GD32VW55x_RELEASE_V1.0.2/MSDK/wpa_supplicant/src/rsn_supp\wpa_i.h **** 
 131:C:/Users/stapi/OneDrive/Desktop/GD32VW553/V1_MQTT_OK/GD32VW55X_Wifi_BLE_SDK/GD32VW55x_RELEASE_V1.0.2/MSDK/wpa_supplicant/src/rsn_supp\wpa_i.h **** 	/*
 132:C:/Users/stapi/OneDrive/Desktop/GD32VW553/V1_MQTT_OK/GD32VW55X_Wifi_BLE_SDK/GD32VW55x_RELEASE_V1.0.2/MSDK/wpa_supplicant/src/rsn_supp\wpa_i.h **** 	 * The driver requires explicit discovery/setup/teardown frames sent
 133:C:/Users/stapi/OneDrive/Desktop/GD32VW553/V1_MQTT_OK/GD32VW55X_Wifi_BLE_SDK/GD32VW55x_RELEASE_V1.0.2/MSDK/wpa_supplicant/src/rsn_supp\wpa_i.h **** 	 * to it via tdls_mgmt.
 134:C:/Users/stapi/OneDrive/Desktop/GD32VW553/V1_MQTT_OK/GD32VW55X_Wifi_BLE_SDK/GD32VW55x_RELEASE_V1.0.2/MSDK/wpa_supplicant/src/rsn_supp\wpa_i.h **** 	 */
 135:C:/Users/stapi/OneDrive/Desktop/GD32VW553/V1_MQTT_OK/GD32VW55X_Wifi_BLE_SDK/GD32VW55x_RELEASE_V1.0.2/MSDK/wpa_supplicant/src/rsn_supp\wpa_i.h **** 	int tdls_external_setup;
 136:C:/Users/stapi/OneDrive/Desktop/GD32VW553/V1_MQTT_OK/GD32VW55X_Wifi_BLE_SDK/GD32VW55x_RELEASE_V1.0.2/MSDK/wpa_supplicant/src/rsn_supp\wpa_i.h **** 
 137:C:/Users/stapi/OneDrive/Desktop/GD32VW553/V1_MQTT_OK/GD32VW55X_Wifi_BLE_SDK/GD32VW55x_RELEASE_V1.0.2/MSDK/wpa_supplicant/src/rsn_supp\wpa_i.h **** 	/* The driver supports TDLS channel switching */
 138:C:/Users/stapi/OneDrive/Desktop/GD32VW553/V1_MQTT_OK/GD32VW55X_Wifi_BLE_SDK/GD32VW55x_RELEASE_V1.0.2/MSDK/wpa_supplicant/src/rsn_supp\wpa_i.h **** 	int tdls_chan_switch;
 139:C:/Users/stapi/OneDrive/Desktop/GD32VW553/V1_MQTT_OK/GD32VW55X_Wifi_BLE_SDK/GD32VW55x_RELEASE_V1.0.2/MSDK/wpa_supplicant/src/rsn_supp\wpa_i.h **** #endif /* CONFIG_TDLS */
 140:C:/Users/stapi/OneDrive/Desktop/GD32VW553/V1_MQTT_OK/GD32VW55X_Wifi_BLE_SDK/GD32VW55x_RELEASE_V1.0.2/MSDK/wpa_supplicant/src/rsn_supp\wpa_i.h **** 
 141:C:/Users/stapi/OneDrive/Desktop/GD32VW553/V1_MQTT_OK/GD32VW55X_Wifi_BLE_SDK/GD32VW55x_RELEASE_V1.0.2/MSDK/wpa_supplicant/src/rsn_supp\wpa_i.h **** #ifdef CONFIG_IEEE80211R
 142:C:/Users/stapi/OneDrive/Desktop/GD32VW553/V1_MQTT_OK/GD32VW55X_Wifi_BLE_SDK/GD32VW55x_RELEASE_V1.0.2/MSDK/wpa_supplicant/src/rsn_supp\wpa_i.h **** 	u8 xxkey[PMK_LEN_MAX]; /* PSK or the second 256 bits of MSK, or the
 143:C:/Users/stapi/OneDrive/Desktop/GD32VW553/V1_MQTT_OK/GD32VW55X_Wifi_BLE_SDK/GD32VW55x_RELEASE_V1.0.2/MSDK/wpa_supplicant/src/rsn_supp\wpa_i.h **** 				* first 384 bits of MSK */
 144:C:/Users/stapi/OneDrive/Desktop/GD32VW553/V1_MQTT_OK/GD32VW55X_Wifi_BLE_SDK/GD32VW55x_RELEASE_V1.0.2/MSDK/wpa_supplicant/src/rsn_supp\wpa_i.h **** 	size_t xxkey_len;
 145:C:/Users/stapi/OneDrive/Desktop/GD32VW553/V1_MQTT_OK/GD32VW55X_Wifi_BLE_SDK/GD32VW55x_RELEASE_V1.0.2/MSDK/wpa_supplicant/src/rsn_supp\wpa_i.h **** 	u8 pmk_r0[PMK_LEN_MAX];
 146:C:/Users/stapi/OneDrive/Desktop/GD32VW553/V1_MQTT_OK/GD32VW55X_Wifi_BLE_SDK/GD32VW55x_RELEASE_V1.0.2/MSDK/wpa_supplicant/src/rsn_supp\wpa_i.h **** 	size_t pmk_r0_len;
 147:C:/Users/stapi/OneDrive/Desktop/GD32VW553/V1_MQTT_OK/GD32VW55X_Wifi_BLE_SDK/GD32VW55x_RELEASE_V1.0.2/MSDK/wpa_supplicant/src/rsn_supp\wpa_i.h **** 	u8 pmk_r0_name[WPA_PMK_NAME_LEN];
 148:C:/Users/stapi/OneDrive/Desktop/GD32VW553/V1_MQTT_OK/GD32VW55X_Wifi_BLE_SDK/GD32VW55x_RELEASE_V1.0.2/MSDK/wpa_supplicant/src/rsn_supp\wpa_i.h **** 	u8 pmk_r1[PMK_LEN_MAX];
 149:C:/Users/stapi/OneDrive/Desktop/GD32VW553/V1_MQTT_OK/GD32VW55X_Wifi_BLE_SDK/GD32VW55x_RELEASE_V1.0.2/MSDK/wpa_supplicant/src/rsn_supp\wpa_i.h **** 	size_t pmk_r1_len;
 150:C:/Users/stapi/OneDrive/Desktop/GD32VW553/V1_MQTT_OK/GD32VW55X_Wifi_BLE_SDK/GD32VW55x_RELEASE_V1.0.2/MSDK/wpa_supplicant/src/rsn_supp\wpa_i.h **** 	u8 pmk_r1_name[WPA_PMK_NAME_LEN];
 151:C:/Users/stapi/OneDrive/Desktop/GD32VW553/V1_MQTT_OK/GD32VW55X_Wifi_BLE_SDK/GD32VW55x_RELEASE_V1.0.2/MSDK/wpa_supplicant/src/rsn_supp\wpa_i.h **** 	u8 mobility_domain[MOBILITY_DOMAIN_ID_LEN];
 152:C:/Users/stapi/OneDrive/Desktop/GD32VW553/V1_MQTT_OK/GD32VW55X_Wifi_BLE_SDK/GD32VW55x_RELEASE_V1.0.2/MSDK/wpa_supplicant/src/rsn_supp\wpa_i.h **** 	u8 r0kh_id[FT_R0KH_ID_MAX_LEN];
 153:C:/Users/stapi/OneDrive/Desktop/GD32VW553/V1_MQTT_OK/GD32VW55X_Wifi_BLE_SDK/GD32VW55x_RELEASE_V1.0.2/MSDK/wpa_supplicant/src/rsn_supp\wpa_i.h **** 	size_t r0kh_id_len;
 154:C:/Users/stapi/OneDrive/Desktop/GD32VW553/V1_MQTT_OK/GD32VW55X_Wifi_BLE_SDK/GD32VW55x_RELEASE_V1.0.2/MSDK/wpa_supplicant/src/rsn_supp\wpa_i.h **** 	u8 r1kh_id[FT_R1KH_ID_LEN];
 155:C:/Users/stapi/OneDrive/Desktop/GD32VW553/V1_MQTT_OK/GD32VW55X_Wifi_BLE_SDK/GD32VW55x_RELEASE_V1.0.2/MSDK/wpa_supplicant/src/rsn_supp\wpa_i.h **** 	unsigned int ft_completed:1;
 156:C:/Users/stapi/OneDrive/Desktop/GD32VW553/V1_MQTT_OK/GD32VW55X_Wifi_BLE_SDK/GD32VW55x_RELEASE_V1.0.2/MSDK/wpa_supplicant/src/rsn_supp\wpa_i.h **** 	unsigned int ft_reassoc_completed:1;
 157:C:/Users/stapi/OneDrive/Desktop/GD32VW553/V1_MQTT_OK/GD32VW55X_Wifi_BLE_SDK/GD32VW55x_RELEASE_V1.0.2/MSDK/wpa_supplicant/src/rsn_supp\wpa_i.h **** 	unsigned int ft_protocol:1;
 158:C:/Users/stapi/OneDrive/Desktop/GD32VW553/V1_MQTT_OK/GD32VW55X_Wifi_BLE_SDK/GD32VW55x_RELEASE_V1.0.2/MSDK/wpa_supplicant/src/rsn_supp\wpa_i.h **** 	int over_the_ds_in_progress;
 159:C:/Users/stapi/OneDrive/Desktop/GD32VW553/V1_MQTT_OK/GD32VW55X_Wifi_BLE_SDK/GD32VW55x_RELEASE_V1.0.2/MSDK/wpa_supplicant/src/rsn_supp\wpa_i.h **** 	u8 target_ap[ETH_ALEN]; /* over-the-DS target AP */
 160:C:/Users/stapi/OneDrive/Desktop/GD32VW553/V1_MQTT_OK/GD32VW55X_Wifi_BLE_SDK/GD32VW55x_RELEASE_V1.0.2/MSDK/wpa_supplicant/src/rsn_supp\wpa_i.h **** 	int set_ptk_after_assoc;
 161:C:/Users/stapi/OneDrive/Desktop/GD32VW553/V1_MQTT_OK/GD32VW55X_Wifi_BLE_SDK/GD32VW55x_RELEASE_V1.0.2/MSDK/wpa_supplicant/src/rsn_supp\wpa_i.h **** 	u8 mdie_ft_capab; /* FT Capability and Policy from target AP MDIE */
 162:C:/Users/stapi/OneDrive/Desktop/GD32VW553/V1_MQTT_OK/GD32VW55X_Wifi_BLE_SDK/GD32VW55x_RELEASE_V1.0.2/MSDK/wpa_supplicant/src/rsn_supp\wpa_i.h **** 	u8 *assoc_resp_ies; /* MDIE and FTIE from (Re)Association Response */
 163:C:/Users/stapi/OneDrive/Desktop/GD32VW553/V1_MQTT_OK/GD32VW55X_Wifi_BLE_SDK/GD32VW55x_RELEASE_V1.0.2/MSDK/wpa_supplicant/src/rsn_supp\wpa_i.h **** 	size_t assoc_resp_ies_len;
 164:C:/Users/stapi/OneDrive/Desktop/GD32VW553/V1_MQTT_OK/GD32VW55X_Wifi_BLE_SDK/GD32VW55x_RELEASE_V1.0.2/MSDK/wpa_supplicant/src/rsn_supp\wpa_i.h **** #ifdef CONFIG_PASN
 165:C:/Users/stapi/OneDrive/Desktop/GD32VW553/V1_MQTT_OK/GD32VW55X_Wifi_BLE_SDK/GD32VW55x_RELEASE_V1.0.2/MSDK/wpa_supplicant/src/rsn_supp\wpa_i.h **** 	/*
 166:C:/Users/stapi/OneDrive/Desktop/GD32VW553/V1_MQTT_OK/GD32VW55X_Wifi_BLE_SDK/GD32VW55x_RELEASE_V1.0.2/MSDK/wpa_supplicant/src/rsn_supp\wpa_i.h **** 	 * Currently, the WPA state machine stores the PMK-R1, PMK-R1-Name and
 167:C:/Users/stapi/OneDrive/Desktop/GD32VW553/V1_MQTT_OK/GD32VW55X_Wifi_BLE_SDK/GD32VW55x_RELEASE_V1.0.2/MSDK/wpa_supplicant/src/rsn_supp\wpa_i.h **** 	 * R1KH-ID only for the current association. As PMK-R1 is required to
 168:C:/Users/stapi/OneDrive/Desktop/GD32VW553/V1_MQTT_OK/GD32VW55X_Wifi_BLE_SDK/GD32VW55x_RELEASE_V1.0.2/MSDK/wpa_supplicant/src/rsn_supp\wpa_i.h **** 	 * perform PASN authentication with FT, store the R1KH-ID for previous
 169:C:/Users/stapi/OneDrive/Desktop/GD32VW553/V1_MQTT_OK/GD32VW55X_Wifi_BLE_SDK/GD32VW55x_RELEASE_V1.0.2/MSDK/wpa_supplicant/src/rsn_supp\wpa_i.h **** 	 * associations, which would later be used to derive the PMK-R1 as part
 170:C:/Users/stapi/OneDrive/Desktop/GD32VW553/V1_MQTT_OK/GD32VW55X_Wifi_BLE_SDK/GD32VW55x_RELEASE_V1.0.2/MSDK/wpa_supplicant/src/rsn_supp\wpa_i.h **** 	 * of the PASN authentication flow.
 171:C:/Users/stapi/OneDrive/Desktop/GD32VW553/V1_MQTT_OK/GD32VW55X_Wifi_BLE_SDK/GD32VW55x_RELEASE_V1.0.2/MSDK/wpa_supplicant/src/rsn_supp\wpa_i.h **** 	 */
 172:C:/Users/stapi/OneDrive/Desktop/GD32VW553/V1_MQTT_OK/GD32VW55X_Wifi_BLE_SDK/GD32VW55x_RELEASE_V1.0.2/MSDK/wpa_supplicant/src/rsn_supp\wpa_i.h **** 	struct pasn_ft_r1kh *pasn_r1kh;
 173:C:/Users/stapi/OneDrive/Desktop/GD32VW553/V1_MQTT_OK/GD32VW55X_Wifi_BLE_SDK/GD32VW55x_RELEASE_V1.0.2/MSDK/wpa_supplicant/src/rsn_supp\wpa_i.h **** 	unsigned int n_pasn_r1kh;
 174:C:/Users/stapi/OneDrive/Desktop/GD32VW553/V1_MQTT_OK/GD32VW55X_Wifi_BLE_SDK/GD32VW55x_RELEASE_V1.0.2/MSDK/wpa_supplicant/src/rsn_supp\wpa_i.h **** #endif /* CONFIG_PASN */
 175:C:/Users/stapi/OneDrive/Desktop/GD32VW553/V1_MQTT_OK/GD32VW55X_Wifi_BLE_SDK/GD32VW55x_RELEASE_V1.0.2/MSDK/wpa_supplicant/src/rsn_supp\wpa_i.h **** #endif /* CONFIG_IEEE80211R */
 176:C:/Users/stapi/OneDrive/Desktop/GD32VW553/V1_MQTT_OK/GD32VW55X_Wifi_BLE_SDK/GD32VW55x_RELEASE_V1.0.2/MSDK/wpa_supplicant/src/rsn_supp\wpa_i.h **** 
 177:C:/Users/stapi/OneDrive/Desktop/GD32VW553/V1_MQTT_OK/GD32VW55X_Wifi_BLE_SDK/GD32VW55x_RELEASE_V1.0.2/MSDK/wpa_supplicant/src/rsn_supp\wpa_i.h **** #ifdef CONFIG_P2P
 178:C:/Users/stapi/OneDrive/Desktop/GD32VW553/V1_MQTT_OK/GD32VW55X_Wifi_BLE_SDK/GD32VW55x_RELEASE_V1.0.2/MSDK/wpa_supplicant/src/rsn_supp\wpa_i.h **** 	u8 p2p_ip_addr[3 * 4];
 179:C:/Users/stapi/OneDrive/Desktop/GD32VW553/V1_MQTT_OK/GD32VW55X_Wifi_BLE_SDK/GD32VW55x_RELEASE_V1.0.2/MSDK/wpa_supplicant/src/rsn_supp\wpa_i.h **** #endif /* CONFIG_P2P */
 180:C:/Users/stapi/OneDrive/Desktop/GD32VW553/V1_MQTT_OK/GD32VW55X_Wifi_BLE_SDK/GD32VW55x_RELEASE_V1.0.2/MSDK/wpa_supplicant/src/rsn_supp\wpa_i.h **** 
 181:C:/Users/stapi/OneDrive/Desktop/GD32VW553/V1_MQTT_OK/GD32VW55X_Wifi_BLE_SDK/GD32VW55x_RELEASE_V1.0.2/MSDK/wpa_supplicant/src/rsn_supp\wpa_i.h **** #ifdef CONFIG_TESTING_OPTIONS
 182:C:/Users/stapi/OneDrive/Desktop/GD32VW553/V1_MQTT_OK/GD32VW55X_Wifi_BLE_SDK/GD32VW55x_RELEASE_V1.0.2/MSDK/wpa_supplicant/src/rsn_supp\wpa_i.h **** 	struct wpabuf *test_assoc_ie;
 183:C:/Users/stapi/OneDrive/Desktop/GD32VW553/V1_MQTT_OK/GD32VW55X_Wifi_BLE_SDK/GD32VW55x_RELEASE_V1.0.2/MSDK/wpa_supplicant/src/rsn_supp\wpa_i.h **** 	int ft_rsnxe_used;
 184:C:/Users/stapi/OneDrive/Desktop/GD32VW553/V1_MQTT_OK/GD32VW55X_Wifi_BLE_SDK/GD32VW55x_RELEASE_V1.0.2/MSDK/wpa_supplicant/src/rsn_supp\wpa_i.h **** 	unsigned int oci_freq_override_eapol;
 185:C:/Users/stapi/OneDrive/Desktop/GD32VW553/V1_MQTT_OK/GD32VW55X_Wifi_BLE_SDK/GD32VW55x_RELEASE_V1.0.2/MSDK/wpa_supplicant/src/rsn_supp\wpa_i.h **** 	unsigned int oci_freq_override_eapol_g2;
 186:C:/Users/stapi/OneDrive/Desktop/GD32VW553/V1_MQTT_OK/GD32VW55X_Wifi_BLE_SDK/GD32VW55x_RELEASE_V1.0.2/MSDK/wpa_supplicant/src/rsn_supp\wpa_i.h **** 	unsigned int oci_freq_override_ft_assoc;
 187:C:/Users/stapi/OneDrive/Desktop/GD32VW553/V1_MQTT_OK/GD32VW55X_Wifi_BLE_SDK/GD32VW55x_RELEASE_V1.0.2/MSDK/wpa_supplicant/src/rsn_supp\wpa_i.h **** 	unsigned int oci_freq_override_fils_assoc;
 188:C:/Users/stapi/OneDrive/Desktop/GD32VW553/V1_MQTT_OK/GD32VW55X_Wifi_BLE_SDK/GD32VW55x_RELEASE_V1.0.2/MSDK/wpa_supplicant/src/rsn_supp\wpa_i.h **** #endif /* CONFIG_TESTING_OPTIONS */
 189:C:/Users/stapi/OneDrive/Desktop/GD32VW553/V1_MQTT_OK/GD32VW55X_Wifi_BLE_SDK/GD32VW55x_RELEASE_V1.0.2/MSDK/wpa_supplicant/src/rsn_supp\wpa_i.h **** 
 190:C:/Users/stapi/OneDrive/Desktop/GD32VW553/V1_MQTT_OK/GD32VW55X_Wifi_BLE_SDK/GD32VW55x_RELEASE_V1.0.2/MSDK/wpa_supplicant/src/rsn_supp\wpa_i.h **** #ifdef CONFIG_FILS
 191:C:/Users/stapi/OneDrive/Desktop/GD32VW553/V1_MQTT_OK/GD32VW55X_Wifi_BLE_SDK/GD32VW55x_RELEASE_V1.0.2/MSDK/wpa_supplicant/src/rsn_supp\wpa_i.h **** 	u8 fils_nonce[FILS_NONCE_LEN];
 192:C:/Users/stapi/OneDrive/Desktop/GD32VW553/V1_MQTT_OK/GD32VW55X_Wifi_BLE_SDK/GD32VW55x_RELEASE_V1.0.2/MSDK/wpa_supplicant/src/rsn_supp\wpa_i.h **** 	u8 fils_session[FILS_SESSION_LEN];
 193:C:/Users/stapi/OneDrive/Desktop/GD32VW553/V1_MQTT_OK/GD32VW55X_Wifi_BLE_SDK/GD32VW55x_RELEASE_V1.0.2/MSDK/wpa_supplicant/src/rsn_supp\wpa_i.h **** 	u8 fils_anonce[FILS_NONCE_LEN];
 194:C:/Users/stapi/OneDrive/Desktop/GD32VW553/V1_MQTT_OK/GD32VW55X_Wifi_BLE_SDK/GD32VW55x_RELEASE_V1.0.2/MSDK/wpa_supplicant/src/rsn_supp\wpa_i.h **** 	u8 fils_key_auth_ap[FILS_MAX_KEY_AUTH_LEN];
 195:C:/Users/stapi/OneDrive/Desktop/GD32VW553/V1_MQTT_OK/GD32VW55X_Wifi_BLE_SDK/GD32VW55x_RELEASE_V1.0.2/MSDK/wpa_supplicant/src/rsn_supp\wpa_i.h **** 	u8 fils_key_auth_sta[FILS_MAX_KEY_AUTH_LEN];
 196:C:/Users/stapi/OneDrive/Desktop/GD32VW553/V1_MQTT_OK/GD32VW55X_Wifi_BLE_SDK/GD32VW55x_RELEASE_V1.0.2/MSDK/wpa_supplicant/src/rsn_supp\wpa_i.h **** 	size_t fils_key_auth_len;
 197:C:/Users/stapi/OneDrive/Desktop/GD32VW553/V1_MQTT_OK/GD32VW55X_Wifi_BLE_SDK/GD32VW55x_RELEASE_V1.0.2/MSDK/wpa_supplicant/src/rsn_supp\wpa_i.h **** 	unsigned int fils_completed:1;
 198:C:/Users/stapi/OneDrive/Desktop/GD32VW553/V1_MQTT_OK/GD32VW55X_Wifi_BLE_SDK/GD32VW55x_RELEASE_V1.0.2/MSDK/wpa_supplicant/src/rsn_supp\wpa_i.h **** 	unsigned int fils_erp_pmkid_set:1;
 199:C:/Users/stapi/OneDrive/Desktop/GD32VW553/V1_MQTT_OK/GD32VW55X_Wifi_BLE_SDK/GD32VW55x_RELEASE_V1.0.2/MSDK/wpa_supplicant/src/rsn_supp\wpa_i.h **** 	unsigned int fils_cache_id_set:1;
 200:C:/Users/stapi/OneDrive/Desktop/GD32VW553/V1_MQTT_OK/GD32VW55X_Wifi_BLE_SDK/GD32VW55x_RELEASE_V1.0.2/MSDK/wpa_supplicant/src/rsn_supp\wpa_i.h **** 	u8 fils_erp_pmkid[PMKID_LEN];
 201:C:/Users/stapi/OneDrive/Desktop/GD32VW553/V1_MQTT_OK/GD32VW55X_Wifi_BLE_SDK/GD32VW55x_RELEASE_V1.0.2/MSDK/wpa_supplicant/src/rsn_supp\wpa_i.h **** 	u8 fils_cache_id[FILS_CACHE_ID_LEN];
 202:C:/Users/stapi/OneDrive/Desktop/GD32VW553/V1_MQTT_OK/GD32VW55X_Wifi_BLE_SDK/GD32VW55x_RELEASE_V1.0.2/MSDK/wpa_supplicant/src/rsn_supp\wpa_i.h **** 	struct crypto_ecdh *fils_ecdh;
 203:C:/Users/stapi/OneDrive/Desktop/GD32VW553/V1_MQTT_OK/GD32VW55X_Wifi_BLE_SDK/GD32VW55x_RELEASE_V1.0.2/MSDK/wpa_supplicant/src/rsn_supp\wpa_i.h **** 	int fils_dh_group;
 204:C:/Users/stapi/OneDrive/Desktop/GD32VW553/V1_MQTT_OK/GD32VW55X_Wifi_BLE_SDK/GD32VW55x_RELEASE_V1.0.2/MSDK/wpa_supplicant/src/rsn_supp\wpa_i.h **** 	size_t fils_dh_elem_len;
 205:C:/Users/stapi/OneDrive/Desktop/GD32VW553/V1_MQTT_OK/GD32VW55X_Wifi_BLE_SDK/GD32VW55x_RELEASE_V1.0.2/MSDK/wpa_supplicant/src/rsn_supp\wpa_i.h **** 	struct wpabuf *fils_ft_ies;
 206:C:/Users/stapi/OneDrive/Desktop/GD32VW553/V1_MQTT_OK/GD32VW55X_Wifi_BLE_SDK/GD32VW55x_RELEASE_V1.0.2/MSDK/wpa_supplicant/src/rsn_supp\wpa_i.h **** 	u8 fils_ft[FILS_FT_MAX_LEN];
 207:C:/Users/stapi/OneDrive/Desktop/GD32VW553/V1_MQTT_OK/GD32VW55X_Wifi_BLE_SDK/GD32VW55x_RELEASE_V1.0.2/MSDK/wpa_supplicant/src/rsn_supp\wpa_i.h **** 	size_t fils_ft_len;
 208:C:/Users/stapi/OneDrive/Desktop/GD32VW553/V1_MQTT_OK/GD32VW55X_Wifi_BLE_SDK/GD32VW55x_RELEASE_V1.0.2/MSDK/wpa_supplicant/src/rsn_supp\wpa_i.h **** #endif /* CONFIG_FILS */
 209:C:/Users/stapi/OneDrive/Desktop/GD32VW553/V1_MQTT_OK/GD32VW55X_Wifi_BLE_SDK/GD32VW55x_RELEASE_V1.0.2/MSDK/wpa_supplicant/src/rsn_supp\wpa_i.h **** 
 210:C:/Users/stapi/OneDrive/Desktop/GD32VW553/V1_MQTT_OK/GD32VW55X_Wifi_BLE_SDK/GD32VW55x_RELEASE_V1.0.2/MSDK/wpa_supplicant/src/rsn_supp\wpa_i.h **** #ifdef CONFIG_OWE
 211:C:/Users/stapi/OneDrive/Desktop/GD32VW553/V1_MQTT_OK/GD32VW55X_Wifi_BLE_SDK/GD32VW55x_RELEASE_V1.0.2/MSDK/wpa_supplicant/src/rsn_supp\wpa_i.h **** 	struct crypto_ecdh *owe_ecdh;
 212:C:/Users/stapi/OneDrive/Desktop/GD32VW553/V1_MQTT_OK/GD32VW55X_Wifi_BLE_SDK/GD32VW55x_RELEASE_V1.0.2/MSDK/wpa_supplicant/src/rsn_supp\wpa_i.h **** 	u16 owe_group;
 213:C:/Users/stapi/OneDrive/Desktop/GD32VW553/V1_MQTT_OK/GD32VW55X_Wifi_BLE_SDK/GD32VW55x_RELEASE_V1.0.2/MSDK/wpa_supplicant/src/rsn_supp\wpa_i.h **** #endif /* CONFIG_OWE */
 214:C:/Users/stapi/OneDrive/Desktop/GD32VW553/V1_MQTT_OK/GD32VW55X_Wifi_BLE_SDK/GD32VW55x_RELEASE_V1.0.2/MSDK/wpa_supplicant/src/rsn_supp\wpa_i.h **** 
 215:C:/Users/stapi/OneDrive/Desktop/GD32VW553/V1_MQTT_OK/GD32VW55X_Wifi_BLE_SDK/GD32VW55x_RELEASE_V1.0.2/MSDK/wpa_supplicant/src/rsn_supp\wpa_i.h **** #ifdef CONFIG_DPP2
 216:C:/Users/stapi/OneDrive/Desktop/GD32VW553/V1_MQTT_OK/GD32VW55X_Wifi_BLE_SDK/GD32VW55x_RELEASE_V1.0.2/MSDK/wpa_supplicant/src/rsn_supp\wpa_i.h **** 	struct wpabuf *dpp_z;
 217:C:/Users/stapi/OneDrive/Desktop/GD32VW553/V1_MQTT_OK/GD32VW55X_Wifi_BLE_SDK/GD32VW55x_RELEASE_V1.0.2/MSDK/wpa_supplicant/src/rsn_supp\wpa_i.h **** 	int dpp_pfs;
 218:C:/Users/stapi/OneDrive/Desktop/GD32VW553/V1_MQTT_OK/GD32VW55X_Wifi_BLE_SDK/GD32VW55x_RELEASE_V1.0.2/MSDK/wpa_supplicant/src/rsn_supp\wpa_i.h **** #endif /* CONFIG_DPP2 */
 219:C:/Users/stapi/OneDrive/Desktop/GD32VW553/V1_MQTT_OK/GD32VW55X_Wifi_BLE_SDK/GD32VW55x_RELEASE_V1.0.2/MSDK/wpa_supplicant/src/rsn_supp\wpa_i.h **** };
 220:C:/Users/stapi/OneDrive/Desktop/GD32VW553/V1_MQTT_OK/GD32VW55X_Wifi_BLE_SDK/GD32VW55x_RELEASE_V1.0.2/MSDK/wpa_supplicant/src/rsn_supp\wpa_i.h **** 
 221:C:/Users/stapi/OneDrive/Desktop/GD32VW553/V1_MQTT_OK/GD32VW55X_Wifi_BLE_SDK/GD32VW55x_RELEASE_V1.0.2/MSDK/wpa_supplicant/src/rsn_supp\wpa_i.h **** 
 222:C:/Users/stapi/OneDrive/Desktop/GD32VW553/V1_MQTT_OK/GD32VW55X_Wifi_BLE_SDK/GD32VW55x_RELEASE_V1.0.2/MSDK/wpa_supplicant/src/rsn_supp\wpa_i.h **** static inline void wpa_sm_set_state(struct wpa_sm *sm, enum wpa_states state)
 223:C:/Users/stapi/OneDrive/Desktop/GD32VW553/V1_MQTT_OK/GD32VW55X_Wifi_BLE_SDK/GD32VW55x_RELEASE_V1.0.2/MSDK/wpa_supplicant/src/rsn_supp\wpa_i.h **** {
 224:C:/Users/stapi/OneDrive/Desktop/GD32VW553/V1_MQTT_OK/GD32VW55X_Wifi_BLE_SDK/GD32VW55x_RELEASE_V1.0.2/MSDK/wpa_supplicant/src/rsn_supp\wpa_i.h **** 	WPA_ASSERT(sm->ctx->set_state);
 225:C:/Users/stapi/OneDrive/Desktop/GD32VW553/V1_MQTT_OK/GD32VW55X_Wifi_BLE_SDK/GD32VW55x_RELEASE_V1.0.2/MSDK/wpa_supplicant/src/rsn_supp\wpa_i.h **** 	sm->ctx->set_state(sm->ctx->ctx, state);
 226:C:/Users/stapi/OneDrive/Desktop/GD32VW553/V1_MQTT_OK/GD32VW55X_Wifi_BLE_SDK/GD32VW55x_RELEASE_V1.0.2/MSDK/wpa_supplicant/src/rsn_supp\wpa_i.h **** }
 227:C:/Users/stapi/OneDrive/Desktop/GD32VW553/V1_MQTT_OK/GD32VW55X_Wifi_BLE_SDK/GD32VW55x_RELEASE_V1.0.2/MSDK/wpa_supplicant/src/rsn_supp\wpa_i.h **** 
 228:C:/Users/stapi/OneDrive/Desktop/GD32VW553/V1_MQTT_OK/GD32VW55X_Wifi_BLE_SDK/GD32VW55x_RELEASE_V1.0.2/MSDK/wpa_supplicant/src/rsn_supp\wpa_i.h **** static inline enum wpa_states wpa_sm_get_state(struct wpa_sm *sm)
 229:C:/Users/stapi/OneDrive/Desktop/GD32VW553/V1_MQTT_OK/GD32VW55X_Wifi_BLE_SDK/GD32VW55x_RELEASE_V1.0.2/MSDK/wpa_supplicant/src/rsn_supp\wpa_i.h **** {
 230:C:/Users/stapi/OneDrive/Desktop/GD32VW553/V1_MQTT_OK/GD32VW55X_Wifi_BLE_SDK/GD32VW55x_RELEASE_V1.0.2/MSDK/wpa_supplicant/src/rsn_supp\wpa_i.h **** 	WPA_ASSERT(sm->ctx->get_state);
 231:C:/Users/stapi/OneDrive/Desktop/GD32VW553/V1_MQTT_OK/GD32VW55X_Wifi_BLE_SDK/GD32VW55x_RELEASE_V1.0.2/MSDK/wpa_supplicant/src/rsn_supp\wpa_i.h **** 	return sm->ctx->get_state(sm->ctx->ctx);
 232:C:/Users/stapi/OneDrive/Desktop/GD32VW553/V1_MQTT_OK/GD32VW55X_Wifi_BLE_SDK/GD32VW55x_RELEASE_V1.0.2/MSDK/wpa_supplicant/src/rsn_supp\wpa_i.h **** }
 233:C:/Users/stapi/OneDrive/Desktop/GD32VW553/V1_MQTT_OK/GD32VW55X_Wifi_BLE_SDK/GD32VW55x_RELEASE_V1.0.2/MSDK/wpa_supplicant/src/rsn_supp\wpa_i.h **** 
 234:C:/Users/stapi/OneDrive/Desktop/GD32VW553/V1_MQTT_OK/GD32VW55X_Wifi_BLE_SDK/GD32VW55x_RELEASE_V1.0.2/MSDK/wpa_supplicant/src/rsn_supp\wpa_i.h **** static inline void wpa_sm_deauthenticate(struct wpa_sm *sm, u16 reason_code)
 235:C:/Users/stapi/OneDrive/Desktop/GD32VW553/V1_MQTT_OK/GD32VW55X_Wifi_BLE_SDK/GD32VW55x_RELEASE_V1.0.2/MSDK/wpa_supplicant/src/rsn_supp\wpa_i.h **** {
 236:C:/Users/stapi/OneDrive/Desktop/GD32VW553/V1_MQTT_OK/GD32VW55X_Wifi_BLE_SDK/GD32VW55x_RELEASE_V1.0.2/MSDK/wpa_supplicant/src/rsn_supp\wpa_i.h **** 	WPA_ASSERT(sm->ctx->deauthenticate);
 237:C:/Users/stapi/OneDrive/Desktop/GD32VW553/V1_MQTT_OK/GD32VW55X_Wifi_BLE_SDK/GD32VW55x_RELEASE_V1.0.2/MSDK/wpa_supplicant/src/rsn_supp\wpa_i.h **** 	sm->ctx->deauthenticate(sm->ctx->ctx, reason_code);
 238:C:/Users/stapi/OneDrive/Desktop/GD32VW553/V1_MQTT_OK/GD32VW55X_Wifi_BLE_SDK/GD32VW55x_RELEASE_V1.0.2/MSDK/wpa_supplicant/src/rsn_supp\wpa_i.h **** }
 239:C:/Users/stapi/OneDrive/Desktop/GD32VW553/V1_MQTT_OK/GD32VW55X_Wifi_BLE_SDK/GD32VW55x_RELEASE_V1.0.2/MSDK/wpa_supplicant/src/rsn_supp\wpa_i.h **** 
 240:C:/Users/stapi/OneDrive/Desktop/GD32VW553/V1_MQTT_OK/GD32VW55X_Wifi_BLE_SDK/GD32VW55x_RELEASE_V1.0.2/MSDK/wpa_supplicant/src/rsn_supp\wpa_i.h **** static inline int wpa_sm_set_key(struct wpa_sm *sm, enum wpa_alg alg,
 241:C:/Users/stapi/OneDrive/Desktop/GD32VW553/V1_MQTT_OK/GD32VW55X_Wifi_BLE_SDK/GD32VW55x_RELEASE_V1.0.2/MSDK/wpa_supplicant/src/rsn_supp\wpa_i.h **** 				 const u8 *addr, int key_idx, int set_tx,
 242:C:/Users/stapi/OneDrive/Desktop/GD32VW553/V1_MQTT_OK/GD32VW55X_Wifi_BLE_SDK/GD32VW55x_RELEASE_V1.0.2/MSDK/wpa_supplicant/src/rsn_supp\wpa_i.h **** 				 const u8 *seq, size_t seq_len,
 243:C:/Users/stapi/OneDrive/Desktop/GD32VW553/V1_MQTT_OK/GD32VW55X_Wifi_BLE_SDK/GD32VW55x_RELEASE_V1.0.2/MSDK/wpa_supplicant/src/rsn_supp\wpa_i.h **** 				 const u8 *key, size_t key_len,
 244:C:/Users/stapi/OneDrive/Desktop/GD32VW553/V1_MQTT_OK/GD32VW55X_Wifi_BLE_SDK/GD32VW55x_RELEASE_V1.0.2/MSDK/wpa_supplicant/src/rsn_supp\wpa_i.h **** 				 enum key_flag key_flag)
 245:C:/Users/stapi/OneDrive/Desktop/GD32VW553/V1_MQTT_OK/GD32VW55X_Wifi_BLE_SDK/GD32VW55x_RELEASE_V1.0.2/MSDK/wpa_supplicant/src/rsn_supp\wpa_i.h **** {
 246:C:/Users/stapi/OneDrive/Desktop/GD32VW553/V1_MQTT_OK/GD32VW55X_Wifi_BLE_SDK/GD32VW55x_RELEASE_V1.0.2/MSDK/wpa_supplicant/src/rsn_supp\wpa_i.h **** 	WPA_ASSERT(sm->ctx->set_key);
 247:C:/Users/stapi/OneDrive/Desktop/GD32VW553/V1_MQTT_OK/GD32VW55X_Wifi_BLE_SDK/GD32VW55x_RELEASE_V1.0.2/MSDK/wpa_supplicant/src/rsn_supp\wpa_i.h **** 	return sm->ctx->set_key(sm->ctx->ctx, alg, addr, key_idx, set_tx,
 248:C:/Users/stapi/OneDrive/Desktop/GD32VW553/V1_MQTT_OK/GD32VW55X_Wifi_BLE_SDK/GD32VW55x_RELEASE_V1.0.2/MSDK/wpa_supplicant/src/rsn_supp\wpa_i.h **** 				seq, seq_len, key, key_len, key_flag);
 249:C:/Users/stapi/OneDrive/Desktop/GD32VW553/V1_MQTT_OK/GD32VW55X_Wifi_BLE_SDK/GD32VW55x_RELEASE_V1.0.2/MSDK/wpa_supplicant/src/rsn_supp\wpa_i.h **** }
 250:C:/Users/stapi/OneDrive/Desktop/GD32VW553/V1_MQTT_OK/GD32VW55X_Wifi_BLE_SDK/GD32VW55x_RELEASE_V1.0.2/MSDK/wpa_supplicant/src/rsn_supp\wpa_i.h **** 
 251:C:/Users/stapi/OneDrive/Desktop/GD32VW553/V1_MQTT_OK/GD32VW55X_Wifi_BLE_SDK/GD32VW55x_RELEASE_V1.0.2/MSDK/wpa_supplicant/src/rsn_supp\wpa_i.h **** static inline void wpa_sm_reconnect(struct wpa_sm *sm)
 252:C:/Users/stapi/OneDrive/Desktop/GD32VW553/V1_MQTT_OK/GD32VW55X_Wifi_BLE_SDK/GD32VW55x_RELEASE_V1.0.2/MSDK/wpa_supplicant/src/rsn_supp\wpa_i.h **** {
 253:C:/Users/stapi/OneDrive/Desktop/GD32VW553/V1_MQTT_OK/GD32VW55X_Wifi_BLE_SDK/GD32VW55x_RELEASE_V1.0.2/MSDK/wpa_supplicant/src/rsn_supp\wpa_i.h **** 	WPA_ASSERT(sm->ctx->reconnect);
 254:C:/Users/stapi/OneDrive/Desktop/GD32VW553/V1_MQTT_OK/GD32VW55X_Wifi_BLE_SDK/GD32VW55x_RELEASE_V1.0.2/MSDK/wpa_supplicant/src/rsn_supp\wpa_i.h **** 	sm->ctx->reconnect(sm->ctx->ctx);
 255:C:/Users/stapi/OneDrive/Desktop/GD32VW553/V1_MQTT_OK/GD32VW55X_Wifi_BLE_SDK/GD32VW55x_RELEASE_V1.0.2/MSDK/wpa_supplicant/src/rsn_supp\wpa_i.h **** }
 256:C:/Users/stapi/OneDrive/Desktop/GD32VW553/V1_MQTT_OK/GD32VW55X_Wifi_BLE_SDK/GD32VW55x_RELEASE_V1.0.2/MSDK/wpa_supplicant/src/rsn_supp\wpa_i.h **** 
 257:C:/Users/stapi/OneDrive/Desktop/GD32VW553/V1_MQTT_OK/GD32VW55X_Wifi_BLE_SDK/GD32VW55x_RELEASE_V1.0.2/MSDK/wpa_supplicant/src/rsn_supp\wpa_i.h **** static inline void * wpa_sm_get_network_ctx(struct wpa_sm *sm)
 258:C:/Users/stapi/OneDrive/Desktop/GD32VW553/V1_MQTT_OK/GD32VW55X_Wifi_BLE_SDK/GD32VW55x_RELEASE_V1.0.2/MSDK/wpa_supplicant/src/rsn_supp\wpa_i.h **** {
 259:C:/Users/stapi/OneDrive/Desktop/GD32VW553/V1_MQTT_OK/GD32VW55X_Wifi_BLE_SDK/GD32VW55x_RELEASE_V1.0.2/MSDK/wpa_supplicant/src/rsn_supp\wpa_i.h **** 	WPA_ASSERT(sm->ctx->get_network_ctx);
 260:C:/Users/stapi/OneDrive/Desktop/GD32VW553/V1_MQTT_OK/GD32VW55X_Wifi_BLE_SDK/GD32VW55x_RELEASE_V1.0.2/MSDK/wpa_supplicant/src/rsn_supp\wpa_i.h **** 	return sm->ctx->get_network_ctx(sm->ctx->ctx);
 261:C:/Users/stapi/OneDrive/Desktop/GD32VW553/V1_MQTT_OK/GD32VW55X_Wifi_BLE_SDK/GD32VW55x_RELEASE_V1.0.2/MSDK/wpa_supplicant/src/rsn_supp\wpa_i.h **** }
 262:C:/Users/stapi/OneDrive/Desktop/GD32VW553/V1_MQTT_OK/GD32VW55X_Wifi_BLE_SDK/GD32VW55x_RELEASE_V1.0.2/MSDK/wpa_supplicant/src/rsn_supp\wpa_i.h **** 
 263:C:/Users/stapi/OneDrive/Desktop/GD32VW553/V1_MQTT_OK/GD32VW55X_Wifi_BLE_SDK/GD32VW55x_RELEASE_V1.0.2/MSDK/wpa_supplicant/src/rsn_supp\wpa_i.h **** static inline int wpa_sm_get_bssid(struct wpa_sm *sm, u8 *bssid)
 264:C:/Users/stapi/OneDrive/Desktop/GD32VW553/V1_MQTT_OK/GD32VW55X_Wifi_BLE_SDK/GD32VW55x_RELEASE_V1.0.2/MSDK/wpa_supplicant/src/rsn_supp\wpa_i.h **** {
 265:C:/Users/stapi/OneDrive/Desktop/GD32VW553/V1_MQTT_OK/GD32VW55X_Wifi_BLE_SDK/GD32VW55x_RELEASE_V1.0.2/MSDK/wpa_supplicant/src/rsn_supp\wpa_i.h **** 	WPA_ASSERT(sm->ctx->get_bssid);
 266:C:/Users/stapi/OneDrive/Desktop/GD32VW553/V1_MQTT_OK/GD32VW55X_Wifi_BLE_SDK/GD32VW55x_RELEASE_V1.0.2/MSDK/wpa_supplicant/src/rsn_supp\wpa_i.h **** 	return sm->ctx->get_bssid(sm->ctx->ctx, bssid);
 267:C:/Users/stapi/OneDrive/Desktop/GD32VW553/V1_MQTT_OK/GD32VW55X_Wifi_BLE_SDK/GD32VW55x_RELEASE_V1.0.2/MSDK/wpa_supplicant/src/rsn_supp\wpa_i.h **** }
 268:C:/Users/stapi/OneDrive/Desktop/GD32VW553/V1_MQTT_OK/GD32VW55X_Wifi_BLE_SDK/GD32VW55x_RELEASE_V1.0.2/MSDK/wpa_supplicant/src/rsn_supp\wpa_i.h **** 
 269:C:/Users/stapi/OneDrive/Desktop/GD32VW553/V1_MQTT_OK/GD32VW55X_Wifi_BLE_SDK/GD32VW55x_RELEASE_V1.0.2/MSDK/wpa_supplicant/src/rsn_supp\wpa_i.h **** static inline int wpa_sm_ether_send(struct wpa_sm *sm, const u8 *dest,
 270:C:/Users/stapi/OneDrive/Desktop/GD32VW553/V1_MQTT_OK/GD32VW55X_Wifi_BLE_SDK/GD32VW55x_RELEASE_V1.0.2/MSDK/wpa_supplicant/src/rsn_supp\wpa_i.h **** 				    u16 proto, const u8 *buf, size_t len)
 271:C:/Users/stapi/OneDrive/Desktop/GD32VW553/V1_MQTT_OK/GD32VW55X_Wifi_BLE_SDK/GD32VW55x_RELEASE_V1.0.2/MSDK/wpa_supplicant/src/rsn_supp\wpa_i.h **** {
 272:C:/Users/stapi/OneDrive/Desktop/GD32VW553/V1_MQTT_OK/GD32VW55X_Wifi_BLE_SDK/GD32VW55x_RELEASE_V1.0.2/MSDK/wpa_supplicant/src/rsn_supp\wpa_i.h **** 	WPA_ASSERT(sm->ctx->ether_send);
 273:C:/Users/stapi/OneDrive/Desktop/GD32VW553/V1_MQTT_OK/GD32VW55X_Wifi_BLE_SDK/GD32VW55x_RELEASE_V1.0.2/MSDK/wpa_supplicant/src/rsn_supp\wpa_i.h **** 	return sm->ctx->ether_send(sm->ctx->ctx, dest, proto, buf, len);
 274:C:/Users/stapi/OneDrive/Desktop/GD32VW553/V1_MQTT_OK/GD32VW55X_Wifi_BLE_SDK/GD32VW55x_RELEASE_V1.0.2/MSDK/wpa_supplicant/src/rsn_supp\wpa_i.h **** }
 275:C:/Users/stapi/OneDrive/Desktop/GD32VW553/V1_MQTT_OK/GD32VW55X_Wifi_BLE_SDK/GD32VW55x_RELEASE_V1.0.2/MSDK/wpa_supplicant/src/rsn_supp\wpa_i.h **** 
 276:C:/Users/stapi/OneDrive/Desktop/GD32VW553/V1_MQTT_OK/GD32VW55X_Wifi_BLE_SDK/GD32VW55x_RELEASE_V1.0.2/MSDK/wpa_supplicant/src/rsn_supp\wpa_i.h **** static inline int wpa_sm_get_beacon_ie(struct wpa_sm *sm)
 277:C:/Users/stapi/OneDrive/Desktop/GD32VW553/V1_MQTT_OK/GD32VW55X_Wifi_BLE_SDK/GD32VW55x_RELEASE_V1.0.2/MSDK/wpa_supplicant/src/rsn_supp\wpa_i.h **** {
 278:C:/Users/stapi/OneDrive/Desktop/GD32VW553/V1_MQTT_OK/GD32VW55X_Wifi_BLE_SDK/GD32VW55x_RELEASE_V1.0.2/MSDK/wpa_supplicant/src/rsn_supp\wpa_i.h **** 	WPA_ASSERT(sm->ctx->get_beacon_ie);
 279:C:/Users/stapi/OneDrive/Desktop/GD32VW553/V1_MQTT_OK/GD32VW55X_Wifi_BLE_SDK/GD32VW55x_RELEASE_V1.0.2/MSDK/wpa_supplicant/src/rsn_supp\wpa_i.h **** 	return sm->ctx->get_beacon_ie(sm->ctx->ctx);
 280:C:/Users/stapi/OneDrive/Desktop/GD32VW553/V1_MQTT_OK/GD32VW55X_Wifi_BLE_SDK/GD32VW55x_RELEASE_V1.0.2/MSDK/wpa_supplicant/src/rsn_supp\wpa_i.h **** }
 281:C:/Users/stapi/OneDrive/Desktop/GD32VW553/V1_MQTT_OK/GD32VW55X_Wifi_BLE_SDK/GD32VW55x_RELEASE_V1.0.2/MSDK/wpa_supplicant/src/rsn_supp\wpa_i.h **** 
 282:C:/Users/stapi/OneDrive/Desktop/GD32VW553/V1_MQTT_OK/GD32VW55X_Wifi_BLE_SDK/GD32VW55x_RELEASE_V1.0.2/MSDK/wpa_supplicant/src/rsn_supp\wpa_i.h **** static inline void wpa_sm_cancel_auth_timeout(struct wpa_sm *sm)
 283:C:/Users/stapi/OneDrive/Desktop/GD32VW553/V1_MQTT_OK/GD32VW55X_Wifi_BLE_SDK/GD32VW55x_RELEASE_V1.0.2/MSDK/wpa_supplicant/src/rsn_supp\wpa_i.h **** {
 284:C:/Users/stapi/OneDrive/Desktop/GD32VW553/V1_MQTT_OK/GD32VW55X_Wifi_BLE_SDK/GD32VW55x_RELEASE_V1.0.2/MSDK/wpa_supplicant/src/rsn_supp\wpa_i.h **** 	WPA_ASSERT(sm->ctx->cancel_auth_timeout);
 285:C:/Users/stapi/OneDrive/Desktop/GD32VW553/V1_MQTT_OK/GD32VW55X_Wifi_BLE_SDK/GD32VW55x_RELEASE_V1.0.2/MSDK/wpa_supplicant/src/rsn_supp\wpa_i.h **** 	sm->ctx->cancel_auth_timeout(sm->ctx->ctx);
 286:C:/Users/stapi/OneDrive/Desktop/GD32VW553/V1_MQTT_OK/GD32VW55X_Wifi_BLE_SDK/GD32VW55x_RELEASE_V1.0.2/MSDK/wpa_supplicant/src/rsn_supp\wpa_i.h **** }
 287:C:/Users/stapi/OneDrive/Desktop/GD32VW553/V1_MQTT_OK/GD32VW55X_Wifi_BLE_SDK/GD32VW55x_RELEASE_V1.0.2/MSDK/wpa_supplicant/src/rsn_supp\wpa_i.h **** 
 288:C:/Users/stapi/OneDrive/Desktop/GD32VW553/V1_MQTT_OK/GD32VW55X_Wifi_BLE_SDK/GD32VW55x_RELEASE_V1.0.2/MSDK/wpa_supplicant/src/rsn_supp\wpa_i.h **** static inline u8 * wpa_sm_alloc_eapol(struct wpa_sm *sm, u8 type,
 289:C:/Users/stapi/OneDrive/Desktop/GD32VW553/V1_MQTT_OK/GD32VW55X_Wifi_BLE_SDK/GD32VW55x_RELEASE_V1.0.2/MSDK/wpa_supplicant/src/rsn_supp\wpa_i.h **** 				      const void *data, u16 data_len,
 290:C:/Users/stapi/OneDrive/Desktop/GD32VW553/V1_MQTT_OK/GD32VW55X_Wifi_BLE_SDK/GD32VW55x_RELEASE_V1.0.2/MSDK/wpa_supplicant/src/rsn_supp\wpa_i.h **** 				      size_t *msg_len, void **data_pos)
 291:C:/Users/stapi/OneDrive/Desktop/GD32VW553/V1_MQTT_OK/GD32VW55X_Wifi_BLE_SDK/GD32VW55x_RELEASE_V1.0.2/MSDK/wpa_supplicant/src/rsn_supp\wpa_i.h **** {
 292:C:/Users/stapi/OneDrive/Desktop/GD32VW553/V1_MQTT_OK/GD32VW55X_Wifi_BLE_SDK/GD32VW55x_RELEASE_V1.0.2/MSDK/wpa_supplicant/src/rsn_supp\wpa_i.h **** 	WPA_ASSERT(sm->ctx->alloc_eapol);
 293:C:/Users/stapi/OneDrive/Desktop/GD32VW553/V1_MQTT_OK/GD32VW55X_Wifi_BLE_SDK/GD32VW55x_RELEASE_V1.0.2/MSDK/wpa_supplicant/src/rsn_supp\wpa_i.h **** 	return sm->ctx->alloc_eapol(sm->ctx->ctx, type, data, data_len,
 294:C:/Users/stapi/OneDrive/Desktop/GD32VW553/V1_MQTT_OK/GD32VW55X_Wifi_BLE_SDK/GD32VW55x_RELEASE_V1.0.2/MSDK/wpa_supplicant/src/rsn_supp\wpa_i.h **** 				    msg_len, data_pos);
 295:C:/Users/stapi/OneDrive/Desktop/GD32VW553/V1_MQTT_OK/GD32VW55X_Wifi_BLE_SDK/GD32VW55x_RELEASE_V1.0.2/MSDK/wpa_supplicant/src/rsn_supp\wpa_i.h **** }
 296:C:/Users/stapi/OneDrive/Desktop/GD32VW553/V1_MQTT_OK/GD32VW55X_Wifi_BLE_SDK/GD32VW55x_RELEASE_V1.0.2/MSDK/wpa_supplicant/src/rsn_supp\wpa_i.h **** 
 297:C:/Users/stapi/OneDrive/Desktop/GD32VW553/V1_MQTT_OK/GD32VW55X_Wifi_BLE_SDK/GD32VW55x_RELEASE_V1.0.2/MSDK/wpa_supplicant/src/rsn_supp\wpa_i.h **** static inline int wpa_sm_add_pmkid(struct wpa_sm *sm, void *network_ctx,
 298:C:/Users/stapi/OneDrive/Desktop/GD32VW553/V1_MQTT_OK/GD32VW55X_Wifi_BLE_SDK/GD32VW55x_RELEASE_V1.0.2/MSDK/wpa_supplicant/src/rsn_supp\wpa_i.h **** 				   const u8 *bssid, const u8 *pmkid,
 299:C:/Users/stapi/OneDrive/Desktop/GD32VW553/V1_MQTT_OK/GD32VW55X_Wifi_BLE_SDK/GD32VW55x_RELEASE_V1.0.2/MSDK/wpa_supplicant/src/rsn_supp\wpa_i.h **** 				   const u8 *cache_id, const u8 *pmk,
 300:C:/Users/stapi/OneDrive/Desktop/GD32VW553/V1_MQTT_OK/GD32VW55X_Wifi_BLE_SDK/GD32VW55x_RELEASE_V1.0.2/MSDK/wpa_supplicant/src/rsn_supp\wpa_i.h **** 				   size_t pmk_len, u32 pmk_lifetime,
 301:C:/Users/stapi/OneDrive/Desktop/GD32VW553/V1_MQTT_OK/GD32VW55X_Wifi_BLE_SDK/GD32VW55x_RELEASE_V1.0.2/MSDK/wpa_supplicant/src/rsn_supp\wpa_i.h **** 				   u8 pmk_reauth_threshold, int akmp)
 302:C:/Users/stapi/OneDrive/Desktop/GD32VW553/V1_MQTT_OK/GD32VW55X_Wifi_BLE_SDK/GD32VW55x_RELEASE_V1.0.2/MSDK/wpa_supplicant/src/rsn_supp\wpa_i.h **** {
 303:C:/Users/stapi/OneDrive/Desktop/GD32VW553/V1_MQTT_OK/GD32VW55X_Wifi_BLE_SDK/GD32VW55x_RELEASE_V1.0.2/MSDK/wpa_supplicant/src/rsn_supp\wpa_i.h **** 	WPA_ASSERT(sm->ctx->add_pmkid);
 304:C:/Users/stapi/OneDrive/Desktop/GD32VW553/V1_MQTT_OK/GD32VW55X_Wifi_BLE_SDK/GD32VW55x_RELEASE_V1.0.2/MSDK/wpa_supplicant/src/rsn_supp\wpa_i.h **** 	return sm->ctx->add_pmkid(sm->ctx->ctx, network_ctx, bssid, pmkid,
 305:C:/Users/stapi/OneDrive/Desktop/GD32VW553/V1_MQTT_OK/GD32VW55X_Wifi_BLE_SDK/GD32VW55x_RELEASE_V1.0.2/MSDK/wpa_supplicant/src/rsn_supp\wpa_i.h **** 				  cache_id, pmk, pmk_len, pmk_lifetime,
 306:C:/Users/stapi/OneDrive/Desktop/GD32VW553/V1_MQTT_OK/GD32VW55X_Wifi_BLE_SDK/GD32VW55x_RELEASE_V1.0.2/MSDK/wpa_supplicant/src/rsn_supp\wpa_i.h **** 				  pmk_reauth_threshold, akmp);
 307:C:/Users/stapi/OneDrive/Desktop/GD32VW553/V1_MQTT_OK/GD32VW55X_Wifi_BLE_SDK/GD32VW55x_RELEASE_V1.0.2/MSDK/wpa_supplicant/src/rsn_supp\wpa_i.h **** }
 308:C:/Users/stapi/OneDrive/Desktop/GD32VW553/V1_MQTT_OK/GD32VW55X_Wifi_BLE_SDK/GD32VW55x_RELEASE_V1.0.2/MSDK/wpa_supplicant/src/rsn_supp\wpa_i.h **** 
 309:C:/Users/stapi/OneDrive/Desktop/GD32VW553/V1_MQTT_OK/GD32VW55X_Wifi_BLE_SDK/GD32VW55x_RELEASE_V1.0.2/MSDK/wpa_supplicant/src/rsn_supp\wpa_i.h **** static inline int wpa_sm_remove_pmkid(struct wpa_sm *sm, void *network_ctx,
 310:C:/Users/stapi/OneDrive/Desktop/GD32VW553/V1_MQTT_OK/GD32VW55X_Wifi_BLE_SDK/GD32VW55x_RELEASE_V1.0.2/MSDK/wpa_supplicant/src/rsn_supp\wpa_i.h **** 				      const u8 *bssid, const u8 *pmkid,
 311:C:/Users/stapi/OneDrive/Desktop/GD32VW553/V1_MQTT_OK/GD32VW55X_Wifi_BLE_SDK/GD32VW55x_RELEASE_V1.0.2/MSDK/wpa_supplicant/src/rsn_supp\wpa_i.h **** 				      const u8 *cache_id)
 312:C:/Users/stapi/OneDrive/Desktop/GD32VW553/V1_MQTT_OK/GD32VW55X_Wifi_BLE_SDK/GD32VW55x_RELEASE_V1.0.2/MSDK/wpa_supplicant/src/rsn_supp\wpa_i.h **** {
 313:C:/Users/stapi/OneDrive/Desktop/GD32VW553/V1_MQTT_OK/GD32VW55X_Wifi_BLE_SDK/GD32VW55x_RELEASE_V1.0.2/MSDK/wpa_supplicant/src/rsn_supp\wpa_i.h **** 	WPA_ASSERT(sm->ctx->remove_pmkid);
  75              		.loc 3 313 2 is_stmt 1 discriminator 4
  76              		.loc 3 313 2 discriminator 4
  77              		.loc 3 313 2 discriminator 4
 314:C:/Users/stapi/OneDrive/Desktop/GD32VW553/V1_MQTT_OK/GD32VW55X_Wifi_BLE_SDK/GD32VW55x_RELEASE_V1.0.2/MSDK/wpa_supplicant/src/rsn_supp\wpa_i.h **** 	return sm->ctx->remove_pmkid(sm->ctx->ctx, network_ctx, bssid, pmkid,
  78              		.loc 3 314 2 discriminator 4
  79              		.loc 3 314 9 is_stmt 0 discriminator 4
  80 002c 03A88703 		lw	a6,56(a5)
  81 0030 8843     		lw	a0,0(a5)
  82              	.LVL7:
  83 0032 0298     		jalr	a6
  84              	.LVL8:
  85              	.LBE45:
  86              	.LBE44:
  52:C:/Users/stapi/OneDrive/Desktop/GD32VW553/V1_MQTT_OK/GD32VW55X_Wifi_BLE_SDK/GD32VW55x_RELEASE_V1.0.2/MSDK/wpa_supplicant/src/rsn_supp\pmksa_cache.c **** 	pmksa->free_cb(entry, pmksa->ctx, reason);
  87              		.loc 1 52 2 is_stmt 1 discriminator 4
  52:C:/Users/stapi/OneDrive/Desktop/GD32VW553/V1_MQTT_OK/GD32VW55X_Wifi_BLE_SDK/GD32VW55x_RELEASE_V1.0.2/MSDK/wpa_supplicant/src/rsn_supp\pmksa_cache.c **** 	pmksa->free_cb(entry, pmksa->ctx, reason);
  88              		.loc 1 52 20 is_stmt 0 discriminator 4
  89 0034 DC40     		lw	a5,4(s1)
  53:C:/Users/stapi/OneDrive/Desktop/GD32VW553/V1_MQTT_OK/GD32VW55X_Wifi_BLE_SDK/GD32VW55x_RELEASE_V1.0.2/MSDK/wpa_supplicant/src/rsn_supp\pmksa_cache.c **** 	_pmksa_cache_free_entry(entry);
  90              		.loc 1 53 2 discriminator 4
  91 0036 CC48     		lw	a1,20(s1)
  92 0038 4A86     		mv	a2,s2
  52:C:/Users/stapi/OneDrive/Desktop/GD32VW553/V1_MQTT_OK/GD32VW55X_Wifi_BLE_SDK/GD32VW55x_RELEASE_V1.0.2/MSDK/wpa_supplicant/src/rsn_supp\pmksa_cache.c **** 	pmksa->free_cb(entry, pmksa->ctx, reason);
  93              		.loc 1 52 20 discriminator 4
  94 003a FD17     		addi	a5,a5,-1
  95 003c DCC0     		sw	a5,4(s1)
  53:C:/Users/stapi/OneDrive/Desktop/GD32VW553/V1_MQTT_OK/GD32VW55X_Wifi_BLE_SDK/GD32VW55x_RELEASE_V1.0.2/MSDK/wpa_supplicant/src/rsn_supp\pmksa_cache.c **** 	_pmksa_cache_free_entry(entry);
  96              		.loc 1 53 2 is_stmt 1 discriminator 4
  97 003e DC44     		lw	a5,12(s1)
  98 0040 2285     		mv	a0,s0
  99 0042 8297     		jalr	a5
 100              	.LVL9:
  54:C:/Users/stapi/OneDrive/Desktop/GD32VW553/V1_MQTT_OK/GD32VW55X_Wifi_BLE_SDK/GD32VW55x_RELEASE_V1.0.2/MSDK/wpa_supplicant/src/rsn_supp\pmksa_cache.c **** }
 101              		.loc 1 54 2 discriminator 4
 102              	.LBB46:
 103              	.LBB47:
  40:C:/Users/stapi/OneDrive/Desktop/GD32VW553/V1_MQTT_OK/GD32VW55X_Wifi_BLE_SDK/GD32VW55x_RELEASE_V1.0.2/MSDK/wpa_supplicant/src/rsn_supp\pmksa_cache.c **** }
 104              		.loc 1 40 2 discriminator 4
 105 0044 9305C007 		li	a1,124
 106 0048 2285     		mv	a0,s0
 107 004a 97000000 		call	bin_clear_free
 107      E7800000 
 108              	.LVL10:
 109              	.LBE47:
 110              	.LBE46:
  55:C:/Users/stapi/OneDrive/Desktop/GD32VW553/V1_MQTT_OK/GD32VW55X_Wifi_BLE_SDK/GD32VW55x_RELEASE_V1.0.2/MSDK/wpa_supplicant/src/rsn_supp\pmksa_cache.c **** 
 111              		.loc 1 55 1 is_stmt 0 discriminator 4
 112 0052 17030000 		tail	__riscv_restore_3
 112      67000300 
 113              		.cfi_restore 18
 114              		.cfi_restore 9
 115              		.cfi_restore 8
 116              		.cfi_restore 1
 117              		.cfi_def_cfa_offset 0
 118              		.cfi_endproc
 119              	.LFE160:
 121              		.section	.text.pmksa_cache_get,"ax",@progbits
 122              		.align	1
 123              		.globl	pmksa_cache_get
 125              	pmksa_cache_get:
 126              	.LFB168:
 103:C:/Users/stapi/OneDrive/Desktop/GD32VW553/V1_MQTT_OK/GD32VW55X_Wifi_BLE_SDK/GD32VW55x_RELEASE_V1.0.2/MSDK/wpa_supplicant/src/rsn_supp\pmksa_cache.c **** 
 104:C:/Users/stapi/OneDrive/Desktop/GD32VW553/V1_MQTT_OK/GD32VW55X_Wifi_BLE_SDK/GD32VW55x_RELEASE_V1.0.2/MSDK/wpa_supplicant/src/rsn_supp\pmksa_cache.c **** 
 105:C:/Users/stapi/OneDrive/Desktop/GD32VW553/V1_MQTT_OK/GD32VW55X_Wifi_BLE_SDK/GD32VW55x_RELEASE_V1.0.2/MSDK/wpa_supplicant/src/rsn_supp\pmksa_cache.c **** static void pmksa_cache_set_expiration(struct rsn_pmksa_cache *pmksa)
 106:C:/Users/stapi/OneDrive/Desktop/GD32VW553/V1_MQTT_OK/GD32VW55X_Wifi_BLE_SDK/GD32VW55x_RELEASE_V1.0.2/MSDK/wpa_supplicant/src/rsn_supp\pmksa_cache.c **** {
 107:C:/Users/stapi/OneDrive/Desktop/GD32VW553/V1_MQTT_OK/GD32VW55X_Wifi_BLE_SDK/GD32VW55x_RELEASE_V1.0.2/MSDK/wpa_supplicant/src/rsn_supp\pmksa_cache.c **** 	int sec;
 108:C:/Users/stapi/OneDrive/Desktop/GD32VW553/V1_MQTT_OK/GD32VW55X_Wifi_BLE_SDK/GD32VW55x_RELEASE_V1.0.2/MSDK/wpa_supplicant/src/rsn_supp\pmksa_cache.c **** 	struct rsn_pmksa_cache_entry *entry;
 109:C:/Users/stapi/OneDrive/Desktop/GD32VW553/V1_MQTT_OK/GD32VW55X_Wifi_BLE_SDK/GD32VW55x_RELEASE_V1.0.2/MSDK/wpa_supplicant/src/rsn_supp\pmksa_cache.c **** 	struct os_reltime now;
 110:C:/Users/stapi/OneDrive/Desktop/GD32VW553/V1_MQTT_OK/GD32VW55X_Wifi_BLE_SDK/GD32VW55x_RELEASE_V1.0.2/MSDK/wpa_supplicant/src/rsn_supp\pmksa_cache.c **** 
 111:C:/Users/stapi/OneDrive/Desktop/GD32VW553/V1_MQTT_OK/GD32VW55X_Wifi_BLE_SDK/GD32VW55x_RELEASE_V1.0.2/MSDK/wpa_supplicant/src/rsn_supp\pmksa_cache.c **** 	eloop_cancel_timeout(pmksa_cache_expire, pmksa, NULL);
 112:C:/Users/stapi/OneDrive/Desktop/GD32VW553/V1_MQTT_OK/GD32VW55X_Wifi_BLE_SDK/GD32VW55x_RELEASE_V1.0.2/MSDK/wpa_supplicant/src/rsn_supp\pmksa_cache.c **** 	eloop_cancel_timeout(pmksa_cache_reauth, pmksa, NULL);
 113:C:/Users/stapi/OneDrive/Desktop/GD32VW553/V1_MQTT_OK/GD32VW55X_Wifi_BLE_SDK/GD32VW55x_RELEASE_V1.0.2/MSDK/wpa_supplicant/src/rsn_supp\pmksa_cache.c **** 	if (pmksa->pmksa == NULL)
 114:C:/Users/stapi/OneDrive/Desktop/GD32VW553/V1_MQTT_OK/GD32VW55X_Wifi_BLE_SDK/GD32VW55x_RELEASE_V1.0.2/MSDK/wpa_supplicant/src/rsn_supp\pmksa_cache.c **** 		return;
 115:C:/Users/stapi/OneDrive/Desktop/GD32VW553/V1_MQTT_OK/GD32VW55X_Wifi_BLE_SDK/GD32VW55x_RELEASE_V1.0.2/MSDK/wpa_supplicant/src/rsn_supp\pmksa_cache.c **** 	os_get_reltime(&now);
 116:C:/Users/stapi/OneDrive/Desktop/GD32VW553/V1_MQTT_OK/GD32VW55X_Wifi_BLE_SDK/GD32VW55x_RELEASE_V1.0.2/MSDK/wpa_supplicant/src/rsn_supp\pmksa_cache.c **** 	sec = pmksa->pmksa->expiration - now.sec;
 117:C:/Users/stapi/OneDrive/Desktop/GD32VW553/V1_MQTT_OK/GD32VW55X_Wifi_BLE_SDK/GD32VW55x_RELEASE_V1.0.2/MSDK/wpa_supplicant/src/rsn_supp\pmksa_cache.c **** 	if (sec < 0) {
 118:C:/Users/stapi/OneDrive/Desktop/GD32VW553/V1_MQTT_OK/GD32VW55X_Wifi_BLE_SDK/GD32VW55x_RELEASE_V1.0.2/MSDK/wpa_supplicant/src/rsn_supp\pmksa_cache.c **** 		sec = 0;
 119:C:/Users/stapi/OneDrive/Desktop/GD32VW553/V1_MQTT_OK/GD32VW55X_Wifi_BLE_SDK/GD32VW55x_RELEASE_V1.0.2/MSDK/wpa_supplicant/src/rsn_supp\pmksa_cache.c **** 		if (wpa_key_mgmt_sae(pmksa->pmksa->akmp) &&
 120:C:/Users/stapi/OneDrive/Desktop/GD32VW553/V1_MQTT_OK/GD32VW55X_Wifi_BLE_SDK/GD32VW55x_RELEASE_V1.0.2/MSDK/wpa_supplicant/src/rsn_supp\pmksa_cache.c **** 		    pmksa->is_current_cb(pmksa->pmksa, pmksa->ctx)) {
 121:C:/Users/stapi/OneDrive/Desktop/GD32VW553/V1_MQTT_OK/GD32VW55X_Wifi_BLE_SDK/GD32VW55x_RELEASE_V1.0.2/MSDK/wpa_supplicant/src/rsn_supp\pmksa_cache.c **** 			/* Do not continue polling for the current PMKSA entry
 122:C:/Users/stapi/OneDrive/Desktop/GD32VW553/V1_MQTT_OK/GD32VW55X_Wifi_BLE_SDK/GD32VW55x_RELEASE_V1.0.2/MSDK/wpa_supplicant/src/rsn_supp\pmksa_cache.c **** 			 * from SAE to expire every second. Use the expiration
 123:C:/Users/stapi/OneDrive/Desktop/GD32VW553/V1_MQTT_OK/GD32VW55X_Wifi_BLE_SDK/GD32VW55x_RELEASE_V1.0.2/MSDK/wpa_supplicant/src/rsn_supp\pmksa_cache.c **** 			 * time to the following entry, if any, and wait at
 124:C:/Users/stapi/OneDrive/Desktop/GD32VW553/V1_MQTT_OK/GD32VW55X_Wifi_BLE_SDK/GD32VW55x_RELEASE_V1.0.2/MSDK/wpa_supplicant/src/rsn_supp\pmksa_cache.c **** 			 * maximum 10 minutes to check again.
 125:C:/Users/stapi/OneDrive/Desktop/GD32VW553/V1_MQTT_OK/GD32VW55X_Wifi_BLE_SDK/GD32VW55x_RELEASE_V1.0.2/MSDK/wpa_supplicant/src/rsn_supp\pmksa_cache.c **** 			 */
 126:C:/Users/stapi/OneDrive/Desktop/GD32VW553/V1_MQTT_OK/GD32VW55X_Wifi_BLE_SDK/GD32VW55x_RELEASE_V1.0.2/MSDK/wpa_supplicant/src/rsn_supp\pmksa_cache.c **** 			entry = pmksa->pmksa->next;
 127:C:/Users/stapi/OneDrive/Desktop/GD32VW553/V1_MQTT_OK/GD32VW55X_Wifi_BLE_SDK/GD32VW55x_RELEASE_V1.0.2/MSDK/wpa_supplicant/src/rsn_supp\pmksa_cache.c **** 			if (entry) {
 128:C:/Users/stapi/OneDrive/Desktop/GD32VW553/V1_MQTT_OK/GD32VW55X_Wifi_BLE_SDK/GD32VW55x_RELEASE_V1.0.2/MSDK/wpa_supplicant/src/rsn_supp\pmksa_cache.c **** 				sec = entry->expiration - now.sec;
 129:C:/Users/stapi/OneDrive/Desktop/GD32VW553/V1_MQTT_OK/GD32VW55X_Wifi_BLE_SDK/GD32VW55x_RELEASE_V1.0.2/MSDK/wpa_supplicant/src/rsn_supp\pmksa_cache.c **** 				if (sec < 0)
 130:C:/Users/stapi/OneDrive/Desktop/GD32VW553/V1_MQTT_OK/GD32VW55X_Wifi_BLE_SDK/GD32VW55x_RELEASE_V1.0.2/MSDK/wpa_supplicant/src/rsn_supp\pmksa_cache.c **** 					sec = 0;
 131:C:/Users/stapi/OneDrive/Desktop/GD32VW553/V1_MQTT_OK/GD32VW55X_Wifi_BLE_SDK/GD32VW55x_RELEASE_V1.0.2/MSDK/wpa_supplicant/src/rsn_supp\pmksa_cache.c **** 				else if (sec > 600)
 132:C:/Users/stapi/OneDrive/Desktop/GD32VW553/V1_MQTT_OK/GD32VW55X_Wifi_BLE_SDK/GD32VW55x_RELEASE_V1.0.2/MSDK/wpa_supplicant/src/rsn_supp\pmksa_cache.c **** 					sec = 600;
 133:C:/Users/stapi/OneDrive/Desktop/GD32VW553/V1_MQTT_OK/GD32VW55X_Wifi_BLE_SDK/GD32VW55x_RELEASE_V1.0.2/MSDK/wpa_supplicant/src/rsn_supp\pmksa_cache.c **** 			} else {
 134:C:/Users/stapi/OneDrive/Desktop/GD32VW553/V1_MQTT_OK/GD32VW55X_Wifi_BLE_SDK/GD32VW55x_RELEASE_V1.0.2/MSDK/wpa_supplicant/src/rsn_supp\pmksa_cache.c **** 				sec = 600;
 135:C:/Users/stapi/OneDrive/Desktop/GD32VW553/V1_MQTT_OK/GD32VW55X_Wifi_BLE_SDK/GD32VW55x_RELEASE_V1.0.2/MSDK/wpa_supplicant/src/rsn_supp\pmksa_cache.c **** 			}
 136:C:/Users/stapi/OneDrive/Desktop/GD32VW553/V1_MQTT_OK/GD32VW55X_Wifi_BLE_SDK/GD32VW55x_RELEASE_V1.0.2/MSDK/wpa_supplicant/src/rsn_supp\pmksa_cache.c **** 		}
 137:C:/Users/stapi/OneDrive/Desktop/GD32VW553/V1_MQTT_OK/GD32VW55X_Wifi_BLE_SDK/GD32VW55x_RELEASE_V1.0.2/MSDK/wpa_supplicant/src/rsn_supp\pmksa_cache.c **** 	}
 138:C:/Users/stapi/OneDrive/Desktop/GD32VW553/V1_MQTT_OK/GD32VW55X_Wifi_BLE_SDK/GD32VW55x_RELEASE_V1.0.2/MSDK/wpa_supplicant/src/rsn_supp\pmksa_cache.c **** 	eloop_register_timeout(sec + 1, 0, pmksa_cache_expire, pmksa, NULL);
 139:C:/Users/stapi/OneDrive/Desktop/GD32VW553/V1_MQTT_OK/GD32VW55X_Wifi_BLE_SDK/GD32VW55x_RELEASE_V1.0.2/MSDK/wpa_supplicant/src/rsn_supp\pmksa_cache.c **** 
 140:C:/Users/stapi/OneDrive/Desktop/GD32VW553/V1_MQTT_OK/GD32VW55X_Wifi_BLE_SDK/GD32VW55x_RELEASE_V1.0.2/MSDK/wpa_supplicant/src/rsn_supp\pmksa_cache.c **** 	entry = pmksa->sm->cur_pmksa ? pmksa->sm->cur_pmksa :
 141:C:/Users/stapi/OneDrive/Desktop/GD32VW553/V1_MQTT_OK/GD32VW55X_Wifi_BLE_SDK/GD32VW55x_RELEASE_V1.0.2/MSDK/wpa_supplicant/src/rsn_supp\pmksa_cache.c **** 		pmksa_cache_get(pmksa, pmksa->sm->bssid, NULL, NULL, 0);
 142:C:/Users/stapi/OneDrive/Desktop/GD32VW553/V1_MQTT_OK/GD32VW55X_Wifi_BLE_SDK/GD32VW55x_RELEASE_V1.0.2/MSDK/wpa_supplicant/src/rsn_supp\pmksa_cache.c **** 	if (entry && !wpa_key_mgmt_sae(entry->akmp)) {
 143:C:/Users/stapi/OneDrive/Desktop/GD32VW553/V1_MQTT_OK/GD32VW55X_Wifi_BLE_SDK/GD32VW55x_RELEASE_V1.0.2/MSDK/wpa_supplicant/src/rsn_supp\pmksa_cache.c **** 		sec = pmksa->pmksa->reauth_time - now.sec;
 144:C:/Users/stapi/OneDrive/Desktop/GD32VW553/V1_MQTT_OK/GD32VW55X_Wifi_BLE_SDK/GD32VW55x_RELEASE_V1.0.2/MSDK/wpa_supplicant/src/rsn_supp\pmksa_cache.c **** 		if (sec < 0)
 145:C:/Users/stapi/OneDrive/Desktop/GD32VW553/V1_MQTT_OK/GD32VW55X_Wifi_BLE_SDK/GD32VW55x_RELEASE_V1.0.2/MSDK/wpa_supplicant/src/rsn_supp\pmksa_cache.c **** 			sec = 0;
 146:C:/Users/stapi/OneDrive/Desktop/GD32VW553/V1_MQTT_OK/GD32VW55X_Wifi_BLE_SDK/GD32VW55x_RELEASE_V1.0.2/MSDK/wpa_supplicant/src/rsn_supp\pmksa_cache.c **** 		eloop_register_timeout(sec, 0, pmksa_cache_reauth, pmksa,
 147:C:/Users/stapi/OneDrive/Desktop/GD32VW553/V1_MQTT_OK/GD32VW55X_Wifi_BLE_SDK/GD32VW55x_RELEASE_V1.0.2/MSDK/wpa_supplicant/src/rsn_supp\pmksa_cache.c **** 				       NULL);
 148:C:/Users/stapi/OneDrive/Desktop/GD32VW553/V1_MQTT_OK/GD32VW55X_Wifi_BLE_SDK/GD32VW55x_RELEASE_V1.0.2/MSDK/wpa_supplicant/src/rsn_supp\pmksa_cache.c **** 	}
 149:C:/Users/stapi/OneDrive/Desktop/GD32VW553/V1_MQTT_OK/GD32VW55X_Wifi_BLE_SDK/GD32VW55x_RELEASE_V1.0.2/MSDK/wpa_supplicant/src/rsn_supp\pmksa_cache.c **** }
 150:C:/Users/stapi/OneDrive/Desktop/GD32VW553/V1_MQTT_OK/GD32VW55X_Wifi_BLE_SDK/GD32VW55x_RELEASE_V1.0.2/MSDK/wpa_supplicant/src/rsn_supp\pmksa_cache.c **** 
 151:C:/Users/stapi/OneDrive/Desktop/GD32VW553/V1_MQTT_OK/GD32VW55X_Wifi_BLE_SDK/GD32VW55x_RELEASE_V1.0.2/MSDK/wpa_supplicant/src/rsn_supp\pmksa_cache.c **** 
 152:C:/Users/stapi/OneDrive/Desktop/GD32VW553/V1_MQTT_OK/GD32VW55X_Wifi_BLE_SDK/GD32VW55x_RELEASE_V1.0.2/MSDK/wpa_supplicant/src/rsn_supp\pmksa_cache.c **** /**
 153:C:/Users/stapi/OneDrive/Desktop/GD32VW553/V1_MQTT_OK/GD32VW55X_Wifi_BLE_SDK/GD32VW55x_RELEASE_V1.0.2/MSDK/wpa_supplicant/src/rsn_supp\pmksa_cache.c ****  * pmksa_cache_add - Add a PMKSA cache entry
 154:C:/Users/stapi/OneDrive/Desktop/GD32VW553/V1_MQTT_OK/GD32VW55X_Wifi_BLE_SDK/GD32VW55x_RELEASE_V1.0.2/MSDK/wpa_supplicant/src/rsn_supp\pmksa_cache.c ****  * @pmksa: Pointer to PMKSA cache data from pmksa_cache_init()
 155:C:/Users/stapi/OneDrive/Desktop/GD32VW553/V1_MQTT_OK/GD32VW55X_Wifi_BLE_SDK/GD32VW55x_RELEASE_V1.0.2/MSDK/wpa_supplicant/src/rsn_supp\pmksa_cache.c ****  * @pmk: The new pairwise master key
 156:C:/Users/stapi/OneDrive/Desktop/GD32VW553/V1_MQTT_OK/GD32VW55X_Wifi_BLE_SDK/GD32VW55x_RELEASE_V1.0.2/MSDK/wpa_supplicant/src/rsn_supp\pmksa_cache.c ****  * @pmk_len: PMK length in bytes, usually PMK_LEN (32)
 157:C:/Users/stapi/OneDrive/Desktop/GD32VW553/V1_MQTT_OK/GD32VW55X_Wifi_BLE_SDK/GD32VW55x_RELEASE_V1.0.2/MSDK/wpa_supplicant/src/rsn_supp\pmksa_cache.c ****  * @pmkid: Calculated PMKID
 158:C:/Users/stapi/OneDrive/Desktop/GD32VW553/V1_MQTT_OK/GD32VW55X_Wifi_BLE_SDK/GD32VW55x_RELEASE_V1.0.2/MSDK/wpa_supplicant/src/rsn_supp\pmksa_cache.c ****  * @kck: Key confirmation key or %NULL if not yet derived
 159:C:/Users/stapi/OneDrive/Desktop/GD32VW553/V1_MQTT_OK/GD32VW55X_Wifi_BLE_SDK/GD32VW55x_RELEASE_V1.0.2/MSDK/wpa_supplicant/src/rsn_supp\pmksa_cache.c ****  * @kck_len: KCK length in bytes
 160:C:/Users/stapi/OneDrive/Desktop/GD32VW553/V1_MQTT_OK/GD32VW55X_Wifi_BLE_SDK/GD32VW55x_RELEASE_V1.0.2/MSDK/wpa_supplicant/src/rsn_supp\pmksa_cache.c ****  * @aa: Authenticator address
 161:C:/Users/stapi/OneDrive/Desktop/GD32VW553/V1_MQTT_OK/GD32VW55X_Wifi_BLE_SDK/GD32VW55x_RELEASE_V1.0.2/MSDK/wpa_supplicant/src/rsn_supp\pmksa_cache.c ****  * @spa: Supplicant address
 162:C:/Users/stapi/OneDrive/Desktop/GD32VW553/V1_MQTT_OK/GD32VW55X_Wifi_BLE_SDK/GD32VW55x_RELEASE_V1.0.2/MSDK/wpa_supplicant/src/rsn_supp\pmksa_cache.c ****  * @network_ctx: Network configuration context for this PMK
 163:C:/Users/stapi/OneDrive/Desktop/GD32VW553/V1_MQTT_OK/GD32VW55X_Wifi_BLE_SDK/GD32VW55x_RELEASE_V1.0.2/MSDK/wpa_supplicant/src/rsn_supp\pmksa_cache.c ****  * @akmp: WPA_KEY_MGMT_* used in key derivation
 164:C:/Users/stapi/OneDrive/Desktop/GD32VW553/V1_MQTT_OK/GD32VW55X_Wifi_BLE_SDK/GD32VW55x_RELEASE_V1.0.2/MSDK/wpa_supplicant/src/rsn_supp\pmksa_cache.c ****  * @cache_id: Pointer to FILS Cache Identifier or %NULL if not advertised
 165:C:/Users/stapi/OneDrive/Desktop/GD32VW553/V1_MQTT_OK/GD32VW55X_Wifi_BLE_SDK/GD32VW55x_RELEASE_V1.0.2/MSDK/wpa_supplicant/src/rsn_supp\pmksa_cache.c ****  * Returns: Pointer to the added PMKSA cache entry or %NULL on error
 166:C:/Users/stapi/OneDrive/Desktop/GD32VW553/V1_MQTT_OK/GD32VW55X_Wifi_BLE_SDK/GD32VW55x_RELEASE_V1.0.2/MSDK/wpa_supplicant/src/rsn_supp\pmksa_cache.c ****  *
 167:C:/Users/stapi/OneDrive/Desktop/GD32VW553/V1_MQTT_OK/GD32VW55X_Wifi_BLE_SDK/GD32VW55x_RELEASE_V1.0.2/MSDK/wpa_supplicant/src/rsn_supp\pmksa_cache.c ****  * This function create a PMKSA entry for a new PMK and adds it to the PMKSA
 168:C:/Users/stapi/OneDrive/Desktop/GD32VW553/V1_MQTT_OK/GD32VW55X_Wifi_BLE_SDK/GD32VW55x_RELEASE_V1.0.2/MSDK/wpa_supplicant/src/rsn_supp\pmksa_cache.c ****  * cache. If an old entry is already in the cache for the same Authenticator,
 169:C:/Users/stapi/OneDrive/Desktop/GD32VW553/V1_MQTT_OK/GD32VW55X_Wifi_BLE_SDK/GD32VW55x_RELEASE_V1.0.2/MSDK/wpa_supplicant/src/rsn_supp\pmksa_cache.c ****  * this entry will be replaced with the new entry. PMKID will be calculated
 170:C:/Users/stapi/OneDrive/Desktop/GD32VW553/V1_MQTT_OK/GD32VW55X_Wifi_BLE_SDK/GD32VW55x_RELEASE_V1.0.2/MSDK/wpa_supplicant/src/rsn_supp\pmksa_cache.c ****  * based on the PMK and the driver interface is notified of the new PMKID.
 171:C:/Users/stapi/OneDrive/Desktop/GD32VW553/V1_MQTT_OK/GD32VW55X_Wifi_BLE_SDK/GD32VW55x_RELEASE_V1.0.2/MSDK/wpa_supplicant/src/rsn_supp\pmksa_cache.c ****  */
 172:C:/Users/stapi/OneDrive/Desktop/GD32VW553/V1_MQTT_OK/GD32VW55X_Wifi_BLE_SDK/GD32VW55x_RELEASE_V1.0.2/MSDK/wpa_supplicant/src/rsn_supp\pmksa_cache.c **** struct rsn_pmksa_cache_entry *
 173:C:/Users/stapi/OneDrive/Desktop/GD32VW553/V1_MQTT_OK/GD32VW55X_Wifi_BLE_SDK/GD32VW55x_RELEASE_V1.0.2/MSDK/wpa_supplicant/src/rsn_supp\pmksa_cache.c **** pmksa_cache_add(struct rsn_pmksa_cache *pmksa, const u8 *pmk, size_t pmk_len,
 174:C:/Users/stapi/OneDrive/Desktop/GD32VW553/V1_MQTT_OK/GD32VW55X_Wifi_BLE_SDK/GD32VW55x_RELEASE_V1.0.2/MSDK/wpa_supplicant/src/rsn_supp\pmksa_cache.c **** 		const u8 *pmkid, const u8 *kck, size_t kck_len,
 175:C:/Users/stapi/OneDrive/Desktop/GD32VW553/V1_MQTT_OK/GD32VW55X_Wifi_BLE_SDK/GD32VW55x_RELEASE_V1.0.2/MSDK/wpa_supplicant/src/rsn_supp\pmksa_cache.c **** 		const u8 *aa, const u8 *spa, void *network_ctx, int akmp,
 176:C:/Users/stapi/OneDrive/Desktop/GD32VW553/V1_MQTT_OK/GD32VW55X_Wifi_BLE_SDK/GD32VW55x_RELEASE_V1.0.2/MSDK/wpa_supplicant/src/rsn_supp\pmksa_cache.c **** 		const u8 *cache_id)
 177:C:/Users/stapi/OneDrive/Desktop/GD32VW553/V1_MQTT_OK/GD32VW55X_Wifi_BLE_SDK/GD32VW55x_RELEASE_V1.0.2/MSDK/wpa_supplicant/src/rsn_supp\pmksa_cache.c **** {
 178:C:/Users/stapi/OneDrive/Desktop/GD32VW553/V1_MQTT_OK/GD32VW55X_Wifi_BLE_SDK/GD32VW55x_RELEASE_V1.0.2/MSDK/wpa_supplicant/src/rsn_supp\pmksa_cache.c **** 	struct rsn_pmksa_cache_entry *entry;
 179:C:/Users/stapi/OneDrive/Desktop/GD32VW553/V1_MQTT_OK/GD32VW55X_Wifi_BLE_SDK/GD32VW55x_RELEASE_V1.0.2/MSDK/wpa_supplicant/src/rsn_supp\pmksa_cache.c **** 	struct os_reltime now;
 180:C:/Users/stapi/OneDrive/Desktop/GD32VW553/V1_MQTT_OK/GD32VW55X_Wifi_BLE_SDK/GD32VW55x_RELEASE_V1.0.2/MSDK/wpa_supplicant/src/rsn_supp\pmksa_cache.c **** 
 181:C:/Users/stapi/OneDrive/Desktop/GD32VW553/V1_MQTT_OK/GD32VW55X_Wifi_BLE_SDK/GD32VW55x_RELEASE_V1.0.2/MSDK/wpa_supplicant/src/rsn_supp\pmksa_cache.c **** 	if (pmk_len > PMK_LEN_MAX)
 182:C:/Users/stapi/OneDrive/Desktop/GD32VW553/V1_MQTT_OK/GD32VW55X_Wifi_BLE_SDK/GD32VW55x_RELEASE_V1.0.2/MSDK/wpa_supplicant/src/rsn_supp\pmksa_cache.c **** 		return NULL;
 183:C:/Users/stapi/OneDrive/Desktop/GD32VW553/V1_MQTT_OK/GD32VW55X_Wifi_BLE_SDK/GD32VW55x_RELEASE_V1.0.2/MSDK/wpa_supplicant/src/rsn_supp\pmksa_cache.c **** 
 184:C:/Users/stapi/OneDrive/Desktop/GD32VW553/V1_MQTT_OK/GD32VW55X_Wifi_BLE_SDK/GD32VW55x_RELEASE_V1.0.2/MSDK/wpa_supplicant/src/rsn_supp\pmksa_cache.c **** 	if (wpa_key_mgmt_suite_b(akmp) && !kck)
 185:C:/Users/stapi/OneDrive/Desktop/GD32VW553/V1_MQTT_OK/GD32VW55X_Wifi_BLE_SDK/GD32VW55x_RELEASE_V1.0.2/MSDK/wpa_supplicant/src/rsn_supp\pmksa_cache.c **** 		return NULL;
 186:C:/Users/stapi/OneDrive/Desktop/GD32VW553/V1_MQTT_OK/GD32VW55X_Wifi_BLE_SDK/GD32VW55x_RELEASE_V1.0.2/MSDK/wpa_supplicant/src/rsn_supp\pmksa_cache.c **** 
 187:C:/Users/stapi/OneDrive/Desktop/GD32VW553/V1_MQTT_OK/GD32VW55X_Wifi_BLE_SDK/GD32VW55x_RELEASE_V1.0.2/MSDK/wpa_supplicant/src/rsn_supp\pmksa_cache.c **** 	entry = os_zalloc(sizeof(*entry));
 188:C:/Users/stapi/OneDrive/Desktop/GD32VW553/V1_MQTT_OK/GD32VW55X_Wifi_BLE_SDK/GD32VW55x_RELEASE_V1.0.2/MSDK/wpa_supplicant/src/rsn_supp\pmksa_cache.c **** 	if (entry == NULL)
 189:C:/Users/stapi/OneDrive/Desktop/GD32VW553/V1_MQTT_OK/GD32VW55X_Wifi_BLE_SDK/GD32VW55x_RELEASE_V1.0.2/MSDK/wpa_supplicant/src/rsn_supp\pmksa_cache.c **** 		return NULL;
 190:C:/Users/stapi/OneDrive/Desktop/GD32VW553/V1_MQTT_OK/GD32VW55X_Wifi_BLE_SDK/GD32VW55x_RELEASE_V1.0.2/MSDK/wpa_supplicant/src/rsn_supp\pmksa_cache.c **** 	os_memcpy(entry->pmk, pmk, pmk_len);
 191:C:/Users/stapi/OneDrive/Desktop/GD32VW553/V1_MQTT_OK/GD32VW55X_Wifi_BLE_SDK/GD32VW55x_RELEASE_V1.0.2/MSDK/wpa_supplicant/src/rsn_supp\pmksa_cache.c **** 	entry->pmk_len = pmk_len;
 192:C:/Users/stapi/OneDrive/Desktop/GD32VW553/V1_MQTT_OK/GD32VW55X_Wifi_BLE_SDK/GD32VW55x_RELEASE_V1.0.2/MSDK/wpa_supplicant/src/rsn_supp\pmksa_cache.c **** 	if (pmkid)
 193:C:/Users/stapi/OneDrive/Desktop/GD32VW553/V1_MQTT_OK/GD32VW55X_Wifi_BLE_SDK/GD32VW55x_RELEASE_V1.0.2/MSDK/wpa_supplicant/src/rsn_supp\pmksa_cache.c **** 		os_memcpy(entry->pmkid, pmkid, PMKID_LEN);
 194:C:/Users/stapi/OneDrive/Desktop/GD32VW553/V1_MQTT_OK/GD32VW55X_Wifi_BLE_SDK/GD32VW55x_RELEASE_V1.0.2/MSDK/wpa_supplicant/src/rsn_supp\pmksa_cache.c **** #ifdef IEEE8021X_EAPOL
 195:C:/Users/stapi/OneDrive/Desktop/GD32VW553/V1_MQTT_OK/GD32VW55X_Wifi_BLE_SDK/GD32VW55x_RELEASE_V1.0.2/MSDK/wpa_supplicant/src/rsn_supp\pmksa_cache.c **** 	else if (akmp == WPA_KEY_MGMT_IEEE8021X_SUITE_B_192)
 196:C:/Users/stapi/OneDrive/Desktop/GD32VW553/V1_MQTT_OK/GD32VW55X_Wifi_BLE_SDK/GD32VW55x_RELEASE_V1.0.2/MSDK/wpa_supplicant/src/rsn_supp\pmksa_cache.c **** 		rsn_pmkid_suite_b_192(kck, kck_len, aa, spa, entry->pmkid);
 197:C:/Users/stapi/OneDrive/Desktop/GD32VW553/V1_MQTT_OK/GD32VW55X_Wifi_BLE_SDK/GD32VW55x_RELEASE_V1.0.2/MSDK/wpa_supplicant/src/rsn_supp\pmksa_cache.c **** #endif /* IEEE8021X_EAPOL */
 198:C:/Users/stapi/OneDrive/Desktop/GD32VW553/V1_MQTT_OK/GD32VW55X_Wifi_BLE_SDK/GD32VW55x_RELEASE_V1.0.2/MSDK/wpa_supplicant/src/rsn_supp\pmksa_cache.c **** 	else if (wpa_key_mgmt_suite_b(akmp))
 199:C:/Users/stapi/OneDrive/Desktop/GD32VW553/V1_MQTT_OK/GD32VW55X_Wifi_BLE_SDK/GD32VW55x_RELEASE_V1.0.2/MSDK/wpa_supplicant/src/rsn_supp\pmksa_cache.c **** 		rsn_pmkid_suite_b(kck, kck_len, aa, spa, entry->pmkid);
 200:C:/Users/stapi/OneDrive/Desktop/GD32VW553/V1_MQTT_OK/GD32VW55X_Wifi_BLE_SDK/GD32VW55x_RELEASE_V1.0.2/MSDK/wpa_supplicant/src/rsn_supp\pmksa_cache.c **** 	else
 201:C:/Users/stapi/OneDrive/Desktop/GD32VW553/V1_MQTT_OK/GD32VW55X_Wifi_BLE_SDK/GD32VW55x_RELEASE_V1.0.2/MSDK/wpa_supplicant/src/rsn_supp\pmksa_cache.c **** 		rsn_pmkid(pmk, pmk_len, aa, spa, entry->pmkid, akmp);
 202:C:/Users/stapi/OneDrive/Desktop/GD32VW553/V1_MQTT_OK/GD32VW55X_Wifi_BLE_SDK/GD32VW55x_RELEASE_V1.0.2/MSDK/wpa_supplicant/src/rsn_supp\pmksa_cache.c **** 	os_get_reltime(&now);
 203:C:/Users/stapi/OneDrive/Desktop/GD32VW553/V1_MQTT_OK/GD32VW55X_Wifi_BLE_SDK/GD32VW55x_RELEASE_V1.0.2/MSDK/wpa_supplicant/src/rsn_supp\pmksa_cache.c **** 	entry->expiration = now.sec + pmksa->sm->dot11RSNAConfigPMKLifetime;
 204:C:/Users/stapi/OneDrive/Desktop/GD32VW553/V1_MQTT_OK/GD32VW55X_Wifi_BLE_SDK/GD32VW55x_RELEASE_V1.0.2/MSDK/wpa_supplicant/src/rsn_supp\pmksa_cache.c **** 	entry->reauth_time = now.sec + pmksa->sm->dot11RSNAConfigPMKLifetime *
 205:C:/Users/stapi/OneDrive/Desktop/GD32VW553/V1_MQTT_OK/GD32VW55X_Wifi_BLE_SDK/GD32VW55x_RELEASE_V1.0.2/MSDK/wpa_supplicant/src/rsn_supp\pmksa_cache.c **** 		pmksa->sm->dot11RSNAConfigPMKReauthThreshold / 100;
 206:C:/Users/stapi/OneDrive/Desktop/GD32VW553/V1_MQTT_OK/GD32VW55X_Wifi_BLE_SDK/GD32VW55x_RELEASE_V1.0.2/MSDK/wpa_supplicant/src/rsn_supp\pmksa_cache.c **** 	entry->akmp = akmp;
 207:C:/Users/stapi/OneDrive/Desktop/GD32VW553/V1_MQTT_OK/GD32VW55X_Wifi_BLE_SDK/GD32VW55x_RELEASE_V1.0.2/MSDK/wpa_supplicant/src/rsn_supp\pmksa_cache.c **** 	if (cache_id) {
 208:C:/Users/stapi/OneDrive/Desktop/GD32VW553/V1_MQTT_OK/GD32VW55X_Wifi_BLE_SDK/GD32VW55x_RELEASE_V1.0.2/MSDK/wpa_supplicant/src/rsn_supp\pmksa_cache.c **** 		entry->fils_cache_id_set = 1;
 209:C:/Users/stapi/OneDrive/Desktop/GD32VW553/V1_MQTT_OK/GD32VW55X_Wifi_BLE_SDK/GD32VW55x_RELEASE_V1.0.2/MSDK/wpa_supplicant/src/rsn_supp\pmksa_cache.c **** 		os_memcpy(entry->fils_cache_id, cache_id, FILS_CACHE_ID_LEN);
 210:C:/Users/stapi/OneDrive/Desktop/GD32VW553/V1_MQTT_OK/GD32VW55X_Wifi_BLE_SDK/GD32VW55x_RELEASE_V1.0.2/MSDK/wpa_supplicant/src/rsn_supp\pmksa_cache.c **** 	}
 211:C:/Users/stapi/OneDrive/Desktop/GD32VW553/V1_MQTT_OK/GD32VW55X_Wifi_BLE_SDK/GD32VW55x_RELEASE_V1.0.2/MSDK/wpa_supplicant/src/rsn_supp\pmksa_cache.c **** 	os_memcpy(entry->aa, aa, ETH_ALEN);
 212:C:/Users/stapi/OneDrive/Desktop/GD32VW553/V1_MQTT_OK/GD32VW55X_Wifi_BLE_SDK/GD32VW55x_RELEASE_V1.0.2/MSDK/wpa_supplicant/src/rsn_supp\pmksa_cache.c **** 	entry->network_ctx = network_ctx;
 213:C:/Users/stapi/OneDrive/Desktop/GD32VW553/V1_MQTT_OK/GD32VW55X_Wifi_BLE_SDK/GD32VW55x_RELEASE_V1.0.2/MSDK/wpa_supplicant/src/rsn_supp\pmksa_cache.c **** 
 214:C:/Users/stapi/OneDrive/Desktop/GD32VW553/V1_MQTT_OK/GD32VW55X_Wifi_BLE_SDK/GD32VW55x_RELEASE_V1.0.2/MSDK/wpa_supplicant/src/rsn_supp\pmksa_cache.c **** 	return pmksa_cache_add_entry(pmksa, entry);
 215:C:/Users/stapi/OneDrive/Desktop/GD32VW553/V1_MQTT_OK/GD32VW55X_Wifi_BLE_SDK/GD32VW55x_RELEASE_V1.0.2/MSDK/wpa_supplicant/src/rsn_supp\pmksa_cache.c **** }
 216:C:/Users/stapi/OneDrive/Desktop/GD32VW553/V1_MQTT_OK/GD32VW55X_Wifi_BLE_SDK/GD32VW55x_RELEASE_V1.0.2/MSDK/wpa_supplicant/src/rsn_supp\pmksa_cache.c **** 
 217:C:/Users/stapi/OneDrive/Desktop/GD32VW553/V1_MQTT_OK/GD32VW55X_Wifi_BLE_SDK/GD32VW55x_RELEASE_V1.0.2/MSDK/wpa_supplicant/src/rsn_supp\pmksa_cache.c **** 
 218:C:/Users/stapi/OneDrive/Desktop/GD32VW553/V1_MQTT_OK/GD32VW55X_Wifi_BLE_SDK/GD32VW55x_RELEASE_V1.0.2/MSDK/wpa_supplicant/src/rsn_supp\pmksa_cache.c **** struct rsn_pmksa_cache_entry *
 219:C:/Users/stapi/OneDrive/Desktop/GD32VW553/V1_MQTT_OK/GD32VW55X_Wifi_BLE_SDK/GD32VW55x_RELEASE_V1.0.2/MSDK/wpa_supplicant/src/rsn_supp\pmksa_cache.c **** pmksa_cache_add_entry(struct rsn_pmksa_cache *pmksa,
 220:C:/Users/stapi/OneDrive/Desktop/GD32VW553/V1_MQTT_OK/GD32VW55X_Wifi_BLE_SDK/GD32VW55x_RELEASE_V1.0.2/MSDK/wpa_supplicant/src/rsn_supp\pmksa_cache.c **** 		      struct rsn_pmksa_cache_entry *entry)
 221:C:/Users/stapi/OneDrive/Desktop/GD32VW553/V1_MQTT_OK/GD32VW55X_Wifi_BLE_SDK/GD32VW55x_RELEASE_V1.0.2/MSDK/wpa_supplicant/src/rsn_supp\pmksa_cache.c **** {
 222:C:/Users/stapi/OneDrive/Desktop/GD32VW553/V1_MQTT_OK/GD32VW55X_Wifi_BLE_SDK/GD32VW55x_RELEASE_V1.0.2/MSDK/wpa_supplicant/src/rsn_supp\pmksa_cache.c **** 	struct rsn_pmksa_cache_entry *pos, *prev;
 223:C:/Users/stapi/OneDrive/Desktop/GD32VW553/V1_MQTT_OK/GD32VW55X_Wifi_BLE_SDK/GD32VW55x_RELEASE_V1.0.2/MSDK/wpa_supplicant/src/rsn_supp\pmksa_cache.c **** 
 224:C:/Users/stapi/OneDrive/Desktop/GD32VW553/V1_MQTT_OK/GD32VW55X_Wifi_BLE_SDK/GD32VW55x_RELEASE_V1.0.2/MSDK/wpa_supplicant/src/rsn_supp\pmksa_cache.c **** 	/* Replace an old entry for the same Authenticator (if found) with the
 225:C:/Users/stapi/OneDrive/Desktop/GD32VW553/V1_MQTT_OK/GD32VW55X_Wifi_BLE_SDK/GD32VW55x_RELEASE_V1.0.2/MSDK/wpa_supplicant/src/rsn_supp\pmksa_cache.c **** 	 * new entry */
 226:C:/Users/stapi/OneDrive/Desktop/GD32VW553/V1_MQTT_OK/GD32VW55X_Wifi_BLE_SDK/GD32VW55x_RELEASE_V1.0.2/MSDK/wpa_supplicant/src/rsn_supp\pmksa_cache.c **** 	pos = pmksa->pmksa;
 227:C:/Users/stapi/OneDrive/Desktop/GD32VW553/V1_MQTT_OK/GD32VW55X_Wifi_BLE_SDK/GD32VW55x_RELEASE_V1.0.2/MSDK/wpa_supplicant/src/rsn_supp\pmksa_cache.c **** 	prev = NULL;
 228:C:/Users/stapi/OneDrive/Desktop/GD32VW553/V1_MQTT_OK/GD32VW55X_Wifi_BLE_SDK/GD32VW55x_RELEASE_V1.0.2/MSDK/wpa_supplicant/src/rsn_supp\pmksa_cache.c **** 	while (pos) {
 229:C:/Users/stapi/OneDrive/Desktop/GD32VW553/V1_MQTT_OK/GD32VW55X_Wifi_BLE_SDK/GD32VW55x_RELEASE_V1.0.2/MSDK/wpa_supplicant/src/rsn_supp\pmksa_cache.c **** 		if (os_memcmp(entry->aa, pos->aa, ETH_ALEN) == 0) {
 230:C:/Users/stapi/OneDrive/Desktop/GD32VW553/V1_MQTT_OK/GD32VW55X_Wifi_BLE_SDK/GD32VW55x_RELEASE_V1.0.2/MSDK/wpa_supplicant/src/rsn_supp\pmksa_cache.c **** 			if (pos->pmk_len == entry->pmk_len &&
 231:C:/Users/stapi/OneDrive/Desktop/GD32VW553/V1_MQTT_OK/GD32VW55X_Wifi_BLE_SDK/GD32VW55x_RELEASE_V1.0.2/MSDK/wpa_supplicant/src/rsn_supp\pmksa_cache.c **** 			    os_memcmp_const(pos->pmk, entry->pmk,
 232:C:/Users/stapi/OneDrive/Desktop/GD32VW553/V1_MQTT_OK/GD32VW55X_Wifi_BLE_SDK/GD32VW55x_RELEASE_V1.0.2/MSDK/wpa_supplicant/src/rsn_supp\pmksa_cache.c **** 					    entry->pmk_len) == 0 &&
 233:C:/Users/stapi/OneDrive/Desktop/GD32VW553/V1_MQTT_OK/GD32VW55X_Wifi_BLE_SDK/GD32VW55x_RELEASE_V1.0.2/MSDK/wpa_supplicant/src/rsn_supp\pmksa_cache.c **** 			    os_memcmp_const(pos->pmkid, entry->pmkid,
 234:C:/Users/stapi/OneDrive/Desktop/GD32VW553/V1_MQTT_OK/GD32VW55X_Wifi_BLE_SDK/GD32VW55x_RELEASE_V1.0.2/MSDK/wpa_supplicant/src/rsn_supp\pmksa_cache.c **** 					    PMKID_LEN) == 0) {
 235:C:/Users/stapi/OneDrive/Desktop/GD32VW553/V1_MQTT_OK/GD32VW55X_Wifi_BLE_SDK/GD32VW55x_RELEASE_V1.0.2/MSDK/wpa_supplicant/src/rsn_supp\pmksa_cache.c **** 				wpa_printf(MSG_DEBUG, "WPA: reusing previous "
 236:C:/Users/stapi/OneDrive/Desktop/GD32VW553/V1_MQTT_OK/GD32VW55X_Wifi_BLE_SDK/GD32VW55x_RELEASE_V1.0.2/MSDK/wpa_supplicant/src/rsn_supp\pmksa_cache.c **** 					   "PMKSA entry");
 237:C:/Users/stapi/OneDrive/Desktop/GD32VW553/V1_MQTT_OK/GD32VW55X_Wifi_BLE_SDK/GD32VW55x_RELEASE_V1.0.2/MSDK/wpa_supplicant/src/rsn_supp\pmksa_cache.c **** 				os_free(entry);
 238:C:/Users/stapi/OneDrive/Desktop/GD32VW553/V1_MQTT_OK/GD32VW55X_Wifi_BLE_SDK/GD32VW55x_RELEASE_V1.0.2/MSDK/wpa_supplicant/src/rsn_supp\pmksa_cache.c **** 				return pos;
 239:C:/Users/stapi/OneDrive/Desktop/GD32VW553/V1_MQTT_OK/GD32VW55X_Wifi_BLE_SDK/GD32VW55x_RELEASE_V1.0.2/MSDK/wpa_supplicant/src/rsn_supp\pmksa_cache.c **** 			}
 240:C:/Users/stapi/OneDrive/Desktop/GD32VW553/V1_MQTT_OK/GD32VW55X_Wifi_BLE_SDK/GD32VW55x_RELEASE_V1.0.2/MSDK/wpa_supplicant/src/rsn_supp\pmksa_cache.c **** 			if (prev == NULL)
 241:C:/Users/stapi/OneDrive/Desktop/GD32VW553/V1_MQTT_OK/GD32VW55X_Wifi_BLE_SDK/GD32VW55x_RELEASE_V1.0.2/MSDK/wpa_supplicant/src/rsn_supp\pmksa_cache.c **** 				pmksa->pmksa = pos->next;
 242:C:/Users/stapi/OneDrive/Desktop/GD32VW553/V1_MQTT_OK/GD32VW55X_Wifi_BLE_SDK/GD32VW55x_RELEASE_V1.0.2/MSDK/wpa_supplicant/src/rsn_supp\pmksa_cache.c **** 			else
 243:C:/Users/stapi/OneDrive/Desktop/GD32VW553/V1_MQTT_OK/GD32VW55X_Wifi_BLE_SDK/GD32VW55x_RELEASE_V1.0.2/MSDK/wpa_supplicant/src/rsn_supp\pmksa_cache.c **** 				prev->next = pos->next;
 244:C:/Users/stapi/OneDrive/Desktop/GD32VW553/V1_MQTT_OK/GD32VW55X_Wifi_BLE_SDK/GD32VW55x_RELEASE_V1.0.2/MSDK/wpa_supplicant/src/rsn_supp\pmksa_cache.c **** 
 245:C:/Users/stapi/OneDrive/Desktop/GD32VW553/V1_MQTT_OK/GD32VW55X_Wifi_BLE_SDK/GD32VW55x_RELEASE_V1.0.2/MSDK/wpa_supplicant/src/rsn_supp\pmksa_cache.c **** 			/*
 246:C:/Users/stapi/OneDrive/Desktop/GD32VW553/V1_MQTT_OK/GD32VW55X_Wifi_BLE_SDK/GD32VW55x_RELEASE_V1.0.2/MSDK/wpa_supplicant/src/rsn_supp\pmksa_cache.c **** 			 * If OKC is used, there may be other PMKSA cache
 247:C:/Users/stapi/OneDrive/Desktop/GD32VW553/V1_MQTT_OK/GD32VW55X_Wifi_BLE_SDK/GD32VW55x_RELEASE_V1.0.2/MSDK/wpa_supplicant/src/rsn_supp\pmksa_cache.c **** 			 * entries based on the same PMK. These needs to be
 248:C:/Users/stapi/OneDrive/Desktop/GD32VW553/V1_MQTT_OK/GD32VW55X_Wifi_BLE_SDK/GD32VW55x_RELEASE_V1.0.2/MSDK/wpa_supplicant/src/rsn_supp\pmksa_cache.c **** 			 * flushed so that a new entry can be created based on
 249:C:/Users/stapi/OneDrive/Desktop/GD32VW553/V1_MQTT_OK/GD32VW55X_Wifi_BLE_SDK/GD32VW55x_RELEASE_V1.0.2/MSDK/wpa_supplicant/src/rsn_supp\pmksa_cache.c **** 			 * the new PMK. Only clear other entries if they have a
 250:C:/Users/stapi/OneDrive/Desktop/GD32VW553/V1_MQTT_OK/GD32VW55X_Wifi_BLE_SDK/GD32VW55x_RELEASE_V1.0.2/MSDK/wpa_supplicant/src/rsn_supp\pmksa_cache.c **** 			 * matching PMK and this PMK has been used successfully
 251:C:/Users/stapi/OneDrive/Desktop/GD32VW553/V1_MQTT_OK/GD32VW55X_Wifi_BLE_SDK/GD32VW55x_RELEASE_V1.0.2/MSDK/wpa_supplicant/src/rsn_supp\pmksa_cache.c **** 			 * with the current AP, i.e., if opportunistic flag has
 252:C:/Users/stapi/OneDrive/Desktop/GD32VW553/V1_MQTT_OK/GD32VW55X_Wifi_BLE_SDK/GD32VW55x_RELEASE_V1.0.2/MSDK/wpa_supplicant/src/rsn_supp\pmksa_cache.c **** 			 * been cleared in wpa_supplicant_key_neg_complete().
 253:C:/Users/stapi/OneDrive/Desktop/GD32VW553/V1_MQTT_OK/GD32VW55X_Wifi_BLE_SDK/GD32VW55x_RELEASE_V1.0.2/MSDK/wpa_supplicant/src/rsn_supp\pmksa_cache.c **** 			 */
 254:C:/Users/stapi/OneDrive/Desktop/GD32VW553/V1_MQTT_OK/GD32VW55X_Wifi_BLE_SDK/GD32VW55x_RELEASE_V1.0.2/MSDK/wpa_supplicant/src/rsn_supp\pmksa_cache.c **** 			wpa_printf(MSG_DEBUG, "RSN: Replace PMKSA entry for "
 255:C:/Users/stapi/OneDrive/Desktop/GD32VW553/V1_MQTT_OK/GD32VW55X_Wifi_BLE_SDK/GD32VW55x_RELEASE_V1.0.2/MSDK/wpa_supplicant/src/rsn_supp\pmksa_cache.c **** 				   "the current AP and any PMKSA cache entry "
 256:C:/Users/stapi/OneDrive/Desktop/GD32VW553/V1_MQTT_OK/GD32VW55X_Wifi_BLE_SDK/GD32VW55x_RELEASE_V1.0.2/MSDK/wpa_supplicant/src/rsn_supp\pmksa_cache.c **** 				   "that was based on the old PMK");
 257:C:/Users/stapi/OneDrive/Desktop/GD32VW553/V1_MQTT_OK/GD32VW55X_Wifi_BLE_SDK/GD32VW55x_RELEASE_V1.0.2/MSDK/wpa_supplicant/src/rsn_supp\pmksa_cache.c **** 			if (!pos->opportunistic)
 258:C:/Users/stapi/OneDrive/Desktop/GD32VW553/V1_MQTT_OK/GD32VW55X_Wifi_BLE_SDK/GD32VW55x_RELEASE_V1.0.2/MSDK/wpa_supplicant/src/rsn_supp\pmksa_cache.c **** 				pmksa_cache_flush(pmksa, entry->network_ctx,
 259:C:/Users/stapi/OneDrive/Desktop/GD32VW553/V1_MQTT_OK/GD32VW55X_Wifi_BLE_SDK/GD32VW55x_RELEASE_V1.0.2/MSDK/wpa_supplicant/src/rsn_supp\pmksa_cache.c **** 						  pos->pmk, pos->pmk_len,
 260:C:/Users/stapi/OneDrive/Desktop/GD32VW553/V1_MQTT_OK/GD32VW55X_Wifi_BLE_SDK/GD32VW55x_RELEASE_V1.0.2/MSDK/wpa_supplicant/src/rsn_supp\pmksa_cache.c **** 						  false);
 261:C:/Users/stapi/OneDrive/Desktop/GD32VW553/V1_MQTT_OK/GD32VW55X_Wifi_BLE_SDK/GD32VW55x_RELEASE_V1.0.2/MSDK/wpa_supplicant/src/rsn_supp\pmksa_cache.c **** 			pmksa_cache_free_entry(pmksa, pos, PMKSA_REPLACE);
 262:C:/Users/stapi/OneDrive/Desktop/GD32VW553/V1_MQTT_OK/GD32VW55X_Wifi_BLE_SDK/GD32VW55x_RELEASE_V1.0.2/MSDK/wpa_supplicant/src/rsn_supp\pmksa_cache.c **** 			break;
 263:C:/Users/stapi/OneDrive/Desktop/GD32VW553/V1_MQTT_OK/GD32VW55X_Wifi_BLE_SDK/GD32VW55x_RELEASE_V1.0.2/MSDK/wpa_supplicant/src/rsn_supp\pmksa_cache.c **** 		}
 264:C:/Users/stapi/OneDrive/Desktop/GD32VW553/V1_MQTT_OK/GD32VW55X_Wifi_BLE_SDK/GD32VW55x_RELEASE_V1.0.2/MSDK/wpa_supplicant/src/rsn_supp\pmksa_cache.c **** 		prev = pos;
 265:C:/Users/stapi/OneDrive/Desktop/GD32VW553/V1_MQTT_OK/GD32VW55X_Wifi_BLE_SDK/GD32VW55x_RELEASE_V1.0.2/MSDK/wpa_supplicant/src/rsn_supp\pmksa_cache.c **** 		pos = pos->next;
 266:C:/Users/stapi/OneDrive/Desktop/GD32VW553/V1_MQTT_OK/GD32VW55X_Wifi_BLE_SDK/GD32VW55x_RELEASE_V1.0.2/MSDK/wpa_supplicant/src/rsn_supp\pmksa_cache.c **** 	}
 267:C:/Users/stapi/OneDrive/Desktop/GD32VW553/V1_MQTT_OK/GD32VW55X_Wifi_BLE_SDK/GD32VW55x_RELEASE_V1.0.2/MSDK/wpa_supplicant/src/rsn_supp\pmksa_cache.c **** 
 268:C:/Users/stapi/OneDrive/Desktop/GD32VW553/V1_MQTT_OK/GD32VW55X_Wifi_BLE_SDK/GD32VW55x_RELEASE_V1.0.2/MSDK/wpa_supplicant/src/rsn_supp\pmksa_cache.c **** 	if (pmksa->pmksa_count >= pmksa_cache_max_entries && pmksa->pmksa) {
 269:C:/Users/stapi/OneDrive/Desktop/GD32VW553/V1_MQTT_OK/GD32VW55X_Wifi_BLE_SDK/GD32VW55x_RELEASE_V1.0.2/MSDK/wpa_supplicant/src/rsn_supp\pmksa_cache.c **** 		/* Remove the oldest entry to make room for the new entry */
 270:C:/Users/stapi/OneDrive/Desktop/GD32VW553/V1_MQTT_OK/GD32VW55X_Wifi_BLE_SDK/GD32VW55x_RELEASE_V1.0.2/MSDK/wpa_supplicant/src/rsn_supp\pmksa_cache.c **** 		pos = pmksa->pmksa;
 271:C:/Users/stapi/OneDrive/Desktop/GD32VW553/V1_MQTT_OK/GD32VW55X_Wifi_BLE_SDK/GD32VW55x_RELEASE_V1.0.2/MSDK/wpa_supplicant/src/rsn_supp\pmksa_cache.c **** 
 272:C:/Users/stapi/OneDrive/Desktop/GD32VW553/V1_MQTT_OK/GD32VW55X_Wifi_BLE_SDK/GD32VW55x_RELEASE_V1.0.2/MSDK/wpa_supplicant/src/rsn_supp\pmksa_cache.c **** 		if (pos == pmksa->sm->cur_pmksa) {
 273:C:/Users/stapi/OneDrive/Desktop/GD32VW553/V1_MQTT_OK/GD32VW55X_Wifi_BLE_SDK/GD32VW55x_RELEASE_V1.0.2/MSDK/wpa_supplicant/src/rsn_supp\pmksa_cache.c **** 			/*
 274:C:/Users/stapi/OneDrive/Desktop/GD32VW553/V1_MQTT_OK/GD32VW55X_Wifi_BLE_SDK/GD32VW55x_RELEASE_V1.0.2/MSDK/wpa_supplicant/src/rsn_supp\pmksa_cache.c **** 			 * Never remove the current PMKSA cache entry, since
 275:C:/Users/stapi/OneDrive/Desktop/GD32VW553/V1_MQTT_OK/GD32VW55X_Wifi_BLE_SDK/GD32VW55x_RELEASE_V1.0.2/MSDK/wpa_supplicant/src/rsn_supp\pmksa_cache.c **** 			 * it's in use, and removing it triggers a needless
 276:C:/Users/stapi/OneDrive/Desktop/GD32VW553/V1_MQTT_OK/GD32VW55X_Wifi_BLE_SDK/GD32VW55x_RELEASE_V1.0.2/MSDK/wpa_supplicant/src/rsn_supp\pmksa_cache.c **** 			 * deauthentication.
 277:C:/Users/stapi/OneDrive/Desktop/GD32VW553/V1_MQTT_OK/GD32VW55X_Wifi_BLE_SDK/GD32VW55x_RELEASE_V1.0.2/MSDK/wpa_supplicant/src/rsn_supp\pmksa_cache.c **** 			 */
 278:C:/Users/stapi/OneDrive/Desktop/GD32VW553/V1_MQTT_OK/GD32VW55X_Wifi_BLE_SDK/GD32VW55x_RELEASE_V1.0.2/MSDK/wpa_supplicant/src/rsn_supp\pmksa_cache.c **** 			pos = pos->next;
 279:C:/Users/stapi/OneDrive/Desktop/GD32VW553/V1_MQTT_OK/GD32VW55X_Wifi_BLE_SDK/GD32VW55x_RELEASE_V1.0.2/MSDK/wpa_supplicant/src/rsn_supp\pmksa_cache.c **** 			pmksa->pmksa->next = pos ? pos->next : NULL;
 280:C:/Users/stapi/OneDrive/Desktop/GD32VW553/V1_MQTT_OK/GD32VW55X_Wifi_BLE_SDK/GD32VW55x_RELEASE_V1.0.2/MSDK/wpa_supplicant/src/rsn_supp\pmksa_cache.c **** 		} else
 281:C:/Users/stapi/OneDrive/Desktop/GD32VW553/V1_MQTT_OK/GD32VW55X_Wifi_BLE_SDK/GD32VW55x_RELEASE_V1.0.2/MSDK/wpa_supplicant/src/rsn_supp\pmksa_cache.c **** 			pmksa->pmksa = pos->next;
 282:C:/Users/stapi/OneDrive/Desktop/GD32VW553/V1_MQTT_OK/GD32VW55X_Wifi_BLE_SDK/GD32VW55x_RELEASE_V1.0.2/MSDK/wpa_supplicant/src/rsn_supp\pmksa_cache.c **** 
 283:C:/Users/stapi/OneDrive/Desktop/GD32VW553/V1_MQTT_OK/GD32VW55X_Wifi_BLE_SDK/GD32VW55x_RELEASE_V1.0.2/MSDK/wpa_supplicant/src/rsn_supp\pmksa_cache.c **** 		if (pos) {
 284:C:/Users/stapi/OneDrive/Desktop/GD32VW553/V1_MQTT_OK/GD32VW55X_Wifi_BLE_SDK/GD32VW55x_RELEASE_V1.0.2/MSDK/wpa_supplicant/src/rsn_supp\pmksa_cache.c **** 			wpa_printf(MSG_DEBUG, "RSN: removed the oldest idle "
 285:C:/Users/stapi/OneDrive/Desktop/GD32VW553/V1_MQTT_OK/GD32VW55X_Wifi_BLE_SDK/GD32VW55x_RELEASE_V1.0.2/MSDK/wpa_supplicant/src/rsn_supp\pmksa_cache.c **** 				   "PMKSA cache entry (for " MACSTR ") to "
 286:C:/Users/stapi/OneDrive/Desktop/GD32VW553/V1_MQTT_OK/GD32VW55X_Wifi_BLE_SDK/GD32VW55x_RELEASE_V1.0.2/MSDK/wpa_supplicant/src/rsn_supp\pmksa_cache.c **** 				   "make room for new one",
 287:C:/Users/stapi/OneDrive/Desktop/GD32VW553/V1_MQTT_OK/GD32VW55X_Wifi_BLE_SDK/GD32VW55x_RELEASE_V1.0.2/MSDK/wpa_supplicant/src/rsn_supp\pmksa_cache.c **** 				   MAC2STR(pos->aa));
 288:C:/Users/stapi/OneDrive/Desktop/GD32VW553/V1_MQTT_OK/GD32VW55X_Wifi_BLE_SDK/GD32VW55x_RELEASE_V1.0.2/MSDK/wpa_supplicant/src/rsn_supp\pmksa_cache.c **** 			pmksa_cache_free_entry(pmksa, pos, PMKSA_FREE);
 289:C:/Users/stapi/OneDrive/Desktop/GD32VW553/V1_MQTT_OK/GD32VW55X_Wifi_BLE_SDK/GD32VW55x_RELEASE_V1.0.2/MSDK/wpa_supplicant/src/rsn_supp\pmksa_cache.c **** 		}
 290:C:/Users/stapi/OneDrive/Desktop/GD32VW553/V1_MQTT_OK/GD32VW55X_Wifi_BLE_SDK/GD32VW55x_RELEASE_V1.0.2/MSDK/wpa_supplicant/src/rsn_supp\pmksa_cache.c **** 	}
 291:C:/Users/stapi/OneDrive/Desktop/GD32VW553/V1_MQTT_OK/GD32VW55X_Wifi_BLE_SDK/GD32VW55x_RELEASE_V1.0.2/MSDK/wpa_supplicant/src/rsn_supp\pmksa_cache.c **** 
 292:C:/Users/stapi/OneDrive/Desktop/GD32VW553/V1_MQTT_OK/GD32VW55X_Wifi_BLE_SDK/GD32VW55x_RELEASE_V1.0.2/MSDK/wpa_supplicant/src/rsn_supp\pmksa_cache.c **** 	/* Add the new entry; order by expiration time */
 293:C:/Users/stapi/OneDrive/Desktop/GD32VW553/V1_MQTT_OK/GD32VW55X_Wifi_BLE_SDK/GD32VW55x_RELEASE_V1.0.2/MSDK/wpa_supplicant/src/rsn_supp\pmksa_cache.c **** 	pos = pmksa->pmksa;
 294:C:/Users/stapi/OneDrive/Desktop/GD32VW553/V1_MQTT_OK/GD32VW55X_Wifi_BLE_SDK/GD32VW55x_RELEASE_V1.0.2/MSDK/wpa_supplicant/src/rsn_supp\pmksa_cache.c **** 	prev = NULL;
 295:C:/Users/stapi/OneDrive/Desktop/GD32VW553/V1_MQTT_OK/GD32VW55X_Wifi_BLE_SDK/GD32VW55x_RELEASE_V1.0.2/MSDK/wpa_supplicant/src/rsn_supp\pmksa_cache.c **** 	while (pos) {
 296:C:/Users/stapi/OneDrive/Desktop/GD32VW553/V1_MQTT_OK/GD32VW55X_Wifi_BLE_SDK/GD32VW55x_RELEASE_V1.0.2/MSDK/wpa_supplicant/src/rsn_supp\pmksa_cache.c **** 		if (pos->expiration > entry->expiration)
 297:C:/Users/stapi/OneDrive/Desktop/GD32VW553/V1_MQTT_OK/GD32VW55X_Wifi_BLE_SDK/GD32VW55x_RELEASE_V1.0.2/MSDK/wpa_supplicant/src/rsn_supp\pmksa_cache.c **** 			break;
 298:C:/Users/stapi/OneDrive/Desktop/GD32VW553/V1_MQTT_OK/GD32VW55X_Wifi_BLE_SDK/GD32VW55x_RELEASE_V1.0.2/MSDK/wpa_supplicant/src/rsn_supp\pmksa_cache.c **** 		prev = pos;
 299:C:/Users/stapi/OneDrive/Desktop/GD32VW553/V1_MQTT_OK/GD32VW55X_Wifi_BLE_SDK/GD32VW55x_RELEASE_V1.0.2/MSDK/wpa_supplicant/src/rsn_supp\pmksa_cache.c **** 		pos = pos->next;
 300:C:/Users/stapi/OneDrive/Desktop/GD32VW553/V1_MQTT_OK/GD32VW55X_Wifi_BLE_SDK/GD32VW55x_RELEASE_V1.0.2/MSDK/wpa_supplicant/src/rsn_supp\pmksa_cache.c **** 	}
 301:C:/Users/stapi/OneDrive/Desktop/GD32VW553/V1_MQTT_OK/GD32VW55X_Wifi_BLE_SDK/GD32VW55x_RELEASE_V1.0.2/MSDK/wpa_supplicant/src/rsn_supp\pmksa_cache.c **** 	if (prev == NULL) {
 302:C:/Users/stapi/OneDrive/Desktop/GD32VW553/V1_MQTT_OK/GD32VW55X_Wifi_BLE_SDK/GD32VW55x_RELEASE_V1.0.2/MSDK/wpa_supplicant/src/rsn_supp\pmksa_cache.c **** 		entry->next = pmksa->pmksa;
 303:C:/Users/stapi/OneDrive/Desktop/GD32VW553/V1_MQTT_OK/GD32VW55X_Wifi_BLE_SDK/GD32VW55x_RELEASE_V1.0.2/MSDK/wpa_supplicant/src/rsn_supp\pmksa_cache.c **** 		pmksa->pmksa = entry;
 304:C:/Users/stapi/OneDrive/Desktop/GD32VW553/V1_MQTT_OK/GD32VW55X_Wifi_BLE_SDK/GD32VW55x_RELEASE_V1.0.2/MSDK/wpa_supplicant/src/rsn_supp\pmksa_cache.c **** 		pmksa_cache_set_expiration(pmksa);
 305:C:/Users/stapi/OneDrive/Desktop/GD32VW553/V1_MQTT_OK/GD32VW55X_Wifi_BLE_SDK/GD32VW55x_RELEASE_V1.0.2/MSDK/wpa_supplicant/src/rsn_supp\pmksa_cache.c **** 	} else {
 306:C:/Users/stapi/OneDrive/Desktop/GD32VW553/V1_MQTT_OK/GD32VW55X_Wifi_BLE_SDK/GD32VW55x_RELEASE_V1.0.2/MSDK/wpa_supplicant/src/rsn_supp\pmksa_cache.c **** 		entry->next = prev->next;
 307:C:/Users/stapi/OneDrive/Desktop/GD32VW553/V1_MQTT_OK/GD32VW55X_Wifi_BLE_SDK/GD32VW55x_RELEASE_V1.0.2/MSDK/wpa_supplicant/src/rsn_supp\pmksa_cache.c **** 		prev->next = entry;
 308:C:/Users/stapi/OneDrive/Desktop/GD32VW553/V1_MQTT_OK/GD32VW55X_Wifi_BLE_SDK/GD32VW55x_RELEASE_V1.0.2/MSDK/wpa_supplicant/src/rsn_supp\pmksa_cache.c **** 	}
 309:C:/Users/stapi/OneDrive/Desktop/GD32VW553/V1_MQTT_OK/GD32VW55X_Wifi_BLE_SDK/GD32VW55x_RELEASE_V1.0.2/MSDK/wpa_supplicant/src/rsn_supp\pmksa_cache.c **** 	pmksa->pmksa_count++;
 310:C:/Users/stapi/OneDrive/Desktop/GD32VW553/V1_MQTT_OK/GD32VW55X_Wifi_BLE_SDK/GD32VW55x_RELEASE_V1.0.2/MSDK/wpa_supplicant/src/rsn_supp\pmksa_cache.c **** 	wpa_printf(MSG_DEBUG, "RSN: Added PMKSA cache entry for " MACSTR
 311:C:/Users/stapi/OneDrive/Desktop/GD32VW553/V1_MQTT_OK/GD32VW55X_Wifi_BLE_SDK/GD32VW55x_RELEASE_V1.0.2/MSDK/wpa_supplicant/src/rsn_supp\pmksa_cache.c **** 		   " network_ctx=%p akmp=0x%x", MAC2STR(entry->aa),
 312:C:/Users/stapi/OneDrive/Desktop/GD32VW553/V1_MQTT_OK/GD32VW55X_Wifi_BLE_SDK/GD32VW55x_RELEASE_V1.0.2/MSDK/wpa_supplicant/src/rsn_supp\pmksa_cache.c **** 		   entry->network_ctx, entry->akmp);
 313:C:/Users/stapi/OneDrive/Desktop/GD32VW553/V1_MQTT_OK/GD32VW55X_Wifi_BLE_SDK/GD32VW55x_RELEASE_V1.0.2/MSDK/wpa_supplicant/src/rsn_supp\pmksa_cache.c **** 	wpa_sm_add_pmkid(pmksa->sm, entry->network_ctx, entry->aa, entry->pmkid,
 314:C:/Users/stapi/OneDrive/Desktop/GD32VW553/V1_MQTT_OK/GD32VW55X_Wifi_BLE_SDK/GD32VW55x_RELEASE_V1.0.2/MSDK/wpa_supplicant/src/rsn_supp\pmksa_cache.c **** 			 entry->fils_cache_id_set ? entry->fils_cache_id : NULL,
 315:C:/Users/stapi/OneDrive/Desktop/GD32VW553/V1_MQTT_OK/GD32VW55X_Wifi_BLE_SDK/GD32VW55x_RELEASE_V1.0.2/MSDK/wpa_supplicant/src/rsn_supp\pmksa_cache.c **** 			 entry->pmk, entry->pmk_len,
 316:C:/Users/stapi/OneDrive/Desktop/GD32VW553/V1_MQTT_OK/GD32VW55X_Wifi_BLE_SDK/GD32VW55x_RELEASE_V1.0.2/MSDK/wpa_supplicant/src/rsn_supp\pmksa_cache.c **** 			 pmksa->sm->dot11RSNAConfigPMKLifetime,
 317:C:/Users/stapi/OneDrive/Desktop/GD32VW553/V1_MQTT_OK/GD32VW55X_Wifi_BLE_SDK/GD32VW55x_RELEASE_V1.0.2/MSDK/wpa_supplicant/src/rsn_supp\pmksa_cache.c **** 			 pmksa->sm->dot11RSNAConfigPMKReauthThreshold,
 318:C:/Users/stapi/OneDrive/Desktop/GD32VW553/V1_MQTT_OK/GD32VW55X_Wifi_BLE_SDK/GD32VW55x_RELEASE_V1.0.2/MSDK/wpa_supplicant/src/rsn_supp\pmksa_cache.c **** 			 entry->akmp);
 319:C:/Users/stapi/OneDrive/Desktop/GD32VW553/V1_MQTT_OK/GD32VW55X_Wifi_BLE_SDK/GD32VW55x_RELEASE_V1.0.2/MSDK/wpa_supplicant/src/rsn_supp\pmksa_cache.c **** 
 320:C:/Users/stapi/OneDrive/Desktop/GD32VW553/V1_MQTT_OK/GD32VW55X_Wifi_BLE_SDK/GD32VW55x_RELEASE_V1.0.2/MSDK/wpa_supplicant/src/rsn_supp\pmksa_cache.c **** 	return entry;
 321:C:/Users/stapi/OneDrive/Desktop/GD32VW553/V1_MQTT_OK/GD32VW55X_Wifi_BLE_SDK/GD32VW55x_RELEASE_V1.0.2/MSDK/wpa_supplicant/src/rsn_supp\pmksa_cache.c **** }
 322:C:/Users/stapi/OneDrive/Desktop/GD32VW553/V1_MQTT_OK/GD32VW55X_Wifi_BLE_SDK/GD32VW55x_RELEASE_V1.0.2/MSDK/wpa_supplicant/src/rsn_supp\pmksa_cache.c **** 
 323:C:/Users/stapi/OneDrive/Desktop/GD32VW553/V1_MQTT_OK/GD32VW55X_Wifi_BLE_SDK/GD32VW55x_RELEASE_V1.0.2/MSDK/wpa_supplicant/src/rsn_supp\pmksa_cache.c **** 
 324:C:/Users/stapi/OneDrive/Desktop/GD32VW553/V1_MQTT_OK/GD32VW55X_Wifi_BLE_SDK/GD32VW55x_RELEASE_V1.0.2/MSDK/wpa_supplicant/src/rsn_supp\pmksa_cache.c **** /**
 325:C:/Users/stapi/OneDrive/Desktop/GD32VW553/V1_MQTT_OK/GD32VW55X_Wifi_BLE_SDK/GD32VW55x_RELEASE_V1.0.2/MSDK/wpa_supplicant/src/rsn_supp\pmksa_cache.c ****  * pmksa_cache_flush - Flush PMKSA cache entries for a specific network
 326:C:/Users/stapi/OneDrive/Desktop/GD32VW553/V1_MQTT_OK/GD32VW55X_Wifi_BLE_SDK/GD32VW55x_RELEASE_V1.0.2/MSDK/wpa_supplicant/src/rsn_supp\pmksa_cache.c ****  * @pmksa: Pointer to PMKSA cache data from pmksa_cache_init()
 327:C:/Users/stapi/OneDrive/Desktop/GD32VW553/V1_MQTT_OK/GD32VW55X_Wifi_BLE_SDK/GD32VW55x_RELEASE_V1.0.2/MSDK/wpa_supplicant/src/rsn_supp\pmksa_cache.c ****  * @network_ctx: Network configuration context or %NULL to flush all entries
 328:C:/Users/stapi/OneDrive/Desktop/GD32VW553/V1_MQTT_OK/GD32VW55X_Wifi_BLE_SDK/GD32VW55x_RELEASE_V1.0.2/MSDK/wpa_supplicant/src/rsn_supp\pmksa_cache.c ****  * @pmk: PMK to match for or %NULL to match all PMKs
 329:C:/Users/stapi/OneDrive/Desktop/GD32VW553/V1_MQTT_OK/GD32VW55X_Wifi_BLE_SDK/GD32VW55x_RELEASE_V1.0.2/MSDK/wpa_supplicant/src/rsn_supp\pmksa_cache.c ****  * @pmk_len: PMK length
 330:C:/Users/stapi/OneDrive/Desktop/GD32VW553/V1_MQTT_OK/GD32VW55X_Wifi_BLE_SDK/GD32VW55x_RELEASE_V1.0.2/MSDK/wpa_supplicant/src/rsn_supp\pmksa_cache.c ****  * @external_only: Flush only PMKSA cache entries configured by external
 331:C:/Users/stapi/OneDrive/Desktop/GD32VW553/V1_MQTT_OK/GD32VW55X_Wifi_BLE_SDK/GD32VW55x_RELEASE_V1.0.2/MSDK/wpa_supplicant/src/rsn_supp\pmksa_cache.c ****  * applications
 332:C:/Users/stapi/OneDrive/Desktop/GD32VW553/V1_MQTT_OK/GD32VW55X_Wifi_BLE_SDK/GD32VW55x_RELEASE_V1.0.2/MSDK/wpa_supplicant/src/rsn_supp\pmksa_cache.c ****  */
 333:C:/Users/stapi/OneDrive/Desktop/GD32VW553/V1_MQTT_OK/GD32VW55X_Wifi_BLE_SDK/GD32VW55x_RELEASE_V1.0.2/MSDK/wpa_supplicant/src/rsn_supp\pmksa_cache.c **** void pmksa_cache_flush(struct rsn_pmksa_cache *pmksa, void *network_ctx,
 334:C:/Users/stapi/OneDrive/Desktop/GD32VW553/V1_MQTT_OK/GD32VW55X_Wifi_BLE_SDK/GD32VW55x_RELEASE_V1.0.2/MSDK/wpa_supplicant/src/rsn_supp\pmksa_cache.c **** 		       const u8 *pmk, size_t pmk_len, bool external_only)
 335:C:/Users/stapi/OneDrive/Desktop/GD32VW553/V1_MQTT_OK/GD32VW55X_Wifi_BLE_SDK/GD32VW55x_RELEASE_V1.0.2/MSDK/wpa_supplicant/src/rsn_supp\pmksa_cache.c **** {
 336:C:/Users/stapi/OneDrive/Desktop/GD32VW553/V1_MQTT_OK/GD32VW55X_Wifi_BLE_SDK/GD32VW55x_RELEASE_V1.0.2/MSDK/wpa_supplicant/src/rsn_supp\pmksa_cache.c **** 	struct rsn_pmksa_cache_entry *entry, *prev = NULL, *tmp;
 337:C:/Users/stapi/OneDrive/Desktop/GD32VW553/V1_MQTT_OK/GD32VW55X_Wifi_BLE_SDK/GD32VW55x_RELEASE_V1.0.2/MSDK/wpa_supplicant/src/rsn_supp\pmksa_cache.c **** 	int removed = 0;
 338:C:/Users/stapi/OneDrive/Desktop/GD32VW553/V1_MQTT_OK/GD32VW55X_Wifi_BLE_SDK/GD32VW55x_RELEASE_V1.0.2/MSDK/wpa_supplicant/src/rsn_supp\pmksa_cache.c **** 
 339:C:/Users/stapi/OneDrive/Desktop/GD32VW553/V1_MQTT_OK/GD32VW55X_Wifi_BLE_SDK/GD32VW55x_RELEASE_V1.0.2/MSDK/wpa_supplicant/src/rsn_supp\pmksa_cache.c **** 	entry = pmksa->pmksa;
 340:C:/Users/stapi/OneDrive/Desktop/GD32VW553/V1_MQTT_OK/GD32VW55X_Wifi_BLE_SDK/GD32VW55x_RELEASE_V1.0.2/MSDK/wpa_supplicant/src/rsn_supp\pmksa_cache.c **** 	while (entry) {
 341:C:/Users/stapi/OneDrive/Desktop/GD32VW553/V1_MQTT_OK/GD32VW55X_Wifi_BLE_SDK/GD32VW55x_RELEASE_V1.0.2/MSDK/wpa_supplicant/src/rsn_supp\pmksa_cache.c **** 		if ((entry->network_ctx == network_ctx ||
 342:C:/Users/stapi/OneDrive/Desktop/GD32VW553/V1_MQTT_OK/GD32VW55X_Wifi_BLE_SDK/GD32VW55x_RELEASE_V1.0.2/MSDK/wpa_supplicant/src/rsn_supp\pmksa_cache.c **** 		     network_ctx == NULL) &&
 343:C:/Users/stapi/OneDrive/Desktop/GD32VW553/V1_MQTT_OK/GD32VW55X_Wifi_BLE_SDK/GD32VW55x_RELEASE_V1.0.2/MSDK/wpa_supplicant/src/rsn_supp\pmksa_cache.c **** 		    (pmk == NULL ||
 344:C:/Users/stapi/OneDrive/Desktop/GD32VW553/V1_MQTT_OK/GD32VW55X_Wifi_BLE_SDK/GD32VW55x_RELEASE_V1.0.2/MSDK/wpa_supplicant/src/rsn_supp\pmksa_cache.c **** 		     (pmk_len == entry->pmk_len &&
 345:C:/Users/stapi/OneDrive/Desktop/GD32VW553/V1_MQTT_OK/GD32VW55X_Wifi_BLE_SDK/GD32VW55x_RELEASE_V1.0.2/MSDK/wpa_supplicant/src/rsn_supp\pmksa_cache.c **** 		      os_memcmp(pmk, entry->pmk, pmk_len) == 0)) &&
 346:C:/Users/stapi/OneDrive/Desktop/GD32VW553/V1_MQTT_OK/GD32VW55X_Wifi_BLE_SDK/GD32VW55x_RELEASE_V1.0.2/MSDK/wpa_supplicant/src/rsn_supp\pmksa_cache.c **** 		    (!external_only || entry->external)) {
 347:C:/Users/stapi/OneDrive/Desktop/GD32VW553/V1_MQTT_OK/GD32VW55X_Wifi_BLE_SDK/GD32VW55x_RELEASE_V1.0.2/MSDK/wpa_supplicant/src/rsn_supp\pmksa_cache.c **** 			wpa_printf(MSG_DEBUG, "RSN: Flush PMKSA cache entry "
 348:C:/Users/stapi/OneDrive/Desktop/GD32VW553/V1_MQTT_OK/GD32VW55X_Wifi_BLE_SDK/GD32VW55x_RELEASE_V1.0.2/MSDK/wpa_supplicant/src/rsn_supp\pmksa_cache.c **** 				   "for " MACSTR, MAC2STR(entry->aa));
 349:C:/Users/stapi/OneDrive/Desktop/GD32VW553/V1_MQTT_OK/GD32VW55X_Wifi_BLE_SDK/GD32VW55x_RELEASE_V1.0.2/MSDK/wpa_supplicant/src/rsn_supp\pmksa_cache.c **** 			if (prev)
 350:C:/Users/stapi/OneDrive/Desktop/GD32VW553/V1_MQTT_OK/GD32VW55X_Wifi_BLE_SDK/GD32VW55x_RELEASE_V1.0.2/MSDK/wpa_supplicant/src/rsn_supp\pmksa_cache.c **** 				prev->next = entry->next;
 351:C:/Users/stapi/OneDrive/Desktop/GD32VW553/V1_MQTT_OK/GD32VW55X_Wifi_BLE_SDK/GD32VW55x_RELEASE_V1.0.2/MSDK/wpa_supplicant/src/rsn_supp\pmksa_cache.c **** 			else
 352:C:/Users/stapi/OneDrive/Desktop/GD32VW553/V1_MQTT_OK/GD32VW55X_Wifi_BLE_SDK/GD32VW55x_RELEASE_V1.0.2/MSDK/wpa_supplicant/src/rsn_supp\pmksa_cache.c **** 				pmksa->pmksa = entry->next;
 353:C:/Users/stapi/OneDrive/Desktop/GD32VW553/V1_MQTT_OK/GD32VW55X_Wifi_BLE_SDK/GD32VW55x_RELEASE_V1.0.2/MSDK/wpa_supplicant/src/rsn_supp\pmksa_cache.c **** 			tmp = entry;
 354:C:/Users/stapi/OneDrive/Desktop/GD32VW553/V1_MQTT_OK/GD32VW55X_Wifi_BLE_SDK/GD32VW55x_RELEASE_V1.0.2/MSDK/wpa_supplicant/src/rsn_supp\pmksa_cache.c **** 			entry = entry->next;
 355:C:/Users/stapi/OneDrive/Desktop/GD32VW553/V1_MQTT_OK/GD32VW55X_Wifi_BLE_SDK/GD32VW55x_RELEASE_V1.0.2/MSDK/wpa_supplicant/src/rsn_supp\pmksa_cache.c **** 			pmksa_cache_free_entry(pmksa, tmp, PMKSA_FREE);
 356:C:/Users/stapi/OneDrive/Desktop/GD32VW553/V1_MQTT_OK/GD32VW55X_Wifi_BLE_SDK/GD32VW55x_RELEASE_V1.0.2/MSDK/wpa_supplicant/src/rsn_supp\pmksa_cache.c **** 			removed++;
 357:C:/Users/stapi/OneDrive/Desktop/GD32VW553/V1_MQTT_OK/GD32VW55X_Wifi_BLE_SDK/GD32VW55x_RELEASE_V1.0.2/MSDK/wpa_supplicant/src/rsn_supp\pmksa_cache.c **** 		} else {
 358:C:/Users/stapi/OneDrive/Desktop/GD32VW553/V1_MQTT_OK/GD32VW55X_Wifi_BLE_SDK/GD32VW55x_RELEASE_V1.0.2/MSDK/wpa_supplicant/src/rsn_supp\pmksa_cache.c **** 			prev = entry;
 359:C:/Users/stapi/OneDrive/Desktop/GD32VW553/V1_MQTT_OK/GD32VW55X_Wifi_BLE_SDK/GD32VW55x_RELEASE_V1.0.2/MSDK/wpa_supplicant/src/rsn_supp\pmksa_cache.c **** 			entry = entry->next;
 360:C:/Users/stapi/OneDrive/Desktop/GD32VW553/V1_MQTT_OK/GD32VW55X_Wifi_BLE_SDK/GD32VW55x_RELEASE_V1.0.2/MSDK/wpa_supplicant/src/rsn_supp\pmksa_cache.c **** 		}
 361:C:/Users/stapi/OneDrive/Desktop/GD32VW553/V1_MQTT_OK/GD32VW55X_Wifi_BLE_SDK/GD32VW55x_RELEASE_V1.0.2/MSDK/wpa_supplicant/src/rsn_supp\pmksa_cache.c **** 	}
 362:C:/Users/stapi/OneDrive/Desktop/GD32VW553/V1_MQTT_OK/GD32VW55X_Wifi_BLE_SDK/GD32VW55x_RELEASE_V1.0.2/MSDK/wpa_supplicant/src/rsn_supp\pmksa_cache.c **** 	if (removed)
 363:C:/Users/stapi/OneDrive/Desktop/GD32VW553/V1_MQTT_OK/GD32VW55X_Wifi_BLE_SDK/GD32VW55x_RELEASE_V1.0.2/MSDK/wpa_supplicant/src/rsn_supp\pmksa_cache.c **** 		pmksa_cache_set_expiration(pmksa);
 364:C:/Users/stapi/OneDrive/Desktop/GD32VW553/V1_MQTT_OK/GD32VW55X_Wifi_BLE_SDK/GD32VW55x_RELEASE_V1.0.2/MSDK/wpa_supplicant/src/rsn_supp\pmksa_cache.c **** }
 365:C:/Users/stapi/OneDrive/Desktop/GD32VW553/V1_MQTT_OK/GD32VW55X_Wifi_BLE_SDK/GD32VW55x_RELEASE_V1.0.2/MSDK/wpa_supplicant/src/rsn_supp\pmksa_cache.c **** 
 366:C:/Users/stapi/OneDrive/Desktop/GD32VW553/V1_MQTT_OK/GD32VW55X_Wifi_BLE_SDK/GD32VW55x_RELEASE_V1.0.2/MSDK/wpa_supplicant/src/rsn_supp\pmksa_cache.c **** 
 367:C:/Users/stapi/OneDrive/Desktop/GD32VW553/V1_MQTT_OK/GD32VW55X_Wifi_BLE_SDK/GD32VW55x_RELEASE_V1.0.2/MSDK/wpa_supplicant/src/rsn_supp\pmksa_cache.c **** /**
 368:C:/Users/stapi/OneDrive/Desktop/GD32VW553/V1_MQTT_OK/GD32VW55X_Wifi_BLE_SDK/GD32VW55x_RELEASE_V1.0.2/MSDK/wpa_supplicant/src/rsn_supp\pmksa_cache.c ****  * pmksa_cache_deinit - Free all entries in PMKSA cache
 369:C:/Users/stapi/OneDrive/Desktop/GD32VW553/V1_MQTT_OK/GD32VW55X_Wifi_BLE_SDK/GD32VW55x_RELEASE_V1.0.2/MSDK/wpa_supplicant/src/rsn_supp\pmksa_cache.c ****  * @pmksa: Pointer to PMKSA cache data from pmksa_cache_init()
 370:C:/Users/stapi/OneDrive/Desktop/GD32VW553/V1_MQTT_OK/GD32VW55X_Wifi_BLE_SDK/GD32VW55x_RELEASE_V1.0.2/MSDK/wpa_supplicant/src/rsn_supp\pmksa_cache.c ****  */
 371:C:/Users/stapi/OneDrive/Desktop/GD32VW553/V1_MQTT_OK/GD32VW55X_Wifi_BLE_SDK/GD32VW55x_RELEASE_V1.0.2/MSDK/wpa_supplicant/src/rsn_supp\pmksa_cache.c **** void pmksa_cache_deinit(struct rsn_pmksa_cache *pmksa)
 372:C:/Users/stapi/OneDrive/Desktop/GD32VW553/V1_MQTT_OK/GD32VW55X_Wifi_BLE_SDK/GD32VW55x_RELEASE_V1.0.2/MSDK/wpa_supplicant/src/rsn_supp\pmksa_cache.c **** {
 373:C:/Users/stapi/OneDrive/Desktop/GD32VW553/V1_MQTT_OK/GD32VW55X_Wifi_BLE_SDK/GD32VW55x_RELEASE_V1.0.2/MSDK/wpa_supplicant/src/rsn_supp\pmksa_cache.c **** 	struct rsn_pmksa_cache_entry *entry, *prev;
 374:C:/Users/stapi/OneDrive/Desktop/GD32VW553/V1_MQTT_OK/GD32VW55X_Wifi_BLE_SDK/GD32VW55x_RELEASE_V1.0.2/MSDK/wpa_supplicant/src/rsn_supp\pmksa_cache.c **** 
 375:C:/Users/stapi/OneDrive/Desktop/GD32VW553/V1_MQTT_OK/GD32VW55X_Wifi_BLE_SDK/GD32VW55x_RELEASE_V1.0.2/MSDK/wpa_supplicant/src/rsn_supp\pmksa_cache.c **** 	if (pmksa == NULL)
 376:C:/Users/stapi/OneDrive/Desktop/GD32VW553/V1_MQTT_OK/GD32VW55X_Wifi_BLE_SDK/GD32VW55x_RELEASE_V1.0.2/MSDK/wpa_supplicant/src/rsn_supp\pmksa_cache.c **** 		return;
 377:C:/Users/stapi/OneDrive/Desktop/GD32VW553/V1_MQTT_OK/GD32VW55X_Wifi_BLE_SDK/GD32VW55x_RELEASE_V1.0.2/MSDK/wpa_supplicant/src/rsn_supp\pmksa_cache.c **** 
 378:C:/Users/stapi/OneDrive/Desktop/GD32VW553/V1_MQTT_OK/GD32VW55X_Wifi_BLE_SDK/GD32VW55x_RELEASE_V1.0.2/MSDK/wpa_supplicant/src/rsn_supp\pmksa_cache.c **** 	entry = pmksa->pmksa;
 379:C:/Users/stapi/OneDrive/Desktop/GD32VW553/V1_MQTT_OK/GD32VW55X_Wifi_BLE_SDK/GD32VW55x_RELEASE_V1.0.2/MSDK/wpa_supplicant/src/rsn_supp\pmksa_cache.c **** 	pmksa->pmksa = NULL;
 380:C:/Users/stapi/OneDrive/Desktop/GD32VW553/V1_MQTT_OK/GD32VW55X_Wifi_BLE_SDK/GD32VW55x_RELEASE_V1.0.2/MSDK/wpa_supplicant/src/rsn_supp\pmksa_cache.c **** 	while (entry) {
 381:C:/Users/stapi/OneDrive/Desktop/GD32VW553/V1_MQTT_OK/GD32VW55X_Wifi_BLE_SDK/GD32VW55x_RELEASE_V1.0.2/MSDK/wpa_supplicant/src/rsn_supp\pmksa_cache.c **** 		prev = entry;
 382:C:/Users/stapi/OneDrive/Desktop/GD32VW553/V1_MQTT_OK/GD32VW55X_Wifi_BLE_SDK/GD32VW55x_RELEASE_V1.0.2/MSDK/wpa_supplicant/src/rsn_supp\pmksa_cache.c **** 		entry = entry->next;
 383:C:/Users/stapi/OneDrive/Desktop/GD32VW553/V1_MQTT_OK/GD32VW55X_Wifi_BLE_SDK/GD32VW55x_RELEASE_V1.0.2/MSDK/wpa_supplicant/src/rsn_supp\pmksa_cache.c **** 		os_free(prev);
 384:C:/Users/stapi/OneDrive/Desktop/GD32VW553/V1_MQTT_OK/GD32VW55X_Wifi_BLE_SDK/GD32VW55x_RELEASE_V1.0.2/MSDK/wpa_supplicant/src/rsn_supp\pmksa_cache.c **** 	}
 385:C:/Users/stapi/OneDrive/Desktop/GD32VW553/V1_MQTT_OK/GD32VW55X_Wifi_BLE_SDK/GD32VW55x_RELEASE_V1.0.2/MSDK/wpa_supplicant/src/rsn_supp\pmksa_cache.c **** 	pmksa_cache_set_expiration(pmksa);
 386:C:/Users/stapi/OneDrive/Desktop/GD32VW553/V1_MQTT_OK/GD32VW55X_Wifi_BLE_SDK/GD32VW55x_RELEASE_V1.0.2/MSDK/wpa_supplicant/src/rsn_supp\pmksa_cache.c **** 	os_free(pmksa);
 387:C:/Users/stapi/OneDrive/Desktop/GD32VW553/V1_MQTT_OK/GD32VW55X_Wifi_BLE_SDK/GD32VW55x_RELEASE_V1.0.2/MSDK/wpa_supplicant/src/rsn_supp\pmksa_cache.c **** }
 388:C:/Users/stapi/OneDrive/Desktop/GD32VW553/V1_MQTT_OK/GD32VW55X_Wifi_BLE_SDK/GD32VW55x_RELEASE_V1.0.2/MSDK/wpa_supplicant/src/rsn_supp\pmksa_cache.c **** 
 389:C:/Users/stapi/OneDrive/Desktop/GD32VW553/V1_MQTT_OK/GD32VW55X_Wifi_BLE_SDK/GD32VW55x_RELEASE_V1.0.2/MSDK/wpa_supplicant/src/rsn_supp\pmksa_cache.c **** 
 390:C:/Users/stapi/OneDrive/Desktop/GD32VW553/V1_MQTT_OK/GD32VW55X_Wifi_BLE_SDK/GD32VW55x_RELEASE_V1.0.2/MSDK/wpa_supplicant/src/rsn_supp\pmksa_cache.c **** /**
 391:C:/Users/stapi/OneDrive/Desktop/GD32VW553/V1_MQTT_OK/GD32VW55X_Wifi_BLE_SDK/GD32VW55x_RELEASE_V1.0.2/MSDK/wpa_supplicant/src/rsn_supp\pmksa_cache.c ****  * pmksa_cache_get - Fetch a PMKSA cache entry
 392:C:/Users/stapi/OneDrive/Desktop/GD32VW553/V1_MQTT_OK/GD32VW55X_Wifi_BLE_SDK/GD32VW55x_RELEASE_V1.0.2/MSDK/wpa_supplicant/src/rsn_supp\pmksa_cache.c ****  * @pmksa: Pointer to PMKSA cache data from pmksa_cache_init()
 393:C:/Users/stapi/OneDrive/Desktop/GD32VW553/V1_MQTT_OK/GD32VW55X_Wifi_BLE_SDK/GD32VW55x_RELEASE_V1.0.2/MSDK/wpa_supplicant/src/rsn_supp\pmksa_cache.c ****  * @aa: Authenticator address or %NULL to match any
 394:C:/Users/stapi/OneDrive/Desktop/GD32VW553/V1_MQTT_OK/GD32VW55X_Wifi_BLE_SDK/GD32VW55x_RELEASE_V1.0.2/MSDK/wpa_supplicant/src/rsn_supp\pmksa_cache.c ****  * @pmkid: PMKID or %NULL to match any
 395:C:/Users/stapi/OneDrive/Desktop/GD32VW553/V1_MQTT_OK/GD32VW55X_Wifi_BLE_SDK/GD32VW55x_RELEASE_V1.0.2/MSDK/wpa_supplicant/src/rsn_supp\pmksa_cache.c ****  * @network_ctx: Network context or %NULL to match any
 396:C:/Users/stapi/OneDrive/Desktop/GD32VW553/V1_MQTT_OK/GD32VW55X_Wifi_BLE_SDK/GD32VW55x_RELEASE_V1.0.2/MSDK/wpa_supplicant/src/rsn_supp\pmksa_cache.c ****  * @akmp: Specific AKMP to search for or 0 for any
 397:C:/Users/stapi/OneDrive/Desktop/GD32VW553/V1_MQTT_OK/GD32VW55X_Wifi_BLE_SDK/GD32VW55x_RELEASE_V1.0.2/MSDK/wpa_supplicant/src/rsn_supp\pmksa_cache.c ****  * Returns: Pointer to PMKSA cache entry or %NULL if no match was found
 398:C:/Users/stapi/OneDrive/Desktop/GD32VW553/V1_MQTT_OK/GD32VW55X_Wifi_BLE_SDK/GD32VW55x_RELEASE_V1.0.2/MSDK/wpa_supplicant/src/rsn_supp\pmksa_cache.c ****  */
 399:C:/Users/stapi/OneDrive/Desktop/GD32VW553/V1_MQTT_OK/GD32VW55X_Wifi_BLE_SDK/GD32VW55x_RELEASE_V1.0.2/MSDK/wpa_supplicant/src/rsn_supp\pmksa_cache.c **** struct rsn_pmksa_cache_entry * pmksa_cache_get(struct rsn_pmksa_cache *pmksa,
 400:C:/Users/stapi/OneDrive/Desktop/GD32VW553/V1_MQTT_OK/GD32VW55X_Wifi_BLE_SDK/GD32VW55x_RELEASE_V1.0.2/MSDK/wpa_supplicant/src/rsn_supp\pmksa_cache.c **** 					       const u8 *aa, const u8 *pmkid,
 401:C:/Users/stapi/OneDrive/Desktop/GD32VW553/V1_MQTT_OK/GD32VW55X_Wifi_BLE_SDK/GD32VW55x_RELEASE_V1.0.2/MSDK/wpa_supplicant/src/rsn_supp\pmksa_cache.c **** 					       const void *network_ctx,
 402:C:/Users/stapi/OneDrive/Desktop/GD32VW553/V1_MQTT_OK/GD32VW55X_Wifi_BLE_SDK/GD32VW55x_RELEASE_V1.0.2/MSDK/wpa_supplicant/src/rsn_supp\pmksa_cache.c **** 					       int akmp)
 403:C:/Users/stapi/OneDrive/Desktop/GD32VW553/V1_MQTT_OK/GD32VW55X_Wifi_BLE_SDK/GD32VW55x_RELEASE_V1.0.2/MSDK/wpa_supplicant/src/rsn_supp\pmksa_cache.c **** {
 127              		.loc 1 403 1 is_stmt 1
 128              		.cfi_startproc
 129              	.LVL11:
 130 0000 17030000 		call	t0,__riscv_save_5
 130      E7020300 
 131              		.cfi_offset 20, -24
 132              		.cfi_offset 19, -20
 133              		.cfi_offset 18, -16
 134              		.cfi_offset 9, -12
 135              		.cfi_offset 8, -8
 136              		.cfi_offset 1, -4
 137              		.cfi_def_cfa_offset 32
 404:C:/Users/stapi/OneDrive/Desktop/GD32VW553/V1_MQTT_OK/GD32VW55X_Wifi_BLE_SDK/GD32VW55x_RELEASE_V1.0.2/MSDK/wpa_supplicant/src/rsn_supp\pmksa_cache.c **** 	struct rsn_pmksa_cache_entry *entry = pmksa->pmksa;
 138              		.loc 1 404 2
 139              		.loc 1 404 32 is_stmt 0
 140 0008 0041     		lw	s0,0(a0)
 141              	.LVL12:
 405:C:/Users/stapi/OneDrive/Desktop/GD32VW553/V1_MQTT_OK/GD32VW55X_Wifi_BLE_SDK/GD32VW55x_RELEASE_V1.0.2/MSDK/wpa_supplicant/src/rsn_supp\pmksa_cache.c **** 	while (entry) {
 142              		.loc 1 405 2 is_stmt 1
 403:C:/Users/stapi/OneDrive/Desktop/GD32VW553/V1_MQTT_OK/GD32VW55X_Wifi_BLE_SDK/GD32VW55x_RELEASE_V1.0.2/MSDK/wpa_supplicant/src/rsn_supp\pmksa_cache.c **** 	struct rsn_pmksa_cache_entry *entry = pmksa->pmksa;
 143              		.loc 1 403 1 is_stmt 0
 144 000a AE84     		mv	s1,a1
 145 000c 3289     		mv	s2,a2
 146 000e B689     		mv	s3,a3
 147 0010 3A8A     		mv	s4,a4
 148              	.LVL13:
 149              	.L9:
 150              		.loc 1 405 8 is_stmt 1
 151 0012 11CC     		beq	s0,zero,.L8
 406:C:/Users/stapi/OneDrive/Desktop/GD32VW553/V1_MQTT_OK/GD32VW55X_Wifi_BLE_SDK/GD32VW55x_RELEASE_V1.0.2/MSDK/wpa_supplicant/src/rsn_supp\pmksa_cache.c **** 		if ((aa == NULL || os_memcmp(entry->aa, aa, ETH_ALEN) == 0) &&
 152              		.loc 1 406 3
 153              		.loc 1 406 6 is_stmt 0
 154 0014 95E0     		bne	s1,zero,.L10
 155              	.L13:
 156              		.loc 1 406 63
 157 0016 631C0902 		bne	s2,zero,.L34
 158              	.L11:
 407:C:/Users/stapi/OneDrive/Desktop/GD32VW553/V1_MQTT_OK/GD32VW55X_Wifi_BLE_SDK/GD32VW55x_RELEASE_V1.0.2/MSDK/wpa_supplicant/src/rsn_supp\pmksa_cache.c **** 		    (pmkid == NULL ||
 408:C:/Users/stapi/OneDrive/Desktop/GD32VW553/V1_MQTT_OK/GD32VW55X_Wifi_BLE_SDK/GD32VW55x_RELEASE_V1.0.2/MSDK/wpa_supplicant/src/rsn_supp\pmksa_cache.c **** 		     os_memcmp(entry->pmkid, pmkid, PMKID_LEN) == 0) &&
 159              		.loc 1 408 56
 160 001a 63050A00 		beq	s4,zero,.L14
 409:C:/Users/stapi/OneDrive/Desktop/GD32VW553/V1_MQTT_OK/GD32VW55X_Wifi_BLE_SDK/GD32VW55x_RELEASE_V1.0.2/MSDK/wpa_supplicant/src/rsn_supp\pmksa_cache.c **** 		    (!akmp || akmp == entry->akmp) &&
 161              		.loc 1 409 14
 162 001e 7C4C     		lw	a5,92(s0)
 163 0020 63954703 		bne	a5,s4,.L16
 164              	.L14:
 165              		.loc 1 409 38 discriminator 1
 166 0024 63850900 		beq	s3,zero,.L8
 410:C:/Users/stapi/OneDrive/Desktop/GD32VW553/V1_MQTT_OK/GD32VW55X_Wifi_BLE_SDK/GD32VW55x_RELEASE_V1.0.2/MSDK/wpa_supplicant/src/rsn_supp\pmksa_cache.c **** 		    (network_ctx == NULL || network_ctx == entry->network_ctx))
 167              		.loc 1 410 28
 168 0028 3C58     		lw	a5,112(s0)
 169 002a 63903703 		bne	a5,s3,.L16
 170              	.L8:
 411:C:/Users/stapi/OneDrive/Desktop/GD32VW553/V1_MQTT_OK/GD32VW55X_Wifi_BLE_SDK/GD32VW55x_RELEASE_V1.0.2/MSDK/wpa_supplicant/src/rsn_supp\pmksa_cache.c **** 			return entry;
 412:C:/Users/stapi/OneDrive/Desktop/GD32VW553/V1_MQTT_OK/GD32VW55X_Wifi_BLE_SDK/GD32VW55x_RELEASE_V1.0.2/MSDK/wpa_supplicant/src/rsn_supp\pmksa_cache.c **** 		entry = entry->next;
 413:C:/Users/stapi/OneDrive/Desktop/GD32VW553/V1_MQTT_OK/GD32VW55X_Wifi_BLE_SDK/GD32VW55x_RELEASE_V1.0.2/MSDK/wpa_supplicant/src/rsn_supp\pmksa_cache.c **** 	}
 414:C:/Users/stapi/OneDrive/Desktop/GD32VW553/V1_MQTT_OK/GD32VW55X_Wifi_BLE_SDK/GD32VW55x_RELEASE_V1.0.2/MSDK/wpa_supplicant/src/rsn_supp\pmksa_cache.c **** 	return NULL;
 415:C:/Users/stapi/OneDrive/Desktop/GD32VW553/V1_MQTT_OK/GD32VW55X_Wifi_BLE_SDK/GD32VW55x_RELEASE_V1.0.2/MSDK/wpa_supplicant/src/rsn_supp\pmksa_cache.c **** }
 171              		.loc 1 415 1
 172 002e 2285     		mv	a0,s0
 173 0030 17030000 		tail	__riscv_restore_5
 173      67000300 
 174              		.cfi_remember_state
 175              		.cfi_restore 20
 176              		.cfi_restore 19
 177              		.cfi_restore 18
 178              		.cfi_restore 9
 179              		.cfi_restore 8
 180              		.cfi_restore 1
 181              		.cfi_def_cfa_offset 0
 182              	.L10:
 183              		.cfi_restore_state
 406:C:/Users/stapi/OneDrive/Desktop/GD32VW553/V1_MQTT_OK/GD32VW55X_Wifi_BLE_SDK/GD32VW55x_RELEASE_V1.0.2/MSDK/wpa_supplicant/src/rsn_supp\pmksa_cache.c **** 		    (pmkid == NULL ||
 184              		.loc 1 406 22 discriminator 2
 185 0038 1946     		li	a2,6
 186 003a A685     		mv	a1,s1
 187 003c 13050406 		addi	a0,s0,96
 188 0040 97000000 		call	os_memcmp
 188      E7800000 
 189              	.LVL14:
 406:C:/Users/stapi/OneDrive/Desktop/GD32VW553/V1_MQTT_OK/GD32VW55X_Wifi_BLE_SDK/GD32VW55x_RELEASE_V1.0.2/MSDK/wpa_supplicant/src/rsn_supp\pmksa_cache.c **** 		    (pmkid == NULL ||
 190              		.loc 1 406 19 discriminator 2
 191 0048 79D5     		beq	a0,zero,.L13
 192              	.L16:
 412:C:/Users/stapi/OneDrive/Desktop/GD32VW553/V1_MQTT_OK/GD32VW55X_Wifi_BLE_SDK/GD32VW55x_RELEASE_V1.0.2/MSDK/wpa_supplicant/src/rsn_supp\pmksa_cache.c **** 	}
 193              		.loc 1 412 3 is_stmt 1
 412:C:/Users/stapi/OneDrive/Desktop/GD32VW553/V1_MQTT_OK/GD32VW55X_Wifi_BLE_SDK/GD32VW55x_RELEASE_V1.0.2/MSDK/wpa_supplicant/src/rsn_supp\pmksa_cache.c **** 	}
 194              		.loc 1 412 9 is_stmt 0
 195 004a 0040     		lw	s0,0(s0)
 196              	.LVL15:
 197 004c D9B7     		j	.L9
 198              	.L34:
 408:C:/Users/stapi/OneDrive/Desktop/GD32VW553/V1_MQTT_OK/GD32VW55X_Wifi_BLE_SDK/GD32VW55x_RELEASE_V1.0.2/MSDK/wpa_supplicant/src/rsn_supp\pmksa_cache.c **** 		    (!akmp || akmp == entry->akmp) &&
 199              		.loc 1 408 8
 200 004e 4146     		li	a2,16
 201 0050 CA85     		mv	a1,s2
 202 0052 13054400 		addi	a0,s0,4
 203 0056 97000000 		call	os_memcmp
 203      E7800000 
 204              	.LVL16:
 407:C:/Users/stapi/OneDrive/Desktop/GD32VW553/V1_MQTT_OK/GD32VW55X_Wifi_BLE_SDK/GD32VW55x_RELEASE_V1.0.2/MSDK/wpa_supplicant/src/rsn_supp\pmksa_cache.c **** 		     os_memcmp(entry->pmkid, pmkid, PMKID_LEN) == 0) &&
 205              		.loc 1 407 22
 206 005e 55DD     		beq	a0,zero,.L11
 207 0060 EDB7     		j	.L16
 208              		.cfi_endproc
 209              	.LFE168:
 211              		.section	.text.pmksa_cache_set_expiration,"ax",@progbits
 212              		.align	1
 214              	pmksa_cache_set_expiration:
 215              	.LFB163:
 106:C:/Users/stapi/OneDrive/Desktop/GD32VW553/V1_MQTT_OK/GD32VW55X_Wifi_BLE_SDK/GD32VW55x_RELEASE_V1.0.2/MSDK/wpa_supplicant/src/rsn_supp\pmksa_cache.c **** 	int sec;
 216              		.loc 1 106 1 is_stmt 1
 217              		.cfi_startproc
 218              	.LVL17:
 219 0000 17030000 		call	t0,__riscv_save_3
 219      E7020300 
 220              		.cfi_offset 18, -16
 221              		.cfi_offset 9, -12
 222              		.cfi_offset 8, -8
 223              		.cfi_offset 1, -4
 224              		.cfi_def_cfa_offset 16
 107:C:/Users/stapi/OneDrive/Desktop/GD32VW553/V1_MQTT_OK/GD32VW55X_Wifi_BLE_SDK/GD32VW55x_RELEASE_V1.0.2/MSDK/wpa_supplicant/src/rsn_supp\pmksa_cache.c **** 	struct rsn_pmksa_cache_entry *entry;
 225              		.loc 1 107 2
 108:C:/Users/stapi/OneDrive/Desktop/GD32VW553/V1_MQTT_OK/GD32VW55X_Wifi_BLE_SDK/GD32VW55x_RELEASE_V1.0.2/MSDK/wpa_supplicant/src/rsn_supp\pmksa_cache.c **** 	struct os_reltime now;
 226              		.loc 1 108 2
 109:C:/Users/stapi/OneDrive/Desktop/GD32VW553/V1_MQTT_OK/GD32VW55X_Wifi_BLE_SDK/GD32VW55x_RELEASE_V1.0.2/MSDK/wpa_supplicant/src/rsn_supp\pmksa_cache.c **** 
 227              		.loc 1 109 2
 111:C:/Users/stapi/OneDrive/Desktop/GD32VW553/V1_MQTT_OK/GD32VW55X_Wifi_BLE_SDK/GD32VW55x_RELEASE_V1.0.2/MSDK/wpa_supplicant/src/rsn_supp\pmksa_cache.c **** 	eloop_cancel_timeout(pmksa_cache_reauth, pmksa, NULL);
 228              		.loc 1 111 2
 229 0008 37090000 		lui	s2,%hi(pmksa_cache_expire)
 106:C:/Users/stapi/OneDrive/Desktop/GD32VW553/V1_MQTT_OK/GD32VW55X_Wifi_BLE_SDK/GD32VW55x_RELEASE_V1.0.2/MSDK/wpa_supplicant/src/rsn_supp\pmksa_cache.c **** 	int sec;
 230              		.loc 1 106 1 is_stmt 0
 231 000c 2A84     		mv	s0,a0
 111:C:/Users/stapi/OneDrive/Desktop/GD32VW553/V1_MQTT_OK/GD32VW55X_Wifi_BLE_SDK/GD32VW55x_RELEASE_V1.0.2/MSDK/wpa_supplicant/src/rsn_supp\pmksa_cache.c **** 	eloop_cancel_timeout(pmksa_cache_reauth, pmksa, NULL);
 232              		.loc 1 111 2
 233 000e AA85     		mv	a1,a0
 106:C:/Users/stapi/OneDrive/Desktop/GD32VW553/V1_MQTT_OK/GD32VW55X_Wifi_BLE_SDK/GD32VW55x_RELEASE_V1.0.2/MSDK/wpa_supplicant/src/rsn_supp\pmksa_cache.c **** 	int sec;
 234              		.loc 1 106 1
 235 0010 4111     		addi	sp,sp,-16
 236              		.cfi_def_cfa_offset 32
 111:C:/Users/stapi/OneDrive/Desktop/GD32VW553/V1_MQTT_OK/GD32VW55X_Wifi_BLE_SDK/GD32VW55x_RELEASE_V1.0.2/MSDK/wpa_supplicant/src/rsn_supp\pmksa_cache.c **** 	eloop_cancel_timeout(pmksa_cache_reauth, pmksa, NULL);
 237              		.loc 1 111 2
 238 0012 0146     		li	a2,0
 239 0014 13050900 		addi	a0,s2,%lo(pmksa_cache_expire)
 240              	.LVL18:
 241 0018 97000000 		call	eloop_cancel_timeout
 241      E7800000 
 242              	.LVL19:
 112:C:/Users/stapi/OneDrive/Desktop/GD32VW553/V1_MQTT_OK/GD32VW55X_Wifi_BLE_SDK/GD32VW55x_RELEASE_V1.0.2/MSDK/wpa_supplicant/src/rsn_supp\pmksa_cache.c **** 	if (pmksa->pmksa == NULL)
 243              		.loc 1 112 2 is_stmt 1
 244 0020 B7040000 		lui	s1,%hi(pmksa_cache_reauth)
 245 0024 0146     		li	a2,0
 246 0026 A285     		mv	a1,s0
 247 0028 13850400 		addi	a0,s1,%lo(pmksa_cache_reauth)
 248 002c 97000000 		call	eloop_cancel_timeout
 248      E7800000 
 249              	.LVL20:
 113:C:/Users/stapi/OneDrive/Desktop/GD32VW553/V1_MQTT_OK/GD32VW55X_Wifi_BLE_SDK/GD32VW55x_RELEASE_V1.0.2/MSDK/wpa_supplicant/src/rsn_supp\pmksa_cache.c **** 		return;
 250              		.loc 1 113 2
 113:C:/Users/stapi/OneDrive/Desktop/GD32VW553/V1_MQTT_OK/GD32VW55X_Wifi_BLE_SDK/GD32VW55x_RELEASE_V1.0.2/MSDK/wpa_supplicant/src/rsn_supp\pmksa_cache.c **** 		return;
 251              		.loc 1 113 5 is_stmt 0
 252 0034 1C40     		lw	a5,0(s0)
 253 0036 D1C3     		beq	a5,zero,.L37
 254              	.LVL21:
 255              	.LBB54:
 256              	.LBB55:
 115:C:/Users/stapi/OneDrive/Desktop/GD32VW553/V1_MQTT_OK/GD32VW55X_Wifi_BLE_SDK/GD32VW55x_RELEASE_V1.0.2/MSDK/wpa_supplicant/src/rsn_supp\pmksa_cache.c **** 	sec = pmksa->pmksa->expiration - now.sec;
 257              		.loc 1 115 2 is_stmt 1
 258 0038 2800     		addi	a0,sp,8
 259 003a 97000000 		call	os_get_reltime
 259      E7800000 
 260              	.LVL22:
 116:C:/Users/stapi/OneDrive/Desktop/GD32VW553/V1_MQTT_OK/GD32VW55X_Wifi_BLE_SDK/GD32VW55x_RELEASE_V1.0.2/MSDK/wpa_supplicant/src/rsn_supp\pmksa_cache.c **** 	if (sec < 0) {
 261              		.loc 1 116 2
 116:C:/Users/stapi/OneDrive/Desktop/GD32VW553/V1_MQTT_OK/GD32VW55X_Wifi_BLE_SDK/GD32VW55x_RELEASE_V1.0.2/MSDK/wpa_supplicant/src/rsn_supp\pmksa_cache.c **** 	if (sec < 0) {
 262              		.loc 1 116 13 is_stmt 0
 263 0042 0840     		lw	a0,0(s0)
 116:C:/Users/stapi/OneDrive/Desktop/GD32VW553/V1_MQTT_OK/GD32VW55X_Wifi_BLE_SDK/GD32VW55x_RELEASE_V1.0.2/MSDK/wpa_supplicant/src/rsn_supp\pmksa_cache.c **** 	if (sec < 0) {
 264              		.loc 1 116 6
 265 0044 2247     		lw	a4,8(sp)
 266 0046 3C4D     		lw	a5,88(a0)
 267 0048 998F     		sub	a5,a5,a4
 268              	.LVL23:
 117:C:/Users/stapi/OneDrive/Desktop/GD32VW553/V1_MQTT_OK/GD32VW55X_Wifi_BLE_SDK/GD32VW55x_RELEASE_V1.0.2/MSDK/wpa_supplicant/src/rsn_supp\pmksa_cache.c **** 		sec = 0;
 269              		.loc 1 117 2 is_stmt 1
 117:C:/Users/stapi/OneDrive/Desktop/GD32VW553/V1_MQTT_OK/GD32VW55X_Wifi_BLE_SDK/GD32VW55x_RELEASE_V1.0.2/MSDK/wpa_supplicant/src/rsn_supp\pmksa_cache.c **** 		sec = 0;
 270              		.loc 1 117 5 is_stmt 0
 271 004a 63D90700 		bge	a5,zero,.L39
 118:C:/Users/stapi/OneDrive/Desktop/GD32VW553/V1_MQTT_OK/GD32VW55X_Wifi_BLE_SDK/GD32VW55x_RELEASE_V1.0.2/MSDK/wpa_supplicant/src/rsn_supp\pmksa_cache.c **** 		if (wpa_key_mgmt_sae(pmksa->pmksa->akmp) &&
 272              		.loc 1 118 3 is_stmt 1
 273              	.LVL24:
 119:C:/Users/stapi/OneDrive/Desktop/GD32VW553/V1_MQTT_OK/GD32VW55X_Wifi_BLE_SDK/GD32VW55x_RELEASE_V1.0.2/MSDK/wpa_supplicant/src/rsn_supp\pmksa_cache.c **** 		    pmksa->is_current_cb(pmksa->pmksa, pmksa->ctx)) {
 274              		.loc 1 119 3
 275              	.LBB56:
 276              	.LBB57:
 277              		.file 4 "..\\..\\..\\..\\wpa_supplicant\\src/common/defs.h"
   1:..\..\..\..\wpa_supplicant\src/common/defs.h **** /*
   2:..\..\..\..\wpa_supplicant\src/common/defs.h ****  * WPA Supplicant - Common definitions
   3:..\..\..\..\wpa_supplicant\src/common/defs.h ****  * Copyright (c) 2004-2018, Jouni Malinen <j@w1.fi>
   4:..\..\..\..\wpa_supplicant\src/common/defs.h ****  *
   5:..\..\..\..\wpa_supplicant\src/common/defs.h ****  * This software may be distributed under the terms of the BSD license.
   6:..\..\..\..\wpa_supplicant\src/common/defs.h ****  * See README for more details.
   7:..\..\..\..\wpa_supplicant\src/common/defs.h ****  */
   8:..\..\..\..\wpa_supplicant\src/common/defs.h **** 
   9:..\..\..\..\wpa_supplicant\src/common/defs.h **** #ifndef DEFS_H
  10:..\..\..\..\wpa_supplicant\src/common/defs.h **** #define DEFS_H
  11:..\..\..\..\wpa_supplicant\src/common/defs.h **** 
  12:..\..\..\..\wpa_supplicant\src/common/defs.h **** #define WPA_CIPHER_NONE BIT(0)
  13:..\..\..\..\wpa_supplicant\src/common/defs.h **** #define WPA_CIPHER_WEP40 BIT(1)
  14:..\..\..\..\wpa_supplicant\src/common/defs.h **** #define WPA_CIPHER_WEP104 BIT(2)
  15:..\..\..\..\wpa_supplicant\src/common/defs.h **** #define WPA_CIPHER_TKIP BIT(3)
  16:..\..\..\..\wpa_supplicant\src/common/defs.h **** #define WPA_CIPHER_CCMP BIT(4)
  17:..\..\..\..\wpa_supplicant\src/common/defs.h **** #define WPA_CIPHER_AES_128_CMAC BIT(5)
  18:..\..\..\..\wpa_supplicant\src/common/defs.h **** #define WPA_CIPHER_GCMP BIT(6)
  19:..\..\..\..\wpa_supplicant\src/common/defs.h **** #define WPA_CIPHER_SMS4 BIT(7)
  20:..\..\..\..\wpa_supplicant\src/common/defs.h **** #define WPA_CIPHER_GCMP_256 BIT(8)
  21:..\..\..\..\wpa_supplicant\src/common/defs.h **** #define WPA_CIPHER_CCMP_256 BIT(9)
  22:..\..\..\..\wpa_supplicant\src/common/defs.h **** #define WPA_CIPHER_BIP_GMAC_128 BIT(11)
  23:..\..\..\..\wpa_supplicant\src/common/defs.h **** #define WPA_CIPHER_BIP_GMAC_256 BIT(12)
  24:..\..\..\..\wpa_supplicant\src/common/defs.h **** #define WPA_CIPHER_BIP_CMAC_256 BIT(13)
  25:..\..\..\..\wpa_supplicant\src/common/defs.h **** #define WPA_CIPHER_GTK_NOT_USED BIT(14)
  26:..\..\..\..\wpa_supplicant\src/common/defs.h **** 
  27:..\..\..\..\wpa_supplicant\src/common/defs.h **** #define WPA_KEY_MGMT_IEEE8021X BIT(0)
  28:..\..\..\..\wpa_supplicant\src/common/defs.h **** #define WPA_KEY_MGMT_PSK BIT(1)
  29:..\..\..\..\wpa_supplicant\src/common/defs.h **** #define WPA_KEY_MGMT_NONE BIT(2)
  30:..\..\..\..\wpa_supplicant\src/common/defs.h **** #define WPA_KEY_MGMT_IEEE8021X_NO_WPA BIT(3)
  31:..\..\..\..\wpa_supplicant\src/common/defs.h **** #define WPA_KEY_MGMT_WPA_NONE BIT(4)
  32:..\..\..\..\wpa_supplicant\src/common/defs.h **** #define WPA_KEY_MGMT_FT_IEEE8021X BIT(5)
  33:..\..\..\..\wpa_supplicant\src/common/defs.h **** #define WPA_KEY_MGMT_FT_PSK BIT(6)
  34:..\..\..\..\wpa_supplicant\src/common/defs.h **** #define WPA_KEY_MGMT_IEEE8021X_SHA256 BIT(7)
  35:..\..\..\..\wpa_supplicant\src/common/defs.h **** #define WPA_KEY_MGMT_PSK_SHA256 BIT(8)
  36:..\..\..\..\wpa_supplicant\src/common/defs.h **** #define WPA_KEY_MGMT_WPS BIT(9)
  37:..\..\..\..\wpa_supplicant\src/common/defs.h **** #define WPA_KEY_MGMT_SAE BIT(10)
  38:..\..\..\..\wpa_supplicant\src/common/defs.h **** #define WPA_KEY_MGMT_FT_SAE BIT(11)
  39:..\..\..\..\wpa_supplicant\src/common/defs.h **** #define WPA_KEY_MGMT_WAPI_PSK BIT(12)
  40:..\..\..\..\wpa_supplicant\src/common/defs.h **** #define WPA_KEY_MGMT_WAPI_CERT BIT(13)
  41:..\..\..\..\wpa_supplicant\src/common/defs.h **** #define WPA_KEY_MGMT_CCKM BIT(14)
  42:..\..\..\..\wpa_supplicant\src/common/defs.h **** #define WPA_KEY_MGMT_OSEN BIT(15)
  43:..\..\..\..\wpa_supplicant\src/common/defs.h **** #define WPA_KEY_MGMT_IEEE8021X_SUITE_B BIT(16)
  44:..\..\..\..\wpa_supplicant\src/common/defs.h **** #define WPA_KEY_MGMT_IEEE8021X_SUITE_B_192 BIT(17)
  45:..\..\..\..\wpa_supplicant\src/common/defs.h **** #define WPA_KEY_MGMT_FILS_SHA256 BIT(18)
  46:..\..\..\..\wpa_supplicant\src/common/defs.h **** #define WPA_KEY_MGMT_FILS_SHA384 BIT(19)
  47:..\..\..\..\wpa_supplicant\src/common/defs.h **** #define WPA_KEY_MGMT_FT_FILS_SHA256 BIT(20)
  48:..\..\..\..\wpa_supplicant\src/common/defs.h **** #define WPA_KEY_MGMT_FT_FILS_SHA384 BIT(21)
  49:..\..\..\..\wpa_supplicant\src/common/defs.h **** #define WPA_KEY_MGMT_OWE BIT(22)
  50:..\..\..\..\wpa_supplicant\src/common/defs.h **** #define WPA_KEY_MGMT_DPP BIT(23)
  51:..\..\..\..\wpa_supplicant\src/common/defs.h **** #define WPA_KEY_MGMT_FT_IEEE8021X_SHA384 BIT(24)
  52:..\..\..\..\wpa_supplicant\src/common/defs.h **** #define WPA_KEY_MGMT_PASN BIT(25)
  53:..\..\..\..\wpa_supplicant\src/common/defs.h **** 
  54:..\..\..\..\wpa_supplicant\src/common/defs.h **** 
  55:..\..\..\..\wpa_supplicant\src/common/defs.h **** #define WPA_KEY_MGMT_FT (WPA_KEY_MGMT_FT_PSK | \
  56:..\..\..\..\wpa_supplicant\src/common/defs.h **** 			 WPA_KEY_MGMT_FT_IEEE8021X | \
  57:..\..\..\..\wpa_supplicant\src/common/defs.h **** 			 WPA_KEY_MGMT_FT_IEEE8021X_SHA384 | \
  58:..\..\..\..\wpa_supplicant\src/common/defs.h **** 			 WPA_KEY_MGMT_FT_SAE | \
  59:..\..\..\..\wpa_supplicant\src/common/defs.h **** 			 WPA_KEY_MGMT_FT_FILS_SHA256 | \
  60:..\..\..\..\wpa_supplicant\src/common/defs.h **** 			 WPA_KEY_MGMT_FT_FILS_SHA384)
  61:..\..\..\..\wpa_supplicant\src/common/defs.h **** 
  62:..\..\..\..\wpa_supplicant\src/common/defs.h **** static inline int wpa_key_mgmt_wpa_ieee8021x(int akm)
  63:..\..\..\..\wpa_supplicant\src/common/defs.h **** {
  64:..\..\..\..\wpa_supplicant\src/common/defs.h **** 	return !!(akm & (WPA_KEY_MGMT_IEEE8021X |
  65:..\..\..\..\wpa_supplicant\src/common/defs.h **** 			 WPA_KEY_MGMT_FT_IEEE8021X |
  66:..\..\..\..\wpa_supplicant\src/common/defs.h **** 			 WPA_KEY_MGMT_FT_IEEE8021X_SHA384 |
  67:..\..\..\..\wpa_supplicant\src/common/defs.h **** 			 WPA_KEY_MGMT_CCKM |
  68:..\..\..\..\wpa_supplicant\src/common/defs.h **** 			 WPA_KEY_MGMT_OSEN |
  69:..\..\..\..\wpa_supplicant\src/common/defs.h **** 			 WPA_KEY_MGMT_IEEE8021X_SHA256 |
  70:..\..\..\..\wpa_supplicant\src/common/defs.h **** 			 WPA_KEY_MGMT_IEEE8021X_SUITE_B |
  71:..\..\..\..\wpa_supplicant\src/common/defs.h **** 			 WPA_KEY_MGMT_IEEE8021X_SUITE_B_192 |
  72:..\..\..\..\wpa_supplicant\src/common/defs.h **** 			 WPA_KEY_MGMT_FILS_SHA256 |
  73:..\..\..\..\wpa_supplicant\src/common/defs.h **** 			 WPA_KEY_MGMT_FILS_SHA384 |
  74:..\..\..\..\wpa_supplicant\src/common/defs.h **** 			 WPA_KEY_MGMT_FT_FILS_SHA256 |
  75:..\..\..\..\wpa_supplicant\src/common/defs.h **** 			 WPA_KEY_MGMT_FT_FILS_SHA384));
  76:..\..\..\..\wpa_supplicant\src/common/defs.h **** }
  77:..\..\..\..\wpa_supplicant\src/common/defs.h **** 
  78:..\..\..\..\wpa_supplicant\src/common/defs.h **** static inline int wpa_key_mgmt_wpa_psk_no_sae(int akm)
  79:..\..\..\..\wpa_supplicant\src/common/defs.h **** {
  80:..\..\..\..\wpa_supplicant\src/common/defs.h **** 	return !!(akm & (WPA_KEY_MGMT_PSK |
  81:..\..\..\..\wpa_supplicant\src/common/defs.h **** 			 WPA_KEY_MGMT_FT_PSK |
  82:..\..\..\..\wpa_supplicant\src/common/defs.h **** 			 WPA_KEY_MGMT_PSK_SHA256));
  83:..\..\..\..\wpa_supplicant\src/common/defs.h **** }
  84:..\..\..\..\wpa_supplicant\src/common/defs.h **** 
  85:..\..\..\..\wpa_supplicant\src/common/defs.h **** static inline int wpa_key_mgmt_wpa_psk(int akm)
  86:..\..\..\..\wpa_supplicant\src/common/defs.h **** {
  87:..\..\..\..\wpa_supplicant\src/common/defs.h **** 	return !!(akm & (WPA_KEY_MGMT_PSK |
  88:..\..\..\..\wpa_supplicant\src/common/defs.h **** 			 WPA_KEY_MGMT_FT_PSK |
  89:..\..\..\..\wpa_supplicant\src/common/defs.h **** 			 WPA_KEY_MGMT_PSK_SHA256 |
  90:..\..\..\..\wpa_supplicant\src/common/defs.h **** 			 WPA_KEY_MGMT_SAE |
  91:..\..\..\..\wpa_supplicant\src/common/defs.h **** 			 WPA_KEY_MGMT_FT_SAE));
  92:..\..\..\..\wpa_supplicant\src/common/defs.h **** }
  93:..\..\..\..\wpa_supplicant\src/common/defs.h **** 
  94:..\..\..\..\wpa_supplicant\src/common/defs.h **** static inline int wpa_key_mgmt_ft(int akm)
  95:..\..\..\..\wpa_supplicant\src/common/defs.h **** {
  96:..\..\..\..\wpa_supplicant\src/common/defs.h **** 	return !!(akm & WPA_KEY_MGMT_FT);
  97:..\..\..\..\wpa_supplicant\src/common/defs.h **** }
  98:..\..\..\..\wpa_supplicant\src/common/defs.h **** 
  99:..\..\..\..\wpa_supplicant\src/common/defs.h **** static inline int wpa_key_mgmt_only_ft(int akm)
 100:..\..\..\..\wpa_supplicant\src/common/defs.h **** {
 101:..\..\..\..\wpa_supplicant\src/common/defs.h **** 	int ft = wpa_key_mgmt_ft(akm);
 102:..\..\..\..\wpa_supplicant\src/common/defs.h **** 	akm &= ~WPA_KEY_MGMT_FT;
 103:..\..\..\..\wpa_supplicant\src/common/defs.h **** 	return ft && !akm;
 104:..\..\..\..\wpa_supplicant\src/common/defs.h **** }
 105:..\..\..\..\wpa_supplicant\src/common/defs.h **** 
 106:..\..\..\..\wpa_supplicant\src/common/defs.h **** static inline int wpa_key_mgmt_ft_psk(int akm)
 107:..\..\..\..\wpa_supplicant\src/common/defs.h **** {
 108:..\..\..\..\wpa_supplicant\src/common/defs.h **** 	return !!(akm & WPA_KEY_MGMT_FT_PSK);
 109:..\..\..\..\wpa_supplicant\src/common/defs.h **** }
 110:..\..\..\..\wpa_supplicant\src/common/defs.h **** 
 111:..\..\..\..\wpa_supplicant\src/common/defs.h **** static inline int wpa_key_mgmt_sae(int akm)
 112:..\..\..\..\wpa_supplicant\src/common/defs.h **** {
 113:..\..\..\..\wpa_supplicant\src/common/defs.h **** 	return !!(akm & (WPA_KEY_MGMT_SAE |
 278              		.loc 4 113 2
 279              		.loc 4 113 16 is_stmt 0
 280 004e 7C4D     		lw	a5,92(a0)
 281 0050 0567     		li	a4,4096
 282 0052 130707C0 		addi	a4,a4,-1024
 283 0056 F98F     		and	a5,a5,a4
 284              	.LBE57:
 285              	.LBE56:
 119:C:/Users/stapi/OneDrive/Desktop/GD32VW553/V1_MQTT_OK/GD32VW55X_Wifi_BLE_SDK/GD32VW55x_RELEASE_V1.0.2/MSDK/wpa_supplicant/src/rsn_supp\pmksa_cache.c **** 		    pmksa->is_current_cb(pmksa->pmksa, pmksa->ctx)) {
 286              		.loc 1 119 6
 287 0058 B5E7     		bne	a5,zero,.L40
 288              	.L41:
 118:C:/Users/stapi/OneDrive/Desktop/GD32VW553/V1_MQTT_OK/GD32VW55X_Wifi_BLE_SDK/GD32VW55x_RELEASE_V1.0.2/MSDK/wpa_supplicant/src/rsn_supp\pmksa_cache.c **** 		if (wpa_key_mgmt_sae(pmksa->pmksa->akmp) &&
 289              		.loc 1 118 7
 290 005a 8147     		li	a5,0
 291              	.LVL25:
 292              	.L39:
 138:C:/Users/stapi/OneDrive/Desktop/GD32VW553/V1_MQTT_OK/GD32VW55X_Wifi_BLE_SDK/GD32VW55x_RELEASE_V1.0.2/MSDK/wpa_supplicant/src/rsn_supp\pmksa_cache.c **** 
 293              		.loc 1 138 2 is_stmt 1
 294 005c 8145     		li	a1,0
 295 005e 0147     		li	a4,0
 296 0060 A286     		mv	a3,s0
 297 0062 13060900 		addi	a2,s2,%lo(pmksa_cache_expire)
 298 0066 13851700 		addi	a0,a5,1
 299 006a 97000000 		call	eloop_register_timeout
 299      E7800000 
 300              	.LVL26:
 140:C:/Users/stapi/OneDrive/Desktop/GD32VW553/V1_MQTT_OK/GD32VW55X_Wifi_BLE_SDK/GD32VW55x_RELEASE_V1.0.2/MSDK/wpa_supplicant/src/rsn_supp\pmksa_cache.c **** 		pmksa_cache_get(pmksa, pmksa->sm->bssid, NULL, NULL, 0);
 301              		.loc 1 140 2
 140:C:/Users/stapi/OneDrive/Desktop/GD32VW553/V1_MQTT_OK/GD32VW55X_Wifi_BLE_SDK/GD32VW55x_RELEASE_V1.0.2/MSDK/wpa_supplicant/src/rsn_supp\pmksa_cache.c **** 		pmksa_cache_get(pmksa, pmksa->sm->bssid, NULL, NULL, 0);
 302              		.loc 1 140 15 is_stmt 0
 303 0072 0C44     		lw	a1,8(s0)
 140:C:/Users/stapi/OneDrive/Desktop/GD32VW553/V1_MQTT_OK/GD32VW55X_Wifi_BLE_SDK/GD32VW55x_RELEASE_V1.0.2/MSDK/wpa_supplicant/src/rsn_supp\pmksa_cache.c **** 		pmksa_cache_get(pmksa, pmksa->sm->bssid, NULL, NULL, 0);
 304              		.loc 1 140 19
 305 0074 03A5053C 		lw	a0,960(a1)
 140:C:/Users/stapi/OneDrive/Desktop/GD32VW553/V1_MQTT_OK/GD32VW55X_Wifi_BLE_SDK/GD32VW55x_RELEASE_V1.0.2/MSDK/wpa_supplicant/src/rsn_supp\pmksa_cache.c **** 		pmksa_cache_get(pmksa, pmksa->sm->bssid, NULL, NULL, 0);
 306              		.loc 1 140 54
 307 0078 01ED     		bne	a0,zero,.L42
 141:C:/Users/stapi/OneDrive/Desktop/GD32VW553/V1_MQTT_OK/GD32VW55X_Wifi_BLE_SDK/GD32VW55x_RELEASE_V1.0.2/MSDK/wpa_supplicant/src/rsn_supp\pmksa_cache.c **** 	if (entry && !wpa_key_mgmt_sae(entry->akmp)) {
 308              		.loc 1 141 3
 309 007a 0147     		li	a4,0
 310 007c 8146     		li	a3,0
 311 007e 0146     		li	a2,0
 312 0080 9385C545 		addi	a1,a1,1116
 313 0084 2285     		mv	a0,s0
 314 0086 97000000 		call	pmksa_cache_get
 314      E7800000 
 315              	.LVL27:
 142:C:/Users/stapi/OneDrive/Desktop/GD32VW553/V1_MQTT_OK/GD32VW55X_Wifi_BLE_SDK/GD32VW55x_RELEASE_V1.0.2/MSDK/wpa_supplicant/src/rsn_supp\pmksa_cache.c **** 		sec = pmksa->pmksa->reauth_time - now.sec;
 316              		.loc 1 142 2 is_stmt 1
 142:C:/Users/stapi/OneDrive/Desktop/GD32VW553/V1_MQTT_OK/GD32VW55X_Wifi_BLE_SDK/GD32VW55x_RELEASE_V1.0.2/MSDK/wpa_supplicant/src/rsn_supp\pmksa_cache.c **** 		sec = pmksa->pmksa->reauth_time - now.sec;
 317              		.loc 1 142 5 is_stmt 0
 318 008e 15C5     		beq	a0,zero,.L37
 319              	.LVL28:
 320              	.L42:
 321              	.LBB58:
 322              	.LBB59:
 323              		.loc 4 113 2 is_stmt 1
 324              		.loc 4 113 16 is_stmt 0
 325 0090 7C4D     		lw	a5,92(a0)
 326 0092 0565     		li	a0,4096
 327              	.LVL29:
 328 0094 130505C0 		addi	a0,a0,-1024
 329 0098 E98F     		and	a5,a5,a0
 330              	.LBE59:
 331              	.LBE58:
 142:C:/Users/stapi/OneDrive/Desktop/GD32VW553/V1_MQTT_OK/GD32VW55X_Wifi_BLE_SDK/GD32VW55x_RELEASE_V1.0.2/MSDK/wpa_supplicant/src/rsn_supp\pmksa_cache.c **** 		sec = pmksa->pmksa->reauth_time - now.sec;
 332              		.loc 1 142 12
 333 009a 85E3     		bne	a5,zero,.L37
 143:C:/Users/stapi/OneDrive/Desktop/GD32VW553/V1_MQTT_OK/GD32VW55X_Wifi_BLE_SDK/GD32VW55x_RELEASE_V1.0.2/MSDK/wpa_supplicant/src/rsn_supp\pmksa_cache.c **** 		if (sec < 0)
 334              		.loc 1 143 3 is_stmt 1
 143:C:/Users/stapi/OneDrive/Desktop/GD32VW553/V1_MQTT_OK/GD32VW55X_Wifi_BLE_SDK/GD32VW55x_RELEASE_V1.0.2/MSDK/wpa_supplicant/src/rsn_supp\pmksa_cache.c **** 		if (sec < 0)
 335              		.loc 1 143 21 is_stmt 0
 336 009c 1840     		lw	a4,0(s0)
 146:C:/Users/stapi/OneDrive/Desktop/GD32VW553/V1_MQTT_OK/GD32VW55X_Wifi_BLE_SDK/GD32VW55x_RELEASE_V1.0.2/MSDK/wpa_supplicant/src/rsn_supp\pmksa_cache.c **** 				       NULL);
 337              		.loc 1 146 3
 338 009e A286     		mv	a3,s0
 339 00a0 13860400 		addi	a2,s1,%lo(pmksa_cache_reauth)
 143:C:/Users/stapi/OneDrive/Desktop/GD32VW553/V1_MQTT_OK/GD32VW55X_Wifi_BLE_SDK/GD32VW55x_RELEASE_V1.0.2/MSDK/wpa_supplicant/src/rsn_supp\pmksa_cache.c **** 		if (sec < 0)
 340              		.loc 1 143 7
 341 00a4 6857     		lw	a0,108(a4)
 342 00a6 2247     		lw	a4,8(sp)
 146:C:/Users/stapi/OneDrive/Desktop/GD32VW553/V1_MQTT_OK/GD32VW55X_Wifi_BLE_SDK/GD32VW55x_RELEASE_V1.0.2/MSDK/wpa_supplicant/src/rsn_supp\pmksa_cache.c **** 				       NULL);
 343              		.loc 1 146 3
 344 00a8 8145     		li	a1,0
 143:C:/Users/stapi/OneDrive/Desktop/GD32VW553/V1_MQTT_OK/GD32VW55X_Wifi_BLE_SDK/GD32VW55x_RELEASE_V1.0.2/MSDK/wpa_supplicant/src/rsn_supp\pmksa_cache.c **** 		if (sec < 0)
 345              		.loc 1 143 7
 346 00aa 198D     		sub	a0,a0,a4
 347              	.LVL30:
 144:C:/Users/stapi/OneDrive/Desktop/GD32VW553/V1_MQTT_OK/GD32VW55X_Wifi_BLE_SDK/GD32VW55x_RELEASE_V1.0.2/MSDK/wpa_supplicant/src/rsn_supp\pmksa_cache.c **** 			sec = 0;
 348              		.loc 1 144 3 is_stmt 1
 146:C:/Users/stapi/OneDrive/Desktop/GD32VW553/V1_MQTT_OK/GD32VW55X_Wifi_BLE_SDK/GD32VW55x_RELEASE_V1.0.2/MSDK/wpa_supplicant/src/rsn_supp\pmksa_cache.c **** 				       NULL);
 349              		.loc 1 146 3
 350 00ac 0147     		li	a4,0
 351 00ae 3365F50A 		max	a0,a0,a5
 352              	.LVL31:
 353 00b2 97000000 		call	eloop_register_timeout
 353      E7800000 
 354              	.LVL32:
 355              	.L37:
 356              	.LBE55:
 357              	.LBE54:
 149:C:/Users/stapi/OneDrive/Desktop/GD32VW553/V1_MQTT_OK/GD32VW55X_Wifi_BLE_SDK/GD32VW55x_RELEASE_V1.0.2/MSDK/wpa_supplicant/src/rsn_supp\pmksa_cache.c **** 
 358              		.loc 1 149 1 is_stmt 0
 359 00ba 4101     		addi	sp,sp,16
 360              		.cfi_remember_state
 361              		.cfi_def_cfa_offset 0
 362 00bc 17030000 		tail	__riscv_restore_3
 362      67000300 
 363              		.cfi_restore 18
 364              		.cfi_restore 9
 365              		.cfi_restore 8
 366              		.cfi_restore 1
 367              		.cfi_def_cfa_offset -16
 368              	.LVL33:
 369              	.L40:
 370              		.cfi_restore_state
 371              	.LBB61:
 372              	.LBB60:
 120:C:/Users/stapi/OneDrive/Desktop/GD32VW553/V1_MQTT_OK/GD32VW55X_Wifi_BLE_SDK/GD32VW55x_RELEASE_V1.0.2/MSDK/wpa_supplicant/src/rsn_supp\pmksa_cache.c **** 			/* Do not continue polling for the current PMKSA entry
 373              		.loc 1 120 7
 374 00c4 1C48     		lw	a5,16(s0)
 375 00c6 4C48     		lw	a1,20(s0)
 376 00c8 8297     		jalr	a5
 377              	.LVL34:
 119:C:/Users/stapi/OneDrive/Desktop/GD32VW553/V1_MQTT_OK/GD32VW55X_Wifi_BLE_SDK/GD32VW55x_RELEASE_V1.0.2/MSDK/wpa_supplicant/src/rsn_supp\pmksa_cache.c **** 		    pmksa->is_current_cb(pmksa->pmksa, pmksa->ctx)) {
 378              		.loc 1 119 44
 379 00ca 41D9     		beq	a0,zero,.L41
 126:C:/Users/stapi/OneDrive/Desktop/GD32VW553/V1_MQTT_OK/GD32VW55X_Wifi_BLE_SDK/GD32VW55x_RELEASE_V1.0.2/MSDK/wpa_supplicant/src/rsn_supp\pmksa_cache.c **** 			if (entry) {
 380              		.loc 1 126 4 is_stmt 1
 126:C:/Users/stapi/OneDrive/Desktop/GD32VW553/V1_MQTT_OK/GD32VW55X_Wifi_BLE_SDK/GD32VW55x_RELEASE_V1.0.2/MSDK/wpa_supplicant/src/rsn_supp\pmksa_cache.c **** 			if (entry) {
 381              		.loc 1 126 10 is_stmt 0
 382 00cc 1C40     		lw	a5,0(s0)
 383 00ce 9843     		lw	a4,0(a5)
 384              	.LVL35:
 127:C:/Users/stapi/OneDrive/Desktop/GD32VW553/V1_MQTT_OK/GD32VW55X_Wifi_BLE_SDK/GD32VW55x_RELEASE_V1.0.2/MSDK/wpa_supplicant/src/rsn_supp\pmksa_cache.c **** 				sec = entry->expiration - now.sec;
 385              		.loc 1 127 4 is_stmt 1
 134:C:/Users/stapi/OneDrive/Desktop/GD32VW553/V1_MQTT_OK/GD32VW55X_Wifi_BLE_SDK/GD32VW55x_RELEASE_V1.0.2/MSDK/wpa_supplicant/src/rsn_supp\pmksa_cache.c **** 			}
 386              		.loc 1 134 9 is_stmt 0
 387 00d0 93078025 		li	a5,600
 127:C:/Users/stapi/OneDrive/Desktop/GD32VW553/V1_MQTT_OK/GD32VW55X_Wifi_BLE_SDK/GD32VW55x_RELEASE_V1.0.2/MSDK/wpa_supplicant/src/rsn_supp\pmksa_cache.c **** 				sec = entry->expiration - now.sec;
 388              		.loc 1 127 7
 389 00d4 41D7     		beq	a4,zero,.L39
 128:C:/Users/stapi/OneDrive/Desktop/GD32VW553/V1_MQTT_OK/GD32VW55X_Wifi_BLE_SDK/GD32VW55x_RELEASE_V1.0.2/MSDK/wpa_supplicant/src/rsn_supp\pmksa_cache.c **** 				if (sec < 0)
 390              		.loc 1 128 5 is_stmt 1
 391              	.LVL36:
 129:C:/Users/stapi/OneDrive/Desktop/GD32VW553/V1_MQTT_OK/GD32VW55X_Wifi_BLE_SDK/GD32VW55x_RELEASE_V1.0.2/MSDK/wpa_supplicant/src/rsn_supp\pmksa_cache.c **** 					sec = 0;
 392              		.loc 1 129 5
 128:C:/Users/stapi/OneDrive/Desktop/GD32VW553/V1_MQTT_OK/GD32VW55X_Wifi_BLE_SDK/GD32VW55x_RELEASE_V1.0.2/MSDK/wpa_supplicant/src/rsn_supp\pmksa_cache.c **** 				if (sec < 0)
 393              		.loc 1 128 9 is_stmt 0
 394 00d6 3C4F     		lw	a5,88(a4)
 395 00d8 2245     		lw	a0,8(sp)
 396 00da 13078025 		li	a4,600
 397              	.LVL37:
 398 00de 898F     		sub	a5,a5,a0
 399              	.LVL38:
 400 00e0 B3C7E70A 		min	a5,a5,a4
 401              	.LVL39:
 402 00e4 0147     		li	a4,0
 403 00e6 B3E7E70A 		max	a5,a5,a4
 404 00ea 8DBF     		j	.L39
 405              	.LBE60:
 406              	.LBE61:
 407              		.cfi_endproc
 408              	.LFE163:
 410              		.section	.rodata.pmksa_cache_expire.str1.4,"aMS",@progbits,1
 411              		.align	2
 412              	.LC0:
 413 0000 52534E3A 		.string	"RSN: postpone PMKSA cache entry expiration for SAE with %02x:%02x:%02x:%02x:%02x:%02x"
 413      20706F73 
 413      74706F6E 
 413      6520504D 
 413      4B534120 
 414 0056 0000     		.align	2
 415              	.LC1:
 416 0058 52534E3A 		.string	"RSN: expired PMKSA cache entry for %02x:%02x:%02x:%02x:%02x:%02x"
 416      20657870 
 416      69726564 
 416      20504D4B 
 416      53412063 
 417              		.section	.text.pmksa_cache_expire,"ax",@progbits
 418              		.align	1
 420              	pmksa_cache_expire:
 421              	.LFB161:
  59:C:/Users/stapi/OneDrive/Desktop/GD32VW553/V1_MQTT_OK/GD32VW55X_Wifi_BLE_SDK/GD32VW55x_RELEASE_V1.0.2/MSDK/wpa_supplicant/src/rsn_supp\pmksa_cache.c **** 	struct rsn_pmksa_cache *pmksa = eloop_ctx;
 422              		.loc 1 59 1 is_stmt 1
 423              		.cfi_startproc
 424              	.LVL40:
 425 0000 17030000 		call	t0,__riscv_save_7
 425      E7020300 
 426              		.cfi_offset 22, -32
 427              		.cfi_offset 21, -28
 428              		.cfi_offset 20, -24
 429              		.cfi_offset 19, -20
 430              		.cfi_offset 18, -16
 431              		.cfi_offset 9, -12
 432              		.cfi_offset 8, -8
 433              		.cfi_offset 1, -4
 434              		.cfi_def_cfa_offset 32
  60:C:/Users/stapi/OneDrive/Desktop/GD32VW553/V1_MQTT_OK/GD32VW55X_Wifi_BLE_SDK/GD32VW55x_RELEASE_V1.0.2/MSDK/wpa_supplicant/src/rsn_supp\pmksa_cache.c **** 	struct os_reltime now;
 435              		.loc 1 60 2
 436              	.LVL41:
  61:C:/Users/stapi/OneDrive/Desktop/GD32VW553/V1_MQTT_OK/GD32VW55X_Wifi_BLE_SDK/GD32VW55x_RELEASE_V1.0.2/MSDK/wpa_supplicant/src/rsn_supp\pmksa_cache.c **** 	struct rsn_pmksa_cache_entry *prev = NULL, *tmp;
 437              		.loc 1 61 2
  62:C:/Users/stapi/OneDrive/Desktop/GD32VW553/V1_MQTT_OK/GD32VW55X_Wifi_BLE_SDK/GD32VW55x_RELEASE_V1.0.2/MSDK/wpa_supplicant/src/rsn_supp\pmksa_cache.c **** 	struct rsn_pmksa_cache_entry *entry = pmksa->pmksa;
 438              		.loc 1 62 2
  63:C:/Users/stapi/OneDrive/Desktop/GD32VW553/V1_MQTT_OK/GD32VW55X_Wifi_BLE_SDK/GD32VW55x_RELEASE_V1.0.2/MSDK/wpa_supplicant/src/rsn_supp\pmksa_cache.c **** 
 439              		.loc 1 63 2
  59:C:/Users/stapi/OneDrive/Desktop/GD32VW553/V1_MQTT_OK/GD32VW55X_Wifi_BLE_SDK/GD32VW55x_RELEASE_V1.0.2/MSDK/wpa_supplicant/src/rsn_supp\pmksa_cache.c **** 	struct rsn_pmksa_cache *pmksa = eloop_ctx;
 440              		.loc 1 59 1 is_stmt 0
 441 0008 4111     		addi	sp,sp,-16
 442              		.cfi_def_cfa_offset 48
  63:C:/Users/stapi/OneDrive/Desktop/GD32VW553/V1_MQTT_OK/GD32VW55X_Wifi_BLE_SDK/GD32VW55x_RELEASE_V1.0.2/MSDK/wpa_supplicant/src/rsn_supp\pmksa_cache.c **** 
 443              		.loc 1 63 32
 444 000a 0041     		lw	s0,0(a0)
 445              	.LVL42:
  65:C:/Users/stapi/OneDrive/Desktop/GD32VW553/V1_MQTT_OK/GD32VW55X_Wifi_BLE_SDK/GD32VW55x_RELEASE_V1.0.2/MSDK/wpa_supplicant/src/rsn_supp\pmksa_cache.c **** 	while (entry && entry->expiration <= now.sec) {
 446              		.loc 1 65 2 is_stmt 1
  59:C:/Users/stapi/OneDrive/Desktop/GD32VW553/V1_MQTT_OK/GD32VW55X_Wifi_BLE_SDK/GD32VW55x_RELEASE_V1.0.2/MSDK/wpa_supplicant/src/rsn_supp\pmksa_cache.c **** 	struct rsn_pmksa_cache *pmksa = eloop_ctx;
 447              		.loc 1 59 1 is_stmt 0
 448 000c AA84     		mv	s1,a0
 449              	.LBB62:
 450              	.LBB63:
 451              		.loc 4 113 16
 452 000e 8569     		li	s3,4096
 453              	.LBE63:
 454              	.LBE62:
  65:C:/Users/stapi/OneDrive/Desktop/GD32VW553/V1_MQTT_OK/GD32VW55X_Wifi_BLE_SDK/GD32VW55x_RELEASE_V1.0.2/MSDK/wpa_supplicant/src/rsn_supp\pmksa_cache.c **** 	while (entry && entry->expiration <= now.sec) {
 455              		.loc 1 65 2
 456 0010 2800     		addi	a0,sp,8
 457              	.LVL43:
 458 0012 97000000 		call	os_get_reltime
 458      E7800000 
 459              	.LVL44:
  66:C:/Users/stapi/OneDrive/Desktop/GD32VW553/V1_MQTT_OK/GD32VW55X_Wifi_BLE_SDK/GD32VW55x_RELEASE_V1.0.2/MSDK/wpa_supplicant/src/rsn_supp\pmksa_cache.c **** 		if (wpa_key_mgmt_sae(entry->akmp) &&
 460              		.loc 1 66 2 is_stmt 1
  62:C:/Users/stapi/OneDrive/Desktop/GD32VW553/V1_MQTT_OK/GD32VW55X_Wifi_BLE_SDK/GD32VW55x_RELEASE_V1.0.2/MSDK/wpa_supplicant/src/rsn_supp\pmksa_cache.c **** 	struct rsn_pmksa_cache_entry *entry = pmksa->pmksa;
 461              		.loc 1 62 32 is_stmt 0
 462 001a 0149     		li	s2,0
 463              	.LBB66:
 464              	.LBB64:
 465              		.loc 4 113 16
 466 001c 938909C0 		addi	s3,s3,-1024
 467              	.LBE64:
 468              	.LBE66:
  82:C:/Users/stapi/OneDrive/Desktop/GD32VW553/V1_MQTT_OK/GD32VW55X_Wifi_BLE_SDK/GD32VW55x_RELEASE_V1.0.2/MSDK/wpa_supplicant/src/rsn_supp\pmksa_cache.c **** 			   MACSTR, MAC2STR(entry->aa));
 469              		.loc 1 82 3
 470 0020 370A0000 		lui	s4,%hi(.LC1)
  74:C:/Users/stapi/OneDrive/Desktop/GD32VW553/V1_MQTT_OK/GD32VW55X_Wifi_BLE_SDK/GD32VW55x_RELEASE_V1.0.2/MSDK/wpa_supplicant/src/rsn_supp\pmksa_cache.c **** 				   "RSN: postpone PMKSA cache entry expiration for SAE with "
 471              		.loc 1 74 4
 472 0024 B70A0000 		lui	s5,%hi(.LC0)
 473              	.LVL45:
 474              	.L54:
  66:C:/Users/stapi/OneDrive/Desktop/GD32VW553/V1_MQTT_OK/GD32VW55X_Wifi_BLE_SDK/GD32VW55x_RELEASE_V1.0.2/MSDK/wpa_supplicant/src/rsn_supp\pmksa_cache.c **** 		if (wpa_key_mgmt_sae(entry->akmp) &&
 475              		.loc 1 66 8 is_stmt 1
 476 0028 09C4     		beq	s0,zero,.L59
  66:C:/Users/stapi/OneDrive/Desktop/GD32VW553/V1_MQTT_OK/GD32VW55X_Wifi_BLE_SDK/GD32VW55x_RELEASE_V1.0.2/MSDK/wpa_supplicant/src/rsn_supp\pmksa_cache.c **** 		if (wpa_key_mgmt_sae(entry->akmp) &&
 477              		.loc 1 66 15 is_stmt 0 discriminator 1
 478 002a 384C     		lw	a4,88(s0)
 479 002c A247     		lw	a5,8(sp)
 480 002e 63DCE700 		ble	a4,a5,.L60
 481              	.L59:
  93:C:/Users/stapi/OneDrive/Desktop/GD32VW553/V1_MQTT_OK/GD32VW55X_Wifi_BLE_SDK/GD32VW55x_RELEASE_V1.0.2/MSDK/wpa_supplicant/src/rsn_supp\pmksa_cache.c **** }
 482              		.loc 1 93 2 is_stmt 1
 483 0032 2685     		mv	a0,s1
 484 0034 97000000 		call	pmksa_cache_set_expiration
 484      E7800000 
 485              	.LVL46:
  94:C:/Users/stapi/OneDrive/Desktop/GD32VW553/V1_MQTT_OK/GD32VW55X_Wifi_BLE_SDK/GD32VW55x_RELEASE_V1.0.2/MSDK/wpa_supplicant/src/rsn_supp\pmksa_cache.c **** 
 486              		.loc 1 94 1 is_stmt 0
 487 003c 4101     		addi	sp,sp,16
 488              		.cfi_remember_state
 489              		.cfi_def_cfa_offset 0
 490 003e 17030000 		tail	__riscv_restore_7
 490      67000300 
 491              		.cfi_restore 22
 492              		.cfi_restore 21
 493              		.cfi_restore 20
 494              		.cfi_restore 19
 495              		.cfi_restore 18
 496              		.cfi_restore 9
 497              		.cfi_restore 8
 498              		.cfi_restore 1
 499              		.cfi_def_cfa_offset -32
 500              	.L60:
 501              		.cfi_restore_state
  67:C:/Users/stapi/OneDrive/Desktop/GD32VW553/V1_MQTT_OK/GD32VW55X_Wifi_BLE_SDK/GD32VW55x_RELEASE_V1.0.2/MSDK/wpa_supplicant/src/rsn_supp\pmksa_cache.c **** 		    pmksa->is_current_cb(entry, pmksa->ctx)) {
 502              		.loc 1 67 3 is_stmt 1
 503              	.LVL47:
 504              	.LBB67:
 505              	.LBB65:
 506              		.loc 4 113 2
 507              		.loc 4 113 16 is_stmt 0
 508 0046 7C4C     		lw	a5,92(s0)
 509 0048 B3F73701 		and	a5,a5,s3
 510              	.LBE65:
 511              	.LBE67:
  67:C:/Users/stapi/OneDrive/Desktop/GD32VW553/V1_MQTT_OK/GD32VW55X_Wifi_BLE_SDK/GD32VW55x_RELEASE_V1.0.2/MSDK/wpa_supplicant/src/rsn_supp\pmksa_cache.c **** 		    pmksa->is_current_cb(entry, pmksa->ctx)) {
 512              		.loc 1 67 6
 513 004c 85CF     		beq	a5,zero,.L55
  68:C:/Users/stapi/OneDrive/Desktop/GD32VW553/V1_MQTT_OK/GD32VW55X_Wifi_BLE_SDK/GD32VW55x_RELEASE_V1.0.2/MSDK/wpa_supplicant/src/rsn_supp\pmksa_cache.c **** 			/* Do not expire the currently used PMKSA entry for SAE
 514              		.loc 1 68 7 discriminator 1
 515 004e 9C48     		lw	a5,16(s1)
 516 0050 CC48     		lw	a1,20(s1)
 517 0052 2285     		mv	a0,s0
 518 0054 8297     		jalr	a5
 519              	.LVL48:
  67:C:/Users/stapi/OneDrive/Desktop/GD32VW553/V1_MQTT_OK/GD32VW55X_Wifi_BLE_SDK/GD32VW55x_RELEASE_V1.0.2/MSDK/wpa_supplicant/src/rsn_supp\pmksa_cache.c **** 		    pmksa->is_current_cb(entry, pmksa->ctx)) {
 520              		.loc 1 67 37 discriminator 1
 521 0056 1DC5     		beq	a0,zero,.L55
  74:C:/Users/stapi/OneDrive/Desktop/GD32VW553/V1_MQTT_OK/GD32VW55X_Wifi_BLE_SDK/GD32VW55x_RELEASE_V1.0.2/MSDK/wpa_supplicant/src/rsn_supp\pmksa_cache.c **** 				   "RSN: postpone PMKSA cache entry expiration for SAE with "
 522              		.loc 1 74 4 is_stmt 1
 523 0058 83485406 		lbu	a7,101(s0)
 524 005c 03484406 		lbu	a6,100(s0)
 525 0060 83473406 		lbu	a5,99(s0)
 526 0064 03472406 		lbu	a4,98(s0)
 527 0068 83461406 		lbu	a3,97(s0)
 528 006c 03460406 		lbu	a2,96(s0)
 529 0070 93850A00 		addi	a1,s5,%lo(.LC0)
 530 0074 0945     		li	a0,2
 531 0076 97000000 		call	wpa_printf
 531      E7800000 
 532              	.LVL49:
  77:C:/Users/stapi/OneDrive/Desktop/GD32VW553/V1_MQTT_OK/GD32VW55X_Wifi_BLE_SDK/GD32VW55x_RELEASE_V1.0.2/MSDK/wpa_supplicant/src/rsn_supp\pmksa_cache.c **** 			entry = entry->next;
 533              		.loc 1 77 4
  78:C:/Users/stapi/OneDrive/Desktop/GD32VW553/V1_MQTT_OK/GD32VW55X_Wifi_BLE_SDK/GD32VW55x_RELEASE_V1.0.2/MSDK/wpa_supplicant/src/rsn_supp\pmksa_cache.c **** 			continue;
 534              		.loc 1 78 4
  79:C:/Users/stapi/OneDrive/Desktop/GD32VW553/V1_MQTT_OK/GD32VW55X_Wifi_BLE_SDK/GD32VW55x_RELEASE_V1.0.2/MSDK/wpa_supplicant/src/rsn_supp\pmksa_cache.c **** 		}
 535              		.loc 1 79 4
 536 007e 2289     		mv	s2,s0
  78:C:/Users/stapi/OneDrive/Desktop/GD32VW553/V1_MQTT_OK/GD32VW55X_Wifi_BLE_SDK/GD32VW55x_RELEASE_V1.0.2/MSDK/wpa_supplicant/src/rsn_supp\pmksa_cache.c **** 			continue;
 537              		.loc 1 78 10 is_stmt 0
 538 0080 0040     		lw	s0,0(s0)
 539              	.LVL50:
  79:C:/Users/stapi/OneDrive/Desktop/GD32VW553/V1_MQTT_OK/GD32VW55X_Wifi_BLE_SDK/GD32VW55x_RELEASE_V1.0.2/MSDK/wpa_supplicant/src/rsn_supp\pmksa_cache.c **** 		}
 540              		.loc 1 79 4
 541 0082 5DB7     		j	.L54
 542              	.L55:
  82:C:/Users/stapi/OneDrive/Desktop/GD32VW553/V1_MQTT_OK/GD32VW55X_Wifi_BLE_SDK/GD32VW55x_RELEASE_V1.0.2/MSDK/wpa_supplicant/src/rsn_supp\pmksa_cache.c **** 			   MACSTR, MAC2STR(entry->aa));
 543              		.loc 1 82 3 is_stmt 1
 544 0084 83473406 		lbu	a5,99(s0)
 545 0088 83485406 		lbu	a7,101(s0)
 546 008c 03484406 		lbu	a6,100(s0)
 547 0090 03472406 		lbu	a4,98(s0)
 548 0094 83461406 		lbu	a3,97(s0)
 549 0098 03460406 		lbu	a2,96(s0)
 550 009c 93050A00 		addi	a1,s4,%lo(.LC1)
 551 00a0 0945     		li	a0,2
 552 00a2 97000000 		call	wpa_printf
 552      E7800000 
 553              	.LVL51:
  84:C:/Users/stapi/OneDrive/Desktop/GD32VW553/V1_MQTT_OK/GD32VW55X_Wifi_BLE_SDK/GD32VW55x_RELEASE_V1.0.2/MSDK/wpa_supplicant/src/rsn_supp\pmksa_cache.c **** 			prev->next = entry->next;
 554              		.loc 1 84 3
 555 00aa 1C40     		lw	a5,0(s0)
  84:C:/Users/stapi/OneDrive/Desktop/GD32VW553/V1_MQTT_OK/GD32VW55X_Wifi_BLE_SDK/GD32VW55x_RELEASE_V1.0.2/MSDK/wpa_supplicant/src/rsn_supp\pmksa_cache.c **** 			prev->next = entry->next;
 556              		.loc 1 84 6 is_stmt 0
 557 00ac 630F0900 		beq	s2,zero,.L57
  85:C:/Users/stapi/OneDrive/Desktop/GD32VW553/V1_MQTT_OK/GD32VW55X_Wifi_BLE_SDK/GD32VW55x_RELEASE_V1.0.2/MSDK/wpa_supplicant/src/rsn_supp\pmksa_cache.c **** 		else
 558              		.loc 1 85 4 is_stmt 1
  85:C:/Users/stapi/OneDrive/Desktop/GD32VW553/V1_MQTT_OK/GD32VW55X_Wifi_BLE_SDK/GD32VW55x_RELEASE_V1.0.2/MSDK/wpa_supplicant/src/rsn_supp\pmksa_cache.c **** 		else
 559              		.loc 1 85 15 is_stmt 0
 560 00b0 2320F900 		sw	a5,0(s2)
 561              	.L58:
  88:C:/Users/stapi/OneDrive/Desktop/GD32VW553/V1_MQTT_OK/GD32VW55X_Wifi_BLE_SDK/GD32VW55x_RELEASE_V1.0.2/MSDK/wpa_supplicant/src/rsn_supp\pmksa_cache.c **** 		entry = entry->next;
 562              		.loc 1 88 3 is_stmt 1
 563              	.LVL52:
  89:C:/Users/stapi/OneDrive/Desktop/GD32VW553/V1_MQTT_OK/GD32VW55X_Wifi_BLE_SDK/GD32VW55x_RELEASE_V1.0.2/MSDK/wpa_supplicant/src/rsn_supp\pmksa_cache.c **** 		pmksa_cache_free_entry(pmksa, tmp, PMKSA_EXPIRE);
 564              		.loc 1 89 3
  89:C:/Users/stapi/OneDrive/Desktop/GD32VW553/V1_MQTT_OK/GD32VW55X_Wifi_BLE_SDK/GD32VW55x_RELEASE_V1.0.2/MSDK/wpa_supplicant/src/rsn_supp\pmksa_cache.c **** 		pmksa_cache_free_entry(pmksa, tmp, PMKSA_EXPIRE);
 565              		.loc 1 89 9 is_stmt 0
 566 00b4 032B0400 		lw	s6,0(s0)
 567              	.LVL53:
  90:C:/Users/stapi/OneDrive/Desktop/GD32VW553/V1_MQTT_OK/GD32VW55X_Wifi_BLE_SDK/GD32VW55x_RELEASE_V1.0.2/MSDK/wpa_supplicant/src/rsn_supp\pmksa_cache.c **** 	}
 568              		.loc 1 90 3 is_stmt 1
 569 00b8 A285     		mv	a1,s0
 570 00ba 0946     		li	a2,2
 571 00bc 2685     		mv	a0,s1
 572 00be 97000000 		call	pmksa_cache_free_entry
 572      E7800000 
 573              	.LVL54:
  89:C:/Users/stapi/OneDrive/Desktop/GD32VW553/V1_MQTT_OK/GD32VW55X_Wifi_BLE_SDK/GD32VW55x_RELEASE_V1.0.2/MSDK/wpa_supplicant/src/rsn_supp\pmksa_cache.c **** 		pmksa_cache_free_entry(pmksa, tmp, PMKSA_EXPIRE);
 574              		.loc 1 89 9 is_stmt 0
 575 00c6 5A84     		mv	s0,s6
 576              	.LVL55:
 577 00c8 85B7     		j	.L54
 578              	.LVL56:
 579              	.L57:
  87:C:/Users/stapi/OneDrive/Desktop/GD32VW553/V1_MQTT_OK/GD32VW55X_Wifi_BLE_SDK/GD32VW55x_RELEASE_V1.0.2/MSDK/wpa_supplicant/src/rsn_supp\pmksa_cache.c **** 		tmp = entry;
 580              		.loc 1 87 4 is_stmt 1
  87:C:/Users/stapi/OneDrive/Desktop/GD32VW553/V1_MQTT_OK/GD32VW55X_Wifi_BLE_SDK/GD32VW55x_RELEASE_V1.0.2/MSDK/wpa_supplicant/src/rsn_supp\pmksa_cache.c **** 		tmp = entry;
 581              		.loc 1 87 17 is_stmt 0
 582 00ca 9CC0     		sw	a5,0(s1)
 583 00cc E5B7     		j	.L58
 584              		.cfi_endproc
 585              	.LFE161:
 587              		.section	.rodata.pmksa_cache_flush.str1.4,"aMS",@progbits,1
 588              		.align	2
 589              	.LC2:
 590 0000 52534E3A 		.string	"RSN: Flush PMKSA cache entry for %02x:%02x:%02x:%02x:%02x:%02x"
 590      20466C75 
 590      73682050 
 590      4D4B5341 
 590      20636163 
 591              		.section	.text.pmksa_cache_flush,"ax",@progbits
 592              		.align	1
 593              		.globl	pmksa_cache_flush
 595              	pmksa_cache_flush:
 596              	.LFB166:
 335:C:/Users/stapi/OneDrive/Desktop/GD32VW553/V1_MQTT_OK/GD32VW55X_Wifi_BLE_SDK/GD32VW55x_RELEASE_V1.0.2/MSDK/wpa_supplicant/src/rsn_supp\pmksa_cache.c **** 	struct rsn_pmksa_cache_entry *entry, *prev = NULL, *tmp;
 597              		.loc 1 335 1 is_stmt 1
 598              		.cfi_startproc
 599              	.LVL57:
 600 0000 17030000 		call	t0,__riscv_save_10
 600      E7020300 
 601              		.cfi_offset 25, -44
 602              		.cfi_offset 24, -40
 603              		.cfi_offset 23, -36
 604              		.cfi_offset 22, -32
 605              		.cfi_offset 21, -28
 606              		.cfi_offset 20, -24
 607              		.cfi_offset 19, -20
 608              		.cfi_offset 18, -16
 609              		.cfi_offset 9, -12
 610              		.cfi_offset 8, -8
 611              		.cfi_offset 1, -4
 612              		.cfi_def_cfa_offset 48
 336:C:/Users/stapi/OneDrive/Desktop/GD32VW553/V1_MQTT_OK/GD32VW55X_Wifi_BLE_SDK/GD32VW55x_RELEASE_V1.0.2/MSDK/wpa_supplicant/src/rsn_supp\pmksa_cache.c **** 	int removed = 0;
 613              		.loc 1 336 2
 614              	.LVL58:
 337:C:/Users/stapi/OneDrive/Desktop/GD32VW553/V1_MQTT_OK/GD32VW55X_Wifi_BLE_SDK/GD32VW55x_RELEASE_V1.0.2/MSDK/wpa_supplicant/src/rsn_supp\pmksa_cache.c **** 
 615              		.loc 1 337 2
 339:C:/Users/stapi/OneDrive/Desktop/GD32VW553/V1_MQTT_OK/GD32VW55X_Wifi_BLE_SDK/GD32VW55x_RELEASE_V1.0.2/MSDK/wpa_supplicant/src/rsn_supp\pmksa_cache.c **** 	while (entry) {
 616              		.loc 1 339 2
 339:C:/Users/stapi/OneDrive/Desktop/GD32VW553/V1_MQTT_OK/GD32VW55X_Wifi_BLE_SDK/GD32VW55x_RELEASE_V1.0.2/MSDK/wpa_supplicant/src/rsn_supp\pmksa_cache.c **** 	while (entry) {
 617              		.loc 1 339 8 is_stmt 0
 618 0008 0041     		lw	s0,0(a0)
 619              	.LVL59:
 340:C:/Users/stapi/OneDrive/Desktop/GD32VW553/V1_MQTT_OK/GD32VW55X_Wifi_BLE_SDK/GD32VW55x_RELEASE_V1.0.2/MSDK/wpa_supplicant/src/rsn_supp\pmksa_cache.c **** 		if ((entry->network_ctx == network_ctx ||
 620              		.loc 1 340 2 is_stmt 1
 335:C:/Users/stapi/OneDrive/Desktop/GD32VW553/V1_MQTT_OK/GD32VW55X_Wifi_BLE_SDK/GD32VW55x_RELEASE_V1.0.2/MSDK/wpa_supplicant/src/rsn_supp\pmksa_cache.c **** 	struct rsn_pmksa_cache_entry *entry, *prev = NULL, *tmp;
 621              		.loc 1 335 1 is_stmt 0
 622 000a AA84     		mv	s1,a0
 623 000c 2E89     		mv	s2,a1
 624 000e B289     		mv	s3,a2
 625 0010 368A     		mv	s4,a3
 626 0012 BA8B     		mv	s7,a4
 337:C:/Users/stapi/OneDrive/Desktop/GD32VW553/V1_MQTT_OK/GD32VW55X_Wifi_BLE_SDK/GD32VW55x_RELEASE_V1.0.2/MSDK/wpa_supplicant/src/rsn_supp\pmksa_cache.c **** 
 627              		.loc 1 337 6
 628 0014 814A     		li	s5,0
 336:C:/Users/stapi/OneDrive/Desktop/GD32VW553/V1_MQTT_OK/GD32VW55X_Wifi_BLE_SDK/GD32VW55x_RELEASE_V1.0.2/MSDK/wpa_supplicant/src/rsn_supp\pmksa_cache.c **** 	int removed = 0;
 629              		.loc 1 336 40
 630 0016 014B     		li	s6,0
 347:C:/Users/stapi/OneDrive/Desktop/GD32VW553/V1_MQTT_OK/GD32VW55X_Wifi_BLE_SDK/GD32VW55x_RELEASE_V1.0.2/MSDK/wpa_supplicant/src/rsn_supp\pmksa_cache.c **** 				   "for " MACSTR, MAC2STR(entry->aa));
 631              		.loc 1 347 4
 632 0018 370C0000 		lui	s8,%hi(.LC2)
 633              	.LVL60:
 634              	.L72:
 340:C:/Users/stapi/OneDrive/Desktop/GD32VW553/V1_MQTT_OK/GD32VW55X_Wifi_BLE_SDK/GD32VW55x_RELEASE_V1.0.2/MSDK/wpa_supplicant/src/rsn_supp\pmksa_cache.c **** 		if ((entry->network_ctx == network_ctx ||
 635              		.loc 1 340 8 is_stmt 1
 636 001c 01EC     		bne	s0,zero,.L82
 362:C:/Users/stapi/OneDrive/Desktop/GD32VW553/V1_MQTT_OK/GD32VW55X_Wifi_BLE_SDK/GD32VW55x_RELEASE_V1.0.2/MSDK/wpa_supplicant/src/rsn_supp\pmksa_cache.c **** 		pmksa_cache_set_expiration(pmksa);
 637              		.loc 1 362 2
 362:C:/Users/stapi/OneDrive/Desktop/GD32VW553/V1_MQTT_OK/GD32VW55X_Wifi_BLE_SDK/GD32VW55x_RELEASE_V1.0.2/MSDK/wpa_supplicant/src/rsn_supp\pmksa_cache.c **** 		pmksa_cache_set_expiration(pmksa);
 638              		.loc 1 362 5 is_stmt 0
 639 001e 63870A00 		beq	s5,zero,.L71
 363:C:/Users/stapi/OneDrive/Desktop/GD32VW553/V1_MQTT_OK/GD32VW55X_Wifi_BLE_SDK/GD32VW55x_RELEASE_V1.0.2/MSDK/wpa_supplicant/src/rsn_supp\pmksa_cache.c **** }
 640              		.loc 1 363 3 is_stmt 1
 641 0022 2685     		mv	a0,s1
 642 0024 97000000 		call	pmksa_cache_set_expiration
 642      E7800000 
 643              	.LVL61:
 644              	.L71:
 364:C:/Users/stapi/OneDrive/Desktop/GD32VW553/V1_MQTT_OK/GD32VW55X_Wifi_BLE_SDK/GD32VW55x_RELEASE_V1.0.2/MSDK/wpa_supplicant/src/rsn_supp\pmksa_cache.c **** 
 645              		.loc 1 364 1 is_stmt 0
 646 002c 17030000 		tail	__riscv_restore_10
 646      67000300 
 647              		.cfi_remember_state
 648              		.cfi_restore 25
 649              		.cfi_restore 24
 650              		.cfi_restore 23
 651              		.cfi_restore 22
 652              		.cfi_restore 21
 653              		.cfi_restore 20
 654              		.cfi_restore 19
 655              		.cfi_restore 18
 656              		.cfi_restore 9
 657              		.cfi_restore 8
 658              		.cfi_restore 1
 659              		.cfi_def_cfa_offset 0
 660              	.L82:
 661              		.cfi_restore_state
 341:C:/Users/stapi/OneDrive/Desktop/GD32VW553/V1_MQTT_OK/GD32VW55X_Wifi_BLE_SDK/GD32VW55x_RELEASE_V1.0.2/MSDK/wpa_supplicant/src/rsn_supp\pmksa_cache.c **** 		     network_ctx == NULL) &&
 662              		.loc 1 341 3 is_stmt 1
 341:C:/Users/stapi/OneDrive/Desktop/GD32VW553/V1_MQTT_OK/GD32VW55X_Wifi_BLE_SDK/GD32VW55x_RELEASE_V1.0.2/MSDK/wpa_supplicant/src/rsn_supp\pmksa_cache.c **** 		     network_ctx == NULL) &&
 663              		.loc 1 341 6 is_stmt 0
 664 0034 3C58     		lw	a5,112(s0)
 665 0036 63842701 		beq	a5,s2,.L73
 341:C:/Users/stapi/OneDrive/Desktop/GD32VW553/V1_MQTT_OK/GD32VW55X_Wifi_BLE_SDK/GD32VW55x_RELEASE_V1.0.2/MSDK/wpa_supplicant/src/rsn_supp\pmksa_cache.c **** 		     network_ctx == NULL) &&
 666              		.loc 1 341 42 discriminator 1
 667 003a 63160906 		bne	s2,zero,.L74
 668              	.L73:
 342:C:/Users/stapi/OneDrive/Desktop/GD32VW553/V1_MQTT_OK/GD32VW55X_Wifi_BLE_SDK/GD32VW55x_RELEASE_V1.0.2/MSDK/wpa_supplicant/src/rsn_supp\pmksa_cache.c **** 		    (pmk == NULL ||
 669              		.loc 1 342 29
 670 003e 63980904 		bne	s3,zero,.L75
 671              	.L78:
 345:C:/Users/stapi/OneDrive/Desktop/GD32VW553/V1_MQTT_OK/GD32VW55X_Wifi_BLE_SDK/GD32VW55x_RELEASE_V1.0.2/MSDK/wpa_supplicant/src/rsn_supp\pmksa_cache.c **** 		    (!external_only || entry->external)) {
 672              		.loc 1 345 52
 673 0042 63950B06 		bne	s7,zero,.L76
 674              	.L77:
 347:C:/Users/stapi/OneDrive/Desktop/GD32VW553/V1_MQTT_OK/GD32VW55X_Wifi_BLE_SDK/GD32VW55x_RELEASE_V1.0.2/MSDK/wpa_supplicant/src/rsn_supp\pmksa_cache.c **** 				   "for " MACSTR, MAC2STR(entry->aa));
 675              		.loc 1 347 4 is_stmt 1
 676 0046 83473406 		lbu	a5,99(s0)
 677 004a 83485406 		lbu	a7,101(s0)
 678 004e 03484406 		lbu	a6,100(s0)
 679 0052 03472406 		lbu	a4,98(s0)
 680 0056 83461406 		lbu	a3,97(s0)
 681 005a 03460406 		lbu	a2,96(s0)
 682 005e 93050C00 		addi	a1,s8,%lo(.LC2)
 683 0062 0945     		li	a0,2
 684 0064 97000000 		call	wpa_printf
 684      E7800000 
 685              	.LVL62:
 349:C:/Users/stapi/OneDrive/Desktop/GD32VW553/V1_MQTT_OK/GD32VW55X_Wifi_BLE_SDK/GD32VW55x_RELEASE_V1.0.2/MSDK/wpa_supplicant/src/rsn_supp\pmksa_cache.c **** 				prev->next = entry->next;
 686              		.loc 1 349 4
 687 006c 1C40     		lw	a5,0(s0)
 349:C:/Users/stapi/OneDrive/Desktop/GD32VW553/V1_MQTT_OK/GD32VW55X_Wifi_BLE_SDK/GD32VW55x_RELEASE_V1.0.2/MSDK/wpa_supplicant/src/rsn_supp\pmksa_cache.c **** 				prev->next = entry->next;
 688              		.loc 1 349 7 is_stmt 0
 689 006e 63030B04 		beq	s6,zero,.L79
 350:C:/Users/stapi/OneDrive/Desktop/GD32VW553/V1_MQTT_OK/GD32VW55X_Wifi_BLE_SDK/GD32VW55x_RELEASE_V1.0.2/MSDK/wpa_supplicant/src/rsn_supp\pmksa_cache.c **** 			else
 690              		.loc 1 350 5 is_stmt 1
 350:C:/Users/stapi/OneDrive/Desktop/GD32VW553/V1_MQTT_OK/GD32VW55X_Wifi_BLE_SDK/GD32VW55x_RELEASE_V1.0.2/MSDK/wpa_supplicant/src/rsn_supp\pmksa_cache.c **** 			else
 691              		.loc 1 350 16 is_stmt 0
 692 0072 2320FB00 		sw	a5,0(s6)
 693              	.L80:
 353:C:/Users/stapi/OneDrive/Desktop/GD32VW553/V1_MQTT_OK/GD32VW55X_Wifi_BLE_SDK/GD32VW55x_RELEASE_V1.0.2/MSDK/wpa_supplicant/src/rsn_supp\pmksa_cache.c **** 			entry = entry->next;
 694              		.loc 1 353 4 is_stmt 1
 695              	.LVL63:
 354:C:/Users/stapi/OneDrive/Desktop/GD32VW553/V1_MQTT_OK/GD32VW55X_Wifi_BLE_SDK/GD32VW55x_RELEASE_V1.0.2/MSDK/wpa_supplicant/src/rsn_supp\pmksa_cache.c **** 			pmksa_cache_free_entry(pmksa, tmp, PMKSA_FREE);
 696              		.loc 1 354 4
 354:C:/Users/stapi/OneDrive/Desktop/GD32VW553/V1_MQTT_OK/GD32VW55X_Wifi_BLE_SDK/GD32VW55x_RELEASE_V1.0.2/MSDK/wpa_supplicant/src/rsn_supp\pmksa_cache.c **** 			pmksa_cache_free_entry(pmksa, tmp, PMKSA_FREE);
 697              		.loc 1 354 10 is_stmt 0
 698 0076 832C0400 		lw	s9,0(s0)
 699              	.LVL64:
 355:C:/Users/stapi/OneDrive/Desktop/GD32VW553/V1_MQTT_OK/GD32VW55X_Wifi_BLE_SDK/GD32VW55x_RELEASE_V1.0.2/MSDK/wpa_supplicant/src/rsn_supp\pmksa_cache.c **** 			removed++;
 700              		.loc 1 355 4 is_stmt 1
 701 007a A285     		mv	a1,s0
 702 007c 0146     		li	a2,0
 703 007e 2685     		mv	a0,s1
 704 0080 97000000 		call	pmksa_cache_free_entry
 704      E7800000 
 705              	.LVL65:
 356:C:/Users/stapi/OneDrive/Desktop/GD32VW553/V1_MQTT_OK/GD32VW55X_Wifi_BLE_SDK/GD32VW55x_RELEASE_V1.0.2/MSDK/wpa_supplicant/src/rsn_supp\pmksa_cache.c **** 		} else {
 706              		.loc 1 356 4
 356:C:/Users/stapi/OneDrive/Desktop/GD32VW553/V1_MQTT_OK/GD32VW55X_Wifi_BLE_SDK/GD32VW55x_RELEASE_V1.0.2/MSDK/wpa_supplicant/src/rsn_supp\pmksa_cache.c **** 		} else {
 707              		.loc 1 356 11 is_stmt 0
 708 0088 850A     		addi	s5,s5,1
 709              	.LVL66:
 354:C:/Users/stapi/OneDrive/Desktop/GD32VW553/V1_MQTT_OK/GD32VW55X_Wifi_BLE_SDK/GD32VW55x_RELEASE_V1.0.2/MSDK/wpa_supplicant/src/rsn_supp\pmksa_cache.c **** 			pmksa_cache_free_entry(pmksa, tmp, PMKSA_FREE);
 710              		.loc 1 354 10
 711 008a 6684     		mv	s0,s9
 712              	.LVL67:
 356:C:/Users/stapi/OneDrive/Desktop/GD32VW553/V1_MQTT_OK/GD32VW55X_Wifi_BLE_SDK/GD32VW55x_RELEASE_V1.0.2/MSDK/wpa_supplicant/src/rsn_supp\pmksa_cache.c **** 		} else {
 713              		.loc 1 356 11
 714 008c 41BF     		j	.L72
 715              	.LVL68:
 716              	.L75:
 343:C:/Users/stapi/OneDrive/Desktop/GD32VW553/V1_MQTT_OK/GD32VW55X_Wifi_BLE_SDK/GD32VW55x_RELEASE_V1.0.2/MSDK/wpa_supplicant/src/rsn_supp\pmksa_cache.c **** 		     (pmk_len == entry->pmk_len &&
 717              		.loc 1 343 20
 718 008e 7C48     		lw	a5,84(s0)
 719 0090 639B4701 		bne	a5,s4,.L74
 345:C:/Users/stapi/OneDrive/Desktop/GD32VW553/V1_MQTT_OK/GD32VW55X_Wifi_BLE_SDK/GD32VW55x_RELEASE_V1.0.2/MSDK/wpa_supplicant/src/rsn_supp\pmksa_cache.c **** 		    (!external_only || entry->external)) {
 720              		.loc 1 345 9
 721 0094 5286     		mv	a2,s4
 722 0096 93054401 		addi	a1,s0,20
 723 009a 4E85     		mv	a0,s3
 724 009c 97000000 		call	os_memcmp
 724      E7800000 
 725              	.LVL69:
 344:C:/Users/stapi/OneDrive/Desktop/GD32VW553/V1_MQTT_OK/GD32VW55X_Wifi_BLE_SDK/GD32VW55x_RELEASE_V1.0.2/MSDK/wpa_supplicant/src/rsn_supp\pmksa_cache.c **** 		      os_memcmp(pmk, entry->pmk, pmk_len) == 0)) &&
 726              		.loc 1 344 35
 727 00a4 59DD     		beq	a0,zero,.L78
 728              	.L74:
 358:C:/Users/stapi/OneDrive/Desktop/GD32VW553/V1_MQTT_OK/GD32VW55X_Wifi_BLE_SDK/GD32VW55x_RELEASE_V1.0.2/MSDK/wpa_supplicant/src/rsn_supp\pmksa_cache.c **** 			entry = entry->next;
 729              		.loc 1 358 4 is_stmt 1
 730              	.LVL70:
 359:C:/Users/stapi/OneDrive/Desktop/GD32VW553/V1_MQTT_OK/GD32VW55X_Wifi_BLE_SDK/GD32VW55x_RELEASE_V1.0.2/MSDK/wpa_supplicant/src/rsn_supp\pmksa_cache.c **** 		}
 731              		.loc 1 359 4
 359:C:/Users/stapi/OneDrive/Desktop/GD32VW553/V1_MQTT_OK/GD32VW55X_Wifi_BLE_SDK/GD32VW55x_RELEASE_V1.0.2/MSDK/wpa_supplicant/src/rsn_supp\pmksa_cache.c **** 		}
 732              		.loc 1 359 10 is_stmt 0
 733 00a6 228B     		mv	s6,s0
 734 00a8 0040     		lw	s0,0(s0)
 735              	.LVL71:
 736 00aa 8DBF     		j	.L72
 737              	.L76:
 346:C:/Users/stapi/OneDrive/Desktop/GD32VW553/V1_MQTT_OK/GD32VW55X_Wifi_BLE_SDK/GD32VW55x_RELEASE_V1.0.2/MSDK/wpa_supplicant/src/rsn_supp\pmksa_cache.c **** 			wpa_printf(MSG_DEBUG, "RSN: Flush PMKSA cache entry "
 738              		.loc 1 346 23
 739 00ac 83478407 		lbu	a5,120(s0)
 740 00b0 FDDB     		beq	a5,zero,.L74
 741 00b2 51BF     		j	.L77
 742              	.L79:
 352:C:/Users/stapi/OneDrive/Desktop/GD32VW553/V1_MQTT_OK/GD32VW55X_Wifi_BLE_SDK/GD32VW55x_RELEASE_V1.0.2/MSDK/wpa_supplicant/src/rsn_supp\pmksa_cache.c **** 			tmp = entry;
 743              		.loc 1 352 5 is_stmt 1
 352:C:/Users/stapi/OneDrive/Desktop/GD32VW553/V1_MQTT_OK/GD32VW55X_Wifi_BLE_SDK/GD32VW55x_RELEASE_V1.0.2/MSDK/wpa_supplicant/src/rsn_supp\pmksa_cache.c **** 			tmp = entry;
 744              		.loc 1 352 18 is_stmt 0
 745 00b4 9CC0     		sw	a5,0(s1)
 746 00b6 C1B7     		j	.L80
 747              		.cfi_endproc
 748              	.LFE166:
 750              		.section	.rodata.pmksa_cache_add_entry.str1.4,"aMS",@progbits,1
 751              		.align	2
 752              	.LC3:
 753 0000 5750413A 		.string	"WPA: reusing previous PMKSA entry"
 753      20726575 
 753      73696E67 
 753      20707265 
 753      76696F75 
 754 0022 0000     		.align	2
 755              	.LC4:
 756 0024 52534E3A 		.string	"RSN: Replace PMKSA entry for the current AP and any PMKSA cache entry that was based on t
 756      20526570 
 756      6C616365 
 756      20504D4B 
 756      53412065 
 757              		.align	2
 758              	.LC5:
 759 0088 52534E3A 		.string	"RSN: removed the oldest idle PMKSA cache entry (for %02x:%02x:%02x:%02x:%02x:%02x) to mak
 759      2072656D 
 759      6F766564 
 759      20746865 
 759      206F6C64 
 760              		.align	2
 761              	.LC6:
 762 00f4 52534E3A 		.string	"RSN: Added PMKSA cache entry for %02x:%02x:%02x:%02x:%02x:%02x network_ctx=%p akmp=0x%x"
 762      20416464 
 762      65642050 
 762      4D4B5341 
 762      20636163 
 763              		.section	.text.pmksa_cache_add_entry,"ax",@progbits
 764              		.align	1
 765              		.globl	pmksa_cache_add_entry
 767              	pmksa_cache_add_entry:
 768              	.LFB165:
 221:C:/Users/stapi/OneDrive/Desktop/GD32VW553/V1_MQTT_OK/GD32VW55X_Wifi_BLE_SDK/GD32VW55x_RELEASE_V1.0.2/MSDK/wpa_supplicant/src/rsn_supp\pmksa_cache.c **** 	struct rsn_pmksa_cache_entry *pos, *prev;
 769              		.loc 1 221 1 is_stmt 1
 770              		.cfi_startproc
 771              	.LVL72:
 772 0000 17030000 		call	t0,__riscv_save_5
 772      E7020300 
 773              		.cfi_offset 20, -24
 774              		.cfi_offset 19, -20
 775              		.cfi_offset 18, -16
 776              		.cfi_offset 9, -12
 777              		.cfi_offset 8, -8
 778              		.cfi_offset 1, -4
 779              		.cfi_def_cfa_offset 32
 222:C:/Users/stapi/OneDrive/Desktop/GD32VW553/V1_MQTT_OK/GD32VW55X_Wifi_BLE_SDK/GD32VW55x_RELEASE_V1.0.2/MSDK/wpa_supplicant/src/rsn_supp\pmksa_cache.c **** 
 780              		.loc 1 222 2
 226:C:/Users/stapi/OneDrive/Desktop/GD32VW553/V1_MQTT_OK/GD32VW55X_Wifi_BLE_SDK/GD32VW55x_RELEASE_V1.0.2/MSDK/wpa_supplicant/src/rsn_supp\pmksa_cache.c **** 	prev = NULL;
 781              		.loc 1 226 2
 226:C:/Users/stapi/OneDrive/Desktop/GD32VW553/V1_MQTT_OK/GD32VW55X_Wifi_BLE_SDK/GD32VW55x_RELEASE_V1.0.2/MSDK/wpa_supplicant/src/rsn_supp\pmksa_cache.c **** 	prev = NULL;
 782              		.loc 1 226 6 is_stmt 0
 783 0008 03290500 		lw	s2,0(a0)
 784              	.LVL73:
 227:C:/Users/stapi/OneDrive/Desktop/GD32VW553/V1_MQTT_OK/GD32VW55X_Wifi_BLE_SDK/GD32VW55x_RELEASE_V1.0.2/MSDK/wpa_supplicant/src/rsn_supp\pmksa_cache.c **** 	while (pos) {
 785              		.loc 1 227 2 is_stmt 1
 228:C:/Users/stapi/OneDrive/Desktop/GD32VW553/V1_MQTT_OK/GD32VW55X_Wifi_BLE_SDK/GD32VW55x_RELEASE_V1.0.2/MSDK/wpa_supplicant/src/rsn_supp\pmksa_cache.c **** 		if (os_memcmp(entry->aa, pos->aa, ETH_ALEN) == 0) {
 786              		.loc 1 228 2
 221:C:/Users/stapi/OneDrive/Desktop/GD32VW553/V1_MQTT_OK/GD32VW55X_Wifi_BLE_SDK/GD32VW55x_RELEASE_V1.0.2/MSDK/wpa_supplicant/src/rsn_supp\pmksa_cache.c **** 	struct rsn_pmksa_cache_entry *pos, *prev;
 787              		.loc 1 221 1 is_stmt 0
 788 000c 4111     		addi	sp,sp,-16
 789              		.cfi_def_cfa_offset 48
 221:C:/Users/stapi/OneDrive/Desktop/GD32VW553/V1_MQTT_OK/GD32VW55X_Wifi_BLE_SDK/GD32VW55x_RELEASE_V1.0.2/MSDK/wpa_supplicant/src/rsn_supp\pmksa_cache.c **** 	struct rsn_pmksa_cache_entry *pos, *prev;
 790              		.loc 1 221 1
 791 000e AA84     		mv	s1,a0
 792 0010 2E84     		mv	s0,a1
 227:C:/Users/stapi/OneDrive/Desktop/GD32VW553/V1_MQTT_OK/GD32VW55X_Wifi_BLE_SDK/GD32VW55x_RELEASE_V1.0.2/MSDK/wpa_supplicant/src/rsn_supp\pmksa_cache.c **** 	while (pos) {
 793              		.loc 1 227 7
 794 0012 014A     		li	s4,0
 229:C:/Users/stapi/OneDrive/Desktop/GD32VW553/V1_MQTT_OK/GD32VW55X_Wifi_BLE_SDK/GD32VW55x_RELEASE_V1.0.2/MSDK/wpa_supplicant/src/rsn_supp\pmksa_cache.c **** 			if (pos->pmk_len == entry->pmk_len &&
 795              		.loc 1 229 22
 796 0014 93890506 		addi	s3,a1,96
 797              	.LVL74:
 798              	.L95:
 228:C:/Users/stapi/OneDrive/Desktop/GD32VW553/V1_MQTT_OK/GD32VW55X_Wifi_BLE_SDK/GD32VW55x_RELEASE_V1.0.2/MSDK/wpa_supplicant/src/rsn_supp\pmksa_cache.c **** 		if (os_memcmp(entry->aa, pos->aa, ETH_ALEN) == 0) {
 799              		.loc 1 228 8 is_stmt 1
 800 0018 630B090A 		beq	s2,zero,.L102
 229:C:/Users/stapi/OneDrive/Desktop/GD32VW553/V1_MQTT_OK/GD32VW55X_Wifi_BLE_SDK/GD32VW55x_RELEASE_V1.0.2/MSDK/wpa_supplicant/src/rsn_supp\pmksa_cache.c **** 			if (pos->pmk_len == entry->pmk_len &&
 801              		.loc 1 229 3
 229:C:/Users/stapi/OneDrive/Desktop/GD32VW553/V1_MQTT_OK/GD32VW55X_Wifi_BLE_SDK/GD32VW55x_RELEASE_V1.0.2/MSDK/wpa_supplicant/src/rsn_supp\pmksa_cache.c **** 			if (pos->pmk_len == entry->pmk_len &&
 802              		.loc 1 229 7 is_stmt 0
 803 001c 1946     		li	a2,6
 804 001e 93050906 		addi	a1,s2,96
 805 0022 4E85     		mv	a0,s3
 806 0024 97000000 		call	os_memcmp
 806      E7800000 
 807              	.LVL75:
 229:C:/Users/stapi/OneDrive/Desktop/GD32VW553/V1_MQTT_OK/GD32VW55X_Wifi_BLE_SDK/GD32VW55x_RELEASE_V1.0.2/MSDK/wpa_supplicant/src/rsn_supp\pmksa_cache.c **** 			if (pos->pmk_len == entry->pmk_len &&
 808              		.loc 1 229 6
 809 002c 631D0518 		bne	a0,zero,.L96
 230:C:/Users/stapi/OneDrive/Desktop/GD32VW553/V1_MQTT_OK/GD32VW55X_Wifi_BLE_SDK/GD32VW55x_RELEASE_V1.0.2/MSDK/wpa_supplicant/src/rsn_supp\pmksa_cache.c **** 			    os_memcmp_const(pos->pmk, entry->pmk,
 810              		.loc 1 230 4 is_stmt 1
 230:C:/Users/stapi/OneDrive/Desktop/GD32VW553/V1_MQTT_OK/GD32VW55X_Wifi_BLE_SDK/GD32VW55x_RELEASE_V1.0.2/MSDK/wpa_supplicant/src/rsn_supp\pmksa_cache.c **** 			    os_memcmp_const(pos->pmk, entry->pmk,
 811              		.loc 1 230 29 is_stmt 0
 812 0030 7C48     		lw	a5,84(s0)
 230:C:/Users/stapi/OneDrive/Desktop/GD32VW553/V1_MQTT_OK/GD32VW55X_Wifi_BLE_SDK/GD32VW55x_RELEASE_V1.0.2/MSDK/wpa_supplicant/src/rsn_supp\pmksa_cache.c **** 			    os_memcmp_const(pos->pmk, entry->pmk,
 813              		.loc 1 230 7
 814 0032 03264905 		lw	a2,84(s2)
 815 0036 6319F604 		bne	a2,a5,.L97
 231:C:/Users/stapi/OneDrive/Desktop/GD32VW553/V1_MQTT_OK/GD32VW55X_Wifi_BLE_SDK/GD32VW55x_RELEASE_V1.0.2/MSDK/wpa_supplicant/src/rsn_supp\pmksa_cache.c **** 					    entry->pmk_len) == 0 &&
 816              		.loc 1 231 8 discriminator 1
 817 003a 93054401 		addi	a1,s0,20
 818 003e 13054901 		addi	a0,s2,20
 819 0042 97000000 		call	os_memcmp_const
 819      E7800000 
 820              	.LVL76:
 230:C:/Users/stapi/OneDrive/Desktop/GD32VW553/V1_MQTT_OK/GD32VW55X_Wifi_BLE_SDK/GD32VW55x_RELEASE_V1.0.2/MSDK/wpa_supplicant/src/rsn_supp\pmksa_cache.c **** 			    os_memcmp_const(pos->pmk, entry->pmk,
 821              		.loc 1 230 39 discriminator 1
 822 004a 1DED     		bne	a0,zero,.L97
 233:C:/Users/stapi/OneDrive/Desktop/GD32VW553/V1_MQTT_OK/GD32VW55X_Wifi_BLE_SDK/GD32VW55x_RELEASE_V1.0.2/MSDK/wpa_supplicant/src/rsn_supp\pmksa_cache.c **** 					    PMKID_LEN) == 0) {
 823              		.loc 1 233 8
 824 004c 4146     		li	a2,16
 825 004e 93054400 		addi	a1,s0,4
 826 0052 13054900 		addi	a0,s2,4
 827 0056 97000000 		call	os_memcmp_const
 827      E7800000 
 828              	.LVL77:
 232:C:/Users/stapi/OneDrive/Desktop/GD32VW553/V1_MQTT_OK/GD32VW55X_Wifi_BLE_SDK/GD32VW55x_RELEASE_V1.0.2/MSDK/wpa_supplicant/src/rsn_supp\pmksa_cache.c **** 			    os_memcmp_const(pos->pmkid, entry->pmkid,
 829              		.loc 1 232 31
 830 005e 0DE5     		bne	a0,zero,.L97
 235:C:/Users/stapi/OneDrive/Desktop/GD32VW553/V1_MQTT_OK/GD32VW55X_Wifi_BLE_SDK/GD32VW55x_RELEASE_V1.0.2/MSDK/wpa_supplicant/src/rsn_supp\pmksa_cache.c **** 					   "PMKSA entry");
 831              		.loc 1 235 5 is_stmt 1
 832 0060 B7050000 		lui	a1,%hi(.LC3)
 833 0064 0945     		li	a0,2
 834 0066 93850500 		addi	a1,a1,%lo(.LC3)
 835 006a 97000000 		call	wpa_printf
 835      E7800000 
 836              	.LVL78:
 237:C:/Users/stapi/OneDrive/Desktop/GD32VW553/V1_MQTT_OK/GD32VW55X_Wifi_BLE_SDK/GD32VW55x_RELEASE_V1.0.2/MSDK/wpa_supplicant/src/rsn_supp\pmksa_cache.c **** 				return pos;
 837              		.loc 1 237 5
 838 0072 2285     		mv	a0,s0
 839 0074 97000000 		call	os_free
 839      E7800000 
 840              	.LVL79:
 238:C:/Users/stapi/OneDrive/Desktop/GD32VW553/V1_MQTT_OK/GD32VW55X_Wifi_BLE_SDK/GD32VW55x_RELEASE_V1.0.2/MSDK/wpa_supplicant/src/rsn_supp\pmksa_cache.c **** 			}
 841              		.loc 1 238 5
 842              	.L94:
 321:C:/Users/stapi/OneDrive/Desktop/GD32VW553/V1_MQTT_OK/GD32VW55X_Wifi_BLE_SDK/GD32VW55x_RELEASE_V1.0.2/MSDK/wpa_supplicant/src/rsn_supp\pmksa_cache.c **** 
 843              		.loc 1 321 1 is_stmt 0
 844 007c 4A85     		mv	a0,s2
 845 007e 4101     		addi	sp,sp,16
 846              		.cfi_remember_state
 847              		.cfi_def_cfa_offset 0
 848 0080 17030000 		tail	__riscv_restore_5
 848      67000300 
 849              		.cfi_restore 20
 850              		.cfi_restore 19
 851              		.cfi_restore 18
 852              		.cfi_restore 9
 853              		.cfi_restore 8
 854              		.cfi_restore 1
 855              		.cfi_def_cfa_offset -32
 856              	.LVL80:
 857              	.L97:
 858              		.cfi_restore_state
 240:C:/Users/stapi/OneDrive/Desktop/GD32VW553/V1_MQTT_OK/GD32VW55X_Wifi_BLE_SDK/GD32VW55x_RELEASE_V1.0.2/MSDK/wpa_supplicant/src/rsn_supp\pmksa_cache.c **** 				pmksa->pmksa = pos->next;
 859              		.loc 1 240 4 is_stmt 1
 241:C:/Users/stapi/OneDrive/Desktop/GD32VW553/V1_MQTT_OK/GD32VW55X_Wifi_BLE_SDK/GD32VW55x_RELEASE_V1.0.2/MSDK/wpa_supplicant/src/rsn_supp\pmksa_cache.c **** 			else
 860              		.loc 1 241 23 is_stmt 0
 861 0088 83270900 		lw	a5,0(s2)
 240:C:/Users/stapi/OneDrive/Desktop/GD32VW553/V1_MQTT_OK/GD32VW55X_Wifi_BLE_SDK/GD32VW55x_RELEASE_V1.0.2/MSDK/wpa_supplicant/src/rsn_supp\pmksa_cache.c **** 				pmksa->pmksa = pos->next;
 862              		.loc 1 240 7
 863 008c 631A0A12 		bne	s4,zero,.L99
 241:C:/Users/stapi/OneDrive/Desktop/GD32VW553/V1_MQTT_OK/GD32VW55X_Wifi_BLE_SDK/GD32VW55x_RELEASE_V1.0.2/MSDK/wpa_supplicant/src/rsn_supp\pmksa_cache.c **** 			else
 864              		.loc 1 241 5 is_stmt 1
 241:C:/Users/stapi/OneDrive/Desktop/GD32VW553/V1_MQTT_OK/GD32VW55X_Wifi_BLE_SDK/GD32VW55x_RELEASE_V1.0.2/MSDK/wpa_supplicant/src/rsn_supp\pmksa_cache.c **** 			else
 865              		.loc 1 241 18 is_stmt 0
 866 0090 9CC0     		sw	a5,0(s1)
 867              	.L100:
 254:C:/Users/stapi/OneDrive/Desktop/GD32VW553/V1_MQTT_OK/GD32VW55X_Wifi_BLE_SDK/GD32VW55x_RELEASE_V1.0.2/MSDK/wpa_supplicant/src/rsn_supp\pmksa_cache.c **** 				   "the current AP and any PMKSA cache entry "
 868              		.loc 1 254 4 is_stmt 1
 869 0092 B7050000 		lui	a1,%hi(.LC4)
 870 0096 93850500 		addi	a1,a1,%lo(.LC4)
 871 009a 0945     		li	a0,2
 872 009c 97000000 		call	wpa_printf
 872      E7800000 
 873              	.LVL81:
 257:C:/Users/stapi/OneDrive/Desktop/GD32VW553/V1_MQTT_OK/GD32VW55X_Wifi_BLE_SDK/GD32VW55x_RELEASE_V1.0.2/MSDK/wpa_supplicant/src/rsn_supp\pmksa_cache.c **** 				pmksa_cache_flush(pmksa, entry->network_ctx,
 874              		.loc 1 257 4
 257:C:/Users/stapi/OneDrive/Desktop/GD32VW553/V1_MQTT_OK/GD32VW55X_Wifi_BLE_SDK/GD32VW55x_RELEASE_V1.0.2/MSDK/wpa_supplicant/src/rsn_supp\pmksa_cache.c **** 				pmksa_cache_flush(pmksa, entry->network_ctx,
 875              		.loc 1 257 7 is_stmt 0
 876 00a4 83274907 		lw	a5,116(s2)
 877 00a8 81EF     		bne	a5,zero,.L101
 258:C:/Users/stapi/OneDrive/Desktop/GD32VW553/V1_MQTT_OK/GD32VW55X_Wifi_BLE_SDK/GD32VW55x_RELEASE_V1.0.2/MSDK/wpa_supplicant/src/rsn_supp\pmksa_cache.c **** 						  pos->pmk, pos->pmk_len,
 878              		.loc 1 258 5 is_stmt 1
 879 00aa 83264905 		lw	a3,84(s2)
 880 00ae 2C58     		lw	a1,112(s0)
 881 00b0 0147     		li	a4,0
 882 00b2 13064901 		addi	a2,s2,20
 883 00b6 2685     		mv	a0,s1
 884 00b8 97000000 		call	pmksa_cache_flush
 884      E7800000 
 885              	.LVL82:
 886              	.L101:
 261:C:/Users/stapi/OneDrive/Desktop/GD32VW553/V1_MQTT_OK/GD32VW55X_Wifi_BLE_SDK/GD32VW55x_RELEASE_V1.0.2/MSDK/wpa_supplicant/src/rsn_supp\pmksa_cache.c **** 			break;
 887              		.loc 1 261 4
 888 00c0 0546     		li	a2,1
 889 00c2 CA85     		mv	a1,s2
 890 00c4 2685     		mv	a0,s1
 891 00c6 97000000 		call	pmksa_cache_free_entry
 891      E7800000 
 892              	.LVL83:
 262:C:/Users/stapi/OneDrive/Desktop/GD32VW553/V1_MQTT_OK/GD32VW55X_Wifi_BLE_SDK/GD32VW55x_RELEASE_V1.0.2/MSDK/wpa_supplicant/src/rsn_supp\pmksa_cache.c **** 		}
 893              		.loc 1 262 4
 894              	.L102:
 268:C:/Users/stapi/OneDrive/Desktop/GD32VW553/V1_MQTT_OK/GD32VW55X_Wifi_BLE_SDK/GD32VW55x_RELEASE_V1.0.2/MSDK/wpa_supplicant/src/rsn_supp\pmksa_cache.c **** 		/* Remove the oldest entry to make room for the new entry */
 895              		.loc 1 268 2
 268:C:/Users/stapi/OneDrive/Desktop/GD32VW553/V1_MQTT_OK/GD32VW55X_Wifi_BLE_SDK/GD32VW55x_RELEASE_V1.0.2/MSDK/wpa_supplicant/src/rsn_supp\pmksa_cache.c **** 		/* Remove the oldest entry to make room for the new entry */
 896              		.loc 1 268 5 is_stmt 0
 897 00ce D840     		lw	a4,4(s1)
 898 00d0 FD47     		li	a5,31
 899 00d2 63DFE704 		ble	a4,a5,.L105
 268:C:/Users/stapi/OneDrive/Desktop/GD32VW553/V1_MQTT_OK/GD32VW55X_Wifi_BLE_SDK/GD32VW55x_RELEASE_V1.0.2/MSDK/wpa_supplicant/src/rsn_supp\pmksa_cache.c **** 		/* Remove the oldest entry to make room for the new entry */
 900              		.loc 1 268 60 discriminator 1
 901 00d6 9C40     		lw	a5,0(s1)
 268:C:/Users/stapi/OneDrive/Desktop/GD32VW553/V1_MQTT_OK/GD32VW55X_Wifi_BLE_SDK/GD32VW55x_RELEASE_V1.0.2/MSDK/wpa_supplicant/src/rsn_supp\pmksa_cache.c **** 		/* Remove the oldest entry to make room for the new entry */
 902              		.loc 1 268 52 discriminator 1
 903 00d8 A1CF     		beq	a5,zero,.L105
 270:C:/Users/stapi/OneDrive/Desktop/GD32VW553/V1_MQTT_OK/GD32VW55X_Wifi_BLE_SDK/GD32VW55x_RELEASE_V1.0.2/MSDK/wpa_supplicant/src/rsn_supp\pmksa_cache.c **** 
 904              		.loc 1 270 3 is_stmt 1
 905              	.LVL84:
 272:C:/Users/stapi/OneDrive/Desktop/GD32VW553/V1_MQTT_OK/GD32VW55X_Wifi_BLE_SDK/GD32VW55x_RELEASE_V1.0.2/MSDK/wpa_supplicant/src/rsn_supp\pmksa_cache.c **** 			/*
 906              		.loc 1 272 3
 272:C:/Users/stapi/OneDrive/Desktop/GD32VW553/V1_MQTT_OK/GD32VW55X_Wifi_BLE_SDK/GD32VW55x_RELEASE_V1.0.2/MSDK/wpa_supplicant/src/rsn_supp\pmksa_cache.c **** 			/*
 907              		.loc 1 272 23 is_stmt 0
 908 00da 9844     		lw	a4,8(s1)
 278:C:/Users/stapi/OneDrive/Desktop/GD32VW553/V1_MQTT_OK/GD32VW55X_Wifi_BLE_SDK/GD32VW55x_RELEASE_V1.0.2/MSDK/wpa_supplicant/src/rsn_supp\pmksa_cache.c **** 			pmksa->pmksa->next = pos ? pos->next : NULL;
 909              		.loc 1 278 8
 910 00dc 03A90700 		lw	s2,0(a5)
 272:C:/Users/stapi/OneDrive/Desktop/GD32VW553/V1_MQTT_OK/GD32VW55X_Wifi_BLE_SDK/GD32VW55x_RELEASE_V1.0.2/MSDK/wpa_supplicant/src/rsn_supp\pmksa_cache.c **** 			/*
 911              		.loc 1 272 6
 912 00e0 0327073C 		lw	a4,960(a4)
 913 00e4 6315F70E 		bne	a4,a5,.L107
 278:C:/Users/stapi/OneDrive/Desktop/GD32VW553/V1_MQTT_OK/GD32VW55X_Wifi_BLE_SDK/GD32VW55x_RELEASE_V1.0.2/MSDK/wpa_supplicant/src/rsn_supp\pmksa_cache.c **** 			pmksa->pmksa->next = pos ? pos->next : NULL;
 914              		.loc 1 278 4 is_stmt 1
 915              	.LVL85:
 279:C:/Users/stapi/OneDrive/Desktop/GD32VW553/V1_MQTT_OK/GD32VW55X_Wifi_BLE_SDK/GD32VW55x_RELEASE_V1.0.2/MSDK/wpa_supplicant/src/rsn_supp\pmksa_cache.c **** 		} else
 916              		.loc 1 279 4
 279:C:/Users/stapi/OneDrive/Desktop/GD32VW553/V1_MQTT_OK/GD32VW55X_Wifi_BLE_SDK/GD32VW55x_RELEASE_V1.0.2/MSDK/wpa_supplicant/src/rsn_supp\pmksa_cache.c **** 		} else
 917              		.loc 1 279 41 is_stmt 0
 918 00e8 0147     		li	a4,0
 919 00ea 63040900 		beq	s2,zero,.L108
 279:C:/Users/stapi/OneDrive/Desktop/GD32VW553/V1_MQTT_OK/GD32VW55X_Wifi_BLE_SDK/GD32VW55x_RELEASE_V1.0.2/MSDK/wpa_supplicant/src/rsn_supp\pmksa_cache.c **** 		} else
 920              		.loc 1 279 41 discriminator 1
 921 00ee 03270900 		lw	a4,0(s2)
 922              	.L108:
 279:C:/Users/stapi/OneDrive/Desktop/GD32VW553/V1_MQTT_OK/GD32VW55X_Wifi_BLE_SDK/GD32VW55x_RELEASE_V1.0.2/MSDK/wpa_supplicant/src/rsn_supp\pmksa_cache.c **** 		} else
 923              		.loc 1 279 23 discriminator 4
 924 00f2 98C3     		sw	a4,0(a5)
 925              	.LVL86:
 283:C:/Users/stapi/OneDrive/Desktop/GD32VW553/V1_MQTT_OK/GD32VW55X_Wifi_BLE_SDK/GD32VW55x_RELEASE_V1.0.2/MSDK/wpa_supplicant/src/rsn_supp\pmksa_cache.c **** 			wpa_printf(MSG_DEBUG, "RSN: removed the oldest idle "
 926              		.loc 1 283 3 is_stmt 1 discriminator 4
 283:C:/Users/stapi/OneDrive/Desktop/GD32VW553/V1_MQTT_OK/GD32VW55X_Wifi_BLE_SDK/GD32VW55x_RELEASE_V1.0.2/MSDK/wpa_supplicant/src/rsn_supp\pmksa_cache.c **** 			wpa_printf(MSG_DEBUG, "RSN: removed the oldest idle "
 927              		.loc 1 283 6 is_stmt 0 discriminator 4
 928 00f4 630E0902 		beq	s2,zero,.L105
 929              	.L109:
 930              	.LVL87:
 284:C:/Users/stapi/OneDrive/Desktop/GD32VW553/V1_MQTT_OK/GD32VW55X_Wifi_BLE_SDK/GD32VW55x_RELEASE_V1.0.2/MSDK/wpa_supplicant/src/rsn_supp\pmksa_cache.c **** 				   "PMKSA cache entry (for " MACSTR ") to "
 931              		.loc 1 284 4 is_stmt 1
 932 00f8 03460906 		lbu	a2,96(s2)
 933 00fc 83485906 		lbu	a7,101(s2)
 934 0100 03484906 		lbu	a6,100(s2)
 935 0104 83473906 		lbu	a5,99(s2)
 936 0108 03472906 		lbu	a4,98(s2)
 937 010c 83461906 		lbu	a3,97(s2)
 938 0110 B7050000 		lui	a1,%hi(.LC5)
 939 0114 93850500 		addi	a1,a1,%lo(.LC5)
 940 0118 0945     		li	a0,2
 941 011a 97000000 		call	wpa_printf
 941      E7800000 
 942              	.LVL88:
 288:C:/Users/stapi/OneDrive/Desktop/GD32VW553/V1_MQTT_OK/GD32VW55X_Wifi_BLE_SDK/GD32VW55x_RELEASE_V1.0.2/MSDK/wpa_supplicant/src/rsn_supp\pmksa_cache.c **** 		}
 943              		.loc 1 288 4
 944 0122 0146     		li	a2,0
 945 0124 CA85     		mv	a1,s2
 946 0126 2685     		mv	a0,s1
 947 0128 97000000 		call	pmksa_cache_free_entry
 947      E7800000 
 948              	.LVL89:
 949              	.L105:
 293:C:/Users/stapi/OneDrive/Desktop/GD32VW553/V1_MQTT_OK/GD32VW55X_Wifi_BLE_SDK/GD32VW55x_RELEASE_V1.0.2/MSDK/wpa_supplicant/src/rsn_supp\pmksa_cache.c **** 	prev = NULL;
 950              		.loc 1 293 2
 293:C:/Users/stapi/OneDrive/Desktop/GD32VW553/V1_MQTT_OK/GD32VW55X_Wifi_BLE_SDK/GD32VW55x_RELEASE_V1.0.2/MSDK/wpa_supplicant/src/rsn_supp\pmksa_cache.c **** 	prev = NULL;
 951              		.loc 1 293 6 is_stmt 0
 952 0130 9440     		lw	a3,0(s1)
 953              	.LVL90:
 294:C:/Users/stapi/OneDrive/Desktop/GD32VW553/V1_MQTT_OK/GD32VW55X_Wifi_BLE_SDK/GD32VW55x_RELEASE_V1.0.2/MSDK/wpa_supplicant/src/rsn_supp\pmksa_cache.c **** 	while (pos) {
 954              		.loc 1 294 2 is_stmt 1
 295:C:/Users/stapi/OneDrive/Desktop/GD32VW553/V1_MQTT_OK/GD32VW55X_Wifi_BLE_SDK/GD32VW55x_RELEASE_V1.0.2/MSDK/wpa_supplicant/src/rsn_supp\pmksa_cache.c **** 		if (pos->expiration > entry->expiration)
 955              		.loc 1 295 2
 294:C:/Users/stapi/OneDrive/Desktop/GD32VW553/V1_MQTT_OK/GD32VW55X_Wifi_BLE_SDK/GD32VW55x_RELEASE_V1.0.2/MSDK/wpa_supplicant/src/rsn_supp\pmksa_cache.c **** 	while (pos) {
 956              		.loc 1 294 7 is_stmt 0
 957 0132 0147     		li	a4,0
 293:C:/Users/stapi/OneDrive/Desktop/GD32VW553/V1_MQTT_OK/GD32VW55X_Wifi_BLE_SDK/GD32VW55x_RELEASE_V1.0.2/MSDK/wpa_supplicant/src/rsn_supp\pmksa_cache.c **** 	prev = NULL;
 958              		.loc 1 293 6
 959 0134 B687     		mv	a5,a3
 960              	.LVL91:
 961              	.L110:
 295:C:/Users/stapi/OneDrive/Desktop/GD32VW553/V1_MQTT_OK/GD32VW55X_Wifi_BLE_SDK/GD32VW55x_RELEASE_V1.0.2/MSDK/wpa_supplicant/src/rsn_supp\pmksa_cache.c **** 		if (pos->expiration > entry->expiration)
 962              		.loc 1 295 8 is_stmt 1
 963 0136 C5E3     		bne	a5,zero,.L112
 964              	.L111:
 301:C:/Users/stapi/OneDrive/Desktop/GD32VW553/V1_MQTT_OK/GD32VW55X_Wifi_BLE_SDK/GD32VW55x_RELEASE_V1.0.2/MSDK/wpa_supplicant/src/rsn_supp\pmksa_cache.c **** 		entry->next = pmksa->pmksa;
 965              		.loc 1 301 2
 301:C:/Users/stapi/OneDrive/Desktop/GD32VW553/V1_MQTT_OK/GD32VW55X_Wifi_BLE_SDK/GD32VW55x_RELEASE_V1.0.2/MSDK/wpa_supplicant/src/rsn_supp\pmksa_cache.c **** 		entry->next = pmksa->pmksa;
 966              		.loc 1 301 5 is_stmt 0
 967 0138 55E7     		bne	a4,zero,.L113
 302:C:/Users/stapi/OneDrive/Desktop/GD32VW553/V1_MQTT_OK/GD32VW55X_Wifi_BLE_SDK/GD32VW55x_RELEASE_V1.0.2/MSDK/wpa_supplicant/src/rsn_supp\pmksa_cache.c **** 		pmksa->pmksa = entry;
 968              		.loc 1 302 3 is_stmt 1
 302:C:/Users/stapi/OneDrive/Desktop/GD32VW553/V1_MQTT_OK/GD32VW55X_Wifi_BLE_SDK/GD32VW55x_RELEASE_V1.0.2/MSDK/wpa_supplicant/src/rsn_supp\pmksa_cache.c **** 		pmksa->pmksa = entry;
 969              		.loc 1 302 15 is_stmt 0
 970 013a 14C0     		sw	a3,0(s0)
 303:C:/Users/stapi/OneDrive/Desktop/GD32VW553/V1_MQTT_OK/GD32VW55X_Wifi_BLE_SDK/GD32VW55x_RELEASE_V1.0.2/MSDK/wpa_supplicant/src/rsn_supp\pmksa_cache.c **** 		pmksa_cache_set_expiration(pmksa);
 971              		.loc 1 303 3 is_stmt 1
 303:C:/Users/stapi/OneDrive/Desktop/GD32VW553/V1_MQTT_OK/GD32VW55X_Wifi_BLE_SDK/GD32VW55x_RELEASE_V1.0.2/MSDK/wpa_supplicant/src/rsn_supp\pmksa_cache.c **** 		pmksa_cache_set_expiration(pmksa);
 972              		.loc 1 303 16 is_stmt 0
 973 013c 80C0     		sw	s0,0(s1)
 304:C:/Users/stapi/OneDrive/Desktop/GD32VW553/V1_MQTT_OK/GD32VW55X_Wifi_BLE_SDK/GD32VW55x_RELEASE_V1.0.2/MSDK/wpa_supplicant/src/rsn_supp\pmksa_cache.c **** 	} else {
 974              		.loc 1 304 3 is_stmt 1
 975 013e 2685     		mv	a0,s1
 976 0140 97000000 		call	pmksa_cache_set_expiration
 976      E7800000 
 977              	.LVL92:
 978              	.L114:
 309:C:/Users/stapi/OneDrive/Desktop/GD32VW553/V1_MQTT_OK/GD32VW55X_Wifi_BLE_SDK/GD32VW55x_RELEASE_V1.0.2/MSDK/wpa_supplicant/src/rsn_supp\pmksa_cache.c **** 	wpa_printf(MSG_DEBUG, "RSN: Added PMKSA cache entry for " MACSTR
 979              		.loc 1 309 2
 309:C:/Users/stapi/OneDrive/Desktop/GD32VW553/V1_MQTT_OK/GD32VW55X_Wifi_BLE_SDK/GD32VW55x_RELEASE_V1.0.2/MSDK/wpa_supplicant/src/rsn_supp\pmksa_cache.c **** 	wpa_printf(MSG_DEBUG, "RSN: Added PMKSA cache entry for " MACSTR
 980              		.loc 1 309 20 is_stmt 0
 981 0148 DC40     		lw	a5,4(s1)
 310:C:/Users/stapi/OneDrive/Desktop/GD32VW553/V1_MQTT_OK/GD32VW55X_Wifi_BLE_SDK/GD32VW55x_RELEASE_V1.0.2/MSDK/wpa_supplicant/src/rsn_supp\pmksa_cache.c **** 		   " network_ctx=%p akmp=0x%x", MAC2STR(entry->aa),
 982              		.loc 1 310 2
 983 014a B7050000 		lui	a1,%hi(.LC6)
 984 014e 93850500 		addi	a1,a1,%lo(.LC6)
 309:C:/Users/stapi/OneDrive/Desktop/GD32VW553/V1_MQTT_OK/GD32VW55X_Wifi_BLE_SDK/GD32VW55x_RELEASE_V1.0.2/MSDK/wpa_supplicant/src/rsn_supp\pmksa_cache.c **** 	wpa_printf(MSG_DEBUG, "RSN: Added PMKSA cache entry for " MACSTR
 985              		.loc 1 309 20
 986 0152 8507     		addi	a5,a5,1
 987 0154 DCC0     		sw	a5,4(s1)
 310:C:/Users/stapi/OneDrive/Desktop/GD32VW553/V1_MQTT_OK/GD32VW55X_Wifi_BLE_SDK/GD32VW55x_RELEASE_V1.0.2/MSDK/wpa_supplicant/src/rsn_supp\pmksa_cache.c **** 		   " network_ctx=%p akmp=0x%x", MAC2STR(entry->aa),
 988              		.loc 1 310 2 is_stmt 1
 989 0156 7C4C     		lw	a5,92(s0)
 990 0158 03472406 		lbu	a4,98(s0)
 991 015c 83461406 		lbu	a3,97(s0)
 992 0160 3EC2     		sw	a5,4(sp)
 993 0162 3C58     		lw	a5,112(s0)
 994 0164 03460406 		lbu	a2,96(s0)
 995 0168 83485406 		lbu	a7,101(s0)
 996 016c 3EC0     		sw	a5,0(sp)
 997 016e 03484406 		lbu	a6,100(s0)
 998 0172 83473406 		lbu	a5,99(s0)
 999 0176 0945     		li	a0,2
 1000 0178 97000000 		call	wpa_printf
 1000      E7800000 
 1001              	.LVL93:
 313:C:/Users/stapi/OneDrive/Desktop/GD32VW553/V1_MQTT_OK/GD32VW55X_Wifi_BLE_SDK/GD32VW55x_RELEASE_V1.0.2/MSDK/wpa_supplicant/src/rsn_supp\pmksa_cache.c **** 			 entry->fils_cache_id_set ? entry->fils_cache_id : NULL,
 1002              		.loc 1 313 2
 314:C:/Users/stapi/OneDrive/Desktop/GD32VW553/V1_MQTT_OK/GD32VW55X_Wifi_BLE_SDK/GD32VW55x_RELEASE_V1.0.2/MSDK/wpa_supplicant/src/rsn_supp\pmksa_cache.c **** 			 entry->pmk, entry->pmk_len,
 1003              		.loc 1 314 30 is_stmt 0
 1004 0180 03468406 		lbu	a2,104(s0)
 313:C:/Users/stapi/OneDrive/Desktop/GD32VW553/V1_MQTT_OK/GD32VW55X_Wifi_BLE_SDK/GD32VW55x_RELEASE_V1.0.2/MSDK/wpa_supplicant/src/rsn_supp\pmksa_cache.c **** 			 entry->fils_cache_id_set ? entry->fils_cache_id : NULL,
 1005              		.loc 1 313 2
 1006 0184 9C44     		lw	a5,8(s1)
 1007 0186 2C58     		lw	a1,112(s0)
 1008 0188 058A     		andi	a2,a2,1
 313:C:/Users/stapi/OneDrive/Desktop/GD32VW553/V1_MQTT_OK/GD32VW55X_Wifi_BLE_SDK/GD32VW55x_RELEASE_V1.0.2/MSDK/wpa_supplicant/src/rsn_supp\pmksa_cache.c **** 			 entry->fils_cache_id_set ? entry->fils_cache_id : NULL,
 1009              		.loc 1 313 66
 1010 018a 93064400 		addi	a3,s0,4
 313:C:/Users/stapi/OneDrive/Desktop/GD32VW553/V1_MQTT_OK/GD32VW55X_Wifi_BLE_SDK/GD32VW55x_RELEASE_V1.0.2/MSDK/wpa_supplicant/src/rsn_supp\pmksa_cache.c **** 			 entry->fils_cache_id_set ? entry->fils_cache_id : NULL,
 1011              		.loc 1 313 2
 1012 018e 0147     		li	a4,0
 1013 0190 19C2     		beq	a2,zero,.L115
 313:C:/Users/stapi/OneDrive/Desktop/GD32VW553/V1_MQTT_OK/GD32VW55X_Wifi_BLE_SDK/GD32VW55x_RELEASE_V1.0.2/MSDK/wpa_supplicant/src/rsn_supp\pmksa_cache.c **** 			 entry->fils_cache_id_set ? entry->fils_cache_id : NULL,
 1014              		.loc 1 313 2 discriminator 1
 1015 0192 13076406 		addi	a4,s0,102
 1016              	.L115:
 1017 0196 03A6473E 		lw	a2,996(a5)
 1018              	.LVL94:
 1019              	.LBB70:
 1020              	.LBB71:
 303:C:/Users/stapi/OneDrive/Desktop/GD32VW553/V1_MQTT_OK/GD32VW55X_Wifi_BLE_SDK/GD32VW55x_RELEASE_V1.0.2/MSDK/wpa_supplicant/src/rsn_supp\wpa_i.h **** 	return sm->ctx->add_pmkid(sm->ctx->ctx, network_ctx, bssid, pmkid,
 1021              		.loc 3 303 2 is_stmt 1
 303:C:/Users/stapi/OneDrive/Desktop/GD32VW553/V1_MQTT_OK/GD32VW55X_Wifi_BLE_SDK/GD32VW55x_RELEASE_V1.0.2/MSDK/wpa_supplicant/src/rsn_supp\wpa_i.h **** 	return sm->ctx->add_pmkid(sm->ctx->ctx, network_ctx, bssid, pmkid,
 1022              		.loc 3 303 2
 303:C:/Users/stapi/OneDrive/Desktop/GD32VW553/V1_MQTT_OK/GD32VW55X_Wifi_BLE_SDK/GD32VW55x_RELEASE_V1.0.2/MSDK/wpa_supplicant/src/rsn_supp\wpa_i.h **** 	return sm->ctx->add_pmkid(sm->ctx->ctx, network_ctx, bssid, pmkid,
 1023              		.loc 3 303 2
 304:C:/Users/stapi/OneDrive/Desktop/GD32VW553/V1_MQTT_OK/GD32VW55X_Wifi_BLE_SDK/GD32VW55x_RELEASE_V1.0.2/MSDK/wpa_supplicant/src/rsn_supp\wpa_i.h **** 				  cache_id, pmk, pmk_len, pmk_lifetime,
 1024              		.loc 3 304 2
 304:C:/Users/stapi/OneDrive/Desktop/GD32VW553/V1_MQTT_OK/GD32VW55X_Wifi_BLE_SDK/GD32VW55x_RELEASE_V1.0.2/MSDK/wpa_supplicant/src/rsn_supp\wpa_i.h **** 				  cache_id, pmk, pmk_len, pmk_lifetime,
 1025              		.loc 3 304 9 is_stmt 0
 1026 019a 0328C405 		lw	a6,92(s0)
 1027 019e 83A84746 		lw	a7,1124(a5)
 1028 01a2 0842     		lw	a0,0(a2)
 1029 01a4 42C2     		sw	a6,4(sp)
 1030              	.LVL95:
 1031 01a6 83C78746 		lbu	a5,1128(a5)
 1032              	.LVL96:
 1033 01aa 03284405 		lw	a6,84(s0)
 1034              	.LVL97:
 1035 01ae 2289     		mv	s2,s0
 1036 01b0 3EC0     		sw	a5,0(sp)
 1037 01b2 03234603 		lw	t1,52(a2)
 1038 01b6 93074401 		addi	a5,s0,20
 1039              	.LVL98:
 1040 01ba 4E86     		mv	a2,s3
 1041 01bc 0293     		jalr	t1
 1042              	.LVL99:
 1043 01be 7DBD     		j	.L94
 1044              	.LVL100:
 1045              	.L99:
 1046              	.LBE71:
 1047              	.LBE70:
 243:C:/Users/stapi/OneDrive/Desktop/GD32VW553/V1_MQTT_OK/GD32VW55X_Wifi_BLE_SDK/GD32VW55x_RELEASE_V1.0.2/MSDK/wpa_supplicant/src/rsn_supp\pmksa_cache.c **** 
 1048              		.loc 1 243 5 is_stmt 1
 243:C:/Users/stapi/OneDrive/Desktop/GD32VW553/V1_MQTT_OK/GD32VW55X_Wifi_BLE_SDK/GD32VW55x_RELEASE_V1.0.2/MSDK/wpa_supplicant/src/rsn_supp\pmksa_cache.c **** 
 1049              		.loc 1 243 16 is_stmt 0
 1050 01c0 2320FA00 		sw	a5,0(s4)
 1051 01c4 F9B5     		j	.L100
 1052              	.L96:
 264:C:/Users/stapi/OneDrive/Desktop/GD32VW553/V1_MQTT_OK/GD32VW55X_Wifi_BLE_SDK/GD32VW55x_RELEASE_V1.0.2/MSDK/wpa_supplicant/src/rsn_supp\pmksa_cache.c **** 		pos = pos->next;
 1053              		.loc 1 264 3 is_stmt 1
 1054              	.LVL101:
 265:C:/Users/stapi/OneDrive/Desktop/GD32VW553/V1_MQTT_OK/GD32VW55X_Wifi_BLE_SDK/GD32VW55x_RELEASE_V1.0.2/MSDK/wpa_supplicant/src/rsn_supp\pmksa_cache.c **** 	}
 1055              		.loc 1 265 3
 265:C:/Users/stapi/OneDrive/Desktop/GD32VW553/V1_MQTT_OK/GD32VW55X_Wifi_BLE_SDK/GD32VW55x_RELEASE_V1.0.2/MSDK/wpa_supplicant/src/rsn_supp\pmksa_cache.c **** 	}
 1056              		.loc 1 265 7 is_stmt 0
 1057 01c6 4A8A     		mv	s4,s2
 1058 01c8 03290900 		lw	s2,0(s2)
 1059              	.LVL102:
 1060 01cc B1B5     		j	.L95
 1061              	.LVL103:
 1062              	.L107:
 281:C:/Users/stapi/OneDrive/Desktop/GD32VW553/V1_MQTT_OK/GD32VW55X_Wifi_BLE_SDK/GD32VW55x_RELEASE_V1.0.2/MSDK/wpa_supplicant/src/rsn_supp\pmksa_cache.c **** 
 1063              		.loc 1 281 4 is_stmt 1
 281:C:/Users/stapi/OneDrive/Desktop/GD32VW553/V1_MQTT_OK/GD32VW55X_Wifi_BLE_SDK/GD32VW55x_RELEASE_V1.0.2/MSDK/wpa_supplicant/src/rsn_supp\pmksa_cache.c **** 
 1064              		.loc 1 281 17 is_stmt 0
 1065 01ce 23A02401 		sw	s2,0(s1)
 283:C:/Users/stapi/OneDrive/Desktop/GD32VW553/V1_MQTT_OK/GD32VW55X_Wifi_BLE_SDK/GD32VW55x_RELEASE_V1.0.2/MSDK/wpa_supplicant/src/rsn_supp\pmksa_cache.c **** 			wpa_printf(MSG_DEBUG, "RSN: removed the oldest idle "
 1066              		.loc 1 283 3 is_stmt 1
 281:C:/Users/stapi/OneDrive/Desktop/GD32VW553/V1_MQTT_OK/GD32VW55X_Wifi_BLE_SDK/GD32VW55x_RELEASE_V1.0.2/MSDK/wpa_supplicant/src/rsn_supp\pmksa_cache.c **** 
 1067              		.loc 1 281 17 is_stmt 0
 1068 01d2 3E89     		mv	s2,a5
 1069 01d4 15B7     		j	.L109
 1070              	.LVL104:
 1071              	.L112:
 296:C:/Users/stapi/OneDrive/Desktop/GD32VW553/V1_MQTT_OK/GD32VW55X_Wifi_BLE_SDK/GD32VW55x_RELEASE_V1.0.2/MSDK/wpa_supplicant/src/rsn_supp\pmksa_cache.c **** 			break;
 1072              		.loc 1 296 3 is_stmt 1
 296:C:/Users/stapi/OneDrive/Desktop/GD32VW553/V1_MQTT_OK/GD32VW55X_Wifi_BLE_SDK/GD32VW55x_RELEASE_V1.0.2/MSDK/wpa_supplicant/src/rsn_supp\pmksa_cache.c **** 			break;
 1073              		.loc 1 296 6 is_stmt 0
 1074 01d6 AC4F     		lw	a1,88(a5)
 1075 01d8 304C     		lw	a2,88(s0)
 1076 01da E34FB6F4 		bgt	a1,a2,.L111
 298:C:/Users/stapi/OneDrive/Desktop/GD32VW553/V1_MQTT_OK/GD32VW55X_Wifi_BLE_SDK/GD32VW55x_RELEASE_V1.0.2/MSDK/wpa_supplicant/src/rsn_supp\pmksa_cache.c **** 		pos = pos->next;
 1077              		.loc 1 298 3 is_stmt 1
 1078              	.LVL105:
 299:C:/Users/stapi/OneDrive/Desktop/GD32VW553/V1_MQTT_OK/GD32VW55X_Wifi_BLE_SDK/GD32VW55x_RELEASE_V1.0.2/MSDK/wpa_supplicant/src/rsn_supp\pmksa_cache.c **** 	}
 1079              		.loc 1 299 3
 299:C:/Users/stapi/OneDrive/Desktop/GD32VW553/V1_MQTT_OK/GD32VW55X_Wifi_BLE_SDK/GD32VW55x_RELEASE_V1.0.2/MSDK/wpa_supplicant/src/rsn_supp\pmksa_cache.c **** 	}
 1080              		.loc 1 299 7 is_stmt 0
 1081 01de 3E87     		mv	a4,a5
 1082 01e0 9C43     		lw	a5,0(a5)
 1083              	.LVL106:
 1084 01e2 91BF     		j	.L110
 1085              	.L113:
 306:C:/Users/stapi/OneDrive/Desktop/GD32VW553/V1_MQTT_OK/GD32VW55X_Wifi_BLE_SDK/GD32VW55x_RELEASE_V1.0.2/MSDK/wpa_supplicant/src/rsn_supp\pmksa_cache.c **** 		prev->next = entry;
 1086              		.loc 1 306 3 is_stmt 1
 306:C:/Users/stapi/OneDrive/Desktop/GD32VW553/V1_MQTT_OK/GD32VW55X_Wifi_BLE_SDK/GD32VW55x_RELEASE_V1.0.2/MSDK/wpa_supplicant/src/rsn_supp\pmksa_cache.c **** 		prev->next = entry;
 1087              		.loc 1 306 21 is_stmt 0
 1088 01e4 1C43     		lw	a5,0(a4)
 1089              	.LVL107:
 306:C:/Users/stapi/OneDrive/Desktop/GD32VW553/V1_MQTT_OK/GD32VW55X_Wifi_BLE_SDK/GD32VW55x_RELEASE_V1.0.2/MSDK/wpa_supplicant/src/rsn_supp\pmksa_cache.c **** 		prev->next = entry;
 1090              		.loc 1 306 15
 1091 01e6 1CC0     		sw	a5,0(s0)
 307:C:/Users/stapi/OneDrive/Desktop/GD32VW553/V1_MQTT_OK/GD32VW55X_Wifi_BLE_SDK/GD32VW55x_RELEASE_V1.0.2/MSDK/wpa_supplicant/src/rsn_supp\pmksa_cache.c **** 	}
 1092              		.loc 1 307 3 is_stmt 1
 307:C:/Users/stapi/OneDrive/Desktop/GD32VW553/V1_MQTT_OK/GD32VW55X_Wifi_BLE_SDK/GD32VW55x_RELEASE_V1.0.2/MSDK/wpa_supplicant/src/rsn_supp\pmksa_cache.c **** 	}
 1093              		.loc 1 307 14 is_stmt 0
 1094 01e8 00C3     		sw	s0,0(a4)
 1095 01ea B9BF     		j	.L114
 1096              		.cfi_endproc
 1097              	.LFE165:
 1099              		.section	.text.pmksa_cache_add,"ax",@progbits
 1100              		.align	1
 1101              		.globl	pmksa_cache_add
 1103              	pmksa_cache_add:
 1104              	.LFB164:
 177:C:/Users/stapi/OneDrive/Desktop/GD32VW553/V1_MQTT_OK/GD32VW55X_Wifi_BLE_SDK/GD32VW55x_RELEASE_V1.0.2/MSDK/wpa_supplicant/src/rsn_supp\pmksa_cache.c **** 	struct rsn_pmksa_cache_entry *entry;
 1105              		.loc 1 177 1 is_stmt 1
 1106              		.cfi_startproc
 1107              	.LVL108:
 1108 0000 17030000 		call	t0,__riscv_save_10
 1108      E7020300 
 1109              		.cfi_offset 25, -44
 1110              		.cfi_offset 24, -40
 1111              		.cfi_offset 23, -36
 1112              		.cfi_offset 22, -32
 1113              		.cfi_offset 21, -28
 1114              		.cfi_offset 20, -24
 1115              		.cfi_offset 19, -20
 1116              		.cfi_offset 18, -16
 1117              		.cfi_offset 9, -12
 1118              		.cfi_offset 8, -8
 1119              		.cfi_offset 1, -4
 1120              		.cfi_def_cfa_offset 48
 178:C:/Users/stapi/OneDrive/Desktop/GD32VW553/V1_MQTT_OK/GD32VW55X_Wifi_BLE_SDK/GD32VW55x_RELEASE_V1.0.2/MSDK/wpa_supplicant/src/rsn_supp\pmksa_cache.c **** 	struct os_reltime now;
 1121              		.loc 1 178 2
 179:C:/Users/stapi/OneDrive/Desktop/GD32VW553/V1_MQTT_OK/GD32VW55X_Wifi_BLE_SDK/GD32VW55x_RELEASE_V1.0.2/MSDK/wpa_supplicant/src/rsn_supp\pmksa_cache.c **** 
 1122              		.loc 1 179 2
 181:C:/Users/stapi/OneDrive/Desktop/GD32VW553/V1_MQTT_OK/GD32VW55X_Wifi_BLE_SDK/GD32VW55x_RELEASE_V1.0.2/MSDK/wpa_supplicant/src/rsn_supp\pmksa_cache.c **** 		return NULL;
 1123              		.loc 1 181 2
 177:C:/Users/stapi/OneDrive/Desktop/GD32VW553/V1_MQTT_OK/GD32VW55X_Wifi_BLE_SDK/GD32VW55x_RELEASE_V1.0.2/MSDK/wpa_supplicant/src/rsn_supp\pmksa_cache.c **** 	struct rsn_pmksa_cache_entry *entry;
 1124              		.loc 1 177 1 is_stmt 0
 1125 0008 4111     		addi	sp,sp,-16
 1126              		.cfi_def_cfa_offset 64
 181:C:/Users/stapi/OneDrive/Desktop/GD32VW553/V1_MQTT_OK/GD32VW55X_Wifi_BLE_SDK/GD32VW55x_RELEASE_V1.0.2/MSDK/wpa_supplicant/src/rsn_supp\pmksa_cache.c **** 		return NULL;
 1127              		.loc 1 181 5
 1128 000a 93070004 		li	a5,64
 1129              	.LVL109:
 177:C:/Users/stapi/OneDrive/Desktop/GD32VW553/V1_MQTT_OK/GD32VW55X_Wifi_BLE_SDK/GD32VW55x_RELEASE_V1.0.2/MSDK/wpa_supplicant/src/rsn_supp\pmksa_cache.c **** 	struct rsn_pmksa_cache_entry *entry;
 1130              		.loc 1 177 1
 1131 000e 164B     		lw	s6,68(sp)
 1132 0010 A64B     		lw	s7,72(sp)
 181:C:/Users/stapi/OneDrive/Desktop/GD32VW553/V1_MQTT_OK/GD32VW55X_Wifi_BLE_SDK/GD32VW55x_RELEASE_V1.0.2/MSDK/wpa_supplicant/src/rsn_supp\pmksa_cache.c **** 		return NULL;
 1133              		.loc 1 181 5
 1134 0012 63F8C700 		bleu	a2,a5,.L124
 1135              	.LVL110:
 1136              	.L127:
 182:C:/Users/stapi/OneDrive/Desktop/GD32VW553/V1_MQTT_OK/GD32VW55X_Wifi_BLE_SDK/GD32VW55x_RELEASE_V1.0.2/MSDK/wpa_supplicant/src/rsn_supp\pmksa_cache.c **** 
 1137              		.loc 1 182 10
 1138 0016 0145     		li	a0,0
 1139              	.L123:
 215:C:/Users/stapi/OneDrive/Desktop/GD32VW553/V1_MQTT_OK/GD32VW55X_Wifi_BLE_SDK/GD32VW55x_RELEASE_V1.0.2/MSDK/wpa_supplicant/src/rsn_supp\pmksa_cache.c **** 
 1140              		.loc 1 215 1
 1141 0018 4101     		addi	sp,sp,16
 1142              		.cfi_remember_state
 1143              		.cfi_def_cfa_offset 0
 1144              	.LVL111:
 1145 001a 17030000 		tail	__riscv_restore_10
 1145      67000300 
 1146              		.cfi_restore 25
 1147              		.cfi_restore 24
 1148              		.cfi_restore 23
 1149              		.cfi_restore 22
 1150              		.cfi_restore 21
 1151              		.cfi_restore 20
 1152              		.cfi_restore 19
 1153              		.cfi_restore 18
 1154              		.cfi_restore 9
 1155              		.cfi_restore 8
 1156              		.cfi_restore 1
 1157              		.cfi_def_cfa_offset -48
 1158              	.LVL112:
 1159              	.L124:
 1160              		.cfi_restore_state
 1161              	.LBB72:
 1162              	.LBB73:
 114:..\..\..\..\wpa_supplicant\src/common/defs.h **** 			 WPA_KEY_MGMT_FT_SAE));
 115:..\..\..\..\wpa_supplicant\src/common/defs.h **** }
 116:..\..\..\..\wpa_supplicant\src/common/defs.h **** 
 117:..\..\..\..\wpa_supplicant\src/common/defs.h **** static inline int wpa_key_mgmt_fils(int akm)
 118:..\..\..\..\wpa_supplicant\src/common/defs.h **** {
 119:..\..\..\..\wpa_supplicant\src/common/defs.h **** 	return !!(akm & (WPA_KEY_MGMT_FILS_SHA256 |
 120:..\..\..\..\wpa_supplicant\src/common/defs.h **** 			 WPA_KEY_MGMT_FILS_SHA384 |
 121:..\..\..\..\wpa_supplicant\src/common/defs.h **** 			 WPA_KEY_MGMT_FT_FILS_SHA256 |
 122:..\..\..\..\wpa_supplicant\src/common/defs.h **** 			 WPA_KEY_MGMT_FT_FILS_SHA384));
 123:..\..\..\..\wpa_supplicant\src/common/defs.h **** }
 124:..\..\..\..\wpa_supplicant\src/common/defs.h **** 
 125:..\..\..\..\wpa_supplicant\src/common/defs.h **** static inline int wpa_key_mgmt_sha256(int akm)
 126:..\..\..\..\wpa_supplicant\src/common/defs.h **** {
 127:..\..\..\..\wpa_supplicant\src/common/defs.h **** 	return !!(akm & (WPA_KEY_MGMT_PSK_SHA256 |
 128:..\..\..\..\wpa_supplicant\src/common/defs.h **** 			 WPA_KEY_MGMT_IEEE8021X_SHA256 |
 129:..\..\..\..\wpa_supplicant\src/common/defs.h **** 			 WPA_KEY_MGMT_SAE |
 130:..\..\..\..\wpa_supplicant\src/common/defs.h **** 			 WPA_KEY_MGMT_FT_SAE |
 131:..\..\..\..\wpa_supplicant\src/common/defs.h **** 			 WPA_KEY_MGMT_OSEN |
 132:..\..\..\..\wpa_supplicant\src/common/defs.h **** 			 WPA_KEY_MGMT_IEEE8021X_SUITE_B |
 133:..\..\..\..\wpa_supplicant\src/common/defs.h **** 			 WPA_KEY_MGMT_FILS_SHA256 |
 134:..\..\..\..\wpa_supplicant\src/common/defs.h **** 			 WPA_KEY_MGMT_FT_FILS_SHA256));
 135:..\..\..\..\wpa_supplicant\src/common/defs.h **** }
 136:..\..\..\..\wpa_supplicant\src/common/defs.h **** 
 137:..\..\..\..\wpa_supplicant\src/common/defs.h **** static inline int wpa_key_mgmt_sha384(int akm)
 138:..\..\..\..\wpa_supplicant\src/common/defs.h **** {
 139:..\..\..\..\wpa_supplicant\src/common/defs.h **** 	return !!(akm & (WPA_KEY_MGMT_IEEE8021X_SUITE_B_192 |
 140:..\..\..\..\wpa_supplicant\src/common/defs.h **** 			 WPA_KEY_MGMT_FT_IEEE8021X_SHA384 |
 141:..\..\..\..\wpa_supplicant\src/common/defs.h **** 			 WPA_KEY_MGMT_FILS_SHA384 |
 142:..\..\..\..\wpa_supplicant\src/common/defs.h **** 			 WPA_KEY_MGMT_FT_FILS_SHA384));
 143:..\..\..\..\wpa_supplicant\src/common/defs.h **** }
 144:..\..\..\..\wpa_supplicant\src/common/defs.h **** 
 145:..\..\..\..\wpa_supplicant\src/common/defs.h **** static inline int wpa_key_mgmt_suite_b(int akm)
 146:..\..\..\..\wpa_supplicant\src/common/defs.h **** {
 147:..\..\..\..\wpa_supplicant\src/common/defs.h **** 	return !!(akm & (WPA_KEY_MGMT_IEEE8021X_SUITE_B |
 1163              		.loc 4 147 16
 1164 0022 B70A0300 		li	s5,196608
 1165 0026 B37A5B01 		and	s5,s6,s5
 1166 002a 2A89     		mv	s2,a0
 1167 002c 2E8A     		mv	s4,a1
 1168 002e B284     		mv	s1,a2
 1169 0030 368C     		mv	s8,a3
 1170 0032 C289     		mv	s3,a6
 1171 0034 C68C     		mv	s9,a7
 1172              	.LBE73:
 1173              	.LBE72:
 184:C:/Users/stapi/OneDrive/Desktop/GD32VW553/V1_MQTT_OK/GD32VW55X_Wifi_BLE_SDK/GD32VW55x_RELEASE_V1.0.2/MSDK/wpa_supplicant/src/rsn_supp\pmksa_cache.c **** 		return NULL;
 1174              		.loc 1 184 2 is_stmt 1
 1175              	.LVL113:
 1176              	.LBB75:
 1177              	.LBB74:
 1178              		.loc 4 147 2
 1179              	.LBE74:
 1180              	.LBE75:
 184:C:/Users/stapi/OneDrive/Desktop/GD32VW553/V1_MQTT_OK/GD32VW55X_Wifi_BLE_SDK/GD32VW55x_RELEASE_V1.0.2/MSDK/wpa_supplicant/src/rsn_supp\pmksa_cache.c **** 		return NULL;
 1181              		.loc 1 184 5 is_stmt 0
 1182 0036 63830A00 		beq	s5,zero,.L126
 1183              	.LVL114:
 184:C:/Users/stapi/OneDrive/Desktop/GD32VW553/V1_MQTT_OK/GD32VW55X_Wifi_BLE_SDK/GD32VW55x_RELEASE_V1.0.2/MSDK/wpa_supplicant/src/rsn_supp\pmksa_cache.c **** 		return NULL;
 1184              		.loc 1 184 33 discriminator 1
 1185 003a 71DF     		beq	a4,zero,.L127
 1186              	.L126:
 187:C:/Users/stapi/OneDrive/Desktop/GD32VW553/V1_MQTT_OK/GD32VW55X_Wifi_BLE_SDK/GD32VW55x_RELEASE_V1.0.2/MSDK/wpa_supplicant/src/rsn_supp\pmksa_cache.c **** 	if (entry == NULL)
 1187              		.loc 1 187 2 is_stmt 1
 187:C:/Users/stapi/OneDrive/Desktop/GD32VW553/V1_MQTT_OK/GD32VW55X_Wifi_BLE_SDK/GD32VW55x_RELEASE_V1.0.2/MSDK/wpa_supplicant/src/rsn_supp\pmksa_cache.c **** 	if (entry == NULL)
 1188              		.loc 1 187 10 is_stmt 0
 1189 003c 1305C007 		li	a0,124
 1190              	.LVL115:
 1191 0040 97000000 		call	os_zalloc
 1191      E7800000 
 1192              	.LVL116:
 1193 0048 2A84     		mv	s0,a0
 1194              	.LVL117:
 188:C:/Users/stapi/OneDrive/Desktop/GD32VW553/V1_MQTT_OK/GD32VW55X_Wifi_BLE_SDK/GD32VW55x_RELEASE_V1.0.2/MSDK/wpa_supplicant/src/rsn_supp\pmksa_cache.c **** 		return NULL;
 1195              		.loc 1 188 2 is_stmt 1
 188:C:/Users/stapi/OneDrive/Desktop/GD32VW553/V1_MQTT_OK/GD32VW55X_Wifi_BLE_SDK/GD32VW55x_RELEASE_V1.0.2/MSDK/wpa_supplicant/src/rsn_supp\pmksa_cache.c **** 		return NULL;
 1196              		.loc 1 188 5 is_stmt 0
 1197 004a 71D5     		beq	a0,zero,.L127
 190:C:/Users/stapi/OneDrive/Desktop/GD32VW553/V1_MQTT_OK/GD32VW55X_Wifi_BLE_SDK/GD32VW55x_RELEASE_V1.0.2/MSDK/wpa_supplicant/src/rsn_supp\pmksa_cache.c **** 	entry->pmk_len = pmk_len;
 1198              		.loc 1 190 2 is_stmt 1
 1199 004c 2686     		mv	a2,s1
 1200 004e D285     		mv	a1,s4
 1201 0050 5105     		addi	a0,a0,20
 1202 0052 97000000 		call	os_memcpy
 1202      E7800000 
 1203              	.LVL118:
 191:C:/Users/stapi/OneDrive/Desktop/GD32VW553/V1_MQTT_OK/GD32VW55X_Wifi_BLE_SDK/GD32VW55x_RELEASE_V1.0.2/MSDK/wpa_supplicant/src/rsn_supp\pmksa_cache.c **** 	if (pmkid)
 1204              		.loc 1 191 2
 191:C:/Users/stapi/OneDrive/Desktop/GD32VW553/V1_MQTT_OK/GD32VW55X_Wifi_BLE_SDK/GD32VW55x_RELEASE_V1.0.2/MSDK/wpa_supplicant/src/rsn_supp\pmksa_cache.c **** 	if (pmkid)
 1205              		.loc 1 191 17 is_stmt 0
 1206 005a 64C8     		sw	s1,84(s0)
 192:C:/Users/stapi/OneDrive/Desktop/GD32VW553/V1_MQTT_OK/GD32VW55X_Wifi_BLE_SDK/GD32VW55x_RELEASE_V1.0.2/MSDK/wpa_supplicant/src/rsn_supp\pmksa_cache.c **** 		os_memcpy(entry->pmkid, pmkid, PMKID_LEN);
 1207              		.loc 1 192 2 is_stmt 1
 192:C:/Users/stapi/OneDrive/Desktop/GD32VW553/V1_MQTT_OK/GD32VW55X_Wifi_BLE_SDK/GD32VW55x_RELEASE_V1.0.2/MSDK/wpa_supplicant/src/rsn_supp\pmksa_cache.c **** 		os_memcpy(entry->pmkid, pmkid, PMKID_LEN);
 1208              		.loc 1 192 5 is_stmt 0
 1209 005c 63040C08 		beq	s8,zero,.L128
 193:C:/Users/stapi/OneDrive/Desktop/GD32VW553/V1_MQTT_OK/GD32VW55X_Wifi_BLE_SDK/GD32VW55x_RELEASE_V1.0.2/MSDK/wpa_supplicant/src/rsn_supp\pmksa_cache.c **** #ifdef IEEE8021X_EAPOL
 1210              		.loc 1 193 3 is_stmt 1
 1211 0060 4146     		li	a2,16
 1212 0062 E285     		mv	a1,s8
 1213 0064 13054400 		addi	a0,s0,4
 1214 0068 97000000 		call	os_memcpy
 1214      E7800000 
 1215              	.LVL119:
 1216              	.L129:
 202:C:/Users/stapi/OneDrive/Desktop/GD32VW553/V1_MQTT_OK/GD32VW55X_Wifi_BLE_SDK/GD32VW55x_RELEASE_V1.0.2/MSDK/wpa_supplicant/src/rsn_supp\pmksa_cache.c **** 	entry->expiration = now.sec + pmksa->sm->dot11RSNAConfigPMKLifetime;
 1217              		.loc 1 202 2
 1218 0070 2800     		addi	a0,sp,8
 1219 0072 97000000 		call	os_get_reltime
 1219      E7800000 
 1220              	.LVL120:
 203:C:/Users/stapi/OneDrive/Desktop/GD32VW553/V1_MQTT_OK/GD32VW55X_Wifi_BLE_SDK/GD32VW55x_RELEASE_V1.0.2/MSDK/wpa_supplicant/src/rsn_supp\pmksa_cache.c **** 	entry->reauth_time = now.sec + pmksa->sm->dot11RSNAConfigPMKLifetime *
 1221              		.loc 1 203 2
 203:C:/Users/stapi/OneDrive/Desktop/GD32VW553/V1_MQTT_OK/GD32VW55X_Wifi_BLE_SDK/GD32VW55x_RELEASE_V1.0.2/MSDK/wpa_supplicant/src/rsn_supp\pmksa_cache.c **** 	entry->reauth_time = now.sec + pmksa->sm->dot11RSNAConfigPMKLifetime *
 1222              		.loc 1 203 37 is_stmt 0
 1223 007a 83268900 		lw	a3,8(s2)
 203:C:/Users/stapi/OneDrive/Desktop/GD32VW553/V1_MQTT_OK/GD32VW55X_Wifi_BLE_SDK/GD32VW55x_RELEASE_V1.0.2/MSDK/wpa_supplicant/src/rsn_supp\pmksa_cache.c **** 	entry->reauth_time = now.sec + pmksa->sm->dot11RSNAConfigPMKLifetime *
 1224              		.loc 1 203 25
 1225 007e 2247     		lw	a4,8(sp)
 203:C:/Users/stapi/OneDrive/Desktop/GD32VW553/V1_MQTT_OK/GD32VW55X_Wifi_BLE_SDK/GD32VW55x_RELEASE_V1.0.2/MSDK/wpa_supplicant/src/rsn_supp\pmksa_cache.c **** 	entry->reauth_time = now.sec + pmksa->sm->dot11RSNAConfigPMKLifetime *
 1226              		.loc 1 203 41
 1227 0080 83A74646 		lw	a5,1124(a3)
 204:C:/Users/stapi/OneDrive/Desktop/GD32VW553/V1_MQTT_OK/GD32VW55X_Wifi_BLE_SDK/GD32VW55x_RELEASE_V1.0.2/MSDK/wpa_supplicant/src/rsn_supp\pmksa_cache.c **** 		pmksa->sm->dot11RSNAConfigPMKReauthThreshold / 100;
 1228              		.loc 1 204 71
 1229 0084 83A68646 		lw	a3,1128(a3)
 206:C:/Users/stapi/OneDrive/Desktop/GD32VW553/V1_MQTT_OK/GD32VW55X_Wifi_BLE_SDK/GD32VW55x_RELEASE_V1.0.2/MSDK/wpa_supplicant/src/rsn_supp\pmksa_cache.c **** 	if (cache_id) {
 1230              		.loc 1 206 14
 1231 0088 232E6405 		sw	s6,92(s0)
 203:C:/Users/stapi/OneDrive/Desktop/GD32VW553/V1_MQTT_OK/GD32VW55X_Wifi_BLE_SDK/GD32VW55x_RELEASE_V1.0.2/MSDK/wpa_supplicant/src/rsn_supp\pmksa_cache.c **** 	entry->reauth_time = now.sec + pmksa->sm->dot11RSNAConfigPMKLifetime *
 1232              		.loc 1 203 30
 1233 008c 3306F700 		add	a2,a4,a5
 204:C:/Users/stapi/OneDrive/Desktop/GD32VW553/V1_MQTT_OK/GD32VW55X_Wifi_BLE_SDK/GD32VW55x_RELEASE_V1.0.2/MSDK/wpa_supplicant/src/rsn_supp\pmksa_cache.c **** 		pmksa->sm->dot11RSNAConfigPMKReauthThreshold / 100;
 1234              		.loc 1 204 71
 1235 0090 B387D702 		mul	a5,a5,a3
 205:C:/Users/stapi/OneDrive/Desktop/GD32VW553/V1_MQTT_OK/GD32VW55X_Wifi_BLE_SDK/GD32VW55x_RELEASE_V1.0.2/MSDK/wpa_supplicant/src/rsn_supp\pmksa_cache.c **** 	entry->akmp = akmp;
 1236              		.loc 1 205 48
 1237 0094 93064006 		li	a3,100
 203:C:/Users/stapi/OneDrive/Desktop/GD32VW553/V1_MQTT_OK/GD32VW55X_Wifi_BLE_SDK/GD32VW55x_RELEASE_V1.0.2/MSDK/wpa_supplicant/src/rsn_supp\pmksa_cache.c **** 	entry->reauth_time = now.sec + pmksa->sm->dot11RSNAConfigPMKLifetime *
 1238              		.loc 1 203 20
 1239 0098 30CC     		sw	a2,88(s0)
 204:C:/Users/stapi/OneDrive/Desktop/GD32VW553/V1_MQTT_OK/GD32VW55X_Wifi_BLE_SDK/GD32VW55x_RELEASE_V1.0.2/MSDK/wpa_supplicant/src/rsn_supp\pmksa_cache.c **** 		pmksa->sm->dot11RSNAConfigPMKReauthThreshold / 100;
 1240              		.loc 1 204 2 is_stmt 1
 205:C:/Users/stapi/OneDrive/Desktop/GD32VW553/V1_MQTT_OK/GD32VW55X_Wifi_BLE_SDK/GD32VW55x_RELEASE_V1.0.2/MSDK/wpa_supplicant/src/rsn_supp\pmksa_cache.c **** 	entry->akmp = akmp;
 1241              		.loc 1 205 48 is_stmt 0
 1242 009a B3D7D702 		divu	a5,a5,a3
 204:C:/Users/stapi/OneDrive/Desktop/GD32VW553/V1_MQTT_OK/GD32VW55X_Wifi_BLE_SDK/GD32VW55x_RELEASE_V1.0.2/MSDK/wpa_supplicant/src/rsn_supp\pmksa_cache.c **** 		pmksa->sm->dot11RSNAConfigPMKReauthThreshold / 100;
 1243              		.loc 1 204 31
 1244 009e BA97     		add	a5,a5,a4
 204:C:/Users/stapi/OneDrive/Desktop/GD32VW553/V1_MQTT_OK/GD32VW55X_Wifi_BLE_SDK/GD32VW55x_RELEASE_V1.0.2/MSDK/wpa_supplicant/src/rsn_supp\pmksa_cache.c **** 		pmksa->sm->dot11RSNAConfigPMKReauthThreshold / 100;
 1245              		.loc 1 204 21
 1246 00a0 7CD4     		sw	a5,108(s0)
 206:C:/Users/stapi/OneDrive/Desktop/GD32VW553/V1_MQTT_OK/GD32VW55X_Wifi_BLE_SDK/GD32VW55x_RELEASE_V1.0.2/MSDK/wpa_supplicant/src/rsn_supp\pmksa_cache.c **** 	if (cache_id) {
 1247              		.loc 1 206 2 is_stmt 1
 207:C:/Users/stapi/OneDrive/Desktop/GD32VW553/V1_MQTT_OK/GD32VW55X_Wifi_BLE_SDK/GD32VW55x_RELEASE_V1.0.2/MSDK/wpa_supplicant/src/rsn_supp\pmksa_cache.c **** 		entry->fils_cache_id_set = 1;
 1248              		.loc 1 207 2
 207:C:/Users/stapi/OneDrive/Desktop/GD32VW553/V1_MQTT_OK/GD32VW55X_Wifi_BLE_SDK/GD32VW55x_RELEASE_V1.0.2/MSDK/wpa_supplicant/src/rsn_supp\pmksa_cache.c **** 		entry->fils_cache_id_set = 1;
 1249              		.loc 1 207 5 is_stmt 0
 1250 00a2 63800B02 		beq	s7,zero,.L130
 208:C:/Users/stapi/OneDrive/Desktop/GD32VW553/V1_MQTT_OK/GD32VW55X_Wifi_BLE_SDK/GD32VW55x_RELEASE_V1.0.2/MSDK/wpa_supplicant/src/rsn_supp\pmksa_cache.c **** 		os_memcpy(entry->fils_cache_id, cache_id, FILS_CACHE_ID_LEN);
 1251              		.loc 1 208 3 is_stmt 1
 208:C:/Users/stapi/OneDrive/Desktop/GD32VW553/V1_MQTT_OK/GD32VW55X_Wifi_BLE_SDK/GD32VW55x_RELEASE_V1.0.2/MSDK/wpa_supplicant/src/rsn_supp\pmksa_cache.c **** 		os_memcpy(entry->fils_cache_id, cache_id, FILS_CACHE_ID_LEN);
 1252              		.loc 1 208 28 is_stmt 0
 1253 00a6 83478406 		lbu	a5,104(s0)
 209:C:/Users/stapi/OneDrive/Desktop/GD32VW553/V1_MQTT_OK/GD32VW55X_Wifi_BLE_SDK/GD32VW55x_RELEASE_V1.0.2/MSDK/wpa_supplicant/src/rsn_supp\pmksa_cache.c **** 	}
 1254              		.loc 1 209 3
 1255 00aa 0946     		li	a2,2
 1256 00ac DE85     		mv	a1,s7
 208:C:/Users/stapi/OneDrive/Desktop/GD32VW553/V1_MQTT_OK/GD32VW55X_Wifi_BLE_SDK/GD32VW55x_RELEASE_V1.0.2/MSDK/wpa_supplicant/src/rsn_supp\pmksa_cache.c **** 		os_memcpy(entry->fils_cache_id, cache_id, FILS_CACHE_ID_LEN);
 1257              		.loc 1 208 28
 1258 00ae 93E71700 		ori	a5,a5,1
 1259 00b2 2304F406 		sb	a5,104(s0)
 209:C:/Users/stapi/OneDrive/Desktop/GD32VW553/V1_MQTT_OK/GD32VW55X_Wifi_BLE_SDK/GD32VW55x_RELEASE_V1.0.2/MSDK/wpa_supplicant/src/rsn_supp\pmksa_cache.c **** 	}
 1260              		.loc 1 209 3 is_stmt 1
 1261 00b6 13056406 		addi	a0,s0,102
 1262 00ba 97000000 		call	os_memcpy
 1262      E7800000 
 1263              	.LVL121:
 1264              	.L130:
 211:C:/Users/stapi/OneDrive/Desktop/GD32VW553/V1_MQTT_OK/GD32VW55X_Wifi_BLE_SDK/GD32VW55x_RELEASE_V1.0.2/MSDK/wpa_supplicant/src/rsn_supp\pmksa_cache.c **** 	entry->network_ctx = network_ctx;
 1265              		.loc 1 211 2
 1266 00c2 CE85     		mv	a1,s3
 1267 00c4 1946     		li	a2,6
 1268 00c6 13050406 		addi	a0,s0,96
 1269 00ca 97000000 		call	os_memcpy
 1269      E7800000 
 1270              	.LVL122:
 212:C:/Users/stapi/OneDrive/Desktop/GD32VW553/V1_MQTT_OK/GD32VW55X_Wifi_BLE_SDK/GD32VW55x_RELEASE_V1.0.2/MSDK/wpa_supplicant/src/rsn_supp\pmksa_cache.c **** 
 1271              		.loc 1 212 2
 212:C:/Users/stapi/OneDrive/Desktop/GD32VW553/V1_MQTT_OK/GD32VW55X_Wifi_BLE_SDK/GD32VW55x_RELEASE_V1.0.2/MSDK/wpa_supplicant/src/rsn_supp\pmksa_cache.c **** 
 1272              		.loc 1 212 21 is_stmt 0
 1273 00d2 8647     		lw	a5,64(sp)
 214:C:/Users/stapi/OneDrive/Desktop/GD32VW553/V1_MQTT_OK/GD32VW55X_Wifi_BLE_SDK/GD32VW55x_RELEASE_V1.0.2/MSDK/wpa_supplicant/src/rsn_supp\pmksa_cache.c **** }
 1274              		.loc 1 214 9
 1275 00d4 A285     		mv	a1,s0
 1276 00d6 4A85     		mv	a0,s2
 212:C:/Users/stapi/OneDrive/Desktop/GD32VW553/V1_MQTT_OK/GD32VW55X_Wifi_BLE_SDK/GD32VW55x_RELEASE_V1.0.2/MSDK/wpa_supplicant/src/rsn_supp\pmksa_cache.c **** 
 1277              		.loc 1 212 21
 1278 00d8 3CD8     		sw	a5,112(s0)
 214:C:/Users/stapi/OneDrive/Desktop/GD32VW553/V1_MQTT_OK/GD32VW55X_Wifi_BLE_SDK/GD32VW55x_RELEASE_V1.0.2/MSDK/wpa_supplicant/src/rsn_supp\pmksa_cache.c **** }
 1279              		.loc 1 214 2 is_stmt 1
 214:C:/Users/stapi/OneDrive/Desktop/GD32VW553/V1_MQTT_OK/GD32VW55X_Wifi_BLE_SDK/GD32VW55x_RELEASE_V1.0.2/MSDK/wpa_supplicant/src/rsn_supp\pmksa_cache.c **** }
 1280              		.loc 1 214 9 is_stmt 0
 1281 00da 97000000 		call	pmksa_cache_add_entry
 1281      E7800000 
 1282              	.LVL123:
 1283 00e2 1DBF     		j	.L123
 1284              	.L128:
 198:C:/Users/stapi/OneDrive/Desktop/GD32VW553/V1_MQTT_OK/GD32VW55X_Wifi_BLE_SDK/GD32VW55x_RELEASE_V1.0.2/MSDK/wpa_supplicant/src/rsn_supp\pmksa_cache.c **** 		rsn_pmkid_suite_b(kck, kck_len, aa, spa, entry->pmkid);
 1285              		.loc 1 198 7 is_stmt 1
 1286              	.LVL124:
 1287              		.loc 4 147 2
 198:C:/Users/stapi/OneDrive/Desktop/GD32VW553/V1_MQTT_OK/GD32VW55X_Wifi_BLE_SDK/GD32VW55x_RELEASE_V1.0.2/MSDK/wpa_supplicant/src/rsn_supp\pmksa_cache.c **** 		rsn_pmkid_suite_b(kck, kck_len, aa, spa, entry->pmkid);
 1288              		.loc 1 198 10 is_stmt 0
 1289 00e4 E3960AF8 		bne	s5,zero,.L129
 201:C:/Users/stapi/OneDrive/Desktop/GD32VW553/V1_MQTT_OK/GD32VW55X_Wifi_BLE_SDK/GD32VW55x_RELEASE_V1.0.2/MSDK/wpa_supplicant/src/rsn_supp\pmksa_cache.c **** 	os_get_reltime(&now);
 1290              		.loc 1 201 3 is_stmt 1
 1291 00e8 DA87     		mv	a5,s6
 1292 00ea 13074400 		addi	a4,s0,4
 1293 00ee E686     		mv	a3,s9
 1294 00f0 4E86     		mv	a2,s3
 1295 00f2 A685     		mv	a1,s1
 1296 00f4 5285     		mv	a0,s4
 1297 00f6 97000000 		call	rsn_pmkid
 1297      E7800000 
 1298              	.LVL125:
 1299 00fe 8DBF     		j	.L129
 1300              		.cfi_endproc
 1301              	.LFE164:
 1303              		.section	.text.pmksa_cache_deinit,"ax",@progbits
 1304              		.align	1
 1305              		.globl	pmksa_cache_deinit
 1307              	pmksa_cache_deinit:
 1308              	.LFB167:
 372:C:/Users/stapi/OneDrive/Desktop/GD32VW553/V1_MQTT_OK/GD32VW55X_Wifi_BLE_SDK/GD32VW55x_RELEASE_V1.0.2/MSDK/wpa_supplicant/src/rsn_supp\pmksa_cache.c **** 	struct rsn_pmksa_cache_entry *entry, *prev;
 1309              		.loc 1 372 1
 1310              		.cfi_startproc
 1311              	.LVL126:
 373:C:/Users/stapi/OneDrive/Desktop/GD32VW553/V1_MQTT_OK/GD32VW55X_Wifi_BLE_SDK/GD32VW55x_RELEASE_V1.0.2/MSDK/wpa_supplicant/src/rsn_supp\pmksa_cache.c **** 
 1312              		.loc 1 373 2
 375:C:/Users/stapi/OneDrive/Desktop/GD32VW553/V1_MQTT_OK/GD32VW55X_Wifi_BLE_SDK/GD32VW55x_RELEASE_V1.0.2/MSDK/wpa_supplicant/src/rsn_supp\pmksa_cache.c **** 		return;
 1313              		.loc 1 375 2
 375:C:/Users/stapi/OneDrive/Desktop/GD32VW553/V1_MQTT_OK/GD32VW55X_Wifi_BLE_SDK/GD32VW55x_RELEASE_V1.0.2/MSDK/wpa_supplicant/src/rsn_supp\pmksa_cache.c **** 		return;
 1314              		.loc 1 375 5 is_stmt 0
 1315 0000 1DCD     		beq	a0,zero,.L152
 372:C:/Users/stapi/OneDrive/Desktop/GD32VW553/V1_MQTT_OK/GD32VW55X_Wifi_BLE_SDK/GD32VW55x_RELEASE_V1.0.2/MSDK/wpa_supplicant/src/rsn_supp\pmksa_cache.c **** 	struct rsn_pmksa_cache_entry *entry, *prev;
 1316              		.loc 1 372 1
 1317 0002 17030000 		call	t0,__riscv_save_2
 1317      E7020300 
 1318              		.cfi_offset 9, -12
 1319              		.cfi_offset 8, -8
 1320              		.cfi_offset 1, -4
 1321              		.cfi_def_cfa_offset 16
 1322 000a 2A84     		mv	s0,a0
 378:C:/Users/stapi/OneDrive/Desktop/GD32VW553/V1_MQTT_OK/GD32VW55X_Wifi_BLE_SDK/GD32VW55x_RELEASE_V1.0.2/MSDK/wpa_supplicant/src/rsn_supp\pmksa_cache.c **** 	pmksa->pmksa = NULL;
 1323              		.loc 1 378 2 is_stmt 1
 378:C:/Users/stapi/OneDrive/Desktop/GD32VW553/V1_MQTT_OK/GD32VW55X_Wifi_BLE_SDK/GD32VW55x_RELEASE_V1.0.2/MSDK/wpa_supplicant/src/rsn_supp\pmksa_cache.c **** 	pmksa->pmksa = NULL;
 1324              		.loc 1 378 8 is_stmt 0
 1325 000c 0841     		lw	a0,0(a0)
 1326              	.LVL127:
 379:C:/Users/stapi/OneDrive/Desktop/GD32VW553/V1_MQTT_OK/GD32VW55X_Wifi_BLE_SDK/GD32VW55x_RELEASE_V1.0.2/MSDK/wpa_supplicant/src/rsn_supp\pmksa_cache.c **** 	while (entry) {
 1327              		.loc 1 379 2 is_stmt 1
 379:C:/Users/stapi/OneDrive/Desktop/GD32VW553/V1_MQTT_OK/GD32VW55X_Wifi_BLE_SDK/GD32VW55x_RELEASE_V1.0.2/MSDK/wpa_supplicant/src/rsn_supp\pmksa_cache.c **** 	while (entry) {
 1328              		.loc 1 379 15 is_stmt 0
 1329 000e 23200400 		sw	zero,0(s0)
 380:C:/Users/stapi/OneDrive/Desktop/GD32VW553/V1_MQTT_OK/GD32VW55X_Wifi_BLE_SDK/GD32VW55x_RELEASE_V1.0.2/MSDK/wpa_supplicant/src/rsn_supp\pmksa_cache.c **** 		prev = entry;
 1330              		.loc 1 380 2 is_stmt 1
 1331              	.L146:
 380:C:/Users/stapi/OneDrive/Desktop/GD32VW553/V1_MQTT_OK/GD32VW55X_Wifi_BLE_SDK/GD32VW55x_RELEASE_V1.0.2/MSDK/wpa_supplicant/src/rsn_supp\pmksa_cache.c **** 		prev = entry;
 1332              		.loc 1 380 8
 1333 0012 19ED     		bne	a0,zero,.L147
 385:C:/Users/stapi/OneDrive/Desktop/GD32VW553/V1_MQTT_OK/GD32VW55X_Wifi_BLE_SDK/GD32VW55x_RELEASE_V1.0.2/MSDK/wpa_supplicant/src/rsn_supp\pmksa_cache.c **** 	os_free(pmksa);
 1334              		.loc 1 385 2
 1335 0014 2285     		mv	a0,s0
 1336              	.LVL128:
 1337 0016 97000000 		call	pmksa_cache_set_expiration
 1337      E7800000 
 1338              	.LVL129:
 386:C:/Users/stapi/OneDrive/Desktop/GD32VW553/V1_MQTT_OK/GD32VW55X_Wifi_BLE_SDK/GD32VW55x_RELEASE_V1.0.2/MSDK/wpa_supplicant/src/rsn_supp\pmksa_cache.c **** }
 1339              		.loc 1 386 2
 1340 001e 2285     		mv	a0,s0
 1341 0020 97000000 		call	os_free
 1341      E7800000 
 1342              	.LVL130:
 387:C:/Users/stapi/OneDrive/Desktop/GD32VW553/V1_MQTT_OK/GD32VW55X_Wifi_BLE_SDK/GD32VW55x_RELEASE_V1.0.2/MSDK/wpa_supplicant/src/rsn_supp\pmksa_cache.c **** 
 1343              		.loc 1 387 1 is_stmt 0
 1344 0028 17030000 		tail	__riscv_restore_2
 1344      67000300 
 1345              		.cfi_remember_state
 1346              		.cfi_restore 9
 1347              		.cfi_restore 8
 1348              		.cfi_restore 1
 1349              		.cfi_def_cfa_offset 0
 1350              	.LVL131:
 1351              	.L147:
 1352              		.cfi_restore_state
 381:C:/Users/stapi/OneDrive/Desktop/GD32VW553/V1_MQTT_OK/GD32VW55X_Wifi_BLE_SDK/GD32VW55x_RELEASE_V1.0.2/MSDK/wpa_supplicant/src/rsn_supp\pmksa_cache.c **** 		entry = entry->next;
 1353              		.loc 1 381 3 is_stmt 1
 382:C:/Users/stapi/OneDrive/Desktop/GD32VW553/V1_MQTT_OK/GD32VW55X_Wifi_BLE_SDK/GD32VW55x_RELEASE_V1.0.2/MSDK/wpa_supplicant/src/rsn_supp\pmksa_cache.c **** 		os_free(prev);
 1354              		.loc 1 382 3
 382:C:/Users/stapi/OneDrive/Desktop/GD32VW553/V1_MQTT_OK/GD32VW55X_Wifi_BLE_SDK/GD32VW55x_RELEASE_V1.0.2/MSDK/wpa_supplicant/src/rsn_supp\pmksa_cache.c **** 		os_free(prev);
 1355              		.loc 1 382 9 is_stmt 0
 1356 0030 0441     		lw	s1,0(a0)
 1357              	.LVL132:
 383:C:/Users/stapi/OneDrive/Desktop/GD32VW553/V1_MQTT_OK/GD32VW55X_Wifi_BLE_SDK/GD32VW55x_RELEASE_V1.0.2/MSDK/wpa_supplicant/src/rsn_supp\pmksa_cache.c **** 	}
 1358              		.loc 1 383 3 is_stmt 1
 1359 0032 97000000 		call	os_free
 1359      E7800000 
 1360              	.LVL133:
 382:C:/Users/stapi/OneDrive/Desktop/GD32VW553/V1_MQTT_OK/GD32VW55X_Wifi_BLE_SDK/GD32VW55x_RELEASE_V1.0.2/MSDK/wpa_supplicant/src/rsn_supp\pmksa_cache.c **** 		os_free(prev);
 1361              		.loc 1 382 9 is_stmt 0
 1362 003a 2685     		mv	a0,s1
 1363 003c D9BF     		j	.L146
 1364              	.LVL134:
 1365              	.L152:
 1366              		.cfi_def_cfa_offset 0
 1367              		.cfi_restore 1
 1368              		.cfi_restore 8
 1369              		.cfi_restore 9
 1370 003e 8280     		ret
 1371              		.cfi_endproc
 1372              	.LFE167:
 1374              		.section	.rodata.pmksa_cache_get_opportunistic.str1.4,"aMS",@progbits,1
 1375              		.align	2
 1376              	.LC7:
 1377 0000 52534E3A 		.string	"RSN: Consider %02x:%02x:%02x:%02x:%02x:%02x for OKC"
 1377      20436F6E 
 1377      73696465 
 1377      72202530 
 1377      32783A25 
 1378              		.align	2
 1379              	.LC8:
 1380 0034 52534E3A 		.string	"RSN: Do not clone PMKSA cache entry for %02x:%02x:%02x:%02x:%02x:%02x since its reauth th
 1380      20446F20 
 1380      6E6F7420 
 1380      636C6F6E 
 1380      6520504D 
 1381              		.align	2
 1382              	.LC9:
 1383 00a0 52534E3A 		.string	"RSN: added opportunistic PMKSA cache entry for %02x:%02x:%02x:%02x:%02x:%02x"
 1383      20616464 
 1383      6564206F 
 1383      70706F72 
 1383      74756E69 
 1384              		.section	.text.pmksa_cache_get_opportunistic,"ax",@progbits
 1385              		.align	1
 1386              		.globl	pmksa_cache_get_opportunistic
 1388              	pmksa_cache_get_opportunistic:
 1389              	.LFB170:
 416:C:/Users/stapi/OneDrive/Desktop/GD32VW553/V1_MQTT_OK/GD32VW55X_Wifi_BLE_SDK/GD32VW55x_RELEASE_V1.0.2/MSDK/wpa_supplicant/src/rsn_supp\pmksa_cache.c **** 
 417:C:/Users/stapi/OneDrive/Desktop/GD32VW553/V1_MQTT_OK/GD32VW55X_Wifi_BLE_SDK/GD32VW55x_RELEASE_V1.0.2/MSDK/wpa_supplicant/src/rsn_supp\pmksa_cache.c **** 
 418:C:/Users/stapi/OneDrive/Desktop/GD32VW553/V1_MQTT_OK/GD32VW55X_Wifi_BLE_SDK/GD32VW55x_RELEASE_V1.0.2/MSDK/wpa_supplicant/src/rsn_supp\pmksa_cache.c **** static struct rsn_pmksa_cache_entry *
 419:C:/Users/stapi/OneDrive/Desktop/GD32VW553/V1_MQTT_OK/GD32VW55X_Wifi_BLE_SDK/GD32VW55x_RELEASE_V1.0.2/MSDK/wpa_supplicant/src/rsn_supp\pmksa_cache.c **** pmksa_cache_clone_entry(struct rsn_pmksa_cache *pmksa,
 420:C:/Users/stapi/OneDrive/Desktop/GD32VW553/V1_MQTT_OK/GD32VW55X_Wifi_BLE_SDK/GD32VW55x_RELEASE_V1.0.2/MSDK/wpa_supplicant/src/rsn_supp\pmksa_cache.c **** 			const struct rsn_pmksa_cache_entry *old_entry,
 421:C:/Users/stapi/OneDrive/Desktop/GD32VW553/V1_MQTT_OK/GD32VW55X_Wifi_BLE_SDK/GD32VW55x_RELEASE_V1.0.2/MSDK/wpa_supplicant/src/rsn_supp\pmksa_cache.c **** 			const u8 *aa)
 422:C:/Users/stapi/OneDrive/Desktop/GD32VW553/V1_MQTT_OK/GD32VW55X_Wifi_BLE_SDK/GD32VW55x_RELEASE_V1.0.2/MSDK/wpa_supplicant/src/rsn_supp\pmksa_cache.c **** {
 423:C:/Users/stapi/OneDrive/Desktop/GD32VW553/V1_MQTT_OK/GD32VW55X_Wifi_BLE_SDK/GD32VW55x_RELEASE_V1.0.2/MSDK/wpa_supplicant/src/rsn_supp\pmksa_cache.c **** 	struct rsn_pmksa_cache_entry *new_entry;
 424:C:/Users/stapi/OneDrive/Desktop/GD32VW553/V1_MQTT_OK/GD32VW55X_Wifi_BLE_SDK/GD32VW55x_RELEASE_V1.0.2/MSDK/wpa_supplicant/src/rsn_supp\pmksa_cache.c **** 	os_time_t old_expiration = old_entry->expiration;
 425:C:/Users/stapi/OneDrive/Desktop/GD32VW553/V1_MQTT_OK/GD32VW55X_Wifi_BLE_SDK/GD32VW55x_RELEASE_V1.0.2/MSDK/wpa_supplicant/src/rsn_supp\pmksa_cache.c **** 	os_time_t old_reauth_time = old_entry->reauth_time;
 426:C:/Users/stapi/OneDrive/Desktop/GD32VW553/V1_MQTT_OK/GD32VW55X_Wifi_BLE_SDK/GD32VW55x_RELEASE_V1.0.2/MSDK/wpa_supplicant/src/rsn_supp\pmksa_cache.c **** 	const u8 *pmkid = NULL;
 427:C:/Users/stapi/OneDrive/Desktop/GD32VW553/V1_MQTT_OK/GD32VW55X_Wifi_BLE_SDK/GD32VW55x_RELEASE_V1.0.2/MSDK/wpa_supplicant/src/rsn_supp\pmksa_cache.c **** 
 428:C:/Users/stapi/OneDrive/Desktop/GD32VW553/V1_MQTT_OK/GD32VW55X_Wifi_BLE_SDK/GD32VW55x_RELEASE_V1.0.2/MSDK/wpa_supplicant/src/rsn_supp\pmksa_cache.c **** 	if (wpa_key_mgmt_sae(old_entry->akmp) ||
 429:C:/Users/stapi/OneDrive/Desktop/GD32VW553/V1_MQTT_OK/GD32VW55X_Wifi_BLE_SDK/GD32VW55x_RELEASE_V1.0.2/MSDK/wpa_supplicant/src/rsn_supp\pmksa_cache.c **** 	    wpa_key_mgmt_fils(old_entry->akmp))
 430:C:/Users/stapi/OneDrive/Desktop/GD32VW553/V1_MQTT_OK/GD32VW55X_Wifi_BLE_SDK/GD32VW55x_RELEASE_V1.0.2/MSDK/wpa_supplicant/src/rsn_supp\pmksa_cache.c **** 		pmkid = old_entry->pmkid;
 431:C:/Users/stapi/OneDrive/Desktop/GD32VW553/V1_MQTT_OK/GD32VW55X_Wifi_BLE_SDK/GD32VW55x_RELEASE_V1.0.2/MSDK/wpa_supplicant/src/rsn_supp\pmksa_cache.c **** 	new_entry = pmksa_cache_add(pmksa, old_entry->pmk, old_entry->pmk_len,
 432:C:/Users/stapi/OneDrive/Desktop/GD32VW553/V1_MQTT_OK/GD32VW55X_Wifi_BLE_SDK/GD32VW55x_RELEASE_V1.0.2/MSDK/wpa_supplicant/src/rsn_supp\pmksa_cache.c **** 				    pmkid, NULL, 0,
 433:C:/Users/stapi/OneDrive/Desktop/GD32VW553/V1_MQTT_OK/GD32VW55X_Wifi_BLE_SDK/GD32VW55x_RELEASE_V1.0.2/MSDK/wpa_supplicant/src/rsn_supp\pmksa_cache.c **** 				    aa, pmksa->sm->own_addr,
 434:C:/Users/stapi/OneDrive/Desktop/GD32VW553/V1_MQTT_OK/GD32VW55X_Wifi_BLE_SDK/GD32VW55x_RELEASE_V1.0.2/MSDK/wpa_supplicant/src/rsn_supp\pmksa_cache.c **** 				    old_entry->network_ctx, old_entry->akmp,
 435:C:/Users/stapi/OneDrive/Desktop/GD32VW553/V1_MQTT_OK/GD32VW55X_Wifi_BLE_SDK/GD32VW55x_RELEASE_V1.0.2/MSDK/wpa_supplicant/src/rsn_supp\pmksa_cache.c **** 				    old_entry->fils_cache_id_set ?
 436:C:/Users/stapi/OneDrive/Desktop/GD32VW553/V1_MQTT_OK/GD32VW55X_Wifi_BLE_SDK/GD32VW55x_RELEASE_V1.0.2/MSDK/wpa_supplicant/src/rsn_supp\pmksa_cache.c **** 				    old_entry->fils_cache_id : NULL);
 437:C:/Users/stapi/OneDrive/Desktop/GD32VW553/V1_MQTT_OK/GD32VW55X_Wifi_BLE_SDK/GD32VW55x_RELEASE_V1.0.2/MSDK/wpa_supplicant/src/rsn_supp\pmksa_cache.c **** 	if (new_entry == NULL)
 438:C:/Users/stapi/OneDrive/Desktop/GD32VW553/V1_MQTT_OK/GD32VW55X_Wifi_BLE_SDK/GD32VW55x_RELEASE_V1.0.2/MSDK/wpa_supplicant/src/rsn_supp\pmksa_cache.c **** 		return NULL;
 439:C:/Users/stapi/OneDrive/Desktop/GD32VW553/V1_MQTT_OK/GD32VW55X_Wifi_BLE_SDK/GD32VW55x_RELEASE_V1.0.2/MSDK/wpa_supplicant/src/rsn_supp\pmksa_cache.c **** 
 440:C:/Users/stapi/OneDrive/Desktop/GD32VW553/V1_MQTT_OK/GD32VW55X_Wifi_BLE_SDK/GD32VW55x_RELEASE_V1.0.2/MSDK/wpa_supplicant/src/rsn_supp\pmksa_cache.c **** 	/* TODO: reorder entries based on expiration time? */
 441:C:/Users/stapi/OneDrive/Desktop/GD32VW553/V1_MQTT_OK/GD32VW55X_Wifi_BLE_SDK/GD32VW55x_RELEASE_V1.0.2/MSDK/wpa_supplicant/src/rsn_supp\pmksa_cache.c **** 	new_entry->expiration = old_expiration;
 442:C:/Users/stapi/OneDrive/Desktop/GD32VW553/V1_MQTT_OK/GD32VW55X_Wifi_BLE_SDK/GD32VW55x_RELEASE_V1.0.2/MSDK/wpa_supplicant/src/rsn_supp\pmksa_cache.c **** 	new_entry->reauth_time = old_reauth_time;
 443:C:/Users/stapi/OneDrive/Desktop/GD32VW553/V1_MQTT_OK/GD32VW55X_Wifi_BLE_SDK/GD32VW55x_RELEASE_V1.0.2/MSDK/wpa_supplicant/src/rsn_supp\pmksa_cache.c **** 	new_entry->opportunistic = 1;
 444:C:/Users/stapi/OneDrive/Desktop/GD32VW553/V1_MQTT_OK/GD32VW55X_Wifi_BLE_SDK/GD32VW55x_RELEASE_V1.0.2/MSDK/wpa_supplicant/src/rsn_supp\pmksa_cache.c **** 
 445:C:/Users/stapi/OneDrive/Desktop/GD32VW553/V1_MQTT_OK/GD32VW55X_Wifi_BLE_SDK/GD32VW55x_RELEASE_V1.0.2/MSDK/wpa_supplicant/src/rsn_supp\pmksa_cache.c **** 	return new_entry;
 446:C:/Users/stapi/OneDrive/Desktop/GD32VW553/V1_MQTT_OK/GD32VW55X_Wifi_BLE_SDK/GD32VW55x_RELEASE_V1.0.2/MSDK/wpa_supplicant/src/rsn_supp\pmksa_cache.c **** }
 447:C:/Users/stapi/OneDrive/Desktop/GD32VW553/V1_MQTT_OK/GD32VW55X_Wifi_BLE_SDK/GD32VW55x_RELEASE_V1.0.2/MSDK/wpa_supplicant/src/rsn_supp\pmksa_cache.c **** 
 448:C:/Users/stapi/OneDrive/Desktop/GD32VW553/V1_MQTT_OK/GD32VW55X_Wifi_BLE_SDK/GD32VW55x_RELEASE_V1.0.2/MSDK/wpa_supplicant/src/rsn_supp\pmksa_cache.c **** 
 449:C:/Users/stapi/OneDrive/Desktop/GD32VW553/V1_MQTT_OK/GD32VW55X_Wifi_BLE_SDK/GD32VW55x_RELEASE_V1.0.2/MSDK/wpa_supplicant/src/rsn_supp\pmksa_cache.c **** /**
 450:C:/Users/stapi/OneDrive/Desktop/GD32VW553/V1_MQTT_OK/GD32VW55X_Wifi_BLE_SDK/GD32VW55x_RELEASE_V1.0.2/MSDK/wpa_supplicant/src/rsn_supp\pmksa_cache.c ****  * pmksa_cache_get_opportunistic - Try to get an opportunistic PMKSA entry
 451:C:/Users/stapi/OneDrive/Desktop/GD32VW553/V1_MQTT_OK/GD32VW55X_Wifi_BLE_SDK/GD32VW55x_RELEASE_V1.0.2/MSDK/wpa_supplicant/src/rsn_supp\pmksa_cache.c ****  * @pmksa: Pointer to PMKSA cache data from pmksa_cache_init()
 452:C:/Users/stapi/OneDrive/Desktop/GD32VW553/V1_MQTT_OK/GD32VW55X_Wifi_BLE_SDK/GD32VW55x_RELEASE_V1.0.2/MSDK/wpa_supplicant/src/rsn_supp\pmksa_cache.c ****  * @network_ctx: Network configuration context
 453:C:/Users/stapi/OneDrive/Desktop/GD32VW553/V1_MQTT_OK/GD32VW55X_Wifi_BLE_SDK/GD32VW55x_RELEASE_V1.0.2/MSDK/wpa_supplicant/src/rsn_supp\pmksa_cache.c ****  * @aa: Authenticator address for the new AP
 454:C:/Users/stapi/OneDrive/Desktop/GD32VW553/V1_MQTT_OK/GD32VW55X_Wifi_BLE_SDK/GD32VW55x_RELEASE_V1.0.2/MSDK/wpa_supplicant/src/rsn_supp\pmksa_cache.c ****  * @akmp: Specific AKMP to search for or 0 for any
 455:C:/Users/stapi/OneDrive/Desktop/GD32VW553/V1_MQTT_OK/GD32VW55X_Wifi_BLE_SDK/GD32VW55x_RELEASE_V1.0.2/MSDK/wpa_supplicant/src/rsn_supp\pmksa_cache.c ****  * Returns: Pointer to a new PMKSA cache entry or %NULL if not available
 456:C:/Users/stapi/OneDrive/Desktop/GD32VW553/V1_MQTT_OK/GD32VW55X_Wifi_BLE_SDK/GD32VW55x_RELEASE_V1.0.2/MSDK/wpa_supplicant/src/rsn_supp\pmksa_cache.c ****  *
 457:C:/Users/stapi/OneDrive/Desktop/GD32VW553/V1_MQTT_OK/GD32VW55X_Wifi_BLE_SDK/GD32VW55x_RELEASE_V1.0.2/MSDK/wpa_supplicant/src/rsn_supp\pmksa_cache.c ****  * Try to create a new PMKSA cache entry opportunistically by guessing that the
 458:C:/Users/stapi/OneDrive/Desktop/GD32VW553/V1_MQTT_OK/GD32VW55X_Wifi_BLE_SDK/GD32VW55x_RELEASE_V1.0.2/MSDK/wpa_supplicant/src/rsn_supp\pmksa_cache.c ****  * new AP is sharing the same PMK as another AP that has the same SSID and has
 459:C:/Users/stapi/OneDrive/Desktop/GD32VW553/V1_MQTT_OK/GD32VW55X_Wifi_BLE_SDK/GD32VW55x_RELEASE_V1.0.2/MSDK/wpa_supplicant/src/rsn_supp\pmksa_cache.c ****  * already an entry in PMKSA cache.
 460:C:/Users/stapi/OneDrive/Desktop/GD32VW553/V1_MQTT_OK/GD32VW55X_Wifi_BLE_SDK/GD32VW55x_RELEASE_V1.0.2/MSDK/wpa_supplicant/src/rsn_supp\pmksa_cache.c ****  */
 461:C:/Users/stapi/OneDrive/Desktop/GD32VW553/V1_MQTT_OK/GD32VW55X_Wifi_BLE_SDK/GD32VW55x_RELEASE_V1.0.2/MSDK/wpa_supplicant/src/rsn_supp\pmksa_cache.c **** struct rsn_pmksa_cache_entry *
 462:C:/Users/stapi/OneDrive/Desktop/GD32VW553/V1_MQTT_OK/GD32VW55X_Wifi_BLE_SDK/GD32VW55x_RELEASE_V1.0.2/MSDK/wpa_supplicant/src/rsn_supp\pmksa_cache.c **** pmksa_cache_get_opportunistic(struct rsn_pmksa_cache *pmksa, void *network_ctx,
 463:C:/Users/stapi/OneDrive/Desktop/GD32VW553/V1_MQTT_OK/GD32VW55X_Wifi_BLE_SDK/GD32VW55x_RELEASE_V1.0.2/MSDK/wpa_supplicant/src/rsn_supp\pmksa_cache.c **** 			      const u8 *aa, int akmp)
 464:C:/Users/stapi/OneDrive/Desktop/GD32VW553/V1_MQTT_OK/GD32VW55X_Wifi_BLE_SDK/GD32VW55x_RELEASE_V1.0.2/MSDK/wpa_supplicant/src/rsn_supp\pmksa_cache.c **** {
 1390              		.loc 1 464 1 is_stmt 1
 1391              		.cfi_startproc
 1392              	.LVL135:
 1393 0000 17030000 		call	t0,__riscv_save_7
 1393      E7020300 
 1394              		.cfi_offset 22, -32
 1395              		.cfi_offset 21, -28
 1396              		.cfi_offset 20, -24
 1397              		.cfi_offset 19, -20
 1398              		.cfi_offset 18, -16
 1399              		.cfi_offset 9, -12
 1400              		.cfi_offset 8, -8
 1401              		.cfi_offset 1, -4
 1402              		.cfi_def_cfa_offset 32
 465:C:/Users/stapi/OneDrive/Desktop/GD32VW553/V1_MQTT_OK/GD32VW55X_Wifi_BLE_SDK/GD32VW55x_RELEASE_V1.0.2/MSDK/wpa_supplicant/src/rsn_supp\pmksa_cache.c **** 	struct rsn_pmksa_cache_entry *entry = pmksa->pmksa;
 1403              		.loc 1 465 2
 466:C:/Users/stapi/OneDrive/Desktop/GD32VW553/V1_MQTT_OK/GD32VW55X_Wifi_BLE_SDK/GD32VW55x_RELEASE_V1.0.2/MSDK/wpa_supplicant/src/rsn_supp\pmksa_cache.c **** 
 467:C:/Users/stapi/OneDrive/Desktop/GD32VW553/V1_MQTT_OK/GD32VW55X_Wifi_BLE_SDK/GD32VW55x_RELEASE_V1.0.2/MSDK/wpa_supplicant/src/rsn_supp\pmksa_cache.c **** 	wpa_printf(MSG_DEBUG, "RSN: Consider " MACSTR " for OKC", MAC2STR(aa));
 1404              		.loc 1 467 2 is_stmt 0
 1405 0008 83485600 		lbu	a7,5(a2)
 1406 000c 03484600 		lbu	a6,4(a2)
 1407 0010 83473600 		lbu	a5,3(a2)
 1408 0014 03472600 		lbu	a4,2(a2)
 464:C:/Users/stapi/OneDrive/Desktop/GD32VW553/V1_MQTT_OK/GD32VW55X_Wifi_BLE_SDK/GD32VW55x_RELEASE_V1.0.2/MSDK/wpa_supplicant/src/rsn_supp\pmksa_cache.c **** 	struct rsn_pmksa_cache_entry *entry = pmksa->pmksa;
 1409              		.loc 1 464 1
 1410 0018 B284     		mv	s1,a2
 1411 001a 368A     		mv	s4,a3
 1412              		.loc 1 467 2
 1413 001c 83461600 		lbu	a3,1(a2)
 1414              	.LVL136:
 1415 0020 03460600 		lbu	a2,0(a2)
 1416              	.LVL137:
 464:C:/Users/stapi/OneDrive/Desktop/GD32VW553/V1_MQTT_OK/GD32VW55X_Wifi_BLE_SDK/GD32VW55x_RELEASE_V1.0.2/MSDK/wpa_supplicant/src/rsn_supp\pmksa_cache.c **** 	struct rsn_pmksa_cache_entry *entry = pmksa->pmksa;
 1417              		.loc 1 464 1
 1418 0024 AE89     		mv	s3,a1
 1419              		.loc 1 467 2
 1420 0026 B7050000 		lui	a1,%hi(.LC7)
 1421              	.LVL138:
 465:C:/Users/stapi/OneDrive/Desktop/GD32VW553/V1_MQTT_OK/GD32VW55X_Wifi_BLE_SDK/GD32VW55x_RELEASE_V1.0.2/MSDK/wpa_supplicant/src/rsn_supp\pmksa_cache.c **** 	struct rsn_pmksa_cache_entry *entry = pmksa->pmksa;
 1422              		.loc 1 465 32
 1423 002a 0041     		lw	s0,0(a0)
 1424              	.LVL139:
 1425              		.loc 1 467 2 is_stmt 1
 464:C:/Users/stapi/OneDrive/Desktop/GD32VW553/V1_MQTT_OK/GD32VW55X_Wifi_BLE_SDK/GD32VW55x_RELEASE_V1.0.2/MSDK/wpa_supplicant/src/rsn_supp\pmksa_cache.c **** 	struct rsn_pmksa_cache_entry *entry = pmksa->pmksa;
 1426              		.loc 1 464 1 is_stmt 0
 1427 002c 0111     		addi	sp,sp,-32
 1428              		.cfi_def_cfa_offset 64
 464:C:/Users/stapi/OneDrive/Desktop/GD32VW553/V1_MQTT_OK/GD32VW55X_Wifi_BLE_SDK/GD32VW55x_RELEASE_V1.0.2/MSDK/wpa_supplicant/src/rsn_supp\pmksa_cache.c **** 	struct rsn_pmksa_cache_entry *entry = pmksa->pmksa;
 1429              		.loc 1 464 1
 1430 002e 2A89     		mv	s2,a0
 1431              		.loc 1 467 2
 1432 0030 93850500 		addi	a1,a1,%lo(.LC7)
 1433 0034 0945     		li	a0,2
 1434              	.LVL140:
 1435 0036 97000000 		call	wpa_printf
 1435      E7800000 
 1436              	.LVL141:
 468:C:/Users/stapi/OneDrive/Desktop/GD32VW553/V1_MQTT_OK/GD32VW55X_Wifi_BLE_SDK/GD32VW55x_RELEASE_V1.0.2/MSDK/wpa_supplicant/src/rsn_supp\pmksa_cache.c **** 	if (network_ctx == NULL)
 1437              		.loc 1 468 2 is_stmt 1
 1438              		.loc 1 468 5 is_stmt 0
 1439 003e 63880900 		beq	s3,zero,.L166
 1440              	.LBB85:
 1441              	.LBB86:
 1442              	.LBB87:
 113:..\..\..\..\wpa_supplicant\src/common/defs.h **** 			 WPA_KEY_MGMT_FT_SAE));
 1443              		.loc 4 113 16
 1444 0042 856A     		li	s5,4096
 1445 0044 938A0AC0 		addi	s5,s5,-1024
 1446              	.LBE87:
 1447              	.LBE86:
 469:C:/Users/stapi/OneDrive/Desktop/GD32VW553/V1_MQTT_OK/GD32VW55X_Wifi_BLE_SDK/GD32VW55x_RELEASE_V1.0.2/MSDK/wpa_supplicant/src/rsn_supp\pmksa_cache.c **** 		return NULL;
 470:C:/Users/stapi/OneDrive/Desktop/GD32VW553/V1_MQTT_OK/GD32VW55X_Wifi_BLE_SDK/GD32VW55x_RELEASE_V1.0.2/MSDK/wpa_supplicant/src/rsn_supp\pmksa_cache.c **** 	while (entry) {
 471:C:/Users/stapi/OneDrive/Desktop/GD32VW553/V1_MQTT_OK/GD32VW55X_Wifi_BLE_SDK/GD32VW55x_RELEASE_V1.0.2/MSDK/wpa_supplicant/src/rsn_supp\pmksa_cache.c **** 		if (entry->network_ctx == network_ctx &&
 472:C:/Users/stapi/OneDrive/Desktop/GD32VW553/V1_MQTT_OK/GD32VW55X_Wifi_BLE_SDK/GD32VW55x_RELEASE_V1.0.2/MSDK/wpa_supplicant/src/rsn_supp\pmksa_cache.c **** 		    (!akmp || entry->akmp == akmp)) {
 473:C:/Users/stapi/OneDrive/Desktop/GD32VW553/V1_MQTT_OK/GD32VW55X_Wifi_BLE_SDK/GD32VW55x_RELEASE_V1.0.2/MSDK/wpa_supplicant/src/rsn_supp\pmksa_cache.c **** 			struct os_reltime now;
 474:C:/Users/stapi/OneDrive/Desktop/GD32VW553/V1_MQTT_OK/GD32VW55X_Wifi_BLE_SDK/GD32VW55x_RELEASE_V1.0.2/MSDK/wpa_supplicant/src/rsn_supp\pmksa_cache.c **** 
 475:C:/Users/stapi/OneDrive/Desktop/GD32VW553/V1_MQTT_OK/GD32VW55X_Wifi_BLE_SDK/GD32VW55x_RELEASE_V1.0.2/MSDK/wpa_supplicant/src/rsn_supp\pmksa_cache.c **** 			if (wpa_key_mgmt_sae(entry->akmp) &&
 476:C:/Users/stapi/OneDrive/Desktop/GD32VW553/V1_MQTT_OK/GD32VW55X_Wifi_BLE_SDK/GD32VW55x_RELEASE_V1.0.2/MSDK/wpa_supplicant/src/rsn_supp\pmksa_cache.c **** 			    os_get_reltime(&now) == 0 &&
 477:C:/Users/stapi/OneDrive/Desktop/GD32VW553/V1_MQTT_OK/GD32VW55X_Wifi_BLE_SDK/GD32VW55x_RELEASE_V1.0.2/MSDK/wpa_supplicant/src/rsn_supp\pmksa_cache.c **** 			    entry->reauth_time < now.sec) {
 478:C:/Users/stapi/OneDrive/Desktop/GD32VW553/V1_MQTT_OK/GD32VW55X_Wifi_BLE_SDK/GD32VW55x_RELEASE_V1.0.2/MSDK/wpa_supplicant/src/rsn_supp\pmksa_cache.c **** 				wpa_printf(MSG_DEBUG,
 1448              		.loc 1 478 5
 1449 0048 370B0000 		lui	s6,%hi(.LC8)
 1450              	.L156:
 1451              	.LBE85:
 470:C:/Users/stapi/OneDrive/Desktop/GD32VW553/V1_MQTT_OK/GD32VW55X_Wifi_BLE_SDK/GD32VW55x_RELEASE_V1.0.2/MSDK/wpa_supplicant/src/rsn_supp\pmksa_cache.c **** 		if (entry->network_ctx == network_ctx &&
 1452              		.loc 1 470 8 is_stmt 1
 1453 004c 01E8     		bne	s0,zero,.L165
 1454              	.L166:
 469:C:/Users/stapi/OneDrive/Desktop/GD32VW553/V1_MQTT_OK/GD32VW55X_Wifi_BLE_SDK/GD32VW55x_RELEASE_V1.0.2/MSDK/wpa_supplicant/src/rsn_supp\pmksa_cache.c **** 		return NULL;
 1455              		.loc 1 469 10 is_stmt 0
 1456 004e 0144     		li	s0,0
 1457              	.LVL142:
 1458              	.L155:
 479:C:/Users/stapi/OneDrive/Desktop/GD32VW553/V1_MQTT_OK/GD32VW55X_Wifi_BLE_SDK/GD32VW55x_RELEASE_V1.0.2/MSDK/wpa_supplicant/src/rsn_supp\pmksa_cache.c **** 					   "RSN: Do not clone PMKSA cache entry for "
 480:C:/Users/stapi/OneDrive/Desktop/GD32VW553/V1_MQTT_OK/GD32VW55X_Wifi_BLE_SDK/GD32VW55x_RELEASE_V1.0.2/MSDK/wpa_supplicant/src/rsn_supp\pmksa_cache.c **** 					   MACSTR
 481:C:/Users/stapi/OneDrive/Desktop/GD32VW553/V1_MQTT_OK/GD32VW55X_Wifi_BLE_SDK/GD32VW55x_RELEASE_V1.0.2/MSDK/wpa_supplicant/src/rsn_supp\pmksa_cache.c **** 					   " since its reauth threshold has passed",
 482:C:/Users/stapi/OneDrive/Desktop/GD32VW553/V1_MQTT_OK/GD32VW55X_Wifi_BLE_SDK/GD32VW55x_RELEASE_V1.0.2/MSDK/wpa_supplicant/src/rsn_supp\pmksa_cache.c **** 					   MAC2STR(entry->aa));
 483:C:/Users/stapi/OneDrive/Desktop/GD32VW553/V1_MQTT_OK/GD32VW55X_Wifi_BLE_SDK/GD32VW55x_RELEASE_V1.0.2/MSDK/wpa_supplicant/src/rsn_supp\pmksa_cache.c **** 				entry = entry->next;
 484:C:/Users/stapi/OneDrive/Desktop/GD32VW553/V1_MQTT_OK/GD32VW55X_Wifi_BLE_SDK/GD32VW55x_RELEASE_V1.0.2/MSDK/wpa_supplicant/src/rsn_supp\pmksa_cache.c **** 				continue;
 485:C:/Users/stapi/OneDrive/Desktop/GD32VW553/V1_MQTT_OK/GD32VW55X_Wifi_BLE_SDK/GD32VW55x_RELEASE_V1.0.2/MSDK/wpa_supplicant/src/rsn_supp\pmksa_cache.c **** 			}
 486:C:/Users/stapi/OneDrive/Desktop/GD32VW553/V1_MQTT_OK/GD32VW55X_Wifi_BLE_SDK/GD32VW55x_RELEASE_V1.0.2/MSDK/wpa_supplicant/src/rsn_supp\pmksa_cache.c **** 
 487:C:/Users/stapi/OneDrive/Desktop/GD32VW553/V1_MQTT_OK/GD32VW55X_Wifi_BLE_SDK/GD32VW55x_RELEASE_V1.0.2/MSDK/wpa_supplicant/src/rsn_supp\pmksa_cache.c **** 			entry = pmksa_cache_clone_entry(pmksa, entry, aa);
 488:C:/Users/stapi/OneDrive/Desktop/GD32VW553/V1_MQTT_OK/GD32VW55X_Wifi_BLE_SDK/GD32VW55x_RELEASE_V1.0.2/MSDK/wpa_supplicant/src/rsn_supp\pmksa_cache.c **** 			if (entry) {
 489:C:/Users/stapi/OneDrive/Desktop/GD32VW553/V1_MQTT_OK/GD32VW55X_Wifi_BLE_SDK/GD32VW55x_RELEASE_V1.0.2/MSDK/wpa_supplicant/src/rsn_supp\pmksa_cache.c **** 				wpa_printf(MSG_DEBUG, "RSN: added "
 490:C:/Users/stapi/OneDrive/Desktop/GD32VW553/V1_MQTT_OK/GD32VW55X_Wifi_BLE_SDK/GD32VW55x_RELEASE_V1.0.2/MSDK/wpa_supplicant/src/rsn_supp\pmksa_cache.c **** 					   "opportunistic PMKSA cache entry "
 491:C:/Users/stapi/OneDrive/Desktop/GD32VW553/V1_MQTT_OK/GD32VW55X_Wifi_BLE_SDK/GD32VW55x_RELEASE_V1.0.2/MSDK/wpa_supplicant/src/rsn_supp\pmksa_cache.c **** 					   "for " MACSTR, MAC2STR(aa));
 492:C:/Users/stapi/OneDrive/Desktop/GD32VW553/V1_MQTT_OK/GD32VW55X_Wifi_BLE_SDK/GD32VW55x_RELEASE_V1.0.2/MSDK/wpa_supplicant/src/rsn_supp\pmksa_cache.c **** 			}
 493:C:/Users/stapi/OneDrive/Desktop/GD32VW553/V1_MQTT_OK/GD32VW55X_Wifi_BLE_SDK/GD32VW55x_RELEASE_V1.0.2/MSDK/wpa_supplicant/src/rsn_supp\pmksa_cache.c **** 			return entry;
 494:C:/Users/stapi/OneDrive/Desktop/GD32VW553/V1_MQTT_OK/GD32VW55X_Wifi_BLE_SDK/GD32VW55x_RELEASE_V1.0.2/MSDK/wpa_supplicant/src/rsn_supp\pmksa_cache.c **** 		}
 495:C:/Users/stapi/OneDrive/Desktop/GD32VW553/V1_MQTT_OK/GD32VW55X_Wifi_BLE_SDK/GD32VW55x_RELEASE_V1.0.2/MSDK/wpa_supplicant/src/rsn_supp\pmksa_cache.c **** 		entry = entry->next;
 496:C:/Users/stapi/OneDrive/Desktop/GD32VW553/V1_MQTT_OK/GD32VW55X_Wifi_BLE_SDK/GD32VW55x_RELEASE_V1.0.2/MSDK/wpa_supplicant/src/rsn_supp\pmksa_cache.c **** 	}
 497:C:/Users/stapi/OneDrive/Desktop/GD32VW553/V1_MQTT_OK/GD32VW55X_Wifi_BLE_SDK/GD32VW55x_RELEASE_V1.0.2/MSDK/wpa_supplicant/src/rsn_supp\pmksa_cache.c **** 	return NULL;
 498:C:/Users/stapi/OneDrive/Desktop/GD32VW553/V1_MQTT_OK/GD32VW55X_Wifi_BLE_SDK/GD32VW55x_RELEASE_V1.0.2/MSDK/wpa_supplicant/src/rsn_supp\pmksa_cache.c **** }
 1459              		.loc 1 498 1
 1460 0050 2285     		mv	a0,s0
 1461 0052 0561     		addi	sp,sp,32
 1462              		.cfi_remember_state
 1463              		.cfi_def_cfa_offset 0
 1464 0054 17030000 		tail	__riscv_restore_7
 1464      67000300 
 1465              		.cfi_restore 22
 1466              		.cfi_restore 21
 1467              		.cfi_restore 20
 1468              		.cfi_restore 19
 1469              		.cfi_restore 18
 1470              		.cfi_restore 9
 1471              		.cfi_restore 8
 1472              		.cfi_restore 1
 1473              		.cfi_def_cfa_offset -32
 1474              	.LVL143:
 1475              	.L165:
 1476              		.cfi_restore_state
 471:C:/Users/stapi/OneDrive/Desktop/GD32VW553/V1_MQTT_OK/GD32VW55X_Wifi_BLE_SDK/GD32VW55x_RELEASE_V1.0.2/MSDK/wpa_supplicant/src/rsn_supp\pmksa_cache.c **** 		    (!akmp || entry->akmp == akmp)) {
 1477              		.loc 1 471 3 is_stmt 1
 471:C:/Users/stapi/OneDrive/Desktop/GD32VW553/V1_MQTT_OK/GD32VW55X_Wifi_BLE_SDK/GD32VW55x_RELEASE_V1.0.2/MSDK/wpa_supplicant/src/rsn_supp\pmksa_cache.c **** 		    (!akmp || entry->akmp == akmp)) {
 1478              		.loc 1 471 6 is_stmt 0
 1479 005c 3C58     		lw	a5,112(s0)
 1480 005e 63973705 		bne	a5,s3,.L158
 472:C:/Users/stapi/OneDrive/Desktop/GD32VW553/V1_MQTT_OK/GD32VW55X_Wifi_BLE_SDK/GD32VW55x_RELEASE_V1.0.2/MSDK/wpa_supplicant/src/rsn_supp\pmksa_cache.c **** 			struct os_reltime now;
 1481              		.loc 1 472 22 discriminator 1
 1482 0062 7C4C     		lw	a5,92(s0)
 471:C:/Users/stapi/OneDrive/Desktop/GD32VW553/V1_MQTT_OK/GD32VW55X_Wifi_BLE_SDK/GD32VW55x_RELEASE_V1.0.2/MSDK/wpa_supplicant/src/rsn_supp\pmksa_cache.c **** 		    (!akmp || entry->akmp == akmp)) {
 1483              		.loc 1 471 41 discriminator 1
 1484 0064 63040A00 		beq	s4,zero,.L159
 472:C:/Users/stapi/OneDrive/Desktop/GD32VW553/V1_MQTT_OK/GD32VW55X_Wifi_BLE_SDK/GD32VW55x_RELEASE_V1.0.2/MSDK/wpa_supplicant/src/rsn_supp\pmksa_cache.c **** 			struct os_reltime now;
 1485              		.loc 1 472 14
 1486 0068 6312FA04 		bne	s4,a5,.L158
 1487              	.L159:
 1488              	.LBB96:
 473:C:/Users/stapi/OneDrive/Desktop/GD32VW553/V1_MQTT_OK/GD32VW55X_Wifi_BLE_SDK/GD32VW55x_RELEASE_V1.0.2/MSDK/wpa_supplicant/src/rsn_supp\pmksa_cache.c **** 
 1489              		.loc 1 473 4 is_stmt 1
 475:C:/Users/stapi/OneDrive/Desktop/GD32VW553/V1_MQTT_OK/GD32VW55X_Wifi_BLE_SDK/GD32VW55x_RELEASE_V1.0.2/MSDK/wpa_supplicant/src/rsn_supp\pmksa_cache.c **** 			    os_get_reltime(&now) == 0 &&
 1490              		.loc 1 475 4
 1491              	.LVL144:
 1492              	.LBB89:
 1493              	.LBB88:
 113:..\..\..\..\wpa_supplicant\src/common/defs.h **** 			 WPA_KEY_MGMT_FT_SAE));
 1494              		.loc 4 113 2
 113:..\..\..\..\wpa_supplicant\src/common/defs.h **** 			 WPA_KEY_MGMT_FT_SAE));
 1495              		.loc 4 113 16 is_stmt 0
 1496 006c B3F75701 		and	a5,a5,s5
 1497              	.LBE88:
 1498              	.LBE89:
 475:C:/Users/stapi/OneDrive/Desktop/GD32VW553/V1_MQTT_OK/GD32VW55X_Wifi_BLE_SDK/GD32VW55x_RELEASE_V1.0.2/MSDK/wpa_supplicant/src/rsn_supp\pmksa_cache.c **** 			    os_get_reltime(&now) == 0 &&
 1499              		.loc 1 475 7
 1500 0070 A1C3     		beq	a5,zero,.L160
 476:C:/Users/stapi/OneDrive/Desktop/GD32VW553/V1_MQTT_OK/GD32VW55X_Wifi_BLE_SDK/GD32VW55x_RELEASE_V1.0.2/MSDK/wpa_supplicant/src/rsn_supp\pmksa_cache.c **** 			    entry->reauth_time < now.sec) {
 1501              		.loc 1 476 8 discriminator 1
 1502 0072 2808     		addi	a0,sp,24
 1503 0074 97000000 		call	os_get_reltime
 1503      E7800000 
 1504              	.LVL145:
 475:C:/Users/stapi/OneDrive/Desktop/GD32VW553/V1_MQTT_OK/GD32VW55X_Wifi_BLE_SDK/GD32VW55x_RELEASE_V1.0.2/MSDK/wpa_supplicant/src/rsn_supp\pmksa_cache.c **** 			    os_get_reltime(&now) == 0 &&
 1505              		.loc 1 475 38 discriminator 1
 1506 007c 15E9     		bne	a0,zero,.L160
 476:C:/Users/stapi/OneDrive/Desktop/GD32VW553/V1_MQTT_OK/GD32VW55X_Wifi_BLE_SDK/GD32VW55x_RELEASE_V1.0.2/MSDK/wpa_supplicant/src/rsn_supp\pmksa_cache.c **** 			    entry->reauth_time < now.sec) {
 1507              		.loc 1 476 34
 1508 007e 7854     		lw	a4,108(s0)
 1509 0080 E247     		lw	a5,24(sp)
 1510 0082 6357F702 		bge	a4,a5,.L160
 478:C:/Users/stapi/OneDrive/Desktop/GD32VW553/V1_MQTT_OK/GD32VW55X_Wifi_BLE_SDK/GD32VW55x_RELEASE_V1.0.2/MSDK/wpa_supplicant/src/rsn_supp\pmksa_cache.c **** 					   "RSN: Do not clone PMKSA cache entry for "
 1511              		.loc 1 478 5 is_stmt 1
 1512 0086 83485406 		lbu	a7,101(s0)
 1513 008a 03484406 		lbu	a6,100(s0)
 1514 008e 83473406 		lbu	a5,99(s0)
 1515 0092 03472406 		lbu	a4,98(s0)
 1516 0096 83461406 		lbu	a3,97(s0)
 1517 009a 03460406 		lbu	a2,96(s0)
 1518 009e 93050B00 		addi	a1,s6,%lo(.LC8)
 1519 00a2 0945     		li	a0,2
 1520 00a4 97000000 		call	wpa_printf
 1520      E7800000 
 1521              	.LVL146:
 483:C:/Users/stapi/OneDrive/Desktop/GD32VW553/V1_MQTT_OK/GD32VW55X_Wifi_BLE_SDK/GD32VW55x_RELEASE_V1.0.2/MSDK/wpa_supplicant/src/rsn_supp\pmksa_cache.c **** 				continue;
 1522              		.loc 1 483 5
 1523              	.L158:
 1524              	.LBE96:
 495:C:/Users/stapi/OneDrive/Desktop/GD32VW553/V1_MQTT_OK/GD32VW55X_Wifi_BLE_SDK/GD32VW55x_RELEASE_V1.0.2/MSDK/wpa_supplicant/src/rsn_supp\pmksa_cache.c **** 	}
 1525              		.loc 1 495 3
 495:C:/Users/stapi/OneDrive/Desktop/GD32VW553/V1_MQTT_OK/GD32VW55X_Wifi_BLE_SDK/GD32VW55x_RELEASE_V1.0.2/MSDK/wpa_supplicant/src/rsn_supp\pmksa_cache.c **** 	}
 1526              		.loc 1 495 9 is_stmt 0
 1527 00ac 0040     		lw	s0,0(s0)
 1528              	.LVL147:
 1529 00ae 79BF     		j	.L156
 1530              	.L160:
 1531              	.LBB97:
 487:C:/Users/stapi/OneDrive/Desktop/GD32VW553/V1_MQTT_OK/GD32VW55X_Wifi_BLE_SDK/GD32VW55x_RELEASE_V1.0.2/MSDK/wpa_supplicant/src/rsn_supp\pmksa_cache.c **** 			if (entry) {
 1532              		.loc 1 487 4 is_stmt 1
 1533              	.LVL148:
 1534              	.LBB90:
 1535              	.LBB91:
 423:C:/Users/stapi/OneDrive/Desktop/GD32VW553/V1_MQTT_OK/GD32VW55X_Wifi_BLE_SDK/GD32VW55x_RELEASE_V1.0.2/MSDK/wpa_supplicant/src/rsn_supp\pmksa_cache.c **** 	os_time_t old_expiration = old_entry->expiration;
 1536              		.loc 1 423 2
 424:C:/Users/stapi/OneDrive/Desktop/GD32VW553/V1_MQTT_OK/GD32VW55X_Wifi_BLE_SDK/GD32VW55x_RELEASE_V1.0.2/MSDK/wpa_supplicant/src/rsn_supp\pmksa_cache.c **** 	os_time_t old_reauth_time = old_entry->reauth_time;
 1537              		.loc 1 424 2
 428:C:/Users/stapi/OneDrive/Desktop/GD32VW553/V1_MQTT_OK/GD32VW55X_Wifi_BLE_SDK/GD32VW55x_RELEASE_V1.0.2/MSDK/wpa_supplicant/src/rsn_supp\pmksa_cache.c **** 	    wpa_key_mgmt_fils(old_entry->akmp))
 1538              		.loc 1 428 6 is_stmt 0
 1539 00b0 784C     		lw	a4,92(s0)
 428:C:/Users/stapi/OneDrive/Desktop/GD32VW553/V1_MQTT_OK/GD32VW55X_Wifi_BLE_SDK/GD32VW55x_RELEASE_V1.0.2/MSDK/wpa_supplicant/src/rsn_supp\pmksa_cache.c **** 	    wpa_key_mgmt_fils(old_entry->akmp))
 1540              		.loc 1 428 40
 1541 00b2 B7173C00 		li	a5,3936256
 1542 00b6 938707C0 		addi	a5,a5,-1024
 1543 00ba F98F     		and	a5,a4,a5
 424:C:/Users/stapi/OneDrive/Desktop/GD32VW553/V1_MQTT_OK/GD32VW55X_Wifi_BLE_SDK/GD32VW55x_RELEASE_V1.0.2/MSDK/wpa_supplicant/src/rsn_supp\pmksa_cache.c **** 	os_time_t old_reauth_time = old_entry->reauth_time;
 1544              		.loc 1 424 12
 1545 00bc 032A8405 		lw	s4,88(s0)
 1546              	.LVL149:
 425:C:/Users/stapi/OneDrive/Desktop/GD32VW553/V1_MQTT_OK/GD32VW55X_Wifi_BLE_SDK/GD32VW55x_RELEASE_V1.0.2/MSDK/wpa_supplicant/src/rsn_supp\pmksa_cache.c **** 	const u8 *pmkid = NULL;
 1547              		.loc 1 425 2 is_stmt 1
 425:C:/Users/stapi/OneDrive/Desktop/GD32VW553/V1_MQTT_OK/GD32VW55X_Wifi_BLE_SDK/GD32VW55x_RELEASE_V1.0.2/MSDK/wpa_supplicant/src/rsn_supp\pmksa_cache.c **** 	const u8 *pmkid = NULL;
 1548              		.loc 1 425 12 is_stmt 0
 1549 00c0 8329C406 		lw	s3,108(s0)
 1550              	.LVL150:
 426:C:/Users/stapi/OneDrive/Desktop/GD32VW553/V1_MQTT_OK/GD32VW55X_Wifi_BLE_SDK/GD32VW55x_RELEASE_V1.0.2/MSDK/wpa_supplicant/src/rsn_supp\pmksa_cache.c **** 
 1551              		.loc 1 426 2 is_stmt 1
 428:C:/Users/stapi/OneDrive/Desktop/GD32VW553/V1_MQTT_OK/GD32VW55X_Wifi_BLE_SDK/GD32VW55x_RELEASE_V1.0.2/MSDK/wpa_supplicant/src/rsn_supp\pmksa_cache.c **** 	    wpa_key_mgmt_fils(old_entry->akmp))
 1552              		.loc 1 428 2
 1553              	.LBB92:
 1554              	.LBB93:
 113:..\..\..\..\wpa_supplicant\src/common/defs.h **** 			 WPA_KEY_MGMT_FT_SAE));
 1555              		.loc 4 113 2
 1556              	.LBE93:
 1557              	.LBE92:
 1558              	.LBE91:
 1559              	.LBE90:
 1560              	.LBE97:
 119:..\..\..\..\wpa_supplicant\src/common/defs.h **** 			 WPA_KEY_MGMT_FILS_SHA384 |
 1561              		.loc 4 119 2
 1562              	.LBB98:
 1563              	.LBB95:
 1564              	.LBB94:
 426:C:/Users/stapi/OneDrive/Desktop/GD32VW553/V1_MQTT_OK/GD32VW55X_Wifi_BLE_SDK/GD32VW55x_RELEASE_V1.0.2/MSDK/wpa_supplicant/src/rsn_supp\pmksa_cache.c **** 
 1565              		.loc 1 426 12 is_stmt 0
 1566 00c4 8146     		li	a3,0
 428:C:/Users/stapi/OneDrive/Desktop/GD32VW553/V1_MQTT_OK/GD32VW55X_Wifi_BLE_SDK/GD32VW55x_RELEASE_V1.0.2/MSDK/wpa_supplicant/src/rsn_supp\pmksa_cache.c **** 	    wpa_key_mgmt_fils(old_entry->akmp))
 1567              		.loc 1 428 40
 1568 00c6 99C3     		beq	a5,zero,.L162
 430:C:/Users/stapi/OneDrive/Desktop/GD32VW553/V1_MQTT_OK/GD32VW55X_Wifi_BLE_SDK/GD32VW55x_RELEASE_V1.0.2/MSDK/wpa_supplicant/src/rsn_supp\pmksa_cache.c **** 	new_entry = pmksa_cache_add(pmksa, old_entry->pmk, old_entry->pmk_len,
 1569              		.loc 1 430 3 is_stmt 1
 430:C:/Users/stapi/OneDrive/Desktop/GD32VW553/V1_MQTT_OK/GD32VW55X_Wifi_BLE_SDK/GD32VW55x_RELEASE_V1.0.2/MSDK/wpa_supplicant/src/rsn_supp\pmksa_cache.c **** 	new_entry = pmksa_cache_add(pmksa, old_entry->pmk, old_entry->pmk_len,
 1570              		.loc 1 430 9 is_stmt 0
 1571 00c8 93064400 		addi	a3,s0,4
 1572              	.LVL151:
 1573              	.L162:
 431:C:/Users/stapi/OneDrive/Desktop/GD32VW553/V1_MQTT_OK/GD32VW55X_Wifi_BLE_SDK/GD32VW55x_RELEASE_V1.0.2/MSDK/wpa_supplicant/src/rsn_supp\pmksa_cache.c **** 				    pmkid, NULL, 0,
 1574              		.loc 1 431 2 is_stmt 1
 435:C:/Users/stapi/OneDrive/Desktop/GD32VW553/V1_MQTT_OK/GD32VW55X_Wifi_BLE_SDK/GD32VW55x_RELEASE_V1.0.2/MSDK/wpa_supplicant/src/rsn_supp\pmksa_cache.c **** 				    old_entry->fils_cache_id : NULL);
 1575              		.loc 1 435 38 is_stmt 0
 1576 00cc 83478406 		lbu	a5,104(s0)
 433:C:/Users/stapi/OneDrive/Desktop/GD32VW553/V1_MQTT_OK/GD32VW55X_Wifi_BLE_SDK/GD32VW55x_RELEASE_V1.0.2/MSDK/wpa_supplicant/src/rsn_supp\pmksa_cache.c **** 				    old_entry->network_ctx, old_entry->akmp,
 1577              		.loc 1 433 22
 1578 00d0 83288900 		lw	a7,8(s2)
 431:C:/Users/stapi/OneDrive/Desktop/GD32VW553/V1_MQTT_OK/GD32VW55X_Wifi_BLE_SDK/GD32VW55x_RELEASE_V1.0.2/MSDK/wpa_supplicant/src/rsn_supp\pmksa_cache.c **** 				    pmkid, NULL, 0,
 1579              		.loc 1 431 14
 1580 00d4 7048     		lw	a2,84(s0)
 1581 00d6 858B     		andi	a5,a5,1
 1582 00d8 03280407 		lw	a6,112(s0)
 431:C:/Users/stapi/OneDrive/Desktop/GD32VW553/V1_MQTT_OK/GD32VW55X_Wifi_BLE_SDK/GD32VW55x_RELEASE_V1.0.2/MSDK/wpa_supplicant/src/rsn_supp\pmksa_cache.c **** 				    pmkid, NULL, 0,
 1583              		.loc 1 431 46
 1584 00dc 93054401 		addi	a1,s0,20
 433:C:/Users/stapi/OneDrive/Desktop/GD32VW553/V1_MQTT_OK/GD32VW55X_Wifi_BLE_SDK/GD32VW55x_RELEASE_V1.0.2/MSDK/wpa_supplicant/src/rsn_supp\pmksa_cache.c **** 				    old_entry->network_ctx, old_entry->akmp,
 1585              		.loc 1 433 22
 1586 00e0 9388D844 		addi	a7,a7,1101
 431:C:/Users/stapi/OneDrive/Desktop/GD32VW553/V1_MQTT_OK/GD32VW55X_Wifi_BLE_SDK/GD32VW55x_RELEASE_V1.0.2/MSDK/wpa_supplicant/src/rsn_supp\pmksa_cache.c **** 				    pmkid, NULL, 0,
 1587              		.loc 1 431 14
 1588 00e4 0145     		li	a0,0
 1589 00e6 99C3     		beq	a5,zero,.L163
 1590 00e8 13056406 		addi	a0,s0,102
 1591              	.L163:
 1592 00ec 2AC4     		sw	a0,8(sp)
 1593 00ee 3AC2     		sw	a4,4(sp)
 1594 00f0 42C0     		sw	a6,0(sp)
 1595 00f2 8147     		li	a5,0
 1596 00f4 2688     		mv	a6,s1
 1597 00f6 0147     		li	a4,0
 1598 00f8 4A85     		mv	a0,s2
 1599 00fa 97000000 		call	pmksa_cache_add
 1599      E7800000 
 1600              	.LVL152:
 1601 0102 2A84     		mv	s0,a0
 1602              	.LVL153:
 437:C:/Users/stapi/OneDrive/Desktop/GD32VW553/V1_MQTT_OK/GD32VW55X_Wifi_BLE_SDK/GD32VW55x_RELEASE_V1.0.2/MSDK/wpa_supplicant/src/rsn_supp\pmksa_cache.c **** 		return NULL;
 1603              		.loc 1 437 2 is_stmt 1
 437:C:/Users/stapi/OneDrive/Desktop/GD32VW553/V1_MQTT_OK/GD32VW55X_Wifi_BLE_SDK/GD32VW55x_RELEASE_V1.0.2/MSDK/wpa_supplicant/src/rsn_supp\pmksa_cache.c **** 		return NULL;
 1604              		.loc 1 437 5 is_stmt 0
 1605 0104 31D5     		beq	a0,zero,.L155
 441:C:/Users/stapi/OneDrive/Desktop/GD32VW553/V1_MQTT_OK/GD32VW55X_Wifi_BLE_SDK/GD32VW55x_RELEASE_V1.0.2/MSDK/wpa_supplicant/src/rsn_supp\pmksa_cache.c **** 	new_entry->reauth_time = old_reauth_time;
 1606              		.loc 1 441 2 is_stmt 1
 443:C:/Users/stapi/OneDrive/Desktop/GD32VW553/V1_MQTT_OK/GD32VW55X_Wifi_BLE_SDK/GD32VW55x_RELEASE_V1.0.2/MSDK/wpa_supplicant/src/rsn_supp\pmksa_cache.c **** 
 1607              		.loc 1 443 27 is_stmt 0
 1608 0106 8547     		li	a5,1
 441:C:/Users/stapi/OneDrive/Desktop/GD32VW553/V1_MQTT_OK/GD32VW55X_Wifi_BLE_SDK/GD32VW55x_RELEASE_V1.0.2/MSDK/wpa_supplicant/src/rsn_supp\pmksa_cache.c **** 	new_entry->reauth_time = old_reauth_time;
 1609              		.loc 1 441 24
 1610 0108 232C4505 		sw	s4,88(a0)
 442:C:/Users/stapi/OneDrive/Desktop/GD32VW553/V1_MQTT_OK/GD32VW55X_Wifi_BLE_SDK/GD32VW55x_RELEASE_V1.0.2/MSDK/wpa_supplicant/src/rsn_supp\pmksa_cache.c **** 	new_entry->opportunistic = 1;
 1611              		.loc 1 442 2 is_stmt 1
 442:C:/Users/stapi/OneDrive/Desktop/GD32VW553/V1_MQTT_OK/GD32VW55X_Wifi_BLE_SDK/GD32VW55x_RELEASE_V1.0.2/MSDK/wpa_supplicant/src/rsn_supp\pmksa_cache.c **** 	new_entry->opportunistic = 1;
 1612              		.loc 1 442 25 is_stmt 0
 1613 010c 23263507 		sw	s3,108(a0)
 443:C:/Users/stapi/OneDrive/Desktop/GD32VW553/V1_MQTT_OK/GD32VW55X_Wifi_BLE_SDK/GD32VW55x_RELEASE_V1.0.2/MSDK/wpa_supplicant/src/rsn_supp\pmksa_cache.c **** 
 1614              		.loc 1 443 2 is_stmt 1
 443:C:/Users/stapi/OneDrive/Desktop/GD32VW553/V1_MQTT_OK/GD32VW55X_Wifi_BLE_SDK/GD32VW55x_RELEASE_V1.0.2/MSDK/wpa_supplicant/src/rsn_supp\pmksa_cache.c **** 
 1615              		.loc 1 443 27 is_stmt 0
 1616 0110 7CD9     		sw	a5,116(a0)
 445:C:/Users/stapi/OneDrive/Desktop/GD32VW553/V1_MQTT_OK/GD32VW55X_Wifi_BLE_SDK/GD32VW55x_RELEASE_V1.0.2/MSDK/wpa_supplicant/src/rsn_supp\pmksa_cache.c **** }
 1617              		.loc 1 445 2 is_stmt 1
 1618              	.LVL154:
 1619              	.LBE94:
 1620              	.LBE95:
 488:C:/Users/stapi/OneDrive/Desktop/GD32VW553/V1_MQTT_OK/GD32VW55X_Wifi_BLE_SDK/GD32VW55x_RELEASE_V1.0.2/MSDK/wpa_supplicant/src/rsn_supp\pmksa_cache.c **** 				wpa_printf(MSG_DEBUG, "RSN: added "
 1621              		.loc 1 488 4
 489:C:/Users/stapi/OneDrive/Desktop/GD32VW553/V1_MQTT_OK/GD32VW55X_Wifi_BLE_SDK/GD32VW55x_RELEASE_V1.0.2/MSDK/wpa_supplicant/src/rsn_supp\pmksa_cache.c **** 					   "opportunistic PMKSA cache entry "
 1622              		.loc 1 489 5
 1623 0112 83C85400 		lbu	a7,5(s1)
 1624 0116 03C84400 		lbu	a6,4(s1)
 1625 011a 83C73400 		lbu	a5,3(s1)
 1626 011e 03C72400 		lbu	a4,2(s1)
 1627 0122 83C61400 		lbu	a3,1(s1)
 1628 0126 03C60400 		lbu	a2,0(s1)
 1629 012a B7050000 		lui	a1,%hi(.LC9)
 1630 012e 93850500 		addi	a1,a1,%lo(.LC9)
 1631 0132 0945     		li	a0,2
 1632 0134 97000000 		call	wpa_printf
 1632      E7800000 
 1633              	.LVL155:
 493:C:/Users/stapi/OneDrive/Desktop/GD32VW553/V1_MQTT_OK/GD32VW55X_Wifi_BLE_SDK/GD32VW55x_RELEASE_V1.0.2/MSDK/wpa_supplicant/src/rsn_supp\pmksa_cache.c **** 		}
 1634              		.loc 1 493 4
 1635 013c 11BF     		j	.L155
 1636              	.LBE98:
 1637              		.cfi_endproc
 1638              	.LFE170:
 1640              		.section	.text.pmksa_cache_get_current,"ax",@progbits
 1641              		.align	1
 1642              		.globl	pmksa_cache_get_current
 1644              	pmksa_cache_get_current:
 1645              	.LFB172:
 499:C:/Users/stapi/OneDrive/Desktop/GD32VW553/V1_MQTT_OK/GD32VW55X_Wifi_BLE_SDK/GD32VW55x_RELEASE_V1.0.2/MSDK/wpa_supplicant/src/rsn_supp\pmksa_cache.c **** 
 500:C:/Users/stapi/OneDrive/Desktop/GD32VW553/V1_MQTT_OK/GD32VW55X_Wifi_BLE_SDK/GD32VW55x_RELEASE_V1.0.2/MSDK/wpa_supplicant/src/rsn_supp\pmksa_cache.c **** 
 501:C:/Users/stapi/OneDrive/Desktop/GD32VW553/V1_MQTT_OK/GD32VW55X_Wifi_BLE_SDK/GD32VW55x_RELEASE_V1.0.2/MSDK/wpa_supplicant/src/rsn_supp\pmksa_cache.c **** static struct rsn_pmksa_cache_entry *
 502:C:/Users/stapi/OneDrive/Desktop/GD32VW553/V1_MQTT_OK/GD32VW55X_Wifi_BLE_SDK/GD32VW55x_RELEASE_V1.0.2/MSDK/wpa_supplicant/src/rsn_supp\pmksa_cache.c **** pmksa_cache_get_fils_cache_id(struct rsn_pmksa_cache *pmksa,
 503:C:/Users/stapi/OneDrive/Desktop/GD32VW553/V1_MQTT_OK/GD32VW55X_Wifi_BLE_SDK/GD32VW55x_RELEASE_V1.0.2/MSDK/wpa_supplicant/src/rsn_supp\pmksa_cache.c **** 			      const void *network_ctx, const u8 *cache_id)
 504:C:/Users/stapi/OneDrive/Desktop/GD32VW553/V1_MQTT_OK/GD32VW55X_Wifi_BLE_SDK/GD32VW55x_RELEASE_V1.0.2/MSDK/wpa_supplicant/src/rsn_supp\pmksa_cache.c **** {
 505:C:/Users/stapi/OneDrive/Desktop/GD32VW553/V1_MQTT_OK/GD32VW55X_Wifi_BLE_SDK/GD32VW55x_RELEASE_V1.0.2/MSDK/wpa_supplicant/src/rsn_supp\pmksa_cache.c **** 	struct rsn_pmksa_cache_entry *entry;
 506:C:/Users/stapi/OneDrive/Desktop/GD32VW553/V1_MQTT_OK/GD32VW55X_Wifi_BLE_SDK/GD32VW55x_RELEASE_V1.0.2/MSDK/wpa_supplicant/src/rsn_supp\pmksa_cache.c **** 
 507:C:/Users/stapi/OneDrive/Desktop/GD32VW553/V1_MQTT_OK/GD32VW55X_Wifi_BLE_SDK/GD32VW55x_RELEASE_V1.0.2/MSDK/wpa_supplicant/src/rsn_supp\pmksa_cache.c **** 	for (entry = pmksa->pmksa; entry; entry = entry->next) {
 508:C:/Users/stapi/OneDrive/Desktop/GD32VW553/V1_MQTT_OK/GD32VW55X_Wifi_BLE_SDK/GD32VW55x_RELEASE_V1.0.2/MSDK/wpa_supplicant/src/rsn_supp\pmksa_cache.c **** 		if (network_ctx == entry->network_ctx &&
 509:C:/Users/stapi/OneDrive/Desktop/GD32VW553/V1_MQTT_OK/GD32VW55X_Wifi_BLE_SDK/GD32VW55x_RELEASE_V1.0.2/MSDK/wpa_supplicant/src/rsn_supp\pmksa_cache.c **** 		    entry->fils_cache_id_set &&
 510:C:/Users/stapi/OneDrive/Desktop/GD32VW553/V1_MQTT_OK/GD32VW55X_Wifi_BLE_SDK/GD32VW55x_RELEASE_V1.0.2/MSDK/wpa_supplicant/src/rsn_supp\pmksa_cache.c **** 		    os_memcmp(cache_id, entry->fils_cache_id,
 511:C:/Users/stapi/OneDrive/Desktop/GD32VW553/V1_MQTT_OK/GD32VW55X_Wifi_BLE_SDK/GD32VW55x_RELEASE_V1.0.2/MSDK/wpa_supplicant/src/rsn_supp\pmksa_cache.c **** 			      FILS_CACHE_ID_LEN) == 0)
 512:C:/Users/stapi/OneDrive/Desktop/GD32VW553/V1_MQTT_OK/GD32VW55X_Wifi_BLE_SDK/GD32VW55x_RELEASE_V1.0.2/MSDK/wpa_supplicant/src/rsn_supp\pmksa_cache.c **** 			return entry;
 513:C:/Users/stapi/OneDrive/Desktop/GD32VW553/V1_MQTT_OK/GD32VW55X_Wifi_BLE_SDK/GD32VW55x_RELEASE_V1.0.2/MSDK/wpa_supplicant/src/rsn_supp\pmksa_cache.c **** 	}
 514:C:/Users/stapi/OneDrive/Desktop/GD32VW553/V1_MQTT_OK/GD32VW55X_Wifi_BLE_SDK/GD32VW55x_RELEASE_V1.0.2/MSDK/wpa_supplicant/src/rsn_supp\pmksa_cache.c **** 
 515:C:/Users/stapi/OneDrive/Desktop/GD32VW553/V1_MQTT_OK/GD32VW55X_Wifi_BLE_SDK/GD32VW55x_RELEASE_V1.0.2/MSDK/wpa_supplicant/src/rsn_supp\pmksa_cache.c **** 	return NULL;
 516:C:/Users/stapi/OneDrive/Desktop/GD32VW553/V1_MQTT_OK/GD32VW55X_Wifi_BLE_SDK/GD32VW55x_RELEASE_V1.0.2/MSDK/wpa_supplicant/src/rsn_supp\pmksa_cache.c **** }
 517:C:/Users/stapi/OneDrive/Desktop/GD32VW553/V1_MQTT_OK/GD32VW55X_Wifi_BLE_SDK/GD32VW55x_RELEASE_V1.0.2/MSDK/wpa_supplicant/src/rsn_supp\pmksa_cache.c **** 
 518:C:/Users/stapi/OneDrive/Desktop/GD32VW553/V1_MQTT_OK/GD32VW55X_Wifi_BLE_SDK/GD32VW55x_RELEASE_V1.0.2/MSDK/wpa_supplicant/src/rsn_supp\pmksa_cache.c **** 
 519:C:/Users/stapi/OneDrive/Desktop/GD32VW553/V1_MQTT_OK/GD32VW55X_Wifi_BLE_SDK/GD32VW55x_RELEASE_V1.0.2/MSDK/wpa_supplicant/src/rsn_supp\pmksa_cache.c **** /**
 520:C:/Users/stapi/OneDrive/Desktop/GD32VW553/V1_MQTT_OK/GD32VW55X_Wifi_BLE_SDK/GD32VW55x_RELEASE_V1.0.2/MSDK/wpa_supplicant/src/rsn_supp\pmksa_cache.c ****  * pmksa_cache_get_current - Get the current used PMKSA entry
 521:C:/Users/stapi/OneDrive/Desktop/GD32VW553/V1_MQTT_OK/GD32VW55X_Wifi_BLE_SDK/GD32VW55x_RELEASE_V1.0.2/MSDK/wpa_supplicant/src/rsn_supp\pmksa_cache.c ****  * @sm: Pointer to WPA state machine data from wpa_sm_init()
 522:C:/Users/stapi/OneDrive/Desktop/GD32VW553/V1_MQTT_OK/GD32VW55X_Wifi_BLE_SDK/GD32VW55x_RELEASE_V1.0.2/MSDK/wpa_supplicant/src/rsn_supp\pmksa_cache.c ****  * Returns: Pointer to the current PMKSA cache entry or %NULL if not available
 523:C:/Users/stapi/OneDrive/Desktop/GD32VW553/V1_MQTT_OK/GD32VW55X_Wifi_BLE_SDK/GD32VW55x_RELEASE_V1.0.2/MSDK/wpa_supplicant/src/rsn_supp\pmksa_cache.c ****  */
 524:C:/Users/stapi/OneDrive/Desktop/GD32VW553/V1_MQTT_OK/GD32VW55X_Wifi_BLE_SDK/GD32VW55x_RELEASE_V1.0.2/MSDK/wpa_supplicant/src/rsn_supp\pmksa_cache.c **** struct rsn_pmksa_cache_entry * pmksa_cache_get_current(struct wpa_sm *sm)
 525:C:/Users/stapi/OneDrive/Desktop/GD32VW553/V1_MQTT_OK/GD32VW55X_Wifi_BLE_SDK/GD32VW55x_RELEASE_V1.0.2/MSDK/wpa_supplicant/src/rsn_supp\pmksa_cache.c **** {
 1646              		.loc 1 525 1
 1647              		.cfi_startproc
 1648              	.LVL156:
 526:C:/Users/stapi/OneDrive/Desktop/GD32VW553/V1_MQTT_OK/GD32VW55X_Wifi_BLE_SDK/GD32VW55x_RELEASE_V1.0.2/MSDK/wpa_supplicant/src/rsn_supp\pmksa_cache.c **** 	if (sm == NULL)
 1649              		.loc 1 526 2
 1650              		.loc 1 526 5 is_stmt 0
 1651 0000 19C1     		beq	a0,zero,.L182
 527:C:/Users/stapi/OneDrive/Desktop/GD32VW553/V1_MQTT_OK/GD32VW55X_Wifi_BLE_SDK/GD32VW55x_RELEASE_V1.0.2/MSDK/wpa_supplicant/src/rsn_supp\pmksa_cache.c **** 		return NULL;
 528:C:/Users/stapi/OneDrive/Desktop/GD32VW553/V1_MQTT_OK/GD32VW55X_Wifi_BLE_SDK/GD32VW55x_RELEASE_V1.0.2/MSDK/wpa_supplicant/src/rsn_supp\pmksa_cache.c **** 	return sm->cur_pmksa;
 1652              		.loc 1 528 2 is_stmt 1
 1653              		.loc 1 528 11 is_stmt 0
 1654 0002 0325053C 		lw	a0,960(a0)
 1655              	.LVL157:
 1656              	.L182:
 529:C:/Users/stapi/OneDrive/Desktop/GD32VW553/V1_MQTT_OK/GD32VW55X_Wifi_BLE_SDK/GD32VW55x_RELEASE_V1.0.2/MSDK/wpa_supplicant/src/rsn_supp\pmksa_cache.c **** }
 1657              		.loc 1 529 1
 1658 0006 8280     		ret
 1659              		.cfi_endproc
 1660              	.LFE172:
 1662              		.section	.rodata.pmksa_cache_clear_current.str1.4,"aMS",@progbits,1
 1663              		.align	2
 1664              	.LC10:
 1665 0000 52534E3A 		.string	"RSN: Clear current PMKSA entry selection"
 1665      20436C65 
 1665      61722063 
 1665      75727265 
 1665      6E742050 
 1666              		.section	.text.pmksa_cache_clear_current,"ax",@progbits
 1667              		.align	1
 1668              		.globl	pmksa_cache_clear_current
 1670              	pmksa_cache_clear_current:
 1671              	.LFB173:
 530:C:/Users/stapi/OneDrive/Desktop/GD32VW553/V1_MQTT_OK/GD32VW55X_Wifi_BLE_SDK/GD32VW55x_RELEASE_V1.0.2/MSDK/wpa_supplicant/src/rsn_supp\pmksa_cache.c **** 
 531:C:/Users/stapi/OneDrive/Desktop/GD32VW553/V1_MQTT_OK/GD32VW55X_Wifi_BLE_SDK/GD32VW55x_RELEASE_V1.0.2/MSDK/wpa_supplicant/src/rsn_supp\pmksa_cache.c **** 
 532:C:/Users/stapi/OneDrive/Desktop/GD32VW553/V1_MQTT_OK/GD32VW55X_Wifi_BLE_SDK/GD32VW55x_RELEASE_V1.0.2/MSDK/wpa_supplicant/src/rsn_supp\pmksa_cache.c **** /**
 533:C:/Users/stapi/OneDrive/Desktop/GD32VW553/V1_MQTT_OK/GD32VW55X_Wifi_BLE_SDK/GD32VW55x_RELEASE_V1.0.2/MSDK/wpa_supplicant/src/rsn_supp\pmksa_cache.c ****  * pmksa_cache_clear_current - Clear the current PMKSA entry selection
 534:C:/Users/stapi/OneDrive/Desktop/GD32VW553/V1_MQTT_OK/GD32VW55X_Wifi_BLE_SDK/GD32VW55x_RELEASE_V1.0.2/MSDK/wpa_supplicant/src/rsn_supp\pmksa_cache.c ****  * @sm: Pointer to WPA state machine data from wpa_sm_init()
 535:C:/Users/stapi/OneDrive/Desktop/GD32VW553/V1_MQTT_OK/GD32VW55X_Wifi_BLE_SDK/GD32VW55x_RELEASE_V1.0.2/MSDK/wpa_supplicant/src/rsn_supp\pmksa_cache.c ****  */
 536:C:/Users/stapi/OneDrive/Desktop/GD32VW553/V1_MQTT_OK/GD32VW55X_Wifi_BLE_SDK/GD32VW55x_RELEASE_V1.0.2/MSDK/wpa_supplicant/src/rsn_supp\pmksa_cache.c **** void pmksa_cache_clear_current(struct wpa_sm *sm)
 537:C:/Users/stapi/OneDrive/Desktop/GD32VW553/V1_MQTT_OK/GD32VW55X_Wifi_BLE_SDK/GD32VW55x_RELEASE_V1.0.2/MSDK/wpa_supplicant/src/rsn_supp\pmksa_cache.c **** {
 1672              		.loc 1 537 1 is_stmt 1
 1673              		.cfi_startproc
 1674              	.LVL158:
 538:C:/Users/stapi/OneDrive/Desktop/GD32VW553/V1_MQTT_OK/GD32VW55X_Wifi_BLE_SDK/GD32VW55x_RELEASE_V1.0.2/MSDK/wpa_supplicant/src/rsn_supp\pmksa_cache.c **** 	if (sm == NULL)
 1675              		.loc 1 538 2
 1676              		.loc 1 538 5 is_stmt 0
 1677 0000 05C9     		beq	a0,zero,.L196
 537:C:/Users/stapi/OneDrive/Desktop/GD32VW553/V1_MQTT_OK/GD32VW55X_Wifi_BLE_SDK/GD32VW55x_RELEASE_V1.0.2/MSDK/wpa_supplicant/src/rsn_supp\pmksa_cache.c **** 	if (sm == NULL)
 1678              		.loc 1 537 1
 1679 0002 17030000 		call	t0,__riscv_save_1
 1679      E7020300 
 1680              		.cfi_offset 8, -8
 1681              		.cfi_offset 1, -4
 1682              		.cfi_def_cfa_offset 16
 539:C:/Users/stapi/OneDrive/Desktop/GD32VW553/V1_MQTT_OK/GD32VW55X_Wifi_BLE_SDK/GD32VW55x_RELEASE_V1.0.2/MSDK/wpa_supplicant/src/rsn_supp\pmksa_cache.c **** 		return;
 540:C:/Users/stapi/OneDrive/Desktop/GD32VW553/V1_MQTT_OK/GD32VW55X_Wifi_BLE_SDK/GD32VW55x_RELEASE_V1.0.2/MSDK/wpa_supplicant/src/rsn_supp\pmksa_cache.c **** 	if (sm->cur_pmksa)
 1683              		.loc 1 540 5
 1684 000a 8327053C 		lw	a5,960(a0)
 1685 000e 2A84     		mv	s0,a0
 1686              		.loc 1 540 2 is_stmt 1
 1687              		.loc 1 540 5 is_stmt 0
 1688 0010 91CB     		beq	a5,zero,.L188
 541:C:/Users/stapi/OneDrive/Desktop/GD32VW553/V1_MQTT_OK/GD32VW55X_Wifi_BLE_SDK/GD32VW55x_RELEASE_V1.0.2/MSDK/wpa_supplicant/src/rsn_supp\pmksa_cache.c **** 		wpa_printf(MSG_DEBUG,
 1689              		.loc 1 541 3 is_stmt 1
 1690 0012 B7050000 		lui	a1,%hi(.LC10)
 1691 0016 93850500 		addi	a1,a1,%lo(.LC10)
 1692 001a 0945     		li	a0,2
 1693              	.LVL159:
 1694 001c 97000000 		call	wpa_printf
 1694      E7800000 
 1695              	.LVL160:
 1696              	.L188:
 542:C:/Users/stapi/OneDrive/Desktop/GD32VW553/V1_MQTT_OK/GD32VW55X_Wifi_BLE_SDK/GD32VW55x_RELEASE_V1.0.2/MSDK/wpa_supplicant/src/rsn_supp\pmksa_cache.c **** 			   "RSN: Clear current PMKSA entry selection");
 543:C:/Users/stapi/OneDrive/Desktop/GD32VW553/V1_MQTT_OK/GD32VW55X_Wifi_BLE_SDK/GD32VW55x_RELEASE_V1.0.2/MSDK/wpa_supplicant/src/rsn_supp\pmksa_cache.c **** 	sm->cur_pmksa = NULL;
 1697              		.loc 1 543 2
 1698              		.loc 1 543 16 is_stmt 0
 1699 0024 2320043C 		sw	zero,960(s0)
 544:C:/Users/stapi/OneDrive/Desktop/GD32VW553/V1_MQTT_OK/GD32VW55X_Wifi_BLE_SDK/GD32VW55x_RELEASE_V1.0.2/MSDK/wpa_supplicant/src/rsn_supp\pmksa_cache.c **** }
 1700              		.loc 1 544 1
 1701 0028 17030000 		tail	__riscv_restore_1
 1701      67000300 
 1702              		.cfi_restore 8
 1703              		.cfi_restore 1
 1704              		.cfi_def_cfa_offset 0
 1705              	.LVL161:
 1706              	.L196:
 1707 0030 8280     		ret
 1708              		.cfi_endproc
 1709              	.LFE173:
 1711              		.section	.rodata.pmksa_cache_set_current.str1.4,"aMS",@progbits,1
 1712              		.align	2
 1713              	.LC11:
 1714 0000 52534E3A 		.string	"RSN: PMKSA cache search - network_ctx=%p try_opportunistic=%d akmp=0x%x"
 1714      20504D4B 
 1714      53412063 
 1714      61636865 
 1714      20736561 
 1715              		.align	2
 1716              	.LC12:
 1717 0048 52534E3A 		.string	"RSN: Search for PMKID"
 1717      20536561 
 1717      72636820 
 1717      666F7220 
 1717      504D4B49 
 1718 005e 0000     		.align	2
 1719              	.LC13:
 1720 0060 52534E3A 		.string	"RSN: Search for BSSID %02x:%02x:%02x:%02x:%02x:%02x"
 1720      20536561 
 1720      72636820 
 1720      666F7220 
 1720      42535349 
 1721              		.align	2
 1722              	.LC14:
 1723 0094 52534E3A 		.string	"RSN: Search for FILS Cache Identifier %02x%02x"
 1723      20536561 
 1723      72636820 
 1723      666F7220 
 1723      46494C53 
 1724 00c3 00       		.align	2
 1725              	.LC15:
 1726 00c4 52534E3A 		.string	"RSN: Do not allow PMKSA cache entry for %02x:%02x:%02x:%02x:%02x:%02x to be used for SAE 
 1726      20446F20 
 1726      6E6F7420 
 1726      616C6C6F 
 1726      7720504D 
 1727 0143 00       		.align	2
 1728              	.LC16:
 1729 0144 52534E3A 		.string	"RSN: PMKSA cache entry found - PMKID"
 1729      20504D4B 
 1729      53412063 
 1729      61636865 
 1729      20656E74 
 1730 0169 000000   		.align	2
 1731              	.LC17:
 1732 016c 52534E3A 		.string	"RSN: No PMKSA cache entry found"
 1732      204E6F20 
 1732      504D4B53 
 1732      41206361 
 1732      63686520 
 1733              		.section	.text.pmksa_cache_set_current,"ax",@progbits
 1734              		.align	1
 1735              		.globl	pmksa_cache_set_current
 1737              	pmksa_cache_set_current:
 1738              	.LFB174:
 545:C:/Users/stapi/OneDrive/Desktop/GD32VW553/V1_MQTT_OK/GD32VW55X_Wifi_BLE_SDK/GD32VW55x_RELEASE_V1.0.2/MSDK/wpa_supplicant/src/rsn_supp\pmksa_cache.c **** 
 546:C:/Users/stapi/OneDrive/Desktop/GD32VW553/V1_MQTT_OK/GD32VW55X_Wifi_BLE_SDK/GD32VW55x_RELEASE_V1.0.2/MSDK/wpa_supplicant/src/rsn_supp\pmksa_cache.c **** 
 547:C:/Users/stapi/OneDrive/Desktop/GD32VW553/V1_MQTT_OK/GD32VW55X_Wifi_BLE_SDK/GD32VW55x_RELEASE_V1.0.2/MSDK/wpa_supplicant/src/rsn_supp\pmksa_cache.c **** /**
 548:C:/Users/stapi/OneDrive/Desktop/GD32VW553/V1_MQTT_OK/GD32VW55X_Wifi_BLE_SDK/GD32VW55x_RELEASE_V1.0.2/MSDK/wpa_supplicant/src/rsn_supp\pmksa_cache.c ****  * pmksa_cache_set_current - Set the current PMKSA entry selection
 549:C:/Users/stapi/OneDrive/Desktop/GD32VW553/V1_MQTT_OK/GD32VW55X_Wifi_BLE_SDK/GD32VW55x_RELEASE_V1.0.2/MSDK/wpa_supplicant/src/rsn_supp\pmksa_cache.c ****  * @sm: Pointer to WPA state machine data from wpa_sm_init()
 550:C:/Users/stapi/OneDrive/Desktop/GD32VW553/V1_MQTT_OK/GD32VW55X_Wifi_BLE_SDK/GD32VW55x_RELEASE_V1.0.2/MSDK/wpa_supplicant/src/rsn_supp\pmksa_cache.c ****  * @pmkid: PMKID for selecting PMKSA or %NULL if not used
 551:C:/Users/stapi/OneDrive/Desktop/GD32VW553/V1_MQTT_OK/GD32VW55X_Wifi_BLE_SDK/GD32VW55x_RELEASE_V1.0.2/MSDK/wpa_supplicant/src/rsn_supp\pmksa_cache.c ****  * @bssid: BSSID for PMKSA or %NULL if not used
 552:C:/Users/stapi/OneDrive/Desktop/GD32VW553/V1_MQTT_OK/GD32VW55X_Wifi_BLE_SDK/GD32VW55x_RELEASE_V1.0.2/MSDK/wpa_supplicant/src/rsn_supp\pmksa_cache.c ****  * @network_ctx: Network configuration context
 553:C:/Users/stapi/OneDrive/Desktop/GD32VW553/V1_MQTT_OK/GD32VW55X_Wifi_BLE_SDK/GD32VW55x_RELEASE_V1.0.2/MSDK/wpa_supplicant/src/rsn_supp\pmksa_cache.c ****  * @try_opportunistic: Whether to allow opportunistic PMKSA caching
 554:C:/Users/stapi/OneDrive/Desktop/GD32VW553/V1_MQTT_OK/GD32VW55X_Wifi_BLE_SDK/GD32VW55x_RELEASE_V1.0.2/MSDK/wpa_supplicant/src/rsn_supp\pmksa_cache.c ****  * @fils_cache_id: Pointer to FILS Cache Identifier or %NULL if not used
 555:C:/Users/stapi/OneDrive/Desktop/GD32VW553/V1_MQTT_OK/GD32VW55X_Wifi_BLE_SDK/GD32VW55x_RELEASE_V1.0.2/MSDK/wpa_supplicant/src/rsn_supp\pmksa_cache.c ****  * Returns: 0 if PMKSA was found or -1 if no matching entry was found
 556:C:/Users/stapi/OneDrive/Desktop/GD32VW553/V1_MQTT_OK/GD32VW55X_Wifi_BLE_SDK/GD32VW55x_RELEASE_V1.0.2/MSDK/wpa_supplicant/src/rsn_supp\pmksa_cache.c ****  */
 557:C:/Users/stapi/OneDrive/Desktop/GD32VW553/V1_MQTT_OK/GD32VW55X_Wifi_BLE_SDK/GD32VW55x_RELEASE_V1.0.2/MSDK/wpa_supplicant/src/rsn_supp\pmksa_cache.c **** int pmksa_cache_set_current(struct wpa_sm *sm, const u8 *pmkid,
 558:C:/Users/stapi/OneDrive/Desktop/GD32VW553/V1_MQTT_OK/GD32VW55X_Wifi_BLE_SDK/GD32VW55x_RELEASE_V1.0.2/MSDK/wpa_supplicant/src/rsn_supp\pmksa_cache.c **** 			    const u8 *bssid, void *network_ctx,
 559:C:/Users/stapi/OneDrive/Desktop/GD32VW553/V1_MQTT_OK/GD32VW55X_Wifi_BLE_SDK/GD32VW55x_RELEASE_V1.0.2/MSDK/wpa_supplicant/src/rsn_supp\pmksa_cache.c **** 			    int try_opportunistic, const u8 *fils_cache_id,
 560:C:/Users/stapi/OneDrive/Desktop/GD32VW553/V1_MQTT_OK/GD32VW55X_Wifi_BLE_SDK/GD32VW55x_RELEASE_V1.0.2/MSDK/wpa_supplicant/src/rsn_supp\pmksa_cache.c **** 			    int akmp)
 561:C:/Users/stapi/OneDrive/Desktop/GD32VW553/V1_MQTT_OK/GD32VW55X_Wifi_BLE_SDK/GD32VW55x_RELEASE_V1.0.2/MSDK/wpa_supplicant/src/rsn_supp\pmksa_cache.c **** {
 1739              		.loc 1 561 1 is_stmt 1
 1740              		.cfi_startproc
 1741              	.LVL162:
 1742 0000 17030000 		call	t0,__riscv_save_8
 1742      E7020300 
 1743              		.cfi_offset 23, -36
 1744              		.cfi_offset 22, -32
 1745              		.cfi_offset 21, -28
 1746              		.cfi_offset 20, -24
 1747              		.cfi_offset 19, -20
 1748              		.cfi_offset 18, -16
 1749              		.cfi_offset 9, -12
 1750              		.cfi_offset 8, -8
 1751              		.cfi_offset 1, -4
 1752              		.cfi_def_cfa_offset 48
 562:C:/Users/stapi/OneDrive/Desktop/GD32VW553/V1_MQTT_OK/GD32VW55X_Wifi_BLE_SDK/GD32VW55x_RELEASE_V1.0.2/MSDK/wpa_supplicant/src/rsn_supp\pmksa_cache.c **** 	struct rsn_pmksa_cache *pmksa = sm->pmksa;
 1753              		.loc 1 562 2
 561:C:/Users/stapi/OneDrive/Desktop/GD32VW553/V1_MQTT_OK/GD32VW55X_Wifi_BLE_SDK/GD32VW55x_RELEASE_V1.0.2/MSDK/wpa_supplicant/src/rsn_supp\pmksa_cache.c **** 	struct rsn_pmksa_cache *pmksa = sm->pmksa;
 1754              		.loc 1 561 1 is_stmt 0
 1755 0008 AE8A     		mv	s5,a1
 1756 000a 3689     		mv	s2,a3
 1757 000c BA8B     		mv	s7,a4
 563:C:/Users/stapi/OneDrive/Desktop/GD32VW553/V1_MQTT_OK/GD32VW55X_Wifi_BLE_SDK/GD32VW55x_RELEASE_V1.0.2/MSDK/wpa_supplicant/src/rsn_supp\pmksa_cache.c **** 	wpa_printf(MSG_DEBUG, "RSN: PMKSA cache search - network_ctx=%p "
 1758              		.loc 1 563 2
 1759 000e B7050000 		lui	a1,%hi(.LC11)
 1760              	.LVL163:
 562:C:/Users/stapi/OneDrive/Desktop/GD32VW553/V1_MQTT_OK/GD32VW55X_Wifi_BLE_SDK/GD32VW55x_RELEASE_V1.0.2/MSDK/wpa_supplicant/src/rsn_supp\pmksa_cache.c **** 	struct rsn_pmksa_cache *pmksa = sm->pmksa;
 1761              		.loc 1 562 26
 1762 0012 032BC53B 		lw	s6,956(a0)
 1763              	.LVL164:
 1764              		.loc 1 563 2 is_stmt 1
 561:C:/Users/stapi/OneDrive/Desktop/GD32VW553/V1_MQTT_OK/GD32VW55X_Wifi_BLE_SDK/GD32VW55x_RELEASE_V1.0.2/MSDK/wpa_supplicant/src/rsn_supp\pmksa_cache.c **** 	struct rsn_pmksa_cache *pmksa = sm->pmksa;
 1765              		.loc 1 561 1 is_stmt 0
 1766 0016 4111     		addi	sp,sp,-16
 1767              		.cfi_def_cfa_offset 64
 561:C:/Users/stapi/OneDrive/Desktop/GD32VW553/V1_MQTT_OK/GD32VW55X_Wifi_BLE_SDK/GD32VW55x_RELEASE_V1.0.2/MSDK/wpa_supplicant/src/rsn_supp\pmksa_cache.c **** 	struct rsn_pmksa_cache *pmksa = sm->pmksa;
 1768              		.loc 1 561 1
 1769 0018 2A84     		mv	s0,a0
 1770 001a B284     		mv	s1,a2
 1771              		.loc 1 563 2
 1772 001c 4287     		mv	a4,a6
 1773              	.LVL165:
 1774 001e DE86     		mv	a3,s7
 1775              	.LVL166:
 1776 0020 4A86     		mv	a2,s2
 1777              	.LVL167:
 1778 0022 93850500 		addi	a1,a1,%lo(.LC11)
 1779 0026 0945     		li	a0,2
 1780              	.LVL168:
 561:C:/Users/stapi/OneDrive/Desktop/GD32VW553/V1_MQTT_OK/GD32VW55X_Wifi_BLE_SDK/GD32VW55x_RELEASE_V1.0.2/MSDK/wpa_supplicant/src/rsn_supp\pmksa_cache.c **** 	struct rsn_pmksa_cache *pmksa = sm->pmksa;
 1781              		.loc 1 561 1
 1782 0028 BE89     		mv	s3,a5
 1783 002a 428A     		mv	s4,a6
 1784              		.loc 1 563 2
 1785 002c 97000000 		call	wpa_printf
 1785      E7800000 
 1786              	.LVL169:
 564:C:/Users/stapi/OneDrive/Desktop/GD32VW553/V1_MQTT_OK/GD32VW55X_Wifi_BLE_SDK/GD32VW55x_RELEASE_V1.0.2/MSDK/wpa_supplicant/src/rsn_supp\pmksa_cache.c **** 		   "try_opportunistic=%d akmp=0x%x",
 565:C:/Users/stapi/OneDrive/Desktop/GD32VW553/V1_MQTT_OK/GD32VW55X_Wifi_BLE_SDK/GD32VW55x_RELEASE_V1.0.2/MSDK/wpa_supplicant/src/rsn_supp\pmksa_cache.c **** 		   network_ctx, try_opportunistic, akmp);
 566:C:/Users/stapi/OneDrive/Desktop/GD32VW553/V1_MQTT_OK/GD32VW55X_Wifi_BLE_SDK/GD32VW55x_RELEASE_V1.0.2/MSDK/wpa_supplicant/src/rsn_supp\pmksa_cache.c **** 	if (pmkid)
 1787              		.loc 1 566 2 is_stmt 1
 1788              		.loc 1 566 5 is_stmt 0
 1789 0034 638D0A00 		beq	s5,zero,.L200
 567:C:/Users/stapi/OneDrive/Desktop/GD32VW553/V1_MQTT_OK/GD32VW55X_Wifi_BLE_SDK/GD32VW55x_RELEASE_V1.0.2/MSDK/wpa_supplicant/src/rsn_supp\pmksa_cache.c **** 		wpa_hexdump(MSG_DEBUG, "RSN: Search for PMKID",
 1790              		.loc 1 567 3 is_stmt 1
 1791 0038 B7050000 		lui	a1,%hi(.LC12)
 1792 003c C146     		li	a3,16
 1793 003e 5686     		mv	a2,s5
 1794 0040 93850500 		addi	a1,a1,%lo(.LC12)
 1795 0044 0945     		li	a0,2
 1796 0046 97000000 		call	wpa_hexdump
 1796      E7800000 
 1797              	.LVL170:
 1798              	.L200:
 568:C:/Users/stapi/OneDrive/Desktop/GD32VW553/V1_MQTT_OK/GD32VW55X_Wifi_BLE_SDK/GD32VW55x_RELEASE_V1.0.2/MSDK/wpa_supplicant/src/rsn_supp\pmksa_cache.c **** 			    pmkid, PMKID_LEN);
 569:C:/Users/stapi/OneDrive/Desktop/GD32VW553/V1_MQTT_OK/GD32VW55X_Wifi_BLE_SDK/GD32VW55x_RELEASE_V1.0.2/MSDK/wpa_supplicant/src/rsn_supp\pmksa_cache.c **** 	if (bssid)
 1799              		.loc 1 569 2
 1800              		.loc 1 569 5 is_stmt 0
 1801 004e 95C4     		beq	s1,zero,.L201
 570:C:/Users/stapi/OneDrive/Desktop/GD32VW553/V1_MQTT_OK/GD32VW55X_Wifi_BLE_SDK/GD32VW55x_RELEASE_V1.0.2/MSDK/wpa_supplicant/src/rsn_supp\pmksa_cache.c **** 		wpa_printf(MSG_DEBUG, "RSN: Search for BSSID " MACSTR,
 1802              		.loc 1 570 3 is_stmt 1
 1803 0050 83C85400 		lbu	a7,5(s1)
 1804 0054 03C84400 		lbu	a6,4(s1)
 1805 0058 83C73400 		lbu	a5,3(s1)
 1806 005c 03C72400 		lbu	a4,2(s1)
 1807 0060 83C61400 		lbu	a3,1(s1)
 1808 0064 03C60400 		lbu	a2,0(s1)
 1809 0068 B7050000 		lui	a1,%hi(.LC13)
 1810 006c 93850500 		addi	a1,a1,%lo(.LC13)
 1811 0070 0945     		li	a0,2
 1812 0072 97000000 		call	wpa_printf
 1812      E7800000 
 1813              	.LVL171:
 1814              	.L201:
 571:C:/Users/stapi/OneDrive/Desktop/GD32VW553/V1_MQTT_OK/GD32VW55X_Wifi_BLE_SDK/GD32VW55x_RELEASE_V1.0.2/MSDK/wpa_supplicant/src/rsn_supp\pmksa_cache.c **** 			   MAC2STR(bssid));
 572:C:/Users/stapi/OneDrive/Desktop/GD32VW553/V1_MQTT_OK/GD32VW55X_Wifi_BLE_SDK/GD32VW55x_RELEASE_V1.0.2/MSDK/wpa_supplicant/src/rsn_supp\pmksa_cache.c **** 	if (fils_cache_id)
 1815              		.loc 1 572 2
 1816              		.loc 1 572 5 is_stmt 0
 1817 007a 638F0900 		beq	s3,zero,.L202
 573:C:/Users/stapi/OneDrive/Desktop/GD32VW553/V1_MQTT_OK/GD32VW55X_Wifi_BLE_SDK/GD32VW55x_RELEASE_V1.0.2/MSDK/wpa_supplicant/src/rsn_supp\pmksa_cache.c **** 		wpa_printf(MSG_DEBUG,
 1818              		.loc 1 573 3 is_stmt 1
 1819 007e 83C61900 		lbu	a3,1(s3)
 1820 0082 03C60900 		lbu	a2,0(s3)
 1821 0086 B7050000 		lui	a1,%hi(.LC14)
 1822 008a 93850500 		addi	a1,a1,%lo(.LC14)
 1823 008e 0945     		li	a0,2
 1824 0090 97000000 		call	wpa_printf
 1824      E7800000 
 1825              	.LVL172:
 1826              	.L202:
 574:C:/Users/stapi/OneDrive/Desktop/GD32VW553/V1_MQTT_OK/GD32VW55X_Wifi_BLE_SDK/GD32VW55x_RELEASE_V1.0.2/MSDK/wpa_supplicant/src/rsn_supp\pmksa_cache.c **** 			   "RSN: Search for FILS Cache Identifier %02x%02x",
 575:C:/Users/stapi/OneDrive/Desktop/GD32VW553/V1_MQTT_OK/GD32VW55X_Wifi_BLE_SDK/GD32VW55x_RELEASE_V1.0.2/MSDK/wpa_supplicant/src/rsn_supp\pmksa_cache.c **** 			   fils_cache_id[0], fils_cache_id[1]);
 576:C:/Users/stapi/OneDrive/Desktop/GD32VW553/V1_MQTT_OK/GD32VW55X_Wifi_BLE_SDK/GD32VW55x_RELEASE_V1.0.2/MSDK/wpa_supplicant/src/rsn_supp\pmksa_cache.c **** 
 577:C:/Users/stapi/OneDrive/Desktop/GD32VW553/V1_MQTT_OK/GD32VW55X_Wifi_BLE_SDK/GD32VW55x_RELEASE_V1.0.2/MSDK/wpa_supplicant/src/rsn_supp\pmksa_cache.c **** 	sm->cur_pmksa = NULL;
 1827              		.loc 1 577 2
 1828              		.loc 1 577 16 is_stmt 0
 1829 0098 2320043C 		sw	zero,960(s0)
 578:C:/Users/stapi/OneDrive/Desktop/GD32VW553/V1_MQTT_OK/GD32VW55X_Wifi_BLE_SDK/GD32VW55x_RELEASE_V1.0.2/MSDK/wpa_supplicant/src/rsn_supp\pmksa_cache.c **** 	if (pmkid)
 1830              		.loc 1 578 2 is_stmt 1
 1831              		.loc 1 578 5 is_stmt 0
 1832 009c 639D0A00 		bne	s5,zero,.L203
 1833              	.L206:
 579:C:/Users/stapi/OneDrive/Desktop/GD32VW553/V1_MQTT_OK/GD32VW55X_Wifi_BLE_SDK/GD32VW55x_RELEASE_V1.0.2/MSDK/wpa_supplicant/src/rsn_supp\pmksa_cache.c **** 		sm->cur_pmksa = pmksa_cache_get(pmksa, NULL, pmkid,
 580:C:/Users/stapi/OneDrive/Desktop/GD32VW553/V1_MQTT_OK/GD32VW55X_Wifi_BLE_SDK/GD32VW55x_RELEASE_V1.0.2/MSDK/wpa_supplicant/src/rsn_supp\pmksa_cache.c **** 						network_ctx, akmp);
 581:C:/Users/stapi/OneDrive/Desktop/GD32VW553/V1_MQTT_OK/GD32VW55X_Wifi_BLE_SDK/GD32VW55x_RELEASE_V1.0.2/MSDK/wpa_supplicant/src/rsn_supp\pmksa_cache.c **** 	if (sm->cur_pmksa == NULL && bssid)
 1834              		.loc 1 581 28
 1835 00a0 C9E4     		bne	s1,zero,.L204
 1836              	.L205:
 582:C:/Users/stapi/OneDrive/Desktop/GD32VW553/V1_MQTT_OK/GD32VW55X_Wifi_BLE_SDK/GD32VW55x_RELEASE_V1.0.2/MSDK/wpa_supplicant/src/rsn_supp\pmksa_cache.c **** 		sm->cur_pmksa = pmksa_cache_get(pmksa, bssid, NULL,
 583:C:/Users/stapi/OneDrive/Desktop/GD32VW553/V1_MQTT_OK/GD32VW55X_Wifi_BLE_SDK/GD32VW55x_RELEASE_V1.0.2/MSDK/wpa_supplicant/src/rsn_supp\pmksa_cache.c **** 						network_ctx, akmp);
 584:C:/Users/stapi/OneDrive/Desktop/GD32VW553/V1_MQTT_OK/GD32VW55X_Wifi_BLE_SDK/GD32VW55x_RELEASE_V1.0.2/MSDK/wpa_supplicant/src/rsn_supp\pmksa_cache.c **** 	if (sm->cur_pmksa == NULL && try_opportunistic && bssid)
 585:C:/Users/stapi/OneDrive/Desktop/GD32VW553/V1_MQTT_OK/GD32VW55X_Wifi_BLE_SDK/GD32VW55x_RELEASE_V1.0.2/MSDK/wpa_supplicant/src/rsn_supp\pmksa_cache.c **** 		sm->cur_pmksa = pmksa_cache_get_opportunistic(pmksa,
 586:C:/Users/stapi/OneDrive/Desktop/GD32VW553/V1_MQTT_OK/GD32VW55X_Wifi_BLE_SDK/GD32VW55x_RELEASE_V1.0.2/MSDK/wpa_supplicant/src/rsn_supp\pmksa_cache.c **** 							      network_ctx,
 587:C:/Users/stapi/OneDrive/Desktop/GD32VW553/V1_MQTT_OK/GD32VW55X_Wifi_BLE_SDK/GD32VW55x_RELEASE_V1.0.2/MSDK/wpa_supplicant/src/rsn_supp\pmksa_cache.c **** 							      bssid, akmp);
 588:C:/Users/stapi/OneDrive/Desktop/GD32VW553/V1_MQTT_OK/GD32VW55X_Wifi_BLE_SDK/GD32VW55x_RELEASE_V1.0.2/MSDK/wpa_supplicant/src/rsn_supp\pmksa_cache.c **** 	if (sm->cur_pmksa == NULL && fils_cache_id)
 1837              		.loc 1 588 28
 1838 00a2 63860902 		beq	s3,zero,.L220
 589:C:/Users/stapi/OneDrive/Desktop/GD32VW553/V1_MQTT_OK/GD32VW55X_Wifi_BLE_SDK/GD32VW55x_RELEASE_V1.0.2/MSDK/wpa_supplicant/src/rsn_supp\pmksa_cache.c **** 		sm->cur_pmksa = pmksa_cache_get_fils_cache_id(pmksa,
 1839              		.loc 1 589 3 is_stmt 1
 1840 00a6 83240B00 		lw	s1,0(s6)
 1841              	.LVL173:
 1842              	.LBB104:
 1843              	.LBB105:
 505:C:/Users/stapi/OneDrive/Desktop/GD32VW553/V1_MQTT_OK/GD32VW55X_Wifi_BLE_SDK/GD32VW55x_RELEASE_V1.0.2/MSDK/wpa_supplicant/src/rsn_supp\pmksa_cache.c **** 
 1844              		.loc 1 505 2
 507:C:/Users/stapi/OneDrive/Desktop/GD32VW553/V1_MQTT_OK/GD32VW55X_Wifi_BLE_SDK/GD32VW55x_RELEASE_V1.0.2/MSDK/wpa_supplicant/src/rsn_supp\pmksa_cache.c **** 		if (network_ctx == entry->network_ctx &&
 1845              		.loc 1 507 2
 1846              	.L211:
 507:C:/Users/stapi/OneDrive/Desktop/GD32VW553/V1_MQTT_OK/GD32VW55X_Wifi_BLE_SDK/GD32VW55x_RELEASE_V1.0.2/MSDK/wpa_supplicant/src/rsn_supp\pmksa_cache.c **** 		if (network_ctx == entry->network_ctx &&
 1847              		.loc 1 507 29
 507:C:/Users/stapi/OneDrive/Desktop/GD32VW553/V1_MQTT_OK/GD32VW55X_Wifi_BLE_SDK/GD32VW55x_RELEASE_V1.0.2/MSDK/wpa_supplicant/src/rsn_supp\pmksa_cache.c **** 		if (network_ctx == entry->network_ctx &&
 1848              		.loc 1 507 2 is_stmt 0
 1849 00aa F9C4     		beq	s1,zero,.L214
 508:C:/Users/stapi/OneDrive/Desktop/GD32VW553/V1_MQTT_OK/GD32VW55X_Wifi_BLE_SDK/GD32VW55x_RELEASE_V1.0.2/MSDK/wpa_supplicant/src/rsn_supp\pmksa_cache.c **** 		    entry->fils_cache_id_set &&
 1850              		.loc 1 508 3 is_stmt 1
 508:C:/Users/stapi/OneDrive/Desktop/GD32VW553/V1_MQTT_OK/GD32VW55X_Wifi_BLE_SDK/GD32VW55x_RELEASE_V1.0.2/MSDK/wpa_supplicant/src/rsn_supp\pmksa_cache.c **** 		    entry->fils_cache_id_set &&
 1851              		.loc 1 508 6 is_stmt 0
 1852 00ac BC58     		lw	a5,112(s1)
 1853 00ae 6308F90A 		beq	s2,a5,.L212
 1854              	.L213:
 507:C:/Users/stapi/OneDrive/Desktop/GD32VW553/V1_MQTT_OK/GD32VW55X_Wifi_BLE_SDK/GD32VW55x_RELEASE_V1.0.2/MSDK/wpa_supplicant/src/rsn_supp\pmksa_cache.c **** 		if (network_ctx == entry->network_ctx &&
 1855              		.loc 1 507 36 is_stmt 1
 507:C:/Users/stapi/OneDrive/Desktop/GD32VW553/V1_MQTT_OK/GD32VW55X_Wifi_BLE_SDK/GD32VW55x_RELEASE_V1.0.2/MSDK/wpa_supplicant/src/rsn_supp\pmksa_cache.c **** 		if (network_ctx == entry->network_ctx &&
 1856              		.loc 1 507 42 is_stmt 0
 1857 00b2 8440     		lw	s1,0(s1)
 1858              	.LVL174:
 1859 00b4 DDBF     		j	.L211
 1860              	.LVL175:
 1861              	.L203:
 1862              	.LBE105:
 1863              	.LBE104:
 579:C:/Users/stapi/OneDrive/Desktop/GD32VW553/V1_MQTT_OK/GD32VW55X_Wifi_BLE_SDK/GD32VW55x_RELEASE_V1.0.2/MSDK/wpa_supplicant/src/rsn_supp\pmksa_cache.c **** 						network_ctx, akmp);
 1864              		.loc 1 579 3 is_stmt 1
 579:C:/Users/stapi/OneDrive/Desktop/GD32VW553/V1_MQTT_OK/GD32VW55X_Wifi_BLE_SDK/GD32VW55x_RELEASE_V1.0.2/MSDK/wpa_supplicant/src/rsn_supp\pmksa_cache.c **** 						network_ctx, akmp);
 1865              		.loc 1 579 19 is_stmt 0
 1866 00b6 5287     		mv	a4,s4
 1867 00b8 CA86     		mv	a3,s2
 1868 00ba 5686     		mv	a2,s5
 1869 00bc 8145     		li	a1,0
 1870 00be 5A85     		mv	a0,s6
 1871 00c0 97000000 		call	pmksa_cache_get
 1871      E7800000 
 1872              	.LVL176:
 579:C:/Users/stapi/OneDrive/Desktop/GD32VW553/V1_MQTT_OK/GD32VW55X_Wifi_BLE_SDK/GD32VW55x_RELEASE_V1.0.2/MSDK/wpa_supplicant/src/rsn_supp\pmksa_cache.c **** 						network_ctx, akmp);
 1873              		.loc 1 579 17
 1874 00c8 2320A43C 		sw	a0,960(s0)
 581:C:/Users/stapi/OneDrive/Desktop/GD32VW553/V1_MQTT_OK/GD32VW55X_Wifi_BLE_SDK/GD32VW55x_RELEASE_V1.0.2/MSDK/wpa_supplicant/src/rsn_supp\pmksa_cache.c **** 		sm->cur_pmksa = pmksa_cache_get(pmksa, bssid, NULL,
 1875              		.loc 1 581 2 is_stmt 1
 581:C:/Users/stapi/OneDrive/Desktop/GD32VW553/V1_MQTT_OK/GD32VW55X_Wifi_BLE_SDK/GD32VW55x_RELEASE_V1.0.2/MSDK/wpa_supplicant/src/rsn_supp\pmksa_cache.c **** 		sm->cur_pmksa = pmksa_cache_get(pmksa, bssid, NULL,
 1876              		.loc 1 581 5 is_stmt 0
 1877 00cc 71D9     		beq	a0,zero,.L206
 1878              	.LVL177:
 1879              	.L220:
 590:C:/Users/stapi/OneDrive/Desktop/GD32VW553/V1_MQTT_OK/GD32VW55X_Wifi_BLE_SDK/GD32VW55x_RELEASE_V1.0.2/MSDK/wpa_supplicant/src/rsn_supp\pmksa_cache.c **** 							      network_ctx,
 591:C:/Users/stapi/OneDrive/Desktop/GD32VW553/V1_MQTT_OK/GD32VW55X_Wifi_BLE_SDK/GD32VW55x_RELEASE_V1.0.2/MSDK/wpa_supplicant/src/rsn_supp\pmksa_cache.c **** 							      fils_cache_id);
 592:C:/Users/stapi/OneDrive/Desktop/GD32VW553/V1_MQTT_OK/GD32VW55X_Wifi_BLE_SDK/GD32VW55x_RELEASE_V1.0.2/MSDK/wpa_supplicant/src/rsn_supp\pmksa_cache.c **** 	if (sm->cur_pmksa) {
 1880              		.loc 1 592 2 is_stmt 1
 1881              		.loc 1 592 8 is_stmt 0
 1882 00ce 8327043C 		lw	a5,960(s0)
 1883              		.loc 1 592 5
 1884 00d2 E9CB     		beq	a5,zero,.L216
 1885              	.LBB107:
 593:C:/Users/stapi/OneDrive/Desktop/GD32VW553/V1_MQTT_OK/GD32VW55X_Wifi_BLE_SDK/GD32VW55x_RELEASE_V1.0.2/MSDK/wpa_supplicant/src/rsn_supp\pmksa_cache.c **** 		struct os_reltime now;
 1886              		.loc 1 593 3 is_stmt 1
 594:C:/Users/stapi/OneDrive/Desktop/GD32VW553/V1_MQTT_OK/GD32VW55X_Wifi_BLE_SDK/GD32VW55x_RELEASE_V1.0.2/MSDK/wpa_supplicant/src/rsn_supp\pmksa_cache.c **** 
 595:C:/Users/stapi/OneDrive/Desktop/GD32VW553/V1_MQTT_OK/GD32VW55X_Wifi_BLE_SDK/GD32VW55x_RELEASE_V1.0.2/MSDK/wpa_supplicant/src/rsn_supp\pmksa_cache.c **** 		if (wpa_key_mgmt_sae(sm->cur_pmksa->akmp) &&
 1887              		.loc 1 595 3
 1888              	.LVL178:
 1889              	.LBB108:
 1890              	.LBB109:
 113:..\..\..\..\wpa_supplicant\src/common/defs.h **** 			 WPA_KEY_MGMT_FT_SAE));
 1891              		.loc 4 113 2
 113:..\..\..\..\wpa_supplicant\src/common/defs.h **** 			 WPA_KEY_MGMT_FT_SAE));
 1892              		.loc 4 113 16 is_stmt 0
 1893 00d4 FC4F     		lw	a5,92(a5)
 1894 00d6 0567     		li	a4,4096
 1895 00d8 130707C0 		addi	a4,a4,-1024
 1896 00dc F98F     		and	a5,a5,a4
 1897              	.LBE109:
 1898              	.LBE108:
 1899              		.loc 1 595 6
 1900 00de C5C3     		beq	a5,zero,.L217
 596:C:/Users/stapi/OneDrive/Desktop/GD32VW553/V1_MQTT_OK/GD32VW55X_Wifi_BLE_SDK/GD32VW55x_RELEASE_V1.0.2/MSDK/wpa_supplicant/src/rsn_supp\pmksa_cache.c **** 		    os_get_reltime(&now) == 0 &&
 1901              		.loc 1 596 7 discriminator 1
 1902 00e0 2800     		addi	a0,sp,8
 1903 00e2 97000000 		call	os_get_reltime
 1903      E7800000 
 1904              	.LVL179:
 595:C:/Users/stapi/OneDrive/Desktop/GD32VW553/V1_MQTT_OK/GD32VW55X_Wifi_BLE_SDK/GD32VW55x_RELEASE_V1.0.2/MSDK/wpa_supplicant/src/rsn_supp\pmksa_cache.c **** 		    os_get_reltime(&now) == 0 &&
 1905              		.loc 1 595 45 discriminator 1
 1906 00ea 51E9     		bne	a0,zero,.L217
 597:C:/Users/stapi/OneDrive/Desktop/GD32VW553/V1_MQTT_OK/GD32VW55X_Wifi_BLE_SDK/GD32VW55x_RELEASE_V1.0.2/MSDK/wpa_supplicant/src/rsn_supp\pmksa_cache.c **** 		    sm->cur_pmksa->reauth_time < now.sec) {
 1907              		.loc 1 597 9
 1908 00ec 0326043C 		lw	a2,960(s0)
 596:C:/Users/stapi/OneDrive/Desktop/GD32VW553/V1_MQTT_OK/GD32VW55X_Wifi_BLE_SDK/GD32VW55x_RELEASE_V1.0.2/MSDK/wpa_supplicant/src/rsn_supp\pmksa_cache.c **** 		    os_get_reltime(&now) == 0 &&
 1909              		.loc 1 596 33
 1910 00f0 A247     		lw	a5,8(sp)
 1911 00f2 7856     		lw	a4,108(a2)
 1912 00f4 6355F708 		bge	a4,a5,.L217
 598:C:/Users/stapi/OneDrive/Desktop/GD32VW553/V1_MQTT_OK/GD32VW55X_Wifi_BLE_SDK/GD32VW55x_RELEASE_V1.0.2/MSDK/wpa_supplicant/src/rsn_supp\pmksa_cache.c **** 			wpa_printf(MSG_DEBUG,
 1913              		.loc 1 598 4 is_stmt 1
 1914 00f8 83485606 		lbu	a7,101(a2)
 1915 00fc 03484606 		lbu	a6,100(a2)
 1916 0100 83473606 		lbu	a5,99(a2)
 1917 0104 03472606 		lbu	a4,98(a2)
 1918 0108 83461606 		lbu	a3,97(a2)
 1919 010c 03460606 		lbu	a2,96(a2)
 1920 0110 B7050000 		lui	a1,%hi(.LC15)
 1921 0114 93850500 		addi	a1,a1,%lo(.LC15)
 1922 0118 0945     		li	a0,2
 1923 011a 97000000 		call	wpa_printf
 1923      E7800000 
 1924              	.LVL180:
 599:C:/Users/stapi/OneDrive/Desktop/GD32VW553/V1_MQTT_OK/GD32VW55X_Wifi_BLE_SDK/GD32VW55x_RELEASE_V1.0.2/MSDK/wpa_supplicant/src/rsn_supp\pmksa_cache.c **** 				   "RSN: Do not allow PMKSA cache entry for "
 600:C:/Users/stapi/OneDrive/Desktop/GD32VW553/V1_MQTT_OK/GD32VW55X_Wifi_BLE_SDK/GD32VW55x_RELEASE_V1.0.2/MSDK/wpa_supplicant/src/rsn_supp\pmksa_cache.c **** 				   MACSTR
 601:C:/Users/stapi/OneDrive/Desktop/GD32VW553/V1_MQTT_OK/GD32VW55X_Wifi_BLE_SDK/GD32VW55x_RELEASE_V1.0.2/MSDK/wpa_supplicant/src/rsn_supp\pmksa_cache.c **** 				   " to be used for SAE since its reauth threshold has passed",
 602:C:/Users/stapi/OneDrive/Desktop/GD32VW553/V1_MQTT_OK/GD32VW55X_Wifi_BLE_SDK/GD32VW55x_RELEASE_V1.0.2/MSDK/wpa_supplicant/src/rsn_supp\pmksa_cache.c **** 				   MAC2STR(sm->cur_pmksa->aa));
 603:C:/Users/stapi/OneDrive/Desktop/GD32VW553/V1_MQTT_OK/GD32VW55X_Wifi_BLE_SDK/GD32VW55x_RELEASE_V1.0.2/MSDK/wpa_supplicant/src/rsn_supp\pmksa_cache.c **** 			sm->cur_pmksa = NULL;
 1925              		.loc 1 603 4
 1926              		.loc 1 603 18 is_stmt 0
 1927 0122 2320043C 		sw	zero,960(s0)
 604:C:/Users/stapi/OneDrive/Desktop/GD32VW553/V1_MQTT_OK/GD32VW55X_Wifi_BLE_SDK/GD32VW55x_RELEASE_V1.0.2/MSDK/wpa_supplicant/src/rsn_supp\pmksa_cache.c **** 			return -1;
 1928              		.loc 1 604 4 is_stmt 1
 1929              	.L247:
 1930              	.LBE107:
 605:C:/Users/stapi/OneDrive/Desktop/GD32VW553/V1_MQTT_OK/GD32VW55X_Wifi_BLE_SDK/GD32VW55x_RELEASE_V1.0.2/MSDK/wpa_supplicant/src/rsn_supp\pmksa_cache.c **** 		}
 606:C:/Users/stapi/OneDrive/Desktop/GD32VW553/V1_MQTT_OK/GD32VW55X_Wifi_BLE_SDK/GD32VW55x_RELEASE_V1.0.2/MSDK/wpa_supplicant/src/rsn_supp\pmksa_cache.c **** 
 607:C:/Users/stapi/OneDrive/Desktop/GD32VW553/V1_MQTT_OK/GD32VW55X_Wifi_BLE_SDK/GD32VW55x_RELEASE_V1.0.2/MSDK/wpa_supplicant/src/rsn_supp\pmksa_cache.c **** 		wpa_hexdump(MSG_DEBUG, "RSN: PMKSA cache entry found - PMKID",
 608:C:/Users/stapi/OneDrive/Desktop/GD32VW553/V1_MQTT_OK/GD32VW55X_Wifi_BLE_SDK/GD32VW55x_RELEASE_V1.0.2/MSDK/wpa_supplicant/src/rsn_supp\pmksa_cache.c **** 			    sm->cur_pmksa->pmkid, PMKID_LEN);
 609:C:/Users/stapi/OneDrive/Desktop/GD32VW553/V1_MQTT_OK/GD32VW55X_Wifi_BLE_SDK/GD32VW55x_RELEASE_V1.0.2/MSDK/wpa_supplicant/src/rsn_supp\pmksa_cache.c **** 		return 0;
 610:C:/Users/stapi/OneDrive/Desktop/GD32VW553/V1_MQTT_OK/GD32VW55X_Wifi_BLE_SDK/GD32VW55x_RELEASE_V1.0.2/MSDK/wpa_supplicant/src/rsn_supp\pmksa_cache.c **** 	}
 611:C:/Users/stapi/OneDrive/Desktop/GD32VW553/V1_MQTT_OK/GD32VW55X_Wifi_BLE_SDK/GD32VW55x_RELEASE_V1.0.2/MSDK/wpa_supplicant/src/rsn_supp\pmksa_cache.c **** 	wpa_printf(MSG_DEBUG, "RSN: No PMKSA cache entry found");
 612:C:/Users/stapi/OneDrive/Desktop/GD32VW553/V1_MQTT_OK/GD32VW55X_Wifi_BLE_SDK/GD32VW55x_RELEASE_V1.0.2/MSDK/wpa_supplicant/src/rsn_supp\pmksa_cache.c **** 	return -1;
 1931              		.loc 1 612 2
 1932              		.loc 1 612 9 is_stmt 0
 1933 0126 7D55     		li	a0,-1
 1934 0128 8DA8     		j	.L199
 1935              	.LVL181:
 1936              	.L204:
 582:C:/Users/stapi/OneDrive/Desktop/GD32VW553/V1_MQTT_OK/GD32VW55X_Wifi_BLE_SDK/GD32VW55x_RELEASE_V1.0.2/MSDK/wpa_supplicant/src/rsn_supp\pmksa_cache.c **** 						network_ctx, akmp);
 1937              		.loc 1 582 3 is_stmt 1
 582:C:/Users/stapi/OneDrive/Desktop/GD32VW553/V1_MQTT_OK/GD32VW55X_Wifi_BLE_SDK/GD32VW55x_RELEASE_V1.0.2/MSDK/wpa_supplicant/src/rsn_supp\pmksa_cache.c **** 						network_ctx, akmp);
 1938              		.loc 1 582 19 is_stmt 0
 1939 012a 5287     		mv	a4,s4
 1940 012c CA86     		mv	a3,s2
 1941 012e 0146     		li	a2,0
 1942 0130 A685     		mv	a1,s1
 1943 0132 5A85     		mv	a0,s6
 1944 0134 97000000 		call	pmksa_cache_get
 1944      E7800000 
 1945              	.LVL182:
 582:C:/Users/stapi/OneDrive/Desktop/GD32VW553/V1_MQTT_OK/GD32VW55X_Wifi_BLE_SDK/GD32VW55x_RELEASE_V1.0.2/MSDK/wpa_supplicant/src/rsn_supp\pmksa_cache.c **** 						network_ctx, akmp);
 1946              		.loc 1 582 17
 1947 013c 2320A43C 		sw	a0,960(s0)
 584:C:/Users/stapi/OneDrive/Desktop/GD32VW553/V1_MQTT_OK/GD32VW55X_Wifi_BLE_SDK/GD32VW55x_RELEASE_V1.0.2/MSDK/wpa_supplicant/src/rsn_supp\pmksa_cache.c **** 		sm->cur_pmksa = pmksa_cache_get_opportunistic(pmksa,
 1948              		.loc 1 584 2 is_stmt 1
 584:C:/Users/stapi/OneDrive/Desktop/GD32VW553/V1_MQTT_OK/GD32VW55X_Wifi_BLE_SDK/GD32VW55x_RELEASE_V1.0.2/MSDK/wpa_supplicant/src/rsn_supp\pmksa_cache.c **** 		sm->cur_pmksa = pmksa_cache_get_opportunistic(pmksa,
 1949              		.loc 1 584 5 is_stmt 0
 1950 0140 59F5     		bne	a0,zero,.L220
 584:C:/Users/stapi/OneDrive/Desktop/GD32VW553/V1_MQTT_OK/GD32VW55X_Wifi_BLE_SDK/GD32VW55x_RELEASE_V1.0.2/MSDK/wpa_supplicant/src/rsn_supp\pmksa_cache.c **** 		sm->cur_pmksa = pmksa_cache_get_opportunistic(pmksa,
 1951              		.loc 1 584 28
 1952 0142 E3800BF6 		beq	s7,zero,.L205
 585:C:/Users/stapi/OneDrive/Desktop/GD32VW553/V1_MQTT_OK/GD32VW55X_Wifi_BLE_SDK/GD32VW55x_RELEASE_V1.0.2/MSDK/wpa_supplicant/src/rsn_supp\pmksa_cache.c **** 							      network_ctx,
 1953              		.loc 1 585 3 is_stmt 1
 585:C:/Users/stapi/OneDrive/Desktop/GD32VW553/V1_MQTT_OK/GD32VW55X_Wifi_BLE_SDK/GD32VW55x_RELEASE_V1.0.2/MSDK/wpa_supplicant/src/rsn_supp\pmksa_cache.c **** 							      network_ctx,
 1954              		.loc 1 585 19 is_stmt 0
 1955 0146 D286     		mv	a3,s4
 1956 0148 2686     		mv	a2,s1
 1957 014a CA85     		mv	a1,s2
 1958 014c 5A85     		mv	a0,s6
 1959 014e 97000000 		call	pmksa_cache_get_opportunistic
 1959      E7800000 
 1960              	.LVL183:
 585:C:/Users/stapi/OneDrive/Desktop/GD32VW553/V1_MQTT_OK/GD32VW55X_Wifi_BLE_SDK/GD32VW55x_RELEASE_V1.0.2/MSDK/wpa_supplicant/src/rsn_supp\pmksa_cache.c **** 							      network_ctx,
 1961              		.loc 1 585 17
 1962 0156 2320A43C 		sw	a0,960(s0)
 588:C:/Users/stapi/OneDrive/Desktop/GD32VW553/V1_MQTT_OK/GD32VW55X_Wifi_BLE_SDK/GD32VW55x_RELEASE_V1.0.2/MSDK/wpa_supplicant/src/rsn_supp\pmksa_cache.c **** 		sm->cur_pmksa = pmksa_cache_get_fils_cache_id(pmksa,
 1963              		.loc 1 588 2 is_stmt 1
 588:C:/Users/stapi/OneDrive/Desktop/GD32VW553/V1_MQTT_OK/GD32VW55X_Wifi_BLE_SDK/GD32VW55x_RELEASE_V1.0.2/MSDK/wpa_supplicant/src/rsn_supp\pmksa_cache.c **** 		sm->cur_pmksa = pmksa_cache_get_fils_cache_id(pmksa,
 1964              		.loc 1 588 5 is_stmt 0
 1965 015a 21D5     		beq	a0,zero,.L205
 1966 015c 8DBF     		j	.L220
 1967              	.LVL184:
 1968              	.L212:
 1969              	.LBB110:
 1970              	.LBB106:
 508:C:/Users/stapi/OneDrive/Desktop/GD32VW553/V1_MQTT_OK/GD32VW55X_Wifi_BLE_SDK/GD32VW55x_RELEASE_V1.0.2/MSDK/wpa_supplicant/src/rsn_supp\pmksa_cache.c **** 		    entry->fils_cache_id_set &&
 1971              		.loc 1 508 41
 1972 015e 83C78406 		lbu	a5,104(s1)
 1973 0162 858B     		andi	a5,a5,1
 1974 0164 B9D7     		beq	a5,zero,.L213
 510:C:/Users/stapi/OneDrive/Desktop/GD32VW553/V1_MQTT_OK/GD32VW55X_Wifi_BLE_SDK/GD32VW55x_RELEASE_V1.0.2/MSDK/wpa_supplicant/src/rsn_supp\pmksa_cache.c **** 			      FILS_CACHE_ID_LEN) == 0)
 1975              		.loc 1 510 7
 1976 0166 0946     		li	a2,2
 1977 0168 93856406 		addi	a1,s1,102
 1978 016c 4E85     		mv	a0,s3
 1979 016e 97000000 		call	os_memcmp
 1979      E7800000 
 1980              	.LVL185:
 509:C:/Users/stapi/OneDrive/Desktop/GD32VW553/V1_MQTT_OK/GD32VW55X_Wifi_BLE_SDK/GD32VW55x_RELEASE_V1.0.2/MSDK/wpa_supplicant/src/rsn_supp\pmksa_cache.c **** 		    os_memcmp(cache_id, entry->fils_cache_id,
 1981              		.loc 1 509 32
 1982 0176 15FD     		bne	a0,zero,.L213
 1983              	.L214:
 1984              	.LVL186:
 1985              	.LBE106:
 1986              	.LBE110:
 589:C:/Users/stapi/OneDrive/Desktop/GD32VW553/V1_MQTT_OK/GD32VW55X_Wifi_BLE_SDK/GD32VW55x_RELEASE_V1.0.2/MSDK/wpa_supplicant/src/rsn_supp\pmksa_cache.c **** 							      network_ctx,
 1987              		.loc 1 589 17
 1988 0178 2320943C 		sw	s1,960(s0)
 1989 017c 89BF     		j	.L220
 1990              	.L217:
 1991              	.LBB111:
 607:C:/Users/stapi/OneDrive/Desktop/GD32VW553/V1_MQTT_OK/GD32VW55X_Wifi_BLE_SDK/GD32VW55x_RELEASE_V1.0.2/MSDK/wpa_supplicant/src/rsn_supp\pmksa_cache.c **** 			    sm->cur_pmksa->pmkid, PMKID_LEN);
 1992              		.loc 1 607 3 is_stmt 1
 608:C:/Users/stapi/OneDrive/Desktop/GD32VW553/V1_MQTT_OK/GD32VW55X_Wifi_BLE_SDK/GD32VW55x_RELEASE_V1.0.2/MSDK/wpa_supplicant/src/rsn_supp\pmksa_cache.c **** 		return 0;
 1993              		.loc 1 608 21 is_stmt 0
 1994 017e 0326043C 		lw	a2,960(s0)
 607:C:/Users/stapi/OneDrive/Desktop/GD32VW553/V1_MQTT_OK/GD32VW55X_Wifi_BLE_SDK/GD32VW55x_RELEASE_V1.0.2/MSDK/wpa_supplicant/src/rsn_supp\pmksa_cache.c **** 			    sm->cur_pmksa->pmkid, PMKID_LEN);
 1995              		.loc 1 607 3
 1996 0182 B7050000 		lui	a1,%hi(.LC16)
 1997 0186 0945     		li	a0,2
 1998 0188 C146     		li	a3,16
 1999 018a 1106     		addi	a2,a2,4
 2000 018c 93850500 		addi	a1,a1,%lo(.LC16)
 2001 0190 97000000 		call	wpa_hexdump
 2001      E7800000 
 2002              	.LVL187:
 609:C:/Users/stapi/OneDrive/Desktop/GD32VW553/V1_MQTT_OK/GD32VW55X_Wifi_BLE_SDK/GD32VW55x_RELEASE_V1.0.2/MSDK/wpa_supplicant/src/rsn_supp\pmksa_cache.c **** 	}
 2003              		.loc 1 609 3 is_stmt 1
 609:C:/Users/stapi/OneDrive/Desktop/GD32VW553/V1_MQTT_OK/GD32VW55X_Wifi_BLE_SDK/GD32VW55x_RELEASE_V1.0.2/MSDK/wpa_supplicant/src/rsn_supp\pmksa_cache.c **** 	}
 2004              		.loc 1 609 10 is_stmt 0
 2005 0198 0145     		li	a0,0
 2006              	.L199:
 2007              	.LBE111:
 613:C:/Users/stapi/OneDrive/Desktop/GD32VW553/V1_MQTT_OK/GD32VW55X_Wifi_BLE_SDK/GD32VW55x_RELEASE_V1.0.2/MSDK/wpa_supplicant/src/rsn_supp\pmksa_cache.c **** }
 2008              		.loc 1 613 1
 2009 019a 4101     		addi	sp,sp,16
 2010              		.cfi_remember_state
 2011              		.cfi_def_cfa_offset 0
 2012 019c 17030000 		tail	__riscv_restore_8
 2012      67000300 
 2013              		.cfi_restore 23
 2014              		.cfi_restore 22
 2015              		.cfi_restore 21
 2016              		.cfi_restore 20
 2017              		.cfi_restore 19
 2018              		.cfi_restore 18
 2019              		.cfi_restore 9
 2020              		.cfi_restore 8
 2021              		.cfi_restore 1
 2022              		.cfi_def_cfa_offset -48
 2023              	.L216:
 2024              		.cfi_restore_state
 611:C:/Users/stapi/OneDrive/Desktop/GD32VW553/V1_MQTT_OK/GD32VW55X_Wifi_BLE_SDK/GD32VW55x_RELEASE_V1.0.2/MSDK/wpa_supplicant/src/rsn_supp\pmksa_cache.c **** 	return -1;
 2025              		.loc 1 611 2 is_stmt 1
 2026 01a4 B7050000 		lui	a1,%hi(.LC17)
 2027 01a8 93850500 		addi	a1,a1,%lo(.LC17)
 2028 01ac 0945     		li	a0,2
 2029 01ae 97000000 		call	wpa_printf
 2029      E7800000 
 2030              	.LVL188:
 2031 01b6 85BF     		j	.L247
 2032              		.cfi_endproc
 2033              	.LFE174:
 2035              		.section	.rodata.pmksa_cache_list.str1.4,"aMS",@progbits,1
 2036              		.align	2
 2037              	.LC18:
 2038 0000 202F2046 		.string	" / FILS Cache Identifier"
 2038      494C5320 
 2038      43616368 
 2038      65204964 
 2038      656E7469 
 2039 0019 000000   		.align	2
 2040              	.LC19:
 2041 001c 00       		.string	""
 2042 001d 000000   		.align	2
 2043              	.LC20:
 2044 0020 496E6465 		.string	"Index / AA / PMKID / expiration (in seconds) / opportunistic%s\n"
 2044      78202F20 
 2044      4141202F 
 2044      20504D4B 
 2044      4944202F 
 2045              		.align	2
 2046              	.LC21:
 2047 0060 25642025 		.string	"%d %02x:%02x:%02x:%02x:%02x:%02x "
 2047      3032783A 
 2047      25303278 
 2047      3A253032 
 2047      783A2530 
 2048 0082 0000     		.align	2
 2049              	.LC22:
 2050 0084 20256420 		.string	" %d %d"
 2050      256400
 2051 008b 00       		.align	2
 2052              	.LC23:
 2053 008c 20253032 		.string	" %02x%02x"
 2053      78253032 
 2053      7800
 2054 0096 0000     		.align	2
 2055              	.LC24:
 2056 0098 0A00     		.string	"\n"
 2057              		.section	.text.pmksa_cache_list,"ax",@progbits
 2058              		.align	1
 2059              		.globl	pmksa_cache_list
 2061              	pmksa_cache_list:
 2062              	.LFB175:
 614:C:/Users/stapi/OneDrive/Desktop/GD32VW553/V1_MQTT_OK/GD32VW55X_Wifi_BLE_SDK/GD32VW55x_RELEASE_V1.0.2/MSDK/wpa_supplicant/src/rsn_supp\pmksa_cache.c **** 
 615:C:/Users/stapi/OneDrive/Desktop/GD32VW553/V1_MQTT_OK/GD32VW55X_Wifi_BLE_SDK/GD32VW55x_RELEASE_V1.0.2/MSDK/wpa_supplicant/src/rsn_supp\pmksa_cache.c **** 
 616:C:/Users/stapi/OneDrive/Desktop/GD32VW553/V1_MQTT_OK/GD32VW55X_Wifi_BLE_SDK/GD32VW55x_RELEASE_V1.0.2/MSDK/wpa_supplicant/src/rsn_supp\pmksa_cache.c **** /**
 617:C:/Users/stapi/OneDrive/Desktop/GD32VW553/V1_MQTT_OK/GD32VW55X_Wifi_BLE_SDK/GD32VW55x_RELEASE_V1.0.2/MSDK/wpa_supplicant/src/rsn_supp\pmksa_cache.c ****  * pmksa_cache_list - Dump text list of entries in PMKSA cache
 618:C:/Users/stapi/OneDrive/Desktop/GD32VW553/V1_MQTT_OK/GD32VW55X_Wifi_BLE_SDK/GD32VW55x_RELEASE_V1.0.2/MSDK/wpa_supplicant/src/rsn_supp\pmksa_cache.c ****  * @pmksa: Pointer to PMKSA cache data from pmksa_cache_init()
 619:C:/Users/stapi/OneDrive/Desktop/GD32VW553/V1_MQTT_OK/GD32VW55X_Wifi_BLE_SDK/GD32VW55x_RELEASE_V1.0.2/MSDK/wpa_supplicant/src/rsn_supp\pmksa_cache.c ****  * @buf: Buffer for the list
 620:C:/Users/stapi/OneDrive/Desktop/GD32VW553/V1_MQTT_OK/GD32VW55X_Wifi_BLE_SDK/GD32VW55x_RELEASE_V1.0.2/MSDK/wpa_supplicant/src/rsn_supp\pmksa_cache.c ****  * @len: Length of the buffer
 621:C:/Users/stapi/OneDrive/Desktop/GD32VW553/V1_MQTT_OK/GD32VW55X_Wifi_BLE_SDK/GD32VW55x_RELEASE_V1.0.2/MSDK/wpa_supplicant/src/rsn_supp\pmksa_cache.c ****  * Returns: number of bytes written to buffer
 622:C:/Users/stapi/OneDrive/Desktop/GD32VW553/V1_MQTT_OK/GD32VW55X_Wifi_BLE_SDK/GD32VW55x_RELEASE_V1.0.2/MSDK/wpa_supplicant/src/rsn_supp\pmksa_cache.c ****  *
 623:C:/Users/stapi/OneDrive/Desktop/GD32VW553/V1_MQTT_OK/GD32VW55X_Wifi_BLE_SDK/GD32VW55x_RELEASE_V1.0.2/MSDK/wpa_supplicant/src/rsn_supp\pmksa_cache.c ****  * This function is used to generate a text format representation of the
 624:C:/Users/stapi/OneDrive/Desktop/GD32VW553/V1_MQTT_OK/GD32VW55X_Wifi_BLE_SDK/GD32VW55x_RELEASE_V1.0.2/MSDK/wpa_supplicant/src/rsn_supp\pmksa_cache.c ****  * current PMKSA cache contents for the ctrl_iface PMKSA command.
 625:C:/Users/stapi/OneDrive/Desktop/GD32VW553/V1_MQTT_OK/GD32VW55X_Wifi_BLE_SDK/GD32VW55x_RELEASE_V1.0.2/MSDK/wpa_supplicant/src/rsn_supp\pmksa_cache.c ****  */
 626:C:/Users/stapi/OneDrive/Desktop/GD32VW553/V1_MQTT_OK/GD32VW55X_Wifi_BLE_SDK/GD32VW55x_RELEASE_V1.0.2/MSDK/wpa_supplicant/src/rsn_supp\pmksa_cache.c **** int pmksa_cache_list(struct rsn_pmksa_cache *pmksa, char *buf, size_t len)
 627:C:/Users/stapi/OneDrive/Desktop/GD32VW553/V1_MQTT_OK/GD32VW55X_Wifi_BLE_SDK/GD32VW55x_RELEASE_V1.0.2/MSDK/wpa_supplicant/src/rsn_supp\pmksa_cache.c **** {
 2063              		.loc 1 627 1
 2064              		.cfi_startproc
 2065              	.LVL189:
 2066 0000 17030000 		call	t0,__riscv_save_10
 2066      E7020300 
 2067              		.cfi_offset 25, -44
 2068              		.cfi_offset 24, -40
 2069              		.cfi_offset 23, -36
 2070              		.cfi_offset 22, -32
 2071              		.cfi_offset 21, -28
 2072              		.cfi_offset 20, -24
 2073              		.cfi_offset 19, -20
 2074              		.cfi_offset 18, -16
 2075              		.cfi_offset 9, -12
 2076              		.cfi_offset 8, -8
 2077              		.cfi_offset 1, -4
 2078              		.cfi_def_cfa_offset 48
 628:C:/Users/stapi/OneDrive/Desktop/GD32VW553/V1_MQTT_OK/GD32VW55X_Wifi_BLE_SDK/GD32VW55x_RELEASE_V1.0.2/MSDK/wpa_supplicant/src/rsn_supp\pmksa_cache.c **** 	int i, ret;
 2079              		.loc 1 628 2
 629:C:/Users/stapi/OneDrive/Desktop/GD32VW553/V1_MQTT_OK/GD32VW55X_Wifi_BLE_SDK/GD32VW55x_RELEASE_V1.0.2/MSDK/wpa_supplicant/src/rsn_supp\pmksa_cache.c **** 	char *pos = buf;
 2080              		.loc 1 629 2
 630:C:/Users/stapi/OneDrive/Desktop/GD32VW553/V1_MQTT_OK/GD32VW55X_Wifi_BLE_SDK/GD32VW55x_RELEASE_V1.0.2/MSDK/wpa_supplicant/src/rsn_supp\pmksa_cache.c **** 	struct rsn_pmksa_cache_entry *entry;
 631:C:/Users/stapi/OneDrive/Desktop/GD32VW553/V1_MQTT_OK/GD32VW55X_Wifi_BLE_SDK/GD32VW55x_RELEASE_V1.0.2/MSDK/wpa_supplicant/src/rsn_supp\pmksa_cache.c **** 	struct os_reltime now;
 632:C:/Users/stapi/OneDrive/Desktop/GD32VW553/V1_MQTT_OK/GD32VW55X_Wifi_BLE_SDK/GD32VW55x_RELEASE_V1.0.2/MSDK/wpa_supplicant/src/rsn_supp\pmksa_cache.c **** 	int cache_id_used = 0;
 633:C:/Users/stapi/OneDrive/Desktop/GD32VW553/V1_MQTT_OK/GD32VW55X_Wifi_BLE_SDK/GD32VW55x_RELEASE_V1.0.2/MSDK/wpa_supplicant/src/rsn_supp\pmksa_cache.c **** 
 634:C:/Users/stapi/OneDrive/Desktop/GD32VW553/V1_MQTT_OK/GD32VW55X_Wifi_BLE_SDK/GD32VW55x_RELEASE_V1.0.2/MSDK/wpa_supplicant/src/rsn_supp\pmksa_cache.c **** 	for (entry = pmksa->pmksa; entry; entry = entry->next) {
 2081              		.loc 1 634 13 is_stmt 0
 2082 0008 1C41     		lw	a5,0(a0)
 627:C:/Users/stapi/OneDrive/Desktop/GD32VW553/V1_MQTT_OK/GD32VW55X_Wifi_BLE_SDK/GD32VW55x_RELEASE_V1.0.2/MSDK/wpa_supplicant/src/rsn_supp\pmksa_cache.c **** 	int i, ret;
 2083              		.loc 1 627 1
 2084 000a 0111     		addi	sp,sp,-32
 2085              		.cfi_def_cfa_offset 80
 627:C:/Users/stapi/OneDrive/Desktop/GD32VW553/V1_MQTT_OK/GD32VW55X_Wifi_BLE_SDK/GD32VW55x_RELEASE_V1.0.2/MSDK/wpa_supplicant/src/rsn_supp\pmksa_cache.c **** 	int i, ret;
 2086              		.loc 1 627 1
 2087 000c AA84     		mv	s1,a0
 2088 000e AE89     		mv	s3,a1
 2089              	.LVL190:
 630:C:/Users/stapi/OneDrive/Desktop/GD32VW553/V1_MQTT_OK/GD32VW55X_Wifi_BLE_SDK/GD32VW55x_RELEASE_V1.0.2/MSDK/wpa_supplicant/src/rsn_supp\pmksa_cache.c **** 	struct rsn_pmksa_cache_entry *entry;
 2090              		.loc 1 630 2 is_stmt 1
 631:C:/Users/stapi/OneDrive/Desktop/GD32VW553/V1_MQTT_OK/GD32VW55X_Wifi_BLE_SDK/GD32VW55x_RELEASE_V1.0.2/MSDK/wpa_supplicant/src/rsn_supp\pmksa_cache.c **** 	int cache_id_used = 0;
 2091              		.loc 1 631 2
 632:C:/Users/stapi/OneDrive/Desktop/GD32VW553/V1_MQTT_OK/GD32VW55X_Wifi_BLE_SDK/GD32VW55x_RELEASE_V1.0.2/MSDK/wpa_supplicant/src/rsn_supp\pmksa_cache.c **** 
 2092              		.loc 1 632 2
 2093              		.loc 1 634 2
 627:C:/Users/stapi/OneDrive/Desktop/GD32VW553/V1_MQTT_OK/GD32VW55X_Wifi_BLE_SDK/GD32VW55x_RELEASE_V1.0.2/MSDK/wpa_supplicant/src/rsn_supp\pmksa_cache.c **** 	int i, ret;
 2094              		.loc 1 627 1 is_stmt 0
 2095 0010 3289     		mv	s2,a2
 2096              	.L249:
 2097              		.loc 1 634 29 is_stmt 1 discriminator 1
 2098              		.loc 1 634 2 is_stmt 0 discriminator 1
 2099 0012 F1EB     		bne	a5,zero,.L251
 632:C:/Users/stapi/OneDrive/Desktop/GD32VW553/V1_MQTT_OK/GD32VW55X_Wifi_BLE_SDK/GD32VW55x_RELEASE_V1.0.2/MSDK/wpa_supplicant/src/rsn_supp\pmksa_cache.c **** 
 2100              		.loc 1 632 6
 2101 0014 0144     		li	s0,0
 2102              	.L250:
 2103              	.LVL191:
 635:C:/Users/stapi/OneDrive/Desktop/GD32VW553/V1_MQTT_OK/GD32VW55X_Wifi_BLE_SDK/GD32VW55x_RELEASE_V1.0.2/MSDK/wpa_supplicant/src/rsn_supp\pmksa_cache.c **** 		if (entry->fils_cache_id_set) {
 636:C:/Users/stapi/OneDrive/Desktop/GD32VW553/V1_MQTT_OK/GD32VW55X_Wifi_BLE_SDK/GD32VW55x_RELEASE_V1.0.2/MSDK/wpa_supplicant/src/rsn_supp\pmksa_cache.c **** 			cache_id_used = 1;
 637:C:/Users/stapi/OneDrive/Desktop/GD32VW553/V1_MQTT_OK/GD32VW55X_Wifi_BLE_SDK/GD32VW55x_RELEASE_V1.0.2/MSDK/wpa_supplicant/src/rsn_supp\pmksa_cache.c **** 			break;
 638:C:/Users/stapi/OneDrive/Desktop/GD32VW553/V1_MQTT_OK/GD32VW55X_Wifi_BLE_SDK/GD32VW55x_RELEASE_V1.0.2/MSDK/wpa_supplicant/src/rsn_supp\pmksa_cache.c **** 		}
 639:C:/Users/stapi/OneDrive/Desktop/GD32VW553/V1_MQTT_OK/GD32VW55X_Wifi_BLE_SDK/GD32VW55x_RELEASE_V1.0.2/MSDK/wpa_supplicant/src/rsn_supp\pmksa_cache.c **** 	}
 640:C:/Users/stapi/OneDrive/Desktop/GD32VW553/V1_MQTT_OK/GD32VW55X_Wifi_BLE_SDK/GD32VW55x_RELEASE_V1.0.2/MSDK/wpa_supplicant/src/rsn_supp\pmksa_cache.c **** 
 641:C:/Users/stapi/OneDrive/Desktop/GD32VW553/V1_MQTT_OK/GD32VW55X_Wifi_BLE_SDK/GD32VW55x_RELEASE_V1.0.2/MSDK/wpa_supplicant/src/rsn_supp\pmksa_cache.c **** 	os_get_reltime(&now);
 2104              		.loc 1 641 2 is_stmt 1
 2105 0016 2808     		addi	a0,sp,24
 2106              	.LVL192:
 2107 0018 97000000 		call	os_get_reltime
 2107      E7800000 
 2108              	.LVL193:
 642:C:/Users/stapi/OneDrive/Desktop/GD32VW553/V1_MQTT_OK/GD32VW55X_Wifi_BLE_SDK/GD32VW55x_RELEASE_V1.0.2/MSDK/wpa_supplicant/src/rsn_supp\pmksa_cache.c **** 	ret = os_snprintf(pos, buf + len - pos,
 2109              		.loc 1 642 2
 2110              		.loc 1 642 8 is_stmt 0
 2111 0020 79E8     		bne	s0,zero,.L264
 2112 0022 B7060000 		lui	a3,%hi(.LC19)
 2113 0026 93860600 		addi	a3,a3,%lo(.LC19)
 2114              	.L252:
 2115              		.loc 1 642 8 discriminator 4
 2116 002a 37060000 		lui	a2,%hi(.LC20)
 2117 002e 13060600 		addi	a2,a2,%lo(.LC20)
 2118 0032 CA85     		mv	a1,s2
 2119 0034 4E85     		mv	a0,s3
 2120 0036 97000000 		call	os_snprintf
 2120      E7800000 
 2121              	.LVL194:
 2122 003e 2A84     		mv	s0,a0
 2123              	.LVL195:
 643:C:/Users/stapi/OneDrive/Desktop/GD32VW553/V1_MQTT_OK/GD32VW55X_Wifi_BLE_SDK/GD32VW55x_RELEASE_V1.0.2/MSDK/wpa_supplicant/src/rsn_supp\pmksa_cache.c **** 			  "Index / AA / PMKID / expiration (in seconds) / "
 644:C:/Users/stapi/OneDrive/Desktop/GD32VW553/V1_MQTT_OK/GD32VW55X_Wifi_BLE_SDK/GD32VW55x_RELEASE_V1.0.2/MSDK/wpa_supplicant/src/rsn_supp\pmksa_cache.c **** 			  "opportunistic%s\n",
 645:C:/Users/stapi/OneDrive/Desktop/GD32VW553/V1_MQTT_OK/GD32VW55X_Wifi_BLE_SDK/GD32VW55x_RELEASE_V1.0.2/MSDK/wpa_supplicant/src/rsn_supp\pmksa_cache.c **** 			  cache_id_used ? " / FILS Cache Identifier" : "");
 646:C:/Users/stapi/OneDrive/Desktop/GD32VW553/V1_MQTT_OK/GD32VW55X_Wifi_BLE_SDK/GD32VW55x_RELEASE_V1.0.2/MSDK/wpa_supplicant/src/rsn_supp\pmksa_cache.c **** 	if (os_snprintf_error(buf + len - pos, ret))
 2124              		.loc 1 646 2 is_stmt 1 discriminator 4
 2125              	.LBB112:
 2126              	.LBB113:
 2127              		.file 5 "..\\..\\..\\..\\wpa_supplicant\\src\\utils/os.h"
   1:..\..\..\..\wpa_supplicant\src\utils/os.h **** /*
   2:..\..\..\..\wpa_supplicant\src\utils/os.h ****  * OS specific functions
   3:..\..\..\..\wpa_supplicant\src\utils/os.h ****  * Copyright (c) 2005-2009, Jouni Malinen <j@w1.fi>
   4:..\..\..\..\wpa_supplicant\src\utils/os.h ****  *
   5:..\..\..\..\wpa_supplicant\src\utils/os.h ****  * This software may be distributed under the terms of the BSD license.
   6:..\..\..\..\wpa_supplicant\src\utils/os.h ****  * See README for more details.
   7:..\..\..\..\wpa_supplicant\src\utils/os.h ****  */
   8:..\..\..\..\wpa_supplicant\src\utils/os.h **** 
   9:..\..\..\..\wpa_supplicant\src\utils/os.h **** #ifndef OS_H
  10:..\..\..\..\wpa_supplicant\src\utils/os.h **** #define OS_H
  11:..\..\..\..\wpa_supplicant\src\utils/os.h **** 
  12:..\..\..\..\wpa_supplicant\src\utils/os.h **** typedef long os_time_t;
  13:..\..\..\..\wpa_supplicant\src\utils/os.h **** 
  14:..\..\..\..\wpa_supplicant\src\utils/os.h **** /**
  15:..\..\..\..\wpa_supplicant\src\utils/os.h ****  * os_sleep - Sleep (sec, usec)
  16:..\..\..\..\wpa_supplicant\src\utils/os.h ****  * @sec: Number of seconds to sleep
  17:..\..\..\..\wpa_supplicant\src\utils/os.h ****  * @usec: Number of microseconds to sleep
  18:..\..\..\..\wpa_supplicant\src\utils/os.h ****  */
  19:..\..\..\..\wpa_supplicant\src\utils/os.h **** void os_sleep(os_time_t sec, os_time_t usec);
  20:..\..\..\..\wpa_supplicant\src\utils/os.h **** 
  21:..\..\..\..\wpa_supplicant\src\utils/os.h **** struct os_time {
  22:..\..\..\..\wpa_supplicant\src\utils/os.h **** 	os_time_t sec;
  23:..\..\..\..\wpa_supplicant\src\utils/os.h **** 	os_time_t usec;
  24:..\..\..\..\wpa_supplicant\src\utils/os.h **** };
  25:..\..\..\..\wpa_supplicant\src\utils/os.h **** 
  26:..\..\..\..\wpa_supplicant\src\utils/os.h **** struct os_reltime {
  27:..\..\..\..\wpa_supplicant\src\utils/os.h **** 	os_time_t sec;
  28:..\..\..\..\wpa_supplicant\src\utils/os.h **** 	os_time_t usec;
  29:..\..\..\..\wpa_supplicant\src\utils/os.h **** };
  30:..\..\..\..\wpa_supplicant\src\utils/os.h **** 
  31:..\..\..\..\wpa_supplicant\src\utils/os.h **** /**
  32:..\..\..\..\wpa_supplicant\src\utils/os.h ****  * os_get_time - Get current time (sec, usec)
  33:..\..\..\..\wpa_supplicant\src\utils/os.h ****  * @t: Pointer to buffer for the time
  34:..\..\..\..\wpa_supplicant\src\utils/os.h ****  * Returns: 0 on success, -1 on failure
  35:..\..\..\..\wpa_supplicant\src\utils/os.h ****  */
  36:..\..\..\..\wpa_supplicant\src\utils/os.h **** int os_get_time(struct os_time *t);
  37:..\..\..\..\wpa_supplicant\src\utils/os.h **** 
  38:..\..\..\..\wpa_supplicant\src\utils/os.h **** /**
  39:..\..\..\..\wpa_supplicant\src\utils/os.h ****  * os_get_reltime - Get relative time (sec, usec)
  40:..\..\..\..\wpa_supplicant\src\utils/os.h ****  * @t: Pointer to buffer for the time
  41:..\..\..\..\wpa_supplicant\src\utils/os.h ****  * Returns: 0 on success, -1 on failure
  42:..\..\..\..\wpa_supplicant\src\utils/os.h ****  */
  43:..\..\..\..\wpa_supplicant\src\utils/os.h **** int os_get_reltime(struct os_reltime *t);
  44:..\..\..\..\wpa_supplicant\src\utils/os.h **** 
  45:..\..\..\..\wpa_supplicant\src\utils/os.h **** 
  46:..\..\..\..\wpa_supplicant\src\utils/os.h **** /* Helpers for handling struct os_time */
  47:..\..\..\..\wpa_supplicant\src\utils/os.h **** 
  48:..\..\..\..\wpa_supplicant\src\utils/os.h **** static inline int os_time_before(struct os_time *a, struct os_time *b)
  49:..\..\..\..\wpa_supplicant\src\utils/os.h **** {
  50:..\..\..\..\wpa_supplicant\src\utils/os.h **** 	return (a->sec < b->sec) ||
  51:..\..\..\..\wpa_supplicant\src\utils/os.h **** 	       (a->sec == b->sec && a->usec < b->usec);
  52:..\..\..\..\wpa_supplicant\src\utils/os.h **** }
  53:..\..\..\..\wpa_supplicant\src\utils/os.h **** 
  54:..\..\..\..\wpa_supplicant\src\utils/os.h **** 
  55:..\..\..\..\wpa_supplicant\src\utils/os.h **** static inline void os_time_sub(struct os_time *a, struct os_time *b,
  56:..\..\..\..\wpa_supplicant\src\utils/os.h **** 			       struct os_time *res)
  57:..\..\..\..\wpa_supplicant\src\utils/os.h **** {
  58:..\..\..\..\wpa_supplicant\src\utils/os.h **** 	res->sec = a->sec - b->sec;
  59:..\..\..\..\wpa_supplicant\src\utils/os.h **** 	res->usec = a->usec - b->usec;
  60:..\..\..\..\wpa_supplicant\src\utils/os.h **** 	if (res->usec < 0) {
  61:..\..\..\..\wpa_supplicant\src\utils/os.h **** 		res->sec--;
  62:..\..\..\..\wpa_supplicant\src\utils/os.h **** 		res->usec += 1000000;
  63:..\..\..\..\wpa_supplicant\src\utils/os.h **** 	}
  64:..\..\..\..\wpa_supplicant\src\utils/os.h **** }
  65:..\..\..\..\wpa_supplicant\src\utils/os.h **** 
  66:..\..\..\..\wpa_supplicant\src\utils/os.h **** 
  67:..\..\..\..\wpa_supplicant\src\utils/os.h **** /* Helpers for handling struct os_reltime */
  68:..\..\..\..\wpa_supplicant\src\utils/os.h **** 
  69:..\..\..\..\wpa_supplicant\src\utils/os.h **** static inline int os_reltime_before(struct os_reltime *a,
  70:..\..\..\..\wpa_supplicant\src\utils/os.h **** 				    struct os_reltime *b)
  71:..\..\..\..\wpa_supplicant\src\utils/os.h **** {
  72:..\..\..\..\wpa_supplicant\src\utils/os.h **** 	return (a->sec < b->sec) ||
  73:..\..\..\..\wpa_supplicant\src\utils/os.h **** 	       (a->sec == b->sec && a->usec < b->usec);
  74:..\..\..\..\wpa_supplicant\src\utils/os.h **** }
  75:..\..\..\..\wpa_supplicant\src\utils/os.h **** 
  76:..\..\..\..\wpa_supplicant\src\utils/os.h **** 
  77:..\..\..\..\wpa_supplicant\src\utils/os.h **** static inline void os_reltime_sub(struct os_reltime *a, struct os_reltime *b,
  78:..\..\..\..\wpa_supplicant\src\utils/os.h **** 				  struct os_reltime *res)
  79:..\..\..\..\wpa_supplicant\src\utils/os.h **** {
  80:..\..\..\..\wpa_supplicant\src\utils/os.h **** 	res->sec = a->sec - b->sec;
  81:..\..\..\..\wpa_supplicant\src\utils/os.h **** 	res->usec = a->usec - b->usec;
  82:..\..\..\..\wpa_supplicant\src\utils/os.h **** 	if (res->usec < 0) {
  83:..\..\..\..\wpa_supplicant\src\utils/os.h **** 		res->sec--;
  84:..\..\..\..\wpa_supplicant\src\utils/os.h **** 		res->usec += 1000000;
  85:..\..\..\..\wpa_supplicant\src\utils/os.h **** 	}
  86:..\..\..\..\wpa_supplicant\src\utils/os.h **** }
  87:..\..\..\..\wpa_supplicant\src\utils/os.h **** 
  88:..\..\..\..\wpa_supplicant\src\utils/os.h **** 
  89:..\..\..\..\wpa_supplicant\src\utils/os.h **** static inline void os_reltime_age(struct os_reltime *start,
  90:..\..\..\..\wpa_supplicant\src\utils/os.h **** 				  struct os_reltime *age)
  91:..\..\..\..\wpa_supplicant\src\utils/os.h **** {
  92:..\..\..\..\wpa_supplicant\src\utils/os.h **** 	struct os_reltime now;
  93:..\..\..\..\wpa_supplicant\src\utils/os.h **** 
  94:..\..\..\..\wpa_supplicant\src\utils/os.h **** 	os_get_reltime(&now);
  95:..\..\..\..\wpa_supplicant\src\utils/os.h **** 	os_reltime_sub(&now, start, age);
  96:..\..\..\..\wpa_supplicant\src\utils/os.h **** }
  97:..\..\..\..\wpa_supplicant\src\utils/os.h **** 
  98:..\..\..\..\wpa_supplicant\src\utils/os.h **** 
  99:..\..\..\..\wpa_supplicant\src\utils/os.h **** static inline int os_reltime_expired(struct os_reltime *now,
 100:..\..\..\..\wpa_supplicant\src\utils/os.h **** 				     struct os_reltime *ts,
 101:..\..\..\..\wpa_supplicant\src\utils/os.h **** 				     os_time_t timeout_secs)
 102:..\..\..\..\wpa_supplicant\src\utils/os.h **** {
 103:..\..\..\..\wpa_supplicant\src\utils/os.h **** 	struct os_reltime age;
 104:..\..\..\..\wpa_supplicant\src\utils/os.h **** 
 105:..\..\..\..\wpa_supplicant\src\utils/os.h **** 	os_reltime_sub(now, ts, &age);
 106:..\..\..\..\wpa_supplicant\src\utils/os.h **** 	return (age.sec > timeout_secs) ||
 107:..\..\..\..\wpa_supplicant\src\utils/os.h **** 	       (age.sec == timeout_secs && age.usec > 0);
 108:..\..\..\..\wpa_supplicant\src\utils/os.h **** }
 109:..\..\..\..\wpa_supplicant\src\utils/os.h **** 
 110:..\..\..\..\wpa_supplicant\src\utils/os.h **** 
 111:..\..\..\..\wpa_supplicant\src\utils/os.h **** static inline int os_reltime_initialized(struct os_reltime *t)
 112:..\..\..\..\wpa_supplicant\src\utils/os.h **** {
 113:..\..\..\..\wpa_supplicant\src\utils/os.h **** 	return t->sec != 0 || t->usec != 0;
 114:..\..\..\..\wpa_supplicant\src\utils/os.h **** }
 115:..\..\..\..\wpa_supplicant\src\utils/os.h **** 
 116:..\..\..\..\wpa_supplicant\src\utils/os.h **** 
 117:..\..\..\..\wpa_supplicant\src\utils/os.h **** /**
 118:..\..\..\..\wpa_supplicant\src\utils/os.h ****  * os_mktime - Convert broken-down time into seconds since 1970-01-01
 119:..\..\..\..\wpa_supplicant\src\utils/os.h ****  * @year: Four digit year
 120:..\..\..\..\wpa_supplicant\src\utils/os.h ****  * @month: Month (1 .. 12)
 121:..\..\..\..\wpa_supplicant\src\utils/os.h ****  * @day: Day of month (1 .. 31)
 122:..\..\..\..\wpa_supplicant\src\utils/os.h ****  * @hour: Hour (0 .. 23)
 123:..\..\..\..\wpa_supplicant\src\utils/os.h ****  * @min: Minute (0 .. 59)
 124:..\..\..\..\wpa_supplicant\src\utils/os.h ****  * @sec: Second (0 .. 60)
 125:..\..\..\..\wpa_supplicant\src\utils/os.h ****  * @t: Buffer for returning calendar time representation (seconds since
 126:..\..\..\..\wpa_supplicant\src\utils/os.h ****  * 1970-01-01 00:00:00)
 127:..\..\..\..\wpa_supplicant\src\utils/os.h ****  * Returns: 0 on success, -1 on failure
 128:..\..\..\..\wpa_supplicant\src\utils/os.h ****  *
 129:..\..\..\..\wpa_supplicant\src\utils/os.h ****  * Note: The result is in seconds from Epoch, i.e., in UTC, not in local time
 130:..\..\..\..\wpa_supplicant\src\utils/os.h ****  * which is used by POSIX mktime().
 131:..\..\..\..\wpa_supplicant\src\utils/os.h ****  */
 132:..\..\..\..\wpa_supplicant\src\utils/os.h **** int os_mktime(int year, int month, int day, int hour, int min, int sec,
 133:..\..\..\..\wpa_supplicant\src\utils/os.h **** 	      os_time_t *t);
 134:..\..\..\..\wpa_supplicant\src\utils/os.h **** 
 135:..\..\..\..\wpa_supplicant\src\utils/os.h **** struct os_tm {
 136:..\..\..\..\wpa_supplicant\src\utils/os.h **** 	int sec; /* 0..59 or 60 for leap seconds */
 137:..\..\..\..\wpa_supplicant\src\utils/os.h **** 	int min; /* 0..59 */
 138:..\..\..\..\wpa_supplicant\src\utils/os.h **** 	int hour; /* 0..23 */
 139:..\..\..\..\wpa_supplicant\src\utils/os.h **** 	int day; /* 1..31 */
 140:..\..\..\..\wpa_supplicant\src\utils/os.h **** 	int month; /* 1..12 */
 141:..\..\..\..\wpa_supplicant\src\utils/os.h **** 	int year; /* Four digit year */
 142:..\..\..\..\wpa_supplicant\src\utils/os.h **** };
 143:..\..\..\..\wpa_supplicant\src\utils/os.h **** 
 144:..\..\..\..\wpa_supplicant\src\utils/os.h **** int os_gmtime(os_time_t t, struct os_tm *tm);
 145:..\..\..\..\wpa_supplicant\src\utils/os.h **** 
 146:..\..\..\..\wpa_supplicant\src\utils/os.h **** /**
 147:..\..\..\..\wpa_supplicant\src\utils/os.h ****  * os_daemonize - Run in the background (detach from the controlling terminal)
 148:..\..\..\..\wpa_supplicant\src\utils/os.h ****  * @pid_file: File name to write the process ID to or %NULL to skip this
 149:..\..\..\..\wpa_supplicant\src\utils/os.h ****  * Returns: 0 on success, -1 on failure
 150:..\..\..\..\wpa_supplicant\src\utils/os.h ****  */
 151:..\..\..\..\wpa_supplicant\src\utils/os.h **** int os_daemonize(const char *pid_file);
 152:..\..\..\..\wpa_supplicant\src\utils/os.h **** 
 153:..\..\..\..\wpa_supplicant\src\utils/os.h **** /**
 154:..\..\..\..\wpa_supplicant\src\utils/os.h ****  * os_daemonize_terminate - Stop running in the background (remove pid file)
 155:..\..\..\..\wpa_supplicant\src\utils/os.h ****  * @pid_file: File name to write the process ID to or %NULL to skip this
 156:..\..\..\..\wpa_supplicant\src\utils/os.h ****  */
 157:..\..\..\..\wpa_supplicant\src\utils/os.h **** void os_daemonize_terminate(const char *pid_file);
 158:..\..\..\..\wpa_supplicant\src\utils/os.h **** 
 159:..\..\..\..\wpa_supplicant\src\utils/os.h **** /**
 160:..\..\..\..\wpa_supplicant\src\utils/os.h ****  * os_get_random - Get cryptographically strong pseudo random data
 161:..\..\..\..\wpa_supplicant\src\utils/os.h ****  * @buf: Buffer for pseudo random data
 162:..\..\..\..\wpa_supplicant\src\utils/os.h ****  * @len: Length of the buffer
 163:..\..\..\..\wpa_supplicant\src\utils/os.h ****  * Returns: 0 on success, -1 on failure
 164:..\..\..\..\wpa_supplicant\src\utils/os.h ****  */
 165:..\..\..\..\wpa_supplicant\src\utils/os.h **** int os_get_random(unsigned char *buf, size_t len);
 166:..\..\..\..\wpa_supplicant\src\utils/os.h **** 
 167:..\..\..\..\wpa_supplicant\src\utils/os.h **** /**
 168:..\..\..\..\wpa_supplicant\src\utils/os.h ****  * os_random - Get pseudo random value (not necessarily very strong)
 169:..\..\..\..\wpa_supplicant\src\utils/os.h ****  * Returns: Pseudo random value
 170:..\..\..\..\wpa_supplicant\src\utils/os.h ****  */
 171:..\..\..\..\wpa_supplicant\src\utils/os.h **** unsigned long os_random(void);
 172:..\..\..\..\wpa_supplicant\src\utils/os.h **** 
 173:..\..\..\..\wpa_supplicant\src\utils/os.h **** /**
 174:..\..\..\..\wpa_supplicant\src\utils/os.h ****  * os_rel2abs_path - Get an absolute path for a file
 175:..\..\..\..\wpa_supplicant\src\utils/os.h ****  * @rel_path: Relative path to a file
 176:..\..\..\..\wpa_supplicant\src\utils/os.h ****  * Returns: Absolute path for the file or %NULL on failure
 177:..\..\..\..\wpa_supplicant\src\utils/os.h ****  *
 178:..\..\..\..\wpa_supplicant\src\utils/os.h ****  * This function tries to convert a relative path of a file to an absolute path
 179:..\..\..\..\wpa_supplicant\src\utils/os.h ****  * in order for the file to be found even if current working directory has
 180:..\..\..\..\wpa_supplicant\src\utils/os.h ****  * changed. The returned value is allocated and caller is responsible for
 181:..\..\..\..\wpa_supplicant\src\utils/os.h ****  * freeing it. It is acceptable to just return the same path in an allocated
 182:..\..\..\..\wpa_supplicant\src\utils/os.h ****  * buffer, e.g., return strdup(rel_path). This function is only used to find
 183:..\..\..\..\wpa_supplicant\src\utils/os.h ****  * configuration files when os_daemonize() may have changed the current working
 184:..\..\..\..\wpa_supplicant\src\utils/os.h ****  * directory and relative path would be pointing to a different location.
 185:..\..\..\..\wpa_supplicant\src\utils/os.h ****  */
 186:..\..\..\..\wpa_supplicant\src\utils/os.h **** char * os_rel2abs_path(const char *rel_path);
 187:..\..\..\..\wpa_supplicant\src\utils/os.h **** 
 188:..\..\..\..\wpa_supplicant\src\utils/os.h **** /**
 189:..\..\..\..\wpa_supplicant\src\utils/os.h ****  * os_program_init - Program initialization (called at start)
 190:..\..\..\..\wpa_supplicant\src\utils/os.h ****  * Returns: 0 on success, -1 on failure
 191:..\..\..\..\wpa_supplicant\src\utils/os.h ****  *
 192:..\..\..\..\wpa_supplicant\src\utils/os.h ****  * This function is called when a programs starts. If there are any OS specific
 193:..\..\..\..\wpa_supplicant\src\utils/os.h ****  * processing that is needed, it can be placed here. It is also acceptable to
 194:..\..\..\..\wpa_supplicant\src\utils/os.h ****  * just return 0 if not special processing is needed.
 195:..\..\..\..\wpa_supplicant\src\utils/os.h ****  */
 196:..\..\..\..\wpa_supplicant\src\utils/os.h **** int os_program_init(void);
 197:..\..\..\..\wpa_supplicant\src\utils/os.h **** 
 198:..\..\..\..\wpa_supplicant\src\utils/os.h **** /**
 199:..\..\..\..\wpa_supplicant\src\utils/os.h ****  * os_program_deinit - Program deinitialization (called just before exit)
 200:..\..\..\..\wpa_supplicant\src\utils/os.h ****  *
 201:..\..\..\..\wpa_supplicant\src\utils/os.h ****  * This function is called just before a program exists. If there are any OS
 202:..\..\..\..\wpa_supplicant\src\utils/os.h ****  * specific processing, e.g., freeing resourced allocated in os_program_init(),
 203:..\..\..\..\wpa_supplicant\src\utils/os.h ****  * it should be done here. It is also acceptable for this function to do
 204:..\..\..\..\wpa_supplicant\src\utils/os.h ****  * nothing.
 205:..\..\..\..\wpa_supplicant\src\utils/os.h ****  */
 206:..\..\..\..\wpa_supplicant\src\utils/os.h **** void os_program_deinit(void);
 207:..\..\..\..\wpa_supplicant\src\utils/os.h **** 
 208:..\..\..\..\wpa_supplicant\src\utils/os.h **** /**
 209:..\..\..\..\wpa_supplicant\src\utils/os.h ****  * os_setenv - Set environment variable
 210:..\..\..\..\wpa_supplicant\src\utils/os.h ****  * @name: Name of the variable
 211:..\..\..\..\wpa_supplicant\src\utils/os.h ****  * @value: Value to set to the variable
 212:..\..\..\..\wpa_supplicant\src\utils/os.h ****  * @overwrite: Whether existing variable should be overwritten
 213:..\..\..\..\wpa_supplicant\src\utils/os.h ****  * Returns: 0 on success, -1 on error
 214:..\..\..\..\wpa_supplicant\src\utils/os.h ****  *
 215:..\..\..\..\wpa_supplicant\src\utils/os.h ****  * This function is only used for wpa_cli action scripts. OS wrapper does not
 216:..\..\..\..\wpa_supplicant\src\utils/os.h ****  * need to implement this if such functionality is not needed.
 217:..\..\..\..\wpa_supplicant\src\utils/os.h ****  */
 218:..\..\..\..\wpa_supplicant\src\utils/os.h **** int os_setenv(const char *name, const char *value, int overwrite);
 219:..\..\..\..\wpa_supplicant\src\utils/os.h **** 
 220:..\..\..\..\wpa_supplicant\src\utils/os.h **** /**
 221:..\..\..\..\wpa_supplicant\src\utils/os.h ****  * os_unsetenv - Delete environent variable
 222:..\..\..\..\wpa_supplicant\src\utils/os.h ****  * @name: Name of the variable
 223:..\..\..\..\wpa_supplicant\src\utils/os.h ****  * Returns: 0 on success, -1 on error
 224:..\..\..\..\wpa_supplicant\src\utils/os.h ****  *
 225:..\..\..\..\wpa_supplicant\src\utils/os.h ****  * This function is only used for wpa_cli action scripts. OS wrapper does not
 226:..\..\..\..\wpa_supplicant\src\utils/os.h ****  * need to implement this if such functionality is not needed.
 227:..\..\..\..\wpa_supplicant\src\utils/os.h ****  */
 228:..\..\..\..\wpa_supplicant\src\utils/os.h **** int os_unsetenv(const char *name);
 229:..\..\..\..\wpa_supplicant\src\utils/os.h **** 
 230:..\..\..\..\wpa_supplicant\src\utils/os.h **** /**
 231:..\..\..\..\wpa_supplicant\src\utils/os.h ****  * os_readfile - Read a file to an allocated memory buffer
 232:..\..\..\..\wpa_supplicant\src\utils/os.h ****  * @name: Name of the file to read
 233:..\..\..\..\wpa_supplicant\src\utils/os.h ****  * @len: For returning the length of the allocated buffer
 234:..\..\..\..\wpa_supplicant\src\utils/os.h ****  * Returns: Pointer to the allocated buffer or %NULL on failure
 235:..\..\..\..\wpa_supplicant\src\utils/os.h ****  *
 236:..\..\..\..\wpa_supplicant\src\utils/os.h ****  * This function allocates memory and reads the given file to this buffer. Both
 237:..\..\..\..\wpa_supplicant\src\utils/os.h ****  * binary and text files can be read with this function. The caller is
 238:..\..\..\..\wpa_supplicant\src\utils/os.h ****  * responsible for freeing the returned buffer with os_free().
 239:..\..\..\..\wpa_supplicant\src\utils/os.h ****  */
 240:..\..\..\..\wpa_supplicant\src\utils/os.h **** char * os_readfile(const char *name, size_t *len);
 241:..\..\..\..\wpa_supplicant\src\utils/os.h **** 
 242:..\..\..\..\wpa_supplicant\src\utils/os.h **** /**
 243:..\..\..\..\wpa_supplicant\src\utils/os.h ****  * os_file_exists - Check whether the specified file exists
 244:..\..\..\..\wpa_supplicant\src\utils/os.h ****  * @fname: Path and name of the file
 245:..\..\..\..\wpa_supplicant\src\utils/os.h ****  * Returns: 1 if the file exists or 0 if not
 246:..\..\..\..\wpa_supplicant\src\utils/os.h ****  */
 247:..\..\..\..\wpa_supplicant\src\utils/os.h **** int os_file_exists(const char *fname);
 248:..\..\..\..\wpa_supplicant\src\utils/os.h **** 
 249:..\..\..\..\wpa_supplicant\src\utils/os.h **** /**
 250:..\..\..\..\wpa_supplicant\src\utils/os.h ****  * os_fdatasync - Sync a file's (for a given stream) state with storage device
 251:..\..\..\..\wpa_supplicant\src\utils/os.h ****  * @stream: the stream to be flushed
 252:..\..\..\..\wpa_supplicant\src\utils/os.h ****  * Returns: 0 if the operation succeeded or -1 on failure
 253:..\..\..\..\wpa_supplicant\src\utils/os.h ****  */
 254:..\..\..\..\wpa_supplicant\src\utils/os.h **** int os_fdatasync(FILE *stream);
 255:..\..\..\..\wpa_supplicant\src\utils/os.h **** 
 256:..\..\..\..\wpa_supplicant\src\utils/os.h **** /**
 257:..\..\..\..\wpa_supplicant\src\utils/os.h ****  * os_zalloc - Allocate and zero memory
 258:..\..\..\..\wpa_supplicant\src\utils/os.h ****  * @size: Number of bytes to allocate
 259:..\..\..\..\wpa_supplicant\src\utils/os.h ****  * Returns: Pointer to allocated and zeroed memory or %NULL on failure
 260:..\..\..\..\wpa_supplicant\src\utils/os.h ****  *
 261:..\..\..\..\wpa_supplicant\src\utils/os.h ****  * Caller is responsible for freeing the returned buffer with os_free().
 262:..\..\..\..\wpa_supplicant\src\utils/os.h ****  */
 263:..\..\..\..\wpa_supplicant\src\utils/os.h **** void * os_zalloc(size_t size);
 264:..\..\..\..\wpa_supplicant\src\utils/os.h **** 
 265:..\..\..\..\wpa_supplicant\src\utils/os.h **** /**
 266:..\..\..\..\wpa_supplicant\src\utils/os.h ****  * os_calloc - Allocate and zero memory for an array
 267:..\..\..\..\wpa_supplicant\src\utils/os.h ****  * @nmemb: Number of members in the array
 268:..\..\..\..\wpa_supplicant\src\utils/os.h ****  * @size: Number of bytes in each member
 269:..\..\..\..\wpa_supplicant\src\utils/os.h ****  * Returns: Pointer to allocated and zeroed memory or %NULL on failure
 270:..\..\..\..\wpa_supplicant\src\utils/os.h ****  *
 271:..\..\..\..\wpa_supplicant\src\utils/os.h ****  * This function can be used as a wrapper for os_zalloc(nmemb * size) when an
 272:..\..\..\..\wpa_supplicant\src\utils/os.h ****  * allocation is used for an array. The main benefit over os_zalloc() is in
 273:..\..\..\..\wpa_supplicant\src\utils/os.h ****  * having an extra check to catch integer overflows in multiplication.
 274:..\..\..\..\wpa_supplicant\src\utils/os.h ****  *
 275:..\..\..\..\wpa_supplicant\src\utils/os.h ****  * Caller is responsible for freeing the returned buffer with os_free().
 276:..\..\..\..\wpa_supplicant\src\utils/os.h ****  */
 277:..\..\..\..\wpa_supplicant\src\utils/os.h **** static inline void * os_calloc(size_t nmemb, size_t size)
 278:..\..\..\..\wpa_supplicant\src\utils/os.h **** {
 279:..\..\..\..\wpa_supplicant\src\utils/os.h **** 	if (size && nmemb > (~(size_t) 0) / size)
 280:..\..\..\..\wpa_supplicant\src\utils/os.h **** 		return NULL;
 281:..\..\..\..\wpa_supplicant\src\utils/os.h **** 	return os_zalloc(nmemb * size);
 282:..\..\..\..\wpa_supplicant\src\utils/os.h **** }
 283:..\..\..\..\wpa_supplicant\src\utils/os.h **** 
 284:..\..\..\..\wpa_supplicant\src\utils/os.h **** 
 285:..\..\..\..\wpa_supplicant\src\utils/os.h **** /*
 286:..\..\..\..\wpa_supplicant\src\utils/os.h ****  * The following functions are wrapper for standard ANSI C or POSIX functions.
 287:..\..\..\..\wpa_supplicant\src\utils/os.h ****  * By default, they are just defined to use the standard function name and no
 288:..\..\..\..\wpa_supplicant\src\utils/os.h ****  * os_*.c implementation is needed for them. This avoids extra function calls
 289:..\..\..\..\wpa_supplicant\src\utils/os.h ****  * by allowing the C pre-processor take care of the function name mapping.
 290:..\..\..\..\wpa_supplicant\src\utils/os.h ****  *
 291:..\..\..\..\wpa_supplicant\src\utils/os.h ****  * If the target system uses a C library that does not provide these functions,
 292:..\..\..\..\wpa_supplicant\src\utils/os.h ****  * build_config.h can be used to define the wrappers to use a different
 293:..\..\..\..\wpa_supplicant\src\utils/os.h ****  * function name. This can be done on function-by-function basis since the
 294:..\..\..\..\wpa_supplicant\src\utils/os.h ****  * defines here are only used if build_config.h does not define the os_* name.
 295:..\..\..\..\wpa_supplicant\src\utils/os.h ****  * If needed, os_*.c file can be used to implement the functions that are not
 296:..\..\..\..\wpa_supplicant\src\utils/os.h ****  * included in the C library on the target system. Alternatively,
 297:..\..\..\..\wpa_supplicant\src\utils/os.h ****  * OS_NO_C_LIB_DEFINES can be defined to skip all defines here in which case
 298:..\..\..\..\wpa_supplicant\src\utils/os.h ****  * these functions need to be implemented in os_*.c file for the target system.
 299:..\..\..\..\wpa_supplicant\src\utils/os.h ****  */
 300:..\..\..\..\wpa_supplicant\src\utils/os.h **** 
 301:..\..\..\..\wpa_supplicant\src\utils/os.h **** #ifdef OS_NO_C_LIB_DEFINES
 302:..\..\..\..\wpa_supplicant\src\utils/os.h **** 
 303:..\..\..\..\wpa_supplicant\src\utils/os.h **** /**
 304:..\..\..\..\wpa_supplicant\src\utils/os.h ****  * os_malloc - Allocate dynamic memory
 305:..\..\..\..\wpa_supplicant\src\utils/os.h ****  * @size: Size of the buffer to allocate
 306:..\..\..\..\wpa_supplicant\src\utils/os.h ****  * Returns: Allocated buffer or %NULL on failure
 307:..\..\..\..\wpa_supplicant\src\utils/os.h ****  *
 308:..\..\..\..\wpa_supplicant\src\utils/os.h ****  * Caller is responsible for freeing the returned buffer with os_free().
 309:..\..\..\..\wpa_supplicant\src\utils/os.h ****  */
 310:..\..\..\..\wpa_supplicant\src\utils/os.h **** void * os_malloc(size_t size);
 311:..\..\..\..\wpa_supplicant\src\utils/os.h **** 
 312:..\..\..\..\wpa_supplicant\src\utils/os.h **** /**
 313:..\..\..\..\wpa_supplicant\src\utils/os.h ****  * os_realloc - Re-allocate dynamic memory
 314:..\..\..\..\wpa_supplicant\src\utils/os.h ****  * @ptr: Old buffer from os_malloc() or os_realloc()
 315:..\..\..\..\wpa_supplicant\src\utils/os.h ****  * @size: Size of the new buffer
 316:..\..\..\..\wpa_supplicant\src\utils/os.h ****  * Returns: Allocated buffer or %NULL on failure
 317:..\..\..\..\wpa_supplicant\src\utils/os.h ****  *
 318:..\..\..\..\wpa_supplicant\src\utils/os.h ****  * Caller is responsible for freeing the returned buffer with os_free().
 319:..\..\..\..\wpa_supplicant\src\utils/os.h ****  * If re-allocation fails, %NULL is returned and the original buffer (ptr) is
 320:..\..\..\..\wpa_supplicant\src\utils/os.h ****  * not freed and caller is still responsible for freeing it.
 321:..\..\..\..\wpa_supplicant\src\utils/os.h ****  */
 322:..\..\..\..\wpa_supplicant\src\utils/os.h **** void * os_realloc(void *ptr, size_t size);
 323:..\..\..\..\wpa_supplicant\src\utils/os.h **** 
 324:..\..\..\..\wpa_supplicant\src\utils/os.h **** /**
 325:..\..\..\..\wpa_supplicant\src\utils/os.h ****  * os_free - Free dynamic memory
 326:..\..\..\..\wpa_supplicant\src\utils/os.h ****  * @ptr: Old buffer from os_malloc() or os_realloc(); can be %NULL
 327:..\..\..\..\wpa_supplicant\src\utils/os.h ****  */
 328:..\..\..\..\wpa_supplicant\src\utils/os.h **** void os_free(void *ptr);
 329:..\..\..\..\wpa_supplicant\src\utils/os.h **** 
 330:..\..\..\..\wpa_supplicant\src\utils/os.h **** /**
 331:..\..\..\..\wpa_supplicant\src\utils/os.h ****  * os_memcpy - Copy memory area
 332:..\..\..\..\wpa_supplicant\src\utils/os.h ****  * @dest: Destination
 333:..\..\..\..\wpa_supplicant\src\utils/os.h ****  * @src: Source
 334:..\..\..\..\wpa_supplicant\src\utils/os.h ****  * @n: Number of bytes to copy
 335:..\..\..\..\wpa_supplicant\src\utils/os.h ****  * Returns: dest
 336:..\..\..\..\wpa_supplicant\src\utils/os.h ****  *
 337:..\..\..\..\wpa_supplicant\src\utils/os.h ****  * The memory areas src and dst must not overlap. os_memmove() can be used with
 338:..\..\..\..\wpa_supplicant\src\utils/os.h ****  * overlapping memory.
 339:..\..\..\..\wpa_supplicant\src\utils/os.h ****  */
 340:..\..\..\..\wpa_supplicant\src\utils/os.h **** void * os_memcpy(void *dest, const void *src, size_t n);
 341:..\..\..\..\wpa_supplicant\src\utils/os.h **** 
 342:..\..\..\..\wpa_supplicant\src\utils/os.h **** /**
 343:..\..\..\..\wpa_supplicant\src\utils/os.h ****  * os_memmove - Copy memory area
 344:..\..\..\..\wpa_supplicant\src\utils/os.h ****  * @dest: Destination
 345:..\..\..\..\wpa_supplicant\src\utils/os.h ****  * @src: Source
 346:..\..\..\..\wpa_supplicant\src\utils/os.h ****  * @n: Number of bytes to copy
 347:..\..\..\..\wpa_supplicant\src\utils/os.h ****  * Returns: dest
 348:..\..\..\..\wpa_supplicant\src\utils/os.h ****  *
 349:..\..\..\..\wpa_supplicant\src\utils/os.h ****  * The memory areas src and dst may overlap.
 350:..\..\..\..\wpa_supplicant\src\utils/os.h ****  */
 351:..\..\..\..\wpa_supplicant\src\utils/os.h **** void * os_memmove(void *dest, const void *src, size_t n);
 352:..\..\..\..\wpa_supplicant\src\utils/os.h **** 
 353:..\..\..\..\wpa_supplicant\src\utils/os.h **** /**
 354:..\..\..\..\wpa_supplicant\src\utils/os.h ****  * os_memset - Fill memory with a constant byte
 355:..\..\..\..\wpa_supplicant\src\utils/os.h ****  * @s: Memory area to be filled
 356:..\..\..\..\wpa_supplicant\src\utils/os.h ****  * @c: Constant byte
 357:..\..\..\..\wpa_supplicant\src\utils/os.h ****  * @n: Number of bytes started from s to fill with c
 358:..\..\..\..\wpa_supplicant\src\utils/os.h ****  * Returns: s
 359:..\..\..\..\wpa_supplicant\src\utils/os.h ****  */
 360:..\..\..\..\wpa_supplicant\src\utils/os.h **** void * os_memset(void *s, int c, size_t n);
 361:..\..\..\..\wpa_supplicant\src\utils/os.h **** 
 362:..\..\..\..\wpa_supplicant\src\utils/os.h **** /**
 363:..\..\..\..\wpa_supplicant\src\utils/os.h ****  * os_memcmp - Compare memory areas
 364:..\..\..\..\wpa_supplicant\src\utils/os.h ****  * @s1: First buffer
 365:..\..\..\..\wpa_supplicant\src\utils/os.h ****  * @s2: Second buffer
 366:..\..\..\..\wpa_supplicant\src\utils/os.h ****  * @n: Maximum numbers of octets to compare
 367:..\..\..\..\wpa_supplicant\src\utils/os.h ****  * Returns: An integer less than, equal to, or greater than zero if s1 is
 368:..\..\..\..\wpa_supplicant\src\utils/os.h ****  * found to be less than, to match, or be greater than s2. Only first n
 369:..\..\..\..\wpa_supplicant\src\utils/os.h ****  * characters will be compared.
 370:..\..\..\..\wpa_supplicant\src\utils/os.h ****  */
 371:..\..\..\..\wpa_supplicant\src\utils/os.h **** int os_memcmp(const void *s1, const void *s2, size_t n);
 372:..\..\..\..\wpa_supplicant\src\utils/os.h **** 
 373:..\..\..\..\wpa_supplicant\src\utils/os.h **** /**
 374:..\..\..\..\wpa_supplicant\src\utils/os.h ****  * os_strdup - Duplicate a string
 375:..\..\..\..\wpa_supplicant\src\utils/os.h ****  * @s: Source string
 376:..\..\..\..\wpa_supplicant\src\utils/os.h ****  * Returns: Allocated buffer with the string copied into it or %NULL on failure
 377:..\..\..\..\wpa_supplicant\src\utils/os.h ****  *
 378:..\..\..\..\wpa_supplicant\src\utils/os.h ****  * Caller is responsible for freeing the returned buffer with os_free().
 379:..\..\..\..\wpa_supplicant\src\utils/os.h ****  */
 380:..\..\..\..\wpa_supplicant\src\utils/os.h **** char * os_strdup(const char *s);
 381:..\..\..\..\wpa_supplicant\src\utils/os.h **** 
 382:..\..\..\..\wpa_supplicant\src\utils/os.h **** /**
 383:..\..\..\..\wpa_supplicant\src\utils/os.h ****  * os_strlen - Calculate the length of a string
 384:..\..\..\..\wpa_supplicant\src\utils/os.h ****  * @s: '\0' terminated string
 385:..\..\..\..\wpa_supplicant\src\utils/os.h ****  * Returns: Number of characters in s (not counting the '\0' terminator)
 386:..\..\..\..\wpa_supplicant\src\utils/os.h ****  */
 387:..\..\..\..\wpa_supplicant\src\utils/os.h **** size_t os_strlen(const char *s);
 388:..\..\..\..\wpa_supplicant\src\utils/os.h **** 
 389:..\..\..\..\wpa_supplicant\src\utils/os.h **** /**
 390:..\..\..\..\wpa_supplicant\src\utils/os.h ****  * os_strcasecmp - Compare two strings ignoring case
 391:..\..\..\..\wpa_supplicant\src\utils/os.h ****  * @s1: First string
 392:..\..\..\..\wpa_supplicant\src\utils/os.h ****  * @s2: Second string
 393:..\..\..\..\wpa_supplicant\src\utils/os.h ****  * Returns: An integer less than, equal to, or greater than zero if s1 is
 394:..\..\..\..\wpa_supplicant\src\utils/os.h ****  * found to be less than, to match, or be greatred than s2
 395:..\..\..\..\wpa_supplicant\src\utils/os.h ****  */
 396:..\..\..\..\wpa_supplicant\src\utils/os.h **** int os_strcasecmp(const char *s1, const char *s2);
 397:..\..\..\..\wpa_supplicant\src\utils/os.h **** 
 398:..\..\..\..\wpa_supplicant\src\utils/os.h **** /**
 399:..\..\..\..\wpa_supplicant\src\utils/os.h ****  * os_strncasecmp - Compare two strings ignoring case
 400:..\..\..\..\wpa_supplicant\src\utils/os.h ****  * @s1: First string
 401:..\..\..\..\wpa_supplicant\src\utils/os.h ****  * @s2: Second string
 402:..\..\..\..\wpa_supplicant\src\utils/os.h ****  * @n: Maximum numbers of characters to compare
 403:..\..\..\..\wpa_supplicant\src\utils/os.h ****  * Returns: An integer less than, equal to, or greater than zero if s1 is
 404:..\..\..\..\wpa_supplicant\src\utils/os.h ****  * found to be less than, to match, or be greater than s2. Only first n
 405:..\..\..\..\wpa_supplicant\src\utils/os.h ****  * characters will be compared.
 406:..\..\..\..\wpa_supplicant\src\utils/os.h ****  */
 407:..\..\..\..\wpa_supplicant\src\utils/os.h **** int os_strncasecmp(const char *s1, const char *s2, size_t n);
 408:..\..\..\..\wpa_supplicant\src\utils/os.h **** 
 409:..\..\..\..\wpa_supplicant\src\utils/os.h **** /**
 410:..\..\..\..\wpa_supplicant\src\utils/os.h ****  * os_strchr - Locate the first occurrence of a character in string
 411:..\..\..\..\wpa_supplicant\src\utils/os.h ****  * @s: String
 412:..\..\..\..\wpa_supplicant\src\utils/os.h ****  * @c: Character to search for
 413:..\..\..\..\wpa_supplicant\src\utils/os.h ****  * Returns: Pointer to the matched character or %NULL if not found
 414:..\..\..\..\wpa_supplicant\src\utils/os.h ****  */
 415:..\..\..\..\wpa_supplicant\src\utils/os.h **** char * os_strchr(const char *s, int c);
 416:..\..\..\..\wpa_supplicant\src\utils/os.h **** 
 417:..\..\..\..\wpa_supplicant\src\utils/os.h **** /**
 418:..\..\..\..\wpa_supplicant\src\utils/os.h ****  * os_strrchr - Locate the last occurrence of a character in string
 419:..\..\..\..\wpa_supplicant\src\utils/os.h ****  * @s: String
 420:..\..\..\..\wpa_supplicant\src\utils/os.h ****  * @c: Character to search for
 421:..\..\..\..\wpa_supplicant\src\utils/os.h ****  * Returns: Pointer to the matched character or %NULL if not found
 422:..\..\..\..\wpa_supplicant\src\utils/os.h ****  */
 423:..\..\..\..\wpa_supplicant\src\utils/os.h **** char * os_strrchr(const char *s, int c);
 424:..\..\..\..\wpa_supplicant\src\utils/os.h **** 
 425:..\..\..\..\wpa_supplicant\src\utils/os.h **** /**
 426:..\..\..\..\wpa_supplicant\src\utils/os.h ****  * os_strcmp - Compare two strings
 427:..\..\..\..\wpa_supplicant\src\utils/os.h ****  * @s1: First string
 428:..\..\..\..\wpa_supplicant\src\utils/os.h ****  * @s2: Second string
 429:..\..\..\..\wpa_supplicant\src\utils/os.h ****  * Returns: An integer less than, equal to, or greater than zero if s1 is
 430:..\..\..\..\wpa_supplicant\src\utils/os.h ****  * found to be less than, to match, or be greatred than s2
 431:..\..\..\..\wpa_supplicant\src\utils/os.h ****  */
 432:..\..\..\..\wpa_supplicant\src\utils/os.h **** int os_strcmp(const char *s1, const char *s2);
 433:..\..\..\..\wpa_supplicant\src\utils/os.h **** 
 434:..\..\..\..\wpa_supplicant\src\utils/os.h **** /**
 435:..\..\..\..\wpa_supplicant\src\utils/os.h ****  * os_strncmp - Compare two strings
 436:..\..\..\..\wpa_supplicant\src\utils/os.h ****  * @s1: First string
 437:..\..\..\..\wpa_supplicant\src\utils/os.h ****  * @s2: Second string
 438:..\..\..\..\wpa_supplicant\src\utils/os.h ****  * @n: Maximum numbers of characters to compare
 439:..\..\..\..\wpa_supplicant\src\utils/os.h ****  * Returns: An integer less than, equal to, or greater than zero if s1 is
 440:..\..\..\..\wpa_supplicant\src\utils/os.h ****  * found to be less than, to match, or be greater than s2. Only first n
 441:..\..\..\..\wpa_supplicant\src\utils/os.h ****  * characters will be compared.
 442:..\..\..\..\wpa_supplicant\src\utils/os.h ****  */
 443:..\..\..\..\wpa_supplicant\src\utils/os.h **** int os_strncmp(const char *s1, const char *s2, size_t n);
 444:..\..\..\..\wpa_supplicant\src\utils/os.h **** 
 445:..\..\..\..\wpa_supplicant\src\utils/os.h **** /**
 446:..\..\..\..\wpa_supplicant\src\utils/os.h ****  * os_strstr - Locate a substring
 447:..\..\..\..\wpa_supplicant\src\utils/os.h ****  * @haystack: String (haystack) to search from
 448:..\..\..\..\wpa_supplicant\src\utils/os.h ****  * @needle: Needle to search from haystack
 449:..\..\..\..\wpa_supplicant\src\utils/os.h ****  * Returns: Pointer to the beginning of the substring or %NULL if not found
 450:..\..\..\..\wpa_supplicant\src\utils/os.h ****  */
 451:..\..\..\..\wpa_supplicant\src\utils/os.h **** char * os_strstr(const char *haystack, const char *needle);
 452:..\..\..\..\wpa_supplicant\src\utils/os.h **** 
 453:..\..\..\..\wpa_supplicant\src\utils/os.h **** /**
 454:..\..\..\..\wpa_supplicant\src\utils/os.h ****  * os_snprintf - Print to a memory buffer
 455:..\..\..\..\wpa_supplicant\src\utils/os.h ****  * @str: Memory buffer to print into
 456:..\..\..\..\wpa_supplicant\src\utils/os.h ****  * @size: Maximum length of the str buffer
 457:..\..\..\..\wpa_supplicant\src\utils/os.h ****  * @format: printf format
 458:..\..\..\..\wpa_supplicant\src\utils/os.h ****  * Returns: Number of characters printed (not including trailing '\0').
 459:..\..\..\..\wpa_supplicant\src\utils/os.h ****  *
 460:..\..\..\..\wpa_supplicant\src\utils/os.h ****  * If the output buffer is truncated, number of characters which would have
 461:..\..\..\..\wpa_supplicant\src\utils/os.h ****  * been written is returned. Since some C libraries return -1 in such a case,
 462:..\..\..\..\wpa_supplicant\src\utils/os.h ****  * the caller must be prepared on that value, too, to indicate truncation.
 463:..\..\..\..\wpa_supplicant\src\utils/os.h ****  *
 464:..\..\..\..\wpa_supplicant\src\utils/os.h ****  * Note: Some C library implementations of snprintf() may not guarantee null
 465:..\..\..\..\wpa_supplicant\src\utils/os.h ****  * termination in case the output is truncated. The OS wrapper function of
 466:..\..\..\..\wpa_supplicant\src\utils/os.h ****  * os_snprintf() should provide this guarantee, i.e., to null terminate the
 467:..\..\..\..\wpa_supplicant\src\utils/os.h ****  * output buffer if a C library version of the function is used and if that
 468:..\..\..\..\wpa_supplicant\src\utils/os.h ****  * function does not guarantee null termination.
 469:..\..\..\..\wpa_supplicant\src\utils/os.h ****  *
 470:..\..\..\..\wpa_supplicant\src\utils/os.h ****  * If the target system does not include snprintf(), see, e.g.,
 471:..\..\..\..\wpa_supplicant\src\utils/os.h ****  * http://www.ijs.si/software/snprintf/ for an example of a portable
 472:..\..\..\..\wpa_supplicant\src\utils/os.h ****  * implementation of snprintf.
 473:..\..\..\..\wpa_supplicant\src\utils/os.h ****  */
 474:..\..\..\..\wpa_supplicant\src\utils/os.h **** int os_snprintf(char *str, size_t size, const char *format, ...);
 475:..\..\..\..\wpa_supplicant\src\utils/os.h **** 
 476:..\..\..\..\wpa_supplicant\src\utils/os.h **** #else /* OS_NO_C_LIB_DEFINES */
 477:..\..\..\..\wpa_supplicant\src\utils/os.h **** 
 478:..\..\..\..\wpa_supplicant\src\utils/os.h **** #ifdef WPA_TRACE
 479:..\..\..\..\wpa_supplicant\src\utils/os.h **** void * os_malloc(size_t size);
 480:..\..\..\..\wpa_supplicant\src\utils/os.h **** void * os_realloc(void *ptr, size_t size);
 481:..\..\..\..\wpa_supplicant\src\utils/os.h **** void os_free(void *ptr);
 482:..\..\..\..\wpa_supplicant\src\utils/os.h **** char * os_strdup(const char *s);
 483:..\..\..\..\wpa_supplicant\src\utils/os.h **** #else /* WPA_TRACE */
 484:..\..\..\..\wpa_supplicant\src\utils/os.h **** #ifndef os_malloc
 485:..\..\..\..\wpa_supplicant\src\utils/os.h **** #define os_malloc(s) malloc((s))
 486:..\..\..\..\wpa_supplicant\src\utils/os.h **** #endif
 487:..\..\..\..\wpa_supplicant\src\utils/os.h **** #ifndef os_realloc
 488:..\..\..\..\wpa_supplicant\src\utils/os.h **** #define os_realloc(p, s) realloc((p), (s))
 489:..\..\..\..\wpa_supplicant\src\utils/os.h **** #endif
 490:..\..\..\..\wpa_supplicant\src\utils/os.h **** #ifndef os_free
 491:..\..\..\..\wpa_supplicant\src\utils/os.h **** #define os_free(p) free((p))
 492:..\..\..\..\wpa_supplicant\src\utils/os.h **** #endif
 493:..\..\..\..\wpa_supplicant\src\utils/os.h **** #ifndef os_strdup
 494:..\..\..\..\wpa_supplicant\src\utils/os.h **** #ifdef _MSC_VER
 495:..\..\..\..\wpa_supplicant\src\utils/os.h **** #define os_strdup(s) _strdup(s)
 496:..\..\..\..\wpa_supplicant\src\utils/os.h **** #else
 497:..\..\..\..\wpa_supplicant\src\utils/os.h **** #define os_strdup(s) strdup(s)
 498:..\..\..\..\wpa_supplicant\src\utils/os.h **** #endif
 499:..\..\..\..\wpa_supplicant\src\utils/os.h **** #endif
 500:..\..\..\..\wpa_supplicant\src\utils/os.h **** #endif /* WPA_TRACE */
 501:..\..\..\..\wpa_supplicant\src\utils/os.h **** 
 502:..\..\..\..\wpa_supplicant\src\utils/os.h **** #ifndef os_memcpy
 503:..\..\..\..\wpa_supplicant\src\utils/os.h **** #define os_memcpy(d, s, n) memcpy((d), (s), (n))
 504:..\..\..\..\wpa_supplicant\src\utils/os.h **** #endif
 505:..\..\..\..\wpa_supplicant\src\utils/os.h **** #ifndef os_memmove
 506:..\..\..\..\wpa_supplicant\src\utils/os.h **** #define os_memmove(d, s, n) memmove((d), (s), (n))
 507:..\..\..\..\wpa_supplicant\src\utils/os.h **** #endif
 508:..\..\..\..\wpa_supplicant\src\utils/os.h **** #ifndef os_memset
 509:..\..\..\..\wpa_supplicant\src\utils/os.h **** #define os_memset(s, c, n) memset(s, c, n)
 510:..\..\..\..\wpa_supplicant\src\utils/os.h **** #endif
 511:..\..\..\..\wpa_supplicant\src\utils/os.h **** #ifndef os_memcmp
 512:..\..\..\..\wpa_supplicant\src\utils/os.h **** #define os_memcmp(s1, s2, n) memcmp((s1), (s2), (n))
 513:..\..\..\..\wpa_supplicant\src\utils/os.h **** #endif
 514:..\..\..\..\wpa_supplicant\src\utils/os.h **** 
 515:..\..\..\..\wpa_supplicant\src\utils/os.h **** #ifndef os_strlen
 516:..\..\..\..\wpa_supplicant\src\utils/os.h **** #define os_strlen(s) strlen(s)
 517:..\..\..\..\wpa_supplicant\src\utils/os.h **** #endif
 518:..\..\..\..\wpa_supplicant\src\utils/os.h **** #ifndef os_strcasecmp
 519:..\..\..\..\wpa_supplicant\src\utils/os.h **** #ifdef _MSC_VER
 520:..\..\..\..\wpa_supplicant\src\utils/os.h **** #define os_strcasecmp(s1, s2) _stricmp((s1), (s2))
 521:..\..\..\..\wpa_supplicant\src\utils/os.h **** #else
 522:..\..\..\..\wpa_supplicant\src\utils/os.h **** #define os_strcasecmp(s1, s2) strcasecmp((s1), (s2))
 523:..\..\..\..\wpa_supplicant\src\utils/os.h **** #endif
 524:..\..\..\..\wpa_supplicant\src\utils/os.h **** #endif
 525:..\..\..\..\wpa_supplicant\src\utils/os.h **** #ifndef os_strncasecmp
 526:..\..\..\..\wpa_supplicant\src\utils/os.h **** #ifdef _MSC_VER
 527:..\..\..\..\wpa_supplicant\src\utils/os.h **** #define os_strncasecmp(s1, s2, n) _strnicmp((s1), (s2), (n))
 528:..\..\..\..\wpa_supplicant\src\utils/os.h **** #else
 529:..\..\..\..\wpa_supplicant\src\utils/os.h **** #define os_strncasecmp(s1, s2, n) strncasecmp((s1), (s2), (n))
 530:..\..\..\..\wpa_supplicant\src\utils/os.h **** #endif
 531:..\..\..\..\wpa_supplicant\src\utils/os.h **** #endif
 532:..\..\..\..\wpa_supplicant\src\utils/os.h **** #ifndef os_strchr
 533:..\..\..\..\wpa_supplicant\src\utils/os.h **** #define os_strchr(s, c) strchr((s), (c))
 534:..\..\..\..\wpa_supplicant\src\utils/os.h **** #endif
 535:..\..\..\..\wpa_supplicant\src\utils/os.h **** #ifndef os_strcmp
 536:..\..\..\..\wpa_supplicant\src\utils/os.h **** #define os_strcmp(s1, s2) strcmp((s1), (s2))
 537:..\..\..\..\wpa_supplicant\src\utils/os.h **** #endif
 538:..\..\..\..\wpa_supplicant\src\utils/os.h **** #ifndef os_strncmp
 539:..\..\..\..\wpa_supplicant\src\utils/os.h **** #define os_strncmp(s1, s2, n) strncmp((s1), (s2), (n))
 540:..\..\..\..\wpa_supplicant\src\utils/os.h **** #endif
 541:..\..\..\..\wpa_supplicant\src\utils/os.h **** #ifndef os_strrchr
 542:..\..\..\..\wpa_supplicant\src\utils/os.h **** #define os_strrchr(s, c) strrchr((s), (c))
 543:..\..\..\..\wpa_supplicant\src\utils/os.h **** #endif
 544:..\..\..\..\wpa_supplicant\src\utils/os.h **** #ifndef os_strstr
 545:..\..\..\..\wpa_supplicant\src\utils/os.h **** #define os_strstr(h, n) strstr((h), (n))
 546:..\..\..\..\wpa_supplicant\src\utils/os.h **** #endif
 547:..\..\..\..\wpa_supplicant\src\utils/os.h **** 
 548:..\..\..\..\wpa_supplicant\src\utils/os.h **** #ifndef os_snprintf
 549:..\..\..\..\wpa_supplicant\src\utils/os.h **** #ifdef _MSC_VER
 550:..\..\..\..\wpa_supplicant\src\utils/os.h **** #define os_snprintf _snprintf
 551:..\..\..\..\wpa_supplicant\src\utils/os.h **** #else
 552:..\..\..\..\wpa_supplicant\src\utils/os.h **** #define os_snprintf snprintf
 553:..\..\..\..\wpa_supplicant\src\utils/os.h **** #endif
 554:..\..\..\..\wpa_supplicant\src\utils/os.h **** #endif
 555:..\..\..\..\wpa_supplicant\src\utils/os.h **** 
 556:..\..\..\..\wpa_supplicant\src\utils/os.h **** #endif /* OS_NO_C_LIB_DEFINES */
 557:..\..\..\..\wpa_supplicant\src\utils/os.h **** 
 558:..\..\..\..\wpa_supplicant\src\utils/os.h **** 
 559:..\..\..\..\wpa_supplicant\src\utils/os.h **** static inline int os_snprintf_error(size_t size, int res)
 560:..\..\..\..\wpa_supplicant\src\utils/os.h **** {
 561:..\..\..\..\wpa_supplicant\src\utils/os.h **** 	return res < 0 || (unsigned int) res >= size;
 2128              		.loc 5 561 2 discriminator 4
 2129              	.LBE113:
 2130              	.LBE112:
 647:C:/Users/stapi/OneDrive/Desktop/GD32VW553/V1_MQTT_OK/GD32VW55X_Wifi_BLE_SDK/GD32VW55x_RELEASE_V1.0.2/MSDK/wpa_supplicant/src/rsn_supp\pmksa_cache.c **** 		return pos - buf;
 2131              		.loc 1 647 14 is_stmt 0 discriminator 4
 2132 0040 0145     		li	a0,0
 2133              	.LBB115:
 2134              	.LBB114:
 2135              		.loc 5 561 17 discriminator 4
 2136 0042 634D0408 		blt	s0,zero,.L248
 2137              		.loc 5 561 17
 2138 0046 637B2409 		bleu	s2,s0,.L248
 2139              	.LBE114:
 2140              	.LBE115:
 648:C:/Users/stapi/OneDrive/Desktop/GD32VW553/V1_MQTT_OK/GD32VW55X_Wifi_BLE_SDK/GD32VW55x_RELEASE_V1.0.2/MSDK/wpa_supplicant/src/rsn_supp\pmksa_cache.c **** 	pos += ret;
 649:C:/Users/stapi/OneDrive/Desktop/GD32VW553/V1_MQTT_OK/GD32VW55X_Wifi_BLE_SDK/GD32VW55x_RELEASE_V1.0.2/MSDK/wpa_supplicant/src/rsn_supp\pmksa_cache.c **** 	i = 0;
 650:C:/Users/stapi/OneDrive/Desktop/GD32VW553/V1_MQTT_OK/GD32VW55X_Wifi_BLE_SDK/GD32VW55x_RELEASE_V1.0.2/MSDK/wpa_supplicant/src/rsn_supp\pmksa_cache.c **** 	entry = pmksa->pmksa;
 2141              		.loc 1 650 8
 2142 004a 8440     		lw	s1,0(s1)
 2143              	.LVL196:
 642:C:/Users/stapi/OneDrive/Desktop/GD32VW553/V1_MQTT_OK/GD32VW55X_Wifi_BLE_SDK/GD32VW55x_RELEASE_V1.0.2/MSDK/wpa_supplicant/src/rsn_supp\pmksa_cache.c **** 			  "Index / AA / PMKID / expiration (in seconds) / "
 2144              		.loc 1 642 29
 2145 004c 4E99     		add	s2,s3,s2
 2146              	.LVL197:
 648:C:/Users/stapi/OneDrive/Desktop/GD32VW553/V1_MQTT_OK/GD32VW55X_Wifi_BLE_SDK/GD32VW55x_RELEASE_V1.0.2/MSDK/wpa_supplicant/src/rsn_supp\pmksa_cache.c **** 	pos += ret;
 2147              		.loc 1 648 2 is_stmt 1
 648:C:/Users/stapi/OneDrive/Desktop/GD32VW553/V1_MQTT_OK/GD32VW55X_Wifi_BLE_SDK/GD32VW55x_RELEASE_V1.0.2/MSDK/wpa_supplicant/src/rsn_supp\pmksa_cache.c **** 	pos += ret;
 2148              		.loc 1 648 6 is_stmt 0
 2149 004e 4E94     		add	s0,s3,s0
 2150              	.LVL198:
 649:C:/Users/stapi/OneDrive/Desktop/GD32VW553/V1_MQTT_OK/GD32VW55X_Wifi_BLE_SDK/GD32VW55x_RELEASE_V1.0.2/MSDK/wpa_supplicant/src/rsn_supp\pmksa_cache.c **** 	entry = pmksa->pmksa;
 2151              		.loc 1 649 2 is_stmt 1
 2152              		.loc 1 650 2
 651:C:/Users/stapi/OneDrive/Desktop/GD32VW553/V1_MQTT_OK/GD32VW55X_Wifi_BLE_SDK/GD32VW55x_RELEASE_V1.0.2/MSDK/wpa_supplicant/src/rsn_supp\pmksa_cache.c **** 	while (entry) {
 2153              		.loc 1 651 2
 649:C:/Users/stapi/OneDrive/Desktop/GD32VW553/V1_MQTT_OK/GD32VW55X_Wifi_BLE_SDK/GD32VW55x_RELEASE_V1.0.2/MSDK/wpa_supplicant/src/rsn_supp\pmksa_cache.c **** 	entry = pmksa->pmksa;
 2154              		.loc 1 649 4 is_stmt 0
 2155 0050 014A     		li	s4,0
 652:C:/Users/stapi/OneDrive/Desktop/GD32VW553/V1_MQTT_OK/GD32VW55X_Wifi_BLE_SDK/GD32VW55x_RELEASE_V1.0.2/MSDK/wpa_supplicant/src/rsn_supp\pmksa_cache.c **** 		i++;
 653:C:/Users/stapi/OneDrive/Desktop/GD32VW553/V1_MQTT_OK/GD32VW55X_Wifi_BLE_SDK/GD32VW55x_RELEASE_V1.0.2/MSDK/wpa_supplicant/src/rsn_supp\pmksa_cache.c **** 		ret = os_snprintf(pos, buf + len - pos, "%d " MACSTR " ",
 2156              		.loc 1 653 9
 2157 0052 B70A0000 		lui	s5,%hi(.LC21)
 654:C:/Users/stapi/OneDrive/Desktop/GD32VW553/V1_MQTT_OK/GD32VW55X_Wifi_BLE_SDK/GD32VW55x_RELEASE_V1.0.2/MSDK/wpa_supplicant/src/rsn_supp\pmksa_cache.c **** 				  i, MAC2STR(entry->aa));
 655:C:/Users/stapi/OneDrive/Desktop/GD32VW553/V1_MQTT_OK/GD32VW55X_Wifi_BLE_SDK/GD32VW55x_RELEASE_V1.0.2/MSDK/wpa_supplicant/src/rsn_supp\pmksa_cache.c **** 		if (os_snprintf_error(buf + len - pos, ret))
 656:C:/Users/stapi/OneDrive/Desktop/GD32VW553/V1_MQTT_OK/GD32VW55X_Wifi_BLE_SDK/GD32VW55x_RELEASE_V1.0.2/MSDK/wpa_supplicant/src/rsn_supp\pmksa_cache.c **** 			return pos - buf;
 657:C:/Users/stapi/OneDrive/Desktop/GD32VW553/V1_MQTT_OK/GD32VW55X_Wifi_BLE_SDK/GD32VW55x_RELEASE_V1.0.2/MSDK/wpa_supplicant/src/rsn_supp\pmksa_cache.c **** 		pos += ret;
 658:C:/Users/stapi/OneDrive/Desktop/GD32VW553/V1_MQTT_OK/GD32VW55X_Wifi_BLE_SDK/GD32VW55x_RELEASE_V1.0.2/MSDK/wpa_supplicant/src/rsn_supp\pmksa_cache.c **** 		pos += wpa_snprintf_hex(pos, buf + len - pos, entry->pmkid,
 659:C:/Users/stapi/OneDrive/Desktop/GD32VW553/V1_MQTT_OK/GD32VW55X_Wifi_BLE_SDK/GD32VW55x_RELEASE_V1.0.2/MSDK/wpa_supplicant/src/rsn_supp\pmksa_cache.c **** 					PMKID_LEN);
 660:C:/Users/stapi/OneDrive/Desktop/GD32VW553/V1_MQTT_OK/GD32VW55X_Wifi_BLE_SDK/GD32VW55x_RELEASE_V1.0.2/MSDK/wpa_supplicant/src/rsn_supp\pmksa_cache.c **** 		ret = os_snprintf(pos, buf + len - pos, " %d %d",
 2158              		.loc 1 660 9
 2159 0056 370B0000 		lui	s6,%hi(.LC22)
 661:C:/Users/stapi/OneDrive/Desktop/GD32VW553/V1_MQTT_OK/GD32VW55X_Wifi_BLE_SDK/GD32VW55x_RELEASE_V1.0.2/MSDK/wpa_supplicant/src/rsn_supp\pmksa_cache.c **** 				  (int) (entry->expiration - now.sec),
 662:C:/Users/stapi/OneDrive/Desktop/GD32VW553/V1_MQTT_OK/GD32VW55X_Wifi_BLE_SDK/GD32VW55x_RELEASE_V1.0.2/MSDK/wpa_supplicant/src/rsn_supp\pmksa_cache.c **** 				  entry->opportunistic);
 663:C:/Users/stapi/OneDrive/Desktop/GD32VW553/V1_MQTT_OK/GD32VW55X_Wifi_BLE_SDK/GD32VW55x_RELEASE_V1.0.2/MSDK/wpa_supplicant/src/rsn_supp\pmksa_cache.c **** 		if (os_snprintf_error(buf + len - pos, ret))
 664:C:/Users/stapi/OneDrive/Desktop/GD32VW553/V1_MQTT_OK/GD32VW55X_Wifi_BLE_SDK/GD32VW55x_RELEASE_V1.0.2/MSDK/wpa_supplicant/src/rsn_supp\pmksa_cache.c **** 			return pos - buf;
 665:C:/Users/stapi/OneDrive/Desktop/GD32VW553/V1_MQTT_OK/GD32VW55X_Wifi_BLE_SDK/GD32VW55x_RELEASE_V1.0.2/MSDK/wpa_supplicant/src/rsn_supp\pmksa_cache.c **** 		pos += ret;
 666:C:/Users/stapi/OneDrive/Desktop/GD32VW553/V1_MQTT_OK/GD32VW55X_Wifi_BLE_SDK/GD32VW55x_RELEASE_V1.0.2/MSDK/wpa_supplicant/src/rsn_supp\pmksa_cache.c **** 		if (entry->fils_cache_id_set) {
 667:C:/Users/stapi/OneDrive/Desktop/GD32VW553/V1_MQTT_OK/GD32VW55X_Wifi_BLE_SDK/GD32VW55x_RELEASE_V1.0.2/MSDK/wpa_supplicant/src/rsn_supp\pmksa_cache.c **** 			ret = os_snprintf(pos, buf + len - pos, " %02x%02x",
 2160              		.loc 1 667 10
 2161 005a B70B0000 		lui	s7,%hi(.LC23)
 668:C:/Users/stapi/OneDrive/Desktop/GD32VW553/V1_MQTT_OK/GD32VW55X_Wifi_BLE_SDK/GD32VW55x_RELEASE_V1.0.2/MSDK/wpa_supplicant/src/rsn_supp\pmksa_cache.c **** 					  entry->fils_cache_id[0],
 669:C:/Users/stapi/OneDrive/Desktop/GD32VW553/V1_MQTT_OK/GD32VW55X_Wifi_BLE_SDK/GD32VW55x_RELEASE_V1.0.2/MSDK/wpa_supplicant/src/rsn_supp\pmksa_cache.c **** 					  entry->fils_cache_id[1]);
 670:C:/Users/stapi/OneDrive/Desktop/GD32VW553/V1_MQTT_OK/GD32VW55X_Wifi_BLE_SDK/GD32VW55x_RELEASE_V1.0.2/MSDK/wpa_supplicant/src/rsn_supp\pmksa_cache.c **** 			if (os_snprintf_error(buf + len - pos, ret))
 671:C:/Users/stapi/OneDrive/Desktop/GD32VW553/V1_MQTT_OK/GD32VW55X_Wifi_BLE_SDK/GD32VW55x_RELEASE_V1.0.2/MSDK/wpa_supplicant/src/rsn_supp\pmksa_cache.c **** 				return pos - buf;
 672:C:/Users/stapi/OneDrive/Desktop/GD32VW553/V1_MQTT_OK/GD32VW55X_Wifi_BLE_SDK/GD32VW55x_RELEASE_V1.0.2/MSDK/wpa_supplicant/src/rsn_supp\pmksa_cache.c **** 			pos += ret;
 673:C:/Users/stapi/OneDrive/Desktop/GD32VW553/V1_MQTT_OK/GD32VW55X_Wifi_BLE_SDK/GD32VW55x_RELEASE_V1.0.2/MSDK/wpa_supplicant/src/rsn_supp\pmksa_cache.c **** 		}
 674:C:/Users/stapi/OneDrive/Desktop/GD32VW553/V1_MQTT_OK/GD32VW55X_Wifi_BLE_SDK/GD32VW55x_RELEASE_V1.0.2/MSDK/wpa_supplicant/src/rsn_supp\pmksa_cache.c **** 		ret = os_snprintf(pos, buf + len - pos, "\n");
 2162              		.loc 1 674 9
 2163 005e 370C0000 		lui	s8,%hi(.LC24)
 2164              	.LVL199:
 2165              	.L254:
 651:C:/Users/stapi/OneDrive/Desktop/GD32VW553/V1_MQTT_OK/GD32VW55X_Wifi_BLE_SDK/GD32VW55x_RELEASE_V1.0.2/MSDK/wpa_supplicant/src/rsn_supp\pmksa_cache.c **** 		i++;
 2166              		.loc 1 651 8 is_stmt 1
 2167 0062 BDC8     		beq	s1,zero,.L269
 652:C:/Users/stapi/OneDrive/Desktop/GD32VW553/V1_MQTT_OK/GD32VW55X_Wifi_BLE_SDK/GD32VW55x_RELEASE_V1.0.2/MSDK/wpa_supplicant/src/rsn_supp\pmksa_cache.c **** 		ret = os_snprintf(pos, buf + len - pos, "%d " MACSTR " ",
 2168              		.loc 1 652 3
 653:C:/Users/stapi/OneDrive/Desktop/GD32VW553/V1_MQTT_OK/GD32VW55X_Wifi_BLE_SDK/GD32VW55x_RELEASE_V1.0.2/MSDK/wpa_supplicant/src/rsn_supp\pmksa_cache.c **** 				  i, MAC2STR(entry->aa));
 2169              		.loc 1 653 9 is_stmt 0
 2170 0064 83C65406 		lbu	a3,101(s1)
 2171 0068 83C83406 		lbu	a7,99(s1)
 2172 006c 03C82406 		lbu	a6,98(s1)
 2173 0070 83C71406 		lbu	a5,97(s1)
 2174 0074 03C70406 		lbu	a4,96(s1)
 2175 0078 36C2     		sw	a3,4(sp)
 2176 007a 83C64406 		lbu	a3,100(s1)
 652:C:/Users/stapi/OneDrive/Desktop/GD32VW553/V1_MQTT_OK/GD32VW55X_Wifi_BLE_SDK/GD32VW55x_RELEASE_V1.0.2/MSDK/wpa_supplicant/src/rsn_supp\pmksa_cache.c **** 		ret = os_snprintf(pos, buf + len - pos, "%d " MACSTR " ",
 2177              		.loc 1 652 4
 2178 007e 050A     		addi	s4,s4,1
 2179              	.LVL200:
 653:C:/Users/stapi/OneDrive/Desktop/GD32VW553/V1_MQTT_OK/GD32VW55X_Wifi_BLE_SDK/GD32VW55x_RELEASE_V1.0.2/MSDK/wpa_supplicant/src/rsn_supp\pmksa_cache.c **** 				  i, MAC2STR(entry->aa));
 2180              		.loc 1 653 3 is_stmt 1
 653:C:/Users/stapi/OneDrive/Desktop/GD32VW553/V1_MQTT_OK/GD32VW55X_Wifi_BLE_SDK/GD32VW55x_RELEASE_V1.0.2/MSDK/wpa_supplicant/src/rsn_supp\pmksa_cache.c **** 				  i, MAC2STR(entry->aa));
 2181              		.loc 1 653 36 is_stmt 0
 2182 0080 B30C8940 		sub	s9,s2,s0
 653:C:/Users/stapi/OneDrive/Desktop/GD32VW553/V1_MQTT_OK/GD32VW55X_Wifi_BLE_SDK/GD32VW55x_RELEASE_V1.0.2/MSDK/wpa_supplicant/src/rsn_supp\pmksa_cache.c **** 				  i, MAC2STR(entry->aa));
 2183              		.loc 1 653 9
 2184 0084 36C0     		sw	a3,0(sp)
 2185 0086 13860A00 		addi	a2,s5,%lo(.LC21)
 2186 008a D286     		mv	a3,s4
 2187 008c E685     		mv	a1,s9
 2188 008e 2285     		mv	a0,s0
 2189 0090 97000000 		call	os_snprintf
 2189      E7800000 
 2190              	.LVL201:
 655:C:/Users/stapi/OneDrive/Desktop/GD32VW553/V1_MQTT_OK/GD32VW55X_Wifi_BLE_SDK/GD32VW55x_RELEASE_V1.0.2/MSDK/wpa_supplicant/src/rsn_supp\pmksa_cache.c **** 			return pos - buf;
 2191              		.loc 1 655 3 is_stmt 1
 2192              	.LBB116:
 2193              	.LBB117:
 2194              		.loc 5 561 2
 2195              		.loc 5 561 17 is_stmt 0
 2196 0098 63400504 		blt	a0,zero,.L269
 2197 009c 637E9503 		bleu	s9,a0,.L269
 2198              	.LVL202:
 2199              	.LBE117:
 2200              	.LBE116:
 657:C:/Users/stapi/OneDrive/Desktop/GD32VW553/V1_MQTT_OK/GD32VW55X_Wifi_BLE_SDK/GD32VW55x_RELEASE_V1.0.2/MSDK/wpa_supplicant/src/rsn_supp\pmksa_cache.c **** 		pos += wpa_snprintf_hex(pos, buf + len - pos, entry->pmkid,
 2201              		.loc 1 657 3 is_stmt 1
 657:C:/Users/stapi/OneDrive/Desktop/GD32VW553/V1_MQTT_OK/GD32VW55X_Wifi_BLE_SDK/GD32VW55x_RELEASE_V1.0.2/MSDK/wpa_supplicant/src/rsn_supp\pmksa_cache.c **** 		pos += wpa_snprintf_hex(pos, buf + len - pos, entry->pmkid,
 2202              		.loc 1 657 7 is_stmt 0
 2203 00a0 2A94     		add	s0,s0,a0
 2204              	.LVL203:
 658:C:/Users/stapi/OneDrive/Desktop/GD32VW553/V1_MQTT_OK/GD32VW55X_Wifi_BLE_SDK/GD32VW55x_RELEASE_V1.0.2/MSDK/wpa_supplicant/src/rsn_supp\pmksa_cache.c **** 					PMKID_LEN);
 2205              		.loc 1 658 3 is_stmt 1
 658:C:/Users/stapi/OneDrive/Desktop/GD32VW553/V1_MQTT_OK/GD32VW55X_Wifi_BLE_SDK/GD32VW55x_RELEASE_V1.0.2/MSDK/wpa_supplicant/src/rsn_supp\pmksa_cache.c **** 					PMKID_LEN);
 2206              		.loc 1 658 10 is_stmt 0
 2207 00a2 B3058940 		sub	a1,s2,s0
 2208 00a6 C146     		li	a3,16
 2209 00a8 13864400 		addi	a2,s1,4
 2210 00ac 2285     		mv	a0,s0
 2211              	.LVL204:
 2212 00ae 97000000 		call	wpa_snprintf_hex
 2212      E7800000 
 2213              	.LVL205:
 661:C:/Users/stapi/OneDrive/Desktop/GD32VW553/V1_MQTT_OK/GD32VW55X_Wifi_BLE_SDK/GD32VW55x_RELEASE_V1.0.2/MSDK/wpa_supplicant/src/rsn_supp\pmksa_cache.c **** 				  entry->opportunistic);
 2214              		.loc 1 661 32
 2215 00b6 B44C     		lw	a3,88(s1)
 660:C:/Users/stapi/OneDrive/Desktop/GD32VW553/V1_MQTT_OK/GD32VW55X_Wifi_BLE_SDK/GD32VW55x_RELEASE_V1.0.2/MSDK/wpa_supplicant/src/rsn_supp\pmksa_cache.c **** 				  (int) (entry->expiration - now.sec),
 2216              		.loc 1 660 9
 2217 00b8 E247     		lw	a5,24(sp)
 658:C:/Users/stapi/OneDrive/Desktop/GD32VW553/V1_MQTT_OK/GD32VW55X_Wifi_BLE_SDK/GD32VW55x_RELEASE_V1.0.2/MSDK/wpa_supplicant/src/rsn_supp\pmksa_cache.c **** 					PMKID_LEN);
 2218              		.loc 1 658 7
 2219 00ba 2A94     		add	s0,s0,a0
 2220              	.LVL206:
 660:C:/Users/stapi/OneDrive/Desktop/GD32VW553/V1_MQTT_OK/GD32VW55X_Wifi_BLE_SDK/GD32VW55x_RELEASE_V1.0.2/MSDK/wpa_supplicant/src/rsn_supp\pmksa_cache.c **** 				  (int) (entry->expiration - now.sec),
 2221              		.loc 1 660 3 is_stmt 1
 660:C:/Users/stapi/OneDrive/Desktop/GD32VW553/V1_MQTT_OK/GD32VW55X_Wifi_BLE_SDK/GD32VW55x_RELEASE_V1.0.2/MSDK/wpa_supplicant/src/rsn_supp\pmksa_cache.c **** 				  (int) (entry->expiration - now.sec),
 2222              		.loc 1 660 9 is_stmt 0
 2223 00bc F858     		lw	a4,116(s1)
 660:C:/Users/stapi/OneDrive/Desktop/GD32VW553/V1_MQTT_OK/GD32VW55X_Wifi_BLE_SDK/GD32VW55x_RELEASE_V1.0.2/MSDK/wpa_supplicant/src/rsn_supp\pmksa_cache.c **** 				  (int) (entry->expiration - now.sec),
 2224              		.loc 1 660 36
 2225 00be B30C8940 		sub	s9,s2,s0
 660:C:/Users/stapi/OneDrive/Desktop/GD32VW553/V1_MQTT_OK/GD32VW55X_Wifi_BLE_SDK/GD32VW55x_RELEASE_V1.0.2/MSDK/wpa_supplicant/src/rsn_supp\pmksa_cache.c **** 				  (int) (entry->expiration - now.sec),
 2226              		.loc 1 660 9
 2227 00c2 9D8E     		sub	a3,a3,a5
 2228 00c4 13060B00 		addi	a2,s6,%lo(.LC22)
 2229 00c8 E685     		mv	a1,s9
 2230 00ca 2285     		mv	a0,s0
 2231 00cc 97000000 		call	os_snprintf
 2231      E7800000 
 2232              	.LVL207:
 663:C:/Users/stapi/OneDrive/Desktop/GD32VW553/V1_MQTT_OK/GD32VW55X_Wifi_BLE_SDK/GD32VW55x_RELEASE_V1.0.2/MSDK/wpa_supplicant/src/rsn_supp\pmksa_cache.c **** 			return pos - buf;
 2233              		.loc 1 663 3 is_stmt 1
 2234              	.LBB118:
 2235              	.LBB119:
 2236              		.loc 5 561 2
 2237              		.loc 5 561 17 is_stmt 0
 2238 00d4 63560502 		bge	a0,zero,.L267
 2239              	.LVL208:
 2240              	.L269:
 2241              	.LBE119:
 2242              	.LBE118:
 675:C:/Users/stapi/OneDrive/Desktop/GD32VW553/V1_MQTT_OK/GD32VW55X_Wifi_BLE_SDK/GD32VW55x_RELEASE_V1.0.2/MSDK/wpa_supplicant/src/rsn_supp\pmksa_cache.c **** 		if (os_snprintf_error(buf + len - pos, ret))
 676:C:/Users/stapi/OneDrive/Desktop/GD32VW553/V1_MQTT_OK/GD32VW55X_Wifi_BLE_SDK/GD32VW55x_RELEASE_V1.0.2/MSDK/wpa_supplicant/src/rsn_supp\pmksa_cache.c **** 			return pos - buf;
 677:C:/Users/stapi/OneDrive/Desktop/GD32VW553/V1_MQTT_OK/GD32VW55X_Wifi_BLE_SDK/GD32VW55x_RELEASE_V1.0.2/MSDK/wpa_supplicant/src/rsn_supp\pmksa_cache.c **** 		pos += ret;
 678:C:/Users/stapi/OneDrive/Desktop/GD32VW553/V1_MQTT_OK/GD32VW55X_Wifi_BLE_SDK/GD32VW55x_RELEASE_V1.0.2/MSDK/wpa_supplicant/src/rsn_supp\pmksa_cache.c **** 		entry = entry->next;
 679:C:/Users/stapi/OneDrive/Desktop/GD32VW553/V1_MQTT_OK/GD32VW55X_Wifi_BLE_SDK/GD32VW55x_RELEASE_V1.0.2/MSDK/wpa_supplicant/src/rsn_supp\pmksa_cache.c **** 	}
 680:C:/Users/stapi/OneDrive/Desktop/GD32VW553/V1_MQTT_OK/GD32VW55X_Wifi_BLE_SDK/GD32VW55x_RELEASE_V1.0.2/MSDK/wpa_supplicant/src/rsn_supp\pmksa_cache.c **** 	return pos - buf;
 2243              		.loc 1 680 2 is_stmt 1
 2244              		.loc 1 680 13 is_stmt 0
 2245 00d8 33053441 		sub	a0,s0,s3
 2246              	.LVL209:
 2247              	.L248:
 681:C:/Users/stapi/OneDrive/Desktop/GD32VW553/V1_MQTT_OK/GD32VW55X_Wifi_BLE_SDK/GD32VW55x_RELEASE_V1.0.2/MSDK/wpa_supplicant/src/rsn_supp\pmksa_cache.c **** }
 2248              		.loc 1 681 1
 2249 00dc 0561     		addi	sp,sp,32
 2250              		.cfi_remember_state
 2251              		.cfi_def_cfa_offset 0
 2252 00de 17030000 		tail	__riscv_restore_10
 2252      67000300 
 2253              		.cfi_restore 25
 2254              		.cfi_restore 24
 2255              		.cfi_restore 23
 2256              		.cfi_restore 22
 2257              		.cfi_restore 21
 2258              		.cfi_restore 20
 2259              		.cfi_restore 19
 2260              		.cfi_restore 18
 2261              		.cfi_restore 9
 2262              		.cfi_restore 8
 2263              		.cfi_restore 1
 2264              		.cfi_def_cfa_offset -48
 2265              	.LVL210:
 2266              	.L251:
 2267              		.cfi_restore_state
 635:C:/Users/stapi/OneDrive/Desktop/GD32VW553/V1_MQTT_OK/GD32VW55X_Wifi_BLE_SDK/GD32VW55x_RELEASE_V1.0.2/MSDK/wpa_supplicant/src/rsn_supp\pmksa_cache.c **** 			cache_id_used = 1;
 2268              		.loc 1 635 3 is_stmt 1
 635:C:/Users/stapi/OneDrive/Desktop/GD32VW553/V1_MQTT_OK/GD32VW55X_Wifi_BLE_SDK/GD32VW55x_RELEASE_V1.0.2/MSDK/wpa_supplicant/src/rsn_supp\pmksa_cache.c **** 			cache_id_used = 1;
 2269              		.loc 1 635 7 is_stmt 0
 2270 00e6 03C78706 		lbu	a4,104(a5)
 635:C:/Users/stapi/OneDrive/Desktop/GD32VW553/V1_MQTT_OK/GD32VW55X_Wifi_BLE_SDK/GD32VW55x_RELEASE_V1.0.2/MSDK/wpa_supplicant/src/rsn_supp\pmksa_cache.c **** 			cache_id_used = 1;
 2271              		.loc 1 635 6
 2272 00ea 058B     		andi	a4,a4,1
 2273 00ec 19E3     		bne	a4,zero,.L263
 634:C:/Users/stapi/OneDrive/Desktop/GD32VW553/V1_MQTT_OK/GD32VW55X_Wifi_BLE_SDK/GD32VW55x_RELEASE_V1.0.2/MSDK/wpa_supplicant/src/rsn_supp\pmksa_cache.c **** 		if (entry->fils_cache_id_set) {
 2274              		.loc 1 634 36 is_stmt 1 discriminator 2
 634:C:/Users/stapi/OneDrive/Desktop/GD32VW553/V1_MQTT_OK/GD32VW55X_Wifi_BLE_SDK/GD32VW55x_RELEASE_V1.0.2/MSDK/wpa_supplicant/src/rsn_supp\pmksa_cache.c **** 		if (entry->fils_cache_id_set) {
 2275              		.loc 1 634 42 is_stmt 0 discriminator 2
 2276 00ee 9C43     		lw	a5,0(a5)
 2277              	.LVL211:
 2278 00f0 0DB7     		j	.L249
 2279              	.L263:
 636:C:/Users/stapi/OneDrive/Desktop/GD32VW553/V1_MQTT_OK/GD32VW55X_Wifi_BLE_SDK/GD32VW55x_RELEASE_V1.0.2/MSDK/wpa_supplicant/src/rsn_supp\pmksa_cache.c **** 			break;
 2280              		.loc 1 636 18
 2281 00f2 0544     		li	s0,1
 2282 00f4 0DB7     		j	.L250
 2283              	.LVL212:
 2284              	.L264:
 642:C:/Users/stapi/OneDrive/Desktop/GD32VW553/V1_MQTT_OK/GD32VW55X_Wifi_BLE_SDK/GD32VW55x_RELEASE_V1.0.2/MSDK/wpa_supplicant/src/rsn_supp\pmksa_cache.c **** 			  "Index / AA / PMKID / expiration (in seconds) / "
 2285              		.loc 1 642 8
 2286 00f6 B7060000 		lui	a3,%hi(.LC18)
 2287 00fa 93860600 		addi	a3,a3,%lo(.LC18)
 2288 00fe 35B7     		j	.L252
 2289              	.LVL213:
 2290              	.L267:
 2291              	.LBB121:
 2292              	.LBB120:
 2293              		.loc 5 561 17
 2294 0100 E37C95FD 		bleu	s9,a0,.L269
 2295              	.LVL214:
 2296              	.LBE120:
 2297              	.LBE121:
 665:C:/Users/stapi/OneDrive/Desktop/GD32VW553/V1_MQTT_OK/GD32VW55X_Wifi_BLE_SDK/GD32VW55x_RELEASE_V1.0.2/MSDK/wpa_supplicant/src/rsn_supp\pmksa_cache.c **** 		if (entry->fils_cache_id_set) {
 2298              		.loc 1 665 3 is_stmt 1
 666:C:/Users/stapi/OneDrive/Desktop/GD32VW553/V1_MQTT_OK/GD32VW55X_Wifi_BLE_SDK/GD32VW55x_RELEASE_V1.0.2/MSDK/wpa_supplicant/src/rsn_supp\pmksa_cache.c **** 			ret = os_snprintf(pos, buf + len - pos, " %02x%02x",
 2299              		.loc 1 666 7 is_stmt 0
 2300 0104 83C78406 		lbu	a5,104(s1)
 665:C:/Users/stapi/OneDrive/Desktop/GD32VW553/V1_MQTT_OK/GD32VW55X_Wifi_BLE_SDK/GD32VW55x_RELEASE_V1.0.2/MSDK/wpa_supplicant/src/rsn_supp\pmksa_cache.c **** 		if (entry->fils_cache_id_set) {
 2301              		.loc 1 665 7
 2302 0108 2A94     		add	s0,s0,a0
 2303              	.LVL215:
 666:C:/Users/stapi/OneDrive/Desktop/GD32VW553/V1_MQTT_OK/GD32VW55X_Wifi_BLE_SDK/GD32VW55x_RELEASE_V1.0.2/MSDK/wpa_supplicant/src/rsn_supp\pmksa_cache.c **** 			ret = os_snprintf(pos, buf + len - pos, " %02x%02x",
 2304              		.loc 1 666 3 is_stmt 1
 666:C:/Users/stapi/OneDrive/Desktop/GD32VW553/V1_MQTT_OK/GD32VW55X_Wifi_BLE_SDK/GD32VW55x_RELEASE_V1.0.2/MSDK/wpa_supplicant/src/rsn_supp\pmksa_cache.c **** 			ret = os_snprintf(pos, buf + len - pos, " %02x%02x",
 2305              		.loc 1 666 6 is_stmt 0
 2306 010a 858B     		andi	a5,a5,1
 2307 010c 95E3     		bne	a5,zero,.L258
 2308              	.L259:
 674:C:/Users/stapi/OneDrive/Desktop/GD32VW553/V1_MQTT_OK/GD32VW55X_Wifi_BLE_SDK/GD32VW55x_RELEASE_V1.0.2/MSDK/wpa_supplicant/src/rsn_supp\pmksa_cache.c **** 		if (os_snprintf_error(buf + len - pos, ret))
 2309              		.loc 1 674 3 is_stmt 1
 674:C:/Users/stapi/OneDrive/Desktop/GD32VW553/V1_MQTT_OK/GD32VW55X_Wifi_BLE_SDK/GD32VW55x_RELEASE_V1.0.2/MSDK/wpa_supplicant/src/rsn_supp\pmksa_cache.c **** 		if (os_snprintf_error(buf + len - pos, ret))
 2310              		.loc 1 674 36 is_stmt 0
 2311 010e B30C8940 		sub	s9,s2,s0
 674:C:/Users/stapi/OneDrive/Desktop/GD32VW553/V1_MQTT_OK/GD32VW55X_Wifi_BLE_SDK/GD32VW55x_RELEASE_V1.0.2/MSDK/wpa_supplicant/src/rsn_supp\pmksa_cache.c **** 		if (os_snprintf_error(buf + len - pos, ret))
 2312              		.loc 1 674 9
 2313 0112 13060C00 		addi	a2,s8,%lo(.LC24)
 2314 0116 E685     		mv	a1,s9
 2315 0118 2285     		mv	a0,s0
 2316              	.LVL216:
 2317 011a 97000000 		call	os_snprintf
 2317      E7800000 
 2318              	.LVL217:
 675:C:/Users/stapi/OneDrive/Desktop/GD32VW553/V1_MQTT_OK/GD32VW55X_Wifi_BLE_SDK/GD32VW55x_RELEASE_V1.0.2/MSDK/wpa_supplicant/src/rsn_supp\pmksa_cache.c **** 			return pos - buf;
 2319              		.loc 1 675 3 is_stmt 1
 2320              	.LBB122:
 2321              	.LBB123:
 2322              		.loc 5 561 2
 2323              		.loc 5 561 17 is_stmt 0
 2324 0122 E34B05FA 		blt	a0,zero,.L269
 2325 0126 E37995FB 		bleu	s9,a0,.L269
 2326              	.LVL218:
 2327              	.LBE123:
 2328              	.LBE122:
 677:C:/Users/stapi/OneDrive/Desktop/GD32VW553/V1_MQTT_OK/GD32VW55X_Wifi_BLE_SDK/GD32VW55x_RELEASE_V1.0.2/MSDK/wpa_supplicant/src/rsn_supp\pmksa_cache.c **** 		entry = entry->next;
 2329              		.loc 1 677 3 is_stmt 1
 678:C:/Users/stapi/OneDrive/Desktop/GD32VW553/V1_MQTT_OK/GD32VW55X_Wifi_BLE_SDK/GD32VW55x_RELEASE_V1.0.2/MSDK/wpa_supplicant/src/rsn_supp\pmksa_cache.c **** 	}
 2330              		.loc 1 678 9 is_stmt 0
 2331 012a 8440     		lw	s1,0(s1)
 2332              	.LVL219:
 677:C:/Users/stapi/OneDrive/Desktop/GD32VW553/V1_MQTT_OK/GD32VW55X_Wifi_BLE_SDK/GD32VW55x_RELEASE_V1.0.2/MSDK/wpa_supplicant/src/rsn_supp\pmksa_cache.c **** 		entry = entry->next;
 2333              		.loc 1 677 7
 2334 012c 2A94     		add	s0,s0,a0
 2335              	.LVL220:
 678:C:/Users/stapi/OneDrive/Desktop/GD32VW553/V1_MQTT_OK/GD32VW55X_Wifi_BLE_SDK/GD32VW55x_RELEASE_V1.0.2/MSDK/wpa_supplicant/src/rsn_supp\pmksa_cache.c **** 	}
 2336              		.loc 1 678 3 is_stmt 1
 2337 012e 15BF     		j	.L254
 2338              	.L258:
 667:C:/Users/stapi/OneDrive/Desktop/GD32VW553/V1_MQTT_OK/GD32VW55X_Wifi_BLE_SDK/GD32VW55x_RELEASE_V1.0.2/MSDK/wpa_supplicant/src/rsn_supp\pmksa_cache.c **** 					  entry->fils_cache_id[0],
 2339              		.loc 1 667 10 is_stmt 0
 2340 0130 03C77406 		lbu	a4,103(s1)
 2341 0134 83C66406 		lbu	a3,102(s1)
 667:C:/Users/stapi/OneDrive/Desktop/GD32VW553/V1_MQTT_OK/GD32VW55X_Wifi_BLE_SDK/GD32VW55x_RELEASE_V1.0.2/MSDK/wpa_supplicant/src/rsn_supp\pmksa_cache.c **** 					  entry->fils_cache_id[0],
 2342              		.loc 1 667 37
 2343 0138 B30C8940 		sub	s9,s2,s0
 667:C:/Users/stapi/OneDrive/Desktop/GD32VW553/V1_MQTT_OK/GD32VW55X_Wifi_BLE_SDK/GD32VW55x_RELEASE_V1.0.2/MSDK/wpa_supplicant/src/rsn_supp\pmksa_cache.c **** 					  entry->fils_cache_id[0],
 2344              		.loc 1 667 4 is_stmt 1
 667:C:/Users/stapi/OneDrive/Desktop/GD32VW553/V1_MQTT_OK/GD32VW55X_Wifi_BLE_SDK/GD32VW55x_RELEASE_V1.0.2/MSDK/wpa_supplicant/src/rsn_supp\pmksa_cache.c **** 					  entry->fils_cache_id[0],
 2345              		.loc 1 667 10 is_stmt 0
 2346 013c 13860B00 		addi	a2,s7,%lo(.LC23)
 2347 0140 E685     		mv	a1,s9
 2348 0142 2285     		mv	a0,s0
 2349              	.LVL221:
 2350 0144 97000000 		call	os_snprintf
 2350      E7800000 
 2351              	.LVL222:
 670:C:/Users/stapi/OneDrive/Desktop/GD32VW553/V1_MQTT_OK/GD32VW55X_Wifi_BLE_SDK/GD32VW55x_RELEASE_V1.0.2/MSDK/wpa_supplicant/src/rsn_supp\pmksa_cache.c **** 				return pos - buf;
 2352              		.loc 1 670 4 is_stmt 1
 2353              	.LBB124:
 2354              	.LBB125:
 2355              		.loc 5 561 2
 2356              		.loc 5 561 17 is_stmt 0
 2357 014c E34605F8 		blt	a0,zero,.L269
 2358 0150 E37495F9 		bleu	s9,a0,.L269
 2359              	.LVL223:
 2360              	.LBE125:
 2361              	.LBE124:
 672:C:/Users/stapi/OneDrive/Desktop/GD32VW553/V1_MQTT_OK/GD32VW55X_Wifi_BLE_SDK/GD32VW55x_RELEASE_V1.0.2/MSDK/wpa_supplicant/src/rsn_supp\pmksa_cache.c **** 		}
 2362              		.loc 1 672 4 is_stmt 1
 672:C:/Users/stapi/OneDrive/Desktop/GD32VW553/V1_MQTT_OK/GD32VW55X_Wifi_BLE_SDK/GD32VW55x_RELEASE_V1.0.2/MSDK/wpa_supplicant/src/rsn_supp\pmksa_cache.c **** 		}
 2363              		.loc 1 672 8 is_stmt 0
 2364 0154 2A94     		add	s0,s0,a0
 2365              	.LVL224:
 2366 0156 65BF     		j	.L259
 2367              		.cfi_endproc
 2368              	.LFE175:
 2370              		.section	.text.pmksa_cache_head,"ax",@progbits
 2371              		.align	1
 2372              		.globl	pmksa_cache_head
 2374              	pmksa_cache_head:
 2375              	.LFB176:
 682:C:/Users/stapi/OneDrive/Desktop/GD32VW553/V1_MQTT_OK/GD32VW55X_Wifi_BLE_SDK/GD32VW55x_RELEASE_V1.0.2/MSDK/wpa_supplicant/src/rsn_supp\pmksa_cache.c **** 
 683:C:/Users/stapi/OneDrive/Desktop/GD32VW553/V1_MQTT_OK/GD32VW55X_Wifi_BLE_SDK/GD32VW55x_RELEASE_V1.0.2/MSDK/wpa_supplicant/src/rsn_supp\pmksa_cache.c **** 
 684:C:/Users/stapi/OneDrive/Desktop/GD32VW553/V1_MQTT_OK/GD32VW55X_Wifi_BLE_SDK/GD32VW55x_RELEASE_V1.0.2/MSDK/wpa_supplicant/src/rsn_supp\pmksa_cache.c **** struct rsn_pmksa_cache_entry * pmksa_cache_head(struct rsn_pmksa_cache *pmksa)
 685:C:/Users/stapi/OneDrive/Desktop/GD32VW553/V1_MQTT_OK/GD32VW55X_Wifi_BLE_SDK/GD32VW55x_RELEASE_V1.0.2/MSDK/wpa_supplicant/src/rsn_supp\pmksa_cache.c **** {
 2376              		.loc 1 685 1 is_stmt 1
 2377              		.cfi_startproc
 2378              	.LVL225:
 686:C:/Users/stapi/OneDrive/Desktop/GD32VW553/V1_MQTT_OK/GD32VW55X_Wifi_BLE_SDK/GD32VW55x_RELEASE_V1.0.2/MSDK/wpa_supplicant/src/rsn_supp\pmksa_cache.c **** 	return pmksa->pmksa;
 2379              		.loc 1 686 2
 687:C:/Users/stapi/OneDrive/Desktop/GD32VW553/V1_MQTT_OK/GD32VW55X_Wifi_BLE_SDK/GD32VW55x_RELEASE_V1.0.2/MSDK/wpa_supplicant/src/rsn_supp\pmksa_cache.c **** }
 2380              		.loc 1 687 1 is_stmt 0
 2381 0000 0841     		lw	a0,0(a0)
 2382              	.LVL226:
 2383 0002 8280     		ret
 2384              		.cfi_endproc
 2385              	.LFE176:
 2387              		.section	.text.pmksa_cache_init,"ax",@progbits
 2388              		.align	1
 2389              		.globl	pmksa_cache_init
 2391              	pmksa_cache_init:
 2392              	.LFB177:
 688:C:/Users/stapi/OneDrive/Desktop/GD32VW553/V1_MQTT_OK/GD32VW55X_Wifi_BLE_SDK/GD32VW55x_RELEASE_V1.0.2/MSDK/wpa_supplicant/src/rsn_supp\pmksa_cache.c **** 
 689:C:/Users/stapi/OneDrive/Desktop/GD32VW553/V1_MQTT_OK/GD32VW55X_Wifi_BLE_SDK/GD32VW55x_RELEASE_V1.0.2/MSDK/wpa_supplicant/src/rsn_supp\pmksa_cache.c **** 
 690:C:/Users/stapi/OneDrive/Desktop/GD32VW553/V1_MQTT_OK/GD32VW55X_Wifi_BLE_SDK/GD32VW55x_RELEASE_V1.0.2/MSDK/wpa_supplicant/src/rsn_supp\pmksa_cache.c **** /**
 691:C:/Users/stapi/OneDrive/Desktop/GD32VW553/V1_MQTT_OK/GD32VW55X_Wifi_BLE_SDK/GD32VW55x_RELEASE_V1.0.2/MSDK/wpa_supplicant/src/rsn_supp\pmksa_cache.c ****  * pmksa_cache_init - Initialize PMKSA cache
 692:C:/Users/stapi/OneDrive/Desktop/GD32VW553/V1_MQTT_OK/GD32VW55X_Wifi_BLE_SDK/GD32VW55x_RELEASE_V1.0.2/MSDK/wpa_supplicant/src/rsn_supp\pmksa_cache.c ****  * @free_cb: Callback function to be called when a PMKSA cache entry is freed
 693:C:/Users/stapi/OneDrive/Desktop/GD32VW553/V1_MQTT_OK/GD32VW55X_Wifi_BLE_SDK/GD32VW55x_RELEASE_V1.0.2/MSDK/wpa_supplicant/src/rsn_supp\pmksa_cache.c ****  * @ctx: Context pointer for free_cb function
 694:C:/Users/stapi/OneDrive/Desktop/GD32VW553/V1_MQTT_OK/GD32VW55X_Wifi_BLE_SDK/GD32VW55x_RELEASE_V1.0.2/MSDK/wpa_supplicant/src/rsn_supp\pmksa_cache.c ****  * @sm: Pointer to WPA state machine data from wpa_sm_init()
 695:C:/Users/stapi/OneDrive/Desktop/GD32VW553/V1_MQTT_OK/GD32VW55X_Wifi_BLE_SDK/GD32VW55x_RELEASE_V1.0.2/MSDK/wpa_supplicant/src/rsn_supp\pmksa_cache.c ****  * Returns: Pointer to PMKSA cache data or %NULL on failure
 696:C:/Users/stapi/OneDrive/Desktop/GD32VW553/V1_MQTT_OK/GD32VW55X_Wifi_BLE_SDK/GD32VW55x_RELEASE_V1.0.2/MSDK/wpa_supplicant/src/rsn_supp\pmksa_cache.c ****  */
 697:C:/Users/stapi/OneDrive/Desktop/GD32VW553/V1_MQTT_OK/GD32VW55X_Wifi_BLE_SDK/GD32VW55x_RELEASE_V1.0.2/MSDK/wpa_supplicant/src/rsn_supp\pmksa_cache.c **** struct rsn_pmksa_cache *
 698:C:/Users/stapi/OneDrive/Desktop/GD32VW553/V1_MQTT_OK/GD32VW55X_Wifi_BLE_SDK/GD32VW55x_RELEASE_V1.0.2/MSDK/wpa_supplicant/src/rsn_supp\pmksa_cache.c **** pmksa_cache_init(void (*free_cb)(struct rsn_pmksa_cache_entry *entry,
 699:C:/Users/stapi/OneDrive/Desktop/GD32VW553/V1_MQTT_OK/GD32VW55X_Wifi_BLE_SDK/GD32VW55x_RELEASE_V1.0.2/MSDK/wpa_supplicant/src/rsn_supp\pmksa_cache.c **** 				 void *ctx, enum pmksa_free_reason reason),
 700:C:/Users/stapi/OneDrive/Desktop/GD32VW553/V1_MQTT_OK/GD32VW55X_Wifi_BLE_SDK/GD32VW55x_RELEASE_V1.0.2/MSDK/wpa_supplicant/src/rsn_supp\pmksa_cache.c **** 		 bool (*is_current_cb)(struct rsn_pmksa_cache_entry *entry,
 701:C:/Users/stapi/OneDrive/Desktop/GD32VW553/V1_MQTT_OK/GD32VW55X_Wifi_BLE_SDK/GD32VW55x_RELEASE_V1.0.2/MSDK/wpa_supplicant/src/rsn_supp\pmksa_cache.c **** 				       void *ctx),
 702:C:/Users/stapi/OneDrive/Desktop/GD32VW553/V1_MQTT_OK/GD32VW55X_Wifi_BLE_SDK/GD32VW55x_RELEASE_V1.0.2/MSDK/wpa_supplicant/src/rsn_supp\pmksa_cache.c **** 		 void *ctx, struct wpa_sm *sm)
 703:C:/Users/stapi/OneDrive/Desktop/GD32VW553/V1_MQTT_OK/GD32VW55X_Wifi_BLE_SDK/GD32VW55x_RELEASE_V1.0.2/MSDK/wpa_supplicant/src/rsn_supp\pmksa_cache.c **** {
 2393              		.loc 1 703 1 is_stmt 1
 2394              		.cfi_startproc
 2395              	.LVL227:
 2396 0000 17030000 		call	t0,__riscv_save_4
 2396      E7020300 
 2397              		.cfi_offset 19, -20
 2398              		.cfi_offset 18, -16
 2399              		.cfi_offset 9, -12
 2400              		.cfi_offset 8, -8
 2401              		.cfi_offset 1, -4
 2402              		.cfi_def_cfa_offset 32
 704:C:/Users/stapi/OneDrive/Desktop/GD32VW553/V1_MQTT_OK/GD32VW55X_Wifi_BLE_SDK/GD32VW55x_RELEASE_V1.0.2/MSDK/wpa_supplicant/src/rsn_supp\pmksa_cache.c **** 	struct rsn_pmksa_cache *pmksa;
 2403              		.loc 1 704 2
 705:C:/Users/stapi/OneDrive/Desktop/GD32VW553/V1_MQTT_OK/GD32VW55X_Wifi_BLE_SDK/GD32VW55x_RELEASE_V1.0.2/MSDK/wpa_supplicant/src/rsn_supp\pmksa_cache.c **** 
 706:C:/Users/stapi/OneDrive/Desktop/GD32VW553/V1_MQTT_OK/GD32VW55X_Wifi_BLE_SDK/GD32VW55x_RELEASE_V1.0.2/MSDK/wpa_supplicant/src/rsn_supp\pmksa_cache.c **** 	pmksa = os_zalloc(sizeof(*pmksa));
 2404              		.loc 1 706 2
 703:C:/Users/stapi/OneDrive/Desktop/GD32VW553/V1_MQTT_OK/GD32VW55X_Wifi_BLE_SDK/GD32VW55x_RELEASE_V1.0.2/MSDK/wpa_supplicant/src/rsn_supp\pmksa_cache.c **** 	struct rsn_pmksa_cache *pmksa;
 2405              		.loc 1 703 1 is_stmt 0
 2406 0008 AA89     		mv	s3,a0
 2407              		.loc 1 706 10
 2408 000a 6145     		li	a0,24
 2409              	.LVL228:
 703:C:/Users/stapi/OneDrive/Desktop/GD32VW553/V1_MQTT_OK/GD32VW55X_Wifi_BLE_SDK/GD32VW55x_RELEASE_V1.0.2/MSDK/wpa_supplicant/src/rsn_supp\pmksa_cache.c **** 	struct rsn_pmksa_cache *pmksa;
 2410              		.loc 1 703 1
 2411 000c 2E89     		mv	s2,a1
 2412 000e B284     		mv	s1,a2
 2413 0010 3684     		mv	s0,a3
 2414              		.loc 1 706 10
 2415 0012 97000000 		call	os_zalloc
 2415      E7800000 
 2416              	.LVL229:
 707:C:/Users/stapi/OneDrive/Desktop/GD32VW553/V1_MQTT_OK/GD32VW55X_Wifi_BLE_SDK/GD32VW55x_RELEASE_V1.0.2/MSDK/wpa_supplicant/src/rsn_supp\pmksa_cache.c **** 	if (pmksa) {
 2417              		.loc 1 707 2 is_stmt 1
 2418              		.loc 1 707 5 is_stmt 0
 2419 001a 19C5     		beq	a0,zero,.L271
 708:C:/Users/stapi/OneDrive/Desktop/GD32VW553/V1_MQTT_OK/GD32VW55X_Wifi_BLE_SDK/GD32VW55x_RELEASE_V1.0.2/MSDK/wpa_supplicant/src/rsn_supp\pmksa_cache.c **** 		pmksa->free_cb = free_cb;
 2420              		.loc 1 708 3 is_stmt 1
 2421              		.loc 1 708 18 is_stmt 0
 2422 001c 23263501 		sw	s3,12(a0)
 709:C:/Users/stapi/OneDrive/Desktop/GD32VW553/V1_MQTT_OK/GD32VW55X_Wifi_BLE_SDK/GD32VW55x_RELEASE_V1.0.2/MSDK/wpa_supplicant/src/rsn_supp\pmksa_cache.c **** 		pmksa->is_current_cb = is_current_cb;
 2423              		.loc 1 709 3 is_stmt 1
 2424              		.loc 1 709 24 is_stmt 0
 2425 0020 23282501 		sw	s2,16(a0)
 710:C:/Users/stapi/OneDrive/Desktop/GD32VW553/V1_MQTT_OK/GD32VW55X_Wifi_BLE_SDK/GD32VW55x_RELEASE_V1.0.2/MSDK/wpa_supplicant/src/rsn_supp\pmksa_cache.c **** 		pmksa->ctx = ctx;
 2426              		.loc 1 710 3 is_stmt 1
 2427              		.loc 1 710 14 is_stmt 0
 2428 0024 44C9     		sw	s1,20(a0)
 711:C:/Users/stapi/OneDrive/Desktop/GD32VW553/V1_MQTT_OK/GD32VW55X_Wifi_BLE_SDK/GD32VW55x_RELEASE_V1.0.2/MSDK/wpa_supplicant/src/rsn_supp\pmksa_cache.c **** 		pmksa->sm = sm;
 2429              		.loc 1 711 3 is_stmt 1
 2430              		.loc 1 711 13 is_stmt 0
 2431 0026 00C5     		sw	s0,8(a0)
 712:C:/Users/stapi/OneDrive/Desktop/GD32VW553/V1_MQTT_OK/GD32VW55X_Wifi_BLE_SDK/GD32VW55x_RELEASE_V1.0.2/MSDK/wpa_supplicant/src/rsn_supp\pmksa_cache.c **** 	}
 713:C:/Users/stapi/OneDrive/Desktop/GD32VW553/V1_MQTT_OK/GD32VW55X_Wifi_BLE_SDK/GD32VW55x_RELEASE_V1.0.2/MSDK/wpa_supplicant/src/rsn_supp\pmksa_cache.c **** 
 714:C:/Users/stapi/OneDrive/Desktop/GD32VW553/V1_MQTT_OK/GD32VW55X_Wifi_BLE_SDK/GD32VW55x_RELEASE_V1.0.2/MSDK/wpa_supplicant/src/rsn_supp\pmksa_cache.c **** 	return pmksa;
 2432              		.loc 1 714 2 is_stmt 1
 2433              	.L271:
 715:C:/Users/stapi/OneDrive/Desktop/GD32VW553/V1_MQTT_OK/GD32VW55X_Wifi_BLE_SDK/GD32VW55x_RELEASE_V1.0.2/MSDK/wpa_supplicant/src/rsn_supp\pmksa_cache.c **** }
 2434              		.loc 1 715 1 is_stmt 0
 2435 0028 17030000 		tail	__riscv_restore_4
 2435      67000300 
 2436              		.cfi_restore 19
 2437              		.cfi_restore 18
 2438              		.cfi_restore 9
 2439              		.cfi_restore 8
 2440              		.cfi_restore 1
 2441              		.cfi_def_cfa_offset 0
 2442              		.cfi_endproc
 2443              	.LFE177:
 2445              		.section	.text.pmksa_cache_reconfig,"ax",@progbits
 2446              		.align	1
 2447              		.globl	pmksa_cache_reconfig
 2449              	pmksa_cache_reconfig:
 2450              	.LFB178:
 716:C:/Users/stapi/OneDrive/Desktop/GD32VW553/V1_MQTT_OK/GD32VW55X_Wifi_BLE_SDK/GD32VW55x_RELEASE_V1.0.2/MSDK/wpa_supplicant/src/rsn_supp\pmksa_cache.c **** 
 717:C:/Users/stapi/OneDrive/Desktop/GD32VW553/V1_MQTT_OK/GD32VW55X_Wifi_BLE_SDK/GD32VW55x_RELEASE_V1.0.2/MSDK/wpa_supplicant/src/rsn_supp\pmksa_cache.c **** 
 718:C:/Users/stapi/OneDrive/Desktop/GD32VW553/V1_MQTT_OK/GD32VW55X_Wifi_BLE_SDK/GD32VW55x_RELEASE_V1.0.2/MSDK/wpa_supplicant/src/rsn_supp\pmksa_cache.c **** void pmksa_cache_reconfig(struct rsn_pmksa_cache *pmksa)
 719:C:/Users/stapi/OneDrive/Desktop/GD32VW553/V1_MQTT_OK/GD32VW55X_Wifi_BLE_SDK/GD32VW55x_RELEASE_V1.0.2/MSDK/wpa_supplicant/src/rsn_supp\pmksa_cache.c **** {
 2451              		.loc 1 719 1 is_stmt 1
 2452              		.cfi_startproc
 2453              	.LVL230:
 720:C:/Users/stapi/OneDrive/Desktop/GD32VW553/V1_MQTT_OK/GD32VW55X_Wifi_BLE_SDK/GD32VW55x_RELEASE_V1.0.2/MSDK/wpa_supplicant/src/rsn_supp\pmksa_cache.c **** 	struct rsn_pmksa_cache_entry *entry;
 2454              		.loc 1 720 2
 721:C:/Users/stapi/OneDrive/Desktop/GD32VW553/V1_MQTT_OK/GD32VW55X_Wifi_BLE_SDK/GD32VW55x_RELEASE_V1.0.2/MSDK/wpa_supplicant/src/rsn_supp\pmksa_cache.c **** 	struct os_reltime now;
 2455              		.loc 1 721 2
 722:C:/Users/stapi/OneDrive/Desktop/GD32VW553/V1_MQTT_OK/GD32VW55X_Wifi_BLE_SDK/GD32VW55x_RELEASE_V1.0.2/MSDK/wpa_supplicant/src/rsn_supp\pmksa_cache.c **** 
 723:C:/Users/stapi/OneDrive/Desktop/GD32VW553/V1_MQTT_OK/GD32VW55X_Wifi_BLE_SDK/GD32VW55x_RELEASE_V1.0.2/MSDK/wpa_supplicant/src/rsn_supp\pmksa_cache.c **** 	if (!pmksa || !pmksa->pmksa)
 2456              		.loc 1 723 2
 2457              		.loc 1 723 5 is_stmt 0
 2458 0000 41C9     		beq	a0,zero,.L293
 719:C:/Users/stapi/OneDrive/Desktop/GD32VW553/V1_MQTT_OK/GD32VW55X_Wifi_BLE_SDK/GD32VW55x_RELEASE_V1.0.2/MSDK/wpa_supplicant/src/rsn_supp\pmksa_cache.c **** 	struct rsn_pmksa_cache_entry *entry;
 2459              		.loc 1 719 1 discriminator 1
 2460 0002 17030000 		call	t0,__riscv_save_3
 2460      E7020300 
 2461              		.cfi_offset 18, -16
 2462              		.cfi_offset 9, -12
 2463              		.cfi_offset 8, -8
 2464              		.cfi_offset 1, -4
 2465              		.cfi_def_cfa_offset 16
 2466              		.loc 1 723 13 discriminator 1
 2467 000a 1C41     		lw	a5,0(a0)
 719:C:/Users/stapi/OneDrive/Desktop/GD32VW553/V1_MQTT_OK/GD32VW55X_Wifi_BLE_SDK/GD32VW55x_RELEASE_V1.0.2/MSDK/wpa_supplicant/src/rsn_supp\pmksa_cache.c **** 	struct rsn_pmksa_cache_entry *entry;
 2468              		.loc 1 719 1 discriminator 1
 2469 000c 0111     		addi	sp,sp,-32
 2470              		.cfi_def_cfa_offset 48
 2471 000e AA84     		mv	s1,a0
 2472              		.loc 1 723 13 discriminator 1
 2473 0010 91CB     		beq	a5,zero,.L277
 724:C:/Users/stapi/OneDrive/Desktop/GD32VW553/V1_MQTT_OK/GD32VW55X_Wifi_BLE_SDK/GD32VW55x_RELEASE_V1.0.2/MSDK/wpa_supplicant/src/rsn_supp\pmksa_cache.c **** 		return;
 725:C:/Users/stapi/OneDrive/Desktop/GD32VW553/V1_MQTT_OK/GD32VW55X_Wifi_BLE_SDK/GD32VW55x_RELEASE_V1.0.2/MSDK/wpa_supplicant/src/rsn_supp\pmksa_cache.c **** 
 726:C:/Users/stapi/OneDrive/Desktop/GD32VW553/V1_MQTT_OK/GD32VW55X_Wifi_BLE_SDK/GD32VW55x_RELEASE_V1.0.2/MSDK/wpa_supplicant/src/rsn_supp\pmksa_cache.c **** 	os_get_reltime(&now);
 2474              		.loc 1 726 2 is_stmt 1
 2475 0012 2808     		addi	a0,sp,24
 2476              	.LVL231:
 2477 0014 97000000 		call	os_get_reltime
 2477      E7800000 
 2478              	.LVL232:
 727:C:/Users/stapi/OneDrive/Desktop/GD32VW553/V1_MQTT_OK/GD32VW55X_Wifi_BLE_SDK/GD32VW55x_RELEASE_V1.0.2/MSDK/wpa_supplicant/src/rsn_supp\pmksa_cache.c **** 	for (entry = pmksa->pmksa; entry; entry = entry->next) {
 2479              		.loc 1 727 2
 2480              		.loc 1 727 13 is_stmt 0
 2481 001c 8040     		lw	s0,0(s1)
 2482              	.LVL233:
 2483              	.LBB129:
 728:C:/Users/stapi/OneDrive/Desktop/GD32VW553/V1_MQTT_OK/GD32VW55X_Wifi_BLE_SDK/GD32VW55x_RELEASE_V1.0.2/MSDK/wpa_supplicant/src/rsn_supp\pmksa_cache.c **** 		u32 life_time;
 729:C:/Users/stapi/OneDrive/Desktop/GD32VW553/V1_MQTT_OK/GD32VW55X_Wifi_BLE_SDK/GD32VW55x_RELEASE_V1.0.2/MSDK/wpa_supplicant/src/rsn_supp\pmksa_cache.c **** 		u8 reauth_threshold;
 730:C:/Users/stapi/OneDrive/Desktop/GD32VW553/V1_MQTT_OK/GD32VW55X_Wifi_BLE_SDK/GD32VW55x_RELEASE_V1.0.2/MSDK/wpa_supplicant/src/rsn_supp\pmksa_cache.c **** 
 731:C:/Users/stapi/OneDrive/Desktop/GD32VW553/V1_MQTT_OK/GD32VW55X_Wifi_BLE_SDK/GD32VW55x_RELEASE_V1.0.2/MSDK/wpa_supplicant/src/rsn_supp\pmksa_cache.c **** 		if (entry->expiration - now.sec < 1 ||
 732:C:/Users/stapi/OneDrive/Desktop/GD32VW553/V1_MQTT_OK/GD32VW55X_Wifi_BLE_SDK/GD32VW55x_RELEASE_V1.0.2/MSDK/wpa_supplicant/src/rsn_supp\pmksa_cache.c **** 		    entry->reauth_time - now.sec < 1)
 733:C:/Users/stapi/OneDrive/Desktop/GD32VW553/V1_MQTT_OK/GD32VW55X_Wifi_BLE_SDK/GD32VW55x_RELEASE_V1.0.2/MSDK/wpa_supplicant/src/rsn_supp\pmksa_cache.c **** 			continue;
 734:C:/Users/stapi/OneDrive/Desktop/GD32VW553/V1_MQTT_OK/GD32VW55X_Wifi_BLE_SDK/GD32VW55x_RELEASE_V1.0.2/MSDK/wpa_supplicant/src/rsn_supp\pmksa_cache.c **** 
 735:C:/Users/stapi/OneDrive/Desktop/GD32VW553/V1_MQTT_OK/GD32VW55X_Wifi_BLE_SDK/GD32VW55x_RELEASE_V1.0.2/MSDK/wpa_supplicant/src/rsn_supp\pmksa_cache.c **** 		life_time = entry->expiration - now.sec;
 736:C:/Users/stapi/OneDrive/Desktop/GD32VW553/V1_MQTT_OK/GD32VW55X_Wifi_BLE_SDK/GD32VW55x_RELEASE_V1.0.2/MSDK/wpa_supplicant/src/rsn_supp\pmksa_cache.c **** 		reauth_threshold = (entry->reauth_time - now.sec) * 100 /
 2484              		.loc 1 736 53
 2485 001e 13094006 		li	s2,100
 2486              	.L280:
 2487              	.LBE129:
 727:C:/Users/stapi/OneDrive/Desktop/GD32VW553/V1_MQTT_OK/GD32VW55X_Wifi_BLE_SDK/GD32VW55x_RELEASE_V1.0.2/MSDK/wpa_supplicant/src/rsn_supp\pmksa_cache.c **** 	for (entry = pmksa->pmksa; entry; entry = entry->next) {
 2488              		.loc 1 727 29 is_stmt 1 discriminator 1
 727:C:/Users/stapi/OneDrive/Desktop/GD32VW553/V1_MQTT_OK/GD32VW55X_Wifi_BLE_SDK/GD32VW55x_RELEASE_V1.0.2/MSDK/wpa_supplicant/src/rsn_supp\pmksa_cache.c **** 	for (entry = pmksa->pmksa; entry; entry = entry->next) {
 2489              		.loc 1 727 2 is_stmt 0 discriminator 1
 2490 0022 11E4     		bne	s0,zero,.L283
 2491              	.LVL234:
 2492              	.L277:
 737:C:/Users/stapi/OneDrive/Desktop/GD32VW553/V1_MQTT_OK/GD32VW55X_Wifi_BLE_SDK/GD32VW55x_RELEASE_V1.0.2/MSDK/wpa_supplicant/src/rsn_supp\pmksa_cache.c **** 			life_time;
 738:C:/Users/stapi/OneDrive/Desktop/GD32VW553/V1_MQTT_OK/GD32VW55X_Wifi_BLE_SDK/GD32VW55x_RELEASE_V1.0.2/MSDK/wpa_supplicant/src/rsn_supp\pmksa_cache.c **** 		if (!reauth_threshold)
 739:C:/Users/stapi/OneDrive/Desktop/GD32VW553/V1_MQTT_OK/GD32VW55X_Wifi_BLE_SDK/GD32VW55x_RELEASE_V1.0.2/MSDK/wpa_supplicant/src/rsn_supp\pmksa_cache.c **** 			continue;
 740:C:/Users/stapi/OneDrive/Desktop/GD32VW553/V1_MQTT_OK/GD32VW55X_Wifi_BLE_SDK/GD32VW55x_RELEASE_V1.0.2/MSDK/wpa_supplicant/src/rsn_supp\pmksa_cache.c **** 
 741:C:/Users/stapi/OneDrive/Desktop/GD32VW553/V1_MQTT_OK/GD32VW55X_Wifi_BLE_SDK/GD32VW55x_RELEASE_V1.0.2/MSDK/wpa_supplicant/src/rsn_supp\pmksa_cache.c **** 		wpa_sm_add_pmkid(pmksa->sm, entry->network_ctx, entry->aa,
 742:C:/Users/stapi/OneDrive/Desktop/GD32VW553/V1_MQTT_OK/GD32VW55X_Wifi_BLE_SDK/GD32VW55x_RELEASE_V1.0.2/MSDK/wpa_supplicant/src/rsn_supp\pmksa_cache.c **** 				 entry->pmkid,
 743:C:/Users/stapi/OneDrive/Desktop/GD32VW553/V1_MQTT_OK/GD32VW55X_Wifi_BLE_SDK/GD32VW55x_RELEASE_V1.0.2/MSDK/wpa_supplicant/src/rsn_supp\pmksa_cache.c **** 				 entry->fils_cache_id_set ?
 744:C:/Users/stapi/OneDrive/Desktop/GD32VW553/V1_MQTT_OK/GD32VW55X_Wifi_BLE_SDK/GD32VW55x_RELEASE_V1.0.2/MSDK/wpa_supplicant/src/rsn_supp\pmksa_cache.c **** 				 entry->fils_cache_id : NULL,
 745:C:/Users/stapi/OneDrive/Desktop/GD32VW553/V1_MQTT_OK/GD32VW55X_Wifi_BLE_SDK/GD32VW55x_RELEASE_V1.0.2/MSDK/wpa_supplicant/src/rsn_supp\pmksa_cache.c **** 				 entry->pmk, entry->pmk_len, life_time,
 746:C:/Users/stapi/OneDrive/Desktop/GD32VW553/V1_MQTT_OK/GD32VW55X_Wifi_BLE_SDK/GD32VW55x_RELEASE_V1.0.2/MSDK/wpa_supplicant/src/rsn_supp\pmksa_cache.c **** 				 reauth_threshold, entry->akmp);
 747:C:/Users/stapi/OneDrive/Desktop/GD32VW553/V1_MQTT_OK/GD32VW55X_Wifi_BLE_SDK/GD32VW55x_RELEASE_V1.0.2/MSDK/wpa_supplicant/src/rsn_supp\pmksa_cache.c **** 	}
 748:C:/Users/stapi/OneDrive/Desktop/GD32VW553/V1_MQTT_OK/GD32VW55X_Wifi_BLE_SDK/GD32VW55x_RELEASE_V1.0.2/MSDK/wpa_supplicant/src/rsn_supp\pmksa_cache.c **** }
 2493              		.loc 1 748 1
 2494 0024 0561     		addi	sp,sp,32
 2495              		.cfi_remember_state
 2496              		.cfi_def_cfa_offset 0
 2497 0026 17030000 		tail	__riscv_restore_3
 2497      67000300 
 2498              		.cfi_restore 18
 2499              		.cfi_restore 9
 2500              		.cfi_restore 8
 2501              		.cfi_restore 1
 2502              		.cfi_def_cfa_offset -16
 2503              	.LVL235:
 2504              	.L283:
 2505              		.cfi_restore_state
 2506              	.LBB132:
 728:C:/Users/stapi/OneDrive/Desktop/GD32VW553/V1_MQTT_OK/GD32VW55X_Wifi_BLE_SDK/GD32VW55x_RELEASE_V1.0.2/MSDK/wpa_supplicant/src/rsn_supp\pmksa_cache.c **** 		u32 life_time;
 2507              		.loc 1 728 3 is_stmt 1
 729:C:/Users/stapi/OneDrive/Desktop/GD32VW553/V1_MQTT_OK/GD32VW55X_Wifi_BLE_SDK/GD32VW55x_RELEASE_V1.0.2/MSDK/wpa_supplicant/src/rsn_supp\pmksa_cache.c **** 
 2508              		.loc 1 729 3
 731:C:/Users/stapi/OneDrive/Desktop/GD32VW553/V1_MQTT_OK/GD32VW55X_Wifi_BLE_SDK/GD32VW55x_RELEASE_V1.0.2/MSDK/wpa_supplicant/src/rsn_supp\pmksa_cache.c **** 		    entry->reauth_time - now.sec < 1)
 2509              		.loc 1 731 3
 731:C:/Users/stapi/OneDrive/Desktop/GD32VW553/V1_MQTT_OK/GD32VW55X_Wifi_BLE_SDK/GD32VW55x_RELEASE_V1.0.2/MSDK/wpa_supplicant/src/rsn_supp\pmksa_cache.c **** 		    entry->reauth_time - now.sec < 1)
 2510              		.loc 1 731 30 is_stmt 0
 2511 002e 6247     		lw	a4,24(sp)
 731:C:/Users/stapi/OneDrive/Desktop/GD32VW553/V1_MQTT_OK/GD32VW55X_Wifi_BLE_SDK/GD32VW55x_RELEASE_V1.0.2/MSDK/wpa_supplicant/src/rsn_supp\pmksa_cache.c **** 		    entry->reauth_time - now.sec < 1)
 2512              		.loc 1 731 25
 2513 0030 83288405 		lw	a7,88(s0)
 2514 0034 B388E840 		sub	a7,a7,a4
 731:C:/Users/stapi/OneDrive/Desktop/GD32VW553/V1_MQTT_OK/GD32VW55X_Wifi_BLE_SDK/GD32VW55x_RELEASE_V1.0.2/MSDK/wpa_supplicant/src/rsn_supp\pmksa_cache.c **** 		    entry->reauth_time - now.sec < 1)
 2515              		.loc 1 731 6
 2516 0038 635A1005 		ble	a7,zero,.L281
 732:C:/Users/stapi/OneDrive/Desktop/GD32VW553/V1_MQTT_OK/GD32VW55X_Wifi_BLE_SDK/GD32VW55x_RELEASE_V1.0.2/MSDK/wpa_supplicant/src/rsn_supp\pmksa_cache.c **** 			continue;
 2517              		.loc 1 732 26 discriminator 1
 2518 003c 7C54     		lw	a5,108(s0)
 2519 003e 998F     		sub	a5,a5,a4
 731:C:/Users/stapi/OneDrive/Desktop/GD32VW553/V1_MQTT_OK/GD32VW55X_Wifi_BLE_SDK/GD32VW55x_RELEASE_V1.0.2/MSDK/wpa_supplicant/src/rsn_supp\pmksa_cache.c **** 		    entry->reauth_time - now.sec < 1)
 2520              		.loc 1 731 39 discriminator 1
 2521 0040 6356F004 		ble	a5,zero,.L281
 735:C:/Users/stapi/OneDrive/Desktop/GD32VW553/V1_MQTT_OK/GD32VW55X_Wifi_BLE_SDK/GD32VW55x_RELEASE_V1.0.2/MSDK/wpa_supplicant/src/rsn_supp\pmksa_cache.c **** 		reauth_threshold = (entry->reauth_time - now.sec) * 100 /
 2522              		.loc 1 735 3 is_stmt 1
 2523              	.LVL236:
 736:C:/Users/stapi/OneDrive/Desktop/GD32VW553/V1_MQTT_OK/GD32VW55X_Wifi_BLE_SDK/GD32VW55x_RELEASE_V1.0.2/MSDK/wpa_supplicant/src/rsn_supp\pmksa_cache.c **** 			life_time;
 2524              		.loc 1 736 3
 736:C:/Users/stapi/OneDrive/Desktop/GD32VW553/V1_MQTT_OK/GD32VW55X_Wifi_BLE_SDK/GD32VW55x_RELEASE_V1.0.2/MSDK/wpa_supplicant/src/rsn_supp\pmksa_cache.c **** 			life_time;
 2525              		.loc 1 736 53 is_stmt 0
 2526 0044 B3872703 		mul	a5,a5,s2
 736:C:/Users/stapi/OneDrive/Desktop/GD32VW553/V1_MQTT_OK/GD32VW55X_Wifi_BLE_SDK/GD32VW55x_RELEASE_V1.0.2/MSDK/wpa_supplicant/src/rsn_supp\pmksa_cache.c **** 			life_time;
 2527              		.loc 1 736 59
 2528 0048 B3D71703 		divu	a5,a5,a7
 736:C:/Users/stapi/OneDrive/Desktop/GD32VW553/V1_MQTT_OK/GD32VW55X_Wifi_BLE_SDK/GD32VW55x_RELEASE_V1.0.2/MSDK/wpa_supplicant/src/rsn_supp\pmksa_cache.c **** 			life_time;
 2529              		.loc 1 736 20
 2530 004c 93F7F70F 		andi	a5,a5,0xff
 2531              	.LVL237:
 738:C:/Users/stapi/OneDrive/Desktop/GD32VW553/V1_MQTT_OK/GD32VW55X_Wifi_BLE_SDK/GD32VW55x_RELEASE_V1.0.2/MSDK/wpa_supplicant/src/rsn_supp\pmksa_cache.c **** 			continue;
 2532              		.loc 1 738 3 is_stmt 1
 738:C:/Users/stapi/OneDrive/Desktop/GD32VW553/V1_MQTT_OK/GD32VW55X_Wifi_BLE_SDK/GD32VW55x_RELEASE_V1.0.2/MSDK/wpa_supplicant/src/rsn_supp\pmksa_cache.c **** 			continue;
 2533              		.loc 1 738 6 is_stmt 0
 2534 0050 95CF     		beq	a5,zero,.L281
 741:C:/Users/stapi/OneDrive/Desktop/GD32VW553/V1_MQTT_OK/GD32VW55X_Wifi_BLE_SDK/GD32VW55x_RELEASE_V1.0.2/MSDK/wpa_supplicant/src/rsn_supp\pmksa_cache.c **** 				 entry->pmkid,
 2535              		.loc 1 741 3 is_stmt 1
 743:C:/Users/stapi/OneDrive/Desktop/GD32VW553/V1_MQTT_OK/GD32VW55X_Wifi_BLE_SDK/GD32VW55x_RELEASE_V1.0.2/MSDK/wpa_supplicant/src/rsn_supp\pmksa_cache.c **** 				 entry->fils_cache_id : NULL,
 2536              		.loc 1 743 31 is_stmt 0
 2537 0052 03458406 		lbu	a0,104(s0)
 741:C:/Users/stapi/OneDrive/Desktop/GD32VW553/V1_MQTT_OK/GD32VW55X_Wifi_BLE_SDK/GD32VW55x_RELEASE_V1.0.2/MSDK/wpa_supplicant/src/rsn_supp\pmksa_cache.c **** 				 entry->pmkid,
 2538              		.loc 1 741 3
 2539 0056 03A88400 		lw	a6,8(s1)
 2540 005a 2C58     		lw	a1,112(s0)
 2541 005c 0589     		andi	a0,a0,1
 741:C:/Users/stapi/OneDrive/Desktop/GD32VW553/V1_MQTT_OK/GD32VW55X_Wifi_BLE_SDK/GD32VW55x_RELEASE_V1.0.2/MSDK/wpa_supplicant/src/rsn_supp\pmksa_cache.c **** 				 entry->pmkid,
 2542              		.loc 1 741 56
 2543 005e 13060406 		addi	a2,s0,96
 742:C:/Users/stapi/OneDrive/Desktop/GD32VW553/V1_MQTT_OK/GD32VW55X_Wifi_BLE_SDK/GD32VW55x_RELEASE_V1.0.2/MSDK/wpa_supplicant/src/rsn_supp\pmksa_cache.c **** 				 entry->fils_cache_id_set ?
 2544              		.loc 1 742 11
 2545 0062 93064400 		addi	a3,s0,4
 741:C:/Users/stapi/OneDrive/Desktop/GD32VW553/V1_MQTT_OK/GD32VW55X_Wifi_BLE_SDK/GD32VW55x_RELEASE_V1.0.2/MSDK/wpa_supplicant/src/rsn_supp\pmksa_cache.c **** 				 entry->pmkid,
 2546              		.loc 1 741 3
 2547 0066 0147     		li	a4,0
 2548 0068 19C1     		beq	a0,zero,.L282
 741:C:/Users/stapi/OneDrive/Desktop/GD32VW553/V1_MQTT_OK/GD32VW55X_Wifi_BLE_SDK/GD32VW55x_RELEASE_V1.0.2/MSDK/wpa_supplicant/src/rsn_supp\pmksa_cache.c **** 				 entry->pmkid,
 2549              		.loc 1 741 3 discriminator 1
 2550 006a 13076406 		addi	a4,s0,102
 2551              	.L282:
 2552 006e 0323483E 		lw	t1,996(a6)
 2553              	.LVL238:
 2554              	.LBB130:
 2555              	.LBB131:
 303:C:/Users/stapi/OneDrive/Desktop/GD32VW553/V1_MQTT_OK/GD32VW55X_Wifi_BLE_SDK/GD32VW55x_RELEASE_V1.0.2/MSDK/wpa_supplicant/src/rsn_supp\wpa_i.h **** 	return sm->ctx->add_pmkid(sm->ctx->ctx, network_ctx, bssid, pmkid,
 2556              		.loc 3 303 2 is_stmt 1 discriminator 4
 303:C:/Users/stapi/OneDrive/Desktop/GD32VW553/V1_MQTT_OK/GD32VW55X_Wifi_BLE_SDK/GD32VW55x_RELEASE_V1.0.2/MSDK/wpa_supplicant/src/rsn_supp\wpa_i.h **** 	return sm->ctx->add_pmkid(sm->ctx->ctx, network_ctx, bssid, pmkid,
 2557              		.loc 3 303 2 discriminator 4
 303:C:/Users/stapi/OneDrive/Desktop/GD32VW553/V1_MQTT_OK/GD32VW55X_Wifi_BLE_SDK/GD32VW55x_RELEASE_V1.0.2/MSDK/wpa_supplicant/src/rsn_supp\wpa_i.h **** 	return sm->ctx->add_pmkid(sm->ctx->ctx, network_ctx, bssid, pmkid,
 2558              		.loc 3 303 2 discriminator 4
 304:C:/Users/stapi/OneDrive/Desktop/GD32VW553/V1_MQTT_OK/GD32VW55X_Wifi_BLE_SDK/GD32VW55x_RELEASE_V1.0.2/MSDK/wpa_supplicant/src/rsn_supp\wpa_i.h **** 				  cache_id, pmk, pmk_len, pmk_lifetime,
 2559              		.loc 3 304 2 discriminator 4
 304:C:/Users/stapi/OneDrive/Desktop/GD32VW553/V1_MQTT_OK/GD32VW55X_Wifi_BLE_SDK/GD32VW55x_RELEASE_V1.0.2/MSDK/wpa_supplicant/src/rsn_supp\wpa_i.h **** 				  cache_id, pmk, pmk_len, pmk_lifetime,
 2560              		.loc 3 304 9 is_stmt 0 discriminator 4
 2561 0072 032EC405 		lw	t3,92(s0)
 2562 0076 03284405 		lw	a6,84(s0)
 2563              	.LVL239:
 2564 007a 03250300 		lw	a0,0(t1)
 2565 007e 3EC0     		sw	a5,0(sp)
 2566              	.LVL240:
 2567 0080 72C2     		sw	t3,4(sp)
 2568 0082 03234303 		lw	t1,52(t1)
 2569 0086 93074401 		addi	a5,s0,20
 2570              	.LVL241:
 2571 008a 0293     		jalr	t1
 2572              	.LVL242:
 2573              	.L281:
 2574              	.LBE131:
 2575              	.LBE130:
 2576              	.LBE132:
 727:C:/Users/stapi/OneDrive/Desktop/GD32VW553/V1_MQTT_OK/GD32VW55X_Wifi_BLE_SDK/GD32VW55x_RELEASE_V1.0.2/MSDK/wpa_supplicant/src/rsn_supp\pmksa_cache.c **** 		u32 life_time;
 2577              		.loc 1 727 36 is_stmt 1 discriminator 2
 727:C:/Users/stapi/OneDrive/Desktop/GD32VW553/V1_MQTT_OK/GD32VW55X_Wifi_BLE_SDK/GD32VW55x_RELEASE_V1.0.2/MSDK/wpa_supplicant/src/rsn_supp\pmksa_cache.c **** 		u32 life_time;
 2578              		.loc 1 727 42 is_stmt 0 discriminator 2
 2579 008c 0040     		lw	s0,0(s0)
 2580              	.LVL243:
 2581 008e 51BF     		j	.L280
 2582              	.LVL244:
 2583              	.L293:
 2584              		.cfi_def_cfa_offset 0
 2585              		.cfi_restore 1
 2586              		.cfi_restore 8
 2587              		.cfi_restore 9
 2588              		.cfi_restore 18
 2589 0090 8280     		ret
 2590              		.cfi_endproc
 2591              	.LFE178:
 2593              		.text
 2594              	.Letext0:
 2595              		.file 6 "c:\\users\\stapi\\onedrive\\desktop\\gd32vw553\\embeddedbuilder_v1.4.7.26843\\tools\\nucl
 2596              		.file 7 "c:\\users\\stapi\\onedrive\\desktop\\gd32vw553\\embeddedbuilder_v1.4.7.26843\\tools\\nucl
 2597              		.file 8 "c:\\users\\stapi\\onedrive\\desktop\\gd32vw553\\embeddedbuilder_v1.4.7.26843\\tools\\nucl
 2598              		.file 9 "..\\..\\..\\..\\wpa_supplicant\\src\\utils/common.h"
 2599              		.file 10 "..\\..\\..\\..\\wpa_supplicant\\src/common/wpa_common.h"
 2600              		.file 11 "C:/Users/stapi/OneDrive/Desktop/GD32VW553/V1_MQTT_OK/GD32VW55X_Wifi_BLE_SDK/GD32VW55x_RE
 2601              		.file 12 "..\\..\\..\\..\\wpa_supplicant\\src/utils/list.h"
 2602              		.file 13 "C:/Users/stapi/OneDrive/Desktop/GD32VW553/V1_MQTT_OK/GD32VW55X_Wifi_BLE_SDK/GD32VW55x_RE
 2603              		.file 14 "..\\..\\..\\..\\wpa_supplicant\\src\\utils/wpa_debug.h"
 2604              		.file 15 "..\\..\\..\\..\\wpa_supplicant\\src\\utils/eloop.h"
DEFINED SYMBOLS
                            *ABS*:0000000000000000 pmksa_cache.c
C:\Users\stapi\AppData\Local\Temp\cc6d032j.s:12     .text.pmksa_cache_reauth:0000000000000000 pmksa_cache_reauth
C:\Users\stapi\AppData\Local\Temp\cc6d032j.s:16     .text.pmksa_cache_reauth:0000000000000000 .L0 
C:\Users\stapi\AppData\Local\Temp\cc6d032j.s:18     .text.pmksa_cache_reauth:0000000000000000 .L0 
C:\Users\stapi\AppData\Local\Temp\cc6d032j.s:19     .text.pmksa_cache_reauth:0000000000000000 .L0 
C:\Users\stapi\AppData\Local\Temp\cc6d032j.s:20     .text.pmksa_cache_reauth:0000000000000000 .L0 
C:\Users\stapi\AppData\Local\Temp\cc6d032j.s:21     .text.pmksa_cache_reauth:0000000000000000 .L0 
C:\Users\stapi\AppData\Local\Temp\cc6d032j.s:26     .text.pmksa_cache_reauth:0000000000000006 .L0 
C:\Users\stapi\AppData\Local\Temp\cc6d032j.s:27     .text.pmksa_cache_reauth:0000000000000006 .L0 
C:\Users\stapi\AppData\Local\Temp\cc6d032j.s:28     .text.pmksa_cache_reauth:0000000000000006 .L0 
C:\Users\stapi\AppData\Local\Temp\cc6d032j.s:29     .text.pmksa_cache_reauth:0000000000000008 .L0 
C:\Users\stapi\AppData\Local\Temp\cc6d032j.s:35     .text.pmksa_cache_free_entry:0000000000000000 pmksa_cache_free_entry
C:\Users\stapi\AppData\Local\Temp\cc6d032j.s:38     .text.pmksa_cache_free_entry:0000000000000000 .L0 
C:\Users\stapi\AppData\Local\Temp\cc6d032j.s:40     .text.pmksa_cache_free_entry:0000000000000000 .L0 
C:\Users\stapi\AppData\Local\Temp\cc6d032j.s:41     .text.pmksa_cache_free_entry:0000000000000008 .L0 
C:\Users\stapi\AppData\Local\Temp\cc6d032j.s:42     .text.pmksa_cache_free_entry:0000000000000008 .L0 
C:\Users\stapi\AppData\Local\Temp\cc6d032j.s:43     .text.pmksa_cache_free_entry:0000000000000008 .L0 
C:\Users\stapi\AppData\Local\Temp\cc6d032j.s:44     .text.pmksa_cache_free_entry:0000000000000008 .L0 
C:\Users\stapi\AppData\Local\Temp\cc6d032j.s:45     .text.pmksa_cache_free_entry:0000000000000008 .L0 
C:\Users\stapi\AppData\Local\Temp\cc6d032j.s:47     .text.pmksa_cache_free_entry:0000000000000008 .L0 
C:\Users\stapi\AppData\Local\Temp\cc6d032j.s:48     .text.pmksa_cache_free_entry:0000000000000008 .L0 
C:\Users\stapi\AppData\Local\Temp\cc6d032j.s:50     .text.pmksa_cache_free_entry:000000000000000a .L0 
C:\Users\stapi\AppData\Local\Temp\cc6d032j.s:52     .text.pmksa_cache_free_entry:000000000000000e .L0 
C:\Users\stapi\AppData\Local\Temp\cc6d032j.s:55     .text.pmksa_cache_free_entry:0000000000000012 .L0 
C:\Users\stapi\AppData\Local\Temp\cc6d032j.s:61     .text.pmksa_cache_free_entry:0000000000000018 .L0 
C:\Users\stapi\AppData\Local\Temp\cc6d032j.s:64     .text.pmksa_cache_free_entry:000000000000001c .L0 
C:\Users\stapi\AppData\Local\Temp\cc6d032j.s:66     .text.pmksa_cache_free_entry:0000000000000020 .L0 
C:\Users\stapi\AppData\Local\Temp\cc6d032j.s:76     .text.pmksa_cache_free_entry:000000000000002c .L0 
C:\Users\stapi\AppData\Local\Temp\cc6d032j.s:77     .text.pmksa_cache_free_entry:000000000000002c .L0 
C:\Users\stapi\AppData\Local\Temp\cc6d032j.s:78     .text.pmksa_cache_free_entry:000000000000002c .L0 
C:\Users\stapi\AppData\Local\Temp\cc6d032j.s:79     .text.pmksa_cache_free_entry:000000000000002c .L0 
C:\Users\stapi\AppData\Local\Temp\cc6d032j.s:80     .text.pmksa_cache_free_entry:000000000000002c .L0 
C:\Users\stapi\AppData\Local\Temp\cc6d032j.s:88     .text.pmksa_cache_free_entry:0000000000000034 .L0 
C:\Users\stapi\AppData\Local\Temp\cc6d032j.s:89     .text.pmksa_cache_free_entry:0000000000000034 .L0 
C:\Users\stapi\AppData\Local\Temp\cc6d032j.s:91     .text.pmksa_cache_free_entry:0000000000000036 .L0 
C:\Users\stapi\AppData\Local\Temp\cc6d032j.s:94     .text.pmksa_cache_free_entry:000000000000003a .L0 
C:\Users\stapi\AppData\Local\Temp\cc6d032j.s:97     .text.pmksa_cache_free_entry:000000000000003e .L0 
C:\Users\stapi\AppData\Local\Temp\cc6d032j.s:104    .text.pmksa_cache_free_entry:0000000000000044 .L0 
C:\Users\stapi\AppData\Local\Temp\cc6d032j.s:105    .text.pmksa_cache_free_entry:0000000000000044 .L0 
C:\Users\stapi\AppData\Local\Temp\cc6d032j.s:112    .text.pmksa_cache_free_entry:0000000000000052 .L0 
C:\Users\stapi\AppData\Local\Temp\cc6d032j.s:113    .text.pmksa_cache_free_entry:000000000000005a .L0 
C:\Users\stapi\AppData\Local\Temp\cc6d032j.s:114    .text.pmksa_cache_free_entry:000000000000005a .L0 
C:\Users\stapi\AppData\Local\Temp\cc6d032j.s:115    .text.pmksa_cache_free_entry:000000000000005a .L0 
C:\Users\stapi\AppData\Local\Temp\cc6d032j.s:116    .text.pmksa_cache_free_entry:000000000000005a .L0 
C:\Users\stapi\AppData\Local\Temp\cc6d032j.s:117    .text.pmksa_cache_free_entry:000000000000005a .L0 
C:\Users\stapi\AppData\Local\Temp\cc6d032j.s:118    .text.pmksa_cache_free_entry:000000000000005a .L0 
C:\Users\stapi\AppData\Local\Temp\cc6d032j.s:125    .text.pmksa_cache_get:0000000000000000 pmksa_cache_get
C:\Users\stapi\AppData\Local\Temp\cc6d032j.s:128    .text.pmksa_cache_get:0000000000000000 .L0 
C:\Users\stapi\AppData\Local\Temp\cc6d032j.s:130    .text.pmksa_cache_get:0000000000000000 .L0 
C:\Users\stapi\AppData\Local\Temp\cc6d032j.s:131    .text.pmksa_cache_get:0000000000000008 .L0 
C:\Users\stapi\AppData\Local\Temp\cc6d032j.s:132    .text.pmksa_cache_get:0000000000000008 .L0 
C:\Users\stapi\AppData\Local\Temp\cc6d032j.s:133    .text.pmksa_cache_get:0000000000000008 .L0 
C:\Users\stapi\AppData\Local\Temp\cc6d032j.s:134    .text.pmksa_cache_get:0000000000000008 .L0 
C:\Users\stapi\AppData\Local\Temp\cc6d032j.s:135    .text.pmksa_cache_get:0000000000000008 .L0 
C:\Users\stapi\AppData\Local\Temp\cc6d032j.s:136    .text.pmksa_cache_get:0000000000000008 .L0 
C:\Users\stapi\AppData\Local\Temp\cc6d032j.s:137    .text.pmksa_cache_get:0000000000000008 .L0 
C:\Users\stapi\AppData\Local\Temp\cc6d032j.s:139    .text.pmksa_cache_get:0000000000000008 .L0 
C:\Users\stapi\AppData\Local\Temp\cc6d032j.s:140    .text.pmksa_cache_get:0000000000000008 .L0 
C:\Users\stapi\AppData\Local\Temp\cc6d032j.s:143    .text.pmksa_cache_get:000000000000000a .L0 
C:\Users\stapi\AppData\Local\Temp\cc6d032j.s:144    .text.pmksa_cache_get:000000000000000a .L0 
C:\Users\stapi\AppData\Local\Temp\cc6d032j.s:151    .text.pmksa_cache_get:0000000000000012 .L0 
C:\Users\stapi\AppData\Local\Temp\cc6d032j.s:153    .text.pmksa_cache_get:0000000000000014 .L0 
C:\Users\stapi\AppData\Local\Temp\cc6d032j.s:154    .text.pmksa_cache_get:0000000000000014 .L0 
C:\Users\stapi\AppData\Local\Temp\cc6d032j.s:157    .text.pmksa_cache_get:0000000000000016 .L0 
C:\Users\stapi\AppData\Local\Temp\cc6d032j.s:160    .text.pmksa_cache_get:000000000000001a .L0 
C:\Users\stapi\AppData\Local\Temp\cc6d032j.s:162    .text.pmksa_cache_get:000000000000001e .L0 
C:\Users\stapi\AppData\Local\Temp\cc6d032j.s:166    .text.pmksa_cache_get:0000000000000024 .L0 
C:\Users\stapi\AppData\Local\Temp\cc6d032j.s:168    .text.pmksa_cache_get:0000000000000028 .L0 
C:\Users\stapi\AppData\Local\Temp\cc6d032j.s:172    .text.pmksa_cache_get:000000000000002e .L0 
C:\Users\stapi\AppData\Local\Temp\cc6d032j.s:174    .text.pmksa_cache_get:0000000000000038 .L0 
C:\Users\stapi\AppData\Local\Temp\cc6d032j.s:175    .text.pmksa_cache_get:0000000000000038 .L0 
C:\Users\stapi\AppData\Local\Temp\cc6d032j.s:176    .text.pmksa_cache_get:0000000000000038 .L0 
C:\Users\stapi\AppData\Local\Temp\cc6d032j.s:177    .text.pmksa_cache_get:0000000000000038 .L0 
C:\Users\stapi\AppData\Local\Temp\cc6d032j.s:178    .text.pmksa_cache_get:0000000000000038 .L0 
C:\Users\stapi\AppData\Local\Temp\cc6d032j.s:179    .text.pmksa_cache_get:0000000000000038 .L0 
C:\Users\stapi\AppData\Local\Temp\cc6d032j.s:180    .text.pmksa_cache_get:0000000000000038 .L0 
C:\Users\stapi\AppData\Local\Temp\cc6d032j.s:181    .text.pmksa_cache_get:0000000000000038 .L0 
C:\Users\stapi\AppData\Local\Temp\cc6d032j.s:183    .text.pmksa_cache_get:0000000000000038 .L0 
C:\Users\stapi\AppData\Local\Temp\cc6d032j.s:185    .text.pmksa_cache_get:0000000000000038 .L0 
C:\Users\stapi\AppData\Local\Temp\cc6d032j.s:191    .text.pmksa_cache_get:0000000000000048 .L0 
C:\Users\stapi\AppData\Local\Temp\cc6d032j.s:194    .text.pmksa_cache_get:000000000000004a .L0 
C:\Users\stapi\AppData\Local\Temp\cc6d032j.s:195    .text.pmksa_cache_get:000000000000004a .L0 
C:\Users\stapi\AppData\Local\Temp\cc6d032j.s:200    .text.pmksa_cache_get:000000000000004e .L0 
C:\Users\stapi\AppData\Local\Temp\cc6d032j.s:206    .text.pmksa_cache_get:000000000000005e .L0 
C:\Users\stapi\AppData\Local\Temp\cc6d032j.s:208    .text.pmksa_cache_get:0000000000000062 .L0 
C:\Users\stapi\AppData\Local\Temp\cc6d032j.s:214    .text.pmksa_cache_set_expiration:0000000000000000 pmksa_cache_set_expiration
C:\Users\stapi\AppData\Local\Temp\cc6d032j.s:217    .text.pmksa_cache_set_expiration:0000000000000000 .L0 
C:\Users\stapi\AppData\Local\Temp\cc6d032j.s:219    .text.pmksa_cache_set_expiration:0000000000000000 .L0 
C:\Users\stapi\AppData\Local\Temp\cc6d032j.s:220    .text.pmksa_cache_set_expiration:0000000000000008 .L0 
C:\Users\stapi\AppData\Local\Temp\cc6d032j.s:221    .text.pmksa_cache_set_expiration:0000000000000008 .L0 
C:\Users\stapi\AppData\Local\Temp\cc6d032j.s:222    .text.pmksa_cache_set_expiration:0000000000000008 .L0 
C:\Users\stapi\AppData\Local\Temp\cc6d032j.s:223    .text.pmksa_cache_set_expiration:0000000000000008 .L0 
C:\Users\stapi\AppData\Local\Temp\cc6d032j.s:224    .text.pmksa_cache_set_expiration:0000000000000008 .L0 
C:\Users\stapi\AppData\Local\Temp\cc6d032j.s:226    .text.pmksa_cache_set_expiration:0000000000000008 .L0 
C:\Users\stapi\AppData\Local\Temp\cc6d032j.s:227    .text.pmksa_cache_set_expiration:0000000000000008 .L0 
C:\Users\stapi\AppData\Local\Temp\cc6d032j.s:228    .text.pmksa_cache_set_expiration:0000000000000008 .L0 
C:\Users\stapi\AppData\Local\Temp\cc6d032j.s:420    .text.pmksa_cache_expire:0000000000000000 pmksa_cache_expire
C:\Users\stapi\AppData\Local\Temp\cc6d032j.s:229    .text.pmksa_cache_set_expiration:0000000000000008 .L0 
C:\Users\stapi\AppData\Local\Temp\cc6d032j.s:231    .text.pmksa_cache_set_expiration:000000000000000c .L0 
C:\Users\stapi\AppData\Local\Temp\cc6d032j.s:233    .text.pmksa_cache_set_expiration:000000000000000e .L0 
C:\Users\stapi\AppData\Local\Temp\cc6d032j.s:235    .text.pmksa_cache_set_expiration:0000000000000010 .L0 
C:\Users\stapi\AppData\Local\Temp\cc6d032j.s:236    .text.pmksa_cache_set_expiration:0000000000000012 .L0 
C:\Users\stapi\AppData\Local\Temp\cc6d032j.s:238    .text.pmksa_cache_set_expiration:0000000000000012 .L0 
C:\Users\stapi\AppData\Local\Temp\cc6d032j.s:244    .text.pmksa_cache_set_expiration:0000000000000020 .L0 
C:\Users\stapi\AppData\Local\Temp\cc6d032j.s:251    .text.pmksa_cache_set_expiration:0000000000000034 .L0 
C:\Users\stapi\AppData\Local\Temp\cc6d032j.s:252    .text.pmksa_cache_set_expiration:0000000000000034 .L0 
C:\Users\stapi\AppData\Local\Temp\cc6d032j.s:258    .text.pmksa_cache_set_expiration:0000000000000038 .L0 
C:\Users\stapi\AppData\Local\Temp\cc6d032j.s:262    .text.pmksa_cache_set_expiration:0000000000000042 .L0 
C:\Users\stapi\AppData\Local\Temp\cc6d032j.s:263    .text.pmksa_cache_set_expiration:0000000000000042 .L0 
C:\Users\stapi\AppData\Local\Temp\cc6d032j.s:265    .text.pmksa_cache_set_expiration:0000000000000044 .L0 
C:\Users\stapi\AppData\Local\Temp\cc6d032j.s:270    .text.pmksa_cache_set_expiration:000000000000004a .L0 
C:\Users\stapi\AppData\Local\Temp\cc6d032j.s:271    .text.pmksa_cache_set_expiration:000000000000004a .L0 
C:\Users\stapi\AppData\Local\Temp\cc6d032j.s:274    .text.pmksa_cache_set_expiration:000000000000004e .L0 
C:\Users\stapi\AppData\Local\Temp\cc6d032j.s:278    .text.pmksa_cache_set_expiration:000000000000004e .L0 
C:\Users\stapi\AppData\Local\Temp\cc6d032j.s:279    .text.pmksa_cache_set_expiration:000000000000004e .L0 
C:\Users\stapi\AppData\Local\Temp\cc6d032j.s:280    .text.pmksa_cache_set_expiration:000000000000004e .L0 
C:\Users\stapi\AppData\Local\Temp\cc6d032j.s:287    .text.pmksa_cache_set_expiration:0000000000000058 .L0 
C:\Users\stapi\AppData\Local\Temp\cc6d032j.s:290    .text.pmksa_cache_set_expiration:000000000000005a .L0 
C:\Users\stapi\AppData\Local\Temp\cc6d032j.s:294    .text.pmksa_cache_set_expiration:000000000000005c .L0 
C:\Users\stapi\AppData\Local\Temp\cc6d032j.s:302    .text.pmksa_cache_set_expiration:0000000000000072 .L0 
C:\Users\stapi\AppData\Local\Temp\cc6d032j.s:303    .text.pmksa_cache_set_expiration:0000000000000072 .L0 
C:\Users\stapi\AppData\Local\Temp\cc6d032j.s:305    .text.pmksa_cache_set_expiration:0000000000000074 .L0 
C:\Users\stapi\AppData\Local\Temp\cc6d032j.s:307    .text.pmksa_cache_set_expiration:0000000000000078 .L0 
C:\Users\stapi\AppData\Local\Temp\cc6d032j.s:309    .text.pmksa_cache_set_expiration:000000000000007a .L0 
C:\Users\stapi\AppData\Local\Temp\cc6d032j.s:317    .text.pmksa_cache_set_expiration:000000000000008e .L0 
C:\Users\stapi\AppData\Local\Temp\cc6d032j.s:318    .text.pmksa_cache_set_expiration:000000000000008e .L0 
C:\Users\stapi\AppData\Local\Temp\cc6d032j.s:324    .text.pmksa_cache_set_expiration:0000000000000090 .L0 
C:\Users\stapi\AppData\Local\Temp\cc6d032j.s:325    .text.pmksa_cache_set_expiration:0000000000000090 .L0 
C:\Users\stapi\AppData\Local\Temp\cc6d032j.s:333    .text.pmksa_cache_set_expiration:000000000000009a .L0 
C:\Users\stapi\AppData\Local\Temp\cc6d032j.s:335    .text.pmksa_cache_set_expiration:000000000000009c .L0 
C:\Users\stapi\AppData\Local\Temp\cc6d032j.s:336    .text.pmksa_cache_set_expiration:000000000000009c .L0 
C:\Users\stapi\AppData\Local\Temp\cc6d032j.s:338    .text.pmksa_cache_set_expiration:000000000000009e .L0 
C:\Users\stapi\AppData\Local\Temp\cc6d032j.s:341    .text.pmksa_cache_set_expiration:00000000000000a4 .L0 
C:\Users\stapi\AppData\Local\Temp\cc6d032j.s:344    .text.pmksa_cache_set_expiration:00000000000000a8 .L0 
C:\Users\stapi\AppData\Local\Temp\cc6d032j.s:346    .text.pmksa_cache_set_expiration:00000000000000aa .L0 
C:\Users\stapi\AppData\Local\Temp\cc6d032j.s:349    .text.pmksa_cache_set_expiration:00000000000000ac .L0 
C:\Users\stapi\AppData\Local\Temp\cc6d032j.s:350    .text.pmksa_cache_set_expiration:00000000000000ac .L0 
C:\Users\stapi\AppData\Local\Temp\cc6d032j.s:359    .text.pmksa_cache_set_expiration:00000000000000ba .L0 
C:\Users\stapi\AppData\Local\Temp\cc6d032j.s:360    .text.pmksa_cache_set_expiration:00000000000000bc .L0 
C:\Users\stapi\AppData\Local\Temp\cc6d032j.s:361    .text.pmksa_cache_set_expiration:00000000000000bc .L0 
C:\Users\stapi\AppData\Local\Temp\cc6d032j.s:363    .text.pmksa_cache_set_expiration:00000000000000c4 .L0 
C:\Users\stapi\AppData\Local\Temp\cc6d032j.s:364    .text.pmksa_cache_set_expiration:00000000000000c4 .L0 
C:\Users\stapi\AppData\Local\Temp\cc6d032j.s:365    .text.pmksa_cache_set_expiration:00000000000000c4 .L0 
C:\Users\stapi\AppData\Local\Temp\cc6d032j.s:366    .text.pmksa_cache_set_expiration:00000000000000c4 .L0 
C:\Users\stapi\AppData\Local\Temp\cc6d032j.s:367    .text.pmksa_cache_set_expiration:00000000000000c4 .L0 
C:\Users\stapi\AppData\Local\Temp\cc6d032j.s:370    .text.pmksa_cache_set_expiration:00000000000000c4 .L0 
C:\Users\stapi\AppData\Local\Temp\cc6d032j.s:374    .text.pmksa_cache_set_expiration:00000000000000c4 .L0 
C:\Users\stapi\AppData\Local\Temp\cc6d032j.s:379    .text.pmksa_cache_set_expiration:00000000000000ca .L0 
C:\Users\stapi\AppData\Local\Temp\cc6d032j.s:381    .text.pmksa_cache_set_expiration:00000000000000cc .L0 
C:\Users\stapi\AppData\Local\Temp\cc6d032j.s:382    .text.pmksa_cache_set_expiration:00000000000000cc .L0 
C:\Users\stapi\AppData\Local\Temp\cc6d032j.s:386    .text.pmksa_cache_set_expiration:00000000000000d0 .L0 
C:\Users\stapi\AppData\Local\Temp\cc6d032j.s:387    .text.pmksa_cache_set_expiration:00000000000000d0 .L0 
C:\Users\stapi\AppData\Local\Temp\cc6d032j.s:389    .text.pmksa_cache_set_expiration:00000000000000d4 .L0 
C:\Users\stapi\AppData\Local\Temp\cc6d032j.s:392    .text.pmksa_cache_set_expiration:00000000000000d6 .L0 
C:\Users\stapi\AppData\Local\Temp\cc6d032j.s:393    .text.pmksa_cache_set_expiration:00000000000000d6 .L0 
C:\Users\stapi\AppData\Local\Temp\cc6d032j.s:394    .text.pmksa_cache_set_expiration:00000000000000d6 .L0 
C:\Users\stapi\AppData\Local\Temp\cc6d032j.s:407    .text.pmksa_cache_set_expiration:00000000000000ec .L0 
C:\Users\stapi\AppData\Local\Temp\cc6d032j.s:423    .text.pmksa_cache_expire:0000000000000000 .L0 
C:\Users\stapi\AppData\Local\Temp\cc6d032j.s:425    .text.pmksa_cache_expire:0000000000000000 .L0 
C:\Users\stapi\AppData\Local\Temp\cc6d032j.s:426    .text.pmksa_cache_expire:0000000000000008 .L0 
C:\Users\stapi\AppData\Local\Temp\cc6d032j.s:427    .text.pmksa_cache_expire:0000000000000008 .L0 
C:\Users\stapi\AppData\Local\Temp\cc6d032j.s:428    .text.pmksa_cache_expire:0000000000000008 .L0 
C:\Users\stapi\AppData\Local\Temp\cc6d032j.s:429    .text.pmksa_cache_expire:0000000000000008 .L0 
C:\Users\stapi\AppData\Local\Temp\cc6d032j.s:430    .text.pmksa_cache_expire:0000000000000008 .L0 
C:\Users\stapi\AppData\Local\Temp\cc6d032j.s:431    .text.pmksa_cache_expire:0000000000000008 .L0 
C:\Users\stapi\AppData\Local\Temp\cc6d032j.s:432    .text.pmksa_cache_expire:0000000000000008 .L0 
C:\Users\stapi\AppData\Local\Temp\cc6d032j.s:433    .text.pmksa_cache_expire:0000000000000008 .L0 
C:\Users\stapi\AppData\Local\Temp\cc6d032j.s:434    .text.pmksa_cache_expire:0000000000000008 .L0 
C:\Users\stapi\AppData\Local\Temp\cc6d032j.s:437    .text.pmksa_cache_expire:0000000000000008 .L0 
C:\Users\stapi\AppData\Local\Temp\cc6d032j.s:438    .text.pmksa_cache_expire:0000000000000008 .L0 
C:\Users\stapi\AppData\Local\Temp\cc6d032j.s:439    .text.pmksa_cache_expire:0000000000000008 .L0 
C:\Users\stapi\AppData\Local\Temp\cc6d032j.s:440    .text.pmksa_cache_expire:0000000000000008 .L0 
C:\Users\stapi\AppData\Local\Temp\cc6d032j.s:441    .text.pmksa_cache_expire:0000000000000008 .L0 
C:\Users\stapi\AppData\Local\Temp\cc6d032j.s:442    .text.pmksa_cache_expire:000000000000000a .L0 
C:\Users\stapi\AppData\Local\Temp\cc6d032j.s:444    .text.pmksa_cache_expire:000000000000000a .L0 
C:\Users\stapi\AppData\Local\Temp\cc6d032j.s:447    .text.pmksa_cache_expire:000000000000000c .L0 
C:\Users\stapi\AppData\Local\Temp\cc6d032j.s:448    .text.pmksa_cache_expire:000000000000000c .L0 
C:\Users\stapi\AppData\Local\Temp\cc6d032j.s:452    .text.pmksa_cache_expire:000000000000000e .L0 
C:\Users\stapi\AppData\Local\Temp\cc6d032j.s:456    .text.pmksa_cache_expire:0000000000000010 .L0 
C:\Users\stapi\AppData\Local\Temp\cc6d032j.s:461    .text.pmksa_cache_expire:000000000000001a .L0 
C:\Users\stapi\AppData\Local\Temp\cc6d032j.s:462    .text.pmksa_cache_expire:000000000000001a .L0 
C:\Users\stapi\AppData\Local\Temp\cc6d032j.s:466    .text.pmksa_cache_expire:000000000000001c .L0 
C:\Users\stapi\AppData\Local\Temp\cc6d032j.s:470    .text.pmksa_cache_expire:0000000000000020 .L0 
C:\Users\stapi\AppData\Local\Temp\cc6d032j.s:472    .text.pmksa_cache_expire:0000000000000024 .L0 
C:\Users\stapi\AppData\Local\Temp\cc6d032j.s:476    .text.pmksa_cache_expire:0000000000000028 .L0 
C:\Users\stapi\AppData\Local\Temp\cc6d032j.s:478    .text.pmksa_cache_expire:000000000000002a .L0 
C:\Users\stapi\AppData\Local\Temp\cc6d032j.s:483    .text.pmksa_cache_expire:0000000000000032 .L0 
C:\Users\stapi\AppData\Local\Temp\cc6d032j.s:487    .text.pmksa_cache_expire:000000000000003c .L0 
C:\Users\stapi\AppData\Local\Temp\cc6d032j.s:488    .text.pmksa_cache_expire:000000000000003e .L0 
C:\Users\stapi\AppData\Local\Temp\cc6d032j.s:489    .text.pmksa_cache_expire:000000000000003e .L0 
C:\Users\stapi\AppData\Local\Temp\cc6d032j.s:491    .text.pmksa_cache_expire:0000000000000046 .L0 
C:\Users\stapi\AppData\Local\Temp\cc6d032j.s:492    .text.pmksa_cache_expire:0000000000000046 .L0 
C:\Users\stapi\AppData\Local\Temp\cc6d032j.s:493    .text.pmksa_cache_expire:0000000000000046 .L0 
C:\Users\stapi\AppData\Local\Temp\cc6d032j.s:494    .text.pmksa_cache_expire:0000000000000046 .L0 
C:\Users\stapi\AppData\Local\Temp\cc6d032j.s:495    .text.pmksa_cache_expire:0000000000000046 .L0 
C:\Users\stapi\AppData\Local\Temp\cc6d032j.s:496    .text.pmksa_cache_expire:0000000000000046 .L0 
C:\Users\stapi\AppData\Local\Temp\cc6d032j.s:497    .text.pmksa_cache_expire:0000000000000046 .L0 
C:\Users\stapi\AppData\Local\Temp\cc6d032j.s:498    .text.pmksa_cache_expire:0000000000000046 .L0 
C:\Users\stapi\AppData\Local\Temp\cc6d032j.s:499    .text.pmksa_cache_expire:0000000000000046 .L0 
C:\Users\stapi\AppData\Local\Temp\cc6d032j.s:501    .text.pmksa_cache_expire:0000000000000046 .L0 
C:\Users\stapi\AppData\Local\Temp\cc6d032j.s:506    .text.pmksa_cache_expire:0000000000000046 .L0 
C:\Users\stapi\AppData\Local\Temp\cc6d032j.s:507    .text.pmksa_cache_expire:0000000000000046 .L0 
C:\Users\stapi\AppData\Local\Temp\cc6d032j.s:508    .text.pmksa_cache_expire:0000000000000046 .L0 
C:\Users\stapi\AppData\Local\Temp\cc6d032j.s:513    .text.pmksa_cache_expire:000000000000004c .L0 
C:\Users\stapi\AppData\Local\Temp\cc6d032j.s:515    .text.pmksa_cache_expire:000000000000004e .L0 
C:\Users\stapi\AppData\Local\Temp\cc6d032j.s:521    .text.pmksa_cache_expire:0000000000000056 .L0 
C:\Users\stapi\AppData\Local\Temp\cc6d032j.s:523    .text.pmksa_cache_expire:0000000000000058 .L0 
C:\Users\stapi\AppData\Local\Temp\cc6d032j.s:534    .text.pmksa_cache_expire:000000000000007e .L0 
C:\Users\stapi\AppData\Local\Temp\cc6d032j.s:535    .text.pmksa_cache_expire:000000000000007e .L0 
C:\Users\stapi\AppData\Local\Temp\cc6d032j.s:536    .text.pmksa_cache_expire:000000000000007e .L0 
C:\Users\stapi\AppData\Local\Temp\cc6d032j.s:538    .text.pmksa_cache_expire:0000000000000080 .L0 
C:\Users\stapi\AppData\Local\Temp\cc6d032j.s:541    .text.pmksa_cache_expire:0000000000000082 .L0 
C:\Users\stapi\AppData\Local\Temp\cc6d032j.s:544    .text.pmksa_cache_expire:0000000000000084 .L0 
C:\Users\stapi\AppData\Local\Temp\cc6d032j.s:555    .text.pmksa_cache_expire:00000000000000aa .L0 
C:\Users\stapi\AppData\Local\Temp\cc6d032j.s:557    .text.pmksa_cache_expire:00000000000000ac .L0 
C:\Users\stapi\AppData\Local\Temp\cc6d032j.s:559    .text.pmksa_cache_expire:00000000000000b0 .L0 
C:\Users\stapi\AppData\Local\Temp\cc6d032j.s:560    .text.pmksa_cache_expire:00000000000000b0 .L0 
C:\Users\stapi\AppData\Local\Temp\cc6d032j.s:564    .text.pmksa_cache_expire:00000000000000b4 .L0 
C:\Users\stapi\AppData\Local\Temp\cc6d032j.s:565    .text.pmksa_cache_expire:00000000000000b4 .L0 
C:\Users\stapi\AppData\Local\Temp\cc6d032j.s:566    .text.pmksa_cache_expire:00000000000000b4 .L0 
C:\Users\stapi\AppData\Local\Temp\cc6d032j.s:569    .text.pmksa_cache_expire:00000000000000b8 .L0 
C:\Users\stapi\AppData\Local\Temp\cc6d032j.s:575    .text.pmksa_cache_expire:00000000000000c6 .L0 
C:\Users\stapi\AppData\Local\Temp\cc6d032j.s:581    .text.pmksa_cache_expire:00000000000000ca .L0 
C:\Users\stapi\AppData\Local\Temp\cc6d032j.s:582    .text.pmksa_cache_expire:00000000000000ca .L0 
C:\Users\stapi\AppData\Local\Temp\cc6d032j.s:584    .text.pmksa_cache_expire:00000000000000ce .L0 
C:\Users\stapi\AppData\Local\Temp\cc6d032j.s:595    .text.pmksa_cache_flush:0000000000000000 pmksa_cache_flush
C:\Users\stapi\AppData\Local\Temp\cc6d032j.s:598    .text.pmksa_cache_flush:0000000000000000 .L0 
C:\Users\stapi\AppData\Local\Temp\cc6d032j.s:600    .text.pmksa_cache_flush:0000000000000000 .L0 
C:\Users\stapi\AppData\Local\Temp\cc6d032j.s:601    .text.pmksa_cache_flush:0000000000000008 .L0 
C:\Users\stapi\AppData\Local\Temp\cc6d032j.s:602    .text.pmksa_cache_flush:0000000000000008 .L0 
C:\Users\stapi\AppData\Local\Temp\cc6d032j.s:603    .text.pmksa_cache_flush:0000000000000008 .L0 
C:\Users\stapi\AppData\Local\Temp\cc6d032j.s:604    .text.pmksa_cache_flush:0000000000000008 .L0 
C:\Users\stapi\AppData\Local\Temp\cc6d032j.s:605    .text.pmksa_cache_flush:0000000000000008 .L0 
C:\Users\stapi\AppData\Local\Temp\cc6d032j.s:606    .text.pmksa_cache_flush:0000000000000008 .L0 
C:\Users\stapi\AppData\Local\Temp\cc6d032j.s:607    .text.pmksa_cache_flush:0000000000000008 .L0 
C:\Users\stapi\AppData\Local\Temp\cc6d032j.s:608    .text.pmksa_cache_flush:0000000000000008 .L0 
C:\Users\stapi\AppData\Local\Temp\cc6d032j.s:609    .text.pmksa_cache_flush:0000000000000008 .L0 
C:\Users\stapi\AppData\Local\Temp\cc6d032j.s:610    .text.pmksa_cache_flush:0000000000000008 .L0 
C:\Users\stapi\AppData\Local\Temp\cc6d032j.s:611    .text.pmksa_cache_flush:0000000000000008 .L0 
C:\Users\stapi\AppData\Local\Temp\cc6d032j.s:612    .text.pmksa_cache_flush:0000000000000008 .L0 
C:\Users\stapi\AppData\Local\Temp\cc6d032j.s:615    .text.pmksa_cache_flush:0000000000000008 .L0 
C:\Users\stapi\AppData\Local\Temp\cc6d032j.s:616    .text.pmksa_cache_flush:0000000000000008 .L0 
C:\Users\stapi\AppData\Local\Temp\cc6d032j.s:617    .text.pmksa_cache_flush:0000000000000008 .L0 
C:\Users\stapi\AppData\Local\Temp\cc6d032j.s:618    .text.pmksa_cache_flush:0000000000000008 .L0 
C:\Users\stapi\AppData\Local\Temp\cc6d032j.s:621    .text.pmksa_cache_flush:000000000000000a .L0 
C:\Users\stapi\AppData\Local\Temp\cc6d032j.s:622    .text.pmksa_cache_flush:000000000000000a .L0 
C:\Users\stapi\AppData\Local\Temp\cc6d032j.s:628    .text.pmksa_cache_flush:0000000000000014 .L0 
C:\Users\stapi\AppData\Local\Temp\cc6d032j.s:630    .text.pmksa_cache_flush:0000000000000016 .L0 
C:\Users\stapi\AppData\Local\Temp\cc6d032j.s:632    .text.pmksa_cache_flush:0000000000000018 .L0 
C:\Users\stapi\AppData\Local\Temp\cc6d032j.s:636    .text.pmksa_cache_flush:000000000000001c .L0 
C:\Users\stapi\AppData\Local\Temp\cc6d032j.s:638    .text.pmksa_cache_flush:000000000000001e .L0 
C:\Users\stapi\AppData\Local\Temp\cc6d032j.s:639    .text.pmksa_cache_flush:000000000000001e .L0 
C:\Users\stapi\AppData\Local\Temp\cc6d032j.s:641    .text.pmksa_cache_flush:0000000000000022 .L0 
C:\Users\stapi\AppData\Local\Temp\cc6d032j.s:646    .text.pmksa_cache_flush:000000000000002c .L0 
C:\Users\stapi\AppData\Local\Temp\cc6d032j.s:647    .text.pmksa_cache_flush:0000000000000034 .L0 
C:\Users\stapi\AppData\Local\Temp\cc6d032j.s:648    .text.pmksa_cache_flush:0000000000000034 .L0 
C:\Users\stapi\AppData\Local\Temp\cc6d032j.s:649    .text.pmksa_cache_flush:0000000000000034 .L0 
C:\Users\stapi\AppData\Local\Temp\cc6d032j.s:650    .text.pmksa_cache_flush:0000000000000034 .L0 
C:\Users\stapi\AppData\Local\Temp\cc6d032j.s:651    .text.pmksa_cache_flush:0000000000000034 .L0 
C:\Users\stapi\AppData\Local\Temp\cc6d032j.s:652    .text.pmksa_cache_flush:0000000000000034 .L0 
C:\Users\stapi\AppData\Local\Temp\cc6d032j.s:653    .text.pmksa_cache_flush:0000000000000034 .L0 
C:\Users\stapi\AppData\Local\Temp\cc6d032j.s:654    .text.pmksa_cache_flush:0000000000000034 .L0 
C:\Users\stapi\AppData\Local\Temp\cc6d032j.s:655    .text.pmksa_cache_flush:0000000000000034 .L0 
C:\Users\stapi\AppData\Local\Temp\cc6d032j.s:656    .text.pmksa_cache_flush:0000000000000034 .L0 
C:\Users\stapi\AppData\Local\Temp\cc6d032j.s:657    .text.pmksa_cache_flush:0000000000000034 .L0 
C:\Users\stapi\AppData\Local\Temp\cc6d032j.s:658    .text.pmksa_cache_flush:0000000000000034 .L0 
C:\Users\stapi\AppData\Local\Temp\cc6d032j.s:659    .text.pmksa_cache_flush:0000000000000034 .L0 
C:\Users\stapi\AppData\Local\Temp\cc6d032j.s:661    .text.pmksa_cache_flush:0000000000000034 .L0 
C:\Users\stapi\AppData\Local\Temp\cc6d032j.s:663    .text.pmksa_cache_flush:0000000000000034 .L0 
C:\Users\stapi\AppData\Local\Temp\cc6d032j.s:664    .text.pmksa_cache_flush:0000000000000034 .L0 
C:\Users\stapi\AppData\Local\Temp\cc6d032j.s:667    .text.pmksa_cache_flush:000000000000003a .L0 
C:\Users\stapi\AppData\Local\Temp\cc6d032j.s:670    .text.pmksa_cache_flush:000000000000003e .L0 
C:\Users\stapi\AppData\Local\Temp\cc6d032j.s:673    .text.pmksa_cache_flush:0000000000000042 .L0 
C:\Users\stapi\AppData\Local\Temp\cc6d032j.s:676    .text.pmksa_cache_flush:0000000000000046 .L0 
C:\Users\stapi\AppData\Local\Temp\cc6d032j.s:687    .text.pmksa_cache_flush:000000000000006c .L0 
C:\Users\stapi\AppData\Local\Temp\cc6d032j.s:689    .text.pmksa_cache_flush:000000000000006e .L0 
C:\Users\stapi\AppData\Local\Temp\cc6d032j.s:691    .text.pmksa_cache_flush:0000000000000072 .L0 
C:\Users\stapi\AppData\Local\Temp\cc6d032j.s:692    .text.pmksa_cache_flush:0000000000000072 .L0 
C:\Users\stapi\AppData\Local\Temp\cc6d032j.s:696    .text.pmksa_cache_flush:0000000000000076 .L0 
C:\Users\stapi\AppData\Local\Temp\cc6d032j.s:697    .text.pmksa_cache_flush:0000000000000076 .L0 
C:\Users\stapi\AppData\Local\Temp\cc6d032j.s:698    .text.pmksa_cache_flush:0000000000000076 .L0 
C:\Users\stapi\AppData\Local\Temp\cc6d032j.s:701    .text.pmksa_cache_flush:000000000000007a .L0 
C:\Users\stapi\AppData\Local\Temp\cc6d032j.s:707    .text.pmksa_cache_flush:0000000000000088 .L0 
C:\Users\stapi\AppData\Local\Temp\cc6d032j.s:708    .text.pmksa_cache_flush:0000000000000088 .L0 
C:\Users\stapi\AppData\Local\Temp\cc6d032j.s:711    .text.pmksa_cache_flush:000000000000008a .L0 
C:\Users\stapi\AppData\Local\Temp\cc6d032j.s:714    .text.pmksa_cache_flush:000000000000008c .L0 
C:\Users\stapi\AppData\Local\Temp\cc6d032j.s:718    .text.pmksa_cache_flush:000000000000008e .L0 
C:\Users\stapi\AppData\Local\Temp\cc6d032j.s:721    .text.pmksa_cache_flush:0000000000000094 .L0 
C:\Users\stapi\AppData\Local\Temp\cc6d032j.s:727    .text.pmksa_cache_flush:00000000000000a4 .L0 
C:\Users\stapi\AppData\Local\Temp\cc6d032j.s:731    .text.pmksa_cache_flush:00000000000000a6 .L0 
C:\Users\stapi\AppData\Local\Temp\cc6d032j.s:732    .text.pmksa_cache_flush:00000000000000a6 .L0 
C:\Users\stapi\AppData\Local\Temp\cc6d032j.s:733    .text.pmksa_cache_flush:00000000000000a6 .L0 
C:\Users\stapi\AppData\Local\Temp\cc6d032j.s:739    .text.pmksa_cache_flush:00000000000000ac .L0 
C:\Users\stapi\AppData\Local\Temp\cc6d032j.s:744    .text.pmksa_cache_flush:00000000000000b4 .L0 
C:\Users\stapi\AppData\Local\Temp\cc6d032j.s:745    .text.pmksa_cache_flush:00000000000000b4 .L0 
C:\Users\stapi\AppData\Local\Temp\cc6d032j.s:747    .text.pmksa_cache_flush:00000000000000b8 .L0 
C:\Users\stapi\AppData\Local\Temp\cc6d032j.s:767    .text.pmksa_cache_add_entry:0000000000000000 pmksa_cache_add_entry
C:\Users\stapi\AppData\Local\Temp\cc6d032j.s:770    .text.pmksa_cache_add_entry:0000000000000000 .L0 
C:\Users\stapi\AppData\Local\Temp\cc6d032j.s:772    .text.pmksa_cache_add_entry:0000000000000000 .L0 
C:\Users\stapi\AppData\Local\Temp\cc6d032j.s:773    .text.pmksa_cache_add_entry:0000000000000008 .L0 
C:\Users\stapi\AppData\Local\Temp\cc6d032j.s:774    .text.pmksa_cache_add_entry:0000000000000008 .L0 
C:\Users\stapi\AppData\Local\Temp\cc6d032j.s:775    .text.pmksa_cache_add_entry:0000000000000008 .L0 
C:\Users\stapi\AppData\Local\Temp\cc6d032j.s:776    .text.pmksa_cache_add_entry:0000000000000008 .L0 
C:\Users\stapi\AppData\Local\Temp\cc6d032j.s:777    .text.pmksa_cache_add_entry:0000000000000008 .L0 
C:\Users\stapi\AppData\Local\Temp\cc6d032j.s:778    .text.pmksa_cache_add_entry:0000000000000008 .L0 
C:\Users\stapi\AppData\Local\Temp\cc6d032j.s:779    .text.pmksa_cache_add_entry:0000000000000008 .L0 
C:\Users\stapi\AppData\Local\Temp\cc6d032j.s:781    .text.pmksa_cache_add_entry:0000000000000008 .L0 
C:\Users\stapi\AppData\Local\Temp\cc6d032j.s:782    .text.pmksa_cache_add_entry:0000000000000008 .L0 
C:\Users\stapi\AppData\Local\Temp\cc6d032j.s:783    .text.pmksa_cache_add_entry:0000000000000008 .L0 
C:\Users\stapi\AppData\Local\Temp\cc6d032j.s:786    .text.pmksa_cache_add_entry:000000000000000c .L0 
C:\Users\stapi\AppData\Local\Temp\cc6d032j.s:787    .text.pmksa_cache_add_entry:000000000000000c .L0 
C:\Users\stapi\AppData\Local\Temp\cc6d032j.s:788    .text.pmksa_cache_add_entry:000000000000000c .L0 
C:\Users\stapi\AppData\Local\Temp\cc6d032j.s:789    .text.pmksa_cache_add_entry:000000000000000e .L0 
C:\Users\stapi\AppData\Local\Temp\cc6d032j.s:791    .text.pmksa_cache_add_entry:000000000000000e .L0 
C:\Users\stapi\AppData\Local\Temp\cc6d032j.s:794    .text.pmksa_cache_add_entry:0000000000000012 .L0 
C:\Users\stapi\AppData\Local\Temp\cc6d032j.s:796    .text.pmksa_cache_add_entry:0000000000000014 .L0 
C:\Users\stapi\AppData\Local\Temp\cc6d032j.s:800    .text.pmksa_cache_add_entry:0000000000000018 .L0 
C:\Users\stapi\AppData\Local\Temp\cc6d032j.s:802    .text.pmksa_cache_add_entry:000000000000001c .L0 
C:\Users\stapi\AppData\Local\Temp\cc6d032j.s:803    .text.pmksa_cache_add_entry:000000000000001c .L0 
C:\Users\stapi\AppData\Local\Temp\cc6d032j.s:809    .text.pmksa_cache_add_entry:000000000000002c .L0 
C:\Users\stapi\AppData\Local\Temp\cc6d032j.s:811    .text.pmksa_cache_add_entry:0000000000000030 .L0 
C:\Users\stapi\AppData\Local\Temp\cc6d032j.s:812    .text.pmksa_cache_add_entry:0000000000000030 .L0 
C:\Users\stapi\AppData\Local\Temp\cc6d032j.s:814    .text.pmksa_cache_add_entry:0000000000000032 .L0 
C:\Users\stapi\AppData\Local\Temp\cc6d032j.s:817    .text.pmksa_cache_add_entry:000000000000003a .L0 
C:\Users\stapi\AppData\Local\Temp\cc6d032j.s:822    .text.pmksa_cache_add_entry:000000000000004a .L0 
C:\Users\stapi\AppData\Local\Temp\cc6d032j.s:824    .text.pmksa_cache_add_entry:000000000000004c .L0 
C:\Users\stapi\AppData\Local\Temp\cc6d032j.s:830    .text.pmksa_cache_add_entry:000000000000005e .L0 
C:\Users\stapi\AppData\Local\Temp\cc6d032j.s:832    .text.pmksa_cache_add_entry:0000000000000060 .L0 
C:\Users\stapi\AppData\Local\Temp\cc6d032j.s:838    .text.pmksa_cache_add_entry:0000000000000072 .L0 
C:\Users\stapi\AppData\Local\Temp\cc6d032j.s:843    .text.pmksa_cache_add_entry:000000000000007c .L0 
C:\Users\stapi\AppData\Local\Temp\cc6d032j.s:844    .text.pmksa_cache_add_entry:000000000000007c .L0 
C:\Users\stapi\AppData\Local\Temp\cc6d032j.s:846    .text.pmksa_cache_add_entry:0000000000000080 .L0 
C:\Users\stapi\AppData\Local\Temp\cc6d032j.s:847    .text.pmksa_cache_add_entry:0000000000000080 .L0 
C:\Users\stapi\AppData\Local\Temp\cc6d032j.s:849    .text.pmksa_cache_add_entry:0000000000000088 .L0 
C:\Users\stapi\AppData\Local\Temp\cc6d032j.s:850    .text.pmksa_cache_add_entry:0000000000000088 .L0 
C:\Users\stapi\AppData\Local\Temp\cc6d032j.s:851    .text.pmksa_cache_add_entry:0000000000000088 .L0 
C:\Users\stapi\AppData\Local\Temp\cc6d032j.s:852    .text.pmksa_cache_add_entry:0000000000000088 .L0 
C:\Users\stapi\AppData\Local\Temp\cc6d032j.s:853    .text.pmksa_cache_add_entry:0000000000000088 .L0 
C:\Users\stapi\AppData\Local\Temp\cc6d032j.s:854    .text.pmksa_cache_add_entry:0000000000000088 .L0 
C:\Users\stapi\AppData\Local\Temp\cc6d032j.s:855    .text.pmksa_cache_add_entry:0000000000000088 .L0 
C:\Users\stapi\AppData\Local\Temp\cc6d032j.s:858    .text.pmksa_cache_add_entry:0000000000000088 .L0 
C:\Users\stapi\AppData\Local\Temp\cc6d032j.s:860    .text.pmksa_cache_add_entry:0000000000000088 .L0 
C:\Users\stapi\AppData\Local\Temp\cc6d032j.s:861    .text.pmksa_cache_add_entry:0000000000000088 .L0 
C:\Users\stapi\AppData\Local\Temp\cc6d032j.s:863    .text.pmksa_cache_add_entry:000000000000008c .L0 
C:\Users\stapi\AppData\Local\Temp\cc6d032j.s:865    .text.pmksa_cache_add_entry:0000000000000090 .L0 
C:\Users\stapi\AppData\Local\Temp\cc6d032j.s:866    .text.pmksa_cache_add_entry:0000000000000090 .L0 
C:\Users\stapi\AppData\Local\Temp\cc6d032j.s:869    .text.pmksa_cache_add_entry:0000000000000092 .L0 
C:\Users\stapi\AppData\Local\Temp\cc6d032j.s:875    .text.pmksa_cache_add_entry:00000000000000a4 .L0 
C:\Users\stapi\AppData\Local\Temp\cc6d032j.s:876    .text.pmksa_cache_add_entry:00000000000000a4 .L0 
C:\Users\stapi\AppData\Local\Temp\cc6d032j.s:879    .text.pmksa_cache_add_entry:00000000000000aa .L0 
C:\Users\stapi\AppData\Local\Temp\cc6d032j.s:888    .text.pmksa_cache_add_entry:00000000000000c0 .L0 
C:\Users\stapi\AppData\Local\Temp\cc6d032j.s:895    .text.pmksa_cache_add_entry:00000000000000ce .L0 
C:\Users\stapi\AppData\Local\Temp\cc6d032j.s:896    .text.pmksa_cache_add_entry:00000000000000ce .L0 
C:\Users\stapi\AppData\Local\Temp\cc6d032j.s:897    .text.pmksa_cache_add_entry:00000000000000ce .L0 
C:\Users\stapi\AppData\Local\Temp\cc6d032j.s:901    .text.pmksa_cache_add_entry:00000000000000d6 .L0 
C:\Users\stapi\AppData\Local\Temp\cc6d032j.s:903    .text.pmksa_cache_add_entry:00000000000000d8 .L0 
C:\Users\stapi\AppData\Local\Temp\cc6d032j.s:906    .text.pmksa_cache_add_entry:00000000000000da .L0 
C:\Users\stapi\AppData\Local\Temp\cc6d032j.s:907    .text.pmksa_cache_add_entry:00000000000000da .L0 
C:\Users\stapi\AppData\Local\Temp\cc6d032j.s:908    .text.pmksa_cache_add_entry:00000000000000da .L0 
C:\Users\stapi\AppData\Local\Temp\cc6d032j.s:910    .text.pmksa_cache_add_entry:00000000000000dc .L0 
C:\Users\stapi\AppData\Local\Temp\cc6d032j.s:912    .text.pmksa_cache_add_entry:00000000000000e0 .L0 
C:\Users\stapi\AppData\Local\Temp\cc6d032j.s:916    .text.pmksa_cache_add_entry:00000000000000e8 .L0 
C:\Users\stapi\AppData\Local\Temp\cc6d032j.s:917    .text.pmksa_cache_add_entry:00000000000000e8 .L0 
C:\Users\stapi\AppData\Local\Temp\cc6d032j.s:918    .text.pmksa_cache_add_entry:00000000000000e8 .L0 
C:\Users\stapi\AppData\Local\Temp\cc6d032j.s:921    .text.pmksa_cache_add_entry:00000000000000ee .L0 
C:\Users\stapi\AppData\Local\Temp\cc6d032j.s:924    .text.pmksa_cache_add_entry:00000000000000f2 .L0 
C:\Users\stapi\AppData\Local\Temp\cc6d032j.s:927    .text.pmksa_cache_add_entry:00000000000000f4 .L0 
C:\Users\stapi\AppData\Local\Temp\cc6d032j.s:928    .text.pmksa_cache_add_entry:00000000000000f4 .L0 
C:\Users\stapi\AppData\Local\Temp\cc6d032j.s:932    .text.pmksa_cache_add_entry:00000000000000f8 .L0 
C:\Users\stapi\AppData\Local\Temp\cc6d032j.s:944    .text.pmksa_cache_add_entry:0000000000000122 .L0 
C:\Users\stapi\AppData\Local\Temp\cc6d032j.s:951    .text.pmksa_cache_add_entry:0000000000000130 .L0 
C:\Users\stapi\AppData\Local\Temp\cc6d032j.s:952    .text.pmksa_cache_add_entry:0000000000000130 .L0 
C:\Users\stapi\AppData\Local\Temp\cc6d032j.s:955    .text.pmksa_cache_add_entry:0000000000000132 .L0 
C:\Users\stapi\AppData\Local\Temp\cc6d032j.s:956    .text.pmksa_cache_add_entry:0000000000000132 .L0 
C:\Users\stapi\AppData\Local\Temp\cc6d032j.s:957    .text.pmksa_cache_add_entry:0000000000000132 .L0 
C:\Users\stapi\AppData\Local\Temp\cc6d032j.s:959    .text.pmksa_cache_add_entry:0000000000000134 .L0 
C:\Users\stapi\AppData\Local\Temp\cc6d032j.s:963    .text.pmksa_cache_add_entry:0000000000000136 .L0 
C:\Users\stapi\AppData\Local\Temp\cc6d032j.s:966    .text.pmksa_cache_add_entry:0000000000000138 .L0 
C:\Users\stapi\AppData\Local\Temp\cc6d032j.s:967    .text.pmksa_cache_add_entry:0000000000000138 .L0 
C:\Users\stapi\AppData\Local\Temp\cc6d032j.s:969    .text.pmksa_cache_add_entry:000000000000013a .L0 
C:\Users\stapi\AppData\Local\Temp\cc6d032j.s:970    .text.pmksa_cache_add_entry:000000000000013a .L0 
C:\Users\stapi\AppData\Local\Temp\cc6d032j.s:972    .text.pmksa_cache_add_entry:000000000000013c .L0 
C:\Users\stapi\AppData\Local\Temp\cc6d032j.s:973    .text.pmksa_cache_add_entry:000000000000013c .L0 
C:\Users\stapi\AppData\Local\Temp\cc6d032j.s:975    .text.pmksa_cache_add_entry:000000000000013e .L0 
C:\Users\stapi\AppData\Local\Temp\cc6d032j.s:980    .text.pmksa_cache_add_entry:0000000000000148 .L0 
C:\Users\stapi\AppData\Local\Temp\cc6d032j.s:981    .text.pmksa_cache_add_entry:0000000000000148 .L0 
C:\Users\stapi\AppData\Local\Temp\cc6d032j.s:983    .text.pmksa_cache_add_entry:000000000000014a .L0 
C:\Users\stapi\AppData\Local\Temp\cc6d032j.s:986    .text.pmksa_cache_add_entry:0000000000000152 .L0 
C:\Users\stapi\AppData\Local\Temp\cc6d032j.s:989    .text.pmksa_cache_add_entry:0000000000000156 .L0 
C:\Users\stapi\AppData\Local\Temp\cc6d032j.s:1003   .text.pmksa_cache_add_entry:0000000000000180 .L0 
C:\Users\stapi\AppData\Local\Temp\cc6d032j.s:1004   .text.pmksa_cache_add_entry:0000000000000180 .L0 
C:\Users\stapi\AppData\Local\Temp\cc6d032j.s:1006   .text.pmksa_cache_add_entry:0000000000000184 .L0 
C:\Users\stapi\AppData\Local\Temp\cc6d032j.s:1010   .text.pmksa_cache_add_entry:000000000000018a .L0 
C:\Users\stapi\AppData\Local\Temp\cc6d032j.s:1012   .text.pmksa_cache_add_entry:000000000000018e .L0 
C:\Users\stapi\AppData\Local\Temp\cc6d032j.s:1015   .text.pmksa_cache_add_entry:0000000000000192 .L0 
C:\Users\stapi\AppData\Local\Temp\cc6d032j.s:1022   .text.pmksa_cache_add_entry:000000000000019a .L0 
C:\Users\stapi\AppData\Local\Temp\cc6d032j.s:1023   .text.pmksa_cache_add_entry:000000000000019a .L0 
C:\Users\stapi\AppData\Local\Temp\cc6d032j.s:1024   .text.pmksa_cache_add_entry:000000000000019a .L0 
C:\Users\stapi\AppData\Local\Temp\cc6d032j.s:1025   .text.pmksa_cache_add_entry:000000000000019a .L0 
C:\Users\stapi\AppData\Local\Temp\cc6d032j.s:1026   .text.pmksa_cache_add_entry:000000000000019a .L0 
C:\Users\stapi\AppData\Local\Temp\cc6d032j.s:1049   .text.pmksa_cache_add_entry:00000000000001c0 .L0 
C:\Users\stapi\AppData\Local\Temp\cc6d032j.s:1050   .text.pmksa_cache_add_entry:00000000000001c0 .L0 
C:\Users\stapi\AppData\Local\Temp\cc6d032j.s:1055   .text.pmksa_cache_add_entry:00000000000001c6 .L0 
C:\Users\stapi\AppData\Local\Temp\cc6d032j.s:1056   .text.pmksa_cache_add_entry:00000000000001c6 .L0 
C:\Users\stapi\AppData\Local\Temp\cc6d032j.s:1057   .text.pmksa_cache_add_entry:00000000000001c6 .L0 
C:\Users\stapi\AppData\Local\Temp\cc6d032j.s:1064   .text.pmksa_cache_add_entry:00000000000001ce .L0 
C:\Users\stapi\AppData\Local\Temp\cc6d032j.s:1065   .text.pmksa_cache_add_entry:00000000000001ce .L0 
C:\Users\stapi\AppData\Local\Temp\cc6d032j.s:1067   .text.pmksa_cache_add_entry:00000000000001d2 .L0 
C:\Users\stapi\AppData\Local\Temp\cc6d032j.s:1068   .text.pmksa_cache_add_entry:00000000000001d2 .L0 
C:\Users\stapi\AppData\Local\Temp\cc6d032j.s:1073   .text.pmksa_cache_add_entry:00000000000001d6 .L0 
C:\Users\stapi\AppData\Local\Temp\cc6d032j.s:1074   .text.pmksa_cache_add_entry:00000000000001d6 .L0 
C:\Users\stapi\AppData\Local\Temp\cc6d032j.s:1079   .text.pmksa_cache_add_entry:00000000000001de .L0 
C:\Users\stapi\AppData\Local\Temp\cc6d032j.s:1080   .text.pmksa_cache_add_entry:00000000000001de .L0 
C:\Users\stapi\AppData\Local\Temp\cc6d032j.s:1081   .text.pmksa_cache_add_entry:00000000000001de .L0 
C:\Users\stapi\AppData\Local\Temp\cc6d032j.s:1087   .text.pmksa_cache_add_entry:00000000000001e4 .L0 
C:\Users\stapi\AppData\Local\Temp\cc6d032j.s:1088   .text.pmksa_cache_add_entry:00000000000001e4 .L0 
C:\Users\stapi\AppData\Local\Temp\cc6d032j.s:1091   .text.pmksa_cache_add_entry:00000000000001e6 .L0 
C:\Users\stapi\AppData\Local\Temp\cc6d032j.s:1093   .text.pmksa_cache_add_entry:00000000000001e8 .L0 
C:\Users\stapi\AppData\Local\Temp\cc6d032j.s:1094   .text.pmksa_cache_add_entry:00000000000001e8 .L0 
C:\Users\stapi\AppData\Local\Temp\cc6d032j.s:1096   .text.pmksa_cache_add_entry:00000000000001ec .L0 
C:\Users\stapi\AppData\Local\Temp\cc6d032j.s:1103   .text.pmksa_cache_add:0000000000000000 pmksa_cache_add
C:\Users\stapi\AppData\Local\Temp\cc6d032j.s:1106   .text.pmksa_cache_add:0000000000000000 .L0 
C:\Users\stapi\AppData\Local\Temp\cc6d032j.s:1108   .text.pmksa_cache_add:0000000000000000 .L0 
C:\Users\stapi\AppData\Local\Temp\cc6d032j.s:1109   .text.pmksa_cache_add:0000000000000008 .L0 
C:\Users\stapi\AppData\Local\Temp\cc6d032j.s:1110   .text.pmksa_cache_add:0000000000000008 .L0 
C:\Users\stapi\AppData\Local\Temp\cc6d032j.s:1111   .text.pmksa_cache_add:0000000000000008 .L0 
C:\Users\stapi\AppData\Local\Temp\cc6d032j.s:1112   .text.pmksa_cache_add:0000000000000008 .L0 
C:\Users\stapi\AppData\Local\Temp\cc6d032j.s:1113   .text.pmksa_cache_add:0000000000000008 .L0 
C:\Users\stapi\AppData\Local\Temp\cc6d032j.s:1114   .text.pmksa_cache_add:0000000000000008 .L0 
C:\Users\stapi\AppData\Local\Temp\cc6d032j.s:1115   .text.pmksa_cache_add:0000000000000008 .L0 
C:\Users\stapi\AppData\Local\Temp\cc6d032j.s:1116   .text.pmksa_cache_add:0000000000000008 .L0 
C:\Users\stapi\AppData\Local\Temp\cc6d032j.s:1117   .text.pmksa_cache_add:0000000000000008 .L0 
C:\Users\stapi\AppData\Local\Temp\cc6d032j.s:1118   .text.pmksa_cache_add:0000000000000008 .L0 
C:\Users\stapi\AppData\Local\Temp\cc6d032j.s:1119   .text.pmksa_cache_add:0000000000000008 .L0 
C:\Users\stapi\AppData\Local\Temp\cc6d032j.s:1120   .text.pmksa_cache_add:0000000000000008 .L0 
C:\Users\stapi\AppData\Local\Temp\cc6d032j.s:1122   .text.pmksa_cache_add:0000000000000008 .L0 
C:\Users\stapi\AppData\Local\Temp\cc6d032j.s:1123   .text.pmksa_cache_add:0000000000000008 .L0 
C:\Users\stapi\AppData\Local\Temp\cc6d032j.s:1124   .text.pmksa_cache_add:0000000000000008 .L0 
C:\Users\stapi\AppData\Local\Temp\cc6d032j.s:1125   .text.pmksa_cache_add:0000000000000008 .L0 
C:\Users\stapi\AppData\Local\Temp\cc6d032j.s:1126   .text.pmksa_cache_add:000000000000000a .L0 
C:\Users\stapi\AppData\Local\Temp\cc6d032j.s:1128   .text.pmksa_cache_add:000000000000000a .L0 
C:\Users\stapi\AppData\Local\Temp\cc6d032j.s:1131   .text.pmksa_cache_add:000000000000000e .L0 
C:\Users\stapi\AppData\Local\Temp\cc6d032j.s:1134   .text.pmksa_cache_add:0000000000000012 .L0 
C:\Users\stapi\AppData\Local\Temp\cc6d032j.s:1138   .text.pmksa_cache_add:0000000000000016 .L0 
C:\Users\stapi\AppData\Local\Temp\cc6d032j.s:1141   .text.pmksa_cache_add:0000000000000018 .L0 
C:\Users\stapi\AppData\Local\Temp\cc6d032j.s:1142   .text.pmksa_cache_add:000000000000001a .L0 
C:\Users\stapi\AppData\Local\Temp\cc6d032j.s:1143   .text.pmksa_cache_add:000000000000001a .L0 
C:\Users\stapi\AppData\Local\Temp\cc6d032j.s:1146   .text.pmksa_cache_add:0000000000000022 .L0 
C:\Users\stapi\AppData\Local\Temp\cc6d032j.s:1147   .text.pmksa_cache_add:0000000000000022 .L0 
C:\Users\stapi\AppData\Local\Temp\cc6d032j.s:1148   .text.pmksa_cache_add:0000000000000022 .L0 
C:\Users\stapi\AppData\Local\Temp\cc6d032j.s:1149   .text.pmksa_cache_add:0000000000000022 .L0 
C:\Users\stapi\AppData\Local\Temp\cc6d032j.s:1150   .text.pmksa_cache_add:0000000000000022 .L0 
C:\Users\stapi\AppData\Local\Temp\cc6d032j.s:1151   .text.pmksa_cache_add:0000000000000022 .L0 
C:\Users\stapi\AppData\Local\Temp\cc6d032j.s:1152   .text.pmksa_cache_add:0000000000000022 .L0 
C:\Users\stapi\AppData\Local\Temp\cc6d032j.s:1153   .text.pmksa_cache_add:0000000000000022 .L0 
C:\Users\stapi\AppData\Local\Temp\cc6d032j.s:1154   .text.pmksa_cache_add:0000000000000022 .L0 
C:\Users\stapi\AppData\Local\Temp\cc6d032j.s:1155   .text.pmksa_cache_add:0000000000000022 .L0 
C:\Users\stapi\AppData\Local\Temp\cc6d032j.s:1156   .text.pmksa_cache_add:0000000000000022 .L0 
C:\Users\stapi\AppData\Local\Temp\cc6d032j.s:1157   .text.pmksa_cache_add:0000000000000022 .L0 
C:\Users\stapi\AppData\Local\Temp\cc6d032j.s:1160   .text.pmksa_cache_add:0000000000000022 .L0 
C:\Users\stapi\AppData\Local\Temp\cc6d032j.s:1164   .text.pmksa_cache_add:0000000000000022 .L0 
C:\Users\stapi\AppData\Local\Temp\cc6d032j.s:1178   .text.pmksa_cache_add:0000000000000036 .L0 
C:\Users\stapi\AppData\Local\Temp\cc6d032j.s:1181   .text.pmksa_cache_add:0000000000000036 .L0 
C:\Users\stapi\AppData\Local\Temp\cc6d032j.s:1182   .text.pmksa_cache_add:0000000000000036 .L0 
C:\Users\stapi\AppData\Local\Temp\cc6d032j.s:1185   .text.pmksa_cache_add:000000000000003a .L0 
C:\Users\stapi\AppData\Local\Temp\cc6d032j.s:1188   .text.pmksa_cache_add:000000000000003c .L0 
C:\Users\stapi\AppData\Local\Temp\cc6d032j.s:1189   .text.pmksa_cache_add:000000000000003c .L0 
C:\Users\stapi\AppData\Local\Temp\cc6d032j.s:1196   .text.pmksa_cache_add:000000000000004a .L0 
C:\Users\stapi\AppData\Local\Temp\cc6d032j.s:1197   .text.pmksa_cache_add:000000000000004a .L0 
C:\Users\stapi\AppData\Local\Temp\cc6d032j.s:1199   .text.pmksa_cache_add:000000000000004c .L0 
C:\Users\stapi\AppData\Local\Temp\cc6d032j.s:1205   .text.pmksa_cache_add:000000000000005a .L0 
C:\Users\stapi\AppData\Local\Temp\cc6d032j.s:1206   .text.pmksa_cache_add:000000000000005a .L0 
C:\Users\stapi\AppData\Local\Temp\cc6d032j.s:1208   .text.pmksa_cache_add:000000000000005c .L0 
C:\Users\stapi\AppData\Local\Temp\cc6d032j.s:1209   .text.pmksa_cache_add:000000000000005c .L0 
C:\Users\stapi\AppData\Local\Temp\cc6d032j.s:1211   .text.pmksa_cache_add:0000000000000060 .L0 
C:\Users\stapi\AppData\Local\Temp\cc6d032j.s:1218   .text.pmksa_cache_add:0000000000000070 .L0 
C:\Users\stapi\AppData\Local\Temp\cc6d032j.s:1222   .text.pmksa_cache_add:000000000000007a .L0 
C:\Users\stapi\AppData\Local\Temp\cc6d032j.s:1223   .text.pmksa_cache_add:000000000000007a .L0 
C:\Users\stapi\AppData\Local\Temp\cc6d032j.s:1225   .text.pmksa_cache_add:000000000000007e .L0 
C:\Users\stapi\AppData\Local\Temp\cc6d032j.s:1227   .text.pmksa_cache_add:0000000000000080 .L0 
C:\Users\stapi\AppData\Local\Temp\cc6d032j.s:1229   .text.pmksa_cache_add:0000000000000084 .L0 
C:\Users\stapi\AppData\Local\Temp\cc6d032j.s:1231   .text.pmksa_cache_add:0000000000000088 .L0 
C:\Users\stapi\AppData\Local\Temp\cc6d032j.s:1233   .text.pmksa_cache_add:000000000000008c .L0 
C:\Users\stapi\AppData\Local\Temp\cc6d032j.s:1235   .text.pmksa_cache_add:0000000000000090 .L0 
C:\Users\stapi\AppData\Local\Temp\cc6d032j.s:1237   .text.pmksa_cache_add:0000000000000094 .L0 
C:\Users\stapi\AppData\Local\Temp\cc6d032j.s:1239   .text.pmksa_cache_add:0000000000000098 .L0 
C:\Users\stapi\AppData\Local\Temp\cc6d032j.s:1241   .text.pmksa_cache_add:000000000000009a .L0 
C:\Users\stapi\AppData\Local\Temp\cc6d032j.s:1242   .text.pmksa_cache_add:000000000000009a .L0 
C:\Users\stapi\AppData\Local\Temp\cc6d032j.s:1244   .text.pmksa_cache_add:000000000000009e .L0 
C:\Users\stapi\AppData\Local\Temp\cc6d032j.s:1246   .text.pmksa_cache_add:00000000000000a0 .L0 
C:\Users\stapi\AppData\Local\Temp\cc6d032j.s:1248   .text.pmksa_cache_add:00000000000000a2 .L0 
C:\Users\stapi\AppData\Local\Temp\cc6d032j.s:1249   .text.pmksa_cache_add:00000000000000a2 .L0 
C:\Users\stapi\AppData\Local\Temp\cc6d032j.s:1250   .text.pmksa_cache_add:00000000000000a2 .L0 
C:\Users\stapi\AppData\Local\Temp\cc6d032j.s:1252   .text.pmksa_cache_add:00000000000000a6 .L0 
C:\Users\stapi\AppData\Local\Temp\cc6d032j.s:1253   .text.pmksa_cache_add:00000000000000a6 .L0 
C:\Users\stapi\AppData\Local\Temp\cc6d032j.s:1255   .text.pmksa_cache_add:00000000000000aa .L0 
C:\Users\stapi\AppData\Local\Temp\cc6d032j.s:1258   .text.pmksa_cache_add:00000000000000ae .L0 
C:\Users\stapi\AppData\Local\Temp\cc6d032j.s:1261   .text.pmksa_cache_add:00000000000000b6 .L0 
C:\Users\stapi\AppData\Local\Temp\cc6d032j.s:1266   .text.pmksa_cache_add:00000000000000c2 .L0 
C:\Users\stapi\AppData\Local\Temp\cc6d032j.s:1272   .text.pmksa_cache_add:00000000000000d2 .L0 
C:\Users\stapi\AppData\Local\Temp\cc6d032j.s:1273   .text.pmksa_cache_add:00000000000000d2 .L0 
C:\Users\stapi\AppData\Local\Temp\cc6d032j.s:1275   .text.pmksa_cache_add:00000000000000d4 .L0 
C:\Users\stapi\AppData\Local\Temp\cc6d032j.s:1278   .text.pmksa_cache_add:00000000000000d8 .L0 
C:\Users\stapi\AppData\Local\Temp\cc6d032j.s:1280   .text.pmksa_cache_add:00000000000000da .L0 
C:\Users\stapi\AppData\Local\Temp\cc6d032j.s:1281   .text.pmksa_cache_add:00000000000000da .L0 
C:\Users\stapi\AppData\Local\Temp\cc6d032j.s:1287   .text.pmksa_cache_add:00000000000000e4 .L0 
C:\Users\stapi\AppData\Local\Temp\cc6d032j.s:1288   .text.pmksa_cache_add:00000000000000e4 .L0 
C:\Users\stapi\AppData\Local\Temp\cc6d032j.s:1289   .text.pmksa_cache_add:00000000000000e4 .L0 
C:\Users\stapi\AppData\Local\Temp\cc6d032j.s:1291   .text.pmksa_cache_add:00000000000000e8 .L0 
C:\Users\stapi\AppData\Local\Temp\cc6d032j.s:1300   .text.pmksa_cache_add:0000000000000100 .L0 
C:\Users\stapi\AppData\Local\Temp\cc6d032j.s:1307   .text.pmksa_cache_deinit:0000000000000000 pmksa_cache_deinit
C:\Users\stapi\AppData\Local\Temp\cc6d032j.s:1310   .text.pmksa_cache_deinit:0000000000000000 .L0 
C:\Users\stapi\AppData\Local\Temp\cc6d032j.s:1312   .text.pmksa_cache_deinit:0000000000000000 .L0 
C:\Users\stapi\AppData\Local\Temp\cc6d032j.s:1313   .text.pmksa_cache_deinit:0000000000000000 .L0 
C:\Users\stapi\AppData\Local\Temp\cc6d032j.s:1314   .text.pmksa_cache_deinit:0000000000000000 .L0 
C:\Users\stapi\AppData\Local\Temp\cc6d032j.s:1315   .text.pmksa_cache_deinit:0000000000000000 .L0 
C:\Users\stapi\AppData\Local\Temp\cc6d032j.s:1317   .text.pmksa_cache_deinit:0000000000000002 .L0 
C:\Users\stapi\AppData\Local\Temp\cc6d032j.s:1318   .text.pmksa_cache_deinit:000000000000000a .L0 
C:\Users\stapi\AppData\Local\Temp\cc6d032j.s:1319   .text.pmksa_cache_deinit:000000000000000a .L0 
C:\Users\stapi\AppData\Local\Temp\cc6d032j.s:1320   .text.pmksa_cache_deinit:000000000000000a .L0 
C:\Users\stapi\AppData\Local\Temp\cc6d032j.s:1321   .text.pmksa_cache_deinit:000000000000000a .L0 
C:\Users\stapi\AppData\Local\Temp\cc6d032j.s:1324   .text.pmksa_cache_deinit:000000000000000c .L0 
C:\Users\stapi\AppData\Local\Temp\cc6d032j.s:1325   .text.pmksa_cache_deinit:000000000000000c .L0 
C:\Users\stapi\AppData\Local\Temp\cc6d032j.s:1328   .text.pmksa_cache_deinit:000000000000000e .L0 
C:\Users\stapi\AppData\Local\Temp\cc6d032j.s:1329   .text.pmksa_cache_deinit:000000000000000e .L0 
C:\Users\stapi\AppData\Local\Temp\cc6d032j.s:1332   .text.pmksa_cache_deinit:0000000000000012 .L0 
C:\Users\stapi\AppData\Local\Temp\cc6d032j.s:1333   .text.pmksa_cache_deinit:0000000000000012 .L0 
C:\Users\stapi\AppData\Local\Temp\cc6d032j.s:1335   .text.pmksa_cache_deinit:0000000000000014 .L0 
C:\Users\stapi\AppData\Local\Temp\cc6d032j.s:1340   .text.pmksa_cache_deinit:000000000000001e .L0 
C:\Users\stapi\AppData\Local\Temp\cc6d032j.s:1344   .text.pmksa_cache_deinit:0000000000000028 .L0 
C:\Users\stapi\AppData\Local\Temp\cc6d032j.s:1345   .text.pmksa_cache_deinit:0000000000000030 .L0 
C:\Users\stapi\AppData\Local\Temp\cc6d032j.s:1346   .text.pmksa_cache_deinit:0000000000000030 .L0 
C:\Users\stapi\AppData\Local\Temp\cc6d032j.s:1347   .text.pmksa_cache_deinit:0000000000000030 .L0 
C:\Users\stapi\AppData\Local\Temp\cc6d032j.s:1348   .text.pmksa_cache_deinit:0000000000000030 .L0 
C:\Users\stapi\AppData\Local\Temp\cc6d032j.s:1349   .text.pmksa_cache_deinit:0000000000000030 .L0 
C:\Users\stapi\AppData\Local\Temp\cc6d032j.s:1352   .text.pmksa_cache_deinit:0000000000000030 .L0 
C:\Users\stapi\AppData\Local\Temp\cc6d032j.s:1354   .text.pmksa_cache_deinit:0000000000000030 .L0 
C:\Users\stapi\AppData\Local\Temp\cc6d032j.s:1355   .text.pmksa_cache_deinit:0000000000000030 .L0 
C:\Users\stapi\AppData\Local\Temp\cc6d032j.s:1356   .text.pmksa_cache_deinit:0000000000000030 .L0 
C:\Users\stapi\AppData\Local\Temp\cc6d032j.s:1359   .text.pmksa_cache_deinit:0000000000000032 .L0 
C:\Users\stapi\AppData\Local\Temp\cc6d032j.s:1362   .text.pmksa_cache_deinit:000000000000003a .L0 
C:\Users\stapi\AppData\Local\Temp\cc6d032j.s:1366   .text.pmksa_cache_deinit:000000000000003e .L0 
C:\Users\stapi\AppData\Local\Temp\cc6d032j.s:1367   .text.pmksa_cache_deinit:000000000000003e .L0 
C:\Users\stapi\AppData\Local\Temp\cc6d032j.s:1368   .text.pmksa_cache_deinit:000000000000003e .L0 
C:\Users\stapi\AppData\Local\Temp\cc6d032j.s:1369   .text.pmksa_cache_deinit:000000000000003e .L0 
C:\Users\stapi\AppData\Local\Temp\cc6d032j.s:1371   .text.pmksa_cache_deinit:0000000000000040 .L0 
C:\Users\stapi\AppData\Local\Temp\cc6d032j.s:1388   .text.pmksa_cache_get_opportunistic:0000000000000000 pmksa_cache_get_opportunistic
C:\Users\stapi\AppData\Local\Temp\cc6d032j.s:1391   .text.pmksa_cache_get_opportunistic:0000000000000000 .L0 
C:\Users\stapi\AppData\Local\Temp\cc6d032j.s:1393   .text.pmksa_cache_get_opportunistic:0000000000000000 .L0 
C:\Users\stapi\AppData\Local\Temp\cc6d032j.s:1394   .text.pmksa_cache_get_opportunistic:0000000000000008 .L0 
C:\Users\stapi\AppData\Local\Temp\cc6d032j.s:1395   .text.pmksa_cache_get_opportunistic:0000000000000008 .L0 
C:\Users\stapi\AppData\Local\Temp\cc6d032j.s:1396   .text.pmksa_cache_get_opportunistic:0000000000000008 .L0 
C:\Users\stapi\AppData\Local\Temp\cc6d032j.s:1397   .text.pmksa_cache_get_opportunistic:0000000000000008 .L0 
C:\Users\stapi\AppData\Local\Temp\cc6d032j.s:1398   .text.pmksa_cache_get_opportunistic:0000000000000008 .L0 
C:\Users\stapi\AppData\Local\Temp\cc6d032j.s:1399   .text.pmksa_cache_get_opportunistic:0000000000000008 .L0 
C:\Users\stapi\AppData\Local\Temp\cc6d032j.s:1400   .text.pmksa_cache_get_opportunistic:0000000000000008 .L0 
C:\Users\stapi\AppData\Local\Temp\cc6d032j.s:1401   .text.pmksa_cache_get_opportunistic:0000000000000008 .L0 
C:\Users\stapi\AppData\Local\Temp\cc6d032j.s:1402   .text.pmksa_cache_get_opportunistic:0000000000000008 .L0 
C:\Users\stapi\AppData\Local\Temp\cc6d032j.s:1404   .text.pmksa_cache_get_opportunistic:0000000000000008 .L0 
C:\Users\stapi\AppData\Local\Temp\cc6d032j.s:1405   .text.pmksa_cache_get_opportunistic:0000000000000008 .L0 
C:\Users\stapi\AppData\Local\Temp\cc6d032j.s:1410   .text.pmksa_cache_get_opportunistic:0000000000000018 .L0 
C:\Users\stapi\AppData\Local\Temp\cc6d032j.s:1413   .text.pmksa_cache_get_opportunistic:000000000000001c .L0 
C:\Users\stapi\AppData\Local\Temp\cc6d032j.s:1418   .text.pmksa_cache_get_opportunistic:0000000000000024 .L0 
C:\Users\stapi\AppData\Local\Temp\cc6d032j.s:1420   .text.pmksa_cache_get_opportunistic:0000000000000026 .L0 
C:\Users\stapi\AppData\Local\Temp\cc6d032j.s:1423   .text.pmksa_cache_get_opportunistic:000000000000002a .L0 
C:\Users\stapi\AppData\Local\Temp\cc6d032j.s:1426   .text.pmksa_cache_get_opportunistic:000000000000002c .L0 
C:\Users\stapi\AppData\Local\Temp\cc6d032j.s:1427   .text.pmksa_cache_get_opportunistic:000000000000002c .L0 
C:\Users\stapi\AppData\Local\Temp\cc6d032j.s:1428   .text.pmksa_cache_get_opportunistic:000000000000002e .L0 
C:\Users\stapi\AppData\Local\Temp\cc6d032j.s:1430   .text.pmksa_cache_get_opportunistic:000000000000002e .L0 
C:\Users\stapi\AppData\Local\Temp\cc6d032j.s:1432   .text.pmksa_cache_get_opportunistic:0000000000000030 .L0 
C:\Users\stapi\AppData\Local\Temp\cc6d032j.s:1438   .text.pmksa_cache_get_opportunistic:000000000000003e .L0 
C:\Users\stapi\AppData\Local\Temp\cc6d032j.s:1439   .text.pmksa_cache_get_opportunistic:000000000000003e .L0 
C:\Users\stapi\AppData\Local\Temp\cc6d032j.s:1444   .text.pmksa_cache_get_opportunistic:0000000000000042 .L0 
C:\Users\stapi\AppData\Local\Temp\cc6d032j.s:1449   .text.pmksa_cache_get_opportunistic:0000000000000048 .L0 
C:\Users\stapi\AppData\Local\Temp\cc6d032j.s:1453   .text.pmksa_cache_get_opportunistic:000000000000004c .L0 
C:\Users\stapi\AppData\Local\Temp\cc6d032j.s:1456   .text.pmksa_cache_get_opportunistic:000000000000004e .L0 
C:\Users\stapi\AppData\Local\Temp\cc6d032j.s:1460   .text.pmksa_cache_get_opportunistic:0000000000000050 .L0 
C:\Users\stapi\AppData\Local\Temp\cc6d032j.s:1462   .text.pmksa_cache_get_opportunistic:0000000000000054 .L0 
C:\Users\stapi\AppData\Local\Temp\cc6d032j.s:1463   .text.pmksa_cache_get_opportunistic:0000000000000054 .L0 
C:\Users\stapi\AppData\Local\Temp\cc6d032j.s:1465   .text.pmksa_cache_get_opportunistic:000000000000005c .L0 
C:\Users\stapi\AppData\Local\Temp\cc6d032j.s:1466   .text.pmksa_cache_get_opportunistic:000000000000005c .L0 
C:\Users\stapi\AppData\Local\Temp\cc6d032j.s:1467   .text.pmksa_cache_get_opportunistic:000000000000005c .L0 
C:\Users\stapi\AppData\Local\Temp\cc6d032j.s:1468   .text.pmksa_cache_get_opportunistic:000000000000005c .L0 
C:\Users\stapi\AppData\Local\Temp\cc6d032j.s:1469   .text.pmksa_cache_get_opportunistic:000000000000005c .L0 
C:\Users\stapi\AppData\Local\Temp\cc6d032j.s:1470   .text.pmksa_cache_get_opportunistic:000000000000005c .L0 
C:\Users\stapi\AppData\Local\Temp\cc6d032j.s:1471   .text.pmksa_cache_get_opportunistic:000000000000005c .L0 
C:\Users\stapi\AppData\Local\Temp\cc6d032j.s:1472   .text.pmksa_cache_get_opportunistic:000000000000005c .L0 
C:\Users\stapi\AppData\Local\Temp\cc6d032j.s:1473   .text.pmksa_cache_get_opportunistic:000000000000005c .L0 
C:\Users\stapi\AppData\Local\Temp\cc6d032j.s:1476   .text.pmksa_cache_get_opportunistic:000000000000005c .L0 
C:\Users\stapi\AppData\Local\Temp\cc6d032j.s:1478   .text.pmksa_cache_get_opportunistic:000000000000005c .L0 
C:\Users\stapi\AppData\Local\Temp\cc6d032j.s:1479   .text.pmksa_cache_get_opportunistic:000000000000005c .L0 
C:\Users\stapi\AppData\Local\Temp\cc6d032j.s:1482   .text.pmksa_cache_get_opportunistic:0000000000000062 .L0 
C:\Users\stapi\AppData\Local\Temp\cc6d032j.s:1484   .text.pmksa_cache_get_opportunistic:0000000000000064 .L0 
C:\Users\stapi\AppData\Local\Temp\cc6d032j.s:1486   .text.pmksa_cache_get_opportunistic:0000000000000068 .L0 
C:\Users\stapi\AppData\Local\Temp\cc6d032j.s:1490   .text.pmksa_cache_get_opportunistic:000000000000006c .L0 
C:\Users\stapi\AppData\Local\Temp\cc6d032j.s:1494   .text.pmksa_cache_get_opportunistic:000000000000006c .L0 
C:\Users\stapi\AppData\Local\Temp\cc6d032j.s:1495   .text.pmksa_cache_get_opportunistic:000000000000006c .L0 
C:\Users\stapi\AppData\Local\Temp\cc6d032j.s:1496   .text.pmksa_cache_get_opportunistic:000000000000006c .L0 
C:\Users\stapi\AppData\Local\Temp\cc6d032j.s:1500   .text.pmksa_cache_get_opportunistic:0000000000000070 .L0 
C:\Users\stapi\AppData\Local\Temp\cc6d032j.s:1502   .text.pmksa_cache_get_opportunistic:0000000000000072 .L0 
C:\Users\stapi\AppData\Local\Temp\cc6d032j.s:1506   .text.pmksa_cache_get_opportunistic:000000000000007c .L0 
C:\Users\stapi\AppData\Local\Temp\cc6d032j.s:1508   .text.pmksa_cache_get_opportunistic:000000000000007e .L0 
C:\Users\stapi\AppData\Local\Temp\cc6d032j.s:1512   .text.pmksa_cache_get_opportunistic:0000000000000086 .L0 
C:\Users\stapi\AppData\Local\Temp\cc6d032j.s:1525   .text.pmksa_cache_get_opportunistic:00000000000000ac .L0 
C:\Users\stapi\AppData\Local\Temp\cc6d032j.s:1526   .text.pmksa_cache_get_opportunistic:00000000000000ac .L0 
C:\Users\stapi\AppData\Local\Temp\cc6d032j.s:1527   .text.pmksa_cache_get_opportunistic:00000000000000ac .L0 
C:\Users\stapi\AppData\Local\Temp\cc6d032j.s:1536   .text.pmksa_cache_get_opportunistic:00000000000000b0 .L0 
C:\Users\stapi\AppData\Local\Temp\cc6d032j.s:1537   .text.pmksa_cache_get_opportunistic:00000000000000b0 .L0 
C:\Users\stapi\AppData\Local\Temp\cc6d032j.s:1538   .text.pmksa_cache_get_opportunistic:00000000000000b0 .L0 
C:\Users\stapi\AppData\Local\Temp\cc6d032j.s:1539   .text.pmksa_cache_get_opportunistic:00000000000000b0 .L0 
C:\Users\stapi\AppData\Local\Temp\cc6d032j.s:1541   .text.pmksa_cache_get_opportunistic:00000000000000b2 .L0 
C:\Users\stapi\AppData\Local\Temp\cc6d032j.s:1545   .text.pmksa_cache_get_opportunistic:00000000000000bc .L0 
C:\Users\stapi\AppData\Local\Temp\cc6d032j.s:1548   .text.pmksa_cache_get_opportunistic:00000000000000c0 .L0 
C:\Users\stapi\AppData\Local\Temp\cc6d032j.s:1549   .text.pmksa_cache_get_opportunistic:00000000000000c0 .L0 
C:\Users\stapi\AppData\Local\Temp\cc6d032j.s:1552   .text.pmksa_cache_get_opportunistic:00000000000000c4 .L0 
C:\Users\stapi\AppData\Local\Temp\cc6d032j.s:1555   .text.pmksa_cache_get_opportunistic:00000000000000c4 .L0 
C:\Users\stapi\AppData\Local\Temp\cc6d032j.s:1561   .text.pmksa_cache_get_opportunistic:00000000000000c4 .L0 
C:\Users\stapi\AppData\Local\Temp\cc6d032j.s:1565   .text.pmksa_cache_get_opportunistic:00000000000000c4 .L0 
C:\Users\stapi\AppData\Local\Temp\cc6d032j.s:1566   .text.pmksa_cache_get_opportunistic:00000000000000c4 .L0 
C:\Users\stapi\AppData\Local\Temp\cc6d032j.s:1568   .text.pmksa_cache_get_opportunistic:00000000000000c6 .L0 
C:\Users\stapi\AppData\Local\Temp\cc6d032j.s:1570   .text.pmksa_cache_get_opportunistic:00000000000000c8 .L0 
C:\Users\stapi\AppData\Local\Temp\cc6d032j.s:1571   .text.pmksa_cache_get_opportunistic:00000000000000c8 .L0 
C:\Users\stapi\AppData\Local\Temp\cc6d032j.s:1575   .text.pmksa_cache_get_opportunistic:00000000000000cc .L0 
C:\Users\stapi\AppData\Local\Temp\cc6d032j.s:1576   .text.pmksa_cache_get_opportunistic:00000000000000cc .L0 
C:\Users\stapi\AppData\Local\Temp\cc6d032j.s:1578   .text.pmksa_cache_get_opportunistic:00000000000000d0 .L0 
C:\Users\stapi\AppData\Local\Temp\cc6d032j.s:1580   .text.pmksa_cache_get_opportunistic:00000000000000d4 .L0 
C:\Users\stapi\AppData\Local\Temp\cc6d032j.s:1584   .text.pmksa_cache_get_opportunistic:00000000000000dc .L0 
C:\Users\stapi\AppData\Local\Temp\cc6d032j.s:1586   .text.pmksa_cache_get_opportunistic:00000000000000e0 .L0 
C:\Users\stapi\AppData\Local\Temp\cc6d032j.s:1588   .text.pmksa_cache_get_opportunistic:00000000000000e4 .L0 
C:\Users\stapi\AppData\Local\Temp\cc6d032j.s:1604   .text.pmksa_cache_get_opportunistic:0000000000000104 .L0 
C:\Users\stapi\AppData\Local\Temp\cc6d032j.s:1605   .text.pmksa_cache_get_opportunistic:0000000000000104 .L0 
C:\Users\stapi\AppData\Local\Temp\cc6d032j.s:1607   .text.pmksa_cache_get_opportunistic:0000000000000106 .L0 
C:\Users\stapi\AppData\Local\Temp\cc6d032j.s:1608   .text.pmksa_cache_get_opportunistic:0000000000000106 .L0 
C:\Users\stapi\AppData\Local\Temp\cc6d032j.s:1610   .text.pmksa_cache_get_opportunistic:0000000000000108 .L0 
C:\Users\stapi\AppData\Local\Temp\cc6d032j.s:1612   .text.pmksa_cache_get_opportunistic:000000000000010c .L0 
C:\Users\stapi\AppData\Local\Temp\cc6d032j.s:1613   .text.pmksa_cache_get_opportunistic:000000000000010c .L0 
C:\Users\stapi\AppData\Local\Temp\cc6d032j.s:1615   .text.pmksa_cache_get_opportunistic:0000000000000110 .L0 
C:\Users\stapi\AppData\Local\Temp\cc6d032j.s:1616   .text.pmksa_cache_get_opportunistic:0000000000000110 .L0 
C:\Users\stapi\AppData\Local\Temp\cc6d032j.s:1621   .text.pmksa_cache_get_opportunistic:0000000000000112 .L0 
C:\Users\stapi\AppData\Local\Temp\cc6d032j.s:1622   .text.pmksa_cache_get_opportunistic:0000000000000112 .L0 
C:\Users\stapi\AppData\Local\Temp\cc6d032j.s:1623   .text.pmksa_cache_get_opportunistic:0000000000000112 .L0 
C:\Users\stapi\AppData\Local\Temp\cc6d032j.s:1635   .text.pmksa_cache_get_opportunistic:000000000000013c .L0 
C:\Users\stapi\AppData\Local\Temp\cc6d032j.s:1637   .text.pmksa_cache_get_opportunistic:000000000000013e .L0 
C:\Users\stapi\AppData\Local\Temp\cc6d032j.s:1644   .text.pmksa_cache_get_current:0000000000000000 pmksa_cache_get_current
C:\Users\stapi\AppData\Local\Temp\cc6d032j.s:1647   .text.pmksa_cache_get_current:0000000000000000 .L0 
C:\Users\stapi\AppData\Local\Temp\cc6d032j.s:1649   .text.pmksa_cache_get_current:0000000000000000 .L0 
C:\Users\stapi\AppData\Local\Temp\cc6d032j.s:1650   .text.pmksa_cache_get_current:0000000000000000 .L0 
C:\Users\stapi\AppData\Local\Temp\cc6d032j.s:1651   .text.pmksa_cache_get_current:0000000000000000 .L0 
C:\Users\stapi\AppData\Local\Temp\cc6d032j.s:1653   .text.pmksa_cache_get_current:0000000000000002 .L0 
C:\Users\stapi\AppData\Local\Temp\cc6d032j.s:1654   .text.pmksa_cache_get_current:0000000000000002 .L0 
C:\Users\stapi\AppData\Local\Temp\cc6d032j.s:1658   .text.pmksa_cache_get_current:0000000000000006 .L0 
C:\Users\stapi\AppData\Local\Temp\cc6d032j.s:1659   .text.pmksa_cache_get_current:0000000000000008 .L0 
C:\Users\stapi\AppData\Local\Temp\cc6d032j.s:1670   .text.pmksa_cache_clear_current:0000000000000000 pmksa_cache_clear_current
C:\Users\stapi\AppData\Local\Temp\cc6d032j.s:1673   .text.pmksa_cache_clear_current:0000000000000000 .L0 
C:\Users\stapi\AppData\Local\Temp\cc6d032j.s:1675   .text.pmksa_cache_clear_current:0000000000000000 .L0 
C:\Users\stapi\AppData\Local\Temp\cc6d032j.s:1676   .text.pmksa_cache_clear_current:0000000000000000 .L0 
C:\Users\stapi\AppData\Local\Temp\cc6d032j.s:1677   .text.pmksa_cache_clear_current:0000000000000000 .L0 
C:\Users\stapi\AppData\Local\Temp\cc6d032j.s:1679   .text.pmksa_cache_clear_current:0000000000000002 .L0 
C:\Users\stapi\AppData\Local\Temp\cc6d032j.s:1680   .text.pmksa_cache_clear_current:000000000000000a .L0 
C:\Users\stapi\AppData\Local\Temp\cc6d032j.s:1681   .text.pmksa_cache_clear_current:000000000000000a .L0 
C:\Users\stapi\AppData\Local\Temp\cc6d032j.s:1682   .text.pmksa_cache_clear_current:000000000000000a .L0 
C:\Users\stapi\AppData\Local\Temp\cc6d032j.s:1684   .text.pmksa_cache_clear_current:000000000000000a .L0 
C:\Users\stapi\AppData\Local\Temp\cc6d032j.s:1687   .text.pmksa_cache_clear_current:0000000000000010 .L0 
C:\Users\stapi\AppData\Local\Temp\cc6d032j.s:1688   .text.pmksa_cache_clear_current:0000000000000010 .L0 
C:\Users\stapi\AppData\Local\Temp\cc6d032j.s:1690   .text.pmksa_cache_clear_current:0000000000000012 .L0 
C:\Users\stapi\AppData\Local\Temp\cc6d032j.s:1698   .text.pmksa_cache_clear_current:0000000000000024 .L0 
C:\Users\stapi\AppData\Local\Temp\cc6d032j.s:1699   .text.pmksa_cache_clear_current:0000000000000024 .L0 
C:\Users\stapi\AppData\Local\Temp\cc6d032j.s:1701   .text.pmksa_cache_clear_current:0000000000000028 .L0 
C:\Users\stapi\AppData\Local\Temp\cc6d032j.s:1702   .text.pmksa_cache_clear_current:0000000000000030 .L0 
C:\Users\stapi\AppData\Local\Temp\cc6d032j.s:1703   .text.pmksa_cache_clear_current:0000000000000030 .L0 
C:\Users\stapi\AppData\Local\Temp\cc6d032j.s:1704   .text.pmksa_cache_clear_current:0000000000000030 .L0 
C:\Users\stapi\AppData\Local\Temp\cc6d032j.s:1708   .text.pmksa_cache_clear_current:0000000000000032 .L0 
C:\Users\stapi\AppData\Local\Temp\cc6d032j.s:1737   .text.pmksa_cache_set_current:0000000000000000 pmksa_cache_set_current
C:\Users\stapi\AppData\Local\Temp\cc6d032j.s:1740   .text.pmksa_cache_set_current:0000000000000000 .L0 
C:\Users\stapi\AppData\Local\Temp\cc6d032j.s:1742   .text.pmksa_cache_set_current:0000000000000000 .L0 
C:\Users\stapi\AppData\Local\Temp\cc6d032j.s:1743   .text.pmksa_cache_set_current:0000000000000008 .L0 
C:\Users\stapi\AppData\Local\Temp\cc6d032j.s:1744   .text.pmksa_cache_set_current:0000000000000008 .L0 
C:\Users\stapi\AppData\Local\Temp\cc6d032j.s:1745   .text.pmksa_cache_set_current:0000000000000008 .L0 
C:\Users\stapi\AppData\Local\Temp\cc6d032j.s:1746   .text.pmksa_cache_set_current:0000000000000008 .L0 
C:\Users\stapi\AppData\Local\Temp\cc6d032j.s:1747   .text.pmksa_cache_set_current:0000000000000008 .L0 
C:\Users\stapi\AppData\Local\Temp\cc6d032j.s:1748   .text.pmksa_cache_set_current:0000000000000008 .L0 
C:\Users\stapi\AppData\Local\Temp\cc6d032j.s:1749   .text.pmksa_cache_set_current:0000000000000008 .L0 
C:\Users\stapi\AppData\Local\Temp\cc6d032j.s:1750   .text.pmksa_cache_set_current:0000000000000008 .L0 
C:\Users\stapi\AppData\Local\Temp\cc6d032j.s:1751   .text.pmksa_cache_set_current:0000000000000008 .L0 
C:\Users\stapi\AppData\Local\Temp\cc6d032j.s:1752   .text.pmksa_cache_set_current:0000000000000008 .L0 
C:\Users\stapi\AppData\Local\Temp\cc6d032j.s:1754   .text.pmksa_cache_set_current:0000000000000008 .L0 
C:\Users\stapi\AppData\Local\Temp\cc6d032j.s:1755   .text.pmksa_cache_set_current:0000000000000008 .L0 
C:\Users\stapi\AppData\Local\Temp\cc6d032j.s:1759   .text.pmksa_cache_set_current:000000000000000e .L0 
C:\Users\stapi\AppData\Local\Temp\cc6d032j.s:1762   .text.pmksa_cache_set_current:0000000000000012 .L0 
C:\Users\stapi\AppData\Local\Temp\cc6d032j.s:1765   .text.pmksa_cache_set_current:0000000000000016 .L0 
C:\Users\stapi\AppData\Local\Temp\cc6d032j.s:1766   .text.pmksa_cache_set_current:0000000000000016 .L0 
C:\Users\stapi\AppData\Local\Temp\cc6d032j.s:1767   .text.pmksa_cache_set_current:0000000000000018 .L0 
C:\Users\stapi\AppData\Local\Temp\cc6d032j.s:1769   .text.pmksa_cache_set_current:0000000000000018 .L0 
C:\Users\stapi\AppData\Local\Temp\cc6d032j.s:1772   .text.pmksa_cache_set_current:000000000000001c .L0 
C:\Users\stapi\AppData\Local\Temp\cc6d032j.s:1782   .text.pmksa_cache_set_current:0000000000000028 .L0 
C:\Users\stapi\AppData\Local\Temp\cc6d032j.s:1785   .text.pmksa_cache_set_current:000000000000002c .L0 
C:\Users\stapi\AppData\Local\Temp\cc6d032j.s:1788   .text.pmksa_cache_set_current:0000000000000034 .L0 
C:\Users\stapi\AppData\Local\Temp\cc6d032j.s:1789   .text.pmksa_cache_set_current:0000000000000034 .L0 
C:\Users\stapi\AppData\Local\Temp\cc6d032j.s:1791   .text.pmksa_cache_set_current:0000000000000038 .L0 
C:\Users\stapi\AppData\Local\Temp\cc6d032j.s:1800   .text.pmksa_cache_set_current:000000000000004e .L0 
C:\Users\stapi\AppData\Local\Temp\cc6d032j.s:1801   .text.pmksa_cache_set_current:000000000000004e .L0 
C:\Users\stapi\AppData\Local\Temp\cc6d032j.s:1803   .text.pmksa_cache_set_current:0000000000000050 .L0 
C:\Users\stapi\AppData\Local\Temp\cc6d032j.s:1816   .text.pmksa_cache_set_current:000000000000007a .L0 
C:\Users\stapi\AppData\Local\Temp\cc6d032j.s:1817   .text.pmksa_cache_set_current:000000000000007a .L0 
C:\Users\stapi\AppData\Local\Temp\cc6d032j.s:1819   .text.pmksa_cache_set_current:000000000000007e .L0 
C:\Users\stapi\AppData\Local\Temp\cc6d032j.s:1828   .text.pmksa_cache_set_current:0000000000000098 .L0 
C:\Users\stapi\AppData\Local\Temp\cc6d032j.s:1829   .text.pmksa_cache_set_current:0000000000000098 .L0 
C:\Users\stapi\AppData\Local\Temp\cc6d032j.s:1831   .text.pmksa_cache_set_current:000000000000009c .L0 
C:\Users\stapi\AppData\Local\Temp\cc6d032j.s:1832   .text.pmksa_cache_set_current:000000000000009c .L0 
C:\Users\stapi\AppData\Local\Temp\cc6d032j.s:1835   .text.pmksa_cache_set_current:00000000000000a0 .L0 
C:\Users\stapi\AppData\Local\Temp\cc6d032j.s:1838   .text.pmksa_cache_set_current:00000000000000a2 .L0 
C:\Users\stapi\AppData\Local\Temp\cc6d032j.s:1840   .text.pmksa_cache_set_current:00000000000000a6 .L0 
C:\Users\stapi\AppData\Local\Temp\cc6d032j.s:1845   .text.pmksa_cache_set_current:00000000000000aa .L0 
C:\Users\stapi\AppData\Local\Temp\cc6d032j.s:1847   .text.pmksa_cache_set_current:00000000000000aa .L0 
C:\Users\stapi\AppData\Local\Temp\cc6d032j.s:1848   .text.pmksa_cache_set_current:00000000000000aa .L0 
C:\Users\stapi\AppData\Local\Temp\cc6d032j.s:1849   .text.pmksa_cache_set_current:00000000000000aa .L0 
C:\Users\stapi\AppData\Local\Temp\cc6d032j.s:1851   .text.pmksa_cache_set_current:00000000000000ac .L0 
C:\Users\stapi\AppData\Local\Temp\cc6d032j.s:1852   .text.pmksa_cache_set_current:00000000000000ac .L0 
C:\Users\stapi\AppData\Local\Temp\cc6d032j.s:1856   .text.pmksa_cache_set_current:00000000000000b2 .L0 
C:\Users\stapi\AppData\Local\Temp\cc6d032j.s:1857   .text.pmksa_cache_set_current:00000000000000b2 .L0 
C:\Users\stapi\AppData\Local\Temp\cc6d032j.s:1865   .text.pmksa_cache_set_current:00000000000000b6 .L0 
C:\Users\stapi\AppData\Local\Temp\cc6d032j.s:1866   .text.pmksa_cache_set_current:00000000000000b6 .L0 
C:\Users\stapi\AppData\Local\Temp\cc6d032j.s:1874   .text.pmksa_cache_set_current:00000000000000c8 .L0 
C:\Users\stapi\AppData\Local\Temp\cc6d032j.s:1876   .text.pmksa_cache_set_current:00000000000000cc .L0 
C:\Users\stapi\AppData\Local\Temp\cc6d032j.s:1877   .text.pmksa_cache_set_current:00000000000000cc .L0 
C:\Users\stapi\AppData\Local\Temp\cc6d032j.s:1881   .text.pmksa_cache_set_current:00000000000000ce .L0 
C:\Users\stapi\AppData\Local\Temp\cc6d032j.s:1882   .text.pmksa_cache_set_current:00000000000000ce .L0 
C:\Users\stapi\AppData\Local\Temp\cc6d032j.s:1884   .text.pmksa_cache_set_current:00000000000000d2 .L0 
C:\Users\stapi\AppData\Local\Temp\cc6d032j.s:1887   .text.pmksa_cache_set_current:00000000000000d4 .L0 
C:\Users\stapi\AppData\Local\Temp\cc6d032j.s:1891   .text.pmksa_cache_set_current:00000000000000d4 .L0 
C:\Users\stapi\AppData\Local\Temp\cc6d032j.s:1892   .text.pmksa_cache_set_current:00000000000000d4 .L0 
C:\Users\stapi\AppData\Local\Temp\cc6d032j.s:1893   .text.pmksa_cache_set_current:00000000000000d4 .L0 
C:\Users\stapi\AppData\Local\Temp\cc6d032j.s:1900   .text.pmksa_cache_set_current:00000000000000de .L0 
C:\Users\stapi\AppData\Local\Temp\cc6d032j.s:1902   .text.pmksa_cache_set_current:00000000000000e0 .L0 
C:\Users\stapi\AppData\Local\Temp\cc6d032j.s:1906   .text.pmksa_cache_set_current:00000000000000ea .L0 
C:\Users\stapi\AppData\Local\Temp\cc6d032j.s:1908   .text.pmksa_cache_set_current:00000000000000ec .L0 
C:\Users\stapi\AppData\Local\Temp\cc6d032j.s:1910   .text.pmksa_cache_set_current:00000000000000f0 .L0 
C:\Users\stapi\AppData\Local\Temp\cc6d032j.s:1914   .text.pmksa_cache_set_current:00000000000000f8 .L0 
C:\Users\stapi\AppData\Local\Temp\cc6d032j.s:1926   .text.pmksa_cache_set_current:0000000000000122 .L0 
C:\Users\stapi\AppData\Local\Temp\cc6d032j.s:1927   .text.pmksa_cache_set_current:0000000000000122 .L0 
C:\Users\stapi\AppData\Local\Temp\cc6d032j.s:1931   .text.pmksa_cache_set_current:0000000000000126 .L0 
C:\Users\stapi\AppData\Local\Temp\cc6d032j.s:1932   .text.pmksa_cache_set_current:0000000000000126 .L0 
C:\Users\stapi\AppData\Local\Temp\cc6d032j.s:1933   .text.pmksa_cache_set_current:0000000000000126 .L0 
C:\Users\stapi\AppData\Local\Temp\cc6d032j.s:1938   .text.pmksa_cache_set_current:000000000000012a .L0 
C:\Users\stapi\AppData\Local\Temp\cc6d032j.s:1939   .text.pmksa_cache_set_current:000000000000012a .L0 
C:\Users\stapi\AppData\Local\Temp\cc6d032j.s:1947   .text.pmksa_cache_set_current:000000000000013c .L0 
C:\Users\stapi\AppData\Local\Temp\cc6d032j.s:1949   .text.pmksa_cache_set_current:0000000000000140 .L0 
C:\Users\stapi\AppData\Local\Temp\cc6d032j.s:1950   .text.pmksa_cache_set_current:0000000000000140 .L0 
C:\Users\stapi\AppData\Local\Temp\cc6d032j.s:1952   .text.pmksa_cache_set_current:0000000000000142 .L0 
C:\Users\stapi\AppData\Local\Temp\cc6d032j.s:1954   .text.pmksa_cache_set_current:0000000000000146 .L0 
C:\Users\stapi\AppData\Local\Temp\cc6d032j.s:1955   .text.pmksa_cache_set_current:0000000000000146 .L0 
C:\Users\stapi\AppData\Local\Temp\cc6d032j.s:1962   .text.pmksa_cache_set_current:0000000000000156 .L0 
C:\Users\stapi\AppData\Local\Temp\cc6d032j.s:1964   .text.pmksa_cache_set_current:000000000000015a .L0 
C:\Users\stapi\AppData\Local\Temp\cc6d032j.s:1965   .text.pmksa_cache_set_current:000000000000015a .L0 
C:\Users\stapi\AppData\Local\Temp\cc6d032j.s:1972   .text.pmksa_cache_set_current:000000000000015e .L0 
C:\Users\stapi\AppData\Local\Temp\cc6d032j.s:1976   .text.pmksa_cache_set_current:0000000000000166 .L0 
C:\Users\stapi\AppData\Local\Temp\cc6d032j.s:1982   .text.pmksa_cache_set_current:0000000000000176 .L0 
C:\Users\stapi\AppData\Local\Temp\cc6d032j.s:1988   .text.pmksa_cache_set_current:0000000000000178 .L0 
C:\Users\stapi\AppData\Local\Temp\cc6d032j.s:1993   .text.pmksa_cache_set_current:000000000000017e .L0 
C:\Users\stapi\AppData\Local\Temp\cc6d032j.s:1994   .text.pmksa_cache_set_current:000000000000017e .L0 
C:\Users\stapi\AppData\Local\Temp\cc6d032j.s:1996   .text.pmksa_cache_set_current:0000000000000182 .L0 
C:\Users\stapi\AppData\Local\Temp\cc6d032j.s:2004   .text.pmksa_cache_set_current:0000000000000198 .L0 
C:\Users\stapi\AppData\Local\Temp\cc6d032j.s:2005   .text.pmksa_cache_set_current:0000000000000198 .L0 
C:\Users\stapi\AppData\Local\Temp\cc6d032j.s:2009   .text.pmksa_cache_set_current:000000000000019a .L0 
C:\Users\stapi\AppData\Local\Temp\cc6d032j.s:2010   .text.pmksa_cache_set_current:000000000000019c .L0 
C:\Users\stapi\AppData\Local\Temp\cc6d032j.s:2011   .text.pmksa_cache_set_current:000000000000019c .L0 
C:\Users\stapi\AppData\Local\Temp\cc6d032j.s:2013   .text.pmksa_cache_set_current:00000000000001a4 .L0 
C:\Users\stapi\AppData\Local\Temp\cc6d032j.s:2014   .text.pmksa_cache_set_current:00000000000001a4 .L0 
C:\Users\stapi\AppData\Local\Temp\cc6d032j.s:2015   .text.pmksa_cache_set_current:00000000000001a4 .L0 
C:\Users\stapi\AppData\Local\Temp\cc6d032j.s:2016   .text.pmksa_cache_set_current:00000000000001a4 .L0 
C:\Users\stapi\AppData\Local\Temp\cc6d032j.s:2017   .text.pmksa_cache_set_current:00000000000001a4 .L0 
C:\Users\stapi\AppData\Local\Temp\cc6d032j.s:2018   .text.pmksa_cache_set_current:00000000000001a4 .L0 
C:\Users\stapi\AppData\Local\Temp\cc6d032j.s:2019   .text.pmksa_cache_set_current:00000000000001a4 .L0 
C:\Users\stapi\AppData\Local\Temp\cc6d032j.s:2020   .text.pmksa_cache_set_current:00000000000001a4 .L0 
C:\Users\stapi\AppData\Local\Temp\cc6d032j.s:2021   .text.pmksa_cache_set_current:00000000000001a4 .L0 
C:\Users\stapi\AppData\Local\Temp\cc6d032j.s:2022   .text.pmksa_cache_set_current:00000000000001a4 .L0 
C:\Users\stapi\AppData\Local\Temp\cc6d032j.s:2024   .text.pmksa_cache_set_current:00000000000001a4 .L0 
C:\Users\stapi\AppData\Local\Temp\cc6d032j.s:2026   .text.pmksa_cache_set_current:00000000000001a4 .L0 
C:\Users\stapi\AppData\Local\Temp\cc6d032j.s:2032   .text.pmksa_cache_set_current:00000000000001b8 .L0 
C:\Users\stapi\AppData\Local\Temp\cc6d032j.s:2061   .text.pmksa_cache_list:0000000000000000 pmksa_cache_list
C:\Users\stapi\AppData\Local\Temp\cc6d032j.s:2064   .text.pmksa_cache_list:0000000000000000 .L0 
C:\Users\stapi\AppData\Local\Temp\cc6d032j.s:2066   .text.pmksa_cache_list:0000000000000000 .L0 
C:\Users\stapi\AppData\Local\Temp\cc6d032j.s:2067   .text.pmksa_cache_list:0000000000000008 .L0 
C:\Users\stapi\AppData\Local\Temp\cc6d032j.s:2068   .text.pmksa_cache_list:0000000000000008 .L0 
C:\Users\stapi\AppData\Local\Temp\cc6d032j.s:2069   .text.pmksa_cache_list:0000000000000008 .L0 
C:\Users\stapi\AppData\Local\Temp\cc6d032j.s:2070   .text.pmksa_cache_list:0000000000000008 .L0 
C:\Users\stapi\AppData\Local\Temp\cc6d032j.s:2071   .text.pmksa_cache_list:0000000000000008 .L0 
C:\Users\stapi\AppData\Local\Temp\cc6d032j.s:2072   .text.pmksa_cache_list:0000000000000008 .L0 
C:\Users\stapi\AppData\Local\Temp\cc6d032j.s:2073   .text.pmksa_cache_list:0000000000000008 .L0 
C:\Users\stapi\AppData\Local\Temp\cc6d032j.s:2074   .text.pmksa_cache_list:0000000000000008 .L0 
C:\Users\stapi\AppData\Local\Temp\cc6d032j.s:2075   .text.pmksa_cache_list:0000000000000008 .L0 
C:\Users\stapi\AppData\Local\Temp\cc6d032j.s:2076   .text.pmksa_cache_list:0000000000000008 .L0 
C:\Users\stapi\AppData\Local\Temp\cc6d032j.s:2077   .text.pmksa_cache_list:0000000000000008 .L0 
C:\Users\stapi\AppData\Local\Temp\cc6d032j.s:2078   .text.pmksa_cache_list:0000000000000008 .L0 
C:\Users\stapi\AppData\Local\Temp\cc6d032j.s:2080   .text.pmksa_cache_list:0000000000000008 .L0 
C:\Users\stapi\AppData\Local\Temp\cc6d032j.s:2081   .text.pmksa_cache_list:0000000000000008 .L0 
C:\Users\stapi\AppData\Local\Temp\cc6d032j.s:2082   .text.pmksa_cache_list:0000000000000008 .L0 
C:\Users\stapi\AppData\Local\Temp\cc6d032j.s:2084   .text.pmksa_cache_list:000000000000000a .L0 
C:\Users\stapi\AppData\Local\Temp\cc6d032j.s:2085   .text.pmksa_cache_list:000000000000000c .L0 
C:\Users\stapi\AppData\Local\Temp\cc6d032j.s:2087   .text.pmksa_cache_list:000000000000000c .L0 
C:\Users\stapi\AppData\Local\Temp\cc6d032j.s:2091   .text.pmksa_cache_list:0000000000000010 .L0 
C:\Users\stapi\AppData\Local\Temp\cc6d032j.s:2092   .text.pmksa_cache_list:0000000000000010 .L0 
C:\Users\stapi\AppData\Local\Temp\cc6d032j.s:2093   .text.pmksa_cache_list:0000000000000010 .L0 
C:\Users\stapi\AppData\Local\Temp\cc6d032j.s:2094   .text.pmksa_cache_list:0000000000000010 .L0 
C:\Users\stapi\AppData\Local\Temp\cc6d032j.s:2095   .text.pmksa_cache_list:0000000000000010 .L0 
C:\Users\stapi\AppData\Local\Temp\cc6d032j.s:2098   .text.pmksa_cache_list:0000000000000012 .L0 
C:\Users\stapi\AppData\Local\Temp\cc6d032j.s:2099   .text.pmksa_cache_list:0000000000000012 .L0 
C:\Users\stapi\AppData\Local\Temp\cc6d032j.s:2101   .text.pmksa_cache_list:0000000000000014 .L0 
C:\Users\stapi\AppData\Local\Temp\cc6d032j.s:2105   .text.pmksa_cache_list:0000000000000016 .L0 
C:\Users\stapi\AppData\Local\Temp\cc6d032j.s:2110   .text.pmksa_cache_list:0000000000000020 .L0 
C:\Users\stapi\AppData\Local\Temp\cc6d032j.s:2111   .text.pmksa_cache_list:0000000000000020 .L0 
C:\Users\stapi\AppData\Local\Temp\cc6d032j.s:2116   .text.pmksa_cache_list:000000000000002a .L0 
C:\Users\stapi\AppData\Local\Temp\cc6d032j.s:2128   .text.pmksa_cache_list:0000000000000040 .L0 
C:\Users\stapi\AppData\Local\Temp\cc6d032j.s:2131   .text.pmksa_cache_list:0000000000000040 .L0 
C:\Users\stapi\AppData\Local\Temp\cc6d032j.s:2132   .text.pmksa_cache_list:0000000000000040 .L0 
C:\Users\stapi\AppData\Local\Temp\cc6d032j.s:2136   .text.pmksa_cache_list:0000000000000042 .L0 
C:\Users\stapi\AppData\Local\Temp\cc6d032j.s:2138   .text.pmksa_cache_list:0000000000000046 .L0 
C:\Users\stapi\AppData\Local\Temp\cc6d032j.s:2142   .text.pmksa_cache_list:000000000000004a .L0 
C:\Users\stapi\AppData\Local\Temp\cc6d032j.s:2145   .text.pmksa_cache_list:000000000000004c .L0 
C:\Users\stapi\AppData\Local\Temp\cc6d032j.s:2148   .text.pmksa_cache_list:000000000000004e .L0 
C:\Users\stapi\AppData\Local\Temp\cc6d032j.s:2149   .text.pmksa_cache_list:000000000000004e .L0 
C:\Users\stapi\AppData\Local\Temp\cc6d032j.s:2152   .text.pmksa_cache_list:0000000000000050 .L0 
C:\Users\stapi\AppData\Local\Temp\cc6d032j.s:2153   .text.pmksa_cache_list:0000000000000050 .L0 
C:\Users\stapi\AppData\Local\Temp\cc6d032j.s:2154   .text.pmksa_cache_list:0000000000000050 .L0 
C:\Users\stapi\AppData\Local\Temp\cc6d032j.s:2155   .text.pmksa_cache_list:0000000000000050 .L0 
C:\Users\stapi\AppData\Local\Temp\cc6d032j.s:2157   .text.pmksa_cache_list:0000000000000052 .L0 
C:\Users\stapi\AppData\Local\Temp\cc6d032j.s:2159   .text.pmksa_cache_list:0000000000000056 .L0 
C:\Users\stapi\AppData\Local\Temp\cc6d032j.s:2161   .text.pmksa_cache_list:000000000000005a .L0 
C:\Users\stapi\AppData\Local\Temp\cc6d032j.s:2163   .text.pmksa_cache_list:000000000000005e .L0 
C:\Users\stapi\AppData\Local\Temp\cc6d032j.s:2167   .text.pmksa_cache_list:0000000000000062 .L0 
C:\Users\stapi\AppData\Local\Temp\cc6d032j.s:2169   .text.pmksa_cache_list:0000000000000064 .L0 
C:\Users\stapi\AppData\Local\Temp\cc6d032j.s:2170   .text.pmksa_cache_list:0000000000000064 .L0 
C:\Users\stapi\AppData\Local\Temp\cc6d032j.s:2178   .text.pmksa_cache_list:000000000000007e .L0 
C:\Users\stapi\AppData\Local\Temp\cc6d032j.s:2181   .text.pmksa_cache_list:0000000000000080 .L0 
C:\Users\stapi\AppData\Local\Temp\cc6d032j.s:2182   .text.pmksa_cache_list:0000000000000080 .L0 
C:\Users\stapi\AppData\Local\Temp\cc6d032j.s:2184   .text.pmksa_cache_list:0000000000000084 .L0 
C:\Users\stapi\AppData\Local\Temp\cc6d032j.s:2194   .text.pmksa_cache_list:0000000000000098 .L0 
C:\Users\stapi\AppData\Local\Temp\cc6d032j.s:2195   .text.pmksa_cache_list:0000000000000098 .L0 
C:\Users\stapi\AppData\Local\Temp\cc6d032j.s:2196   .text.pmksa_cache_list:0000000000000098 .L0 
C:\Users\stapi\AppData\Local\Temp\cc6d032j.s:2202   .text.pmksa_cache_list:00000000000000a0 .L0 
C:\Users\stapi\AppData\Local\Temp\cc6d032j.s:2203   .text.pmksa_cache_list:00000000000000a0 .L0 
C:\Users\stapi\AppData\Local\Temp\cc6d032j.s:2206   .text.pmksa_cache_list:00000000000000a2 .L0 
C:\Users\stapi\AppData\Local\Temp\cc6d032j.s:2207   .text.pmksa_cache_list:00000000000000a2 .L0 
C:\Users\stapi\AppData\Local\Temp\cc6d032j.s:2215   .text.pmksa_cache_list:00000000000000b6 .L0 
C:\Users\stapi\AppData\Local\Temp\cc6d032j.s:2217   .text.pmksa_cache_list:00000000000000b8 .L0 
C:\Users\stapi\AppData\Local\Temp\cc6d032j.s:2219   .text.pmksa_cache_list:00000000000000ba .L0 
C:\Users\stapi\AppData\Local\Temp\cc6d032j.s:2222   .text.pmksa_cache_list:00000000000000bc .L0 
C:\Users\stapi\AppData\Local\Temp\cc6d032j.s:2223   .text.pmksa_cache_list:00000000000000bc .L0 
C:\Users\stapi\AppData\Local\Temp\cc6d032j.s:2225   .text.pmksa_cache_list:00000000000000be .L0 
C:\Users\stapi\AppData\Local\Temp\cc6d032j.s:2227   .text.pmksa_cache_list:00000000000000c2 .L0 
C:\Users\stapi\AppData\Local\Temp\cc6d032j.s:2236   .text.pmksa_cache_list:00000000000000d4 .L0 
C:\Users\stapi\AppData\Local\Temp\cc6d032j.s:2237   .text.pmksa_cache_list:00000000000000d4 .L0 
C:\Users\stapi\AppData\Local\Temp\cc6d032j.s:2238   .text.pmksa_cache_list:00000000000000d4 .L0 
C:\Users\stapi\AppData\Local\Temp\cc6d032j.s:2244   .text.pmksa_cache_list:00000000000000d8 .L0 
C:\Users\stapi\AppData\Local\Temp\cc6d032j.s:2245   .text.pmksa_cache_list:00000000000000d8 .L0 
C:\Users\stapi\AppData\Local\Temp\cc6d032j.s:2249   .text.pmksa_cache_list:00000000000000dc .L0 
C:\Users\stapi\AppData\Local\Temp\cc6d032j.s:2250   .text.pmksa_cache_list:00000000000000de .L0 
C:\Users\stapi\AppData\Local\Temp\cc6d032j.s:2251   .text.pmksa_cache_list:00000000000000de .L0 
C:\Users\stapi\AppData\Local\Temp\cc6d032j.s:2253   .text.pmksa_cache_list:00000000000000e6 .L0 
C:\Users\stapi\AppData\Local\Temp\cc6d032j.s:2254   .text.pmksa_cache_list:00000000000000e6 .L0 
C:\Users\stapi\AppData\Local\Temp\cc6d032j.s:2255   .text.pmksa_cache_list:00000000000000e6 .L0 
C:\Users\stapi\AppData\Local\Temp\cc6d032j.s:2256   .text.pmksa_cache_list:00000000000000e6 .L0 
C:\Users\stapi\AppData\Local\Temp\cc6d032j.s:2257   .text.pmksa_cache_list:00000000000000e6 .L0 
C:\Users\stapi\AppData\Local\Temp\cc6d032j.s:2258   .text.pmksa_cache_list:00000000000000e6 .L0 
C:\Users\stapi\AppData\Local\Temp\cc6d032j.s:2259   .text.pmksa_cache_list:00000000000000e6 .L0 
C:\Users\stapi\AppData\Local\Temp\cc6d032j.s:2260   .text.pmksa_cache_list:00000000000000e6 .L0 
C:\Users\stapi\AppData\Local\Temp\cc6d032j.s:2261   .text.pmksa_cache_list:00000000000000e6 .L0 
C:\Users\stapi\AppData\Local\Temp\cc6d032j.s:2262   .text.pmksa_cache_list:00000000000000e6 .L0 
C:\Users\stapi\AppData\Local\Temp\cc6d032j.s:2263   .text.pmksa_cache_list:00000000000000e6 .L0 
C:\Users\stapi\AppData\Local\Temp\cc6d032j.s:2264   .text.pmksa_cache_list:00000000000000e6 .L0 
C:\Users\stapi\AppData\Local\Temp\cc6d032j.s:2267   .text.pmksa_cache_list:00000000000000e6 .L0 
C:\Users\stapi\AppData\Local\Temp\cc6d032j.s:2269   .text.pmksa_cache_list:00000000000000e6 .L0 
C:\Users\stapi\AppData\Local\Temp\cc6d032j.s:2270   .text.pmksa_cache_list:00000000000000e6 .L0 
C:\Users\stapi\AppData\Local\Temp\cc6d032j.s:2272   .text.pmksa_cache_list:00000000000000ea .L0 
C:\Users\stapi\AppData\Local\Temp\cc6d032j.s:2275   .text.pmksa_cache_list:00000000000000ee .L0 
C:\Users\stapi\AppData\Local\Temp\cc6d032j.s:2276   .text.pmksa_cache_list:00000000000000ee .L0 
C:\Users\stapi\AppData\Local\Temp\cc6d032j.s:2281   .text.pmksa_cache_list:00000000000000f2 .L0 
C:\Users\stapi\AppData\Local\Temp\cc6d032j.s:2286   .text.pmksa_cache_list:00000000000000f6 .L0 
C:\Users\stapi\AppData\Local\Temp\cc6d032j.s:2294   .text.pmksa_cache_list:0000000000000100 .L0 
C:\Users\stapi\AppData\Local\Temp\cc6d032j.s:2299   .text.pmksa_cache_list:0000000000000104 .L0 
C:\Users\stapi\AppData\Local\Temp\cc6d032j.s:2300   .text.pmksa_cache_list:0000000000000104 .L0 
C:\Users\stapi\AppData\Local\Temp\cc6d032j.s:2302   .text.pmksa_cache_list:0000000000000108 .L0 
C:\Users\stapi\AppData\Local\Temp\cc6d032j.s:2305   .text.pmksa_cache_list:000000000000010a .L0 
C:\Users\stapi\AppData\Local\Temp\cc6d032j.s:2306   .text.pmksa_cache_list:000000000000010a .L0 
C:\Users\stapi\AppData\Local\Temp\cc6d032j.s:2310   .text.pmksa_cache_list:000000000000010e .L0 
C:\Users\stapi\AppData\Local\Temp\cc6d032j.s:2311   .text.pmksa_cache_list:000000000000010e .L0 
C:\Users\stapi\AppData\Local\Temp\cc6d032j.s:2313   .text.pmksa_cache_list:0000000000000112 .L0 
C:\Users\stapi\AppData\Local\Temp\cc6d032j.s:2322   .text.pmksa_cache_list:0000000000000122 .L0 
C:\Users\stapi\AppData\Local\Temp\cc6d032j.s:2323   .text.pmksa_cache_list:0000000000000122 .L0 
C:\Users\stapi\AppData\Local\Temp\cc6d032j.s:2324   .text.pmksa_cache_list:0000000000000122 .L0 
C:\Users\stapi\AppData\Local\Temp\cc6d032j.s:2330   .text.pmksa_cache_list:000000000000012a .L0 
C:\Users\stapi\AppData\Local\Temp\cc6d032j.s:2331   .text.pmksa_cache_list:000000000000012a .L0 
C:\Users\stapi\AppData\Local\Temp\cc6d032j.s:2334   .text.pmksa_cache_list:000000000000012c .L0 
C:\Users\stapi\AppData\Local\Temp\cc6d032j.s:2337   .text.pmksa_cache_list:000000000000012e .L0 
C:\Users\stapi\AppData\Local\Temp\cc6d032j.s:2340   .text.pmksa_cache_list:0000000000000130 .L0 
C:\Users\stapi\AppData\Local\Temp\cc6d032j.s:2343   .text.pmksa_cache_list:0000000000000138 .L0 
C:\Users\stapi\AppData\Local\Temp\cc6d032j.s:2345   .text.pmksa_cache_list:000000000000013c .L0 
C:\Users\stapi\AppData\Local\Temp\cc6d032j.s:2346   .text.pmksa_cache_list:000000000000013c .L0 
C:\Users\stapi\AppData\Local\Temp\cc6d032j.s:2355   .text.pmksa_cache_list:000000000000014c .L0 
C:\Users\stapi\AppData\Local\Temp\cc6d032j.s:2356   .text.pmksa_cache_list:000000000000014c .L0 
C:\Users\stapi\AppData\Local\Temp\cc6d032j.s:2357   .text.pmksa_cache_list:000000000000014c .L0 
C:\Users\stapi\AppData\Local\Temp\cc6d032j.s:2363   .text.pmksa_cache_list:0000000000000154 .L0 
C:\Users\stapi\AppData\Local\Temp\cc6d032j.s:2364   .text.pmksa_cache_list:0000000000000154 .L0 
C:\Users\stapi\AppData\Local\Temp\cc6d032j.s:2367   .text.pmksa_cache_list:0000000000000158 .L0 
C:\Users\stapi\AppData\Local\Temp\cc6d032j.s:2374   .text.pmksa_cache_head:0000000000000000 pmksa_cache_head
C:\Users\stapi\AppData\Local\Temp\cc6d032j.s:2377   .text.pmksa_cache_head:0000000000000000 .L0 
C:\Users\stapi\AppData\Local\Temp\cc6d032j.s:2379   .text.pmksa_cache_head:0000000000000000 .L0 
C:\Users\stapi\AppData\Local\Temp\cc6d032j.s:2380   .text.pmksa_cache_head:0000000000000000 .L0 
C:\Users\stapi\AppData\Local\Temp\cc6d032j.s:2381   .text.pmksa_cache_head:0000000000000000 .L0 
C:\Users\stapi\AppData\Local\Temp\cc6d032j.s:2384   .text.pmksa_cache_head:0000000000000004 .L0 
C:\Users\stapi\AppData\Local\Temp\cc6d032j.s:2391   .text.pmksa_cache_init:0000000000000000 pmksa_cache_init
C:\Users\stapi\AppData\Local\Temp\cc6d032j.s:2394   .text.pmksa_cache_init:0000000000000000 .L0 
C:\Users\stapi\AppData\Local\Temp\cc6d032j.s:2396   .text.pmksa_cache_init:0000000000000000 .L0 
C:\Users\stapi\AppData\Local\Temp\cc6d032j.s:2397   .text.pmksa_cache_init:0000000000000008 .L0 
C:\Users\stapi\AppData\Local\Temp\cc6d032j.s:2398   .text.pmksa_cache_init:0000000000000008 .L0 
C:\Users\stapi\AppData\Local\Temp\cc6d032j.s:2399   .text.pmksa_cache_init:0000000000000008 .L0 
C:\Users\stapi\AppData\Local\Temp\cc6d032j.s:2400   .text.pmksa_cache_init:0000000000000008 .L0 
C:\Users\stapi\AppData\Local\Temp\cc6d032j.s:2401   .text.pmksa_cache_init:0000000000000008 .L0 
C:\Users\stapi\AppData\Local\Temp\cc6d032j.s:2402   .text.pmksa_cache_init:0000000000000008 .L0 
C:\Users\stapi\AppData\Local\Temp\cc6d032j.s:2404   .text.pmksa_cache_init:0000000000000008 .L0 
C:\Users\stapi\AppData\Local\Temp\cc6d032j.s:2405   .text.pmksa_cache_init:0000000000000008 .L0 
C:\Users\stapi\AppData\Local\Temp\cc6d032j.s:2406   .text.pmksa_cache_init:0000000000000008 .L0 
C:\Users\stapi\AppData\Local\Temp\cc6d032j.s:2408   .text.pmksa_cache_init:000000000000000a .L0 
C:\Users\stapi\AppData\Local\Temp\cc6d032j.s:2411   .text.pmksa_cache_init:000000000000000c .L0 
C:\Users\stapi\AppData\Local\Temp\cc6d032j.s:2415   .text.pmksa_cache_init:0000000000000012 .L0 
C:\Users\stapi\AppData\Local\Temp\cc6d032j.s:2418   .text.pmksa_cache_init:000000000000001a .L0 
C:\Users\stapi\AppData\Local\Temp\cc6d032j.s:2419   .text.pmksa_cache_init:000000000000001a .L0 
C:\Users\stapi\AppData\Local\Temp\cc6d032j.s:2421   .text.pmksa_cache_init:000000000000001c .L0 
C:\Users\stapi\AppData\Local\Temp\cc6d032j.s:2422   .text.pmksa_cache_init:000000000000001c .L0 
C:\Users\stapi\AppData\Local\Temp\cc6d032j.s:2424   .text.pmksa_cache_init:0000000000000020 .L0 
C:\Users\stapi\AppData\Local\Temp\cc6d032j.s:2425   .text.pmksa_cache_init:0000000000000020 .L0 
C:\Users\stapi\AppData\Local\Temp\cc6d032j.s:2427   .text.pmksa_cache_init:0000000000000024 .L0 
C:\Users\stapi\AppData\Local\Temp\cc6d032j.s:2428   .text.pmksa_cache_init:0000000000000024 .L0 
C:\Users\stapi\AppData\Local\Temp\cc6d032j.s:2430   .text.pmksa_cache_init:0000000000000026 .L0 
C:\Users\stapi\AppData\Local\Temp\cc6d032j.s:2431   .text.pmksa_cache_init:0000000000000026 .L0 
C:\Users\stapi\AppData\Local\Temp\cc6d032j.s:2434   .text.pmksa_cache_init:0000000000000028 .L0 
C:\Users\stapi\AppData\Local\Temp\cc6d032j.s:2435   .text.pmksa_cache_init:0000000000000028 .L0 
C:\Users\stapi\AppData\Local\Temp\cc6d032j.s:2436   .text.pmksa_cache_init:0000000000000030 .L0 
C:\Users\stapi\AppData\Local\Temp\cc6d032j.s:2437   .text.pmksa_cache_init:0000000000000030 .L0 
C:\Users\stapi\AppData\Local\Temp\cc6d032j.s:2438   .text.pmksa_cache_init:0000000000000030 .L0 
C:\Users\stapi\AppData\Local\Temp\cc6d032j.s:2439   .text.pmksa_cache_init:0000000000000030 .L0 
C:\Users\stapi\AppData\Local\Temp\cc6d032j.s:2440   .text.pmksa_cache_init:0000000000000030 .L0 
C:\Users\stapi\AppData\Local\Temp\cc6d032j.s:2441   .text.pmksa_cache_init:0000000000000030 .L0 
C:\Users\stapi\AppData\Local\Temp\cc6d032j.s:2442   .text.pmksa_cache_init:0000000000000030 .L0 
C:\Users\stapi\AppData\Local\Temp\cc6d032j.s:2449   .text.pmksa_cache_reconfig:0000000000000000 pmksa_cache_reconfig
C:\Users\stapi\AppData\Local\Temp\cc6d032j.s:2452   .text.pmksa_cache_reconfig:0000000000000000 .L0 
C:\Users\stapi\AppData\Local\Temp\cc6d032j.s:2454   .text.pmksa_cache_reconfig:0000000000000000 .L0 
C:\Users\stapi\AppData\Local\Temp\cc6d032j.s:2455   .text.pmksa_cache_reconfig:0000000000000000 .L0 
C:\Users\stapi\AppData\Local\Temp\cc6d032j.s:2456   .text.pmksa_cache_reconfig:0000000000000000 .L0 
C:\Users\stapi\AppData\Local\Temp\cc6d032j.s:2457   .text.pmksa_cache_reconfig:0000000000000000 .L0 
C:\Users\stapi\AppData\Local\Temp\cc6d032j.s:2458   .text.pmksa_cache_reconfig:0000000000000000 .L0 
C:\Users\stapi\AppData\Local\Temp\cc6d032j.s:2460   .text.pmksa_cache_reconfig:0000000000000002 .L0 
C:\Users\stapi\AppData\Local\Temp\cc6d032j.s:2461   .text.pmksa_cache_reconfig:000000000000000a .L0 
C:\Users\stapi\AppData\Local\Temp\cc6d032j.s:2462   .text.pmksa_cache_reconfig:000000000000000a .L0 
C:\Users\stapi\AppData\Local\Temp\cc6d032j.s:2463   .text.pmksa_cache_reconfig:000000000000000a .L0 
C:\Users\stapi\AppData\Local\Temp\cc6d032j.s:2464   .text.pmksa_cache_reconfig:000000000000000a .L0 
C:\Users\stapi\AppData\Local\Temp\cc6d032j.s:2465   .text.pmksa_cache_reconfig:000000000000000a .L0 
C:\Users\stapi\AppData\Local\Temp\cc6d032j.s:2467   .text.pmksa_cache_reconfig:000000000000000a .L0 
C:\Users\stapi\AppData\Local\Temp\cc6d032j.s:2469   .text.pmksa_cache_reconfig:000000000000000c .L0 
C:\Users\stapi\AppData\Local\Temp\cc6d032j.s:2470   .text.pmksa_cache_reconfig:000000000000000e .L0 
C:\Users\stapi\AppData\Local\Temp\cc6d032j.s:2473   .text.pmksa_cache_reconfig:0000000000000010 .L0 
C:\Users\stapi\AppData\Local\Temp\cc6d032j.s:2475   .text.pmksa_cache_reconfig:0000000000000012 .L0 
C:\Users\stapi\AppData\Local\Temp\cc6d032j.s:2480   .text.pmksa_cache_reconfig:000000000000001c .L0 
C:\Users\stapi\AppData\Local\Temp\cc6d032j.s:2481   .text.pmksa_cache_reconfig:000000000000001c .L0 
C:\Users\stapi\AppData\Local\Temp\cc6d032j.s:2485   .text.pmksa_cache_reconfig:000000000000001e .L0 
C:\Users\stapi\AppData\Local\Temp\cc6d032j.s:2489   .text.pmksa_cache_reconfig:0000000000000022 .L0 
C:\Users\stapi\AppData\Local\Temp\cc6d032j.s:2490   .text.pmksa_cache_reconfig:0000000000000022 .L0 
C:\Users\stapi\AppData\Local\Temp\cc6d032j.s:2494   .text.pmksa_cache_reconfig:0000000000000024 .L0 
C:\Users\stapi\AppData\Local\Temp\cc6d032j.s:2495   .text.pmksa_cache_reconfig:0000000000000026 .L0 
C:\Users\stapi\AppData\Local\Temp\cc6d032j.s:2496   .text.pmksa_cache_reconfig:0000000000000026 .L0 
C:\Users\stapi\AppData\Local\Temp\cc6d032j.s:2498   .text.pmksa_cache_reconfig:000000000000002e .L0 
C:\Users\stapi\AppData\Local\Temp\cc6d032j.s:2499   .text.pmksa_cache_reconfig:000000000000002e .L0 
C:\Users\stapi\AppData\Local\Temp\cc6d032j.s:2500   .text.pmksa_cache_reconfig:000000000000002e .L0 
C:\Users\stapi\AppData\Local\Temp\cc6d032j.s:2501   .text.pmksa_cache_reconfig:000000000000002e .L0 
C:\Users\stapi\AppData\Local\Temp\cc6d032j.s:2502   .text.pmksa_cache_reconfig:000000000000002e .L0 
C:\Users\stapi\AppData\Local\Temp\cc6d032j.s:2505   .text.pmksa_cache_reconfig:000000000000002e .L0 
C:\Users\stapi\AppData\Local\Temp\cc6d032j.s:2508   .text.pmksa_cache_reconfig:000000000000002e .L0 
C:\Users\stapi\AppData\Local\Temp\cc6d032j.s:2509   .text.pmksa_cache_reconfig:000000000000002e .L0 
C:\Users\stapi\AppData\Local\Temp\cc6d032j.s:2510   .text.pmksa_cache_reconfig:000000000000002e .L0 
C:\Users\stapi\AppData\Local\Temp\cc6d032j.s:2511   .text.pmksa_cache_reconfig:000000000000002e .L0 
C:\Users\stapi\AppData\Local\Temp\cc6d032j.s:2513   .text.pmksa_cache_reconfig:0000000000000030 .L0 
C:\Users\stapi\AppData\Local\Temp\cc6d032j.s:2516   .text.pmksa_cache_reconfig:0000000000000038 .L0 
C:\Users\stapi\AppData\Local\Temp\cc6d032j.s:2518   .text.pmksa_cache_reconfig:000000000000003c .L0 
C:\Users\stapi\AppData\Local\Temp\cc6d032j.s:2521   .text.pmksa_cache_reconfig:0000000000000040 .L0 
C:\Users\stapi\AppData\Local\Temp\cc6d032j.s:2524   .text.pmksa_cache_reconfig:0000000000000044 .L0 
C:\Users\stapi\AppData\Local\Temp\cc6d032j.s:2525   .text.pmksa_cache_reconfig:0000000000000044 .L0 
C:\Users\stapi\AppData\Local\Temp\cc6d032j.s:2526   .text.pmksa_cache_reconfig:0000000000000044 .L0 
C:\Users\stapi\AppData\Local\Temp\cc6d032j.s:2528   .text.pmksa_cache_reconfig:0000000000000048 .L0 
C:\Users\stapi\AppData\Local\Temp\cc6d032j.s:2530   .text.pmksa_cache_reconfig:000000000000004c .L0 
C:\Users\stapi\AppData\Local\Temp\cc6d032j.s:2533   .text.pmksa_cache_reconfig:0000000000000050 .L0 
C:\Users\stapi\AppData\Local\Temp\cc6d032j.s:2534   .text.pmksa_cache_reconfig:0000000000000050 .L0 
C:\Users\stapi\AppData\Local\Temp\cc6d032j.s:2536   .text.pmksa_cache_reconfig:0000000000000052 .L0 
C:\Users\stapi\AppData\Local\Temp\cc6d032j.s:2537   .text.pmksa_cache_reconfig:0000000000000052 .L0 
C:\Users\stapi\AppData\Local\Temp\cc6d032j.s:2539   .text.pmksa_cache_reconfig:0000000000000056 .L0 
C:\Users\stapi\AppData\Local\Temp\cc6d032j.s:2543   .text.pmksa_cache_reconfig:000000000000005e .L0 
C:\Users\stapi\AppData\Local\Temp\cc6d032j.s:2545   .text.pmksa_cache_reconfig:0000000000000062 .L0 
C:\Users\stapi\AppData\Local\Temp\cc6d032j.s:2547   .text.pmksa_cache_reconfig:0000000000000066 .L0 
C:\Users\stapi\AppData\Local\Temp\cc6d032j.s:2550   .text.pmksa_cache_reconfig:000000000000006a .L0 
C:\Users\stapi\AppData\Local\Temp\cc6d032j.s:2557   .text.pmksa_cache_reconfig:0000000000000072 .L0 
C:\Users\stapi\AppData\Local\Temp\cc6d032j.s:2558   .text.pmksa_cache_reconfig:0000000000000072 .L0 
C:\Users\stapi\AppData\Local\Temp\cc6d032j.s:2559   .text.pmksa_cache_reconfig:0000000000000072 .L0 
C:\Users\stapi\AppData\Local\Temp\cc6d032j.s:2560   .text.pmksa_cache_reconfig:0000000000000072 .L0 
C:\Users\stapi\AppData\Local\Temp\cc6d032j.s:2561   .text.pmksa_cache_reconfig:0000000000000072 .L0 
C:\Users\stapi\AppData\Local\Temp\cc6d032j.s:2578   .text.pmksa_cache_reconfig:000000000000008c .L0 
C:\Users\stapi\AppData\Local\Temp\cc6d032j.s:2579   .text.pmksa_cache_reconfig:000000000000008c .L0 
C:\Users\stapi\AppData\Local\Temp\cc6d032j.s:2584   .text.pmksa_cache_reconfig:0000000000000090 .L0 
C:\Users\stapi\AppData\Local\Temp\cc6d032j.s:2585   .text.pmksa_cache_reconfig:0000000000000090 .L0 
C:\Users\stapi\AppData\Local\Temp\cc6d032j.s:2586   .text.pmksa_cache_reconfig:0000000000000090 .L0 
C:\Users\stapi\AppData\Local\Temp\cc6d032j.s:2587   .text.pmksa_cache_reconfig:0000000000000090 .L0 
C:\Users\stapi\AppData\Local\Temp\cc6d032j.s:2588   .text.pmksa_cache_reconfig:0000000000000090 .L0 
C:\Users\stapi\AppData\Local\Temp\cc6d032j.s:2590   .text.pmksa_cache_reconfig:0000000000000092 .L0 
C:\Users\stapi\AppData\Local\Temp\cc6d032j.s:32     .text.pmksa_cache_reauth:0000000000000008 .L0 
C:\Users\stapi\AppData\Local\Temp\cc6d032j.s:121    .text.pmksa_cache_free_entry:000000000000005a .L0 
C:\Users\stapi\AppData\Local\Temp\cc6d032j.s:211    .text.pmksa_cache_get:0000000000000062 .L0 
C:\Users\stapi\AppData\Local\Temp\cc6d032j.s:410    .text.pmksa_cache_set_expiration:00000000000000ec .L0 
C:\Users\stapi\AppData\Local\Temp\cc6d032j.s:587    .text.pmksa_cache_expire:00000000000000ce .L0 
C:\Users\stapi\AppData\Local\Temp\cc6d032j.s:750    .text.pmksa_cache_flush:00000000000000b8 .L0 
C:\Users\stapi\AppData\Local\Temp\cc6d032j.s:1099   .text.pmksa_cache_add_entry:00000000000001ec .L0 
C:\Users\stapi\AppData\Local\Temp\cc6d032j.s:1303   .text.pmksa_cache_add:0000000000000100 .L0 
C:\Users\stapi\AppData\Local\Temp\cc6d032j.s:1374   .text.pmksa_cache_deinit:0000000000000040 .L0 
C:\Users\stapi\AppData\Local\Temp\cc6d032j.s:1640   .text.pmksa_cache_get_opportunistic:000000000000013e .L0 
C:\Users\stapi\AppData\Local\Temp\cc6d032j.s:1662   .text.pmksa_cache_get_current:0000000000000008 .L0 
C:\Users\stapi\AppData\Local\Temp\cc6d032j.s:1711   .text.pmksa_cache_clear_current:0000000000000032 .L0 
C:\Users\stapi\AppData\Local\Temp\cc6d032j.s:2035   .text.pmksa_cache_set_current:00000000000001b8 .L0 
C:\Users\stapi\AppData\Local\Temp\cc6d032j.s:2370   .text.pmksa_cache_list:0000000000000158 .L0 
C:\Users\stapi\AppData\Local\Temp\cc6d032j.s:2387   .text.pmksa_cache_head:0000000000000004 .L0 
C:\Users\stapi\AppData\Local\Temp\cc6d032j.s:2445   .text.pmksa_cache_init:0000000000000030 .L0 
C:\Users\stapi\AppData\Local\Temp\cc6d032j.s:2593   .text.pmksa_cache_reconfig:0000000000000092 .L0 
                     .debug_frame:0000000000000000 .L0 
C:\Users\stapi\AppData\Local\Temp\cc6d032j.s:69     .text.pmksa_cache_free_entry:0000000000000028 .L3
C:\Users\stapi\AppData\Local\Temp\cc6d032j.s:170    .text.pmksa_cache_get:000000000000002e .L8
C:\Users\stapi\AppData\Local\Temp\cc6d032j.s:182    .text.pmksa_cache_get:0000000000000038 .L10
C:\Users\stapi\AppData\Local\Temp\cc6d032j.s:198    .text.pmksa_cache_get:000000000000004e .L34
C:\Users\stapi\AppData\Local\Temp\cc6d032j.s:164    .text.pmksa_cache_get:0000000000000024 .L14
C:\Users\stapi\AppData\Local\Temp\cc6d032j.s:192    .text.pmksa_cache_get:000000000000004a .L16
C:\Users\stapi\AppData\Local\Temp\cc6d032j.s:155    .text.pmksa_cache_get:0000000000000016 .L13
C:\Users\stapi\AppData\Local\Temp\cc6d032j.s:149    .text.pmksa_cache_get:0000000000000012 .L9
C:\Users\stapi\AppData\Local\Temp\cc6d032j.s:158    .text.pmksa_cache_get:000000000000001a .L11
C:\Users\stapi\AppData\Local\Temp\cc6d032j.s:355    .text.pmksa_cache_set_expiration:00000000000000ba .L37
C:\Users\stapi\AppData\Local\Temp\cc6d032j.s:292    .text.pmksa_cache_set_expiration:000000000000005c .L39
C:\Users\stapi\AppData\Local\Temp\cc6d032j.s:369    .text.pmksa_cache_set_expiration:00000000000000c4 .L40
C:\Users\stapi\AppData\Local\Temp\cc6d032j.s:320    .text.pmksa_cache_set_expiration:0000000000000090 .L42
C:\Users\stapi\AppData\Local\Temp\cc6d032j.s:288    .text.pmksa_cache_set_expiration:000000000000005a .L41
C:\Users\stapi\AppData\Local\Temp\cc6d032j.s:415    .rodata.pmksa_cache_expire.str1.4:0000000000000058 .LC1
C:\Users\stapi\AppData\Local\Temp\cc6d032j.s:412    .rodata.pmksa_cache_expire.str1.4:0000000000000000 .LC0
C:\Users\stapi\AppData\Local\Temp\cc6d032j.s:481    .text.pmksa_cache_expire:0000000000000032 .L59
C:\Users\stapi\AppData\Local\Temp\cc6d032j.s:500    .text.pmksa_cache_expire:0000000000000046 .L60
C:\Users\stapi\AppData\Local\Temp\cc6d032j.s:542    .text.pmksa_cache_expire:0000000000000084 .L55
C:\Users\stapi\AppData\Local\Temp\cc6d032j.s:474    .text.pmksa_cache_expire:0000000000000028 .L54
C:\Users\stapi\AppData\Local\Temp\cc6d032j.s:579    .text.pmksa_cache_expire:00000000000000ca .L57
C:\Users\stapi\AppData\Local\Temp\cc6d032j.s:561    .text.pmksa_cache_expire:00000000000000b4 .L58
C:\Users\stapi\AppData\Local\Temp\cc6d032j.s:589    .rodata.pmksa_cache_flush.str1.4:0000000000000000 .LC2
C:\Users\stapi\AppData\Local\Temp\cc6d032j.s:660    .text.pmksa_cache_flush:0000000000000034 .L82
C:\Users\stapi\AppData\Local\Temp\cc6d032j.s:644    .text.pmksa_cache_flush:000000000000002c .L71
C:\Users\stapi\AppData\Local\Temp\cc6d032j.s:668    .text.pmksa_cache_flush:000000000000003e .L73
C:\Users\stapi\AppData\Local\Temp\cc6d032j.s:728    .text.pmksa_cache_flush:00000000000000a6 .L74
C:\Users\stapi\AppData\Local\Temp\cc6d032j.s:716    .text.pmksa_cache_flush:000000000000008e .L75
C:\Users\stapi\AppData\Local\Temp\cc6d032j.s:737    .text.pmksa_cache_flush:00000000000000ac .L76
C:\Users\stapi\AppData\Local\Temp\cc6d032j.s:742    .text.pmksa_cache_flush:00000000000000b4 .L79
C:\Users\stapi\AppData\Local\Temp\cc6d032j.s:634    .text.pmksa_cache_flush:000000000000001c .L72
C:\Users\stapi\AppData\Local\Temp\cc6d032j.s:671    .text.pmksa_cache_flush:0000000000000042 .L78
C:\Users\stapi\AppData\Local\Temp\cc6d032j.s:674    .text.pmksa_cache_flush:0000000000000046 .L77
C:\Users\stapi\AppData\Local\Temp\cc6d032j.s:693    .text.pmksa_cache_flush:0000000000000076 .L80
C:\Users\stapi\AppData\Local\Temp\cc6d032j.s:752    .rodata.pmksa_cache_add_entry.str1.4:0000000000000000 .LC3
C:\Users\stapi\AppData\Local\Temp\cc6d032j.s:755    .rodata.pmksa_cache_add_entry.str1.4:0000000000000024 .LC4
C:\Users\stapi\AppData\Local\Temp\cc6d032j.s:758    .rodata.pmksa_cache_add_entry.str1.4:0000000000000088 .LC5
C:\Users\stapi\AppData\Local\Temp\cc6d032j.s:761    .rodata.pmksa_cache_add_entry.str1.4:00000000000000f4 .LC6
C:\Users\stapi\AppData\Local\Temp\cc6d032j.s:894    .text.pmksa_cache_add_entry:00000000000000ce .L102
C:\Users\stapi\AppData\Local\Temp\cc6d032j.s:1052   .text.pmksa_cache_add_entry:00000000000001c6 .L96
C:\Users\stapi\AppData\Local\Temp\cc6d032j.s:857    .text.pmksa_cache_add_entry:0000000000000088 .L97
C:\Users\stapi\AppData\Local\Temp\cc6d032j.s:1045   .text.pmksa_cache_add_entry:00000000000001c0 .L99
C:\Users\stapi\AppData\Local\Temp\cc6d032j.s:886    .text.pmksa_cache_add_entry:00000000000000c0 .L101
C:\Users\stapi\AppData\Local\Temp\cc6d032j.s:949    .text.pmksa_cache_add_entry:0000000000000130 .L105
C:\Users\stapi\AppData\Local\Temp\cc6d032j.s:1062   .text.pmksa_cache_add_entry:00000000000001ce .L107
C:\Users\stapi\AppData\Local\Temp\cc6d032j.s:922    .text.pmksa_cache_add_entry:00000000000000f2 .L108
C:\Users\stapi\AppData\Local\Temp\cc6d032j.s:1071   .text.pmksa_cache_add_entry:00000000000001d6 .L112
C:\Users\stapi\AppData\Local\Temp\cc6d032j.s:1085   .text.pmksa_cache_add_entry:00000000000001e4 .L113
C:\Users\stapi\AppData\Local\Temp\cc6d032j.s:1016   .text.pmksa_cache_add_entry:0000000000000196 .L115
C:\Users\stapi\AppData\Local\Temp\cc6d032j.s:842    .text.pmksa_cache_add_entry:000000000000007c .L94
C:\Users\stapi\AppData\Local\Temp\cc6d032j.s:867    .text.pmksa_cache_add_entry:0000000000000092 .L100
C:\Users\stapi\AppData\Local\Temp\cc6d032j.s:798    .text.pmksa_cache_add_entry:0000000000000018 .L95
C:\Users\stapi\AppData\Local\Temp\cc6d032j.s:929    .text.pmksa_cache_add_entry:00000000000000f8 .L109
C:\Users\stapi\AppData\Local\Temp\cc6d032j.s:964    .text.pmksa_cache_add_entry:0000000000000138 .L111
C:\Users\stapi\AppData\Local\Temp\cc6d032j.s:961    .text.pmksa_cache_add_entry:0000000000000136 .L110
C:\Users\stapi\AppData\Local\Temp\cc6d032j.s:978    .text.pmksa_cache_add_entry:0000000000000148 .L114
C:\Users\stapi\AppData\Local\Temp\cc6d032j.s:1159   .text.pmksa_cache_add:0000000000000022 .L124
C:\Users\stapi\AppData\Local\Temp\cc6d032j.s:1186   .text.pmksa_cache_add:000000000000003c .L126
C:\Users\stapi\AppData\Local\Temp\cc6d032j.s:1136   .text.pmksa_cache_add:0000000000000016 .L127
C:\Users\stapi\AppData\Local\Temp\cc6d032j.s:1284   .text.pmksa_cache_add:00000000000000e4 .L128
C:\Users\stapi\AppData\Local\Temp\cc6d032j.s:1264   .text.pmksa_cache_add:00000000000000c2 .L130
C:\Users\stapi\AppData\Local\Temp\cc6d032j.s:1139   .text.pmksa_cache_add:0000000000000018 .L123
C:\Users\stapi\AppData\Local\Temp\cc6d032j.s:1216   .text.pmksa_cache_add:0000000000000070 .L129
C:\Users\stapi\AppData\Local\Temp\cc6d032j.s:1365   .text.pmksa_cache_deinit:000000000000003e .L152
C:\Users\stapi\AppData\Local\Temp\cc6d032j.s:1351   .text.pmksa_cache_deinit:0000000000000030 .L147
C:\Users\stapi\AppData\Local\Temp\cc6d032j.s:1331   .text.pmksa_cache_deinit:0000000000000012 .L146
C:\Users\stapi\AppData\Local\Temp\cc6d032j.s:1376   .rodata.pmksa_cache_get_opportunistic.str1.4:0000000000000000 .LC7
C:\Users\stapi\AppData\Local\Temp\cc6d032j.s:1379   .rodata.pmksa_cache_get_opportunistic.str1.4:0000000000000034 .LC8
C:\Users\stapi\AppData\Local\Temp\cc6d032j.s:1382   .rodata.pmksa_cache_get_opportunistic.str1.4:00000000000000a0 .LC9
C:\Users\stapi\AppData\Local\Temp\cc6d032j.s:1454   .text.pmksa_cache_get_opportunistic:000000000000004e .L166
C:\Users\stapi\AppData\Local\Temp\cc6d032j.s:1475   .text.pmksa_cache_get_opportunistic:000000000000005c .L165
C:\Users\stapi\AppData\Local\Temp\cc6d032j.s:1523   .text.pmksa_cache_get_opportunistic:00000000000000ac .L158
C:\Users\stapi\AppData\Local\Temp\cc6d032j.s:1487   .text.pmksa_cache_get_opportunistic:000000000000006c .L159
C:\Users\stapi\AppData\Local\Temp\cc6d032j.s:1530   .text.pmksa_cache_get_opportunistic:00000000000000b0 .L160
C:\Users\stapi\AppData\Local\Temp\cc6d032j.s:1450   .text.pmksa_cache_get_opportunistic:000000000000004c .L156
C:\Users\stapi\AppData\Local\Temp\cc6d032j.s:1573   .text.pmksa_cache_get_opportunistic:00000000000000cc .L162
C:\Users\stapi\AppData\Local\Temp\cc6d032j.s:1591   .text.pmksa_cache_get_opportunistic:00000000000000ec .L163
C:\Users\stapi\AppData\Local\Temp\cc6d032j.s:1458   .text.pmksa_cache_get_opportunistic:0000000000000050 .L155
C:\Users\stapi\AppData\Local\Temp\cc6d032j.s:1656   .text.pmksa_cache_get_current:0000000000000006 .L182
C:\Users\stapi\AppData\Local\Temp\cc6d032j.s:1664   .rodata.pmksa_cache_clear_current.str1.4:0000000000000000 .LC10
C:\Users\stapi\AppData\Local\Temp\cc6d032j.s:1706   .text.pmksa_cache_clear_current:0000000000000030 .L196
C:\Users\stapi\AppData\Local\Temp\cc6d032j.s:1696   .text.pmksa_cache_clear_current:0000000000000024 .L188
C:\Users\stapi\AppData\Local\Temp\cc6d032j.s:1713   .rodata.pmksa_cache_set_current.str1.4:0000000000000000 .LC11
C:\Users\stapi\AppData\Local\Temp\cc6d032j.s:1716   .rodata.pmksa_cache_set_current.str1.4:0000000000000048 .LC12
C:\Users\stapi\AppData\Local\Temp\cc6d032j.s:1719   .rodata.pmksa_cache_set_current.str1.4:0000000000000060 .LC13
C:\Users\stapi\AppData\Local\Temp\cc6d032j.s:1722   .rodata.pmksa_cache_set_current.str1.4:0000000000000094 .LC14
C:\Users\stapi\AppData\Local\Temp\cc6d032j.s:1725   .rodata.pmksa_cache_set_current.str1.4:00000000000000c4 .LC15
C:\Users\stapi\AppData\Local\Temp\cc6d032j.s:1728   .rodata.pmksa_cache_set_current.str1.4:0000000000000144 .LC16
C:\Users\stapi\AppData\Local\Temp\cc6d032j.s:1731   .rodata.pmksa_cache_set_current.str1.4:000000000000016c .LC17
C:\Users\stapi\AppData\Local\Temp\cc6d032j.s:1798   .text.pmksa_cache_set_current:000000000000004e .L200
C:\Users\stapi\AppData\Local\Temp\cc6d032j.s:1814   .text.pmksa_cache_set_current:000000000000007a .L201
C:\Users\stapi\AppData\Local\Temp\cc6d032j.s:1826   .text.pmksa_cache_set_current:0000000000000098 .L202
C:\Users\stapi\AppData\Local\Temp\cc6d032j.s:1861   .text.pmksa_cache_set_current:00000000000000b6 .L203
C:\Users\stapi\AppData\Local\Temp\cc6d032j.s:1936   .text.pmksa_cache_set_current:000000000000012a .L204
C:\Users\stapi\AppData\Local\Temp\cc6d032j.s:1879   .text.pmksa_cache_set_current:00000000000000ce .L220
C:\Users\stapi\AppData\Local\Temp\cc6d032j.s:1983   .text.pmksa_cache_set_current:0000000000000178 .L214
C:\Users\stapi\AppData\Local\Temp\cc6d032j.s:1968   .text.pmksa_cache_set_current:000000000000015e .L212
C:\Users\stapi\AppData\Local\Temp\cc6d032j.s:1846   .text.pmksa_cache_set_current:00000000000000aa .L211
C:\Users\stapi\AppData\Local\Temp\cc6d032j.s:1833   .text.pmksa_cache_set_current:00000000000000a0 .L206
C:\Users\stapi\AppData\Local\Temp\cc6d032j.s:2023   .text.pmksa_cache_set_current:00000000000001a4 .L216
C:\Users\stapi\AppData\Local\Temp\cc6d032j.s:1990   .text.pmksa_cache_set_current:000000000000017e .L217
C:\Users\stapi\AppData\Local\Temp\cc6d032j.s:2006   .text.pmksa_cache_set_current:000000000000019a .L199
C:\Users\stapi\AppData\Local\Temp\cc6d032j.s:1836   .text.pmksa_cache_set_current:00000000000000a2 .L205
C:\Users\stapi\AppData\Local\Temp\cc6d032j.s:1854   .text.pmksa_cache_set_current:00000000000000b2 .L213
C:\Users\stapi\AppData\Local\Temp\cc6d032j.s:1929   .text.pmksa_cache_set_current:0000000000000126 .L247
C:\Users\stapi\AppData\Local\Temp\cc6d032j.s:2040   .rodata.pmksa_cache_list.str1.4:000000000000001c .LC19
C:\Users\stapi\AppData\Local\Temp\cc6d032j.s:2043   .rodata.pmksa_cache_list.str1.4:0000000000000020 .LC20
C:\Users\stapi\AppData\Local\Temp\cc6d032j.s:2046   .rodata.pmksa_cache_list.str1.4:0000000000000060 .LC21
C:\Users\stapi\AppData\Local\Temp\cc6d032j.s:2049   .rodata.pmksa_cache_list.str1.4:0000000000000084 .LC22
C:\Users\stapi\AppData\Local\Temp\cc6d032j.s:2052   .rodata.pmksa_cache_list.str1.4:000000000000008c .LC23
C:\Users\stapi\AppData\Local\Temp\cc6d032j.s:2055   .rodata.pmksa_cache_list.str1.4:0000000000000098 .LC24
C:\Users\stapi\AppData\Local\Temp\cc6d032j.s:2037   .rodata.pmksa_cache_list.str1.4:0000000000000000 .LC18
C:\Users\stapi\AppData\Local\Temp\cc6d032j.s:2266   .text.pmksa_cache_list:00000000000000e6 .L251
C:\Users\stapi\AppData\Local\Temp\cc6d032j.s:2284   .text.pmksa_cache_list:00000000000000f6 .L264
C:\Users\stapi\AppData\Local\Temp\cc6d032j.s:2247   .text.pmksa_cache_list:00000000000000dc .L248
C:\Users\stapi\AppData\Local\Temp\cc6d032j.s:2240   .text.pmksa_cache_list:00000000000000d8 .L269
C:\Users\stapi\AppData\Local\Temp\cc6d032j.s:2290   .text.pmksa_cache_list:0000000000000100 .L267
C:\Users\stapi\AppData\Local\Temp\cc6d032j.s:2279   .text.pmksa_cache_list:00000000000000f2 .L263
C:\Users\stapi\AppData\Local\Temp\cc6d032j.s:2096   .text.pmksa_cache_list:0000000000000012 .L249
C:\Users\stapi\AppData\Local\Temp\cc6d032j.s:2102   .text.pmksa_cache_list:0000000000000016 .L250
C:\Users\stapi\AppData\Local\Temp\cc6d032j.s:2114   .text.pmksa_cache_list:000000000000002a .L252
C:\Users\stapi\AppData\Local\Temp\cc6d032j.s:2338   .text.pmksa_cache_list:0000000000000130 .L258
C:\Users\stapi\AppData\Local\Temp\cc6d032j.s:2165   .text.pmksa_cache_list:0000000000000062 .L254
C:\Users\stapi\AppData\Local\Temp\cc6d032j.s:2308   .text.pmksa_cache_list:000000000000010e .L259
C:\Users\stapi\AppData\Local\Temp\cc6d032j.s:2433   .text.pmksa_cache_init:0000000000000028 .L271
C:\Users\stapi\AppData\Local\Temp\cc6d032j.s:2583   .text.pmksa_cache_reconfig:0000000000000090 .L293
C:\Users\stapi\AppData\Local\Temp\cc6d032j.s:2492   .text.pmksa_cache_reconfig:0000000000000024 .L277
C:\Users\stapi\AppData\Local\Temp\cc6d032j.s:2504   .text.pmksa_cache_reconfig:000000000000002e .L283
C:\Users\stapi\AppData\Local\Temp\cc6d032j.s:2573   .text.pmksa_cache_reconfig:000000000000008c .L281
C:\Users\stapi\AppData\Local\Temp\cc6d032j.s:2551   .text.pmksa_cache_reconfig:000000000000006e .L282
C:\Users\stapi\AppData\Local\Temp\cc6d032j.s:2486   .text.pmksa_cache_reconfig:0000000000000022 .L280
C:\Users\stapi\AppData\Local\Temp\cc6d032j.s:7571   .debug_abbrev:0000000000000000 .Ldebug_abbrev0
C:\Users\stapi\AppData\Local\Temp\cc6d032j.s:11268  .debug_str:0000000000000f36 .LASF273
C:\Users\stapi\AppData\Local\Temp\cc6d032j.s:11228  .debug_str:0000000000000d71 .LASF274
C:\Users\stapi\AppData\Local\Temp\cc6d032j.s:10898  .debug_str:00000000000003f8 .LASF275
C:\Users\stapi\AppData\Local\Temp\cc6d032j.s:10638  .debug_ranges:0000000000000000 .Ldebug_ranges0
C:\Users\stapi\AppData\Local\Temp\cc6d032j.s:10748  .debug_line:0000000000000000 .Ldebug_line0
C:\Users\stapi\AppData\Local\Temp\cc6d032j.s:10924  .debug_str:000000000000053f .LASF2
C:\Users\stapi\AppData\Local\Temp\cc6d032j.s:10788  .debug_str:0000000000000121 .LASF0
C:\Users\stapi\AppData\Local\Temp\cc6d032j.s:11246  .debug_str:0000000000000e78 .LASF1
C:\Users\stapi\AppData\Local\Temp\cc6d032j.s:11150  .debug_str:0000000000000b4e .LASF3
C:\Users\stapi\AppData\Local\Temp\cc6d032j.s:11196  .debug_str:0000000000000c94 .LASF4
C:\Users\stapi\AppData\Local\Temp\cc6d032j.s:10812  .debug_str:00000000000001b9 .LASF5
C:\Users\stapi\AppData\Local\Temp\cc6d032j.s:10894  .debug_str:00000000000003e5 .LASF6
C:\Users\stapi\AppData\Local\Temp\cc6d032j.s:11248  .debug_str:0000000000000e84 .LASF7
C:\Users\stapi\AppData\Local\Temp\cc6d032j.s:11122  .debug_str:0000000000000abb .LASF8
C:\Users\stapi\AppData\Local\Temp\cc6d032j.s:11200  .debug_str:0000000000000ca9 .LASF9
C:\Users\stapi\AppData\Local\Temp\cc6d032j.s:11178  .debug_str:0000000000000c19 .LASF10
C:\Users\stapi\AppData\Local\Temp\cc6d032j.s:10960  .debug_str:0000000000000650 .LASF11
C:\Users\stapi\AppData\Local\Temp\cc6d032j.s:10880  .debug_str:0000000000000387 .LASF12
C:\Users\stapi\AppData\Local\Temp\cc6d032j.s:10974  .debug_str:00000000000006a5 .LASF13
C:\Users\stapi\AppData\Local\Temp\cc6d032j.s:10998  .debug_str:0000000000000743 .LASF14
C:\Users\stapi\AppData\Local\Temp\cc6d032j.s:11094  .debug_str:00000000000009dd .LASF15
C:\Users\stapi\AppData\Local\Temp\cc6d032j.s:10846  .debug_str:0000000000000288 .LASF16
C:\Users\stapi\AppData\Local\Temp\cc6d032j.s:10932  .debug_str:000000000000056a .LASF17
C:\Users\stapi\AppData\Local\Temp\cc6d032j.s:11012  .debug_str:0000000000000799 .LASF18
C:\Users\stapi\AppData\Local\Temp\cc6d032j.s:11256  .debug_str:0000000000000ed8 .LASF72
C:\Users\stapi\AppData\Local\Temp\cc6d032j.s:10914  .debug_str:00000000000004ee .LASF19
C:\Users\stapi\AppData\Local\Temp\cc6d032j.s:10926  .debug_str:0000000000000546 .LASF20
C:\Users\stapi\AppData\Local\Temp\cc6d032j.s:11082  .debug_str:0000000000000983 .LASF21
C:\Users\stapi\AppData\Local\Temp\cc6d032j.s:10900  .debug_str:000000000000048a .LASF22
C:\Users\stapi\AppData\Local\Temp\cc6d032j.s:10928  .debug_str:0000000000000554 .LASF23
C:\Users\stapi\AppData\Local\Temp\cc6d032j.s:11022  .debug_str:00000000000007d9 .LASF24
C:\Users\stapi\AppData\Local\Temp\cc6d032j.s:10964  .debug_str:000000000000066a .LASF25
C:\Users\stapi\AppData\Local\Temp\cc6d032j.s:10944  .debug_str:00000000000005c7 .LASF39
C:\Users\stapi\AppData\Local\Temp\cc6d032j.s:10752  .debug_str:000000000000000a .LASF26
C:\Users\stapi\AppData\Local\Temp\cc6d032j.s:10962  .debug_str:000000000000065e .LASF27
C:\Users\stapi\AppData\Local\Temp\cc6d032j.s:11056  .debug_str:00000000000008a8 .LASF28
C:\Users\stapi\AppData\Local\Temp\cc6d032j.s:11128  .debug_str:0000000000000ad3 .LASF29
C:\Users\stapi\AppData\Local\Temp\cc6d032j.s:10948  .debug_str:00000000000005e1 .LASF30
C:\Users\stapi\AppData\Local\Temp\cc6d032j.s:10830  .debug_str:0000000000000227 .LASF31
C:\Users\stapi\AppData\Local\Temp\cc6d032j.s:10980  .debug_str:00000000000006c2 .LASF32
C:\Users\stapi\AppData\Local\Temp\cc6d032j.s:11014  .debug_str:00000000000007a3 .LASF33
C:\Users\stapi\AppData\Local\Temp\cc6d032j.s:11016  .debug_str:00000000000007af .LASF34
C:\Users\stapi\AppData\Local\Temp\cc6d032j.s:11292  .debug_str:00000000000010cf .LASF35
C:\Users\stapi\AppData\Local\Temp\cc6d032j.s:10758  .debug_str:0000000000000032 .LASF36
C:\Users\stapi\AppData\Local\Temp\cc6d032j.s:11088  .debug_str:00000000000009ab .LASF37
C:\Users\stapi\AppData\Local\Temp\cc6d032j.s:10814  .debug_str:00000000000001c3 .LASF38
C:\Users\stapi\AppData\Local\Temp\cc6d032j.s:11104  .debug_str:0000000000000a26 .LASF40
C:\Users\stapi\AppData\Local\Temp\cc6d032j.s:11170  .debug_str:0000000000000bd7 .LASF41
C:\Users\stapi\AppData\Local\Temp\cc6d032j.s:10864  .debug_str:0000000000000319 .LASF42
C:\Users\stapi\AppData\Local\Temp\cc6d032j.s:11182  .debug_str:0000000000000c37 .LASF43
C:\Users\stapi\AppData\Local\Temp\cc6d032j.s:11232  .debug_str:0000000000000e15 .LASF44
C:\Users\stapi\AppData\Local\Temp\cc6d032j.s:11260  .debug_str:0000000000000ef1 .LASF45
C:\Users\stapi\AppData\Local\Temp\cc6d032j.s:11184  .debug_str:0000000000000c44 .LASF46
C:\Users\stapi\AppData\Local\Temp\cc6d032j.s:11138  .debug_str:0000000000000b09 .LASF47
C:\Users\stapi\AppData\Local\Temp\cc6d032j.s:11188  .debug_str:0000000000000c5e .LASF48
C:\Users\stapi\AppData\Local\Temp\cc6d032j.s:11278  .debug_str:0000000000001068 .LASF49
C:\Users\stapi\AppData\Local\Temp\cc6d032j.s:10996  .debug_str:0000000000000735 .LASF50
C:\Users\stapi\AppData\Local\Temp\cc6d032j.s:11282  .debug_str:0000000000001096 .LASF51
C:\Users\stapi\AppData\Local\Temp\cc6d032j.s:11230  .debug_str:0000000000000e05 .LASF52
C:\Users\stapi\AppData\Local\Temp\cc6d032j.s:10908  .debug_str:00000000000004c7 .LASF53
C:\Users\stapi\AppData\Local\Temp\cc6d032j.s:11180  .debug_str:0000000000000c2b .LASF54
C:\Users\stapi\AppData\Local\Temp\cc6d032j.s:11136  .debug_str:0000000000000afd .LASF55
C:\Users\stapi\AppData\Local\Temp\cc6d032j.s:11120  .debug_str:0000000000000aac .LASF56
C:\Users\stapi\AppData\Local\Temp\cc6d032j.s:11076  .debug_str:0000000000000956 .LASF57
C:\Users\stapi\AppData\Local\Temp\cc6d032j.s:10776  .debug_str:00000000000000b4 .LASF58
C:\Users\stapi\AppData\Local\Temp\cc6d032j.s:11072  .debug_str:0000000000000936 .LASF59
C:\Users\stapi\AppData\Local\Temp\cc6d032j.s:11106  .debug_str:0000000000000a31 .LASF60
C:\Users\stapi\AppData\Local\Temp\cc6d032j.s:10808  .debug_str:000000000000018e .LASF61
C:\Users\stapi\AppData\Local\Temp\cc6d032j.s:11064  .debug_str:00000000000008f7 .LASF62
C:\Users\stapi\AppData\Local\Temp\cc6d032j.s:11280  .debug_str:000000000000107c .LASF63
C:\Users\stapi\AppData\Local\Temp\cc6d032j.s:11108  .debug_str:0000000000000a46 .LASF64
C:\Users\stapi\AppData\Local\Temp\cc6d032j.s:10994  .debug_str:0000000000000720 .LASF65
C:\Users\stapi\AppData\Local\Temp\cc6d032j.s:10764  .debug_str:000000000000005f .LASF66
C:\Users\stapi\AppData\Local\Temp\cc6d032j.s:11214  .debug_str:0000000000000d00 .LASF67
C:\Users\stapi\AppData\Local\Temp\cc6d032j.s:11176  .debug_str:0000000000000c05 .LASF68
C:\Users\stapi\AppData\Local\Temp\cc6d032j.s:10786  .debug_str:000000000000010f .LASF69
C:\Users\stapi\AppData\Local\Temp\cc6d032j.s:11270  .debug_str:000000000000102f .LASF70
C:\Users\stapi\AppData\Local\Temp\cc6d032j.s:11100  .debug_str:0000000000000a03 .LASF71
C:\Users\stapi\AppData\Local\Temp\cc6d032j.s:11202  .debug_str:0000000000000cb4 .LASF73
C:\Users\stapi\AppData\Local\Temp\cc6d032j.s:11096  .debug_str:00000000000009e6 .LASF74
C:\Users\stapi\AppData\Local\Temp\cc6d032j.s:10986  .debug_str:00000000000006f0 .LASF75
C:\Users\stapi\AppData\Local\Temp\cc6d032j.s:10818  .debug_str:00000000000001e3 .LASF76
C:\Users\stapi\AppData\Local\Temp\cc6d032j.s:10918  .debug_str:0000000000000508 .LASF77
C:\Users\stapi\AppData\Local\Temp\cc6d032j.s:11212  .debug_str:0000000000000cf9 .LASF78
C:\Users\stapi\AppData\Local\Temp\cc6d032j.s:10886  .debug_str:00000000000003b6 .LASF79
C:\Users\stapi\AppData\Local\Temp\cc6d032j.s:10950  .debug_str:00000000000005f6 .LASF80
C:\Users\stapi\AppData\Local\Temp\cc6d032j.s:11168  .debug_str:0000000000000bcf .LASF81
C:\Users\stapi\AppData\Local\Temp\cc6d032j.s:11038  .debug_str:0000000000000832 .LASF82
C:\Users\stapi\AppData\Local\Temp\cc6d032j.s:10896  .debug_str:00000000000003f0 .LASF83
C:\Users\stapi\AppData\Local\Temp\cc6d032j.s:10856  .debug_str:00000000000002e8 .LASF84
C:\Users\stapi\AppData\Local\Temp\cc6d032j.s:11236  .debug_str:0000000000000e2c .LASF85
C:\Users\stapi\AppData\Local\Temp\cc6d032j.s:11130  .debug_str:0000000000000ae0 .LASF86
C:\Users\stapi\AppData\Local\Temp\cc6d032j.s:11066  .debug_str:0000000000000909 .LASF87
C:\Users\stapi\AppData\Local\Temp\cc6d032j.s:10970  .debug_str:0000000000000696 .LASF88
C:\Users\stapi\AppData\Local\Temp\cc6d032j.s:11264  .debug_str:0000000000000f1c .LASF89
C:\Users\stapi\AppData\Local\Temp\cc6d032j.s:10750  .debug_str:0000000000000000 .LASF90
C:\Users\stapi\AppData\Local\Temp\cc6d032j.s:10836  .debug_str:0000000000000253 .LASF91
C:\Users\stapi\AppData\Local\Temp\cc6d032j.s:11164  .debug_str:0000000000000bb6 .LASF92
C:\Users\stapi\AppData\Local\Temp\cc6d032j.s:11234  .debug_str:0000000000000e22 .LASF93
C:\Users\stapi\AppData\Local\Temp\cc6d032j.s:10992  .debug_str:0000000000000716 .LASF94
C:\Users\stapi\AppData\Local\Temp\cc6d032j.s:11050  .debug_str:0000000000000881 .LASF95
C:\Users\stapi\AppData\Local\Temp\cc6d032j.s:11052  .debug_str:0000000000000890 .LASF96
C:\Users\stapi\AppData\Local\Temp\cc6d032j.s:10912  .debug_str:00000000000004e6 .LASF97
C:\Users\stapi\AppData\Local\Temp\cc6d032j.s:11018  .debug_str:00000000000007c0 .LASF98
C:\Users\stapi\AppData\Local\Temp\cc6d032j.s:10976  .debug_str:00000000000006aa .LASF99
C:\Users\stapi\AppData\Local\Temp\cc6d032j.s:10844  .debug_str:000000000000027d .LASF100
C:\Users\stapi\AppData\Local\Temp\cc6d032j.s:11044  .debug_str:0000000000000854 .LASF101
C:\Users\stapi\AppData\Local\Temp\cc6d032j.s:10782  .debug_str:00000000000000f3 .LASF102
C:\Users\stapi\AppData\Local\Temp\cc6d032j.s:10874  .debug_str:0000000000000360 .LASF103
C:\Users\stapi\AppData\Local\Temp\cc6d032j.s:11040  .debug_str:000000000000083c .LASF104
C:\Users\stapi\AppData\Local\Temp\cc6d032j.s:10930  .debug_str:000000000000055d .LASF105
C:\Users\stapi\AppData\Local\Temp\cc6d032j.s:10982  .debug_str:00000000000006cf .LASF106
C:\Users\stapi\AppData\Local\Temp\cc6d032j.s:10806  .debug_str:000000000000017e .LASF107
C:\Users\stapi\AppData\Local\Temp\cc6d032j.s:11254  .debug_str:0000000000000ec5 .LASF108
C:\Users\stapi\AppData\Local\Temp\cc6d032j.s:11090  .debug_str:00000000000009c0 .LASF109
C:\Users\stapi\AppData\Local\Temp\cc6d032j.s:11078  .debug_str:0000000000000968 .LASF110
C:\Users\stapi\AppData\Local\Temp\cc6d032j.s:11226  .debug_str:0000000000000d5e .LASF111
C:\Users\stapi\AppData\Local\Temp\cc6d032j.s:10952  .debug_str:00000000000005ff .LASF112
C:\Users\stapi\AppData\Local\Temp\cc6d032j.s:11166  .debug_str:0000000000000bbe .LASF113
C:\Users\stapi\AppData\Local\Temp\cc6d032j.s:11288  .debug_str:00000000000010b6 .LASF114
C:\Users\stapi\AppData\Local\Temp\cc6d032j.s:10762  .debug_str:0000000000000052 .LASF115
C:\Users\stapi\AppData\Local\Temp\cc6d032j.s:10888  .debug_str:00000000000003bf .LASF116
C:\Users\stapi\AppData\Local\Temp\cc6d032j.s:11186  .debug_str:0000000000000c54 .LASF117
C:\Users\stapi\AppData\Local\Temp\cc6d032j.s:11274  .debug_str:000000000000104d .LASF118
C:\Users\stapi\AppData\Local\Temp\cc6d032j.s:10820  .debug_str:00000000000001eb .LASF119
C:\Users\stapi\AppData\Local\Temp\cc6d032j.s:10790  .debug_str:000000000000012e .LASF120
C:\Users\stapi\AppData\Local\Temp\cc6d032j.s:10800  .debug_str:0000000000000162 .LASF121
C:\Users\stapi\AppData\Local\Temp\cc6d032j.s:11198  .debug_str:0000000000000ca2 .LASF122
C:\Users\stapi\AppData\Local\Temp\cc6d032j.s:10754  .debug_str:0000000000000017 .LASF123
C:\Users\stapi\AppData\Local\Temp\cc6d032j.s:11028  .debug_str:00000000000007fe .LASF124
C:\Users\stapi\AppData\Local\Temp\cc6d032j.s:10784  .debug_str:0000000000000107 .LASF125
C:\Users\stapi\AppData\Local\Temp\cc6d032j.s:10796  .debug_str:000000000000014b .LASF126
C:\Users\stapi\AppData\Local\Temp\cc6d032j.s:11054  .debug_str:000000000000089a .LASF155
C:\Users\stapi\AppData\Local\Temp\cc6d032j.s:10770  .debug_str:0000000000000099 .LASF127
C:\Users\stapi\AppData\Local\Temp\cc6d032j.s:10842  .debug_str:0000000000000276 .LASF128
C:\Users\stapi\AppData\Local\Temp\cc6d032j.s:11006  .debug_str:0000000000000772 .LASF129
C:\Users\stapi\AppData\Local\Temp\cc6d032j.s:11204  .debug_str:0000000000000cbc .LASF130
C:\Users\stapi\AppData\Local\Temp\cc6d032j.s:10854  .debug_str:00000000000002d2 .LASF131
C:\Users\stapi\AppData\Local\Temp\cc6d032j.s:11146  .debug_str:0000000000000b38 .LASF132
C:\Users\stapi\AppData\Local\Temp\cc6d032j.s:10910  .debug_str:00000000000004d8 .LASF133
C:\Users\stapi\AppData\Local\Temp\cc6d032j.s:11024  .debug_str:00000000000007e5 .LASF134
C:\Users\stapi\AppData\Local\Temp\cc6d032j.s:10792  .debug_str:0000000000000133 .LASF135
C:\Users\stapi\AppData\Local\Temp\cc6d032j.s:11030  .debug_str:0000000000000803 .LASF136
C:\Users\stapi\AppData\Local\Temp\cc6d032j.s:10862  .debug_str:0000000000000313 .LASF137
C:\Users\stapi\AppData\Local\Temp\cc6d032j.s:11276  .debug_str:000000000000105e .LASF138
C:\Users\stapi\AppData\Local\Temp\cc6d032j.s:10920  .debug_str:0000000000000510 .LASF139
C:\Users\stapi\AppData\Local\Temp\cc6d032j.s:10768  .debug_str:000000000000008e .LASF140
C:\Users\stapi\AppData\Local\Temp\cc6d032j.s:11000  .debug_str:000000000000074b .LASF141
C:\Users\stapi\AppData\Local\Temp\cc6d032j.s:11126  .debug_str:0000000000000acb .LASF142
C:\Users\stapi\AppData\Local\Temp\cc6d032j.s:10824  .debug_str:00000000000001ff .LASF143
C:\Users\stapi\AppData\Local\Temp\cc6d032j.s:11258  .debug_str:0000000000000ee3 .LASF144
C:\Users\stapi\AppData\Local\Temp\cc6d032j.s:10774  .debug_str:00000000000000aa .LASF145
C:\Users\stapi\AppData\Local\Temp\cc6d032j.s:10822  .debug_str:00000000000001f3 .LASF146
C:\Users\stapi\AppData\Local\Temp\cc6d032j.s:11070  .debug_str:000000000000092a .LASF147
C:\Users\stapi\AppData\Local\Temp\cc6d032j.s:11098  .debug_str:00000000000009eb .LASF148
C:\Users\stapi\AppData\Local\Temp\cc6d032j.s:10958  .debug_str:000000000000063a .LASF149
C:\Users\stapi\AppData\Local\Temp\cc6d032j.s:10852  .debug_str:00000000000002c3 .LASF150
C:\Users\stapi\AppData\Local\Temp\cc6d032j.s:10942  .debug_str:00000000000005ba .LASF151
C:\Users\stapi\AppData\Local\Temp\cc6d032j.s:10972  .debug_str:00000000000006a0 .LASF152
C:\Users\stapi\AppData\Local\Temp\cc6d032j.s:11004  .debug_str:0000000000000769 .LASF153
C:\Users\stapi\AppData\Local\Temp\cc6d032j.s:10904  .debug_str:00000000000004a7 .LASF154
C:\Users\stapi\AppData\Local\Temp\cc6d032j.s:11266  .debug_str:0000000000000f22 .LASF156
C:\Users\stapi\AppData\Local\Temp\cc6d032j.s:10850  .debug_str:00000000000002b0 .LASF157
C:\Users\stapi\AppData\Local\Temp\cc6d032j.s:11116  .debug_str:0000000000000a87 .LASF158
C:\Users\stapi\AppData\Local\Temp\cc6d032j.s:10858  .debug_str:00000000000002f0 .LASF159
C:\Users\stapi\AppData\Local\Temp\cc6d032j.s:10868  .debug_str:0000000000000338 .LASF160
C:\Users\stapi\AppData\Local\Temp\cc6d032j.s:11142  .debug_str:0000000000000b23 .LASF161
C:\Users\stapi\AppData\Local\Temp\cc6d032j.s:10978  .debug_str:00000000000006b4 .LASF162
C:\Users\stapi\AppData\Local\Temp\cc6d032j.s:11272  .debug_str:0000000000001038 .LASF163
C:\Users\stapi\AppData\Local\Temp\cc6d032j.s:11220  .debug_str:0000000000000d3c .LASF164
C:\Users\stapi\AppData\Local\Temp\cc6d032j.s:11124  .debug_str:0000000000000ac4 .LASF165
C:\Users\stapi\AppData\Local\Temp\cc6d032j.s:11174  .debug_str:0000000000000bf7 .LASF166
C:\Users\stapi\AppData\Local\Temp\cc6d032j.s:11148  .debug_str:0000000000000b48 .LASF167
C:\Users\stapi\AppData\Local\Temp\cc6d032j.s:11162  .debug_str:0000000000000b9b .LASF168
C:\Users\stapi\AppData\Local\Temp\cc6d032j.s:10778  .debug_str:00000000000000c1 .LASF169
C:\Users\stapi\AppData\Local\Temp\cc6d032j.s:11250  .debug_str:0000000000000e97 .LASF170
C:\Users\stapi\AppData\Local\Temp\cc6d032j.s:10848  .debug_str:0000000000000291 .LASF171
C:\Users\stapi\AppData\Local\Temp\cc6d032j.s:10988  .debug_str:00000000000006f5 .LASF172
C:\Users\stapi\AppData\Local\Temp\cc6d032j.s:10966  .debug_str:0000000000000674 .LASF173
C:\Users\stapi\AppData\Local\Temp\cc6d032j.s:10804  .debug_str:0000000000000171 .LASF174
C:\Users\stapi\AppData\Local\Temp\cc6d032j.s:11036  .debug_str:0000000000000829 .LASF175
C:\Users\stapi\AppData\Local\Temp\cc6d032j.s:11238  .debug_str:0000000000000e35 .LASF176
C:\Users\stapi\AppData\Local\Temp\cc6d032j.s:11060  .debug_str:00000000000008cd .LASF177
C:\Users\stapi\AppData\Local\Temp\cc6d032j.s:10866  .debug_str:0000000000000330 .LASF178
C:\Users\stapi\AppData\Local\Temp\cc6d032j.s:11132  .debug_str:0000000000000ae5 .LASF179
C:\Users\stapi\AppData\Local\Temp\cc6d032j.s:11224  .debug_str:0000000000000d53 .LASF180
C:\Users\stapi\AppData\Local\Temp\cc6d032j.s:10890  .debug_str:00000000000003d2 .LASF181
C:\Users\stapi\AppData\Local\Temp\cc6d032j.s:11092  .debug_str:00000000000009ce .LASF182
C:\Users\stapi\AppData\Local\Temp\cc6d032j.s:11290  .debug_str:00000000000010c2 .LASF183
C:\Users\stapi\AppData\Local\Temp\cc6d032j.s:11156  .debug_str:0000000000000b71 .LASF184
C:\Users\stapi\AppData\Local\Temp\cc6d032j.s:11010  .debug_str:000000000000078d .LASF185
C:\Users\stapi\AppData\Local\Temp\cc6d032j.s:11296  .debug_str:00000000000010ed .LASF186
C:\Users\stapi\AppData\Local\Temp\cc6d032j.s:10826  .debug_str:000000000000020d .LASF187
C:\Users\stapi\AppData\Local\Temp\cc6d032j.s:11026  .debug_str:00000000000007f4 .LASF188
C:\Users\stapi\AppData\Local\Temp\cc6d032j.s:11208  .debug_str:0000000000000cd8 .LASF189
C:\Users\stapi\AppData\Local\Temp\cc6d032j.s:11008  .debug_str:000000000000077f .LASF190
C:\Users\stapi\AppData\Local\Temp\cc6d032j.s:11222  .debug_str:0000000000000d45 .LASF191
C:\Users\stapi\AppData\Local\Temp\cc6d032j.s:11294  .debug_str:00000000000010e0 .LASF192
C:\Users\stapi\AppData\Local\Temp\cc6d032j.s:10780  .debug_str:00000000000000e3 .LASF193
C:\Users\stapi\AppData\Local\Temp\cc6d032j.s:11080  .debug_str:0000000000000977 .LASF194
C:\Users\stapi\AppData\Local\Temp\cc6d032j.s:11298  .debug_str:00000000000010fd .LASF195
C:\Users\stapi\AppData\Local\Temp\cc6d032j.s:10884  .debug_str:00000000000003a8 .LASF196
C:\Users\stapi\AppData\Local\Temp\cc6d032j.s:11194  .debug_str:0000000000000c7e .LASF197
C:\Users\stapi\AppData\Local\Temp\cc6d032j.s:11144  .debug_str:0000000000000b32 .LASF198
C:\Users\stapi\AppData\Local\Temp\cc6d032j.s:10760  .debug_str:0000000000000047 .LASF199
C:\Users\stapi\AppData\Local\Temp\cc6d032j.s:10872  .debug_str:000000000000035b .LASF200
C:\Users\stapi\AppData\Local\Temp\cc6d032j.s:10810  .debug_str:00000000000001ab .LASF201
C:\Users\stapi\AppData\Local\Temp\cc6d032j.s:11118  .debug_str:0000000000000a9a .LASF202
C:\Users\stapi\AppData\Local\Temp\cc6d032j.s:10794  .debug_str:0000000000000143 .LASF203
C:\Users\stapi\AppData\Local\Temp\cc6d032j.s:11112  .debug_str:0000000000000a6a .LASF204
C:\Users\stapi\AppData\Local\Temp\cc6d032j.s:11216  .debug_str:0000000000000d17 .LASF205
C:\Users\stapi\AppData\Local\Temp\cc6d032j.s:11020  .debug_str:00000000000007d0 .LASF206
C:\Users\stapi\AppData\Local\Temp\cc6d032j.s:11172  .debug_str:0000000000000be8 .LASF207
C:\Users\stapi\AppData\Local\Temp\cc6d032j.s:10906  .debug_str:00000000000004b5 .LASF208
C:\Users\stapi\AppData\Local\Temp\cc6d032j.s:10816  .debug_str:00000000000001d8 .LASF209
C:\Users\stapi\AppData\Local\Temp\cc6d032j.s:11042  .debug_str:0000000000000846 .LASF210
C:\Users\stapi\AppData\Local\Temp\cc6d032j.s:11284  .debug_str:000000000000109f .LASF211
C:\Users\stapi\AppData\Local\Temp\cc6d032j.s:11068  .debug_str:0000000000000912 .LASF212
C:\Users\stapi\AppData\Local\Temp\cc6d032j.s:10956  .debug_str:0000000000000625 .LASF222
C:\Users\stapi\AppData\Local\Temp\cc6d032j.s:2450   .text.pmksa_cache_reconfig:0000000000000000 .LFB178
C:\Users\stapi\AppData\Local\Temp\cc6d032j.s:2591   .text.pmksa_cache_reconfig:0000000000000092 .LFE178
C:\Users\stapi\AppData\Local\Temp\cc6d032j.s:8772   .debug_loc:0000000000000000 .LLST109
C:\Users\stapi\AppData\Local\Temp\cc6d032j.s:11192  .debug_str:0000000000000c78 .LASF213
C:\Users\stapi\AppData\Local\Temp\cc6d032j.s:8787   .debug_loc:0000000000000029 .LLST110
C:\Users\stapi\AppData\Local\Temp\cc6d032j.s:11240  .debug_str:0000000000000e47 .LASF214
C:\Users\stapi\AppData\Local\Temp\cc6d032j.s:8798   .debug_loc:0000000000000047 .LLST111
C:\Users\stapi\AppData\Local\Temp\cc6d032j.s:10984  .debug_str:00000000000006df .LASF215
C:\Users\stapi\AppData\Local\Temp\cc6d032j.s:8805   .debug_loc:000000000000005a .LLST112
C:\Users\stapi\AppData\Local\Temp\cc6d032j.s:2554   .text.pmksa_cache_reconfig:0000000000000072 .LBB130
C:\Users\stapi\AppData\Local\Temp\cc6d032j.s:2575   .text.pmksa_cache_reconfig:000000000000008c .LBE130
C:\Users\stapi\AppData\Local\Temp\cc6d032j.s:8817   .debug_loc:0000000000000079 .LLST113
C:\Users\stapi\AppData\Local\Temp\cc6d032j.s:8829   .debug_loc:0000000000000098 .LLST114
C:\Users\stapi\AppData\Local\Temp\cc6d032j.s:8841   .debug_loc:00000000000000b8 .LLST115
C:\Users\stapi\AppData\Local\Temp\cc6d032j.s:8853   .debug_loc:00000000000000d7 .LLST116
C:\Users\stapi\AppData\Local\Temp\cc6d032j.s:8860   .debug_loc:00000000000000ea .LLST117
C:\Users\stapi\AppData\Local\Temp\cc6d032j.s:8872   .debug_loc:000000000000010a .LLST118
C:\Users\stapi\AppData\Local\Temp\cc6d032j.s:8891   .debug_loc:0000000000000137 .LLST119
C:\Users\stapi\AppData\Local\Temp\cc6d032j.s:8898   .debug_loc:000000000000014a .LLST120
C:\Users\stapi\AppData\Local\Temp\cc6d032j.s:8911   .debug_loc:000000000000016a .LLST121
C:\Users\stapi\AppData\Local\Temp\cc6d032j.s:8924   .debug_loc:000000000000018b .LLST122
C:\Users\stapi\AppData\Local\Temp\cc6d032j.s:2572   .text.pmksa_cache_reconfig:000000000000008c .LVL242
C:\Users\stapi\AppData\Local\Temp\cc6d032j.s:2478   .text.pmksa_cache_reconfig:000000000000001c .LVL232
C:\Users\stapi\AppData\Local\Temp\cc6d032j.s:10938  .debug_str:000000000000059a .LASF216
C:\Users\stapi\AppData\Local\Temp\cc6d032j.s:2392   .text.pmksa_cache_init:0000000000000000 .LFB177
C:\Users\stapi\AppData\Local\Temp\cc6d032j.s:2443   .text.pmksa_cache_init:0000000000000030 .LFE177
C:\Users\stapi\AppData\Local\Temp\cc6d032j.s:8931   .debug_loc:000000000000019e .LLST105
C:\Users\stapi\AppData\Local\Temp\cc6d032j.s:8942   .debug_loc:00000000000001bc .LLST106
C:\Users\stapi\AppData\Local\Temp\cc6d032j.s:8953   .debug_loc:00000000000001da .LLST107
C:\Users\stapi\AppData\Local\Temp\cc6d032j.s:8964   .debug_loc:00000000000001f8 .LLST108
C:\Users\stapi\AppData\Local\Temp\cc6d032j.s:2416   .text.pmksa_cache_init:000000000000001a .LVL229
C:\Users\stapi\AppData\Local\Temp\cc6d032j.s:11114  .debug_str:0000000000000a76 .LASF217
C:\Users\stapi\AppData\Local\Temp\cc6d032j.s:2375   .text.pmksa_cache_head:0000000000000000 .LFB176
C:\Users\stapi\AppData\Local\Temp\cc6d032j.s:2385   .text.pmksa_cache_head:0000000000000004 .LFE176
C:\Users\stapi\AppData\Local\Temp\cc6d032j.s:8975   .debug_loc:0000000000000216 .LLST104
C:\Users\stapi\AppData\Local\Temp\cc6d032j.s:11154  .debug_str:0000000000000b60 .LASF218
C:\Users\stapi\AppData\Local\Temp\cc6d032j.s:2062   .text.pmksa_cache_list:0000000000000000 .LFB175
C:\Users\stapi\AppData\Local\Temp\cc6d032j.s:2368   .text.pmksa_cache_list:0000000000000158 .LFE175
C:\Users\stapi\AppData\Local\Temp\cc6d032j.s:8989   .debug_loc:0000000000000237 .LLST86
C:\Users\stapi\AppData\Local\Temp\cc6d032j.s:9018   .debug_loc:000000000000027c .LLST87
C:\Users\stapi\AppData\Local\Temp\cc6d032j.s:9037   .debug_loc:00000000000002b0 .LLST88
C:\Users\stapi\AppData\Local\Temp\cc6d032j.s:9070   .debug_loc:0000000000000300 .LLST89
C:\Users\stapi\AppData\Local\Temp\cc6d032j.s:9086   .debug_loc:000000000000032a .LLST90
C:\Users\stapi\AppData\Local\Temp\cc6d032j.s:9113   .debug_loc:0000000000000374 .LLST91
C:\Users\stapi\AppData\Local\Temp\cc6d032j.s:9140   .debug_loc:00000000000003be .LLST92
C:\Users\stapi\AppData\Local\Temp\cc6d032j.s:10840  .debug_str:0000000000000268 .LASF219
C:\Users\stapi\AppData\Local\Temp\cc6d032j.s:9163   .debug_loc:00000000000003fd .LLST93
C:\Users\stapi\AppData\Local\Temp\cc6d032j.s:2125   .text.pmksa_cache_list:0000000000000040 .LBB112
C:\Users\stapi\AppData\Local\Temp\cc6d032j.s:9184   .debug_loc:0000000000000433 .LLST94
C:\Users\stapi\AppData\Local\Temp\cc6d032j.s:9191   .debug_loc:0000000000000446 .LLST95
C:\Users\stapi\AppData\Local\Temp\cc6d032j.s:2192   .text.pmksa_cache_list:0000000000000098 .LBB116
C:\Users\stapi\AppData\Local\Temp\cc6d032j.s:2200   .text.pmksa_cache_list:00000000000000a0 .LBE116
C:\Users\stapi\AppData\Local\Temp\cc6d032j.s:9198   .debug_loc:0000000000000459 .LLST96
C:\Users\stapi\AppData\Local\Temp\cc6d032j.s:9205   .debug_loc:000000000000046c .LLST97
C:\Users\stapi\AppData\Local\Temp\cc6d032j.s:2234   .text.pmksa_cache_list:00000000000000d4 .LBB118
C:\Users\stapi\AppData\Local\Temp\cc6d032j.s:9212   .debug_loc:000000000000047f .LLST98
C:\Users\stapi\AppData\Local\Temp\cc6d032j.s:9223   .debug_loc:000000000000049d .LLST99
C:\Users\stapi\AppData\Local\Temp\cc6d032j.s:2320   .text.pmksa_cache_list:0000000000000122 .LBB122
C:\Users\stapi\AppData\Local\Temp\cc6d032j.s:2328   .text.pmksa_cache_list:000000000000012a .LBE122
C:\Users\stapi\AppData\Local\Temp\cc6d032j.s:9234   .debug_loc:00000000000004bb .LLST100
C:\Users\stapi\AppData\Local\Temp\cc6d032j.s:9241   .debug_loc:00000000000004ce .LLST101
C:\Users\stapi\AppData\Local\Temp\cc6d032j.s:2353   .text.pmksa_cache_list:000000000000014c .LBB124
C:\Users\stapi\AppData\Local\Temp\cc6d032j.s:2361   .text.pmksa_cache_list:0000000000000154 .LBE124
C:\Users\stapi\AppData\Local\Temp\cc6d032j.s:9248   .debug_loc:00000000000004e1 .LLST102
C:\Users\stapi\AppData\Local\Temp\cc6d032j.s:9255   .debug_loc:00000000000004f4 .LLST103
C:\Users\stapi\AppData\Local\Temp\cc6d032j.s:2108   .text.pmksa_cache_list:0000000000000020 .LVL193
C:\Users\stapi\AppData\Local\Temp\cc6d032j.s:2121   .text.pmksa_cache_list:000000000000003e .LVL194
C:\Users\stapi\AppData\Local\Temp\cc6d032j.s:2190   .text.pmksa_cache_list:0000000000000098 .LVL201
C:\Users\stapi\AppData\Local\Temp\cc6d032j.s:2213   .text.pmksa_cache_list:00000000000000b6 .LVL205
C:\Users\stapi\AppData\Local\Temp\cc6d032j.s:2232   .text.pmksa_cache_list:00000000000000d4 .LVL207
C:\Users\stapi\AppData\Local\Temp\cc6d032j.s:2318   .text.pmksa_cache_list:0000000000000122 .LVL217
C:\Users\stapi\AppData\Local\Temp\cc6d032j.s:2351   .text.pmksa_cache_list:000000000000014c .LVL222
C:\Users\stapi\AppData\Local\Temp\cc6d032j.s:10870  .debug_str:0000000000000343 .LASF220
C:\Users\stapi\AppData\Local\Temp\cc6d032j.s:1738   .text.pmksa_cache_set_current:0000000000000000 .LFB174
C:\Users\stapi\AppData\Local\Temp\cc6d032j.s:2033   .text.pmksa_cache_set_current:00000000000001b8 .LFE174
C:\Users\stapi\AppData\Local\Temp\cc6d032j.s:9271   .debug_loc:0000000000000510 .LLST75
C:\Users\stapi\AppData\Local\Temp\cc6d032j.s:9282   .debug_loc:000000000000052e .LLST76
C:\Users\stapi\AppData\Local\Temp\cc6d032j.s:9293   .debug_loc:000000000000054c .LLST77
C:\Users\stapi\AppData\Local\Temp\cc6d032j.s:9333   .debug_loc:00000000000005aa .LLST78
C:\Users\stapi\AppData\Local\Temp\cc6d032j.s:11084  .debug_str:000000000000098f .LASF221
C:\Users\stapi\AppData\Local\Temp\cc6d032j.s:9344   .debug_loc:00000000000005c8 .LLST79
C:\Users\stapi\AppData\Local\Temp\cc6d032j.s:9355   .debug_loc:00000000000005e6 .LLST80
C:\Users\stapi\AppData\Local\Temp\cc6d032j.s:9366   .debug_loc:0000000000000604 .LLST81
C:\Users\stapi\AppData\Local\Temp\cc6d032j.s:1889   .text.pmksa_cache_set_current:00000000000000d4 .LBB108
C:\Users\stapi\AppData\Local\Temp\cc6d032j.s:1898   .text.pmksa_cache_set_current:00000000000000de .LBE108
C:\Users\stapi\AppData\Local\Temp\cc6d032j.s:1904   .text.pmksa_cache_set_current:00000000000000ea .LVL179
C:\Users\stapi\AppData\Local\Temp\cc6d032j.s:1924   .text.pmksa_cache_set_current:0000000000000122 .LVL180
C:\Users\stapi\AppData\Local\Temp\cc6d032j.s:2002   .text.pmksa_cache_set_current:0000000000000198 .LVL187
C:\Users\stapi\AppData\Local\Temp\cc6d032j.s:1842   .text.pmksa_cache_set_current:00000000000000aa .LBB104
C:\Users\stapi\AppData\Local\Temp\cc6d032j.s:9377   .debug_loc:0000000000000622 .LLST82
C:\Users\stapi\AppData\Local\Temp\cc6d032j.s:9388   .debug_loc:0000000000000640 .LLST83
C:\Users\stapi\AppData\Local\Temp\cc6d032j.s:9399   .debug_loc:000000000000065e .LLST84
C:\Users\stapi\AppData\Local\Temp\cc6d032j.s:9410   .debug_loc:000000000000067c .LLST85
C:\Users\stapi\AppData\Local\Temp\cc6d032j.s:1980   .text.pmksa_cache_set_current:0000000000000176 .LVL185
C:\Users\stapi\AppData\Local\Temp\cc6d032j.s:1786   .text.pmksa_cache_set_current:0000000000000034 .LVL169
C:\Users\stapi\AppData\Local\Temp\cc6d032j.s:1797   .text.pmksa_cache_set_current:000000000000004e .LVL170
C:\Users\stapi\AppData\Local\Temp\cc6d032j.s:1813   .text.pmksa_cache_set_current:000000000000007a .LVL171
C:\Users\stapi\AppData\Local\Temp\cc6d032j.s:1825   .text.pmksa_cache_set_current:0000000000000098 .LVL172
C:\Users\stapi\AppData\Local\Temp\cc6d032j.s:1872   .text.pmksa_cache_set_current:00000000000000c8 .LVL176
C:\Users\stapi\AppData\Local\Temp\cc6d032j.s:1945   .text.pmksa_cache_set_current:000000000000013c .LVL182
C:\Users\stapi\AppData\Local\Temp\cc6d032j.s:1960   .text.pmksa_cache_set_current:0000000000000156 .LVL183
C:\Users\stapi\AppData\Local\Temp\cc6d032j.s:2030   .text.pmksa_cache_set_current:00000000000001b6 .LVL188
C:\Users\stapi\AppData\Local\Temp\cc6d032j.s:11046  .debug_str:0000000000000862 .LASF223
C:\Users\stapi\AppData\Local\Temp\cc6d032j.s:1671   .text.pmksa_cache_clear_current:0000000000000000 .LFB173
C:\Users\stapi\AppData\Local\Temp\cc6d032j.s:1709   .text.pmksa_cache_clear_current:0000000000000032 .LFE173
C:\Users\stapi\AppData\Local\Temp\cc6d032j.s:9421   .debug_loc:000000000000069a .LLST74
C:\Users\stapi\AppData\Local\Temp\cc6d032j.s:1695   .text.pmksa_cache_clear_current:0000000000000024 .LVL160
C:\Users\stapi\AppData\Local\Temp\cc6d032j.s:10936  .debug_str:0000000000000582 .LASF224
C:\Users\stapi\AppData\Local\Temp\cc6d032j.s:1645   .text.pmksa_cache_get_current:0000000000000000 .LFB172
C:\Users\stapi\AppData\Local\Temp\cc6d032j.s:1660   .text.pmksa_cache_get_current:0000000000000008 .LFE172
C:\Users\stapi\AppData\Local\Temp\cc6d032j.s:9436   .debug_loc:00000000000006c3 .LLST73
C:\Users\stapi\AppData\Local\Temp\cc6d032j.s:11062  .debug_str:00000000000008d9 .LASF227
C:\Users\stapi\AppData\Local\Temp\cc6d032j.s:10832  .debug_str:0000000000000234 .LASF225
C:\Users\stapi\AppData\Local\Temp\cc6d032j.s:10922  .debug_str:0000000000000521 .LASF226
C:\Users\stapi\AppData\Local\Temp\cc6d032j.s:1389   .text.pmksa_cache_get_opportunistic:0000000000000000 .LFB170
C:\Users\stapi\AppData\Local\Temp\cc6d032j.s:1638   .text.pmksa_cache_get_opportunistic:000000000000013e .LFE170
C:\Users\stapi\AppData\Local\Temp\cc6d032j.s:9450   .debug_loc:00000000000006e4 .LLST61
C:\Users\stapi\AppData\Local\Temp\cc6d032j.s:9461   .debug_loc:0000000000000702 .LLST62
C:\Users\stapi\AppData\Local\Temp\cc6d032j.s:9490   .debug_loc:0000000000000747 .LLST63
C:\Users\stapi\AppData\Local\Temp\cc6d032j.s:9501   .debug_loc:0000000000000765 .LLST64
C:\Users\stapi\AppData\Local\Temp\cc6d032j.s:9530   .debug_loc:00000000000007aa .LLST65
C:\Users\stapi\AppData\Local\Temp\cc6d032j.s:1441   .text.pmksa_cache_get_opportunistic:0000000000000042 .LBB86
C:\Users\stapi\AppData\Local\Temp\cc6d032j.s:1534   .text.pmksa_cache_get_opportunistic:00000000000000b0 .LBB90
C:\Users\stapi\AppData\Local\Temp\cc6d032j.s:9545   .debug_loc:00000000000007d3 .LLST66
C:\Users\stapi\AppData\Local\Temp\cc6d032j.s:9552   .debug_loc:00000000000007e6 .LLST67
C:\Users\stapi\AppData\Local\Temp\cc6d032j.s:9559   .debug_loc:00000000000007f9 .LLST68
C:\Users\stapi\AppData\Local\Temp\cc6d032j.s:9566   .debug_loc:000000000000080c .LLST69
C:\Users\stapi\AppData\Local\Temp\cc6d032j.s:9573   .debug_loc:000000000000081f .LLST70
C:\Users\stapi\AppData\Local\Temp\cc6d032j.s:9580   .debug_loc:0000000000000832 .LLST71
C:\Users\stapi\AppData\Local\Temp\cc6d032j.s:9587   .debug_loc:0000000000000845 .LLST72
C:\Users\stapi\AppData\Local\Temp\cc6d032j.s:1553   .text.pmksa_cache_get_opportunistic:00000000000000c4 .LBB92
C:\Users\stapi\AppData\Local\Temp\cc6d032j.s:1557   .text.pmksa_cache_get_opportunistic:00000000000000c4 .LBE92
C:\Users\stapi\AppData\Local\Temp\cc6d032j.s:1600   .text.pmksa_cache_get_opportunistic:0000000000000102 .LVL152
C:\Users\stapi\AppData\Local\Temp\cc6d032j.s:1504   .text.pmksa_cache_get_opportunistic:000000000000007c .LVL145
C:\Users\stapi\AppData\Local\Temp\cc6d032j.s:1521   .text.pmksa_cache_get_opportunistic:00000000000000ac .LVL146
C:\Users\stapi\AppData\Local\Temp\cc6d032j.s:1633   .text.pmksa_cache_get_opportunistic:000000000000013c .LVL155
C:\Users\stapi\AppData\Local\Temp\cc6d032j.s:1436   .text.pmksa_cache_get_opportunistic:000000000000003e .LVL141
C:\Users\stapi\AppData\Local\Temp\cc6d032j.s:11210  .debug_str:0000000000000ce1 .LASF228
C:\Users\stapi\AppData\Local\Temp\cc6d032j.s:10882  .debug_str:000000000000039e .LASF229
C:\Users\stapi\AppData\Local\Temp\cc6d032j.s:11286  .debug_str:00000000000010ac .LASF230
C:\Users\stapi\AppData\Local\Temp\cc6d032j.s:10878  .debug_str:0000000000000378 .LASF231
C:\Users\stapi\AppData\Local\Temp\cc6d032j.s:10828  .debug_str:0000000000000217 .LASF232
C:\Users\stapi\AppData\Local\Temp\cc6d032j.s:11002  .debug_str:0000000000000759 .LASF233
C:\Users\stapi\AppData\Local\Temp\cc6d032j.s:126    .text.pmksa_cache_get:0000000000000000 .LFB168
C:\Users\stapi\AppData\Local\Temp\cc6d032j.s:209    .text.pmksa_cache_get:0000000000000062 .LFE168
C:\Users\stapi\AppData\Local\Temp\cc6d032j.s:9599   .debug_loc:0000000000000864 .LLST9
C:\Users\stapi\AppData\Local\Temp\cc6d032j.s:9613   .debug_loc:0000000000000885 .LLST10
C:\Users\stapi\AppData\Local\Temp\cc6d032j.s:9624   .debug_loc:00000000000008a3 .LLST11
C:\Users\stapi\AppData\Local\Temp\cc6d032j.s:9635   .debug_loc:00000000000008c1 .LLST12
C:\Users\stapi\AppData\Local\Temp\cc6d032j.s:9646   .debug_loc:00000000000008df .LLST13
C:\Users\stapi\AppData\Local\Temp\cc6d032j.s:189    .text.pmksa_cache_get:0000000000000048 .LVL14
C:\Users\stapi\AppData\Local\Temp\cc6d032j.s:204    .text.pmksa_cache_get:000000000000005e .LVL16
C:\Users\stapi\AppData\Local\Temp\cc6d032j.s:11102  .debug_str:0000000000000a13 .LASF234
C:\Users\stapi\AppData\Local\Temp\cc6d032j.s:1308   .text.pmksa_cache_deinit:0000000000000000 .LFB167
C:\Users\stapi\AppData\Local\Temp\cc6d032j.s:1372   .text.pmksa_cache_deinit:0000000000000040 .LFE167
C:\Users\stapi\AppData\Local\Temp\cc6d032j.s:9657   .debug_loc:00000000000008fd .LLST58
C:\Users\stapi\AppData\Local\Temp\cc6d032j.s:9672   .debug_loc:0000000000000926 .LLST59
C:\Users\stapi\AppData\Local\Temp\cc6d032j.s:9687   .debug_loc:000000000000094f .LLST60
C:\Users\stapi\AppData\Local\Temp\cc6d032j.s:1338   .text.pmksa_cache_deinit:000000000000001e .LVL129
C:\Users\stapi\AppData\Local\Temp\cc6d032j.s:1342   .text.pmksa_cache_deinit:0000000000000028 .LVL130
C:\Users\stapi\AppData\Local\Temp\cc6d032j.s:1360   .text.pmksa_cache_deinit:000000000000003a .LVL133
C:\Users\stapi\AppData\Local\Temp\cc6d032j.s:10946  .debug_str:00000000000005cf .LASF235
C:\Users\stapi\AppData\Local\Temp\cc6d032j.s:596    .text.pmksa_cache_flush:0000000000000000 .LFB166
C:\Users\stapi\AppData\Local\Temp\cc6d032j.s:748    .text.pmksa_cache_flush:00000000000000b8 .LFE166
C:\Users\stapi\AppData\Local\Temp\cc6d032j.s:9694   .debug_loc:0000000000000962 .LLST24
C:\Users\stapi\AppData\Local\Temp\cc6d032j.s:9705   .debug_loc:0000000000000980 .LLST25
C:\Users\stapi\AppData\Local\Temp\cc6d032j.s:9716   .debug_loc:000000000000099e .LLST26
C:\Users\stapi\AppData\Local\Temp\cc6d032j.s:9727   .debug_loc:00000000000009bc .LLST27
C:\Users\stapi\AppData\Local\Temp\cc6d032j.s:10798  .debug_str:0000000000000154 .LASF236
C:\Users\stapi\AppData\Local\Temp\cc6d032j.s:9738   .debug_loc:00000000000009da .LLST28
C:\Users\stapi\AppData\Local\Temp\cc6d032j.s:9752   .debug_loc:00000000000009fb .LLST29
C:\Users\stapi\AppData\Local\Temp\cc6d032j.s:9776   .debug_loc:0000000000000a3b .LLST30
C:\Users\stapi\AppData\Local\Temp\cc6d032j.s:9796   .debug_loc:0000000000000a70 .LLST31
C:\Users\stapi\AppData\Local\Temp\cc6d032j.s:11152  .debug_str:0000000000000b58 .LASF237
C:\Users\stapi\AppData\Local\Temp\cc6d032j.s:9803   .debug_loc:0000000000000a83 .LLST32
C:\Users\stapi\AppData\Local\Temp\cc6d032j.s:643    .text.pmksa_cache_flush:000000000000002c .LVL61
C:\Users\stapi\AppData\Local\Temp\cc6d032j.s:685    .text.pmksa_cache_flush:000000000000006c .LVL62
C:\Users\stapi\AppData\Local\Temp\cc6d032j.s:705    .text.pmksa_cache_flush:0000000000000088 .LVL65
C:\Users\stapi\AppData\Local\Temp\cc6d032j.s:725    .text.pmksa_cache_flush:00000000000000a4 .LVL69
C:\Users\stapi\AppData\Local\Temp\cc6d032j.s:10834  .debug_str:000000000000023d .LASF238
C:\Users\stapi\AppData\Local\Temp\cc6d032j.s:768    .text.pmksa_cache_add_entry:0000000000000000 .LFB165
C:\Users\stapi\AppData\Local\Temp\cc6d032j.s:1097   .text.pmksa_cache_add_entry:00000000000001ec .LFE165
C:\Users\stapi\AppData\Local\Temp\cc6d032j.s:9815   .debug_loc:0000000000000aa2 .LLST33
C:\Users\stapi\AppData\Local\Temp\cc6d032j.s:9826   .debug_loc:0000000000000ac0 .LLST34
C:\Users\stapi\AppData\Local\Temp\cc6d032j.s:9837   .debug_loc:0000000000000ade .LLST35
C:\Users\stapi\AppData\Local\Temp\cc6d032j.s:9895   .debug_loc:0000000000000b78 .LLST36
C:\Users\stapi\AppData\Local\Temp\cc6d032j.s:1019   .text.pmksa_cache_add_entry:000000000000019a .LBB70
C:\Users\stapi\AppData\Local\Temp\cc6d032j.s:1047   .text.pmksa_cache_add_entry:00000000000001c0 .LBE70
C:\Users\stapi\AppData\Local\Temp\cc6d032j.s:9944   .debug_loc:0000000000000bfb .LLST37
C:\Users\stapi\AppData\Local\Temp\cc6d032j.s:9951   .debug_loc:0000000000000c0e .LLST38
C:\Users\stapi\AppData\Local\Temp\cc6d032j.s:9968   .debug_loc:0000000000000c3a .LLST39
C:\Users\stapi\AppData\Local\Temp\cc6d032j.s:9976   .debug_loc:0000000000000c4f .LLST40
C:\Users\stapi\AppData\Local\Temp\cc6d032j.s:9988   .debug_loc:0000000000000c6f .LLST41
C:\Users\stapi\AppData\Local\Temp\cc6d032j.s:9996   .debug_loc:0000000000000c84 .LLST42
C:\Users\stapi\AppData\Local\Temp\cc6d032j.s:10015  .debug_loc:0000000000000cb1 .LLST43
C:\Users\stapi\AppData\Local\Temp\cc6d032j.s:10022  .debug_loc:0000000000000cc4 .LLST44
C:\Users\stapi\AppData\Local\Temp\cc6d032j.s:10035  .debug_loc:0000000000000ce4 .LLST45
C:\Users\stapi\AppData\Local\Temp\cc6d032j.s:10044  .debug_loc:0000000000000cfa .LLST46
C:\Users\stapi\AppData\Local\Temp\cc6d032j.s:1042   .text.pmksa_cache_add_entry:00000000000001be .LVL99
C:\Users\stapi\AppData\Local\Temp\cc6d032j.s:807    .text.pmksa_cache_add_entry:000000000000002c .LVL75
C:\Users\stapi\AppData\Local\Temp\cc6d032j.s:820    .text.pmksa_cache_add_entry:000000000000004a .LVL76
C:\Users\stapi\AppData\Local\Temp\cc6d032j.s:828    .text.pmksa_cache_add_entry:000000000000005e .LVL77
C:\Users\stapi\AppData\Local\Temp\cc6d032j.s:836    .text.pmksa_cache_add_entry:0000000000000072 .LVL78
C:\Users\stapi\AppData\Local\Temp\cc6d032j.s:840    .text.pmksa_cache_add_entry:000000000000007c .LVL79
C:\Users\stapi\AppData\Local\Temp\cc6d032j.s:873    .text.pmksa_cache_add_entry:00000000000000a4 .LVL81
C:\Users\stapi\AppData\Local\Temp\cc6d032j.s:885    .text.pmksa_cache_add_entry:00000000000000c0 .LVL82
C:\Users\stapi\AppData\Local\Temp\cc6d032j.s:892    .text.pmksa_cache_add_entry:00000000000000ce .LVL83
C:\Users\stapi\AppData\Local\Temp\cc6d032j.s:942    .text.pmksa_cache_add_entry:0000000000000122 .LVL88
C:\Users\stapi\AppData\Local\Temp\cc6d032j.s:948    .text.pmksa_cache_add_entry:0000000000000130 .LVL89
C:\Users\stapi\AppData\Local\Temp\cc6d032j.s:977    .text.pmksa_cache_add_entry:0000000000000148 .LVL92
C:\Users\stapi\AppData\Local\Temp\cc6d032j.s:1001   .text.pmksa_cache_add_entry:0000000000000180 .LVL93
C:\Users\stapi\AppData\Local\Temp\cc6d032j.s:11300  .debug_str:0000000000001105 .LASF239
C:\Users\stapi\AppData\Local\Temp\cc6d032j.s:1104   .text.pmksa_cache_add:0000000000000000 .LFB164
C:\Users\stapi\AppData\Local\Temp\cc6d032j.s:1301   .text.pmksa_cache_add:0000000000000100 .LFE164
C:\Users\stapi\AppData\Local\Temp\cc6d032j.s:10051  .debug_loc:0000000000000d0d .LLST47
C:\Users\stapi\AppData\Local\Temp\cc6d032j.s:10073  .debug_loc:0000000000000d44 .LLST48
C:\Users\stapi\AppData\Local\Temp\cc6d032j.s:10095  .debug_loc:0000000000000d7b .LLST49
C:\Users\stapi\AppData\Local\Temp\cc6d032j.s:10117  .debug_loc:0000000000000db2 .LLST50
C:\Users\stapi\AppData\Local\Temp\cc6d032j.s:10139  .debug_loc:0000000000000de9 .LLST51
C:\Users\stapi\AppData\Local\Temp\cc6d032j.s:10164  .debug_loc:0000000000000e23 .LLST52
C:\Users\stapi\AppData\Local\Temp\cc6d032j.s:10178  .debug_loc:0000000000000e44 .LLST53
C:\Users\stapi\AppData\Local\Temp\cc6d032j.s:10200  .debug_loc:0000000000000e7b .LLST54
C:\Users\stapi\AppData\Local\Temp\cc6d032j.s:10222  .debug_loc:0000000000000eb2 .LLST55
C:\Users\stapi\AppData\Local\Temp\cc6d032j.s:10240  .debug_loc:0000000000000ede .LLST56
C:\Users\stapi\AppData\Local\Temp\cc6d032j.s:10258  .debug_loc:0000000000000f0a .LLST57
C:\Users\stapi\AppData\Local\Temp\cc6d032j.s:1161   .text.pmksa_cache_add:0000000000000022 .LBB72
C:\Users\stapi\AppData\Local\Temp\cc6d032j.s:1192   .text.pmksa_cache_add:0000000000000048 .LVL116
C:\Users\stapi\AppData\Local\Temp\cc6d032j.s:1203   .text.pmksa_cache_add:000000000000005a .LVL118
C:\Users\stapi\AppData\Local\Temp\cc6d032j.s:1215   .text.pmksa_cache_add:0000000000000070 .LVL119
C:\Users\stapi\AppData\Local\Temp\cc6d032j.s:1220   .text.pmksa_cache_add:000000000000007a .LVL120
C:\Users\stapi\AppData\Local\Temp\cc6d032j.s:1263   .text.pmksa_cache_add:00000000000000c2 .LVL121
C:\Users\stapi\AppData\Local\Temp\cc6d032j.s:1270   .text.pmksa_cache_add:00000000000000d2 .LVL122
C:\Users\stapi\AppData\Local\Temp\cc6d032j.s:1282   .text.pmksa_cache_add:00000000000000e2 .LVL123
C:\Users\stapi\AppData\Local\Temp\cc6d032j.s:1298   .text.pmksa_cache_add:00000000000000fe .LVL125
C:\Users\stapi\AppData\Local\Temp\cc6d032j.s:10990  .debug_str:00000000000006fb .LASF246
C:\Users\stapi\AppData\Local\Temp\cc6d032j.s:10756  .debug_str:000000000000001f .LASF242
C:\Users\stapi\AppData\Local\Temp\cc6d032j.s:13     .text.pmksa_cache_reauth:0000000000000000 .LFB162
C:\Users\stapi\AppData\Local\Temp\cc6d032j.s:30     .text.pmksa_cache_reauth:0000000000000008 .LFE162
C:\Users\stapi\AppData\Local\Temp\cc6d032j.s:10802  .debug_str:0000000000000167 .LASF240
C:\Users\stapi\AppData\Local\Temp\cc6d032j.s:11110  .debug_str:0000000000000a5e .LASF241
C:\Users\stapi\AppData\Local\Temp\cc6d032j.s:10902  .debug_str:0000000000000494 .LASF243
C:\Users\stapi\AppData\Local\Temp\cc6d032j.s:421    .text.pmksa_cache_expire:0000000000000000 .LFB161
C:\Users\stapi\AppData\Local\Temp\cc6d032j.s:585    .text.pmksa_cache_expire:00000000000000ce .LFE161
C:\Users\stapi\AppData\Local\Temp\cc6d032j.s:10276  .debug_loc:0000000000000f36 .LLST18
C:\Users\stapi\AppData\Local\Temp\cc6d032j.s:10287  .debug_loc:0000000000000f54 .LLST19
C:\Users\stapi\AppData\Local\Temp\cc6d032j.s:10301  .debug_loc:0000000000000f75 .LLST20
C:\Users\stapi\AppData\Local\Temp\cc6d032j.s:10312  .debug_loc:0000000000000f93 .LLST21
C:\Users\stapi\AppData\Local\Temp\cc6d032j.s:10332  .debug_loc:0000000000000fc8 .LLST22
C:\Users\stapi\AppData\Local\Temp\cc6d032j.s:10339  .debug_loc:0000000000000fdb .LLST23
C:\Users\stapi\AppData\Local\Temp\cc6d032j.s:449    .text.pmksa_cache_expire:000000000000000e .LBB62
C:\Users\stapi\AppData\Local\Temp\cc6d032j.s:459    .text.pmksa_cache_expire:000000000000001a .LVL44
C:\Users\stapi\AppData\Local\Temp\cc6d032j.s:485    .text.pmksa_cache_expire:000000000000003c .LVL46
C:\Users\stapi\AppData\Local\Temp\cc6d032j.s:519    .text.pmksa_cache_expire:0000000000000056 .LVL48
C:\Users\stapi\AppData\Local\Temp\cc6d032j.s:532    .text.pmksa_cache_expire:000000000000007e .LVL49
C:\Users\stapi\AppData\Local\Temp\cc6d032j.s:553    .text.pmksa_cache_expire:00000000000000aa .LVL51
C:\Users\stapi\AppData\Local\Temp\cc6d032j.s:573    .text.pmksa_cache_expire:00000000000000c6 .LVL54
C:\Users\stapi\AppData\Local\Temp\cc6d032j.s:11218  .debug_str:0000000000000d25 .LASF244
C:\Users\stapi\AppData\Local\Temp\cc6d032j.s:36     .text.pmksa_cache_free_entry:0000000000000000 .LFB160
C:\Users\stapi\AppData\Local\Temp\cc6d032j.s:119    .text.pmksa_cache_free_entry:000000000000005a .LFE160
C:\Users\stapi\AppData\Local\Temp\cc6d032j.s:10363  .debug_loc:000000000000101b .LLST0
C:\Users\stapi\AppData\Local\Temp\cc6d032j.s:10374  .debug_loc:0000000000001039 .LLST1
C:\Users\stapi\AppData\Local\Temp\cc6d032j.s:11190  .debug_str:0000000000000c71 .LASF245
C:\Users\stapi\AppData\Local\Temp\cc6d032j.s:10385  .debug_loc:0000000000001057 .LLST2
C:\Users\stapi\AppData\Local\Temp\cc6d032j.s:72     .text.pmksa_cache_free_entry:000000000000002c .LBB44
C:\Users\stapi\AppData\Local\Temp\cc6d032j.s:86     .text.pmksa_cache_free_entry:0000000000000034 .LBE44
C:\Users\stapi\AppData\Local\Temp\cc6d032j.s:10396  .debug_loc:0000000000001075 .LLST3
C:\Users\stapi\AppData\Local\Temp\cc6d032j.s:10408  .debug_loc:0000000000001094 .LLST4
C:\Users\stapi\AppData\Local\Temp\cc6d032j.s:10415  .debug_loc:00000000000010a7 .LLST5
C:\Users\stapi\AppData\Local\Temp\cc6d032j.s:10428  .debug_loc:00000000000010c7 .LLST6
C:\Users\stapi\AppData\Local\Temp\cc6d032j.s:10441  .debug_loc:00000000000010e8 .LLST7
C:\Users\stapi\AppData\Local\Temp\cc6d032j.s:84     .text.pmksa_cache_free_entry:0000000000000034 .LVL8
C:\Users\stapi\AppData\Local\Temp\cc6d032j.s:102    .text.pmksa_cache_free_entry:0000000000000044 .LBB46
C:\Users\stapi\AppData\Local\Temp\cc6d032j.s:110    .text.pmksa_cache_free_entry:0000000000000052 .LBE46
C:\Users\stapi\AppData\Local\Temp\cc6d032j.s:10448  .debug_loc:00000000000010fb .LLST8
C:\Users\stapi\AppData\Local\Temp\cc6d032j.s:108    .text.pmksa_cache_free_entry:0000000000000052 .LVL10
C:\Users\stapi\AppData\Local\Temp\cc6d032j.s:100    .text.pmksa_cache_free_entry:0000000000000044 .LVL9
C:\Users\stapi\AppData\Local\Temp\cc6d032j.s:11262  .debug_str:0000000000000f04 .LASF247
C:\Users\stapi\AppData\Local\Temp\cc6d032j.s:10954  .debug_str:0000000000000611 .LASF248
C:\Users\stapi\AppData\Local\Temp\cc6d032j.s:11134  .debug_str:0000000000000aec .LASF249
C:\Users\stapi\AppData\Local\Temp\cc6d032j.s:11160  .debug_str:0000000000000b8e .LASF250
C:\Users\stapi\AppData\Local\Temp\cc6d032j.s:10916  .debug_str:00000000000004f3 .LASF251
C:\Users\stapi\AppData\Local\Temp\cc6d032j.s:10934  .debug_str:0000000000000570 .LASF252
C:\Users\stapi\AppData\Local\Temp\cc6d032j.s:11058  .debug_str:00000000000008b5 .LASF253
C:\Users\stapi\AppData\Local\Temp\cc6d032j.s:11242  .debug_str:0000000000000e51 .LASF254
C:\Users\stapi\AppData\Local\Temp\cc6d032j.s:11244  .debug_str:0000000000000e66 .LASF255
C:\Users\stapi\AppData\Local\Temp\cc6d032j.s:11034  .debug_str:0000000000000818 .LASF256
C:\Users\stapi\AppData\Local\Temp\cc6d032j.s:10968  .debug_str:0000000000000684 .LASF257
C:\Users\stapi\AppData\Local\Temp\cc6d032j.s:11048  .debug_str:000000000000087c .LASF258
C:\Users\stapi\AppData\Local\Temp\cc6d032j.s:215    .text.pmksa_cache_set_expiration:0000000000000000 .LFB163
C:\Users\stapi\AppData\Local\Temp\cc6d032j.s:408    .text.pmksa_cache_set_expiration:00000000000000ec .LFE163
C:\Users\stapi\AppData\Local\Temp\cc6d032j.s:10455  .debug_loc:000000000000110e .LLST14
C:\Users\stapi\AppData\Local\Temp\cc6d032j.s:255    .text.pmksa_cache_set_expiration:0000000000000038 .LBB54
C:\Users\stapi\AppData\Local\Temp\cc6d032j.s:10466  .debug_loc:000000000000112c .LLST15
C:\Users\stapi\AppData\Local\Temp\cc6d032j.s:10477  .debug_loc:000000000000114a .LLST16
C:\Users\stapi\AppData\Local\Temp\cc6d032j.s:10576  .debug_loc:00000000000011fb .LLST17
C:\Users\stapi\AppData\Local\Temp\cc6d032j.s:275    .text.pmksa_cache_set_expiration:000000000000004e .LBB56
C:\Users\stapi\AppData\Local\Temp\cc6d032j.s:285    .text.pmksa_cache_set_expiration:0000000000000058 .LBE56
C:\Users\stapi\AppData\Local\Temp\cc6d032j.s:321    .text.pmksa_cache_set_expiration:0000000000000090 .LBB58
C:\Users\stapi\AppData\Local\Temp\cc6d032j.s:331    .text.pmksa_cache_set_expiration:000000000000009a .LBE58
C:\Users\stapi\AppData\Local\Temp\cc6d032j.s:260    .text.pmksa_cache_set_expiration:0000000000000042 .LVL22
C:\Users\stapi\AppData\Local\Temp\cc6d032j.s:300    .text.pmksa_cache_set_expiration:0000000000000072 .LVL26
C:\Users\stapi\AppData\Local\Temp\cc6d032j.s:315    .text.pmksa_cache_set_expiration:000000000000008e .LVL27
C:\Users\stapi\AppData\Local\Temp\cc6d032j.s:354    .text.pmksa_cache_set_expiration:00000000000000ba .LVL32
C:\Users\stapi\AppData\Local\Temp\cc6d032j.s:242    .text.pmksa_cache_set_expiration:0000000000000020 .LVL19
C:\Users\stapi\AppData\Local\Temp\cc6d032j.s:249    .text.pmksa_cache_set_expiration:0000000000000034 .LVL20
C:\Users\stapi\AppData\Local\Temp\cc6d032j.s:10940  .debug_str:00000000000005ab .LASF259
C:\Users\stapi\AppData\Local\Temp\cc6d032j.s:10838  .debug_str:000000000000025e .LASF260
C:\Users\stapi\AppData\Local\Temp\cc6d032j.s:10876  .debug_str:000000000000036c .LASF261
C:\Users\stapi\AppData\Local\Temp\cc6d032j.s:11074  .debug_str:0000000000000945 .LASF262
C:\Users\stapi\AppData\Local\Temp\cc6d032j.s:11140  .debug_str:0000000000000b18 .LASF263
C:\Users\stapi\AppData\Local\Temp\cc6d032j.s:11158  .debug_str:0000000000000b82 .LASF264
C:\Users\stapi\AppData\Local\Temp\cc6d032j.s:11206  .debug_str:0000000000000cce .LASF265
C:\Users\stapi\AppData\Local\Temp\cc6d032j.s:10892  .debug_str:00000000000003dd .LASF266
C:\Users\stapi\AppData\Local\Temp\cc6d032j.s:10766  .debug_str:000000000000007e .LASF267
C:\Users\stapi\AppData\Local\Temp\cc6d032j.s:10772  .debug_str:00000000000000a0 .LASF268
C:\Users\stapi\AppData\Local\Temp\cc6d032j.s:11086  .debug_str:00000000000009a1 .LASF269
C:\Users\stapi\AppData\Local\Temp\cc6d032j.s:11032  .debug_str:0000000000000809 .LASF270
C:\Users\stapi\AppData\Local\Temp\cc6d032j.s:10860  .debug_str:00000000000002fc .LASF271
C:\Users\stapi\AppData\Local\Temp\cc6d032j.s:11252  .debug_str:0000000000000eb0 .LASF272
C:\Users\stapi\AppData\Local\Temp\cc6d032j.s:2453   .text.pmksa_cache_reconfig:0000000000000000 .LVL230
C:\Users\stapi\AppData\Local\Temp\cc6d032j.s:2476   .text.pmksa_cache_reconfig:0000000000000014 .LVL231
C:\Users\stapi\AppData\Local\Temp\cc6d032j.s:2582   .text.pmksa_cache_reconfig:0000000000000090 .LVL244
C:\Users\stapi\AppData\Local\Temp\cc6d032j.s:2482   .text.pmksa_cache_reconfig:000000000000001e .LVL233
C:\Users\stapi\AppData\Local\Temp\cc6d032j.s:2491   .text.pmksa_cache_reconfig:0000000000000024 .LVL234
C:\Users\stapi\AppData\Local\Temp\cc6d032j.s:2503   .text.pmksa_cache_reconfig:000000000000002e .LVL235
C:\Users\stapi\AppData\Local\Temp\cc6d032j.s:2523   .text.pmksa_cache_reconfig:0000000000000044 .LVL236
C:\Users\stapi\AppData\Local\Temp\cc6d032j.s:2531   .text.pmksa_cache_reconfig:0000000000000050 .LVL237
C:\Users\stapi\AppData\Local\Temp\cc6d032j.s:2570   .text.pmksa_cache_reconfig:000000000000008a .LVL241
C:\Users\stapi\AppData\Local\Temp\cc6d032j.s:2553   .text.pmksa_cache_reconfig:0000000000000072 .LVL238
C:\Users\stapi\AppData\Local\Temp\cc6d032j.s:2563   .text.pmksa_cache_reconfig:000000000000007a .LVL239
C:\Users\stapi\AppData\Local\Temp\cc6d032j.s:2566   .text.pmksa_cache_reconfig:0000000000000080 .LVL240
C:\Users\stapi\AppData\Local\Temp\cc6d032j.s:2395   .text.pmksa_cache_init:0000000000000000 .LVL227
C:\Users\stapi\AppData\Local\Temp\cc6d032j.s:2409   .text.pmksa_cache_init:000000000000000c .LVL228
C:\Users\stapi\AppData\Local\Temp\cc6d032j.s:2378   .text.pmksa_cache_head:0000000000000000 .LVL225
C:\Users\stapi\AppData\Local\Temp\cc6d032j.s:2382   .text.pmksa_cache_head:0000000000000002 .LVL226
C:\Users\stapi\AppData\Local\Temp\cc6d032j.s:2065   .text.pmksa_cache_list:0000000000000000 .LVL189
C:\Users\stapi\AppData\Local\Temp\cc6d032j.s:2106   .text.pmksa_cache_list:0000000000000018 .LVL192
C:\Users\stapi\AppData\Local\Temp\cc6d032j.s:2143   .text.pmksa_cache_list:000000000000004c .LVL196
C:\Users\stapi\AppData\Local\Temp\cc6d032j.s:2265   .text.pmksa_cache_list:00000000000000e6 .LVL210
C:\Users\stapi\AppData\Local\Temp\cc6d032j.s:2289   .text.pmksa_cache_list:0000000000000100 .LVL213
C:\Users\stapi\AppData\Local\Temp\cc6d032j.s:2283   .text.pmksa_cache_list:00000000000000f6 .LVL212
C:\Users\stapi\AppData\Local\Temp\cc6d032j.s:2146   .text.pmksa_cache_list:000000000000004e .LVL197
C:\Users\stapi\AppData\Local\Temp\cc6d032j.s:2150   .text.pmksa_cache_list:0000000000000050 .LVL198
C:\Users\stapi\AppData\Local\Temp\cc6d032j.s:2164   .text.pmksa_cache_list:0000000000000062 .LVL199
C:\Users\stapi\AppData\Local\Temp\cc6d032j.s:2246   .text.pmksa_cache_list:00000000000000dc .LVL209
C:\Users\stapi\AppData\Local\Temp\cc6d032j.s:2123   .text.pmksa_cache_list:0000000000000040 .LVL195
C:\Users\stapi\AppData\Local\Temp\cc6d032j.s:2211   .text.pmksa_cache_list:00000000000000ae .LVL204
C:\Users\stapi\AppData\Local\Temp\cc6d032j.s:2239   .text.pmksa_cache_list:00000000000000d8 .LVL208
C:\Users\stapi\AppData\Local\Temp\cc6d032j.s:2316   .text.pmksa_cache_list:000000000000011a .LVL216
C:\Users\stapi\AppData\Local\Temp\cc6d032j.s:2349   .text.pmksa_cache_list:0000000000000144 .LVL221
C:\Users\stapi\AppData\Local\Temp\cc6d032j.s:2089   .text.pmksa_cache_list:0000000000000010 .LVL190
C:\Users\stapi\AppData\Local\Temp\cc6d032j.s:2332   .text.pmksa_cache_list:000000000000012c .LVL219
C:\Users\stapi\AppData\Local\Temp\cc6d032j.s:2335   .text.pmksa_cache_list:000000000000012e .LVL220
C:\Users\stapi\AppData\Local\Temp\cc6d032j.s:2103   .text.pmksa_cache_list:0000000000000016 .LVL191
C:\Users\stapi\AppData\Local\Temp\cc6d032j.s:2198   .text.pmksa_cache_list:00000000000000a0 .LVL202
C:\Users\stapi\AppData\Local\Temp\cc6d032j.s:2295   .text.pmksa_cache_list:0000000000000104 .LVL214
C:\Users\stapi\AppData\Local\Temp\cc6d032j.s:2326   .text.pmksa_cache_list:000000000000012a .LVL218
C:\Users\stapi\AppData\Local\Temp\cc6d032j.s:2359   .text.pmksa_cache_list:0000000000000154 .LVL223
C:\Users\stapi\AppData\Local\Temp\cc6d032j.s:1741   .text.pmksa_cache_set_current:0000000000000000 .LVL162
C:\Users\stapi\AppData\Local\Temp\cc6d032j.s:1780   .text.pmksa_cache_set_current:0000000000000028 .LVL168
C:\Users\stapi\AppData\Local\Temp\cc6d032j.s:1760   .text.pmksa_cache_set_current:0000000000000012 .LVL163
C:\Users\stapi\AppData\Local\Temp\cc6d032j.s:1777   .text.pmksa_cache_set_current:0000000000000022 .LVL167
C:\Users\stapi\AppData\Local\Temp\cc6d032j.s:1841   .text.pmksa_cache_set_current:00000000000000aa .LVL173
C:\Users\stapi\AppData\Local\Temp\cc6d032j.s:1860   .text.pmksa_cache_set_current:00000000000000b6 .LVL175
C:\Users\stapi\AppData\Local\Temp\cc6d032j.s:1878   .text.pmksa_cache_set_current:00000000000000ce .LVL177
C:\Users\stapi\AppData\Local\Temp\cc6d032j.s:1935   .text.pmksa_cache_set_current:000000000000012a .LVL181
C:\Users\stapi\AppData\Local\Temp\cc6d032j.s:1967   .text.pmksa_cache_set_current:000000000000015e .LVL184
C:\Users\stapi\AppData\Local\Temp\cc6d032j.s:1775   .text.pmksa_cache_set_current:0000000000000020 .LVL166
C:\Users\stapi\AppData\Local\Temp\cc6d032j.s:1773   .text.pmksa_cache_set_current:000000000000001e .LVL165
C:\Users\stapi\AppData\Local\Temp\cc6d032j.s:1984   .text.pmksa_cache_set_current:0000000000000178 .LVL186
C:\Users\stapi\AppData\Local\Temp\cc6d032j.s:1674   .text.pmksa_cache_clear_current:0000000000000000 .LVL158
C:\Users\stapi\AppData\Local\Temp\cc6d032j.s:1693   .text.pmksa_cache_clear_current:000000000000001c .LVL159
C:\Users\stapi\AppData\Local\Temp\cc6d032j.s:1705   .text.pmksa_cache_clear_current:0000000000000030 .LVL161
C:\Users\stapi\AppData\Local\Temp\cc6d032j.s:1648   .text.pmksa_cache_get_current:0000000000000000 .LVL156
C:\Users\stapi\AppData\Local\Temp\cc6d032j.s:1655   .text.pmksa_cache_get_current:0000000000000006 .LVL157
C:\Users\stapi\AppData\Local\Temp\cc6d032j.s:1392   .text.pmksa_cache_get_opportunistic:0000000000000000 .LVL135
C:\Users\stapi\AppData\Local\Temp\cc6d032j.s:1434   .text.pmksa_cache_get_opportunistic:0000000000000036 .LVL140
C:\Users\stapi\AppData\Local\Temp\cc6d032j.s:1421   .text.pmksa_cache_get_opportunistic:000000000000002a .LVL138
C:\Users\stapi\AppData\Local\Temp\cc6d032j.s:1457   .text.pmksa_cache_get_opportunistic:0000000000000050 .LVL142
C:\Users\stapi\AppData\Local\Temp\cc6d032j.s:1474   .text.pmksa_cache_get_opportunistic:000000000000005c .LVL143
C:\Users\stapi\AppData\Local\Temp\cc6d032j.s:1550   .text.pmksa_cache_get_opportunistic:00000000000000c4 .LVL150
C:\Users\stapi\AppData\Local\Temp\cc6d032j.s:1416   .text.pmksa_cache_get_opportunistic:0000000000000024 .LVL137
C:\Users\stapi\AppData\Local\Temp\cc6d032j.s:1414   .text.pmksa_cache_get_opportunistic:0000000000000020 .LVL136
C:\Users\stapi\AppData\Local\Temp\cc6d032j.s:1546   .text.pmksa_cache_get_opportunistic:00000000000000c0 .LVL149
C:\Users\stapi\AppData\Local\Temp\cc6d032j.s:1424   .text.pmksa_cache_get_opportunistic:000000000000002c .LVL139
C:\Users\stapi\AppData\Local\Temp\cc6d032j.s:1602   .text.pmksa_cache_get_opportunistic:0000000000000104 .LVL153
C:\Users\stapi\AppData\Local\Temp\cc6d032j.s:1618   .text.pmksa_cache_get_opportunistic:0000000000000112 .LVL154
C:\Users\stapi\AppData\Local\Temp\cc6d032j.s:1533   .text.pmksa_cache_get_opportunistic:00000000000000b0 .LVL148
C:\Users\stapi\AppData\Local\Temp\cc6d032j.s:1572   .text.pmksa_cache_get_opportunistic:00000000000000cc .LVL151
C:\Users\stapi\AppData\Local\Temp\cc6d032j.s:129    .text.pmksa_cache_get:0000000000000000 .LVL11
C:\Users\stapi\AppData\Local\Temp\cc6d032j.s:148    .text.pmksa_cache_get:0000000000000012 .LVL13
C:\Users\stapi\AppData\Local\Temp\cc6d032j.s:1311   .text.pmksa_cache_deinit:0000000000000000 .LVL126
C:\Users\stapi\AppData\Local\Temp\cc6d032j.s:1326   .text.pmksa_cache_deinit:000000000000000e .LVL127
C:\Users\stapi\AppData\Local\Temp\cc6d032j.s:1364   .text.pmksa_cache_deinit:000000000000003e .LVL134
C:\Users\stapi\AppData\Local\Temp\cc6d032j.s:1336   .text.pmksa_cache_deinit:0000000000000016 .LVL128
C:\Users\stapi\AppData\Local\Temp\cc6d032j.s:1350   .text.pmksa_cache_deinit:0000000000000030 .LVL131
C:\Users\stapi\AppData\Local\Temp\cc6d032j.s:1357   .text.pmksa_cache_deinit:0000000000000032 .LVL132
C:\Users\stapi\AppData\Local\Temp\cc6d032j.s:599    .text.pmksa_cache_flush:0000000000000000 .LVL57
C:\Users\stapi\AppData\Local\Temp\cc6d032j.s:633    .text.pmksa_cache_flush:000000000000001c .LVL60
C:\Users\stapi\AppData\Local\Temp\cc6d032j.s:619    .text.pmksa_cache_flush:000000000000000a .LVL59
C:\Users\stapi\AppData\Local\Temp\cc6d032j.s:699    .text.pmksa_cache_flush:000000000000007a .LVL64
C:\Users\stapi\AppData\Local\Temp\cc6d032j.s:715    .text.pmksa_cache_flush:000000000000008e .LVL68
C:\Users\stapi\AppData\Local\Temp\cc6d032j.s:730    .text.pmksa_cache_flush:00000000000000a6 .LVL70
C:\Users\stapi\AppData\Local\Temp\cc6d032j.s:735    .text.pmksa_cache_flush:00000000000000aa .LVL71
C:\Users\stapi\AppData\Local\Temp\cc6d032j.s:614    .text.pmksa_cache_flush:0000000000000008 .LVL58
C:\Users\stapi\AppData\Local\Temp\cc6d032j.s:695    .text.pmksa_cache_flush:0000000000000076 .LVL63
C:\Users\stapi\AppData\Local\Temp\cc6d032j.s:712    .text.pmksa_cache_flush:000000000000008c .LVL67
C:\Users\stapi\AppData\Local\Temp\cc6d032j.s:771    .text.pmksa_cache_add_entry:0000000000000000 .LVL72
C:\Users\stapi\AppData\Local\Temp\cc6d032j.s:797    .text.pmksa_cache_add_entry:0000000000000018 .LVL74
C:\Users\stapi\AppData\Local\Temp\cc6d032j.s:784    .text.pmksa_cache_add_entry:000000000000000c .LVL73
C:\Users\stapi\AppData\Local\Temp\cc6d032j.s:856    .text.pmksa_cache_add_entry:0000000000000088 .LVL80
C:\Users\stapi\AppData\Local\Temp\cc6d032j.s:905    .text.pmksa_cache_add_entry:00000000000000da .LVL84
C:\Users\stapi\AppData\Local\Temp\cc6d032j.s:915    .text.pmksa_cache_add_entry:00000000000000e8 .LVL85
C:\Users\stapi\AppData\Local\Temp\cc6d032j.s:925    .text.pmksa_cache_add_entry:00000000000000f4 .LVL86
C:\Users\stapi\AppData\Local\Temp\cc6d032j.s:930    .text.pmksa_cache_add_entry:00000000000000f8 .LVL87
C:\Users\stapi\AppData\Local\Temp\cc6d032j.s:953    .text.pmksa_cache_add_entry:0000000000000132 .LVL90
C:\Users\stapi\AppData\Local\Temp\cc6d032j.s:960    .text.pmksa_cache_add_entry:0000000000000136 .LVL91
C:\Users\stapi\AppData\Local\Temp\cc6d032j.s:1044   .text.pmksa_cache_add_entry:00000000000001c0 .LVL100
C:\Users\stapi\AppData\Local\Temp\cc6d032j.s:1054   .text.pmksa_cache_add_entry:00000000000001c6 .LVL101
C:\Users\stapi\AppData\Local\Temp\cc6d032j.s:1059   .text.pmksa_cache_add_entry:00000000000001cc .LVL102
C:\Users\stapi\AppData\Local\Temp\cc6d032j.s:1061   .text.pmksa_cache_add_entry:00000000000001ce .LVL103
C:\Users\stapi\AppData\Local\Temp\cc6d032j.s:1078   .text.pmksa_cache_add_entry:00000000000001de .LVL105
C:\Users\stapi\AppData\Local\Temp\cc6d032j.s:1083   .text.pmksa_cache_add_entry:00000000000001e2 .LVL106
C:\Users\stapi\AppData\Local\Temp\cc6d032j.s:1089   .text.pmksa_cache_add_entry:00000000000001e6 .LVL107
C:\Users\stapi\AppData\Local\Temp\cc6d032j.s:1070   .text.pmksa_cache_add_entry:00000000000001d6 .LVL104
C:\Users\stapi\AppData\Local\Temp\cc6d032j.s:1018   .text.pmksa_cache_add_entry:000000000000019a .LVL94
C:\Users\stapi\AppData\Local\Temp\cc6d032j.s:1032   .text.pmksa_cache_add_entry:00000000000001aa .LVL96
C:\Users\stapi\AppData\Local\Temp\cc6d032j.s:1030   .text.pmksa_cache_add_entry:00000000000001a6 .LVL95
C:\Users\stapi\AppData\Local\Temp\cc6d032j.s:1034   .text.pmksa_cache_add_entry:00000000000001ae .LVL97
C:\Users\stapi\AppData\Local\Temp\cc6d032j.s:1039   .text.pmksa_cache_add_entry:00000000000001ba .LVL98
C:\Users\stapi\AppData\Local\Temp\cc6d032j.s:1107   .text.pmksa_cache_add:0000000000000000 .LVL108
C:\Users\stapi\AppData\Local\Temp\cc6d032j.s:1135   .text.pmksa_cache_add:0000000000000016 .LVL110
C:\Users\stapi\AppData\Local\Temp\cc6d032j.s:1158   .text.pmksa_cache_add:0000000000000022 .LVL112
C:\Users\stapi\AppData\Local\Temp\cc6d032j.s:1190   .text.pmksa_cache_add:0000000000000040 .LVL115
C:\Users\stapi\AppData\Local\Temp\cc6d032j.s:1183   .text.pmksa_cache_add:000000000000003a .LVL114
C:\Users\stapi\AppData\Local\Temp\cc6d032j.s:1129   .text.pmksa_cache_add:000000000000000e .LVL109
C:\Users\stapi\AppData\Local\Temp\cc6d032j.s:1144   .text.pmksa_cache_add:000000000000001a .LVL111
C:\Users\stapi\AppData\Local\Temp\cc6d032j.s:424    .text.pmksa_cache_expire:0000000000000000 .LVL40
C:\Users\stapi\AppData\Local\Temp\cc6d032j.s:457    .text.pmksa_cache_expire:0000000000000012 .LVL43
C:\Users\stapi\AppData\Local\Temp\cc6d032j.s:436    .text.pmksa_cache_expire:0000000000000008 .LVL41
C:\Users\stapi\AppData\Local\Temp\cc6d032j.s:473    .text.pmksa_cache_expire:0000000000000028 .LVL45
C:\Users\stapi\AppData\Local\Temp\cc6d032j.s:539    .text.pmksa_cache_expire:0000000000000082 .LVL50
C:\Users\stapi\AppData\Local\Temp\cc6d032j.s:563    .text.pmksa_cache_expire:00000000000000b4 .LVL52
C:\Users\stapi\AppData\Local\Temp\cc6d032j.s:576    .text.pmksa_cache_expire:00000000000000c8 .LVL55
C:\Users\stapi\AppData\Local\Temp\cc6d032j.s:445    .text.pmksa_cache_expire:000000000000000c .LVL42
C:\Users\stapi\AppData\Local\Temp\cc6d032j.s:567    .text.pmksa_cache_expire:00000000000000b8 .LVL53
C:\Users\stapi\AppData\Local\Temp\cc6d032j.s:578    .text.pmksa_cache_expire:00000000000000ca .LVL56
C:\Users\stapi\AppData\Local\Temp\cc6d032j.s:39     .text.pmksa_cache_free_entry:0000000000000000 .LVL2
C:\Users\stapi\AppData\Local\Temp\cc6d032j.s:57     .text.pmksa_cache_free_entry:0000000000000016 .LVL3
C:\Users\stapi\AppData\Local\Temp\cc6d032j.s:59     .text.pmksa_cache_free_entry:0000000000000018 .LVL4
C:\Users\stapi\AppData\Local\Temp\cc6d032j.s:62     .text.pmksa_cache_free_entry:000000000000001c .LVL5
C:\Users\stapi\AppData\Local\Temp\cc6d032j.s:71     .text.pmksa_cache_free_entry:000000000000002c .LVL6
C:\Users\stapi\AppData\Local\Temp\cc6d032j.s:82     .text.pmksa_cache_free_entry:0000000000000032 .LVL7
C:\Users\stapi\AppData\Local\Temp\cc6d032j.s:218    .text.pmksa_cache_set_expiration:0000000000000000 .LVL17
C:\Users\stapi\AppData\Local\Temp\cc6d032j.s:240    .text.pmksa_cache_set_expiration:0000000000000018 .LVL18
C:\Users\stapi\AppData\Local\Temp\cc6d032j.s:254    .text.pmksa_cache_set_expiration:0000000000000038 .LVL21
C:\Users\stapi\AppData\Local\Temp\cc6d032j.s:368    .text.pmksa_cache_set_expiration:00000000000000c4 .LVL33
C:\Users\stapi\AppData\Local\Temp\cc6d032j.s:268    .text.pmksa_cache_set_expiration:000000000000004a .LVL23
C:\Users\stapi\AppData\Local\Temp\cc6d032j.s:273    .text.pmksa_cache_set_expiration:000000000000004e .LVL24
C:\Users\stapi\AppData\Local\Temp\cc6d032j.s:291    .text.pmksa_cache_set_expiration:000000000000005c .LVL25
C:\Users\stapi\AppData\Local\Temp\cc6d032j.s:347    .text.pmksa_cache_set_expiration:00000000000000ac .LVL30
C:\Users\stapi\AppData\Local\Temp\cc6d032j.s:352    .text.pmksa_cache_set_expiration:00000000000000b2 .LVL31
C:\Users\stapi\AppData\Local\Temp\cc6d032j.s:391    .text.pmksa_cache_set_expiration:00000000000000d6 .LVL36
C:\Users\stapi\AppData\Local\Temp\cc6d032j.s:397    .text.pmksa_cache_set_expiration:00000000000000de .LVL37
C:\Users\stapi\AppData\Local\Temp\cc6d032j.s:399    .text.pmksa_cache_set_expiration:00000000000000e0 .LVL38
C:\Users\stapi\AppData\Local\Temp\cc6d032j.s:401    .text.pmksa_cache_set_expiration:00000000000000e4 .LVL39
C:\Users\stapi\AppData\Local\Temp\cc6d032j.s:327    .text.pmksa_cache_set_expiration:0000000000000094 .LVL29
C:\Users\stapi\AppData\Local\Temp\cc6d032j.s:384    .text.pmksa_cache_set_expiration:00000000000000d0 .LVL35
C:\Users\stapi\AppData\Local\Temp\cc6d032j.s:2606   .debug_info:0000000000000000 .Ldebug_info0
C:\Users\stapi\AppData\Local\Temp\cc6d032j.s:357    .text.pmksa_cache_set_expiration:00000000000000ba .LBE54
C:\Users\stapi\AppData\Local\Temp\cc6d032j.s:371    .text.pmksa_cache_set_expiration:00000000000000c4 .LBB61
C:\Users\stapi\AppData\Local\Temp\cc6d032j.s:406    .text.pmksa_cache_set_expiration:00000000000000ec .LBE61
C:\Users\stapi\AppData\Local\Temp\cc6d032j.s:454    .text.pmksa_cache_expire:0000000000000010 .LBE62
C:\Users\stapi\AppData\Local\Temp\cc6d032j.s:463    .text.pmksa_cache_expire:000000000000001c .LBB66
C:\Users\stapi\AppData\Local\Temp\cc6d032j.s:468    .text.pmksa_cache_expire:0000000000000020 .LBE66
C:\Users\stapi\AppData\Local\Temp\cc6d032j.s:504    .text.pmksa_cache_expire:0000000000000046 .LBB67
C:\Users\stapi\AppData\Local\Temp\cc6d032j.s:511    .text.pmksa_cache_expire:000000000000004c .LBE67
C:\Users\stapi\AppData\Local\Temp\cc6d032j.s:1173   .text.pmksa_cache_add:0000000000000036 .LBE72
C:\Users\stapi\AppData\Local\Temp\cc6d032j.s:1176   .text.pmksa_cache_add:0000000000000036 .LBB75
C:\Users\stapi\AppData\Local\Temp\cc6d032j.s:1180   .text.pmksa_cache_add:0000000000000036 .LBE75
C:\Users\stapi\AppData\Local\Temp\cc6d032j.s:1440   .text.pmksa_cache_get_opportunistic:0000000000000042 .LBB85
C:\Users\stapi\AppData\Local\Temp\cc6d032j.s:1451   .text.pmksa_cache_get_opportunistic:000000000000004c .LBE85
C:\Users\stapi\AppData\Local\Temp\cc6d032j.s:1488   .text.pmksa_cache_get_opportunistic:000000000000006c .LBB96
C:\Users\stapi\AppData\Local\Temp\cc6d032j.s:1524   .text.pmksa_cache_get_opportunistic:00000000000000ac .LBE96
C:\Users\stapi\AppData\Local\Temp\cc6d032j.s:1531   .text.pmksa_cache_get_opportunistic:00000000000000b0 .LBB97
C:\Users\stapi\AppData\Local\Temp\cc6d032j.s:1560   .text.pmksa_cache_get_opportunistic:00000000000000c4 .LBE97
C:\Users\stapi\AppData\Local\Temp\cc6d032j.s:1562   .text.pmksa_cache_get_opportunistic:00000000000000c4 .LBB98
C:\Users\stapi\AppData\Local\Temp\cc6d032j.s:1636   .text.pmksa_cache_get_opportunistic:000000000000013e .LBE98
C:\Users\stapi\AppData\Local\Temp\cc6d032j.s:1447   .text.pmksa_cache_get_opportunistic:0000000000000048 .LBE86
C:\Users\stapi\AppData\Local\Temp\cc6d032j.s:1492   .text.pmksa_cache_get_opportunistic:000000000000006c .LBB89
C:\Users\stapi\AppData\Local\Temp\cc6d032j.s:1498   .text.pmksa_cache_get_opportunistic:0000000000000070 .LBE89
C:\Users\stapi\AppData\Local\Temp\cc6d032j.s:1559   .text.pmksa_cache_get_opportunistic:00000000000000c4 .LBE90
C:\Users\stapi\AppData\Local\Temp\cc6d032j.s:1563   .text.pmksa_cache_get_opportunistic:00000000000000c4 .LBB95
C:\Users\stapi\AppData\Local\Temp\cc6d032j.s:1620   .text.pmksa_cache_get_opportunistic:0000000000000112 .LBE95
C:\Users\stapi\AppData\Local\Temp\cc6d032j.s:1863   .text.pmksa_cache_set_current:00000000000000b6 .LBE104
C:\Users\stapi\AppData\Local\Temp\cc6d032j.s:1969   .text.pmksa_cache_set_current:000000000000015e .LBB110
C:\Users\stapi\AppData\Local\Temp\cc6d032j.s:1986   .text.pmksa_cache_set_current:0000000000000178 .LBE110
C:\Users\stapi\AppData\Local\Temp\cc6d032j.s:1885   .text.pmksa_cache_set_current:00000000000000d4 .LBB107
C:\Users\stapi\AppData\Local\Temp\cc6d032j.s:1930   .text.pmksa_cache_set_current:0000000000000126 .LBE107
C:\Users\stapi\AppData\Local\Temp\cc6d032j.s:1991   .text.pmksa_cache_set_current:000000000000017e .LBB111
C:\Users\stapi\AppData\Local\Temp\cc6d032j.s:2007   .text.pmksa_cache_set_current:000000000000019a .LBE111
C:\Users\stapi\AppData\Local\Temp\cc6d032j.s:2130   .text.pmksa_cache_list:0000000000000040 .LBE112
C:\Users\stapi\AppData\Local\Temp\cc6d032j.s:2133   .text.pmksa_cache_list:0000000000000042 .LBB115
C:\Users\stapi\AppData\Local\Temp\cc6d032j.s:2140   .text.pmksa_cache_list:000000000000004a .LBE115
C:\Users\stapi\AppData\Local\Temp\cc6d032j.s:2242   .text.pmksa_cache_list:00000000000000d8 .LBE118
C:\Users\stapi\AppData\Local\Temp\cc6d032j.s:2291   .text.pmksa_cache_list:0000000000000100 .LBB121
C:\Users\stapi\AppData\Local\Temp\cc6d032j.s:2297   .text.pmksa_cache_list:0000000000000104 .LBE121
C:\Users\stapi\AppData\Local\Temp\cc6d032j.s:2483   .text.pmksa_cache_reconfig:000000000000001e .LBB129
C:\Users\stapi\AppData\Local\Temp\cc6d032j.s:2487   .text.pmksa_cache_reconfig:0000000000000022 .LBE129
C:\Users\stapi\AppData\Local\Temp\cc6d032j.s:2506   .text.pmksa_cache_reconfig:000000000000002e .LBB132
C:\Users\stapi\AppData\Local\Temp\cc6d032j.s:2576   .text.pmksa_cache_reconfig:000000000000008c .LBE132

UNDEFINED SYMBOLS
__riscv_save_3
bin_clear_free
__riscv_restore_3
__riscv_save_5
__riscv_restore_5
os_memcmp
eloop_cancel_timeout
os_get_reltime
eloop_register_timeout
__riscv_save_7
__riscv_restore_7
wpa_printf
__riscv_save_10
__riscv_restore_10
os_memcmp_const
os_free
os_zalloc
os_memcpy
rsn_pmkid
__riscv_save_2
__riscv_restore_2
__riscv_save_1
__riscv_restore_1
__riscv_save_8
wpa_hexdump
__riscv_restore_8
os_snprintf
wpa_snprintf_hex
__riscv_save_4
__riscv_restore_4
