   1              		.file	"rc4.c"
   2              		.option nopic
   3              		.attribute arch, "rv32i2p0_m2p0_a2p0_f2p0_c2p0_b_p0p94"
   4              		.attribute unaligned_access, 0
   5              		.attribute stack_align, 16
   6              		.text
   7              	.Ltext0:
   8              		.cfi_sections	.debug_frame
   9              		.section	.text.rc4_skip,"ax",@progbits
  10              		.align	1
  11              		.globl	rc4_skip
  13              	rc4_skip:
  14              	.LFB71:
  15              		.file 1 "C:/Users/stapi/OneDrive/Desktop/GD32VW553/V1_MQTT_OK/GD32VW55X_Wifi_BLE_SDK/GD32VW55x_REL
   1:C:/Users/stapi/OneDrive/Desktop/GD32VW553/V1_MQTT_OK/GD32VW55X_Wifi_BLE_SDK/GD32VW55x_RELEASE_V1.0.2/MSDK/wpa_supplicant/src/crypto\rc4.c **** /*
   2:C:/Users/stapi/OneDrive/Desktop/GD32VW553/V1_MQTT_OK/GD32VW55X_Wifi_BLE_SDK/GD32VW55x_RELEASE_V1.0.2/MSDK/wpa_supplicant/src/crypto\rc4.c ****  * RC4 stream cipher
   3:C:/Users/stapi/OneDrive/Desktop/GD32VW553/V1_MQTT_OK/GD32VW55X_Wifi_BLE_SDK/GD32VW55x_RELEASE_V1.0.2/MSDK/wpa_supplicant/src/crypto\rc4.c ****  * Copyright (c) 2002-2005, Jouni Malinen <j@w1.fi>
   4:C:/Users/stapi/OneDrive/Desktop/GD32VW553/V1_MQTT_OK/GD32VW55X_Wifi_BLE_SDK/GD32VW55x_RELEASE_V1.0.2/MSDK/wpa_supplicant/src/crypto\rc4.c ****  *
   5:C:/Users/stapi/OneDrive/Desktop/GD32VW553/V1_MQTT_OK/GD32VW55X_Wifi_BLE_SDK/GD32VW55x_RELEASE_V1.0.2/MSDK/wpa_supplicant/src/crypto\rc4.c ****  * This software may be distributed under the terms of the BSD license.
   6:C:/Users/stapi/OneDrive/Desktop/GD32VW553/V1_MQTT_OK/GD32VW55X_Wifi_BLE_SDK/GD32VW55x_RELEASE_V1.0.2/MSDK/wpa_supplicant/src/crypto\rc4.c ****  * See README for more details.
   7:C:/Users/stapi/OneDrive/Desktop/GD32VW553/V1_MQTT_OK/GD32VW55X_Wifi_BLE_SDK/GD32VW55x_RELEASE_V1.0.2/MSDK/wpa_supplicant/src/crypto\rc4.c ****  */
   8:C:/Users/stapi/OneDrive/Desktop/GD32VW553/V1_MQTT_OK/GD32VW55X_Wifi_BLE_SDK/GD32VW55x_RELEASE_V1.0.2/MSDK/wpa_supplicant/src/crypto\rc4.c **** 
   9:C:/Users/stapi/OneDrive/Desktop/GD32VW553/V1_MQTT_OK/GD32VW55X_Wifi_BLE_SDK/GD32VW55x_RELEASE_V1.0.2/MSDK/wpa_supplicant/src/crypto\rc4.c **** #include "includes.h"
  10:C:/Users/stapi/OneDrive/Desktop/GD32VW553/V1_MQTT_OK/GD32VW55X_Wifi_BLE_SDK/GD32VW55x_RELEASE_V1.0.2/MSDK/wpa_supplicant/src/crypto\rc4.c **** 
  11:C:/Users/stapi/OneDrive/Desktop/GD32VW553/V1_MQTT_OK/GD32VW55X_Wifi_BLE_SDK/GD32VW55x_RELEASE_V1.0.2/MSDK/wpa_supplicant/src/crypto\rc4.c **** #include "common.h"
  12:C:/Users/stapi/OneDrive/Desktop/GD32VW553/V1_MQTT_OK/GD32VW55X_Wifi_BLE_SDK/GD32VW55x_RELEASE_V1.0.2/MSDK/wpa_supplicant/src/crypto\rc4.c **** #include "crypto.h"
  13:C:/Users/stapi/OneDrive/Desktop/GD32VW553/V1_MQTT_OK/GD32VW55X_Wifi_BLE_SDK/GD32VW55x_RELEASE_V1.0.2/MSDK/wpa_supplicant/src/crypto\rc4.c **** 
  14:C:/Users/stapi/OneDrive/Desktop/GD32VW553/V1_MQTT_OK/GD32VW55X_Wifi_BLE_SDK/GD32VW55x_RELEASE_V1.0.2/MSDK/wpa_supplicant/src/crypto\rc4.c **** #define S_SWAP(a,b) do { u8 t = S[a]; S[a] = S[b]; S[b] = t; } while(0)
  15:C:/Users/stapi/OneDrive/Desktop/GD32VW553/V1_MQTT_OK/GD32VW55X_Wifi_BLE_SDK/GD32VW55x_RELEASE_V1.0.2/MSDK/wpa_supplicant/src/crypto\rc4.c **** 
  16:C:/Users/stapi/OneDrive/Desktop/GD32VW553/V1_MQTT_OK/GD32VW55X_Wifi_BLE_SDK/GD32VW55x_RELEASE_V1.0.2/MSDK/wpa_supplicant/src/crypto\rc4.c **** int rc4_skip(const u8 *key, size_t keylen, size_t skip,
  17:C:/Users/stapi/OneDrive/Desktop/GD32VW553/V1_MQTT_OK/GD32VW55X_Wifi_BLE_SDK/GD32VW55x_RELEASE_V1.0.2/MSDK/wpa_supplicant/src/crypto\rc4.c **** 	     u8 *data, size_t data_len)
  18:C:/Users/stapi/OneDrive/Desktop/GD32VW553/V1_MQTT_OK/GD32VW55X_Wifi_BLE_SDK/GD32VW55x_RELEASE_V1.0.2/MSDK/wpa_supplicant/src/crypto\rc4.c **** {
  16              		.loc 1 18 1
  17              		.cfi_startproc
  18              	.LVL0:
  19:C:/Users/stapi/OneDrive/Desktop/GD32VW553/V1_MQTT_OK/GD32VW55X_Wifi_BLE_SDK/GD32VW55x_RELEASE_V1.0.2/MSDK/wpa_supplicant/src/crypto\rc4.c **** 	u32 i, j, k;
  19              		.loc 1 19 2
  20:C:/Users/stapi/OneDrive/Desktop/GD32VW553/V1_MQTT_OK/GD32VW55X_Wifi_BLE_SDK/GD32VW55x_RELEASE_V1.0.2/MSDK/wpa_supplicant/src/crypto\rc4.c **** 	u8 S[256], *pos;
  20              		.loc 1 20 2
  21:C:/Users/stapi/OneDrive/Desktop/GD32VW553/V1_MQTT_OK/GD32VW55X_Wifi_BLE_SDK/GD32VW55x_RELEASE_V1.0.2/MSDK/wpa_supplicant/src/crypto\rc4.c **** 	size_t kpos;
  21              		.loc 1 21 2
  22:C:/Users/stapi/OneDrive/Desktop/GD32VW553/V1_MQTT_OK/GD32VW55X_Wifi_BLE_SDK/GD32VW55x_RELEASE_V1.0.2/MSDK/wpa_supplicant/src/crypto\rc4.c **** 
  23:C:/Users/stapi/OneDrive/Desktop/GD32VW553/V1_MQTT_OK/GD32VW55X_Wifi_BLE_SDK/GD32VW55x_RELEASE_V1.0.2/MSDK/wpa_supplicant/src/crypto\rc4.c **** 	/* Setup RC4 state */
  24:C:/Users/stapi/OneDrive/Desktop/GD32VW553/V1_MQTT_OK/GD32VW55X_Wifi_BLE_SDK/GD32VW55x_RELEASE_V1.0.2/MSDK/wpa_supplicant/src/crypto\rc4.c **** 	for (i = 0; i < 256; i++)
  22              		.loc 1 24 2
  23              		.loc 1 24 14
  18:C:/Users/stapi/OneDrive/Desktop/GD32VW553/V1_MQTT_OK/GD32VW55X_Wifi_BLE_SDK/GD32VW55x_RELEASE_V1.0.2/MSDK/wpa_supplicant/src/crypto\rc4.c **** 	u32 i, j, k;
  24              		.loc 1 18 1 is_stmt 0
  25 0000 1171     		addi	sp,sp,-256
  26              		.cfi_def_cfa_offset 256
  27              		.loc 1 24 9
  28 0002 8147     		li	a5,0
  29              		.loc 1 24 2
  30 0004 13080010 		li	a6,256
  31              	.LVL1:
  32              	.L2:
  25:C:/Users/stapi/OneDrive/Desktop/GD32VW553/V1_MQTT_OK/GD32VW55X_Wifi_BLE_SDK/GD32VW55x_RELEASE_V1.0.2/MSDK/wpa_supplicant/src/crypto\rc4.c **** 		S[i] = i;
  33              		.loc 1 25 3 is_stmt 1 discriminator 3
  34              		.loc 1 25 8 is_stmt 0 discriminator 3
  35 0008 B308F100 		add	a7,sp,a5
  36 000c 2380F800 		sb	a5,0(a7)
  24:C:/Users/stapi/OneDrive/Desktop/GD32VW553/V1_MQTT_OK/GD32VW55X_Wifi_BLE_SDK/GD32VW55x_RELEASE_V1.0.2/MSDK/wpa_supplicant/src/crypto\rc4.c **** 		S[i] = i;
  37              		.loc 1 24 23 is_stmt 1 discriminator 3
  24:C:/Users/stapi/OneDrive/Desktop/GD32VW553/V1_MQTT_OK/GD32VW55X_Wifi_BLE_SDK/GD32VW55x_RELEASE_V1.0.2/MSDK/wpa_supplicant/src/crypto\rc4.c **** 		S[i] = i;
  38              		.loc 1 24 24 is_stmt 0 discriminator 3
  39 0010 8507     		addi	a5,a5,1
  40              	.LVL2:
  24:C:/Users/stapi/OneDrive/Desktop/GD32VW553/V1_MQTT_OK/GD32VW55X_Wifi_BLE_SDK/GD32VW55x_RELEASE_V1.0.2/MSDK/wpa_supplicant/src/crypto\rc4.c **** 		S[i] = i;
  41              		.loc 1 24 14 is_stmt 1 discriminator 3
  24:C:/Users/stapi/OneDrive/Desktop/GD32VW553/V1_MQTT_OK/GD32VW55X_Wifi_BLE_SDK/GD32VW55x_RELEASE_V1.0.2/MSDK/wpa_supplicant/src/crypto\rc4.c **** 		S[i] = i;
  42              		.loc 1 24 2 is_stmt 0 discriminator 3
  43 0012 E39B07FF 		bne	a5,a6,.L2
  44 0016 8A87     		mv	a5,sp
  45              	.LVL3:
  26:C:/Users/stapi/OneDrive/Desktop/GD32VW553/V1_MQTT_OK/GD32VW55X_Wifi_BLE_SDK/GD32VW55x_RELEASE_V1.0.2/MSDK/wpa_supplicant/src/crypto\rc4.c **** 	j = 0;
  27:C:/Users/stapi/OneDrive/Desktop/GD32VW553/V1_MQTT_OK/GD32VW55X_Wifi_BLE_SDK/GD32VW55x_RELEASE_V1.0.2/MSDK/wpa_supplicant/src/crypto\rc4.c **** 	kpos = 0;
  46              		.loc 1 27 7
  47 0018 8148     		li	a7,0
  26:C:/Users/stapi/OneDrive/Desktop/GD32VW553/V1_MQTT_OK/GD32VW55X_Wifi_BLE_SDK/GD32VW55x_RELEASE_V1.0.2/MSDK/wpa_supplicant/src/crypto\rc4.c **** 	j = 0;
  48              		.loc 1 26 4
  49 001a 0148     		li	a6,0
  50              	.L4:
  51              	.LVL4:
  28:C:/Users/stapi/OneDrive/Desktop/GD32VW553/V1_MQTT_OK/GD32VW55X_Wifi_BLE_SDK/GD32VW55x_RELEASE_V1.0.2/MSDK/wpa_supplicant/src/crypto\rc4.c **** 	for (i = 0; i < 256; i++) {
  29:C:/Users/stapi/OneDrive/Desktop/GD32VW553/V1_MQTT_OK/GD32VW55X_Wifi_BLE_SDK/GD32VW55x_RELEASE_V1.0.2/MSDK/wpa_supplicant/src/crypto\rc4.c **** 		j = (j + S[i] + key[kpos]) & 0xff;
  52              		.loc 1 29 3 is_stmt 1
  53              		.loc 1 29 22 is_stmt 0
  54 001c 33031501 		add	t1,a0,a7
  55              		.loc 1 29 13
  56 0020 03CE0700 		lbu	t3,0(a5)
  57              		.loc 1 29 22
  58 0024 03430300 		lbu	t1,0(t1)
  30:C:/Users/stapi/OneDrive/Desktop/GD32VW553/V1_MQTT_OK/GD32VW55X_Wifi_BLE_SDK/GD32VW55x_RELEASE_V1.0.2/MSDK/wpa_supplicant/src/crypto\rc4.c **** 		kpos++;
  59              		.loc 1 30 7
  60 0028 8508     		addi	a7,a7,1
  61              	.LVL5:
  29:C:/Users/stapi/OneDrive/Desktop/GD32VW553/V1_MQTT_OK/GD32VW55X_Wifi_BLE_SDK/GD32VW55x_RELEASE_V1.0.2/MSDK/wpa_supplicant/src/crypto\rc4.c **** 		kpos++;
  62              		.loc 1 29 17
  63 002a 7293     		add	t1,t1,t3
  64 002c 1A98     		add	a6,t1,a6
  65              	.LVL6:
  29:C:/Users/stapi/OneDrive/Desktop/GD32VW553/V1_MQTT_OK/GD32VW55X_Wifi_BLE_SDK/GD32VW55x_RELEASE_V1.0.2/MSDK/wpa_supplicant/src/crypto\rc4.c **** 		kpos++;
  66              		.loc 1 29 5
  67 002e 1378F80F 		andi	a6,a6,255
  68              	.LVL7:
  69              		.loc 1 30 3 is_stmt 1
  31:C:/Users/stapi/OneDrive/Desktop/GD32VW553/V1_MQTT_OK/GD32VW55X_Wifi_BLE_SDK/GD32VW55x_RELEASE_V1.0.2/MSDK/wpa_supplicant/src/crypto\rc4.c **** 		if (kpos >= keylen)
  70              		.loc 1 31 3
  71              		.loc 1 31 6 is_stmt 0
  72 0032 63E3B800 		bltu	a7,a1,.L3
  32:C:/Users/stapi/OneDrive/Desktop/GD32VW553/V1_MQTT_OK/GD32VW55X_Wifi_BLE_SDK/GD32VW55x_RELEASE_V1.0.2/MSDK/wpa_supplicant/src/crypto\rc4.c **** 			kpos = 0;
  73              		.loc 1 32 9
  74 0036 8148     		li	a7,0
  75              	.LVL8:
  76              	.L3:
  33:C:/Users/stapi/OneDrive/Desktop/GD32VW553/V1_MQTT_OK/GD32VW55X_Wifi_BLE_SDK/GD32VW55x_RELEASE_V1.0.2/MSDK/wpa_supplicant/src/crypto\rc4.c **** 		S_SWAP(i, j);
  77              		.loc 1 33 3 is_stmt 1 discriminator 2
  78              	.LBB2:
  79              		.loc 1 33 3 discriminator 2
  80              		.loc 1 33 3 discriminator 2
  81 0038 13030110 		addi	t1,sp,256
  82              	.LVL9:
  83 003c 4293     		add	t1,t1,a6
  84              	.LVL10:
  85 003e 834E03F0 		lbu	t4,-256(t1)
  86              	.LBE2:
  28:C:/Users/stapi/OneDrive/Desktop/GD32VW553/V1_MQTT_OK/GD32VW55X_Wifi_BLE_SDK/GD32VW55x_RELEASE_V1.0.2/MSDK/wpa_supplicant/src/crypto\rc4.c **** 		j = (j + S[i] + key[kpos]) & 0xff;
  87              		.loc 1 28 2 is_stmt 0 discriminator 2
  88 0042 8507     		addi	a5,a5,1
  89              	.LVL11:
  90              	.LBB3:
  91              		.loc 1 33 3 discriminator 2
  92 0044 A38FD7FF 		sb	t4,-1(a5)
  93              		.loc 1 33 3 is_stmt 1 discriminator 2
  94 0048 2300C3F1 		sb	t3,-256(t1)
  95              	.LBE3:
  96              		.loc 1 33 3 discriminator 2
  28:C:/Users/stapi/OneDrive/Desktop/GD32VW553/V1_MQTT_OK/GD32VW55X_Wifi_BLE_SDK/GD32VW55x_RELEASE_V1.0.2/MSDK/wpa_supplicant/src/crypto\rc4.c **** 		j = (j + S[i] + key[kpos]) & 0xff;
  97              		.loc 1 28 23 discriminator 2
  98              	.LVL12:
  28:C:/Users/stapi/OneDrive/Desktop/GD32VW553/V1_MQTT_OK/GD32VW55X_Wifi_BLE_SDK/GD32VW55x_RELEASE_V1.0.2/MSDK/wpa_supplicant/src/crypto\rc4.c **** 		j = (j + S[i] + key[kpos]) & 0xff;
  99              		.loc 1 28 14 discriminator 2
  28:C:/Users/stapi/OneDrive/Desktop/GD32VW553/V1_MQTT_OK/GD32VW55X_Wifi_BLE_SDK/GD32VW55x_RELEASE_V1.0.2/MSDK/wpa_supplicant/src/crypto\rc4.c **** 		j = (j + S[i] + key[kpos]) & 0xff;
 100              		.loc 1 28 2 is_stmt 0 discriminator 2
 101 004c 13030110 		addi	t1,sp,256
 102 0050 E316F3FC 		bne	t1,a5,.L4
  34:C:/Users/stapi/OneDrive/Desktop/GD32VW553/V1_MQTT_OK/GD32VW55X_Wifi_BLE_SDK/GD32VW55x_RELEASE_V1.0.2/MSDK/wpa_supplicant/src/crypto\rc4.c **** 	}
  35:C:/Users/stapi/OneDrive/Desktop/GD32VW553/V1_MQTT_OK/GD32VW55X_Wifi_BLE_SDK/GD32VW55x_RELEASE_V1.0.2/MSDK/wpa_supplicant/src/crypto\rc4.c **** 
  36:C:/Users/stapi/OneDrive/Desktop/GD32VW553/V1_MQTT_OK/GD32VW55X_Wifi_BLE_SDK/GD32VW55x_RELEASE_V1.0.2/MSDK/wpa_supplicant/src/crypto\rc4.c **** 	/* Skip the start of the stream */
  37:C:/Users/stapi/OneDrive/Desktop/GD32VW553/V1_MQTT_OK/GD32VW55X_Wifi_BLE_SDK/GD32VW55x_RELEASE_V1.0.2/MSDK/wpa_supplicant/src/crypto\rc4.c **** 	i = j = 0;
  38:C:/Users/stapi/OneDrive/Desktop/GD32VW553/V1_MQTT_OK/GD32VW55X_Wifi_BLE_SDK/GD32VW55x_RELEASE_V1.0.2/MSDK/wpa_supplicant/src/crypto\rc4.c **** 	for (k = 0; k < skip; k++) {
 103              		.loc 1 38 9
 104 0054 0145     		li	a0,0
 105              	.LVL13:
  37:C:/Users/stapi/OneDrive/Desktop/GD32VW553/V1_MQTT_OK/GD32VW55X_Wifi_BLE_SDK/GD32VW55x_RELEASE_V1.0.2/MSDK/wpa_supplicant/src/crypto\rc4.c **** 	for (k = 0; k < skip; k++) {
 106              		.loc 1 37 8
 107 0056 8145     		li	a1,0
 108              	.LVL14:
  37:C:/Users/stapi/OneDrive/Desktop/GD32VW553/V1_MQTT_OK/GD32VW55X_Wifi_BLE_SDK/GD32VW55x_RELEASE_V1.0.2/MSDK/wpa_supplicant/src/crypto\rc4.c **** 	for (k = 0; k < skip; k++) {
 109              		.loc 1 37 4
 110 0058 8147     		li	a5,0
 111              	.LVL15:
 112              	.L5:
 113              		.loc 1 38 14 is_stmt 1 discriminator 1
 114              		.loc 1 38 2 is_stmt 0 discriminator 1
 115 005a 6319C500 		bne	a0,a2,.L6
 116 005e 3386E600 		add	a2,a3,a4
 117              	.LVL16:
 118              	.L7:
  39:C:/Users/stapi/OneDrive/Desktop/GD32VW553/V1_MQTT_OK/GD32VW55X_Wifi_BLE_SDK/GD32VW55x_RELEASE_V1.0.2/MSDK/wpa_supplicant/src/crypto\rc4.c **** 		i = (i + 1) & 0xff;
  40:C:/Users/stapi/OneDrive/Desktop/GD32VW553/V1_MQTT_OK/GD32VW55X_Wifi_BLE_SDK/GD32VW55x_RELEASE_V1.0.2/MSDK/wpa_supplicant/src/crypto\rc4.c **** 		j = (j + S[i]) & 0xff;
  41:C:/Users/stapi/OneDrive/Desktop/GD32VW553/V1_MQTT_OK/GD32VW55X_Wifi_BLE_SDK/GD32VW55x_RELEASE_V1.0.2/MSDK/wpa_supplicant/src/crypto\rc4.c **** 		S_SWAP(i, j);
  42:C:/Users/stapi/OneDrive/Desktop/GD32VW553/V1_MQTT_OK/GD32VW55X_Wifi_BLE_SDK/GD32VW55x_RELEASE_V1.0.2/MSDK/wpa_supplicant/src/crypto\rc4.c **** 	}
  43:C:/Users/stapi/OneDrive/Desktop/GD32VW553/V1_MQTT_OK/GD32VW55X_Wifi_BLE_SDK/GD32VW55x_RELEASE_V1.0.2/MSDK/wpa_supplicant/src/crypto\rc4.c **** 
  44:C:/Users/stapi/OneDrive/Desktop/GD32VW553/V1_MQTT_OK/GD32VW55X_Wifi_BLE_SDK/GD32VW55x_RELEASE_V1.0.2/MSDK/wpa_supplicant/src/crypto\rc4.c **** 	/* Apply RC4 to data */
  45:C:/Users/stapi/OneDrive/Desktop/GD32VW553/V1_MQTT_OK/GD32VW55X_Wifi_BLE_SDK/GD32VW55x_RELEASE_V1.0.2/MSDK/wpa_supplicant/src/crypto\rc4.c **** 	pos = data;
  46:C:/Users/stapi/OneDrive/Desktop/GD32VW553/V1_MQTT_OK/GD32VW55X_Wifi_BLE_SDK/GD32VW55x_RELEASE_V1.0.2/MSDK/wpa_supplicant/src/crypto\rc4.c **** 	for (k = 0; k < data_len; k++) {
 119              		.loc 1 46 14 is_stmt 1 discriminator 1
 120              		.loc 1 46 2 is_stmt 0 discriminator 1
 121 0062 639AC602 		bne	a3,a2,.L8
  47:C:/Users/stapi/OneDrive/Desktop/GD32VW553/V1_MQTT_OK/GD32VW55X_Wifi_BLE_SDK/GD32VW55x_RELEASE_V1.0.2/MSDK/wpa_supplicant/src/crypto\rc4.c **** 		i = (i + 1) & 0xff;
  48:C:/Users/stapi/OneDrive/Desktop/GD32VW553/V1_MQTT_OK/GD32VW55X_Wifi_BLE_SDK/GD32VW55x_RELEASE_V1.0.2/MSDK/wpa_supplicant/src/crypto\rc4.c **** 		j = (j + S[i]) & 0xff;
  49:C:/Users/stapi/OneDrive/Desktop/GD32VW553/V1_MQTT_OK/GD32VW55X_Wifi_BLE_SDK/GD32VW55x_RELEASE_V1.0.2/MSDK/wpa_supplicant/src/crypto\rc4.c **** 		S_SWAP(i, j);
  50:C:/Users/stapi/OneDrive/Desktop/GD32VW553/V1_MQTT_OK/GD32VW55X_Wifi_BLE_SDK/GD32VW55x_RELEASE_V1.0.2/MSDK/wpa_supplicant/src/crypto\rc4.c **** 		*pos++ ^= S[(S[i] + S[j]) & 0xff];
  51:C:/Users/stapi/OneDrive/Desktop/GD32VW553/V1_MQTT_OK/GD32VW55X_Wifi_BLE_SDK/GD32VW55x_RELEASE_V1.0.2/MSDK/wpa_supplicant/src/crypto\rc4.c **** 	}
  52:C:/Users/stapi/OneDrive/Desktop/GD32VW553/V1_MQTT_OK/GD32VW55X_Wifi_BLE_SDK/GD32VW55x_RELEASE_V1.0.2/MSDK/wpa_supplicant/src/crypto\rc4.c **** 
  53:C:/Users/stapi/OneDrive/Desktop/GD32VW553/V1_MQTT_OK/GD32VW55X_Wifi_BLE_SDK/GD32VW55x_RELEASE_V1.0.2/MSDK/wpa_supplicant/src/crypto\rc4.c **** 	return 0;
 122              		.loc 1 53 2 is_stmt 1
  54:C:/Users/stapi/OneDrive/Desktop/GD32VW553/V1_MQTT_OK/GD32VW55X_Wifi_BLE_SDK/GD32VW55x_RELEASE_V1.0.2/MSDK/wpa_supplicant/src/crypto\rc4.c **** }
 123              		.loc 1 54 1 is_stmt 0
 124 0066 0145     		li	a0,0
 125 0068 1161     		addi	sp,sp,256
 126              		.cfi_remember_state
 127              		.cfi_def_cfa_offset 0
 128 006a 8280     		jr	ra
 129              	.LVL17:
 130              	.L6:
 131              		.cfi_restore_state
  39:C:/Users/stapi/OneDrive/Desktop/GD32VW553/V1_MQTT_OK/GD32VW55X_Wifi_BLE_SDK/GD32VW55x_RELEASE_V1.0.2/MSDK/wpa_supplicant/src/crypto\rc4.c **** 		i = (i + 1) & 0xff;
 132              		.loc 1 39 3 is_stmt 1 discriminator 3
  39:C:/Users/stapi/OneDrive/Desktop/GD32VW553/V1_MQTT_OK/GD32VW55X_Wifi_BLE_SDK/GD32VW55x_RELEASE_V1.0.2/MSDK/wpa_supplicant/src/crypto\rc4.c **** 		i = (i + 1) & 0xff;
 133              		.loc 1 39 10 is_stmt 0 discriminator 3
 134 006c 8507     		addi	a5,a5,1
 135              	.LVL18:
  40:C:/Users/stapi/OneDrive/Desktop/GD32VW553/V1_MQTT_OK/GD32VW55X_Wifi_BLE_SDK/GD32VW55x_RELEASE_V1.0.2/MSDK/wpa_supplicant/src/crypto\rc4.c **** 		S_SWAP(i, j);
 136              		.loc 1 40 13 discriminator 3
 137 006e 13080110 		addi	a6,sp,256
  39:C:/Users/stapi/OneDrive/Desktop/GD32VW553/V1_MQTT_OK/GD32VW55X_Wifi_BLE_SDK/GD32VW55x_RELEASE_V1.0.2/MSDK/wpa_supplicant/src/crypto\rc4.c **** 		j = (j + S[i]) & 0xff;
 138              		.loc 1 39 5 discriminator 3
 139 0072 93F7F70F 		andi	a5,a5,255
 140              	.LVL19:
  40:C:/Users/stapi/OneDrive/Desktop/GD32VW553/V1_MQTT_OK/GD32VW55X_Wifi_BLE_SDK/GD32VW55x_RELEASE_V1.0.2/MSDK/wpa_supplicant/src/crypto\rc4.c **** 		S_SWAP(i, j);
 141              		.loc 1 40 3 is_stmt 1 discriminator 3
  40:C:/Users/stapi/OneDrive/Desktop/GD32VW553/V1_MQTT_OK/GD32VW55X_Wifi_BLE_SDK/GD32VW55x_RELEASE_V1.0.2/MSDK/wpa_supplicant/src/crypto\rc4.c **** 		S_SWAP(i, j);
 142              		.loc 1 40 13 is_stmt 0 discriminator 3
 143 0076 3303F800 		add	t1,a6,a5
 144 007a 834803F0 		lbu	a7,-256(t1)
  38:C:/Users/stapi/OneDrive/Desktop/GD32VW553/V1_MQTT_OK/GD32VW55X_Wifi_BLE_SDK/GD32VW55x_RELEASE_V1.0.2/MSDK/wpa_supplicant/src/crypto\rc4.c **** 		i = (i + 1) & 0xff;
 145              		.loc 1 38 25 discriminator 3
 146 007e 0505     		addi	a0,a0,1
 147              	.LVL20:
  40:C:/Users/stapi/OneDrive/Desktop/GD32VW553/V1_MQTT_OK/GD32VW55X_Wifi_BLE_SDK/GD32VW55x_RELEASE_V1.0.2/MSDK/wpa_supplicant/src/crypto\rc4.c **** 		S_SWAP(i, j);
 148              		.loc 1 40 10 discriminator 3
 149 0080 C695     		add	a1,a7,a1
 150              	.LVL21:
  40:C:/Users/stapi/OneDrive/Desktop/GD32VW553/V1_MQTT_OK/GD32VW55X_Wifi_BLE_SDK/GD32VW55x_RELEASE_V1.0.2/MSDK/wpa_supplicant/src/crypto\rc4.c **** 		S_SWAP(i, j);
 151              		.loc 1 40 5 discriminator 3
 152 0082 93F5F50F 		andi	a1,a1,255
 153              	.LVL22:
  41:C:/Users/stapi/OneDrive/Desktop/GD32VW553/V1_MQTT_OK/GD32VW55X_Wifi_BLE_SDK/GD32VW55x_RELEASE_V1.0.2/MSDK/wpa_supplicant/src/crypto\rc4.c **** 	}
 154              		.loc 1 41 3 is_stmt 1 discriminator 3
 155              	.LBB4:
  41:C:/Users/stapi/OneDrive/Desktop/GD32VW553/V1_MQTT_OK/GD32VW55X_Wifi_BLE_SDK/GD32VW55x_RELEASE_V1.0.2/MSDK/wpa_supplicant/src/crypto\rc4.c **** 	}
 156              		.loc 1 41 3 discriminator 3
  41:C:/Users/stapi/OneDrive/Desktop/GD32VW553/V1_MQTT_OK/GD32VW55X_Wifi_BLE_SDK/GD32VW55x_RELEASE_V1.0.2/MSDK/wpa_supplicant/src/crypto\rc4.c **** 	}
 157              		.loc 1 41 3 discriminator 3
 158 0086 2E98     		add	a6,a6,a1
 159 0088 034E08F0 		lbu	t3,-256(a6)
 160 008c 2300C3F1 		sb	t3,-256(t1)
  41:C:/Users/stapi/OneDrive/Desktop/GD32VW553/V1_MQTT_OK/GD32VW55X_Wifi_BLE_SDK/GD32VW55x_RELEASE_V1.0.2/MSDK/wpa_supplicant/src/crypto\rc4.c **** 	}
 161              		.loc 1 41 3 discriminator 3
 162 0090 230018F1 		sb	a7,-256(a6)
 163              	.LBE4:
  41:C:/Users/stapi/OneDrive/Desktop/GD32VW553/V1_MQTT_OK/GD32VW55X_Wifi_BLE_SDK/GD32VW55x_RELEASE_V1.0.2/MSDK/wpa_supplicant/src/crypto\rc4.c **** 	}
 164              		.loc 1 41 3 discriminator 3
  38:C:/Users/stapi/OneDrive/Desktop/GD32VW553/V1_MQTT_OK/GD32VW55X_Wifi_BLE_SDK/GD32VW55x_RELEASE_V1.0.2/MSDK/wpa_supplicant/src/crypto\rc4.c **** 		i = (i + 1) & 0xff;
 165              		.loc 1 38 24 discriminator 3
 166              	.LVL23:
 167 0094 D9B7     		j	.L5
 168              	.LVL24:
 169              	.L8:
  47:C:/Users/stapi/OneDrive/Desktop/GD32VW553/V1_MQTT_OK/GD32VW55X_Wifi_BLE_SDK/GD32VW55x_RELEASE_V1.0.2/MSDK/wpa_supplicant/src/crypto\rc4.c **** 		j = (j + S[i]) & 0xff;
 170              		.loc 1 47 3 discriminator 3
  47:C:/Users/stapi/OneDrive/Desktop/GD32VW553/V1_MQTT_OK/GD32VW55X_Wifi_BLE_SDK/GD32VW55x_RELEASE_V1.0.2/MSDK/wpa_supplicant/src/crypto\rc4.c **** 		j = (j + S[i]) & 0xff;
 171              		.loc 1 47 10 is_stmt 0 discriminator 3
 172 0096 8507     		addi	a5,a5,1
 173              	.LVL25:
  48:C:/Users/stapi/OneDrive/Desktop/GD32VW553/V1_MQTT_OK/GD32VW55X_Wifi_BLE_SDK/GD32VW55x_RELEASE_V1.0.2/MSDK/wpa_supplicant/src/crypto\rc4.c **** 		S_SWAP(i, j);
 174              		.loc 1 48 13 discriminator 3
 175 0098 1802     		addi	a4,sp,256
  47:C:/Users/stapi/OneDrive/Desktop/GD32VW553/V1_MQTT_OK/GD32VW55X_Wifi_BLE_SDK/GD32VW55x_RELEASE_V1.0.2/MSDK/wpa_supplicant/src/crypto\rc4.c **** 		j = (j + S[i]) & 0xff;
 176              		.loc 1 47 5 discriminator 3
 177 009a 93F7F70F 		andi	a5,a5,255
 178              	.LVL26:
  48:C:/Users/stapi/OneDrive/Desktop/GD32VW553/V1_MQTT_OK/GD32VW55X_Wifi_BLE_SDK/GD32VW55x_RELEASE_V1.0.2/MSDK/wpa_supplicant/src/crypto\rc4.c **** 		S_SWAP(i, j);
 179              		.loc 1 48 3 is_stmt 1 discriminator 3
  48:C:/Users/stapi/OneDrive/Desktop/GD32VW553/V1_MQTT_OK/GD32VW55X_Wifi_BLE_SDK/GD32VW55x_RELEASE_V1.0.2/MSDK/wpa_supplicant/src/crypto\rc4.c **** 		S_SWAP(i, j);
 180              		.loc 1 48 13 is_stmt 0 discriminator 3
 181 009e 3305F700 		add	a0,a4,a5
 182 00a2 034705F0 		lbu	a4,-256(a0)
 183              	.LBB5:
  49:C:/Users/stapi/OneDrive/Desktop/GD32VW553/V1_MQTT_OK/GD32VW55X_Wifi_BLE_SDK/GD32VW55x_RELEASE_V1.0.2/MSDK/wpa_supplicant/src/crypto\rc4.c **** 		*pos++ ^= S[(S[i] + S[j]) & 0xff];
 184              		.loc 1 49 3 discriminator 3
 185 00a6 13080110 		addi	a6,sp,256
 186              	.LBE5:
  50:C:/Users/stapi/OneDrive/Desktop/GD32VW553/V1_MQTT_OK/GD32VW55X_Wifi_BLE_SDK/GD32VW55x_RELEASE_V1.0.2/MSDK/wpa_supplicant/src/crypto\rc4.c **** 	}
 187              		.loc 1 50 7 discriminator 3
 188 00aa 8506     		addi	a3,a3,1
 189              	.LVL27:
  48:C:/Users/stapi/OneDrive/Desktop/GD32VW553/V1_MQTT_OK/GD32VW55X_Wifi_BLE_SDK/GD32VW55x_RELEASE_V1.0.2/MSDK/wpa_supplicant/src/crypto\rc4.c **** 		S_SWAP(i, j);
 190              		.loc 1 48 10 discriminator 3
 191 00ac BA95     		add	a1,a4,a1
 192              	.LVL28:
  48:C:/Users/stapi/OneDrive/Desktop/GD32VW553/V1_MQTT_OK/GD32VW55X_Wifi_BLE_SDK/GD32VW55x_RELEASE_V1.0.2/MSDK/wpa_supplicant/src/crypto\rc4.c **** 		S_SWAP(i, j);
 193              		.loc 1 48 5 discriminator 3
 194 00ae 93F5F50F 		andi	a1,a1,255
 195              	.LVL29:
  49:C:/Users/stapi/OneDrive/Desktop/GD32VW553/V1_MQTT_OK/GD32VW55X_Wifi_BLE_SDK/GD32VW55x_RELEASE_V1.0.2/MSDK/wpa_supplicant/src/crypto\rc4.c **** 		*pos++ ^= S[(S[i] + S[j]) & 0xff];
 196              		.loc 1 49 3 is_stmt 1 discriminator 3
 197              	.LBB6:
  49:C:/Users/stapi/OneDrive/Desktop/GD32VW553/V1_MQTT_OK/GD32VW55X_Wifi_BLE_SDK/GD32VW55x_RELEASE_V1.0.2/MSDK/wpa_supplicant/src/crypto\rc4.c **** 		*pos++ ^= S[(S[i] + S[j]) & 0xff];
 198              		.loc 1 49 3 discriminator 3
  49:C:/Users/stapi/OneDrive/Desktop/GD32VW553/V1_MQTT_OK/GD32VW55X_Wifi_BLE_SDK/GD32VW55x_RELEASE_V1.0.2/MSDK/wpa_supplicant/src/crypto\rc4.c **** 		*pos++ ^= S[(S[i] + S[j]) & 0xff];
 199              		.loc 1 49 3 discriminator 3
 200 00b2 2E98     		add	a6,a6,a1
 201 00b4 834808F0 		lbu	a7,-256(a6)
 202 00b8 230015F1 		sb	a7,-256(a0)
  49:C:/Users/stapi/OneDrive/Desktop/GD32VW553/V1_MQTT_OK/GD32VW55X_Wifi_BLE_SDK/GD32VW55x_RELEASE_V1.0.2/MSDK/wpa_supplicant/src/crypto\rc4.c **** 		*pos++ ^= S[(S[i] + S[j]) & 0xff];
 203              		.loc 1 49 3 discriminator 3
 204 00bc 2300E8F0 		sb	a4,-256(a6)
 205              	.LBE6:
  49:C:/Users/stapi/OneDrive/Desktop/GD32VW553/V1_MQTT_OK/GD32VW55X_Wifi_BLE_SDK/GD32VW55x_RELEASE_V1.0.2/MSDK/wpa_supplicant/src/crypto\rc4.c **** 		*pos++ ^= S[(S[i] + S[j]) & 0xff];
 206              		.loc 1 49 3 discriminator 3
  50:C:/Users/stapi/OneDrive/Desktop/GD32VW553/V1_MQTT_OK/GD32VW55X_Wifi_BLE_SDK/GD32VW55x_RELEASE_V1.0.2/MSDK/wpa_supplicant/src/crypto\rc4.c **** 	}
 207              		.loc 1 50 3 discriminator 3
 208              	.LVL30:
  50:C:/Users/stapi/OneDrive/Desktop/GD32VW553/V1_MQTT_OK/GD32VW55X_Wifi_BLE_SDK/GD32VW55x_RELEASE_V1.0.2/MSDK/wpa_supplicant/src/crypto\rc4.c **** 	}
 209              		.loc 1 50 29 is_stmt 0 discriminator 3
 210 00c0 034505F0 		lbu	a0,-256(a0)
 211 00c4 2A97     		add	a4,a4,a0
 212              	.LVL31:
 213 00c6 1377F70F 		andi	a4,a4,0xff
  50:C:/Users/stapi/OneDrive/Desktop/GD32VW553/V1_MQTT_OK/GD32VW55X_Wifi_BLE_SDK/GD32VW55x_RELEASE_V1.0.2/MSDK/wpa_supplicant/src/crypto\rc4.c **** 	}
 214              		.loc 1 50 14 discriminator 3
 215 00ca 0802     		addi	a0,sp,256
 216 00cc 2A97     		add	a4,a0,a4
  50:C:/Users/stapi/OneDrive/Desktop/GD32VW553/V1_MQTT_OK/GD32VW55X_Wifi_BLE_SDK/GD32VW55x_RELEASE_V1.0.2/MSDK/wpa_supplicant/src/crypto\rc4.c **** 	}
 217              		.loc 1 50 10 discriminator 3
 218 00ce 034707F0 		lbu	a4,-256(a4)
 219 00d2 03C5F6FF 		lbu	a0,-1(a3)
 220 00d6 298F     		xor	a4,a4,a0
 221 00d8 A38FE6FE 		sb	a4,-1(a3)
  46:C:/Users/stapi/OneDrive/Desktop/GD32VW553/V1_MQTT_OK/GD32VW55X_Wifi_BLE_SDK/GD32VW55x_RELEASE_V1.0.2/MSDK/wpa_supplicant/src/crypto\rc4.c **** 		i = (i + 1) & 0xff;
 222              		.loc 1 46 28 is_stmt 1 discriminator 3
 223 00dc 59B7     		j	.L7
 224              		.cfi_endproc
 225              	.LFE71:
 227              		.text
 228              	.Letext0:
 229              		.file 2 "c:\\users\\stapi\\onedrive\\desktop\\gd32vw553\\embeddedbuilder_v1.4.7.26843\\tools\\nucl
 230              		.file 3 "c:\\users\\stapi\\onedrive\\desktop\\gd32vw553\\embeddedbuilder_v1.4.7.26843\\tools\\nucl
 231              		.file 4 "c:\\users\\stapi\\onedrive\\desktop\\gd32vw553\\embeddedbuilder_v1.4.7.26843\\tools\\nucl
 232              		.file 5 "..\\..\\..\\..\\wpa_supplicant\\src\\utils/common.h"
DEFINED SYMBOLS
                            *ABS*:0000000000000000 rc4.c
C:\Users\stapi\AppData\Local\Temp\cc8wWwbP.s:13     .text.rc4_skip:0000000000000000 rc4_skip
C:\Users\stapi\AppData\Local\Temp\cc8wWwbP.s:17     .text.rc4_skip:0000000000000000 .L0 
C:\Users\stapi\AppData\Local\Temp\cc8wWwbP.s:19     .text.rc4_skip:0000000000000000 .L0 
C:\Users\stapi\AppData\Local\Temp\cc8wWwbP.s:20     .text.rc4_skip:0000000000000000 .L0 
C:\Users\stapi\AppData\Local\Temp\cc8wWwbP.s:21     .text.rc4_skip:0000000000000000 .L0 
C:\Users\stapi\AppData\Local\Temp\cc8wWwbP.s:22     .text.rc4_skip:0000000000000000 .L0 
C:\Users\stapi\AppData\Local\Temp\cc8wWwbP.s:23     .text.rc4_skip:0000000000000000 .L0 
C:\Users\stapi\AppData\Local\Temp\cc8wWwbP.s:24     .text.rc4_skip:0000000000000000 .L0 
C:\Users\stapi\AppData\Local\Temp\cc8wWwbP.s:25     .text.rc4_skip:0000000000000000 .L0 
C:\Users\stapi\AppData\Local\Temp\cc8wWwbP.s:26     .text.rc4_skip:0000000000000002 .L0 
C:\Users\stapi\AppData\Local\Temp\cc8wWwbP.s:28     .text.rc4_skip:0000000000000002 .L0 
C:\Users\stapi\AppData\Local\Temp\cc8wWwbP.s:30     .text.rc4_skip:0000000000000004 .L0 
C:\Users\stapi\AppData\Local\Temp\cc8wWwbP.s:34     .text.rc4_skip:0000000000000008 .L0 
C:\Users\stapi\AppData\Local\Temp\cc8wWwbP.s:35     .text.rc4_skip:0000000000000008 .L0 
C:\Users\stapi\AppData\Local\Temp\cc8wWwbP.s:38     .text.rc4_skip:0000000000000010 .L0 
C:\Users\stapi\AppData\Local\Temp\cc8wWwbP.s:39     .text.rc4_skip:0000000000000010 .L0 
C:\Users\stapi\AppData\Local\Temp\cc8wWwbP.s:42     .text.rc4_skip:0000000000000012 .L0 
C:\Users\stapi\AppData\Local\Temp\cc8wWwbP.s:43     .text.rc4_skip:0000000000000012 .L0 
C:\Users\stapi\AppData\Local\Temp\cc8wWwbP.s:47     .text.rc4_skip:0000000000000018 .L0 
C:\Users\stapi\AppData\Local\Temp\cc8wWwbP.s:49     .text.rc4_skip:000000000000001a .L0 
C:\Users\stapi\AppData\Local\Temp\cc8wWwbP.s:53     .text.rc4_skip:000000000000001c .L0 
C:\Users\stapi\AppData\Local\Temp\cc8wWwbP.s:54     .text.rc4_skip:000000000000001c .L0 
C:\Users\stapi\AppData\Local\Temp\cc8wWwbP.s:56     .text.rc4_skip:0000000000000020 .L0 
C:\Users\stapi\AppData\Local\Temp\cc8wWwbP.s:58     .text.rc4_skip:0000000000000024 .L0 
C:\Users\stapi\AppData\Local\Temp\cc8wWwbP.s:60     .text.rc4_skip:0000000000000028 .L0 
C:\Users\stapi\AppData\Local\Temp\cc8wWwbP.s:63     .text.rc4_skip:000000000000002a .L0 
C:\Users\stapi\AppData\Local\Temp\cc8wWwbP.s:67     .text.rc4_skip:000000000000002e .L0 
C:\Users\stapi\AppData\Local\Temp\cc8wWwbP.s:70     .text.rc4_skip:0000000000000032 .L0 
C:\Users\stapi\AppData\Local\Temp\cc8wWwbP.s:71     .text.rc4_skip:0000000000000032 .L0 
C:\Users\stapi\AppData\Local\Temp\cc8wWwbP.s:72     .text.rc4_skip:0000000000000032 .L0 
C:\Users\stapi\AppData\Local\Temp\cc8wWwbP.s:74     .text.rc4_skip:0000000000000036 .L0 
C:\Users\stapi\AppData\Local\Temp\cc8wWwbP.s:79     .text.rc4_skip:0000000000000038 .L0 
C:\Users\stapi\AppData\Local\Temp\cc8wWwbP.s:80     .text.rc4_skip:0000000000000038 .L0 
C:\Users\stapi\AppData\Local\Temp\cc8wWwbP.s:81     .text.rc4_skip:0000000000000038 .L0 
C:\Users\stapi\AppData\Local\Temp\cc8wWwbP.s:88     .text.rc4_skip:0000000000000042 .L0 
C:\Users\stapi\AppData\Local\Temp\cc8wWwbP.s:92     .text.rc4_skip:0000000000000044 .L0 
C:\Users\stapi\AppData\Local\Temp\cc8wWwbP.s:94     .text.rc4_skip:0000000000000048 .L0 
C:\Users\stapi\AppData\Local\Temp\cc8wWwbP.s:97     .text.rc4_skip:000000000000004c .L0 
C:\Users\stapi\AppData\Local\Temp\cc8wWwbP.s:99     .text.rc4_skip:000000000000004c .L0 
C:\Users\stapi\AppData\Local\Temp\cc8wWwbP.s:100    .text.rc4_skip:000000000000004c .L0 
C:\Users\stapi\AppData\Local\Temp\cc8wWwbP.s:101    .text.rc4_skip:000000000000004c .L0 
C:\Users\stapi\AppData\Local\Temp\cc8wWwbP.s:104    .text.rc4_skip:0000000000000054 .L0 
C:\Users\stapi\AppData\Local\Temp\cc8wWwbP.s:107    .text.rc4_skip:0000000000000056 .L0 
C:\Users\stapi\AppData\Local\Temp\cc8wWwbP.s:110    .text.rc4_skip:0000000000000058 .L0 
C:\Users\stapi\AppData\Local\Temp\cc8wWwbP.s:114    .text.rc4_skip:000000000000005a .L0 
C:\Users\stapi\AppData\Local\Temp\cc8wWwbP.s:115    .text.rc4_skip:000000000000005a .L0 
C:\Users\stapi\AppData\Local\Temp\cc8wWwbP.s:120    .text.rc4_skip:0000000000000062 .L0 
C:\Users\stapi\AppData\Local\Temp\cc8wWwbP.s:121    .text.rc4_skip:0000000000000062 .L0 
C:\Users\stapi\AppData\Local\Temp\cc8wWwbP.s:123    .text.rc4_skip:0000000000000066 .L0 
C:\Users\stapi\AppData\Local\Temp\cc8wWwbP.s:124    .text.rc4_skip:0000000000000066 .L0 
C:\Users\stapi\AppData\Local\Temp\cc8wWwbP.s:126    .text.rc4_skip:000000000000006a .L0 
C:\Users\stapi\AppData\Local\Temp\cc8wWwbP.s:127    .text.rc4_skip:000000000000006a .L0 
C:\Users\stapi\AppData\Local\Temp\cc8wWwbP.s:131    .text.rc4_skip:000000000000006c .L0 
C:\Users\stapi\AppData\Local\Temp\cc8wWwbP.s:133    .text.rc4_skip:000000000000006c .L0 
C:\Users\stapi\AppData\Local\Temp\cc8wWwbP.s:134    .text.rc4_skip:000000000000006c .L0 
C:\Users\stapi\AppData\Local\Temp\cc8wWwbP.s:137    .text.rc4_skip:000000000000006e .L0 
C:\Users\stapi\AppData\Local\Temp\cc8wWwbP.s:139    .text.rc4_skip:0000000000000072 .L0 
C:\Users\stapi\AppData\Local\Temp\cc8wWwbP.s:142    .text.rc4_skip:0000000000000076 .L0 
C:\Users\stapi\AppData\Local\Temp\cc8wWwbP.s:143    .text.rc4_skip:0000000000000076 .L0 
C:\Users\stapi\AppData\Local\Temp\cc8wWwbP.s:146    .text.rc4_skip:000000000000007e .L0 
C:\Users\stapi\AppData\Local\Temp\cc8wWwbP.s:149    .text.rc4_skip:0000000000000080 .L0 
C:\Users\stapi\AppData\Local\Temp\cc8wWwbP.s:152    .text.rc4_skip:0000000000000082 .L0 
C:\Users\stapi\AppData\Local\Temp\cc8wWwbP.s:156    .text.rc4_skip:0000000000000086 .L0 
C:\Users\stapi\AppData\Local\Temp\cc8wWwbP.s:157    .text.rc4_skip:0000000000000086 .L0 
C:\Users\stapi\AppData\Local\Temp\cc8wWwbP.s:158    .text.rc4_skip:0000000000000086 .L0 
C:\Users\stapi\AppData\Local\Temp\cc8wWwbP.s:162    .text.rc4_skip:0000000000000090 .L0 
C:\Users\stapi\AppData\Local\Temp\cc8wWwbP.s:165    .text.rc4_skip:0000000000000094 .L0 
C:\Users\stapi\AppData\Local\Temp\cc8wWwbP.s:167    .text.rc4_skip:0000000000000094 .L0 
C:\Users\stapi\AppData\Local\Temp\cc8wWwbP.s:171    .text.rc4_skip:0000000000000096 .L0 
C:\Users\stapi\AppData\Local\Temp\cc8wWwbP.s:172    .text.rc4_skip:0000000000000096 .L0 
C:\Users\stapi\AppData\Local\Temp\cc8wWwbP.s:175    .text.rc4_skip:0000000000000098 .L0 
C:\Users\stapi\AppData\Local\Temp\cc8wWwbP.s:177    .text.rc4_skip:000000000000009a .L0 
C:\Users\stapi\AppData\Local\Temp\cc8wWwbP.s:180    .text.rc4_skip:000000000000009e .L0 
C:\Users\stapi\AppData\Local\Temp\cc8wWwbP.s:181    .text.rc4_skip:000000000000009e .L0 
C:\Users\stapi\AppData\Local\Temp\cc8wWwbP.s:185    .text.rc4_skip:00000000000000a6 .L0 
C:\Users\stapi\AppData\Local\Temp\cc8wWwbP.s:188    .text.rc4_skip:00000000000000aa .L0 
C:\Users\stapi\AppData\Local\Temp\cc8wWwbP.s:191    .text.rc4_skip:00000000000000ac .L0 
C:\Users\stapi\AppData\Local\Temp\cc8wWwbP.s:194    .text.rc4_skip:00000000000000ae .L0 
C:\Users\stapi\AppData\Local\Temp\cc8wWwbP.s:198    .text.rc4_skip:00000000000000b2 .L0 
C:\Users\stapi\AppData\Local\Temp\cc8wWwbP.s:199    .text.rc4_skip:00000000000000b2 .L0 
C:\Users\stapi\AppData\Local\Temp\cc8wWwbP.s:200    .text.rc4_skip:00000000000000b2 .L0 
C:\Users\stapi\AppData\Local\Temp\cc8wWwbP.s:204    .text.rc4_skip:00000000000000bc .L0 
C:\Users\stapi\AppData\Local\Temp\cc8wWwbP.s:207    .text.rc4_skip:00000000000000c0 .L0 
C:\Users\stapi\AppData\Local\Temp\cc8wWwbP.s:209    .text.rc4_skip:00000000000000c0 .L0 
C:\Users\stapi\AppData\Local\Temp\cc8wWwbP.s:210    .text.rc4_skip:00000000000000c0 .L0 
C:\Users\stapi\AppData\Local\Temp\cc8wWwbP.s:215    .text.rc4_skip:00000000000000ca .L0 
C:\Users\stapi\AppData\Local\Temp\cc8wWwbP.s:218    .text.rc4_skip:00000000000000ce .L0 
C:\Users\stapi\AppData\Local\Temp\cc8wWwbP.s:223    .text.rc4_skip:00000000000000dc .L0 
C:\Users\stapi\AppData\Local\Temp\cc8wWwbP.s:224    .text.rc4_skip:00000000000000de .L0 
C:\Users\stapi\AppData\Local\Temp\cc8wWwbP.s:227    .text.rc4_skip:00000000000000de .L0 
                     .debug_frame:0000000000000000 .L0 
C:\Users\stapi\AppData\Local\Temp\cc8wWwbP.s:32     .text.rc4_skip:0000000000000008 .L2
C:\Users\stapi\AppData\Local\Temp\cc8wWwbP.s:76     .text.rc4_skip:0000000000000038 .L3
C:\Users\stapi\AppData\Local\Temp\cc8wWwbP.s:50     .text.rc4_skip:000000000000001c .L4
C:\Users\stapi\AppData\Local\Temp\cc8wWwbP.s:130    .text.rc4_skip:000000000000006c .L6
C:\Users\stapi\AppData\Local\Temp\cc8wWwbP.s:169    .text.rc4_skip:0000000000000096 .L8
C:\Users\stapi\AppData\Local\Temp\cc8wWwbP.s:112    .text.rc4_skip:000000000000005a .L5
C:\Users\stapi\AppData\Local\Temp\cc8wWwbP.s:118    .text.rc4_skip:0000000000000062 .L7
C:\Users\stapi\AppData\Local\Temp\cc8wWwbP.s:477    .debug_abbrev:0000000000000000 .Ldebug_abbrev0
C:\Users\stapi\AppData\Local\Temp\cc8wWwbP.s:1085   .debug_str:0000000000000198 .LASF21
C:\Users\stapi\AppData\Local\Temp\cc8wWwbP.s:1071   .debug_str:000000000000002d .LASF22
C:\Users\stapi\AppData\Local\Temp\cc8wWwbP.s:1081   .debug_str:0000000000000101 .LASF23
C:\Users\stapi\AppData\Local\Temp\cc8wWwbP.s:1039   .debug_ranges:0000000000000000 .Ldebug_ranges0
C:\Users\stapi\AppData\Local\Temp\cc8wWwbP.s:1057   .debug_line:0000000000000000 .Ldebug_line0
C:\Users\stapi\AppData\Local\Temp\cc8wWwbP.s:1061   .debug_str:000000000000000a .LASF2
C:\Users\stapi\AppData\Local\Temp\cc8wWwbP.s:1089   .debug_str:000000000000029c .LASF0
C:\Users\stapi\AppData\Local\Temp\cc8wWwbP.s:1105   .debug_str:00000000000002e7 .LASF1
C:\Users\stapi\AppData\Local\Temp\cc8wWwbP.s:1059   .debug_str:0000000000000000 .LASF3
C:\Users\stapi\AppData\Local\Temp\cc8wWwbP.s:1075   .debug_str:00000000000000ce .LASF4
C:\Users\stapi\AppData\Local\Temp\cc8wWwbP.s:1097   .debug_str:00000000000002c4 .LASF5
C:\Users\stapi\AppData\Local\Temp\cc8wWwbP.s:1079   .debug_str:00000000000000ee .LASF6
C:\Users\stapi\AppData\Local\Temp\cc8wWwbP.s:1103   .debug_str:00000000000002de .LASF7
C:\Users\stapi\AppData\Local\Temp\cc8wWwbP.s:1087   .debug_str:0000000000000291 .LASF8
C:\Users\stapi\AppData\Local\Temp\cc8wWwbP.s:1077   .debug_str:00000000000000dc .LASF9
C:\Users\stapi\AppData\Local\Temp\cc8wWwbP.s:1095   .debug_str:00000000000002b6 .LASF10
C:\Users\stapi\AppData\Local\Temp\cc8wWwbP.s:1073   .debug_str:00000000000000b7 .LASF11
C:\Users\stapi\AppData\Local\Temp\cc8wWwbP.s:1091   .debug_str:00000000000002a9 .LASF12
C:\Users\stapi\AppData\Local\Temp\cc8wWwbP.s:1093   .debug_str:00000000000002ae .LASF13
C:\Users\stapi\AppData\Local\Temp\cc8wWwbP.s:1101   .debug_str:00000000000002d5 .LASF14
C:\Users\stapi\AppData\Local\Temp\cc8wWwbP.s:1107   .debug_str:00000000000002f3 .LASF15
C:\Users\stapi\AppData\Local\Temp\cc8wWwbP.s:1069   .debug_str:0000000000000024 .LASF24
C:\Users\stapi\AppData\Local\Temp\cc8wWwbP.s:14     .text.rc4_skip:0000000000000000 .LFB71
C:\Users\stapi\AppData\Local\Temp\cc8wWwbP.s:225    .text.rc4_skip:00000000000000de .LFE71
C:\Users\stapi\AppData\Local\Temp\cc8wWwbP.s:725    .debug_loc:0000000000000000 .LLST0
C:\Users\stapi\AppData\Local\Temp\cc8wWwbP.s:1099   .debug_str:00000000000002ce .LASF16
C:\Users\stapi\AppData\Local\Temp\cc8wWwbP.s:739    .debug_loc:0000000000000021 .LLST1
C:\Users\stapi\AppData\Local\Temp\cc8wWwbP.s:1063   .debug_str:0000000000000011 .LASF17
C:\Users\stapi\AppData\Local\Temp\cc8wWwbP.s:753    .debug_loc:0000000000000042 .LLST2
C:\Users\stapi\AppData\Local\Temp\cc8wWwbP.s:1065   .debug_str:0000000000000016 .LASF18
C:\Users\stapi\AppData\Local\Temp\cc8wWwbP.s:778    .debug_loc:000000000000007c .LLST3
C:\Users\stapi\AppData\Local\Temp\cc8wWwbP.s:1067   .debug_str:000000000000001b .LASF19
C:\Users\stapi\AppData\Local\Temp\cc8wWwbP.s:803    .debug_loc:00000000000000b6 .LLST4
C:\Users\stapi\AppData\Local\Temp\cc8wWwbP.s:828    .debug_loc:00000000000000f0 .LLST5
C:\Users\stapi\AppData\Local\Temp\cc8wWwbP.s:908    .debug_loc:0000000000000196 .LLST6
C:\Users\stapi\AppData\Local\Temp\cc8wWwbP.s:931    .debug_loc:00000000000001d5 .LLST7
C:\Users\stapi\AppData\Local\Temp\cc8wWwbP.s:962    .debug_loc:0000000000000223 .LLST8
C:\Users\stapi\AppData\Local\Temp\cc8wWwbP.s:1083   .debug_str:0000000000000193 .LASF20
C:\Users\stapi\AppData\Local\Temp\cc8wWwbP.s:983    .debug_loc:0000000000000259 .LLST9
C:\Users\stapi\AppData\Local\Temp\cc8wWwbP.s:1000   .debug_loc:0000000000000284 .LLST10
C:\Users\stapi\AppData\Local\Temp\cc8wWwbP.s:155    .text.rc4_skip:0000000000000086 .LBB4
C:\Users\stapi\AppData\Local\Temp\cc8wWwbP.s:163    .text.rc4_skip:0000000000000094 .LBE4
C:\Users\stapi\AppData\Local\Temp\cc8wWwbP.s:1007   .debug_loc:0000000000000297 .LLST11
C:\Users\stapi\AppData\Local\Temp\cc8wWwbP.s:1014   .debug_loc:00000000000002aa .LLST12
C:\Users\stapi\AppData\Local\Temp\cc8wWwbP.s:18     .text.rc4_skip:0000000000000000 .LVL0
C:\Users\stapi\AppData\Local\Temp\cc8wWwbP.s:105    .text.rc4_skip:0000000000000056 .LVL13
C:\Users\stapi\AppData\Local\Temp\cc8wWwbP.s:108    .text.rc4_skip:0000000000000058 .LVL14
C:\Users\stapi\AppData\Local\Temp\cc8wWwbP.s:117    .text.rc4_skip:0000000000000062 .LVL16
C:\Users\stapi\AppData\Local\Temp\cc8wWwbP.s:129    .text.rc4_skip:000000000000006c .LVL17
C:\Users\stapi\AppData\Local\Temp\cc8wWwbP.s:168    .text.rc4_skip:0000000000000096 .LVL24
C:\Users\stapi\AppData\Local\Temp\cc8wWwbP.s:31     .text.rc4_skip:0000000000000008 .LVL1
C:\Users\stapi\AppData\Local\Temp\cc8wWwbP.s:45     .text.rc4_skip:0000000000000018 .LVL3
C:\Users\stapi\AppData\Local\Temp\cc8wWwbP.s:51     .text.rc4_skip:000000000000001c .LVL4
C:\Users\stapi\AppData\Local\Temp\cc8wWwbP.s:82     .text.rc4_skip:000000000000003c .LVL9
C:\Users\stapi\AppData\Local\Temp\cc8wWwbP.s:84     .text.rc4_skip:000000000000003e .LVL10
C:\Users\stapi\AppData\Local\Temp\cc8wWwbP.s:89     .text.rc4_skip:0000000000000044 .LVL11
C:\Users\stapi\AppData\Local\Temp\cc8wWwbP.s:98     .text.rc4_skip:000000000000004c .LVL12
C:\Users\stapi\AppData\Local\Temp\cc8wWwbP.s:111    .text.rc4_skip:000000000000005a .LVL15
C:\Users\stapi\AppData\Local\Temp\cc8wWwbP.s:135    .text.rc4_skip:000000000000006e .LVL18
C:\Users\stapi\AppData\Local\Temp\cc8wWwbP.s:140    .text.rc4_skip:0000000000000076 .LVL19
C:\Users\stapi\AppData\Local\Temp\cc8wWwbP.s:173    .text.rc4_skip:0000000000000098 .LVL25
C:\Users\stapi\AppData\Local\Temp\cc8wWwbP.s:178    .text.rc4_skip:000000000000009e .LVL26
C:\Users\stapi\AppData\Local\Temp\cc8wWwbP.s:65     .text.rc4_skip:000000000000002e .LVL6
C:\Users\stapi\AppData\Local\Temp\cc8wWwbP.s:68     .text.rc4_skip:0000000000000032 .LVL7
C:\Users\stapi\AppData\Local\Temp\cc8wWwbP.s:150    .text.rc4_skip:0000000000000082 .LVL21
C:\Users\stapi\AppData\Local\Temp\cc8wWwbP.s:153    .text.rc4_skip:0000000000000086 .LVL22
C:\Users\stapi\AppData\Local\Temp\cc8wWwbP.s:192    .text.rc4_skip:00000000000000ae .LVL28
C:\Users\stapi\AppData\Local\Temp\cc8wWwbP.s:195    .text.rc4_skip:00000000000000b2 .LVL29
C:\Users\stapi\AppData\Local\Temp\cc8wWwbP.s:147    .text.rc4_skip:0000000000000080 .LVL20
C:\Users\stapi\AppData\Local\Temp\cc8wWwbP.s:166    .text.rc4_skip:0000000000000094 .LVL23
C:\Users\stapi\AppData\Local\Temp\cc8wWwbP.s:189    .text.rc4_skip:00000000000000ac .LVL27
C:\Users\stapi\AppData\Local\Temp\cc8wWwbP.s:208    .text.rc4_skip:00000000000000c0 .LVL30
C:\Users\stapi\AppData\Local\Temp\cc8wWwbP.s:61     .text.rc4_skip:000000000000002a .LVL5
C:\Users\stapi\AppData\Local\Temp\cc8wWwbP.s:75     .text.rc4_skip:0000000000000038 .LVL8
C:\Users\stapi\AppData\Local\Temp\cc8wWwbP.s:212    .text.rc4_skip:00000000000000c6 .LVL31
C:\Users\stapi\AppData\Local\Temp\cc8wWwbP.s:234    .debug_info:0000000000000000 .Ldebug_info0
C:\Users\stapi\AppData\Local\Temp\cc8wWwbP.s:78     .text.rc4_skip:0000000000000038 .LBB2
C:\Users\stapi\AppData\Local\Temp\cc8wWwbP.s:86     .text.rc4_skip:0000000000000042 .LBE2
C:\Users\stapi\AppData\Local\Temp\cc8wWwbP.s:90     .text.rc4_skip:0000000000000044 .LBB3
C:\Users\stapi\AppData\Local\Temp\cc8wWwbP.s:95     .text.rc4_skip:000000000000004c .LBE3
C:\Users\stapi\AppData\Local\Temp\cc8wWwbP.s:183    .text.rc4_skip:00000000000000a6 .LBB5
C:\Users\stapi\AppData\Local\Temp\cc8wWwbP.s:186    .text.rc4_skip:00000000000000aa .LBE5
C:\Users\stapi\AppData\Local\Temp\cc8wWwbP.s:197    .text.rc4_skip:00000000000000b2 .LBB6
C:\Users\stapi\AppData\Local\Temp\cc8wWwbP.s:205    .text.rc4_skip:00000000000000c0 .LBE6

NO UNDEFINED SYMBOLS
