   1              		.file	"scan.c"
   2              		.option nopic
   3              		.attribute arch, "rv32i2p0_m2p0_a2p0_f2p0_c2p0_b_p0p94"
   4              		.attribute unaligned_access, 0
   5              		.attribute stack_align, 16
   6              		.text
   7              	.Ltext0:
   8              		.cfi_sections	.debug_frame
   9              		.section	.text.WPA_GET_BE32,"ax",@progbits
  10              		.align	1
  12              	WPA_GET_BE32:
  13              	.LFB34:
  14              		.file 1 "..\\..\\..\\..\\wpa_supplicant\\src/utils/common.h"
   1:..\..\..\..\wpa_supplicant\src/utils/common.h **** /*
   2:..\..\..\..\wpa_supplicant\src/utils/common.h ****  * wpa_supplicant/hostapd / common helper functions, etc.
   3:..\..\..\..\wpa_supplicant\src/utils/common.h ****  * Copyright (c) 2002-2007, Jouni Malinen <j@w1.fi>
   4:..\..\..\..\wpa_supplicant\src/utils/common.h ****  *
   5:..\..\..\..\wpa_supplicant\src/utils/common.h ****  * This software may be distributed under the terms of the BSD license.
   6:..\..\..\..\wpa_supplicant\src/utils/common.h ****  * See README for more details.
   7:..\..\..\..\wpa_supplicant\src/utils/common.h ****  */
   8:..\..\..\..\wpa_supplicant\src/utils/common.h **** 
   9:..\..\..\..\wpa_supplicant\src/utils/common.h **** #ifndef COMMON_H
  10:..\..\..\..\wpa_supplicant\src/utils/common.h **** #define COMMON_H
  11:..\..\..\..\wpa_supplicant\src/utils/common.h **** 
  12:..\..\..\..\wpa_supplicant\src/utils/common.h **** #include "os.h"
  13:..\..\..\..\wpa_supplicant\src/utils/common.h **** 
  14:..\..\..\..\wpa_supplicant\src/utils/common.h **** #if defined(__linux__) || defined(__GLIBC__)
  15:..\..\..\..\wpa_supplicant\src/utils/common.h **** #include <endian.h>
  16:..\..\..\..\wpa_supplicant\src/utils/common.h **** #include <byteswap.h>
  17:..\..\..\..\wpa_supplicant\src/utils/common.h **** #endif /* __linux__ */
  18:..\..\..\..\wpa_supplicant\src/utils/common.h **** 
  19:..\..\..\..\wpa_supplicant\src/utils/common.h **** #if defined(__FreeBSD__) || defined(__NetBSD__) || defined(__DragonFly__) || \
  20:..\..\..\..\wpa_supplicant\src/utils/common.h ****     defined(__OpenBSD__)
  21:..\..\..\..\wpa_supplicant\src/utils/common.h **** #include <sys/types.h>
  22:..\..\..\..\wpa_supplicant\src/utils/common.h **** #include <sys/endian.h>
  23:..\..\..\..\wpa_supplicant\src/utils/common.h **** #define __BYTE_ORDER	_BYTE_ORDER
  24:..\..\..\..\wpa_supplicant\src/utils/common.h **** #define	__LITTLE_ENDIAN	_LITTLE_ENDIAN
  25:..\..\..\..\wpa_supplicant\src/utils/common.h **** #define	__BIG_ENDIAN	_BIG_ENDIAN
  26:..\..\..\..\wpa_supplicant\src/utils/common.h **** #ifdef __OpenBSD__
  27:..\..\..\..\wpa_supplicant\src/utils/common.h **** #define bswap_16 swap16
  28:..\..\..\..\wpa_supplicant\src/utils/common.h **** #define bswap_32 swap32
  29:..\..\..\..\wpa_supplicant\src/utils/common.h **** #define bswap_64 swap64
  30:..\..\..\..\wpa_supplicant\src/utils/common.h **** #else /* __OpenBSD__ */
  31:..\..\..\..\wpa_supplicant\src/utils/common.h **** #define bswap_16 bswap16
  32:..\..\..\..\wpa_supplicant\src/utils/common.h **** #define bswap_32 bswap32
  33:..\..\..\..\wpa_supplicant\src/utils/common.h **** #define bswap_64 bswap64
  34:..\..\..\..\wpa_supplicant\src/utils/common.h **** #endif /* __OpenBSD__ */
  35:..\..\..\..\wpa_supplicant\src/utils/common.h **** #endif /* defined(__FreeBSD__) || defined(__NetBSD__) ||
  36:..\..\..\..\wpa_supplicant\src/utils/common.h **** 	* defined(__DragonFly__) || defined(__OpenBSD__) */
  37:..\..\..\..\wpa_supplicant\src/utils/common.h **** 
  38:..\..\..\..\wpa_supplicant\src/utils/common.h **** #ifdef __APPLE__
  39:..\..\..\..\wpa_supplicant\src/utils/common.h **** #include <sys/types.h>
  40:..\..\..\..\wpa_supplicant\src/utils/common.h **** #include <machine/endian.h>
  41:..\..\..\..\wpa_supplicant\src/utils/common.h **** #define __BYTE_ORDER	_BYTE_ORDER
  42:..\..\..\..\wpa_supplicant\src/utils/common.h **** #define __LITTLE_ENDIAN	_LITTLE_ENDIAN
  43:..\..\..\..\wpa_supplicant\src/utils/common.h **** #define __BIG_ENDIAN	_BIG_ENDIAN
  44:..\..\..\..\wpa_supplicant\src/utils/common.h **** static inline unsigned short bswap_16(unsigned short v)
  45:..\..\..\..\wpa_supplicant\src/utils/common.h **** {
  46:..\..\..\..\wpa_supplicant\src/utils/common.h **** 	return ((v & 0xff) << 8) | (v >> 8);
  47:..\..\..\..\wpa_supplicant\src/utils/common.h **** }
  48:..\..\..\..\wpa_supplicant\src/utils/common.h **** 
  49:..\..\..\..\wpa_supplicant\src/utils/common.h **** static inline unsigned int bswap_32(unsigned int v)
  50:..\..\..\..\wpa_supplicant\src/utils/common.h **** {
  51:..\..\..\..\wpa_supplicant\src/utils/common.h **** 	return ((v & 0xff) << 24) | ((v & 0xff00) << 8) |
  52:..\..\..\..\wpa_supplicant\src/utils/common.h **** 		((v & 0xff0000) >> 8) | (v >> 24);
  53:..\..\..\..\wpa_supplicant\src/utils/common.h **** }
  54:..\..\..\..\wpa_supplicant\src/utils/common.h **** #endif /* __APPLE__ */
  55:..\..\..\..\wpa_supplicant\src/utils/common.h **** 
  56:..\..\..\..\wpa_supplicant\src/utils/common.h **** #ifdef CONFIG_GDWIFI
  57:..\..\..\..\wpa_supplicant\src/utils/common.h **** // #include <sys/types.h>
  58:..\..\..\..\wpa_supplicant\src/utils/common.h **** // #include <machine/endian.h>
  59:..\..\..\..\wpa_supplicant\src/utils/common.h **** #define __BYTE_ORDER	BYTE_ORDER
  60:..\..\..\..\wpa_supplicant\src/utils/common.h **** #define __LITTLE_ENDIAN	LITTLE_ENDIAN
  61:..\..\..\..\wpa_supplicant\src/utils/common.h **** #define __BIG_ENDIAN	BIG_ENDIAN
  62:..\..\..\..\wpa_supplicant\src/utils/common.h **** #define ETHER_ADDR_LEN	6
  63:..\..\..\..\wpa_supplicant\src/utils/common.h **** #define ETH_P_802_3	0x0001		/* Dummy type for 802.3 frames  */
  64:..\..\..\..\wpa_supplicant\src/utils/common.h **** 
  65:..\..\..\..\wpa_supplicant\src/utils/common.h **** static inline unsigned short bswap_16(unsigned short v)
  66:..\..\..\..\wpa_supplicant\src/utils/common.h **** {
  67:..\..\..\..\wpa_supplicant\src/utils/common.h **** 	return ((v & 0xff) << 8) | (v >> 8);
  68:..\..\..\..\wpa_supplicant\src/utils/common.h **** }
  69:..\..\..\..\wpa_supplicant\src/utils/common.h **** 
  70:..\..\..\..\wpa_supplicant\src/utils/common.h **** static inline unsigned int bswap_32(unsigned int v)
  71:..\..\..\..\wpa_supplicant\src/utils/common.h **** {
  72:..\..\..\..\wpa_supplicant\src/utils/common.h **** 	return ((v & 0xff) << 24) | ((v & 0xff00) << 8) |
  73:..\..\..\..\wpa_supplicant\src/utils/common.h **** 		((v & 0xff0000) >> 8) | (v >> 24);
  74:..\..\..\..\wpa_supplicant\src/utils/common.h **** }
  75:..\..\..\..\wpa_supplicant\src/utils/common.h **** 
  76:..\..\..\..\wpa_supplicant\src/utils/common.h **** struct ether_header
  77:..\..\..\..\wpa_supplicant\src/utils/common.h **** {
  78:..\..\..\..\wpa_supplicant\src/utils/common.h **** 	uint8_t  ether_dhost[ETHER_ADDR_LEN];
  79:..\..\..\..\wpa_supplicant\src/utils/common.h **** 	uint8_t  ether_shost[ETHER_ADDR_LEN];
  80:..\..\..\..\wpa_supplicant\src/utils/common.h **** 	uint16_t ether_type;
  81:..\..\..\..\wpa_supplicant\src/utils/common.h **** } __PACKED;
  82:..\..\..\..\wpa_supplicant\src/utils/common.h **** #endif /* CONFIG_GDWIFI */
  83:..\..\..\..\wpa_supplicant\src/utils/common.h **** #ifdef __rtems__
  84:..\..\..\..\wpa_supplicant\src/utils/common.h **** #include <rtems/endian.h>
  85:..\..\..\..\wpa_supplicant\src/utils/common.h **** #define __BYTE_ORDER BYTE_ORDER
  86:..\..\..\..\wpa_supplicant\src/utils/common.h **** #define __LITTLE_ENDIAN LITTLE_ENDIAN
  87:..\..\..\..\wpa_supplicant\src/utils/common.h **** #define __BIG_ENDIAN BIG_ENDIAN
  88:..\..\..\..\wpa_supplicant\src/utils/common.h **** #define bswap_16 CPU_swap_u16
  89:..\..\..\..\wpa_supplicant\src/utils/common.h **** #define bswap_32 CPU_swap_u32
  90:..\..\..\..\wpa_supplicant\src/utils/common.h **** #endif /* __rtems__ */
  91:..\..\..\..\wpa_supplicant\src/utils/common.h **** 
  92:..\..\..\..\wpa_supplicant\src/utils/common.h **** #ifdef CONFIG_NATIVE_WINDOWS
  93:..\..\..\..\wpa_supplicant\src/utils/common.h **** #include <winsock.h>
  94:..\..\..\..\wpa_supplicant\src/utils/common.h **** 
  95:..\..\..\..\wpa_supplicant\src/utils/common.h **** typedef int socklen_t;
  96:..\..\..\..\wpa_supplicant\src/utils/common.h **** 
  97:..\..\..\..\wpa_supplicant\src/utils/common.h **** #ifndef MSG_DONTWAIT
  98:..\..\..\..\wpa_supplicant\src/utils/common.h **** #define MSG_DONTWAIT 0 /* not supported */
  99:..\..\..\..\wpa_supplicant\src/utils/common.h **** #endif
 100:..\..\..\..\wpa_supplicant\src/utils/common.h **** 
 101:..\..\..\..\wpa_supplicant\src/utils/common.h **** #endif /* CONFIG_NATIVE_WINDOWS */
 102:..\..\..\..\wpa_supplicant\src/utils/common.h **** 
 103:..\..\..\..\wpa_supplicant\src/utils/common.h **** #ifdef _MSC_VER
 104:..\..\..\..\wpa_supplicant\src/utils/common.h **** #define inline __inline
 105:..\..\..\..\wpa_supplicant\src/utils/common.h **** 
 106:..\..\..\..\wpa_supplicant\src/utils/common.h **** #undef vsnprintf
 107:..\..\..\..\wpa_supplicant\src/utils/common.h **** #define vsnprintf _vsnprintf
 108:..\..\..\..\wpa_supplicant\src/utils/common.h **** #undef close
 109:..\..\..\..\wpa_supplicant\src/utils/common.h **** #define close closesocket
 110:..\..\..\..\wpa_supplicant\src/utils/common.h **** #endif /* _MSC_VER */
 111:..\..\..\..\wpa_supplicant\src/utils/common.h **** 
 112:..\..\..\..\wpa_supplicant\src/utils/common.h **** 
 113:..\..\..\..\wpa_supplicant\src/utils/common.h **** /* Define platform specific integer types */
 114:..\..\..\..\wpa_supplicant\src/utils/common.h **** 
 115:..\..\..\..\wpa_supplicant\src/utils/common.h **** #ifdef _MSC_VER
 116:..\..\..\..\wpa_supplicant\src/utils/common.h **** typedef UINT64 u64;
 117:..\..\..\..\wpa_supplicant\src/utils/common.h **** typedef UINT32 u32;
 118:..\..\..\..\wpa_supplicant\src/utils/common.h **** typedef UINT16 u16;
 119:..\..\..\..\wpa_supplicant\src/utils/common.h **** typedef UINT8 u8;
 120:..\..\..\..\wpa_supplicant\src/utils/common.h **** typedef INT64 s64;
 121:..\..\..\..\wpa_supplicant\src/utils/common.h **** typedef INT32 s32;
 122:..\..\..\..\wpa_supplicant\src/utils/common.h **** typedef INT16 s16;
 123:..\..\..\..\wpa_supplicant\src/utils/common.h **** typedef INT8 s8;
 124:..\..\..\..\wpa_supplicant\src/utils/common.h **** #define WPA_TYPES_DEFINED
 125:..\..\..\..\wpa_supplicant\src/utils/common.h **** #endif /* _MSC_VER */
 126:..\..\..\..\wpa_supplicant\src/utils/common.h **** 
 127:..\..\..\..\wpa_supplicant\src/utils/common.h **** #ifdef __vxworks
 128:..\..\..\..\wpa_supplicant\src/utils/common.h **** typedef unsigned long long u64;
 129:..\..\..\..\wpa_supplicant\src/utils/common.h **** typedef UINT32 u32;
 130:..\..\..\..\wpa_supplicant\src/utils/common.h **** typedef UINT16 u16;
 131:..\..\..\..\wpa_supplicant\src/utils/common.h **** typedef UINT8 u8;
 132:..\..\..\..\wpa_supplicant\src/utils/common.h **** typedef long long s64;
 133:..\..\..\..\wpa_supplicant\src/utils/common.h **** typedef INT32 s32;
 134:..\..\..\..\wpa_supplicant\src/utils/common.h **** typedef INT16 s16;
 135:..\..\..\..\wpa_supplicant\src/utils/common.h **** typedef INT8 s8;
 136:..\..\..\..\wpa_supplicant\src/utils/common.h **** #define WPA_TYPES_DEFINED
 137:..\..\..\..\wpa_supplicant\src/utils/common.h **** #endif /* __vxworks */
 138:..\..\..\..\wpa_supplicant\src/utils/common.h **** 
 139:..\..\..\..\wpa_supplicant\src/utils/common.h **** #ifndef WPA_TYPES_DEFINED
 140:..\..\..\..\wpa_supplicant\src/utils/common.h **** #ifdef CONFIG_USE_INTTYPES_H
 141:..\..\..\..\wpa_supplicant\src/utils/common.h **** #include <inttypes.h>
 142:..\..\..\..\wpa_supplicant\src/utils/common.h **** #else
 143:..\..\..\..\wpa_supplicant\src/utils/common.h **** #include <stdint.h>
 144:..\..\..\..\wpa_supplicant\src/utils/common.h **** #endif
 145:..\..\..\..\wpa_supplicant\src/utils/common.h **** typedef uint64_t u64;
 146:..\..\..\..\wpa_supplicant\src/utils/common.h **** typedef uint32_t u32;
 147:..\..\..\..\wpa_supplicant\src/utils/common.h **** typedef uint16_t u16;
 148:..\..\..\..\wpa_supplicant\src/utils/common.h **** typedef uint8_t u8;
 149:..\..\..\..\wpa_supplicant\src/utils/common.h **** typedef int64_t s64;
 150:..\..\..\..\wpa_supplicant\src/utils/common.h **** typedef int32_t s32;
 151:..\..\..\..\wpa_supplicant\src/utils/common.h **** typedef int16_t s16;
 152:..\..\..\..\wpa_supplicant\src/utils/common.h **** typedef int8_t s8;
 153:..\..\..\..\wpa_supplicant\src/utils/common.h **** #define WPA_TYPES_DEFINED
 154:..\..\..\..\wpa_supplicant\src/utils/common.h **** #endif /* !WPA_TYPES_DEFINED */
 155:..\..\..\..\wpa_supplicant\src/utils/common.h **** 
 156:..\..\..\..\wpa_supplicant\src/utils/common.h **** 
 157:..\..\..\..\wpa_supplicant\src/utils/common.h **** /* Define platform specific byte swapping macros */
 158:..\..\..\..\wpa_supplicant\src/utils/common.h **** 
 159:..\..\..\..\wpa_supplicant\src/utils/common.h **** #if defined(__CYGWIN__) || defined(CONFIG_NATIVE_WINDOWS)
 160:..\..\..\..\wpa_supplicant\src/utils/common.h **** 
 161:..\..\..\..\wpa_supplicant\src/utils/common.h **** static inline unsigned short wpa_swap_16(unsigned short v)
 162:..\..\..\..\wpa_supplicant\src/utils/common.h **** {
 163:..\..\..\..\wpa_supplicant\src/utils/common.h **** 	return ((v & 0xff) << 8) | (v >> 8);
 164:..\..\..\..\wpa_supplicant\src/utils/common.h **** }
 165:..\..\..\..\wpa_supplicant\src/utils/common.h **** 
 166:..\..\..\..\wpa_supplicant\src/utils/common.h **** static inline unsigned int wpa_swap_32(unsigned int v)
 167:..\..\..\..\wpa_supplicant\src/utils/common.h **** {
 168:..\..\..\..\wpa_supplicant\src/utils/common.h **** 	return ((v & 0xff) << 24) | ((v & 0xff00) << 8) |
 169:..\..\..\..\wpa_supplicant\src/utils/common.h **** 		((v & 0xff0000) >> 8) | (v >> 24);
 170:..\..\..\..\wpa_supplicant\src/utils/common.h **** }
 171:..\..\..\..\wpa_supplicant\src/utils/common.h **** 
 172:..\..\..\..\wpa_supplicant\src/utils/common.h **** #define le_to_host16(n) (n)
 173:..\..\..\..\wpa_supplicant\src/utils/common.h **** #define host_to_le16(n) (n)
 174:..\..\..\..\wpa_supplicant\src/utils/common.h **** #define be_to_host16(n) wpa_swap_16(n)
 175:..\..\..\..\wpa_supplicant\src/utils/common.h **** #define host_to_be16(n) wpa_swap_16(n)
 176:..\..\..\..\wpa_supplicant\src/utils/common.h **** #define le_to_host32(n) (n)
 177:..\..\..\..\wpa_supplicant\src/utils/common.h **** #define host_to_le32(n) (n)
 178:..\..\..\..\wpa_supplicant\src/utils/common.h **** #define be_to_host32(n) wpa_swap_32(n)
 179:..\..\..\..\wpa_supplicant\src/utils/common.h **** #define host_to_be32(n) wpa_swap_32(n)
 180:..\..\..\..\wpa_supplicant\src/utils/common.h **** #define host_to_le64(n) (n)
 181:..\..\..\..\wpa_supplicant\src/utils/common.h **** 
 182:..\..\..\..\wpa_supplicant\src/utils/common.h **** #define WPA_BYTE_SWAP_DEFINED
 183:..\..\..\..\wpa_supplicant\src/utils/common.h **** 
 184:..\..\..\..\wpa_supplicant\src/utils/common.h **** #endif /* __CYGWIN__ || CONFIG_NATIVE_WINDOWS */
 185:..\..\..\..\wpa_supplicant\src/utils/common.h **** 
 186:..\..\..\..\wpa_supplicant\src/utils/common.h **** 
 187:..\..\..\..\wpa_supplicant\src/utils/common.h **** #ifndef WPA_BYTE_SWAP_DEFINED
 188:..\..\..\..\wpa_supplicant\src/utils/common.h **** 
 189:..\..\..\..\wpa_supplicant\src/utils/common.h **** #ifndef __BYTE_ORDER
 190:..\..\..\..\wpa_supplicant\src/utils/common.h **** #ifndef __LITTLE_ENDIAN
 191:..\..\..\..\wpa_supplicant\src/utils/common.h **** #ifndef __BIG_ENDIAN
 192:..\..\..\..\wpa_supplicant\src/utils/common.h **** #define __LITTLE_ENDIAN 1234
 193:..\..\..\..\wpa_supplicant\src/utils/common.h **** #define __BIG_ENDIAN 4321
 194:..\..\..\..\wpa_supplicant\src/utils/common.h **** #if defined(sparc)
 195:..\..\..\..\wpa_supplicant\src/utils/common.h **** #define __BYTE_ORDER __BIG_ENDIAN
 196:..\..\..\..\wpa_supplicant\src/utils/common.h **** #endif
 197:..\..\..\..\wpa_supplicant\src/utils/common.h **** #endif /* __BIG_ENDIAN */
 198:..\..\..\..\wpa_supplicant\src/utils/common.h **** #endif /* __LITTLE_ENDIAN */
 199:..\..\..\..\wpa_supplicant\src/utils/common.h **** #endif /* __BYTE_ORDER */
 200:..\..\..\..\wpa_supplicant\src/utils/common.h **** 
 201:..\..\..\..\wpa_supplicant\src/utils/common.h **** #if __BYTE_ORDER == __LITTLE_ENDIAN
 202:..\..\..\..\wpa_supplicant\src/utils/common.h **** #define le_to_host16(n) ((__force u16) (le16) (n))
 203:..\..\..\..\wpa_supplicant\src/utils/common.h **** #define host_to_le16(n) ((__force le16) (u16) (n))
 204:..\..\..\..\wpa_supplicant\src/utils/common.h **** #define be_to_host16(n) bswap_16((__force u16) (be16) (n))
 205:..\..\..\..\wpa_supplicant\src/utils/common.h **** #define host_to_be16(n) ((__force be16) bswap_16((n)))
 206:..\..\..\..\wpa_supplicant\src/utils/common.h **** #define le_to_host32(n) ((__force u32) (le32) (n))
 207:..\..\..\..\wpa_supplicant\src/utils/common.h **** #define host_to_le32(n) ((__force le32) (u32) (n))
 208:..\..\..\..\wpa_supplicant\src/utils/common.h **** #define be_to_host32(n) bswap_32((__force u32) (be32) (n))
 209:..\..\..\..\wpa_supplicant\src/utils/common.h **** #define host_to_be32(n) ((__force be32) bswap_32((n)))
 210:..\..\..\..\wpa_supplicant\src/utils/common.h **** #define le_to_host64(n) ((__force u64) (le64) (n))
 211:..\..\..\..\wpa_supplicant\src/utils/common.h **** #define host_to_le64(n) ((__force le64) (u64) (n))
 212:..\..\..\..\wpa_supplicant\src/utils/common.h **** #define be_to_host64(n) bswap_64((__force u64) (be64) (n))
 213:..\..\..\..\wpa_supplicant\src/utils/common.h **** #define host_to_be64(n) ((__force be64) bswap_64((n)))
 214:..\..\..\..\wpa_supplicant\src/utils/common.h **** #elif __BYTE_ORDER == __BIG_ENDIAN
 215:..\..\..\..\wpa_supplicant\src/utils/common.h **** #define le_to_host16(n) bswap_16(n)
 216:..\..\..\..\wpa_supplicant\src/utils/common.h **** #define host_to_le16(n) bswap_16(n)
 217:..\..\..\..\wpa_supplicant\src/utils/common.h **** #define be_to_host16(n) (n)
 218:..\..\..\..\wpa_supplicant\src/utils/common.h **** #define host_to_be16(n) (n)
 219:..\..\..\..\wpa_supplicant\src/utils/common.h **** #define le_to_host32(n) bswap_32(n)
 220:..\..\..\..\wpa_supplicant\src/utils/common.h **** #define host_to_le32(n) bswap_32(n)
 221:..\..\..\..\wpa_supplicant\src/utils/common.h **** #define be_to_host32(n) (n)
 222:..\..\..\..\wpa_supplicant\src/utils/common.h **** #define host_to_be32(n) (n)
 223:..\..\..\..\wpa_supplicant\src/utils/common.h **** #define le_to_host64(n) bswap_64(n)
 224:..\..\..\..\wpa_supplicant\src/utils/common.h **** #define host_to_le64(n) bswap_64(n)
 225:..\..\..\..\wpa_supplicant\src/utils/common.h **** #define be_to_host64(n) (n)
 226:..\..\..\..\wpa_supplicant\src/utils/common.h **** #define host_to_be64(n) (n)
 227:..\..\..\..\wpa_supplicant\src/utils/common.h **** #ifndef WORDS_BIGENDIAN
 228:..\..\..\..\wpa_supplicant\src/utils/common.h **** #define WORDS_BIGENDIAN
 229:..\..\..\..\wpa_supplicant\src/utils/common.h **** #endif
 230:..\..\..\..\wpa_supplicant\src/utils/common.h **** #else
 231:..\..\..\..\wpa_supplicant\src/utils/common.h **** #error Could not determine CPU byte order
 232:..\..\..\..\wpa_supplicant\src/utils/common.h **** #endif
 233:..\..\..\..\wpa_supplicant\src/utils/common.h **** 
 234:..\..\..\..\wpa_supplicant\src/utils/common.h **** #define WPA_BYTE_SWAP_DEFINED
 235:..\..\..\..\wpa_supplicant\src/utils/common.h **** #endif /* !WPA_BYTE_SWAP_DEFINED */
 236:..\..\..\..\wpa_supplicant\src/utils/common.h **** 
 237:..\..\..\..\wpa_supplicant\src/utils/common.h **** 
 238:..\..\..\..\wpa_supplicant\src/utils/common.h **** /* Macros for handling unaligned memory accesses */
 239:..\..\..\..\wpa_supplicant\src/utils/common.h **** 
 240:..\..\..\..\wpa_supplicant\src/utils/common.h **** static inline u16 WPA_GET_BE16(const u8 *a)
 241:..\..\..\..\wpa_supplicant\src/utils/common.h **** {
 242:..\..\..\..\wpa_supplicant\src/utils/common.h **** 	return (a[0] << 8) | a[1];
 243:..\..\..\..\wpa_supplicant\src/utils/common.h **** }
 244:..\..\..\..\wpa_supplicant\src/utils/common.h **** 
 245:..\..\..\..\wpa_supplicant\src/utils/common.h **** static inline void WPA_PUT_BE16(u8 *a, u16 val)
 246:..\..\..\..\wpa_supplicant\src/utils/common.h **** {
 247:..\..\..\..\wpa_supplicant\src/utils/common.h **** 	a[0] = val >> 8;
 248:..\..\..\..\wpa_supplicant\src/utils/common.h **** 	a[1] = val & 0xff;
 249:..\..\..\..\wpa_supplicant\src/utils/common.h **** }
 250:..\..\..\..\wpa_supplicant\src/utils/common.h **** 
 251:..\..\..\..\wpa_supplicant\src/utils/common.h **** static inline u16 WPA_GET_LE16(const u8 *a)
 252:..\..\..\..\wpa_supplicant\src/utils/common.h **** {
 253:..\..\..\..\wpa_supplicant\src/utils/common.h **** 	return (a[1] << 8) | a[0];
 254:..\..\..\..\wpa_supplicant\src/utils/common.h **** }
 255:..\..\..\..\wpa_supplicant\src/utils/common.h **** 
 256:..\..\..\..\wpa_supplicant\src/utils/common.h **** static inline void WPA_PUT_LE16(u8 *a, u16 val)
 257:..\..\..\..\wpa_supplicant\src/utils/common.h **** {
 258:..\..\..\..\wpa_supplicant\src/utils/common.h **** 	a[1] = val >> 8;
 259:..\..\..\..\wpa_supplicant\src/utils/common.h **** 	a[0] = val & 0xff;
 260:..\..\..\..\wpa_supplicant\src/utils/common.h **** }
 261:..\..\..\..\wpa_supplicant\src/utils/common.h **** 
 262:..\..\..\..\wpa_supplicant\src/utils/common.h **** static inline u32 WPA_GET_BE24(const u8 *a)
 263:..\..\..\..\wpa_supplicant\src/utils/common.h **** {
 264:..\..\..\..\wpa_supplicant\src/utils/common.h **** 	return (a[0] << 16) | (a[1] << 8) | a[2];
 265:..\..\..\..\wpa_supplicant\src/utils/common.h **** }
 266:..\..\..\..\wpa_supplicant\src/utils/common.h **** 
 267:..\..\..\..\wpa_supplicant\src/utils/common.h **** static inline void WPA_PUT_BE24(u8 *a, u32 val)
 268:..\..\..\..\wpa_supplicant\src/utils/common.h **** {
 269:..\..\..\..\wpa_supplicant\src/utils/common.h **** 	a[0] = (val >> 16) & 0xff;
 270:..\..\..\..\wpa_supplicant\src/utils/common.h **** 	a[1] = (val >> 8) & 0xff;
 271:..\..\..\..\wpa_supplicant\src/utils/common.h **** 	a[2] = val & 0xff;
 272:..\..\..\..\wpa_supplicant\src/utils/common.h **** }
 273:..\..\..\..\wpa_supplicant\src/utils/common.h **** 
 274:..\..\..\..\wpa_supplicant\src/utils/common.h **** static inline u32 WPA_GET_BE32(const u8 *a)
 275:..\..\..\..\wpa_supplicant\src/utils/common.h **** {
  15              		.loc 1 275 1
  16              		.cfi_startproc
  17              	.LVL0:
 276:..\..\..\..\wpa_supplicant\src/utils/common.h **** 	return ((u32) a[0] << 24) | (a[1] << 16) | (a[2] << 8) | a[3];
  18              		.loc 1 276 2
  19 0000 83471500 		lbu	a5,1(a0)
  20 0004 03470500 		lbu	a4,0(a0)
  21 0008 A207     		slli	a5,a5,8
  22 000a 5D8F     		or	a4,a5,a4
  23 000c 83472500 		lbu	a5,2(a0)
  24 0010 03453500 		lbu	a0,3(a0)
  25              	.LVL1:
  26 0014 C207     		slli	a5,a5,16
  27 0016 D98F     		or	a5,a5,a4
  28 0018 6205     		slli	a0,a0,24
  29 001a 5D8D     		or	a0,a0,a5
 277:..\..\..\..\wpa_supplicant\src/utils/common.h **** }
  30              		.loc 1 277 1 is_stmt 0
  31 001c 13558569 		rev8	a0,a0
  32 0020 8280     		ret
  33              		.cfi_endproc
  34              	.LFE34:
  36              		.section	.text.wpabuf_put_data.part.0,"ax",@progbits
  37              		.align	1
  39              	wpabuf_put_data.part.0:
  40              	.LFB404:
  41              		.file 2 "..\\..\\..\\..\\wpa_supplicant\\src/utils/wpabuf.h"
   1:..\..\..\..\wpa_supplicant\src/utils/wpabuf.h **** /*
   2:..\..\..\..\wpa_supplicant\src/utils/wpabuf.h ****  * Dynamic data buffer
   3:..\..\..\..\wpa_supplicant\src/utils/wpabuf.h ****  * Copyright (c) 2007-2012, Jouni Malinen <j@w1.fi>
   4:..\..\..\..\wpa_supplicant\src/utils/wpabuf.h ****  *
   5:..\..\..\..\wpa_supplicant\src/utils/wpabuf.h ****  * This software may be distributed under the terms of the BSD license.
   6:..\..\..\..\wpa_supplicant\src/utils/wpabuf.h ****  * See README for more details.
   7:..\..\..\..\wpa_supplicant\src/utils/wpabuf.h ****  */
   8:..\..\..\..\wpa_supplicant\src/utils/wpabuf.h **** 
   9:..\..\..\..\wpa_supplicant\src/utils/wpabuf.h **** #ifndef WPABUF_H
  10:..\..\..\..\wpa_supplicant\src/utils/wpabuf.h **** #define WPABUF_H
  11:..\..\..\..\wpa_supplicant\src/utils/wpabuf.h **** 
  12:..\..\..\..\wpa_supplicant\src/utils/wpabuf.h **** /* wpabuf::buf is a pointer to external data */
  13:..\..\..\..\wpa_supplicant\src/utils/wpabuf.h **** #define WPABUF_FLAG_EXT_DATA BIT(0)
  14:..\..\..\..\wpa_supplicant\src/utils/wpabuf.h **** 
  15:..\..\..\..\wpa_supplicant\src/utils/wpabuf.h **** /*
  16:..\..\..\..\wpa_supplicant\src/utils/wpabuf.h ****  * Internal data structure for wpabuf. Please do not touch this directly from
  17:..\..\..\..\wpa_supplicant\src/utils/wpabuf.h ****  * elsewhere. This is only defined in header file to allow inline functions
  18:..\..\..\..\wpa_supplicant\src/utils/wpabuf.h ****  * from this file to access data.
  19:..\..\..\..\wpa_supplicant\src/utils/wpabuf.h ****  */
  20:..\..\..\..\wpa_supplicant\src/utils/wpabuf.h **** struct wpabuf {
  21:..\..\..\..\wpa_supplicant\src/utils/wpabuf.h **** 	size_t size; /* total size of the allocated buffer */
  22:..\..\..\..\wpa_supplicant\src/utils/wpabuf.h **** 	size_t used; /* length of data in the buffer */
  23:..\..\..\..\wpa_supplicant\src/utils/wpabuf.h **** 	u8 *buf; /* pointer to the head of the buffer */
  24:..\..\..\..\wpa_supplicant\src/utils/wpabuf.h **** 	unsigned int flags;
  25:..\..\..\..\wpa_supplicant\src/utils/wpabuf.h **** 	/* optionally followed by the allocated buffer */
  26:..\..\..\..\wpa_supplicant\src/utils/wpabuf.h **** };
  27:..\..\..\..\wpa_supplicant\src/utils/wpabuf.h **** 
  28:..\..\..\..\wpa_supplicant\src/utils/wpabuf.h **** 
  29:..\..\..\..\wpa_supplicant\src/utils/wpabuf.h **** int wpabuf_resize(struct wpabuf **buf, size_t add_len);
  30:..\..\..\..\wpa_supplicant\src/utils/wpabuf.h **** struct wpabuf * wpabuf_alloc(size_t len);
  31:..\..\..\..\wpa_supplicant\src/utils/wpabuf.h **** struct wpabuf * wpabuf_alloc_ext_data(u8 *data, size_t len);
  32:..\..\..\..\wpa_supplicant\src/utils/wpabuf.h **** struct wpabuf * wpabuf_alloc_copy(const void *data, size_t len);
  33:..\..\..\..\wpa_supplicant\src/utils/wpabuf.h **** struct wpabuf * wpabuf_dup(const struct wpabuf *src);
  34:..\..\..\..\wpa_supplicant\src/utils/wpabuf.h **** void wpabuf_free(struct wpabuf *buf);
  35:..\..\..\..\wpa_supplicant\src/utils/wpabuf.h **** void wpabuf_clear_free(struct wpabuf *buf);
  36:..\..\..\..\wpa_supplicant\src/utils/wpabuf.h **** void * wpabuf_put(struct wpabuf *buf, size_t len);
  37:..\..\..\..\wpa_supplicant\src/utils/wpabuf.h **** struct wpabuf * wpabuf_concat(struct wpabuf *a, struct wpabuf *b);
  38:..\..\..\..\wpa_supplicant\src/utils/wpabuf.h **** struct wpabuf * wpabuf_zeropad(struct wpabuf *buf, size_t len);
  39:..\..\..\..\wpa_supplicant\src/utils/wpabuf.h **** void wpabuf_printf(struct wpabuf *buf, char *fmt, ...) PRINTF_FORMAT(2, 3);
  40:..\..\..\..\wpa_supplicant\src/utils/wpabuf.h **** struct wpabuf * wpabuf_parse_bin(const char *buf);
  41:..\..\..\..\wpa_supplicant\src/utils/wpabuf.h **** 
  42:..\..\..\..\wpa_supplicant\src/utils/wpabuf.h **** 
  43:..\..\..\..\wpa_supplicant\src/utils/wpabuf.h **** /**
  44:..\..\..\..\wpa_supplicant\src/utils/wpabuf.h ****  * wpabuf_size - Get the currently allocated size of a wpabuf buffer
  45:..\..\..\..\wpa_supplicant\src/utils/wpabuf.h ****  * @buf: wpabuf buffer
  46:..\..\..\..\wpa_supplicant\src/utils/wpabuf.h ****  * Returns: Currently allocated size of the buffer
  47:..\..\..\..\wpa_supplicant\src/utils/wpabuf.h ****  */
  48:..\..\..\..\wpa_supplicant\src/utils/wpabuf.h **** static inline size_t wpabuf_size(const struct wpabuf *buf)
  49:..\..\..\..\wpa_supplicant\src/utils/wpabuf.h **** {
  50:..\..\..\..\wpa_supplicant\src/utils/wpabuf.h **** 	return buf->size;
  51:..\..\..\..\wpa_supplicant\src/utils/wpabuf.h **** }
  52:..\..\..\..\wpa_supplicant\src/utils/wpabuf.h **** 
  53:..\..\..\..\wpa_supplicant\src/utils/wpabuf.h **** /**
  54:..\..\..\..\wpa_supplicant\src/utils/wpabuf.h ****  * wpabuf_len - Get the current length of a wpabuf buffer data
  55:..\..\..\..\wpa_supplicant\src/utils/wpabuf.h ****  * @buf: wpabuf buffer
  56:..\..\..\..\wpa_supplicant\src/utils/wpabuf.h ****  * Returns: Currently used length of the buffer
  57:..\..\..\..\wpa_supplicant\src/utils/wpabuf.h ****  */
  58:..\..\..\..\wpa_supplicant\src/utils/wpabuf.h **** static inline size_t wpabuf_len(const struct wpabuf *buf)
  59:..\..\..\..\wpa_supplicant\src/utils/wpabuf.h **** {
  60:..\..\..\..\wpa_supplicant\src/utils/wpabuf.h **** 	return buf->used;
  61:..\..\..\..\wpa_supplicant\src/utils/wpabuf.h **** }
  62:..\..\..\..\wpa_supplicant\src/utils/wpabuf.h **** 
  63:..\..\..\..\wpa_supplicant\src/utils/wpabuf.h **** /**
  64:..\..\..\..\wpa_supplicant\src/utils/wpabuf.h ****  * wpabuf_tailroom - Get size of available tail room in the end of the buffer
  65:..\..\..\..\wpa_supplicant\src/utils/wpabuf.h ****  * @buf: wpabuf buffer
  66:..\..\..\..\wpa_supplicant\src/utils/wpabuf.h ****  * Returns: Tail room (in bytes) of available space in the end of the buffer
  67:..\..\..\..\wpa_supplicant\src/utils/wpabuf.h ****  */
  68:..\..\..\..\wpa_supplicant\src/utils/wpabuf.h **** static inline size_t wpabuf_tailroom(const struct wpabuf *buf)
  69:..\..\..\..\wpa_supplicant\src/utils/wpabuf.h **** {
  70:..\..\..\..\wpa_supplicant\src/utils/wpabuf.h **** 	return buf->size - buf->used;
  71:..\..\..\..\wpa_supplicant\src/utils/wpabuf.h **** }
  72:..\..\..\..\wpa_supplicant\src/utils/wpabuf.h **** 
  73:..\..\..\..\wpa_supplicant\src/utils/wpabuf.h **** /**
  74:..\..\..\..\wpa_supplicant\src/utils/wpabuf.h ****  * wpabuf_cmp - Check if two buffers contain the same data
  75:..\..\..\..\wpa_supplicant\src/utils/wpabuf.h ****  * @a: wpabuf buffer
  76:..\..\..\..\wpa_supplicant\src/utils/wpabuf.h ****  * @b: wpabuf buffer
  77:..\..\..\..\wpa_supplicant\src/utils/wpabuf.h ****  * Returns: 0 if the two buffers contain the same data and non-zero otherwise
  78:..\..\..\..\wpa_supplicant\src/utils/wpabuf.h ****  */
  79:..\..\..\..\wpa_supplicant\src/utils/wpabuf.h **** static inline int wpabuf_cmp(const struct wpabuf *a, const struct wpabuf *b)
  80:..\..\..\..\wpa_supplicant\src/utils/wpabuf.h **** {
  81:..\..\..\..\wpa_supplicant\src/utils/wpabuf.h **** 	if (!a && !b)
  82:..\..\..\..\wpa_supplicant\src/utils/wpabuf.h **** 		return 0;
  83:..\..\..\..\wpa_supplicant\src/utils/wpabuf.h **** 	if (a && b && wpabuf_size(a) == wpabuf_size(b))
  84:..\..\..\..\wpa_supplicant\src/utils/wpabuf.h **** 		return os_memcmp(a->buf, b->buf, wpabuf_size(a));
  85:..\..\..\..\wpa_supplicant\src/utils/wpabuf.h **** 	return -1;
  86:..\..\..\..\wpa_supplicant\src/utils/wpabuf.h **** }
  87:..\..\..\..\wpa_supplicant\src/utils/wpabuf.h **** 
  88:..\..\..\..\wpa_supplicant\src/utils/wpabuf.h **** /**
  89:..\..\..\..\wpa_supplicant\src/utils/wpabuf.h ****  * wpabuf_head - Get pointer to the head of the buffer data
  90:..\..\..\..\wpa_supplicant\src/utils/wpabuf.h ****  * @buf: wpabuf buffer
  91:..\..\..\..\wpa_supplicant\src/utils/wpabuf.h ****  * Returns: Pointer to the head of the buffer data
  92:..\..\..\..\wpa_supplicant\src/utils/wpabuf.h ****  */
  93:..\..\..\..\wpa_supplicant\src/utils/wpabuf.h **** static inline const void * wpabuf_head(const struct wpabuf *buf)
  94:..\..\..\..\wpa_supplicant\src/utils/wpabuf.h **** {
  95:..\..\..\..\wpa_supplicant\src/utils/wpabuf.h **** 	return buf->buf;
  96:..\..\..\..\wpa_supplicant\src/utils/wpabuf.h **** }
  97:..\..\..\..\wpa_supplicant\src/utils/wpabuf.h **** 
  98:..\..\..\..\wpa_supplicant\src/utils/wpabuf.h **** static inline const u8 * wpabuf_head_u8(const struct wpabuf *buf)
  99:..\..\..\..\wpa_supplicant\src/utils/wpabuf.h **** {
 100:..\..\..\..\wpa_supplicant\src/utils/wpabuf.h **** 	return (const u8 *) wpabuf_head(buf);
 101:..\..\..\..\wpa_supplicant\src/utils/wpabuf.h **** }
 102:..\..\..\..\wpa_supplicant\src/utils/wpabuf.h **** 
 103:..\..\..\..\wpa_supplicant\src/utils/wpabuf.h **** /**
 104:..\..\..\..\wpa_supplicant\src/utils/wpabuf.h ****  * wpabuf_mhead - Get modifiable pointer to the head of the buffer data
 105:..\..\..\..\wpa_supplicant\src/utils/wpabuf.h ****  * @buf: wpabuf buffer
 106:..\..\..\..\wpa_supplicant\src/utils/wpabuf.h ****  * Returns: Pointer to the head of the buffer data
 107:..\..\..\..\wpa_supplicant\src/utils/wpabuf.h ****  */
 108:..\..\..\..\wpa_supplicant\src/utils/wpabuf.h **** static inline void * wpabuf_mhead(struct wpabuf *buf)
 109:..\..\..\..\wpa_supplicant\src/utils/wpabuf.h **** {
 110:..\..\..\..\wpa_supplicant\src/utils/wpabuf.h **** 	return buf->buf;
 111:..\..\..\..\wpa_supplicant\src/utils/wpabuf.h **** }
 112:..\..\..\..\wpa_supplicant\src/utils/wpabuf.h **** 
 113:..\..\..\..\wpa_supplicant\src/utils/wpabuf.h **** static inline u8 * wpabuf_mhead_u8(struct wpabuf *buf)
 114:..\..\..\..\wpa_supplicant\src/utils/wpabuf.h **** {
 115:..\..\..\..\wpa_supplicant\src/utils/wpabuf.h **** 	return (u8 *) wpabuf_mhead(buf);
 116:..\..\..\..\wpa_supplicant\src/utils/wpabuf.h **** }
 117:..\..\..\..\wpa_supplicant\src/utils/wpabuf.h **** 
 118:..\..\..\..\wpa_supplicant\src/utils/wpabuf.h **** static inline void wpabuf_put_u8(struct wpabuf *buf, u8 data)
 119:..\..\..\..\wpa_supplicant\src/utils/wpabuf.h **** {
 120:..\..\..\..\wpa_supplicant\src/utils/wpabuf.h **** 	u8 *pos = (u8 *) wpabuf_put(buf, 1);
 121:..\..\..\..\wpa_supplicant\src/utils/wpabuf.h **** 	*pos = data;
 122:..\..\..\..\wpa_supplicant\src/utils/wpabuf.h **** }
 123:..\..\..\..\wpa_supplicant\src/utils/wpabuf.h **** 
 124:..\..\..\..\wpa_supplicant\src/utils/wpabuf.h **** static inline void wpabuf_put_le16(struct wpabuf *buf, u16 data)
 125:..\..\..\..\wpa_supplicant\src/utils/wpabuf.h **** {
 126:..\..\..\..\wpa_supplicant\src/utils/wpabuf.h **** 	u8 *pos = (u8 *) wpabuf_put(buf, 2);
 127:..\..\..\..\wpa_supplicant\src/utils/wpabuf.h **** 	WPA_PUT_LE16(pos, data);
 128:..\..\..\..\wpa_supplicant\src/utils/wpabuf.h **** }
 129:..\..\..\..\wpa_supplicant\src/utils/wpabuf.h **** 
 130:..\..\..\..\wpa_supplicant\src/utils/wpabuf.h **** static inline void wpabuf_put_le32(struct wpabuf *buf, u32 data)
 131:..\..\..\..\wpa_supplicant\src/utils/wpabuf.h **** {
 132:..\..\..\..\wpa_supplicant\src/utils/wpabuf.h **** 	u8 *pos = (u8 *) wpabuf_put(buf, 4);
 133:..\..\..\..\wpa_supplicant\src/utils/wpabuf.h **** 	WPA_PUT_LE32(pos, data);
 134:..\..\..\..\wpa_supplicant\src/utils/wpabuf.h **** }
 135:..\..\..\..\wpa_supplicant\src/utils/wpabuf.h **** 
 136:..\..\..\..\wpa_supplicant\src/utils/wpabuf.h **** static inline void wpabuf_put_le64(struct wpabuf *buf, u64 data)
 137:..\..\..\..\wpa_supplicant\src/utils/wpabuf.h **** {
 138:..\..\..\..\wpa_supplicant\src/utils/wpabuf.h **** 	u8 *pos = (u8 *) wpabuf_put(buf, 8);
 139:..\..\..\..\wpa_supplicant\src/utils/wpabuf.h **** 	WPA_PUT_LE64(pos, data);
 140:..\..\..\..\wpa_supplicant\src/utils/wpabuf.h **** }
 141:..\..\..\..\wpa_supplicant\src/utils/wpabuf.h **** 
 142:..\..\..\..\wpa_supplicant\src/utils/wpabuf.h **** static inline void wpabuf_put_be16(struct wpabuf *buf, u16 data)
 143:..\..\..\..\wpa_supplicant\src/utils/wpabuf.h **** {
 144:..\..\..\..\wpa_supplicant\src/utils/wpabuf.h **** 	u8 *pos = (u8 *) wpabuf_put(buf, 2);
 145:..\..\..\..\wpa_supplicant\src/utils/wpabuf.h **** 	WPA_PUT_BE16(pos, data);
 146:..\..\..\..\wpa_supplicant\src/utils/wpabuf.h **** }
 147:..\..\..\..\wpa_supplicant\src/utils/wpabuf.h **** 
 148:..\..\..\..\wpa_supplicant\src/utils/wpabuf.h **** static inline void wpabuf_put_be24(struct wpabuf *buf, u32 data)
 149:..\..\..\..\wpa_supplicant\src/utils/wpabuf.h **** {
 150:..\..\..\..\wpa_supplicant\src/utils/wpabuf.h **** 	u8 *pos = (u8 *) wpabuf_put(buf, 3);
 151:..\..\..\..\wpa_supplicant\src/utils/wpabuf.h **** 	WPA_PUT_BE24(pos, data);
 152:..\..\..\..\wpa_supplicant\src/utils/wpabuf.h **** }
 153:..\..\..\..\wpa_supplicant\src/utils/wpabuf.h **** 
 154:..\..\..\..\wpa_supplicant\src/utils/wpabuf.h **** static inline void wpabuf_put_be32(struct wpabuf *buf, u32 data)
 155:..\..\..\..\wpa_supplicant\src/utils/wpabuf.h **** {
 156:..\..\..\..\wpa_supplicant\src/utils/wpabuf.h **** 	u8 *pos = (u8 *) wpabuf_put(buf, 4);
 157:..\..\..\..\wpa_supplicant\src/utils/wpabuf.h **** 	WPA_PUT_BE32(pos, data);
 158:..\..\..\..\wpa_supplicant\src/utils/wpabuf.h **** }
 159:..\..\..\..\wpa_supplicant\src/utils/wpabuf.h **** 
 160:..\..\..\..\wpa_supplicant\src/utils/wpabuf.h **** static inline void wpabuf_put_be64(struct wpabuf *buf, u64 data)
 161:..\..\..\..\wpa_supplicant\src/utils/wpabuf.h **** {
 162:..\..\..\..\wpa_supplicant\src/utils/wpabuf.h **** 	u8 *pos = (u8 *) wpabuf_put(buf, 8);
 163:..\..\..\..\wpa_supplicant\src/utils/wpabuf.h **** 	WPA_PUT_BE64(pos, data);
 164:..\..\..\..\wpa_supplicant\src/utils/wpabuf.h **** }
 165:..\..\..\..\wpa_supplicant\src/utils/wpabuf.h **** 
 166:..\..\..\..\wpa_supplicant\src/utils/wpabuf.h **** static inline void wpabuf_put_data(struct wpabuf *buf, const void *data,
  42              		.loc 2 166 20 is_stmt 1
  43              		.cfi_startproc
  44              	.LVL2:
  45 0000 17030000 		call	t0,__riscv_save_1
  45      E7020300 
  46              		.cfi_offset 8, -8
  47              		.cfi_offset 1, -4
  48              		.cfi_def_cfa_offset 16
 167:..\..\..\..\wpa_supplicant\src/utils/wpabuf.h **** 				   size_t len)
 168:..\..\..\..\wpa_supplicant\src/utils/wpabuf.h **** {
 169:..\..\..\..\wpa_supplicant\src/utils/wpabuf.h **** 	if (data)
 170:..\..\..\..\wpa_supplicant\src/utils/wpabuf.h **** 		os_memcpy(wpabuf_put(buf, len), data, len);
  49              		.loc 2 170 3
 166:..\..\..\..\wpa_supplicant\src/utils/wpabuf.h **** 				   size_t len)
  50              		.loc 2 166 20 is_stmt 0
  51 0008 4111     		addi	sp,sp,-16
  52              		.cfi_def_cfa_offset 32
 166:..\..\..\..\wpa_supplicant\src/utils/wpabuf.h **** 				   size_t len)
  53              		.loc 2 166 20
  54 000a 2E84     		mv	s0,a1
  55              		.loc 2 170 3
  56 000c B285     		mv	a1,a2
  57              	.LVL3:
  58 000e 32C6     		sw	a2,12(sp)
  59 0010 97000000 		call	wpabuf_put
  59      E7800000 
  60              	.LVL4:
  61 0018 3246     		lw	a2,12(sp)
  62 001a A285     		mv	a1,s0
  63 001c 97000000 		call	os_memcpy
  63      E7800000 
  64              	.LVL5:
 171:..\..\..\..\wpa_supplicant\src/utils/wpabuf.h **** }
  65              		.loc 2 171 1
  66 0024 4101     		addi	sp,sp,16
  67              		.cfi_def_cfa_offset 0
  68              	.LVL6:
  69 0026 17030000 		tail	__riscv_restore_1
  69      67000300 
  70              		.cfi_restore 8
  71              		.cfi_restore 1
  72              		.cfi_def_cfa_offset -16
  73              		.cfi_endproc
  74              	.LFE404:
  76              		.section	.text.wpa_drv_get_ext_capa.constprop.0.isra.0,"ax",@progbits
  77              		.align	1
  79              	wpa_drv_get_ext_capa.constprop.0.isra.0:
  80              	.LFB413:
  81              		.file 3 "C:/Users/stapi/OneDrive/Desktop/GD32VW553/V1_MQTT_OK/GD32VW55X_Wifi_BLE_SDK/GD32VW55x_REL
   1:C:/Users/stapi/OneDrive/Desktop/GD32VW553/V1_MQTT_OK/GD32VW55X_Wifi_BLE_SDK/GD32VW55x_RELEASE_V1.0.2/MSDK/wpa_supplicant/wpa_supplicant\driver_i.h **** /*
   2:C:/Users/stapi/OneDrive/Desktop/GD32VW553/V1_MQTT_OK/GD32VW55X_Wifi_BLE_SDK/GD32VW55x_RELEASE_V1.0.2/MSDK/wpa_supplicant/wpa_supplicant\driver_i.h ****  * wpa_supplicant - Internal driver interface wrappers
   3:C:/Users/stapi/OneDrive/Desktop/GD32VW553/V1_MQTT_OK/GD32VW55X_Wifi_BLE_SDK/GD32VW55x_RELEASE_V1.0.2/MSDK/wpa_supplicant/wpa_supplicant\driver_i.h ****  * Copyright (c) 2003-2015, Jouni Malinen <j@w1.fi>
   4:C:/Users/stapi/OneDrive/Desktop/GD32VW553/V1_MQTT_OK/GD32VW55X_Wifi_BLE_SDK/GD32VW55x_RELEASE_V1.0.2/MSDK/wpa_supplicant/wpa_supplicant\driver_i.h ****  *
   5:C:/Users/stapi/OneDrive/Desktop/GD32VW553/V1_MQTT_OK/GD32VW55X_Wifi_BLE_SDK/GD32VW55x_RELEASE_V1.0.2/MSDK/wpa_supplicant/wpa_supplicant\driver_i.h ****  * This software may be distributed under the terms of the BSD license.
   6:C:/Users/stapi/OneDrive/Desktop/GD32VW553/V1_MQTT_OK/GD32VW55X_Wifi_BLE_SDK/GD32VW55x_RELEASE_V1.0.2/MSDK/wpa_supplicant/wpa_supplicant\driver_i.h ****  * See README for more details.
   7:C:/Users/stapi/OneDrive/Desktop/GD32VW553/V1_MQTT_OK/GD32VW55X_Wifi_BLE_SDK/GD32VW55x_RELEASE_V1.0.2/MSDK/wpa_supplicant/wpa_supplicant\driver_i.h ****  */
   8:C:/Users/stapi/OneDrive/Desktop/GD32VW553/V1_MQTT_OK/GD32VW55X_Wifi_BLE_SDK/GD32VW55x_RELEASE_V1.0.2/MSDK/wpa_supplicant/wpa_supplicant\driver_i.h **** 
   9:C:/Users/stapi/OneDrive/Desktop/GD32VW553/V1_MQTT_OK/GD32VW55X_Wifi_BLE_SDK/GD32VW55x_RELEASE_V1.0.2/MSDK/wpa_supplicant/wpa_supplicant\driver_i.h **** #ifndef DRIVER_I_H
  10:C:/Users/stapi/OneDrive/Desktop/GD32VW553/V1_MQTT_OK/GD32VW55X_Wifi_BLE_SDK/GD32VW55x_RELEASE_V1.0.2/MSDK/wpa_supplicant/wpa_supplicant\driver_i.h **** #define DRIVER_I_H
  11:C:/Users/stapi/OneDrive/Desktop/GD32VW553/V1_MQTT_OK/GD32VW55X_Wifi_BLE_SDK/GD32VW55x_RELEASE_V1.0.2/MSDK/wpa_supplicant/wpa_supplicant\driver_i.h **** 
  12:C:/Users/stapi/OneDrive/Desktop/GD32VW553/V1_MQTT_OK/GD32VW55X_Wifi_BLE_SDK/GD32VW55x_RELEASE_V1.0.2/MSDK/wpa_supplicant/wpa_supplicant\driver_i.h **** #include "drivers/driver.h"
  13:C:/Users/stapi/OneDrive/Desktop/GD32VW553/V1_MQTT_OK/GD32VW55X_Wifi_BLE_SDK/GD32VW55x_RELEASE_V1.0.2/MSDK/wpa_supplicant/wpa_supplicant\driver_i.h **** 
  14:C:/Users/stapi/OneDrive/Desktop/GD32VW553/V1_MQTT_OK/GD32VW55X_Wifi_BLE_SDK/GD32VW55x_RELEASE_V1.0.2/MSDK/wpa_supplicant/wpa_supplicant\driver_i.h **** /* driver_ops */
  15:C:/Users/stapi/OneDrive/Desktop/GD32VW553/V1_MQTT_OK/GD32VW55X_Wifi_BLE_SDK/GD32VW55x_RELEASE_V1.0.2/MSDK/wpa_supplicant/wpa_supplicant\driver_i.h **** static inline void * wpa_drv_init(struct wpa_supplicant *wpa_s,
  16:C:/Users/stapi/OneDrive/Desktop/GD32VW553/V1_MQTT_OK/GD32VW55X_Wifi_BLE_SDK/GD32VW55x_RELEASE_V1.0.2/MSDK/wpa_supplicant/wpa_supplicant\driver_i.h **** 				  const char *ifname)
  17:C:/Users/stapi/OneDrive/Desktop/GD32VW553/V1_MQTT_OK/GD32VW55X_Wifi_BLE_SDK/GD32VW55x_RELEASE_V1.0.2/MSDK/wpa_supplicant/wpa_supplicant\driver_i.h **** {
  18:C:/Users/stapi/OneDrive/Desktop/GD32VW553/V1_MQTT_OK/GD32VW55X_Wifi_BLE_SDK/GD32VW55x_RELEASE_V1.0.2/MSDK/wpa_supplicant/wpa_supplicant\driver_i.h **** 	if (wpa_s->driver->init2)
  19:C:/Users/stapi/OneDrive/Desktop/GD32VW553/V1_MQTT_OK/GD32VW55X_Wifi_BLE_SDK/GD32VW55x_RELEASE_V1.0.2/MSDK/wpa_supplicant/wpa_supplicant\driver_i.h **** 		return wpa_s->driver->init2(wpa_s, ifname,
  20:C:/Users/stapi/OneDrive/Desktop/GD32VW553/V1_MQTT_OK/GD32VW55X_Wifi_BLE_SDK/GD32VW55x_RELEASE_V1.0.2/MSDK/wpa_supplicant/wpa_supplicant\driver_i.h **** 					    wpa_s->global_drv_priv);
  21:C:/Users/stapi/OneDrive/Desktop/GD32VW553/V1_MQTT_OK/GD32VW55X_Wifi_BLE_SDK/GD32VW55x_RELEASE_V1.0.2/MSDK/wpa_supplicant/wpa_supplicant\driver_i.h **** 	if (wpa_s->driver->init) {
  22:C:/Users/stapi/OneDrive/Desktop/GD32VW553/V1_MQTT_OK/GD32VW55X_Wifi_BLE_SDK/GD32VW55x_RELEASE_V1.0.2/MSDK/wpa_supplicant/wpa_supplicant\driver_i.h **** 		return wpa_s->driver->init(wpa_s, ifname);
  23:C:/Users/stapi/OneDrive/Desktop/GD32VW553/V1_MQTT_OK/GD32VW55X_Wifi_BLE_SDK/GD32VW55x_RELEASE_V1.0.2/MSDK/wpa_supplicant/wpa_supplicant\driver_i.h **** 	}
  24:C:/Users/stapi/OneDrive/Desktop/GD32VW553/V1_MQTT_OK/GD32VW55X_Wifi_BLE_SDK/GD32VW55x_RELEASE_V1.0.2/MSDK/wpa_supplicant/wpa_supplicant\driver_i.h **** 	return NULL;
  25:C:/Users/stapi/OneDrive/Desktop/GD32VW553/V1_MQTT_OK/GD32VW55X_Wifi_BLE_SDK/GD32VW55x_RELEASE_V1.0.2/MSDK/wpa_supplicant/wpa_supplicant\driver_i.h **** }
  26:C:/Users/stapi/OneDrive/Desktop/GD32VW553/V1_MQTT_OK/GD32VW55X_Wifi_BLE_SDK/GD32VW55x_RELEASE_V1.0.2/MSDK/wpa_supplicant/wpa_supplicant\driver_i.h **** 
  27:C:/Users/stapi/OneDrive/Desktop/GD32VW553/V1_MQTT_OK/GD32VW55X_Wifi_BLE_SDK/GD32VW55x_RELEASE_V1.0.2/MSDK/wpa_supplicant/wpa_supplicant\driver_i.h **** static inline void wpa_drv_deinit(struct wpa_supplicant *wpa_s)
  28:C:/Users/stapi/OneDrive/Desktop/GD32VW553/V1_MQTT_OK/GD32VW55X_Wifi_BLE_SDK/GD32VW55x_RELEASE_V1.0.2/MSDK/wpa_supplicant/wpa_supplicant\driver_i.h **** {
  29:C:/Users/stapi/OneDrive/Desktop/GD32VW553/V1_MQTT_OK/GD32VW55X_Wifi_BLE_SDK/GD32VW55x_RELEASE_V1.0.2/MSDK/wpa_supplicant/wpa_supplicant\driver_i.h **** 	if (wpa_s->driver->deinit)
  30:C:/Users/stapi/OneDrive/Desktop/GD32VW553/V1_MQTT_OK/GD32VW55X_Wifi_BLE_SDK/GD32VW55x_RELEASE_V1.0.2/MSDK/wpa_supplicant/wpa_supplicant\driver_i.h **** 		wpa_s->driver->deinit(wpa_s->drv_priv);
  31:C:/Users/stapi/OneDrive/Desktop/GD32VW553/V1_MQTT_OK/GD32VW55X_Wifi_BLE_SDK/GD32VW55x_RELEASE_V1.0.2/MSDK/wpa_supplicant/wpa_supplicant\driver_i.h **** }
  32:C:/Users/stapi/OneDrive/Desktop/GD32VW553/V1_MQTT_OK/GD32VW55X_Wifi_BLE_SDK/GD32VW55x_RELEASE_V1.0.2/MSDK/wpa_supplicant/wpa_supplicant\driver_i.h **** 
  33:C:/Users/stapi/OneDrive/Desktop/GD32VW553/V1_MQTT_OK/GD32VW55X_Wifi_BLE_SDK/GD32VW55x_RELEASE_V1.0.2/MSDK/wpa_supplicant/wpa_supplicant\driver_i.h **** static inline int wpa_drv_set_param(struct wpa_supplicant *wpa_s,
  34:C:/Users/stapi/OneDrive/Desktop/GD32VW553/V1_MQTT_OK/GD32VW55X_Wifi_BLE_SDK/GD32VW55x_RELEASE_V1.0.2/MSDK/wpa_supplicant/wpa_supplicant\driver_i.h **** 				    const char *param)
  35:C:/Users/stapi/OneDrive/Desktop/GD32VW553/V1_MQTT_OK/GD32VW55X_Wifi_BLE_SDK/GD32VW55x_RELEASE_V1.0.2/MSDK/wpa_supplicant/wpa_supplicant\driver_i.h **** {
  36:C:/Users/stapi/OneDrive/Desktop/GD32VW553/V1_MQTT_OK/GD32VW55X_Wifi_BLE_SDK/GD32VW55x_RELEASE_V1.0.2/MSDK/wpa_supplicant/wpa_supplicant\driver_i.h **** 	if (wpa_s->driver->set_param)
  37:C:/Users/stapi/OneDrive/Desktop/GD32VW553/V1_MQTT_OK/GD32VW55X_Wifi_BLE_SDK/GD32VW55x_RELEASE_V1.0.2/MSDK/wpa_supplicant/wpa_supplicant\driver_i.h **** 		return wpa_s->driver->set_param(wpa_s->drv_priv, param);
  38:C:/Users/stapi/OneDrive/Desktop/GD32VW553/V1_MQTT_OK/GD32VW55X_Wifi_BLE_SDK/GD32VW55x_RELEASE_V1.0.2/MSDK/wpa_supplicant/wpa_supplicant\driver_i.h **** 	return 0;
  39:C:/Users/stapi/OneDrive/Desktop/GD32VW553/V1_MQTT_OK/GD32VW55X_Wifi_BLE_SDK/GD32VW55x_RELEASE_V1.0.2/MSDK/wpa_supplicant/wpa_supplicant\driver_i.h **** }
  40:C:/Users/stapi/OneDrive/Desktop/GD32VW553/V1_MQTT_OK/GD32VW55X_Wifi_BLE_SDK/GD32VW55x_RELEASE_V1.0.2/MSDK/wpa_supplicant/wpa_supplicant\driver_i.h **** 
  41:C:/Users/stapi/OneDrive/Desktop/GD32VW553/V1_MQTT_OK/GD32VW55X_Wifi_BLE_SDK/GD32VW55x_RELEASE_V1.0.2/MSDK/wpa_supplicant/wpa_supplicant\driver_i.h **** static inline int wpa_drv_set_countermeasures(struct wpa_supplicant *wpa_s,
  42:C:/Users/stapi/OneDrive/Desktop/GD32VW553/V1_MQTT_OK/GD32VW55X_Wifi_BLE_SDK/GD32VW55x_RELEASE_V1.0.2/MSDK/wpa_supplicant/wpa_supplicant\driver_i.h **** 					      int enabled)
  43:C:/Users/stapi/OneDrive/Desktop/GD32VW553/V1_MQTT_OK/GD32VW55X_Wifi_BLE_SDK/GD32VW55x_RELEASE_V1.0.2/MSDK/wpa_supplicant/wpa_supplicant\driver_i.h **** {
  44:C:/Users/stapi/OneDrive/Desktop/GD32VW553/V1_MQTT_OK/GD32VW55X_Wifi_BLE_SDK/GD32VW55x_RELEASE_V1.0.2/MSDK/wpa_supplicant/wpa_supplicant\driver_i.h **** 	if (wpa_s->driver->set_countermeasures) {
  45:C:/Users/stapi/OneDrive/Desktop/GD32VW553/V1_MQTT_OK/GD32VW55X_Wifi_BLE_SDK/GD32VW55x_RELEASE_V1.0.2/MSDK/wpa_supplicant/wpa_supplicant\driver_i.h **** 		return wpa_s->driver->set_countermeasures(wpa_s->drv_priv,
  46:C:/Users/stapi/OneDrive/Desktop/GD32VW553/V1_MQTT_OK/GD32VW55X_Wifi_BLE_SDK/GD32VW55x_RELEASE_V1.0.2/MSDK/wpa_supplicant/wpa_supplicant\driver_i.h **** 							  enabled);
  47:C:/Users/stapi/OneDrive/Desktop/GD32VW553/V1_MQTT_OK/GD32VW55X_Wifi_BLE_SDK/GD32VW55x_RELEASE_V1.0.2/MSDK/wpa_supplicant/wpa_supplicant\driver_i.h **** 	}
  48:C:/Users/stapi/OneDrive/Desktop/GD32VW553/V1_MQTT_OK/GD32VW55X_Wifi_BLE_SDK/GD32VW55x_RELEASE_V1.0.2/MSDK/wpa_supplicant/wpa_supplicant\driver_i.h **** 	return -1;
  49:C:/Users/stapi/OneDrive/Desktop/GD32VW553/V1_MQTT_OK/GD32VW55X_Wifi_BLE_SDK/GD32VW55x_RELEASE_V1.0.2/MSDK/wpa_supplicant/wpa_supplicant\driver_i.h **** }
  50:C:/Users/stapi/OneDrive/Desktop/GD32VW553/V1_MQTT_OK/GD32VW55X_Wifi_BLE_SDK/GD32VW55x_RELEASE_V1.0.2/MSDK/wpa_supplicant/wpa_supplicant\driver_i.h **** 
  51:C:/Users/stapi/OneDrive/Desktop/GD32VW553/V1_MQTT_OK/GD32VW55X_Wifi_BLE_SDK/GD32VW55x_RELEASE_V1.0.2/MSDK/wpa_supplicant/wpa_supplicant\driver_i.h **** static inline int wpa_drv_authenticate(struct wpa_supplicant *wpa_s,
  52:C:/Users/stapi/OneDrive/Desktop/GD32VW553/V1_MQTT_OK/GD32VW55X_Wifi_BLE_SDK/GD32VW55x_RELEASE_V1.0.2/MSDK/wpa_supplicant/wpa_supplicant\driver_i.h **** 				       struct wpa_driver_auth_params *params)
  53:C:/Users/stapi/OneDrive/Desktop/GD32VW553/V1_MQTT_OK/GD32VW55X_Wifi_BLE_SDK/GD32VW55x_RELEASE_V1.0.2/MSDK/wpa_supplicant/wpa_supplicant\driver_i.h **** {
  54:C:/Users/stapi/OneDrive/Desktop/GD32VW553/V1_MQTT_OK/GD32VW55X_Wifi_BLE_SDK/GD32VW55x_RELEASE_V1.0.2/MSDK/wpa_supplicant/wpa_supplicant\driver_i.h **** 	if (wpa_s->driver->authenticate)
  55:C:/Users/stapi/OneDrive/Desktop/GD32VW553/V1_MQTT_OK/GD32VW55X_Wifi_BLE_SDK/GD32VW55x_RELEASE_V1.0.2/MSDK/wpa_supplicant/wpa_supplicant\driver_i.h **** 		return wpa_s->driver->authenticate(wpa_s->drv_priv, params);
  56:C:/Users/stapi/OneDrive/Desktop/GD32VW553/V1_MQTT_OK/GD32VW55X_Wifi_BLE_SDK/GD32VW55x_RELEASE_V1.0.2/MSDK/wpa_supplicant/wpa_supplicant\driver_i.h **** 	return -1;
  57:C:/Users/stapi/OneDrive/Desktop/GD32VW553/V1_MQTT_OK/GD32VW55X_Wifi_BLE_SDK/GD32VW55x_RELEASE_V1.0.2/MSDK/wpa_supplicant/wpa_supplicant\driver_i.h **** }
  58:C:/Users/stapi/OneDrive/Desktop/GD32VW553/V1_MQTT_OK/GD32VW55X_Wifi_BLE_SDK/GD32VW55x_RELEASE_V1.0.2/MSDK/wpa_supplicant/wpa_supplicant\driver_i.h **** 
  59:C:/Users/stapi/OneDrive/Desktop/GD32VW553/V1_MQTT_OK/GD32VW55X_Wifi_BLE_SDK/GD32VW55x_RELEASE_V1.0.2/MSDK/wpa_supplicant/wpa_supplicant\driver_i.h **** static inline int wpa_drv_associate(struct wpa_supplicant *wpa_s,
  60:C:/Users/stapi/OneDrive/Desktop/GD32VW553/V1_MQTT_OK/GD32VW55X_Wifi_BLE_SDK/GD32VW55x_RELEASE_V1.0.2/MSDK/wpa_supplicant/wpa_supplicant\driver_i.h **** 				    struct wpa_driver_associate_params *params)
  61:C:/Users/stapi/OneDrive/Desktop/GD32VW553/V1_MQTT_OK/GD32VW55X_Wifi_BLE_SDK/GD32VW55x_RELEASE_V1.0.2/MSDK/wpa_supplicant/wpa_supplicant\driver_i.h **** {
  62:C:/Users/stapi/OneDrive/Desktop/GD32VW553/V1_MQTT_OK/GD32VW55X_Wifi_BLE_SDK/GD32VW55x_RELEASE_V1.0.2/MSDK/wpa_supplicant/wpa_supplicant\driver_i.h **** 	if (wpa_s->driver->associate) {
  63:C:/Users/stapi/OneDrive/Desktop/GD32VW553/V1_MQTT_OK/GD32VW55X_Wifi_BLE_SDK/GD32VW55x_RELEASE_V1.0.2/MSDK/wpa_supplicant/wpa_supplicant\driver_i.h **** 		return wpa_s->driver->associate(wpa_s->drv_priv, params);
  64:C:/Users/stapi/OneDrive/Desktop/GD32VW553/V1_MQTT_OK/GD32VW55X_Wifi_BLE_SDK/GD32VW55x_RELEASE_V1.0.2/MSDK/wpa_supplicant/wpa_supplicant\driver_i.h **** 	}
  65:C:/Users/stapi/OneDrive/Desktop/GD32VW553/V1_MQTT_OK/GD32VW55X_Wifi_BLE_SDK/GD32VW55x_RELEASE_V1.0.2/MSDK/wpa_supplicant/wpa_supplicant\driver_i.h **** 	return -1;
  66:C:/Users/stapi/OneDrive/Desktop/GD32VW553/V1_MQTT_OK/GD32VW55X_Wifi_BLE_SDK/GD32VW55x_RELEASE_V1.0.2/MSDK/wpa_supplicant/wpa_supplicant\driver_i.h **** }
  67:C:/Users/stapi/OneDrive/Desktop/GD32VW553/V1_MQTT_OK/GD32VW55X_Wifi_BLE_SDK/GD32VW55x_RELEASE_V1.0.2/MSDK/wpa_supplicant/wpa_supplicant\driver_i.h **** 
  68:C:/Users/stapi/OneDrive/Desktop/GD32VW553/V1_MQTT_OK/GD32VW55X_Wifi_BLE_SDK/GD32VW55x_RELEASE_V1.0.2/MSDK/wpa_supplicant/wpa_supplicant\driver_i.h **** static inline int wpa_drv_init_mesh(struct wpa_supplicant *wpa_s)
  69:C:/Users/stapi/OneDrive/Desktop/GD32VW553/V1_MQTT_OK/GD32VW55X_Wifi_BLE_SDK/GD32VW55x_RELEASE_V1.0.2/MSDK/wpa_supplicant/wpa_supplicant\driver_i.h **** {
  70:C:/Users/stapi/OneDrive/Desktop/GD32VW553/V1_MQTT_OK/GD32VW55X_Wifi_BLE_SDK/GD32VW55x_RELEASE_V1.0.2/MSDK/wpa_supplicant/wpa_supplicant\driver_i.h **** 	if (wpa_s->driver->init_mesh)
  71:C:/Users/stapi/OneDrive/Desktop/GD32VW553/V1_MQTT_OK/GD32VW55X_Wifi_BLE_SDK/GD32VW55x_RELEASE_V1.0.2/MSDK/wpa_supplicant/wpa_supplicant\driver_i.h **** 		return wpa_s->driver->init_mesh(wpa_s->drv_priv);
  72:C:/Users/stapi/OneDrive/Desktop/GD32VW553/V1_MQTT_OK/GD32VW55X_Wifi_BLE_SDK/GD32VW55x_RELEASE_V1.0.2/MSDK/wpa_supplicant/wpa_supplicant\driver_i.h **** 	return -1;
  73:C:/Users/stapi/OneDrive/Desktop/GD32VW553/V1_MQTT_OK/GD32VW55X_Wifi_BLE_SDK/GD32VW55x_RELEASE_V1.0.2/MSDK/wpa_supplicant/wpa_supplicant\driver_i.h **** }
  74:C:/Users/stapi/OneDrive/Desktop/GD32VW553/V1_MQTT_OK/GD32VW55X_Wifi_BLE_SDK/GD32VW55x_RELEASE_V1.0.2/MSDK/wpa_supplicant/wpa_supplicant\driver_i.h **** 
  75:C:/Users/stapi/OneDrive/Desktop/GD32VW553/V1_MQTT_OK/GD32VW55X_Wifi_BLE_SDK/GD32VW55x_RELEASE_V1.0.2/MSDK/wpa_supplicant/wpa_supplicant\driver_i.h **** static inline int wpa_drv_join_mesh(struct wpa_supplicant *wpa_s,
  76:C:/Users/stapi/OneDrive/Desktop/GD32VW553/V1_MQTT_OK/GD32VW55X_Wifi_BLE_SDK/GD32VW55x_RELEASE_V1.0.2/MSDK/wpa_supplicant/wpa_supplicant\driver_i.h **** 				    struct wpa_driver_mesh_join_params *params)
  77:C:/Users/stapi/OneDrive/Desktop/GD32VW553/V1_MQTT_OK/GD32VW55X_Wifi_BLE_SDK/GD32VW55x_RELEASE_V1.0.2/MSDK/wpa_supplicant/wpa_supplicant\driver_i.h **** {
  78:C:/Users/stapi/OneDrive/Desktop/GD32VW553/V1_MQTT_OK/GD32VW55X_Wifi_BLE_SDK/GD32VW55x_RELEASE_V1.0.2/MSDK/wpa_supplicant/wpa_supplicant\driver_i.h **** 	if (wpa_s->driver->join_mesh)
  79:C:/Users/stapi/OneDrive/Desktop/GD32VW553/V1_MQTT_OK/GD32VW55X_Wifi_BLE_SDK/GD32VW55x_RELEASE_V1.0.2/MSDK/wpa_supplicant/wpa_supplicant\driver_i.h **** 		return wpa_s->driver->join_mesh(wpa_s->drv_priv, params);
  80:C:/Users/stapi/OneDrive/Desktop/GD32VW553/V1_MQTT_OK/GD32VW55X_Wifi_BLE_SDK/GD32VW55x_RELEASE_V1.0.2/MSDK/wpa_supplicant/wpa_supplicant\driver_i.h **** 	return -1;
  81:C:/Users/stapi/OneDrive/Desktop/GD32VW553/V1_MQTT_OK/GD32VW55X_Wifi_BLE_SDK/GD32VW55x_RELEASE_V1.0.2/MSDK/wpa_supplicant/wpa_supplicant\driver_i.h **** }
  82:C:/Users/stapi/OneDrive/Desktop/GD32VW553/V1_MQTT_OK/GD32VW55X_Wifi_BLE_SDK/GD32VW55x_RELEASE_V1.0.2/MSDK/wpa_supplicant/wpa_supplicant\driver_i.h **** 
  83:C:/Users/stapi/OneDrive/Desktop/GD32VW553/V1_MQTT_OK/GD32VW55X_Wifi_BLE_SDK/GD32VW55x_RELEASE_V1.0.2/MSDK/wpa_supplicant/wpa_supplicant\driver_i.h **** static inline int wpa_drv_leave_mesh(struct wpa_supplicant *wpa_s)
  84:C:/Users/stapi/OneDrive/Desktop/GD32VW553/V1_MQTT_OK/GD32VW55X_Wifi_BLE_SDK/GD32VW55x_RELEASE_V1.0.2/MSDK/wpa_supplicant/wpa_supplicant\driver_i.h **** {
  85:C:/Users/stapi/OneDrive/Desktop/GD32VW553/V1_MQTT_OK/GD32VW55X_Wifi_BLE_SDK/GD32VW55x_RELEASE_V1.0.2/MSDK/wpa_supplicant/wpa_supplicant\driver_i.h **** 	if (wpa_s->driver->leave_mesh)
  86:C:/Users/stapi/OneDrive/Desktop/GD32VW553/V1_MQTT_OK/GD32VW55X_Wifi_BLE_SDK/GD32VW55x_RELEASE_V1.0.2/MSDK/wpa_supplicant/wpa_supplicant\driver_i.h **** 		return wpa_s->driver->leave_mesh(wpa_s->drv_priv);
  87:C:/Users/stapi/OneDrive/Desktop/GD32VW553/V1_MQTT_OK/GD32VW55X_Wifi_BLE_SDK/GD32VW55x_RELEASE_V1.0.2/MSDK/wpa_supplicant/wpa_supplicant\driver_i.h **** 	return -1;
  88:C:/Users/stapi/OneDrive/Desktop/GD32VW553/V1_MQTT_OK/GD32VW55X_Wifi_BLE_SDK/GD32VW55x_RELEASE_V1.0.2/MSDK/wpa_supplicant/wpa_supplicant\driver_i.h **** }
  89:C:/Users/stapi/OneDrive/Desktop/GD32VW553/V1_MQTT_OK/GD32VW55X_Wifi_BLE_SDK/GD32VW55x_RELEASE_V1.0.2/MSDK/wpa_supplicant/wpa_supplicant\driver_i.h **** 
  90:C:/Users/stapi/OneDrive/Desktop/GD32VW553/V1_MQTT_OK/GD32VW55X_Wifi_BLE_SDK/GD32VW55x_RELEASE_V1.0.2/MSDK/wpa_supplicant/wpa_supplicant\driver_i.h **** static inline int wpa_drv_mesh_link_probe(struct wpa_supplicant *wpa_s,
  91:C:/Users/stapi/OneDrive/Desktop/GD32VW553/V1_MQTT_OK/GD32VW55X_Wifi_BLE_SDK/GD32VW55x_RELEASE_V1.0.2/MSDK/wpa_supplicant/wpa_supplicant\driver_i.h **** 					  const u8 *addr,
  92:C:/Users/stapi/OneDrive/Desktop/GD32VW553/V1_MQTT_OK/GD32VW55X_Wifi_BLE_SDK/GD32VW55x_RELEASE_V1.0.2/MSDK/wpa_supplicant/wpa_supplicant\driver_i.h **** 					  const u8 *eth, size_t len)
  93:C:/Users/stapi/OneDrive/Desktop/GD32VW553/V1_MQTT_OK/GD32VW55X_Wifi_BLE_SDK/GD32VW55x_RELEASE_V1.0.2/MSDK/wpa_supplicant/wpa_supplicant\driver_i.h **** {
  94:C:/Users/stapi/OneDrive/Desktop/GD32VW553/V1_MQTT_OK/GD32VW55X_Wifi_BLE_SDK/GD32VW55x_RELEASE_V1.0.2/MSDK/wpa_supplicant/wpa_supplicant\driver_i.h **** 	if (wpa_s->driver->probe_mesh_link)
  95:C:/Users/stapi/OneDrive/Desktop/GD32VW553/V1_MQTT_OK/GD32VW55X_Wifi_BLE_SDK/GD32VW55x_RELEASE_V1.0.2/MSDK/wpa_supplicant/wpa_supplicant\driver_i.h **** 		return wpa_s->driver->probe_mesh_link(wpa_s->drv_priv, addr,
  96:C:/Users/stapi/OneDrive/Desktop/GD32VW553/V1_MQTT_OK/GD32VW55X_Wifi_BLE_SDK/GD32VW55x_RELEASE_V1.0.2/MSDK/wpa_supplicant/wpa_supplicant\driver_i.h **** 						      eth, len);
  97:C:/Users/stapi/OneDrive/Desktop/GD32VW553/V1_MQTT_OK/GD32VW55X_Wifi_BLE_SDK/GD32VW55x_RELEASE_V1.0.2/MSDK/wpa_supplicant/wpa_supplicant\driver_i.h **** 	return -1;
  98:C:/Users/stapi/OneDrive/Desktop/GD32VW553/V1_MQTT_OK/GD32VW55X_Wifi_BLE_SDK/GD32VW55x_RELEASE_V1.0.2/MSDK/wpa_supplicant/wpa_supplicant\driver_i.h **** }
  99:C:/Users/stapi/OneDrive/Desktop/GD32VW553/V1_MQTT_OK/GD32VW55X_Wifi_BLE_SDK/GD32VW55x_RELEASE_V1.0.2/MSDK/wpa_supplicant/wpa_supplicant\driver_i.h **** 
 100:C:/Users/stapi/OneDrive/Desktop/GD32VW553/V1_MQTT_OK/GD32VW55X_Wifi_BLE_SDK/GD32VW55x_RELEASE_V1.0.2/MSDK/wpa_supplicant/wpa_supplicant\driver_i.h **** static inline int wpa_drv_scan(struct wpa_supplicant *wpa_s,
 101:C:/Users/stapi/OneDrive/Desktop/GD32VW553/V1_MQTT_OK/GD32VW55X_Wifi_BLE_SDK/GD32VW55x_RELEASE_V1.0.2/MSDK/wpa_supplicant/wpa_supplicant\driver_i.h **** 			       struct wpa_driver_scan_params *params)
 102:C:/Users/stapi/OneDrive/Desktop/GD32VW553/V1_MQTT_OK/GD32VW55X_Wifi_BLE_SDK/GD32VW55x_RELEASE_V1.0.2/MSDK/wpa_supplicant/wpa_supplicant\driver_i.h **** {
 103:C:/Users/stapi/OneDrive/Desktop/GD32VW553/V1_MQTT_OK/GD32VW55X_Wifi_BLE_SDK/GD32VW55x_RELEASE_V1.0.2/MSDK/wpa_supplicant/wpa_supplicant\driver_i.h **** #ifdef CONFIG_TESTING_OPTIONS
 104:C:/Users/stapi/OneDrive/Desktop/GD32VW553/V1_MQTT_OK/GD32VW55X_Wifi_BLE_SDK/GD32VW55x_RELEASE_V1.0.2/MSDK/wpa_supplicant/wpa_supplicant\driver_i.h **** 	if (wpa_s->test_failure == WPAS_TEST_FAILURE_SCAN_TRIGGER)
 105:C:/Users/stapi/OneDrive/Desktop/GD32VW553/V1_MQTT_OK/GD32VW55X_Wifi_BLE_SDK/GD32VW55x_RELEASE_V1.0.2/MSDK/wpa_supplicant/wpa_supplicant\driver_i.h **** 		return -EBUSY;
 106:C:/Users/stapi/OneDrive/Desktop/GD32VW553/V1_MQTT_OK/GD32VW55X_Wifi_BLE_SDK/GD32VW55x_RELEASE_V1.0.2/MSDK/wpa_supplicant/wpa_supplicant\driver_i.h **** #endif /* CONFIG_TESTING_OPTIONS */
 107:C:/Users/stapi/OneDrive/Desktop/GD32VW553/V1_MQTT_OK/GD32VW55X_Wifi_BLE_SDK/GD32VW55x_RELEASE_V1.0.2/MSDK/wpa_supplicant/wpa_supplicant\driver_i.h **** 	if (wpa_s->driver->scan2)
 108:C:/Users/stapi/OneDrive/Desktop/GD32VW553/V1_MQTT_OK/GD32VW55X_Wifi_BLE_SDK/GD32VW55x_RELEASE_V1.0.2/MSDK/wpa_supplicant/wpa_supplicant\driver_i.h **** 		return wpa_s->driver->scan2(wpa_s->drv_priv, params);
 109:C:/Users/stapi/OneDrive/Desktop/GD32VW553/V1_MQTT_OK/GD32VW55X_Wifi_BLE_SDK/GD32VW55x_RELEASE_V1.0.2/MSDK/wpa_supplicant/wpa_supplicant\driver_i.h **** 	return -1;
 110:C:/Users/stapi/OneDrive/Desktop/GD32VW553/V1_MQTT_OK/GD32VW55X_Wifi_BLE_SDK/GD32VW55x_RELEASE_V1.0.2/MSDK/wpa_supplicant/wpa_supplicant\driver_i.h **** }
 111:C:/Users/stapi/OneDrive/Desktop/GD32VW553/V1_MQTT_OK/GD32VW55X_Wifi_BLE_SDK/GD32VW55x_RELEASE_V1.0.2/MSDK/wpa_supplicant/wpa_supplicant\driver_i.h **** 
 112:C:/Users/stapi/OneDrive/Desktop/GD32VW553/V1_MQTT_OK/GD32VW55X_Wifi_BLE_SDK/GD32VW55x_RELEASE_V1.0.2/MSDK/wpa_supplicant/wpa_supplicant\driver_i.h **** static inline int wpa_drv_sched_scan(struct wpa_supplicant *wpa_s,
 113:C:/Users/stapi/OneDrive/Desktop/GD32VW553/V1_MQTT_OK/GD32VW55X_Wifi_BLE_SDK/GD32VW55x_RELEASE_V1.0.2/MSDK/wpa_supplicant/wpa_supplicant\driver_i.h **** 				     struct wpa_driver_scan_params *params)
 114:C:/Users/stapi/OneDrive/Desktop/GD32VW553/V1_MQTT_OK/GD32VW55X_Wifi_BLE_SDK/GD32VW55x_RELEASE_V1.0.2/MSDK/wpa_supplicant/wpa_supplicant\driver_i.h **** {
 115:C:/Users/stapi/OneDrive/Desktop/GD32VW553/V1_MQTT_OK/GD32VW55X_Wifi_BLE_SDK/GD32VW55x_RELEASE_V1.0.2/MSDK/wpa_supplicant/wpa_supplicant\driver_i.h **** 	if (wpa_s->driver->sched_scan)
 116:C:/Users/stapi/OneDrive/Desktop/GD32VW553/V1_MQTT_OK/GD32VW55X_Wifi_BLE_SDK/GD32VW55x_RELEASE_V1.0.2/MSDK/wpa_supplicant/wpa_supplicant\driver_i.h **** 		return wpa_s->driver->sched_scan(wpa_s->drv_priv, params);
 117:C:/Users/stapi/OneDrive/Desktop/GD32VW553/V1_MQTT_OK/GD32VW55X_Wifi_BLE_SDK/GD32VW55x_RELEASE_V1.0.2/MSDK/wpa_supplicant/wpa_supplicant\driver_i.h **** 	return -1;
 118:C:/Users/stapi/OneDrive/Desktop/GD32VW553/V1_MQTT_OK/GD32VW55X_Wifi_BLE_SDK/GD32VW55x_RELEASE_V1.0.2/MSDK/wpa_supplicant/wpa_supplicant\driver_i.h **** }
 119:C:/Users/stapi/OneDrive/Desktop/GD32VW553/V1_MQTT_OK/GD32VW55X_Wifi_BLE_SDK/GD32VW55x_RELEASE_V1.0.2/MSDK/wpa_supplicant/wpa_supplicant\driver_i.h **** 
 120:C:/Users/stapi/OneDrive/Desktop/GD32VW553/V1_MQTT_OK/GD32VW55X_Wifi_BLE_SDK/GD32VW55x_RELEASE_V1.0.2/MSDK/wpa_supplicant/wpa_supplicant\driver_i.h **** static inline int wpa_drv_stop_sched_scan(struct wpa_supplicant *wpa_s)
 121:C:/Users/stapi/OneDrive/Desktop/GD32VW553/V1_MQTT_OK/GD32VW55X_Wifi_BLE_SDK/GD32VW55x_RELEASE_V1.0.2/MSDK/wpa_supplicant/wpa_supplicant\driver_i.h **** {
 122:C:/Users/stapi/OneDrive/Desktop/GD32VW553/V1_MQTT_OK/GD32VW55X_Wifi_BLE_SDK/GD32VW55x_RELEASE_V1.0.2/MSDK/wpa_supplicant/wpa_supplicant\driver_i.h **** 	if (wpa_s->driver->stop_sched_scan)
 123:C:/Users/stapi/OneDrive/Desktop/GD32VW553/V1_MQTT_OK/GD32VW55X_Wifi_BLE_SDK/GD32VW55x_RELEASE_V1.0.2/MSDK/wpa_supplicant/wpa_supplicant\driver_i.h **** 		return wpa_s->driver->stop_sched_scan(wpa_s->drv_priv);
 124:C:/Users/stapi/OneDrive/Desktop/GD32VW553/V1_MQTT_OK/GD32VW55X_Wifi_BLE_SDK/GD32VW55x_RELEASE_V1.0.2/MSDK/wpa_supplicant/wpa_supplicant\driver_i.h **** 	return -1;
 125:C:/Users/stapi/OneDrive/Desktop/GD32VW553/V1_MQTT_OK/GD32VW55X_Wifi_BLE_SDK/GD32VW55x_RELEASE_V1.0.2/MSDK/wpa_supplicant/wpa_supplicant\driver_i.h **** }
 126:C:/Users/stapi/OneDrive/Desktop/GD32VW553/V1_MQTT_OK/GD32VW55X_Wifi_BLE_SDK/GD32VW55x_RELEASE_V1.0.2/MSDK/wpa_supplicant/wpa_supplicant\driver_i.h **** 
 127:C:/Users/stapi/OneDrive/Desktop/GD32VW553/V1_MQTT_OK/GD32VW55X_Wifi_BLE_SDK/GD32VW55x_RELEASE_V1.0.2/MSDK/wpa_supplicant/wpa_supplicant\driver_i.h **** struct wpa_scan_results *
 128:C:/Users/stapi/OneDrive/Desktop/GD32VW553/V1_MQTT_OK/GD32VW55X_Wifi_BLE_SDK/GD32VW55x_RELEASE_V1.0.2/MSDK/wpa_supplicant/wpa_supplicant\driver_i.h **** wpa_drv_get_scan_results2(struct wpa_supplicant *wpa_s);
 129:C:/Users/stapi/OneDrive/Desktop/GD32VW553/V1_MQTT_OK/GD32VW55X_Wifi_BLE_SDK/GD32VW55x_RELEASE_V1.0.2/MSDK/wpa_supplicant/wpa_supplicant\driver_i.h **** 
 130:C:/Users/stapi/OneDrive/Desktop/GD32VW553/V1_MQTT_OK/GD32VW55X_Wifi_BLE_SDK/GD32VW55x_RELEASE_V1.0.2/MSDK/wpa_supplicant/wpa_supplicant\driver_i.h **** static inline int wpa_drv_get_bssid(struct wpa_supplicant *wpa_s, u8 *bssid)
 131:C:/Users/stapi/OneDrive/Desktop/GD32VW553/V1_MQTT_OK/GD32VW55X_Wifi_BLE_SDK/GD32VW55x_RELEASE_V1.0.2/MSDK/wpa_supplicant/wpa_supplicant\driver_i.h **** {
 132:C:/Users/stapi/OneDrive/Desktop/GD32VW553/V1_MQTT_OK/GD32VW55X_Wifi_BLE_SDK/GD32VW55x_RELEASE_V1.0.2/MSDK/wpa_supplicant/wpa_supplicant\driver_i.h **** 	if (wpa_s->driver->get_bssid) {
 133:C:/Users/stapi/OneDrive/Desktop/GD32VW553/V1_MQTT_OK/GD32VW55X_Wifi_BLE_SDK/GD32VW55x_RELEASE_V1.0.2/MSDK/wpa_supplicant/wpa_supplicant\driver_i.h **** 		return wpa_s->driver->get_bssid(wpa_s->drv_priv, bssid);
 134:C:/Users/stapi/OneDrive/Desktop/GD32VW553/V1_MQTT_OK/GD32VW55X_Wifi_BLE_SDK/GD32VW55x_RELEASE_V1.0.2/MSDK/wpa_supplicant/wpa_supplicant\driver_i.h **** 	}
 135:C:/Users/stapi/OneDrive/Desktop/GD32VW553/V1_MQTT_OK/GD32VW55X_Wifi_BLE_SDK/GD32VW55x_RELEASE_V1.0.2/MSDK/wpa_supplicant/wpa_supplicant\driver_i.h **** 	return -1;
 136:C:/Users/stapi/OneDrive/Desktop/GD32VW553/V1_MQTT_OK/GD32VW55X_Wifi_BLE_SDK/GD32VW55x_RELEASE_V1.0.2/MSDK/wpa_supplicant/wpa_supplicant\driver_i.h **** }
 137:C:/Users/stapi/OneDrive/Desktop/GD32VW553/V1_MQTT_OK/GD32VW55X_Wifi_BLE_SDK/GD32VW55x_RELEASE_V1.0.2/MSDK/wpa_supplicant/wpa_supplicant\driver_i.h **** 
 138:C:/Users/stapi/OneDrive/Desktop/GD32VW553/V1_MQTT_OK/GD32VW55X_Wifi_BLE_SDK/GD32VW55x_RELEASE_V1.0.2/MSDK/wpa_supplicant/wpa_supplicant\driver_i.h **** static inline int wpa_drv_get_ssid(struct wpa_supplicant *wpa_s, u8 *ssid)
 139:C:/Users/stapi/OneDrive/Desktop/GD32VW553/V1_MQTT_OK/GD32VW55X_Wifi_BLE_SDK/GD32VW55x_RELEASE_V1.0.2/MSDK/wpa_supplicant/wpa_supplicant\driver_i.h **** {
 140:C:/Users/stapi/OneDrive/Desktop/GD32VW553/V1_MQTT_OK/GD32VW55X_Wifi_BLE_SDK/GD32VW55x_RELEASE_V1.0.2/MSDK/wpa_supplicant/wpa_supplicant\driver_i.h **** 	if (wpa_s->driver->get_ssid) {
 141:C:/Users/stapi/OneDrive/Desktop/GD32VW553/V1_MQTT_OK/GD32VW55X_Wifi_BLE_SDK/GD32VW55x_RELEASE_V1.0.2/MSDK/wpa_supplicant/wpa_supplicant\driver_i.h **** 		return wpa_s->driver->get_ssid(wpa_s->drv_priv, ssid);
 142:C:/Users/stapi/OneDrive/Desktop/GD32VW553/V1_MQTT_OK/GD32VW55X_Wifi_BLE_SDK/GD32VW55x_RELEASE_V1.0.2/MSDK/wpa_supplicant/wpa_supplicant\driver_i.h **** 	}
 143:C:/Users/stapi/OneDrive/Desktop/GD32VW553/V1_MQTT_OK/GD32VW55X_Wifi_BLE_SDK/GD32VW55x_RELEASE_V1.0.2/MSDK/wpa_supplicant/wpa_supplicant\driver_i.h **** 	return -1;
 144:C:/Users/stapi/OneDrive/Desktop/GD32VW553/V1_MQTT_OK/GD32VW55X_Wifi_BLE_SDK/GD32VW55x_RELEASE_V1.0.2/MSDK/wpa_supplicant/wpa_supplicant\driver_i.h **** }
 145:C:/Users/stapi/OneDrive/Desktop/GD32VW553/V1_MQTT_OK/GD32VW55X_Wifi_BLE_SDK/GD32VW55x_RELEASE_V1.0.2/MSDK/wpa_supplicant/wpa_supplicant\driver_i.h **** 
 146:C:/Users/stapi/OneDrive/Desktop/GD32VW553/V1_MQTT_OK/GD32VW55X_Wifi_BLE_SDK/GD32VW55x_RELEASE_V1.0.2/MSDK/wpa_supplicant/wpa_supplicant\driver_i.h **** static inline int wpa_drv_set_key(struct wpa_supplicant *wpa_s,
 147:C:/Users/stapi/OneDrive/Desktop/GD32VW553/V1_MQTT_OK/GD32VW55X_Wifi_BLE_SDK/GD32VW55x_RELEASE_V1.0.2/MSDK/wpa_supplicant/wpa_supplicant\driver_i.h **** 				  enum wpa_alg alg, const u8 *addr,
 148:C:/Users/stapi/OneDrive/Desktop/GD32VW553/V1_MQTT_OK/GD32VW55X_Wifi_BLE_SDK/GD32VW55x_RELEASE_V1.0.2/MSDK/wpa_supplicant/wpa_supplicant\driver_i.h **** 				  int key_idx, int set_tx,
 149:C:/Users/stapi/OneDrive/Desktop/GD32VW553/V1_MQTT_OK/GD32VW55X_Wifi_BLE_SDK/GD32VW55x_RELEASE_V1.0.2/MSDK/wpa_supplicant/wpa_supplicant\driver_i.h **** 				  const u8 *seq, size_t seq_len,
 150:C:/Users/stapi/OneDrive/Desktop/GD32VW553/V1_MQTT_OK/GD32VW55X_Wifi_BLE_SDK/GD32VW55x_RELEASE_V1.0.2/MSDK/wpa_supplicant/wpa_supplicant\driver_i.h **** 				  const u8 *key, size_t key_len,
 151:C:/Users/stapi/OneDrive/Desktop/GD32VW553/V1_MQTT_OK/GD32VW55X_Wifi_BLE_SDK/GD32VW55x_RELEASE_V1.0.2/MSDK/wpa_supplicant/wpa_supplicant\driver_i.h **** 				  enum key_flag key_flag)
 152:C:/Users/stapi/OneDrive/Desktop/GD32VW553/V1_MQTT_OK/GD32VW55X_Wifi_BLE_SDK/GD32VW55x_RELEASE_V1.0.2/MSDK/wpa_supplicant/wpa_supplicant\driver_i.h **** {
 153:C:/Users/stapi/OneDrive/Desktop/GD32VW553/V1_MQTT_OK/GD32VW55X_Wifi_BLE_SDK/GD32VW55x_RELEASE_V1.0.2/MSDK/wpa_supplicant/wpa_supplicant\driver_i.h **** 	struct wpa_driver_set_key_params params;
 154:C:/Users/stapi/OneDrive/Desktop/GD32VW553/V1_MQTT_OK/GD32VW55X_Wifi_BLE_SDK/GD32VW55x_RELEASE_V1.0.2/MSDK/wpa_supplicant/wpa_supplicant\driver_i.h **** 
 155:C:/Users/stapi/OneDrive/Desktop/GD32VW553/V1_MQTT_OK/GD32VW55X_Wifi_BLE_SDK/GD32VW55x_RELEASE_V1.0.2/MSDK/wpa_supplicant/wpa_supplicant\driver_i.h **** 	os_memset(&params, 0, sizeof(params));
 156:C:/Users/stapi/OneDrive/Desktop/GD32VW553/V1_MQTT_OK/GD32VW55X_Wifi_BLE_SDK/GD32VW55x_RELEASE_V1.0.2/MSDK/wpa_supplicant/wpa_supplicant\driver_i.h **** 	params.ifname = wpa_s->ifname;
 157:C:/Users/stapi/OneDrive/Desktop/GD32VW553/V1_MQTT_OK/GD32VW55X_Wifi_BLE_SDK/GD32VW55x_RELEASE_V1.0.2/MSDK/wpa_supplicant/wpa_supplicant\driver_i.h **** 	params.alg = alg;
 158:C:/Users/stapi/OneDrive/Desktop/GD32VW553/V1_MQTT_OK/GD32VW55X_Wifi_BLE_SDK/GD32VW55x_RELEASE_V1.0.2/MSDK/wpa_supplicant/wpa_supplicant\driver_i.h **** 	params.addr = addr;
 159:C:/Users/stapi/OneDrive/Desktop/GD32VW553/V1_MQTT_OK/GD32VW55X_Wifi_BLE_SDK/GD32VW55x_RELEASE_V1.0.2/MSDK/wpa_supplicant/wpa_supplicant\driver_i.h **** 	params.key_idx = key_idx;
 160:C:/Users/stapi/OneDrive/Desktop/GD32VW553/V1_MQTT_OK/GD32VW55X_Wifi_BLE_SDK/GD32VW55x_RELEASE_V1.0.2/MSDK/wpa_supplicant/wpa_supplicant\driver_i.h **** 	params.set_tx = set_tx;
 161:C:/Users/stapi/OneDrive/Desktop/GD32VW553/V1_MQTT_OK/GD32VW55X_Wifi_BLE_SDK/GD32VW55x_RELEASE_V1.0.2/MSDK/wpa_supplicant/wpa_supplicant\driver_i.h **** 	params.seq = seq;
 162:C:/Users/stapi/OneDrive/Desktop/GD32VW553/V1_MQTT_OK/GD32VW55X_Wifi_BLE_SDK/GD32VW55x_RELEASE_V1.0.2/MSDK/wpa_supplicant/wpa_supplicant\driver_i.h **** 	params.seq_len = seq_len;
 163:C:/Users/stapi/OneDrive/Desktop/GD32VW553/V1_MQTT_OK/GD32VW55X_Wifi_BLE_SDK/GD32VW55x_RELEASE_V1.0.2/MSDK/wpa_supplicant/wpa_supplicant\driver_i.h **** 	params.key = key;
 164:C:/Users/stapi/OneDrive/Desktop/GD32VW553/V1_MQTT_OK/GD32VW55X_Wifi_BLE_SDK/GD32VW55x_RELEASE_V1.0.2/MSDK/wpa_supplicant/wpa_supplicant\driver_i.h **** 	params.key_len = key_len;
 165:C:/Users/stapi/OneDrive/Desktop/GD32VW553/V1_MQTT_OK/GD32VW55X_Wifi_BLE_SDK/GD32VW55x_RELEASE_V1.0.2/MSDK/wpa_supplicant/wpa_supplicant\driver_i.h **** 	params.key_flag = key_flag;
 166:C:/Users/stapi/OneDrive/Desktop/GD32VW553/V1_MQTT_OK/GD32VW55X_Wifi_BLE_SDK/GD32VW55x_RELEASE_V1.0.2/MSDK/wpa_supplicant/wpa_supplicant\driver_i.h **** 
 167:C:/Users/stapi/OneDrive/Desktop/GD32VW553/V1_MQTT_OK/GD32VW55X_Wifi_BLE_SDK/GD32VW55x_RELEASE_V1.0.2/MSDK/wpa_supplicant/wpa_supplicant\driver_i.h **** 	if (alg != WPA_ALG_NONE) {
 168:C:/Users/stapi/OneDrive/Desktop/GD32VW553/V1_MQTT_OK/GD32VW55X_Wifi_BLE_SDK/GD32VW55x_RELEASE_V1.0.2/MSDK/wpa_supplicant/wpa_supplicant\driver_i.h **** 		/* keyidx = 1 can be either a broadcast or--with
 169:C:/Users/stapi/OneDrive/Desktop/GD32VW553/V1_MQTT_OK/GD32VW55X_Wifi_BLE_SDK/GD32VW55x_RELEASE_V1.0.2/MSDK/wpa_supplicant/wpa_supplicant\driver_i.h **** 		 * Extended Key ID--a unicast key. Use bit 15 for
 170:C:/Users/stapi/OneDrive/Desktop/GD32VW553/V1_MQTT_OK/GD32VW55X_Wifi_BLE_SDK/GD32VW55x_RELEASE_V1.0.2/MSDK/wpa_supplicant/wpa_supplicant\driver_i.h **** 		 * the pairwise keyidx 1 which is hopefully high enough
 171:C:/Users/stapi/OneDrive/Desktop/GD32VW553/V1_MQTT_OK/GD32VW55X_Wifi_BLE_SDK/GD32VW55x_RELEASE_V1.0.2/MSDK/wpa_supplicant/wpa_supplicant\driver_i.h **** 		 * to not clash with future extensions.
 172:C:/Users/stapi/OneDrive/Desktop/GD32VW553/V1_MQTT_OK/GD32VW55X_Wifi_BLE_SDK/GD32VW55x_RELEASE_V1.0.2/MSDK/wpa_supplicant/wpa_supplicant\driver_i.h **** 		 */
 173:C:/Users/stapi/OneDrive/Desktop/GD32VW553/V1_MQTT_OK/GD32VW55X_Wifi_BLE_SDK/GD32VW55x_RELEASE_V1.0.2/MSDK/wpa_supplicant/wpa_supplicant\driver_i.h **** 		if (key_idx == 1 && (key_flag & KEY_FLAG_PAIRWISE))
 174:C:/Users/stapi/OneDrive/Desktop/GD32VW553/V1_MQTT_OK/GD32VW55X_Wifi_BLE_SDK/GD32VW55x_RELEASE_V1.0.2/MSDK/wpa_supplicant/wpa_supplicant\driver_i.h **** 			wpa_s->keys_cleared &= ~BIT(15);
 175:C:/Users/stapi/OneDrive/Desktop/GD32VW553/V1_MQTT_OK/GD32VW55X_Wifi_BLE_SDK/GD32VW55x_RELEASE_V1.0.2/MSDK/wpa_supplicant/wpa_supplicant\driver_i.h **** 		else if (key_idx >= 0 && key_idx <= 5)
 176:C:/Users/stapi/OneDrive/Desktop/GD32VW553/V1_MQTT_OK/GD32VW55X_Wifi_BLE_SDK/GD32VW55x_RELEASE_V1.0.2/MSDK/wpa_supplicant/wpa_supplicant\driver_i.h **** 			wpa_s->keys_cleared &= ~BIT(key_idx);
 177:C:/Users/stapi/OneDrive/Desktop/GD32VW553/V1_MQTT_OK/GD32VW55X_Wifi_BLE_SDK/GD32VW55x_RELEASE_V1.0.2/MSDK/wpa_supplicant/wpa_supplicant\driver_i.h **** 		else
 178:C:/Users/stapi/OneDrive/Desktop/GD32VW553/V1_MQTT_OK/GD32VW55X_Wifi_BLE_SDK/GD32VW55x_RELEASE_V1.0.2/MSDK/wpa_supplicant/wpa_supplicant\driver_i.h **** 			wpa_s->keys_cleared = 0;
 179:C:/Users/stapi/OneDrive/Desktop/GD32VW553/V1_MQTT_OK/GD32VW55X_Wifi_BLE_SDK/GD32VW55x_RELEASE_V1.0.2/MSDK/wpa_supplicant/wpa_supplicant\driver_i.h **** 	}
 180:C:/Users/stapi/OneDrive/Desktop/GD32VW553/V1_MQTT_OK/GD32VW55X_Wifi_BLE_SDK/GD32VW55x_RELEASE_V1.0.2/MSDK/wpa_supplicant/wpa_supplicant\driver_i.h **** 	if (wpa_s->driver->set_key) {
 181:C:/Users/stapi/OneDrive/Desktop/GD32VW553/V1_MQTT_OK/GD32VW55X_Wifi_BLE_SDK/GD32VW55x_RELEASE_V1.0.2/MSDK/wpa_supplicant/wpa_supplicant\driver_i.h **** 		return wpa_s->driver->set_key(wpa_s->drv_priv, &params);
 182:C:/Users/stapi/OneDrive/Desktop/GD32VW553/V1_MQTT_OK/GD32VW55X_Wifi_BLE_SDK/GD32VW55x_RELEASE_V1.0.2/MSDK/wpa_supplicant/wpa_supplicant\driver_i.h **** 	}
 183:C:/Users/stapi/OneDrive/Desktop/GD32VW553/V1_MQTT_OK/GD32VW55X_Wifi_BLE_SDK/GD32VW55x_RELEASE_V1.0.2/MSDK/wpa_supplicant/wpa_supplicant\driver_i.h **** 	return -1;
 184:C:/Users/stapi/OneDrive/Desktop/GD32VW553/V1_MQTT_OK/GD32VW55X_Wifi_BLE_SDK/GD32VW55x_RELEASE_V1.0.2/MSDK/wpa_supplicant/wpa_supplicant\driver_i.h **** }
 185:C:/Users/stapi/OneDrive/Desktop/GD32VW553/V1_MQTT_OK/GD32VW55X_Wifi_BLE_SDK/GD32VW55x_RELEASE_V1.0.2/MSDK/wpa_supplicant/wpa_supplicant\driver_i.h **** 
 186:C:/Users/stapi/OneDrive/Desktop/GD32VW553/V1_MQTT_OK/GD32VW55X_Wifi_BLE_SDK/GD32VW55x_RELEASE_V1.0.2/MSDK/wpa_supplicant/wpa_supplicant\driver_i.h **** static inline int wpa_drv_get_seqnum(struct wpa_supplicant *wpa_s,
 187:C:/Users/stapi/OneDrive/Desktop/GD32VW553/V1_MQTT_OK/GD32VW55X_Wifi_BLE_SDK/GD32VW55x_RELEASE_V1.0.2/MSDK/wpa_supplicant/wpa_supplicant\driver_i.h **** 				     const u8 *addr, int idx, u8 *seq)
 188:C:/Users/stapi/OneDrive/Desktop/GD32VW553/V1_MQTT_OK/GD32VW55X_Wifi_BLE_SDK/GD32VW55x_RELEASE_V1.0.2/MSDK/wpa_supplicant/wpa_supplicant\driver_i.h **** {
 189:C:/Users/stapi/OneDrive/Desktop/GD32VW553/V1_MQTT_OK/GD32VW55X_Wifi_BLE_SDK/GD32VW55x_RELEASE_V1.0.2/MSDK/wpa_supplicant/wpa_supplicant\driver_i.h **** 	if (wpa_s->driver->get_seqnum)
 190:C:/Users/stapi/OneDrive/Desktop/GD32VW553/V1_MQTT_OK/GD32VW55X_Wifi_BLE_SDK/GD32VW55x_RELEASE_V1.0.2/MSDK/wpa_supplicant/wpa_supplicant\driver_i.h **** 		return wpa_s->driver->get_seqnum(wpa_s->ifname, wpa_s->drv_priv,
 191:C:/Users/stapi/OneDrive/Desktop/GD32VW553/V1_MQTT_OK/GD32VW55X_Wifi_BLE_SDK/GD32VW55x_RELEASE_V1.0.2/MSDK/wpa_supplicant/wpa_supplicant\driver_i.h **** 						 addr, idx, seq);
 192:C:/Users/stapi/OneDrive/Desktop/GD32VW553/V1_MQTT_OK/GD32VW55X_Wifi_BLE_SDK/GD32VW55x_RELEASE_V1.0.2/MSDK/wpa_supplicant/wpa_supplicant\driver_i.h **** 	return -1;
 193:C:/Users/stapi/OneDrive/Desktop/GD32VW553/V1_MQTT_OK/GD32VW55X_Wifi_BLE_SDK/GD32VW55x_RELEASE_V1.0.2/MSDK/wpa_supplicant/wpa_supplicant\driver_i.h **** }
 194:C:/Users/stapi/OneDrive/Desktop/GD32VW553/V1_MQTT_OK/GD32VW55X_Wifi_BLE_SDK/GD32VW55x_RELEASE_V1.0.2/MSDK/wpa_supplicant/wpa_supplicant\driver_i.h **** 
 195:C:/Users/stapi/OneDrive/Desktop/GD32VW553/V1_MQTT_OK/GD32VW55X_Wifi_BLE_SDK/GD32VW55x_RELEASE_V1.0.2/MSDK/wpa_supplicant/wpa_supplicant\driver_i.h **** static inline int wpa_drv_sta_deauth(struct wpa_supplicant *wpa_s,
 196:C:/Users/stapi/OneDrive/Desktop/GD32VW553/V1_MQTT_OK/GD32VW55X_Wifi_BLE_SDK/GD32VW55x_RELEASE_V1.0.2/MSDK/wpa_supplicant/wpa_supplicant\driver_i.h **** 				     const u8 *addr, u16 reason_code)
 197:C:/Users/stapi/OneDrive/Desktop/GD32VW553/V1_MQTT_OK/GD32VW55X_Wifi_BLE_SDK/GD32VW55x_RELEASE_V1.0.2/MSDK/wpa_supplicant/wpa_supplicant\driver_i.h **** {
 198:C:/Users/stapi/OneDrive/Desktop/GD32VW553/V1_MQTT_OK/GD32VW55X_Wifi_BLE_SDK/GD32VW55x_RELEASE_V1.0.2/MSDK/wpa_supplicant/wpa_supplicant\driver_i.h **** 	if (wpa_s->driver->sta_deauth) {
 199:C:/Users/stapi/OneDrive/Desktop/GD32VW553/V1_MQTT_OK/GD32VW55X_Wifi_BLE_SDK/GD32VW55x_RELEASE_V1.0.2/MSDK/wpa_supplicant/wpa_supplicant\driver_i.h **** 		return wpa_s->driver->sta_deauth(wpa_s->drv_priv,
 200:C:/Users/stapi/OneDrive/Desktop/GD32VW553/V1_MQTT_OK/GD32VW55X_Wifi_BLE_SDK/GD32VW55x_RELEASE_V1.0.2/MSDK/wpa_supplicant/wpa_supplicant\driver_i.h **** 						 wpa_s->own_addr, addr,
 201:C:/Users/stapi/OneDrive/Desktop/GD32VW553/V1_MQTT_OK/GD32VW55X_Wifi_BLE_SDK/GD32VW55x_RELEASE_V1.0.2/MSDK/wpa_supplicant/wpa_supplicant\driver_i.h **** 						 reason_code);
 202:C:/Users/stapi/OneDrive/Desktop/GD32VW553/V1_MQTT_OK/GD32VW55X_Wifi_BLE_SDK/GD32VW55x_RELEASE_V1.0.2/MSDK/wpa_supplicant/wpa_supplicant\driver_i.h **** 	}
 203:C:/Users/stapi/OneDrive/Desktop/GD32VW553/V1_MQTT_OK/GD32VW55X_Wifi_BLE_SDK/GD32VW55x_RELEASE_V1.0.2/MSDK/wpa_supplicant/wpa_supplicant\driver_i.h **** 	return -1;
 204:C:/Users/stapi/OneDrive/Desktop/GD32VW553/V1_MQTT_OK/GD32VW55X_Wifi_BLE_SDK/GD32VW55x_RELEASE_V1.0.2/MSDK/wpa_supplicant/wpa_supplicant\driver_i.h **** }
 205:C:/Users/stapi/OneDrive/Desktop/GD32VW553/V1_MQTT_OK/GD32VW55X_Wifi_BLE_SDK/GD32VW55x_RELEASE_V1.0.2/MSDK/wpa_supplicant/wpa_supplicant\driver_i.h **** 
 206:C:/Users/stapi/OneDrive/Desktop/GD32VW553/V1_MQTT_OK/GD32VW55X_Wifi_BLE_SDK/GD32VW55x_RELEASE_V1.0.2/MSDK/wpa_supplicant/wpa_supplicant\driver_i.h **** static inline int wpa_drv_deauthenticate(struct wpa_supplicant *wpa_s,
 207:C:/Users/stapi/OneDrive/Desktop/GD32VW553/V1_MQTT_OK/GD32VW55X_Wifi_BLE_SDK/GD32VW55x_RELEASE_V1.0.2/MSDK/wpa_supplicant/wpa_supplicant\driver_i.h **** 					 const u8 *addr, u16 reason_code)
 208:C:/Users/stapi/OneDrive/Desktop/GD32VW553/V1_MQTT_OK/GD32VW55X_Wifi_BLE_SDK/GD32VW55x_RELEASE_V1.0.2/MSDK/wpa_supplicant/wpa_supplicant\driver_i.h **** {
 209:C:/Users/stapi/OneDrive/Desktop/GD32VW553/V1_MQTT_OK/GD32VW55X_Wifi_BLE_SDK/GD32VW55x_RELEASE_V1.0.2/MSDK/wpa_supplicant/wpa_supplicant\driver_i.h **** 	if (wpa_s->driver->deauthenticate) {
 210:C:/Users/stapi/OneDrive/Desktop/GD32VW553/V1_MQTT_OK/GD32VW55X_Wifi_BLE_SDK/GD32VW55x_RELEASE_V1.0.2/MSDK/wpa_supplicant/wpa_supplicant\driver_i.h **** 		return wpa_s->driver->deauthenticate(wpa_s->drv_priv, addr,
 211:C:/Users/stapi/OneDrive/Desktop/GD32VW553/V1_MQTT_OK/GD32VW55X_Wifi_BLE_SDK/GD32VW55x_RELEASE_V1.0.2/MSDK/wpa_supplicant/wpa_supplicant\driver_i.h **** 						     reason_code);
 212:C:/Users/stapi/OneDrive/Desktop/GD32VW553/V1_MQTT_OK/GD32VW55X_Wifi_BLE_SDK/GD32VW55x_RELEASE_V1.0.2/MSDK/wpa_supplicant/wpa_supplicant\driver_i.h **** 	}
 213:C:/Users/stapi/OneDrive/Desktop/GD32VW553/V1_MQTT_OK/GD32VW55X_Wifi_BLE_SDK/GD32VW55x_RELEASE_V1.0.2/MSDK/wpa_supplicant/wpa_supplicant\driver_i.h **** 	return -1;
 214:C:/Users/stapi/OneDrive/Desktop/GD32VW553/V1_MQTT_OK/GD32VW55X_Wifi_BLE_SDK/GD32VW55x_RELEASE_V1.0.2/MSDK/wpa_supplicant/wpa_supplicant\driver_i.h **** }
 215:C:/Users/stapi/OneDrive/Desktop/GD32VW553/V1_MQTT_OK/GD32VW55X_Wifi_BLE_SDK/GD32VW55x_RELEASE_V1.0.2/MSDK/wpa_supplicant/wpa_supplicant\driver_i.h **** 
 216:C:/Users/stapi/OneDrive/Desktop/GD32VW553/V1_MQTT_OK/GD32VW55X_Wifi_BLE_SDK/GD32VW55x_RELEASE_V1.0.2/MSDK/wpa_supplicant/wpa_supplicant\driver_i.h **** static inline int wpa_drv_add_pmkid(struct wpa_supplicant *wpa_s,
 217:C:/Users/stapi/OneDrive/Desktop/GD32VW553/V1_MQTT_OK/GD32VW55X_Wifi_BLE_SDK/GD32VW55x_RELEASE_V1.0.2/MSDK/wpa_supplicant/wpa_supplicant\driver_i.h **** 				    struct wpa_pmkid_params *params)
 218:C:/Users/stapi/OneDrive/Desktop/GD32VW553/V1_MQTT_OK/GD32VW55X_Wifi_BLE_SDK/GD32VW55x_RELEASE_V1.0.2/MSDK/wpa_supplicant/wpa_supplicant\driver_i.h **** {
 219:C:/Users/stapi/OneDrive/Desktop/GD32VW553/V1_MQTT_OK/GD32VW55X_Wifi_BLE_SDK/GD32VW55x_RELEASE_V1.0.2/MSDK/wpa_supplicant/wpa_supplicant\driver_i.h **** 	if (wpa_s->driver->add_pmkid) {
 220:C:/Users/stapi/OneDrive/Desktop/GD32VW553/V1_MQTT_OK/GD32VW55X_Wifi_BLE_SDK/GD32VW55x_RELEASE_V1.0.2/MSDK/wpa_supplicant/wpa_supplicant\driver_i.h **** 		return wpa_s->driver->add_pmkid(wpa_s->drv_priv, params);
 221:C:/Users/stapi/OneDrive/Desktop/GD32VW553/V1_MQTT_OK/GD32VW55X_Wifi_BLE_SDK/GD32VW55x_RELEASE_V1.0.2/MSDK/wpa_supplicant/wpa_supplicant\driver_i.h **** 	}
 222:C:/Users/stapi/OneDrive/Desktop/GD32VW553/V1_MQTT_OK/GD32VW55X_Wifi_BLE_SDK/GD32VW55x_RELEASE_V1.0.2/MSDK/wpa_supplicant/wpa_supplicant\driver_i.h **** 	return -1;
 223:C:/Users/stapi/OneDrive/Desktop/GD32VW553/V1_MQTT_OK/GD32VW55X_Wifi_BLE_SDK/GD32VW55x_RELEASE_V1.0.2/MSDK/wpa_supplicant/wpa_supplicant\driver_i.h **** }
 224:C:/Users/stapi/OneDrive/Desktop/GD32VW553/V1_MQTT_OK/GD32VW55X_Wifi_BLE_SDK/GD32VW55x_RELEASE_V1.0.2/MSDK/wpa_supplicant/wpa_supplicant\driver_i.h **** 
 225:C:/Users/stapi/OneDrive/Desktop/GD32VW553/V1_MQTT_OK/GD32VW55X_Wifi_BLE_SDK/GD32VW55x_RELEASE_V1.0.2/MSDK/wpa_supplicant/wpa_supplicant\driver_i.h **** static inline int wpa_drv_remove_pmkid(struct wpa_supplicant *wpa_s,
 226:C:/Users/stapi/OneDrive/Desktop/GD32VW553/V1_MQTT_OK/GD32VW55X_Wifi_BLE_SDK/GD32VW55x_RELEASE_V1.0.2/MSDK/wpa_supplicant/wpa_supplicant\driver_i.h **** 				       struct wpa_pmkid_params *params)
 227:C:/Users/stapi/OneDrive/Desktop/GD32VW553/V1_MQTT_OK/GD32VW55X_Wifi_BLE_SDK/GD32VW55x_RELEASE_V1.0.2/MSDK/wpa_supplicant/wpa_supplicant\driver_i.h **** {
 228:C:/Users/stapi/OneDrive/Desktop/GD32VW553/V1_MQTT_OK/GD32VW55X_Wifi_BLE_SDK/GD32VW55x_RELEASE_V1.0.2/MSDK/wpa_supplicant/wpa_supplicant\driver_i.h **** 	if (wpa_s->driver->remove_pmkid) {
 229:C:/Users/stapi/OneDrive/Desktop/GD32VW553/V1_MQTT_OK/GD32VW55X_Wifi_BLE_SDK/GD32VW55x_RELEASE_V1.0.2/MSDK/wpa_supplicant/wpa_supplicant\driver_i.h **** 		return wpa_s->driver->remove_pmkid(wpa_s->drv_priv, params);
 230:C:/Users/stapi/OneDrive/Desktop/GD32VW553/V1_MQTT_OK/GD32VW55X_Wifi_BLE_SDK/GD32VW55x_RELEASE_V1.0.2/MSDK/wpa_supplicant/wpa_supplicant\driver_i.h **** 	}
 231:C:/Users/stapi/OneDrive/Desktop/GD32VW553/V1_MQTT_OK/GD32VW55X_Wifi_BLE_SDK/GD32VW55x_RELEASE_V1.0.2/MSDK/wpa_supplicant/wpa_supplicant\driver_i.h **** 	return -1;
 232:C:/Users/stapi/OneDrive/Desktop/GD32VW553/V1_MQTT_OK/GD32VW55X_Wifi_BLE_SDK/GD32VW55x_RELEASE_V1.0.2/MSDK/wpa_supplicant/wpa_supplicant\driver_i.h **** }
 233:C:/Users/stapi/OneDrive/Desktop/GD32VW553/V1_MQTT_OK/GD32VW55X_Wifi_BLE_SDK/GD32VW55x_RELEASE_V1.0.2/MSDK/wpa_supplicant/wpa_supplicant\driver_i.h **** 
 234:C:/Users/stapi/OneDrive/Desktop/GD32VW553/V1_MQTT_OK/GD32VW55X_Wifi_BLE_SDK/GD32VW55x_RELEASE_V1.0.2/MSDK/wpa_supplicant/wpa_supplicant\driver_i.h **** static inline int wpa_drv_flush_pmkid(struct wpa_supplicant *wpa_s)
 235:C:/Users/stapi/OneDrive/Desktop/GD32VW553/V1_MQTT_OK/GD32VW55X_Wifi_BLE_SDK/GD32VW55x_RELEASE_V1.0.2/MSDK/wpa_supplicant/wpa_supplicant\driver_i.h **** {
 236:C:/Users/stapi/OneDrive/Desktop/GD32VW553/V1_MQTT_OK/GD32VW55X_Wifi_BLE_SDK/GD32VW55x_RELEASE_V1.0.2/MSDK/wpa_supplicant/wpa_supplicant\driver_i.h **** 	if (wpa_s->driver->flush_pmkid) {
 237:C:/Users/stapi/OneDrive/Desktop/GD32VW553/V1_MQTT_OK/GD32VW55X_Wifi_BLE_SDK/GD32VW55x_RELEASE_V1.0.2/MSDK/wpa_supplicant/wpa_supplicant\driver_i.h **** 		return wpa_s->driver->flush_pmkid(wpa_s->drv_priv);
 238:C:/Users/stapi/OneDrive/Desktop/GD32VW553/V1_MQTT_OK/GD32VW55X_Wifi_BLE_SDK/GD32VW55x_RELEASE_V1.0.2/MSDK/wpa_supplicant/wpa_supplicant\driver_i.h **** 	}
 239:C:/Users/stapi/OneDrive/Desktop/GD32VW553/V1_MQTT_OK/GD32VW55X_Wifi_BLE_SDK/GD32VW55x_RELEASE_V1.0.2/MSDK/wpa_supplicant/wpa_supplicant\driver_i.h **** 	return -1;
 240:C:/Users/stapi/OneDrive/Desktop/GD32VW553/V1_MQTT_OK/GD32VW55X_Wifi_BLE_SDK/GD32VW55x_RELEASE_V1.0.2/MSDK/wpa_supplicant/wpa_supplicant\driver_i.h **** }
 241:C:/Users/stapi/OneDrive/Desktop/GD32VW553/V1_MQTT_OK/GD32VW55X_Wifi_BLE_SDK/GD32VW55x_RELEASE_V1.0.2/MSDK/wpa_supplicant/wpa_supplicant\driver_i.h **** 
 242:C:/Users/stapi/OneDrive/Desktop/GD32VW553/V1_MQTT_OK/GD32VW55X_Wifi_BLE_SDK/GD32VW55x_RELEASE_V1.0.2/MSDK/wpa_supplicant/wpa_supplicant\driver_i.h **** static inline int wpa_drv_get_capa(struct wpa_supplicant *wpa_s,
 243:C:/Users/stapi/OneDrive/Desktop/GD32VW553/V1_MQTT_OK/GD32VW55X_Wifi_BLE_SDK/GD32VW55x_RELEASE_V1.0.2/MSDK/wpa_supplicant/wpa_supplicant\driver_i.h **** 				   struct wpa_driver_capa *capa)
 244:C:/Users/stapi/OneDrive/Desktop/GD32VW553/V1_MQTT_OK/GD32VW55X_Wifi_BLE_SDK/GD32VW55x_RELEASE_V1.0.2/MSDK/wpa_supplicant/wpa_supplicant\driver_i.h **** {
 245:C:/Users/stapi/OneDrive/Desktop/GD32VW553/V1_MQTT_OK/GD32VW55X_Wifi_BLE_SDK/GD32VW55x_RELEASE_V1.0.2/MSDK/wpa_supplicant/wpa_supplicant\driver_i.h **** 	if (wpa_s->driver->get_capa) {
 246:C:/Users/stapi/OneDrive/Desktop/GD32VW553/V1_MQTT_OK/GD32VW55X_Wifi_BLE_SDK/GD32VW55x_RELEASE_V1.0.2/MSDK/wpa_supplicant/wpa_supplicant\driver_i.h **** 		return wpa_s->driver->get_capa(wpa_s->drv_priv, capa);
 247:C:/Users/stapi/OneDrive/Desktop/GD32VW553/V1_MQTT_OK/GD32VW55X_Wifi_BLE_SDK/GD32VW55x_RELEASE_V1.0.2/MSDK/wpa_supplicant/wpa_supplicant\driver_i.h **** 	}
 248:C:/Users/stapi/OneDrive/Desktop/GD32VW553/V1_MQTT_OK/GD32VW55X_Wifi_BLE_SDK/GD32VW55x_RELEASE_V1.0.2/MSDK/wpa_supplicant/wpa_supplicant\driver_i.h **** 	return -1;
 249:C:/Users/stapi/OneDrive/Desktop/GD32VW553/V1_MQTT_OK/GD32VW55X_Wifi_BLE_SDK/GD32VW55x_RELEASE_V1.0.2/MSDK/wpa_supplicant/wpa_supplicant\driver_i.h **** }
 250:C:/Users/stapi/OneDrive/Desktop/GD32VW553/V1_MQTT_OK/GD32VW55X_Wifi_BLE_SDK/GD32VW55x_RELEASE_V1.0.2/MSDK/wpa_supplicant/wpa_supplicant\driver_i.h **** 
 251:C:/Users/stapi/OneDrive/Desktop/GD32VW553/V1_MQTT_OK/GD32VW55X_Wifi_BLE_SDK/GD32VW55x_RELEASE_V1.0.2/MSDK/wpa_supplicant/wpa_supplicant\driver_i.h **** static inline void wpa_drv_poll(struct wpa_supplicant *wpa_s)
 252:C:/Users/stapi/OneDrive/Desktop/GD32VW553/V1_MQTT_OK/GD32VW55X_Wifi_BLE_SDK/GD32VW55x_RELEASE_V1.0.2/MSDK/wpa_supplicant/wpa_supplicant\driver_i.h **** {
 253:C:/Users/stapi/OneDrive/Desktop/GD32VW553/V1_MQTT_OK/GD32VW55X_Wifi_BLE_SDK/GD32VW55x_RELEASE_V1.0.2/MSDK/wpa_supplicant/wpa_supplicant\driver_i.h **** 	if (wpa_s->driver->poll) {
 254:C:/Users/stapi/OneDrive/Desktop/GD32VW553/V1_MQTT_OK/GD32VW55X_Wifi_BLE_SDK/GD32VW55x_RELEASE_V1.0.2/MSDK/wpa_supplicant/wpa_supplicant\driver_i.h **** 		wpa_s->driver->poll(wpa_s->drv_priv);
 255:C:/Users/stapi/OneDrive/Desktop/GD32VW553/V1_MQTT_OK/GD32VW55X_Wifi_BLE_SDK/GD32VW55x_RELEASE_V1.0.2/MSDK/wpa_supplicant/wpa_supplicant\driver_i.h **** 	}
 256:C:/Users/stapi/OneDrive/Desktop/GD32VW553/V1_MQTT_OK/GD32VW55X_Wifi_BLE_SDK/GD32VW55x_RELEASE_V1.0.2/MSDK/wpa_supplicant/wpa_supplicant\driver_i.h **** }
 257:C:/Users/stapi/OneDrive/Desktop/GD32VW553/V1_MQTT_OK/GD32VW55X_Wifi_BLE_SDK/GD32VW55x_RELEASE_V1.0.2/MSDK/wpa_supplicant/wpa_supplicant\driver_i.h **** 
 258:C:/Users/stapi/OneDrive/Desktop/GD32VW553/V1_MQTT_OK/GD32VW55X_Wifi_BLE_SDK/GD32VW55x_RELEASE_V1.0.2/MSDK/wpa_supplicant/wpa_supplicant\driver_i.h **** static inline const char * wpa_drv_get_ifname(struct wpa_supplicant *wpa_s)
 259:C:/Users/stapi/OneDrive/Desktop/GD32VW553/V1_MQTT_OK/GD32VW55X_Wifi_BLE_SDK/GD32VW55x_RELEASE_V1.0.2/MSDK/wpa_supplicant/wpa_supplicant\driver_i.h **** {
 260:C:/Users/stapi/OneDrive/Desktop/GD32VW553/V1_MQTT_OK/GD32VW55X_Wifi_BLE_SDK/GD32VW55x_RELEASE_V1.0.2/MSDK/wpa_supplicant/wpa_supplicant\driver_i.h **** 	if (wpa_s->driver->get_ifname) {
 261:C:/Users/stapi/OneDrive/Desktop/GD32VW553/V1_MQTT_OK/GD32VW55X_Wifi_BLE_SDK/GD32VW55x_RELEASE_V1.0.2/MSDK/wpa_supplicant/wpa_supplicant\driver_i.h **** 		return wpa_s->driver->get_ifname(wpa_s->drv_priv);
 262:C:/Users/stapi/OneDrive/Desktop/GD32VW553/V1_MQTT_OK/GD32VW55X_Wifi_BLE_SDK/GD32VW55x_RELEASE_V1.0.2/MSDK/wpa_supplicant/wpa_supplicant\driver_i.h **** 	}
 263:C:/Users/stapi/OneDrive/Desktop/GD32VW553/V1_MQTT_OK/GD32VW55X_Wifi_BLE_SDK/GD32VW55x_RELEASE_V1.0.2/MSDK/wpa_supplicant/wpa_supplicant\driver_i.h **** 	return NULL;
 264:C:/Users/stapi/OneDrive/Desktop/GD32VW553/V1_MQTT_OK/GD32VW55X_Wifi_BLE_SDK/GD32VW55x_RELEASE_V1.0.2/MSDK/wpa_supplicant/wpa_supplicant\driver_i.h **** }
 265:C:/Users/stapi/OneDrive/Desktop/GD32VW553/V1_MQTT_OK/GD32VW55X_Wifi_BLE_SDK/GD32VW55x_RELEASE_V1.0.2/MSDK/wpa_supplicant/wpa_supplicant\driver_i.h **** 
 266:C:/Users/stapi/OneDrive/Desktop/GD32VW553/V1_MQTT_OK/GD32VW55X_Wifi_BLE_SDK/GD32VW55x_RELEASE_V1.0.2/MSDK/wpa_supplicant/wpa_supplicant\driver_i.h **** static inline const char *
 267:C:/Users/stapi/OneDrive/Desktop/GD32VW553/V1_MQTT_OK/GD32VW55X_Wifi_BLE_SDK/GD32VW55x_RELEASE_V1.0.2/MSDK/wpa_supplicant/wpa_supplicant\driver_i.h **** wpa_driver_get_radio_name(struct wpa_supplicant *wpa_s)
 268:C:/Users/stapi/OneDrive/Desktop/GD32VW553/V1_MQTT_OK/GD32VW55X_Wifi_BLE_SDK/GD32VW55x_RELEASE_V1.0.2/MSDK/wpa_supplicant/wpa_supplicant\driver_i.h **** {
 269:C:/Users/stapi/OneDrive/Desktop/GD32VW553/V1_MQTT_OK/GD32VW55X_Wifi_BLE_SDK/GD32VW55x_RELEASE_V1.0.2/MSDK/wpa_supplicant/wpa_supplicant\driver_i.h **** 	if (wpa_s->driver->get_radio_name)
 270:C:/Users/stapi/OneDrive/Desktop/GD32VW553/V1_MQTT_OK/GD32VW55X_Wifi_BLE_SDK/GD32VW55x_RELEASE_V1.0.2/MSDK/wpa_supplicant/wpa_supplicant\driver_i.h **** 		return wpa_s->driver->get_radio_name(wpa_s->drv_priv);
 271:C:/Users/stapi/OneDrive/Desktop/GD32VW553/V1_MQTT_OK/GD32VW55X_Wifi_BLE_SDK/GD32VW55x_RELEASE_V1.0.2/MSDK/wpa_supplicant/wpa_supplicant\driver_i.h **** 	return NULL;
 272:C:/Users/stapi/OneDrive/Desktop/GD32VW553/V1_MQTT_OK/GD32VW55X_Wifi_BLE_SDK/GD32VW55x_RELEASE_V1.0.2/MSDK/wpa_supplicant/wpa_supplicant\driver_i.h **** }
 273:C:/Users/stapi/OneDrive/Desktop/GD32VW553/V1_MQTT_OK/GD32VW55X_Wifi_BLE_SDK/GD32VW55x_RELEASE_V1.0.2/MSDK/wpa_supplicant/wpa_supplicant\driver_i.h **** 
 274:C:/Users/stapi/OneDrive/Desktop/GD32VW553/V1_MQTT_OK/GD32VW55X_Wifi_BLE_SDK/GD32VW55x_RELEASE_V1.0.2/MSDK/wpa_supplicant/wpa_supplicant\driver_i.h **** static inline const u8 * wpa_drv_get_mac_addr(struct wpa_supplicant *wpa_s)
 275:C:/Users/stapi/OneDrive/Desktop/GD32VW553/V1_MQTT_OK/GD32VW55X_Wifi_BLE_SDK/GD32VW55x_RELEASE_V1.0.2/MSDK/wpa_supplicant/wpa_supplicant\driver_i.h **** {
 276:C:/Users/stapi/OneDrive/Desktop/GD32VW553/V1_MQTT_OK/GD32VW55X_Wifi_BLE_SDK/GD32VW55x_RELEASE_V1.0.2/MSDK/wpa_supplicant/wpa_supplicant\driver_i.h **** 	if (wpa_s->driver->get_mac_addr) {
 277:C:/Users/stapi/OneDrive/Desktop/GD32VW553/V1_MQTT_OK/GD32VW55X_Wifi_BLE_SDK/GD32VW55x_RELEASE_V1.0.2/MSDK/wpa_supplicant/wpa_supplicant\driver_i.h **** 		return wpa_s->driver->get_mac_addr(wpa_s->drv_priv);
 278:C:/Users/stapi/OneDrive/Desktop/GD32VW553/V1_MQTT_OK/GD32VW55X_Wifi_BLE_SDK/GD32VW55x_RELEASE_V1.0.2/MSDK/wpa_supplicant/wpa_supplicant\driver_i.h **** 	}
 279:C:/Users/stapi/OneDrive/Desktop/GD32VW553/V1_MQTT_OK/GD32VW55X_Wifi_BLE_SDK/GD32VW55x_RELEASE_V1.0.2/MSDK/wpa_supplicant/wpa_supplicant\driver_i.h **** 	return NULL;
 280:C:/Users/stapi/OneDrive/Desktop/GD32VW553/V1_MQTT_OK/GD32VW55X_Wifi_BLE_SDK/GD32VW55x_RELEASE_V1.0.2/MSDK/wpa_supplicant/wpa_supplicant\driver_i.h **** }
 281:C:/Users/stapi/OneDrive/Desktop/GD32VW553/V1_MQTT_OK/GD32VW55X_Wifi_BLE_SDK/GD32VW55x_RELEASE_V1.0.2/MSDK/wpa_supplicant/wpa_supplicant\driver_i.h **** 
 282:C:/Users/stapi/OneDrive/Desktop/GD32VW553/V1_MQTT_OK/GD32VW55X_Wifi_BLE_SDK/GD32VW55x_RELEASE_V1.0.2/MSDK/wpa_supplicant/wpa_supplicant\driver_i.h **** static inline int wpa_drv_set_operstate(struct wpa_supplicant *wpa_s,
 283:C:/Users/stapi/OneDrive/Desktop/GD32VW553/V1_MQTT_OK/GD32VW55X_Wifi_BLE_SDK/GD32VW55x_RELEASE_V1.0.2/MSDK/wpa_supplicant/wpa_supplicant\driver_i.h **** 					int state)
 284:C:/Users/stapi/OneDrive/Desktop/GD32VW553/V1_MQTT_OK/GD32VW55X_Wifi_BLE_SDK/GD32VW55x_RELEASE_V1.0.2/MSDK/wpa_supplicant/wpa_supplicant\driver_i.h **** {
 285:C:/Users/stapi/OneDrive/Desktop/GD32VW553/V1_MQTT_OK/GD32VW55X_Wifi_BLE_SDK/GD32VW55x_RELEASE_V1.0.2/MSDK/wpa_supplicant/wpa_supplicant\driver_i.h **** 	if (wpa_s->driver->set_operstate)
 286:C:/Users/stapi/OneDrive/Desktop/GD32VW553/V1_MQTT_OK/GD32VW55X_Wifi_BLE_SDK/GD32VW55x_RELEASE_V1.0.2/MSDK/wpa_supplicant/wpa_supplicant\driver_i.h **** 		return wpa_s->driver->set_operstate(wpa_s->drv_priv, state);
 287:C:/Users/stapi/OneDrive/Desktop/GD32VW553/V1_MQTT_OK/GD32VW55X_Wifi_BLE_SDK/GD32VW55x_RELEASE_V1.0.2/MSDK/wpa_supplicant/wpa_supplicant\driver_i.h **** 	return 0;
 288:C:/Users/stapi/OneDrive/Desktop/GD32VW553/V1_MQTT_OK/GD32VW55X_Wifi_BLE_SDK/GD32VW55x_RELEASE_V1.0.2/MSDK/wpa_supplicant/wpa_supplicant\driver_i.h **** }
 289:C:/Users/stapi/OneDrive/Desktop/GD32VW553/V1_MQTT_OK/GD32VW55X_Wifi_BLE_SDK/GD32VW55x_RELEASE_V1.0.2/MSDK/wpa_supplicant/wpa_supplicant\driver_i.h **** 
 290:C:/Users/stapi/OneDrive/Desktop/GD32VW553/V1_MQTT_OK/GD32VW55X_Wifi_BLE_SDK/GD32VW55x_RELEASE_V1.0.2/MSDK/wpa_supplicant/wpa_supplicant\driver_i.h **** static inline int wpa_drv_mlme_setprotection(struct wpa_supplicant *wpa_s,
 291:C:/Users/stapi/OneDrive/Desktop/GD32VW553/V1_MQTT_OK/GD32VW55X_Wifi_BLE_SDK/GD32VW55x_RELEASE_V1.0.2/MSDK/wpa_supplicant/wpa_supplicant\driver_i.h **** 					     const u8 *addr, int protect_type,
 292:C:/Users/stapi/OneDrive/Desktop/GD32VW553/V1_MQTT_OK/GD32VW55X_Wifi_BLE_SDK/GD32VW55x_RELEASE_V1.0.2/MSDK/wpa_supplicant/wpa_supplicant\driver_i.h **** 					     int key_type)
 293:C:/Users/stapi/OneDrive/Desktop/GD32VW553/V1_MQTT_OK/GD32VW55X_Wifi_BLE_SDK/GD32VW55x_RELEASE_V1.0.2/MSDK/wpa_supplicant/wpa_supplicant\driver_i.h **** {
 294:C:/Users/stapi/OneDrive/Desktop/GD32VW553/V1_MQTT_OK/GD32VW55X_Wifi_BLE_SDK/GD32VW55x_RELEASE_V1.0.2/MSDK/wpa_supplicant/wpa_supplicant\driver_i.h **** 	if (wpa_s->driver->mlme_setprotection)
 295:C:/Users/stapi/OneDrive/Desktop/GD32VW553/V1_MQTT_OK/GD32VW55X_Wifi_BLE_SDK/GD32VW55x_RELEASE_V1.0.2/MSDK/wpa_supplicant/wpa_supplicant\driver_i.h **** 		return wpa_s->driver->mlme_setprotection(wpa_s->drv_priv, addr,
 296:C:/Users/stapi/OneDrive/Desktop/GD32VW553/V1_MQTT_OK/GD32VW55X_Wifi_BLE_SDK/GD32VW55x_RELEASE_V1.0.2/MSDK/wpa_supplicant/wpa_supplicant\driver_i.h **** 							 protect_type,
 297:C:/Users/stapi/OneDrive/Desktop/GD32VW553/V1_MQTT_OK/GD32VW55X_Wifi_BLE_SDK/GD32VW55x_RELEASE_V1.0.2/MSDK/wpa_supplicant/wpa_supplicant\driver_i.h **** 							 key_type);
 298:C:/Users/stapi/OneDrive/Desktop/GD32VW553/V1_MQTT_OK/GD32VW55X_Wifi_BLE_SDK/GD32VW55x_RELEASE_V1.0.2/MSDK/wpa_supplicant/wpa_supplicant\driver_i.h **** 	return 0;
 299:C:/Users/stapi/OneDrive/Desktop/GD32VW553/V1_MQTT_OK/GD32VW55X_Wifi_BLE_SDK/GD32VW55x_RELEASE_V1.0.2/MSDK/wpa_supplicant/wpa_supplicant\driver_i.h **** }
 300:C:/Users/stapi/OneDrive/Desktop/GD32VW553/V1_MQTT_OK/GD32VW55X_Wifi_BLE_SDK/GD32VW55x_RELEASE_V1.0.2/MSDK/wpa_supplicant/wpa_supplicant\driver_i.h **** 
 301:C:/Users/stapi/OneDrive/Desktop/GD32VW553/V1_MQTT_OK/GD32VW55X_Wifi_BLE_SDK/GD32VW55x_RELEASE_V1.0.2/MSDK/wpa_supplicant/wpa_supplicant\driver_i.h **** static inline struct hostapd_hw_modes *
 302:C:/Users/stapi/OneDrive/Desktop/GD32VW553/V1_MQTT_OK/GD32VW55X_Wifi_BLE_SDK/GD32VW55x_RELEASE_V1.0.2/MSDK/wpa_supplicant/wpa_supplicant\driver_i.h **** wpa_drv_get_hw_feature_data(struct wpa_supplicant *wpa_s, u16 *num_modes,
 303:C:/Users/stapi/OneDrive/Desktop/GD32VW553/V1_MQTT_OK/GD32VW55X_Wifi_BLE_SDK/GD32VW55x_RELEASE_V1.0.2/MSDK/wpa_supplicant/wpa_supplicant\driver_i.h **** 			    u16 *flags, u8 *dfs_domain)
 304:C:/Users/stapi/OneDrive/Desktop/GD32VW553/V1_MQTT_OK/GD32VW55X_Wifi_BLE_SDK/GD32VW55x_RELEASE_V1.0.2/MSDK/wpa_supplicant/wpa_supplicant\driver_i.h **** {
 305:C:/Users/stapi/OneDrive/Desktop/GD32VW553/V1_MQTT_OK/GD32VW55X_Wifi_BLE_SDK/GD32VW55x_RELEASE_V1.0.2/MSDK/wpa_supplicant/wpa_supplicant\driver_i.h **** 	if (wpa_s->driver->get_hw_feature_data)
 306:C:/Users/stapi/OneDrive/Desktop/GD32VW553/V1_MQTT_OK/GD32VW55X_Wifi_BLE_SDK/GD32VW55x_RELEASE_V1.0.2/MSDK/wpa_supplicant/wpa_supplicant\driver_i.h **** 		return wpa_s->driver->get_hw_feature_data(wpa_s->drv_priv,
 307:C:/Users/stapi/OneDrive/Desktop/GD32VW553/V1_MQTT_OK/GD32VW55X_Wifi_BLE_SDK/GD32VW55x_RELEASE_V1.0.2/MSDK/wpa_supplicant/wpa_supplicant\driver_i.h **** 							  num_modes, flags,
 308:C:/Users/stapi/OneDrive/Desktop/GD32VW553/V1_MQTT_OK/GD32VW55X_Wifi_BLE_SDK/GD32VW55x_RELEASE_V1.0.2/MSDK/wpa_supplicant/wpa_supplicant\driver_i.h **** 							  dfs_domain);
 309:C:/Users/stapi/OneDrive/Desktop/GD32VW553/V1_MQTT_OK/GD32VW55X_Wifi_BLE_SDK/GD32VW55x_RELEASE_V1.0.2/MSDK/wpa_supplicant/wpa_supplicant\driver_i.h **** 	return NULL;
 310:C:/Users/stapi/OneDrive/Desktop/GD32VW553/V1_MQTT_OK/GD32VW55X_Wifi_BLE_SDK/GD32VW55x_RELEASE_V1.0.2/MSDK/wpa_supplicant/wpa_supplicant\driver_i.h **** }
 311:C:/Users/stapi/OneDrive/Desktop/GD32VW553/V1_MQTT_OK/GD32VW55X_Wifi_BLE_SDK/GD32VW55x_RELEASE_V1.0.2/MSDK/wpa_supplicant/wpa_supplicant\driver_i.h **** 
 312:C:/Users/stapi/OneDrive/Desktop/GD32VW553/V1_MQTT_OK/GD32VW55X_Wifi_BLE_SDK/GD32VW55x_RELEASE_V1.0.2/MSDK/wpa_supplicant/wpa_supplicant\driver_i.h **** static inline int wpa_drv_set_country(struct wpa_supplicant *wpa_s,
 313:C:/Users/stapi/OneDrive/Desktop/GD32VW553/V1_MQTT_OK/GD32VW55X_Wifi_BLE_SDK/GD32VW55x_RELEASE_V1.0.2/MSDK/wpa_supplicant/wpa_supplicant\driver_i.h **** 				      const char *alpha2)
 314:C:/Users/stapi/OneDrive/Desktop/GD32VW553/V1_MQTT_OK/GD32VW55X_Wifi_BLE_SDK/GD32VW55x_RELEASE_V1.0.2/MSDK/wpa_supplicant/wpa_supplicant\driver_i.h **** {
 315:C:/Users/stapi/OneDrive/Desktop/GD32VW553/V1_MQTT_OK/GD32VW55X_Wifi_BLE_SDK/GD32VW55x_RELEASE_V1.0.2/MSDK/wpa_supplicant/wpa_supplicant\driver_i.h **** 	if (wpa_s->driver->set_country)
 316:C:/Users/stapi/OneDrive/Desktop/GD32VW553/V1_MQTT_OK/GD32VW55X_Wifi_BLE_SDK/GD32VW55x_RELEASE_V1.0.2/MSDK/wpa_supplicant/wpa_supplicant\driver_i.h **** 		return wpa_s->driver->set_country(wpa_s->drv_priv, alpha2);
 317:C:/Users/stapi/OneDrive/Desktop/GD32VW553/V1_MQTT_OK/GD32VW55X_Wifi_BLE_SDK/GD32VW55x_RELEASE_V1.0.2/MSDK/wpa_supplicant/wpa_supplicant\driver_i.h **** 	return 0;
 318:C:/Users/stapi/OneDrive/Desktop/GD32VW553/V1_MQTT_OK/GD32VW55X_Wifi_BLE_SDK/GD32VW55x_RELEASE_V1.0.2/MSDK/wpa_supplicant/wpa_supplicant\driver_i.h **** }
 319:C:/Users/stapi/OneDrive/Desktop/GD32VW553/V1_MQTT_OK/GD32VW55X_Wifi_BLE_SDK/GD32VW55x_RELEASE_V1.0.2/MSDK/wpa_supplicant/wpa_supplicant\driver_i.h **** 
 320:C:/Users/stapi/OneDrive/Desktop/GD32VW553/V1_MQTT_OK/GD32VW55X_Wifi_BLE_SDK/GD32VW55x_RELEASE_V1.0.2/MSDK/wpa_supplicant/wpa_supplicant\driver_i.h **** static inline int wpa_drv_send_mlme(struct wpa_supplicant *wpa_s,
 321:C:/Users/stapi/OneDrive/Desktop/GD32VW553/V1_MQTT_OK/GD32VW55X_Wifi_BLE_SDK/GD32VW55x_RELEASE_V1.0.2/MSDK/wpa_supplicant/wpa_supplicant\driver_i.h **** 				    const u8 *data, size_t data_len, int noack,
 322:C:/Users/stapi/OneDrive/Desktop/GD32VW553/V1_MQTT_OK/GD32VW55X_Wifi_BLE_SDK/GD32VW55x_RELEASE_V1.0.2/MSDK/wpa_supplicant/wpa_supplicant\driver_i.h **** 				    unsigned int freq, unsigned int wait)
 323:C:/Users/stapi/OneDrive/Desktop/GD32VW553/V1_MQTT_OK/GD32VW55X_Wifi_BLE_SDK/GD32VW55x_RELEASE_V1.0.2/MSDK/wpa_supplicant/wpa_supplicant\driver_i.h **** {
 324:C:/Users/stapi/OneDrive/Desktop/GD32VW553/V1_MQTT_OK/GD32VW55X_Wifi_BLE_SDK/GD32VW55x_RELEASE_V1.0.2/MSDK/wpa_supplicant/wpa_supplicant\driver_i.h **** 	if (wpa_s->driver->send_mlme)
 325:C:/Users/stapi/OneDrive/Desktop/GD32VW553/V1_MQTT_OK/GD32VW55X_Wifi_BLE_SDK/GD32VW55x_RELEASE_V1.0.2/MSDK/wpa_supplicant/wpa_supplicant\driver_i.h **** 		return wpa_s->driver->send_mlme(wpa_s->drv_priv,
 326:C:/Users/stapi/OneDrive/Desktop/GD32VW553/V1_MQTT_OK/GD32VW55X_Wifi_BLE_SDK/GD32VW55x_RELEASE_V1.0.2/MSDK/wpa_supplicant/wpa_supplicant\driver_i.h **** 						data, data_len, noack,
 327:C:/Users/stapi/OneDrive/Desktop/GD32VW553/V1_MQTT_OK/GD32VW55X_Wifi_BLE_SDK/GD32VW55x_RELEASE_V1.0.2/MSDK/wpa_supplicant/wpa_supplicant\driver_i.h **** 						freq, NULL, 0, 0, wait);
 328:C:/Users/stapi/OneDrive/Desktop/GD32VW553/V1_MQTT_OK/GD32VW55X_Wifi_BLE_SDK/GD32VW55x_RELEASE_V1.0.2/MSDK/wpa_supplicant/wpa_supplicant\driver_i.h **** 	return -1;
 329:C:/Users/stapi/OneDrive/Desktop/GD32VW553/V1_MQTT_OK/GD32VW55X_Wifi_BLE_SDK/GD32VW55x_RELEASE_V1.0.2/MSDK/wpa_supplicant/wpa_supplicant\driver_i.h **** }
 330:C:/Users/stapi/OneDrive/Desktop/GD32VW553/V1_MQTT_OK/GD32VW55X_Wifi_BLE_SDK/GD32VW55x_RELEASE_V1.0.2/MSDK/wpa_supplicant/wpa_supplicant\driver_i.h **** 
 331:C:/Users/stapi/OneDrive/Desktop/GD32VW553/V1_MQTT_OK/GD32VW55X_Wifi_BLE_SDK/GD32VW55x_RELEASE_V1.0.2/MSDK/wpa_supplicant/wpa_supplicant\driver_i.h **** static inline int wpa_drv_update_ft_ies(struct wpa_supplicant *wpa_s,
 332:C:/Users/stapi/OneDrive/Desktop/GD32VW553/V1_MQTT_OK/GD32VW55X_Wifi_BLE_SDK/GD32VW55x_RELEASE_V1.0.2/MSDK/wpa_supplicant/wpa_supplicant\driver_i.h **** 					const u8 *md,
 333:C:/Users/stapi/OneDrive/Desktop/GD32VW553/V1_MQTT_OK/GD32VW55X_Wifi_BLE_SDK/GD32VW55x_RELEASE_V1.0.2/MSDK/wpa_supplicant/wpa_supplicant\driver_i.h **** 					const u8 *ies, size_t ies_len)
 334:C:/Users/stapi/OneDrive/Desktop/GD32VW553/V1_MQTT_OK/GD32VW55X_Wifi_BLE_SDK/GD32VW55x_RELEASE_V1.0.2/MSDK/wpa_supplicant/wpa_supplicant\driver_i.h **** {
 335:C:/Users/stapi/OneDrive/Desktop/GD32VW553/V1_MQTT_OK/GD32VW55X_Wifi_BLE_SDK/GD32VW55x_RELEASE_V1.0.2/MSDK/wpa_supplicant/wpa_supplicant\driver_i.h **** 	if (wpa_s->driver->update_ft_ies)
 336:C:/Users/stapi/OneDrive/Desktop/GD32VW553/V1_MQTT_OK/GD32VW55X_Wifi_BLE_SDK/GD32VW55x_RELEASE_V1.0.2/MSDK/wpa_supplicant/wpa_supplicant\driver_i.h **** 		return wpa_s->driver->update_ft_ies(wpa_s->drv_priv, md,
 337:C:/Users/stapi/OneDrive/Desktop/GD32VW553/V1_MQTT_OK/GD32VW55X_Wifi_BLE_SDK/GD32VW55x_RELEASE_V1.0.2/MSDK/wpa_supplicant/wpa_supplicant\driver_i.h **** 						    ies, ies_len);
 338:C:/Users/stapi/OneDrive/Desktop/GD32VW553/V1_MQTT_OK/GD32VW55X_Wifi_BLE_SDK/GD32VW55x_RELEASE_V1.0.2/MSDK/wpa_supplicant/wpa_supplicant\driver_i.h **** 	return -1;
 339:C:/Users/stapi/OneDrive/Desktop/GD32VW553/V1_MQTT_OK/GD32VW55X_Wifi_BLE_SDK/GD32VW55x_RELEASE_V1.0.2/MSDK/wpa_supplicant/wpa_supplicant\driver_i.h **** }
 340:C:/Users/stapi/OneDrive/Desktop/GD32VW553/V1_MQTT_OK/GD32VW55X_Wifi_BLE_SDK/GD32VW55x_RELEASE_V1.0.2/MSDK/wpa_supplicant/wpa_supplicant\driver_i.h **** 
 341:C:/Users/stapi/OneDrive/Desktop/GD32VW553/V1_MQTT_OK/GD32VW55X_Wifi_BLE_SDK/GD32VW55x_RELEASE_V1.0.2/MSDK/wpa_supplicant/wpa_supplicant\driver_i.h **** static inline int wpa_drv_set_ap(struct wpa_supplicant *wpa_s,
 342:C:/Users/stapi/OneDrive/Desktop/GD32VW553/V1_MQTT_OK/GD32VW55X_Wifi_BLE_SDK/GD32VW55x_RELEASE_V1.0.2/MSDK/wpa_supplicant/wpa_supplicant\driver_i.h **** 				 struct wpa_driver_ap_params *params)
 343:C:/Users/stapi/OneDrive/Desktop/GD32VW553/V1_MQTT_OK/GD32VW55X_Wifi_BLE_SDK/GD32VW55x_RELEASE_V1.0.2/MSDK/wpa_supplicant/wpa_supplicant\driver_i.h **** {
 344:C:/Users/stapi/OneDrive/Desktop/GD32VW553/V1_MQTT_OK/GD32VW55X_Wifi_BLE_SDK/GD32VW55x_RELEASE_V1.0.2/MSDK/wpa_supplicant/wpa_supplicant\driver_i.h **** 	if (wpa_s->driver->set_ap)
 345:C:/Users/stapi/OneDrive/Desktop/GD32VW553/V1_MQTT_OK/GD32VW55X_Wifi_BLE_SDK/GD32VW55x_RELEASE_V1.0.2/MSDK/wpa_supplicant/wpa_supplicant\driver_i.h **** 		return wpa_s->driver->set_ap(wpa_s->drv_priv, params);
 346:C:/Users/stapi/OneDrive/Desktop/GD32VW553/V1_MQTT_OK/GD32VW55X_Wifi_BLE_SDK/GD32VW55x_RELEASE_V1.0.2/MSDK/wpa_supplicant/wpa_supplicant\driver_i.h **** 	return -1;
 347:C:/Users/stapi/OneDrive/Desktop/GD32VW553/V1_MQTT_OK/GD32VW55X_Wifi_BLE_SDK/GD32VW55x_RELEASE_V1.0.2/MSDK/wpa_supplicant/wpa_supplicant\driver_i.h **** }
 348:C:/Users/stapi/OneDrive/Desktop/GD32VW553/V1_MQTT_OK/GD32VW55X_Wifi_BLE_SDK/GD32VW55x_RELEASE_V1.0.2/MSDK/wpa_supplicant/wpa_supplicant\driver_i.h **** 
 349:C:/Users/stapi/OneDrive/Desktop/GD32VW553/V1_MQTT_OK/GD32VW55X_Wifi_BLE_SDK/GD32VW55x_RELEASE_V1.0.2/MSDK/wpa_supplicant/wpa_supplicant\driver_i.h **** static inline int wpa_drv_sta_add(struct wpa_supplicant *wpa_s,
 350:C:/Users/stapi/OneDrive/Desktop/GD32VW553/V1_MQTT_OK/GD32VW55X_Wifi_BLE_SDK/GD32VW55x_RELEASE_V1.0.2/MSDK/wpa_supplicant/wpa_supplicant\driver_i.h **** 				  struct hostapd_sta_add_params *params)
 351:C:/Users/stapi/OneDrive/Desktop/GD32VW553/V1_MQTT_OK/GD32VW55X_Wifi_BLE_SDK/GD32VW55x_RELEASE_V1.0.2/MSDK/wpa_supplicant/wpa_supplicant\driver_i.h **** {
 352:C:/Users/stapi/OneDrive/Desktop/GD32VW553/V1_MQTT_OK/GD32VW55X_Wifi_BLE_SDK/GD32VW55x_RELEASE_V1.0.2/MSDK/wpa_supplicant/wpa_supplicant\driver_i.h **** 	if (wpa_s->driver->sta_add)
 353:C:/Users/stapi/OneDrive/Desktop/GD32VW553/V1_MQTT_OK/GD32VW55X_Wifi_BLE_SDK/GD32VW55x_RELEASE_V1.0.2/MSDK/wpa_supplicant/wpa_supplicant\driver_i.h **** 		return wpa_s->driver->sta_add(wpa_s->drv_priv, params);
 354:C:/Users/stapi/OneDrive/Desktop/GD32VW553/V1_MQTT_OK/GD32VW55X_Wifi_BLE_SDK/GD32VW55x_RELEASE_V1.0.2/MSDK/wpa_supplicant/wpa_supplicant\driver_i.h **** 	return -1;
 355:C:/Users/stapi/OneDrive/Desktop/GD32VW553/V1_MQTT_OK/GD32VW55X_Wifi_BLE_SDK/GD32VW55x_RELEASE_V1.0.2/MSDK/wpa_supplicant/wpa_supplicant\driver_i.h **** }
 356:C:/Users/stapi/OneDrive/Desktop/GD32VW553/V1_MQTT_OK/GD32VW55X_Wifi_BLE_SDK/GD32VW55x_RELEASE_V1.0.2/MSDK/wpa_supplicant/wpa_supplicant\driver_i.h **** 
 357:C:/Users/stapi/OneDrive/Desktop/GD32VW553/V1_MQTT_OK/GD32VW55X_Wifi_BLE_SDK/GD32VW55x_RELEASE_V1.0.2/MSDK/wpa_supplicant/wpa_supplicant\driver_i.h **** static inline int wpa_drv_sta_remove(struct wpa_supplicant *wpa_s,
 358:C:/Users/stapi/OneDrive/Desktop/GD32VW553/V1_MQTT_OK/GD32VW55X_Wifi_BLE_SDK/GD32VW55x_RELEASE_V1.0.2/MSDK/wpa_supplicant/wpa_supplicant\driver_i.h **** 				     const u8 *addr)
 359:C:/Users/stapi/OneDrive/Desktop/GD32VW553/V1_MQTT_OK/GD32VW55X_Wifi_BLE_SDK/GD32VW55x_RELEASE_V1.0.2/MSDK/wpa_supplicant/wpa_supplicant\driver_i.h **** {
 360:C:/Users/stapi/OneDrive/Desktop/GD32VW553/V1_MQTT_OK/GD32VW55X_Wifi_BLE_SDK/GD32VW55x_RELEASE_V1.0.2/MSDK/wpa_supplicant/wpa_supplicant\driver_i.h **** 	if (wpa_s->driver->sta_remove)
 361:C:/Users/stapi/OneDrive/Desktop/GD32VW553/V1_MQTT_OK/GD32VW55X_Wifi_BLE_SDK/GD32VW55x_RELEASE_V1.0.2/MSDK/wpa_supplicant/wpa_supplicant\driver_i.h **** 		return wpa_s->driver->sta_remove(wpa_s->drv_priv, addr);
 362:C:/Users/stapi/OneDrive/Desktop/GD32VW553/V1_MQTT_OK/GD32VW55X_Wifi_BLE_SDK/GD32VW55x_RELEASE_V1.0.2/MSDK/wpa_supplicant/wpa_supplicant\driver_i.h **** 	return -1;
 363:C:/Users/stapi/OneDrive/Desktop/GD32VW553/V1_MQTT_OK/GD32VW55X_Wifi_BLE_SDK/GD32VW55x_RELEASE_V1.0.2/MSDK/wpa_supplicant/wpa_supplicant\driver_i.h **** }
 364:C:/Users/stapi/OneDrive/Desktop/GD32VW553/V1_MQTT_OK/GD32VW55X_Wifi_BLE_SDK/GD32VW55x_RELEASE_V1.0.2/MSDK/wpa_supplicant/wpa_supplicant\driver_i.h **** 
 365:C:/Users/stapi/OneDrive/Desktop/GD32VW553/V1_MQTT_OK/GD32VW55X_Wifi_BLE_SDK/GD32VW55x_RELEASE_V1.0.2/MSDK/wpa_supplicant/wpa_supplicant\driver_i.h **** static inline int wpa_drv_tx_control_port(struct wpa_supplicant *wpa_s,
 366:C:/Users/stapi/OneDrive/Desktop/GD32VW553/V1_MQTT_OK/GD32VW55X_Wifi_BLE_SDK/GD32VW55x_RELEASE_V1.0.2/MSDK/wpa_supplicant/wpa_supplicant\driver_i.h **** 					  const u8 *dest, u16 proto,
 367:C:/Users/stapi/OneDrive/Desktop/GD32VW553/V1_MQTT_OK/GD32VW55X_Wifi_BLE_SDK/GD32VW55x_RELEASE_V1.0.2/MSDK/wpa_supplicant/wpa_supplicant\driver_i.h **** 					  const u8 *buf, size_t len,
 368:C:/Users/stapi/OneDrive/Desktop/GD32VW553/V1_MQTT_OK/GD32VW55X_Wifi_BLE_SDK/GD32VW55x_RELEASE_V1.0.2/MSDK/wpa_supplicant/wpa_supplicant\driver_i.h **** 					  int no_encrypt)
 369:C:/Users/stapi/OneDrive/Desktop/GD32VW553/V1_MQTT_OK/GD32VW55X_Wifi_BLE_SDK/GD32VW55x_RELEASE_V1.0.2/MSDK/wpa_supplicant/wpa_supplicant\driver_i.h **** {
 370:C:/Users/stapi/OneDrive/Desktop/GD32VW553/V1_MQTT_OK/GD32VW55X_Wifi_BLE_SDK/GD32VW55x_RELEASE_V1.0.2/MSDK/wpa_supplicant/wpa_supplicant\driver_i.h **** 	if (!wpa_s->driver->tx_control_port)
 371:C:/Users/stapi/OneDrive/Desktop/GD32VW553/V1_MQTT_OK/GD32VW55X_Wifi_BLE_SDK/GD32VW55x_RELEASE_V1.0.2/MSDK/wpa_supplicant/wpa_supplicant\driver_i.h **** 		return -1;
 372:C:/Users/stapi/OneDrive/Desktop/GD32VW553/V1_MQTT_OK/GD32VW55X_Wifi_BLE_SDK/GD32VW55x_RELEASE_V1.0.2/MSDK/wpa_supplicant/wpa_supplicant\driver_i.h **** 	return wpa_s->driver->tx_control_port(wpa_s->drv_priv, dest, proto,
 373:C:/Users/stapi/OneDrive/Desktop/GD32VW553/V1_MQTT_OK/GD32VW55X_Wifi_BLE_SDK/GD32VW55x_RELEASE_V1.0.2/MSDK/wpa_supplicant/wpa_supplicant\driver_i.h **** 					      buf, len, no_encrypt);
 374:C:/Users/stapi/OneDrive/Desktop/GD32VW553/V1_MQTT_OK/GD32VW55X_Wifi_BLE_SDK/GD32VW55x_RELEASE_V1.0.2/MSDK/wpa_supplicant/wpa_supplicant\driver_i.h **** }
 375:C:/Users/stapi/OneDrive/Desktop/GD32VW553/V1_MQTT_OK/GD32VW55X_Wifi_BLE_SDK/GD32VW55x_RELEASE_V1.0.2/MSDK/wpa_supplicant/wpa_supplicant\driver_i.h **** 
 376:C:/Users/stapi/OneDrive/Desktop/GD32VW553/V1_MQTT_OK/GD32VW55X_Wifi_BLE_SDK/GD32VW55x_RELEASE_V1.0.2/MSDK/wpa_supplicant/wpa_supplicant\driver_i.h **** static inline int wpa_drv_hapd_send_eapol(struct wpa_supplicant *wpa_s,
 377:C:/Users/stapi/OneDrive/Desktop/GD32VW553/V1_MQTT_OK/GD32VW55X_Wifi_BLE_SDK/GD32VW55x_RELEASE_V1.0.2/MSDK/wpa_supplicant/wpa_supplicant\driver_i.h **** 					  const u8 *addr, const u8 *data,
 378:C:/Users/stapi/OneDrive/Desktop/GD32VW553/V1_MQTT_OK/GD32VW55X_Wifi_BLE_SDK/GD32VW55x_RELEASE_V1.0.2/MSDK/wpa_supplicant/wpa_supplicant\driver_i.h **** 					  size_t data_len, int encrypt,
 379:C:/Users/stapi/OneDrive/Desktop/GD32VW553/V1_MQTT_OK/GD32VW55X_Wifi_BLE_SDK/GD32VW55x_RELEASE_V1.0.2/MSDK/wpa_supplicant/wpa_supplicant\driver_i.h **** 					  const u8 *own_addr, u32 flags)
 380:C:/Users/stapi/OneDrive/Desktop/GD32VW553/V1_MQTT_OK/GD32VW55X_Wifi_BLE_SDK/GD32VW55x_RELEASE_V1.0.2/MSDK/wpa_supplicant/wpa_supplicant\driver_i.h **** {
 381:C:/Users/stapi/OneDrive/Desktop/GD32VW553/V1_MQTT_OK/GD32VW55X_Wifi_BLE_SDK/GD32VW55x_RELEASE_V1.0.2/MSDK/wpa_supplicant/wpa_supplicant\driver_i.h **** 	if (wpa_s->driver->hapd_send_eapol)
 382:C:/Users/stapi/OneDrive/Desktop/GD32VW553/V1_MQTT_OK/GD32VW55X_Wifi_BLE_SDK/GD32VW55x_RELEASE_V1.0.2/MSDK/wpa_supplicant/wpa_supplicant\driver_i.h **** 		return wpa_s->driver->hapd_send_eapol(wpa_s->drv_priv, addr,
 383:C:/Users/stapi/OneDrive/Desktop/GD32VW553/V1_MQTT_OK/GD32VW55X_Wifi_BLE_SDK/GD32VW55x_RELEASE_V1.0.2/MSDK/wpa_supplicant/wpa_supplicant\driver_i.h **** 						      data, data_len, encrypt,
 384:C:/Users/stapi/OneDrive/Desktop/GD32VW553/V1_MQTT_OK/GD32VW55X_Wifi_BLE_SDK/GD32VW55x_RELEASE_V1.0.2/MSDK/wpa_supplicant/wpa_supplicant\driver_i.h **** 						      own_addr, flags);
 385:C:/Users/stapi/OneDrive/Desktop/GD32VW553/V1_MQTT_OK/GD32VW55X_Wifi_BLE_SDK/GD32VW55x_RELEASE_V1.0.2/MSDK/wpa_supplicant/wpa_supplicant\driver_i.h **** 	return -1;
 386:C:/Users/stapi/OneDrive/Desktop/GD32VW553/V1_MQTT_OK/GD32VW55X_Wifi_BLE_SDK/GD32VW55x_RELEASE_V1.0.2/MSDK/wpa_supplicant/wpa_supplicant\driver_i.h **** }
 387:C:/Users/stapi/OneDrive/Desktop/GD32VW553/V1_MQTT_OK/GD32VW55X_Wifi_BLE_SDK/GD32VW55x_RELEASE_V1.0.2/MSDK/wpa_supplicant/wpa_supplicant\driver_i.h **** 
 388:C:/Users/stapi/OneDrive/Desktop/GD32VW553/V1_MQTT_OK/GD32VW55X_Wifi_BLE_SDK/GD32VW55x_RELEASE_V1.0.2/MSDK/wpa_supplicant/wpa_supplicant\driver_i.h **** static inline int wpa_drv_sta_set_flags(struct wpa_supplicant *wpa_s,
 389:C:/Users/stapi/OneDrive/Desktop/GD32VW553/V1_MQTT_OK/GD32VW55X_Wifi_BLE_SDK/GD32VW55x_RELEASE_V1.0.2/MSDK/wpa_supplicant/wpa_supplicant\driver_i.h **** 					const u8 *addr, int total_flags,
 390:C:/Users/stapi/OneDrive/Desktop/GD32VW553/V1_MQTT_OK/GD32VW55X_Wifi_BLE_SDK/GD32VW55x_RELEASE_V1.0.2/MSDK/wpa_supplicant/wpa_supplicant\driver_i.h **** 					int flags_or, int flags_and)
 391:C:/Users/stapi/OneDrive/Desktop/GD32VW553/V1_MQTT_OK/GD32VW55X_Wifi_BLE_SDK/GD32VW55x_RELEASE_V1.0.2/MSDK/wpa_supplicant/wpa_supplicant\driver_i.h **** {
 392:C:/Users/stapi/OneDrive/Desktop/GD32VW553/V1_MQTT_OK/GD32VW55X_Wifi_BLE_SDK/GD32VW55x_RELEASE_V1.0.2/MSDK/wpa_supplicant/wpa_supplicant\driver_i.h **** 	if (wpa_s->driver->sta_set_flags)
 393:C:/Users/stapi/OneDrive/Desktop/GD32VW553/V1_MQTT_OK/GD32VW55X_Wifi_BLE_SDK/GD32VW55x_RELEASE_V1.0.2/MSDK/wpa_supplicant/wpa_supplicant\driver_i.h **** 		return wpa_s->driver->sta_set_flags(wpa_s->drv_priv, addr,
 394:C:/Users/stapi/OneDrive/Desktop/GD32VW553/V1_MQTT_OK/GD32VW55X_Wifi_BLE_SDK/GD32VW55x_RELEASE_V1.0.2/MSDK/wpa_supplicant/wpa_supplicant\driver_i.h **** 						    total_flags, flags_or,
 395:C:/Users/stapi/OneDrive/Desktop/GD32VW553/V1_MQTT_OK/GD32VW55X_Wifi_BLE_SDK/GD32VW55x_RELEASE_V1.0.2/MSDK/wpa_supplicant/wpa_supplicant\driver_i.h **** 						    flags_and);
 396:C:/Users/stapi/OneDrive/Desktop/GD32VW553/V1_MQTT_OK/GD32VW55X_Wifi_BLE_SDK/GD32VW55x_RELEASE_V1.0.2/MSDK/wpa_supplicant/wpa_supplicant\driver_i.h **** 	return -1;
 397:C:/Users/stapi/OneDrive/Desktop/GD32VW553/V1_MQTT_OK/GD32VW55X_Wifi_BLE_SDK/GD32VW55x_RELEASE_V1.0.2/MSDK/wpa_supplicant/wpa_supplicant\driver_i.h **** }
 398:C:/Users/stapi/OneDrive/Desktop/GD32VW553/V1_MQTT_OK/GD32VW55X_Wifi_BLE_SDK/GD32VW55x_RELEASE_V1.0.2/MSDK/wpa_supplicant/wpa_supplicant\driver_i.h **** 
 399:C:/Users/stapi/OneDrive/Desktop/GD32VW553/V1_MQTT_OK/GD32VW55X_Wifi_BLE_SDK/GD32VW55x_RELEASE_V1.0.2/MSDK/wpa_supplicant/wpa_supplicant\driver_i.h **** static inline int wpa_drv_set_supp_port(struct wpa_supplicant *wpa_s,
 400:C:/Users/stapi/OneDrive/Desktop/GD32VW553/V1_MQTT_OK/GD32VW55X_Wifi_BLE_SDK/GD32VW55x_RELEASE_V1.0.2/MSDK/wpa_supplicant/wpa_supplicant\driver_i.h **** 					int authorized)
 401:C:/Users/stapi/OneDrive/Desktop/GD32VW553/V1_MQTT_OK/GD32VW55X_Wifi_BLE_SDK/GD32VW55x_RELEASE_V1.0.2/MSDK/wpa_supplicant/wpa_supplicant\driver_i.h **** {
 402:C:/Users/stapi/OneDrive/Desktop/GD32VW553/V1_MQTT_OK/GD32VW55X_Wifi_BLE_SDK/GD32VW55x_RELEASE_V1.0.2/MSDK/wpa_supplicant/wpa_supplicant\driver_i.h **** 	if (wpa_s->driver->set_supp_port) {
 403:C:/Users/stapi/OneDrive/Desktop/GD32VW553/V1_MQTT_OK/GD32VW55X_Wifi_BLE_SDK/GD32VW55x_RELEASE_V1.0.2/MSDK/wpa_supplicant/wpa_supplicant\driver_i.h **** 		return wpa_s->driver->set_supp_port(wpa_s->drv_priv,
 404:C:/Users/stapi/OneDrive/Desktop/GD32VW553/V1_MQTT_OK/GD32VW55X_Wifi_BLE_SDK/GD32VW55x_RELEASE_V1.0.2/MSDK/wpa_supplicant/wpa_supplicant\driver_i.h **** 						    authorized);
 405:C:/Users/stapi/OneDrive/Desktop/GD32VW553/V1_MQTT_OK/GD32VW55X_Wifi_BLE_SDK/GD32VW55x_RELEASE_V1.0.2/MSDK/wpa_supplicant/wpa_supplicant\driver_i.h **** 	}
 406:C:/Users/stapi/OneDrive/Desktop/GD32VW553/V1_MQTT_OK/GD32VW55X_Wifi_BLE_SDK/GD32VW55x_RELEASE_V1.0.2/MSDK/wpa_supplicant/wpa_supplicant\driver_i.h **** 	return 0;
 407:C:/Users/stapi/OneDrive/Desktop/GD32VW553/V1_MQTT_OK/GD32VW55X_Wifi_BLE_SDK/GD32VW55x_RELEASE_V1.0.2/MSDK/wpa_supplicant/wpa_supplicant\driver_i.h **** }
 408:C:/Users/stapi/OneDrive/Desktop/GD32VW553/V1_MQTT_OK/GD32VW55X_Wifi_BLE_SDK/GD32VW55x_RELEASE_V1.0.2/MSDK/wpa_supplicant/wpa_supplicant\driver_i.h **** 
 409:C:/Users/stapi/OneDrive/Desktop/GD32VW553/V1_MQTT_OK/GD32VW55X_Wifi_BLE_SDK/GD32VW55x_RELEASE_V1.0.2/MSDK/wpa_supplicant/wpa_supplicant\driver_i.h **** static inline int wpa_drv_send_action(struct wpa_supplicant *wpa_s,
 410:C:/Users/stapi/OneDrive/Desktop/GD32VW553/V1_MQTT_OK/GD32VW55X_Wifi_BLE_SDK/GD32VW55x_RELEASE_V1.0.2/MSDK/wpa_supplicant/wpa_supplicant\driver_i.h **** 				      unsigned int freq,
 411:C:/Users/stapi/OneDrive/Desktop/GD32VW553/V1_MQTT_OK/GD32VW55X_Wifi_BLE_SDK/GD32VW55x_RELEASE_V1.0.2/MSDK/wpa_supplicant/wpa_supplicant\driver_i.h **** 				      unsigned int wait,
 412:C:/Users/stapi/OneDrive/Desktop/GD32VW553/V1_MQTT_OK/GD32VW55X_Wifi_BLE_SDK/GD32VW55x_RELEASE_V1.0.2/MSDK/wpa_supplicant/wpa_supplicant\driver_i.h **** 				      const u8 *dst, const u8 *src,
 413:C:/Users/stapi/OneDrive/Desktop/GD32VW553/V1_MQTT_OK/GD32VW55X_Wifi_BLE_SDK/GD32VW55x_RELEASE_V1.0.2/MSDK/wpa_supplicant/wpa_supplicant\driver_i.h **** 				      const u8 *bssid,
 414:C:/Users/stapi/OneDrive/Desktop/GD32VW553/V1_MQTT_OK/GD32VW55X_Wifi_BLE_SDK/GD32VW55x_RELEASE_V1.0.2/MSDK/wpa_supplicant/wpa_supplicant\driver_i.h **** 				      const u8 *data, size_t data_len,
 415:C:/Users/stapi/OneDrive/Desktop/GD32VW553/V1_MQTT_OK/GD32VW55X_Wifi_BLE_SDK/GD32VW55x_RELEASE_V1.0.2/MSDK/wpa_supplicant/wpa_supplicant\driver_i.h **** 				      int no_cck)
 416:C:/Users/stapi/OneDrive/Desktop/GD32VW553/V1_MQTT_OK/GD32VW55X_Wifi_BLE_SDK/GD32VW55x_RELEASE_V1.0.2/MSDK/wpa_supplicant/wpa_supplicant\driver_i.h **** {
 417:C:/Users/stapi/OneDrive/Desktop/GD32VW553/V1_MQTT_OK/GD32VW55X_Wifi_BLE_SDK/GD32VW55x_RELEASE_V1.0.2/MSDK/wpa_supplicant/wpa_supplicant\driver_i.h **** 	if (wpa_s->driver->send_action)
 418:C:/Users/stapi/OneDrive/Desktop/GD32VW553/V1_MQTT_OK/GD32VW55X_Wifi_BLE_SDK/GD32VW55x_RELEASE_V1.0.2/MSDK/wpa_supplicant/wpa_supplicant\driver_i.h **** 		return wpa_s->driver->send_action(wpa_s->drv_priv, freq,
 419:C:/Users/stapi/OneDrive/Desktop/GD32VW553/V1_MQTT_OK/GD32VW55X_Wifi_BLE_SDK/GD32VW55x_RELEASE_V1.0.2/MSDK/wpa_supplicant/wpa_supplicant\driver_i.h **** 						  wait, dst, src, bssid,
 420:C:/Users/stapi/OneDrive/Desktop/GD32VW553/V1_MQTT_OK/GD32VW55X_Wifi_BLE_SDK/GD32VW55x_RELEASE_V1.0.2/MSDK/wpa_supplicant/wpa_supplicant\driver_i.h **** 						  data, data_len, no_cck);
 421:C:/Users/stapi/OneDrive/Desktop/GD32VW553/V1_MQTT_OK/GD32VW55X_Wifi_BLE_SDK/GD32VW55x_RELEASE_V1.0.2/MSDK/wpa_supplicant/wpa_supplicant\driver_i.h **** 	return -1;
 422:C:/Users/stapi/OneDrive/Desktop/GD32VW553/V1_MQTT_OK/GD32VW55X_Wifi_BLE_SDK/GD32VW55x_RELEASE_V1.0.2/MSDK/wpa_supplicant/wpa_supplicant\driver_i.h **** }
 423:C:/Users/stapi/OneDrive/Desktop/GD32VW553/V1_MQTT_OK/GD32VW55X_Wifi_BLE_SDK/GD32VW55x_RELEASE_V1.0.2/MSDK/wpa_supplicant/wpa_supplicant\driver_i.h **** 
 424:C:/Users/stapi/OneDrive/Desktop/GD32VW553/V1_MQTT_OK/GD32VW55X_Wifi_BLE_SDK/GD32VW55x_RELEASE_V1.0.2/MSDK/wpa_supplicant/wpa_supplicant\driver_i.h **** static inline void wpa_drv_send_action_cancel_wait(struct wpa_supplicant *wpa_s)
 425:C:/Users/stapi/OneDrive/Desktop/GD32VW553/V1_MQTT_OK/GD32VW55X_Wifi_BLE_SDK/GD32VW55x_RELEASE_V1.0.2/MSDK/wpa_supplicant/wpa_supplicant\driver_i.h **** {
 426:C:/Users/stapi/OneDrive/Desktop/GD32VW553/V1_MQTT_OK/GD32VW55X_Wifi_BLE_SDK/GD32VW55x_RELEASE_V1.0.2/MSDK/wpa_supplicant/wpa_supplicant\driver_i.h **** 	if (wpa_s->driver->send_action_cancel_wait)
 427:C:/Users/stapi/OneDrive/Desktop/GD32VW553/V1_MQTT_OK/GD32VW55X_Wifi_BLE_SDK/GD32VW55x_RELEASE_V1.0.2/MSDK/wpa_supplicant/wpa_supplicant\driver_i.h **** 		wpa_s->driver->send_action_cancel_wait(wpa_s->drv_priv);
 428:C:/Users/stapi/OneDrive/Desktop/GD32VW553/V1_MQTT_OK/GD32VW55X_Wifi_BLE_SDK/GD32VW55x_RELEASE_V1.0.2/MSDK/wpa_supplicant/wpa_supplicant\driver_i.h **** }
 429:C:/Users/stapi/OneDrive/Desktop/GD32VW553/V1_MQTT_OK/GD32VW55X_Wifi_BLE_SDK/GD32VW55x_RELEASE_V1.0.2/MSDK/wpa_supplicant/wpa_supplicant\driver_i.h **** 
 430:C:/Users/stapi/OneDrive/Desktop/GD32VW553/V1_MQTT_OK/GD32VW55X_Wifi_BLE_SDK/GD32VW55x_RELEASE_V1.0.2/MSDK/wpa_supplicant/wpa_supplicant\driver_i.h **** static inline int wpa_drv_set_freq(struct wpa_supplicant *wpa_s,
 431:C:/Users/stapi/OneDrive/Desktop/GD32VW553/V1_MQTT_OK/GD32VW55X_Wifi_BLE_SDK/GD32VW55x_RELEASE_V1.0.2/MSDK/wpa_supplicant/wpa_supplicant\driver_i.h **** 				   struct hostapd_freq_params *freq)
 432:C:/Users/stapi/OneDrive/Desktop/GD32VW553/V1_MQTT_OK/GD32VW55X_Wifi_BLE_SDK/GD32VW55x_RELEASE_V1.0.2/MSDK/wpa_supplicant/wpa_supplicant\driver_i.h **** {
 433:C:/Users/stapi/OneDrive/Desktop/GD32VW553/V1_MQTT_OK/GD32VW55X_Wifi_BLE_SDK/GD32VW55x_RELEASE_V1.0.2/MSDK/wpa_supplicant/wpa_supplicant\driver_i.h **** 	if (wpa_s->driver->set_freq)
 434:C:/Users/stapi/OneDrive/Desktop/GD32VW553/V1_MQTT_OK/GD32VW55X_Wifi_BLE_SDK/GD32VW55x_RELEASE_V1.0.2/MSDK/wpa_supplicant/wpa_supplicant\driver_i.h **** 		return wpa_s->driver->set_freq(wpa_s->drv_priv, freq);
 435:C:/Users/stapi/OneDrive/Desktop/GD32VW553/V1_MQTT_OK/GD32VW55X_Wifi_BLE_SDK/GD32VW55x_RELEASE_V1.0.2/MSDK/wpa_supplicant/wpa_supplicant\driver_i.h **** 	return -1;
 436:C:/Users/stapi/OneDrive/Desktop/GD32VW553/V1_MQTT_OK/GD32VW55X_Wifi_BLE_SDK/GD32VW55x_RELEASE_V1.0.2/MSDK/wpa_supplicant/wpa_supplicant\driver_i.h **** }
 437:C:/Users/stapi/OneDrive/Desktop/GD32VW553/V1_MQTT_OK/GD32VW55X_Wifi_BLE_SDK/GD32VW55x_RELEASE_V1.0.2/MSDK/wpa_supplicant/wpa_supplicant\driver_i.h **** 
 438:C:/Users/stapi/OneDrive/Desktop/GD32VW553/V1_MQTT_OK/GD32VW55X_Wifi_BLE_SDK/GD32VW55x_RELEASE_V1.0.2/MSDK/wpa_supplicant/wpa_supplicant\driver_i.h **** static inline int wpa_drv_if_add(struct wpa_supplicant *wpa_s,
 439:C:/Users/stapi/OneDrive/Desktop/GD32VW553/V1_MQTT_OK/GD32VW55X_Wifi_BLE_SDK/GD32VW55x_RELEASE_V1.0.2/MSDK/wpa_supplicant/wpa_supplicant\driver_i.h **** 				 enum wpa_driver_if_type type,
 440:C:/Users/stapi/OneDrive/Desktop/GD32VW553/V1_MQTT_OK/GD32VW55X_Wifi_BLE_SDK/GD32VW55x_RELEASE_V1.0.2/MSDK/wpa_supplicant/wpa_supplicant\driver_i.h **** 				 const char *ifname, const u8 *addr,
 441:C:/Users/stapi/OneDrive/Desktop/GD32VW553/V1_MQTT_OK/GD32VW55X_Wifi_BLE_SDK/GD32VW55x_RELEASE_V1.0.2/MSDK/wpa_supplicant/wpa_supplicant\driver_i.h **** 				 void *bss_ctx, char *force_ifname,
 442:C:/Users/stapi/OneDrive/Desktop/GD32VW553/V1_MQTT_OK/GD32VW55X_Wifi_BLE_SDK/GD32VW55x_RELEASE_V1.0.2/MSDK/wpa_supplicant/wpa_supplicant\driver_i.h **** 				 u8 *if_addr, const char *bridge)
 443:C:/Users/stapi/OneDrive/Desktop/GD32VW553/V1_MQTT_OK/GD32VW55X_Wifi_BLE_SDK/GD32VW55x_RELEASE_V1.0.2/MSDK/wpa_supplicant/wpa_supplicant\driver_i.h **** {
 444:C:/Users/stapi/OneDrive/Desktop/GD32VW553/V1_MQTT_OK/GD32VW55X_Wifi_BLE_SDK/GD32VW55x_RELEASE_V1.0.2/MSDK/wpa_supplicant/wpa_supplicant\driver_i.h **** 	if (wpa_s->driver->if_add)
 445:C:/Users/stapi/OneDrive/Desktop/GD32VW553/V1_MQTT_OK/GD32VW55X_Wifi_BLE_SDK/GD32VW55x_RELEASE_V1.0.2/MSDK/wpa_supplicant/wpa_supplicant\driver_i.h **** 		return wpa_s->driver->if_add(wpa_s->drv_priv, type, ifname,
 446:C:/Users/stapi/OneDrive/Desktop/GD32VW553/V1_MQTT_OK/GD32VW55X_Wifi_BLE_SDK/GD32VW55x_RELEASE_V1.0.2/MSDK/wpa_supplicant/wpa_supplicant\driver_i.h **** 					     addr, bss_ctx, NULL, force_ifname,
 447:C:/Users/stapi/OneDrive/Desktop/GD32VW553/V1_MQTT_OK/GD32VW55X_Wifi_BLE_SDK/GD32VW55x_RELEASE_V1.0.2/MSDK/wpa_supplicant/wpa_supplicant\driver_i.h **** 					     if_addr, bridge, 0, 0);
 448:C:/Users/stapi/OneDrive/Desktop/GD32VW553/V1_MQTT_OK/GD32VW55X_Wifi_BLE_SDK/GD32VW55x_RELEASE_V1.0.2/MSDK/wpa_supplicant/wpa_supplicant\driver_i.h **** 	return -1;
 449:C:/Users/stapi/OneDrive/Desktop/GD32VW553/V1_MQTT_OK/GD32VW55X_Wifi_BLE_SDK/GD32VW55x_RELEASE_V1.0.2/MSDK/wpa_supplicant/wpa_supplicant\driver_i.h **** }
 450:C:/Users/stapi/OneDrive/Desktop/GD32VW553/V1_MQTT_OK/GD32VW55X_Wifi_BLE_SDK/GD32VW55x_RELEASE_V1.0.2/MSDK/wpa_supplicant/wpa_supplicant\driver_i.h **** 
 451:C:/Users/stapi/OneDrive/Desktop/GD32VW553/V1_MQTT_OK/GD32VW55X_Wifi_BLE_SDK/GD32VW55x_RELEASE_V1.0.2/MSDK/wpa_supplicant/wpa_supplicant\driver_i.h **** static inline int wpa_drv_if_remove(struct wpa_supplicant *wpa_s,
 452:C:/Users/stapi/OneDrive/Desktop/GD32VW553/V1_MQTT_OK/GD32VW55X_Wifi_BLE_SDK/GD32VW55x_RELEASE_V1.0.2/MSDK/wpa_supplicant/wpa_supplicant\driver_i.h **** 				    enum wpa_driver_if_type type,
 453:C:/Users/stapi/OneDrive/Desktop/GD32VW553/V1_MQTT_OK/GD32VW55X_Wifi_BLE_SDK/GD32VW55x_RELEASE_V1.0.2/MSDK/wpa_supplicant/wpa_supplicant\driver_i.h **** 				    const char *ifname)
 454:C:/Users/stapi/OneDrive/Desktop/GD32VW553/V1_MQTT_OK/GD32VW55X_Wifi_BLE_SDK/GD32VW55x_RELEASE_V1.0.2/MSDK/wpa_supplicant/wpa_supplicant\driver_i.h **** {
 455:C:/Users/stapi/OneDrive/Desktop/GD32VW553/V1_MQTT_OK/GD32VW55X_Wifi_BLE_SDK/GD32VW55x_RELEASE_V1.0.2/MSDK/wpa_supplicant/wpa_supplicant\driver_i.h **** 	if (wpa_s->driver->if_remove)
 456:C:/Users/stapi/OneDrive/Desktop/GD32VW553/V1_MQTT_OK/GD32VW55X_Wifi_BLE_SDK/GD32VW55x_RELEASE_V1.0.2/MSDK/wpa_supplicant/wpa_supplicant\driver_i.h **** 		return wpa_s->driver->if_remove(wpa_s->drv_priv, type, ifname);
 457:C:/Users/stapi/OneDrive/Desktop/GD32VW553/V1_MQTT_OK/GD32VW55X_Wifi_BLE_SDK/GD32VW55x_RELEASE_V1.0.2/MSDK/wpa_supplicant/wpa_supplicant\driver_i.h **** 	return -1;
 458:C:/Users/stapi/OneDrive/Desktop/GD32VW553/V1_MQTT_OK/GD32VW55X_Wifi_BLE_SDK/GD32VW55x_RELEASE_V1.0.2/MSDK/wpa_supplicant/wpa_supplicant\driver_i.h **** }
 459:C:/Users/stapi/OneDrive/Desktop/GD32VW553/V1_MQTT_OK/GD32VW55X_Wifi_BLE_SDK/GD32VW55x_RELEASE_V1.0.2/MSDK/wpa_supplicant/wpa_supplicant\driver_i.h **** 
 460:C:/Users/stapi/OneDrive/Desktop/GD32VW553/V1_MQTT_OK/GD32VW55X_Wifi_BLE_SDK/GD32VW55x_RELEASE_V1.0.2/MSDK/wpa_supplicant/wpa_supplicant\driver_i.h **** static inline int wpa_drv_remain_on_channel(struct wpa_supplicant *wpa_s,
 461:C:/Users/stapi/OneDrive/Desktop/GD32VW553/V1_MQTT_OK/GD32VW55X_Wifi_BLE_SDK/GD32VW55x_RELEASE_V1.0.2/MSDK/wpa_supplicant/wpa_supplicant\driver_i.h **** 					    unsigned int freq,
 462:C:/Users/stapi/OneDrive/Desktop/GD32VW553/V1_MQTT_OK/GD32VW55X_Wifi_BLE_SDK/GD32VW55x_RELEASE_V1.0.2/MSDK/wpa_supplicant/wpa_supplicant\driver_i.h **** 					    unsigned int duration)
 463:C:/Users/stapi/OneDrive/Desktop/GD32VW553/V1_MQTT_OK/GD32VW55X_Wifi_BLE_SDK/GD32VW55x_RELEASE_V1.0.2/MSDK/wpa_supplicant/wpa_supplicant\driver_i.h **** {
 464:C:/Users/stapi/OneDrive/Desktop/GD32VW553/V1_MQTT_OK/GD32VW55X_Wifi_BLE_SDK/GD32VW55x_RELEASE_V1.0.2/MSDK/wpa_supplicant/wpa_supplicant\driver_i.h **** 	if (wpa_s->driver->remain_on_channel)
 465:C:/Users/stapi/OneDrive/Desktop/GD32VW553/V1_MQTT_OK/GD32VW55X_Wifi_BLE_SDK/GD32VW55x_RELEASE_V1.0.2/MSDK/wpa_supplicant/wpa_supplicant\driver_i.h **** 		return wpa_s->driver->remain_on_channel(wpa_s->drv_priv, freq,
 466:C:/Users/stapi/OneDrive/Desktop/GD32VW553/V1_MQTT_OK/GD32VW55X_Wifi_BLE_SDK/GD32VW55x_RELEASE_V1.0.2/MSDK/wpa_supplicant/wpa_supplicant\driver_i.h **** 							duration);
 467:C:/Users/stapi/OneDrive/Desktop/GD32VW553/V1_MQTT_OK/GD32VW55X_Wifi_BLE_SDK/GD32VW55x_RELEASE_V1.0.2/MSDK/wpa_supplicant/wpa_supplicant\driver_i.h **** 	return -1;
 468:C:/Users/stapi/OneDrive/Desktop/GD32VW553/V1_MQTT_OK/GD32VW55X_Wifi_BLE_SDK/GD32VW55x_RELEASE_V1.0.2/MSDK/wpa_supplicant/wpa_supplicant\driver_i.h **** }
 469:C:/Users/stapi/OneDrive/Desktop/GD32VW553/V1_MQTT_OK/GD32VW55X_Wifi_BLE_SDK/GD32VW55x_RELEASE_V1.0.2/MSDK/wpa_supplicant/wpa_supplicant\driver_i.h **** 
 470:C:/Users/stapi/OneDrive/Desktop/GD32VW553/V1_MQTT_OK/GD32VW55X_Wifi_BLE_SDK/GD32VW55x_RELEASE_V1.0.2/MSDK/wpa_supplicant/wpa_supplicant\driver_i.h **** static inline int wpa_drv_cancel_remain_on_channel(
 471:C:/Users/stapi/OneDrive/Desktop/GD32VW553/V1_MQTT_OK/GD32VW55X_Wifi_BLE_SDK/GD32VW55x_RELEASE_V1.0.2/MSDK/wpa_supplicant/wpa_supplicant\driver_i.h **** 	struct wpa_supplicant *wpa_s)
 472:C:/Users/stapi/OneDrive/Desktop/GD32VW553/V1_MQTT_OK/GD32VW55X_Wifi_BLE_SDK/GD32VW55x_RELEASE_V1.0.2/MSDK/wpa_supplicant/wpa_supplicant\driver_i.h **** {
 473:C:/Users/stapi/OneDrive/Desktop/GD32VW553/V1_MQTT_OK/GD32VW55X_Wifi_BLE_SDK/GD32VW55x_RELEASE_V1.0.2/MSDK/wpa_supplicant/wpa_supplicant\driver_i.h **** 	if (wpa_s->driver->cancel_remain_on_channel)
 474:C:/Users/stapi/OneDrive/Desktop/GD32VW553/V1_MQTT_OK/GD32VW55X_Wifi_BLE_SDK/GD32VW55x_RELEASE_V1.0.2/MSDK/wpa_supplicant/wpa_supplicant\driver_i.h **** 		return wpa_s->driver->cancel_remain_on_channel(
 475:C:/Users/stapi/OneDrive/Desktop/GD32VW553/V1_MQTT_OK/GD32VW55X_Wifi_BLE_SDK/GD32VW55x_RELEASE_V1.0.2/MSDK/wpa_supplicant/wpa_supplicant\driver_i.h **** 			wpa_s->drv_priv);
 476:C:/Users/stapi/OneDrive/Desktop/GD32VW553/V1_MQTT_OK/GD32VW55X_Wifi_BLE_SDK/GD32VW55x_RELEASE_V1.0.2/MSDK/wpa_supplicant/wpa_supplicant\driver_i.h **** 	return -1;
 477:C:/Users/stapi/OneDrive/Desktop/GD32VW553/V1_MQTT_OK/GD32VW55X_Wifi_BLE_SDK/GD32VW55x_RELEASE_V1.0.2/MSDK/wpa_supplicant/wpa_supplicant\driver_i.h **** }
 478:C:/Users/stapi/OneDrive/Desktop/GD32VW553/V1_MQTT_OK/GD32VW55X_Wifi_BLE_SDK/GD32VW55x_RELEASE_V1.0.2/MSDK/wpa_supplicant/wpa_supplicant\driver_i.h **** 
 479:C:/Users/stapi/OneDrive/Desktop/GD32VW553/V1_MQTT_OK/GD32VW55X_Wifi_BLE_SDK/GD32VW55x_RELEASE_V1.0.2/MSDK/wpa_supplicant/wpa_supplicant\driver_i.h **** static inline int wpa_drv_probe_req_report(struct wpa_supplicant *wpa_s,
 480:C:/Users/stapi/OneDrive/Desktop/GD32VW553/V1_MQTT_OK/GD32VW55X_Wifi_BLE_SDK/GD32VW55x_RELEASE_V1.0.2/MSDK/wpa_supplicant/wpa_supplicant\driver_i.h **** 					   int report)
 481:C:/Users/stapi/OneDrive/Desktop/GD32VW553/V1_MQTT_OK/GD32VW55X_Wifi_BLE_SDK/GD32VW55x_RELEASE_V1.0.2/MSDK/wpa_supplicant/wpa_supplicant\driver_i.h **** {
 482:C:/Users/stapi/OneDrive/Desktop/GD32VW553/V1_MQTT_OK/GD32VW55X_Wifi_BLE_SDK/GD32VW55x_RELEASE_V1.0.2/MSDK/wpa_supplicant/wpa_supplicant\driver_i.h **** 	if (wpa_s->driver->probe_req_report)
 483:C:/Users/stapi/OneDrive/Desktop/GD32VW553/V1_MQTT_OK/GD32VW55X_Wifi_BLE_SDK/GD32VW55x_RELEASE_V1.0.2/MSDK/wpa_supplicant/wpa_supplicant\driver_i.h **** 		return wpa_s->driver->probe_req_report(wpa_s->drv_priv,
 484:C:/Users/stapi/OneDrive/Desktop/GD32VW553/V1_MQTT_OK/GD32VW55X_Wifi_BLE_SDK/GD32VW55x_RELEASE_V1.0.2/MSDK/wpa_supplicant/wpa_supplicant\driver_i.h **** 						       report);
 485:C:/Users/stapi/OneDrive/Desktop/GD32VW553/V1_MQTT_OK/GD32VW55X_Wifi_BLE_SDK/GD32VW55x_RELEASE_V1.0.2/MSDK/wpa_supplicant/wpa_supplicant\driver_i.h **** 	return -1;
 486:C:/Users/stapi/OneDrive/Desktop/GD32VW553/V1_MQTT_OK/GD32VW55X_Wifi_BLE_SDK/GD32VW55x_RELEASE_V1.0.2/MSDK/wpa_supplicant/wpa_supplicant\driver_i.h **** }
 487:C:/Users/stapi/OneDrive/Desktop/GD32VW553/V1_MQTT_OK/GD32VW55X_Wifi_BLE_SDK/GD32VW55x_RELEASE_V1.0.2/MSDK/wpa_supplicant/wpa_supplicant\driver_i.h **** 
 488:C:/Users/stapi/OneDrive/Desktop/GD32VW553/V1_MQTT_OK/GD32VW55X_Wifi_BLE_SDK/GD32VW55x_RELEASE_V1.0.2/MSDK/wpa_supplicant/wpa_supplicant\driver_i.h **** static inline int wpa_drv_deinit_ap(struct wpa_supplicant *wpa_s)
 489:C:/Users/stapi/OneDrive/Desktop/GD32VW553/V1_MQTT_OK/GD32VW55X_Wifi_BLE_SDK/GD32VW55x_RELEASE_V1.0.2/MSDK/wpa_supplicant/wpa_supplicant\driver_i.h **** {
 490:C:/Users/stapi/OneDrive/Desktop/GD32VW553/V1_MQTT_OK/GD32VW55X_Wifi_BLE_SDK/GD32VW55x_RELEASE_V1.0.2/MSDK/wpa_supplicant/wpa_supplicant\driver_i.h **** 	if (wpa_s->driver->deinit_ap)
 491:C:/Users/stapi/OneDrive/Desktop/GD32VW553/V1_MQTT_OK/GD32VW55X_Wifi_BLE_SDK/GD32VW55x_RELEASE_V1.0.2/MSDK/wpa_supplicant/wpa_supplicant\driver_i.h **** 		return wpa_s->driver->deinit_ap(wpa_s->drv_priv);
 492:C:/Users/stapi/OneDrive/Desktop/GD32VW553/V1_MQTT_OK/GD32VW55X_Wifi_BLE_SDK/GD32VW55x_RELEASE_V1.0.2/MSDK/wpa_supplicant/wpa_supplicant\driver_i.h **** 	return 0;
 493:C:/Users/stapi/OneDrive/Desktop/GD32VW553/V1_MQTT_OK/GD32VW55X_Wifi_BLE_SDK/GD32VW55x_RELEASE_V1.0.2/MSDK/wpa_supplicant/wpa_supplicant\driver_i.h **** }
 494:C:/Users/stapi/OneDrive/Desktop/GD32VW553/V1_MQTT_OK/GD32VW55X_Wifi_BLE_SDK/GD32VW55x_RELEASE_V1.0.2/MSDK/wpa_supplicant/wpa_supplicant\driver_i.h **** 
 495:C:/Users/stapi/OneDrive/Desktop/GD32VW553/V1_MQTT_OK/GD32VW55X_Wifi_BLE_SDK/GD32VW55x_RELEASE_V1.0.2/MSDK/wpa_supplicant/wpa_supplicant\driver_i.h **** static inline int wpa_drv_deinit_p2p_cli(struct wpa_supplicant *wpa_s)
 496:C:/Users/stapi/OneDrive/Desktop/GD32VW553/V1_MQTT_OK/GD32VW55X_Wifi_BLE_SDK/GD32VW55x_RELEASE_V1.0.2/MSDK/wpa_supplicant/wpa_supplicant\driver_i.h **** {
 497:C:/Users/stapi/OneDrive/Desktop/GD32VW553/V1_MQTT_OK/GD32VW55X_Wifi_BLE_SDK/GD32VW55x_RELEASE_V1.0.2/MSDK/wpa_supplicant/wpa_supplicant\driver_i.h **** 	if (wpa_s->driver->deinit_p2p_cli)
 498:C:/Users/stapi/OneDrive/Desktop/GD32VW553/V1_MQTT_OK/GD32VW55X_Wifi_BLE_SDK/GD32VW55x_RELEASE_V1.0.2/MSDK/wpa_supplicant/wpa_supplicant\driver_i.h **** 		return wpa_s->driver->deinit_p2p_cli(wpa_s->drv_priv);
 499:C:/Users/stapi/OneDrive/Desktop/GD32VW553/V1_MQTT_OK/GD32VW55X_Wifi_BLE_SDK/GD32VW55x_RELEASE_V1.0.2/MSDK/wpa_supplicant/wpa_supplicant\driver_i.h **** 	return 0;
 500:C:/Users/stapi/OneDrive/Desktop/GD32VW553/V1_MQTT_OK/GD32VW55X_Wifi_BLE_SDK/GD32VW55x_RELEASE_V1.0.2/MSDK/wpa_supplicant/wpa_supplicant\driver_i.h **** }
 501:C:/Users/stapi/OneDrive/Desktop/GD32VW553/V1_MQTT_OK/GD32VW55X_Wifi_BLE_SDK/GD32VW55x_RELEASE_V1.0.2/MSDK/wpa_supplicant/wpa_supplicant\driver_i.h **** 
 502:C:/Users/stapi/OneDrive/Desktop/GD32VW553/V1_MQTT_OK/GD32VW55X_Wifi_BLE_SDK/GD32VW55x_RELEASE_V1.0.2/MSDK/wpa_supplicant/wpa_supplicant\driver_i.h **** static inline void wpa_drv_suspend(struct wpa_supplicant *wpa_s)
 503:C:/Users/stapi/OneDrive/Desktop/GD32VW553/V1_MQTT_OK/GD32VW55X_Wifi_BLE_SDK/GD32VW55x_RELEASE_V1.0.2/MSDK/wpa_supplicant/wpa_supplicant\driver_i.h **** {
 504:C:/Users/stapi/OneDrive/Desktop/GD32VW553/V1_MQTT_OK/GD32VW55X_Wifi_BLE_SDK/GD32VW55x_RELEASE_V1.0.2/MSDK/wpa_supplicant/wpa_supplicant\driver_i.h **** 	if (wpa_s->driver->suspend)
 505:C:/Users/stapi/OneDrive/Desktop/GD32VW553/V1_MQTT_OK/GD32VW55X_Wifi_BLE_SDK/GD32VW55x_RELEASE_V1.0.2/MSDK/wpa_supplicant/wpa_supplicant\driver_i.h **** 		wpa_s->driver->suspend(wpa_s->drv_priv);
 506:C:/Users/stapi/OneDrive/Desktop/GD32VW553/V1_MQTT_OK/GD32VW55X_Wifi_BLE_SDK/GD32VW55x_RELEASE_V1.0.2/MSDK/wpa_supplicant/wpa_supplicant\driver_i.h **** }
 507:C:/Users/stapi/OneDrive/Desktop/GD32VW553/V1_MQTT_OK/GD32VW55X_Wifi_BLE_SDK/GD32VW55x_RELEASE_V1.0.2/MSDK/wpa_supplicant/wpa_supplicant\driver_i.h **** 
 508:C:/Users/stapi/OneDrive/Desktop/GD32VW553/V1_MQTT_OK/GD32VW55X_Wifi_BLE_SDK/GD32VW55x_RELEASE_V1.0.2/MSDK/wpa_supplicant/wpa_supplicant\driver_i.h **** static inline void wpa_drv_resume(struct wpa_supplicant *wpa_s)
 509:C:/Users/stapi/OneDrive/Desktop/GD32VW553/V1_MQTT_OK/GD32VW55X_Wifi_BLE_SDK/GD32VW55x_RELEASE_V1.0.2/MSDK/wpa_supplicant/wpa_supplicant\driver_i.h **** {
 510:C:/Users/stapi/OneDrive/Desktop/GD32VW553/V1_MQTT_OK/GD32VW55X_Wifi_BLE_SDK/GD32VW55x_RELEASE_V1.0.2/MSDK/wpa_supplicant/wpa_supplicant\driver_i.h **** 	if (wpa_s->driver->resume)
 511:C:/Users/stapi/OneDrive/Desktop/GD32VW553/V1_MQTT_OK/GD32VW55X_Wifi_BLE_SDK/GD32VW55x_RELEASE_V1.0.2/MSDK/wpa_supplicant/wpa_supplicant\driver_i.h **** 		wpa_s->driver->resume(wpa_s->drv_priv);
 512:C:/Users/stapi/OneDrive/Desktop/GD32VW553/V1_MQTT_OK/GD32VW55X_Wifi_BLE_SDK/GD32VW55x_RELEASE_V1.0.2/MSDK/wpa_supplicant/wpa_supplicant\driver_i.h **** }
 513:C:/Users/stapi/OneDrive/Desktop/GD32VW553/V1_MQTT_OK/GD32VW55X_Wifi_BLE_SDK/GD32VW55x_RELEASE_V1.0.2/MSDK/wpa_supplicant/wpa_supplicant\driver_i.h **** 
 514:C:/Users/stapi/OneDrive/Desktop/GD32VW553/V1_MQTT_OK/GD32VW55X_Wifi_BLE_SDK/GD32VW55x_RELEASE_V1.0.2/MSDK/wpa_supplicant/wpa_supplicant\driver_i.h **** static inline int wpa_drv_signal_monitor(struct wpa_supplicant *wpa_s,
 515:C:/Users/stapi/OneDrive/Desktop/GD32VW553/V1_MQTT_OK/GD32VW55X_Wifi_BLE_SDK/GD32VW55x_RELEASE_V1.0.2/MSDK/wpa_supplicant/wpa_supplicant\driver_i.h **** 					 int threshold, int hysteresis)
 516:C:/Users/stapi/OneDrive/Desktop/GD32VW553/V1_MQTT_OK/GD32VW55X_Wifi_BLE_SDK/GD32VW55x_RELEASE_V1.0.2/MSDK/wpa_supplicant/wpa_supplicant\driver_i.h **** {
 517:C:/Users/stapi/OneDrive/Desktop/GD32VW553/V1_MQTT_OK/GD32VW55X_Wifi_BLE_SDK/GD32VW55x_RELEASE_V1.0.2/MSDK/wpa_supplicant/wpa_supplicant\driver_i.h **** 	if (wpa_s->driver->signal_monitor)
 518:C:/Users/stapi/OneDrive/Desktop/GD32VW553/V1_MQTT_OK/GD32VW55X_Wifi_BLE_SDK/GD32VW55x_RELEASE_V1.0.2/MSDK/wpa_supplicant/wpa_supplicant\driver_i.h **** 		return wpa_s->driver->signal_monitor(wpa_s->drv_priv,
 519:C:/Users/stapi/OneDrive/Desktop/GD32VW553/V1_MQTT_OK/GD32VW55X_Wifi_BLE_SDK/GD32VW55x_RELEASE_V1.0.2/MSDK/wpa_supplicant/wpa_supplicant\driver_i.h **** 						     threshold, hysteresis);
 520:C:/Users/stapi/OneDrive/Desktop/GD32VW553/V1_MQTT_OK/GD32VW55X_Wifi_BLE_SDK/GD32VW55x_RELEASE_V1.0.2/MSDK/wpa_supplicant/wpa_supplicant\driver_i.h **** 	return -1;
 521:C:/Users/stapi/OneDrive/Desktop/GD32VW553/V1_MQTT_OK/GD32VW55X_Wifi_BLE_SDK/GD32VW55x_RELEASE_V1.0.2/MSDK/wpa_supplicant/wpa_supplicant\driver_i.h **** }
 522:C:/Users/stapi/OneDrive/Desktop/GD32VW553/V1_MQTT_OK/GD32VW55X_Wifi_BLE_SDK/GD32VW55x_RELEASE_V1.0.2/MSDK/wpa_supplicant/wpa_supplicant\driver_i.h **** 
 523:C:/Users/stapi/OneDrive/Desktop/GD32VW553/V1_MQTT_OK/GD32VW55X_Wifi_BLE_SDK/GD32VW55x_RELEASE_V1.0.2/MSDK/wpa_supplicant/wpa_supplicant\driver_i.h **** int wpa_drv_signal_poll(struct wpa_supplicant *wpa_s,
 524:C:/Users/stapi/OneDrive/Desktop/GD32VW553/V1_MQTT_OK/GD32VW55X_Wifi_BLE_SDK/GD32VW55x_RELEASE_V1.0.2/MSDK/wpa_supplicant/wpa_supplicant\driver_i.h **** 			struct wpa_signal_info *si);
 525:C:/Users/stapi/OneDrive/Desktop/GD32VW553/V1_MQTT_OK/GD32VW55X_Wifi_BLE_SDK/GD32VW55x_RELEASE_V1.0.2/MSDK/wpa_supplicant/wpa_supplicant\driver_i.h **** 
 526:C:/Users/stapi/OneDrive/Desktop/GD32VW553/V1_MQTT_OK/GD32VW55X_Wifi_BLE_SDK/GD32VW55x_RELEASE_V1.0.2/MSDK/wpa_supplicant/wpa_supplicant\driver_i.h **** static inline int wpa_drv_channel_info(struct wpa_supplicant *wpa_s,
 527:C:/Users/stapi/OneDrive/Desktop/GD32VW553/V1_MQTT_OK/GD32VW55X_Wifi_BLE_SDK/GD32VW55x_RELEASE_V1.0.2/MSDK/wpa_supplicant/wpa_supplicant\driver_i.h **** 				       struct wpa_channel_info *ci)
 528:C:/Users/stapi/OneDrive/Desktop/GD32VW553/V1_MQTT_OK/GD32VW55X_Wifi_BLE_SDK/GD32VW55x_RELEASE_V1.0.2/MSDK/wpa_supplicant/wpa_supplicant\driver_i.h **** {
 529:C:/Users/stapi/OneDrive/Desktop/GD32VW553/V1_MQTT_OK/GD32VW55X_Wifi_BLE_SDK/GD32VW55x_RELEASE_V1.0.2/MSDK/wpa_supplicant/wpa_supplicant\driver_i.h **** 	if (wpa_s->driver->channel_info)
 530:C:/Users/stapi/OneDrive/Desktop/GD32VW553/V1_MQTT_OK/GD32VW55X_Wifi_BLE_SDK/GD32VW55x_RELEASE_V1.0.2/MSDK/wpa_supplicant/wpa_supplicant\driver_i.h **** 		return wpa_s->driver->channel_info(wpa_s->drv_priv, ci);
 531:C:/Users/stapi/OneDrive/Desktop/GD32VW553/V1_MQTT_OK/GD32VW55X_Wifi_BLE_SDK/GD32VW55x_RELEASE_V1.0.2/MSDK/wpa_supplicant/wpa_supplicant\driver_i.h **** 	return -1;
 532:C:/Users/stapi/OneDrive/Desktop/GD32VW553/V1_MQTT_OK/GD32VW55X_Wifi_BLE_SDK/GD32VW55x_RELEASE_V1.0.2/MSDK/wpa_supplicant/wpa_supplicant\driver_i.h **** }
 533:C:/Users/stapi/OneDrive/Desktop/GD32VW553/V1_MQTT_OK/GD32VW55X_Wifi_BLE_SDK/GD32VW55x_RELEASE_V1.0.2/MSDK/wpa_supplicant/wpa_supplicant\driver_i.h **** 
 534:C:/Users/stapi/OneDrive/Desktop/GD32VW553/V1_MQTT_OK/GD32VW55X_Wifi_BLE_SDK/GD32VW55x_RELEASE_V1.0.2/MSDK/wpa_supplicant/wpa_supplicant\driver_i.h **** static inline int wpa_drv_pktcnt_poll(struct wpa_supplicant *wpa_s,
 535:C:/Users/stapi/OneDrive/Desktop/GD32VW553/V1_MQTT_OK/GD32VW55X_Wifi_BLE_SDK/GD32VW55x_RELEASE_V1.0.2/MSDK/wpa_supplicant/wpa_supplicant\driver_i.h **** 				      struct hostap_sta_driver_data *sta)
 536:C:/Users/stapi/OneDrive/Desktop/GD32VW553/V1_MQTT_OK/GD32VW55X_Wifi_BLE_SDK/GD32VW55x_RELEASE_V1.0.2/MSDK/wpa_supplicant/wpa_supplicant\driver_i.h **** {
 537:C:/Users/stapi/OneDrive/Desktop/GD32VW553/V1_MQTT_OK/GD32VW55X_Wifi_BLE_SDK/GD32VW55x_RELEASE_V1.0.2/MSDK/wpa_supplicant/wpa_supplicant\driver_i.h **** 	if (wpa_s->driver->read_sta_data)
 538:C:/Users/stapi/OneDrive/Desktop/GD32VW553/V1_MQTT_OK/GD32VW55X_Wifi_BLE_SDK/GD32VW55x_RELEASE_V1.0.2/MSDK/wpa_supplicant/wpa_supplicant\driver_i.h **** 		return wpa_s->driver->read_sta_data(wpa_s->drv_priv, sta,
 539:C:/Users/stapi/OneDrive/Desktop/GD32VW553/V1_MQTT_OK/GD32VW55X_Wifi_BLE_SDK/GD32VW55x_RELEASE_V1.0.2/MSDK/wpa_supplicant/wpa_supplicant\driver_i.h **** 						    wpa_s->bssid);
 540:C:/Users/stapi/OneDrive/Desktop/GD32VW553/V1_MQTT_OK/GD32VW55X_Wifi_BLE_SDK/GD32VW55x_RELEASE_V1.0.2/MSDK/wpa_supplicant/wpa_supplicant\driver_i.h **** 	return -1;
 541:C:/Users/stapi/OneDrive/Desktop/GD32VW553/V1_MQTT_OK/GD32VW55X_Wifi_BLE_SDK/GD32VW55x_RELEASE_V1.0.2/MSDK/wpa_supplicant/wpa_supplicant\driver_i.h **** }
 542:C:/Users/stapi/OneDrive/Desktop/GD32VW553/V1_MQTT_OK/GD32VW55X_Wifi_BLE_SDK/GD32VW55x_RELEASE_V1.0.2/MSDK/wpa_supplicant/wpa_supplicant\driver_i.h **** 
 543:C:/Users/stapi/OneDrive/Desktop/GD32VW553/V1_MQTT_OK/GD32VW55X_Wifi_BLE_SDK/GD32VW55x_RELEASE_V1.0.2/MSDK/wpa_supplicant/wpa_supplicant\driver_i.h **** static inline int wpa_drv_set_ap_wps_ie(struct wpa_supplicant *wpa_s,
 544:C:/Users/stapi/OneDrive/Desktop/GD32VW553/V1_MQTT_OK/GD32VW55X_Wifi_BLE_SDK/GD32VW55x_RELEASE_V1.0.2/MSDK/wpa_supplicant/wpa_supplicant\driver_i.h **** 					const struct wpabuf *beacon,
 545:C:/Users/stapi/OneDrive/Desktop/GD32VW553/V1_MQTT_OK/GD32VW55X_Wifi_BLE_SDK/GD32VW55x_RELEASE_V1.0.2/MSDK/wpa_supplicant/wpa_supplicant\driver_i.h **** 					const struct wpabuf *proberesp,
 546:C:/Users/stapi/OneDrive/Desktop/GD32VW553/V1_MQTT_OK/GD32VW55X_Wifi_BLE_SDK/GD32VW55x_RELEASE_V1.0.2/MSDK/wpa_supplicant/wpa_supplicant\driver_i.h **** 					const struct wpabuf *assocresp)
 547:C:/Users/stapi/OneDrive/Desktop/GD32VW553/V1_MQTT_OK/GD32VW55X_Wifi_BLE_SDK/GD32VW55x_RELEASE_V1.0.2/MSDK/wpa_supplicant/wpa_supplicant\driver_i.h **** {
 548:C:/Users/stapi/OneDrive/Desktop/GD32VW553/V1_MQTT_OK/GD32VW55X_Wifi_BLE_SDK/GD32VW55x_RELEASE_V1.0.2/MSDK/wpa_supplicant/wpa_supplicant\driver_i.h **** 	if (!wpa_s->driver->set_ap_wps_ie)
 549:C:/Users/stapi/OneDrive/Desktop/GD32VW553/V1_MQTT_OK/GD32VW55X_Wifi_BLE_SDK/GD32VW55x_RELEASE_V1.0.2/MSDK/wpa_supplicant/wpa_supplicant\driver_i.h **** 		return -1;
 550:C:/Users/stapi/OneDrive/Desktop/GD32VW553/V1_MQTT_OK/GD32VW55X_Wifi_BLE_SDK/GD32VW55x_RELEASE_V1.0.2/MSDK/wpa_supplicant/wpa_supplicant\driver_i.h **** 	return wpa_s->driver->set_ap_wps_ie(wpa_s->drv_priv, beacon,
 551:C:/Users/stapi/OneDrive/Desktop/GD32VW553/V1_MQTT_OK/GD32VW55X_Wifi_BLE_SDK/GD32VW55x_RELEASE_V1.0.2/MSDK/wpa_supplicant/wpa_supplicant\driver_i.h **** 					    proberesp, assocresp);
 552:C:/Users/stapi/OneDrive/Desktop/GD32VW553/V1_MQTT_OK/GD32VW55X_Wifi_BLE_SDK/GD32VW55x_RELEASE_V1.0.2/MSDK/wpa_supplicant/wpa_supplicant\driver_i.h **** }
 553:C:/Users/stapi/OneDrive/Desktop/GD32VW553/V1_MQTT_OK/GD32VW55X_Wifi_BLE_SDK/GD32VW55x_RELEASE_V1.0.2/MSDK/wpa_supplicant/wpa_supplicant\driver_i.h **** 
 554:C:/Users/stapi/OneDrive/Desktop/GD32VW553/V1_MQTT_OK/GD32VW55X_Wifi_BLE_SDK/GD32VW55x_RELEASE_V1.0.2/MSDK/wpa_supplicant/wpa_supplicant\driver_i.h **** static inline int wpa_drv_get_noa(struct wpa_supplicant *wpa_s,
 555:C:/Users/stapi/OneDrive/Desktop/GD32VW553/V1_MQTT_OK/GD32VW55X_Wifi_BLE_SDK/GD32VW55x_RELEASE_V1.0.2/MSDK/wpa_supplicant/wpa_supplicant\driver_i.h **** 				  u8 *buf, size_t buf_len)
 556:C:/Users/stapi/OneDrive/Desktop/GD32VW553/V1_MQTT_OK/GD32VW55X_Wifi_BLE_SDK/GD32VW55x_RELEASE_V1.0.2/MSDK/wpa_supplicant/wpa_supplicant\driver_i.h **** {
 557:C:/Users/stapi/OneDrive/Desktop/GD32VW553/V1_MQTT_OK/GD32VW55X_Wifi_BLE_SDK/GD32VW55x_RELEASE_V1.0.2/MSDK/wpa_supplicant/wpa_supplicant\driver_i.h **** 	if (!wpa_s->driver->get_noa)
 558:C:/Users/stapi/OneDrive/Desktop/GD32VW553/V1_MQTT_OK/GD32VW55X_Wifi_BLE_SDK/GD32VW55x_RELEASE_V1.0.2/MSDK/wpa_supplicant/wpa_supplicant\driver_i.h **** 		return -1;
 559:C:/Users/stapi/OneDrive/Desktop/GD32VW553/V1_MQTT_OK/GD32VW55X_Wifi_BLE_SDK/GD32VW55x_RELEASE_V1.0.2/MSDK/wpa_supplicant/wpa_supplicant\driver_i.h **** 	return wpa_s->driver->get_noa(wpa_s->drv_priv, buf, buf_len);
 560:C:/Users/stapi/OneDrive/Desktop/GD32VW553/V1_MQTT_OK/GD32VW55X_Wifi_BLE_SDK/GD32VW55x_RELEASE_V1.0.2/MSDK/wpa_supplicant/wpa_supplicant\driver_i.h **** }
 561:C:/Users/stapi/OneDrive/Desktop/GD32VW553/V1_MQTT_OK/GD32VW55X_Wifi_BLE_SDK/GD32VW55x_RELEASE_V1.0.2/MSDK/wpa_supplicant/wpa_supplicant\driver_i.h **** 
 562:C:/Users/stapi/OneDrive/Desktop/GD32VW553/V1_MQTT_OK/GD32VW55X_Wifi_BLE_SDK/GD32VW55x_RELEASE_V1.0.2/MSDK/wpa_supplicant/wpa_supplicant\driver_i.h **** static inline int wpa_drv_set_p2p_powersave(struct wpa_supplicant *wpa_s,
 563:C:/Users/stapi/OneDrive/Desktop/GD32VW553/V1_MQTT_OK/GD32VW55X_Wifi_BLE_SDK/GD32VW55x_RELEASE_V1.0.2/MSDK/wpa_supplicant/wpa_supplicant\driver_i.h **** 					    int legacy_ps, int opp_ps,
 564:C:/Users/stapi/OneDrive/Desktop/GD32VW553/V1_MQTT_OK/GD32VW55X_Wifi_BLE_SDK/GD32VW55x_RELEASE_V1.0.2/MSDK/wpa_supplicant/wpa_supplicant\driver_i.h **** 					    int ctwindow)
 565:C:/Users/stapi/OneDrive/Desktop/GD32VW553/V1_MQTT_OK/GD32VW55X_Wifi_BLE_SDK/GD32VW55x_RELEASE_V1.0.2/MSDK/wpa_supplicant/wpa_supplicant\driver_i.h **** {
 566:C:/Users/stapi/OneDrive/Desktop/GD32VW553/V1_MQTT_OK/GD32VW55X_Wifi_BLE_SDK/GD32VW55x_RELEASE_V1.0.2/MSDK/wpa_supplicant/wpa_supplicant\driver_i.h **** 	if (!wpa_s->driver->set_p2p_powersave)
 567:C:/Users/stapi/OneDrive/Desktop/GD32VW553/V1_MQTT_OK/GD32VW55X_Wifi_BLE_SDK/GD32VW55x_RELEASE_V1.0.2/MSDK/wpa_supplicant/wpa_supplicant\driver_i.h **** 		return -1;
 568:C:/Users/stapi/OneDrive/Desktop/GD32VW553/V1_MQTT_OK/GD32VW55X_Wifi_BLE_SDK/GD32VW55x_RELEASE_V1.0.2/MSDK/wpa_supplicant/wpa_supplicant\driver_i.h **** 	return wpa_s->driver->set_p2p_powersave(wpa_s->drv_priv, legacy_ps,
 569:C:/Users/stapi/OneDrive/Desktop/GD32VW553/V1_MQTT_OK/GD32VW55X_Wifi_BLE_SDK/GD32VW55x_RELEASE_V1.0.2/MSDK/wpa_supplicant/wpa_supplicant\driver_i.h **** 						opp_ps, ctwindow);
 570:C:/Users/stapi/OneDrive/Desktop/GD32VW553/V1_MQTT_OK/GD32VW55X_Wifi_BLE_SDK/GD32VW55x_RELEASE_V1.0.2/MSDK/wpa_supplicant/wpa_supplicant\driver_i.h **** }
 571:C:/Users/stapi/OneDrive/Desktop/GD32VW553/V1_MQTT_OK/GD32VW55X_Wifi_BLE_SDK/GD32VW55x_RELEASE_V1.0.2/MSDK/wpa_supplicant/wpa_supplicant\driver_i.h **** 
 572:C:/Users/stapi/OneDrive/Desktop/GD32VW553/V1_MQTT_OK/GD32VW55X_Wifi_BLE_SDK/GD32VW55x_RELEASE_V1.0.2/MSDK/wpa_supplicant/wpa_supplicant\driver_i.h **** static inline int wpa_drv_ampdu(struct wpa_supplicant *wpa_s, int ampdu)
 573:C:/Users/stapi/OneDrive/Desktop/GD32VW553/V1_MQTT_OK/GD32VW55X_Wifi_BLE_SDK/GD32VW55x_RELEASE_V1.0.2/MSDK/wpa_supplicant/wpa_supplicant\driver_i.h **** {
 574:C:/Users/stapi/OneDrive/Desktop/GD32VW553/V1_MQTT_OK/GD32VW55X_Wifi_BLE_SDK/GD32VW55x_RELEASE_V1.0.2/MSDK/wpa_supplicant/wpa_supplicant\driver_i.h **** 	if (!wpa_s->driver->ampdu)
 575:C:/Users/stapi/OneDrive/Desktop/GD32VW553/V1_MQTT_OK/GD32VW55X_Wifi_BLE_SDK/GD32VW55x_RELEASE_V1.0.2/MSDK/wpa_supplicant/wpa_supplicant\driver_i.h **** 		return -1;
 576:C:/Users/stapi/OneDrive/Desktop/GD32VW553/V1_MQTT_OK/GD32VW55X_Wifi_BLE_SDK/GD32VW55x_RELEASE_V1.0.2/MSDK/wpa_supplicant/wpa_supplicant\driver_i.h **** 	return wpa_s->driver->ampdu(wpa_s->drv_priv, ampdu);
 577:C:/Users/stapi/OneDrive/Desktop/GD32VW553/V1_MQTT_OK/GD32VW55X_Wifi_BLE_SDK/GD32VW55x_RELEASE_V1.0.2/MSDK/wpa_supplicant/wpa_supplicant\driver_i.h **** }
 578:C:/Users/stapi/OneDrive/Desktop/GD32VW553/V1_MQTT_OK/GD32VW55X_Wifi_BLE_SDK/GD32VW55x_RELEASE_V1.0.2/MSDK/wpa_supplicant/wpa_supplicant\driver_i.h **** 
 579:C:/Users/stapi/OneDrive/Desktop/GD32VW553/V1_MQTT_OK/GD32VW55X_Wifi_BLE_SDK/GD32VW55x_RELEASE_V1.0.2/MSDK/wpa_supplicant/wpa_supplicant\driver_i.h **** static inline int wpa_drv_send_tdls_mgmt(struct wpa_supplicant *wpa_s,
 580:C:/Users/stapi/OneDrive/Desktop/GD32VW553/V1_MQTT_OK/GD32VW55X_Wifi_BLE_SDK/GD32VW55x_RELEASE_V1.0.2/MSDK/wpa_supplicant/wpa_supplicant\driver_i.h **** 					 const u8 *dst, u8 action_code,
 581:C:/Users/stapi/OneDrive/Desktop/GD32VW553/V1_MQTT_OK/GD32VW55X_Wifi_BLE_SDK/GD32VW55x_RELEASE_V1.0.2/MSDK/wpa_supplicant/wpa_supplicant\driver_i.h **** 					 u8 dialog_token, u16 status_code,
 582:C:/Users/stapi/OneDrive/Desktop/GD32VW553/V1_MQTT_OK/GD32VW55X_Wifi_BLE_SDK/GD32VW55x_RELEASE_V1.0.2/MSDK/wpa_supplicant/wpa_supplicant\driver_i.h **** 					 u32 peer_capab, int initiator,
 583:C:/Users/stapi/OneDrive/Desktop/GD32VW553/V1_MQTT_OK/GD32VW55X_Wifi_BLE_SDK/GD32VW55x_RELEASE_V1.0.2/MSDK/wpa_supplicant/wpa_supplicant\driver_i.h **** 					 const u8 *buf, size_t len)
 584:C:/Users/stapi/OneDrive/Desktop/GD32VW553/V1_MQTT_OK/GD32VW55X_Wifi_BLE_SDK/GD32VW55x_RELEASE_V1.0.2/MSDK/wpa_supplicant/wpa_supplicant\driver_i.h **** {
 585:C:/Users/stapi/OneDrive/Desktop/GD32VW553/V1_MQTT_OK/GD32VW55X_Wifi_BLE_SDK/GD32VW55x_RELEASE_V1.0.2/MSDK/wpa_supplicant/wpa_supplicant\driver_i.h **** 	if (wpa_s->driver->send_tdls_mgmt) {
 586:C:/Users/stapi/OneDrive/Desktop/GD32VW553/V1_MQTT_OK/GD32VW55X_Wifi_BLE_SDK/GD32VW55x_RELEASE_V1.0.2/MSDK/wpa_supplicant/wpa_supplicant\driver_i.h **** 		return wpa_s->driver->send_tdls_mgmt(wpa_s->drv_priv, dst,
 587:C:/Users/stapi/OneDrive/Desktop/GD32VW553/V1_MQTT_OK/GD32VW55X_Wifi_BLE_SDK/GD32VW55x_RELEASE_V1.0.2/MSDK/wpa_supplicant/wpa_supplicant\driver_i.h **** 						     action_code, dialog_token,
 588:C:/Users/stapi/OneDrive/Desktop/GD32VW553/V1_MQTT_OK/GD32VW55X_Wifi_BLE_SDK/GD32VW55x_RELEASE_V1.0.2/MSDK/wpa_supplicant/wpa_supplicant\driver_i.h **** 						     status_code, peer_capab,
 589:C:/Users/stapi/OneDrive/Desktop/GD32VW553/V1_MQTT_OK/GD32VW55X_Wifi_BLE_SDK/GD32VW55x_RELEASE_V1.0.2/MSDK/wpa_supplicant/wpa_supplicant\driver_i.h **** 						     initiator, buf, len);
 590:C:/Users/stapi/OneDrive/Desktop/GD32VW553/V1_MQTT_OK/GD32VW55X_Wifi_BLE_SDK/GD32VW55x_RELEASE_V1.0.2/MSDK/wpa_supplicant/wpa_supplicant\driver_i.h **** 	}
 591:C:/Users/stapi/OneDrive/Desktop/GD32VW553/V1_MQTT_OK/GD32VW55X_Wifi_BLE_SDK/GD32VW55x_RELEASE_V1.0.2/MSDK/wpa_supplicant/wpa_supplicant\driver_i.h **** 	return -1;
 592:C:/Users/stapi/OneDrive/Desktop/GD32VW553/V1_MQTT_OK/GD32VW55X_Wifi_BLE_SDK/GD32VW55x_RELEASE_V1.0.2/MSDK/wpa_supplicant/wpa_supplicant\driver_i.h **** }
 593:C:/Users/stapi/OneDrive/Desktop/GD32VW553/V1_MQTT_OK/GD32VW55X_Wifi_BLE_SDK/GD32VW55x_RELEASE_V1.0.2/MSDK/wpa_supplicant/wpa_supplicant\driver_i.h **** 
 594:C:/Users/stapi/OneDrive/Desktop/GD32VW553/V1_MQTT_OK/GD32VW55X_Wifi_BLE_SDK/GD32VW55x_RELEASE_V1.0.2/MSDK/wpa_supplicant/wpa_supplicant\driver_i.h **** static inline int wpa_drv_tdls_oper(struct wpa_supplicant *wpa_s,
 595:C:/Users/stapi/OneDrive/Desktop/GD32VW553/V1_MQTT_OK/GD32VW55X_Wifi_BLE_SDK/GD32VW55x_RELEASE_V1.0.2/MSDK/wpa_supplicant/wpa_supplicant\driver_i.h **** 				    enum tdls_oper oper, const u8 *peer)
 596:C:/Users/stapi/OneDrive/Desktop/GD32VW553/V1_MQTT_OK/GD32VW55X_Wifi_BLE_SDK/GD32VW55x_RELEASE_V1.0.2/MSDK/wpa_supplicant/wpa_supplicant\driver_i.h **** {
 597:C:/Users/stapi/OneDrive/Desktop/GD32VW553/V1_MQTT_OK/GD32VW55X_Wifi_BLE_SDK/GD32VW55x_RELEASE_V1.0.2/MSDK/wpa_supplicant/wpa_supplicant\driver_i.h **** 	if (!wpa_s->driver->tdls_oper)
 598:C:/Users/stapi/OneDrive/Desktop/GD32VW553/V1_MQTT_OK/GD32VW55X_Wifi_BLE_SDK/GD32VW55x_RELEASE_V1.0.2/MSDK/wpa_supplicant/wpa_supplicant\driver_i.h **** 		return -1;
 599:C:/Users/stapi/OneDrive/Desktop/GD32VW553/V1_MQTT_OK/GD32VW55X_Wifi_BLE_SDK/GD32VW55x_RELEASE_V1.0.2/MSDK/wpa_supplicant/wpa_supplicant\driver_i.h **** 	return wpa_s->driver->tdls_oper(wpa_s->drv_priv, oper, peer);
 600:C:/Users/stapi/OneDrive/Desktop/GD32VW553/V1_MQTT_OK/GD32VW55X_Wifi_BLE_SDK/GD32VW55x_RELEASE_V1.0.2/MSDK/wpa_supplicant/wpa_supplicant\driver_i.h **** }
 601:C:/Users/stapi/OneDrive/Desktop/GD32VW553/V1_MQTT_OK/GD32VW55X_Wifi_BLE_SDK/GD32VW55x_RELEASE_V1.0.2/MSDK/wpa_supplicant/wpa_supplicant\driver_i.h **** 
 602:C:/Users/stapi/OneDrive/Desktop/GD32VW553/V1_MQTT_OK/GD32VW55X_Wifi_BLE_SDK/GD32VW55x_RELEASE_V1.0.2/MSDK/wpa_supplicant/wpa_supplicant\driver_i.h **** #ifdef ANDROID
 603:C:/Users/stapi/OneDrive/Desktop/GD32VW553/V1_MQTT_OK/GD32VW55X_Wifi_BLE_SDK/GD32VW55x_RELEASE_V1.0.2/MSDK/wpa_supplicant/wpa_supplicant\driver_i.h **** static inline int wpa_drv_driver_cmd(struct wpa_supplicant *wpa_s,
 604:C:/Users/stapi/OneDrive/Desktop/GD32VW553/V1_MQTT_OK/GD32VW55X_Wifi_BLE_SDK/GD32VW55x_RELEASE_V1.0.2/MSDK/wpa_supplicant/wpa_supplicant\driver_i.h **** 				     char *cmd, char *buf, size_t buf_len)
 605:C:/Users/stapi/OneDrive/Desktop/GD32VW553/V1_MQTT_OK/GD32VW55X_Wifi_BLE_SDK/GD32VW55x_RELEASE_V1.0.2/MSDK/wpa_supplicant/wpa_supplicant\driver_i.h **** {
 606:C:/Users/stapi/OneDrive/Desktop/GD32VW553/V1_MQTT_OK/GD32VW55X_Wifi_BLE_SDK/GD32VW55x_RELEASE_V1.0.2/MSDK/wpa_supplicant/wpa_supplicant\driver_i.h **** 	if (!wpa_s->driver->driver_cmd)
 607:C:/Users/stapi/OneDrive/Desktop/GD32VW553/V1_MQTT_OK/GD32VW55X_Wifi_BLE_SDK/GD32VW55x_RELEASE_V1.0.2/MSDK/wpa_supplicant/wpa_supplicant\driver_i.h **** 		return -1;
 608:C:/Users/stapi/OneDrive/Desktop/GD32VW553/V1_MQTT_OK/GD32VW55X_Wifi_BLE_SDK/GD32VW55x_RELEASE_V1.0.2/MSDK/wpa_supplicant/wpa_supplicant\driver_i.h **** 	return wpa_s->driver->driver_cmd(wpa_s->drv_priv, cmd, buf, buf_len);
 609:C:/Users/stapi/OneDrive/Desktop/GD32VW553/V1_MQTT_OK/GD32VW55X_Wifi_BLE_SDK/GD32VW55x_RELEASE_V1.0.2/MSDK/wpa_supplicant/wpa_supplicant\driver_i.h **** }
 610:C:/Users/stapi/OneDrive/Desktop/GD32VW553/V1_MQTT_OK/GD32VW55X_Wifi_BLE_SDK/GD32VW55x_RELEASE_V1.0.2/MSDK/wpa_supplicant/wpa_supplicant\driver_i.h **** #endif /* ANDROID */
 611:C:/Users/stapi/OneDrive/Desktop/GD32VW553/V1_MQTT_OK/GD32VW55X_Wifi_BLE_SDK/GD32VW55x_RELEASE_V1.0.2/MSDK/wpa_supplicant/wpa_supplicant\driver_i.h **** 
 612:C:/Users/stapi/OneDrive/Desktop/GD32VW553/V1_MQTT_OK/GD32VW55X_Wifi_BLE_SDK/GD32VW55x_RELEASE_V1.0.2/MSDK/wpa_supplicant/wpa_supplicant\driver_i.h **** static inline void wpa_drv_set_rekey_info(struct wpa_supplicant *wpa_s,
 613:C:/Users/stapi/OneDrive/Desktop/GD32VW553/V1_MQTT_OK/GD32VW55X_Wifi_BLE_SDK/GD32VW55x_RELEASE_V1.0.2/MSDK/wpa_supplicant/wpa_supplicant\driver_i.h **** 					  const u8 *kek, size_t kek_len,
 614:C:/Users/stapi/OneDrive/Desktop/GD32VW553/V1_MQTT_OK/GD32VW55X_Wifi_BLE_SDK/GD32VW55x_RELEASE_V1.0.2/MSDK/wpa_supplicant/wpa_supplicant\driver_i.h **** 					  const u8 *kck, size_t kck_len,
 615:C:/Users/stapi/OneDrive/Desktop/GD32VW553/V1_MQTT_OK/GD32VW55X_Wifi_BLE_SDK/GD32VW55x_RELEASE_V1.0.2/MSDK/wpa_supplicant/wpa_supplicant\driver_i.h **** 					  const u8 *replay_ctr)
 616:C:/Users/stapi/OneDrive/Desktop/GD32VW553/V1_MQTT_OK/GD32VW55X_Wifi_BLE_SDK/GD32VW55x_RELEASE_V1.0.2/MSDK/wpa_supplicant/wpa_supplicant\driver_i.h **** {
 617:C:/Users/stapi/OneDrive/Desktop/GD32VW553/V1_MQTT_OK/GD32VW55X_Wifi_BLE_SDK/GD32VW55x_RELEASE_V1.0.2/MSDK/wpa_supplicant/wpa_supplicant\driver_i.h **** 	if (!wpa_s->driver->set_rekey_info)
 618:C:/Users/stapi/OneDrive/Desktop/GD32VW553/V1_MQTT_OK/GD32VW55X_Wifi_BLE_SDK/GD32VW55x_RELEASE_V1.0.2/MSDK/wpa_supplicant/wpa_supplicant\driver_i.h **** 		return;
 619:C:/Users/stapi/OneDrive/Desktop/GD32VW553/V1_MQTT_OK/GD32VW55X_Wifi_BLE_SDK/GD32VW55x_RELEASE_V1.0.2/MSDK/wpa_supplicant/wpa_supplicant\driver_i.h **** 	wpa_s->driver->set_rekey_info(wpa_s->drv_priv, kek, kek_len,
 620:C:/Users/stapi/OneDrive/Desktop/GD32VW553/V1_MQTT_OK/GD32VW55X_Wifi_BLE_SDK/GD32VW55x_RELEASE_V1.0.2/MSDK/wpa_supplicant/wpa_supplicant\driver_i.h **** 				      kck, kck_len, replay_ctr);
 621:C:/Users/stapi/OneDrive/Desktop/GD32VW553/V1_MQTT_OK/GD32VW55X_Wifi_BLE_SDK/GD32VW55x_RELEASE_V1.0.2/MSDK/wpa_supplicant/wpa_supplicant\driver_i.h **** }
 622:C:/Users/stapi/OneDrive/Desktop/GD32VW553/V1_MQTT_OK/GD32VW55X_Wifi_BLE_SDK/GD32VW55x_RELEASE_V1.0.2/MSDK/wpa_supplicant/wpa_supplicant\driver_i.h **** 
 623:C:/Users/stapi/OneDrive/Desktop/GD32VW553/V1_MQTT_OK/GD32VW55X_Wifi_BLE_SDK/GD32VW55x_RELEASE_V1.0.2/MSDK/wpa_supplicant/wpa_supplicant\driver_i.h **** static inline int wpa_drv_radio_disable(struct wpa_supplicant *wpa_s,
 624:C:/Users/stapi/OneDrive/Desktop/GD32VW553/V1_MQTT_OK/GD32VW55X_Wifi_BLE_SDK/GD32VW55x_RELEASE_V1.0.2/MSDK/wpa_supplicant/wpa_supplicant\driver_i.h **** 					int disabled)
 625:C:/Users/stapi/OneDrive/Desktop/GD32VW553/V1_MQTT_OK/GD32VW55X_Wifi_BLE_SDK/GD32VW55x_RELEASE_V1.0.2/MSDK/wpa_supplicant/wpa_supplicant\driver_i.h **** {
 626:C:/Users/stapi/OneDrive/Desktop/GD32VW553/V1_MQTT_OK/GD32VW55X_Wifi_BLE_SDK/GD32VW55x_RELEASE_V1.0.2/MSDK/wpa_supplicant/wpa_supplicant\driver_i.h **** 	if (!wpa_s->driver->radio_disable)
 627:C:/Users/stapi/OneDrive/Desktop/GD32VW553/V1_MQTT_OK/GD32VW55X_Wifi_BLE_SDK/GD32VW55x_RELEASE_V1.0.2/MSDK/wpa_supplicant/wpa_supplicant\driver_i.h **** 		return -1;
 628:C:/Users/stapi/OneDrive/Desktop/GD32VW553/V1_MQTT_OK/GD32VW55X_Wifi_BLE_SDK/GD32VW55x_RELEASE_V1.0.2/MSDK/wpa_supplicant/wpa_supplicant\driver_i.h **** 	return wpa_s->driver->radio_disable(wpa_s->drv_priv, disabled);
 629:C:/Users/stapi/OneDrive/Desktop/GD32VW553/V1_MQTT_OK/GD32VW55X_Wifi_BLE_SDK/GD32VW55x_RELEASE_V1.0.2/MSDK/wpa_supplicant/wpa_supplicant\driver_i.h **** }
 630:C:/Users/stapi/OneDrive/Desktop/GD32VW553/V1_MQTT_OK/GD32VW55X_Wifi_BLE_SDK/GD32VW55x_RELEASE_V1.0.2/MSDK/wpa_supplicant/wpa_supplicant\driver_i.h **** 
 631:C:/Users/stapi/OneDrive/Desktop/GD32VW553/V1_MQTT_OK/GD32VW55X_Wifi_BLE_SDK/GD32VW55x_RELEASE_V1.0.2/MSDK/wpa_supplicant/wpa_supplicant\driver_i.h **** static inline int wpa_drv_switch_channel(struct wpa_supplicant *wpa_s,
 632:C:/Users/stapi/OneDrive/Desktop/GD32VW553/V1_MQTT_OK/GD32VW55X_Wifi_BLE_SDK/GD32VW55x_RELEASE_V1.0.2/MSDK/wpa_supplicant/wpa_supplicant\driver_i.h **** 					 struct csa_settings *settings)
 633:C:/Users/stapi/OneDrive/Desktop/GD32VW553/V1_MQTT_OK/GD32VW55X_Wifi_BLE_SDK/GD32VW55x_RELEASE_V1.0.2/MSDK/wpa_supplicant/wpa_supplicant\driver_i.h **** {
 634:C:/Users/stapi/OneDrive/Desktop/GD32VW553/V1_MQTT_OK/GD32VW55X_Wifi_BLE_SDK/GD32VW55x_RELEASE_V1.0.2/MSDK/wpa_supplicant/wpa_supplicant\driver_i.h **** 	if (!wpa_s->driver->switch_channel)
 635:C:/Users/stapi/OneDrive/Desktop/GD32VW553/V1_MQTT_OK/GD32VW55X_Wifi_BLE_SDK/GD32VW55x_RELEASE_V1.0.2/MSDK/wpa_supplicant/wpa_supplicant\driver_i.h **** 		return -1;
 636:C:/Users/stapi/OneDrive/Desktop/GD32VW553/V1_MQTT_OK/GD32VW55X_Wifi_BLE_SDK/GD32VW55x_RELEASE_V1.0.2/MSDK/wpa_supplicant/wpa_supplicant\driver_i.h **** 	return wpa_s->driver->switch_channel(wpa_s->drv_priv, settings);
 637:C:/Users/stapi/OneDrive/Desktop/GD32VW553/V1_MQTT_OK/GD32VW55X_Wifi_BLE_SDK/GD32VW55x_RELEASE_V1.0.2/MSDK/wpa_supplicant/wpa_supplicant\driver_i.h **** }
 638:C:/Users/stapi/OneDrive/Desktop/GD32VW553/V1_MQTT_OK/GD32VW55X_Wifi_BLE_SDK/GD32VW55x_RELEASE_V1.0.2/MSDK/wpa_supplicant/wpa_supplicant\driver_i.h **** 
 639:C:/Users/stapi/OneDrive/Desktop/GD32VW553/V1_MQTT_OK/GD32VW55X_Wifi_BLE_SDK/GD32VW55x_RELEASE_V1.0.2/MSDK/wpa_supplicant/wpa_supplicant\driver_i.h **** static inline int wpa_drv_add_ts(struct wpa_supplicant *wpa_s, u8 tsid,
 640:C:/Users/stapi/OneDrive/Desktop/GD32VW553/V1_MQTT_OK/GD32VW55X_Wifi_BLE_SDK/GD32VW55x_RELEASE_V1.0.2/MSDK/wpa_supplicant/wpa_supplicant\driver_i.h **** 				 const u8 *address, u8 user_priority,
 641:C:/Users/stapi/OneDrive/Desktop/GD32VW553/V1_MQTT_OK/GD32VW55X_Wifi_BLE_SDK/GD32VW55x_RELEASE_V1.0.2/MSDK/wpa_supplicant/wpa_supplicant\driver_i.h **** 				 u16 admitted_time)
 642:C:/Users/stapi/OneDrive/Desktop/GD32VW553/V1_MQTT_OK/GD32VW55X_Wifi_BLE_SDK/GD32VW55x_RELEASE_V1.0.2/MSDK/wpa_supplicant/wpa_supplicant\driver_i.h **** {
 643:C:/Users/stapi/OneDrive/Desktop/GD32VW553/V1_MQTT_OK/GD32VW55X_Wifi_BLE_SDK/GD32VW55x_RELEASE_V1.0.2/MSDK/wpa_supplicant/wpa_supplicant\driver_i.h **** 	if (!wpa_s->driver->add_tx_ts)
 644:C:/Users/stapi/OneDrive/Desktop/GD32VW553/V1_MQTT_OK/GD32VW55X_Wifi_BLE_SDK/GD32VW55x_RELEASE_V1.0.2/MSDK/wpa_supplicant/wpa_supplicant\driver_i.h **** 		return -1;
 645:C:/Users/stapi/OneDrive/Desktop/GD32VW553/V1_MQTT_OK/GD32VW55X_Wifi_BLE_SDK/GD32VW55x_RELEASE_V1.0.2/MSDK/wpa_supplicant/wpa_supplicant\driver_i.h **** 	return wpa_s->driver->add_tx_ts(wpa_s->drv_priv, tsid, address,
 646:C:/Users/stapi/OneDrive/Desktop/GD32VW553/V1_MQTT_OK/GD32VW55X_Wifi_BLE_SDK/GD32VW55x_RELEASE_V1.0.2/MSDK/wpa_supplicant/wpa_supplicant\driver_i.h **** 					user_priority, admitted_time);
 647:C:/Users/stapi/OneDrive/Desktop/GD32VW553/V1_MQTT_OK/GD32VW55X_Wifi_BLE_SDK/GD32VW55x_RELEASE_V1.0.2/MSDK/wpa_supplicant/wpa_supplicant\driver_i.h **** }
 648:C:/Users/stapi/OneDrive/Desktop/GD32VW553/V1_MQTT_OK/GD32VW55X_Wifi_BLE_SDK/GD32VW55x_RELEASE_V1.0.2/MSDK/wpa_supplicant/wpa_supplicant\driver_i.h **** 
 649:C:/Users/stapi/OneDrive/Desktop/GD32VW553/V1_MQTT_OK/GD32VW55X_Wifi_BLE_SDK/GD32VW55x_RELEASE_V1.0.2/MSDK/wpa_supplicant/wpa_supplicant\driver_i.h **** static inline int wpa_drv_del_ts(struct wpa_supplicant *wpa_s, u8 tid,
 650:C:/Users/stapi/OneDrive/Desktop/GD32VW553/V1_MQTT_OK/GD32VW55X_Wifi_BLE_SDK/GD32VW55x_RELEASE_V1.0.2/MSDK/wpa_supplicant/wpa_supplicant\driver_i.h **** 				 const u8 *address)
 651:C:/Users/stapi/OneDrive/Desktop/GD32VW553/V1_MQTT_OK/GD32VW55X_Wifi_BLE_SDK/GD32VW55x_RELEASE_V1.0.2/MSDK/wpa_supplicant/wpa_supplicant\driver_i.h **** {
 652:C:/Users/stapi/OneDrive/Desktop/GD32VW553/V1_MQTT_OK/GD32VW55X_Wifi_BLE_SDK/GD32VW55x_RELEASE_V1.0.2/MSDK/wpa_supplicant/wpa_supplicant\driver_i.h **** 	if (!wpa_s->driver->del_tx_ts)
 653:C:/Users/stapi/OneDrive/Desktop/GD32VW553/V1_MQTT_OK/GD32VW55X_Wifi_BLE_SDK/GD32VW55x_RELEASE_V1.0.2/MSDK/wpa_supplicant/wpa_supplicant\driver_i.h **** 		return -1;
 654:C:/Users/stapi/OneDrive/Desktop/GD32VW553/V1_MQTT_OK/GD32VW55X_Wifi_BLE_SDK/GD32VW55x_RELEASE_V1.0.2/MSDK/wpa_supplicant/wpa_supplicant\driver_i.h **** 	return wpa_s->driver->del_tx_ts(wpa_s->drv_priv, tid, address);
 655:C:/Users/stapi/OneDrive/Desktop/GD32VW553/V1_MQTT_OK/GD32VW55X_Wifi_BLE_SDK/GD32VW55x_RELEASE_V1.0.2/MSDK/wpa_supplicant/wpa_supplicant\driver_i.h **** }
 656:C:/Users/stapi/OneDrive/Desktop/GD32VW553/V1_MQTT_OK/GD32VW55X_Wifi_BLE_SDK/GD32VW55x_RELEASE_V1.0.2/MSDK/wpa_supplicant/wpa_supplicant\driver_i.h **** 
 657:C:/Users/stapi/OneDrive/Desktop/GD32VW553/V1_MQTT_OK/GD32VW55X_Wifi_BLE_SDK/GD32VW55x_RELEASE_V1.0.2/MSDK/wpa_supplicant/wpa_supplicant\driver_i.h **** static inline int wpa_drv_tdls_enable_channel_switch(
 658:C:/Users/stapi/OneDrive/Desktop/GD32VW553/V1_MQTT_OK/GD32VW55X_Wifi_BLE_SDK/GD32VW55x_RELEASE_V1.0.2/MSDK/wpa_supplicant/wpa_supplicant\driver_i.h **** 	struct wpa_supplicant *wpa_s, const u8 *addr, u8 oper_class,
 659:C:/Users/stapi/OneDrive/Desktop/GD32VW553/V1_MQTT_OK/GD32VW55X_Wifi_BLE_SDK/GD32VW55x_RELEASE_V1.0.2/MSDK/wpa_supplicant/wpa_supplicant\driver_i.h **** 	const struct hostapd_freq_params *freq_params)
 660:C:/Users/stapi/OneDrive/Desktop/GD32VW553/V1_MQTT_OK/GD32VW55X_Wifi_BLE_SDK/GD32VW55x_RELEASE_V1.0.2/MSDK/wpa_supplicant/wpa_supplicant\driver_i.h **** {
 661:C:/Users/stapi/OneDrive/Desktop/GD32VW553/V1_MQTT_OK/GD32VW55X_Wifi_BLE_SDK/GD32VW55x_RELEASE_V1.0.2/MSDK/wpa_supplicant/wpa_supplicant\driver_i.h **** 	if (!wpa_s->driver->tdls_enable_channel_switch)
 662:C:/Users/stapi/OneDrive/Desktop/GD32VW553/V1_MQTT_OK/GD32VW55X_Wifi_BLE_SDK/GD32VW55x_RELEASE_V1.0.2/MSDK/wpa_supplicant/wpa_supplicant\driver_i.h **** 		return -1;
 663:C:/Users/stapi/OneDrive/Desktop/GD32VW553/V1_MQTT_OK/GD32VW55X_Wifi_BLE_SDK/GD32VW55x_RELEASE_V1.0.2/MSDK/wpa_supplicant/wpa_supplicant\driver_i.h **** 	return wpa_s->driver->tdls_enable_channel_switch(wpa_s->drv_priv, addr,
 664:C:/Users/stapi/OneDrive/Desktop/GD32VW553/V1_MQTT_OK/GD32VW55X_Wifi_BLE_SDK/GD32VW55x_RELEASE_V1.0.2/MSDK/wpa_supplicant/wpa_supplicant\driver_i.h **** 							 oper_class,
 665:C:/Users/stapi/OneDrive/Desktop/GD32VW553/V1_MQTT_OK/GD32VW55X_Wifi_BLE_SDK/GD32VW55x_RELEASE_V1.0.2/MSDK/wpa_supplicant/wpa_supplicant\driver_i.h **** 							 freq_params);
 666:C:/Users/stapi/OneDrive/Desktop/GD32VW553/V1_MQTT_OK/GD32VW55X_Wifi_BLE_SDK/GD32VW55x_RELEASE_V1.0.2/MSDK/wpa_supplicant/wpa_supplicant\driver_i.h **** }
 667:C:/Users/stapi/OneDrive/Desktop/GD32VW553/V1_MQTT_OK/GD32VW55X_Wifi_BLE_SDK/GD32VW55x_RELEASE_V1.0.2/MSDK/wpa_supplicant/wpa_supplicant\driver_i.h **** 
 668:C:/Users/stapi/OneDrive/Desktop/GD32VW553/V1_MQTT_OK/GD32VW55X_Wifi_BLE_SDK/GD32VW55x_RELEASE_V1.0.2/MSDK/wpa_supplicant/wpa_supplicant\driver_i.h **** static inline int
 669:C:/Users/stapi/OneDrive/Desktop/GD32VW553/V1_MQTT_OK/GD32VW55X_Wifi_BLE_SDK/GD32VW55x_RELEASE_V1.0.2/MSDK/wpa_supplicant/wpa_supplicant\driver_i.h **** wpa_drv_tdls_disable_channel_switch(struct wpa_supplicant *wpa_s,
 670:C:/Users/stapi/OneDrive/Desktop/GD32VW553/V1_MQTT_OK/GD32VW55X_Wifi_BLE_SDK/GD32VW55x_RELEASE_V1.0.2/MSDK/wpa_supplicant/wpa_supplicant\driver_i.h **** 				    const u8 *addr)
 671:C:/Users/stapi/OneDrive/Desktop/GD32VW553/V1_MQTT_OK/GD32VW55X_Wifi_BLE_SDK/GD32VW55x_RELEASE_V1.0.2/MSDK/wpa_supplicant/wpa_supplicant\driver_i.h **** {
 672:C:/Users/stapi/OneDrive/Desktop/GD32VW553/V1_MQTT_OK/GD32VW55X_Wifi_BLE_SDK/GD32VW55x_RELEASE_V1.0.2/MSDK/wpa_supplicant/wpa_supplicant\driver_i.h **** 	if (!wpa_s->driver->tdls_disable_channel_switch)
 673:C:/Users/stapi/OneDrive/Desktop/GD32VW553/V1_MQTT_OK/GD32VW55X_Wifi_BLE_SDK/GD32VW55x_RELEASE_V1.0.2/MSDK/wpa_supplicant/wpa_supplicant\driver_i.h **** 		return -1;
 674:C:/Users/stapi/OneDrive/Desktop/GD32VW553/V1_MQTT_OK/GD32VW55X_Wifi_BLE_SDK/GD32VW55x_RELEASE_V1.0.2/MSDK/wpa_supplicant/wpa_supplicant\driver_i.h **** 	return wpa_s->driver->tdls_disable_channel_switch(wpa_s->drv_priv,
 675:C:/Users/stapi/OneDrive/Desktop/GD32VW553/V1_MQTT_OK/GD32VW55X_Wifi_BLE_SDK/GD32VW55x_RELEASE_V1.0.2/MSDK/wpa_supplicant/wpa_supplicant\driver_i.h **** 							  addr);
 676:C:/Users/stapi/OneDrive/Desktop/GD32VW553/V1_MQTT_OK/GD32VW55X_Wifi_BLE_SDK/GD32VW55x_RELEASE_V1.0.2/MSDK/wpa_supplicant/wpa_supplicant\driver_i.h **** }
 677:C:/Users/stapi/OneDrive/Desktop/GD32VW553/V1_MQTT_OK/GD32VW55X_Wifi_BLE_SDK/GD32VW55x_RELEASE_V1.0.2/MSDK/wpa_supplicant/wpa_supplicant\driver_i.h **** 
 678:C:/Users/stapi/OneDrive/Desktop/GD32VW553/V1_MQTT_OK/GD32VW55X_Wifi_BLE_SDK/GD32VW55x_RELEASE_V1.0.2/MSDK/wpa_supplicant/wpa_supplicant\driver_i.h **** static inline int wpa_drv_wnm_oper(struct wpa_supplicant *wpa_s,
 679:C:/Users/stapi/OneDrive/Desktop/GD32VW553/V1_MQTT_OK/GD32VW55X_Wifi_BLE_SDK/GD32VW55x_RELEASE_V1.0.2/MSDK/wpa_supplicant/wpa_supplicant\driver_i.h **** 				   enum wnm_oper oper, const u8 *peer,
 680:C:/Users/stapi/OneDrive/Desktop/GD32VW553/V1_MQTT_OK/GD32VW55X_Wifi_BLE_SDK/GD32VW55x_RELEASE_V1.0.2/MSDK/wpa_supplicant/wpa_supplicant\driver_i.h **** 				   u8 *buf, u16 *buf_len)
 681:C:/Users/stapi/OneDrive/Desktop/GD32VW553/V1_MQTT_OK/GD32VW55X_Wifi_BLE_SDK/GD32VW55x_RELEASE_V1.0.2/MSDK/wpa_supplicant/wpa_supplicant\driver_i.h **** {
 682:C:/Users/stapi/OneDrive/Desktop/GD32VW553/V1_MQTT_OK/GD32VW55X_Wifi_BLE_SDK/GD32VW55x_RELEASE_V1.0.2/MSDK/wpa_supplicant/wpa_supplicant\driver_i.h **** 	if (!wpa_s->driver->wnm_oper)
 683:C:/Users/stapi/OneDrive/Desktop/GD32VW553/V1_MQTT_OK/GD32VW55X_Wifi_BLE_SDK/GD32VW55x_RELEASE_V1.0.2/MSDK/wpa_supplicant/wpa_supplicant\driver_i.h **** 		return -1;
 684:C:/Users/stapi/OneDrive/Desktop/GD32VW553/V1_MQTT_OK/GD32VW55X_Wifi_BLE_SDK/GD32VW55x_RELEASE_V1.0.2/MSDK/wpa_supplicant/wpa_supplicant\driver_i.h **** 	return wpa_s->driver->wnm_oper(wpa_s->drv_priv, oper, peer, buf,
 685:C:/Users/stapi/OneDrive/Desktop/GD32VW553/V1_MQTT_OK/GD32VW55X_Wifi_BLE_SDK/GD32VW55x_RELEASE_V1.0.2/MSDK/wpa_supplicant/wpa_supplicant\driver_i.h **** 				       buf_len);
 686:C:/Users/stapi/OneDrive/Desktop/GD32VW553/V1_MQTT_OK/GD32VW55X_Wifi_BLE_SDK/GD32VW55x_RELEASE_V1.0.2/MSDK/wpa_supplicant/wpa_supplicant\driver_i.h **** }
 687:C:/Users/stapi/OneDrive/Desktop/GD32VW553/V1_MQTT_OK/GD32VW55X_Wifi_BLE_SDK/GD32VW55x_RELEASE_V1.0.2/MSDK/wpa_supplicant/wpa_supplicant\driver_i.h **** 
 688:C:/Users/stapi/OneDrive/Desktop/GD32VW553/V1_MQTT_OK/GD32VW55X_Wifi_BLE_SDK/GD32VW55x_RELEASE_V1.0.2/MSDK/wpa_supplicant/wpa_supplicant\driver_i.h **** static inline int wpa_drv_status(struct wpa_supplicant *wpa_s,
 689:C:/Users/stapi/OneDrive/Desktop/GD32VW553/V1_MQTT_OK/GD32VW55X_Wifi_BLE_SDK/GD32VW55x_RELEASE_V1.0.2/MSDK/wpa_supplicant/wpa_supplicant\driver_i.h **** 				 char *buf, size_t buflen)
 690:C:/Users/stapi/OneDrive/Desktop/GD32VW553/V1_MQTT_OK/GD32VW55X_Wifi_BLE_SDK/GD32VW55x_RELEASE_V1.0.2/MSDK/wpa_supplicant/wpa_supplicant\driver_i.h **** {
 691:C:/Users/stapi/OneDrive/Desktop/GD32VW553/V1_MQTT_OK/GD32VW55X_Wifi_BLE_SDK/GD32VW55x_RELEASE_V1.0.2/MSDK/wpa_supplicant/wpa_supplicant\driver_i.h **** 	if (!wpa_s->driver->status)
 692:C:/Users/stapi/OneDrive/Desktop/GD32VW553/V1_MQTT_OK/GD32VW55X_Wifi_BLE_SDK/GD32VW55x_RELEASE_V1.0.2/MSDK/wpa_supplicant/wpa_supplicant\driver_i.h **** 		return -1;
 693:C:/Users/stapi/OneDrive/Desktop/GD32VW553/V1_MQTT_OK/GD32VW55X_Wifi_BLE_SDK/GD32VW55x_RELEASE_V1.0.2/MSDK/wpa_supplicant/wpa_supplicant\driver_i.h **** 	return wpa_s->driver->status(wpa_s->drv_priv, buf, buflen);
 694:C:/Users/stapi/OneDrive/Desktop/GD32VW553/V1_MQTT_OK/GD32VW55X_Wifi_BLE_SDK/GD32VW55x_RELEASE_V1.0.2/MSDK/wpa_supplicant/wpa_supplicant\driver_i.h **** }
 695:C:/Users/stapi/OneDrive/Desktop/GD32VW553/V1_MQTT_OK/GD32VW55X_Wifi_BLE_SDK/GD32VW55x_RELEASE_V1.0.2/MSDK/wpa_supplicant/wpa_supplicant\driver_i.h **** 
 696:C:/Users/stapi/OneDrive/Desktop/GD32VW553/V1_MQTT_OK/GD32VW55X_Wifi_BLE_SDK/GD32VW55x_RELEASE_V1.0.2/MSDK/wpa_supplicant/wpa_supplicant\driver_i.h **** static inline int wpa_drv_set_qos_map(struct wpa_supplicant *wpa_s,
 697:C:/Users/stapi/OneDrive/Desktop/GD32VW553/V1_MQTT_OK/GD32VW55X_Wifi_BLE_SDK/GD32VW55x_RELEASE_V1.0.2/MSDK/wpa_supplicant/wpa_supplicant\driver_i.h **** 				      const u8 *qos_map_set, u8 qos_map_set_len)
 698:C:/Users/stapi/OneDrive/Desktop/GD32VW553/V1_MQTT_OK/GD32VW55X_Wifi_BLE_SDK/GD32VW55x_RELEASE_V1.0.2/MSDK/wpa_supplicant/wpa_supplicant\driver_i.h **** {
 699:C:/Users/stapi/OneDrive/Desktop/GD32VW553/V1_MQTT_OK/GD32VW55X_Wifi_BLE_SDK/GD32VW55x_RELEASE_V1.0.2/MSDK/wpa_supplicant/wpa_supplicant\driver_i.h **** 	if (!wpa_s->driver->set_qos_map)
 700:C:/Users/stapi/OneDrive/Desktop/GD32VW553/V1_MQTT_OK/GD32VW55X_Wifi_BLE_SDK/GD32VW55x_RELEASE_V1.0.2/MSDK/wpa_supplicant/wpa_supplicant\driver_i.h **** 		return -1;
 701:C:/Users/stapi/OneDrive/Desktop/GD32VW553/V1_MQTT_OK/GD32VW55X_Wifi_BLE_SDK/GD32VW55x_RELEASE_V1.0.2/MSDK/wpa_supplicant/wpa_supplicant\driver_i.h **** 	return wpa_s->driver->set_qos_map(wpa_s->drv_priv, qos_map_set,
 702:C:/Users/stapi/OneDrive/Desktop/GD32VW553/V1_MQTT_OK/GD32VW55X_Wifi_BLE_SDK/GD32VW55x_RELEASE_V1.0.2/MSDK/wpa_supplicant/wpa_supplicant\driver_i.h **** 					  qos_map_set_len);
 703:C:/Users/stapi/OneDrive/Desktop/GD32VW553/V1_MQTT_OK/GD32VW55X_Wifi_BLE_SDK/GD32VW55x_RELEASE_V1.0.2/MSDK/wpa_supplicant/wpa_supplicant\driver_i.h **** }
 704:C:/Users/stapi/OneDrive/Desktop/GD32VW553/V1_MQTT_OK/GD32VW55X_Wifi_BLE_SDK/GD32VW55x_RELEASE_V1.0.2/MSDK/wpa_supplicant/wpa_supplicant\driver_i.h **** 
 705:C:/Users/stapi/OneDrive/Desktop/GD32VW553/V1_MQTT_OK/GD32VW55X_Wifi_BLE_SDK/GD32VW55x_RELEASE_V1.0.2/MSDK/wpa_supplicant/wpa_supplicant\driver_i.h **** static inline int wpa_drv_get_wowlan(struct wpa_supplicant *wpa_s)
 706:C:/Users/stapi/OneDrive/Desktop/GD32VW553/V1_MQTT_OK/GD32VW55X_Wifi_BLE_SDK/GD32VW55x_RELEASE_V1.0.2/MSDK/wpa_supplicant/wpa_supplicant\driver_i.h **** {
 707:C:/Users/stapi/OneDrive/Desktop/GD32VW553/V1_MQTT_OK/GD32VW55X_Wifi_BLE_SDK/GD32VW55x_RELEASE_V1.0.2/MSDK/wpa_supplicant/wpa_supplicant\driver_i.h **** 	if (!wpa_s->driver->get_wowlan)
 708:C:/Users/stapi/OneDrive/Desktop/GD32VW553/V1_MQTT_OK/GD32VW55X_Wifi_BLE_SDK/GD32VW55x_RELEASE_V1.0.2/MSDK/wpa_supplicant/wpa_supplicant\driver_i.h **** 		return 0;
 709:C:/Users/stapi/OneDrive/Desktop/GD32VW553/V1_MQTT_OK/GD32VW55X_Wifi_BLE_SDK/GD32VW55x_RELEASE_V1.0.2/MSDK/wpa_supplicant/wpa_supplicant\driver_i.h **** 	return wpa_s->driver->get_wowlan(wpa_s->drv_priv);
 710:C:/Users/stapi/OneDrive/Desktop/GD32VW553/V1_MQTT_OK/GD32VW55X_Wifi_BLE_SDK/GD32VW55x_RELEASE_V1.0.2/MSDK/wpa_supplicant/wpa_supplicant\driver_i.h **** }
 711:C:/Users/stapi/OneDrive/Desktop/GD32VW553/V1_MQTT_OK/GD32VW55X_Wifi_BLE_SDK/GD32VW55x_RELEASE_V1.0.2/MSDK/wpa_supplicant/wpa_supplicant\driver_i.h **** 
 712:C:/Users/stapi/OneDrive/Desktop/GD32VW553/V1_MQTT_OK/GD32VW55X_Wifi_BLE_SDK/GD32VW55x_RELEASE_V1.0.2/MSDK/wpa_supplicant/wpa_supplicant\driver_i.h **** static inline int wpa_drv_wowlan(struct wpa_supplicant *wpa_s,
 713:C:/Users/stapi/OneDrive/Desktop/GD32VW553/V1_MQTT_OK/GD32VW55X_Wifi_BLE_SDK/GD32VW55x_RELEASE_V1.0.2/MSDK/wpa_supplicant/wpa_supplicant\driver_i.h **** 				 const struct wowlan_triggers *triggers)
 714:C:/Users/stapi/OneDrive/Desktop/GD32VW553/V1_MQTT_OK/GD32VW55X_Wifi_BLE_SDK/GD32VW55x_RELEASE_V1.0.2/MSDK/wpa_supplicant/wpa_supplicant\driver_i.h **** {
 715:C:/Users/stapi/OneDrive/Desktop/GD32VW553/V1_MQTT_OK/GD32VW55X_Wifi_BLE_SDK/GD32VW55x_RELEASE_V1.0.2/MSDK/wpa_supplicant/wpa_supplicant\driver_i.h **** 	if (!wpa_s->driver->set_wowlan)
 716:C:/Users/stapi/OneDrive/Desktop/GD32VW553/V1_MQTT_OK/GD32VW55X_Wifi_BLE_SDK/GD32VW55x_RELEASE_V1.0.2/MSDK/wpa_supplicant/wpa_supplicant\driver_i.h **** 		return -1;
 717:C:/Users/stapi/OneDrive/Desktop/GD32VW553/V1_MQTT_OK/GD32VW55X_Wifi_BLE_SDK/GD32VW55x_RELEASE_V1.0.2/MSDK/wpa_supplicant/wpa_supplicant\driver_i.h **** 	return wpa_s->driver->set_wowlan(wpa_s->drv_priv, triggers);
 718:C:/Users/stapi/OneDrive/Desktop/GD32VW553/V1_MQTT_OK/GD32VW55X_Wifi_BLE_SDK/GD32VW55x_RELEASE_V1.0.2/MSDK/wpa_supplicant/wpa_supplicant\driver_i.h **** }
 719:C:/Users/stapi/OneDrive/Desktop/GD32VW553/V1_MQTT_OK/GD32VW55X_Wifi_BLE_SDK/GD32VW55x_RELEASE_V1.0.2/MSDK/wpa_supplicant/wpa_supplicant\driver_i.h **** 
 720:C:/Users/stapi/OneDrive/Desktop/GD32VW553/V1_MQTT_OK/GD32VW55X_Wifi_BLE_SDK/GD32VW55x_RELEASE_V1.0.2/MSDK/wpa_supplicant/wpa_supplicant\driver_i.h **** static inline int wpa_drv_vendor_cmd(struct wpa_supplicant *wpa_s,
 721:C:/Users/stapi/OneDrive/Desktop/GD32VW553/V1_MQTT_OK/GD32VW55X_Wifi_BLE_SDK/GD32VW55x_RELEASE_V1.0.2/MSDK/wpa_supplicant/wpa_supplicant\driver_i.h **** 				     int vendor_id, int subcmd, const u8 *data,
 722:C:/Users/stapi/OneDrive/Desktop/GD32VW553/V1_MQTT_OK/GD32VW55X_Wifi_BLE_SDK/GD32VW55x_RELEASE_V1.0.2/MSDK/wpa_supplicant/wpa_supplicant\driver_i.h **** 				     size_t data_len,
 723:C:/Users/stapi/OneDrive/Desktop/GD32VW553/V1_MQTT_OK/GD32VW55X_Wifi_BLE_SDK/GD32VW55x_RELEASE_V1.0.2/MSDK/wpa_supplicant/wpa_supplicant\driver_i.h **** 				     enum nested_attr nested_attr_flag,
 724:C:/Users/stapi/OneDrive/Desktop/GD32VW553/V1_MQTT_OK/GD32VW55X_Wifi_BLE_SDK/GD32VW55x_RELEASE_V1.0.2/MSDK/wpa_supplicant/wpa_supplicant\driver_i.h **** 				     struct wpabuf *buf)
 725:C:/Users/stapi/OneDrive/Desktop/GD32VW553/V1_MQTT_OK/GD32VW55X_Wifi_BLE_SDK/GD32VW55x_RELEASE_V1.0.2/MSDK/wpa_supplicant/wpa_supplicant\driver_i.h **** {
 726:C:/Users/stapi/OneDrive/Desktop/GD32VW553/V1_MQTT_OK/GD32VW55X_Wifi_BLE_SDK/GD32VW55x_RELEASE_V1.0.2/MSDK/wpa_supplicant/wpa_supplicant\driver_i.h **** 	if (!wpa_s->driver->vendor_cmd)
 727:C:/Users/stapi/OneDrive/Desktop/GD32VW553/V1_MQTT_OK/GD32VW55X_Wifi_BLE_SDK/GD32VW55x_RELEASE_V1.0.2/MSDK/wpa_supplicant/wpa_supplicant\driver_i.h **** 		return -1;
 728:C:/Users/stapi/OneDrive/Desktop/GD32VW553/V1_MQTT_OK/GD32VW55X_Wifi_BLE_SDK/GD32VW55x_RELEASE_V1.0.2/MSDK/wpa_supplicant/wpa_supplicant\driver_i.h **** 	return wpa_s->driver->vendor_cmd(wpa_s->drv_priv, vendor_id, subcmd,
 729:C:/Users/stapi/OneDrive/Desktop/GD32VW553/V1_MQTT_OK/GD32VW55X_Wifi_BLE_SDK/GD32VW55x_RELEASE_V1.0.2/MSDK/wpa_supplicant/wpa_supplicant\driver_i.h **** 					 data, data_len, nested_attr_flag, buf);
 730:C:/Users/stapi/OneDrive/Desktop/GD32VW553/V1_MQTT_OK/GD32VW55X_Wifi_BLE_SDK/GD32VW55x_RELEASE_V1.0.2/MSDK/wpa_supplicant/wpa_supplicant\driver_i.h **** }
 731:C:/Users/stapi/OneDrive/Desktop/GD32VW553/V1_MQTT_OK/GD32VW55X_Wifi_BLE_SDK/GD32VW55x_RELEASE_V1.0.2/MSDK/wpa_supplicant/wpa_supplicant\driver_i.h **** 
 732:C:/Users/stapi/OneDrive/Desktop/GD32VW553/V1_MQTT_OK/GD32VW55X_Wifi_BLE_SDK/GD32VW55x_RELEASE_V1.0.2/MSDK/wpa_supplicant/wpa_supplicant\driver_i.h **** static inline int wpa_drv_roaming(struct wpa_supplicant *wpa_s, int allowed,
 733:C:/Users/stapi/OneDrive/Desktop/GD32VW553/V1_MQTT_OK/GD32VW55X_Wifi_BLE_SDK/GD32VW55x_RELEASE_V1.0.2/MSDK/wpa_supplicant/wpa_supplicant\driver_i.h **** 				  const u8 *bssid)
 734:C:/Users/stapi/OneDrive/Desktop/GD32VW553/V1_MQTT_OK/GD32VW55X_Wifi_BLE_SDK/GD32VW55x_RELEASE_V1.0.2/MSDK/wpa_supplicant/wpa_supplicant\driver_i.h **** {
 735:C:/Users/stapi/OneDrive/Desktop/GD32VW553/V1_MQTT_OK/GD32VW55X_Wifi_BLE_SDK/GD32VW55x_RELEASE_V1.0.2/MSDK/wpa_supplicant/wpa_supplicant\driver_i.h **** 	if (!wpa_s->driver->roaming)
 736:C:/Users/stapi/OneDrive/Desktop/GD32VW553/V1_MQTT_OK/GD32VW55X_Wifi_BLE_SDK/GD32VW55x_RELEASE_V1.0.2/MSDK/wpa_supplicant/wpa_supplicant\driver_i.h **** 		return -1;
 737:C:/Users/stapi/OneDrive/Desktop/GD32VW553/V1_MQTT_OK/GD32VW55X_Wifi_BLE_SDK/GD32VW55x_RELEASE_V1.0.2/MSDK/wpa_supplicant/wpa_supplicant\driver_i.h **** 	return wpa_s->driver->roaming(wpa_s->drv_priv, allowed, bssid);
 738:C:/Users/stapi/OneDrive/Desktop/GD32VW553/V1_MQTT_OK/GD32VW55X_Wifi_BLE_SDK/GD32VW55x_RELEASE_V1.0.2/MSDK/wpa_supplicant/wpa_supplicant\driver_i.h **** }
 739:C:/Users/stapi/OneDrive/Desktop/GD32VW553/V1_MQTT_OK/GD32VW55X_Wifi_BLE_SDK/GD32VW55x_RELEASE_V1.0.2/MSDK/wpa_supplicant/wpa_supplicant\driver_i.h **** 
 740:C:/Users/stapi/OneDrive/Desktop/GD32VW553/V1_MQTT_OK/GD32VW55X_Wifi_BLE_SDK/GD32VW55x_RELEASE_V1.0.2/MSDK/wpa_supplicant/wpa_supplicant\driver_i.h **** static inline int wpa_drv_disable_fils(struct wpa_supplicant *wpa_s,
 741:C:/Users/stapi/OneDrive/Desktop/GD32VW553/V1_MQTT_OK/GD32VW55X_Wifi_BLE_SDK/GD32VW55x_RELEASE_V1.0.2/MSDK/wpa_supplicant/wpa_supplicant\driver_i.h **** 				       int disable)
 742:C:/Users/stapi/OneDrive/Desktop/GD32VW553/V1_MQTT_OK/GD32VW55X_Wifi_BLE_SDK/GD32VW55x_RELEASE_V1.0.2/MSDK/wpa_supplicant/wpa_supplicant\driver_i.h **** {
 743:C:/Users/stapi/OneDrive/Desktop/GD32VW553/V1_MQTT_OK/GD32VW55X_Wifi_BLE_SDK/GD32VW55x_RELEASE_V1.0.2/MSDK/wpa_supplicant/wpa_supplicant\driver_i.h **** 	if (!wpa_s->driver->disable_fils)
 744:C:/Users/stapi/OneDrive/Desktop/GD32VW553/V1_MQTT_OK/GD32VW55X_Wifi_BLE_SDK/GD32VW55x_RELEASE_V1.0.2/MSDK/wpa_supplicant/wpa_supplicant\driver_i.h **** 		return -1;
 745:C:/Users/stapi/OneDrive/Desktop/GD32VW553/V1_MQTT_OK/GD32VW55X_Wifi_BLE_SDK/GD32VW55x_RELEASE_V1.0.2/MSDK/wpa_supplicant/wpa_supplicant\driver_i.h **** 	return wpa_s->driver->disable_fils(wpa_s->drv_priv, disable);
 746:C:/Users/stapi/OneDrive/Desktop/GD32VW553/V1_MQTT_OK/GD32VW55X_Wifi_BLE_SDK/GD32VW55x_RELEASE_V1.0.2/MSDK/wpa_supplicant/wpa_supplicant\driver_i.h **** }
 747:C:/Users/stapi/OneDrive/Desktop/GD32VW553/V1_MQTT_OK/GD32VW55X_Wifi_BLE_SDK/GD32VW55x_RELEASE_V1.0.2/MSDK/wpa_supplicant/wpa_supplicant\driver_i.h **** 
 748:C:/Users/stapi/OneDrive/Desktop/GD32VW553/V1_MQTT_OK/GD32VW55X_Wifi_BLE_SDK/GD32VW55x_RELEASE_V1.0.2/MSDK/wpa_supplicant/wpa_supplicant\driver_i.h **** static inline int wpa_drv_set_mac_addr(struct wpa_supplicant *wpa_s,
 749:C:/Users/stapi/OneDrive/Desktop/GD32VW553/V1_MQTT_OK/GD32VW55X_Wifi_BLE_SDK/GD32VW55x_RELEASE_V1.0.2/MSDK/wpa_supplicant/wpa_supplicant\driver_i.h **** 				       const u8 *addr)
 750:C:/Users/stapi/OneDrive/Desktop/GD32VW553/V1_MQTT_OK/GD32VW55X_Wifi_BLE_SDK/GD32VW55x_RELEASE_V1.0.2/MSDK/wpa_supplicant/wpa_supplicant\driver_i.h **** {
 751:C:/Users/stapi/OneDrive/Desktop/GD32VW553/V1_MQTT_OK/GD32VW55X_Wifi_BLE_SDK/GD32VW55x_RELEASE_V1.0.2/MSDK/wpa_supplicant/wpa_supplicant\driver_i.h **** 	if (!wpa_s->driver->set_mac_addr)
 752:C:/Users/stapi/OneDrive/Desktop/GD32VW553/V1_MQTT_OK/GD32VW55X_Wifi_BLE_SDK/GD32VW55x_RELEASE_V1.0.2/MSDK/wpa_supplicant/wpa_supplicant\driver_i.h **** 		return -1;
 753:C:/Users/stapi/OneDrive/Desktop/GD32VW553/V1_MQTT_OK/GD32VW55X_Wifi_BLE_SDK/GD32VW55x_RELEASE_V1.0.2/MSDK/wpa_supplicant/wpa_supplicant\driver_i.h **** 	return wpa_s->driver->set_mac_addr(wpa_s->drv_priv, addr);
 754:C:/Users/stapi/OneDrive/Desktop/GD32VW553/V1_MQTT_OK/GD32VW55X_Wifi_BLE_SDK/GD32VW55x_RELEASE_V1.0.2/MSDK/wpa_supplicant/wpa_supplicant\driver_i.h **** }
 755:C:/Users/stapi/OneDrive/Desktop/GD32VW553/V1_MQTT_OK/GD32VW55X_Wifi_BLE_SDK/GD32VW55x_RELEASE_V1.0.2/MSDK/wpa_supplicant/wpa_supplicant\driver_i.h **** 
 756:C:/Users/stapi/OneDrive/Desktop/GD32VW553/V1_MQTT_OK/GD32VW55X_Wifi_BLE_SDK/GD32VW55x_RELEASE_V1.0.2/MSDK/wpa_supplicant/wpa_supplicant\driver_i.h **** 
 757:C:/Users/stapi/OneDrive/Desktop/GD32VW553/V1_MQTT_OK/GD32VW55X_Wifi_BLE_SDK/GD32VW55x_RELEASE_V1.0.2/MSDK/wpa_supplicant/wpa_supplicant\driver_i.h **** #ifdef CONFIG_MACSEC
 758:C:/Users/stapi/OneDrive/Desktop/GD32VW553/V1_MQTT_OK/GD32VW55X_Wifi_BLE_SDK/GD32VW55x_RELEASE_V1.0.2/MSDK/wpa_supplicant/wpa_supplicant\driver_i.h **** 
 759:C:/Users/stapi/OneDrive/Desktop/GD32VW553/V1_MQTT_OK/GD32VW55X_Wifi_BLE_SDK/GD32VW55x_RELEASE_V1.0.2/MSDK/wpa_supplicant/wpa_supplicant\driver_i.h **** static inline int wpa_drv_macsec_init(struct wpa_supplicant *wpa_s,
 760:C:/Users/stapi/OneDrive/Desktop/GD32VW553/V1_MQTT_OK/GD32VW55X_Wifi_BLE_SDK/GD32VW55x_RELEASE_V1.0.2/MSDK/wpa_supplicant/wpa_supplicant\driver_i.h **** 				      struct macsec_init_params *params)
 761:C:/Users/stapi/OneDrive/Desktop/GD32VW553/V1_MQTT_OK/GD32VW55X_Wifi_BLE_SDK/GD32VW55x_RELEASE_V1.0.2/MSDK/wpa_supplicant/wpa_supplicant\driver_i.h **** {
 762:C:/Users/stapi/OneDrive/Desktop/GD32VW553/V1_MQTT_OK/GD32VW55X_Wifi_BLE_SDK/GD32VW55x_RELEASE_V1.0.2/MSDK/wpa_supplicant/wpa_supplicant\driver_i.h **** 	if (!wpa_s->driver->macsec_init)
 763:C:/Users/stapi/OneDrive/Desktop/GD32VW553/V1_MQTT_OK/GD32VW55X_Wifi_BLE_SDK/GD32VW55x_RELEASE_V1.0.2/MSDK/wpa_supplicant/wpa_supplicant\driver_i.h **** 		return -1;
 764:C:/Users/stapi/OneDrive/Desktop/GD32VW553/V1_MQTT_OK/GD32VW55X_Wifi_BLE_SDK/GD32VW55x_RELEASE_V1.0.2/MSDK/wpa_supplicant/wpa_supplicant\driver_i.h **** 	return wpa_s->driver->macsec_init(wpa_s->drv_priv, params);
 765:C:/Users/stapi/OneDrive/Desktop/GD32VW553/V1_MQTT_OK/GD32VW55X_Wifi_BLE_SDK/GD32VW55x_RELEASE_V1.0.2/MSDK/wpa_supplicant/wpa_supplicant\driver_i.h **** }
 766:C:/Users/stapi/OneDrive/Desktop/GD32VW553/V1_MQTT_OK/GD32VW55X_Wifi_BLE_SDK/GD32VW55x_RELEASE_V1.0.2/MSDK/wpa_supplicant/wpa_supplicant\driver_i.h **** 
 767:C:/Users/stapi/OneDrive/Desktop/GD32VW553/V1_MQTT_OK/GD32VW55X_Wifi_BLE_SDK/GD32VW55x_RELEASE_V1.0.2/MSDK/wpa_supplicant/wpa_supplicant\driver_i.h **** static inline int wpa_drv_macsec_deinit(struct wpa_supplicant *wpa_s)
 768:C:/Users/stapi/OneDrive/Desktop/GD32VW553/V1_MQTT_OK/GD32VW55X_Wifi_BLE_SDK/GD32VW55x_RELEASE_V1.0.2/MSDK/wpa_supplicant/wpa_supplicant\driver_i.h **** {
 769:C:/Users/stapi/OneDrive/Desktop/GD32VW553/V1_MQTT_OK/GD32VW55X_Wifi_BLE_SDK/GD32VW55x_RELEASE_V1.0.2/MSDK/wpa_supplicant/wpa_supplicant\driver_i.h **** 	if (!wpa_s->driver->macsec_deinit)
 770:C:/Users/stapi/OneDrive/Desktop/GD32VW553/V1_MQTT_OK/GD32VW55X_Wifi_BLE_SDK/GD32VW55x_RELEASE_V1.0.2/MSDK/wpa_supplicant/wpa_supplicant\driver_i.h **** 		return -1;
 771:C:/Users/stapi/OneDrive/Desktop/GD32VW553/V1_MQTT_OK/GD32VW55X_Wifi_BLE_SDK/GD32VW55x_RELEASE_V1.0.2/MSDK/wpa_supplicant/wpa_supplicant\driver_i.h **** 	return wpa_s->driver->macsec_deinit(wpa_s->drv_priv);
 772:C:/Users/stapi/OneDrive/Desktop/GD32VW553/V1_MQTT_OK/GD32VW55X_Wifi_BLE_SDK/GD32VW55x_RELEASE_V1.0.2/MSDK/wpa_supplicant/wpa_supplicant\driver_i.h **** }
 773:C:/Users/stapi/OneDrive/Desktop/GD32VW553/V1_MQTT_OK/GD32VW55X_Wifi_BLE_SDK/GD32VW55x_RELEASE_V1.0.2/MSDK/wpa_supplicant/wpa_supplicant\driver_i.h **** 
 774:C:/Users/stapi/OneDrive/Desktop/GD32VW553/V1_MQTT_OK/GD32VW55X_Wifi_BLE_SDK/GD32VW55x_RELEASE_V1.0.2/MSDK/wpa_supplicant/wpa_supplicant\driver_i.h **** static inline int wpa_drv_macsec_get_capability(struct wpa_supplicant *wpa_s,
 775:C:/Users/stapi/OneDrive/Desktop/GD32VW553/V1_MQTT_OK/GD32VW55X_Wifi_BLE_SDK/GD32VW55x_RELEASE_V1.0.2/MSDK/wpa_supplicant/wpa_supplicant\driver_i.h **** 						enum macsec_cap *cap)
 776:C:/Users/stapi/OneDrive/Desktop/GD32VW553/V1_MQTT_OK/GD32VW55X_Wifi_BLE_SDK/GD32VW55x_RELEASE_V1.0.2/MSDK/wpa_supplicant/wpa_supplicant\driver_i.h **** {
 777:C:/Users/stapi/OneDrive/Desktop/GD32VW553/V1_MQTT_OK/GD32VW55X_Wifi_BLE_SDK/GD32VW55x_RELEASE_V1.0.2/MSDK/wpa_supplicant/wpa_supplicant\driver_i.h **** 	if (!wpa_s->driver->macsec_get_capability)
 778:C:/Users/stapi/OneDrive/Desktop/GD32VW553/V1_MQTT_OK/GD32VW55X_Wifi_BLE_SDK/GD32VW55x_RELEASE_V1.0.2/MSDK/wpa_supplicant/wpa_supplicant\driver_i.h **** 		return -1;
 779:C:/Users/stapi/OneDrive/Desktop/GD32VW553/V1_MQTT_OK/GD32VW55X_Wifi_BLE_SDK/GD32VW55x_RELEASE_V1.0.2/MSDK/wpa_supplicant/wpa_supplicant\driver_i.h **** 	return wpa_s->driver->macsec_get_capability(wpa_s->drv_priv, cap);
 780:C:/Users/stapi/OneDrive/Desktop/GD32VW553/V1_MQTT_OK/GD32VW55X_Wifi_BLE_SDK/GD32VW55x_RELEASE_V1.0.2/MSDK/wpa_supplicant/wpa_supplicant\driver_i.h **** }
 781:C:/Users/stapi/OneDrive/Desktop/GD32VW553/V1_MQTT_OK/GD32VW55X_Wifi_BLE_SDK/GD32VW55x_RELEASE_V1.0.2/MSDK/wpa_supplicant/wpa_supplicant\driver_i.h **** 
 782:C:/Users/stapi/OneDrive/Desktop/GD32VW553/V1_MQTT_OK/GD32VW55X_Wifi_BLE_SDK/GD32VW55x_RELEASE_V1.0.2/MSDK/wpa_supplicant/wpa_supplicant\driver_i.h **** static inline int wpa_drv_enable_protect_frames(struct wpa_supplicant *wpa_s,
 783:C:/Users/stapi/OneDrive/Desktop/GD32VW553/V1_MQTT_OK/GD32VW55X_Wifi_BLE_SDK/GD32VW55x_RELEASE_V1.0.2/MSDK/wpa_supplicant/wpa_supplicant\driver_i.h **** 						bool enabled)
 784:C:/Users/stapi/OneDrive/Desktop/GD32VW553/V1_MQTT_OK/GD32VW55X_Wifi_BLE_SDK/GD32VW55x_RELEASE_V1.0.2/MSDK/wpa_supplicant/wpa_supplicant\driver_i.h **** {
 785:C:/Users/stapi/OneDrive/Desktop/GD32VW553/V1_MQTT_OK/GD32VW55X_Wifi_BLE_SDK/GD32VW55x_RELEASE_V1.0.2/MSDK/wpa_supplicant/wpa_supplicant\driver_i.h **** 	if (!wpa_s->driver->enable_protect_frames)
 786:C:/Users/stapi/OneDrive/Desktop/GD32VW553/V1_MQTT_OK/GD32VW55X_Wifi_BLE_SDK/GD32VW55x_RELEASE_V1.0.2/MSDK/wpa_supplicant/wpa_supplicant\driver_i.h **** 		return -1;
 787:C:/Users/stapi/OneDrive/Desktop/GD32VW553/V1_MQTT_OK/GD32VW55X_Wifi_BLE_SDK/GD32VW55x_RELEASE_V1.0.2/MSDK/wpa_supplicant/wpa_supplicant\driver_i.h **** 	return wpa_s->driver->enable_protect_frames(wpa_s->drv_priv, enabled);
 788:C:/Users/stapi/OneDrive/Desktop/GD32VW553/V1_MQTT_OK/GD32VW55X_Wifi_BLE_SDK/GD32VW55x_RELEASE_V1.0.2/MSDK/wpa_supplicant/wpa_supplicant\driver_i.h **** }
 789:C:/Users/stapi/OneDrive/Desktop/GD32VW553/V1_MQTT_OK/GD32VW55X_Wifi_BLE_SDK/GD32VW55x_RELEASE_V1.0.2/MSDK/wpa_supplicant/wpa_supplicant\driver_i.h **** 
 790:C:/Users/stapi/OneDrive/Desktop/GD32VW553/V1_MQTT_OK/GD32VW55X_Wifi_BLE_SDK/GD32VW55x_RELEASE_V1.0.2/MSDK/wpa_supplicant/wpa_supplicant\driver_i.h **** static inline int wpa_drv_enable_encrypt(struct wpa_supplicant *wpa_s,
 791:C:/Users/stapi/OneDrive/Desktop/GD32VW553/V1_MQTT_OK/GD32VW55X_Wifi_BLE_SDK/GD32VW55x_RELEASE_V1.0.2/MSDK/wpa_supplicant/wpa_supplicant\driver_i.h **** 						bool enabled)
 792:C:/Users/stapi/OneDrive/Desktop/GD32VW553/V1_MQTT_OK/GD32VW55X_Wifi_BLE_SDK/GD32VW55x_RELEASE_V1.0.2/MSDK/wpa_supplicant/wpa_supplicant\driver_i.h **** {
 793:C:/Users/stapi/OneDrive/Desktop/GD32VW553/V1_MQTT_OK/GD32VW55X_Wifi_BLE_SDK/GD32VW55x_RELEASE_V1.0.2/MSDK/wpa_supplicant/wpa_supplicant\driver_i.h **** 	if (!wpa_s->driver->enable_encrypt)
 794:C:/Users/stapi/OneDrive/Desktop/GD32VW553/V1_MQTT_OK/GD32VW55X_Wifi_BLE_SDK/GD32VW55x_RELEASE_V1.0.2/MSDK/wpa_supplicant/wpa_supplicant\driver_i.h **** 		return -1;
 795:C:/Users/stapi/OneDrive/Desktop/GD32VW553/V1_MQTT_OK/GD32VW55X_Wifi_BLE_SDK/GD32VW55x_RELEASE_V1.0.2/MSDK/wpa_supplicant/wpa_supplicant\driver_i.h **** 	return wpa_s->driver->enable_encrypt(wpa_s->drv_priv, enabled);
 796:C:/Users/stapi/OneDrive/Desktop/GD32VW553/V1_MQTT_OK/GD32VW55X_Wifi_BLE_SDK/GD32VW55x_RELEASE_V1.0.2/MSDK/wpa_supplicant/wpa_supplicant\driver_i.h **** }
 797:C:/Users/stapi/OneDrive/Desktop/GD32VW553/V1_MQTT_OK/GD32VW55X_Wifi_BLE_SDK/GD32VW55x_RELEASE_V1.0.2/MSDK/wpa_supplicant/wpa_supplicant\driver_i.h **** 
 798:C:/Users/stapi/OneDrive/Desktop/GD32VW553/V1_MQTT_OK/GD32VW55X_Wifi_BLE_SDK/GD32VW55x_RELEASE_V1.0.2/MSDK/wpa_supplicant/wpa_supplicant\driver_i.h **** static inline int wpa_drv_set_replay_protect(struct wpa_supplicant *wpa_s,
 799:C:/Users/stapi/OneDrive/Desktop/GD32VW553/V1_MQTT_OK/GD32VW55X_Wifi_BLE_SDK/GD32VW55x_RELEASE_V1.0.2/MSDK/wpa_supplicant/wpa_supplicant\driver_i.h **** 					     bool enabled, u32 window)
 800:C:/Users/stapi/OneDrive/Desktop/GD32VW553/V1_MQTT_OK/GD32VW55X_Wifi_BLE_SDK/GD32VW55x_RELEASE_V1.0.2/MSDK/wpa_supplicant/wpa_supplicant\driver_i.h **** {
 801:C:/Users/stapi/OneDrive/Desktop/GD32VW553/V1_MQTT_OK/GD32VW55X_Wifi_BLE_SDK/GD32VW55x_RELEASE_V1.0.2/MSDK/wpa_supplicant/wpa_supplicant\driver_i.h **** 	if (!wpa_s->driver->set_replay_protect)
 802:C:/Users/stapi/OneDrive/Desktop/GD32VW553/V1_MQTT_OK/GD32VW55X_Wifi_BLE_SDK/GD32VW55x_RELEASE_V1.0.2/MSDK/wpa_supplicant/wpa_supplicant\driver_i.h **** 		return -1;
 803:C:/Users/stapi/OneDrive/Desktop/GD32VW553/V1_MQTT_OK/GD32VW55X_Wifi_BLE_SDK/GD32VW55x_RELEASE_V1.0.2/MSDK/wpa_supplicant/wpa_supplicant\driver_i.h **** 	return wpa_s->driver->set_replay_protect(wpa_s->drv_priv, enabled,
 804:C:/Users/stapi/OneDrive/Desktop/GD32VW553/V1_MQTT_OK/GD32VW55X_Wifi_BLE_SDK/GD32VW55x_RELEASE_V1.0.2/MSDK/wpa_supplicant/wpa_supplicant\driver_i.h **** 						 window);
 805:C:/Users/stapi/OneDrive/Desktop/GD32VW553/V1_MQTT_OK/GD32VW55X_Wifi_BLE_SDK/GD32VW55x_RELEASE_V1.0.2/MSDK/wpa_supplicant/wpa_supplicant\driver_i.h **** }
 806:C:/Users/stapi/OneDrive/Desktop/GD32VW553/V1_MQTT_OK/GD32VW55X_Wifi_BLE_SDK/GD32VW55x_RELEASE_V1.0.2/MSDK/wpa_supplicant/wpa_supplicant\driver_i.h **** 
 807:C:/Users/stapi/OneDrive/Desktop/GD32VW553/V1_MQTT_OK/GD32VW55X_Wifi_BLE_SDK/GD32VW55x_RELEASE_V1.0.2/MSDK/wpa_supplicant/wpa_supplicant\driver_i.h **** static inline int wpa_drv_set_current_cipher_suite(struct wpa_supplicant *wpa_s,
 808:C:/Users/stapi/OneDrive/Desktop/GD32VW553/V1_MQTT_OK/GD32VW55X_Wifi_BLE_SDK/GD32VW55x_RELEASE_V1.0.2/MSDK/wpa_supplicant/wpa_supplicant\driver_i.h **** 						   u64 cs)
 809:C:/Users/stapi/OneDrive/Desktop/GD32VW553/V1_MQTT_OK/GD32VW55X_Wifi_BLE_SDK/GD32VW55x_RELEASE_V1.0.2/MSDK/wpa_supplicant/wpa_supplicant\driver_i.h **** {
 810:C:/Users/stapi/OneDrive/Desktop/GD32VW553/V1_MQTT_OK/GD32VW55X_Wifi_BLE_SDK/GD32VW55x_RELEASE_V1.0.2/MSDK/wpa_supplicant/wpa_supplicant\driver_i.h **** 	if (!wpa_s->driver->set_current_cipher_suite)
 811:C:/Users/stapi/OneDrive/Desktop/GD32VW553/V1_MQTT_OK/GD32VW55X_Wifi_BLE_SDK/GD32VW55x_RELEASE_V1.0.2/MSDK/wpa_supplicant/wpa_supplicant\driver_i.h **** 		return -1;
 812:C:/Users/stapi/OneDrive/Desktop/GD32VW553/V1_MQTT_OK/GD32VW55X_Wifi_BLE_SDK/GD32VW55x_RELEASE_V1.0.2/MSDK/wpa_supplicant/wpa_supplicant\driver_i.h **** 	return wpa_s->driver->set_current_cipher_suite(wpa_s->drv_priv, cs);
 813:C:/Users/stapi/OneDrive/Desktop/GD32VW553/V1_MQTT_OK/GD32VW55X_Wifi_BLE_SDK/GD32VW55x_RELEASE_V1.0.2/MSDK/wpa_supplicant/wpa_supplicant\driver_i.h **** }
 814:C:/Users/stapi/OneDrive/Desktop/GD32VW553/V1_MQTT_OK/GD32VW55X_Wifi_BLE_SDK/GD32VW55x_RELEASE_V1.0.2/MSDK/wpa_supplicant/wpa_supplicant\driver_i.h **** 
 815:C:/Users/stapi/OneDrive/Desktop/GD32VW553/V1_MQTT_OK/GD32VW55X_Wifi_BLE_SDK/GD32VW55x_RELEASE_V1.0.2/MSDK/wpa_supplicant/wpa_supplicant\driver_i.h **** static inline int wpa_drv_enable_controlled_port(struct wpa_supplicant *wpa_s,
 816:C:/Users/stapi/OneDrive/Desktop/GD32VW553/V1_MQTT_OK/GD32VW55X_Wifi_BLE_SDK/GD32VW55x_RELEASE_V1.0.2/MSDK/wpa_supplicant/wpa_supplicant\driver_i.h **** 						 bool enabled)
 817:C:/Users/stapi/OneDrive/Desktop/GD32VW553/V1_MQTT_OK/GD32VW55X_Wifi_BLE_SDK/GD32VW55x_RELEASE_V1.0.2/MSDK/wpa_supplicant/wpa_supplicant\driver_i.h **** {
 818:C:/Users/stapi/OneDrive/Desktop/GD32VW553/V1_MQTT_OK/GD32VW55X_Wifi_BLE_SDK/GD32VW55x_RELEASE_V1.0.2/MSDK/wpa_supplicant/wpa_supplicant\driver_i.h **** 	if (!wpa_s->driver->enable_controlled_port)
 819:C:/Users/stapi/OneDrive/Desktop/GD32VW553/V1_MQTT_OK/GD32VW55X_Wifi_BLE_SDK/GD32VW55x_RELEASE_V1.0.2/MSDK/wpa_supplicant/wpa_supplicant\driver_i.h **** 		return -1;
 820:C:/Users/stapi/OneDrive/Desktop/GD32VW553/V1_MQTT_OK/GD32VW55X_Wifi_BLE_SDK/GD32VW55x_RELEASE_V1.0.2/MSDK/wpa_supplicant/wpa_supplicant\driver_i.h **** 	return wpa_s->driver->enable_controlled_port(wpa_s->drv_priv, enabled);
 821:C:/Users/stapi/OneDrive/Desktop/GD32VW553/V1_MQTT_OK/GD32VW55X_Wifi_BLE_SDK/GD32VW55x_RELEASE_V1.0.2/MSDK/wpa_supplicant/wpa_supplicant\driver_i.h **** }
 822:C:/Users/stapi/OneDrive/Desktop/GD32VW553/V1_MQTT_OK/GD32VW55X_Wifi_BLE_SDK/GD32VW55x_RELEASE_V1.0.2/MSDK/wpa_supplicant/wpa_supplicant\driver_i.h **** 
 823:C:/Users/stapi/OneDrive/Desktop/GD32VW553/V1_MQTT_OK/GD32VW55X_Wifi_BLE_SDK/GD32VW55x_RELEASE_V1.0.2/MSDK/wpa_supplicant/wpa_supplicant\driver_i.h **** static inline int wpa_drv_get_receive_lowest_pn(struct wpa_supplicant *wpa_s,
 824:C:/Users/stapi/OneDrive/Desktop/GD32VW553/V1_MQTT_OK/GD32VW55X_Wifi_BLE_SDK/GD32VW55x_RELEASE_V1.0.2/MSDK/wpa_supplicant/wpa_supplicant\driver_i.h **** 						struct receive_sa *sa)
 825:C:/Users/stapi/OneDrive/Desktop/GD32VW553/V1_MQTT_OK/GD32VW55X_Wifi_BLE_SDK/GD32VW55x_RELEASE_V1.0.2/MSDK/wpa_supplicant/wpa_supplicant\driver_i.h **** {
 826:C:/Users/stapi/OneDrive/Desktop/GD32VW553/V1_MQTT_OK/GD32VW55X_Wifi_BLE_SDK/GD32VW55x_RELEASE_V1.0.2/MSDK/wpa_supplicant/wpa_supplicant\driver_i.h **** 	if (!wpa_s->driver->get_receive_lowest_pn)
 827:C:/Users/stapi/OneDrive/Desktop/GD32VW553/V1_MQTT_OK/GD32VW55X_Wifi_BLE_SDK/GD32VW55x_RELEASE_V1.0.2/MSDK/wpa_supplicant/wpa_supplicant\driver_i.h **** 		return -1;
 828:C:/Users/stapi/OneDrive/Desktop/GD32VW553/V1_MQTT_OK/GD32VW55X_Wifi_BLE_SDK/GD32VW55x_RELEASE_V1.0.2/MSDK/wpa_supplicant/wpa_supplicant\driver_i.h **** 	return wpa_s->driver->get_receive_lowest_pn(wpa_s->drv_priv, sa);
 829:C:/Users/stapi/OneDrive/Desktop/GD32VW553/V1_MQTT_OK/GD32VW55X_Wifi_BLE_SDK/GD32VW55x_RELEASE_V1.0.2/MSDK/wpa_supplicant/wpa_supplicant\driver_i.h **** }
 830:C:/Users/stapi/OneDrive/Desktop/GD32VW553/V1_MQTT_OK/GD32VW55X_Wifi_BLE_SDK/GD32VW55x_RELEASE_V1.0.2/MSDK/wpa_supplicant/wpa_supplicant\driver_i.h **** 
 831:C:/Users/stapi/OneDrive/Desktop/GD32VW553/V1_MQTT_OK/GD32VW55X_Wifi_BLE_SDK/GD32VW55x_RELEASE_V1.0.2/MSDK/wpa_supplicant/wpa_supplicant\driver_i.h **** static inline int wpa_drv_get_transmit_next_pn(struct wpa_supplicant *wpa_s,
 832:C:/Users/stapi/OneDrive/Desktop/GD32VW553/V1_MQTT_OK/GD32VW55X_Wifi_BLE_SDK/GD32VW55x_RELEASE_V1.0.2/MSDK/wpa_supplicant/wpa_supplicant\driver_i.h **** 						struct transmit_sa *sa)
 833:C:/Users/stapi/OneDrive/Desktop/GD32VW553/V1_MQTT_OK/GD32VW55X_Wifi_BLE_SDK/GD32VW55x_RELEASE_V1.0.2/MSDK/wpa_supplicant/wpa_supplicant\driver_i.h **** {
 834:C:/Users/stapi/OneDrive/Desktop/GD32VW553/V1_MQTT_OK/GD32VW55X_Wifi_BLE_SDK/GD32VW55x_RELEASE_V1.0.2/MSDK/wpa_supplicant/wpa_supplicant\driver_i.h **** 	if (!wpa_s->driver->get_transmit_next_pn)
 835:C:/Users/stapi/OneDrive/Desktop/GD32VW553/V1_MQTT_OK/GD32VW55X_Wifi_BLE_SDK/GD32VW55x_RELEASE_V1.0.2/MSDK/wpa_supplicant/wpa_supplicant\driver_i.h **** 		return -1;
 836:C:/Users/stapi/OneDrive/Desktop/GD32VW553/V1_MQTT_OK/GD32VW55X_Wifi_BLE_SDK/GD32VW55x_RELEASE_V1.0.2/MSDK/wpa_supplicant/wpa_supplicant\driver_i.h **** 	return wpa_s->driver->get_transmit_next_pn(wpa_s->drv_priv, sa);
 837:C:/Users/stapi/OneDrive/Desktop/GD32VW553/V1_MQTT_OK/GD32VW55X_Wifi_BLE_SDK/GD32VW55x_RELEASE_V1.0.2/MSDK/wpa_supplicant/wpa_supplicant\driver_i.h **** }
 838:C:/Users/stapi/OneDrive/Desktop/GD32VW553/V1_MQTT_OK/GD32VW55X_Wifi_BLE_SDK/GD32VW55x_RELEASE_V1.0.2/MSDK/wpa_supplicant/wpa_supplicant\driver_i.h **** 
 839:C:/Users/stapi/OneDrive/Desktop/GD32VW553/V1_MQTT_OK/GD32VW55X_Wifi_BLE_SDK/GD32VW55x_RELEASE_V1.0.2/MSDK/wpa_supplicant/wpa_supplicant\driver_i.h **** static inline int wpa_drv_set_transmit_next_pn(struct wpa_supplicant *wpa_s,
 840:C:/Users/stapi/OneDrive/Desktop/GD32VW553/V1_MQTT_OK/GD32VW55X_Wifi_BLE_SDK/GD32VW55x_RELEASE_V1.0.2/MSDK/wpa_supplicant/wpa_supplicant\driver_i.h **** 						struct transmit_sa *sa)
 841:C:/Users/stapi/OneDrive/Desktop/GD32VW553/V1_MQTT_OK/GD32VW55X_Wifi_BLE_SDK/GD32VW55x_RELEASE_V1.0.2/MSDK/wpa_supplicant/wpa_supplicant\driver_i.h **** {
 842:C:/Users/stapi/OneDrive/Desktop/GD32VW553/V1_MQTT_OK/GD32VW55X_Wifi_BLE_SDK/GD32VW55x_RELEASE_V1.0.2/MSDK/wpa_supplicant/wpa_supplicant\driver_i.h **** 	if (!wpa_s->driver->set_transmit_next_pn)
 843:C:/Users/stapi/OneDrive/Desktop/GD32VW553/V1_MQTT_OK/GD32VW55X_Wifi_BLE_SDK/GD32VW55x_RELEASE_V1.0.2/MSDK/wpa_supplicant/wpa_supplicant\driver_i.h **** 		return -1;
 844:C:/Users/stapi/OneDrive/Desktop/GD32VW553/V1_MQTT_OK/GD32VW55X_Wifi_BLE_SDK/GD32VW55x_RELEASE_V1.0.2/MSDK/wpa_supplicant/wpa_supplicant\driver_i.h **** 	return wpa_s->driver->set_transmit_next_pn(wpa_s->drv_priv, sa);
 845:C:/Users/stapi/OneDrive/Desktop/GD32VW553/V1_MQTT_OK/GD32VW55X_Wifi_BLE_SDK/GD32VW55x_RELEASE_V1.0.2/MSDK/wpa_supplicant/wpa_supplicant\driver_i.h **** }
 846:C:/Users/stapi/OneDrive/Desktop/GD32VW553/V1_MQTT_OK/GD32VW55X_Wifi_BLE_SDK/GD32VW55x_RELEASE_V1.0.2/MSDK/wpa_supplicant/wpa_supplicant\driver_i.h **** 
 847:C:/Users/stapi/OneDrive/Desktop/GD32VW553/V1_MQTT_OK/GD32VW55X_Wifi_BLE_SDK/GD32VW55x_RELEASE_V1.0.2/MSDK/wpa_supplicant/wpa_supplicant\driver_i.h **** static inline int wpa_drv_set_receive_lowest_pn(struct wpa_supplicant *wpa_s,
 848:C:/Users/stapi/OneDrive/Desktop/GD32VW553/V1_MQTT_OK/GD32VW55X_Wifi_BLE_SDK/GD32VW55x_RELEASE_V1.0.2/MSDK/wpa_supplicant/wpa_supplicant\driver_i.h **** 						struct receive_sa *sa)
 849:C:/Users/stapi/OneDrive/Desktop/GD32VW553/V1_MQTT_OK/GD32VW55X_Wifi_BLE_SDK/GD32VW55x_RELEASE_V1.0.2/MSDK/wpa_supplicant/wpa_supplicant\driver_i.h **** {
 850:C:/Users/stapi/OneDrive/Desktop/GD32VW553/V1_MQTT_OK/GD32VW55X_Wifi_BLE_SDK/GD32VW55x_RELEASE_V1.0.2/MSDK/wpa_supplicant/wpa_supplicant\driver_i.h **** 	if (!wpa_s->driver->set_receive_lowest_pn)
 851:C:/Users/stapi/OneDrive/Desktop/GD32VW553/V1_MQTT_OK/GD32VW55X_Wifi_BLE_SDK/GD32VW55x_RELEASE_V1.0.2/MSDK/wpa_supplicant/wpa_supplicant\driver_i.h **** 		return -1;
 852:C:/Users/stapi/OneDrive/Desktop/GD32VW553/V1_MQTT_OK/GD32VW55X_Wifi_BLE_SDK/GD32VW55x_RELEASE_V1.0.2/MSDK/wpa_supplicant/wpa_supplicant\driver_i.h **** 	return wpa_s->driver->set_receive_lowest_pn(wpa_s->drv_priv, sa);
 853:C:/Users/stapi/OneDrive/Desktop/GD32VW553/V1_MQTT_OK/GD32VW55X_Wifi_BLE_SDK/GD32VW55x_RELEASE_V1.0.2/MSDK/wpa_supplicant/wpa_supplicant\driver_i.h **** }
 854:C:/Users/stapi/OneDrive/Desktop/GD32VW553/V1_MQTT_OK/GD32VW55X_Wifi_BLE_SDK/GD32VW55x_RELEASE_V1.0.2/MSDK/wpa_supplicant/wpa_supplicant\driver_i.h **** 
 855:C:/Users/stapi/OneDrive/Desktop/GD32VW553/V1_MQTT_OK/GD32VW55X_Wifi_BLE_SDK/GD32VW55x_RELEASE_V1.0.2/MSDK/wpa_supplicant/wpa_supplicant\driver_i.h **** static inline int
 856:C:/Users/stapi/OneDrive/Desktop/GD32VW553/V1_MQTT_OK/GD32VW55X_Wifi_BLE_SDK/GD32VW55x_RELEASE_V1.0.2/MSDK/wpa_supplicant/wpa_supplicant\driver_i.h **** wpa_drv_create_receive_sc(struct wpa_supplicant *wpa_s, struct receive_sc *sc,
 857:C:/Users/stapi/OneDrive/Desktop/GD32VW553/V1_MQTT_OK/GD32VW55X_Wifi_BLE_SDK/GD32VW55x_RELEASE_V1.0.2/MSDK/wpa_supplicant/wpa_supplicant\driver_i.h **** 			  unsigned int conf_offset, int validation)
 858:C:/Users/stapi/OneDrive/Desktop/GD32VW553/V1_MQTT_OK/GD32VW55X_Wifi_BLE_SDK/GD32VW55x_RELEASE_V1.0.2/MSDK/wpa_supplicant/wpa_supplicant\driver_i.h **** {
 859:C:/Users/stapi/OneDrive/Desktop/GD32VW553/V1_MQTT_OK/GD32VW55X_Wifi_BLE_SDK/GD32VW55x_RELEASE_V1.0.2/MSDK/wpa_supplicant/wpa_supplicant\driver_i.h **** 	if (!wpa_s->driver->create_receive_sc)
 860:C:/Users/stapi/OneDrive/Desktop/GD32VW553/V1_MQTT_OK/GD32VW55X_Wifi_BLE_SDK/GD32VW55x_RELEASE_V1.0.2/MSDK/wpa_supplicant/wpa_supplicant\driver_i.h **** 		return -1;
 861:C:/Users/stapi/OneDrive/Desktop/GD32VW553/V1_MQTT_OK/GD32VW55X_Wifi_BLE_SDK/GD32VW55x_RELEASE_V1.0.2/MSDK/wpa_supplicant/wpa_supplicant\driver_i.h **** 	return wpa_s->driver->create_receive_sc(wpa_s->drv_priv, sc,
 862:C:/Users/stapi/OneDrive/Desktop/GD32VW553/V1_MQTT_OK/GD32VW55X_Wifi_BLE_SDK/GD32VW55x_RELEASE_V1.0.2/MSDK/wpa_supplicant/wpa_supplicant\driver_i.h **** 						conf_offset, validation);
 863:C:/Users/stapi/OneDrive/Desktop/GD32VW553/V1_MQTT_OK/GD32VW55X_Wifi_BLE_SDK/GD32VW55x_RELEASE_V1.0.2/MSDK/wpa_supplicant/wpa_supplicant\driver_i.h **** }
 864:C:/Users/stapi/OneDrive/Desktop/GD32VW553/V1_MQTT_OK/GD32VW55X_Wifi_BLE_SDK/GD32VW55x_RELEASE_V1.0.2/MSDK/wpa_supplicant/wpa_supplicant\driver_i.h **** 
 865:C:/Users/stapi/OneDrive/Desktop/GD32VW553/V1_MQTT_OK/GD32VW55X_Wifi_BLE_SDK/GD32VW55x_RELEASE_V1.0.2/MSDK/wpa_supplicant/wpa_supplicant\driver_i.h **** static inline int wpa_drv_delete_receive_sc(struct wpa_supplicant *wpa_s,
 866:C:/Users/stapi/OneDrive/Desktop/GD32VW553/V1_MQTT_OK/GD32VW55X_Wifi_BLE_SDK/GD32VW55x_RELEASE_V1.0.2/MSDK/wpa_supplicant/wpa_supplicant\driver_i.h **** 					    struct receive_sc *sc)
 867:C:/Users/stapi/OneDrive/Desktop/GD32VW553/V1_MQTT_OK/GD32VW55X_Wifi_BLE_SDK/GD32VW55x_RELEASE_V1.0.2/MSDK/wpa_supplicant/wpa_supplicant\driver_i.h **** {
 868:C:/Users/stapi/OneDrive/Desktop/GD32VW553/V1_MQTT_OK/GD32VW55X_Wifi_BLE_SDK/GD32VW55x_RELEASE_V1.0.2/MSDK/wpa_supplicant/wpa_supplicant\driver_i.h **** 	if (!wpa_s->driver->delete_receive_sc)
 869:C:/Users/stapi/OneDrive/Desktop/GD32VW553/V1_MQTT_OK/GD32VW55X_Wifi_BLE_SDK/GD32VW55x_RELEASE_V1.0.2/MSDK/wpa_supplicant/wpa_supplicant\driver_i.h **** 		return -1;
 870:C:/Users/stapi/OneDrive/Desktop/GD32VW553/V1_MQTT_OK/GD32VW55X_Wifi_BLE_SDK/GD32VW55x_RELEASE_V1.0.2/MSDK/wpa_supplicant/wpa_supplicant\driver_i.h **** 	return wpa_s->driver->delete_receive_sc(wpa_s->drv_priv, sc);
 871:C:/Users/stapi/OneDrive/Desktop/GD32VW553/V1_MQTT_OK/GD32VW55X_Wifi_BLE_SDK/GD32VW55x_RELEASE_V1.0.2/MSDK/wpa_supplicant/wpa_supplicant\driver_i.h **** }
 872:C:/Users/stapi/OneDrive/Desktop/GD32VW553/V1_MQTT_OK/GD32VW55X_Wifi_BLE_SDK/GD32VW55x_RELEASE_V1.0.2/MSDK/wpa_supplicant/wpa_supplicant\driver_i.h **** 
 873:C:/Users/stapi/OneDrive/Desktop/GD32VW553/V1_MQTT_OK/GD32VW55X_Wifi_BLE_SDK/GD32VW55x_RELEASE_V1.0.2/MSDK/wpa_supplicant/wpa_supplicant\driver_i.h **** static inline int wpa_drv_create_receive_sa(struct wpa_supplicant *wpa_s,
 874:C:/Users/stapi/OneDrive/Desktop/GD32VW553/V1_MQTT_OK/GD32VW55X_Wifi_BLE_SDK/GD32VW55x_RELEASE_V1.0.2/MSDK/wpa_supplicant/wpa_supplicant\driver_i.h **** 					    struct receive_sa *sa)
 875:C:/Users/stapi/OneDrive/Desktop/GD32VW553/V1_MQTT_OK/GD32VW55X_Wifi_BLE_SDK/GD32VW55x_RELEASE_V1.0.2/MSDK/wpa_supplicant/wpa_supplicant\driver_i.h **** {
 876:C:/Users/stapi/OneDrive/Desktop/GD32VW553/V1_MQTT_OK/GD32VW55X_Wifi_BLE_SDK/GD32VW55x_RELEASE_V1.0.2/MSDK/wpa_supplicant/wpa_supplicant\driver_i.h **** 	if (!wpa_s->driver->create_receive_sa)
 877:C:/Users/stapi/OneDrive/Desktop/GD32VW553/V1_MQTT_OK/GD32VW55X_Wifi_BLE_SDK/GD32VW55x_RELEASE_V1.0.2/MSDK/wpa_supplicant/wpa_supplicant\driver_i.h **** 		return -1;
 878:C:/Users/stapi/OneDrive/Desktop/GD32VW553/V1_MQTT_OK/GD32VW55X_Wifi_BLE_SDK/GD32VW55x_RELEASE_V1.0.2/MSDK/wpa_supplicant/wpa_supplicant\driver_i.h **** 	return wpa_s->driver->create_receive_sa(wpa_s->drv_priv, sa);
 879:C:/Users/stapi/OneDrive/Desktop/GD32VW553/V1_MQTT_OK/GD32VW55X_Wifi_BLE_SDK/GD32VW55x_RELEASE_V1.0.2/MSDK/wpa_supplicant/wpa_supplicant\driver_i.h **** }
 880:C:/Users/stapi/OneDrive/Desktop/GD32VW553/V1_MQTT_OK/GD32VW55X_Wifi_BLE_SDK/GD32VW55x_RELEASE_V1.0.2/MSDK/wpa_supplicant/wpa_supplicant\driver_i.h **** 
 881:C:/Users/stapi/OneDrive/Desktop/GD32VW553/V1_MQTT_OK/GD32VW55X_Wifi_BLE_SDK/GD32VW55x_RELEASE_V1.0.2/MSDK/wpa_supplicant/wpa_supplicant\driver_i.h **** static inline int wpa_drv_delete_receive_sa(struct wpa_supplicant *wpa_s,
 882:C:/Users/stapi/OneDrive/Desktop/GD32VW553/V1_MQTT_OK/GD32VW55X_Wifi_BLE_SDK/GD32VW55x_RELEASE_V1.0.2/MSDK/wpa_supplicant/wpa_supplicant\driver_i.h **** 					    struct receive_sa *sa)
 883:C:/Users/stapi/OneDrive/Desktop/GD32VW553/V1_MQTT_OK/GD32VW55X_Wifi_BLE_SDK/GD32VW55x_RELEASE_V1.0.2/MSDK/wpa_supplicant/wpa_supplicant\driver_i.h **** {
 884:C:/Users/stapi/OneDrive/Desktop/GD32VW553/V1_MQTT_OK/GD32VW55X_Wifi_BLE_SDK/GD32VW55x_RELEASE_V1.0.2/MSDK/wpa_supplicant/wpa_supplicant\driver_i.h **** 	if (!wpa_s->driver->delete_receive_sa)
 885:C:/Users/stapi/OneDrive/Desktop/GD32VW553/V1_MQTT_OK/GD32VW55X_Wifi_BLE_SDK/GD32VW55x_RELEASE_V1.0.2/MSDK/wpa_supplicant/wpa_supplicant\driver_i.h **** 		return -1;
 886:C:/Users/stapi/OneDrive/Desktop/GD32VW553/V1_MQTT_OK/GD32VW55X_Wifi_BLE_SDK/GD32VW55x_RELEASE_V1.0.2/MSDK/wpa_supplicant/wpa_supplicant\driver_i.h **** 	return wpa_s->driver->delete_receive_sa(wpa_s->drv_priv, sa);
 887:C:/Users/stapi/OneDrive/Desktop/GD32VW553/V1_MQTT_OK/GD32VW55X_Wifi_BLE_SDK/GD32VW55x_RELEASE_V1.0.2/MSDK/wpa_supplicant/wpa_supplicant\driver_i.h **** }
 888:C:/Users/stapi/OneDrive/Desktop/GD32VW553/V1_MQTT_OK/GD32VW55X_Wifi_BLE_SDK/GD32VW55x_RELEASE_V1.0.2/MSDK/wpa_supplicant/wpa_supplicant\driver_i.h **** 
 889:C:/Users/stapi/OneDrive/Desktop/GD32VW553/V1_MQTT_OK/GD32VW55X_Wifi_BLE_SDK/GD32VW55x_RELEASE_V1.0.2/MSDK/wpa_supplicant/wpa_supplicant\driver_i.h **** static inline int wpa_drv_enable_receive_sa(struct wpa_supplicant *wpa_s,
 890:C:/Users/stapi/OneDrive/Desktop/GD32VW553/V1_MQTT_OK/GD32VW55X_Wifi_BLE_SDK/GD32VW55x_RELEASE_V1.0.2/MSDK/wpa_supplicant/wpa_supplicant\driver_i.h **** 					    struct receive_sa *sa)
 891:C:/Users/stapi/OneDrive/Desktop/GD32VW553/V1_MQTT_OK/GD32VW55X_Wifi_BLE_SDK/GD32VW55x_RELEASE_V1.0.2/MSDK/wpa_supplicant/wpa_supplicant\driver_i.h **** {
 892:C:/Users/stapi/OneDrive/Desktop/GD32VW553/V1_MQTT_OK/GD32VW55X_Wifi_BLE_SDK/GD32VW55x_RELEASE_V1.0.2/MSDK/wpa_supplicant/wpa_supplicant\driver_i.h **** 	if (!wpa_s->driver->enable_receive_sa)
 893:C:/Users/stapi/OneDrive/Desktop/GD32VW553/V1_MQTT_OK/GD32VW55X_Wifi_BLE_SDK/GD32VW55x_RELEASE_V1.0.2/MSDK/wpa_supplicant/wpa_supplicant\driver_i.h **** 		return -1;
 894:C:/Users/stapi/OneDrive/Desktop/GD32VW553/V1_MQTT_OK/GD32VW55X_Wifi_BLE_SDK/GD32VW55x_RELEASE_V1.0.2/MSDK/wpa_supplicant/wpa_supplicant\driver_i.h **** 	return wpa_s->driver->enable_receive_sa(wpa_s->drv_priv, sa);
 895:C:/Users/stapi/OneDrive/Desktop/GD32VW553/V1_MQTT_OK/GD32VW55X_Wifi_BLE_SDK/GD32VW55x_RELEASE_V1.0.2/MSDK/wpa_supplicant/wpa_supplicant\driver_i.h **** }
 896:C:/Users/stapi/OneDrive/Desktop/GD32VW553/V1_MQTT_OK/GD32VW55X_Wifi_BLE_SDK/GD32VW55x_RELEASE_V1.0.2/MSDK/wpa_supplicant/wpa_supplicant\driver_i.h **** 
 897:C:/Users/stapi/OneDrive/Desktop/GD32VW553/V1_MQTT_OK/GD32VW55X_Wifi_BLE_SDK/GD32VW55x_RELEASE_V1.0.2/MSDK/wpa_supplicant/wpa_supplicant\driver_i.h **** static inline int wpa_drv_disable_receive_sa(struct wpa_supplicant *wpa_s,
 898:C:/Users/stapi/OneDrive/Desktop/GD32VW553/V1_MQTT_OK/GD32VW55X_Wifi_BLE_SDK/GD32VW55x_RELEASE_V1.0.2/MSDK/wpa_supplicant/wpa_supplicant\driver_i.h **** 					     struct receive_sa *sa)
 899:C:/Users/stapi/OneDrive/Desktop/GD32VW553/V1_MQTT_OK/GD32VW55X_Wifi_BLE_SDK/GD32VW55x_RELEASE_V1.0.2/MSDK/wpa_supplicant/wpa_supplicant\driver_i.h **** {
 900:C:/Users/stapi/OneDrive/Desktop/GD32VW553/V1_MQTT_OK/GD32VW55X_Wifi_BLE_SDK/GD32VW55x_RELEASE_V1.0.2/MSDK/wpa_supplicant/wpa_supplicant\driver_i.h **** 	if (!wpa_s->driver->disable_receive_sa)
 901:C:/Users/stapi/OneDrive/Desktop/GD32VW553/V1_MQTT_OK/GD32VW55X_Wifi_BLE_SDK/GD32VW55x_RELEASE_V1.0.2/MSDK/wpa_supplicant/wpa_supplicant\driver_i.h **** 		return -1;
 902:C:/Users/stapi/OneDrive/Desktop/GD32VW553/V1_MQTT_OK/GD32VW55X_Wifi_BLE_SDK/GD32VW55x_RELEASE_V1.0.2/MSDK/wpa_supplicant/wpa_supplicant\driver_i.h **** 	return wpa_s->driver->disable_receive_sa(wpa_s->drv_priv, sa);
 903:C:/Users/stapi/OneDrive/Desktop/GD32VW553/V1_MQTT_OK/GD32VW55X_Wifi_BLE_SDK/GD32VW55x_RELEASE_V1.0.2/MSDK/wpa_supplicant/wpa_supplicant\driver_i.h **** }
 904:C:/Users/stapi/OneDrive/Desktop/GD32VW553/V1_MQTT_OK/GD32VW55X_Wifi_BLE_SDK/GD32VW55x_RELEASE_V1.0.2/MSDK/wpa_supplicant/wpa_supplicant\driver_i.h **** 
 905:C:/Users/stapi/OneDrive/Desktop/GD32VW553/V1_MQTT_OK/GD32VW55X_Wifi_BLE_SDK/GD32VW55x_RELEASE_V1.0.2/MSDK/wpa_supplicant/wpa_supplicant\driver_i.h **** static inline int
 906:C:/Users/stapi/OneDrive/Desktop/GD32VW553/V1_MQTT_OK/GD32VW55X_Wifi_BLE_SDK/GD32VW55x_RELEASE_V1.0.2/MSDK/wpa_supplicant/wpa_supplicant\driver_i.h **** wpa_drv_create_transmit_sc(struct wpa_supplicant *wpa_s, struct transmit_sc *sc,
 907:C:/Users/stapi/OneDrive/Desktop/GD32VW553/V1_MQTT_OK/GD32VW55X_Wifi_BLE_SDK/GD32VW55x_RELEASE_V1.0.2/MSDK/wpa_supplicant/wpa_supplicant\driver_i.h **** 			   unsigned int conf_offset)
 908:C:/Users/stapi/OneDrive/Desktop/GD32VW553/V1_MQTT_OK/GD32VW55X_Wifi_BLE_SDK/GD32VW55x_RELEASE_V1.0.2/MSDK/wpa_supplicant/wpa_supplicant\driver_i.h **** {
 909:C:/Users/stapi/OneDrive/Desktop/GD32VW553/V1_MQTT_OK/GD32VW55X_Wifi_BLE_SDK/GD32VW55x_RELEASE_V1.0.2/MSDK/wpa_supplicant/wpa_supplicant\driver_i.h **** 	if (!wpa_s->driver->create_transmit_sc)
 910:C:/Users/stapi/OneDrive/Desktop/GD32VW553/V1_MQTT_OK/GD32VW55X_Wifi_BLE_SDK/GD32VW55x_RELEASE_V1.0.2/MSDK/wpa_supplicant/wpa_supplicant\driver_i.h **** 		return -1;
 911:C:/Users/stapi/OneDrive/Desktop/GD32VW553/V1_MQTT_OK/GD32VW55X_Wifi_BLE_SDK/GD32VW55x_RELEASE_V1.0.2/MSDK/wpa_supplicant/wpa_supplicant\driver_i.h **** 	return wpa_s->driver->create_transmit_sc(wpa_s->drv_priv, sc,
 912:C:/Users/stapi/OneDrive/Desktop/GD32VW553/V1_MQTT_OK/GD32VW55X_Wifi_BLE_SDK/GD32VW55x_RELEASE_V1.0.2/MSDK/wpa_supplicant/wpa_supplicant\driver_i.h **** 						 conf_offset);
 913:C:/Users/stapi/OneDrive/Desktop/GD32VW553/V1_MQTT_OK/GD32VW55X_Wifi_BLE_SDK/GD32VW55x_RELEASE_V1.0.2/MSDK/wpa_supplicant/wpa_supplicant\driver_i.h **** }
 914:C:/Users/stapi/OneDrive/Desktop/GD32VW553/V1_MQTT_OK/GD32VW55X_Wifi_BLE_SDK/GD32VW55x_RELEASE_V1.0.2/MSDK/wpa_supplicant/wpa_supplicant\driver_i.h **** 
 915:C:/Users/stapi/OneDrive/Desktop/GD32VW553/V1_MQTT_OK/GD32VW55X_Wifi_BLE_SDK/GD32VW55x_RELEASE_V1.0.2/MSDK/wpa_supplicant/wpa_supplicant\driver_i.h **** static inline int wpa_drv_delete_transmit_sc(struct wpa_supplicant *wpa_s,
 916:C:/Users/stapi/OneDrive/Desktop/GD32VW553/V1_MQTT_OK/GD32VW55X_Wifi_BLE_SDK/GD32VW55x_RELEASE_V1.0.2/MSDK/wpa_supplicant/wpa_supplicant\driver_i.h **** 					     struct transmit_sc *sc)
 917:C:/Users/stapi/OneDrive/Desktop/GD32VW553/V1_MQTT_OK/GD32VW55X_Wifi_BLE_SDK/GD32VW55x_RELEASE_V1.0.2/MSDK/wpa_supplicant/wpa_supplicant\driver_i.h **** {
 918:C:/Users/stapi/OneDrive/Desktop/GD32VW553/V1_MQTT_OK/GD32VW55X_Wifi_BLE_SDK/GD32VW55x_RELEASE_V1.0.2/MSDK/wpa_supplicant/wpa_supplicant\driver_i.h **** 	if (!wpa_s->driver->delete_transmit_sc)
 919:C:/Users/stapi/OneDrive/Desktop/GD32VW553/V1_MQTT_OK/GD32VW55X_Wifi_BLE_SDK/GD32VW55x_RELEASE_V1.0.2/MSDK/wpa_supplicant/wpa_supplicant\driver_i.h **** 		return -1;
 920:C:/Users/stapi/OneDrive/Desktop/GD32VW553/V1_MQTT_OK/GD32VW55X_Wifi_BLE_SDK/GD32VW55x_RELEASE_V1.0.2/MSDK/wpa_supplicant/wpa_supplicant\driver_i.h **** 	return wpa_s->driver->delete_transmit_sc(wpa_s->drv_priv, sc);
 921:C:/Users/stapi/OneDrive/Desktop/GD32VW553/V1_MQTT_OK/GD32VW55X_Wifi_BLE_SDK/GD32VW55x_RELEASE_V1.0.2/MSDK/wpa_supplicant/wpa_supplicant\driver_i.h **** }
 922:C:/Users/stapi/OneDrive/Desktop/GD32VW553/V1_MQTT_OK/GD32VW55X_Wifi_BLE_SDK/GD32VW55x_RELEASE_V1.0.2/MSDK/wpa_supplicant/wpa_supplicant\driver_i.h **** 
 923:C:/Users/stapi/OneDrive/Desktop/GD32VW553/V1_MQTT_OK/GD32VW55X_Wifi_BLE_SDK/GD32VW55x_RELEASE_V1.0.2/MSDK/wpa_supplicant/wpa_supplicant\driver_i.h **** static inline int wpa_drv_create_transmit_sa(struct wpa_supplicant *wpa_s,
 924:C:/Users/stapi/OneDrive/Desktop/GD32VW553/V1_MQTT_OK/GD32VW55X_Wifi_BLE_SDK/GD32VW55x_RELEASE_V1.0.2/MSDK/wpa_supplicant/wpa_supplicant\driver_i.h **** 					     struct transmit_sa *sa)
 925:C:/Users/stapi/OneDrive/Desktop/GD32VW553/V1_MQTT_OK/GD32VW55X_Wifi_BLE_SDK/GD32VW55x_RELEASE_V1.0.2/MSDK/wpa_supplicant/wpa_supplicant\driver_i.h **** {
 926:C:/Users/stapi/OneDrive/Desktop/GD32VW553/V1_MQTT_OK/GD32VW55X_Wifi_BLE_SDK/GD32VW55x_RELEASE_V1.0.2/MSDK/wpa_supplicant/wpa_supplicant\driver_i.h **** 	if (!wpa_s->driver->create_transmit_sa)
 927:C:/Users/stapi/OneDrive/Desktop/GD32VW553/V1_MQTT_OK/GD32VW55X_Wifi_BLE_SDK/GD32VW55x_RELEASE_V1.0.2/MSDK/wpa_supplicant/wpa_supplicant\driver_i.h **** 		return -1;
 928:C:/Users/stapi/OneDrive/Desktop/GD32VW553/V1_MQTT_OK/GD32VW55X_Wifi_BLE_SDK/GD32VW55x_RELEASE_V1.0.2/MSDK/wpa_supplicant/wpa_supplicant\driver_i.h **** 	return wpa_s->driver->create_transmit_sa(wpa_s->drv_priv, sa);
 929:C:/Users/stapi/OneDrive/Desktop/GD32VW553/V1_MQTT_OK/GD32VW55X_Wifi_BLE_SDK/GD32VW55x_RELEASE_V1.0.2/MSDK/wpa_supplicant/wpa_supplicant\driver_i.h **** }
 930:C:/Users/stapi/OneDrive/Desktop/GD32VW553/V1_MQTT_OK/GD32VW55X_Wifi_BLE_SDK/GD32VW55x_RELEASE_V1.0.2/MSDK/wpa_supplicant/wpa_supplicant\driver_i.h **** 
 931:C:/Users/stapi/OneDrive/Desktop/GD32VW553/V1_MQTT_OK/GD32VW55X_Wifi_BLE_SDK/GD32VW55x_RELEASE_V1.0.2/MSDK/wpa_supplicant/wpa_supplicant\driver_i.h **** static inline int wpa_drv_delete_transmit_sa(struct wpa_supplicant *wpa_s,
 932:C:/Users/stapi/OneDrive/Desktop/GD32VW553/V1_MQTT_OK/GD32VW55X_Wifi_BLE_SDK/GD32VW55x_RELEASE_V1.0.2/MSDK/wpa_supplicant/wpa_supplicant\driver_i.h **** 					     struct transmit_sa *sa)
 933:C:/Users/stapi/OneDrive/Desktop/GD32VW553/V1_MQTT_OK/GD32VW55X_Wifi_BLE_SDK/GD32VW55x_RELEASE_V1.0.2/MSDK/wpa_supplicant/wpa_supplicant\driver_i.h **** {
 934:C:/Users/stapi/OneDrive/Desktop/GD32VW553/V1_MQTT_OK/GD32VW55X_Wifi_BLE_SDK/GD32VW55x_RELEASE_V1.0.2/MSDK/wpa_supplicant/wpa_supplicant\driver_i.h **** 	if (!wpa_s->driver->delete_transmit_sa)
 935:C:/Users/stapi/OneDrive/Desktop/GD32VW553/V1_MQTT_OK/GD32VW55X_Wifi_BLE_SDK/GD32VW55x_RELEASE_V1.0.2/MSDK/wpa_supplicant/wpa_supplicant\driver_i.h **** 		return -1;
 936:C:/Users/stapi/OneDrive/Desktop/GD32VW553/V1_MQTT_OK/GD32VW55X_Wifi_BLE_SDK/GD32VW55x_RELEASE_V1.0.2/MSDK/wpa_supplicant/wpa_supplicant\driver_i.h **** 	return wpa_s->driver->delete_transmit_sa(wpa_s->drv_priv, sa);
 937:C:/Users/stapi/OneDrive/Desktop/GD32VW553/V1_MQTT_OK/GD32VW55X_Wifi_BLE_SDK/GD32VW55x_RELEASE_V1.0.2/MSDK/wpa_supplicant/wpa_supplicant\driver_i.h **** }
 938:C:/Users/stapi/OneDrive/Desktop/GD32VW553/V1_MQTT_OK/GD32VW55X_Wifi_BLE_SDK/GD32VW55x_RELEASE_V1.0.2/MSDK/wpa_supplicant/wpa_supplicant\driver_i.h **** 
 939:C:/Users/stapi/OneDrive/Desktop/GD32VW553/V1_MQTT_OK/GD32VW55X_Wifi_BLE_SDK/GD32VW55x_RELEASE_V1.0.2/MSDK/wpa_supplicant/wpa_supplicant\driver_i.h **** static inline int wpa_drv_enable_transmit_sa(struct wpa_supplicant *wpa_s,
 940:C:/Users/stapi/OneDrive/Desktop/GD32VW553/V1_MQTT_OK/GD32VW55X_Wifi_BLE_SDK/GD32VW55x_RELEASE_V1.0.2/MSDK/wpa_supplicant/wpa_supplicant\driver_i.h **** 					     struct transmit_sa *sa)
 941:C:/Users/stapi/OneDrive/Desktop/GD32VW553/V1_MQTT_OK/GD32VW55X_Wifi_BLE_SDK/GD32VW55x_RELEASE_V1.0.2/MSDK/wpa_supplicant/wpa_supplicant\driver_i.h **** {
 942:C:/Users/stapi/OneDrive/Desktop/GD32VW553/V1_MQTT_OK/GD32VW55X_Wifi_BLE_SDK/GD32VW55x_RELEASE_V1.0.2/MSDK/wpa_supplicant/wpa_supplicant\driver_i.h **** 	if (!wpa_s->driver->enable_transmit_sa)
 943:C:/Users/stapi/OneDrive/Desktop/GD32VW553/V1_MQTT_OK/GD32VW55X_Wifi_BLE_SDK/GD32VW55x_RELEASE_V1.0.2/MSDK/wpa_supplicant/wpa_supplicant\driver_i.h **** 		return -1;
 944:C:/Users/stapi/OneDrive/Desktop/GD32VW553/V1_MQTT_OK/GD32VW55X_Wifi_BLE_SDK/GD32VW55x_RELEASE_V1.0.2/MSDK/wpa_supplicant/wpa_supplicant\driver_i.h **** 	return wpa_s->driver->enable_transmit_sa(wpa_s->drv_priv, sa);
 945:C:/Users/stapi/OneDrive/Desktop/GD32VW553/V1_MQTT_OK/GD32VW55X_Wifi_BLE_SDK/GD32VW55x_RELEASE_V1.0.2/MSDK/wpa_supplicant/wpa_supplicant\driver_i.h **** }
 946:C:/Users/stapi/OneDrive/Desktop/GD32VW553/V1_MQTT_OK/GD32VW55X_Wifi_BLE_SDK/GD32VW55x_RELEASE_V1.0.2/MSDK/wpa_supplicant/wpa_supplicant\driver_i.h **** 
 947:C:/Users/stapi/OneDrive/Desktop/GD32VW553/V1_MQTT_OK/GD32VW55X_Wifi_BLE_SDK/GD32VW55x_RELEASE_V1.0.2/MSDK/wpa_supplicant/wpa_supplicant\driver_i.h **** static inline int wpa_drv_disable_transmit_sa(struct wpa_supplicant *wpa_s,
 948:C:/Users/stapi/OneDrive/Desktop/GD32VW553/V1_MQTT_OK/GD32VW55X_Wifi_BLE_SDK/GD32VW55x_RELEASE_V1.0.2/MSDK/wpa_supplicant/wpa_supplicant\driver_i.h **** 					      struct transmit_sa *sa)
 949:C:/Users/stapi/OneDrive/Desktop/GD32VW553/V1_MQTT_OK/GD32VW55X_Wifi_BLE_SDK/GD32VW55x_RELEASE_V1.0.2/MSDK/wpa_supplicant/wpa_supplicant\driver_i.h **** {
 950:C:/Users/stapi/OneDrive/Desktop/GD32VW553/V1_MQTT_OK/GD32VW55X_Wifi_BLE_SDK/GD32VW55x_RELEASE_V1.0.2/MSDK/wpa_supplicant/wpa_supplicant\driver_i.h **** 	if (!wpa_s->driver->disable_transmit_sa)
 951:C:/Users/stapi/OneDrive/Desktop/GD32VW553/V1_MQTT_OK/GD32VW55X_Wifi_BLE_SDK/GD32VW55x_RELEASE_V1.0.2/MSDK/wpa_supplicant/wpa_supplicant\driver_i.h **** 		return -1;
 952:C:/Users/stapi/OneDrive/Desktop/GD32VW553/V1_MQTT_OK/GD32VW55X_Wifi_BLE_SDK/GD32VW55x_RELEASE_V1.0.2/MSDK/wpa_supplicant/wpa_supplicant\driver_i.h **** 	return wpa_s->driver->disable_transmit_sa(wpa_s->drv_priv, sa);
 953:C:/Users/stapi/OneDrive/Desktop/GD32VW553/V1_MQTT_OK/GD32VW55X_Wifi_BLE_SDK/GD32VW55x_RELEASE_V1.0.2/MSDK/wpa_supplicant/wpa_supplicant\driver_i.h **** }
 954:C:/Users/stapi/OneDrive/Desktop/GD32VW553/V1_MQTT_OK/GD32VW55X_Wifi_BLE_SDK/GD32VW55x_RELEASE_V1.0.2/MSDK/wpa_supplicant/wpa_supplicant\driver_i.h **** #endif /* CONFIG_MACSEC */
 955:C:/Users/stapi/OneDrive/Desktop/GD32VW553/V1_MQTT_OK/GD32VW55X_Wifi_BLE_SDK/GD32VW55x_RELEASE_V1.0.2/MSDK/wpa_supplicant/wpa_supplicant\driver_i.h **** 
 956:C:/Users/stapi/OneDrive/Desktop/GD32VW553/V1_MQTT_OK/GD32VW55X_Wifi_BLE_SDK/GD32VW55x_RELEASE_V1.0.2/MSDK/wpa_supplicant/wpa_supplicant\driver_i.h **** static inline int wpa_drv_setband(struct wpa_supplicant *wpa_s,
 957:C:/Users/stapi/OneDrive/Desktop/GD32VW553/V1_MQTT_OK/GD32VW55X_Wifi_BLE_SDK/GD32VW55x_RELEASE_V1.0.2/MSDK/wpa_supplicant/wpa_supplicant\driver_i.h **** 				  u32 band_mask)
 958:C:/Users/stapi/OneDrive/Desktop/GD32VW553/V1_MQTT_OK/GD32VW55X_Wifi_BLE_SDK/GD32VW55x_RELEASE_V1.0.2/MSDK/wpa_supplicant/wpa_supplicant\driver_i.h **** {
 959:C:/Users/stapi/OneDrive/Desktop/GD32VW553/V1_MQTT_OK/GD32VW55X_Wifi_BLE_SDK/GD32VW55x_RELEASE_V1.0.2/MSDK/wpa_supplicant/wpa_supplicant\driver_i.h **** 	if (!wpa_s->driver->set_band)
 960:C:/Users/stapi/OneDrive/Desktop/GD32VW553/V1_MQTT_OK/GD32VW55X_Wifi_BLE_SDK/GD32VW55x_RELEASE_V1.0.2/MSDK/wpa_supplicant/wpa_supplicant\driver_i.h **** 		return -1;
 961:C:/Users/stapi/OneDrive/Desktop/GD32VW553/V1_MQTT_OK/GD32VW55X_Wifi_BLE_SDK/GD32VW55x_RELEASE_V1.0.2/MSDK/wpa_supplicant/wpa_supplicant\driver_i.h **** 	return wpa_s->driver->set_band(wpa_s->drv_priv, band_mask);
 962:C:/Users/stapi/OneDrive/Desktop/GD32VW553/V1_MQTT_OK/GD32VW55X_Wifi_BLE_SDK/GD32VW55x_RELEASE_V1.0.2/MSDK/wpa_supplicant/wpa_supplicant\driver_i.h **** }
 963:C:/Users/stapi/OneDrive/Desktop/GD32VW553/V1_MQTT_OK/GD32VW55X_Wifi_BLE_SDK/GD32VW55x_RELEASE_V1.0.2/MSDK/wpa_supplicant/wpa_supplicant\driver_i.h **** 
 964:C:/Users/stapi/OneDrive/Desktop/GD32VW553/V1_MQTT_OK/GD32VW55X_Wifi_BLE_SDK/GD32VW55x_RELEASE_V1.0.2/MSDK/wpa_supplicant/wpa_supplicant\driver_i.h **** static inline int wpa_drv_get_pref_freq_list(struct wpa_supplicant *wpa_s,
 965:C:/Users/stapi/OneDrive/Desktop/GD32VW553/V1_MQTT_OK/GD32VW55X_Wifi_BLE_SDK/GD32VW55x_RELEASE_V1.0.2/MSDK/wpa_supplicant/wpa_supplicant\driver_i.h **** 					     enum wpa_driver_if_type if_type,
 966:C:/Users/stapi/OneDrive/Desktop/GD32VW553/V1_MQTT_OK/GD32VW55X_Wifi_BLE_SDK/GD32VW55x_RELEASE_V1.0.2/MSDK/wpa_supplicant/wpa_supplicant\driver_i.h **** 					     unsigned int *num,
 967:C:/Users/stapi/OneDrive/Desktop/GD32VW553/V1_MQTT_OK/GD32VW55X_Wifi_BLE_SDK/GD32VW55x_RELEASE_V1.0.2/MSDK/wpa_supplicant/wpa_supplicant\driver_i.h **** 					     unsigned int *freq_list)
 968:C:/Users/stapi/OneDrive/Desktop/GD32VW553/V1_MQTT_OK/GD32VW55X_Wifi_BLE_SDK/GD32VW55x_RELEASE_V1.0.2/MSDK/wpa_supplicant/wpa_supplicant\driver_i.h **** {
 969:C:/Users/stapi/OneDrive/Desktop/GD32VW553/V1_MQTT_OK/GD32VW55X_Wifi_BLE_SDK/GD32VW55x_RELEASE_V1.0.2/MSDK/wpa_supplicant/wpa_supplicant\driver_i.h **** #ifdef CONFIG_TESTING_OPTIONS
 970:C:/Users/stapi/OneDrive/Desktop/GD32VW553/V1_MQTT_OK/GD32VW55X_Wifi_BLE_SDK/GD32VW55x_RELEASE_V1.0.2/MSDK/wpa_supplicant/wpa_supplicant\driver_i.h **** 	if (wpa_s->get_pref_freq_list_override)
 971:C:/Users/stapi/OneDrive/Desktop/GD32VW553/V1_MQTT_OK/GD32VW55X_Wifi_BLE_SDK/GD32VW55x_RELEASE_V1.0.2/MSDK/wpa_supplicant/wpa_supplicant\driver_i.h **** 		return wpas_ctrl_iface_get_pref_freq_list_override(
 972:C:/Users/stapi/OneDrive/Desktop/GD32VW553/V1_MQTT_OK/GD32VW55X_Wifi_BLE_SDK/GD32VW55x_RELEASE_V1.0.2/MSDK/wpa_supplicant/wpa_supplicant\driver_i.h **** 			wpa_s, if_type, num, freq_list);
 973:C:/Users/stapi/OneDrive/Desktop/GD32VW553/V1_MQTT_OK/GD32VW55X_Wifi_BLE_SDK/GD32VW55x_RELEASE_V1.0.2/MSDK/wpa_supplicant/wpa_supplicant\driver_i.h **** #endif /* CONFIG_TESTING_OPTIONS */
 974:C:/Users/stapi/OneDrive/Desktop/GD32VW553/V1_MQTT_OK/GD32VW55X_Wifi_BLE_SDK/GD32VW55x_RELEASE_V1.0.2/MSDK/wpa_supplicant/wpa_supplicant\driver_i.h **** 	if (!wpa_s->driver->get_pref_freq_list)
 975:C:/Users/stapi/OneDrive/Desktop/GD32VW553/V1_MQTT_OK/GD32VW55X_Wifi_BLE_SDK/GD32VW55x_RELEASE_V1.0.2/MSDK/wpa_supplicant/wpa_supplicant\driver_i.h **** 		return -1;
 976:C:/Users/stapi/OneDrive/Desktop/GD32VW553/V1_MQTT_OK/GD32VW55X_Wifi_BLE_SDK/GD32VW55x_RELEASE_V1.0.2/MSDK/wpa_supplicant/wpa_supplicant\driver_i.h **** 	return wpa_s->driver->get_pref_freq_list(wpa_s->drv_priv, if_type,
 977:C:/Users/stapi/OneDrive/Desktop/GD32VW553/V1_MQTT_OK/GD32VW55X_Wifi_BLE_SDK/GD32VW55x_RELEASE_V1.0.2/MSDK/wpa_supplicant/wpa_supplicant\driver_i.h **** 						 num, freq_list);
 978:C:/Users/stapi/OneDrive/Desktop/GD32VW553/V1_MQTT_OK/GD32VW55X_Wifi_BLE_SDK/GD32VW55x_RELEASE_V1.0.2/MSDK/wpa_supplicant/wpa_supplicant\driver_i.h **** }
 979:C:/Users/stapi/OneDrive/Desktop/GD32VW553/V1_MQTT_OK/GD32VW55X_Wifi_BLE_SDK/GD32VW55x_RELEASE_V1.0.2/MSDK/wpa_supplicant/wpa_supplicant\driver_i.h **** 
 980:C:/Users/stapi/OneDrive/Desktop/GD32VW553/V1_MQTT_OK/GD32VW55X_Wifi_BLE_SDK/GD32VW55x_RELEASE_V1.0.2/MSDK/wpa_supplicant/wpa_supplicant\driver_i.h **** static inline int wpa_drv_set_prob_oper_freq(struct wpa_supplicant *wpa_s,
 981:C:/Users/stapi/OneDrive/Desktop/GD32VW553/V1_MQTT_OK/GD32VW55X_Wifi_BLE_SDK/GD32VW55x_RELEASE_V1.0.2/MSDK/wpa_supplicant/wpa_supplicant\driver_i.h **** 					     unsigned int freq)
 982:C:/Users/stapi/OneDrive/Desktop/GD32VW553/V1_MQTT_OK/GD32VW55X_Wifi_BLE_SDK/GD32VW55x_RELEASE_V1.0.2/MSDK/wpa_supplicant/wpa_supplicant\driver_i.h **** {
 983:C:/Users/stapi/OneDrive/Desktop/GD32VW553/V1_MQTT_OK/GD32VW55X_Wifi_BLE_SDK/GD32VW55x_RELEASE_V1.0.2/MSDK/wpa_supplicant/wpa_supplicant\driver_i.h **** 	if (!wpa_s->driver->set_prob_oper_freq)
 984:C:/Users/stapi/OneDrive/Desktop/GD32VW553/V1_MQTT_OK/GD32VW55X_Wifi_BLE_SDK/GD32VW55x_RELEASE_V1.0.2/MSDK/wpa_supplicant/wpa_supplicant\driver_i.h **** 		return 0;
 985:C:/Users/stapi/OneDrive/Desktop/GD32VW553/V1_MQTT_OK/GD32VW55X_Wifi_BLE_SDK/GD32VW55x_RELEASE_V1.0.2/MSDK/wpa_supplicant/wpa_supplicant\driver_i.h **** 	return wpa_s->driver->set_prob_oper_freq(wpa_s->drv_priv, freq);
 986:C:/Users/stapi/OneDrive/Desktop/GD32VW553/V1_MQTT_OK/GD32VW55X_Wifi_BLE_SDK/GD32VW55x_RELEASE_V1.0.2/MSDK/wpa_supplicant/wpa_supplicant\driver_i.h **** }
 987:C:/Users/stapi/OneDrive/Desktop/GD32VW553/V1_MQTT_OK/GD32VW55X_Wifi_BLE_SDK/GD32VW55x_RELEASE_V1.0.2/MSDK/wpa_supplicant/wpa_supplicant\driver_i.h **** 
 988:C:/Users/stapi/OneDrive/Desktop/GD32VW553/V1_MQTT_OK/GD32VW55X_Wifi_BLE_SDK/GD32VW55x_RELEASE_V1.0.2/MSDK/wpa_supplicant/wpa_supplicant\driver_i.h **** static inline int wpa_drv_abort_scan(struct wpa_supplicant *wpa_s,
 989:C:/Users/stapi/OneDrive/Desktop/GD32VW553/V1_MQTT_OK/GD32VW55X_Wifi_BLE_SDK/GD32VW55x_RELEASE_V1.0.2/MSDK/wpa_supplicant/wpa_supplicant\driver_i.h **** 				     u64 scan_cookie)
 990:C:/Users/stapi/OneDrive/Desktop/GD32VW553/V1_MQTT_OK/GD32VW55X_Wifi_BLE_SDK/GD32VW55x_RELEASE_V1.0.2/MSDK/wpa_supplicant/wpa_supplicant\driver_i.h **** {
 991:C:/Users/stapi/OneDrive/Desktop/GD32VW553/V1_MQTT_OK/GD32VW55X_Wifi_BLE_SDK/GD32VW55x_RELEASE_V1.0.2/MSDK/wpa_supplicant/wpa_supplicant\driver_i.h **** 	if (!wpa_s->driver->abort_scan)
 992:C:/Users/stapi/OneDrive/Desktop/GD32VW553/V1_MQTT_OK/GD32VW55X_Wifi_BLE_SDK/GD32VW55x_RELEASE_V1.0.2/MSDK/wpa_supplicant/wpa_supplicant\driver_i.h **** 		return -1;
 993:C:/Users/stapi/OneDrive/Desktop/GD32VW553/V1_MQTT_OK/GD32VW55X_Wifi_BLE_SDK/GD32VW55x_RELEASE_V1.0.2/MSDK/wpa_supplicant/wpa_supplicant\driver_i.h **** 	return wpa_s->driver->abort_scan(wpa_s->drv_priv, scan_cookie);
 994:C:/Users/stapi/OneDrive/Desktop/GD32VW553/V1_MQTT_OK/GD32VW55X_Wifi_BLE_SDK/GD32VW55x_RELEASE_V1.0.2/MSDK/wpa_supplicant/wpa_supplicant\driver_i.h **** }
 995:C:/Users/stapi/OneDrive/Desktop/GD32VW553/V1_MQTT_OK/GD32VW55X_Wifi_BLE_SDK/GD32VW55x_RELEASE_V1.0.2/MSDK/wpa_supplicant/wpa_supplicant\driver_i.h **** 
 996:C:/Users/stapi/OneDrive/Desktop/GD32VW553/V1_MQTT_OK/GD32VW55X_Wifi_BLE_SDK/GD32VW55x_RELEASE_V1.0.2/MSDK/wpa_supplicant/wpa_supplicant\driver_i.h **** static inline int wpa_drv_configure_frame_filters(struct wpa_supplicant *wpa_s,
 997:C:/Users/stapi/OneDrive/Desktop/GD32VW553/V1_MQTT_OK/GD32VW55X_Wifi_BLE_SDK/GD32VW55x_RELEASE_V1.0.2/MSDK/wpa_supplicant/wpa_supplicant\driver_i.h **** 						  u32 filters)
 998:C:/Users/stapi/OneDrive/Desktop/GD32VW553/V1_MQTT_OK/GD32VW55X_Wifi_BLE_SDK/GD32VW55x_RELEASE_V1.0.2/MSDK/wpa_supplicant/wpa_supplicant\driver_i.h **** {
 999:C:/Users/stapi/OneDrive/Desktop/GD32VW553/V1_MQTT_OK/GD32VW55X_Wifi_BLE_SDK/GD32VW55x_RELEASE_V1.0.2/MSDK/wpa_supplicant/wpa_supplicant\driver_i.h **** 	if (!wpa_s->driver->configure_data_frame_filters)
1000:C:/Users/stapi/OneDrive/Desktop/GD32VW553/V1_MQTT_OK/GD32VW55X_Wifi_BLE_SDK/GD32VW55x_RELEASE_V1.0.2/MSDK/wpa_supplicant/wpa_supplicant\driver_i.h **** 		return -1;
1001:C:/Users/stapi/OneDrive/Desktop/GD32VW553/V1_MQTT_OK/GD32VW55X_Wifi_BLE_SDK/GD32VW55x_RELEASE_V1.0.2/MSDK/wpa_supplicant/wpa_supplicant\driver_i.h **** 	return wpa_s->driver->configure_data_frame_filters(wpa_s->drv_priv,
1002:C:/Users/stapi/OneDrive/Desktop/GD32VW553/V1_MQTT_OK/GD32VW55X_Wifi_BLE_SDK/GD32VW55x_RELEASE_V1.0.2/MSDK/wpa_supplicant/wpa_supplicant\driver_i.h **** 							   filters);
1003:C:/Users/stapi/OneDrive/Desktop/GD32VW553/V1_MQTT_OK/GD32VW55X_Wifi_BLE_SDK/GD32VW55x_RELEASE_V1.0.2/MSDK/wpa_supplicant/wpa_supplicant\driver_i.h **** }
1004:C:/Users/stapi/OneDrive/Desktop/GD32VW553/V1_MQTT_OK/GD32VW55X_Wifi_BLE_SDK/GD32VW55x_RELEASE_V1.0.2/MSDK/wpa_supplicant/wpa_supplicant\driver_i.h **** 
1005:C:/Users/stapi/OneDrive/Desktop/GD32VW553/V1_MQTT_OK/GD32VW55X_Wifi_BLE_SDK/GD32VW55x_RELEASE_V1.0.2/MSDK/wpa_supplicant/wpa_supplicant\driver_i.h **** static inline int wpa_drv_get_ext_capa(struct wpa_supplicant *wpa_s,
  82              		.loc 3 1005 19 is_stmt 1
  83              		.cfi_startproc
  84              	.LVL7:
1006:C:/Users/stapi/OneDrive/Desktop/GD32VW553/V1_MQTT_OK/GD32VW55X_Wifi_BLE_SDK/GD32VW55x_RELEASE_V1.0.2/MSDK/wpa_supplicant/wpa_supplicant\driver_i.h **** 				       enum wpa_driver_if_type type)
1007:C:/Users/stapi/OneDrive/Desktop/GD32VW553/V1_MQTT_OK/GD32VW55X_Wifi_BLE_SDK/GD32VW55x_RELEASE_V1.0.2/MSDK/wpa_supplicant/wpa_supplicant\driver_i.h **** {
1008:C:/Users/stapi/OneDrive/Desktop/GD32VW553/V1_MQTT_OK/GD32VW55X_Wifi_BLE_SDK/GD32VW55x_RELEASE_V1.0.2/MSDK/wpa_supplicant/wpa_supplicant\driver_i.h **** 	if (!wpa_s->driver->get_ext_capab)
  85              		.loc 3 1008 2
  86              		.loc 3 1008 20 is_stmt 0
  87 0000 8327C512 		lw	a5,300(a0)
  88 0004 83A74720 		lw	a5,516(a5)
  89              		.loc 3 1008 5
  90 0008 99CB     		beq	a5,zero,.L10
1009:C:/Users/stapi/OneDrive/Desktop/GD32VW553/V1_MQTT_OK/GD32VW55X_Wifi_BLE_SDK/GD32VW55x_RELEASE_V1.0.2/MSDK/wpa_supplicant/wpa_supplicant\driver_i.h **** 		return -1;
1010:C:/Users/stapi/OneDrive/Desktop/GD32VW553/V1_MQTT_OK/GD32VW55X_Wifi_BLE_SDK/GD32VW55x_RELEASE_V1.0.2/MSDK/wpa_supplicant/wpa_supplicant\driver_i.h **** 	return wpa_s->driver->get_ext_capab(wpa_s->drv_priv, type,
  91              		.loc 3 1010 2 is_stmt 1
  92              		.loc 3 1010 9 is_stmt 0
  93 000a 13070523 		addi	a4,a0,560
  94 000e 9306C522 		addi	a3,a0,556
  95 0012 13068522 		addi	a2,a0,552
  96 0016 0325450C 		lw	a0,196(a0)
  97              	.LVL8:
  98 001a 8145     		li	a1,0
  99 001c 8287     		jr	a5
 100              	.LVL9:
 101              	.L10:
 102 001e 8280     		ret
 103              		.cfi_endproc
 104              	.LFE413:
 106              		.section	.rodata.wpa_supplicant_enabled_networks.str1.4,"aMS",@progbits,1
 107              		.align	2
 108              	.LC0:
 109 0000 4E6F2065 		.string	"No enabled networks (%d disabled networks)"
 109      6E61626C 
 109      6564206E 
 109      6574776F 
 109      726B7320 
 110              		.section	.text.wpa_supplicant_enabled_networks,"ax",@progbits
 111              		.align	1
 112              		.globl	wpa_supplicant_enabled_networks
 114              	wpa_supplicant_enabled_networks:
 115              	.LFB369:
 116              		.file 4 "C:/Users/stapi/OneDrive/Desktop/GD32VW553/V1_MQTT_OK/GD32VW55X_Wifi_BLE_SDK/GD32VW55x_REL
   1:C:/Users/stapi/OneDrive/Desktop/GD32VW553/V1_MQTT_OK/GD32VW55X_Wifi_BLE_SDK/GD32VW55x_RELEASE_V1.0.2/MSDK/wpa_supplicant/wpa_supplicant\scan.c **** /*
   2:C:/Users/stapi/OneDrive/Desktop/GD32VW553/V1_MQTT_OK/GD32VW55X_Wifi_BLE_SDK/GD32VW55x_RELEASE_V1.0.2/MSDK/wpa_supplicant/wpa_supplicant\scan.c ****  * WPA Supplicant - Scanning
   3:C:/Users/stapi/OneDrive/Desktop/GD32VW553/V1_MQTT_OK/GD32VW55X_Wifi_BLE_SDK/GD32VW55x_RELEASE_V1.0.2/MSDK/wpa_supplicant/wpa_supplicant\scan.c ****  * Copyright (c) 2003-2019, Jouni Malinen <j@w1.fi>
   4:C:/Users/stapi/OneDrive/Desktop/GD32VW553/V1_MQTT_OK/GD32VW55X_Wifi_BLE_SDK/GD32VW55x_RELEASE_V1.0.2/MSDK/wpa_supplicant/wpa_supplicant\scan.c ****  *
   5:C:/Users/stapi/OneDrive/Desktop/GD32VW553/V1_MQTT_OK/GD32VW55X_Wifi_BLE_SDK/GD32VW55x_RELEASE_V1.0.2/MSDK/wpa_supplicant/wpa_supplicant\scan.c ****  * This software may be distributed under the terms of the BSD license.
   6:C:/Users/stapi/OneDrive/Desktop/GD32VW553/V1_MQTT_OK/GD32VW55X_Wifi_BLE_SDK/GD32VW55x_RELEASE_V1.0.2/MSDK/wpa_supplicant/wpa_supplicant\scan.c ****  * See README for more details.
   7:C:/Users/stapi/OneDrive/Desktop/GD32VW553/V1_MQTT_OK/GD32VW55X_Wifi_BLE_SDK/GD32VW55x_RELEASE_V1.0.2/MSDK/wpa_supplicant/wpa_supplicant\scan.c ****  */
   8:C:/Users/stapi/OneDrive/Desktop/GD32VW553/V1_MQTT_OK/GD32VW55X_Wifi_BLE_SDK/GD32VW55x_RELEASE_V1.0.2/MSDK/wpa_supplicant/wpa_supplicant\scan.c **** 
   9:C:/Users/stapi/OneDrive/Desktop/GD32VW553/V1_MQTT_OK/GD32VW55X_Wifi_BLE_SDK/GD32VW55x_RELEASE_V1.0.2/MSDK/wpa_supplicant/wpa_supplicant\scan.c **** #include "utils/includes.h"
  10:C:/Users/stapi/OneDrive/Desktop/GD32VW553/V1_MQTT_OK/GD32VW55X_Wifi_BLE_SDK/GD32VW55x_RELEASE_V1.0.2/MSDK/wpa_supplicant/wpa_supplicant\scan.c **** 
  11:C:/Users/stapi/OneDrive/Desktop/GD32VW553/V1_MQTT_OK/GD32VW55X_Wifi_BLE_SDK/GD32VW55x_RELEASE_V1.0.2/MSDK/wpa_supplicant/wpa_supplicant\scan.c **** #include "utils/common.h"
  12:C:/Users/stapi/OneDrive/Desktop/GD32VW553/V1_MQTT_OK/GD32VW55X_Wifi_BLE_SDK/GD32VW55x_RELEASE_V1.0.2/MSDK/wpa_supplicant/wpa_supplicant\scan.c **** #include "utils/eloop.h"
  13:C:/Users/stapi/OneDrive/Desktop/GD32VW553/V1_MQTT_OK/GD32VW55X_Wifi_BLE_SDK/GD32VW55x_RELEASE_V1.0.2/MSDK/wpa_supplicant/wpa_supplicant\scan.c **** #include "common/ieee802_11_defs.h"
  14:C:/Users/stapi/OneDrive/Desktop/GD32VW553/V1_MQTT_OK/GD32VW55X_Wifi_BLE_SDK/GD32VW55x_RELEASE_V1.0.2/MSDK/wpa_supplicant/wpa_supplicant\scan.c **** #include "common/wpa_ctrl.h"
  15:C:/Users/stapi/OneDrive/Desktop/GD32VW553/V1_MQTT_OK/GD32VW55X_Wifi_BLE_SDK/GD32VW55x_RELEASE_V1.0.2/MSDK/wpa_supplicant/wpa_supplicant\scan.c **** #include "config.h"
  16:C:/Users/stapi/OneDrive/Desktop/GD32VW553/V1_MQTT_OK/GD32VW55X_Wifi_BLE_SDK/GD32VW55x_RELEASE_V1.0.2/MSDK/wpa_supplicant/wpa_supplicant\scan.c **** #include "wpa_supplicant_i.h"
  17:C:/Users/stapi/OneDrive/Desktop/GD32VW553/V1_MQTT_OK/GD32VW55X_Wifi_BLE_SDK/GD32VW55x_RELEASE_V1.0.2/MSDK/wpa_supplicant/wpa_supplicant\scan.c **** #include "driver_i.h"
  18:C:/Users/stapi/OneDrive/Desktop/GD32VW553/V1_MQTT_OK/GD32VW55X_Wifi_BLE_SDK/GD32VW55x_RELEASE_V1.0.2/MSDK/wpa_supplicant/wpa_supplicant\scan.c **** #include "wps_supplicant.h"
  19:C:/Users/stapi/OneDrive/Desktop/GD32VW553/V1_MQTT_OK/GD32VW55X_Wifi_BLE_SDK/GD32VW55x_RELEASE_V1.0.2/MSDK/wpa_supplicant/wpa_supplicant\scan.c **** #include "p2p_supplicant.h"
  20:C:/Users/stapi/OneDrive/Desktop/GD32VW553/V1_MQTT_OK/GD32VW55X_Wifi_BLE_SDK/GD32VW55x_RELEASE_V1.0.2/MSDK/wpa_supplicant/wpa_supplicant\scan.c **** #include "p2p/p2p.h"
  21:C:/Users/stapi/OneDrive/Desktop/GD32VW553/V1_MQTT_OK/GD32VW55X_Wifi_BLE_SDK/GD32VW55x_RELEASE_V1.0.2/MSDK/wpa_supplicant/wpa_supplicant\scan.c **** #include "hs20_supplicant.h"
  22:C:/Users/stapi/OneDrive/Desktop/GD32VW553/V1_MQTT_OK/GD32VW55X_Wifi_BLE_SDK/GD32VW55x_RELEASE_V1.0.2/MSDK/wpa_supplicant/wpa_supplicant\scan.c **** #include "notify.h"
  23:C:/Users/stapi/OneDrive/Desktop/GD32VW553/V1_MQTT_OK/GD32VW55X_Wifi_BLE_SDK/GD32VW55x_RELEASE_V1.0.2/MSDK/wpa_supplicant/wpa_supplicant\scan.c **** #include "bss.h"
  24:C:/Users/stapi/OneDrive/Desktop/GD32VW553/V1_MQTT_OK/GD32VW55X_Wifi_BLE_SDK/GD32VW55x_RELEASE_V1.0.2/MSDK/wpa_supplicant/wpa_supplicant\scan.c **** #include "scan.h"
  25:C:/Users/stapi/OneDrive/Desktop/GD32VW553/V1_MQTT_OK/GD32VW55X_Wifi_BLE_SDK/GD32VW55x_RELEASE_V1.0.2/MSDK/wpa_supplicant/wpa_supplicant\scan.c **** #include "mesh.h"
  26:C:/Users/stapi/OneDrive/Desktop/GD32VW553/V1_MQTT_OK/GD32VW55X_Wifi_BLE_SDK/GD32VW55x_RELEASE_V1.0.2/MSDK/wpa_supplicant/wpa_supplicant\scan.c **** 
  27:C:/Users/stapi/OneDrive/Desktop/GD32VW553/V1_MQTT_OK/GD32VW55X_Wifi_BLE_SDK/GD32VW55x_RELEASE_V1.0.2/MSDK/wpa_supplicant/wpa_supplicant\scan.c **** 
  28:C:/Users/stapi/OneDrive/Desktop/GD32VW553/V1_MQTT_OK/GD32VW55X_Wifi_BLE_SDK/GD32VW55x_RELEASE_V1.0.2/MSDK/wpa_supplicant/wpa_supplicant\scan.c **** static void wpa_supplicant_gen_assoc_event(struct wpa_supplicant *wpa_s)
  29:C:/Users/stapi/OneDrive/Desktop/GD32VW553/V1_MQTT_OK/GD32VW55X_Wifi_BLE_SDK/GD32VW55x_RELEASE_V1.0.2/MSDK/wpa_supplicant/wpa_supplicant\scan.c **** {
  30:C:/Users/stapi/OneDrive/Desktop/GD32VW553/V1_MQTT_OK/GD32VW55X_Wifi_BLE_SDK/GD32VW55x_RELEASE_V1.0.2/MSDK/wpa_supplicant/wpa_supplicant\scan.c **** 	struct wpa_ssid *ssid;
  31:C:/Users/stapi/OneDrive/Desktop/GD32VW553/V1_MQTT_OK/GD32VW55X_Wifi_BLE_SDK/GD32VW55x_RELEASE_V1.0.2/MSDK/wpa_supplicant/wpa_supplicant\scan.c **** 	union wpa_event_data data;
  32:C:/Users/stapi/OneDrive/Desktop/GD32VW553/V1_MQTT_OK/GD32VW55X_Wifi_BLE_SDK/GD32VW55x_RELEASE_V1.0.2/MSDK/wpa_supplicant/wpa_supplicant\scan.c **** 
  33:C:/Users/stapi/OneDrive/Desktop/GD32VW553/V1_MQTT_OK/GD32VW55X_Wifi_BLE_SDK/GD32VW55x_RELEASE_V1.0.2/MSDK/wpa_supplicant/wpa_supplicant\scan.c **** 	ssid = wpa_supplicant_get_ssid(wpa_s);
  34:C:/Users/stapi/OneDrive/Desktop/GD32VW553/V1_MQTT_OK/GD32VW55X_Wifi_BLE_SDK/GD32VW55x_RELEASE_V1.0.2/MSDK/wpa_supplicant/wpa_supplicant\scan.c **** 	if (ssid == NULL)
  35:C:/Users/stapi/OneDrive/Desktop/GD32VW553/V1_MQTT_OK/GD32VW55X_Wifi_BLE_SDK/GD32VW55x_RELEASE_V1.0.2/MSDK/wpa_supplicant/wpa_supplicant\scan.c **** 		return;
  36:C:/Users/stapi/OneDrive/Desktop/GD32VW553/V1_MQTT_OK/GD32VW55X_Wifi_BLE_SDK/GD32VW55x_RELEASE_V1.0.2/MSDK/wpa_supplicant/wpa_supplicant\scan.c **** 
  37:C:/Users/stapi/OneDrive/Desktop/GD32VW553/V1_MQTT_OK/GD32VW55X_Wifi_BLE_SDK/GD32VW55x_RELEASE_V1.0.2/MSDK/wpa_supplicant/wpa_supplicant\scan.c **** 	if (wpa_s->current_ssid == NULL) {
  38:C:/Users/stapi/OneDrive/Desktop/GD32VW553/V1_MQTT_OK/GD32VW55X_Wifi_BLE_SDK/GD32VW55x_RELEASE_V1.0.2/MSDK/wpa_supplicant/wpa_supplicant\scan.c **** 		wpa_s->current_ssid = ssid;
  39:C:/Users/stapi/OneDrive/Desktop/GD32VW553/V1_MQTT_OK/GD32VW55X_Wifi_BLE_SDK/GD32VW55x_RELEASE_V1.0.2/MSDK/wpa_supplicant/wpa_supplicant\scan.c **** 		wpas_notify_network_changed(wpa_s);
  40:C:/Users/stapi/OneDrive/Desktop/GD32VW553/V1_MQTT_OK/GD32VW55X_Wifi_BLE_SDK/GD32VW55x_RELEASE_V1.0.2/MSDK/wpa_supplicant/wpa_supplicant\scan.c **** 	}
  41:C:/Users/stapi/OneDrive/Desktop/GD32VW553/V1_MQTT_OK/GD32VW55X_Wifi_BLE_SDK/GD32VW55x_RELEASE_V1.0.2/MSDK/wpa_supplicant/wpa_supplicant\scan.c **** 	wpa_supplicant_initiate_eapol(wpa_s);
  42:C:/Users/stapi/OneDrive/Desktop/GD32VW553/V1_MQTT_OK/GD32VW55X_Wifi_BLE_SDK/GD32VW55x_RELEASE_V1.0.2/MSDK/wpa_supplicant/wpa_supplicant\scan.c **** 	wpa_dbg(wpa_s, MSG_DEBUG, "Already associated with a configured "
  43:C:/Users/stapi/OneDrive/Desktop/GD32VW553/V1_MQTT_OK/GD32VW55X_Wifi_BLE_SDK/GD32VW55x_RELEASE_V1.0.2/MSDK/wpa_supplicant/wpa_supplicant\scan.c **** 		"network - generating associated event");
  44:C:/Users/stapi/OneDrive/Desktop/GD32VW553/V1_MQTT_OK/GD32VW55X_Wifi_BLE_SDK/GD32VW55x_RELEASE_V1.0.2/MSDK/wpa_supplicant/wpa_supplicant\scan.c **** 	os_memset(&data, 0, sizeof(data));
  45:C:/Users/stapi/OneDrive/Desktop/GD32VW553/V1_MQTT_OK/GD32VW55X_Wifi_BLE_SDK/GD32VW55x_RELEASE_V1.0.2/MSDK/wpa_supplicant/wpa_supplicant\scan.c **** 	wpa_supplicant_event(wpa_s, EVENT_ASSOC, &data);
  46:C:/Users/stapi/OneDrive/Desktop/GD32VW553/V1_MQTT_OK/GD32VW55X_Wifi_BLE_SDK/GD32VW55x_RELEASE_V1.0.2/MSDK/wpa_supplicant/wpa_supplicant\scan.c **** }
  47:C:/Users/stapi/OneDrive/Desktop/GD32VW553/V1_MQTT_OK/GD32VW55X_Wifi_BLE_SDK/GD32VW55x_RELEASE_V1.0.2/MSDK/wpa_supplicant/wpa_supplicant\scan.c **** 
  48:C:/Users/stapi/OneDrive/Desktop/GD32VW553/V1_MQTT_OK/GD32VW55X_Wifi_BLE_SDK/GD32VW55x_RELEASE_V1.0.2/MSDK/wpa_supplicant/wpa_supplicant\scan.c **** 
  49:C:/Users/stapi/OneDrive/Desktop/GD32VW553/V1_MQTT_OK/GD32VW55X_Wifi_BLE_SDK/GD32VW55x_RELEASE_V1.0.2/MSDK/wpa_supplicant/wpa_supplicant\scan.c **** #ifdef CONFIG_WPS
  50:C:/Users/stapi/OneDrive/Desktop/GD32VW553/V1_MQTT_OK/GD32VW55X_Wifi_BLE_SDK/GD32VW55x_RELEASE_V1.0.2/MSDK/wpa_supplicant/wpa_supplicant\scan.c **** static int wpas_wps_in_use(struct wpa_supplicant *wpa_s,
  51:C:/Users/stapi/OneDrive/Desktop/GD32VW553/V1_MQTT_OK/GD32VW55X_Wifi_BLE_SDK/GD32VW55x_RELEASE_V1.0.2/MSDK/wpa_supplicant/wpa_supplicant\scan.c **** 			   enum wps_request_type *req_type)
  52:C:/Users/stapi/OneDrive/Desktop/GD32VW553/V1_MQTT_OK/GD32VW55X_Wifi_BLE_SDK/GD32VW55x_RELEASE_V1.0.2/MSDK/wpa_supplicant/wpa_supplicant\scan.c **** {
  53:C:/Users/stapi/OneDrive/Desktop/GD32VW553/V1_MQTT_OK/GD32VW55X_Wifi_BLE_SDK/GD32VW55x_RELEASE_V1.0.2/MSDK/wpa_supplicant/wpa_supplicant\scan.c **** 	struct wpa_ssid *ssid;
  54:C:/Users/stapi/OneDrive/Desktop/GD32VW553/V1_MQTT_OK/GD32VW55X_Wifi_BLE_SDK/GD32VW55x_RELEASE_V1.0.2/MSDK/wpa_supplicant/wpa_supplicant\scan.c **** 	int wps = 0;
  55:C:/Users/stapi/OneDrive/Desktop/GD32VW553/V1_MQTT_OK/GD32VW55X_Wifi_BLE_SDK/GD32VW55x_RELEASE_V1.0.2/MSDK/wpa_supplicant/wpa_supplicant\scan.c **** 
  56:C:/Users/stapi/OneDrive/Desktop/GD32VW553/V1_MQTT_OK/GD32VW55X_Wifi_BLE_SDK/GD32VW55x_RELEASE_V1.0.2/MSDK/wpa_supplicant/wpa_supplicant\scan.c **** 	for (ssid = wpa_s->conf->ssid; ssid; ssid = ssid->next) {
  57:C:/Users/stapi/OneDrive/Desktop/GD32VW553/V1_MQTT_OK/GD32VW55X_Wifi_BLE_SDK/GD32VW55x_RELEASE_V1.0.2/MSDK/wpa_supplicant/wpa_supplicant\scan.c **** 		if (!(ssid->key_mgmt & WPA_KEY_MGMT_WPS))
  58:C:/Users/stapi/OneDrive/Desktop/GD32VW553/V1_MQTT_OK/GD32VW55X_Wifi_BLE_SDK/GD32VW55x_RELEASE_V1.0.2/MSDK/wpa_supplicant/wpa_supplicant\scan.c **** 			continue;
  59:C:/Users/stapi/OneDrive/Desktop/GD32VW553/V1_MQTT_OK/GD32VW55X_Wifi_BLE_SDK/GD32VW55x_RELEASE_V1.0.2/MSDK/wpa_supplicant/wpa_supplicant\scan.c **** 
  60:C:/Users/stapi/OneDrive/Desktop/GD32VW553/V1_MQTT_OK/GD32VW55X_Wifi_BLE_SDK/GD32VW55x_RELEASE_V1.0.2/MSDK/wpa_supplicant/wpa_supplicant\scan.c **** 		wps = 1;
  61:C:/Users/stapi/OneDrive/Desktop/GD32VW553/V1_MQTT_OK/GD32VW55X_Wifi_BLE_SDK/GD32VW55x_RELEASE_V1.0.2/MSDK/wpa_supplicant/wpa_supplicant\scan.c **** 		*req_type = wpas_wps_get_req_type(ssid);
  62:C:/Users/stapi/OneDrive/Desktop/GD32VW553/V1_MQTT_OK/GD32VW55X_Wifi_BLE_SDK/GD32VW55x_RELEASE_V1.0.2/MSDK/wpa_supplicant/wpa_supplicant\scan.c **** 		if (ssid->eap.phase1 && os_strstr(ssid->eap.phase1, "pbc=1"))
  63:C:/Users/stapi/OneDrive/Desktop/GD32VW553/V1_MQTT_OK/GD32VW55X_Wifi_BLE_SDK/GD32VW55x_RELEASE_V1.0.2/MSDK/wpa_supplicant/wpa_supplicant\scan.c **** 			return 2;
  64:C:/Users/stapi/OneDrive/Desktop/GD32VW553/V1_MQTT_OK/GD32VW55X_Wifi_BLE_SDK/GD32VW55x_RELEASE_V1.0.2/MSDK/wpa_supplicant/wpa_supplicant\scan.c **** 	}
  65:C:/Users/stapi/OneDrive/Desktop/GD32VW553/V1_MQTT_OK/GD32VW55X_Wifi_BLE_SDK/GD32VW55x_RELEASE_V1.0.2/MSDK/wpa_supplicant/wpa_supplicant\scan.c **** 
  66:C:/Users/stapi/OneDrive/Desktop/GD32VW553/V1_MQTT_OK/GD32VW55X_Wifi_BLE_SDK/GD32VW55x_RELEASE_V1.0.2/MSDK/wpa_supplicant/wpa_supplicant\scan.c **** #ifdef CONFIG_P2P
  67:C:/Users/stapi/OneDrive/Desktop/GD32VW553/V1_MQTT_OK/GD32VW55X_Wifi_BLE_SDK/GD32VW55x_RELEASE_V1.0.2/MSDK/wpa_supplicant/wpa_supplicant\scan.c **** 	if (!wpa_s->global->p2p_disabled && wpa_s->global->p2p &&
  68:C:/Users/stapi/OneDrive/Desktop/GD32VW553/V1_MQTT_OK/GD32VW55X_Wifi_BLE_SDK/GD32VW55x_RELEASE_V1.0.2/MSDK/wpa_supplicant/wpa_supplicant\scan.c **** 	    !wpa_s->conf->p2p_disabled) {
  69:C:/Users/stapi/OneDrive/Desktop/GD32VW553/V1_MQTT_OK/GD32VW55X_Wifi_BLE_SDK/GD32VW55x_RELEASE_V1.0.2/MSDK/wpa_supplicant/wpa_supplicant\scan.c **** 		wpa_s->wps->dev.p2p = 1;
  70:C:/Users/stapi/OneDrive/Desktop/GD32VW553/V1_MQTT_OK/GD32VW55X_Wifi_BLE_SDK/GD32VW55x_RELEASE_V1.0.2/MSDK/wpa_supplicant/wpa_supplicant\scan.c **** 		if (!wps) {
  71:C:/Users/stapi/OneDrive/Desktop/GD32VW553/V1_MQTT_OK/GD32VW55X_Wifi_BLE_SDK/GD32VW55x_RELEASE_V1.0.2/MSDK/wpa_supplicant/wpa_supplicant\scan.c **** 			wps = 1;
  72:C:/Users/stapi/OneDrive/Desktop/GD32VW553/V1_MQTT_OK/GD32VW55X_Wifi_BLE_SDK/GD32VW55x_RELEASE_V1.0.2/MSDK/wpa_supplicant/wpa_supplicant\scan.c **** 			*req_type = WPS_REQ_ENROLLEE_INFO;
  73:C:/Users/stapi/OneDrive/Desktop/GD32VW553/V1_MQTT_OK/GD32VW55X_Wifi_BLE_SDK/GD32VW55x_RELEASE_V1.0.2/MSDK/wpa_supplicant/wpa_supplicant\scan.c **** 		}
  74:C:/Users/stapi/OneDrive/Desktop/GD32VW553/V1_MQTT_OK/GD32VW55X_Wifi_BLE_SDK/GD32VW55x_RELEASE_V1.0.2/MSDK/wpa_supplicant/wpa_supplicant\scan.c **** 	}
  75:C:/Users/stapi/OneDrive/Desktop/GD32VW553/V1_MQTT_OK/GD32VW55X_Wifi_BLE_SDK/GD32VW55x_RELEASE_V1.0.2/MSDK/wpa_supplicant/wpa_supplicant\scan.c **** #endif /* CONFIG_P2P */
  76:C:/Users/stapi/OneDrive/Desktop/GD32VW553/V1_MQTT_OK/GD32VW55X_Wifi_BLE_SDK/GD32VW55x_RELEASE_V1.0.2/MSDK/wpa_supplicant/wpa_supplicant\scan.c **** 
  77:C:/Users/stapi/OneDrive/Desktop/GD32VW553/V1_MQTT_OK/GD32VW55X_Wifi_BLE_SDK/GD32VW55x_RELEASE_V1.0.2/MSDK/wpa_supplicant/wpa_supplicant\scan.c **** 	return wps;
  78:C:/Users/stapi/OneDrive/Desktop/GD32VW553/V1_MQTT_OK/GD32VW55X_Wifi_BLE_SDK/GD32VW55x_RELEASE_V1.0.2/MSDK/wpa_supplicant/wpa_supplicant\scan.c **** }
  79:C:/Users/stapi/OneDrive/Desktop/GD32VW553/V1_MQTT_OK/GD32VW55X_Wifi_BLE_SDK/GD32VW55x_RELEASE_V1.0.2/MSDK/wpa_supplicant/wpa_supplicant\scan.c **** #endif /* CONFIG_WPS */
  80:C:/Users/stapi/OneDrive/Desktop/GD32VW553/V1_MQTT_OK/GD32VW55X_Wifi_BLE_SDK/GD32VW55x_RELEASE_V1.0.2/MSDK/wpa_supplicant/wpa_supplicant\scan.c **** 
  81:C:/Users/stapi/OneDrive/Desktop/GD32VW553/V1_MQTT_OK/GD32VW55X_Wifi_BLE_SDK/GD32VW55x_RELEASE_V1.0.2/MSDK/wpa_supplicant/wpa_supplicant\scan.c **** 
  82:C:/Users/stapi/OneDrive/Desktop/GD32VW553/V1_MQTT_OK/GD32VW55X_Wifi_BLE_SDK/GD32VW55x_RELEASE_V1.0.2/MSDK/wpa_supplicant/wpa_supplicant\scan.c **** static int wpa_setup_mac_addr_rand_params(struct wpa_driver_scan_params *params,
  83:C:/Users/stapi/OneDrive/Desktop/GD32VW553/V1_MQTT_OK/GD32VW55X_Wifi_BLE_SDK/GD32VW55x_RELEASE_V1.0.2/MSDK/wpa_supplicant/wpa_supplicant\scan.c **** 					  const u8 *mac_addr)
  84:C:/Users/stapi/OneDrive/Desktop/GD32VW553/V1_MQTT_OK/GD32VW55X_Wifi_BLE_SDK/GD32VW55x_RELEASE_V1.0.2/MSDK/wpa_supplicant/wpa_supplicant\scan.c **** {
  85:C:/Users/stapi/OneDrive/Desktop/GD32VW553/V1_MQTT_OK/GD32VW55X_Wifi_BLE_SDK/GD32VW55x_RELEASE_V1.0.2/MSDK/wpa_supplicant/wpa_supplicant\scan.c **** 	u8 *tmp;
  86:C:/Users/stapi/OneDrive/Desktop/GD32VW553/V1_MQTT_OK/GD32VW55X_Wifi_BLE_SDK/GD32VW55x_RELEASE_V1.0.2/MSDK/wpa_supplicant/wpa_supplicant\scan.c **** 
  87:C:/Users/stapi/OneDrive/Desktop/GD32VW553/V1_MQTT_OK/GD32VW55X_Wifi_BLE_SDK/GD32VW55x_RELEASE_V1.0.2/MSDK/wpa_supplicant/wpa_supplicant\scan.c **** 	if (params->mac_addr) {
  88:C:/Users/stapi/OneDrive/Desktop/GD32VW553/V1_MQTT_OK/GD32VW55X_Wifi_BLE_SDK/GD32VW55x_RELEASE_V1.0.2/MSDK/wpa_supplicant/wpa_supplicant\scan.c **** 		params->mac_addr_mask = NULL;
  89:C:/Users/stapi/OneDrive/Desktop/GD32VW553/V1_MQTT_OK/GD32VW55X_Wifi_BLE_SDK/GD32VW55x_RELEASE_V1.0.2/MSDK/wpa_supplicant/wpa_supplicant\scan.c **** 		os_free(params->mac_addr);
  90:C:/Users/stapi/OneDrive/Desktop/GD32VW553/V1_MQTT_OK/GD32VW55X_Wifi_BLE_SDK/GD32VW55x_RELEASE_V1.0.2/MSDK/wpa_supplicant/wpa_supplicant\scan.c **** 		params->mac_addr = NULL;
  91:C:/Users/stapi/OneDrive/Desktop/GD32VW553/V1_MQTT_OK/GD32VW55X_Wifi_BLE_SDK/GD32VW55x_RELEASE_V1.0.2/MSDK/wpa_supplicant/wpa_supplicant\scan.c **** 	}
  92:C:/Users/stapi/OneDrive/Desktop/GD32VW553/V1_MQTT_OK/GD32VW55X_Wifi_BLE_SDK/GD32VW55x_RELEASE_V1.0.2/MSDK/wpa_supplicant/wpa_supplicant\scan.c **** 
  93:C:/Users/stapi/OneDrive/Desktop/GD32VW553/V1_MQTT_OK/GD32VW55X_Wifi_BLE_SDK/GD32VW55x_RELEASE_V1.0.2/MSDK/wpa_supplicant/wpa_supplicant\scan.c **** 	params->mac_addr_rand = 1;
  94:C:/Users/stapi/OneDrive/Desktop/GD32VW553/V1_MQTT_OK/GD32VW55X_Wifi_BLE_SDK/GD32VW55x_RELEASE_V1.0.2/MSDK/wpa_supplicant/wpa_supplicant\scan.c **** 
  95:C:/Users/stapi/OneDrive/Desktop/GD32VW553/V1_MQTT_OK/GD32VW55X_Wifi_BLE_SDK/GD32VW55x_RELEASE_V1.0.2/MSDK/wpa_supplicant/wpa_supplicant\scan.c **** 	if (!mac_addr)
  96:C:/Users/stapi/OneDrive/Desktop/GD32VW553/V1_MQTT_OK/GD32VW55X_Wifi_BLE_SDK/GD32VW55x_RELEASE_V1.0.2/MSDK/wpa_supplicant/wpa_supplicant\scan.c **** 		return 0;
  97:C:/Users/stapi/OneDrive/Desktop/GD32VW553/V1_MQTT_OK/GD32VW55X_Wifi_BLE_SDK/GD32VW55x_RELEASE_V1.0.2/MSDK/wpa_supplicant/wpa_supplicant\scan.c **** 
  98:C:/Users/stapi/OneDrive/Desktop/GD32VW553/V1_MQTT_OK/GD32VW55X_Wifi_BLE_SDK/GD32VW55x_RELEASE_V1.0.2/MSDK/wpa_supplicant/wpa_supplicant\scan.c **** 	tmp = os_malloc(2 * ETH_ALEN);
  99:C:/Users/stapi/OneDrive/Desktop/GD32VW553/V1_MQTT_OK/GD32VW55X_Wifi_BLE_SDK/GD32VW55x_RELEASE_V1.0.2/MSDK/wpa_supplicant/wpa_supplicant\scan.c **** 	if (!tmp)
 100:C:/Users/stapi/OneDrive/Desktop/GD32VW553/V1_MQTT_OK/GD32VW55X_Wifi_BLE_SDK/GD32VW55x_RELEASE_V1.0.2/MSDK/wpa_supplicant/wpa_supplicant\scan.c **** 		return -1;
 101:C:/Users/stapi/OneDrive/Desktop/GD32VW553/V1_MQTT_OK/GD32VW55X_Wifi_BLE_SDK/GD32VW55x_RELEASE_V1.0.2/MSDK/wpa_supplicant/wpa_supplicant\scan.c **** 
 102:C:/Users/stapi/OneDrive/Desktop/GD32VW553/V1_MQTT_OK/GD32VW55X_Wifi_BLE_SDK/GD32VW55x_RELEASE_V1.0.2/MSDK/wpa_supplicant/wpa_supplicant\scan.c **** 	os_memcpy(tmp, mac_addr, 2 * ETH_ALEN);
 103:C:/Users/stapi/OneDrive/Desktop/GD32VW553/V1_MQTT_OK/GD32VW55X_Wifi_BLE_SDK/GD32VW55x_RELEASE_V1.0.2/MSDK/wpa_supplicant/wpa_supplicant\scan.c **** 	params->mac_addr = tmp;
 104:C:/Users/stapi/OneDrive/Desktop/GD32VW553/V1_MQTT_OK/GD32VW55X_Wifi_BLE_SDK/GD32VW55x_RELEASE_V1.0.2/MSDK/wpa_supplicant/wpa_supplicant\scan.c **** 	params->mac_addr_mask = tmp + ETH_ALEN;
 105:C:/Users/stapi/OneDrive/Desktop/GD32VW553/V1_MQTT_OK/GD32VW55X_Wifi_BLE_SDK/GD32VW55x_RELEASE_V1.0.2/MSDK/wpa_supplicant/wpa_supplicant\scan.c **** 	return 0;
 106:C:/Users/stapi/OneDrive/Desktop/GD32VW553/V1_MQTT_OK/GD32VW55X_Wifi_BLE_SDK/GD32VW55x_RELEASE_V1.0.2/MSDK/wpa_supplicant/wpa_supplicant\scan.c **** }
 107:C:/Users/stapi/OneDrive/Desktop/GD32VW553/V1_MQTT_OK/GD32VW55X_Wifi_BLE_SDK/GD32VW55x_RELEASE_V1.0.2/MSDK/wpa_supplicant/wpa_supplicant\scan.c **** 
 108:C:/Users/stapi/OneDrive/Desktop/GD32VW553/V1_MQTT_OK/GD32VW55X_Wifi_BLE_SDK/GD32VW55x_RELEASE_V1.0.2/MSDK/wpa_supplicant/wpa_supplicant\scan.c **** 
 109:C:/Users/stapi/OneDrive/Desktop/GD32VW553/V1_MQTT_OK/GD32VW55X_Wifi_BLE_SDK/GD32VW55x_RELEASE_V1.0.2/MSDK/wpa_supplicant/wpa_supplicant\scan.c **** /**
 110:C:/Users/stapi/OneDrive/Desktop/GD32VW553/V1_MQTT_OK/GD32VW55X_Wifi_BLE_SDK/GD32VW55x_RELEASE_V1.0.2/MSDK/wpa_supplicant/wpa_supplicant\scan.c ****  * wpa_supplicant_enabled_networks - Check whether there are enabled networks
 111:C:/Users/stapi/OneDrive/Desktop/GD32VW553/V1_MQTT_OK/GD32VW55X_Wifi_BLE_SDK/GD32VW55x_RELEASE_V1.0.2/MSDK/wpa_supplicant/wpa_supplicant\scan.c ****  * @wpa_s: Pointer to wpa_supplicant data
 112:C:/Users/stapi/OneDrive/Desktop/GD32VW553/V1_MQTT_OK/GD32VW55X_Wifi_BLE_SDK/GD32VW55x_RELEASE_V1.0.2/MSDK/wpa_supplicant/wpa_supplicant\scan.c ****  * Returns: 0 if no networks are enabled, >0 if networks are enabled
 113:C:/Users/stapi/OneDrive/Desktop/GD32VW553/V1_MQTT_OK/GD32VW55X_Wifi_BLE_SDK/GD32VW55x_RELEASE_V1.0.2/MSDK/wpa_supplicant/wpa_supplicant\scan.c ****  *
 114:C:/Users/stapi/OneDrive/Desktop/GD32VW553/V1_MQTT_OK/GD32VW55X_Wifi_BLE_SDK/GD32VW55x_RELEASE_V1.0.2/MSDK/wpa_supplicant/wpa_supplicant\scan.c ****  * This function is used to figure out whether any networks (or Interworking
 115:C:/Users/stapi/OneDrive/Desktop/GD32VW553/V1_MQTT_OK/GD32VW55X_Wifi_BLE_SDK/GD32VW55x_RELEASE_V1.0.2/MSDK/wpa_supplicant/wpa_supplicant\scan.c ****  * with enabled credentials and auto_interworking) are present in the current
 116:C:/Users/stapi/OneDrive/Desktop/GD32VW553/V1_MQTT_OK/GD32VW55X_Wifi_BLE_SDK/GD32VW55x_RELEASE_V1.0.2/MSDK/wpa_supplicant/wpa_supplicant\scan.c ****  * configuration.
 117:C:/Users/stapi/OneDrive/Desktop/GD32VW553/V1_MQTT_OK/GD32VW55X_Wifi_BLE_SDK/GD32VW55x_RELEASE_V1.0.2/MSDK/wpa_supplicant/wpa_supplicant\scan.c ****  */
 118:C:/Users/stapi/OneDrive/Desktop/GD32VW553/V1_MQTT_OK/GD32VW55X_Wifi_BLE_SDK/GD32VW55x_RELEASE_V1.0.2/MSDK/wpa_supplicant/wpa_supplicant\scan.c **** int wpa_supplicant_enabled_networks(struct wpa_supplicant *wpa_s)
 119:C:/Users/stapi/OneDrive/Desktop/GD32VW553/V1_MQTT_OK/GD32VW55X_Wifi_BLE_SDK/GD32VW55x_RELEASE_V1.0.2/MSDK/wpa_supplicant/wpa_supplicant\scan.c **** {
 117              		.loc 4 119 1 is_stmt 1
 118              		.cfi_startproc
 119              	.LVL10:
 120 0000 17030000 		call	t0,__riscv_save_3
 120      E7020300 
 121              		.cfi_offset 18, -16
 122              		.cfi_offset 9, -12
 123              		.cfi_offset 8, -8
 124              		.cfi_offset 1, -4
 125              		.cfi_def_cfa_offset 16
 120:C:/Users/stapi/OneDrive/Desktop/GD32VW553/V1_MQTT_OK/GD32VW55X_Wifi_BLE_SDK/GD32VW55x_RELEASE_V1.0.2/MSDK/wpa_supplicant/wpa_supplicant\scan.c **** 	struct wpa_ssid *ssid = wpa_s->conf->ssid;
 126              		.loc 4 120 2
 127              	.LVL11:
 121:C:/Users/stapi/OneDrive/Desktop/GD32VW553/V1_MQTT_OK/GD32VW55X_Wifi_BLE_SDK/GD32VW55x_RELEASE_V1.0.2/MSDK/wpa_supplicant/wpa_supplicant\scan.c **** 	int count = 0, disabled = 0;
 128              		.loc 4 121 2
 122:C:/Users/stapi/OneDrive/Desktop/GD32VW553/V1_MQTT_OK/GD32VW55X_Wifi_BLE_SDK/GD32VW55x_RELEASE_V1.0.2/MSDK/wpa_supplicant/wpa_supplicant\scan.c **** 
 123:C:/Users/stapi/OneDrive/Desktop/GD32VW553/V1_MQTT_OK/GD32VW55X_Wifi_BLE_SDK/GD32VW55x_RELEASE_V1.0.2/MSDK/wpa_supplicant/wpa_supplicant\scan.c **** 	if (wpa_s->p2p_mgmt)
 129              		.loc 4 123 2
 130              		.loc 4 123 11 is_stmt 0
 131 0008 03240535 		lw	s0,848(a0)
 119:C:/Users/stapi/OneDrive/Desktop/GD32VW553/V1_MQTT_OK/GD32VW55X_Wifi_BLE_SDK/GD32VW55x_RELEASE_V1.0.2/MSDK/wpa_supplicant/wpa_supplicant\scan.c **** 	struct wpa_ssid *ssid = wpa_s->conf->ssid;
 132              		.loc 4 119 1
 133 000c 4111     		addi	sp,sp,-16
 134              		.cfi_def_cfa_offset 32
 135              		.loc 4 123 5
 136 000e 01C8     		beq	s0,zero,.L14
 137              	.LVL12:
 138              	.L21:
 124:C:/Users/stapi/OneDrive/Desktop/GD32VW553/V1_MQTT_OK/GD32VW55X_Wifi_BLE_SDK/GD32VW55x_RELEASE_V1.0.2/MSDK/wpa_supplicant/wpa_supplicant\scan.c **** 		return 0; /* no normal network profiles on p2p_mgmt interface */
 139              		.loc 4 124 10
 140 0010 0144     		li	s0,0
 141              	.L13:
 125:C:/Users/stapi/OneDrive/Desktop/GD32VW553/V1_MQTT_OK/GD32VW55X_Wifi_BLE_SDK/GD32VW55x_RELEASE_V1.0.2/MSDK/wpa_supplicant/wpa_supplicant\scan.c **** 
