   1              		.file	"sha1-internal.c"
   2              		.option nopic
   3              		.attribute arch, "rv32i2p0_m2p0_a2p0_f2p0_c2p0_b_p0p94"
   4              		.attribute unaligned_access, 0
   5              		.attribute stack_align, 16
   6              		.text
   7              	.Ltext0:
   8              		.cfi_sections	.debug_frame
   9              		.section	.text.sha1_vector,"ax",@progbits
  10              		.align	1
  11              		.globl	sha1_vector
  13              	sha1_vector:
  14              	.LFB432:
  15              		.file 1 "C:/Users/stapi/OneDrive/Desktop/GD32VW553/V1_MQTT_OK/GD32VW55X_Wifi_BLE_SDK/GD32VW55x_REL
   1:C:/Users/stapi/OneDrive/Desktop/GD32VW553/V1_MQTT_OK/GD32VW55X_Wifi_BLE_SDK/GD32VW55x_RELEASE_V1.0.2/MSDK/wpa_supplicant/src/crypto\sha1-internal.c **** /*
   2:C:/Users/stapi/OneDrive/Desktop/GD32VW553/V1_MQTT_OK/GD32VW55X_Wifi_BLE_SDK/GD32VW55x_RELEASE_V1.0.2/MSDK/wpa_supplicant/src/crypto\sha1-internal.c ****  * SHA1 hash implementation and interface functions
   3:C:/Users/stapi/OneDrive/Desktop/GD32VW553/V1_MQTT_OK/GD32VW55X_Wifi_BLE_SDK/GD32VW55x_RELEASE_V1.0.2/MSDK/wpa_supplicant/src/crypto\sha1-internal.c ****  * Copyright (c) 2003-2005, Jouni Malinen <j@w1.fi>
   4:C:/Users/stapi/OneDrive/Desktop/GD32VW553/V1_MQTT_OK/GD32VW55X_Wifi_BLE_SDK/GD32VW55x_RELEASE_V1.0.2/MSDK/wpa_supplicant/src/crypto\sha1-internal.c ****  *
   5:C:/Users/stapi/OneDrive/Desktop/GD32VW553/V1_MQTT_OK/GD32VW55X_Wifi_BLE_SDK/GD32VW55x_RELEASE_V1.0.2/MSDK/wpa_supplicant/src/crypto\sha1-internal.c ****  * This software may be distributed under the terms of the BSD license.
   6:C:/Users/stapi/OneDrive/Desktop/GD32VW553/V1_MQTT_OK/GD32VW55X_Wifi_BLE_SDK/GD32VW55x_RELEASE_V1.0.2/MSDK/wpa_supplicant/src/crypto\sha1-internal.c ****  * See README for more details.
   7:C:/Users/stapi/OneDrive/Desktop/GD32VW553/V1_MQTT_OK/GD32VW55X_Wifi_BLE_SDK/GD32VW55x_RELEASE_V1.0.2/MSDK/wpa_supplicant/src/crypto\sha1-internal.c ****  */
   8:C:/Users/stapi/OneDrive/Desktop/GD32VW553/V1_MQTT_OK/GD32VW55X_Wifi_BLE_SDK/GD32VW55x_RELEASE_V1.0.2/MSDK/wpa_supplicant/src/crypto\sha1-internal.c **** 
   9:C:/Users/stapi/OneDrive/Desktop/GD32VW553/V1_MQTT_OK/GD32VW55X_Wifi_BLE_SDK/GD32VW55x_RELEASE_V1.0.2/MSDK/wpa_supplicant/src/crypto\sha1-internal.c **** #include "gd32vw55x_hau.h"
  10:C:/Users/stapi/OneDrive/Desktop/GD32VW553/V1_MQTT_OK/GD32VW55X_Wifi_BLE_SDK/GD32VW55x_RELEASE_V1.0.2/MSDK/wpa_supplicant/src/crypto\sha1-internal.c **** #include "includes.h"
  11:C:/Users/stapi/OneDrive/Desktop/GD32VW553/V1_MQTT_OK/GD32VW55X_Wifi_BLE_SDK/GD32VW55x_RELEASE_V1.0.2/MSDK/wpa_supplicant/src/crypto\sha1-internal.c **** #include "common.h"
  12:C:/Users/stapi/OneDrive/Desktop/GD32VW553/V1_MQTT_OK/GD32VW55X_Wifi_BLE_SDK/GD32VW55x_RELEASE_V1.0.2/MSDK/wpa_supplicant/src/crypto\sha1-internal.c **** #include "sha1.h"
  13:C:/Users/stapi/OneDrive/Desktop/GD32VW553/V1_MQTT_OK/GD32VW55X_Wifi_BLE_SDK/GD32VW55x_RELEASE_V1.0.2/MSDK/wpa_supplicant/src/crypto\sha1-internal.c **** #include "sha1_i.h"
  14:C:/Users/stapi/OneDrive/Desktop/GD32VW553/V1_MQTT_OK/GD32VW55X_Wifi_BLE_SDK/GD32VW55x_RELEASE_V1.0.2/MSDK/wpa_supplicant/src/crypto\sha1-internal.c **** #include "md5.h"
  15:C:/Users/stapi/OneDrive/Desktop/GD32VW553/V1_MQTT_OK/GD32VW55X_Wifi_BLE_SDK/GD32VW55x_RELEASE_V1.0.2/MSDK/wpa_supplicant/src/crypto\sha1-internal.c **** #include "crypto.h"
  16:C:/Users/stapi/OneDrive/Desktop/GD32VW553/V1_MQTT_OK/GD32VW55X_Wifi_BLE_SDK/GD32VW55x_RELEASE_V1.0.2/MSDK/wpa_supplicant/src/crypto\sha1-internal.c **** 
  17:C:/Users/stapi/OneDrive/Desktop/GD32VW553/V1_MQTT_OK/GD32VW55X_Wifi_BLE_SDK/GD32VW55x_RELEASE_V1.0.2/MSDK/wpa_supplicant/src/crypto\sha1-internal.c **** typedef struct SHA1Context SHA1_CTX;
  18:C:/Users/stapi/OneDrive/Desktop/GD32VW553/V1_MQTT_OK/GD32VW55X_Wifi_BLE_SDK/GD32VW55x_RELEASE_V1.0.2/MSDK/wpa_supplicant/src/crypto\sha1-internal.c **** 
  19:C:/Users/stapi/OneDrive/Desktop/GD32VW553/V1_MQTT_OK/GD32VW55X_Wifi_BLE_SDK/GD32VW55x_RELEASE_V1.0.2/MSDK/wpa_supplicant/src/crypto\sha1-internal.c **** void SHA1Transform(u32 state[5], const unsigned char buffer[64]);
  20:C:/Users/stapi/OneDrive/Desktop/GD32VW553/V1_MQTT_OK/GD32VW55X_Wifi_BLE_SDK/GD32VW55x_RELEASE_V1.0.2/MSDK/wpa_supplicant/src/crypto\sha1-internal.c **** 
  21:C:/Users/stapi/OneDrive/Desktop/GD32VW553/V1_MQTT_OK/GD32VW55X_Wifi_BLE_SDK/GD32VW55x_RELEASE_V1.0.2/MSDK/wpa_supplicant/src/crypto\sha1-internal.c **** 
  22:C:/Users/stapi/OneDrive/Desktop/GD32VW553/V1_MQTT_OK/GD32VW55X_Wifi_BLE_SDK/GD32VW55x_RELEASE_V1.0.2/MSDK/wpa_supplicant/src/crypto\sha1-internal.c **** #ifdef CONFIG_CRYPTO_INTERNAL
  23:C:/Users/stapi/OneDrive/Desktop/GD32VW553/V1_MQTT_OK/GD32VW55X_Wifi_BLE_SDK/GD32VW55x_RELEASE_V1.0.2/MSDK/wpa_supplicant/src/crypto\sha1-internal.c **** /**
  24:C:/Users/stapi/OneDrive/Desktop/GD32VW553/V1_MQTT_OK/GD32VW55X_Wifi_BLE_SDK/GD32VW55x_RELEASE_V1.0.2/MSDK/wpa_supplicant/src/crypto\sha1-internal.c ****  * sha1_vector - SHA-1 hash for data vector
  25:C:/Users/stapi/OneDrive/Desktop/GD32VW553/V1_MQTT_OK/GD32VW55X_Wifi_BLE_SDK/GD32VW55x_RELEASE_V1.0.2/MSDK/wpa_supplicant/src/crypto\sha1-internal.c ****  * @num_elem: Number of elements in the data vector
  26:C:/Users/stapi/OneDrive/Desktop/GD32VW553/V1_MQTT_OK/GD32VW55X_Wifi_BLE_SDK/GD32VW55x_RELEASE_V1.0.2/MSDK/wpa_supplicant/src/crypto\sha1-internal.c ****  * @addr: Pointers to the data areas
  27:C:/Users/stapi/OneDrive/Desktop/GD32VW553/V1_MQTT_OK/GD32VW55X_Wifi_BLE_SDK/GD32VW55x_RELEASE_V1.0.2/MSDK/wpa_supplicant/src/crypto\sha1-internal.c ****  * @len: Lengths of the data blocks
  28:C:/Users/stapi/OneDrive/Desktop/GD32VW553/V1_MQTT_OK/GD32VW55X_Wifi_BLE_SDK/GD32VW55x_RELEASE_V1.0.2/MSDK/wpa_supplicant/src/crypto\sha1-internal.c ****  * @mac: Buffer for the hash
  29:C:/Users/stapi/OneDrive/Desktop/GD32VW553/V1_MQTT_OK/GD32VW55X_Wifi_BLE_SDK/GD32VW55x_RELEASE_V1.0.2/MSDK/wpa_supplicant/src/crypto\sha1-internal.c ****  * Returns: 0 on success, -1 of failure
  30:C:/Users/stapi/OneDrive/Desktop/GD32VW553/V1_MQTT_OK/GD32VW55X_Wifi_BLE_SDK/GD32VW55x_RELEASE_V1.0.2/MSDK/wpa_supplicant/src/crypto\sha1-internal.c ****  */
  31:C:/Users/stapi/OneDrive/Desktop/GD32VW553/V1_MQTT_OK/GD32VW55X_Wifi_BLE_SDK/GD32VW55x_RELEASE_V1.0.2/MSDK/wpa_supplicant/src/crypto\sha1-internal.c **** int sha1_vector(size_t num_elem, const u8 *addr[], const size_t *len, u8 *mac)
  32:C:/Users/stapi/OneDrive/Desktop/GD32VW553/V1_MQTT_OK/GD32VW55X_Wifi_BLE_SDK/GD32VW55x_RELEASE_V1.0.2/MSDK/wpa_supplicant/src/crypto\sha1-internal.c **** {
  16              		.loc 1 32 1
  17              		.cfi_startproc
  18              	.LVL0:
  19 0000 17030000 		call	t0,__riscv_save_8
  19      E7020300 
  20              		.cfi_offset 23, -36
  21              		.cfi_offset 22, -32
  22              		.cfi_offset 21, -28
  23              		.cfi_offset 20, -24
  24              		.cfi_offset 19, -20
  25              		.cfi_offset 18, -16
  26              		.cfi_offset 9, -12
  27              		.cfi_offset 8, -8
  28              		.cfi_offset 1, -4
  29              		.cfi_def_cfa_offset 48
  33:C:/Users/stapi/OneDrive/Desktop/GD32VW553/V1_MQTT_OK/GD32VW55X_Wifi_BLE_SDK/GD32VW55x_RELEASE_V1.0.2/MSDK/wpa_supplicant/src/crypto\sha1-internal.c **** #ifdef WPA_HW_SECURITY_ENGINE_ENABLE
  34:C:/Users/stapi/OneDrive/Desktop/GD32VW553/V1_MQTT_OK/GD32VW55X_Wifi_BLE_SDK/GD32VW55x_RELEASE_V1.0.2/MSDK/wpa_supplicant/src/crypto\sha1-internal.c **** 	uint8_t *input = NULL;
  30              		.loc 1 34 2
  31              	.LVL1:
  35:C:/Users/stapi/OneDrive/Desktop/GD32VW553/V1_MQTT_OK/GD32VW55X_Wifi_BLE_SDK/GD32VW55x_RELEASE_V1.0.2/MSDK/wpa_supplicant/src/crypto\sha1-internal.c **** 	uint32_t input_len = 0;
  32              		.loc 1 35 2
  36:C:/Users/stapi/OneDrive/Desktop/GD32VW553/V1_MQTT_OK/GD32VW55X_Wifi_BLE_SDK/GD32VW55x_RELEASE_V1.0.2/MSDK/wpa_supplicant/src/crypto\sha1-internal.c **** 	uint32_t i;
  33              		.loc 1 36 2
  37:C:/Users/stapi/OneDrive/Desktop/GD32VW553/V1_MQTT_OK/GD32VW55X_Wifi_BLE_SDK/GD32VW55x_RELEASE_V1.0.2/MSDK/wpa_supplicant/src/crypto\sha1-internal.c **** 	int ret;
  34              		.loc 1 37 2
  38:C:/Users/stapi/OneDrive/Desktop/GD32VW553/V1_MQTT_OK/GD32VW55X_Wifi_BLE_SDK/GD32VW55x_RELEASE_V1.0.2/MSDK/wpa_supplicant/src/crypto\sha1-internal.c **** 
  39:C:/Users/stapi/OneDrive/Desktop/GD32VW553/V1_MQTT_OK/GD32VW55X_Wifi_BLE_SDK/GD32VW55x_RELEASE_V1.0.2/MSDK/wpa_supplicant/src/crypto\sha1-internal.c **** 	for (i = 0; i < num_elem; i++) {
  35              		.loc 1 39 2
  32:C:/Users/stapi/OneDrive/Desktop/GD32VW553/V1_MQTT_OK/GD32VW55X_Wifi_BLE_SDK/GD32VW55x_RELEASE_V1.0.2/MSDK/wpa_supplicant/src/crypto\sha1-internal.c **** #ifdef WPA_HW_SECURITY_ENGINE_ENABLE
  36              		.loc 1 32 1 is_stmt 0
  37 0008 AA87     		mv	a5,a0
  38 000a 2E8B     		mv	s6,a1
  39 000c 328A     		mv	s4,a2
  40 000e B68A     		mv	s5,a3
  41              		.loc 1 39 9
  42 0010 0144     		li	s0,0
  35:C:/Users/stapi/OneDrive/Desktop/GD32VW553/V1_MQTT_OK/GD32VW55X_Wifi_BLE_SDK/GD32VW55x_RELEASE_V1.0.2/MSDK/wpa_supplicant/src/crypto\sha1-internal.c **** 	uint32_t i;
  43              		.loc 1 35 11
  44 0012 0145     		li	a0,0
  45              	.LVL2:
  46              	.L2:
  47              		.loc 1 39 14 is_stmt 1 discriminator 1
  48              		.loc 1 39 2 is_stmt 0 discriminator 1
  49 0014 631BF404 		bne	s0,a5,.L3
  40:C:/Users/stapi/OneDrive/Desktop/GD32VW553/V1_MQTT_OK/GD32VW55X_Wifi_BLE_SDK/GD32VW55x_RELEASE_V1.0.2/MSDK/wpa_supplicant/src/crypto\sha1-internal.c **** 		input_len += len[i];
  41:C:/Users/stapi/OneDrive/Desktop/GD32VW553/V1_MQTT_OK/GD32VW55X_Wifi_BLE_SDK/GD32VW55x_RELEASE_V1.0.2/MSDK/wpa_supplicant/src/crypto\sha1-internal.c **** 	}
  42:C:/Users/stapi/OneDrive/Desktop/GD32VW553/V1_MQTT_OK/GD32VW55X_Wifi_BLE_SDK/GD32VW55x_RELEASE_V1.0.2/MSDK/wpa_supplicant/src/crypto\sha1-internal.c **** 
  43:C:/Users/stapi/OneDrive/Desktop/GD32VW553/V1_MQTT_OK/GD32VW55X_Wifi_BLE_SDK/GD32VW55x_RELEASE_V1.0.2/MSDK/wpa_supplicant/src/crypto\sha1-internal.c **** 	input = (uint8_t *)os_malloc(input_len * sizeof(uint8_t));
  50              		.loc 1 43 2 is_stmt 1
  51              		.loc 1 43 21 is_stmt 0
  52 0018 97000000 		call	os_malloc
  52      E7800000 
  53              	.LVL3:
  54 0020 AA84     		mv	s1,a0
  55              	.LVL4:
  44:C:/Users/stapi/OneDrive/Desktop/GD32VW553/V1_MQTT_OK/GD32VW55X_Wifi_BLE_SDK/GD32VW55x_RELEASE_V1.0.2/MSDK/wpa_supplicant/src/crypto\sha1-internal.c **** 	if(NULL == input)
  56              		.loc 1 44 2 is_stmt 1
  45:C:/Users/stapi/OneDrive/Desktop/GD32VW553/V1_MQTT_OK/GD32VW55X_Wifi_BLE_SDK/GD32VW55x_RELEASE_V1.0.2/MSDK/wpa_supplicant/src/crypto\sha1-internal.c **** 		return -1;
  57              		.loc 1 45 10 is_stmt 0
  58 0022 7D55     		li	a0,-1
  44:C:/Users/stapi/OneDrive/Desktop/GD32VW553/V1_MQTT_OK/GD32VW55X_Wifi_BLE_SDK/GD32VW55x_RELEASE_V1.0.2/MSDK/wpa_supplicant/src/crypto\sha1-internal.c **** 	if(NULL == input)
  59              		.loc 1 44 4
  60 0024 9DCC     		beq	s1,zero,.L1
  61 0026 0A04     		slli	s0,s0,2
  62              	.LVL5:
  63 0028 0149     		li	s2,0
  46:C:/Users/stapi/OneDrive/Desktop/GD32VW553/V1_MQTT_OK/GD32VW55X_Wifi_BLE_SDK/GD32VW55x_RELEASE_V1.0.2/MSDK/wpa_supplicant/src/crypto\sha1-internal.c **** 
  47:C:/Users/stapi/OneDrive/Desktop/GD32VW553/V1_MQTT_OK/GD32VW55X_Wifi_BLE_SDK/GD32VW55x_RELEASE_V1.0.2/MSDK/wpa_supplicant/src/crypto\sha1-internal.c **** 	for (i = 0, input_len = 0; i < num_elem; i++) {
  64              		.loc 1 47 24
  65 002a 8149     		li	s3,0
  66              	.L5:
  67              	.LVL6:
  68              		.loc 1 47 29 is_stmt 1 discriminator 1
  69              		.loc 1 47 2 is_stmt 0 discriminator 1
  70 002c 63158904 		bne	s2,s0,.L6
  48:C:/Users/stapi/OneDrive/Desktop/GD32VW553/V1_MQTT_OK/GD32VW55X_Wifi_BLE_SDK/GD32VW55x_RELEASE_V1.0.2/MSDK/wpa_supplicant/src/crypto\sha1-internal.c **** 		os_memcpy(input + input_len, addr[i], len[i]);
  49:C:/Users/stapi/OneDrive/Desktop/GD32VW553/V1_MQTT_OK/GD32VW55X_Wifi_BLE_SDK/GD32VW55x_RELEASE_V1.0.2/MSDK/wpa_supplicant/src/crypto\sha1-internal.c **** 		input_len += len[i];
  50:C:/Users/stapi/OneDrive/Desktop/GD32VW553/V1_MQTT_OK/GD32VW55X_Wifi_BLE_SDK/GD32VW55x_RELEASE_V1.0.2/MSDK/wpa_supplicant/src/crypto\sha1-internal.c **** 	}
  51:C:/Users/stapi/OneDrive/Desktop/GD32VW553/V1_MQTT_OK/GD32VW55X_Wifi_BLE_SDK/GD32VW55x_RELEASE_V1.0.2/MSDK/wpa_supplicant/src/crypto\sha1-internal.c **** 
  52:C:/Users/stapi/OneDrive/Desktop/GD32VW553/V1_MQTT_OK/GD32VW55X_Wifi_BLE_SDK/GD32VW55x_RELEASE_V1.0.2/MSDK/wpa_supplicant/src/crypto\sha1-internal.c **** 	HW_ACC_ENGINE_LOCK();
  71              		.loc 1 52 2 is_stmt 1
  72 0030 97000000 		call	sys_enter_critical
  72      E7800000 
  73              	.LVL7:
  53:C:/Users/stapi/OneDrive/Desktop/GD32VW553/V1_MQTT_OK/GD32VW55X_Wifi_BLE_SDK/GD32VW55x_RELEASE_V1.0.2/MSDK/wpa_supplicant/src/crypto\sha1-internal.c **** 	ret = hau_hash_sha_1(input, input_len, mac);
  74              		.loc 1 53 2
  75              		.loc 1 53 8 is_stmt 0
  76 0038 5686     		mv	a2,s5
  77 003a CE85     		mv	a1,s3
  78 003c 2685     		mv	a0,s1
  79 003e 97000000 		call	hau_hash_sha_1
  79      E7800000 
  80              	.LVL8:
  81 0046 2A84     		mv	s0,a0
  82              	.LVL9:
  54:C:/Users/stapi/OneDrive/Desktop/GD32VW553/V1_MQTT_OK/GD32VW55X_Wifi_BLE_SDK/GD32VW55x_RELEASE_V1.0.2/MSDK/wpa_supplicant/src/crypto\sha1-internal.c **** 	HW_ACC_ENGINE_UNLOCK();
  83              		.loc 1 54 2 is_stmt 1
  84 0048 97000000 		call	sys_exit_critical
  84      E7800000 
  85              	.LVL10:
  55:C:/Users/stapi/OneDrive/Desktop/GD32VW553/V1_MQTT_OK/GD32VW55X_Wifi_BLE_SDK/GD32VW55x_RELEASE_V1.0.2/MSDK/wpa_supplicant/src/crypto\sha1-internal.c **** 	os_free(input);
  86              		.loc 1 55 2
  87 0050 2685     		mv	a0,s1
  88 0052 97000000 		call	os_free
  88      E7800000 
  89              	.LVL11:
  56:C:/Users/stapi/OneDrive/Desktop/GD32VW553/V1_MQTT_OK/GD32VW55X_Wifi_BLE_SDK/GD32VW55x_RELEASE_V1.0.2/MSDK/wpa_supplicant/src/crypto\sha1-internal.c **** 	return (ret == ERROR) ? -1 : 0;
  90              		.loc 1 56 2
  91              		.loc 1 56 29 is_stmt 0
  92 005a 13351400 		seqz	a0,s0
  93 005e 3305A040 		neg	a0,a0
  94              	.LVL12:
  95              	.L1:
  57:C:/Users/stapi/OneDrive/Desktop/GD32VW553/V1_MQTT_OK/GD32VW55X_Wifi_BLE_SDK/GD32VW55x_RELEASE_V1.0.2/MSDK/wpa_supplicant/src/crypto\sha1-internal.c **** #else
  58:C:/Users/stapi/OneDrive/Desktop/GD32VW553/V1_MQTT_OK/GD32VW55X_Wifi_BLE_SDK/GD32VW55x_RELEASE_V1.0.2/MSDK/wpa_supplicant/src/crypto\sha1-internal.c **** 	SHA1_CTX ctx;
  59:C:/Users/stapi/OneDrive/Desktop/GD32VW553/V1_MQTT_OK/GD32VW55X_Wifi_BLE_SDK/GD32VW55x_RELEASE_V1.0.2/MSDK/wpa_supplicant/src/crypto\sha1-internal.c **** 	size_t i;
  60:C:/Users/stapi/OneDrive/Desktop/GD32VW553/V1_MQTT_OK/GD32VW55X_Wifi_BLE_SDK/GD32VW55x_RELEASE_V1.0.2/MSDK/wpa_supplicant/src/crypto\sha1-internal.c **** 
  61:C:/Users/stapi/OneDrive/Desktop/GD32VW553/V1_MQTT_OK/GD32VW55X_Wifi_BLE_SDK/GD32VW55x_RELEASE_V1.0.2/MSDK/wpa_supplicant/src/crypto\sha1-internal.c **** 	if (TEST_FAIL())
  62:C:/Users/stapi/OneDrive/Desktop/GD32VW553/V1_MQTT_OK/GD32VW55X_Wifi_BLE_SDK/GD32VW55x_RELEASE_V1.0.2/MSDK/wpa_supplicant/src/crypto\sha1-internal.c **** 		return -1;
  63:C:/Users/stapi/OneDrive/Desktop/GD32VW553/V1_MQTT_OK/GD32VW55X_Wifi_BLE_SDK/GD32VW55x_RELEASE_V1.0.2/MSDK/wpa_supplicant/src/crypto\sha1-internal.c **** 	SHA1Init(&ctx);
  64:C:/Users/stapi/OneDrive/Desktop/GD32VW553/V1_MQTT_OK/GD32VW55X_Wifi_BLE_SDK/GD32VW55x_RELEASE_V1.0.2/MSDK/wpa_supplicant/src/crypto\sha1-internal.c **** 	for (i = 0; i < num_elem; i++)
  65:C:/Users/stapi/OneDrive/Desktop/GD32VW553/V1_MQTT_OK/GD32VW55X_Wifi_BLE_SDK/GD32VW55x_RELEASE_V1.0.2/MSDK/wpa_supplicant/src/crypto\sha1-internal.c **** 		SHA1Update(&ctx, addr[i], len[i]);
  66:C:/Users/stapi/OneDrive/Desktop/GD32VW553/V1_MQTT_OK/GD32VW55X_Wifi_BLE_SDK/GD32VW55x_RELEASE_V1.0.2/MSDK/wpa_supplicant/src/crypto\sha1-internal.c **** 	SHA1Final(mac, &ctx);
  67:C:/Users/stapi/OneDrive/Desktop/GD32VW553/V1_MQTT_OK/GD32VW55X_Wifi_BLE_SDK/GD32VW55x_RELEASE_V1.0.2/MSDK/wpa_supplicant/src/crypto\sha1-internal.c **** 	return 0;
  68:C:/Users/stapi/OneDrive/Desktop/GD32VW553/V1_MQTT_OK/GD32VW55X_Wifi_BLE_SDK/GD32VW55x_RELEASE_V1.0.2/MSDK/wpa_supplicant/src/crypto\sha1-internal.c **** #endif
  69:C:/Users/stapi/OneDrive/Desktop/GD32VW553/V1_MQTT_OK/GD32VW55X_Wifi_BLE_SDK/GD32VW55x_RELEASE_V1.0.2/MSDK/wpa_supplicant/src/crypto\sha1-internal.c **** }
  96              		.loc 1 69 1
  97 0062 17030000 		tail	__riscv_restore_8
  97      67000300 
  98              		.cfi_remember_state
  99              		.cfi_restore 23
 100              		.cfi_restore 22
 101              		.cfi_restore 21
 102              		.cfi_restore 20
 103              		.cfi_restore 19
 104              		.cfi_restore 18
 105              		.cfi_restore 9
 106              		.cfi_restore 8
 107              		.cfi_restore 1
 108              		.cfi_def_cfa_offset 0
 109              	.LVL13:
 110              	.L3:
 111              		.cfi_restore_state
  40:C:/Users/stapi/OneDrive/Desktop/GD32VW553/V1_MQTT_OK/GD32VW55X_Wifi_BLE_SDK/GD32VW55x_RELEASE_V1.0.2/MSDK/wpa_supplicant/src/crypto\sha1-internal.c **** 	}
 112              		.loc 1 40 3 is_stmt 1 discriminator 3
  40:C:/Users/stapi/OneDrive/Desktop/GD32VW553/V1_MQTT_OK/GD32VW55X_Wifi_BLE_SDK/GD32VW55x_RELEASE_V1.0.2/MSDK/wpa_supplicant/src/crypto\sha1-internal.c **** 	}
 113              		.loc 1 40 19 is_stmt 0 discriminator 3
 114 006a 33474421 		sh2add	a4,s0,s4
  40:C:/Users/stapi/OneDrive/Desktop/GD32VW553/V1_MQTT_OK/GD32VW55X_Wifi_BLE_SDK/GD32VW55x_RELEASE_V1.0.2/MSDK/wpa_supplicant/src/crypto\sha1-internal.c **** 	}
 115              		.loc 1 40 13 discriminator 3
 116 006e 1843     		lw	a4,0(a4)
  39:C:/Users/stapi/OneDrive/Desktop/GD32VW553/V1_MQTT_OK/GD32VW55X_Wifi_BLE_SDK/GD32VW55x_RELEASE_V1.0.2/MSDK/wpa_supplicant/src/crypto\sha1-internal.c **** 		input_len += len[i];
 117              		.loc 1 39 29 discriminator 3
 118 0070 0504     		addi	s0,s0,1
 119              	.LVL14:
  40:C:/Users/stapi/OneDrive/Desktop/GD32VW553/V1_MQTT_OK/GD32VW55X_Wifi_BLE_SDK/GD32VW55x_RELEASE_V1.0.2/MSDK/wpa_supplicant/src/crypto\sha1-internal.c **** 	}
 120              		.loc 1 40 13 discriminator 3
 121 0072 3A95     		add	a0,a0,a4
 122              	.LVL15:
  39:C:/Users/stapi/OneDrive/Desktop/GD32VW553/V1_MQTT_OK/GD32VW55X_Wifi_BLE_SDK/GD32VW55x_RELEASE_V1.0.2/MSDK/wpa_supplicant/src/crypto\sha1-internal.c **** 		input_len += len[i];
 123              		.loc 1 39 28 is_stmt 1 discriminator 3
 124 0074 45B7     		j	.L2
 125              	.LVL16:
 126              	.L6:
  48:C:/Users/stapi/OneDrive/Desktop/GD32VW553/V1_MQTT_OK/GD32VW55X_Wifi_BLE_SDK/GD32VW55x_RELEASE_V1.0.2/MSDK/wpa_supplicant/src/crypto\sha1-internal.c **** 		input_len += len[i];
 127              		.loc 1 48 3 discriminator 3
 128 0076 B3072B01 		add	a5,s6,s2
 129 007a B30B2A01 		add	s7,s4,s2
 130 007e 8C43     		lw	a1,0(a5)
 131 0080 03A60B00 		lw	a2,0(s7)
 132 0084 33853401 		add	a0,s1,s3
 133 0088 1109     		addi	s2,s2,4
 134 008a 97000000 		call	os_memcpy
 134      E7800000 
 135              	.LVL17:
  49:C:/Users/stapi/OneDrive/Desktop/GD32VW553/V1_MQTT_OK/GD32VW55X_Wifi_BLE_SDK/GD32VW55x_RELEASE_V1.0.2/MSDK/wpa_supplicant/src/crypto\sha1-internal.c **** 	}
 136              		.loc 1 49 3 discriminator 3
  49:C:/Users/stapi/OneDrive/Desktop/GD32VW553/V1_MQTT_OK/GD32VW55X_Wifi_BLE_SDK/GD32VW55x_RELEASE_V1.0.2/MSDK/wpa_supplicant/src/crypto\sha1-internal.c **** 	}
 137              		.loc 1 49 13 is_stmt 0 discriminator 3
 138 0092 83A70B00 		lw	a5,0(s7)
 139 0096 BE99     		add	s3,s3,a5
 140              	.LVL18:
  47:C:/Users/stapi/OneDrive/Desktop/GD32VW553/V1_MQTT_OK/GD32VW55X_Wifi_BLE_SDK/GD32VW55x_RELEASE_V1.0.2/MSDK/wpa_supplicant/src/crypto\sha1-internal.c **** 		os_memcpy(input + input_len, addr[i], len[i]);
 141              		.loc 1 47 43 is_stmt 1 discriminator 3
 142 0098 51BF     		j	.L5
 143              		.cfi_endproc
 144              	.LFE432:
 146              		.section	.text.SHA1Transform,"ax",@progbits
 147              		.align	1
 148              		.globl	SHA1Transform
 150              	SHA1Transform:
 151              	.LFB433:
  70:C:/Users/stapi/OneDrive/Desktop/GD32VW553/V1_MQTT_OK/GD32VW55X_Wifi_BLE_SDK/GD32VW55x_RELEASE_V1.0.2/MSDK/wpa_supplicant/src/crypto\sha1-internal.c **** #endif /* CONFIG_CRYPTO_INTERNAL */
  71:C:/Users/stapi/OneDrive/Desktop/GD32VW553/V1_MQTT_OK/GD32VW55X_Wifi_BLE_SDK/GD32VW55x_RELEASE_V1.0.2/MSDK/wpa_supplicant/src/crypto\sha1-internal.c **** 
  72:C:/Users/stapi/OneDrive/Desktop/GD32VW553/V1_MQTT_OK/GD32VW55X_Wifi_BLE_SDK/GD32VW55x_RELEASE_V1.0.2/MSDK/wpa_supplicant/src/crypto\sha1-internal.c **** 
  73:C:/Users/stapi/OneDrive/Desktop/GD32VW553/V1_MQTT_OK/GD32VW55X_Wifi_BLE_SDK/GD32VW55x_RELEASE_V1.0.2/MSDK/wpa_supplicant/src/crypto\sha1-internal.c **** /* ===== start - public domain SHA1 implementation ===== */
  74:C:/Users/stapi/OneDrive/Desktop/GD32VW553/V1_MQTT_OK/GD32VW55X_Wifi_BLE_SDK/GD32VW55x_RELEASE_V1.0.2/MSDK/wpa_supplicant/src/crypto\sha1-internal.c **** 
  75:C:/Users/stapi/OneDrive/Desktop/GD32VW553/V1_MQTT_OK/GD32VW55X_Wifi_BLE_SDK/GD32VW55x_RELEASE_V1.0.2/MSDK/wpa_supplicant/src/crypto\sha1-internal.c **** /*
  76:C:/Users/stapi/OneDrive/Desktop/GD32VW553/V1_MQTT_OK/GD32VW55X_Wifi_BLE_SDK/GD32VW55x_RELEASE_V1.0.2/MSDK/wpa_supplicant/src/crypto\sha1-internal.c **** SHA-1 in C
  77:C:/Users/stapi/OneDrive/Desktop/GD32VW553/V1_MQTT_OK/GD32VW55X_Wifi_BLE_SDK/GD32VW55x_RELEASE_V1.0.2/MSDK/wpa_supplicant/src/crypto\sha1-internal.c **** By Steve Reid <sreid@sea-to-sky.net>
  78:C:/Users/stapi/OneDrive/Desktop/GD32VW553/V1_MQTT_OK/GD32VW55X_Wifi_BLE_SDK/GD32VW55x_RELEASE_V1.0.2/MSDK/wpa_supplicant/src/crypto\sha1-internal.c **** 100% Public Domain
  79:C:/Users/stapi/OneDrive/Desktop/GD32VW553/V1_MQTT_OK/GD32VW55X_Wifi_BLE_SDK/GD32VW55x_RELEASE_V1.0.2/MSDK/wpa_supplicant/src/crypto\sha1-internal.c **** 
  80:C:/Users/stapi/OneDrive/Desktop/GD32VW553/V1_MQTT_OK/GD32VW55X_Wifi_BLE_SDK/GD32VW55x_RELEASE_V1.0.2/MSDK/wpa_supplicant/src/crypto\sha1-internal.c **** -----------------
  81:C:/Users/stapi/OneDrive/Desktop/GD32VW553/V1_MQTT_OK/GD32VW55X_Wifi_BLE_SDK/GD32VW55x_RELEASE_V1.0.2/MSDK/wpa_supplicant/src/crypto\sha1-internal.c **** Modified 7/98
  82:C:/Users/stapi/OneDrive/Desktop/GD32VW553/V1_MQTT_OK/GD32VW55X_Wifi_BLE_SDK/GD32VW55x_RELEASE_V1.0.2/MSDK/wpa_supplicant/src/crypto\sha1-internal.c **** By James H. Brown <jbrown@burgoyne.com>
  83:C:/Users/stapi/OneDrive/Desktop/GD32VW553/V1_MQTT_OK/GD32VW55X_Wifi_BLE_SDK/GD32VW55x_RELEASE_V1.0.2/MSDK/wpa_supplicant/src/crypto\sha1-internal.c **** Still 100% Public Domain
  84:C:/Users/stapi/OneDrive/Desktop/GD32VW553/V1_MQTT_OK/GD32VW55X_Wifi_BLE_SDK/GD32VW55x_RELEASE_V1.0.2/MSDK/wpa_supplicant/src/crypto\sha1-internal.c **** 
  85:C:/Users/stapi/OneDrive/Desktop/GD32VW553/V1_MQTT_OK/GD32VW55X_Wifi_BLE_SDK/GD32VW55x_RELEASE_V1.0.2/MSDK/wpa_supplicant/src/crypto\sha1-internal.c **** Corrected a problem which generated improper hash values on 16 bit machines
  86:C:/Users/stapi/OneDrive/Desktop/GD32VW553/V1_MQTT_OK/GD32VW55X_Wifi_BLE_SDK/GD32VW55x_RELEASE_V1.0.2/MSDK/wpa_supplicant/src/crypto\sha1-internal.c **** Routine SHA1Update changed from
  87:C:/Users/stapi/OneDrive/Desktop/GD32VW553/V1_MQTT_OK/GD32VW55X_Wifi_BLE_SDK/GD32VW55x_RELEASE_V1.0.2/MSDK/wpa_supplicant/src/crypto\sha1-internal.c **** 	void SHA1Update(SHA1_CTX* context, unsigned char* data, unsigned int
  88:C:/Users/stapi/OneDrive/Desktop/GD32VW553/V1_MQTT_OK/GD32VW55X_Wifi_BLE_SDK/GD32VW55x_RELEASE_V1.0.2/MSDK/wpa_supplicant/src/crypto\sha1-internal.c **** len)
  89:C:/Users/stapi/OneDrive/Desktop/GD32VW553/V1_MQTT_OK/GD32VW55X_Wifi_BLE_SDK/GD32VW55x_RELEASE_V1.0.2/MSDK/wpa_supplicant/src/crypto\sha1-internal.c **** to
  90:C:/Users/stapi/OneDrive/Desktop/GD32VW553/V1_MQTT_OK/GD32VW55X_Wifi_BLE_SDK/GD32VW55x_RELEASE_V1.0.2/MSDK/wpa_supplicant/src/crypto\sha1-internal.c **** 	void SHA1Update(SHA1_CTX* context, unsigned char* data, unsigned
  91:C:/Users/stapi/OneDrive/Desktop/GD32VW553/V1_MQTT_OK/GD32VW55X_Wifi_BLE_SDK/GD32VW55x_RELEASE_V1.0.2/MSDK/wpa_supplicant/src/crypto\sha1-internal.c **** long len)
  92:C:/Users/stapi/OneDrive/Desktop/GD32VW553/V1_MQTT_OK/GD32VW55X_Wifi_BLE_SDK/GD32VW55x_RELEASE_V1.0.2/MSDK/wpa_supplicant/src/crypto\sha1-internal.c **** 
  93:C:/Users/stapi/OneDrive/Desktop/GD32VW553/V1_MQTT_OK/GD32VW55X_Wifi_BLE_SDK/GD32VW55x_RELEASE_V1.0.2/MSDK/wpa_supplicant/src/crypto\sha1-internal.c **** The 'len' parameter was declared an int which works fine on 32 bit machines.
  94:C:/Users/stapi/OneDrive/Desktop/GD32VW553/V1_MQTT_OK/GD32VW55X_Wifi_BLE_SDK/GD32VW55x_RELEASE_V1.0.2/MSDK/wpa_supplicant/src/crypto\sha1-internal.c **** However, on 16 bit machines an int is too small for the shifts being done
  95:C:/Users/stapi/OneDrive/Desktop/GD32VW553/V1_MQTT_OK/GD32VW55X_Wifi_BLE_SDK/GD32VW55x_RELEASE_V1.0.2/MSDK/wpa_supplicant/src/crypto\sha1-internal.c **** against
  96:C:/Users/stapi/OneDrive/Desktop/GD32VW553/V1_MQTT_OK/GD32VW55X_Wifi_BLE_SDK/GD32VW55x_RELEASE_V1.0.2/MSDK/wpa_supplicant/src/crypto\sha1-internal.c **** it.  This caused the hash function to generate incorrect values if len was
  97:C:/Users/stapi/OneDrive/Desktop/GD32VW553/V1_MQTT_OK/GD32VW55X_Wifi_BLE_SDK/GD32VW55x_RELEASE_V1.0.2/MSDK/wpa_supplicant/src/crypto\sha1-internal.c **** greater than 8191 (8K - 1) due to the 'len << 3' on line 3 of SHA1Update().
  98:C:/Users/stapi/OneDrive/Desktop/GD32VW553/V1_MQTT_OK/GD32VW55X_Wifi_BLE_SDK/GD32VW55x_RELEASE_V1.0.2/MSDK/wpa_supplicant/src/crypto\sha1-internal.c **** 
  99:C:/Users/stapi/OneDrive/Desktop/GD32VW553/V1_MQTT_OK/GD32VW55X_Wifi_BLE_SDK/GD32VW55x_RELEASE_V1.0.2/MSDK/wpa_supplicant/src/crypto\sha1-internal.c **** Since the file IO in main() reads 16K at a time, any file 8K or larger would
 100:C:/Users/stapi/OneDrive/Desktop/GD32VW553/V1_MQTT_OK/GD32VW55X_Wifi_BLE_SDK/GD32VW55x_RELEASE_V1.0.2/MSDK/wpa_supplicant/src/crypto\sha1-internal.c **** be guaranteed to generate the wrong hash (e.g. Test Vector #3, a million
 101:C:/Users/stapi/OneDrive/Desktop/GD32VW553/V1_MQTT_OK/GD32VW55X_Wifi_BLE_SDK/GD32VW55x_RELEASE_V1.0.2/MSDK/wpa_supplicant/src/crypto\sha1-internal.c **** "a"s).
 102:C:/Users/stapi/OneDrive/Desktop/GD32VW553/V1_MQTT_OK/GD32VW55X_Wifi_BLE_SDK/GD32VW55x_RELEASE_V1.0.2/MSDK/wpa_supplicant/src/crypto\sha1-internal.c **** 
 103:C:/Users/stapi/OneDrive/Desktop/GD32VW553/V1_MQTT_OK/GD32VW55X_Wifi_BLE_SDK/GD32VW55x_RELEASE_V1.0.2/MSDK/wpa_supplicant/src/crypto\sha1-internal.c **** I also changed the declaration of variables i & j in SHA1Update to
 104:C:/Users/stapi/OneDrive/Desktop/GD32VW553/V1_MQTT_OK/GD32VW55X_Wifi_BLE_SDK/GD32VW55x_RELEASE_V1.0.2/MSDK/wpa_supplicant/src/crypto\sha1-internal.c **** unsigned long from unsigned int for the same reason.
 105:C:/Users/stapi/OneDrive/Desktop/GD32VW553/V1_MQTT_OK/GD32VW55X_Wifi_BLE_SDK/GD32VW55x_RELEASE_V1.0.2/MSDK/wpa_supplicant/src/crypto\sha1-internal.c **** 
 106:C:/Users/stapi/OneDrive/Desktop/GD32VW553/V1_MQTT_OK/GD32VW55X_Wifi_BLE_SDK/GD32VW55x_RELEASE_V1.0.2/MSDK/wpa_supplicant/src/crypto\sha1-internal.c **** These changes should make no difference to any 32 bit implementations since
 107:C:/Users/stapi/OneDrive/Desktop/GD32VW553/V1_MQTT_OK/GD32VW55X_Wifi_BLE_SDK/GD32VW55x_RELEASE_V1.0.2/MSDK/wpa_supplicant/src/crypto\sha1-internal.c **** an
 108:C:/Users/stapi/OneDrive/Desktop/GD32VW553/V1_MQTT_OK/GD32VW55X_Wifi_BLE_SDK/GD32VW55x_RELEASE_V1.0.2/MSDK/wpa_supplicant/src/crypto\sha1-internal.c **** int and a long are the same size in those environments.
 109:C:/Users/stapi/OneDrive/Desktop/GD32VW553/V1_MQTT_OK/GD32VW55X_Wifi_BLE_SDK/GD32VW55x_RELEASE_V1.0.2/MSDK/wpa_supplicant/src/crypto\sha1-internal.c **** 
 110:C:/Users/stapi/OneDrive/Desktop/GD32VW553/V1_MQTT_OK/GD32VW55X_Wifi_BLE_SDK/GD32VW55x_RELEASE_V1.0.2/MSDK/wpa_supplicant/src/crypto\sha1-internal.c **** --
 111:C:/Users/stapi/OneDrive/Desktop/GD32VW553/V1_MQTT_OK/GD32VW55X_Wifi_BLE_SDK/GD32VW55x_RELEASE_V1.0.2/MSDK/wpa_supplicant/src/crypto\sha1-internal.c **** I also corrected a few compiler warnings generated by Borland C.
 112:C:/Users/stapi/OneDrive/Desktop/GD32VW553/V1_MQTT_OK/GD32VW55X_Wifi_BLE_SDK/GD32VW55x_RELEASE_V1.0.2/MSDK/wpa_supplicant/src/crypto\sha1-internal.c **** 1. Added #include <process.h> for exit() prototype
 113:C:/Users/stapi/OneDrive/Desktop/GD32VW553/V1_MQTT_OK/GD32VW55X_Wifi_BLE_SDK/GD32VW55x_RELEASE_V1.0.2/MSDK/wpa_supplicant/src/crypto\sha1-internal.c **** 2. Removed unused variable 'j' in SHA1Final
 114:C:/Users/stapi/OneDrive/Desktop/GD32VW553/V1_MQTT_OK/GD32VW55X_Wifi_BLE_SDK/GD32VW55x_RELEASE_V1.0.2/MSDK/wpa_supplicant/src/crypto\sha1-internal.c **** 3. Changed exit(0) to return(0) at end of main.
 115:C:/Users/stapi/OneDrive/Desktop/GD32VW553/V1_MQTT_OK/GD32VW55X_Wifi_BLE_SDK/GD32VW55x_RELEASE_V1.0.2/MSDK/wpa_supplicant/src/crypto\sha1-internal.c **** 
 116:C:/Users/stapi/OneDrive/Desktop/GD32VW553/V1_MQTT_OK/GD32VW55X_Wifi_BLE_SDK/GD32VW55x_RELEASE_V1.0.2/MSDK/wpa_supplicant/src/crypto\sha1-internal.c **** ALL changes I made can be located by searching for comments containing 'JHB'
 117:C:/Users/stapi/OneDrive/Desktop/GD32VW553/V1_MQTT_OK/GD32VW55X_Wifi_BLE_SDK/GD32VW55x_RELEASE_V1.0.2/MSDK/wpa_supplicant/src/crypto\sha1-internal.c **** -----------------
 118:C:/Users/stapi/OneDrive/Desktop/GD32VW553/V1_MQTT_OK/GD32VW55X_Wifi_BLE_SDK/GD32VW55x_RELEASE_V1.0.2/MSDK/wpa_supplicant/src/crypto\sha1-internal.c **** Modified 8/98
 119:C:/Users/stapi/OneDrive/Desktop/GD32VW553/V1_MQTT_OK/GD32VW55X_Wifi_BLE_SDK/GD32VW55x_RELEASE_V1.0.2/MSDK/wpa_supplicant/src/crypto\sha1-internal.c **** By Steve Reid <sreid@sea-to-sky.net>
 120:C:/Users/stapi/OneDrive/Desktop/GD32VW553/V1_MQTT_OK/GD32VW55X_Wifi_BLE_SDK/GD32VW55x_RELEASE_V1.0.2/MSDK/wpa_supplicant/src/crypto\sha1-internal.c **** Still 100% public domain
 121:C:/Users/stapi/OneDrive/Desktop/GD32VW553/V1_MQTT_OK/GD32VW55X_Wifi_BLE_SDK/GD32VW55x_RELEASE_V1.0.2/MSDK/wpa_supplicant/src/crypto\sha1-internal.c **** 
 122:C:/Users/stapi/OneDrive/Desktop/GD32VW553/V1_MQTT_OK/GD32VW55X_Wifi_BLE_SDK/GD32VW55x_RELEASE_V1.0.2/MSDK/wpa_supplicant/src/crypto\sha1-internal.c **** 1- Removed #include <process.h> and used return() instead of exit()
 123:C:/Users/stapi/OneDrive/Desktop/GD32VW553/V1_MQTT_OK/GD32VW55X_Wifi_BLE_SDK/GD32VW55x_RELEASE_V1.0.2/MSDK/wpa_supplicant/src/crypto\sha1-internal.c **** 2- Fixed overwriting of finalcount in SHA1Final() (discovered by Chris Hall)
 124:C:/Users/stapi/OneDrive/Desktop/GD32VW553/V1_MQTT_OK/GD32VW55X_Wifi_BLE_SDK/GD32VW55x_RELEASE_V1.0.2/MSDK/wpa_supplicant/src/crypto\sha1-internal.c **** 3- Changed email address from steve@edmweb.com to sreid@sea-to-sky.net
 125:C:/Users/stapi/OneDrive/Desktop/GD32VW553/V1_MQTT_OK/GD32VW55X_Wifi_BLE_SDK/GD32VW55x_RELEASE_V1.0.2/MSDK/wpa_supplicant/src/crypto\sha1-internal.c **** 
 126:C:/Users/stapi/OneDrive/Desktop/GD32VW553/V1_MQTT_OK/GD32VW55X_Wifi_BLE_SDK/GD32VW55x_RELEASE_V1.0.2/MSDK/wpa_supplicant/src/crypto\sha1-internal.c **** -----------------
 127:C:/Users/stapi/OneDrive/Desktop/GD32VW553/V1_MQTT_OK/GD32VW55X_Wifi_BLE_SDK/GD32VW55x_RELEASE_V1.0.2/MSDK/wpa_supplicant/src/crypto\sha1-internal.c **** Modified 4/01
 128:C:/Users/stapi/OneDrive/Desktop/GD32VW553/V1_MQTT_OK/GD32VW55X_Wifi_BLE_SDK/GD32VW55x_RELEASE_V1.0.2/MSDK/wpa_supplicant/src/crypto\sha1-internal.c **** By Saul Kravitz <Saul.Kravitz@celera.com>
 129:C:/Users/stapi/OneDrive/Desktop/GD32VW553/V1_MQTT_OK/GD32VW55X_Wifi_BLE_SDK/GD32VW55x_RELEASE_V1.0.2/MSDK/wpa_supplicant/src/crypto\sha1-internal.c **** Still 100% PD
 130:C:/Users/stapi/OneDrive/Desktop/GD32VW553/V1_MQTT_OK/GD32VW55X_Wifi_BLE_SDK/GD32VW55x_RELEASE_V1.0.2/MSDK/wpa_supplicant/src/crypto\sha1-internal.c **** Modified to run on Compaq Alpha hardware.
 131:C:/Users/stapi/OneDrive/Desktop/GD32VW553/V1_MQTT_OK/GD32VW55X_Wifi_BLE_SDK/GD32VW55x_RELEASE_V1.0.2/MSDK/wpa_supplicant/src/crypto\sha1-internal.c **** 
 132:C:/Users/stapi/OneDrive/Desktop/GD32VW553/V1_MQTT_OK/GD32VW55X_Wifi_BLE_SDK/GD32VW55x_RELEASE_V1.0.2/MSDK/wpa_supplicant/src/crypto\sha1-internal.c **** -----------------
 133:C:/Users/stapi/OneDrive/Desktop/GD32VW553/V1_MQTT_OK/GD32VW55X_Wifi_BLE_SDK/GD32VW55x_RELEASE_V1.0.2/MSDK/wpa_supplicant/src/crypto\sha1-internal.c **** Modified 4/01
 134:C:/Users/stapi/OneDrive/Desktop/GD32VW553/V1_MQTT_OK/GD32VW55X_Wifi_BLE_SDK/GD32VW55x_RELEASE_V1.0.2/MSDK/wpa_supplicant/src/crypto\sha1-internal.c **** By Jouni Malinen <j@w1.fi>
 135:C:/Users/stapi/OneDrive/Desktop/GD32VW553/V1_MQTT_OK/GD32VW55X_Wifi_BLE_SDK/GD32VW55x_RELEASE_V1.0.2/MSDK/wpa_supplicant/src/crypto\sha1-internal.c **** Minor changes to match the coding style used in Dynamics.
 136:C:/Users/stapi/OneDrive/Desktop/GD32VW553/V1_MQTT_OK/GD32VW55X_Wifi_BLE_SDK/GD32VW55x_RELEASE_V1.0.2/MSDK/wpa_supplicant/src/crypto\sha1-internal.c **** 
 137:C:/Users/stapi/OneDrive/Desktop/GD32VW553/V1_MQTT_OK/GD32VW55X_Wifi_BLE_SDK/GD32VW55x_RELEASE_V1.0.2/MSDK/wpa_supplicant/src/crypto\sha1-internal.c **** Modified September 24, 2004
 138:C:/Users/stapi/OneDrive/Desktop/GD32VW553/V1_MQTT_OK/GD32VW55X_Wifi_BLE_SDK/GD32VW55x_RELEASE_V1.0.2/MSDK/wpa_supplicant/src/crypto\sha1-internal.c **** By Jouni Malinen <j@w1.fi>
 139:C:/Users/stapi/OneDrive/Desktop/GD32VW553/V1_MQTT_OK/GD32VW55X_Wifi_BLE_SDK/GD32VW55x_RELEASE_V1.0.2/MSDK/wpa_supplicant/src/crypto\sha1-internal.c **** Fixed alignment issue in SHA1Transform when SHA1HANDSOFF is defined.
 140:C:/Users/stapi/OneDrive/Desktop/GD32VW553/V1_MQTT_OK/GD32VW55X_Wifi_BLE_SDK/GD32VW55x_RELEASE_V1.0.2/MSDK/wpa_supplicant/src/crypto\sha1-internal.c **** 
 141:C:/Users/stapi/OneDrive/Desktop/GD32VW553/V1_MQTT_OK/GD32VW55X_Wifi_BLE_SDK/GD32VW55x_RELEASE_V1.0.2/MSDK/wpa_supplicant/src/crypto\sha1-internal.c **** */
 142:C:/Users/stapi/OneDrive/Desktop/GD32VW553/V1_MQTT_OK/GD32VW55X_Wifi_BLE_SDK/GD32VW55x_RELEASE_V1.0.2/MSDK/wpa_supplicant/src/crypto\sha1-internal.c **** 
 143:C:/Users/stapi/OneDrive/Desktop/GD32VW553/V1_MQTT_OK/GD32VW55X_Wifi_BLE_SDK/GD32VW55x_RELEASE_V1.0.2/MSDK/wpa_supplicant/src/crypto\sha1-internal.c **** /*
 144:C:/Users/stapi/OneDrive/Desktop/GD32VW553/V1_MQTT_OK/GD32VW55X_Wifi_BLE_SDK/GD32VW55x_RELEASE_V1.0.2/MSDK/wpa_supplicant/src/crypto\sha1-internal.c **** Test Vectors (from FIPS PUB 180-1)
 145:C:/Users/stapi/OneDrive/Desktop/GD32VW553/V1_MQTT_OK/GD32VW55X_Wifi_BLE_SDK/GD32VW55x_RELEASE_V1.0.2/MSDK/wpa_supplicant/src/crypto\sha1-internal.c **** "abc"
 146:C:/Users/stapi/OneDrive/Desktop/GD32VW553/V1_MQTT_OK/GD32VW55X_Wifi_BLE_SDK/GD32VW55x_RELEASE_V1.0.2/MSDK/wpa_supplicant/src/crypto\sha1-internal.c ****   A9993E36 4706816A BA3E2571 7850C26C 9CD0D89D
 147:C:/Users/stapi/OneDrive/Desktop/GD32VW553/V1_MQTT_OK/GD32VW55X_Wifi_BLE_SDK/GD32VW55x_RELEASE_V1.0.2/MSDK/wpa_supplicant/src/crypto\sha1-internal.c **** "abcdbcdecdefdefgefghfghighijhijkijkljklmklmnlmnomnopnopq"
 148:C:/Users/stapi/OneDrive/Desktop/GD32VW553/V1_MQTT_OK/GD32VW55X_Wifi_BLE_SDK/GD32VW55x_RELEASE_V1.0.2/MSDK/wpa_supplicant/src/crypto\sha1-internal.c ****   84983E44 1C3BD26E BAAE4AA1 F95129E5 E54670F1
 149:C:/Users/stapi/OneDrive/Desktop/GD32VW553/V1_MQTT_OK/GD32VW55X_Wifi_BLE_SDK/GD32VW55x_RELEASE_V1.0.2/MSDK/wpa_supplicant/src/crypto\sha1-internal.c **** A million repetitions of "a"
 150:C:/Users/stapi/OneDrive/Desktop/GD32VW553/V1_MQTT_OK/GD32VW55X_Wifi_BLE_SDK/GD32VW55x_RELEASE_V1.0.2/MSDK/wpa_supplicant/src/crypto\sha1-internal.c ****   34AA973C D4C4DAA4 F61EEB2B DBAD2731 6534016F
 151:C:/Users/stapi/OneDrive/Desktop/GD32VW553/V1_MQTT_OK/GD32VW55X_Wifi_BLE_SDK/GD32VW55x_RELEASE_V1.0.2/MSDK/wpa_supplicant/src/crypto\sha1-internal.c **** */
 152:C:/Users/stapi/OneDrive/Desktop/GD32VW553/V1_MQTT_OK/GD32VW55X_Wifi_BLE_SDK/GD32VW55x_RELEASE_V1.0.2/MSDK/wpa_supplicant/src/crypto\sha1-internal.c **** #if 1//ndef WPA_HW_SECURITY_ENGINE_ENABLE
 153:C:/Users/stapi/OneDrive/Desktop/GD32VW553/V1_MQTT_OK/GD32VW55X_Wifi_BLE_SDK/GD32VW55x_RELEASE_V1.0.2/MSDK/wpa_supplicant/src/crypto\sha1-internal.c **** 
 154:C:/Users/stapi/OneDrive/Desktop/GD32VW553/V1_MQTT_OK/GD32VW55X_Wifi_BLE_SDK/GD32VW55x_RELEASE_V1.0.2/MSDK/wpa_supplicant/src/crypto\sha1-internal.c **** #define SHA1HANDSOFF
 155:C:/Users/stapi/OneDrive/Desktop/GD32VW553/V1_MQTT_OK/GD32VW55X_Wifi_BLE_SDK/GD32VW55x_RELEASE_V1.0.2/MSDK/wpa_supplicant/src/crypto\sha1-internal.c **** 
 156:C:/Users/stapi/OneDrive/Desktop/GD32VW553/V1_MQTT_OK/GD32VW55X_Wifi_BLE_SDK/GD32VW55x_RELEASE_V1.0.2/MSDK/wpa_supplicant/src/crypto\sha1-internal.c **** #define rol(value, bits) (((value) << (bits)) | ((value) >> (32 - (bits))))
 157:C:/Users/stapi/OneDrive/Desktop/GD32VW553/V1_MQTT_OK/GD32VW55X_Wifi_BLE_SDK/GD32VW55x_RELEASE_V1.0.2/MSDK/wpa_supplicant/src/crypto\sha1-internal.c **** 
 158:C:/Users/stapi/OneDrive/Desktop/GD32VW553/V1_MQTT_OK/GD32VW55X_Wifi_BLE_SDK/GD32VW55x_RELEASE_V1.0.2/MSDK/wpa_supplicant/src/crypto\sha1-internal.c **** /* blk0() and blk() perform the initial expand. */
 159:C:/Users/stapi/OneDrive/Desktop/GD32VW553/V1_MQTT_OK/GD32VW55X_Wifi_BLE_SDK/GD32VW55x_RELEASE_V1.0.2/MSDK/wpa_supplicant/src/crypto\sha1-internal.c **** /* I got the idea of expanding during the round function from SSLeay */
 160:C:/Users/stapi/OneDrive/Desktop/GD32VW553/V1_MQTT_OK/GD32VW55X_Wifi_BLE_SDK/GD32VW55x_RELEASE_V1.0.2/MSDK/wpa_supplicant/src/crypto\sha1-internal.c **** #ifndef WORDS_BIGENDIAN
 161:C:/Users/stapi/OneDrive/Desktop/GD32VW553/V1_MQTT_OK/GD32VW55X_Wifi_BLE_SDK/GD32VW55x_RELEASE_V1.0.2/MSDK/wpa_supplicant/src/crypto\sha1-internal.c **** #define blk0(i) (block->l[i] = (rol(block->l[i], 24) & 0xFF00FF00) | \
 162:C:/Users/stapi/OneDrive/Desktop/GD32VW553/V1_MQTT_OK/GD32VW55X_Wifi_BLE_SDK/GD32VW55x_RELEASE_V1.0.2/MSDK/wpa_supplicant/src/crypto\sha1-internal.c **** 	(rol(block->l[i], 8) & 0x00FF00FF))
 163:C:/Users/stapi/OneDrive/Desktop/GD32VW553/V1_MQTT_OK/GD32VW55X_Wifi_BLE_SDK/GD32VW55x_RELEASE_V1.0.2/MSDK/wpa_supplicant/src/crypto\sha1-internal.c **** #else
 164:C:/Users/stapi/OneDrive/Desktop/GD32VW553/V1_MQTT_OK/GD32VW55X_Wifi_BLE_SDK/GD32VW55x_RELEASE_V1.0.2/MSDK/wpa_supplicant/src/crypto\sha1-internal.c **** #define blk0(i) block->l[i]
 165:C:/Users/stapi/OneDrive/Desktop/GD32VW553/V1_MQTT_OK/GD32VW55X_Wifi_BLE_SDK/GD32VW55x_RELEASE_V1.0.2/MSDK/wpa_supplicant/src/crypto\sha1-internal.c **** #endif
 166:C:/Users/stapi/OneDrive/Desktop/GD32VW553/V1_MQTT_OK/GD32VW55X_Wifi_BLE_SDK/GD32VW55x_RELEASE_V1.0.2/MSDK/wpa_supplicant/src/crypto\sha1-internal.c **** #define blk(i) (block->l[i & 15] = rol(block->l[(i + 13) & 15] ^ \
 167:C:/Users/stapi/OneDrive/Desktop/GD32VW553/V1_MQTT_OK/GD32VW55X_Wifi_BLE_SDK/GD32VW55x_RELEASE_V1.0.2/MSDK/wpa_supplicant/src/crypto\sha1-internal.c **** 	block->l[(i + 8) & 15] ^ block->l[(i + 2) & 15] ^ block->l[i & 15], 1))
 168:C:/Users/stapi/OneDrive/Desktop/GD32VW553/V1_MQTT_OK/GD32VW55X_Wifi_BLE_SDK/GD32VW55x_RELEASE_V1.0.2/MSDK/wpa_supplicant/src/crypto\sha1-internal.c **** 
 169:C:/Users/stapi/OneDrive/Desktop/GD32VW553/V1_MQTT_OK/GD32VW55X_Wifi_BLE_SDK/GD32VW55x_RELEASE_V1.0.2/MSDK/wpa_supplicant/src/crypto\sha1-internal.c **** /* (R0+R1), R2, R3, R4 are the different operations used in SHA1 */
 170:C:/Users/stapi/OneDrive/Desktop/GD32VW553/V1_MQTT_OK/GD32VW55X_Wifi_BLE_SDK/GD32VW55x_RELEASE_V1.0.2/MSDK/wpa_supplicant/src/crypto\sha1-internal.c **** #define R0(v,w,x,y,z,i) \
 171:C:/Users/stapi/OneDrive/Desktop/GD32VW553/V1_MQTT_OK/GD32VW55X_Wifi_BLE_SDK/GD32VW55x_RELEASE_V1.0.2/MSDK/wpa_supplicant/src/crypto\sha1-internal.c **** 	z += ((w & (x ^ y)) ^ y) + blk0(i) + 0x5A827999 + rol(v, 5); \
 172:C:/Users/stapi/OneDrive/Desktop/GD32VW553/V1_MQTT_OK/GD32VW55X_Wifi_BLE_SDK/GD32VW55x_RELEASE_V1.0.2/MSDK/wpa_supplicant/src/crypto\sha1-internal.c **** 	w = rol(w, 30);
 173:C:/Users/stapi/OneDrive/Desktop/GD32VW553/V1_MQTT_OK/GD32VW55X_Wifi_BLE_SDK/GD32VW55x_RELEASE_V1.0.2/MSDK/wpa_supplicant/src/crypto\sha1-internal.c **** #define R1(v,w,x,y,z,i) \
 174:C:/Users/stapi/OneDrive/Desktop/GD32VW553/V1_MQTT_OK/GD32VW55X_Wifi_BLE_SDK/GD32VW55x_RELEASE_V1.0.2/MSDK/wpa_supplicant/src/crypto\sha1-internal.c **** 	z += ((w & (x ^ y)) ^ y) + blk(i) + 0x5A827999 + rol(v, 5); \
 175:C:/Users/stapi/OneDrive/Desktop/GD32VW553/V1_MQTT_OK/GD32VW55X_Wifi_BLE_SDK/GD32VW55x_RELEASE_V1.0.2/MSDK/wpa_supplicant/src/crypto\sha1-internal.c **** 	w = rol(w, 30);
 176:C:/Users/stapi/OneDrive/Desktop/GD32VW553/V1_MQTT_OK/GD32VW55X_Wifi_BLE_SDK/GD32VW55x_RELEASE_V1.0.2/MSDK/wpa_supplicant/src/crypto\sha1-internal.c **** #define R2(v,w,x,y,z,i) \
 177:C:/Users/stapi/OneDrive/Desktop/GD32VW553/V1_MQTT_OK/GD32VW55X_Wifi_BLE_SDK/GD32VW55x_RELEASE_V1.0.2/MSDK/wpa_supplicant/src/crypto\sha1-internal.c **** 	z += (w ^ x ^ y) + blk(i) + 0x6ED9EBA1 + rol(v, 5); w = rol(w, 30);
 178:C:/Users/stapi/OneDrive/Desktop/GD32VW553/V1_MQTT_OK/GD32VW55X_Wifi_BLE_SDK/GD32VW55x_RELEASE_V1.0.2/MSDK/wpa_supplicant/src/crypto\sha1-internal.c **** #define R3(v,w,x,y,z,i) \
 179:C:/Users/stapi/OneDrive/Desktop/GD32VW553/V1_MQTT_OK/GD32VW55X_Wifi_BLE_SDK/GD32VW55x_RELEASE_V1.0.2/MSDK/wpa_supplicant/src/crypto\sha1-internal.c **** 	z += (((w | x) & y) | (w & x)) + blk(i) + 0x8F1BBCDC + rol(v, 5); \
 180:C:/Users/stapi/OneDrive/Desktop/GD32VW553/V1_MQTT_OK/GD32VW55X_Wifi_BLE_SDK/GD32VW55x_RELEASE_V1.0.2/MSDK/wpa_supplicant/src/crypto\sha1-internal.c **** 	w = rol(w, 30);
 181:C:/Users/stapi/OneDrive/Desktop/GD32VW553/V1_MQTT_OK/GD32VW55X_Wifi_BLE_SDK/GD32VW55x_RELEASE_V1.0.2/MSDK/wpa_supplicant/src/crypto\sha1-internal.c **** #define R4(v,w,x,y,z,i) \
 182:C:/Users/stapi/OneDrive/Desktop/GD32VW553/V1_MQTT_OK/GD32VW55X_Wifi_BLE_SDK/GD32VW55x_RELEASE_V1.0.2/MSDK/wpa_supplicant/src/crypto\sha1-internal.c **** 	z += (w ^ x ^ y) + blk(i) + 0xCA62C1D6 + rol(v, 5); \
 183:C:/Users/stapi/OneDrive/Desktop/GD32VW553/V1_MQTT_OK/GD32VW55X_Wifi_BLE_SDK/GD32VW55x_RELEASE_V1.0.2/MSDK/wpa_supplicant/src/crypto\sha1-internal.c **** 	w=rol(w, 30);
 184:C:/Users/stapi/OneDrive/Desktop/GD32VW553/V1_MQTT_OK/GD32VW55X_Wifi_BLE_SDK/GD32VW55x_RELEASE_V1.0.2/MSDK/wpa_supplicant/src/crypto\sha1-internal.c **** 
 185:C:/Users/stapi/OneDrive/Desktop/GD32VW553/V1_MQTT_OK/GD32VW55X_Wifi_BLE_SDK/GD32VW55x_RELEASE_V1.0.2/MSDK/wpa_supplicant/src/crypto\sha1-internal.c **** 
 186:C:/Users/stapi/OneDrive/Desktop/GD32VW553/V1_MQTT_OK/GD32VW55X_Wifi_BLE_SDK/GD32VW55x_RELEASE_V1.0.2/MSDK/wpa_supplicant/src/crypto\sha1-internal.c **** #ifdef VERBOSE  /* SAK */
 187:C:/Users/stapi/OneDrive/Desktop/GD32VW553/V1_MQTT_OK/GD32VW55X_Wifi_BLE_SDK/GD32VW55x_RELEASE_V1.0.2/MSDK/wpa_supplicant/src/crypto\sha1-internal.c **** void SHAPrintContext(SHA1_CTX *context, char *msg)
 188:C:/Users/stapi/OneDrive/Desktop/GD32VW553/V1_MQTT_OK/GD32VW55X_Wifi_BLE_SDK/GD32VW55x_RELEASE_V1.0.2/MSDK/wpa_supplicant/src/crypto\sha1-internal.c **** {
 189:C:/Users/stapi/OneDrive/Desktop/GD32VW553/V1_MQTT_OK/GD32VW55X_Wifi_BLE_SDK/GD32VW55x_RELEASE_V1.0.2/MSDK/wpa_supplicant/src/crypto\sha1-internal.c **** 	printf("%s (%d,%d) %x %x %x %x %x\n",
 190:C:/Users/stapi/OneDrive/Desktop/GD32VW553/V1_MQTT_OK/GD32VW55X_Wifi_BLE_SDK/GD32VW55x_RELEASE_V1.0.2/MSDK/wpa_supplicant/src/crypto\sha1-internal.c **** 	       msg,
 191:C:/Users/stapi/OneDrive/Desktop/GD32VW553/V1_MQTT_OK/GD32VW55X_Wifi_BLE_SDK/GD32VW55x_RELEASE_V1.0.2/MSDK/wpa_supplicant/src/crypto\sha1-internal.c **** 	       context->count[0], context->count[1],
 192:C:/Users/stapi/OneDrive/Desktop/GD32VW553/V1_MQTT_OK/GD32VW55X_Wifi_BLE_SDK/GD32VW55x_RELEASE_V1.0.2/MSDK/wpa_supplicant/src/crypto\sha1-internal.c **** 	       context->state[0],
 193:C:/Users/stapi/OneDrive/Desktop/GD32VW553/V1_MQTT_OK/GD32VW55X_Wifi_BLE_SDK/GD32VW55x_RELEASE_V1.0.2/MSDK/wpa_supplicant/src/crypto\sha1-internal.c **** 	       context->state[1],
 194:C:/Users/stapi/OneDrive/Desktop/GD32VW553/V1_MQTT_OK/GD32VW55X_Wifi_BLE_SDK/GD32VW55x_RELEASE_V1.0.2/MSDK/wpa_supplicant/src/crypto\sha1-internal.c **** 	       context->state[2],
 195:C:/Users/stapi/OneDrive/Desktop/GD32VW553/V1_MQTT_OK/GD32VW55X_Wifi_BLE_SDK/GD32VW55x_RELEASE_V1.0.2/MSDK/wpa_supplicant/src/crypto\sha1-internal.c **** 	       context->state[3],
 196:C:/Users/stapi/OneDrive/Desktop/GD32VW553/V1_MQTT_OK/GD32VW55X_Wifi_BLE_SDK/GD32VW55x_RELEASE_V1.0.2/MSDK/wpa_supplicant/src/crypto\sha1-internal.c **** 	       context->state[4]);
 197:C:/Users/stapi/OneDrive/Desktop/GD32VW553/V1_MQTT_OK/GD32VW55X_Wifi_BLE_SDK/GD32VW55x_RELEASE_V1.0.2/MSDK/wpa_supplicant/src/crypto\sha1-internal.c **** }
 198:C:/Users/stapi/OneDrive/Desktop/GD32VW553/V1_MQTT_OK/GD32VW55X_Wifi_BLE_SDK/GD32VW55x_RELEASE_V1.0.2/MSDK/wpa_supplicant/src/crypto\sha1-internal.c **** #endif
 199:C:/Users/stapi/OneDrive/Desktop/GD32VW553/V1_MQTT_OK/GD32VW55X_Wifi_BLE_SDK/GD32VW55x_RELEASE_V1.0.2/MSDK/wpa_supplicant/src/crypto\sha1-internal.c **** 
 200:C:/Users/stapi/OneDrive/Desktop/GD32VW553/V1_MQTT_OK/GD32VW55X_Wifi_BLE_SDK/GD32VW55x_RELEASE_V1.0.2/MSDK/wpa_supplicant/src/crypto\sha1-internal.c **** /* Hash a single 512-bit block. This is the core of the algorithm. */
 201:C:/Users/stapi/OneDrive/Desktop/GD32VW553/V1_MQTT_OK/GD32VW55X_Wifi_BLE_SDK/GD32VW55x_RELEASE_V1.0.2/MSDK/wpa_supplicant/src/crypto\sha1-internal.c **** 
 202:C:/Users/stapi/OneDrive/Desktop/GD32VW553/V1_MQTT_OK/GD32VW55X_Wifi_BLE_SDK/GD32VW55x_RELEASE_V1.0.2/MSDK/wpa_supplicant/src/crypto\sha1-internal.c **** void SHA1Transform(u32 state[5], const unsigned char buffer[64])
 203:C:/Users/stapi/OneDrive/Desktop/GD32VW553/V1_MQTT_OK/GD32VW55X_Wifi_BLE_SDK/GD32VW55x_RELEASE_V1.0.2/MSDK/wpa_supplicant/src/crypto\sha1-internal.c **** {
 152              		.loc 1 203 1
 153              		.cfi_startproc
 154              	.LVL19:
 155 0000 17030000 		call	t0,__riscv_save_12
 155      E7020300 
 156              		.cfi_offset 27, -52
 157              		.cfi_offset 26, -48
 158              		.cfi_offset 25, -44
 159              		.cfi_offset 24, -40
 160              		.cfi_offset 23, -36
 161              		.cfi_offset 22, -32
 162              		.cfi_offset 21, -28
 163              		.cfi_offset 20, -24
 164              		.cfi_offset 19, -20
 165              		.cfi_offset 18, -16
 166              		.cfi_offset 9, -12
 167              		.cfi_offset 8, -8
 168              		.cfi_offset 1, -4
 169              		.cfi_def_cfa_offset 64
 204:C:/Users/stapi/OneDrive/Desktop/GD32VW553/V1_MQTT_OK/GD32VW55X_Wifi_BLE_SDK/GD32VW55x_RELEASE_V1.0.2/MSDK/wpa_supplicant/src/crypto\sha1-internal.c **** 	u32 a, b, c, d, e;
 170              		.loc 1 204 2
 205:C:/Users/stapi/OneDrive/Desktop/GD32VW553/V1_MQTT_OK/GD32VW55X_Wifi_BLE_SDK/GD32VW55x_RELEASE_V1.0.2/MSDK/wpa_supplicant/src/crypto\sha1-internal.c **** 	typedef union {
 171              		.loc 1 205 2
 206:C:/Users/stapi/OneDrive/Desktop/GD32VW553/V1_MQTT_OK/GD32VW55X_Wifi_BLE_SDK/GD32VW55x_RELEASE_V1.0.2/MSDK/wpa_supplicant/src/crypto\sha1-internal.c **** 		unsigned char c[64];
 207:C:/Users/stapi/OneDrive/Desktop/GD32VW553/V1_MQTT_OK/GD32VW55X_Wifi_BLE_SDK/GD32VW55x_RELEASE_V1.0.2/MSDK/wpa_supplicant/src/crypto\sha1-internal.c **** 		u32 l[16];
 208:C:/Users/stapi/OneDrive/Desktop/GD32VW553/V1_MQTT_OK/GD32VW55X_Wifi_BLE_SDK/GD32VW55x_RELEASE_V1.0.2/MSDK/wpa_supplicant/src/crypto\sha1-internal.c **** 	} CHAR64LONG16;
 209:C:/Users/stapi/OneDrive/Desktop/GD32VW553/V1_MQTT_OK/GD32VW55X_Wifi_BLE_SDK/GD32VW55x_RELEASE_V1.0.2/MSDK/wpa_supplicant/src/crypto\sha1-internal.c **** 	CHAR64LONG16* block;
 172              		.loc 1 209 2
 210:C:/Users/stapi/OneDrive/Desktop/GD32VW553/V1_MQTT_OK/GD32VW55X_Wifi_BLE_SDK/GD32VW55x_RELEASE_V1.0.2/MSDK/wpa_supplicant/src/crypto\sha1-internal.c **** #ifdef SHA1HANDSOFF
 211:C:/Users/stapi/OneDrive/Desktop/GD32VW553/V1_MQTT_OK/GD32VW55X_Wifi_BLE_SDK/GD32VW55x_RELEASE_V1.0.2/MSDK/wpa_supplicant/src/crypto\sha1-internal.c **** 	CHAR64LONG16 workspace;
 173              		.loc 1 211 2
 212:C:/Users/stapi/OneDrive/Desktop/GD32VW553/V1_MQTT_OK/GD32VW55X_Wifi_BLE_SDK/GD32VW55x_RELEASE_V1.0.2/MSDK/wpa_supplicant/src/crypto\sha1-internal.c **** 	block = &workspace;
 174              		.loc 1 212 2
 203:C:/Users/stapi/OneDrive/Desktop/GD32VW553/V1_MQTT_OK/GD32VW55X_Wifi_BLE_SDK/GD32VW55x_RELEASE_V1.0.2/MSDK/wpa_supplicant/src/crypto\sha1-internal.c **** 	u32 a, b, c, d, e;
 175              		.loc 1 203 1 is_stmt 0
 176 0008 3971     		addi	sp,sp,-64
 177              		.cfi_def_cfa_offset 128
 178              	.LVL20:
 213:C:/Users/stapi/OneDrive/Desktop/GD32VW553/V1_MQTT_OK/GD32VW55X_Wifi_BLE_SDK/GD32VW55x_RELEASE_V1.0.2/MSDK/wpa_supplicant/src/crypto\sha1-internal.c **** 	os_memcpy(block, buffer, 64);
 179              		.loc 1 213 2 is_stmt 1
 203:C:/Users/stapi/OneDrive/Desktop/GD32VW553/V1_MQTT_OK/GD32VW55X_Wifi_BLE_SDK/GD32VW55x_RELEASE_V1.0.2/MSDK/wpa_supplicant/src/crypto\sha1-internal.c **** 	u32 a, b, c, d, e;
 180              		.loc 1 203 1 is_stmt 0
 181 000a 2A8A     		mv	s4,a0
 182              		.loc 1 213 2
 183 000c 13060004 		li	a2,64
 184 0010 0A85     		mv	a0,sp
 185              	.LVL21:
 186 0012 97000000 		call	os_memcpy
 186      E7800000 
 187              	.LVL22:
 214:C:/Users/stapi/OneDrive/Desktop/GD32VW553/V1_MQTT_OK/GD32VW55X_Wifi_BLE_SDK/GD32VW55x_RELEASE_V1.0.2/MSDK/wpa_supplicant/src/crypto\sha1-internal.c **** #else
 215:C:/Users/stapi/OneDrive/Desktop/GD32VW553/V1_MQTT_OK/GD32VW55X_Wifi_BLE_SDK/GD32VW55x_RELEASE_V1.0.2/MSDK/wpa_supplicant/src/crypto\sha1-internal.c **** 	block = (CHAR64LONG16 *) buffer;
 216:C:/Users/stapi/OneDrive/Desktop/GD32VW553/V1_MQTT_OK/GD32VW55X_Wifi_BLE_SDK/GD32VW55x_RELEASE_V1.0.2/MSDK/wpa_supplicant/src/crypto\sha1-internal.c **** #endif
 217:C:/Users/stapi/OneDrive/Desktop/GD32VW553/V1_MQTT_OK/GD32VW55X_Wifi_BLE_SDK/GD32VW55x_RELEASE_V1.0.2/MSDK/wpa_supplicant/src/crypto\sha1-internal.c **** 	/* Copy context->state[] to working vars */
 218:C:/Users/stapi/OneDrive/Desktop/GD32VW553/V1_MQTT_OK/GD32VW55X_Wifi_BLE_SDK/GD32VW55x_RELEASE_V1.0.2/MSDK/wpa_supplicant/src/crypto\sha1-internal.c **** 	a = state[0];
 188              		.loc 1 218 2 is_stmt 1
 219:C:/Users/stapi/OneDrive/Desktop/GD32VW553/V1_MQTT_OK/GD32VW55X_Wifi_BLE_SDK/GD32VW55x_RELEASE_V1.0.2/MSDK/wpa_supplicant/src/crypto\sha1-internal.c **** 	b = state[1];
 189              		.loc 1 219 2
 220:C:/Users/stapi/OneDrive/Desktop/GD32VW553/V1_MQTT_OK/GD32VW55X_Wifi_BLE_SDK/GD32VW55x_RELEASE_V1.0.2/MSDK/wpa_supplicant/src/crypto\sha1-internal.c **** 	c = state[2];
 190              		.loc 1 220 2
 221:C:/Users/stapi/OneDrive/Desktop/GD32VW553/V1_MQTT_OK/GD32VW55X_Wifi_BLE_SDK/GD32VW55x_RELEASE_V1.0.2/MSDK/wpa_supplicant/src/crypto\sha1-internal.c **** 	d = state[3];
 191              		.loc 1 221 2
 222:C:/Users/stapi/OneDrive/Desktop/GD32VW553/V1_MQTT_OK/GD32VW55X_Wifi_BLE_SDK/GD32VW55x_RELEASE_V1.0.2/MSDK/wpa_supplicant/src/crypto\sha1-internal.c **** 	e = state[4];
 192              		.loc 1 222 2
 223:C:/Users/stapi/OneDrive/Desktop/GD32VW553/V1_MQTT_OK/GD32VW55X_Wifi_BLE_SDK/GD32VW55x_RELEASE_V1.0.2/MSDK/wpa_supplicant/src/crypto\sha1-internal.c **** 	/* 4 rounds of 20 operations each. Loop unrolled. */
 224:C:/Users/stapi/OneDrive/Desktop/GD32VW553/V1_MQTT_OK/GD32VW55X_Wifi_BLE_SDK/GD32VW55x_RELEASE_V1.0.2/MSDK/wpa_supplicant/src/crypto\sha1-internal.c **** 	R0(a,b,c,d,e, 0); R0(e,a,b,c,d, 1); R0(d,e,a,b,c, 2); R0(c,d,e,a,b, 3);
 193              		.loc 1 224 2
 194 001a 83278A00 		lw	a5,8(s4)
 195 001e 0327CA00 		lw	a4,12(s4)
 196 0022 03260A01 		lw	a2,16(s4)
 197 0026 83260A00 		lw	a3,0(s4)
 198 002a 3D8F     		xor	a4,a5,a4
 199 002c 83274A00 		lw	a5,4(s4)
 200 0030 3785825A 		li	a0,1518501888
 201 0034 13059599 		addi	a0,a0,-1639
 202 0038 7D8F     		and	a4,a4,a5
 203 003a 8327CA00 		lw	a5,12(s4)
 204 003e 2A96     		add	a2,a2,a0
 205 0040 024F     		lw	t5,0(sp)
 206 0042 3D8F     		xor	a4,a4,a5
 207 0044 9547     		li	a5,5
 208 0046 B396F660 		rol	a3,a3,a5
 209 004a B296     		add	a3,a3,a2
 210 004c 3697     		add	a4,a4,a3
 211 004e 83264A00 		lw	a3,4(s4)
 212              		.loc 1 224 20 is_stmt 0
 213 0052 03260A00 		lw	a2,0(s4)
 214 0056 1243     		lw	t1,4(sp)
 215              		.loc 1 224 2
 216 0058 13DE2660 		rori	t3,a3,2
 217              		.loc 1 224 20
 218 005c 83268A00 		lw	a3,8(s4)
 219 0060 135F8F69 		rev8	t5,t5
 220 0064 13538369 		rev8	t1,t1
 221 0068 B3C6C601 		xor	a3,a3,t3
 222 006c F18E     		and	a3,a3,a2
 223 006e 03268A00 		lw	a2,8(s4)
 224              		.loc 1 224 2
 225 0072 7A97     		add	a4,t5,a4
 226              	.LVL23:
 227              		.loc 1 224 2 is_stmt 1
 228              		.loc 1 224 18
 229              		.loc 1 224 20
 230 0074 2249     		lw	s2,8(sp)
 231 0076 B18E     		xor	a3,a3,a2
 232 0078 0326CA00 		lw	a2,12(s4)
 233 007c B244     		lw	s1,12(sp)
 234 007e 13598969 		rev8	s2,s2
 235 0082 B308A600 		add	a7,a2,a0
 236 0086 C696     		add	a3,a3,a7
 237 0088 9A96     		add	a3,a3,t1
 238 008a B318F760 		rol	a7,a4,a5
 239 008e B698     		add	a7,a7,a3
 240              	.LVL24:
 241              		.loc 1 224 20
 242 0090 83260A00 		lw	a3,0(s4)
 243 0094 C240     		lw	ra,16(sp)
 244 0096 D242     		lw	t0,20(sp)
 245 0098 13D62660 		rori	a2,a3,2
 246              	.LVL25:
 247              		.loc 1 224 36
 248              		.loc 1 224 38
 249 009c 83268A00 		lw	a3,8(s4)
 250 00a0 3344CE00 		xor	s0,t3,a2
 251 00a4 798C     		and	s0,s0,a4
 252 00a6 AA96     		add	a3,a3,a0
 253 00a8 13572760 		rori	a4,a4,2
 254              	.LVL26:
 255              		.loc 1 224 56 is_stmt 0
 256 00ac B343E600 		xor	t2,a2,a4
 257 00b0 CA96     		add	a3,a3,s2
 258              		.loc 1 224 38
 259 00b2 3344C401 		xor	s0,s0,t3
 260              		.loc 1 224 56
 261 00b6 B3F31301 		and	t2,t2,a7
 262 00ba 2A9E     		add	t3,t3,a0
 263              	.LVL27:
 264 00bc B3C3C300 		xor	t2,t2,a2
 265 00c0 93D48469 		rev8	s1,s1
 266 00c4 3694     		add	s0,s0,a3
 267 00c6 269E     		add	t3,t3,s1
 268              	.LVL28:
 269              		.loc 1 224 38
 270 00c8 B396F860 		rol	a3,a7,a5
 271 00cc 1E9E     		add	t3,t2,t3
 272 00ce 3694     		add	s0,a3,s0
 273              	.LVL29:
 274              		.loc 1 224 38 is_stmt 1
 275              		.loc 1 224 54
 276              		.loc 1 224 56
 277 00d0 93D82860 		rori	a7,a7,2
 278              	.LVL30:
 225:C:/Users/stapi/OneDrive/Desktop/GD32VW553/V1_MQTT_OK/GD32VW55X_Wifi_BLE_SDK/GD32VW55x_RELEASE_V1.0.2/MSDK/wpa_supplicant/src/crypto\sha1-internal.c **** 	R0(b,c,d,e,a, 4); R0(a,b,c,d,e, 5); R0(e,a,b,c,d, 6); R0(d,e,a,b,c, 7);
 279              		.loc 1 225 2 is_stmt 0
 280 00d4 B34F1701 		xor	t6,a4,a7
 224:C:/Users/stapi/OneDrive/Desktop/GD32VW553/V1_MQTT_OK/GD32VW55X_Wifi_BLE_SDK/GD32VW55x_RELEASE_V1.0.2/MSDK/wpa_supplicant/src/crypto\sha1-internal.c **** 	R0(b,c,d,e,a, 4); R0(a,b,c,d,e, 5); R0(e,a,b,c,d, 6); R0(d,e,a,b,c, 7);
 281              		.loc 1 224 56
 282 00d8 B313F460 		rol	t2,s0,a5
 283              		.loc 1 225 2
 284 00dc B3FF8F00 		and	t6,t6,s0
 224:C:/Users/stapi/OneDrive/Desktop/GD32VW553/V1_MQTT_OK/GD32VW55X_Wifi_BLE_SDK/GD32VW55x_RELEASE_V1.0.2/MSDK/wpa_supplicant/src/crypto\sha1-internal.c **** 	R0(b,c,d,e,a, 4); R0(a,b,c,d,e, 5); R0(e,a,b,c,d, 6); R0(d,e,a,b,c, 7);
 285              		.loc 1 224 56
 286 00e0 F293     		add	t2,t2,t3
 287              	.LVL31:
 224:C:/Users/stapi/OneDrive/Desktop/GD32VW553/V1_MQTT_OK/GD32VW55X_Wifi_BLE_SDK/GD32VW55x_RELEASE_V1.0.2/MSDK/wpa_supplicant/src/crypto\sha1-internal.c **** 	R0(b,c,d,e,a, 4); R0(a,b,c,d,e, 5); R0(e,a,b,c,d, 6); R0(d,e,a,b,c, 7);
 288              		.loc 1 224 56 is_stmt 1
 224:C:/Users/stapi/OneDrive/Desktop/GD32VW553/V1_MQTT_OK/GD32VW55X_Wifi_BLE_SDK/GD32VW55x_RELEASE_V1.0.2/MSDK/wpa_supplicant/src/crypto\sha1-internal.c **** 	R0(b,c,d,e,a, 4); R0(a,b,c,d,e, 5); R0(e,a,b,c,d, 6); R0(d,e,a,b,c, 7);
 289              		.loc 1 224 72
 290              		.loc 1 225 2
 291 00e2 13542460 		rori	s0,s0,2
 292              	.LVL32:
 293 00e6 2A96     		add	a2,a2,a0
 294              	.LVL33:
 295              		.loc 1 225 20 is_stmt 0
 296 00e8 33CE8800 		xor	t3,a7,s0
 297 00ec E24E     		lw	t4,24(sp)
 298              		.loc 1 225 2
 299 00ee B3CFEF00 		xor	t6,t6,a4
 300 00f2 93D08069 		rev8	ra,ra
 301 00f6 93D28269 		rev8	t0,t0
 302 00fa 0696     		add	a2,a2,ra
 303              	.LVL34:
 304 00fc B386A200 		add	a3,t0,a0
 305              	.LVL35:
 306              		.loc 1 225 20
 307 0100 337E7E00 		and	t3,t3,t2
 308 0104 7E96     		add	a2,t6,a2
 309 0106 334E1E01 		xor	t3,t3,a7
 310 010a 3697     		add	a4,a3,a4
 311              	.LVL36:
 312 010c 7297     		add	a4,t3,a4
 313              		.loc 1 225 2
 314 010e B39FF360 		rol	t6,t2,a5
 315              		.loc 1 225 20
 316 0112 93D32360 		rori	t2,t2,2
 317              	.LVL37:
 318              		.loc 1 225 2
 319 0116 B29F     		add	t6,t6,a2
 320              	.LVL38:
 321              		.loc 1 225 2 is_stmt 1
 322              		.loc 1 225 18
 323              		.loc 1 225 20
 324              		.loc 1 225 38 is_stmt 0
 325 0118 33487400 		xor	a6,s0,t2
 326              		.loc 1 225 20
 327 011c 339EFF60 		rol	t3,t6,a5
 328 0120 93DE8E69 		rev8	t4,t4
 329 0124 3A9E     		add	t3,t3,a4
 330              	.LVL39:
 331              		.loc 1 225 20 is_stmt 1
 332              		.loc 1 225 36
 333              		.loc 1 225 38
 334 0126 3378F801 		and	a6,a6,t6
 335 012a 3387AE00 		add	a4,t4,a0
 336 012e 33488800 		xor	a6,a6,s0
 337 0132 BA98     		add	a7,a4,a7
 338              	.LVL40:
 339 0134 C298     		add	a7,a6,a7
 340 0136 3318FE60 		rol	a6,t3,a5
 341 013a 4698     		add	a6,a6,a7
 342              	.LVL41:
 343              		.loc 1 225 38
 344 013c F248     		lw	a7,28(sp)
 345 013e 93DF2F60 		rori	t6,t6,2
 346              	.LVL42:
 347              		.loc 1 225 54
 348              		.loc 1 225 56
 349 0142 B3C5F301 		xor	a1,t2,t6
 350 0146 93D88869 		rev8	a7,a7
 351 014a B3F5C501 		and	a1,a1,t3
 352 014e 3387A800 		add	a4,a7,a0
 353 0152 B3C57500 		xor	a1,a1,t2
 354 0156 3A94     		add	s0,a4,s0
 355              	.LVL43:
 356 0158 2E94     		add	s0,a1,s0
 357 015a B315F860 		rol	a1,a6,a5
 358 015e A295     		add	a1,a1,s0
 359              	.LVL44:
 360              		.loc 1 225 56
 361 0160 0254     		lw	s0,32(sp)
 362 0162 135E2E60 		rori	t3,t3,2
 363              	.LVL45:
 364              		.loc 1 225 72
 226:C:/Users/stapi/OneDrive/Desktop/GD32VW553/V1_MQTT_OK/GD32VW55X_Wifi_BLE_SDK/GD32VW55x_RELEASE_V1.0.2/MSDK/wpa_supplicant/src/crypto\sha1-internal.c **** 	R0(c,d,e,a,b, 8); R0(b,c,d,e,a, 9); R0(a,b,c,d,e,10); R0(e,a,b,c,d,11);
 365              		.loc 1 226 2
 366 0166 B3C6CF01 		xor	a3,t6,t3
 367 016a 13548469 		rev8	s0,s0
 368 016e B3F60601 		and	a3,a3,a6
 369 0172 3307A400 		add	a4,s0,a0
 370 0176 B3C6F601 		xor	a3,a3,t6
 371 017a BA93     		add	t2,a4,t2
 372              	.LVL46:
 373 017c B693     		add	t2,a3,t2
 374 017e B396F560 		rol	a3,a1,a5
 375 0182 9E96     		add	a3,a3,t2
 376              	.LVL47:
 377              		.loc 1 226 2
 378 0184 9253     		lw	t2,36(sp)
 379 0186 13582860 		rori	a6,a6,2
 380              	.LVL48:
 381              		.loc 1 226 18
 382              		.loc 1 226 20
 383 018a 33460E01 		xor	a2,t3,a6
 384 018e 93D38369 		rev8	t2,t2
 385 0192 6D8E     		and	a2,a2,a1
 386 0194 3387A300 		add	a4,t2,a0
 387 0198 3346C601 		xor	a2,a2,t3
 388 019c BA9F     		add	t6,a4,t6
 389              	.LVL49:
 390 019e B29F     		add	t6,a2,t6
 391 01a0 3396F660 		rol	a2,a3,a5
 392 01a4 7E96     		add	a2,a2,t6
 393              	.LVL50:
 394              		.loc 1 226 20
 395 01a6 A25F     		lw	t6,40(sp)
 396 01a8 93D52560 		rori	a1,a1,2
 397              	.LVL51:
 398              		.loc 1 226 36
 399              		.loc 1 226 38
 400 01ac 3347B800 		xor	a4,a6,a1
 401 01b0 93DF8F69 		rev8	t6,t6
 402 01b4 758F     		and	a4,a4,a3
 403 01b6 B389AF00 		add	s3,t6,a0
 404 01ba 33470701 		xor	a4,a4,a6
 405 01be 4E9E     		add	t3,s3,t3
 406              	.LVL52:
 407 01c0 3A9E     		add	t3,a4,t3
 408 01c2 3317F660 		rol	a4,a2,a5
 409 01c6 7297     		add	a4,a4,t3
 410              	.LVL53:
 411              		.loc 1 226 38
 412 01c8 325E     		lw	t3,44(sp)
 413 01ca 93D62660 		rori	a3,a3,2
 414              	.LVL54:
 415              		.loc 1 226 54
 416              		.loc 1 226 56
 417 01ce B3CBD500 		xor	s7,a1,a3
 418 01d2 135E8E69 		rev8	t3,t3
 419 01d6 B3FBCB00 		and	s7,s7,a2
 420 01da B309AE00 		add	s3,t3,a0
 421 01de B3CBBB00 		xor	s7,s7,a1
 422 01e2 4E98     		add	a6,s3,a6
 423              	.LVL55:
 424 01e4 5E98     		add	a6,s7,a6
 425 01e6 B31BF760 		rol	s7,a4,a5
 426 01ea C29B     		add	s7,s7,a6
 427              	.LVL56:
 428              		.loc 1 226 56
 429 01ec 4258     		lw	a6,48(sp)
 430 01ee 13562660 		rori	a2,a2,2
 431              	.LVL57:
 432              		.loc 1 226 72
 227:C:/Users/stapi/OneDrive/Desktop/GD32VW553/V1_MQTT_OK/GD32VW55X_Wifi_BLE_SDK/GD32VW55x_RELEASE_V1.0.2/MSDK/wpa_supplicant/src/crypto\sha1-internal.c **** 	R0(d,e,a,b,c,12); R0(c,d,e,a,b,13); R0(b,c,d,e,a,14); R0(a,b,c,d,e,15);
 433              		.loc 1 227 2
 434 01f2 B3C9C600 		xor	s3,a3,a2
 435 01f6 13588869 		rev8	a6,a6
 436 01fa B3F9E900 		and	s3,s3,a4
 437 01fe B30AA800 		add	s5,a6,a0
 438 0202 B3C9D900 		xor	s3,s3,a3
 439 0206 D695     		add	a1,s5,a1
 440              	.LVL58:
 441 0208 CE95     		add	a1,s3,a1
 442 020a B399FB60 		rol	s3,s7,a5
 443 020e AE99     		add	s3,s3,a1
 444              	.LVL59:
 445              		.loc 1 227 2
 446 0210 D255     		lw	a1,52(sp)
 447 0212 13572760 		rori	a4,a4,2
 448              	.LVL60:
 449              		.loc 1 227 18
 450              		.loc 1 227 20
 451 0216 B34DE600 		xor	s11,a2,a4
 452 021a 93D58569 		rev8	a1,a1
 453 021e B3FD7D01 		and	s11,s11,s7
 454 0222 B38AA500 		add	s5,a1,a0
 455 0226 D696     		add	a3,s5,a3
 456              	.LVL61:
 457 0228 B3CDCD00 		xor	s11,s11,a2
 458 022c B69D     		add	s11,s11,a3
 459 022e E256     		lw	a3,56(sp)
 460 0230 93DB2B60 		rori	s7,s7,2
 461              	.LVL62:
 462              		.loc 1 227 38 is_stmt 0
 463 0234 334B7701 		xor	s6,a4,s7
 464 0238 93D68669 		rev8	a3,a3
 465 023c B38AA600 		add	s5,a3,a0
 466 0240 338DCA00 		add	s10,s5,a2
 467 0244 337B3B01 		and	s6,s6,s3
 468 0248 7256     		lw	a2,60(sp)
 469              	.LVL63:
 470 024a 334BEB00 		xor	s6,s6,a4
 471              		.loc 1 227 20
 472 024e B39CF960 		rol	s9,s3,a5
 473 0252 6A9B     		add	s6,s6,s10
 474 0254 E69D     		add	s11,s9,s11
 475              	.LVL64:
 476              		.loc 1 227 20 is_stmt 1
 477              		.loc 1 227 36
 478              		.loc 1 227 38
 479 0256 93D92960 		rori	s3,s3,2
 480              	.LVL65:
 481              		.loc 1 227 56 is_stmt 0
 482 025a B3CA3B01 		xor	s5,s7,s3
 483 025e 13568669 		rev8	a2,a2
 484              		.loc 1 227 38
 485 0262 339DFD60 		rol	s10,s11,a5
 486              		.loc 1 227 56
 487 0266 B3FABA01 		and	s5,s5,s11
 488              		.loc 1 227 38
 489 026a 5A9D     		add	s10,s10,s6
 490              	.LVL66:
 491              		.loc 1 227 38 is_stmt 1
 492              		.loc 1 227 54
 493              		.loc 1 227 56
 494 026c 330BA600 		add	s6,a2,a0
 495 0270 3A9B     		add	s6,s6,a4
 496 0272 B3CA7A01 		xor	s5,s5,s7
 497 0276 DA9A     		add	s5,s5,s6
 228:C:/Users/stapi/OneDrive/Desktop/GD32VW553/V1_MQTT_OK/GD32VW55X_Wifi_BLE_SDK/GD32VW55x_RELEASE_V1.0.2/MSDK/wpa_supplicant/src/crypto\sha1-internal.c **** 	R1(e,a,b,c,d,16); R1(d,e,a,b,c,17); R1(c,d,e,a,b,18); R1(b,c,d,e,a,19);
 498              		.loc 1 228 2 is_stmt 0
 499 0278 334F2F01 		xor	t5,t5,s2
 227:C:/Users/stapi/OneDrive/Desktop/GD32VW553/V1_MQTT_OK/GD32VW55X_Wifi_BLE_SDK/GD32VW55x_RELEASE_V1.0.2/MSDK/wpa_supplicant/src/crypto\sha1-internal.c **** 	R0(d,e,a,b,c,12); R0(c,d,e,a,b,13); R0(b,c,d,e,a,14); R0(a,b,c,d,e,15);
 500              		.loc 1 227 56
 501 027c 93DD2D60 		rori	s11,s11,2
 502              	.LVL67:
 503 0280 331BFD60 		rol	s6,s10,a5
 504              		.loc 1 228 2
 505 0284 334F8F00 		xor	t5,t5,s0
 227:C:/Users/stapi/OneDrive/Desktop/GD32VW553/V1_MQTT_OK/GD32VW55X_Wifi_BLE_SDK/GD32VW55x_RELEASE_V1.0.2/MSDK/wpa_supplicant/src/crypto\sha1-internal.c **** 	R0(d,e,a,b,c,12); R0(c,d,e,a,b,13); R0(b,c,d,e,a,14); R0(a,b,c,d,e,15);
 506              		.loc 1 227 56
 507 0288 569B     		add	s6,s6,s5
 508              	.LVL68:
 227:C:/Users/stapi/OneDrive/Desktop/GD32VW553/V1_MQTT_OK/GD32VW55X_Wifi_BLE_SDK/GD32VW55x_RELEASE_V1.0.2/MSDK/wpa_supplicant/src/crypto\sha1-internal.c **** 	R0(d,e,a,b,c,12); R0(c,d,e,a,b,13); R0(b,c,d,e,a,14); R0(a,b,c,d,e,15);
 509              		.loc 1 227 56 is_stmt 1
 227:C:/Users/stapi/OneDrive/Desktop/GD32VW553/V1_MQTT_OK/GD32VW55X_Wifi_BLE_SDK/GD32VW55x_RELEASE_V1.0.2/MSDK/wpa_supplicant/src/crypto\sha1-internal.c **** 	R0(d,e,a,b,c,12); R0(c,d,e,a,b,13); R0(b,c,d,e,a,14); R0(a,b,c,d,e,15);
 510              		.loc 1 227 72
 511              		.loc 1 228 2
 512 028a B3CAB901 		xor	s5,s3,s11
 513 028e 0547     		li	a4,1
 514 0290 B3FAAA01 		and	s5,s5,s10
 515 0294 334FBF00 		xor	t5,t5,a1
 516 0298 331FEF60 		rol	t5,t5,a4
 517 029c 33CC3A01 		xor	s8,s5,s3
 518 02a0 B30AAF00 		add	s5,t5,a0
 519 02a4 DE9A     		add	s5,s5,s7
 520 02a6 B30B5C01 		add	s7,s8,s5
 521              	.LVL69:
 522              		.loc 1 228 20 is_stmt 0
 523 02aa 33439300 		xor	t1,t1,s1
 524              		.loc 1 228 2
 525 02ae 135D2D60 		rori	s10,s10,2
 526              	.LVL70:
 527 02b2 B31AFB60 		rol	s5,s6,a5
 528              		.loc 1 228 20
 529 02b6 33437300 		xor	t1,t1,t2
 530              		.loc 1 228 2
 531 02ba DE9A     		add	s5,s5,s7
 532              	.LVL71:
 533              		.loc 1 228 2 is_stmt 1
 534              		.loc 1 228 18
 535              		.loc 1 228 20
 536 02bc B3CBAD01 		xor	s7,s11,s10
 537 02c0 B3FB6B01 		and	s7,s7,s6
 538 02c4 3343D300 		xor	t1,t1,a3
 539 02c8 3313E360 		rol	t1,t1,a4
 540 02cc 33CCBB01 		xor	s8,s7,s11
 541              		.loc 1 228 38 is_stmt 0
 542 02d0 33491900 		xor	s2,s2,ra
 543 02d4 B30BA300 		add	s7,t1,a0
 544              		.loc 1 228 20
 545 02d8 135B2B60 		rori	s6,s6,2
 546              	.LVL72:
 547 02dc DE99     		add	s3,s7,s3
 548              	.LVL73:
 549              		.loc 1 228 38
 550 02de B34C6D01 		xor	s9,s10,s6
 551 02e2 3349F901 		xor	s2,s2,t6
 552              		.loc 1 228 20
 553 02e6 B39BFA60 		rol	s7,s5,a5
 554              		.loc 1 228 38
 555 02ea B3FC5C01 		and	s9,s9,s5
 556 02ee E299     		add	s3,s8,s3
 557 02f0 3349C900 		xor	s2,s2,a2
 558              		.loc 1 228 56
 559 02f4 B3C45400 		xor	s1,s1,t0
 560              		.loc 1 228 38
 561 02f8 3319E960 		rol	s2,s2,a4
 562              		.loc 1 228 20
 563 02fc DE99     		add	s3,s7,s3
 564              	.LVL74:
 565              		.loc 1 228 20 is_stmt 1
 566              		.loc 1 228 36
 567              		.loc 1 228 38
 568              		.loc 1 228 56 is_stmt 0
 569 02fe B3C4C401 		xor	s1,s1,t3
 570              		.loc 1 228 38
 571 0302 B3CBAC01 		xor	s7,s9,s10
 572 0306 B30CA900 		add	s9,s2,a0
 573 030a 93DA2A60 		rori	s5,s5,2
 574              	.LVL75:
 575 030e EE9C     		add	s9,s9,s11
 576              		.loc 1 228 56
 577 0310 334C5B01 		xor	s8,s6,s5
 578 0314 B3C4E401 		xor	s1,s1,t5
 579 0318 B394E460 		rol	s1,s1,a4
 580 031c B38D9B01 		add	s11,s7,s9
 581              	.LVL76:
 582 0320 337C3C01 		and	s8,s8,s3
 583 0324 2695     		add	a0,s1,a0
 584 0326 6A95     		add	a0,a0,s10
 585              		.loc 1 228 38
 586 0328 B39CF960 		rol	s9,s3,a5
 587              		.loc 1 228 56
 588 032c 334C6C01 		xor	s8,s8,s6
 589              		.loc 1 228 38
 590 0330 EE9C     		add	s9,s9,s11
 591              	.LVL77:
 592              		.loc 1 228 38 is_stmt 1
 593              		.loc 1 228 54
 594              		.loc 1 228 56
 595 0332 2A9C     		add	s8,s8,a0
 229:C:/Users/stapi/OneDrive/Desktop/GD32VW553/V1_MQTT_OK/GD32VW55X_Wifi_BLE_SDK/GD32VW55x_RELEASE_V1.0.2/MSDK/wpa_supplicant/src/crypto\sha1-internal.c **** 	R2(a,b,c,d,e,20); R2(e,a,b,c,d,21); R2(d,e,a,b,c,22); R2(c,d,e,a,b,23);
 596              		.loc 1 229 2 is_stmt 0
 597 0334 B3C0D001 		xor	ra,ra,t4
 228:C:/Users/stapi/OneDrive/Desktop/GD32VW553/V1_MQTT_OK/GD32VW55X_Wifi_BLE_SDK/GD32VW55x_RELEASE_V1.0.2/MSDK/wpa_supplicant/src/crypto\sha1-internal.c **** 	R1(e,a,b,c,d,16); R1(d,e,a,b,c,17); R1(c,d,e,a,b,18); R1(b,c,d,e,a,19);
 598              		.loc 1 228 56
 599 0338 3395FC60 		rol	a0,s9,a5
 600              		.loc 1 229 2
 601 033c B3C00001 		xor	ra,ra,a6
 228:C:/Users/stapi/OneDrive/Desktop/GD32VW553/V1_MQTT_OK/GD32VW55X_Wifi_BLE_SDK/GD32VW55x_RELEASE_V1.0.2/MSDK/wpa_supplicant/src/crypto\sha1-internal.c **** 	R1(e,a,b,c,d,16); R1(d,e,a,b,c,17); R1(c,d,e,a,b,18); R1(b,c,d,e,a,19);
 602              		.loc 1 228 56
 603 0340 2A9C     		add	s8,a0,s8
 604              	.LVL78:
 228:C:/Users/stapi/OneDrive/Desktop/GD32VW553/V1_MQTT_OK/GD32VW55X_Wifi_BLE_SDK/GD32VW55x_RELEASE_V1.0.2/MSDK/wpa_supplicant/src/crypto\sha1-internal.c **** 	R1(e,a,b,c,d,16); R1(d,e,a,b,c,17); R1(c,d,e,a,b,18); R1(b,c,d,e,a,19);
 605              		.loc 1 228 56 is_stmt 1
 606 0342 13D52960 		rori	a0,s3,2
 607              	.LVL79:
 228:C:/Users/stapi/OneDrive/Desktop/GD32VW553/V1_MQTT_OK/GD32VW55X_Wifi_BLE_SDK/GD32VW55x_RELEASE_V1.0.2/MSDK/wpa_supplicant/src/crypto\sha1-internal.c **** 	R1(e,a,b,c,d,16); R1(d,e,a,b,c,17); R1(c,d,e,a,b,18); R1(b,c,d,e,a,19);
 608              		.loc 1 228 72
 609              		.loc 1 229 2
 610 0346 B7F9D96E 		li	s3,1859776512
 611 034a 938919BA 		addi	s3,s3,-1119
 612 034e B3C06000 		xor	ra,ra,t1
 613 0352 B390E060 		rol	ra,ra,a4
 614 0356 33CDAA00 		xor	s10,s5,a0
 615 035a B38B3001 		add	s7,ra,s3
 616              		.loc 1 229 20 is_stmt 0
 617 035e B3C21201 		xor	t0,t0,a7
 618              		.loc 1 229 2
 619 0362 334D9D01 		xor	s10,s10,s9
 620 0366 DA9B     		add	s7,s7,s6
 621              		.loc 1 229 20
 622 0368 B3C2B200 		xor	t0,t0,a1
 623 036c 330B7D01 		add	s6,s10,s7
 624              	.LVL80:
 625              		.loc 1 229 2
 626 0370 93DC2C60 		rori	s9,s9,2
 627              	.LVL81:
 628              		.loc 1 229 20
 629 0374 B3C22201 		xor	t0,t0,s2
 630 0378 B34D9501 		xor	s11,a0,s9
 631 037c B392E260 		rol	t0,t0,a4
 632              		.loc 1 229 2
 633 0380 B31BFC60 		rol	s7,s8,a5
 634 0384 DA9B     		add	s7,s7,s6
 635              	.LVL82:
 636              		.loc 1 229 2 is_stmt 1
 637              		.loc 1 229 18
 638              		.loc 1 229 20
 639 0386 33CB8D01 		xor	s6,s11,s8
 640 038a B38D3201 		add	s11,t0,s3
 641 038e D69D     		add	s11,s11,s5
 642              		.loc 1 229 38 is_stmt 0
 643 0390 B3CE8E00 		xor	t4,t4,s0
 644 0394 B30ABB01 		add	s5,s6,s11
 645              	.LVL83:
 646 0398 B3CEDE00 		xor	t4,t4,a3
 647              		.loc 1 229 20
 648 039c 135C2C60 		rori	s8,s8,2
 649              	.LVL84:
 650 03a0 B39DFB60 		rol	s11,s7,a5
 651              		.loc 1 229 38
 652 03a4 B3CE9E00 		xor	t4,t4,s1
 653              		.loc 1 229 20
 654 03a8 D69D     		add	s11,s11,s5
 655              	.LVL85:
 656              		.loc 1 229 20 is_stmt 1
 657              		.loc 1 229 36
 658              		.loc 1 229 38
 659 03aa B3CA8C01 		xor	s5,s9,s8
 660 03ae B39EEE60 		rol	t4,t4,a4
 661 03b2 33CB7A01 		xor	s6,s5,s7
 662              		.loc 1 229 56 is_stmt 0
 663 03b6 B3C87800 		xor	a7,a7,t2
 664 03ba B38A3E01 		add	s5,t4,s3
 665 03be 5695     		add	a0,s5,a0
 666              	.LVL86:
 667 03c0 B3C8C800 		xor	a7,a7,a2
 668              		.loc 1 229 38
 669 03c4 B39AFD60 		rol	s5,s11,a5
 670 03c8 93DB2B60 		rori	s7,s7,2
 671              	.LVL87:
 672 03cc 5A95     		add	a0,s6,a0
 673              		.loc 1 229 56
 674 03ce 334D7C01 		xor	s10,s8,s7
 675 03d2 B3C81800 		xor	a7,a7,ra
 230:C:/Users/stapi/OneDrive/Desktop/GD32VW553/V1_MQTT_OK/GD32VW55X_Wifi_BLE_SDK/GD32VW55x_RELEASE_V1.0.2/MSDK/wpa_supplicant/src/crypto\sha1-internal.c **** 	R2(b,c,d,e,a,24); R2(a,b,c,d,e,25); R2(e,a,b,c,d,26); R2(d,e,a,b,c,27);
 676              		.loc 1 230 2
 677 03d6 3344F401 		xor	s0,s0,t6
 229:C:/Users/stapi/OneDrive/Desktop/GD32VW553/V1_MQTT_OK/GD32VW55X_Wifi_BLE_SDK/GD32VW55x_RELEASE_V1.0.2/MSDK/wpa_supplicant/src/crypto\sha1-internal.c **** 	R2(a,b,c,d,e,20); R2(e,a,b,c,d,21); R2(d,e,a,b,c,22); R2(c,d,e,a,b,23);
 678              		.loc 1 229 56
 679 03da B398E860 		rol	a7,a7,a4
 229:C:/Users/stapi/OneDrive/Desktop/GD32VW553/V1_MQTT_OK/GD32VW55X_Wifi_BLE_SDK/GD32VW55x_RELEASE_V1.0.2/MSDK/wpa_supplicant/src/crypto\sha1-internal.c **** 	R2(a,b,c,d,e,20); R2(e,a,b,c,d,21); R2(d,e,a,b,c,22); R2(c,d,e,a,b,23);
 680              		.loc 1 229 38
 681 03de 5695     		add	a0,s5,a0
 682              	.LVL88:
 229:C:/Users/stapi/OneDrive/Desktop/GD32VW553/V1_MQTT_OK/GD32VW55X_Wifi_BLE_SDK/GD32VW55x_RELEASE_V1.0.2/MSDK/wpa_supplicant/src/crypto\sha1-internal.c **** 	R2(a,b,c,d,e,20); R2(e,a,b,c,d,21); R2(d,e,a,b,c,22); R2(c,d,e,a,b,23);
 683              		.loc 1 229 38 is_stmt 1
 229:C:/Users/stapi/OneDrive/Desktop/GD32VW553/V1_MQTT_OK/GD32VW55X_Wifi_BLE_SDK/GD32VW55x_RELEASE_V1.0.2/MSDK/wpa_supplicant/src/crypto\sha1-internal.c **** 	R2(a,b,c,d,e,20); R2(e,a,b,c,d,21); R2(d,e,a,b,c,22); R2(c,d,e,a,b,23);
 684              		.loc 1 229 54
 229:C:/Users/stapi/OneDrive/Desktop/GD32VW553/V1_MQTT_OK/GD32VW55X_Wifi_BLE_SDK/GD32VW55x_RELEASE_V1.0.2/MSDK/wpa_supplicant/src/crypto\sha1-internal.c **** 	R2(a,b,c,d,e,20); R2(e,a,b,c,d,21); R2(d,e,a,b,c,22); R2(c,d,e,a,b,23);
 685              		.loc 1 229 56
 686              		.loc 1 230 2 is_stmt 0
 687 03e0 3344E401 		xor	s0,s0,t5
 229:C:/Users/stapi/OneDrive/Desktop/GD32VW553/V1_MQTT_OK/GD32VW55X_Wifi_BLE_SDK/GD32VW55x_RELEASE_V1.0.2/MSDK/wpa_supplicant/src/crypto\sha1-internal.c **** 	R2(a,b,c,d,e,20); R2(e,a,b,c,d,21); R2(d,e,a,b,c,22); R2(c,d,e,a,b,23);
 688              		.loc 1 229 56
 689 03e4 B34ABD01 		xor	s5,s10,s11
 690 03e8 338D3801 		add	s10,a7,s3
 691 03ec 93DD2D60 		rori	s11,s11,2
 692              	.LVL89:
 693 03f0 669D     		add	s10,s10,s9
 694              		.loc 1 230 2
 695 03f2 33CBBB01 		xor	s6,s7,s11
 696 03f6 33445400 		xor	s0,s0,t0
 697 03fa 3314E460 		rol	s0,s0,a4
 698 03fe B38CAA01 		add	s9,s5,s10
 699              	.LVL90:
 700              		.loc 1 230 20
 701 0402 B3C3C301 		xor	t2,t2,t3
 702              		.loc 1 230 2
 703 0406 B34AAB00 		xor	s5,s6,a0
 704 040a 330B3401 		add	s6,s0,s3
 705 040e 629B     		add	s6,s6,s8
 706              		.loc 1 230 20
 707 0410 B3C36300 		xor	t2,t2,t1
 708 0414 338C6A01 		add	s8,s5,s6
 709              	.LVL91:
 229:C:/Users/stapi/OneDrive/Desktop/GD32VW553/V1_MQTT_OK/GD32VW55X_Wifi_BLE_SDK/GD32VW55x_RELEASE_V1.0.2/MSDK/wpa_supplicant/src/crypto\sha1-internal.c **** 	R2(a,b,c,d,e,20); R2(e,a,b,c,d,21); R2(d,e,a,b,c,22); R2(c,d,e,a,b,23);
 710              		.loc 1 229 56
 711 0418 331DF560 		rol	s10,a0,a5
 712              		.loc 1 230 20
 713 041c B3C3D301 		xor	t2,t2,t4
 229:C:/Users/stapi/OneDrive/Desktop/GD32VW553/V1_MQTT_OK/GD32VW55X_Wifi_BLE_SDK/GD32VW55x_RELEASE_V1.0.2/MSDK/wpa_supplicant/src/crypto\sha1-internal.c **** 	R2(a,b,c,d,e,20); R2(e,a,b,c,d,21); R2(d,e,a,b,c,22); R2(c,d,e,a,b,23);
 714              		.loc 1 229 56
 715 0420 669D     		add	s10,s10,s9
 716              	.LVL92:
 229:C:/Users/stapi/OneDrive/Desktop/GD32VW553/V1_MQTT_OK/GD32VW55X_Wifi_BLE_SDK/GD32VW55x_RELEASE_V1.0.2/MSDK/wpa_supplicant/src/crypto\sha1-internal.c **** 	R2(a,b,c,d,e,20); R2(e,a,b,c,d,21); R2(d,e,a,b,c,22); R2(c,d,e,a,b,23);
 717              		.loc 1 229 56 is_stmt 1
 229:C:/Users/stapi/OneDrive/Desktop/GD32VW553/V1_MQTT_OK/GD32VW55X_Wifi_BLE_SDK/GD32VW55x_RELEASE_V1.0.2/MSDK/wpa_supplicant/src/crypto\sha1-internal.c **** 	R2(a,b,c,d,e,20); R2(e,a,b,c,d,21); R2(d,e,a,b,c,22); R2(c,d,e,a,b,23);
 718              		.loc 1 229 72
 719              		.loc 1 230 2
 720 0422 13552560 		rori	a0,a0,2
 721              	.LVL93:
 722              		.loc 1 230 20 is_stmt 0
 723 0426 B3CAAD00 		xor	s5,s11,a0
 724 042a B393E360 		rol	t2,t2,a4
 725              		.loc 1 230 2
 726 042e 331BFD60 		rol	s6,s10,a5
 727 0432 629B     		add	s6,s6,s8
 728              	.LVL94:
 729              		.loc 1 230 2 is_stmt 1
 730              		.loc 1 230 18
 731              		.loc 1 230 20
 732 0434 33CCAA01 		xor	s8,s5,s10
 733 0438 B38A3301 		add	s5,t2,s3
 734 043c D69B     		add	s7,s5,s7
 735              	.LVL95:
 736              		.loc 1 230 38 is_stmt 0
 737 043e B3CF0F01 		xor	t6,t6,a6
 738              		.loc 1 230 20
 739 0442 B31AFB60 		rol	s5,s6,a5
 740 0446 E29B     		add	s7,s8,s7
 741              		.loc 1 230 38
 742 0448 B3CF2F01 		xor	t6,t6,s2
 743              		.loc 1 230 20
 744 044c D69B     		add	s7,s5,s7
 745              	.LVL96:
 746              		.loc 1 230 20 is_stmt 1
 747 044e 135D2D60 		rori	s10,s10,2
 748              	.LVL97:
 749              		.loc 1 230 36
 750              		.loc 1 230 38
 751 0452 B3CF1F01 		xor	t6,t6,a7
 752 0456 B34AA501 		xor	s5,a0,s10
 753 045a B39FEF60 		rol	t6,t6,a4
 754 045e 33CC6A01 		xor	s8,s5,s6
 755              		.loc 1 230 56 is_stmt 0
 756 0462 334EBE00 		xor	t3,t3,a1
 757 0466 B38A3F01 		add	s5,t6,s3
 758 046a EE9A     		add	s5,s5,s11
 759 046c 334E9E00 		xor	t3,t3,s1
 760 0470 B30D5C01 		add	s11,s8,s5
 761              	.LVL98:
 762              		.loc 1 230 38
 763 0474 135B2B60 		rori	s6,s6,2
 764              	.LVL99:
 765              		.loc 1 230 56
 766 0478 334E8E00 		xor	t3,t3,s0
 767 047c 334C6D01 		xor	s8,s10,s6
 768 0480 331EEE60 		rol	t3,t3,a4
 769 0484 B34C7C01 		xor	s9,s8,s7
 231:C:/Users/stapi/OneDrive/Desktop/GD32VW553/V1_MQTT_OK/GD32VW55X_Wifi_BLE_SDK/GD32VW55x_RELEASE_V1.0.2/MSDK/wpa_supplicant/src/crypto\sha1-internal.c **** 	R2(c,d,e,a,b,28); R2(b,c,d,e,a,29); R2(a,b,c,d,e,30); R2(e,a,b,c,d,31);
 770              		.loc 1 231 2
 771 0488 3348D800 		xor	a6,a6,a3
 772 048c 330C3E01 		add	s8,t3,s3
 230:C:/Users/stapi/OneDrive/Desktop/GD32VW553/V1_MQTT_OK/GD32VW55X_Wifi_BLE_SDK/GD32VW55x_RELEASE_V1.0.2/MSDK/wpa_supplicant/src/crypto\sha1-internal.c **** 	R2(b,c,d,e,a,24); R2(a,b,c,d,e,25); R2(e,a,b,c,d,26); R2(d,e,a,b,c,27);
 773              		.loc 1 230 38
 774 0490 B39AFB60 		rol	s5,s7,a5
 775 0494 6295     		add	a0,s8,a0
 776              	.LVL100:
 777 0496 EE9A     		add	s5,s5,s11
 778              	.LVL101:
 230:C:/Users/stapi/OneDrive/Desktop/GD32VW553/V1_MQTT_OK/GD32VW55X_Wifi_BLE_SDK/GD32VW55x_RELEASE_V1.0.2/MSDK/wpa_supplicant/src/crypto\sha1-internal.c **** 	R2(b,c,d,e,a,24); R2(a,b,c,d,e,25); R2(e,a,b,c,d,26); R2(d,e,a,b,c,27);
 779              		.loc 1 230 38 is_stmt 1
 230:C:/Users/stapi/OneDrive/Desktop/GD32VW553/V1_MQTT_OK/GD32VW55X_Wifi_BLE_SDK/GD32VW55x_RELEASE_V1.0.2/MSDK/wpa_supplicant/src/crypto\sha1-internal.c **** 	R2(b,c,d,e,a,24); R2(a,b,c,d,e,25); R2(e,a,b,c,d,26); R2(d,e,a,b,c,27);
 780              		.loc 1 230 54
 230:C:/Users/stapi/OneDrive/Desktop/GD32VW553/V1_MQTT_OK/GD32VW55X_Wifi_BLE_SDK/GD32VW55x_RELEASE_V1.0.2/MSDK/wpa_supplicant/src/crypto\sha1-internal.c **** 	R2(b,c,d,e,a,24); R2(a,b,c,d,e,25); R2(e,a,b,c,d,26); R2(d,e,a,b,c,27);
 781              		.loc 1 230 56
 782              		.loc 1 231 2 is_stmt 0
 783 0498 33481800 		xor	a6,a6,ra
 230:C:/Users/stapi/OneDrive/Desktop/GD32VW553/V1_MQTT_OK/GD32VW55X_Wifi_BLE_SDK/GD32VW55x_RELEASE_V1.0.2/MSDK/wpa_supplicant/src/crypto\sha1-internal.c **** 	R2(b,c,d,e,a,24); R2(a,b,c,d,e,25); R2(e,a,b,c,d,26); R2(d,e,a,b,c,27);
 784              		.loc 1 230 56
 785 049c 339CFA60 		rol	s8,s5,a5
 786 04a0 93DB2B60 		rori	s7,s7,2
 787              	.LVL102:
 788 04a4 6695     		add	a0,s9,a0
 789              		.loc 1 231 2
 790 04a6 33487800 		xor	a6,a6,t2
 791 04aa B34C7B01 		xor	s9,s6,s7
 792 04ae 3318E860 		rol	a6,a6,a4
 230:C:/Users/stapi/OneDrive/Desktop/GD32VW553/V1_MQTT_OK/GD32VW55X_Wifi_BLE_SDK/GD32VW55x_RELEASE_V1.0.2/MSDK/wpa_supplicant/src/crypto\sha1-internal.c **** 	R2(b,c,d,e,a,24); R2(a,b,c,d,e,25); R2(e,a,b,c,d,26); R2(d,e,a,b,c,27);
 793              		.loc 1 230 56
 794 04b2 6295     		add	a0,s8,a0
 795              	.LVL103:
 230:C:/Users/stapi/OneDrive/Desktop/GD32VW553/V1_MQTT_OK/GD32VW55X_Wifi_BLE_SDK/GD32VW55x_RELEASE_V1.0.2/MSDK/wpa_supplicant/src/crypto\sha1-internal.c **** 	R2(b,c,d,e,a,24); R2(a,b,c,d,e,25); R2(e,a,b,c,d,26); R2(d,e,a,b,c,27);
 796              		.loc 1 230 56 is_stmt 1
 230:C:/Users/stapi/OneDrive/Desktop/GD32VW553/V1_MQTT_OK/GD32VW55X_Wifi_BLE_SDK/GD32VW55x_RELEASE_V1.0.2/MSDK/wpa_supplicant/src/crypto\sha1-internal.c **** 	R2(b,c,d,e,a,24); R2(a,b,c,d,e,25); R2(e,a,b,c,d,26); R2(d,e,a,b,c,27);
 797              		.loc 1 230 72
 798              		.loc 1 231 2
 799              		.loc 1 231 20 is_stmt 0
 800 04b4 B18D     		xor	a1,a1,a2
 801              		.loc 1 231 2
 802 04b6 33CC5C01 		xor	s8,s9,s5
 803 04ba B30C3801 		add	s9,a6,s3
 804 04be EA9C     		add	s9,s9,s10
 805              		.loc 1 231 20
 806 04c0 B3C55500 		xor	a1,a1,t0
 807 04c4 330D9C01 		add	s10,s8,s9
 808              	.LVL104:
 809              		.loc 1 231 2
 810 04c8 93DA2A60 		rori	s5,s5,2
 811              	.LVL105:
 812              		.loc 1 231 20
 813 04cc B3C5F501 		xor	a1,a1,t6
 814 04d0 33CC5B01 		xor	s8,s7,s5
 815 04d4 B395E560 		rol	a1,a1,a4
 816              		.loc 1 231 2
 817 04d8 B31CF560 		rol	s9,a0,a5
 818 04dc EA9C     		add	s9,s9,s10
 819              	.LVL106:
 820              		.loc 1 231 2 is_stmt 1
 821              		.loc 1 231 18
 822              		.loc 1 231 20
 823 04de 334DAC00 		xor	s10,s8,a0
 824 04e2 338C3501 		add	s8,a1,s3
 825 04e6 5A9C     		add	s8,s8,s6
 826              		.loc 1 231 38 is_stmt 0
 827 04e8 B3C6E601 		xor	a3,a3,t5
 828 04ec 330B8D01 		add	s6,s10,s8
 829              	.LVL107:
 830 04f0 B3C6D601 		xor	a3,a3,t4
 831              		.loc 1 231 20
 832 04f4 13552560 		rori	a0,a0,2
 833              	.LVL108:
 834 04f8 339CFC60 		rol	s8,s9,a5
 835              		.loc 1 231 38
 836 04fc B3C6C601 		xor	a3,a3,t3
 837              		.loc 1 231 20
 838 0500 5A9C     		add	s8,s8,s6
 839              	.LVL109:
 840              		.loc 1 231 20 is_stmt 1
 841              		.loc 1 231 36
 842              		.loc 1 231 38
 843 0502 33CBAA00 		xor	s6,s5,a0
 844 0506 B396E660 		rol	a3,a3,a4
 845 050a 334D9B01 		xor	s10,s6,s9
 846              		.loc 1 231 56 is_stmt 0
 847 050e 33466600 		xor	a2,a2,t1
 848 0512 338B3601 		add	s6,a3,s3
 849 0516 DA9B     		add	s7,s6,s7
 850              	.LVL110:
 851 0518 33461601 		xor	a2,a2,a7
 852              		.loc 1 231 38
 853 051c 331BFC60 		rol	s6,s8,a5
 854 0520 93DC2C60 		rori	s9,s9,2
 855              	.LVL111:
 856 0524 EA9B     		add	s7,s10,s7
 857              		.loc 1 231 56
 858 0526 B34D9501 		xor	s11,a0,s9
 859 052a 33460601 		xor	a2,a2,a6
 860 052e 3316E660 		rol	a2,a2,a4
 861              		.loc 1 231 38
 862 0532 DA9B     		add	s7,s6,s7
 863              	.LVL112:
 864              		.loc 1 231 38 is_stmt 1
 865              		.loc 1 231 54
 866              		.loc 1 231 56
 232:C:/Users/stapi/OneDrive/Desktop/GD32VW553/V1_MQTT_OK/GD32VW55X_Wifi_BLE_SDK/GD32VW55x_RELEASE_V1.0.2/MSDK/wpa_supplicant/src/crypto\sha1-internal.c **** 	R2(d,e,a,b,c,32); R2(c,d,e,a,b,33); R2(b,c,d,e,a,34); R2(a,b,c,d,e,35);
 867              		.loc 1 232 2 is_stmt 0
 868 0534 334F2F01 		xor	t5,t5,s2
 231:C:/Users/stapi/OneDrive/Desktop/GD32VW553/V1_MQTT_OK/GD32VW55X_Wifi_BLE_SDK/GD32VW55x_RELEASE_V1.0.2/MSDK/wpa_supplicant/src/crypto\sha1-internal.c **** 	R2(c,d,e,a,b,28); R2(b,c,d,e,a,29); R2(a,b,c,d,e,30); R2(e,a,b,c,d,31);
 869              		.loc 1 231 56
 870 0538 33CB8D01 		xor	s6,s11,s8
 871 053c B30D3601 		add	s11,a2,s3
 872 0540 D69D     		add	s11,s11,s5
 873              		.loc 1 232 2
 874 0542 334F8F00 		xor	t5,t5,s0
 875 0546 B30ABB01 		add	s5,s6,s11
 876              	.LVL113:
 231:C:/Users/stapi/OneDrive/Desktop/GD32VW553/V1_MQTT_OK/GD32VW55X_Wifi_BLE_SDK/GD32VW55x_RELEASE_V1.0.2/MSDK/wpa_supplicant/src/crypto\sha1-internal.c **** 	R2(c,d,e,a,b,28); R2(b,c,d,e,a,29); R2(a,b,c,d,e,30); R2(e,a,b,c,d,31);
 877              		.loc 1 231 56
 878 054a 135C2C60 		rori	s8,s8,2
 879              	.LVL114:
 880              		.loc 1 232 2
 881 054e 334FBF00 		xor	t5,t5,a1
 882 0552 33CB8C01 		xor	s6,s9,s8
 883 0556 331FEF60 		rol	t5,t5,a4
 231:C:/Users/stapi/OneDrive/Desktop/GD32VW553/V1_MQTT_OK/GD32VW55X_Wifi_BLE_SDK/GD32VW55x_RELEASE_V1.0.2/MSDK/wpa_supplicant/src/crypto\sha1-internal.c **** 	R2(c,d,e,a,b,28); R2(b,c,d,e,a,29); R2(a,b,c,d,e,30); R2(e,a,b,c,d,31);
 884              		.loc 1 231 56
 885 055a B39DFB60 		rol	s11,s7,a5
 886              		.loc 1 232 20
 887 055e 33439300 		xor	t1,t1,s1
 231:C:/Users/stapi/OneDrive/Desktop/GD32VW553/V1_MQTT_OK/GD32VW55X_Wifi_BLE_SDK/GD32VW55x_RELEASE_V1.0.2/MSDK/wpa_supplicant/src/crypto\sha1-internal.c **** 	R2(c,d,e,a,b,28); R2(b,c,d,e,a,29); R2(a,b,c,d,e,30); R2(e,a,b,c,d,31);
 888              		.loc 1 231 56
 889 0562 D69D     		add	s11,s11,s5
 890              	.LVL115:
 231:C:/Users/stapi/OneDrive/Desktop/GD32VW553/V1_MQTT_OK/GD32VW55X_Wifi_BLE_SDK/GD32VW55x_RELEASE_V1.0.2/MSDK/wpa_supplicant/src/crypto\sha1-internal.c **** 	R2(c,d,e,a,b,28); R2(b,c,d,e,a,29); R2(a,b,c,d,e,30); R2(e,a,b,c,d,31);
 891              		.loc 1 231 56 is_stmt 1
 231:C:/Users/stapi/OneDrive/Desktop/GD32VW553/V1_MQTT_OK/GD32VW55X_Wifi_BLE_SDK/GD32VW55x_RELEASE_V1.0.2/MSDK/wpa_supplicant/src/crypto\sha1-internal.c **** 	R2(c,d,e,a,b,28); R2(b,c,d,e,a,29); R2(a,b,c,d,e,30); R2(e,a,b,c,d,31);
 892              		.loc 1 231 72
 893              		.loc 1 232 2
 894 0564 B34A7B01 		xor	s5,s6,s7
 895 0568 330B3F01 		add	s6,t5,s3
 896 056c 2A9B     		add	s6,s6,a0
 897              		.loc 1 232 20 is_stmt 0
 898 056e 33437300 		xor	t1,t1,t2
 899 0572 33856A01 		add	a0,s5,s6
 900              	.LVL116:
 901              		.loc 1 232 2
 902 0576 93DB2B60 		rori	s7,s7,2
 903              	.LVL117:
 904              		.loc 1 232 20
 905 057a 3343D300 		xor	t1,t1,a3
 906 057e 334D7C01 		xor	s10,s8,s7
 907              		.loc 1 232 38
 908 0582 33491900 		xor	s2,s2,ra
 909              		.loc 1 232 20
 910 0586 3313E360 		rol	t1,t1,a4
 911              		.loc 1 232 2
 912 058a 339BFD60 		rol	s6,s11,a5
 913              		.loc 1 232 38
 914 058e 3349F901 		xor	s2,s2,t6
 915              		.loc 1 232 2
 916 0592 2A9B     		add	s6,s6,a0
 917              	.LVL118:
 918              		.loc 1 232 2 is_stmt 1
 919              		.loc 1 232 18
 920              		.loc 1 232 20
 921 0594 3345BD01 		xor	a0,s10,s11
 922 0598 330D3301 		add	s10,t1,s3
 923 059c 93DD2D60 		rori	s11,s11,2
 924              	.LVL119:
 925 05a0 669D     		add	s10,s10,s9
 926              		.loc 1 232 38 is_stmt 0
 927 05a2 B3CABB01 		xor	s5,s7,s11
 928 05a6 3349C900 		xor	s2,s2,a2
 929 05aa 3319E960 		rol	s2,s2,a4
 930 05ae B30CA501 		add	s9,a0,s10
 931              	.LVL120:
 932              		.loc 1 232 56
 933 05b2 B3C45400 		xor	s1,s1,t0
 934              		.loc 1 232 38
 935 05b6 33C56A01 		xor	a0,s5,s6
 936 05ba B30A3901 		add	s5,s2,s3
 937 05be E29A     		add	s5,s5,s8
 938              		.loc 1 232 56
 939 05c0 B3C4C401 		xor	s1,s1,t3
 940 05c4 330C5501 		add	s8,a0,s5
 941              	.LVL121:
 942              		.loc 1 232 20
 943 05c8 331DFB60 		rol	s10,s6,a5
 944              		.loc 1 232 56
 945 05cc B3C4E401 		xor	s1,s1,t5
 946              		.loc 1 232 20
 947 05d0 669D     		add	s10,s10,s9
 948              	.LVL122:
 949              		.loc 1 232 20 is_stmt 1
 950              		.loc 1 232 36
 951              		.loc 1 232 38
 952 05d2 135B2B60 		rori	s6,s6,2
 953              	.LVL123:
 954              		.loc 1 232 56 is_stmt 0
 955 05d6 33C56D01 		xor	a0,s11,s6
 956 05da B394E460 		rol	s1,s1,a4
 957              		.loc 1 232 38
 958 05de B31AFD60 		rol	s5,s10,a5
 233:C:/Users/stapi/OneDrive/Desktop/GD32VW553/V1_MQTT_OK/GD32VW55X_Wifi_BLE_SDK/GD32VW55x_RELEASE_V1.0.2/MSDK/wpa_supplicant/src/crypto\sha1-internal.c **** 	R2(e,a,b,c,d,36); R2(d,e,a,b,c,37); R2(c,d,e,a,b,38); R2(b,c,d,e,a,39);
 959              		.loc 1 233 2
 960 05e2 B3C0D001 		xor	ra,ra,t4
 232:C:/Users/stapi/OneDrive/Desktop/GD32VW553/V1_MQTT_OK/GD32VW55X_Wifi_BLE_SDK/GD32VW55x_RELEASE_V1.0.2/MSDK/wpa_supplicant/src/crypto\sha1-internal.c **** 	R2(d,e,a,b,c,32); R2(c,d,e,a,b,33); R2(b,c,d,e,a,34); R2(a,b,c,d,e,35);
 961              		.loc 1 232 38
 962 05e6 E29A     		add	s5,s5,s8
 963              	.LVL124:
 232:C:/Users/stapi/OneDrive/Desktop/GD32VW553/V1_MQTT_OK/GD32VW55X_Wifi_BLE_SDK/GD32VW55x_RELEASE_V1.0.2/MSDK/wpa_supplicant/src/crypto\sha1-internal.c **** 	R2(d,e,a,b,c,32); R2(c,d,e,a,b,33); R2(b,c,d,e,a,34); R2(a,b,c,d,e,35);
 964              		.loc 1 232 38 is_stmt 1
 232:C:/Users/stapi/OneDrive/Desktop/GD32VW553/V1_MQTT_OK/GD32VW55X_Wifi_BLE_SDK/GD32VW55x_RELEASE_V1.0.2/MSDK/wpa_supplicant/src/crypto\sha1-internal.c **** 	R2(d,e,a,b,c,32); R2(c,d,e,a,b,33); R2(b,c,d,e,a,34); R2(a,b,c,d,e,35);
 965              		.loc 1 232 54
 232:C:/Users/stapi/OneDrive/Desktop/GD32VW553/V1_MQTT_OK/GD32VW55X_Wifi_BLE_SDK/GD32VW55x_RELEASE_V1.0.2/MSDK/wpa_supplicant/src/crypto\sha1-internal.c **** 	R2(d,e,a,b,c,32); R2(c,d,e,a,b,33); R2(b,c,d,e,a,34); R2(a,b,c,d,e,35);
 966              		.loc 1 232 56
 967 05e8 334CA501 		xor	s8,a0,s10
 968 05ec 33853401 		add	a0,s1,s3
 969 05f0 5E95     		add	a0,a0,s7
 970              		.loc 1 233 2 is_stmt 0
 971 05f2 B3C00001 		xor	ra,ra,a6
 972 05f6 B30BAC00 		add	s7,s8,a0
 973              	.LVL125:
 232:C:/Users/stapi/OneDrive/Desktop/GD32VW553/V1_MQTT_OK/GD32VW55X_Wifi_BLE_SDK/GD32VW55x_RELEASE_V1.0.2/MSDK/wpa_supplicant/src/crypto\sha1-internal.c **** 	R2(d,e,a,b,c,32); R2(c,d,e,a,b,33); R2(b,c,d,e,a,34); R2(a,b,c,d,e,35);
 974              		.loc 1 232 56
 975 05fa 135D2D60 		rori	s10,s10,2
 976              	.LVL126:
 977              		.loc 1 233 2
 978 05fe B3C06000 		xor	ra,ra,t1
 979 0602 B34CAB01 		xor	s9,s6,s10
 980 0606 B390E060 		rol	ra,ra,a4
 232:C:/Users/stapi/OneDrive/Desktop/GD32VW553/V1_MQTT_OK/GD32VW55X_Wifi_BLE_SDK/GD32VW55x_RELEASE_V1.0.2/MSDK/wpa_supplicant/src/crypto\sha1-internal.c **** 	R2(d,e,a,b,c,32); R2(c,d,e,a,b,33); R2(b,c,d,e,a,34); R2(a,b,c,d,e,35);
 981              		.loc 1 232 56
 982 060a 3395FA60 		rol	a0,s5,a5
 983              		.loc 1 233 20
 984 060e B3C21201 		xor	t0,t0,a7
 232:C:/Users/stapi/OneDrive/Desktop/GD32VW553/V1_MQTT_OK/GD32VW55X_Wifi_BLE_SDK/GD32VW55x_RELEASE_V1.0.2/MSDK/wpa_supplicant/src/crypto\sha1-internal.c **** 	R2(d,e,a,b,c,32); R2(c,d,e,a,b,33); R2(b,c,d,e,a,34); R2(a,b,c,d,e,35);
 985              		.loc 1 232 56
 986 0612 5E95     		add	a0,a0,s7
 987              	.LVL127:
 232:C:/Users/stapi/OneDrive/Desktop/GD32VW553/V1_MQTT_OK/GD32VW55X_Wifi_BLE_SDK/GD32VW55x_RELEASE_V1.0.2/MSDK/wpa_supplicant/src/crypto\sha1-internal.c **** 	R2(d,e,a,b,c,32); R2(c,d,e,a,b,33); R2(b,c,d,e,a,34); R2(a,b,c,d,e,35);
 988              		.loc 1 232 56 is_stmt 1
 232:C:/Users/stapi/OneDrive/Desktop/GD32VW553/V1_MQTT_OK/GD32VW55X_Wifi_BLE_SDK/GD32VW55x_RELEASE_V1.0.2/MSDK/wpa_supplicant/src/crypto\sha1-internal.c **** 	R2(d,e,a,b,c,32); R2(c,d,e,a,b,33); R2(b,c,d,e,a,34); R2(a,b,c,d,e,35);
 989              		.loc 1 232 72
 990              		.loc 1 233 2
 991 0614 B3CB5C01 		xor	s7,s9,s5
 992 0618 B38C3001 		add	s9,ra,s3
 993 061c EE9C     		add	s9,s9,s11
 994              		.loc 1 233 20 is_stmt 0
 995 061e B3C2B200 		xor	t0,t0,a1
 996 0622 B38D9B01 		add	s11,s7,s9
 997              	.LVL128:
 998              		.loc 1 233 2
 999 0626 93DA2A60 		rori	s5,s5,2
 1000              	.LVL129:
 1001              		.loc 1 233 20
 1002 062a B3C22201 		xor	t0,t0,s2
 1003 062e B34B5D01 		xor	s7,s10,s5
 1004 0632 B392E260 		rol	t0,t0,a4
 1005 0636 33CCAB00 		xor	s8,s7,a0
 1006 063a B38B3201 		add	s7,t0,s3
 1007              		.loc 1 233 2
 1008 063e B31CF560 		rol	s9,a0,a5
 1009 0642 5E9B     		add	s6,s7,s6
 1010              	.LVL130:
 1011 0644 EE9C     		add	s9,s9,s11
 1012              	.LVL131:
 1013              		.loc 1 233 2 is_stmt 1
 1014              		.loc 1 233 18
 1015              		.loc 1 233 20
 1016              		.loc 1 233 38 is_stmt 0
 1017 0646 B3CE8E00 		xor	t4,t4,s0
 1018              		.loc 1 233 20
 1019 064a B39BFC60 		rol	s7,s9,a5
 1020 064e 629B     		add	s6,s8,s6
 1021              		.loc 1 233 38
 1022 0650 B3CEDE00 		xor	t4,t4,a3
 1023              		.loc 1 233 20
 1024 0654 5E9B     		add	s6,s7,s6
 1025              	.LVL132:
 1026              		.loc 1 233 20 is_stmt 1
 1027 0656 13552560 		rori	a0,a0,2
 1028              	.LVL133:
 1029              		.loc 1 233 36
 1030              		.loc 1 233 38
 1031 065a B3CE9E00 		xor	t4,t4,s1
 1032 065e B3CBAA00 		xor	s7,s5,a0
 1033 0662 B39EEE60 		rol	t4,t4,a4
 1034 0666 33CC9B01 		xor	s8,s7,s9
 1035              		.loc 1 233 56 is_stmt 0
 1036 066a B3C87800 		xor	a7,a7,t2
 1037 066e B38B3E01 		add	s7,t4,s3
 1038 0672 5E9D     		add	s10,s7,s10
 1039              	.LVL134:
 1040 0674 B3C8C800 		xor	a7,a7,a2
 1041 0678 629D     		add	s10,s8,s10
 1042 067a B3C81800 		xor	a7,a7,ra
 1043 067e B398E860 		rol	a7,a7,a4
 1044              		.loc 1 233 38
 1045 0682 B31BFB60 		rol	s7,s6,a5
 1046 0686 93DC2C60 		rori	s9,s9,2
 1047              	.LVL135:
 1048 068a 5E9D     		add	s10,s7,s10
 1049              	.LVL136:
 1050              		.loc 1 233 38 is_stmt 1
 1051              		.loc 1 233 54
 1052              		.loc 1 233 56
 1053 068c 334C9501 		xor	s8,a0,s9
 1054 0690 C699     		add	s3,a7,s3
 1055 0692 D699     		add	s3,s3,s5
 1056 0694 334C6C01 		xor	s8,s8,s6
 1057 0698 135B2B60 		rori	s6,s6,2
 1058              	.LVL137:
 234:C:/Users/stapi/OneDrive/Desktop/GD32VW553/V1_MQTT_OK/GD32VW55X_Wifi_BLE_SDK/GD32VW55x_RELEASE_V1.0.2/MSDK/wpa_supplicant/src/crypto\sha1-internal.c **** 	R3(a,b,c,d,e,40); R3(e,a,b,c,d,41); R3(d,e,a,b,c,42); R3(c,d,e,a,b,43);
 1059              		.loc 1 234 2 is_stmt 0
 1060 069c B36B6D01 		or	s7,s10,s6
 233:C:/Users/stapi/OneDrive/Desktop/GD32VW553/V1_MQTT_OK/GD32VW55X_Wifi_BLE_SDK/GD32VW55x_RELEASE_V1.0.2/MSDK/wpa_supplicant/src/crypto\sha1-internal.c **** 	R2(e,a,b,c,d,36); R2(d,e,a,b,c,37); R2(c,d,e,a,b,38); R2(b,c,d,e,a,39);
 1061              		.loc 1 233 56
 1062 06a0 B31AFD60 		rol	s5,s10,a5
 1063              	.LVL138:
 1064              		.loc 1 234 2
 1065 06a4 B3FB9B01 		and	s7,s7,s9
 1066 06a8 4E9C     		add	s8,s8,s3
 1067 06aa 3344F401 		xor	s0,s0,t6
 1068 06ae B3796D01 		and	s3,s10,s6
 233:C:/Users/stapi/OneDrive/Desktop/GD32VW553/V1_MQTT_OK/GD32VW55X_Wifi_BLE_SDK/GD32VW55x_RELEASE_V1.0.2/MSDK/wpa_supplicant/src/crypto\sha1-internal.c **** 	R2(e,a,b,c,d,36); R2(d,e,a,b,c,37); R2(c,d,e,a,b,38); R2(b,c,d,e,a,39);
 1069              		.loc 1 233 56
 1070 06b2 569C     		add	s8,s5,s8
 1071              	.LVL139:
 233:C:/Users/stapi/OneDrive/Desktop/GD32VW553/V1_MQTT_OK/GD32VW55X_Wifi_BLE_SDK/GD32VW55x_RELEASE_V1.0.2/MSDK/wpa_supplicant/src/crypto\sha1-internal.c **** 	R2(e,a,b,c,d,36); R2(d,e,a,b,c,37); R2(c,d,e,a,b,38); R2(b,c,d,e,a,39);
 1072              		.loc 1 233 56 is_stmt 1
 233:C:/Users/stapi/OneDrive/Desktop/GD32VW553/V1_MQTT_OK/GD32VW55X_Wifi_BLE_SDK/GD32VW55x_RELEASE_V1.0.2/MSDK/wpa_supplicant/src/crypto\sha1-internal.c **** 	R2(e,a,b,c,d,36); R2(d,e,a,b,c,37); R2(c,d,e,a,b,38); R2(b,c,d,e,a,39);
 1073              		.loc 1 233 72
 1074              		.loc 1 234 2
 1075 06b4 3344E401 		xor	s0,s0,t5
 1076 06b8 B3EA3B01 		or	s5,s7,s3
 1077 06bc B7C91B8F 		li	s3,-1894006784
 1078 06c0 9389C9CD 		addi	s3,s3,-804
 1079 06c4 33445400 		xor	s0,s0,t0
 1080 06c8 3314E460 		rol	s0,s0,a4
 1081 06cc B30B3401 		add	s7,s0,s3
 1082 06d0 AA9B     		add	s7,s7,a0
 1083              		.loc 1 234 20 is_stmt 0
 1084 06d2 B3C3C301 		xor	t2,t2,t3
 1085              		.loc 1 234 2
 1086 06d6 135D2D60 		rori	s10,s10,2
 1087              	.LVL140:
 1088 06da 33857A01 		add	a0,s5,s7
 1089              	.LVL141:
 1090              		.loc 1 234 20
 1091 06de B36DAC01 		or	s11,s8,s10
 1092 06e2 B3C36300 		xor	t2,t2,t1
 1093 06e6 B3FD6D01 		and	s11,s11,s6
 1094              		.loc 1 234 2
 1095 06ea B31BFC60 		rol	s7,s8,a5
 1096              		.loc 1 234 20
 1097 06ee B3C3D301 		xor	t2,t2,t4
 1098              		.loc 1 234 2
 1099 06f2 AA9B     		add	s7,s7,a0
 1100              	.LVL142:
 1101              		.loc 1 234 2 is_stmt 1
 1102              		.loc 1 234 18
 1103              		.loc 1 234 20
 1104 06f4 3375AC01 		and	a0,s8,s10
 1105 06f8 B393E360 		rol	t2,t2,a4
 1106 06fc 33E5AD00 		or	a0,s11,a0
 1107 0700 B38D3301 		add	s11,t2,s3
 1108 0704 E69D     		add	s11,s11,s9
 1109 0706 AA9D     		add	s11,a0,s11
 1110              		.loc 1 234 38 is_stmt 0
 1111 0708 B3CF0F01 		xor	t6,t6,a6
 1112              		.loc 1 234 20
 1113 070c 3395FB60 		rol	a0,s7,a5
 1114 0710 135C2C60 		rori	s8,s8,2
 1115              	.LVL143:
 1116 0714 AA9D     		add	s11,a0,s11
 1117              	.LVL144:
 1118              		.loc 1 234 20 is_stmt 1
 1119              		.loc 1 234 36
 1120              		.loc 1 234 38
 1121 0716 B3CF2F01 		xor	t6,t6,s2
 1122 071a 33E58B01 		or	a0,s7,s8
 1123 071e B3FA8B01 		and	s5,s7,s8
 1124 0722 B3CF1F01 		xor	t6,t6,a7
 1125 0726 3375A501 		and	a0,a0,s10
 1126 072a B39FEF60 		rol	t6,t6,a4
 1127 072e 33655501 		or	a0,a0,s5
 1128 0732 B38A3F01 		add	s5,t6,s3
 1129 0736 569B     		add	s6,s5,s6
 1130              	.LVL145:
 1131 0738 2A9B     		add	s6,a0,s6
 1132              		.loc 1 234 56 is_stmt 0
 1133 073a 334EBE00 		xor	t3,t3,a1
 1134              		.loc 1 234 38
 1135 073e 3395FD60 		rol	a0,s11,a5
 1136 0742 93DB2B60 		rori	s7,s7,2
 1137              	.LVL146:
 1138 0746 2A9B     		add	s6,a0,s6
 1139              	.LVL147:
 1140              		.loc 1 234 38 is_stmt 1
 1141              		.loc 1 234 54
 1142              		.loc 1 234 56
 1143 0748 334E9E00 		xor	t3,t3,s1
 1144 074c 33E57D01 		or	a0,s11,s7
 1145 0750 33758501 		and	a0,a0,s8
 1146 0754 B3FA7D01 		and	s5,s11,s7
 1147 0758 334E8E00 		xor	t3,t3,s0
 1148 075c 331EEE60 		rol	t3,t3,a4
 1149 0760 B36A5501 		or	s5,a0,s5
 1150 0764 33053E01 		add	a0,t3,s3
 1151 0768 6A95     		add	a0,a0,s10
 1152 076a 5695     		add	a0,s5,a0
 235:C:/Users/stapi/OneDrive/Desktop/GD32VW553/V1_MQTT_OK/GD32VW55X_Wifi_BLE_SDK/GD32VW55x_RELEASE_V1.0.2/MSDK/wpa_supplicant/src/crypto\sha1-internal.c **** 	R3(b,c,d,e,a,44); R3(a,b,c,d,e,45); R3(e,a,b,c,d,46); R3(d,e,a,b,c,47);
 1153              		.loc 1 235 2 is_stmt 0
 1154 076c 3348D800 		xor	a6,a6,a3
 234:C:/Users/stapi/OneDrive/Desktop/GD32VW553/V1_MQTT_OK/GD32VW55X_Wifi_BLE_SDK/GD32VW55x_RELEASE_V1.0.2/MSDK/wpa_supplicant/src/crypto\sha1-internal.c **** 	R3(a,b,c,d,e,40); R3(e,a,b,c,d,41); R3(d,e,a,b,c,42); R3(c,d,e,a,b,43);
 1155              		.loc 1 234 56
 1156 0770 B31AFB60 		rol	s5,s6,a5
 1157 0774 93DD2D60 		rori	s11,s11,2
 1158              	.LVL148:
 1159 0778 5695     		add	a0,s5,a0
 1160              	.LVL149:
 234:C:/Users/stapi/OneDrive/Desktop/GD32VW553/V1_MQTT_OK/GD32VW55X_Wifi_BLE_SDK/GD32VW55x_RELEASE_V1.0.2/MSDK/wpa_supplicant/src/crypto\sha1-internal.c **** 	R3(a,b,c,d,e,40); R3(e,a,b,c,d,41); R3(d,e,a,b,c,42); R3(c,d,e,a,b,43);
 1161              		.loc 1 234 56 is_stmt 1
 234:C:/Users/stapi/OneDrive/Desktop/GD32VW553/V1_MQTT_OK/GD32VW55X_Wifi_BLE_SDK/GD32VW55x_RELEASE_V1.0.2/MSDK/wpa_supplicant/src/crypto\sha1-internal.c **** 	R3(a,b,c,d,e,40); R3(e,a,b,c,d,41); R3(d,e,a,b,c,42); R3(c,d,e,a,b,43);
 1162              		.loc 1 234 72
 1163              		.loc 1 235 2
 1164 077a 33481800 		xor	a6,a6,ra
 1165 077e B36ABB01 		or	s5,s6,s11
 1166 0782 B3FA7A01 		and	s5,s5,s7
 1167 0786 B37CBB01 		and	s9,s6,s11
 1168 078a 33487800 		xor	a6,a6,t2
 1169 078e 3318E860 		rol	a6,a6,a4
 1170 0792 B3EC9A01 		or	s9,s5,s9
 1171 0796 B30A3801 		add	s5,a6,s3
 1172 079a E29A     		add	s5,s5,s8
 1173              		.loc 1 235 20 is_stmt 0
 1174 079c B18D     		xor	a1,a1,a2
 1175              		.loc 1 235 2
 1176 079e 135B2B60 		rori	s6,s6,2
 1177              	.LVL150:
 1178 07a2 331CF560 		rol	s8,a0,a5
 1179              	.LVL151:
 1180 07a6 E69A     		add	s5,s9,s5
 1181              		.loc 1 235 20
 1182 07a8 B3C55500 		xor	a1,a1,t0
 1183 07ac B36C6501 		or	s9,a0,s6
 1184              		.loc 1 235 2
 1185 07b0 E29A     		add	s5,s8,s5
 1186              	.LVL152:
 1187              		.loc 1 235 2 is_stmt 1
 1188              		.loc 1 235 18
 1189              		.loc 1 235 20
 1190 07b2 B3FCBC01 		and	s9,s9,s11
 1191 07b6 337C6501 		and	s8,a0,s6
 1192 07ba B3C5F501 		xor	a1,a1,t6
 1193 07be B395E560 		rol	a1,a1,a4
 1194 07c2 33EC8C01 		or	s8,s9,s8
 1195 07c6 B38C3501 		add	s9,a1,s3
 1196 07ca DE9C     		add	s9,s9,s7
 1197              		.loc 1 235 38 is_stmt 0
 1198 07cc B3C6E601 		xor	a3,a3,t5
 1199              		.loc 1 235 20
 1200 07d0 13552560 		rori	a0,a0,2
 1201              	.LVL153:
 1202 07d4 B39BFA60 		rol	s7,s5,a5
 1203              	.LVL154:
 1204              		.loc 1 235 38
 1205 07d8 33EDAA00 		or	s10,s5,a0
 1206 07dc E29C     		add	s9,s8,s9
 1207 07de B3C6D601 		xor	a3,a3,t4
 1208              		.loc 1 235 20
 1209 07e2 DE9C     		add	s9,s7,s9
 1210              	.LVL155:
 1211              		.loc 1 235 20 is_stmt 1
 1212              		.loc 1 235 36
 1213              		.loc 1 235 38
 1214 07e4 337D6D01 		and	s10,s10,s6
 1215 07e8 B3FBAA00 		and	s7,s5,a0
 1216 07ec B3C6C601 		xor	a3,a3,t3
 1217 07f0 B396E660 		rol	a3,a3,a4
 1218 07f4 B36B7D01 		or	s7,s10,s7
 1219 07f8 338D3601 		add	s10,a3,s3
 1220 07fc 6E9D     		add	s10,s10,s11
 1221              		.loc 1 235 56 is_stmt 0
 1222 07fe 33466600 		xor	a2,a2,t1
 1223              		.loc 1 235 38
 1224 0802 93DA2A60 		rori	s5,s5,2
 1225              	.LVL156:
 1226 0806 5E9D     		add	s10,s7,s10
 1227              		.loc 1 235 56
 1228 0808 33EC5C01 		or	s8,s9,s5
 1229              		.loc 1 235 38
 1230 080c B39BFC60 		rol	s7,s9,a5
 1231              		.loc 1 235 56
 1232 0810 33461601 		xor	a2,a2,a7
 1233              		.loc 1 235 38
 1234 0814 5E9D     		add	s10,s7,s10
 1235              	.LVL157:
 1236              		.loc 1 235 38 is_stmt 1
 1237              		.loc 1 235 54
 1238              		.loc 1 235 56
 1239 0816 337CAC00 		and	s8,s8,a0
 1240 081a B3FB5C01 		and	s7,s9,s5
 1241 081e 33460601 		xor	a2,a2,a6
 1242 0822 3316E660 		rol	a2,a2,a4
 1243 0826 B36B7C01 		or	s7,s8,s7
 1244 082a 330C3601 		add	s8,a2,s3
 1245 082e 5A9C     		add	s8,s8,s6
 236:C:/Users/stapi/OneDrive/Desktop/GD32VW553/V1_MQTT_OK/GD32VW55X_Wifi_BLE_SDK/GD32VW55x_RELEASE_V1.0.2/MSDK/wpa_supplicant/src/crypto\sha1-internal.c **** 	R3(c,d,e,a,b,48); R3(b,c,d,e,a,49); R3(a,b,c,d,e,50); R3(e,a,b,c,d,51);
 1246              		.loc 1 236 2 is_stmt 0
 1247 0830 334F2F01 		xor	t5,t5,s2
 235:C:/Users/stapi/OneDrive/Desktop/GD32VW553/V1_MQTT_OK/GD32VW55X_Wifi_BLE_SDK/GD32VW55x_RELEASE_V1.0.2/MSDK/wpa_supplicant/src/crypto\sha1-internal.c **** 	R3(b,c,d,e,a,44); R3(a,b,c,d,e,45); R3(e,a,b,c,d,46); R3(d,e,a,b,c,47);
 1248              		.loc 1 235 56
 1249 0834 93DC2C60 		rori	s9,s9,2
 1250              	.LVL158:
 1251 0838 331BFD60 		rol	s6,s10,a5
 1252              	.LVL159:
 1253 083c 5E9C     		add	s8,s7,s8
 1254              		.loc 1 236 2
 1255 083e 334F8F00 		xor	t5,t5,s0
 1256 0842 B36B9D01 		or	s7,s10,s9
 235:C:/Users/stapi/OneDrive/Desktop/GD32VW553/V1_MQTT_OK/GD32VW55X_Wifi_BLE_SDK/GD32VW55x_RELEASE_V1.0.2/MSDK/wpa_supplicant/src/crypto\sha1-internal.c **** 	R3(b,c,d,e,a,44); R3(a,b,c,d,e,45); R3(e,a,b,c,d,46); R3(d,e,a,b,c,47);
 1257              		.loc 1 235 56
 1258 0846 5A9C     		add	s8,s6,s8
 1259              	.LVL160:
 235:C:/Users/stapi/OneDrive/Desktop/GD32VW553/V1_MQTT_OK/GD32VW55X_Wifi_BLE_SDK/GD32VW55x_RELEASE_V1.0.2/MSDK/wpa_supplicant/src/crypto\sha1-internal.c **** 	R3(b,c,d,e,a,44); R3(a,b,c,d,e,45); R3(e,a,b,c,d,46); R3(d,e,a,b,c,47);
 1260              		.loc 1 235 56 is_stmt 1
 235:C:/Users/stapi/OneDrive/Desktop/GD32VW553/V1_MQTT_OK/GD32VW55X_Wifi_BLE_SDK/GD32VW55x_RELEASE_V1.0.2/MSDK/wpa_supplicant/src/crypto\sha1-internal.c **** 	R3(b,c,d,e,a,44); R3(a,b,c,d,e,45); R3(e,a,b,c,d,46); R3(d,e,a,b,c,47);
 1261              		.loc 1 235 72
 1262              		.loc 1 236 2
 1263 0848 B3FB5B01 		and	s7,s7,s5
 1264 084c 337B9D01 		and	s6,s10,s9
 1265 0850 334FBF00 		xor	t5,t5,a1
 1266 0854 331FEF60 		rol	t5,t5,a4
 1267 0858 33EB6B01 		or	s6,s7,s6
 1268 085c B30B3F01 		add	s7,t5,s3
 1269 0860 AA9B     		add	s7,s7,a0
 1270              		.loc 1 236 20 is_stmt 0
 1271 0862 33439300 		xor	t1,t1,s1
 1272              		.loc 1 236 2
 1273 0866 135D2D60 		rori	s10,s10,2
 1274              	.LVL161:
 1275 086a 3315FC60 		rol	a0,s8,a5
 1276              	.LVL162:
 1277              		.loc 1 236 20
 1278 086e B36DAC01 		or	s11,s8,s10
 1279 0872 DA9B     		add	s7,s6,s7
 1280 0874 33437300 		xor	t1,t1,t2
 1281              		.loc 1 236 2
 1282 0878 AA9B     		add	s7,a0,s7
 1283              	.LVL163:
 1284              		.loc 1 236 2 is_stmt 1
 1285              		.loc 1 236 18
 1286              		.loc 1 236 20
 1287 087a B3FD9D01 		and	s11,s11,s9
 1288 087e 3375AC01 		and	a0,s8,s10
 1289 0882 3343D300 		xor	t1,t1,a3
 1290 0886 3313E360 		rol	t1,t1,a4
 1291 088a 33E5AD00 		or	a0,s11,a0
 1292 088e B30D3301 		add	s11,t1,s3
 1293 0892 D69D     		add	s11,s11,s5
 1294              		.loc 1 236 38 is_stmt 0
 1295 0894 33491900 		xor	s2,s2,ra
 1296              		.loc 1 236 20
 1297 0898 135C2C60 		rori	s8,s8,2
 1298              	.LVL164:
 1299 089c AA9D     		add	s11,a0,s11
 1300              		.loc 1 236 38
 1301 089e 33EB8B01 		or	s6,s7,s8
 1302              		.loc 1 236 20
 1303 08a2 3395FB60 		rol	a0,s7,a5
 1304              		.loc 1 236 38
 1305 08a6 3349F901 		xor	s2,s2,t6
 1306              		.loc 1 236 20
 1307 08aa AA9D     		add	s11,a0,s11
 1308              	.LVL165:
 1309              		.loc 1 236 20 is_stmt 1
 1310              		.loc 1 236 36
 1311              		.loc 1 236 38
 1312 08ac 337BAB01 		and	s6,s6,s10
 1313 08b0 33F58B01 		and	a0,s7,s8
 1314 08b4 3349C900 		xor	s2,s2,a2
 1315 08b8 3319E960 		rol	s2,s2,a4
 1316 08bc 3365AB00 		or	a0,s6,a0
 1317 08c0 330B3901 		add	s6,s2,s3
 1318 08c4 669B     		add	s6,s6,s9
 1319 08c6 2A9B     		add	s6,a0,s6
 1320              		.loc 1 236 56 is_stmt 0
 1321 08c8 B3C45400 		xor	s1,s1,t0
 1322              		.loc 1 236 38
 1323 08cc 3395FD60 		rol	a0,s11,a5
 1324 08d0 93DB2B60 		rori	s7,s7,2
 1325              	.LVL166:
 1326 08d4 2A9B     		add	s6,a0,s6
 1327              	.LVL167:
 1328              		.loc 1 236 38 is_stmt 1
 1329              		.loc 1 236 54
 1330              		.loc 1 236 56
 1331 08d6 B3C4C401 		xor	s1,s1,t3
 1332 08da 33E57D01 		or	a0,s11,s7
 1333 08de 33758501 		and	a0,a0,s8
 1334 08e2 B3FA7D01 		and	s5,s11,s7
 1335 08e6 B3C4E401 		xor	s1,s1,t5
 1336 08ea B394E460 		rol	s1,s1,a4
 1337 08ee B36A5501 		or	s5,a0,s5
 1338 08f2 33853401 		add	a0,s1,s3
 1339 08f6 6A95     		add	a0,a0,s10
 1340 08f8 5695     		add	a0,s5,a0
 237:C:/Users/stapi/OneDrive/Desktop/GD32VW553/V1_MQTT_OK/GD32VW55X_Wifi_BLE_SDK/GD32VW55x_RELEASE_V1.0.2/MSDK/wpa_supplicant/src/crypto\sha1-internal.c **** 	R3(d,e,a,b,c,52); R3(c,d,e,a,b,53); R3(b,c,d,e,a,54); R3(a,b,c,d,e,55);
 1341              		.loc 1 237 2 is_stmt 0
 1342 08fa B3C0D001 		xor	ra,ra,t4
 236:C:/Users/stapi/OneDrive/Desktop/GD32VW553/V1_MQTT_OK/GD32VW55X_Wifi_BLE_SDK/GD32VW55x_RELEASE_V1.0.2/MSDK/wpa_supplicant/src/crypto\sha1-internal.c **** 	R3(c,d,e,a,b,48); R3(b,c,d,e,a,49); R3(a,b,c,d,e,50); R3(e,a,b,c,d,51);
 1343              		.loc 1 236 56
 1344 08fe B31AFB60 		rol	s5,s6,a5
 1345 0902 93DD2D60 		rori	s11,s11,2
 1346              	.LVL168:
 1347 0906 5695     		add	a0,s5,a0
 1348              	.LVL169:
 236:C:/Users/stapi/OneDrive/Desktop/GD32VW553/V1_MQTT_OK/GD32VW55X_Wifi_BLE_SDK/GD32VW55x_RELEASE_V1.0.2/MSDK/wpa_supplicant/src/crypto\sha1-internal.c **** 	R3(c,d,e,a,b,48); R3(b,c,d,e,a,49); R3(a,b,c,d,e,50); R3(e,a,b,c,d,51);
 1349              		.loc 1 236 56 is_stmt 1
 236:C:/Users/stapi/OneDrive/Desktop/GD32VW553/V1_MQTT_OK/GD32VW55X_Wifi_BLE_SDK/GD32VW55x_RELEASE_V1.0.2/MSDK/wpa_supplicant/src/crypto\sha1-internal.c **** 	R3(c,d,e,a,b,48); R3(b,c,d,e,a,49); R3(a,b,c,d,e,50); R3(e,a,b,c,d,51);
 1350              		.loc 1 236 72
 1351              		.loc 1 237 2
 1352 0908 B3C00001 		xor	ra,ra,a6
 1353 090c B36ABB01 		or	s5,s6,s11
 1354 0910 B3FA7A01 		and	s5,s5,s7
 1355 0914 B37CBB01 		and	s9,s6,s11
 1356 0918 B3C06000 		xor	ra,ra,t1
 1357 091c B390E060 		rol	ra,ra,a4
 1358 0920 B3EC9A01 		or	s9,s5,s9
 1359 0924 B38A3001 		add	s5,ra,s3
 1360 0928 E29A     		add	s5,s5,s8
 1361              		.loc 1 237 20 is_stmt 0
 1362 092a B3C21201 		xor	t0,t0,a7
 1363              		.loc 1 237 2
 1364 092e 135B2B60 		rori	s6,s6,2
 1365              	.LVL170:
 1366 0932 331CF560 		rol	s8,a0,a5
 1367              	.LVL171:
 1368 0936 E69A     		add	s5,s9,s5
 1369              		.loc 1 237 20
 1370 0938 B3C2B200 		xor	t0,t0,a1
 1371 093c B36C6501 		or	s9,a0,s6
 1372              		.loc 1 237 2
 1373 0940 E29A     		add	s5,s8,s5
 1374              	.LVL172:
 1375              		.loc 1 237 2 is_stmt 1
 1376              		.loc 1 237 18
 1377              		.loc 1 237 20
 1378 0942 B3FCBC01 		and	s9,s9,s11
 1379 0946 337C6501 		and	s8,a0,s6
 1380 094a B3C22201 		xor	t0,t0,s2
 1381 094e B392E260 		rol	t0,t0,a4
 1382 0952 33EC8C01 		or	s8,s9,s8
 1383 0956 B38C3201 		add	s9,t0,s3
 1384 095a DE9C     		add	s9,s9,s7
 1385              		.loc 1 237 38 is_stmt 0
 1386 095c B3CE8E00 		xor	t4,t4,s0
 1387              		.loc 1 237 20
 1388 0960 13552560 		rori	a0,a0,2
 1389              	.LVL173:
 1390 0964 B39BFA60 		rol	s7,s5,a5
 1391              	.LVL174:
 1392              		.loc 1 237 38
 1393 0968 33EDAA00 		or	s10,s5,a0
 1394 096c E29C     		add	s9,s8,s9
 1395 096e B3CEDE00 		xor	t4,t4,a3
 1396              		.loc 1 237 20
 1397 0972 DE9C     		add	s9,s7,s9
 1398              	.LVL175:
 1399              		.loc 1 237 20 is_stmt 1
 1400              		.loc 1 237 36
 1401              		.loc 1 237 38
 1402 0974 337D6D01 		and	s10,s10,s6
 1403 0978 B3FBAA00 		and	s7,s5,a0
 1404 097c B3CE9E00 		xor	t4,t4,s1
 1405 0980 B39EEE60 		rol	t4,t4,a4
 1406 0984 B36B7D01 		or	s7,s10,s7
 1407 0988 338D3E01 		add	s10,t4,s3
 1408 098c 6E9D     		add	s10,s10,s11
 1409              		.loc 1 237 56 is_stmt 0
 1410 098e B3C87800 		xor	a7,a7,t2
 1411              		.loc 1 237 38
 1412 0992 93DA2A60 		rori	s5,s5,2
 1413              	.LVL176:
 1414 0996 5E9D     		add	s10,s7,s10
 1415              		.loc 1 237 56
 1416 0998 33EC5C01 		or	s8,s9,s5
 1417              		.loc 1 237 38
 1418 099c B39BFC60 		rol	s7,s9,a5
 1419              		.loc 1 237 56
 1420 09a0 B3C8C800 		xor	a7,a7,a2
 1421              		.loc 1 237 38
 1422 09a4 5E9D     		add	s10,s7,s10
 1423              	.LVL177:
 1424              		.loc 1 237 38 is_stmt 1
 1425              		.loc 1 237 54
 1426              		.loc 1 237 56
 1427 09a6 337CAC00 		and	s8,s8,a0
 1428 09aa B3FB5C01 		and	s7,s9,s5
 1429 09ae B3C81800 		xor	a7,a7,ra
 1430 09b2 B398E860 		rol	a7,a7,a4
 1431 09b6 B36B7C01 		or	s7,s8,s7
 1432 09ba 338C3801 		add	s8,a7,s3
 1433 09be 5A9C     		add	s8,s8,s6
 238:C:/Users/stapi/OneDrive/Desktop/GD32VW553/V1_MQTT_OK/GD32VW55X_Wifi_BLE_SDK/GD32VW55x_RELEASE_V1.0.2/MSDK/wpa_supplicant/src/crypto\sha1-internal.c **** 	R3(e,a,b,c,d,56); R3(d,e,a,b,c,57); R3(c,d,e,a,b,58); R3(b,c,d,e,a,59);
 1434              		.loc 1 238 2 is_stmt 0
 1435 09c0 3344F401 		xor	s0,s0,t6
 237:C:/Users/stapi/OneDrive/Desktop/GD32VW553/V1_MQTT_OK/GD32VW55X_Wifi_BLE_SDK/GD32VW55x_RELEASE_V1.0.2/MSDK/wpa_supplicant/src/crypto\sha1-internal.c **** 	R3(d,e,a,b,c,52); R3(c,d,e,a,b,53); R3(b,c,d,e,a,54); R3(a,b,c,d,e,55);
 1436              		.loc 1 237 56
 1437 09c4 331BFD60 		rol	s6,s10,a5
 1438              	.LVL178:
 1439 09c8 93DC2C60 		rori	s9,s9,2
 1440              	.LVL179:
 1441 09cc 5E9C     		add	s8,s7,s8
 1442              		.loc 1 238 2
 1443 09ce 3344E401 		xor	s0,s0,t5
 1444 09d2 B36B9D01 		or	s7,s10,s9
 237:C:/Users/stapi/OneDrive/Desktop/GD32VW553/V1_MQTT_OK/GD32VW55X_Wifi_BLE_SDK/GD32VW55x_RELEASE_V1.0.2/MSDK/wpa_supplicant/src/crypto\sha1-internal.c **** 	R3(d,e,a,b,c,52); R3(c,d,e,a,b,53); R3(b,c,d,e,a,54); R3(a,b,c,d,e,55);
 1445              		.loc 1 237 56
 1446 09d6 5A9C     		add	s8,s6,s8
 1447              	.LVL180:
 237:C:/Users/stapi/OneDrive/Desktop/GD32VW553/V1_MQTT_OK/GD32VW55X_Wifi_BLE_SDK/GD32VW55x_RELEASE_V1.0.2/MSDK/wpa_supplicant/src/crypto\sha1-internal.c **** 	R3(d,e,a,b,c,52); R3(c,d,e,a,b,53); R3(b,c,d,e,a,54); R3(a,b,c,d,e,55);
 1448              		.loc 1 237 56 is_stmt 1
 237:C:/Users/stapi/OneDrive/Desktop/GD32VW553/V1_MQTT_OK/GD32VW55X_Wifi_BLE_SDK/GD32VW55x_RELEASE_V1.0.2/MSDK/wpa_supplicant/src/crypto\sha1-internal.c **** 	R3(d,e,a,b,c,52); R3(c,d,e,a,b,53); R3(b,c,d,e,a,54); R3(a,b,c,d,e,55);
 1449              		.loc 1 237 72
 1450              		.loc 1 238 2
 1451 09d8 B3FB5B01 		and	s7,s7,s5
 1452 09dc 337B9D01 		and	s6,s10,s9
 1453 09e0 33445400 		xor	s0,s0,t0
 1454 09e4 3314E460 		rol	s0,s0,a4
 1455 09e8 33EB6B01 		or	s6,s7,s6
 1456 09ec B30B3401 		add	s7,s0,s3
 1457 09f0 AA9B     		add	s7,s7,a0
 1458              		.loc 1 238 20 is_stmt 0
 1459 09f2 B3C3C301 		xor	t2,t2,t3
 1460              		.loc 1 238 2
 1461 09f6 135D2D60 		rori	s10,s10,2
 1462              	.LVL181:
 1463 09fa 3315FC60 		rol	a0,s8,a5
 1464              	.LVL182:
 1465              		.loc 1 238 20
 1466 09fe B36DAC01 		or	s11,s8,s10
 1467 0a02 DA9B     		add	s7,s6,s7
 1468 0a04 B3C36300 		xor	t2,t2,t1
 1469              		.loc 1 238 2
 1470 0a08 AA9B     		add	s7,a0,s7
 1471              	.LVL183:
 1472              		.loc 1 238 2 is_stmt 1
 1473              		.loc 1 238 18
 1474              		.loc 1 238 20
 1475 0a0a B3FD9D01 		and	s11,s11,s9
 1476 0a0e 3375AC01 		and	a0,s8,s10
 1477 0a12 B3C3D301 		xor	t2,t2,t4
 1478 0a16 B393E360 		rol	t2,t2,a4
 1479 0a1a 33E5AD00 		or	a0,s11,a0
 1480 0a1e B38D3301 		add	s11,t2,s3
 1481 0a22 D69D     		add	s11,s11,s5
 1482 0a24 AA9D     		add	s11,a0,s11
 1483              		.loc 1 238 38 is_stmt 0
 1484 0a26 B3CF0F01 		xor	t6,t6,a6
 1485              		.loc 1 238 20
 1486 0a2a 3395FB60 		rol	a0,s7,a5
 1487 0a2e 135C2C60 		rori	s8,s8,2
 1488              	.LVL184:
 1489 0a32 AA9D     		add	s11,a0,s11
 1490              	.LVL185:
 1491              		.loc 1 238 20 is_stmt 1
 1492              		.loc 1 238 36
 1493              		.loc 1 238 38
 1494 0a34 B3CF2F01 		xor	t6,t6,s2
 1495 0a38 33E58B01 		or	a0,s7,s8
 1496 0a3c B3FA8B01 		and	s5,s7,s8
 1497 0a40 B3CF1F01 		xor	t6,t6,a7
 1498 0a44 3375A501 		and	a0,a0,s10
 1499 0a48 B39FEF60 		rol	t6,t6,a4
 1500 0a4c 33655501 		or	a0,a0,s5
 1501              		.loc 1 238 56 is_stmt 0
 1502 0a50 334EBE00 		xor	t3,t3,a1
 1503 0a54 B38A3F01 		add	s5,t6,s3
 1504 0a58 D69C     		add	s9,s5,s9
 1505              	.LVL186:
 1506 0a5a 334E9E00 		xor	t3,t3,s1
 1507              		.loc 1 238 38
 1508 0a5e 93DB2B60 		rori	s7,s7,2
 1509              	.LVL187:
 1510 0a62 AA9C     		add	s9,a0,s9
 1511              		.loc 1 238 56
 1512 0a64 33EB7D01 		or	s6,s11,s7
 1513              		.loc 1 238 38
 1514 0a68 3395FD60 		rol	a0,s11,a5
 1515              		.loc 1 238 56
 1516 0a6c 334E8E00 		xor	t3,t3,s0
 1517 0a70 331EEE60 		rol	t3,t3,a4
 1518              		.loc 1 238 38
 1519 0a74 AA9C     		add	s9,a0,s9
 1520              	.LVL188:
 1521              		.loc 1 238 38 is_stmt 1
 1522              		.loc 1 238 54
 1523              		.loc 1 238 56
 1524 0a76 337B8B01 		and	s6,s6,s8
 1525 0a7a 33F57D01 		and	a0,s11,s7
 1526 0a7e F299     		add	s3,t3,s3
 1527 0a80 EA99     		add	s3,s3,s10
 1528 0a82 336BAB00 		or	s6,s6,a0
 239:C:/Users/stapi/OneDrive/Desktop/GD32VW553/V1_MQTT_OK/GD32VW55X_Wifi_BLE_SDK/GD32VW55x_RELEASE_V1.0.2/MSDK/wpa_supplicant/src/crypto\sha1-internal.c **** 	R4(a,b,c,d,e,60); R4(e,a,b,c,d,61); R4(d,e,a,b,c,62); R4(c,d,e,a,b,63);
 1529              		.loc 1 239 2 is_stmt 0
 1530 0a86 3348D800 		xor	a6,a6,a3
 1531 0a8a 4E9B     		add	s6,s6,s3
 1532 0a8c 33481800 		xor	a6,a6,ra
 1533 0a90 B7C962CA 		li	s3,-899497984
 1534 0a94 9389691D 		addi	s3,s3,470
 238:C:/Users/stapi/OneDrive/Desktop/GD32VW553/V1_MQTT_OK/GD32VW55X_Wifi_BLE_SDK/GD32VW55x_RELEASE_V1.0.2/MSDK/wpa_supplicant/src/crypto\sha1-internal.c **** 	R3(e,a,b,c,d,56); R3(d,e,a,b,c,57); R3(c,d,e,a,b,58); R3(b,c,d,e,a,59);
 1535              		.loc 1 238 56
 1536 0a98 3395FC60 		rol	a0,s9,a5
 1537              		.loc 1 239 2
 1538 0a9c 33487800 		xor	a6,a6,t2
 1539 0aa0 3318E860 		rol	a6,a6,a4
 238:C:/Users/stapi/OneDrive/Desktop/GD32VW553/V1_MQTT_OK/GD32VW55X_Wifi_BLE_SDK/GD32VW55x_RELEASE_V1.0.2/MSDK/wpa_supplicant/src/crypto\sha1-internal.c **** 	R3(e,a,b,c,d,56); R3(d,e,a,b,c,57); R3(c,d,e,a,b,58); R3(b,c,d,e,a,59);
 1540              		.loc 1 238 56
 1541 0aa4 2A9B     		add	s6,a0,s6
 1542              	.LVL189:
 238:C:/Users/stapi/OneDrive/Desktop/GD32VW553/V1_MQTT_OK/GD32VW55X_Wifi_BLE_SDK/GD32VW55x_RELEASE_V1.0.2/MSDK/wpa_supplicant/src/crypto\sha1-internal.c **** 	R3(e,a,b,c,d,56); R3(d,e,a,b,c,57); R3(c,d,e,a,b,58); R3(b,c,d,e,a,59);
 1543              		.loc 1 238 56 is_stmt 1
 1544 0aa6 B30A3801 		add	s5,a6,s3
 1545 0aaa 93DD2D60 		rori	s11,s11,2
 1546              	.LVL190:
 238:C:/Users/stapi/OneDrive/Desktop/GD32VW553/V1_MQTT_OK/GD32VW55X_Wifi_BLE_SDK/GD32VW55x_RELEASE_V1.0.2/MSDK/wpa_supplicant/src/crypto\sha1-internal.c **** 	R3(e,a,b,c,d,56); R3(d,e,a,b,c,57); R3(c,d,e,a,b,58); R3(b,c,d,e,a,59);
 1547              		.loc 1 238 72
 1548              		.loc 1 239 2
 1549              		.loc 1 239 20 is_stmt 0
 1550 0aae B18D     		xor	a1,a1,a2
 1551              		.loc 1 239 2
 1552 0ab0 33C5BB01 		xor	a0,s7,s11
 1553 0ab4 33459501 		xor	a0,a0,s9
 1554 0ab8 E29A     		add	s5,s5,s8
 1555              		.loc 1 239 20
 1556 0aba B3C55500 		xor	a1,a1,t0
 1557 0abe 330C5501 		add	s8,a0,s5
 1558              	.LVL191:
 1559              		.loc 1 239 2
 1560 0ac2 93DC2C60 		rori	s9,s9,2
 1561              	.LVL192:
 1562              		.loc 1 239 20
 1563 0ac6 B3C5F501 		xor	a1,a1,t6
 1564 0aca 33C59D01 		xor	a0,s11,s9
 1565 0ace B395E560 		rol	a1,a1,a4
 1566 0ad2 334D6501 		xor	s10,a0,s6
 1567              		.loc 1 239 38
 1568 0ad6 B3C6E601 		xor	a3,a3,t5
 1569 0ada 33853501 		add	a0,a1,s3
 1570              		.loc 1 239 2
 1571 0ade B31AFB60 		rol	s5,s6,a5
 1572 0ae2 5E95     		add	a0,a0,s7
 1573 0ae4 E29A     		add	s5,s5,s8
 1574              	.LVL193:
 1575              		.loc 1 239 2 is_stmt 1
 1576              		.loc 1 239 18
 1577              		.loc 1 239 20
 1578              		.loc 1 239 38 is_stmt 0
 1579 0ae6 B3C6D601 		xor	a3,a3,t4
 1580 0aea 6A95     		add	a0,s10,a0
 1581 0aec B3C6C601 		xor	a3,a3,t3
 1582              		.loc 1 239 20
 1583 0af0 339DFA60 		rol	s10,s5,a5
 1584              		.loc 1 239 38
 1585 0af4 B396E660 		rol	a3,a3,a4
 1586              		.loc 1 239 20
 1587 0af8 6A95     		add	a0,s10,a0
 1588              	.LVL194:
 1589              		.loc 1 239 20 is_stmt 1
 1590 0afa 338C3601 		add	s8,a3,s3
 1591 0afe 135B2B60 		rori	s6,s6,2
 1592              	.LVL195:
 1593              		.loc 1 239 36
 1594              		.loc 1 239 38
 1595              		.loc 1 239 56 is_stmt 0
 1596 0b02 33466600 		xor	a2,a2,t1
 1597              		.loc 1 239 38
 1598 0b06 33CD6C01 		xor	s10,s9,s6
 1599 0b0a 334D5D01 		xor	s10,s10,s5
 1600 0b0e E29D     		add	s11,s8,s11
 1601              	.LVL196:
 1602              		.loc 1 239 56
 1603 0b10 33461601 		xor	a2,a2,a7
 1604 0b14 EA9D     		add	s11,s10,s11
 1605 0b16 33460601 		xor	a2,a2,a6
 1606 0b1a 3316E660 		rol	a2,a2,a4
 1607              		.loc 1 239 38
 1608 0b1e 331DF560 		rol	s10,a0,a5
 1609 0b22 330C3601 		add	s8,a2,s3
 1610 0b26 6E9D     		add	s10,s10,s11
 1611              	.LVL197:
 1612              		.loc 1 239 38 is_stmt 1
 1613 0b28 93DA2A60 		rori	s5,s5,2
 1614              	.LVL198:
 1615              		.loc 1 239 54
 1616              		.loc 1 239 56
 240:C:/Users/stapi/OneDrive/Desktop/GD32VW553/V1_MQTT_OK/GD32VW55X_Wifi_BLE_SDK/GD32VW55x_RELEASE_V1.0.2/MSDK/wpa_supplicant/src/crypto\sha1-internal.c **** 	R4(b,c,d,e,a,64); R4(a,b,c,d,e,65); R4(e,a,b,c,d,66); R4(d,e,a,b,c,67);
 1617              		.loc 1 240 2 is_stmt 0
 1618 0b2c 334F2F01 		xor	t5,t5,s2
 239:C:/Users/stapi/OneDrive/Desktop/GD32VW553/V1_MQTT_OK/GD32VW55X_Wifi_BLE_SDK/GD32VW55x_RELEASE_V1.0.2/MSDK/wpa_supplicant/src/crypto\sha1-internal.c **** 	R4(a,b,c,d,e,60); R4(e,a,b,c,d,61); R4(d,e,a,b,c,62); R4(c,d,e,a,b,63);
 1619              		.loc 1 239 56
 1620 0b30 B34D5B01 		xor	s11,s6,s5
 1621 0b34 B3CDAD00 		xor	s11,s11,a0
 1622 0b38 E29C     		add	s9,s8,s9
 1623              	.LVL199:
 1624              		.loc 1 240 2
 1625 0b3a 334F8F00 		xor	t5,t5,s0
 1626 0b3e EE9C     		add	s9,s11,s9
 1627 0b40 334FBF00 		xor	t5,t5,a1
 239:C:/Users/stapi/OneDrive/Desktop/GD32VW553/V1_MQTT_OK/GD32VW55X_Wifi_BLE_SDK/GD32VW55x_RELEASE_V1.0.2/MSDK/wpa_supplicant/src/crypto\sha1-internal.c **** 	R4(a,b,c,d,e,60); R4(e,a,b,c,d,61); R4(d,e,a,b,c,62); R4(c,d,e,a,b,63);
 1628              		.loc 1 239 56
 1629 0b44 B31DFD60 		rol	s11,s10,a5
 1630              		.loc 1 240 2
 1631 0b48 331FEF60 		rol	t5,t5,a4
 239:C:/Users/stapi/OneDrive/Desktop/GD32VW553/V1_MQTT_OK/GD32VW55X_Wifi_BLE_SDK/GD32VW55x_RELEASE_V1.0.2/MSDK/wpa_supplicant/src/crypto\sha1-internal.c **** 	R4(a,b,c,d,e,60); R4(e,a,b,c,d,61); R4(d,e,a,b,c,62); R4(c,d,e,a,b,63);
 1632              		.loc 1 239 56
 1633 0b4c EE9C     		add	s9,s11,s9
 1634              	.LVL200:
 239:C:/Users/stapi/OneDrive/Desktop/GD32VW553/V1_MQTT_OK/GD32VW55X_Wifi_BLE_SDK/GD32VW55x_RELEASE_V1.0.2/MSDK/wpa_supplicant/src/crypto\sha1-internal.c **** 	R4(a,b,c,d,e,60); R4(e,a,b,c,d,61); R4(d,e,a,b,c,62); R4(c,d,e,a,b,63);
 1635              		.loc 1 239 56 is_stmt 1
 1636 0b4e 330C3F01 		add	s8,t5,s3
 1637 0b52 13552560 		rori	a0,a0,2
 1638              	.LVL201:
 239:C:/Users/stapi/OneDrive/Desktop/GD32VW553/V1_MQTT_OK/GD32VW55X_Wifi_BLE_SDK/GD32VW55x_RELEASE_V1.0.2/MSDK/wpa_supplicant/src/crypto\sha1-internal.c **** 	R4(a,b,c,d,e,60); R4(e,a,b,c,d,61); R4(d,e,a,b,c,62); R4(c,d,e,a,b,63);
 1639              		.loc 1 239 72
 1640              		.loc 1 240 2
 1641              		.loc 1 240 20 is_stmt 0
 1642 0b56 33439300 		xor	t1,t1,s1
 1643              		.loc 1 240 2
 1644 0b5a B3CDAA00 		xor	s11,s5,a0
 1645 0b5e B3CDAD01 		xor	s11,s11,s10
 1646 0b62 629B     		add	s6,s8,s6
 1647              	.LVL202:
 1648              		.loc 1 240 20
 1649 0b64 33437300 		xor	t1,t1,t2
 1650 0b68 3343D300 		xor	t1,t1,a3
 1651 0b6c 6E9B     		add	s6,s11,s6
 1652              		.loc 1 240 2
 1653 0b6e B39DFC60 		rol	s11,s9,a5
 1654              		.loc 1 240 20
 1655 0b72 3313E360 		rol	t1,t1,a4
 1656              		.loc 1 240 2
 1657 0b76 6E9B     		add	s6,s11,s6
 1658              	.LVL203:
 1659              		.loc 1 240 2 is_stmt 1
 1660 0b78 330C3301 		add	s8,t1,s3
 1661 0b7c 135D2D60 		rori	s10,s10,2
 1662              	.LVL204:
 1663              		.loc 1 240 18
 1664              		.loc 1 240 20
 1665              		.loc 1 240 38 is_stmt 0
 1666 0b80 33491900 		xor	s2,s2,ra
 1667              		.loc 1 240 20
 1668 0b84 B34DA501 		xor	s11,a0,s10
 1669 0b88 B3CD9D01 		xor	s11,s11,s9
 1670 0b8c E29A     		add	s5,s8,s5
 1671              	.LVL205:
 1672              		.loc 1 240 38
 1673 0b8e 3349F901 		xor	s2,s2,t6
 1674 0b92 EE9A     		add	s5,s11,s5
 1675 0b94 3349C900 		xor	s2,s2,a2
 1676              		.loc 1 240 20
 1677 0b98 B31DFB60 		rol	s11,s6,a5
 1678              		.loc 1 240 38
 1679 0b9c 3319E960 		rol	s2,s2,a4
 1680              		.loc 1 240 20
 1681 0ba0 EE9A     		add	s5,s11,s5
 1682              	.LVL206:
 1683              		.loc 1 240 20 is_stmt 1
 1684 0ba2 330C3901 		add	s8,s2,s3
 1685 0ba6 93DC2C60 		rori	s9,s9,2
 1686              	.LVL207:
 1687              		.loc 1 240 36
 1688              		.loc 1 240 38
 1689              		.loc 1 240 56 is_stmt 0
 1690 0baa B3C45400 		xor	s1,s1,t0
 1691              		.loc 1 240 38
 1692 0bae B34D9D01 		xor	s11,s10,s9
 1693 0bb2 B3CD6D01 		xor	s11,s11,s6
 1694 0bb6 6295     		add	a0,s8,a0
 1695              	.LVL208:
 1696              		.loc 1 240 56
 1697 0bb8 B3C4C401 		xor	s1,s1,t3
 1698 0bbc 6E95     		add	a0,s11,a0
 1699 0bbe B3C4E401 		xor	s1,s1,t5
 1700              		.loc 1 240 38
 1701 0bc2 B39DFA60 		rol	s11,s5,a5
 1702              		.loc 1 240 56
 1703 0bc6 B394E460 		rol	s1,s1,a4
 1704              		.loc 1 240 38
 1705 0bca 6E95     		add	a0,s11,a0
 1706              	.LVL209:
 1707              		.loc 1 240 38 is_stmt 1
 1708 0bcc 338C3401 		add	s8,s1,s3
 1709 0bd0 135B2B60 		rori	s6,s6,2
 1710              	.LVL210:
 1711              		.loc 1 240 54
 1712              		.loc 1 240 56
 241:C:/Users/stapi/OneDrive/Desktop/GD32VW553/V1_MQTT_OK/GD32VW55X_Wifi_BLE_SDK/GD32VW55x_RELEASE_V1.0.2/MSDK/wpa_supplicant/src/crypto\sha1-internal.c **** 	R4(c,d,e,a,b,68); R4(b,c,d,e,a,69); R4(a,b,c,d,e,70); R4(e,a,b,c,d,71);
 1713              		.loc 1 241 2 is_stmt 0
 1714 0bd4 B3C0D001 		xor	ra,ra,t4
 240:C:/Users/stapi/OneDrive/Desktop/GD32VW553/V1_MQTT_OK/GD32VW55X_Wifi_BLE_SDK/GD32VW55x_RELEASE_V1.0.2/MSDK/wpa_supplicant/src/crypto\sha1-internal.c **** 	R4(b,c,d,e,a,64); R4(a,b,c,d,e,65); R4(e,a,b,c,d,66); R4(d,e,a,b,c,67);
 1715              		.loc 1 240 56
 1716 0bd8 B3CD6C01 		xor	s11,s9,s6
 1717 0bdc B3CD5D01 		xor	s11,s11,s5
 1718 0be0 629D     		add	s10,s8,s10
 1719              	.LVL211:
 1720              		.loc 1 241 2
 1721 0be2 B3C00001 		xor	ra,ra,a6
 1722 0be6 B3C06000 		xor	ra,ra,t1
 1723 0bea 6E9D     		add	s10,s11,s10
 240:C:/Users/stapi/OneDrive/Desktop/GD32VW553/V1_MQTT_OK/GD32VW55X_Wifi_BLE_SDK/GD32VW55x_RELEASE_V1.0.2/MSDK/wpa_supplicant/src/crypto\sha1-internal.c **** 	R4(b,c,d,e,a,64); R4(a,b,c,d,e,65); R4(e,a,b,c,d,66); R4(d,e,a,b,c,67);
 1724              		.loc 1 240 56
 1725 0bec B31DF560 		rol	s11,a0,a5
 1726              		.loc 1 241 2
 1727 0bf0 B390E060 		rol	ra,ra,a4
 240:C:/Users/stapi/OneDrive/Desktop/GD32VW553/V1_MQTT_OK/GD32VW55X_Wifi_BLE_SDK/GD32VW55x_RELEASE_V1.0.2/MSDK/wpa_supplicant/src/crypto\sha1-internal.c **** 	R4(b,c,d,e,a,64); R4(a,b,c,d,e,65); R4(e,a,b,c,d,66); R4(d,e,a,b,c,67);
 1728              		.loc 1 240 56
 1729 0bf4 6E9D     		add	s10,s11,s10
 1730 0bf6 338C3001 		add	s8,ra,s3
 1731 0bfa 93DA2A60 		rori	s5,s5,2
 1732              	.LVL212:
 1733              		.loc 1 241 20
 1734 0bfe B3C21201 		xor	t0,t0,a7
 1735              		.loc 1 241 2
 1736 0c02 B34D5B01 		xor	s11,s6,s5
 1737 0c06 B3CDAD00 		xor	s11,s11,a0
 1738 0c0a E29C     		add	s9,s8,s9
 1739              	.LVL213:
 1740              		.loc 1 241 20
 1741 0c0c B3C2B200 		xor	t0,t0,a1
 1742 0c10 EE9C     		add	s9,s11,s9
 1743 0c12 B3C22201 		xor	t0,t0,s2
 1744              		.loc 1 241 2
 1745 0c16 B31DFD60 		rol	s11,s10,a5
 1746              		.loc 1 241 20
 1747 0c1a B392E260 		rol	t0,t0,a4
 1748              		.loc 1 241 2
 1749 0c1e EE9C     		add	s9,s11,s9
 1750 0c20 338C3201 		add	s8,t0,s3
 1751 0c24 13552560 		rori	a0,a0,2
 1752              	.LVL214:
 1753              		.loc 1 241 38
 1754 0c28 B3CE8E00 		xor	t4,t4,s0
 1755              		.loc 1 241 20
 1756 0c2c B3CDAA00 		xor	s11,s5,a0
 1757 0c30 B3CDAD01 		xor	s11,s11,s10
 1758              		.loc 1 241 38
 1759 0c34 B3CEDE00 		xor	t4,t4,a3
 1760 0c38 629B     		add	s6,s8,s6
 1761              	.LVL215:
 1762 0c3a 6E9B     		add	s6,s11,s6
 1763 0c3c B3CE9E00 		xor	t4,t4,s1
 1764              		.loc 1 241 20
 1765 0c40 B39DFC60 		rol	s11,s9,a5
 1766              		.loc 1 241 38
 1767 0c44 B39EEE60 		rol	t4,t4,a4
 1768              		.loc 1 241 20
 1769 0c48 6E9B     		add	s6,s11,s6
 1770 0c4a 338C3E01 		add	s8,t4,s3
 1771 0c4e 135D2D60 		rori	s10,s10,2
 1772              		.loc 1 241 56
 1773 0c52 B3C87800 		xor	a7,a7,t2
 1774              		.loc 1 241 38
 1775 0c56 B34DA501 		xor	s11,a0,s10
 1776 0c5a B3CD9D01 		xor	s11,s11,s9
 1777 0c5e E29A     		add	s5,s8,s5
 1778              		.loc 1 241 56
 1779 0c60 B3C8C800 		xor	a7,a7,a2
 1780 0c64 EE9A     		add	s5,s11,s5
 1781 0c66 B3C81800 		xor	a7,a7,ra
 1782              		.loc 1 241 38
 1783 0c6a B31DFB60 		rol	s11,s6,a5
 1784              		.loc 1 241 56
 1785 0c6e B398E860 		rol	a7,a7,a4
 1786              		.loc 1 241 38
 1787 0c72 EE9A     		add	s5,s11,s5
 1788 0c74 338C3801 		add	s8,a7,s3
 1789 0c78 93DC2C60 		rori	s9,s9,2
 242:C:/Users/stapi/OneDrive/Desktop/GD32VW553/V1_MQTT_OK/GD32VW55X_Wifi_BLE_SDK/GD32VW55x_RELEASE_V1.0.2/MSDK/wpa_supplicant/src/crypto\sha1-internal.c **** 	R4(d,e,a,b,c,72); R4(c,d,e,a,b,73); R4(b,c,d,e,a,74); R4(a,b,c,d,e,75);
 1790              		.loc 1 242 2
 1791 0c7c 3344F401 		xor	s0,s0,t6
 241:C:/Users/stapi/OneDrive/Desktop/GD32VW553/V1_MQTT_OK/GD32VW55X_Wifi_BLE_SDK/GD32VW55x_RELEASE_V1.0.2/MSDK/wpa_supplicant/src/crypto\sha1-internal.c **** 	R4(c,d,e,a,b,68); R4(b,c,d,e,a,69); R4(a,b,c,d,e,70); R4(e,a,b,c,d,71);
 1792              		.loc 1 241 56
 1793 0c80 B34D9D01 		xor	s11,s10,s9
 1794 0c84 B3CD6D01 		xor	s11,s11,s6
 1795 0c88 6295     		add	a0,s8,a0
 1796              		.loc 1 242 2
 1797 0c8a 3344E401 		xor	s0,s0,t5
 1798 0c8e 6E95     		add	a0,s11,a0
 1799 0c90 33445400 		xor	s0,s0,t0
 241:C:/Users/stapi/OneDrive/Desktop/GD32VW553/V1_MQTT_OK/GD32VW55X_Wifi_BLE_SDK/GD32VW55x_RELEASE_V1.0.2/MSDK/wpa_supplicant/src/crypto\sha1-internal.c **** 	R4(c,d,e,a,b,68); R4(b,c,d,e,a,69); R4(a,b,c,d,e,70); R4(e,a,b,c,d,71);
 1800              		.loc 1 241 56
 1801 0c94 B39DFA60 		rol	s11,s5,a5
 1802              		.loc 1 242 2
 1803 0c98 3314E460 		rol	s0,s0,a4
 241:C:/Users/stapi/OneDrive/Desktop/GD32VW553/V1_MQTT_OK/GD32VW55X_Wifi_BLE_SDK/GD32VW55x_RELEASE_V1.0.2/MSDK/wpa_supplicant/src/crypto\sha1-internal.c **** 	R4(c,d,e,a,b,68); R4(b,c,d,e,a,69); R4(a,b,c,d,e,70); R4(e,a,b,c,d,71);
 1804              		.loc 1 241 56
 1805 0c9c 6E95     		add	a0,s11,a0
 1806 0c9e 330C3401 		add	s8,s0,s3
 1807 0ca2 135B2B60 		rori	s6,s6,2
 1808              		.loc 1 242 20
 1809 0ca6 B3C3C301 		xor	t2,t2,t3
 1810              		.loc 1 242 2
 1811 0caa B3CD6C01 		xor	s11,s9,s6
 1812 0cae B3CD5D01 		xor	s11,s11,s5
 1813              		.loc 1 242 20
 1814 0cb2 B3C36300 		xor	t2,t2,t1
 1815 0cb6 629D     		add	s10,s8,s10
 1816 0cb8 6E9D     		add	s10,s11,s10
 1817 0cba B3C3D301 		xor	t2,t2,t4
 1818              		.loc 1 242 2
 1819 0cbe B31DF560 		rol	s11,a0,a5
 1820              		.loc 1 242 20
 1821 0cc2 B393E360 		rol	t2,t2,a4
 1822              		.loc 1 242 2
 1823 0cc6 6E9D     		add	s10,s11,s10
 1824 0cc8 338C3301 		add	s8,t2,s3
 1825              		.loc 1 242 38
 1826 0ccc B3CF0F01 		xor	t6,t6,a6
 1827              		.loc 1 242 2
 1828 0cd0 93DA2A60 		rori	s5,s5,2
 1829              		.loc 1 242 20
 1830 0cd4 B34D5B01 		xor	s11,s6,s5
 240:C:/Users/stapi/OneDrive/Desktop/GD32VW553/V1_MQTT_OK/GD32VW55X_Wifi_BLE_SDK/GD32VW55x_RELEASE_V1.0.2/MSDK/wpa_supplicant/src/crypto\sha1-internal.c **** 	R4(b,c,d,e,a,64); R4(a,b,c,d,e,65); R4(e,a,b,c,d,66); R4(d,e,a,b,c,67);
 1831              		.loc 1 240 38
 1832 0cd8 4AC4     		sw	s2,8(sp)
 1833              		.loc 1 242 20
 1834 0cda B3CDAD00 		xor	s11,s11,a0
 1835 0cde E29C     		add	s9,s8,s9
 1836              		.loc 1 242 38
 1837 0ce0 33C92F01 		xor	s2,t6,s2
 1838              		.loc 1 242 20
 1839 0ce4 13552560 		rori	a0,a0,2
 1840 0ce8 EE9C     		add	s9,s11,s9
 1841              		.loc 1 242 38
 1842 0cea B3CFAA00 		xor	t6,s5,a0
 1843              		.loc 1 242 20
 1844 0cee B31DFD60 		rol	s11,s10,a5
 1845              		.loc 1 242 38
 1846 0cf2 33491901 		xor	s2,s2,a7
 1847              		.loc 1 242 20
 1848 0cf6 EE9C     		add	s9,s11,s9
 1849              		.loc 1 242 38
 1850 0cf8 3319E960 		rol	s2,s2,a4
 1851 0cfc B3CDAF01 		xor	s11,t6,s10
 1852              		.loc 1 242 56
 1853 0d00 334EBE00 		xor	t3,t3,a1
 1854 0d04 B30F3901 		add	t6,s2,s3
 1855 0d08 7E9B     		add	s6,t6,s6
 1856 0d0a 334E9E00 		xor	t3,t3,s1
 1857 0d0e 334E8E00 		xor	t3,t3,s0
 1858              		.loc 1 242 38
 1859 0d12 B397FC60 		rol	a5,s9,a5
 1860 0d16 6E9B     		add	s6,s11,s6
 240:C:/Users/stapi/OneDrive/Desktop/GD32VW553/V1_MQTT_OK/GD32VW55X_Wifi_BLE_SDK/GD32VW55x_RELEASE_V1.0.2/MSDK/wpa_supplicant/src/crypto\sha1-internal.c **** 	R4(b,c,d,e,a,64); R4(a,b,c,d,e,65); R4(e,a,b,c,d,66); R4(d,e,a,b,c,67);
 1861              		.loc 1 240 20
 1862 0d18 1AC2     		sw	t1,4(sp)
 1863              		.loc 1 242 38
 1864 0d1a 3E9B     		add	s6,a5,s6
 243:C:/Users/stapi/OneDrive/Desktop/GD32VW553/V1_MQTT_OK/GD32VW55X_Wifi_BLE_SDK/GD32VW55x_RELEASE_V1.0.2/MSDK/wpa_supplicant/src/crypto\sha1-internal.c **** 	R4(e,a,b,c,d,76); R4(d,e,a,b,c,77); R4(c,d,e,a,b,78); R4(b,c,d,e,a,79);
 1865              		.loc 1 243 2
 1866 0d1c 3348D800 		xor	a6,a6,a3
 240:C:/Users/stapi/OneDrive/Desktop/GD32VW553/V1_MQTT_OK/GD32VW55X_Wifi_BLE_SDK/GD32VW55x_RELEASE_V1.0.2/MSDK/wpa_supplicant/src/crypto\sha1-internal.c **** 	R4(c,d,e,a,b,68); R4(b,c,d,e,a,69); R4(a,b,c,d,e,70); R4(e,a,b,c,d,71);
 1867              		.loc 1 240 2
 1868 0d20 7AC0     		sw	t5,0(sp)
 242:C:/Users/stapi/OneDrive/Desktop/GD32VW553/V1_MQTT_OK/GD32VW55X_Wifi_BLE_SDK/GD32VW55x_RELEASE_V1.0.2/MSDK/wpa_supplicant/src/crypto\sha1-internal.c **** 	R4(d,e,a,b,c,72); R4(c,d,e,a,b,73); R4(b,c,d,e,a,74); R4(a,b,c,d,e,75);
 1869              		.loc 1 242 38
 1870 0d22 135D2D60 		rori	s10,s10,2
 242:C:/Users/stapi/OneDrive/Desktop/GD32VW553/V1_MQTT_OK/GD32VW55X_Wifi_BLE_SDK/GD32VW55x_RELEASE_V1.0.2/MSDK/wpa_supplicant/src/crypto\sha1-internal.c **** 	R4(d,e,a,b,c,72); R4(c,d,e,a,b,73); R4(b,c,d,e,a,74); R4(a,b,c,d,e,75);
 1871              		.loc 1 242 56
 1872 0d26 3317EE60 		rol	a4,t3,a4
 1873 0d2a B347A501 		xor	a5,a0,s10
 1874 0d2e 330E3701 		add	t3,a4,s3
 240:C:/Users/stapi/OneDrive/Desktop/GD32VW553/V1_MQTT_OK/GD32VW55X_Wifi_BLE_SDK/GD32VW55x_RELEASE_V1.0.2/MSDK/wpa_supplicant/src/crypto\sha1-internal.c **** 	R4(c,d,e,a,b,68); R4(b,c,d,e,a,69); R4(a,b,c,d,e,70); R4(e,a,b,c,d,71);
 1875              		.loc 1 240 56
 1876 0d32 26C6     		sw	s1,12(sp)
 240:C:/Users/stapi/OneDrive/Desktop/GD32VW553/V1_MQTT_OK/GD32VW55X_Wifi_BLE_SDK/GD32VW55x_RELEASE_V1.0.2/MSDK/wpa_supplicant/src/crypto\sha1-internal.c **** 	R4(c,d,e,a,b,68); R4(b,c,d,e,a,69); R4(a,b,c,d,e,70); R4(e,a,b,c,d,71);
 1877              		.loc 1 240 56 is_stmt 1
 240:C:/Users/stapi/OneDrive/Desktop/GD32VW553/V1_MQTT_OK/GD32VW55X_Wifi_BLE_SDK/GD32VW55x_RELEASE_V1.0.2/MSDK/wpa_supplicant/src/crypto\sha1-internal.c **** 	R4(c,d,e,a,b,68); R4(b,c,d,e,a,69); R4(a,b,c,d,e,70); R4(e,a,b,c,d,71);
 1878              		.loc 1 240 72
 241:C:/Users/stapi/OneDrive/Desktop/GD32VW553/V1_MQTT_OK/GD32VW55X_Wifi_BLE_SDK/GD32VW55x_RELEASE_V1.0.2/MSDK/wpa_supplicant/src/crypto\sha1-internal.c **** 	R4(d,e,a,b,c,72); R4(c,d,e,a,b,73); R4(b,c,d,e,a,74); R4(a,b,c,d,e,75);
 1879              		.loc 1 241 2
 241:C:/Users/stapi/OneDrive/Desktop/GD32VW553/V1_MQTT_OK/GD32VW55X_Wifi_BLE_SDK/GD32VW55x_RELEASE_V1.0.2/MSDK/wpa_supplicant/src/crypto\sha1-internal.c **** 	R4(d,e,a,b,c,72); R4(c,d,e,a,b,73); R4(b,c,d,e,a,74); R4(a,b,c,d,e,75);
 1880              		.loc 1 241 2
 241:C:/Users/stapi/OneDrive/Desktop/GD32VW553/V1_MQTT_OK/GD32VW55X_Wifi_BLE_SDK/GD32VW55x_RELEASE_V1.0.2/MSDK/wpa_supplicant/src/crypto\sha1-internal.c **** 	R4(d,e,a,b,c,72); R4(c,d,e,a,b,73); R4(b,c,d,e,a,74); R4(a,b,c,d,e,75);
 1881              		.loc 1 241 18
 241:C:/Users/stapi/OneDrive/Desktop/GD32VW553/V1_MQTT_OK/GD32VW55X_Wifi_BLE_SDK/GD32VW55x_RELEASE_V1.0.2/MSDK/wpa_supplicant/src/crypto\sha1-internal.c **** 	R4(d,e,a,b,c,72); R4(c,d,e,a,b,73); R4(b,c,d,e,a,74); R4(a,b,c,d,e,75);
 1882              		.loc 1 241 20
 241:C:/Users/stapi/OneDrive/Desktop/GD32VW553/V1_MQTT_OK/GD32VW55X_Wifi_BLE_SDK/GD32VW55x_RELEASE_V1.0.2/MSDK/wpa_supplicant/src/crypto\sha1-internal.c **** 	R4(d,e,a,b,c,72); R4(c,d,e,a,b,73); R4(b,c,d,e,a,74); R4(a,b,c,d,e,75);
 1883              		.loc 1 241 20
 241:C:/Users/stapi/OneDrive/Desktop/GD32VW553/V1_MQTT_OK/GD32VW55X_Wifi_BLE_SDK/GD32VW55x_RELEASE_V1.0.2/MSDK/wpa_supplicant/src/crypto\sha1-internal.c **** 	R4(d,e,a,b,c,72); R4(c,d,e,a,b,73); R4(b,c,d,e,a,74); R4(a,b,c,d,e,75);
 1884              		.loc 1 241 36
 241:C:/Users/stapi/OneDrive/Desktop/GD32VW553/V1_MQTT_OK/GD32VW55X_Wifi_BLE_SDK/GD32VW55x_RELEASE_V1.0.2/MSDK/wpa_supplicant/src/crypto\sha1-internal.c **** 	R4(d,e,a,b,c,72); R4(c,d,e,a,b,73); R4(b,c,d,e,a,74); R4(a,b,c,d,e,75);
 1885              		.loc 1 241 38
 241:C:/Users/stapi/OneDrive/Desktop/GD32VW553/V1_MQTT_OK/GD32VW55X_Wifi_BLE_SDK/GD32VW55x_RELEASE_V1.0.2/MSDK/wpa_supplicant/src/crypto\sha1-internal.c **** 	R4(d,e,a,b,c,72); R4(c,d,e,a,b,73); R4(b,c,d,e,a,74); R4(a,b,c,d,e,75);
 1886              		.loc 1 241 38
 241:C:/Users/stapi/OneDrive/Desktop/GD32VW553/V1_MQTT_OK/GD32VW55X_Wifi_BLE_SDK/GD32VW55x_RELEASE_V1.0.2/MSDK/wpa_supplicant/src/crypto\sha1-internal.c **** 	R4(d,e,a,b,c,72); R4(c,d,e,a,b,73); R4(b,c,d,e,a,74); R4(a,b,c,d,e,75);
 1887              		.loc 1 241 54
 241:C:/Users/stapi/OneDrive/Desktop/GD32VW553/V1_MQTT_OK/GD32VW55X_Wifi_BLE_SDK/GD32VW55x_RELEASE_V1.0.2/MSDK/wpa_supplicant/src/crypto\sha1-internal.c **** 	R4(d,e,a,b,c,72); R4(c,d,e,a,b,73); R4(b,c,d,e,a,74); R4(a,b,c,d,e,75);
 1888              		.loc 1 241 56
 241:C:/Users/stapi/OneDrive/Desktop/GD32VW553/V1_MQTT_OK/GD32VW55X_Wifi_BLE_SDK/GD32VW55x_RELEASE_V1.0.2/MSDK/wpa_supplicant/src/crypto\sha1-internal.c **** 	R4(d,e,a,b,c,72); R4(c,d,e,a,b,73); R4(b,c,d,e,a,74); R4(a,b,c,d,e,75);
 1889              		.loc 1 241 56
 241:C:/Users/stapi/OneDrive/Desktop/GD32VW553/V1_MQTT_OK/GD32VW55X_Wifi_BLE_SDK/GD32VW55x_RELEASE_V1.0.2/MSDK/wpa_supplicant/src/crypto\sha1-internal.c **** 	R4(d,e,a,b,c,72); R4(c,d,e,a,b,73); R4(b,c,d,e,a,74); R4(a,b,c,d,e,75);
 1890              		.loc 1 241 72
 242:C:/Users/stapi/OneDrive/Desktop/GD32VW553/V1_MQTT_OK/GD32VW55X_Wifi_BLE_SDK/GD32VW55x_RELEASE_V1.0.2/MSDK/wpa_supplicant/src/crypto\sha1-internal.c **** 	R4(e,a,b,c,d,76); R4(d,e,a,b,c,77); R4(c,d,e,a,b,78); R4(b,c,d,e,a,79);
 1891              		.loc 1 242 2
 242:C:/Users/stapi/OneDrive/Desktop/GD32VW553/V1_MQTT_OK/GD32VW55X_Wifi_BLE_SDK/GD32VW55x_RELEASE_V1.0.2/MSDK/wpa_supplicant/src/crypto\sha1-internal.c **** 	R4(e,a,b,c,d,76); R4(d,e,a,b,c,77); R4(c,d,e,a,b,78); R4(b,c,d,e,a,79);
 1892              		.loc 1 242 2
 1893              	.LVL216:
 242:C:/Users/stapi/OneDrive/Desktop/GD32VW553/V1_MQTT_OK/GD32VW55X_Wifi_BLE_SDK/GD32VW55x_RELEASE_V1.0.2/MSDK/wpa_supplicant/src/crypto\sha1-internal.c **** 	R4(e,a,b,c,d,76); R4(d,e,a,b,c,77); R4(c,d,e,a,b,78); R4(b,c,d,e,a,79);
 1894              		.loc 1 242 18
 242:C:/Users/stapi/OneDrive/Desktop/GD32VW553/V1_MQTT_OK/GD32VW55X_Wifi_BLE_SDK/GD32VW55x_RELEASE_V1.0.2/MSDK/wpa_supplicant/src/crypto\sha1-internal.c **** 	R4(e,a,b,c,d,76); R4(d,e,a,b,c,77); R4(c,d,e,a,b,78); R4(b,c,d,e,a,79);
 1895              		.loc 1 242 20
 242:C:/Users/stapi/OneDrive/Desktop/GD32VW553/V1_MQTT_OK/GD32VW55X_Wifi_BLE_SDK/GD32VW55x_RELEASE_V1.0.2/MSDK/wpa_supplicant/src/crypto\sha1-internal.c **** 	R4(e,a,b,c,d,76); R4(d,e,a,b,c,77); R4(c,d,e,a,b,78); R4(b,c,d,e,a,79);
 1896              		.loc 1 242 20
 242:C:/Users/stapi/OneDrive/Desktop/GD32VW553/V1_MQTT_OK/GD32VW55X_Wifi_BLE_SDK/GD32VW55x_RELEASE_V1.0.2/MSDK/wpa_supplicant/src/crypto\sha1-internal.c **** 	R4(e,a,b,c,d,76); R4(d,e,a,b,c,77); R4(c,d,e,a,b,78); R4(b,c,d,e,a,79);
 1897              		.loc 1 242 36
 242:C:/Users/stapi/OneDrive/Desktop/GD32VW553/V1_MQTT_OK/GD32VW55X_Wifi_BLE_SDK/GD32VW55x_RELEASE_V1.0.2/MSDK/wpa_supplicant/src/crypto\sha1-internal.c **** 	R4(e,a,b,c,d,76); R4(d,e,a,b,c,77); R4(c,d,e,a,b,78); R4(b,c,d,e,a,79);
 1898              		.loc 1 242 38
 242:C:/Users/stapi/OneDrive/Desktop/GD32VW553/V1_MQTT_OK/GD32VW55X_Wifi_BLE_SDK/GD32VW55x_RELEASE_V1.0.2/MSDK/wpa_supplicant/src/crypto\sha1-internal.c **** 	R4(e,a,b,c,d,76); R4(d,e,a,b,c,77); R4(c,d,e,a,b,78); R4(b,c,d,e,a,79);
 1899              		.loc 1 242 38
 242:C:/Users/stapi/OneDrive/Desktop/GD32VW553/V1_MQTT_OK/GD32VW55X_Wifi_BLE_SDK/GD32VW55x_RELEASE_V1.0.2/MSDK/wpa_supplicant/src/crypto\sha1-internal.c **** 	R4(e,a,b,c,d,76); R4(d,e,a,b,c,77); R4(c,d,e,a,b,78); R4(b,c,d,e,a,79);
 1900              		.loc 1 242 54
 242:C:/Users/stapi/OneDrive/Desktop/GD32VW553/V1_MQTT_OK/GD32VW55X_Wifi_BLE_SDK/GD32VW55x_RELEASE_V1.0.2/MSDK/wpa_supplicant/src/crypto\sha1-internal.c **** 	R4(e,a,b,c,d,76); R4(d,e,a,b,c,77); R4(c,d,e,a,b,78); R4(b,c,d,e,a,79);
 1901              		.loc 1 242 56
 1902 0d34 F29A     		add	s5,t3,s5
 1903              	.LVL217:
 241:C:/Users/stapi/OneDrive/Desktop/GD32VW553/V1_MQTT_OK/GD32VW55X_Wifi_BLE_SDK/GD32VW55x_RELEASE_V1.0.2/MSDK/wpa_supplicant/src/crypto\sha1-internal.c **** 	R4(d,e,a,b,c,72); R4(c,d,e,a,b,73); R4(b,c,d,e,a,74); R4(a,b,c,d,e,75);
 1904              		.loc 1 241 2 is_stmt 0
 1905 0d36 06C8     		sw	ra,16(sp)
 242:C:/Users/stapi/OneDrive/Desktop/GD32VW553/V1_MQTT_OK/GD32VW55X_Wifi_BLE_SDK/GD32VW55x_RELEASE_V1.0.2/MSDK/wpa_supplicant/src/crypto\sha1-internal.c **** 	R4(e,a,b,c,d,76); R4(d,e,a,b,c,77); R4(c,d,e,a,b,78); R4(b,c,d,e,a,79);
 1906              		.loc 1 242 56
 1907 0d38 B3C79701 		xor	a5,a5,s9
 1908              		.loc 1 243 2
 1909 0d3c B3401800 		xor	ra,a6,ra
 239:C:/Users/stapi/OneDrive/Desktop/GD32VW553/V1_MQTT_OK/GD32VW55X_Wifi_BLE_SDK/GD32VW55x_RELEASE_V1.0.2/MSDK/wpa_supplicant/src/crypto\sha1-internal.c **** 	R4(b,c,d,e,a,64); R4(a,b,c,d,e,65); R4(e,a,b,c,d,66); R4(d,e,a,b,c,67);
 1910              		.loc 1 239 20
 1911 0d40 954B     		li	s7,5
 242:C:/Users/stapi/OneDrive/Desktop/GD32VW553/V1_MQTT_OK/GD32VW55X_Wifi_BLE_SDK/GD32VW55x_RELEASE_V1.0.2/MSDK/wpa_supplicant/src/crypto\sha1-internal.c **** 	R4(e,a,b,c,d,76); R4(d,e,a,b,c,77); R4(c,d,e,a,b,78); R4(b,c,d,e,a,79);
 1912              		.loc 1 242 2
 1913 0d42 22D0     		sw	s0,32(sp)
 242:C:/Users/stapi/OneDrive/Desktop/GD32VW553/V1_MQTT_OK/GD32VW55X_Wifi_BLE_SDK/GD32VW55x_RELEASE_V1.0.2/MSDK/wpa_supplicant/src/crypto\sha1-internal.c **** 	R4(e,a,b,c,d,76); R4(d,e,a,b,c,77); R4(c,d,e,a,b,78); R4(b,c,d,e,a,79);
 1914              		.loc 1 242 20
 1915 0d44 1ED2     		sw	t2,36(sp)
 1916              		.loc 1 243 2
 1917 0d46 0544     		li	s0,1
 1918 0d48 D697     		add	a5,a5,s5
 1919 0d4a B3C37000 		xor	t2,ra,t2
 242:C:/Users/stapi/OneDrive/Desktop/GD32VW553/V1_MQTT_OK/GD32VW55X_Wifi_BLE_SDK/GD32VW55x_RELEASE_V1.0.2/MSDK/wpa_supplicant/src/crypto\sha1-internal.c **** 	R4(e,a,b,c,d,76); R4(d,e,a,b,c,77); R4(c,d,e,a,b,78); R4(b,c,d,e,a,79);
 1920              		.loc 1 242 56
 1921 0d4e 93DC2C60 		rori	s9,s9,2
 1922              	.LVL218:
 1923              		.loc 1 243 2
 1924 0d52 B3938360 		rol	t2,t2,s0
 1925              		.loc 1 243 20
 1926 0d56 B18D     		xor	a1,a1,a2
 1927 0d58 33883301 		add	a6,t2,s3
 242:C:/Users/stapi/OneDrive/Desktop/GD32VW553/V1_MQTT_OK/GD32VW55X_Wifi_BLE_SDK/GD32VW55x_RELEASE_V1.0.2/MSDK/wpa_supplicant/src/crypto\sha1-internal.c **** 	R4(e,a,b,c,d,76); R4(d,e,a,b,c,77); R4(c,d,e,a,b,78); R4(b,c,d,e,a,79);
 1928              		.loc 1 242 56
 1929 0d5c B31A7B61 		rol	s5,s6,s7
 1930 0d60 BE9A     		add	s5,s5,a5
 1931              	.LVL219:
 242:C:/Users/stapi/OneDrive/Desktop/GD32VW553/V1_MQTT_OK/GD32VW55X_Wifi_BLE_SDK/GD32VW55x_RELEASE_V1.0.2/MSDK/wpa_supplicant/src/crypto\sha1-internal.c **** 	R4(e,a,b,c,d,76); R4(d,e,a,b,c,77); R4(c,d,e,a,b,78); R4(b,c,d,e,a,79);
 1932              		.loc 1 242 56 is_stmt 1
 242:C:/Users/stapi/OneDrive/Desktop/GD32VW553/V1_MQTT_OK/GD32VW55X_Wifi_BLE_SDK/GD32VW55x_RELEASE_V1.0.2/MSDK/wpa_supplicant/src/crypto\sha1-internal.c **** 	R4(e,a,b,c,d,76); R4(d,e,a,b,c,77); R4(c,d,e,a,b,78); R4(b,c,d,e,a,79);
 1933              		.loc 1 242 72
 1934              		.loc 1 243 2
 1935 0d62 B3479D01 		xor	a5,s10,s9
 241:C:/Users/stapi/OneDrive/Desktop/GD32VW553/V1_MQTT_OK/GD32VW55X_Wifi_BLE_SDK/GD32VW55x_RELEASE_V1.0.2/MSDK/wpa_supplicant/src/crypto\sha1-internal.c **** 	R4(d,e,a,b,c,72); R4(c,d,e,a,b,73); R4(b,c,d,e,a,74); R4(a,b,c,d,e,75);
 1936              		.loc 1 241 20 is_stmt 0
 1937 0d66 16CA     		sw	t0,20(sp)
 1938              		.loc 1 243 2
 1939 0d68 B3C76701 		xor	a5,a5,s6
 1940              		.loc 1 243 20
 1941 0d6c B3C25500 		xor	t0,a1,t0
 1942 0d70 4295     		add	a0,a6,a0
 1943              	.LVL220:
 242:C:/Users/stapi/OneDrive/Desktop/GD32VW553/V1_MQTT_OK/GD32VW55X_Wifi_BLE_SDK/GD32VW55x_RELEASE_V1.0.2/MSDK/wpa_supplicant/src/crypto\sha1-internal.c **** 	R4(e,a,b,c,d,76); R4(d,e,a,b,c,77); R4(c,d,e,a,b,78); R4(b,c,d,e,a,79);
 1944              		.loc 1 242 38
 1945 0d72 4AD4     		sw	s2,40(sp)
 1946 0d74 3E95     		add	a0,a5,a0
 1947              		.loc 1 243 20
 1948 0d76 33C92201 		xor	s2,t0,s2
 1949              		.loc 1 243 2
 1950 0d7a B3977A61 		rol	a5,s5,s7
 1951 0d7e 135B2B60 		rori	s6,s6,2
 1952              	.LVL221:
 1953 0d82 3E95     		add	a0,a5,a0
 1954              	.LVL222:
 1955              		.loc 1 243 2 is_stmt 1
 1956              		.loc 1 243 18
 1957              		.loc 1 243 20
 1958 0d84 33198960 		rol	s2,s2,s0
 1959 0d88 B3C76C01 		xor	a5,s9,s6
 1960 0d8c 4ADA     		sw	s2,52(sp)
 1961 0d8e 4E99     		add	s2,s2,s3
 1962 0d90 B3C75701 		xor	a5,a5,s5
 1963 0d94 4A9D     		add	s10,s2,s10
 1964              	.LVL223:
 1965              		.loc 1 243 38 is_stmt 0
 1966 0d96 33CFE601 		xor	t5,a3,t5
 1967 0d9a 3E9D     		add	s10,a5,s10
 244:C:/Users/stapi/OneDrive/Desktop/GD32VW553/V1_MQTT_OK/GD32VW55X_Wifi_BLE_SDK/GD32VW55x_RELEASE_V1.0.2/MSDK/wpa_supplicant/src/crypto\sha1-internal.c **** 	/* Add the working vars back into context.state[] */
 245:C:/Users/stapi/OneDrive/Desktop/GD32VW553/V1_MQTT_OK/GD32VW55X_Wifi_BLE_SDK/GD32VW55x_RELEASE_V1.0.2/MSDK/wpa_supplicant/src/crypto\sha1-internal.c **** 	state[0] += a;
 1968              		.loc 1 245 11
 1969 0d9c 83270A00 		lw	a5,0(s4)
 241:C:/Users/stapi/OneDrive/Desktop/GD32VW553/V1_MQTT_OK/GD32VW55X_Wifi_BLE_SDK/GD32VW55x_RELEASE_V1.0.2/MSDK/wpa_supplicant/src/crypto\sha1-internal.c **** 	R4(d,e,a,b,c,72); R4(c,d,e,a,b,73); R4(b,c,d,e,a,74); R4(a,b,c,d,e,75);
 1970              		.loc 1 241 38
 1971 0da0 76CC     		sw	t4,24(sp)
 243:C:/Users/stapi/OneDrive/Desktop/GD32VW553/V1_MQTT_OK/GD32VW55X_Wifi_BLE_SDK/GD32VW55x_RELEASE_V1.0.2/MSDK/wpa_supplicant/src/crypto\sha1-internal.c **** 	/* Add the working vars back into context.state[] */
 1972              		.loc 1 243 56
 1973 0da2 33466600 		xor	a2,a2,t1
 243:C:/Users/stapi/OneDrive/Desktop/GD32VW553/V1_MQTT_OK/GD32VW55X_Wifi_BLE_SDK/GD32VW55x_RELEASE_V1.0.2/MSDK/wpa_supplicant/src/crypto\sha1-internal.c **** 	/* Add the working vars back into context.state[] */
 1974              		.loc 1 243 38
 1975 0da6 B34EDF01 		xor	t4,t5,t4
 241:C:/Users/stapi/OneDrive/Desktop/GD32VW553/V1_MQTT_OK/GD32VW55X_Wifi_BLE_SDK/GD32VW55x_RELEASE_V1.0.2/MSDK/wpa_supplicant/src/crypto\sha1-internal.c **** 	R4(d,e,a,b,c,72); R4(c,d,e,a,b,73); R4(b,c,d,e,a,74); R4(a,b,c,d,e,75);
 1976              		.loc 1 241 56
 1977 0daa 46CE     		sw	a7,28(sp)
 242:C:/Users/stapi/OneDrive/Desktop/GD32VW553/V1_MQTT_OK/GD32VW55X_Wifi_BLE_SDK/GD32VW55x_RELEASE_V1.0.2/MSDK/wpa_supplicant/src/crypto\sha1-internal.c **** 	R4(e,a,b,c,d,76); R4(d,e,a,b,c,77); R4(c,d,e,a,b,78); R4(b,c,d,e,a,79);
 1978              		.loc 1 242 56
 1979 0dac 3AD6     		sw	a4,44(sp)
 243:C:/Users/stapi/OneDrive/Desktop/GD32VW553/V1_MQTT_OK/GD32VW55X_Wifi_BLE_SDK/GD32VW55x_RELEASE_V1.0.2/MSDK/wpa_supplicant/src/crypto\sha1-internal.c **** 	/* Add the working vars back into context.state[] */
 1980              		.loc 1 243 56
 1981 0dae B3481601 		xor	a7,a2,a7
 243:C:/Users/stapi/OneDrive/Desktop/GD32VW553/V1_MQTT_OK/GD32VW55X_Wifi_BLE_SDK/GD32VW55x_RELEASE_V1.0.2/MSDK/wpa_supplicant/src/crypto\sha1-internal.c **** 	/* Add the working vars back into context.state[] */
 1982              		.loc 1 243 38
 1983 0db2 33C7EE00 		xor	a4,t4,a4
 243:C:/Users/stapi/OneDrive/Desktop/GD32VW553/V1_MQTT_OK/GD32VW55X_Wifi_BLE_SDK/GD32VW55x_RELEASE_V1.0.2/MSDK/wpa_supplicant/src/crypto\sha1-internal.c **** 	/* Add the working vars back into context.state[] */
 1984              		.loc 1 243 2
 1985 0db6 1ED8     		sw	t2,48(sp)
 243:C:/Users/stapi/OneDrive/Desktop/GD32VW553/V1_MQTT_OK/GD32VW55X_Wifi_BLE_SDK/GD32VW55x_RELEASE_V1.0.2/MSDK/wpa_supplicant/src/crypto\sha1-internal.c **** 	/* Add the working vars back into context.state[] */
 1986              		.loc 1 243 20
 1987 0db8 93DA2A60 		rori	s5,s5,2
 1988              	.LVL224:
 243:C:/Users/stapi/OneDrive/Desktop/GD32VW553/V1_MQTT_OK/GD32VW55X_Wifi_BLE_SDK/GD32VW55x_RELEASE_V1.0.2/MSDK/wpa_supplicant/src/crypto\sha1-internal.c **** 	/* Add the working vars back into context.state[] */
 1989              		.loc 1 243 56
 1990 0dbc B3C37800 		xor	t2,a7,t2
 243:C:/Users/stapi/OneDrive/Desktop/GD32VW553/V1_MQTT_OK/GD32VW55X_Wifi_BLE_SDK/GD32VW55x_RELEASE_V1.0.2/MSDK/wpa_supplicant/src/crypto\sha1-internal.c **** 	/* Add the working vars back into context.state[] */
 1991              		.loc 1 243 38
 1992 0dc0 B34D5B01 		xor	s11,s6,s5
 1993 0dc4 33178760 		rol	a4,a4,s0
 1994 0dc8 3ADC     		sw	a4,56(sp)
 1995 0dca 4E97     		add	a4,a4,s3
 1996              		.loc 1 245 11
 1997 0dcc BE99     		add	s3,a5,s3
 243:C:/Users/stapi/OneDrive/Desktop/GD32VW553/V1_MQTT_OK/GD32VW55X_Wifi_BLE_SDK/GD32VW55x_RELEASE_V1.0.2/MSDK/wpa_supplicant/src/crypto\sha1-internal.c **** 	/* Add the working vars back into context.state[] */
 1998              		.loc 1 243 20
 1999 0dce 33197561 		rol	s2,a0,s7
 243:C:/Users/stapi/OneDrive/Desktop/GD32VW553/V1_MQTT_OK/GD32VW55X_Wifi_BLE_SDK/GD32VW55x_RELEASE_V1.0.2/MSDK/wpa_supplicant/src/crypto\sha1-internal.c **** 	/* Add the working vars back into context.state[] */
 2000              		.loc 1 243 56
 2001 0dd2 339C8360 		rol	s8,t2,s0
 243:C:/Users/stapi/OneDrive/Desktop/GD32VW553/V1_MQTT_OK/GD32VW55X_Wifi_BLE_SDK/GD32VW55x_RELEASE_V1.0.2/MSDK/wpa_supplicant/src/crypto\sha1-internal.c **** 	/* Add the working vars back into context.state[] */
 2002              		.loc 1 243 20
 2003 0dd6 4A9D     		add	s10,s2,s10
 2004              	.LVL225:
 243:C:/Users/stapi/OneDrive/Desktop/GD32VW553/V1_MQTT_OK/GD32VW55X_Wifi_BLE_SDK/GD32VW55x_RELEASE_V1.0.2/MSDK/wpa_supplicant/src/crypto\sha1-internal.c **** 	/* Add the working vars back into context.state[] */
 2005              		.loc 1 243 20 is_stmt 1
 243:C:/Users/stapi/OneDrive/Desktop/GD32VW553/V1_MQTT_OK/GD32VW55X_Wifi_BLE_SDK/GD32VW55x_RELEASE_V1.0.2/MSDK/wpa_supplicant/src/crypto\sha1-internal.c **** 	/* Add the working vars back into context.state[] */
 2006              		.loc 1 243 36
 243:C:/Users/stapi/OneDrive/Desktop/GD32VW553/V1_MQTT_OK/GD32VW55X_Wifi_BLE_SDK/GD32VW55x_RELEASE_V1.0.2/MSDK/wpa_supplicant/src/crypto\sha1-internal.c **** 	/* Add the working vars back into context.state[] */
 2007              		.loc 1 243 38
 2008 0dd8 B3CDAD00 		xor	s11,s11,a0
 2009              		.loc 1 245 11 is_stmt 0
 2010 0ddc E299     		add	s3,s3,s8
 243:C:/Users/stapi/OneDrive/Desktop/GD32VW553/V1_MQTT_OK/GD32VW55X_Wifi_BLE_SDK/GD32VW55x_RELEASE_V1.0.2/MSDK/wpa_supplicant/src/crypto\sha1-internal.c **** 	/* Add the working vars back into context.state[] */
 2011              		.loc 1 243 38
 2012 0dde 13552560 		rori	a0,a0,2
 2013              	.LVL226:
 243:C:/Users/stapi/OneDrive/Desktop/GD32VW553/V1_MQTT_OK/GD32VW55X_Wifi_BLE_SDK/GD32VW55x_RELEASE_V1.0.2/MSDK/wpa_supplicant/src/crypto\sha1-internal.c **** 	/* Add the working vars back into context.state[] */
 2014              		.loc 1 243 56
 2015 0de2 B3C7AA00 		xor	a5,s5,a0
 2016 0de6 B3C7A701 		xor	a5,a5,s10
 2017              		.loc 1 245 11
 2018 0dea 4E9B     		add	s6,s3,s6
 2019              	.LVL227:
 2020 0dec 3E9B     		add	s6,s6,a5
 2021 0dee 6697     		add	a4,a4,s9
 246:C:/Users/stapi/OneDrive/Desktop/GD32VW553/V1_MQTT_OK/GD32VW55X_Wifi_BLE_SDK/GD32VW55x_RELEASE_V1.0.2/MSDK/wpa_supplicant/src/crypto\sha1-internal.c **** 	state[1] += b;
 2022              		.loc 1 246 11
 2023 0df0 83274A00 		lw	a5,4(s4)
 2024 0df4 6E97     		add	a4,s11,a4
 243:C:/Users/stapi/OneDrive/Desktop/GD32VW553/V1_MQTT_OK/GD32VW55X_Wifi_BLE_SDK/GD32VW55x_RELEASE_V1.0.2/MSDK/wpa_supplicant/src/crypto\sha1-internal.c **** 	/* Add the working vars back into context.state[] */
 2025              		.loc 1 243 38
 2026 0df6 B31C7D61 		rol	s9,s10,s7
 2027              	.LVL228:
 2028 0dfa 6697     		add	a4,s9,a4
 2029              	.LVL229:
 243:C:/Users/stapi/OneDrive/Desktop/GD32VW553/V1_MQTT_OK/GD32VW55X_Wifi_BLE_SDK/GD32VW55x_RELEASE_V1.0.2/MSDK/wpa_supplicant/src/crypto\sha1-internal.c **** 	/* Add the working vars back into context.state[] */
 2030              		.loc 1 243 38 is_stmt 1
 243:C:/Users/stapi/OneDrive/Desktop/GD32VW553/V1_MQTT_OK/GD32VW55X_Wifi_BLE_SDK/GD32VW55x_RELEASE_V1.0.2/MSDK/wpa_supplicant/src/crypto\sha1-internal.c **** 	/* Add the working vars back into context.state[] */
 2031              		.loc 1 243 54
 243:C:/Users/stapi/OneDrive/Desktop/GD32VW553/V1_MQTT_OK/GD32VW55X_Wifi_BLE_SDK/GD32VW55x_RELEASE_V1.0.2/MSDK/wpa_supplicant/src/crypto\sha1-internal.c **** 	/* Add the working vars back into context.state[] */
 2032              		.loc 1 243 56
 2033 0dfc B31B7761 		rol	s7,a4,s7
 2034              		.loc 1 246 11 is_stmt 0
 2035 0e00 3E97     		add	a4,a5,a4
 2036              	.LVL230:
 247:C:/Users/stapi/OneDrive/Desktop/GD32VW553/V1_MQTT_OK/GD32VW55X_Wifi_BLE_SDK/GD32VW55x_RELEASE_V1.0.2/MSDK/wpa_supplicant/src/crypto\sha1-internal.c **** 	state[2] += c;
 2037              		.loc 1 247 11
 2038 0e02 83278A00 		lw	a5,8(s4)
 243:C:/Users/stapi/OneDrive/Desktop/GD32VW553/V1_MQTT_OK/GD32VW55X_Wifi_BLE_SDK/GD32VW55x_RELEASE_V1.0.2/MSDK/wpa_supplicant/src/crypto\sha1-internal.c **** 	/* Add the working vars back into context.state[] */
 2039              		.loc 1 243 56
 2040 0e06 135D2D60 		rori	s10,s10,2
 2041              	.LVL231:
 245:C:/Users/stapi/OneDrive/Desktop/GD32VW553/V1_MQTT_OK/GD32VW55X_Wifi_BLE_SDK/GD32VW55x_RELEASE_V1.0.2/MSDK/wpa_supplicant/src/crypto\sha1-internal.c **** 	state[1] += b;
 2042              		.loc 1 245 11
 2043 0e0a DA9B     		add	s7,s6,s7
 2044              		.loc 1 247 11
 2045 0e0c 3E9D     		add	s10,s10,a5
 248:C:/Users/stapi/OneDrive/Desktop/GD32VW553/V1_MQTT_OK/GD32VW55X_Wifi_BLE_SDK/GD32VW55x_RELEASE_V1.0.2/MSDK/wpa_supplicant/src/crypto\sha1-internal.c **** 	state[3] += d;
 2046              		.loc 1 248 11
 2047 0e0e 8327CA00 		lw	a5,12(s4)
 245:C:/Users/stapi/OneDrive/Desktop/GD32VW553/V1_MQTT_OK/GD32VW55X_Wifi_BLE_SDK/GD32VW55x_RELEASE_V1.0.2/MSDK/wpa_supplicant/src/crypto\sha1-internal.c **** 	state[1] += b;
 2048              		.loc 1 245 11
 2049 0e12 23207A01 		sw	s7,0(s4)
 246:C:/Users/stapi/OneDrive/Desktop/GD32VW553/V1_MQTT_OK/GD32VW55X_Wifi_BLE_SDK/GD32VW55x_RELEASE_V1.0.2/MSDK/wpa_supplicant/src/crypto\sha1-internal.c **** 	state[2] += c;
 2050              		.loc 1 246 11
 2051 0e16 2322EA00 		sw	a4,4(s4)
 2052              		.loc 1 248 11
 2053 0e1a 3E95     		add	a0,a5,a0
 2054              	.LVL232:
 249:C:/Users/stapi/OneDrive/Desktop/GD32VW553/V1_MQTT_OK/GD32VW55X_Wifi_BLE_SDK/GD32VW55x_RELEASE_V1.0.2/MSDK/wpa_supplicant/src/crypto\sha1-internal.c **** 	state[4] += e;
 2055              		.loc 1 249 11
 2056 0e1c 83270A01 		lw	a5,16(s4)
 248:C:/Users/stapi/OneDrive/Desktop/GD32VW553/V1_MQTT_OK/GD32VW55X_Wifi_BLE_SDK/GD32VW55x_RELEASE_V1.0.2/MSDK/wpa_supplicant/src/crypto\sha1-internal.c **** 	state[3] += d;
 2057              		.loc 1 248 11
 2058 0e20 2326AA00 		sw	a0,12(s4)
 247:C:/Users/stapi/OneDrive/Desktop/GD32VW553/V1_MQTT_OK/GD32VW55X_Wifi_BLE_SDK/GD32VW55x_RELEASE_V1.0.2/MSDK/wpa_supplicant/src/crypto\sha1-internal.c **** 	state[3] += d;
 2059              		.loc 1 247 11
 2060 0e24 2324AA01 		sw	s10,8(s4)
 2061              		.loc 1 249 11
 2062 0e28 BE9A     		add	s5,a5,s5
 2063              	.LVL233:
 250:C:/Users/stapi/OneDrive/Desktop/GD32VW553/V1_MQTT_OK/GD32VW55X_Wifi_BLE_SDK/GD32VW55x_RELEASE_V1.0.2/MSDK/wpa_supplicant/src/crypto\sha1-internal.c **** 	/* Wipe variables */
 251:C:/Users/stapi/OneDrive/Desktop/GD32VW553/V1_MQTT_OK/GD32VW55X_Wifi_BLE_SDK/GD32VW55x_RELEASE_V1.0.2/MSDK/wpa_supplicant/src/crypto\sha1-internal.c **** 	a = b = c = d = e = 0;
 252:C:/Users/stapi/OneDrive/Desktop/GD32VW553/V1_MQTT_OK/GD32VW55X_Wifi_BLE_SDK/GD32VW55x_RELEASE_V1.0.2/MSDK/wpa_supplicant/src/crypto\sha1-internal.c **** #ifdef SHA1HANDSOFF
 253:C:/Users/stapi/OneDrive/Desktop/GD32VW553/V1_MQTT_OK/GD32VW55X_Wifi_BLE_SDK/GD32VW55x_RELEASE_V1.0.2/MSDK/wpa_supplicant/src/crypto\sha1-internal.c **** 	forced_memzero(block, 64);
 2064              		.loc 1 253 2
 2065 0e2a 0A85     		mv	a0,sp
 249:C:/Users/stapi/OneDrive/Desktop/GD32VW553/V1_MQTT_OK/GD32VW55X_Wifi_BLE_SDK/GD32VW55x_RELEASE_V1.0.2/MSDK/wpa_supplicant/src/crypto\sha1-internal.c **** 	/* Wipe variables */
 2066              		.loc 1 249 11
 2067 0e2c 23285A01 		sw	s5,16(s4)
 2068              		.loc 1 253 2
 2069 0e30 93050004 		li	a1,64
 243:C:/Users/stapi/OneDrive/Desktop/GD32VW553/V1_MQTT_OK/GD32VW55X_Wifi_BLE_SDK/GD32VW55x_RELEASE_V1.0.2/MSDK/wpa_supplicant/src/crypto\sha1-internal.c **** 	/* Add the working vars back into context.state[] */
 2070              		.loc 1 243 56
 2071 0e34 62DE     		sw	s8,60(sp)
 243:C:/Users/stapi/OneDrive/Desktop/GD32VW553/V1_MQTT_OK/GD32VW55X_Wifi_BLE_SDK/GD32VW55x_RELEASE_V1.0.2/MSDK/wpa_supplicant/src/crypto\sha1-internal.c **** 	/* Add the working vars back into context.state[] */
 2072              		.loc 1 243 56 is_stmt 1
 243:C:/Users/stapi/OneDrive/Desktop/GD32VW553/V1_MQTT_OK/GD32VW55X_Wifi_BLE_SDK/GD32VW55x_RELEASE_V1.0.2/MSDK/wpa_supplicant/src/crypto\sha1-internal.c **** 	/* Add the working vars back into context.state[] */
 2073              		.loc 1 243 72
 245:C:/Users/stapi/OneDrive/Desktop/GD32VW553/V1_MQTT_OK/GD32VW55X_Wifi_BLE_SDK/GD32VW55x_RELEASE_V1.0.2/MSDK/wpa_supplicant/src/crypto\sha1-internal.c **** 	state[1] += b;
 2074              		.loc 1 245 2
 246:C:/Users/stapi/OneDrive/Desktop/GD32VW553/V1_MQTT_OK/GD32VW55X_Wifi_BLE_SDK/GD32VW55x_RELEASE_V1.0.2/MSDK/wpa_supplicant/src/crypto\sha1-internal.c **** 	state[2] += c;
 2075              		.loc 1 246 2
 247:C:/Users/stapi/OneDrive/Desktop/GD32VW553/V1_MQTT_OK/GD32VW55X_Wifi_BLE_SDK/GD32VW55x_RELEASE_V1.0.2/MSDK/wpa_supplicant/src/crypto\sha1-internal.c **** 	state[3] += d;
 2076              		.loc 1 247 2
 248:C:/Users/stapi/OneDrive/Desktop/GD32VW553/V1_MQTT_OK/GD32VW55X_Wifi_BLE_SDK/GD32VW55x_RELEASE_V1.0.2/MSDK/wpa_supplicant/src/crypto\sha1-internal.c **** 	state[4] += e;
 2077              		.loc 1 248 2
 249:C:/Users/stapi/OneDrive/Desktop/GD32VW553/V1_MQTT_OK/GD32VW55X_Wifi_BLE_SDK/GD32VW55x_RELEASE_V1.0.2/MSDK/wpa_supplicant/src/crypto\sha1-internal.c **** 	/* Wipe variables */
 2078              		.loc 1 249 2
 251:C:/Users/stapi/OneDrive/Desktop/GD32VW553/V1_MQTT_OK/GD32VW55X_Wifi_BLE_SDK/GD32VW55x_RELEASE_V1.0.2/MSDK/wpa_supplicant/src/crypto\sha1-internal.c **** #ifdef SHA1HANDSOFF
 2079              		.loc 1 251 2
 2080              	.LVL234:
 2081              		.loc 1 253 2
 2082 0e36 97000000 		call	forced_memzero
 2082      E7800000 
 2083              	.LVL235:
 254:C:/Users/stapi/OneDrive/Desktop/GD32VW553/V1_MQTT_OK/GD32VW55X_Wifi_BLE_SDK/GD32VW55x_RELEASE_V1.0.2/MSDK/wpa_supplicant/src/crypto\sha1-internal.c **** #endif
 255:C:/Users/stapi/OneDrive/Desktop/GD32VW553/V1_MQTT_OK/GD32VW55X_Wifi_BLE_SDK/GD32VW55x_RELEASE_V1.0.2/MSDK/wpa_supplicant/src/crypto\sha1-internal.c **** }
 2084              		.loc 1 255 1 is_stmt 0
 2085 0e3e 2161     		addi	sp,sp,64
 2086              		.cfi_def_cfa_offset 0
 2087              	.LVL236:
 2088 0e40 17030000 		tail	__riscv_restore_12
 2088      67000300 
 2089              		.cfi_restore 27
 2090              		.cfi_restore 26
 2091              		.cfi_restore 25
 2092              		.cfi_restore 24
 2093              		.cfi_restore 23
 2094              		.cfi_restore 22
 2095              		.cfi_restore 21
 2096              		.cfi_restore 20
 2097              		.cfi_restore 19
 2098              		.cfi_restore 18
 2099              		.cfi_restore 9
 2100              		.cfi_restore 8
 2101              		.cfi_restore 1
 2102              		.cfi_def_cfa_offset -64
 2103              		.cfi_endproc
 2104              	.LFE433:
 2106              		.section	.text.SHA1Init,"ax",@progbits
 2107              		.align	1
 2108              		.globl	SHA1Init
 2110              	SHA1Init:
 2111              	.LFB434:
 256:C:/Users/stapi/OneDrive/Desktop/GD32VW553/V1_MQTT_OK/GD32VW55X_Wifi_BLE_SDK/GD32VW55x_RELEASE_V1.0.2/MSDK/wpa_supplicant/src/crypto\sha1-internal.c **** 
 257:C:/Users/stapi/OneDrive/Desktop/GD32VW553/V1_MQTT_OK/GD32VW55X_Wifi_BLE_SDK/GD32VW55x_RELEASE_V1.0.2/MSDK/wpa_supplicant/src/crypto\sha1-internal.c **** 
 258:C:/Users/stapi/OneDrive/Desktop/GD32VW553/V1_MQTT_OK/GD32VW55X_Wifi_BLE_SDK/GD32VW55x_RELEASE_V1.0.2/MSDK/wpa_supplicant/src/crypto\sha1-internal.c **** /* SHA1Init - Initialize new context */
 259:C:/Users/stapi/OneDrive/Desktop/GD32VW553/V1_MQTT_OK/GD32VW55X_Wifi_BLE_SDK/GD32VW55x_RELEASE_V1.0.2/MSDK/wpa_supplicant/src/crypto\sha1-internal.c **** 
 260:C:/Users/stapi/OneDrive/Desktop/GD32VW553/V1_MQTT_OK/GD32VW55X_Wifi_BLE_SDK/GD32VW55x_RELEASE_V1.0.2/MSDK/wpa_supplicant/src/crypto\sha1-internal.c **** void SHA1Init(SHA1_CTX* context)
 261:C:/Users/stapi/OneDrive/Desktop/GD32VW553/V1_MQTT_OK/GD32VW55X_Wifi_BLE_SDK/GD32VW55x_RELEASE_V1.0.2/MSDK/wpa_supplicant/src/crypto\sha1-internal.c **** {
 2112              		.loc 1 261 1 is_stmt 1
 2113              		.cfi_startproc
 2114              	.LVL237:
 262:C:/Users/stapi/OneDrive/Desktop/GD32VW553/V1_MQTT_OK/GD32VW55X_Wifi_BLE_SDK/GD32VW55x_RELEASE_V1.0.2/MSDK/wpa_supplicant/src/crypto\sha1-internal.c **** 	/* SHA1 initialization constants */
 263:C:/Users/stapi/OneDrive/Desktop/GD32VW553/V1_MQTT_OK/GD32VW55X_Wifi_BLE_SDK/GD32VW55x_RELEASE_V1.0.2/MSDK/wpa_supplicant/src/crypto\sha1-internal.c **** 	context->state[0] = 0x67452301;
 2115              		.loc 1 263 2
 2116              		.loc 1 263 20 is_stmt 0
 2117 0000 B7274567 		li	a5,1732583424
 2118 0004 93871730 		addi	a5,a5,769
 2119 0008 1CC1     		sw	a5,0(a0)
 264:C:/Users/stapi/OneDrive/Desktop/GD32VW553/V1_MQTT_OK/GD32VW55X_Wifi_BLE_SDK/GD32VW55x_RELEASE_V1.0.2/MSDK/wpa_supplicant/src/crypto\sha1-internal.c **** 	context->state[1] = 0xEFCDAB89;
 2120              		.loc 1 264 2 is_stmt 1
 2121              		.loc 1 264 20 is_stmt 0
 2122 000a B7B7CDEF 		li	a5,-271732736
 2123 000e 938797B8 		addi	a5,a5,-1143
 2124 0012 5CC1     		sw	a5,4(a0)
 265:C:/Users/stapi/OneDrive/Desktop/GD32VW553/V1_MQTT_OK/GD32VW55X_Wifi_BLE_SDK/GD32VW55x_RELEASE_V1.0.2/MSDK/wpa_supplicant/src/crypto\sha1-internal.c **** 	context->state[2] = 0x98BADCFE;
 2125              		.loc 1 265 2 is_stmt 1
 2126              		.loc 1 265 20 is_stmt 0
 2127 0014 B7E7BA98 		li	a5,-1732583424
 2128 0018 9387E7CF 		addi	a5,a5,-770
 2129 001c 1CC5     		sw	a5,8(a0)
 266:C:/Users/stapi/OneDrive/Desktop/GD32VW553/V1_MQTT_OK/GD32VW55X_Wifi_BLE_SDK/GD32VW55x_RELEASE_V1.0.2/MSDK/wpa_supplicant/src/crypto\sha1-internal.c **** 	context->state[3] = 0x10325476;
 2130              		.loc 1 266 2 is_stmt 1
 2131              		.loc 1 266 20 is_stmt 0
 2132 001e B7573210 		li	a5,271732736
 2133 0022 93876747 		addi	a5,a5,1142
 2134 0026 5CC5     		sw	a5,12(a0)
 267:C:/Users/stapi/OneDrive/Desktop/GD32VW553/V1_MQTT_OK/GD32VW55X_Wifi_BLE_SDK/GD32VW55x_RELEASE_V1.0.2/MSDK/wpa_supplicant/src/crypto\sha1-internal.c **** 	context->state[4] = 0xC3D2E1F0;
 2135              		.loc 1 267 2 is_stmt 1
 2136              		.loc 1 267 20 is_stmt 0
 2137 0028 B7E7D2C3 		li	a5,-1009590272
 2138 002c 9387071F 		addi	a5,a5,496
 2139 0030 1CC9     		sw	a5,16(a0)
 268:C:/Users/stapi/OneDrive/Desktop/GD32VW553/V1_MQTT_OK/GD32VW55X_Wifi_BLE_SDK/GD32VW55x_RELEASE_V1.0.2/MSDK/wpa_supplicant/src/crypto\sha1-internal.c **** 	context->count[0] = context->count[1] = 0;
 2140              		.loc 1 268 2 is_stmt 1
 2141              		.loc 1 268 40 is_stmt 0
 2142 0032 232C0500 		sw	zero,24(a0)
 2143              		.loc 1 268 20
 2144 0036 232A0500 		sw	zero,20(a0)
 269:C:/Users/stapi/OneDrive/Desktop/GD32VW553/V1_MQTT_OK/GD32VW55X_Wifi_BLE_SDK/GD32VW55x_RELEASE_V1.0.2/MSDK/wpa_supplicant/src/crypto\sha1-internal.c **** }
 2145              		.loc 1 269 1
 2146 003a 8280     		ret
 2147              		.cfi_endproc
 2148              	.LFE434:
 2150              		.section	.text.SHA1Update,"ax",@progbits
 2151              		.align	1
 2152              		.globl	SHA1Update
 2154              	SHA1Update:
 2155              	.LFB435:
 270:C:/Users/stapi/OneDrive/Desktop/GD32VW553/V1_MQTT_OK/GD32VW55X_Wifi_BLE_SDK/GD32VW55x_RELEASE_V1.0.2/MSDK/wpa_supplicant/src/crypto\sha1-internal.c **** 
 271:C:/Users/stapi/OneDrive/Desktop/GD32VW553/V1_MQTT_OK/GD32VW55X_Wifi_BLE_SDK/GD32VW55x_RELEASE_V1.0.2/MSDK/wpa_supplicant/src/crypto\sha1-internal.c **** 
 272:C:/Users/stapi/OneDrive/Desktop/GD32VW553/V1_MQTT_OK/GD32VW55X_Wifi_BLE_SDK/GD32VW55x_RELEASE_V1.0.2/MSDK/wpa_supplicant/src/crypto\sha1-internal.c **** /* Run your data through this. */
 273:C:/Users/stapi/OneDrive/Desktop/GD32VW553/V1_MQTT_OK/GD32VW55X_Wifi_BLE_SDK/GD32VW55x_RELEASE_V1.0.2/MSDK/wpa_supplicant/src/crypto\sha1-internal.c **** 
 274:C:/Users/stapi/OneDrive/Desktop/GD32VW553/V1_MQTT_OK/GD32VW55X_Wifi_BLE_SDK/GD32VW55x_RELEASE_V1.0.2/MSDK/wpa_supplicant/src/crypto\sha1-internal.c **** void SHA1Update(SHA1_CTX* context, const void *_data, u32 len)
 275:C:/Users/stapi/OneDrive/Desktop/GD32VW553/V1_MQTT_OK/GD32VW55X_Wifi_BLE_SDK/GD32VW55x_RELEASE_V1.0.2/MSDK/wpa_supplicant/src/crypto\sha1-internal.c **** {
 2156              		.loc 1 275 1 is_stmt 1
 2157              		.cfi_startproc
 2158              	.LVL238:
 2159 0000 17030000 		call	t0,__riscv_save_4
 2159      E7020300 
 2160              		.cfi_offset 19, -20
 2161              		.cfi_offset 18, -16
 2162              		.cfi_offset 9, -12
 2163              		.cfi_offset 8, -8
 2164              		.cfi_offset 1, -4
 2165              		.cfi_def_cfa_offset 32
 276:C:/Users/stapi/OneDrive/Desktop/GD32VW553/V1_MQTT_OK/GD32VW55X_Wifi_BLE_SDK/GD32VW55x_RELEASE_V1.0.2/MSDK/wpa_supplicant/src/crypto\sha1-internal.c **** 	u32 i, j;
 2166              		.loc 1 276 2
 277:C:/Users/stapi/OneDrive/Desktop/GD32VW553/V1_MQTT_OK/GD32VW55X_Wifi_BLE_SDK/GD32VW55x_RELEASE_V1.0.2/MSDK/wpa_supplicant/src/crypto\sha1-internal.c **** 	const unsigned char *data = _data;
 2167              		.loc 1 277 2
 278:C:/Users/stapi/OneDrive/Desktop/GD32VW553/V1_MQTT_OK/GD32VW55X_Wifi_BLE_SDK/GD32VW55x_RELEASE_V1.0.2/MSDK/wpa_supplicant/src/crypto\sha1-internal.c **** 
 279:C:/Users/stapi/OneDrive/Desktop/GD32VW553/V1_MQTT_OK/GD32VW55X_Wifi_BLE_SDK/GD32VW55x_RELEASE_V1.0.2/MSDK/wpa_supplicant/src/crypto\sha1-internal.c **** #ifdef VERBOSE
 280:C:/Users/stapi/OneDrive/Desktop/GD32VW553/V1_MQTT_OK/GD32VW55X_Wifi_BLE_SDK/GD32VW55x_RELEASE_V1.0.2/MSDK/wpa_supplicant/src/crypto\sha1-internal.c **** 	SHAPrintContext(context, "before");
 281:C:/Users/stapi/OneDrive/Desktop/GD32VW553/V1_MQTT_OK/GD32VW55X_Wifi_BLE_SDK/GD32VW55x_RELEASE_V1.0.2/MSDK/wpa_supplicant/src/crypto\sha1-internal.c **** #endif
 282:C:/Users/stapi/OneDrive/Desktop/GD32VW553/V1_MQTT_OK/GD32VW55X_Wifi_BLE_SDK/GD32VW55x_RELEASE_V1.0.2/MSDK/wpa_supplicant/src/crypto\sha1-internal.c **** 	j = (context->count[0] >> 3) & 63;
 2168              		.loc 1 282 21 is_stmt 0
 2169 0008 5C49     		lw	a5,20(a0)
 283:C:/Users/stapi/OneDrive/Desktop/GD32VW553/V1_MQTT_OK/GD32VW55X_Wifi_BLE_SDK/GD32VW55x_RELEASE_V1.0.2/MSDK/wpa_supplicant/src/crypto\sha1-internal.c **** 	if ((context->count[0] += len << 3) < (len << 3))
 2170              		.loc 1 283 32
 2171 000a 13173600 		slli	a4,a2,3
 275:C:/Users/stapi/OneDrive/Desktop/GD32VW553/V1_MQTT_OK/GD32VW55X_Wifi_BLE_SDK/GD32VW55x_RELEASE_V1.0.2/MSDK/wpa_supplicant/src/crypto\sha1-internal.c **** 	u32 i, j;
 2172              		.loc 1 275 1
 2173 000e 2A84     		mv	s0,a0
 282:C:/Users/stapi/OneDrive/Desktop/GD32VW553/V1_MQTT_OK/GD32VW55X_Wifi_BLE_SDK/GD32VW55x_RELEASE_V1.0.2/MSDK/wpa_supplicant/src/crypto\sha1-internal.c **** 	if ((context->count[0] += len << 3) < (len << 3))
 2174              		.loc 1 282 25
 2175 0010 13D53700 		srli	a0,a5,3
 2176              	.LVL239:
 2177              		.loc 1 283 25
 2178 0014 BA97     		add	a5,a5,a4
 2179 0016 5CC8     		sw	a5,20(s0)
 275:C:/Users/stapi/OneDrive/Desktop/GD32VW553/V1_MQTT_OK/GD32VW55X_Wifi_BLE_SDK/GD32VW55x_RELEASE_V1.0.2/MSDK/wpa_supplicant/src/crypto\sha1-internal.c **** 	u32 i, j;
 2180              		.loc 1 275 1
 2181 0018 AE89     		mv	s3,a1
 2182              	.LVL240:
 282:C:/Users/stapi/OneDrive/Desktop/GD32VW553/V1_MQTT_OK/GD32VW55X_Wifi_BLE_SDK/GD32VW55x_RELEASE_V1.0.2/MSDK/wpa_supplicant/src/crypto\sha1-internal.c **** 	if ((context->count[0] += len << 3) < (len << 3))
 2183              		.loc 1 282 2 is_stmt 1
 275:C:/Users/stapi/OneDrive/Desktop/GD32VW553/V1_MQTT_OK/GD32VW55X_Wifi_BLE_SDK/GD32VW55x_RELEASE_V1.0.2/MSDK/wpa_supplicant/src/crypto\sha1-internal.c **** 	u32 i, j;
 2184              		.loc 1 275 1 is_stmt 0
 2185 001a 3289     		mv	s2,a2
 282:C:/Users/stapi/OneDrive/Desktop/GD32VW553/V1_MQTT_OK/GD32VW55X_Wifi_BLE_SDK/GD32VW55x_RELEASE_V1.0.2/MSDK/wpa_supplicant/src/crypto\sha1-internal.c **** 	if ((context->count[0] += len << 3) < (len << 3))
 2186              		.loc 1 282 4
 2187 001c 1375F503 		andi	a0,a0,63
 2188              	.LVL241:
 2189              		.loc 1 283 2 is_stmt 1
 2190              		.loc 1 283 5 is_stmt 0
 2191 0020 63F5E700 		bleu	a4,a5,.L13
 284:C:/Users/stapi/OneDrive/Desktop/GD32VW553/V1_MQTT_OK/GD32VW55X_Wifi_BLE_SDK/GD32VW55x_RELEASE_V1.0.2/MSDK/wpa_supplicant/src/crypto\sha1-internal.c **** 		context->count[1]++;
 2192              		.loc 1 284 3 is_stmt 1
 2193              		.loc 1 284 20 is_stmt 0
 2194 0024 1C4C     		lw	a5,24(s0)
 2195 0026 8507     		addi	a5,a5,1
 2196 0028 1CCC     		sw	a5,24(s0)
 2197              	.L13:
 285:C:/Users/stapi/OneDrive/Desktop/GD32VW553/V1_MQTT_OK/GD32VW55X_Wifi_BLE_SDK/GD32VW55x_RELEASE_V1.0.2/MSDK/wpa_supplicant/src/crypto\sha1-internal.c **** 	context->count[1] += (len >> 29);
 2198              		.loc 1 285 2 is_stmt 1
 2199              		.loc 1 285 20 is_stmt 0
 2200 002a 184C     		lw	a4,24(s0)
 2201              		.loc 1 285 28
 2202 002c 9357D901 		srli	a5,s2,29
 286:C:/Users/stapi/OneDrive/Desktop/GD32VW553/V1_MQTT_OK/GD32VW55X_Wifi_BLE_SDK/GD32VW55x_RELEASE_V1.0.2/MSDK/wpa_supplicant/src/crypto\sha1-internal.c **** 	if ((j + len) > 63) {
 287:C:/Users/stapi/OneDrive/Desktop/GD32VW553/V1_MQTT_OK/GD32VW55X_Wifi_BLE_SDK/GD32VW55x_RELEASE_V1.0.2/MSDK/wpa_supplicant/src/crypto\sha1-internal.c **** 		os_memcpy(&context->buffer[j], data, (i = 64-j));
 288:C:/Users/stapi/OneDrive/Desktop/GD32VW553/V1_MQTT_OK/GD32VW55X_Wifi_BLE_SDK/GD32VW55x_RELEASE_V1.0.2/MSDK/wpa_supplicant/src/crypto\sha1-internal.c **** 		SHA1Transform(context->state, context->buffer);
 289:C:/Users/stapi/OneDrive/Desktop/GD32VW553/V1_MQTT_OK/GD32VW55X_Wifi_BLE_SDK/GD32VW55x_RELEASE_V1.0.2/MSDK/wpa_supplicant/src/crypto\sha1-internal.c **** 		for ( ; i + 63 < len; i += 64) {
 290:C:/Users/stapi/OneDrive/Desktop/GD32VW553/V1_MQTT_OK/GD32VW55X_Wifi_BLE_SDK/GD32VW55x_RELEASE_V1.0.2/MSDK/wpa_supplicant/src/crypto\sha1-internal.c **** 			SHA1Transform(context->state, &data[i]);
 291:C:/Users/stapi/OneDrive/Desktop/GD32VW553/V1_MQTT_OK/GD32VW55X_Wifi_BLE_SDK/GD32VW55x_RELEASE_V1.0.2/MSDK/wpa_supplicant/src/crypto\sha1-internal.c **** 		}
 292:C:/Users/stapi/OneDrive/Desktop/GD32VW553/V1_MQTT_OK/GD32VW55X_Wifi_BLE_SDK/GD32VW55x_RELEASE_V1.0.2/MSDK/wpa_supplicant/src/crypto\sha1-internal.c **** 		j = 0;
 293:C:/Users/stapi/OneDrive/Desktop/GD32VW553/V1_MQTT_OK/GD32VW55X_Wifi_BLE_SDK/GD32VW55x_RELEASE_V1.0.2/MSDK/wpa_supplicant/src/crypto\sha1-internal.c **** 	}
 294:C:/Users/stapi/OneDrive/Desktop/GD32VW553/V1_MQTT_OK/GD32VW55X_Wifi_BLE_SDK/GD32VW55x_RELEASE_V1.0.2/MSDK/wpa_supplicant/src/crypto\sha1-internal.c **** 	else i = 0;
 2203              		.loc 1 294 9
 2204 0030 8144     		li	s1,0
 285:C:/Users/stapi/OneDrive/Desktop/GD32VW553/V1_MQTT_OK/GD32VW55X_Wifi_BLE_SDK/GD32VW55x_RELEASE_V1.0.2/MSDK/wpa_supplicant/src/crypto\sha1-internal.c **** 	context->count[1] += (len >> 29);
 2205              		.loc 1 285 20
 2206 0032 BA97     		add	a5,a4,a5
 2207 0034 1CCC     		sw	a5,24(s0)
 286:C:/Users/stapi/OneDrive/Desktop/GD32VW553/V1_MQTT_OK/GD32VW55X_Wifi_BLE_SDK/GD32VW55x_RELEASE_V1.0.2/MSDK/wpa_supplicant/src/crypto\sha1-internal.c **** 	if ((j + len) > 63) {
 2208              		.loc 1 286 2 is_stmt 1
 286:C:/Users/stapi/OneDrive/Desktop/GD32VW553/V1_MQTT_OK/GD32VW55X_Wifi_BLE_SDK/GD32VW55x_RELEASE_V1.0.2/MSDK/wpa_supplicant/src/crypto\sha1-internal.c **** 	if ((j + len) > 63) {
 2209              		.loc 1 286 5 is_stmt 0
 2210 0036 1307F003 		li	a4,63
 286:C:/Users/stapi/OneDrive/Desktop/GD32VW553/V1_MQTT_OK/GD32VW55X_Wifi_BLE_SDK/GD32VW55x_RELEASE_V1.0.2/MSDK/wpa_supplicant/src/crypto\sha1-internal.c **** 	if ((j + len) > 63) {
 2211              		.loc 1 286 9
 2212 003a B3072501 		add	a5,a0,s2
 286:C:/Users/stapi/OneDrive/Desktop/GD32VW553/V1_MQTT_OK/GD32VW55X_Wifi_BLE_SDK/GD32VW55x_RELEASE_V1.0.2/MSDK/wpa_supplicant/src/crypto\sha1-internal.c **** 	if ((j + len) > 63) {
 2213              		.loc 1 286 5
 2214 003e 637BF702 		bleu	a5,a4,.L14
 287:C:/Users/stapi/OneDrive/Desktop/GD32VW553/V1_MQTT_OK/GD32VW55X_Wifi_BLE_SDK/GD32VW55x_RELEASE_V1.0.2/MSDK/wpa_supplicant/src/crypto\sha1-internal.c **** 		SHA1Transform(context->state, context->buffer);
 2215              		.loc 1 287 3 is_stmt 1
 287:C:/Users/stapi/OneDrive/Desktop/GD32VW553/V1_MQTT_OK/GD32VW55X_Wifi_BLE_SDK/GD32VW55x_RELEASE_V1.0.2/MSDK/wpa_supplicant/src/crypto\sha1-internal.c **** 		SHA1Transform(context->state, context->buffer);
 2216              		.loc 1 287 43 is_stmt 0
 2217 0042 93040004 		li	s1,64
 2218 0046 898C     		sub	s1,s1,a0
 2219              	.LVL242:
 287:C:/Users/stapi/OneDrive/Desktop/GD32VW553/V1_MQTT_OK/GD32VW55X_Wifi_BLE_SDK/GD32VW55x_RELEASE_V1.0.2/MSDK/wpa_supplicant/src/crypto\sha1-internal.c **** 		SHA1Transform(context->state, context->buffer);
 2220              		.loc 1 287 13
 2221 0048 7105     		addi	a0,a0,28
 2222              	.LVL243:
 287:C:/Users/stapi/OneDrive/Desktop/GD32VW553/V1_MQTT_OK/GD32VW55X_Wifi_BLE_SDK/GD32VW55x_RELEASE_V1.0.2/MSDK/wpa_supplicant/src/crypto\sha1-internal.c **** 		SHA1Transform(context->state, context->buffer);
 2223              		.loc 1 287 3
 2224 004a CE85     		mv	a1,s3
 2225              	.LVL244:
 2226 004c 2686     		mv	a2,s1
 2227              	.LVL245:
 2228 004e 2295     		add	a0,s0,a0
 2229              	.LVL246:
 2230 0050 97000000 		call	os_memcpy
 2230      E7800000 
 2231              	.LVL247:
 288:C:/Users/stapi/OneDrive/Desktop/GD32VW553/V1_MQTT_OK/GD32VW55X_Wifi_BLE_SDK/GD32VW55x_RELEASE_V1.0.2/MSDK/wpa_supplicant/src/crypto\sha1-internal.c **** 		for ( ; i + 63 < len; i += 64) {
 2232              		.loc 1 288 3 is_stmt 1
 2233 0058 9305C401 		addi	a1,s0,28
 2234 005c 2285     		mv	a0,s0
 2235 005e 97000000 		call	SHA1Transform
 2235      E7800000 
 2236              	.LVL248:
 289:C:/Users/stapi/OneDrive/Desktop/GD32VW553/V1_MQTT_OK/GD32VW55X_Wifi_BLE_SDK/GD32VW55x_RELEASE_V1.0.2/MSDK/wpa_supplicant/src/crypto\sha1-internal.c **** 			SHA1Transform(context->state, &data[i]);
 2237              		.loc 1 289 3
 2238              	.L15:
 289:C:/Users/stapi/OneDrive/Desktop/GD32VW553/V1_MQTT_OK/GD32VW55X_Wifi_BLE_SDK/GD32VW55x_RELEASE_V1.0.2/MSDK/wpa_supplicant/src/crypto\sha1-internal.c **** 			SHA1Transform(context->state, &data[i]);
 2239              		.loc 1 289 11 discriminator 1
 289:C:/Users/stapi/OneDrive/Desktop/GD32VW553/V1_MQTT_OK/GD32VW55X_Wifi_BLE_SDK/GD32VW55x_RELEASE_V1.0.2/MSDK/wpa_supplicant/src/crypto\sha1-internal.c **** 			SHA1Transform(context->state, &data[i]);
 2240              		.loc 1 289 3 is_stmt 0 discriminator 1
 2241 0066 9387F403 		addi	a5,s1,63
 2242 006a B3859900 		add	a1,s3,s1
 2243 006e 63E12703 		bgtu	s2,a5,.L16
 292:C:/Users/stapi/OneDrive/Desktop/GD32VW553/V1_MQTT_OK/GD32VW55X_Wifi_BLE_SDK/GD32VW55x_RELEASE_V1.0.2/MSDK/wpa_supplicant/src/crypto\sha1-internal.c **** 	}
 2244              		.loc 1 292 5
 2245 0072 0145     		li	a0,0
 2246              	.LVL249:
 2247              	.L14:
 295:C:/Users/stapi/OneDrive/Desktop/GD32VW553/V1_MQTT_OK/GD32VW55X_Wifi_BLE_SDK/GD32VW55x_RELEASE_V1.0.2/MSDK/wpa_supplicant/src/crypto\sha1-internal.c **** 	os_memcpy(&context->buffer[j], &data[i], len - i);
 2248              		.loc 1 295 2 is_stmt 1
 2249              		.loc 1 295 12 is_stmt 0
 2250 0074 7105     		addi	a0,a0,28
 2251              	.LVL250:
 2252              		.loc 1 295 2
 2253 0076 33069940 		sub	a2,s2,s1
 2254 007a B3859900 		add	a1,s3,s1
 2255 007e 2295     		add	a0,s0,a0
 2256              	.LVL251:
 2257 0080 97000000 		call	os_memcpy
 2257      E7800000 
 2258              	.LVL252:
 296:C:/Users/stapi/OneDrive/Desktop/GD32VW553/V1_MQTT_OK/GD32VW55X_Wifi_BLE_SDK/GD32VW55x_RELEASE_V1.0.2/MSDK/wpa_supplicant/src/crypto\sha1-internal.c **** #ifdef VERBOSE
 297:C:/Users/stapi/OneDrive/Desktop/GD32VW553/V1_MQTT_OK/GD32VW55X_Wifi_BLE_SDK/GD32VW55x_RELEASE_V1.0.2/MSDK/wpa_supplicant/src/crypto\sha1-internal.c **** 	SHAPrintContext(context, "after ");
 298:C:/Users/stapi/OneDrive/Desktop/GD32VW553/V1_MQTT_OK/GD32VW55X_Wifi_BLE_SDK/GD32VW55x_RELEASE_V1.0.2/MSDK/wpa_supplicant/src/crypto\sha1-internal.c **** #endif
 299:C:/Users/stapi/OneDrive/Desktop/GD32VW553/V1_MQTT_OK/GD32VW55X_Wifi_BLE_SDK/GD32VW55x_RELEASE_V1.0.2/MSDK/wpa_supplicant/src/crypto\sha1-internal.c **** }
 2259              		.loc 1 299 1
 2260 0088 17030000 		tail	__riscv_restore_4
 2260      67000300 
 2261              		.cfi_remember_state
 2262              		.cfi_restore 19
 2263              		.cfi_restore 18
 2264              		.cfi_restore 9
 2265              		.cfi_restore 8
 2266              		.cfi_restore 1
 2267              		.cfi_def_cfa_offset 0
 2268              	.L16:
 2269              		.cfi_restore_state
 290:C:/Users/stapi/OneDrive/Desktop/GD32VW553/V1_MQTT_OK/GD32VW55X_Wifi_BLE_SDK/GD32VW55x_RELEASE_V1.0.2/MSDK/wpa_supplicant/src/crypto\sha1-internal.c **** 		}
 2270              		.loc 1 290 4 is_stmt 1 discriminator 2
 2271 0090 2285     		mv	a0,s0
 2272 0092 97000000 		call	SHA1Transform
 2272      E7800000 
 2273              	.LVL253:
 289:C:/Users/stapi/OneDrive/Desktop/GD32VW553/V1_MQTT_OK/GD32VW55X_Wifi_BLE_SDK/GD32VW55x_RELEASE_V1.0.2/MSDK/wpa_supplicant/src/crypto\sha1-internal.c **** 			SHA1Transform(context->state, &data[i]);
 2274              		.loc 1 289 25 discriminator 2
 289:C:/Users/stapi/OneDrive/Desktop/GD32VW553/V1_MQTT_OK/GD32VW55X_Wifi_BLE_SDK/GD32VW55x_RELEASE_V1.0.2/MSDK/wpa_supplicant/src/crypto\sha1-internal.c **** 			SHA1Transform(context->state, &data[i]);
 2275              		.loc 1 289 27 is_stmt 0 discriminator 2
 2276 009a 93840404 		addi	s1,s1,64
 2277              	.LVL254:
 2278 009e E1B7     		j	.L15
 2279              		.cfi_endproc
 2280              	.LFE435:
 2282              		.section	.rodata.SHA1Final.str1.4,"aMS",@progbits,1
 2283              		.align	2
 2284              	.LC0:
 2285 0000 8000     		.string	"\200"
 2286              		.section	.text.SHA1Final,"ax",@progbits
 2287              		.align	1
 2288              		.globl	SHA1Final
 2290              	SHA1Final:
 2291              	.LFB436:
 300:C:/Users/stapi/OneDrive/Desktop/GD32VW553/V1_MQTT_OK/GD32VW55X_Wifi_BLE_SDK/GD32VW55x_RELEASE_V1.0.2/MSDK/wpa_supplicant/src/crypto\sha1-internal.c **** 
 301:C:/Users/stapi/OneDrive/Desktop/GD32VW553/V1_MQTT_OK/GD32VW55X_Wifi_BLE_SDK/GD32VW55x_RELEASE_V1.0.2/MSDK/wpa_supplicant/src/crypto\sha1-internal.c **** 
 302:C:/Users/stapi/OneDrive/Desktop/GD32VW553/V1_MQTT_OK/GD32VW55X_Wifi_BLE_SDK/GD32VW55x_RELEASE_V1.0.2/MSDK/wpa_supplicant/src/crypto\sha1-internal.c **** /* Add padding and return the message digest. */
 303:C:/Users/stapi/OneDrive/Desktop/GD32VW553/V1_MQTT_OK/GD32VW55X_Wifi_BLE_SDK/GD32VW55x_RELEASE_V1.0.2/MSDK/wpa_supplicant/src/crypto\sha1-internal.c **** 
 304:C:/Users/stapi/OneDrive/Desktop/GD32VW553/V1_MQTT_OK/GD32VW55X_Wifi_BLE_SDK/GD32VW55x_RELEASE_V1.0.2/MSDK/wpa_supplicant/src/crypto\sha1-internal.c **** void SHA1Final(unsigned char digest[20], SHA1_CTX* context)
 305:C:/Users/stapi/OneDrive/Desktop/GD32VW553/V1_MQTT_OK/GD32VW55X_Wifi_BLE_SDK/GD32VW55x_RELEASE_V1.0.2/MSDK/wpa_supplicant/src/crypto\sha1-internal.c **** {
 2292              		.loc 1 305 1 is_stmt 1
 2293              		.cfi_startproc
 2294              	.LVL255:
 2295 0000 17030000 		call	t0,__riscv_save_4
 2295      E7020300 
 2296              		.cfi_offset 19, -20
 2297              		.cfi_offset 18, -16
 2298              		.cfi_offset 9, -12
 2299              		.cfi_offset 8, -8
 2300              		.cfi_offset 1, -4
 2301              		.cfi_def_cfa_offset 32
 306:C:/Users/stapi/OneDrive/Desktop/GD32VW553/V1_MQTT_OK/GD32VW55X_Wifi_BLE_SDK/GD32VW55x_RELEASE_V1.0.2/MSDK/wpa_supplicant/src/crypto\sha1-internal.c **** 	u32 i;
 2302              		.loc 1 306 2
 307:C:/Users/stapi/OneDrive/Desktop/GD32VW553/V1_MQTT_OK/GD32VW55X_Wifi_BLE_SDK/GD32VW55x_RELEASE_V1.0.2/MSDK/wpa_supplicant/src/crypto\sha1-internal.c **** 	unsigned char finalcount[8];
 2303              		.loc 1 307 2
 308:C:/Users/stapi/OneDrive/Desktop/GD32VW553/V1_MQTT_OK/GD32VW55X_Wifi_BLE_SDK/GD32VW55x_RELEASE_V1.0.2/MSDK/wpa_supplicant/src/crypto\sha1-internal.c **** 
 309:C:/Users/stapi/OneDrive/Desktop/GD32VW553/V1_MQTT_OK/GD32VW55X_Wifi_BLE_SDK/GD32VW55x_RELEASE_V1.0.2/MSDK/wpa_supplicant/src/crypto\sha1-internal.c **** 	for (i = 0; i < 8; i++) {
 2304              		.loc 1 309 2
 2305              	.LVL256:
 2306              		.loc 1 309 14
 305:C:/Users/stapi/OneDrive/Desktop/GD32VW553/V1_MQTT_OK/GD32VW55X_Wifi_BLE_SDK/GD32VW55x_RELEASE_V1.0.2/MSDK/wpa_supplicant/src/crypto\sha1-internal.c **** 	u32 i;
 2307              		.loc 1 305 1 is_stmt 0
 2308 0008 4111     		addi	sp,sp,-16
 2309              		.cfi_def_cfa_offset 48
 305:C:/Users/stapi/OneDrive/Desktop/GD32VW553/V1_MQTT_OK/GD32VW55X_Wifi_BLE_SDK/GD32VW55x_RELEASE_V1.0.2/MSDK/wpa_supplicant/src/crypto\sha1-internal.c **** 	u32 i;
 2310              		.loc 1 305 1
 2311 000a AA84     		mv	s1,a0
 2312 000c 2E84     		mv	s0,a1
 2313              		.loc 1 309 9
 2314 000e 8147     		li	a5,0
 2315              		.loc 1 309 2
 2316 0010 2146     		li	a2,8
 2317              	.LVL257:
 2318              	.L20:
 310:C:/Users/stapi/OneDrive/Desktop/GD32VW553/V1_MQTT_OK/GD32VW55X_Wifi_BLE_SDK/GD32VW55x_RELEASE_V1.0.2/MSDK/wpa_supplicant/src/crypto\sha1-internal.c **** 		finalcount[i] = (unsigned char)
 2319              		.loc 1 310 3 is_stmt 1 discriminator 3
 2320              		.loc 1 310 17 is_stmt 0 discriminator 3
 2321 0012 3800     		addi	a4,sp,8
 311:C:/Users/stapi/OneDrive/Desktop/GD32VW553/V1_MQTT_OK/GD32VW55X_Wifi_BLE_SDK/GD32VW55x_RELEASE_V1.0.2/MSDK/wpa_supplicant/src/crypto\sha1-internal.c **** 			((context->count[(i >= 4 ? 0 : 1)] >>
 2322              		.loc 1 311 33 discriminator 3
 2323 0014 93B64700 		sltiu	a3,a5,4
 310:C:/Users/stapi/OneDrive/Desktop/GD32VW553/V1_MQTT_OK/GD32VW55X_Wifi_BLE_SDK/GD32VW55x_RELEASE_V1.0.2/MSDK/wpa_supplicant/src/crypto\sha1-internal.c **** 		finalcount[i] = (unsigned char)
 2324              		.loc 1 310 17 discriminator 3
 2325 0018 B305F700 		add	a1,a4,a5
 2326              		.loc 1 311 20 discriminator 3
 2327 001c B3C68620 		sh2add	a3,a3,s0
 312:C:/Users/stapi/OneDrive/Desktop/GD32VW553/V1_MQTT_OK/GD32VW55X_Wifi_BLE_SDK/GD32VW55x_RELEASE_V1.0.2/MSDK/wpa_supplicant/src/crypto\sha1-internal.c **** 			  ((3-(i & 3)) * 8) ) & 255);  /* Endian independent */
 2328              		.loc 1 312 9 discriminator 3
 2329 0020 13C7F7FF 		not	a4,a5
 311:C:/Users/stapi/OneDrive/Desktop/GD32VW553/V1_MQTT_OK/GD32VW55X_Wifi_BLE_SDK/GD32VW55x_RELEASE_V1.0.2/MSDK/wpa_supplicant/src/crypto\sha1-internal.c **** 			((context->count[(i >= 4 ? 0 : 1)] >>
 2330              		.loc 1 311 39 discriminator 3
 2331 0024 D44A     		lw	a3,20(a3)
 2332              		.loc 1 312 9 discriminator 3
 2333 0026 0D8B     		andi	a4,a4,3
 2334              		.loc 1 312 19 discriminator 3
 2335 0028 0E07     		slli	a4,a4,3
 311:C:/Users/stapi/OneDrive/Desktop/GD32VW553/V1_MQTT_OK/GD32VW55X_Wifi_BLE_SDK/GD32VW55x_RELEASE_V1.0.2/MSDK/wpa_supplicant/src/crypto\sha1-internal.c **** 			((context->count[(i >= 4 ? 0 : 1)] >>
 2336              		.loc 1 311 39 discriminator 3
 2337 002a 33D7E600 		srl	a4,a3,a4
 310:C:/Users/stapi/OneDrive/Desktop/GD32VW553/V1_MQTT_OK/GD32VW55X_Wifi_BLE_SDK/GD32VW55x_RELEASE_V1.0.2/MSDK/wpa_supplicant/src/crypto\sha1-internal.c **** 		finalcount[i] = (unsigned char)
 2338              		.loc 1 310 19 discriminator 3
 2339 002e 2380E500 		sb	a4,0(a1)
 309:C:/Users/stapi/OneDrive/Desktop/GD32VW553/V1_MQTT_OK/GD32VW55X_Wifi_BLE_SDK/GD32VW55x_RELEASE_V1.0.2/MSDK/wpa_supplicant/src/crypto\sha1-internal.c **** 		finalcount[i] = (unsigned char)
 2340              		.loc 1 309 21 is_stmt 1 discriminator 3
 309:C:/Users/stapi/OneDrive/Desktop/GD32VW553/V1_MQTT_OK/GD32VW55X_Wifi_BLE_SDK/GD32VW55x_RELEASE_V1.0.2/MSDK/wpa_supplicant/src/crypto\sha1-internal.c **** 		finalcount[i] = (unsigned char)
 2341              		.loc 1 309 22 is_stmt 0 discriminator 3
 2342 0032 8507     		addi	a5,a5,1
 2343              	.LVL258:
 309:C:/Users/stapi/OneDrive/Desktop/GD32VW553/V1_MQTT_OK/GD32VW55X_Wifi_BLE_SDK/GD32VW55x_RELEASE_V1.0.2/MSDK/wpa_supplicant/src/crypto\sha1-internal.c **** 		finalcount[i] = (unsigned char)
 2344              		.loc 1 309 14 is_stmt 1 discriminator 3
 309:C:/Users/stapi/OneDrive/Desktop/GD32VW553/V1_MQTT_OK/GD32VW55X_Wifi_BLE_SDK/GD32VW55x_RELEASE_V1.0.2/MSDK/wpa_supplicant/src/crypto\sha1-internal.c **** 		finalcount[i] = (unsigned char)
 2345              		.loc 1 309 2 is_stmt 0 discriminator 3
 2346 0034 E39FC7FC 		bne	a5,a2,.L20
 313:C:/Users/stapi/OneDrive/Desktop/GD32VW553/V1_MQTT_OK/GD32VW55X_Wifi_BLE_SDK/GD32VW55x_RELEASE_V1.0.2/MSDK/wpa_supplicant/src/crypto\sha1-internal.c **** 	}
 314:C:/Users/stapi/OneDrive/Desktop/GD32VW553/V1_MQTT_OK/GD32VW55X_Wifi_BLE_SDK/GD32VW55x_RELEASE_V1.0.2/MSDK/wpa_supplicant/src/crypto\sha1-internal.c **** 	SHA1Update(context, (unsigned char *) "\200", 1);
 2347              		.loc 1 314 2 is_stmt 1
 2348 0038 B7050000 		lui	a1,%hi(.LC0)
 2349 003c 0546     		li	a2,1
 2350 003e 93850500 		addi	a1,a1,%lo(.LC0)
 2351 0042 2285     		mv	a0,s0
 2352              	.LVL259:
 2353 0044 97000000 		call	SHA1Update
 2353      E7800000 
 2354              	.LVL260:
 315:C:/Users/stapi/OneDrive/Desktop/GD32VW553/V1_MQTT_OK/GD32VW55X_Wifi_BLE_SDK/GD32VW55x_RELEASE_V1.0.2/MSDK/wpa_supplicant/src/crypto\sha1-internal.c **** 	while ((context->count[0] & 504) != 448) {
 2355              		.loc 1 315 2
 2356              		.loc 1 315 8 is_stmt 0
 2357 004c 1309001C 		li	s2,448
 316:C:/Users/stapi/OneDrive/Desktop/GD32VW553/V1_MQTT_OK/GD32VW55X_Wifi_BLE_SDK/GD32VW55x_RELEASE_V1.0.2/MSDK/wpa_supplicant/src/crypto\sha1-internal.c **** 		SHA1Update(context, (unsigned char *) "\0", 1);
 2358              		.loc 1 316 3
 2359 0050 B7090000 		lui	s3,%hi(.LC1)
 2360              	.L21:
 315:C:/Users/stapi/OneDrive/Desktop/GD32VW553/V1_MQTT_OK/GD32VW55X_Wifi_BLE_SDK/GD32VW55x_RELEASE_V1.0.2/MSDK/wpa_supplicant/src/crypto\sha1-internal.c **** 	while ((context->count[0] & 504) != 448) {
 2361              		.loc 1 315 8 is_stmt 1
 315:C:/Users/stapi/OneDrive/Desktop/GD32VW553/V1_MQTT_OK/GD32VW55X_Wifi_BLE_SDK/GD32VW55x_RELEASE_V1.0.2/MSDK/wpa_supplicant/src/crypto\sha1-internal.c **** 	while ((context->count[0] & 504) != 448) {
 2362              		.loc 1 315 28 is_stmt 0
 2363 0054 5C48     		lw	a5,20(s0)
 2364 0056 93F7871F 		andi	a5,a5,504
 315:C:/Users/stapi/OneDrive/Desktop/GD32VW553/V1_MQTT_OK/GD32VW55X_Wifi_BLE_SDK/GD32VW55x_RELEASE_V1.0.2/MSDK/wpa_supplicant/src/crypto\sha1-internal.c **** 	while ((context->count[0] & 504) != 448) {
 2365              		.loc 1 315 8
 2366 005a 639F2707 		bne	a5,s2,.L22
 317:C:/Users/stapi/OneDrive/Desktop/GD32VW553/V1_MQTT_OK/GD32VW55X_Wifi_BLE_SDK/GD32VW55x_RELEASE_V1.0.2/MSDK/wpa_supplicant/src/crypto\sha1-internal.c **** 	}
 318:C:/Users/stapi/OneDrive/Desktop/GD32VW553/V1_MQTT_OK/GD32VW55X_Wifi_BLE_SDK/GD32VW55x_RELEASE_V1.0.2/MSDK/wpa_supplicant/src/crypto\sha1-internal.c **** 	SHA1Update(context, finalcount, 8);  /* Should cause a SHA1Transform()
 2367              		.loc 1 318 2 is_stmt 1
 2368 005e 2146     		li	a2,8
 2369 0060 2C00     		addi	a1,sp,8
 2370 0062 2285     		mv	a0,s0
 2371 0064 97000000 		call	SHA1Update
 2371      E7800000 
 2372              	.LVL261:
 319:C:/Users/stapi/OneDrive/Desktop/GD32VW553/V1_MQTT_OK/GD32VW55X_Wifi_BLE_SDK/GD32VW55x_RELEASE_V1.0.2/MSDK/wpa_supplicant/src/crypto\sha1-internal.c **** 					      */
 320:C:/Users/stapi/OneDrive/Desktop/GD32VW553/V1_MQTT_OK/GD32VW55X_Wifi_BLE_SDK/GD32VW55x_RELEASE_V1.0.2/MSDK/wpa_supplicant/src/crypto\sha1-internal.c **** 	for (i = 0; i < 20; i++) {
 2373              		.loc 1 320 2
 2374              		.loc 1 320 14
 2375              		.loc 1 320 9 is_stmt 0
 2376 006c 8147     		li	a5,0
 2377              		.loc 1 320 2
 2378 006e 5146     		li	a2,20
 2379              	.LVL262:
 2380              	.L23:
 321:C:/Users/stapi/OneDrive/Desktop/GD32VW553/V1_MQTT_OK/GD32VW55X_Wifi_BLE_SDK/GD32VW55x_RELEASE_V1.0.2/MSDK/wpa_supplicant/src/crypto\sha1-internal.c **** 		digest[i] = (unsigned char)
 2381              		.loc 1 321 3 is_stmt 1 discriminator 3
 322:C:/Users/stapi/OneDrive/Desktop/GD32VW553/V1_MQTT_OK/GD32VW55X_Wifi_BLE_SDK/GD32VW55x_RELEASE_V1.0.2/MSDK/wpa_supplicant/src/crypto\sha1-internal.c **** 			((context->state[i >> 2] >> ((3 - (i & 3)) * 8)) &
 2382              		.loc 1 322 20 is_stmt 0 discriminator 3
 2383 0070 93F6C7FF 		andi	a3,a5,-4
 2384 0074 A296     		add	a3,s0,a3
 2385              		.loc 1 322 29 discriminator 3
 2386 0076 9442     		lw	a3,0(a3)
 2387              		.loc 1 322 36 discriminator 3
 2388 0078 13C7F7FF 		not	a4,a5
 2389 007c 0D8B     		andi	a4,a4,3
 2390              		.loc 1 322 47 discriminator 3
 2391 007e 0E07     		slli	a4,a4,3
 321:C:/Users/stapi/OneDrive/Desktop/GD32VW553/V1_MQTT_OK/GD32VW55X_Wifi_BLE_SDK/GD32VW55x_RELEASE_V1.0.2/MSDK/wpa_supplicant/src/crypto\sha1-internal.c **** 		digest[i] = (unsigned char)
 2392              		.loc 1 321 13 discriminator 3
 2393 0080 B385F400 		add	a1,s1,a5
 2394              		.loc 1 322 29 discriminator 3
 2395 0084 33D7E600 		srl	a4,a3,a4
 321:C:/Users/stapi/OneDrive/Desktop/GD32VW553/V1_MQTT_OK/GD32VW55X_Wifi_BLE_SDK/GD32VW55x_RELEASE_V1.0.2/MSDK/wpa_supplicant/src/crypto\sha1-internal.c **** 		digest[i] = (unsigned char)
 2396              		.loc 1 321 15 discriminator 3
 2397 0088 2380E500 		sb	a4,0(a1)
 320:C:/Users/stapi/OneDrive/Desktop/GD32VW553/V1_MQTT_OK/GD32VW55X_Wifi_BLE_SDK/GD32VW55x_RELEASE_V1.0.2/MSDK/wpa_supplicant/src/crypto\sha1-internal.c **** 		digest[i] = (unsigned char)
 2398              		.loc 1 320 22 is_stmt 1 discriminator 3
 320:C:/Users/stapi/OneDrive/Desktop/GD32VW553/V1_MQTT_OK/GD32VW55X_Wifi_BLE_SDK/GD32VW55x_RELEASE_V1.0.2/MSDK/wpa_supplicant/src/crypto\sha1-internal.c **** 		digest[i] = (unsigned char)
 2399              		.loc 1 320 23 is_stmt 0 discriminator 3
 2400 008c 8507     		addi	a5,a5,1
 2401              	.LVL263:
 320:C:/Users/stapi/OneDrive/Desktop/GD32VW553/V1_MQTT_OK/GD32VW55X_Wifi_BLE_SDK/GD32VW55x_RELEASE_V1.0.2/MSDK/wpa_supplicant/src/crypto\sha1-internal.c **** 		digest[i] = (unsigned char)
 2402              		.loc 1 320 14 is_stmt 1 discriminator 3
 320:C:/Users/stapi/OneDrive/Desktop/GD32VW553/V1_MQTT_OK/GD32VW55X_Wifi_BLE_SDK/GD32VW55x_RELEASE_V1.0.2/MSDK/wpa_supplicant/src/crypto\sha1-internal.c **** 		digest[i] = (unsigned char)
 2403              		.loc 1 320 2 is_stmt 0 discriminator 3
 2404 008e E391C7FE 		bne	a5,a2,.L23
 323:C:/Users/stapi/OneDrive/Desktop/GD32VW553/V1_MQTT_OK/GD32VW55X_Wifi_BLE_SDK/GD32VW55x_RELEASE_V1.0.2/MSDK/wpa_supplicant/src/crypto\sha1-internal.c **** 			 255);
 324:C:/Users/stapi/OneDrive/Desktop/GD32VW553/V1_MQTT_OK/GD32VW55X_Wifi_BLE_SDK/GD32VW55x_RELEASE_V1.0.2/MSDK/wpa_supplicant/src/crypto\sha1-internal.c **** 	}
 325:C:/Users/stapi/OneDrive/Desktop/GD32VW553/V1_MQTT_OK/GD32VW55X_Wifi_BLE_SDK/GD32VW55x_RELEASE_V1.0.2/MSDK/wpa_supplicant/src/crypto\sha1-internal.c **** 	/* Wipe variables */
 326:C:/Users/stapi/OneDrive/Desktop/GD32VW553/V1_MQTT_OK/GD32VW55X_Wifi_BLE_SDK/GD32VW55x_RELEASE_V1.0.2/MSDK/wpa_supplicant/src/crypto\sha1-internal.c **** 	os_memset(context->buffer, 0, 64);
 2405              		.loc 1 326 2 is_stmt 1
 2406 0092 13060004 		li	a2,64
 2407 0096 8145     		li	a1,0
 2408 0098 1305C401 		addi	a0,s0,28
 2409 009c 97000000 		call	os_memset
 2409      E7800000 
 2410              	.LVL264:
 327:C:/Users/stapi/OneDrive/Desktop/GD32VW553/V1_MQTT_OK/GD32VW55X_Wifi_BLE_SDK/GD32VW55x_RELEASE_V1.0.2/MSDK/wpa_supplicant/src/crypto\sha1-internal.c **** 	os_memset(context->state, 0, 20);
 2411              		.loc 1 327 2
 2412 00a4 5146     		li	a2,20
 2413 00a6 8145     		li	a1,0
 2414 00a8 2285     		mv	a0,s0
 2415 00aa 97000000 		call	os_memset
 2415      E7800000 
 2416              	.LVL265:
 328:C:/Users/stapi/OneDrive/Desktop/GD32VW553/V1_MQTT_OK/GD32VW55X_Wifi_BLE_SDK/GD32VW55x_RELEASE_V1.0.2/MSDK/wpa_supplicant/src/crypto\sha1-internal.c **** 	os_memset(context->count, 0, 8);
 2417              		.loc 1 328 2
 2418 00b2 2146     		li	a2,8
 2419 00b4 8145     		li	a1,0
 2420 00b6 13054401 		addi	a0,s0,20
 2421 00ba 97000000 		call	os_memset
 2421      E7800000 
 2422              	.LVL266:
 329:C:/Users/stapi/OneDrive/Desktop/GD32VW553/V1_MQTT_OK/GD32VW55X_Wifi_BLE_SDK/GD32VW55x_RELEASE_V1.0.2/MSDK/wpa_supplicant/src/crypto\sha1-internal.c **** 	forced_memzero(finalcount, sizeof(finalcount));
 2423              		.loc 1 329 2
 2424 00c2 2800     		addi	a0,sp,8
 2425 00c4 A145     		li	a1,8
 2426 00c6 97000000 		call	forced_memzero
 2426      E7800000 
 2427              	.LVL267:
 330:C:/Users/stapi/OneDrive/Desktop/GD32VW553/V1_MQTT_OK/GD32VW55X_Wifi_BLE_SDK/GD32VW55x_RELEASE_V1.0.2/MSDK/wpa_supplicant/src/crypto\sha1-internal.c **** }
 2428              		.loc 1 330 1 is_stmt 0
 2429 00ce 4101     		addi	sp,sp,16
 2430              		.cfi_remember_state
 2431              		.cfi_def_cfa_offset 0
 2432 00d0 17030000 		tail	__riscv_restore_4
 2432      67000300 
 2433              		.cfi_restore 19
 2434              		.cfi_restore 18
 2435              		.cfi_restore 9
 2436              		.cfi_restore 8
 2437              		.cfi_restore 1
 2438              		.cfi_def_cfa_offset -32
 2439              	.L22:
 2440              		.cfi_restore_state
 316:C:/Users/stapi/OneDrive/Desktop/GD32VW553/V1_MQTT_OK/GD32VW55X_Wifi_BLE_SDK/GD32VW55x_RELEASE_V1.0.2/MSDK/wpa_supplicant/src/crypto\sha1-internal.c **** 	}
 2441              		.loc 1 316 3 is_stmt 1
 2442 00d8 0546     		li	a2,1
 2443 00da 93850900 		addi	a1,s3,%lo(.LC1)
 2444 00de 2285     		mv	a0,s0
 2445 00e0 97000000 		call	SHA1Update
 2445      E7800000 
 2446              	.LVL268:
 2447 00e8 B5B7     		j	.L21
 2448              		.cfi_endproc
 2449              	.LFE436:
 2451              		.section	.rodata
 2452              		.align	2
 2453              	.LC1:
 2454 0000 00       		.string	""
 2455 0001 00       		.string	""
 2456              		.text
 2457              	.Letext0:
 2458              		.file 2 "c:\\users\\stapi\\onedrive\\desktop\\gd32vw553\\embeddedbuilder_v1.4.7.26843\\tools\\nucl
 2459              		.file 3 "c:\\users\\stapi\\onedrive\\desktop\\gd32vw553\\embeddedbuilder_v1.4.7.26843\\tools\\nucl
 2460              		.file 4 "c:\\users\\stapi\\onedrive\\desktop\\gd32vw553\\embeddedbuilder_v1.4.7.26843\\tools\\nucl
 2461              		.file 5 "..\\..\\..\\..\\wpa_supplicant\\src\\utils/common.h"
 2462              		.file 6 "C:/Users/stapi/OneDrive/Desktop/GD32VW553/V1_MQTT_OK/GD32VW55X_Wifi_BLE_SDK/GD32VW55x_REL
 2463              		.file 7 "..\\..\\..\\..\\wpa_supplicant\\src\\utils/os.h"
 2464              		.file 8 "..\\..\\..\\..\\macsw\\import/rtos_import.h"
 2465              		.file 9 "..\\..\\..\\..\\plf\\GD32VW55x_standard_peripheral\\Include/gd32vw55x_hau.h"
 2466              		.file 10 "..\\..\\..\\..\\plf\\riscv\\gd32vw55x/gd32vw55x.h"