   1              		.file	"sha1-pbkdf2.c"
   2              		.option nopic
   3              		.attribute arch, "rv32i2p0_m2p0_a2p0_f2p0_c2p0_b_p0p94"
   4              		.attribute unaligned_access, 0
   5              		.attribute stack_align, 16
   6              		.text
   7              	.Ltext0:
   8              		.cfi_sections	.debug_frame
   9              		.section	.text.pbkdf2_sha1,"ax",@progbits
  10              		.align	1
  11              		.globl	pbkdf2_sha1
  13              	pbkdf2_sha1:
  14              	.LFB72:
  15              		.file 1 "C:/Users/stapi/OneDrive/Desktop/GD32VW553/V1_MQTT_OK/GD32VW55X_Wifi_BLE_SDK/GD32VW55x_REL
   1:C:/Users/stapi/OneDrive/Desktop/GD32VW553/V1_MQTT_OK/GD32VW55X_Wifi_BLE_SDK/GD32VW55x_RELEASE_V1.0.2/MSDK/wpa_supplicant/src/crypto\sha1-pbkdf2.c **** /*
   2:C:/Users/stapi/OneDrive/Desktop/GD32VW553/V1_MQTT_OK/GD32VW55X_Wifi_BLE_SDK/GD32VW55x_RELEASE_V1.0.2/MSDK/wpa_supplicant/src/crypto\sha1-pbkdf2.c ****  * SHA1-based key derivation function (PBKDF2) for IEEE 802.11i
   3:C:/Users/stapi/OneDrive/Desktop/GD32VW553/V1_MQTT_OK/GD32VW55X_Wifi_BLE_SDK/GD32VW55x_RELEASE_V1.0.2/MSDK/wpa_supplicant/src/crypto\sha1-pbkdf2.c ****  * Copyright (c) 2003-2005, Jouni Malinen <j@w1.fi>
   4:C:/Users/stapi/OneDrive/Desktop/GD32VW553/V1_MQTT_OK/GD32VW55X_Wifi_BLE_SDK/GD32VW55x_RELEASE_V1.0.2/MSDK/wpa_supplicant/src/crypto\sha1-pbkdf2.c ****  *
   5:C:/Users/stapi/OneDrive/Desktop/GD32VW553/V1_MQTT_OK/GD32VW55X_Wifi_BLE_SDK/GD32VW55x_RELEASE_V1.0.2/MSDK/wpa_supplicant/src/crypto\sha1-pbkdf2.c ****  * This software may be distributed under the terms of the BSD license.
   6:C:/Users/stapi/OneDrive/Desktop/GD32VW553/V1_MQTT_OK/GD32VW55X_Wifi_BLE_SDK/GD32VW55x_RELEASE_V1.0.2/MSDK/wpa_supplicant/src/crypto\sha1-pbkdf2.c ****  * See README for more details.
   7:C:/Users/stapi/OneDrive/Desktop/GD32VW553/V1_MQTT_OK/GD32VW55X_Wifi_BLE_SDK/GD32VW55x_RELEASE_V1.0.2/MSDK/wpa_supplicant/src/crypto\sha1-pbkdf2.c ****  */
   8:C:/Users/stapi/OneDrive/Desktop/GD32VW553/V1_MQTT_OK/GD32VW55X_Wifi_BLE_SDK/GD32VW55x_RELEASE_V1.0.2/MSDK/wpa_supplicant/src/crypto\sha1-pbkdf2.c **** 
   9:C:/Users/stapi/OneDrive/Desktop/GD32VW553/V1_MQTT_OK/GD32VW55X_Wifi_BLE_SDK/GD32VW55x_RELEASE_V1.0.2/MSDK/wpa_supplicant/src/crypto\sha1-pbkdf2.c **** #include "includes.h"
  10:C:/Users/stapi/OneDrive/Desktop/GD32VW553/V1_MQTT_OK/GD32VW55X_Wifi_BLE_SDK/GD32VW55x_RELEASE_V1.0.2/MSDK/wpa_supplicant/src/crypto\sha1-pbkdf2.c **** 
  11:C:/Users/stapi/OneDrive/Desktop/GD32VW553/V1_MQTT_OK/GD32VW55X_Wifi_BLE_SDK/GD32VW55x_RELEASE_V1.0.2/MSDK/wpa_supplicant/src/crypto\sha1-pbkdf2.c **** #include "common.h"
  12:C:/Users/stapi/OneDrive/Desktop/GD32VW553/V1_MQTT_OK/GD32VW55X_Wifi_BLE_SDK/GD32VW55x_RELEASE_V1.0.2/MSDK/wpa_supplicant/src/crypto\sha1-pbkdf2.c **** #include "sha1.h"
  13:C:/Users/stapi/OneDrive/Desktop/GD32VW553/V1_MQTT_OK/GD32VW55X_Wifi_BLE_SDK/GD32VW55x_RELEASE_V1.0.2/MSDK/wpa_supplicant/src/crypto\sha1-pbkdf2.c **** 
  14:C:/Users/stapi/OneDrive/Desktop/GD32VW553/V1_MQTT_OK/GD32VW55X_Wifi_BLE_SDK/GD32VW55x_RELEASE_V1.0.2/MSDK/wpa_supplicant/src/crypto\sha1-pbkdf2.c **** static int pbkdf2_sha1_f(const char *passphrase, const u8 *ssid,
  15:C:/Users/stapi/OneDrive/Desktop/GD32VW553/V1_MQTT_OK/GD32VW55X_Wifi_BLE_SDK/GD32VW55x_RELEASE_V1.0.2/MSDK/wpa_supplicant/src/crypto\sha1-pbkdf2.c **** 			 size_t ssid_len, int iterations, unsigned int count,
  16:C:/Users/stapi/OneDrive/Desktop/GD32VW553/V1_MQTT_OK/GD32VW55X_Wifi_BLE_SDK/GD32VW55x_RELEASE_V1.0.2/MSDK/wpa_supplicant/src/crypto\sha1-pbkdf2.c **** 			 u8 *digest)
  17:C:/Users/stapi/OneDrive/Desktop/GD32VW553/V1_MQTT_OK/GD32VW55X_Wifi_BLE_SDK/GD32VW55x_RELEASE_V1.0.2/MSDK/wpa_supplicant/src/crypto\sha1-pbkdf2.c **** {
  18:C:/Users/stapi/OneDrive/Desktop/GD32VW553/V1_MQTT_OK/GD32VW55X_Wifi_BLE_SDK/GD32VW55x_RELEASE_V1.0.2/MSDK/wpa_supplicant/src/crypto\sha1-pbkdf2.c **** 	unsigned char tmp[SHA1_MAC_LEN], tmp2[SHA1_MAC_LEN];
  19:C:/Users/stapi/OneDrive/Desktop/GD32VW553/V1_MQTT_OK/GD32VW55X_Wifi_BLE_SDK/GD32VW55x_RELEASE_V1.0.2/MSDK/wpa_supplicant/src/crypto\sha1-pbkdf2.c **** 	int i, j;
  20:C:/Users/stapi/OneDrive/Desktop/GD32VW553/V1_MQTT_OK/GD32VW55X_Wifi_BLE_SDK/GD32VW55x_RELEASE_V1.0.2/MSDK/wpa_supplicant/src/crypto\sha1-pbkdf2.c **** 	unsigned char count_buf[4];
  21:C:/Users/stapi/OneDrive/Desktop/GD32VW553/V1_MQTT_OK/GD32VW55X_Wifi_BLE_SDK/GD32VW55x_RELEASE_V1.0.2/MSDK/wpa_supplicant/src/crypto\sha1-pbkdf2.c **** 	const u8 *addr[2];
  22:C:/Users/stapi/OneDrive/Desktop/GD32VW553/V1_MQTT_OK/GD32VW55X_Wifi_BLE_SDK/GD32VW55x_RELEASE_V1.0.2/MSDK/wpa_supplicant/src/crypto\sha1-pbkdf2.c **** 	size_t len[2];
  23:C:/Users/stapi/OneDrive/Desktop/GD32VW553/V1_MQTT_OK/GD32VW55X_Wifi_BLE_SDK/GD32VW55x_RELEASE_V1.0.2/MSDK/wpa_supplicant/src/crypto\sha1-pbkdf2.c **** 	size_t passphrase_len = os_strlen(passphrase);
  24:C:/Users/stapi/OneDrive/Desktop/GD32VW553/V1_MQTT_OK/GD32VW55X_Wifi_BLE_SDK/GD32VW55x_RELEASE_V1.0.2/MSDK/wpa_supplicant/src/crypto\sha1-pbkdf2.c **** 
  25:C:/Users/stapi/OneDrive/Desktop/GD32VW553/V1_MQTT_OK/GD32VW55X_Wifi_BLE_SDK/GD32VW55x_RELEASE_V1.0.2/MSDK/wpa_supplicant/src/crypto\sha1-pbkdf2.c **** 	addr[0] = ssid;
  26:C:/Users/stapi/OneDrive/Desktop/GD32VW553/V1_MQTT_OK/GD32VW55X_Wifi_BLE_SDK/GD32VW55x_RELEASE_V1.0.2/MSDK/wpa_supplicant/src/crypto\sha1-pbkdf2.c **** 	len[0] = ssid_len;
  27:C:/Users/stapi/OneDrive/Desktop/GD32VW553/V1_MQTT_OK/GD32VW55X_Wifi_BLE_SDK/GD32VW55x_RELEASE_V1.0.2/MSDK/wpa_supplicant/src/crypto\sha1-pbkdf2.c **** 	addr[1] = count_buf;
  28:C:/Users/stapi/OneDrive/Desktop/GD32VW553/V1_MQTT_OK/GD32VW55X_Wifi_BLE_SDK/GD32VW55x_RELEASE_V1.0.2/MSDK/wpa_supplicant/src/crypto\sha1-pbkdf2.c **** 	len[1] = 4;
  29:C:/Users/stapi/OneDrive/Desktop/GD32VW553/V1_MQTT_OK/GD32VW55X_Wifi_BLE_SDK/GD32VW55x_RELEASE_V1.0.2/MSDK/wpa_supplicant/src/crypto\sha1-pbkdf2.c **** 
  30:C:/Users/stapi/OneDrive/Desktop/GD32VW553/V1_MQTT_OK/GD32VW55X_Wifi_BLE_SDK/GD32VW55x_RELEASE_V1.0.2/MSDK/wpa_supplicant/src/crypto\sha1-pbkdf2.c **** 	/* F(P, S, c, i) = U1 xor U2 xor ... Uc
  31:C:/Users/stapi/OneDrive/Desktop/GD32VW553/V1_MQTT_OK/GD32VW55X_Wifi_BLE_SDK/GD32VW55x_RELEASE_V1.0.2/MSDK/wpa_supplicant/src/crypto\sha1-pbkdf2.c **** 	 * U1 = PRF(P, S || i)
  32:C:/Users/stapi/OneDrive/Desktop/GD32VW553/V1_MQTT_OK/GD32VW55X_Wifi_BLE_SDK/GD32VW55x_RELEASE_V1.0.2/MSDK/wpa_supplicant/src/crypto\sha1-pbkdf2.c **** 	 * U2 = PRF(P, U1)
  33:C:/Users/stapi/OneDrive/Desktop/GD32VW553/V1_MQTT_OK/GD32VW55X_Wifi_BLE_SDK/GD32VW55x_RELEASE_V1.0.2/MSDK/wpa_supplicant/src/crypto\sha1-pbkdf2.c **** 	 * Uc = PRF(P, Uc-1)
  34:C:/Users/stapi/OneDrive/Desktop/GD32VW553/V1_MQTT_OK/GD32VW55X_Wifi_BLE_SDK/GD32VW55x_RELEASE_V1.0.2/MSDK/wpa_supplicant/src/crypto\sha1-pbkdf2.c **** 	 */
  35:C:/Users/stapi/OneDrive/Desktop/GD32VW553/V1_MQTT_OK/GD32VW55X_Wifi_BLE_SDK/GD32VW55x_RELEASE_V1.0.2/MSDK/wpa_supplicant/src/crypto\sha1-pbkdf2.c **** 
  36:C:/Users/stapi/OneDrive/Desktop/GD32VW553/V1_MQTT_OK/GD32VW55X_Wifi_BLE_SDK/GD32VW55x_RELEASE_V1.0.2/MSDK/wpa_supplicant/src/crypto\sha1-pbkdf2.c **** 	count_buf[0] = (count >> 24) & 0xff;
  37:C:/Users/stapi/OneDrive/Desktop/GD32VW553/V1_MQTT_OK/GD32VW55X_Wifi_BLE_SDK/GD32VW55x_RELEASE_V1.0.2/MSDK/wpa_supplicant/src/crypto\sha1-pbkdf2.c **** 	count_buf[1] = (count >> 16) & 0xff;
  38:C:/Users/stapi/OneDrive/Desktop/GD32VW553/V1_MQTT_OK/GD32VW55X_Wifi_BLE_SDK/GD32VW55x_RELEASE_V1.0.2/MSDK/wpa_supplicant/src/crypto\sha1-pbkdf2.c **** 	count_buf[2] = (count >> 8) & 0xff;
  39:C:/Users/stapi/OneDrive/Desktop/GD32VW553/V1_MQTT_OK/GD32VW55X_Wifi_BLE_SDK/GD32VW55x_RELEASE_V1.0.2/MSDK/wpa_supplicant/src/crypto\sha1-pbkdf2.c **** 	count_buf[3] = count & 0xff;
  40:C:/Users/stapi/OneDrive/Desktop/GD32VW553/V1_MQTT_OK/GD32VW55X_Wifi_BLE_SDK/GD32VW55x_RELEASE_V1.0.2/MSDK/wpa_supplicant/src/crypto\sha1-pbkdf2.c **** 	if (hmac_sha1_vector((u8 *) passphrase, passphrase_len, 2, addr, len,
  41:C:/Users/stapi/OneDrive/Desktop/GD32VW553/V1_MQTT_OK/GD32VW55X_Wifi_BLE_SDK/GD32VW55x_RELEASE_V1.0.2/MSDK/wpa_supplicant/src/crypto\sha1-pbkdf2.c **** 			     tmp))
  42:C:/Users/stapi/OneDrive/Desktop/GD32VW553/V1_MQTT_OK/GD32VW55X_Wifi_BLE_SDK/GD32VW55x_RELEASE_V1.0.2/MSDK/wpa_supplicant/src/crypto\sha1-pbkdf2.c **** 		return -1;
  43:C:/Users/stapi/OneDrive/Desktop/GD32VW553/V1_MQTT_OK/GD32VW55X_Wifi_BLE_SDK/GD32VW55x_RELEASE_V1.0.2/MSDK/wpa_supplicant/src/crypto\sha1-pbkdf2.c **** 	os_memcpy(digest, tmp, SHA1_MAC_LEN);
  44:C:/Users/stapi/OneDrive/Desktop/GD32VW553/V1_MQTT_OK/GD32VW55X_Wifi_BLE_SDK/GD32VW55x_RELEASE_V1.0.2/MSDK/wpa_supplicant/src/crypto\sha1-pbkdf2.c **** 
  45:C:/Users/stapi/OneDrive/Desktop/GD32VW553/V1_MQTT_OK/GD32VW55X_Wifi_BLE_SDK/GD32VW55x_RELEASE_V1.0.2/MSDK/wpa_supplicant/src/crypto\sha1-pbkdf2.c **** 	for (i = 1; i < iterations; i++) {
  46:C:/Users/stapi/OneDrive/Desktop/GD32VW553/V1_MQTT_OK/GD32VW55X_Wifi_BLE_SDK/GD32VW55x_RELEASE_V1.0.2/MSDK/wpa_supplicant/src/crypto\sha1-pbkdf2.c **** 		if (hmac_sha1((u8 *) passphrase, passphrase_len, tmp,
  47:C:/Users/stapi/OneDrive/Desktop/GD32VW553/V1_MQTT_OK/GD32VW55X_Wifi_BLE_SDK/GD32VW55x_RELEASE_V1.0.2/MSDK/wpa_supplicant/src/crypto\sha1-pbkdf2.c **** 			      SHA1_MAC_LEN, tmp2))
  48:C:/Users/stapi/OneDrive/Desktop/GD32VW553/V1_MQTT_OK/GD32VW55X_Wifi_BLE_SDK/GD32VW55x_RELEASE_V1.0.2/MSDK/wpa_supplicant/src/crypto\sha1-pbkdf2.c **** 			return -1;
  49:C:/Users/stapi/OneDrive/Desktop/GD32VW553/V1_MQTT_OK/GD32VW55X_Wifi_BLE_SDK/GD32VW55x_RELEASE_V1.0.2/MSDK/wpa_supplicant/src/crypto\sha1-pbkdf2.c **** 		os_memcpy(tmp, tmp2, SHA1_MAC_LEN);
  50:C:/Users/stapi/OneDrive/Desktop/GD32VW553/V1_MQTT_OK/GD32VW55X_Wifi_BLE_SDK/GD32VW55x_RELEASE_V1.0.2/MSDK/wpa_supplicant/src/crypto\sha1-pbkdf2.c **** 		for (j = 0; j < SHA1_MAC_LEN; j++)
  51:C:/Users/stapi/OneDrive/Desktop/GD32VW553/V1_MQTT_OK/GD32VW55X_Wifi_BLE_SDK/GD32VW55x_RELEASE_V1.0.2/MSDK/wpa_supplicant/src/crypto\sha1-pbkdf2.c **** 			digest[j] ^= tmp2[j];
  52:C:/Users/stapi/OneDrive/Desktop/GD32VW553/V1_MQTT_OK/GD32VW55X_Wifi_BLE_SDK/GD32VW55x_RELEASE_V1.0.2/MSDK/wpa_supplicant/src/crypto\sha1-pbkdf2.c **** 	}
  53:C:/Users/stapi/OneDrive/Desktop/GD32VW553/V1_MQTT_OK/GD32VW55X_Wifi_BLE_SDK/GD32VW55x_RELEASE_V1.0.2/MSDK/wpa_supplicant/src/crypto\sha1-pbkdf2.c **** 
  54:C:/Users/stapi/OneDrive/Desktop/GD32VW553/V1_MQTT_OK/GD32VW55X_Wifi_BLE_SDK/GD32VW55x_RELEASE_V1.0.2/MSDK/wpa_supplicant/src/crypto\sha1-pbkdf2.c **** 	return 0;
  55:C:/Users/stapi/OneDrive/Desktop/GD32VW553/V1_MQTT_OK/GD32VW55X_Wifi_BLE_SDK/GD32VW55x_RELEASE_V1.0.2/MSDK/wpa_supplicant/src/crypto\sha1-pbkdf2.c **** }
  56:C:/Users/stapi/OneDrive/Desktop/GD32VW553/V1_MQTT_OK/GD32VW55X_Wifi_BLE_SDK/GD32VW55x_RELEASE_V1.0.2/MSDK/wpa_supplicant/src/crypto\sha1-pbkdf2.c **** 
  57:C:/Users/stapi/OneDrive/Desktop/GD32VW553/V1_MQTT_OK/GD32VW55X_Wifi_BLE_SDK/GD32VW55x_RELEASE_V1.0.2/MSDK/wpa_supplicant/src/crypto\sha1-pbkdf2.c **** 
  58:C:/Users/stapi/OneDrive/Desktop/GD32VW553/V1_MQTT_OK/GD32VW55X_Wifi_BLE_SDK/GD32VW55x_RELEASE_V1.0.2/MSDK/wpa_supplicant/src/crypto\sha1-pbkdf2.c **** /**
  59:C:/Users/stapi/OneDrive/Desktop/GD32VW553/V1_MQTT_OK/GD32VW55X_Wifi_BLE_SDK/GD32VW55x_RELEASE_V1.0.2/MSDK/wpa_supplicant/src/crypto\sha1-pbkdf2.c ****  * pbkdf2_sha1 - SHA1-based key derivation function (PBKDF2) for IEEE 802.11i
  60:C:/Users/stapi/OneDrive/Desktop/GD32VW553/V1_MQTT_OK/GD32VW55X_Wifi_BLE_SDK/GD32VW55x_RELEASE_V1.0.2/MSDK/wpa_supplicant/src/crypto\sha1-pbkdf2.c ****  * @passphrase: ASCII passphrase
  61:C:/Users/stapi/OneDrive/Desktop/GD32VW553/V1_MQTT_OK/GD32VW55X_Wifi_BLE_SDK/GD32VW55x_RELEASE_V1.0.2/MSDK/wpa_supplicant/src/crypto\sha1-pbkdf2.c ****  * @ssid: SSID
  62:C:/Users/stapi/OneDrive/Desktop/GD32VW553/V1_MQTT_OK/GD32VW55X_Wifi_BLE_SDK/GD32VW55x_RELEASE_V1.0.2/MSDK/wpa_supplicant/src/crypto\sha1-pbkdf2.c ****  * @ssid_len: SSID length in bytes
  63:C:/Users/stapi/OneDrive/Desktop/GD32VW553/V1_MQTT_OK/GD32VW55X_Wifi_BLE_SDK/GD32VW55x_RELEASE_V1.0.2/MSDK/wpa_supplicant/src/crypto\sha1-pbkdf2.c ****  * @iterations: Number of iterations to run
  64:C:/Users/stapi/OneDrive/Desktop/GD32VW553/V1_MQTT_OK/GD32VW55X_Wifi_BLE_SDK/GD32VW55x_RELEASE_V1.0.2/MSDK/wpa_supplicant/src/crypto\sha1-pbkdf2.c ****  * @buf: Buffer for the generated key
  65:C:/Users/stapi/OneDrive/Desktop/GD32VW553/V1_MQTT_OK/GD32VW55X_Wifi_BLE_SDK/GD32VW55x_RELEASE_V1.0.2/MSDK/wpa_supplicant/src/crypto\sha1-pbkdf2.c ****  * @buflen: Length of the buffer in bytes
  66:C:/Users/stapi/OneDrive/Desktop/GD32VW553/V1_MQTT_OK/GD32VW55X_Wifi_BLE_SDK/GD32VW55x_RELEASE_V1.0.2/MSDK/wpa_supplicant/src/crypto\sha1-pbkdf2.c ****  * Returns: 0 on success, -1 of failure
  67:C:/Users/stapi/OneDrive/Desktop/GD32VW553/V1_MQTT_OK/GD32VW55X_Wifi_BLE_SDK/GD32VW55x_RELEASE_V1.0.2/MSDK/wpa_supplicant/src/crypto\sha1-pbkdf2.c ****  *
  68:C:/Users/stapi/OneDrive/Desktop/GD32VW553/V1_MQTT_OK/GD32VW55X_Wifi_BLE_SDK/GD32VW55x_RELEASE_V1.0.2/MSDK/wpa_supplicant/src/crypto\sha1-pbkdf2.c ****  * This function is used to derive PSK for WPA-PSK. For this protocol,
  69:C:/Users/stapi/OneDrive/Desktop/GD32VW553/V1_MQTT_OK/GD32VW55X_Wifi_BLE_SDK/GD32VW55x_RELEASE_V1.0.2/MSDK/wpa_supplicant/src/crypto\sha1-pbkdf2.c ****  * iterations is set to 4096 and buflen to 32. This function is described in
  70:C:/Users/stapi/OneDrive/Desktop/GD32VW553/V1_MQTT_OK/GD32VW55X_Wifi_BLE_SDK/GD32VW55x_RELEASE_V1.0.2/MSDK/wpa_supplicant/src/crypto\sha1-pbkdf2.c ****  * IEEE Std 802.11-2004, Clause H.4. The main construction is from PKCS#5 v2.0.
  71:C:/Users/stapi/OneDrive/Desktop/GD32VW553/V1_MQTT_OK/GD32VW55X_Wifi_BLE_SDK/GD32VW55x_RELEASE_V1.0.2/MSDK/wpa_supplicant/src/crypto\sha1-pbkdf2.c ****  */
  72:C:/Users/stapi/OneDrive/Desktop/GD32VW553/V1_MQTT_OK/GD32VW55X_Wifi_BLE_SDK/GD32VW55x_RELEASE_V1.0.2/MSDK/wpa_supplicant/src/crypto\sha1-pbkdf2.c **** int pbkdf2_sha1(const char *passphrase, const u8 *ssid, size_t ssid_len,
  73:C:/Users/stapi/OneDrive/Desktop/GD32VW553/V1_MQTT_OK/GD32VW55X_Wifi_BLE_SDK/GD32VW55x_RELEASE_V1.0.2/MSDK/wpa_supplicant/src/crypto\sha1-pbkdf2.c **** 		int iterations, u8 *buf, size_t buflen)
  74:C:/Users/stapi/OneDrive/Desktop/GD32VW553/V1_MQTT_OK/GD32VW55X_Wifi_BLE_SDK/GD32VW55x_RELEASE_V1.0.2/MSDK/wpa_supplicant/src/crypto\sha1-pbkdf2.c **** {
  16              		.loc 1 74 1
  17              		.cfi_startproc
  18              	.LVL0:
  19 0000 17030000 		call	t0,__riscv_save_11
  19      E7020300 
  20              		.cfi_offset 26, -48
  21              		.cfi_offset 25, -44
  22              		.cfi_offset 24, -40
  23              		.cfi_offset 23, -36
  24              		.cfi_offset 22, -32
  25              		.cfi_offset 21, -28
  26              		.cfi_offset 20, -24
  27              		.cfi_offset 19, -20
  28              		.cfi_offset 18, -16
  29              		.cfi_offset 9, -12
  30              		.cfi_offset 8, -8
  31              		.cfi_offset 1, -4
  32              		.cfi_def_cfa_offset 48
  75:C:/Users/stapi/OneDrive/Desktop/GD32VW553/V1_MQTT_OK/GD32VW55X_Wifi_BLE_SDK/GD32VW55x_RELEASE_V1.0.2/MSDK/wpa_supplicant/src/crypto\sha1-pbkdf2.c **** 	unsigned int count = 0;
  33              		.loc 1 75 2
  34              	.LVL1:
  76:C:/Users/stapi/OneDrive/Desktop/GD32VW553/V1_MQTT_OK/GD32VW55X_Wifi_BLE_SDK/GD32VW55x_RELEASE_V1.0.2/MSDK/wpa_supplicant/src/crypto\sha1-pbkdf2.c **** 	unsigned char *pos = buf;
  35              		.loc 1 76 2
  74:C:/Users/stapi/OneDrive/Desktop/GD32VW553/V1_MQTT_OK/GD32VW55X_Wifi_BLE_SDK/GD32VW55x_RELEASE_V1.0.2/MSDK/wpa_supplicant/src/crypto\sha1-pbkdf2.c **** 	unsigned int count = 0;
  36              		.loc 1 74 1 is_stmt 0
  37 0008 5D71     		addi	sp,sp,-80
  38              		.cfi_def_cfa_offset 128
  74:C:/Users/stapi/OneDrive/Desktop/GD32VW553/V1_MQTT_OK/GD32VW55X_Wifi_BLE_SDK/GD32VW55x_RELEASE_V1.0.2/MSDK/wpa_supplicant/src/crypto\sha1-pbkdf2.c **** 	unsigned int count = 0;
  39              		.loc 1 74 1
  40 000a AA89     		mv	s3,a0
  41 000c AE8A     		mv	s5,a1
  42 000e 328B     		mv	s6,a2
  43 0010 B68B     		mv	s7,a3
  44 0012 3A89     		mv	s2,a4
  45              	.LVL2:
  77:C:/Users/stapi/OneDrive/Desktop/GD32VW553/V1_MQTT_OK/GD32VW55X_Wifi_BLE_SDK/GD32VW55x_RELEASE_V1.0.2/MSDK/wpa_supplicant/src/crypto\sha1-pbkdf2.c **** 	size_t left = buflen, plen;
  46              		.loc 1 77 2 is_stmt 1
  74:C:/Users/stapi/OneDrive/Desktop/GD32VW553/V1_MQTT_OK/GD32VW55X_Wifi_BLE_SDK/GD32VW55x_RELEASE_V1.0.2/MSDK/wpa_supplicant/src/crypto\sha1-pbkdf2.c **** 	unsigned int count = 0;
  47              		.loc 1 74 1 is_stmt 0
  48 0014 BE84     		mv	s1,a5
  49              	.LVL3:
  78:C:/Users/stapi/OneDrive/Desktop/GD32VW553/V1_MQTT_OK/GD32VW55X_Wifi_BLE_SDK/GD32VW55x_RELEASE_V1.0.2/MSDK/wpa_supplicant/src/crypto\sha1-pbkdf2.c **** 	unsigned char digest[SHA1_MAC_LEN];
  50              		.loc 1 78 2 is_stmt 1
  79:C:/Users/stapi/OneDrive/Desktop/GD32VW553/V1_MQTT_OK/GD32VW55X_Wifi_BLE_SDK/GD32VW55x_RELEASE_V1.0.2/MSDK/wpa_supplicant/src/crypto\sha1-pbkdf2.c **** 
  80:C:/Users/stapi/OneDrive/Desktop/GD32VW553/V1_MQTT_OK/GD32VW55X_Wifi_BLE_SDK/GD32VW55x_RELEASE_V1.0.2/MSDK/wpa_supplicant/src/crypto\sha1-pbkdf2.c **** 	while (left > 0) {
  51              		.loc 1 80 2
  75:C:/Users/stapi/OneDrive/Desktop/GD32VW553/V1_MQTT_OK/GD32VW55X_Wifi_BLE_SDK/GD32VW55x_RELEASE_V1.0.2/MSDK/wpa_supplicant/src/crypto\sha1-pbkdf2.c **** 	unsigned char *pos = buf;
  52              		.loc 1 75 15 is_stmt 0
  53 0016 014A     		li	s4,0
  54              	.LBB4:
  55              	.LBB5:
  28:C:/Users/stapi/OneDrive/Desktop/GD32VW553/V1_MQTT_OK/GD32VW55X_Wifi_BLE_SDK/GD32VW55x_RELEASE_V1.0.2/MSDK/wpa_supplicant/src/crypto\sha1-pbkdf2.c **** 
  56              		.loc 1 28 9
  57 0018 114C     		li	s8,4
  58              	.LVL4:
  59              	.L2:
  60              	.LBE5:
  61              	.LBE4:
  62              		.loc 1 80 8 is_stmt 1
  63 001a 99E0     		bne	s1,zero,.L10
  81:C:/Users/stapi/OneDrive/Desktop/GD32VW553/V1_MQTT_OK/GD32VW55X_Wifi_BLE_SDK/GD32VW55x_RELEASE_V1.0.2/MSDK/wpa_supplicant/src/crypto\sha1-pbkdf2.c **** 		count++;
  82:C:/Users/stapi/OneDrive/Desktop/GD32VW553/V1_MQTT_OK/GD32VW55X_Wifi_BLE_SDK/GD32VW55x_RELEASE_V1.0.2/MSDK/wpa_supplicant/src/crypto\sha1-pbkdf2.c **** 		if (pbkdf2_sha1_f(passphrase, ssid, ssid_len, iterations,
  83:C:/Users/stapi/OneDrive/Desktop/GD32VW553/V1_MQTT_OK/GD32VW55X_Wifi_BLE_SDK/GD32VW55x_RELEASE_V1.0.2/MSDK/wpa_supplicant/src/crypto\sha1-pbkdf2.c **** 				  count, digest))
  84:C:/Users/stapi/OneDrive/Desktop/GD32VW553/V1_MQTT_OK/GD32VW55X_Wifi_BLE_SDK/GD32VW55x_RELEASE_V1.0.2/MSDK/wpa_supplicant/src/crypto\sha1-pbkdf2.c **** 			return -1;
  85:C:/Users/stapi/OneDrive/Desktop/GD32VW553/V1_MQTT_OK/GD32VW55X_Wifi_BLE_SDK/GD32VW55x_RELEASE_V1.0.2/MSDK/wpa_supplicant/src/crypto\sha1-pbkdf2.c **** 		plen = left > SHA1_MAC_LEN ? SHA1_MAC_LEN : left;
  86:C:/Users/stapi/OneDrive/Desktop/GD32VW553/V1_MQTT_OK/GD32VW55X_Wifi_BLE_SDK/GD32VW55x_RELEASE_V1.0.2/MSDK/wpa_supplicant/src/crypto\sha1-pbkdf2.c **** 		os_memcpy(pos, digest, plen);
  87:C:/Users/stapi/OneDrive/Desktop/GD32VW553/V1_MQTT_OK/GD32VW55X_Wifi_BLE_SDK/GD32VW55x_RELEASE_V1.0.2/MSDK/wpa_supplicant/src/crypto\sha1-pbkdf2.c **** 		pos += plen;
  88:C:/Users/stapi/OneDrive/Desktop/GD32VW553/V1_MQTT_OK/GD32VW55X_Wifi_BLE_SDK/GD32VW55x_RELEASE_V1.0.2/MSDK/wpa_supplicant/src/crypto\sha1-pbkdf2.c **** 		left -= plen;
  89:C:/Users/stapi/OneDrive/Desktop/GD32VW553/V1_MQTT_OK/GD32VW55X_Wifi_BLE_SDK/GD32VW55x_RELEASE_V1.0.2/MSDK/wpa_supplicant/src/crypto\sha1-pbkdf2.c **** 	}
  90:C:/Users/stapi/OneDrive/Desktop/GD32VW553/V1_MQTT_OK/GD32VW55X_Wifi_BLE_SDK/GD32VW55x_RELEASE_V1.0.2/MSDK/wpa_supplicant/src/crypto\sha1-pbkdf2.c **** 
  91:C:/Users/stapi/OneDrive/Desktop/GD32VW553/V1_MQTT_OK/GD32VW55X_Wifi_BLE_SDK/GD32VW55x_RELEASE_V1.0.2/MSDK/wpa_supplicant/src/crypto\sha1-pbkdf2.c **** 	return 0;
  64              		.loc 1 91 9 is_stmt 0
  65 001c 0145     		li	a0,0
  66 001e 1DA8     		j	.L1
  67              	.L10:
  81:C:/Users/stapi/OneDrive/Desktop/GD32VW553/V1_MQTT_OK/GD32VW55X_Wifi_BLE_SDK/GD32VW55x_RELEASE_V1.0.2/MSDK/wpa_supplicant/src/crypto\sha1-pbkdf2.c **** 		count++;
  68              		.loc 1 81 3 is_stmt 1
  69              	.LBB10:
  70              	.LBB6:
  23:C:/Users/stapi/OneDrive/Desktop/GD32VW553/V1_MQTT_OK/GD32VW55X_Wifi_BLE_SDK/GD32VW55x_RELEASE_V1.0.2/MSDK/wpa_supplicant/src/crypto\sha1-pbkdf2.c **** 
  71              		.loc 1 23 26 is_stmt 0
  72 0020 4E85     		mv	a0,s3
  73 0022 97000000 		call	os_strlen
  73      E7800000 
  74              	.LVL5:
  75              	.LBE6:
  76              	.LBE10:
  81:C:/Users/stapi/OneDrive/Desktop/GD32VW553/V1_MQTT_OK/GD32VW55X_Wifi_BLE_SDK/GD32VW55x_RELEASE_V1.0.2/MSDK/wpa_supplicant/src/crypto\sha1-pbkdf2.c **** 		count++;
  77              		.loc 1 81 8
  78 002a 050A     		addi	s4,s4,1
  79              	.LVL6:
  82:C:/Users/stapi/OneDrive/Desktop/GD32VW553/V1_MQTT_OK/GD32VW55X_Wifi_BLE_SDK/GD32VW55x_RELEASE_V1.0.2/MSDK/wpa_supplicant/src/crypto\sha1-pbkdf2.c **** 				  count, digest))
  80              		.loc 1 82 3 is_stmt 1
  81              	.LBB11:
  82              	.LBB7:
  18:C:/Users/stapi/OneDrive/Desktop/GD32VW553/V1_MQTT_OK/GD32VW55X_Wifi_BLE_SDK/GD32VW55x_RELEASE_V1.0.2/MSDK/wpa_supplicant/src/crypto\sha1-pbkdf2.c **** 	int i, j;
  83              		.loc 1 18 2
  19:C:/Users/stapi/OneDrive/Desktop/GD32VW553/V1_MQTT_OK/GD32VW55X_Wifi_BLE_SDK/GD32VW55x_RELEASE_V1.0.2/MSDK/wpa_supplicant/src/crypto\sha1-pbkdf2.c **** 	unsigned char count_buf[4];
  84              		.loc 1 19 2
  20:C:/Users/stapi/OneDrive/Desktop/GD32VW553/V1_MQTT_OK/GD32VW55X_Wifi_BLE_SDK/GD32VW55x_RELEASE_V1.0.2/MSDK/wpa_supplicant/src/crypto\sha1-pbkdf2.c **** 	const u8 *addr[2];
  85              		.loc 1 20 2
  21:C:/Users/stapi/OneDrive/Desktop/GD32VW553/V1_MQTT_OK/GD32VW55X_Wifi_BLE_SDK/GD32VW55x_RELEASE_V1.0.2/MSDK/wpa_supplicant/src/crypto\sha1-pbkdf2.c **** 	size_t len[2];
  86              		.loc 1 21 2
  22:C:/Users/stapi/OneDrive/Desktop/GD32VW553/V1_MQTT_OK/GD32VW55X_Wifi_BLE_SDK/GD32VW55x_RELEASE_V1.0.2/MSDK/wpa_supplicant/src/crypto\sha1-pbkdf2.c **** 	size_t passphrase_len = os_strlen(passphrase);
  87              		.loc 1 22 2
  23:C:/Users/stapi/OneDrive/Desktop/GD32VW553/V1_MQTT_OK/GD32VW55X_Wifi_BLE_SDK/GD32VW55x_RELEASE_V1.0.2/MSDK/wpa_supplicant/src/crypto\sha1-pbkdf2.c **** 
  88              		.loc 1 23 2
  89 002c 93578A69 		rev8	a5,s4
  23:C:/Users/stapi/OneDrive/Desktop/GD32VW553/V1_MQTT_OK/GD32VW55X_Wifi_BLE_SDK/GD32VW55x_RELEASE_V1.0.2/MSDK/wpa_supplicant/src/crypto\sha1-pbkdf2.c **** 
  90              		.loc 1 23 26 is_stmt 0
  91 0030 AA8C     		mv	s9,a0
  92              	.LVL7:
  25:C:/Users/stapi/OneDrive/Desktop/GD32VW553/V1_MQTT_OK/GD32VW55X_Wifi_BLE_SDK/GD32VW55x_RELEASE_V1.0.2/MSDK/wpa_supplicant/src/crypto\sha1-pbkdf2.c **** 	len[0] = ssid_len;
  93              		.loc 1 25 2 is_stmt 1
  36:C:/Users/stapi/OneDrive/Desktop/GD32VW553/V1_MQTT_OK/GD32VW55X_Wifi_BLE_SDK/GD32VW55x_RELEASE_V1.0.2/MSDK/wpa_supplicant/src/crypto\sha1-pbkdf2.c **** 	count_buf[1] = (count >> 16) & 0xff;
  94              		.loc 1 36 15 is_stmt 0
  95 0032 3EC0     		sw	a5,0(sp)
  40:C:/Users/stapi/OneDrive/Desktop/GD32VW553/V1_MQTT_OK/GD32VW55X_Wifi_BLE_SDK/GD32VW55x_RELEASE_V1.0.2/MSDK/wpa_supplicant/src/crypto\sha1-pbkdf2.c **** 			     tmp))
  96              		.loc 1 40 6
  97 0034 AA85     		mv	a1,a0
  98 0036 3C10     		addi	a5,sp,40
  99 0038 7800     		addi	a4,sp,12
 100 003a 5400     		addi	a3,sp,4
 101 003c 0946     		li	a2,2
 102 003e 4E85     		mv	a0,s3
 103              	.LVL8:
  25:C:/Users/stapi/OneDrive/Desktop/GD32VW553/V1_MQTT_OK/GD32VW55X_Wifi_BLE_SDK/GD32VW55x_RELEASE_V1.0.2/MSDK/wpa_supplicant/src/crypto\sha1-pbkdf2.c **** 	len[0] = ssid_len;
 104              		.loc 1 25 10
 105 0040 56C2     		sw	s5,4(sp)
  26:C:/Users/stapi/OneDrive/Desktop/GD32VW553/V1_MQTT_OK/GD32VW55X_Wifi_BLE_SDK/GD32VW55x_RELEASE_V1.0.2/MSDK/wpa_supplicant/src/crypto\sha1-pbkdf2.c **** 	addr[1] = count_buf;
 106              		.loc 1 26 2 is_stmt 1
  26:C:/Users/stapi/OneDrive/Desktop/GD32VW553/V1_MQTT_OK/GD32VW55X_Wifi_BLE_SDK/GD32VW55x_RELEASE_V1.0.2/MSDK/wpa_supplicant/src/crypto\sha1-pbkdf2.c **** 	addr[1] = count_buf;
 107              		.loc 1 26 9 is_stmt 0
 108 0042 5AC6     		sw	s6,12(sp)
  27:C:/Users/stapi/OneDrive/Desktop/GD32VW553/V1_MQTT_OK/GD32VW55X_Wifi_BLE_SDK/GD32VW55x_RELEASE_V1.0.2/MSDK/wpa_supplicant/src/crypto\sha1-pbkdf2.c **** 	len[1] = 4;
 109              		.loc 1 27 2 is_stmt 1
  27:C:/Users/stapi/OneDrive/Desktop/GD32VW553/V1_MQTT_OK/GD32VW55X_Wifi_BLE_SDK/GD32VW55x_RELEASE_V1.0.2/MSDK/wpa_supplicant/src/crypto\sha1-pbkdf2.c **** 	len[1] = 4;
 110              		.loc 1 27 10 is_stmt 0
 111 0044 0AC4     		sw	sp,8(sp)
  28:C:/Users/stapi/OneDrive/Desktop/GD32VW553/V1_MQTT_OK/GD32VW55X_Wifi_BLE_SDK/GD32VW55x_RELEASE_V1.0.2/MSDK/wpa_supplicant/src/crypto\sha1-pbkdf2.c **** 
 112              		.loc 1 28 2 is_stmt 1
  28:C:/Users/stapi/OneDrive/Desktop/GD32VW553/V1_MQTT_OK/GD32VW55X_Wifi_BLE_SDK/GD32VW55x_RELEASE_V1.0.2/MSDK/wpa_supplicant/src/crypto\sha1-pbkdf2.c **** 
 113              		.loc 1 28 9 is_stmt 0
 114 0046 62C8     		sw	s8,16(sp)
  36:C:/Users/stapi/OneDrive/Desktop/GD32VW553/V1_MQTT_OK/GD32VW55X_Wifi_BLE_SDK/GD32VW55x_RELEASE_V1.0.2/MSDK/wpa_supplicant/src/crypto\sha1-pbkdf2.c **** 	count_buf[1] = (count >> 16) & 0xff;
 115              		.loc 1 36 2 is_stmt 1
  37:C:/Users/stapi/OneDrive/Desktop/GD32VW553/V1_MQTT_OK/GD32VW55X_Wifi_BLE_SDK/GD32VW55x_RELEASE_V1.0.2/MSDK/wpa_supplicant/src/crypto\sha1-pbkdf2.c **** 	count_buf[2] = (count >> 8) & 0xff;
 116              		.loc 1 37 2
  38:C:/Users/stapi/OneDrive/Desktop/GD32VW553/V1_MQTT_OK/GD32VW55X_Wifi_BLE_SDK/GD32VW55x_RELEASE_V1.0.2/MSDK/wpa_supplicant/src/crypto\sha1-pbkdf2.c **** 	count_buf[3] = count & 0xff;
 117              		.loc 1 38 2
  39:C:/Users/stapi/OneDrive/Desktop/GD32VW553/V1_MQTT_OK/GD32VW55X_Wifi_BLE_SDK/GD32VW55x_RELEASE_V1.0.2/MSDK/wpa_supplicant/src/crypto\sha1-pbkdf2.c **** 	if (hmac_sha1_vector((u8 *) passphrase, passphrase_len, 2, addr, len,
 118              		.loc 1 39 2
  40:C:/Users/stapi/OneDrive/Desktop/GD32VW553/V1_MQTT_OK/GD32VW55X_Wifi_BLE_SDK/GD32VW55x_RELEASE_V1.0.2/MSDK/wpa_supplicant/src/crypto\sha1-pbkdf2.c **** 			     tmp))
 119              		.loc 1 40 2
  40:C:/Users/stapi/OneDrive/Desktop/GD32VW553/V1_MQTT_OK/GD32VW55X_Wifi_BLE_SDK/GD32VW55x_RELEASE_V1.0.2/MSDK/wpa_supplicant/src/crypto\sha1-pbkdf2.c **** 			     tmp))
 120              		.loc 1 40 6 is_stmt 0
 121 0048 97000000 		call	hmac_sha1_vector
 121      E7800000 
 122              	.LVL9:
  40:C:/Users/stapi/OneDrive/Desktop/GD32VW553/V1_MQTT_OK/GD32VW55X_Wifi_BLE_SDK/GD32VW55x_RELEASE_V1.0.2/MSDK/wpa_supplicant/src/crypto\sha1-pbkdf2.c **** 			     tmp))
 123              		.loc 1 40 5
 124 0050 19C5     		beq	a0,zero,.L3
 125              	.L6:
 126              	.LVL10:
 127              	.LBE7:
 128              	.LBE11:
  84:C:/Users/stapi/OneDrive/Desktop/GD32VW553/V1_MQTT_OK/GD32VW55X_Wifi_BLE_SDK/GD32VW55x_RELEASE_V1.0.2/MSDK/wpa_supplicant/src/crypto\sha1-pbkdf2.c **** 		plen = left > SHA1_MAC_LEN ? SHA1_MAC_LEN : left;
 129              		.loc 1 84 11
 130 0052 7D55     		li	a0,-1
 131              	.L1:
  92:C:/Users/stapi/OneDrive/Desktop/GD32VW553/V1_MQTT_OK/GD32VW55X_Wifi_BLE_SDK/GD32VW55x_RELEASE_V1.0.2/MSDK/wpa_supplicant/src/crypto\sha1-pbkdf2.c **** }
 132              		.loc 1 92 1
 133 0054 6161     		addi	sp,sp,80
 134              		.cfi_remember_state
 135              		.cfi_def_cfa_offset 0
 136 0056 17030000 		tail	__riscv_restore_11
 136      67000300 
 137              		.cfi_restore 26
 138              		.cfi_restore 25
 139              		.cfi_restore 24
 140              		.cfi_restore 23
 141              		.cfi_restore 22
 142              		.cfi_restore 21
 143              		.cfi_restore 20
 144              		.cfi_restore 19
 145              		.cfi_restore 18
 146              		.cfi_restore 9
 147              		.cfi_restore 8
 148              		.cfi_restore 1
 149              		.cfi_def_cfa_offset -48
 150              	.LVL11:
 151              	.L3:
 152              		.cfi_restore_state
 153              	.LBB12:
 154              	.LBB8:
  43:C:/Users/stapi/OneDrive/Desktop/GD32VW553/V1_MQTT_OK/GD32VW55X_Wifi_BLE_SDK/GD32VW55x_RELEASE_V1.0.2/MSDK/wpa_supplicant/src/crypto\sha1-pbkdf2.c **** 
 155              		.loc 1 43 2 is_stmt 1
 156 005e 5146     		li	a2,20
 157 0060 2C10     		addi	a1,sp,40
 158 0062 4808     		addi	a0,sp,20
 159              	.LVL12:
 160 0064 97000000 		call	os_memcpy
 160      E7800000 
 161              	.LVL13:
  45:C:/Users/stapi/OneDrive/Desktop/GD32VW553/V1_MQTT_OK/GD32VW55X_Wifi_BLE_SDK/GD32VW55x_RELEASE_V1.0.2/MSDK/wpa_supplicant/src/crypto\sha1-pbkdf2.c **** 		if (hmac_sha1((u8 *) passphrase, passphrase_len, tmp,
 162              		.loc 1 45 2
  45:C:/Users/stapi/OneDrive/Desktop/GD32VW553/V1_MQTT_OK/GD32VW55X_Wifi_BLE_SDK/GD32VW55x_RELEASE_V1.0.2/MSDK/wpa_supplicant/src/crypto\sha1-pbkdf2.c **** 		if (hmac_sha1((u8 *) passphrase, passphrase_len, tmp,
 163              		.loc 1 45 9 is_stmt 0
 164 006c 054D     		li	s10,1
 165              	.LVL14:
 166              	.L5:
  45:C:/Users/stapi/OneDrive/Desktop/GD32VW553/V1_MQTT_OK/GD32VW55X_Wifi_BLE_SDK/GD32VW55x_RELEASE_V1.0.2/MSDK/wpa_supplicant/src/crypto\sha1-pbkdf2.c **** 		if (hmac_sha1((u8 *) passphrase, passphrase_len, tmp,
 167              		.loc 1 45 14 is_stmt 1
  45:C:/Users/stapi/OneDrive/Desktop/GD32VW553/V1_MQTT_OK/GD32VW55X_Wifi_BLE_SDK/GD32VW55x_RELEASE_V1.0.2/MSDK/wpa_supplicant/src/crypto\sha1-pbkdf2.c **** 		if (hmac_sha1((u8 *) passphrase, passphrase_len, tmp,
 168              		.loc 1 45 2 is_stmt 0
 169 006e 634F7D01 		bgt	s7,s10,.L8
 170              	.LVL15:
 171              	.LBE8:
 172              	.LBE12:
  85:C:/Users/stapi/OneDrive/Desktop/GD32VW553/V1_MQTT_OK/GD32VW55X_Wifi_BLE_SDK/GD32VW55x_RELEASE_V1.0.2/MSDK/wpa_supplicant/src/crypto\sha1-pbkdf2.c **** 		os_memcpy(pos, digest, plen);
 173              		.loc 1 85 3 is_stmt 1
  85:C:/Users/stapi/OneDrive/Desktop/GD32VW553/V1_MQTT_OK/GD32VW55X_Wifi_BLE_SDK/GD32VW55x_RELEASE_V1.0.2/MSDK/wpa_supplicant/src/crypto\sha1-pbkdf2.c **** 		os_memcpy(pos, digest, plen);
 174              		.loc 1 85 8 is_stmt 0
 175 0072 5144     		li	s0,20
 176 0074 33D4840A 		minu	s0,s1,s0
 177              	.LVL16:
  86:C:/Users/stapi/OneDrive/Desktop/GD32VW553/V1_MQTT_OK/GD32VW55X_Wifi_BLE_SDK/GD32VW55x_RELEASE_V1.0.2/MSDK/wpa_supplicant/src/crypto\sha1-pbkdf2.c **** 		pos += plen;
 178              		.loc 1 86 3 is_stmt 1
 179 0078 4A85     		mv	a0,s2
 180 007a 2286     		mv	a2,s0
 181 007c 4C08     		addi	a1,sp,20
 182 007e 97000000 		call	os_memcpy
 182      E7800000 
 183              	.LVL17:
  87:C:/Users/stapi/OneDrive/Desktop/GD32VW553/V1_MQTT_OK/GD32VW55X_Wifi_BLE_SDK/GD32VW55x_RELEASE_V1.0.2/MSDK/wpa_supplicant/src/crypto\sha1-pbkdf2.c **** 		left -= plen;
 184              		.loc 1 87 3
  87:C:/Users/stapi/OneDrive/Desktop/GD32VW553/V1_MQTT_OK/GD32VW55X_Wifi_BLE_SDK/GD32VW55x_RELEASE_V1.0.2/MSDK/wpa_supplicant/src/crypto\sha1-pbkdf2.c **** 		left -= plen;
 185              		.loc 1 87 7 is_stmt 0
 186 0086 2299     		add	s2,s2,s0
 187              	.LVL18:
  88:C:/Users/stapi/OneDrive/Desktop/GD32VW553/V1_MQTT_OK/GD32VW55X_Wifi_BLE_SDK/GD32VW55x_RELEASE_V1.0.2/MSDK/wpa_supplicant/src/crypto\sha1-pbkdf2.c **** 	}
 188              		.loc 1 88 3 is_stmt 1
  88:C:/Users/stapi/OneDrive/Desktop/GD32VW553/V1_MQTT_OK/GD32VW55X_Wifi_BLE_SDK/GD32VW55x_RELEASE_V1.0.2/MSDK/wpa_supplicant/src/crypto\sha1-pbkdf2.c **** 	}
 189              		.loc 1 88 8 is_stmt 0
 190 0088 818C     		sub	s1,s1,s0
 191              	.LVL19:
 192 008a 41BF     		j	.L2
 193              	.LVL20:
 194              	.L8:
 195              	.LBB13:
 196              	.LBB9:
  46:C:/Users/stapi/OneDrive/Desktop/GD32VW553/V1_MQTT_OK/GD32VW55X_Wifi_BLE_SDK/GD32VW55x_RELEASE_V1.0.2/MSDK/wpa_supplicant/src/crypto\sha1-pbkdf2.c **** 			      SHA1_MAC_LEN, tmp2))
 197              		.loc 1 46 3 is_stmt 1
  46:C:/Users/stapi/OneDrive/Desktop/GD32VW553/V1_MQTT_OK/GD32VW55X_Wifi_BLE_SDK/GD32VW55x_RELEASE_V1.0.2/MSDK/wpa_supplicant/src/crypto\sha1-pbkdf2.c **** 			      SHA1_MAC_LEN, tmp2))
 198              		.loc 1 46 7 is_stmt 0
 199 008c 7818     		addi	a4,sp,60
 200 008e D146     		li	a3,20
 201 0090 3010     		addi	a2,sp,40
 202 0092 E685     		mv	a1,s9
 203 0094 4E85     		mv	a0,s3
 204 0096 97000000 		call	hmac_sha1
 204      E7800000 
 205              	.LVL21:
 206 009e 2A84     		mv	s0,a0
  46:C:/Users/stapi/OneDrive/Desktop/GD32VW553/V1_MQTT_OK/GD32VW55X_Wifi_BLE_SDK/GD32VW55x_RELEASE_V1.0.2/MSDK/wpa_supplicant/src/crypto\sha1-pbkdf2.c **** 			      SHA1_MAC_LEN, tmp2))
 207              		.loc 1 46 6
 208 00a0 4DF9     		bne	a0,zero,.L6
  49:C:/Users/stapi/OneDrive/Desktop/GD32VW553/V1_MQTT_OK/GD32VW55X_Wifi_BLE_SDK/GD32VW55x_RELEASE_V1.0.2/MSDK/wpa_supplicant/src/crypto\sha1-pbkdf2.c **** 		for (j = 0; j < SHA1_MAC_LEN; j++)
 209              		.loc 1 49 3 is_stmt 1
 210 00a2 5146     		li	a2,20
 211 00a4 6C18     		addi	a1,sp,60
 212 00a6 2810     		addi	a0,sp,40
 213 00a8 97000000 		call	os_memcpy
 213      E7800000 
 214              	.LVL22:
  50:C:/Users/stapi/OneDrive/Desktop/GD32VW553/V1_MQTT_OK/GD32VW55X_Wifi_BLE_SDK/GD32VW55x_RELEASE_V1.0.2/MSDK/wpa_supplicant/src/crypto\sha1-pbkdf2.c **** 			digest[j] ^= tmp2[j];
 215              		.loc 1 50 3
  50:C:/Users/stapi/OneDrive/Desktop/GD32VW553/V1_MQTT_OK/GD32VW55X_Wifi_BLE_SDK/GD32VW55x_RELEASE_V1.0.2/MSDK/wpa_supplicant/src/crypto\sha1-pbkdf2.c **** 			digest[j] ^= tmp2[j];
 216              		.loc 1 50 15
 217 00b0 5C08     		addi	a5,sp,20
 218              	.LVL23:
  50:C:/Users/stapi/OneDrive/Desktop/GD32VW553/V1_MQTT_OK/GD32VW55X_Wifi_BLE_SDK/GD32VW55x_RELEASE_V1.0.2/MSDK/wpa_supplicant/src/crypto\sha1-pbkdf2.c **** 			digest[j] ^= tmp2[j];
 219              		.loc 1 50 3 is_stmt 0
 220 00b2 D146     		li	a3,20
 221              	.LVL24:
 222              	.L7:
  51:C:/Users/stapi/OneDrive/Desktop/GD32VW553/V1_MQTT_OK/GD32VW55X_Wifi_BLE_SDK/GD32VW55x_RELEASE_V1.0.2/MSDK/wpa_supplicant/src/crypto\sha1-pbkdf2.c **** 	}
 223              		.loc 1 51 4 is_stmt 1
  51:C:/Users/stapi/OneDrive/Desktop/GD32VW553/V1_MQTT_OK/GD32VW55X_Wifi_BLE_SDK/GD32VW55x_RELEASE_V1.0.2/MSDK/wpa_supplicant/src/crypto\sha1-pbkdf2.c **** 	}
 224              		.loc 1 51 21 is_stmt 0
 225 00b4 7818     		addi	a4,sp,60
 226 00b6 2297     		add	a4,a4,s0
  51:C:/Users/stapi/OneDrive/Desktop/GD32VW553/V1_MQTT_OK/GD32VW55X_Wifi_BLE_SDK/GD32VW55x_RELEASE_V1.0.2/MSDK/wpa_supplicant/src/crypto\sha1-pbkdf2.c **** 	}
 227              		.loc 1 51 14
 228 00b8 03C60700 		lbu	a2,0(a5)
 229 00bc 03470700 		lbu	a4,0(a4)
  50:C:/Users/stapi/OneDrive/Desktop/GD32VW553/V1_MQTT_OK/GD32VW55X_Wifi_BLE_SDK/GD32VW55x_RELEASE_V1.0.2/MSDK/wpa_supplicant/src/crypto\sha1-pbkdf2.c **** 			digest[j] ^= tmp2[j];
 230              		.loc 1 50 34
 231 00c0 0504     		addi	s0,s0,1
 232              	.LVL25:
  50:C:/Users/stapi/OneDrive/Desktop/GD32VW553/V1_MQTT_OK/GD32VW55X_Wifi_BLE_SDK/GD32VW55x_RELEASE_V1.0.2/MSDK/wpa_supplicant/src/crypto\sha1-pbkdf2.c **** 			digest[j] ^= tmp2[j];
 233              		.loc 1 50 3
 234 00c2 8507     		addi	a5,a5,1
  51:C:/Users/stapi/OneDrive/Desktop/GD32VW553/V1_MQTT_OK/GD32VW55X_Wifi_BLE_SDK/GD32VW55x_RELEASE_V1.0.2/MSDK/wpa_supplicant/src/crypto\sha1-pbkdf2.c **** 	}
 235              		.loc 1 51 14
 236 00c4 318F     		xor	a4,a4,a2
 237 00c6 A38FE7FE 		sb	a4,-1(a5)
  50:C:/Users/stapi/OneDrive/Desktop/GD32VW553/V1_MQTT_OK/GD32VW55X_Wifi_BLE_SDK/GD32VW55x_RELEASE_V1.0.2/MSDK/wpa_supplicant/src/crypto\sha1-pbkdf2.c **** 			digest[j] ^= tmp2[j];
 238              		.loc 1 50 33 is_stmt 1
 239              	.LVL26:
  50:C:/Users/stapi/OneDrive/Desktop/GD32VW553/V1_MQTT_OK/GD32VW55X_Wifi_BLE_SDK/GD32VW55x_RELEASE_V1.0.2/MSDK/wpa_supplicant/src/crypto\sha1-pbkdf2.c **** 			digest[j] ^= tmp2[j];
 240              		.loc 1 50 15
  50:C:/Users/stapi/OneDrive/Desktop/GD32VW553/V1_MQTT_OK/GD32VW55X_Wifi_BLE_SDK/GD32VW55x_RELEASE_V1.0.2/MSDK/wpa_supplicant/src/crypto\sha1-pbkdf2.c **** 			digest[j] ^= tmp2[j];
 241              		.loc 1 50 3 is_stmt 0
 242 00ca E315D4FE 		bne	s0,a3,.L7
  45:C:/Users/stapi/OneDrive/Desktop/GD32VW553/V1_MQTT_OK/GD32VW55X_Wifi_BLE_SDK/GD32VW55x_RELEASE_V1.0.2/MSDK/wpa_supplicant/src/crypto\sha1-pbkdf2.c **** 		if (hmac_sha1((u8 *) passphrase, passphrase_len, tmp,
 243              		.loc 1 45 30 is_stmt 1
  45:C:/Users/stapi/OneDrive/Desktop/GD32VW553/V1_MQTT_OK/GD32VW55X_Wifi_BLE_SDK/GD32VW55x_RELEASE_V1.0.2/MSDK/wpa_supplicant/src/crypto\sha1-pbkdf2.c **** 		if (hmac_sha1((u8 *) passphrase, passphrase_len, tmp,
 244              		.loc 1 45 31 is_stmt 0
 245 00ce 050D     		addi	s10,s10,1
 246              	.LVL27:
 247 00d0 79BF     		j	.L5
 248              	.LBE9:
 249              	.LBE13:
 250              		.cfi_endproc
 251              	.LFE72:
 253              		.text
 254              	.Letext0:
 255              		.file 2 "c:\\users\\stapi\\onedrive\\desktop\\gd32vw553\\embeddedbuilder_v1.4.7.26843\\tools\\nucl
 256              		.file 3 "c:\\users\\stapi\\onedrive\\desktop\\gd32vw553\\embeddedbuilder_v1.4.7.26843\\tools\\nucl
 257              		.file 4 "c:\\users\\stapi\\onedrive\\desktop\\gd32vw553\\embeddedbuilder_v1.4.7.26843\\tools\\nucl
 258              		.file 5 "..\\..\\..\\..\\wpa_supplicant\\src\\utils/os.h"
 259              		.file 6 "C:/Users/stapi/OneDrive/Desktop/GD32VW553/V1_MQTT_OK/GD32VW55X_Wifi_BLE_SDK/GD32VW55x_REL
 260              		.file 7 "..\\..\\..\\..\\wpa_supplicant\\src\\utils/common.h"