   1              		.file	"sha384-kdf.c"
   2              		.option nopic
   3              		.attribute arch, "rv32i2p0_m2p0_a2p0_f2p0_c2p0_b_p0p94"
   4              		.attribute unaligned_access, 0
   5              		.attribute stack_align, 16
   6              		.text
   7              	.Ltext0:
   8              		.cfi_sections	.debug_frame
   9              		.section	.rodata.hmac_sha384_kdf.str1.4,"aMS",@progbits,1
  10              		.align	2
  11              	.LC0:
  12 0000 00       		.string	""
  13              		.section	.text.hmac_sha384_kdf,"ax",@progbits
  14              		.align	1
  15              		.globl	hmac_sha384_kdf
  17              	hmac_sha384_kdf:
  18              	.LFB71:
  19              		.file 1 "C:/Users/stapi/OneDrive/Desktop/GD32VW553/V1_MQTT_OK/GD32VW55X_Wifi_BLE_SDK/GD32VW55x_REL
   1:C:/Users/stapi/OneDrive/Desktop/GD32VW553/V1_MQTT_OK/GD32VW55X_Wifi_BLE_SDK/GD32VW55x_RELEASE_V1.0.2/MSDK/wpa_supplicant/src/crypto\sha384-kdf.c **** /*
   2:C:/Users/stapi/OneDrive/Desktop/GD32VW553/V1_MQTT_OK/GD32VW55X_Wifi_BLE_SDK/GD32VW55x_RELEASE_V1.0.2/MSDK/wpa_supplicant/src/crypto\sha384-kdf.c ****  * HMAC-SHA384 KDF (RFC 5295) and HKDF-Expand(SHA384) (RFC 5869)
   3:C:/Users/stapi/OneDrive/Desktop/GD32VW553/V1_MQTT_OK/GD32VW55X_Wifi_BLE_SDK/GD32VW55x_RELEASE_V1.0.2/MSDK/wpa_supplicant/src/crypto\sha384-kdf.c ****  * Copyright (c) 2014-2017, Jouni Malinen <j@w1.fi>
   4:C:/Users/stapi/OneDrive/Desktop/GD32VW553/V1_MQTT_OK/GD32VW55X_Wifi_BLE_SDK/GD32VW55x_RELEASE_V1.0.2/MSDK/wpa_supplicant/src/crypto\sha384-kdf.c ****  *
   5:C:/Users/stapi/OneDrive/Desktop/GD32VW553/V1_MQTT_OK/GD32VW55X_Wifi_BLE_SDK/GD32VW55x_RELEASE_V1.0.2/MSDK/wpa_supplicant/src/crypto\sha384-kdf.c ****  * This software may be distributed under the terms of the BSD license.
   6:C:/Users/stapi/OneDrive/Desktop/GD32VW553/V1_MQTT_OK/GD32VW55X_Wifi_BLE_SDK/GD32VW55x_RELEASE_V1.0.2/MSDK/wpa_supplicant/src/crypto\sha384-kdf.c ****  * See README for more details.
   7:C:/Users/stapi/OneDrive/Desktop/GD32VW553/V1_MQTT_OK/GD32VW55X_Wifi_BLE_SDK/GD32VW55x_RELEASE_V1.0.2/MSDK/wpa_supplicant/src/crypto\sha384-kdf.c ****  */
   8:C:/Users/stapi/OneDrive/Desktop/GD32VW553/V1_MQTT_OK/GD32VW55X_Wifi_BLE_SDK/GD32VW55x_RELEASE_V1.0.2/MSDK/wpa_supplicant/src/crypto\sha384-kdf.c **** 
   9:C:/Users/stapi/OneDrive/Desktop/GD32VW553/V1_MQTT_OK/GD32VW55X_Wifi_BLE_SDK/GD32VW55x_RELEASE_V1.0.2/MSDK/wpa_supplicant/src/crypto\sha384-kdf.c **** #include "includes.h"
  10:C:/Users/stapi/OneDrive/Desktop/GD32VW553/V1_MQTT_OK/GD32VW55X_Wifi_BLE_SDK/GD32VW55x_RELEASE_V1.0.2/MSDK/wpa_supplicant/src/crypto\sha384-kdf.c **** 
  11:C:/Users/stapi/OneDrive/Desktop/GD32VW553/V1_MQTT_OK/GD32VW55X_Wifi_BLE_SDK/GD32VW55x_RELEASE_V1.0.2/MSDK/wpa_supplicant/src/crypto\sha384-kdf.c **** #include "common.h"
  12:C:/Users/stapi/OneDrive/Desktop/GD32VW553/V1_MQTT_OK/GD32VW55X_Wifi_BLE_SDK/GD32VW55x_RELEASE_V1.0.2/MSDK/wpa_supplicant/src/crypto\sha384-kdf.c **** #include "sha384.h"
  13:C:/Users/stapi/OneDrive/Desktop/GD32VW553/V1_MQTT_OK/GD32VW55X_Wifi_BLE_SDK/GD32VW55x_RELEASE_V1.0.2/MSDK/wpa_supplicant/src/crypto\sha384-kdf.c **** 
  14:C:/Users/stapi/OneDrive/Desktop/GD32VW553/V1_MQTT_OK/GD32VW55X_Wifi_BLE_SDK/GD32VW55x_RELEASE_V1.0.2/MSDK/wpa_supplicant/src/crypto\sha384-kdf.c **** 
  15:C:/Users/stapi/OneDrive/Desktop/GD32VW553/V1_MQTT_OK/GD32VW55X_Wifi_BLE_SDK/GD32VW55x_RELEASE_V1.0.2/MSDK/wpa_supplicant/src/crypto\sha384-kdf.c **** /**
  16:C:/Users/stapi/OneDrive/Desktop/GD32VW553/V1_MQTT_OK/GD32VW55X_Wifi_BLE_SDK/GD32VW55x_RELEASE_V1.0.2/MSDK/wpa_supplicant/src/crypto\sha384-kdf.c ****  * hmac_sha384_kdf - HMAC-SHA384 based KDF (RFC 5295)
  17:C:/Users/stapi/OneDrive/Desktop/GD32VW553/V1_MQTT_OK/GD32VW55X_Wifi_BLE_SDK/GD32VW55x_RELEASE_V1.0.2/MSDK/wpa_supplicant/src/crypto\sha384-kdf.c ****  * @secret: Key for KDF
  18:C:/Users/stapi/OneDrive/Desktop/GD32VW553/V1_MQTT_OK/GD32VW55X_Wifi_BLE_SDK/GD32VW55x_RELEASE_V1.0.2/MSDK/wpa_supplicant/src/crypto\sha384-kdf.c ****  * @secret_len: Length of the key in bytes
  19:C:/Users/stapi/OneDrive/Desktop/GD32VW553/V1_MQTT_OK/GD32VW55X_Wifi_BLE_SDK/GD32VW55x_RELEASE_V1.0.2/MSDK/wpa_supplicant/src/crypto\sha384-kdf.c ****  * @label: A unique label for each purpose of the KDF or %NULL to select
  20:C:/Users/stapi/OneDrive/Desktop/GD32VW553/V1_MQTT_OK/GD32VW55X_Wifi_BLE_SDK/GD32VW55x_RELEASE_V1.0.2/MSDK/wpa_supplicant/src/crypto\sha384-kdf.c ****  *	RFC 5869 HKDF-Expand() with arbitrary seed (= info)
  21:C:/Users/stapi/OneDrive/Desktop/GD32VW553/V1_MQTT_OK/GD32VW55X_Wifi_BLE_SDK/GD32VW55x_RELEASE_V1.0.2/MSDK/wpa_supplicant/src/crypto\sha384-kdf.c ****  * @seed: Seed value to bind into the key
  22:C:/Users/stapi/OneDrive/Desktop/GD32VW553/V1_MQTT_OK/GD32VW55X_Wifi_BLE_SDK/GD32VW55x_RELEASE_V1.0.2/MSDK/wpa_supplicant/src/crypto\sha384-kdf.c ****  * @seed_len: Length of the seed
  23:C:/Users/stapi/OneDrive/Desktop/GD32VW553/V1_MQTT_OK/GD32VW55X_Wifi_BLE_SDK/GD32VW55x_RELEASE_V1.0.2/MSDK/wpa_supplicant/src/crypto\sha384-kdf.c ****  * @out: Buffer for the generated pseudo-random key
  24:C:/Users/stapi/OneDrive/Desktop/GD32VW553/V1_MQTT_OK/GD32VW55X_Wifi_BLE_SDK/GD32VW55x_RELEASE_V1.0.2/MSDK/wpa_supplicant/src/crypto\sha384-kdf.c ****  * @outlen: Number of bytes of key to generate
  25:C:/Users/stapi/OneDrive/Desktop/GD32VW553/V1_MQTT_OK/GD32VW55X_Wifi_BLE_SDK/GD32VW55x_RELEASE_V1.0.2/MSDK/wpa_supplicant/src/crypto\sha384-kdf.c ****  * Returns: 0 on success, -1 on failure.
  26:C:/Users/stapi/OneDrive/Desktop/GD32VW553/V1_MQTT_OK/GD32VW55X_Wifi_BLE_SDK/GD32VW55x_RELEASE_V1.0.2/MSDK/wpa_supplicant/src/crypto\sha384-kdf.c ****  *
  27:C:/Users/stapi/OneDrive/Desktop/GD32VW553/V1_MQTT_OK/GD32VW55X_Wifi_BLE_SDK/GD32VW55x_RELEASE_V1.0.2/MSDK/wpa_supplicant/src/crypto\sha384-kdf.c ****  * This function is used to derive new, cryptographically separate keys from a
  28:C:/Users/stapi/OneDrive/Desktop/GD32VW553/V1_MQTT_OK/GD32VW55X_Wifi_BLE_SDK/GD32VW55x_RELEASE_V1.0.2/MSDK/wpa_supplicant/src/crypto\sha384-kdf.c ****  * given key in ERP. This KDF is defined in RFC 5295, Chapter 3.1.2. When used
  29:C:/Users/stapi/OneDrive/Desktop/GD32VW553/V1_MQTT_OK/GD32VW55X_Wifi_BLE_SDK/GD32VW55x_RELEASE_V1.0.2/MSDK/wpa_supplicant/src/crypto\sha384-kdf.c ****  * with label = NULL and seed = info, this matches HKDF-Expand() defined in
  30:C:/Users/stapi/OneDrive/Desktop/GD32VW553/V1_MQTT_OK/GD32VW55X_Wifi_BLE_SDK/GD32VW55x_RELEASE_V1.0.2/MSDK/wpa_supplicant/src/crypto\sha384-kdf.c ****  * RFC 5869, Chapter 2.3.
  31:C:/Users/stapi/OneDrive/Desktop/GD32VW553/V1_MQTT_OK/GD32VW55X_Wifi_BLE_SDK/GD32VW55x_RELEASE_V1.0.2/MSDK/wpa_supplicant/src/crypto\sha384-kdf.c ****  */
  32:C:/Users/stapi/OneDrive/Desktop/GD32VW553/V1_MQTT_OK/GD32VW55X_Wifi_BLE_SDK/GD32VW55x_RELEASE_V1.0.2/MSDK/wpa_supplicant/src/crypto\sha384-kdf.c **** int hmac_sha384_kdf(const u8 *secret, size_t secret_len,
  33:C:/Users/stapi/OneDrive/Desktop/GD32VW553/V1_MQTT_OK/GD32VW55X_Wifi_BLE_SDK/GD32VW55x_RELEASE_V1.0.2/MSDK/wpa_supplicant/src/crypto\sha384-kdf.c **** 		    const char *label, const u8 *seed, size_t seed_len,
  34:C:/Users/stapi/OneDrive/Desktop/GD32VW553/V1_MQTT_OK/GD32VW55X_Wifi_BLE_SDK/GD32VW55x_RELEASE_V1.0.2/MSDK/wpa_supplicant/src/crypto\sha384-kdf.c **** 		    u8 *out, size_t outlen)
  35:C:/Users/stapi/OneDrive/Desktop/GD32VW553/V1_MQTT_OK/GD32VW55X_Wifi_BLE_SDK/GD32VW55x_RELEASE_V1.0.2/MSDK/wpa_supplicant/src/crypto\sha384-kdf.c **** {
  20              		.loc 1 35 1
  21              		.cfi_startproc
  22              	.LVL0:
  23 0000 17030000 		call	t0,__riscv_save_9
  23      E7020300 
  24              		.cfi_offset 24, -40
  25              		.cfi_offset 23, -36
  26              		.cfi_offset 22, -32
  27              		.cfi_offset 21, -28
  28              		.cfi_offset 20, -24
  29              		.cfi_offset 19, -20
  30              		.cfi_offset 18, -16
  31              		.cfi_offset 9, -12
  32              		.cfi_offset 8, -8
  33              		.cfi_offset 1, -4
  34              		.cfi_def_cfa_offset 48
  36:C:/Users/stapi/OneDrive/Desktop/GD32VW553/V1_MQTT_OK/GD32VW55X_Wifi_BLE_SDK/GD32VW55x_RELEASE_V1.0.2/MSDK/wpa_supplicant/src/crypto\sha384-kdf.c **** 	u8 T[SHA384_MAC_LEN];
  35              		.loc 1 36 2
  37:C:/Users/stapi/OneDrive/Desktop/GD32VW553/V1_MQTT_OK/GD32VW55X_Wifi_BLE_SDK/GD32VW55x_RELEASE_V1.0.2/MSDK/wpa_supplicant/src/crypto\sha384-kdf.c **** 	u8 iter = 1;
  36              		.loc 1 37 2
  35:C:/Users/stapi/OneDrive/Desktop/GD32VW553/V1_MQTT_OK/GD32VW55X_Wifi_BLE_SDK/GD32VW55x_RELEASE_V1.0.2/MSDK/wpa_supplicant/src/crypto\sha384-kdf.c **** 	u8 T[SHA384_MAC_LEN];
  37              		.loc 1 35 1 is_stmt 0
  38 0008 1D71     		addi	sp,sp,-96
  39              		.cfi_def_cfa_offset 144
  35:C:/Users/stapi/OneDrive/Desktop/GD32VW553/V1_MQTT_OK/GD32VW55X_Wifi_BLE_SDK/GD32VW55x_RELEASE_V1.0.2/MSDK/wpa_supplicant/src/crypto\sha384-kdf.c **** 	u8 T[SHA384_MAC_LEN];
  40              		.loc 1 35 1
  41 000a BE89     		mv	s3,a5
  42              		.loc 1 37 5
  43 000c 8547     		li	a5,1
  44              	.LVL1:
  45 000e A307F100 		sb	a5,15(sp)
  38:C:/Users/stapi/OneDrive/Desktop/GD32VW553/V1_MQTT_OK/GD32VW55X_Wifi_BLE_SDK/GD32VW55x_RELEASE_V1.0.2/MSDK/wpa_supplicant/src/crypto\sha384-kdf.c **** 	const unsigned char *addr[4];
  46              		.loc 1 38 2 is_stmt 1
  39:C:/Users/stapi/OneDrive/Desktop/GD32VW553/V1_MQTT_OK/GD32VW55X_Wifi_BLE_SDK/GD32VW55x_RELEASE_V1.0.2/MSDK/wpa_supplicant/src/crypto\sha384-kdf.c **** 	size_t len[4];
  47              		.loc 1 39 2
  40:C:/Users/stapi/OneDrive/Desktop/GD32VW553/V1_MQTT_OK/GD32VW55X_Wifi_BLE_SDK/GD32VW55x_RELEASE_V1.0.2/MSDK/wpa_supplicant/src/crypto\sha384-kdf.c **** 	size_t pos, clen;
  48              		.loc 1 40 2
  41:C:/Users/stapi/OneDrive/Desktop/GD32VW553/V1_MQTT_OK/GD32VW55X_Wifi_BLE_SDK/GD32VW55x_RELEASE_V1.0.2/MSDK/wpa_supplicant/src/crypto\sha384-kdf.c **** 
  42:C:/Users/stapi/OneDrive/Desktop/GD32VW553/V1_MQTT_OK/GD32VW55X_Wifi_BLE_SDK/GD32VW55x_RELEASE_V1.0.2/MSDK/wpa_supplicant/src/crypto\sha384-kdf.c **** 	addr[0] = T;
  49              		.loc 1 42 2
  50              		.loc 1 42 10 is_stmt 0
  51 0012 0018     		addi	s0,sp,48
  43:C:/Users/stapi/OneDrive/Desktop/GD32VW553/V1_MQTT_OK/GD32VW55X_Wifi_BLE_SDK/GD32VW55x_RELEASE_V1.0.2/MSDK/wpa_supplicant/src/crypto\sha384-kdf.c **** 	len[0] = SHA384_MAC_LEN;
  52              		.loc 1 43 9
  53 0014 93070003 		li	a5,48
  42:C:/Users/stapi/OneDrive/Desktop/GD32VW553/V1_MQTT_OK/GD32VW55X_Wifi_BLE_SDK/GD32VW55x_RELEASE_V1.0.2/MSDK/wpa_supplicant/src/crypto\sha384-kdf.c **** 	len[0] = SHA384_MAC_LEN;
  54              		.loc 1 42 10
  55 0018 22C8     		sw	s0,16(sp)
  56              		.loc 1 43 2 is_stmt 1
  57              		.loc 1 43 9 is_stmt 0
  58 001a 3ED0     		sw	a5,32(sp)
  44:C:/Users/stapi/OneDrive/Desktop/GD32VW553/V1_MQTT_OK/GD32VW55X_Wifi_BLE_SDK/GD32VW55x_RELEASE_V1.0.2/MSDK/wpa_supplicant/src/crypto\sha384-kdf.c **** 	if (label) {
  59              		.loc 1 44 2 is_stmt 1
  35:C:/Users/stapi/OneDrive/Desktop/GD32VW553/V1_MQTT_OK/GD32VW55X_Wifi_BLE_SDK/GD32VW55x_RELEASE_V1.0.2/MSDK/wpa_supplicant/src/crypto\sha384-kdf.c **** 	u8 T[SHA384_MAC_LEN];
  60              		.loc 1 35 1 is_stmt 0
  61 001c 2A8A     		mv	s4,a0
  62 001e AE8A     		mv	s5,a1
  63 0020 368B     		mv	s6,a3
  64 0022 3A89     		mv	s2,a4
  65 0024 C284     		mv	s1,a6
  66              		.loc 1 44 5
  67 0026 51CA     		beq	a2,zero,.L2
  68 0028 3285     		mv	a0,a2
  69              	.LVL2:
  45:C:/Users/stapi/OneDrive/Desktop/GD32VW553/V1_MQTT_OK/GD32VW55X_Wifi_BLE_SDK/GD32VW55x_RELEASE_V1.0.2/MSDK/wpa_supplicant/src/crypto\sha384-kdf.c **** 		addr[1] = (const unsigned char *) label;
  70              		.loc 1 45 3 is_stmt 1
  71              		.loc 1 45 11 is_stmt 0
  72 002a 32CA     		sw	a2,20(sp)
  46:C:/Users/stapi/OneDrive/Desktop/GD32VW553/V1_MQTT_OK/GD32VW55X_Wifi_BLE_SDK/GD32VW55x_RELEASE_V1.0.2/MSDK/wpa_supplicant/src/crypto\sha384-kdf.c **** 		len[1] = os_strlen(label) + 1;
  73              		.loc 1 46 3 is_stmt 1
  74              		.loc 1 46 12 is_stmt 0
  75 002c 97000000 		call	os_strlen
  75      E7800000 
  76              	.LVL3:
  77              		.loc 1 46 29
  78 0034 0505     		addi	a0,a0,1
  79              		.loc 1 46 10
  80 0036 2AD2     		sw	a0,36(sp)
  81              	.L3:
  47:C:/Users/stapi/OneDrive/Desktop/GD32VW553/V1_MQTT_OK/GD32VW55X_Wifi_BLE_SDK/GD32VW55x_RELEASE_V1.0.2/MSDK/wpa_supplicant/src/crypto\sha384-kdf.c **** 	} else {
  48:C:/Users/stapi/OneDrive/Desktop/GD32VW553/V1_MQTT_OK/GD32VW55X_Wifi_BLE_SDK/GD32VW55x_RELEASE_V1.0.2/MSDK/wpa_supplicant/src/crypto\sha384-kdf.c **** 		addr[1] = (const u8 *) "";
  49:C:/Users/stapi/OneDrive/Desktop/GD32VW553/V1_MQTT_OK/GD32VW55X_Wifi_BLE_SDK/GD32VW55x_RELEASE_V1.0.2/MSDK/wpa_supplicant/src/crypto\sha384-kdf.c **** 		len[1] = 0;
  50:C:/Users/stapi/OneDrive/Desktop/GD32VW553/V1_MQTT_OK/GD32VW55X_Wifi_BLE_SDK/GD32VW55x_RELEASE_V1.0.2/MSDK/wpa_supplicant/src/crypto\sha384-kdf.c **** 	}
  51:C:/Users/stapi/OneDrive/Desktop/GD32VW553/V1_MQTT_OK/GD32VW55X_Wifi_BLE_SDK/GD32VW55x_RELEASE_V1.0.2/MSDK/wpa_supplicant/src/crypto\sha384-kdf.c **** 	addr[2] = seed;
  82              		.loc 1 51 2 is_stmt 1
  52:C:/Users/stapi/OneDrive/Desktop/GD32VW553/V1_MQTT_OK/GD32VW55X_Wifi_BLE_SDK/GD32VW55x_RELEASE_V1.0.2/MSDK/wpa_supplicant/src/crypto\sha384-kdf.c **** 	len[2] = seed_len;
  53:C:/Users/stapi/OneDrive/Desktop/GD32VW553/V1_MQTT_OK/GD32VW55X_Wifi_BLE_SDK/GD32VW55x_RELEASE_V1.0.2/MSDK/wpa_supplicant/src/crypto\sha384-kdf.c **** 	addr[3] = &iter;
  83              		.loc 1 53 10 is_stmt 0
  84 0038 9307F100 		addi	a5,sp,15
  85 003c 3ECE     		sw	a5,28(sp)
  54:C:/Users/stapi/OneDrive/Desktop/GD32VW553/V1_MQTT_OK/GD32VW55X_Wifi_BLE_SDK/GD32VW55x_RELEASE_V1.0.2/MSDK/wpa_supplicant/src/crypto\sha384-kdf.c **** 	len[3] = 1;
  86              		.loc 1 54 9
  87 003e 8547     		li	a5,1
  88 0040 3ED6     		sw	a5,44(sp)
  55:C:/Users/stapi/OneDrive/Desktop/GD32VW553/V1_MQTT_OK/GD32VW55X_Wifi_BLE_SDK/GD32VW55x_RELEASE_V1.0.2/MSDK/wpa_supplicant/src/crypto\sha384-kdf.c **** 
  56:C:/Users/stapi/OneDrive/Desktop/GD32VW553/V1_MQTT_OK/GD32VW55X_Wifi_BLE_SDK/GD32VW55x_RELEASE_V1.0.2/MSDK/wpa_supplicant/src/crypto\sha384-kdf.c **** 	if (hmac_sha384_vector(secret, secret_len, 3, &addr[1], &len[1], T) < 0)
  89              		.loc 1 56 6
  90 0042 5810     		addi	a4,sp,36
  91 0044 A287     		mv	a5,s0
  92 0046 5408     		addi	a3,sp,20
  93 0048 0D46     		li	a2,3
  94 004a D685     		mv	a1,s5
  95 004c 5285     		mv	a0,s4
  51:C:/Users/stapi/OneDrive/Desktop/GD32VW553/V1_MQTT_OK/GD32VW55X_Wifi_BLE_SDK/GD32VW55x_RELEASE_V1.0.2/MSDK/wpa_supplicant/src/crypto\sha384-kdf.c **** 	len[2] = seed_len;
  96              		.loc 1 51 10
  97 004e 5ACC     		sw	s6,24(sp)
  52:C:/Users/stapi/OneDrive/Desktop/GD32VW553/V1_MQTT_OK/GD32VW55X_Wifi_BLE_SDK/GD32VW55x_RELEASE_V1.0.2/MSDK/wpa_supplicant/src/crypto\sha384-kdf.c **** 	addr[3] = &iter;
  98              		.loc 1 52 2 is_stmt 1
  52:C:/Users/stapi/OneDrive/Desktop/GD32VW553/V1_MQTT_OK/GD32VW55X_Wifi_BLE_SDK/GD32VW55x_RELEASE_V1.0.2/MSDK/wpa_supplicant/src/crypto\sha384-kdf.c **** 	addr[3] = &iter;
  99              		.loc 1 52 9 is_stmt 0
 100 0050 4AD4     		sw	s2,40(sp)
  53:C:/Users/stapi/OneDrive/Desktop/GD32VW553/V1_MQTT_OK/GD32VW55X_Wifi_BLE_SDK/GD32VW55x_RELEASE_V1.0.2/MSDK/wpa_supplicant/src/crypto\sha384-kdf.c **** 	len[3] = 1;
 101              		.loc 1 53 2 is_stmt 1
  54:C:/Users/stapi/OneDrive/Desktop/GD32VW553/V1_MQTT_OK/GD32VW55X_Wifi_BLE_SDK/GD32VW55x_RELEASE_V1.0.2/MSDK/wpa_supplicant/src/crypto\sha384-kdf.c **** 
 102              		.loc 1 54 2
 103              		.loc 1 56 2
 104              		.loc 1 56 6 is_stmt 0
 105 0052 97000000 		call	hmac_sha384_vector
 105      E7800000 
 106              	.LVL4:
  57:C:/Users/stapi/OneDrive/Desktop/GD32VW553/V1_MQTT_OK/GD32VW55X_Wifi_BLE_SDK/GD32VW55x_RELEASE_V1.0.2/MSDK/wpa_supplicant/src/crypto\sha384-kdf.c **** 		return -1;
 107              		.loc 1 57 10
 108 005a FD57     		li	a5,-1
  56:C:/Users/stapi/OneDrive/Desktop/GD32VW553/V1_MQTT_OK/GD32VW55X_Wifi_BLE_SDK/GD32VW55x_RELEASE_V1.0.2/MSDK/wpa_supplicant/src/crypto\sha384-kdf.c **** 		return -1;
 109              		.loc 1 56 5
 110 005c 63490504 		blt	a0,zero,.L1
  58:C:/Users/stapi/OneDrive/Desktop/GD32VW553/V1_MQTT_OK/GD32VW55X_Wifi_BLE_SDK/GD32VW55x_RELEASE_V1.0.2/MSDK/wpa_supplicant/src/crypto\sha384-kdf.c **** 
  59:C:/Users/stapi/OneDrive/Desktop/GD32VW553/V1_MQTT_OK/GD32VW55X_Wifi_BLE_SDK/GD32VW55x_RELEASE_V1.0.2/MSDK/wpa_supplicant/src/crypto\sha384-kdf.c **** 	pos = 0;
 111              		.loc 1 59 6
 112 0060 0149     		li	s2,0
 113              	.LVL5:
 114 0062 930B0003 		li	s7,48
  60:C:/Users/stapi/OneDrive/Desktop/GD32VW553/V1_MQTT_OK/GD32VW55X_Wifi_BLE_SDK/GD32VW55x_RELEASE_V1.0.2/MSDK/wpa_supplicant/src/crypto\sha384-kdf.c **** 	for (;;) {
  61:C:/Users/stapi/OneDrive/Desktop/GD32VW553/V1_MQTT_OK/GD32VW55X_Wifi_BLE_SDK/GD32VW55x_RELEASE_V1.0.2/MSDK/wpa_supplicant/src/crypto\sha384-kdf.c **** 		clen = outlen - pos;
  62:C:/Users/stapi/OneDrive/Desktop/GD32VW553/V1_MQTT_OK/GD32VW55X_Wifi_BLE_SDK/GD32VW55x_RELEASE_V1.0.2/MSDK/wpa_supplicant/src/crypto\sha384-kdf.c **** 		if (clen > SHA384_MAC_LEN)
  63:C:/Users/stapi/OneDrive/Desktop/GD32VW553/V1_MQTT_OK/GD32VW55X_Wifi_BLE_SDK/GD32VW55x_RELEASE_V1.0.2/MSDK/wpa_supplicant/src/crypto\sha384-kdf.c **** 			clen = SHA384_MAC_LEN;
  64:C:/Users/stapi/OneDrive/Desktop/GD32VW553/V1_MQTT_OK/GD32VW55X_Wifi_BLE_SDK/GD32VW55x_RELEASE_V1.0.2/MSDK/wpa_supplicant/src/crypto\sha384-kdf.c **** 		os_memcpy(out + pos, T, clen);
  65:C:/Users/stapi/OneDrive/Desktop/GD32VW553/V1_MQTT_OK/GD32VW55X_Wifi_BLE_SDK/GD32VW55x_RELEASE_V1.0.2/MSDK/wpa_supplicant/src/crypto\sha384-kdf.c **** 		pos += clen;
  66:C:/Users/stapi/OneDrive/Desktop/GD32VW553/V1_MQTT_OK/GD32VW55X_Wifi_BLE_SDK/GD32VW55x_RELEASE_V1.0.2/MSDK/wpa_supplicant/src/crypto\sha384-kdf.c **** 
  67:C:/Users/stapi/OneDrive/Desktop/GD32VW553/V1_MQTT_OK/GD32VW55X_Wifi_BLE_SDK/GD32VW55x_RELEASE_V1.0.2/MSDK/wpa_supplicant/src/crypto\sha384-kdf.c **** 		if (pos == outlen)
  68:C:/Users/stapi/OneDrive/Desktop/GD32VW553/V1_MQTT_OK/GD32VW55X_Wifi_BLE_SDK/GD32VW55x_RELEASE_V1.0.2/MSDK/wpa_supplicant/src/crypto\sha384-kdf.c **** 			break;
  69:C:/Users/stapi/OneDrive/Desktop/GD32VW553/V1_MQTT_OK/GD32VW55X_Wifi_BLE_SDK/GD32VW55x_RELEASE_V1.0.2/MSDK/wpa_supplicant/src/crypto\sha384-kdf.c **** 
  70:C:/Users/stapi/OneDrive/Desktop/GD32VW553/V1_MQTT_OK/GD32VW55X_Wifi_BLE_SDK/GD32VW55x_RELEASE_V1.0.2/MSDK/wpa_supplicant/src/crypto\sha384-kdf.c **** 		if (iter == 255) {
 115              		.loc 1 70 6
 116 0066 130CF00F 		li	s8,255
 117              	.LVL6:
 118              	.L8:
  60:C:/Users/stapi/OneDrive/Desktop/GD32VW553/V1_MQTT_OK/GD32VW55X_Wifi_BLE_SDK/GD32VW55x_RELEASE_V1.0.2/MSDK/wpa_supplicant/src/crypto\sha384-kdf.c **** 	for (;;) {
 119              		.loc 1 60 2 is_stmt 1
  61:C:/Users/stapi/OneDrive/Desktop/GD32VW553/V1_MQTT_OK/GD32VW55X_Wifi_BLE_SDK/GD32VW55x_RELEASE_V1.0.2/MSDK/wpa_supplicant/src/crypto\sha384-kdf.c **** 		if (clen > SHA384_MAC_LEN)
 120              		.loc 1 61 3
  61:C:/Users/stapi/OneDrive/Desktop/GD32VW553/V1_MQTT_OK/GD32VW55X_Wifi_BLE_SDK/GD32VW55x_RELEASE_V1.0.2/MSDK/wpa_supplicant/src/crypto\sha384-kdf.c **** 		if (clen > SHA384_MAC_LEN)
 121              		.loc 1 61 8 is_stmt 0
 122 006a 338B2441 		sub	s6,s1,s2
 123              	.LVL7:
  62:C:/Users/stapi/OneDrive/Desktop/GD32VW553/V1_MQTT_OK/GD32VW55X_Wifi_BLE_SDK/GD32VW55x_RELEASE_V1.0.2/MSDK/wpa_supplicant/src/crypto\sha384-kdf.c **** 			clen = SHA384_MAC_LEN;
 124              		.loc 1 62 3 is_stmt 1
  64:C:/Users/stapi/OneDrive/Desktop/GD32VW553/V1_MQTT_OK/GD32VW55X_Wifi_BLE_SDK/GD32VW55x_RELEASE_V1.0.2/MSDK/wpa_supplicant/src/crypto\sha384-kdf.c **** 		pos += clen;
 125              		.loc 1 64 3 is_stmt 0
 126 006e 33852901 		add	a0,s3,s2
 127 0072 335B7B0B 		minu	s6,s6,s7
 128              	.LVL8:
  64:C:/Users/stapi/OneDrive/Desktop/GD32VW553/V1_MQTT_OK/GD32VW55X_Wifi_BLE_SDK/GD32VW55x_RELEASE_V1.0.2/MSDK/wpa_supplicant/src/crypto\sha384-kdf.c **** 		pos += clen;
 129              		.loc 1 64 3 is_stmt 1
 130 0076 A285     		mv	a1,s0
 131 0078 5A86     		mv	a2,s6
  65:C:/Users/stapi/OneDrive/Desktop/GD32VW553/V1_MQTT_OK/GD32VW55X_Wifi_BLE_SDK/GD32VW55x_RELEASE_V1.0.2/MSDK/wpa_supplicant/src/crypto\sha384-kdf.c **** 
 132              		.loc 1 65 7 is_stmt 0
 133 007a 5A99     		add	s2,s2,s6
 134              	.LVL9:
  64:C:/Users/stapi/OneDrive/Desktop/GD32VW553/V1_MQTT_OK/GD32VW55X_Wifi_BLE_SDK/GD32VW55x_RELEASE_V1.0.2/MSDK/wpa_supplicant/src/crypto\sha384-kdf.c **** 		pos += clen;
 135              		.loc 1 64 3
 136 007c 97000000 		call	os_memcpy
 136      E7800000 
 137              	.LVL10:
  65:C:/Users/stapi/OneDrive/Desktop/GD32VW553/V1_MQTT_OK/GD32VW55X_Wifi_BLE_SDK/GD32VW55x_RELEASE_V1.0.2/MSDK/wpa_supplicant/src/crypto\sha384-kdf.c **** 
 138              		.loc 1 65 3 is_stmt 1
  67:C:/Users/stapi/OneDrive/Desktop/GD32VW553/V1_MQTT_OK/GD32VW55X_Wifi_BLE_SDK/GD32VW55x_RELEASE_V1.0.2/MSDK/wpa_supplicant/src/crypto\sha384-kdf.c **** 			break;
 139              		.loc 1 67 3
  67:C:/Users/stapi/OneDrive/Desktop/GD32VW553/V1_MQTT_OK/GD32VW55X_Wifi_BLE_SDK/GD32VW55x_RELEASE_V1.0.2/MSDK/wpa_supplicant/src/crypto\sha384-kdf.c **** 			break;
 140              		.loc 1 67 6 is_stmt 0
 141 0084 63822407 		beq	s1,s2,.L5
 142              		.loc 1 70 3 is_stmt 1
 143              		.loc 1 70 12 is_stmt 0
 144 0088 8347F100 		lbu	a5,15(sp)
 145              		.loc 1 70 6
 146 008c 639E8703 		bne	a5,s8,.L6
 147              	.L7:
  71:C:/Users/stapi/OneDrive/Desktop/GD32VW553/V1_MQTT_OK/GD32VW55X_Wifi_BLE_SDK/GD32VW55x_RELEASE_V1.0.2/MSDK/wpa_supplicant/src/crypto\sha384-kdf.c **** 			os_memset(out, 0, outlen);
 148              		.loc 1 71 4 is_stmt 1
 149 0090 2686     		mv	a2,s1
 150 0092 8145     		li	a1,0
 151 0094 4E85     		mv	a0,s3
 152 0096 97000000 		call	os_memset
 152      E7800000 
 153              	.LVL11:
  72:C:/Users/stapi/OneDrive/Desktop/GD32VW553/V1_MQTT_OK/GD32VW55X_Wifi_BLE_SDK/GD32VW55x_RELEASE_V1.0.2/MSDK/wpa_supplicant/src/crypto\sha384-kdf.c **** 			forced_memzero(T, SHA384_MAC_LEN);
 154              		.loc 1 72 4
 155 009e 93050003 		li	a1,48
 156 00a2 2285     		mv	a0,s0
 157 00a4 97000000 		call	forced_memzero
 157      E7800000 
 158              	.LVL12:
  73:C:/Users/stapi/OneDrive/Desktop/GD32VW553/V1_MQTT_OK/GD32VW55X_Wifi_BLE_SDK/GD32VW55x_RELEASE_V1.0.2/MSDK/wpa_supplicant/src/crypto\sha384-kdf.c **** 			return -1;
 159              		.loc 1 73 4
 160              		.loc 1 73 11 is_stmt 0
 161 00ac FD57     		li	a5,-1
 162              	.LVL13:
 163              	.L1:
  74:C:/Users/stapi/OneDrive/Desktop/GD32VW553/V1_MQTT_OK/GD32VW55X_Wifi_BLE_SDK/GD32VW55x_RELEASE_V1.0.2/MSDK/wpa_supplicant/src/crypto\sha384-kdf.c **** 		}
  75:C:/Users/stapi/OneDrive/Desktop/GD32VW553/V1_MQTT_OK/GD32VW55X_Wifi_BLE_SDK/GD32VW55x_RELEASE_V1.0.2/MSDK/wpa_supplicant/src/crypto\sha384-kdf.c **** 		iter++;
  76:C:/Users/stapi/OneDrive/Desktop/GD32VW553/V1_MQTT_OK/GD32VW55X_Wifi_BLE_SDK/GD32VW55x_RELEASE_V1.0.2/MSDK/wpa_supplicant/src/crypto\sha384-kdf.c **** 
  77:C:/Users/stapi/OneDrive/Desktop/GD32VW553/V1_MQTT_OK/GD32VW55X_Wifi_BLE_SDK/GD32VW55x_RELEASE_V1.0.2/MSDK/wpa_supplicant/src/crypto\sha384-kdf.c **** 		if (hmac_sha384_vector(secret, secret_len, 4, addr, len, T) < 0)
  78:C:/Users/stapi/OneDrive/Desktop/GD32VW553/V1_MQTT_OK/GD32VW55X_Wifi_BLE_SDK/GD32VW55x_RELEASE_V1.0.2/MSDK/wpa_supplicant/src/crypto\sha384-kdf.c **** 		{
  79:C:/Users/stapi/OneDrive/Desktop/GD32VW553/V1_MQTT_OK/GD32VW55X_Wifi_BLE_SDK/GD32VW55x_RELEASE_V1.0.2/MSDK/wpa_supplicant/src/crypto\sha384-kdf.c **** 			os_memset(out, 0, outlen);
  80:C:/Users/stapi/OneDrive/Desktop/GD32VW553/V1_MQTT_OK/GD32VW55X_Wifi_BLE_SDK/GD32VW55x_RELEASE_V1.0.2/MSDK/wpa_supplicant/src/crypto\sha384-kdf.c **** 			forced_memzero(T, SHA384_MAC_LEN);
  81:C:/Users/stapi/OneDrive/Desktop/GD32VW553/V1_MQTT_OK/GD32VW55X_Wifi_BLE_SDK/GD32VW55x_RELEASE_V1.0.2/MSDK/wpa_supplicant/src/crypto\sha384-kdf.c **** 			return -1;
  82:C:/Users/stapi/OneDrive/Desktop/GD32VW553/V1_MQTT_OK/GD32VW55X_Wifi_BLE_SDK/GD32VW55x_RELEASE_V1.0.2/MSDK/wpa_supplicant/src/crypto\sha384-kdf.c **** 		}
  83:C:/Users/stapi/OneDrive/Desktop/GD32VW553/V1_MQTT_OK/GD32VW55X_Wifi_BLE_SDK/GD32VW55x_RELEASE_V1.0.2/MSDK/wpa_supplicant/src/crypto\sha384-kdf.c **** 	}
  84:C:/Users/stapi/OneDrive/Desktop/GD32VW553/V1_MQTT_OK/GD32VW55X_Wifi_BLE_SDK/GD32VW55x_RELEASE_V1.0.2/MSDK/wpa_supplicant/src/crypto\sha384-kdf.c **** 
  85:C:/Users/stapi/OneDrive/Desktop/GD32VW553/V1_MQTT_OK/GD32VW55X_Wifi_BLE_SDK/GD32VW55x_RELEASE_V1.0.2/MSDK/wpa_supplicant/src/crypto\sha384-kdf.c **** 	forced_memzero(T, SHA384_MAC_LEN);
  86:C:/Users/stapi/OneDrive/Desktop/GD32VW553/V1_MQTT_OK/GD32VW55X_Wifi_BLE_SDK/GD32VW55x_RELEASE_V1.0.2/MSDK/wpa_supplicant/src/crypto\sha384-kdf.c **** 	return 0;
  87:C:/Users/stapi/OneDrive/Desktop/GD32VW553/V1_MQTT_OK/GD32VW55X_Wifi_BLE_SDK/GD32VW55x_RELEASE_V1.0.2/MSDK/wpa_supplicant/src/crypto\sha384-kdf.c **** }
 164              		.loc 1 87 1
 165 00ae 3E85     		mv	a0,a5
 166 00b0 2561     		addi	sp,sp,96
 167              		.cfi_remember_state
 168              		.cfi_def_cfa_offset 0
 169 00b2 17030000 		tail	__riscv_restore_9
 169      67000300 
 170              		.cfi_restore 24
 171              		.cfi_restore 23
 172              		.cfi_restore 22
 173              		.cfi_restore 21
 174              		.cfi_restore 20
 175              		.cfi_restore 19
 176              		.cfi_restore 18
 177              		.cfi_restore 9
 178              		.cfi_restore 8
 179              		.cfi_restore 1
 180              		.cfi_def_cfa_offset -48
 181              	.LVL14:
 182              	.L2:
 183              		.cfi_restore_state
  48:C:/Users/stapi/OneDrive/Desktop/GD32VW553/V1_MQTT_OK/GD32VW55X_Wifi_BLE_SDK/GD32VW55x_RELEASE_V1.0.2/MSDK/wpa_supplicant/src/crypto\sha384-kdf.c **** 		len[1] = 0;
 184              		.loc 1 48 3 is_stmt 1
  48:C:/Users/stapi/OneDrive/Desktop/GD32VW553/V1_MQTT_OK/GD32VW55X_Wifi_BLE_SDK/GD32VW55x_RELEASE_V1.0.2/MSDK/wpa_supplicant/src/crypto\sha384-kdf.c **** 		len[1] = 0;
 185              		.loc 1 48 11 is_stmt 0
 186 00ba B7070000 		lui	a5,%hi(.LC0)
 187 00be 93870700 		addi	a5,a5,%lo(.LC0)
 188 00c2 3ECA     		sw	a5,20(sp)
  49:C:/Users/stapi/OneDrive/Desktop/GD32VW553/V1_MQTT_OK/GD32VW55X_Wifi_BLE_SDK/GD32VW55x_RELEASE_V1.0.2/MSDK/wpa_supplicant/src/crypto\sha384-kdf.c **** 	}
 189              		.loc 1 49 3 is_stmt 1
  49:C:/Users/stapi/OneDrive/Desktop/GD32VW553/V1_MQTT_OK/GD32VW55X_Wifi_BLE_SDK/GD32VW55x_RELEASE_V1.0.2/MSDK/wpa_supplicant/src/crypto\sha384-kdf.c **** 	}
 190              		.loc 1 49 10 is_stmt 0
 191 00c4 02D2     		sw	zero,36(sp)
 192 00c6 8DBF     		j	.L3
 193              	.LVL15:
 194              	.L6:
  75:C:/Users/stapi/OneDrive/Desktop/GD32VW553/V1_MQTT_OK/GD32VW55X_Wifi_BLE_SDK/GD32VW55x_RELEASE_V1.0.2/MSDK/wpa_supplicant/src/crypto\sha384-kdf.c **** 
 195              		.loc 1 75 3 is_stmt 1
  75:C:/Users/stapi/OneDrive/Desktop/GD32VW553/V1_MQTT_OK/GD32VW55X_Wifi_BLE_SDK/GD32VW55x_RELEASE_V1.0.2/MSDK/wpa_supplicant/src/crypto\sha384-kdf.c **** 
 196              		.loc 1 75 7 is_stmt 0
 197 00c8 8507     		addi	a5,a5,1
 198 00ca A307F100 		sb	a5,15(sp)
  77:C:/Users/stapi/OneDrive/Desktop/GD32VW553/V1_MQTT_OK/GD32VW55X_Wifi_BLE_SDK/GD32VW55x_RELEASE_V1.0.2/MSDK/wpa_supplicant/src/crypto\sha384-kdf.c **** 		{
 199              		.loc 1 77 3 is_stmt 1
  77:C:/Users/stapi/OneDrive/Desktop/GD32VW553/V1_MQTT_OK/GD32VW55X_Wifi_BLE_SDK/GD32VW55x_RELEASE_V1.0.2/MSDK/wpa_supplicant/src/crypto\sha384-kdf.c **** 		{
 200              		.loc 1 77 7 is_stmt 0
 201 00ce 1810     		addi	a4,sp,32
 202 00d0 A287     		mv	a5,s0
 203 00d2 1408     		addi	a3,sp,16
 204 00d4 1146     		li	a2,4
 205 00d6 D685     		mv	a1,s5
 206 00d8 5285     		mv	a0,s4
 207 00da 97000000 		call	hmac_sha384_vector
 207      E7800000 
 208              	.LVL16:
  77:C:/Users/stapi/OneDrive/Desktop/GD32VW553/V1_MQTT_OK/GD32VW55X_Wifi_BLE_SDK/GD32VW55x_RELEASE_V1.0.2/MSDK/wpa_supplicant/src/crypto\sha384-kdf.c **** 		{
 209              		.loc 1 77 6
 210 00e2 E35405F8 		bge	a0,zero,.L8
 211 00e6 6DB7     		j	.L7
 212              	.L5:
  85:C:/Users/stapi/OneDrive/Desktop/GD32VW553/V1_MQTT_OK/GD32VW55X_Wifi_BLE_SDK/GD32VW55x_RELEASE_V1.0.2/MSDK/wpa_supplicant/src/crypto\sha384-kdf.c **** 	return 0;
 213              		.loc 1 85 2 is_stmt 1
 214 00e8 93050003 		li	a1,48
 215 00ec 2285     		mv	a0,s0
 216 00ee 97000000 		call	forced_memzero
 216      E7800000 
 217              	.LVL17:
  86:C:/Users/stapi/OneDrive/Desktop/GD32VW553/V1_MQTT_OK/GD32VW55X_Wifi_BLE_SDK/GD32VW55x_RELEASE_V1.0.2/MSDK/wpa_supplicant/src/crypto\sha384-kdf.c **** }
 218              		.loc 1 86 2
  86:C:/Users/stapi/OneDrive/Desktop/GD32VW553/V1_MQTT_OK/GD32VW55X_Wifi_BLE_SDK/GD32VW55x_RELEASE_V1.0.2/MSDK/wpa_supplicant/src/crypto\sha384-kdf.c **** }
 219              		.loc 1 86 9 is_stmt 0
 220 00f6 8147     		li	a5,0
 221 00f8 5DBF     		j	.L1
 222              		.cfi_endproc
 223              	.LFE71:
 225              		.text
 226              	.Letext0:
 227              		.file 2 "c:\\users\\stapi\\onedrive\\desktop\\gd32vw553\\embeddedbuilder_v1.4.7.26843\\tools\\nucl
 228              		.file 3 "c:\\users\\stapi\\onedrive\\desktop\\gd32vw553\\embeddedbuilder_v1.4.7.26843\\tools\\nucl
 229              		.file 4 "c:\\users\\stapi\\onedrive\\desktop\\gd32vw553\\embeddedbuilder_v1.4.7.26843\\tools\\nucl
 230              		.file 5 "..\\..\\..\\..\\wpa_supplicant\\src\\utils/os.h"
 231              		.file 6 "C:/Users/stapi/OneDrive/Desktop/GD32VW553/V1_MQTT_OK/GD32VW55X_Wifi_BLE_SDK/GD32VW55x_REL
 232              		.file 7 "..\\..\\..\\..\\wpa_supplicant\\src\\utils/common.h"
DEFINED SYMBOLS
                            *ABS*:0000000000000000 sha384-kdf.c
C:\Users\stapi\AppData\Local\Temp\ccSjDNEg.s:17     .text.hmac_sha384_kdf:0000000000000000 hmac_sha384_kdf
C:\Users\stapi\AppData\Local\Temp\ccSjDNEg.s:21     .text.hmac_sha384_kdf:0000000000000000 .L0 
C:\Users\stapi\AppData\Local\Temp\ccSjDNEg.s:23     .text.hmac_sha384_kdf:0000000000000000 .L0 
C:\Users\stapi\AppData\Local\Temp\ccSjDNEg.s:24     .text.hmac_sha384_kdf:0000000000000008 .L0 
C:\Users\stapi\AppData\Local\Temp\ccSjDNEg.s:25     .text.hmac_sha384_kdf:0000000000000008 .L0 
C:\Users\stapi\AppData\Local\Temp\ccSjDNEg.s:26     .text.hmac_sha384_kdf:0000000000000008 .L0 
C:\Users\stapi\AppData\Local\Temp\ccSjDNEg.s:27     .text.hmac_sha384_kdf:0000000000000008 .L0 
C:\Users\stapi\AppData\Local\Temp\ccSjDNEg.s:28     .text.hmac_sha384_kdf:0000000000000008 .L0 
C:\Users\stapi\AppData\Local\Temp\ccSjDNEg.s:29     .text.hmac_sha384_kdf:0000000000000008 .L0 
C:\Users\stapi\AppData\Local\Temp\ccSjDNEg.s:30     .text.hmac_sha384_kdf:0000000000000008 .L0 
C:\Users\stapi\AppData\Local\Temp\ccSjDNEg.s:31     .text.hmac_sha384_kdf:0000000000000008 .L0 
C:\Users\stapi\AppData\Local\Temp\ccSjDNEg.s:32     .text.hmac_sha384_kdf:0000000000000008 .L0 
C:\Users\stapi\AppData\Local\Temp\ccSjDNEg.s:33     .text.hmac_sha384_kdf:0000000000000008 .L0 
C:\Users\stapi\AppData\Local\Temp\ccSjDNEg.s:34     .text.hmac_sha384_kdf:0000000000000008 .L0 
C:\Users\stapi\AppData\Local\Temp\ccSjDNEg.s:36     .text.hmac_sha384_kdf:0000000000000008 .L0 
C:\Users\stapi\AppData\Local\Temp\ccSjDNEg.s:37     .text.hmac_sha384_kdf:0000000000000008 .L0 
C:\Users\stapi\AppData\Local\Temp\ccSjDNEg.s:38     .text.hmac_sha384_kdf:0000000000000008 .L0 
C:\Users\stapi\AppData\Local\Temp\ccSjDNEg.s:39     .text.hmac_sha384_kdf:000000000000000a .L0 
C:\Users\stapi\AppData\Local\Temp\ccSjDNEg.s:41     .text.hmac_sha384_kdf:000000000000000a .L0 
C:\Users\stapi\AppData\Local\Temp\ccSjDNEg.s:43     .text.hmac_sha384_kdf:000000000000000c .L0 
C:\Users\stapi\AppData\Local\Temp\ccSjDNEg.s:47     .text.hmac_sha384_kdf:0000000000000012 .L0 
C:\Users\stapi\AppData\Local\Temp\ccSjDNEg.s:48     .text.hmac_sha384_kdf:0000000000000012 .L0 
C:\Users\stapi\AppData\Local\Temp\ccSjDNEg.s:49     .text.hmac_sha384_kdf:0000000000000012 .L0 
C:\Users\stapi\AppData\Local\Temp\ccSjDNEg.s:50     .text.hmac_sha384_kdf:0000000000000012 .L0 
C:\Users\stapi\AppData\Local\Temp\ccSjDNEg.s:51     .text.hmac_sha384_kdf:0000000000000012 .L0 
C:\Users\stapi\AppData\Local\Temp\ccSjDNEg.s:53     .text.hmac_sha384_kdf:0000000000000014 .L0 
C:\Users\stapi\AppData\Local\Temp\ccSjDNEg.s:55     .text.hmac_sha384_kdf:0000000000000018 .L0 
C:\Users\stapi\AppData\Local\Temp\ccSjDNEg.s:57     .text.hmac_sha384_kdf:000000000000001a .L0 
C:\Users\stapi\AppData\Local\Temp\ccSjDNEg.s:58     .text.hmac_sha384_kdf:000000000000001a .L0 
C:\Users\stapi\AppData\Local\Temp\ccSjDNEg.s:60     .text.hmac_sha384_kdf:000000000000001c .L0 
C:\Users\stapi\AppData\Local\Temp\ccSjDNEg.s:61     .text.hmac_sha384_kdf:000000000000001c .L0 
C:\Users\stapi\AppData\Local\Temp\ccSjDNEg.s:67     .text.hmac_sha384_kdf:0000000000000026 .L0 
C:\Users\stapi\AppData\Local\Temp\ccSjDNEg.s:71     .text.hmac_sha384_kdf:000000000000002a .L0 
C:\Users\stapi\AppData\Local\Temp\ccSjDNEg.s:72     .text.hmac_sha384_kdf:000000000000002a .L0 
C:\Users\stapi\AppData\Local\Temp\ccSjDNEg.s:74     .text.hmac_sha384_kdf:000000000000002c .L0 
C:\Users\stapi\AppData\Local\Temp\ccSjDNEg.s:75     .text.hmac_sha384_kdf:000000000000002c .L0 
C:\Users\stapi\AppData\Local\Temp\ccSjDNEg.s:78     .text.hmac_sha384_kdf:0000000000000034 .L0 
C:\Users\stapi\AppData\Local\Temp\ccSjDNEg.s:80     .text.hmac_sha384_kdf:0000000000000036 .L0 
C:\Users\stapi\AppData\Local\Temp\ccSjDNEg.s:83     .text.hmac_sha384_kdf:0000000000000038 .L0 
C:\Users\stapi\AppData\Local\Temp\ccSjDNEg.s:84     .text.hmac_sha384_kdf:0000000000000038 .L0 
C:\Users\stapi\AppData\Local\Temp\ccSjDNEg.s:87     .text.hmac_sha384_kdf:000000000000003e .L0 
C:\Users\stapi\AppData\Local\Temp\ccSjDNEg.s:90     .text.hmac_sha384_kdf:0000000000000042 .L0 
C:\Users\stapi\AppData\Local\Temp\ccSjDNEg.s:97     .text.hmac_sha384_kdf:000000000000004e .L0 
C:\Users\stapi\AppData\Local\Temp\ccSjDNEg.s:99     .text.hmac_sha384_kdf:0000000000000050 .L0 
C:\Users\stapi\AppData\Local\Temp\ccSjDNEg.s:100    .text.hmac_sha384_kdf:0000000000000050 .L0 
C:\Users\stapi\AppData\Local\Temp\ccSjDNEg.s:102    .text.hmac_sha384_kdf:0000000000000052 .L0 
C:\Users\stapi\AppData\Local\Temp\ccSjDNEg.s:103    .text.hmac_sha384_kdf:0000000000000052 .L0 
C:\Users\stapi\AppData\Local\Temp\ccSjDNEg.s:104    .text.hmac_sha384_kdf:0000000000000052 .L0 
C:\Users\stapi\AppData\Local\Temp\ccSjDNEg.s:105    .text.hmac_sha384_kdf:0000000000000052 .L0 
C:\Users\stapi\AppData\Local\Temp\ccSjDNEg.s:108    .text.hmac_sha384_kdf:000000000000005a .L0 
C:\Users\stapi\AppData\Local\Temp\ccSjDNEg.s:110    .text.hmac_sha384_kdf:000000000000005c .L0 
C:\Users\stapi\AppData\Local\Temp\ccSjDNEg.s:112    .text.hmac_sha384_kdf:0000000000000060 .L0 
C:\Users\stapi\AppData\Local\Temp\ccSjDNEg.s:116    .text.hmac_sha384_kdf:0000000000000066 .L0 
C:\Users\stapi\AppData\Local\Temp\ccSjDNEg.s:120    .text.hmac_sha384_kdf:000000000000006a .L0 
C:\Users\stapi\AppData\Local\Temp\ccSjDNEg.s:121    .text.hmac_sha384_kdf:000000000000006a .L0 
C:\Users\stapi\AppData\Local\Temp\ccSjDNEg.s:122    .text.hmac_sha384_kdf:000000000000006a .L0 
C:\Users\stapi\AppData\Local\Temp\ccSjDNEg.s:125    .text.hmac_sha384_kdf:000000000000006e .L0 
C:\Users\stapi\AppData\Local\Temp\ccSjDNEg.s:126    .text.hmac_sha384_kdf:000000000000006e .L0 
C:\Users\stapi\AppData\Local\Temp\ccSjDNEg.s:130    .text.hmac_sha384_kdf:0000000000000076 .L0 
C:\Users\stapi\AppData\Local\Temp\ccSjDNEg.s:133    .text.hmac_sha384_kdf:000000000000007a .L0 
C:\Users\stapi\AppData\Local\Temp\ccSjDNEg.s:136    .text.hmac_sha384_kdf:000000000000007c .L0 
C:\Users\stapi\AppData\Local\Temp\ccSjDNEg.s:139    .text.hmac_sha384_kdf:0000000000000084 .L0 
C:\Users\stapi\AppData\Local\Temp\ccSjDNEg.s:140    .text.hmac_sha384_kdf:0000000000000084 .L0 
C:\Users\stapi\AppData\Local\Temp\ccSjDNEg.s:141    .text.hmac_sha384_kdf:0000000000000084 .L0 
C:\Users\stapi\AppData\Local\Temp\ccSjDNEg.s:143    .text.hmac_sha384_kdf:0000000000000088 .L0 
C:\Users\stapi\AppData\Local\Temp\ccSjDNEg.s:144    .text.hmac_sha384_kdf:0000000000000088 .L0 
C:\Users\stapi\AppData\Local\Temp\ccSjDNEg.s:146    .text.hmac_sha384_kdf:000000000000008c .L0 
C:\Users\stapi\AppData\Local\Temp\ccSjDNEg.s:149    .text.hmac_sha384_kdf:0000000000000090 .L0 
C:\Users\stapi\AppData\Local\Temp\ccSjDNEg.s:155    .text.hmac_sha384_kdf:000000000000009e .L0 
C:\Users\stapi\AppData\Local\Temp\ccSjDNEg.s:160    .text.hmac_sha384_kdf:00000000000000ac .L0 
C:\Users\stapi\AppData\Local\Temp\ccSjDNEg.s:161    .text.hmac_sha384_kdf:00000000000000ac .L0 
C:\Users\stapi\AppData\Local\Temp\ccSjDNEg.s:165    .text.hmac_sha384_kdf:00000000000000ae .L0 
C:\Users\stapi\AppData\Local\Temp\ccSjDNEg.s:167    .text.hmac_sha384_kdf:00000000000000b2 .L0 
C:\Users\stapi\AppData\Local\Temp\ccSjDNEg.s:168    .text.hmac_sha384_kdf:00000000000000b2 .L0 
C:\Users\stapi\AppData\Local\Temp\ccSjDNEg.s:170    .text.hmac_sha384_kdf:00000000000000ba .L0 
C:\Users\stapi\AppData\Local\Temp\ccSjDNEg.s:171    .text.hmac_sha384_kdf:00000000000000ba .L0 
C:\Users\stapi\AppData\Local\Temp\ccSjDNEg.s:172    .text.hmac_sha384_kdf:00000000000000ba .L0 
C:\Users\stapi\AppData\Local\Temp\ccSjDNEg.s:173    .text.hmac_sha384_kdf:00000000000000ba .L0 
C:\Users\stapi\AppData\Local\Temp\ccSjDNEg.s:174    .text.hmac_sha384_kdf:00000000000000ba .L0 
C:\Users\stapi\AppData\Local\Temp\ccSjDNEg.s:175    .text.hmac_sha384_kdf:00000000000000ba .L0 
C:\Users\stapi\AppData\Local\Temp\ccSjDNEg.s:176    .text.hmac_sha384_kdf:00000000000000ba .L0 
C:\Users\stapi\AppData\Local\Temp\ccSjDNEg.s:177    .text.hmac_sha384_kdf:00000000000000ba .L0 
C:\Users\stapi\AppData\Local\Temp\ccSjDNEg.s:178    .text.hmac_sha384_kdf:00000000000000ba .L0 
C:\Users\stapi\AppData\Local\Temp\ccSjDNEg.s:179    .text.hmac_sha384_kdf:00000000000000ba .L0 
C:\Users\stapi\AppData\Local\Temp\ccSjDNEg.s:180    .text.hmac_sha384_kdf:00000000000000ba .L0 
C:\Users\stapi\AppData\Local\Temp\ccSjDNEg.s:183    .text.hmac_sha384_kdf:00000000000000ba .L0 
C:\Users\stapi\AppData\Local\Temp\ccSjDNEg.s:185    .text.hmac_sha384_kdf:00000000000000ba .L0 
C:\Users\stapi\AppData\Local\Temp\ccSjDNEg.s:186    .text.hmac_sha384_kdf:00000000000000ba .L0 
C:\Users\stapi\AppData\Local\Temp\ccSjDNEg.s:190    .text.hmac_sha384_kdf:00000000000000c4 .L0 
C:\Users\stapi\AppData\Local\Temp\ccSjDNEg.s:191    .text.hmac_sha384_kdf:00000000000000c4 .L0 
C:\Users\stapi\AppData\Local\Temp\ccSjDNEg.s:196    .text.hmac_sha384_kdf:00000000000000c8 .L0 
C:\Users\stapi\AppData\Local\Temp\ccSjDNEg.s:197    .text.hmac_sha384_kdf:00000000000000c8 .L0 
C:\Users\stapi\AppData\Local\Temp\ccSjDNEg.s:200    .text.hmac_sha384_kdf:00000000000000ce .L0 
C:\Users\stapi\AppData\Local\Temp\ccSjDNEg.s:201    .text.hmac_sha384_kdf:00000000000000ce .L0 
C:\Users\stapi\AppData\Local\Temp\ccSjDNEg.s:210    .text.hmac_sha384_kdf:00000000000000e2 .L0 
C:\Users\stapi\AppData\Local\Temp\ccSjDNEg.s:214    .text.hmac_sha384_kdf:00000000000000e8 .L0 
C:\Users\stapi\AppData\Local\Temp\ccSjDNEg.s:219    .text.hmac_sha384_kdf:00000000000000f6 .L0 
C:\Users\stapi\AppData\Local\Temp\ccSjDNEg.s:220    .text.hmac_sha384_kdf:00000000000000f6 .L0 
C:\Users\stapi\AppData\Local\Temp\ccSjDNEg.s:222    .text.hmac_sha384_kdf:00000000000000fa .L0 
C:\Users\stapi\AppData\Local\Temp\ccSjDNEg.s:225    .text.hmac_sha384_kdf:00000000000000fa .L0 
                     .debug_frame:0000000000000000 .L0 
C:\Users\stapi\AppData\Local\Temp\ccSjDNEg.s:11     .rodata.hmac_sha384_kdf.str1.4:0000000000000000 .LC0
C:\Users\stapi\AppData\Local\Temp\ccSjDNEg.s:182    .text.hmac_sha384_kdf:00000000000000ba .L2
C:\Users\stapi\AppData\Local\Temp\ccSjDNEg.s:163    .text.hmac_sha384_kdf:00000000000000ae .L1
C:\Users\stapi\AppData\Local\Temp\ccSjDNEg.s:212    .text.hmac_sha384_kdf:00000000000000e8 .L5
C:\Users\stapi\AppData\Local\Temp\ccSjDNEg.s:194    .text.hmac_sha384_kdf:00000000000000c8 .L6
C:\Users\stapi\AppData\Local\Temp\ccSjDNEg.s:81     .text.hmac_sha384_kdf:0000000000000038 .L3
C:\Users\stapi\AppData\Local\Temp\ccSjDNEg.s:118    .text.hmac_sha384_kdf:000000000000006a .L8
C:\Users\stapi\AppData\Local\Temp\ccSjDNEg.s:147    .text.hmac_sha384_kdf:0000000000000090 .L7
C:\Users\stapi\AppData\Local\Temp\ccSjDNEg.s:665    .debug_abbrev:0000000000000000 .Ldebug_abbrev0
C:\Users\stapi\AppData\Local\Temp\ccSjDNEg.s:1194   .debug_str:00000000000001cc .LASF28
C:\Users\stapi\AppData\Local\Temp\ccSjDNEg.s:1186   .debug_str:0000000000000092 .LASF29
C:\Users\stapi\AppData\Local\Temp\ccSjDNEg.s:1192   .debug_str:000000000000013a .LASF30
C:\Users\stapi\AppData\Local\Temp\ccSjDNEg.s:1154   .debug_ranges:0000000000000000 .Ldebug_ranges0
C:\Users\stapi\AppData\Local\Temp\ccSjDNEg.s:1160   .debug_line:0000000000000000 .Ldebug_line0
C:\Users\stapi\AppData\Local\Temp\ccSjDNEg.s:1164   .debug_str:000000000000000a .LASF2
C:\Users\stapi\AppData\Local\Temp\ccSjDNEg.s:1176   .debug_str:0000000000000043 .LASF0
C:\Users\stapi\AppData\Local\Temp\ccSjDNEg.s:1218   .debug_str:0000000000000331 .LASF1
C:\Users\stapi\AppData\Local\Temp\ccSjDNEg.s:1162   .debug_str:0000000000000000 .LASF3
C:\Users\stapi\AppData\Local\Temp\ccSjDNEg.s:1184   .debug_str:0000000000000084 .LASF4
C:\Users\stapi\AppData\Local\Temp\ccSjDNEg.s:1208   .debug_str:0000000000000309 .LASF5
C:\Users\stapi\AppData\Local\Temp\ccSjDNEg.s:1174   .debug_str:0000000000000030 .LASF6
C:\Users\stapi\AppData\Local\Temp\ccSjDNEg.s:1216   .debug_str:0000000000000328 .LASF7
C:\Users\stapi\AppData\Local\Temp\ccSjDNEg.s:1188   .debug_str:0000000000000123 .LASF8
C:\Users\stapi\AppData\Local\Temp\ccSjDNEg.s:1202   .debug_str:00000000000002e2 .LASF9
C:\Users\stapi\AppData\Local\Temp\ccSjDNEg.s:1182   .debug_str:000000000000006d .LASF10
C:\Users\stapi\AppData\Local\Temp\ccSjDNEg.s:1198   .debug_str:00000000000002d5 .LASF11
C:\Users\stapi\AppData\Local\Temp\ccSjDNEg.s:1200   .debug_str:00000000000002da .LASF12
C:\Users\stapi\AppData\Local\Temp\ccSjDNEg.s:1224   .debug_str:000000000000034a .LASF13
C:\Users\stapi\AppData\Local\Temp\ccSjDNEg.s:1196   .debug_str:00000000000002c5 .LASF31
C:\Users\stapi\AppData\Local\Temp\ccSjDNEg.s:18     .text.hmac_sha384_kdf:0000000000000000 .LFB71
C:\Users\stapi\AppData\Local\Temp\ccSjDNEg.s:223    .text.hmac_sha384_kdf:00000000000000fa .LFE71
C:\Users\stapi\AppData\Local\Temp\ccSjDNEg.s:1214   .debug_str:0000000000000321 .LASF14
C:\Users\stapi\AppData\Local\Temp\ccSjDNEg.s:972    .debug_loc:0000000000000000 .LLST0
C:\Users\stapi\AppData\Local\Temp\ccSjDNEg.s:1170   .debug_str:0000000000000020 .LASF15
C:\Users\stapi\AppData\Local\Temp\ccSjDNEg.s:991    .debug_loc:0000000000000034 .LLST1
C:\Users\stapi\AppData\Local\Temp\ccSjDNEg.s:1220   .debug_str:000000000000033d .LASF16
C:\Users\stapi\AppData\Local\Temp\ccSjDNEg.s:1010   .debug_loc:0000000000000068 .LLST2
C:\Users\stapi\AppData\Local\Temp\ccSjDNEg.s:1212   .debug_str:000000000000031c .LASF17
C:\Users\stapi\AppData\Local\Temp\ccSjDNEg.s:1035   .debug_loc:00000000000000a2 .LLST3
C:\Users\stapi\AppData\Local\Temp\ccSjDNEg.s:1210   .debug_str:0000000000000313 .LASF18
C:\Users\stapi\AppData\Local\Temp\ccSjDNEg.s:1064   .debug_loc:00000000000000e7 .LLST4
C:\Users\stapi\AppData\Local\Temp\ccSjDNEg.s:1093   .debug_loc:000000000000012c .LLST5
C:\Users\stapi\AppData\Local\Temp\ccSjDNEg.s:1222   .debug_str:0000000000000343 .LASF19
C:\Users\stapi\AppData\Local\Temp\ccSjDNEg.s:1104   .debug_loc:000000000000014a .LLST6
C:\Users\stapi\AppData\Local\Temp\ccSjDNEg.s:1172   .debug_str:000000000000002b .LASF20
C:\Users\stapi\AppData\Local\Temp\ccSjDNEg.s:1190   .debug_str:0000000000000135 .LASF21
C:\Users\stapi\AppData\Local\Temp\ccSjDNEg.s:1115   .debug_loc:0000000000000168 .LLST7
C:\Users\stapi\AppData\Local\Temp\ccSjDNEg.s:1168   .debug_str:000000000000001b .LASF22
C:\Users\stapi\AppData\Local\Temp\ccSjDNEg.s:1130   .debug_loc:0000000000000191 .LLST8
C:\Users\stapi\AppData\Local\Temp\ccSjDNEg.s:76     .text.hmac_sha384_kdf:0000000000000034 .LVL3
C:\Users\stapi\AppData\Local\Temp\ccSjDNEg.s:106    .text.hmac_sha384_kdf:000000000000005a .LVL4
C:\Users\stapi\AppData\Local\Temp\ccSjDNEg.s:137    .text.hmac_sha384_kdf:0000000000000084 .LVL10
C:\Users\stapi\AppData\Local\Temp\ccSjDNEg.s:153    .text.hmac_sha384_kdf:000000000000009e .LVL11
C:\Users\stapi\AppData\Local\Temp\ccSjDNEg.s:158    .text.hmac_sha384_kdf:00000000000000ac .LVL12
C:\Users\stapi\AppData\Local\Temp\ccSjDNEg.s:208    .text.hmac_sha384_kdf:00000000000000e2 .LVL16
C:\Users\stapi\AppData\Local\Temp\ccSjDNEg.s:217    .text.hmac_sha384_kdf:00000000000000f6 .LVL17
C:\Users\stapi\AppData\Local\Temp\ccSjDNEg.s:1180   .debug_str:0000000000000063 .LASF23
C:\Users\stapi\AppData\Local\Temp\ccSjDNEg.s:1178   .debug_str:0000000000000050 .LASF24
C:\Users\stapi\AppData\Local\Temp\ccSjDNEg.s:1166   .debug_str:0000000000000011 .LASF25
C:\Users\stapi\AppData\Local\Temp\ccSjDNEg.s:1204   .debug_str:00000000000002f0 .LASF26
C:\Users\stapi\AppData\Local\Temp\ccSjDNEg.s:1206   .debug_str:00000000000002fa .LASF27
C:\Users\stapi\AppData\Local\Temp\ccSjDNEg.s:22     .text.hmac_sha384_kdf:0000000000000000 .LVL0
C:\Users\stapi\AppData\Local\Temp\ccSjDNEg.s:69     .text.hmac_sha384_kdf:000000000000002a .LVL2
C:\Users\stapi\AppData\Local\Temp\ccSjDNEg.s:181    .text.hmac_sha384_kdf:00000000000000ba .LVL14
C:\Users\stapi\AppData\Local\Temp\ccSjDNEg.s:193    .text.hmac_sha384_kdf:00000000000000c8 .LVL15
C:\Users\stapi\AppData\Local\Temp\ccSjDNEg.s:117    .text.hmac_sha384_kdf:000000000000006a .LVL6
C:\Users\stapi\AppData\Local\Temp\ccSjDNEg.s:113    .text.hmac_sha384_kdf:0000000000000062 .LVL5
C:\Users\stapi\AppData\Local\Temp\ccSjDNEg.s:44     .text.hmac_sha384_kdf:000000000000000e .LVL1
C:\Users\stapi\AppData\Local\Temp\ccSjDNEg.s:134    .text.hmac_sha384_kdf:000000000000007c .LVL9
C:\Users\stapi\AppData\Local\Temp\ccSjDNEg.s:162    .text.hmac_sha384_kdf:00000000000000ae .LVL13
C:\Users\stapi\AppData\Local\Temp\ccSjDNEg.s:123    .text.hmac_sha384_kdf:000000000000006e .LVL7
C:\Users\stapi\AppData\Local\Temp\ccSjDNEg.s:234    .debug_info:0000000000000000 .Ldebug_info0

UNDEFINED SYMBOLS
__riscv_save_9
os_strlen
hmac_sha384_vector
os_memcpy
os_memset
forced_memzero
__riscv_restore_9
