   1              		.file	"sha384-internal.c"
   2              		.option nopic
   3              		.attribute arch, "rv32i2p0_m2p0_a2p0_f2p0_c2p0_b_p0p94"
   4              		.attribute unaligned_access, 0
   5              		.attribute stack_align, 16
   6              		.text
   7              	.Ltext0:
   8              		.cfi_sections	.debug_frame
   9              		.section	.text.sha384_init,"ax",@progbits
  10              		.align	1
  11              		.globl	sha384_init
  13              	sha384_init:
  14              	.LFB72:
  15              		.file 1 "C:/Users/stapi/OneDrive/Desktop/GD32VW553/V1_MQTT_OK/GD32VW55X_Wifi_BLE_SDK/GD32VW55x_REL
   1:C:/Users/stapi/OneDrive/Desktop/GD32VW553/V1_MQTT_OK/GD32VW55X_Wifi_BLE_SDK/GD32VW55x_RELEASE_V1.0.2/MSDK/wpa_supplicant/src/crypto\sha384-internal.c **** /*
   2:C:/Users/stapi/OneDrive/Desktop/GD32VW553/V1_MQTT_OK/GD32VW55X_Wifi_BLE_SDK/GD32VW55x_RELEASE_V1.0.2/MSDK/wpa_supplicant/src/crypto\sha384-internal.c ****  * SHA-384 hash implementation and interface functions
   3:C:/Users/stapi/OneDrive/Desktop/GD32VW553/V1_MQTT_OK/GD32VW55X_Wifi_BLE_SDK/GD32VW55x_RELEASE_V1.0.2/MSDK/wpa_supplicant/src/crypto\sha384-internal.c ****  * Copyright (c) 2015, Pali Roh√°r <pali.rohar@gmail.com>
   4:C:/Users/stapi/OneDrive/Desktop/GD32VW553/V1_MQTT_OK/GD32VW55X_Wifi_BLE_SDK/GD32VW55x_RELEASE_V1.0.2/MSDK/wpa_supplicant/src/crypto\sha384-internal.c ****  *
   5:C:/Users/stapi/OneDrive/Desktop/GD32VW553/V1_MQTT_OK/GD32VW55X_Wifi_BLE_SDK/GD32VW55x_RELEASE_V1.0.2/MSDK/wpa_supplicant/src/crypto\sha384-internal.c ****  * This software may be distributed under the terms of the BSD license.
   6:C:/Users/stapi/OneDrive/Desktop/GD32VW553/V1_MQTT_OK/GD32VW55X_Wifi_BLE_SDK/GD32VW55x_RELEASE_V1.0.2/MSDK/wpa_supplicant/src/crypto\sha384-internal.c ****  * See README for more details.
   7:C:/Users/stapi/OneDrive/Desktop/GD32VW553/V1_MQTT_OK/GD32VW55X_Wifi_BLE_SDK/GD32VW55x_RELEASE_V1.0.2/MSDK/wpa_supplicant/src/crypto\sha384-internal.c ****  */
   8:C:/Users/stapi/OneDrive/Desktop/GD32VW553/V1_MQTT_OK/GD32VW55X_Wifi_BLE_SDK/GD32VW55x_RELEASE_V1.0.2/MSDK/wpa_supplicant/src/crypto\sha384-internal.c **** 
   9:C:/Users/stapi/OneDrive/Desktop/GD32VW553/V1_MQTT_OK/GD32VW55X_Wifi_BLE_SDK/GD32VW55x_RELEASE_V1.0.2/MSDK/wpa_supplicant/src/crypto\sha384-internal.c **** #include "includes.h"
  10:C:/Users/stapi/OneDrive/Desktop/GD32VW553/V1_MQTT_OK/GD32VW55X_Wifi_BLE_SDK/GD32VW55x_RELEASE_V1.0.2/MSDK/wpa_supplicant/src/crypto\sha384-internal.c **** 
  11:C:/Users/stapi/OneDrive/Desktop/GD32VW553/V1_MQTT_OK/GD32VW55X_Wifi_BLE_SDK/GD32VW55x_RELEASE_V1.0.2/MSDK/wpa_supplicant/src/crypto\sha384-internal.c **** #include "common.h"
  12:C:/Users/stapi/OneDrive/Desktop/GD32VW553/V1_MQTT_OK/GD32VW55X_Wifi_BLE_SDK/GD32VW55x_RELEASE_V1.0.2/MSDK/wpa_supplicant/src/crypto\sha384-internal.c **** #include "sha384_i.h"
  13:C:/Users/stapi/OneDrive/Desktop/GD32VW553/V1_MQTT_OK/GD32VW55X_Wifi_BLE_SDK/GD32VW55x_RELEASE_V1.0.2/MSDK/wpa_supplicant/src/crypto\sha384-internal.c **** #include "crypto.h"
  14:C:/Users/stapi/OneDrive/Desktop/GD32VW553/V1_MQTT_OK/GD32VW55X_Wifi_BLE_SDK/GD32VW55x_RELEASE_V1.0.2/MSDK/wpa_supplicant/src/crypto\sha384-internal.c **** 
  15:C:/Users/stapi/OneDrive/Desktop/GD32VW553/V1_MQTT_OK/GD32VW55X_Wifi_BLE_SDK/GD32VW55x_RELEASE_V1.0.2/MSDK/wpa_supplicant/src/crypto\sha384-internal.c **** 
  16:C:/Users/stapi/OneDrive/Desktop/GD32VW553/V1_MQTT_OK/GD32VW55X_Wifi_BLE_SDK/GD32VW55x_RELEASE_V1.0.2/MSDK/wpa_supplicant/src/crypto\sha384-internal.c **** /**
  17:C:/Users/stapi/OneDrive/Desktop/GD32VW553/V1_MQTT_OK/GD32VW55X_Wifi_BLE_SDK/GD32VW55x_RELEASE_V1.0.2/MSDK/wpa_supplicant/src/crypto\sha384-internal.c ****  * sha384_vector - SHA384 hash for data vector
  18:C:/Users/stapi/OneDrive/Desktop/GD32VW553/V1_MQTT_OK/GD32VW55X_Wifi_BLE_SDK/GD32VW55x_RELEASE_V1.0.2/MSDK/wpa_supplicant/src/crypto\sha384-internal.c ****  * @num_elem: Number of elements in the data vector
  19:C:/Users/stapi/OneDrive/Desktop/GD32VW553/V1_MQTT_OK/GD32VW55X_Wifi_BLE_SDK/GD32VW55x_RELEASE_V1.0.2/MSDK/wpa_supplicant/src/crypto\sha384-internal.c ****  * @addr: Pointers to the data areas
  20:C:/Users/stapi/OneDrive/Desktop/GD32VW553/V1_MQTT_OK/GD32VW55X_Wifi_BLE_SDK/GD32VW55x_RELEASE_V1.0.2/MSDK/wpa_supplicant/src/crypto\sha384-internal.c ****  * @len: Lengths of the data blocks
  21:C:/Users/stapi/OneDrive/Desktop/GD32VW553/V1_MQTT_OK/GD32VW55X_Wifi_BLE_SDK/GD32VW55x_RELEASE_V1.0.2/MSDK/wpa_supplicant/src/crypto\sha384-internal.c ****  * @mac: Buffer for the hash
  22:C:/Users/stapi/OneDrive/Desktop/GD32VW553/V1_MQTT_OK/GD32VW55X_Wifi_BLE_SDK/GD32VW55x_RELEASE_V1.0.2/MSDK/wpa_supplicant/src/crypto\sha384-internal.c ****  * Returns: 0 on success, -1 of failure
  23:C:/Users/stapi/OneDrive/Desktop/GD32VW553/V1_MQTT_OK/GD32VW55X_Wifi_BLE_SDK/GD32VW55x_RELEASE_V1.0.2/MSDK/wpa_supplicant/src/crypto\sha384-internal.c ****  */
  24:C:/Users/stapi/OneDrive/Desktop/GD32VW553/V1_MQTT_OK/GD32VW55X_Wifi_BLE_SDK/GD32VW55x_RELEASE_V1.0.2/MSDK/wpa_supplicant/src/crypto\sha384-internal.c **** int sha384_vector(size_t num_elem, const u8 *addr[], const size_t *len,
  25:C:/Users/stapi/OneDrive/Desktop/GD32VW553/V1_MQTT_OK/GD32VW55X_Wifi_BLE_SDK/GD32VW55x_RELEASE_V1.0.2/MSDK/wpa_supplicant/src/crypto\sha384-internal.c **** 		  u8 *mac)
  26:C:/Users/stapi/OneDrive/Desktop/GD32VW553/V1_MQTT_OK/GD32VW55X_Wifi_BLE_SDK/GD32VW55x_RELEASE_V1.0.2/MSDK/wpa_supplicant/src/crypto\sha384-internal.c **** {
  27:C:/Users/stapi/OneDrive/Desktop/GD32VW553/V1_MQTT_OK/GD32VW55X_Wifi_BLE_SDK/GD32VW55x_RELEASE_V1.0.2/MSDK/wpa_supplicant/src/crypto\sha384-internal.c **** 	struct sha384_state ctx;
  28:C:/Users/stapi/OneDrive/Desktop/GD32VW553/V1_MQTT_OK/GD32VW55X_Wifi_BLE_SDK/GD32VW55x_RELEASE_V1.0.2/MSDK/wpa_supplicant/src/crypto\sha384-internal.c **** 	size_t i;
  29:C:/Users/stapi/OneDrive/Desktop/GD32VW553/V1_MQTT_OK/GD32VW55X_Wifi_BLE_SDK/GD32VW55x_RELEASE_V1.0.2/MSDK/wpa_supplicant/src/crypto\sha384-internal.c **** 
  30:C:/Users/stapi/OneDrive/Desktop/GD32VW553/V1_MQTT_OK/GD32VW55X_Wifi_BLE_SDK/GD32VW55x_RELEASE_V1.0.2/MSDK/wpa_supplicant/src/crypto\sha384-internal.c **** 	sha384_init(&ctx);
  31:C:/Users/stapi/OneDrive/Desktop/GD32VW553/V1_MQTT_OK/GD32VW55X_Wifi_BLE_SDK/GD32VW55x_RELEASE_V1.0.2/MSDK/wpa_supplicant/src/crypto\sha384-internal.c **** 	for (i = 0; i < num_elem; i++)
  32:C:/Users/stapi/OneDrive/Desktop/GD32VW553/V1_MQTT_OK/GD32VW55X_Wifi_BLE_SDK/GD32VW55x_RELEASE_V1.0.2/MSDK/wpa_supplicant/src/crypto\sha384-internal.c **** 		if (sha384_process(&ctx, addr[i], len[i]))
  33:C:/Users/stapi/OneDrive/Desktop/GD32VW553/V1_MQTT_OK/GD32VW55X_Wifi_BLE_SDK/GD32VW55x_RELEASE_V1.0.2/MSDK/wpa_supplicant/src/crypto\sha384-internal.c **** 			return -1;
  34:C:/Users/stapi/OneDrive/Desktop/GD32VW553/V1_MQTT_OK/GD32VW55X_Wifi_BLE_SDK/GD32VW55x_RELEASE_V1.0.2/MSDK/wpa_supplicant/src/crypto\sha384-internal.c **** 	if (sha384_done(&ctx, mac))
  35:C:/Users/stapi/OneDrive/Desktop/GD32VW553/V1_MQTT_OK/GD32VW55X_Wifi_BLE_SDK/GD32VW55x_RELEASE_V1.0.2/MSDK/wpa_supplicant/src/crypto\sha384-internal.c **** 		return -1;
  36:C:/Users/stapi/OneDrive/Desktop/GD32VW553/V1_MQTT_OK/GD32VW55X_Wifi_BLE_SDK/GD32VW55x_RELEASE_V1.0.2/MSDK/wpa_supplicant/src/crypto\sha384-internal.c **** 	return 0;
  37:C:/Users/stapi/OneDrive/Desktop/GD32VW553/V1_MQTT_OK/GD32VW55X_Wifi_BLE_SDK/GD32VW55x_RELEASE_V1.0.2/MSDK/wpa_supplicant/src/crypto\sha384-internal.c **** }
  38:C:/Users/stapi/OneDrive/Desktop/GD32VW553/V1_MQTT_OK/GD32VW55X_Wifi_BLE_SDK/GD32VW55x_RELEASE_V1.0.2/MSDK/wpa_supplicant/src/crypto\sha384-internal.c **** 
  39:C:/Users/stapi/OneDrive/Desktop/GD32VW553/V1_MQTT_OK/GD32VW55X_Wifi_BLE_SDK/GD32VW55x_RELEASE_V1.0.2/MSDK/wpa_supplicant/src/crypto\sha384-internal.c **** 
  40:C:/Users/stapi/OneDrive/Desktop/GD32VW553/V1_MQTT_OK/GD32VW55X_Wifi_BLE_SDK/GD32VW55x_RELEASE_V1.0.2/MSDK/wpa_supplicant/src/crypto\sha384-internal.c **** /* ===== start - public domain SHA384 implementation ===== */
  41:C:/Users/stapi/OneDrive/Desktop/GD32VW553/V1_MQTT_OK/GD32VW55X_Wifi_BLE_SDK/GD32VW55x_RELEASE_V1.0.2/MSDK/wpa_supplicant/src/crypto\sha384-internal.c **** 
  42:C:/Users/stapi/OneDrive/Desktop/GD32VW553/V1_MQTT_OK/GD32VW55X_Wifi_BLE_SDK/GD32VW55x_RELEASE_V1.0.2/MSDK/wpa_supplicant/src/crypto\sha384-internal.c **** /* This is based on SHA384 implementation in LibTomCrypt that was released into
  43:C:/Users/stapi/OneDrive/Desktop/GD32VW553/V1_MQTT_OK/GD32VW55X_Wifi_BLE_SDK/GD32VW55x_RELEASE_V1.0.2/MSDK/wpa_supplicant/src/crypto\sha384-internal.c ****  * public domain by Tom St Denis. */
  44:C:/Users/stapi/OneDrive/Desktop/GD32VW553/V1_MQTT_OK/GD32VW55X_Wifi_BLE_SDK/GD32VW55x_RELEASE_V1.0.2/MSDK/wpa_supplicant/src/crypto\sha384-internal.c **** 
  45:C:/Users/stapi/OneDrive/Desktop/GD32VW553/V1_MQTT_OK/GD32VW55X_Wifi_BLE_SDK/GD32VW55x_RELEASE_V1.0.2/MSDK/wpa_supplicant/src/crypto\sha384-internal.c **** #define CONST64(n) n ## ULL
  46:C:/Users/stapi/OneDrive/Desktop/GD32VW553/V1_MQTT_OK/GD32VW55X_Wifi_BLE_SDK/GD32VW55x_RELEASE_V1.0.2/MSDK/wpa_supplicant/src/crypto\sha384-internal.c **** 
  47:C:/Users/stapi/OneDrive/Desktop/GD32VW553/V1_MQTT_OK/GD32VW55X_Wifi_BLE_SDK/GD32VW55x_RELEASE_V1.0.2/MSDK/wpa_supplicant/src/crypto\sha384-internal.c **** /**
  48:C:/Users/stapi/OneDrive/Desktop/GD32VW553/V1_MQTT_OK/GD32VW55X_Wifi_BLE_SDK/GD32VW55x_RELEASE_V1.0.2/MSDK/wpa_supplicant/src/crypto\sha384-internal.c ****    Initialize the hash state
  49:C:/Users/stapi/OneDrive/Desktop/GD32VW553/V1_MQTT_OK/GD32VW55X_Wifi_BLE_SDK/GD32VW55x_RELEASE_V1.0.2/MSDK/wpa_supplicant/src/crypto\sha384-internal.c ****    @param md   The hash state you wish to initialize
  50:C:/Users/stapi/OneDrive/Desktop/GD32VW553/V1_MQTT_OK/GD32VW55X_Wifi_BLE_SDK/GD32VW55x_RELEASE_V1.0.2/MSDK/wpa_supplicant/src/crypto\sha384-internal.c ****    @return CRYPT_OK if successful
  51:C:/Users/stapi/OneDrive/Desktop/GD32VW553/V1_MQTT_OK/GD32VW55X_Wifi_BLE_SDK/GD32VW55x_RELEASE_V1.0.2/MSDK/wpa_supplicant/src/crypto\sha384-internal.c **** */
  52:C:/Users/stapi/OneDrive/Desktop/GD32VW553/V1_MQTT_OK/GD32VW55X_Wifi_BLE_SDK/GD32VW55x_RELEASE_V1.0.2/MSDK/wpa_supplicant/src/crypto\sha384-internal.c **** void sha384_init(struct sha384_state *md)
  53:C:/Users/stapi/OneDrive/Desktop/GD32VW553/V1_MQTT_OK/GD32VW55X_Wifi_BLE_SDK/GD32VW55x_RELEASE_V1.0.2/MSDK/wpa_supplicant/src/crypto\sha384-internal.c **** {
  16              		.loc 1 53 1
  17              		.cfi_startproc
  18              	.LVL0:
  54:C:/Users/stapi/OneDrive/Desktop/GD32VW553/V1_MQTT_OK/GD32VW55X_Wifi_BLE_SDK/GD32VW55x_RELEASE_V1.0.2/MSDK/wpa_supplicant/src/crypto\sha384-internal.c **** 	md->curlen = 0;
  19              		.loc 1 54 2
  55:C:/Users/stapi/OneDrive/Desktop/GD32VW553/V1_MQTT_OK/GD32VW55X_Wifi_BLE_SDK/GD32VW55x_RELEASE_V1.0.2/MSDK/wpa_supplicant/src/crypto\sha384-internal.c **** 	md->length = 0;
  20              		.loc 1 55 13 is_stmt 0
  21 0000 8147     		li	a5,0
  22 0002 0147     		li	a4,0
  23 0004 5CC1     		sw	a5,4(a0)
  56:C:/Users/stapi/OneDrive/Desktop/GD32VW553/V1_MQTT_OK/GD32VW55X_Wifi_BLE_SDK/GD32VW55x_RELEASE_V1.0.2/MSDK/wpa_supplicant/src/crypto\sha384-internal.c **** 	md->state[0] = CONST64(0xcbbb9d5dc1059ed8);
  24              		.loc 1 56 15
  25 0006 B7070000 		lui	a5,%hi(.LC0)
  55:C:/Users/stapi/OneDrive/Desktop/GD32VW553/V1_MQTT_OK/GD32VW55X_Wifi_BLE_SDK/GD32VW55x_RELEASE_V1.0.2/MSDK/wpa_supplicant/src/crypto\sha384-internal.c **** 	md->length = 0;
  26              		.loc 1 55 13
  27 000a 18C1     		sw	a4,0(a0)
  28              		.loc 1 56 15
  29 000c 03A70700 		lw	a4,%lo(.LC0)(a5)
  30 0010 83A74700 		lw	a5,%lo(.LC0+4)(a5)
  54:C:/Users/stapi/OneDrive/Desktop/GD32VW553/V1_MQTT_OK/GD32VW55X_Wifi_BLE_SDK/GD32VW55x_RELEASE_V1.0.2/MSDK/wpa_supplicant/src/crypto\sha384-internal.c **** 	md->curlen = 0;
  31              		.loc 1 54 13
  32 0014 23240504 		sw	zero,72(a0)
  55:C:/Users/stapi/OneDrive/Desktop/GD32VW553/V1_MQTT_OK/GD32VW55X_Wifi_BLE_SDK/GD32VW55x_RELEASE_V1.0.2/MSDK/wpa_supplicant/src/crypto\sha384-internal.c **** 	md->length = 0;
  33              		.loc 1 55 2 is_stmt 1
  34              		.loc 1 56 2
  35              		.loc 1 56 15 is_stmt 0
  36 0018 18C5     		sw	a4,8(a0)
  37 001a 5CC5     		sw	a5,12(a0)
  57:C:/Users/stapi/OneDrive/Desktop/GD32VW553/V1_MQTT_OK/GD32VW55X_Wifi_BLE_SDK/GD32VW55x_RELEASE_V1.0.2/MSDK/wpa_supplicant/src/crypto\sha384-internal.c **** 	md->state[1] = CONST64(0x629a292a367cd507);
  38              		.loc 1 57 2 is_stmt 1
  39              		.loc 1 57 15 is_stmt 0
  40 001c B7070000 		lui	a5,%hi(.LC1)
  41 0020 03A70700 		lw	a4,%lo(.LC1)(a5)
  42 0024 83A74700 		lw	a5,%lo(.LC1+4)(a5)
  43 0028 18C9     		sw	a4,16(a0)
  44 002a 5CC9     		sw	a5,20(a0)
  58:C:/Users/stapi/OneDrive/Desktop/GD32VW553/V1_MQTT_OK/GD32VW55X_Wifi_BLE_SDK/GD32VW55x_RELEASE_V1.0.2/MSDK/wpa_supplicant/src/crypto\sha384-internal.c **** 	md->state[2] = CONST64(0x9159015a3070dd17);
  45              		.loc 1 58 2 is_stmt 1
  46              		.loc 1 58 15 is_stmt 0
  47 002c B7070000 		lui	a5,%hi(.LC2)
  48 0030 03A70700 		lw	a4,%lo(.LC2)(a5)
  49 0034 83A74700 		lw	a5,%lo(.LC2+4)(a5)
  50 0038 18CD     		sw	a4,24(a0)
  51 003a 5CCD     		sw	a5,28(a0)
  59:C:/Users/stapi/OneDrive/Desktop/GD32VW553/V1_MQTT_OK/GD32VW55X_Wifi_BLE_SDK/GD32VW55x_RELEASE_V1.0.2/MSDK/wpa_supplicant/src/crypto\sha384-internal.c **** 	md->state[3] = CONST64(0x152fecd8f70e5939);
  52              		.loc 1 59 2 is_stmt 1
  53              		.loc 1 59 15 is_stmt 0
  54 003c B7070000 		lui	a5,%hi(.LC3)
  55 0040 03A70700 		lw	a4,%lo(.LC3)(a5)
  56 0044 83A74700 		lw	a5,%lo(.LC3+4)(a5)
  57 0048 18D1     		sw	a4,32(a0)
  58 004a 5CD1     		sw	a5,36(a0)
  60:C:/Users/stapi/OneDrive/Desktop/GD32VW553/V1_MQTT_OK/GD32VW55X_Wifi_BLE_SDK/GD32VW55x_RELEASE_V1.0.2/MSDK/wpa_supplicant/src/crypto\sha384-internal.c **** 	md->state[4] = CONST64(0x67332667ffc00b31);
  59              		.loc 1 60 2 is_stmt 1
  60              		.loc 1 60 15 is_stmt 0
  61 004c B7070000 		lui	a5,%hi(.LC4)
  62 0050 03A70700 		lw	a4,%lo(.LC4)(a5)
  63 0054 83A74700 		lw	a5,%lo(.LC4+4)(a5)
  64 0058 18D5     		sw	a4,40(a0)
  65 005a 5CD5     		sw	a5,44(a0)
  61:C:/Users/stapi/OneDrive/Desktop/GD32VW553/V1_MQTT_OK/GD32VW55X_Wifi_BLE_SDK/GD32VW55x_RELEASE_V1.0.2/MSDK/wpa_supplicant/src/crypto\sha384-internal.c **** 	md->state[5] = CONST64(0x8eb44a8768581511);
  66              		.loc 1 61 2 is_stmt 1
  67              		.loc 1 61 15 is_stmt 0
  68 005c B7070000 		lui	a5,%hi(.LC5)
  69 0060 03A70700 		lw	a4,%lo(.LC5)(a5)
  70 0064 83A74700 		lw	a5,%lo(.LC5+4)(a5)
  71 0068 18D9     		sw	a4,48(a0)
  72 006a 5CD9     		sw	a5,52(a0)
  62:C:/Users/stapi/OneDrive/Desktop/GD32VW553/V1_MQTT_OK/GD32VW55X_Wifi_BLE_SDK/GD32VW55x_RELEASE_V1.0.2/MSDK/wpa_supplicant/src/crypto\sha384-internal.c **** 	md->state[6] = CONST64(0xdb0c2e0d64f98fa7);
  73              		.loc 1 62 2 is_stmt 1
  74              		.loc 1 62 15 is_stmt 0
  75 006c B7070000 		lui	a5,%hi(.LC6)
  76 0070 03A70700 		lw	a4,%lo(.LC6)(a5)
  77 0074 83A74700 		lw	a5,%lo(.LC6+4)(a5)
  78 0078 18DD     		sw	a4,56(a0)
  79 007a 5CDD     		sw	a5,60(a0)
  63:C:/Users/stapi/OneDrive/Desktop/GD32VW553/V1_MQTT_OK/GD32VW55X_Wifi_BLE_SDK/GD32VW55x_RELEASE_V1.0.2/MSDK/wpa_supplicant/src/crypto\sha384-internal.c **** 	md->state[7] = CONST64(0x47b5481dbefa4fa4);
  80              		.loc 1 63 2 is_stmt 1
  81              		.loc 1 63 15 is_stmt 0
  82 007c B7070000 		lui	a5,%hi(.LC7)
  83 0080 03A70700 		lw	a4,%lo(.LC7)(a5)
  84 0084 83A74700 		lw	a5,%lo(.LC7+4)(a5)
  85 0088 38C1     		sw	a4,64(a0)
  86 008a 7CC1     		sw	a5,68(a0)
  64:C:/Users/stapi/OneDrive/Desktop/GD32VW553/V1_MQTT_OK/GD32VW55X_Wifi_BLE_SDK/GD32VW55x_RELEASE_V1.0.2/MSDK/wpa_supplicant/src/crypto\sha384-internal.c **** }
  87              		.loc 1 64 1
  88 008c 8280     		ret
  89              		.cfi_endproc
  90              	.LFE72:
  92              		.section	.text.sha384_process,"ax",@progbits
  93              		.align	1
  94              		.globl	sha384_process
  96              	sha384_process:
  97              	.LFB73:
  65:C:/Users/stapi/OneDrive/Desktop/GD32VW553/V1_MQTT_OK/GD32VW55X_Wifi_BLE_SDK/GD32VW55x_RELEASE_V1.0.2/MSDK/wpa_supplicant/src/crypto\sha384-internal.c **** 
  66:C:/Users/stapi/OneDrive/Desktop/GD32VW553/V1_MQTT_OK/GD32VW55X_Wifi_BLE_SDK/GD32VW55x_RELEASE_V1.0.2/MSDK/wpa_supplicant/src/crypto\sha384-internal.c **** int sha384_process(struct sha384_state *md, const unsigned char *in,
  67:C:/Users/stapi/OneDrive/Desktop/GD32VW553/V1_MQTT_OK/GD32VW55X_Wifi_BLE_SDK/GD32VW55x_RELEASE_V1.0.2/MSDK/wpa_supplicant/src/crypto\sha384-internal.c **** 		   unsigned long inlen)
  68:C:/Users/stapi/OneDrive/Desktop/GD32VW553/V1_MQTT_OK/GD32VW55X_Wifi_BLE_SDK/GD32VW55x_RELEASE_V1.0.2/MSDK/wpa_supplicant/src/crypto\sha384-internal.c **** {
  98              		.loc 1 68 1 is_stmt 1
  99              		.cfi_startproc
 100              	.LVL1:
  69:C:/Users/stapi/OneDrive/Desktop/GD32VW553/V1_MQTT_OK/GD32VW55X_Wifi_BLE_SDK/GD32VW55x_RELEASE_V1.0.2/MSDK/wpa_supplicant/src/crypto\sha384-internal.c **** 	return sha512_process(md, in, inlen);
 101              		.loc 1 69 2
 102              		.loc 1 69 9 is_stmt 0
 103 0000 17030000 		tail	sha512_process
 103      67000300 
 104              	.LVL2:
 105              		.cfi_endproc
 106              	.LFE73:
 108              		.section	.text.sha384_done,"ax",@progbits
 109              		.align	1
 110              		.globl	sha384_done
 112              	sha384_done:
 113              	.LFB74:
  70:C:/Users/stapi/OneDrive/Desktop/GD32VW553/V1_MQTT_OK/GD32VW55X_Wifi_BLE_SDK/GD32VW55x_RELEASE_V1.0.2/MSDK/wpa_supplicant/src/crypto\sha384-internal.c **** }
  71:C:/Users/stapi/OneDrive/Desktop/GD32VW553/V1_MQTT_OK/GD32VW55X_Wifi_BLE_SDK/GD32VW55x_RELEASE_V1.0.2/MSDK/wpa_supplicant/src/crypto\sha384-internal.c **** 
  72:C:/Users/stapi/OneDrive/Desktop/GD32VW553/V1_MQTT_OK/GD32VW55X_Wifi_BLE_SDK/GD32VW55x_RELEASE_V1.0.2/MSDK/wpa_supplicant/src/crypto\sha384-internal.c **** /**
  73:C:/Users/stapi/OneDrive/Desktop/GD32VW553/V1_MQTT_OK/GD32VW55X_Wifi_BLE_SDK/GD32VW55x_RELEASE_V1.0.2/MSDK/wpa_supplicant/src/crypto\sha384-internal.c ****    Terminate the hash to get the digest
  74:C:/Users/stapi/OneDrive/Desktop/GD32VW553/V1_MQTT_OK/GD32VW55X_Wifi_BLE_SDK/GD32VW55x_RELEASE_V1.0.2/MSDK/wpa_supplicant/src/crypto\sha384-internal.c ****    @param md  The hash state
  75:C:/Users/stapi/OneDrive/Desktop/GD32VW553/V1_MQTT_OK/GD32VW55X_Wifi_BLE_SDK/GD32VW55x_RELEASE_V1.0.2/MSDK/wpa_supplicant/src/crypto\sha384-internal.c ****    @param out [out] The destination of the hash (48 bytes)
  76:C:/Users/stapi/OneDrive/Desktop/GD32VW553/V1_MQTT_OK/GD32VW55X_Wifi_BLE_SDK/GD32VW55x_RELEASE_V1.0.2/MSDK/wpa_supplicant/src/crypto\sha384-internal.c ****    @return CRYPT_OK if successful
  77:C:/Users/stapi/OneDrive/Desktop/GD32VW553/V1_MQTT_OK/GD32VW55X_Wifi_BLE_SDK/GD32VW55x_RELEASE_V1.0.2/MSDK/wpa_supplicant/src/crypto\sha384-internal.c **** */
  78:C:/Users/stapi/OneDrive/Desktop/GD32VW553/V1_MQTT_OK/GD32VW55X_Wifi_BLE_SDK/GD32VW55x_RELEASE_V1.0.2/MSDK/wpa_supplicant/src/crypto\sha384-internal.c **** int sha384_done(struct sha384_state *md, unsigned char *out)
  79:C:/Users/stapi/OneDrive/Desktop/GD32VW553/V1_MQTT_OK/GD32VW55X_Wifi_BLE_SDK/GD32VW55x_RELEASE_V1.0.2/MSDK/wpa_supplicant/src/crypto\sha384-internal.c **** {
 114              		.loc 1 79 1 is_stmt 1
 115              		.cfi_startproc
 116              	.LVL3:
 117 0000 17030000 		call	t0,__riscv_save_2
 117      E7020300 
 118              		.cfi_offset 9, -12
 119              		.cfi_offset 8, -8
 120              		.cfi_offset 1, -4
 121              		.cfi_def_cfa_offset 16
  80:C:/Users/stapi/OneDrive/Desktop/GD32VW553/V1_MQTT_OK/GD32VW55X_Wifi_BLE_SDK/GD32VW55x_RELEASE_V1.0.2/MSDK/wpa_supplicant/src/crypto\sha384-internal.c **** 	unsigned char buf[64];
 122              		.loc 1 80 2
  81:C:/Users/stapi/OneDrive/Desktop/GD32VW553/V1_MQTT_OK/GD32VW55X_Wifi_BLE_SDK/GD32VW55x_RELEASE_V1.0.2/MSDK/wpa_supplicant/src/crypto\sha384-internal.c **** 
  82:C:/Users/stapi/OneDrive/Desktop/GD32VW553/V1_MQTT_OK/GD32VW55X_Wifi_BLE_SDK/GD32VW55x_RELEASE_V1.0.2/MSDK/wpa_supplicant/src/crypto\sha384-internal.c **** 	if (md->curlen >= sizeof(md->buf))
 123              		.loc 1 82 2
 124              		.loc 1 82 5 is_stmt 0
 125 0008 3845     		lw	a4,72(a0)
 126 000a 9307F007 		li	a5,127
  79:C:/Users/stapi/OneDrive/Desktop/GD32VW553/V1_MQTT_OK/GD32VW55X_Wifi_BLE_SDK/GD32VW55x_RELEASE_V1.0.2/MSDK/wpa_supplicant/src/crypto\sha384-internal.c **** 	unsigned char buf[64];
 127              		.loc 1 79 1
 128 000e 3971     		addi	sp,sp,-64
 129              		.cfi_def_cfa_offset 80
 130              		.loc 1 82 5
 131 0010 63F9E700 		bleu	a4,a5,.L5
 132              	.LVL4:
 133              	.L7:
  83:C:/Users/stapi/OneDrive/Desktop/GD32VW553/V1_MQTT_OK/GD32VW55X_Wifi_BLE_SDK/GD32VW55x_RELEASE_V1.0.2/MSDK/wpa_supplicant/src/crypto\sha384-internal.c **** 		return -1;
 134              		.loc 1 83 10
 135 0014 7D54     		li	s0,-1
 136              	.L4:
  84:C:/Users/stapi/OneDrive/Desktop/GD32VW553/V1_MQTT_OK/GD32VW55X_Wifi_BLE_SDK/GD32VW55x_RELEASE_V1.0.2/MSDK/wpa_supplicant/src/crypto\sha384-internal.c **** 
  85:C:/Users/stapi/OneDrive/Desktop/GD32VW553/V1_MQTT_OK/GD32VW55X_Wifi_BLE_SDK/GD32VW55x_RELEASE_V1.0.2/MSDK/wpa_supplicant/src/crypto\sha384-internal.c **** 	if (sha512_done(md, buf) != 0)
  86:C:/Users/stapi/OneDrive/Desktop/GD32VW553/V1_MQTT_OK/GD32VW55X_Wifi_BLE_SDK/GD32VW55x_RELEASE_V1.0.2/MSDK/wpa_supplicant/src/crypto\sha384-internal.c **** 		return -1;
  87:C:/Users/stapi/OneDrive/Desktop/GD32VW553/V1_MQTT_OK/GD32VW55X_Wifi_BLE_SDK/GD32VW55x_RELEASE_V1.0.2/MSDK/wpa_supplicant/src/crypto\sha384-internal.c **** 
  88:C:/Users/stapi/OneDrive/Desktop/GD32VW553/V1_MQTT_OK/GD32VW55X_Wifi_BLE_SDK/GD32VW55x_RELEASE_V1.0.2/MSDK/wpa_supplicant/src/crypto\sha384-internal.c **** 	os_memcpy(out, buf, 48);
  89:C:/Users/stapi/OneDrive/Desktop/GD32VW553/V1_MQTT_OK/GD32VW55X_Wifi_BLE_SDK/GD32VW55x_RELEASE_V1.0.2/MSDK/wpa_supplicant/src/crypto\sha384-internal.c **** 	return 0;
  90:C:/Users/stapi/OneDrive/Desktop/GD32VW553/V1_MQTT_OK/GD32VW55X_Wifi_BLE_SDK/GD32VW55x_RELEASE_V1.0.2/MSDK/wpa_supplicant/src/crypto\sha384-internal.c **** }
 137              		.loc 1 90 1
 138 0016 2285     		mv	a0,s0
 139 0018 2161     		addi	sp,sp,64
 140              		.cfi_remember_state
 141              		.cfi_def_cfa_offset 0
 142 001a 17030000 		tail	__riscv_restore_2
 142      67000300 
 143              		.cfi_restore 9
 144              		.cfi_restore 8
 145              		.cfi_restore 1
 146              		.cfi_def_cfa_offset -16
 147              	.LVL5:
 148              	.L5:
 149              		.cfi_restore_state
 150 0022 AE84     		mv	s1,a1
  85:C:/Users/stapi/OneDrive/Desktop/GD32VW553/V1_MQTT_OK/GD32VW55X_Wifi_BLE_SDK/GD32VW55x_RELEASE_V1.0.2/MSDK/wpa_supplicant/src/crypto\sha384-internal.c **** 		return -1;
 151              		.loc 1 85 2 is_stmt 1
  85:C:/Users/stapi/OneDrive/Desktop/GD32VW553/V1_MQTT_OK/GD32VW55X_Wifi_BLE_SDK/GD32VW55x_RELEASE_V1.0.2/MSDK/wpa_supplicant/src/crypto\sha384-internal.c **** 		return -1;
 152              		.loc 1 85 6 is_stmt 0
 153 0024 8A85     		mv	a1,sp
 154              	.LVL6:
 155 0026 97000000 		call	sha512_done
 155      E7800000 
 156              	.LVL7:
 157 002e 2A84     		mv	s0,a0
  85:C:/Users/stapi/OneDrive/Desktop/GD32VW553/V1_MQTT_OK/GD32VW55X_Wifi_BLE_SDK/GD32VW55x_RELEASE_V1.0.2/MSDK/wpa_supplicant/src/crypto\sha384-internal.c **** 		return -1;
 158              		.loc 1 85 5
 159 0030 75F1     		bne	a0,zero,.L7
  88:C:/Users/stapi/OneDrive/Desktop/GD32VW553/V1_MQTT_OK/GD32VW55X_Wifi_BLE_SDK/GD32VW55x_RELEASE_V1.0.2/MSDK/wpa_supplicant/src/crypto\sha384-internal.c **** 	return 0;
 160              		.loc 1 88 2 is_stmt 1
 161 0032 13060003 		li	a2,48
 162 0036 8A85     		mv	a1,sp
 163 0038 2685     		mv	a0,s1
 164 003a 97000000 		call	os_memcpy
 164      E7800000 
 165              	.LVL8:
  89:C:/Users/stapi/OneDrive/Desktop/GD32VW553/V1_MQTT_OK/GD32VW55X_Wifi_BLE_SDK/GD32VW55x_RELEASE_V1.0.2/MSDK/wpa_supplicant/src/crypto\sha384-internal.c **** }
 166              		.loc 1 89 2
  89:C:/Users/stapi/OneDrive/Desktop/GD32VW553/V1_MQTT_OK/GD32VW55X_Wifi_BLE_SDK/GD32VW55x_RELEASE_V1.0.2/MSDK/wpa_supplicant/src/crypto\sha384-internal.c **** }
 167              		.loc 1 89 9 is_stmt 0
 168 0042 D1BF     		j	.L4
 169              		.cfi_endproc
 170              	.LFE74:
 172              		.section	.text.sha384_vector,"ax",@progbits
 173              		.align	1
 174              		.globl	sha384_vector
 176              	sha384_vector:
 177              	.LFB71:
  26:C:/Users/stapi/OneDrive/Desktop/GD32VW553/V1_MQTT_OK/GD32VW55X_Wifi_BLE_SDK/GD32VW55x_RELEASE_V1.0.2/MSDK/wpa_supplicant/src/crypto\sha384-internal.c **** 	struct sha384_state ctx;
 178              		.loc 1 26 1 is_stmt 1
 179              		.cfi_startproc
 180              	.LVL9:
 181 0000 17030000 		call	t0,__riscv_save_5
 181      E7020300 
 182              		.cfi_offset 20, -24
 183              		.cfi_offset 19, -20
 184              		.cfi_offset 18, -16
 185              		.cfi_offset 9, -12
 186              		.cfi_offset 8, -8
 187              		.cfi_offset 1, -4
 188              		.cfi_def_cfa_offset 32
  27:C:/Users/stapi/OneDrive/Desktop/GD32VW553/V1_MQTT_OK/GD32VW55X_Wifi_BLE_SDK/GD32VW55x_RELEASE_V1.0.2/MSDK/wpa_supplicant/src/crypto\sha384-internal.c **** 	size_t i;
 189              		.loc 1 27 2
  28:C:/Users/stapi/OneDrive/Desktop/GD32VW553/V1_MQTT_OK/GD32VW55X_Wifi_BLE_SDK/GD32VW55x_RELEASE_V1.0.2/MSDK/wpa_supplicant/src/crypto\sha384-internal.c **** 
 190              		.loc 1 28 2
  30:C:/Users/stapi/OneDrive/Desktop/GD32VW553/V1_MQTT_OK/GD32VW55X_Wifi_BLE_SDK/GD32VW55x_RELEASE_V1.0.2/MSDK/wpa_supplicant/src/crypto\sha384-internal.c **** 	for (i = 0; i < num_elem; i++)
 191              		.loc 1 30 2
  26:C:/Users/stapi/OneDrive/Desktop/GD32VW553/V1_MQTT_OK/GD32VW55X_Wifi_BLE_SDK/GD32VW55x_RELEASE_V1.0.2/MSDK/wpa_supplicant/src/crypto\sha384-internal.c **** 	struct sha384_state ctx;
 192              		.loc 1 26 1 is_stmt 0
 193 0008 5571     		addi	sp,sp,-208
 194              		.cfi_def_cfa_offset 240
  26:C:/Users/stapi/OneDrive/Desktop/GD32VW553/V1_MQTT_OK/GD32VW55X_Wifi_BLE_SDK/GD32VW55x_RELEASE_V1.0.2/MSDK/wpa_supplicant/src/crypto\sha384-internal.c **** 	struct sha384_state ctx;
 195              		.loc 1 26 1
 196 000a 2A89     		mv	s2,a0
  30:C:/Users/stapi/OneDrive/Desktop/GD32VW553/V1_MQTT_OK/GD32VW55X_Wifi_BLE_SDK/GD32VW55x_RELEASE_V1.0.2/MSDK/wpa_supplicant/src/crypto\sha384-internal.c **** 	for (i = 0; i < num_elem; i++)
 197              		.loc 1 30 2
 198 000c 0A85     		mv	a0,sp
 199              	.LVL10:
  26:C:/Users/stapi/OneDrive/Desktop/GD32VW553/V1_MQTT_OK/GD32VW55X_Wifi_BLE_SDK/GD32VW55x_RELEASE_V1.0.2/MSDK/wpa_supplicant/src/crypto\sha384-internal.c **** 	struct sha384_state ctx;
 200              		.loc 1 26 1
 201 000e AE89     		mv	s3,a1
 202 0010 328A     		mv	s4,a2
 203 0012 B684     		mv	s1,a3
  31:C:/Users/stapi/OneDrive/Desktop/GD32VW553/V1_MQTT_OK/GD32VW55X_Wifi_BLE_SDK/GD32VW55x_RELEASE_V1.0.2/MSDK/wpa_supplicant/src/crypto\sha384-internal.c **** 		if (sha384_process(&ctx, addr[i], len[i]))
 204              		.loc 1 31 9
 205 0014 0144     		li	s0,0
  30:C:/Users/stapi/OneDrive/Desktop/GD32VW553/V1_MQTT_OK/GD32VW55X_Wifi_BLE_SDK/GD32VW55x_RELEASE_V1.0.2/MSDK/wpa_supplicant/src/crypto\sha384-internal.c **** 	for (i = 0; i < num_elem; i++)
 206              		.loc 1 30 2
 207 0016 97000000 		call	sha384_init
 207      E7800000 
 208              	.LVL11:
  31:C:/Users/stapi/OneDrive/Desktop/GD32VW553/V1_MQTT_OK/GD32VW55X_Wifi_BLE_SDK/GD32VW55x_RELEASE_V1.0.2/MSDK/wpa_supplicant/src/crypto\sha384-internal.c **** 		if (sha384_process(&ctx, addr[i], len[i]))
 209              		.loc 1 31 2 is_stmt 1
 210              	.L10:
  31:C:/Users/stapi/OneDrive/Desktop/GD32VW553/V1_MQTT_OK/GD32VW55X_Wifi_BLE_SDK/GD32VW55x_RELEASE_V1.0.2/MSDK/wpa_supplicant/src/crypto\sha384-internal.c **** 		if (sha384_process(&ctx, addr[i], len[i]))
 211              		.loc 1 31 14 discriminator 1
  31:C:/Users/stapi/OneDrive/Desktop/GD32VW553/V1_MQTT_OK/GD32VW55X_Wifi_BLE_SDK/GD32VW55x_RELEASE_V1.0.2/MSDK/wpa_supplicant/src/crypto\sha384-internal.c **** 		if (sha384_process(&ctx, addr[i], len[i]))
 212              		.loc 1 31 2 is_stmt 0 discriminator 1
 213 001e 63112403 		bne	s0,s2,.L12
  34:C:/Users/stapi/OneDrive/Desktop/GD32VW553/V1_MQTT_OK/GD32VW55X_Wifi_BLE_SDK/GD32VW55x_RELEASE_V1.0.2/MSDK/wpa_supplicant/src/crypto\sha384-internal.c **** 		return -1;
 214              		.loc 1 34 2 is_stmt 1
  34:C:/Users/stapi/OneDrive/Desktop/GD32VW553/V1_MQTT_OK/GD32VW55X_Wifi_BLE_SDK/GD32VW55x_RELEASE_V1.0.2/MSDK/wpa_supplicant/src/crypto\sha384-internal.c **** 		return -1;
 215              		.loc 1 34 6 is_stmt 0
 216 0022 A685     		mv	a1,s1
 217 0024 0A85     		mv	a0,sp
 218 0026 97000000 		call	sha384_done
 218      E7800000 
 219              	.LVL12:
  34:C:/Users/stapi/OneDrive/Desktop/GD32VW553/V1_MQTT_OK/GD32VW55X_Wifi_BLE_SDK/GD32VW55x_RELEASE_V1.0.2/MSDK/wpa_supplicant/src/crypto\sha384-internal.c **** 		return -1;
 220              		.loc 1 34 5
 221 002e 3335A000 		snez	a0,a0
 222 0032 3305A040 		neg	a0,a0
 223              	.L9:
  37:C:/Users/stapi/OneDrive/Desktop/GD32VW553/V1_MQTT_OK/GD32VW55X_Wifi_BLE_SDK/GD32VW55x_RELEASE_V1.0.2/MSDK/wpa_supplicant/src/crypto\sha384-internal.c **** 
 224              		.loc 1 37 1
 225 0036 6961     		addi	sp,sp,208
 226              		.cfi_remember_state
 227              		.cfi_def_cfa_offset 0
 228 0038 17030000 		tail	__riscv_restore_5
 228      67000300 
 229              		.cfi_restore 20
 230              		.cfi_restore 19
 231              		.cfi_restore 18
 232              		.cfi_restore 9
 233              		.cfi_restore 8
 234              		.cfi_restore 1
 235              		.cfi_def_cfa_offset -32
 236              	.L12:
 237              		.cfi_restore_state
  32:C:/Users/stapi/OneDrive/Desktop/GD32VW553/V1_MQTT_OK/GD32VW55X_Wifi_BLE_SDK/GD32VW55x_RELEASE_V1.0.2/MSDK/wpa_supplicant/src/crypto\sha384-internal.c **** 			return -1;
 238              		.loc 1 32 3 is_stmt 1
 239 0040 93172400 		slli	a5,s0,2
 240              	.LVL13:
 241              	.LBB4:
 242              	.LBB5:
  69:C:/Users/stapi/OneDrive/Desktop/GD32VW553/V1_MQTT_OK/GD32VW55X_Wifi_BLE_SDK/GD32VW55x_RELEASE_V1.0.2/MSDK/wpa_supplicant/src/crypto\sha384-internal.c **** }
 243              		.loc 1 69 2
 244              	.LBE5:
 245              	.LBE4:
  32:C:/Users/stapi/OneDrive/Desktop/GD32VW553/V1_MQTT_OK/GD32VW55X_Wifi_BLE_SDK/GD32VW55x_RELEASE_V1.0.2/MSDK/wpa_supplicant/src/crypto\sha384-internal.c **** 			return -1;
 246              		.loc 1 32 7 is_stmt 0
 247 0044 3307FA00 		add	a4,s4,a5
 248              	.LVL14:
 249 0048 CE97     		add	a5,s3,a5
 250              	.LVL15:
 251              	.LBB7:
 252              	.LBB6:
  69:C:/Users/stapi/OneDrive/Desktop/GD32VW553/V1_MQTT_OK/GD32VW55X_Wifi_BLE_SDK/GD32VW55x_RELEASE_V1.0.2/MSDK/wpa_supplicant/src/crypto\sha384-internal.c **** }
 253              		.loc 1 69 9
 254 004a 1043     		lw	a2,0(a4)
 255 004c 8C43     		lw	a1,0(a5)
 256 004e 0A85     		mv	a0,sp
 257 0050 97000000 		call	sha512_process
 257      E7800000 
 258              	.LVL16:
 259              	.LBE6:
 260              	.LBE7:
  32:C:/Users/stapi/OneDrive/Desktop/GD32VW553/V1_MQTT_OK/GD32VW55X_Wifi_BLE_SDK/GD32VW55x_RELEASE_V1.0.2/MSDK/wpa_supplicant/src/crypto\sha384-internal.c **** 			return -1;
 261              		.loc 1 32 6
 262 0058 19E1     		bne	a0,zero,.L13
  31:C:/Users/stapi/OneDrive/Desktop/GD32VW553/V1_MQTT_OK/GD32VW55X_Wifi_BLE_SDK/GD32VW55x_RELEASE_V1.0.2/MSDK/wpa_supplicant/src/crypto\sha384-internal.c **** 		if (sha384_process(&ctx, addr[i], len[i]))
 263              		.loc 1 31 28 is_stmt 1 discriminator 2
  31:C:/Users/stapi/OneDrive/Desktop/GD32VW553/V1_MQTT_OK/GD32VW55X_Wifi_BLE_SDK/GD32VW55x_RELEASE_V1.0.2/MSDK/wpa_supplicant/src/crypto\sha384-internal.c **** 		if (sha384_process(&ctx, addr[i], len[i]))
 264              		.loc 1 31 29 is_stmt 0 discriminator 2
 265 005a 0504     		addi	s0,s0,1
 266              	.LVL17:
 267 005c C9B7     		j	.L10
 268              	.L13:
  33:C:/Users/stapi/OneDrive/Desktop/GD32VW553/V1_MQTT_OK/GD32VW55X_Wifi_BLE_SDK/GD32VW55x_RELEASE_V1.0.2/MSDK/wpa_supplicant/src/crypto\sha384-internal.c **** 	if (sha384_done(&ctx, mac))
 269              		.loc 1 33 11
 270 005e 7D55     		li	a0,-1
 271 0060 D9BF     		j	.L9
 272              		.cfi_endproc
 273              	.LFE71:
 275              		.section	.srodata.cst8,"aM",@progbits,8
 276              		.align	3
 277              	.LC0:
 278 0000 D89E05C1 		.word	-1056596264
 279 0004 5D9DBBCB 		.word	-876896931
 280              		.align	3
 281              	.LC1:
 282 0008 07D57C36 		.word	914150663
 283 000c 2A299A62 		.word	1654270250
 284              		.align	3
 285              	.LC2:
 286 0010 17DD7030 		.word	812702999
 287 0014 5A015991 		.word	-1856437926
 288              		.align	3
 289              	.LC3:
 290 0018 39590EF7 		.word	-150054599
 291 001c D8EC2F15 		.word	355462360
 292              		.align	3
 293              	.LC4:
 294 0020 310BC0FF 		.word	-4191439
 295 0024 67263367 		.word	1731405415
 296              		.align	3
 297              	.LC5:
 298 0028 11155868 		.word	1750603025
 299 002c 874AB48E 		.word	-1900787065
 300              		.align	3
 301              	.LC6:
 302 0030 A78FF964 		.word	1694076839
 303 0034 0D2E0CDB 		.word	-619958771
 304              		.align	3
 305              	.LC7:
 306 0038 A44FFABE 		.word	-1090891868
 307 003c 1D48B547 		.word	1203062813
 308              		.text
 309              	.Letext0:
 310              		.file 2 "c:\\users\\stapi\\onedrive\\desktop\\gd32vw553\\embeddedbuilder_v1.4.7.26843\\tools\\nucl
 311              		.file 3 "c:\\users\\stapi\\onedrive\\desktop\\gd32vw553\\embeddedbuilder_v1.4.7.26843\\tools\\nucl
 312              		.file 4 "c:\\users\\stapi\\onedrive\\desktop\\gd32vw553\\embeddedbuilder_v1.4.7.26843\\tools\\nucl
 313              		.file 5 "..\\..\\..\\..\\wpa_supplicant\\src\\utils/common.h"
 314              		.file 6 "C:/Users/stapi/OneDrive/Desktop/GD32VW553/V1_MQTT_OK/GD32VW55X_Wifi_BLE_SDK/GD32VW55x_REL
 315              		.file 7 "..\\..\\..\\..\\wpa_supplicant\\src\\utils/os.h"
DEFINED SYMBOLS
                            *ABS*:0000000000000000 sha384-internal.c
C:\Users\stapi\AppData\Local\Temp\ccDownpK.s:13     .text.sha384_init:0000000000000000 sha384_init
C:\Users\stapi\AppData\Local\Temp\ccDownpK.s:17     .text.sha384_init:0000000000000000 .L0 
C:\Users\stapi\AppData\Local\Temp\ccDownpK.s:19     .text.sha384_init:0000000000000000 .L0 
C:\Users\stapi\AppData\Local\Temp\ccDownpK.s:20     .text.sha384_init:0000000000000000 .L0 
C:\Users\stapi\AppData\Local\Temp\ccDownpK.s:21     .text.sha384_init:0000000000000000 .L0 
C:\Users\stapi\AppData\Local\Temp\ccDownpK.s:25     .text.sha384_init:0000000000000006 .L0 
C:\Users\stapi\AppData\Local\Temp\ccDownpK.s:27     .text.sha384_init:000000000000000a .L0 
C:\Users\stapi\AppData\Local\Temp\ccDownpK.s:29     .text.sha384_init:000000000000000c .L0 
C:\Users\stapi\AppData\Local\Temp\ccDownpK.s:32     .text.sha384_init:0000000000000014 .L0 
C:\Users\stapi\AppData\Local\Temp\ccDownpK.s:34     .text.sha384_init:0000000000000018 .L0 
C:\Users\stapi\AppData\Local\Temp\ccDownpK.s:35     .text.sha384_init:0000000000000018 .L0 
C:\Users\stapi\AppData\Local\Temp\ccDownpK.s:36     .text.sha384_init:0000000000000018 .L0 
C:\Users\stapi\AppData\Local\Temp\ccDownpK.s:39     .text.sha384_init:000000000000001c .L0 
C:\Users\stapi\AppData\Local\Temp\ccDownpK.s:40     .text.sha384_init:000000000000001c .L0 
C:\Users\stapi\AppData\Local\Temp\ccDownpK.s:46     .text.sha384_init:000000000000002c .L0 
C:\Users\stapi\AppData\Local\Temp\ccDownpK.s:47     .text.sha384_init:000000000000002c .L0 
C:\Users\stapi\AppData\Local\Temp\ccDownpK.s:53     .text.sha384_init:000000000000003c .L0 
C:\Users\stapi\AppData\Local\Temp\ccDownpK.s:54     .text.sha384_init:000000000000003c .L0 
C:\Users\stapi\AppData\Local\Temp\ccDownpK.s:60     .text.sha384_init:000000000000004c .L0 
C:\Users\stapi\AppData\Local\Temp\ccDownpK.s:61     .text.sha384_init:000000000000004c .L0 
C:\Users\stapi\AppData\Local\Temp\ccDownpK.s:67     .text.sha384_init:000000000000005c .L0 
C:\Users\stapi\AppData\Local\Temp\ccDownpK.s:68     .text.sha384_init:000000000000005c .L0 
C:\Users\stapi\AppData\Local\Temp\ccDownpK.s:74     .text.sha384_init:000000000000006c .L0 
C:\Users\stapi\AppData\Local\Temp\ccDownpK.s:75     .text.sha384_init:000000000000006c .L0 
C:\Users\stapi\AppData\Local\Temp\ccDownpK.s:81     .text.sha384_init:000000000000007c .L0 
C:\Users\stapi\AppData\Local\Temp\ccDownpK.s:82     .text.sha384_init:000000000000007c .L0 
C:\Users\stapi\AppData\Local\Temp\ccDownpK.s:88     .text.sha384_init:000000000000008c .L0 
C:\Users\stapi\AppData\Local\Temp\ccDownpK.s:89     .text.sha384_init:000000000000008e .L0 
C:\Users\stapi\AppData\Local\Temp\ccDownpK.s:96     .text.sha384_process:0000000000000000 sha384_process
C:\Users\stapi\AppData\Local\Temp\ccDownpK.s:99     .text.sha384_process:0000000000000000 .L0 
C:\Users\stapi\AppData\Local\Temp\ccDownpK.s:101    .text.sha384_process:0000000000000000 .L0 
C:\Users\stapi\AppData\Local\Temp\ccDownpK.s:102    .text.sha384_process:0000000000000000 .L0 
C:\Users\stapi\AppData\Local\Temp\ccDownpK.s:103    .text.sha384_process:0000000000000000 .L0 
C:\Users\stapi\AppData\Local\Temp\ccDownpK.s:105    .text.sha384_process:0000000000000008 .L0 
C:\Users\stapi\AppData\Local\Temp\ccDownpK.s:112    .text.sha384_done:0000000000000000 sha384_done
C:\Users\stapi\AppData\Local\Temp\ccDownpK.s:115    .text.sha384_done:0000000000000000 .L0 
C:\Users\stapi\AppData\Local\Temp\ccDownpK.s:117    .text.sha384_done:0000000000000000 .L0 
C:\Users\stapi\AppData\Local\Temp\ccDownpK.s:118    .text.sha384_done:0000000000000008 .L0 
C:\Users\stapi\AppData\Local\Temp\ccDownpK.s:119    .text.sha384_done:0000000000000008 .L0 
C:\Users\stapi\AppData\Local\Temp\ccDownpK.s:120    .text.sha384_done:0000000000000008 .L0 
C:\Users\stapi\AppData\Local\Temp\ccDownpK.s:121    .text.sha384_done:0000000000000008 .L0 
C:\Users\stapi\AppData\Local\Temp\ccDownpK.s:123    .text.sha384_done:0000000000000008 .L0 
C:\Users\stapi\AppData\Local\Temp\ccDownpK.s:124    .text.sha384_done:0000000000000008 .L0 
C:\Users\stapi\AppData\Local\Temp\ccDownpK.s:125    .text.sha384_done:0000000000000008 .L0 
C:\Users\stapi\AppData\Local\Temp\ccDownpK.s:128    .text.sha384_done:000000000000000e .L0 
C:\Users\stapi\AppData\Local\Temp\ccDownpK.s:129    .text.sha384_done:0000000000000010 .L0 
C:\Users\stapi\AppData\Local\Temp\ccDownpK.s:131    .text.sha384_done:0000000000000010 .L0 
C:\Users\stapi\AppData\Local\Temp\ccDownpK.s:135    .text.sha384_done:0000000000000014 .L0 
C:\Users\stapi\AppData\Local\Temp\ccDownpK.s:138    .text.sha384_done:0000000000000016 .L0 
C:\Users\stapi\AppData\Local\Temp\ccDownpK.s:140    .text.sha384_done:000000000000001a .L0 
C:\Users\stapi\AppData\Local\Temp\ccDownpK.s:141    .text.sha384_done:000000000000001a .L0 
C:\Users\stapi\AppData\Local\Temp\ccDownpK.s:143    .text.sha384_done:0000000000000022 .L0 
C:\Users\stapi\AppData\Local\Temp\ccDownpK.s:144    .text.sha384_done:0000000000000022 .L0 
C:\Users\stapi\AppData\Local\Temp\ccDownpK.s:145    .text.sha384_done:0000000000000022 .L0 
C:\Users\stapi\AppData\Local\Temp\ccDownpK.s:146    .text.sha384_done:0000000000000022 .L0 
C:\Users\stapi\AppData\Local\Temp\ccDownpK.s:149    .text.sha384_done:0000000000000022 .L0 
C:\Users\stapi\AppData\Local\Temp\ccDownpK.s:152    .text.sha384_done:0000000000000024 .L0 
C:\Users\stapi\AppData\Local\Temp\ccDownpK.s:153    .text.sha384_done:0000000000000024 .L0 
C:\Users\stapi\AppData\Local\Temp\ccDownpK.s:159    .text.sha384_done:0000000000000030 .L0 
C:\Users\stapi\AppData\Local\Temp\ccDownpK.s:161    .text.sha384_done:0000000000000032 .L0 
C:\Users\stapi\AppData\Local\Temp\ccDownpK.s:167    .text.sha384_done:0000000000000042 .L0 
C:\Users\stapi\AppData\Local\Temp\ccDownpK.s:168    .text.sha384_done:0000000000000042 .L0 
C:\Users\stapi\AppData\Local\Temp\ccDownpK.s:169    .text.sha384_done:0000000000000044 .L0 
C:\Users\stapi\AppData\Local\Temp\ccDownpK.s:176    .text.sha384_vector:0000000000000000 sha384_vector
C:\Users\stapi\AppData\Local\Temp\ccDownpK.s:179    .text.sha384_vector:0000000000000000 .L0 
C:\Users\stapi\AppData\Local\Temp\ccDownpK.s:181    .text.sha384_vector:0000000000000000 .L0 
C:\Users\stapi\AppData\Local\Temp\ccDownpK.s:182    .text.sha384_vector:0000000000000008 .L0 
C:\Users\stapi\AppData\Local\Temp\ccDownpK.s:183    .text.sha384_vector:0000000000000008 .L0 
C:\Users\stapi\AppData\Local\Temp\ccDownpK.s:184    .text.sha384_vector:0000000000000008 .L0 
C:\Users\stapi\AppData\Local\Temp\ccDownpK.s:185    .text.sha384_vector:0000000000000008 .L0 
C:\Users\stapi\AppData\Local\Temp\ccDownpK.s:186    .text.sha384_vector:0000000000000008 .L0 
C:\Users\stapi\AppData\Local\Temp\ccDownpK.s:187    .text.sha384_vector:0000000000000008 .L0 
C:\Users\stapi\AppData\Local\Temp\ccDownpK.s:188    .text.sha384_vector:0000000000000008 .L0 
C:\Users\stapi\AppData\Local\Temp\ccDownpK.s:190    .text.sha384_vector:0000000000000008 .L0 
C:\Users\stapi\AppData\Local\Temp\ccDownpK.s:191    .text.sha384_vector:0000000000000008 .L0 
C:\Users\stapi\AppData\Local\Temp\ccDownpK.s:192    .text.sha384_vector:0000000000000008 .L0 
C:\Users\stapi\AppData\Local\Temp\ccDownpK.s:193    .text.sha384_vector:0000000000000008 .L0 
C:\Users\stapi\AppData\Local\Temp\ccDownpK.s:194    .text.sha384_vector:000000000000000a .L0 
C:\Users\stapi\AppData\Local\Temp\ccDownpK.s:196    .text.sha384_vector:000000000000000a .L0 
C:\Users\stapi\AppData\Local\Temp\ccDownpK.s:198    .text.sha384_vector:000000000000000c .L0 
C:\Users\stapi\AppData\Local\Temp\ccDownpK.s:201    .text.sha384_vector:000000000000000e .L0 
C:\Users\stapi\AppData\Local\Temp\ccDownpK.s:205    .text.sha384_vector:0000000000000014 .L0 
C:\Users\stapi\AppData\Local\Temp\ccDownpK.s:207    .text.sha384_vector:0000000000000016 .L0 
C:\Users\stapi\AppData\Local\Temp\ccDownpK.s:211    .text.sha384_vector:000000000000001e .L0 
C:\Users\stapi\AppData\Local\Temp\ccDownpK.s:212    .text.sha384_vector:000000000000001e .L0 
C:\Users\stapi\AppData\Local\Temp\ccDownpK.s:213    .text.sha384_vector:000000000000001e .L0 
C:\Users\stapi\AppData\Local\Temp\ccDownpK.s:215    .text.sha384_vector:0000000000000022 .L0 
C:\Users\stapi\AppData\Local\Temp\ccDownpK.s:216    .text.sha384_vector:0000000000000022 .L0 
C:\Users\stapi\AppData\Local\Temp\ccDownpK.s:221    .text.sha384_vector:000000000000002e .L0 
C:\Users\stapi\AppData\Local\Temp\ccDownpK.s:225    .text.sha384_vector:0000000000000036 .L0 
C:\Users\stapi\AppData\Local\Temp\ccDownpK.s:226    .text.sha384_vector:0000000000000038 .L0 
C:\Users\stapi\AppData\Local\Temp\ccDownpK.s:227    .text.sha384_vector:0000000000000038 .L0 
C:\Users\stapi\AppData\Local\Temp\ccDownpK.s:229    .text.sha384_vector:0000000000000040 .L0 
C:\Users\stapi\AppData\Local\Temp\ccDownpK.s:230    .text.sha384_vector:0000000000000040 .L0 
C:\Users\stapi\AppData\Local\Temp\ccDownpK.s:231    .text.sha384_vector:0000000000000040 .L0 
C:\Users\stapi\AppData\Local\Temp\ccDownpK.s:232    .text.sha384_vector:0000000000000040 .L0 
C:\Users\stapi\AppData\Local\Temp\ccDownpK.s:233    .text.sha384_vector:0000000000000040 .L0 
C:\Users\stapi\AppData\Local\Temp\ccDownpK.s:234    .text.sha384_vector:0000000000000040 .L0 
C:\Users\stapi\AppData\Local\Temp\ccDownpK.s:235    .text.sha384_vector:0000000000000040 .L0 
C:\Users\stapi\AppData\Local\Temp\ccDownpK.s:237    .text.sha384_vector:0000000000000040 .L0 
C:\Users\stapi\AppData\Local\Temp\ccDownpK.s:239    .text.sha384_vector:0000000000000040 .L0 
C:\Users\stapi\AppData\Local\Temp\ccDownpK.s:246    .text.sha384_vector:0000000000000044 .L0 
C:\Users\stapi\AppData\Local\Temp\ccDownpK.s:247    .text.sha384_vector:0000000000000044 .L0 
C:\Users\stapi\AppData\Local\Temp\ccDownpK.s:254    .text.sha384_vector:000000000000004a .L0 
C:\Users\stapi\AppData\Local\Temp\ccDownpK.s:262    .text.sha384_vector:0000000000000058 .L0 
C:\Users\stapi\AppData\Local\Temp\ccDownpK.s:264    .text.sha384_vector:000000000000005a .L0 
C:\Users\stapi\AppData\Local\Temp\ccDownpK.s:265    .text.sha384_vector:000000000000005a .L0 
C:\Users\stapi\AppData\Local\Temp\ccDownpK.s:270    .text.sha384_vector:000000000000005e .L0 
C:\Users\stapi\AppData\Local\Temp\ccDownpK.s:272    .text.sha384_vector:0000000000000062 .L0 
C:\Users\stapi\AppData\Local\Temp\ccDownpK.s:92     .text.sha384_init:000000000000008e .L0 
C:\Users\stapi\AppData\Local\Temp\ccDownpK.s:108    .text.sha384_process:0000000000000008 .L0 
C:\Users\stapi\AppData\Local\Temp\ccDownpK.s:172    .text.sha384_done:0000000000000044 .L0 
C:\Users\stapi\AppData\Local\Temp\ccDownpK.s:275    .text.sha384_vector:0000000000000062 .L0 
                     .debug_frame:0000000000000000 .L0 
C:\Users\stapi\AppData\Local\Temp\ccDownpK.s:277    .srodata.cst8:0000000000000000 .LC0
C:\Users\stapi\AppData\Local\Temp\ccDownpK.s:281    .srodata.cst8:0000000000000008 .LC1
C:\Users\stapi\AppData\Local\Temp\ccDownpK.s:285    .srodata.cst8:0000000000000010 .LC2
C:\Users\stapi\AppData\Local\Temp\ccDownpK.s:289    .srodata.cst8:0000000000000018 .LC3
C:\Users\stapi\AppData\Local\Temp\ccDownpK.s:293    .srodata.cst8:0000000000000020 .LC4
C:\Users\stapi\AppData\Local\Temp\ccDownpK.s:297    .srodata.cst8:0000000000000028 .LC5
C:\Users\stapi\AppData\Local\Temp\ccDownpK.s:301    .srodata.cst8:0000000000000030 .LC6
C:\Users\stapi\AppData\Local\Temp\ccDownpK.s:305    .srodata.cst8:0000000000000038 .LC7
C:\Users\stapi\AppData\Local\Temp\ccDownpK.s:148    .text.sha384_done:0000000000000022 .L5
C:\Users\stapi\AppData\Local\Temp\ccDownpK.s:133    .text.sha384_done:0000000000000014 .L7
C:\Users\stapi\AppData\Local\Temp\ccDownpK.s:136    .text.sha384_done:0000000000000016 .L4
C:\Users\stapi\AppData\Local\Temp\ccDownpK.s:236    .text.sha384_vector:0000000000000040 .L12
C:\Users\stapi\AppData\Local\Temp\ccDownpK.s:268    .text.sha384_vector:000000000000005e .L13
C:\Users\stapi\AppData\Local\Temp\ccDownpK.s:210    .text.sha384_vector:000000000000001e .L10
C:\Users\stapi\AppData\Local\Temp\ccDownpK.s:223    .text.sha384_vector:0000000000000036 .L9
C:\Users\stapi\AppData\Local\Temp\ccDownpK.s:810    .debug_abbrev:0000000000000000 .Ldebug_abbrev0
C:\Users\stapi\AppData\Local\Temp\ccDownpK.s:1515   .debug_str:000000000000015a .LASF29
C:\Users\stapi\AppData\Local\Temp\ccDownpK.s:1529   .debug_str:000000000000028f .LASF30
C:\Users\stapi\AppData\Local\Temp\ccDownpK.s:1513   .debug_str:00000000000000c8 .LASF31
C:\Users\stapi\AppData\Local\Temp\ccDownpK.s:1461   .debug_ranges:0000000000000000 .Ldebug_ranges0
C:\Users\stapi\AppData\Local\Temp\ccDownpK.s:1479   .debug_line:0000000000000000 .Ldebug_line0
C:\Users\stapi\AppData\Local\Temp\ccDownpK.s:1487   .debug_str:0000000000000025 .LASF2
C:\Users\stapi\AppData\Local\Temp\ccDownpK.s:1495   .debug_str:000000000000004f .LASF0
C:\Users\stapi\AppData\Local\Temp\ccDownpK.s:1545   .debug_str:0000000000000367 .LASF1
C:\Users\stapi\AppData\Local\Temp\ccDownpK.s:1485   .debug_str:000000000000001b .LASF3
C:\Users\stapi\AppData\Local\Temp\ccDownpK.s:1503   .debug_str:0000000000000089 .LASF4
C:\Users\stapi\AppData\Local\Temp\ccDownpK.s:1537   .debug_str:0000000000000340 .LASF5
C:\Users\stapi\AppData\Local\Temp\ccDownpK.s:1493   .debug_str:000000000000003c .LASF6
C:\Users\stapi\AppData\Local\Temp\ccDownpK.s:1543   .debug_str:000000000000035e .LASF7
C:\Users\stapi\AppData\Local\Temp\ccDownpK.s:1505   .debug_str:0000000000000097 .LASF8
C:\Users\stapi\AppData\Local\Temp\ccDownpK.s:1507   .debug_str:00000000000000a2 .LASF9
C:\Users\stapi\AppData\Local\Temp\ccDownpK.s:1531   .debug_str:0000000000000325 .LASF10
C:\Users\stapi\AppData\Local\Temp\ccDownpK.s:1539   .debug_str:000000000000034a .LASF11
C:\Users\stapi\AppData\Local\Temp\ccDownpK.s:1501   .debug_str:0000000000000072 .LASF12
C:\Users\stapi\AppData\Local\Temp\ccDownpK.s:1521   .debug_str:000000000000026d .LASF13
C:\Users\stapi\AppData\Local\Temp\ccDownpK.s:1523   .debug_str:0000000000000272 .LASF14
C:\Users\stapi\AppData\Local\Temp\ccDownpK.s:1541   .debug_str:0000000000000355 .LASF15
C:\Users\stapi\AppData\Local\Temp\ccDownpK.s:1497   .debug_str:000000000000005c .LASF16
C:\Users\stapi\AppData\Local\Temp\ccDownpK.s:1547   .debug_str:0000000000000373 .LASF17
C:\Users\stapi\AppData\Local\Temp\ccDownpK.s:1499   .debug_str:0000000000000065 .LASF32
C:\Users\stapi\AppData\Local\Temp\ccDownpK.s:1549   .debug_str:0000000000000379 .LASF18
C:\Users\stapi\AppData\Local\Temp\ccDownpK.s:1491   .debug_str:0000000000000036 .LASF19
C:\Users\stapi\AppData\Local\Temp\ccDownpK.s:1535   .debug_str:0000000000000339 .LASF20
C:\Users\stapi\AppData\Local\Temp\ccDownpK.s:1519   .debug_str:0000000000000261 .LASF22
C:\Users\stapi\AppData\Local\Temp\ccDownpK.s:113    .text.sha384_done:0000000000000000 .LFB74
C:\Users\stapi\AppData\Local\Temp\ccDownpK.s:170    .text.sha384_done:0000000000000044 .LFE74
C:\Users\stapi\AppData\Local\Temp\ccDownpK.s:1270   .debug_loc:0000000000000000 .LLST3
C:\Users\stapi\AppData\Local\Temp\ccDownpK.s:1295   .debug_loc:000000000000003a .LLST4
C:\Users\stapi\AppData\Local\Temp\ccDownpK.s:156    .text.sha384_done:000000000000002e .LVL7
C:\Users\stapi\AppData\Local\Temp\ccDownpK.s:165    .text.sha384_done:0000000000000042 .LVL8
C:\Users\stapi\AppData\Local\Temp\ccDownpK.s:1511   .debug_str:00000000000000b9 .LASF33
C:\Users\stapi\AppData\Local\Temp\ccDownpK.s:1533   .debug_str:0000000000000333 .LASF21
C:\Users\stapi\AppData\Local\Temp\ccDownpK.s:1527   .debug_str:0000000000000283 .LASF34
C:\Users\stapi\AppData\Local\Temp\ccDownpK.s:14     .text.sha384_init:0000000000000000 .LFB72
C:\Users\stapi\AppData\Local\Temp\ccDownpK.s:90     .text.sha384_init:000000000000008e .LFE72
C:\Users\stapi\AppData\Local\Temp\ccDownpK.s:1517   .debug_str:0000000000000253 .LASF23
C:\Users\stapi\AppData\Local\Temp\ccDownpK.s:177    .text.sha384_vector:0000000000000000 .LFB71
C:\Users\stapi\AppData\Local\Temp\ccDownpK.s:273    .text.sha384_vector:0000000000000062 .LFE71
C:\Users\stapi\AppData\Local\Temp\ccDownpK.s:1525   .debug_str:000000000000027a .LASF24
C:\Users\stapi\AppData\Local\Temp\ccDownpK.s:1317   .debug_loc:0000000000000071 .LLST5
C:\Users\stapi\AppData\Local\Temp\ccDownpK.s:1509   .debug_str:00000000000000b4 .LASF25
C:\Users\stapi\AppData\Local\Temp\ccDownpK.s:1328   .debug_loc:000000000000008f .LLST6
C:\Users\stapi\AppData\Local\Temp\ccDownpK.s:1339   .debug_loc:00000000000000ad .LLST7
C:\Users\stapi\AppData\Local\Temp\ccDownpK.s:1350   .debug_loc:00000000000000cb .LLST8
C:\Users\stapi\AppData\Local\Temp\ccDownpK.s:241    .text.sha384_vector:0000000000000044 .LBB4
C:\Users\stapi\AppData\Local\Temp\ccDownpK.s:1361   .debug_loc:00000000000000e9 .LLST9
C:\Users\stapi\AppData\Local\Temp\ccDownpK.s:1377   .debug_loc:000000000000010c .LLST10
C:\Users\stapi\AppData\Local\Temp\ccDownpK.s:1393   .debug_loc:000000000000012f .LLST11
C:\Users\stapi\AppData\Local\Temp\ccDownpK.s:258    .text.sha384_vector:0000000000000058 .LVL16
C:\Users\stapi\AppData\Local\Temp\ccDownpK.s:208    .text.sha384_vector:000000000000001e .LVL11
C:\Users\stapi\AppData\Local\Temp\ccDownpK.s:219    .text.sha384_vector:000000000000002e .LVL12
C:\Users\stapi\AppData\Local\Temp\ccDownpK.s:97     .text.sha384_process:0000000000000000 .LFB73
C:\Users\stapi\AppData\Local\Temp\ccDownpK.s:106    .text.sha384_process:0000000000000008 .LFE73
C:\Users\stapi\AppData\Local\Temp\ccDownpK.s:1400   .debug_loc:0000000000000142 .LLST0
C:\Users\stapi\AppData\Local\Temp\ccDownpK.s:1414   .debug_loc:0000000000000163 .LLST1
C:\Users\stapi\AppData\Local\Temp\ccDownpK.s:1428   .debug_loc:0000000000000184 .LLST2
C:\Users\stapi\AppData\Local\Temp\ccDownpK.s:104    .text.sha384_process:0000000000000008 .LVL2
C:\Users\stapi\AppData\Local\Temp\ccDownpK.s:1483   .debug_str:000000000000000f .LASF26
C:\Users\stapi\AppData\Local\Temp\ccDownpK.s:1489   .debug_str:000000000000002c .LASF27
C:\Users\stapi\AppData\Local\Temp\ccDownpK.s:1481   .debug_str:0000000000000000 .LASF28
C:\Users\stapi\AppData\Local\Temp\ccDownpK.s:116    .text.sha384_done:0000000000000000 .LVL3
C:\Users\stapi\AppData\Local\Temp\ccDownpK.s:132    .text.sha384_done:0000000000000014 .LVL4
C:\Users\stapi\AppData\Local\Temp\ccDownpK.s:147    .text.sha384_done:0000000000000022 .LVL5
C:\Users\stapi\AppData\Local\Temp\ccDownpK.s:154    .text.sha384_done:0000000000000026 .LVL6
C:\Users\stapi\AppData\Local\Temp\ccDownpK.s:180    .text.sha384_vector:0000000000000000 .LVL9
C:\Users\stapi\AppData\Local\Temp\ccDownpK.s:199    .text.sha384_vector:000000000000000e .LVL10
C:\Users\stapi\AppData\Local\Temp\ccDownpK.s:240    .text.sha384_vector:0000000000000044 .LVL13
C:\Users\stapi\AppData\Local\Temp\ccDownpK.s:248    .text.sha384_vector:0000000000000048 .LVL14
C:\Users\stapi\AppData\Local\Temp\ccDownpK.s:250    .text.sha384_vector:000000000000004a .LVL15
C:\Users\stapi\AppData\Local\Temp\ccDownpK.s:100    .text.sha384_process:0000000000000000 .LVL1
C:\Users\stapi\AppData\Local\Temp\ccDownpK.s:317    .debug_info:0000000000000000 .Ldebug_info0
C:\Users\stapi\AppData\Local\Temp\ccDownpK.s:245    .text.sha384_vector:0000000000000044 .LBE4
C:\Users\stapi\AppData\Local\Temp\ccDownpK.s:251    .text.sha384_vector:000000000000004a .LBB7
C:\Users\stapi\AppData\Local\Temp\ccDownpK.s:260    .text.sha384_vector:0000000000000058 .LBE7

UNDEFINED SYMBOLS
sha512_process
__riscv_save_2
__riscv_restore_2
sha512_done
os_memcpy
__riscv_save_5
__riscv_restore_5
