   1              		.file	"sha512-internal.c"
   2              		.option nopic
   3              		.attribute arch, "rv32i2p0_m2p0_a2p0_f2p0_c2p0_b_p0p94"
   4              		.attribute unaligned_access, 0
   5              		.attribute stack_align, 16
   6              		.text
   7              	.Ltext0:
   8              		.cfi_sections	.debug_frame
   9              		.section	.text.sha512_compress,"ax",@progbits
  10              		.align	1
  12              	sha512_compress:
  13              	.LFB72:
  14              		.file 1 "C:/Users/stapi/OneDrive/Desktop/GD32VW553/V1_MQTT_OK/GD32VW55X_Wifi_BLE_SDK/GD32VW55x_REL
   1:C:/Users/stapi/OneDrive/Desktop/GD32VW553/V1_MQTT_OK/GD32VW55X_Wifi_BLE_SDK/GD32VW55x_RELEASE_V1.0.2/MSDK/wpa_supplicant/src/crypto\sha512-internal.c **** /*
   2:C:/Users/stapi/OneDrive/Desktop/GD32VW553/V1_MQTT_OK/GD32VW55X_Wifi_BLE_SDK/GD32VW55x_RELEASE_V1.0.2/MSDK/wpa_supplicant/src/crypto\sha512-internal.c ****  * SHA-512 hash implementation and interface functions
   3:C:/Users/stapi/OneDrive/Desktop/GD32VW553/V1_MQTT_OK/GD32VW55X_Wifi_BLE_SDK/GD32VW55x_RELEASE_V1.0.2/MSDK/wpa_supplicant/src/crypto\sha512-internal.c ****  * Copyright (c) 2015, Pali Rohár <pali.rohar@gmail.com>
   4:C:/Users/stapi/OneDrive/Desktop/GD32VW553/V1_MQTT_OK/GD32VW55X_Wifi_BLE_SDK/GD32VW55x_RELEASE_V1.0.2/MSDK/wpa_supplicant/src/crypto\sha512-internal.c ****  *
   5:C:/Users/stapi/OneDrive/Desktop/GD32VW553/V1_MQTT_OK/GD32VW55X_Wifi_BLE_SDK/GD32VW55x_RELEASE_V1.0.2/MSDK/wpa_supplicant/src/crypto\sha512-internal.c ****  * This software may be distributed under the terms of the BSD license.
   6:C:/Users/stapi/OneDrive/Desktop/GD32VW553/V1_MQTT_OK/GD32VW55X_Wifi_BLE_SDK/GD32VW55x_RELEASE_V1.0.2/MSDK/wpa_supplicant/src/crypto\sha512-internal.c ****  * See README for more details.
   7:C:/Users/stapi/OneDrive/Desktop/GD32VW553/V1_MQTT_OK/GD32VW55X_Wifi_BLE_SDK/GD32VW55x_RELEASE_V1.0.2/MSDK/wpa_supplicant/src/crypto\sha512-internal.c ****  */
   8:C:/Users/stapi/OneDrive/Desktop/GD32VW553/V1_MQTT_OK/GD32VW55X_Wifi_BLE_SDK/GD32VW55x_RELEASE_V1.0.2/MSDK/wpa_supplicant/src/crypto\sha512-internal.c **** 
   9:C:/Users/stapi/OneDrive/Desktop/GD32VW553/V1_MQTT_OK/GD32VW55X_Wifi_BLE_SDK/GD32VW55x_RELEASE_V1.0.2/MSDK/wpa_supplicant/src/crypto\sha512-internal.c **** #include "includes.h"
  10:C:/Users/stapi/OneDrive/Desktop/GD32VW553/V1_MQTT_OK/GD32VW55X_Wifi_BLE_SDK/GD32VW55x_RELEASE_V1.0.2/MSDK/wpa_supplicant/src/crypto\sha512-internal.c **** 
  11:C:/Users/stapi/OneDrive/Desktop/GD32VW553/V1_MQTT_OK/GD32VW55X_Wifi_BLE_SDK/GD32VW55x_RELEASE_V1.0.2/MSDK/wpa_supplicant/src/crypto\sha512-internal.c **** #include "common.h"
  12:C:/Users/stapi/OneDrive/Desktop/GD32VW553/V1_MQTT_OK/GD32VW55X_Wifi_BLE_SDK/GD32VW55x_RELEASE_V1.0.2/MSDK/wpa_supplicant/src/crypto\sha512-internal.c **** #include "sha512_i.h"
  13:C:/Users/stapi/OneDrive/Desktop/GD32VW553/V1_MQTT_OK/GD32VW55X_Wifi_BLE_SDK/GD32VW55x_RELEASE_V1.0.2/MSDK/wpa_supplicant/src/crypto\sha512-internal.c **** #include "crypto.h"
  14:C:/Users/stapi/OneDrive/Desktop/GD32VW553/V1_MQTT_OK/GD32VW55X_Wifi_BLE_SDK/GD32VW55x_RELEASE_V1.0.2/MSDK/wpa_supplicant/src/crypto\sha512-internal.c **** 
  15:C:/Users/stapi/OneDrive/Desktop/GD32VW553/V1_MQTT_OK/GD32VW55X_Wifi_BLE_SDK/GD32VW55x_RELEASE_V1.0.2/MSDK/wpa_supplicant/src/crypto\sha512-internal.c **** 
  16:C:/Users/stapi/OneDrive/Desktop/GD32VW553/V1_MQTT_OK/GD32VW55X_Wifi_BLE_SDK/GD32VW55x_RELEASE_V1.0.2/MSDK/wpa_supplicant/src/crypto\sha512-internal.c **** /**
  17:C:/Users/stapi/OneDrive/Desktop/GD32VW553/V1_MQTT_OK/GD32VW55X_Wifi_BLE_SDK/GD32VW55x_RELEASE_V1.0.2/MSDK/wpa_supplicant/src/crypto\sha512-internal.c ****  * sha512_vector - SHA512 hash for data vector
  18:C:/Users/stapi/OneDrive/Desktop/GD32VW553/V1_MQTT_OK/GD32VW55X_Wifi_BLE_SDK/GD32VW55x_RELEASE_V1.0.2/MSDK/wpa_supplicant/src/crypto\sha512-internal.c ****  * @num_elem: Number of elements in the data vector
  19:C:/Users/stapi/OneDrive/Desktop/GD32VW553/V1_MQTT_OK/GD32VW55X_Wifi_BLE_SDK/GD32VW55x_RELEASE_V1.0.2/MSDK/wpa_supplicant/src/crypto\sha512-internal.c ****  * @addr: Pointers to the data areas
  20:C:/Users/stapi/OneDrive/Desktop/GD32VW553/V1_MQTT_OK/GD32VW55X_Wifi_BLE_SDK/GD32VW55x_RELEASE_V1.0.2/MSDK/wpa_supplicant/src/crypto\sha512-internal.c ****  * @len: Lengths of the data blocks
  21:C:/Users/stapi/OneDrive/Desktop/GD32VW553/V1_MQTT_OK/GD32VW55X_Wifi_BLE_SDK/GD32VW55x_RELEASE_V1.0.2/MSDK/wpa_supplicant/src/crypto\sha512-internal.c ****  * @mac: Buffer for the hash
  22:C:/Users/stapi/OneDrive/Desktop/GD32VW553/V1_MQTT_OK/GD32VW55X_Wifi_BLE_SDK/GD32VW55x_RELEASE_V1.0.2/MSDK/wpa_supplicant/src/crypto\sha512-internal.c ****  * Returns: 0 on success, -1 of failure
  23:C:/Users/stapi/OneDrive/Desktop/GD32VW553/V1_MQTT_OK/GD32VW55X_Wifi_BLE_SDK/GD32VW55x_RELEASE_V1.0.2/MSDK/wpa_supplicant/src/crypto\sha512-internal.c ****  */
  24:C:/Users/stapi/OneDrive/Desktop/GD32VW553/V1_MQTT_OK/GD32VW55X_Wifi_BLE_SDK/GD32VW55x_RELEASE_V1.0.2/MSDK/wpa_supplicant/src/crypto\sha512-internal.c **** int sha512_vector(size_t num_elem, const u8 *addr[], const size_t *len,
  25:C:/Users/stapi/OneDrive/Desktop/GD32VW553/V1_MQTT_OK/GD32VW55X_Wifi_BLE_SDK/GD32VW55x_RELEASE_V1.0.2/MSDK/wpa_supplicant/src/crypto\sha512-internal.c **** 		  u8 *mac)
  26:C:/Users/stapi/OneDrive/Desktop/GD32VW553/V1_MQTT_OK/GD32VW55X_Wifi_BLE_SDK/GD32VW55x_RELEASE_V1.0.2/MSDK/wpa_supplicant/src/crypto\sha512-internal.c **** {
  27:C:/Users/stapi/OneDrive/Desktop/GD32VW553/V1_MQTT_OK/GD32VW55X_Wifi_BLE_SDK/GD32VW55x_RELEASE_V1.0.2/MSDK/wpa_supplicant/src/crypto\sha512-internal.c **** 	struct sha512_state ctx;
  28:C:/Users/stapi/OneDrive/Desktop/GD32VW553/V1_MQTT_OK/GD32VW55X_Wifi_BLE_SDK/GD32VW55x_RELEASE_V1.0.2/MSDK/wpa_supplicant/src/crypto\sha512-internal.c **** 	size_t i;
  29:C:/Users/stapi/OneDrive/Desktop/GD32VW553/V1_MQTT_OK/GD32VW55X_Wifi_BLE_SDK/GD32VW55x_RELEASE_V1.0.2/MSDK/wpa_supplicant/src/crypto\sha512-internal.c **** 
  30:C:/Users/stapi/OneDrive/Desktop/GD32VW553/V1_MQTT_OK/GD32VW55X_Wifi_BLE_SDK/GD32VW55x_RELEASE_V1.0.2/MSDK/wpa_supplicant/src/crypto\sha512-internal.c **** 	sha512_init(&ctx);
  31:C:/Users/stapi/OneDrive/Desktop/GD32VW553/V1_MQTT_OK/GD32VW55X_Wifi_BLE_SDK/GD32VW55x_RELEASE_V1.0.2/MSDK/wpa_supplicant/src/crypto\sha512-internal.c **** 	for (i = 0; i < num_elem; i++)
  32:C:/Users/stapi/OneDrive/Desktop/GD32VW553/V1_MQTT_OK/GD32VW55X_Wifi_BLE_SDK/GD32VW55x_RELEASE_V1.0.2/MSDK/wpa_supplicant/src/crypto\sha512-internal.c **** 		if (sha512_process(&ctx, addr[i], len[i]))
  33:C:/Users/stapi/OneDrive/Desktop/GD32VW553/V1_MQTT_OK/GD32VW55X_Wifi_BLE_SDK/GD32VW55x_RELEASE_V1.0.2/MSDK/wpa_supplicant/src/crypto\sha512-internal.c **** 			return -1;
  34:C:/Users/stapi/OneDrive/Desktop/GD32VW553/V1_MQTT_OK/GD32VW55X_Wifi_BLE_SDK/GD32VW55x_RELEASE_V1.0.2/MSDK/wpa_supplicant/src/crypto\sha512-internal.c **** 	if (sha512_done(&ctx, mac))
  35:C:/Users/stapi/OneDrive/Desktop/GD32VW553/V1_MQTT_OK/GD32VW55X_Wifi_BLE_SDK/GD32VW55x_RELEASE_V1.0.2/MSDK/wpa_supplicant/src/crypto\sha512-internal.c **** 		return -1;
  36:C:/Users/stapi/OneDrive/Desktop/GD32VW553/V1_MQTT_OK/GD32VW55X_Wifi_BLE_SDK/GD32VW55x_RELEASE_V1.0.2/MSDK/wpa_supplicant/src/crypto\sha512-internal.c **** 	return 0;
  37:C:/Users/stapi/OneDrive/Desktop/GD32VW553/V1_MQTT_OK/GD32VW55X_Wifi_BLE_SDK/GD32VW55x_RELEASE_V1.0.2/MSDK/wpa_supplicant/src/crypto\sha512-internal.c **** }
  38:C:/Users/stapi/OneDrive/Desktop/GD32VW553/V1_MQTT_OK/GD32VW55X_Wifi_BLE_SDK/GD32VW55x_RELEASE_V1.0.2/MSDK/wpa_supplicant/src/crypto\sha512-internal.c **** 
  39:C:/Users/stapi/OneDrive/Desktop/GD32VW553/V1_MQTT_OK/GD32VW55X_Wifi_BLE_SDK/GD32VW55x_RELEASE_V1.0.2/MSDK/wpa_supplicant/src/crypto\sha512-internal.c **** 
  40:C:/Users/stapi/OneDrive/Desktop/GD32VW553/V1_MQTT_OK/GD32VW55X_Wifi_BLE_SDK/GD32VW55x_RELEASE_V1.0.2/MSDK/wpa_supplicant/src/crypto\sha512-internal.c **** /* ===== start - public domain SHA512 implementation ===== */
  41:C:/Users/stapi/OneDrive/Desktop/GD32VW553/V1_MQTT_OK/GD32VW55X_Wifi_BLE_SDK/GD32VW55x_RELEASE_V1.0.2/MSDK/wpa_supplicant/src/crypto\sha512-internal.c **** 
  42:C:/Users/stapi/OneDrive/Desktop/GD32VW553/V1_MQTT_OK/GD32VW55X_Wifi_BLE_SDK/GD32VW55x_RELEASE_V1.0.2/MSDK/wpa_supplicant/src/crypto\sha512-internal.c **** /* This is based on SHA512 implementation in LibTomCrypt that was released into
  43:C:/Users/stapi/OneDrive/Desktop/GD32VW553/V1_MQTT_OK/GD32VW55X_Wifi_BLE_SDK/GD32VW55x_RELEASE_V1.0.2/MSDK/wpa_supplicant/src/crypto\sha512-internal.c ****  * public domain by Tom St Denis. */
  44:C:/Users/stapi/OneDrive/Desktop/GD32VW553/V1_MQTT_OK/GD32VW55X_Wifi_BLE_SDK/GD32VW55x_RELEASE_V1.0.2/MSDK/wpa_supplicant/src/crypto\sha512-internal.c **** 
  45:C:/Users/stapi/OneDrive/Desktop/GD32VW553/V1_MQTT_OK/GD32VW55X_Wifi_BLE_SDK/GD32VW55x_RELEASE_V1.0.2/MSDK/wpa_supplicant/src/crypto\sha512-internal.c **** #define CONST64(n) n ## ULL
  46:C:/Users/stapi/OneDrive/Desktop/GD32VW553/V1_MQTT_OK/GD32VW55X_Wifi_BLE_SDK/GD32VW55x_RELEASE_V1.0.2/MSDK/wpa_supplicant/src/crypto\sha512-internal.c **** 
  47:C:/Users/stapi/OneDrive/Desktop/GD32VW553/V1_MQTT_OK/GD32VW55X_Wifi_BLE_SDK/GD32VW55x_RELEASE_V1.0.2/MSDK/wpa_supplicant/src/crypto\sha512-internal.c **** /* the K array */
  48:C:/Users/stapi/OneDrive/Desktop/GD32VW553/V1_MQTT_OK/GD32VW55X_Wifi_BLE_SDK/GD32VW55x_RELEASE_V1.0.2/MSDK/wpa_supplicant/src/crypto\sha512-internal.c **** static const u64 K[80] = {
  49:C:/Users/stapi/OneDrive/Desktop/GD32VW553/V1_MQTT_OK/GD32VW55X_Wifi_BLE_SDK/GD32VW55x_RELEASE_V1.0.2/MSDK/wpa_supplicant/src/crypto\sha512-internal.c **** 	CONST64(0x428a2f98d728ae22), CONST64(0x7137449123ef65cd),
  50:C:/Users/stapi/OneDrive/Desktop/GD32VW553/V1_MQTT_OK/GD32VW55X_Wifi_BLE_SDK/GD32VW55x_RELEASE_V1.0.2/MSDK/wpa_supplicant/src/crypto\sha512-internal.c **** 	CONST64(0xb5c0fbcfec4d3b2f), CONST64(0xe9b5dba58189dbbc),
  51:C:/Users/stapi/OneDrive/Desktop/GD32VW553/V1_MQTT_OK/GD32VW55X_Wifi_BLE_SDK/GD32VW55x_RELEASE_V1.0.2/MSDK/wpa_supplicant/src/crypto\sha512-internal.c **** 	CONST64(0x3956c25bf348b538), CONST64(0x59f111f1b605d019),
  52:C:/Users/stapi/OneDrive/Desktop/GD32VW553/V1_MQTT_OK/GD32VW55X_Wifi_BLE_SDK/GD32VW55x_RELEASE_V1.0.2/MSDK/wpa_supplicant/src/crypto\sha512-internal.c **** 	CONST64(0x923f82a4af194f9b), CONST64(0xab1c5ed5da6d8118),
  53:C:/Users/stapi/OneDrive/Desktop/GD32VW553/V1_MQTT_OK/GD32VW55X_Wifi_BLE_SDK/GD32VW55x_RELEASE_V1.0.2/MSDK/wpa_supplicant/src/crypto\sha512-internal.c **** 	CONST64(0xd807aa98a3030242), CONST64(0x12835b0145706fbe),
  54:C:/Users/stapi/OneDrive/Desktop/GD32VW553/V1_MQTT_OK/GD32VW55X_Wifi_BLE_SDK/GD32VW55x_RELEASE_V1.0.2/MSDK/wpa_supplicant/src/crypto\sha512-internal.c **** 	CONST64(0x243185be4ee4b28c), CONST64(0x550c7dc3d5ffb4e2),
  55:C:/Users/stapi/OneDrive/Desktop/GD32VW553/V1_MQTT_OK/GD32VW55X_Wifi_BLE_SDK/GD32VW55x_RELEASE_V1.0.2/MSDK/wpa_supplicant/src/crypto\sha512-internal.c **** 	CONST64(0x72be5d74f27b896f), CONST64(0x80deb1fe3b1696b1),
  56:C:/Users/stapi/OneDrive/Desktop/GD32VW553/V1_MQTT_OK/GD32VW55X_Wifi_BLE_SDK/GD32VW55x_RELEASE_V1.0.2/MSDK/wpa_supplicant/src/crypto\sha512-internal.c **** 	CONST64(0x9bdc06a725c71235), CONST64(0xc19bf174cf692694),
  57:C:/Users/stapi/OneDrive/Desktop/GD32VW553/V1_MQTT_OK/GD32VW55X_Wifi_BLE_SDK/GD32VW55x_RELEASE_V1.0.2/MSDK/wpa_supplicant/src/crypto\sha512-internal.c **** 	CONST64(0xe49b69c19ef14ad2), CONST64(0xefbe4786384f25e3),
  58:C:/Users/stapi/OneDrive/Desktop/GD32VW553/V1_MQTT_OK/GD32VW55X_Wifi_BLE_SDK/GD32VW55x_RELEASE_V1.0.2/MSDK/wpa_supplicant/src/crypto\sha512-internal.c **** 	CONST64(0x0fc19dc68b8cd5b5), CONST64(0x240ca1cc77ac9c65),
  59:C:/Users/stapi/OneDrive/Desktop/GD32VW553/V1_MQTT_OK/GD32VW55X_Wifi_BLE_SDK/GD32VW55x_RELEASE_V1.0.2/MSDK/wpa_supplicant/src/crypto\sha512-internal.c **** 	CONST64(0x2de92c6f592b0275), CONST64(0x4a7484aa6ea6e483),
  60:C:/Users/stapi/OneDrive/Desktop/GD32VW553/V1_MQTT_OK/GD32VW55X_Wifi_BLE_SDK/GD32VW55x_RELEASE_V1.0.2/MSDK/wpa_supplicant/src/crypto\sha512-internal.c **** 	CONST64(0x5cb0a9dcbd41fbd4), CONST64(0x76f988da831153b5),
  61:C:/Users/stapi/OneDrive/Desktop/GD32VW553/V1_MQTT_OK/GD32VW55X_Wifi_BLE_SDK/GD32VW55x_RELEASE_V1.0.2/MSDK/wpa_supplicant/src/crypto\sha512-internal.c **** 	CONST64(0x983e5152ee66dfab), CONST64(0xa831c66d2db43210),
  62:C:/Users/stapi/OneDrive/Desktop/GD32VW553/V1_MQTT_OK/GD32VW55X_Wifi_BLE_SDK/GD32VW55x_RELEASE_V1.0.2/MSDK/wpa_supplicant/src/crypto\sha512-internal.c **** 	CONST64(0xb00327c898fb213f), CONST64(0xbf597fc7beef0ee4),
  63:C:/Users/stapi/OneDrive/Desktop/GD32VW553/V1_MQTT_OK/GD32VW55X_Wifi_BLE_SDK/GD32VW55x_RELEASE_V1.0.2/MSDK/wpa_supplicant/src/crypto\sha512-internal.c **** 	CONST64(0xc6e00bf33da88fc2), CONST64(0xd5a79147930aa725),
  64:C:/Users/stapi/OneDrive/Desktop/GD32VW553/V1_MQTT_OK/GD32VW55X_Wifi_BLE_SDK/GD32VW55x_RELEASE_V1.0.2/MSDK/wpa_supplicant/src/crypto\sha512-internal.c **** 	CONST64(0x06ca6351e003826f), CONST64(0x142929670a0e6e70),
  65:C:/Users/stapi/OneDrive/Desktop/GD32VW553/V1_MQTT_OK/GD32VW55X_Wifi_BLE_SDK/GD32VW55x_RELEASE_V1.0.2/MSDK/wpa_supplicant/src/crypto\sha512-internal.c **** 	CONST64(0x27b70a8546d22ffc), CONST64(0x2e1b21385c26c926),
  66:C:/Users/stapi/OneDrive/Desktop/GD32VW553/V1_MQTT_OK/GD32VW55X_Wifi_BLE_SDK/GD32VW55x_RELEASE_V1.0.2/MSDK/wpa_supplicant/src/crypto\sha512-internal.c **** 	CONST64(0x4d2c6dfc5ac42aed), CONST64(0x53380d139d95b3df),
  67:C:/Users/stapi/OneDrive/Desktop/GD32VW553/V1_MQTT_OK/GD32VW55X_Wifi_BLE_SDK/GD32VW55x_RELEASE_V1.0.2/MSDK/wpa_supplicant/src/crypto\sha512-internal.c **** 	CONST64(0x650a73548baf63de), CONST64(0x766a0abb3c77b2a8),
  68:C:/Users/stapi/OneDrive/Desktop/GD32VW553/V1_MQTT_OK/GD32VW55X_Wifi_BLE_SDK/GD32VW55x_RELEASE_V1.0.2/MSDK/wpa_supplicant/src/crypto\sha512-internal.c **** 	CONST64(0x81c2c92e47edaee6), CONST64(0x92722c851482353b),
  69:C:/Users/stapi/OneDrive/Desktop/GD32VW553/V1_MQTT_OK/GD32VW55X_Wifi_BLE_SDK/GD32VW55x_RELEASE_V1.0.2/MSDK/wpa_supplicant/src/crypto\sha512-internal.c **** 	CONST64(0xa2bfe8a14cf10364), CONST64(0xa81a664bbc423001),
  70:C:/Users/stapi/OneDrive/Desktop/GD32VW553/V1_MQTT_OK/GD32VW55X_Wifi_BLE_SDK/GD32VW55x_RELEASE_V1.0.2/MSDK/wpa_supplicant/src/crypto\sha512-internal.c **** 	CONST64(0xc24b8b70d0f89791), CONST64(0xc76c51a30654be30),
  71:C:/Users/stapi/OneDrive/Desktop/GD32VW553/V1_MQTT_OK/GD32VW55X_Wifi_BLE_SDK/GD32VW55x_RELEASE_V1.0.2/MSDK/wpa_supplicant/src/crypto\sha512-internal.c **** 	CONST64(0xd192e819d6ef5218), CONST64(0xd69906245565a910),
  72:C:/Users/stapi/OneDrive/Desktop/GD32VW553/V1_MQTT_OK/GD32VW55X_Wifi_BLE_SDK/GD32VW55x_RELEASE_V1.0.2/MSDK/wpa_supplicant/src/crypto\sha512-internal.c **** 	CONST64(0xf40e35855771202a), CONST64(0x106aa07032bbd1b8),
  73:C:/Users/stapi/OneDrive/Desktop/GD32VW553/V1_MQTT_OK/GD32VW55X_Wifi_BLE_SDK/GD32VW55x_RELEASE_V1.0.2/MSDK/wpa_supplicant/src/crypto\sha512-internal.c **** 	CONST64(0x19a4c116b8d2d0c8), CONST64(0x1e376c085141ab53),
  74:C:/Users/stapi/OneDrive/Desktop/GD32VW553/V1_MQTT_OK/GD32VW55X_Wifi_BLE_SDK/GD32VW55x_RELEASE_V1.0.2/MSDK/wpa_supplicant/src/crypto\sha512-internal.c **** 	CONST64(0x2748774cdf8eeb99), CONST64(0x34b0bcb5e19b48a8),
  75:C:/Users/stapi/OneDrive/Desktop/GD32VW553/V1_MQTT_OK/GD32VW55X_Wifi_BLE_SDK/GD32VW55x_RELEASE_V1.0.2/MSDK/wpa_supplicant/src/crypto\sha512-internal.c **** 	CONST64(0x391c0cb3c5c95a63), CONST64(0x4ed8aa4ae3418acb),
  76:C:/Users/stapi/OneDrive/Desktop/GD32VW553/V1_MQTT_OK/GD32VW55X_Wifi_BLE_SDK/GD32VW55x_RELEASE_V1.0.2/MSDK/wpa_supplicant/src/crypto\sha512-internal.c **** 	CONST64(0x5b9cca4f7763e373), CONST64(0x682e6ff3d6b2b8a3),
  77:C:/Users/stapi/OneDrive/Desktop/GD32VW553/V1_MQTT_OK/GD32VW55X_Wifi_BLE_SDK/GD32VW55x_RELEASE_V1.0.2/MSDK/wpa_supplicant/src/crypto\sha512-internal.c **** 	CONST64(0x748f82ee5defb2fc), CONST64(0x78a5636f43172f60),
  78:C:/Users/stapi/OneDrive/Desktop/GD32VW553/V1_MQTT_OK/GD32VW55X_Wifi_BLE_SDK/GD32VW55x_RELEASE_V1.0.2/MSDK/wpa_supplicant/src/crypto\sha512-internal.c **** 	CONST64(0x84c87814a1f0ab72), CONST64(0x8cc702081a6439ec),
  79:C:/Users/stapi/OneDrive/Desktop/GD32VW553/V1_MQTT_OK/GD32VW55X_Wifi_BLE_SDK/GD32VW55x_RELEASE_V1.0.2/MSDK/wpa_supplicant/src/crypto\sha512-internal.c **** 	CONST64(0x90befffa23631e28), CONST64(0xa4506cebde82bde9),
  80:C:/Users/stapi/OneDrive/Desktop/GD32VW553/V1_MQTT_OK/GD32VW55X_Wifi_BLE_SDK/GD32VW55x_RELEASE_V1.0.2/MSDK/wpa_supplicant/src/crypto\sha512-internal.c **** 	CONST64(0xbef9a3f7b2c67915), CONST64(0xc67178f2e372532b),
  81:C:/Users/stapi/OneDrive/Desktop/GD32VW553/V1_MQTT_OK/GD32VW55X_Wifi_BLE_SDK/GD32VW55x_RELEASE_V1.0.2/MSDK/wpa_supplicant/src/crypto\sha512-internal.c **** 	CONST64(0xca273eceea26619c), CONST64(0xd186b8c721c0c207),
  82:C:/Users/stapi/OneDrive/Desktop/GD32VW553/V1_MQTT_OK/GD32VW55X_Wifi_BLE_SDK/GD32VW55x_RELEASE_V1.0.2/MSDK/wpa_supplicant/src/crypto\sha512-internal.c **** 	CONST64(0xeada7dd6cde0eb1e), CONST64(0xf57d4f7fee6ed178),
  83:C:/Users/stapi/OneDrive/Desktop/GD32VW553/V1_MQTT_OK/GD32VW55X_Wifi_BLE_SDK/GD32VW55x_RELEASE_V1.0.2/MSDK/wpa_supplicant/src/crypto\sha512-internal.c **** 	CONST64(0x06f067aa72176fba), CONST64(0x0a637dc5a2c898a6),
  84:C:/Users/stapi/OneDrive/Desktop/GD32VW553/V1_MQTT_OK/GD32VW55X_Wifi_BLE_SDK/GD32VW55x_RELEASE_V1.0.2/MSDK/wpa_supplicant/src/crypto\sha512-internal.c **** 	CONST64(0x113f9804bef90dae), CONST64(0x1b710b35131c471b),
  85:C:/Users/stapi/OneDrive/Desktop/GD32VW553/V1_MQTT_OK/GD32VW55X_Wifi_BLE_SDK/GD32VW55x_RELEASE_V1.0.2/MSDK/wpa_supplicant/src/crypto\sha512-internal.c **** 	CONST64(0x28db77f523047d84), CONST64(0x32caab7b40c72493),
  86:C:/Users/stapi/OneDrive/Desktop/GD32VW553/V1_MQTT_OK/GD32VW55X_Wifi_BLE_SDK/GD32VW55x_RELEASE_V1.0.2/MSDK/wpa_supplicant/src/crypto\sha512-internal.c **** 	CONST64(0x3c9ebe0a15c9bebc), CONST64(0x431d67c49c100d4c),
  87:C:/Users/stapi/OneDrive/Desktop/GD32VW553/V1_MQTT_OK/GD32VW55X_Wifi_BLE_SDK/GD32VW55x_RELEASE_V1.0.2/MSDK/wpa_supplicant/src/crypto\sha512-internal.c **** 	CONST64(0x4cc5d4becb3e42b6), CONST64(0x597f299cfc657e2a),
  88:C:/Users/stapi/OneDrive/Desktop/GD32VW553/V1_MQTT_OK/GD32VW55X_Wifi_BLE_SDK/GD32VW55x_RELEASE_V1.0.2/MSDK/wpa_supplicant/src/crypto\sha512-internal.c **** 	CONST64(0x5fcb6fab3ad6faec), CONST64(0x6c44198c4a475817)
  89:C:/Users/stapi/OneDrive/Desktop/GD32VW553/V1_MQTT_OK/GD32VW55X_Wifi_BLE_SDK/GD32VW55x_RELEASE_V1.0.2/MSDK/wpa_supplicant/src/crypto\sha512-internal.c **** };
  90:C:/Users/stapi/OneDrive/Desktop/GD32VW553/V1_MQTT_OK/GD32VW55X_Wifi_BLE_SDK/GD32VW55x_RELEASE_V1.0.2/MSDK/wpa_supplicant/src/crypto\sha512-internal.c **** 
  91:C:/Users/stapi/OneDrive/Desktop/GD32VW553/V1_MQTT_OK/GD32VW55X_Wifi_BLE_SDK/GD32VW55x_RELEASE_V1.0.2/MSDK/wpa_supplicant/src/crypto\sha512-internal.c **** /* Various logical functions */
  92:C:/Users/stapi/OneDrive/Desktop/GD32VW553/V1_MQTT_OK/GD32VW55X_Wifi_BLE_SDK/GD32VW55x_RELEASE_V1.0.2/MSDK/wpa_supplicant/src/crypto\sha512-internal.c **** #define Ch(x,y,z)       (z ^ (x & (y ^ z)))
  93:C:/Users/stapi/OneDrive/Desktop/GD32VW553/V1_MQTT_OK/GD32VW55X_Wifi_BLE_SDK/GD32VW55x_RELEASE_V1.0.2/MSDK/wpa_supplicant/src/crypto\sha512-internal.c **** #define Maj(x,y,z)      (((x | y) & z) | (x & y))
  94:C:/Users/stapi/OneDrive/Desktop/GD32VW553/V1_MQTT_OK/GD32VW55X_Wifi_BLE_SDK/GD32VW55x_RELEASE_V1.0.2/MSDK/wpa_supplicant/src/crypto\sha512-internal.c **** #define S(x, n)         ROR64c(x, n)
  95:C:/Users/stapi/OneDrive/Desktop/GD32VW553/V1_MQTT_OK/GD32VW55X_Wifi_BLE_SDK/GD32VW55x_RELEASE_V1.0.2/MSDK/wpa_supplicant/src/crypto\sha512-internal.c **** #define R(x, n)         (((x) & CONST64(0xFFFFFFFFFFFFFFFF)) >> ((u64) n))
  96:C:/Users/stapi/OneDrive/Desktop/GD32VW553/V1_MQTT_OK/GD32VW55X_Wifi_BLE_SDK/GD32VW55x_RELEASE_V1.0.2/MSDK/wpa_supplicant/src/crypto\sha512-internal.c **** #define Sigma0(x)       (S(x, 28) ^ S(x, 34) ^ S(x, 39))
  97:C:/Users/stapi/OneDrive/Desktop/GD32VW553/V1_MQTT_OK/GD32VW55X_Wifi_BLE_SDK/GD32VW55x_RELEASE_V1.0.2/MSDK/wpa_supplicant/src/crypto\sha512-internal.c **** #define Sigma1(x)       (S(x, 14) ^ S(x, 18) ^ S(x, 41))
  98:C:/Users/stapi/OneDrive/Desktop/GD32VW553/V1_MQTT_OK/GD32VW55X_Wifi_BLE_SDK/GD32VW55x_RELEASE_V1.0.2/MSDK/wpa_supplicant/src/crypto\sha512-internal.c **** #define Gamma0(x)       (S(x, 1) ^ S(x, 8) ^ R(x, 7))
  99:C:/Users/stapi/OneDrive/Desktop/GD32VW553/V1_MQTT_OK/GD32VW55X_Wifi_BLE_SDK/GD32VW55x_RELEASE_V1.0.2/MSDK/wpa_supplicant/src/crypto\sha512-internal.c **** #define Gamma1(x)       (S(x, 19) ^ S(x, 61) ^ R(x, 6))
 100:C:/Users/stapi/OneDrive/Desktop/GD32VW553/V1_MQTT_OK/GD32VW55X_Wifi_BLE_SDK/GD32VW55x_RELEASE_V1.0.2/MSDK/wpa_supplicant/src/crypto\sha512-internal.c **** #ifndef MIN
 101:C:/Users/stapi/OneDrive/Desktop/GD32VW553/V1_MQTT_OK/GD32VW55X_Wifi_BLE_SDK/GD32VW55x_RELEASE_V1.0.2/MSDK/wpa_supplicant/src/crypto\sha512-internal.c **** #define MIN(x, y) (((x) < (y)) ? (x) : (y))
 102:C:/Users/stapi/OneDrive/Desktop/GD32VW553/V1_MQTT_OK/GD32VW55X_Wifi_BLE_SDK/GD32VW55x_RELEASE_V1.0.2/MSDK/wpa_supplicant/src/crypto\sha512-internal.c **** #endif
 103:C:/Users/stapi/OneDrive/Desktop/GD32VW553/V1_MQTT_OK/GD32VW55X_Wifi_BLE_SDK/GD32VW55x_RELEASE_V1.0.2/MSDK/wpa_supplicant/src/crypto\sha512-internal.c **** 
 104:C:/Users/stapi/OneDrive/Desktop/GD32VW553/V1_MQTT_OK/GD32VW55X_Wifi_BLE_SDK/GD32VW55x_RELEASE_V1.0.2/MSDK/wpa_supplicant/src/crypto\sha512-internal.c **** #define ROR64c(x, y) \
 105:C:/Users/stapi/OneDrive/Desktop/GD32VW553/V1_MQTT_OK/GD32VW55X_Wifi_BLE_SDK/GD32VW55x_RELEASE_V1.0.2/MSDK/wpa_supplicant/src/crypto\sha512-internal.c ****     ( ((((x) & CONST64(0xFFFFFFFFFFFFFFFF)) >> ((u64) (y) & CONST64(63))) | \
 106:C:/Users/stapi/OneDrive/Desktop/GD32VW553/V1_MQTT_OK/GD32VW55X_Wifi_BLE_SDK/GD32VW55x_RELEASE_V1.0.2/MSDK/wpa_supplicant/src/crypto\sha512-internal.c ****       ((x) << ((u64) (64 - ((y) & CONST64(63)))))) & \
 107:C:/Users/stapi/OneDrive/Desktop/GD32VW553/V1_MQTT_OK/GD32VW55X_Wifi_BLE_SDK/GD32VW55x_RELEASE_V1.0.2/MSDK/wpa_supplicant/src/crypto\sha512-internal.c ****       CONST64(0xFFFFFFFFFFFFFFFF))
 108:C:/Users/stapi/OneDrive/Desktop/GD32VW553/V1_MQTT_OK/GD32VW55X_Wifi_BLE_SDK/GD32VW55x_RELEASE_V1.0.2/MSDK/wpa_supplicant/src/crypto\sha512-internal.c **** 
 109:C:/Users/stapi/OneDrive/Desktop/GD32VW553/V1_MQTT_OK/GD32VW55X_Wifi_BLE_SDK/GD32VW55x_RELEASE_V1.0.2/MSDK/wpa_supplicant/src/crypto\sha512-internal.c **** /* compress 1024-bits */
 110:C:/Users/stapi/OneDrive/Desktop/GD32VW553/V1_MQTT_OK/GD32VW55X_Wifi_BLE_SDK/GD32VW55x_RELEASE_V1.0.2/MSDK/wpa_supplicant/src/crypto\sha512-internal.c **** static int sha512_compress(struct sha512_state *md, unsigned char *buf)
 111:C:/Users/stapi/OneDrive/Desktop/GD32VW553/V1_MQTT_OK/GD32VW55X_Wifi_BLE_SDK/GD32VW55x_RELEASE_V1.0.2/MSDK/wpa_supplicant/src/crypto\sha512-internal.c **** {
  15              		.loc 1 111 1
  16              		.cfi_startproc
  17              	.LVL0:
  18 0000 17030000 		call	t0,__riscv_save_12
  18      E7020300 
  19              		.cfi_offset 27, -52
  20              		.cfi_offset 26, -48
  21              		.cfi_offset 25, -44
  22              		.cfi_offset 24, -40
  23              		.cfi_offset 23, -36
  24              		.cfi_offset 22, -32
  25              		.cfi_offset 21, -28
  26              		.cfi_offset 20, -24
  27              		.cfi_offset 19, -20
  28              		.cfi_offset 18, -16
  29              		.cfi_offset 9, -12
  30              		.cfi_offset 8, -8
  31              		.cfi_offset 1, -4
  32              		.cfi_def_cfa_offset 64
 112:C:/Users/stapi/OneDrive/Desktop/GD32VW553/V1_MQTT_OK/GD32VW55X_Wifi_BLE_SDK/GD32VW55x_RELEASE_V1.0.2/MSDK/wpa_supplicant/src/crypto\sha512-internal.c **** 	u64 S[8], t0, t1;
  33              		.loc 1 112 2
 113:C:/Users/stapi/OneDrive/Desktop/GD32VW553/V1_MQTT_OK/GD32VW55X_Wifi_BLE_SDK/GD32VW55x_RELEASE_V1.0.2/MSDK/wpa_supplicant/src/crypto\sha512-internal.c **** 	u64 *W;
  34              		.loc 1 113 2
 114:C:/Users/stapi/OneDrive/Desktop/GD32VW553/V1_MQTT_OK/GD32VW55X_Wifi_BLE_SDK/GD32VW55x_RELEASE_V1.0.2/MSDK/wpa_supplicant/src/crypto\sha512-internal.c **** 	int i;
  35              		.loc 1 114 2
 115:C:/Users/stapi/OneDrive/Desktop/GD32VW553/V1_MQTT_OK/GD32VW55X_Wifi_BLE_SDK/GD32VW55x_RELEASE_V1.0.2/MSDK/wpa_supplicant/src/crypto\sha512-internal.c **** 
 116:C:/Users/stapi/OneDrive/Desktop/GD32VW553/V1_MQTT_OK/GD32VW55X_Wifi_BLE_SDK/GD32VW55x_RELEASE_V1.0.2/MSDK/wpa_supplicant/src/crypto\sha512-internal.c **** 	W = os_malloc(80 * sizeof(u64));
  36              		.loc 1 116 2
 111:C:/Users/stapi/OneDrive/Desktop/GD32VW553/V1_MQTT_OK/GD32VW55X_Wifi_BLE_SDK/GD32VW55x_RELEASE_V1.0.2/MSDK/wpa_supplicant/src/crypto\sha512-internal.c **** 	u64 S[8], t0, t1;
  37              		.loc 1 111 1 is_stmt 0
  38 0008 3971     		addi	sp,sp,-64
  39              		.cfi_def_cfa_offset 128
 111:C:/Users/stapi/OneDrive/Desktop/GD32VW553/V1_MQTT_OK/GD32VW55X_Wifi_BLE_SDK/GD32VW55x_RELEASE_V1.0.2/MSDK/wpa_supplicant/src/crypto\sha512-internal.c **** 	u64 S[8], t0, t1;
  40              		.loc 1 111 1
  41 000a 2A89     		mv	s2,a0
  42              		.loc 1 116 6
  43 000c 13050028 		li	a0,640
  44              	.LVL1:
 111:C:/Users/stapi/OneDrive/Desktop/GD32VW553/V1_MQTT_OK/GD32VW55X_Wifi_BLE_SDK/GD32VW55x_RELEASE_V1.0.2/MSDK/wpa_supplicant/src/crypto\sha512-internal.c **** 	u64 S[8], t0, t1;
  45              		.loc 1 111 1
  46 0010 AE89     		mv	s3,a1
  47              		.loc 1 116 6
  48 0012 97000000 		call	os_malloc
  48      E7800000 
  49              	.LVL2:
 117:C:/Users/stapi/OneDrive/Desktop/GD32VW553/V1_MQTT_OK/GD32VW55X_Wifi_BLE_SDK/GD32VW55x_RELEASE_V1.0.2/MSDK/wpa_supplicant/src/crypto\sha512-internal.c **** 	if (!W)
  50              		.loc 1 117 2 is_stmt 1
  51              		.loc 1 117 5 is_stmt 0
  52 001a 630A0532 		beq	a0,zero,.L7
  53 001e 13048900 		addi	s0,s2,8
 118:C:/Users/stapi/OneDrive/Desktop/GD32VW553/V1_MQTT_OK/GD32VW55X_Wifi_BLE_SDK/GD32VW55x_RELEASE_V1.0.2/MSDK/wpa_supplicant/src/crypto\sha512-internal.c **** 		return -1;
 119:C:/Users/stapi/OneDrive/Desktop/GD32VW553/V1_MQTT_OK/GD32VW55X_Wifi_BLE_SDK/GD32VW55x_RELEASE_V1.0.2/MSDK/wpa_supplicant/src/crypto\sha512-internal.c **** 
 120:C:/Users/stapi/OneDrive/Desktop/GD32VW553/V1_MQTT_OK/GD32VW55X_Wifi_BLE_SDK/GD32VW55x_RELEASE_V1.0.2/MSDK/wpa_supplicant/src/crypto\sha512-internal.c **** 	/* copy state into S */
 121:C:/Users/stapi/OneDrive/Desktop/GD32VW553/V1_MQTT_OK/GD32VW55X_Wifi_BLE_SDK/GD32VW55x_RELEASE_V1.0.2/MSDK/wpa_supplicant/src/crypto\sha512-internal.c **** 	for (i = 0; i < 8; i++) {
 122:C:/Users/stapi/OneDrive/Desktop/GD32VW553/V1_MQTT_OK/GD32VW55X_Wifi_BLE_SDK/GD32VW55x_RELEASE_V1.0.2/MSDK/wpa_supplicant/src/crypto\sha512-internal.c **** 		S[i] = md->state[i];
  54              		.loc 1 122 8
  55 0022 13060004 		li	a2,64
  56 0026 AA84     		mv	s1,a0
  57 0028 A285     		mv	a1,s0
  58 002a 0A85     		mv	a0,sp
  59              	.LVL3:
  60 002c 97000000 		call	memcpy
  60      E7800000 
  61              	.LVL4:
  62 0034 0146     		li	a2,0
 123:C:/Users/stapi/OneDrive/Desktop/GD32VW553/V1_MQTT_OK/GD32VW55X_Wifi_BLE_SDK/GD32VW55x_RELEASE_V1.0.2/MSDK/wpa_supplicant/src/crypto\sha512-internal.c **** 	}
 124:C:/Users/stapi/OneDrive/Desktop/GD32VW553/V1_MQTT_OK/GD32VW55X_Wifi_BLE_SDK/GD32VW55x_RELEASE_V1.0.2/MSDK/wpa_supplicant/src/crypto\sha512-internal.c **** 
 125:C:/Users/stapi/OneDrive/Desktop/GD32VW553/V1_MQTT_OK/GD32VW55X_Wifi_BLE_SDK/GD32VW55x_RELEASE_V1.0.2/MSDK/wpa_supplicant/src/crypto\sha512-internal.c **** 	/* copy the state into 1024-bits into W[0..15] */
 126:C:/Users/stapi/OneDrive/Desktop/GD32VW553/V1_MQTT_OK/GD32VW55X_Wifi_BLE_SDK/GD32VW55x_RELEASE_V1.0.2/MSDK/wpa_supplicant/src/crypto\sha512-internal.c **** 	for (i = 0; i < 16; i++)
  63              		.loc 1 126 2
  64 0036 13050008 		li	a0,128
  65              	.L3:
 127:C:/Users/stapi/OneDrive/Desktop/GD32VW553/V1_MQTT_OK/GD32VW55X_Wifi_BLE_SDK/GD32VW55x_RELEASE_V1.0.2/MSDK/wpa_supplicant/src/crypto\sha512-internal.c **** 		W[i] = WPA_GET_BE64(buf + (8 * i));
  66              		.loc 1 127 3 is_stmt 1 discriminator 3
  67              	.LVL5:
  68              		.file 2 "..\\..\\..\\..\\wpa_supplicant\\src\\utils/common.h"
   1:..\..\..\..\wpa_supplicant\src\utils/common.h **** /*
   2:..\..\..\..\wpa_supplicant\src\utils/common.h ****  * wpa_supplicant/hostapd / common helper functions, etc.
   3:..\..\..\..\wpa_supplicant\src\utils/common.h ****  * Copyright (c) 2002-2007, Jouni Malinen <j@w1.fi>
   4:..\..\..\..\wpa_supplicant\src\utils/common.h ****  *
   5:..\..\..\..\wpa_supplicant\src\utils/common.h ****  * This software may be distributed under the terms of the BSD license.
   6:..\..\..\..\wpa_supplicant\src\utils/common.h ****  * See README for more details.
   7:..\..\..\..\wpa_supplicant\src\utils/common.h ****  */
   8:..\..\..\..\wpa_supplicant\src\utils/common.h **** 
   9:..\..\..\..\wpa_supplicant\src\utils/common.h **** #ifndef COMMON_H
  10:..\..\..\..\wpa_supplicant\src\utils/common.h **** #define COMMON_H
  11:..\..\..\..\wpa_supplicant\src\utils/common.h **** 
  12:..\..\..\..\wpa_supplicant\src\utils/common.h **** #include "os.h"
  13:..\..\..\..\wpa_supplicant\src\utils/common.h **** 
  14:..\..\..\..\wpa_supplicant\src\utils/common.h **** #if defined(__linux__) || defined(__GLIBC__)
  15:..\..\..\..\wpa_supplicant\src\utils/common.h **** #include <endian.h>
  16:..\..\..\..\wpa_supplicant\src\utils/common.h **** #include <byteswap.h>
  17:..\..\..\..\wpa_supplicant\src\utils/common.h **** #endif /* __linux__ */
  18:..\..\..\..\wpa_supplicant\src\utils/common.h **** 
  19:..\..\..\..\wpa_supplicant\src\utils/common.h **** #if defined(__FreeBSD__) || defined(__NetBSD__) || defined(__DragonFly__) || \
  20:..\..\..\..\wpa_supplicant\src\utils/common.h ****     defined(__OpenBSD__)
  21:..\..\..\..\wpa_supplicant\src\utils/common.h **** #include <sys/types.h>
  22:..\..\..\..\wpa_supplicant\src\utils/common.h **** #include <sys/endian.h>
  23:..\..\..\..\wpa_supplicant\src\utils/common.h **** #define __BYTE_ORDER	_BYTE_ORDER
  24:..\..\..\..\wpa_supplicant\src\utils/common.h **** #define	__LITTLE_ENDIAN	_LITTLE_ENDIAN
  25:..\..\..\..\wpa_supplicant\src\utils/common.h **** #define	__BIG_ENDIAN	_BIG_ENDIAN
  26:..\..\..\..\wpa_supplicant\src\utils/common.h **** #ifdef __OpenBSD__
  27:..\..\..\..\wpa_supplicant\src\utils/common.h **** #define bswap_16 swap16
  28:..\..\..\..\wpa_supplicant\src\utils/common.h **** #define bswap_32 swap32
  29:..\..\..\..\wpa_supplicant\src\utils/common.h **** #define bswap_64 swap64
  30:..\..\..\..\wpa_supplicant\src\utils/common.h **** #else /* __OpenBSD__ */
  31:..\..\..\..\wpa_supplicant\src\utils/common.h **** #define bswap_16 bswap16
  32:..\..\..\..\wpa_supplicant\src\utils/common.h **** #define bswap_32 bswap32
  33:..\..\..\..\wpa_supplicant\src\utils/common.h **** #define bswap_64 bswap64
  34:..\..\..\..\wpa_supplicant\src\utils/common.h **** #endif /* __OpenBSD__ */
  35:..\..\..\..\wpa_supplicant\src\utils/common.h **** #endif /* defined(__FreeBSD__) || defined(__NetBSD__) ||
  36:..\..\..\..\wpa_supplicant\src\utils/common.h **** 	* defined(__DragonFly__) || defined(__OpenBSD__) */
  37:..\..\..\..\wpa_supplicant\src\utils/common.h **** 
  38:..\..\..\..\wpa_supplicant\src\utils/common.h **** #ifdef __APPLE__
  39:..\..\..\..\wpa_supplicant\src\utils/common.h **** #include <sys/types.h>
  40:..\..\..\..\wpa_supplicant\src\utils/common.h **** #include <machine/endian.h>
  41:..\..\..\..\wpa_supplicant\src\utils/common.h **** #define __BYTE_ORDER	_BYTE_ORDER
  42:..\..\..\..\wpa_supplicant\src\utils/common.h **** #define __LITTLE_ENDIAN	_LITTLE_ENDIAN
  43:..\..\..\..\wpa_supplicant\src\utils/common.h **** #define __BIG_ENDIAN	_BIG_ENDIAN
  44:..\..\..\..\wpa_supplicant\src\utils/common.h **** static inline unsigned short bswap_16(unsigned short v)
  45:..\..\..\..\wpa_supplicant\src\utils/common.h **** {
  46:..\..\..\..\wpa_supplicant\src\utils/common.h **** 	return ((v & 0xff) << 8) | (v >> 8);
  47:..\..\..\..\wpa_supplicant\src\utils/common.h **** }
  48:..\..\..\..\wpa_supplicant\src\utils/common.h **** 
  49:..\..\..\..\wpa_supplicant\src\utils/common.h **** static inline unsigned int bswap_32(unsigned int v)
  50:..\..\..\..\wpa_supplicant\src\utils/common.h **** {
  51:..\..\..\..\wpa_supplicant\src\utils/common.h **** 	return ((v & 0xff) << 24) | ((v & 0xff00) << 8) |
  52:..\..\..\..\wpa_supplicant\src\utils/common.h **** 		((v & 0xff0000) >> 8) | (v >> 24);
  53:..\..\..\..\wpa_supplicant\src\utils/common.h **** }
  54:..\..\..\..\wpa_supplicant\src\utils/common.h **** #endif /* __APPLE__ */
  55:..\..\..\..\wpa_supplicant\src\utils/common.h **** 
  56:..\..\..\..\wpa_supplicant\src\utils/common.h **** #ifdef CONFIG_GDWIFI
  57:..\..\..\..\wpa_supplicant\src\utils/common.h **** // #include <sys/types.h>
  58:..\..\..\..\wpa_supplicant\src\utils/common.h **** // #include <machine/endian.h>
  59:..\..\..\..\wpa_supplicant\src\utils/common.h **** #define __BYTE_ORDER	BYTE_ORDER
  60:..\..\..\..\wpa_supplicant\src\utils/common.h **** #define __LITTLE_ENDIAN	LITTLE_ENDIAN
  61:..\..\..\..\wpa_supplicant\src\utils/common.h **** #define __BIG_ENDIAN	BIG_ENDIAN
  62:..\..\..\..\wpa_supplicant\src\utils/common.h **** #define ETHER_ADDR_LEN	6
  63:..\..\..\..\wpa_supplicant\src\utils/common.h **** #define ETH_P_802_3	0x0001		/* Dummy type for 802.3 frames  */
  64:..\..\..\..\wpa_supplicant\src\utils/common.h **** 
  65:..\..\..\..\wpa_supplicant\src\utils/common.h **** static inline unsigned short bswap_16(unsigned short v)
  66:..\..\..\..\wpa_supplicant\src\utils/common.h **** {
  67:..\..\..\..\wpa_supplicant\src\utils/common.h **** 	return ((v & 0xff) << 8) | (v >> 8);
  68:..\..\..\..\wpa_supplicant\src\utils/common.h **** }
  69:..\..\..\..\wpa_supplicant\src\utils/common.h **** 
  70:..\..\..\..\wpa_supplicant\src\utils/common.h **** static inline unsigned int bswap_32(unsigned int v)
  71:..\..\..\..\wpa_supplicant\src\utils/common.h **** {
  72:..\..\..\..\wpa_supplicant\src\utils/common.h **** 	return ((v & 0xff) << 24) | ((v & 0xff00) << 8) |
  73:..\..\..\..\wpa_supplicant\src\utils/common.h **** 		((v & 0xff0000) >> 8) | (v >> 24);
  74:..\..\..\..\wpa_supplicant\src\utils/common.h **** }
  75:..\..\..\..\wpa_supplicant\src\utils/common.h **** 
  76:..\..\..\..\wpa_supplicant\src\utils/common.h **** struct ether_header
  77:..\..\..\..\wpa_supplicant\src\utils/common.h **** {
  78:..\..\..\..\wpa_supplicant\src\utils/common.h **** 	uint8_t  ether_dhost[ETHER_ADDR_LEN];
  79:..\..\..\..\wpa_supplicant\src\utils/common.h **** 	uint8_t  ether_shost[ETHER_ADDR_LEN];
  80:..\..\..\..\wpa_supplicant\src\utils/common.h **** 	uint16_t ether_type;
  81:..\..\..\..\wpa_supplicant\src\utils/common.h **** } __PACKED;
  82:..\..\..\..\wpa_supplicant\src\utils/common.h **** #endif /* CONFIG_GDWIFI */
  83:..\..\..\..\wpa_supplicant\src\utils/common.h **** #ifdef __rtems__
  84:..\..\..\..\wpa_supplicant\src\utils/common.h **** #include <rtems/endian.h>
  85:..\..\..\..\wpa_supplicant\src\utils/common.h **** #define __BYTE_ORDER BYTE_ORDER
  86:..\..\..\..\wpa_supplicant\src\utils/common.h **** #define __LITTLE_ENDIAN LITTLE_ENDIAN
  87:..\..\..\..\wpa_supplicant\src\utils/common.h **** #define __BIG_ENDIAN BIG_ENDIAN
  88:..\..\..\..\wpa_supplicant\src\utils/common.h **** #define bswap_16 CPU_swap_u16
  89:..\..\..\..\wpa_supplicant\src\utils/common.h **** #define bswap_32 CPU_swap_u32
  90:..\..\..\..\wpa_supplicant\src\utils/common.h **** #endif /* __rtems__ */
  91:..\..\..\..\wpa_supplicant\src\utils/common.h **** 
  92:..\..\..\..\wpa_supplicant\src\utils/common.h **** #ifdef CONFIG_NATIVE_WINDOWS
  93:..\..\..\..\wpa_supplicant\src\utils/common.h **** #include <winsock.h>
  94:..\..\..\..\wpa_supplicant\src\utils/common.h **** 
  95:..\..\..\..\wpa_supplicant\src\utils/common.h **** typedef int socklen_t;
  96:..\..\..\..\wpa_supplicant\src\utils/common.h **** 
  97:..\..\..\..\wpa_supplicant\src\utils/common.h **** #ifndef MSG_DONTWAIT
  98:..\..\..\..\wpa_supplicant\src\utils/common.h **** #define MSG_DONTWAIT 0 /* not supported */
  99:..\..\..\..\wpa_supplicant\src\utils/common.h **** #endif
 100:..\..\..\..\wpa_supplicant\src\utils/common.h **** 
 101:..\..\..\..\wpa_supplicant\src\utils/common.h **** #endif /* CONFIG_NATIVE_WINDOWS */
 102:..\..\..\..\wpa_supplicant\src\utils/common.h **** 
 103:..\..\..\..\wpa_supplicant\src\utils/common.h **** #ifdef _MSC_VER
 104:..\..\..\..\wpa_supplicant\src\utils/common.h **** #define inline __inline
 105:..\..\..\..\wpa_supplicant\src\utils/common.h **** 
 106:..\..\..\..\wpa_supplicant\src\utils/common.h **** #undef vsnprintf
 107:..\..\..\..\wpa_supplicant\src\utils/common.h **** #define vsnprintf _vsnprintf
 108:..\..\..\..\wpa_supplicant\src\utils/common.h **** #undef close
 109:..\..\..\..\wpa_supplicant\src\utils/common.h **** #define close closesocket
 110:..\..\..\..\wpa_supplicant\src\utils/common.h **** #endif /* _MSC_VER */
 111:..\..\..\..\wpa_supplicant\src\utils/common.h **** 
 112:..\..\..\..\wpa_supplicant\src\utils/common.h **** 
 113:..\..\..\..\wpa_supplicant\src\utils/common.h **** /* Define platform specific integer types */
 114:..\..\..\..\wpa_supplicant\src\utils/common.h **** 
 115:..\..\..\..\wpa_supplicant\src\utils/common.h **** #ifdef _MSC_VER
 116:..\..\..\..\wpa_supplicant\src\utils/common.h **** typedef UINT64 u64;
 117:..\..\..\..\wpa_supplicant\src\utils/common.h **** typedef UINT32 u32;
 118:..\..\..\..\wpa_supplicant\src\utils/common.h **** typedef UINT16 u16;
 119:..\..\..\..\wpa_supplicant\src\utils/common.h **** typedef UINT8 u8;
 120:..\..\..\..\wpa_supplicant\src\utils/common.h **** typedef INT64 s64;
 121:..\..\..\..\wpa_supplicant\src\utils/common.h **** typedef INT32 s32;
 122:..\..\..\..\wpa_supplicant\src\utils/common.h **** typedef INT16 s16;
 123:..\..\..\..\wpa_supplicant\src\utils/common.h **** typedef INT8 s8;
 124:..\..\..\..\wpa_supplicant\src\utils/common.h **** #define WPA_TYPES_DEFINED
 125:..\..\..\..\wpa_supplicant\src\utils/common.h **** #endif /* _MSC_VER */
 126:..\..\..\..\wpa_supplicant\src\utils/common.h **** 
 127:..\..\..\..\wpa_supplicant\src\utils/common.h **** #ifdef __vxworks
 128:..\..\..\..\wpa_supplicant\src\utils/common.h **** typedef unsigned long long u64;
 129:..\..\..\..\wpa_supplicant\src\utils/common.h **** typedef UINT32 u32;
 130:..\..\..\..\wpa_supplicant\src\utils/common.h **** typedef UINT16 u16;
 131:..\..\..\..\wpa_supplicant\src\utils/common.h **** typedef UINT8 u8;
 132:..\..\..\..\wpa_supplicant\src\utils/common.h **** typedef long long s64;
 133:..\..\..\..\wpa_supplicant\src\utils/common.h **** typedef INT32 s32;
 134:..\..\..\..\wpa_supplicant\src\utils/common.h **** typedef INT16 s16;
 135:..\..\..\..\wpa_supplicant\src\utils/common.h **** typedef INT8 s8;
 136:..\..\..\..\wpa_supplicant\src\utils/common.h **** #define WPA_TYPES_DEFINED
 137:..\..\..\..\wpa_supplicant\src\utils/common.h **** #endif /* __vxworks */
 138:..\..\..\..\wpa_supplicant\src\utils/common.h **** 
 139:..\..\..\..\wpa_supplicant\src\utils/common.h **** #ifndef WPA_TYPES_DEFINED
 140:..\..\..\..\wpa_supplicant\src\utils/common.h **** #ifdef CONFIG_USE_INTTYPES_H
 141:..\..\..\..\wpa_supplicant\src\utils/common.h **** #include <inttypes.h>
 142:..\..\..\..\wpa_supplicant\src\utils/common.h **** #else
 143:..\..\..\..\wpa_supplicant\src\utils/common.h **** #include <stdint.h>
 144:..\..\..\..\wpa_supplicant\src\utils/common.h **** #endif
 145:..\..\..\..\wpa_supplicant\src\utils/common.h **** typedef uint64_t u64;
 146:..\..\..\..\wpa_supplicant\src\utils/common.h **** typedef uint32_t u32;
 147:..\..\..\..\wpa_supplicant\src\utils/common.h **** typedef uint16_t u16;
 148:..\..\..\..\wpa_supplicant\src\utils/common.h **** typedef uint8_t u8;
 149:..\..\..\..\wpa_supplicant\src\utils/common.h **** typedef int64_t s64;
 150:..\..\..\..\wpa_supplicant\src\utils/common.h **** typedef int32_t s32;
 151:..\..\..\..\wpa_supplicant\src\utils/common.h **** typedef int16_t s16;
 152:..\..\..\..\wpa_supplicant\src\utils/common.h **** typedef int8_t s8;
 153:..\..\..\..\wpa_supplicant\src\utils/common.h **** #define WPA_TYPES_DEFINED
 154:..\..\..\..\wpa_supplicant\src\utils/common.h **** #endif /* !WPA_TYPES_DEFINED */
 155:..\..\..\..\wpa_supplicant\src\utils/common.h **** 
 156:..\..\..\..\wpa_supplicant\src\utils/common.h **** 
 157:..\..\..\..\wpa_supplicant\src\utils/common.h **** /* Define platform specific byte swapping macros */
 158:..\..\..\..\wpa_supplicant\src\utils/common.h **** 
 159:..\..\..\..\wpa_supplicant\src\utils/common.h **** #if defined(__CYGWIN__) || defined(CONFIG_NATIVE_WINDOWS)
 160:..\..\..\..\wpa_supplicant\src\utils/common.h **** 
 161:..\..\..\..\wpa_supplicant\src\utils/common.h **** static inline unsigned short wpa_swap_16(unsigned short v)
 162:..\..\..\..\wpa_supplicant\src\utils/common.h **** {
 163:..\..\..\..\wpa_supplicant\src\utils/common.h **** 	return ((v & 0xff) << 8) | (v >> 8);
 164:..\..\..\..\wpa_supplicant\src\utils/common.h **** }
 165:..\..\..\..\wpa_supplicant\src\utils/common.h **** 
 166:..\..\..\..\wpa_supplicant\src\utils/common.h **** static inline unsigned int wpa_swap_32(unsigned int v)
 167:..\..\..\..\wpa_supplicant\src\utils/common.h **** {
 168:..\..\..\..\wpa_supplicant\src\utils/common.h **** 	return ((v & 0xff) << 24) | ((v & 0xff00) << 8) |
 169:..\..\..\..\wpa_supplicant\src\utils/common.h **** 		((v & 0xff0000) >> 8) | (v >> 24);
 170:..\..\..\..\wpa_supplicant\src\utils/common.h **** }
 171:..\..\..\..\wpa_supplicant\src\utils/common.h **** 
 172:..\..\..\..\wpa_supplicant\src\utils/common.h **** #define le_to_host16(n) (n)
 173:..\..\..\..\wpa_supplicant\src\utils/common.h **** #define host_to_le16(n) (n)
 174:..\..\..\..\wpa_supplicant\src\utils/common.h **** #define be_to_host16(n) wpa_swap_16(n)
 175:..\..\..\..\wpa_supplicant\src\utils/common.h **** #define host_to_be16(n) wpa_swap_16(n)
 176:..\..\..\..\wpa_supplicant\src\utils/common.h **** #define le_to_host32(n) (n)
 177:..\..\..\..\wpa_supplicant\src\utils/common.h **** #define host_to_le32(n) (n)
 178:..\..\..\..\wpa_supplicant\src\utils/common.h **** #define be_to_host32(n) wpa_swap_32(n)
 179:..\..\..\..\wpa_supplicant\src\utils/common.h **** #define host_to_be32(n) wpa_swap_32(n)
 180:..\..\..\..\wpa_supplicant\src\utils/common.h **** #define host_to_le64(n) (n)
 181:..\..\..\..\wpa_supplicant\src\utils/common.h **** 
 182:..\..\..\..\wpa_supplicant\src\utils/common.h **** #define WPA_BYTE_SWAP_DEFINED
 183:..\..\..\..\wpa_supplicant\src\utils/common.h **** 
 184:..\..\..\..\wpa_supplicant\src\utils/common.h **** #endif /* __CYGWIN__ || CONFIG_NATIVE_WINDOWS */
 185:..\..\..\..\wpa_supplicant\src\utils/common.h **** 
 186:..\..\..\..\wpa_supplicant\src\utils/common.h **** 
 187:..\..\..\..\wpa_supplicant\src\utils/common.h **** #ifndef WPA_BYTE_SWAP_DEFINED
 188:..\..\..\..\wpa_supplicant\src\utils/common.h **** 
 189:..\..\..\..\wpa_supplicant\src\utils/common.h **** #ifndef __BYTE_ORDER
 190:..\..\..\..\wpa_supplicant\src\utils/common.h **** #ifndef __LITTLE_ENDIAN
 191:..\..\..\..\wpa_supplicant\src\utils/common.h **** #ifndef __BIG_ENDIAN
 192:..\..\..\..\wpa_supplicant\src\utils/common.h **** #define __LITTLE_ENDIAN 1234
 193:..\..\..\..\wpa_supplicant\src\utils/common.h **** #define __BIG_ENDIAN 4321
 194:..\..\..\..\wpa_supplicant\src\utils/common.h **** #if defined(sparc)
 195:..\..\..\..\wpa_supplicant\src\utils/common.h **** #define __BYTE_ORDER __BIG_ENDIAN
 196:..\..\..\..\wpa_supplicant\src\utils/common.h **** #endif
 197:..\..\..\..\wpa_supplicant\src\utils/common.h **** #endif /* __BIG_ENDIAN */
 198:..\..\..\..\wpa_supplicant\src\utils/common.h **** #endif /* __LITTLE_ENDIAN */
 199:..\..\..\..\wpa_supplicant\src\utils/common.h **** #endif /* __BYTE_ORDER */
 200:..\..\..\..\wpa_supplicant\src\utils/common.h **** 
 201:..\..\..\..\wpa_supplicant\src\utils/common.h **** #if __BYTE_ORDER == __LITTLE_ENDIAN
 202:..\..\..\..\wpa_supplicant\src\utils/common.h **** #define le_to_host16(n) ((__force u16) (le16) (n))
 203:..\..\..\..\wpa_supplicant\src\utils/common.h **** #define host_to_le16(n) ((__force le16) (u16) (n))
 204:..\..\..\..\wpa_supplicant\src\utils/common.h **** #define be_to_host16(n) bswap_16((__force u16) (be16) (n))
 205:..\..\..\..\wpa_supplicant\src\utils/common.h **** #define host_to_be16(n) ((__force be16) bswap_16((n)))
 206:..\..\..\..\wpa_supplicant\src\utils/common.h **** #define le_to_host32(n) ((__force u32) (le32) (n))
 207:..\..\..\..\wpa_supplicant\src\utils/common.h **** #define host_to_le32(n) ((__force le32) (u32) (n))
 208:..\..\..\..\wpa_supplicant\src\utils/common.h **** #define be_to_host32(n) bswap_32((__force u32) (be32) (n))
 209:..\..\..\..\wpa_supplicant\src\utils/common.h **** #define host_to_be32(n) ((__force be32) bswap_32((n)))
 210:..\..\..\..\wpa_supplicant\src\utils/common.h **** #define le_to_host64(n) ((__force u64) (le64) (n))
 211:..\..\..\..\wpa_supplicant\src\utils/common.h **** #define host_to_le64(n) ((__force le64) (u64) (n))
 212:..\..\..\..\wpa_supplicant\src\utils/common.h **** #define be_to_host64(n) bswap_64((__force u64) (be64) (n))
 213:..\..\..\..\wpa_supplicant\src\utils/common.h **** #define host_to_be64(n) ((__force be64) bswap_64((n)))
 214:..\..\..\..\wpa_supplicant\src\utils/common.h **** #elif __BYTE_ORDER == __BIG_ENDIAN
 215:..\..\..\..\wpa_supplicant\src\utils/common.h **** #define le_to_host16(n) bswap_16(n)
 216:..\..\..\..\wpa_supplicant\src\utils/common.h **** #define host_to_le16(n) bswap_16(n)
 217:..\..\..\..\wpa_supplicant\src\utils/common.h **** #define be_to_host16(n) (n)
 218:..\..\..\..\wpa_supplicant\src\utils/common.h **** #define host_to_be16(n) (n)
 219:..\..\..\..\wpa_supplicant\src\utils/common.h **** #define le_to_host32(n) bswap_32(n)
 220:..\..\..\..\wpa_supplicant\src\utils/common.h **** #define host_to_le32(n) bswap_32(n)
 221:..\..\..\..\wpa_supplicant\src\utils/common.h **** #define be_to_host32(n) (n)
 222:..\..\..\..\wpa_supplicant\src\utils/common.h **** #define host_to_be32(n) (n)
 223:..\..\..\..\wpa_supplicant\src\utils/common.h **** #define le_to_host64(n) bswap_64(n)
 224:..\..\..\..\wpa_supplicant\src\utils/common.h **** #define host_to_le64(n) bswap_64(n)
 225:..\..\..\..\wpa_supplicant\src\utils/common.h **** #define be_to_host64(n) (n)
 226:..\..\..\..\wpa_supplicant\src\utils/common.h **** #define host_to_be64(n) (n)
 227:..\..\..\..\wpa_supplicant\src\utils/common.h **** #ifndef WORDS_BIGENDIAN
 228:..\..\..\..\wpa_supplicant\src\utils/common.h **** #define WORDS_BIGENDIAN
 229:..\..\..\..\wpa_supplicant\src\utils/common.h **** #endif
 230:..\..\..\..\wpa_supplicant\src\utils/common.h **** #else
 231:..\..\..\..\wpa_supplicant\src\utils/common.h **** #error Could not determine CPU byte order
 232:..\..\..\..\wpa_supplicant\src\utils/common.h **** #endif
 233:..\..\..\..\wpa_supplicant\src\utils/common.h **** 
 234:..\..\..\..\wpa_supplicant\src\utils/common.h **** #define WPA_BYTE_SWAP_DEFINED
 235:..\..\..\..\wpa_supplicant\src\utils/common.h **** #endif /* !WPA_BYTE_SWAP_DEFINED */
 236:..\..\..\..\wpa_supplicant\src\utils/common.h **** 
 237:..\..\..\..\wpa_supplicant\src\utils/common.h **** 
 238:..\..\..\..\wpa_supplicant\src\utils/common.h **** /* Macros for handling unaligned memory accesses */
 239:..\..\..\..\wpa_supplicant\src\utils/common.h **** 
 240:..\..\..\..\wpa_supplicant\src\utils/common.h **** static inline u16 WPA_GET_BE16(const u8 *a)
 241:..\..\..\..\wpa_supplicant\src\utils/common.h **** {
 242:..\..\..\..\wpa_supplicant\src\utils/common.h **** 	return (a[0] << 8) | a[1];
 243:..\..\..\..\wpa_supplicant\src\utils/common.h **** }
 244:..\..\..\..\wpa_supplicant\src\utils/common.h **** 
 245:..\..\..\..\wpa_supplicant\src\utils/common.h **** static inline void WPA_PUT_BE16(u8 *a, u16 val)
 246:..\..\..\..\wpa_supplicant\src\utils/common.h **** {
 247:..\..\..\..\wpa_supplicant\src\utils/common.h **** 	a[0] = val >> 8;
 248:..\..\..\..\wpa_supplicant\src\utils/common.h **** 	a[1] = val & 0xff;
 249:..\..\..\..\wpa_supplicant\src\utils/common.h **** }
 250:..\..\..\..\wpa_supplicant\src\utils/common.h **** 
 251:..\..\..\..\wpa_supplicant\src\utils/common.h **** static inline u16 WPA_GET_LE16(const u8 *a)
 252:..\..\..\..\wpa_supplicant\src\utils/common.h **** {
 253:..\..\..\..\wpa_supplicant\src\utils/common.h **** 	return (a[1] << 8) | a[0];
 254:..\..\..\..\wpa_supplicant\src\utils/common.h **** }
 255:..\..\..\..\wpa_supplicant\src\utils/common.h **** 
 256:..\..\..\..\wpa_supplicant\src\utils/common.h **** static inline void WPA_PUT_LE16(u8 *a, u16 val)
 257:..\..\..\..\wpa_supplicant\src\utils/common.h **** {
 258:..\..\..\..\wpa_supplicant\src\utils/common.h **** 	a[1] = val >> 8;
 259:..\..\..\..\wpa_supplicant\src\utils/common.h **** 	a[0] = val & 0xff;
 260:..\..\..\..\wpa_supplicant\src\utils/common.h **** }
 261:..\..\..\..\wpa_supplicant\src\utils/common.h **** 
 262:..\..\..\..\wpa_supplicant\src\utils/common.h **** static inline u32 WPA_GET_BE24(const u8 *a)
 263:..\..\..\..\wpa_supplicant\src\utils/common.h **** {
 264:..\..\..\..\wpa_supplicant\src\utils/common.h **** 	return (a[0] << 16) | (a[1] << 8) | a[2];
 265:..\..\..\..\wpa_supplicant\src\utils/common.h **** }
 266:..\..\..\..\wpa_supplicant\src\utils/common.h **** 
 267:..\..\..\..\wpa_supplicant\src\utils/common.h **** static inline void WPA_PUT_BE24(u8 *a, u32 val)
 268:..\..\..\..\wpa_supplicant\src\utils/common.h **** {
 269:..\..\..\..\wpa_supplicant\src\utils/common.h **** 	a[0] = (val >> 16) & 0xff;
 270:..\..\..\..\wpa_supplicant\src\utils/common.h **** 	a[1] = (val >> 8) & 0xff;
 271:..\..\..\..\wpa_supplicant\src\utils/common.h **** 	a[2] = val & 0xff;
 272:..\..\..\..\wpa_supplicant\src\utils/common.h **** }
 273:..\..\..\..\wpa_supplicant\src\utils/common.h **** 
 274:..\..\..\..\wpa_supplicant\src\utils/common.h **** static inline u32 WPA_GET_BE32(const u8 *a)
 275:..\..\..\..\wpa_supplicant\src\utils/common.h **** {
 276:..\..\..\..\wpa_supplicant\src\utils/common.h **** 	return ((u32) a[0] << 24) | (a[1] << 16) | (a[2] << 8) | a[3];
 277:..\..\..\..\wpa_supplicant\src\utils/common.h **** }
 278:..\..\..\..\wpa_supplicant\src\utils/common.h **** 
 279:..\..\..\..\wpa_supplicant\src\utils/common.h **** static inline void WPA_PUT_BE32(u8 *a, u32 val)
 280:..\..\..\..\wpa_supplicant\src\utils/common.h **** {
 281:..\..\..\..\wpa_supplicant\src\utils/common.h **** 	a[0] = (val >> 24) & 0xff;
 282:..\..\..\..\wpa_supplicant\src\utils/common.h **** 	a[1] = (val >> 16) & 0xff;
 283:..\..\..\..\wpa_supplicant\src\utils/common.h **** 	a[2] = (val >> 8) & 0xff;
 284:..\..\..\..\wpa_supplicant\src\utils/common.h **** 	a[3] = val & 0xff;
 285:..\..\..\..\wpa_supplicant\src\utils/common.h **** }
 286:..\..\..\..\wpa_supplicant\src\utils/common.h **** 
 287:..\..\..\..\wpa_supplicant\src\utils/common.h **** static inline u32 WPA_GET_LE32(const u8 *a)
 288:..\..\..\..\wpa_supplicant\src\utils/common.h **** {
 289:..\..\..\..\wpa_supplicant\src\utils/common.h **** 	return ((u32) a[3] << 24) | (a[2] << 16) | (a[1] << 8) | a[0];
 290:..\..\..\..\wpa_supplicant\src\utils/common.h **** }
 291:..\..\..\..\wpa_supplicant\src\utils/common.h **** 
 292:..\..\..\..\wpa_supplicant\src\utils/common.h **** static inline void WPA_PUT_LE32(u8 *a, u32 val)
 293:..\..\..\..\wpa_supplicant\src\utils/common.h **** {
 294:..\..\..\..\wpa_supplicant\src\utils/common.h **** 	a[3] = (val >> 24) & 0xff;
 295:..\..\..\..\wpa_supplicant\src\utils/common.h **** 	a[2] = (val >> 16) & 0xff;
 296:..\..\..\..\wpa_supplicant\src\utils/common.h **** 	a[1] = (val >> 8) & 0xff;
 297:..\..\..\..\wpa_supplicant\src\utils/common.h **** 	a[0] = val & 0xff;
 298:..\..\..\..\wpa_supplicant\src\utils/common.h **** }
 299:..\..\..\..\wpa_supplicant\src\utils/common.h **** 
 300:..\..\..\..\wpa_supplicant\src\utils/common.h **** static inline u64 WPA_GET_BE64(const u8 *a)
 301:..\..\..\..\wpa_supplicant\src\utils/common.h **** {
 302:..\..\..\..\wpa_supplicant\src\utils/common.h **** 	return (((u64) a[0]) << 56) | (((u64) a[1]) << 48) |
  69              		.loc 2 302 2 discriminator 3
  70 003a B387C900 		add	a5,s3,a2
  71              	.LVL6:
  72 003e 83C61700 		lbu	a3,1(a5)
  73 0042 03C70700 		lbu	a4,0(a5)
  74 0046 83C55700 		lbu	a1,5(a5)
  75 004a A206     		slli	a3,a3,8
  76 004c D98E     		or	a3,a3,a4
  77 004e 03C72700 		lbu	a4,2(a5)
  78 0052 A205     		slli	a1,a1,8
  79 0054 4207     		slli	a4,a4,16
  80 0056 D98E     		or	a3,a4,a3
  81 0058 03C73700 		lbu	a4,3(a5)
  82 005c 6207     		slli	a4,a4,24
  83 005e 558F     		or	a4,a4,a3
  84 0060 83C64700 		lbu	a3,4(a5)
  85 0064 D58D     		or	a1,a1,a3
  86 0066 83C66700 		lbu	a3,6(a5)
  87 006a C206     		slli	a3,a3,16
  88 006c D58D     		or	a1,a3,a1
  89 006e 83C67700 		lbu	a3,7(a5)
  90 0072 93578769 		rev8	a5,a4
  91              	.LVL7:
  92 0076 E206     		slli	a3,a3,24
  93 0078 CD8E     		or	a3,a3,a1
  94 007a 13D78669 		rev8	a4,a3
  95              	.LVL8:
  96              		.loc 1 127 8 is_stmt 0 discriminator 3
  97 007e B386C400 		add	a3,s1,a2
  98 0082 98C2     		sw	a4,0(a3)
  99 0084 DCC2     		sw	a5,4(a3)
 126:C:/Users/stapi/OneDrive/Desktop/GD32VW553/V1_MQTT_OK/GD32VW55X_Wifi_BLE_SDK/GD32VW55x_RELEASE_V1.0.2/MSDK/wpa_supplicant/src/crypto\sha512-internal.c **** 		W[i] = WPA_GET_BE64(buf + (8 * i));
 100              		.loc 1 126 22 is_stmt 1 discriminator 3
 126:C:/Users/stapi/OneDrive/Desktop/GD32VW553/V1_MQTT_OK/GD32VW55X_Wifi_BLE_SDK/GD32VW55x_RELEASE_V1.0.2/MSDK/wpa_supplicant/src/crypto\sha512-internal.c **** 		W[i] = WPA_GET_BE64(buf + (8 * i));
 101              		.loc 1 126 14 discriminator 3
 126:C:/Users/stapi/OneDrive/Desktop/GD32VW553/V1_MQTT_OK/GD32VW55X_Wifi_BLE_SDK/GD32VW55x_RELEASE_V1.0.2/MSDK/wpa_supplicant/src/crypto\sha512-internal.c **** 		W[i] = WPA_GET_BE64(buf + (8 * i));
 102              		.loc 1 126 2 is_stmt 0 discriminator 3
 103 0086 2106     		addi	a2,a2,8
 104 0088 E319A6FA 		bne	a2,a0,.L3
 105 008c 2688     		mv	a6,s1
 106 008e 93880420 		addi	a7,s1,512
 107              	.L4:
 128:C:/Users/stapi/OneDrive/Desktop/GD32VW553/V1_MQTT_OK/GD32VW55X_Wifi_BLE_SDK/GD32VW55x_RELEASE_V1.0.2/MSDK/wpa_supplicant/src/crypto\sha512-internal.c **** 
 129:C:/Users/stapi/OneDrive/Desktop/GD32VW553/V1_MQTT_OK/GD32VW55X_Wifi_BLE_SDK/GD32VW55x_RELEASE_V1.0.2/MSDK/wpa_supplicant/src/crypto\sha512-internal.c **** 	/* fill W[16..79] */
 130:C:/Users/stapi/OneDrive/Desktop/GD32VW553/V1_MQTT_OK/GD32VW55X_Wifi_BLE_SDK/GD32VW55x_RELEASE_V1.0.2/MSDK/wpa_supplicant/src/crypto\sha512-internal.c **** 	for (i = 16; i < 80; i++) {
 131:C:/Users/stapi/OneDrive/Desktop/GD32VW553/V1_MQTT_OK/GD32VW55X_Wifi_BLE_SDK/GD32VW55x_RELEASE_V1.0.2/MSDK/wpa_supplicant/src/crypto\sha512-internal.c **** 		W[i] = Gamma1(W[i - 2]) + W[i - 7] + Gamma0(W[i - 15]) +
 108              		.loc 1 131 3 is_stmt 1 discriminator 3
 109              		.loc 1 131 10 is_stmt 0 discriminator 3
 110 0092 03254807 		lw	a0,116(a6)
 111 0096 83250807 		lw	a1,112(a6)
 112              		.loc 1 131 40 discriminator 3
 113 009a 032EC800 		lw	t3,12(a6)
 114              		.loc 1 131 10 discriminator 3
 115 009e 1317D500 		slli	a4,a0,13
 116 00a2 93D73501 		srli	a5,a1,19
 117 00a6 5D8F     		or	a4,a4,a5
 118 00a8 1396D500 		slli	a2,a1,13
 119 00ac 93573501 		srli	a5,a0,19
 120 00b0 93163500 		slli	a3,a0,3
 121 00b4 5D8E     		or	a2,a2,a5
 122 00b6 93D7D501 		srli	a5,a1,29
 123 00ba D58F     		or	a5,a5,a3
 124 00bc 939E3500 		slli	t4,a1,3
 125 00c0 9356D501 		srli	a3,a0,29
 126 00c4 B3E6D601 		or	a3,a3,t4
 127 00c8 3D8E     		xor	a2,a2,a5
 128 00ca 9981     		srli	a1,a1,6
 129 00cc 9317A501 		slli	a5,a0,26
 130 00d0 DD8D     		or	a1,a5,a1
 131 00d2 358F     		xor	a4,a4,a3
 132              		.loc 1 131 58 discriminator 3
 133 00d4 83278804 		lw	a5,72(a6)
 134 00d8 83260800 		lw	a3,0(a6)
 135              		.loc 1 131 10 discriminator 3
 136 00dc 1981     		srli	a0,a0,6
 137 00de 2D8F     		xor	a4,a4,a1
 138 00e0 298E     		xor	a2,a2,a0
 139              		.loc 1 131 58 discriminator 3
 140 00e2 8325C804 		lw	a1,76(a6)
 141 00e6 03254800 		lw	a0,4(a6)
 142              		.loc 1 131 40 discriminator 3
 143 00ea 03238800 		lw	t1,8(a6)
 144              		.loc 1 131 58 discriminator 3
 145 00ee BE96     		add	a3,a5,a3
 146 00f0 AA95     		add	a1,a1,a0
 147 00f2 B3B7F600 		sltu	a5,a3,a5
 148 00f6 B30ED700 		add	t4,a4,a3
 149 00fa AE97     		add	a5,a5,a1
 150 00fc 3E96     		add	a2,a2,a5
 151              		.loc 1 131 40 discriminator 3
 152 00fe 93561300 		srli	a3,t1,1
 153              		.loc 1 131 58 discriminator 3
 154 0102 33B7EE00 		sltu	a4,t4,a4
 155              		.loc 1 131 40 discriminator 3
 156 0106 9317FE01 		slli	a5,t3,31
 157              		.loc 1 131 58 discriminator 3
 158 010a 3297     		add	a4,a4,a2
 159              		.loc 1 131 40 discriminator 3
 160 010c D58F     		or	a5,a5,a3
 161 010e 13551E00 		srli	a0,t3,1
 162 0112 13568300 		srli	a2,t1,8
 163 0116 9315F301 		slli	a1,t1,31
 164 011a 93168E01 		slli	a3,t3,24
 165 011e C98D     		or	a1,a1,a0
 166 0120 D18E     		or	a3,a3,a2
 167 0122 13158301 		slli	a0,t1,24
 168 0126 13568E00 		srli	a2,t3,8
 169 012a 518D     		or	a0,a0,a2
 170 012c B58F     		xor	a5,a5,a3
 171 012e 13169E01 		slli	a2,t3,25
 172 0132 93567300 		srli	a3,t1,7
 173 0136 D18E     		or	a3,a2,a3
 174 0138 2D8D     		xor	a0,a1,a0
 175 013a B58F     		xor	a5,a5,a3
 176 013c 93557E00 		srli	a1,t3,7
 177              		.loc 1 131 58 discriminator 3
 178 0140 F697     		add	a5,t4,a5
 179              		.loc 1 131 40 discriminator 3
 180 0142 A98D     		xor	a1,a0,a1
 181              		.loc 1 131 58 discriminator 3
 182 0144 B3B6D701 		sltu	a3,a5,t4
 183 0148 BA95     		add	a1,a4,a1
 184 014a 3387B600 		add	a4,a3,a1
 185              		.loc 1 131 8 discriminator 3
 186 014e 2320F808 		sw	a5,128(a6)
 187 0152 2322E808 		sw	a4,132(a6)
 130:C:/Users/stapi/OneDrive/Desktop/GD32VW553/V1_MQTT_OK/GD32VW55X_Wifi_BLE_SDK/GD32VW55x_RELEASE_V1.0.2/MSDK/wpa_supplicant/src/crypto\sha512-internal.c **** 		W[i] = Gamma1(W[i - 2]) + W[i - 7] + Gamma0(W[i - 15]) +
 188              		.loc 1 130 23 is_stmt 1 discriminator 3
 130:C:/Users/stapi/OneDrive/Desktop/GD32VW553/V1_MQTT_OK/GD32VW55X_Wifi_BLE_SDK/GD32VW55x_RELEASE_V1.0.2/MSDK/wpa_supplicant/src/crypto\sha512-internal.c **** 		W[i] = Gamma1(W[i - 2]) + W[i - 7] + Gamma0(W[i - 15]) +
 189              		.loc 1 130 15 discriminator 3
 130:C:/Users/stapi/OneDrive/Desktop/GD32VW553/V1_MQTT_OK/GD32VW55X_Wifi_BLE_SDK/GD32VW55x_RELEASE_V1.0.2/MSDK/wpa_supplicant/src/crypto\sha512-internal.c **** 		W[i] = Gamma1(W[i - 2]) + W[i - 7] + Gamma0(W[i - 15]) +
 190              		.loc 1 130 2 is_stmt 0 discriminator 3
 191 0156 2108     		addi	a6,a6,8
 192 0158 E39D08F3 		bne	a7,a6,.L4
 193 015c 625D     		lw	s10,56(sp)
 194 015e F25C     		lw	s9,60(sp)
 195 0160 0258     		lw	a6,32(sp)
 196 0162 9255     		lw	a1,36(sp)
 197 0164 425F     		lw	t5,48(sp)
 198 0166 D25E     		lw	t4,52(sp)
 199 0168 A25A     		lw	s5,40(sp)
 200 016a 325A     		lw	s4,44(sp)
 201 016c 8246     		lw	a3,0(sp)
 202 016e 1247     		lw	a4,4(sp)
 203 0170 224E     		lw	t3,8(sp)
 204 0172 3245     		lw	a0,12(sp)
 205 0174 C249     		lw	s3,16(sp)
 206              	.LVL9:
 207 0176 D240     		lw	ra,20(sp)
 208 0178 624C     		lw	s8,24(sp)
 209 017a 724B     		lw	s6,28(sp)
 132:C:/Users/stapi/OneDrive/Desktop/GD32VW553/V1_MQTT_OK/GD32VW55X_Wifi_BLE_SDK/GD32VW55x_RELEASE_V1.0.2/MSDK/wpa_supplicant/src/crypto\sha512-internal.c **** 			W[i - 16];
 133:C:/Users/stapi/OneDrive/Desktop/GD32VW553/V1_MQTT_OK/GD32VW55X_Wifi_BLE_SDK/GD32VW55x_RELEASE_V1.0.2/MSDK/wpa_supplicant/src/crypto\sha512-internal.c **** 	}
 134:C:/Users/stapi/OneDrive/Desktop/GD32VW553/V1_MQTT_OK/GD32VW55X_Wifi_BLE_SDK/GD32VW55x_RELEASE_V1.0.2/MSDK/wpa_supplicant/src/crypto\sha512-internal.c **** 
 135:C:/Users/stapi/OneDrive/Desktop/GD32VW553/V1_MQTT_OK/GD32VW55X_Wifi_BLE_SDK/GD32VW55x_RELEASE_V1.0.2/MSDK/wpa_supplicant/src/crypto\sha512-internal.c **** 	/* Compress */
 136:C:/Users/stapi/OneDrive/Desktop/GD32VW553/V1_MQTT_OK/GD32VW55X_Wifi_BLE_SDK/GD32VW55x_RELEASE_V1.0.2/MSDK/wpa_supplicant/src/crypto\sha512-internal.c **** 	for (i = 0; i < 80; i++) {
 137:C:/Users/stapi/OneDrive/Desktop/GD32VW553/V1_MQTT_OK/GD32VW55X_Wifi_BLE_SDK/GD32VW55x_RELEASE_V1.0.2/MSDK/wpa_supplicant/src/crypto\sha512-internal.c **** 		t0 = S[7] + Sigma1(S[4]) + Ch(S[4], S[5], S[6]) + K[i] + W[i];
 210              		.loc 1 137 54
 211 017c B70B0000 		lui	s7,%hi(.LANCHOR0)
 130:C:/Users/stapi/OneDrive/Desktop/GD32VW553/V1_MQTT_OK/GD32VW55X_Wifi_BLE_SDK/GD32VW55x_RELEASE_V1.0.2/MSDK/wpa_supplicant/src/crypto\sha512-internal.c **** 		W[i] = Gamma1(W[i - 2]) + W[i - 7] + Gamma0(W[i - 15]) +
 212              		.loc 1 130 2
 213 0180 814F     		li	t6,0
 214              		.loc 1 137 54
 215 0182 938B0B00 		addi	s7,s7,%lo(.LANCHOR0)
 216              	.L5:
 217              		.loc 1 137 3 is_stmt 1 discriminator 3
 218              		.loc 1 137 54 is_stmt 0 discriminator 3
 219 0186 B387FB01 		add	a5,s7,t6
 220              		.loc 1 137 61 discriminator 3
 221 018a B388F401 		add	a7,s1,t6
 222              		.loc 1 137 6 discriminator 3
 223 018e 03A30700 		lw	t1,0(a5)
 224 0192 03A60800 		lw	a2,0(a7)
 225 0196 DC43     		lw	a5,4(a5)
 226 0198 83A84800 		lw	a7,4(a7)
 227 019c 1A96     		add	a2,t1,a2
 228 019e 33336600 		sltu	t1,a2,t1
 229 01a2 C697     		add	a5,a5,a7
 230 01a4 3E93     		add	t1,t1,a5
 231              		.loc 1 137 15 discriminator 3
 232 01a6 93182801 		slli	a7,a6,18
 233 01aa 93972501 		slli	a5,a1,18
 234 01ae 9353E800 		srli	t2,a6,14
 235 01b2 93D2E500 		srli	t0,a1,14
 236 01b6 B3E37700 		or	t2,a5,t2
 237 01ba B3E25800 		or	t0,a7,t0
 238 01be 9397E500 		slli	a5,a1,14
 239 01c2 93582801 		srli	a7,a6,18
 240 01c6 B3E71701 		or	a5,a5,a7
 241 01ca 93DD2501 		srli	s11,a1,18
 242 01ce 9318E800 		slli	a7,a6,14
 243 01d2 B3E8B801 		or	a7,a7,s11
 244 01d6 B3C7F300 		xor	a5,t2,a5
 245 01da B3C81201 		xor	a7,t0,a7
 246 01de 93937501 		slli	t2,a1,23
 247 01e2 93529800 		srli	t0,a6,9
 248 01e6 B3E27200 		or	t0,t0,t2
 249 01ea 931D7801 		slli	s11,a6,23
 250 01ee 93D39500 		srli	t2,a1,9
 251 01f2 B3EDB301 		or	s11,t2,s11
 252 01f6 B3C7B701 		xor	a5,a5,s11
 253 01fa B3C85800 		xor	a7,a7,t0
 254              		.loc 1 137 6 discriminator 3
 255 01fe B297     		add	a5,a2,a5
 256 0200 4693     		add	t1,t1,a7
 257 0202 33B6C700 		sltu	a2,a5,a2
 258              		.loc 1 137 30 discriminator 3
 259 0206 B3485F01 		xor	a7,t5,s5
 260              		.loc 1 137 6 discriminator 3
 261 020a 1A96     		add	a2,a2,t1
 262              		.loc 1 137 30 discriminator 3
 263 020c B3F80801 		and	a7,a7,a6
 264 0210 33C34E01 		xor	t1,t4,s4
 265 0214 3373B300 		and	t1,t1,a1
 266 0218 B3C8E801 		xor	a7,a7,t5
 267              		.loc 1 137 6 discriminator 3
 268 021c BE98     		add	a7,a5,a7
 269              		.loc 1 137 30 discriminator 3
 270 021e 3343D301 		xor	t1,t1,t4
 271              		.loc 1 137 6 discriminator 3
 272 0222 1A96     		add	a2,a2,t1
 273 0224 B3B7F800 		sltu	a5,a7,a5
 274 0228 469D     		add	s10,a7,s10
 275 022a B297     		add	a5,a5,a2
 276 022c B3381D01 		sltu	a7,s10,a7
 277 0230 BE9C     		add	s9,a5,s9
 138:C:/Users/stapi/OneDrive/Desktop/GD32VW553/V1_MQTT_OK/GD32VW55X_Wifi_BLE_SDK/GD32VW55x_RELEASE_V1.0.2/MSDK/wpa_supplicant/src/crypto\sha512-internal.c **** 		t1 = Sigma0(S[0]) + Maj(S[0], S[1], S[2]);
 278              		.loc 1 138 8 discriminator 3
 279 0232 13934600 		slli	t1,a3,4
 280 0236 9352C701 		srli	t0,a4,28
 137:C:/Users/stapi/OneDrive/Desktop/GD32VW553/V1_MQTT_OK/GD32VW55X_Wifi_BLE_SDK/GD32VW55x_RELEASE_V1.0.2/MSDK/wpa_supplicant/src/crypto\sha512-internal.c **** 		t1 = Sigma0(S[0]) + Maj(S[0], S[1], S[2]);
 281              		.loc 1 137 6 discriminator 3
 282 023a C69C     		add	s9,a7,s9
 283              	.LVL10:
 284              		.loc 1 138 3 is_stmt 1 discriminator 3
 285              		.loc 1 138 8 is_stmt 0 discriminator 3
 286 023c B3625300 		or	t0,t1,t0
 287 0240 93174700 		slli	a5,a4,4
 288 0244 13D32600 		srli	t1,a3,2
 289 0248 13D6C601 		srli	a2,a3,28
 290 024c 9318E701 		slli	a7,a4,30
 291 0250 5D8E     		or	a2,a5,a2
 292 0252 B3681301 		or	a7,t1,a7
 293 0256 93572700 		srli	a5,a4,2
 294 025a 1393E601 		slli	t1,a3,30
 295 025e B3E76700 		or	a5,a5,t1
 296 0262 B18F     		xor	a5,a2,a5
 297 0264 33C31201 		xor	t1,t0,a7
 298 0268 13169701 		slli	a2,a4,25
 299 026c 93D87600 		srli	a7,a3,7
 300 0270 B3E8C800 		or	a7,a7,a2
 301 0274 93929601 		slli	t0,a3,25
 302 0278 13567700 		srli	a2,a4,7
 303 027c 33665600 		or	a2,a2,t0
 304 0280 3D8E     		xor	a2,a5,a2
 305              		.loc 1 138 23 discriminator 3
 306 0282 B3E7C601 		or	a5,a3,t3
 307              		.loc 1 138 8 discriminator 3
 308 0286 B3481301 		xor	a7,t1,a7
 309              		.loc 1 138 23 discriminator 3
 310 028a B362A700 		or	t0,a4,a0
 311 028e 33F33701 		and	t1,a5,s3
 312 0292 B3F7C601 		and	a5,a3,t3
 313 0296 B3F21200 		and	t0,t0,ra
 314 029a B367F300 		or	a5,t1,a5
 315 029e B373A700 		and	t2,a4,a0
 316 02a2 33E37200 		or	t1,t0,t2
 317              		.loc 1 138 6 discriminator 3
 318 02a6 B297     		add	a5,a2,a5
 319 02a8 33B6C700 		sltu	a2,a5,a2
 320 02ac 9A98     		add	a7,a7,t1
 321 02ae B298     		add	a7,a2,a7
 322              	.LVL11:
 139:C:/Users/stapi/OneDrive/Desktop/GD32VW553/V1_MQTT_OK/GD32VW55X_Wifi_BLE_SDK/GD32VW55x_RELEASE_V1.0.2/MSDK/wpa_supplicant/src/crypto\sha512-internal.c **** 		S[7] = S[6];
 323              		.loc 1 139 3 is_stmt 1 discriminator 3
 140:C:/Users/stapi/OneDrive/Desktop/GD32VW553/V1_MQTT_OK/GD32VW55X_Wifi_BLE_SDK/GD32VW55x_RELEASE_V1.0.2/MSDK/wpa_supplicant/src/crypto\sha512-internal.c **** 		S[6] = S[5];
 324              		.loc 1 140 3 discriminator 3
 141:C:/Users/stapi/OneDrive/Desktop/GD32VW553/V1_MQTT_OK/GD32VW55X_Wifi_BLE_SDK/GD32VW55x_RELEASE_V1.0.2/MSDK/wpa_supplicant/src/crypto\sha512-internal.c **** 		S[5] = S[4];
 325              		.loc 1 141 3 discriminator 3
 142:C:/Users/stapi/OneDrive/Desktop/GD32VW553/V1_MQTT_OK/GD32VW55X_Wifi_BLE_SDK/GD32VW55x_RELEASE_V1.0.2/MSDK/wpa_supplicant/src/crypto\sha512-internal.c **** 		S[4] = S[3] + t0;
 326              		.loc 1 142 3 discriminator 3
 327              		.loc 1 142 15 is_stmt 0 discriminator 3
 328 02b0 B3028D01 		add	t0,s10,s8
 143:C:/Users/stapi/OneDrive/Desktop/GD32VW553/V1_MQTT_OK/GD32VW55X_Wifi_BLE_SDK/GD32VW55x_RELEASE_V1.0.2/MSDK/wpa_supplicant/src/crypto\sha512-internal.c **** 		S[3] = S[2];
 144:C:/Users/stapi/OneDrive/Desktop/GD32VW553/V1_MQTT_OK/GD32VW55X_Wifi_BLE_SDK/GD32VW55x_RELEASE_V1.0.2/MSDK/wpa_supplicant/src/crypto\sha512-internal.c **** 		S[2] = S[1];
 145:C:/Users/stapi/OneDrive/Desktop/GD32VW553/V1_MQTT_OK/GD32VW55X_Wifi_BLE_SDK/GD32VW55x_RELEASE_V1.0.2/MSDK/wpa_supplicant/src/crypto\sha512-internal.c **** 		S[1] = S[0];
 146:C:/Users/stapi/OneDrive/Desktop/GD32VW553/V1_MQTT_OK/GD32VW55X_Wifi_BLE_SDK/GD32VW55x_RELEASE_V1.0.2/MSDK/wpa_supplicant/src/crypto\sha512-internal.c **** 		S[0] = t0 + t1;
 329              		.loc 1 146 13 discriminator 3
 330 02b4 EA97     		add	a5,s10,a5
 331              	.LVL12:
 142:C:/Users/stapi/OneDrive/Desktop/GD32VW553/V1_MQTT_OK/GD32VW55X_Wifi_BLE_SDK/GD32VW55x_RELEASE_V1.0.2/MSDK/wpa_supplicant/src/crypto\sha512-internal.c **** 		S[4] = S[3] + t0;
 332              		.loc 1 142 15 discriminator 3
 333 02b6 669B     		add	s6,s9,s6
 334 02b8 33B3A201 		sltu	t1,t0,s10
 335              		.loc 1 146 13 discriminator 3
 336 02bc C69C     		add	s9,s9,a7
 337              	.LVL13:
 338 02be 33BDA701 		sltu	s10,a5,s10
 136:C:/Users/stapi/OneDrive/Desktop/GD32VW553/V1_MQTT_OK/GD32VW55X_Wifi_BLE_SDK/GD32VW55x_RELEASE_V1.0.2/MSDK/wpa_supplicant/src/crypto\sha512-internal.c **** 		t0 = S[7] + Sigma1(S[4]) + Ch(S[4], S[5], S[6]) + K[i] + W[i];
 339              		.loc 1 136 2 discriminator 3
 340 02c2 A10F     		addi	t6,t6,8
 341 02c4 13060028 		li	a2,640
 342              		.loc 1 146 13 discriminator 3
 343 02c8 B3089D01 		add	a7,s10,s9
 344              	.LVL14:
 142:C:/Users/stapi/OneDrive/Desktop/GD32VW553/V1_MQTT_OK/GD32VW55X_Wifi_BLE_SDK/GD32VW55x_RELEASE_V1.0.2/MSDK/wpa_supplicant/src/crypto\sha512-internal.c **** 		S[4] = S[3] + t0;
 345              		.loc 1 142 15 discriminator 3
 346 02cc 5A93     		add	t1,t1,s6
 143:C:/Users/stapi/OneDrive/Desktop/GD32VW553/V1_MQTT_OK/GD32VW55X_Wifi_BLE_SDK/GD32VW55x_RELEASE_V1.0.2/MSDK/wpa_supplicant/src/crypto\sha512-internal.c **** 		S[3] = S[2];
 347              		.loc 1 143 3 is_stmt 1 discriminator 3
 144:C:/Users/stapi/OneDrive/Desktop/GD32VW553/V1_MQTT_OK/GD32VW55X_Wifi_BLE_SDK/GD32VW55x_RELEASE_V1.0.2/MSDK/wpa_supplicant/src/crypto\sha512-internal.c **** 		S[1] = S[0];
 348              		.loc 1 144 3 discriminator 3
 145:C:/Users/stapi/OneDrive/Desktop/GD32VW553/V1_MQTT_OK/GD32VW55X_Wifi_BLE_SDK/GD32VW55x_RELEASE_V1.0.2/MSDK/wpa_supplicant/src/crypto\sha512-internal.c **** 		S[0] = t0 + t1;
 349              		.loc 1 145 3 discriminator 3
 350              		.loc 1 146 3 discriminator 3
 136:C:/Users/stapi/OneDrive/Desktop/GD32VW553/V1_MQTT_OK/GD32VW55X_Wifi_BLE_SDK/GD32VW55x_RELEASE_V1.0.2/MSDK/wpa_supplicant/src/crypto\sha512-internal.c **** 		t0 = S[7] + Sigma1(S[4]) + Ch(S[4], S[5], S[6]) + K[i] + W[i];
 351              		.loc 1 136 22 discriminator 3
 136:C:/Users/stapi/OneDrive/Desktop/GD32VW553/V1_MQTT_OK/GD32VW55X_Wifi_BLE_SDK/GD32VW55x_RELEASE_V1.0.2/MSDK/wpa_supplicant/src/crypto\sha512-internal.c **** 		t0 = S[7] + Sigma1(S[4]) + Ch(S[4], S[5], S[6]) + K[i] + W[i];
 352              		.loc 1 136 14 discriminator 3
 353 02ce 7A8D     		mv	s10,t5
 354 02d0 F68C     		mv	s9,t4
 355 02d2 4E8C     		mv	s8,s3
 356 02d4 068B     		mv	s6,ra
 136:C:/Users/stapi/OneDrive/Desktop/GD32VW553/V1_MQTT_OK/GD32VW55X_Wifi_BLE_SDK/GD32VW55x_RELEASE_V1.0.2/MSDK/wpa_supplicant/src/crypto\sha512-internal.c **** 		t0 = S[7] + Sigma1(S[4]) + Ch(S[4], S[5], S[6]) + K[i] + W[i];
 357              		.loc 1 136 2 is_stmt 0 discriminator 3
 358 02d6 639FCF04 		bne	t6,a2,.L8
 359 02da 3EC0     		sw	a5,0(sp)
 360 02dc 7ADC     		sw	t5,56(sp)
 361 02de 76DE     		sw	t4,60(sp)
 362 02e0 16D0     		sw	t0,32(sp)
 363 02e2 1AD2     		sw	t1,36(sp)
 364 02e4 56D8     		sw	s5,48(sp)
 365 02e6 52DA     		sw	s4,52(sp)
 366 02e8 42D4     		sw	a6,40(sp)
 367 02ea 2ED6     		sw	a1,44(sp)
 368 02ec 46C2     		sw	a7,4(sp)
 369 02ee 36C4     		sw	a3,8(sp)
 370 02f0 3AC6     		sw	a4,12(sp)
 371 02f2 72C8     		sw	t3,16(sp)
 372 02f4 2ACA     		sw	a0,20(sp)
 373 02f6 4ECC     		sw	s3,24(sp)
 374 02f8 06CE     		sw	ra,28(sp)
 375 02fa 8A87     		mv	a5,sp
 376 02fc 13098904 		addi	s2,s2,72
 377              	.LVL15:
 378              	.L6:
 147:C:/Users/stapi/OneDrive/Desktop/GD32VW553/V1_MQTT_OK/GD32VW55X_Wifi_BLE_SDK/GD32VW55x_RELEASE_V1.0.2/MSDK/wpa_supplicant/src/crypto\sha512-internal.c **** 	}
 148:C:/Users/stapi/OneDrive/Desktop/GD32VW553/V1_MQTT_OK/GD32VW55X_Wifi_BLE_SDK/GD32VW55x_RELEASE_V1.0.2/MSDK/wpa_supplicant/src/crypto\sha512-internal.c **** 
 149:C:/Users/stapi/OneDrive/Desktop/GD32VW553/V1_MQTT_OK/GD32VW55X_Wifi_BLE_SDK/GD32VW55x_RELEASE_V1.0.2/MSDK/wpa_supplicant/src/crypto\sha512-internal.c **** 	/* feedback */
 150:C:/Users/stapi/OneDrive/Desktop/GD32VW553/V1_MQTT_OK/GD32VW55X_Wifi_BLE_SDK/GD32VW55x_RELEASE_V1.0.2/MSDK/wpa_supplicant/src/crypto\sha512-internal.c **** 	for (i = 0; i < 8; i++) {
 151:C:/Users/stapi/OneDrive/Desktop/GD32VW553/V1_MQTT_OK/GD32VW55X_Wifi_BLE_SDK/GD32VW55x_RELEASE_V1.0.2/MSDK/wpa_supplicant/src/crypto\sha512-internal.c **** 		md->state[i] = md->state[i] + S[i];
 379              		.loc 1 151 3 is_stmt 1 discriminator 3
 380              		.loc 1 151 31 is_stmt 0 discriminator 3
 381 0300 1840     		lw	a4,0(s0)
 382 0302 9443     		lw	a3,0(a5)
 383 0304 5040     		lw	a2,4(s0)
 384 0306 CC43     		lw	a1,4(a5)
 385 0308 BA96     		add	a3,a4,a3
 386 030a 33B7E600 		sltu	a4,a3,a4
 387 030e 2E96     		add	a2,a2,a1
 388 0310 3297     		add	a4,a4,a2
 389              		.loc 1 151 16 discriminator 3
 390 0312 14C0     		sw	a3,0(s0)
 391 0314 58C0     		sw	a4,4(s0)
 150:C:/Users/stapi/OneDrive/Desktop/GD32VW553/V1_MQTT_OK/GD32VW55X_Wifi_BLE_SDK/GD32VW55x_RELEASE_V1.0.2/MSDK/wpa_supplicant/src/crypto\sha512-internal.c **** 		md->state[i] = md->state[i] + S[i];
 392              		.loc 1 150 21 is_stmt 1 discriminator 3
 150:C:/Users/stapi/OneDrive/Desktop/GD32VW553/V1_MQTT_OK/GD32VW55X_Wifi_BLE_SDK/GD32VW55x_RELEASE_V1.0.2/MSDK/wpa_supplicant/src/crypto\sha512-internal.c **** 		md->state[i] = md->state[i] + S[i];
 393              		.loc 1 150 14 discriminator 3
 150:C:/Users/stapi/OneDrive/Desktop/GD32VW553/V1_MQTT_OK/GD32VW55X_Wifi_BLE_SDK/GD32VW55x_RELEASE_V1.0.2/MSDK/wpa_supplicant/src/crypto\sha512-internal.c **** 		md->state[i] = md->state[i] + S[i];
 394              		.loc 1 150 2 is_stmt 0 discriminator 3
 395 0316 2104     		addi	s0,s0,8
 396 0318 A107     		addi	a5,a5,8
 397 031a E31389FE 		bne	s2,s0,.L6
 152:C:/Users/stapi/OneDrive/Desktop/GD32VW553/V1_MQTT_OK/GD32VW55X_Wifi_BLE_SDK/GD32VW55x_RELEASE_V1.0.2/MSDK/wpa_supplicant/src/crypto\sha512-internal.c **** 	}
 153:C:/Users/stapi/OneDrive/Desktop/GD32VW553/V1_MQTT_OK/GD32VW55X_Wifi_BLE_SDK/GD32VW55x_RELEASE_V1.0.2/MSDK/wpa_supplicant/src/crypto\sha512-internal.c **** 
 154:C:/Users/stapi/OneDrive/Desktop/GD32VW553/V1_MQTT_OK/GD32VW55X_Wifi_BLE_SDK/GD32VW55x_RELEASE_V1.0.2/MSDK/wpa_supplicant/src/crypto\sha512-internal.c **** 	os_free(W);
 398              		.loc 1 154 2 is_stmt 1
 399 031e 2685     		mv	a0,s1
 400              	.LVL16:
 401 0320 97000000 		call	os_free
 401      E7800000 
 402              	.LVL17:
 155:C:/Users/stapi/OneDrive/Desktop/GD32VW553/V1_MQTT_OK/GD32VW55X_Wifi_BLE_SDK/GD32VW55x_RELEASE_V1.0.2/MSDK/wpa_supplicant/src/crypto\sha512-internal.c **** 	return 0;
 403              		.loc 1 155 2
 404              		.loc 1 155 9 is_stmt 0
 405 0328 0145     		li	a0,0
 406              	.LVL18:
 407              	.L1:
 156:C:/Users/stapi/OneDrive/Desktop/GD32VW553/V1_MQTT_OK/GD32VW55X_Wifi_BLE_SDK/GD32VW55x_RELEASE_V1.0.2/MSDK/wpa_supplicant/src/crypto\sha512-internal.c **** }
 408              		.loc 1 156 1
 409 032a 2161     		addi	sp,sp,64
 410              		.cfi_remember_state
 411              		.cfi_def_cfa_offset 0
 412 032c 17030000 		tail	__riscv_restore_12
 412      67000300 
 413              		.cfi_restore 27
 414              		.cfi_restore 26
 415              		.cfi_restore 25
 416              		.cfi_restore 24
 417              		.cfi_restore 23
 418              		.cfi_restore 22
 419              		.cfi_restore 21
 420              		.cfi_restore 20
 421              		.cfi_restore 19
 422              		.cfi_restore 18
 423              		.cfi_restore 9
 424              		.cfi_restore 8
 425              		.cfi_restore 1
 426              		.cfi_def_cfa_offset -64
 427              	.LVL19:
 428              	.L8:
 429              		.cfi_restore_state
 430 0334 F289     		mv	s3,t3
 431              	.LVL20:
 432 0336 AA80     		mv	ra,a0
 433              	.LVL21:
 434 0338 368E     		mv	t3,a3
 435              	.LVL22:
 436 033a 3A85     		mv	a0,a4
 437              	.LVL23:
 438 033c 568F     		mv	t5,s5
 439 033e D28E     		mv	t4,s4
 440 0340 C28A     		mv	s5,a6
 441 0342 2E8A     		mv	s4,a1
 146:C:/Users/stapi/OneDrive/Desktop/GD32VW553/V1_MQTT_OK/GD32VW55X_Wifi_BLE_SDK/GD32VW55x_RELEASE_V1.0.2/MSDK/wpa_supplicant/src/crypto\sha512-internal.c **** 	}
 442              		.loc 1 146 13
 443 0344 BE86     		mv	a3,a5
 444              	.LVL24:
 445 0346 4687     		mv	a4,a7
 446              	.LVL25:
 142:C:/Users/stapi/OneDrive/Desktop/GD32VW553/V1_MQTT_OK/GD32VW55X_Wifi_BLE_SDK/GD32VW55x_RELEASE_V1.0.2/MSDK/wpa_supplicant/src/crypto\sha512-internal.c **** 		S[3] = S[2];
 447              		.loc 1 142 15
 448 0348 1688     		mv	a6,t0
 449 034a 9A85     		mv	a1,t1
 450 034c 2DBD     		j	.L5
 451              	.LVL26:
 452              	.L7:
 118:C:/Users/stapi/OneDrive/Desktop/GD32VW553/V1_MQTT_OK/GD32VW55X_Wifi_BLE_SDK/GD32VW55x_RELEASE_V1.0.2/MSDK/wpa_supplicant/src/crypto\sha512-internal.c **** 
 453              		.loc 1 118 10
 454 034e 7D55     		li	a0,-1
 455              	.LVL27:
 456 0350 E9BF     		j	.L1
 457              		.cfi_endproc
 458              	.LFE72:
 460              		.section	.text.sha512_init,"ax",@progbits
 461              		.align	1
 462              		.globl	sha512_init
 464              	sha512_init:
 465              	.LFB73:
 157:C:/Users/stapi/OneDrive/Desktop/GD32VW553/V1_MQTT_OK/GD32VW55X_Wifi_BLE_SDK/GD32VW55x_RELEASE_V1.0.2/MSDK/wpa_supplicant/src/crypto\sha512-internal.c **** 
 158:C:/Users/stapi/OneDrive/Desktop/GD32VW553/V1_MQTT_OK/GD32VW55X_Wifi_BLE_SDK/GD32VW55x_RELEASE_V1.0.2/MSDK/wpa_supplicant/src/crypto\sha512-internal.c **** 
 159:C:/Users/stapi/OneDrive/Desktop/GD32VW553/V1_MQTT_OK/GD32VW55X_Wifi_BLE_SDK/GD32VW55x_RELEASE_V1.0.2/MSDK/wpa_supplicant/src/crypto\sha512-internal.c **** /**
 160:C:/Users/stapi/OneDrive/Desktop/GD32VW553/V1_MQTT_OK/GD32VW55X_Wifi_BLE_SDK/GD32VW55x_RELEASE_V1.0.2/MSDK/wpa_supplicant/src/crypto\sha512-internal.c ****    Initialize the hash state
 161:C:/Users/stapi/OneDrive/Desktop/GD32VW553/V1_MQTT_OK/GD32VW55X_Wifi_BLE_SDK/GD32VW55x_RELEASE_V1.0.2/MSDK/wpa_supplicant/src/crypto\sha512-internal.c ****    @param md   The hash state you wish to initialize
 162:C:/Users/stapi/OneDrive/Desktop/GD32VW553/V1_MQTT_OK/GD32VW55X_Wifi_BLE_SDK/GD32VW55x_RELEASE_V1.0.2/MSDK/wpa_supplicant/src/crypto\sha512-internal.c ****    @return CRYPT_OK if successful
 163:C:/Users/stapi/OneDrive/Desktop/GD32VW553/V1_MQTT_OK/GD32VW55X_Wifi_BLE_SDK/GD32VW55x_RELEASE_V1.0.2/MSDK/wpa_supplicant/src/crypto\sha512-internal.c **** */
 164:C:/Users/stapi/OneDrive/Desktop/GD32VW553/V1_MQTT_OK/GD32VW55X_Wifi_BLE_SDK/GD32VW55x_RELEASE_V1.0.2/MSDK/wpa_supplicant/src/crypto\sha512-internal.c **** void sha512_init(struct sha512_state *md)
 165:C:/Users/stapi/OneDrive/Desktop/GD32VW553/V1_MQTT_OK/GD32VW55X_Wifi_BLE_SDK/GD32VW55x_RELEASE_V1.0.2/MSDK/wpa_supplicant/src/crypto\sha512-internal.c **** {
 466              		.loc 1 165 1 is_stmt 1
 467              		.cfi_startproc
 468              	.LVL28:
 166:C:/Users/stapi/OneDrive/Desktop/GD32VW553/V1_MQTT_OK/GD32VW55X_Wifi_BLE_SDK/GD32VW55x_RELEASE_V1.0.2/MSDK/wpa_supplicant/src/crypto\sha512-internal.c **** 	md->curlen = 0;
 469              		.loc 1 166 2
 167:C:/Users/stapi/OneDrive/Desktop/GD32VW553/V1_MQTT_OK/GD32VW55X_Wifi_BLE_SDK/GD32VW55x_RELEASE_V1.0.2/MSDK/wpa_supplicant/src/crypto\sha512-internal.c **** 	md->length = 0;
 470              		.loc 1 167 13 is_stmt 0
 471 0000 8147     		li	a5,0
 472 0002 0147     		li	a4,0
 473 0004 5CC1     		sw	a5,4(a0)
 168:C:/Users/stapi/OneDrive/Desktop/GD32VW553/V1_MQTT_OK/GD32VW55X_Wifi_BLE_SDK/GD32VW55x_RELEASE_V1.0.2/MSDK/wpa_supplicant/src/crypto\sha512-internal.c **** 	md->state[0] = CONST64(0x6a09e667f3bcc908);
 474              		.loc 1 168 15
 475 0006 B7070000 		lui	a5,%hi(.LC0)
 167:C:/Users/stapi/OneDrive/Desktop/GD32VW553/V1_MQTT_OK/GD32VW55X_Wifi_BLE_SDK/GD32VW55x_RELEASE_V1.0.2/MSDK/wpa_supplicant/src/crypto\sha512-internal.c **** 	md->length = 0;
 476              		.loc 1 167 13
 477 000a 18C1     		sw	a4,0(a0)
 478              		.loc 1 168 15
 479 000c 03A70700 		lw	a4,%lo(.LC0)(a5)
 480 0010 83A74700 		lw	a5,%lo(.LC0+4)(a5)
 166:C:/Users/stapi/OneDrive/Desktop/GD32VW553/V1_MQTT_OK/GD32VW55X_Wifi_BLE_SDK/GD32VW55x_RELEASE_V1.0.2/MSDK/wpa_supplicant/src/crypto\sha512-internal.c **** 	md->curlen = 0;
 481              		.loc 1 166 13
 482 0014 23240504 		sw	zero,72(a0)
 167:C:/Users/stapi/OneDrive/Desktop/GD32VW553/V1_MQTT_OK/GD32VW55X_Wifi_BLE_SDK/GD32VW55x_RELEASE_V1.0.2/MSDK/wpa_supplicant/src/crypto\sha512-internal.c **** 	md->length = 0;
 483              		.loc 1 167 2 is_stmt 1
 484              		.loc 1 168 2
 485              		.loc 1 168 15 is_stmt 0
 486 0018 18C5     		sw	a4,8(a0)
 487 001a 5CC5     		sw	a5,12(a0)
 169:C:/Users/stapi/OneDrive/Desktop/GD32VW553/V1_MQTT_OK/GD32VW55X_Wifi_BLE_SDK/GD32VW55x_RELEASE_V1.0.2/MSDK/wpa_supplicant/src/crypto\sha512-internal.c **** 	md->state[1] = CONST64(0xbb67ae8584caa73b);
 488              		.loc 1 169 2 is_stmt 1
 489              		.loc 1 169 15 is_stmt 0
 490 001c B7070000 		lui	a5,%hi(.LC1)
 491 0020 03A70700 		lw	a4,%lo(.LC1)(a5)
 492 0024 83A74700 		lw	a5,%lo(.LC1+4)(a5)
 493 0028 18C9     		sw	a4,16(a0)
 494 002a 5CC9     		sw	a5,20(a0)
 170:C:/Users/stapi/OneDrive/Desktop/GD32VW553/V1_MQTT_OK/GD32VW55X_Wifi_BLE_SDK/GD32VW55x_RELEASE_V1.0.2/MSDK/wpa_supplicant/src/crypto\sha512-internal.c **** 	md->state[2] = CONST64(0x3c6ef372fe94f82b);
 495              		.loc 1 170 2 is_stmt 1
 496              		.loc 1 170 15 is_stmt 0
 497 002c B7070000 		lui	a5,%hi(.LC2)
 498 0030 03A70700 		lw	a4,%lo(.LC2)(a5)
 499 0034 83A74700 		lw	a5,%lo(.LC2+4)(a5)
 500 0038 18CD     		sw	a4,24(a0)
 501 003a 5CCD     		sw	a5,28(a0)
 171:C:/Users/stapi/OneDrive/Desktop/GD32VW553/V1_MQTT_OK/GD32VW55X_Wifi_BLE_SDK/GD32VW55x_RELEASE_V1.0.2/MSDK/wpa_supplicant/src/crypto\sha512-internal.c **** 	md->state[3] = CONST64(0xa54ff53a5f1d36f1);
 502              		.loc 1 171 2 is_stmt 1
 503              		.loc 1 171 15 is_stmt 0
 504 003c B7070000 		lui	a5,%hi(.LC3)
 505 0040 03A70700 		lw	a4,%lo(.LC3)(a5)
 506 0044 83A74700 		lw	a5,%lo(.LC3+4)(a5)
 507 0048 18D1     		sw	a4,32(a0)
 508 004a 5CD1     		sw	a5,36(a0)
 172:C:/Users/stapi/OneDrive/Desktop/GD32VW553/V1_MQTT_OK/GD32VW55X_Wifi_BLE_SDK/GD32VW55x_RELEASE_V1.0.2/MSDK/wpa_supplicant/src/crypto\sha512-internal.c **** 	md->state[4] = CONST64(0x510e527fade682d1);
 509              		.loc 1 172 2 is_stmt 1
 510              		.loc 1 172 15 is_stmt 0
 511 004c B7070000 		lui	a5,%hi(.LC4)
 512 0050 03A70700 		lw	a4,%lo(.LC4)(a5)
 513 0054 83A74700 		lw	a5,%lo(.LC4+4)(a5)
 514 0058 18D5     		sw	a4,40(a0)
 515 005a 5CD5     		sw	a5,44(a0)
 173:C:/Users/stapi/OneDrive/Desktop/GD32VW553/V1_MQTT_OK/GD32VW55X_Wifi_BLE_SDK/GD32VW55x_RELEASE_V1.0.2/MSDK/wpa_supplicant/src/crypto\sha512-internal.c **** 	md->state[5] = CONST64(0x9b05688c2b3e6c1f);
 516              		.loc 1 173 2 is_stmt 1
 517              		.loc 1 173 15 is_stmt 0
 518 005c B7070000 		lui	a5,%hi(.LC5)
 519 0060 03A70700 		lw	a4,%lo(.LC5)(a5)
 520 0064 83A74700 		lw	a5,%lo(.LC5+4)(a5)
 521 0068 18D9     		sw	a4,48(a0)
 522 006a 5CD9     		sw	a5,52(a0)
 174:C:/Users/stapi/OneDrive/Desktop/GD32VW553/V1_MQTT_OK/GD32VW55X_Wifi_BLE_SDK/GD32VW55x_RELEASE_V1.0.2/MSDK/wpa_supplicant/src/crypto\sha512-internal.c **** 	md->state[6] = CONST64(0x1f83d9abfb41bd6b);
 523              		.loc 1 174 2 is_stmt 1
 524              		.loc 1 174 15 is_stmt 0
 525 006c B7070000 		lui	a5,%hi(.LC6)
 526 0070 03A70700 		lw	a4,%lo(.LC6)(a5)
 527 0074 83A74700 		lw	a5,%lo(.LC6+4)(a5)
 528 0078 18DD     		sw	a4,56(a0)
 529 007a 5CDD     		sw	a5,60(a0)
 175:C:/Users/stapi/OneDrive/Desktop/GD32VW553/V1_MQTT_OK/GD32VW55X_Wifi_BLE_SDK/GD32VW55x_RELEASE_V1.0.2/MSDK/wpa_supplicant/src/crypto\sha512-internal.c **** 	md->state[7] = CONST64(0x5be0cd19137e2179);
 530              		.loc 1 175 2 is_stmt 1
 531              		.loc 1 175 15 is_stmt 0
 532 007c B7070000 		lui	a5,%hi(.LC7)
 533 0080 03A70700 		lw	a4,%lo(.LC7)(a5)
 534 0084 83A74700 		lw	a5,%lo(.LC7+4)(a5)
 535 0088 38C1     		sw	a4,64(a0)
 536 008a 7CC1     		sw	a5,68(a0)
 176:C:/Users/stapi/OneDrive/Desktop/GD32VW553/V1_MQTT_OK/GD32VW55X_Wifi_BLE_SDK/GD32VW55x_RELEASE_V1.0.2/MSDK/wpa_supplicant/src/crypto\sha512-internal.c **** }
 537              		.loc 1 176 1
 538 008c 8280     		ret
 539              		.cfi_endproc
 540              	.LFE73:
 542              		.section	.text.sha512_process,"ax",@progbits
 543              		.align	1
 544              		.globl	sha512_process
 546              	sha512_process:
 547              	.LFB74:
 177:C:/Users/stapi/OneDrive/Desktop/GD32VW553/V1_MQTT_OK/GD32VW55X_Wifi_BLE_SDK/GD32VW55x_RELEASE_V1.0.2/MSDK/wpa_supplicant/src/crypto\sha512-internal.c **** 
 178:C:/Users/stapi/OneDrive/Desktop/GD32VW553/V1_MQTT_OK/GD32VW55X_Wifi_BLE_SDK/GD32VW55x_RELEASE_V1.0.2/MSDK/wpa_supplicant/src/crypto\sha512-internal.c **** 
 179:C:/Users/stapi/OneDrive/Desktop/GD32VW553/V1_MQTT_OK/GD32VW55X_Wifi_BLE_SDK/GD32VW55x_RELEASE_V1.0.2/MSDK/wpa_supplicant/src/crypto\sha512-internal.c **** /**
 180:C:/Users/stapi/OneDrive/Desktop/GD32VW553/V1_MQTT_OK/GD32VW55X_Wifi_BLE_SDK/GD32VW55x_RELEASE_V1.0.2/MSDK/wpa_supplicant/src/crypto\sha512-internal.c ****    Process a block of memory though the hash
 181:C:/Users/stapi/OneDrive/Desktop/GD32VW553/V1_MQTT_OK/GD32VW55X_Wifi_BLE_SDK/GD32VW55x_RELEASE_V1.0.2/MSDK/wpa_supplicant/src/crypto\sha512-internal.c ****    @param md     The hash state
 182:C:/Users/stapi/OneDrive/Desktop/GD32VW553/V1_MQTT_OK/GD32VW55X_Wifi_BLE_SDK/GD32VW55x_RELEASE_V1.0.2/MSDK/wpa_supplicant/src/crypto\sha512-internal.c ****    @param in     The data to hash
 183:C:/Users/stapi/OneDrive/Desktop/GD32VW553/V1_MQTT_OK/GD32VW55X_Wifi_BLE_SDK/GD32VW55x_RELEASE_V1.0.2/MSDK/wpa_supplicant/src/crypto\sha512-internal.c ****    @param inlen  The length of the data (octets)
 184:C:/Users/stapi/OneDrive/Desktop/GD32VW553/V1_MQTT_OK/GD32VW55X_Wifi_BLE_SDK/GD32VW55x_RELEASE_V1.0.2/MSDK/wpa_supplicant/src/crypto\sha512-internal.c ****    @return CRYPT_OK if successful
 185:C:/Users/stapi/OneDrive/Desktop/GD32VW553/V1_MQTT_OK/GD32VW55X_Wifi_BLE_SDK/GD32VW55x_RELEASE_V1.0.2/MSDK/wpa_supplicant/src/crypto\sha512-internal.c **** */
 186:C:/Users/stapi/OneDrive/Desktop/GD32VW553/V1_MQTT_OK/GD32VW55X_Wifi_BLE_SDK/GD32VW55x_RELEASE_V1.0.2/MSDK/wpa_supplicant/src/crypto\sha512-internal.c **** int sha512_process(struct sha512_state *md, const unsigned char *in,
 187:C:/Users/stapi/OneDrive/Desktop/GD32VW553/V1_MQTT_OK/GD32VW55X_Wifi_BLE_SDK/GD32VW55x_RELEASE_V1.0.2/MSDK/wpa_supplicant/src/crypto\sha512-internal.c **** 		   unsigned long inlen)
 188:C:/Users/stapi/OneDrive/Desktop/GD32VW553/V1_MQTT_OK/GD32VW55X_Wifi_BLE_SDK/GD32VW55x_RELEASE_V1.0.2/MSDK/wpa_supplicant/src/crypto\sha512-internal.c **** {
 548              		.loc 1 188 1 is_stmt 1
 549              		.cfi_startproc
 550              	.LVL29:
 189:C:/Users/stapi/OneDrive/Desktop/GD32VW553/V1_MQTT_OK/GD32VW55X_Wifi_BLE_SDK/GD32VW55x_RELEASE_V1.0.2/MSDK/wpa_supplicant/src/crypto\sha512-internal.c **** 	unsigned long n;
 551              		.loc 1 189 2
 190:C:/Users/stapi/OneDrive/Desktop/GD32VW553/V1_MQTT_OK/GD32VW55X_Wifi_BLE_SDK/GD32VW55x_RELEASE_V1.0.2/MSDK/wpa_supplicant/src/crypto\sha512-internal.c **** 
 191:C:/Users/stapi/OneDrive/Desktop/GD32VW553/V1_MQTT_OK/GD32VW55X_Wifi_BLE_SDK/GD32VW55x_RELEASE_V1.0.2/MSDK/wpa_supplicant/src/crypto\sha512-internal.c **** 	if (md->curlen >= sizeof(md->buf))
 552              		.loc 1 191 2
 553              		.loc 1 191 5 is_stmt 0
 554 0000 3845     		lw	a4,72(a0)
 555 0002 9307F007 		li	a5,127
 556 0006 63E8E70A 		bgtu	a4,a5,.L23
 188:C:/Users/stapi/OneDrive/Desktop/GD32VW553/V1_MQTT_OK/GD32VW55X_Wifi_BLE_SDK/GD32VW55x_RELEASE_V1.0.2/MSDK/wpa_supplicant/src/crypto\sha512-internal.c **** 	unsigned long n;
 557              		.loc 1 188 1
 558 000a 17030000 		call	t0,__riscv_save_7
 558      E7020300 
 559              		.cfi_offset 22, -32
 560              		.cfi_offset 21, -28
 561              		.cfi_offset 20, -24
 562              		.cfi_offset 19, -20
 563              		.cfi_offset 18, -16
 564              		.cfi_offset 9, -12
 565              		.cfi_offset 8, -8
 566              		.cfi_offset 1, -4
 567              		.cfi_def_cfa_offset 32
 568 0012 2A84     		mv	s0,a0
 569 0014 2E89     		mv	s2,a1
 570 0016 B284     		mv	s1,a2
 571              	.LBB6:
 572              	.LBB7:
 192:C:/Users/stapi/OneDrive/Desktop/GD32VW553/V1_MQTT_OK/GD32VW55X_Wifi_BLE_SDK/GD32VW55x_RELEASE_V1.0.2/MSDK/wpa_supplicant/src/crypto\sha512-internal.c **** 		return -1;
 193:C:/Users/stapi/OneDrive/Desktop/GD32VW553/V1_MQTT_OK/GD32VW55X_Wifi_BLE_SDK/GD32VW55x_RELEASE_V1.0.2/MSDK/wpa_supplicant/src/crypto\sha512-internal.c **** 
 194:C:/Users/stapi/OneDrive/Desktop/GD32VW553/V1_MQTT_OK/GD32VW55X_Wifi_BLE_SDK/GD32VW55x_RELEASE_V1.0.2/MSDK/wpa_supplicant/src/crypto\sha512-internal.c **** 	while (inlen > 0) {
 195:C:/Users/stapi/OneDrive/Desktop/GD32VW553/V1_MQTT_OK/GD32VW55X_Wifi_BLE_SDK/GD32VW55x_RELEASE_V1.0.2/MSDK/wpa_supplicant/src/crypto\sha512-internal.c **** 		if (md->curlen == 0 && inlen >= SHA512_BLOCK_SIZE) {
 196:C:/Users/stapi/OneDrive/Desktop/GD32VW553/V1_MQTT_OK/GD32VW55X_Wifi_BLE_SDK/GD32VW55x_RELEASE_V1.0.2/MSDK/wpa_supplicant/src/crypto\sha512-internal.c **** 			if (sha512_compress(md, (unsigned char *) in) < 0)
 197:C:/Users/stapi/OneDrive/Desktop/GD32VW553/V1_MQTT_OK/GD32VW55X_Wifi_BLE_SDK/GD32VW55x_RELEASE_V1.0.2/MSDK/wpa_supplicant/src/crypto\sha512-internal.c **** 				return -1;
 198:C:/Users/stapi/OneDrive/Desktop/GD32VW553/V1_MQTT_OK/GD32VW55X_Wifi_BLE_SDK/GD32VW55x_RELEASE_V1.0.2/MSDK/wpa_supplicant/src/crypto\sha512-internal.c **** 			md->length += SHA512_BLOCK_SIZE * 8;
 199:C:/Users/stapi/OneDrive/Desktop/GD32VW553/V1_MQTT_OK/GD32VW55X_Wifi_BLE_SDK/GD32VW55x_RELEASE_V1.0.2/MSDK/wpa_supplicant/src/crypto\sha512-internal.c **** 			in += SHA512_BLOCK_SIZE;
 200:C:/Users/stapi/OneDrive/Desktop/GD32VW553/V1_MQTT_OK/GD32VW55X_Wifi_BLE_SDK/GD32VW55x_RELEASE_V1.0.2/MSDK/wpa_supplicant/src/crypto\sha512-internal.c **** 			inlen -= SHA512_BLOCK_SIZE;
 201:C:/Users/stapi/OneDrive/Desktop/GD32VW553/V1_MQTT_OK/GD32VW55X_Wifi_BLE_SDK/GD32VW55x_RELEASE_V1.0.2/MSDK/wpa_supplicant/src/crypto\sha512-internal.c **** 		} else {
 202:C:/Users/stapi/OneDrive/Desktop/GD32VW553/V1_MQTT_OK/GD32VW55X_Wifi_BLE_SDK/GD32VW55x_RELEASE_V1.0.2/MSDK/wpa_supplicant/src/crypto\sha512-internal.c **** 			n = MIN(inlen, (SHA512_BLOCK_SIZE - md->curlen));
 573              		.loc 1 202 8
 574 0018 130A0008 		li	s4,128
 203:C:/Users/stapi/OneDrive/Desktop/GD32VW553/V1_MQTT_OK/GD32VW55X_Wifi_BLE_SDK/GD32VW55x_RELEASE_V1.0.2/MSDK/wpa_supplicant/src/crypto\sha512-internal.c **** 			os_memcpy(md->buf + md->curlen, in, n);
 575              		.loc 1 203 14
 576 001c 930AC504 		addi	s5,a0,76
 195:C:/Users/stapi/OneDrive/Desktop/GD32VW553/V1_MQTT_OK/GD32VW55X_Wifi_BLE_SDK/GD32VW55x_RELEASE_V1.0.2/MSDK/wpa_supplicant/src/crypto\sha512-internal.c **** 			if (sha512_compress(md, (unsigned char *) in) < 0)
 577              		.loc 1 195 23
 578 0020 130BF007 		li	s6,127
 579              	.LVL30:
 580              	.L15:
 194:C:/Users/stapi/OneDrive/Desktop/GD32VW553/V1_MQTT_OK/GD32VW55X_Wifi_BLE_SDK/GD32VW55x_RELEASE_V1.0.2/MSDK/wpa_supplicant/src/crypto\sha512-internal.c **** 		if (md->curlen == 0 && inlen >= SHA512_BLOCK_SIZE) {
 581              		.loc 1 194 8 is_stmt 1
 582 0024 81E8     		bne	s1,zero,.L20
 204:C:/Users/stapi/OneDrive/Desktop/GD32VW553/V1_MQTT_OK/GD32VW55X_Wifi_BLE_SDK/GD32VW55x_RELEASE_V1.0.2/MSDK/wpa_supplicant/src/crypto\sha512-internal.c **** 			md->curlen += n;
 205:C:/Users/stapi/OneDrive/Desktop/GD32VW553/V1_MQTT_OK/GD32VW55X_Wifi_BLE_SDK/GD32VW55x_RELEASE_V1.0.2/MSDK/wpa_supplicant/src/crypto\sha512-internal.c **** 			in += n;
 206:C:/Users/stapi/OneDrive/Desktop/GD32VW553/V1_MQTT_OK/GD32VW55X_Wifi_BLE_SDK/GD32VW55x_RELEASE_V1.0.2/MSDK/wpa_supplicant/src/crypto\sha512-internal.c **** 			inlen -= n;
 207:C:/Users/stapi/OneDrive/Desktop/GD32VW553/V1_MQTT_OK/GD32VW55X_Wifi_BLE_SDK/GD32VW55x_RELEASE_V1.0.2/MSDK/wpa_supplicant/src/crypto\sha512-internal.c **** 			if (md->curlen == SHA512_BLOCK_SIZE) {
 208:C:/Users/stapi/OneDrive/Desktop/GD32VW553/V1_MQTT_OK/GD32VW55X_Wifi_BLE_SDK/GD32VW55x_RELEASE_V1.0.2/MSDK/wpa_supplicant/src/crypto\sha512-internal.c **** 				if (sha512_compress(md, md->buf) < 0)
 209:C:/Users/stapi/OneDrive/Desktop/GD32VW553/V1_MQTT_OK/GD32VW55X_Wifi_BLE_SDK/GD32VW55x_RELEASE_V1.0.2/MSDK/wpa_supplicant/src/crypto\sha512-internal.c **** 					return -1;
 210:C:/Users/stapi/OneDrive/Desktop/GD32VW553/V1_MQTT_OK/GD32VW55X_Wifi_BLE_SDK/GD32VW55x_RELEASE_V1.0.2/MSDK/wpa_supplicant/src/crypto\sha512-internal.c **** 				md->length += 8 * SHA512_BLOCK_SIZE;
 211:C:/Users/stapi/OneDrive/Desktop/GD32VW553/V1_MQTT_OK/GD32VW55X_Wifi_BLE_SDK/GD32VW55x_RELEASE_V1.0.2/MSDK/wpa_supplicant/src/crypto\sha512-internal.c **** 				md->curlen = 0;
 212:C:/Users/stapi/OneDrive/Desktop/GD32VW553/V1_MQTT_OK/GD32VW55X_Wifi_BLE_SDK/GD32VW55x_RELEASE_V1.0.2/MSDK/wpa_supplicant/src/crypto\sha512-internal.c **** 			}
 213:C:/Users/stapi/OneDrive/Desktop/GD32VW553/V1_MQTT_OK/GD32VW55X_Wifi_BLE_SDK/GD32VW55x_RELEASE_V1.0.2/MSDK/wpa_supplicant/src/crypto\sha512-internal.c **** 		}
 214:C:/Users/stapi/OneDrive/Desktop/GD32VW553/V1_MQTT_OK/GD32VW55X_Wifi_BLE_SDK/GD32VW55x_RELEASE_V1.0.2/MSDK/wpa_supplicant/src/crypto\sha512-internal.c **** 	}
 215:C:/Users/stapi/OneDrive/Desktop/GD32VW553/V1_MQTT_OK/GD32VW55X_Wifi_BLE_SDK/GD32VW55x_RELEASE_V1.0.2/MSDK/wpa_supplicant/src/crypto\sha512-internal.c **** 
 216:C:/Users/stapi/OneDrive/Desktop/GD32VW553/V1_MQTT_OK/GD32VW55X_Wifi_BLE_SDK/GD32VW55x_RELEASE_V1.0.2/MSDK/wpa_supplicant/src/crypto\sha512-internal.c **** 	return 0;
 583              		.loc 1 216 9 is_stmt 0
 584 0026 0145     		li	a0,0
 585              	.LVL31:
 586 0028 11A0     		j	.L14
 587              	.LVL32:
 588              	.L18:
 589              	.LBE7:
 590              	.LBE6:
 192:C:/Users/stapi/OneDrive/Desktop/GD32VW553/V1_MQTT_OK/GD32VW55X_Wifi_BLE_SDK/GD32VW55x_RELEASE_V1.0.2/MSDK/wpa_supplicant/src/crypto\sha512-internal.c **** 
 591              		.loc 1 192 10
 592 002a 7D55     		li	a0,-1
 593              	.LVL33:
 594              	.L14:
 217:C:/Users/stapi/OneDrive/Desktop/GD32VW553/V1_MQTT_OK/GD32VW55X_Wifi_BLE_SDK/GD32VW55x_RELEASE_V1.0.2/MSDK/wpa_supplicant/src/crypto\sha512-internal.c **** }
 595              		.loc 1 217 1
 596 002c 17030000 		tail	__riscv_restore_7
 596      67000300 
 597              		.cfi_remember_state
 598              		.cfi_restore 22
 599              		.cfi_restore 21
 600              		.cfi_restore 20
 601              		.cfi_restore 19
 602              		.cfi_restore 18
 603              		.cfi_restore 9
 604              		.cfi_restore 8
 605              		.cfi_restore 1
 606              		.cfi_def_cfa_offset 0
 607              	.LVL34:
 608              	.L20:
 609              		.cfi_restore_state
 610              	.LBB9:
 611              	.LBB8:
 195:C:/Users/stapi/OneDrive/Desktop/GD32VW553/V1_MQTT_OK/GD32VW55X_Wifi_BLE_SDK/GD32VW55x_RELEASE_V1.0.2/MSDK/wpa_supplicant/src/crypto\sha512-internal.c **** 			if (sha512_compress(md, (unsigned char *) in) < 0)
 612              		.loc 1 195 3 is_stmt 1
 195:C:/Users/stapi/OneDrive/Desktop/GD32VW553/V1_MQTT_OK/GD32VW55X_Wifi_BLE_SDK/GD32VW55x_RELEASE_V1.0.2/MSDK/wpa_supplicant/src/crypto\sha512-internal.c **** 			if (sha512_compress(md, (unsigned char *) in) < 0)
 613              		.loc 1 195 9 is_stmt 0
 614 0034 2844     		lw	a0,72(s0)
 195:C:/Users/stapi/OneDrive/Desktop/GD32VW553/V1_MQTT_OK/GD32VW55X_Wifi_BLE_SDK/GD32VW55x_RELEASE_V1.0.2/MSDK/wpa_supplicant/src/crypto\sha512-internal.c **** 			if (sha512_compress(md, (unsigned char *) in) < 0)
 615              		.loc 1 195 6
 616 0036 0DE9     		bne	a0,zero,.L17
 195:C:/Users/stapi/OneDrive/Desktop/GD32VW553/V1_MQTT_OK/GD32VW55X_Wifi_BLE_SDK/GD32VW55x_RELEASE_V1.0.2/MSDK/wpa_supplicant/src/crypto\sha512-internal.c **** 			if (sha512_compress(md, (unsigned char *) in) < 0)
 617              		.loc 1 195 23
 618 0038 63789B02 		bleu	s1,s6,.L17
 196:C:/Users/stapi/OneDrive/Desktop/GD32VW553/V1_MQTT_OK/GD32VW55X_Wifi_BLE_SDK/GD32VW55x_RELEASE_V1.0.2/MSDK/wpa_supplicant/src/crypto\sha512-internal.c **** 				return -1;
 619              		.loc 1 196 4 is_stmt 1
 196:C:/Users/stapi/OneDrive/Desktop/GD32VW553/V1_MQTT_OK/GD32VW55X_Wifi_BLE_SDK/GD32VW55x_RELEASE_V1.0.2/MSDK/wpa_supplicant/src/crypto\sha512-internal.c **** 				return -1;
 620              		.loc 1 196 8 is_stmt 0
 621 003c CA85     		mv	a1,s2
 622 003e 2285     		mv	a0,s0
 623 0040 97000000 		call	sha512_compress
 623      E7800000 
 624              	.LVL35:
 196:C:/Users/stapi/OneDrive/Desktop/GD32VW553/V1_MQTT_OK/GD32VW55X_Wifi_BLE_SDK/GD32VW55x_RELEASE_V1.0.2/MSDK/wpa_supplicant/src/crypto\sha512-internal.c **** 				return -1;
 625              		.loc 1 196 7
 626 0048 E34105FE 		blt	a0,zero,.L18
 198:C:/Users/stapi/OneDrive/Desktop/GD32VW553/V1_MQTT_OK/GD32VW55X_Wifi_BLE_SDK/GD32VW55x_RELEASE_V1.0.2/MSDK/wpa_supplicant/src/crypto\sha512-internal.c **** 			in += SHA512_BLOCK_SIZE;
 627              		.loc 1 198 4 is_stmt 1
 198:C:/Users/stapi/OneDrive/Desktop/GD32VW553/V1_MQTT_OK/GD32VW55X_Wifi_BLE_SDK/GD32VW55x_RELEASE_V1.0.2/MSDK/wpa_supplicant/src/crypto\sha512-internal.c **** 			in += SHA512_BLOCK_SIZE;
 628              		.loc 1 198 15 is_stmt 0
 629 004c 1C40     		lw	a5,0(s0)
 630 004e 5440     		lw	a3,4(s0)
 199:C:/Users/stapi/OneDrive/Desktop/GD32VW553/V1_MQTT_OK/GD32VW55X_Wifi_BLE_SDK/GD32VW55x_RELEASE_V1.0.2/MSDK/wpa_supplicant/src/crypto\sha512-internal.c **** 			inlen -= SHA512_BLOCK_SIZE;
 631              		.loc 1 199 7
 632 0050 13090908 		addi	s2,s2,128
 633              	.LVL36:
 198:C:/Users/stapi/OneDrive/Desktop/GD32VW553/V1_MQTT_OK/GD32VW55X_Wifi_BLE_SDK/GD32VW55x_RELEASE_V1.0.2/MSDK/wpa_supplicant/src/crypto\sha512-internal.c **** 			in += SHA512_BLOCK_SIZE;
 634              		.loc 1 198 15
 635 0054 13870740 		addi	a4,a5,1024
 636 0058 B337F700 		sltu	a5,a4,a5
 637 005c B697     		add	a5,a5,a3
 638 005e 18C0     		sw	a4,0(s0)
 639 0060 5CC0     		sw	a5,4(s0)
 199:C:/Users/stapi/OneDrive/Desktop/GD32VW553/V1_MQTT_OK/GD32VW55X_Wifi_BLE_SDK/GD32VW55x_RELEASE_V1.0.2/MSDK/wpa_supplicant/src/crypto\sha512-internal.c **** 			inlen -= SHA512_BLOCK_SIZE;
 640              		.loc 1 199 4 is_stmt 1
 641              	.LVL37:
 200:C:/Users/stapi/OneDrive/Desktop/GD32VW553/V1_MQTT_OK/GD32VW55X_Wifi_BLE_SDK/GD32VW55x_RELEASE_V1.0.2/MSDK/wpa_supplicant/src/crypto\sha512-internal.c **** 		} else {
 642              		.loc 1 200 4
 200:C:/Users/stapi/OneDrive/Desktop/GD32VW553/V1_MQTT_OK/GD32VW55X_Wifi_BLE_SDK/GD32VW55x_RELEASE_V1.0.2/MSDK/wpa_supplicant/src/crypto\sha512-internal.c **** 		} else {
 643              		.loc 1 200 10 is_stmt 0
 644 0062 938404F8 		addi	s1,s1,-128
 645              	.LVL38:
 646 0066 7DBF     		j	.L15
 647              	.L17:
 202:C:/Users/stapi/OneDrive/Desktop/GD32VW553/V1_MQTT_OK/GD32VW55X_Wifi_BLE_SDK/GD32VW55x_RELEASE_V1.0.2/MSDK/wpa_supplicant/src/crypto\sha512-internal.c **** 			os_memcpy(md->buf + md->curlen, in, n);
 648              		.loc 1 202 4 is_stmt 1
 202:C:/Users/stapi/OneDrive/Desktop/GD32VW553/V1_MQTT_OK/GD32VW55X_Wifi_BLE_SDK/GD32VW55x_RELEASE_V1.0.2/MSDK/wpa_supplicant/src/crypto\sha512-internal.c **** 			os_memcpy(md->buf + md->curlen, in, n);
 649              		.loc 1 202 8 is_stmt 0
 650 0068 B309AA40 		sub	s3,s4,a0
 202:C:/Users/stapi/OneDrive/Desktop/GD32VW553/V1_MQTT_OK/GD32VW55X_Wifi_BLE_SDK/GD32VW55x_RELEASE_V1.0.2/MSDK/wpa_supplicant/src/crypto\sha512-internal.c **** 			os_memcpy(md->buf + md->curlen, in, n);
 651              		.loc 1 202 6
 652 006c B3D9990A 		minu	s3,s3,s1
 653              	.LVL39:
 203:C:/Users/stapi/OneDrive/Desktop/GD32VW553/V1_MQTT_OK/GD32VW55X_Wifi_BLE_SDK/GD32VW55x_RELEASE_V1.0.2/MSDK/wpa_supplicant/src/crypto\sha512-internal.c **** 			md->curlen += n;
 654              		.loc 1 203 4 is_stmt 1
 655 0070 CA85     		mv	a1,s2
 656 0072 4E86     		mv	a2,s3
 657 0074 5695     		add	a0,s5,a0
 658 0076 97000000 		call	os_memcpy
 658      E7800000 
 659              	.LVL40:
 204:C:/Users/stapi/OneDrive/Desktop/GD32VW553/V1_MQTT_OK/GD32VW55X_Wifi_BLE_SDK/GD32VW55x_RELEASE_V1.0.2/MSDK/wpa_supplicant/src/crypto\sha512-internal.c **** 			in += n;
 660              		.loc 1 204 4
 204:C:/Users/stapi/OneDrive/Desktop/GD32VW553/V1_MQTT_OK/GD32VW55X_Wifi_BLE_SDK/GD32VW55x_RELEASE_V1.0.2/MSDK/wpa_supplicant/src/crypto\sha512-internal.c **** 			in += n;
 661              		.loc 1 204 15 is_stmt 0
 662 007e 3C44     		lw	a5,72(s0)
 205:C:/Users/stapi/OneDrive/Desktop/GD32VW553/V1_MQTT_OK/GD32VW55X_Wifi_BLE_SDK/GD32VW55x_RELEASE_V1.0.2/MSDK/wpa_supplicant/src/crypto\sha512-internal.c **** 			inlen -= n;
 663              		.loc 1 205 7
 664 0080 4E99     		add	s2,s2,s3
 665              	.LVL41:
 206:C:/Users/stapi/OneDrive/Desktop/GD32VW553/V1_MQTT_OK/GD32VW55X_Wifi_BLE_SDK/GD32VW55x_RELEASE_V1.0.2/MSDK/wpa_supplicant/src/crypto\sha512-internal.c **** 			if (md->curlen == SHA512_BLOCK_SIZE) {
 666              		.loc 1 206 10
 667 0082 B3843441 		sub	s1,s1,s3
 668              	.LVL42:
 204:C:/Users/stapi/OneDrive/Desktop/GD32VW553/V1_MQTT_OK/GD32VW55X_Wifi_BLE_SDK/GD32VW55x_RELEASE_V1.0.2/MSDK/wpa_supplicant/src/crypto\sha512-internal.c **** 			in += n;
 669              		.loc 1 204 15
 670 0086 CE97     		add	a5,s3,a5
 671 0088 3CC4     		sw	a5,72(s0)
 205:C:/Users/stapi/OneDrive/Desktop/GD32VW553/V1_MQTT_OK/GD32VW55X_Wifi_BLE_SDK/GD32VW55x_RELEASE_V1.0.2/MSDK/wpa_supplicant/src/crypto\sha512-internal.c **** 			inlen -= n;
 672              		.loc 1 205 4 is_stmt 1
 673              	.LVL43:
 206:C:/Users/stapi/OneDrive/Desktop/GD32VW553/V1_MQTT_OK/GD32VW55X_Wifi_BLE_SDK/GD32VW55x_RELEASE_V1.0.2/MSDK/wpa_supplicant/src/crypto\sha512-internal.c **** 			if (md->curlen == SHA512_BLOCK_SIZE) {
 674              		.loc 1 206 4
 207:C:/Users/stapi/OneDrive/Desktop/GD32VW553/V1_MQTT_OK/GD32VW55X_Wifi_BLE_SDK/GD32VW55x_RELEASE_V1.0.2/MSDK/wpa_supplicant/src/crypto\sha512-internal.c **** 				if (sha512_compress(md, md->buf) < 0)
 675              		.loc 1 207 4
 207:C:/Users/stapi/OneDrive/Desktop/GD32VW553/V1_MQTT_OK/GD32VW55X_Wifi_BLE_SDK/GD32VW55x_RELEASE_V1.0.2/MSDK/wpa_supplicant/src/crypto\sha512-internal.c **** 				if (sha512_compress(md, md->buf) < 0)
 676              		.loc 1 207 7 is_stmt 0
 677 008a E39D47F9 		bne	a5,s4,.L15
 208:C:/Users/stapi/OneDrive/Desktop/GD32VW553/V1_MQTT_OK/GD32VW55X_Wifi_BLE_SDK/GD32VW55x_RELEASE_V1.0.2/MSDK/wpa_supplicant/src/crypto\sha512-internal.c **** 					return -1;
 678              		.loc 1 208 5 is_stmt 1
 208:C:/Users/stapi/OneDrive/Desktop/GD32VW553/V1_MQTT_OK/GD32VW55X_Wifi_BLE_SDK/GD32VW55x_RELEASE_V1.0.2/MSDK/wpa_supplicant/src/crypto\sha512-internal.c **** 					return -1;
 679              		.loc 1 208 9 is_stmt 0
 680 008e D685     		mv	a1,s5
 681 0090 2285     		mv	a0,s0
 682 0092 97000000 		call	sha512_compress
 682      E7800000 
 683              	.LVL44:
 208:C:/Users/stapi/OneDrive/Desktop/GD32VW553/V1_MQTT_OK/GD32VW55X_Wifi_BLE_SDK/GD32VW55x_RELEASE_V1.0.2/MSDK/wpa_supplicant/src/crypto\sha512-internal.c **** 					return -1;
 684              		.loc 1 208 8
 685 009a E34805F8 		blt	a0,zero,.L18
 210:C:/Users/stapi/OneDrive/Desktop/GD32VW553/V1_MQTT_OK/GD32VW55X_Wifi_BLE_SDK/GD32VW55x_RELEASE_V1.0.2/MSDK/wpa_supplicant/src/crypto\sha512-internal.c **** 				md->curlen = 0;
 686              		.loc 1 210 5 is_stmt 1
 210:C:/Users/stapi/OneDrive/Desktop/GD32VW553/V1_MQTT_OK/GD32VW55X_Wifi_BLE_SDK/GD32VW55x_RELEASE_V1.0.2/MSDK/wpa_supplicant/src/crypto\sha512-internal.c **** 				md->curlen = 0;
 687              		.loc 1 210 16 is_stmt 0
 688 009e 1C40     		lw	a5,0(s0)
 689 00a0 5440     		lw	a3,4(s0)
 211:C:/Users/stapi/OneDrive/Desktop/GD32VW553/V1_MQTT_OK/GD32VW55X_Wifi_BLE_SDK/GD32VW55x_RELEASE_V1.0.2/MSDK/wpa_supplicant/src/crypto\sha512-internal.c **** 			}
 690              		.loc 1 211 16
 691 00a2 23240404 		sw	zero,72(s0)
 210:C:/Users/stapi/OneDrive/Desktop/GD32VW553/V1_MQTT_OK/GD32VW55X_Wifi_BLE_SDK/GD32VW55x_RELEASE_V1.0.2/MSDK/wpa_supplicant/src/crypto\sha512-internal.c **** 				md->curlen = 0;
 692              		.loc 1 210 16
 693 00a6 13870740 		addi	a4,a5,1024
 694 00aa B337F700 		sltu	a5,a4,a5
 695 00ae B697     		add	a5,a5,a3
 696 00b0 18C0     		sw	a4,0(s0)
 697 00b2 5CC0     		sw	a5,4(s0)
 211:C:/Users/stapi/OneDrive/Desktop/GD32VW553/V1_MQTT_OK/GD32VW55X_Wifi_BLE_SDK/GD32VW55x_RELEASE_V1.0.2/MSDK/wpa_supplicant/src/crypto\sha512-internal.c **** 			}
 698              		.loc 1 211 5 is_stmt 1
 699 00b4 85BF     		j	.L15
 700              	.LVL45:
 701              	.L23:
 702              		.cfi_def_cfa_offset 0
 703              		.cfi_restore 1
 704              		.cfi_restore 8
 705              		.cfi_restore 9
 706              		.cfi_restore 18
 707              		.cfi_restore 19
 708              		.cfi_restore 20
 709              		.cfi_restore 21
 710              		.cfi_restore 22
 711              	.LBE8:
 712              	.LBE9:
 192:C:/Users/stapi/OneDrive/Desktop/GD32VW553/V1_MQTT_OK/GD32VW55X_Wifi_BLE_SDK/GD32VW55x_RELEASE_V1.0.2/MSDK/wpa_supplicant/src/crypto\sha512-internal.c **** 
 713              		.loc 1 192 10 is_stmt 0
 714 00b6 7D55     		li	a0,-1
 715              	.LVL46:
 716              		.loc 1 217 1
 717 00b8 8280     		ret
 718              		.cfi_endproc
 719              	.LFE74:
 721              		.section	.text.sha512_done,"ax",@progbits
 722              		.align	1
 723              		.globl	sha512_done
 725              	sha512_done:
 726              	.LFB75:
 218:C:/Users/stapi/OneDrive/Desktop/GD32VW553/V1_MQTT_OK/GD32VW55X_Wifi_BLE_SDK/GD32VW55x_RELEASE_V1.0.2/MSDK/wpa_supplicant/src/crypto\sha512-internal.c **** 
 219:C:/Users/stapi/OneDrive/Desktop/GD32VW553/V1_MQTT_OK/GD32VW55X_Wifi_BLE_SDK/GD32VW55x_RELEASE_V1.0.2/MSDK/wpa_supplicant/src/crypto\sha512-internal.c **** 
 220:C:/Users/stapi/OneDrive/Desktop/GD32VW553/V1_MQTT_OK/GD32VW55X_Wifi_BLE_SDK/GD32VW55x_RELEASE_V1.0.2/MSDK/wpa_supplicant/src/crypto\sha512-internal.c **** /**
 221:C:/Users/stapi/OneDrive/Desktop/GD32VW553/V1_MQTT_OK/GD32VW55X_Wifi_BLE_SDK/GD32VW55x_RELEASE_V1.0.2/MSDK/wpa_supplicant/src/crypto\sha512-internal.c ****    Terminate the hash to get the digest
 222:C:/Users/stapi/OneDrive/Desktop/GD32VW553/V1_MQTT_OK/GD32VW55X_Wifi_BLE_SDK/GD32VW55x_RELEASE_V1.0.2/MSDK/wpa_supplicant/src/crypto\sha512-internal.c ****    @param md  The hash state
 223:C:/Users/stapi/OneDrive/Desktop/GD32VW553/V1_MQTT_OK/GD32VW55X_Wifi_BLE_SDK/GD32VW55x_RELEASE_V1.0.2/MSDK/wpa_supplicant/src/crypto\sha512-internal.c ****    @param out [out] The destination of the hash (64 bytes)
 224:C:/Users/stapi/OneDrive/Desktop/GD32VW553/V1_MQTT_OK/GD32VW55X_Wifi_BLE_SDK/GD32VW55x_RELEASE_V1.0.2/MSDK/wpa_supplicant/src/crypto\sha512-internal.c ****    @return CRYPT_OK if successful
 225:C:/Users/stapi/OneDrive/Desktop/GD32VW553/V1_MQTT_OK/GD32VW55X_Wifi_BLE_SDK/GD32VW55x_RELEASE_V1.0.2/MSDK/wpa_supplicant/src/crypto\sha512-internal.c **** */
 226:C:/Users/stapi/OneDrive/Desktop/GD32VW553/V1_MQTT_OK/GD32VW55X_Wifi_BLE_SDK/GD32VW55x_RELEASE_V1.0.2/MSDK/wpa_supplicant/src/crypto\sha512-internal.c **** int sha512_done(struct sha512_state *md, unsigned char *out)
 227:C:/Users/stapi/OneDrive/Desktop/GD32VW553/V1_MQTT_OK/GD32VW55X_Wifi_BLE_SDK/GD32VW55x_RELEASE_V1.0.2/MSDK/wpa_supplicant/src/crypto\sha512-internal.c **** {
 727              		.loc 1 227 1 is_stmt 1
 728              		.cfi_startproc
 729              	.LVL47:
 228:C:/Users/stapi/OneDrive/Desktop/GD32VW553/V1_MQTT_OK/GD32VW55X_Wifi_BLE_SDK/GD32VW55x_RELEASE_V1.0.2/MSDK/wpa_supplicant/src/crypto\sha512-internal.c **** 	int i;
 730              		.loc 1 228 2
 229:C:/Users/stapi/OneDrive/Desktop/GD32VW553/V1_MQTT_OK/GD32VW55X_Wifi_BLE_SDK/GD32VW55x_RELEASE_V1.0.2/MSDK/wpa_supplicant/src/crypto\sha512-internal.c **** 
 230:C:/Users/stapi/OneDrive/Desktop/GD32VW553/V1_MQTT_OK/GD32VW55X_Wifi_BLE_SDK/GD32VW55x_RELEASE_V1.0.2/MSDK/wpa_supplicant/src/crypto\sha512-internal.c **** 	if (md->curlen >= sizeof(md->buf))
 731              		.loc 1 230 2
 732              		.loc 1 230 8 is_stmt 0
 733 0000 3C45     		lw	a5,72(a0)
 734              		.loc 1 230 5
 735 0002 1307F007 		li	a4,127
 736 0006 6361F712 		bgtu	a5,a4,.L34
 227:C:/Users/stapi/OneDrive/Desktop/GD32VW553/V1_MQTT_OK/GD32VW55X_Wifi_BLE_SDK/GD32VW55x_RELEASE_V1.0.2/MSDK/wpa_supplicant/src/crypto\sha512-internal.c **** 	int i;
 737              		.loc 1 227 1
 738 000a 17030000 		call	t0,__riscv_save_2
 738      E7020300 
 739              		.cfi_offset 9, -12
 740              		.cfi_offset 8, -8
 741              		.cfi_offset 1, -4
 742              		.cfi_def_cfa_offset 16
 231:C:/Users/stapi/OneDrive/Desktop/GD32VW553/V1_MQTT_OK/GD32VW55X_Wifi_BLE_SDK/GD32VW55x_RELEASE_V1.0.2/MSDK/wpa_supplicant/src/crypto\sha512-internal.c **** 		return -1;
 232:C:/Users/stapi/OneDrive/Desktop/GD32VW553/V1_MQTT_OK/GD32VW55X_Wifi_BLE_SDK/GD32VW55x_RELEASE_V1.0.2/MSDK/wpa_supplicant/src/crypto\sha512-internal.c **** 
 233:C:/Users/stapi/OneDrive/Desktop/GD32VW553/V1_MQTT_OK/GD32VW55X_Wifi_BLE_SDK/GD32VW55x_RELEASE_V1.0.2/MSDK/wpa_supplicant/src/crypto\sha512-internal.c **** 	/* increase the length of the message */
 234:C:/Users/stapi/OneDrive/Desktop/GD32VW553/V1_MQTT_OK/GD32VW55X_Wifi_BLE_SDK/GD32VW55x_RELEASE_V1.0.2/MSDK/wpa_supplicant/src/crypto\sha512-internal.c **** 	md->length += md->curlen * CONST64(8);
 743              		.loc 1 234 13
 744 0012 1841     		lw	a4,0(a0)
 745 0014 5441     		lw	a3,4(a0)
 746 0016 AE84     		mv	s1,a1
 747              		.loc 1 234 2 is_stmt 1
 748              		.loc 1 234 27 is_stmt 0
 749 0018 93D5D701 		srli	a1,a5,29
 750              	.LVL48:
 751              		.loc 1 234 13
 752 001c 33E6E720 		sh3add	a2,a5,a4
 753 0020 AE96     		add	a3,a3,a1
 754 0022 3337E600 		sltu	a4,a2,a4
 755 0026 3697     		add	a4,a4,a3
 756 0028 58C1     		sw	a4,4(a0)
 235:C:/Users/stapi/OneDrive/Desktop/GD32VW553/V1_MQTT_OK/GD32VW55X_Wifi_BLE_SDK/GD32VW55x_RELEASE_V1.0.2/MSDK/wpa_supplicant/src/crypto\sha512-internal.c **** 
 236:C:/Users/stapi/OneDrive/Desktop/GD32VW553/V1_MQTT_OK/GD32VW55X_Wifi_BLE_SDK/GD32VW55x_RELEASE_V1.0.2/MSDK/wpa_supplicant/src/crypto\sha512-internal.c **** 	/* append the '1' bit */
 237:C:/Users/stapi/OneDrive/Desktop/GD32VW553/V1_MQTT_OK/GD32VW55X_Wifi_BLE_SDK/GD32VW55x_RELEASE_V1.0.2/MSDK/wpa_supplicant/src/crypto\sha512-internal.c **** 	md->buf[md->curlen++] = (unsigned char) 0x80;
 757              		.loc 1 237 2 is_stmt 1
 758              		.loc 1 237 20 is_stmt 0
 759 002a 13871700 		addi	a4,a5,1
 234:C:/Users/stapi/OneDrive/Desktop/GD32VW553/V1_MQTT_OK/GD32VW55X_Wifi_BLE_SDK/GD32VW55x_RELEASE_V1.0.2/MSDK/wpa_supplicant/src/crypto\sha512-internal.c **** 
 760              		.loc 1 234 13
 761 002e 10C1     		sw	a2,0(a0)
 762              		.loc 1 237 24
 763 0030 AA97     		add	a5,a0,a5
 764              		.loc 1 237 20
 765 0032 38C5     		sw	a4,72(a0)
 766              		.loc 1 237 24
 767 0034 930600F8 		li	a3,-128
 768 0038 2386D704 		sb	a3,76(a5)
 238:C:/Users/stapi/OneDrive/Desktop/GD32VW553/V1_MQTT_OK/GD32VW55X_Wifi_BLE_SDK/GD32VW55x_RELEASE_V1.0.2/MSDK/wpa_supplicant/src/crypto\sha512-internal.c **** 
 239:C:/Users/stapi/OneDrive/Desktop/GD32VW553/V1_MQTT_OK/GD32VW55X_Wifi_BLE_SDK/GD32VW55x_RELEASE_V1.0.2/MSDK/wpa_supplicant/src/crypto\sha512-internal.c **** 	/* if the length is currently above 112 bytes we append zeros
 240:C:/Users/stapi/OneDrive/Desktop/GD32VW553/V1_MQTT_OK/GD32VW55X_Wifi_BLE_SDK/GD32VW55x_RELEASE_V1.0.2/MSDK/wpa_supplicant/src/crypto\sha512-internal.c **** 	 * then compress.  Then we can fall back to padding zeros and length
 241:C:/Users/stapi/OneDrive/Desktop/GD32VW553/V1_MQTT_OK/GD32VW55X_Wifi_BLE_SDK/GD32VW55x_RELEASE_V1.0.2/MSDK/wpa_supplicant/src/crypto\sha512-internal.c **** 	 * encoding like normal.
 242:C:/Users/stapi/OneDrive/Desktop/GD32VW553/V1_MQTT_OK/GD32VW55X_Wifi_BLE_SDK/GD32VW55x_RELEASE_V1.0.2/MSDK/wpa_supplicant/src/crypto\sha512-internal.c **** 	 */
 243:C:/Users/stapi/OneDrive/Desktop/GD32VW553/V1_MQTT_OK/GD32VW55X_Wifi_BLE_SDK/GD32VW55x_RELEASE_V1.0.2/MSDK/wpa_supplicant/src/crypto\sha512-internal.c **** 	if (md->curlen > 112) {
 769              		.loc 1 243 2 is_stmt 1
 770              		.loc 1 243 5 is_stmt 0
 771 003c 93070007 		li	a5,112
 772 0040 2A84     		mv	s0,a0
 773 0042 63F0E702 		bleu	a4,a5,.L29
 244:C:/Users/stapi/OneDrive/Desktop/GD32VW553/V1_MQTT_OK/GD32VW55X_Wifi_BLE_SDK/GD32VW55x_RELEASE_V1.0.2/MSDK/wpa_supplicant/src/crypto\sha512-internal.c **** 		while (md->curlen < 128) {
 774              		.loc 1 244 9
 775 0046 1307F007 		li	a4,127
 776              	.L28:
 777              		.loc 1 244 9 is_stmt 1
 778              		.loc 1 244 12 is_stmt 0
 779 004a 3C44     		lw	a5,72(s0)
 780              		.loc 1 244 9
 781 004c 6370F70C 		bleu	a5,a4,.L30
 245:C:/Users/stapi/OneDrive/Desktop/GD32VW553/V1_MQTT_OK/GD32VW55X_Wifi_BLE_SDK/GD32VW55x_RELEASE_V1.0.2/MSDK/wpa_supplicant/src/crypto\sha512-internal.c **** 			md->buf[md->curlen++] = (unsigned char) 0;
 246:C:/Users/stapi/OneDrive/Desktop/GD32VW553/V1_MQTT_OK/GD32VW55X_Wifi_BLE_SDK/GD32VW55x_RELEASE_V1.0.2/MSDK/wpa_supplicant/src/crypto\sha512-internal.c **** 		}
 247:C:/Users/stapi/OneDrive/Desktop/GD32VW553/V1_MQTT_OK/GD32VW55X_Wifi_BLE_SDK/GD32VW55x_RELEASE_V1.0.2/MSDK/wpa_supplicant/src/crypto\sha512-internal.c **** 		sha512_compress(md, md->buf);
 782              		.loc 1 247 3 is_stmt 1
 783 0050 9305C404 		addi	a1,s0,76
 784 0054 2285     		mv	a0,s0
 785              	.LVL49:
 786 0056 97000000 		call	sha512_compress
 786      E7800000 
 787              	.LVL50:
 248:C:/Users/stapi/OneDrive/Desktop/GD32VW553/V1_MQTT_OK/GD32VW55X_Wifi_BLE_SDK/GD32VW55x_RELEASE_V1.0.2/MSDK/wpa_supplicant/src/crypto\sha512-internal.c **** 		md->curlen = 0;
 788              		.loc 1 248 3
 789              		.loc 1 248 14 is_stmt 0
 790 005e 23240404 		sw	zero,72(s0)
 791              	.L29:
 249:C:/Users/stapi/OneDrive/Desktop/GD32VW553/V1_MQTT_OK/GD32VW55X_Wifi_BLE_SDK/GD32VW55x_RELEASE_V1.0.2/MSDK/wpa_supplicant/src/crypto\sha512-internal.c **** 	}
 250:C:/Users/stapi/OneDrive/Desktop/GD32VW553/V1_MQTT_OK/GD32VW55X_Wifi_BLE_SDK/GD32VW55x_RELEASE_V1.0.2/MSDK/wpa_supplicant/src/crypto\sha512-internal.c **** 
 251:C:/Users/stapi/OneDrive/Desktop/GD32VW553/V1_MQTT_OK/GD32VW55X_Wifi_BLE_SDK/GD32VW55x_RELEASE_V1.0.2/MSDK/wpa_supplicant/src/crypto\sha512-internal.c **** 	/* pad up to 120 bytes of zeroes
 252:C:/Users/stapi/OneDrive/Desktop/GD32VW553/V1_MQTT_OK/GD32VW55X_Wifi_BLE_SDK/GD32VW55x_RELEASE_V1.0.2/MSDK/wpa_supplicant/src/crypto\sha512-internal.c **** 	 * note: that from 112 to 120 is the 64 MSB of the length.  We assume
 253:C:/Users/stapi/OneDrive/Desktop/GD32VW553/V1_MQTT_OK/GD32VW55X_Wifi_BLE_SDK/GD32VW55x_RELEASE_V1.0.2/MSDK/wpa_supplicant/src/crypto\sha512-internal.c **** 	 * that you won't hash > 2^64 bits of data... :-)
 254:C:/Users/stapi/OneDrive/Desktop/GD32VW553/V1_MQTT_OK/GD32VW55X_Wifi_BLE_SDK/GD32VW55x_RELEASE_V1.0.2/MSDK/wpa_supplicant/src/crypto\sha512-internal.c **** 	 */
 255:C:/Users/stapi/OneDrive/Desktop/GD32VW553/V1_MQTT_OK/GD32VW55X_Wifi_BLE_SDK/GD32VW55x_RELEASE_V1.0.2/MSDK/wpa_supplicant/src/crypto\sha512-internal.c **** 	while (md->curlen < 120) {
 792              		.loc 1 255 8
 793 0062 13077007 		li	a4,119
 794              	.L31:
 795              		.loc 1 255 8 is_stmt 1
 796              		.loc 1 255 11 is_stmt 0
 797 0066 3C44     		lw	a5,72(s0)
 798              		.loc 1 255 8
 799 0068 6379F70A 		bleu	a5,a4,.L32
 256:C:/Users/stapi/OneDrive/Desktop/GD32VW553/V1_MQTT_OK/GD32VW55X_Wifi_BLE_SDK/GD32VW55x_RELEASE_V1.0.2/MSDK/wpa_supplicant/src/crypto\sha512-internal.c **** 		md->buf[md->curlen++] = (unsigned char) 0;
 257:C:/Users/stapi/OneDrive/Desktop/GD32VW553/V1_MQTT_OK/GD32VW55X_Wifi_BLE_SDK/GD32VW55x_RELEASE_V1.0.2/MSDK/wpa_supplicant/src/crypto\sha512-internal.c **** 	}
 258:C:/Users/stapi/OneDrive/Desktop/GD32VW553/V1_MQTT_OK/GD32VW55X_Wifi_BLE_SDK/GD32VW55x_RELEASE_V1.0.2/MSDK/wpa_supplicant/src/crypto\sha512-internal.c **** 
 259:C:/Users/stapi/OneDrive/Desktop/GD32VW553/V1_MQTT_OK/GD32VW55X_Wifi_BLE_SDK/GD32VW55x_RELEASE_V1.0.2/MSDK/wpa_supplicant/src/crypto\sha512-internal.c **** 	/* store length */
 260:C:/Users/stapi/OneDrive/Desktop/GD32VW553/V1_MQTT_OK/GD32VW55X_Wifi_BLE_SDK/GD32VW55x_RELEASE_V1.0.2/MSDK/wpa_supplicant/src/crypto\sha512-internal.c **** 	WPA_PUT_BE64(md->buf + 120, md->length);
 800              		.loc 1 260 2 is_stmt 1
 801 006c 5840     		lw	a4,4(s0)
 802              	.LVL51:
 803 006e 1C40     		lw	a5,0(s0)
 804              	.LVL52:
 805              	.LBB14:
 806              	.LBB15:
 303:..\..\..\..\wpa_supplicant\src\utils/common.h **** 		(((u64) a[2]) << 40) | (((u64) a[3]) << 32) |
 304:..\..\..\..\wpa_supplicant\src\utils/common.h **** 		(((u64) a[4]) << 24) | (((u64) a[5]) << 16) |
 305:..\..\..\..\wpa_supplicant\src\utils/common.h **** 		(((u64) a[6]) << 8) | ((u64) a[7]);
 306:..\..\..\..\wpa_supplicant\src\utils/common.h **** }
 307:..\..\..\..\wpa_supplicant\src\utils/common.h **** 
 308:..\..\..\..\wpa_supplicant\src\utils/common.h **** static inline void WPA_PUT_BE64(u8 *a, u64 val)
 309:..\..\..\..\wpa_supplicant\src\utils/common.h **** {
 310:..\..\..\..\wpa_supplicant\src\utils/common.h **** 	a[0] = val >> 56;
 807              		.loc 2 310 2
 808              	.LBE15:
 809              	.LBE14:
 261:C:/Users/stapi/OneDrive/Desktop/GD32VW553/V1_MQTT_OK/GD32VW55X_Wifi_BLE_SDK/GD32VW55x_RELEASE_V1.0.2/MSDK/wpa_supplicant/src/crypto\sha512-internal.c **** 	sha512_compress(md, md->buf);
 810              		.loc 1 261 2 is_stmt 0
 811 0070 9305C404 		addi	a1,s0,76
 812              	.LBB17:
 813              	.LBB16:
 814              		.loc 2 310 13
 815 0074 93568701 		srli	a3,a4,24
 816              		.loc 2 310 7
 817 0078 2302D40C 		sb	a3,196(s0)
 311:..\..\..\..\wpa_supplicant\src\utils/common.h **** 	a[1] = val >> 48;
 818              		.loc 2 311 2 is_stmt 1
 819              		.loc 2 311 13 is_stmt 0
 820 007c 93560701 		srli	a3,a4,16
 821              		.loc 2 311 7
 822 0080 A302D40C 		sb	a3,197(s0)
 312:..\..\..\..\wpa_supplicant\src\utils/common.h **** 	a[2] = val >> 40;
 823              		.loc 2 312 2 is_stmt 1
 313:..\..\..\..\wpa_supplicant\src\utils/common.h **** 	a[3] = val >> 32;
 824              		.loc 2 313 7 is_stmt 0
 825 0084 A303E40C 		sb	a4,199(s0)
 312:..\..\..\..\wpa_supplicant\src\utils/common.h **** 	a[2] = val >> 40;
 826              		.loc 2 312 13
 827 0088 93568700 		srli	a3,a4,8
 314:..\..\..\..\wpa_supplicant\src\utils/common.h **** 	a[4] = val >> 24;
 828              		.loc 2 314 13
 829 008c 13D78701 		srli	a4,a5,24
 830              	.LVL53:
 831              		.loc 2 314 7
 832 0090 2304E40C 		sb	a4,200(s0)
 315:..\..\..\..\wpa_supplicant\src\utils/common.h **** 	a[5] = val >> 16;
 833              		.loc 2 315 13
 834 0094 13D70701 		srli	a4,a5,16
 835              		.loc 2 315 7
 836 0098 A304E40C 		sb	a4,201(s0)
 316:..\..\..\..\wpa_supplicant\src\utils/common.h **** 	a[6] = val >> 8;
 837              		.loc 2 316 13
 838 009c 13D78700 		srli	a4,a5,8
 312:..\..\..\..\wpa_supplicant\src\utils/common.h **** 	a[3] = val >> 32;
 839              		.loc 2 312 7
 840 00a0 2303D40C 		sb	a3,198(s0)
 313:..\..\..\..\wpa_supplicant\src\utils/common.h **** 	a[4] = val >> 24;
 841              		.loc 2 313 2 is_stmt 1
 314:..\..\..\..\wpa_supplicant\src\utils/common.h **** 	a[5] = val >> 16;
 842              		.loc 2 314 2
 315:..\..\..\..\wpa_supplicant\src\utils/common.h **** 	a[6] = val >> 8;
 843              		.loc 2 315 2
 844              		.loc 2 316 2
 845              		.loc 2 316 7 is_stmt 0
 846 00a4 2305E40C 		sb	a4,202(s0)
 317:..\..\..\..\wpa_supplicant\src\utils/common.h **** 	a[7] = val & 0xff;
 847              		.loc 2 317 2 is_stmt 1
 848              		.loc 2 317 7 is_stmt 0
 849 00a8 A305F40C 		sb	a5,203(s0)
 850              	.LVL54:
 851              	.LBE16:
 852              	.LBE17:
 853              		.loc 1 261 2 is_stmt 1
 854 00ac 2285     		mv	a0,s0
 855 00ae 97000000 		call	sha512_compress
 855      E7800000 
 856              	.LVL55:
 262:C:/Users/stapi/OneDrive/Desktop/GD32VW553/V1_MQTT_OK/GD32VW55X_Wifi_BLE_SDK/GD32VW55x_RELEASE_V1.0.2/MSDK/wpa_supplicant/src/crypto\sha512-internal.c **** 
 263:C:/Users/stapi/OneDrive/Desktop/GD32VW553/V1_MQTT_OK/GD32VW55X_Wifi_BLE_SDK/GD32VW55x_RELEASE_V1.0.2/MSDK/wpa_supplicant/src/crypto\sha512-internal.c **** 	/* copy output */
 264:C:/Users/stapi/OneDrive/Desktop/GD32VW553/V1_MQTT_OK/GD32VW55X_Wifi_BLE_SDK/GD32VW55x_RELEASE_V1.0.2/MSDK/wpa_supplicant/src/crypto\sha512-internal.c **** 	for (i = 0; i < 8; i++)
 857              		.loc 1 264 2
 858              		.loc 1 264 14
 859 00b6 2104     		addi	s0,s0,8
 860              	.LVL56:
 861 00b8 A685     		mv	a1,s1
 862 00ba 93860404 		addi	a3,s1,64
 863              	.LVL57:
 864              	.L33:
 265:C:/Users/stapi/OneDrive/Desktop/GD32VW553/V1_MQTT_OK/GD32VW55X_Wifi_BLE_SDK/GD32VW55x_RELEASE_V1.0.2/MSDK/wpa_supplicant/src/crypto\sha512-internal.c **** 		WPA_PUT_BE64(out + (8 * i), md->state[i]);
 865              		.loc 1 265 3 discriminator 3
 866 00be 5840     		lw	a4,4(s0)
 867              	.LVL58:
 868 00c0 1C40     		lw	a5,0(s0)
 869              	.LVL59:
 870              	.LBB18:
 871              	.LBB19:
 310:..\..\..\..\wpa_supplicant\src\utils/common.h **** 	a[1] = val >> 48;
 872              		.loc 2 310 2 discriminator 3
 873              	.LBE19:
 874              	.LBE18:
 264:C:/Users/stapi/OneDrive/Desktop/GD32VW553/V1_MQTT_OK/GD32VW55X_Wifi_BLE_SDK/GD32VW55x_RELEASE_V1.0.2/MSDK/wpa_supplicant/src/crypto\sha512-internal.c **** 		WPA_PUT_BE64(out + (8 * i), md->state[i]);
 875              		.loc 1 264 2 is_stmt 0 discriminator 3
 876 00c2 A105     		addi	a1,a1,8
 877              	.LBB21:
 878              	.LBB20:
 310:..\..\..\..\wpa_supplicant\src\utils/common.h **** 	a[1] = val >> 48;
 879              		.loc 2 310 13 discriminator 3
 880 00c4 13568701 		srli	a2,a4,24
 310:..\..\..\..\wpa_supplicant\src\utils/common.h **** 	a[1] = val >> 48;
 881              		.loc 2 310 7 discriminator 3
 882 00c8 238CC5FE 		sb	a2,-8(a1)
 311:..\..\..\..\wpa_supplicant\src\utils/common.h **** 	a[2] = val >> 40;
 883              		.loc 2 311 2 is_stmt 1 discriminator 3
 311:..\..\..\..\wpa_supplicant\src\utils/common.h **** 	a[2] = val >> 40;
 884              		.loc 2 311 13 is_stmt 0 discriminator 3
 885 00cc 13560701 		srli	a2,a4,16
 311:..\..\..\..\wpa_supplicant\src\utils/common.h **** 	a[2] = val >> 40;
 886              		.loc 2 311 7 discriminator 3
 887 00d0 A38CC5FE 		sb	a2,-7(a1)
 312:..\..\..\..\wpa_supplicant\src\utils/common.h **** 	a[3] = val >> 32;
 888              		.loc 2 312 2 is_stmt 1 discriminator 3
 313:..\..\..\..\wpa_supplicant\src\utils/common.h **** 	a[4] = val >> 24;
 889              		.loc 2 313 7 is_stmt 0 discriminator 3
 890 00d4 A38DE5FE 		sb	a4,-5(a1)
 312:..\..\..\..\wpa_supplicant\src\utils/common.h **** 	a[3] = val >> 32;
 891              		.loc 2 312 13 discriminator 3
 892 00d8 13568700 		srli	a2,a4,8
 314:..\..\..\..\wpa_supplicant\src\utils/common.h **** 	a[5] = val >> 16;
 893              		.loc 2 314 13 discriminator 3
 894 00dc 13D78701 		srli	a4,a5,24
 895              	.LVL60:
 314:..\..\..\..\wpa_supplicant\src\utils/common.h **** 	a[5] = val >> 16;
 896              		.loc 2 314 7 discriminator 3
 897 00e0 238EE5FE 		sb	a4,-4(a1)
 315:..\..\..\..\wpa_supplicant\src\utils/common.h **** 	a[6] = val >> 8;
 898              		.loc 2 315 13 discriminator 3
 899 00e4 13D70701 		srli	a4,a5,16
 315:..\..\..\..\wpa_supplicant\src\utils/common.h **** 	a[6] = val >> 8;
 900              		.loc 2 315 7 discriminator 3
 901 00e8 A38EE5FE 		sb	a4,-3(a1)
 316:..\..\..\..\wpa_supplicant\src\utils/common.h **** 	a[7] = val & 0xff;
 902              		.loc 2 316 13 discriminator 3
 903 00ec 13D78700 		srli	a4,a5,8
 312:..\..\..\..\wpa_supplicant\src\utils/common.h **** 	a[3] = val >> 32;
 904              		.loc 2 312 7 discriminator 3
 905 00f0 238DC5FE 		sb	a2,-6(a1)
 313:..\..\..\..\wpa_supplicant\src\utils/common.h **** 	a[4] = val >> 24;
 906              		.loc 2 313 2 is_stmt 1 discriminator 3
 314:..\..\..\..\wpa_supplicant\src\utils/common.h **** 	a[5] = val >> 16;
 907              		.loc 2 314 2 discriminator 3
 315:..\..\..\..\wpa_supplicant\src\utils/common.h **** 	a[6] = val >> 8;
 908              		.loc 2 315 2 discriminator 3
 316:..\..\..\..\wpa_supplicant\src\utils/common.h **** 	a[7] = val & 0xff;
 909              		.loc 2 316 2 discriminator 3
 316:..\..\..\..\wpa_supplicant\src\utils/common.h **** 	a[7] = val & 0xff;
 910              		.loc 2 316 7 is_stmt 0 discriminator 3
 911 00f4 238FE5FE 		sb	a4,-2(a1)
 912              		.loc 2 317 2 is_stmt 1 discriminator 3
 913              		.loc 2 317 7 is_stmt 0 discriminator 3
 914 00f8 A38FF5FE 		sb	a5,-1(a1)
 915              	.LVL61:
 916              	.LBE20:
 917              	.LBE21:
 264:C:/Users/stapi/OneDrive/Desktop/GD32VW553/V1_MQTT_OK/GD32VW55X_Wifi_BLE_SDK/GD32VW55x_RELEASE_V1.0.2/MSDK/wpa_supplicant/src/crypto\sha512-internal.c **** 		WPA_PUT_BE64(out + (8 * i), md->state[i]);
 918              		.loc 1 264 21 is_stmt 1 discriminator 3
 264:C:/Users/stapi/OneDrive/Desktop/GD32VW553/V1_MQTT_OK/GD32VW55X_Wifi_BLE_SDK/GD32VW55x_RELEASE_V1.0.2/MSDK/wpa_supplicant/src/crypto\sha512-internal.c **** 		WPA_PUT_BE64(out + (8 * i), md->state[i]);
 919              		.loc 1 264 14 discriminator 3
 264:C:/Users/stapi/OneDrive/Desktop/GD32VW553/V1_MQTT_OK/GD32VW55X_Wifi_BLE_SDK/GD32VW55x_RELEASE_V1.0.2/MSDK/wpa_supplicant/src/crypto\sha512-internal.c **** 		WPA_PUT_BE64(out + (8 * i), md->state[i]);
 920              		.loc 1 264 2 is_stmt 0 discriminator 3
 921 00fc 2104     		addi	s0,s0,8
 922 00fe E390B6FC 		bne	a3,a1,.L33
 266:C:/Users/stapi/OneDrive/Desktop/GD32VW553/V1_MQTT_OK/GD32VW55X_Wifi_BLE_SDK/GD32VW55x_RELEASE_V1.0.2/MSDK/wpa_supplicant/src/crypto\sha512-internal.c **** 
 267:C:/Users/stapi/OneDrive/Desktop/GD32VW553/V1_MQTT_OK/GD32VW55X_Wifi_BLE_SDK/GD32VW55x_RELEASE_V1.0.2/MSDK/wpa_supplicant/src/crypto\sha512-internal.c **** 	return 0;
 923              		.loc 1 267 9
 924 0102 0145     		li	a0,0
 268:C:/Users/stapi/OneDrive/Desktop/GD32VW553/V1_MQTT_OK/GD32VW55X_Wifi_BLE_SDK/GD32VW55x_RELEASE_V1.0.2/MSDK/wpa_supplicant/src/crypto\sha512-internal.c **** }
 925              		.loc 1 268 1
 926 0104 17030000 		tail	__riscv_restore_2
 926      67000300 
 927              		.cfi_remember_state
 928              		.cfi_restore 9
 929              		.cfi_restore 8
 930              		.cfi_restore 1
 931              		.cfi_def_cfa_offset 0
 932              	.LVL62:
 933              	.L30:
 934              		.cfi_restore_state
 245:C:/Users/stapi/OneDrive/Desktop/GD32VW553/V1_MQTT_OK/GD32VW55X_Wifi_BLE_SDK/GD32VW55x_RELEASE_V1.0.2/MSDK/wpa_supplicant/src/crypto\sha512-internal.c **** 		}
 935              		.loc 1 245 4 is_stmt 1
 245:C:/Users/stapi/OneDrive/Desktop/GD32VW553/V1_MQTT_OK/GD32VW55X_Wifi_BLE_SDK/GD32VW55x_RELEASE_V1.0.2/MSDK/wpa_supplicant/src/crypto\sha512-internal.c **** 		}
 936              		.loc 1 245 22 is_stmt 0
 937 010c 93861700 		addi	a3,a5,1
 938 0110 34C4     		sw	a3,72(s0)
 245:C:/Users/stapi/OneDrive/Desktop/GD32VW553/V1_MQTT_OK/GD32VW55X_Wifi_BLE_SDK/GD32VW55x_RELEASE_V1.0.2/MSDK/wpa_supplicant/src/crypto\sha512-internal.c **** 		}
 939              		.loc 1 245 26
 940 0112 A297     		add	a5,s0,a5
 941 0114 23860704 		sb	zero,76(a5)
 942 0118 0DBF     		j	.L28
 943              	.L32:
 256:C:/Users/stapi/OneDrive/Desktop/GD32VW553/V1_MQTT_OK/GD32VW55X_Wifi_BLE_SDK/GD32VW55x_RELEASE_V1.0.2/MSDK/wpa_supplicant/src/crypto\sha512-internal.c **** 	}
 944              		.loc 1 256 3 is_stmt 1
 256:C:/Users/stapi/OneDrive/Desktop/GD32VW553/V1_MQTT_OK/GD32VW55X_Wifi_BLE_SDK/GD32VW55x_RELEASE_V1.0.2/MSDK/wpa_supplicant/src/crypto\sha512-internal.c **** 	}
 945              		.loc 1 256 21 is_stmt 0
 946 011a 93861700 		addi	a3,a5,1
 947 011e 34C4     		sw	a3,72(s0)
 256:C:/Users/stapi/OneDrive/Desktop/GD32VW553/V1_MQTT_OK/GD32VW55X_Wifi_BLE_SDK/GD32VW55x_RELEASE_V1.0.2/MSDK/wpa_supplicant/src/crypto\sha512-internal.c **** 	}
 948              		.loc 1 256 25
 949 0120 A297     		add	a5,s0,a5
 950 0122 23860704 		sb	zero,76(a5)
 951 0126 81B7     		j	.L31
 952              	.LVL63:
 953              	.L34:
 954              		.cfi_def_cfa_offset 0
 955              		.cfi_restore 1
 956              		.cfi_restore 8
 957              		.cfi_restore 9
 231:C:/Users/stapi/OneDrive/Desktop/GD32VW553/V1_MQTT_OK/GD32VW55X_Wifi_BLE_SDK/GD32VW55x_RELEASE_V1.0.2/MSDK/wpa_supplicant/src/crypto\sha512-internal.c **** 
 958              		.loc 1 231 10
 959 0128 7D55     		li	a0,-1
 960              	.LVL64:
 961              		.loc 1 268 1
 962 012a 8280     		ret
 963              		.cfi_endproc
 964              	.LFE75:
 966              		.section	.text.sha512_vector,"ax",@progbits
 967              		.align	1
 968              		.globl	sha512_vector
 970              	sha512_vector:
 971              	.LFB71:
  26:C:/Users/stapi/OneDrive/Desktop/GD32VW553/V1_MQTT_OK/GD32VW55X_Wifi_BLE_SDK/GD32VW55x_RELEASE_V1.0.2/MSDK/wpa_supplicant/src/crypto\sha512-internal.c **** 	struct sha512_state ctx;
 972              		.loc 1 26 1 is_stmt 1
 973              		.cfi_startproc
 974              	.LVL65:
 975 0000 17030000 		call	t0,__riscv_save_5
 975      E7020300 
 976              		.cfi_offset 20, -24
 977              		.cfi_offset 19, -20
 978              		.cfi_offset 18, -16
 979              		.cfi_offset 9, -12
 980              		.cfi_offset 8, -8
 981              		.cfi_offset 1, -4
 982              		.cfi_def_cfa_offset 32
  27:C:/Users/stapi/OneDrive/Desktop/GD32VW553/V1_MQTT_OK/GD32VW55X_Wifi_BLE_SDK/GD32VW55x_RELEASE_V1.0.2/MSDK/wpa_supplicant/src/crypto\sha512-internal.c **** 	size_t i;
 983              		.loc 1 27 2
  28:C:/Users/stapi/OneDrive/Desktop/GD32VW553/V1_MQTT_OK/GD32VW55X_Wifi_BLE_SDK/GD32VW55x_RELEASE_V1.0.2/MSDK/wpa_supplicant/src/crypto\sha512-internal.c **** 
 984              		.loc 1 28 2
  30:C:/Users/stapi/OneDrive/Desktop/GD32VW553/V1_MQTT_OK/GD32VW55X_Wifi_BLE_SDK/GD32VW55x_RELEASE_V1.0.2/MSDK/wpa_supplicant/src/crypto\sha512-internal.c **** 	for (i = 0; i < num_elem; i++)
 985              		.loc 1 30 2
  26:C:/Users/stapi/OneDrive/Desktop/GD32VW553/V1_MQTT_OK/GD32VW55X_Wifi_BLE_SDK/GD32VW55x_RELEASE_V1.0.2/MSDK/wpa_supplicant/src/crypto\sha512-internal.c **** 	struct sha512_state ctx;
 986              		.loc 1 26 1 is_stmt 0
 987 0008 5571     		addi	sp,sp,-208
 988              		.cfi_def_cfa_offset 240
  26:C:/Users/stapi/OneDrive/Desktop/GD32VW553/V1_MQTT_OK/GD32VW55X_Wifi_BLE_SDK/GD32VW55x_RELEASE_V1.0.2/MSDK/wpa_supplicant/src/crypto\sha512-internal.c **** 	struct sha512_state ctx;
 989              		.loc 1 26 1
 990 000a 2A89     		mv	s2,a0
  30:C:/Users/stapi/OneDrive/Desktop/GD32VW553/V1_MQTT_OK/GD32VW55X_Wifi_BLE_SDK/GD32VW55x_RELEASE_V1.0.2/MSDK/wpa_supplicant/src/crypto\sha512-internal.c **** 	for (i = 0; i < num_elem; i++)
 991              		.loc 1 30 2
 992 000c 0A85     		mv	a0,sp
 993              	.LVL66:
  26:C:/Users/stapi/OneDrive/Desktop/GD32VW553/V1_MQTT_OK/GD32VW55X_Wifi_BLE_SDK/GD32VW55x_RELEASE_V1.0.2/MSDK/wpa_supplicant/src/crypto\sha512-internal.c **** 	struct sha512_state ctx;
 994              		.loc 1 26 1
 995 000e AE89     		mv	s3,a1
 996 0010 328A     		mv	s4,a2
 997 0012 B684     		mv	s1,a3
  31:C:/Users/stapi/OneDrive/Desktop/GD32VW553/V1_MQTT_OK/GD32VW55X_Wifi_BLE_SDK/GD32VW55x_RELEASE_V1.0.2/MSDK/wpa_supplicant/src/crypto\sha512-internal.c **** 		if (sha512_process(&ctx, addr[i], len[i]))
 998              		.loc 1 31 9
 999 0014 0144     		li	s0,0
  30:C:/Users/stapi/OneDrive/Desktop/GD32VW553/V1_MQTT_OK/GD32VW55X_Wifi_BLE_SDK/GD32VW55x_RELEASE_V1.0.2/MSDK/wpa_supplicant/src/crypto\sha512-internal.c **** 	for (i = 0; i < num_elem; i++)
 1000              		.loc 1 30 2
 1001 0016 97000000 		call	sha512_init
 1001      E7800000 
 1002              	.LVL67:
  31:C:/Users/stapi/OneDrive/Desktop/GD32VW553/V1_MQTT_OK/GD32VW55X_Wifi_BLE_SDK/GD32VW55x_RELEASE_V1.0.2/MSDK/wpa_supplicant/src/crypto\sha512-internal.c **** 		if (sha512_process(&ctx, addr[i], len[i]))
 1003              		.loc 1 31 2 is_stmt 1
 1004              	.L42:
  31:C:/Users/stapi/OneDrive/Desktop/GD32VW553/V1_MQTT_OK/GD32VW55X_Wifi_BLE_SDK/GD32VW55x_RELEASE_V1.0.2/MSDK/wpa_supplicant/src/crypto\sha512-internal.c **** 		if (sha512_process(&ctx, addr[i], len[i]))
 1005              		.loc 1 31 14 discriminator 1
  31:C:/Users/stapi/OneDrive/Desktop/GD32VW553/V1_MQTT_OK/GD32VW55X_Wifi_BLE_SDK/GD32VW55x_RELEASE_V1.0.2/MSDK/wpa_supplicant/src/crypto\sha512-internal.c **** 		if (sha512_process(&ctx, addr[i], len[i]))
 1006              		.loc 1 31 2 is_stmt 0 discriminator 1
 1007 001e 63112403 		bne	s0,s2,.L44
  34:C:/Users/stapi/OneDrive/Desktop/GD32VW553/V1_MQTT_OK/GD32VW55X_Wifi_BLE_SDK/GD32VW55x_RELEASE_V1.0.2/MSDK/wpa_supplicant/src/crypto\sha512-internal.c **** 		return -1;
 1008              		.loc 1 34 2 is_stmt 1
  34:C:/Users/stapi/OneDrive/Desktop/GD32VW553/V1_MQTT_OK/GD32VW55X_Wifi_BLE_SDK/GD32VW55x_RELEASE_V1.0.2/MSDK/wpa_supplicant/src/crypto\sha512-internal.c **** 		return -1;
 1009              		.loc 1 34 6 is_stmt 0
 1010 0022 A685     		mv	a1,s1
 1011 0024 0A85     		mv	a0,sp
 1012 0026 97000000 		call	sha512_done
 1012      E7800000 
 1013              	.LVL68:
  34:C:/Users/stapi/OneDrive/Desktop/GD32VW553/V1_MQTT_OK/GD32VW55X_Wifi_BLE_SDK/GD32VW55x_RELEASE_V1.0.2/MSDK/wpa_supplicant/src/crypto\sha512-internal.c **** 		return -1;
 1014              		.loc 1 34 5
 1015 002e 3335A000 		snez	a0,a0
 1016 0032 3305A040 		neg	a0,a0
 1017              	.L41:
  37:C:/Users/stapi/OneDrive/Desktop/GD32VW553/V1_MQTT_OK/GD32VW55X_Wifi_BLE_SDK/GD32VW55x_RELEASE_V1.0.2/MSDK/wpa_supplicant/src/crypto\sha512-internal.c **** 
 1018              		.loc 1 37 1
 1019 0036 6961     		addi	sp,sp,208
 1020              		.cfi_remember_state
 1021              		.cfi_def_cfa_offset 0
 1022 0038 17030000 		tail	__riscv_restore_5
 1022      67000300 
 1023              		.cfi_restore 20
 1024              		.cfi_restore 19
 1025              		.cfi_restore 18
 1026              		.cfi_restore 9
 1027              		.cfi_restore 8
 1028              		.cfi_restore 1
 1029              		.cfi_def_cfa_offset -32
 1030              	.L44:
 1031              		.cfi_restore_state
  32:C:/Users/stapi/OneDrive/Desktop/GD32VW553/V1_MQTT_OK/GD32VW55X_Wifi_BLE_SDK/GD32VW55x_RELEASE_V1.0.2/MSDK/wpa_supplicant/src/crypto\sha512-internal.c **** 			return -1;
 1032              		.loc 1 32 3 is_stmt 1
 1033 0040 93172400 		slli	a5,s0,2
  32:C:/Users/stapi/OneDrive/Desktop/GD32VW553/V1_MQTT_OK/GD32VW55X_Wifi_BLE_SDK/GD32VW55x_RELEASE_V1.0.2/MSDK/wpa_supplicant/src/crypto\sha512-internal.c **** 			return -1;
 1034              		.loc 1 32 7 is_stmt 0
 1035 0044 3307FA00 		add	a4,s4,a5
 1036 0048 CE97     		add	a5,s3,a5
 1037 004a 1043     		lw	a2,0(a4)
 1038 004c 8C43     		lw	a1,0(a5)
 1039 004e 0A85     		mv	a0,sp
 1040 0050 97000000 		call	sha512_process
 1040      E7800000 
 1041              	.LVL69:
  32:C:/Users/stapi/OneDrive/Desktop/GD32VW553/V1_MQTT_OK/GD32VW55X_Wifi_BLE_SDK/GD32VW55x_RELEASE_V1.0.2/MSDK/wpa_supplicant/src/crypto\sha512-internal.c **** 			return -1;
 1042              		.loc 1 32 6
 1043 0058 19E1     		bne	a0,zero,.L45
  31:C:/Users/stapi/OneDrive/Desktop/GD32VW553/V1_MQTT_OK/GD32VW55X_Wifi_BLE_SDK/GD32VW55x_RELEASE_V1.0.2/MSDK/wpa_supplicant/src/crypto\sha512-internal.c **** 		if (sha512_process(&ctx, addr[i], len[i]))
 1044              		.loc 1 31 28 is_stmt 1 discriminator 2
  31:C:/Users/stapi/OneDrive/Desktop/GD32VW553/V1_MQTT_OK/GD32VW55X_Wifi_BLE_SDK/GD32VW55x_RELEASE_V1.0.2/MSDK/wpa_supplicant/src/crypto\sha512-internal.c **** 		if (sha512_process(&ctx, addr[i], len[i]))
 1045              		.loc 1 31 29 is_stmt 0 discriminator 2
 1046 005a 0504     		addi	s0,s0,1
 1047              	.LVL70:
 1048 005c C9B7     		j	.L42
 1049              	.L45:
  33:C:/Users/stapi/OneDrive/Desktop/GD32VW553/V1_MQTT_OK/GD32VW55X_Wifi_BLE_SDK/GD32VW55x_RELEASE_V1.0.2/MSDK/wpa_supplicant/src/crypto\sha512-internal.c **** 	if (sha512_done(&ctx, mac))
 1050              		.loc 1 33 11
 1051 005e 7D55     		li	a0,-1
 1052 0060 D9BF     		j	.L41
 1053              		.cfi_endproc
 1054              	.LFE71:
 1056              		.section	.srodata.cst8,"aM",@progbits,8
 1057              		.align	3
 1058              	.LC0:
 1059 0000 08C9BCF3 		.word	-205731576
 1060 0004 67E6096A 		.word	1779033703
 1061              		.align	3
 1062              	.LC1:
 1063 0008 3BA7CA84 		.word	-2067093701
 1064 000c 85AE67BB 		.word	-1150833019
 1065              		.align	3
 1066              	.LC2:
 1067 0010 2BF894FE 		.word	-23791573
 1068 0014 72F36E3C 		.word	1013904242
 1069              		.align	3
 1070              	.LC3:
 1071 0018 F1361D5F 		.word	1595750129
 1072 001c 3AF54FA5 		.word	-1521486534
 1073              		.align	3
 1074              	.LC4:
 1075 0020 D182E6AD 		.word	-1377402159
 1076 0024 7F520E51 		.word	1359893119
 1077              		.align	3
 1078              	.LC5:
 1079 0028 1F6C3E2B 		.word	725511199
 1080 002c 8C68059B 		.word	-1694144372
 1081              		.align	3
 1082              	.LC6:
 1083 0030 6BBD41FB 		.word	-79577749
 1084 0034 ABD9831F 		.word	528734635
 1085              		.align	3
 1086              	.LC7:
 1087 0038 79217E13 		.word	327033209
 1088 003c 19CDE05B 		.word	1541459225
 1089              		.section	.rodata.K,"a"
 1090              		.align	3
 1091              		.set	.LANCHOR0,. + 0
 1094              	K:
 1095 0000 22AE28D7 		.word	-685199838
 1096 0004 982F8A42 		.word	1116352408
 1097 0008 CD65EF23 		.word	602891725
 1098 000c 91443771 		.word	1899447441
 1099 0010 2F3B4DEC 		.word	-330482897
 1100 0014 CFFBC0B5 		.word	-1245643825
 1101 0018 BCDB8981 		.word	-2121671748
 1102 001c A5DBB5E9 		.word	-373957723
 1103 0020 38B548F3 		.word	-213338824
 1104 0024 5BC25639 		.word	961987163
 1105 0028 19D005B6 		.word	-1241133031
 1106 002c F111F159 		.word	1508970993
 1107 0030 9B4F19AF 		.word	-1357295717
 1108 0034 A4823F92 		.word	-1841331548
 1109 0038 18816DDA 		.word	-630357736
 1110 003c D55E1CAB 		.word	-1424204075
 1111 0040 420203A3 		.word	-1560083902
 1112 0044 98AA07D8 		.word	-670586216
 1113 0048 BE6F7045 		.word	1164996542
 1114 004c 015B8312 		.word	310598401
 1115 0050 8CB2E44E 		.word	1323610764
 1116 0054 BE853124 		.word	607225278
 1117 0058 E2B4FFD5 		.word	-704662302
 1118 005c C37D0C55 		.word	1426881987
 1119 0060 6F897BF2 		.word	-226784913
 1120 0064 745DBE72 		.word	1925078388
 1121 0068 B196163B 		.word	991336113
 1122 006c FEB1DE80 		.word	-2132889090
 1123 0070 3512C725 		.word	633803317
 1124 0074 A706DC9B 		.word	-1680079193
 1125 0078 942669CF 		.word	-815192428
 1126 007c 74F19BC1 		.word	-1046744716
 1127 0080 D24AF19E 		.word	-1628353838
 1128 0084 C1699BE4 		.word	-459576895
 1129 0088 E3254F38 		.word	944711139
 1130 008c 8647BEEF 		.word	-272742522
 1131 0090 B5D58C8B 		.word	-1953704523
 1132 0094 C69DC10F 		.word	264347078
 1133 0098 659CAC77 		.word	2007800933
 1134 009c CCA10C24 		.word	604807628
 1135 00a0 75022B59 		.word	1495990901
 1136 00a4 6F2CE92D 		.word	770255983
 1137 00a8 83E4A66E 		.word	1856431235
 1138 00ac AA84744A 		.word	1249150122
 1139 00b0 D4FB41BD 		.word	-1119749164
 1140 00b4 DCA9B05C 		.word	1555081692
 1141 00b8 B5531183 		.word	-2096016459
 1142 00bc DA88F976 		.word	1996064986
 1143 00c0 ABDF66EE 		.word	-295247957
 1144 00c4 52513E98 		.word	-1740746414
 1145 00c8 1032B42D 		.word	766784016
 1146 00cc 6DC631A8 		.word	-1473132947
 1147 00d0 3F21FB98 		.word	-1728372417
 1148 00d4 C82703B0 		.word	-1341970488
 1149 00d8 E40EEFBE 		.word	-1091629340
 1150 00dc C77F59BF 		.word	-1084653625
 1151 00e0 C28FA83D 		.word	1034457026
 1152 00e4 F30BE0C6 		.word	-958395405
 1153 00e8 25A70A93 		.word	-1828018395
 1154 00ec 4791A7D5 		.word	-710438585
 1155 00f0 6F8203E0 		.word	-536640913
 1156 00f4 5163CA06 		.word	113926993
 1157 00f8 706E0E0A 		.word	168717936
 1158 00fc 67292914 		.word	338241895
 1159 0100 FC2FD246 		.word	1188179964
 1160 0104 850AB727 		.word	666307205
 1161 0108 26C9265C 		.word	1546045734
 1162 010c 38211B2E 		.word	773529912
 1163 0110 ED2AC45A 		.word	1522805485
 1164 0114 FC6D2C4D 		.word	1294757372
 1165 0118 DFB3959D 		.word	-1651133473
 1166 011c 130D3853 		.word	1396182291
 1167 0120 DE63AF8B 		.word	-1951439906
 1168 0124 54730A65 		.word	1695183700
 1169 0128 A8B2773C 		.word	1014477480
 1170 012c BB0A6A76 		.word	1986661051
 1171 0130 E6AEED47 		.word	1206759142
 1172 0134 2EC9C281 		.word	-2117940946
 1173 0138 3B358214 		.word	344077627
 1174 013c 852C7292 		.word	-1838011259
 1175 0140 6403F14C 		.word	1290863460
 1176 0144 A1E8BFA2 		.word	-1564481375
 1177 0148 013042BC 		.word	-1136513023
 1178 014c 4B661AA8 		.word	-1474664885
 1179 0150 9197F8D0 		.word	-789014639
 1180 0154 708B4BC2 		.word	-1035236496
 1181 0158 30BE5406 		.word	106217008
 1182 015c A3516CC7 		.word	-949202525
 1183 0160 1852EFD6 		.word	-688958952
 1184 0164 19E892D1 		.word	-778901479
 1185 0168 10A96555 		.word	1432725776
 1186 016c 240699D6 		.word	-694614492
 1187 0170 2A207157 		.word	1467031594
 1188 0174 85350EF4 		.word	-200395387
 1189 0178 B8D1BB32 		.word	851169720
 1190 017c 70A06A10 		.word	275423344
 1191 0180 C8D0D2B8 		.word	-1194143544
 1192 0184 16C1A419 		.word	430227734
 1193 0188 53AB4151 		.word	1363258195
 1194 018c 086C371E 		.word	506948616
 1195 0190 99EB8EDF 		.word	-544281703
 1196 0194 4C774827 		.word	659060556
 1197 0198 A8489BE1 		.word	-509917016
 1198 019c B5BCB034 		.word	883997877
 1199 01a0 635AC9C5 		.word	-976659869
 1200 01a4 B30C1C39 		.word	958139571
 1201 01a8 CB8A41E3 		.word	-482243893
 1202 01ac 4AAAD84E 		.word	1322822218
 1203 01b0 73E36377 		.word	2003034995
 1204 01b4 4FCA9C5B 		.word	1537002063
 1205 01b8 A3B8B2D6 		.word	-692930397
 1206 01bc F36F2E68 		.word	1747873779
 1207 01c0 FCB2EF5D 		.word	1575990012
 1208 01c4 EE828F74 		.word	1955562222
 1209 01c8 602F1743 		.word	1125592928
 1210 01cc 6F63A578 		.word	2024104815
 1211 01d0 72ABF0A1 		.word	-1578062990
 1212 01d4 1478C884 		.word	-2067236844
 1213 01d8 EC39641A 		.word	442776044
 1214 01dc 0802C78C 		.word	-1933114872
 1215 01e0 281E6323 		.word	593698344
 1216 01e4 FAFFBE90 		.word	-1866530822
 1217 01e8 E9BD82DE 		.word	-561857047
 1218 01ec EB6C50A4 		.word	-1538233109
 1219 01f0 1579C6B2 		.word	-1295615723
 1220 01f4 F7A3F9BE 		.word	-1090935817
 1221 01f8 2B5372E3 		.word	-479046869
 1222 01fc F27871C6 		.word	-965641998
 1223 0200 9C6126EA 		.word	-366583396
 1224 0204 CE3E27CA 		.word	-903397682
 1225 0208 07C2C021 		.word	566280711
 1226 020c C7B886D1 		.word	-779700025
 1227 0210 1EEBE0CD 		.word	-840897762
 1228 0214 D67DDAEA 		.word	-354779690
 1229 0218 78D16EEE 		.word	-294727304
 1230 021c 7F4F7DF5 		.word	-176337025
 1231 0220 BA6F1772 		.word	1914138554
 1232 0224 AA67F006 		.word	116418474
 1233 0228 A698C8A2 		.word	-1563912026
 1234 022c C57D630A 		.word	174292421
 1235 0230 AE0DF9BE 		.word	-1090974290
 1236 0234 04983F11 		.word	289380356
 1237 0238 1B471C13 		.word	320620315
 1238 023c 350B711B 		.word	460393269
 1239 0240 847D0423 		.word	587496836
 1240 0244 F577DB28 		.word	685471733
 1241 0248 9324C740 		.word	1086792851
 1242 024c 7BABCA32 		.word	852142971
 1243 0250 BCBEC915 		.word	365543100
 1244 0254 0ABE9E3C 		.word	1017036298
 1245 0258 4C0D109C 		.word	-1676669620
 1246 025c C4671D43 		.word	1126000580
 1247 0260 B6423ECB 		.word	-885112138
 1248 0264 BED4C54C 		.word	1288033470
 1249 0268 2A7E65FC 		.word	-60457430
 1250 026c 9C297F59 		.word	1501505948
 1251 0270 ECFAD63A 		.word	987167468
 1252 0274 AB6FCB5F 		.word	1607167915
 1253 0278 1758474A 		.word	1246189591
 1254 027c 8C19446C 		.word	1816402316
 1255              		.text
 1256              	.Letext0:
 1257              		.file 3 "c:\\users\\stapi\\onedrive\\desktop\\gd32vw553\\embeddedbuilder_v1.4.7.26843\\tools\\nucl
 1258              		.file 4 "c:\\users\\stapi\\onedrive\\desktop\\gd32vw553\\embeddedbuilder_v1.4.7.26843\\tools\\nucl
 1259              		.file 5 "c:\\users\\stapi\\onedrive\\desktop\\gd32vw553\\embeddedbuilder_v1.4.7.26843\\tools\\nucl
 1260              		.file 6 "C:/Users/stapi/OneDrive/Desktop/GD32VW553/V1_MQTT_OK/GD32VW55X_Wifi_BLE_SDK/GD32VW55x_REL
 1261              		.file 7 "..\\..\\..\\..\\wpa_supplicant\\src\\utils/os.h"
 1262              		.file 8 "..\\..\\..\\..\\lwip\\lwip-2.1.2\\src\\include/lwip/memp.h"
 1263              		.file 9 "..\\..\\..\\..\\lwip\\lwip-2.1.2\\src\\include/lwip/netif.h"
 1264              		.file 10 "<built-in>"