   1              		.file	"wpa_debug.c"
   2              		.option nopic
   3              		.attribute arch, "rv32i2p0_m2p0_a2p0_f2p0_c2p0_b_p0p94"
   4              		.attribute unaligned_access, 0
   5              		.attribute stack_align, 16
   6              		.text
   7              	.Ltext0:
   8              		.cfi_sections	.debug_frame
   9              		.section	.rodata.wpa_debug_print_timestamp.str1.4,"aMS",@progbits,1
  10              		.align	2
  11              	.LC0:
  12 0000 256C642E 		.string	"%ld.%06u: "
  12      25303675 
  12      3A2000
  13              		.section	.text.wpa_debug_print_timestamp,"ax",@progbits
  14              		.align	1
  15              		.globl	wpa_debug_print_timestamp
  17              	wpa_debug_print_timestamp:
  18              	.LFB71:
  19              		.file 1 "C:/Users/stapi/OneDrive/Desktop/GD32VW553/V1_MQTT_OK/GD32VW55X_Wifi_BLE_SDK/GD32VW55x_REL
   1:C:/Users/stapi/OneDrive/Desktop/GD32VW553/V1_MQTT_OK/GD32VW55X_Wifi_BLE_SDK/GD32VW55x_RELEASE_V1.0.2/MSDK/wpa_supplicant/src/utils\wpa_debug.c **** /*
   2:C:/Users/stapi/OneDrive/Desktop/GD32VW553/V1_MQTT_OK/GD32VW55X_Wifi_BLE_SDK/GD32VW55x_RELEASE_V1.0.2/MSDK/wpa_supplicant/src/utils\wpa_debug.c ****  * wpa_supplicant/hostapd / Debug prints
   3:C:/Users/stapi/OneDrive/Desktop/GD32VW553/V1_MQTT_OK/GD32VW55X_Wifi_BLE_SDK/GD32VW55x_RELEASE_V1.0.2/MSDK/wpa_supplicant/src/utils\wpa_debug.c ****  * Copyright (c) 2002-2013, Jouni Malinen <j@w1.fi>
   4:C:/Users/stapi/OneDrive/Desktop/GD32VW553/V1_MQTT_OK/GD32VW55X_Wifi_BLE_SDK/GD32VW55x_RELEASE_V1.0.2/MSDK/wpa_supplicant/src/utils\wpa_debug.c ****  *
   5:C:/Users/stapi/OneDrive/Desktop/GD32VW553/V1_MQTT_OK/GD32VW55X_Wifi_BLE_SDK/GD32VW55x_RELEASE_V1.0.2/MSDK/wpa_supplicant/src/utils\wpa_debug.c ****  * This software may be distributed under the terms of the BSD license.
   6:C:/Users/stapi/OneDrive/Desktop/GD32VW553/V1_MQTT_OK/GD32VW55X_Wifi_BLE_SDK/GD32VW55x_RELEASE_V1.0.2/MSDK/wpa_supplicant/src/utils\wpa_debug.c ****  * See README for more details.
   7:C:/Users/stapi/OneDrive/Desktop/GD32VW553/V1_MQTT_OK/GD32VW55X_Wifi_BLE_SDK/GD32VW55x_RELEASE_V1.0.2/MSDK/wpa_supplicant/src/utils\wpa_debug.c ****  */
   8:C:/Users/stapi/OneDrive/Desktop/GD32VW553/V1_MQTT_OK/GD32VW55X_Wifi_BLE_SDK/GD32VW55x_RELEASE_V1.0.2/MSDK/wpa_supplicant/src/utils\wpa_debug.c **** 
   9:C:/Users/stapi/OneDrive/Desktop/GD32VW553/V1_MQTT_OK/GD32VW55X_Wifi_BLE_SDK/GD32VW55x_RELEASE_V1.0.2/MSDK/wpa_supplicant/src/utils\wpa_debug.c **** #include "includes.h"
  10:C:/Users/stapi/OneDrive/Desktop/GD32VW553/V1_MQTT_OK/GD32VW55X_Wifi_BLE_SDK/GD32VW55x_RELEASE_V1.0.2/MSDK/wpa_supplicant/src/utils\wpa_debug.c **** 
  11:C:/Users/stapi/OneDrive/Desktop/GD32VW553/V1_MQTT_OK/GD32VW55X_Wifi_BLE_SDK/GD32VW55x_RELEASE_V1.0.2/MSDK/wpa_supplicant/src/utils\wpa_debug.c **** #include "common.h"
  12:C:/Users/stapi/OneDrive/Desktop/GD32VW553/V1_MQTT_OK/GD32VW55X_Wifi_BLE_SDK/GD32VW55x_RELEASE_V1.0.2/MSDK/wpa_supplicant/src/utils\wpa_debug.c **** 
  13:C:/Users/stapi/OneDrive/Desktop/GD32VW553/V1_MQTT_OK/GD32VW55X_Wifi_BLE_SDK/GD32VW55x_RELEASE_V1.0.2/MSDK/wpa_supplicant/src/utils\wpa_debug.c **** #ifdef CONFIG_DEBUG_SYSLOG
  14:C:/Users/stapi/OneDrive/Desktop/GD32VW553/V1_MQTT_OK/GD32VW55X_Wifi_BLE_SDK/GD32VW55x_RELEASE_V1.0.2/MSDK/wpa_supplicant/src/utils\wpa_debug.c **** #include <syslog.h>
  15:C:/Users/stapi/OneDrive/Desktop/GD32VW553/V1_MQTT_OK/GD32VW55X_Wifi_BLE_SDK/GD32VW55x_RELEASE_V1.0.2/MSDK/wpa_supplicant/src/utils\wpa_debug.c **** #endif /* CONFIG_DEBUG_SYSLOG */
  16:C:/Users/stapi/OneDrive/Desktop/GD32VW553/V1_MQTT_OK/GD32VW55X_Wifi_BLE_SDK/GD32VW55x_RELEASE_V1.0.2/MSDK/wpa_supplicant/src/utils\wpa_debug.c **** 
  17:C:/Users/stapi/OneDrive/Desktop/GD32VW553/V1_MQTT_OK/GD32VW55X_Wifi_BLE_SDK/GD32VW55x_RELEASE_V1.0.2/MSDK/wpa_supplicant/src/utils\wpa_debug.c **** #ifdef CONFIG_DEBUG_LINUX_TRACING
  18:C:/Users/stapi/OneDrive/Desktop/GD32VW553/V1_MQTT_OK/GD32VW55X_Wifi_BLE_SDK/GD32VW55x_RELEASE_V1.0.2/MSDK/wpa_supplicant/src/utils\wpa_debug.c **** #include <sys/types.h>
  19:C:/Users/stapi/OneDrive/Desktop/GD32VW553/V1_MQTT_OK/GD32VW55X_Wifi_BLE_SDK/GD32VW55x_RELEASE_V1.0.2/MSDK/wpa_supplicant/src/utils\wpa_debug.c **** #include <sys/stat.h>
  20:C:/Users/stapi/OneDrive/Desktop/GD32VW553/V1_MQTT_OK/GD32VW55X_Wifi_BLE_SDK/GD32VW55x_RELEASE_V1.0.2/MSDK/wpa_supplicant/src/utils\wpa_debug.c **** #include <fcntl.h>
  21:C:/Users/stapi/OneDrive/Desktop/GD32VW553/V1_MQTT_OK/GD32VW55X_Wifi_BLE_SDK/GD32VW55x_RELEASE_V1.0.2/MSDK/wpa_supplicant/src/utils\wpa_debug.c **** #include <string.h>
  22:C:/Users/stapi/OneDrive/Desktop/GD32VW553/V1_MQTT_OK/GD32VW55X_Wifi_BLE_SDK/GD32VW55x_RELEASE_V1.0.2/MSDK/wpa_supplicant/src/utils\wpa_debug.c **** #include <stdio.h>
  23:C:/Users/stapi/OneDrive/Desktop/GD32VW553/V1_MQTT_OK/GD32VW55X_Wifi_BLE_SDK/GD32VW55x_RELEASE_V1.0.2/MSDK/wpa_supplicant/src/utils\wpa_debug.c **** 
  24:C:/Users/stapi/OneDrive/Desktop/GD32VW553/V1_MQTT_OK/GD32VW55X_Wifi_BLE_SDK/GD32VW55x_RELEASE_V1.0.2/MSDK/wpa_supplicant/src/utils\wpa_debug.c **** static FILE *wpa_debug_tracing_file = NULL;
  25:C:/Users/stapi/OneDrive/Desktop/GD32VW553/V1_MQTT_OK/GD32VW55X_Wifi_BLE_SDK/GD32VW55x_RELEASE_V1.0.2/MSDK/wpa_supplicant/src/utils\wpa_debug.c **** 
  26:C:/Users/stapi/OneDrive/Desktop/GD32VW553/V1_MQTT_OK/GD32VW55X_Wifi_BLE_SDK/GD32VW55x_RELEASE_V1.0.2/MSDK/wpa_supplicant/src/utils\wpa_debug.c **** #define WPAS_TRACE_PFX "wpas <%d>: "
  27:C:/Users/stapi/OneDrive/Desktop/GD32VW553/V1_MQTT_OK/GD32VW55X_Wifi_BLE_SDK/GD32VW55x_RELEASE_V1.0.2/MSDK/wpa_supplicant/src/utils\wpa_debug.c **** #endif /* CONFIG_DEBUG_LINUX_TRACING */
  28:C:/Users/stapi/OneDrive/Desktop/GD32VW553/V1_MQTT_OK/GD32VW55X_Wifi_BLE_SDK/GD32VW55x_RELEASE_V1.0.2/MSDK/wpa_supplicant/src/utils\wpa_debug.c **** 
  29:C:/Users/stapi/OneDrive/Desktop/GD32VW553/V1_MQTT_OK/GD32VW55X_Wifi_BLE_SDK/GD32VW55x_RELEASE_V1.0.2/MSDK/wpa_supplicant/src/utils\wpa_debug.c **** #ifdef CONFIG_GDWIFI
  30:C:/Users/stapi/OneDrive/Desktop/GD32VW553/V1_MQTT_OK/GD32VW55X_Wifi_BLE_SDK/GD32VW55x_RELEASE_V1.0.2/MSDK/wpa_supplicant/src/utils\wpa_debug.c **** #include <string.h>
  31:C:/Users/stapi/OneDrive/Desktop/GD32VW553/V1_MQTT_OK/GD32VW55X_Wifi_BLE_SDK/GD32VW55x_RELEASE_V1.0.2/MSDK/wpa_supplicant/src/utils\wpa_debug.c **** #include <stdio.h>
  32:C:/Users/stapi/OneDrive/Desktop/GD32VW553/V1_MQTT_OK/GD32VW55X_Wifi_BLE_SDK/GD32VW55x_RELEASE_V1.0.2/MSDK/wpa_supplicant/src/utils\wpa_debug.c **** #endif
  33:C:/Users/stapi/OneDrive/Desktop/GD32VW553/V1_MQTT_OK/GD32VW55X_Wifi_BLE_SDK/GD32VW55x_RELEASE_V1.0.2/MSDK/wpa_supplicant/src/utils\wpa_debug.c **** 
  34:C:/Users/stapi/OneDrive/Desktop/GD32VW553/V1_MQTT_OK/GD32VW55X_Wifi_BLE_SDK/GD32VW55x_RELEASE_V1.0.2/MSDK/wpa_supplicant/src/utils\wpa_debug.c **** int wpa_debug_level = MSG_INFO;
  35:C:/Users/stapi/OneDrive/Desktop/GD32VW553/V1_MQTT_OK/GD32VW55X_Wifi_BLE_SDK/GD32VW55x_RELEASE_V1.0.2/MSDK/wpa_supplicant/src/utils\wpa_debug.c **** int wpa_debug_show_keys = 0;
  36:C:/Users/stapi/OneDrive/Desktop/GD32VW553/V1_MQTT_OK/GD32VW55X_Wifi_BLE_SDK/GD32VW55x_RELEASE_V1.0.2/MSDK/wpa_supplicant/src/utils\wpa_debug.c **** int wpa_debug_timestamp = 0;
  37:C:/Users/stapi/OneDrive/Desktop/GD32VW553/V1_MQTT_OK/GD32VW55X_Wifi_BLE_SDK/GD32VW55x_RELEASE_V1.0.2/MSDK/wpa_supplicant/src/utils\wpa_debug.c **** int wpa_debug_syslog = 0;
  38:C:/Users/stapi/OneDrive/Desktop/GD32VW553/V1_MQTT_OK/GD32VW55X_Wifi_BLE_SDK/GD32VW55x_RELEASE_V1.0.2/MSDK/wpa_supplicant/src/utils\wpa_debug.c **** #ifndef CONFIG_NO_STDOUT_DEBUG
  39:C:/Users/stapi/OneDrive/Desktop/GD32VW553/V1_MQTT_OK/GD32VW55X_Wifi_BLE_SDK/GD32VW55x_RELEASE_V1.0.2/MSDK/wpa_supplicant/src/utils\wpa_debug.c **** static FILE *out_file = NULL;
  40:C:/Users/stapi/OneDrive/Desktop/GD32VW553/V1_MQTT_OK/GD32VW55X_Wifi_BLE_SDK/GD32VW55x_RELEASE_V1.0.2/MSDK/wpa_supplicant/src/utils\wpa_debug.c **** #endif /* CONFIG_NO_STDOUT_DEBUG */
  41:C:/Users/stapi/OneDrive/Desktop/GD32VW553/V1_MQTT_OK/GD32VW55X_Wifi_BLE_SDK/GD32VW55x_RELEASE_V1.0.2/MSDK/wpa_supplicant/src/utils\wpa_debug.c **** 
  42:C:/Users/stapi/OneDrive/Desktop/GD32VW553/V1_MQTT_OK/GD32VW55X_Wifi_BLE_SDK/GD32VW55x_RELEASE_V1.0.2/MSDK/wpa_supplicant/src/utils\wpa_debug.c **** 
  43:C:/Users/stapi/OneDrive/Desktop/GD32VW553/V1_MQTT_OK/GD32VW55X_Wifi_BLE_SDK/GD32VW55x_RELEASE_V1.0.2/MSDK/wpa_supplicant/src/utils\wpa_debug.c **** #ifdef CONFIG_ANDROID_LOG
  44:C:/Users/stapi/OneDrive/Desktop/GD32VW553/V1_MQTT_OK/GD32VW55X_Wifi_BLE_SDK/GD32VW55x_RELEASE_V1.0.2/MSDK/wpa_supplicant/src/utils\wpa_debug.c **** 
  45:C:/Users/stapi/OneDrive/Desktop/GD32VW553/V1_MQTT_OK/GD32VW55X_Wifi_BLE_SDK/GD32VW55x_RELEASE_V1.0.2/MSDK/wpa_supplicant/src/utils\wpa_debug.c **** #include <android/log.h>
  46:C:/Users/stapi/OneDrive/Desktop/GD32VW553/V1_MQTT_OK/GD32VW55X_Wifi_BLE_SDK/GD32VW55x_RELEASE_V1.0.2/MSDK/wpa_supplicant/src/utils\wpa_debug.c **** 
  47:C:/Users/stapi/OneDrive/Desktop/GD32VW553/V1_MQTT_OK/GD32VW55X_Wifi_BLE_SDK/GD32VW55x_RELEASE_V1.0.2/MSDK/wpa_supplicant/src/utils\wpa_debug.c **** #ifndef ANDROID_LOG_NAME
  48:C:/Users/stapi/OneDrive/Desktop/GD32VW553/V1_MQTT_OK/GD32VW55X_Wifi_BLE_SDK/GD32VW55x_RELEASE_V1.0.2/MSDK/wpa_supplicant/src/utils\wpa_debug.c **** #define ANDROID_LOG_NAME	"wpa_supplicant"
  49:C:/Users/stapi/OneDrive/Desktop/GD32VW553/V1_MQTT_OK/GD32VW55X_Wifi_BLE_SDK/GD32VW55x_RELEASE_V1.0.2/MSDK/wpa_supplicant/src/utils\wpa_debug.c **** #endif /* ANDROID_LOG_NAME */
  50:C:/Users/stapi/OneDrive/Desktop/GD32VW553/V1_MQTT_OK/GD32VW55X_Wifi_BLE_SDK/GD32VW55x_RELEASE_V1.0.2/MSDK/wpa_supplicant/src/utils\wpa_debug.c **** 
  51:C:/Users/stapi/OneDrive/Desktop/GD32VW553/V1_MQTT_OK/GD32VW55X_Wifi_BLE_SDK/GD32VW55x_RELEASE_V1.0.2/MSDK/wpa_supplicant/src/utils\wpa_debug.c **** static int wpa_to_android_level(int level)
  52:C:/Users/stapi/OneDrive/Desktop/GD32VW553/V1_MQTT_OK/GD32VW55X_Wifi_BLE_SDK/GD32VW55x_RELEASE_V1.0.2/MSDK/wpa_supplicant/src/utils\wpa_debug.c **** {
  53:C:/Users/stapi/OneDrive/Desktop/GD32VW553/V1_MQTT_OK/GD32VW55X_Wifi_BLE_SDK/GD32VW55x_RELEASE_V1.0.2/MSDK/wpa_supplicant/src/utils\wpa_debug.c **** 	if (level == MSG_ERROR)
  54:C:/Users/stapi/OneDrive/Desktop/GD32VW553/V1_MQTT_OK/GD32VW55X_Wifi_BLE_SDK/GD32VW55x_RELEASE_V1.0.2/MSDK/wpa_supplicant/src/utils\wpa_debug.c **** 		return ANDROID_LOG_ERROR;
  55:C:/Users/stapi/OneDrive/Desktop/GD32VW553/V1_MQTT_OK/GD32VW55X_Wifi_BLE_SDK/GD32VW55x_RELEASE_V1.0.2/MSDK/wpa_supplicant/src/utils\wpa_debug.c **** 	if (level == MSG_WARNING)
  56:C:/Users/stapi/OneDrive/Desktop/GD32VW553/V1_MQTT_OK/GD32VW55X_Wifi_BLE_SDK/GD32VW55x_RELEASE_V1.0.2/MSDK/wpa_supplicant/src/utils\wpa_debug.c **** 		return ANDROID_LOG_WARN;
  57:C:/Users/stapi/OneDrive/Desktop/GD32VW553/V1_MQTT_OK/GD32VW55X_Wifi_BLE_SDK/GD32VW55x_RELEASE_V1.0.2/MSDK/wpa_supplicant/src/utils\wpa_debug.c **** 	if (level == MSG_INFO)
  58:C:/Users/stapi/OneDrive/Desktop/GD32VW553/V1_MQTT_OK/GD32VW55X_Wifi_BLE_SDK/GD32VW55x_RELEASE_V1.0.2/MSDK/wpa_supplicant/src/utils\wpa_debug.c **** 		return ANDROID_LOG_INFO;
  59:C:/Users/stapi/OneDrive/Desktop/GD32VW553/V1_MQTT_OK/GD32VW55X_Wifi_BLE_SDK/GD32VW55x_RELEASE_V1.0.2/MSDK/wpa_supplicant/src/utils\wpa_debug.c **** 	return ANDROID_LOG_DEBUG;
  60:C:/Users/stapi/OneDrive/Desktop/GD32VW553/V1_MQTT_OK/GD32VW55X_Wifi_BLE_SDK/GD32VW55x_RELEASE_V1.0.2/MSDK/wpa_supplicant/src/utils\wpa_debug.c **** }
  61:C:/Users/stapi/OneDrive/Desktop/GD32VW553/V1_MQTT_OK/GD32VW55X_Wifi_BLE_SDK/GD32VW55x_RELEASE_V1.0.2/MSDK/wpa_supplicant/src/utils\wpa_debug.c **** 
  62:C:/Users/stapi/OneDrive/Desktop/GD32VW553/V1_MQTT_OK/GD32VW55X_Wifi_BLE_SDK/GD32VW55x_RELEASE_V1.0.2/MSDK/wpa_supplicant/src/utils\wpa_debug.c **** #endif /* CONFIG_ANDROID_LOG */
  63:C:/Users/stapi/OneDrive/Desktop/GD32VW553/V1_MQTT_OK/GD32VW55X_Wifi_BLE_SDK/GD32VW55x_RELEASE_V1.0.2/MSDK/wpa_supplicant/src/utils\wpa_debug.c **** 
  64:C:/Users/stapi/OneDrive/Desktop/GD32VW553/V1_MQTT_OK/GD32VW55X_Wifi_BLE_SDK/GD32VW55x_RELEASE_V1.0.2/MSDK/wpa_supplicant/src/utils\wpa_debug.c **** #ifndef CONFIG_NO_STDOUT_DEBUG
  65:C:/Users/stapi/OneDrive/Desktop/GD32VW553/V1_MQTT_OK/GD32VW55X_Wifi_BLE_SDK/GD32VW55x_RELEASE_V1.0.2/MSDK/wpa_supplicant/src/utils\wpa_debug.c **** 
  66:C:/Users/stapi/OneDrive/Desktop/GD32VW553/V1_MQTT_OK/GD32VW55X_Wifi_BLE_SDK/GD32VW55x_RELEASE_V1.0.2/MSDK/wpa_supplicant/src/utils\wpa_debug.c **** #ifdef CONFIG_DEBUG_FILE
  67:C:/Users/stapi/OneDrive/Desktop/GD32VW553/V1_MQTT_OK/GD32VW55X_Wifi_BLE_SDK/GD32VW55x_RELEASE_V1.0.2/MSDK/wpa_supplicant/src/utils\wpa_debug.c **** #include <sys/types.h>
  68:C:/Users/stapi/OneDrive/Desktop/GD32VW553/V1_MQTT_OK/GD32VW55X_Wifi_BLE_SDK/GD32VW55x_RELEASE_V1.0.2/MSDK/wpa_supplicant/src/utils\wpa_debug.c **** #include <sys/stat.h>
  69:C:/Users/stapi/OneDrive/Desktop/GD32VW553/V1_MQTT_OK/GD32VW55X_Wifi_BLE_SDK/GD32VW55x_RELEASE_V1.0.2/MSDK/wpa_supplicant/src/utils\wpa_debug.c **** #include <fcntl.h>
  70:C:/Users/stapi/OneDrive/Desktop/GD32VW553/V1_MQTT_OK/GD32VW55X_Wifi_BLE_SDK/GD32VW55x_RELEASE_V1.0.2/MSDK/wpa_supplicant/src/utils\wpa_debug.c **** #endif /* CONFIG_DEBUG_FILE */
  71:C:/Users/stapi/OneDrive/Desktop/GD32VW553/V1_MQTT_OK/GD32VW55X_Wifi_BLE_SDK/GD32VW55x_RELEASE_V1.0.2/MSDK/wpa_supplicant/src/utils\wpa_debug.c **** 
  72:C:/Users/stapi/OneDrive/Desktop/GD32VW553/V1_MQTT_OK/GD32VW55X_Wifi_BLE_SDK/GD32VW55x_RELEASE_V1.0.2/MSDK/wpa_supplicant/src/utils\wpa_debug.c **** 
  73:C:/Users/stapi/OneDrive/Desktop/GD32VW553/V1_MQTT_OK/GD32VW55X_Wifi_BLE_SDK/GD32VW55x_RELEASE_V1.0.2/MSDK/wpa_supplicant/src/utils\wpa_debug.c **** void wpa_debug_print_timestamp(void)
  74:C:/Users/stapi/OneDrive/Desktop/GD32VW553/V1_MQTT_OK/GD32VW55X_Wifi_BLE_SDK/GD32VW55x_RELEASE_V1.0.2/MSDK/wpa_supplicant/src/utils\wpa_debug.c **** {
  20              		.loc 1 74 1
  21              		.cfi_startproc
  75:C:/Users/stapi/OneDrive/Desktop/GD32VW553/V1_MQTT_OK/GD32VW55X_Wifi_BLE_SDK/GD32VW55x_RELEASE_V1.0.2/MSDK/wpa_supplicant/src/utils\wpa_debug.c **** #ifndef CONFIG_ANDROID_LOG
  76:C:/Users/stapi/OneDrive/Desktop/GD32VW553/V1_MQTT_OK/GD32VW55X_Wifi_BLE_SDK/GD32VW55x_RELEASE_V1.0.2/MSDK/wpa_supplicant/src/utils\wpa_debug.c **** 	struct os_time tv;
  22              		.loc 1 76 2
  77:C:/Users/stapi/OneDrive/Desktop/GD32VW553/V1_MQTT_OK/GD32VW55X_Wifi_BLE_SDK/GD32VW55x_RELEASE_V1.0.2/MSDK/wpa_supplicant/src/utils\wpa_debug.c **** 
  78:C:/Users/stapi/OneDrive/Desktop/GD32VW553/V1_MQTT_OK/GD32VW55X_Wifi_BLE_SDK/GD32VW55x_RELEASE_V1.0.2/MSDK/wpa_supplicant/src/utils\wpa_debug.c **** 	if (!wpa_debug_timestamp)
  23              		.loc 1 78 2
  24              		.loc 1 78 5 is_stmt 0
  25 0000 B7070000 		lui	a5,%hi(.LANCHOR0)
  26 0004 83A70700 		lw	a5,%lo(.LANCHOR0)(a5)
  27 0008 9DCF     		beq	a5,zero,.L8
  74:C:/Users/stapi/OneDrive/Desktop/GD32VW553/V1_MQTT_OK/GD32VW55X_Wifi_BLE_SDK/GD32VW55x_RELEASE_V1.0.2/MSDK/wpa_supplicant/src/utils\wpa_debug.c **** #ifndef CONFIG_ANDROID_LOG
  28              		.loc 1 74 1
  29 000a 17030000 		call	t0,__riscv_save_0
  29      E7020300 
  30              		.cfi_offset 1, -4
  31              		.cfi_def_cfa_offset 16
  32              	.LBB8:
  33              	.LBB9:
  79:C:/Users/stapi/OneDrive/Desktop/GD32VW553/V1_MQTT_OK/GD32VW55X_Wifi_BLE_SDK/GD32VW55x_RELEASE_V1.0.2/MSDK/wpa_supplicant/src/utils\wpa_debug.c **** 		return;
  80:C:/Users/stapi/OneDrive/Desktop/GD32VW553/V1_MQTT_OK/GD32VW55X_Wifi_BLE_SDK/GD32VW55x_RELEASE_V1.0.2/MSDK/wpa_supplicant/src/utils\wpa_debug.c **** 
  81:C:/Users/stapi/OneDrive/Desktop/GD32VW553/V1_MQTT_OK/GD32VW55X_Wifi_BLE_SDK/GD32VW55x_RELEASE_V1.0.2/MSDK/wpa_supplicant/src/utils\wpa_debug.c **** 	os_get_time(&tv);
  34              		.loc 1 81 2 is_stmt 1
  35              	.LBE9:
  36              	.LBE8:
  74:C:/Users/stapi/OneDrive/Desktop/GD32VW553/V1_MQTT_OK/GD32VW55X_Wifi_BLE_SDK/GD32VW55x_RELEASE_V1.0.2/MSDK/wpa_supplicant/src/utils\wpa_debug.c **** #ifndef CONFIG_ANDROID_LOG
  37              		.loc 1 74 1 is_stmt 0
  38 0012 4111     		addi	sp,sp,-16
  39              		.cfi_def_cfa_offset 32
  40              	.LBB11:
  41              	.LBB10:
  42              		.loc 1 81 2
  43 0014 2800     		addi	a0,sp,8
  44 0016 97000000 		call	os_get_time
  44      E7800000 
  45              	.LVL0:
  82:C:/Users/stapi/OneDrive/Desktop/GD32VW553/V1_MQTT_OK/GD32VW55X_Wifi_BLE_SDK/GD32VW55x_RELEASE_V1.0.2/MSDK/wpa_supplicant/src/utils\wpa_debug.c **** #ifdef CONFIG_DEBUG_FILE
  83:C:/Users/stapi/OneDrive/Desktop/GD32VW553/V1_MQTT_OK/GD32VW55X_Wifi_BLE_SDK/GD32VW55x_RELEASE_V1.0.2/MSDK/wpa_supplicant/src/utils\wpa_debug.c **** 	if (out_file)
  84:C:/Users/stapi/OneDrive/Desktop/GD32VW553/V1_MQTT_OK/GD32VW55X_Wifi_BLE_SDK/GD32VW55x_RELEASE_V1.0.2/MSDK/wpa_supplicant/src/utils\wpa_debug.c **** 		fprintf(out_file, "%ld.%06u: ", (long) tv.sec,
  85:C:/Users/stapi/OneDrive/Desktop/GD32VW553/V1_MQTT_OK/GD32VW55X_Wifi_BLE_SDK/GD32VW55x_RELEASE_V1.0.2/MSDK/wpa_supplicant/src/utils\wpa_debug.c **** 			(unsigned int) tv.usec);
  86:C:/Users/stapi/OneDrive/Desktop/GD32VW553/V1_MQTT_OK/GD32VW55X_Wifi_BLE_SDK/GD32VW55x_RELEASE_V1.0.2/MSDK/wpa_supplicant/src/utils\wpa_debug.c **** #endif /* CONFIG_DEBUG_FILE */
  87:C:/Users/stapi/OneDrive/Desktop/GD32VW553/V1_MQTT_OK/GD32VW55X_Wifi_BLE_SDK/GD32VW55x_RELEASE_V1.0.2/MSDK/wpa_supplicant/src/utils\wpa_debug.c **** 	if (!out_file && !wpa_debug_syslog)
  46              		.loc 1 87 2 is_stmt 1
  47              		.loc 1 87 16 is_stmt 0
  48 001e B7070000 		lui	a5,%hi(.LANCHOR1)
  49 0022 83A70700 		lw	a5,%lo(.LANCHOR1)(a5)
  50 0026 99EB     		bne	a5,zero,.L1
  88:C:/Users/stapi/OneDrive/Desktop/GD32VW553/V1_MQTT_OK/GD32VW55X_Wifi_BLE_SDK/GD32VW55x_RELEASE_V1.0.2/MSDK/wpa_supplicant/src/utils\wpa_debug.c **** 		printf("%ld.%06u: ", (long) tv.sec, (unsigned int) tv.usec);
  51              		.loc 1 88 3 is_stmt 1
  52 0028 3246     		lw	a2,12(sp)
  53 002a A245     		lw	a1,8(sp)
  54 002c 37050000 		lui	a0,%hi(.LC0)
  55 0030 13050500 		addi	a0,a0,%lo(.LC0)
  56 0034 97000000 		call	printf
  56      E7800000 
  57              	.LVL1:
  58              	.L1:
  59              	.LBE10:
  60              	.LBE11:
  89:C:/Users/stapi/OneDrive/Desktop/GD32VW553/V1_MQTT_OK/GD32VW55X_Wifi_BLE_SDK/GD32VW55x_RELEASE_V1.0.2/MSDK/wpa_supplicant/src/utils\wpa_debug.c **** #endif /* CONFIG_ANDROID_LOG */
  90:C:/Users/stapi/OneDrive/Desktop/GD32VW553/V1_MQTT_OK/GD32VW55X_Wifi_BLE_SDK/GD32VW55x_RELEASE_V1.0.2/MSDK/wpa_supplicant/src/utils\wpa_debug.c **** }
  61              		.loc 1 90 1 is_stmt 0
  62 003c 4101     		addi	sp,sp,16
  63              		.cfi_def_cfa_offset 0
  64 003e 17030000 		tail	__riscv_restore_0
  64      67000300 
  65              		.cfi_restore 1
  66              		.cfi_def_cfa_offset -16
  67              	.L8:
  68              		.cfi_def_cfa_offset 0
  69 0046 8280     		ret
  70              		.cfi_endproc
  71              	.LFE71:
  73              		.section	.rodata._wpa_hexdump_ascii.str1.4,"aMS",@progbits,1
  74              		.align	2
  75              	.LC1:
  76 0000 2573202D 		.string	"%s - hexdump_ascii(len=%lu): [REMOVED]\n"
  76      20686578 
  76      64756D70 
  76      5F617363 
  76      6969286C 
  77              		.align	2
  78              	.LC2:
  79 0028 2573202D 		.string	"%s - hexdump_ascii(len=%lu): [NULL]\n"
  79      20686578 
  79      64756D70 
  79      5F617363 
  79      6969286C 
  80 004d 000000   		.align	2
  81              	.LC3:
  82 0050 2573202D 		.string	"%s - hexdump_ascii(len=%lu):\n"
  82      20686578 
  82      64756D70 
  82      5F617363 
  82      6969286C 
  83 006e 0000     		.align	2
  84              	.LC4:
  85 0070 20202020 		.string	"    "
  85      00
  86 0075 000000   		.align	2
  87              	.LC5:
  88 0078 20253032 		.string	" %02x"
  88      7800
  89 007e 0000     		.align	2
  90              	.LC6:
  91 0080 20202000 		.string	"   "
  92              		.section	.text._wpa_hexdump_ascii,"ax",@progbits
  93              		.align	1
  95              	_wpa_hexdump_ascii:
  96              	.LFB76:
  91:C:/Users/stapi/OneDrive/Desktop/GD32VW553/V1_MQTT_OK/GD32VW55X_Wifi_BLE_SDK/GD32VW55x_RELEASE_V1.0.2/MSDK/wpa_supplicant/src/utils\wpa_debug.c **** 
  92:C:/Users/stapi/OneDrive/Desktop/GD32VW553/V1_MQTT_OK/GD32VW55X_Wifi_BLE_SDK/GD32VW55x_RELEASE_V1.0.2/MSDK/wpa_supplicant/src/utils\wpa_debug.c **** 
  93:C:/Users/stapi/OneDrive/Desktop/GD32VW553/V1_MQTT_OK/GD32VW55X_Wifi_BLE_SDK/GD32VW55x_RELEASE_V1.0.2/MSDK/wpa_supplicant/src/utils\wpa_debug.c **** #ifdef CONFIG_DEBUG_SYSLOG
  94:C:/Users/stapi/OneDrive/Desktop/GD32VW553/V1_MQTT_OK/GD32VW55X_Wifi_BLE_SDK/GD32VW55x_RELEASE_V1.0.2/MSDK/wpa_supplicant/src/utils\wpa_debug.c **** #ifndef LOG_HOSTAPD
  95:C:/Users/stapi/OneDrive/Desktop/GD32VW553/V1_MQTT_OK/GD32VW55X_Wifi_BLE_SDK/GD32VW55x_RELEASE_V1.0.2/MSDK/wpa_supplicant/src/utils\wpa_debug.c **** #define LOG_HOSTAPD LOG_DAEMON
  96:C:/Users/stapi/OneDrive/Desktop/GD32VW553/V1_MQTT_OK/GD32VW55X_Wifi_BLE_SDK/GD32VW55x_RELEASE_V1.0.2/MSDK/wpa_supplicant/src/utils\wpa_debug.c **** #endif /* LOG_HOSTAPD */
  97:C:/Users/stapi/OneDrive/Desktop/GD32VW553/V1_MQTT_OK/GD32VW55X_Wifi_BLE_SDK/GD32VW55x_RELEASE_V1.0.2/MSDK/wpa_supplicant/src/utils\wpa_debug.c **** 
  98:C:/Users/stapi/OneDrive/Desktop/GD32VW553/V1_MQTT_OK/GD32VW55X_Wifi_BLE_SDK/GD32VW55x_RELEASE_V1.0.2/MSDK/wpa_supplicant/src/utils\wpa_debug.c **** void wpa_debug_open_syslog(void)
  99:C:/Users/stapi/OneDrive/Desktop/GD32VW553/V1_MQTT_OK/GD32VW55X_Wifi_BLE_SDK/GD32VW55x_RELEASE_V1.0.2/MSDK/wpa_supplicant/src/utils\wpa_debug.c **** {
 100:C:/Users/stapi/OneDrive/Desktop/GD32VW553/V1_MQTT_OK/GD32VW55X_Wifi_BLE_SDK/GD32VW55x_RELEASE_V1.0.2/MSDK/wpa_supplicant/src/utils\wpa_debug.c **** 	openlog("wpa_supplicant", LOG_PID | LOG_NDELAY, LOG_HOSTAPD);
 101:C:/Users/stapi/OneDrive/Desktop/GD32VW553/V1_MQTT_OK/GD32VW55X_Wifi_BLE_SDK/GD32VW55x_RELEASE_V1.0.2/MSDK/wpa_supplicant/src/utils\wpa_debug.c **** 	wpa_debug_syslog++;
 102:C:/Users/stapi/OneDrive/Desktop/GD32VW553/V1_MQTT_OK/GD32VW55X_Wifi_BLE_SDK/GD32VW55x_RELEASE_V1.0.2/MSDK/wpa_supplicant/src/utils\wpa_debug.c **** }
 103:C:/Users/stapi/OneDrive/Desktop/GD32VW553/V1_MQTT_OK/GD32VW55X_Wifi_BLE_SDK/GD32VW55x_RELEASE_V1.0.2/MSDK/wpa_supplicant/src/utils\wpa_debug.c **** 
 104:C:/Users/stapi/OneDrive/Desktop/GD32VW553/V1_MQTT_OK/GD32VW55X_Wifi_BLE_SDK/GD32VW55x_RELEASE_V1.0.2/MSDK/wpa_supplicant/src/utils\wpa_debug.c **** 
 105:C:/Users/stapi/OneDrive/Desktop/GD32VW553/V1_MQTT_OK/GD32VW55X_Wifi_BLE_SDK/GD32VW55x_RELEASE_V1.0.2/MSDK/wpa_supplicant/src/utils\wpa_debug.c **** void wpa_debug_close_syslog(void)
 106:C:/Users/stapi/OneDrive/Desktop/GD32VW553/V1_MQTT_OK/GD32VW55X_Wifi_BLE_SDK/GD32VW55x_RELEASE_V1.0.2/MSDK/wpa_supplicant/src/utils\wpa_debug.c **** {
 107:C:/Users/stapi/OneDrive/Desktop/GD32VW553/V1_MQTT_OK/GD32VW55X_Wifi_BLE_SDK/GD32VW55x_RELEASE_V1.0.2/MSDK/wpa_supplicant/src/utils\wpa_debug.c **** 	if (wpa_debug_syslog)
 108:C:/Users/stapi/OneDrive/Desktop/GD32VW553/V1_MQTT_OK/GD32VW55X_Wifi_BLE_SDK/GD32VW55x_RELEASE_V1.0.2/MSDK/wpa_supplicant/src/utils\wpa_debug.c **** 		closelog();
 109:C:/Users/stapi/OneDrive/Desktop/GD32VW553/V1_MQTT_OK/GD32VW55X_Wifi_BLE_SDK/GD32VW55x_RELEASE_V1.0.2/MSDK/wpa_supplicant/src/utils\wpa_debug.c **** }
 110:C:/Users/stapi/OneDrive/Desktop/GD32VW553/V1_MQTT_OK/GD32VW55X_Wifi_BLE_SDK/GD32VW55x_RELEASE_V1.0.2/MSDK/wpa_supplicant/src/utils\wpa_debug.c **** 
 111:C:/Users/stapi/OneDrive/Desktop/GD32VW553/V1_MQTT_OK/GD32VW55X_Wifi_BLE_SDK/GD32VW55x_RELEASE_V1.0.2/MSDK/wpa_supplicant/src/utils\wpa_debug.c **** 
 112:C:/Users/stapi/OneDrive/Desktop/GD32VW553/V1_MQTT_OK/GD32VW55X_Wifi_BLE_SDK/GD32VW55x_RELEASE_V1.0.2/MSDK/wpa_supplicant/src/utils\wpa_debug.c **** static int syslog_priority(int level)
 113:C:/Users/stapi/OneDrive/Desktop/GD32VW553/V1_MQTT_OK/GD32VW55X_Wifi_BLE_SDK/GD32VW55x_RELEASE_V1.0.2/MSDK/wpa_supplicant/src/utils\wpa_debug.c **** {
 114:C:/Users/stapi/OneDrive/Desktop/GD32VW553/V1_MQTT_OK/GD32VW55X_Wifi_BLE_SDK/GD32VW55x_RELEASE_V1.0.2/MSDK/wpa_supplicant/src/utils\wpa_debug.c **** 	switch (level) {
 115:C:/Users/stapi/OneDrive/Desktop/GD32VW553/V1_MQTT_OK/GD32VW55X_Wifi_BLE_SDK/GD32VW55x_RELEASE_V1.0.2/MSDK/wpa_supplicant/src/utils\wpa_debug.c **** 	case MSG_MSGDUMP:
 116:C:/Users/stapi/OneDrive/Desktop/GD32VW553/V1_MQTT_OK/GD32VW55X_Wifi_BLE_SDK/GD32VW55x_RELEASE_V1.0.2/MSDK/wpa_supplicant/src/utils\wpa_debug.c **** 	case MSG_DEBUG:
 117:C:/Users/stapi/OneDrive/Desktop/GD32VW553/V1_MQTT_OK/GD32VW55X_Wifi_BLE_SDK/GD32VW55x_RELEASE_V1.0.2/MSDK/wpa_supplicant/src/utils\wpa_debug.c **** 		return LOG_DEBUG;
 118:C:/Users/stapi/OneDrive/Desktop/GD32VW553/V1_MQTT_OK/GD32VW55X_Wifi_BLE_SDK/GD32VW55x_RELEASE_V1.0.2/MSDK/wpa_supplicant/src/utils\wpa_debug.c **** 	case MSG_INFO:
 119:C:/Users/stapi/OneDrive/Desktop/GD32VW553/V1_MQTT_OK/GD32VW55X_Wifi_BLE_SDK/GD32VW55x_RELEASE_V1.0.2/MSDK/wpa_supplicant/src/utils\wpa_debug.c **** 		return LOG_NOTICE;
 120:C:/Users/stapi/OneDrive/Desktop/GD32VW553/V1_MQTT_OK/GD32VW55X_Wifi_BLE_SDK/GD32VW55x_RELEASE_V1.0.2/MSDK/wpa_supplicant/src/utils\wpa_debug.c **** 	case MSG_WARNING:
 121:C:/Users/stapi/OneDrive/Desktop/GD32VW553/V1_MQTT_OK/GD32VW55X_Wifi_BLE_SDK/GD32VW55x_RELEASE_V1.0.2/MSDK/wpa_supplicant/src/utils\wpa_debug.c **** 		return LOG_WARNING;
 122:C:/Users/stapi/OneDrive/Desktop/GD32VW553/V1_MQTT_OK/GD32VW55X_Wifi_BLE_SDK/GD32VW55x_RELEASE_V1.0.2/MSDK/wpa_supplicant/src/utils\wpa_debug.c **** 	case MSG_ERROR:
 123:C:/Users/stapi/OneDrive/Desktop/GD32VW553/V1_MQTT_OK/GD32VW55X_Wifi_BLE_SDK/GD32VW55x_RELEASE_V1.0.2/MSDK/wpa_supplicant/src/utils\wpa_debug.c **** 		return LOG_ERR;
 124:C:/Users/stapi/OneDrive/Desktop/GD32VW553/V1_MQTT_OK/GD32VW55X_Wifi_BLE_SDK/GD32VW55x_RELEASE_V1.0.2/MSDK/wpa_supplicant/src/utils\wpa_debug.c **** 	}
 125:C:/Users/stapi/OneDrive/Desktop/GD32VW553/V1_MQTT_OK/GD32VW55X_Wifi_BLE_SDK/GD32VW55x_RELEASE_V1.0.2/MSDK/wpa_supplicant/src/utils\wpa_debug.c **** 	return LOG_INFO;
 126:C:/Users/stapi/OneDrive/Desktop/GD32VW553/V1_MQTT_OK/GD32VW55X_Wifi_BLE_SDK/GD32VW55x_RELEASE_V1.0.2/MSDK/wpa_supplicant/src/utils\wpa_debug.c **** }
 127:C:/Users/stapi/OneDrive/Desktop/GD32VW553/V1_MQTT_OK/GD32VW55X_Wifi_BLE_SDK/GD32VW55x_RELEASE_V1.0.2/MSDK/wpa_supplicant/src/utils\wpa_debug.c **** #endif /* CONFIG_DEBUG_SYSLOG */
 128:C:/Users/stapi/OneDrive/Desktop/GD32VW553/V1_MQTT_OK/GD32VW55X_Wifi_BLE_SDK/GD32VW55x_RELEASE_V1.0.2/MSDK/wpa_supplicant/src/utils\wpa_debug.c **** 
 129:C:/Users/stapi/OneDrive/Desktop/GD32VW553/V1_MQTT_OK/GD32VW55X_Wifi_BLE_SDK/GD32VW55x_RELEASE_V1.0.2/MSDK/wpa_supplicant/src/utils\wpa_debug.c **** 
 130:C:/Users/stapi/OneDrive/Desktop/GD32VW553/V1_MQTT_OK/GD32VW55X_Wifi_BLE_SDK/GD32VW55x_RELEASE_V1.0.2/MSDK/wpa_supplicant/src/utils\wpa_debug.c **** #ifdef CONFIG_DEBUG_LINUX_TRACING
 131:C:/Users/stapi/OneDrive/Desktop/GD32VW553/V1_MQTT_OK/GD32VW55X_Wifi_BLE_SDK/GD32VW55x_RELEASE_V1.0.2/MSDK/wpa_supplicant/src/utils\wpa_debug.c **** 
 132:C:/Users/stapi/OneDrive/Desktop/GD32VW553/V1_MQTT_OK/GD32VW55X_Wifi_BLE_SDK/GD32VW55x_RELEASE_V1.0.2/MSDK/wpa_supplicant/src/utils\wpa_debug.c **** int wpa_debug_open_linux_tracing(void)
 133:C:/Users/stapi/OneDrive/Desktop/GD32VW553/V1_MQTT_OK/GD32VW55X_Wifi_BLE_SDK/GD32VW55x_RELEASE_V1.0.2/MSDK/wpa_supplicant/src/utils\wpa_debug.c **** {
 134:C:/Users/stapi/OneDrive/Desktop/GD32VW553/V1_MQTT_OK/GD32VW55X_Wifi_BLE_SDK/GD32VW55x_RELEASE_V1.0.2/MSDK/wpa_supplicant/src/utils\wpa_debug.c **** 	int mounts, trace_fd;
 135:C:/Users/stapi/OneDrive/Desktop/GD32VW553/V1_MQTT_OK/GD32VW55X_Wifi_BLE_SDK/GD32VW55x_RELEASE_V1.0.2/MSDK/wpa_supplicant/src/utils\wpa_debug.c **** 	char buf[4096] = {};
 136:C:/Users/stapi/OneDrive/Desktop/GD32VW553/V1_MQTT_OK/GD32VW55X_Wifi_BLE_SDK/GD32VW55x_RELEASE_V1.0.2/MSDK/wpa_supplicant/src/utils\wpa_debug.c **** 	ssize_t buflen;
 137:C:/Users/stapi/OneDrive/Desktop/GD32VW553/V1_MQTT_OK/GD32VW55X_Wifi_BLE_SDK/GD32VW55x_RELEASE_V1.0.2/MSDK/wpa_supplicant/src/utils\wpa_debug.c **** 	char *line, *tmp1, *path = NULL;
 138:C:/Users/stapi/OneDrive/Desktop/GD32VW553/V1_MQTT_OK/GD32VW55X_Wifi_BLE_SDK/GD32VW55x_RELEASE_V1.0.2/MSDK/wpa_supplicant/src/utils\wpa_debug.c **** 
 139:C:/Users/stapi/OneDrive/Desktop/GD32VW553/V1_MQTT_OK/GD32VW55X_Wifi_BLE_SDK/GD32VW55x_RELEASE_V1.0.2/MSDK/wpa_supplicant/src/utils\wpa_debug.c **** 	mounts = open("/proc/mounts", O_RDONLY);
 140:C:/Users/stapi/OneDrive/Desktop/GD32VW553/V1_MQTT_OK/GD32VW55X_Wifi_BLE_SDK/GD32VW55x_RELEASE_V1.0.2/MSDK/wpa_supplicant/src/utils\wpa_debug.c **** 	if (mounts < 0) {
 141:C:/Users/stapi/OneDrive/Desktop/GD32VW553/V1_MQTT_OK/GD32VW55X_Wifi_BLE_SDK/GD32VW55x_RELEASE_V1.0.2/MSDK/wpa_supplicant/src/utils\wpa_debug.c **** 		printf("no /proc/mounts\n");
 142:C:/Users/stapi/OneDrive/Desktop/GD32VW553/V1_MQTT_OK/GD32VW55X_Wifi_BLE_SDK/GD32VW55x_RELEASE_V1.0.2/MSDK/wpa_supplicant/src/utils\wpa_debug.c **** 		return -1;
 143:C:/Users/stapi/OneDrive/Desktop/GD32VW553/V1_MQTT_OK/GD32VW55X_Wifi_BLE_SDK/GD32VW55x_RELEASE_V1.0.2/MSDK/wpa_supplicant/src/utils\wpa_debug.c **** 	}
 144:C:/Users/stapi/OneDrive/Desktop/GD32VW553/V1_MQTT_OK/GD32VW55X_Wifi_BLE_SDK/GD32VW55x_RELEASE_V1.0.2/MSDK/wpa_supplicant/src/utils\wpa_debug.c **** 
 145:C:/Users/stapi/OneDrive/Desktop/GD32VW553/V1_MQTT_OK/GD32VW55X_Wifi_BLE_SDK/GD32VW55x_RELEASE_V1.0.2/MSDK/wpa_supplicant/src/utils\wpa_debug.c **** 	buflen = read(mounts, buf, sizeof(buf) - 1);
 146:C:/Users/stapi/OneDrive/Desktop/GD32VW553/V1_MQTT_OK/GD32VW55X_Wifi_BLE_SDK/GD32VW55x_RELEASE_V1.0.2/MSDK/wpa_supplicant/src/utils\wpa_debug.c **** 	close(mounts);
 147:C:/Users/stapi/OneDrive/Desktop/GD32VW553/V1_MQTT_OK/GD32VW55X_Wifi_BLE_SDK/GD32VW55x_RELEASE_V1.0.2/MSDK/wpa_supplicant/src/utils\wpa_debug.c **** 	if (buflen < 0) {
 148:C:/Users/stapi/OneDrive/Desktop/GD32VW553/V1_MQTT_OK/GD32VW55X_Wifi_BLE_SDK/GD32VW55x_RELEASE_V1.0.2/MSDK/wpa_supplicant/src/utils\wpa_debug.c **** 		printf("failed to read /proc/mounts\n");
 149:C:/Users/stapi/OneDrive/Desktop/GD32VW553/V1_MQTT_OK/GD32VW55X_Wifi_BLE_SDK/GD32VW55x_RELEASE_V1.0.2/MSDK/wpa_supplicant/src/utils\wpa_debug.c **** 		return -1;
 150:C:/Users/stapi/OneDrive/Desktop/GD32VW553/V1_MQTT_OK/GD32VW55X_Wifi_BLE_SDK/GD32VW55x_RELEASE_V1.0.2/MSDK/wpa_supplicant/src/utils\wpa_debug.c **** 	}
 151:C:/Users/stapi/OneDrive/Desktop/GD32VW553/V1_MQTT_OK/GD32VW55X_Wifi_BLE_SDK/GD32VW55x_RELEASE_V1.0.2/MSDK/wpa_supplicant/src/utils\wpa_debug.c **** 	buf[buflen] = '\0';
 152:C:/Users/stapi/OneDrive/Desktop/GD32VW553/V1_MQTT_OK/GD32VW55X_Wifi_BLE_SDK/GD32VW55x_RELEASE_V1.0.2/MSDK/wpa_supplicant/src/utils\wpa_debug.c **** 
 153:C:/Users/stapi/OneDrive/Desktop/GD32VW553/V1_MQTT_OK/GD32VW55X_Wifi_BLE_SDK/GD32VW55x_RELEASE_V1.0.2/MSDK/wpa_supplicant/src/utils\wpa_debug.c **** 	line = strtok_r(buf, "\n", &tmp1);
 154:C:/Users/stapi/OneDrive/Desktop/GD32VW553/V1_MQTT_OK/GD32VW55X_Wifi_BLE_SDK/GD32VW55x_RELEASE_V1.0.2/MSDK/wpa_supplicant/src/utils\wpa_debug.c **** 	while (line) {
 155:C:/Users/stapi/OneDrive/Desktop/GD32VW553/V1_MQTT_OK/GD32VW55X_Wifi_BLE_SDK/GD32VW55x_RELEASE_V1.0.2/MSDK/wpa_supplicant/src/utils\wpa_debug.c **** 		char *tmp2, *tmp_path, *fstype;
 156:C:/Users/stapi/OneDrive/Desktop/GD32VW553/V1_MQTT_OK/GD32VW55X_Wifi_BLE_SDK/GD32VW55x_RELEASE_V1.0.2/MSDK/wpa_supplicant/src/utils\wpa_debug.c **** 		/* "<dev> <mountpoint> <fs type> ..." */
 157:C:/Users/stapi/OneDrive/Desktop/GD32VW553/V1_MQTT_OK/GD32VW55X_Wifi_BLE_SDK/GD32VW55x_RELEASE_V1.0.2/MSDK/wpa_supplicant/src/utils\wpa_debug.c **** 		strtok_r(line, " ", &tmp2);
 158:C:/Users/stapi/OneDrive/Desktop/GD32VW553/V1_MQTT_OK/GD32VW55X_Wifi_BLE_SDK/GD32VW55x_RELEASE_V1.0.2/MSDK/wpa_supplicant/src/utils\wpa_debug.c **** 		tmp_path = strtok_r(NULL, " ", &tmp2);
 159:C:/Users/stapi/OneDrive/Desktop/GD32VW553/V1_MQTT_OK/GD32VW55X_Wifi_BLE_SDK/GD32VW55x_RELEASE_V1.0.2/MSDK/wpa_supplicant/src/utils\wpa_debug.c **** 		fstype = strtok_r(NULL, " ", &tmp2);
 160:C:/Users/stapi/OneDrive/Desktop/GD32VW553/V1_MQTT_OK/GD32VW55X_Wifi_BLE_SDK/GD32VW55x_RELEASE_V1.0.2/MSDK/wpa_supplicant/src/utils\wpa_debug.c **** 		if (fstype && strcmp(fstype, "debugfs") == 0) {
 161:C:/Users/stapi/OneDrive/Desktop/GD32VW553/V1_MQTT_OK/GD32VW55X_Wifi_BLE_SDK/GD32VW55x_RELEASE_V1.0.2/MSDK/wpa_supplicant/src/utils\wpa_debug.c **** 			path = tmp_path;
 162:C:/Users/stapi/OneDrive/Desktop/GD32VW553/V1_MQTT_OK/GD32VW55X_Wifi_BLE_SDK/GD32VW55x_RELEASE_V1.0.2/MSDK/wpa_supplicant/src/utils\wpa_debug.c **** 			break;
 163:C:/Users/stapi/OneDrive/Desktop/GD32VW553/V1_MQTT_OK/GD32VW55X_Wifi_BLE_SDK/GD32VW55x_RELEASE_V1.0.2/MSDK/wpa_supplicant/src/utils\wpa_debug.c **** 		}
 164:C:/Users/stapi/OneDrive/Desktop/GD32VW553/V1_MQTT_OK/GD32VW55X_Wifi_BLE_SDK/GD32VW55x_RELEASE_V1.0.2/MSDK/wpa_supplicant/src/utils\wpa_debug.c **** 
 165:C:/Users/stapi/OneDrive/Desktop/GD32VW553/V1_MQTT_OK/GD32VW55X_Wifi_BLE_SDK/GD32VW55x_RELEASE_V1.0.2/MSDK/wpa_supplicant/src/utils\wpa_debug.c **** 		line = strtok_r(NULL, "\n", &tmp1);
 166:C:/Users/stapi/OneDrive/Desktop/GD32VW553/V1_MQTT_OK/GD32VW55X_Wifi_BLE_SDK/GD32VW55x_RELEASE_V1.0.2/MSDK/wpa_supplicant/src/utils\wpa_debug.c **** 	}
 167:C:/Users/stapi/OneDrive/Desktop/GD32VW553/V1_MQTT_OK/GD32VW55X_Wifi_BLE_SDK/GD32VW55x_RELEASE_V1.0.2/MSDK/wpa_supplicant/src/utils\wpa_debug.c **** 
 168:C:/Users/stapi/OneDrive/Desktop/GD32VW553/V1_MQTT_OK/GD32VW55X_Wifi_BLE_SDK/GD32VW55x_RELEASE_V1.0.2/MSDK/wpa_supplicant/src/utils\wpa_debug.c **** 	if (path == NULL) {
 169:C:/Users/stapi/OneDrive/Desktop/GD32VW553/V1_MQTT_OK/GD32VW55X_Wifi_BLE_SDK/GD32VW55x_RELEASE_V1.0.2/MSDK/wpa_supplicant/src/utils\wpa_debug.c **** 		printf("debugfs mountpoint not found\n");
 170:C:/Users/stapi/OneDrive/Desktop/GD32VW553/V1_MQTT_OK/GD32VW55X_Wifi_BLE_SDK/GD32VW55x_RELEASE_V1.0.2/MSDK/wpa_supplicant/src/utils\wpa_debug.c **** 		return -1;
 171:C:/Users/stapi/OneDrive/Desktop/GD32VW553/V1_MQTT_OK/GD32VW55X_Wifi_BLE_SDK/GD32VW55x_RELEASE_V1.0.2/MSDK/wpa_supplicant/src/utils\wpa_debug.c **** 	}
 172:C:/Users/stapi/OneDrive/Desktop/GD32VW553/V1_MQTT_OK/GD32VW55X_Wifi_BLE_SDK/GD32VW55x_RELEASE_V1.0.2/MSDK/wpa_supplicant/src/utils\wpa_debug.c **** 
 173:C:/Users/stapi/OneDrive/Desktop/GD32VW553/V1_MQTT_OK/GD32VW55X_Wifi_BLE_SDK/GD32VW55x_RELEASE_V1.0.2/MSDK/wpa_supplicant/src/utils\wpa_debug.c **** 	snprintf(buf, sizeof(buf) - 1, "%s/tracing/trace_marker", path);
 174:C:/Users/stapi/OneDrive/Desktop/GD32VW553/V1_MQTT_OK/GD32VW55X_Wifi_BLE_SDK/GD32VW55x_RELEASE_V1.0.2/MSDK/wpa_supplicant/src/utils\wpa_debug.c **** 
 175:C:/Users/stapi/OneDrive/Desktop/GD32VW553/V1_MQTT_OK/GD32VW55X_Wifi_BLE_SDK/GD32VW55x_RELEASE_V1.0.2/MSDK/wpa_supplicant/src/utils\wpa_debug.c **** 	trace_fd = open(buf, O_WRONLY);
 176:C:/Users/stapi/OneDrive/Desktop/GD32VW553/V1_MQTT_OK/GD32VW55X_Wifi_BLE_SDK/GD32VW55x_RELEASE_V1.0.2/MSDK/wpa_supplicant/src/utils\wpa_debug.c **** 	if (trace_fd < 0) {
 177:C:/Users/stapi/OneDrive/Desktop/GD32VW553/V1_MQTT_OK/GD32VW55X_Wifi_BLE_SDK/GD32VW55x_RELEASE_V1.0.2/MSDK/wpa_supplicant/src/utils\wpa_debug.c **** 		printf("failed to open trace_marker file\n");
 178:C:/Users/stapi/OneDrive/Desktop/GD32VW553/V1_MQTT_OK/GD32VW55X_Wifi_BLE_SDK/GD32VW55x_RELEASE_V1.0.2/MSDK/wpa_supplicant/src/utils\wpa_debug.c **** 		return -1;
 179:C:/Users/stapi/OneDrive/Desktop/GD32VW553/V1_MQTT_OK/GD32VW55X_Wifi_BLE_SDK/GD32VW55x_RELEASE_V1.0.2/MSDK/wpa_supplicant/src/utils\wpa_debug.c **** 	}
 180:C:/Users/stapi/OneDrive/Desktop/GD32VW553/V1_MQTT_OK/GD32VW55X_Wifi_BLE_SDK/GD32VW55x_RELEASE_V1.0.2/MSDK/wpa_supplicant/src/utils\wpa_debug.c **** 	wpa_debug_tracing_file = fdopen(trace_fd, "w");
 181:C:/Users/stapi/OneDrive/Desktop/GD32VW553/V1_MQTT_OK/GD32VW55X_Wifi_BLE_SDK/GD32VW55x_RELEASE_V1.0.2/MSDK/wpa_supplicant/src/utils\wpa_debug.c **** 	if (wpa_debug_tracing_file == NULL) {
 182:C:/Users/stapi/OneDrive/Desktop/GD32VW553/V1_MQTT_OK/GD32VW55X_Wifi_BLE_SDK/GD32VW55x_RELEASE_V1.0.2/MSDK/wpa_supplicant/src/utils\wpa_debug.c **** 		close(trace_fd);
 183:C:/Users/stapi/OneDrive/Desktop/GD32VW553/V1_MQTT_OK/GD32VW55X_Wifi_BLE_SDK/GD32VW55x_RELEASE_V1.0.2/MSDK/wpa_supplicant/src/utils\wpa_debug.c **** 		printf("failed to fdopen()\n");
 184:C:/Users/stapi/OneDrive/Desktop/GD32VW553/V1_MQTT_OK/GD32VW55X_Wifi_BLE_SDK/GD32VW55x_RELEASE_V1.0.2/MSDK/wpa_supplicant/src/utils\wpa_debug.c **** 		return -1;
 185:C:/Users/stapi/OneDrive/Desktop/GD32VW553/V1_MQTT_OK/GD32VW55X_Wifi_BLE_SDK/GD32VW55x_RELEASE_V1.0.2/MSDK/wpa_supplicant/src/utils\wpa_debug.c **** 	}
 186:C:/Users/stapi/OneDrive/Desktop/GD32VW553/V1_MQTT_OK/GD32VW55X_Wifi_BLE_SDK/GD32VW55x_RELEASE_V1.0.2/MSDK/wpa_supplicant/src/utils\wpa_debug.c **** 
 187:C:/Users/stapi/OneDrive/Desktop/GD32VW553/V1_MQTT_OK/GD32VW55X_Wifi_BLE_SDK/GD32VW55x_RELEASE_V1.0.2/MSDK/wpa_supplicant/src/utils\wpa_debug.c **** 	return 0;
 188:C:/Users/stapi/OneDrive/Desktop/GD32VW553/V1_MQTT_OK/GD32VW55X_Wifi_BLE_SDK/GD32VW55x_RELEASE_V1.0.2/MSDK/wpa_supplicant/src/utils\wpa_debug.c **** }
 189:C:/Users/stapi/OneDrive/Desktop/GD32VW553/V1_MQTT_OK/GD32VW55X_Wifi_BLE_SDK/GD32VW55x_RELEASE_V1.0.2/MSDK/wpa_supplicant/src/utils\wpa_debug.c **** 
 190:C:/Users/stapi/OneDrive/Desktop/GD32VW553/V1_MQTT_OK/GD32VW55X_Wifi_BLE_SDK/GD32VW55x_RELEASE_V1.0.2/MSDK/wpa_supplicant/src/utils\wpa_debug.c **** 
 191:C:/Users/stapi/OneDrive/Desktop/GD32VW553/V1_MQTT_OK/GD32VW55X_Wifi_BLE_SDK/GD32VW55x_RELEASE_V1.0.2/MSDK/wpa_supplicant/src/utils\wpa_debug.c **** void wpa_debug_close_linux_tracing(void)
 192:C:/Users/stapi/OneDrive/Desktop/GD32VW553/V1_MQTT_OK/GD32VW55X_Wifi_BLE_SDK/GD32VW55x_RELEASE_V1.0.2/MSDK/wpa_supplicant/src/utils\wpa_debug.c **** {
 193:C:/Users/stapi/OneDrive/Desktop/GD32VW553/V1_MQTT_OK/GD32VW55X_Wifi_BLE_SDK/GD32VW55x_RELEASE_V1.0.2/MSDK/wpa_supplicant/src/utils\wpa_debug.c **** 	if (wpa_debug_tracing_file == NULL)
 194:C:/Users/stapi/OneDrive/Desktop/GD32VW553/V1_MQTT_OK/GD32VW55X_Wifi_BLE_SDK/GD32VW55x_RELEASE_V1.0.2/MSDK/wpa_supplicant/src/utils\wpa_debug.c **** 		return;
 195:C:/Users/stapi/OneDrive/Desktop/GD32VW553/V1_MQTT_OK/GD32VW55X_Wifi_BLE_SDK/GD32VW55x_RELEASE_V1.0.2/MSDK/wpa_supplicant/src/utils\wpa_debug.c **** 	fclose(wpa_debug_tracing_file);
 196:C:/Users/stapi/OneDrive/Desktop/GD32VW553/V1_MQTT_OK/GD32VW55X_Wifi_BLE_SDK/GD32VW55x_RELEASE_V1.0.2/MSDK/wpa_supplicant/src/utils\wpa_debug.c **** 	wpa_debug_tracing_file = NULL;
 197:C:/Users/stapi/OneDrive/Desktop/GD32VW553/V1_MQTT_OK/GD32VW55X_Wifi_BLE_SDK/GD32VW55x_RELEASE_V1.0.2/MSDK/wpa_supplicant/src/utils\wpa_debug.c **** }
 198:C:/Users/stapi/OneDrive/Desktop/GD32VW553/V1_MQTT_OK/GD32VW55X_Wifi_BLE_SDK/GD32VW55x_RELEASE_V1.0.2/MSDK/wpa_supplicant/src/utils\wpa_debug.c **** 
 199:C:/Users/stapi/OneDrive/Desktop/GD32VW553/V1_MQTT_OK/GD32VW55X_Wifi_BLE_SDK/GD32VW55x_RELEASE_V1.0.2/MSDK/wpa_supplicant/src/utils\wpa_debug.c **** #endif /* CONFIG_DEBUG_LINUX_TRACING */
 200:C:/Users/stapi/OneDrive/Desktop/GD32VW553/V1_MQTT_OK/GD32VW55X_Wifi_BLE_SDK/GD32VW55x_RELEASE_V1.0.2/MSDK/wpa_supplicant/src/utils\wpa_debug.c **** 
 201:C:/Users/stapi/OneDrive/Desktop/GD32VW553/V1_MQTT_OK/GD32VW55X_Wifi_BLE_SDK/GD32VW55x_RELEASE_V1.0.2/MSDK/wpa_supplicant/src/utils\wpa_debug.c **** 
 202:C:/Users/stapi/OneDrive/Desktop/GD32VW553/V1_MQTT_OK/GD32VW55X_Wifi_BLE_SDK/GD32VW55x_RELEASE_V1.0.2/MSDK/wpa_supplicant/src/utils\wpa_debug.c **** /**
 203:C:/Users/stapi/OneDrive/Desktop/GD32VW553/V1_MQTT_OK/GD32VW55X_Wifi_BLE_SDK/GD32VW55x_RELEASE_V1.0.2/MSDK/wpa_supplicant/src/utils\wpa_debug.c ****  * wpa_printf - conditional printf
 204:C:/Users/stapi/OneDrive/Desktop/GD32VW553/V1_MQTT_OK/GD32VW55X_Wifi_BLE_SDK/GD32VW55x_RELEASE_V1.0.2/MSDK/wpa_supplicant/src/utils\wpa_debug.c ****  * @level: priority level (MSG_*) of the message
 205:C:/Users/stapi/OneDrive/Desktop/GD32VW553/V1_MQTT_OK/GD32VW55X_Wifi_BLE_SDK/GD32VW55x_RELEASE_V1.0.2/MSDK/wpa_supplicant/src/utils\wpa_debug.c ****  * @fmt: printf format string, followed by optional arguments
 206:C:/Users/stapi/OneDrive/Desktop/GD32VW553/V1_MQTT_OK/GD32VW55X_Wifi_BLE_SDK/GD32VW55x_RELEASE_V1.0.2/MSDK/wpa_supplicant/src/utils\wpa_debug.c ****  *
 207:C:/Users/stapi/OneDrive/Desktop/GD32VW553/V1_MQTT_OK/GD32VW55X_Wifi_BLE_SDK/GD32VW55x_RELEASE_V1.0.2/MSDK/wpa_supplicant/src/utils\wpa_debug.c ****  * This function is used to print conditional debugging and error messages. The
 208:C:/Users/stapi/OneDrive/Desktop/GD32VW553/V1_MQTT_OK/GD32VW55X_Wifi_BLE_SDK/GD32VW55x_RELEASE_V1.0.2/MSDK/wpa_supplicant/src/utils\wpa_debug.c ****  * output may be directed to stdout, stderr, and/or syslog based on
 209:C:/Users/stapi/OneDrive/Desktop/GD32VW553/V1_MQTT_OK/GD32VW55X_Wifi_BLE_SDK/GD32VW55x_RELEASE_V1.0.2/MSDK/wpa_supplicant/src/utils\wpa_debug.c ****  * configuration.
 210:C:/Users/stapi/OneDrive/Desktop/GD32VW553/V1_MQTT_OK/GD32VW55X_Wifi_BLE_SDK/GD32VW55x_RELEASE_V1.0.2/MSDK/wpa_supplicant/src/utils\wpa_debug.c ****  *
 211:C:/Users/stapi/OneDrive/Desktop/GD32VW553/V1_MQTT_OK/GD32VW55X_Wifi_BLE_SDK/GD32VW55x_RELEASE_V1.0.2/MSDK/wpa_supplicant/src/utils\wpa_debug.c ****  * Note: New line '\n' is added to the end of the text when printing to stdout.
 212:C:/Users/stapi/OneDrive/Desktop/GD32VW553/V1_MQTT_OK/GD32VW55X_Wifi_BLE_SDK/GD32VW55x_RELEASE_V1.0.2/MSDK/wpa_supplicant/src/utils\wpa_debug.c ****  */
 213:C:/Users/stapi/OneDrive/Desktop/GD32VW553/V1_MQTT_OK/GD32VW55X_Wifi_BLE_SDK/GD32VW55x_RELEASE_V1.0.2/MSDK/wpa_supplicant/src/utils\wpa_debug.c **** void wpa_printf(int level, const char *fmt, ...)
 214:C:/Users/stapi/OneDrive/Desktop/GD32VW553/V1_MQTT_OK/GD32VW55X_Wifi_BLE_SDK/GD32VW55x_RELEASE_V1.0.2/MSDK/wpa_supplicant/src/utils\wpa_debug.c **** {
 215:C:/Users/stapi/OneDrive/Desktop/GD32VW553/V1_MQTT_OK/GD32VW55X_Wifi_BLE_SDK/GD32VW55x_RELEASE_V1.0.2/MSDK/wpa_supplicant/src/utils\wpa_debug.c **** 	va_list ap;
 216:C:/Users/stapi/OneDrive/Desktop/GD32VW553/V1_MQTT_OK/GD32VW55X_Wifi_BLE_SDK/GD32VW55x_RELEASE_V1.0.2/MSDK/wpa_supplicant/src/utils\wpa_debug.c **** 
 217:C:/Users/stapi/OneDrive/Desktop/GD32VW553/V1_MQTT_OK/GD32VW55X_Wifi_BLE_SDK/GD32VW55x_RELEASE_V1.0.2/MSDK/wpa_supplicant/src/utils\wpa_debug.c **** 	if (level >= wpa_debug_level) {
 218:C:/Users/stapi/OneDrive/Desktop/GD32VW553/V1_MQTT_OK/GD32VW55X_Wifi_BLE_SDK/GD32VW55x_RELEASE_V1.0.2/MSDK/wpa_supplicant/src/utils\wpa_debug.c **** #ifdef CONFIG_ANDROID_LOG
 219:C:/Users/stapi/OneDrive/Desktop/GD32VW553/V1_MQTT_OK/GD32VW55X_Wifi_BLE_SDK/GD32VW55x_RELEASE_V1.0.2/MSDK/wpa_supplicant/src/utils\wpa_debug.c **** 		va_start(ap, fmt);
 220:C:/Users/stapi/OneDrive/Desktop/GD32VW553/V1_MQTT_OK/GD32VW55X_Wifi_BLE_SDK/GD32VW55x_RELEASE_V1.0.2/MSDK/wpa_supplicant/src/utils\wpa_debug.c **** 		__android_log_vprint(wpa_to_android_level(level),
 221:C:/Users/stapi/OneDrive/Desktop/GD32VW553/V1_MQTT_OK/GD32VW55X_Wifi_BLE_SDK/GD32VW55x_RELEASE_V1.0.2/MSDK/wpa_supplicant/src/utils\wpa_debug.c **** 				     ANDROID_LOG_NAME, fmt, ap);
 222:C:/Users/stapi/OneDrive/Desktop/GD32VW553/V1_MQTT_OK/GD32VW55X_Wifi_BLE_SDK/GD32VW55x_RELEASE_V1.0.2/MSDK/wpa_supplicant/src/utils\wpa_debug.c **** 		va_end(ap);
 223:C:/Users/stapi/OneDrive/Desktop/GD32VW553/V1_MQTT_OK/GD32VW55X_Wifi_BLE_SDK/GD32VW55x_RELEASE_V1.0.2/MSDK/wpa_supplicant/src/utils\wpa_debug.c **** #else /* CONFIG_ANDROID_LOG */
 224:C:/Users/stapi/OneDrive/Desktop/GD32VW553/V1_MQTT_OK/GD32VW55X_Wifi_BLE_SDK/GD32VW55x_RELEASE_V1.0.2/MSDK/wpa_supplicant/src/utils\wpa_debug.c **** #ifdef CONFIG_DEBUG_SYSLOG
 225:C:/Users/stapi/OneDrive/Desktop/GD32VW553/V1_MQTT_OK/GD32VW55X_Wifi_BLE_SDK/GD32VW55x_RELEASE_V1.0.2/MSDK/wpa_supplicant/src/utils\wpa_debug.c **** 		if (wpa_debug_syslog) {
 226:C:/Users/stapi/OneDrive/Desktop/GD32VW553/V1_MQTT_OK/GD32VW55X_Wifi_BLE_SDK/GD32VW55x_RELEASE_V1.0.2/MSDK/wpa_supplicant/src/utils\wpa_debug.c **** 			va_start(ap, fmt);
 227:C:/Users/stapi/OneDrive/Desktop/GD32VW553/V1_MQTT_OK/GD32VW55X_Wifi_BLE_SDK/GD32VW55x_RELEASE_V1.0.2/MSDK/wpa_supplicant/src/utils\wpa_debug.c **** 			vsyslog(syslog_priority(level), fmt, ap);
 228:C:/Users/stapi/OneDrive/Desktop/GD32VW553/V1_MQTT_OK/GD32VW55X_Wifi_BLE_SDK/GD32VW55x_RELEASE_V1.0.2/MSDK/wpa_supplicant/src/utils\wpa_debug.c **** 			va_end(ap);
 229:C:/Users/stapi/OneDrive/Desktop/GD32VW553/V1_MQTT_OK/GD32VW55X_Wifi_BLE_SDK/GD32VW55x_RELEASE_V1.0.2/MSDK/wpa_supplicant/src/utils\wpa_debug.c **** 		}
 230:C:/Users/stapi/OneDrive/Desktop/GD32VW553/V1_MQTT_OK/GD32VW55X_Wifi_BLE_SDK/GD32VW55x_RELEASE_V1.0.2/MSDK/wpa_supplicant/src/utils\wpa_debug.c **** #endif /* CONFIG_DEBUG_SYSLOG */
 231:C:/Users/stapi/OneDrive/Desktop/GD32VW553/V1_MQTT_OK/GD32VW55X_Wifi_BLE_SDK/GD32VW55x_RELEASE_V1.0.2/MSDK/wpa_supplicant/src/utils\wpa_debug.c **** 		wpa_debug_print_timestamp();
 232:C:/Users/stapi/OneDrive/Desktop/GD32VW553/V1_MQTT_OK/GD32VW55X_Wifi_BLE_SDK/GD32VW55x_RELEASE_V1.0.2/MSDK/wpa_supplicant/src/utils\wpa_debug.c **** #ifdef CONFIG_DEBUG_FILE
 233:C:/Users/stapi/OneDrive/Desktop/GD32VW553/V1_MQTT_OK/GD32VW55X_Wifi_BLE_SDK/GD32VW55x_RELEASE_V1.0.2/MSDK/wpa_supplicant/src/utils\wpa_debug.c **** 		if (out_file) {
 234:C:/Users/stapi/OneDrive/Desktop/GD32VW553/V1_MQTT_OK/GD32VW55X_Wifi_BLE_SDK/GD32VW55x_RELEASE_V1.0.2/MSDK/wpa_supplicant/src/utils\wpa_debug.c **** 			va_start(ap, fmt);
 235:C:/Users/stapi/OneDrive/Desktop/GD32VW553/V1_MQTT_OK/GD32VW55X_Wifi_BLE_SDK/GD32VW55x_RELEASE_V1.0.2/MSDK/wpa_supplicant/src/utils\wpa_debug.c **** 			vfprintf(out_file, fmt, ap);
 236:C:/Users/stapi/OneDrive/Desktop/GD32VW553/V1_MQTT_OK/GD32VW55X_Wifi_BLE_SDK/GD32VW55x_RELEASE_V1.0.2/MSDK/wpa_supplicant/src/utils\wpa_debug.c **** 			fprintf(out_file, "\n");
 237:C:/Users/stapi/OneDrive/Desktop/GD32VW553/V1_MQTT_OK/GD32VW55X_Wifi_BLE_SDK/GD32VW55x_RELEASE_V1.0.2/MSDK/wpa_supplicant/src/utils\wpa_debug.c **** 			va_end(ap);
 238:C:/Users/stapi/OneDrive/Desktop/GD32VW553/V1_MQTT_OK/GD32VW55X_Wifi_BLE_SDK/GD32VW55x_RELEASE_V1.0.2/MSDK/wpa_supplicant/src/utils\wpa_debug.c **** 		}
 239:C:/Users/stapi/OneDrive/Desktop/GD32VW553/V1_MQTT_OK/GD32VW55X_Wifi_BLE_SDK/GD32VW55x_RELEASE_V1.0.2/MSDK/wpa_supplicant/src/utils\wpa_debug.c **** #endif /* CONFIG_DEBUG_FILE */
 240:C:/Users/stapi/OneDrive/Desktop/GD32VW553/V1_MQTT_OK/GD32VW55X_Wifi_BLE_SDK/GD32VW55x_RELEASE_V1.0.2/MSDK/wpa_supplicant/src/utils\wpa_debug.c **** 		if (!wpa_debug_syslog && !out_file) {
 241:C:/Users/stapi/OneDrive/Desktop/GD32VW553/V1_MQTT_OK/GD32VW55X_Wifi_BLE_SDK/GD32VW55x_RELEASE_V1.0.2/MSDK/wpa_supplicant/src/utils\wpa_debug.c **** 			va_start(ap, fmt);
 242:C:/Users/stapi/OneDrive/Desktop/GD32VW553/V1_MQTT_OK/GD32VW55X_Wifi_BLE_SDK/GD32VW55x_RELEASE_V1.0.2/MSDK/wpa_supplicant/src/utils\wpa_debug.c **** 			vprintf(fmt, ap);
 243:C:/Users/stapi/OneDrive/Desktop/GD32VW553/V1_MQTT_OK/GD32VW55X_Wifi_BLE_SDK/GD32VW55x_RELEASE_V1.0.2/MSDK/wpa_supplicant/src/utils\wpa_debug.c **** 			printf("\n");
 244:C:/Users/stapi/OneDrive/Desktop/GD32VW553/V1_MQTT_OK/GD32VW55X_Wifi_BLE_SDK/GD32VW55x_RELEASE_V1.0.2/MSDK/wpa_supplicant/src/utils\wpa_debug.c **** 			va_end(ap);
 245:C:/Users/stapi/OneDrive/Desktop/GD32VW553/V1_MQTT_OK/GD32VW55X_Wifi_BLE_SDK/GD32VW55x_RELEASE_V1.0.2/MSDK/wpa_supplicant/src/utils\wpa_debug.c **** 		}
 246:C:/Users/stapi/OneDrive/Desktop/GD32VW553/V1_MQTT_OK/GD32VW55X_Wifi_BLE_SDK/GD32VW55x_RELEASE_V1.0.2/MSDK/wpa_supplicant/src/utils\wpa_debug.c **** #endif /* CONFIG_ANDROID_LOG */
 247:C:/Users/stapi/OneDrive/Desktop/GD32VW553/V1_MQTT_OK/GD32VW55X_Wifi_BLE_SDK/GD32VW55x_RELEASE_V1.0.2/MSDK/wpa_supplicant/src/utils\wpa_debug.c **** 	}
 248:C:/Users/stapi/OneDrive/Desktop/GD32VW553/V1_MQTT_OK/GD32VW55X_Wifi_BLE_SDK/GD32VW55x_RELEASE_V1.0.2/MSDK/wpa_supplicant/src/utils\wpa_debug.c **** 
 249:C:/Users/stapi/OneDrive/Desktop/GD32VW553/V1_MQTT_OK/GD32VW55X_Wifi_BLE_SDK/GD32VW55x_RELEASE_V1.0.2/MSDK/wpa_supplicant/src/utils\wpa_debug.c **** #ifdef CONFIG_DEBUG_LINUX_TRACING
 250:C:/Users/stapi/OneDrive/Desktop/GD32VW553/V1_MQTT_OK/GD32VW55X_Wifi_BLE_SDK/GD32VW55x_RELEASE_V1.0.2/MSDK/wpa_supplicant/src/utils\wpa_debug.c **** 	if (wpa_debug_tracing_file != NULL) {
 251:C:/Users/stapi/OneDrive/Desktop/GD32VW553/V1_MQTT_OK/GD32VW55X_Wifi_BLE_SDK/GD32VW55x_RELEASE_V1.0.2/MSDK/wpa_supplicant/src/utils\wpa_debug.c **** 		va_start(ap, fmt);
 252:C:/Users/stapi/OneDrive/Desktop/GD32VW553/V1_MQTT_OK/GD32VW55X_Wifi_BLE_SDK/GD32VW55x_RELEASE_V1.0.2/MSDK/wpa_supplicant/src/utils\wpa_debug.c **** 		fprintf(wpa_debug_tracing_file, WPAS_TRACE_PFX, level);
 253:C:/Users/stapi/OneDrive/Desktop/GD32VW553/V1_MQTT_OK/GD32VW55X_Wifi_BLE_SDK/GD32VW55x_RELEASE_V1.0.2/MSDK/wpa_supplicant/src/utils\wpa_debug.c **** 		vfprintf(wpa_debug_tracing_file, fmt, ap);
 254:C:/Users/stapi/OneDrive/Desktop/GD32VW553/V1_MQTT_OK/GD32VW55X_Wifi_BLE_SDK/GD32VW55x_RELEASE_V1.0.2/MSDK/wpa_supplicant/src/utils\wpa_debug.c **** 		fprintf(wpa_debug_tracing_file, "\n");
 255:C:/Users/stapi/OneDrive/Desktop/GD32VW553/V1_MQTT_OK/GD32VW55X_Wifi_BLE_SDK/GD32VW55x_RELEASE_V1.0.2/MSDK/wpa_supplicant/src/utils\wpa_debug.c **** 		fflush(wpa_debug_tracing_file);
 256:C:/Users/stapi/OneDrive/Desktop/GD32VW553/V1_MQTT_OK/GD32VW55X_Wifi_BLE_SDK/GD32VW55x_RELEASE_V1.0.2/MSDK/wpa_supplicant/src/utils\wpa_debug.c **** 		va_end(ap);
 257:C:/Users/stapi/OneDrive/Desktop/GD32VW553/V1_MQTT_OK/GD32VW55X_Wifi_BLE_SDK/GD32VW55x_RELEASE_V1.0.2/MSDK/wpa_supplicant/src/utils\wpa_debug.c **** 	}
 258:C:/Users/stapi/OneDrive/Desktop/GD32VW553/V1_MQTT_OK/GD32VW55X_Wifi_BLE_SDK/GD32VW55x_RELEASE_V1.0.2/MSDK/wpa_supplicant/src/utils\wpa_debug.c **** #endif /* CONFIG_DEBUG_LINUX_TRACING */
 259:C:/Users/stapi/OneDrive/Desktop/GD32VW553/V1_MQTT_OK/GD32VW55X_Wifi_BLE_SDK/GD32VW55x_RELEASE_V1.0.2/MSDK/wpa_supplicant/src/utils\wpa_debug.c **** }
 260:C:/Users/stapi/OneDrive/Desktop/GD32VW553/V1_MQTT_OK/GD32VW55X_Wifi_BLE_SDK/GD32VW55x_RELEASE_V1.0.2/MSDK/wpa_supplicant/src/utils\wpa_debug.c **** 
 261:C:/Users/stapi/OneDrive/Desktop/GD32VW553/V1_MQTT_OK/GD32VW55X_Wifi_BLE_SDK/GD32VW55x_RELEASE_V1.0.2/MSDK/wpa_supplicant/src/utils\wpa_debug.c **** 
 262:C:/Users/stapi/OneDrive/Desktop/GD32VW553/V1_MQTT_OK/GD32VW55X_Wifi_BLE_SDK/GD32VW55x_RELEASE_V1.0.2/MSDK/wpa_supplicant/src/utils\wpa_debug.c **** static void _wpa_hexdump(int level, const char *title, const u8 *buf,
 263:C:/Users/stapi/OneDrive/Desktop/GD32VW553/V1_MQTT_OK/GD32VW55X_Wifi_BLE_SDK/GD32VW55x_RELEASE_V1.0.2/MSDK/wpa_supplicant/src/utils\wpa_debug.c **** 			 size_t len, int show, int only_syslog)
 264:C:/Users/stapi/OneDrive/Desktop/GD32VW553/V1_MQTT_OK/GD32VW55X_Wifi_BLE_SDK/GD32VW55x_RELEASE_V1.0.2/MSDK/wpa_supplicant/src/utils\wpa_debug.c **** {
 265:C:/Users/stapi/OneDrive/Desktop/GD32VW553/V1_MQTT_OK/GD32VW55X_Wifi_BLE_SDK/GD32VW55x_RELEASE_V1.0.2/MSDK/wpa_supplicant/src/utils\wpa_debug.c **** 	size_t i;
 266:C:/Users/stapi/OneDrive/Desktop/GD32VW553/V1_MQTT_OK/GD32VW55X_Wifi_BLE_SDK/GD32VW55x_RELEASE_V1.0.2/MSDK/wpa_supplicant/src/utils\wpa_debug.c **** 
 267:C:/Users/stapi/OneDrive/Desktop/GD32VW553/V1_MQTT_OK/GD32VW55X_Wifi_BLE_SDK/GD32VW55x_RELEASE_V1.0.2/MSDK/wpa_supplicant/src/utils\wpa_debug.c **** #ifdef CONFIG_DEBUG_LINUX_TRACING
 268:C:/Users/stapi/OneDrive/Desktop/GD32VW553/V1_MQTT_OK/GD32VW55X_Wifi_BLE_SDK/GD32VW55x_RELEASE_V1.0.2/MSDK/wpa_supplicant/src/utils\wpa_debug.c **** 	if (wpa_debug_tracing_file != NULL) {
 269:C:/Users/stapi/OneDrive/Desktop/GD32VW553/V1_MQTT_OK/GD32VW55X_Wifi_BLE_SDK/GD32VW55x_RELEASE_V1.0.2/MSDK/wpa_supplicant/src/utils\wpa_debug.c **** 		fprintf(wpa_debug_tracing_file,
 270:C:/Users/stapi/OneDrive/Desktop/GD32VW553/V1_MQTT_OK/GD32VW55X_Wifi_BLE_SDK/GD32VW55x_RELEASE_V1.0.2/MSDK/wpa_supplicant/src/utils\wpa_debug.c **** 			WPAS_TRACE_PFX "%s - hexdump(len=%lu):",
 271:C:/Users/stapi/OneDrive/Desktop/GD32VW553/V1_MQTT_OK/GD32VW55X_Wifi_BLE_SDK/GD32VW55x_RELEASE_V1.0.2/MSDK/wpa_supplicant/src/utils\wpa_debug.c **** 			level, title, (unsigned long) len);
 272:C:/Users/stapi/OneDrive/Desktop/GD32VW553/V1_MQTT_OK/GD32VW55X_Wifi_BLE_SDK/GD32VW55x_RELEASE_V1.0.2/MSDK/wpa_supplicant/src/utils\wpa_debug.c **** 		if (buf == NULL) {
 273:C:/Users/stapi/OneDrive/Desktop/GD32VW553/V1_MQTT_OK/GD32VW55X_Wifi_BLE_SDK/GD32VW55x_RELEASE_V1.0.2/MSDK/wpa_supplicant/src/utils\wpa_debug.c **** 			fprintf(wpa_debug_tracing_file, " [NULL]\n");
 274:C:/Users/stapi/OneDrive/Desktop/GD32VW553/V1_MQTT_OK/GD32VW55X_Wifi_BLE_SDK/GD32VW55x_RELEASE_V1.0.2/MSDK/wpa_supplicant/src/utils\wpa_debug.c **** 		} else if (!show) {
 275:C:/Users/stapi/OneDrive/Desktop/GD32VW553/V1_MQTT_OK/GD32VW55X_Wifi_BLE_SDK/GD32VW55x_RELEASE_V1.0.2/MSDK/wpa_supplicant/src/utils\wpa_debug.c **** 			fprintf(wpa_debug_tracing_file, " [REMOVED]\n");
 276:C:/Users/stapi/OneDrive/Desktop/GD32VW553/V1_MQTT_OK/GD32VW55X_Wifi_BLE_SDK/GD32VW55x_RELEASE_V1.0.2/MSDK/wpa_supplicant/src/utils\wpa_debug.c **** 		} else {
 277:C:/Users/stapi/OneDrive/Desktop/GD32VW553/V1_MQTT_OK/GD32VW55X_Wifi_BLE_SDK/GD32VW55x_RELEASE_V1.0.2/MSDK/wpa_supplicant/src/utils\wpa_debug.c **** 			for (i = 0; i < len; i++)
 278:C:/Users/stapi/OneDrive/Desktop/GD32VW553/V1_MQTT_OK/GD32VW55X_Wifi_BLE_SDK/GD32VW55x_RELEASE_V1.0.2/MSDK/wpa_supplicant/src/utils\wpa_debug.c **** 				fprintf(wpa_debug_tracing_file,
 279:C:/Users/stapi/OneDrive/Desktop/GD32VW553/V1_MQTT_OK/GD32VW55X_Wifi_BLE_SDK/GD32VW55x_RELEASE_V1.0.2/MSDK/wpa_supplicant/src/utils\wpa_debug.c **** 					" %02x", buf[i]);
 280:C:/Users/stapi/OneDrive/Desktop/GD32VW553/V1_MQTT_OK/GD32VW55X_Wifi_BLE_SDK/GD32VW55x_RELEASE_V1.0.2/MSDK/wpa_supplicant/src/utils\wpa_debug.c **** 		}
 281:C:/Users/stapi/OneDrive/Desktop/GD32VW553/V1_MQTT_OK/GD32VW55X_Wifi_BLE_SDK/GD32VW55x_RELEASE_V1.0.2/MSDK/wpa_supplicant/src/utils\wpa_debug.c **** 		fflush(wpa_debug_tracing_file);
 282:C:/Users/stapi/OneDrive/Desktop/GD32VW553/V1_MQTT_OK/GD32VW55X_Wifi_BLE_SDK/GD32VW55x_RELEASE_V1.0.2/MSDK/wpa_supplicant/src/utils\wpa_debug.c **** 	}
 283:C:/Users/stapi/OneDrive/Desktop/GD32VW553/V1_MQTT_OK/GD32VW55X_Wifi_BLE_SDK/GD32VW55x_RELEASE_V1.0.2/MSDK/wpa_supplicant/src/utils\wpa_debug.c **** #endif /* CONFIG_DEBUG_LINUX_TRACING */
 284:C:/Users/stapi/OneDrive/Desktop/GD32VW553/V1_MQTT_OK/GD32VW55X_Wifi_BLE_SDK/GD32VW55x_RELEASE_V1.0.2/MSDK/wpa_supplicant/src/utils\wpa_debug.c **** 
 285:C:/Users/stapi/OneDrive/Desktop/GD32VW553/V1_MQTT_OK/GD32VW55X_Wifi_BLE_SDK/GD32VW55x_RELEASE_V1.0.2/MSDK/wpa_supplicant/src/utils\wpa_debug.c **** 	if (level < wpa_debug_level)
 286:C:/Users/stapi/OneDrive/Desktop/GD32VW553/V1_MQTT_OK/GD32VW55X_Wifi_BLE_SDK/GD32VW55x_RELEASE_V1.0.2/MSDK/wpa_supplicant/src/utils\wpa_debug.c **** 		return;
 287:C:/Users/stapi/OneDrive/Desktop/GD32VW553/V1_MQTT_OK/GD32VW55X_Wifi_BLE_SDK/GD32VW55x_RELEASE_V1.0.2/MSDK/wpa_supplicant/src/utils\wpa_debug.c **** #ifdef CONFIG_ANDROID_LOG
 288:C:/Users/stapi/OneDrive/Desktop/GD32VW553/V1_MQTT_OK/GD32VW55X_Wifi_BLE_SDK/GD32VW55x_RELEASE_V1.0.2/MSDK/wpa_supplicant/src/utils\wpa_debug.c **** 	{
 289:C:/Users/stapi/OneDrive/Desktop/GD32VW553/V1_MQTT_OK/GD32VW55X_Wifi_BLE_SDK/GD32VW55x_RELEASE_V1.0.2/MSDK/wpa_supplicant/src/utils\wpa_debug.c **** 		const char *display;
 290:C:/Users/stapi/OneDrive/Desktop/GD32VW553/V1_MQTT_OK/GD32VW55X_Wifi_BLE_SDK/GD32VW55x_RELEASE_V1.0.2/MSDK/wpa_supplicant/src/utils\wpa_debug.c **** 		char *strbuf = NULL;
 291:C:/Users/stapi/OneDrive/Desktop/GD32VW553/V1_MQTT_OK/GD32VW55X_Wifi_BLE_SDK/GD32VW55x_RELEASE_V1.0.2/MSDK/wpa_supplicant/src/utils\wpa_debug.c **** 		size_t slen = len;
 292:C:/Users/stapi/OneDrive/Desktop/GD32VW553/V1_MQTT_OK/GD32VW55X_Wifi_BLE_SDK/GD32VW55x_RELEASE_V1.0.2/MSDK/wpa_supplicant/src/utils\wpa_debug.c **** 		if (buf == NULL) {
 293:C:/Users/stapi/OneDrive/Desktop/GD32VW553/V1_MQTT_OK/GD32VW55X_Wifi_BLE_SDK/GD32VW55x_RELEASE_V1.0.2/MSDK/wpa_supplicant/src/utils\wpa_debug.c **** 			display = " [NULL]";
 294:C:/Users/stapi/OneDrive/Desktop/GD32VW553/V1_MQTT_OK/GD32VW55X_Wifi_BLE_SDK/GD32VW55x_RELEASE_V1.0.2/MSDK/wpa_supplicant/src/utils\wpa_debug.c **** 		} else if (len == 0) {
 295:C:/Users/stapi/OneDrive/Desktop/GD32VW553/V1_MQTT_OK/GD32VW55X_Wifi_BLE_SDK/GD32VW55x_RELEASE_V1.0.2/MSDK/wpa_supplicant/src/utils\wpa_debug.c **** 			display = "";
 296:C:/Users/stapi/OneDrive/Desktop/GD32VW553/V1_MQTT_OK/GD32VW55X_Wifi_BLE_SDK/GD32VW55x_RELEASE_V1.0.2/MSDK/wpa_supplicant/src/utils\wpa_debug.c **** 		} else if (show && len) {
 297:C:/Users/stapi/OneDrive/Desktop/GD32VW553/V1_MQTT_OK/GD32VW55X_Wifi_BLE_SDK/GD32VW55x_RELEASE_V1.0.2/MSDK/wpa_supplicant/src/utils\wpa_debug.c **** 			/* Limit debug message length for Android log */
 298:C:/Users/stapi/OneDrive/Desktop/GD32VW553/V1_MQTT_OK/GD32VW55X_Wifi_BLE_SDK/GD32VW55x_RELEASE_V1.0.2/MSDK/wpa_supplicant/src/utils\wpa_debug.c **** 			if (slen > 32)
 299:C:/Users/stapi/OneDrive/Desktop/GD32VW553/V1_MQTT_OK/GD32VW55X_Wifi_BLE_SDK/GD32VW55x_RELEASE_V1.0.2/MSDK/wpa_supplicant/src/utils\wpa_debug.c **** 				slen = 32;
 300:C:/Users/stapi/OneDrive/Desktop/GD32VW553/V1_MQTT_OK/GD32VW55X_Wifi_BLE_SDK/GD32VW55x_RELEASE_V1.0.2/MSDK/wpa_supplicant/src/utils\wpa_debug.c **** 			strbuf = os_malloc(1 + 3 * slen);
 301:C:/Users/stapi/OneDrive/Desktop/GD32VW553/V1_MQTT_OK/GD32VW55X_Wifi_BLE_SDK/GD32VW55x_RELEASE_V1.0.2/MSDK/wpa_supplicant/src/utils\wpa_debug.c **** 			if (strbuf == NULL) {
 302:C:/Users/stapi/OneDrive/Desktop/GD32VW553/V1_MQTT_OK/GD32VW55X_Wifi_BLE_SDK/GD32VW55x_RELEASE_V1.0.2/MSDK/wpa_supplicant/src/utils\wpa_debug.c **** 				wpa_printf(MSG_ERROR, "wpa_hexdump: Failed to "
 303:C:/Users/stapi/OneDrive/Desktop/GD32VW553/V1_MQTT_OK/GD32VW55X_Wifi_BLE_SDK/GD32VW55x_RELEASE_V1.0.2/MSDK/wpa_supplicant/src/utils\wpa_debug.c **** 					   "allocate message buffer");
 304:C:/Users/stapi/OneDrive/Desktop/GD32VW553/V1_MQTT_OK/GD32VW55X_Wifi_BLE_SDK/GD32VW55x_RELEASE_V1.0.2/MSDK/wpa_supplicant/src/utils\wpa_debug.c **** 				return;
 305:C:/Users/stapi/OneDrive/Desktop/GD32VW553/V1_MQTT_OK/GD32VW55X_Wifi_BLE_SDK/GD32VW55x_RELEASE_V1.0.2/MSDK/wpa_supplicant/src/utils\wpa_debug.c **** 			}
 306:C:/Users/stapi/OneDrive/Desktop/GD32VW553/V1_MQTT_OK/GD32VW55X_Wifi_BLE_SDK/GD32VW55x_RELEASE_V1.0.2/MSDK/wpa_supplicant/src/utils\wpa_debug.c **** 
 307:C:/Users/stapi/OneDrive/Desktop/GD32VW553/V1_MQTT_OK/GD32VW55X_Wifi_BLE_SDK/GD32VW55x_RELEASE_V1.0.2/MSDK/wpa_supplicant/src/utils\wpa_debug.c **** 			for (i = 0; i < slen; i++)
 308:C:/Users/stapi/OneDrive/Desktop/GD32VW553/V1_MQTT_OK/GD32VW55X_Wifi_BLE_SDK/GD32VW55x_RELEASE_V1.0.2/MSDK/wpa_supplicant/src/utils\wpa_debug.c **** 				os_snprintf(&strbuf[i * 3], 4, " %02x",
 309:C:/Users/stapi/OneDrive/Desktop/GD32VW553/V1_MQTT_OK/GD32VW55X_Wifi_BLE_SDK/GD32VW55x_RELEASE_V1.0.2/MSDK/wpa_supplicant/src/utils\wpa_debug.c **** 					    buf[i]);
 310:C:/Users/stapi/OneDrive/Desktop/GD32VW553/V1_MQTT_OK/GD32VW55X_Wifi_BLE_SDK/GD32VW55x_RELEASE_V1.0.2/MSDK/wpa_supplicant/src/utils\wpa_debug.c **** 
 311:C:/Users/stapi/OneDrive/Desktop/GD32VW553/V1_MQTT_OK/GD32VW55X_Wifi_BLE_SDK/GD32VW55x_RELEASE_V1.0.2/MSDK/wpa_supplicant/src/utils\wpa_debug.c **** 			display = strbuf;
 312:C:/Users/stapi/OneDrive/Desktop/GD32VW553/V1_MQTT_OK/GD32VW55X_Wifi_BLE_SDK/GD32VW55x_RELEASE_V1.0.2/MSDK/wpa_supplicant/src/utils\wpa_debug.c **** 		} else {
 313:C:/Users/stapi/OneDrive/Desktop/GD32VW553/V1_MQTT_OK/GD32VW55X_Wifi_BLE_SDK/GD32VW55x_RELEASE_V1.0.2/MSDK/wpa_supplicant/src/utils\wpa_debug.c **** 			display = " [REMOVED]";
 314:C:/Users/stapi/OneDrive/Desktop/GD32VW553/V1_MQTT_OK/GD32VW55X_Wifi_BLE_SDK/GD32VW55x_RELEASE_V1.0.2/MSDK/wpa_supplicant/src/utils\wpa_debug.c **** 		}
 315:C:/Users/stapi/OneDrive/Desktop/GD32VW553/V1_MQTT_OK/GD32VW55X_Wifi_BLE_SDK/GD32VW55x_RELEASE_V1.0.2/MSDK/wpa_supplicant/src/utils\wpa_debug.c **** 
 316:C:/Users/stapi/OneDrive/Desktop/GD32VW553/V1_MQTT_OK/GD32VW55X_Wifi_BLE_SDK/GD32VW55x_RELEASE_V1.0.2/MSDK/wpa_supplicant/src/utils\wpa_debug.c **** 		__android_log_print(wpa_to_android_level(level),
 317:C:/Users/stapi/OneDrive/Desktop/GD32VW553/V1_MQTT_OK/GD32VW55X_Wifi_BLE_SDK/GD32VW55x_RELEASE_V1.0.2/MSDK/wpa_supplicant/src/utils\wpa_debug.c **** 				    ANDROID_LOG_NAME,
 318:C:/Users/stapi/OneDrive/Desktop/GD32VW553/V1_MQTT_OK/GD32VW55X_Wifi_BLE_SDK/GD32VW55x_RELEASE_V1.0.2/MSDK/wpa_supplicant/src/utils\wpa_debug.c **** 				    "%s - hexdump(len=%lu):%s%s",
 319:C:/Users/stapi/OneDrive/Desktop/GD32VW553/V1_MQTT_OK/GD32VW55X_Wifi_BLE_SDK/GD32VW55x_RELEASE_V1.0.2/MSDK/wpa_supplicant/src/utils\wpa_debug.c **** 				    title, (long unsigned int) len, display,
 320:C:/Users/stapi/OneDrive/Desktop/GD32VW553/V1_MQTT_OK/GD32VW55X_Wifi_BLE_SDK/GD32VW55x_RELEASE_V1.0.2/MSDK/wpa_supplicant/src/utils\wpa_debug.c **** 				    len > slen ? " ..." : "");
 321:C:/Users/stapi/OneDrive/Desktop/GD32VW553/V1_MQTT_OK/GD32VW55X_Wifi_BLE_SDK/GD32VW55x_RELEASE_V1.0.2/MSDK/wpa_supplicant/src/utils\wpa_debug.c **** 		bin_clear_free(strbuf, 1 + 3 * slen);
 322:C:/Users/stapi/OneDrive/Desktop/GD32VW553/V1_MQTT_OK/GD32VW55X_Wifi_BLE_SDK/GD32VW55x_RELEASE_V1.0.2/MSDK/wpa_supplicant/src/utils\wpa_debug.c **** 		return;
 323:C:/Users/stapi/OneDrive/Desktop/GD32VW553/V1_MQTT_OK/GD32VW55X_Wifi_BLE_SDK/GD32VW55x_RELEASE_V1.0.2/MSDK/wpa_supplicant/src/utils\wpa_debug.c **** 	}
 324:C:/Users/stapi/OneDrive/Desktop/GD32VW553/V1_MQTT_OK/GD32VW55X_Wifi_BLE_SDK/GD32VW55x_RELEASE_V1.0.2/MSDK/wpa_supplicant/src/utils\wpa_debug.c **** #else /* CONFIG_ANDROID_LOG */
 325:C:/Users/stapi/OneDrive/Desktop/GD32VW553/V1_MQTT_OK/GD32VW55X_Wifi_BLE_SDK/GD32VW55x_RELEASE_V1.0.2/MSDK/wpa_supplicant/src/utils\wpa_debug.c **** #ifdef CONFIG_DEBUG_SYSLOG
 326:C:/Users/stapi/OneDrive/Desktop/GD32VW553/V1_MQTT_OK/GD32VW55X_Wifi_BLE_SDK/GD32VW55x_RELEASE_V1.0.2/MSDK/wpa_supplicant/src/utils\wpa_debug.c **** 	if (wpa_debug_syslog) {
 327:C:/Users/stapi/OneDrive/Desktop/GD32VW553/V1_MQTT_OK/GD32VW55X_Wifi_BLE_SDK/GD32VW55x_RELEASE_V1.0.2/MSDK/wpa_supplicant/src/utils\wpa_debug.c **** 		const char *display;
 328:C:/Users/stapi/OneDrive/Desktop/GD32VW553/V1_MQTT_OK/GD32VW55X_Wifi_BLE_SDK/GD32VW55x_RELEASE_V1.0.2/MSDK/wpa_supplicant/src/utils\wpa_debug.c **** 		char *strbuf = NULL;
 329:C:/Users/stapi/OneDrive/Desktop/GD32VW553/V1_MQTT_OK/GD32VW55X_Wifi_BLE_SDK/GD32VW55x_RELEASE_V1.0.2/MSDK/wpa_supplicant/src/utils\wpa_debug.c **** 
 330:C:/Users/stapi/OneDrive/Desktop/GD32VW553/V1_MQTT_OK/GD32VW55X_Wifi_BLE_SDK/GD32VW55x_RELEASE_V1.0.2/MSDK/wpa_supplicant/src/utils\wpa_debug.c **** 		if (buf == NULL) {
 331:C:/Users/stapi/OneDrive/Desktop/GD32VW553/V1_MQTT_OK/GD32VW55X_Wifi_BLE_SDK/GD32VW55x_RELEASE_V1.0.2/MSDK/wpa_supplicant/src/utils\wpa_debug.c **** 			display = " [NULL]";
 332:C:/Users/stapi/OneDrive/Desktop/GD32VW553/V1_MQTT_OK/GD32VW55X_Wifi_BLE_SDK/GD32VW55x_RELEASE_V1.0.2/MSDK/wpa_supplicant/src/utils\wpa_debug.c **** 		} else if (len == 0) {
 333:C:/Users/stapi/OneDrive/Desktop/GD32VW553/V1_MQTT_OK/GD32VW55X_Wifi_BLE_SDK/GD32VW55x_RELEASE_V1.0.2/MSDK/wpa_supplicant/src/utils\wpa_debug.c **** 			display = "";
 334:C:/Users/stapi/OneDrive/Desktop/GD32VW553/V1_MQTT_OK/GD32VW55X_Wifi_BLE_SDK/GD32VW55x_RELEASE_V1.0.2/MSDK/wpa_supplicant/src/utils\wpa_debug.c **** 		} else if (show && len) {
 335:C:/Users/stapi/OneDrive/Desktop/GD32VW553/V1_MQTT_OK/GD32VW55X_Wifi_BLE_SDK/GD32VW55x_RELEASE_V1.0.2/MSDK/wpa_supplicant/src/utils\wpa_debug.c **** 			strbuf = os_malloc(1 + 3 * len);
 336:C:/Users/stapi/OneDrive/Desktop/GD32VW553/V1_MQTT_OK/GD32VW55X_Wifi_BLE_SDK/GD32VW55x_RELEASE_V1.0.2/MSDK/wpa_supplicant/src/utils\wpa_debug.c **** 			if (strbuf == NULL) {
 337:C:/Users/stapi/OneDrive/Desktop/GD32VW553/V1_MQTT_OK/GD32VW55X_Wifi_BLE_SDK/GD32VW55x_RELEASE_V1.0.2/MSDK/wpa_supplicant/src/utils\wpa_debug.c **** 				wpa_printf(MSG_ERROR, "wpa_hexdump: Failed to "
 338:C:/Users/stapi/OneDrive/Desktop/GD32VW553/V1_MQTT_OK/GD32VW55X_Wifi_BLE_SDK/GD32VW55x_RELEASE_V1.0.2/MSDK/wpa_supplicant/src/utils\wpa_debug.c **** 					   "allocate message buffer");
 339:C:/Users/stapi/OneDrive/Desktop/GD32VW553/V1_MQTT_OK/GD32VW55X_Wifi_BLE_SDK/GD32VW55x_RELEASE_V1.0.2/MSDK/wpa_supplicant/src/utils\wpa_debug.c **** 				return;
 340:C:/Users/stapi/OneDrive/Desktop/GD32VW553/V1_MQTT_OK/GD32VW55X_Wifi_BLE_SDK/GD32VW55x_RELEASE_V1.0.2/MSDK/wpa_supplicant/src/utils\wpa_debug.c **** 			}
 341:C:/Users/stapi/OneDrive/Desktop/GD32VW553/V1_MQTT_OK/GD32VW55X_Wifi_BLE_SDK/GD32VW55x_RELEASE_V1.0.2/MSDK/wpa_supplicant/src/utils\wpa_debug.c **** 
 342:C:/Users/stapi/OneDrive/Desktop/GD32VW553/V1_MQTT_OK/GD32VW55X_Wifi_BLE_SDK/GD32VW55x_RELEASE_V1.0.2/MSDK/wpa_supplicant/src/utils\wpa_debug.c **** 			for (i = 0; i < len; i++)
 343:C:/Users/stapi/OneDrive/Desktop/GD32VW553/V1_MQTT_OK/GD32VW55X_Wifi_BLE_SDK/GD32VW55x_RELEASE_V1.0.2/MSDK/wpa_supplicant/src/utils\wpa_debug.c **** 				os_snprintf(&strbuf[i * 3], 4, " %02x",
 344:C:/Users/stapi/OneDrive/Desktop/GD32VW553/V1_MQTT_OK/GD32VW55X_Wifi_BLE_SDK/GD32VW55x_RELEASE_V1.0.2/MSDK/wpa_supplicant/src/utils\wpa_debug.c **** 					    buf[i]);
 345:C:/Users/stapi/OneDrive/Desktop/GD32VW553/V1_MQTT_OK/GD32VW55X_Wifi_BLE_SDK/GD32VW55x_RELEASE_V1.0.2/MSDK/wpa_supplicant/src/utils\wpa_debug.c **** 
 346:C:/Users/stapi/OneDrive/Desktop/GD32VW553/V1_MQTT_OK/GD32VW55X_Wifi_BLE_SDK/GD32VW55x_RELEASE_V1.0.2/MSDK/wpa_supplicant/src/utils\wpa_debug.c **** 			display = strbuf;
 347:C:/Users/stapi/OneDrive/Desktop/GD32VW553/V1_MQTT_OK/GD32VW55X_Wifi_BLE_SDK/GD32VW55x_RELEASE_V1.0.2/MSDK/wpa_supplicant/src/utils\wpa_debug.c **** 		} else {
 348:C:/Users/stapi/OneDrive/Desktop/GD32VW553/V1_MQTT_OK/GD32VW55X_Wifi_BLE_SDK/GD32VW55x_RELEASE_V1.0.2/MSDK/wpa_supplicant/src/utils\wpa_debug.c **** 			display = " [REMOVED]";
 349:C:/Users/stapi/OneDrive/Desktop/GD32VW553/V1_MQTT_OK/GD32VW55X_Wifi_BLE_SDK/GD32VW55x_RELEASE_V1.0.2/MSDK/wpa_supplicant/src/utils\wpa_debug.c **** 		}
 350:C:/Users/stapi/OneDrive/Desktop/GD32VW553/V1_MQTT_OK/GD32VW55X_Wifi_BLE_SDK/GD32VW55x_RELEASE_V1.0.2/MSDK/wpa_supplicant/src/utils\wpa_debug.c **** 
 351:C:/Users/stapi/OneDrive/Desktop/GD32VW553/V1_MQTT_OK/GD32VW55X_Wifi_BLE_SDK/GD32VW55x_RELEASE_V1.0.2/MSDK/wpa_supplicant/src/utils\wpa_debug.c **** 		syslog(syslog_priority(level), "%s - hexdump(len=%lu):%s",
 352:C:/Users/stapi/OneDrive/Desktop/GD32VW553/V1_MQTT_OK/GD32VW55X_Wifi_BLE_SDK/GD32VW55x_RELEASE_V1.0.2/MSDK/wpa_supplicant/src/utils\wpa_debug.c **** 		       title, (unsigned long) len, display);
 353:C:/Users/stapi/OneDrive/Desktop/GD32VW553/V1_MQTT_OK/GD32VW55X_Wifi_BLE_SDK/GD32VW55x_RELEASE_V1.0.2/MSDK/wpa_supplicant/src/utils\wpa_debug.c **** 		bin_clear_free(strbuf, 1 + 3 * len);
 354:C:/Users/stapi/OneDrive/Desktop/GD32VW553/V1_MQTT_OK/GD32VW55X_Wifi_BLE_SDK/GD32VW55x_RELEASE_V1.0.2/MSDK/wpa_supplicant/src/utils\wpa_debug.c **** 		if (only_syslog)
 355:C:/Users/stapi/OneDrive/Desktop/GD32VW553/V1_MQTT_OK/GD32VW55X_Wifi_BLE_SDK/GD32VW55x_RELEASE_V1.0.2/MSDK/wpa_supplicant/src/utils\wpa_debug.c **** 			return;
 356:C:/Users/stapi/OneDrive/Desktop/GD32VW553/V1_MQTT_OK/GD32VW55X_Wifi_BLE_SDK/GD32VW55x_RELEASE_V1.0.2/MSDK/wpa_supplicant/src/utils\wpa_debug.c **** 	}
 357:C:/Users/stapi/OneDrive/Desktop/GD32VW553/V1_MQTT_OK/GD32VW55X_Wifi_BLE_SDK/GD32VW55x_RELEASE_V1.0.2/MSDK/wpa_supplicant/src/utils\wpa_debug.c **** #endif /* CONFIG_DEBUG_SYSLOG */
 358:C:/Users/stapi/OneDrive/Desktop/GD32VW553/V1_MQTT_OK/GD32VW55X_Wifi_BLE_SDK/GD32VW55x_RELEASE_V1.0.2/MSDK/wpa_supplicant/src/utils\wpa_debug.c **** 	wpa_debug_print_timestamp();
 359:C:/Users/stapi/OneDrive/Desktop/GD32VW553/V1_MQTT_OK/GD32VW55X_Wifi_BLE_SDK/GD32VW55x_RELEASE_V1.0.2/MSDK/wpa_supplicant/src/utils\wpa_debug.c **** #ifdef CONFIG_DEBUG_FILE
 360:C:/Users/stapi/OneDrive/Desktop/GD32VW553/V1_MQTT_OK/GD32VW55X_Wifi_BLE_SDK/GD32VW55x_RELEASE_V1.0.2/MSDK/wpa_supplicant/src/utils\wpa_debug.c **** 	if (out_file) {
 361:C:/Users/stapi/OneDrive/Desktop/GD32VW553/V1_MQTT_OK/GD32VW55X_Wifi_BLE_SDK/GD32VW55x_RELEASE_V1.0.2/MSDK/wpa_supplicant/src/utils\wpa_debug.c **** 		fprintf(out_file, "%s - hexdump(len=%lu):",
 362:C:/Users/stapi/OneDrive/Desktop/GD32VW553/V1_MQTT_OK/GD32VW55X_Wifi_BLE_SDK/GD32VW55x_RELEASE_V1.0.2/MSDK/wpa_supplicant/src/utils\wpa_debug.c **** 			title, (unsigned long) len);
 363:C:/Users/stapi/OneDrive/Desktop/GD32VW553/V1_MQTT_OK/GD32VW55X_Wifi_BLE_SDK/GD32VW55x_RELEASE_V1.0.2/MSDK/wpa_supplicant/src/utils\wpa_debug.c **** 		if (buf == NULL) {
 364:C:/Users/stapi/OneDrive/Desktop/GD32VW553/V1_MQTT_OK/GD32VW55X_Wifi_BLE_SDK/GD32VW55x_RELEASE_V1.0.2/MSDK/wpa_supplicant/src/utils\wpa_debug.c **** 			fprintf(out_file, " [NULL]");
 365:C:/Users/stapi/OneDrive/Desktop/GD32VW553/V1_MQTT_OK/GD32VW55X_Wifi_BLE_SDK/GD32VW55x_RELEASE_V1.0.2/MSDK/wpa_supplicant/src/utils\wpa_debug.c **** 		} else if (show) {
 366:C:/Users/stapi/OneDrive/Desktop/GD32VW553/V1_MQTT_OK/GD32VW55X_Wifi_BLE_SDK/GD32VW55x_RELEASE_V1.0.2/MSDK/wpa_supplicant/src/utils\wpa_debug.c **** 			for (i = 0; i < len; i++)
 367:C:/Users/stapi/OneDrive/Desktop/GD32VW553/V1_MQTT_OK/GD32VW55X_Wifi_BLE_SDK/GD32VW55x_RELEASE_V1.0.2/MSDK/wpa_supplicant/src/utils\wpa_debug.c **** 				fprintf(out_file, " %02x", buf[i]);
 368:C:/Users/stapi/OneDrive/Desktop/GD32VW553/V1_MQTT_OK/GD32VW55X_Wifi_BLE_SDK/GD32VW55x_RELEASE_V1.0.2/MSDK/wpa_supplicant/src/utils\wpa_debug.c **** 		} else {
 369:C:/Users/stapi/OneDrive/Desktop/GD32VW553/V1_MQTT_OK/GD32VW55X_Wifi_BLE_SDK/GD32VW55x_RELEASE_V1.0.2/MSDK/wpa_supplicant/src/utils\wpa_debug.c **** 			fprintf(out_file, " [REMOVED]");
 370:C:/Users/stapi/OneDrive/Desktop/GD32VW553/V1_MQTT_OK/GD32VW55X_Wifi_BLE_SDK/GD32VW55x_RELEASE_V1.0.2/MSDK/wpa_supplicant/src/utils\wpa_debug.c **** 		}
 371:C:/Users/stapi/OneDrive/Desktop/GD32VW553/V1_MQTT_OK/GD32VW55X_Wifi_BLE_SDK/GD32VW55x_RELEASE_V1.0.2/MSDK/wpa_supplicant/src/utils\wpa_debug.c **** 		fprintf(out_file, "\n");
 372:C:/Users/stapi/OneDrive/Desktop/GD32VW553/V1_MQTT_OK/GD32VW55X_Wifi_BLE_SDK/GD32VW55x_RELEASE_V1.0.2/MSDK/wpa_supplicant/src/utils\wpa_debug.c **** 	}
 373:C:/Users/stapi/OneDrive/Desktop/GD32VW553/V1_MQTT_OK/GD32VW55X_Wifi_BLE_SDK/GD32VW55x_RELEASE_V1.0.2/MSDK/wpa_supplicant/src/utils\wpa_debug.c **** #endif /* CONFIG_DEBUG_FILE */
 374:C:/Users/stapi/OneDrive/Desktop/GD32VW553/V1_MQTT_OK/GD32VW55X_Wifi_BLE_SDK/GD32VW55x_RELEASE_V1.0.2/MSDK/wpa_supplicant/src/utils\wpa_debug.c **** 	if (!wpa_debug_syslog && !out_file) {
 375:C:/Users/stapi/OneDrive/Desktop/GD32VW553/V1_MQTT_OK/GD32VW55X_Wifi_BLE_SDK/GD32VW55x_RELEASE_V1.0.2/MSDK/wpa_supplicant/src/utils\wpa_debug.c **** 		printf("%s - hexdump(len=%lu):", title, (unsigned long) len);
 376:C:/Users/stapi/OneDrive/Desktop/GD32VW553/V1_MQTT_OK/GD32VW55X_Wifi_BLE_SDK/GD32VW55x_RELEASE_V1.0.2/MSDK/wpa_supplicant/src/utils\wpa_debug.c **** 		if (buf == NULL) {
 377:C:/Users/stapi/OneDrive/Desktop/GD32VW553/V1_MQTT_OK/GD32VW55X_Wifi_BLE_SDK/GD32VW55x_RELEASE_V1.0.2/MSDK/wpa_supplicant/src/utils\wpa_debug.c **** 			printf(" [NULL]");
 378:C:/Users/stapi/OneDrive/Desktop/GD32VW553/V1_MQTT_OK/GD32VW55X_Wifi_BLE_SDK/GD32VW55x_RELEASE_V1.0.2/MSDK/wpa_supplicant/src/utils\wpa_debug.c **** 		} else if (show) {
 379:C:/Users/stapi/OneDrive/Desktop/GD32VW553/V1_MQTT_OK/GD32VW55X_Wifi_BLE_SDK/GD32VW55x_RELEASE_V1.0.2/MSDK/wpa_supplicant/src/utils\wpa_debug.c **** 			for (i = 0; i < len; i++)
 380:C:/Users/stapi/OneDrive/Desktop/GD32VW553/V1_MQTT_OK/GD32VW55X_Wifi_BLE_SDK/GD32VW55x_RELEASE_V1.0.2/MSDK/wpa_supplicant/src/utils\wpa_debug.c **** 				printf(" %02x", buf[i]);
 381:C:/Users/stapi/OneDrive/Desktop/GD32VW553/V1_MQTT_OK/GD32VW55X_Wifi_BLE_SDK/GD32VW55x_RELEASE_V1.0.2/MSDK/wpa_supplicant/src/utils\wpa_debug.c **** 		} else {
 382:C:/Users/stapi/OneDrive/Desktop/GD32VW553/V1_MQTT_OK/GD32VW55X_Wifi_BLE_SDK/GD32VW55x_RELEASE_V1.0.2/MSDK/wpa_supplicant/src/utils\wpa_debug.c **** 			printf(" [REMOVED]");
 383:C:/Users/stapi/OneDrive/Desktop/GD32VW553/V1_MQTT_OK/GD32VW55X_Wifi_BLE_SDK/GD32VW55x_RELEASE_V1.0.2/MSDK/wpa_supplicant/src/utils\wpa_debug.c **** 		}
 384:C:/Users/stapi/OneDrive/Desktop/GD32VW553/V1_MQTT_OK/GD32VW55X_Wifi_BLE_SDK/GD32VW55x_RELEASE_V1.0.2/MSDK/wpa_supplicant/src/utils\wpa_debug.c **** 		printf("\n");
 385:C:/Users/stapi/OneDrive/Desktop/GD32VW553/V1_MQTT_OK/GD32VW55X_Wifi_BLE_SDK/GD32VW55x_RELEASE_V1.0.2/MSDK/wpa_supplicant/src/utils\wpa_debug.c **** 	}
 386:C:/Users/stapi/OneDrive/Desktop/GD32VW553/V1_MQTT_OK/GD32VW55X_Wifi_BLE_SDK/GD32VW55x_RELEASE_V1.0.2/MSDK/wpa_supplicant/src/utils\wpa_debug.c **** #endif /* CONFIG_ANDROID_LOG */
 387:C:/Users/stapi/OneDrive/Desktop/GD32VW553/V1_MQTT_OK/GD32VW55X_Wifi_BLE_SDK/GD32VW55x_RELEASE_V1.0.2/MSDK/wpa_supplicant/src/utils\wpa_debug.c **** }
 388:C:/Users/stapi/OneDrive/Desktop/GD32VW553/V1_MQTT_OK/GD32VW55X_Wifi_BLE_SDK/GD32VW55x_RELEASE_V1.0.2/MSDK/wpa_supplicant/src/utils\wpa_debug.c **** 
 389:C:/Users/stapi/OneDrive/Desktop/GD32VW553/V1_MQTT_OK/GD32VW55X_Wifi_BLE_SDK/GD32VW55x_RELEASE_V1.0.2/MSDK/wpa_supplicant/src/utils\wpa_debug.c **** void wpa_hexdump(int level, const char *title, const void *buf, size_t len)
 390:C:/Users/stapi/OneDrive/Desktop/GD32VW553/V1_MQTT_OK/GD32VW55X_Wifi_BLE_SDK/GD32VW55x_RELEASE_V1.0.2/MSDK/wpa_supplicant/src/utils\wpa_debug.c **** {
 391:C:/Users/stapi/OneDrive/Desktop/GD32VW553/V1_MQTT_OK/GD32VW55X_Wifi_BLE_SDK/GD32VW55x_RELEASE_V1.0.2/MSDK/wpa_supplicant/src/utils\wpa_debug.c **** 	_wpa_hexdump(level, title, buf, len, 1, 0);
 392:C:/Users/stapi/OneDrive/Desktop/GD32VW553/V1_MQTT_OK/GD32VW55X_Wifi_BLE_SDK/GD32VW55x_RELEASE_V1.0.2/MSDK/wpa_supplicant/src/utils\wpa_debug.c **** }
 393:C:/Users/stapi/OneDrive/Desktop/GD32VW553/V1_MQTT_OK/GD32VW55X_Wifi_BLE_SDK/GD32VW55x_RELEASE_V1.0.2/MSDK/wpa_supplicant/src/utils\wpa_debug.c **** 
 394:C:/Users/stapi/OneDrive/Desktop/GD32VW553/V1_MQTT_OK/GD32VW55X_Wifi_BLE_SDK/GD32VW55x_RELEASE_V1.0.2/MSDK/wpa_supplicant/src/utils\wpa_debug.c **** 
 395:C:/Users/stapi/OneDrive/Desktop/GD32VW553/V1_MQTT_OK/GD32VW55X_Wifi_BLE_SDK/GD32VW55x_RELEASE_V1.0.2/MSDK/wpa_supplicant/src/utils\wpa_debug.c **** void wpa_hexdump_key(int level, const char *title, const void *buf, size_t len)
 396:C:/Users/stapi/OneDrive/Desktop/GD32VW553/V1_MQTT_OK/GD32VW55X_Wifi_BLE_SDK/GD32VW55x_RELEASE_V1.0.2/MSDK/wpa_supplicant/src/utils\wpa_debug.c **** {
 397:C:/Users/stapi/OneDrive/Desktop/GD32VW553/V1_MQTT_OK/GD32VW55X_Wifi_BLE_SDK/GD32VW55x_RELEASE_V1.0.2/MSDK/wpa_supplicant/src/utils\wpa_debug.c **** 	_wpa_hexdump(level, title, buf, len, wpa_debug_show_keys, 0);
 398:C:/Users/stapi/OneDrive/Desktop/GD32VW553/V1_MQTT_OK/GD32VW55X_Wifi_BLE_SDK/GD32VW55x_RELEASE_V1.0.2/MSDK/wpa_supplicant/src/utils\wpa_debug.c **** }
 399:C:/Users/stapi/OneDrive/Desktop/GD32VW553/V1_MQTT_OK/GD32VW55X_Wifi_BLE_SDK/GD32VW55x_RELEASE_V1.0.2/MSDK/wpa_supplicant/src/utils\wpa_debug.c **** 
 400:C:/Users/stapi/OneDrive/Desktop/GD32VW553/V1_MQTT_OK/GD32VW55X_Wifi_BLE_SDK/GD32VW55x_RELEASE_V1.0.2/MSDK/wpa_supplicant/src/utils\wpa_debug.c **** 
 401:C:/Users/stapi/OneDrive/Desktop/GD32VW553/V1_MQTT_OK/GD32VW55X_Wifi_BLE_SDK/GD32VW55x_RELEASE_V1.0.2/MSDK/wpa_supplicant/src/utils\wpa_debug.c **** static void _wpa_hexdump_ascii(int level, const char *title, const void *buf,
 402:C:/Users/stapi/OneDrive/Desktop/GD32VW553/V1_MQTT_OK/GD32VW55X_Wifi_BLE_SDK/GD32VW55x_RELEASE_V1.0.2/MSDK/wpa_supplicant/src/utils\wpa_debug.c **** 			       size_t len, int show)
 403:C:/Users/stapi/OneDrive/Desktop/GD32VW553/V1_MQTT_OK/GD32VW55X_Wifi_BLE_SDK/GD32VW55x_RELEASE_V1.0.2/MSDK/wpa_supplicant/src/utils\wpa_debug.c **** {
  97              		.loc 1 403 1 is_stmt 1
  98              		.cfi_startproc
  99              	.LVL2:
 100 0000 17030000 		call	t0,__riscv_save_9
 100      E7020300 
 101              		.cfi_offset 24, -40
 102              		.cfi_offset 23, -36
 103              		.cfi_offset 22, -32
 104              		.cfi_offset 21, -28
 105              		.cfi_offset 20, -24
 106              		.cfi_offset 19, -20
 107              		.cfi_offset 18, -16
 108              		.cfi_offset 9, -12
 109              		.cfi_offset 8, -8
 110              		.cfi_offset 1, -4
 111              		.cfi_def_cfa_offset 48
 404:C:/Users/stapi/OneDrive/Desktop/GD32VW553/V1_MQTT_OK/GD32VW55X_Wifi_BLE_SDK/GD32VW55x_RELEASE_V1.0.2/MSDK/wpa_supplicant/src/utils\wpa_debug.c **** 	size_t i, llen;
 405:C:/Users/stapi/OneDrive/Desktop/GD32VW553/V1_MQTT_OK/GD32VW55X_Wifi_BLE_SDK/GD32VW55x_RELEASE_V1.0.2/MSDK/wpa_supplicant/src/utils\wpa_debug.c **** 	const u8 *pos = buf;
 406:C:/Users/stapi/OneDrive/Desktop/GD32VW553/V1_MQTT_OK/GD32VW55X_Wifi_BLE_SDK/GD32VW55x_RELEASE_V1.0.2/MSDK/wpa_supplicant/src/utils\wpa_debug.c **** 	const size_t line_len = 16;
 407:C:/Users/stapi/OneDrive/Desktop/GD32VW553/V1_MQTT_OK/GD32VW55X_Wifi_BLE_SDK/GD32VW55x_RELEASE_V1.0.2/MSDK/wpa_supplicant/src/utils\wpa_debug.c **** 
 408:C:/Users/stapi/OneDrive/Desktop/GD32VW553/V1_MQTT_OK/GD32VW55X_Wifi_BLE_SDK/GD32VW55x_RELEASE_V1.0.2/MSDK/wpa_supplicant/src/utils\wpa_debug.c **** #ifdef CONFIG_DEBUG_LINUX_TRACING
 409:C:/Users/stapi/OneDrive/Desktop/GD32VW553/V1_MQTT_OK/GD32VW55X_Wifi_BLE_SDK/GD32VW55x_RELEASE_V1.0.2/MSDK/wpa_supplicant/src/utils\wpa_debug.c **** 	if (wpa_debug_tracing_file != NULL) {
 410:C:/Users/stapi/OneDrive/Desktop/GD32VW553/V1_MQTT_OK/GD32VW55X_Wifi_BLE_SDK/GD32VW55x_RELEASE_V1.0.2/MSDK/wpa_supplicant/src/utils\wpa_debug.c **** 		fprintf(wpa_debug_tracing_file,
 411:C:/Users/stapi/OneDrive/Desktop/GD32VW553/V1_MQTT_OK/GD32VW55X_Wifi_BLE_SDK/GD32VW55x_RELEASE_V1.0.2/MSDK/wpa_supplicant/src/utils\wpa_debug.c **** 			WPAS_TRACE_PFX "%s - hexdump_ascii(len=%lu):",
 412:C:/Users/stapi/OneDrive/Desktop/GD32VW553/V1_MQTT_OK/GD32VW55X_Wifi_BLE_SDK/GD32VW55x_RELEASE_V1.0.2/MSDK/wpa_supplicant/src/utils\wpa_debug.c **** 			level, title, (unsigned long) len);
 413:C:/Users/stapi/OneDrive/Desktop/GD32VW553/V1_MQTT_OK/GD32VW55X_Wifi_BLE_SDK/GD32VW55x_RELEASE_V1.0.2/MSDK/wpa_supplicant/src/utils\wpa_debug.c **** 		if (buf == NULL) {
 414:C:/Users/stapi/OneDrive/Desktop/GD32VW553/V1_MQTT_OK/GD32VW55X_Wifi_BLE_SDK/GD32VW55x_RELEASE_V1.0.2/MSDK/wpa_supplicant/src/utils\wpa_debug.c **** 			fprintf(wpa_debug_tracing_file, " [NULL]\n");
 415:C:/Users/stapi/OneDrive/Desktop/GD32VW553/V1_MQTT_OK/GD32VW55X_Wifi_BLE_SDK/GD32VW55x_RELEASE_V1.0.2/MSDK/wpa_supplicant/src/utils\wpa_debug.c **** 		} else if (!show) {
 416:C:/Users/stapi/OneDrive/Desktop/GD32VW553/V1_MQTT_OK/GD32VW55X_Wifi_BLE_SDK/GD32VW55x_RELEASE_V1.0.2/MSDK/wpa_supplicant/src/utils\wpa_debug.c **** 			fprintf(wpa_debug_tracing_file, " [REMOVED]\n");
 417:C:/Users/stapi/OneDrive/Desktop/GD32VW553/V1_MQTT_OK/GD32VW55X_Wifi_BLE_SDK/GD32VW55x_RELEASE_V1.0.2/MSDK/wpa_supplicant/src/utils\wpa_debug.c **** 		} else {
 418:C:/Users/stapi/OneDrive/Desktop/GD32VW553/V1_MQTT_OK/GD32VW55X_Wifi_BLE_SDK/GD32VW55x_RELEASE_V1.0.2/MSDK/wpa_supplicant/src/utils\wpa_debug.c **** 			/* can do ascii processing in userspace */
 419:C:/Users/stapi/OneDrive/Desktop/GD32VW553/V1_MQTT_OK/GD32VW55X_Wifi_BLE_SDK/GD32VW55x_RELEASE_V1.0.2/MSDK/wpa_supplicant/src/utils\wpa_debug.c **** 			for (i = 0; i < len; i++)
 420:C:/Users/stapi/OneDrive/Desktop/GD32VW553/V1_MQTT_OK/GD32VW55X_Wifi_BLE_SDK/GD32VW55x_RELEASE_V1.0.2/MSDK/wpa_supplicant/src/utils\wpa_debug.c **** 				fprintf(wpa_debug_tracing_file,
 421:C:/Users/stapi/OneDrive/Desktop/GD32VW553/V1_MQTT_OK/GD32VW55X_Wifi_BLE_SDK/GD32VW55x_RELEASE_V1.0.2/MSDK/wpa_supplicant/src/utils\wpa_debug.c **** 					" %02x", pos[i]);
 422:C:/Users/stapi/OneDrive/Desktop/GD32VW553/V1_MQTT_OK/GD32VW55X_Wifi_BLE_SDK/GD32VW55x_RELEASE_V1.0.2/MSDK/wpa_supplicant/src/utils\wpa_debug.c **** 		}
 423:C:/Users/stapi/OneDrive/Desktop/GD32VW553/V1_MQTT_OK/GD32VW55X_Wifi_BLE_SDK/GD32VW55x_RELEASE_V1.0.2/MSDK/wpa_supplicant/src/utils\wpa_debug.c **** 		fflush(wpa_debug_tracing_file);
 424:C:/Users/stapi/OneDrive/Desktop/GD32VW553/V1_MQTT_OK/GD32VW55X_Wifi_BLE_SDK/GD32VW55x_RELEASE_V1.0.2/MSDK/wpa_supplicant/src/utils\wpa_debug.c **** 	}
 425:C:/Users/stapi/OneDrive/Desktop/GD32VW553/V1_MQTT_OK/GD32VW55X_Wifi_BLE_SDK/GD32VW55x_RELEASE_V1.0.2/MSDK/wpa_supplicant/src/utils\wpa_debug.c **** #endif /* CONFIG_DEBUG_LINUX_TRACING */
 426:C:/Users/stapi/OneDrive/Desktop/GD32VW553/V1_MQTT_OK/GD32VW55X_Wifi_BLE_SDK/GD32VW55x_RELEASE_V1.0.2/MSDK/wpa_supplicant/src/utils\wpa_debug.c **** 
 427:C:/Users/stapi/OneDrive/Desktop/GD32VW553/V1_MQTT_OK/GD32VW55X_Wifi_BLE_SDK/GD32VW55x_RELEASE_V1.0.2/MSDK/wpa_supplicant/src/utils\wpa_debug.c **** 	if (level < wpa_debug_level)
 112              		.loc 1 427 5 is_stmt 0
 113 0008 B7070000 		lui	a5,%hi(.LANCHOR2)
 114 000c 83A70700 		lw	a5,%lo(.LANCHOR2)(a5)
 403:C:/Users/stapi/OneDrive/Desktop/GD32VW553/V1_MQTT_OK/GD32VW55X_Wifi_BLE_SDK/GD32VW55x_RELEASE_V1.0.2/MSDK/wpa_supplicant/src/utils\wpa_debug.c **** 	size_t i, llen;
 115              		.loc 1 403 1
 116 0010 4111     		addi	sp,sp,-16
 117              		.cfi_def_cfa_offset 64
 403:C:/Users/stapi/OneDrive/Desktop/GD32VW553/V1_MQTT_OK/GD32VW55X_Wifi_BLE_SDK/GD32VW55x_RELEASE_V1.0.2/MSDK/wpa_supplicant/src/utils\wpa_debug.c **** 	size_t i, llen;
 118              		.loc 1 403 1
 119 0012 2EC6     		sw	a1,12(sp)
 404:C:/Users/stapi/OneDrive/Desktop/GD32VW553/V1_MQTT_OK/GD32VW55X_Wifi_BLE_SDK/GD32VW55x_RELEASE_V1.0.2/MSDK/wpa_supplicant/src/utils\wpa_debug.c **** 	size_t i, llen;
 120              		.loc 1 404 2 is_stmt 1
 405:C:/Users/stapi/OneDrive/Desktop/GD32VW553/V1_MQTT_OK/GD32VW55X_Wifi_BLE_SDK/GD32VW55x_RELEASE_V1.0.2/MSDK/wpa_supplicant/src/utils\wpa_debug.c **** 	const size_t line_len = 16;
 121              		.loc 1 405 2
 122              	.LVL3:
 406:C:/Users/stapi/OneDrive/Desktop/GD32VW553/V1_MQTT_OK/GD32VW55X_Wifi_BLE_SDK/GD32VW55x_RELEASE_V1.0.2/MSDK/wpa_supplicant/src/utils\wpa_debug.c **** 
 123              		.loc 1 406 2
 124              		.loc 1 427 2
 125              		.loc 1 427 5 is_stmt 0
 126 0014 634AF502 		bgt	a5,a0,.L11
 127 0018 B284     		mv	s1,a2
 128 001a 3684     		mv	s0,a3
 129 001c 3A89     		mv	s2,a4
 428:C:/Users/stapi/OneDrive/Desktop/GD32VW553/V1_MQTT_OK/GD32VW55X_Wifi_BLE_SDK/GD32VW55x_RELEASE_V1.0.2/MSDK/wpa_supplicant/src/utils\wpa_debug.c **** 		return;
 429:C:/Users/stapi/OneDrive/Desktop/GD32VW553/V1_MQTT_OK/GD32VW55X_Wifi_BLE_SDK/GD32VW55x_RELEASE_V1.0.2/MSDK/wpa_supplicant/src/utils\wpa_debug.c **** #ifdef CONFIG_ANDROID_LOG
 430:C:/Users/stapi/OneDrive/Desktop/GD32VW553/V1_MQTT_OK/GD32VW55X_Wifi_BLE_SDK/GD32VW55x_RELEASE_V1.0.2/MSDK/wpa_supplicant/src/utils\wpa_debug.c **** 	_wpa_hexdump(level, title, buf, len, show, 0);
 431:C:/Users/stapi/OneDrive/Desktop/GD32VW553/V1_MQTT_OK/GD32VW55X_Wifi_BLE_SDK/GD32VW55x_RELEASE_V1.0.2/MSDK/wpa_supplicant/src/utils\wpa_debug.c **** #else /* CONFIG_ANDROID_LOG */
 432:C:/Users/stapi/OneDrive/Desktop/GD32VW553/V1_MQTT_OK/GD32VW55X_Wifi_BLE_SDK/GD32VW55x_RELEASE_V1.0.2/MSDK/wpa_supplicant/src/utils\wpa_debug.c **** #ifdef CONFIG_DEBUG_SYSLOG
 433:C:/Users/stapi/OneDrive/Desktop/GD32VW553/V1_MQTT_OK/GD32VW55X_Wifi_BLE_SDK/GD32VW55x_RELEASE_V1.0.2/MSDK/wpa_supplicant/src/utils\wpa_debug.c **** 	if (wpa_debug_syslog)
 434:C:/Users/stapi/OneDrive/Desktop/GD32VW553/V1_MQTT_OK/GD32VW55X_Wifi_BLE_SDK/GD32VW55x_RELEASE_V1.0.2/MSDK/wpa_supplicant/src/utils\wpa_debug.c **** 		_wpa_hexdump(level, title, buf, len, show, 1);
 435:C:/Users/stapi/OneDrive/Desktop/GD32VW553/V1_MQTT_OK/GD32VW55X_Wifi_BLE_SDK/GD32VW55x_RELEASE_V1.0.2/MSDK/wpa_supplicant/src/utils\wpa_debug.c **** #endif /* CONFIG_DEBUG_SYSLOG */
 436:C:/Users/stapi/OneDrive/Desktop/GD32VW553/V1_MQTT_OK/GD32VW55X_Wifi_BLE_SDK/GD32VW55x_RELEASE_V1.0.2/MSDK/wpa_supplicant/src/utils\wpa_debug.c **** 	wpa_debug_print_timestamp();
 130              		.loc 1 436 2 is_stmt 1
 131 001e 97000000 		call	wpa_debug_print_timestamp
 131      E7800000 
 132              	.LVL4:
 437:C:/Users/stapi/OneDrive/Desktop/GD32VW553/V1_MQTT_OK/GD32VW55X_Wifi_BLE_SDK/GD32VW55x_RELEASE_V1.0.2/MSDK/wpa_supplicant/src/utils\wpa_debug.c **** #ifdef CONFIG_DEBUG_FILE
 438:C:/Users/stapi/OneDrive/Desktop/GD32VW553/V1_MQTT_OK/GD32VW55X_Wifi_BLE_SDK/GD32VW55x_RELEASE_V1.0.2/MSDK/wpa_supplicant/src/utils\wpa_debug.c **** 	if (out_file) {
 439:C:/Users/stapi/OneDrive/Desktop/GD32VW553/V1_MQTT_OK/GD32VW55X_Wifi_BLE_SDK/GD32VW55x_RELEASE_V1.0.2/MSDK/wpa_supplicant/src/utils\wpa_debug.c **** 		if (!show) {
 440:C:/Users/stapi/OneDrive/Desktop/GD32VW553/V1_MQTT_OK/GD32VW55X_Wifi_BLE_SDK/GD32VW55x_RELEASE_V1.0.2/MSDK/wpa_supplicant/src/utils\wpa_debug.c **** 			fprintf(out_file,
 441:C:/Users/stapi/OneDrive/Desktop/GD32VW553/V1_MQTT_OK/GD32VW55X_Wifi_BLE_SDK/GD32VW55x_RELEASE_V1.0.2/MSDK/wpa_supplicant/src/utils\wpa_debug.c **** 				"%s - hexdump_ascii(len=%lu): [REMOVED]\n",
 442:C:/Users/stapi/OneDrive/Desktop/GD32VW553/V1_MQTT_OK/GD32VW55X_Wifi_BLE_SDK/GD32VW55x_RELEASE_V1.0.2/MSDK/wpa_supplicant/src/utils\wpa_debug.c **** 				title, (unsigned long) len);
 443:C:/Users/stapi/OneDrive/Desktop/GD32VW553/V1_MQTT_OK/GD32VW55X_Wifi_BLE_SDK/GD32VW55x_RELEASE_V1.0.2/MSDK/wpa_supplicant/src/utils\wpa_debug.c **** 			goto file_done;
 444:C:/Users/stapi/OneDrive/Desktop/GD32VW553/V1_MQTT_OK/GD32VW55X_Wifi_BLE_SDK/GD32VW55x_RELEASE_V1.0.2/MSDK/wpa_supplicant/src/utils\wpa_debug.c **** 		}
 445:C:/Users/stapi/OneDrive/Desktop/GD32VW553/V1_MQTT_OK/GD32VW55X_Wifi_BLE_SDK/GD32VW55x_RELEASE_V1.0.2/MSDK/wpa_supplicant/src/utils\wpa_debug.c **** 		if (buf == NULL) {
 446:C:/Users/stapi/OneDrive/Desktop/GD32VW553/V1_MQTT_OK/GD32VW55X_Wifi_BLE_SDK/GD32VW55x_RELEASE_V1.0.2/MSDK/wpa_supplicant/src/utils\wpa_debug.c **** 			fprintf(out_file,
 447:C:/Users/stapi/OneDrive/Desktop/GD32VW553/V1_MQTT_OK/GD32VW55X_Wifi_BLE_SDK/GD32VW55x_RELEASE_V1.0.2/MSDK/wpa_supplicant/src/utils\wpa_debug.c **** 				"%s - hexdump_ascii(len=%lu): [NULL]\n",
 448:C:/Users/stapi/OneDrive/Desktop/GD32VW553/V1_MQTT_OK/GD32VW55X_Wifi_BLE_SDK/GD32VW55x_RELEASE_V1.0.2/MSDK/wpa_supplicant/src/utils\wpa_debug.c **** 				title, (unsigned long) len);
 449:C:/Users/stapi/OneDrive/Desktop/GD32VW553/V1_MQTT_OK/GD32VW55X_Wifi_BLE_SDK/GD32VW55x_RELEASE_V1.0.2/MSDK/wpa_supplicant/src/utils\wpa_debug.c **** 			goto file_done;
 450:C:/Users/stapi/OneDrive/Desktop/GD32VW553/V1_MQTT_OK/GD32VW55X_Wifi_BLE_SDK/GD32VW55x_RELEASE_V1.0.2/MSDK/wpa_supplicant/src/utils\wpa_debug.c **** 		}
 451:C:/Users/stapi/OneDrive/Desktop/GD32VW553/V1_MQTT_OK/GD32VW55X_Wifi_BLE_SDK/GD32VW55x_RELEASE_V1.0.2/MSDK/wpa_supplicant/src/utils\wpa_debug.c **** 		fprintf(out_file, "%s - hexdump_ascii(len=%lu):\n",
 452:C:/Users/stapi/OneDrive/Desktop/GD32VW553/V1_MQTT_OK/GD32VW55X_Wifi_BLE_SDK/GD32VW55x_RELEASE_V1.0.2/MSDK/wpa_supplicant/src/utils\wpa_debug.c **** 			title, (unsigned long) len);
 453:C:/Users/stapi/OneDrive/Desktop/GD32VW553/V1_MQTT_OK/GD32VW55X_Wifi_BLE_SDK/GD32VW55x_RELEASE_V1.0.2/MSDK/wpa_supplicant/src/utils\wpa_debug.c **** 		while (len) {
 454:C:/Users/stapi/OneDrive/Desktop/GD32VW553/V1_MQTT_OK/GD32VW55X_Wifi_BLE_SDK/GD32VW55x_RELEASE_V1.0.2/MSDK/wpa_supplicant/src/utils\wpa_debug.c **** 			llen = len > line_len ? line_len : len;
 455:C:/Users/stapi/OneDrive/Desktop/GD32VW553/V1_MQTT_OK/GD32VW55X_Wifi_BLE_SDK/GD32VW55x_RELEASE_V1.0.2/MSDK/wpa_supplicant/src/utils\wpa_debug.c **** 			fprintf(out_file, "    ");
 456:C:/Users/stapi/OneDrive/Desktop/GD32VW553/V1_MQTT_OK/GD32VW55X_Wifi_BLE_SDK/GD32VW55x_RELEASE_V1.0.2/MSDK/wpa_supplicant/src/utils\wpa_debug.c **** 			for (i = 0; i < llen; i++)
 457:C:/Users/stapi/OneDrive/Desktop/GD32VW553/V1_MQTT_OK/GD32VW55X_Wifi_BLE_SDK/GD32VW55x_RELEASE_V1.0.2/MSDK/wpa_supplicant/src/utils\wpa_debug.c **** 				fprintf(out_file, " %02x", pos[i]);
 458:C:/Users/stapi/OneDrive/Desktop/GD32VW553/V1_MQTT_OK/GD32VW55X_Wifi_BLE_SDK/GD32VW55x_RELEASE_V1.0.2/MSDK/wpa_supplicant/src/utils\wpa_debug.c **** 			for (i = llen; i < line_len; i++)
 459:C:/Users/stapi/OneDrive/Desktop/GD32VW553/V1_MQTT_OK/GD32VW55X_Wifi_BLE_SDK/GD32VW55x_RELEASE_V1.0.2/MSDK/wpa_supplicant/src/utils\wpa_debug.c **** 				fprintf(out_file, "   ");
 460:C:/Users/stapi/OneDrive/Desktop/GD32VW553/V1_MQTT_OK/GD32VW55X_Wifi_BLE_SDK/GD32VW55x_RELEASE_V1.0.2/MSDK/wpa_supplicant/src/utils\wpa_debug.c **** 			fprintf(out_file, "   ");
 461:C:/Users/stapi/OneDrive/Desktop/GD32VW553/V1_MQTT_OK/GD32VW55X_Wifi_BLE_SDK/GD32VW55x_RELEASE_V1.0.2/MSDK/wpa_supplicant/src/utils\wpa_debug.c **** 			for (i = 0; i < llen; i++) {
 462:C:/Users/stapi/OneDrive/Desktop/GD32VW553/V1_MQTT_OK/GD32VW55X_Wifi_BLE_SDK/GD32VW55x_RELEASE_V1.0.2/MSDK/wpa_supplicant/src/utils\wpa_debug.c **** 				if (isprint(pos[i]))
 463:C:/Users/stapi/OneDrive/Desktop/GD32VW553/V1_MQTT_OK/GD32VW55X_Wifi_BLE_SDK/GD32VW55x_RELEASE_V1.0.2/MSDK/wpa_supplicant/src/utils\wpa_debug.c **** 					fprintf(out_file, "%c", pos[i]);
 464:C:/Users/stapi/OneDrive/Desktop/GD32VW553/V1_MQTT_OK/GD32VW55X_Wifi_BLE_SDK/GD32VW55x_RELEASE_V1.0.2/MSDK/wpa_supplicant/src/utils\wpa_debug.c **** 				else
 465:C:/Users/stapi/OneDrive/Desktop/GD32VW553/V1_MQTT_OK/GD32VW55X_Wifi_BLE_SDK/GD32VW55x_RELEASE_V1.0.2/MSDK/wpa_supplicant/src/utils\wpa_debug.c **** 					fprintf(out_file, "_");
 466:C:/Users/stapi/OneDrive/Desktop/GD32VW553/V1_MQTT_OK/GD32VW55X_Wifi_BLE_SDK/GD32VW55x_RELEASE_V1.0.2/MSDK/wpa_supplicant/src/utils\wpa_debug.c **** 			}
 467:C:/Users/stapi/OneDrive/Desktop/GD32VW553/V1_MQTT_OK/GD32VW55X_Wifi_BLE_SDK/GD32VW55x_RELEASE_V1.0.2/MSDK/wpa_supplicant/src/utils\wpa_debug.c **** 			for (i = llen; i < line_len; i++)
 468:C:/Users/stapi/OneDrive/Desktop/GD32VW553/V1_MQTT_OK/GD32VW55X_Wifi_BLE_SDK/GD32VW55x_RELEASE_V1.0.2/MSDK/wpa_supplicant/src/utils\wpa_debug.c **** 				fprintf(out_file, " ");
 469:C:/Users/stapi/OneDrive/Desktop/GD32VW553/V1_MQTT_OK/GD32VW55X_Wifi_BLE_SDK/GD32VW55x_RELEASE_V1.0.2/MSDK/wpa_supplicant/src/utils\wpa_debug.c **** 			fprintf(out_file, "\n");
 470:C:/Users/stapi/OneDrive/Desktop/GD32VW553/V1_MQTT_OK/GD32VW55X_Wifi_BLE_SDK/GD32VW55x_RELEASE_V1.0.2/MSDK/wpa_supplicant/src/utils\wpa_debug.c **** 			pos += llen;
 471:C:/Users/stapi/OneDrive/Desktop/GD32VW553/V1_MQTT_OK/GD32VW55X_Wifi_BLE_SDK/GD32VW55x_RELEASE_V1.0.2/MSDK/wpa_supplicant/src/utils\wpa_debug.c **** 			len -= llen;
 472:C:/Users/stapi/OneDrive/Desktop/GD32VW553/V1_MQTT_OK/GD32VW55X_Wifi_BLE_SDK/GD32VW55x_RELEASE_V1.0.2/MSDK/wpa_supplicant/src/utils\wpa_debug.c **** 		}
 473:C:/Users/stapi/OneDrive/Desktop/GD32VW553/V1_MQTT_OK/GD32VW55X_Wifi_BLE_SDK/GD32VW55x_RELEASE_V1.0.2/MSDK/wpa_supplicant/src/utils\wpa_debug.c **** 	}
 474:C:/Users/stapi/OneDrive/Desktop/GD32VW553/V1_MQTT_OK/GD32VW55X_Wifi_BLE_SDK/GD32VW55x_RELEASE_V1.0.2/MSDK/wpa_supplicant/src/utils\wpa_debug.c **** file_done:
 475:C:/Users/stapi/OneDrive/Desktop/GD32VW553/V1_MQTT_OK/GD32VW55X_Wifi_BLE_SDK/GD32VW55x_RELEASE_V1.0.2/MSDK/wpa_supplicant/src/utils\wpa_debug.c **** #endif /* CONFIG_DEBUG_FILE */
 476:C:/Users/stapi/OneDrive/Desktop/GD32VW553/V1_MQTT_OK/GD32VW55X_Wifi_BLE_SDK/GD32VW55x_RELEASE_V1.0.2/MSDK/wpa_supplicant/src/utils\wpa_debug.c **** 	if (!wpa_debug_syslog && !out_file) {
 133              		.loc 1 476 2
 134              		.loc 1 476 5 is_stmt 0
 135 0026 B7070000 		lui	a5,%hi(.LANCHOR1)
 136 002a 83A70700 		lw	a5,%lo(.LANCHOR1)(a5)
 137 002e 89EF     		bne	a5,zero,.L11
 477:C:/Users/stapi/OneDrive/Desktop/GD32VW553/V1_MQTT_OK/GD32VW55X_Wifi_BLE_SDK/GD32VW55x_RELEASE_V1.0.2/MSDK/wpa_supplicant/src/utils\wpa_debug.c **** 		if (!show) {
 138              		.loc 1 477 3 is_stmt 1
 139              		.loc 1 477 6 is_stmt 0
 140 0030 B245     		lw	a1,12(sp)
 478:C:/Users/stapi/OneDrive/Desktop/GD32VW553/V1_MQTT_OK/GD32VW55X_Wifi_BLE_SDK/GD32VW55x_RELEASE_V1.0.2/MSDK/wpa_supplicant/src/utils\wpa_debug.c **** 			printf("%s - hexdump_ascii(len=%lu): [REMOVED]\n",
 141              		.loc 1 478 4
 142 0032 2286     		mv	a2,s0
 477:C:/Users/stapi/OneDrive/Desktop/GD32VW553/V1_MQTT_OK/GD32VW55X_Wifi_BLE_SDK/GD32VW55x_RELEASE_V1.0.2/MSDK/wpa_supplicant/src/utils\wpa_debug.c **** 		if (!show) {
 143              		.loc 1 477 6
 144 0034 631F0900 		bne	s2,zero,.L15
 145              		.loc 1 478 4 is_stmt 1
 146 0038 37050000 		lui	a0,%hi(.LC1)
 147 003c 13050500 		addi	a0,a0,%lo(.LC1)
 148              	.L31:
 149              	.LBB14:
 150              	.LBB15:
 479:C:/Users/stapi/OneDrive/Desktop/GD32VW553/V1_MQTT_OK/GD32VW55X_Wifi_BLE_SDK/GD32VW55x_RELEASE_V1.0.2/MSDK/wpa_supplicant/src/utils\wpa_debug.c **** 			       title, (unsigned long) len);
 480:C:/Users/stapi/OneDrive/Desktop/GD32VW553/V1_MQTT_OK/GD32VW55X_Wifi_BLE_SDK/GD32VW55x_RELEASE_V1.0.2/MSDK/wpa_supplicant/src/utils\wpa_debug.c **** 			return;
 481:C:/Users/stapi/OneDrive/Desktop/GD32VW553/V1_MQTT_OK/GD32VW55X_Wifi_BLE_SDK/GD32VW55x_RELEASE_V1.0.2/MSDK/wpa_supplicant/src/utils\wpa_debug.c **** 		}
 482:C:/Users/stapi/OneDrive/Desktop/GD32VW553/V1_MQTT_OK/GD32VW55X_Wifi_BLE_SDK/GD32VW55x_RELEASE_V1.0.2/MSDK/wpa_supplicant/src/utils\wpa_debug.c **** 		if (buf == NULL) {
 483:C:/Users/stapi/OneDrive/Desktop/GD32VW553/V1_MQTT_OK/GD32VW55X_Wifi_BLE_SDK/GD32VW55x_RELEASE_V1.0.2/MSDK/wpa_supplicant/src/utils\wpa_debug.c **** 			printf("%s - hexdump_ascii(len=%lu): [NULL]\n",
 151              		.loc 1 483 4 is_stmt 0
 152 0040 97000000 		call	printf
 152      E7800000 
 153              	.LVL5:
 484:C:/Users/stapi/OneDrive/Desktop/GD32VW553/V1_MQTT_OK/GD32VW55X_Wifi_BLE_SDK/GD32VW55x_RELEASE_V1.0.2/MSDK/wpa_supplicant/src/utils\wpa_debug.c **** 			       title, (unsigned long) len);
 485:C:/Users/stapi/OneDrive/Desktop/GD32VW553/V1_MQTT_OK/GD32VW55X_Wifi_BLE_SDK/GD32VW55x_RELEASE_V1.0.2/MSDK/wpa_supplicant/src/utils\wpa_debug.c **** 			return;
 154              		.loc 1 485 4 is_stmt 1
 155              	.L11:
 156              	.LBE15:
 157              	.LBE14:
 486:C:/Users/stapi/OneDrive/Desktop/GD32VW553/V1_MQTT_OK/GD32VW55X_Wifi_BLE_SDK/GD32VW55x_RELEASE_V1.0.2/MSDK/wpa_supplicant/src/utils\wpa_debug.c **** 		}
 487:C:/Users/stapi/OneDrive/Desktop/GD32VW553/V1_MQTT_OK/GD32VW55X_Wifi_BLE_SDK/GD32VW55x_RELEASE_V1.0.2/MSDK/wpa_supplicant/src/utils\wpa_debug.c **** 		printf("%s - hexdump_ascii(len=%lu):\n", title,
 488:C:/Users/stapi/OneDrive/Desktop/GD32VW553/V1_MQTT_OK/GD32VW55X_Wifi_BLE_SDK/GD32VW55x_RELEASE_V1.0.2/MSDK/wpa_supplicant/src/utils\wpa_debug.c **** 		       (unsigned long) len);
 489:C:/Users/stapi/OneDrive/Desktop/GD32VW553/V1_MQTT_OK/GD32VW55X_Wifi_BLE_SDK/GD32VW55x_RELEASE_V1.0.2/MSDK/wpa_supplicant/src/utils\wpa_debug.c **** 		while (len) {
 490:C:/Users/stapi/OneDrive/Desktop/GD32VW553/V1_MQTT_OK/GD32VW55X_Wifi_BLE_SDK/GD32VW55x_RELEASE_V1.0.2/MSDK/wpa_supplicant/src/utils\wpa_debug.c **** 			llen = len > line_len ? line_len : len;
 491:C:/Users/stapi/OneDrive/Desktop/GD32VW553/V1_MQTT_OK/GD32VW55X_Wifi_BLE_SDK/GD32VW55x_RELEASE_V1.0.2/MSDK/wpa_supplicant/src/utils\wpa_debug.c **** 			printf("    ");
 492:C:/Users/stapi/OneDrive/Desktop/GD32VW553/V1_MQTT_OK/GD32VW55X_Wifi_BLE_SDK/GD32VW55x_RELEASE_V1.0.2/MSDK/wpa_supplicant/src/utils\wpa_debug.c **** 			for (i = 0; i < llen; i++)
 493:C:/Users/stapi/OneDrive/Desktop/GD32VW553/V1_MQTT_OK/GD32VW55X_Wifi_BLE_SDK/GD32VW55x_RELEASE_V1.0.2/MSDK/wpa_supplicant/src/utils\wpa_debug.c **** 				printf(" %02x", pos[i]);
 494:C:/Users/stapi/OneDrive/Desktop/GD32VW553/V1_MQTT_OK/GD32VW55X_Wifi_BLE_SDK/GD32VW55x_RELEASE_V1.0.2/MSDK/wpa_supplicant/src/utils\wpa_debug.c **** 			for (i = llen; i < line_len; i++)
 495:C:/Users/stapi/OneDrive/Desktop/GD32VW553/V1_MQTT_OK/GD32VW55X_Wifi_BLE_SDK/GD32VW55x_RELEASE_V1.0.2/MSDK/wpa_supplicant/src/utils\wpa_debug.c **** 				printf("   ");
 496:C:/Users/stapi/OneDrive/Desktop/GD32VW553/V1_MQTT_OK/GD32VW55X_Wifi_BLE_SDK/GD32VW55x_RELEASE_V1.0.2/MSDK/wpa_supplicant/src/utils\wpa_debug.c **** 			printf("   ");
 497:C:/Users/stapi/OneDrive/Desktop/GD32VW553/V1_MQTT_OK/GD32VW55X_Wifi_BLE_SDK/GD32VW55x_RELEASE_V1.0.2/MSDK/wpa_supplicant/src/utils\wpa_debug.c **** 			for (i = 0; i < llen; i++) {
 498:C:/Users/stapi/OneDrive/Desktop/GD32VW553/V1_MQTT_OK/GD32VW55X_Wifi_BLE_SDK/GD32VW55x_RELEASE_V1.0.2/MSDK/wpa_supplicant/src/utils\wpa_debug.c **** 				if (isprint(pos[i]))
 499:C:/Users/stapi/OneDrive/Desktop/GD32VW553/V1_MQTT_OK/GD32VW55X_Wifi_BLE_SDK/GD32VW55x_RELEASE_V1.0.2/MSDK/wpa_supplicant/src/utils\wpa_debug.c **** 					printf("%c", pos[i]);
 500:C:/Users/stapi/OneDrive/Desktop/GD32VW553/V1_MQTT_OK/GD32VW55X_Wifi_BLE_SDK/GD32VW55x_RELEASE_V1.0.2/MSDK/wpa_supplicant/src/utils\wpa_debug.c **** 				else
 501:C:/Users/stapi/OneDrive/Desktop/GD32VW553/V1_MQTT_OK/GD32VW55X_Wifi_BLE_SDK/GD32VW55x_RELEASE_V1.0.2/MSDK/wpa_supplicant/src/utils\wpa_debug.c **** 					printf("_");
 502:C:/Users/stapi/OneDrive/Desktop/GD32VW553/V1_MQTT_OK/GD32VW55X_Wifi_BLE_SDK/GD32VW55x_RELEASE_V1.0.2/MSDK/wpa_supplicant/src/utils\wpa_debug.c **** 			}
 503:C:/Users/stapi/OneDrive/Desktop/GD32VW553/V1_MQTT_OK/GD32VW55X_Wifi_BLE_SDK/GD32VW55x_RELEASE_V1.0.2/MSDK/wpa_supplicant/src/utils\wpa_debug.c **** 			for (i = llen; i < line_len; i++)
 504:C:/Users/stapi/OneDrive/Desktop/GD32VW553/V1_MQTT_OK/GD32VW55X_Wifi_BLE_SDK/GD32VW55x_RELEASE_V1.0.2/MSDK/wpa_supplicant/src/utils\wpa_debug.c **** 				printf(" ");
 505:C:/Users/stapi/OneDrive/Desktop/GD32VW553/V1_MQTT_OK/GD32VW55X_Wifi_BLE_SDK/GD32VW55x_RELEASE_V1.0.2/MSDK/wpa_supplicant/src/utils\wpa_debug.c **** 			printf("\n");
 506:C:/Users/stapi/OneDrive/Desktop/GD32VW553/V1_MQTT_OK/GD32VW55X_Wifi_BLE_SDK/GD32VW55x_RELEASE_V1.0.2/MSDK/wpa_supplicant/src/utils\wpa_debug.c **** 			pos += llen;
 507:C:/Users/stapi/OneDrive/Desktop/GD32VW553/V1_MQTT_OK/GD32VW55X_Wifi_BLE_SDK/GD32VW55x_RELEASE_V1.0.2/MSDK/wpa_supplicant/src/utils\wpa_debug.c **** 			len -= llen;
 508:C:/Users/stapi/OneDrive/Desktop/GD32VW553/V1_MQTT_OK/GD32VW55X_Wifi_BLE_SDK/GD32VW55x_RELEASE_V1.0.2/MSDK/wpa_supplicant/src/utils\wpa_debug.c **** 		}
 509:C:/Users/stapi/OneDrive/Desktop/GD32VW553/V1_MQTT_OK/GD32VW55X_Wifi_BLE_SDK/GD32VW55x_RELEASE_V1.0.2/MSDK/wpa_supplicant/src/utils\wpa_debug.c **** 	}
 510:C:/Users/stapi/OneDrive/Desktop/GD32VW553/V1_MQTT_OK/GD32VW55X_Wifi_BLE_SDK/GD32VW55x_RELEASE_V1.0.2/MSDK/wpa_supplicant/src/utils\wpa_debug.c **** #endif /* CONFIG_ANDROID_LOG */
 511:C:/Users/stapi/OneDrive/Desktop/GD32VW553/V1_MQTT_OK/GD32VW55X_Wifi_BLE_SDK/GD32VW55x_RELEASE_V1.0.2/MSDK/wpa_supplicant/src/utils\wpa_debug.c **** }
 158              		.loc 1 511 1 is_stmt 0
 159 0048 4101     		addi	sp,sp,16
 160              		.cfi_remember_state
 161              		.cfi_def_cfa_offset 0
 162              	.LVL6:
 163 004a 17030000 		tail	__riscv_restore_9
 163      67000300 
 164              		.cfi_restore 24
 165              		.cfi_restore 23
 166              		.cfi_restore 22
 167              		.cfi_restore 21
 168              		.cfi_restore 20
 169              		.cfi_restore 19
 170              		.cfi_restore 18
 171              		.cfi_restore 9
 172              		.cfi_restore 8
 173              		.cfi_restore 1
 174              		.cfi_def_cfa_offset -48
 175              	.LVL7:
 176              	.L15:
 177              		.cfi_restore_state
 178              	.LBB17:
 179              	.LBB16:
 482:C:/Users/stapi/OneDrive/Desktop/GD32VW553/V1_MQTT_OK/GD32VW55X_Wifi_BLE_SDK/GD32VW55x_RELEASE_V1.0.2/MSDK/wpa_supplicant/src/utils\wpa_debug.c **** 			printf("%s - hexdump_ascii(len=%lu): [NULL]\n",
 180              		.loc 1 482 3 is_stmt 1
 482:C:/Users/stapi/OneDrive/Desktop/GD32VW553/V1_MQTT_OK/GD32VW55X_Wifi_BLE_SDK/GD32VW55x_RELEASE_V1.0.2/MSDK/wpa_supplicant/src/utils\wpa_debug.c **** 			printf("%s - hexdump_ascii(len=%lu): [NULL]\n",
 181              		.loc 1 482 6 is_stmt 0
 182 0052 91E4     		bne	s1,zero,.L16
 483:C:/Users/stapi/OneDrive/Desktop/GD32VW553/V1_MQTT_OK/GD32VW55X_Wifi_BLE_SDK/GD32VW55x_RELEASE_V1.0.2/MSDK/wpa_supplicant/src/utils\wpa_debug.c **** 			       title, (unsigned long) len);
 183              		.loc 1 483 4 is_stmt 1
 184 0054 37050000 		lui	a0,%hi(.LC2)
 185 0058 13050500 		addi	a0,a0,%lo(.LC2)
 186 005c D5B7     		j	.L31
 187              	.L16:
 487:C:/Users/stapi/OneDrive/Desktop/GD32VW553/V1_MQTT_OK/GD32VW55X_Wifi_BLE_SDK/GD32VW55x_RELEASE_V1.0.2/MSDK/wpa_supplicant/src/utils\wpa_debug.c **** 		       (unsigned long) len);
 188              		.loc 1 487 3
 189 005e 37050000 		lui	a0,%hi(.LC3)
 190 0062 13050500 		addi	a0,a0,%lo(.LC3)
 498:C:/Users/stapi/OneDrive/Desktop/GD32VW553/V1_MQTT_OK/GD32VW55X_Wifi_BLE_SDK/GD32VW55x_RELEASE_V1.0.2/MSDK/wpa_supplicant/src/utils\wpa_debug.c **** 					printf("%c", pos[i]);
 191              		.loc 1 498 9 is_stmt 0
 192 0066 B70A0000 		lui	s5,%hi(_ctype_+1)
 487:C:/Users/stapi/OneDrive/Desktop/GD32VW553/V1_MQTT_OK/GD32VW55X_Wifi_BLE_SDK/GD32VW55x_RELEASE_V1.0.2/MSDK/wpa_supplicant/src/utils\wpa_debug.c **** 		       (unsigned long) len);
 193              		.loc 1 487 3
 194 006a 97000000 		call	printf
 194      E7800000 
 195              	.LVL8:
 489:C:/Users/stapi/OneDrive/Desktop/GD32VW553/V1_MQTT_OK/GD32VW55X_Wifi_BLE_SDK/GD32VW55x_RELEASE_V1.0.2/MSDK/wpa_supplicant/src/utils\wpa_debug.c **** 			llen = len > line_len ? line_len : len;
 196              		.loc 1 489 3 is_stmt 1
 490:C:/Users/stapi/OneDrive/Desktop/GD32VW553/V1_MQTT_OK/GD32VW55X_Wifi_BLE_SDK/GD32VW55x_RELEASE_V1.0.2/MSDK/wpa_supplicant/src/utils\wpa_debug.c **** 			printf("    ");
 197              		.loc 1 490 9 is_stmt 0
 198 0072 414A     		li	s4,16
 491:C:/Users/stapi/OneDrive/Desktop/GD32VW553/V1_MQTT_OK/GD32VW55X_Wifi_BLE_SDK/GD32VW55x_RELEASE_V1.0.2/MSDK/wpa_supplicant/src/utils\wpa_debug.c **** 			for (i = 0; i < llen; i++)
 199              		.loc 1 491 4
 200 0074 B70B0000 		lui	s7,%hi(.LC4)
 493:C:/Users/stapi/OneDrive/Desktop/GD32VW553/V1_MQTT_OK/GD32VW55X_Wifi_BLE_SDK/GD32VW55x_RELEASE_V1.0.2/MSDK/wpa_supplicant/src/utils\wpa_debug.c **** 			for (i = llen; i < line_len; i++)
 201              		.loc 1 493 5
 202 0078 370C0000 		lui	s8,%hi(.LC5)
 203 007c 370B0000 		lui	s6,%hi(.LC6)
 498:C:/Users/stapi/OneDrive/Desktop/GD32VW553/V1_MQTT_OK/GD32VW55X_Wifi_BLE_SDK/GD32VW55x_RELEASE_V1.0.2/MSDK/wpa_supplicant/src/utils\wpa_debug.c **** 					printf("%c", pos[i]);
 204              		.loc 1 498 9
 205 0080 938A1A00 		addi	s5,s5,%lo(_ctype_+1)
 206              	.LVL9:
 207              	.L17:
 489:C:/Users/stapi/OneDrive/Desktop/GD32VW553/V1_MQTT_OK/GD32VW55X_Wifi_BLE_SDK/GD32VW55x_RELEASE_V1.0.2/MSDK/wpa_supplicant/src/utils\wpa_debug.c **** 			llen = len > line_len ? line_len : len;
 208              		.loc 1 489 9 is_stmt 1
 209 0084 71D0     		beq	s0,zero,.L11
 490:C:/Users/stapi/OneDrive/Desktop/GD32VW553/V1_MQTT_OK/GD32VW55X_Wifi_BLE_SDK/GD32VW55x_RELEASE_V1.0.2/MSDK/wpa_supplicant/src/utils\wpa_debug.c **** 			printf("    ");
 210              		.loc 1 490 4
 491:C:/Users/stapi/OneDrive/Desktop/GD32VW553/V1_MQTT_OK/GD32VW55X_Wifi_BLE_SDK/GD32VW55x_RELEASE_V1.0.2/MSDK/wpa_supplicant/src/utils\wpa_debug.c **** 			for (i = 0; i < llen; i++)
 211              		.loc 1 491 4 is_stmt 0
 212 0086 13850B00 		addi	a0,s7,%lo(.LC4)
 213 008a 97000000 		call	printf
 213      E7800000 
 214              	.LVL10:
 492:C:/Users/stapi/OneDrive/Desktop/GD32VW553/V1_MQTT_OK/GD32VW55X_Wifi_BLE_SDK/GD32VW55x_RELEASE_V1.0.2/MSDK/wpa_supplicant/src/utils\wpa_debug.c **** 				printf(" %02x", pos[i]);
 215              		.loc 1 492 11
 216 0092 8149     		li	s3,0
 490:C:/Users/stapi/OneDrive/Desktop/GD32VW553/V1_MQTT_OK/GD32VW55X_Wifi_BLE_SDK/GD32VW55x_RELEASE_V1.0.2/MSDK/wpa_supplicant/src/utils\wpa_debug.c **** 			printf("    ");
 217              		.loc 1 490 9
 218 0094 3359440B 		minu	s2,s0,s4
 219              	.LVL11:
 491:C:/Users/stapi/OneDrive/Desktop/GD32VW553/V1_MQTT_OK/GD32VW55X_Wifi_BLE_SDK/GD32VW55x_RELEASE_V1.0.2/MSDK/wpa_supplicant/src/utils\wpa_debug.c **** 			for (i = 0; i < llen; i++)
 220              		.loc 1 491 4 is_stmt 1
 492:C:/Users/stapi/OneDrive/Desktop/GD32VW553/V1_MQTT_OK/GD32VW55X_Wifi_BLE_SDK/GD32VW55x_RELEASE_V1.0.2/MSDK/wpa_supplicant/src/utils\wpa_debug.c **** 				printf(" %02x", pos[i]);
 221              		.loc 1 492 4
 492:C:/Users/stapi/OneDrive/Desktop/GD32VW553/V1_MQTT_OK/GD32VW55X_Wifi_BLE_SDK/GD32VW55x_RELEASE_V1.0.2/MSDK/wpa_supplicant/src/utils\wpa_debug.c **** 				printf(" %02x", pos[i]);
 222              		.loc 1 492 16
 223              	.L18:
 493:C:/Users/stapi/OneDrive/Desktop/GD32VW553/V1_MQTT_OK/GD32VW55X_Wifi_BLE_SDK/GD32VW55x_RELEASE_V1.0.2/MSDK/wpa_supplicant/src/utils\wpa_debug.c **** 			for (i = llen; i < line_len; i++)
 224              		.loc 1 493 5
 493:C:/Users/stapi/OneDrive/Desktop/GD32VW553/V1_MQTT_OK/GD32VW55X_Wifi_BLE_SDK/GD32VW55x_RELEASE_V1.0.2/MSDK/wpa_supplicant/src/utils\wpa_debug.c **** 			for (i = llen; i < line_len; i++)
 225              		.loc 1 493 24 is_stmt 0
 226 0098 B3873401 		add	a5,s1,s3
 493:C:/Users/stapi/OneDrive/Desktop/GD32VW553/V1_MQTT_OK/GD32VW55X_Wifi_BLE_SDK/GD32VW55x_RELEASE_V1.0.2/MSDK/wpa_supplicant/src/utils\wpa_debug.c **** 			for (i = llen; i < line_len; i++)
 227              		.loc 1 493 5
 228 009c 83C50700 		lbu	a1,0(a5)
 229 00a0 13050C00 		addi	a0,s8,%lo(.LC5)
 492:C:/Users/stapi/OneDrive/Desktop/GD32VW553/V1_MQTT_OK/GD32VW55X_Wifi_BLE_SDK/GD32VW55x_RELEASE_V1.0.2/MSDK/wpa_supplicant/src/utils\wpa_debug.c **** 				printf(" %02x", pos[i]);
 230              		.loc 1 492 27
 231 00a4 8509     		addi	s3,s3,1
 232              	.LVL12:
 493:C:/Users/stapi/OneDrive/Desktop/GD32VW553/V1_MQTT_OK/GD32VW55X_Wifi_BLE_SDK/GD32VW55x_RELEASE_V1.0.2/MSDK/wpa_supplicant/src/utils\wpa_debug.c **** 			for (i = llen; i < line_len; i++)
 233              		.loc 1 493 5
 234 00a6 97000000 		call	printf
 234      E7800000 
 235              	.LVL13:
 492:C:/Users/stapi/OneDrive/Desktop/GD32VW553/V1_MQTT_OK/GD32VW55X_Wifi_BLE_SDK/GD32VW55x_RELEASE_V1.0.2/MSDK/wpa_supplicant/src/utils\wpa_debug.c **** 				printf(" %02x", pos[i]);
 236              		.loc 1 492 26 is_stmt 1
 492:C:/Users/stapi/OneDrive/Desktop/GD32VW553/V1_MQTT_OK/GD32VW55X_Wifi_BLE_SDK/GD32VW55x_RELEASE_V1.0.2/MSDK/wpa_supplicant/src/utils\wpa_debug.c **** 				printf(" %02x", pos[i]);
 237              		.loc 1 492 16
 492:C:/Users/stapi/OneDrive/Desktop/GD32VW553/V1_MQTT_OK/GD32VW55X_Wifi_BLE_SDK/GD32VW55x_RELEASE_V1.0.2/MSDK/wpa_supplicant/src/utils\wpa_debug.c **** 				printf(" %02x", pos[i]);
 238              		.loc 1 492 4 is_stmt 0
 239 00ae E31539FF 		bne	s2,s3,.L18
 240 00b2 CA89     		mv	s3,s2
 241              	.LVL14:
 242              	.L19:
 494:C:/Users/stapi/OneDrive/Desktop/GD32VW553/V1_MQTT_OK/GD32VW55X_Wifi_BLE_SDK/GD32VW55x_RELEASE_V1.0.2/MSDK/wpa_supplicant/src/utils\wpa_debug.c **** 				printf("   ");
 243              		.loc 1 494 19 is_stmt 1
 495:C:/Users/stapi/OneDrive/Desktop/GD32VW553/V1_MQTT_OK/GD32VW55X_Wifi_BLE_SDK/GD32VW55x_RELEASE_V1.0.2/MSDK/wpa_supplicant/src/utils\wpa_debug.c **** 			printf("   ");
 244              		.loc 1 495 5 is_stmt 0
 245 00b4 13050B00 		addi	a0,s6,%lo(.LC6)
 494:C:/Users/stapi/OneDrive/Desktop/GD32VW553/V1_MQTT_OK/GD32VW55X_Wifi_BLE_SDK/GD32VW55x_RELEASE_V1.0.2/MSDK/wpa_supplicant/src/utils\wpa_debug.c **** 				printf("   ");
 246              		.loc 1 494 4
 247 00b8 63954905 		bne	s3,s4,.L20
 496:C:/Users/stapi/OneDrive/Desktop/GD32VW553/V1_MQTT_OK/GD32VW55X_Wifi_BLE_SDK/GD32VW55x_RELEASE_V1.0.2/MSDK/wpa_supplicant/src/utils\wpa_debug.c **** 			for (i = 0; i < llen; i++) {
 248              		.loc 1 496 4 is_stmt 1
 249 00bc 97000000 		call	printf
 249      E7800000 
 250              	.LVL15:
 497:C:/Users/stapi/OneDrive/Desktop/GD32VW553/V1_MQTT_OK/GD32VW55X_Wifi_BLE_SDK/GD32VW55x_RELEASE_V1.0.2/MSDK/wpa_supplicant/src/utils\wpa_debug.c **** 				if (isprint(pos[i]))
 251              		.loc 1 497 4
 497:C:/Users/stapi/OneDrive/Desktop/GD32VW553/V1_MQTT_OK/GD32VW55X_Wifi_BLE_SDK/GD32VW55x_RELEASE_V1.0.2/MSDK/wpa_supplicant/src/utils\wpa_debug.c **** 				if (isprint(pos[i]))
 252              		.loc 1 497 16
 497:C:/Users/stapi/OneDrive/Desktop/GD32VW553/V1_MQTT_OK/GD32VW55X_Wifi_BLE_SDK/GD32VW55x_RELEASE_V1.0.2/MSDK/wpa_supplicant/src/utils\wpa_debug.c **** 				if (isprint(pos[i]))
 253              		.loc 1 497 11 is_stmt 0
 254 00c4 8149     		li	s3,0
 255              	.LVL16:
 256              	.L23:
 498:C:/Users/stapi/OneDrive/Desktop/GD32VW553/V1_MQTT_OK/GD32VW55X_Wifi_BLE_SDK/GD32VW55x_RELEASE_V1.0.2/MSDK/wpa_supplicant/src/utils\wpa_debug.c **** 					printf("%c", pos[i]);
 257              		.loc 1 498 5 is_stmt 1
 498:C:/Users/stapi/OneDrive/Desktop/GD32VW553/V1_MQTT_OK/GD32VW55X_Wifi_BLE_SDK/GD32VW55x_RELEASE_V1.0.2/MSDK/wpa_supplicant/src/utils\wpa_debug.c **** 					printf("%c", pos[i]);
 258              		.loc 1 498 9 is_stmt 0
 259 00c6 B3873401 		add	a5,s1,s3
 260 00ca 03C50700 		lbu	a0,0(a5)
 261 00ce B3075501 		add	a5,a0,s5
 262 00d2 83870700 		lb	a5,0(a5)
 263 00d6 93F77709 		andi	a5,a5,151
 498:C:/Users/stapi/OneDrive/Desktop/GD32VW553/V1_MQTT_OK/GD32VW55X_Wifi_BLE_SDK/GD32VW55x_RELEASE_V1.0.2/MSDK/wpa_supplicant/src/utils\wpa_debug.c **** 					printf("%c", pos[i]);
 264              		.loc 1 498 8
 265 00da 95CB     		beq	a5,zero,.L21
 266              	.L30:
 497:C:/Users/stapi/OneDrive/Desktop/GD32VW553/V1_MQTT_OK/GD32VW55X_Wifi_BLE_SDK/GD32VW55x_RELEASE_V1.0.2/MSDK/wpa_supplicant/src/utils\wpa_debug.c **** 				if (isprint(pos[i]))
 267              		.loc 1 497 27
 268 00dc 8509     		addi	s3,s3,1
 269              	.LVL17:
 501:C:/Users/stapi/OneDrive/Desktop/GD32VW553/V1_MQTT_OK/GD32VW55X_Wifi_BLE_SDK/GD32VW55x_RELEASE_V1.0.2/MSDK/wpa_supplicant/src/utils\wpa_debug.c **** 			}
 270              		.loc 1 501 6
 271 00de 97000000 		call	putchar
 271      E7800000 
 272              	.LVL18:
 497:C:/Users/stapi/OneDrive/Desktop/GD32VW553/V1_MQTT_OK/GD32VW55X_Wifi_BLE_SDK/GD32VW55x_RELEASE_V1.0.2/MSDK/wpa_supplicant/src/utils\wpa_debug.c **** 				if (isprint(pos[i]))
 273              		.loc 1 497 26 is_stmt 1
 497:C:/Users/stapi/OneDrive/Desktop/GD32VW553/V1_MQTT_OK/GD32VW55X_Wifi_BLE_SDK/GD32VW55x_RELEASE_V1.0.2/MSDK/wpa_supplicant/src/utils\wpa_debug.c **** 				if (isprint(pos[i]))
 274              		.loc 1 497 16
 497:C:/Users/stapi/OneDrive/Desktop/GD32VW553/V1_MQTT_OK/GD32VW55X_Wifi_BLE_SDK/GD32VW55x_RELEASE_V1.0.2/MSDK/wpa_supplicant/src/utils\wpa_debug.c **** 				if (isprint(pos[i]))
 275              		.loc 1 497 4 is_stmt 0
 276 00e6 E31039FF 		bne	s2,s3,.L23
 277 00ea CA89     		mv	s3,s2
 278              	.LVL19:
 279              	.L24:
 503:C:/Users/stapi/OneDrive/Desktop/GD32VW553/V1_MQTT_OK/GD32VW55X_Wifi_BLE_SDK/GD32VW55x_RELEASE_V1.0.2/MSDK/wpa_supplicant/src/utils\wpa_debug.c **** 				printf(" ");
 280              		.loc 1 503 19 is_stmt 1
 503:C:/Users/stapi/OneDrive/Desktop/GD32VW553/V1_MQTT_OK/GD32VW55X_Wifi_BLE_SDK/GD32VW55x_RELEASE_V1.0.2/MSDK/wpa_supplicant/src/utils\wpa_debug.c **** 				printf(" ");
 281              		.loc 1 503 4 is_stmt 0
 282 00ec 63944903 		bne	s3,s4,.L25
 505:C:/Users/stapi/OneDrive/Desktop/GD32VW553/V1_MQTT_OK/GD32VW55X_Wifi_BLE_SDK/GD32VW55x_RELEASE_V1.0.2/MSDK/wpa_supplicant/src/utils\wpa_debug.c **** 			pos += llen;
 283              		.loc 1 505 4 is_stmt 1
 284 00f0 2945     		li	a0,10
 285 00f2 97000000 		call	putchar
 285      E7800000 
 286              	.LVL20:
 506:C:/Users/stapi/OneDrive/Desktop/GD32VW553/V1_MQTT_OK/GD32VW55X_Wifi_BLE_SDK/GD32VW55x_RELEASE_V1.0.2/MSDK/wpa_supplicant/src/utils\wpa_debug.c **** 			len -= llen;
 287              		.loc 1 506 4
 506:C:/Users/stapi/OneDrive/Desktop/GD32VW553/V1_MQTT_OK/GD32VW55X_Wifi_BLE_SDK/GD32VW55x_RELEASE_V1.0.2/MSDK/wpa_supplicant/src/utils\wpa_debug.c **** 			len -= llen;
 288              		.loc 1 506 8 is_stmt 0
 289 00fa CA94     		add	s1,s1,s2
 290              	.LVL21:
 507:C:/Users/stapi/OneDrive/Desktop/GD32VW553/V1_MQTT_OK/GD32VW55X_Wifi_BLE_SDK/GD32VW55x_RELEASE_V1.0.2/MSDK/wpa_supplicant/src/utils\wpa_debug.c **** 		}
 291              		.loc 1 507 4 is_stmt 1
 507:C:/Users/stapi/OneDrive/Desktop/GD32VW553/V1_MQTT_OK/GD32VW55X_Wifi_BLE_SDK/GD32VW55x_RELEASE_V1.0.2/MSDK/wpa_supplicant/src/utils\wpa_debug.c **** 		}
 292              		.loc 1 507 8 is_stmt 0
 293 00fc 33042441 		sub	s0,s0,s2
 294              	.LVL22:
 295 0100 51B7     		j	.L17
 296              	.L20:
 495:C:/Users/stapi/OneDrive/Desktop/GD32VW553/V1_MQTT_OK/GD32VW55X_Wifi_BLE_SDK/GD32VW55x_RELEASE_V1.0.2/MSDK/wpa_supplicant/src/utils\wpa_debug.c **** 			printf("   ");
 297              		.loc 1 495 5 is_stmt 1
 298 0102 97000000 		call	printf
 298      E7800000 
 299              	.LVL23:
 494:C:/Users/stapi/OneDrive/Desktop/GD32VW553/V1_MQTT_OK/GD32VW55X_Wifi_BLE_SDK/GD32VW55x_RELEASE_V1.0.2/MSDK/wpa_supplicant/src/utils\wpa_debug.c **** 				printf("   ");
 300              		.loc 1 494 33
 494:C:/Users/stapi/OneDrive/Desktop/GD32VW553/V1_MQTT_OK/GD32VW55X_Wifi_BLE_SDK/GD32VW55x_RELEASE_V1.0.2/MSDK/wpa_supplicant/src/utils\wpa_debug.c **** 				printf("   ");
 301              		.loc 1 494 34 is_stmt 0
 302 010a 8509     		addi	s3,s3,1
 303              	.LVL24:
 304 010c 65B7     		j	.L19
 305              	.L21:
 501:C:/Users/stapi/OneDrive/Desktop/GD32VW553/V1_MQTT_OK/GD32VW55X_Wifi_BLE_SDK/GD32VW55x_RELEASE_V1.0.2/MSDK/wpa_supplicant/src/utils\wpa_debug.c **** 			}
 306              		.loc 1 501 6 is_stmt 1
 307 010e 1305F005 		li	a0,95
 308 0112 E9B7     		j	.L30
 309              	.L25:
 504:C:/Users/stapi/OneDrive/Desktop/GD32VW553/V1_MQTT_OK/GD32VW55X_Wifi_BLE_SDK/GD32VW55x_RELEASE_V1.0.2/MSDK/wpa_supplicant/src/utils\wpa_debug.c **** 			printf("\n");
 310              		.loc 1 504 5
 311 0114 13050002 		li	a0,32
 312 0118 97000000 		call	putchar
 312      E7800000 
 313              	.LVL25:
 503:C:/Users/stapi/OneDrive/Desktop/GD32VW553/V1_MQTT_OK/GD32VW55X_Wifi_BLE_SDK/GD32VW55x_RELEASE_V1.0.2/MSDK/wpa_supplicant/src/utils\wpa_debug.c **** 				printf(" ");
 314              		.loc 1 503 33
 503:C:/Users/stapi/OneDrive/Desktop/GD32VW553/V1_MQTT_OK/GD32VW55X_Wifi_BLE_SDK/GD32VW55x_RELEASE_V1.0.2/MSDK/wpa_supplicant/src/utils\wpa_debug.c **** 				printf(" ");
 315              		.loc 1 503 34 is_stmt 0
 316 0120 8509     		addi	s3,s3,1
 317              	.LVL26:
 318 0122 E9B7     		j	.L24
 319              	.LBE16:
 320              	.LBE17:
 321              		.cfi_endproc
 322              	.LFE76:
 324              		.section	.rodata._wpa_hexdump.constprop.0.str1.4,"aMS",@progbits,1
 325              		.align	2
 326              	.LC7:
 327 0000 2573202D 		.string	"%s - hexdump(len=%lu):"
 327      20686578 
 327      64756D70 
 327      286C656E 
 327      3D256C75 
 328 0017 00       		.align	2
 329              	.LC8:
 330 0018 205B4E55 		.string	" [NULL]"
 330      4C4C5D00 
 331              		.align	2
 332              	.LC9:
 333 0020 205B5245 		.string	" [REMOVED]"
 333      4D4F5645 
 333      445D00
 334              		.section	.text._wpa_hexdump.constprop.0,"ax",@progbits
 335              		.align	1
 337              	_wpa_hexdump.constprop.0:
 338              	.LFB98:
 262:C:/Users/stapi/OneDrive/Desktop/GD32VW553/V1_MQTT_OK/GD32VW55X_Wifi_BLE_SDK/GD32VW55x_RELEASE_V1.0.2/MSDK/wpa_supplicant/src/utils\wpa_debug.c **** 			 size_t len, int show, int only_syslog)
 339              		.loc 1 262 13 is_stmt 1
 340              		.cfi_startproc
 341              	.LVL27:
 342 0000 17030000 		call	t0,__riscv_save_3
 342      E7020300 
 343              		.cfi_offset 18, -16
 344              		.cfi_offset 9, -12
 345              		.cfi_offset 8, -8
 346              		.cfi_offset 1, -4
 347              		.cfi_def_cfa_offset 16
 285:C:/Users/stapi/OneDrive/Desktop/GD32VW553/V1_MQTT_OK/GD32VW55X_Wifi_BLE_SDK/GD32VW55x_RELEASE_V1.0.2/MSDK/wpa_supplicant/src/utils\wpa_debug.c **** 		return;
 348              		.loc 1 285 5 is_stmt 0
 349 0008 B7070000 		lui	a5,%hi(.LANCHOR2)
 350 000c 83A70700 		lw	a5,%lo(.LANCHOR2)(a5)
 262:C:/Users/stapi/OneDrive/Desktop/GD32VW553/V1_MQTT_OK/GD32VW55X_Wifi_BLE_SDK/GD32VW55x_RELEASE_V1.0.2/MSDK/wpa_supplicant/src/utils\wpa_debug.c **** 			 size_t len, int show, int only_syslog)
 351              		.loc 1 262 13
 352 0010 4111     		addi	sp,sp,-16
 353              		.cfi_def_cfa_offset 32
 262:C:/Users/stapi/OneDrive/Desktop/GD32VW553/V1_MQTT_OK/GD32VW55X_Wifi_BLE_SDK/GD32VW55x_RELEASE_V1.0.2/MSDK/wpa_supplicant/src/utils\wpa_debug.c **** 			 size_t len, int show, int only_syslog)
 354              		.loc 1 262 13
 355 0012 2EC6     		sw	a1,12(sp)
 356              	.LVL28:
 265:C:/Users/stapi/OneDrive/Desktop/GD32VW553/V1_MQTT_OK/GD32VW55X_Wifi_BLE_SDK/GD32VW55x_RELEASE_V1.0.2/MSDK/wpa_supplicant/src/utils\wpa_debug.c **** 
 357              		.loc 1 265 2 is_stmt 1
 285:C:/Users/stapi/OneDrive/Desktop/GD32VW553/V1_MQTT_OK/GD32VW55X_Wifi_BLE_SDK/GD32VW55x_RELEASE_V1.0.2/MSDK/wpa_supplicant/src/utils\wpa_debug.c **** 		return;
 358              		.loc 1 285 2
 285:C:/Users/stapi/OneDrive/Desktop/GD32VW553/V1_MQTT_OK/GD32VW55X_Wifi_BLE_SDK/GD32VW55x_RELEASE_V1.0.2/MSDK/wpa_supplicant/src/utils\wpa_debug.c **** 		return;
 359              		.loc 1 285 5 is_stmt 0
 360 0014 634EF504 		bgt	a5,a0,.L32
 361 0018 3284     		mv	s0,a2
 362 001a B684     		mv	s1,a3
 363 001c 3A89     		mv	s2,a4
 358:C:/Users/stapi/OneDrive/Desktop/GD32VW553/V1_MQTT_OK/GD32VW55X_Wifi_BLE_SDK/GD32VW55x_RELEASE_V1.0.2/MSDK/wpa_supplicant/src/utils\wpa_debug.c **** #ifdef CONFIG_DEBUG_FILE
 364              		.loc 1 358 2 is_stmt 1
 365 001e 97000000 		call	wpa_debug_print_timestamp
 365      E7800000 
 366              	.LVL29:
 374:C:/Users/stapi/OneDrive/Desktop/GD32VW553/V1_MQTT_OK/GD32VW55X_Wifi_BLE_SDK/GD32VW55x_RELEASE_V1.0.2/MSDK/wpa_supplicant/src/utils\wpa_debug.c **** 		printf("%s - hexdump(len=%lu):", title, (unsigned long) len);
 367              		.loc 1 374 2
 374:C:/Users/stapi/OneDrive/Desktop/GD32VW553/V1_MQTT_OK/GD32VW55X_Wifi_BLE_SDK/GD32VW55x_RELEASE_V1.0.2/MSDK/wpa_supplicant/src/utils\wpa_debug.c **** 		printf("%s - hexdump(len=%lu):", title, (unsigned long) len);
 368              		.loc 1 374 5 is_stmt 0
 369 0026 B7070000 		lui	a5,%hi(.LANCHOR1)
 370 002a 83A70700 		lw	a5,%lo(.LANCHOR1)(a5)
 371 002e A9E3     		bne	a5,zero,.L32
 372              	.LVL30:
 373              	.LBB20:
 374              	.LBB21:
 375:C:/Users/stapi/OneDrive/Desktop/GD32VW553/V1_MQTT_OK/GD32VW55X_Wifi_BLE_SDK/GD32VW55x_RELEASE_V1.0.2/MSDK/wpa_supplicant/src/utils\wpa_debug.c **** 		if (buf == NULL) {
 375              		.loc 1 375 3 is_stmt 1
 376 0030 B245     		lw	a1,12(sp)
 377 0032 37050000 		lui	a0,%hi(.LC7)
 378 0036 2686     		mv	a2,s1
 379 0038 13050500 		addi	a0,a0,%lo(.LC7)
 380 003c 97000000 		call	printf
 380      E7800000 
 381              	.LVL31:
 376:C:/Users/stapi/OneDrive/Desktop/GD32VW553/V1_MQTT_OK/GD32VW55X_Wifi_BLE_SDK/GD32VW55x_RELEASE_V1.0.2/MSDK/wpa_supplicant/src/utils\wpa_debug.c **** 			printf(" [NULL]");
 382              		.loc 1 376 3
 376:C:/Users/stapi/OneDrive/Desktop/GD32VW553/V1_MQTT_OK/GD32VW55X_Wifi_BLE_SDK/GD32VW55x_RELEASE_V1.0.2/MSDK/wpa_supplicant/src/utils\wpa_debug.c **** 			printf(" [NULL]");
 383              		.loc 1 376 6 is_stmt 0
 384 0044 11E8     		bne	s0,zero,.L36
 377:C:/Users/stapi/OneDrive/Desktop/GD32VW553/V1_MQTT_OK/GD32VW55X_Wifi_BLE_SDK/GD32VW55x_RELEASE_V1.0.2/MSDK/wpa_supplicant/src/utils\wpa_debug.c **** 		} else if (show) {
 385              		.loc 1 377 4 is_stmt 1
 386 0046 37050000 		lui	a0,%hi(.LC8)
 387 004a 13050500 		addi	a0,a0,%lo(.LC8)
 388              	.L42:
 382:C:/Users/stapi/OneDrive/Desktop/GD32VW553/V1_MQTT_OK/GD32VW55X_Wifi_BLE_SDK/GD32VW55x_RELEASE_V1.0.2/MSDK/wpa_supplicant/src/utils\wpa_debug.c **** 		}
 389              		.loc 1 382 4 is_stmt 0
 390 004e 97000000 		call	printf
 390      E7800000 
 391              	.LVL32:
 392 0056 01A8     		j	.L37
 393              	.L36:
 378:C:/Users/stapi/OneDrive/Desktop/GD32VW553/V1_MQTT_OK/GD32VW55X_Wifi_BLE_SDK/GD32VW55x_RELEASE_V1.0.2/MSDK/wpa_supplicant/src/utils\wpa_debug.c **** 			for (i = 0; i < len; i++)
 394              		.loc 1 378 10 is_stmt 1
 378:C:/Users/stapi/OneDrive/Desktop/GD32VW553/V1_MQTT_OK/GD32VW55X_Wifi_BLE_SDK/GD32VW55x_RELEASE_V1.0.2/MSDK/wpa_supplicant/src/utils\wpa_debug.c **** 			for (i = 0; i < len; i++)
 395              		.loc 1 378 13 is_stmt 0
 396 0058 630B0902 		beq	s2,zero,.L38
 397 005c A294     		add	s1,s0,s1
 398              	.LVL33:
 380:C:/Users/stapi/OneDrive/Desktop/GD32VW553/V1_MQTT_OK/GD32VW55X_Wifi_BLE_SDK/GD32VW55x_RELEASE_V1.0.2/MSDK/wpa_supplicant/src/utils\wpa_debug.c **** 		} else {
 399              		.loc 1 380 5
 400 005e 37090000 		lui	s2,%hi(.LC5)
 401              	.LVL34:
 402              	.L39:
 379:C:/Users/stapi/OneDrive/Desktop/GD32VW553/V1_MQTT_OK/GD32VW55X_Wifi_BLE_SDK/GD32VW55x_RELEASE_V1.0.2/MSDK/wpa_supplicant/src/utils\wpa_debug.c **** 				printf(" %02x", buf[i]);
 403              		.loc 1 379 16 is_stmt 1
 379:C:/Users/stapi/OneDrive/Desktop/GD32VW553/V1_MQTT_OK/GD32VW55X_Wifi_BLE_SDK/GD32VW55x_RELEASE_V1.0.2/MSDK/wpa_supplicant/src/utils\wpa_debug.c **** 				printf(" %02x", buf[i]);
 404              		.loc 1 379 4 is_stmt 0
 405 0062 631C9400 		bne	s0,s1,.L40
 406              	.LVL35:
 407              	.L37:
 384:C:/Users/stapi/OneDrive/Desktop/GD32VW553/V1_MQTT_OK/GD32VW55X_Wifi_BLE_SDK/GD32VW55x_RELEASE_V1.0.2/MSDK/wpa_supplicant/src/utils\wpa_debug.c **** 	}
 408              		.loc 1 384 3 is_stmt 1
 409 0066 2945     		li	a0,10
 410 0068 97000000 		call	putchar
 410      E7800000 
 411              	.LVL36:
 412              	.L32:
 413              	.LBE21:
 414              	.LBE20:
 387:C:/Users/stapi/OneDrive/Desktop/GD32VW553/V1_MQTT_OK/GD32VW55X_Wifi_BLE_SDK/GD32VW55x_RELEASE_V1.0.2/MSDK/wpa_supplicant/src/utils\wpa_debug.c **** 
 415              		.loc 1 387 1 is_stmt 0
 416 0070 4101     		addi	sp,sp,16
 417              		.cfi_remember_state
 418              		.cfi_def_cfa_offset 0
 419              	.LVL37:
 420 0072 17030000 		tail	__riscv_restore_3
 420      67000300 
 421              		.cfi_restore 18
 422              		.cfi_restore 9
 423              		.cfi_restore 8
 424              		.cfi_restore 1
 425              		.cfi_def_cfa_offset -16
 426              	.LVL38:
 427              	.L40:
 428              		.cfi_restore_state
 429              	.LBB23:
 430              	.LBB22:
 380:C:/Users/stapi/OneDrive/Desktop/GD32VW553/V1_MQTT_OK/GD32VW55X_Wifi_BLE_SDK/GD32VW55x_RELEASE_V1.0.2/MSDK/wpa_supplicant/src/utils\wpa_debug.c **** 		} else {
 431              		.loc 1 380 5 is_stmt 1
 432 007a 83450400 		lbu	a1,0(s0)
 433 007e 13050900 		addi	a0,s2,%lo(.LC5)
 434 0082 0504     		addi	s0,s0,1
 435              	.LVL39:
 436 0084 97000000 		call	printf
 436      E7800000 
 437              	.LVL40:
 379:C:/Users/stapi/OneDrive/Desktop/GD32VW553/V1_MQTT_OK/GD32VW55X_Wifi_BLE_SDK/GD32VW55x_RELEASE_V1.0.2/MSDK/wpa_supplicant/src/utils\wpa_debug.c **** 				printf(" %02x", buf[i]);
 438              		.loc 1 379 25
 439 008c D9BF     		j	.L39
 440              	.LVL41:
 441              	.L38:
 382:C:/Users/stapi/OneDrive/Desktop/GD32VW553/V1_MQTT_OK/GD32VW55X_Wifi_BLE_SDK/GD32VW55x_RELEASE_V1.0.2/MSDK/wpa_supplicant/src/utils\wpa_debug.c **** 		}
 442              		.loc 1 382 4
 443 008e 37050000 		lui	a0,%hi(.LC9)
 444 0092 13050500 		addi	a0,a0,%lo(.LC9)
 445 0096 65BF     		j	.L42
 446              	.LBE22:
 447              	.LBE23:
 448              		.cfi_endproc
 449              	.LFE98:
 451              		.section	.text.wpa_printf,"ax",@progbits
 452              		.align	1
 453              		.globl	wpa_printf
 455              	wpa_printf:
 456              	.LFB72:
 214:C:/Users/stapi/OneDrive/Desktop/GD32VW553/V1_MQTT_OK/GD32VW55X_Wifi_BLE_SDK/GD32VW55x_RELEASE_V1.0.2/MSDK/wpa_supplicant/src/utils\wpa_debug.c **** 	va_list ap;
 457              		.loc 1 214 1
 458              		.cfi_startproc
 459              	.LVL42:
 215:C:/Users/stapi/OneDrive/Desktop/GD32VW553/V1_MQTT_OK/GD32VW55X_Wifi_BLE_SDK/GD32VW55x_RELEASE_V1.0.2/MSDK/wpa_supplicant/src/utils\wpa_debug.c **** 
 460              		.loc 1 215 2
 217:C:/Users/stapi/OneDrive/Desktop/GD32VW553/V1_MQTT_OK/GD32VW55X_Wifi_BLE_SDK/GD32VW55x_RELEASE_V1.0.2/MSDK/wpa_supplicant/src/utils\wpa_debug.c **** #ifdef CONFIG_ANDROID_LOG
 461              		.loc 1 217 2
 214:C:/Users/stapi/OneDrive/Desktop/GD32VW553/V1_MQTT_OK/GD32VW55X_Wifi_BLE_SDK/GD32VW55x_RELEASE_V1.0.2/MSDK/wpa_supplicant/src/utils\wpa_debug.c **** 	va_list ap;
 462              		.loc 1 214 1 is_stmt 0
 463 0000 3971     		addi	sp,sp,-64
 464              		.cfi_def_cfa_offset 64
 465 0002 3EDA     		sw	a5,52(sp)
 217:C:/Users/stapi/OneDrive/Desktop/GD32VW553/V1_MQTT_OK/GD32VW55X_Wifi_BLE_SDK/GD32VW55x_RELEASE_V1.0.2/MSDK/wpa_supplicant/src/utils\wpa_debug.c **** #ifdef CONFIG_ANDROID_LOG
 466              		.loc 1 217 5
 467 0004 B7070000 		lui	a5,%hi(.LANCHOR2)
 468 0008 83A70700 		lw	a5,%lo(.LANCHOR2)(a5)
 214:C:/Users/stapi/OneDrive/Desktop/GD32VW553/V1_MQTT_OK/GD32VW55X_Wifi_BLE_SDK/GD32VW55x_RELEASE_V1.0.2/MSDK/wpa_supplicant/src/utils\wpa_debug.c **** 	va_list ap;
 469              		.loc 1 214 1
 470 000c 06CE     		sw	ra,28(sp)
 471 000e 22CC     		sw	s0,24(sp)
 472              		.cfi_offset 1, -36
 473              		.cfi_offset 8, -40
 214:C:/Users/stapi/OneDrive/Desktop/GD32VW553/V1_MQTT_OK/GD32VW55X_Wifi_BLE_SDK/GD32VW55x_RELEASE_V1.0.2/MSDK/wpa_supplicant/src/utils\wpa_debug.c **** 	va_list ap;
 474              		.loc 1 214 1
 475 0010 32D4     		sw	a2,40(sp)
 476 0012 36D6     		sw	a3,44(sp)
 477 0014 3AD8     		sw	a4,48(sp)
 478 0016 42DC     		sw	a6,56(sp)
 479 0018 46DE     		sw	a7,60(sp)
 217:C:/Users/stapi/OneDrive/Desktop/GD32VW553/V1_MQTT_OK/GD32VW55X_Wifi_BLE_SDK/GD32VW55x_RELEASE_V1.0.2/MSDK/wpa_supplicant/src/utils\wpa_debug.c **** #ifdef CONFIG_ANDROID_LOG
 480              		.loc 1 217 5
 481 001a 6348F502 		bgt	a5,a0,.L43
 482 001e 2E84     		mv	s0,a1
 231:C:/Users/stapi/OneDrive/Desktop/GD32VW553/V1_MQTT_OK/GD32VW55X_Wifi_BLE_SDK/GD32VW55x_RELEASE_V1.0.2/MSDK/wpa_supplicant/src/utils\wpa_debug.c **** #ifdef CONFIG_DEBUG_FILE
 483              		.loc 1 231 3 is_stmt 1
 484 0020 97000000 		call	wpa_debug_print_timestamp
 484      E7800000 
 485              	.LVL43:
 240:C:/Users/stapi/OneDrive/Desktop/GD32VW553/V1_MQTT_OK/GD32VW55X_Wifi_BLE_SDK/GD32VW55x_RELEASE_V1.0.2/MSDK/wpa_supplicant/src/utils\wpa_debug.c **** 			va_start(ap, fmt);
 486              		.loc 1 240 3
 240:C:/Users/stapi/OneDrive/Desktop/GD32VW553/V1_MQTT_OK/GD32VW55X_Wifi_BLE_SDK/GD32VW55x_RELEASE_V1.0.2/MSDK/wpa_supplicant/src/utils\wpa_debug.c **** 			va_start(ap, fmt);
 487              		.loc 1 240 6 is_stmt 0
 488 0028 B7070000 		lui	a5,%hi(.LANCHOR1)
 489 002c 83A70700 		lw	a5,%lo(.LANCHOR1)(a5)
 490 0030 89EF     		bne	a5,zero,.L43
 241:C:/Users/stapi/OneDrive/Desktop/GD32VW553/V1_MQTT_OK/GD32VW55X_Wifi_BLE_SDK/GD32VW55x_RELEASE_V1.0.2/MSDK/wpa_supplicant/src/utils\wpa_debug.c **** 			vprintf(fmt, ap);
 491              		.loc 1 241 4 is_stmt 1
 492 0032 2C10     		addi	a1,sp,40
 242:C:/Users/stapi/OneDrive/Desktop/GD32VW553/V1_MQTT_OK/GD32VW55X_Wifi_BLE_SDK/GD32VW55x_RELEASE_V1.0.2/MSDK/wpa_supplicant/src/utils\wpa_debug.c **** 			printf("\n");
 493              		.loc 1 242 4 is_stmt 0
 494 0034 2285     		mv	a0,s0
 241:C:/Users/stapi/OneDrive/Desktop/GD32VW553/V1_MQTT_OK/GD32VW55X_Wifi_BLE_SDK/GD32VW55x_RELEASE_V1.0.2/MSDK/wpa_supplicant/src/utils\wpa_debug.c **** 			vprintf(fmt, ap);
 495              		.loc 1 241 4
 496 0036 2EC6     		sw	a1,12(sp)
 242:C:/Users/stapi/OneDrive/Desktop/GD32VW553/V1_MQTT_OK/GD32VW55X_Wifi_BLE_SDK/GD32VW55x_RELEASE_V1.0.2/MSDK/wpa_supplicant/src/utils\wpa_debug.c **** 			printf("\n");
 497              		.loc 1 242 4 is_stmt 1
 498 0038 97000000 		call	vprintf
 498      E7800000 
 499              	.LVL44:
 243:C:/Users/stapi/OneDrive/Desktop/GD32VW553/V1_MQTT_OK/GD32VW55X_Wifi_BLE_SDK/GD32VW55x_RELEASE_V1.0.2/MSDK/wpa_supplicant/src/utils\wpa_debug.c **** 			va_end(ap);
 500              		.loc 1 243 4
 501 0040 2945     		li	a0,10
 502 0042 97000000 		call	putchar
 502      E7800000 
 503              	.LVL45:
 244:C:/Users/stapi/OneDrive/Desktop/GD32VW553/V1_MQTT_OK/GD32VW55X_Wifi_BLE_SDK/GD32VW55x_RELEASE_V1.0.2/MSDK/wpa_supplicant/src/utils\wpa_debug.c **** 		}
 504              		.loc 1 244 4
 505              	.L43:
 259:C:/Users/stapi/OneDrive/Desktop/GD32VW553/V1_MQTT_OK/GD32VW55X_Wifi_BLE_SDK/GD32VW55x_RELEASE_V1.0.2/MSDK/wpa_supplicant/src/utils\wpa_debug.c **** 
 506              		.loc 1 259 1 is_stmt 0
 507 004a F240     		lw	ra,28(sp)
 508              		.cfi_restore 1
 509 004c 6244     		lw	s0,24(sp)
 510              		.cfi_restore 8
 511 004e 2161     		addi	sp,sp,64
 512              		.cfi_def_cfa_offset 0
 513 0050 8280     		jr	ra
 514              		.cfi_endproc
 515              	.LFE72:
 517              		.section	.text.wpa_hexdump,"ax",@progbits
 518              		.align	1
 519              		.globl	wpa_hexdump
 521              	wpa_hexdump:
 522              	.LFB74:
 390:C:/Users/stapi/OneDrive/Desktop/GD32VW553/V1_MQTT_OK/GD32VW55X_Wifi_BLE_SDK/GD32VW55x_RELEASE_V1.0.2/MSDK/wpa_supplicant/src/utils\wpa_debug.c **** 	_wpa_hexdump(level, title, buf, len, 1, 0);
 523              		.loc 1 390 1 is_stmt 1
 524              		.cfi_startproc
 525              	.LVL46:
 391:C:/Users/stapi/OneDrive/Desktop/GD32VW553/V1_MQTT_OK/GD32VW55X_Wifi_BLE_SDK/GD32VW55x_RELEASE_V1.0.2/MSDK/wpa_supplicant/src/utils\wpa_debug.c **** }
 526              		.loc 1 391 2
 527 0000 0547     		li	a4,1
 528 0002 17030000 		tail	_wpa_hexdump.constprop.0
 528      67000300 
 529              	.LVL47:
 530              		.cfi_endproc
 531              	.LFE74:
 533              		.section	.text.wpa_hexdump_key,"ax",@progbits
 534              		.align	1
 535              		.globl	wpa_hexdump_key
 537              	wpa_hexdump_key:
 538              	.LFB75:
 396:C:/Users/stapi/OneDrive/Desktop/GD32VW553/V1_MQTT_OK/GD32VW55X_Wifi_BLE_SDK/GD32VW55x_RELEASE_V1.0.2/MSDK/wpa_supplicant/src/utils\wpa_debug.c **** 	_wpa_hexdump(level, title, buf, len, wpa_debug_show_keys, 0);
 539              		.loc 1 396 1
 540              		.cfi_startproc
 541              	.LVL48:
 397:C:/Users/stapi/OneDrive/Desktop/GD32VW553/V1_MQTT_OK/GD32VW55X_Wifi_BLE_SDK/GD32VW55x_RELEASE_V1.0.2/MSDK/wpa_supplicant/src/utils\wpa_debug.c **** }
 542              		.loc 1 397 2
 543 0000 B7070000 		lui	a5,%hi(.LANCHOR3)
 544 0004 03A70700 		lw	a4,%lo(.LANCHOR3)(a5)
 545 0008 17030000 		tail	_wpa_hexdump.constprop.0
 545      67000300 
 546              	.LVL49:
 547              		.cfi_endproc
 548              	.LFE75:
 550              		.section	.text.wpa_hexdump_ascii,"ax",@progbits
 551              		.align	1
 552              		.globl	wpa_hexdump_ascii
 554              	wpa_hexdump_ascii:
 555              	.LFB77:
 512:C:/Users/stapi/OneDrive/Desktop/GD32VW553/V1_MQTT_OK/GD32VW55X_Wifi_BLE_SDK/GD32VW55x_RELEASE_V1.0.2/MSDK/wpa_supplicant/src/utils\wpa_debug.c **** 
 513:C:/Users/stapi/OneDrive/Desktop/GD32VW553/V1_MQTT_OK/GD32VW55X_Wifi_BLE_SDK/GD32VW55x_RELEASE_V1.0.2/MSDK/wpa_supplicant/src/utils\wpa_debug.c **** 
 514:C:/Users/stapi/OneDrive/Desktop/GD32VW553/V1_MQTT_OK/GD32VW55X_Wifi_BLE_SDK/GD32VW55x_RELEASE_V1.0.2/MSDK/wpa_supplicant/src/utils\wpa_debug.c **** void wpa_hexdump_ascii(int level, const char *title, const void *buf,
 515:C:/Users/stapi/OneDrive/Desktop/GD32VW553/V1_MQTT_OK/GD32VW55X_Wifi_BLE_SDK/GD32VW55x_RELEASE_V1.0.2/MSDK/wpa_supplicant/src/utils\wpa_debug.c **** 		       size_t len)
 516:C:/Users/stapi/OneDrive/Desktop/GD32VW553/V1_MQTT_OK/GD32VW55X_Wifi_BLE_SDK/GD32VW55x_RELEASE_V1.0.2/MSDK/wpa_supplicant/src/utils\wpa_debug.c **** {
 556              		.loc 1 516 1
 557              		.cfi_startproc
 558              	.LVL50:
 517:C:/Users/stapi/OneDrive/Desktop/GD32VW553/V1_MQTT_OK/GD32VW55X_Wifi_BLE_SDK/GD32VW55x_RELEASE_V1.0.2/MSDK/wpa_supplicant/src/utils\wpa_debug.c **** 	_wpa_hexdump_ascii(level, title, buf, len, 1);
 559              		.loc 1 517 2
 560 0000 0547     		li	a4,1
 561 0002 17030000 		tail	_wpa_hexdump_ascii
 561      67000300 
 562              	.LVL51:
 563              		.cfi_endproc
 564              	.LFE77:
 566              		.section	.text.wpa_hexdump_ascii_key,"ax",@progbits
 567              		.align	1
 568              		.globl	wpa_hexdump_ascii_key
 570              	wpa_hexdump_ascii_key:
 571              	.LFB78:
 518:C:/Users/stapi/OneDrive/Desktop/GD32VW553/V1_MQTT_OK/GD32VW55X_Wifi_BLE_SDK/GD32VW55x_RELEASE_V1.0.2/MSDK/wpa_supplicant/src/utils\wpa_debug.c **** }
 519:C:/Users/stapi/OneDrive/Desktop/GD32VW553/V1_MQTT_OK/GD32VW55X_Wifi_BLE_SDK/GD32VW55x_RELEASE_V1.0.2/MSDK/wpa_supplicant/src/utils\wpa_debug.c **** 
 520:C:/Users/stapi/OneDrive/Desktop/GD32VW553/V1_MQTT_OK/GD32VW55X_Wifi_BLE_SDK/GD32VW55x_RELEASE_V1.0.2/MSDK/wpa_supplicant/src/utils\wpa_debug.c **** 
 521:C:/Users/stapi/OneDrive/Desktop/GD32VW553/V1_MQTT_OK/GD32VW55X_Wifi_BLE_SDK/GD32VW55x_RELEASE_V1.0.2/MSDK/wpa_supplicant/src/utils\wpa_debug.c **** void wpa_hexdump_ascii_key(int level, const char *title, const void *buf,
 522:C:/Users/stapi/OneDrive/Desktop/GD32VW553/V1_MQTT_OK/GD32VW55X_Wifi_BLE_SDK/GD32VW55x_RELEASE_V1.0.2/MSDK/wpa_supplicant/src/utils\wpa_debug.c **** 			   size_t len)
 523:C:/Users/stapi/OneDrive/Desktop/GD32VW553/V1_MQTT_OK/GD32VW55X_Wifi_BLE_SDK/GD32VW55x_RELEASE_V1.0.2/MSDK/wpa_supplicant/src/utils\wpa_debug.c **** {
 572              		.loc 1 523 1
 573              		.cfi_startproc
 574              	.LVL52:
 524:C:/Users/stapi/OneDrive/Desktop/GD32VW553/V1_MQTT_OK/GD32VW55X_Wifi_BLE_SDK/GD32VW55x_RELEASE_V1.0.2/MSDK/wpa_supplicant/src/utils\wpa_debug.c **** 	_wpa_hexdump_ascii(level, title, buf, len, wpa_debug_show_keys);
 575              		.loc 1 524 2
 576 0000 B7070000 		lui	a5,%hi(.LANCHOR3)
 577 0004 03A70700 		lw	a4,%lo(.LANCHOR3)(a5)
 578 0008 17030000 		tail	_wpa_hexdump_ascii
 578      67000300 
 579              	.LVL53:
 580              		.cfi_endproc
 581              	.LFE78:
 583              		.section	.text.wpa_debug_reopen_file,"ax",@progbits
 584              		.align	1
 585              		.globl	wpa_debug_reopen_file
 587              	wpa_debug_reopen_file:
 588              	.LFB79:
 525:C:/Users/stapi/OneDrive/Desktop/GD32VW553/V1_MQTT_OK/GD32VW55X_Wifi_BLE_SDK/GD32VW55x_RELEASE_V1.0.2/MSDK/wpa_supplicant/src/utils\wpa_debug.c **** }
 526:C:/Users/stapi/OneDrive/Desktop/GD32VW553/V1_MQTT_OK/GD32VW55X_Wifi_BLE_SDK/GD32VW55x_RELEASE_V1.0.2/MSDK/wpa_supplicant/src/utils\wpa_debug.c **** 
 527:C:/Users/stapi/OneDrive/Desktop/GD32VW553/V1_MQTT_OK/GD32VW55X_Wifi_BLE_SDK/GD32VW55x_RELEASE_V1.0.2/MSDK/wpa_supplicant/src/utils\wpa_debug.c **** 
 528:C:/Users/stapi/OneDrive/Desktop/GD32VW553/V1_MQTT_OK/GD32VW55X_Wifi_BLE_SDK/GD32VW55x_RELEASE_V1.0.2/MSDK/wpa_supplicant/src/utils\wpa_debug.c **** #ifdef CONFIG_DEBUG_FILE
 529:C:/Users/stapi/OneDrive/Desktop/GD32VW553/V1_MQTT_OK/GD32VW55X_Wifi_BLE_SDK/GD32VW55x_RELEASE_V1.0.2/MSDK/wpa_supplicant/src/utils\wpa_debug.c **** static char *last_path = NULL;
 530:C:/Users/stapi/OneDrive/Desktop/GD32VW553/V1_MQTT_OK/GD32VW55X_Wifi_BLE_SDK/GD32VW55x_RELEASE_V1.0.2/MSDK/wpa_supplicant/src/utils\wpa_debug.c **** #endif /* CONFIG_DEBUG_FILE */
 531:C:/Users/stapi/OneDrive/Desktop/GD32VW553/V1_MQTT_OK/GD32VW55X_Wifi_BLE_SDK/GD32VW55x_RELEASE_V1.0.2/MSDK/wpa_supplicant/src/utils\wpa_debug.c **** 
 532:C:/Users/stapi/OneDrive/Desktop/GD32VW553/V1_MQTT_OK/GD32VW55X_Wifi_BLE_SDK/GD32VW55x_RELEASE_V1.0.2/MSDK/wpa_supplicant/src/utils\wpa_debug.c **** int wpa_debug_reopen_file(void)
 533:C:/Users/stapi/OneDrive/Desktop/GD32VW553/V1_MQTT_OK/GD32VW55X_Wifi_BLE_SDK/GD32VW55x_RELEASE_V1.0.2/MSDK/wpa_supplicant/src/utils\wpa_debug.c **** {
 589              		.loc 1 533 1
 590              		.cfi_startproc
 534:C:/Users/stapi/OneDrive/Desktop/GD32VW553/V1_MQTT_OK/GD32VW55X_Wifi_BLE_SDK/GD32VW55x_RELEASE_V1.0.2/MSDK/wpa_supplicant/src/utils\wpa_debug.c **** #ifdef CONFIG_DEBUG_FILE
 535:C:/Users/stapi/OneDrive/Desktop/GD32VW553/V1_MQTT_OK/GD32VW55X_Wifi_BLE_SDK/GD32VW55x_RELEASE_V1.0.2/MSDK/wpa_supplicant/src/utils\wpa_debug.c **** 	int rv;
 536:C:/Users/stapi/OneDrive/Desktop/GD32VW553/V1_MQTT_OK/GD32VW55X_Wifi_BLE_SDK/GD32VW55x_RELEASE_V1.0.2/MSDK/wpa_supplicant/src/utils\wpa_debug.c **** 	char *tmp;
 537:C:/Users/stapi/OneDrive/Desktop/GD32VW553/V1_MQTT_OK/GD32VW55X_Wifi_BLE_SDK/GD32VW55x_RELEASE_V1.0.2/MSDK/wpa_supplicant/src/utils\wpa_debug.c **** 
 538:C:/Users/stapi/OneDrive/Desktop/GD32VW553/V1_MQTT_OK/GD32VW55X_Wifi_BLE_SDK/GD32VW55x_RELEASE_V1.0.2/MSDK/wpa_supplicant/src/utils\wpa_debug.c **** 	if (!last_path)
 539:C:/Users/stapi/OneDrive/Desktop/GD32VW553/V1_MQTT_OK/GD32VW55X_Wifi_BLE_SDK/GD32VW55x_RELEASE_V1.0.2/MSDK/wpa_supplicant/src/utils\wpa_debug.c **** 		return 0; /* logfile not used */
 540:C:/Users/stapi/OneDrive/Desktop/GD32VW553/V1_MQTT_OK/GD32VW55X_Wifi_BLE_SDK/GD32VW55x_RELEASE_V1.0.2/MSDK/wpa_supplicant/src/utils\wpa_debug.c **** 
 541:C:/Users/stapi/OneDrive/Desktop/GD32VW553/V1_MQTT_OK/GD32VW55X_Wifi_BLE_SDK/GD32VW55x_RELEASE_V1.0.2/MSDK/wpa_supplicant/src/utils\wpa_debug.c **** 	tmp = os_strdup(last_path);
 542:C:/Users/stapi/OneDrive/Desktop/GD32VW553/V1_MQTT_OK/GD32VW55X_Wifi_BLE_SDK/GD32VW55x_RELEASE_V1.0.2/MSDK/wpa_supplicant/src/utils\wpa_debug.c **** 	if (!tmp)
 543:C:/Users/stapi/OneDrive/Desktop/GD32VW553/V1_MQTT_OK/GD32VW55X_Wifi_BLE_SDK/GD32VW55x_RELEASE_V1.0.2/MSDK/wpa_supplicant/src/utils\wpa_debug.c **** 		return -1;
 544:C:/Users/stapi/OneDrive/Desktop/GD32VW553/V1_MQTT_OK/GD32VW55X_Wifi_BLE_SDK/GD32VW55x_RELEASE_V1.0.2/MSDK/wpa_supplicant/src/utils\wpa_debug.c **** 
 545:C:/Users/stapi/OneDrive/Desktop/GD32VW553/V1_MQTT_OK/GD32VW55X_Wifi_BLE_SDK/GD32VW55x_RELEASE_V1.0.2/MSDK/wpa_supplicant/src/utils\wpa_debug.c **** 	wpa_debug_close_file();
 546:C:/Users/stapi/OneDrive/Desktop/GD32VW553/V1_MQTT_OK/GD32VW55X_Wifi_BLE_SDK/GD32VW55x_RELEASE_V1.0.2/MSDK/wpa_supplicant/src/utils\wpa_debug.c **** 	rv = wpa_debug_open_file(tmp);
 547:C:/Users/stapi/OneDrive/Desktop/GD32VW553/V1_MQTT_OK/GD32VW55X_Wifi_BLE_SDK/GD32VW55x_RELEASE_V1.0.2/MSDK/wpa_supplicant/src/utils\wpa_debug.c **** 	os_free(tmp);
 548:C:/Users/stapi/OneDrive/Desktop/GD32VW553/V1_MQTT_OK/GD32VW55X_Wifi_BLE_SDK/GD32VW55x_RELEASE_V1.0.2/MSDK/wpa_supplicant/src/utils\wpa_debug.c **** 	return rv;
 549:C:/Users/stapi/OneDrive/Desktop/GD32VW553/V1_MQTT_OK/GD32VW55X_Wifi_BLE_SDK/GD32VW55x_RELEASE_V1.0.2/MSDK/wpa_supplicant/src/utils\wpa_debug.c **** #else /* CONFIG_DEBUG_FILE */
 550:C:/Users/stapi/OneDrive/Desktop/GD32VW553/V1_MQTT_OK/GD32VW55X_Wifi_BLE_SDK/GD32VW55x_RELEASE_V1.0.2/MSDK/wpa_supplicant/src/utils\wpa_debug.c **** 	return 0;
 591              		.loc 1 550 2
 551:C:/Users/stapi/OneDrive/Desktop/GD32VW553/V1_MQTT_OK/GD32VW55X_Wifi_BLE_SDK/GD32VW55x_RELEASE_V1.0.2/MSDK/wpa_supplicant/src/utils\wpa_debug.c **** #endif /* CONFIG_DEBUG_FILE */
 552:C:/Users/stapi/OneDrive/Desktop/GD32VW553/V1_MQTT_OK/GD32VW55X_Wifi_BLE_SDK/GD32VW55x_RELEASE_V1.0.2/MSDK/wpa_supplicant/src/utils\wpa_debug.c **** }
 592              		.loc 1 552 1 is_stmt 0
 593 0000 0145     		li	a0,0
 594 0002 8280     		ret
 595              		.cfi_endproc
 596              	.LFE79:
 598              		.section	.text.wpa_debug_open_file,"ax",@progbits
 599              		.align	1
 600              		.globl	wpa_debug_open_file
 602              	wpa_debug_open_file:
 603              	.LFB80:
 553:C:/Users/stapi/OneDrive/Desktop/GD32VW553/V1_MQTT_OK/GD32VW55X_Wifi_BLE_SDK/GD32VW55x_RELEASE_V1.0.2/MSDK/wpa_supplicant/src/utils\wpa_debug.c **** 
 554:C:/Users/stapi/OneDrive/Desktop/GD32VW553/V1_MQTT_OK/GD32VW55X_Wifi_BLE_SDK/GD32VW55x_RELEASE_V1.0.2/MSDK/wpa_supplicant/src/utils\wpa_debug.c **** 
 555:C:/Users/stapi/OneDrive/Desktop/GD32VW553/V1_MQTT_OK/GD32VW55X_Wifi_BLE_SDK/GD32VW55x_RELEASE_V1.0.2/MSDK/wpa_supplicant/src/utils\wpa_debug.c **** int wpa_debug_open_file(const char *path)
 556:C:/Users/stapi/OneDrive/Desktop/GD32VW553/V1_MQTT_OK/GD32VW55X_Wifi_BLE_SDK/GD32VW55x_RELEASE_V1.0.2/MSDK/wpa_supplicant/src/utils\wpa_debug.c **** {
 604              		.loc 1 556 1 is_stmt 1
 605              		.cfi_startproc
 606              	.LVL54:
 557:C:/Users/stapi/OneDrive/Desktop/GD32VW553/V1_MQTT_OK/GD32VW55X_Wifi_BLE_SDK/GD32VW55x_RELEASE_V1.0.2/MSDK/wpa_supplicant/src/utils\wpa_debug.c **** #ifdef CONFIG_DEBUG_FILE
 558:C:/Users/stapi/OneDrive/Desktop/GD32VW553/V1_MQTT_OK/GD32VW55X_Wifi_BLE_SDK/GD32VW55x_RELEASE_V1.0.2/MSDK/wpa_supplicant/src/utils\wpa_debug.c **** 	int out_fd;
 559:C:/Users/stapi/OneDrive/Desktop/GD32VW553/V1_MQTT_OK/GD32VW55X_Wifi_BLE_SDK/GD32VW55x_RELEASE_V1.0.2/MSDK/wpa_supplicant/src/utils\wpa_debug.c **** 
 560:C:/Users/stapi/OneDrive/Desktop/GD32VW553/V1_MQTT_OK/GD32VW55X_Wifi_BLE_SDK/GD32VW55x_RELEASE_V1.0.2/MSDK/wpa_supplicant/src/utils\wpa_debug.c **** 	if (!path)
 561:C:/Users/stapi/OneDrive/Desktop/GD32VW553/V1_MQTT_OK/GD32VW55X_Wifi_BLE_SDK/GD32VW55x_RELEASE_V1.0.2/MSDK/wpa_supplicant/src/utils\wpa_debug.c **** 		return 0;
 562:C:/Users/stapi/OneDrive/Desktop/GD32VW553/V1_MQTT_OK/GD32VW55X_Wifi_BLE_SDK/GD32VW55x_RELEASE_V1.0.2/MSDK/wpa_supplicant/src/utils\wpa_debug.c **** 
 563:C:/Users/stapi/OneDrive/Desktop/GD32VW553/V1_MQTT_OK/GD32VW55X_Wifi_BLE_SDK/GD32VW55x_RELEASE_V1.0.2/MSDK/wpa_supplicant/src/utils\wpa_debug.c **** 	if (last_path == NULL || os_strcmp(last_path, path) != 0) {
 564:C:/Users/stapi/OneDrive/Desktop/GD32VW553/V1_MQTT_OK/GD32VW55X_Wifi_BLE_SDK/GD32VW55x_RELEASE_V1.0.2/MSDK/wpa_supplicant/src/utils\wpa_debug.c **** 		/* Save our path to enable re-open */
 565:C:/Users/stapi/OneDrive/Desktop/GD32VW553/V1_MQTT_OK/GD32VW55X_Wifi_BLE_SDK/GD32VW55x_RELEASE_V1.0.2/MSDK/wpa_supplicant/src/utils\wpa_debug.c **** 		os_free(last_path);
 566:C:/Users/stapi/OneDrive/Desktop/GD32VW553/V1_MQTT_OK/GD32VW55X_Wifi_BLE_SDK/GD32VW55x_RELEASE_V1.0.2/MSDK/wpa_supplicant/src/utils\wpa_debug.c **** 		last_path = os_strdup(path);
 567:C:/Users/stapi/OneDrive/Desktop/GD32VW553/V1_MQTT_OK/GD32VW55X_Wifi_BLE_SDK/GD32VW55x_RELEASE_V1.0.2/MSDK/wpa_supplicant/src/utils\wpa_debug.c **** 	}
 568:C:/Users/stapi/OneDrive/Desktop/GD32VW553/V1_MQTT_OK/GD32VW55X_Wifi_BLE_SDK/GD32VW55x_RELEASE_V1.0.2/MSDK/wpa_supplicant/src/utils\wpa_debug.c **** 
 569:C:/Users/stapi/OneDrive/Desktop/GD32VW553/V1_MQTT_OK/GD32VW55X_Wifi_BLE_SDK/GD32VW55x_RELEASE_V1.0.2/MSDK/wpa_supplicant/src/utils\wpa_debug.c **** 	out_fd = open(path, O_CREAT | O_APPEND | O_WRONLY,
 570:C:/Users/stapi/OneDrive/Desktop/GD32VW553/V1_MQTT_OK/GD32VW55X_Wifi_BLE_SDK/GD32VW55x_RELEASE_V1.0.2/MSDK/wpa_supplicant/src/utils\wpa_debug.c **** 		      S_IRUSR | S_IWUSR | S_IRGRP);
 571:C:/Users/stapi/OneDrive/Desktop/GD32VW553/V1_MQTT_OK/GD32VW55X_Wifi_BLE_SDK/GD32VW55x_RELEASE_V1.0.2/MSDK/wpa_supplicant/src/utils\wpa_debug.c **** 	if (out_fd < 0) {
 572:C:/Users/stapi/OneDrive/Desktop/GD32VW553/V1_MQTT_OK/GD32VW55X_Wifi_BLE_SDK/GD32VW55x_RELEASE_V1.0.2/MSDK/wpa_supplicant/src/utils\wpa_debug.c **** 		wpa_printf(MSG_ERROR,
 573:C:/Users/stapi/OneDrive/Desktop/GD32VW553/V1_MQTT_OK/GD32VW55X_Wifi_BLE_SDK/GD32VW55x_RELEASE_V1.0.2/MSDK/wpa_supplicant/src/utils\wpa_debug.c **** 			   "%s: Failed to open output file descriptor, using standard output",
 574:C:/Users/stapi/OneDrive/Desktop/GD32VW553/V1_MQTT_OK/GD32VW55X_Wifi_BLE_SDK/GD32VW55x_RELEASE_V1.0.2/MSDK/wpa_supplicant/src/utils\wpa_debug.c **** 			   __func__);
 575:C:/Users/stapi/OneDrive/Desktop/GD32VW553/V1_MQTT_OK/GD32VW55X_Wifi_BLE_SDK/GD32VW55x_RELEASE_V1.0.2/MSDK/wpa_supplicant/src/utils\wpa_debug.c **** 		return -1;
 576:C:/Users/stapi/OneDrive/Desktop/GD32VW553/V1_MQTT_OK/GD32VW55X_Wifi_BLE_SDK/GD32VW55x_RELEASE_V1.0.2/MSDK/wpa_supplicant/src/utils\wpa_debug.c **** 	}
 577:C:/Users/stapi/OneDrive/Desktop/GD32VW553/V1_MQTT_OK/GD32VW55X_Wifi_BLE_SDK/GD32VW55x_RELEASE_V1.0.2/MSDK/wpa_supplicant/src/utils\wpa_debug.c **** 
 578:C:/Users/stapi/OneDrive/Desktop/GD32VW553/V1_MQTT_OK/GD32VW55X_Wifi_BLE_SDK/GD32VW55x_RELEASE_V1.0.2/MSDK/wpa_supplicant/src/utils\wpa_debug.c **** #ifdef __linux__
 579:C:/Users/stapi/OneDrive/Desktop/GD32VW553/V1_MQTT_OK/GD32VW55X_Wifi_BLE_SDK/GD32VW55x_RELEASE_V1.0.2/MSDK/wpa_supplicant/src/utils\wpa_debug.c **** 	if (fcntl(out_fd, F_SETFD, FD_CLOEXEC) < 0) {
 580:C:/Users/stapi/OneDrive/Desktop/GD32VW553/V1_MQTT_OK/GD32VW55X_Wifi_BLE_SDK/GD32VW55x_RELEASE_V1.0.2/MSDK/wpa_supplicant/src/utils\wpa_debug.c **** 		wpa_printf(MSG_DEBUG,
 581:C:/Users/stapi/OneDrive/Desktop/GD32VW553/V1_MQTT_OK/GD32VW55X_Wifi_BLE_SDK/GD32VW55x_RELEASE_V1.0.2/MSDK/wpa_supplicant/src/utils\wpa_debug.c **** 			   "%s: Failed to set FD_CLOEXEC - continue without: %s",
 582:C:/Users/stapi/OneDrive/Desktop/GD32VW553/V1_MQTT_OK/GD32VW55X_Wifi_BLE_SDK/GD32VW55x_RELEASE_V1.0.2/MSDK/wpa_supplicant/src/utils\wpa_debug.c **** 			   __func__, strerror(errno));
 583:C:/Users/stapi/OneDrive/Desktop/GD32VW553/V1_MQTT_OK/GD32VW55X_Wifi_BLE_SDK/GD32VW55x_RELEASE_V1.0.2/MSDK/wpa_supplicant/src/utils\wpa_debug.c **** 	}
 584:C:/Users/stapi/OneDrive/Desktop/GD32VW553/V1_MQTT_OK/GD32VW55X_Wifi_BLE_SDK/GD32VW55x_RELEASE_V1.0.2/MSDK/wpa_supplicant/src/utils\wpa_debug.c **** #endif /* __linux__ */
 585:C:/Users/stapi/OneDrive/Desktop/GD32VW553/V1_MQTT_OK/GD32VW55X_Wifi_BLE_SDK/GD32VW55x_RELEASE_V1.0.2/MSDK/wpa_supplicant/src/utils\wpa_debug.c **** 
 586:C:/Users/stapi/OneDrive/Desktop/GD32VW553/V1_MQTT_OK/GD32VW55X_Wifi_BLE_SDK/GD32VW55x_RELEASE_V1.0.2/MSDK/wpa_supplicant/src/utils\wpa_debug.c **** 	out_file = fdopen(out_fd, "a");
 587:C:/Users/stapi/OneDrive/Desktop/GD32VW553/V1_MQTT_OK/GD32VW55X_Wifi_BLE_SDK/GD32VW55x_RELEASE_V1.0.2/MSDK/wpa_supplicant/src/utils\wpa_debug.c **** 	if (out_file == NULL) {
 588:C:/Users/stapi/OneDrive/Desktop/GD32VW553/V1_MQTT_OK/GD32VW55X_Wifi_BLE_SDK/GD32VW55x_RELEASE_V1.0.2/MSDK/wpa_supplicant/src/utils\wpa_debug.c **** 		wpa_printf(MSG_ERROR, "wpa_debug_open_file: Failed to open "
 589:C:/Users/stapi/OneDrive/Desktop/GD32VW553/V1_MQTT_OK/GD32VW55X_Wifi_BLE_SDK/GD32VW55x_RELEASE_V1.0.2/MSDK/wpa_supplicant/src/utils\wpa_debug.c **** 			   "output file, using standard output");
 590:C:/Users/stapi/OneDrive/Desktop/GD32VW553/V1_MQTT_OK/GD32VW55X_Wifi_BLE_SDK/GD32VW55x_RELEASE_V1.0.2/MSDK/wpa_supplicant/src/utils\wpa_debug.c **** 		close(out_fd);
 591:C:/Users/stapi/OneDrive/Desktop/GD32VW553/V1_MQTT_OK/GD32VW55X_Wifi_BLE_SDK/GD32VW55x_RELEASE_V1.0.2/MSDK/wpa_supplicant/src/utils\wpa_debug.c **** 		return -1;
 592:C:/Users/stapi/OneDrive/Desktop/GD32VW553/V1_MQTT_OK/GD32VW55X_Wifi_BLE_SDK/GD32VW55x_RELEASE_V1.0.2/MSDK/wpa_supplicant/src/utils\wpa_debug.c **** 	}
 593:C:/Users/stapi/OneDrive/Desktop/GD32VW553/V1_MQTT_OK/GD32VW55X_Wifi_BLE_SDK/GD32VW55x_RELEASE_V1.0.2/MSDK/wpa_supplicant/src/utils\wpa_debug.c **** #ifndef _WIN32
 594:C:/Users/stapi/OneDrive/Desktop/GD32VW553/V1_MQTT_OK/GD32VW55X_Wifi_BLE_SDK/GD32VW55x_RELEASE_V1.0.2/MSDK/wpa_supplicant/src/utils\wpa_debug.c **** 	setvbuf(out_file, NULL, _IONBF, 0);
 595:C:/Users/stapi/OneDrive/Desktop/GD32VW553/V1_MQTT_OK/GD32VW55X_Wifi_BLE_SDK/GD32VW55x_RELEASE_V1.0.2/MSDK/wpa_supplicant/src/utils\wpa_debug.c **** #endif /* _WIN32 */
 596:C:/Users/stapi/OneDrive/Desktop/GD32VW553/V1_MQTT_OK/GD32VW55X_Wifi_BLE_SDK/GD32VW55x_RELEASE_V1.0.2/MSDK/wpa_supplicant/src/utils\wpa_debug.c **** #else /* CONFIG_DEBUG_FILE */
 597:C:/Users/stapi/OneDrive/Desktop/GD32VW553/V1_MQTT_OK/GD32VW55X_Wifi_BLE_SDK/GD32VW55x_RELEASE_V1.0.2/MSDK/wpa_supplicant/src/utils\wpa_debug.c **** 	(void)path;
 607              		.loc 1 597 2
 598:C:/Users/stapi/OneDrive/Desktop/GD32VW553/V1_MQTT_OK/GD32VW55X_Wifi_BLE_SDK/GD32VW55x_RELEASE_V1.0.2/MSDK/wpa_supplicant/src/utils\wpa_debug.c **** #endif /* CONFIG_DEBUG_FILE */
 599:C:/Users/stapi/OneDrive/Desktop/GD32VW553/V1_MQTT_OK/GD32VW55X_Wifi_BLE_SDK/GD32VW55x_RELEASE_V1.0.2/MSDK/wpa_supplicant/src/utils\wpa_debug.c **** 	return 0;
 608              		.loc 1 599 2
 600:C:/Users/stapi/OneDrive/Desktop/GD32VW553/V1_MQTT_OK/GD32VW55X_Wifi_BLE_SDK/GD32VW55x_RELEASE_V1.0.2/MSDK/wpa_supplicant/src/utils\wpa_debug.c **** }
 609              		.loc 1 600 1 is_stmt 0
 610 0000 0145     		li	a0,0
 611              	.LVL55:
 612 0002 8280     		ret
 613              		.cfi_endproc
 614              	.LFE80:
 616              		.section	.text.wpa_debug_close_file,"ax",@progbits
 617              		.align	1
 618              		.globl	wpa_debug_close_file
 620              	wpa_debug_close_file:
 621              	.LFB81:
 601:C:/Users/stapi/OneDrive/Desktop/GD32VW553/V1_MQTT_OK/GD32VW55X_Wifi_BLE_SDK/GD32VW55x_RELEASE_V1.0.2/MSDK/wpa_supplicant/src/utils\wpa_debug.c **** 
 602:C:/Users/stapi/OneDrive/Desktop/GD32VW553/V1_MQTT_OK/GD32VW55X_Wifi_BLE_SDK/GD32VW55x_RELEASE_V1.0.2/MSDK/wpa_supplicant/src/utils\wpa_debug.c **** 
 603:C:/Users/stapi/OneDrive/Desktop/GD32VW553/V1_MQTT_OK/GD32VW55X_Wifi_BLE_SDK/GD32VW55x_RELEASE_V1.0.2/MSDK/wpa_supplicant/src/utils\wpa_debug.c **** void wpa_debug_close_file(void)
 604:C:/Users/stapi/OneDrive/Desktop/GD32VW553/V1_MQTT_OK/GD32VW55X_Wifi_BLE_SDK/GD32VW55x_RELEASE_V1.0.2/MSDK/wpa_supplicant/src/utils\wpa_debug.c **** {
 622              		.loc 1 604 1 is_stmt 1
 623              		.cfi_startproc
 605:C:/Users/stapi/OneDrive/Desktop/GD32VW553/V1_MQTT_OK/GD32VW55X_Wifi_BLE_SDK/GD32VW55x_RELEASE_V1.0.2/MSDK/wpa_supplicant/src/utils\wpa_debug.c **** #ifdef CONFIG_DEBUG_FILE
 606:C:/Users/stapi/OneDrive/Desktop/GD32VW553/V1_MQTT_OK/GD32VW55X_Wifi_BLE_SDK/GD32VW55x_RELEASE_V1.0.2/MSDK/wpa_supplicant/src/utils\wpa_debug.c **** 	if (!out_file)
 607:C:/Users/stapi/OneDrive/Desktop/GD32VW553/V1_MQTT_OK/GD32VW55X_Wifi_BLE_SDK/GD32VW55x_RELEASE_V1.0.2/MSDK/wpa_supplicant/src/utils\wpa_debug.c **** 		return;
 608:C:/Users/stapi/OneDrive/Desktop/GD32VW553/V1_MQTT_OK/GD32VW55X_Wifi_BLE_SDK/GD32VW55x_RELEASE_V1.0.2/MSDK/wpa_supplicant/src/utils\wpa_debug.c **** 	fclose(out_file);
 609:C:/Users/stapi/OneDrive/Desktop/GD32VW553/V1_MQTT_OK/GD32VW55X_Wifi_BLE_SDK/GD32VW55x_RELEASE_V1.0.2/MSDK/wpa_supplicant/src/utils\wpa_debug.c **** 	out_file = NULL;
 610:C:/Users/stapi/OneDrive/Desktop/GD32VW553/V1_MQTT_OK/GD32VW55X_Wifi_BLE_SDK/GD32VW55x_RELEASE_V1.0.2/MSDK/wpa_supplicant/src/utils\wpa_debug.c **** 	os_free(last_path);
 611:C:/Users/stapi/OneDrive/Desktop/GD32VW553/V1_MQTT_OK/GD32VW55X_Wifi_BLE_SDK/GD32VW55x_RELEASE_V1.0.2/MSDK/wpa_supplicant/src/utils\wpa_debug.c **** 	last_path = NULL;
 612:C:/Users/stapi/OneDrive/Desktop/GD32VW553/V1_MQTT_OK/GD32VW55X_Wifi_BLE_SDK/GD32VW55x_RELEASE_V1.0.2/MSDK/wpa_supplicant/src/utils\wpa_debug.c **** #endif /* CONFIG_DEBUG_FILE */
 613:C:/Users/stapi/OneDrive/Desktop/GD32VW553/V1_MQTT_OK/GD32VW55X_Wifi_BLE_SDK/GD32VW55x_RELEASE_V1.0.2/MSDK/wpa_supplicant/src/utils\wpa_debug.c **** }
 624              		.loc 1 613 1
 625 0000 8280     		ret
 626              		.cfi_endproc
 627              	.LFE81:
 629              		.section	.text.wpa_debug_setup_stdout,"ax",@progbits
 630              		.align	1
 631              		.globl	wpa_debug_setup_stdout
 633              	wpa_debug_setup_stdout:
 634              	.LFB82:
 614:C:/Users/stapi/OneDrive/Desktop/GD32VW553/V1_MQTT_OK/GD32VW55X_Wifi_BLE_SDK/GD32VW55x_RELEASE_V1.0.2/MSDK/wpa_supplicant/src/utils\wpa_debug.c **** 
 615:C:/Users/stapi/OneDrive/Desktop/GD32VW553/V1_MQTT_OK/GD32VW55X_Wifi_BLE_SDK/GD32VW55x_RELEASE_V1.0.2/MSDK/wpa_supplicant/src/utils\wpa_debug.c **** 
 616:C:/Users/stapi/OneDrive/Desktop/GD32VW553/V1_MQTT_OK/GD32VW55X_Wifi_BLE_SDK/GD32VW55x_RELEASE_V1.0.2/MSDK/wpa_supplicant/src/utils\wpa_debug.c **** void wpa_debug_setup_stdout(void)
 617:C:/Users/stapi/OneDrive/Desktop/GD32VW553/V1_MQTT_OK/GD32VW55X_Wifi_BLE_SDK/GD32VW55x_RELEASE_V1.0.2/MSDK/wpa_supplicant/src/utils\wpa_debug.c **** {
 635              		.loc 1 617 1
 636              		.cfi_startproc
 618:C:/Users/stapi/OneDrive/Desktop/GD32VW553/V1_MQTT_OK/GD32VW55X_Wifi_BLE_SDK/GD32VW55x_RELEASE_V1.0.2/MSDK/wpa_supplicant/src/utils\wpa_debug.c **** #ifndef _WIN32
 619:C:/Users/stapi/OneDrive/Desktop/GD32VW553/V1_MQTT_OK/GD32VW55X_Wifi_BLE_SDK/GD32VW55x_RELEASE_V1.0.2/MSDK/wpa_supplicant/src/utils\wpa_debug.c **** 	setvbuf(stdout, NULL, _IONBF, 0);
 637              		.loc 1 619 2
 638              		.loc 1 619 10 is_stmt 0
 639 0000 B7070000 		lui	a5,%hi(_impure_ptr)
 640 0004 83A70700 		lw	a5,%lo(_impure_ptr)(a5)
 641              		.loc 1 619 2
 642 0008 8146     		li	a3,0
 643 000a 0946     		li	a2,2
 644 000c 8847     		lw	a0,8(a5)
 645 000e 8145     		li	a1,0
 646 0010 17030000 		tail	setvbuf
 646      67000300 
 647              	.LVL56:
 648              		.cfi_endproc
 649              	.LFE82:
 651              		.section	.text.wpa_msg_register_cb,"ax",@progbits
 652              		.align	1
 653              		.globl	wpa_msg_register_cb
 655              	wpa_msg_register_cb:
 656              	.LFB83:
 620:C:/Users/stapi/OneDrive/Desktop/GD32VW553/V1_MQTT_OK/GD32VW55X_Wifi_BLE_SDK/GD32VW55x_RELEASE_V1.0.2/MSDK/wpa_supplicant/src/utils\wpa_debug.c **** #endif /* _WIN32 */
 621:C:/Users/stapi/OneDrive/Desktop/GD32VW553/V1_MQTT_OK/GD32VW55X_Wifi_BLE_SDK/GD32VW55x_RELEASE_V1.0.2/MSDK/wpa_supplicant/src/utils\wpa_debug.c **** }
 622:C:/Users/stapi/OneDrive/Desktop/GD32VW553/V1_MQTT_OK/GD32VW55X_Wifi_BLE_SDK/GD32VW55x_RELEASE_V1.0.2/MSDK/wpa_supplicant/src/utils\wpa_debug.c **** 
 623:C:/Users/stapi/OneDrive/Desktop/GD32VW553/V1_MQTT_OK/GD32VW55X_Wifi_BLE_SDK/GD32VW55x_RELEASE_V1.0.2/MSDK/wpa_supplicant/src/utils\wpa_debug.c **** #endif /* CONFIG_NO_STDOUT_DEBUG */
 624:C:/Users/stapi/OneDrive/Desktop/GD32VW553/V1_MQTT_OK/GD32VW55X_Wifi_BLE_SDK/GD32VW55x_RELEASE_V1.0.2/MSDK/wpa_supplicant/src/utils\wpa_debug.c **** 
 625:C:/Users/stapi/OneDrive/Desktop/GD32VW553/V1_MQTT_OK/GD32VW55X_Wifi_BLE_SDK/GD32VW55x_RELEASE_V1.0.2/MSDK/wpa_supplicant/src/utils\wpa_debug.c **** 
 626:C:/Users/stapi/OneDrive/Desktop/GD32VW553/V1_MQTT_OK/GD32VW55X_Wifi_BLE_SDK/GD32VW55x_RELEASE_V1.0.2/MSDK/wpa_supplicant/src/utils\wpa_debug.c **** #ifndef CONFIG_NO_WPA_MSG
 627:C:/Users/stapi/OneDrive/Desktop/GD32VW553/V1_MQTT_OK/GD32VW55X_Wifi_BLE_SDK/GD32VW55x_RELEASE_V1.0.2/MSDK/wpa_supplicant/src/utils\wpa_debug.c **** static wpa_msg_cb_func wpa_msg_cb = NULL;
 628:C:/Users/stapi/OneDrive/Desktop/GD32VW553/V1_MQTT_OK/GD32VW55X_Wifi_BLE_SDK/GD32VW55x_RELEASE_V1.0.2/MSDK/wpa_supplicant/src/utils\wpa_debug.c **** 
 629:C:/Users/stapi/OneDrive/Desktop/GD32VW553/V1_MQTT_OK/GD32VW55X_Wifi_BLE_SDK/GD32VW55x_RELEASE_V1.0.2/MSDK/wpa_supplicant/src/utils\wpa_debug.c **** void wpa_msg_register_cb(wpa_msg_cb_func func)
 630:C:/Users/stapi/OneDrive/Desktop/GD32VW553/V1_MQTT_OK/GD32VW55X_Wifi_BLE_SDK/GD32VW55x_RELEASE_V1.0.2/MSDK/wpa_supplicant/src/utils\wpa_debug.c **** {
 657              		.loc 1 630 1 is_stmt 1
 658              		.cfi_startproc
 659              	.LVL57:
 631:C:/Users/stapi/OneDrive/Desktop/GD32VW553/V1_MQTT_OK/GD32VW55X_Wifi_BLE_SDK/GD32VW55x_RELEASE_V1.0.2/MSDK/wpa_supplicant/src/utils\wpa_debug.c **** 	wpa_msg_cb = func;
 660              		.loc 1 631 2
 661              		.loc 1 631 13 is_stmt 0
 662 0000 B7070000 		lui	a5,%hi(.LANCHOR4)
 663 0004 23A0A700 		sw	a0,%lo(.LANCHOR4)(a5)
 632:C:/Users/stapi/OneDrive/Desktop/GD32VW553/V1_MQTT_OK/GD32VW55X_Wifi_BLE_SDK/GD32VW55x_RELEASE_V1.0.2/MSDK/wpa_supplicant/src/utils\wpa_debug.c **** }
 664              		.loc 1 632 1
 665 0008 8280     		ret
 666              		.cfi_endproc
 667              	.LFE83:
 669              		.section	.text.wpa_msg_register_ifname_cb,"ax",@progbits
 670              		.align	1
 671              		.globl	wpa_msg_register_ifname_cb
 673              	wpa_msg_register_ifname_cb:
 674              	.LFB84:
 633:C:/Users/stapi/OneDrive/Desktop/GD32VW553/V1_MQTT_OK/GD32VW55X_Wifi_BLE_SDK/GD32VW55x_RELEASE_V1.0.2/MSDK/wpa_supplicant/src/utils\wpa_debug.c **** 
 634:C:/Users/stapi/OneDrive/Desktop/GD32VW553/V1_MQTT_OK/GD32VW55X_Wifi_BLE_SDK/GD32VW55x_RELEASE_V1.0.2/MSDK/wpa_supplicant/src/utils\wpa_debug.c **** 
 635:C:/Users/stapi/OneDrive/Desktop/GD32VW553/V1_MQTT_OK/GD32VW55X_Wifi_BLE_SDK/GD32VW55x_RELEASE_V1.0.2/MSDK/wpa_supplicant/src/utils\wpa_debug.c **** static wpa_msg_get_ifname_func wpa_msg_ifname_cb = NULL;
 636:C:/Users/stapi/OneDrive/Desktop/GD32VW553/V1_MQTT_OK/GD32VW55X_Wifi_BLE_SDK/GD32VW55x_RELEASE_V1.0.2/MSDK/wpa_supplicant/src/utils\wpa_debug.c **** 
 637:C:/Users/stapi/OneDrive/Desktop/GD32VW553/V1_MQTT_OK/GD32VW55X_Wifi_BLE_SDK/GD32VW55x_RELEASE_V1.0.2/MSDK/wpa_supplicant/src/utils\wpa_debug.c **** void wpa_msg_register_ifname_cb(wpa_msg_get_ifname_func func)
 638:C:/Users/stapi/OneDrive/Desktop/GD32VW553/V1_MQTT_OK/GD32VW55X_Wifi_BLE_SDK/GD32VW55x_RELEASE_V1.0.2/MSDK/wpa_supplicant/src/utils\wpa_debug.c **** {
 675              		.loc 1 638 1 is_stmt 1
 676              		.cfi_startproc
 677              	.LVL58:
 639:C:/Users/stapi/OneDrive/Desktop/GD32VW553/V1_MQTT_OK/GD32VW55X_Wifi_BLE_SDK/GD32VW55x_RELEASE_V1.0.2/MSDK/wpa_supplicant/src/utils\wpa_debug.c **** 	wpa_msg_ifname_cb = func;
 678              		.loc 1 639 2
 679              		.loc 1 639 20 is_stmt 0
 680 0000 B7070000 		lui	a5,%hi(.LANCHOR5)
 681 0004 23A0A700 		sw	a0,%lo(.LANCHOR5)(a5)
 640:C:/Users/stapi/OneDrive/Desktop/GD32VW553/V1_MQTT_OK/GD32VW55X_Wifi_BLE_SDK/GD32VW55x_RELEASE_V1.0.2/MSDK/wpa_supplicant/src/utils\wpa_debug.c **** }
 682              		.loc 1 640 1
 683 0008 8280     		ret
 684              		.cfi_endproc
 685              	.LFE84:
 687              		.section	.rodata.wpa_msg.str1.4,"aMS",@progbits,1
 688              		.align	2
 689              	.LC10:
 690 0000 7770615F 		.string	"wpa_msg: Failed to allocate message buffer"
 690      6D73673A 
 690      20466169 
 690      6C656420 
 690      746F2061 
 691 002b 00       		.align	2
 692              	.LC11:
 693 002c 25733A20 		.string	"%s: "
 693      00
 694 0031 000000   		.align	2
 695              	.LC12:
 696 0034 25732573 		.string	"%s%s"
 696      00
 697              		.section	.text.wpa_msg,"ax",@progbits
 698              		.align	1
 699              		.globl	wpa_msg
 701              	wpa_msg:
 702              	.LFB85:
 641:C:/Users/stapi/OneDrive/Desktop/GD32VW553/V1_MQTT_OK/GD32VW55X_Wifi_BLE_SDK/GD32VW55x_RELEASE_V1.0.2/MSDK/wpa_supplicant/src/utils\wpa_debug.c **** 
 642:C:/Users/stapi/OneDrive/Desktop/GD32VW553/V1_MQTT_OK/GD32VW55X_Wifi_BLE_SDK/GD32VW55x_RELEASE_V1.0.2/MSDK/wpa_supplicant/src/utils\wpa_debug.c **** 
 643:C:/Users/stapi/OneDrive/Desktop/GD32VW553/V1_MQTT_OK/GD32VW55X_Wifi_BLE_SDK/GD32VW55x_RELEASE_V1.0.2/MSDK/wpa_supplicant/src/utils\wpa_debug.c **** void wpa_msg(void *ctx, int level, const char *fmt, ...)
 644:C:/Users/stapi/OneDrive/Desktop/GD32VW553/V1_MQTT_OK/GD32VW55X_Wifi_BLE_SDK/GD32VW55x_RELEASE_V1.0.2/MSDK/wpa_supplicant/src/utils\wpa_debug.c **** {
 703              		.loc 1 644 1 is_stmt 1
 704              		.cfi_startproc
 705              	.LVL59:
 645:C:/Users/stapi/OneDrive/Desktop/GD32VW553/V1_MQTT_OK/GD32VW55X_Wifi_BLE_SDK/GD32VW55x_RELEASE_V1.0.2/MSDK/wpa_supplicant/src/utils\wpa_debug.c **** 	va_list ap;
 706              		.loc 1 645 2
 646:C:/Users/stapi/OneDrive/Desktop/GD32VW553/V1_MQTT_OK/GD32VW55X_Wifi_BLE_SDK/GD32VW55x_RELEASE_V1.0.2/MSDK/wpa_supplicant/src/utils\wpa_debug.c **** 	char *buf;
 707              		.loc 1 646 2
 647:C:/Users/stapi/OneDrive/Desktop/GD32VW553/V1_MQTT_OK/GD32VW55X_Wifi_BLE_SDK/GD32VW55x_RELEASE_V1.0.2/MSDK/wpa_supplicant/src/utils\wpa_debug.c **** 	int buflen;
 708              		.loc 1 647 2
 648:C:/Users/stapi/OneDrive/Desktop/GD32VW553/V1_MQTT_OK/GD32VW55X_Wifi_BLE_SDK/GD32VW55x_RELEASE_V1.0.2/MSDK/wpa_supplicant/src/utils\wpa_debug.c **** 	int len;
 709              		.loc 1 648 2
 649:C:/Users/stapi/OneDrive/Desktop/GD32VW553/V1_MQTT_OK/GD32VW55X_Wifi_BLE_SDK/GD32VW55x_RELEASE_V1.0.2/MSDK/wpa_supplicant/src/utils\wpa_debug.c **** 	char prefix[130];
 710              		.loc 1 649 2
 650:C:/Users/stapi/OneDrive/Desktop/GD32VW553/V1_MQTT_OK/GD32VW55X_Wifi_BLE_SDK/GD32VW55x_RELEASE_V1.0.2/MSDK/wpa_supplicant/src/utils\wpa_debug.c **** 
 651:C:/Users/stapi/OneDrive/Desktop/GD32VW553/V1_MQTT_OK/GD32VW55X_Wifi_BLE_SDK/GD32VW55x_RELEASE_V1.0.2/MSDK/wpa_supplicant/src/utils\wpa_debug.c **** 	va_start(ap, fmt);
 711              		.loc 1 651 2
 644:C:/Users/stapi/OneDrive/Desktop/GD32VW553/V1_MQTT_OK/GD32VW55X_Wifi_BLE_SDK/GD32VW55x_RELEASE_V1.0.2/MSDK/wpa_supplicant/src/utils\wpa_debug.c **** 	va_list ap;
 712              		.loc 1 644 1 is_stmt 0
 713 0000 1571     		addi	sp,sp,-224
 714              		.cfi_def_cfa_offset 224
 715 0002 BECB     		sw	a5,212(sp)
 716              		.loc 1 651 2
 717 0004 FC01     		addi	a5,sp,204
 644:C:/Users/stapi/OneDrive/Desktop/GD32VW553/V1_MQTT_OK/GD32VW55X_Wifi_BLE_SDK/GD32VW55x_RELEASE_V1.0.2/MSDK/wpa_supplicant/src/utils\wpa_debug.c **** 	va_list ap;
 718              		.loc 1 644 1
 719 0006 4AD9     		sw	s2,176(sp)
 720 0008 4ED7     		sw	s3,172(sp)
 721 000a 52D5     		sw	s4,168(sp)
 722 000c B6C7     		sw	a3,204(sp)
 723 000e BAC9     		sw	a4,208(sp)
 652:C:/Users/stapi/OneDrive/Desktop/GD32VW553/V1_MQTT_OK/GD32VW55X_Wifi_BLE_SDK/GD32VW55x_RELEASE_V1.0.2/MSDK/wpa_supplicant/src/utils\wpa_debug.c **** 	buflen = vsnprintf(NULL, 0, fmt, ap) + 1;
 724              		.loc 1 652 11
 725 0010 B286     		mv	a3,a2
 726              		.cfi_offset 18, -48
 727              		.cfi_offset 19, -52
 728              		.cfi_offset 20, -56
 644:C:/Users/stapi/OneDrive/Desktop/GD32VW553/V1_MQTT_OK/GD32VW55X_Wifi_BLE_SDK/GD32VW55x_RELEASE_V1.0.2/MSDK/wpa_supplicant/src/utils\wpa_debug.c **** 	va_list ap;
 729              		.loc 1 644 1
 730 0012 2A89     		mv	s2,a0
 731 0014 AE89     		mv	s3,a1
 732 0016 328A     		mv	s4,a2
 733              		.loc 1 652 11
 734 0018 3E87     		mv	a4,a5
 735 001a 0146     		li	a2,0
 736              	.LVL60:
 737 001c 8145     		li	a1,0
 738              	.LVL61:
 739 001e 0145     		li	a0,0
 740              	.LVL62:
 644:C:/Users/stapi/OneDrive/Desktop/GD32VW553/V1_MQTT_OK/GD32VW55X_Wifi_BLE_SDK/GD32VW55x_RELEASE_V1.0.2/MSDK/wpa_supplicant/src/utils\wpa_debug.c **** 	va_list ap;
 741              		.loc 1 644 1
 742 0020 26DB     		sw	s1,180(sp)
 743 0022 06DF     		sw	ra,188(sp)
 744 0024 22DD     		sw	s0,184(sp)
 745              		.cfi_offset 9, -44
 746              		.cfi_offset 1, -36
 747              		.cfi_offset 8, -40
 644:C:/Users/stapi/OneDrive/Desktop/GD32VW553/V1_MQTT_OK/GD32VW55X_Wifi_BLE_SDK/GD32VW55x_RELEASE_V1.0.2/MSDK/wpa_supplicant/src/utils\wpa_debug.c **** 	va_list ap;
 748              		.loc 1 644 1
 749 0026 C2CD     		sw	a6,216(sp)
 750 0028 C6CF     		sw	a7,220(sp)
 651:C:/Users/stapi/OneDrive/Desktop/GD32VW553/V1_MQTT_OK/GD32VW55X_Wifi_BLE_SDK/GD32VW55x_RELEASE_V1.0.2/MSDK/wpa_supplicant/src/utils\wpa_debug.c **** 	buflen = vsnprintf(NULL, 0, fmt, ap) + 1;
 751              		.loc 1 651 2
 752 002a 3ECC     		sw	a5,24(sp)
 753              		.loc 1 652 2 is_stmt 1
 754              		.loc 1 652 11 is_stmt 0
 755 002c 97000000 		call	dbg_vsnprintf_offset
 755      E7800000 
 756              	.LVL63:
 757              		.loc 1 652 39
 758 0034 93041500 		addi	s1,a0,1
 759              	.LVL64:
 653:C:/Users/stapi/OneDrive/Desktop/GD32VW553/V1_MQTT_OK/GD32VW55X_Wifi_BLE_SDK/GD32VW55x_RELEASE_V1.0.2/MSDK/wpa_supplicant/src/utils\wpa_debug.c **** 	va_end(ap);
 760              		.loc 1 653 2 is_stmt 1
 654:C:/Users/stapi/OneDrive/Desktop/GD32VW553/V1_MQTT_OK/GD32VW55X_Wifi_BLE_SDK/GD32VW55x_RELEASE_V1.0.2/MSDK/wpa_supplicant/src/utils\wpa_debug.c **** 
 655:C:/Users/stapi/OneDrive/Desktop/GD32VW553/V1_MQTT_OK/GD32VW55X_Wifi_BLE_SDK/GD32VW55x_RELEASE_V1.0.2/MSDK/wpa_supplicant/src/utils\wpa_debug.c **** 	buf = os_malloc(buflen);
 761              		.loc 1 655 2
 762              		.loc 1 655 8 is_stmt 0
 763 0038 2685     		mv	a0,s1
 764 003a 97000000 		call	os_malloc
 764      E7800000 
 765              	.LVL65:
 656:C:/Users/stapi/OneDrive/Desktop/GD32VW553/V1_MQTT_OK/GD32VW55X_Wifi_BLE_SDK/GD32VW55x_RELEASE_V1.0.2/MSDK/wpa_supplicant/src/utils\wpa_debug.c **** 	if (buf == NULL) {
 766              		.loc 1 656 2 is_stmt 1
 767              		.loc 1 656 5 is_stmt 0
 768 0042 15E1     		bne	a0,zero,.L64
 657:C:/Users/stapi/OneDrive/Desktop/GD32VW553/V1_MQTT_OK/GD32VW55X_Wifi_BLE_SDK/GD32VW55x_RELEASE_V1.0.2/MSDK/wpa_supplicant/src/utils\wpa_debug.c **** 		wpa_printf(MSG_ERROR, "wpa_msg: Failed to allocate message "
 769              		.loc 1 657 3 is_stmt 1
 770 0044 B7050000 		lui	a1,%hi(.LC10)
 771 0048 93850500 		addi	a1,a1,%lo(.LC10)
 772 004c 1545     		li	a0,5
 773              	.LVL66:
 774 004e 97000000 		call	wpa_printf
 774      E7800000 
 775              	.LVL67:
 658:C:/Users/stapi/OneDrive/Desktop/GD32VW553/V1_MQTT_OK/GD32VW55X_Wifi_BLE_SDK/GD32VW55x_RELEASE_V1.0.2/MSDK/wpa_supplicant/src/utils\wpa_debug.c **** 			   "buffer");
 659:C:/Users/stapi/OneDrive/Desktop/GD32VW553/V1_MQTT_OK/GD32VW55X_Wifi_BLE_SDK/GD32VW55x_RELEASE_V1.0.2/MSDK/wpa_supplicant/src/utils\wpa_debug.c **** 		return;
 776              		.loc 1 659 3
 777              	.L63:
 660:C:/Users/stapi/OneDrive/Desktop/GD32VW553/V1_MQTT_OK/GD32VW55X_Wifi_BLE_SDK/GD32VW55x_RELEASE_V1.0.2/MSDK/wpa_supplicant/src/utils\wpa_debug.c **** 	}
 661:C:/Users/stapi/OneDrive/Desktop/GD32VW553/V1_MQTT_OK/GD32VW55X_Wifi_BLE_SDK/GD32VW55x_RELEASE_V1.0.2/MSDK/wpa_supplicant/src/utils\wpa_debug.c **** 	va_start(ap, fmt);
 662:C:/Users/stapi/OneDrive/Desktop/GD32VW553/V1_MQTT_OK/GD32VW55X_Wifi_BLE_SDK/GD32VW55x_RELEASE_V1.0.2/MSDK/wpa_supplicant/src/utils\wpa_debug.c **** 	prefix[0] = '\0';
 663:C:/Users/stapi/OneDrive/Desktop/GD32VW553/V1_MQTT_OK/GD32VW55X_Wifi_BLE_SDK/GD32VW55x_RELEASE_V1.0.2/MSDK/wpa_supplicant/src/utils\wpa_debug.c **** 	if (wpa_msg_ifname_cb) {
 664:C:/Users/stapi/OneDrive/Desktop/GD32VW553/V1_MQTT_OK/GD32VW55X_Wifi_BLE_SDK/GD32VW55x_RELEASE_V1.0.2/MSDK/wpa_supplicant/src/utils\wpa_debug.c **** 		const char *ifname = wpa_msg_ifname_cb(ctx);
 665:C:/Users/stapi/OneDrive/Desktop/GD32VW553/V1_MQTT_OK/GD32VW55X_Wifi_BLE_SDK/GD32VW55x_RELEASE_V1.0.2/MSDK/wpa_supplicant/src/utils\wpa_debug.c **** 		if (ifname) {
 666:C:/Users/stapi/OneDrive/Desktop/GD32VW553/V1_MQTT_OK/GD32VW55X_Wifi_BLE_SDK/GD32VW55x_RELEASE_V1.0.2/MSDK/wpa_supplicant/src/utils\wpa_debug.c **** 			int res = os_snprintf(prefix, sizeof(prefix), "%s: ",
 667:C:/Users/stapi/OneDrive/Desktop/GD32VW553/V1_MQTT_OK/GD32VW55X_Wifi_BLE_SDK/GD32VW55x_RELEASE_V1.0.2/MSDK/wpa_supplicant/src/utils\wpa_debug.c **** 					      ifname);
 668:C:/Users/stapi/OneDrive/Desktop/GD32VW553/V1_MQTT_OK/GD32VW55X_Wifi_BLE_SDK/GD32VW55x_RELEASE_V1.0.2/MSDK/wpa_supplicant/src/utils\wpa_debug.c **** 			if (os_snprintf_error(sizeof(prefix), res))
 669:C:/Users/stapi/OneDrive/Desktop/GD32VW553/V1_MQTT_OK/GD32VW55X_Wifi_BLE_SDK/GD32VW55x_RELEASE_V1.0.2/MSDK/wpa_supplicant/src/utils\wpa_debug.c **** 				prefix[0] = '\0';
 670:C:/Users/stapi/OneDrive/Desktop/GD32VW553/V1_MQTT_OK/GD32VW55X_Wifi_BLE_SDK/GD32VW55x_RELEASE_V1.0.2/MSDK/wpa_supplicant/src/utils\wpa_debug.c **** 		}
 671:C:/Users/stapi/OneDrive/Desktop/GD32VW553/V1_MQTT_OK/GD32VW55X_Wifi_BLE_SDK/GD32VW55x_RELEASE_V1.0.2/MSDK/wpa_supplicant/src/utils\wpa_debug.c **** 	}
 672:C:/Users/stapi/OneDrive/Desktop/GD32VW553/V1_MQTT_OK/GD32VW55X_Wifi_BLE_SDK/GD32VW55x_RELEASE_V1.0.2/MSDK/wpa_supplicant/src/utils\wpa_debug.c **** 	len = vsnprintf(buf, buflen, fmt, ap);
 673:C:/Users/stapi/OneDrive/Desktop/GD32VW553/V1_MQTT_OK/GD32VW55X_Wifi_BLE_SDK/GD32VW55x_RELEASE_V1.0.2/MSDK/wpa_supplicant/src/utils\wpa_debug.c **** 	va_end(ap);
 674:C:/Users/stapi/OneDrive/Desktop/GD32VW553/V1_MQTT_OK/GD32VW55X_Wifi_BLE_SDK/GD32VW55x_RELEASE_V1.0.2/MSDK/wpa_supplicant/src/utils\wpa_debug.c **** 	wpa_printf(level, "%s%s", prefix, buf);
 675:C:/Users/stapi/OneDrive/Desktop/GD32VW553/V1_MQTT_OK/GD32VW55X_Wifi_BLE_SDK/GD32VW55x_RELEASE_V1.0.2/MSDK/wpa_supplicant/src/utils\wpa_debug.c **** 	if (wpa_msg_cb)
 676:C:/Users/stapi/OneDrive/Desktop/GD32VW553/V1_MQTT_OK/GD32VW55X_Wifi_BLE_SDK/GD32VW55x_RELEASE_V1.0.2/MSDK/wpa_supplicant/src/utils\wpa_debug.c **** 		wpa_msg_cb(ctx, level, WPA_MSG_PER_INTERFACE, buf, len);
 677:C:/Users/stapi/OneDrive/Desktop/GD32VW553/V1_MQTT_OK/GD32VW55X_Wifi_BLE_SDK/GD32VW55x_RELEASE_V1.0.2/MSDK/wpa_supplicant/src/utils\wpa_debug.c **** 	bin_clear_free(buf, buflen);
 678:C:/Users/stapi/OneDrive/Desktop/GD32VW553/V1_MQTT_OK/GD32VW55X_Wifi_BLE_SDK/GD32VW55x_RELEASE_V1.0.2/MSDK/wpa_supplicant/src/utils\wpa_debug.c **** }
 778              		.loc 1 678 1 is_stmt 0
 779 0056 FA50     		lw	ra,188(sp)
 780              		.cfi_remember_state
 781              		.cfi_restore 1
 782 0058 6A54     		lw	s0,184(sp)
 783              		.cfi_restore 8
 784 005a DA54     		lw	s1,180(sp)
 785              		.cfi_restore 9
 786              	.LVL68:
 787 005c 4A59     		lw	s2,176(sp)
 788              		.cfi_restore 18
 789              	.LVL69:
 790 005e BA59     		lw	s3,172(sp)
 791              		.cfi_restore 19
 792              	.LVL70:
 793 0060 2A5A     		lw	s4,168(sp)
 794              		.cfi_restore 20
 795              	.LVL71:
 796 0062 2D61     		addi	sp,sp,224
 797              		.cfi_def_cfa_offset 0
 798 0064 8280     		jr	ra
 799              	.LVL72:
 800              	.L64:
 801              		.cfi_restore_state
 661:C:/Users/stapi/OneDrive/Desktop/GD32VW553/V1_MQTT_OK/GD32VW55X_Wifi_BLE_SDK/GD32VW55x_RELEASE_V1.0.2/MSDK/wpa_supplicant/src/utils\wpa_debug.c **** 	prefix[0] = '\0';
 802              		.loc 1 661 2
 803 0066 FC01     		addi	a5,sp,204
 804 0068 3ECC     		sw	a5,24(sp)
 663:C:/Users/stapi/OneDrive/Desktop/GD32VW553/V1_MQTT_OK/GD32VW55X_Wifi_BLE_SDK/GD32VW55x_RELEASE_V1.0.2/MSDK/wpa_supplicant/src/utils\wpa_debug.c **** 		const char *ifname = wpa_msg_ifname_cb(ctx);
 805              		.loc 1 663 6
 806 006a B7070000 		lui	a5,%hi(.LANCHOR5)
 807 006e 83A70700 		lw	a5,%lo(.LANCHOR5)(a5)
 662:C:/Users/stapi/OneDrive/Desktop/GD32VW553/V1_MQTT_OK/GD32VW55X_Wifi_BLE_SDK/GD32VW55x_RELEASE_V1.0.2/MSDK/wpa_supplicant/src/utils\wpa_debug.c **** 	if (wpa_msg_ifname_cb) {
 808              		.loc 1 662 12
 809 0072 230E0100 		sb	zero,28(sp)
 810 0076 2A84     		mv	s0,a0
 661:C:/Users/stapi/OneDrive/Desktop/GD32VW553/V1_MQTT_OK/GD32VW55X_Wifi_BLE_SDK/GD32VW55x_RELEASE_V1.0.2/MSDK/wpa_supplicant/src/utils\wpa_debug.c **** 	prefix[0] = '\0';
 811              		.loc 1 661 2 is_stmt 1
 662:C:/Users/stapi/OneDrive/Desktop/GD32VW553/V1_MQTT_OK/GD32VW55X_Wifi_BLE_SDK/GD32VW55x_RELEASE_V1.0.2/MSDK/wpa_supplicant/src/utils\wpa_debug.c **** 	if (wpa_msg_ifname_cb) {
 812              		.loc 1 662 2
 663:C:/Users/stapi/OneDrive/Desktop/GD32VW553/V1_MQTT_OK/GD32VW55X_Wifi_BLE_SDK/GD32VW55x_RELEASE_V1.0.2/MSDK/wpa_supplicant/src/utils\wpa_debug.c **** 		const char *ifname = wpa_msg_ifname_cb(ctx);
 813              		.loc 1 663 2
 663:C:/Users/stapi/OneDrive/Desktop/GD32VW553/V1_MQTT_OK/GD32VW55X_Wifi_BLE_SDK/GD32VW55x_RELEASE_V1.0.2/MSDK/wpa_supplicant/src/utils\wpa_debug.c **** 		const char *ifname = wpa_msg_ifname_cb(ctx);
 814              		.loc 1 663 5 is_stmt 0
 815 0078 95C7     		beq	a5,zero,.L67
 816              	.LVL73:
 817              	.LBB24:
 664:C:/Users/stapi/OneDrive/Desktop/GD32VW553/V1_MQTT_OK/GD32VW55X_Wifi_BLE_SDK/GD32VW55x_RELEASE_V1.0.2/MSDK/wpa_supplicant/src/utils\wpa_debug.c **** 		if (ifname) {
 818              		.loc 1 664 3 is_stmt 1
 664:C:/Users/stapi/OneDrive/Desktop/GD32VW553/V1_MQTT_OK/GD32VW55X_Wifi_BLE_SDK/GD32VW55x_RELEASE_V1.0.2/MSDK/wpa_supplicant/src/utils\wpa_debug.c **** 		if (ifname) {
 819              		.loc 1 664 24 is_stmt 0
 820 007a 4A85     		mv	a0,s2
 821 007c 8297     		jalr	a5
 822              	.LVL74:
 823 007e AA86     		mv	a3,a0
 824              	.LVL75:
 665:C:/Users/stapi/OneDrive/Desktop/GD32VW553/V1_MQTT_OK/GD32VW55X_Wifi_BLE_SDK/GD32VW55x_RELEASE_V1.0.2/MSDK/wpa_supplicant/src/utils\wpa_debug.c **** 			int res = os_snprintf(prefix, sizeof(prefix), "%s: ",
 825              		.loc 1 665 3 is_stmt 1
 665:C:/Users/stapi/OneDrive/Desktop/GD32VW553/V1_MQTT_OK/GD32VW55X_Wifi_BLE_SDK/GD32VW55x_RELEASE_V1.0.2/MSDK/wpa_supplicant/src/utils\wpa_debug.c **** 			int res = os_snprintf(prefix, sizeof(prefix), "%s: ",
 826              		.loc 1 665 6 is_stmt 0
 827 0080 15C1     		beq	a0,zero,.L67
 828              	.LBB25:
 666:C:/Users/stapi/OneDrive/Desktop/GD32VW553/V1_MQTT_OK/GD32VW55X_Wifi_BLE_SDK/GD32VW55x_RELEASE_V1.0.2/MSDK/wpa_supplicant/src/utils\wpa_debug.c **** 					      ifname);
 829              		.loc 1 666 4 is_stmt 1
 666:C:/Users/stapi/OneDrive/Desktop/GD32VW553/V1_MQTT_OK/GD32VW55X_Wifi_BLE_SDK/GD32VW55x_RELEASE_V1.0.2/MSDK/wpa_supplicant/src/utils\wpa_debug.c **** 					      ifname);
 830              		.loc 1 666 14 is_stmt 0
 831 0082 37060000 		lui	a2,%hi(.LC11)
 832 0086 13060600 		addi	a2,a2,%lo(.LC11)
 833 008a 93052008 		li	a1,130
 834 008e 6808     		addi	a0,sp,28
 835              	.LVL76:
 836 0090 97000000 		call	os_snprintf
 836      E7800000 
 837              	.LVL77:
 668:C:/Users/stapi/OneDrive/Desktop/GD32VW553/V1_MQTT_OK/GD32VW55X_Wifi_BLE_SDK/GD32VW55x_RELEASE_V1.0.2/MSDK/wpa_supplicant/src/utils\wpa_debug.c **** 				prefix[0] = '\0';
 838              		.loc 1 668 4 is_stmt 1
 839              	.LBB26:
 840              	.LBB27:
 841              		.file 2 "C:/Users/stapi/OneDrive/Desktop/GD32VW553/V1_MQTT_OK/GD32VW55X_Wifi_BLE_SDK/GD32VW55x_REL
   1:C:/Users/stapi/OneDrive/Desktop/GD32VW553/V1_MQTT_OK/GD32VW55X_Wifi_BLE_SDK/GD32VW55x_RELEASE_V1.0.2/MSDK/wpa_supplicant/src/utils\os.h **** /*
   2:C:/Users/stapi/OneDrive/Desktop/GD32VW553/V1_MQTT_OK/GD32VW55X_Wifi_BLE_SDK/GD32VW55x_RELEASE_V1.0.2/MSDK/wpa_supplicant/src/utils\os.h ****  * OS specific functions
   3:C:/Users/stapi/OneDrive/Desktop/GD32VW553/V1_MQTT_OK/GD32VW55X_Wifi_BLE_SDK/GD32VW55x_RELEASE_V1.0.2/MSDK/wpa_supplicant/src/utils\os.h ****  * Copyright (c) 2005-2009, Jouni Malinen <j@w1.fi>
   4:C:/Users/stapi/OneDrive/Desktop/GD32VW553/V1_MQTT_OK/GD32VW55X_Wifi_BLE_SDK/GD32VW55x_RELEASE_V1.0.2/MSDK/wpa_supplicant/src/utils\os.h ****  *
   5:C:/Users/stapi/OneDrive/Desktop/GD32VW553/V1_MQTT_OK/GD32VW55X_Wifi_BLE_SDK/GD32VW55x_RELEASE_V1.0.2/MSDK/wpa_supplicant/src/utils\os.h ****  * This software may be distributed under the terms of the BSD license.
   6:C:/Users/stapi/OneDrive/Desktop/GD32VW553/V1_MQTT_OK/GD32VW55X_Wifi_BLE_SDK/GD32VW55x_RELEASE_V1.0.2/MSDK/wpa_supplicant/src/utils\os.h ****  * See README for more details.
   7:C:/Users/stapi/OneDrive/Desktop/GD32VW553/V1_MQTT_OK/GD32VW55X_Wifi_BLE_SDK/GD32VW55x_RELEASE_V1.0.2/MSDK/wpa_supplicant/src/utils\os.h ****  */
   8:C:/Users/stapi/OneDrive/Desktop/GD32VW553/V1_MQTT_OK/GD32VW55X_Wifi_BLE_SDK/GD32VW55x_RELEASE_V1.0.2/MSDK/wpa_supplicant/src/utils\os.h **** 
   9:C:/Users/stapi/OneDrive/Desktop/GD32VW553/V1_MQTT_OK/GD32VW55X_Wifi_BLE_SDK/GD32VW55x_RELEASE_V1.0.2/MSDK/wpa_supplicant/src/utils\os.h **** #ifndef OS_H
  10:C:/Users/stapi/OneDrive/Desktop/GD32VW553/V1_MQTT_OK/GD32VW55X_Wifi_BLE_SDK/GD32VW55x_RELEASE_V1.0.2/MSDK/wpa_supplicant/src/utils\os.h **** #define OS_H
  11:C:/Users/stapi/OneDrive/Desktop/GD32VW553/V1_MQTT_OK/GD32VW55X_Wifi_BLE_SDK/GD32VW55x_RELEASE_V1.0.2/MSDK/wpa_supplicant/src/utils\os.h **** 
  12:C:/Users/stapi/OneDrive/Desktop/GD32VW553/V1_MQTT_OK/GD32VW55X_Wifi_BLE_SDK/GD32VW55x_RELEASE_V1.0.2/MSDK/wpa_supplicant/src/utils\os.h **** typedef long os_time_t;
  13:C:/Users/stapi/OneDrive/Desktop/GD32VW553/V1_MQTT_OK/GD32VW55X_Wifi_BLE_SDK/GD32VW55x_RELEASE_V1.0.2/MSDK/wpa_supplicant/src/utils\os.h **** 
  14:C:/Users/stapi/OneDrive/Desktop/GD32VW553/V1_MQTT_OK/GD32VW55X_Wifi_BLE_SDK/GD32VW55x_RELEASE_V1.0.2/MSDK/wpa_supplicant/src/utils\os.h **** /**
  15:C:/Users/stapi/OneDrive/Desktop/GD32VW553/V1_MQTT_OK/GD32VW55X_Wifi_BLE_SDK/GD32VW55x_RELEASE_V1.0.2/MSDK/wpa_supplicant/src/utils\os.h ****  * os_sleep - Sleep (sec, usec)
  16:C:/Users/stapi/OneDrive/Desktop/GD32VW553/V1_MQTT_OK/GD32VW55X_Wifi_BLE_SDK/GD32VW55x_RELEASE_V1.0.2/MSDK/wpa_supplicant/src/utils\os.h ****  * @sec: Number of seconds to sleep
  17:C:/Users/stapi/OneDrive/Desktop/GD32VW553/V1_MQTT_OK/GD32VW55X_Wifi_BLE_SDK/GD32VW55x_RELEASE_V1.0.2/MSDK/wpa_supplicant/src/utils\os.h ****  * @usec: Number of microseconds to sleep
  18:C:/Users/stapi/OneDrive/Desktop/GD32VW553/V1_MQTT_OK/GD32VW55X_Wifi_BLE_SDK/GD32VW55x_RELEASE_V1.0.2/MSDK/wpa_supplicant/src/utils\os.h ****  */
  19:C:/Users/stapi/OneDrive/Desktop/GD32VW553/V1_MQTT_OK/GD32VW55X_Wifi_BLE_SDK/GD32VW55x_RELEASE_V1.0.2/MSDK/wpa_supplicant/src/utils\os.h **** void os_sleep(os_time_t sec, os_time_t usec);
  20:C:/Users/stapi/OneDrive/Desktop/GD32VW553/V1_MQTT_OK/GD32VW55X_Wifi_BLE_SDK/GD32VW55x_RELEASE_V1.0.2/MSDK/wpa_supplicant/src/utils\os.h **** 
  21:C:/Users/stapi/OneDrive/Desktop/GD32VW553/V1_MQTT_OK/GD32VW55X_Wifi_BLE_SDK/GD32VW55x_RELEASE_V1.0.2/MSDK/wpa_supplicant/src/utils\os.h **** struct os_time {
  22:C:/Users/stapi/OneDrive/Desktop/GD32VW553/V1_MQTT_OK/GD32VW55X_Wifi_BLE_SDK/GD32VW55x_RELEASE_V1.0.2/MSDK/wpa_supplicant/src/utils\os.h **** 	os_time_t sec;
  23:C:/Users/stapi/OneDrive/Desktop/GD32VW553/V1_MQTT_OK/GD32VW55X_Wifi_BLE_SDK/GD32VW55x_RELEASE_V1.0.2/MSDK/wpa_supplicant/src/utils\os.h **** 	os_time_t usec;
  24:C:/Users/stapi/OneDrive/Desktop/GD32VW553/V1_MQTT_OK/GD32VW55X_Wifi_BLE_SDK/GD32VW55x_RELEASE_V1.0.2/MSDK/wpa_supplicant/src/utils\os.h **** };
  25:C:/Users/stapi/OneDrive/Desktop/GD32VW553/V1_MQTT_OK/GD32VW55X_Wifi_BLE_SDK/GD32VW55x_RELEASE_V1.0.2/MSDK/wpa_supplicant/src/utils\os.h **** 
  26:C:/Users/stapi/OneDrive/Desktop/GD32VW553/V1_MQTT_OK/GD32VW55X_Wifi_BLE_SDK/GD32VW55x_RELEASE_V1.0.2/MSDK/wpa_supplicant/src/utils\os.h **** struct os_reltime {
  27:C:/Users/stapi/OneDrive/Desktop/GD32VW553/V1_MQTT_OK/GD32VW55X_Wifi_BLE_SDK/GD32VW55x_RELEASE_V1.0.2/MSDK/wpa_supplicant/src/utils\os.h **** 	os_time_t sec;
  28:C:/Users/stapi/OneDrive/Desktop/GD32VW553/V1_MQTT_OK/GD32VW55X_Wifi_BLE_SDK/GD32VW55x_RELEASE_V1.0.2/MSDK/wpa_supplicant/src/utils\os.h **** 	os_time_t usec;
  29:C:/Users/stapi/OneDrive/Desktop/GD32VW553/V1_MQTT_OK/GD32VW55X_Wifi_BLE_SDK/GD32VW55x_RELEASE_V1.0.2/MSDK/wpa_supplicant/src/utils\os.h **** };
  30:C:/Users/stapi/OneDrive/Desktop/GD32VW553/V1_MQTT_OK/GD32VW55X_Wifi_BLE_SDK/GD32VW55x_RELEASE_V1.0.2/MSDK/wpa_supplicant/src/utils\os.h **** 
  31:C:/Users/stapi/OneDrive/Desktop/GD32VW553/V1_MQTT_OK/GD32VW55X_Wifi_BLE_SDK/GD32VW55x_RELEASE_V1.0.2/MSDK/wpa_supplicant/src/utils\os.h **** /**
  32:C:/Users/stapi/OneDrive/Desktop/GD32VW553/V1_MQTT_OK/GD32VW55X_Wifi_BLE_SDK/GD32VW55x_RELEASE_V1.0.2/MSDK/wpa_supplicant/src/utils\os.h ****  * os_get_time - Get current time (sec, usec)
  33:C:/Users/stapi/OneDrive/Desktop/GD32VW553/V1_MQTT_OK/GD32VW55X_Wifi_BLE_SDK/GD32VW55x_RELEASE_V1.0.2/MSDK/wpa_supplicant/src/utils\os.h ****  * @t: Pointer to buffer for the time
  34:C:/Users/stapi/OneDrive/Desktop/GD32VW553/V1_MQTT_OK/GD32VW55X_Wifi_BLE_SDK/GD32VW55x_RELEASE_V1.0.2/MSDK/wpa_supplicant/src/utils\os.h ****  * Returns: 0 on success, -1 on failure
  35:C:/Users/stapi/OneDrive/Desktop/GD32VW553/V1_MQTT_OK/GD32VW55X_Wifi_BLE_SDK/GD32VW55x_RELEASE_V1.0.2/MSDK/wpa_supplicant/src/utils\os.h ****  */
  36:C:/Users/stapi/OneDrive/Desktop/GD32VW553/V1_MQTT_OK/GD32VW55X_Wifi_BLE_SDK/GD32VW55x_RELEASE_V1.0.2/MSDK/wpa_supplicant/src/utils\os.h **** int os_get_time(struct os_time *t);
  37:C:/Users/stapi/OneDrive/Desktop/GD32VW553/V1_MQTT_OK/GD32VW55X_Wifi_BLE_SDK/GD32VW55x_RELEASE_V1.0.2/MSDK/wpa_supplicant/src/utils\os.h **** 
  38:C:/Users/stapi/OneDrive/Desktop/GD32VW553/V1_MQTT_OK/GD32VW55X_Wifi_BLE_SDK/GD32VW55x_RELEASE_V1.0.2/MSDK/wpa_supplicant/src/utils\os.h **** /**
  39:C:/Users/stapi/OneDrive/Desktop/GD32VW553/V1_MQTT_OK/GD32VW55X_Wifi_BLE_SDK/GD32VW55x_RELEASE_V1.0.2/MSDK/wpa_supplicant/src/utils\os.h ****  * os_get_reltime - Get relative time (sec, usec)
  40:C:/Users/stapi/OneDrive/Desktop/GD32VW553/V1_MQTT_OK/GD32VW55X_Wifi_BLE_SDK/GD32VW55x_RELEASE_V1.0.2/MSDK/wpa_supplicant/src/utils\os.h ****  * @t: Pointer to buffer for the time
  41:C:/Users/stapi/OneDrive/Desktop/GD32VW553/V1_MQTT_OK/GD32VW55X_Wifi_BLE_SDK/GD32VW55x_RELEASE_V1.0.2/MSDK/wpa_supplicant/src/utils\os.h ****  * Returns: 0 on success, -1 on failure
  42:C:/Users/stapi/OneDrive/Desktop/GD32VW553/V1_MQTT_OK/GD32VW55X_Wifi_BLE_SDK/GD32VW55x_RELEASE_V1.0.2/MSDK/wpa_supplicant/src/utils\os.h ****  */
  43:C:/Users/stapi/OneDrive/Desktop/GD32VW553/V1_MQTT_OK/GD32VW55X_Wifi_BLE_SDK/GD32VW55x_RELEASE_V1.0.2/MSDK/wpa_supplicant/src/utils\os.h **** int os_get_reltime(struct os_reltime *t);
  44:C:/Users/stapi/OneDrive/Desktop/GD32VW553/V1_MQTT_OK/GD32VW55X_Wifi_BLE_SDK/GD32VW55x_RELEASE_V1.0.2/MSDK/wpa_supplicant/src/utils\os.h **** 
  45:C:/Users/stapi/OneDrive/Desktop/GD32VW553/V1_MQTT_OK/GD32VW55X_Wifi_BLE_SDK/GD32VW55x_RELEASE_V1.0.2/MSDK/wpa_supplicant/src/utils\os.h **** 
  46:C:/Users/stapi/OneDrive/Desktop/GD32VW553/V1_MQTT_OK/GD32VW55X_Wifi_BLE_SDK/GD32VW55x_RELEASE_V1.0.2/MSDK/wpa_supplicant/src/utils\os.h **** /* Helpers for handling struct os_time */
  47:C:/Users/stapi/OneDrive/Desktop/GD32VW553/V1_MQTT_OK/GD32VW55X_Wifi_BLE_SDK/GD32VW55x_RELEASE_V1.0.2/MSDK/wpa_supplicant/src/utils\os.h **** 
  48:C:/Users/stapi/OneDrive/Desktop/GD32VW553/V1_MQTT_OK/GD32VW55X_Wifi_BLE_SDK/GD32VW55x_RELEASE_V1.0.2/MSDK/wpa_supplicant/src/utils\os.h **** static inline int os_time_before(struct os_time *a, struct os_time *b)
  49:C:/Users/stapi/OneDrive/Desktop/GD32VW553/V1_MQTT_OK/GD32VW55X_Wifi_BLE_SDK/GD32VW55x_RELEASE_V1.0.2/MSDK/wpa_supplicant/src/utils\os.h **** {
  50:C:/Users/stapi/OneDrive/Desktop/GD32VW553/V1_MQTT_OK/GD32VW55X_Wifi_BLE_SDK/GD32VW55x_RELEASE_V1.0.2/MSDK/wpa_supplicant/src/utils\os.h **** 	return (a->sec < b->sec) ||
  51:C:/Users/stapi/OneDrive/Desktop/GD32VW553/V1_MQTT_OK/GD32VW55X_Wifi_BLE_SDK/GD32VW55x_RELEASE_V1.0.2/MSDK/wpa_supplicant/src/utils\os.h **** 	       (a->sec == b->sec && a->usec < b->usec);
  52:C:/Users/stapi/OneDrive/Desktop/GD32VW553/V1_MQTT_OK/GD32VW55X_Wifi_BLE_SDK/GD32VW55x_RELEASE_V1.0.2/MSDK/wpa_supplicant/src/utils\os.h **** }
  53:C:/Users/stapi/OneDrive/Desktop/GD32VW553/V1_MQTT_OK/GD32VW55X_Wifi_BLE_SDK/GD32VW55x_RELEASE_V1.0.2/MSDK/wpa_supplicant/src/utils\os.h **** 
  54:C:/Users/stapi/OneDrive/Desktop/GD32VW553/V1_MQTT_OK/GD32VW55X_Wifi_BLE_SDK/GD32VW55x_RELEASE_V1.0.2/MSDK/wpa_supplicant/src/utils\os.h **** 
  55:C:/Users/stapi/OneDrive/Desktop/GD32VW553/V1_MQTT_OK/GD32VW55X_Wifi_BLE_SDK/GD32VW55x_RELEASE_V1.0.2/MSDK/wpa_supplicant/src/utils\os.h **** static inline void os_time_sub(struct os_time *a, struct os_time *b,
  56:C:/Users/stapi/OneDrive/Desktop/GD32VW553/V1_MQTT_OK/GD32VW55X_Wifi_BLE_SDK/GD32VW55x_RELEASE_V1.0.2/MSDK/wpa_supplicant/src/utils\os.h **** 			       struct os_time *res)
  57:C:/Users/stapi/OneDrive/Desktop/GD32VW553/V1_MQTT_OK/GD32VW55X_Wifi_BLE_SDK/GD32VW55x_RELEASE_V1.0.2/MSDK/wpa_supplicant/src/utils\os.h **** {
  58:C:/Users/stapi/OneDrive/Desktop/GD32VW553/V1_MQTT_OK/GD32VW55X_Wifi_BLE_SDK/GD32VW55x_RELEASE_V1.0.2/MSDK/wpa_supplicant/src/utils\os.h **** 	res->sec = a->sec - b->sec;
  59:C:/Users/stapi/OneDrive/Desktop/GD32VW553/V1_MQTT_OK/GD32VW55X_Wifi_BLE_SDK/GD32VW55x_RELEASE_V1.0.2/MSDK/wpa_supplicant/src/utils\os.h **** 	res->usec = a->usec - b->usec;
  60:C:/Users/stapi/OneDrive/Desktop/GD32VW553/V1_MQTT_OK/GD32VW55X_Wifi_BLE_SDK/GD32VW55x_RELEASE_V1.0.2/MSDK/wpa_supplicant/src/utils\os.h **** 	if (res->usec < 0) {
  61:C:/Users/stapi/OneDrive/Desktop/GD32VW553/V1_MQTT_OK/GD32VW55X_Wifi_BLE_SDK/GD32VW55x_RELEASE_V1.0.2/MSDK/wpa_supplicant/src/utils\os.h **** 		res->sec--;
  62:C:/Users/stapi/OneDrive/Desktop/GD32VW553/V1_MQTT_OK/GD32VW55X_Wifi_BLE_SDK/GD32VW55x_RELEASE_V1.0.2/MSDK/wpa_supplicant/src/utils\os.h **** 		res->usec += 1000000;
  63:C:/Users/stapi/OneDrive/Desktop/GD32VW553/V1_MQTT_OK/GD32VW55X_Wifi_BLE_SDK/GD32VW55x_RELEASE_V1.0.2/MSDK/wpa_supplicant/src/utils\os.h **** 	}
  64:C:/Users/stapi/OneDrive/Desktop/GD32VW553/V1_MQTT_OK/GD32VW55X_Wifi_BLE_SDK/GD32VW55x_RELEASE_V1.0.2/MSDK/wpa_supplicant/src/utils\os.h **** }
  65:C:/Users/stapi/OneDrive/Desktop/GD32VW553/V1_MQTT_OK/GD32VW55X_Wifi_BLE_SDK/GD32VW55x_RELEASE_V1.0.2/MSDK/wpa_supplicant/src/utils\os.h **** 
  66:C:/Users/stapi/OneDrive/Desktop/GD32VW553/V1_MQTT_OK/GD32VW55X_Wifi_BLE_SDK/GD32VW55x_RELEASE_V1.0.2/MSDK/wpa_supplicant/src/utils\os.h **** 
  67:C:/Users/stapi/OneDrive/Desktop/GD32VW553/V1_MQTT_OK/GD32VW55X_Wifi_BLE_SDK/GD32VW55x_RELEASE_V1.0.2/MSDK/wpa_supplicant/src/utils\os.h **** /* Helpers for handling struct os_reltime */
  68:C:/Users/stapi/OneDrive/Desktop/GD32VW553/V1_MQTT_OK/GD32VW55X_Wifi_BLE_SDK/GD32VW55x_RELEASE_V1.0.2/MSDK/wpa_supplicant/src/utils\os.h **** 
  69:C:/Users/stapi/OneDrive/Desktop/GD32VW553/V1_MQTT_OK/GD32VW55X_Wifi_BLE_SDK/GD32VW55x_RELEASE_V1.0.2/MSDK/wpa_supplicant/src/utils\os.h **** static inline int os_reltime_before(struct os_reltime *a,
  70:C:/Users/stapi/OneDrive/Desktop/GD32VW553/V1_MQTT_OK/GD32VW55X_Wifi_BLE_SDK/GD32VW55x_RELEASE_V1.0.2/MSDK/wpa_supplicant/src/utils\os.h **** 				    struct os_reltime *b)
  71:C:/Users/stapi/OneDrive/Desktop/GD32VW553/V1_MQTT_OK/GD32VW55X_Wifi_BLE_SDK/GD32VW55x_RELEASE_V1.0.2/MSDK/wpa_supplicant/src/utils\os.h **** {
  72:C:/Users/stapi/OneDrive/Desktop/GD32VW553/V1_MQTT_OK/GD32VW55X_Wifi_BLE_SDK/GD32VW55x_RELEASE_V1.0.2/MSDK/wpa_supplicant/src/utils\os.h **** 	return (a->sec < b->sec) ||
  73:C:/Users/stapi/OneDrive/Desktop/GD32VW553/V1_MQTT_OK/GD32VW55X_Wifi_BLE_SDK/GD32VW55x_RELEASE_V1.0.2/MSDK/wpa_supplicant/src/utils\os.h **** 	       (a->sec == b->sec && a->usec < b->usec);
  74:C:/Users/stapi/OneDrive/Desktop/GD32VW553/V1_MQTT_OK/GD32VW55X_Wifi_BLE_SDK/GD32VW55x_RELEASE_V1.0.2/MSDK/wpa_supplicant/src/utils\os.h **** }
  75:C:/Users/stapi/OneDrive/Desktop/GD32VW553/V1_MQTT_OK/GD32VW55X_Wifi_BLE_SDK/GD32VW55x_RELEASE_V1.0.2/MSDK/wpa_supplicant/src/utils\os.h **** 
  76:C:/Users/stapi/OneDrive/Desktop/GD32VW553/V1_MQTT_OK/GD32VW55X_Wifi_BLE_SDK/GD32VW55x_RELEASE_V1.0.2/MSDK/wpa_supplicant/src/utils\os.h **** 
  77:C:/Users/stapi/OneDrive/Desktop/GD32VW553/V1_MQTT_OK/GD32VW55X_Wifi_BLE_SDK/GD32VW55x_RELEASE_V1.0.2/MSDK/wpa_supplicant/src/utils\os.h **** static inline void os_reltime_sub(struct os_reltime *a, struct os_reltime *b,
  78:C:/Users/stapi/OneDrive/Desktop/GD32VW553/V1_MQTT_OK/GD32VW55X_Wifi_BLE_SDK/GD32VW55x_RELEASE_V1.0.2/MSDK/wpa_supplicant/src/utils\os.h **** 				  struct os_reltime *res)
  79:C:/Users/stapi/OneDrive/Desktop/GD32VW553/V1_MQTT_OK/GD32VW55X_Wifi_BLE_SDK/GD32VW55x_RELEASE_V1.0.2/MSDK/wpa_supplicant/src/utils\os.h **** {
  80:C:/Users/stapi/OneDrive/Desktop/GD32VW553/V1_MQTT_OK/GD32VW55X_Wifi_BLE_SDK/GD32VW55x_RELEASE_V1.0.2/MSDK/wpa_supplicant/src/utils\os.h **** 	res->sec = a->sec - b->sec;
  81:C:/Users/stapi/OneDrive/Desktop/GD32VW553/V1_MQTT_OK/GD32VW55X_Wifi_BLE_SDK/GD32VW55x_RELEASE_V1.0.2/MSDK/wpa_supplicant/src/utils\os.h **** 	res->usec = a->usec - b->usec;
  82:C:/Users/stapi/OneDrive/Desktop/GD32VW553/V1_MQTT_OK/GD32VW55X_Wifi_BLE_SDK/GD32VW55x_RELEASE_V1.0.2/MSDK/wpa_supplicant/src/utils\os.h **** 	if (res->usec < 0) {
  83:C:/Users/stapi/OneDrive/Desktop/GD32VW553/V1_MQTT_OK/GD32VW55X_Wifi_BLE_SDK/GD32VW55x_RELEASE_V1.0.2/MSDK/wpa_supplicant/src/utils\os.h **** 		res->sec--;
  84:C:/Users/stapi/OneDrive/Desktop/GD32VW553/V1_MQTT_OK/GD32VW55X_Wifi_BLE_SDK/GD32VW55x_RELEASE_V1.0.2/MSDK/wpa_supplicant/src/utils\os.h **** 		res->usec += 1000000;
  85:C:/Users/stapi/OneDrive/Desktop/GD32VW553/V1_MQTT_OK/GD32VW55X_Wifi_BLE_SDK/GD32VW55x_RELEASE_V1.0.2/MSDK/wpa_supplicant/src/utils\os.h **** 	}
  86:C:/Users/stapi/OneDrive/Desktop/GD32VW553/V1_MQTT_OK/GD32VW55X_Wifi_BLE_SDK/GD32VW55x_RELEASE_V1.0.2/MSDK/wpa_supplicant/src/utils\os.h **** }
  87:C:/Users/stapi/OneDrive/Desktop/GD32VW553/V1_MQTT_OK/GD32VW55X_Wifi_BLE_SDK/GD32VW55x_RELEASE_V1.0.2/MSDK/wpa_supplicant/src/utils\os.h **** 
  88:C:/Users/stapi/OneDrive/Desktop/GD32VW553/V1_MQTT_OK/GD32VW55X_Wifi_BLE_SDK/GD32VW55x_RELEASE_V1.0.2/MSDK/wpa_supplicant/src/utils\os.h **** 
  89:C:/Users/stapi/OneDrive/Desktop/GD32VW553/V1_MQTT_OK/GD32VW55X_Wifi_BLE_SDK/GD32VW55x_RELEASE_V1.0.2/MSDK/wpa_supplicant/src/utils\os.h **** static inline void os_reltime_age(struct os_reltime *start,
  90:C:/Users/stapi/OneDrive/Desktop/GD32VW553/V1_MQTT_OK/GD32VW55X_Wifi_BLE_SDK/GD32VW55x_RELEASE_V1.0.2/MSDK/wpa_supplicant/src/utils\os.h **** 				  struct os_reltime *age)
  91:C:/Users/stapi/OneDrive/Desktop/GD32VW553/V1_MQTT_OK/GD32VW55X_Wifi_BLE_SDK/GD32VW55x_RELEASE_V1.0.2/MSDK/wpa_supplicant/src/utils\os.h **** {
  92:C:/Users/stapi/OneDrive/Desktop/GD32VW553/V1_MQTT_OK/GD32VW55X_Wifi_BLE_SDK/GD32VW55x_RELEASE_V1.0.2/MSDK/wpa_supplicant/src/utils\os.h **** 	struct os_reltime now;
  93:C:/Users/stapi/OneDrive/Desktop/GD32VW553/V1_MQTT_OK/GD32VW55X_Wifi_BLE_SDK/GD32VW55x_RELEASE_V1.0.2/MSDK/wpa_supplicant/src/utils\os.h **** 
  94:C:/Users/stapi/OneDrive/Desktop/GD32VW553/V1_MQTT_OK/GD32VW55X_Wifi_BLE_SDK/GD32VW55x_RELEASE_V1.0.2/MSDK/wpa_supplicant/src/utils\os.h **** 	os_get_reltime(&now);
  95:C:/Users/stapi/OneDrive/Desktop/GD32VW553/V1_MQTT_OK/GD32VW55X_Wifi_BLE_SDK/GD32VW55x_RELEASE_V1.0.2/MSDK/wpa_supplicant/src/utils\os.h **** 	os_reltime_sub(&now, start, age);
  96:C:/Users/stapi/OneDrive/Desktop/GD32VW553/V1_MQTT_OK/GD32VW55X_Wifi_BLE_SDK/GD32VW55x_RELEASE_V1.0.2/MSDK/wpa_supplicant/src/utils\os.h **** }
  97:C:/Users/stapi/OneDrive/Desktop/GD32VW553/V1_MQTT_OK/GD32VW55X_Wifi_BLE_SDK/GD32VW55x_RELEASE_V1.0.2/MSDK/wpa_supplicant/src/utils\os.h **** 
  98:C:/Users/stapi/OneDrive/Desktop/GD32VW553/V1_MQTT_OK/GD32VW55X_Wifi_BLE_SDK/GD32VW55x_RELEASE_V1.0.2/MSDK/wpa_supplicant/src/utils\os.h **** 
  99:C:/Users/stapi/OneDrive/Desktop/GD32VW553/V1_MQTT_OK/GD32VW55X_Wifi_BLE_SDK/GD32VW55x_RELEASE_V1.0.2/MSDK/wpa_supplicant/src/utils\os.h **** static inline int os_reltime_expired(struct os_reltime *now,
 100:C:/Users/stapi/OneDrive/Desktop/GD32VW553/V1_MQTT_OK/GD32VW55X_Wifi_BLE_SDK/GD32VW55x_RELEASE_V1.0.2/MSDK/wpa_supplicant/src/utils\os.h **** 				     struct os_reltime *ts,
 101:C:/Users/stapi/OneDrive/Desktop/GD32VW553/V1_MQTT_OK/GD32VW55X_Wifi_BLE_SDK/GD32VW55x_RELEASE_V1.0.2/MSDK/wpa_supplicant/src/utils\os.h **** 				     os_time_t timeout_secs)
 102:C:/Users/stapi/OneDrive/Desktop/GD32VW553/V1_MQTT_OK/GD32VW55X_Wifi_BLE_SDK/GD32VW55x_RELEASE_V1.0.2/MSDK/wpa_supplicant/src/utils\os.h **** {
 103:C:/Users/stapi/OneDrive/Desktop/GD32VW553/V1_MQTT_OK/GD32VW55X_Wifi_BLE_SDK/GD32VW55x_RELEASE_V1.0.2/MSDK/wpa_supplicant/src/utils\os.h **** 	struct os_reltime age;
 104:C:/Users/stapi/OneDrive/Desktop/GD32VW553/V1_MQTT_OK/GD32VW55X_Wifi_BLE_SDK/GD32VW55x_RELEASE_V1.0.2/MSDK/wpa_supplicant/src/utils\os.h **** 
 105:C:/Users/stapi/OneDrive/Desktop/GD32VW553/V1_MQTT_OK/GD32VW55X_Wifi_BLE_SDK/GD32VW55x_RELEASE_V1.0.2/MSDK/wpa_supplicant/src/utils\os.h **** 	os_reltime_sub(now, ts, &age);
 106:C:/Users/stapi/OneDrive/Desktop/GD32VW553/V1_MQTT_OK/GD32VW55X_Wifi_BLE_SDK/GD32VW55x_RELEASE_V1.0.2/MSDK/wpa_supplicant/src/utils\os.h **** 	return (age.sec > timeout_secs) ||
 107:C:/Users/stapi/OneDrive/Desktop/GD32VW553/V1_MQTT_OK/GD32VW55X_Wifi_BLE_SDK/GD32VW55x_RELEASE_V1.0.2/MSDK/wpa_supplicant/src/utils\os.h **** 	       (age.sec == timeout_secs && age.usec > 0);
 108:C:/Users/stapi/OneDrive/Desktop/GD32VW553/V1_MQTT_OK/GD32VW55X_Wifi_BLE_SDK/GD32VW55x_RELEASE_V1.0.2/MSDK/wpa_supplicant/src/utils\os.h **** }
 109:C:/Users/stapi/OneDrive/Desktop/GD32VW553/V1_MQTT_OK/GD32VW55X_Wifi_BLE_SDK/GD32VW55x_RELEASE_V1.0.2/MSDK/wpa_supplicant/src/utils\os.h **** 
 110:C:/Users/stapi/OneDrive/Desktop/GD32VW553/V1_MQTT_OK/GD32VW55X_Wifi_BLE_SDK/GD32VW55x_RELEASE_V1.0.2/MSDK/wpa_supplicant/src/utils\os.h **** 
 111:C:/Users/stapi/OneDrive/Desktop/GD32VW553/V1_MQTT_OK/GD32VW55X_Wifi_BLE_SDK/GD32VW55x_RELEASE_V1.0.2/MSDK/wpa_supplicant/src/utils\os.h **** static inline int os_reltime_initialized(struct os_reltime *t)
 112:C:/Users/stapi/OneDrive/Desktop/GD32VW553/V1_MQTT_OK/GD32VW55X_Wifi_BLE_SDK/GD32VW55x_RELEASE_V1.0.2/MSDK/wpa_supplicant/src/utils\os.h **** {
 113:C:/Users/stapi/OneDrive/Desktop/GD32VW553/V1_MQTT_OK/GD32VW55X_Wifi_BLE_SDK/GD32VW55x_RELEASE_V1.0.2/MSDK/wpa_supplicant/src/utils\os.h **** 	return t->sec != 0 || t->usec != 0;
 114:C:/Users/stapi/OneDrive/Desktop/GD32VW553/V1_MQTT_OK/GD32VW55X_Wifi_BLE_SDK/GD32VW55x_RELEASE_V1.0.2/MSDK/wpa_supplicant/src/utils\os.h **** }
 115:C:/Users/stapi/OneDrive/Desktop/GD32VW553/V1_MQTT_OK/GD32VW55X_Wifi_BLE_SDK/GD32VW55x_RELEASE_V1.0.2/MSDK/wpa_supplicant/src/utils\os.h **** 
 116:C:/Users/stapi/OneDrive/Desktop/GD32VW553/V1_MQTT_OK/GD32VW55X_Wifi_BLE_SDK/GD32VW55x_RELEASE_V1.0.2/MSDK/wpa_supplicant/src/utils\os.h **** 
 117:C:/Users/stapi/OneDrive/Desktop/GD32VW553/V1_MQTT_OK/GD32VW55X_Wifi_BLE_SDK/GD32VW55x_RELEASE_V1.0.2/MSDK/wpa_supplicant/src/utils\os.h **** /**
 118:C:/Users/stapi/OneDrive/Desktop/GD32VW553/V1_MQTT_OK/GD32VW55X_Wifi_BLE_SDK/GD32VW55x_RELEASE_V1.0.2/MSDK/wpa_supplicant/src/utils\os.h ****  * os_mktime - Convert broken-down time into seconds since 1970-01-01
 119:C:/Users/stapi/OneDrive/Desktop/GD32VW553/V1_MQTT_OK/GD32VW55X_Wifi_BLE_SDK/GD32VW55x_RELEASE_V1.0.2/MSDK/wpa_supplicant/src/utils\os.h ****  * @year: Four digit year
 120:C:/Users/stapi/OneDrive/Desktop/GD32VW553/V1_MQTT_OK/GD32VW55X_Wifi_BLE_SDK/GD32VW55x_RELEASE_V1.0.2/MSDK/wpa_supplicant/src/utils\os.h ****  * @month: Month (1 .. 12)
 121:C:/Users/stapi/OneDrive/Desktop/GD32VW553/V1_MQTT_OK/GD32VW55X_Wifi_BLE_SDK/GD32VW55x_RELEASE_V1.0.2/MSDK/wpa_supplicant/src/utils\os.h ****  * @day: Day of month (1 .. 31)
 122:C:/Users/stapi/OneDrive/Desktop/GD32VW553/V1_MQTT_OK/GD32VW55X_Wifi_BLE_SDK/GD32VW55x_RELEASE_V1.0.2/MSDK/wpa_supplicant/src/utils\os.h ****  * @hour: Hour (0 .. 23)
 123:C:/Users/stapi/OneDrive/Desktop/GD32VW553/V1_MQTT_OK/GD32VW55X_Wifi_BLE_SDK/GD32VW55x_RELEASE_V1.0.2/MSDK/wpa_supplicant/src/utils\os.h ****  * @min: Minute (0 .. 59)
 124:C:/Users/stapi/OneDrive/Desktop/GD32VW553/V1_MQTT_OK/GD32VW55X_Wifi_BLE_SDK/GD32VW55x_RELEASE_V1.0.2/MSDK/wpa_supplicant/src/utils\os.h ****  * @sec: Second (0 .. 60)
 125:C:/Users/stapi/OneDrive/Desktop/GD32VW553/V1_MQTT_OK/GD32VW55X_Wifi_BLE_SDK/GD32VW55x_RELEASE_V1.0.2/MSDK/wpa_supplicant/src/utils\os.h ****  * @t: Buffer for returning calendar time representation (seconds since
 126:C:/Users/stapi/OneDrive/Desktop/GD32VW553/V1_MQTT_OK/GD32VW55X_Wifi_BLE_SDK/GD32VW55x_RELEASE_V1.0.2/MSDK/wpa_supplicant/src/utils\os.h ****  * 1970-01-01 00:00:00)
 127:C:/Users/stapi/OneDrive/Desktop/GD32VW553/V1_MQTT_OK/GD32VW55X_Wifi_BLE_SDK/GD32VW55x_RELEASE_V1.0.2/MSDK/wpa_supplicant/src/utils\os.h ****  * Returns: 0 on success, -1 on failure
 128:C:/Users/stapi/OneDrive/Desktop/GD32VW553/V1_MQTT_OK/GD32VW55X_Wifi_BLE_SDK/GD32VW55x_RELEASE_V1.0.2/MSDK/wpa_supplicant/src/utils\os.h ****  *
 129:C:/Users/stapi/OneDrive/Desktop/GD32VW553/V1_MQTT_OK/GD32VW55X_Wifi_BLE_SDK/GD32VW55x_RELEASE_V1.0.2/MSDK/wpa_supplicant/src/utils\os.h ****  * Note: The result is in seconds from Epoch, i.e., in UTC, not in local time
 130:C:/Users/stapi/OneDrive/Desktop/GD32VW553/V1_MQTT_OK/GD32VW55X_Wifi_BLE_SDK/GD32VW55x_RELEASE_V1.0.2/MSDK/wpa_supplicant/src/utils\os.h ****  * which is used by POSIX mktime().
 131:C:/Users/stapi/OneDrive/Desktop/GD32VW553/V1_MQTT_OK/GD32VW55X_Wifi_BLE_SDK/GD32VW55x_RELEASE_V1.0.2/MSDK/wpa_supplicant/src/utils\os.h ****  */
 132:C:/Users/stapi/OneDrive/Desktop/GD32VW553/V1_MQTT_OK/GD32VW55X_Wifi_BLE_SDK/GD32VW55x_RELEASE_V1.0.2/MSDK/wpa_supplicant/src/utils\os.h **** int os_mktime(int year, int month, int day, int hour, int min, int sec,
 133:C:/Users/stapi/OneDrive/Desktop/GD32VW553/V1_MQTT_OK/GD32VW55X_Wifi_BLE_SDK/GD32VW55x_RELEASE_V1.0.2/MSDK/wpa_supplicant/src/utils\os.h **** 	      os_time_t *t);
 134:C:/Users/stapi/OneDrive/Desktop/GD32VW553/V1_MQTT_OK/GD32VW55X_Wifi_BLE_SDK/GD32VW55x_RELEASE_V1.0.2/MSDK/wpa_supplicant/src/utils\os.h **** 
 135:C:/Users/stapi/OneDrive/Desktop/GD32VW553/V1_MQTT_OK/GD32VW55X_Wifi_BLE_SDK/GD32VW55x_RELEASE_V1.0.2/MSDK/wpa_supplicant/src/utils\os.h **** struct os_tm {
 136:C:/Users/stapi/OneDrive/Desktop/GD32VW553/V1_MQTT_OK/GD32VW55X_Wifi_BLE_SDK/GD32VW55x_RELEASE_V1.0.2/MSDK/wpa_supplicant/src/utils\os.h **** 	int sec; /* 0..59 or 60 for leap seconds */
 137:C:/Users/stapi/OneDrive/Desktop/GD32VW553/V1_MQTT_OK/GD32VW55X_Wifi_BLE_SDK/GD32VW55x_RELEASE_V1.0.2/MSDK/wpa_supplicant/src/utils\os.h **** 	int min; /* 0..59 */
 138:C:/Users/stapi/OneDrive/Desktop/GD32VW553/V1_MQTT_OK/GD32VW55X_Wifi_BLE_SDK/GD32VW55x_RELEASE_V1.0.2/MSDK/wpa_supplicant/src/utils\os.h **** 	int hour; /* 0..23 */
 139:C:/Users/stapi/OneDrive/Desktop/GD32VW553/V1_MQTT_OK/GD32VW55X_Wifi_BLE_SDK/GD32VW55x_RELEASE_V1.0.2/MSDK/wpa_supplicant/src/utils\os.h **** 	int day; /* 1..31 */
 140:C:/Users/stapi/OneDrive/Desktop/GD32VW553/V1_MQTT_OK/GD32VW55X_Wifi_BLE_SDK/GD32VW55x_RELEASE_V1.0.2/MSDK/wpa_supplicant/src/utils\os.h **** 	int month; /* 1..12 */
 141:C:/Users/stapi/OneDrive/Desktop/GD32VW553/V1_MQTT_OK/GD32VW55X_Wifi_BLE_SDK/GD32VW55x_RELEASE_V1.0.2/MSDK/wpa_supplicant/src/utils\os.h **** 	int year; /* Four digit year */
 142:C:/Users/stapi/OneDrive/Desktop/GD32VW553/V1_MQTT_OK/GD32VW55X_Wifi_BLE_SDK/GD32VW55x_RELEASE_V1.0.2/MSDK/wpa_supplicant/src/utils\os.h **** };
 143:C:/Users/stapi/OneDrive/Desktop/GD32VW553/V1_MQTT_OK/GD32VW55X_Wifi_BLE_SDK/GD32VW55x_RELEASE_V1.0.2/MSDK/wpa_supplicant/src/utils\os.h **** 
 144:C:/Users/stapi/OneDrive/Desktop/GD32VW553/V1_MQTT_OK/GD32VW55X_Wifi_BLE_SDK/GD32VW55x_RELEASE_V1.0.2/MSDK/wpa_supplicant/src/utils\os.h **** int os_gmtime(os_time_t t, struct os_tm *tm);
 145:C:/Users/stapi/OneDrive/Desktop/GD32VW553/V1_MQTT_OK/GD32VW55X_Wifi_BLE_SDK/GD32VW55x_RELEASE_V1.0.2/MSDK/wpa_supplicant/src/utils\os.h **** 
 146:C:/Users/stapi/OneDrive/Desktop/GD32VW553/V1_MQTT_OK/GD32VW55X_Wifi_BLE_SDK/GD32VW55x_RELEASE_V1.0.2/MSDK/wpa_supplicant/src/utils\os.h **** /**
 147:C:/Users/stapi/OneDrive/Desktop/GD32VW553/V1_MQTT_OK/GD32VW55X_Wifi_BLE_SDK/GD32VW55x_RELEASE_V1.0.2/MSDK/wpa_supplicant/src/utils\os.h ****  * os_daemonize - Run in the background (detach from the controlling terminal)
 148:C:/Users/stapi/OneDrive/Desktop/GD32VW553/V1_MQTT_OK/GD32VW55X_Wifi_BLE_SDK/GD32VW55x_RELEASE_V1.0.2/MSDK/wpa_supplicant/src/utils\os.h ****  * @pid_file: File name to write the process ID to or %NULL to skip this
 149:C:/Users/stapi/OneDrive/Desktop/GD32VW553/V1_MQTT_OK/GD32VW55X_Wifi_BLE_SDK/GD32VW55x_RELEASE_V1.0.2/MSDK/wpa_supplicant/src/utils\os.h ****  * Returns: 0 on success, -1 on failure
 150:C:/Users/stapi/OneDrive/Desktop/GD32VW553/V1_MQTT_OK/GD32VW55X_Wifi_BLE_SDK/GD32VW55x_RELEASE_V1.0.2/MSDK/wpa_supplicant/src/utils\os.h ****  */
 151:C:/Users/stapi/OneDrive/Desktop/GD32VW553/V1_MQTT_OK/GD32VW55X_Wifi_BLE_SDK/GD32VW55x_RELEASE_V1.0.2/MSDK/wpa_supplicant/src/utils\os.h **** int os_daemonize(const char *pid_file);
 152:C:/Users/stapi/OneDrive/Desktop/GD32VW553/V1_MQTT_OK/GD32VW55X_Wifi_BLE_SDK/GD32VW55x_RELEASE_V1.0.2/MSDK/wpa_supplicant/src/utils\os.h **** 
 153:C:/Users/stapi/OneDrive/Desktop/GD32VW553/V1_MQTT_OK/GD32VW55X_Wifi_BLE_SDK/GD32VW55x_RELEASE_V1.0.2/MSDK/wpa_supplicant/src/utils\os.h **** /**
 154:C:/Users/stapi/OneDrive/Desktop/GD32VW553/V1_MQTT_OK/GD32VW55X_Wifi_BLE_SDK/GD32VW55x_RELEASE_V1.0.2/MSDK/wpa_supplicant/src/utils\os.h ****  * os_daemonize_terminate - Stop running in the background (remove pid file)
 155:C:/Users/stapi/OneDrive/Desktop/GD32VW553/V1_MQTT_OK/GD32VW55X_Wifi_BLE_SDK/GD32VW55x_RELEASE_V1.0.2/MSDK/wpa_supplicant/src/utils\os.h ****  * @pid_file: File name to write the process ID to or %NULL to skip this
 156:C:/Users/stapi/OneDrive/Desktop/GD32VW553/V1_MQTT_OK/GD32VW55X_Wifi_BLE_SDK/GD32VW55x_RELEASE_V1.0.2/MSDK/wpa_supplicant/src/utils\os.h ****  */
 157:C:/Users/stapi/OneDrive/Desktop/GD32VW553/V1_MQTT_OK/GD32VW55X_Wifi_BLE_SDK/GD32VW55x_RELEASE_V1.0.2/MSDK/wpa_supplicant/src/utils\os.h **** void os_daemonize_terminate(const char *pid_file);
 158:C:/Users/stapi/OneDrive/Desktop/GD32VW553/V1_MQTT_OK/GD32VW55X_Wifi_BLE_SDK/GD32VW55x_RELEASE_V1.0.2/MSDK/wpa_supplicant/src/utils\os.h **** 
 159:C:/Users/stapi/OneDrive/Desktop/GD32VW553/V1_MQTT_OK/GD32VW55X_Wifi_BLE_SDK/GD32VW55x_RELEASE_V1.0.2/MSDK/wpa_supplicant/src/utils\os.h **** /**
 160:C:/Users/stapi/OneDrive/Desktop/GD32VW553/V1_MQTT_OK/GD32VW55X_Wifi_BLE_SDK/GD32VW55x_RELEASE_V1.0.2/MSDK/wpa_supplicant/src/utils\os.h ****  * os_get_random - Get cryptographically strong pseudo random data
 161:C:/Users/stapi/OneDrive/Desktop/GD32VW553/V1_MQTT_OK/GD32VW55X_Wifi_BLE_SDK/GD32VW55x_RELEASE_V1.0.2/MSDK/wpa_supplicant/src/utils\os.h ****  * @buf: Buffer for pseudo random data
 162:C:/Users/stapi/OneDrive/Desktop/GD32VW553/V1_MQTT_OK/GD32VW55X_Wifi_BLE_SDK/GD32VW55x_RELEASE_V1.0.2/MSDK/wpa_supplicant/src/utils\os.h ****  * @len: Length of the buffer
 163:C:/Users/stapi/OneDrive/Desktop/GD32VW553/V1_MQTT_OK/GD32VW55X_Wifi_BLE_SDK/GD32VW55x_RELEASE_V1.0.2/MSDK/wpa_supplicant/src/utils\os.h ****  * Returns: 0 on success, -1 on failure
 164:C:/Users/stapi/OneDrive/Desktop/GD32VW553/V1_MQTT_OK/GD32VW55X_Wifi_BLE_SDK/GD32VW55x_RELEASE_V1.0.2/MSDK/wpa_supplicant/src/utils\os.h ****  */
 165:C:/Users/stapi/OneDrive/Desktop/GD32VW553/V1_MQTT_OK/GD32VW55X_Wifi_BLE_SDK/GD32VW55x_RELEASE_V1.0.2/MSDK/wpa_supplicant/src/utils\os.h **** int os_get_random(unsigned char *buf, size_t len);
 166:C:/Users/stapi/OneDrive/Desktop/GD32VW553/V1_MQTT_OK/GD32VW55X_Wifi_BLE_SDK/GD32VW55x_RELEASE_V1.0.2/MSDK/wpa_supplicant/src/utils\os.h **** 
 167:C:/Users/stapi/OneDrive/Desktop/GD32VW553/V1_MQTT_OK/GD32VW55X_Wifi_BLE_SDK/GD32VW55x_RELEASE_V1.0.2/MSDK/wpa_supplicant/src/utils\os.h **** /**
 168:C:/Users/stapi/OneDrive/Desktop/GD32VW553/V1_MQTT_OK/GD32VW55X_Wifi_BLE_SDK/GD32VW55x_RELEASE_V1.0.2/MSDK/wpa_supplicant/src/utils\os.h ****  * os_random - Get pseudo random value (not necessarily very strong)
 169:C:/Users/stapi/OneDrive/Desktop/GD32VW553/V1_MQTT_OK/GD32VW55X_Wifi_BLE_SDK/GD32VW55x_RELEASE_V1.0.2/MSDK/wpa_supplicant/src/utils\os.h ****  * Returns: Pseudo random value
 170:C:/Users/stapi/OneDrive/Desktop/GD32VW553/V1_MQTT_OK/GD32VW55X_Wifi_BLE_SDK/GD32VW55x_RELEASE_V1.0.2/MSDK/wpa_supplicant/src/utils\os.h ****  */
 171:C:/Users/stapi/OneDrive/Desktop/GD32VW553/V1_MQTT_OK/GD32VW55X_Wifi_BLE_SDK/GD32VW55x_RELEASE_V1.0.2/MSDK/wpa_supplicant/src/utils\os.h **** unsigned long os_random(void);
 172:C:/Users/stapi/OneDrive/Desktop/GD32VW553/V1_MQTT_OK/GD32VW55X_Wifi_BLE_SDK/GD32VW55x_RELEASE_V1.0.2/MSDK/wpa_supplicant/src/utils\os.h **** 
 173:C:/Users/stapi/OneDrive/Desktop/GD32VW553/V1_MQTT_OK/GD32VW55X_Wifi_BLE_SDK/GD32VW55x_RELEASE_V1.0.2/MSDK/wpa_supplicant/src/utils\os.h **** /**
 174:C:/Users/stapi/OneDrive/Desktop/GD32VW553/V1_MQTT_OK/GD32VW55X_Wifi_BLE_SDK/GD32VW55x_RELEASE_V1.0.2/MSDK/wpa_supplicant/src/utils\os.h ****  * os_rel2abs_path - Get an absolute path for a file
 175:C:/Users/stapi/OneDrive/Desktop/GD32VW553/V1_MQTT_OK/GD32VW55X_Wifi_BLE_SDK/GD32VW55x_RELEASE_V1.0.2/MSDK/wpa_supplicant/src/utils\os.h ****  * @rel_path: Relative path to a file
 176:C:/Users/stapi/OneDrive/Desktop/GD32VW553/V1_MQTT_OK/GD32VW55X_Wifi_BLE_SDK/GD32VW55x_RELEASE_V1.0.2/MSDK/wpa_supplicant/src/utils\os.h ****  * Returns: Absolute path for the file or %NULL on failure
 177:C:/Users/stapi/OneDrive/Desktop/GD32VW553/V1_MQTT_OK/GD32VW55X_Wifi_BLE_SDK/GD32VW55x_RELEASE_V1.0.2/MSDK/wpa_supplicant/src/utils\os.h ****  *
 178:C:/Users/stapi/OneDrive/Desktop/GD32VW553/V1_MQTT_OK/GD32VW55X_Wifi_BLE_SDK/GD32VW55x_RELEASE_V1.0.2/MSDK/wpa_supplicant/src/utils\os.h ****  * This function tries to convert a relative path of a file to an absolute path
 179:C:/Users/stapi/OneDrive/Desktop/GD32VW553/V1_MQTT_OK/GD32VW55X_Wifi_BLE_SDK/GD32VW55x_RELEASE_V1.0.2/MSDK/wpa_supplicant/src/utils\os.h ****  * in order for the file to be found even if current working directory has
 180:C:/Users/stapi/OneDrive/Desktop/GD32VW553/V1_MQTT_OK/GD32VW55X_Wifi_BLE_SDK/GD32VW55x_RELEASE_V1.0.2/MSDK/wpa_supplicant/src/utils\os.h ****  * changed. The returned value is allocated and caller is responsible for
 181:C:/Users/stapi/OneDrive/Desktop/GD32VW553/V1_MQTT_OK/GD32VW55X_Wifi_BLE_SDK/GD32VW55x_RELEASE_V1.0.2/MSDK/wpa_supplicant/src/utils\os.h ****  * freeing it. It is acceptable to just return the same path in an allocated
 182:C:/Users/stapi/OneDrive/Desktop/GD32VW553/V1_MQTT_OK/GD32VW55X_Wifi_BLE_SDK/GD32VW55x_RELEASE_V1.0.2/MSDK/wpa_supplicant/src/utils\os.h ****  * buffer, e.g., return strdup(rel_path). This function is only used to find
 183:C:/Users/stapi/OneDrive/Desktop/GD32VW553/V1_MQTT_OK/GD32VW55X_Wifi_BLE_SDK/GD32VW55x_RELEASE_V1.0.2/MSDK/wpa_supplicant/src/utils\os.h ****  * configuration files when os_daemonize() may have changed the current working
 184:C:/Users/stapi/OneDrive/Desktop/GD32VW553/V1_MQTT_OK/GD32VW55X_Wifi_BLE_SDK/GD32VW55x_RELEASE_V1.0.2/MSDK/wpa_supplicant/src/utils\os.h ****  * directory and relative path would be pointing to a different location.
 185:C:/Users/stapi/OneDrive/Desktop/GD32VW553/V1_MQTT_OK/GD32VW55X_Wifi_BLE_SDK/GD32VW55x_RELEASE_V1.0.2/MSDK/wpa_supplicant/src/utils\os.h ****  */
 186:C:/Users/stapi/OneDrive/Desktop/GD32VW553/V1_MQTT_OK/GD32VW55X_Wifi_BLE_SDK/GD32VW55x_RELEASE_V1.0.2/MSDK/wpa_supplicant/src/utils\os.h **** char * os_rel2abs_path(const char *rel_path);
 187:C:/Users/stapi/OneDrive/Desktop/GD32VW553/V1_MQTT_OK/GD32VW55X_Wifi_BLE_SDK/GD32VW55x_RELEASE_V1.0.2/MSDK/wpa_supplicant/src/utils\os.h **** 
 188:C:/Users/stapi/OneDrive/Desktop/GD32VW553/V1_MQTT_OK/GD32VW55X_Wifi_BLE_SDK/GD32VW55x_RELEASE_V1.0.2/MSDK/wpa_supplicant/src/utils\os.h **** /**
 189:C:/Users/stapi/OneDrive/Desktop/GD32VW553/V1_MQTT_OK/GD32VW55X_Wifi_BLE_SDK/GD32VW55x_RELEASE_V1.0.2/MSDK/wpa_supplicant/src/utils\os.h ****  * os_program_init - Program initialization (called at start)
 190:C:/Users/stapi/OneDrive/Desktop/GD32VW553/V1_MQTT_OK/GD32VW55X_Wifi_BLE_SDK/GD32VW55x_RELEASE_V1.0.2/MSDK/wpa_supplicant/src/utils\os.h ****  * Returns: 0 on success, -1 on failure
 191:C:/Users/stapi/OneDrive/Desktop/GD32VW553/V1_MQTT_OK/GD32VW55X_Wifi_BLE_SDK/GD32VW55x_RELEASE_V1.0.2/MSDK/wpa_supplicant/src/utils\os.h ****  *
 192:C:/Users/stapi/OneDrive/Desktop/GD32VW553/V1_MQTT_OK/GD32VW55X_Wifi_BLE_SDK/GD32VW55x_RELEASE_V1.0.2/MSDK/wpa_supplicant/src/utils\os.h ****  * This function is called when a programs starts. If there are any OS specific
 193:C:/Users/stapi/OneDrive/Desktop/GD32VW553/V1_MQTT_OK/GD32VW55X_Wifi_BLE_SDK/GD32VW55x_RELEASE_V1.0.2/MSDK/wpa_supplicant/src/utils\os.h ****  * processing that is needed, it can be placed here. It is also acceptable to
 194:C:/Users/stapi/OneDrive/Desktop/GD32VW553/V1_MQTT_OK/GD32VW55X_Wifi_BLE_SDK/GD32VW55x_RELEASE_V1.0.2/MSDK/wpa_supplicant/src/utils\os.h ****  * just return 0 if not special processing is needed.
 195:C:/Users/stapi/OneDrive/Desktop/GD32VW553/V1_MQTT_OK/GD32VW55X_Wifi_BLE_SDK/GD32VW55x_RELEASE_V1.0.2/MSDK/wpa_supplicant/src/utils\os.h ****  */
 196:C:/Users/stapi/OneDrive/Desktop/GD32VW553/V1_MQTT_OK/GD32VW55X_Wifi_BLE_SDK/GD32VW55x_RELEASE_V1.0.2/MSDK/wpa_supplicant/src/utils\os.h **** int os_program_init(void);
 197:C:/Users/stapi/OneDrive/Desktop/GD32VW553/V1_MQTT_OK/GD32VW55X_Wifi_BLE_SDK/GD32VW55x_RELEASE_V1.0.2/MSDK/wpa_supplicant/src/utils\os.h **** 
 198:C:/Users/stapi/OneDrive/Desktop/GD32VW553/V1_MQTT_OK/GD32VW55X_Wifi_BLE_SDK/GD32VW55x_RELEASE_V1.0.2/MSDK/wpa_supplicant/src/utils\os.h **** /**
 199:C:/Users/stapi/OneDrive/Desktop/GD32VW553/V1_MQTT_OK/GD32VW55X_Wifi_BLE_SDK/GD32VW55x_RELEASE_V1.0.2/MSDK/wpa_supplicant/src/utils\os.h ****  * os_program_deinit - Program deinitialization (called just before exit)
 200:C:/Users/stapi/OneDrive/Desktop/GD32VW553/V1_MQTT_OK/GD32VW55X_Wifi_BLE_SDK/GD32VW55x_RELEASE_V1.0.2/MSDK/wpa_supplicant/src/utils\os.h ****  *
 201:C:/Users/stapi/OneDrive/Desktop/GD32VW553/V1_MQTT_OK/GD32VW55X_Wifi_BLE_SDK/GD32VW55x_RELEASE_V1.0.2/MSDK/wpa_supplicant/src/utils\os.h ****  * This function is called just before a program exists. If there are any OS
 202:C:/Users/stapi/OneDrive/Desktop/GD32VW553/V1_MQTT_OK/GD32VW55X_Wifi_BLE_SDK/GD32VW55x_RELEASE_V1.0.2/MSDK/wpa_supplicant/src/utils\os.h ****  * specific processing, e.g., freeing resourced allocated in os_program_init(),
 203:C:/Users/stapi/OneDrive/Desktop/GD32VW553/V1_MQTT_OK/GD32VW55X_Wifi_BLE_SDK/GD32VW55x_RELEASE_V1.0.2/MSDK/wpa_supplicant/src/utils\os.h ****  * it should be done here. It is also acceptable for this function to do
 204:C:/Users/stapi/OneDrive/Desktop/GD32VW553/V1_MQTT_OK/GD32VW55X_Wifi_BLE_SDK/GD32VW55x_RELEASE_V1.0.2/MSDK/wpa_supplicant/src/utils\os.h ****  * nothing.
 205:C:/Users/stapi/OneDrive/Desktop/GD32VW553/V1_MQTT_OK/GD32VW55X_Wifi_BLE_SDK/GD32VW55x_RELEASE_V1.0.2/MSDK/wpa_supplicant/src/utils\os.h ****  */
 206:C:/Users/stapi/OneDrive/Desktop/GD32VW553/V1_MQTT_OK/GD32VW55X_Wifi_BLE_SDK/GD32VW55x_RELEASE_V1.0.2/MSDK/wpa_supplicant/src/utils\os.h **** void os_program_deinit(void);
 207:C:/Users/stapi/OneDrive/Desktop/GD32VW553/V1_MQTT_OK/GD32VW55X_Wifi_BLE_SDK/GD32VW55x_RELEASE_V1.0.2/MSDK/wpa_supplicant/src/utils\os.h **** 
 208:C:/Users/stapi/OneDrive/Desktop/GD32VW553/V1_MQTT_OK/GD32VW55X_Wifi_BLE_SDK/GD32VW55x_RELEASE_V1.0.2/MSDK/wpa_supplicant/src/utils\os.h **** /**
 209:C:/Users/stapi/OneDrive/Desktop/GD32VW553/V1_MQTT_OK/GD32VW55X_Wifi_BLE_SDK/GD32VW55x_RELEASE_V1.0.2/MSDK/wpa_supplicant/src/utils\os.h ****  * os_setenv - Set environment variable
 210:C:/Users/stapi/OneDrive/Desktop/GD32VW553/V1_MQTT_OK/GD32VW55X_Wifi_BLE_SDK/GD32VW55x_RELEASE_V1.0.2/MSDK/wpa_supplicant/src/utils\os.h ****  * @name: Name of the variable
 211:C:/Users/stapi/OneDrive/Desktop/GD32VW553/V1_MQTT_OK/GD32VW55X_Wifi_BLE_SDK/GD32VW55x_RELEASE_V1.0.2/MSDK/wpa_supplicant/src/utils\os.h ****  * @value: Value to set to the variable
 212:C:/Users/stapi/OneDrive/Desktop/GD32VW553/V1_MQTT_OK/GD32VW55X_Wifi_BLE_SDK/GD32VW55x_RELEASE_V1.0.2/MSDK/wpa_supplicant/src/utils\os.h ****  * @overwrite: Whether existing variable should be overwritten
 213:C:/Users/stapi/OneDrive/Desktop/GD32VW553/V1_MQTT_OK/GD32VW55X_Wifi_BLE_SDK/GD32VW55x_RELEASE_V1.0.2/MSDK/wpa_supplicant/src/utils\os.h ****  * Returns: 0 on success, -1 on error
 214:C:/Users/stapi/OneDrive/Desktop/GD32VW553/V1_MQTT_OK/GD32VW55X_Wifi_BLE_SDK/GD32VW55x_RELEASE_V1.0.2/MSDK/wpa_supplicant/src/utils\os.h ****  *
 215:C:/Users/stapi/OneDrive/Desktop/GD32VW553/V1_MQTT_OK/GD32VW55X_Wifi_BLE_SDK/GD32VW55x_RELEASE_V1.0.2/MSDK/wpa_supplicant/src/utils\os.h ****  * This function is only used for wpa_cli action scripts. OS wrapper does not
 216:C:/Users/stapi/OneDrive/Desktop/GD32VW553/V1_MQTT_OK/GD32VW55X_Wifi_BLE_SDK/GD32VW55x_RELEASE_V1.0.2/MSDK/wpa_supplicant/src/utils\os.h ****  * need to implement this if such functionality is not needed.
 217:C:/Users/stapi/OneDrive/Desktop/GD32VW553/V1_MQTT_OK/GD32VW55X_Wifi_BLE_SDK/GD32VW55x_RELEASE_V1.0.2/MSDK/wpa_supplicant/src/utils\os.h ****  */
 218:C:/Users/stapi/OneDrive/Desktop/GD32VW553/V1_MQTT_OK/GD32VW55X_Wifi_BLE_SDK/GD32VW55x_RELEASE_V1.0.2/MSDK/wpa_supplicant/src/utils\os.h **** int os_setenv(const char *name, const char *value, int overwrite);
 219:C:/Users/stapi/OneDrive/Desktop/GD32VW553/V1_MQTT_OK/GD32VW55X_Wifi_BLE_SDK/GD32VW55x_RELEASE_V1.0.2/MSDK/wpa_supplicant/src/utils\os.h **** 
 220:C:/Users/stapi/OneDrive/Desktop/GD32VW553/V1_MQTT_OK/GD32VW55X_Wifi_BLE_SDK/GD32VW55x_RELEASE_V1.0.2/MSDK/wpa_supplicant/src/utils\os.h **** /**
 221:C:/Users/stapi/OneDrive/Desktop/GD32VW553/V1_MQTT_OK/GD32VW55X_Wifi_BLE_SDK/GD32VW55x_RELEASE_V1.0.2/MSDK/wpa_supplicant/src/utils\os.h ****  * os_unsetenv - Delete environent variable
 222:C:/Users/stapi/OneDrive/Desktop/GD32VW553/V1_MQTT_OK/GD32VW55X_Wifi_BLE_SDK/GD32VW55x_RELEASE_V1.0.2/MSDK/wpa_supplicant/src/utils\os.h ****  * @name: Name of the variable
 223:C:/Users/stapi/OneDrive/Desktop/GD32VW553/V1_MQTT_OK/GD32VW55X_Wifi_BLE_SDK/GD32VW55x_RELEASE_V1.0.2/MSDK/wpa_supplicant/src/utils\os.h ****  * Returns: 0 on success, -1 on error
 224:C:/Users/stapi/OneDrive/Desktop/GD32VW553/V1_MQTT_OK/GD32VW55X_Wifi_BLE_SDK/GD32VW55x_RELEASE_V1.0.2/MSDK/wpa_supplicant/src/utils\os.h ****  *
 225:C:/Users/stapi/OneDrive/Desktop/GD32VW553/V1_MQTT_OK/GD32VW55X_Wifi_BLE_SDK/GD32VW55x_RELEASE_V1.0.2/MSDK/wpa_supplicant/src/utils\os.h ****  * This function is only used for wpa_cli action scripts. OS wrapper does not
 226:C:/Users/stapi/OneDrive/Desktop/GD32VW553/V1_MQTT_OK/GD32VW55X_Wifi_BLE_SDK/GD32VW55x_RELEASE_V1.0.2/MSDK/wpa_supplicant/src/utils\os.h ****  * need to implement this if such functionality is not needed.
 227:C:/Users/stapi/OneDrive/Desktop/GD32VW553/V1_MQTT_OK/GD32VW55X_Wifi_BLE_SDK/GD32VW55x_RELEASE_V1.0.2/MSDK/wpa_supplicant/src/utils\os.h ****  */
 228:C:/Users/stapi/OneDrive/Desktop/GD32VW553/V1_MQTT_OK/GD32VW55X_Wifi_BLE_SDK/GD32VW55x_RELEASE_V1.0.2/MSDK/wpa_supplicant/src/utils\os.h **** int os_unsetenv(const char *name);
 229:C:/Users/stapi/OneDrive/Desktop/GD32VW553/V1_MQTT_OK/GD32VW55X_Wifi_BLE_SDK/GD32VW55x_RELEASE_V1.0.2/MSDK/wpa_supplicant/src/utils\os.h **** 
 230:C:/Users/stapi/OneDrive/Desktop/GD32VW553/V1_MQTT_OK/GD32VW55X_Wifi_BLE_SDK/GD32VW55x_RELEASE_V1.0.2/MSDK/wpa_supplicant/src/utils\os.h **** /**
 231:C:/Users/stapi/OneDrive/Desktop/GD32VW553/V1_MQTT_OK/GD32VW55X_Wifi_BLE_SDK/GD32VW55x_RELEASE_V1.0.2/MSDK/wpa_supplicant/src/utils\os.h ****  * os_readfile - Read a file to an allocated memory buffer
 232:C:/Users/stapi/OneDrive/Desktop/GD32VW553/V1_MQTT_OK/GD32VW55X_Wifi_BLE_SDK/GD32VW55x_RELEASE_V1.0.2/MSDK/wpa_supplicant/src/utils\os.h ****  * @name: Name of the file to read
 233:C:/Users/stapi/OneDrive/Desktop/GD32VW553/V1_MQTT_OK/GD32VW55X_Wifi_BLE_SDK/GD32VW55x_RELEASE_V1.0.2/MSDK/wpa_supplicant/src/utils\os.h ****  * @len: For returning the length of the allocated buffer
 234:C:/Users/stapi/OneDrive/Desktop/GD32VW553/V1_MQTT_OK/GD32VW55X_Wifi_BLE_SDK/GD32VW55x_RELEASE_V1.0.2/MSDK/wpa_supplicant/src/utils\os.h ****  * Returns: Pointer to the allocated buffer or %NULL on failure
 235:C:/Users/stapi/OneDrive/Desktop/GD32VW553/V1_MQTT_OK/GD32VW55X_Wifi_BLE_SDK/GD32VW55x_RELEASE_V1.0.2/MSDK/wpa_supplicant/src/utils\os.h ****  *
 236:C:/Users/stapi/OneDrive/Desktop/GD32VW553/V1_MQTT_OK/GD32VW55X_Wifi_BLE_SDK/GD32VW55x_RELEASE_V1.0.2/MSDK/wpa_supplicant/src/utils\os.h ****  * This function allocates memory and reads the given file to this buffer. Both
 237:C:/Users/stapi/OneDrive/Desktop/GD32VW553/V1_MQTT_OK/GD32VW55X_Wifi_BLE_SDK/GD32VW55x_RELEASE_V1.0.2/MSDK/wpa_supplicant/src/utils\os.h ****  * binary and text files can be read with this function. The caller is
 238:C:/Users/stapi/OneDrive/Desktop/GD32VW553/V1_MQTT_OK/GD32VW55X_Wifi_BLE_SDK/GD32VW55x_RELEASE_V1.0.2/MSDK/wpa_supplicant/src/utils\os.h ****  * responsible for freeing the returned buffer with os_free().
 239:C:/Users/stapi/OneDrive/Desktop/GD32VW553/V1_MQTT_OK/GD32VW55X_Wifi_BLE_SDK/GD32VW55x_RELEASE_V1.0.2/MSDK/wpa_supplicant/src/utils\os.h ****  */
 240:C:/Users/stapi/OneDrive/Desktop/GD32VW553/V1_MQTT_OK/GD32VW55X_Wifi_BLE_SDK/GD32VW55x_RELEASE_V1.0.2/MSDK/wpa_supplicant/src/utils\os.h **** char * os_readfile(const char *name, size_t *len);
 241:C:/Users/stapi/OneDrive/Desktop/GD32VW553/V1_MQTT_OK/GD32VW55X_Wifi_BLE_SDK/GD32VW55x_RELEASE_V1.0.2/MSDK/wpa_supplicant/src/utils\os.h **** 
 242:C:/Users/stapi/OneDrive/Desktop/GD32VW553/V1_MQTT_OK/GD32VW55X_Wifi_BLE_SDK/GD32VW55x_RELEASE_V1.0.2/MSDK/wpa_supplicant/src/utils\os.h **** /**
 243:C:/Users/stapi/OneDrive/Desktop/GD32VW553/V1_MQTT_OK/GD32VW55X_Wifi_BLE_SDK/GD32VW55x_RELEASE_V1.0.2/MSDK/wpa_supplicant/src/utils\os.h ****  * os_file_exists - Check whether the specified file exists
 244:C:/Users/stapi/OneDrive/Desktop/GD32VW553/V1_MQTT_OK/GD32VW55X_Wifi_BLE_SDK/GD32VW55x_RELEASE_V1.0.2/MSDK/wpa_supplicant/src/utils\os.h ****  * @fname: Path and name of the file
 245:C:/Users/stapi/OneDrive/Desktop/GD32VW553/V1_MQTT_OK/GD32VW55X_Wifi_BLE_SDK/GD32VW55x_RELEASE_V1.0.2/MSDK/wpa_supplicant/src/utils\os.h ****  * Returns: 1 if the file exists or 0 if not
 246:C:/Users/stapi/OneDrive/Desktop/GD32VW553/V1_MQTT_OK/GD32VW55X_Wifi_BLE_SDK/GD32VW55x_RELEASE_V1.0.2/MSDK/wpa_supplicant/src/utils\os.h ****  */
 247:C:/Users/stapi/OneDrive/Desktop/GD32VW553/V1_MQTT_OK/GD32VW55X_Wifi_BLE_SDK/GD32VW55x_RELEASE_V1.0.2/MSDK/wpa_supplicant/src/utils\os.h **** int os_file_exists(const char *fname);
 248:C:/Users/stapi/OneDrive/Desktop/GD32VW553/V1_MQTT_OK/GD32VW55X_Wifi_BLE_SDK/GD32VW55x_RELEASE_V1.0.2/MSDK/wpa_supplicant/src/utils\os.h **** 
 249:C:/Users/stapi/OneDrive/Desktop/GD32VW553/V1_MQTT_OK/GD32VW55X_Wifi_BLE_SDK/GD32VW55x_RELEASE_V1.0.2/MSDK/wpa_supplicant/src/utils\os.h **** /**
 250:C:/Users/stapi/OneDrive/Desktop/GD32VW553/V1_MQTT_OK/GD32VW55X_Wifi_BLE_SDK/GD32VW55x_RELEASE_V1.0.2/MSDK/wpa_supplicant/src/utils\os.h ****  * os_fdatasync - Sync a file's (for a given stream) state with storage device
 251:C:/Users/stapi/OneDrive/Desktop/GD32VW553/V1_MQTT_OK/GD32VW55X_Wifi_BLE_SDK/GD32VW55x_RELEASE_V1.0.2/MSDK/wpa_supplicant/src/utils\os.h ****  * @stream: the stream to be flushed
 252:C:/Users/stapi/OneDrive/Desktop/GD32VW553/V1_MQTT_OK/GD32VW55X_Wifi_BLE_SDK/GD32VW55x_RELEASE_V1.0.2/MSDK/wpa_supplicant/src/utils\os.h ****  * Returns: 0 if the operation succeeded or -1 on failure
 253:C:/Users/stapi/OneDrive/Desktop/GD32VW553/V1_MQTT_OK/GD32VW55X_Wifi_BLE_SDK/GD32VW55x_RELEASE_V1.0.2/MSDK/wpa_supplicant/src/utils\os.h ****  */
 254:C:/Users/stapi/OneDrive/Desktop/GD32VW553/V1_MQTT_OK/GD32VW55X_Wifi_BLE_SDK/GD32VW55x_RELEASE_V1.0.2/MSDK/wpa_supplicant/src/utils\os.h **** int os_fdatasync(FILE *stream);
 255:C:/Users/stapi/OneDrive/Desktop/GD32VW553/V1_MQTT_OK/GD32VW55X_Wifi_BLE_SDK/GD32VW55x_RELEASE_V1.0.2/MSDK/wpa_supplicant/src/utils\os.h **** 
 256:C:/Users/stapi/OneDrive/Desktop/GD32VW553/V1_MQTT_OK/GD32VW55X_Wifi_BLE_SDK/GD32VW55x_RELEASE_V1.0.2/MSDK/wpa_supplicant/src/utils\os.h **** /**
 257:C:/Users/stapi/OneDrive/Desktop/GD32VW553/V1_MQTT_OK/GD32VW55X_Wifi_BLE_SDK/GD32VW55x_RELEASE_V1.0.2/MSDK/wpa_supplicant/src/utils\os.h ****  * os_zalloc - Allocate and zero memory
 258:C:/Users/stapi/OneDrive/Desktop/GD32VW553/V1_MQTT_OK/GD32VW55X_Wifi_BLE_SDK/GD32VW55x_RELEASE_V1.0.2/MSDK/wpa_supplicant/src/utils\os.h ****  * @size: Number of bytes to allocate
 259:C:/Users/stapi/OneDrive/Desktop/GD32VW553/V1_MQTT_OK/GD32VW55X_Wifi_BLE_SDK/GD32VW55x_RELEASE_V1.0.2/MSDK/wpa_supplicant/src/utils\os.h ****  * Returns: Pointer to allocated and zeroed memory or %NULL on failure
 260:C:/Users/stapi/OneDrive/Desktop/GD32VW553/V1_MQTT_OK/GD32VW55X_Wifi_BLE_SDK/GD32VW55x_RELEASE_V1.0.2/MSDK/wpa_supplicant/src/utils\os.h ****  *
 261:C:/Users/stapi/OneDrive/Desktop/GD32VW553/V1_MQTT_OK/GD32VW55X_Wifi_BLE_SDK/GD32VW55x_RELEASE_V1.0.2/MSDK/wpa_supplicant/src/utils\os.h ****  * Caller is responsible for freeing the returned buffer with os_free().
 262:C:/Users/stapi/OneDrive/Desktop/GD32VW553/V1_MQTT_OK/GD32VW55X_Wifi_BLE_SDK/GD32VW55x_RELEASE_V1.0.2/MSDK/wpa_supplicant/src/utils\os.h ****  */
 263:C:/Users/stapi/OneDrive/Desktop/GD32VW553/V1_MQTT_OK/GD32VW55X_Wifi_BLE_SDK/GD32VW55x_RELEASE_V1.0.2/MSDK/wpa_supplicant/src/utils\os.h **** void * os_zalloc(size_t size);
 264:C:/Users/stapi/OneDrive/Desktop/GD32VW553/V1_MQTT_OK/GD32VW55X_Wifi_BLE_SDK/GD32VW55x_RELEASE_V1.0.2/MSDK/wpa_supplicant/src/utils\os.h **** 
 265:C:/Users/stapi/OneDrive/Desktop/GD32VW553/V1_MQTT_OK/GD32VW55X_Wifi_BLE_SDK/GD32VW55x_RELEASE_V1.0.2/MSDK/wpa_supplicant/src/utils\os.h **** /**
 266:C:/Users/stapi/OneDrive/Desktop/GD32VW553/V1_MQTT_OK/GD32VW55X_Wifi_BLE_SDK/GD32VW55x_RELEASE_V1.0.2/MSDK/wpa_supplicant/src/utils\os.h ****  * os_calloc - Allocate and zero memory for an array
 267:C:/Users/stapi/OneDrive/Desktop/GD32VW553/V1_MQTT_OK/GD32VW55X_Wifi_BLE_SDK/GD32VW55x_RELEASE_V1.0.2/MSDK/wpa_supplicant/src/utils\os.h ****  * @nmemb: Number of members in the array
 268:C:/Users/stapi/OneDrive/Desktop/GD32VW553/V1_MQTT_OK/GD32VW55X_Wifi_BLE_SDK/GD32VW55x_RELEASE_V1.0.2/MSDK/wpa_supplicant/src/utils\os.h ****  * @size: Number of bytes in each member
 269:C:/Users/stapi/OneDrive/Desktop/GD32VW553/V1_MQTT_OK/GD32VW55X_Wifi_BLE_SDK/GD32VW55x_RELEASE_V1.0.2/MSDK/wpa_supplicant/src/utils\os.h ****  * Returns: Pointer to allocated and zeroed memory or %NULL on failure
 270:C:/Users/stapi/OneDrive/Desktop/GD32VW553/V1_MQTT_OK/GD32VW55X_Wifi_BLE_SDK/GD32VW55x_RELEASE_V1.0.2/MSDK/wpa_supplicant/src/utils\os.h ****  *
 271:C:/Users/stapi/OneDrive/Desktop/GD32VW553/V1_MQTT_OK/GD32VW55X_Wifi_BLE_SDK/GD32VW55x_RELEASE_V1.0.2/MSDK/wpa_supplicant/src/utils\os.h ****  * This function can be used as a wrapper for os_zalloc(nmemb * size) when an
 272:C:/Users/stapi/OneDrive/Desktop/GD32VW553/V1_MQTT_OK/GD32VW55X_Wifi_BLE_SDK/GD32VW55x_RELEASE_V1.0.2/MSDK/wpa_supplicant/src/utils\os.h ****  * allocation is used for an array. The main benefit over os_zalloc() is in
 273:C:/Users/stapi/OneDrive/Desktop/GD32VW553/V1_MQTT_OK/GD32VW55X_Wifi_BLE_SDK/GD32VW55x_RELEASE_V1.0.2/MSDK/wpa_supplicant/src/utils\os.h ****  * having an extra check to catch integer overflows in multiplication.
 274:C:/Users/stapi/OneDrive/Desktop/GD32VW553/V1_MQTT_OK/GD32VW55X_Wifi_BLE_SDK/GD32VW55x_RELEASE_V1.0.2/MSDK/wpa_supplicant/src/utils\os.h ****  *
 275:C:/Users/stapi/OneDrive/Desktop/GD32VW553/V1_MQTT_OK/GD32VW55X_Wifi_BLE_SDK/GD32VW55x_RELEASE_V1.0.2/MSDK/wpa_supplicant/src/utils\os.h ****  * Caller is responsible for freeing the returned buffer with os_free().
 276:C:/Users/stapi/OneDrive/Desktop/GD32VW553/V1_MQTT_OK/GD32VW55X_Wifi_BLE_SDK/GD32VW55x_RELEASE_V1.0.2/MSDK/wpa_supplicant/src/utils\os.h ****  */
 277:C:/Users/stapi/OneDrive/Desktop/GD32VW553/V1_MQTT_OK/GD32VW55X_Wifi_BLE_SDK/GD32VW55x_RELEASE_V1.0.2/MSDK/wpa_supplicant/src/utils\os.h **** static inline void * os_calloc(size_t nmemb, size_t size)
 278:C:/Users/stapi/OneDrive/Desktop/GD32VW553/V1_MQTT_OK/GD32VW55X_Wifi_BLE_SDK/GD32VW55x_RELEASE_V1.0.2/MSDK/wpa_supplicant/src/utils\os.h **** {
 279:C:/Users/stapi/OneDrive/Desktop/GD32VW553/V1_MQTT_OK/GD32VW55X_Wifi_BLE_SDK/GD32VW55x_RELEASE_V1.0.2/MSDK/wpa_supplicant/src/utils\os.h **** 	if (size && nmemb > (~(size_t) 0) / size)
 280:C:/Users/stapi/OneDrive/Desktop/GD32VW553/V1_MQTT_OK/GD32VW55X_Wifi_BLE_SDK/GD32VW55x_RELEASE_V1.0.2/MSDK/wpa_supplicant/src/utils\os.h **** 		return NULL;
 281:C:/Users/stapi/OneDrive/Desktop/GD32VW553/V1_MQTT_OK/GD32VW55X_Wifi_BLE_SDK/GD32VW55x_RELEASE_V1.0.2/MSDK/wpa_supplicant/src/utils\os.h **** 	return os_zalloc(nmemb * size);
 282:C:/Users/stapi/OneDrive/Desktop/GD32VW553/V1_MQTT_OK/GD32VW55X_Wifi_BLE_SDK/GD32VW55x_RELEASE_V1.0.2/MSDK/wpa_supplicant/src/utils\os.h **** }
 283:C:/Users/stapi/OneDrive/Desktop/GD32VW553/V1_MQTT_OK/GD32VW55X_Wifi_BLE_SDK/GD32VW55x_RELEASE_V1.0.2/MSDK/wpa_supplicant/src/utils\os.h **** 
 284:C:/Users/stapi/OneDrive/Desktop/GD32VW553/V1_MQTT_OK/GD32VW55X_Wifi_BLE_SDK/GD32VW55x_RELEASE_V1.0.2/MSDK/wpa_supplicant/src/utils\os.h **** 
 285:C:/Users/stapi/OneDrive/Desktop/GD32VW553/V1_MQTT_OK/GD32VW55X_Wifi_BLE_SDK/GD32VW55x_RELEASE_V1.0.2/MSDK/wpa_supplicant/src/utils\os.h **** /*
 286:C:/Users/stapi/OneDrive/Desktop/GD32VW553/V1_MQTT_OK/GD32VW55X_Wifi_BLE_SDK/GD32VW55x_RELEASE_V1.0.2/MSDK/wpa_supplicant/src/utils\os.h ****  * The following functions are wrapper for standard ANSI C or POSIX functions.
 287:C:/Users/stapi/OneDrive/Desktop/GD32VW553/V1_MQTT_OK/GD32VW55X_Wifi_BLE_SDK/GD32VW55x_RELEASE_V1.0.2/MSDK/wpa_supplicant/src/utils\os.h ****  * By default, they are just defined to use the standard function name and no
 288:C:/Users/stapi/OneDrive/Desktop/GD32VW553/V1_MQTT_OK/GD32VW55X_Wifi_BLE_SDK/GD32VW55x_RELEASE_V1.0.2/MSDK/wpa_supplicant/src/utils\os.h ****  * os_*.c implementation is needed for them. This avoids extra function calls
 289:C:/Users/stapi/OneDrive/Desktop/GD32VW553/V1_MQTT_OK/GD32VW55X_Wifi_BLE_SDK/GD32VW55x_RELEASE_V1.0.2/MSDK/wpa_supplicant/src/utils\os.h ****  * by allowing the C pre-processor take care of the function name mapping.
 290:C:/Users/stapi/OneDrive/Desktop/GD32VW553/V1_MQTT_OK/GD32VW55X_Wifi_BLE_SDK/GD32VW55x_RELEASE_V1.0.2/MSDK/wpa_supplicant/src/utils\os.h ****  *
 291:C:/Users/stapi/OneDrive/Desktop/GD32VW553/V1_MQTT_OK/GD32VW55X_Wifi_BLE_SDK/GD32VW55x_RELEASE_V1.0.2/MSDK/wpa_supplicant/src/utils\os.h ****  * If the target system uses a C library that does not provide these functions,
 292:C:/Users/stapi/OneDrive/Desktop/GD32VW553/V1_MQTT_OK/GD32VW55X_Wifi_BLE_SDK/GD32VW55x_RELEASE_V1.0.2/MSDK/wpa_supplicant/src/utils\os.h ****  * build_config.h can be used to define the wrappers to use a different
 293:C:/Users/stapi/OneDrive/Desktop/GD32VW553/V1_MQTT_OK/GD32VW55X_Wifi_BLE_SDK/GD32VW55x_RELEASE_V1.0.2/MSDK/wpa_supplicant/src/utils\os.h ****  * function name. This can be done on function-by-function basis since the
 294:C:/Users/stapi/OneDrive/Desktop/GD32VW553/V1_MQTT_OK/GD32VW55X_Wifi_BLE_SDK/GD32VW55x_RELEASE_V1.0.2/MSDK/wpa_supplicant/src/utils\os.h ****  * defines here are only used if build_config.h does not define the os_* name.
 295:C:/Users/stapi/OneDrive/Desktop/GD32VW553/V1_MQTT_OK/GD32VW55X_Wifi_BLE_SDK/GD32VW55x_RELEASE_V1.0.2/MSDK/wpa_supplicant/src/utils\os.h ****  * If needed, os_*.c file can be used to implement the functions that are not
 296:C:/Users/stapi/OneDrive/Desktop/GD32VW553/V1_MQTT_OK/GD32VW55X_Wifi_BLE_SDK/GD32VW55x_RELEASE_V1.0.2/MSDK/wpa_supplicant/src/utils\os.h ****  * included in the C library on the target system. Alternatively,
 297:C:/Users/stapi/OneDrive/Desktop/GD32VW553/V1_MQTT_OK/GD32VW55X_Wifi_BLE_SDK/GD32VW55x_RELEASE_V1.0.2/MSDK/wpa_supplicant/src/utils\os.h ****  * OS_NO_C_LIB_DEFINES can be defined to skip all defines here in which case
 298:C:/Users/stapi/OneDrive/Desktop/GD32VW553/V1_MQTT_OK/GD32VW55X_Wifi_BLE_SDK/GD32VW55x_RELEASE_V1.0.2/MSDK/wpa_supplicant/src/utils\os.h ****  * these functions need to be implemented in os_*.c file for the target system.
 299:C:/Users/stapi/OneDrive/Desktop/GD32VW553/V1_MQTT_OK/GD32VW55X_Wifi_BLE_SDK/GD32VW55x_RELEASE_V1.0.2/MSDK/wpa_supplicant/src/utils\os.h ****  */
 300:C:/Users/stapi/OneDrive/Desktop/GD32VW553/V1_MQTT_OK/GD32VW55X_Wifi_BLE_SDK/GD32VW55x_RELEASE_V1.0.2/MSDK/wpa_supplicant/src/utils\os.h **** 
 301:C:/Users/stapi/OneDrive/Desktop/GD32VW553/V1_MQTT_OK/GD32VW55X_Wifi_BLE_SDK/GD32VW55x_RELEASE_V1.0.2/MSDK/wpa_supplicant/src/utils\os.h **** #ifdef OS_NO_C_LIB_DEFINES
 302:C:/Users/stapi/OneDrive/Desktop/GD32VW553/V1_MQTT_OK/GD32VW55X_Wifi_BLE_SDK/GD32VW55x_RELEASE_V1.0.2/MSDK/wpa_supplicant/src/utils\os.h **** 
 303:C:/Users/stapi/OneDrive/Desktop/GD32VW553/V1_MQTT_OK/GD32VW55X_Wifi_BLE_SDK/GD32VW55x_RELEASE_V1.0.2/MSDK/wpa_supplicant/src/utils\os.h **** /**
 304:C:/Users/stapi/OneDrive/Desktop/GD32VW553/V1_MQTT_OK/GD32VW55X_Wifi_BLE_SDK/GD32VW55x_RELEASE_V1.0.2/MSDK/wpa_supplicant/src/utils\os.h ****  * os_malloc - Allocate dynamic memory
 305:C:/Users/stapi/OneDrive/Desktop/GD32VW553/V1_MQTT_OK/GD32VW55X_Wifi_BLE_SDK/GD32VW55x_RELEASE_V1.0.2/MSDK/wpa_supplicant/src/utils\os.h ****  * @size: Size of the buffer to allocate
 306:C:/Users/stapi/OneDrive/Desktop/GD32VW553/V1_MQTT_OK/GD32VW55X_Wifi_BLE_SDK/GD32VW55x_RELEASE_V1.0.2/MSDK/wpa_supplicant/src/utils\os.h ****  * Returns: Allocated buffer or %NULL on failure
 307:C:/Users/stapi/OneDrive/Desktop/GD32VW553/V1_MQTT_OK/GD32VW55X_Wifi_BLE_SDK/GD32VW55x_RELEASE_V1.0.2/MSDK/wpa_supplicant/src/utils\os.h ****  *
 308:C:/Users/stapi/OneDrive/Desktop/GD32VW553/V1_MQTT_OK/GD32VW55X_Wifi_BLE_SDK/GD32VW55x_RELEASE_V1.0.2/MSDK/wpa_supplicant/src/utils\os.h ****  * Caller is responsible for freeing the returned buffer with os_free().
 309:C:/Users/stapi/OneDrive/Desktop/GD32VW553/V1_MQTT_OK/GD32VW55X_Wifi_BLE_SDK/GD32VW55x_RELEASE_V1.0.2/MSDK/wpa_supplicant/src/utils\os.h ****  */
 310:C:/Users/stapi/OneDrive/Desktop/GD32VW553/V1_MQTT_OK/GD32VW55X_Wifi_BLE_SDK/GD32VW55x_RELEASE_V1.0.2/MSDK/wpa_supplicant/src/utils\os.h **** void * os_malloc(size_t size);
 311:C:/Users/stapi/OneDrive/Desktop/GD32VW553/V1_MQTT_OK/GD32VW55X_Wifi_BLE_SDK/GD32VW55x_RELEASE_V1.0.2/MSDK/wpa_supplicant/src/utils\os.h **** 
 312:C:/Users/stapi/OneDrive/Desktop/GD32VW553/V1_MQTT_OK/GD32VW55X_Wifi_BLE_SDK/GD32VW55x_RELEASE_V1.0.2/MSDK/wpa_supplicant/src/utils\os.h **** /**
 313:C:/Users/stapi/OneDrive/Desktop/GD32VW553/V1_MQTT_OK/GD32VW55X_Wifi_BLE_SDK/GD32VW55x_RELEASE_V1.0.2/MSDK/wpa_supplicant/src/utils\os.h ****  * os_realloc - Re-allocate dynamic memory
 314:C:/Users/stapi/OneDrive/Desktop/GD32VW553/V1_MQTT_OK/GD32VW55X_Wifi_BLE_SDK/GD32VW55x_RELEASE_V1.0.2/MSDK/wpa_supplicant/src/utils\os.h ****  * @ptr: Old buffer from os_malloc() or os_realloc()
 315:C:/Users/stapi/OneDrive/Desktop/GD32VW553/V1_MQTT_OK/GD32VW55X_Wifi_BLE_SDK/GD32VW55x_RELEASE_V1.0.2/MSDK/wpa_supplicant/src/utils\os.h ****  * @size: Size of the new buffer
 316:C:/Users/stapi/OneDrive/Desktop/GD32VW553/V1_MQTT_OK/GD32VW55X_Wifi_BLE_SDK/GD32VW55x_RELEASE_V1.0.2/MSDK/wpa_supplicant/src/utils\os.h ****  * Returns: Allocated buffer or %NULL on failure
 317:C:/Users/stapi/OneDrive/Desktop/GD32VW553/V1_MQTT_OK/GD32VW55X_Wifi_BLE_SDK/GD32VW55x_RELEASE_V1.0.2/MSDK/wpa_supplicant/src/utils\os.h ****  *
 318:C:/Users/stapi/OneDrive/Desktop/GD32VW553/V1_MQTT_OK/GD32VW55X_Wifi_BLE_SDK/GD32VW55x_RELEASE_V1.0.2/MSDK/wpa_supplicant/src/utils\os.h ****  * Caller is responsible for freeing the returned buffer with os_free().
 319:C:/Users/stapi/OneDrive/Desktop/GD32VW553/V1_MQTT_OK/GD32VW55X_Wifi_BLE_SDK/GD32VW55x_RELEASE_V1.0.2/MSDK/wpa_supplicant/src/utils\os.h ****  * If re-allocation fails, %NULL is returned and the original buffer (ptr) is
 320:C:/Users/stapi/OneDrive/Desktop/GD32VW553/V1_MQTT_OK/GD32VW55X_Wifi_BLE_SDK/GD32VW55x_RELEASE_V1.0.2/MSDK/wpa_supplicant/src/utils\os.h ****  * not freed and caller is still responsible for freeing it.
 321:C:/Users/stapi/OneDrive/Desktop/GD32VW553/V1_MQTT_OK/GD32VW55X_Wifi_BLE_SDK/GD32VW55x_RELEASE_V1.0.2/MSDK/wpa_supplicant/src/utils\os.h ****  */
 322:C:/Users/stapi/OneDrive/Desktop/GD32VW553/V1_MQTT_OK/GD32VW55X_Wifi_BLE_SDK/GD32VW55x_RELEASE_V1.0.2/MSDK/wpa_supplicant/src/utils\os.h **** void * os_realloc(void *ptr, size_t size);
 323:C:/Users/stapi/OneDrive/Desktop/GD32VW553/V1_MQTT_OK/GD32VW55X_Wifi_BLE_SDK/GD32VW55x_RELEASE_V1.0.2/MSDK/wpa_supplicant/src/utils\os.h **** 
 324:C:/Users/stapi/OneDrive/Desktop/GD32VW553/V1_MQTT_OK/GD32VW55X_Wifi_BLE_SDK/GD32VW55x_RELEASE_V1.0.2/MSDK/wpa_supplicant/src/utils\os.h **** /**
 325:C:/Users/stapi/OneDrive/Desktop/GD32VW553/V1_MQTT_OK/GD32VW55X_Wifi_BLE_SDK/GD32VW55x_RELEASE_V1.0.2/MSDK/wpa_supplicant/src/utils\os.h ****  * os_free - Free dynamic memory
 326:C:/Users/stapi/OneDrive/Desktop/GD32VW553/V1_MQTT_OK/GD32VW55X_Wifi_BLE_SDK/GD32VW55x_RELEASE_V1.0.2/MSDK/wpa_supplicant/src/utils\os.h ****  * @ptr: Old buffer from os_malloc() or os_realloc(); can be %NULL
 327:C:/Users/stapi/OneDrive/Desktop/GD32VW553/V1_MQTT_OK/GD32VW55X_Wifi_BLE_SDK/GD32VW55x_RELEASE_V1.0.2/MSDK/wpa_supplicant/src/utils\os.h ****  */
 328:C:/Users/stapi/OneDrive/Desktop/GD32VW553/V1_MQTT_OK/GD32VW55X_Wifi_BLE_SDK/GD32VW55x_RELEASE_V1.0.2/MSDK/wpa_supplicant/src/utils\os.h **** void os_free(void *ptr);
 329:C:/Users/stapi/OneDrive/Desktop/GD32VW553/V1_MQTT_OK/GD32VW55X_Wifi_BLE_SDK/GD32VW55x_RELEASE_V1.0.2/MSDK/wpa_supplicant/src/utils\os.h **** 
 330:C:/Users/stapi/OneDrive/Desktop/GD32VW553/V1_MQTT_OK/GD32VW55X_Wifi_BLE_SDK/GD32VW55x_RELEASE_V1.0.2/MSDK/wpa_supplicant/src/utils\os.h **** /**
 331:C:/Users/stapi/OneDrive/Desktop/GD32VW553/V1_MQTT_OK/GD32VW55X_Wifi_BLE_SDK/GD32VW55x_RELEASE_V1.0.2/MSDK/wpa_supplicant/src/utils\os.h ****  * os_memcpy - Copy memory area
 332:C:/Users/stapi/OneDrive/Desktop/GD32VW553/V1_MQTT_OK/GD32VW55X_Wifi_BLE_SDK/GD32VW55x_RELEASE_V1.0.2/MSDK/wpa_supplicant/src/utils\os.h ****  * @dest: Destination
 333:C:/Users/stapi/OneDrive/Desktop/GD32VW553/V1_MQTT_OK/GD32VW55X_Wifi_BLE_SDK/GD32VW55x_RELEASE_V1.0.2/MSDK/wpa_supplicant/src/utils\os.h ****  * @src: Source
 334:C:/Users/stapi/OneDrive/Desktop/GD32VW553/V1_MQTT_OK/GD32VW55X_Wifi_BLE_SDK/GD32VW55x_RELEASE_V1.0.2/MSDK/wpa_supplicant/src/utils\os.h ****  * @n: Number of bytes to copy
 335:C:/Users/stapi/OneDrive/Desktop/GD32VW553/V1_MQTT_OK/GD32VW55X_Wifi_BLE_SDK/GD32VW55x_RELEASE_V1.0.2/MSDK/wpa_supplicant/src/utils\os.h ****  * Returns: dest
 336:C:/Users/stapi/OneDrive/Desktop/GD32VW553/V1_MQTT_OK/GD32VW55X_Wifi_BLE_SDK/GD32VW55x_RELEASE_V1.0.2/MSDK/wpa_supplicant/src/utils\os.h ****  *
 337:C:/Users/stapi/OneDrive/Desktop/GD32VW553/V1_MQTT_OK/GD32VW55X_Wifi_BLE_SDK/GD32VW55x_RELEASE_V1.0.2/MSDK/wpa_supplicant/src/utils\os.h ****  * The memory areas src and dst must not overlap. os_memmove() can be used with
 338:C:/Users/stapi/OneDrive/Desktop/GD32VW553/V1_MQTT_OK/GD32VW55X_Wifi_BLE_SDK/GD32VW55x_RELEASE_V1.0.2/MSDK/wpa_supplicant/src/utils\os.h ****  * overlapping memory.
 339:C:/Users/stapi/OneDrive/Desktop/GD32VW553/V1_MQTT_OK/GD32VW55X_Wifi_BLE_SDK/GD32VW55x_RELEASE_V1.0.2/MSDK/wpa_supplicant/src/utils\os.h ****  */
 340:C:/Users/stapi/OneDrive/Desktop/GD32VW553/V1_MQTT_OK/GD32VW55X_Wifi_BLE_SDK/GD32VW55x_RELEASE_V1.0.2/MSDK/wpa_supplicant/src/utils\os.h **** void * os_memcpy(void *dest, const void *src, size_t n);
 341:C:/Users/stapi/OneDrive/Desktop/GD32VW553/V1_MQTT_OK/GD32VW55X_Wifi_BLE_SDK/GD32VW55x_RELEASE_V1.0.2/MSDK/wpa_supplicant/src/utils\os.h **** 
 342:C:/Users/stapi/OneDrive/Desktop/GD32VW553/V1_MQTT_OK/GD32VW55X_Wifi_BLE_SDK/GD32VW55x_RELEASE_V1.0.2/MSDK/wpa_supplicant/src/utils\os.h **** /**
 343:C:/Users/stapi/OneDrive/Desktop/GD32VW553/V1_MQTT_OK/GD32VW55X_Wifi_BLE_SDK/GD32VW55x_RELEASE_V1.0.2/MSDK/wpa_supplicant/src/utils\os.h ****  * os_memmove - Copy memory area
 344:C:/Users/stapi/OneDrive/Desktop/GD32VW553/V1_MQTT_OK/GD32VW55X_Wifi_BLE_SDK/GD32VW55x_RELEASE_V1.0.2/MSDK/wpa_supplicant/src/utils\os.h ****  * @dest: Destination
 345:C:/Users/stapi/OneDrive/Desktop/GD32VW553/V1_MQTT_OK/GD32VW55X_Wifi_BLE_SDK/GD32VW55x_RELEASE_V1.0.2/MSDK/wpa_supplicant/src/utils\os.h ****  * @src: Source
 346:C:/Users/stapi/OneDrive/Desktop/GD32VW553/V1_MQTT_OK/GD32VW55X_Wifi_BLE_SDK/GD32VW55x_RELEASE_V1.0.2/MSDK/wpa_supplicant/src/utils\os.h ****  * @n: Number of bytes to copy
 347:C:/Users/stapi/OneDrive/Desktop/GD32VW553/V1_MQTT_OK/GD32VW55X_Wifi_BLE_SDK/GD32VW55x_RELEASE_V1.0.2/MSDK/wpa_supplicant/src/utils\os.h ****  * Returns: dest
 348:C:/Users/stapi/OneDrive/Desktop/GD32VW553/V1_MQTT_OK/GD32VW55X_Wifi_BLE_SDK/GD32VW55x_RELEASE_V1.0.2/MSDK/wpa_supplicant/src/utils\os.h ****  *
 349:C:/Users/stapi/OneDrive/Desktop/GD32VW553/V1_MQTT_OK/GD32VW55X_Wifi_BLE_SDK/GD32VW55x_RELEASE_V1.0.2/MSDK/wpa_supplicant/src/utils\os.h ****  * The memory areas src and dst may overlap.
 350:C:/Users/stapi/OneDrive/Desktop/GD32VW553/V1_MQTT_OK/GD32VW55X_Wifi_BLE_SDK/GD32VW55x_RELEASE_V1.0.2/MSDK/wpa_supplicant/src/utils\os.h ****  */
 351:C:/Users/stapi/OneDrive/Desktop/GD32VW553/V1_MQTT_OK/GD32VW55X_Wifi_BLE_SDK/GD32VW55x_RELEASE_V1.0.2/MSDK/wpa_supplicant/src/utils\os.h **** void * os_memmove(void *dest, const void *src, size_t n);
 352:C:/Users/stapi/OneDrive/Desktop/GD32VW553/V1_MQTT_OK/GD32VW55X_Wifi_BLE_SDK/GD32VW55x_RELEASE_V1.0.2/MSDK/wpa_supplicant/src/utils\os.h **** 
 353:C:/Users/stapi/OneDrive/Desktop/GD32VW553/V1_MQTT_OK/GD32VW55X_Wifi_BLE_SDK/GD32VW55x_RELEASE_V1.0.2/MSDK/wpa_supplicant/src/utils\os.h **** /**
 354:C:/Users/stapi/OneDrive/Desktop/GD32VW553/V1_MQTT_OK/GD32VW55X_Wifi_BLE_SDK/GD32VW55x_RELEASE_V1.0.2/MSDK/wpa_supplicant/src/utils\os.h ****  * os_memset - Fill memory with a constant byte
 355:C:/Users/stapi/OneDrive/Desktop/GD32VW553/V1_MQTT_OK/GD32VW55X_Wifi_BLE_SDK/GD32VW55x_RELEASE_V1.0.2/MSDK/wpa_supplicant/src/utils\os.h ****  * @s: Memory area to be filled
 356:C:/Users/stapi/OneDrive/Desktop/GD32VW553/V1_MQTT_OK/GD32VW55X_Wifi_BLE_SDK/GD32VW55x_RELEASE_V1.0.2/MSDK/wpa_supplicant/src/utils\os.h ****  * @c: Constant byte
 357:C:/Users/stapi/OneDrive/Desktop/GD32VW553/V1_MQTT_OK/GD32VW55X_Wifi_BLE_SDK/GD32VW55x_RELEASE_V1.0.2/MSDK/wpa_supplicant/src/utils\os.h ****  * @n: Number of bytes started from s to fill with c
 358:C:/Users/stapi/OneDrive/Desktop/GD32VW553/V1_MQTT_OK/GD32VW55X_Wifi_BLE_SDK/GD32VW55x_RELEASE_V1.0.2/MSDK/wpa_supplicant/src/utils\os.h ****  * Returns: s
 359:C:/Users/stapi/OneDrive/Desktop/GD32VW553/V1_MQTT_OK/GD32VW55X_Wifi_BLE_SDK/GD32VW55x_RELEASE_V1.0.2/MSDK/wpa_supplicant/src/utils\os.h ****  */
 360:C:/Users/stapi/OneDrive/Desktop/GD32VW553/V1_MQTT_OK/GD32VW55X_Wifi_BLE_SDK/GD32VW55x_RELEASE_V1.0.2/MSDK/wpa_supplicant/src/utils\os.h **** void * os_memset(void *s, int c, size_t n);
 361:C:/Users/stapi/OneDrive/Desktop/GD32VW553/V1_MQTT_OK/GD32VW55X_Wifi_BLE_SDK/GD32VW55x_RELEASE_V1.0.2/MSDK/wpa_supplicant/src/utils\os.h **** 
 362:C:/Users/stapi/OneDrive/Desktop/GD32VW553/V1_MQTT_OK/GD32VW55X_Wifi_BLE_SDK/GD32VW55x_RELEASE_V1.0.2/MSDK/wpa_supplicant/src/utils\os.h **** /**
 363:C:/Users/stapi/OneDrive/Desktop/GD32VW553/V1_MQTT_OK/GD32VW55X_Wifi_BLE_SDK/GD32VW55x_RELEASE_V1.0.2/MSDK/wpa_supplicant/src/utils\os.h ****  * os_memcmp - Compare memory areas
 364:C:/Users/stapi/OneDrive/Desktop/GD32VW553/V1_MQTT_OK/GD32VW55X_Wifi_BLE_SDK/GD32VW55x_RELEASE_V1.0.2/MSDK/wpa_supplicant/src/utils\os.h ****  * @s1: First buffer
 365:C:/Users/stapi/OneDrive/Desktop/GD32VW553/V1_MQTT_OK/GD32VW55X_Wifi_BLE_SDK/GD32VW55x_RELEASE_V1.0.2/MSDK/wpa_supplicant/src/utils\os.h ****  * @s2: Second buffer
 366:C:/Users/stapi/OneDrive/Desktop/GD32VW553/V1_MQTT_OK/GD32VW55X_Wifi_BLE_SDK/GD32VW55x_RELEASE_V1.0.2/MSDK/wpa_supplicant/src/utils\os.h ****  * @n: Maximum numbers of octets to compare
 367:C:/Users/stapi/OneDrive/Desktop/GD32VW553/V1_MQTT_OK/GD32VW55X_Wifi_BLE_SDK/GD32VW55x_RELEASE_V1.0.2/MSDK/wpa_supplicant/src/utils\os.h ****  * Returns: An integer less than, equal to, or greater than zero if s1 is
 368:C:/Users/stapi/OneDrive/Desktop/GD32VW553/V1_MQTT_OK/GD32VW55X_Wifi_BLE_SDK/GD32VW55x_RELEASE_V1.0.2/MSDK/wpa_supplicant/src/utils\os.h ****  * found to be less than, to match, or be greater than s2. Only first n
 369:C:/Users/stapi/OneDrive/Desktop/GD32VW553/V1_MQTT_OK/GD32VW55X_Wifi_BLE_SDK/GD32VW55x_RELEASE_V1.0.2/MSDK/wpa_supplicant/src/utils\os.h ****  * characters will be compared.
 370:C:/Users/stapi/OneDrive/Desktop/GD32VW553/V1_MQTT_OK/GD32VW55X_Wifi_BLE_SDK/GD32VW55x_RELEASE_V1.0.2/MSDK/wpa_supplicant/src/utils\os.h ****  */
 371:C:/Users/stapi/OneDrive/Desktop/GD32VW553/V1_MQTT_OK/GD32VW55X_Wifi_BLE_SDK/GD32VW55x_RELEASE_V1.0.2/MSDK/wpa_supplicant/src/utils\os.h **** int os_memcmp(const void *s1, const void *s2, size_t n);
 372:C:/Users/stapi/OneDrive/Desktop/GD32VW553/V1_MQTT_OK/GD32VW55X_Wifi_BLE_SDK/GD32VW55x_RELEASE_V1.0.2/MSDK/wpa_supplicant/src/utils\os.h **** 
 373:C:/Users/stapi/OneDrive/Desktop/GD32VW553/V1_MQTT_OK/GD32VW55X_Wifi_BLE_SDK/GD32VW55x_RELEASE_V1.0.2/MSDK/wpa_supplicant/src/utils\os.h **** /**
 374:C:/Users/stapi/OneDrive/Desktop/GD32VW553/V1_MQTT_OK/GD32VW55X_Wifi_BLE_SDK/GD32VW55x_RELEASE_V1.0.2/MSDK/wpa_supplicant/src/utils\os.h ****  * os_strdup - Duplicate a string
 375:C:/Users/stapi/OneDrive/Desktop/GD32VW553/V1_MQTT_OK/GD32VW55X_Wifi_BLE_SDK/GD32VW55x_RELEASE_V1.0.2/MSDK/wpa_supplicant/src/utils\os.h ****  * @s: Source string
 376:C:/Users/stapi/OneDrive/Desktop/GD32VW553/V1_MQTT_OK/GD32VW55X_Wifi_BLE_SDK/GD32VW55x_RELEASE_V1.0.2/MSDK/wpa_supplicant/src/utils\os.h ****  * Returns: Allocated buffer with the string copied into it or %NULL on failure
 377:C:/Users/stapi/OneDrive/Desktop/GD32VW553/V1_MQTT_OK/GD32VW55X_Wifi_BLE_SDK/GD32VW55x_RELEASE_V1.0.2/MSDK/wpa_supplicant/src/utils\os.h ****  *
 378:C:/Users/stapi/OneDrive/Desktop/GD32VW553/V1_MQTT_OK/GD32VW55X_Wifi_BLE_SDK/GD32VW55x_RELEASE_V1.0.2/MSDK/wpa_supplicant/src/utils\os.h ****  * Caller is responsible for freeing the returned buffer with os_free().
 379:C:/Users/stapi/OneDrive/Desktop/GD32VW553/V1_MQTT_OK/GD32VW55X_Wifi_BLE_SDK/GD32VW55x_RELEASE_V1.0.2/MSDK/wpa_supplicant/src/utils\os.h ****  */
 380:C:/Users/stapi/OneDrive/Desktop/GD32VW553/V1_MQTT_OK/GD32VW55X_Wifi_BLE_SDK/GD32VW55x_RELEASE_V1.0.2/MSDK/wpa_supplicant/src/utils\os.h **** char * os_strdup(const char *s);
 381:C:/Users/stapi/OneDrive/Desktop/GD32VW553/V1_MQTT_OK/GD32VW55X_Wifi_BLE_SDK/GD32VW55x_RELEASE_V1.0.2/MSDK/wpa_supplicant/src/utils\os.h **** 
 382:C:/Users/stapi/OneDrive/Desktop/GD32VW553/V1_MQTT_OK/GD32VW55X_Wifi_BLE_SDK/GD32VW55x_RELEASE_V1.0.2/MSDK/wpa_supplicant/src/utils\os.h **** /**
 383:C:/Users/stapi/OneDrive/Desktop/GD32VW553/V1_MQTT_OK/GD32VW55X_Wifi_BLE_SDK/GD32VW55x_RELEASE_V1.0.2/MSDK/wpa_supplicant/src/utils\os.h ****  * os_strlen - Calculate the length of a string
 384:C:/Users/stapi/OneDrive/Desktop/GD32VW553/V1_MQTT_OK/GD32VW55X_Wifi_BLE_SDK/GD32VW55x_RELEASE_V1.0.2/MSDK/wpa_supplicant/src/utils\os.h ****  * @s: '\0' terminated string
 385:C:/Users/stapi/OneDrive/Desktop/GD32VW553/V1_MQTT_OK/GD32VW55X_Wifi_BLE_SDK/GD32VW55x_RELEASE_V1.0.2/MSDK/wpa_supplicant/src/utils\os.h ****  * Returns: Number of characters in s (not counting the '\0' terminator)
 386:C:/Users/stapi/OneDrive/Desktop/GD32VW553/V1_MQTT_OK/GD32VW55X_Wifi_BLE_SDK/GD32VW55x_RELEASE_V1.0.2/MSDK/wpa_supplicant/src/utils\os.h ****  */
 387:C:/Users/stapi/OneDrive/Desktop/GD32VW553/V1_MQTT_OK/GD32VW55X_Wifi_BLE_SDK/GD32VW55x_RELEASE_V1.0.2/MSDK/wpa_supplicant/src/utils\os.h **** size_t os_strlen(const char *s);
 388:C:/Users/stapi/OneDrive/Desktop/GD32VW553/V1_MQTT_OK/GD32VW55X_Wifi_BLE_SDK/GD32VW55x_RELEASE_V1.0.2/MSDK/wpa_supplicant/src/utils\os.h **** 
 389:C:/Users/stapi/OneDrive/Desktop/GD32VW553/V1_MQTT_OK/GD32VW55X_Wifi_BLE_SDK/GD32VW55x_RELEASE_V1.0.2/MSDK/wpa_supplicant/src/utils\os.h **** /**
 390:C:/Users/stapi/OneDrive/Desktop/GD32VW553/V1_MQTT_OK/GD32VW55X_Wifi_BLE_SDK/GD32VW55x_RELEASE_V1.0.2/MSDK/wpa_supplicant/src/utils\os.h ****  * os_strcasecmp - Compare two strings ignoring case
 391:C:/Users/stapi/OneDrive/Desktop/GD32VW553/V1_MQTT_OK/GD32VW55X_Wifi_BLE_SDK/GD32VW55x_RELEASE_V1.0.2/MSDK/wpa_supplicant/src/utils\os.h ****  * @s1: First string
 392:C:/Users/stapi/OneDrive/Desktop/GD32VW553/V1_MQTT_OK/GD32VW55X_Wifi_BLE_SDK/GD32VW55x_RELEASE_V1.0.2/MSDK/wpa_supplicant/src/utils\os.h ****  * @s2: Second string
 393:C:/Users/stapi/OneDrive/Desktop/GD32VW553/V1_MQTT_OK/GD32VW55X_Wifi_BLE_SDK/GD32VW55x_RELEASE_V1.0.2/MSDK/wpa_supplicant/src/utils\os.h ****  * Returns: An integer less than, equal to, or greater than zero if s1 is
 394:C:/Users/stapi/OneDrive/Desktop/GD32VW553/V1_MQTT_OK/GD32VW55X_Wifi_BLE_SDK/GD32VW55x_RELEASE_V1.0.2/MSDK/wpa_supplicant/src/utils\os.h ****  * found to be less than, to match, or be greatred than s2
 395:C:/Users/stapi/OneDrive/Desktop/GD32VW553/V1_MQTT_OK/GD32VW55X_Wifi_BLE_SDK/GD32VW55x_RELEASE_V1.0.2/MSDK/wpa_supplicant/src/utils\os.h ****  */
 396:C:/Users/stapi/OneDrive/Desktop/GD32VW553/V1_MQTT_OK/GD32VW55X_Wifi_BLE_SDK/GD32VW55x_RELEASE_V1.0.2/MSDK/wpa_supplicant/src/utils\os.h **** int os_strcasecmp(const char *s1, const char *s2);
 397:C:/Users/stapi/OneDrive/Desktop/GD32VW553/V1_MQTT_OK/GD32VW55X_Wifi_BLE_SDK/GD32VW55x_RELEASE_V1.0.2/MSDK/wpa_supplicant/src/utils\os.h **** 
 398:C:/Users/stapi/OneDrive/Desktop/GD32VW553/V1_MQTT_OK/GD32VW55X_Wifi_BLE_SDK/GD32VW55x_RELEASE_V1.0.2/MSDK/wpa_supplicant/src/utils\os.h **** /**
 399:C:/Users/stapi/OneDrive/Desktop/GD32VW553/V1_MQTT_OK/GD32VW55X_Wifi_BLE_SDK/GD32VW55x_RELEASE_V1.0.2/MSDK/wpa_supplicant/src/utils\os.h ****  * os_strncasecmp - Compare two strings ignoring case
 400:C:/Users/stapi/OneDrive/Desktop/GD32VW553/V1_MQTT_OK/GD32VW55X_Wifi_BLE_SDK/GD32VW55x_RELEASE_V1.0.2/MSDK/wpa_supplicant/src/utils\os.h ****  * @s1: First string
 401:C:/Users/stapi/OneDrive/Desktop/GD32VW553/V1_MQTT_OK/GD32VW55X_Wifi_BLE_SDK/GD32VW55x_RELEASE_V1.0.2/MSDK/wpa_supplicant/src/utils\os.h ****  * @s2: Second string
 402:C:/Users/stapi/OneDrive/Desktop/GD32VW553/V1_MQTT_OK/GD32VW55X_Wifi_BLE_SDK/GD32VW55x_RELEASE_V1.0.2/MSDK/wpa_supplicant/src/utils\os.h ****  * @n: Maximum numbers of characters to compare
 403:C:/Users/stapi/OneDrive/Desktop/GD32VW553/V1_MQTT_OK/GD32VW55X_Wifi_BLE_SDK/GD32VW55x_RELEASE_V1.0.2/MSDK/wpa_supplicant/src/utils\os.h ****  * Returns: An integer less than, equal to, or greater than zero if s1 is
 404:C:/Users/stapi/OneDrive/Desktop/GD32VW553/V1_MQTT_OK/GD32VW55X_Wifi_BLE_SDK/GD32VW55x_RELEASE_V1.0.2/MSDK/wpa_supplicant/src/utils\os.h ****  * found to be less than, to match, or be greater than s2. Only first n
 405:C:/Users/stapi/OneDrive/Desktop/GD32VW553/V1_MQTT_OK/GD32VW55X_Wifi_BLE_SDK/GD32VW55x_RELEASE_V1.0.2/MSDK/wpa_supplicant/src/utils\os.h ****  * characters will be compared.
 406:C:/Users/stapi/OneDrive/Desktop/GD32VW553/V1_MQTT_OK/GD32VW55X_Wifi_BLE_SDK/GD32VW55x_RELEASE_V1.0.2/MSDK/wpa_supplicant/src/utils\os.h ****  */
 407:C:/Users/stapi/OneDrive/Desktop/GD32VW553/V1_MQTT_OK/GD32VW55X_Wifi_BLE_SDK/GD32VW55x_RELEASE_V1.0.2/MSDK/wpa_supplicant/src/utils\os.h **** int os_strncasecmp(const char *s1, const char *s2, size_t n);
 408:C:/Users/stapi/OneDrive/Desktop/GD32VW553/V1_MQTT_OK/GD32VW55X_Wifi_BLE_SDK/GD32VW55x_RELEASE_V1.0.2/MSDK/wpa_supplicant/src/utils\os.h **** 
 409:C:/Users/stapi/OneDrive/Desktop/GD32VW553/V1_MQTT_OK/GD32VW55X_Wifi_BLE_SDK/GD32VW55x_RELEASE_V1.0.2/MSDK/wpa_supplicant/src/utils\os.h **** /**
 410:C:/Users/stapi/OneDrive/Desktop/GD32VW553/V1_MQTT_OK/GD32VW55X_Wifi_BLE_SDK/GD32VW55x_RELEASE_V1.0.2/MSDK/wpa_supplicant/src/utils\os.h ****  * os_strchr - Locate the first occurrence of a character in string
 411:C:/Users/stapi/OneDrive/Desktop/GD32VW553/V1_MQTT_OK/GD32VW55X_Wifi_BLE_SDK/GD32VW55x_RELEASE_V1.0.2/MSDK/wpa_supplicant/src/utils\os.h ****  * @s: String
 412:C:/Users/stapi/OneDrive/Desktop/GD32VW553/V1_MQTT_OK/GD32VW55X_Wifi_BLE_SDK/GD32VW55x_RELEASE_V1.0.2/MSDK/wpa_supplicant/src/utils\os.h ****  * @c: Character to search for
 413:C:/Users/stapi/OneDrive/Desktop/GD32VW553/V1_MQTT_OK/GD32VW55X_Wifi_BLE_SDK/GD32VW55x_RELEASE_V1.0.2/MSDK/wpa_supplicant/src/utils\os.h ****  * Returns: Pointer to the matched character or %NULL if not found
 414:C:/Users/stapi/OneDrive/Desktop/GD32VW553/V1_MQTT_OK/GD32VW55X_Wifi_BLE_SDK/GD32VW55x_RELEASE_V1.0.2/MSDK/wpa_supplicant/src/utils\os.h ****  */
 415:C:/Users/stapi/OneDrive/Desktop/GD32VW553/V1_MQTT_OK/GD32VW55X_Wifi_BLE_SDK/GD32VW55x_RELEASE_V1.0.2/MSDK/wpa_supplicant/src/utils\os.h **** char * os_strchr(const char *s, int c);
 416:C:/Users/stapi/OneDrive/Desktop/GD32VW553/V1_MQTT_OK/GD32VW55X_Wifi_BLE_SDK/GD32VW55x_RELEASE_V1.0.2/MSDK/wpa_supplicant/src/utils\os.h **** 
 417:C:/Users/stapi/OneDrive/Desktop/GD32VW553/V1_MQTT_OK/GD32VW55X_Wifi_BLE_SDK/GD32VW55x_RELEASE_V1.0.2/MSDK/wpa_supplicant/src/utils\os.h **** /**
 418:C:/Users/stapi/OneDrive/Desktop/GD32VW553/V1_MQTT_OK/GD32VW55X_Wifi_BLE_SDK/GD32VW55x_RELEASE_V1.0.2/MSDK/wpa_supplicant/src/utils\os.h ****  * os_strrchr - Locate the last occurrence of a character in string
 419:C:/Users/stapi/OneDrive/Desktop/GD32VW553/V1_MQTT_OK/GD32VW55X_Wifi_BLE_SDK/GD32VW55x_RELEASE_V1.0.2/MSDK/wpa_supplicant/src/utils\os.h ****  * @s: String
 420:C:/Users/stapi/OneDrive/Desktop/GD32VW553/V1_MQTT_OK/GD32VW55X_Wifi_BLE_SDK/GD32VW55x_RELEASE_V1.0.2/MSDK/wpa_supplicant/src/utils\os.h ****  * @c: Character to search for
 421:C:/Users/stapi/OneDrive/Desktop/GD32VW553/V1_MQTT_OK/GD32VW55X_Wifi_BLE_SDK/GD32VW55x_RELEASE_V1.0.2/MSDK/wpa_supplicant/src/utils\os.h ****  * Returns: Pointer to the matched character or %NULL if not found
 422:C:/Users/stapi/OneDrive/Desktop/GD32VW553/V1_MQTT_OK/GD32VW55X_Wifi_BLE_SDK/GD32VW55x_RELEASE_V1.0.2/MSDK/wpa_supplicant/src/utils\os.h ****  */
 423:C:/Users/stapi/OneDrive/Desktop/GD32VW553/V1_MQTT_OK/GD32VW55X_Wifi_BLE_SDK/GD32VW55x_RELEASE_V1.0.2/MSDK/wpa_supplicant/src/utils\os.h **** char * os_strrchr(const char *s, int c);
 424:C:/Users/stapi/OneDrive/Desktop/GD32VW553/V1_MQTT_OK/GD32VW55X_Wifi_BLE_SDK/GD32VW55x_RELEASE_V1.0.2/MSDK/wpa_supplicant/src/utils\os.h **** 
 425:C:/Users/stapi/OneDrive/Desktop/GD32VW553/V1_MQTT_OK/GD32VW55X_Wifi_BLE_SDK/GD32VW55x_RELEASE_V1.0.2/MSDK/wpa_supplicant/src/utils\os.h **** /**
 426:C:/Users/stapi/OneDrive/Desktop/GD32VW553/V1_MQTT_OK/GD32VW55X_Wifi_BLE_SDK/GD32VW55x_RELEASE_V1.0.2/MSDK/wpa_supplicant/src/utils\os.h ****  * os_strcmp - Compare two strings
 427:C:/Users/stapi/OneDrive/Desktop/GD32VW553/V1_MQTT_OK/GD32VW55X_Wifi_BLE_SDK/GD32VW55x_RELEASE_V1.0.2/MSDK/wpa_supplicant/src/utils\os.h ****  * @s1: First string
 428:C:/Users/stapi/OneDrive/Desktop/GD32VW553/V1_MQTT_OK/GD32VW55X_Wifi_BLE_SDK/GD32VW55x_RELEASE_V1.0.2/MSDK/wpa_supplicant/src/utils\os.h ****  * @s2: Second string
 429:C:/Users/stapi/OneDrive/Desktop/GD32VW553/V1_MQTT_OK/GD32VW55X_Wifi_BLE_SDK/GD32VW55x_RELEASE_V1.0.2/MSDK/wpa_supplicant/src/utils\os.h ****  * Returns: An integer less than, equal to, or greater than zero if s1 is
 430:C:/Users/stapi/OneDrive/Desktop/GD32VW553/V1_MQTT_OK/GD32VW55X_Wifi_BLE_SDK/GD32VW55x_RELEASE_V1.0.2/MSDK/wpa_supplicant/src/utils\os.h ****  * found to be less than, to match, or be greatred than s2
 431:C:/Users/stapi/OneDrive/Desktop/GD32VW553/V1_MQTT_OK/GD32VW55X_Wifi_BLE_SDK/GD32VW55x_RELEASE_V1.0.2/MSDK/wpa_supplicant/src/utils\os.h ****  */
 432:C:/Users/stapi/OneDrive/Desktop/GD32VW553/V1_MQTT_OK/GD32VW55X_Wifi_BLE_SDK/GD32VW55x_RELEASE_V1.0.2/MSDK/wpa_supplicant/src/utils\os.h **** int os_strcmp(const char *s1, const char *s2);
 433:C:/Users/stapi/OneDrive/Desktop/GD32VW553/V1_MQTT_OK/GD32VW55X_Wifi_BLE_SDK/GD32VW55x_RELEASE_V1.0.2/MSDK/wpa_supplicant/src/utils\os.h **** 
 434:C:/Users/stapi/OneDrive/Desktop/GD32VW553/V1_MQTT_OK/GD32VW55X_Wifi_BLE_SDK/GD32VW55x_RELEASE_V1.0.2/MSDK/wpa_supplicant/src/utils\os.h **** /**
 435:C:/Users/stapi/OneDrive/Desktop/GD32VW553/V1_MQTT_OK/GD32VW55X_Wifi_BLE_SDK/GD32VW55x_RELEASE_V1.0.2/MSDK/wpa_supplicant/src/utils\os.h ****  * os_strncmp - Compare two strings
 436:C:/Users/stapi/OneDrive/Desktop/GD32VW553/V1_MQTT_OK/GD32VW55X_Wifi_BLE_SDK/GD32VW55x_RELEASE_V1.0.2/MSDK/wpa_supplicant/src/utils\os.h ****  * @s1: First string
 437:C:/Users/stapi/OneDrive/Desktop/GD32VW553/V1_MQTT_OK/GD32VW55X_Wifi_BLE_SDK/GD32VW55x_RELEASE_V1.0.2/MSDK/wpa_supplicant/src/utils\os.h ****  * @s2: Second string
 438:C:/Users/stapi/OneDrive/Desktop/GD32VW553/V1_MQTT_OK/GD32VW55X_Wifi_BLE_SDK/GD32VW55x_RELEASE_V1.0.2/MSDK/wpa_supplicant/src/utils\os.h ****  * @n: Maximum numbers of characters to compare
 439:C:/Users/stapi/OneDrive/Desktop/GD32VW553/V1_MQTT_OK/GD32VW55X_Wifi_BLE_SDK/GD32VW55x_RELEASE_V1.0.2/MSDK/wpa_supplicant/src/utils\os.h ****  * Returns: An integer less than, equal to, or greater than zero if s1 is
 440:C:/Users/stapi/OneDrive/Desktop/GD32VW553/V1_MQTT_OK/GD32VW55X_Wifi_BLE_SDK/GD32VW55x_RELEASE_V1.0.2/MSDK/wpa_supplicant/src/utils\os.h ****  * found to be less than, to match, or be greater than s2. Only first n
 441:C:/Users/stapi/OneDrive/Desktop/GD32VW553/V1_MQTT_OK/GD32VW55X_Wifi_BLE_SDK/GD32VW55x_RELEASE_V1.0.2/MSDK/wpa_supplicant/src/utils\os.h ****  * characters will be compared.
 442:C:/Users/stapi/OneDrive/Desktop/GD32VW553/V1_MQTT_OK/GD32VW55X_Wifi_BLE_SDK/GD32VW55x_RELEASE_V1.0.2/MSDK/wpa_supplicant/src/utils\os.h ****  */
 443:C:/Users/stapi/OneDrive/Desktop/GD32VW553/V1_MQTT_OK/GD32VW55X_Wifi_BLE_SDK/GD32VW55x_RELEASE_V1.0.2/MSDK/wpa_supplicant/src/utils\os.h **** int os_strncmp(const char *s1, const char *s2, size_t n);
 444:C:/Users/stapi/OneDrive/Desktop/GD32VW553/V1_MQTT_OK/GD32VW55X_Wifi_BLE_SDK/GD32VW55x_RELEASE_V1.0.2/MSDK/wpa_supplicant/src/utils\os.h **** 
 445:C:/Users/stapi/OneDrive/Desktop/GD32VW553/V1_MQTT_OK/GD32VW55X_Wifi_BLE_SDK/GD32VW55x_RELEASE_V1.0.2/MSDK/wpa_supplicant/src/utils\os.h **** /**
 446:C:/Users/stapi/OneDrive/Desktop/GD32VW553/V1_MQTT_OK/GD32VW55X_Wifi_BLE_SDK/GD32VW55x_RELEASE_V1.0.2/MSDK/wpa_supplicant/src/utils\os.h ****  * os_strstr - Locate a substring
 447:C:/Users/stapi/OneDrive/Desktop/GD32VW553/V1_MQTT_OK/GD32VW55X_Wifi_BLE_SDK/GD32VW55x_RELEASE_V1.0.2/MSDK/wpa_supplicant/src/utils\os.h ****  * @haystack: String (haystack) to search from
 448:C:/Users/stapi/OneDrive/Desktop/GD32VW553/V1_MQTT_OK/GD32VW55X_Wifi_BLE_SDK/GD32VW55x_RELEASE_V1.0.2/MSDK/wpa_supplicant/src/utils\os.h ****  * @needle: Needle to search from haystack
 449:C:/Users/stapi/OneDrive/Desktop/GD32VW553/V1_MQTT_OK/GD32VW55X_Wifi_BLE_SDK/GD32VW55x_RELEASE_V1.0.2/MSDK/wpa_supplicant/src/utils\os.h ****  * Returns: Pointer to the beginning of the substring or %NULL if not found
 450:C:/Users/stapi/OneDrive/Desktop/GD32VW553/V1_MQTT_OK/GD32VW55X_Wifi_BLE_SDK/GD32VW55x_RELEASE_V1.0.2/MSDK/wpa_supplicant/src/utils\os.h ****  */
 451:C:/Users/stapi/OneDrive/Desktop/GD32VW553/V1_MQTT_OK/GD32VW55X_Wifi_BLE_SDK/GD32VW55x_RELEASE_V1.0.2/MSDK/wpa_supplicant/src/utils\os.h **** char * os_strstr(const char *haystack, const char *needle);
 452:C:/Users/stapi/OneDrive/Desktop/GD32VW553/V1_MQTT_OK/GD32VW55X_Wifi_BLE_SDK/GD32VW55x_RELEASE_V1.0.2/MSDK/wpa_supplicant/src/utils\os.h **** 
 453:C:/Users/stapi/OneDrive/Desktop/GD32VW553/V1_MQTT_OK/GD32VW55X_Wifi_BLE_SDK/GD32VW55x_RELEASE_V1.0.2/MSDK/wpa_supplicant/src/utils\os.h **** /**
 454:C:/Users/stapi/OneDrive/Desktop/GD32VW553/V1_MQTT_OK/GD32VW55X_Wifi_BLE_SDK/GD32VW55x_RELEASE_V1.0.2/MSDK/wpa_supplicant/src/utils\os.h ****  * os_snprintf - Print to a memory buffer
 455:C:/Users/stapi/OneDrive/Desktop/GD32VW553/V1_MQTT_OK/GD32VW55X_Wifi_BLE_SDK/GD32VW55x_RELEASE_V1.0.2/MSDK/wpa_supplicant/src/utils\os.h ****  * @str: Memory buffer to print into
 456:C:/Users/stapi/OneDrive/Desktop/GD32VW553/V1_MQTT_OK/GD32VW55X_Wifi_BLE_SDK/GD32VW55x_RELEASE_V1.0.2/MSDK/wpa_supplicant/src/utils\os.h ****  * @size: Maximum length of the str buffer
 457:C:/Users/stapi/OneDrive/Desktop/GD32VW553/V1_MQTT_OK/GD32VW55X_Wifi_BLE_SDK/GD32VW55x_RELEASE_V1.0.2/MSDK/wpa_supplicant/src/utils\os.h ****  * @format: printf format
 458:C:/Users/stapi/OneDrive/Desktop/GD32VW553/V1_MQTT_OK/GD32VW55X_Wifi_BLE_SDK/GD32VW55x_RELEASE_V1.0.2/MSDK/wpa_supplicant/src/utils\os.h ****  * Returns: Number of characters printed (not including trailing '\0').
 459:C:/Users/stapi/OneDrive/Desktop/GD32VW553/V1_MQTT_OK/GD32VW55X_Wifi_BLE_SDK/GD32VW55x_RELEASE_V1.0.2/MSDK/wpa_supplicant/src/utils\os.h ****  *
 460:C:/Users/stapi/OneDrive/Desktop/GD32VW553/V1_MQTT_OK/GD32VW55X_Wifi_BLE_SDK/GD32VW55x_RELEASE_V1.0.2/MSDK/wpa_supplicant/src/utils\os.h ****  * If the output buffer is truncated, number of characters which would have
 461:C:/Users/stapi/OneDrive/Desktop/GD32VW553/V1_MQTT_OK/GD32VW55X_Wifi_BLE_SDK/GD32VW55x_RELEASE_V1.0.2/MSDK/wpa_supplicant/src/utils\os.h ****  * been written is returned. Since some C libraries return -1 in such a case,
 462:C:/Users/stapi/OneDrive/Desktop/GD32VW553/V1_MQTT_OK/GD32VW55X_Wifi_BLE_SDK/GD32VW55x_RELEASE_V1.0.2/MSDK/wpa_supplicant/src/utils\os.h ****  * the caller must be prepared on that value, too, to indicate truncation.
 463:C:/Users/stapi/OneDrive/Desktop/GD32VW553/V1_MQTT_OK/GD32VW55X_Wifi_BLE_SDK/GD32VW55x_RELEASE_V1.0.2/MSDK/wpa_supplicant/src/utils\os.h ****  *
 464:C:/Users/stapi/OneDrive/Desktop/GD32VW553/V1_MQTT_OK/GD32VW55X_Wifi_BLE_SDK/GD32VW55x_RELEASE_V1.0.2/MSDK/wpa_supplicant/src/utils\os.h ****  * Note: Some C library implementations of snprintf() may not guarantee null
 465:C:/Users/stapi/OneDrive/Desktop/GD32VW553/V1_MQTT_OK/GD32VW55X_Wifi_BLE_SDK/GD32VW55x_RELEASE_V1.0.2/MSDK/wpa_supplicant/src/utils\os.h ****  * termination in case the output is truncated. The OS wrapper function of
 466:C:/Users/stapi/OneDrive/Desktop/GD32VW553/V1_MQTT_OK/GD32VW55X_Wifi_BLE_SDK/GD32VW55x_RELEASE_V1.0.2/MSDK/wpa_supplicant/src/utils\os.h ****  * os_snprintf() should provide this guarantee, i.e., to null terminate the
 467:C:/Users/stapi/OneDrive/Desktop/GD32VW553/V1_MQTT_OK/GD32VW55X_Wifi_BLE_SDK/GD32VW55x_RELEASE_V1.0.2/MSDK/wpa_supplicant/src/utils\os.h ****  * output buffer if a C library version of the function is used and if that
 468:C:/Users/stapi/OneDrive/Desktop/GD32VW553/V1_MQTT_OK/GD32VW55X_Wifi_BLE_SDK/GD32VW55x_RELEASE_V1.0.2/MSDK/wpa_supplicant/src/utils\os.h ****  * function does not guarantee null termination.
 469:C:/Users/stapi/OneDrive/Desktop/GD32VW553/V1_MQTT_OK/GD32VW55X_Wifi_BLE_SDK/GD32VW55x_RELEASE_V1.0.2/MSDK/wpa_supplicant/src/utils\os.h ****  *
 470:C:/Users/stapi/OneDrive/Desktop/GD32VW553/V1_MQTT_OK/GD32VW55X_Wifi_BLE_SDK/GD32VW55x_RELEASE_V1.0.2/MSDK/wpa_supplicant/src/utils\os.h ****  * If the target system does not include snprintf(), see, e.g.,
 471:C:/Users/stapi/OneDrive/Desktop/GD32VW553/V1_MQTT_OK/GD32VW55X_Wifi_BLE_SDK/GD32VW55x_RELEASE_V1.0.2/MSDK/wpa_supplicant/src/utils\os.h ****  * http://www.ijs.si/software/snprintf/ for an example of a portable
 472:C:/Users/stapi/OneDrive/Desktop/GD32VW553/V1_MQTT_OK/GD32VW55X_Wifi_BLE_SDK/GD32VW55x_RELEASE_V1.0.2/MSDK/wpa_supplicant/src/utils\os.h ****  * implementation of snprintf.
 473:C:/Users/stapi/OneDrive/Desktop/GD32VW553/V1_MQTT_OK/GD32VW55X_Wifi_BLE_SDK/GD32VW55x_RELEASE_V1.0.2/MSDK/wpa_supplicant/src/utils\os.h ****  */
 474:C:/Users/stapi/OneDrive/Desktop/GD32VW553/V1_MQTT_OK/GD32VW55X_Wifi_BLE_SDK/GD32VW55x_RELEASE_V1.0.2/MSDK/wpa_supplicant/src/utils\os.h **** int os_snprintf(char *str, size_t size, const char *format, ...);
 475:C:/Users/stapi/OneDrive/Desktop/GD32VW553/V1_MQTT_OK/GD32VW55X_Wifi_BLE_SDK/GD32VW55x_RELEASE_V1.0.2/MSDK/wpa_supplicant/src/utils\os.h **** 
 476:C:/Users/stapi/OneDrive/Desktop/GD32VW553/V1_MQTT_OK/GD32VW55X_Wifi_BLE_SDK/GD32VW55x_RELEASE_V1.0.2/MSDK/wpa_supplicant/src/utils\os.h **** #else /* OS_NO_C_LIB_DEFINES */
 477:C:/Users/stapi/OneDrive/Desktop/GD32VW553/V1_MQTT_OK/GD32VW55X_Wifi_BLE_SDK/GD32VW55x_RELEASE_V1.0.2/MSDK/wpa_supplicant/src/utils\os.h **** 
 478:C:/Users/stapi/OneDrive/Desktop/GD32VW553/V1_MQTT_OK/GD32VW55X_Wifi_BLE_SDK/GD32VW55x_RELEASE_V1.0.2/MSDK/wpa_supplicant/src/utils\os.h **** #ifdef WPA_TRACE
 479:C:/Users/stapi/OneDrive/Desktop/GD32VW553/V1_MQTT_OK/GD32VW55X_Wifi_BLE_SDK/GD32VW55x_RELEASE_V1.0.2/MSDK/wpa_supplicant/src/utils\os.h **** void * os_malloc(size_t size);
 480:C:/Users/stapi/OneDrive/Desktop/GD32VW553/V1_MQTT_OK/GD32VW55X_Wifi_BLE_SDK/GD32VW55x_RELEASE_V1.0.2/MSDK/wpa_supplicant/src/utils\os.h **** void * os_realloc(void *ptr, size_t size);
 481:C:/Users/stapi/OneDrive/Desktop/GD32VW553/V1_MQTT_OK/GD32VW55X_Wifi_BLE_SDK/GD32VW55x_RELEASE_V1.0.2/MSDK/wpa_supplicant/src/utils\os.h **** void os_free(void *ptr);
 482:C:/Users/stapi/OneDrive/Desktop/GD32VW553/V1_MQTT_OK/GD32VW55X_Wifi_BLE_SDK/GD32VW55x_RELEASE_V1.0.2/MSDK/wpa_supplicant/src/utils\os.h **** char * os_strdup(const char *s);
 483:C:/Users/stapi/OneDrive/Desktop/GD32VW553/V1_MQTT_OK/GD32VW55X_Wifi_BLE_SDK/GD32VW55x_RELEASE_V1.0.2/MSDK/wpa_supplicant/src/utils\os.h **** #else /* WPA_TRACE */
 484:C:/Users/stapi/OneDrive/Desktop/GD32VW553/V1_MQTT_OK/GD32VW55X_Wifi_BLE_SDK/GD32VW55x_RELEASE_V1.0.2/MSDK/wpa_supplicant/src/utils\os.h **** #ifndef os_malloc
 485:C:/Users/stapi/OneDrive/Desktop/GD32VW553/V1_MQTT_OK/GD32VW55X_Wifi_BLE_SDK/GD32VW55x_RELEASE_V1.0.2/MSDK/wpa_supplicant/src/utils\os.h **** #define os_malloc(s) malloc((s))
 486:C:/Users/stapi/OneDrive/Desktop/GD32VW553/V1_MQTT_OK/GD32VW55X_Wifi_BLE_SDK/GD32VW55x_RELEASE_V1.0.2/MSDK/wpa_supplicant/src/utils\os.h **** #endif
 487:C:/Users/stapi/OneDrive/Desktop/GD32VW553/V1_MQTT_OK/GD32VW55X_Wifi_BLE_SDK/GD32VW55x_RELEASE_V1.0.2/MSDK/wpa_supplicant/src/utils\os.h **** #ifndef os_realloc
 488:C:/Users/stapi/OneDrive/Desktop/GD32VW553/V1_MQTT_OK/GD32VW55X_Wifi_BLE_SDK/GD32VW55x_RELEASE_V1.0.2/MSDK/wpa_supplicant/src/utils\os.h **** #define os_realloc(p, s) realloc((p), (s))
 489:C:/Users/stapi/OneDrive/Desktop/GD32VW553/V1_MQTT_OK/GD32VW55X_Wifi_BLE_SDK/GD32VW55x_RELEASE_V1.0.2/MSDK/wpa_supplicant/src/utils\os.h **** #endif
 490:C:/Users/stapi/OneDrive/Desktop/GD32VW553/V1_MQTT_OK/GD32VW55X_Wifi_BLE_SDK/GD32VW55x_RELEASE_V1.0.2/MSDK/wpa_supplicant/src/utils\os.h **** #ifndef os_free
 491:C:/Users/stapi/OneDrive/Desktop/GD32VW553/V1_MQTT_OK/GD32VW55X_Wifi_BLE_SDK/GD32VW55x_RELEASE_V1.0.2/MSDK/wpa_supplicant/src/utils\os.h **** #define os_free(p) free((p))
 492:C:/Users/stapi/OneDrive/Desktop/GD32VW553/V1_MQTT_OK/GD32VW55X_Wifi_BLE_SDK/GD32VW55x_RELEASE_V1.0.2/MSDK/wpa_supplicant/src/utils\os.h **** #endif
 493:C:/Users/stapi/OneDrive/Desktop/GD32VW553/V1_MQTT_OK/GD32VW55X_Wifi_BLE_SDK/GD32VW55x_RELEASE_V1.0.2/MSDK/wpa_supplicant/src/utils\os.h **** #ifndef os_strdup
 494:C:/Users/stapi/OneDrive/Desktop/GD32VW553/V1_MQTT_OK/GD32VW55X_Wifi_BLE_SDK/GD32VW55x_RELEASE_V1.0.2/MSDK/wpa_supplicant/src/utils\os.h **** #ifdef _MSC_VER
 495:C:/Users/stapi/OneDrive/Desktop/GD32VW553/V1_MQTT_OK/GD32VW55X_Wifi_BLE_SDK/GD32VW55x_RELEASE_V1.0.2/MSDK/wpa_supplicant/src/utils\os.h **** #define os_strdup(s) _strdup(s)
 496:C:/Users/stapi/OneDrive/Desktop/GD32VW553/V1_MQTT_OK/GD32VW55X_Wifi_BLE_SDK/GD32VW55x_RELEASE_V1.0.2/MSDK/wpa_supplicant/src/utils\os.h **** #else
 497:C:/Users/stapi/OneDrive/Desktop/GD32VW553/V1_MQTT_OK/GD32VW55X_Wifi_BLE_SDK/GD32VW55x_RELEASE_V1.0.2/MSDK/wpa_supplicant/src/utils\os.h **** #define os_strdup(s) strdup(s)
 498:C:/Users/stapi/OneDrive/Desktop/GD32VW553/V1_MQTT_OK/GD32VW55X_Wifi_BLE_SDK/GD32VW55x_RELEASE_V1.0.2/MSDK/wpa_supplicant/src/utils\os.h **** #endif
 499:C:/Users/stapi/OneDrive/Desktop/GD32VW553/V1_MQTT_OK/GD32VW55X_Wifi_BLE_SDK/GD32VW55x_RELEASE_V1.0.2/MSDK/wpa_supplicant/src/utils\os.h **** #endif
 500:C:/Users/stapi/OneDrive/Desktop/GD32VW553/V1_MQTT_OK/GD32VW55X_Wifi_BLE_SDK/GD32VW55x_RELEASE_V1.0.2/MSDK/wpa_supplicant/src/utils\os.h **** #endif /* WPA_TRACE */
 501:C:/Users/stapi/OneDrive/Desktop/GD32VW553/V1_MQTT_OK/GD32VW55X_Wifi_BLE_SDK/GD32VW55x_RELEASE_V1.0.2/MSDK/wpa_supplicant/src/utils\os.h **** 
 502:C:/Users/stapi/OneDrive/Desktop/GD32VW553/V1_MQTT_OK/GD32VW55X_Wifi_BLE_SDK/GD32VW55x_RELEASE_V1.0.2/MSDK/wpa_supplicant/src/utils\os.h **** #ifndef os_memcpy
 503:C:/Users/stapi/OneDrive/Desktop/GD32VW553/V1_MQTT_OK/GD32VW55X_Wifi_BLE_SDK/GD32VW55x_RELEASE_V1.0.2/MSDK/wpa_supplicant/src/utils\os.h **** #define os_memcpy(d, s, n) memcpy((d), (s), (n))
 504:C:/Users/stapi/OneDrive/Desktop/GD32VW553/V1_MQTT_OK/GD32VW55X_Wifi_BLE_SDK/GD32VW55x_RELEASE_V1.0.2/MSDK/wpa_supplicant/src/utils\os.h **** #endif
 505:C:/Users/stapi/OneDrive/Desktop/GD32VW553/V1_MQTT_OK/GD32VW55X_Wifi_BLE_SDK/GD32VW55x_RELEASE_V1.0.2/MSDK/wpa_supplicant/src/utils\os.h **** #ifndef os_memmove
 506:C:/Users/stapi/OneDrive/Desktop/GD32VW553/V1_MQTT_OK/GD32VW55X_Wifi_BLE_SDK/GD32VW55x_RELEASE_V1.0.2/MSDK/wpa_supplicant/src/utils\os.h **** #define os_memmove(d, s, n) memmove((d), (s), (n))
 507:C:/Users/stapi/OneDrive/Desktop/GD32VW553/V1_MQTT_OK/GD32VW55X_Wifi_BLE_SDK/GD32VW55x_RELEASE_V1.0.2/MSDK/wpa_supplicant/src/utils\os.h **** #endif
 508:C:/Users/stapi/OneDrive/Desktop/GD32VW553/V1_MQTT_OK/GD32VW55X_Wifi_BLE_SDK/GD32VW55x_RELEASE_V1.0.2/MSDK/wpa_supplicant/src/utils\os.h **** #ifndef os_memset
 509:C:/Users/stapi/OneDrive/Desktop/GD32VW553/V1_MQTT_OK/GD32VW55X_Wifi_BLE_SDK/GD32VW55x_RELEASE_V1.0.2/MSDK/wpa_supplicant/src/utils\os.h **** #define os_memset(s, c, n) memset(s, c, n)
 510:C:/Users/stapi/OneDrive/Desktop/GD32VW553/V1_MQTT_OK/GD32VW55X_Wifi_BLE_SDK/GD32VW55x_RELEASE_V1.0.2/MSDK/wpa_supplicant/src/utils\os.h **** #endif
 511:C:/Users/stapi/OneDrive/Desktop/GD32VW553/V1_MQTT_OK/GD32VW55X_Wifi_BLE_SDK/GD32VW55x_RELEASE_V1.0.2/MSDK/wpa_supplicant/src/utils\os.h **** #ifndef os_memcmp
 512:C:/Users/stapi/OneDrive/Desktop/GD32VW553/V1_MQTT_OK/GD32VW55X_Wifi_BLE_SDK/GD32VW55x_RELEASE_V1.0.2/MSDK/wpa_supplicant/src/utils\os.h **** #define os_memcmp(s1, s2, n) memcmp((s1), (s2), (n))
 513:C:/Users/stapi/OneDrive/Desktop/GD32VW553/V1_MQTT_OK/GD32VW55X_Wifi_BLE_SDK/GD32VW55x_RELEASE_V1.0.2/MSDK/wpa_supplicant/src/utils\os.h **** #endif
 514:C:/Users/stapi/OneDrive/Desktop/GD32VW553/V1_MQTT_OK/GD32VW55X_Wifi_BLE_SDK/GD32VW55x_RELEASE_V1.0.2/MSDK/wpa_supplicant/src/utils\os.h **** 
 515:C:/Users/stapi/OneDrive/Desktop/GD32VW553/V1_MQTT_OK/GD32VW55X_Wifi_BLE_SDK/GD32VW55x_RELEASE_V1.0.2/MSDK/wpa_supplicant/src/utils\os.h **** #ifndef os_strlen
 516:C:/Users/stapi/OneDrive/Desktop/GD32VW553/V1_MQTT_OK/GD32VW55X_Wifi_BLE_SDK/GD32VW55x_RELEASE_V1.0.2/MSDK/wpa_supplicant/src/utils\os.h **** #define os_strlen(s) strlen(s)
 517:C:/Users/stapi/OneDrive/Desktop/GD32VW553/V1_MQTT_OK/GD32VW55X_Wifi_BLE_SDK/GD32VW55x_RELEASE_V1.0.2/MSDK/wpa_supplicant/src/utils\os.h **** #endif
 518:C:/Users/stapi/OneDrive/Desktop/GD32VW553/V1_MQTT_OK/GD32VW55X_Wifi_BLE_SDK/GD32VW55x_RELEASE_V1.0.2/MSDK/wpa_supplicant/src/utils\os.h **** #ifndef os_strcasecmp
 519:C:/Users/stapi/OneDrive/Desktop/GD32VW553/V1_MQTT_OK/GD32VW55X_Wifi_BLE_SDK/GD32VW55x_RELEASE_V1.0.2/MSDK/wpa_supplicant/src/utils\os.h **** #ifdef _MSC_VER
 520:C:/Users/stapi/OneDrive/Desktop/GD32VW553/V1_MQTT_OK/GD32VW55X_Wifi_BLE_SDK/GD32VW55x_RELEASE_V1.0.2/MSDK/wpa_supplicant/src/utils\os.h **** #define os_strcasecmp(s1, s2) _stricmp((s1), (s2))
 521:C:/Users/stapi/OneDrive/Desktop/GD32VW553/V1_MQTT_OK/GD32VW55X_Wifi_BLE_SDK/GD32VW55x_RELEASE_V1.0.2/MSDK/wpa_supplicant/src/utils\os.h **** #else
 522:C:/Users/stapi/OneDrive/Desktop/GD32VW553/V1_MQTT_OK/GD32VW55X_Wifi_BLE_SDK/GD32VW55x_RELEASE_V1.0.2/MSDK/wpa_supplicant/src/utils\os.h **** #define os_strcasecmp(s1, s2) strcasecmp((s1), (s2))
 523:C:/Users/stapi/OneDrive/Desktop/GD32VW553/V1_MQTT_OK/GD32VW55X_Wifi_BLE_SDK/GD32VW55x_RELEASE_V1.0.2/MSDK/wpa_supplicant/src/utils\os.h **** #endif
 524:C:/Users/stapi/OneDrive/Desktop/GD32VW553/V1_MQTT_OK/GD32VW55X_Wifi_BLE_SDK/GD32VW55x_RELEASE_V1.0.2/MSDK/wpa_supplicant/src/utils\os.h **** #endif
 525:C:/Users/stapi/OneDrive/Desktop/GD32VW553/V1_MQTT_OK/GD32VW55X_Wifi_BLE_SDK/GD32VW55x_RELEASE_V1.0.2/MSDK/wpa_supplicant/src/utils\os.h **** #ifndef os_strncasecmp
 526:C:/Users/stapi/OneDrive/Desktop/GD32VW553/V1_MQTT_OK/GD32VW55X_Wifi_BLE_SDK/GD32VW55x_RELEASE_V1.0.2/MSDK/wpa_supplicant/src/utils\os.h **** #ifdef _MSC_VER
 527:C:/Users/stapi/OneDrive/Desktop/GD32VW553/V1_MQTT_OK/GD32VW55X_Wifi_BLE_SDK/GD32VW55x_RELEASE_V1.0.2/MSDK/wpa_supplicant/src/utils\os.h **** #define os_strncasecmp(s1, s2, n) _strnicmp((s1), (s2), (n))
 528:C:/Users/stapi/OneDrive/Desktop/GD32VW553/V1_MQTT_OK/GD32VW55X_Wifi_BLE_SDK/GD32VW55x_RELEASE_V1.0.2/MSDK/wpa_supplicant/src/utils\os.h **** #else
 529:C:/Users/stapi/OneDrive/Desktop/GD32VW553/V1_MQTT_OK/GD32VW55X_Wifi_BLE_SDK/GD32VW55x_RELEASE_V1.0.2/MSDK/wpa_supplicant/src/utils\os.h **** #define os_strncasecmp(s1, s2, n) strncasecmp((s1), (s2), (n))
 530:C:/Users/stapi/OneDrive/Desktop/GD32VW553/V1_MQTT_OK/GD32VW55X_Wifi_BLE_SDK/GD32VW55x_RELEASE_V1.0.2/MSDK/wpa_supplicant/src/utils\os.h **** #endif
 531:C:/Users/stapi/OneDrive/Desktop/GD32VW553/V1_MQTT_OK/GD32VW55X_Wifi_BLE_SDK/GD32VW55x_RELEASE_V1.0.2/MSDK/wpa_supplicant/src/utils\os.h **** #endif
 532:C:/Users/stapi/OneDrive/Desktop/GD32VW553/V1_MQTT_OK/GD32VW55X_Wifi_BLE_SDK/GD32VW55x_RELEASE_V1.0.2/MSDK/wpa_supplicant/src/utils\os.h **** #ifndef os_strchr
 533:C:/Users/stapi/OneDrive/Desktop/GD32VW553/V1_MQTT_OK/GD32VW55X_Wifi_BLE_SDK/GD32VW55x_RELEASE_V1.0.2/MSDK/wpa_supplicant/src/utils\os.h **** #define os_strchr(s, c) strchr((s), (c))
 534:C:/Users/stapi/OneDrive/Desktop/GD32VW553/V1_MQTT_OK/GD32VW55X_Wifi_BLE_SDK/GD32VW55x_RELEASE_V1.0.2/MSDK/wpa_supplicant/src/utils\os.h **** #endif
 535:C:/Users/stapi/OneDrive/Desktop/GD32VW553/V1_MQTT_OK/GD32VW55X_Wifi_BLE_SDK/GD32VW55x_RELEASE_V1.0.2/MSDK/wpa_supplicant/src/utils\os.h **** #ifndef os_strcmp
 536:C:/Users/stapi/OneDrive/Desktop/GD32VW553/V1_MQTT_OK/GD32VW55X_Wifi_BLE_SDK/GD32VW55x_RELEASE_V1.0.2/MSDK/wpa_supplicant/src/utils\os.h **** #define os_strcmp(s1, s2) strcmp((s1), (s2))
 537:C:/Users/stapi/OneDrive/Desktop/GD32VW553/V1_MQTT_OK/GD32VW55X_Wifi_BLE_SDK/GD32VW55x_RELEASE_V1.0.2/MSDK/wpa_supplicant/src/utils\os.h **** #endif
 538:C:/Users/stapi/OneDrive/Desktop/GD32VW553/V1_MQTT_OK/GD32VW55X_Wifi_BLE_SDK/GD32VW55x_RELEASE_V1.0.2/MSDK/wpa_supplicant/src/utils\os.h **** #ifndef os_strncmp
 539:C:/Users/stapi/OneDrive/Desktop/GD32VW553/V1_MQTT_OK/GD32VW55X_Wifi_BLE_SDK/GD32VW55x_RELEASE_V1.0.2/MSDK/wpa_supplicant/src/utils\os.h **** #define os_strncmp(s1, s2, n) strncmp((s1), (s2), (n))
 540:C:/Users/stapi/OneDrive/Desktop/GD32VW553/V1_MQTT_OK/GD32VW55X_Wifi_BLE_SDK/GD32VW55x_RELEASE_V1.0.2/MSDK/wpa_supplicant/src/utils\os.h **** #endif
 541:C:/Users/stapi/OneDrive/Desktop/GD32VW553/V1_MQTT_OK/GD32VW55X_Wifi_BLE_SDK/GD32VW55x_RELEASE_V1.0.2/MSDK/wpa_supplicant/src/utils\os.h **** #ifndef os_strrchr
 542:C:/Users/stapi/OneDrive/Desktop/GD32VW553/V1_MQTT_OK/GD32VW55X_Wifi_BLE_SDK/GD32VW55x_RELEASE_V1.0.2/MSDK/wpa_supplicant/src/utils\os.h **** #define os_strrchr(s, c) strrchr((s), (c))
 543:C:/Users/stapi/OneDrive/Desktop/GD32VW553/V1_MQTT_OK/GD32VW55X_Wifi_BLE_SDK/GD32VW55x_RELEASE_V1.0.2/MSDK/wpa_supplicant/src/utils\os.h **** #endif
 544:C:/Users/stapi/OneDrive/Desktop/GD32VW553/V1_MQTT_OK/GD32VW55X_Wifi_BLE_SDK/GD32VW55x_RELEASE_V1.0.2/MSDK/wpa_supplicant/src/utils\os.h **** #ifndef os_strstr
 545:C:/Users/stapi/OneDrive/Desktop/GD32VW553/V1_MQTT_OK/GD32VW55X_Wifi_BLE_SDK/GD32VW55x_RELEASE_V1.0.2/MSDK/wpa_supplicant/src/utils\os.h **** #define os_strstr(h, n) strstr((h), (n))
 546:C:/Users/stapi/OneDrive/Desktop/GD32VW553/V1_MQTT_OK/GD32VW55X_Wifi_BLE_SDK/GD32VW55x_RELEASE_V1.0.2/MSDK/wpa_supplicant/src/utils\os.h **** #endif
 547:C:/Users/stapi/OneDrive/Desktop/GD32VW553/V1_MQTT_OK/GD32VW55X_Wifi_BLE_SDK/GD32VW55x_RELEASE_V1.0.2/MSDK/wpa_supplicant/src/utils\os.h **** 
 548:C:/Users/stapi/OneDrive/Desktop/GD32VW553/V1_MQTT_OK/GD32VW55X_Wifi_BLE_SDK/GD32VW55x_RELEASE_V1.0.2/MSDK/wpa_supplicant/src/utils\os.h **** #ifndef os_snprintf
 549:C:/Users/stapi/OneDrive/Desktop/GD32VW553/V1_MQTT_OK/GD32VW55X_Wifi_BLE_SDK/GD32VW55x_RELEASE_V1.0.2/MSDK/wpa_supplicant/src/utils\os.h **** #ifdef _MSC_VER
 550:C:/Users/stapi/OneDrive/Desktop/GD32VW553/V1_MQTT_OK/GD32VW55X_Wifi_BLE_SDK/GD32VW55x_RELEASE_V1.0.2/MSDK/wpa_supplicant/src/utils\os.h **** #define os_snprintf _snprintf
 551:C:/Users/stapi/OneDrive/Desktop/GD32VW553/V1_MQTT_OK/GD32VW55X_Wifi_BLE_SDK/GD32VW55x_RELEASE_V1.0.2/MSDK/wpa_supplicant/src/utils\os.h **** #else
 552:C:/Users/stapi/OneDrive/Desktop/GD32VW553/V1_MQTT_OK/GD32VW55X_Wifi_BLE_SDK/GD32VW55x_RELEASE_V1.0.2/MSDK/wpa_supplicant/src/utils\os.h **** #define os_snprintf snprintf
 553:C:/Users/stapi/OneDrive/Desktop/GD32VW553/V1_MQTT_OK/GD32VW55X_Wifi_BLE_SDK/GD32VW55x_RELEASE_V1.0.2/MSDK/wpa_supplicant/src/utils\os.h **** #endif
 554:C:/Users/stapi/OneDrive/Desktop/GD32VW553/V1_MQTT_OK/GD32VW55X_Wifi_BLE_SDK/GD32VW55x_RELEASE_V1.0.2/MSDK/wpa_supplicant/src/utils\os.h **** #endif
 555:C:/Users/stapi/OneDrive/Desktop/GD32VW553/V1_MQTT_OK/GD32VW55X_Wifi_BLE_SDK/GD32VW55x_RELEASE_V1.0.2/MSDK/wpa_supplicant/src/utils\os.h **** 
 556:C:/Users/stapi/OneDrive/Desktop/GD32VW553/V1_MQTT_OK/GD32VW55X_Wifi_BLE_SDK/GD32VW55x_RELEASE_V1.0.2/MSDK/wpa_supplicant/src/utils\os.h **** #endif /* OS_NO_C_LIB_DEFINES */
 557:C:/Users/stapi/OneDrive/Desktop/GD32VW553/V1_MQTT_OK/GD32VW55X_Wifi_BLE_SDK/GD32VW55x_RELEASE_V1.0.2/MSDK/wpa_supplicant/src/utils\os.h **** 
 558:C:/Users/stapi/OneDrive/Desktop/GD32VW553/V1_MQTT_OK/GD32VW55X_Wifi_BLE_SDK/GD32VW55x_RELEASE_V1.0.2/MSDK/wpa_supplicant/src/utils\os.h **** 
 559:C:/Users/stapi/OneDrive/Desktop/GD32VW553/V1_MQTT_OK/GD32VW55X_Wifi_BLE_SDK/GD32VW55x_RELEASE_V1.0.2/MSDK/wpa_supplicant/src/utils\os.h **** static inline int os_snprintf_error(size_t size, int res)
 560:C:/Users/stapi/OneDrive/Desktop/GD32VW553/V1_MQTT_OK/GD32VW55X_Wifi_BLE_SDK/GD32VW55x_RELEASE_V1.0.2/MSDK/wpa_supplicant/src/utils\os.h **** {
 561:C:/Users/stapi/OneDrive/Desktop/GD32VW553/V1_MQTT_OK/GD32VW55X_Wifi_BLE_SDK/GD32VW55x_RELEASE_V1.0.2/MSDK/wpa_supplicant/src/utils\os.h **** 	return res < 0 || (unsigned int) res >= size;
 842              		.loc 2 561 2
 843              		.loc 2 561 17 is_stmt 0
 844 0098 93071008 		li	a5,129
 845 009c 63F4A700 		bleu	a0,a5,.L67
 846              	.LVL78:
 847              	.LBE27:
 848              	.LBE26:
 669:C:/Users/stapi/OneDrive/Desktop/GD32VW553/V1_MQTT_OK/GD32VW55X_Wifi_BLE_SDK/GD32VW55x_RELEASE_V1.0.2/MSDK/wpa_supplicant/src/utils\wpa_debug.c **** 		}
 849              		.loc 1 669 5 is_stmt 1
 669:C:/Users/stapi/OneDrive/Desktop/GD32VW553/V1_MQTT_OK/GD32VW55X_Wifi_BLE_SDK/GD32VW55x_RELEASE_V1.0.2/MSDK/wpa_supplicant/src/utils\wpa_debug.c **** 		}
 850              		.loc 1 669 15 is_stmt 0
 851 00a0 230E0100 		sb	zero,28(sp)
 852              	.LVL79:
 853              	.L67:
 854              	.LBE25:
 855              	.LBE24:
 672:C:/Users/stapi/OneDrive/Desktop/GD32VW553/V1_MQTT_OK/GD32VW55X_Wifi_BLE_SDK/GD32VW55x_RELEASE_V1.0.2/MSDK/wpa_supplicant/src/utils\wpa_debug.c **** 	va_end(ap);
 856              		.loc 1 672 2 is_stmt 1
 672:C:/Users/stapi/OneDrive/Desktop/GD32VW553/V1_MQTT_OK/GD32VW55X_Wifi_BLE_SDK/GD32VW55x_RELEASE_V1.0.2/MSDK/wpa_supplicant/src/utils\wpa_debug.c **** 	va_end(ap);
 857              		.loc 1 672 8 is_stmt 0
 858 00a4 6247     		lw	a4,24(sp)
 859 00a6 D286     		mv	a3,s4
 860 00a8 0146     		li	a2,0
 861 00aa A685     		mv	a1,s1
 862 00ac 2285     		mv	a0,s0
 863 00ae 97000000 		call	dbg_vsnprintf_offset
 863      E7800000 
 864              	.LVL80:
 674:C:/Users/stapi/OneDrive/Desktop/GD32VW553/V1_MQTT_OK/GD32VW55X_Wifi_BLE_SDK/GD32VW55x_RELEASE_V1.0.2/MSDK/wpa_supplicant/src/utils\wpa_debug.c **** 	if (wpa_msg_cb)
 865              		.loc 1 674 2
 866 00b6 B7050000 		lui	a1,%hi(.LC12)
 672:C:/Users/stapi/OneDrive/Desktop/GD32VW553/V1_MQTT_OK/GD32VW55X_Wifi_BLE_SDK/GD32VW55x_RELEASE_V1.0.2/MSDK/wpa_supplicant/src/utils\wpa_debug.c **** 	va_end(ap);
 867              		.loc 1 672 8
 868 00ba 2AC6     		sw	a0,12(sp)
 869              	.LVL81:
 673:C:/Users/stapi/OneDrive/Desktop/GD32VW553/V1_MQTT_OK/GD32VW55X_Wifi_BLE_SDK/GD32VW55x_RELEASE_V1.0.2/MSDK/wpa_supplicant/src/utils\wpa_debug.c **** 	wpa_printf(level, "%s%s", prefix, buf);
 870              		.loc 1 673 2 is_stmt 1
 674:C:/Users/stapi/OneDrive/Desktop/GD32VW553/V1_MQTT_OK/GD32VW55X_Wifi_BLE_SDK/GD32VW55x_RELEASE_V1.0.2/MSDK/wpa_supplicant/src/utils\wpa_debug.c **** 	if (wpa_msg_cb)
 871              		.loc 1 674 2
 872 00bc A286     		mv	a3,s0
 873 00be 7008     		addi	a2,sp,28
 874 00c0 93850500 		addi	a1,a1,%lo(.LC12)
 875 00c4 4E85     		mv	a0,s3
 876              	.LVL82:
 877 00c6 97000000 		call	wpa_printf
 877      E7800000 
 878              	.LVL83:
 675:C:/Users/stapi/OneDrive/Desktop/GD32VW553/V1_MQTT_OK/GD32VW55X_Wifi_BLE_SDK/GD32VW55x_RELEASE_V1.0.2/MSDK/wpa_supplicant/src/utils\wpa_debug.c **** 		wpa_msg_cb(ctx, level, WPA_MSG_PER_INTERFACE, buf, len);
 879              		.loc 1 675 2
 675:C:/Users/stapi/OneDrive/Desktop/GD32VW553/V1_MQTT_OK/GD32VW55X_Wifi_BLE_SDK/GD32VW55x_RELEASE_V1.0.2/MSDK/wpa_supplicant/src/utils\wpa_debug.c **** 		wpa_msg_cb(ctx, level, WPA_MSG_PER_INTERFACE, buf, len);
 880              		.loc 1 675 6 is_stmt 0
 881 00ce B7070000 		lui	a5,%hi(.LANCHOR4)
 882 00d2 83A70700 		lw	a5,%lo(.LANCHOR4)(a5)
 675:C:/Users/stapi/OneDrive/Desktop/GD32VW553/V1_MQTT_OK/GD32VW55X_Wifi_BLE_SDK/GD32VW55x_RELEASE_V1.0.2/MSDK/wpa_supplicant/src/utils\wpa_debug.c **** 		wpa_msg_cb(ctx, level, WPA_MSG_PER_INTERFACE, buf, len);
 883              		.loc 1 675 5
 884 00d6 99C7     		beq	a5,zero,.L69
 676:C:/Users/stapi/OneDrive/Desktop/GD32VW553/V1_MQTT_OK/GD32VW55X_Wifi_BLE_SDK/GD32VW55x_RELEASE_V1.0.2/MSDK/wpa_supplicant/src/utils\wpa_debug.c **** 	bin_clear_free(buf, buflen);
 885              		.loc 1 676 3 is_stmt 1
 886 00d8 3247     		lw	a4,12(sp)
 887 00da A286     		mv	a3,s0
 888 00dc 0146     		li	a2,0
 889 00de CE85     		mv	a1,s3
 890 00e0 4A85     		mv	a0,s2
 891 00e2 8297     		jalr	a5
 892              	.LVL84:
 893              	.L69:
 677:C:/Users/stapi/OneDrive/Desktop/GD32VW553/V1_MQTT_OK/GD32VW55X_Wifi_BLE_SDK/GD32VW55x_RELEASE_V1.0.2/MSDK/wpa_supplicant/src/utils\wpa_debug.c **** }
 894              		.loc 1 677 2
 895 00e4 A685     		mv	a1,s1
 896 00e6 2285     		mv	a0,s0
 897 00e8 97000000 		call	bin_clear_free
 897      E7800000 
 898              	.LVL85:
 899 00f0 9DB7     		j	.L63
 900              		.cfi_endproc
 901              	.LFE85:
 903              		.section	.rodata.wpa_msg_ctrl.str1.4,"aMS",@progbits,1
 904              		.align	2
 905              	.LC13:
 906 0000 7770615F 		.string	"wpa_msg_ctrl: Failed to allocate message buffer"
 906      6D73675F 
 906      6374726C 
 906      3A204661 
 906      696C6564 
 907              		.section	.text.wpa_msg_ctrl,"ax",@progbits
 908              		.align	1
 909              		.globl	wpa_msg_ctrl
 911              	wpa_msg_ctrl:
 912              	.LFB86:
 679:C:/Users/stapi/OneDrive/Desktop/GD32VW553/V1_MQTT_OK/GD32VW55X_Wifi_BLE_SDK/GD32VW55x_RELEASE_V1.0.2/MSDK/wpa_supplicant/src/utils\wpa_debug.c **** 
 680:C:/Users/stapi/OneDrive/Desktop/GD32VW553/V1_MQTT_OK/GD32VW55X_Wifi_BLE_SDK/GD32VW55x_RELEASE_V1.0.2/MSDK/wpa_supplicant/src/utils\wpa_debug.c **** 
 681:C:/Users/stapi/OneDrive/Desktop/GD32VW553/V1_MQTT_OK/GD32VW55X_Wifi_BLE_SDK/GD32VW55x_RELEASE_V1.0.2/MSDK/wpa_supplicant/src/utils\wpa_debug.c **** void wpa_msg_ctrl(void *ctx, int level, const char *fmt, ...)
 682:C:/Users/stapi/OneDrive/Desktop/GD32VW553/V1_MQTT_OK/GD32VW55X_Wifi_BLE_SDK/GD32VW55x_RELEASE_V1.0.2/MSDK/wpa_supplicant/src/utils\wpa_debug.c **** {
 913              		.loc 1 682 1
 914              		.cfi_startproc
 915              	.LVL86:
 683:C:/Users/stapi/OneDrive/Desktop/GD32VW553/V1_MQTT_OK/GD32VW55X_Wifi_BLE_SDK/GD32VW55x_RELEASE_V1.0.2/MSDK/wpa_supplicant/src/utils\wpa_debug.c **** 	va_list ap;
 916              		.loc 1 683 2
 684:C:/Users/stapi/OneDrive/Desktop/GD32VW553/V1_MQTT_OK/GD32VW55X_Wifi_BLE_SDK/GD32VW55x_RELEASE_V1.0.2/MSDK/wpa_supplicant/src/utils\wpa_debug.c **** 	char *buf;
 917              		.loc 1 684 2
 685:C:/Users/stapi/OneDrive/Desktop/GD32VW553/V1_MQTT_OK/GD32VW55X_Wifi_BLE_SDK/GD32VW55x_RELEASE_V1.0.2/MSDK/wpa_supplicant/src/utils\wpa_debug.c **** 	int buflen;
 918              		.loc 1 685 2
 686:C:/Users/stapi/OneDrive/Desktop/GD32VW553/V1_MQTT_OK/GD32VW55X_Wifi_BLE_SDK/GD32VW55x_RELEASE_V1.0.2/MSDK/wpa_supplicant/src/utils\wpa_debug.c **** 	int len;
 919              		.loc 1 686 2
 687:C:/Users/stapi/OneDrive/Desktop/GD32VW553/V1_MQTT_OK/GD32VW55X_Wifi_BLE_SDK/GD32VW55x_RELEASE_V1.0.2/MSDK/wpa_supplicant/src/utils\wpa_debug.c **** 
 688:C:/Users/stapi/OneDrive/Desktop/GD32VW553/V1_MQTT_OK/GD32VW55X_Wifi_BLE_SDK/GD32VW55x_RELEASE_V1.0.2/MSDK/wpa_supplicant/src/utils\wpa_debug.c **** 	if (!wpa_msg_cb)
 920              		.loc 1 688 2
 682:C:/Users/stapi/OneDrive/Desktop/GD32VW553/V1_MQTT_OK/GD32VW55X_Wifi_BLE_SDK/GD32VW55x_RELEASE_V1.0.2/MSDK/wpa_supplicant/src/utils\wpa_debug.c **** 	va_list ap;
 921              		.loc 1 682 1 is_stmt 0
 922 0000 5D71     		addi	sp,sp,-80
 923              		.cfi_def_cfa_offset 80
 924 0002 4AD0     		sw	s2,32(sp)
 925              		.cfi_offset 18, -48
 926              		.loc 1 688 6
 927 0004 37090000 		lui	s2,%hi(.LANCHOR4)
 928 0008 13090900 		addi	s2,s2,%lo(.LANCHOR4)
 682:C:/Users/stapi/OneDrive/Desktop/GD32VW553/V1_MQTT_OK/GD32VW55X_Wifi_BLE_SDK/GD32VW55x_RELEASE_V1.0.2/MSDK/wpa_supplicant/src/utils\wpa_debug.c **** 	va_list ap;
 929              		.loc 1 682 1
 930 000c BEC2     		sw	a5,68(sp)
 931              		.loc 1 688 5
 932 000e 83270900 		lw	a5,0(s2)
 682:C:/Users/stapi/OneDrive/Desktop/GD32VW553/V1_MQTT_OK/GD32VW55X_Wifi_BLE_SDK/GD32VW55x_RELEASE_V1.0.2/MSDK/wpa_supplicant/src/utils\wpa_debug.c **** 	va_list ap;
 933              		.loc 1 682 1
 934 0012 06D6     		sw	ra,44(sp)
 935 0014 22D4     		sw	s0,40(sp)
 936 0016 26D2     		sw	s1,36(sp)
 937 0018 4ECE     		sw	s3,28(sp)
 938 001a 52CC     		sw	s4,24(sp)
 939 001c 56CA     		sw	s5,20(sp)
 940              		.cfi_offset 1, -36
 941              		.cfi_offset 8, -40
 942              		.cfi_offset 9, -44
 943              		.cfi_offset 19, -52
 944              		.cfi_offset 20, -56
 945              		.cfi_offset 21, -60
 682:C:/Users/stapi/OneDrive/Desktop/GD32VW553/V1_MQTT_OK/GD32VW55X_Wifi_BLE_SDK/GD32VW55x_RELEASE_V1.0.2/MSDK/wpa_supplicant/src/utils\wpa_debug.c **** 	va_list ap;
 946              		.loc 1 682 1
 947 001e 36DE     		sw	a3,60(sp)
 948 0020 BAC0     		sw	a4,64(sp)
 949 0022 C2C4     		sw	a6,72(sp)
 950 0024 C6C6     		sw	a7,76(sp)
 951              		.loc 1 688 5
 952 0026 A9C3     		beq	a5,zero,.L77
 689:C:/Users/stapi/OneDrive/Desktop/GD32VW553/V1_MQTT_OK/GD32VW55X_Wifi_BLE_SDK/GD32VW55x_RELEASE_V1.0.2/MSDK/wpa_supplicant/src/utils\wpa_debug.c **** 		return;
 690:C:/Users/stapi/OneDrive/Desktop/GD32VW553/V1_MQTT_OK/GD32VW55X_Wifi_BLE_SDK/GD32VW55x_RELEASE_V1.0.2/MSDK/wpa_supplicant/src/utils\wpa_debug.c **** 
 691:C:/Users/stapi/OneDrive/Desktop/GD32VW553/V1_MQTT_OK/GD32VW55X_Wifi_BLE_SDK/GD32VW55x_RELEASE_V1.0.2/MSDK/wpa_supplicant/src/utils\wpa_debug.c **** 	va_start(ap, fmt);
 953              		.loc 1 691 2
 954 0028 7C18     		addi	a5,sp,60
 692:C:/Users/stapi/OneDrive/Desktop/GD32VW553/V1_MQTT_OK/GD32VW55X_Wifi_BLE_SDK/GD32VW55x_RELEASE_V1.0.2/MSDK/wpa_supplicant/src/utils\wpa_debug.c **** 	buflen = vsnprintf(NULL, 0, fmt, ap) + 1;
 955              		.loc 1 692 11
 956 002a B286     		mv	a3,a2
 957 002c 3E87     		mv	a4,a5
 958 002e 2A8A     		mv	s4,a0
 959 0030 AE8A     		mv	s5,a1
 960 0032 B289     		mv	s3,a2
 691:C:/Users/stapi/OneDrive/Desktop/GD32VW553/V1_MQTT_OK/GD32VW55X_Wifi_BLE_SDK/GD32VW55x_RELEASE_V1.0.2/MSDK/wpa_supplicant/src/utils\wpa_debug.c **** 	buflen = vsnprintf(NULL, 0, fmt, ap) + 1;
 961              		.loc 1 691 2 is_stmt 1
 962              		.loc 1 692 11 is_stmt 0
 963 0034 8145     		li	a1,0
 964              	.LVL87:
 965 0036 0146     		li	a2,0
 966              	.LVL88:
 967 0038 0145     		li	a0,0
 968              	.LVL89:
 691:C:/Users/stapi/OneDrive/Desktop/GD32VW553/V1_MQTT_OK/GD32VW55X_Wifi_BLE_SDK/GD32VW55x_RELEASE_V1.0.2/MSDK/wpa_supplicant/src/utils\wpa_debug.c **** 	buflen = vsnprintf(NULL, 0, fmt, ap) + 1;
 969              		.loc 1 691 2
 970 003a 3EC6     		sw	a5,12(sp)
 971              		.loc 1 692 2 is_stmt 1
 972              		.loc 1 692 11 is_stmt 0
 973 003c 97000000 		call	dbg_vsnprintf_offset
 973      E7800000 
 974              	.LVL90:
 975              		.loc 1 692 39
 976 0044 93041500 		addi	s1,a0,1
 977              	.LVL91:
 693:C:/Users/stapi/OneDrive/Desktop/GD32VW553/V1_MQTT_OK/GD32VW55X_Wifi_BLE_SDK/GD32VW55x_RELEASE_V1.0.2/MSDK/wpa_supplicant/src/utils\wpa_debug.c **** 	va_end(ap);
 978              		.loc 1 693 2 is_stmt 1
 694:C:/Users/stapi/OneDrive/Desktop/GD32VW553/V1_MQTT_OK/GD32VW55X_Wifi_BLE_SDK/GD32VW55x_RELEASE_V1.0.2/MSDK/wpa_supplicant/src/utils\wpa_debug.c **** 
 695:C:/Users/stapi/OneDrive/Desktop/GD32VW553/V1_MQTT_OK/GD32VW55X_Wifi_BLE_SDK/GD32VW55x_RELEASE_V1.0.2/MSDK/wpa_supplicant/src/utils\wpa_debug.c **** 	buf = os_malloc(buflen);
 979              		.loc 1 695 2
 980              		.loc 1 695 8 is_stmt 0
 981 0048 2685     		mv	a0,s1
 982 004a 97000000 		call	os_malloc
 982      E7800000 
 983              	.LVL92:
 984 0052 2A84     		mv	s0,a0
 985              	.LVL93:
 696:C:/Users/stapi/OneDrive/Desktop/GD32VW553/V1_MQTT_OK/GD32VW55X_Wifi_BLE_SDK/GD32VW55x_RELEASE_V1.0.2/MSDK/wpa_supplicant/src/utils\wpa_debug.c **** 	if (buf == NULL) {
 986              		.loc 1 696 2 is_stmt 1
 987              		.loc 1 696 5 is_stmt 0
 988 0054 1DE1     		bne	a0,zero,.L79
 697:C:/Users/stapi/OneDrive/Desktop/GD32VW553/V1_MQTT_OK/GD32VW55X_Wifi_BLE_SDK/GD32VW55x_RELEASE_V1.0.2/MSDK/wpa_supplicant/src/utils\wpa_debug.c **** 		wpa_printf(MSG_ERROR, "wpa_msg_ctrl: Failed to allocate "
 989              		.loc 1 697 3 is_stmt 1
 990 0056 B7050000 		lui	a1,%hi(.LC13)
 991 005a 93850500 		addi	a1,a1,%lo(.LC13)
 992 005e 1545     		li	a0,5
 993 0060 97000000 		call	wpa_printf
 993      E7800000 
 994              	.LVL94:
 698:C:/Users/stapi/OneDrive/Desktop/GD32VW553/V1_MQTT_OK/GD32VW55X_Wifi_BLE_SDK/GD32VW55x_RELEASE_V1.0.2/MSDK/wpa_supplicant/src/utils\wpa_debug.c **** 			   "message buffer");
 699:C:/Users/stapi/OneDrive/Desktop/GD32VW553/V1_MQTT_OK/GD32VW55X_Wifi_BLE_SDK/GD32VW55x_RELEASE_V1.0.2/MSDK/wpa_supplicant/src/utils\wpa_debug.c **** 		return;
 995              		.loc 1 699 3
 996              	.L77:
 700:C:/Users/stapi/OneDrive/Desktop/GD32VW553/V1_MQTT_OK/GD32VW55X_Wifi_BLE_SDK/GD32VW55x_RELEASE_V1.0.2/MSDK/wpa_supplicant/src/utils\wpa_debug.c **** 	}
 701:C:/Users/stapi/OneDrive/Desktop/GD32VW553/V1_MQTT_OK/GD32VW55X_Wifi_BLE_SDK/GD32VW55x_RELEASE_V1.0.2/MSDK/wpa_supplicant/src/utils\wpa_debug.c **** 	va_start(ap, fmt);
 702:C:/Users/stapi/OneDrive/Desktop/GD32VW553/V1_MQTT_OK/GD32VW55X_Wifi_BLE_SDK/GD32VW55x_RELEASE_V1.0.2/MSDK/wpa_supplicant/src/utils\wpa_debug.c **** 	len = vsnprintf(buf, buflen, fmt, ap);
 703:C:/Users/stapi/OneDrive/Desktop/GD32VW553/V1_MQTT_OK/GD32VW55X_Wifi_BLE_SDK/GD32VW55x_RELEASE_V1.0.2/MSDK/wpa_supplicant/src/utils\wpa_debug.c **** 	va_end(ap);
 704:C:/Users/stapi/OneDrive/Desktop/GD32VW553/V1_MQTT_OK/GD32VW55X_Wifi_BLE_SDK/GD32VW55x_RELEASE_V1.0.2/MSDK/wpa_supplicant/src/utils\wpa_debug.c **** 	wpa_msg_cb(ctx, level, WPA_MSG_PER_INTERFACE, buf, len);
 705:C:/Users/stapi/OneDrive/Desktop/GD32VW553/V1_MQTT_OK/GD32VW55X_Wifi_BLE_SDK/GD32VW55x_RELEASE_V1.0.2/MSDK/wpa_supplicant/src/utils\wpa_debug.c **** 	bin_clear_free(buf, buflen);
 706:C:/Users/stapi/OneDrive/Desktop/GD32VW553/V1_MQTT_OK/GD32VW55X_Wifi_BLE_SDK/GD32VW55x_RELEASE_V1.0.2/MSDK/wpa_supplicant/src/utils\wpa_debug.c **** }
 997              		.loc 1 706 1 is_stmt 0
 998 0068 B250     		lw	ra,44(sp)
 999              		.cfi_remember_state
 1000              		.cfi_restore 1
 1001 006a 2254     		lw	s0,40(sp)
 1002              		.cfi_restore 8
 1003 006c 9254     		lw	s1,36(sp)
 1004              		.cfi_restore 9
 1005 006e 0259     		lw	s2,32(sp)
 1006              		.cfi_restore 18
 1007 0070 F249     		lw	s3,28(sp)
 1008              		.cfi_restore 19
 1009 0072 624A     		lw	s4,24(sp)
 1010              		.cfi_restore 20
 1011 0074 D24A     		lw	s5,20(sp)
 1012              		.cfi_restore 21
 1013 0076 6161     		addi	sp,sp,80
 1014              		.cfi_def_cfa_offset 0
 1015 0078 8280     		jr	ra
 1016              	.LVL95:
 1017              	.L79:
 1018              		.cfi_restore_state
 701:C:/Users/stapi/OneDrive/Desktop/GD32VW553/V1_MQTT_OK/GD32VW55X_Wifi_BLE_SDK/GD32VW55x_RELEASE_V1.0.2/MSDK/wpa_supplicant/src/utils\wpa_debug.c **** 	len = vsnprintf(buf, buflen, fmt, ap);
 1019              		.loc 1 701 2 is_stmt 1
 1020 007a 7C18     		addi	a5,sp,60
 702:C:/Users/stapi/OneDrive/Desktop/GD32VW553/V1_MQTT_OK/GD32VW55X_Wifi_BLE_SDK/GD32VW55x_RELEASE_V1.0.2/MSDK/wpa_supplicant/src/utils\wpa_debug.c **** 	va_end(ap);
 1021              		.loc 1 702 8 is_stmt 0
 1022 007c 3E87     		mv	a4,a5
 1023 007e CE86     		mv	a3,s3
 1024 0080 A685     		mv	a1,s1
 1025 0082 0146     		li	a2,0
 701:C:/Users/stapi/OneDrive/Desktop/GD32VW553/V1_MQTT_OK/GD32VW55X_Wifi_BLE_SDK/GD32VW55x_RELEASE_V1.0.2/MSDK/wpa_supplicant/src/utils\wpa_debug.c **** 	len = vsnprintf(buf, buflen, fmt, ap);
 1026              		.loc 1 701 2
 1027 0084 3EC6     		sw	a5,12(sp)
 702:C:/Users/stapi/OneDrive/Desktop/GD32VW553/V1_MQTT_OK/GD32VW55X_Wifi_BLE_SDK/GD32VW55x_RELEASE_V1.0.2/MSDK/wpa_supplicant/src/utils\wpa_debug.c **** 	va_end(ap);
 1028              		.loc 1 702 2 is_stmt 1
 702:C:/Users/stapi/OneDrive/Desktop/GD32VW553/V1_MQTT_OK/GD32VW55X_Wifi_BLE_SDK/GD32VW55x_RELEASE_V1.0.2/MSDK/wpa_supplicant/src/utils\wpa_debug.c **** 	va_end(ap);
 1029              		.loc 1 702 8 is_stmt 0
 1030 0086 97000000 		call	dbg_vsnprintf_offset
 1030      E7800000 
 1031              	.LVL96:
 704:C:/Users/stapi/OneDrive/Desktop/GD32VW553/V1_MQTT_OK/GD32VW55X_Wifi_BLE_SDK/GD32VW55x_RELEASE_V1.0.2/MSDK/wpa_supplicant/src/utils\wpa_debug.c **** 	bin_clear_free(buf, buflen);
 1032              		.loc 1 704 2
 1033 008e 83270900 		lw	a5,0(s2)
 702:C:/Users/stapi/OneDrive/Desktop/GD32VW553/V1_MQTT_OK/GD32VW55X_Wifi_BLE_SDK/GD32VW55x_RELEASE_V1.0.2/MSDK/wpa_supplicant/src/utils\wpa_debug.c **** 	va_end(ap);
 1034              		.loc 1 702 8
 1035 0092 2A87     		mv	a4,a0
 1036              	.LVL97:
 703:C:/Users/stapi/OneDrive/Desktop/GD32VW553/V1_MQTT_OK/GD32VW55X_Wifi_BLE_SDK/GD32VW55x_RELEASE_V1.0.2/MSDK/wpa_supplicant/src/utils\wpa_debug.c **** 	wpa_msg_cb(ctx, level, WPA_MSG_PER_INTERFACE, buf, len);
 1037              		.loc 1 703 2 is_stmt 1
 704:C:/Users/stapi/OneDrive/Desktop/GD32VW553/V1_MQTT_OK/GD32VW55X_Wifi_BLE_SDK/GD32VW55x_RELEASE_V1.0.2/MSDK/wpa_supplicant/src/utils\wpa_debug.c **** 	bin_clear_free(buf, buflen);
 1038              		.loc 1 704 2
 1039 0094 D685     		mv	a1,s5
 1040 0096 5285     		mv	a0,s4
 1041              	.LVL98:
 1042 0098 A286     		mv	a3,s0
 1043 009a 0146     		li	a2,0
 1044 009c 8297     		jalr	a5
 1045              	.LVL99:
 705:C:/Users/stapi/OneDrive/Desktop/GD32VW553/V1_MQTT_OK/GD32VW55X_Wifi_BLE_SDK/GD32VW55x_RELEASE_V1.0.2/MSDK/wpa_supplicant/src/utils\wpa_debug.c **** }
 1046              		.loc 1 705 2
 1047 009e A685     		mv	a1,s1
 1048 00a0 2285     		mv	a0,s0
 1049 00a2 97000000 		call	bin_clear_free
 1049      E7800000 
 1050              	.LVL100:
 1051 00aa 7DBF     		j	.L77
 1052              		.cfi_endproc
 1053              	.LFE86:
 1055              		.section	.rodata.wpa_msg_global.str1.4,"aMS",@progbits,1
 1056              		.align	2
 1057              	.LC14:
 1058 0000 7770615F 		.string	"wpa_msg_global: Failed to allocate message buffer"
 1058      6D73675F 
 1058      676C6F62 
 1058      616C3A20 
 1058      4661696C 
 1059 0032 0000     		.align	2
 1060              	.LC15:
 1061 0034 257300   		.string	"%s"
 1062              		.section	.text.wpa_msg_global,"ax",@progbits
 1063              		.align	1
 1064              		.globl	wpa_msg_global
 1066              	wpa_msg_global:
 1067              	.LFB87:
 707:C:/Users/stapi/OneDrive/Desktop/GD32VW553/V1_MQTT_OK/GD32VW55X_Wifi_BLE_SDK/GD32VW55x_RELEASE_V1.0.2/MSDK/wpa_supplicant/src/utils\wpa_debug.c **** 
 708:C:/Users/stapi/OneDrive/Desktop/GD32VW553/V1_MQTT_OK/GD32VW55X_Wifi_BLE_SDK/GD32VW55x_RELEASE_V1.0.2/MSDK/wpa_supplicant/src/utils\wpa_debug.c **** 
 709:C:/Users/stapi/OneDrive/Desktop/GD32VW553/V1_MQTT_OK/GD32VW55X_Wifi_BLE_SDK/GD32VW55x_RELEASE_V1.0.2/MSDK/wpa_supplicant/src/utils\wpa_debug.c **** void wpa_msg_global(void *ctx, int level, const char *fmt, ...)
 710:C:/Users/stapi/OneDrive/Desktop/GD32VW553/V1_MQTT_OK/GD32VW55X_Wifi_BLE_SDK/GD32VW55x_RELEASE_V1.0.2/MSDK/wpa_supplicant/src/utils\wpa_debug.c **** {
 1068              		.loc 1 710 1
 1069              		.cfi_startproc
 1070              	.LVL101:
 711:C:/Users/stapi/OneDrive/Desktop/GD32VW553/V1_MQTT_OK/GD32VW55X_Wifi_BLE_SDK/GD32VW55x_RELEASE_V1.0.2/MSDK/wpa_supplicant/src/utils\wpa_debug.c **** 	va_list ap;
 1071              		.loc 1 711 2
 712:C:/Users/stapi/OneDrive/Desktop/GD32VW553/V1_MQTT_OK/GD32VW55X_Wifi_BLE_SDK/GD32VW55x_RELEASE_V1.0.2/MSDK/wpa_supplicant/src/utils\wpa_debug.c **** 	char *buf;
 1072              		.loc 1 712 2
 713:C:/Users/stapi/OneDrive/Desktop/GD32VW553/V1_MQTT_OK/GD32VW55X_Wifi_BLE_SDK/GD32VW55x_RELEASE_V1.0.2/MSDK/wpa_supplicant/src/utils\wpa_debug.c **** 	int buflen;
 1073              		.loc 1 713 2
 714:C:/Users/stapi/OneDrive/Desktop/GD32VW553/V1_MQTT_OK/GD32VW55X_Wifi_BLE_SDK/GD32VW55x_RELEASE_V1.0.2/MSDK/wpa_supplicant/src/utils\wpa_debug.c **** 	int len;
 1074              		.loc 1 714 2
 715:C:/Users/stapi/OneDrive/Desktop/GD32VW553/V1_MQTT_OK/GD32VW55X_Wifi_BLE_SDK/GD32VW55x_RELEASE_V1.0.2/MSDK/wpa_supplicant/src/utils\wpa_debug.c **** 
 716:C:/Users/stapi/OneDrive/Desktop/GD32VW553/V1_MQTT_OK/GD32VW55X_Wifi_BLE_SDK/GD32VW55x_RELEASE_V1.0.2/MSDK/wpa_supplicant/src/utils\wpa_debug.c **** 	va_start(ap, fmt);
 1075              		.loc 1 716 2
 710:C:/Users/stapi/OneDrive/Desktop/GD32VW553/V1_MQTT_OK/GD32VW55X_Wifi_BLE_SDK/GD32VW55x_RELEASE_V1.0.2/MSDK/wpa_supplicant/src/utils\wpa_debug.c **** 	va_list ap;
 1076              		.loc 1 710 1 is_stmt 0
 1077 0000 1D71     		addi	sp,sp,-96
 1078              		.cfi_def_cfa_offset 96
 1079 0002 BECA     		sw	a5,84(sp)
 1080              		.loc 1 716 2
 1081 0004 FC00     		addi	a5,sp,76
 710:C:/Users/stapi/OneDrive/Desktop/GD32VW553/V1_MQTT_OK/GD32VW55X_Wifi_BLE_SDK/GD32VW55x_RELEASE_V1.0.2/MSDK/wpa_supplicant/src/utils\wpa_debug.c **** 	va_list ap;
 1082              		.loc 1 710 1
 1083 0006 4AD8     		sw	s2,48(sp)
 1084 0008 4ED6     		sw	s3,44(sp)
 1085 000a 52D4     		sw	s4,40(sp)
 1086 000c B6C6     		sw	a3,76(sp)
 1087 000e BAC8     		sw	a4,80(sp)
 717:C:/Users/stapi/OneDrive/Desktop/GD32VW553/V1_MQTT_OK/GD32VW55X_Wifi_BLE_SDK/GD32VW55x_RELEASE_V1.0.2/MSDK/wpa_supplicant/src/utils\wpa_debug.c **** 	buflen = vsnprintf(NULL, 0, fmt, ap) + 1;
 1088              		.loc 1 717 11
 1089 0010 B286     		mv	a3,a2
 1090              		.cfi_offset 18, -48
 1091              		.cfi_offset 19, -52
 1092              		.cfi_offset 20, -56
 710:C:/Users/stapi/OneDrive/Desktop/GD32VW553/V1_MQTT_OK/GD32VW55X_Wifi_BLE_SDK/GD32VW55x_RELEASE_V1.0.2/MSDK/wpa_supplicant/src/utils\wpa_debug.c **** 	va_list ap;
 1093              		.loc 1 710 1
 1094 0012 2A8A     		mv	s4,a0
 1095 0014 2E89     		mv	s2,a1
 1096 0016 B289     		mv	s3,a2
 1097              		.loc 1 717 11
 1098 0018 3E87     		mv	a4,a5
 1099 001a 0146     		li	a2,0
 1100              	.LVL102:
 1101 001c 8145     		li	a1,0
 1102              	.LVL103:
 1103 001e 0145     		li	a0,0
 1104              	.LVL104:
 710:C:/Users/stapi/OneDrive/Desktop/GD32VW553/V1_MQTT_OK/GD32VW55X_Wifi_BLE_SDK/GD32VW55x_RELEASE_V1.0.2/MSDK/wpa_supplicant/src/utils\wpa_debug.c **** 	va_list ap;
 1105              		.loc 1 710 1
 1106 0020 26DA     		sw	s1,52(sp)
 1107 0022 06DE     		sw	ra,60(sp)
 1108 0024 22DC     		sw	s0,56(sp)
 1109              		.cfi_offset 9, -44
 1110              		.cfi_offset 1, -36
 1111              		.cfi_offset 8, -40
 710:C:/Users/stapi/OneDrive/Desktop/GD32VW553/V1_MQTT_OK/GD32VW55X_Wifi_BLE_SDK/GD32VW55x_RELEASE_V1.0.2/MSDK/wpa_supplicant/src/utils\wpa_debug.c **** 	va_list ap;
 1112              		.loc 1 710 1
 1113 0026 C2CC     		sw	a6,88(sp)
 1114 0028 C6CE     		sw	a7,92(sp)
 716:C:/Users/stapi/OneDrive/Desktop/GD32VW553/V1_MQTT_OK/GD32VW55X_Wifi_BLE_SDK/GD32VW55x_RELEASE_V1.0.2/MSDK/wpa_supplicant/src/utils\wpa_debug.c **** 	buflen = vsnprintf(NULL, 0, fmt, ap) + 1;
 1115              		.loc 1 716 2
 1116 002a 3ECE     		sw	a5,28(sp)
 1117              		.loc 1 717 2 is_stmt 1
 1118              		.loc 1 717 11 is_stmt 0
 1119 002c 97000000 		call	dbg_vsnprintf_offset
 1119      E7800000 
 1120              	.LVL105:
 1121              		.loc 1 717 39
 1122 0034 93041500 		addi	s1,a0,1
 1123              	.LVL106:
 718:C:/Users/stapi/OneDrive/Desktop/GD32VW553/V1_MQTT_OK/GD32VW55X_Wifi_BLE_SDK/GD32VW55x_RELEASE_V1.0.2/MSDK/wpa_supplicant/src/utils\wpa_debug.c **** 	va_end(ap);
 1124              		.loc 1 718 2 is_stmt 1
 719:C:/Users/stapi/OneDrive/Desktop/GD32VW553/V1_MQTT_OK/GD32VW55X_Wifi_BLE_SDK/GD32VW55x_RELEASE_V1.0.2/MSDK/wpa_supplicant/src/utils\wpa_debug.c **** 
 720:C:/Users/stapi/OneDrive/Desktop/GD32VW553/V1_MQTT_OK/GD32VW55X_Wifi_BLE_SDK/GD32VW55x_RELEASE_V1.0.2/MSDK/wpa_supplicant/src/utils\wpa_debug.c **** 	buf = os_malloc(buflen);
 1125              		.loc 1 720 2
 1126              		.loc 1 720 8 is_stmt 0
 1127 0038 2685     		mv	a0,s1
 1128 003a 97000000 		call	os_malloc
 1128      E7800000 
 1129              	.LVL107:
 721:C:/Users/stapi/OneDrive/Desktop/GD32VW553/V1_MQTT_OK/GD32VW55X_Wifi_BLE_SDK/GD32VW55x_RELEASE_V1.0.2/MSDK/wpa_supplicant/src/utils\wpa_debug.c **** 	if (buf == NULL) {
 1130              		.loc 1 721 2 is_stmt 1
 1131              		.loc 1 721 5 is_stmt 0
 1132 0042 15E1     		bne	a0,zero,.L86
 722:C:/Users/stapi/OneDrive/Desktop/GD32VW553/V1_MQTT_OK/GD32VW55X_Wifi_BLE_SDK/GD32VW55x_RELEASE_V1.0.2/MSDK/wpa_supplicant/src/utils\wpa_debug.c **** 		wpa_printf(MSG_ERROR, "wpa_msg_global: Failed to allocate "
 1133              		.loc 1 722 3 is_stmt 1
 1134 0044 B7050000 		lui	a1,%hi(.LC14)
 1135 0048 93850500 		addi	a1,a1,%lo(.LC14)
 1136 004c 1545     		li	a0,5
 1137              	.LVL108:
 1138 004e 97000000 		call	wpa_printf
 1138      E7800000 
 1139              	.LVL109:
 723:C:/Users/stapi/OneDrive/Desktop/GD32VW553/V1_MQTT_OK/GD32VW55X_Wifi_BLE_SDK/GD32VW55x_RELEASE_V1.0.2/MSDK/wpa_supplicant/src/utils\wpa_debug.c **** 			   "message buffer");
 724:C:/Users/stapi/OneDrive/Desktop/GD32VW553/V1_MQTT_OK/GD32VW55X_Wifi_BLE_SDK/GD32VW55x_RELEASE_V1.0.2/MSDK/wpa_supplicant/src/utils\wpa_debug.c **** 		return;
 1140              		.loc 1 724 3
 1141              	.L85:
 725:C:/Users/stapi/OneDrive/Desktop/GD32VW553/V1_MQTT_OK/GD32VW55X_Wifi_BLE_SDK/GD32VW55x_RELEASE_V1.0.2/MSDK/wpa_supplicant/src/utils\wpa_debug.c **** 	}
 726:C:/Users/stapi/OneDrive/Desktop/GD32VW553/V1_MQTT_OK/GD32VW55X_Wifi_BLE_SDK/GD32VW55x_RELEASE_V1.0.2/MSDK/wpa_supplicant/src/utils\wpa_debug.c **** 	va_start(ap, fmt);
 727:C:/Users/stapi/OneDrive/Desktop/GD32VW553/V1_MQTT_OK/GD32VW55X_Wifi_BLE_SDK/GD32VW55x_RELEASE_V1.0.2/MSDK/wpa_supplicant/src/utils\wpa_debug.c **** 	len = vsnprintf(buf, buflen, fmt, ap);
 728:C:/Users/stapi/OneDrive/Desktop/GD32VW553/V1_MQTT_OK/GD32VW55X_Wifi_BLE_SDK/GD32VW55x_RELEASE_V1.0.2/MSDK/wpa_supplicant/src/utils\wpa_debug.c **** 	va_end(ap);
 729:C:/Users/stapi/OneDrive/Desktop/GD32VW553/V1_MQTT_OK/GD32VW55X_Wifi_BLE_SDK/GD32VW55x_RELEASE_V1.0.2/MSDK/wpa_supplicant/src/utils\wpa_debug.c **** 	wpa_printf(level, "%s", buf);
 730:C:/Users/stapi/OneDrive/Desktop/GD32VW553/V1_MQTT_OK/GD32VW55X_Wifi_BLE_SDK/GD32VW55x_RELEASE_V1.0.2/MSDK/wpa_supplicant/src/utils\wpa_debug.c **** 	if (wpa_msg_cb)
 731:C:/Users/stapi/OneDrive/Desktop/GD32VW553/V1_MQTT_OK/GD32VW55X_Wifi_BLE_SDK/GD32VW55x_RELEASE_V1.0.2/MSDK/wpa_supplicant/src/utils\wpa_debug.c **** 		wpa_msg_cb(ctx, level, WPA_MSG_GLOBAL, buf, len);
 732:C:/Users/stapi/OneDrive/Desktop/GD32VW553/V1_MQTT_OK/GD32VW55X_Wifi_BLE_SDK/GD32VW55x_RELEASE_V1.0.2/MSDK/wpa_supplicant/src/utils\wpa_debug.c **** 	bin_clear_free(buf, buflen);
 733:C:/Users/stapi/OneDrive/Desktop/GD32VW553/V1_MQTT_OK/GD32VW55X_Wifi_BLE_SDK/GD32VW55x_RELEASE_V1.0.2/MSDK/wpa_supplicant/src/utils\wpa_debug.c **** }
 1142              		.loc 1 733 1 is_stmt 0
 1143 0056 F250     		lw	ra,60(sp)
 1144              		.cfi_remember_state
 1145              		.cfi_restore 1
 1146 0058 6254     		lw	s0,56(sp)
 1147              		.cfi_restore 8
 1148 005a D254     		lw	s1,52(sp)
 1149              		.cfi_restore 9
 1150              	.LVL110:
 1151 005c 4259     		lw	s2,48(sp)
 1152              		.cfi_restore 18
 1153              	.LVL111:
 1154 005e B259     		lw	s3,44(sp)
 1155              		.cfi_restore 19
 1156              	.LVL112:
 1157 0060 225A     		lw	s4,40(sp)
 1158              		.cfi_restore 20
 1159              	.LVL113:
 1160 0062 2561     		addi	sp,sp,96
 1161              		.cfi_def_cfa_offset 0
 1162 0064 8280     		jr	ra
 1163              	.LVL114:
 1164              	.L86:
 1165              		.cfi_restore_state
 726:C:/Users/stapi/OneDrive/Desktop/GD32VW553/V1_MQTT_OK/GD32VW55X_Wifi_BLE_SDK/GD32VW55x_RELEASE_V1.0.2/MSDK/wpa_supplicant/src/utils\wpa_debug.c **** 	len = vsnprintf(buf, buflen, fmt, ap);
 1166              		.loc 1 726 2
 1167 0066 FC00     		addi	a5,sp,76
 727:C:/Users/stapi/OneDrive/Desktop/GD32VW553/V1_MQTT_OK/GD32VW55X_Wifi_BLE_SDK/GD32VW55x_RELEASE_V1.0.2/MSDK/wpa_supplicant/src/utils\wpa_debug.c **** 	va_end(ap);
 1168              		.loc 1 727 8
 1169 0068 3E87     		mv	a4,a5
 1170 006a CE86     		mv	a3,s3
 1171 006c 0146     		li	a2,0
 1172 006e A685     		mv	a1,s1
 726:C:/Users/stapi/OneDrive/Desktop/GD32VW553/V1_MQTT_OK/GD32VW55X_Wifi_BLE_SDK/GD32VW55x_RELEASE_V1.0.2/MSDK/wpa_supplicant/src/utils\wpa_debug.c **** 	len = vsnprintf(buf, buflen, fmt, ap);
 1173              		.loc 1 726 2
 1174 0070 3ECE     		sw	a5,28(sp)
 1175 0072 2A84     		mv	s0,a0
 726:C:/Users/stapi/OneDrive/Desktop/GD32VW553/V1_MQTT_OK/GD32VW55X_Wifi_BLE_SDK/GD32VW55x_RELEASE_V1.0.2/MSDK/wpa_supplicant/src/utils\wpa_debug.c **** 	len = vsnprintf(buf, buflen, fmt, ap);
 1176              		.loc 1 726 2 is_stmt 1
 727:C:/Users/stapi/OneDrive/Desktop/GD32VW553/V1_MQTT_OK/GD32VW55X_Wifi_BLE_SDK/GD32VW55x_RELEASE_V1.0.2/MSDK/wpa_supplicant/src/utils\wpa_debug.c **** 	va_end(ap);
 1177              		.loc 1 727 2
 727:C:/Users/stapi/OneDrive/Desktop/GD32VW553/V1_MQTT_OK/GD32VW55X_Wifi_BLE_SDK/GD32VW55x_RELEASE_V1.0.2/MSDK/wpa_supplicant/src/utils\wpa_debug.c **** 	va_end(ap);
 1178              		.loc 1 727 8 is_stmt 0
 1179 0074 97000000 		call	dbg_vsnprintf_offset
 1179      E7800000 
 1180              	.LVL115:
 729:C:/Users/stapi/OneDrive/Desktop/GD32VW553/V1_MQTT_OK/GD32VW55X_Wifi_BLE_SDK/GD32VW55x_RELEASE_V1.0.2/MSDK/wpa_supplicant/src/utils\wpa_debug.c **** 	if (wpa_msg_cb)
 1181              		.loc 1 729 2
 1182 007c B7050000 		lui	a1,%hi(.LC15)
 727:C:/Users/stapi/OneDrive/Desktop/GD32VW553/V1_MQTT_OK/GD32VW55X_Wifi_BLE_SDK/GD32VW55x_RELEASE_V1.0.2/MSDK/wpa_supplicant/src/utils\wpa_debug.c **** 	va_end(ap);
 1183              		.loc 1 727 8
 1184 0080 2AC6     		sw	a0,12(sp)
 1185              	.LVL116:
 728:C:/Users/stapi/OneDrive/Desktop/GD32VW553/V1_MQTT_OK/GD32VW55X_Wifi_BLE_SDK/GD32VW55x_RELEASE_V1.0.2/MSDK/wpa_supplicant/src/utils\wpa_debug.c **** 	wpa_printf(level, "%s", buf);
 1186              		.loc 1 728 2 is_stmt 1
 729:C:/Users/stapi/OneDrive/Desktop/GD32VW553/V1_MQTT_OK/GD32VW55X_Wifi_BLE_SDK/GD32VW55x_RELEASE_V1.0.2/MSDK/wpa_supplicant/src/utils\wpa_debug.c **** 	if (wpa_msg_cb)
 1187              		.loc 1 729 2
 1188 0082 2286     		mv	a2,s0
 1189 0084 93850500 		addi	a1,a1,%lo(.LC15)
 1190 0088 4A85     		mv	a0,s2
 1191              	.LVL117:
 1192 008a 97000000 		call	wpa_printf
 1192      E7800000 
 1193              	.LVL118:
 730:C:/Users/stapi/OneDrive/Desktop/GD32VW553/V1_MQTT_OK/GD32VW55X_Wifi_BLE_SDK/GD32VW55x_RELEASE_V1.0.2/MSDK/wpa_supplicant/src/utils\wpa_debug.c **** 		wpa_msg_cb(ctx, level, WPA_MSG_GLOBAL, buf, len);
 1194              		.loc 1 730 2
 730:C:/Users/stapi/OneDrive/Desktop/GD32VW553/V1_MQTT_OK/GD32VW55X_Wifi_BLE_SDK/GD32VW55x_RELEASE_V1.0.2/MSDK/wpa_supplicant/src/utils\wpa_debug.c **** 		wpa_msg_cb(ctx, level, WPA_MSG_GLOBAL, buf, len);
 1195              		.loc 1 730 6 is_stmt 0
 1196 0092 B7070000 		lui	a5,%hi(.LANCHOR4)
 1197 0096 83A70700 		lw	a5,%lo(.LANCHOR4)(a5)
 730:C:/Users/stapi/OneDrive/Desktop/GD32VW553/V1_MQTT_OK/GD32VW55X_Wifi_BLE_SDK/GD32VW55x_RELEASE_V1.0.2/MSDK/wpa_supplicant/src/utils\wpa_debug.c **** 		wpa_msg_cb(ctx, level, WPA_MSG_GLOBAL, buf, len);
 1198              		.loc 1 730 5
 1199 009a 99C7     		beq	a5,zero,.L88
 731:C:/Users/stapi/OneDrive/Desktop/GD32VW553/V1_MQTT_OK/GD32VW55X_Wifi_BLE_SDK/GD32VW55x_RELEASE_V1.0.2/MSDK/wpa_supplicant/src/utils\wpa_debug.c **** 	bin_clear_free(buf, buflen);
 1200              		.loc 1 731 3 is_stmt 1
 1201 009c 3247     		lw	a4,12(sp)
 1202 009e A286     		mv	a3,s0
 1203 00a0 0546     		li	a2,1
 1204 00a2 CA85     		mv	a1,s2
 1205 00a4 5285     		mv	a0,s4
 1206 00a6 8297     		jalr	a5
 1207              	.LVL119:
 1208              	.L88:
 732:C:/Users/stapi/OneDrive/Desktop/GD32VW553/V1_MQTT_OK/GD32VW55X_Wifi_BLE_SDK/GD32VW55x_RELEASE_V1.0.2/MSDK/wpa_supplicant/src/utils\wpa_debug.c **** }
 1209              		.loc 1 732 2
 1210 00a8 A685     		mv	a1,s1
 1211 00aa 2285     		mv	a0,s0
 1212 00ac 97000000 		call	bin_clear_free
 1212      E7800000 
 1213              	.LVL120:
 1214 00b4 4DB7     		j	.L85
 1215              		.cfi_endproc
 1216              	.LFE87:
 1218              		.section	.rodata.wpa_msg_global_ctrl.str1.4,"aMS",@progbits,1
 1219              		.align	2
 1220              	.LC16:
 1221 0000 7770615F 		.string	"wpa_msg_global_ctrl: Failed to allocate message buffer"
 1221      6D73675F 
 1221      676C6F62 
 1221      616C5F63 
 1221      74726C3A 
 1222              		.section	.text.wpa_msg_global_ctrl,"ax",@progbits
 1223              		.align	1
 1224              		.globl	wpa_msg_global_ctrl
 1226              	wpa_msg_global_ctrl:
 1227              	.LFB88:
 734:C:/Users/stapi/OneDrive/Desktop/GD32VW553/V1_MQTT_OK/GD32VW55X_Wifi_BLE_SDK/GD32VW55x_RELEASE_V1.0.2/MSDK/wpa_supplicant/src/utils\wpa_debug.c **** 
 735:C:/Users/stapi/OneDrive/Desktop/GD32VW553/V1_MQTT_OK/GD32VW55X_Wifi_BLE_SDK/GD32VW55x_RELEASE_V1.0.2/MSDK/wpa_supplicant/src/utils\wpa_debug.c **** 
 736:C:/Users/stapi/OneDrive/Desktop/GD32VW553/V1_MQTT_OK/GD32VW55X_Wifi_BLE_SDK/GD32VW55x_RELEASE_V1.0.2/MSDK/wpa_supplicant/src/utils\wpa_debug.c **** void wpa_msg_global_ctrl(void *ctx, int level, const char *fmt, ...)
 737:C:/Users/stapi/OneDrive/Desktop/GD32VW553/V1_MQTT_OK/GD32VW55X_Wifi_BLE_SDK/GD32VW55x_RELEASE_V1.0.2/MSDK/wpa_supplicant/src/utils\wpa_debug.c **** {
 1228              		.loc 1 737 1
 1229              		.cfi_startproc
 1230              	.LVL121:
 738:C:/Users/stapi/OneDrive/Desktop/GD32VW553/V1_MQTT_OK/GD32VW55X_Wifi_BLE_SDK/GD32VW55x_RELEASE_V1.0.2/MSDK/wpa_supplicant/src/utils\wpa_debug.c **** 	va_list ap;
 1231              		.loc 1 738 2
 739:C:/Users/stapi/OneDrive/Desktop/GD32VW553/V1_MQTT_OK/GD32VW55X_Wifi_BLE_SDK/GD32VW55x_RELEASE_V1.0.2/MSDK/wpa_supplicant/src/utils\wpa_debug.c **** 	char *buf;
 1232              		.loc 1 739 2
 740:C:/Users/stapi/OneDrive/Desktop/GD32VW553/V1_MQTT_OK/GD32VW55X_Wifi_BLE_SDK/GD32VW55x_RELEASE_V1.0.2/MSDK/wpa_supplicant/src/utils\wpa_debug.c **** 	int buflen;
 1233              		.loc 1 740 2
 741:C:/Users/stapi/OneDrive/Desktop/GD32VW553/V1_MQTT_OK/GD32VW55X_Wifi_BLE_SDK/GD32VW55x_RELEASE_V1.0.2/MSDK/wpa_supplicant/src/utils\wpa_debug.c **** 	int len;
 1234              		.loc 1 741 2
 742:C:/Users/stapi/OneDrive/Desktop/GD32VW553/V1_MQTT_OK/GD32VW55X_Wifi_BLE_SDK/GD32VW55x_RELEASE_V1.0.2/MSDK/wpa_supplicant/src/utils\wpa_debug.c **** 
 743:C:/Users/stapi/OneDrive/Desktop/GD32VW553/V1_MQTT_OK/GD32VW55X_Wifi_BLE_SDK/GD32VW55x_RELEASE_V1.0.2/MSDK/wpa_supplicant/src/utils\wpa_debug.c **** 	if (!wpa_msg_cb)
 1235              		.loc 1 743 2
 737:C:/Users/stapi/OneDrive/Desktop/GD32VW553/V1_MQTT_OK/GD32VW55X_Wifi_BLE_SDK/GD32VW55x_RELEASE_V1.0.2/MSDK/wpa_supplicant/src/utils\wpa_debug.c **** 	va_list ap;
 1236              		.loc 1 737 1 is_stmt 0
 1237 0000 5D71     		addi	sp,sp,-80
 1238              		.cfi_def_cfa_offset 80
 1239 0002 4AD0     		sw	s2,32(sp)
 1240              		.cfi_offset 18, -48
 1241              		.loc 1 743 6
 1242 0004 37090000 		lui	s2,%hi(.LANCHOR4)
 1243 0008 13090900 		addi	s2,s2,%lo(.LANCHOR4)
 737:C:/Users/stapi/OneDrive/Desktop/GD32VW553/V1_MQTT_OK/GD32VW55X_Wifi_BLE_SDK/GD32VW55x_RELEASE_V1.0.2/MSDK/wpa_supplicant/src/utils\wpa_debug.c **** 	va_list ap;
 1244              		.loc 1 737 1
 1245 000c BEC2     		sw	a5,68(sp)
 1246              		.loc 1 743 5
 1247 000e 83270900 		lw	a5,0(s2)
 737:C:/Users/stapi/OneDrive/Desktop/GD32VW553/V1_MQTT_OK/GD32VW55X_Wifi_BLE_SDK/GD32VW55x_RELEASE_V1.0.2/MSDK/wpa_supplicant/src/utils\wpa_debug.c **** 	va_list ap;
 1248              		.loc 1 737 1
 1249 0012 06D6     		sw	ra,44(sp)
 1250 0014 22D4     		sw	s0,40(sp)
 1251 0016 26D2     		sw	s1,36(sp)
 1252 0018 4ECE     		sw	s3,28(sp)
 1253 001a 52CC     		sw	s4,24(sp)
 1254 001c 56CA     		sw	s5,20(sp)
 1255              		.cfi_offset 1, -36
 1256              		.cfi_offset 8, -40
 1257              		.cfi_offset 9, -44
 1258              		.cfi_offset 19, -52
 1259              		.cfi_offset 20, -56
 1260              		.cfi_offset 21, -60
 737:C:/Users/stapi/OneDrive/Desktop/GD32VW553/V1_MQTT_OK/GD32VW55X_Wifi_BLE_SDK/GD32VW55x_RELEASE_V1.0.2/MSDK/wpa_supplicant/src/utils\wpa_debug.c **** 	va_list ap;
 1261              		.loc 1 737 1
 1262 001e 36DE     		sw	a3,60(sp)
 1263 0020 BAC0     		sw	a4,64(sp)
 1264 0022 C2C4     		sw	a6,72(sp)
 1265 0024 C6C6     		sw	a7,76(sp)
 1266              		.loc 1 743 5
 1267 0026 A9C3     		beq	a5,zero,.L93
 744:C:/Users/stapi/OneDrive/Desktop/GD32VW553/V1_MQTT_OK/GD32VW55X_Wifi_BLE_SDK/GD32VW55x_RELEASE_V1.0.2/MSDK/wpa_supplicant/src/utils\wpa_debug.c **** 		return;
 745:C:/Users/stapi/OneDrive/Desktop/GD32VW553/V1_MQTT_OK/GD32VW55X_Wifi_BLE_SDK/GD32VW55x_RELEASE_V1.0.2/MSDK/wpa_supplicant/src/utils\wpa_debug.c **** 
 746:C:/Users/stapi/OneDrive/Desktop/GD32VW553/V1_MQTT_OK/GD32VW55X_Wifi_BLE_SDK/GD32VW55x_RELEASE_V1.0.2/MSDK/wpa_supplicant/src/utils\wpa_debug.c **** 	va_start(ap, fmt);
 1268              		.loc 1 746 2
 1269 0028 7C18     		addi	a5,sp,60
 747:C:/Users/stapi/OneDrive/Desktop/GD32VW553/V1_MQTT_OK/GD32VW55X_Wifi_BLE_SDK/GD32VW55x_RELEASE_V1.0.2/MSDK/wpa_supplicant/src/utils\wpa_debug.c **** 	buflen = vsnprintf(NULL, 0, fmt, ap) + 1;
 1270              		.loc 1 747 11
 1271 002a B286     		mv	a3,a2
 1272 002c 3E87     		mv	a4,a5
 1273 002e 2A8A     		mv	s4,a0
 1274 0030 AE8A     		mv	s5,a1
 1275 0032 B289     		mv	s3,a2
 746:C:/Users/stapi/OneDrive/Desktop/GD32VW553/V1_MQTT_OK/GD32VW55X_Wifi_BLE_SDK/GD32VW55x_RELEASE_V1.0.2/MSDK/wpa_supplicant/src/utils\wpa_debug.c **** 	buflen = vsnprintf(NULL, 0, fmt, ap) + 1;
 1276              		.loc 1 746 2 is_stmt 1
 1277              		.loc 1 747 11 is_stmt 0
 1278 0034 8145     		li	a1,0
 1279              	.LVL122:
 1280 0036 0146     		li	a2,0
 1281              	.LVL123:
 1282 0038 0145     		li	a0,0
 1283              	.LVL124:
 746:C:/Users/stapi/OneDrive/Desktop/GD32VW553/V1_MQTT_OK/GD32VW55X_Wifi_BLE_SDK/GD32VW55x_RELEASE_V1.0.2/MSDK/wpa_supplicant/src/utils\wpa_debug.c **** 	buflen = vsnprintf(NULL, 0, fmt, ap) + 1;
 1284              		.loc 1 746 2
 1285 003a 3EC6     		sw	a5,12(sp)
 1286              		.loc 1 747 2 is_stmt 1
 1287              		.loc 1 747 11 is_stmt 0
 1288 003c 97000000 		call	dbg_vsnprintf_offset
 1288      E7800000 
 1289              	.LVL125:
 1290              		.loc 1 747 39
 1291 0044 93041500 		addi	s1,a0,1
 1292              	.LVL126:
 748:C:/Users/stapi/OneDrive/Desktop/GD32VW553/V1_MQTT_OK/GD32VW55X_Wifi_BLE_SDK/GD32VW55x_RELEASE_V1.0.2/MSDK/wpa_supplicant/src/utils\wpa_debug.c **** 	va_end(ap);
 1293              		.loc 1 748 2 is_stmt 1
 749:C:/Users/stapi/OneDrive/Desktop/GD32VW553/V1_MQTT_OK/GD32VW55X_Wifi_BLE_SDK/GD32VW55x_RELEASE_V1.0.2/MSDK/wpa_supplicant/src/utils\wpa_debug.c **** 
 750:C:/Users/stapi/OneDrive/Desktop/GD32VW553/V1_MQTT_OK/GD32VW55X_Wifi_BLE_SDK/GD32VW55x_RELEASE_V1.0.2/MSDK/wpa_supplicant/src/utils\wpa_debug.c **** 	buf = os_malloc(buflen);
 1294              		.loc 1 750 2
 1295              		.loc 1 750 8 is_stmt 0
 1296 0048 2685     		mv	a0,s1
 1297 004a 97000000 		call	os_malloc
 1297      E7800000 
 1298              	.LVL127:
 1299 0052 2A84     		mv	s0,a0
 1300              	.LVL128:
 751:C:/Users/stapi/OneDrive/Desktop/GD32VW553/V1_MQTT_OK/GD32VW55X_Wifi_BLE_SDK/GD32VW55x_RELEASE_V1.0.2/MSDK/wpa_supplicant/src/utils\wpa_debug.c **** 	if (buf == NULL) {
 1301              		.loc 1 751 2 is_stmt 1
 1302              		.loc 1 751 5 is_stmt 0
 1303 0054 1DE1     		bne	a0,zero,.L95
 752:C:/Users/stapi/OneDrive/Desktop/GD32VW553/V1_MQTT_OK/GD32VW55X_Wifi_BLE_SDK/GD32VW55x_RELEASE_V1.0.2/MSDK/wpa_supplicant/src/utils\wpa_debug.c **** 		wpa_printf(MSG_ERROR,
 1304              		.loc 1 752 3 is_stmt 1
 1305 0056 B7050000 		lui	a1,%hi(.LC16)
 1306 005a 93850500 		addi	a1,a1,%lo(.LC16)
 1307 005e 1545     		li	a0,5
 1308 0060 97000000 		call	wpa_printf
 1308      E7800000 
 1309              	.LVL129:
 753:C:/Users/stapi/OneDrive/Desktop/GD32VW553/V1_MQTT_OK/GD32VW55X_Wifi_BLE_SDK/GD32VW55x_RELEASE_V1.0.2/MSDK/wpa_supplicant/src/utils\wpa_debug.c **** 			   "wpa_msg_global_ctrl: Failed to allocate message buffer");
 754:C:/Users/stapi/OneDrive/Desktop/GD32VW553/V1_MQTT_OK/GD32VW55X_Wifi_BLE_SDK/GD32VW55x_RELEASE_V1.0.2/MSDK/wpa_supplicant/src/utils\wpa_debug.c **** 		return;
 1310              		.loc 1 754 3
 1311              	.L93:
 755:C:/Users/stapi/OneDrive/Desktop/GD32VW553/V1_MQTT_OK/GD32VW55X_Wifi_BLE_SDK/GD32VW55x_RELEASE_V1.0.2/MSDK/wpa_supplicant/src/utils\wpa_debug.c **** 	}
 756:C:/Users/stapi/OneDrive/Desktop/GD32VW553/V1_MQTT_OK/GD32VW55X_Wifi_BLE_SDK/GD32VW55x_RELEASE_V1.0.2/MSDK/wpa_supplicant/src/utils\wpa_debug.c **** 	va_start(ap, fmt);
 757:C:/Users/stapi/OneDrive/Desktop/GD32VW553/V1_MQTT_OK/GD32VW55X_Wifi_BLE_SDK/GD32VW55x_RELEASE_V1.0.2/MSDK/wpa_supplicant/src/utils\wpa_debug.c **** 	len = vsnprintf(buf, buflen, fmt, ap);
 758:C:/Users/stapi/OneDrive/Desktop/GD32VW553/V1_MQTT_OK/GD32VW55X_Wifi_BLE_SDK/GD32VW55x_RELEASE_V1.0.2/MSDK/wpa_supplicant/src/utils\wpa_debug.c **** 	va_end(ap);
 759:C:/Users/stapi/OneDrive/Desktop/GD32VW553/V1_MQTT_OK/GD32VW55X_Wifi_BLE_SDK/GD32VW55x_RELEASE_V1.0.2/MSDK/wpa_supplicant/src/utils\wpa_debug.c **** 	wpa_msg_cb(ctx, level, WPA_MSG_GLOBAL, buf, len);
 760:C:/Users/stapi/OneDrive/Desktop/GD32VW553/V1_MQTT_OK/GD32VW55X_Wifi_BLE_SDK/GD32VW55x_RELEASE_V1.0.2/MSDK/wpa_supplicant/src/utils\wpa_debug.c **** 	bin_clear_free(buf, buflen);
 761:C:/Users/stapi/OneDrive/Desktop/GD32VW553/V1_MQTT_OK/GD32VW55X_Wifi_BLE_SDK/GD32VW55x_RELEASE_V1.0.2/MSDK/wpa_supplicant/src/utils\wpa_debug.c **** }
 1312              		.loc 1 761 1 is_stmt 0
 1313 0068 B250     		lw	ra,44(sp)
 1314              		.cfi_remember_state
 1315              		.cfi_restore 1
 1316 006a 2254     		lw	s0,40(sp)
 1317              		.cfi_restore 8
 1318 006c 9254     		lw	s1,36(sp)
 1319              		.cfi_restore 9
 1320 006e 0259     		lw	s2,32(sp)
 1321              		.cfi_restore 18
 1322 0070 F249     		lw	s3,28(sp)
 1323              		.cfi_restore 19
 1324 0072 624A     		lw	s4,24(sp)
 1325              		.cfi_restore 20
 1326 0074 D24A     		lw	s5,20(sp)
 1327              		.cfi_restore 21
 1328 0076 6161     		addi	sp,sp,80
 1329              		.cfi_def_cfa_offset 0
 1330 0078 8280     		jr	ra
 1331              	.LVL130:
 1332              	.L95:
 1333              		.cfi_restore_state
 756:C:/Users/stapi/OneDrive/Desktop/GD32VW553/V1_MQTT_OK/GD32VW55X_Wifi_BLE_SDK/GD32VW55x_RELEASE_V1.0.2/MSDK/wpa_supplicant/src/utils\wpa_debug.c **** 	len = vsnprintf(buf, buflen, fmt, ap);
 1334              		.loc 1 756 2 is_stmt 1
 1335 007a 7C18     		addi	a5,sp,60
 757:C:/Users/stapi/OneDrive/Desktop/GD32VW553/V1_MQTT_OK/GD32VW55X_Wifi_BLE_SDK/GD32VW55x_RELEASE_V1.0.2/MSDK/wpa_supplicant/src/utils\wpa_debug.c **** 	va_end(ap);
 1336              		.loc 1 757 8 is_stmt 0
 1337 007c 3E87     		mv	a4,a5
 1338 007e CE86     		mv	a3,s3
 1339 0080 A685     		mv	a1,s1
 1340 0082 0146     		li	a2,0
 756:C:/Users/stapi/OneDrive/Desktop/GD32VW553/V1_MQTT_OK/GD32VW55X_Wifi_BLE_SDK/GD32VW55x_RELEASE_V1.0.2/MSDK/wpa_supplicant/src/utils\wpa_debug.c **** 	len = vsnprintf(buf, buflen, fmt, ap);
 1341              		.loc 1 756 2
 1342 0084 3EC6     		sw	a5,12(sp)
 757:C:/Users/stapi/OneDrive/Desktop/GD32VW553/V1_MQTT_OK/GD32VW55X_Wifi_BLE_SDK/GD32VW55x_RELEASE_V1.0.2/MSDK/wpa_supplicant/src/utils\wpa_debug.c **** 	va_end(ap);
 1343              		.loc 1 757 2 is_stmt 1
 757:C:/Users/stapi/OneDrive/Desktop/GD32VW553/V1_MQTT_OK/GD32VW55X_Wifi_BLE_SDK/GD32VW55x_RELEASE_V1.0.2/MSDK/wpa_supplicant/src/utils\wpa_debug.c **** 	va_end(ap);
 1344              		.loc 1 757 8 is_stmt 0
 1345 0086 97000000 		call	dbg_vsnprintf_offset
 1345      E7800000 
 1346              	.LVL131:
 759:C:/Users/stapi/OneDrive/Desktop/GD32VW553/V1_MQTT_OK/GD32VW55X_Wifi_BLE_SDK/GD32VW55x_RELEASE_V1.0.2/MSDK/wpa_supplicant/src/utils\wpa_debug.c **** 	bin_clear_free(buf, buflen);
 1347              		.loc 1 759 2
 1348 008e 83270900 		lw	a5,0(s2)
 757:C:/Users/stapi/OneDrive/Desktop/GD32VW553/V1_MQTT_OK/GD32VW55X_Wifi_BLE_SDK/GD32VW55x_RELEASE_V1.0.2/MSDK/wpa_supplicant/src/utils\wpa_debug.c **** 	va_end(ap);
 1349              		.loc 1 757 8
 1350 0092 2A87     		mv	a4,a0
 1351              	.LVL132:
 758:C:/Users/stapi/OneDrive/Desktop/GD32VW553/V1_MQTT_OK/GD32VW55X_Wifi_BLE_SDK/GD32VW55x_RELEASE_V1.0.2/MSDK/wpa_supplicant/src/utils\wpa_debug.c **** 	wpa_msg_cb(ctx, level, WPA_MSG_GLOBAL, buf, len);
 1352              		.loc 1 758 2 is_stmt 1
 759:C:/Users/stapi/OneDrive/Desktop/GD32VW553/V1_MQTT_OK/GD32VW55X_Wifi_BLE_SDK/GD32VW55x_RELEASE_V1.0.2/MSDK/wpa_supplicant/src/utils\wpa_debug.c **** 	bin_clear_free(buf, buflen);
 1353              		.loc 1 759 2
 1354 0094 D685     		mv	a1,s5
 1355 0096 5285     		mv	a0,s4
 1356              	.LVL133:
 1357 0098 A286     		mv	a3,s0
 1358 009a 0546     		li	a2,1
 1359 009c 8297     		jalr	a5
 1360              	.LVL134:
 760:C:/Users/stapi/OneDrive/Desktop/GD32VW553/V1_MQTT_OK/GD32VW55X_Wifi_BLE_SDK/GD32VW55x_RELEASE_V1.0.2/MSDK/wpa_supplicant/src/utils\wpa_debug.c **** }
 1361              		.loc 1 760 2
 1362 009e A685     		mv	a1,s1
 1363 00a0 2285     		mv	a0,s0
 1364 00a2 97000000 		call	bin_clear_free
 1364      E7800000 
 1365              	.LVL135:
 1366 00aa 7DBF     		j	.L93
 1367              		.cfi_endproc
 1368              	.LFE88:
 1370              		.section	.rodata.wpa_msg_no_global.str1.4,"aMS",@progbits,1
 1371              		.align	2
 1372              	.LC17:
 1373 0000 7770615F 		.string	"wpa_msg_no_global: Failed to allocate message buffer"
 1373      6D73675F 
 1373      6E6F5F67 
 1373      6C6F6261 
 1373      6C3A2046 
 1374              		.section	.text.wpa_msg_no_global,"ax",@progbits
 1375              		.align	1
 1376              		.globl	wpa_msg_no_global
 1378              	wpa_msg_no_global:
 1379              	.LFB89:
 762:C:/Users/stapi/OneDrive/Desktop/GD32VW553/V1_MQTT_OK/GD32VW55X_Wifi_BLE_SDK/GD32VW55x_RELEASE_V1.0.2/MSDK/wpa_supplicant/src/utils\wpa_debug.c **** 
 763:C:/Users/stapi/OneDrive/Desktop/GD32VW553/V1_MQTT_OK/GD32VW55X_Wifi_BLE_SDK/GD32VW55x_RELEASE_V1.0.2/MSDK/wpa_supplicant/src/utils\wpa_debug.c **** 
 764:C:/Users/stapi/OneDrive/Desktop/GD32VW553/V1_MQTT_OK/GD32VW55X_Wifi_BLE_SDK/GD32VW55x_RELEASE_V1.0.2/MSDK/wpa_supplicant/src/utils\wpa_debug.c **** void wpa_msg_no_global(void *ctx, int level, const char *fmt, ...)
 765:C:/Users/stapi/OneDrive/Desktop/GD32VW553/V1_MQTT_OK/GD32VW55X_Wifi_BLE_SDK/GD32VW55x_RELEASE_V1.0.2/MSDK/wpa_supplicant/src/utils\wpa_debug.c **** {
 1380              		.loc 1 765 1
 1381              		.cfi_startproc
 1382              	.LVL136:
 766:C:/Users/stapi/OneDrive/Desktop/GD32VW553/V1_MQTT_OK/GD32VW55X_Wifi_BLE_SDK/GD32VW55x_RELEASE_V1.0.2/MSDK/wpa_supplicant/src/utils\wpa_debug.c **** 	va_list ap;
 1383              		.loc 1 766 2
 767:C:/Users/stapi/OneDrive/Desktop/GD32VW553/V1_MQTT_OK/GD32VW55X_Wifi_BLE_SDK/GD32VW55x_RELEASE_V1.0.2/MSDK/wpa_supplicant/src/utils\wpa_debug.c **** 	char *buf;
 1384              		.loc 1 767 2
 768:C:/Users/stapi/OneDrive/Desktop/GD32VW553/V1_MQTT_OK/GD32VW55X_Wifi_BLE_SDK/GD32VW55x_RELEASE_V1.0.2/MSDK/wpa_supplicant/src/utils\wpa_debug.c **** 	int buflen;
 1385              		.loc 1 768 2
 769:C:/Users/stapi/OneDrive/Desktop/GD32VW553/V1_MQTT_OK/GD32VW55X_Wifi_BLE_SDK/GD32VW55x_RELEASE_V1.0.2/MSDK/wpa_supplicant/src/utils\wpa_debug.c **** 	int len;
 1386              		.loc 1 769 2
 770:C:/Users/stapi/OneDrive/Desktop/GD32VW553/V1_MQTT_OK/GD32VW55X_Wifi_BLE_SDK/GD32VW55x_RELEASE_V1.0.2/MSDK/wpa_supplicant/src/utils\wpa_debug.c **** 
 771:C:/Users/stapi/OneDrive/Desktop/GD32VW553/V1_MQTT_OK/GD32VW55X_Wifi_BLE_SDK/GD32VW55x_RELEASE_V1.0.2/MSDK/wpa_supplicant/src/utils\wpa_debug.c **** 	va_start(ap, fmt);
 1387              		.loc 1 771 2
 765:C:/Users/stapi/OneDrive/Desktop/GD32VW553/V1_MQTT_OK/GD32VW55X_Wifi_BLE_SDK/GD32VW55x_RELEASE_V1.0.2/MSDK/wpa_supplicant/src/utils\wpa_debug.c **** 	va_list ap;
 1388              		.loc 1 765 1 is_stmt 0
 1389 0000 1D71     		addi	sp,sp,-96
 1390              		.cfi_def_cfa_offset 96
 1391 0002 BECA     		sw	a5,84(sp)
 1392              		.loc 1 771 2
 1393 0004 FC00     		addi	a5,sp,76
 765:C:/Users/stapi/OneDrive/Desktop/GD32VW553/V1_MQTT_OK/GD32VW55X_Wifi_BLE_SDK/GD32VW55x_RELEASE_V1.0.2/MSDK/wpa_supplicant/src/utils\wpa_debug.c **** 	va_list ap;
 1394              		.loc 1 765 1
 1395 0006 4AD8     		sw	s2,48(sp)
 1396 0008 4ED6     		sw	s3,44(sp)
 1397 000a 52D4     		sw	s4,40(sp)
 1398 000c B6C6     		sw	a3,76(sp)
 1399 000e BAC8     		sw	a4,80(sp)
 772:C:/Users/stapi/OneDrive/Desktop/GD32VW553/V1_MQTT_OK/GD32VW55X_Wifi_BLE_SDK/GD32VW55x_RELEASE_V1.0.2/MSDK/wpa_supplicant/src/utils\wpa_debug.c **** 	buflen = vsnprintf(NULL, 0, fmt, ap) + 1;
 1400              		.loc 1 772 11
 1401 0010 B286     		mv	a3,a2
 1402              		.cfi_offset 18, -48
 1403              		.cfi_offset 19, -52
 1404              		.cfi_offset 20, -56
 765:C:/Users/stapi/OneDrive/Desktop/GD32VW553/V1_MQTT_OK/GD32VW55X_Wifi_BLE_SDK/GD32VW55x_RELEASE_V1.0.2/MSDK/wpa_supplicant/src/utils\wpa_debug.c **** 	va_list ap;
 1405              		.loc 1 765 1
 1406 0012 2A8A     		mv	s4,a0
 1407 0014 2E89     		mv	s2,a1
 1408 0016 B289     		mv	s3,a2
 1409              		.loc 1 772 11
 1410 0018 3E87     		mv	a4,a5
 1411 001a 0146     		li	a2,0
 1412              	.LVL137:
 1413 001c 8145     		li	a1,0
 1414              	.LVL138:
 1415 001e 0145     		li	a0,0
 1416              	.LVL139:
 765:C:/Users/stapi/OneDrive/Desktop/GD32VW553/V1_MQTT_OK/GD32VW55X_Wifi_BLE_SDK/GD32VW55x_RELEASE_V1.0.2/MSDK/wpa_supplicant/src/utils\wpa_debug.c **** 	va_list ap;
 1417              		.loc 1 765 1
 1418 0020 26DA     		sw	s1,52(sp)
 1419 0022 06DE     		sw	ra,60(sp)
 1420 0024 22DC     		sw	s0,56(sp)
 1421              		.cfi_offset 9, -44
 1422              		.cfi_offset 1, -36
 1423              		.cfi_offset 8, -40
 765:C:/Users/stapi/OneDrive/Desktop/GD32VW553/V1_MQTT_OK/GD32VW55X_Wifi_BLE_SDK/GD32VW55x_RELEASE_V1.0.2/MSDK/wpa_supplicant/src/utils\wpa_debug.c **** 	va_list ap;
 1424              		.loc 1 765 1
 1425 0026 C2CC     		sw	a6,88(sp)
 1426 0028 C6CE     		sw	a7,92(sp)
 771:C:/Users/stapi/OneDrive/Desktop/GD32VW553/V1_MQTT_OK/GD32VW55X_Wifi_BLE_SDK/GD32VW55x_RELEASE_V1.0.2/MSDK/wpa_supplicant/src/utils\wpa_debug.c **** 	buflen = vsnprintf(NULL, 0, fmt, ap) + 1;
 1427              		.loc 1 771 2
 1428 002a 3ECE     		sw	a5,28(sp)
 1429              		.loc 1 772 2 is_stmt 1
 1430              		.loc 1 772 11 is_stmt 0
 1431 002c 97000000 		call	dbg_vsnprintf_offset
 1431      E7800000 
 1432              	.LVL140:
 1433              		.loc 1 772 39
 1434 0034 93041500 		addi	s1,a0,1
 1435              	.LVL141:
 773:C:/Users/stapi/OneDrive/Desktop/GD32VW553/V1_MQTT_OK/GD32VW55X_Wifi_BLE_SDK/GD32VW55x_RELEASE_V1.0.2/MSDK/wpa_supplicant/src/utils\wpa_debug.c **** 	va_end(ap);
 1436              		.loc 1 773 2 is_stmt 1
 774:C:/Users/stapi/OneDrive/Desktop/GD32VW553/V1_MQTT_OK/GD32VW55X_Wifi_BLE_SDK/GD32VW55x_RELEASE_V1.0.2/MSDK/wpa_supplicant/src/utils\wpa_debug.c **** 
 775:C:/Users/stapi/OneDrive/Desktop/GD32VW553/V1_MQTT_OK/GD32VW55X_Wifi_BLE_SDK/GD32VW55x_RELEASE_V1.0.2/MSDK/wpa_supplicant/src/utils\wpa_debug.c **** 	buf = os_malloc(buflen);
 1437              		.loc 1 775 2
 1438              		.loc 1 775 8 is_stmt 0
 1439 0038 2685     		mv	a0,s1
 1440 003a 97000000 		call	os_malloc
 1440      E7800000 
 1441              	.LVL142:
 776:C:/Users/stapi/OneDrive/Desktop/GD32VW553/V1_MQTT_OK/GD32VW55X_Wifi_BLE_SDK/GD32VW55x_RELEASE_V1.0.2/MSDK/wpa_supplicant/src/utils\wpa_debug.c **** 	if (buf == NULL) {
 1442              		.loc 1 776 2 is_stmt 1
 1443              		.loc 1 776 5 is_stmt 0
 1444 0042 15E1     		bne	a0,zero,.L102
 777:C:/Users/stapi/OneDrive/Desktop/GD32VW553/V1_MQTT_OK/GD32VW55X_Wifi_BLE_SDK/GD32VW55x_RELEASE_V1.0.2/MSDK/wpa_supplicant/src/utils\wpa_debug.c **** 		wpa_printf(MSG_ERROR, "wpa_msg_no_global: Failed to allocate "
 1445              		.loc 1 777 3 is_stmt 1
 1446 0044 B7050000 		lui	a1,%hi(.LC17)
 1447 0048 93850500 		addi	a1,a1,%lo(.LC17)
 1448 004c 1545     		li	a0,5
 1449              	.LVL143:
 1450 004e 97000000 		call	wpa_printf
 1450      E7800000 
 1451              	.LVL144:
 778:C:/Users/stapi/OneDrive/Desktop/GD32VW553/V1_MQTT_OK/GD32VW55X_Wifi_BLE_SDK/GD32VW55x_RELEASE_V1.0.2/MSDK/wpa_supplicant/src/utils\wpa_debug.c **** 			   "message buffer");
 779:C:/Users/stapi/OneDrive/Desktop/GD32VW553/V1_MQTT_OK/GD32VW55X_Wifi_BLE_SDK/GD32VW55x_RELEASE_V1.0.2/MSDK/wpa_supplicant/src/utils\wpa_debug.c **** 		return;
 1452              		.loc 1 779 3
 1453              	.L101:
 780:C:/Users/stapi/OneDrive/Desktop/GD32VW553/V1_MQTT_OK/GD32VW55X_Wifi_BLE_SDK/GD32VW55x_RELEASE_V1.0.2/MSDK/wpa_supplicant/src/utils\wpa_debug.c **** 	}
 781:C:/Users/stapi/OneDrive/Desktop/GD32VW553/V1_MQTT_OK/GD32VW55X_Wifi_BLE_SDK/GD32VW55x_RELEASE_V1.0.2/MSDK/wpa_supplicant/src/utils\wpa_debug.c **** 	va_start(ap, fmt);
 782:C:/Users/stapi/OneDrive/Desktop/GD32VW553/V1_MQTT_OK/GD32VW55X_Wifi_BLE_SDK/GD32VW55x_RELEASE_V1.0.2/MSDK/wpa_supplicant/src/utils\wpa_debug.c **** 	len = vsnprintf(buf, buflen, fmt, ap);
 783:C:/Users/stapi/OneDrive/Desktop/GD32VW553/V1_MQTT_OK/GD32VW55X_Wifi_BLE_SDK/GD32VW55x_RELEASE_V1.0.2/MSDK/wpa_supplicant/src/utils\wpa_debug.c **** 	va_end(ap);
 784:C:/Users/stapi/OneDrive/Desktop/GD32VW553/V1_MQTT_OK/GD32VW55X_Wifi_BLE_SDK/GD32VW55x_RELEASE_V1.0.2/MSDK/wpa_supplicant/src/utils\wpa_debug.c **** 	wpa_printf(level, "%s", buf);
 785:C:/Users/stapi/OneDrive/Desktop/GD32VW553/V1_MQTT_OK/GD32VW55X_Wifi_BLE_SDK/GD32VW55x_RELEASE_V1.0.2/MSDK/wpa_supplicant/src/utils\wpa_debug.c **** 	if (wpa_msg_cb)
 786:C:/Users/stapi/OneDrive/Desktop/GD32VW553/V1_MQTT_OK/GD32VW55X_Wifi_BLE_SDK/GD32VW55x_RELEASE_V1.0.2/MSDK/wpa_supplicant/src/utils\wpa_debug.c **** 		wpa_msg_cb(ctx, level, WPA_MSG_NO_GLOBAL, buf, len);
 787:C:/Users/stapi/OneDrive/Desktop/GD32VW553/V1_MQTT_OK/GD32VW55X_Wifi_BLE_SDK/GD32VW55x_RELEASE_V1.0.2/MSDK/wpa_supplicant/src/utils\wpa_debug.c **** 	bin_clear_free(buf, buflen);
 788:C:/Users/stapi/OneDrive/Desktop/GD32VW553/V1_MQTT_OK/GD32VW55X_Wifi_BLE_SDK/GD32VW55x_RELEASE_V1.0.2/MSDK/wpa_supplicant/src/utils\wpa_debug.c **** }
 1454              		.loc 1 788 1 is_stmt 0
 1455 0056 F250     		lw	ra,60(sp)
 1456              		.cfi_remember_state
 1457              		.cfi_restore 1
 1458 0058 6254     		lw	s0,56(sp)
 1459              		.cfi_restore 8
 1460 005a D254     		lw	s1,52(sp)
 1461              		.cfi_restore 9
 1462              	.LVL145:
 1463 005c 4259     		lw	s2,48(sp)
 1464              		.cfi_restore 18
 1465              	.LVL146:
 1466 005e B259     		lw	s3,44(sp)
 1467              		.cfi_restore 19
 1468              	.LVL147:
 1469 0060 225A     		lw	s4,40(sp)
 1470              		.cfi_restore 20
 1471              	.LVL148:
 1472 0062 2561     		addi	sp,sp,96
 1473              		.cfi_def_cfa_offset 0
 1474 0064 8280     		jr	ra
 1475              	.LVL149:
 1476              	.L102:
 1477              		.cfi_restore_state
 781:C:/Users/stapi/OneDrive/Desktop/GD32VW553/V1_MQTT_OK/GD32VW55X_Wifi_BLE_SDK/GD32VW55x_RELEASE_V1.0.2/MSDK/wpa_supplicant/src/utils\wpa_debug.c **** 	len = vsnprintf(buf, buflen, fmt, ap);
 1478              		.loc 1 781 2
 1479 0066 FC00     		addi	a5,sp,76
 782:C:/Users/stapi/OneDrive/Desktop/GD32VW553/V1_MQTT_OK/GD32VW55X_Wifi_BLE_SDK/GD32VW55x_RELEASE_V1.0.2/MSDK/wpa_supplicant/src/utils\wpa_debug.c **** 	va_end(ap);
 1480              		.loc 1 782 8
 1481 0068 3E87     		mv	a4,a5
 1482 006a CE86     		mv	a3,s3
 1483 006c 0146     		li	a2,0
 1484 006e A685     		mv	a1,s1
 781:C:/Users/stapi/OneDrive/Desktop/GD32VW553/V1_MQTT_OK/GD32VW55X_Wifi_BLE_SDK/GD32VW55x_RELEASE_V1.0.2/MSDK/wpa_supplicant/src/utils\wpa_debug.c **** 	len = vsnprintf(buf, buflen, fmt, ap);
 1485              		.loc 1 781 2
 1486 0070 3ECE     		sw	a5,28(sp)
 1487 0072 2A84     		mv	s0,a0
 781:C:/Users/stapi/OneDrive/Desktop/GD32VW553/V1_MQTT_OK/GD32VW55X_Wifi_BLE_SDK/GD32VW55x_RELEASE_V1.0.2/MSDK/wpa_supplicant/src/utils\wpa_debug.c **** 	len = vsnprintf(buf, buflen, fmt, ap);
 1488              		.loc 1 781 2 is_stmt 1
 782:C:/Users/stapi/OneDrive/Desktop/GD32VW553/V1_MQTT_OK/GD32VW55X_Wifi_BLE_SDK/GD32VW55x_RELEASE_V1.0.2/MSDK/wpa_supplicant/src/utils\wpa_debug.c **** 	va_end(ap);
 1489              		.loc 1 782 2
 782:C:/Users/stapi/OneDrive/Desktop/GD32VW553/V1_MQTT_OK/GD32VW55X_Wifi_BLE_SDK/GD32VW55x_RELEASE_V1.0.2/MSDK/wpa_supplicant/src/utils\wpa_debug.c **** 	va_end(ap);
 1490              		.loc 1 782 8 is_stmt 0
 1491 0074 97000000 		call	dbg_vsnprintf_offset
 1491      E7800000 
 1492              	.LVL150:
 784:C:/Users/stapi/OneDrive/Desktop/GD32VW553/V1_MQTT_OK/GD32VW55X_Wifi_BLE_SDK/GD32VW55x_RELEASE_V1.0.2/MSDK/wpa_supplicant/src/utils\wpa_debug.c **** 	if (wpa_msg_cb)
 1493              		.loc 1 784 2
 1494 007c B7050000 		lui	a1,%hi(.LC15)
 782:C:/Users/stapi/OneDrive/Desktop/GD32VW553/V1_MQTT_OK/GD32VW55X_Wifi_BLE_SDK/GD32VW55x_RELEASE_V1.0.2/MSDK/wpa_supplicant/src/utils\wpa_debug.c **** 	va_end(ap);
 1495              		.loc 1 782 8
 1496 0080 2AC6     		sw	a0,12(sp)
 1497              	.LVL151:
 783:C:/Users/stapi/OneDrive/Desktop/GD32VW553/V1_MQTT_OK/GD32VW55X_Wifi_BLE_SDK/GD32VW55x_RELEASE_V1.0.2/MSDK/wpa_supplicant/src/utils\wpa_debug.c **** 	wpa_printf(level, "%s", buf);
 1498              		.loc 1 783 2 is_stmt 1
 784:C:/Users/stapi/OneDrive/Desktop/GD32VW553/V1_MQTT_OK/GD32VW55X_Wifi_BLE_SDK/GD32VW55x_RELEASE_V1.0.2/MSDK/wpa_supplicant/src/utils\wpa_debug.c **** 	if (wpa_msg_cb)
 1499              		.loc 1 784 2
 1500 0082 2286     		mv	a2,s0
 1501 0084 93850500 		addi	a1,a1,%lo(.LC15)
 1502 0088 4A85     		mv	a0,s2
 1503              	.LVL152:
 1504 008a 97000000 		call	wpa_printf
 1504      E7800000 
 1505              	.LVL153:
 785:C:/Users/stapi/OneDrive/Desktop/GD32VW553/V1_MQTT_OK/GD32VW55X_Wifi_BLE_SDK/GD32VW55x_RELEASE_V1.0.2/MSDK/wpa_supplicant/src/utils\wpa_debug.c **** 		wpa_msg_cb(ctx, level, WPA_MSG_NO_GLOBAL, buf, len);
 1506              		.loc 1 785 2
 785:C:/Users/stapi/OneDrive/Desktop/GD32VW553/V1_MQTT_OK/GD32VW55X_Wifi_BLE_SDK/GD32VW55x_RELEASE_V1.0.2/MSDK/wpa_supplicant/src/utils\wpa_debug.c **** 		wpa_msg_cb(ctx, level, WPA_MSG_NO_GLOBAL, buf, len);
 1507              		.loc 1 785 6 is_stmt 0
 1508 0092 B7070000 		lui	a5,%hi(.LANCHOR4)
 1509 0096 83A70700 		lw	a5,%lo(.LANCHOR4)(a5)
 785:C:/Users/stapi/OneDrive/Desktop/GD32VW553/V1_MQTT_OK/GD32VW55X_Wifi_BLE_SDK/GD32VW55x_RELEASE_V1.0.2/MSDK/wpa_supplicant/src/utils\wpa_debug.c **** 		wpa_msg_cb(ctx, level, WPA_MSG_NO_GLOBAL, buf, len);
 1510              		.loc 1 785 5
 1511 009a 99C7     		beq	a5,zero,.L104
 786:C:/Users/stapi/OneDrive/Desktop/GD32VW553/V1_MQTT_OK/GD32VW55X_Wifi_BLE_SDK/GD32VW55x_RELEASE_V1.0.2/MSDK/wpa_supplicant/src/utils\wpa_debug.c **** 	bin_clear_free(buf, buflen);
 1512              		.loc 1 786 3 is_stmt 1
 1513 009c 3247     		lw	a4,12(sp)
 1514 009e A286     		mv	a3,s0
 1515 00a0 0946     		li	a2,2
 1516 00a2 CA85     		mv	a1,s2
 1517 00a4 5285     		mv	a0,s4
 1518 00a6 8297     		jalr	a5
 1519              	.LVL154:
 1520              	.L104:
 787:C:/Users/stapi/OneDrive/Desktop/GD32VW553/V1_MQTT_OK/GD32VW55X_Wifi_BLE_SDK/GD32VW55x_RELEASE_V1.0.2/MSDK/wpa_supplicant/src/utils\wpa_debug.c **** }
 1521              		.loc 1 787 2
 1522 00a8 A685     		mv	a1,s1
 1523 00aa 2285     		mv	a0,s0
 1524 00ac 97000000 		call	bin_clear_free
 1524      E7800000 
 1525              	.LVL155:
 1526 00b4 4DB7     		j	.L101
 1527              		.cfi_endproc
 1528              	.LFE89:
 1530              		.section	.rodata.wpa_msg_global_only.str1.4,"aMS",@progbits,1
 1531              		.align	2
 1532              	.LC18:
 1533 0000 25733A20 		.string	"%s: Failed to allocate message buffer"
 1533      4661696C 
 1533      65642074 
 1533      6F20616C 
 1533      6C6F6361 
 1534              		.section	.text.wpa_msg_global_only,"ax",@progbits
 1535              		.align	1
 1536              		.globl	wpa_msg_global_only
 1538              	wpa_msg_global_only:
 1539              	.LFB90:
 789:C:/Users/stapi/OneDrive/Desktop/GD32VW553/V1_MQTT_OK/GD32VW55X_Wifi_BLE_SDK/GD32VW55x_RELEASE_V1.0.2/MSDK/wpa_supplicant/src/utils\wpa_debug.c **** 
 790:C:/Users/stapi/OneDrive/Desktop/GD32VW553/V1_MQTT_OK/GD32VW55X_Wifi_BLE_SDK/GD32VW55x_RELEASE_V1.0.2/MSDK/wpa_supplicant/src/utils\wpa_debug.c **** 
 791:C:/Users/stapi/OneDrive/Desktop/GD32VW553/V1_MQTT_OK/GD32VW55X_Wifi_BLE_SDK/GD32VW55x_RELEASE_V1.0.2/MSDK/wpa_supplicant/src/utils\wpa_debug.c **** void wpa_msg_global_only(void *ctx, int level, const char *fmt, ...)
 792:C:/Users/stapi/OneDrive/Desktop/GD32VW553/V1_MQTT_OK/GD32VW55X_Wifi_BLE_SDK/GD32VW55x_RELEASE_V1.0.2/MSDK/wpa_supplicant/src/utils\wpa_debug.c **** {
 1540              		.loc 1 792 1
 1541              		.cfi_startproc
 1542              	.LVL156:
 793:C:/Users/stapi/OneDrive/Desktop/GD32VW553/V1_MQTT_OK/GD32VW55X_Wifi_BLE_SDK/GD32VW55x_RELEASE_V1.0.2/MSDK/wpa_supplicant/src/utils\wpa_debug.c **** 	va_list ap;
 1543              		.loc 1 793 2
 794:C:/Users/stapi/OneDrive/Desktop/GD32VW553/V1_MQTT_OK/GD32VW55X_Wifi_BLE_SDK/GD32VW55x_RELEASE_V1.0.2/MSDK/wpa_supplicant/src/utils\wpa_debug.c **** 	char *buf;
 1544              		.loc 1 794 2
 795:C:/Users/stapi/OneDrive/Desktop/GD32VW553/V1_MQTT_OK/GD32VW55X_Wifi_BLE_SDK/GD32VW55x_RELEASE_V1.0.2/MSDK/wpa_supplicant/src/utils\wpa_debug.c **** 	int buflen;
 1545              		.loc 1 795 2
 796:C:/Users/stapi/OneDrive/Desktop/GD32VW553/V1_MQTT_OK/GD32VW55X_Wifi_BLE_SDK/GD32VW55x_RELEASE_V1.0.2/MSDK/wpa_supplicant/src/utils\wpa_debug.c **** 	int len;
 1546              		.loc 1 796 2
 797:C:/Users/stapi/OneDrive/Desktop/GD32VW553/V1_MQTT_OK/GD32VW55X_Wifi_BLE_SDK/GD32VW55x_RELEASE_V1.0.2/MSDK/wpa_supplicant/src/utils\wpa_debug.c **** 
 798:C:/Users/stapi/OneDrive/Desktop/GD32VW553/V1_MQTT_OK/GD32VW55X_Wifi_BLE_SDK/GD32VW55x_RELEASE_V1.0.2/MSDK/wpa_supplicant/src/utils\wpa_debug.c **** 	va_start(ap, fmt);
 1547              		.loc 1 798 2
 792:C:/Users/stapi/OneDrive/Desktop/GD32VW553/V1_MQTT_OK/GD32VW55X_Wifi_BLE_SDK/GD32VW55x_RELEASE_V1.0.2/MSDK/wpa_supplicant/src/utils\wpa_debug.c **** 	va_list ap;
 1548              		.loc 1 792 1 is_stmt 0
 1549 0000 1D71     		addi	sp,sp,-96
 1550              		.cfi_def_cfa_offset 96
 1551 0002 BECA     		sw	a5,84(sp)
 1552              		.loc 1 798 2
 1553 0004 FC00     		addi	a5,sp,76
 792:C:/Users/stapi/OneDrive/Desktop/GD32VW553/V1_MQTT_OK/GD32VW55X_Wifi_BLE_SDK/GD32VW55x_RELEASE_V1.0.2/MSDK/wpa_supplicant/src/utils\wpa_debug.c **** 	va_list ap;
 1554              		.loc 1 792 1
 1555 0006 26DA     		sw	s1,52(sp)
 1556 0008 4AD8     		sw	s2,48(sp)
 1557 000a 4ED6     		sw	s3,44(sp)
 1558 000c B6C6     		sw	a3,76(sp)
 1559 000e BAC8     		sw	a4,80(sp)
 799:C:/Users/stapi/OneDrive/Desktop/GD32VW553/V1_MQTT_OK/GD32VW55X_Wifi_BLE_SDK/GD32VW55x_RELEASE_V1.0.2/MSDK/wpa_supplicant/src/utils\wpa_debug.c **** 	buflen = vsnprintf(NULL, 0, fmt, ap) + 1;
 1560              		.loc 1 799 11
 1561 0010 B286     		mv	a3,a2
 1562 0012 3E87     		mv	a4,a5
 1563              		.cfi_offset 9, -44
 1564              		.cfi_offset 18, -48
 1565              		.cfi_offset 19, -52
 792:C:/Users/stapi/OneDrive/Desktop/GD32VW553/V1_MQTT_OK/GD32VW55X_Wifi_BLE_SDK/GD32VW55x_RELEASE_V1.0.2/MSDK/wpa_supplicant/src/utils\wpa_debug.c **** 	va_list ap;
 1566              		.loc 1 792 1
 1567 0014 AA89     		mv	s3,a0
 1568 0016 AE84     		mv	s1,a1
 1569 0018 3289     		mv	s2,a2
 1570              		.loc 1 799 11
 1571 001a 8145     		li	a1,0
 1572              	.LVL157:
 1573 001c 0146     		li	a2,0
 1574              	.LVL158:
 1575 001e 0145     		li	a0,0
 1576              	.LVL159:
 792:C:/Users/stapi/OneDrive/Desktop/GD32VW553/V1_MQTT_OK/GD32VW55X_Wifi_BLE_SDK/GD32VW55x_RELEASE_V1.0.2/MSDK/wpa_supplicant/src/utils\wpa_debug.c **** 	va_list ap;
 1577              		.loc 1 792 1
 1578 0020 06DE     		sw	ra,60(sp)
 1579 0022 C2CC     		sw	a6,88(sp)
 1580 0024 C6CE     		sw	a7,92(sp)
 798:C:/Users/stapi/OneDrive/Desktop/GD32VW553/V1_MQTT_OK/GD32VW55X_Wifi_BLE_SDK/GD32VW55x_RELEASE_V1.0.2/MSDK/wpa_supplicant/src/utils\wpa_debug.c **** 	buflen = vsnprintf(NULL, 0, fmt, ap) + 1;
 1581              		.loc 1 798 2
 1582 0026 3ECE     		sw	a5,28(sp)
 1583              		.loc 1 799 2 is_stmt 1
 792:C:/Users/stapi/OneDrive/Desktop/GD32VW553/V1_MQTT_OK/GD32VW55X_Wifi_BLE_SDK/GD32VW55x_RELEASE_V1.0.2/MSDK/wpa_supplicant/src/utils\wpa_debug.c **** 	va_list ap;
 1584              		.loc 1 792 1 is_stmt 0
 1585 0028 22DC     		sw	s0,56(sp)
 1586              		.cfi_offset 1, -36
 1587              		.cfi_offset 8, -40
 1588              		.loc 1 799 11
 1589 002a 97000000 		call	dbg_vsnprintf_offset
 1589      E7800000 
 1590              	.LVL160:
 1591              		.loc 1 799 39
 1592 0032 93051500 		addi	a1,a0,1
 1593              	.LVL161:
 800:C:/Users/stapi/OneDrive/Desktop/GD32VW553/V1_MQTT_OK/GD32VW55X_Wifi_BLE_SDK/GD32VW55x_RELEASE_V1.0.2/MSDK/wpa_supplicant/src/utils\wpa_debug.c **** 	va_end(ap);
 1594              		.loc 1 800 2 is_stmt 1
 801:C:/Users/stapi/OneDrive/Desktop/GD32VW553/V1_MQTT_OK/GD32VW55X_Wifi_BLE_SDK/GD32VW55x_RELEASE_V1.0.2/MSDK/wpa_supplicant/src/utils\wpa_debug.c **** 
 802:C:/Users/stapi/OneDrive/Desktop/GD32VW553/V1_MQTT_OK/GD32VW55X_Wifi_BLE_SDK/GD32VW55x_RELEASE_V1.0.2/MSDK/wpa_supplicant/src/utils\wpa_debug.c **** 	buf = os_malloc(buflen);
 1595              		.loc 1 802 2
 1596              		.loc 1 802 8 is_stmt 0
 1597 0036 2E85     		mv	a0,a1
 1598 0038 2EC6     		sw	a1,12(sp)
 1599 003a 97000000 		call	os_malloc
 1599      E7800000 
 1600              	.LVL162:
 803:C:/Users/stapi/OneDrive/Desktop/GD32VW553/V1_MQTT_OK/GD32VW55X_Wifi_BLE_SDK/GD32VW55x_RELEASE_V1.0.2/MSDK/wpa_supplicant/src/utils\wpa_debug.c **** 	if (buf == NULL) {
 1601              		.loc 1 803 2 is_stmt 1
 1602              		.loc 1 803 5 is_stmt 0
 1603 0042 B245     		lw	a1,12(sp)
 1604 0044 0DE5     		bne	a0,zero,.L110
 804:C:/Users/stapi/OneDrive/Desktop/GD32VW553/V1_MQTT_OK/GD32VW55X_Wifi_BLE_SDK/GD32VW55x_RELEASE_V1.0.2/MSDK/wpa_supplicant/src/utils\wpa_debug.c **** 		wpa_printf(MSG_ERROR, "%s: Failed to allocate message buffer",
 1605              		.loc 1 804 3 is_stmt 1
 1606 0046 37060000 		lui	a2,%hi(.LANCHOR6)
 1607 004a B7050000 		lui	a1,%hi(.LC18)
 1608 004e 13060600 		addi	a2,a2,%lo(.LANCHOR6)
 1609 0052 93850500 		addi	a1,a1,%lo(.LC18)
 1610 0056 1545     		li	a0,5
 1611              	.LVL163:
 1612 0058 97000000 		call	wpa_printf
 1612      E7800000 
 1613              	.LVL164:
 805:C:/Users/stapi/OneDrive/Desktop/GD32VW553/V1_MQTT_OK/GD32VW55X_Wifi_BLE_SDK/GD32VW55x_RELEASE_V1.0.2/MSDK/wpa_supplicant/src/utils\wpa_debug.c **** 			   __func__);
 806:C:/Users/stapi/OneDrive/Desktop/GD32VW553/V1_MQTT_OK/GD32VW55X_Wifi_BLE_SDK/GD32VW55x_RELEASE_V1.0.2/MSDK/wpa_supplicant/src/utils\wpa_debug.c **** 		return;
 1614              		.loc 1 806 3
 1615              	.L109:
 807:C:/Users/stapi/OneDrive/Desktop/GD32VW553/V1_MQTT_OK/GD32VW55X_Wifi_BLE_SDK/GD32VW55x_RELEASE_V1.0.2/MSDK/wpa_supplicant/src/utils\wpa_debug.c **** 	}
 808:C:/Users/stapi/OneDrive/Desktop/GD32VW553/V1_MQTT_OK/GD32VW55X_Wifi_BLE_SDK/GD32VW55x_RELEASE_V1.0.2/MSDK/wpa_supplicant/src/utils\wpa_debug.c **** 	va_start(ap, fmt);
 809:C:/Users/stapi/OneDrive/Desktop/GD32VW553/V1_MQTT_OK/GD32VW55X_Wifi_BLE_SDK/GD32VW55x_RELEASE_V1.0.2/MSDK/wpa_supplicant/src/utils\wpa_debug.c **** 	len = vsnprintf(buf, buflen, fmt, ap);
 810:C:/Users/stapi/OneDrive/Desktop/GD32VW553/V1_MQTT_OK/GD32VW55X_Wifi_BLE_SDK/GD32VW55x_RELEASE_V1.0.2/MSDK/wpa_supplicant/src/utils\wpa_debug.c **** 	va_end(ap);
 811:C:/Users/stapi/OneDrive/Desktop/GD32VW553/V1_MQTT_OK/GD32VW55X_Wifi_BLE_SDK/GD32VW55x_RELEASE_V1.0.2/MSDK/wpa_supplicant/src/utils\wpa_debug.c **** 	wpa_printf(level, "%s", buf);
 812:C:/Users/stapi/OneDrive/Desktop/GD32VW553/V1_MQTT_OK/GD32VW55X_Wifi_BLE_SDK/GD32VW55x_RELEASE_V1.0.2/MSDK/wpa_supplicant/src/utils\wpa_debug.c **** 	if (wpa_msg_cb)
 813:C:/Users/stapi/OneDrive/Desktop/GD32VW553/V1_MQTT_OK/GD32VW55X_Wifi_BLE_SDK/GD32VW55x_RELEASE_V1.0.2/MSDK/wpa_supplicant/src/utils\wpa_debug.c **** 		wpa_msg_cb(ctx, level, WPA_MSG_ONLY_GLOBAL, buf, len);
 814:C:/Users/stapi/OneDrive/Desktop/GD32VW553/V1_MQTT_OK/GD32VW55X_Wifi_BLE_SDK/GD32VW55x_RELEASE_V1.0.2/MSDK/wpa_supplicant/src/utils\wpa_debug.c **** 	os_free(buf);
 815:C:/Users/stapi/OneDrive/Desktop/GD32VW553/V1_MQTT_OK/GD32VW55X_Wifi_BLE_SDK/GD32VW55x_RELEASE_V1.0.2/MSDK/wpa_supplicant/src/utils\wpa_debug.c **** }
 1616              		.loc 1 815 1 is_stmt 0
 1617 0060 F250     		lw	ra,60(sp)
 1618              		.cfi_remember_state
 1619              		.cfi_restore 1
 1620 0062 6254     		lw	s0,56(sp)
 1621              		.cfi_restore 8
 1622 0064 D254     		lw	s1,52(sp)
 1623              		.cfi_restore 9
 1624              	.LVL165:
 1625 0066 4259     		lw	s2,48(sp)
 1626              		.cfi_restore 18
 1627              	.LVL166:
 1628 0068 B259     		lw	s3,44(sp)
 1629              		.cfi_restore 19
 1630              	.LVL167:
 1631 006a 2561     		addi	sp,sp,96
 1632              		.cfi_def_cfa_offset 0
 1633 006c 8280     		jr	ra
 1634              	.LVL168:
 1635              	.L110:
 1636              		.cfi_restore_state
 808:C:/Users/stapi/OneDrive/Desktop/GD32VW553/V1_MQTT_OK/GD32VW55X_Wifi_BLE_SDK/GD32VW55x_RELEASE_V1.0.2/MSDK/wpa_supplicant/src/utils\wpa_debug.c **** 	len = vsnprintf(buf, buflen, fmt, ap);
 1637              		.loc 1 808 2
 1638 006e FC00     		addi	a5,sp,76
 809:C:/Users/stapi/OneDrive/Desktop/GD32VW553/V1_MQTT_OK/GD32VW55X_Wifi_BLE_SDK/GD32VW55x_RELEASE_V1.0.2/MSDK/wpa_supplicant/src/utils\wpa_debug.c **** 	va_end(ap);
 1639              		.loc 1 809 8
 1640 0070 3E87     		mv	a4,a5
 1641 0072 CA86     		mv	a3,s2
 1642 0074 0146     		li	a2,0
 808:C:/Users/stapi/OneDrive/Desktop/GD32VW553/V1_MQTT_OK/GD32VW55X_Wifi_BLE_SDK/GD32VW55x_RELEASE_V1.0.2/MSDK/wpa_supplicant/src/utils\wpa_debug.c **** 	len = vsnprintf(buf, buflen, fmt, ap);
 1643              		.loc 1 808 2
 1644 0076 3ECE     		sw	a5,28(sp)
 1645 0078 2A84     		mv	s0,a0
 808:C:/Users/stapi/OneDrive/Desktop/GD32VW553/V1_MQTT_OK/GD32VW55X_Wifi_BLE_SDK/GD32VW55x_RELEASE_V1.0.2/MSDK/wpa_supplicant/src/utils\wpa_debug.c **** 	len = vsnprintf(buf, buflen, fmt, ap);
 1646              		.loc 1 808 2 is_stmt 1
 809:C:/Users/stapi/OneDrive/Desktop/GD32VW553/V1_MQTT_OK/GD32VW55X_Wifi_BLE_SDK/GD32VW55x_RELEASE_V1.0.2/MSDK/wpa_supplicant/src/utils\wpa_debug.c **** 	va_end(ap);
 1647              		.loc 1 809 2
 809:C:/Users/stapi/OneDrive/Desktop/GD32VW553/V1_MQTT_OK/GD32VW55X_Wifi_BLE_SDK/GD32VW55x_RELEASE_V1.0.2/MSDK/wpa_supplicant/src/utils\wpa_debug.c **** 	va_end(ap);
 1648              		.loc 1 809 8 is_stmt 0
 1649 007a 97000000 		call	dbg_vsnprintf_offset
 1649      E7800000 
 1650              	.LVL169:
 811:C:/Users/stapi/OneDrive/Desktop/GD32VW553/V1_MQTT_OK/GD32VW55X_Wifi_BLE_SDK/GD32VW55x_RELEASE_V1.0.2/MSDK/wpa_supplicant/src/utils\wpa_debug.c **** 	if (wpa_msg_cb)
 1651              		.loc 1 811 2
 1652 0082 B7050000 		lui	a1,%hi(.LC15)
 809:C:/Users/stapi/OneDrive/Desktop/GD32VW553/V1_MQTT_OK/GD32VW55X_Wifi_BLE_SDK/GD32VW55x_RELEASE_V1.0.2/MSDK/wpa_supplicant/src/utils\wpa_debug.c **** 	va_end(ap);
 1653              		.loc 1 809 8
 1654 0086 2AC6     		sw	a0,12(sp)
 1655              	.LVL170:
 810:C:/Users/stapi/OneDrive/Desktop/GD32VW553/V1_MQTT_OK/GD32VW55X_Wifi_BLE_SDK/GD32VW55x_RELEASE_V1.0.2/MSDK/wpa_supplicant/src/utils\wpa_debug.c **** 	wpa_printf(level, "%s", buf);
 1656              		.loc 1 810 2 is_stmt 1
 811:C:/Users/stapi/OneDrive/Desktop/GD32VW553/V1_MQTT_OK/GD32VW55X_Wifi_BLE_SDK/GD32VW55x_RELEASE_V1.0.2/MSDK/wpa_supplicant/src/utils\wpa_debug.c **** 	if (wpa_msg_cb)
 1657              		.loc 1 811 2
 1658 0088 2286     		mv	a2,s0
 1659 008a 93850500 		addi	a1,a1,%lo(.LC15)
 1660 008e 2685     		mv	a0,s1
 1661              	.LVL171:
 1662 0090 97000000 		call	wpa_printf
 1662      E7800000 
 1663              	.LVL172:
 812:C:/Users/stapi/OneDrive/Desktop/GD32VW553/V1_MQTT_OK/GD32VW55X_Wifi_BLE_SDK/GD32VW55x_RELEASE_V1.0.2/MSDK/wpa_supplicant/src/utils\wpa_debug.c **** 		wpa_msg_cb(ctx, level, WPA_MSG_ONLY_GLOBAL, buf, len);
 1664              		.loc 1 812 2
 812:C:/Users/stapi/OneDrive/Desktop/GD32VW553/V1_MQTT_OK/GD32VW55X_Wifi_BLE_SDK/GD32VW55x_RELEASE_V1.0.2/MSDK/wpa_supplicant/src/utils\wpa_debug.c **** 		wpa_msg_cb(ctx, level, WPA_MSG_ONLY_GLOBAL, buf, len);
 1665              		.loc 1 812 6 is_stmt 0
 1666 0098 B7070000 		lui	a5,%hi(.LANCHOR4)
 1667 009c 83A70700 		lw	a5,%lo(.LANCHOR4)(a5)
 812:C:/Users/stapi/OneDrive/Desktop/GD32VW553/V1_MQTT_OK/GD32VW55X_Wifi_BLE_SDK/GD32VW55x_RELEASE_V1.0.2/MSDK/wpa_supplicant/src/utils\wpa_debug.c **** 		wpa_msg_cb(ctx, level, WPA_MSG_ONLY_GLOBAL, buf, len);
 1668              		.loc 1 812 5
 1669 00a0 99C7     		beq	a5,zero,.L112
 813:C:/Users/stapi/OneDrive/Desktop/GD32VW553/V1_MQTT_OK/GD32VW55X_Wifi_BLE_SDK/GD32VW55x_RELEASE_V1.0.2/MSDK/wpa_supplicant/src/utils\wpa_debug.c **** 	os_free(buf);
 1670              		.loc 1 813 3 is_stmt 1
 1671 00a2 3247     		lw	a4,12(sp)
 1672 00a4 A286     		mv	a3,s0
 1673 00a6 0D46     		li	a2,3
 1674 00a8 A685     		mv	a1,s1
 1675 00aa 4E85     		mv	a0,s3
 1676 00ac 8297     		jalr	a5
 1677              	.LVL173:
 1678              	.L112:
 814:C:/Users/stapi/OneDrive/Desktop/GD32VW553/V1_MQTT_OK/GD32VW55X_Wifi_BLE_SDK/GD32VW55x_RELEASE_V1.0.2/MSDK/wpa_supplicant/src/utils\wpa_debug.c **** }
 1679              		.loc 1 814 2
 1680 00ae 2285     		mv	a0,s0
 1681 00b0 97000000 		call	os_free
 1681      E7800000 
 1682              	.LVL174:
 1683 00b8 65B7     		j	.L109
 1684              		.cfi_endproc
 1685              	.LFE90:
 1687              		.section	.rodata.debug_level_str.str1.4,"aMS",@progbits,1
 1688              		.align	2
 1689              	.LC19:
 1690 0000 3F00     		.string	"?"
 1691              		.section	.text.debug_level_str,"ax",@progbits
 1692              		.align	1
 1693              		.globl	debug_level_str
 1695              	debug_level_str:
 1696              	.LFB91:
 816:C:/Users/stapi/OneDrive/Desktop/GD32VW553/V1_MQTT_OK/GD32VW55X_Wifi_BLE_SDK/GD32VW55x_RELEASE_V1.0.2/MSDK/wpa_supplicant/src/utils\wpa_debug.c **** 
 817:C:/Users/stapi/OneDrive/Desktop/GD32VW553/V1_MQTT_OK/GD32VW55X_Wifi_BLE_SDK/GD32VW55x_RELEASE_V1.0.2/MSDK/wpa_supplicant/src/utils\wpa_debug.c **** #endif /* CONFIG_NO_WPA_MSG */
 818:C:/Users/stapi/OneDrive/Desktop/GD32VW553/V1_MQTT_OK/GD32VW55X_Wifi_BLE_SDK/GD32VW55x_RELEASE_V1.0.2/MSDK/wpa_supplicant/src/utils\wpa_debug.c **** 
 819:C:/Users/stapi/OneDrive/Desktop/GD32VW553/V1_MQTT_OK/GD32VW55X_Wifi_BLE_SDK/GD32VW55x_RELEASE_V1.0.2/MSDK/wpa_supplicant/src/utils\wpa_debug.c **** 
 820:C:/Users/stapi/OneDrive/Desktop/GD32VW553/V1_MQTT_OK/GD32VW55X_Wifi_BLE_SDK/GD32VW55x_RELEASE_V1.0.2/MSDK/wpa_supplicant/src/utils\wpa_debug.c **** #ifndef CONFIG_NO_HOSTAPD_LOGGER
 821:C:/Users/stapi/OneDrive/Desktop/GD32VW553/V1_MQTT_OK/GD32VW55X_Wifi_BLE_SDK/GD32VW55x_RELEASE_V1.0.2/MSDK/wpa_supplicant/src/utils\wpa_debug.c **** static hostapd_logger_cb_func hostapd_logger_cb = NULL;
 822:C:/Users/stapi/OneDrive/Desktop/GD32VW553/V1_MQTT_OK/GD32VW55X_Wifi_BLE_SDK/GD32VW55x_RELEASE_V1.0.2/MSDK/wpa_supplicant/src/utils\wpa_debug.c **** 
 823:C:/Users/stapi/OneDrive/Desktop/GD32VW553/V1_MQTT_OK/GD32VW55X_Wifi_BLE_SDK/GD32VW55x_RELEASE_V1.0.2/MSDK/wpa_supplicant/src/utils\wpa_debug.c **** void hostapd_logger_register_cb(hostapd_logger_cb_func func)
 824:C:/Users/stapi/OneDrive/Desktop/GD32VW553/V1_MQTT_OK/GD32VW55X_Wifi_BLE_SDK/GD32VW55x_RELEASE_V1.0.2/MSDK/wpa_supplicant/src/utils\wpa_debug.c **** {
 825:C:/Users/stapi/OneDrive/Desktop/GD32VW553/V1_MQTT_OK/GD32VW55X_Wifi_BLE_SDK/GD32VW55x_RELEASE_V1.0.2/MSDK/wpa_supplicant/src/utils\wpa_debug.c **** 	hostapd_logger_cb = func;
 826:C:/Users/stapi/OneDrive/Desktop/GD32VW553/V1_MQTT_OK/GD32VW55X_Wifi_BLE_SDK/GD32VW55x_RELEASE_V1.0.2/MSDK/wpa_supplicant/src/utils\wpa_debug.c **** }
 827:C:/Users/stapi/OneDrive/Desktop/GD32VW553/V1_MQTT_OK/GD32VW55X_Wifi_BLE_SDK/GD32VW55x_RELEASE_V1.0.2/MSDK/wpa_supplicant/src/utils\wpa_debug.c **** 
 828:C:/Users/stapi/OneDrive/Desktop/GD32VW553/V1_MQTT_OK/GD32VW55X_Wifi_BLE_SDK/GD32VW55x_RELEASE_V1.0.2/MSDK/wpa_supplicant/src/utils\wpa_debug.c **** 
 829:C:/Users/stapi/OneDrive/Desktop/GD32VW553/V1_MQTT_OK/GD32VW55X_Wifi_BLE_SDK/GD32VW55x_RELEASE_V1.0.2/MSDK/wpa_supplicant/src/utils\wpa_debug.c **** void hostapd_logger(void *ctx, const u8 *addr, unsigned int module, int level,
 830:C:/Users/stapi/OneDrive/Desktop/GD32VW553/V1_MQTT_OK/GD32VW55X_Wifi_BLE_SDK/GD32VW55x_RELEASE_V1.0.2/MSDK/wpa_supplicant/src/utils\wpa_debug.c **** 		    const char *fmt, ...)
 831:C:/Users/stapi/OneDrive/Desktop/GD32VW553/V1_MQTT_OK/GD32VW55X_Wifi_BLE_SDK/GD32VW55x_RELEASE_V1.0.2/MSDK/wpa_supplicant/src/utils\wpa_debug.c **** {
 832:C:/Users/stapi/OneDrive/Desktop/GD32VW553/V1_MQTT_OK/GD32VW55X_Wifi_BLE_SDK/GD32VW55x_RELEASE_V1.0.2/MSDK/wpa_supplicant/src/utils\wpa_debug.c **** 	va_list ap;
 833:C:/Users/stapi/OneDrive/Desktop/GD32VW553/V1_MQTT_OK/GD32VW55X_Wifi_BLE_SDK/GD32VW55x_RELEASE_V1.0.2/MSDK/wpa_supplicant/src/utils\wpa_debug.c **** 	char *buf;
 834:C:/Users/stapi/OneDrive/Desktop/GD32VW553/V1_MQTT_OK/GD32VW55X_Wifi_BLE_SDK/GD32VW55x_RELEASE_V1.0.2/MSDK/wpa_supplicant/src/utils\wpa_debug.c **** 	int buflen;
 835:C:/Users/stapi/OneDrive/Desktop/GD32VW553/V1_MQTT_OK/GD32VW55X_Wifi_BLE_SDK/GD32VW55x_RELEASE_V1.0.2/MSDK/wpa_supplicant/src/utils\wpa_debug.c **** 	int len;
 836:C:/Users/stapi/OneDrive/Desktop/GD32VW553/V1_MQTT_OK/GD32VW55X_Wifi_BLE_SDK/GD32VW55x_RELEASE_V1.0.2/MSDK/wpa_supplicant/src/utils\wpa_debug.c **** 
 837:C:/Users/stapi/OneDrive/Desktop/GD32VW553/V1_MQTT_OK/GD32VW55X_Wifi_BLE_SDK/GD32VW55x_RELEASE_V1.0.2/MSDK/wpa_supplicant/src/utils\wpa_debug.c **** 	va_start(ap, fmt);
 838:C:/Users/stapi/OneDrive/Desktop/GD32VW553/V1_MQTT_OK/GD32VW55X_Wifi_BLE_SDK/GD32VW55x_RELEASE_V1.0.2/MSDK/wpa_supplicant/src/utils\wpa_debug.c **** 	buflen = vsnprintf(NULL, 0, fmt, ap) + 1;
 839:C:/Users/stapi/OneDrive/Desktop/GD32VW553/V1_MQTT_OK/GD32VW55X_Wifi_BLE_SDK/GD32VW55x_RELEASE_V1.0.2/MSDK/wpa_supplicant/src/utils\wpa_debug.c **** 	va_end(ap);
 840:C:/Users/stapi/OneDrive/Desktop/GD32VW553/V1_MQTT_OK/GD32VW55X_Wifi_BLE_SDK/GD32VW55x_RELEASE_V1.0.2/MSDK/wpa_supplicant/src/utils\wpa_debug.c **** 
 841:C:/Users/stapi/OneDrive/Desktop/GD32VW553/V1_MQTT_OK/GD32VW55X_Wifi_BLE_SDK/GD32VW55x_RELEASE_V1.0.2/MSDK/wpa_supplicant/src/utils\wpa_debug.c **** 	buf = os_malloc(buflen);
 842:C:/Users/stapi/OneDrive/Desktop/GD32VW553/V1_MQTT_OK/GD32VW55X_Wifi_BLE_SDK/GD32VW55x_RELEASE_V1.0.2/MSDK/wpa_supplicant/src/utils\wpa_debug.c **** 	if (buf == NULL) {
 843:C:/Users/stapi/OneDrive/Desktop/GD32VW553/V1_MQTT_OK/GD32VW55X_Wifi_BLE_SDK/GD32VW55x_RELEASE_V1.0.2/MSDK/wpa_supplicant/src/utils\wpa_debug.c **** 		wpa_printf(MSG_ERROR, "hostapd_logger: Failed to allocate "
 844:C:/Users/stapi/OneDrive/Desktop/GD32VW553/V1_MQTT_OK/GD32VW55X_Wifi_BLE_SDK/GD32VW55x_RELEASE_V1.0.2/MSDK/wpa_supplicant/src/utils\wpa_debug.c **** 			   "message buffer");
 845:C:/Users/stapi/OneDrive/Desktop/GD32VW553/V1_MQTT_OK/GD32VW55X_Wifi_BLE_SDK/GD32VW55x_RELEASE_V1.0.2/MSDK/wpa_supplicant/src/utils\wpa_debug.c **** 		return;
 846:C:/Users/stapi/OneDrive/Desktop/GD32VW553/V1_MQTT_OK/GD32VW55X_Wifi_BLE_SDK/GD32VW55x_RELEASE_V1.0.2/MSDK/wpa_supplicant/src/utils\wpa_debug.c **** 	}
 847:C:/Users/stapi/OneDrive/Desktop/GD32VW553/V1_MQTT_OK/GD32VW55X_Wifi_BLE_SDK/GD32VW55x_RELEASE_V1.0.2/MSDK/wpa_supplicant/src/utils\wpa_debug.c **** 	va_start(ap, fmt);
 848:C:/Users/stapi/OneDrive/Desktop/GD32VW553/V1_MQTT_OK/GD32VW55X_Wifi_BLE_SDK/GD32VW55x_RELEASE_V1.0.2/MSDK/wpa_supplicant/src/utils\wpa_debug.c **** 	len = vsnprintf(buf, buflen, fmt, ap);
 849:C:/Users/stapi/OneDrive/Desktop/GD32VW553/V1_MQTT_OK/GD32VW55X_Wifi_BLE_SDK/GD32VW55x_RELEASE_V1.0.2/MSDK/wpa_supplicant/src/utils\wpa_debug.c **** 	va_end(ap);
 850:C:/Users/stapi/OneDrive/Desktop/GD32VW553/V1_MQTT_OK/GD32VW55X_Wifi_BLE_SDK/GD32VW55x_RELEASE_V1.0.2/MSDK/wpa_supplicant/src/utils\wpa_debug.c **** 	if (hostapd_logger_cb)
 851:C:/Users/stapi/OneDrive/Desktop/GD32VW553/V1_MQTT_OK/GD32VW55X_Wifi_BLE_SDK/GD32VW55x_RELEASE_V1.0.2/MSDK/wpa_supplicant/src/utils\wpa_debug.c **** 		hostapd_logger_cb(ctx, addr, module, level, buf, len);
 852:C:/Users/stapi/OneDrive/Desktop/GD32VW553/V1_MQTT_OK/GD32VW55X_Wifi_BLE_SDK/GD32VW55x_RELEASE_V1.0.2/MSDK/wpa_supplicant/src/utils\wpa_debug.c **** 	else if (addr)
 853:C:/Users/stapi/OneDrive/Desktop/GD32VW553/V1_MQTT_OK/GD32VW55X_Wifi_BLE_SDK/GD32VW55x_RELEASE_V1.0.2/MSDK/wpa_supplicant/src/utils\wpa_debug.c **** 		wpa_printf(MSG_DEBUG, "hostapd_logger: STA " MACSTR " - %s",
 854:C:/Users/stapi/OneDrive/Desktop/GD32VW553/V1_MQTT_OK/GD32VW55X_Wifi_BLE_SDK/GD32VW55x_RELEASE_V1.0.2/MSDK/wpa_supplicant/src/utils\wpa_debug.c **** 			   MAC2STR(addr), buf);
 855:C:/Users/stapi/OneDrive/Desktop/GD32VW553/V1_MQTT_OK/GD32VW55X_Wifi_BLE_SDK/GD32VW55x_RELEASE_V1.0.2/MSDK/wpa_supplicant/src/utils\wpa_debug.c **** 	else
 856:C:/Users/stapi/OneDrive/Desktop/GD32VW553/V1_MQTT_OK/GD32VW55X_Wifi_BLE_SDK/GD32VW55x_RELEASE_V1.0.2/MSDK/wpa_supplicant/src/utils\wpa_debug.c **** 		wpa_printf(MSG_DEBUG, "hostapd_logger: %s", buf);
 857:C:/Users/stapi/OneDrive/Desktop/GD32VW553/V1_MQTT_OK/GD32VW55X_Wifi_BLE_SDK/GD32VW55x_RELEASE_V1.0.2/MSDK/wpa_supplicant/src/utils\wpa_debug.c **** 	bin_clear_free(buf, buflen);
 858:C:/Users/stapi/OneDrive/Desktop/GD32VW553/V1_MQTT_OK/GD32VW55X_Wifi_BLE_SDK/GD32VW55x_RELEASE_V1.0.2/MSDK/wpa_supplicant/src/utils\wpa_debug.c **** }
 859:C:/Users/stapi/OneDrive/Desktop/GD32VW553/V1_MQTT_OK/GD32VW55X_Wifi_BLE_SDK/GD32VW55x_RELEASE_V1.0.2/MSDK/wpa_supplicant/src/utils\wpa_debug.c **** #endif /* CONFIG_NO_HOSTAPD_LOGGER */
 860:C:/Users/stapi/OneDrive/Desktop/GD32VW553/V1_MQTT_OK/GD32VW55X_Wifi_BLE_SDK/GD32VW55x_RELEASE_V1.0.2/MSDK/wpa_supplicant/src/utils\wpa_debug.c **** 
 861:C:/Users/stapi/OneDrive/Desktop/GD32VW553/V1_MQTT_OK/GD32VW55X_Wifi_BLE_SDK/GD32VW55x_RELEASE_V1.0.2/MSDK/wpa_supplicant/src/utils\wpa_debug.c **** 
 862:C:/Users/stapi/OneDrive/Desktop/GD32VW553/V1_MQTT_OK/GD32VW55X_Wifi_BLE_SDK/GD32VW55x_RELEASE_V1.0.2/MSDK/wpa_supplicant/src/utils\wpa_debug.c **** const char * debug_level_str(int level)
 863:C:/Users/stapi/OneDrive/Desktop/GD32VW553/V1_MQTT_OK/GD32VW55X_Wifi_BLE_SDK/GD32VW55x_RELEASE_V1.0.2/MSDK/wpa_supplicant/src/utils\wpa_debug.c **** {
 1697              		.loc 1 863 1
 1698              		.cfi_startproc
 1699              	.LVL175:
 864:C:/Users/stapi/OneDrive/Desktop/GD32VW553/V1_MQTT_OK/GD32VW55X_Wifi_BLE_SDK/GD32VW55x_RELEASE_V1.0.2/MSDK/wpa_supplicant/src/utils\wpa_debug.c **** 	switch (level) {
 1700              		.loc 1 864 2
 1701 0000 9547     		li	a5,5
 1702 0002 63EAA700 		bgtu	a0,a5,.L119
 1703 0006 B7070000 		lui	a5,%hi(.LANCHOR7)
 1704 000a 93870700 		addi	a5,a5,%lo(.LANCHOR7)
 1705 000e 3345F520 		sh2add	a0,a0,a5
 1706              	.LVL176:
 1707 0012 0841     		lw	a0,0(a0)
 1708 0014 8280     		ret
 1709              	.LVL177:
 1710              	.L119:
 863:C:/Users/stapi/OneDrive/Desktop/GD32VW553/V1_MQTT_OK/GD32VW55X_Wifi_BLE_SDK/GD32VW55x_RELEASE_V1.0.2/MSDK/wpa_supplicant/src/utils\wpa_debug.c **** 	switch (level) {
 1711              		.loc 1 863 1 is_stmt 0
 1712 0016 37050000 		lui	a0,%hi(.LC19)
 1713              	.LVL178:
 1714 001a 13050500 		addi	a0,a0,%lo(.LC19)
 865:C:/Users/stapi/OneDrive/Desktop/GD32VW553/V1_MQTT_OK/GD32VW55X_Wifi_BLE_SDK/GD32VW55x_RELEASE_V1.0.2/MSDK/wpa_supplicant/src/utils\wpa_debug.c **** 	case MSG_EXCESSIVE:
 866:C:/Users/stapi/OneDrive/Desktop/GD32VW553/V1_MQTT_OK/GD32VW55X_Wifi_BLE_SDK/GD32VW55x_RELEASE_V1.0.2/MSDK/wpa_supplicant/src/utils\wpa_debug.c **** 		return "EXCESSIVE";
 867:C:/Users/stapi/OneDrive/Desktop/GD32VW553/V1_MQTT_OK/GD32VW55X_Wifi_BLE_SDK/GD32VW55x_RELEASE_V1.0.2/MSDK/wpa_supplicant/src/utils\wpa_debug.c **** 	case MSG_MSGDUMP:
 868:C:/Users/stapi/OneDrive/Desktop/GD32VW553/V1_MQTT_OK/GD32VW55X_Wifi_BLE_SDK/GD32VW55x_RELEASE_V1.0.2/MSDK/wpa_supplicant/src/utils\wpa_debug.c **** 		return "MSGDUMP";
 869:C:/Users/stapi/OneDrive/Desktop/GD32VW553/V1_MQTT_OK/GD32VW55X_Wifi_BLE_SDK/GD32VW55x_RELEASE_V1.0.2/MSDK/wpa_supplicant/src/utils\wpa_debug.c **** 	case MSG_DEBUG:
 870:C:/Users/stapi/OneDrive/Desktop/GD32VW553/V1_MQTT_OK/GD32VW55X_Wifi_BLE_SDK/GD32VW55x_RELEASE_V1.0.2/MSDK/wpa_supplicant/src/utils\wpa_debug.c **** 		return "DEBUG";
 871:C:/Users/stapi/OneDrive/Desktop/GD32VW553/V1_MQTT_OK/GD32VW55X_Wifi_BLE_SDK/GD32VW55x_RELEASE_V1.0.2/MSDK/wpa_supplicant/src/utils\wpa_debug.c **** 	case MSG_INFO:
 872:C:/Users/stapi/OneDrive/Desktop/GD32VW553/V1_MQTT_OK/GD32VW55X_Wifi_BLE_SDK/GD32VW55x_RELEASE_V1.0.2/MSDK/wpa_supplicant/src/utils\wpa_debug.c **** 		return "INFO";
 873:C:/Users/stapi/OneDrive/Desktop/GD32VW553/V1_MQTT_OK/GD32VW55X_Wifi_BLE_SDK/GD32VW55x_RELEASE_V1.0.2/MSDK/wpa_supplicant/src/utils\wpa_debug.c **** 	case MSG_WARNING:
 874:C:/Users/stapi/OneDrive/Desktop/GD32VW553/V1_MQTT_OK/GD32VW55X_Wifi_BLE_SDK/GD32VW55x_RELEASE_V1.0.2/MSDK/wpa_supplicant/src/utils\wpa_debug.c **** 		return "WARNING";
 875:C:/Users/stapi/OneDrive/Desktop/GD32VW553/V1_MQTT_OK/GD32VW55X_Wifi_BLE_SDK/GD32VW55x_RELEASE_V1.0.2/MSDK/wpa_supplicant/src/utils\wpa_debug.c **** 	case MSG_ERROR:
 876:C:/Users/stapi/OneDrive/Desktop/GD32VW553/V1_MQTT_OK/GD32VW55X_Wifi_BLE_SDK/GD32VW55x_RELEASE_V1.0.2/MSDK/wpa_supplicant/src/utils\wpa_debug.c **** 		return "ERROR";
 877:C:/Users/stapi/OneDrive/Desktop/GD32VW553/V1_MQTT_OK/GD32VW55X_Wifi_BLE_SDK/GD32VW55x_RELEASE_V1.0.2/MSDK/wpa_supplicant/src/utils\wpa_debug.c **** 	default:
 878:C:/Users/stapi/OneDrive/Desktop/GD32VW553/V1_MQTT_OK/GD32VW55X_Wifi_BLE_SDK/GD32VW55x_RELEASE_V1.0.2/MSDK/wpa_supplicant/src/utils\wpa_debug.c **** 		return "?";
 879:C:/Users/stapi/OneDrive/Desktop/GD32VW553/V1_MQTT_OK/GD32VW55X_Wifi_BLE_SDK/GD32VW55x_RELEASE_V1.0.2/MSDK/wpa_supplicant/src/utils\wpa_debug.c **** 	}
 880:C:/Users/stapi/OneDrive/Desktop/GD32VW553/V1_MQTT_OK/GD32VW55X_Wifi_BLE_SDK/GD32VW55x_RELEASE_V1.0.2/MSDK/wpa_supplicant/src/utils\wpa_debug.c **** }
 1715              		.loc 1 880 1
 1716 001e 8280     		ret
 1717              		.cfi_endproc
 1718              	.LFE91:
 1720              		.section	.rodata.str_to_debug_level.str1.4,"aMS",@progbits,1
 1721              		.align	2
 1722              	.LC20:
 1723 0000 45584345 		.string	"EXCESSIVE"
 1723      53534956 
 1723      4500
 1724 000a 0000     		.align	2
 1725              	.LC21:
 1726 000c 4D534744 		.string	"MSGDUMP"
 1726      554D5000 
 1727              		.align	2
 1728              	.LC22:
 1729 0014 44454255 		.string	"DEBUG"
 1729      4700
 1730 001a 0000     		.align	2
 1731              	.LC23:
 1732 001c 494E464F 		.string	"INFO"
 1732      00
 1733 0021 000000   		.align	2
 1734              	.LC24:
 1735 0024 5741524E 		.string	"WARNING"
 1735      494E4700 
 1736              		.align	2
 1737              	.LC25:
 1738 002c 4552524F 		.string	"ERROR"
 1738      5200
 1739              		.section	.text.str_to_debug_level,"ax",@progbits
 1740              		.align	1
 1741              		.globl	str_to_debug_level
 1743              	str_to_debug_level:
 1744              	.LFB92:
 881:C:/Users/stapi/OneDrive/Desktop/GD32VW553/V1_MQTT_OK/GD32VW55X_Wifi_BLE_SDK/GD32VW55x_RELEASE_V1.0.2/MSDK/wpa_supplicant/src/utils\wpa_debug.c **** 
 882:C:/Users/stapi/OneDrive/Desktop/GD32VW553/V1_MQTT_OK/GD32VW55X_Wifi_BLE_SDK/GD32VW55x_RELEASE_V1.0.2/MSDK/wpa_supplicant/src/utils\wpa_debug.c **** 
 883:C:/Users/stapi/OneDrive/Desktop/GD32VW553/V1_MQTT_OK/GD32VW55X_Wifi_BLE_SDK/GD32VW55x_RELEASE_V1.0.2/MSDK/wpa_supplicant/src/utils\wpa_debug.c **** int str_to_debug_level(const char *s)
 884:C:/Users/stapi/OneDrive/Desktop/GD32VW553/V1_MQTT_OK/GD32VW55X_Wifi_BLE_SDK/GD32VW55x_RELEASE_V1.0.2/MSDK/wpa_supplicant/src/utils\wpa_debug.c **** {
 1745              		.loc 1 884 1 is_stmt 1
 1746              		.cfi_startproc
 1747              	.LVL179:
 1748 0000 17030000 		call	t0,__riscv_save_1
 1748      E7020300 
 1749              		.cfi_offset 8, -8
 1750              		.cfi_offset 1, -4
 1751              		.cfi_def_cfa_offset 16
 885:C:/Users/stapi/OneDrive/Desktop/GD32VW553/V1_MQTT_OK/GD32VW55X_Wifi_BLE_SDK/GD32VW55x_RELEASE_V1.0.2/MSDK/wpa_supplicant/src/utils\wpa_debug.c **** 	if (os_strcasecmp(s, "EXCESSIVE") == 0)
 1752              		.loc 1 885 2
 1753              		.loc 1 885 6 is_stmt 0
 1754 0008 B7050000 		lui	a1,%hi(.LC20)
 1755 000c 93850500 		addi	a1,a1,%lo(.LC20)
 884:C:/Users/stapi/OneDrive/Desktop/GD32VW553/V1_MQTT_OK/GD32VW55X_Wifi_BLE_SDK/GD32VW55x_RELEASE_V1.0.2/MSDK/wpa_supplicant/src/utils\wpa_debug.c **** 	if (os_strcasecmp(s, "EXCESSIVE") == 0)
 1756              		.loc 1 884 1
 1757 0010 2A84     		mv	s0,a0
 1758              		.loc 1 885 6
 1759 0012 97000000 		call	os_strcasecmp
 1759      E7800000 
 1760              	.LVL180:
 1761 001a AA87     		mv	a5,a0
 1762              		.loc 1 885 5
 1763 001c 2DC9     		beq	a0,zero,.L120
 886:C:/Users/stapi/OneDrive/Desktop/GD32VW553/V1_MQTT_OK/GD32VW55X_Wifi_BLE_SDK/GD32VW55x_RELEASE_V1.0.2/MSDK/wpa_supplicant/src/utils\wpa_debug.c **** 		return MSG_EXCESSIVE;
 887:C:/Users/stapi/OneDrive/Desktop/GD32VW553/V1_MQTT_OK/GD32VW55X_Wifi_BLE_SDK/GD32VW55x_RELEASE_V1.0.2/MSDK/wpa_supplicant/src/utils\wpa_debug.c **** 	if (os_strcasecmp(s, "MSGDUMP") == 0)
 1764              		.loc 1 887 2 is_stmt 1
 1765              		.loc 1 887 6 is_stmt 0
 1766 001e B7050000 		lui	a1,%hi(.LC21)
 1767 0022 93850500 		addi	a1,a1,%lo(.LC21)
 1768 0026 2285     		mv	a0,s0
 1769 0028 97000000 		call	os_strcasecmp
 1769      E7800000 
 1770              	.LVL181:
 888:C:/Users/stapi/OneDrive/Desktop/GD32VW553/V1_MQTT_OK/GD32VW55X_Wifi_BLE_SDK/GD32VW55x_RELEASE_V1.0.2/MSDK/wpa_supplicant/src/utils\wpa_debug.c **** 		return MSG_MSGDUMP;
 1771              		.loc 1 888 10
 1772 0030 8547     		li	a5,1
 887:C:/Users/stapi/OneDrive/Desktop/GD32VW553/V1_MQTT_OK/GD32VW55X_Wifi_BLE_SDK/GD32VW55x_RELEASE_V1.0.2/MSDK/wpa_supplicant/src/utils\wpa_debug.c **** 		return MSG_MSGDUMP;
 1773              		.loc 1 887 5
 1774 0032 31CD     		beq	a0,zero,.L120
 889:C:/Users/stapi/OneDrive/Desktop/GD32VW553/V1_MQTT_OK/GD32VW55X_Wifi_BLE_SDK/GD32VW55x_RELEASE_V1.0.2/MSDK/wpa_supplicant/src/utils\wpa_debug.c **** 	if (os_strcasecmp(s, "DEBUG") == 0)
 1775              		.loc 1 889 2 is_stmt 1
 1776              		.loc 1 889 6 is_stmt 0
 1777 0034 B7050000 		lui	a1,%hi(.LC22)
 1778 0038 93850500 		addi	a1,a1,%lo(.LC22)
 1779 003c 2285     		mv	a0,s0
 1780 003e 97000000 		call	os_strcasecmp
 1780      E7800000 
 1781              	.LVL182:
 890:C:/Users/stapi/OneDrive/Desktop/GD32VW553/V1_MQTT_OK/GD32VW55X_Wifi_BLE_SDK/GD32VW55x_RELEASE_V1.0.2/MSDK/wpa_supplicant/src/utils\wpa_debug.c **** 		return MSG_DEBUG;
 1782              		.loc 1 890 10
 1783 0046 8947     		li	a5,2
 889:C:/Users/stapi/OneDrive/Desktop/GD32VW553/V1_MQTT_OK/GD32VW55X_Wifi_BLE_SDK/GD32VW55x_RELEASE_V1.0.2/MSDK/wpa_supplicant/src/utils\wpa_debug.c **** 	if (os_strcasecmp(s, "DEBUG") == 0)
 1784              		.loc 1 889 5
 1785 0048 39C1     		beq	a0,zero,.L120
 891:C:/Users/stapi/OneDrive/Desktop/GD32VW553/V1_MQTT_OK/GD32VW55X_Wifi_BLE_SDK/GD32VW55x_RELEASE_V1.0.2/MSDK/wpa_supplicant/src/utils\wpa_debug.c **** 	if (os_strcasecmp(s, "INFO") == 0)
 1786              		.loc 1 891 2 is_stmt 1
 1787              		.loc 1 891 6 is_stmt 0
 1788 004a B7050000 		lui	a1,%hi(.LC23)
 1789 004e 93850500 		addi	a1,a1,%lo(.LC23)
 1790 0052 2285     		mv	a0,s0
 1791 0054 97000000 		call	os_strcasecmp
 1791      E7800000 
 1792              	.LVL183:
 892:C:/Users/stapi/OneDrive/Desktop/GD32VW553/V1_MQTT_OK/GD32VW55X_Wifi_BLE_SDK/GD32VW55x_RELEASE_V1.0.2/MSDK/wpa_supplicant/src/utils\wpa_debug.c **** 		return MSG_INFO;
 1793              		.loc 1 892 10
 1794 005c 8D47     		li	a5,3
 891:C:/Users/stapi/OneDrive/Desktop/GD32VW553/V1_MQTT_OK/GD32VW55X_Wifi_BLE_SDK/GD32VW55x_RELEASE_V1.0.2/MSDK/wpa_supplicant/src/utils\wpa_debug.c **** 	if (os_strcasecmp(s, "INFO") == 0)
 1795              		.loc 1 891 5
 1796 005e 05C9     		beq	a0,zero,.L120
 893:C:/Users/stapi/OneDrive/Desktop/GD32VW553/V1_MQTT_OK/GD32VW55X_Wifi_BLE_SDK/GD32VW55x_RELEASE_V1.0.2/MSDK/wpa_supplicant/src/utils\wpa_debug.c **** 	if (os_strcasecmp(s, "WARNING") == 0)
 1797              		.loc 1 893 2 is_stmt 1
 1798              		.loc 1 893 6 is_stmt 0
 1799 0060 B7050000 		lui	a1,%hi(.LC24)
 1800 0064 93850500 		addi	a1,a1,%lo(.LC24)
 1801 0068 2285     		mv	a0,s0
 1802 006a 97000000 		call	os_strcasecmp
 1802      E7800000 
 1803              	.LVL184:
 894:C:/Users/stapi/OneDrive/Desktop/GD32VW553/V1_MQTT_OK/GD32VW55X_Wifi_BLE_SDK/GD32VW55x_RELEASE_V1.0.2/MSDK/wpa_supplicant/src/utils\wpa_debug.c **** 		return MSG_WARNING;
 1804              		.loc 1 894 10
 1805 0072 9147     		li	a5,4
 893:C:/Users/stapi/OneDrive/Desktop/GD32VW553/V1_MQTT_OK/GD32VW55X_Wifi_BLE_SDK/GD32VW55x_RELEASE_V1.0.2/MSDK/wpa_supplicant/src/utils\wpa_debug.c **** 	if (os_strcasecmp(s, "WARNING") == 0)
 1806              		.loc 1 893 5
 1807 0074 09CD     		beq	a0,zero,.L120
 895:C:/Users/stapi/OneDrive/Desktop/GD32VW553/V1_MQTT_OK/GD32VW55X_Wifi_BLE_SDK/GD32VW55x_RELEASE_V1.0.2/MSDK/wpa_supplicant/src/utils\wpa_debug.c **** 	if (os_strcasecmp(s, "ERROR") == 0)
 1808              		.loc 1 895 2 is_stmt 1
 1809              		.loc 1 895 6 is_stmt 0
 1810 0076 B7050000 		lui	a1,%hi(.LC25)
 1811 007a 93850500 		addi	a1,a1,%lo(.LC25)
 1812 007e 2285     		mv	a0,s0
 1813 0080 97000000 		call	os_strcasecmp
 1813      E7800000 
 1814              	.LVL185:
 896:C:/Users/stapi/OneDrive/Desktop/GD32VW553/V1_MQTT_OK/GD32VW55X_Wifi_BLE_SDK/GD32VW55x_RELEASE_V1.0.2/MSDK/wpa_supplicant/src/utils\wpa_debug.c **** 		return MSG_ERROR;
 897:C:/Users/stapi/OneDrive/Desktop/GD32VW553/V1_MQTT_OK/GD32VW55X_Wifi_BLE_SDK/GD32VW55x_RELEASE_V1.0.2/MSDK/wpa_supplicant/src/utils\wpa_debug.c **** 	return -1;
 1815              		.loc 1 897 9
 1816 0088 FD57     		li	a5,-1
 895:C:/Users/stapi/OneDrive/Desktop/GD32VW553/V1_MQTT_OK/GD32VW55X_Wifi_BLE_SDK/GD32VW55x_RELEASE_V1.0.2/MSDK/wpa_supplicant/src/utils\wpa_debug.c **** 	if (os_strcasecmp(s, "ERROR") == 0)
 1817              		.loc 1 895 5
 1818 008a 11E1     		bne	a0,zero,.L120
 896:C:/Users/stapi/OneDrive/Desktop/GD32VW553/V1_MQTT_OK/GD32VW55X_Wifi_BLE_SDK/GD32VW55x_RELEASE_V1.0.2/MSDK/wpa_supplicant/src/utils\wpa_debug.c **** 		return MSG_ERROR;
 1819              		.loc 1 896 10
 1820 008c 9547     		li	a5,5
 1821              	.L120:
 898:C:/Users/stapi/OneDrive/Desktop/GD32VW553/V1_MQTT_OK/GD32VW55X_Wifi_BLE_SDK/GD32VW55x_RELEASE_V1.0.2/MSDK/wpa_supplicant/src/utils\wpa_debug.c **** }
 1822              		.loc 1 898 1
 1823 008e 3E85     		mv	a0,a5
 1824 0090 17030000 		tail	__riscv_restore_1
 1824      67000300 
 1825              		.cfi_restore 8
 1826              		.cfi_restore 1
 1827              		.cfi_def_cfa_offset 0
 1828              		.cfi_endproc
 1829              	.LFE92:
 1831              		.section	.text.wpa_debug_level_set,"ax",@progbits
 1832              		.align	1
 1833              		.globl	wpa_debug_level_set
 1835              	wpa_debug_level_set:
 1836              	.LFB93:
 899:C:/Users/stapi/OneDrive/Desktop/GD32VW553/V1_MQTT_OK/GD32VW55X_Wifi_BLE_SDK/GD32VW55x_RELEASE_V1.0.2/MSDK/wpa_supplicant/src/utils\wpa_debug.c **** 
 900:C:/Users/stapi/OneDrive/Desktop/GD32VW553/V1_MQTT_OK/GD32VW55X_Wifi_BLE_SDK/GD32VW55x_RELEASE_V1.0.2/MSDK/wpa_supplicant/src/utils\wpa_debug.c **** void wpa_debug_level_set(uint32_t level)
 901:C:/Users/stapi/OneDrive/Desktop/GD32VW553/V1_MQTT_OK/GD32VW55X_Wifi_BLE_SDK/GD32VW55x_RELEASE_V1.0.2/MSDK/wpa_supplicant/src/utils\wpa_debug.c **** {
 1837              		.loc 1 901 1 is_stmt 1
 1838              		.cfi_startproc
 1839              	.LVL186:
 902:C:/Users/stapi/OneDrive/Desktop/GD32VW553/V1_MQTT_OK/GD32VW55X_Wifi_BLE_SDK/GD32VW55x_RELEASE_V1.0.2/MSDK/wpa_supplicant/src/utils\wpa_debug.c ****     wpa_debug_level = (level > MSG_ERROR) ? MSG_ERROR : level;
 1840              		.loc 1 902 5
 1841              		.loc 1 902 55 is_stmt 0
 1842 0000 9547     		li	a5,5
 1843 0002 3355F50A 		minu	a0,a0,a5
 1844              	.LVL187:
 1845              		.loc 1 902 21
 1846 0006 B7070000 		lui	a5,%hi(.LANCHOR2)
 1847 000a 23A0A700 		sw	a0,%lo(.LANCHOR2)(a5)
 903:C:/Users/stapi/OneDrive/Desktop/GD32VW553/V1_MQTT_OK/GD32VW55X_Wifi_BLE_SDK/GD32VW55x_RELEASE_V1.0.2/MSDK/wpa_supplicant/src/utils\wpa_debug.c **** }
 1848              		.loc 1 903 1
 1849 000e 8280     		ret
 1850              		.cfi_endproc
 1851              	.LFE93:
 1853              		.section	.text.wpa_debug_level_get,"ax",@progbits
 1854              		.align	1
 1855              		.globl	wpa_debug_level_get
 1857              	wpa_debug_level_get:
 1858              	.LFB94:
 904:C:/Users/stapi/OneDrive/Desktop/GD32VW553/V1_MQTT_OK/GD32VW55X_Wifi_BLE_SDK/GD32VW55x_RELEASE_V1.0.2/MSDK/wpa_supplicant/src/utils\wpa_debug.c **** 
 905:C:/Users/stapi/OneDrive/Desktop/GD32VW553/V1_MQTT_OK/GD32VW55X_Wifi_BLE_SDK/GD32VW55x_RELEASE_V1.0.2/MSDK/wpa_supplicant/src/utils\wpa_debug.c **** uint32_t wpa_debug_level_get(void)
 906:C:/Users/stapi/OneDrive/Desktop/GD32VW553/V1_MQTT_OK/GD32VW55X_Wifi_BLE_SDK/GD32VW55x_RELEASE_V1.0.2/MSDK/wpa_supplicant/src/utils\wpa_debug.c **** {
 1859              		.loc 1 906 1 is_stmt 1
 1860              		.cfi_startproc
 907:C:/Users/stapi/OneDrive/Desktop/GD32VW553/V1_MQTT_OK/GD32VW55X_Wifi_BLE_SDK/GD32VW55x_RELEASE_V1.0.2/MSDK/wpa_supplicant/src/utils\wpa_debug.c ****     return wpa_debug_level;
 1861              		.loc 1 907 5
 908:C:/Users/stapi/OneDrive/Desktop/GD32VW553/V1_MQTT_OK/GD32VW55X_Wifi_BLE_SDK/GD32VW55x_RELEASE_V1.0.2/MSDK/wpa_supplicant/src/utils\wpa_debug.c **** }
 1862              		.loc 1 908 1 is_stmt 0
 1863 0000 B7070000 		lui	a5,%hi(.LANCHOR2)
 1864 0004 03A50700 		lw	a0,%lo(.LANCHOR2)(a5)
 1865 0008 8280     		ret
 1866              		.cfi_endproc
 1867              	.LFE94:
 1869              		.globl	wpa_debug_syslog
 1870              		.globl	wpa_debug_timestamp
 1871              		.globl	wpa_debug_show_keys
 1872              		.globl	wpa_debug_level
 1873              		.section	.rodata.CSWTCH.90,"a"
 1874              		.align	2
 1875              		.set	.LANCHOR7,. + 0
 1878              	CSWTCH.90:
 1879 0000 00000000 		.word	.LC20
 1880 0004 00000000 		.word	.LC21
 1881 0008 00000000 		.word	.LC22
 1882 000c 00000000 		.word	.LC23
 1883 0010 00000000 		.word	.LC24
 1884 0014 00000000 		.word	.LC25
 1885              		.section	.rodata.__func__.0,"a"
 1886              		.align	2
 1887              		.set	.LANCHOR6,. + 0
 1890              	__func__.0:
 1891 0000 7770615F 		.string	"wpa_msg_global_only"
 1891      6D73675F 
 1891      676C6F62 
 1891      616C5F6F 
 1891      6E6C7900 
 1892              		.section	.sbss.wpa_debug_show_keys,"aw",@nobits
 1893              		.align	2
 1894              		.set	.LANCHOR3,. + 0
 1897              	wpa_debug_show_keys:
 1898 0000 00000000 		.zero	4
 1899              		.section	.sbss.wpa_debug_syslog,"aw",@nobits
 1900              		.align	2
 1901              		.set	.LANCHOR1,. + 0
 1904              	wpa_debug_syslog:
 1905 0000 00000000 		.zero	4
 1906              		.section	.sbss.wpa_debug_timestamp,"aw",@nobits
 1907              		.align	2
 1908              		.set	.LANCHOR0,. + 0
 1911              	wpa_debug_timestamp:
 1912 0000 00000000 		.zero	4
 1913              		.section	.sbss.wpa_msg_cb,"aw",@nobits
 1914              		.align	2
 1915              		.set	.LANCHOR4,. + 0
 1918              	wpa_msg_cb:
 1919 0000 00000000 		.zero	4
 1920              		.section	.sbss.wpa_msg_ifname_cb,"aw",@nobits
 1921              		.align	2
 1922              		.set	.LANCHOR5,. + 0
 1925              	wpa_msg_ifname_cb:
 1926 0000 00000000 		.zero	4
 1927              		.section	.sdata.wpa_debug_level,"aw"
 1928              		.align	2
 1929              		.set	.LANCHOR2,. + 0
 1932              	wpa_debug_level:
 1933 0000 03000000 		.word	3
 1934              		.text
 1935              	.Letext0:
 1936              		.file 3 "c:\\users\\stapi\\onedrive\\desktop\\gd32vw553\\embeddedbuilder_v1.4.7.26843\\tools\\nucl
 1937              		.file 4 "c:\\users\\stapi\\onedrive\\desktop\\gd32vw553\\embeddedbuilder_v1.4.7.26843\\tools\\nucl
 1938              		.file 5 "c:\\users\\stapi\\onedrive\\desktop\\gd32vw553\\embeddedbuilder_v1.4.7.26843\\tools\\nucl
 1939              		.file 6 "c:\\users\\stapi\\onedrive\\desktop\\gd32vw553\\embeddedbuilder_v1.4.7.26843\\tools\\nucl
 1940              		.file 7 "c:\\users\\stapi\\onedrive\\desktop\\gd32vw553\\embeddedbuilder_v1.4.7.26843\\tools\\nucl
 1941              		.file 8 "c:\\users\\stapi\\onedrive\\desktop\\gd32vw553\\embeddedbuilder_v1.4.7.26843\\tools\\nucl
 1942              		.file 9 "c:\\users\\stapi\\onedrive\\desktop\\gd32vw553\\embeddedbuilder_v1.4.7.26843\\tools\\nucl
 1943              		.file 10 "c:\\users\\stapi\\onedrive\\desktop\\gd32vw553\\embeddedbuilder_v1.4.7.26843\\tools\\nuc
 1944              		.file 11 "c:\\users\\stapi\\onedrive\\desktop\\gd32vw553\\embeddedbuilder_v1.4.7.26843\\tools\\nuc
 1945              		.file 12 "C:/Users/stapi/OneDrive/Desktop/GD32VW553/V1_MQTT_OK/GD32VW55X_Wifi_BLE_SDK/GD32VW55x_RE
 1946              		.file 13 "..\\..\\..\\..\\lwip\\lwip-2.1.2\\src\\include/lwip/memp.h"
 1947              		.file 14 "..\\..\\..\\..\\lwip\\lwip-2.1.2\\src\\include/lwip/netif.h"
 1948              		.file 15 "..\\..\\..\\..\\util\\include/debug_print.h"
 1949              		.file 16 "C:/Users/stapi/OneDrive/Desktop/GD32VW553/V1_MQTT_OK/GD32VW55X_Wifi_BLE_SDK/GD32VW55x_RE
 1950              		.file 17 "<built-in>"
DEFINED SYMBOLS
                            *ABS*:0000000000000000 wpa_debug.c
C:\Users\stapi\AppData\Local\Temp\ccC9u2qc.s:17     .text.wpa_debug_print_timestamp:0000000000000000 wpa_debug_print_timestamp
C:\Users\stapi\AppData\Local\Temp\ccC9u2qc.s:21     .text.wpa_debug_print_timestamp:0000000000000000 .L0 
C:\Users\stapi\AppData\Local\Temp\ccC9u2qc.s:22     .text.wpa_debug_print_timestamp:0000000000000000 .L0 
C:\Users\stapi\AppData\Local\Temp\ccC9u2qc.s:23     .text.wpa_debug_print_timestamp:0000000000000000 .L0 
C:\Users\stapi\AppData\Local\Temp\ccC9u2qc.s:24     .text.wpa_debug_print_timestamp:0000000000000000 .L0 
C:\Users\stapi\AppData\Local\Temp\ccC9u2qc.s:25     .text.wpa_debug_print_timestamp:0000000000000000 .L0 
C:\Users\stapi\AppData\Local\Temp\ccC9u2qc.s:29     .text.wpa_debug_print_timestamp:000000000000000a .L0 
C:\Users\stapi\AppData\Local\Temp\ccC9u2qc.s:30     .text.wpa_debug_print_timestamp:0000000000000012 .L0 
C:\Users\stapi\AppData\Local\Temp\ccC9u2qc.s:31     .text.wpa_debug_print_timestamp:0000000000000012 .L0 
C:\Users\stapi\AppData\Local\Temp\ccC9u2qc.s:37     .text.wpa_debug_print_timestamp:0000000000000012 .L0 
C:\Users\stapi\AppData\Local\Temp\ccC9u2qc.s:38     .text.wpa_debug_print_timestamp:0000000000000012 .L0 
C:\Users\stapi\AppData\Local\Temp\ccC9u2qc.s:39     .text.wpa_debug_print_timestamp:0000000000000014 .L0 
C:\Users\stapi\AppData\Local\Temp\ccC9u2qc.s:43     .text.wpa_debug_print_timestamp:0000000000000014 .L0 
C:\Users\stapi\AppData\Local\Temp\ccC9u2qc.s:47     .text.wpa_debug_print_timestamp:000000000000001e .L0 
C:\Users\stapi\AppData\Local\Temp\ccC9u2qc.s:48     .text.wpa_debug_print_timestamp:000000000000001e .L0 
C:\Users\stapi\AppData\Local\Temp\ccC9u2qc.s:52     .text.wpa_debug_print_timestamp:0000000000000028 .L0 
C:\Users\stapi\AppData\Local\Temp\ccC9u2qc.s:62     .text.wpa_debug_print_timestamp:000000000000003c .L0 
C:\Users\stapi\AppData\Local\Temp\ccC9u2qc.s:63     .text.wpa_debug_print_timestamp:000000000000003e .L0 
C:\Users\stapi\AppData\Local\Temp\ccC9u2qc.s:65     .text.wpa_debug_print_timestamp:0000000000000046 .L0 
C:\Users\stapi\AppData\Local\Temp\ccC9u2qc.s:66     .text.wpa_debug_print_timestamp:0000000000000046 .L0 
C:\Users\stapi\AppData\Local\Temp\ccC9u2qc.s:68     .text.wpa_debug_print_timestamp:0000000000000046 .L0 
C:\Users\stapi\AppData\Local\Temp\ccC9u2qc.s:70     .text.wpa_debug_print_timestamp:0000000000000048 .L0 
C:\Users\stapi\AppData\Local\Temp\ccC9u2qc.s:95     .text._wpa_hexdump_ascii:0000000000000000 _wpa_hexdump_ascii
C:\Users\stapi\AppData\Local\Temp\ccC9u2qc.s:98     .text._wpa_hexdump_ascii:0000000000000000 .L0 
C:\Users\stapi\AppData\Local\Temp\ccC9u2qc.s:100    .text._wpa_hexdump_ascii:0000000000000000 .L0 
C:\Users\stapi\AppData\Local\Temp\ccC9u2qc.s:101    .text._wpa_hexdump_ascii:0000000000000008 .L0 
C:\Users\stapi\AppData\Local\Temp\ccC9u2qc.s:102    .text._wpa_hexdump_ascii:0000000000000008 .L0 
C:\Users\stapi\AppData\Local\Temp\ccC9u2qc.s:103    .text._wpa_hexdump_ascii:0000000000000008 .L0 
C:\Users\stapi\AppData\Local\Temp\ccC9u2qc.s:104    .text._wpa_hexdump_ascii:0000000000000008 .L0 
C:\Users\stapi\AppData\Local\Temp\ccC9u2qc.s:105    .text._wpa_hexdump_ascii:0000000000000008 .L0 
C:\Users\stapi\AppData\Local\Temp\ccC9u2qc.s:106    .text._wpa_hexdump_ascii:0000000000000008 .L0 
C:\Users\stapi\AppData\Local\Temp\ccC9u2qc.s:107    .text._wpa_hexdump_ascii:0000000000000008 .L0 
C:\Users\stapi\AppData\Local\Temp\ccC9u2qc.s:108    .text._wpa_hexdump_ascii:0000000000000008 .L0 
C:\Users\stapi\AppData\Local\Temp\ccC9u2qc.s:109    .text._wpa_hexdump_ascii:0000000000000008 .L0 
C:\Users\stapi\AppData\Local\Temp\ccC9u2qc.s:110    .text._wpa_hexdump_ascii:0000000000000008 .L0 
C:\Users\stapi\AppData\Local\Temp\ccC9u2qc.s:111    .text._wpa_hexdump_ascii:0000000000000008 .L0 
C:\Users\stapi\AppData\Local\Temp\ccC9u2qc.s:113    .text._wpa_hexdump_ascii:0000000000000008 .L0 
C:\Users\stapi\AppData\Local\Temp\ccC9u2qc.s:116    .text._wpa_hexdump_ascii:0000000000000010 .L0 
C:\Users\stapi\AppData\Local\Temp\ccC9u2qc.s:117    .text._wpa_hexdump_ascii:0000000000000012 .L0 
C:\Users\stapi\AppData\Local\Temp\ccC9u2qc.s:119    .text._wpa_hexdump_ascii:0000000000000012 .L0 
C:\Users\stapi\AppData\Local\Temp\ccC9u2qc.s:121    .text._wpa_hexdump_ascii:0000000000000014 .L0 
C:\Users\stapi\AppData\Local\Temp\ccC9u2qc.s:123    .text._wpa_hexdump_ascii:0000000000000014 .L0 
C:\Users\stapi\AppData\Local\Temp\ccC9u2qc.s:124    .text._wpa_hexdump_ascii:0000000000000014 .L0 
C:\Users\stapi\AppData\Local\Temp\ccC9u2qc.s:125    .text._wpa_hexdump_ascii:0000000000000014 .L0 
C:\Users\stapi\AppData\Local\Temp\ccC9u2qc.s:126    .text._wpa_hexdump_ascii:0000000000000014 .L0 
C:\Users\stapi\AppData\Local\Temp\ccC9u2qc.s:131    .text._wpa_hexdump_ascii:000000000000001e .L0 
C:\Users\stapi\AppData\Local\Temp\ccC9u2qc.s:134    .text._wpa_hexdump_ascii:0000000000000026 .L0 
C:\Users\stapi\AppData\Local\Temp\ccC9u2qc.s:135    .text._wpa_hexdump_ascii:0000000000000026 .L0 
C:\Users\stapi\AppData\Local\Temp\ccC9u2qc.s:139    .text._wpa_hexdump_ascii:0000000000000030 .L0 
C:\Users\stapi\AppData\Local\Temp\ccC9u2qc.s:140    .text._wpa_hexdump_ascii:0000000000000030 .L0 
C:\Users\stapi\AppData\Local\Temp\ccC9u2qc.s:142    .text._wpa_hexdump_ascii:0000000000000032 .L0 
C:\Users\stapi\AppData\Local\Temp\ccC9u2qc.s:144    .text._wpa_hexdump_ascii:0000000000000034 .L0 
C:\Users\stapi\AppData\Local\Temp\ccC9u2qc.s:146    .text._wpa_hexdump_ascii:0000000000000038 .L0 
C:\Users\stapi\AppData\Local\Temp\ccC9u2qc.s:152    .text._wpa_hexdump_ascii:0000000000000040 .L0 
C:\Users\stapi\AppData\Local\Temp\ccC9u2qc.s:158    .text._wpa_hexdump_ascii:0000000000000048 .L0 
C:\Users\stapi\AppData\Local\Temp\ccC9u2qc.s:159    .text._wpa_hexdump_ascii:0000000000000048 .L0 
C:\Users\stapi\AppData\Local\Temp\ccC9u2qc.s:160    .text._wpa_hexdump_ascii:000000000000004a .L0 
C:\Users\stapi\AppData\Local\Temp\ccC9u2qc.s:161    .text._wpa_hexdump_ascii:000000000000004a .L0 
C:\Users\stapi\AppData\Local\Temp\ccC9u2qc.s:164    .text._wpa_hexdump_ascii:0000000000000052 .L0 
C:\Users\stapi\AppData\Local\Temp\ccC9u2qc.s:165    .text._wpa_hexdump_ascii:0000000000000052 .L0 
C:\Users\stapi\AppData\Local\Temp\ccC9u2qc.s:166    .text._wpa_hexdump_ascii:0000000000000052 .L0 
C:\Users\stapi\AppData\Local\Temp\ccC9u2qc.s:167    .text._wpa_hexdump_ascii:0000000000000052 .L0 
C:\Users\stapi\AppData\Local\Temp\ccC9u2qc.s:168    .text._wpa_hexdump_ascii:0000000000000052 .L0 
C:\Users\stapi\AppData\Local\Temp\ccC9u2qc.s:169    .text._wpa_hexdump_ascii:0000000000000052 .L0 
C:\Users\stapi\AppData\Local\Temp\ccC9u2qc.s:170    .text._wpa_hexdump_ascii:0000000000000052 .L0 
C:\Users\stapi\AppData\Local\Temp\ccC9u2qc.s:171    .text._wpa_hexdump_ascii:0000000000000052 .L0 
C:\Users\stapi\AppData\Local\Temp\ccC9u2qc.s:172    .text._wpa_hexdump_ascii:0000000000000052 .L0 
C:\Users\stapi\AppData\Local\Temp\ccC9u2qc.s:173    .text._wpa_hexdump_ascii:0000000000000052 .L0 
C:\Users\stapi\AppData\Local\Temp\ccC9u2qc.s:174    .text._wpa_hexdump_ascii:0000000000000052 .L0 
C:\Users\stapi\AppData\Local\Temp\ccC9u2qc.s:177    .text._wpa_hexdump_ascii:0000000000000052 .L0 
C:\Users\stapi\AppData\Local\Temp\ccC9u2qc.s:181    .text._wpa_hexdump_ascii:0000000000000052 .L0 
C:\Users\stapi\AppData\Local\Temp\ccC9u2qc.s:182    .text._wpa_hexdump_ascii:0000000000000052 .L0 
C:\Users\stapi\AppData\Local\Temp\ccC9u2qc.s:184    .text._wpa_hexdump_ascii:0000000000000054 .L0 
C:\Users\stapi\AppData\Local\Temp\ccC9u2qc.s:189    .text._wpa_hexdump_ascii:000000000000005e .L0 
C:\Users\stapi\AppData\Local\Temp\ccC9u2qc.s:192    .text._wpa_hexdump_ascii:0000000000000066 .L0 
C:\Users\stapi\AppData\Local\Temp\ccC9u2qc.s:194    .text._wpa_hexdump_ascii:000000000000006a .L0 
C:\Users\stapi\AppData\Local\Temp\ccC9u2qc.s:197    .text._wpa_hexdump_ascii:0000000000000072 .L0 
C:\Users\stapi\AppData\Local\Temp\ccC9u2qc.s:198    .text._wpa_hexdump_ascii:0000000000000072 .L0 
C:\Users\stapi\AppData\Local\Temp\ccC9u2qc.s:200    .text._wpa_hexdump_ascii:0000000000000074 .L0 
C:\Users\stapi\AppData\Local\Temp\ccC9u2qc.s:202    .text._wpa_hexdump_ascii:0000000000000078 .L0 
C:\Users\stapi\AppData\Local\Temp\ccC9u2qc.s:205    .text._wpa_hexdump_ascii:0000000000000080 .L0 
C:\Users\stapi\AppData\Local\Temp\ccC9u2qc.s:209    .text._wpa_hexdump_ascii:0000000000000084 .L0 
C:\Users\stapi\AppData\Local\Temp\ccC9u2qc.s:211    .text._wpa_hexdump_ascii:0000000000000086 .L0 
C:\Users\stapi\AppData\Local\Temp\ccC9u2qc.s:212    .text._wpa_hexdump_ascii:0000000000000086 .L0 
C:\Users\stapi\AppData\Local\Temp\ccC9u2qc.s:216    .text._wpa_hexdump_ascii:0000000000000092 .L0 
C:\Users\stapi\AppData\Local\Temp\ccC9u2qc.s:218    .text._wpa_hexdump_ascii:0000000000000094 .L0 
C:\Users\stapi\AppData\Local\Temp\ccC9u2qc.s:221    .text._wpa_hexdump_ascii:0000000000000098 .L0 
C:\Users\stapi\AppData\Local\Temp\ccC9u2qc.s:222    .text._wpa_hexdump_ascii:0000000000000098 .L0 
C:\Users\stapi\AppData\Local\Temp\ccC9u2qc.s:224    .text._wpa_hexdump_ascii:0000000000000098 .L0 
C:\Users\stapi\AppData\Local\Temp\ccC9u2qc.s:225    .text._wpa_hexdump_ascii:0000000000000098 .L0 
C:\Users\stapi\AppData\Local\Temp\ccC9u2qc.s:226    .text._wpa_hexdump_ascii:0000000000000098 .L0 
C:\Users\stapi\AppData\Local\Temp\ccC9u2qc.s:228    .text._wpa_hexdump_ascii:000000000000009c .L0 
C:\Users\stapi\AppData\Local\Temp\ccC9u2qc.s:231    .text._wpa_hexdump_ascii:00000000000000a4 .L0 
C:\Users\stapi\AppData\Local\Temp\ccC9u2qc.s:234    .text._wpa_hexdump_ascii:00000000000000a6 .L0 
C:\Users\stapi\AppData\Local\Temp\ccC9u2qc.s:237    .text._wpa_hexdump_ascii:00000000000000ae .L0 
C:\Users\stapi\AppData\Local\Temp\ccC9u2qc.s:238    .text._wpa_hexdump_ascii:00000000000000ae .L0 
C:\Users\stapi\AppData\Local\Temp\ccC9u2qc.s:239    .text._wpa_hexdump_ascii:00000000000000ae .L0 
C:\Users\stapi\AppData\Local\Temp\ccC9u2qc.s:244    .text._wpa_hexdump_ascii:00000000000000b4 .L0 
C:\Users\stapi\AppData\Local\Temp\ccC9u2qc.s:245    .text._wpa_hexdump_ascii:00000000000000b4 .L0 
C:\Users\stapi\AppData\Local\Temp\ccC9u2qc.s:247    .text._wpa_hexdump_ascii:00000000000000b8 .L0 
C:\Users\stapi\AppData\Local\Temp\ccC9u2qc.s:249    .text._wpa_hexdump_ascii:00000000000000bc .L0 
C:\Users\stapi\AppData\Local\Temp\ccC9u2qc.s:252    .text._wpa_hexdump_ascii:00000000000000c4 .L0 
C:\Users\stapi\AppData\Local\Temp\ccC9u2qc.s:253    .text._wpa_hexdump_ascii:00000000000000c4 .L0 
C:\Users\stapi\AppData\Local\Temp\ccC9u2qc.s:254    .text._wpa_hexdump_ascii:00000000000000c4 .L0 
C:\Users\stapi\AppData\Local\Temp\ccC9u2qc.s:258    .text._wpa_hexdump_ascii:00000000000000c6 .L0 
C:\Users\stapi\AppData\Local\Temp\ccC9u2qc.s:259    .text._wpa_hexdump_ascii:00000000000000c6 .L0 
C:\Users\stapi\AppData\Local\Temp\ccC9u2qc.s:265    .text._wpa_hexdump_ascii:00000000000000da .L0 
C:\Users\stapi\AppData\Local\Temp\ccC9u2qc.s:268    .text._wpa_hexdump_ascii:00000000000000dc .L0 
C:\Users\stapi\AppData\Local\Temp\ccC9u2qc.s:271    .text._wpa_hexdump_ascii:00000000000000de .L0 
C:\Users\stapi\AppData\Local\Temp\ccC9u2qc.s:274    .text._wpa_hexdump_ascii:00000000000000e6 .L0 
C:\Users\stapi\AppData\Local\Temp\ccC9u2qc.s:275    .text._wpa_hexdump_ascii:00000000000000e6 .L0 
C:\Users\stapi\AppData\Local\Temp\ccC9u2qc.s:276    .text._wpa_hexdump_ascii:00000000000000e6 .L0 
C:\Users\stapi\AppData\Local\Temp\ccC9u2qc.s:281    .text._wpa_hexdump_ascii:00000000000000ec .L0 
C:\Users\stapi\AppData\Local\Temp\ccC9u2qc.s:282    .text._wpa_hexdump_ascii:00000000000000ec .L0 
C:\Users\stapi\AppData\Local\Temp\ccC9u2qc.s:284    .text._wpa_hexdump_ascii:00000000000000f0 .L0 
C:\Users\stapi\AppData\Local\Temp\ccC9u2qc.s:288    .text._wpa_hexdump_ascii:00000000000000fa .L0 
C:\Users\stapi\AppData\Local\Temp\ccC9u2qc.s:289    .text._wpa_hexdump_ascii:00000000000000fa .L0 
C:\Users\stapi\AppData\Local\Temp\ccC9u2qc.s:292    .text._wpa_hexdump_ascii:00000000000000fc .L0 
C:\Users\stapi\AppData\Local\Temp\ccC9u2qc.s:293    .text._wpa_hexdump_ascii:00000000000000fc .L0 
C:\Users\stapi\AppData\Local\Temp\ccC9u2qc.s:298    .text._wpa_hexdump_ascii:0000000000000102 .L0 
C:\Users\stapi\AppData\Local\Temp\ccC9u2qc.s:301    .text._wpa_hexdump_ascii:000000000000010a .L0 
C:\Users\stapi\AppData\Local\Temp\ccC9u2qc.s:302    .text._wpa_hexdump_ascii:000000000000010a .L0 
C:\Users\stapi\AppData\Local\Temp\ccC9u2qc.s:307    .text._wpa_hexdump_ascii:000000000000010e .L0 
C:\Users\stapi\AppData\Local\Temp\ccC9u2qc.s:311    .text._wpa_hexdump_ascii:0000000000000114 .L0 
C:\Users\stapi\AppData\Local\Temp\ccC9u2qc.s:315    .text._wpa_hexdump_ascii:0000000000000120 .L0 
C:\Users\stapi\AppData\Local\Temp\ccC9u2qc.s:316    .text._wpa_hexdump_ascii:0000000000000120 .L0 
C:\Users\stapi\AppData\Local\Temp\ccC9u2qc.s:321    .text._wpa_hexdump_ascii:0000000000000124 .L0 
C:\Users\stapi\AppData\Local\Temp\ccC9u2qc.s:337    .text._wpa_hexdump.constprop.0:0000000000000000 _wpa_hexdump.constprop.0
C:\Users\stapi\AppData\Local\Temp\ccC9u2qc.s:340    .text._wpa_hexdump.constprop.0:0000000000000000 .L0 
C:\Users\stapi\AppData\Local\Temp\ccC9u2qc.s:342    .text._wpa_hexdump.constprop.0:0000000000000000 .L0 
C:\Users\stapi\AppData\Local\Temp\ccC9u2qc.s:343    .text._wpa_hexdump.constprop.0:0000000000000008 .L0 
C:\Users\stapi\AppData\Local\Temp\ccC9u2qc.s:344    .text._wpa_hexdump.constprop.0:0000000000000008 .L0 
C:\Users\stapi\AppData\Local\Temp\ccC9u2qc.s:345    .text._wpa_hexdump.constprop.0:0000000000000008 .L0 
C:\Users\stapi\AppData\Local\Temp\ccC9u2qc.s:346    .text._wpa_hexdump.constprop.0:0000000000000008 .L0 
C:\Users\stapi\AppData\Local\Temp\ccC9u2qc.s:347    .text._wpa_hexdump.constprop.0:0000000000000008 .L0 
C:\Users\stapi\AppData\Local\Temp\ccC9u2qc.s:349    .text._wpa_hexdump.constprop.0:0000000000000008 .L0 
C:\Users\stapi\AppData\Local\Temp\ccC9u2qc.s:352    .text._wpa_hexdump.constprop.0:0000000000000010 .L0 
C:\Users\stapi\AppData\Local\Temp\ccC9u2qc.s:353    .text._wpa_hexdump.constprop.0:0000000000000012 .L0 
C:\Users\stapi\AppData\Local\Temp\ccC9u2qc.s:355    .text._wpa_hexdump.constprop.0:0000000000000012 .L0 
C:\Users\stapi\AppData\Local\Temp\ccC9u2qc.s:358    .text._wpa_hexdump.constprop.0:0000000000000014 .L0 
C:\Users\stapi\AppData\Local\Temp\ccC9u2qc.s:359    .text._wpa_hexdump.constprop.0:0000000000000014 .L0 
C:\Users\stapi\AppData\Local\Temp\ccC9u2qc.s:360    .text._wpa_hexdump.constprop.0:0000000000000014 .L0 
C:\Users\stapi\AppData\Local\Temp\ccC9u2qc.s:365    .text._wpa_hexdump.constprop.0:000000000000001e .L0 
C:\Users\stapi\AppData\Local\Temp\ccC9u2qc.s:368    .text._wpa_hexdump.constprop.0:0000000000000026 .L0 
C:\Users\stapi\AppData\Local\Temp\ccC9u2qc.s:369    .text._wpa_hexdump.constprop.0:0000000000000026 .L0 
C:\Users\stapi\AppData\Local\Temp\ccC9u2qc.s:376    .text._wpa_hexdump.constprop.0:0000000000000030 .L0 
C:\Users\stapi\AppData\Local\Temp\ccC9u2qc.s:383    .text._wpa_hexdump.constprop.0:0000000000000044 .L0 
C:\Users\stapi\AppData\Local\Temp\ccC9u2qc.s:384    .text._wpa_hexdump.constprop.0:0000000000000044 .L0 
C:\Users\stapi\AppData\Local\Temp\ccC9u2qc.s:386    .text._wpa_hexdump.constprop.0:0000000000000046 .L0 
C:\Users\stapi\AppData\Local\Temp\ccC9u2qc.s:390    .text._wpa_hexdump.constprop.0:000000000000004e .L0 
C:\Users\stapi\AppData\Local\Temp\ccC9u2qc.s:395    .text._wpa_hexdump.constprop.0:0000000000000058 .L0 
C:\Users\stapi\AppData\Local\Temp\ccC9u2qc.s:396    .text._wpa_hexdump.constprop.0:0000000000000058 .L0 
C:\Users\stapi\AppData\Local\Temp\ccC9u2qc.s:400    .text._wpa_hexdump.constprop.0:000000000000005e .L0 
C:\Users\stapi\AppData\Local\Temp\ccC9u2qc.s:404    .text._wpa_hexdump.constprop.0:0000000000000062 .L0 
C:\Users\stapi\AppData\Local\Temp\ccC9u2qc.s:405    .text._wpa_hexdump.constprop.0:0000000000000062 .L0 
C:\Users\stapi\AppData\Local\Temp\ccC9u2qc.s:409    .text._wpa_hexdump.constprop.0:0000000000000066 .L0 
C:\Users\stapi\AppData\Local\Temp\ccC9u2qc.s:416    .text._wpa_hexdump.constprop.0:0000000000000070 .L0 
C:\Users\stapi\AppData\Local\Temp\ccC9u2qc.s:417    .text._wpa_hexdump.constprop.0:0000000000000072 .L0 
C:\Users\stapi\AppData\Local\Temp\ccC9u2qc.s:418    .text._wpa_hexdump.constprop.0:0000000000000072 .L0 
C:\Users\stapi\AppData\Local\Temp\ccC9u2qc.s:421    .text._wpa_hexdump.constprop.0:000000000000007a .L0 
C:\Users\stapi\AppData\Local\Temp\ccC9u2qc.s:422    .text._wpa_hexdump.constprop.0:000000000000007a .L0 
C:\Users\stapi\AppData\Local\Temp\ccC9u2qc.s:423    .text._wpa_hexdump.constprop.0:000000000000007a .L0 
C:\Users\stapi\AppData\Local\Temp\ccC9u2qc.s:424    .text._wpa_hexdump.constprop.0:000000000000007a .L0 
C:\Users\stapi\AppData\Local\Temp\ccC9u2qc.s:425    .text._wpa_hexdump.constprop.0:000000000000007a .L0 
C:\Users\stapi\AppData\Local\Temp\ccC9u2qc.s:428    .text._wpa_hexdump.constprop.0:000000000000007a .L0 
C:\Users\stapi\AppData\Local\Temp\ccC9u2qc.s:432    .text._wpa_hexdump.constprop.0:000000000000007a .L0 
C:\Users\stapi\AppData\Local\Temp\ccC9u2qc.s:439    .text._wpa_hexdump.constprop.0:000000000000008c .L0 
C:\Users\stapi\AppData\Local\Temp\ccC9u2qc.s:443    .text._wpa_hexdump.constprop.0:000000000000008e .L0 
C:\Users\stapi\AppData\Local\Temp\ccC9u2qc.s:448    .text._wpa_hexdump.constprop.0:0000000000000098 .L0 
C:\Users\stapi\AppData\Local\Temp\ccC9u2qc.s:455    .text.wpa_printf:0000000000000000 wpa_printf
C:\Users\stapi\AppData\Local\Temp\ccC9u2qc.s:458    .text.wpa_printf:0000000000000000 .L0 
C:\Users\stapi\AppData\Local\Temp\ccC9u2qc.s:460    .text.wpa_printf:0000000000000000 .L0 
C:\Users\stapi\AppData\Local\Temp\ccC9u2qc.s:461    .text.wpa_printf:0000000000000000 .L0 
C:\Users\stapi\AppData\Local\Temp\ccC9u2qc.s:462    .text.wpa_printf:0000000000000000 .L0 
C:\Users\stapi\AppData\Local\Temp\ccC9u2qc.s:463    .text.wpa_printf:0000000000000000 .L0 
C:\Users\stapi\AppData\Local\Temp\ccC9u2qc.s:464    .text.wpa_printf:0000000000000002 .L0 
C:\Users\stapi\AppData\Local\Temp\ccC9u2qc.s:467    .text.wpa_printf:0000000000000004 .L0 
C:\Users\stapi\AppData\Local\Temp\ccC9u2qc.s:470    .text.wpa_printf:000000000000000c .L0 
C:\Users\stapi\AppData\Local\Temp\ccC9u2qc.s:472    .text.wpa_printf:0000000000000010 .L0 
C:\Users\stapi\AppData\Local\Temp\ccC9u2qc.s:473    .text.wpa_printf:0000000000000010 .L0 
C:\Users\stapi\AppData\Local\Temp\ccC9u2qc.s:475    .text.wpa_printf:0000000000000010 .L0 
C:\Users\stapi\AppData\Local\Temp\ccC9u2qc.s:481    .text.wpa_printf:000000000000001a .L0 
C:\Users\stapi\AppData\Local\Temp\ccC9u2qc.s:484    .text.wpa_printf:0000000000000020 .L0 
C:\Users\stapi\AppData\Local\Temp\ccC9u2qc.s:487    .text.wpa_printf:0000000000000028 .L0 
C:\Users\stapi\AppData\Local\Temp\ccC9u2qc.s:488    .text.wpa_printf:0000000000000028 .L0 
C:\Users\stapi\AppData\Local\Temp\ccC9u2qc.s:492    .text.wpa_printf:0000000000000032 .L0 
C:\Users\stapi\AppData\Local\Temp\ccC9u2qc.s:494    .text.wpa_printf:0000000000000034 .L0 
C:\Users\stapi\AppData\Local\Temp\ccC9u2qc.s:496    .text.wpa_printf:0000000000000036 .L0 
C:\Users\stapi\AppData\Local\Temp\ccC9u2qc.s:498    .text.wpa_printf:0000000000000038 .L0 
C:\Users\stapi\AppData\Local\Temp\ccC9u2qc.s:501    .text.wpa_printf:0000000000000040 .L0 
C:\Users\stapi\AppData\Local\Temp\ccC9u2qc.s:506    .text.wpa_printf:000000000000004a .L0 
C:\Users\stapi\AppData\Local\Temp\ccC9u2qc.s:507    .text.wpa_printf:000000000000004a .L0 
C:\Users\stapi\AppData\Local\Temp\ccC9u2qc.s:508    .text.wpa_printf:000000000000004c .L0 
C:\Users\stapi\AppData\Local\Temp\ccC9u2qc.s:510    .text.wpa_printf:000000000000004e .L0 
C:\Users\stapi\AppData\Local\Temp\ccC9u2qc.s:512    .text.wpa_printf:0000000000000050 .L0 
C:\Users\stapi\AppData\Local\Temp\ccC9u2qc.s:514    .text.wpa_printf:0000000000000052 .L0 
C:\Users\stapi\AppData\Local\Temp\ccC9u2qc.s:521    .text.wpa_hexdump:0000000000000000 wpa_hexdump
C:\Users\stapi\AppData\Local\Temp\ccC9u2qc.s:524    .text.wpa_hexdump:0000000000000000 .L0 
C:\Users\stapi\AppData\Local\Temp\ccC9u2qc.s:526    .text.wpa_hexdump:0000000000000000 .L0 
C:\Users\stapi\AppData\Local\Temp\ccC9u2qc.s:527    .text.wpa_hexdump:0000000000000000 .L0 
C:\Users\stapi\AppData\Local\Temp\ccC9u2qc.s:530    .text.wpa_hexdump:000000000000000a .L0 
C:\Users\stapi\AppData\Local\Temp\ccC9u2qc.s:537    .text.wpa_hexdump_key:0000000000000000 wpa_hexdump_key
C:\Users\stapi\AppData\Local\Temp\ccC9u2qc.s:540    .text.wpa_hexdump_key:0000000000000000 .L0 
C:\Users\stapi\AppData\Local\Temp\ccC9u2qc.s:542    .text.wpa_hexdump_key:0000000000000000 .L0 
C:\Users\stapi\AppData\Local\Temp\ccC9u2qc.s:543    .text.wpa_hexdump_key:0000000000000000 .L0 
C:\Users\stapi\AppData\Local\Temp\ccC9u2qc.s:547    .text.wpa_hexdump_key:0000000000000010 .L0 
C:\Users\stapi\AppData\Local\Temp\ccC9u2qc.s:554    .text.wpa_hexdump_ascii:0000000000000000 wpa_hexdump_ascii
C:\Users\stapi\AppData\Local\Temp\ccC9u2qc.s:557    .text.wpa_hexdump_ascii:0000000000000000 .L0 
C:\Users\stapi\AppData\Local\Temp\ccC9u2qc.s:559    .text.wpa_hexdump_ascii:0000000000000000 .L0 
C:\Users\stapi\AppData\Local\Temp\ccC9u2qc.s:560    .text.wpa_hexdump_ascii:0000000000000000 .L0 
C:\Users\stapi\AppData\Local\Temp\ccC9u2qc.s:563    .text.wpa_hexdump_ascii:000000000000000a .L0 
C:\Users\stapi\AppData\Local\Temp\ccC9u2qc.s:570    .text.wpa_hexdump_ascii_key:0000000000000000 wpa_hexdump_ascii_key
C:\Users\stapi\AppData\Local\Temp\ccC9u2qc.s:573    .text.wpa_hexdump_ascii_key:0000000000000000 .L0 
C:\Users\stapi\AppData\Local\Temp\ccC9u2qc.s:575    .text.wpa_hexdump_ascii_key:0000000000000000 .L0 
C:\Users\stapi\AppData\Local\Temp\ccC9u2qc.s:576    .text.wpa_hexdump_ascii_key:0000000000000000 .L0 
C:\Users\stapi\AppData\Local\Temp\ccC9u2qc.s:580    .text.wpa_hexdump_ascii_key:0000000000000010 .L0 
C:\Users\stapi\AppData\Local\Temp\ccC9u2qc.s:587    .text.wpa_debug_reopen_file:0000000000000000 wpa_debug_reopen_file
C:\Users\stapi\AppData\Local\Temp\ccC9u2qc.s:590    .text.wpa_debug_reopen_file:0000000000000000 .L0 
C:\Users\stapi\AppData\Local\Temp\ccC9u2qc.s:591    .text.wpa_debug_reopen_file:0000000000000000 .L0 
C:\Users\stapi\AppData\Local\Temp\ccC9u2qc.s:592    .text.wpa_debug_reopen_file:0000000000000000 .L0 
C:\Users\stapi\AppData\Local\Temp\ccC9u2qc.s:593    .text.wpa_debug_reopen_file:0000000000000000 .L0 
C:\Users\stapi\AppData\Local\Temp\ccC9u2qc.s:595    .text.wpa_debug_reopen_file:0000000000000004 .L0 
C:\Users\stapi\AppData\Local\Temp\ccC9u2qc.s:602    .text.wpa_debug_open_file:0000000000000000 wpa_debug_open_file
C:\Users\stapi\AppData\Local\Temp\ccC9u2qc.s:605    .text.wpa_debug_open_file:0000000000000000 .L0 
C:\Users\stapi\AppData\Local\Temp\ccC9u2qc.s:607    .text.wpa_debug_open_file:0000000000000000 .L0 
C:\Users\stapi\AppData\Local\Temp\ccC9u2qc.s:608    .text.wpa_debug_open_file:0000000000000000 .L0 
C:\Users\stapi\AppData\Local\Temp\ccC9u2qc.s:609    .text.wpa_debug_open_file:0000000000000000 .L0 
C:\Users\stapi\AppData\Local\Temp\ccC9u2qc.s:610    .text.wpa_debug_open_file:0000000000000000 .L0 
C:\Users\stapi\AppData\Local\Temp\ccC9u2qc.s:613    .text.wpa_debug_open_file:0000000000000004 .L0 
C:\Users\stapi\AppData\Local\Temp\ccC9u2qc.s:620    .text.wpa_debug_close_file:0000000000000000 wpa_debug_close_file
C:\Users\stapi\AppData\Local\Temp\ccC9u2qc.s:623    .text.wpa_debug_close_file:0000000000000000 .L0 
C:\Users\stapi\AppData\Local\Temp\ccC9u2qc.s:624    .text.wpa_debug_close_file:0000000000000000 .L0 
C:\Users\stapi\AppData\Local\Temp\ccC9u2qc.s:625    .text.wpa_debug_close_file:0000000000000000 .L0 
C:\Users\stapi\AppData\Local\Temp\ccC9u2qc.s:626    .text.wpa_debug_close_file:0000000000000002 .L0 
C:\Users\stapi\AppData\Local\Temp\ccC9u2qc.s:633    .text.wpa_debug_setup_stdout:0000000000000000 wpa_debug_setup_stdout
C:\Users\stapi\AppData\Local\Temp\ccC9u2qc.s:636    .text.wpa_debug_setup_stdout:0000000000000000 .L0 
C:\Users\stapi\AppData\Local\Temp\ccC9u2qc.s:637    .text.wpa_debug_setup_stdout:0000000000000000 .L0 
C:\Users\stapi\AppData\Local\Temp\ccC9u2qc.s:638    .text.wpa_debug_setup_stdout:0000000000000000 .L0 
C:\Users\stapi\AppData\Local\Temp\ccC9u2qc.s:639    .text.wpa_debug_setup_stdout:0000000000000000 .L0 
C:\Users\stapi\AppData\Local\Temp\ccC9u2qc.s:642    .text.wpa_debug_setup_stdout:0000000000000008 .L0 
C:\Users\stapi\AppData\Local\Temp\ccC9u2qc.s:648    .text.wpa_debug_setup_stdout:0000000000000018 .L0 
C:\Users\stapi\AppData\Local\Temp\ccC9u2qc.s:655    .text.wpa_msg_register_cb:0000000000000000 wpa_msg_register_cb
C:\Users\stapi\AppData\Local\Temp\ccC9u2qc.s:658    .text.wpa_msg_register_cb:0000000000000000 .L0 
C:\Users\stapi\AppData\Local\Temp\ccC9u2qc.s:660    .text.wpa_msg_register_cb:0000000000000000 .L0 
C:\Users\stapi\AppData\Local\Temp\ccC9u2qc.s:661    .text.wpa_msg_register_cb:0000000000000000 .L0 
C:\Users\stapi\AppData\Local\Temp\ccC9u2qc.s:662    .text.wpa_msg_register_cb:0000000000000000 .L0 
C:\Users\stapi\AppData\Local\Temp\ccC9u2qc.s:665    .text.wpa_msg_register_cb:0000000000000008 .L0 
C:\Users\stapi\AppData\Local\Temp\ccC9u2qc.s:666    .text.wpa_msg_register_cb:000000000000000a .L0 
C:\Users\stapi\AppData\Local\Temp\ccC9u2qc.s:673    .text.wpa_msg_register_ifname_cb:0000000000000000 wpa_msg_register_ifname_cb
C:\Users\stapi\AppData\Local\Temp\ccC9u2qc.s:676    .text.wpa_msg_register_ifname_cb:0000000000000000 .L0 
C:\Users\stapi\AppData\Local\Temp\ccC9u2qc.s:678    .text.wpa_msg_register_ifname_cb:0000000000000000 .L0 
C:\Users\stapi\AppData\Local\Temp\ccC9u2qc.s:679    .text.wpa_msg_register_ifname_cb:0000000000000000 .L0 
C:\Users\stapi\AppData\Local\Temp\ccC9u2qc.s:680    .text.wpa_msg_register_ifname_cb:0000000000000000 .L0 
C:\Users\stapi\AppData\Local\Temp\ccC9u2qc.s:683    .text.wpa_msg_register_ifname_cb:0000000000000008 .L0 
C:\Users\stapi\AppData\Local\Temp\ccC9u2qc.s:684    .text.wpa_msg_register_ifname_cb:000000000000000a .L0 
C:\Users\stapi\AppData\Local\Temp\ccC9u2qc.s:701    .text.wpa_msg:0000000000000000 wpa_msg
C:\Users\stapi\AppData\Local\Temp\ccC9u2qc.s:704    .text.wpa_msg:0000000000000000 .L0 
C:\Users\stapi\AppData\Local\Temp\ccC9u2qc.s:706    .text.wpa_msg:0000000000000000 .L0 
C:\Users\stapi\AppData\Local\Temp\ccC9u2qc.s:707    .text.wpa_msg:0000000000000000 .L0 
C:\Users\stapi\AppData\Local\Temp\ccC9u2qc.s:708    .text.wpa_msg:0000000000000000 .L0 
C:\Users\stapi\AppData\Local\Temp\ccC9u2qc.s:709    .text.wpa_msg:0000000000000000 .L0 
C:\Users\stapi\AppData\Local\Temp\ccC9u2qc.s:710    .text.wpa_msg:0000000000000000 .L0 
C:\Users\stapi\AppData\Local\Temp\ccC9u2qc.s:711    .text.wpa_msg:0000000000000000 .L0 
C:\Users\stapi\AppData\Local\Temp\ccC9u2qc.s:712    .text.wpa_msg:0000000000000000 .L0 
C:\Users\stapi\AppData\Local\Temp\ccC9u2qc.s:713    .text.wpa_msg:0000000000000000 .L0 
C:\Users\stapi\AppData\Local\Temp\ccC9u2qc.s:714    .text.wpa_msg:0000000000000002 .L0 
C:\Users\stapi\AppData\Local\Temp\ccC9u2qc.s:717    .text.wpa_msg:0000000000000004 .L0 
C:\Users\stapi\AppData\Local\Temp\ccC9u2qc.s:719    .text.wpa_msg:0000000000000006 .L0 
C:\Users\stapi\AppData\Local\Temp\ccC9u2qc.s:725    .text.wpa_msg:0000000000000010 .L0 
C:\Users\stapi\AppData\Local\Temp\ccC9u2qc.s:726    .text.wpa_msg:0000000000000012 .L0 
C:\Users\stapi\AppData\Local\Temp\ccC9u2qc.s:727    .text.wpa_msg:0000000000000012 .L0 
C:\Users\stapi\AppData\Local\Temp\ccC9u2qc.s:728    .text.wpa_msg:0000000000000012 .L0 
C:\Users\stapi\AppData\Local\Temp\ccC9u2qc.s:730    .text.wpa_msg:0000000000000012 .L0 
C:\Users\stapi\AppData\Local\Temp\ccC9u2qc.s:734    .text.wpa_msg:0000000000000018 .L0 
C:\Users\stapi\AppData\Local\Temp\ccC9u2qc.s:742    .text.wpa_msg:0000000000000020 .L0 
C:\Users\stapi\AppData\Local\Temp\ccC9u2qc.s:745    .text.wpa_msg:0000000000000026 .L0 
C:\Users\stapi\AppData\Local\Temp\ccC9u2qc.s:746    .text.wpa_msg:0000000000000026 .L0 
C:\Users\stapi\AppData\Local\Temp\ccC9u2qc.s:747    .text.wpa_msg:0000000000000026 .L0 
C:\Users\stapi\AppData\Local\Temp\ccC9u2qc.s:749    .text.wpa_msg:0000000000000026 .L0 
C:\Users\stapi\AppData\Local\Temp\ccC9u2qc.s:752    .text.wpa_msg:000000000000002a .L0 
C:\Users\stapi\AppData\Local\Temp\ccC9u2qc.s:754    .text.wpa_msg:000000000000002c .L0 
C:\Users\stapi\AppData\Local\Temp\ccC9u2qc.s:755    .text.wpa_msg:000000000000002c .L0 
C:\Users\stapi\AppData\Local\Temp\ccC9u2qc.s:758    .text.wpa_msg:0000000000000034 .L0 
C:\Users\stapi\AppData\Local\Temp\ccC9u2qc.s:761    .text.wpa_msg:0000000000000038 .L0 
C:\Users\stapi\AppData\Local\Temp\ccC9u2qc.s:762    .text.wpa_msg:0000000000000038 .L0 
C:\Users\stapi\AppData\Local\Temp\ccC9u2qc.s:763    .text.wpa_msg:0000000000000038 .L0 
C:\Users\stapi\AppData\Local\Temp\ccC9u2qc.s:767    .text.wpa_msg:0000000000000042 .L0 
C:\Users\stapi\AppData\Local\Temp\ccC9u2qc.s:768    .text.wpa_msg:0000000000000042 .L0 
C:\Users\stapi\AppData\Local\Temp\ccC9u2qc.s:770    .text.wpa_msg:0000000000000044 .L0 
C:\Users\stapi\AppData\Local\Temp\ccC9u2qc.s:778    .text.wpa_msg:0000000000000056 .L0 
C:\Users\stapi\AppData\Local\Temp\ccC9u2qc.s:779    .text.wpa_msg:0000000000000056 .L0 
C:\Users\stapi\AppData\Local\Temp\ccC9u2qc.s:780    .text.wpa_msg:0000000000000058 .L0 
C:\Users\stapi\AppData\Local\Temp\ccC9u2qc.s:781    .text.wpa_msg:0000000000000058 .L0 
C:\Users\stapi\AppData\Local\Temp\ccC9u2qc.s:783    .text.wpa_msg:000000000000005a .L0 
C:\Users\stapi\AppData\Local\Temp\ccC9u2qc.s:785    .text.wpa_msg:000000000000005c .L0 
C:\Users\stapi\AppData\Local\Temp\ccC9u2qc.s:788    .text.wpa_msg:000000000000005e .L0 
C:\Users\stapi\AppData\Local\Temp\ccC9u2qc.s:791    .text.wpa_msg:0000000000000060 .L0 
C:\Users\stapi\AppData\Local\Temp\ccC9u2qc.s:794    .text.wpa_msg:0000000000000062 .L0 
C:\Users\stapi\AppData\Local\Temp\ccC9u2qc.s:797    .text.wpa_msg:0000000000000064 .L0 
C:\Users\stapi\AppData\Local\Temp\ccC9u2qc.s:801    .text.wpa_msg:0000000000000066 .L0 
C:\Users\stapi\AppData\Local\Temp\ccC9u2qc.s:803    .text.wpa_msg:0000000000000066 .L0 
C:\Users\stapi\AppData\Local\Temp\ccC9u2qc.s:806    .text.wpa_msg:000000000000006a .L0 
C:\Users\stapi\AppData\Local\Temp\ccC9u2qc.s:809    .text.wpa_msg:0000000000000072 .L0 
C:\Users\stapi\AppData\Local\Temp\ccC9u2qc.s:812    .text.wpa_msg:0000000000000078 .L0 
C:\Users\stapi\AppData\Local\Temp\ccC9u2qc.s:813    .text.wpa_msg:0000000000000078 .L0 
C:\Users\stapi\AppData\Local\Temp\ccC9u2qc.s:814    .text.wpa_msg:0000000000000078 .L0 
C:\Users\stapi\AppData\Local\Temp\ccC9u2qc.s:815    .text.wpa_msg:0000000000000078 .L0 
C:\Users\stapi\AppData\Local\Temp\ccC9u2qc.s:819    .text.wpa_msg:000000000000007a .L0 
C:\Users\stapi\AppData\Local\Temp\ccC9u2qc.s:820    .text.wpa_msg:000000000000007a .L0 
C:\Users\stapi\AppData\Local\Temp\ccC9u2qc.s:826    .text.wpa_msg:0000000000000080 .L0 
C:\Users\stapi\AppData\Local\Temp\ccC9u2qc.s:827    .text.wpa_msg:0000000000000080 .L0 
C:\Users\stapi\AppData\Local\Temp\ccC9u2qc.s:830    .text.wpa_msg:0000000000000082 .L0 
C:\Users\stapi\AppData\Local\Temp\ccC9u2qc.s:831    .text.wpa_msg:0000000000000082 .L0 
C:\Users\stapi\AppData\Local\Temp\ccC9u2qc.s:842    .text.wpa_msg:0000000000000098 .L0 
C:\Users\stapi\AppData\Local\Temp\ccC9u2qc.s:843    .text.wpa_msg:0000000000000098 .L0 
C:\Users\stapi\AppData\Local\Temp\ccC9u2qc.s:844    .text.wpa_msg:0000000000000098 .L0 
C:\Users\stapi\AppData\Local\Temp\ccC9u2qc.s:850    .text.wpa_msg:00000000000000a0 .L0 
C:\Users\stapi\AppData\Local\Temp\ccC9u2qc.s:851    .text.wpa_msg:00000000000000a0 .L0 
C:\Users\stapi\AppData\Local\Temp\ccC9u2qc.s:857    .text.wpa_msg:00000000000000a4 .L0 
C:\Users\stapi\AppData\Local\Temp\ccC9u2qc.s:858    .text.wpa_msg:00000000000000a4 .L0 
C:\Users\stapi\AppData\Local\Temp\ccC9u2qc.s:866    .text.wpa_msg:00000000000000b6 .L0 
C:\Users\stapi\AppData\Local\Temp\ccC9u2qc.s:868    .text.wpa_msg:00000000000000ba .L0 
C:\Users\stapi\AppData\Local\Temp\ccC9u2qc.s:871    .text.wpa_msg:00000000000000bc .L0 
C:\Users\stapi\AppData\Local\Temp\ccC9u2qc.s:872    .text.wpa_msg:00000000000000bc .L0 
C:\Users\stapi\AppData\Local\Temp\ccC9u2qc.s:880    .text.wpa_msg:00000000000000ce .L0 
C:\Users\stapi\AppData\Local\Temp\ccC9u2qc.s:881    .text.wpa_msg:00000000000000ce .L0 
C:\Users\stapi\AppData\Local\Temp\ccC9u2qc.s:884    .text.wpa_msg:00000000000000d6 .L0 
C:\Users\stapi\AppData\Local\Temp\ccC9u2qc.s:886    .text.wpa_msg:00000000000000d8 .L0 
C:\Users\stapi\AppData\Local\Temp\ccC9u2qc.s:895    .text.wpa_msg:00000000000000e4 .L0 
C:\Users\stapi\AppData\Local\Temp\ccC9u2qc.s:900    .text.wpa_msg:00000000000000f2 .L0 
C:\Users\stapi\AppData\Local\Temp\ccC9u2qc.s:911    .text.wpa_msg_ctrl:0000000000000000 wpa_msg_ctrl
C:\Users\stapi\AppData\Local\Temp\ccC9u2qc.s:914    .text.wpa_msg_ctrl:0000000000000000 .L0 
C:\Users\stapi\AppData\Local\Temp\ccC9u2qc.s:916    .text.wpa_msg_ctrl:0000000000000000 .L0 
C:\Users\stapi\AppData\Local\Temp\ccC9u2qc.s:917    .text.wpa_msg_ctrl:0000000000000000 .L0 
C:\Users\stapi\AppData\Local\Temp\ccC9u2qc.s:918    .text.wpa_msg_ctrl:0000000000000000 .L0 
C:\Users\stapi\AppData\Local\Temp\ccC9u2qc.s:919    .text.wpa_msg_ctrl:0000000000000000 .L0 
C:\Users\stapi\AppData\Local\Temp\ccC9u2qc.s:920    .text.wpa_msg_ctrl:0000000000000000 .L0 
C:\Users\stapi\AppData\Local\Temp\ccC9u2qc.s:921    .text.wpa_msg_ctrl:0000000000000000 .L0 
C:\Users\stapi\AppData\Local\Temp\ccC9u2qc.s:922    .text.wpa_msg_ctrl:0000000000000000 .L0 
C:\Users\stapi\AppData\Local\Temp\ccC9u2qc.s:923    .text.wpa_msg_ctrl:0000000000000002 .L0 
C:\Users\stapi\AppData\Local\Temp\ccC9u2qc.s:925    .text.wpa_msg_ctrl:0000000000000004 .L0 
C:\Users\stapi\AppData\Local\Temp\ccC9u2qc.s:927    .text.wpa_msg_ctrl:0000000000000004 .L0 
C:\Users\stapi\AppData\Local\Temp\ccC9u2qc.s:930    .text.wpa_msg_ctrl:000000000000000c .L0 
C:\Users\stapi\AppData\Local\Temp\ccC9u2qc.s:932    .text.wpa_msg_ctrl:000000000000000e .L0 
C:\Users\stapi\AppData\Local\Temp\ccC9u2qc.s:934    .text.wpa_msg_ctrl:0000000000000012 .L0 
C:\Users\stapi\AppData\Local\Temp\ccC9u2qc.s:940    .text.wpa_msg_ctrl:000000000000001e .L0 
C:\Users\stapi\AppData\Local\Temp\ccC9u2qc.s:941    .text.wpa_msg_ctrl:000000000000001e .L0 
C:\Users\stapi\AppData\Local\Temp\ccC9u2qc.s:942    .text.wpa_msg_ctrl:000000000000001e .L0 
C:\Users\stapi\AppData\Local\Temp\ccC9u2qc.s:943    .text.wpa_msg_ctrl:000000000000001e .L0 
C:\Users\stapi\AppData\Local\Temp\ccC9u2qc.s:944    .text.wpa_msg_ctrl:000000000000001e .L0 
C:\Users\stapi\AppData\Local\Temp\ccC9u2qc.s:945    .text.wpa_msg_ctrl:000000000000001e .L0 
C:\Users\stapi\AppData\Local\Temp\ccC9u2qc.s:947    .text.wpa_msg_ctrl:000000000000001e .L0 
C:\Users\stapi\AppData\Local\Temp\ccC9u2qc.s:952    .text.wpa_msg_ctrl:0000000000000026 .L0 
C:\Users\stapi\AppData\Local\Temp\ccC9u2qc.s:954    .text.wpa_msg_ctrl:0000000000000028 .L0 
C:\Users\stapi\AppData\Local\Temp\ccC9u2qc.s:956    .text.wpa_msg_ctrl:000000000000002a .L0 
C:\Users\stapi\AppData\Local\Temp\ccC9u2qc.s:962    .text.wpa_msg_ctrl:0000000000000034 .L0 
C:\Users\stapi\AppData\Local\Temp\ccC9u2qc.s:963    .text.wpa_msg_ctrl:0000000000000034 .L0 
C:\Users\stapi\AppData\Local\Temp\ccC9u2qc.s:970    .text.wpa_msg_ctrl:000000000000003a .L0 
C:\Users\stapi\AppData\Local\Temp\ccC9u2qc.s:972    .text.wpa_msg_ctrl:000000000000003c .L0 
C:\Users\stapi\AppData\Local\Temp\ccC9u2qc.s:973    .text.wpa_msg_ctrl:000000000000003c .L0 
C:\Users\stapi\AppData\Local\Temp\ccC9u2qc.s:976    .text.wpa_msg_ctrl:0000000000000044 .L0 
C:\Users\stapi\AppData\Local\Temp\ccC9u2qc.s:979    .text.wpa_msg_ctrl:0000000000000048 .L0 
C:\Users\stapi\AppData\Local\Temp\ccC9u2qc.s:980    .text.wpa_msg_ctrl:0000000000000048 .L0 
C:\Users\stapi\AppData\Local\Temp\ccC9u2qc.s:981    .text.wpa_msg_ctrl:0000000000000048 .L0 
C:\Users\stapi\AppData\Local\Temp\ccC9u2qc.s:987    .text.wpa_msg_ctrl:0000000000000054 .L0 
C:\Users\stapi\AppData\Local\Temp\ccC9u2qc.s:988    .text.wpa_msg_ctrl:0000000000000054 .L0 
C:\Users\stapi\AppData\Local\Temp\ccC9u2qc.s:990    .text.wpa_msg_ctrl:0000000000000056 .L0 
C:\Users\stapi\AppData\Local\Temp\ccC9u2qc.s:997    .text.wpa_msg_ctrl:0000000000000068 .L0 
C:\Users\stapi\AppData\Local\Temp\ccC9u2qc.s:998    .text.wpa_msg_ctrl:0000000000000068 .L0 
C:\Users\stapi\AppData\Local\Temp\ccC9u2qc.s:999    .text.wpa_msg_ctrl:000000000000006a .L0 
C:\Users\stapi\AppData\Local\Temp\ccC9u2qc.s:1000   .text.wpa_msg_ctrl:000000000000006a .L0 
C:\Users\stapi\AppData\Local\Temp\ccC9u2qc.s:1002   .text.wpa_msg_ctrl:000000000000006c .L0 
C:\Users\stapi\AppData\Local\Temp\ccC9u2qc.s:1004   .text.wpa_msg_ctrl:000000000000006e .L0 
C:\Users\stapi\AppData\Local\Temp\ccC9u2qc.s:1006   .text.wpa_msg_ctrl:0000000000000070 .L0 
C:\Users\stapi\AppData\Local\Temp\ccC9u2qc.s:1008   .text.wpa_msg_ctrl:0000000000000072 .L0 
C:\Users\stapi\AppData\Local\Temp\ccC9u2qc.s:1010   .text.wpa_msg_ctrl:0000000000000074 .L0 
C:\Users\stapi\AppData\Local\Temp\ccC9u2qc.s:1012   .text.wpa_msg_ctrl:0000000000000076 .L0 
C:\Users\stapi\AppData\Local\Temp\ccC9u2qc.s:1014   .text.wpa_msg_ctrl:0000000000000078 .L0 
C:\Users\stapi\AppData\Local\Temp\ccC9u2qc.s:1018   .text.wpa_msg_ctrl:000000000000007a .L0 
C:\Users\stapi\AppData\Local\Temp\ccC9u2qc.s:1020   .text.wpa_msg_ctrl:000000000000007a .L0 
C:\Users\stapi\AppData\Local\Temp\ccC9u2qc.s:1022   .text.wpa_msg_ctrl:000000000000007c .L0 
C:\Users\stapi\AppData\Local\Temp\ccC9u2qc.s:1027   .text.wpa_msg_ctrl:0000000000000084 .L0 
C:\Users\stapi\AppData\Local\Temp\ccC9u2qc.s:1029   .text.wpa_msg_ctrl:0000000000000086 .L0 
C:\Users\stapi\AppData\Local\Temp\ccC9u2qc.s:1030   .text.wpa_msg_ctrl:0000000000000086 .L0 
C:\Users\stapi\AppData\Local\Temp\ccC9u2qc.s:1033   .text.wpa_msg_ctrl:000000000000008e .L0 
C:\Users\stapi\AppData\Local\Temp\ccC9u2qc.s:1035   .text.wpa_msg_ctrl:0000000000000092 .L0 
C:\Users\stapi\AppData\Local\Temp\ccC9u2qc.s:1038   .text.wpa_msg_ctrl:0000000000000094 .L0 
C:\Users\stapi\AppData\Local\Temp\ccC9u2qc.s:1039   .text.wpa_msg_ctrl:0000000000000094 .L0 
C:\Users\stapi\AppData\Local\Temp\ccC9u2qc.s:1047   .text.wpa_msg_ctrl:000000000000009e .L0 
C:\Users\stapi\AppData\Local\Temp\ccC9u2qc.s:1052   .text.wpa_msg_ctrl:00000000000000ac .L0 
C:\Users\stapi\AppData\Local\Temp\ccC9u2qc.s:1066   .text.wpa_msg_global:0000000000000000 wpa_msg_global
C:\Users\stapi\AppData\Local\Temp\ccC9u2qc.s:1069   .text.wpa_msg_global:0000000000000000 .L0 
C:\Users\stapi\AppData\Local\Temp\ccC9u2qc.s:1071   .text.wpa_msg_global:0000000000000000 .L0 
C:\Users\stapi\AppData\Local\Temp\ccC9u2qc.s:1072   .text.wpa_msg_global:0000000000000000 .L0 
C:\Users\stapi\AppData\Local\Temp\ccC9u2qc.s:1073   .text.wpa_msg_global:0000000000000000 .L0 
C:\Users\stapi\AppData\Local\Temp\ccC9u2qc.s:1074   .text.wpa_msg_global:0000000000000000 .L0 
C:\Users\stapi\AppData\Local\Temp\ccC9u2qc.s:1075   .text.wpa_msg_global:0000000000000000 .L0 
C:\Users\stapi\AppData\Local\Temp\ccC9u2qc.s:1076   .text.wpa_msg_global:0000000000000000 .L0 
C:\Users\stapi\AppData\Local\Temp\ccC9u2qc.s:1077   .text.wpa_msg_global:0000000000000000 .L0 
C:\Users\stapi\AppData\Local\Temp\ccC9u2qc.s:1078   .text.wpa_msg_global:0000000000000002 .L0 
C:\Users\stapi\AppData\Local\Temp\ccC9u2qc.s:1081   .text.wpa_msg_global:0000000000000004 .L0 
C:\Users\stapi\AppData\Local\Temp\ccC9u2qc.s:1083   .text.wpa_msg_global:0000000000000006 .L0 
C:\Users\stapi\AppData\Local\Temp\ccC9u2qc.s:1089   .text.wpa_msg_global:0000000000000010 .L0 
C:\Users\stapi\AppData\Local\Temp\ccC9u2qc.s:1090   .text.wpa_msg_global:0000000000000012 .L0 
C:\Users\stapi\AppData\Local\Temp\ccC9u2qc.s:1091   .text.wpa_msg_global:0000000000000012 .L0 
C:\Users\stapi\AppData\Local\Temp\ccC9u2qc.s:1092   .text.wpa_msg_global:0000000000000012 .L0 
C:\Users\stapi\AppData\Local\Temp\ccC9u2qc.s:1094   .text.wpa_msg_global:0000000000000012 .L0 
C:\Users\stapi\AppData\Local\Temp\ccC9u2qc.s:1098   .text.wpa_msg_global:0000000000000018 .L0 
C:\Users\stapi\AppData\Local\Temp\ccC9u2qc.s:1106   .text.wpa_msg_global:0000000000000020 .L0 
C:\Users\stapi\AppData\Local\Temp\ccC9u2qc.s:1109   .text.wpa_msg_global:0000000000000026 .L0 
C:\Users\stapi\AppData\Local\Temp\ccC9u2qc.s:1110   .text.wpa_msg_global:0000000000000026 .L0 
C:\Users\stapi\AppData\Local\Temp\ccC9u2qc.s:1111   .text.wpa_msg_global:0000000000000026 .L0 
C:\Users\stapi\AppData\Local\Temp\ccC9u2qc.s:1113   .text.wpa_msg_global:0000000000000026 .L0 
C:\Users\stapi\AppData\Local\Temp\ccC9u2qc.s:1116   .text.wpa_msg_global:000000000000002a .L0 
C:\Users\stapi\AppData\Local\Temp\ccC9u2qc.s:1118   .text.wpa_msg_global:000000000000002c .L0 
C:\Users\stapi\AppData\Local\Temp\ccC9u2qc.s:1119   .text.wpa_msg_global:000000000000002c .L0 
C:\Users\stapi\AppData\Local\Temp\ccC9u2qc.s:1122   .text.wpa_msg_global:0000000000000034 .L0 
C:\Users\stapi\AppData\Local\Temp\ccC9u2qc.s:1125   .text.wpa_msg_global:0000000000000038 .L0 
C:\Users\stapi\AppData\Local\Temp\ccC9u2qc.s:1126   .text.wpa_msg_global:0000000000000038 .L0 
C:\Users\stapi\AppData\Local\Temp\ccC9u2qc.s:1127   .text.wpa_msg_global:0000000000000038 .L0 
C:\Users\stapi\AppData\Local\Temp\ccC9u2qc.s:1131   .text.wpa_msg_global:0000000000000042 .L0 
C:\Users\stapi\AppData\Local\Temp\ccC9u2qc.s:1132   .text.wpa_msg_global:0000000000000042 .L0 
C:\Users\stapi\AppData\Local\Temp\ccC9u2qc.s:1134   .text.wpa_msg_global:0000000000000044 .L0 
C:\Users\stapi\AppData\Local\Temp\ccC9u2qc.s:1142   .text.wpa_msg_global:0000000000000056 .L0 
C:\Users\stapi\AppData\Local\Temp\ccC9u2qc.s:1143   .text.wpa_msg_global:0000000000000056 .L0 
C:\Users\stapi\AppData\Local\Temp\ccC9u2qc.s:1144   .text.wpa_msg_global:0000000000000058 .L0 
C:\Users\stapi\AppData\Local\Temp\ccC9u2qc.s:1145   .text.wpa_msg_global:0000000000000058 .L0 
C:\Users\stapi\AppData\Local\Temp\ccC9u2qc.s:1147   .text.wpa_msg_global:000000000000005a .L0 
C:\Users\stapi\AppData\Local\Temp\ccC9u2qc.s:1149   .text.wpa_msg_global:000000000000005c .L0 
C:\Users\stapi\AppData\Local\Temp\ccC9u2qc.s:1152   .text.wpa_msg_global:000000000000005e .L0 
C:\Users\stapi\AppData\Local\Temp\ccC9u2qc.s:1155   .text.wpa_msg_global:0000000000000060 .L0 
C:\Users\stapi\AppData\Local\Temp\ccC9u2qc.s:1158   .text.wpa_msg_global:0000000000000062 .L0 
C:\Users\stapi\AppData\Local\Temp\ccC9u2qc.s:1161   .text.wpa_msg_global:0000000000000064 .L0 
C:\Users\stapi\AppData\Local\Temp\ccC9u2qc.s:1165   .text.wpa_msg_global:0000000000000066 .L0 
C:\Users\stapi\AppData\Local\Temp\ccC9u2qc.s:1167   .text.wpa_msg_global:0000000000000066 .L0 
C:\Users\stapi\AppData\Local\Temp\ccC9u2qc.s:1169   .text.wpa_msg_global:0000000000000068 .L0 
C:\Users\stapi\AppData\Local\Temp\ccC9u2qc.s:1174   .text.wpa_msg_global:0000000000000070 .L0 
C:\Users\stapi\AppData\Local\Temp\ccC9u2qc.s:1177   .text.wpa_msg_global:0000000000000074 .L0 
C:\Users\stapi\AppData\Local\Temp\ccC9u2qc.s:1178   .text.wpa_msg_global:0000000000000074 .L0 
C:\Users\stapi\AppData\Local\Temp\ccC9u2qc.s:1179   .text.wpa_msg_global:0000000000000074 .L0 
C:\Users\stapi\AppData\Local\Temp\ccC9u2qc.s:1182   .text.wpa_msg_global:000000000000007c .L0 
C:\Users\stapi\AppData\Local\Temp\ccC9u2qc.s:1184   .text.wpa_msg_global:0000000000000080 .L0 
C:\Users\stapi\AppData\Local\Temp\ccC9u2qc.s:1187   .text.wpa_msg_global:0000000000000082 .L0 
C:\Users\stapi\AppData\Local\Temp\ccC9u2qc.s:1188   .text.wpa_msg_global:0000000000000082 .L0 
C:\Users\stapi\AppData\Local\Temp\ccC9u2qc.s:1195   .text.wpa_msg_global:0000000000000092 .L0 
C:\Users\stapi\AppData\Local\Temp\ccC9u2qc.s:1196   .text.wpa_msg_global:0000000000000092 .L0 
C:\Users\stapi\AppData\Local\Temp\ccC9u2qc.s:1199   .text.wpa_msg_global:000000000000009a .L0 
C:\Users\stapi\AppData\Local\Temp\ccC9u2qc.s:1201   .text.wpa_msg_global:000000000000009c .L0 
C:\Users\stapi\AppData\Local\Temp\ccC9u2qc.s:1210   .text.wpa_msg_global:00000000000000a8 .L0 
C:\Users\stapi\AppData\Local\Temp\ccC9u2qc.s:1215   .text.wpa_msg_global:00000000000000b6 .L0 
C:\Users\stapi\AppData\Local\Temp\ccC9u2qc.s:1226   .text.wpa_msg_global_ctrl:0000000000000000 wpa_msg_global_ctrl
C:\Users\stapi\AppData\Local\Temp\ccC9u2qc.s:1229   .text.wpa_msg_global_ctrl:0000000000000000 .L0 
C:\Users\stapi\AppData\Local\Temp\ccC9u2qc.s:1231   .text.wpa_msg_global_ctrl:0000000000000000 .L0 
C:\Users\stapi\AppData\Local\Temp\ccC9u2qc.s:1232   .text.wpa_msg_global_ctrl:0000000000000000 .L0 
C:\Users\stapi\AppData\Local\Temp\ccC9u2qc.s:1233   .text.wpa_msg_global_ctrl:0000000000000000 .L0 
C:\Users\stapi\AppData\Local\Temp\ccC9u2qc.s:1234   .text.wpa_msg_global_ctrl:0000000000000000 .L0 
C:\Users\stapi\AppData\Local\Temp\ccC9u2qc.s:1235   .text.wpa_msg_global_ctrl:0000000000000000 .L0 
C:\Users\stapi\AppData\Local\Temp\ccC9u2qc.s:1236   .text.wpa_msg_global_ctrl:0000000000000000 .L0 
C:\Users\stapi\AppData\Local\Temp\ccC9u2qc.s:1237   .text.wpa_msg_global_ctrl:0000000000000000 .L0 
C:\Users\stapi\AppData\Local\Temp\ccC9u2qc.s:1238   .text.wpa_msg_global_ctrl:0000000000000002 .L0 
C:\Users\stapi\AppData\Local\Temp\ccC9u2qc.s:1240   .text.wpa_msg_global_ctrl:0000000000000004 .L0 
C:\Users\stapi\AppData\Local\Temp\ccC9u2qc.s:1242   .text.wpa_msg_global_ctrl:0000000000000004 .L0 
C:\Users\stapi\AppData\Local\Temp\ccC9u2qc.s:1245   .text.wpa_msg_global_ctrl:000000000000000c .L0 
C:\Users\stapi\AppData\Local\Temp\ccC9u2qc.s:1247   .text.wpa_msg_global_ctrl:000000000000000e .L0 
C:\Users\stapi\AppData\Local\Temp\ccC9u2qc.s:1249   .text.wpa_msg_global_ctrl:0000000000000012 .L0 
C:\Users\stapi\AppData\Local\Temp\ccC9u2qc.s:1255   .text.wpa_msg_global_ctrl:000000000000001e .L0 
C:\Users\stapi\AppData\Local\Temp\ccC9u2qc.s:1256   .text.wpa_msg_global_ctrl:000000000000001e .L0 
C:\Users\stapi\AppData\Local\Temp\ccC9u2qc.s:1257   .text.wpa_msg_global_ctrl:000000000000001e .L0 
C:\Users\stapi\AppData\Local\Temp\ccC9u2qc.s:1258   .text.wpa_msg_global_ctrl:000000000000001e .L0 
C:\Users\stapi\AppData\Local\Temp\ccC9u2qc.s:1259   .text.wpa_msg_global_ctrl:000000000000001e .L0 
C:\Users\stapi\AppData\Local\Temp\ccC9u2qc.s:1260   .text.wpa_msg_global_ctrl:000000000000001e .L0 
C:\Users\stapi\AppData\Local\Temp\ccC9u2qc.s:1262   .text.wpa_msg_global_ctrl:000000000000001e .L0 
C:\Users\stapi\AppData\Local\Temp\ccC9u2qc.s:1267   .text.wpa_msg_global_ctrl:0000000000000026 .L0 
C:\Users\stapi\AppData\Local\Temp\ccC9u2qc.s:1269   .text.wpa_msg_global_ctrl:0000000000000028 .L0 
C:\Users\stapi\AppData\Local\Temp\ccC9u2qc.s:1271   .text.wpa_msg_global_ctrl:000000000000002a .L0 
C:\Users\stapi\AppData\Local\Temp\ccC9u2qc.s:1277   .text.wpa_msg_global_ctrl:0000000000000034 .L0 
C:\Users\stapi\AppData\Local\Temp\ccC9u2qc.s:1278   .text.wpa_msg_global_ctrl:0000000000000034 .L0 
C:\Users\stapi\AppData\Local\Temp\ccC9u2qc.s:1285   .text.wpa_msg_global_ctrl:000000000000003a .L0 
C:\Users\stapi\AppData\Local\Temp\ccC9u2qc.s:1287   .text.wpa_msg_global_ctrl:000000000000003c .L0 
C:\Users\stapi\AppData\Local\Temp\ccC9u2qc.s:1288   .text.wpa_msg_global_ctrl:000000000000003c .L0 
C:\Users\stapi\AppData\Local\Temp\ccC9u2qc.s:1291   .text.wpa_msg_global_ctrl:0000000000000044 .L0 
C:\Users\stapi\AppData\Local\Temp\ccC9u2qc.s:1294   .text.wpa_msg_global_ctrl:0000000000000048 .L0 
C:\Users\stapi\AppData\Local\Temp\ccC9u2qc.s:1295   .text.wpa_msg_global_ctrl:0000000000000048 .L0 
C:\Users\stapi\AppData\Local\Temp\ccC9u2qc.s:1296   .text.wpa_msg_global_ctrl:0000000000000048 .L0 
C:\Users\stapi\AppData\Local\Temp\ccC9u2qc.s:1302   .text.wpa_msg_global_ctrl:0000000000000054 .L0 
C:\Users\stapi\AppData\Local\Temp\ccC9u2qc.s:1303   .text.wpa_msg_global_ctrl:0000000000000054 .L0 
C:\Users\stapi\AppData\Local\Temp\ccC9u2qc.s:1305   .text.wpa_msg_global_ctrl:0000000000000056 .L0 
C:\Users\stapi\AppData\Local\Temp\ccC9u2qc.s:1312   .text.wpa_msg_global_ctrl:0000000000000068 .L0 
C:\Users\stapi\AppData\Local\Temp\ccC9u2qc.s:1313   .text.wpa_msg_global_ctrl:0000000000000068 .L0 
C:\Users\stapi\AppData\Local\Temp\ccC9u2qc.s:1314   .text.wpa_msg_global_ctrl:000000000000006a .L0 
C:\Users\stapi\AppData\Local\Temp\ccC9u2qc.s:1315   .text.wpa_msg_global_ctrl:000000000000006a .L0 
C:\Users\stapi\AppData\Local\Temp\ccC9u2qc.s:1317   .text.wpa_msg_global_ctrl:000000000000006c .L0 
C:\Users\stapi\AppData\Local\Temp\ccC9u2qc.s:1319   .text.wpa_msg_global_ctrl:000000000000006e .L0 
C:\Users\stapi\AppData\Local\Temp\ccC9u2qc.s:1321   .text.wpa_msg_global_ctrl:0000000000000070 .L0 
C:\Users\stapi\AppData\Local\Temp\ccC9u2qc.s:1323   .text.wpa_msg_global_ctrl:0000000000000072 .L0 
C:\Users\stapi\AppData\Local\Temp\ccC9u2qc.s:1325   .text.wpa_msg_global_ctrl:0000000000000074 .L0 
C:\Users\stapi\AppData\Local\Temp\ccC9u2qc.s:1327   .text.wpa_msg_global_ctrl:0000000000000076 .L0 
C:\Users\stapi\AppData\Local\Temp\ccC9u2qc.s:1329   .text.wpa_msg_global_ctrl:0000000000000078 .L0 
C:\Users\stapi\AppData\Local\Temp\ccC9u2qc.s:1333   .text.wpa_msg_global_ctrl:000000000000007a .L0 
C:\Users\stapi\AppData\Local\Temp\ccC9u2qc.s:1335   .text.wpa_msg_global_ctrl:000000000000007a .L0 
C:\Users\stapi\AppData\Local\Temp\ccC9u2qc.s:1337   .text.wpa_msg_global_ctrl:000000000000007c .L0 
C:\Users\stapi\AppData\Local\Temp\ccC9u2qc.s:1342   .text.wpa_msg_global_ctrl:0000000000000084 .L0 
C:\Users\stapi\AppData\Local\Temp\ccC9u2qc.s:1344   .text.wpa_msg_global_ctrl:0000000000000086 .L0 
C:\Users\stapi\AppData\Local\Temp\ccC9u2qc.s:1345   .text.wpa_msg_global_ctrl:0000000000000086 .L0 
C:\Users\stapi\AppData\Local\Temp\ccC9u2qc.s:1348   .text.wpa_msg_global_ctrl:000000000000008e .L0 
C:\Users\stapi\AppData\Local\Temp\ccC9u2qc.s:1350   .text.wpa_msg_global_ctrl:0000000000000092 .L0 
C:\Users\stapi\AppData\Local\Temp\ccC9u2qc.s:1353   .text.wpa_msg_global_ctrl:0000000000000094 .L0 
C:\Users\stapi\AppData\Local\Temp\ccC9u2qc.s:1354   .text.wpa_msg_global_ctrl:0000000000000094 .L0 
C:\Users\stapi\AppData\Local\Temp\ccC9u2qc.s:1362   .text.wpa_msg_global_ctrl:000000000000009e .L0 
C:\Users\stapi\AppData\Local\Temp\ccC9u2qc.s:1367   .text.wpa_msg_global_ctrl:00000000000000ac .L0 
C:\Users\stapi\AppData\Local\Temp\ccC9u2qc.s:1378   .text.wpa_msg_no_global:0000000000000000 wpa_msg_no_global
C:\Users\stapi\AppData\Local\Temp\ccC9u2qc.s:1381   .text.wpa_msg_no_global:0000000000000000 .L0 
C:\Users\stapi\AppData\Local\Temp\ccC9u2qc.s:1383   .text.wpa_msg_no_global:0000000000000000 .L0 
C:\Users\stapi\AppData\Local\Temp\ccC9u2qc.s:1384   .text.wpa_msg_no_global:0000000000000000 .L0 
C:\Users\stapi\AppData\Local\Temp\ccC9u2qc.s:1385   .text.wpa_msg_no_global:0000000000000000 .L0 
C:\Users\stapi\AppData\Local\Temp\ccC9u2qc.s:1386   .text.wpa_msg_no_global:0000000000000000 .L0 
C:\Users\stapi\AppData\Local\Temp\ccC9u2qc.s:1387   .text.wpa_msg_no_global:0000000000000000 .L0 
C:\Users\stapi\AppData\Local\Temp\ccC9u2qc.s:1388   .text.wpa_msg_no_global:0000000000000000 .L0 
C:\Users\stapi\AppData\Local\Temp\ccC9u2qc.s:1389   .text.wpa_msg_no_global:0000000000000000 .L0 
C:\Users\stapi\AppData\Local\Temp\ccC9u2qc.s:1390   .text.wpa_msg_no_global:0000000000000002 .L0 
C:\Users\stapi\AppData\Local\Temp\ccC9u2qc.s:1393   .text.wpa_msg_no_global:0000000000000004 .L0 
C:\Users\stapi\AppData\Local\Temp\ccC9u2qc.s:1395   .text.wpa_msg_no_global:0000000000000006 .L0 
C:\Users\stapi\AppData\Local\Temp\ccC9u2qc.s:1401   .text.wpa_msg_no_global:0000000000000010 .L0 
C:\Users\stapi\AppData\Local\Temp\ccC9u2qc.s:1402   .text.wpa_msg_no_global:0000000000000012 .L0 
C:\Users\stapi\AppData\Local\Temp\ccC9u2qc.s:1403   .text.wpa_msg_no_global:0000000000000012 .L0 
C:\Users\stapi\AppData\Local\Temp\ccC9u2qc.s:1404   .text.wpa_msg_no_global:0000000000000012 .L0 
C:\Users\stapi\AppData\Local\Temp\ccC9u2qc.s:1406   .text.wpa_msg_no_global:0000000000000012 .L0 
C:\Users\stapi\AppData\Local\Temp\ccC9u2qc.s:1410   .text.wpa_msg_no_global:0000000000000018 .L0 
C:\Users\stapi\AppData\Local\Temp\ccC9u2qc.s:1418   .text.wpa_msg_no_global:0000000000000020 .L0 
C:\Users\stapi\AppData\Local\Temp\ccC9u2qc.s:1421   .text.wpa_msg_no_global:0000000000000026 .L0 
C:\Users\stapi\AppData\Local\Temp\ccC9u2qc.s:1422   .text.wpa_msg_no_global:0000000000000026 .L0 
C:\Users\stapi\AppData\Local\Temp\ccC9u2qc.s:1423   .text.wpa_msg_no_global:0000000000000026 .L0 
C:\Users\stapi\AppData\Local\Temp\ccC9u2qc.s:1425   .text.wpa_msg_no_global:0000000000000026 .L0 
C:\Users\stapi\AppData\Local\Temp\ccC9u2qc.s:1428   .text.wpa_msg_no_global:000000000000002a .L0 
C:\Users\stapi\AppData\Local\Temp\ccC9u2qc.s:1430   .text.wpa_msg_no_global:000000000000002c .L0 
C:\Users\stapi\AppData\Local\Temp\ccC9u2qc.s:1431   .text.wpa_msg_no_global:000000000000002c .L0 
C:\Users\stapi\AppData\Local\Temp\ccC9u2qc.s:1434   .text.wpa_msg_no_global:0000000000000034 .L0 
C:\Users\stapi\AppData\Local\Temp\ccC9u2qc.s:1437   .text.wpa_msg_no_global:0000000000000038 .L0 
C:\Users\stapi\AppData\Local\Temp\ccC9u2qc.s:1438   .text.wpa_msg_no_global:0000000000000038 .L0 
C:\Users\stapi\AppData\Local\Temp\ccC9u2qc.s:1439   .text.wpa_msg_no_global:0000000000000038 .L0 
C:\Users\stapi\AppData\Local\Temp\ccC9u2qc.s:1443   .text.wpa_msg_no_global:0000000000000042 .L0 
C:\Users\stapi\AppData\Local\Temp\ccC9u2qc.s:1444   .text.wpa_msg_no_global:0000000000000042 .L0 
C:\Users\stapi\AppData\Local\Temp\ccC9u2qc.s:1446   .text.wpa_msg_no_global:0000000000000044 .L0 
C:\Users\stapi\AppData\Local\Temp\ccC9u2qc.s:1454   .text.wpa_msg_no_global:0000000000000056 .L0 
C:\Users\stapi\AppData\Local\Temp\ccC9u2qc.s:1455   .text.wpa_msg_no_global:0000000000000056 .L0 
C:\Users\stapi\AppData\Local\Temp\ccC9u2qc.s:1456   .text.wpa_msg_no_global:0000000000000058 .L0 
C:\Users\stapi\AppData\Local\Temp\ccC9u2qc.s:1457   .text.wpa_msg_no_global:0000000000000058 .L0 
C:\Users\stapi\AppData\Local\Temp\ccC9u2qc.s:1459   .text.wpa_msg_no_global:000000000000005a .L0 
C:\Users\stapi\AppData\Local\Temp\ccC9u2qc.s:1461   .text.wpa_msg_no_global:000000000000005c .L0 
C:\Users\stapi\AppData\Local\Temp\ccC9u2qc.s:1464   .text.wpa_msg_no_global:000000000000005e .L0 
C:\Users\stapi\AppData\Local\Temp\ccC9u2qc.s:1467   .text.wpa_msg_no_global:0000000000000060 .L0 
C:\Users\stapi\AppData\Local\Temp\ccC9u2qc.s:1470   .text.wpa_msg_no_global:0000000000000062 .L0 
C:\Users\stapi\AppData\Local\Temp\ccC9u2qc.s:1473   .text.wpa_msg_no_global:0000000000000064 .L0 
C:\Users\stapi\AppData\Local\Temp\ccC9u2qc.s:1477   .text.wpa_msg_no_global:0000000000000066 .L0 
C:\Users\stapi\AppData\Local\Temp\ccC9u2qc.s:1479   .text.wpa_msg_no_global:0000000000000066 .L0 
C:\Users\stapi\AppData\Local\Temp\ccC9u2qc.s:1481   .text.wpa_msg_no_global:0000000000000068 .L0 
C:\Users\stapi\AppData\Local\Temp\ccC9u2qc.s:1486   .text.wpa_msg_no_global:0000000000000070 .L0 
C:\Users\stapi\AppData\Local\Temp\ccC9u2qc.s:1489   .text.wpa_msg_no_global:0000000000000074 .L0 
C:\Users\stapi\AppData\Local\Temp\ccC9u2qc.s:1490   .text.wpa_msg_no_global:0000000000000074 .L0 
C:\Users\stapi\AppData\Local\Temp\ccC9u2qc.s:1491   .text.wpa_msg_no_global:0000000000000074 .L0 
C:\Users\stapi\AppData\Local\Temp\ccC9u2qc.s:1494   .text.wpa_msg_no_global:000000000000007c .L0 
C:\Users\stapi\AppData\Local\Temp\ccC9u2qc.s:1496   .text.wpa_msg_no_global:0000000000000080 .L0 
C:\Users\stapi\AppData\Local\Temp\ccC9u2qc.s:1499   .text.wpa_msg_no_global:0000000000000082 .L0 
C:\Users\stapi\AppData\Local\Temp\ccC9u2qc.s:1500   .text.wpa_msg_no_global:0000000000000082 .L0 
C:\Users\stapi\AppData\Local\Temp\ccC9u2qc.s:1507   .text.wpa_msg_no_global:0000000000000092 .L0 
C:\Users\stapi\AppData\Local\Temp\ccC9u2qc.s:1508   .text.wpa_msg_no_global:0000000000000092 .L0 
C:\Users\stapi\AppData\Local\Temp\ccC9u2qc.s:1511   .text.wpa_msg_no_global:000000000000009a .L0 
C:\Users\stapi\AppData\Local\Temp\ccC9u2qc.s:1513   .text.wpa_msg_no_global:000000000000009c .L0 
C:\Users\stapi\AppData\Local\Temp\ccC9u2qc.s:1522   .text.wpa_msg_no_global:00000000000000a8 .L0 
C:\Users\stapi\AppData\Local\Temp\ccC9u2qc.s:1527   .text.wpa_msg_no_global:00000000000000b6 .L0 
C:\Users\stapi\AppData\Local\Temp\ccC9u2qc.s:1538   .text.wpa_msg_global_only:0000000000000000 wpa_msg_global_only
C:\Users\stapi\AppData\Local\Temp\ccC9u2qc.s:1541   .text.wpa_msg_global_only:0000000000000000 .L0 
C:\Users\stapi\AppData\Local\Temp\ccC9u2qc.s:1543   .text.wpa_msg_global_only:0000000000000000 .L0 
C:\Users\stapi\AppData\Local\Temp\ccC9u2qc.s:1544   .text.wpa_msg_global_only:0000000000000000 .L0 
C:\Users\stapi\AppData\Local\Temp\ccC9u2qc.s:1545   .text.wpa_msg_global_only:0000000000000000 .L0 
C:\Users\stapi\AppData\Local\Temp\ccC9u2qc.s:1546   .text.wpa_msg_global_only:0000000000000000 .L0 
C:\Users\stapi\AppData\Local\Temp\ccC9u2qc.s:1547   .text.wpa_msg_global_only:0000000000000000 .L0 
C:\Users\stapi\AppData\Local\Temp\ccC9u2qc.s:1548   .text.wpa_msg_global_only:0000000000000000 .L0 
C:\Users\stapi\AppData\Local\Temp\ccC9u2qc.s:1549   .text.wpa_msg_global_only:0000000000000000 .L0 
C:\Users\stapi\AppData\Local\Temp\ccC9u2qc.s:1550   .text.wpa_msg_global_only:0000000000000002 .L0 
C:\Users\stapi\AppData\Local\Temp\ccC9u2qc.s:1553   .text.wpa_msg_global_only:0000000000000004 .L0 
C:\Users\stapi\AppData\Local\Temp\ccC9u2qc.s:1555   .text.wpa_msg_global_only:0000000000000006 .L0 
C:\Users\stapi\AppData\Local\Temp\ccC9u2qc.s:1561   .text.wpa_msg_global_only:0000000000000010 .L0 
C:\Users\stapi\AppData\Local\Temp\ccC9u2qc.s:1563   .text.wpa_msg_global_only:0000000000000014 .L0 
C:\Users\stapi\AppData\Local\Temp\ccC9u2qc.s:1564   .text.wpa_msg_global_only:0000000000000014 .L0 
C:\Users\stapi\AppData\Local\Temp\ccC9u2qc.s:1565   .text.wpa_msg_global_only:0000000000000014 .L0 
C:\Users\stapi\AppData\Local\Temp\ccC9u2qc.s:1567   .text.wpa_msg_global_only:0000000000000014 .L0 
C:\Users\stapi\AppData\Local\Temp\ccC9u2qc.s:1571   .text.wpa_msg_global_only:000000000000001a .L0 
C:\Users\stapi\AppData\Local\Temp\ccC9u2qc.s:1578   .text.wpa_msg_global_only:0000000000000020 .L0 
C:\Users\stapi\AppData\Local\Temp\ccC9u2qc.s:1582   .text.wpa_msg_global_only:0000000000000026 .L0 
C:\Users\stapi\AppData\Local\Temp\ccC9u2qc.s:1584   .text.wpa_msg_global_only:0000000000000028 .L0 
C:\Users\stapi\AppData\Local\Temp\ccC9u2qc.s:1585   .text.wpa_msg_global_only:0000000000000028 .L0 
C:\Users\stapi\AppData\Local\Temp\ccC9u2qc.s:1586   .text.wpa_msg_global_only:000000000000002a .L0 
C:\Users\stapi\AppData\Local\Temp\ccC9u2qc.s:1587   .text.wpa_msg_global_only:000000000000002a .L0 
C:\Users\stapi\AppData\Local\Temp\ccC9u2qc.s:1589   .text.wpa_msg_global_only:000000000000002a .L0 
C:\Users\stapi\AppData\Local\Temp\ccC9u2qc.s:1592   .text.wpa_msg_global_only:0000000000000032 .L0 
C:\Users\stapi\AppData\Local\Temp\ccC9u2qc.s:1595   .text.wpa_msg_global_only:0000000000000036 .L0 
C:\Users\stapi\AppData\Local\Temp\ccC9u2qc.s:1596   .text.wpa_msg_global_only:0000000000000036 .L0 
C:\Users\stapi\AppData\Local\Temp\ccC9u2qc.s:1597   .text.wpa_msg_global_only:0000000000000036 .L0 
C:\Users\stapi\AppData\Local\Temp\ccC9u2qc.s:1602   .text.wpa_msg_global_only:0000000000000042 .L0 
C:\Users\stapi\AppData\Local\Temp\ccC9u2qc.s:1603   .text.wpa_msg_global_only:0000000000000042 .L0 
C:\Users\stapi\AppData\Local\Temp\ccC9u2qc.s:1606   .text.wpa_msg_global_only:0000000000000046 .L0 
C:\Users\stapi\AppData\Local\Temp\ccC9u2qc.s:1616   .text.wpa_msg_global_only:0000000000000060 .L0 
C:\Users\stapi\AppData\Local\Temp\ccC9u2qc.s:1617   .text.wpa_msg_global_only:0000000000000060 .L0 
C:\Users\stapi\AppData\Local\Temp\ccC9u2qc.s:1618   .text.wpa_msg_global_only:0000000000000062 .L0 
C:\Users\stapi\AppData\Local\Temp\ccC9u2qc.s:1619   .text.wpa_msg_global_only:0000000000000062 .L0 
C:\Users\stapi\AppData\Local\Temp\ccC9u2qc.s:1621   .text.wpa_msg_global_only:0000000000000064 .L0 
C:\Users\stapi\AppData\Local\Temp\ccC9u2qc.s:1623   .text.wpa_msg_global_only:0000000000000066 .L0 
C:\Users\stapi\AppData\Local\Temp\ccC9u2qc.s:1626   .text.wpa_msg_global_only:0000000000000068 .L0 
C:\Users\stapi\AppData\Local\Temp\ccC9u2qc.s:1629   .text.wpa_msg_global_only:000000000000006a .L0 
C:\Users\stapi\AppData\Local\Temp\ccC9u2qc.s:1632   .text.wpa_msg_global_only:000000000000006c .L0 
C:\Users\stapi\AppData\Local\Temp\ccC9u2qc.s:1636   .text.wpa_msg_global_only:000000000000006e .L0 
C:\Users\stapi\AppData\Local\Temp\ccC9u2qc.s:1638   .text.wpa_msg_global_only:000000000000006e .L0 
C:\Users\stapi\AppData\Local\Temp\ccC9u2qc.s:1640   .text.wpa_msg_global_only:0000000000000070 .L0 
C:\Users\stapi\AppData\Local\Temp\ccC9u2qc.s:1644   .text.wpa_msg_global_only:0000000000000076 .L0 
C:\Users\stapi\AppData\Local\Temp\ccC9u2qc.s:1647   .text.wpa_msg_global_only:000000000000007a .L0 
C:\Users\stapi\AppData\Local\Temp\ccC9u2qc.s:1648   .text.wpa_msg_global_only:000000000000007a .L0 
C:\Users\stapi\AppData\Local\Temp\ccC9u2qc.s:1649   .text.wpa_msg_global_only:000000000000007a .L0 
C:\Users\stapi\AppData\Local\Temp\ccC9u2qc.s:1652   .text.wpa_msg_global_only:0000000000000082 .L0 
C:\Users\stapi\AppData\Local\Temp\ccC9u2qc.s:1654   .text.wpa_msg_global_only:0000000000000086 .L0 
C:\Users\stapi\AppData\Local\Temp\ccC9u2qc.s:1657   .text.wpa_msg_global_only:0000000000000088 .L0 
C:\Users\stapi\AppData\Local\Temp\ccC9u2qc.s:1658   .text.wpa_msg_global_only:0000000000000088 .L0 
C:\Users\stapi\AppData\Local\Temp\ccC9u2qc.s:1665   .text.wpa_msg_global_only:0000000000000098 .L0 
C:\Users\stapi\AppData\Local\Temp\ccC9u2qc.s:1666   .text.wpa_msg_global_only:0000000000000098 .L0 
C:\Users\stapi\AppData\Local\Temp\ccC9u2qc.s:1669   .text.wpa_msg_global_only:00000000000000a0 .L0 
C:\Users\stapi\AppData\Local\Temp\ccC9u2qc.s:1671   .text.wpa_msg_global_only:00000000000000a2 .L0 
C:\Users\stapi\AppData\Local\Temp\ccC9u2qc.s:1680   .text.wpa_msg_global_only:00000000000000ae .L0 
C:\Users\stapi\AppData\Local\Temp\ccC9u2qc.s:1684   .text.wpa_msg_global_only:00000000000000ba .L0 
C:\Users\stapi\AppData\Local\Temp\ccC9u2qc.s:1695   .text.debug_level_str:0000000000000000 debug_level_str
C:\Users\stapi\AppData\Local\Temp\ccC9u2qc.s:1698   .text.debug_level_str:0000000000000000 .L0 
C:\Users\stapi\AppData\Local\Temp\ccC9u2qc.s:1700   .text.debug_level_str:0000000000000000 .L0 
C:\Users\stapi\AppData\Local\Temp\ccC9u2qc.s:1701   .text.debug_level_str:0000000000000000 .L0 
C:\Users\stapi\AppData\Local\Temp\ccC9u2qc.s:1712   .text.debug_level_str:0000000000000016 .L0 
C:\Users\stapi\AppData\Local\Temp\ccC9u2qc.s:1716   .text.debug_level_str:000000000000001e .L0 
C:\Users\stapi\AppData\Local\Temp\ccC9u2qc.s:1717   .text.debug_level_str:0000000000000020 .L0 
C:\Users\stapi\AppData\Local\Temp\ccC9u2qc.s:1743   .text.str_to_debug_level:0000000000000000 str_to_debug_level
C:\Users\stapi\AppData\Local\Temp\ccC9u2qc.s:1746   .text.str_to_debug_level:0000000000000000 .L0 
C:\Users\stapi\AppData\Local\Temp\ccC9u2qc.s:1748   .text.str_to_debug_level:0000000000000000 .L0 
C:\Users\stapi\AppData\Local\Temp\ccC9u2qc.s:1749   .text.str_to_debug_level:0000000000000008 .L0 
C:\Users\stapi\AppData\Local\Temp\ccC9u2qc.s:1750   .text.str_to_debug_level:0000000000000008 .L0 
C:\Users\stapi\AppData\Local\Temp\ccC9u2qc.s:1751   .text.str_to_debug_level:0000000000000008 .L0 
C:\Users\stapi\AppData\Local\Temp\ccC9u2qc.s:1753   .text.str_to_debug_level:0000000000000008 .L0 
C:\Users\stapi\AppData\Local\Temp\ccC9u2qc.s:1754   .text.str_to_debug_level:0000000000000008 .L0 
C:\Users\stapi\AppData\Local\Temp\ccC9u2qc.s:1757   .text.str_to_debug_level:0000000000000010 .L0 
C:\Users\stapi\AppData\Local\Temp\ccC9u2qc.s:1759   .text.str_to_debug_level:0000000000000012 .L0 
C:\Users\stapi\AppData\Local\Temp\ccC9u2qc.s:1763   .text.str_to_debug_level:000000000000001c .L0 
C:\Users\stapi\AppData\Local\Temp\ccC9u2qc.s:1765   .text.str_to_debug_level:000000000000001e .L0 
C:\Users\stapi\AppData\Local\Temp\ccC9u2qc.s:1766   .text.str_to_debug_level:000000000000001e .L0 
C:\Users\stapi\AppData\Local\Temp\ccC9u2qc.s:1772   .text.str_to_debug_level:0000000000000030 .L0 
C:\Users\stapi\AppData\Local\Temp\ccC9u2qc.s:1774   .text.str_to_debug_level:0000000000000032 .L0 
C:\Users\stapi\AppData\Local\Temp\ccC9u2qc.s:1776   .text.str_to_debug_level:0000000000000034 .L0 
C:\Users\stapi\AppData\Local\Temp\ccC9u2qc.s:1777   .text.str_to_debug_level:0000000000000034 .L0 
C:\Users\stapi\AppData\Local\Temp\ccC9u2qc.s:1783   .text.str_to_debug_level:0000000000000046 .L0 
C:\Users\stapi\AppData\Local\Temp\ccC9u2qc.s:1785   .text.str_to_debug_level:0000000000000048 .L0 
C:\Users\stapi\AppData\Local\Temp\ccC9u2qc.s:1787   .text.str_to_debug_level:000000000000004a .L0 
C:\Users\stapi\AppData\Local\Temp\ccC9u2qc.s:1788   .text.str_to_debug_level:000000000000004a .L0 
C:\Users\stapi\AppData\Local\Temp\ccC9u2qc.s:1794   .text.str_to_debug_level:000000000000005c .L0 
C:\Users\stapi\AppData\Local\Temp\ccC9u2qc.s:1796   .text.str_to_debug_level:000000000000005e .L0 
C:\Users\stapi\AppData\Local\Temp\ccC9u2qc.s:1798   .text.str_to_debug_level:0000000000000060 .L0 
C:\Users\stapi\AppData\Local\Temp\ccC9u2qc.s:1799   .text.str_to_debug_level:0000000000000060 .L0 
C:\Users\stapi\AppData\Local\Temp\ccC9u2qc.s:1805   .text.str_to_debug_level:0000000000000072 .L0 
C:\Users\stapi\AppData\Local\Temp\ccC9u2qc.s:1807   .text.str_to_debug_level:0000000000000074 .L0 
C:\Users\stapi\AppData\Local\Temp\ccC9u2qc.s:1809   .text.str_to_debug_level:0000000000000076 .L0 
C:\Users\stapi\AppData\Local\Temp\ccC9u2qc.s:1810   .text.str_to_debug_level:0000000000000076 .L0 
C:\Users\stapi\AppData\Local\Temp\ccC9u2qc.s:1816   .text.str_to_debug_level:0000000000000088 .L0 
C:\Users\stapi\AppData\Local\Temp\ccC9u2qc.s:1818   .text.str_to_debug_level:000000000000008a .L0 
C:\Users\stapi\AppData\Local\Temp\ccC9u2qc.s:1820   .text.str_to_debug_level:000000000000008c .L0 
C:\Users\stapi\AppData\Local\Temp\ccC9u2qc.s:1823   .text.str_to_debug_level:000000000000008e .L0 
C:\Users\stapi\AppData\Local\Temp\ccC9u2qc.s:1825   .text.str_to_debug_level:0000000000000098 .L0 
C:\Users\stapi\AppData\Local\Temp\ccC9u2qc.s:1826   .text.str_to_debug_level:0000000000000098 .L0 
C:\Users\stapi\AppData\Local\Temp\ccC9u2qc.s:1827   .text.str_to_debug_level:0000000000000098 .L0 
C:\Users\stapi\AppData\Local\Temp\ccC9u2qc.s:1828   .text.str_to_debug_level:0000000000000098 .L0 
C:\Users\stapi\AppData\Local\Temp\ccC9u2qc.s:1835   .text.wpa_debug_level_set:0000000000000000 wpa_debug_level_set
C:\Users\stapi\AppData\Local\Temp\ccC9u2qc.s:1838   .text.wpa_debug_level_set:0000000000000000 .L0 
C:\Users\stapi\AppData\Local\Temp\ccC9u2qc.s:1840   .text.wpa_debug_level_set:0000000000000000 .L0 
C:\Users\stapi\AppData\Local\Temp\ccC9u2qc.s:1841   .text.wpa_debug_level_set:0000000000000000 .L0 
C:\Users\stapi\AppData\Local\Temp\ccC9u2qc.s:1842   .text.wpa_debug_level_set:0000000000000000 .L0 
C:\Users\stapi\AppData\Local\Temp\ccC9u2qc.s:1846   .text.wpa_debug_level_set:0000000000000006 .L0 
C:\Users\stapi\AppData\Local\Temp\ccC9u2qc.s:1849   .text.wpa_debug_level_set:000000000000000e .L0 
C:\Users\stapi\AppData\Local\Temp\ccC9u2qc.s:1850   .text.wpa_debug_level_set:0000000000000010 .L0 
C:\Users\stapi\AppData\Local\Temp\ccC9u2qc.s:1857   .text.wpa_debug_level_get:0000000000000000 wpa_debug_level_get
C:\Users\stapi\AppData\Local\Temp\ccC9u2qc.s:1860   .text.wpa_debug_level_get:0000000000000000 .L0 
C:\Users\stapi\AppData\Local\Temp\ccC9u2qc.s:1861   .text.wpa_debug_level_get:0000000000000000 .L0 
C:\Users\stapi\AppData\Local\Temp\ccC9u2qc.s:1862   .text.wpa_debug_level_get:0000000000000000 .L0 
C:\Users\stapi\AppData\Local\Temp\ccC9u2qc.s:1863   .text.wpa_debug_level_get:0000000000000000 .L0 
C:\Users\stapi\AppData\Local\Temp\ccC9u2qc.s:1866   .text.wpa_debug_level_get:000000000000000a .L0 
C:\Users\stapi\AppData\Local\Temp\ccC9u2qc.s:1904   .sbss.wpa_debug_syslog:0000000000000000 wpa_debug_syslog
C:\Users\stapi\AppData\Local\Temp\ccC9u2qc.s:1911   .sbss.wpa_debug_timestamp:0000000000000000 wpa_debug_timestamp
C:\Users\stapi\AppData\Local\Temp\ccC9u2qc.s:1897   .sbss.wpa_debug_show_keys:0000000000000000 wpa_debug_show_keys
C:\Users\stapi\AppData\Local\Temp\ccC9u2qc.s:1932   .sdata.wpa_debug_level:0000000000000000 wpa_debug_level
C:\Users\stapi\AppData\Local\Temp\ccC9u2qc.s:1875   .rodata.CSWTCH.90:0000000000000000 .LANCHOR7
C:\Users\stapi\AppData\Local\Temp\ccC9u2qc.s:1878   .rodata.CSWTCH.90:0000000000000000 CSWTCH.90
C:\Users\stapi\AppData\Local\Temp\ccC9u2qc.s:1887   .rodata.__func__.0:0000000000000000 .LANCHOR6
C:\Users\stapi\AppData\Local\Temp\ccC9u2qc.s:1890   .rodata.__func__.0:0000000000000000 __func__.0
C:\Users\stapi\AppData\Local\Temp\ccC9u2qc.s:1894   .sbss.wpa_debug_show_keys:0000000000000000 .LANCHOR3
C:\Users\stapi\AppData\Local\Temp\ccC9u2qc.s:1901   .sbss.wpa_debug_syslog:0000000000000000 .LANCHOR1
C:\Users\stapi\AppData\Local\Temp\ccC9u2qc.s:1908   .sbss.wpa_debug_timestamp:0000000000000000 .LANCHOR0
C:\Users\stapi\AppData\Local\Temp\ccC9u2qc.s:1915   .sbss.wpa_msg_cb:0000000000000000 .LANCHOR4
C:\Users\stapi\AppData\Local\Temp\ccC9u2qc.s:1918   .sbss.wpa_msg_cb:0000000000000000 wpa_msg_cb
C:\Users\stapi\AppData\Local\Temp\ccC9u2qc.s:1922   .sbss.wpa_msg_ifname_cb:0000000000000000 .LANCHOR5
C:\Users\stapi\AppData\Local\Temp\ccC9u2qc.s:1925   .sbss.wpa_msg_ifname_cb:0000000000000000 wpa_msg_ifname_cb
C:\Users\stapi\AppData\Local\Temp\ccC9u2qc.s:1929   .sdata.wpa_debug_level:0000000000000000 .LANCHOR2
C:\Users\stapi\AppData\Local\Temp\ccC9u2qc.s:73     .text.wpa_debug_print_timestamp:0000000000000048 .L0 
C:\Users\stapi\AppData\Local\Temp\ccC9u2qc.s:324    .text._wpa_hexdump_ascii:0000000000000124 .L0 
C:\Users\stapi\AppData\Local\Temp\ccC9u2qc.s:451    .text._wpa_hexdump.constprop.0:0000000000000098 .L0 
C:\Users\stapi\AppData\Local\Temp\ccC9u2qc.s:517    .text.wpa_printf:0000000000000052 .L0 
C:\Users\stapi\AppData\Local\Temp\ccC9u2qc.s:533    .text.wpa_hexdump:000000000000000a .L0 
C:\Users\stapi\AppData\Local\Temp\ccC9u2qc.s:550    .text.wpa_hexdump_key:0000000000000010 .L0 
C:\Users\stapi\AppData\Local\Temp\ccC9u2qc.s:566    .text.wpa_hexdump_ascii:000000000000000a .L0 
C:\Users\stapi\AppData\Local\Temp\ccC9u2qc.s:583    .text.wpa_hexdump_ascii_key:0000000000000010 .L0 
C:\Users\stapi\AppData\Local\Temp\ccC9u2qc.s:598    .text.wpa_debug_reopen_file:0000000000000004 .L0 
C:\Users\stapi\AppData\Local\Temp\ccC9u2qc.s:616    .text.wpa_debug_open_file:0000000000000004 .L0 
C:\Users\stapi\AppData\Local\Temp\ccC9u2qc.s:629    .text.wpa_debug_close_file:0000000000000002 .L0 
C:\Users\stapi\AppData\Local\Temp\ccC9u2qc.s:651    .text.wpa_debug_setup_stdout:0000000000000018 .L0 
C:\Users\stapi\AppData\Local\Temp\ccC9u2qc.s:669    .text.wpa_msg_register_cb:000000000000000a .L0 
C:\Users\stapi\AppData\Local\Temp\ccC9u2qc.s:687    .text.wpa_msg_register_ifname_cb:000000000000000a .L0 
C:\Users\stapi\AppData\Local\Temp\ccC9u2qc.s:903    .text.wpa_msg:00000000000000f2 .L0 
C:\Users\stapi\AppData\Local\Temp\ccC9u2qc.s:1055   .text.wpa_msg_ctrl:00000000000000ac .L0 
C:\Users\stapi\AppData\Local\Temp\ccC9u2qc.s:1218   .text.wpa_msg_global:00000000000000b6 .L0 
C:\Users\stapi\AppData\Local\Temp\ccC9u2qc.s:1370   .text.wpa_msg_global_ctrl:00000000000000ac .L0 
C:\Users\stapi\AppData\Local\Temp\ccC9u2qc.s:1530   .text.wpa_msg_no_global:00000000000000b6 .L0 
C:\Users\stapi\AppData\Local\Temp\ccC9u2qc.s:1687   .text.wpa_msg_global_only:00000000000000ba .L0 
C:\Users\stapi\AppData\Local\Temp\ccC9u2qc.s:1720   .text.debug_level_str:0000000000000020 .L0 
C:\Users\stapi\AppData\Local\Temp\ccC9u2qc.s:1831   .text.str_to_debug_level:0000000000000098 .L0 
C:\Users\stapi\AppData\Local\Temp\ccC9u2qc.s:1853   .text.wpa_debug_level_set:0000000000000010 .L0 
C:\Users\stapi\AppData\Local\Temp\ccC9u2qc.s:1873   .text.wpa_debug_level_get:000000000000000a .L0 
                     .debug_frame:0000000000000000 .L0 
C:\Users\stapi\AppData\Local\Temp\ccC9u2qc.s:11     .rodata.wpa_debug_print_timestamp.str1.4:0000000000000000 .LC0
C:\Users\stapi\AppData\Local\Temp\ccC9u2qc.s:67     .text.wpa_debug_print_timestamp:0000000000000046 .L8
C:\Users\stapi\AppData\Local\Temp\ccC9u2qc.s:58     .text.wpa_debug_print_timestamp:000000000000003c .L1
C:\Users\stapi\AppData\Local\Temp\ccC9u2qc.s:75     .rodata._wpa_hexdump_ascii.str1.4:0000000000000000 .LC1
C:\Users\stapi\AppData\Local\Temp\ccC9u2qc.s:78     .rodata._wpa_hexdump_ascii.str1.4:0000000000000028 .LC2
C:\Users\stapi\AppData\Local\Temp\ccC9u2qc.s:81     .rodata._wpa_hexdump_ascii.str1.4:0000000000000050 .LC3
C:\Users\stapi\AppData\Local\Temp\ccC9u2qc.s:84     .rodata._wpa_hexdump_ascii.str1.4:0000000000000070 .LC4
C:\Users\stapi\AppData\Local\Temp\ccC9u2qc.s:87     .rodata._wpa_hexdump_ascii.str1.4:0000000000000078 .LC5
C:\Users\stapi\AppData\Local\Temp\ccC9u2qc.s:90     .rodata._wpa_hexdump_ascii.str1.4:0000000000000080 .LC6
C:\Users\stapi\AppData\Local\Temp\ccC9u2qc.s:155    .text._wpa_hexdump_ascii:0000000000000048 .L11
C:\Users\stapi\AppData\Local\Temp\ccC9u2qc.s:176    .text._wpa_hexdump_ascii:0000000000000052 .L15
C:\Users\stapi\AppData\Local\Temp\ccC9u2qc.s:187    .text._wpa_hexdump_ascii:000000000000005e .L16
C:\Users\stapi\AppData\Local\Temp\ccC9u2qc.s:148    .text._wpa_hexdump_ascii:0000000000000040 .L31
C:\Users\stapi\AppData\Local\Temp\ccC9u2qc.s:223    .text._wpa_hexdump_ascii:0000000000000098 .L18
C:\Users\stapi\AppData\Local\Temp\ccC9u2qc.s:296    .text._wpa_hexdump_ascii:0000000000000102 .L20
C:\Users\stapi\AppData\Local\Temp\ccC9u2qc.s:305    .text._wpa_hexdump_ascii:000000000000010e .L21
C:\Users\stapi\AppData\Local\Temp\ccC9u2qc.s:256    .text._wpa_hexdump_ascii:00000000000000c6 .L23
C:\Users\stapi\AppData\Local\Temp\ccC9u2qc.s:309    .text._wpa_hexdump_ascii:0000000000000114 .L25
C:\Users\stapi\AppData\Local\Temp\ccC9u2qc.s:207    .text._wpa_hexdump_ascii:0000000000000084 .L17
C:\Users\stapi\AppData\Local\Temp\ccC9u2qc.s:242    .text._wpa_hexdump_ascii:00000000000000b4 .L19
C:\Users\stapi\AppData\Local\Temp\ccC9u2qc.s:266    .text._wpa_hexdump_ascii:00000000000000dc .L30
C:\Users\stapi\AppData\Local\Temp\ccC9u2qc.s:279    .text._wpa_hexdump_ascii:00000000000000ec .L24
C:\Users\stapi\AppData\Local\Temp\ccC9u2qc.s:326    .rodata._wpa_hexdump.constprop.0.str1.4:0000000000000000 .LC7
C:\Users\stapi\AppData\Local\Temp\ccC9u2qc.s:329    .rodata._wpa_hexdump.constprop.0.str1.4:0000000000000018 .LC8
C:\Users\stapi\AppData\Local\Temp\ccC9u2qc.s:332    .rodata._wpa_hexdump.constprop.0.str1.4:0000000000000020 .LC9
C:\Users\stapi\AppData\Local\Temp\ccC9u2qc.s:412    .text._wpa_hexdump.constprop.0:0000000000000070 .L32
C:\Users\stapi\AppData\Local\Temp\ccC9u2qc.s:393    .text._wpa_hexdump.constprop.0:0000000000000058 .L36
C:\Users\stapi\AppData\Local\Temp\ccC9u2qc.s:407    .text._wpa_hexdump.constprop.0:0000000000000066 .L37
C:\Users\stapi\AppData\Local\Temp\ccC9u2qc.s:441    .text._wpa_hexdump.constprop.0:000000000000008e .L38
C:\Users\stapi\AppData\Local\Temp\ccC9u2qc.s:427    .text._wpa_hexdump.constprop.0:000000000000007a .L40
C:\Users\stapi\AppData\Local\Temp\ccC9u2qc.s:402    .text._wpa_hexdump.constprop.0:0000000000000062 .L39
C:\Users\stapi\AppData\Local\Temp\ccC9u2qc.s:388    .text._wpa_hexdump.constprop.0:000000000000004e .L42
C:\Users\stapi\AppData\Local\Temp\ccC9u2qc.s:505    .text.wpa_printf:000000000000004a .L43
C:\Users\stapi\AppData\Local\Temp\ccC9u2qc.s:689    .rodata.wpa_msg.str1.4:0000000000000000 .LC10
C:\Users\stapi\AppData\Local\Temp\ccC9u2qc.s:692    .rodata.wpa_msg.str1.4:000000000000002c .LC11
C:\Users\stapi\AppData\Local\Temp\ccC9u2qc.s:695    .rodata.wpa_msg.str1.4:0000000000000034 .LC12
C:\Users\stapi\AppData\Local\Temp\ccC9u2qc.s:800    .text.wpa_msg:0000000000000066 .L64
C:\Users\stapi\AppData\Local\Temp\ccC9u2qc.s:853    .text.wpa_msg:00000000000000a4 .L67
C:\Users\stapi\AppData\Local\Temp\ccC9u2qc.s:893    .text.wpa_msg:00000000000000e4 .L69
C:\Users\stapi\AppData\Local\Temp\ccC9u2qc.s:777    .text.wpa_msg:0000000000000056 .L63
C:\Users\stapi\AppData\Local\Temp\ccC9u2qc.s:905    .rodata.wpa_msg_ctrl.str1.4:0000000000000000 .LC13
C:\Users\stapi\AppData\Local\Temp\ccC9u2qc.s:996    .text.wpa_msg_ctrl:0000000000000068 .L77
C:\Users\stapi\AppData\Local\Temp\ccC9u2qc.s:1017   .text.wpa_msg_ctrl:000000000000007a .L79
C:\Users\stapi\AppData\Local\Temp\ccC9u2qc.s:1057   .rodata.wpa_msg_global.str1.4:0000000000000000 .LC14
C:\Users\stapi\AppData\Local\Temp\ccC9u2qc.s:1060   .rodata.wpa_msg_global.str1.4:0000000000000034 .LC15
C:\Users\stapi\AppData\Local\Temp\ccC9u2qc.s:1164   .text.wpa_msg_global:0000000000000066 .L86
C:\Users\stapi\AppData\Local\Temp\ccC9u2qc.s:1208   .text.wpa_msg_global:00000000000000a8 .L88
C:\Users\stapi\AppData\Local\Temp\ccC9u2qc.s:1141   .text.wpa_msg_global:0000000000000056 .L85
C:\Users\stapi\AppData\Local\Temp\ccC9u2qc.s:1220   .rodata.wpa_msg_global_ctrl.str1.4:0000000000000000 .LC16
C:\Users\stapi\AppData\Local\Temp\ccC9u2qc.s:1311   .text.wpa_msg_global_ctrl:0000000000000068 .L93
C:\Users\stapi\AppData\Local\Temp\ccC9u2qc.s:1332   .text.wpa_msg_global_ctrl:000000000000007a .L95
C:\Users\stapi\AppData\Local\Temp\ccC9u2qc.s:1372   .rodata.wpa_msg_no_global.str1.4:0000000000000000 .LC17
C:\Users\stapi\AppData\Local\Temp\ccC9u2qc.s:1476   .text.wpa_msg_no_global:0000000000000066 .L102
C:\Users\stapi\AppData\Local\Temp\ccC9u2qc.s:1520   .text.wpa_msg_no_global:00000000000000a8 .L104
C:\Users\stapi\AppData\Local\Temp\ccC9u2qc.s:1453   .text.wpa_msg_no_global:0000000000000056 .L101
C:\Users\stapi\AppData\Local\Temp\ccC9u2qc.s:1532   .rodata.wpa_msg_global_only.str1.4:0000000000000000 .LC18
C:\Users\stapi\AppData\Local\Temp\ccC9u2qc.s:1635   .text.wpa_msg_global_only:000000000000006e .L110
C:\Users\stapi\AppData\Local\Temp\ccC9u2qc.s:1678   .text.wpa_msg_global_only:00000000000000ae .L112
C:\Users\stapi\AppData\Local\Temp\ccC9u2qc.s:1615   .text.wpa_msg_global_only:0000000000000060 .L109
C:\Users\stapi\AppData\Local\Temp\ccC9u2qc.s:1689   .rodata.debug_level_str.str1.4:0000000000000000 .LC19
C:\Users\stapi\AppData\Local\Temp\ccC9u2qc.s:1710   .text.debug_level_str:0000000000000016 .L119
C:\Users\stapi\AppData\Local\Temp\ccC9u2qc.s:1722   .rodata.str_to_debug_level.str1.4:0000000000000000 .LC20
C:\Users\stapi\AppData\Local\Temp\ccC9u2qc.s:1725   .rodata.str_to_debug_level.str1.4:000000000000000c .LC21
C:\Users\stapi\AppData\Local\Temp\ccC9u2qc.s:1728   .rodata.str_to_debug_level.str1.4:0000000000000014 .LC22
C:\Users\stapi\AppData\Local\Temp\ccC9u2qc.s:1731   .rodata.str_to_debug_level.str1.4:000000000000001c .LC23
C:\Users\stapi\AppData\Local\Temp\ccC9u2qc.s:1734   .rodata.str_to_debug_level.str1.4:0000000000000024 .LC24
C:\Users\stapi\AppData\Local\Temp\ccC9u2qc.s:1737   .rodata.str_to_debug_level.str1.4:000000000000002c .LC25
C:\Users\stapi\AppData\Local\Temp\ccC9u2qc.s:1821   .text.str_to_debug_level:000000000000008e .L120
C:\Users\stapi\AppData\Local\Temp\ccC9u2qc.s:6040   .debug_abbrev:0000000000000000 .Ldebug_abbrev0
C:\Users\stapi\AppData\Local\Temp\ccC9u2qc.s:9130   .debug_str:000000000000047a .LASF217
C:\Users\stapi\AppData\Local\Temp\ccC9u2qc.s:9074   .debug_str:00000000000002a0 .LASF218
C:\Users\stapi\AppData\Local\Temp\ccC9u2qc.s:9148   .debug_str:00000000000005cc .LASF219
C:\Users\stapi\AppData\Local\Temp\ccC9u2qc.s:8892   .debug_ranges:0000000000000000 .Ldebug_ranges0
C:\Users\stapi\AppData\Local\Temp\ccC9u2qc.s:8962   .debug_line:0000000000000000 .Ldebug_line0
C:\Users\stapi\AppData\Local\Temp\ccC9u2qc.s:8984   .debug_str:0000000000000097 .LASF1
C:\Users\stapi\AppData\Local\Temp\ccC9u2qc.s:9322   .debug_str:0000000000000a12 .LASF0
C:\Users\stapi\AppData\Local\Temp\ccC9u2qc.s:9226   .debug_str:00000000000007ef .LASF2
C:\Users\stapi\AppData\Local\Temp\ccC9u2qc.s:9032   .debug_str:00000000000001c0 .LASF3
C:\Users\stapi\AppData\Local\Temp\ccC9u2qc.s:8992   .debug_str:00000000000000c9 .LASF4
C:\Users\stapi\AppData\Local\Temp\ccC9u2qc.s:9246   .debug_str:0000000000000864 .LASF5
C:\Users\stapi\AppData\Local\Temp\ccC9u2qc.s:8966   .debug_str:0000000000000007 .LASF6
C:\Users\stapi\AppData\Local\Temp\ccC9u2qc.s:9348   .debug_str:0000000000000aae .LASF7
C:\Users\stapi\AppData\Local\Temp\ccC9u2qc.s:9050   .debug_str:000000000000020f .LASF8
C:\Users\stapi\AppData\Local\Temp\ccC9u2qc.s:9100   .debug_str:00000000000003c9 .LASF9
C:\Users\stapi\AppData\Local\Temp\ccC9u2qc.s:9134   .debug_str:000000000000057b .LASF10
C:\Users\stapi\AppData\Local\Temp\ccC9u2qc.s:9070   .debug_str:000000000000027e .LASF11
C:\Users\stapi\AppData\Local\Temp\ccC9u2qc.s:9012   .debug_str:0000000000000148 .LASF12
C:\Users\stapi\AppData\Local\Temp\ccC9u2qc.s:9028   .debug_str:00000000000001b2 .LASF13
C:\Users\stapi\AppData\Local\Temp\ccC9u2qc.s:9304   .debug_str:0000000000000993 .LASF14
C:\Users\stapi\AppData\Local\Temp\ccC9u2qc.s:9382   .debug_str:0000000000000b94 .LASF15
C:\Users\stapi\AppData\Local\Temp\ccC9u2qc.s:9168   .debug_str:00000000000006ba .LASF16
C:\Users\stapi\AppData\Local\Temp\ccC9u2qc.s:9126   .debug_str:0000000000000467 .LASF17
C:\Users\stapi\AppData\Local\Temp\ccC9u2qc.s:9188   .debug_str:0000000000000719 .LASF18
C:\Users\stapi\AppData\Local\Temp\ccC9u2qc.s:9296   .debug_str:0000000000000971 .LASF19
C:\Users\stapi\AppData\Local\Temp\ccC9u2qc.s:9236   .debug_str:0000000000000829 .LASF20
C:\Users\stapi\AppData\Local\Temp\ccC9u2qc.s:9060   .debug_str:0000000000000248 .LASF220
C:\Users\stapi\AppData\Local\Temp\ccC9u2qc.s:9354   .debug_str:0000000000000acd .LASF21
C:\Users\stapi\AppData\Local\Temp\ccC9u2qc.s:9240   .debug_str:0000000000000841 .LASF22
C:\Users\stapi\AppData\Local\Temp\ccC9u2qc.s:9254   .debug_str:00000000000008a3 .LASF23
C:\Users\stapi\AppData\Local\Temp\ccC9u2qc.s:9110   .debug_str:0000000000000402 .LASF28
C:\Users\stapi\AppData\Local\Temp\ccC9u2qc.s:9342   .debug_str:0000000000000a8d .LASF24
C:\Users\stapi\AppData\Local\Temp\ccC9u2qc.s:9286   .debug_str:0000000000000946 .LASF25
C:\Users\stapi\AppData\Local\Temp\ccC9u2qc.s:9338   .debug_str:0000000000000a73 .LASF26
C:\Users\stapi\AppData\Local\Temp\ccC9u2qc.s:9374   .debug_str:0000000000000b72 .LASF27
C:\Users\stapi\AppData\Local\Temp\ccC9u2qc.s:9120   .debug_str:000000000000044b .LASF29
C:\Users\stapi\AppData\Local\Temp\ccC9u2qc.s:9026   .debug_str:00000000000001a9 .LASF30
C:\Users\stapi\AppData\Local\Temp\ccC9u2qc.s:9400   .debug_str:0000000000000c02 .LASF31
C:\Users\stapi\AppData\Local\Temp\ccC9u2qc.s:9298   .debug_str:0000000000000979 .LASF32
C:\Users\stapi\AppData\Local\Temp\ccC9u2qc.s:9416   .debug_str:0000000000000c48 .LASF33
C:\Users\stapi\AppData\Local\Temp\ccC9u2qc.s:9212   .debug_str:000000000000079d .LASF34
C:\Users\stapi\AppData\Local\Temp\ccC9u2qc.s:9310   .debug_str:00000000000009c2 .LASF35
C:\Users\stapi\AppData\Local\Temp\ccC9u2qc.s:9302   .debug_str:0000000000000989 .LASF36
C:\Users\stapi\AppData\Local\Temp\ccC9u2qc.s:9256   .debug_str:00000000000008ac .LASF37
C:\Users\stapi\AppData\Local\Temp\ccC9u2qc.s:9396   .debug_str:0000000000000be8 .LASF38
C:\Users\stapi\AppData\Local\Temp\ccC9u2qc.s:9044   .debug_str:00000000000001f1 .LASF39
C:\Users\stapi\AppData\Local\Temp\ccC9u2qc.s:8982   .debug_str:000000000000008f .LASF40
C:\Users\stapi\AppData\Local\Temp\ccC9u2qc.s:9280   .debug_str:0000000000000917 .LASF41
C:\Users\stapi\AppData\Local\Temp\ccC9u2qc.s:9346   .debug_str:0000000000000aa5 .LASF42
C:\Users\stapi\AppData\Local\Temp\ccC9u2qc.s:9058   .debug_str:0000000000000240 .LASF43
C:\Users\stapi\AppData\Local\Temp\ccC9u2qc.s:9390   .debug_str:0000000000000bd2 .LASF44
C:\Users\stapi\AppData\Local\Temp\ccC9u2qc.s:9140   .debug_str:0000000000000598 .LASF45
C:\Users\stapi\AppData\Local\Temp\ccC9u2qc.s:9098   .debug_str:00000000000003c4 .LASF46
C:\Users\stapi\AppData\Local\Temp\ccC9u2qc.s:9258   .debug_str:00000000000008b6 .LASF47
C:\Users\stapi\AppData\Local\Temp\ccC9u2qc.s:9038   .debug_str:00000000000001d7 .LASF48
C:\Users\stapi\AppData\Local\Temp\ccC9u2qc.s:9320   .debug_str:0000000000000a0c .LASF49
C:\Users\stapi\AppData\Local\Temp\ccC9u2qc.s:9266   .debug_str:00000000000008db .LASF50
C:\Users\stapi\AppData\Local\Temp\ccC9u2qc.s:9056   .debug_str:0000000000000239 .LASF51
C:\Users\stapi\AppData\Local\Temp\ccC9u2qc.s:9136   .debug_str:000000000000058d .LASF52
C:\Users\stapi\AppData\Local\Temp\ccC9u2qc.s:9014   .debug_str:000000000000015f .LASF53
C:\Users\stapi\AppData\Local\Temp\ccC9u2qc.s:9046   .debug_str:00000000000001ff .LASF54
C:\Users\stapi\AppData\Local\Temp\ccC9u2qc.s:9114   .debug_str:000000000000041d .LASF55
C:\Users\stapi\AppData\Local\Temp\ccC9u2qc.s:9184   .debug_str:000000000000070b .LASF56
C:\Users\stapi\AppData\Local\Temp\ccC9u2qc.s:9300   .debug_str:0000000000000983 .LASF57
C:\Users\stapi\AppData\Local\Temp\ccC9u2qc.s:9030   .debug_str:00000000000001b9 .LASF58
C:\Users\stapi\AppData\Local\Temp\ccC9u2qc.s:9036   .debug_str:00000000000001d1 .LASF59
C:\Users\stapi\AppData\Local\Temp\ccC9u2qc.s:9392   .debug_str:0000000000000bda .LASF60
C:\Users\stapi\AppData\Local\Temp\ccC9u2qc.s:9316   .debug_str:00000000000009e1 .LASF61
C:\Users\stapi\AppData\Local\Temp\ccC9u2qc.s:9082   .debug_str:000000000000034e .LASF62
C:\Users\stapi\AppData\Local\Temp\ccC9u2qc.s:9144   .debug_str:00000000000005b4 .LASF63
C:\Users\stapi\AppData\Local\Temp\ccC9u2qc.s:9174   .debug_str:00000000000006dd .LASF64
C:\Users\stapi\AppData\Local\Temp\ccC9u2qc.s:9270   .debug_str:00000000000008ec .LASF65
C:\Users\stapi\AppData\Local\Temp\ccC9u2qc.s:9260   .debug_str:00000000000008bd .LASF66
C:\Users\stapi\AppData\Local\Temp\ccC9u2qc.s:9288   .debug_str:000000000000094e .LASF67
C:\Users\stapi\AppData\Local\Temp\ccC9u2qc.s:9164   .debug_str:00000000000006a9 .LASF68
C:\Users\stapi\AppData\Local\Temp\ccC9u2qc.s:9378   .debug_str:0000000000000b7d .LASF69
C:\Users\stapi\AppData\Local\Temp\ccC9u2qc.s:9332   .debug_str:0000000000000a54 .LASF70
C:\Users\stapi\AppData\Local\Temp\ccC9u2qc.s:9108   .debug_str:00000000000003fa .LASF71
C:\Users\stapi\AppData\Local\Temp\ccC9u2qc.s:9138   .debug_str:0000000000000593 .LASF72
C:\Users\stapi\AppData\Local\Temp\ccC9u2qc.s:8990   .debug_str:00000000000000be .LASF73
C:\Users\stapi\AppData\Local\Temp\ccC9u2qc.s:9284   .debug_str:000000000000092d .LASF74
C:\Users\stapi\AppData\Local\Temp\ccC9u2qc.s:9076   .debug_str:000000000000032f .LASF75
C:\Users\stapi\AppData\Local\Temp\ccC9u2qc.s:9218   .debug_str:00000000000007bd .LASF76
C:\Users\stapi\AppData\Local\Temp\ccC9u2qc.s:9282   .debug_str:0000000000000923 .LASF77
C:\Users\stapi\AppData\Local\Temp\ccC9u2qc.s:9178   .debug_str:00000000000006e9 .LASF78
C:\Users\stapi\AppData\Local\Temp\ccC9u2qc.s:9066   .debug_str:000000000000026c .LASF79
C:\Users\stapi\AppData\Local\Temp\ccC9u2qc.s:9406   .debug_str:0000000000000c18 .LASF80
C:\Users\stapi\AppData\Local\Temp\ccC9u2qc.s:9232   .debug_str:000000000000080f .LASF81
C:\Users\stapi\AppData\Local\Temp\ccC9u2qc.s:9132   .debug_str:0000000000000573 .LASF82
C:\Users\stapi\AppData\Local\Temp\ccC9u2qc.s:9080   .debug_str:0000000000000346 .LASF83
C:\Users\stapi\AppData\Local\Temp\ccC9u2qc.s:9170   .debug_str:00000000000006c0 .LASF84
C:\Users\stapi\AppData\Local\Temp\ccC9u2qc.s:9002   .debug_str:0000000000000110 .LASF85
C:\Users\stapi\AppData\Local\Temp\ccC9u2qc.s:9388   .debug_str:0000000000000bc8 .LASF86
C:\Users\stapi\AppData\Local\Temp\ccC9u2qc.s:9048   .debug_str:0000000000000207 .LASF87
C:\Users\stapi\AppData\Local\Temp\ccC9u2qc.s:9042   .debug_str:00000000000001ec .LASF88
C:\Users\stapi\AppData\Local\Temp\ccC9u2qc.s:9314   .debug_str:00000000000009dc .LASF89
C:\Users\stapi\AppData\Local\Temp\ccC9u2qc.s:9262   .debug_str:00000000000008c5 .LASF90
C:\Users\stapi\AppData\Local\Temp\ccC9u2qc.s:9376   .debug_str:0000000000000b77 .LASF91
C:\Users\stapi\AppData\Local\Temp\ccC9u2qc.s:9352   .debug_str:0000000000000ac6 .LASF92
C:\Users\stapi\AppData\Local\Temp\ccC9u2qc.s:9248   .debug_str:0000000000000872 .LASF93
C:\Users\stapi\AppData\Local\Temp\ccC9u2qc.s:9290   .debug_str:0000000000000955 .LASF94
C:\Users\stapi\AppData\Local\Temp\ccC9u2qc.s:9292   .debug_str:000000000000095d .LASF95
C:\Users\stapi\AppData\Local\Temp\ccC9u2qc.s:9176   .debug_str:00000000000006e3 .LASF96
C:\Users\stapi\AppData\Local\Temp\ccC9u2qc.s:9350   .debug_str:0000000000000ac1 .LASF97
C:\Users\stapi\AppData\Local\Temp\ccC9u2qc.s:9364   .debug_str:0000000000000b15 .LASF98
C:\Users\stapi\AppData\Local\Temp\ccC9u2qc.s:9086   .debug_str:0000000000000365 .LASF99
C:\Users\stapi\AppData\Local\Temp\ccC9u2qc.s:9162   .debug_str:000000000000069c .LASF100
C:\Users\stapi\AppData\Local\Temp\ccC9u2qc.s:9398   .debug_str:0000000000000bf3 .LASF101
C:\Users\stapi\AppData\Local\Temp\ccC9u2qc.s:9220   .debug_str:00000000000007c8 .LASF102
C:\Users\stapi\AppData\Local\Temp\ccC9u2qc.s:9156   .debug_str:0000000000000676 .LASF103
C:\Users\stapi\AppData\Local\Temp\ccC9u2qc.s:9402   .debug_str:0000000000000c0b .LASF104
C:\Users\stapi\AppData\Local\Temp\ccC9u2qc.s:9274   .debug_str:00000000000008fe .LASF105
C:\Users\stapi\AppData\Local\Temp\ccC9u2qc.s:8972   .debug_str:0000000000000038 .LASF106
C:\Users\stapi\AppData\Local\Temp\ccC9u2qc.s:9024   .debug_str:000000000000019b .LASF107
C:\Users\stapi\AppData\Local\Temp\ccC9u2qc.s:9384   .debug_str:0000000000000b9d .LASF108
C:\Users\stapi\AppData\Local\Temp\ccC9u2qc.s:9160   .debug_str:0000000000000690 .LASF109
C:\Users\stapi\AppData\Local\Temp\ccC9u2qc.s:9356   .debug_str:0000000000000ad5 .LASF110
C:\Users\stapi\AppData\Local\Temp\ccC9u2qc.s:9088   .debug_str:0000000000000372 .LASF111
C:\Users\stapi\AppData\Local\Temp\ccC9u2qc.s:9020   .debug_str:0000000000000180 .LASF112
C:\Users\stapi\AppData\Local\Temp\ccC9u2qc.s:9090   .debug_str:0000000000000380 .LASF113
C:\Users\stapi\AppData\Local\Temp\ccC9u2qc.s:9008   .debug_str:0000000000000128 .LASF114
C:\Users\stapi\AppData\Local\Temp\ccC9u2qc.s:9010   .debug_str:0000000000000137 .LASF115
C:\Users\stapi\AppData\Local\Temp\ccC9u2qc.s:9252   .debug_str:000000000000089a .LASF116
C:\Users\stapi\AppData\Local\Temp\ccC9u2qc.s:9202   .debug_str:000000000000076f .LASF117
C:\Users\stapi\AppData\Local\Temp\ccC9u2qc.s:9192   .debug_str:000000000000072a .LASF118
C:\Users\stapi\AppData\Local\Temp\ccC9u2qc.s:9394   .debug_str:0000000000000be0 .LASF119
C:\Users\stapi\AppData\Local\Temp\ccC9u2qc.s:9016   .debug_str:0000000000000168 .LASF221
C:\Users\stapi\AppData\Local\Temp\ccC9u2qc.s:9106   .debug_str:00000000000003ee .LASF125
C:\Users\stapi\AppData\Local\Temp\ccC9u2qc.s:9200   .debug_str:0000000000000760 .LASF120
C:\Users\stapi\AppData\Local\Temp\ccC9u2qc.s:9336   .debug_str:0000000000000a6b .LASF121
C:\Users\stapi\AppData\Local\Temp\ccC9u2qc.s:9362   .debug_str:0000000000000b0c .LASF122
C:\Users\stapi\AppData\Local\Temp\ccC9u2qc.s:9276   .debug_str:000000000000090b .LASF123
C:\Users\stapi\AppData\Local\Temp\ccC9u2qc.s:8998   .debug_str:00000000000000ed .LASF124
C:\Users\stapi\AppData\Local\Temp\ccC9u2qc.s:9330   .debug_str:0000000000000a4c .LASF126
C:\Users\stapi\AppData\Local\Temp\ccC9u2qc.s:9244   .debug_str:000000000000085e .LASF127
C:\Users\stapi\AppData\Local\Temp\ccC9u2qc.s:9052   .debug_str:0000000000000218 .LASF128
C:\Users\stapi\AppData\Local\Temp\ccC9u2qc.s:8974   .debug_str:0000000000000046 .LASF129
C:\Users\stapi\AppData\Local\Temp\ccC9u2qc.s:9150   .debug_str:000000000000065e .LASF130
C:\Users\stapi\AppData\Local\Temp\ccC9u2qc.s:9326   .debug_str:0000000000000a2b .LASF131
C:\Users\stapi\AppData\Local\Temp\ccC9u2qc.s:9018   .debug_str:0000000000000173 .LASF132
C:\Users\stapi\AppData\Local\Temp\ccC9u2qc.s:9078   .debug_str:0000000000000337 .LASF133
C:\Users\stapi\AppData\Local\Temp\ccC9u2qc.s:9122   .debug_str:0000000000000450 .LASF134
C:\Users\stapi\AppData\Local\Temp\ccC9u2qc.s:9084   .debug_str:0000000000000356 .LASF135
C:\Users\stapi\AppData\Local\Temp\ccC9u2qc.s:9324   .debug_str:0000000000000a1f .LASF136
C:\Users\stapi\AppData\Local\Temp\ccC9u2qc.s:9328   .debug_str:0000000000000a3f .LASF137
C:\Users\stapi\AppData\Local\Temp\ccC9u2qc.s:9308   .debug_str:00000000000009af .LASF138
C:\Users\stapi\AppData\Local\Temp\ccC9u2qc.s:9418   .debug_str:0000000000000c52 .LASF139
C:\Users\stapi\AppData\Local\Temp\ccC9u2qc.s:9094   .debug_str:00000000000003a2 .LASF140
C:\Users\stapi\AppData\Local\Temp\ccC9u2qc.s:8976   .debug_str:0000000000000053 .LASF141
C:\Users\stapi\AppData\Local\Temp\ccC9u2qc.s:8988   .debug_str:00000000000000b3 .LASF142
C:\Users\stapi\AppData\Local\Temp\ccC9u2qc.s:9414   .debug_str:0000000000000c3e .LASF143
C:\Users\stapi\AppData\Local\Temp\ccC9u2qc.s:9334   .debug_str:0000000000000a5c .LASF144
C:\Users\stapi\AppData\Local\Temp\ccC9u2qc.s:9190   .debug_str:0000000000000721 .LASF145
C:\Users\stapi\AppData\Local\Temp\ccC9u2qc.s:9366   .debug_str:0000000000000b22 .LASF162
C:\Users\stapi\AppData\Local\Temp\ccC9u2qc.s:9318   .debug_str:00000000000009ea .LASF146
C:\Users\stapi\AppData\Local\Temp\ccC9u2qc.s:9250   .debug_str:0000000000000878 .LASF147
C:\Users\stapi\AppData\Local\Temp\ccC9u2qc.s:9386   .debug_str:0000000000000ba7 .LASF148
C:\Users\stapi\AppData\Local\Temp\ccC9u2qc.s:9166   .debug_str:00000000000006b0 .LASF149
C:\Users\stapi\AppData\Local\Temp\ccC9u2qc.s:9182   .debug_str:0000000000000703 .LASF150
C:\Users\stapi\AppData\Local\Temp\ccC9u2qc.s:9230   .debug_str:000000000000080a .LASF151
C:\Users\stapi\AppData\Local\Temp\ccC9u2qc.s:9380   .debug_str:0000000000000b84 .LASF152
C:\Users\stapi\AppData\Local\Temp\ccC9u2qc.s:9194   .debug_str:0000000000000733 .LASF153
C:\Users\stapi\AppData\Local\Temp\ccC9u2qc.s:9340   .debug_str:0000000000000a79 .LASF154
C:\Users\stapi\AppData\Local\Temp\ccC9u2qc.s:9092   .debug_str:0000000000000391 .LASF155
C:\Users\stapi\AppData\Local\Temp\ccC9u2qc.s:9294   .debug_str:0000000000000963 .LASF156
C:\Users\stapi\AppData\Local\Temp\ccC9u2qc.s:9412   .debug_str:0000000000000c32 .LASF157
C:\Users\stapi\AppData\Local\Temp\ccC9u2qc.s:9204   .debug_str:0000000000000776 .LASF158
C:\Users\stapi\AppData\Local\Temp\ccC9u2qc.s:9408   .debug_str:0000000000000c1d .LASF159
C:\Users\stapi\AppData\Local\Temp\ccC9u2qc.s:9022   .debug_str:000000000000018f .LASF160
C:\Users\stapi\AppData\Local\Temp\ccC9u2qc.s:9004   .debug_str:0000000000000119 .LASF161
C:\Users\stapi\AppData\Local\Temp\ccC9u2qc.s:9064   .debug_str:000000000000025f .LASF163
C:\Users\stapi\AppData\Local\Temp\ccC9u2qc.s:8980   .debug_str:0000000000000079 .LASF164
C:\Users\stapi\AppData\Local\Temp\ccC9u2qc.s:9264   .debug_str:00000000000008cc .LASF165
C:\Users\stapi\AppData\Local\Temp\ccC9u2qc.s:9214   .debug_str:00000000000007a6 .LASF166
C:\Users\stapi\AppData\Local\Temp\ccC9u2qc.s:8968   .debug_str:0000000000000011 .LASF167
C:\Users\stapi\AppData\Local\Temp\ccC9u2qc.s:9312   .debug_str:00000000000009cc .LASF168
C:\Users\stapi\AppData\Local\Temp\ccC9u2qc.s:9172   .debug_str:00000000000006c5 .LASF169
C:\Users\stapi\AppData\Local\Temp\ccC9u2qc.s:9268   .debug_str:00000000000008e3 .LASF197
C:\Users\stapi\AppData\Local\Temp\ccC9u2qc.s:9242   .debug_str:0000000000000853 .LASF170
C:\Users\stapi\AppData\Local\Temp\ccC9u2qc.s:9116   .debug_str:0000000000000423 .LASF171
C:\Users\stapi\AppData\Local\Temp\ccC9u2qc.s:9072   .debug_str:000000000000028c .LASF191
C:\Users\stapi\AppData\Local\Temp\ccC9u2qc.s:1858   .text.wpa_debug_level_get:0000000000000000 .LFB94
C:\Users\stapi\AppData\Local\Temp\ccC9u2qc.s:1867   .text.wpa_debug_level_get:000000000000000a .LFE94
C:\Users\stapi\AppData\Local\Temp\ccC9u2qc.s:8996   .debug_str:00000000000000d9 .LASF175
C:\Users\stapi\AppData\Local\Temp\ccC9u2qc.s:1836   .text.wpa_debug_level_set:0000000000000000 .LFB93
C:\Users\stapi\AppData\Local\Temp\ccC9u2qc.s:1851   .text.wpa_debug_level_set:0000000000000010 .LFE93
C:\Users\stapi\AppData\Local\Temp\ccC9u2qc.s:9152   .debug_str:000000000000066b .LASF172
C:\Users\stapi\AppData\Local\Temp\ccC9u2qc.s:7353   .debug_loc:0000000000000000 .LLST83
C:\Users\stapi\AppData\Local\Temp\ccC9u2qc.s:8970   .debug_str:0000000000000025 .LASF173
C:\Users\stapi\AppData\Local\Temp\ccC9u2qc.s:1744   .text.str_to_debug_level:0000000000000000 .LFB92
C:\Users\stapi\AppData\Local\Temp\ccC9u2qc.s:1829   .text.str_to_debug_level:0000000000000098 .LFE92
C:\Users\stapi\AppData\Local\Temp\ccC9u2qc.s:7367   .debug_loc:0000000000000021 .LLST82
C:\Users\stapi\AppData\Local\Temp\ccC9u2qc.s:1760   .text.str_to_debug_level:000000000000001a .LVL180
C:\Users\stapi\AppData\Local\Temp\ccC9u2qc.s:1770   .text.str_to_debug_level:0000000000000030 .LVL181
C:\Users\stapi\AppData\Local\Temp\ccC9u2qc.s:1781   .text.str_to_debug_level:0000000000000046 .LVL182
C:\Users\stapi\AppData\Local\Temp\ccC9u2qc.s:1792   .text.str_to_debug_level:000000000000005c .LVL183
C:\Users\stapi\AppData\Local\Temp\ccC9u2qc.s:1803   .text.str_to_debug_level:0000000000000072 .LVL184
C:\Users\stapi\AppData\Local\Temp\ccC9u2qc.s:1814   .text.str_to_debug_level:0000000000000088 .LVL185
C:\Users\stapi\AppData\Local\Temp\ccC9u2qc.s:9234   .debug_str:0000000000000819 .LASF174
C:\Users\stapi\AppData\Local\Temp\ccC9u2qc.s:1696   .text.debug_level_str:0000000000000000 .LFB91
C:\Users\stapi\AppData\Local\Temp\ccC9u2qc.s:1718   .text.debug_level_str:0000000000000020 .LFE91
C:\Users\stapi\AppData\Local\Temp\ccC9u2qc.s:7378   .debug_loc:000000000000003f .LLST81
C:\Users\stapi\AppData\Local\Temp\ccC9u2qc.s:9228   .debug_str:00000000000007f6 .LASF176
C:\Users\stapi\AppData\Local\Temp\ccC9u2qc.s:1539   .text.wpa_msg_global_only:0000000000000000 .LFB90
C:\Users\stapi\AppData\Local\Temp\ccC9u2qc.s:1685   .text.wpa_msg_global_only:00000000000000ba .LFE90
C:\Users\stapi\AppData\Local\Temp\ccC9u2qc.s:7403   .debug_loc:0000000000000079 .LLST75
C:\Users\stapi\AppData\Local\Temp\ccC9u2qc.s:7425   .debug_loc:00000000000000b0 .LLST76
C:\Users\stapi\AppData\Local\Temp\ccC9u2qc.s:7447   .debug_loc:00000000000000e7 .LLST77
C:\Users\stapi\AppData\Local\Temp\ccC9u2qc.s:7473   .debug_loc:0000000000000129 .LLST78
C:\Users\stapi\AppData\Local\Temp\ccC9u2qc.s:9278   .debug_str:0000000000000910 .LASF177
C:\Users\stapi\AppData\Local\Temp\ccC9u2qc.s:7488   .debug_loc:0000000000000152 .LLST79
C:\Users\stapi\AppData\Local\Temp\ccC9u2qc.s:7505   .debug_loc:000000000000017f .LLST80
C:\Users\stapi\AppData\Local\Temp\ccC9u2qc.s:9272   .debug_str:00000000000008f5 .LASF222
C:\Users\stapi\AppData\Local\Temp\ccC9u2qc.s:1590   .text.wpa_msg_global_only:0000000000000032 .LVL160
C:\Users\stapi\AppData\Local\Temp\ccC9u2qc.s:1600   .text.wpa_msg_global_only:0000000000000042 .LVL162
C:\Users\stapi\AppData\Local\Temp\ccC9u2qc.s:1613   .text.wpa_msg_global_only:0000000000000060 .LVL164
C:\Users\stapi\AppData\Local\Temp\ccC9u2qc.s:1650   .text.wpa_msg_global_only:0000000000000082 .LVL169
C:\Users\stapi\AppData\Local\Temp\ccC9u2qc.s:1663   .text.wpa_msg_global_only:0000000000000098 .LVL172
C:\Users\stapi\AppData\Local\Temp\ccC9u2qc.s:1677   .text.wpa_msg_global_only:00000000000000ae .LVL173
C:\Users\stapi\AppData\Local\Temp\ccC9u2qc.s:1682   .text.wpa_msg_global_only:00000000000000b8 .LVL174
C:\Users\stapi\AppData\Local\Temp\ccC9u2qc.s:9180   .debug_str:00000000000006f1 .LASF178
C:\Users\stapi\AppData\Local\Temp\ccC9u2qc.s:1379   .text.wpa_msg_no_global:0000000000000000 .LFB89
C:\Users\stapi\AppData\Local\Temp\ccC9u2qc.s:1528   .text.wpa_msg_no_global:00000000000000b6 .LFE89
C:\Users\stapi\AppData\Local\Temp\ccC9u2qc.s:7517   .debug_loc:000000000000019f .LLST69
C:\Users\stapi\AppData\Local\Temp\ccC9u2qc.s:7539   .debug_loc:00000000000001d6 .LLST70
C:\Users\stapi\AppData\Local\Temp\ccC9u2qc.s:7561   .debug_loc:000000000000020d .LLST71
C:\Users\stapi\AppData\Local\Temp\ccC9u2qc.s:7587   .debug_loc:000000000000024f .LLST72
C:\Users\stapi\AppData\Local\Temp\ccC9u2qc.s:7602   .debug_loc:0000000000000278 .LLST73
C:\Users\stapi\AppData\Local\Temp\ccC9u2qc.s:7613   .debug_loc:0000000000000296 .LLST74
C:\Users\stapi\AppData\Local\Temp\ccC9u2qc.s:1432   .text.wpa_msg_no_global:0000000000000034 .LVL140
C:\Users\stapi\AppData\Local\Temp\ccC9u2qc.s:1441   .text.wpa_msg_no_global:0000000000000042 .LVL142
C:\Users\stapi\AppData\Local\Temp\ccC9u2qc.s:1451   .text.wpa_msg_no_global:0000000000000056 .LVL144
C:\Users\stapi\AppData\Local\Temp\ccC9u2qc.s:1492   .text.wpa_msg_no_global:000000000000007c .LVL150
C:\Users\stapi\AppData\Local\Temp\ccC9u2qc.s:1505   .text.wpa_msg_no_global:0000000000000092 .LVL153
C:\Users\stapi\AppData\Local\Temp\ccC9u2qc.s:1519   .text.wpa_msg_no_global:00000000000000a8 .LVL154
C:\Users\stapi\AppData\Local\Temp\ccC9u2qc.s:1525   .text.wpa_msg_no_global:00000000000000b4 .LVL155
C:\Users\stapi\AppData\Local\Temp\ccC9u2qc.s:9306   .debug_str:000000000000099b .LASF179
C:\Users\stapi\AppData\Local\Temp\ccC9u2qc.s:1227   .text.wpa_msg_global_ctrl:0000000000000000 .LFB88
C:\Users\stapi\AppData\Local\Temp\ccC9u2qc.s:1368   .text.wpa_msg_global_ctrl:00000000000000ac .LFE88
C:\Users\stapi\AppData\Local\Temp\ccC9u2qc.s:7625   .debug_loc:00000000000002b6 .LLST63
C:\Users\stapi\AppData\Local\Temp\ccC9u2qc.s:7647   .debug_loc:00000000000002ed .LLST64
C:\Users\stapi\AppData\Local\Temp\ccC9u2qc.s:7669   .debug_loc:0000000000000324 .LLST65
C:\Users\stapi\AppData\Local\Temp\ccC9u2qc.s:7695   .debug_loc:0000000000000366 .LLST66
C:\Users\stapi\AppData\Local\Temp\ccC9u2qc.s:7706   .debug_loc:0000000000000384 .LLST67
C:\Users\stapi\AppData\Local\Temp\ccC9u2qc.s:7717   .debug_loc:00000000000003a2 .LLST68
C:\Users\stapi\AppData\Local\Temp\ccC9u2qc.s:1289   .text.wpa_msg_global_ctrl:0000000000000044 .LVL125
C:\Users\stapi\AppData\Local\Temp\ccC9u2qc.s:1298   .text.wpa_msg_global_ctrl:0000000000000052 .LVL127
C:\Users\stapi\AppData\Local\Temp\ccC9u2qc.s:1309   .text.wpa_msg_global_ctrl:0000000000000068 .LVL129
C:\Users\stapi\AppData\Local\Temp\ccC9u2qc.s:1346   .text.wpa_msg_global_ctrl:000000000000008e .LVL131
C:\Users\stapi\AppData\Local\Temp\ccC9u2qc.s:1360   .text.wpa_msg_global_ctrl:000000000000009e .LVL134
C:\Users\stapi\AppData\Local\Temp\ccC9u2qc.s:1365   .text.wpa_msg_global_ctrl:00000000000000aa .LVL135
C:\Users\stapi\AppData\Local\Temp\ccC9u2qc.s:9158   .debug_str:0000000000000681 .LASF180
C:\Users\stapi\AppData\Local\Temp\ccC9u2qc.s:1067   .text.wpa_msg_global:0000000000000000 .LFB87
C:\Users\stapi\AppData\Local\Temp\ccC9u2qc.s:1216   .text.wpa_msg_global:00000000000000b6 .LFE87
C:\Users\stapi\AppData\Local\Temp\ccC9u2qc.s:7728   .debug_loc:00000000000003c0 .LLST57
C:\Users\stapi\AppData\Local\Temp\ccC9u2qc.s:7750   .debug_loc:00000000000003f7 .LLST58
C:\Users\stapi\AppData\Local\Temp\ccC9u2qc.s:7772   .debug_loc:000000000000042e .LLST59
C:\Users\stapi\AppData\Local\Temp\ccC9u2qc.s:7798   .debug_loc:0000000000000470 .LLST60
C:\Users\stapi\AppData\Local\Temp\ccC9u2qc.s:7813   .debug_loc:0000000000000499 .LLST61
C:\Users\stapi\AppData\Local\Temp\ccC9u2qc.s:7824   .debug_loc:00000000000004b7 .LLST62
C:\Users\stapi\AppData\Local\Temp\ccC9u2qc.s:1120   .text.wpa_msg_global:0000000000000034 .LVL105
C:\Users\stapi\AppData\Local\Temp\ccC9u2qc.s:1129   .text.wpa_msg_global:0000000000000042 .LVL107
C:\Users\stapi\AppData\Local\Temp\ccC9u2qc.s:1139   .text.wpa_msg_global:0000000000000056 .LVL109
C:\Users\stapi\AppData\Local\Temp\ccC9u2qc.s:1180   .text.wpa_msg_global:000000000000007c .LVL115
C:\Users\stapi\AppData\Local\Temp\ccC9u2qc.s:1193   .text.wpa_msg_global:0000000000000092 .LVL118
C:\Users\stapi\AppData\Local\Temp\ccC9u2qc.s:1207   .text.wpa_msg_global:00000000000000a8 .LVL119
C:\Users\stapi\AppData\Local\Temp\ccC9u2qc.s:1213   .text.wpa_msg_global:00000000000000b4 .LVL120
C:\Users\stapi\AppData\Local\Temp\ccC9u2qc.s:9198   .debug_str:0000000000000753 .LASF181
C:\Users\stapi\AppData\Local\Temp\ccC9u2qc.s:912    .text.wpa_msg_ctrl:0000000000000000 .LFB86
C:\Users\stapi\AppData\Local\Temp\ccC9u2qc.s:1053   .text.wpa_msg_ctrl:00000000000000ac .LFE86
C:\Users\stapi\AppData\Local\Temp\ccC9u2qc.s:7836   .debug_loc:00000000000004d7 .LLST51
C:\Users\stapi\AppData\Local\Temp\ccC9u2qc.s:7858   .debug_loc:000000000000050e .LLST52
C:\Users\stapi\AppData\Local\Temp\ccC9u2qc.s:7880   .debug_loc:0000000000000545 .LLST53
C:\Users\stapi\AppData\Local\Temp\ccC9u2qc.s:7906   .debug_loc:0000000000000587 .LLST54
C:\Users\stapi\AppData\Local\Temp\ccC9u2qc.s:7917   .debug_loc:00000000000005a5 .LLST55
C:\Users\stapi\AppData\Local\Temp\ccC9u2qc.s:7928   .debug_loc:00000000000005c3 .LLST56
C:\Users\stapi\AppData\Local\Temp\ccC9u2qc.s:974    .text.wpa_msg_ctrl:0000000000000044 .LVL90
C:\Users\stapi\AppData\Local\Temp\ccC9u2qc.s:983    .text.wpa_msg_ctrl:0000000000000052 .LVL92
C:\Users\stapi\AppData\Local\Temp\ccC9u2qc.s:994    .text.wpa_msg_ctrl:0000000000000068 .LVL94
C:\Users\stapi\AppData\Local\Temp\ccC9u2qc.s:1031   .text.wpa_msg_ctrl:000000000000008e .LVL96
C:\Users\stapi\AppData\Local\Temp\ccC9u2qc.s:1045   .text.wpa_msg_ctrl:000000000000009e .LVL99
C:\Users\stapi\AppData\Local\Temp\ccC9u2qc.s:1050   .text.wpa_msg_ctrl:00000000000000aa .LVL100
C:\Users\stapi\AppData\Local\Temp\ccC9u2qc.s:9210   .debug_str:0000000000000795 .LASF182
C:\Users\stapi\AppData\Local\Temp\ccC9u2qc.s:702    .text.wpa_msg:0000000000000000 .LFB85
C:\Users\stapi\AppData\Local\Temp\ccC9u2qc.s:901    .text.wpa_msg:00000000000000f2 .LFE85
C:\Users\stapi\AppData\Local\Temp\ccC9u2qc.s:7939   .debug_loc:00000000000005e1 .LLST41
C:\Users\stapi\AppData\Local\Temp\ccC9u2qc.s:7961   .debug_loc:0000000000000618 .LLST42
C:\Users\stapi\AppData\Local\Temp\ccC9u2qc.s:7983   .debug_loc:000000000000064f .LLST43
C:\Users\stapi\AppData\Local\Temp\ccC9u2qc.s:8009   .debug_loc:0000000000000691 .LLST44
C:\Users\stapi\AppData\Local\Temp\ccC9u2qc.s:8024   .debug_loc:00000000000006ba .LLST45
C:\Users\stapi\AppData\Local\Temp\ccC9u2qc.s:8035   .debug_loc:00000000000006d8 .LLST46
C:\Users\stapi\AppData\Local\Temp\ccC9u2qc.s:9186   .debug_str:0000000000000712 .LASF183
C:\Users\stapi\AppData\Local\Temp\ccC9u2qc.s:817    .text.wpa_msg:000000000000007a .LBB24
C:\Users\stapi\AppData\Local\Temp\ccC9u2qc.s:855    .text.wpa_msg:00000000000000a4 .LBE24
C:\Users\stapi\AppData\Local\Temp\ccC9u2qc.s:9368   .debug_str:0000000000000b48 .LASF184
C:\Users\stapi\AppData\Local\Temp\ccC9u2qc.s:8047   .debug_loc:00000000000006f8 .LLST47
C:\Users\stapi\AppData\Local\Temp\ccC9u2qc.s:828    .text.wpa_msg:0000000000000082 .LBB25
C:\Users\stapi\AppData\Local\Temp\ccC9u2qc.s:854    .text.wpa_msg:00000000000000a4 .LBE25
C:\Users\stapi\AppData\Local\Temp\ccC9u2qc.s:8058   .debug_loc:0000000000000716 .LLST48
C:\Users\stapi\AppData\Local\Temp\ccC9u2qc.s:839    .text.wpa_msg:0000000000000098 .LBB26
C:\Users\stapi\AppData\Local\Temp\ccC9u2qc.s:848    .text.wpa_msg:00000000000000a0 .LBE26
C:\Users\stapi\AppData\Local\Temp\ccC9u2qc.s:8065   .debug_loc:0000000000000729 .LLST49
C:\Users\stapi\AppData\Local\Temp\ccC9u2qc.s:8072   .debug_loc:000000000000073c .LLST50
C:\Users\stapi\AppData\Local\Temp\ccC9u2qc.s:837    .text.wpa_msg:0000000000000098 .LVL77
C:\Users\stapi\AppData\Local\Temp\ccC9u2qc.s:822    .text.wpa_msg:000000000000007e .LVL74
C:\Users\stapi\AppData\Local\Temp\ccC9u2qc.s:756    .text.wpa_msg:0000000000000034 .LVL63
C:\Users\stapi\AppData\Local\Temp\ccC9u2qc.s:765    .text.wpa_msg:0000000000000042 .LVL65
C:\Users\stapi\AppData\Local\Temp\ccC9u2qc.s:775    .text.wpa_msg:0000000000000056 .LVL67
C:\Users\stapi\AppData\Local\Temp\ccC9u2qc.s:864    .text.wpa_msg:00000000000000b6 .LVL80
C:\Users\stapi\AppData\Local\Temp\ccC9u2qc.s:878    .text.wpa_msg:00000000000000ce .LVL83
C:\Users\stapi\AppData\Local\Temp\ccC9u2qc.s:892    .text.wpa_msg:00000000000000e4 .LVL84
C:\Users\stapi\AppData\Local\Temp\ccC9u2qc.s:898    .text.wpa_msg:00000000000000f0 .LVL85
C:\Users\stapi\AppData\Local\Temp\ccC9u2qc.s:9000   .debug_str:00000000000000f5 .LASF185
C:\Users\stapi\AppData\Local\Temp\ccC9u2qc.s:674    .text.wpa_msg_register_ifname_cb:0000000000000000 .LFB84
C:\Users\stapi\AppData\Local\Temp\ccC9u2qc.s:685    .text.wpa_msg_register_ifname_cb:000000000000000a .LFE84
C:\Users\stapi\AppData\Local\Temp\ccC9u2qc.s:9062   .debug_str:000000000000025a .LASF186
C:\Users\stapi\AppData\Local\Temp\ccC9u2qc.s:9054   .debug_str:0000000000000225 .LASF187
C:\Users\stapi\AppData\Local\Temp\ccC9u2qc.s:656    .text.wpa_msg_register_cb:0000000000000000 .LFB83
C:\Users\stapi\AppData\Local\Temp\ccC9u2qc.s:667    .text.wpa_msg_register_cb:000000000000000a .LFE83
C:\Users\stapi\AppData\Local\Temp\ccC9u2qc.s:9142   .debug_str:000000000000059d .LASF188
C:\Users\stapi\AppData\Local\Temp\ccC9u2qc.s:634    .text.wpa_debug_setup_stdout:0000000000000000 .LFB82
C:\Users\stapi\AppData\Local\Temp\ccC9u2qc.s:649    .text.wpa_debug_setup_stdout:0000000000000018 .LFE82
C:\Users\stapi\AppData\Local\Temp\ccC9u2qc.s:647    .text.wpa_debug_setup_stdout:0000000000000018 .LVL56
C:\Users\stapi\AppData\Local\Temp\ccC9u2qc.s:8978   .debug_str:0000000000000064 .LASF223
C:\Users\stapi\AppData\Local\Temp\ccC9u2qc.s:621    .text.wpa_debug_close_file:0000000000000000 .LFB81
C:\Users\stapi\AppData\Local\Temp\ccC9u2qc.s:627    .text.wpa_debug_close_file:0000000000000002 .LFE81
C:\Users\stapi\AppData\Local\Temp\ccC9u2qc.s:9360   .debug_str:0000000000000af8 .LASF189
C:\Users\stapi\AppData\Local\Temp\ccC9u2qc.s:603    .text.wpa_debug_open_file:0000000000000000 .LFB80
C:\Users\stapi\AppData\Local\Temp\ccC9u2qc.s:614    .text.wpa_debug_open_file:0000000000000004 .LFE80
C:\Users\stapi\AppData\Local\Temp\ccC9u2qc.s:9006   .debug_str:0000000000000123 .LASF190
C:\Users\stapi\AppData\Local\Temp\ccC9u2qc.s:8081   .debug_loc:0000000000000751 .LLST40
C:\Users\stapi\AppData\Local\Temp\ccC9u2qc.s:9118   .debug_str:0000000000000435 .LASF192
C:\Users\stapi\AppData\Local\Temp\ccC9u2qc.s:588    .text.wpa_debug_reopen_file:0000000000000000 .LFB79
C:\Users\stapi\AppData\Local\Temp\ccC9u2qc.s:596    .text.wpa_debug_reopen_file:0000000000000004 .LFE79
C:\Users\stapi\AppData\Local\Temp\ccC9u2qc.s:9358   .debug_str:0000000000000ae2 .LASF193
C:\Users\stapi\AppData\Local\Temp\ccC9u2qc.s:571    .text.wpa_hexdump_ascii_key:0000000000000000 .LFB78
C:\Users\stapi\AppData\Local\Temp\ccC9u2qc.s:581    .text.wpa_hexdump_ascii_key:0000000000000010 .LFE78
C:\Users\stapi\AppData\Local\Temp\ccC9u2qc.s:8095   .debug_loc:0000000000000772 .LLST36
C:\Users\stapi\AppData\Local\Temp\ccC9u2qc.s:8994   .debug_str:00000000000000d3 .LASF194
C:\Users\stapi\AppData\Local\Temp\ccC9u2qc.s:8109   .debug_loc:0000000000000793 .LLST37
C:\Users\stapi\AppData\Local\Temp\ccC9u2qc.s:8123   .debug_loc:00000000000007b4 .LLST38
C:\Users\stapi\AppData\Local\Temp\ccC9u2qc.s:8137   .debug_loc:00000000000007d5 .LLST39
C:\Users\stapi\AppData\Local\Temp\ccC9u2qc.s:579    .text.wpa_hexdump_ascii_key:0000000000000010 .LVL53
C:\Users\stapi\AppData\Local\Temp\ccC9u2qc.s:9096   .debug_str:00000000000003b2 .LASF195
C:\Users\stapi\AppData\Local\Temp\ccC9u2qc.s:555    .text.wpa_hexdump_ascii:0000000000000000 .LFB77
C:\Users\stapi\AppData\Local\Temp\ccC9u2qc.s:564    .text.wpa_hexdump_ascii:000000000000000a .LFE77
C:\Users\stapi\AppData\Local\Temp\ccC9u2qc.s:8151   .debug_loc:00000000000007f6 .LLST32
C:\Users\stapi\AppData\Local\Temp\ccC9u2qc.s:8165   .debug_loc:0000000000000817 .LLST33
C:\Users\stapi\AppData\Local\Temp\ccC9u2qc.s:8179   .debug_loc:0000000000000838 .LLST34
C:\Users\stapi\AppData\Local\Temp\ccC9u2qc.s:8193   .debug_loc:0000000000000859 .LLST35
C:\Users\stapi\AppData\Local\Temp\ccC9u2qc.s:562    .text.wpa_hexdump_ascii:000000000000000a .LVL51
C:\Users\stapi\AppData\Local\Temp\ccC9u2qc.s:9112   .debug_str:000000000000040a .LASF202
C:\Users\stapi\AppData\Local\Temp\ccC9u2qc.s:9034   .debug_str:00000000000001cc .LASF196
C:\Users\stapi\AppData\Local\Temp\ccC9u2qc.s:9216   .debug_str:00000000000007b8 .LASF198
C:\Users\stapi\AppData\Local\Temp\ccC9u2qc.s:9370   .debug_str:0000000000000b4f .LASF199
C:\Users\stapi\AppData\Local\Temp\ccC9u2qc.s:9224   .debug_str:00000000000007df .LASF200
C:\Users\stapi\AppData\Local\Temp\ccC9u2qc.s:538    .text.wpa_hexdump_key:0000000000000000 .LFB75
C:\Users\stapi\AppData\Local\Temp\ccC9u2qc.s:548    .text.wpa_hexdump_key:0000000000000010 .LFE75
C:\Users\stapi\AppData\Local\Temp\ccC9u2qc.s:8207   .debug_loc:000000000000087a .LLST28
C:\Users\stapi\AppData\Local\Temp\ccC9u2qc.s:8221   .debug_loc:000000000000089b .LLST29
C:\Users\stapi\AppData\Local\Temp\ccC9u2qc.s:8235   .debug_loc:00000000000008bc .LLST30
C:\Users\stapi\AppData\Local\Temp\ccC9u2qc.s:8249   .debug_loc:00000000000008dd .LLST31
C:\Users\stapi\AppData\Local\Temp\ccC9u2qc.s:546    .text.wpa_hexdump_key:0000000000000010 .LVL49
C:\Users\stapi\AppData\Local\Temp\ccC9u2qc.s:9196   .debug_str:0000000000000747 .LASF201
C:\Users\stapi\AppData\Local\Temp\ccC9u2qc.s:522    .text.wpa_hexdump:0000000000000000 .LFB74
C:\Users\stapi\AppData\Local\Temp\ccC9u2qc.s:531    .text.wpa_hexdump:000000000000000a .LFE74
C:\Users\stapi\AppData\Local\Temp\ccC9u2qc.s:8263   .debug_loc:00000000000008fe .LLST24
C:\Users\stapi\AppData\Local\Temp\ccC9u2qc.s:8277   .debug_loc:000000000000091f .LLST25
C:\Users\stapi\AppData\Local\Temp\ccC9u2qc.s:8291   .debug_loc:0000000000000940 .LLST26
C:\Users\stapi\AppData\Local\Temp\ccC9u2qc.s:8305   .debug_loc:0000000000000961 .LLST27
C:\Users\stapi\AppData\Local\Temp\ccC9u2qc.s:529    .text.wpa_hexdump:000000000000000a .LVL47
C:\Users\stapi\AppData\Local\Temp\ccC9u2qc.s:9238   .debug_str:0000000000000834 .LASF203
C:\Users\stapi\AppData\Local\Temp\ccC9u2qc.s:9128   .debug_str:000000000000046e .LASF204
C:\Users\stapi\AppData\Local\Temp\ccC9u2qc.s:9208   .debug_str:000000000000078a .LASF205
C:\Users\stapi\AppData\Local\Temp\ccC9u2qc.s:456    .text.wpa_printf:0000000000000000 .LFB72
C:\Users\stapi\AppData\Local\Temp\ccC9u2qc.s:515    .text.wpa_printf:0000000000000052 .LFE72
C:\Users\stapi\AppData\Local\Temp\ccC9u2qc.s:8319   .debug_loc:0000000000000982 .LLST22
C:\Users\stapi\AppData\Local\Temp\ccC9u2qc.s:8333   .debug_loc:00000000000009a3 .LLST23
C:\Users\stapi\AppData\Local\Temp\ccC9u2qc.s:485    .text.wpa_printf:0000000000000028 .LVL43
C:\Users\stapi\AppData\Local\Temp\ccC9u2qc.s:499    .text.wpa_printf:0000000000000040 .LVL44
C:\Users\stapi\AppData\Local\Temp\ccC9u2qc.s:503    .text.wpa_printf:000000000000004a .LVL45
C:\Users\stapi\AppData\Local\Temp\ccC9u2qc.s:9372   .debug_str:0000000000000b58 .LASF224
C:\Users\stapi\AppData\Local\Temp\ccC9u2qc.s:9344   .debug_str:0000000000000a93 .LASF225
C:\Users\stapi\AppData\Local\Temp\ccC9u2qc.s:9154   .debug_str:0000000000000671 .LASF206
C:\Users\stapi\AppData\Local\Temp\ccC9u2qc.s:18     .text.wpa_debug_print_timestamp:0000000000000000 .LFB71
C:\Users\stapi\AppData\Local\Temp\ccC9u2qc.s:71     .text.wpa_debug_print_timestamp:0000000000000048 .LFE71
C:\Users\stapi\AppData\Local\Temp\ccC9u2qc.s:32     .text.wpa_debug_print_timestamp:0000000000000012 .LBB8
C:\Users\stapi\AppData\Local\Temp\ccC9u2qc.s:45     .text.wpa_debug_print_timestamp:000000000000001e .LVL0
C:\Users\stapi\AppData\Local\Temp\ccC9u2qc.s:57     .text.wpa_debug_print_timestamp:000000000000003c .LVL1
C:\Users\stapi\AppData\Local\Temp\ccC9u2qc.s:96     .text._wpa_hexdump_ascii:0000000000000000 .LFB76
C:\Users\stapi\AppData\Local\Temp\ccC9u2qc.s:322    .text._wpa_hexdump_ascii:0000000000000124 .LFE76
C:\Users\stapi\AppData\Local\Temp\ccC9u2qc.s:8351   .debug_loc:00000000000009cf .LLST0
C:\Users\stapi\AppData\Local\Temp\ccC9u2qc.s:8365   .debug_loc:00000000000009f0 .LLST1
C:\Users\stapi\AppData\Local\Temp\ccC9u2qc.s:8387   .debug_loc:0000000000000a27 .LLST2
C:\Users\stapi\AppData\Local\Temp\ccC9u2qc.s:8416   .debug_loc:0000000000000a6c .LLST3
C:\Users\stapi\AppData\Local\Temp\ccC9u2qc.s:8445   .debug_loc:0000000000000ab1 .LLST4
C:\Users\stapi\AppData\Local\Temp\ccC9u2qc.s:8474   .debug_loc:0000000000000af6 .LLST5
C:\Users\stapi\AppData\Local\Temp\ccC9u2qc.s:149    .text._wpa_hexdump_ascii:0000000000000040 .LBB14
C:\Users\stapi\AppData\Local\Temp\ccC9u2qc.s:8503   .debug_loc:0000000000000b3b .LLST6
C:\Users\stapi\AppData\Local\Temp\ccC9u2qc.s:8517   .debug_loc:0000000000000b5c .LLST7
C:\Users\stapi\AppData\Local\Temp\ccC9u2qc.s:8531   .debug_loc:0000000000000b7d .LLST8
C:\Users\stapi\AppData\Local\Temp\ccC9u2qc.s:8543   .debug_loc:0000000000000b9c .LLST9
C:\Users\stapi\AppData\Local\Temp\ccC9u2qc.s:153    .text._wpa_hexdump_ascii:0000000000000048 .LVL5
C:\Users\stapi\AppData\Local\Temp\ccC9u2qc.s:195    .text._wpa_hexdump_ascii:0000000000000072 .LVL8
C:\Users\stapi\AppData\Local\Temp\ccC9u2qc.s:214    .text._wpa_hexdump_ascii:0000000000000092 .LVL10
C:\Users\stapi\AppData\Local\Temp\ccC9u2qc.s:235    .text._wpa_hexdump_ascii:00000000000000ae .LVL13
C:\Users\stapi\AppData\Local\Temp\ccC9u2qc.s:250    .text._wpa_hexdump_ascii:00000000000000c4 .LVL15
C:\Users\stapi\AppData\Local\Temp\ccC9u2qc.s:272    .text._wpa_hexdump_ascii:00000000000000e6 .LVL18
C:\Users\stapi\AppData\Local\Temp\ccC9u2qc.s:286    .text._wpa_hexdump_ascii:00000000000000fa .LVL20
C:\Users\stapi\AppData\Local\Temp\ccC9u2qc.s:299    .text._wpa_hexdump_ascii:000000000000010a .LVL23
C:\Users\stapi\AppData\Local\Temp\ccC9u2qc.s:313    .text._wpa_hexdump_ascii:0000000000000120 .LVL25
C:\Users\stapi\AppData\Local\Temp\ccC9u2qc.s:132    .text._wpa_hexdump_ascii:0000000000000026 .LVL4
C:\Users\stapi\AppData\Local\Temp\ccC9u2qc.s:338    .text._wpa_hexdump.constprop.0:0000000000000000 .LFB98
C:\Users\stapi\AppData\Local\Temp\ccC9u2qc.s:449    .text._wpa_hexdump.constprop.0:0000000000000098 .LFE98
C:\Users\stapi\AppData\Local\Temp\ccC9u2qc.s:8579   .debug_loc:0000000000000bf6 .LLST10
C:\Users\stapi\AppData\Local\Temp\ccC9u2qc.s:8593   .debug_loc:0000000000000c17 .LLST11
C:\Users\stapi\AppData\Local\Temp\ccC9u2qc.s:8615   .debug_loc:0000000000000c4e .LLST12
C:\Users\stapi\AppData\Local\Temp\ccC9u2qc.s:8637   .debug_loc:0000000000000c85 .LLST13
C:\Users\stapi\AppData\Local\Temp\ccC9u2qc.s:8659   .debug_loc:0000000000000cbc .LLST14
C:\Users\stapi\AppData\Local\Temp\ccC9u2qc.s:373    .text._wpa_hexdump.constprop.0:0000000000000030 .LBB20
C:\Users\stapi\AppData\Local\Temp\ccC9u2qc.s:8681   .debug_loc:0000000000000cf3 .LLST15
C:\Users\stapi\AppData\Local\Temp\ccC9u2qc.s:8698   .debug_loc:0000000000000d17 .LLST16
C:\Users\stapi\AppData\Local\Temp\ccC9u2qc.s:8711   .debug_loc:0000000000000d37 .LLST17
C:\Users\stapi\AppData\Local\Temp\ccC9u2qc.s:8736   .debug_loc:0000000000000d71 .LLST18
C:\Users\stapi\AppData\Local\Temp\ccC9u2qc.s:8761   .debug_loc:0000000000000dab .LLST19
C:\Users\stapi\AppData\Local\Temp\ccC9u2qc.s:8786   .debug_loc:0000000000000de5 .LLST20
C:\Users\stapi\AppData\Local\Temp\ccC9u2qc.s:8799   .debug_loc:0000000000000e05 .LLST21
C:\Users\stapi\AppData\Local\Temp\ccC9u2qc.s:381    .text._wpa_hexdump.constprop.0:0000000000000044 .LVL31
C:\Users\stapi\AppData\Local\Temp\ccC9u2qc.s:391    .text._wpa_hexdump.constprop.0:0000000000000056 .LVL32
C:\Users\stapi\AppData\Local\Temp\ccC9u2qc.s:411    .text._wpa_hexdump.constprop.0:0000000000000070 .LVL36
C:\Users\stapi\AppData\Local\Temp\ccC9u2qc.s:437    .text._wpa_hexdump.constprop.0:000000000000008c .LVL40
C:\Users\stapi\AppData\Local\Temp\ccC9u2qc.s:366    .text._wpa_hexdump.constprop.0:0000000000000026 .LVL29
C:\Users\stapi\AppData\Local\Temp\ccC9u2qc.s:9104   .debug_str:00000000000003e0 .LASF207
C:\Users\stapi\AppData\Local\Temp\ccC9u2qc.s:8986   .debug_str:000000000000009e .LASF208
C:\Users\stapi\AppData\Local\Temp\ccC9u2qc.s:9206   .debug_str:0000000000000780 .LASF209
C:\Users\stapi\AppData\Local\Temp\ccC9u2qc.s:9124   .debug_str:000000000000045f .LASF210
C:\Users\stapi\AppData\Local\Temp\ccC9u2qc.s:9040   .debug_str:00000000000001dd .LASF211
C:\Users\stapi\AppData\Local\Temp\ccC9u2qc.s:9410   .debug_str:0000000000000c26 .LASF212
C:\Users\stapi\AppData\Local\Temp\ccC9u2qc.s:9404   .debug_str:0000000000000c10 .LASF213
C:\Users\stapi\AppData\Local\Temp\ccC9u2qc.s:9222   .debug_str:00000000000007d7 .LASF214
C:\Users\stapi\AppData\Local\Temp\ccC9u2qc.s:9068   .debug_str:0000000000000276 .LASF226
C:\Users\stapi\AppData\Local\Temp\ccC9u2qc.s:9146   .debug_str:00000000000005ba .LASF227
C:\Users\stapi\AppData\Local\Temp\ccC9u2qc.s:9102   .debug_str:00000000000003d4 .LASF215
C:\Users\stapi\AppData\Local\Temp\ccC9u2qc.s:8964   .debug_str:0000000000000000 .LASF216
C:\Users\stapi\AppData\Local\Temp\ccC9u2qc.s:1839   .text.wpa_debug_level_set:0000000000000000 .LVL186
C:\Users\stapi\AppData\Local\Temp\ccC9u2qc.s:1844   .text.wpa_debug_level_set:0000000000000006 .LVL187
C:\Users\stapi\AppData\Local\Temp\ccC9u2qc.s:1747   .text.str_to_debug_level:0000000000000000 .LVL179
C:\Users\stapi\AppData\Local\Temp\ccC9u2qc.s:1699   .text.debug_level_str:0000000000000000 .LVL175
C:\Users\stapi\AppData\Local\Temp\ccC9u2qc.s:1706   .text.debug_level_str:0000000000000012 .LVL176
C:\Users\stapi\AppData\Local\Temp\ccC9u2qc.s:1709   .text.debug_level_str:0000000000000016 .LVL177
C:\Users\stapi\AppData\Local\Temp\ccC9u2qc.s:1713   .text.debug_level_str:000000000000001a .LVL178
C:\Users\stapi\AppData\Local\Temp\ccC9u2qc.s:1542   .text.wpa_msg_global_only:0000000000000000 .LVL156
C:\Users\stapi\AppData\Local\Temp\ccC9u2qc.s:1576   .text.wpa_msg_global_only:0000000000000020 .LVL159
C:\Users\stapi\AppData\Local\Temp\ccC9u2qc.s:1630   .text.wpa_msg_global_only:000000000000006a .LVL167
C:\Users\stapi\AppData\Local\Temp\ccC9u2qc.s:1634   .text.wpa_msg_global_only:000000000000006e .LVL168
C:\Users\stapi\AppData\Local\Temp\ccC9u2qc.s:1572   .text.wpa_msg_global_only:000000000000001c .LVL157
C:\Users\stapi\AppData\Local\Temp\ccC9u2qc.s:1624   .text.wpa_msg_global_only:0000000000000066 .LVL165
C:\Users\stapi\AppData\Local\Temp\ccC9u2qc.s:1574   .text.wpa_msg_global_only:000000000000001e .LVL158
C:\Users\stapi\AppData\Local\Temp\ccC9u2qc.s:1627   .text.wpa_msg_global_only:0000000000000068 .LVL166
C:\Users\stapi\AppData\Local\Temp\ccC9u2qc.s:1611   .text.wpa_msg_global_only:0000000000000058 .LVL163
C:\Users\stapi\AppData\Local\Temp\ccC9u2qc.s:1593   .text.wpa_msg_global_only:0000000000000036 .LVL161
C:\Users\stapi\AppData\Local\Temp\ccC9u2qc.s:1655   .text.wpa_msg_global_only:0000000000000088 .LVL170
C:\Users\stapi\AppData\Local\Temp\ccC9u2qc.s:1661   .text.wpa_msg_global_only:0000000000000090 .LVL171
C:\Users\stapi\AppData\Local\Temp\ccC9u2qc.s:1382   .text.wpa_msg_no_global:0000000000000000 .LVL136
C:\Users\stapi\AppData\Local\Temp\ccC9u2qc.s:1416   .text.wpa_msg_no_global:0000000000000020 .LVL139
C:\Users\stapi\AppData\Local\Temp\ccC9u2qc.s:1471   .text.wpa_msg_no_global:0000000000000062 .LVL148
C:\Users\stapi\AppData\Local\Temp\ccC9u2qc.s:1475   .text.wpa_msg_no_global:0000000000000066 .LVL149
C:\Users\stapi\AppData\Local\Temp\ccC9u2qc.s:1414   .text.wpa_msg_no_global:000000000000001e .LVL138
C:\Users\stapi\AppData\Local\Temp\ccC9u2qc.s:1465   .text.wpa_msg_no_global:000000000000005e .LVL146
C:\Users\stapi\AppData\Local\Temp\ccC9u2qc.s:1412   .text.wpa_msg_no_global:000000000000001c .LVL137
C:\Users\stapi\AppData\Local\Temp\ccC9u2qc.s:1468   .text.wpa_msg_no_global:0000000000000060 .LVL147
C:\Users\stapi\AppData\Local\Temp\ccC9u2qc.s:1449   .text.wpa_msg_no_global:000000000000004e .LVL143
C:\Users\stapi\AppData\Local\Temp\ccC9u2qc.s:1435   .text.wpa_msg_no_global:0000000000000038 .LVL141
C:\Users\stapi\AppData\Local\Temp\ccC9u2qc.s:1462   .text.wpa_msg_no_global:000000000000005c .LVL145
C:\Users\stapi\AppData\Local\Temp\ccC9u2qc.s:1497   .text.wpa_msg_no_global:0000000000000082 .LVL151
C:\Users\stapi\AppData\Local\Temp\ccC9u2qc.s:1503   .text.wpa_msg_no_global:000000000000008a .LVL152
C:\Users\stapi\AppData\Local\Temp\ccC9u2qc.s:1230   .text.wpa_msg_global_ctrl:0000000000000000 .LVL121
C:\Users\stapi\AppData\Local\Temp\ccC9u2qc.s:1283   .text.wpa_msg_global_ctrl:000000000000003a .LVL124
C:\Users\stapi\AppData\Local\Temp\ccC9u2qc.s:1331   .text.wpa_msg_global_ctrl:000000000000007a .LVL130
C:\Users\stapi\AppData\Local\Temp\ccC9u2qc.s:1279   .text.wpa_msg_global_ctrl:0000000000000036 .LVL122
C:\Users\stapi\AppData\Local\Temp\ccC9u2qc.s:1281   .text.wpa_msg_global_ctrl:0000000000000038 .LVL123
C:\Users\stapi\AppData\Local\Temp\ccC9u2qc.s:1300   .text.wpa_msg_global_ctrl:0000000000000054 .LVL128
C:\Users\stapi\AppData\Local\Temp\ccC9u2qc.s:1292   .text.wpa_msg_global_ctrl:0000000000000048 .LVL126
C:\Users\stapi\AppData\Local\Temp\ccC9u2qc.s:1351   .text.wpa_msg_global_ctrl:0000000000000094 .LVL132
C:\Users\stapi\AppData\Local\Temp\ccC9u2qc.s:1356   .text.wpa_msg_global_ctrl:0000000000000098 .LVL133
C:\Users\stapi\AppData\Local\Temp\ccC9u2qc.s:1070   .text.wpa_msg_global:0000000000000000 .LVL101
C:\Users\stapi\AppData\Local\Temp\ccC9u2qc.s:1104   .text.wpa_msg_global:0000000000000020 .LVL104
C:\Users\stapi\AppData\Local\Temp\ccC9u2qc.s:1159   .text.wpa_msg_global:0000000000000062 .LVL113
C:\Users\stapi\AppData\Local\Temp\ccC9u2qc.s:1163   .text.wpa_msg_global:0000000000000066 .LVL114
C:\Users\stapi\AppData\Local\Temp\ccC9u2qc.s:1102   .text.wpa_msg_global:000000000000001e .LVL103
C:\Users\stapi\AppData\Local\Temp\ccC9u2qc.s:1153   .text.wpa_msg_global:000000000000005e .LVL111
C:\Users\stapi\AppData\Local\Temp\ccC9u2qc.s:1100   .text.wpa_msg_global:000000000000001c .LVL102
C:\Users\stapi\AppData\Local\Temp\ccC9u2qc.s:1156   .text.wpa_msg_global:0000000000000060 .LVL112
C:\Users\stapi\AppData\Local\Temp\ccC9u2qc.s:1137   .text.wpa_msg_global:000000000000004e .LVL108
C:\Users\stapi\AppData\Local\Temp\ccC9u2qc.s:1123   .text.wpa_msg_global:0000000000000038 .LVL106
C:\Users\stapi\AppData\Local\Temp\ccC9u2qc.s:1150   .text.wpa_msg_global:000000000000005c .LVL110
C:\Users\stapi\AppData\Local\Temp\ccC9u2qc.s:1185   .text.wpa_msg_global:0000000000000082 .LVL116
C:\Users\stapi\AppData\Local\Temp\ccC9u2qc.s:1191   .text.wpa_msg_global:000000000000008a .LVL117
C:\Users\stapi\AppData\Local\Temp\ccC9u2qc.s:915    .text.wpa_msg_ctrl:0000000000000000 .LVL86
C:\Users\stapi\AppData\Local\Temp\ccC9u2qc.s:968    .text.wpa_msg_ctrl:000000000000003a .LVL89
C:\Users\stapi\AppData\Local\Temp\ccC9u2qc.s:1016   .text.wpa_msg_ctrl:000000000000007a .LVL95
C:\Users\stapi\AppData\Local\Temp\ccC9u2qc.s:964    .text.wpa_msg_ctrl:0000000000000036 .LVL87
C:\Users\stapi\AppData\Local\Temp\ccC9u2qc.s:966    .text.wpa_msg_ctrl:0000000000000038 .LVL88
C:\Users\stapi\AppData\Local\Temp\ccC9u2qc.s:985    .text.wpa_msg_ctrl:0000000000000054 .LVL93
C:\Users\stapi\AppData\Local\Temp\ccC9u2qc.s:977    .text.wpa_msg_ctrl:0000000000000048 .LVL91
C:\Users\stapi\AppData\Local\Temp\ccC9u2qc.s:1036   .text.wpa_msg_ctrl:0000000000000094 .LVL97
C:\Users\stapi\AppData\Local\Temp\ccC9u2qc.s:1041   .text.wpa_msg_ctrl:0000000000000098 .LVL98
C:\Users\stapi\AppData\Local\Temp\ccC9u2qc.s:705    .text.wpa_msg:0000000000000000 .LVL59
C:\Users\stapi\AppData\Local\Temp\ccC9u2qc.s:740    .text.wpa_msg:0000000000000020 .LVL62
C:\Users\stapi\AppData\Local\Temp\ccC9u2qc.s:789    .text.wpa_msg:000000000000005e .LVL69
C:\Users\stapi\AppData\Local\Temp\ccC9u2qc.s:799    .text.wpa_msg:0000000000000066 .LVL72
C:\Users\stapi\AppData\Local\Temp\ccC9u2qc.s:738    .text.wpa_msg:000000000000001e .LVL61
C:\Users\stapi\AppData\Local\Temp\ccC9u2qc.s:792    .text.wpa_msg:0000000000000060 .LVL70
C:\Users\stapi\AppData\Local\Temp\ccC9u2qc.s:736    .text.wpa_msg:000000000000001c .LVL60
C:\Users\stapi\AppData\Local\Temp\ccC9u2qc.s:795    .text.wpa_msg:0000000000000062 .LVL71
C:\Users\stapi\AppData\Local\Temp\ccC9u2qc.s:773    .text.wpa_msg:000000000000004e .LVL66
C:\Users\stapi\AppData\Local\Temp\ccC9u2qc.s:816    .text.wpa_msg:000000000000007a .LVL73
C:\Users\stapi\AppData\Local\Temp\ccC9u2qc.s:759    .text.wpa_msg:0000000000000038 .LVL64
C:\Users\stapi\AppData\Local\Temp\ccC9u2qc.s:786    .text.wpa_msg:000000000000005c .LVL68
C:\Users\stapi\AppData\Local\Temp\ccC9u2qc.s:869    .text.wpa_msg:00000000000000bc .LVL81
C:\Users\stapi\AppData\Local\Temp\ccC9u2qc.s:876    .text.wpa_msg:00000000000000c6 .LVL82
C:\Users\stapi\AppData\Local\Temp\ccC9u2qc.s:824    .text.wpa_msg:0000000000000080 .LVL75
C:\Users\stapi\AppData\Local\Temp\ccC9u2qc.s:835    .text.wpa_msg:0000000000000090 .LVL76
C:\Users\stapi\AppData\Local\Temp\ccC9u2qc.s:852    .text.wpa_msg:00000000000000a4 .LVL79
C:\Users\stapi\AppData\Local\Temp\ccC9u2qc.s:846    .text.wpa_msg:00000000000000a0 .LVL78
C:\Users\stapi\AppData\Local\Temp\ccC9u2qc.s:606    .text.wpa_debug_open_file:0000000000000000 .LVL54
C:\Users\stapi\AppData\Local\Temp\ccC9u2qc.s:611    .text.wpa_debug_open_file:0000000000000002 .LVL55
C:\Users\stapi\AppData\Local\Temp\ccC9u2qc.s:574    .text.wpa_hexdump_ascii_key:0000000000000000 .LVL52
C:\Users\stapi\AppData\Local\Temp\ccC9u2qc.s:558    .text.wpa_hexdump_ascii:0000000000000000 .LVL50
C:\Users\stapi\AppData\Local\Temp\ccC9u2qc.s:541    .text.wpa_hexdump_key:0000000000000000 .LVL48
C:\Users\stapi\AppData\Local\Temp\ccC9u2qc.s:525    .text.wpa_hexdump:0000000000000000 .LVL46
C:\Users\stapi\AppData\Local\Temp\ccC9u2qc.s:459    .text.wpa_printf:0000000000000000 .LVL42
C:\Users\stapi\AppData\Local\Temp\ccC9u2qc.s:99     .text._wpa_hexdump_ascii:0000000000000000 .LVL2
C:\Users\stapi\AppData\Local\Temp\ccC9u2qc.s:162    .text._wpa_hexdump_ascii:000000000000004a .LVL6
C:\Users\stapi\AppData\Local\Temp\ccC9u2qc.s:175    .text._wpa_hexdump_ascii:0000000000000052 .LVL7
C:\Users\stapi\AppData\Local\Temp\ccC9u2qc.s:206    .text._wpa_hexdump_ascii:0000000000000084 .LVL9
C:\Users\stapi\AppData\Local\Temp\ccC9u2qc.s:122    .text._wpa_hexdump_ascii:0000000000000014 .LVL3
C:\Users\stapi\AppData\Local\Temp\ccC9u2qc.s:219    .text._wpa_hexdump_ascii:0000000000000098 .LVL11
C:\Users\stapi\AppData\Local\Temp\ccC9u2qc.s:232    .text._wpa_hexdump_ascii:00000000000000a6 .LVL12
C:\Users\stapi\AppData\Local\Temp\ccC9u2qc.s:255    .text._wpa_hexdump_ascii:00000000000000c6 .LVL16
C:\Users\stapi\AppData\Local\Temp\ccC9u2qc.s:269    .text._wpa_hexdump_ascii:00000000000000de .LVL17
C:\Users\stapi\AppData\Local\Temp\ccC9u2qc.s:341    .text._wpa_hexdump.constprop.0:0000000000000000 .LVL27
C:\Users\stapi\AppData\Local\Temp\ccC9u2qc.s:419    .text._wpa_hexdump.constprop.0:0000000000000072 .LVL37
C:\Users\stapi\AppData\Local\Temp\ccC9u2qc.s:426    .text._wpa_hexdump.constprop.0:000000000000007a .LVL38
C:\Users\stapi\AppData\Local\Temp\ccC9u2qc.s:401    .text._wpa_hexdump.constprop.0:0000000000000062 .LVL34
C:\Users\stapi\AppData\Local\Temp\ccC9u2qc.s:440    .text._wpa_hexdump.constprop.0:000000000000008e .LVL41
C:\Users\stapi\AppData\Local\Temp\ccC9u2qc.s:398    .text._wpa_hexdump.constprop.0:000000000000005e .LVL33
C:\Users\stapi\AppData\Local\Temp\ccC9u2qc.s:372    .text._wpa_hexdump.constprop.0:0000000000000030 .LVL30
C:\Users\stapi\AppData\Local\Temp\ccC9u2qc.s:406    .text._wpa_hexdump.constprop.0:0000000000000066 .LVL35
C:\Users\stapi\AppData\Local\Temp\ccC9u2qc.s:435    .text._wpa_hexdump.constprop.0:0000000000000084 .LVL39
C:\Users\stapi\AppData\Local\Temp\ccC9u2qc.s:1952   .debug_info:0000000000000000 .Ldebug_info0
C:\Users\stapi\AppData\Local\Temp\ccC9u2qc.s:36     .text.wpa_debug_print_timestamp:0000000000000012 .LBE8
C:\Users\stapi\AppData\Local\Temp\ccC9u2qc.s:40     .text.wpa_debug_print_timestamp:0000000000000014 .LBB11
C:\Users\stapi\AppData\Local\Temp\ccC9u2qc.s:60     .text.wpa_debug_print_timestamp:000000000000003c .LBE11
C:\Users\stapi\AppData\Local\Temp\ccC9u2qc.s:157    .text._wpa_hexdump_ascii:0000000000000048 .LBE14
C:\Users\stapi\AppData\Local\Temp\ccC9u2qc.s:178    .text._wpa_hexdump_ascii:0000000000000052 .LBB17
C:\Users\stapi\AppData\Local\Temp\ccC9u2qc.s:320    .text._wpa_hexdump_ascii:0000000000000124 .LBE17
C:\Users\stapi\AppData\Local\Temp\ccC9u2qc.s:414    .text._wpa_hexdump.constprop.0:0000000000000070 .LBE20
C:\Users\stapi\AppData\Local\Temp\ccC9u2qc.s:429    .text._wpa_hexdump.constprop.0:000000000000007a .LBB23
C:\Users\stapi\AppData\Local\Temp\ccC9u2qc.s:447    .text._wpa_hexdump.constprop.0:0000000000000098 .LBE23

UNDEFINED SYMBOLS
__riscv_save_0
os_get_time
printf
__riscv_restore_0
__riscv_save_9
__riscv_restore_9
_ctype_
putchar
__riscv_save_3
__riscv_restore_3
vprintf
_impure_ptr
setvbuf
dbg_vsnprintf_offset
os_malloc
os_snprintf
bin_clear_free
os_free
__riscv_save_1
os_strcasecmp
__riscv_restore_1
