   1              		.file	"wpa_ie.c"
   2              		.option nopic
   3              		.attribute arch, "rv32i2p0_m2p0_a2p0_f2p0_c2p0_b_p0p94"
   4              		.attribute unaligned_access, 0
   5              		.attribute stack_align, 16
   6              		.text
   7              	.Ltext0:
   8              		.cfi_sections	.debug_frame
   9              		.section	.text.wpa_parse_wpa_ie,"ax",@progbits
  10              		.align	1
  11              		.globl	wpa_parse_wpa_ie
  13              	wpa_parse_wpa_ie:
  14              	.LFB127:
  15              		.file 1 "C:/Users/stapi/OneDrive/Desktop/GD32VW553/V1_MQTT_OK/GD32VW55X_Wifi_BLE_SDK/GD32VW55x_REL
   1:C:/Users/stapi/OneDrive/Desktop/GD32VW553/V1_MQTT_OK/GD32VW55X_Wifi_BLE_SDK/GD32VW55x_RELEASE_V1.0.2/MSDK/wpa_supplicant/src/rsn_supp\wpa_ie.c **** /*
   2:C:/Users/stapi/OneDrive/Desktop/GD32VW553/V1_MQTT_OK/GD32VW55X_Wifi_BLE_SDK/GD32VW55x_RELEASE_V1.0.2/MSDK/wpa_supplicant/src/rsn_supp\wpa_ie.c ****  * wpa_supplicant - WPA/RSN IE and KDE processing
   3:C:/Users/stapi/OneDrive/Desktop/GD32VW553/V1_MQTT_OK/GD32VW55X_Wifi_BLE_SDK/GD32VW55x_RELEASE_V1.0.2/MSDK/wpa_supplicant/src/rsn_supp\wpa_ie.c ****  * Copyright (c) 2003-2018, Jouni Malinen <j@w1.fi>
   4:C:/Users/stapi/OneDrive/Desktop/GD32VW553/V1_MQTT_OK/GD32VW55X_Wifi_BLE_SDK/GD32VW55x_RELEASE_V1.0.2/MSDK/wpa_supplicant/src/rsn_supp\wpa_ie.c ****  *
   5:C:/Users/stapi/OneDrive/Desktop/GD32VW553/V1_MQTT_OK/GD32VW55X_Wifi_BLE_SDK/GD32VW55x_RELEASE_V1.0.2/MSDK/wpa_supplicant/src/rsn_supp\wpa_ie.c ****  * This software may be distributed under the terms of the BSD license.
   6:C:/Users/stapi/OneDrive/Desktop/GD32VW553/V1_MQTT_OK/GD32VW55X_Wifi_BLE_SDK/GD32VW55x_RELEASE_V1.0.2/MSDK/wpa_supplicant/src/rsn_supp\wpa_ie.c ****  * See README for more details.
   7:C:/Users/stapi/OneDrive/Desktop/GD32VW553/V1_MQTT_OK/GD32VW55X_Wifi_BLE_SDK/GD32VW55x_RELEASE_V1.0.2/MSDK/wpa_supplicant/src/rsn_supp\wpa_ie.c ****  */
   8:C:/Users/stapi/OneDrive/Desktop/GD32VW553/V1_MQTT_OK/GD32VW55X_Wifi_BLE_SDK/GD32VW55x_RELEASE_V1.0.2/MSDK/wpa_supplicant/src/rsn_supp\wpa_ie.c **** 
   9:C:/Users/stapi/OneDrive/Desktop/GD32VW553/V1_MQTT_OK/GD32VW55X_Wifi_BLE_SDK/GD32VW55x_RELEASE_V1.0.2/MSDK/wpa_supplicant/src/rsn_supp\wpa_ie.c **** #include "includes.h"
  10:C:/Users/stapi/OneDrive/Desktop/GD32VW553/V1_MQTT_OK/GD32VW55X_Wifi_BLE_SDK/GD32VW55x_RELEASE_V1.0.2/MSDK/wpa_supplicant/src/rsn_supp\wpa_ie.c **** 
  11:C:/Users/stapi/OneDrive/Desktop/GD32VW553/V1_MQTT_OK/GD32VW55X_Wifi_BLE_SDK/GD32VW55x_RELEASE_V1.0.2/MSDK/wpa_supplicant/src/rsn_supp\wpa_ie.c **** #include "common.h"
  12:C:/Users/stapi/OneDrive/Desktop/GD32VW553/V1_MQTT_OK/GD32VW55X_Wifi_BLE_SDK/GD32VW55x_RELEASE_V1.0.2/MSDK/wpa_supplicant/src/rsn_supp\wpa_ie.c **** #include "wpa.h"
  13:C:/Users/stapi/OneDrive/Desktop/GD32VW553/V1_MQTT_OK/GD32VW55X_Wifi_BLE_SDK/GD32VW55x_RELEASE_V1.0.2/MSDK/wpa_supplicant/src/rsn_supp\wpa_ie.c **** #include "pmksa_cache.h"
  14:C:/Users/stapi/OneDrive/Desktop/GD32VW553/V1_MQTT_OK/GD32VW55X_Wifi_BLE_SDK/GD32VW55x_RELEASE_V1.0.2/MSDK/wpa_supplicant/src/rsn_supp\wpa_ie.c **** #include "common/ieee802_11_defs.h"
  15:C:/Users/stapi/OneDrive/Desktop/GD32VW553/V1_MQTT_OK/GD32VW55X_Wifi_BLE_SDK/GD32VW55x_RELEASE_V1.0.2/MSDK/wpa_supplicant/src/rsn_supp\wpa_ie.c **** #include "wpa_i.h"
  16:C:/Users/stapi/OneDrive/Desktop/GD32VW553/V1_MQTT_OK/GD32VW55X_Wifi_BLE_SDK/GD32VW55x_RELEASE_V1.0.2/MSDK/wpa_supplicant/src/rsn_supp\wpa_ie.c **** #include "wpa_ie.h"
  17:C:/Users/stapi/OneDrive/Desktop/GD32VW553/V1_MQTT_OK/GD32VW55X_Wifi_BLE_SDK/GD32VW55x_RELEASE_V1.0.2/MSDK/wpa_supplicant/src/rsn_supp\wpa_ie.c **** 
  18:C:/Users/stapi/OneDrive/Desktop/GD32VW553/V1_MQTT_OK/GD32VW55X_Wifi_BLE_SDK/GD32VW55x_RELEASE_V1.0.2/MSDK/wpa_supplicant/src/rsn_supp\wpa_ie.c **** 
  19:C:/Users/stapi/OneDrive/Desktop/GD32VW553/V1_MQTT_OK/GD32VW55X_Wifi_BLE_SDK/GD32VW55x_RELEASE_V1.0.2/MSDK/wpa_supplicant/src/rsn_supp\wpa_ie.c **** /**
  20:C:/Users/stapi/OneDrive/Desktop/GD32VW553/V1_MQTT_OK/GD32VW55X_Wifi_BLE_SDK/GD32VW55x_RELEASE_V1.0.2/MSDK/wpa_supplicant/src/rsn_supp\wpa_ie.c ****  * wpa_parse_wpa_ie - Parse WPA/RSN IE
  21:C:/Users/stapi/OneDrive/Desktop/GD32VW553/V1_MQTT_OK/GD32VW55X_Wifi_BLE_SDK/GD32VW55x_RELEASE_V1.0.2/MSDK/wpa_supplicant/src/rsn_supp\wpa_ie.c ****  * @wpa_ie: Pointer to WPA or RSN IE
  22:C:/Users/stapi/OneDrive/Desktop/GD32VW553/V1_MQTT_OK/GD32VW55X_Wifi_BLE_SDK/GD32VW55x_RELEASE_V1.0.2/MSDK/wpa_supplicant/src/rsn_supp\wpa_ie.c ****  * @wpa_ie_len: Length of the WPA/RSN IE
  23:C:/Users/stapi/OneDrive/Desktop/GD32VW553/V1_MQTT_OK/GD32VW55X_Wifi_BLE_SDK/GD32VW55x_RELEASE_V1.0.2/MSDK/wpa_supplicant/src/rsn_supp\wpa_ie.c ****  * @data: Pointer to data area for parsing results
  24:C:/Users/stapi/OneDrive/Desktop/GD32VW553/V1_MQTT_OK/GD32VW55X_Wifi_BLE_SDK/GD32VW55x_RELEASE_V1.0.2/MSDK/wpa_supplicant/src/rsn_supp\wpa_ie.c ****  * Returns: 0 on success, -1 on failure
  25:C:/Users/stapi/OneDrive/Desktop/GD32VW553/V1_MQTT_OK/GD32VW55X_Wifi_BLE_SDK/GD32VW55x_RELEASE_V1.0.2/MSDK/wpa_supplicant/src/rsn_supp\wpa_ie.c ****  *
  26:C:/Users/stapi/OneDrive/Desktop/GD32VW553/V1_MQTT_OK/GD32VW55X_Wifi_BLE_SDK/GD32VW55x_RELEASE_V1.0.2/MSDK/wpa_supplicant/src/rsn_supp\wpa_ie.c ****  * Parse the contents of WPA or RSN IE and write the parsed data into data.
  27:C:/Users/stapi/OneDrive/Desktop/GD32VW553/V1_MQTT_OK/GD32VW55X_Wifi_BLE_SDK/GD32VW55x_RELEASE_V1.0.2/MSDK/wpa_supplicant/src/rsn_supp\wpa_ie.c ****  */
  28:C:/Users/stapi/OneDrive/Desktop/GD32VW553/V1_MQTT_OK/GD32VW55X_Wifi_BLE_SDK/GD32VW55x_RELEASE_V1.0.2/MSDK/wpa_supplicant/src/rsn_supp\wpa_ie.c **** int wpa_parse_wpa_ie(const u8 *wpa_ie, size_t wpa_ie_len,
  29:C:/Users/stapi/OneDrive/Desktop/GD32VW553/V1_MQTT_OK/GD32VW55X_Wifi_BLE_SDK/GD32VW55x_RELEASE_V1.0.2/MSDK/wpa_supplicant/src/rsn_supp\wpa_ie.c **** 		     struct wpa_ie_data *data)
  30:C:/Users/stapi/OneDrive/Desktop/GD32VW553/V1_MQTT_OK/GD32VW55X_Wifi_BLE_SDK/GD32VW55x_RELEASE_V1.0.2/MSDK/wpa_supplicant/src/rsn_supp\wpa_ie.c **** {
  16              		.loc 1 30 1
  17              		.cfi_startproc
  18              	.LVL0:
  19 0000 17030000 		call	t0,__riscv_save_0
  19      E7020300 
  20              		.cfi_offset 1, -4
  21              		.cfi_def_cfa_offset 16
  31:C:/Users/stapi/OneDrive/Desktop/GD32VW553/V1_MQTT_OK/GD32VW55X_Wifi_BLE_SDK/GD32VW55x_RELEASE_V1.0.2/MSDK/wpa_supplicant/src/rsn_supp\wpa_ie.c **** 	if (wpa_ie_len >= 1 && wpa_ie[0] == WLAN_EID_RSN)
  22              		.loc 1 31 2
  23              		.loc 1 31 5 is_stmt 0
  24 0008 ADC1     		beq	a1,zero,.L2
  25              		.loc 1 31 31 discriminator 1
  26 000a 83470500 		lbu	a5,0(a0)
  27              		.loc 1 31 22 discriminator 1
  28 000e 13070003 		li	a4,48
  29 0012 639AE700 		bne	a5,a4,.L3
  30              	.L5:
  32:C:/Users/stapi/OneDrive/Desktop/GD32VW553/V1_MQTT_OK/GD32VW55X_Wifi_BLE_SDK/GD32VW55x_RELEASE_V1.0.2/MSDK/wpa_supplicant/src/rsn_supp\wpa_ie.c **** 		return wpa_parse_wpa_ie_rsn(wpa_ie, wpa_ie_len, data);
  31              		.loc 1 32 3 is_stmt 1
  32              		.loc 1 32 10 is_stmt 0
  33 0016 97000000 		call	wpa_parse_wpa_ie_rsn
  33      E7800000 
  34              	.LVL1:
  35              	.L1:
  33:C:/Users/stapi/OneDrive/Desktop/GD32VW553/V1_MQTT_OK/GD32VW55X_Wifi_BLE_SDK/GD32VW55x_RELEASE_V1.0.2/MSDK/wpa_supplicant/src/rsn_supp\wpa_ie.c **** 	if (wpa_ie_len >= 6 && wpa_ie[0] == WLAN_EID_VENDOR_SPECIFIC &&
  34:C:/Users/stapi/OneDrive/Desktop/GD32VW553/V1_MQTT_OK/GD32VW55X_Wifi_BLE_SDK/GD32VW55x_RELEASE_V1.0.2/MSDK/wpa_supplicant/src/rsn_supp\wpa_ie.c **** 	    wpa_ie[1] >= 4 && WPA_GET_BE32(&wpa_ie[2]) == OSEN_IE_VENDOR_TYPE)
  35:C:/Users/stapi/OneDrive/Desktop/GD32VW553/V1_MQTT_OK/GD32VW55X_Wifi_BLE_SDK/GD32VW55x_RELEASE_V1.0.2/MSDK/wpa_supplicant/src/rsn_supp\wpa_ie.c **** 		return wpa_parse_wpa_ie_rsn(wpa_ie, wpa_ie_len, data);
  36:C:/Users/stapi/OneDrive/Desktop/GD32VW553/V1_MQTT_OK/GD32VW55X_Wifi_BLE_SDK/GD32VW55x_RELEASE_V1.0.2/MSDK/wpa_supplicant/src/rsn_supp\wpa_ie.c **** 	else
  37:C:/Users/stapi/OneDrive/Desktop/GD32VW553/V1_MQTT_OK/GD32VW55X_Wifi_BLE_SDK/GD32VW55x_RELEASE_V1.0.2/MSDK/wpa_supplicant/src/rsn_supp\wpa_ie.c **** 		return wpa_parse_wpa_ie_wpa(wpa_ie, wpa_ie_len, data);
  38:C:/Users/stapi/OneDrive/Desktop/GD32VW553/V1_MQTT_OK/GD32VW55X_Wifi_BLE_SDK/GD32VW55x_RELEASE_V1.0.2/MSDK/wpa_supplicant/src/rsn_supp\wpa_ie.c **** }
  36              		.loc 1 38 1
  37 001e 17030000 		tail	__riscv_restore_0
  37      67000300 
  38              		.cfi_remember_state
  39              		.cfi_restore 1
  40              		.cfi_def_cfa_offset 0
  41              	.LVL2:
  42              	.L3:
  43              		.cfi_restore_state
  33:C:/Users/stapi/OneDrive/Desktop/GD32VW553/V1_MQTT_OK/GD32VW55X_Wifi_BLE_SDK/GD32VW55x_RELEASE_V1.0.2/MSDK/wpa_supplicant/src/rsn_supp\wpa_ie.c **** 	if (wpa_ie_len >= 6 && wpa_ie[0] == WLAN_EID_VENDOR_SPECIFIC &&
  44              		.loc 1 33 2 is_stmt 1
  33:C:/Users/stapi/OneDrive/Desktop/GD32VW553/V1_MQTT_OK/GD32VW55X_Wifi_BLE_SDK/GD32VW55x_RELEASE_V1.0.2/MSDK/wpa_supplicant/src/rsn_supp\wpa_ie.c **** 	if (wpa_ie_len >= 6 && wpa_ie[0] == WLAN_EID_VENDOR_SPECIFIC &&
  45              		.loc 1 33 5 is_stmt 0
  46 0026 1547     		li	a4,5
  47 0028 6371B704 		bleu	a1,a4,.L2
  33:C:/Users/stapi/OneDrive/Desktop/GD32VW553/V1_MQTT_OK/GD32VW55X_Wifi_BLE_SDK/GD32VW55x_RELEASE_V1.0.2/MSDK/wpa_supplicant/src/rsn_supp\wpa_ie.c **** 	if (wpa_ie_len >= 6 && wpa_ie[0] == WLAN_EID_VENDOR_SPECIFIC &&
  48              		.loc 1 33 22 discriminator 1
  49 002c 1307D00D 		li	a4,221
  50 0030 639DE702 		bne	a5,a4,.L2
  33:C:/Users/stapi/OneDrive/Desktop/GD32VW553/V1_MQTT_OK/GD32VW55X_Wifi_BLE_SDK/GD32VW55x_RELEASE_V1.0.2/MSDK/wpa_supplicant/src/rsn_supp\wpa_ie.c **** 	if (wpa_ie_len >= 6 && wpa_ie[0] == WLAN_EID_VENDOR_SPECIFIC &&
  51              		.loc 1 33 63 discriminator 2
  52 0034 03471500 		lbu	a4,1(a0)
  53 0038 8D47     		li	a5,3
  54 003a 63F8E702 		bleu	a4,a5,.L2
  55              	.LVL3:
  56              		.file 2 "..\\..\\..\\..\\wpa_supplicant\\src\\utils/common.h"
   1:..\..\..\..\wpa_supplicant\src\utils/common.h **** /*
   2:..\..\..\..\wpa_supplicant\src\utils/common.h ****  * wpa_supplicant/hostapd / common helper functions, etc.
   3:..\..\..\..\wpa_supplicant\src\utils/common.h ****  * Copyright (c) 2002-2007, Jouni Malinen <j@w1.fi>
   4:..\..\..\..\wpa_supplicant\src\utils/common.h ****  *
   5:..\..\..\..\wpa_supplicant\src\utils/common.h ****  * This software may be distributed under the terms of the BSD license.
   6:..\..\..\..\wpa_supplicant\src\utils/common.h ****  * See README for more details.
   7:..\..\..\..\wpa_supplicant\src\utils/common.h ****  */
   8:..\..\..\..\wpa_supplicant\src\utils/common.h **** 
   9:..\..\..\..\wpa_supplicant\src\utils/common.h **** #ifndef COMMON_H
  10:..\..\..\..\wpa_supplicant\src\utils/common.h **** #define COMMON_H
  11:..\..\..\..\wpa_supplicant\src\utils/common.h **** 
  12:..\..\..\..\wpa_supplicant\src\utils/common.h **** #include "os.h"
  13:..\..\..\..\wpa_supplicant\src\utils/common.h **** 
  14:..\..\..\..\wpa_supplicant\src\utils/common.h **** #if defined(__linux__) || defined(__GLIBC__)
  15:..\..\..\..\wpa_supplicant\src\utils/common.h **** #include <endian.h>
  16:..\..\..\..\wpa_supplicant\src\utils/common.h **** #include <byteswap.h>
  17:..\..\..\..\wpa_supplicant\src\utils/common.h **** #endif /* __linux__ */
  18:..\..\..\..\wpa_supplicant\src\utils/common.h **** 
  19:..\..\..\..\wpa_supplicant\src\utils/common.h **** #if defined(__FreeBSD__) || defined(__NetBSD__) || defined(__DragonFly__) || \
  20:..\..\..\..\wpa_supplicant\src\utils/common.h ****     defined(__OpenBSD__)
  21:..\..\..\..\wpa_supplicant\src\utils/common.h **** #include <sys/types.h>
  22:..\..\..\..\wpa_supplicant\src\utils/common.h **** #include <sys/endian.h>
  23:..\..\..\..\wpa_supplicant\src\utils/common.h **** #define __BYTE_ORDER	_BYTE_ORDER
  24:..\..\..\..\wpa_supplicant\src\utils/common.h **** #define	__LITTLE_ENDIAN	_LITTLE_ENDIAN
  25:..\..\..\..\wpa_supplicant\src\utils/common.h **** #define	__BIG_ENDIAN	_BIG_ENDIAN
  26:..\..\..\..\wpa_supplicant\src\utils/common.h **** #ifdef __OpenBSD__
  27:..\..\..\..\wpa_supplicant\src\utils/common.h **** #define bswap_16 swap16
  28:..\..\..\..\wpa_supplicant\src\utils/common.h **** #define bswap_32 swap32
  29:..\..\..\..\wpa_supplicant\src\utils/common.h **** #define bswap_64 swap64
  30:..\..\..\..\wpa_supplicant\src\utils/common.h **** #else /* __OpenBSD__ */
  31:..\..\..\..\wpa_supplicant\src\utils/common.h **** #define bswap_16 bswap16
  32:..\..\..\..\wpa_supplicant\src\utils/common.h **** #define bswap_32 bswap32
  33:..\..\..\..\wpa_supplicant\src\utils/common.h **** #define bswap_64 bswap64
  34:..\..\..\..\wpa_supplicant\src\utils/common.h **** #endif /* __OpenBSD__ */
  35:..\..\..\..\wpa_supplicant\src\utils/common.h **** #endif /* defined(__FreeBSD__) || defined(__NetBSD__) ||
  36:..\..\..\..\wpa_supplicant\src\utils/common.h **** 	* defined(__DragonFly__) || defined(__OpenBSD__) */
  37:..\..\..\..\wpa_supplicant\src\utils/common.h **** 
  38:..\..\..\..\wpa_supplicant\src\utils/common.h **** #ifdef __APPLE__
  39:..\..\..\..\wpa_supplicant\src\utils/common.h **** #include <sys/types.h>
  40:..\..\..\..\wpa_supplicant\src\utils/common.h **** #include <machine/endian.h>
  41:..\..\..\..\wpa_supplicant\src\utils/common.h **** #define __BYTE_ORDER	_BYTE_ORDER
  42:..\..\..\..\wpa_supplicant\src\utils/common.h **** #define __LITTLE_ENDIAN	_LITTLE_ENDIAN
  43:..\..\..\..\wpa_supplicant\src\utils/common.h **** #define __BIG_ENDIAN	_BIG_ENDIAN
  44:..\..\..\..\wpa_supplicant\src\utils/common.h **** static inline unsigned short bswap_16(unsigned short v)
  45:..\..\..\..\wpa_supplicant\src\utils/common.h **** {
  46:..\..\..\..\wpa_supplicant\src\utils/common.h **** 	return ((v & 0xff) << 8) | (v >> 8);
  47:..\..\..\..\wpa_supplicant\src\utils/common.h **** }
  48:..\..\..\..\wpa_supplicant\src\utils/common.h **** 
  49:..\..\..\..\wpa_supplicant\src\utils/common.h **** static inline unsigned int bswap_32(unsigned int v)
  50:..\..\..\..\wpa_supplicant\src\utils/common.h **** {
  51:..\..\..\..\wpa_supplicant\src\utils/common.h **** 	return ((v & 0xff) << 24) | ((v & 0xff00) << 8) |
  52:..\..\..\..\wpa_supplicant\src\utils/common.h **** 		((v & 0xff0000) >> 8) | (v >> 24);
  53:..\..\..\..\wpa_supplicant\src\utils/common.h **** }
  54:..\..\..\..\wpa_supplicant\src\utils/common.h **** #endif /* __APPLE__ */
  55:..\..\..\..\wpa_supplicant\src\utils/common.h **** 
  56:..\..\..\..\wpa_supplicant\src\utils/common.h **** #ifdef CONFIG_GDWIFI
  57:..\..\..\..\wpa_supplicant\src\utils/common.h **** // #include <sys/types.h>
  58:..\..\..\..\wpa_supplicant\src\utils/common.h **** // #include <machine/endian.h>
  59:..\..\..\..\wpa_supplicant\src\utils/common.h **** #define __BYTE_ORDER	BYTE_ORDER
  60:..\..\..\..\wpa_supplicant\src\utils/common.h **** #define __LITTLE_ENDIAN	LITTLE_ENDIAN
  61:..\..\..\..\wpa_supplicant\src\utils/common.h **** #define __BIG_ENDIAN	BIG_ENDIAN
  62:..\..\..\..\wpa_supplicant\src\utils/common.h **** #define ETHER_ADDR_LEN	6
  63:..\..\..\..\wpa_supplicant\src\utils/common.h **** #define ETH_P_802_3	0x0001		/* Dummy type for 802.3 frames  */
  64:..\..\..\..\wpa_supplicant\src\utils/common.h **** 
  65:..\..\..\..\wpa_supplicant\src\utils/common.h **** static inline unsigned short bswap_16(unsigned short v)
  66:..\..\..\..\wpa_supplicant\src\utils/common.h **** {
  67:..\..\..\..\wpa_supplicant\src\utils/common.h **** 	return ((v & 0xff) << 8) | (v >> 8);
  68:..\..\..\..\wpa_supplicant\src\utils/common.h **** }
  69:..\..\..\..\wpa_supplicant\src\utils/common.h **** 
  70:..\..\..\..\wpa_supplicant\src\utils/common.h **** static inline unsigned int bswap_32(unsigned int v)
  71:..\..\..\..\wpa_supplicant\src\utils/common.h **** {
  72:..\..\..\..\wpa_supplicant\src\utils/common.h **** 	return ((v & 0xff) << 24) | ((v & 0xff00) << 8) |
  73:..\..\..\..\wpa_supplicant\src\utils/common.h **** 		((v & 0xff0000) >> 8) | (v >> 24);
  74:..\..\..\..\wpa_supplicant\src\utils/common.h **** }
  75:..\..\..\..\wpa_supplicant\src\utils/common.h **** 
  76:..\..\..\..\wpa_supplicant\src\utils/common.h **** struct ether_header
  77:..\..\..\..\wpa_supplicant\src\utils/common.h **** {
  78:..\..\..\..\wpa_supplicant\src\utils/common.h **** 	uint8_t  ether_dhost[ETHER_ADDR_LEN];
  79:..\..\..\..\wpa_supplicant\src\utils/common.h **** 	uint8_t  ether_shost[ETHER_ADDR_LEN];
  80:..\..\..\..\wpa_supplicant\src\utils/common.h **** 	uint16_t ether_type;
  81:..\..\..\..\wpa_supplicant\src\utils/common.h **** } __PACKED;
  82:..\..\..\..\wpa_supplicant\src\utils/common.h **** #endif /* CONFIG_GDWIFI */
  83:..\..\..\..\wpa_supplicant\src\utils/common.h **** #ifdef __rtems__
  84:..\..\..\..\wpa_supplicant\src\utils/common.h **** #include <rtems/endian.h>
  85:..\..\..\..\wpa_supplicant\src\utils/common.h **** #define __BYTE_ORDER BYTE_ORDER
  86:..\..\..\..\wpa_supplicant\src\utils/common.h **** #define __LITTLE_ENDIAN LITTLE_ENDIAN
  87:..\..\..\..\wpa_supplicant\src\utils/common.h **** #define __BIG_ENDIAN BIG_ENDIAN
  88:..\..\..\..\wpa_supplicant\src\utils/common.h **** #define bswap_16 CPU_swap_u16
  89:..\..\..\..\wpa_supplicant\src\utils/common.h **** #define bswap_32 CPU_swap_u32
  90:..\..\..\..\wpa_supplicant\src\utils/common.h **** #endif /* __rtems__ */
  91:..\..\..\..\wpa_supplicant\src\utils/common.h **** 
  92:..\..\..\..\wpa_supplicant\src\utils/common.h **** #ifdef CONFIG_NATIVE_WINDOWS
  93:..\..\..\..\wpa_supplicant\src\utils/common.h **** #include <winsock.h>
  94:..\..\..\..\wpa_supplicant\src\utils/common.h **** 
  95:..\..\..\..\wpa_supplicant\src\utils/common.h **** typedef int socklen_t;
  96:..\..\..\..\wpa_supplicant\src\utils/common.h **** 
  97:..\..\..\..\wpa_supplicant\src\utils/common.h **** #ifndef MSG_DONTWAIT
  98:..\..\..\..\wpa_supplicant\src\utils/common.h **** #define MSG_DONTWAIT 0 /* not supported */
  99:..\..\..\..\wpa_supplicant\src\utils/common.h **** #endif
 100:..\..\..\..\wpa_supplicant\src\utils/common.h **** 
 101:..\..\..\..\wpa_supplicant\src\utils/common.h **** #endif /* CONFIG_NATIVE_WINDOWS */
 102:..\..\..\..\wpa_supplicant\src\utils/common.h **** 
 103:..\..\..\..\wpa_supplicant\src\utils/common.h **** #ifdef _MSC_VER
 104:..\..\..\..\wpa_supplicant\src\utils/common.h **** #define inline __inline
 105:..\..\..\..\wpa_supplicant\src\utils/common.h **** 
 106:..\..\..\..\wpa_supplicant\src\utils/common.h **** #undef vsnprintf
 107:..\..\..\..\wpa_supplicant\src\utils/common.h **** #define vsnprintf _vsnprintf
 108:..\..\..\..\wpa_supplicant\src\utils/common.h **** #undef close
 109:..\..\..\..\wpa_supplicant\src\utils/common.h **** #define close closesocket
 110:..\..\..\..\wpa_supplicant\src\utils/common.h **** #endif /* _MSC_VER */
 111:..\..\..\..\wpa_supplicant\src\utils/common.h **** 
 112:..\..\..\..\wpa_supplicant\src\utils/common.h **** 
 113:..\..\..\..\wpa_supplicant\src\utils/common.h **** /* Define platform specific integer types */
 114:..\..\..\..\wpa_supplicant\src\utils/common.h **** 
 115:..\..\..\..\wpa_supplicant\src\utils/common.h **** #ifdef _MSC_VER
 116:..\..\..\..\wpa_supplicant\src\utils/common.h **** typedef UINT64 u64;
 117:..\..\..\..\wpa_supplicant\src\utils/common.h **** typedef UINT32 u32;
 118:..\..\..\..\wpa_supplicant\src\utils/common.h **** typedef UINT16 u16;
 119:..\..\..\..\wpa_supplicant\src\utils/common.h **** typedef UINT8 u8;
 120:..\..\..\..\wpa_supplicant\src\utils/common.h **** typedef INT64 s64;
 121:..\..\..\..\wpa_supplicant\src\utils/common.h **** typedef INT32 s32;
 122:..\..\..\..\wpa_supplicant\src\utils/common.h **** typedef INT16 s16;
 123:..\..\..\..\wpa_supplicant\src\utils/common.h **** typedef INT8 s8;
 124:..\..\..\..\wpa_supplicant\src\utils/common.h **** #define WPA_TYPES_DEFINED
 125:..\..\..\..\wpa_supplicant\src\utils/common.h **** #endif /* _MSC_VER */
 126:..\..\..\..\wpa_supplicant\src\utils/common.h **** 
 127:..\..\..\..\wpa_supplicant\src\utils/common.h **** #ifdef __vxworks
 128:..\..\..\..\wpa_supplicant\src\utils/common.h **** typedef unsigned long long u64;
 129:..\..\..\..\wpa_supplicant\src\utils/common.h **** typedef UINT32 u32;
 130:..\..\..\..\wpa_supplicant\src\utils/common.h **** typedef UINT16 u16;
 131:..\..\..\..\wpa_supplicant\src\utils/common.h **** typedef UINT8 u8;
 132:..\..\..\..\wpa_supplicant\src\utils/common.h **** typedef long long s64;
 133:..\..\..\..\wpa_supplicant\src\utils/common.h **** typedef INT32 s32;
 134:..\..\..\..\wpa_supplicant\src\utils/common.h **** typedef INT16 s16;
 135:..\..\..\..\wpa_supplicant\src\utils/common.h **** typedef INT8 s8;
 136:..\..\..\..\wpa_supplicant\src\utils/common.h **** #define WPA_TYPES_DEFINED
 137:..\..\..\..\wpa_supplicant\src\utils/common.h **** #endif /* __vxworks */
 138:..\..\..\..\wpa_supplicant\src\utils/common.h **** 
 139:..\..\..\..\wpa_supplicant\src\utils/common.h **** #ifndef WPA_TYPES_DEFINED
 140:..\..\..\..\wpa_supplicant\src\utils/common.h **** #ifdef CONFIG_USE_INTTYPES_H
 141:..\..\..\..\wpa_supplicant\src\utils/common.h **** #include <inttypes.h>
 142:..\..\..\..\wpa_supplicant\src\utils/common.h **** #else
 143:..\..\..\..\wpa_supplicant\src\utils/common.h **** #include <stdint.h>
 144:..\..\..\..\wpa_supplicant\src\utils/common.h **** #endif
 145:..\..\..\..\wpa_supplicant\src\utils/common.h **** typedef uint64_t u64;
 146:..\..\..\..\wpa_supplicant\src\utils/common.h **** typedef uint32_t u32;
 147:..\..\..\..\wpa_supplicant\src\utils/common.h **** typedef uint16_t u16;
 148:..\..\..\..\wpa_supplicant\src\utils/common.h **** typedef uint8_t u8;
 149:..\..\..\..\wpa_supplicant\src\utils/common.h **** typedef int64_t s64;
 150:..\..\..\..\wpa_supplicant\src\utils/common.h **** typedef int32_t s32;
 151:..\..\..\..\wpa_supplicant\src\utils/common.h **** typedef int16_t s16;
 152:..\..\..\..\wpa_supplicant\src\utils/common.h **** typedef int8_t s8;
 153:..\..\..\..\wpa_supplicant\src\utils/common.h **** #define WPA_TYPES_DEFINED
 154:..\..\..\..\wpa_supplicant\src\utils/common.h **** #endif /* !WPA_TYPES_DEFINED */
 155:..\..\..\..\wpa_supplicant\src\utils/common.h **** 
 156:..\..\..\..\wpa_supplicant\src\utils/common.h **** 
 157:..\..\..\..\wpa_supplicant\src\utils/common.h **** /* Define platform specific byte swapping macros */
 158:..\..\..\..\wpa_supplicant\src\utils/common.h **** 
 159:..\..\..\..\wpa_supplicant\src\utils/common.h **** #if defined(__CYGWIN__) || defined(CONFIG_NATIVE_WINDOWS)
 160:..\..\..\..\wpa_supplicant\src\utils/common.h **** 
 161:..\..\..\..\wpa_supplicant\src\utils/common.h **** static inline unsigned short wpa_swap_16(unsigned short v)
 162:..\..\..\..\wpa_supplicant\src\utils/common.h **** {
 163:..\..\..\..\wpa_supplicant\src\utils/common.h **** 	return ((v & 0xff) << 8) | (v >> 8);
 164:..\..\..\..\wpa_supplicant\src\utils/common.h **** }
 165:..\..\..\..\wpa_supplicant\src\utils/common.h **** 
 166:..\..\..\..\wpa_supplicant\src\utils/common.h **** static inline unsigned int wpa_swap_32(unsigned int v)
 167:..\..\..\..\wpa_supplicant\src\utils/common.h **** {
 168:..\..\..\..\wpa_supplicant\src\utils/common.h **** 	return ((v & 0xff) << 24) | ((v & 0xff00) << 8) |
 169:..\..\..\..\wpa_supplicant\src\utils/common.h **** 		((v & 0xff0000) >> 8) | (v >> 24);
 170:..\..\..\..\wpa_supplicant\src\utils/common.h **** }
 171:..\..\..\..\wpa_supplicant\src\utils/common.h **** 
 172:..\..\..\..\wpa_supplicant\src\utils/common.h **** #define le_to_host16(n) (n)
 173:..\..\..\..\wpa_supplicant\src\utils/common.h **** #define host_to_le16(n) (n)
 174:..\..\..\..\wpa_supplicant\src\utils/common.h **** #define be_to_host16(n) wpa_swap_16(n)
 175:..\..\..\..\wpa_supplicant\src\utils/common.h **** #define host_to_be16(n) wpa_swap_16(n)
 176:..\..\..\..\wpa_supplicant\src\utils/common.h **** #define le_to_host32(n) (n)
 177:..\..\..\..\wpa_supplicant\src\utils/common.h **** #define host_to_le32(n) (n)
 178:..\..\..\..\wpa_supplicant\src\utils/common.h **** #define be_to_host32(n) wpa_swap_32(n)
 179:..\..\..\..\wpa_supplicant\src\utils/common.h **** #define host_to_be32(n) wpa_swap_32(n)
 180:..\..\..\..\wpa_supplicant\src\utils/common.h **** #define host_to_le64(n) (n)
 181:..\..\..\..\wpa_supplicant\src\utils/common.h **** 
 182:..\..\..\..\wpa_supplicant\src\utils/common.h **** #define WPA_BYTE_SWAP_DEFINED
 183:..\..\..\..\wpa_supplicant\src\utils/common.h **** 
 184:..\..\..\..\wpa_supplicant\src\utils/common.h **** #endif /* __CYGWIN__ || CONFIG_NATIVE_WINDOWS */
 185:..\..\..\..\wpa_supplicant\src\utils/common.h **** 
 186:..\..\..\..\wpa_supplicant\src\utils/common.h **** 
 187:..\..\..\..\wpa_supplicant\src\utils/common.h **** #ifndef WPA_BYTE_SWAP_DEFINED
 188:..\..\..\..\wpa_supplicant\src\utils/common.h **** 
 189:..\..\..\..\wpa_supplicant\src\utils/common.h **** #ifndef __BYTE_ORDER
 190:..\..\..\..\wpa_supplicant\src\utils/common.h **** #ifndef __LITTLE_ENDIAN
 191:..\..\..\..\wpa_supplicant\src\utils/common.h **** #ifndef __BIG_ENDIAN
 192:..\..\..\..\wpa_supplicant\src\utils/common.h **** #define __LITTLE_ENDIAN 1234
 193:..\..\..\..\wpa_supplicant\src\utils/common.h **** #define __BIG_ENDIAN 4321
 194:..\..\..\..\wpa_supplicant\src\utils/common.h **** #if defined(sparc)
 195:..\..\..\..\wpa_supplicant\src\utils/common.h **** #define __BYTE_ORDER __BIG_ENDIAN
 196:..\..\..\..\wpa_supplicant\src\utils/common.h **** #endif
 197:..\..\..\..\wpa_supplicant\src\utils/common.h **** #endif /* __BIG_ENDIAN */
 198:..\..\..\..\wpa_supplicant\src\utils/common.h **** #endif /* __LITTLE_ENDIAN */
 199:..\..\..\..\wpa_supplicant\src\utils/common.h **** #endif /* __BYTE_ORDER */
 200:..\..\..\..\wpa_supplicant\src\utils/common.h **** 
 201:..\..\..\..\wpa_supplicant\src\utils/common.h **** #if __BYTE_ORDER == __LITTLE_ENDIAN
 202:..\..\..\..\wpa_supplicant\src\utils/common.h **** #define le_to_host16(n) ((__force u16) (le16) (n))
 203:..\..\..\..\wpa_supplicant\src\utils/common.h **** #define host_to_le16(n) ((__force le16) (u16) (n))
 204:..\..\..\..\wpa_supplicant\src\utils/common.h **** #define be_to_host16(n) bswap_16((__force u16) (be16) (n))
 205:..\..\..\..\wpa_supplicant\src\utils/common.h **** #define host_to_be16(n) ((__force be16) bswap_16((n)))
 206:..\..\..\..\wpa_supplicant\src\utils/common.h **** #define le_to_host32(n) ((__force u32) (le32) (n))
 207:..\..\..\..\wpa_supplicant\src\utils/common.h **** #define host_to_le32(n) ((__force le32) (u32) (n))
 208:..\..\..\..\wpa_supplicant\src\utils/common.h **** #define be_to_host32(n) bswap_32((__force u32) (be32) (n))
 209:..\..\..\..\wpa_supplicant\src\utils/common.h **** #define host_to_be32(n) ((__force be32) bswap_32((n)))
 210:..\..\..\..\wpa_supplicant\src\utils/common.h **** #define le_to_host64(n) ((__force u64) (le64) (n))
 211:..\..\..\..\wpa_supplicant\src\utils/common.h **** #define host_to_le64(n) ((__force le64) (u64) (n))
 212:..\..\..\..\wpa_supplicant\src\utils/common.h **** #define be_to_host64(n) bswap_64((__force u64) (be64) (n))
 213:..\..\..\..\wpa_supplicant\src\utils/common.h **** #define host_to_be64(n) ((__force be64) bswap_64((n)))
 214:..\..\..\..\wpa_supplicant\src\utils/common.h **** #elif __BYTE_ORDER == __BIG_ENDIAN
 215:..\..\..\..\wpa_supplicant\src\utils/common.h **** #define le_to_host16(n) bswap_16(n)
 216:..\..\..\..\wpa_supplicant\src\utils/common.h **** #define host_to_le16(n) bswap_16(n)
 217:..\..\..\..\wpa_supplicant\src\utils/common.h **** #define be_to_host16(n) (n)
 218:..\..\..\..\wpa_supplicant\src\utils/common.h **** #define host_to_be16(n) (n)
 219:..\..\..\..\wpa_supplicant\src\utils/common.h **** #define le_to_host32(n) bswap_32(n)
 220:..\..\..\..\wpa_supplicant\src\utils/common.h **** #define host_to_le32(n) bswap_32(n)
 221:..\..\..\..\wpa_supplicant\src\utils/common.h **** #define be_to_host32(n) (n)
 222:..\..\..\..\wpa_supplicant\src\utils/common.h **** #define host_to_be32(n) (n)
 223:..\..\..\..\wpa_supplicant\src\utils/common.h **** #define le_to_host64(n) bswap_64(n)
 224:..\..\..\..\wpa_supplicant\src\utils/common.h **** #define host_to_le64(n) bswap_64(n)
 225:..\..\..\..\wpa_supplicant\src\utils/common.h **** #define be_to_host64(n) (n)
 226:..\..\..\..\wpa_supplicant\src\utils/common.h **** #define host_to_be64(n) (n)
 227:..\..\..\..\wpa_supplicant\src\utils/common.h **** #ifndef WORDS_BIGENDIAN
 228:..\..\..\..\wpa_supplicant\src\utils/common.h **** #define WORDS_BIGENDIAN
 229:..\..\..\..\wpa_supplicant\src\utils/common.h **** #endif
 230:..\..\..\..\wpa_supplicant\src\utils/common.h **** #else
 231:..\..\..\..\wpa_supplicant\src\utils/common.h **** #error Could not determine CPU byte order
 232:..\..\..\..\wpa_supplicant\src\utils/common.h **** #endif
 233:..\..\..\..\wpa_supplicant\src\utils/common.h **** 
 234:..\..\..\..\wpa_supplicant\src\utils/common.h **** #define WPA_BYTE_SWAP_DEFINED
 235:..\..\..\..\wpa_supplicant\src\utils/common.h **** #endif /* !WPA_BYTE_SWAP_DEFINED */
 236:..\..\..\..\wpa_supplicant\src\utils/common.h **** 
 237:..\..\..\..\wpa_supplicant\src\utils/common.h **** 
 238:..\..\..\..\wpa_supplicant\src\utils/common.h **** /* Macros for handling unaligned memory accesses */
 239:..\..\..\..\wpa_supplicant\src\utils/common.h **** 
 240:..\..\..\..\wpa_supplicant\src\utils/common.h **** static inline u16 WPA_GET_BE16(const u8 *a)
 241:..\..\..\..\wpa_supplicant\src\utils/common.h **** {
 242:..\..\..\..\wpa_supplicant\src\utils/common.h **** 	return (a[0] << 8) | a[1];
 243:..\..\..\..\wpa_supplicant\src\utils/common.h **** }
 244:..\..\..\..\wpa_supplicant\src\utils/common.h **** 
 245:..\..\..\..\wpa_supplicant\src\utils/common.h **** static inline void WPA_PUT_BE16(u8 *a, u16 val)
 246:..\..\..\..\wpa_supplicant\src\utils/common.h **** {
 247:..\..\..\..\wpa_supplicant\src\utils/common.h **** 	a[0] = val >> 8;
 248:..\..\..\..\wpa_supplicant\src\utils/common.h **** 	a[1] = val & 0xff;
 249:..\..\..\..\wpa_supplicant\src\utils/common.h **** }
 250:..\..\..\..\wpa_supplicant\src\utils/common.h **** 
 251:..\..\..\..\wpa_supplicant\src\utils/common.h **** static inline u16 WPA_GET_LE16(const u8 *a)
 252:..\..\..\..\wpa_supplicant\src\utils/common.h **** {
 253:..\..\..\..\wpa_supplicant\src\utils/common.h **** 	return (a[1] << 8) | a[0];
 254:..\..\..\..\wpa_supplicant\src\utils/common.h **** }
 255:..\..\..\..\wpa_supplicant\src\utils/common.h **** 
 256:..\..\..\..\wpa_supplicant\src\utils/common.h **** static inline void WPA_PUT_LE16(u8 *a, u16 val)
 257:..\..\..\..\wpa_supplicant\src\utils/common.h **** {
 258:..\..\..\..\wpa_supplicant\src\utils/common.h **** 	a[1] = val >> 8;
 259:..\..\..\..\wpa_supplicant\src\utils/common.h **** 	a[0] = val & 0xff;
 260:..\..\..\..\wpa_supplicant\src\utils/common.h **** }
 261:..\..\..\..\wpa_supplicant\src\utils/common.h **** 
 262:..\..\..\..\wpa_supplicant\src\utils/common.h **** static inline u32 WPA_GET_BE24(const u8 *a)
 263:..\..\..\..\wpa_supplicant\src\utils/common.h **** {
 264:..\..\..\..\wpa_supplicant\src\utils/common.h **** 	return (a[0] << 16) | (a[1] << 8) | a[2];
 265:..\..\..\..\wpa_supplicant\src\utils/common.h **** }
 266:..\..\..\..\wpa_supplicant\src\utils/common.h **** 
 267:..\..\..\..\wpa_supplicant\src\utils/common.h **** static inline void WPA_PUT_BE24(u8 *a, u32 val)
 268:..\..\..\..\wpa_supplicant\src\utils/common.h **** {
 269:..\..\..\..\wpa_supplicant\src\utils/common.h **** 	a[0] = (val >> 16) & 0xff;
 270:..\..\..\..\wpa_supplicant\src\utils/common.h **** 	a[1] = (val >> 8) & 0xff;
 271:..\..\..\..\wpa_supplicant\src\utils/common.h **** 	a[2] = val & 0xff;
 272:..\..\..\..\wpa_supplicant\src\utils/common.h **** }
 273:..\..\..\..\wpa_supplicant\src\utils/common.h **** 
 274:..\..\..\..\wpa_supplicant\src\utils/common.h **** static inline u32 WPA_GET_BE32(const u8 *a)
 275:..\..\..\..\wpa_supplicant\src\utils/common.h **** {
 276:..\..\..\..\wpa_supplicant\src\utils/common.h **** 	return ((u32) a[0] << 24) | (a[1] << 16) | (a[2] << 8) | a[3];
  57              		.loc 2 276 2 is_stmt 1
  58 003e 03473500 		lbu	a4,3(a0)
  59 0042 83472500 		lbu	a5,2(a0)
  60 0046 2207     		slli	a4,a4,8
  61 0048 5D8F     		or	a4,a4,a5
  62 004a 83474500 		lbu	a5,4(a0)
  63 004e C207     		slli	a5,a5,16
  64 0050 5D8F     		or	a4,a5,a4
  65 0052 83475500 		lbu	a5,5(a0)
  66 0056 E207     		slli	a5,a5,24
  67 0058 D98F     		or	a5,a5,a4
  34:C:/Users/stapi/OneDrive/Desktop/GD32VW553/V1_MQTT_OK/GD32VW55X_Wifi_BLE_SDK/GD32VW55x_RELEASE_V1.0.2/MSDK/wpa_supplicant/src/rsn_supp\wpa_ie.c **** 		return wpa_parse_wpa_ie_rsn(wpa_ie, wpa_ie_len, data);
  68              		.loc 1 34 21 is_stmt 0
  69 005a 37A76F50 		li	a4,1349492736
  70 005e 130727A1 		addi	a4,a4,-1518
  71 0062 93D78769 		rev8	a5,a5
  72              	.LVL4:
  73 0066 E388E7FA 		beq	a5,a4,.L5
  74              	.L2:
  37:C:/Users/stapi/OneDrive/Desktop/GD32VW553/V1_MQTT_OK/GD32VW55X_Wifi_BLE_SDK/GD32VW55x_RELEASE_V1.0.2/MSDK/wpa_supplicant/src/rsn_supp\wpa_ie.c **** }
  75              		.loc 1 37 3 is_stmt 1
  37:C:/Users/stapi/OneDrive/Desktop/GD32VW553/V1_MQTT_OK/GD32VW55X_Wifi_BLE_SDK/GD32VW55x_RELEASE_V1.0.2/MSDK/wpa_supplicant/src/rsn_supp\wpa_ie.c **** }
  76              		.loc 1 37 10 is_stmt 0
  77 006a 97000000 		call	wpa_parse_wpa_ie_wpa
  77      E7800000 
  78              	.LVL5:
  79 0072 75B7     		j	.L1
  80              		.cfi_endproc
  81              	.LFE127:
  83              		.section	.text.rsn_supp_capab,"ax",@progbits
  84              		.align	1
  85              		.globl	rsn_supp_capab
  87              	rsn_supp_capab:
  88              	.LFB129:
  39:C:/Users/stapi/OneDrive/Desktop/GD32VW553/V1_MQTT_OK/GD32VW55X_Wifi_BLE_SDK/GD32VW55x_RELEASE_V1.0.2/MSDK/wpa_supplicant/src/rsn_supp\wpa_ie.c **** 
  40:C:/Users/stapi/OneDrive/Desktop/GD32VW553/V1_MQTT_OK/GD32VW55X_Wifi_BLE_SDK/GD32VW55x_RELEASE_V1.0.2/MSDK/wpa_supplicant/src/rsn_supp\wpa_ie.c **** 
  41:C:/Users/stapi/OneDrive/Desktop/GD32VW553/V1_MQTT_OK/GD32VW55X_Wifi_BLE_SDK/GD32VW55x_RELEASE_V1.0.2/MSDK/wpa_supplicant/src/rsn_supp\wpa_ie.c **** static int wpa_gen_wpa_ie_wpa(u8 *wpa_ie, size_t wpa_ie_len,
  42:C:/Users/stapi/OneDrive/Desktop/GD32VW553/V1_MQTT_OK/GD32VW55X_Wifi_BLE_SDK/GD32VW55x_RELEASE_V1.0.2/MSDK/wpa_supplicant/src/rsn_supp\wpa_ie.c **** 			      int pairwise_cipher, int group_cipher,
  43:C:/Users/stapi/OneDrive/Desktop/GD32VW553/V1_MQTT_OK/GD32VW55X_Wifi_BLE_SDK/GD32VW55x_RELEASE_V1.0.2/MSDK/wpa_supplicant/src/rsn_supp\wpa_ie.c **** 			      int key_mgmt)
  44:C:/Users/stapi/OneDrive/Desktop/GD32VW553/V1_MQTT_OK/GD32VW55X_Wifi_BLE_SDK/GD32VW55x_RELEASE_V1.0.2/MSDK/wpa_supplicant/src/rsn_supp\wpa_ie.c **** {
  45:C:/Users/stapi/OneDrive/Desktop/GD32VW553/V1_MQTT_OK/GD32VW55X_Wifi_BLE_SDK/GD32VW55x_RELEASE_V1.0.2/MSDK/wpa_supplicant/src/rsn_supp\wpa_ie.c **** 	u8 *pos;
  46:C:/Users/stapi/OneDrive/Desktop/GD32VW553/V1_MQTT_OK/GD32VW55X_Wifi_BLE_SDK/GD32VW55x_RELEASE_V1.0.2/MSDK/wpa_supplicant/src/rsn_supp\wpa_ie.c **** 	struct wpa_ie_hdr *hdr;
  47:C:/Users/stapi/OneDrive/Desktop/GD32VW553/V1_MQTT_OK/GD32VW55X_Wifi_BLE_SDK/GD32VW55x_RELEASE_V1.0.2/MSDK/wpa_supplicant/src/rsn_supp\wpa_ie.c **** 	u32 suite;
  48:C:/Users/stapi/OneDrive/Desktop/GD32VW553/V1_MQTT_OK/GD32VW55X_Wifi_BLE_SDK/GD32VW55x_RELEASE_V1.0.2/MSDK/wpa_supplicant/src/rsn_supp\wpa_ie.c **** 
  49:C:/Users/stapi/OneDrive/Desktop/GD32VW553/V1_MQTT_OK/GD32VW55X_Wifi_BLE_SDK/GD32VW55x_RELEASE_V1.0.2/MSDK/wpa_supplicant/src/rsn_supp\wpa_ie.c **** 	if (wpa_ie_len < sizeof(*hdr) + WPA_SELECTOR_LEN +
  50:C:/Users/stapi/OneDrive/Desktop/GD32VW553/V1_MQTT_OK/GD32VW55X_Wifi_BLE_SDK/GD32VW55x_RELEASE_V1.0.2/MSDK/wpa_supplicant/src/rsn_supp\wpa_ie.c **** 	    2 + WPA_SELECTOR_LEN + 2 + WPA_SELECTOR_LEN)
  51:C:/Users/stapi/OneDrive/Desktop/GD32VW553/V1_MQTT_OK/GD32VW55X_Wifi_BLE_SDK/GD32VW55x_RELEASE_V1.0.2/MSDK/wpa_supplicant/src/rsn_supp\wpa_ie.c **** 		return -1;
  52:C:/Users/stapi/OneDrive/Desktop/GD32VW553/V1_MQTT_OK/GD32VW55X_Wifi_BLE_SDK/GD32VW55x_RELEASE_V1.0.2/MSDK/wpa_supplicant/src/rsn_supp\wpa_ie.c **** 
  53:C:/Users/stapi/OneDrive/Desktop/GD32VW553/V1_MQTT_OK/GD32VW55X_Wifi_BLE_SDK/GD32VW55x_RELEASE_V1.0.2/MSDK/wpa_supplicant/src/rsn_supp\wpa_ie.c **** 	hdr = (struct wpa_ie_hdr *) wpa_ie;
  54:C:/Users/stapi/OneDrive/Desktop/GD32VW553/V1_MQTT_OK/GD32VW55X_Wifi_BLE_SDK/GD32VW55x_RELEASE_V1.0.2/MSDK/wpa_supplicant/src/rsn_supp\wpa_ie.c **** 	hdr->elem_id = WLAN_EID_VENDOR_SPECIFIC;
  55:C:/Users/stapi/OneDrive/Desktop/GD32VW553/V1_MQTT_OK/GD32VW55X_Wifi_BLE_SDK/GD32VW55x_RELEASE_V1.0.2/MSDK/wpa_supplicant/src/rsn_supp\wpa_ie.c **** 	RSN_SELECTOR_PUT(hdr->oui, WPA_OUI_TYPE);
  56:C:/Users/stapi/OneDrive/Desktop/GD32VW553/V1_MQTT_OK/GD32VW55X_Wifi_BLE_SDK/GD32VW55x_RELEASE_V1.0.2/MSDK/wpa_supplicant/src/rsn_supp\wpa_ie.c **** 	WPA_PUT_LE16(hdr->version, WPA_VERSION);
  57:C:/Users/stapi/OneDrive/Desktop/GD32VW553/V1_MQTT_OK/GD32VW55X_Wifi_BLE_SDK/GD32VW55x_RELEASE_V1.0.2/MSDK/wpa_supplicant/src/rsn_supp\wpa_ie.c **** 	pos = (u8 *) (hdr + 1);
  58:C:/Users/stapi/OneDrive/Desktop/GD32VW553/V1_MQTT_OK/GD32VW55X_Wifi_BLE_SDK/GD32VW55x_RELEASE_V1.0.2/MSDK/wpa_supplicant/src/rsn_supp\wpa_ie.c **** 
  59:C:/Users/stapi/OneDrive/Desktop/GD32VW553/V1_MQTT_OK/GD32VW55X_Wifi_BLE_SDK/GD32VW55x_RELEASE_V1.0.2/MSDK/wpa_supplicant/src/rsn_supp\wpa_ie.c **** 	suite = wpa_cipher_to_suite(WPA_PROTO_WPA, group_cipher);
  60:C:/Users/stapi/OneDrive/Desktop/GD32VW553/V1_MQTT_OK/GD32VW55X_Wifi_BLE_SDK/GD32VW55x_RELEASE_V1.0.2/MSDK/wpa_supplicant/src/rsn_supp\wpa_ie.c **** 	if (suite == 0) {
  61:C:/Users/stapi/OneDrive/Desktop/GD32VW553/V1_MQTT_OK/GD32VW55X_Wifi_BLE_SDK/GD32VW55x_RELEASE_V1.0.2/MSDK/wpa_supplicant/src/rsn_supp\wpa_ie.c **** 		wpa_printf(MSG_WARNING, "Invalid group cipher (%d).",
  62:C:/Users/stapi/OneDrive/Desktop/GD32VW553/V1_MQTT_OK/GD32VW55X_Wifi_BLE_SDK/GD32VW55x_RELEASE_V1.0.2/MSDK/wpa_supplicant/src/rsn_supp\wpa_ie.c **** 			   group_cipher);
  63:C:/Users/stapi/OneDrive/Desktop/GD32VW553/V1_MQTT_OK/GD32VW55X_Wifi_BLE_SDK/GD32VW55x_RELEASE_V1.0.2/MSDK/wpa_supplicant/src/rsn_supp\wpa_ie.c **** 		return -1;
  64:C:/Users/stapi/OneDrive/Desktop/GD32VW553/V1_MQTT_OK/GD32VW55X_Wifi_BLE_SDK/GD32VW55x_RELEASE_V1.0.2/MSDK/wpa_supplicant/src/rsn_supp\wpa_ie.c **** 	}
  65:C:/Users/stapi/OneDrive/Desktop/GD32VW553/V1_MQTT_OK/GD32VW55X_Wifi_BLE_SDK/GD32VW55x_RELEASE_V1.0.2/MSDK/wpa_supplicant/src/rsn_supp\wpa_ie.c **** 	RSN_SELECTOR_PUT(pos, suite);
  66:C:/Users/stapi/OneDrive/Desktop/GD32VW553/V1_MQTT_OK/GD32VW55X_Wifi_BLE_SDK/GD32VW55x_RELEASE_V1.0.2/MSDK/wpa_supplicant/src/rsn_supp\wpa_ie.c **** 	pos += WPA_SELECTOR_LEN;
  67:C:/Users/stapi/OneDrive/Desktop/GD32VW553/V1_MQTT_OK/GD32VW55X_Wifi_BLE_SDK/GD32VW55x_RELEASE_V1.0.2/MSDK/wpa_supplicant/src/rsn_supp\wpa_ie.c **** 
  68:C:/Users/stapi/OneDrive/Desktop/GD32VW553/V1_MQTT_OK/GD32VW55X_Wifi_BLE_SDK/GD32VW55x_RELEASE_V1.0.2/MSDK/wpa_supplicant/src/rsn_supp\wpa_ie.c **** 	*pos++ = 1;
  69:C:/Users/stapi/OneDrive/Desktop/GD32VW553/V1_MQTT_OK/GD32VW55X_Wifi_BLE_SDK/GD32VW55x_RELEASE_V1.0.2/MSDK/wpa_supplicant/src/rsn_supp\wpa_ie.c **** 	*pos++ = 0;
  70:C:/Users/stapi/OneDrive/Desktop/GD32VW553/V1_MQTT_OK/GD32VW55X_Wifi_BLE_SDK/GD32VW55x_RELEASE_V1.0.2/MSDK/wpa_supplicant/src/rsn_supp\wpa_ie.c **** 	suite = wpa_cipher_to_suite(WPA_PROTO_WPA, pairwise_cipher);
  71:C:/Users/stapi/OneDrive/Desktop/GD32VW553/V1_MQTT_OK/GD32VW55X_Wifi_BLE_SDK/GD32VW55x_RELEASE_V1.0.2/MSDK/wpa_supplicant/src/rsn_supp\wpa_ie.c **** 	if (suite == 0 ||
  72:C:/Users/stapi/OneDrive/Desktop/GD32VW553/V1_MQTT_OK/GD32VW55X_Wifi_BLE_SDK/GD32VW55x_RELEASE_V1.0.2/MSDK/wpa_supplicant/src/rsn_supp\wpa_ie.c **** 	    (!wpa_cipher_valid_pairwise(pairwise_cipher) &&
  73:C:/Users/stapi/OneDrive/Desktop/GD32VW553/V1_MQTT_OK/GD32VW55X_Wifi_BLE_SDK/GD32VW55x_RELEASE_V1.0.2/MSDK/wpa_supplicant/src/rsn_supp\wpa_ie.c **** 	     pairwise_cipher != WPA_CIPHER_NONE)) {
  74:C:/Users/stapi/OneDrive/Desktop/GD32VW553/V1_MQTT_OK/GD32VW55X_Wifi_BLE_SDK/GD32VW55x_RELEASE_V1.0.2/MSDK/wpa_supplicant/src/rsn_supp\wpa_ie.c **** 		wpa_printf(MSG_WARNING, "Invalid pairwise cipher (%d).",
  75:C:/Users/stapi/OneDrive/Desktop/GD32VW553/V1_MQTT_OK/GD32VW55X_Wifi_BLE_SDK/GD32VW55x_RELEASE_V1.0.2/MSDK/wpa_supplicant/src/rsn_supp\wpa_ie.c **** 			   pairwise_cipher);
  76:C:/Users/stapi/OneDrive/Desktop/GD32VW553/V1_MQTT_OK/GD32VW55X_Wifi_BLE_SDK/GD32VW55x_RELEASE_V1.0.2/MSDK/wpa_supplicant/src/rsn_supp\wpa_ie.c **** 		return -1;
  77:C:/Users/stapi/OneDrive/Desktop/GD32VW553/V1_MQTT_OK/GD32VW55X_Wifi_BLE_SDK/GD32VW55x_RELEASE_V1.0.2/MSDK/wpa_supplicant/src/rsn_supp\wpa_ie.c **** 	}
  78:C:/Users/stapi/OneDrive/Desktop/GD32VW553/V1_MQTT_OK/GD32VW55X_Wifi_BLE_SDK/GD32VW55x_RELEASE_V1.0.2/MSDK/wpa_supplicant/src/rsn_supp\wpa_ie.c **** 	RSN_SELECTOR_PUT(pos, suite);
  79:C:/Users/stapi/OneDrive/Desktop/GD32VW553/V1_MQTT_OK/GD32VW55X_Wifi_BLE_SDK/GD32VW55x_RELEASE_V1.0.2/MSDK/wpa_supplicant/src/rsn_supp\wpa_ie.c **** 	pos += WPA_SELECTOR_LEN;
  80:C:/Users/stapi/OneDrive/Desktop/GD32VW553/V1_MQTT_OK/GD32VW55X_Wifi_BLE_SDK/GD32VW55x_RELEASE_V1.0.2/MSDK/wpa_supplicant/src/rsn_supp\wpa_ie.c **** 
  81:C:/Users/stapi/OneDrive/Desktop/GD32VW553/V1_MQTT_OK/GD32VW55X_Wifi_BLE_SDK/GD32VW55x_RELEASE_V1.0.2/MSDK/wpa_supplicant/src/rsn_supp\wpa_ie.c **** 	*pos++ = 1;
  82:C:/Users/stapi/OneDrive/Desktop/GD32VW553/V1_MQTT_OK/GD32VW55X_Wifi_BLE_SDK/GD32VW55x_RELEASE_V1.0.2/MSDK/wpa_supplicant/src/rsn_supp\wpa_ie.c **** 	*pos++ = 0;
  83:C:/Users/stapi/OneDrive/Desktop/GD32VW553/V1_MQTT_OK/GD32VW55X_Wifi_BLE_SDK/GD32VW55x_RELEASE_V1.0.2/MSDK/wpa_supplicant/src/rsn_supp\wpa_ie.c **** 
  84:C:/Users/stapi/OneDrive/Desktop/GD32VW553/V1_MQTT_OK/GD32VW55X_Wifi_BLE_SDK/GD32VW55x_RELEASE_V1.0.2/MSDK/wpa_supplicant/src/rsn_supp\wpa_ie.c **** #ifdef IEEE8021X_EAPOL
  85:C:/Users/stapi/OneDrive/Desktop/GD32VW553/V1_MQTT_OK/GD32VW55X_Wifi_BLE_SDK/GD32VW55x_RELEASE_V1.0.2/MSDK/wpa_supplicant/src/rsn_supp\wpa_ie.c **** 	if (key_mgmt == WPA_KEY_MGMT_IEEE8021X) {
  86:C:/Users/stapi/OneDrive/Desktop/GD32VW553/V1_MQTT_OK/GD32VW55X_Wifi_BLE_SDK/GD32VW55x_RELEASE_V1.0.2/MSDK/wpa_supplicant/src/rsn_supp\wpa_ie.c **** 		RSN_SELECTOR_PUT(pos, WPA_AUTH_KEY_MGMT_UNSPEC_802_1X);
  87:C:/Users/stapi/OneDrive/Desktop/GD32VW553/V1_MQTT_OK/GD32VW55X_Wifi_BLE_SDK/GD32VW55x_RELEASE_V1.0.2/MSDK/wpa_supplicant/src/rsn_supp\wpa_ie.c **** 	} else if (key_mgmt == WPA_KEY_MGMT_CCKM) {
  88:C:/Users/stapi/OneDrive/Desktop/GD32VW553/V1_MQTT_OK/GD32VW55X_Wifi_BLE_SDK/GD32VW55x_RELEASE_V1.0.2/MSDK/wpa_supplicant/src/rsn_supp\wpa_ie.c **** 		RSN_SELECTOR_PUT(pos, WPA_AUTH_KEY_MGMT_CCKM);
  89:C:/Users/stapi/OneDrive/Desktop/GD32VW553/V1_MQTT_OK/GD32VW55X_Wifi_BLE_SDK/GD32VW55x_RELEASE_V1.0.2/MSDK/wpa_supplicant/src/rsn_supp\wpa_ie.c **** 	} else
  90:C:/Users/stapi/OneDrive/Desktop/GD32VW553/V1_MQTT_OK/GD32VW55X_Wifi_BLE_SDK/GD32VW55x_RELEASE_V1.0.2/MSDK/wpa_supplicant/src/rsn_supp\wpa_ie.c **** #endif /* IEEE8021X_EAPOL */
  91:C:/Users/stapi/OneDrive/Desktop/GD32VW553/V1_MQTT_OK/GD32VW55X_Wifi_BLE_SDK/GD32VW55x_RELEASE_V1.0.2/MSDK/wpa_supplicant/src/rsn_supp\wpa_ie.c **** 	if (key_mgmt == WPA_KEY_MGMT_PSK) {
  92:C:/Users/stapi/OneDrive/Desktop/GD32VW553/V1_MQTT_OK/GD32VW55X_Wifi_BLE_SDK/GD32VW55x_RELEASE_V1.0.2/MSDK/wpa_supplicant/src/rsn_supp\wpa_ie.c **** 		RSN_SELECTOR_PUT(pos, WPA_AUTH_KEY_MGMT_PSK_OVER_802_1X);
  93:C:/Users/stapi/OneDrive/Desktop/GD32VW553/V1_MQTT_OK/GD32VW55X_Wifi_BLE_SDK/GD32VW55x_RELEASE_V1.0.2/MSDK/wpa_supplicant/src/rsn_supp\wpa_ie.c **** 	} else if (key_mgmt == WPA_KEY_MGMT_WPA_NONE) {
  94:C:/Users/stapi/OneDrive/Desktop/GD32VW553/V1_MQTT_OK/GD32VW55X_Wifi_BLE_SDK/GD32VW55x_RELEASE_V1.0.2/MSDK/wpa_supplicant/src/rsn_supp\wpa_ie.c **** 		RSN_SELECTOR_PUT(pos, WPA_AUTH_KEY_MGMT_NONE);
  95:C:/Users/stapi/OneDrive/Desktop/GD32VW553/V1_MQTT_OK/GD32VW55X_Wifi_BLE_SDK/GD32VW55x_RELEASE_V1.0.2/MSDK/wpa_supplicant/src/rsn_supp\wpa_ie.c **** 	} else {
  96:C:/Users/stapi/OneDrive/Desktop/GD32VW553/V1_MQTT_OK/GD32VW55X_Wifi_BLE_SDK/GD32VW55x_RELEASE_V1.0.2/MSDK/wpa_supplicant/src/rsn_supp\wpa_ie.c **** 		wpa_printf(MSG_WARNING, "Invalid key management type (%d).",
  97:C:/Users/stapi/OneDrive/Desktop/GD32VW553/V1_MQTT_OK/GD32VW55X_Wifi_BLE_SDK/GD32VW55x_RELEASE_V1.0.2/MSDK/wpa_supplicant/src/rsn_supp\wpa_ie.c **** 			   key_mgmt);
  98:C:/Users/stapi/OneDrive/Desktop/GD32VW553/V1_MQTT_OK/GD32VW55X_Wifi_BLE_SDK/GD32VW55x_RELEASE_V1.0.2/MSDK/wpa_supplicant/src/rsn_supp\wpa_ie.c **** 		return -1;
  99:C:/Users/stapi/OneDrive/Desktop/GD32VW553/V1_MQTT_OK/GD32VW55X_Wifi_BLE_SDK/GD32VW55x_RELEASE_V1.0.2/MSDK/wpa_supplicant/src/rsn_supp\wpa_ie.c **** 	}
 100:C:/Users/stapi/OneDrive/Desktop/GD32VW553/V1_MQTT_OK/GD32VW55X_Wifi_BLE_SDK/GD32VW55x_RELEASE_V1.0.2/MSDK/wpa_supplicant/src/rsn_supp\wpa_ie.c **** 	pos += WPA_SELECTOR_LEN;
 101:C:/Users/stapi/OneDrive/Desktop/GD32VW553/V1_MQTT_OK/GD32VW55X_Wifi_BLE_SDK/GD32VW55x_RELEASE_V1.0.2/MSDK/wpa_supplicant/src/rsn_supp\wpa_ie.c **** 
 102:C:/Users/stapi/OneDrive/Desktop/GD32VW553/V1_MQTT_OK/GD32VW55X_Wifi_BLE_SDK/GD32VW55x_RELEASE_V1.0.2/MSDK/wpa_supplicant/src/rsn_supp\wpa_ie.c **** 	/* WPA Capabilities; use defaults, so no need to include it */
 103:C:/Users/stapi/OneDrive/Desktop/GD32VW553/V1_MQTT_OK/GD32VW55X_Wifi_BLE_SDK/GD32VW55x_RELEASE_V1.0.2/MSDK/wpa_supplicant/src/rsn_supp\wpa_ie.c **** 
 104:C:/Users/stapi/OneDrive/Desktop/GD32VW553/V1_MQTT_OK/GD32VW55X_Wifi_BLE_SDK/GD32VW55x_RELEASE_V1.0.2/MSDK/wpa_supplicant/src/rsn_supp\wpa_ie.c **** 	hdr->len = (pos - wpa_ie) - 2;
 105:C:/Users/stapi/OneDrive/Desktop/GD32VW553/V1_MQTT_OK/GD32VW55X_Wifi_BLE_SDK/GD32VW55x_RELEASE_V1.0.2/MSDK/wpa_supplicant/src/rsn_supp\wpa_ie.c **** 
 106:C:/Users/stapi/OneDrive/Desktop/GD32VW553/V1_MQTT_OK/GD32VW55X_Wifi_BLE_SDK/GD32VW55x_RELEASE_V1.0.2/MSDK/wpa_supplicant/src/rsn_supp\wpa_ie.c **** 	WPA_ASSERT((size_t) (pos - wpa_ie) <= wpa_ie_len);
 107:C:/Users/stapi/OneDrive/Desktop/GD32VW553/V1_MQTT_OK/GD32VW55X_Wifi_BLE_SDK/GD32VW55x_RELEASE_V1.0.2/MSDK/wpa_supplicant/src/rsn_supp\wpa_ie.c **** 
 108:C:/Users/stapi/OneDrive/Desktop/GD32VW553/V1_MQTT_OK/GD32VW55X_Wifi_BLE_SDK/GD32VW55x_RELEASE_V1.0.2/MSDK/wpa_supplicant/src/rsn_supp\wpa_ie.c **** 	return pos - wpa_ie;
 109:C:/Users/stapi/OneDrive/Desktop/GD32VW553/V1_MQTT_OK/GD32VW55X_Wifi_BLE_SDK/GD32VW55x_RELEASE_V1.0.2/MSDK/wpa_supplicant/src/rsn_supp\wpa_ie.c **** }
 110:C:/Users/stapi/OneDrive/Desktop/GD32VW553/V1_MQTT_OK/GD32VW55X_Wifi_BLE_SDK/GD32VW55x_RELEASE_V1.0.2/MSDK/wpa_supplicant/src/rsn_supp\wpa_ie.c **** 
 111:C:/Users/stapi/OneDrive/Desktop/GD32VW553/V1_MQTT_OK/GD32VW55X_Wifi_BLE_SDK/GD32VW55x_RELEASE_V1.0.2/MSDK/wpa_supplicant/src/rsn_supp\wpa_ie.c **** 
 112:C:/Users/stapi/OneDrive/Desktop/GD32VW553/V1_MQTT_OK/GD32VW55X_Wifi_BLE_SDK/GD32VW55x_RELEASE_V1.0.2/MSDK/wpa_supplicant/src/rsn_supp\wpa_ie.c **** u16 rsn_supp_capab(struct wpa_sm *sm)
 113:C:/Users/stapi/OneDrive/Desktop/GD32VW553/V1_MQTT_OK/GD32VW55X_Wifi_BLE_SDK/GD32VW55x_RELEASE_V1.0.2/MSDK/wpa_supplicant/src/rsn_supp\wpa_ie.c **** {
  89              		.loc 1 113 1 is_stmt 1
  90              		.cfi_startproc
  91              	.LVL6:
 114:C:/Users/stapi/OneDrive/Desktop/GD32VW553/V1_MQTT_OK/GD32VW55X_Wifi_BLE_SDK/GD32VW55x_RELEASE_V1.0.2/MSDK/wpa_supplicant/src/rsn_supp\wpa_ie.c **** 	u16 capab = 0;
  92              		.loc 1 114 2
 115:C:/Users/stapi/OneDrive/Desktop/GD32VW553/V1_MQTT_OK/GD32VW55X_Wifi_BLE_SDK/GD32VW55x_RELEASE_V1.0.2/MSDK/wpa_supplicant/src/rsn_supp\wpa_ie.c **** 
 116:C:/Users/stapi/OneDrive/Desktop/GD32VW553/V1_MQTT_OK/GD32VW55X_Wifi_BLE_SDK/GD32VW55x_RELEASE_V1.0.2/MSDK/wpa_supplicant/src/rsn_supp\wpa_ie.c **** 	if (sm->mfp)
  93              		.loc 1 116 2
  94              		.loc 1 116 8 is_stmt 0
  95 0000 0327C548 		lw	a4,1164(a0)
 113:C:/Users/stapi/OneDrive/Desktop/GD32VW553/V1_MQTT_OK/GD32VW55X_Wifi_BLE_SDK/GD32VW55x_RELEASE_V1.0.2/MSDK/wpa_supplicant/src/rsn_supp\wpa_ie.c **** 	u16 capab = 0;
  96              		.loc 1 113 1
  97 0004 AA87     		mv	a5,a0
 114:C:/Users/stapi/OneDrive/Desktop/GD32VW553/V1_MQTT_OK/GD32VW55X_Wifi_BLE_SDK/GD32VW55x_RELEASE_V1.0.2/MSDK/wpa_supplicant/src/rsn_supp\wpa_ie.c **** 	u16 capab = 0;
  98              		.loc 1 114 6
  99 0006 0145     		li	a0,0
 100              	.LVL7:
 101              		.loc 1 116 5
 102 0008 01CB     		beq	a4,zero,.L11
 117:C:/Users/stapi/OneDrive/Desktop/GD32VW553/V1_MQTT_OK/GD32VW55X_Wifi_BLE_SDK/GD32VW55x_RELEASE_V1.0.2/MSDK/wpa_supplicant/src/rsn_supp\wpa_ie.c **** 		capab |= WPA_CAPABILITY_MFPC;
 103              		.loc 1 117 3 is_stmt 1
 104              	.LVL8:
 118:C:/Users/stapi/OneDrive/Desktop/GD32VW553/V1_MQTT_OK/GD32VW55X_Wifi_BLE_SDK/GD32VW55x_RELEASE_V1.0.2/MSDK/wpa_supplicant/src/rsn_supp\wpa_ie.c **** 	if (sm->mfp == 2)
 105              		.loc 1 118 2
 106              		.loc 1 118 5 is_stmt 0
 107 000a 8946     		li	a3,2
 117:C:/Users/stapi/OneDrive/Desktop/GD32VW553/V1_MQTT_OK/GD32VW55X_Wifi_BLE_SDK/GD32VW55x_RELEASE_V1.0.2/MSDK/wpa_supplicant/src/rsn_supp\wpa_ie.c **** 		capab |= WPA_CAPABILITY_MFPC;
 108              		.loc 1 117 9
 109 000c 13050008 		li	a0,128
 110              		.loc 1 118 5
 111 0010 6314D700 		bne	a4,a3,.L11
 119:C:/Users/stapi/OneDrive/Desktop/GD32VW553/V1_MQTT_OK/GD32VW55X_Wifi_BLE_SDK/GD32VW55x_RELEASE_V1.0.2/MSDK/wpa_supplicant/src/rsn_supp\wpa_ie.c **** 		capab |= WPA_CAPABILITY_MFPR;
 112              		.loc 1 119 9
 113 0014 1305000C 		li	a0,192
 114              	.LVL9:
 115              	.L11:
 120:C:/Users/stapi/OneDrive/Desktop/GD32VW553/V1_MQTT_OK/GD32VW55X_Wifi_BLE_SDK/GD32VW55x_RELEASE_V1.0.2/MSDK/wpa_supplicant/src/rsn_supp\wpa_ie.c **** 	if (sm->ocv)
 116              		.loc 1 120 2 is_stmt 1
 117              		.loc 1 120 5 is_stmt 0
 118 0018 03A70749 		lw	a4,1168(a5)
 119 001c 19C3     		beq	a4,zero,.L12
 121:C:/Users/stapi/OneDrive/Desktop/GD32VW553/V1_MQTT_OK/GD32VW55X_Wifi_BLE_SDK/GD32VW55x_RELEASE_V1.0.2/MSDK/wpa_supplicant/src/rsn_supp\wpa_ie.c **** 		capab |= WPA_CAPABILITY_OCVC;
 120              		.loc 1 121 3 is_stmt 1
 121              		.loc 1 121 9 is_stmt 0
 122 001e 1315E528 		bseti	a0,a0,14
 123              	.LVL10:
 124              	.L12:
 122:C:/Users/stapi/OneDrive/Desktop/GD32VW553/V1_MQTT_OK/GD32VW55X_Wifi_BLE_SDK/GD32VW55x_RELEASE_V1.0.2/MSDK/wpa_supplicant/src/rsn_supp\wpa_ie.c **** 	if (sm->ext_key_id)
 125              		.loc 1 122 2 is_stmt 1
 126              		.loc 1 122 5 is_stmt 0
 127 0022 83A70744 		lw	a5,1088(a5)
 128              	.LVL11:
 129 0026 99C3     		beq	a5,zero,.L13
 123:C:/Users/stapi/OneDrive/Desktop/GD32VW553/V1_MQTT_OK/GD32VW55X_Wifi_BLE_SDK/GD32VW55x_RELEASE_V1.0.2/MSDK/wpa_supplicant/src/rsn_supp\wpa_ie.c **** 		capab |= WPA_CAPABILITY_EXT_KEY_ID_FOR_UNICAST;
 130              		.loc 1 123 3 is_stmt 1
 131              		.loc 1 123 9 is_stmt 0
 132 0028 1315D528 		bseti	a0,a0,13
 133              	.LVL12:
 134              	.L13:
 124:C:/Users/stapi/OneDrive/Desktop/GD32VW553/V1_MQTT_OK/GD32VW55X_Wifi_BLE_SDK/GD32VW55x_RELEASE_V1.0.2/MSDK/wpa_supplicant/src/rsn_supp\wpa_ie.c **** 
 125:C:/Users/stapi/OneDrive/Desktop/GD32VW553/V1_MQTT_OK/GD32VW55X_Wifi_BLE_SDK/GD32VW55x_RELEASE_V1.0.2/MSDK/wpa_supplicant/src/rsn_supp\wpa_ie.c **** 	return capab;
 135              		.loc 1 125 2 is_stmt 1
 126:C:/Users/stapi/OneDrive/Desktop/GD32VW553/V1_MQTT_OK/GD32VW55X_Wifi_BLE_SDK/GD32VW55x_RELEASE_V1.0.2/MSDK/wpa_supplicant/src/rsn_supp\wpa_ie.c **** }
 136              		.loc 1 126 1 is_stmt 0
 137 002c 8280     		ret
 138              		.cfi_endproc
 139              	.LFE129:
 141              		.section	.rodata.wpa_gen_wpa_ie.str1.4,"aMS",@progbits,1
 142              		.align	2
 143              	.LC0:
 144 0000 52534E3A 		.string	"RSN: Too short IE buffer (%lu bytes)"
 144      20546F6F 
 144      2073686F 
 144      72742049 
 144      45206275 
 145 0025 000000   		.align	2
 146              	.LC1:
 147 0028 496E7661 		.string	"Invalid group cipher (%d)."
 147      6C696420 
 147      67726F75 
 147      70206369 
 147      70686572 
 148 0043 00       		.align	2
 149              	.LC2:
 150 0044 496E7661 		.string	"Invalid pairwise cipher (%d)."
 150      6C696420 
 150      70616972 
 150      77697365 
 150      20636970 
 151 0062 0000     		.align	2
 152              	.LC3:
 153 0064 496E7661 		.string	"Invalid key management type (%d)."
 153      6C696420 
 153      6B657920 
 153      6D616E61 
 153      67656D65 
 154              		.section	.text.wpa_gen_wpa_ie,"ax",@progbits
 155              		.align	1
 156              		.globl	wpa_gen_wpa_ie
 158              	wpa_gen_wpa_ie:
 159              	.LFB131:
 127:C:/Users/stapi/OneDrive/Desktop/GD32VW553/V1_MQTT_OK/GD32VW55X_Wifi_BLE_SDK/GD32VW55x_RELEASE_V1.0.2/MSDK/wpa_supplicant/src/rsn_supp\wpa_ie.c **** 
 128:C:/Users/stapi/OneDrive/Desktop/GD32VW553/V1_MQTT_OK/GD32VW55X_Wifi_BLE_SDK/GD32VW55x_RELEASE_V1.0.2/MSDK/wpa_supplicant/src/rsn_supp\wpa_ie.c **** 
 129:C:/Users/stapi/OneDrive/Desktop/GD32VW553/V1_MQTT_OK/GD32VW55X_Wifi_BLE_SDK/GD32VW55x_RELEASE_V1.0.2/MSDK/wpa_supplicant/src/rsn_supp\wpa_ie.c **** static int wpa_gen_wpa_ie_rsn(u8 *rsn_ie, size_t rsn_ie_len,
 130:C:/Users/stapi/OneDrive/Desktop/GD32VW553/V1_MQTT_OK/GD32VW55X_Wifi_BLE_SDK/GD32VW55x_RELEASE_V1.0.2/MSDK/wpa_supplicant/src/rsn_supp\wpa_ie.c **** 			      int pairwise_cipher, int group_cipher,
 131:C:/Users/stapi/OneDrive/Desktop/GD32VW553/V1_MQTT_OK/GD32VW55X_Wifi_BLE_SDK/GD32VW55x_RELEASE_V1.0.2/MSDK/wpa_supplicant/src/rsn_supp\wpa_ie.c **** 			      int key_mgmt, int mgmt_group_cipher,
 132:C:/Users/stapi/OneDrive/Desktop/GD32VW553/V1_MQTT_OK/GD32VW55X_Wifi_BLE_SDK/GD32VW55x_RELEASE_V1.0.2/MSDK/wpa_supplicant/src/rsn_supp\wpa_ie.c **** 			      struct wpa_sm *sm)
 133:C:/Users/stapi/OneDrive/Desktop/GD32VW553/V1_MQTT_OK/GD32VW55X_Wifi_BLE_SDK/GD32VW55x_RELEASE_V1.0.2/MSDK/wpa_supplicant/src/rsn_supp\wpa_ie.c **** {
 134:C:/Users/stapi/OneDrive/Desktop/GD32VW553/V1_MQTT_OK/GD32VW55X_Wifi_BLE_SDK/GD32VW55x_RELEASE_V1.0.2/MSDK/wpa_supplicant/src/rsn_supp\wpa_ie.c **** 	u8 *pos;
 135:C:/Users/stapi/OneDrive/Desktop/GD32VW553/V1_MQTT_OK/GD32VW55X_Wifi_BLE_SDK/GD32VW55x_RELEASE_V1.0.2/MSDK/wpa_supplicant/src/rsn_supp\wpa_ie.c **** 	struct rsn_ie_hdr *hdr;
 136:C:/Users/stapi/OneDrive/Desktop/GD32VW553/V1_MQTT_OK/GD32VW55X_Wifi_BLE_SDK/GD32VW55x_RELEASE_V1.0.2/MSDK/wpa_supplicant/src/rsn_supp\wpa_ie.c **** 	u32 suite;
 137:C:/Users/stapi/OneDrive/Desktop/GD32VW553/V1_MQTT_OK/GD32VW55X_Wifi_BLE_SDK/GD32VW55x_RELEASE_V1.0.2/MSDK/wpa_supplicant/src/rsn_supp\wpa_ie.c **** 
 138:C:/Users/stapi/OneDrive/Desktop/GD32VW553/V1_MQTT_OK/GD32VW55X_Wifi_BLE_SDK/GD32VW55x_RELEASE_V1.0.2/MSDK/wpa_supplicant/src/rsn_supp\wpa_ie.c **** 	if (rsn_ie_len < sizeof(*hdr) + RSN_SELECTOR_LEN +
 139:C:/Users/stapi/OneDrive/Desktop/GD32VW553/V1_MQTT_OK/GD32VW55X_Wifi_BLE_SDK/GD32VW55x_RELEASE_V1.0.2/MSDK/wpa_supplicant/src/rsn_supp\wpa_ie.c **** 	    2 + RSN_SELECTOR_LEN + 2 + RSN_SELECTOR_LEN + 2 +
 140:C:/Users/stapi/OneDrive/Desktop/GD32VW553/V1_MQTT_OK/GD32VW55X_Wifi_BLE_SDK/GD32VW55x_RELEASE_V1.0.2/MSDK/wpa_supplicant/src/rsn_supp\wpa_ie.c **** 	    (sm->cur_pmksa ? 2 + PMKID_LEN : 0)) {
 141:C:/Users/stapi/OneDrive/Desktop/GD32VW553/V1_MQTT_OK/GD32VW55X_Wifi_BLE_SDK/GD32VW55x_RELEASE_V1.0.2/MSDK/wpa_supplicant/src/rsn_supp\wpa_ie.c **** 		wpa_printf(MSG_DEBUG, "RSN: Too short IE buffer (%lu bytes)",
 142:C:/Users/stapi/OneDrive/Desktop/GD32VW553/V1_MQTT_OK/GD32VW55X_Wifi_BLE_SDK/GD32VW55x_RELEASE_V1.0.2/MSDK/wpa_supplicant/src/rsn_supp\wpa_ie.c **** 			   (unsigned long) rsn_ie_len);
 143:C:/Users/stapi/OneDrive/Desktop/GD32VW553/V1_MQTT_OK/GD32VW55X_Wifi_BLE_SDK/GD32VW55x_RELEASE_V1.0.2/MSDK/wpa_supplicant/src/rsn_supp\wpa_ie.c **** 		return -1;
 144:C:/Users/stapi/OneDrive/Desktop/GD32VW553/V1_MQTT_OK/GD32VW55X_Wifi_BLE_SDK/GD32VW55x_RELEASE_V1.0.2/MSDK/wpa_supplicant/src/rsn_supp\wpa_ie.c **** 	}
 145:C:/Users/stapi/OneDrive/Desktop/GD32VW553/V1_MQTT_OK/GD32VW55X_Wifi_BLE_SDK/GD32VW55x_RELEASE_V1.0.2/MSDK/wpa_supplicant/src/rsn_supp\wpa_ie.c **** 
 146:C:/Users/stapi/OneDrive/Desktop/GD32VW553/V1_MQTT_OK/GD32VW55X_Wifi_BLE_SDK/GD32VW55x_RELEASE_V1.0.2/MSDK/wpa_supplicant/src/rsn_supp\wpa_ie.c **** 	hdr = (struct rsn_ie_hdr *) rsn_ie;
 147:C:/Users/stapi/OneDrive/Desktop/GD32VW553/V1_MQTT_OK/GD32VW55X_Wifi_BLE_SDK/GD32VW55x_RELEASE_V1.0.2/MSDK/wpa_supplicant/src/rsn_supp\wpa_ie.c **** 	hdr->elem_id = WLAN_EID_RSN;
 148:C:/Users/stapi/OneDrive/Desktop/GD32VW553/V1_MQTT_OK/GD32VW55X_Wifi_BLE_SDK/GD32VW55x_RELEASE_V1.0.2/MSDK/wpa_supplicant/src/rsn_supp\wpa_ie.c **** 	WPA_PUT_LE16(hdr->version, RSN_VERSION);
 149:C:/Users/stapi/OneDrive/Desktop/GD32VW553/V1_MQTT_OK/GD32VW55X_Wifi_BLE_SDK/GD32VW55x_RELEASE_V1.0.2/MSDK/wpa_supplicant/src/rsn_supp\wpa_ie.c **** 	pos = (u8 *) (hdr + 1);
 150:C:/Users/stapi/OneDrive/Desktop/GD32VW553/V1_MQTT_OK/GD32VW55X_Wifi_BLE_SDK/GD32VW55x_RELEASE_V1.0.2/MSDK/wpa_supplicant/src/rsn_supp\wpa_ie.c **** 
 151:C:/Users/stapi/OneDrive/Desktop/GD32VW553/V1_MQTT_OK/GD32VW55X_Wifi_BLE_SDK/GD32VW55x_RELEASE_V1.0.2/MSDK/wpa_supplicant/src/rsn_supp\wpa_ie.c **** 	suite = wpa_cipher_to_suite(WPA_PROTO_RSN, group_cipher);
 152:C:/Users/stapi/OneDrive/Desktop/GD32VW553/V1_MQTT_OK/GD32VW55X_Wifi_BLE_SDK/GD32VW55x_RELEASE_V1.0.2/MSDK/wpa_supplicant/src/rsn_supp\wpa_ie.c **** 	if (suite == 0) {
 153:C:/Users/stapi/OneDrive/Desktop/GD32VW553/V1_MQTT_OK/GD32VW55X_Wifi_BLE_SDK/GD32VW55x_RELEASE_V1.0.2/MSDK/wpa_supplicant/src/rsn_supp\wpa_ie.c **** 		wpa_printf(MSG_WARNING, "Invalid group cipher (%d).",
 154:C:/Users/stapi/OneDrive/Desktop/GD32VW553/V1_MQTT_OK/GD32VW55X_Wifi_BLE_SDK/GD32VW55x_RELEASE_V1.0.2/MSDK/wpa_supplicant/src/rsn_supp\wpa_ie.c **** 			   group_cipher);
 155:C:/Users/stapi/OneDrive/Desktop/GD32VW553/V1_MQTT_OK/GD32VW55X_Wifi_BLE_SDK/GD32VW55x_RELEASE_V1.0.2/MSDK/wpa_supplicant/src/rsn_supp\wpa_ie.c **** 		return -1;
 156:C:/Users/stapi/OneDrive/Desktop/GD32VW553/V1_MQTT_OK/GD32VW55X_Wifi_BLE_SDK/GD32VW55x_RELEASE_V1.0.2/MSDK/wpa_supplicant/src/rsn_supp\wpa_ie.c **** 	}
 157:C:/Users/stapi/OneDrive/Desktop/GD32VW553/V1_MQTT_OK/GD32VW55X_Wifi_BLE_SDK/GD32VW55x_RELEASE_V1.0.2/MSDK/wpa_supplicant/src/rsn_supp\wpa_ie.c **** 	RSN_SELECTOR_PUT(pos, suite);
 158:C:/Users/stapi/OneDrive/Desktop/GD32VW553/V1_MQTT_OK/GD32VW55X_Wifi_BLE_SDK/GD32VW55x_RELEASE_V1.0.2/MSDK/wpa_supplicant/src/rsn_supp\wpa_ie.c **** 	pos += RSN_SELECTOR_LEN;
 159:C:/Users/stapi/OneDrive/Desktop/GD32VW553/V1_MQTT_OK/GD32VW55X_Wifi_BLE_SDK/GD32VW55x_RELEASE_V1.0.2/MSDK/wpa_supplicant/src/rsn_supp\wpa_ie.c **** 
 160:C:/Users/stapi/OneDrive/Desktop/GD32VW553/V1_MQTT_OK/GD32VW55X_Wifi_BLE_SDK/GD32VW55x_RELEASE_V1.0.2/MSDK/wpa_supplicant/src/rsn_supp\wpa_ie.c **** 	*pos++ = 1;
 161:C:/Users/stapi/OneDrive/Desktop/GD32VW553/V1_MQTT_OK/GD32VW55X_Wifi_BLE_SDK/GD32VW55x_RELEASE_V1.0.2/MSDK/wpa_supplicant/src/rsn_supp\wpa_ie.c **** 	*pos++ = 0;
 162:C:/Users/stapi/OneDrive/Desktop/GD32VW553/V1_MQTT_OK/GD32VW55X_Wifi_BLE_SDK/GD32VW55x_RELEASE_V1.0.2/MSDK/wpa_supplicant/src/rsn_supp\wpa_ie.c **** 	suite = wpa_cipher_to_suite(WPA_PROTO_RSN, pairwise_cipher);
 163:C:/Users/stapi/OneDrive/Desktop/GD32VW553/V1_MQTT_OK/GD32VW55X_Wifi_BLE_SDK/GD32VW55x_RELEASE_V1.0.2/MSDK/wpa_supplicant/src/rsn_supp\wpa_ie.c **** 	if (suite == 0 ||
 164:C:/Users/stapi/OneDrive/Desktop/GD32VW553/V1_MQTT_OK/GD32VW55X_Wifi_BLE_SDK/GD32VW55x_RELEASE_V1.0.2/MSDK/wpa_supplicant/src/rsn_supp\wpa_ie.c **** 	    (!wpa_cipher_valid_pairwise(pairwise_cipher) &&
 165:C:/Users/stapi/OneDrive/Desktop/GD32VW553/V1_MQTT_OK/GD32VW55X_Wifi_BLE_SDK/GD32VW55x_RELEASE_V1.0.2/MSDK/wpa_supplicant/src/rsn_supp\wpa_ie.c **** 	     pairwise_cipher != WPA_CIPHER_NONE)) {
 166:C:/Users/stapi/OneDrive/Desktop/GD32VW553/V1_MQTT_OK/GD32VW55X_Wifi_BLE_SDK/GD32VW55x_RELEASE_V1.0.2/MSDK/wpa_supplicant/src/rsn_supp\wpa_ie.c **** 		wpa_printf(MSG_WARNING, "Invalid pairwise cipher (%d).",
 167:C:/Users/stapi/OneDrive/Desktop/GD32VW553/V1_MQTT_OK/GD32VW55X_Wifi_BLE_SDK/GD32VW55x_RELEASE_V1.0.2/MSDK/wpa_supplicant/src/rsn_supp\wpa_ie.c **** 			   pairwise_cipher);
 168:C:/Users/stapi/OneDrive/Desktop/GD32VW553/V1_MQTT_OK/GD32VW55X_Wifi_BLE_SDK/GD32VW55x_RELEASE_V1.0.2/MSDK/wpa_supplicant/src/rsn_supp\wpa_ie.c **** 		return -1;
 169:C:/Users/stapi/OneDrive/Desktop/GD32VW553/V1_MQTT_OK/GD32VW55X_Wifi_BLE_SDK/GD32VW55x_RELEASE_V1.0.2/MSDK/wpa_supplicant/src/rsn_supp\wpa_ie.c **** 	}
 170:C:/Users/stapi/OneDrive/Desktop/GD32VW553/V1_MQTT_OK/GD32VW55X_Wifi_BLE_SDK/GD32VW55x_RELEASE_V1.0.2/MSDK/wpa_supplicant/src/rsn_supp\wpa_ie.c **** 	RSN_SELECTOR_PUT(pos, suite);
 171:C:/Users/stapi/OneDrive/Desktop/GD32VW553/V1_MQTT_OK/GD32VW55X_Wifi_BLE_SDK/GD32VW55x_RELEASE_V1.0.2/MSDK/wpa_supplicant/src/rsn_supp\wpa_ie.c **** 	pos += RSN_SELECTOR_LEN;
 172:C:/Users/stapi/OneDrive/Desktop/GD32VW553/V1_MQTT_OK/GD32VW55X_Wifi_BLE_SDK/GD32VW55x_RELEASE_V1.0.2/MSDK/wpa_supplicant/src/rsn_supp\wpa_ie.c **** 
 173:C:/Users/stapi/OneDrive/Desktop/GD32VW553/V1_MQTT_OK/GD32VW55X_Wifi_BLE_SDK/GD32VW55x_RELEASE_V1.0.2/MSDK/wpa_supplicant/src/rsn_supp\wpa_ie.c **** 	*pos++ = 1;
 174:C:/Users/stapi/OneDrive/Desktop/GD32VW553/V1_MQTT_OK/GD32VW55X_Wifi_BLE_SDK/GD32VW55x_RELEASE_V1.0.2/MSDK/wpa_supplicant/src/rsn_supp\wpa_ie.c **** 	*pos++ = 0;
 175:C:/Users/stapi/OneDrive/Desktop/GD32VW553/V1_MQTT_OK/GD32VW55X_Wifi_BLE_SDK/GD32VW55x_RELEASE_V1.0.2/MSDK/wpa_supplicant/src/rsn_supp\wpa_ie.c **** #ifdef IEEE8021X_EAPOL
 176:C:/Users/stapi/OneDrive/Desktop/GD32VW553/V1_MQTT_OK/GD32VW55X_Wifi_BLE_SDK/GD32VW55x_RELEASE_V1.0.2/MSDK/wpa_supplicant/src/rsn_supp\wpa_ie.c **** 	if (key_mgmt == WPA_KEY_MGMT_IEEE8021X) {
 177:C:/Users/stapi/OneDrive/Desktop/GD32VW553/V1_MQTT_OK/GD32VW55X_Wifi_BLE_SDK/GD32VW55x_RELEASE_V1.0.2/MSDK/wpa_supplicant/src/rsn_supp\wpa_ie.c **** 		RSN_SELECTOR_PUT(pos, RSN_AUTH_KEY_MGMT_UNSPEC_802_1X);
 178:C:/Users/stapi/OneDrive/Desktop/GD32VW553/V1_MQTT_OK/GD32VW55X_Wifi_BLE_SDK/GD32VW55x_RELEASE_V1.0.2/MSDK/wpa_supplicant/src/rsn_supp\wpa_ie.c **** 	} else if (key_mgmt == WPA_KEY_MGMT_IEEE8021X_SUITE_B_192) {
 179:C:/Users/stapi/OneDrive/Desktop/GD32VW553/V1_MQTT_OK/GD32VW55X_Wifi_BLE_SDK/GD32VW55x_RELEASE_V1.0.2/MSDK/wpa_supplicant/src/rsn_supp\wpa_ie.c **** 		RSN_SELECTOR_PUT(pos, RSN_AUTH_KEY_MGMT_802_1X_SUITE_B_192);
 180:C:/Users/stapi/OneDrive/Desktop/GD32VW553/V1_MQTT_OK/GD32VW55X_Wifi_BLE_SDK/GD32VW55x_RELEASE_V1.0.2/MSDK/wpa_supplicant/src/rsn_supp\wpa_ie.c **** 	} else if (key_mgmt == WPA_KEY_MGMT_IEEE8021X_SUITE_B) {
 181:C:/Users/stapi/OneDrive/Desktop/GD32VW553/V1_MQTT_OK/GD32VW55X_Wifi_BLE_SDK/GD32VW55x_RELEASE_V1.0.2/MSDK/wpa_supplicant/src/rsn_supp\wpa_ie.c **** 		RSN_SELECTOR_PUT(pos, RSN_AUTH_KEY_MGMT_802_1X_SUITE_B);
 182:C:/Users/stapi/OneDrive/Desktop/GD32VW553/V1_MQTT_OK/GD32VW55X_Wifi_BLE_SDK/GD32VW55x_RELEASE_V1.0.2/MSDK/wpa_supplicant/src/rsn_supp\wpa_ie.c **** 	} else if (key_mgmt == WPA_KEY_MGMT_IEEE8021X_SHA256) {
 183:C:/Users/stapi/OneDrive/Desktop/GD32VW553/V1_MQTT_OK/GD32VW55X_Wifi_BLE_SDK/GD32VW55x_RELEASE_V1.0.2/MSDK/wpa_supplicant/src/rsn_supp\wpa_ie.c **** 		RSN_SELECTOR_PUT(pos, RSN_AUTH_KEY_MGMT_802_1X_SHA256);
 184:C:/Users/stapi/OneDrive/Desktop/GD32VW553/V1_MQTT_OK/GD32VW55X_Wifi_BLE_SDK/GD32VW55x_RELEASE_V1.0.2/MSDK/wpa_supplicant/src/rsn_supp\wpa_ie.c **** 	} else if (key_mgmt == WPA_KEY_MGMT_CCKM) {
 185:C:/Users/stapi/OneDrive/Desktop/GD32VW553/V1_MQTT_OK/GD32VW55X_Wifi_BLE_SDK/GD32VW55x_RELEASE_V1.0.2/MSDK/wpa_supplicant/src/rsn_supp\wpa_ie.c **** 		RSN_SELECTOR_PUT(pos, RSN_AUTH_KEY_MGMT_CCKM);
 186:C:/Users/stapi/OneDrive/Desktop/GD32VW553/V1_MQTT_OK/GD32VW55X_Wifi_BLE_SDK/GD32VW55x_RELEASE_V1.0.2/MSDK/wpa_supplicant/src/rsn_supp\wpa_ie.c **** 	} else
 187:C:/Users/stapi/OneDrive/Desktop/GD32VW553/V1_MQTT_OK/GD32VW55X_Wifi_BLE_SDK/GD32VW55x_RELEASE_V1.0.2/MSDK/wpa_supplicant/src/rsn_supp\wpa_ie.c **** #endif /* IEEE8021X_EAPOL */
 188:C:/Users/stapi/OneDrive/Desktop/GD32VW553/V1_MQTT_OK/GD32VW55X_Wifi_BLE_SDK/GD32VW55x_RELEASE_V1.0.2/MSDK/wpa_supplicant/src/rsn_supp\wpa_ie.c **** 	if (key_mgmt == WPA_KEY_MGMT_PSK) {
 189:C:/Users/stapi/OneDrive/Desktop/GD32VW553/V1_MQTT_OK/GD32VW55X_Wifi_BLE_SDK/GD32VW55x_RELEASE_V1.0.2/MSDK/wpa_supplicant/src/rsn_supp\wpa_ie.c **** 		RSN_SELECTOR_PUT(pos, RSN_AUTH_KEY_MGMT_PSK_OVER_802_1X);
 190:C:/Users/stapi/OneDrive/Desktop/GD32VW553/V1_MQTT_OK/GD32VW55X_Wifi_BLE_SDK/GD32VW55x_RELEASE_V1.0.2/MSDK/wpa_supplicant/src/rsn_supp\wpa_ie.c **** #ifdef CONFIG_IEEE80211R
 191:C:/Users/stapi/OneDrive/Desktop/GD32VW553/V1_MQTT_OK/GD32VW55X_Wifi_BLE_SDK/GD32VW55x_RELEASE_V1.0.2/MSDK/wpa_supplicant/src/rsn_supp\wpa_ie.c **** 	} else if (key_mgmt == WPA_KEY_MGMT_FT_IEEE8021X) {
 192:C:/Users/stapi/OneDrive/Desktop/GD32VW553/V1_MQTT_OK/GD32VW55X_Wifi_BLE_SDK/GD32VW55x_RELEASE_V1.0.2/MSDK/wpa_supplicant/src/rsn_supp\wpa_ie.c **** 		RSN_SELECTOR_PUT(pos, RSN_AUTH_KEY_MGMT_FT_802_1X);
 193:C:/Users/stapi/OneDrive/Desktop/GD32VW553/V1_MQTT_OK/GD32VW55X_Wifi_BLE_SDK/GD32VW55x_RELEASE_V1.0.2/MSDK/wpa_supplicant/src/rsn_supp\wpa_ie.c **** #ifdef CONFIG_SHA384
 194:C:/Users/stapi/OneDrive/Desktop/GD32VW553/V1_MQTT_OK/GD32VW55X_Wifi_BLE_SDK/GD32VW55x_RELEASE_V1.0.2/MSDK/wpa_supplicant/src/rsn_supp\wpa_ie.c **** 	} else if (key_mgmt == WPA_KEY_MGMT_FT_IEEE8021X_SHA384) {
 195:C:/Users/stapi/OneDrive/Desktop/GD32VW553/V1_MQTT_OK/GD32VW55X_Wifi_BLE_SDK/GD32VW55x_RELEASE_V1.0.2/MSDK/wpa_supplicant/src/rsn_supp\wpa_ie.c **** 		RSN_SELECTOR_PUT(pos, RSN_AUTH_KEY_MGMT_FT_802_1X_SHA384);
 196:C:/Users/stapi/OneDrive/Desktop/GD32VW553/V1_MQTT_OK/GD32VW55X_Wifi_BLE_SDK/GD32VW55x_RELEASE_V1.0.2/MSDK/wpa_supplicant/src/rsn_supp\wpa_ie.c **** #endif /* CONFIG_SHA384 */
 197:C:/Users/stapi/OneDrive/Desktop/GD32VW553/V1_MQTT_OK/GD32VW55X_Wifi_BLE_SDK/GD32VW55x_RELEASE_V1.0.2/MSDK/wpa_supplicant/src/rsn_supp\wpa_ie.c **** 	} else if (key_mgmt == WPA_KEY_MGMT_FT_PSK) {
 198:C:/Users/stapi/OneDrive/Desktop/GD32VW553/V1_MQTT_OK/GD32VW55X_Wifi_BLE_SDK/GD32VW55x_RELEASE_V1.0.2/MSDK/wpa_supplicant/src/rsn_supp\wpa_ie.c **** 		RSN_SELECTOR_PUT(pos, RSN_AUTH_KEY_MGMT_FT_PSK);
 199:C:/Users/stapi/OneDrive/Desktop/GD32VW553/V1_MQTT_OK/GD32VW55X_Wifi_BLE_SDK/GD32VW55x_RELEASE_V1.0.2/MSDK/wpa_supplicant/src/rsn_supp\wpa_ie.c **** #endif /* CONFIG_IEEE80211R */
 200:C:/Users/stapi/OneDrive/Desktop/GD32VW553/V1_MQTT_OK/GD32VW55X_Wifi_BLE_SDK/GD32VW55x_RELEASE_V1.0.2/MSDK/wpa_supplicant/src/rsn_supp\wpa_ie.c **** 	} else if (key_mgmt == WPA_KEY_MGMT_PSK_SHA256) {
 201:C:/Users/stapi/OneDrive/Desktop/GD32VW553/V1_MQTT_OK/GD32VW55X_Wifi_BLE_SDK/GD32VW55x_RELEASE_V1.0.2/MSDK/wpa_supplicant/src/rsn_supp\wpa_ie.c **** 		RSN_SELECTOR_PUT(pos, RSN_AUTH_KEY_MGMT_PSK_SHA256);
 202:C:/Users/stapi/OneDrive/Desktop/GD32VW553/V1_MQTT_OK/GD32VW55X_Wifi_BLE_SDK/GD32VW55x_RELEASE_V1.0.2/MSDK/wpa_supplicant/src/rsn_supp\wpa_ie.c **** #ifdef CONFIG_SAE
 203:C:/Users/stapi/OneDrive/Desktop/GD32VW553/V1_MQTT_OK/GD32VW55X_Wifi_BLE_SDK/GD32VW55x_RELEASE_V1.0.2/MSDK/wpa_supplicant/src/rsn_supp\wpa_ie.c **** 	} else if (key_mgmt == WPA_KEY_MGMT_SAE) {
 204:C:/Users/stapi/OneDrive/Desktop/GD32VW553/V1_MQTT_OK/GD32VW55X_Wifi_BLE_SDK/GD32VW55x_RELEASE_V1.0.2/MSDK/wpa_supplicant/src/rsn_supp\wpa_ie.c **** 		RSN_SELECTOR_PUT(pos, RSN_AUTH_KEY_MGMT_SAE);
 205:C:/Users/stapi/OneDrive/Desktop/GD32VW553/V1_MQTT_OK/GD32VW55X_Wifi_BLE_SDK/GD32VW55x_RELEASE_V1.0.2/MSDK/wpa_supplicant/src/rsn_supp\wpa_ie.c **** 	} else if (key_mgmt == WPA_KEY_MGMT_FT_SAE) {
 206:C:/Users/stapi/OneDrive/Desktop/GD32VW553/V1_MQTT_OK/GD32VW55X_Wifi_BLE_SDK/GD32VW55x_RELEASE_V1.0.2/MSDK/wpa_supplicant/src/rsn_supp\wpa_ie.c **** 		RSN_SELECTOR_PUT(pos, RSN_AUTH_KEY_MGMT_FT_SAE);
 207:C:/Users/stapi/OneDrive/Desktop/GD32VW553/V1_MQTT_OK/GD32VW55X_Wifi_BLE_SDK/GD32VW55x_RELEASE_V1.0.2/MSDK/wpa_supplicant/src/rsn_supp\wpa_ie.c **** #endif /* CONFIG_SAE */
 208:C:/Users/stapi/OneDrive/Desktop/GD32VW553/V1_MQTT_OK/GD32VW55X_Wifi_BLE_SDK/GD32VW55x_RELEASE_V1.0.2/MSDK/wpa_supplicant/src/rsn_supp\wpa_ie.c **** #ifdef CONFIG_FILS
 209:C:/Users/stapi/OneDrive/Desktop/GD32VW553/V1_MQTT_OK/GD32VW55X_Wifi_BLE_SDK/GD32VW55x_RELEASE_V1.0.2/MSDK/wpa_supplicant/src/rsn_supp\wpa_ie.c **** 	} else if (key_mgmt & WPA_KEY_MGMT_FILS_SHA256) {
 210:C:/Users/stapi/OneDrive/Desktop/GD32VW553/V1_MQTT_OK/GD32VW55X_Wifi_BLE_SDK/GD32VW55x_RELEASE_V1.0.2/MSDK/wpa_supplicant/src/rsn_supp\wpa_ie.c **** 		RSN_SELECTOR_PUT(pos, RSN_AUTH_KEY_MGMT_FILS_SHA256);
 211:C:/Users/stapi/OneDrive/Desktop/GD32VW553/V1_MQTT_OK/GD32VW55X_Wifi_BLE_SDK/GD32VW55x_RELEASE_V1.0.2/MSDK/wpa_supplicant/src/rsn_supp\wpa_ie.c **** 	} else if (key_mgmt & WPA_KEY_MGMT_FILS_SHA384) {
 212:C:/Users/stapi/OneDrive/Desktop/GD32VW553/V1_MQTT_OK/GD32VW55X_Wifi_BLE_SDK/GD32VW55x_RELEASE_V1.0.2/MSDK/wpa_supplicant/src/rsn_supp\wpa_ie.c **** 		RSN_SELECTOR_PUT(pos, RSN_AUTH_KEY_MGMT_FILS_SHA384);
 213:C:/Users/stapi/OneDrive/Desktop/GD32VW553/V1_MQTT_OK/GD32VW55X_Wifi_BLE_SDK/GD32VW55x_RELEASE_V1.0.2/MSDK/wpa_supplicant/src/rsn_supp\wpa_ie.c **** #ifdef CONFIG_IEEE80211R
 214:C:/Users/stapi/OneDrive/Desktop/GD32VW553/V1_MQTT_OK/GD32VW55X_Wifi_BLE_SDK/GD32VW55x_RELEASE_V1.0.2/MSDK/wpa_supplicant/src/rsn_supp\wpa_ie.c **** 	} else if (key_mgmt & WPA_KEY_MGMT_FT_FILS_SHA256) {
 215:C:/Users/stapi/OneDrive/Desktop/GD32VW553/V1_MQTT_OK/GD32VW55X_Wifi_BLE_SDK/GD32VW55x_RELEASE_V1.0.2/MSDK/wpa_supplicant/src/rsn_supp\wpa_ie.c **** 		RSN_SELECTOR_PUT(pos, RSN_AUTH_KEY_MGMT_FT_FILS_SHA256);
 216:C:/Users/stapi/OneDrive/Desktop/GD32VW553/V1_MQTT_OK/GD32VW55X_Wifi_BLE_SDK/GD32VW55x_RELEASE_V1.0.2/MSDK/wpa_supplicant/src/rsn_supp\wpa_ie.c **** 	} else if (key_mgmt & WPA_KEY_MGMT_FT_FILS_SHA384) {
 217:C:/Users/stapi/OneDrive/Desktop/GD32VW553/V1_MQTT_OK/GD32VW55X_Wifi_BLE_SDK/GD32VW55x_RELEASE_V1.0.2/MSDK/wpa_supplicant/src/rsn_supp\wpa_ie.c **** 		RSN_SELECTOR_PUT(pos, RSN_AUTH_KEY_MGMT_FT_FILS_SHA384);
 218:C:/Users/stapi/OneDrive/Desktop/GD32VW553/V1_MQTT_OK/GD32VW55X_Wifi_BLE_SDK/GD32VW55x_RELEASE_V1.0.2/MSDK/wpa_supplicant/src/rsn_supp\wpa_ie.c **** #endif /* CONFIG_IEEE80211R */
 219:C:/Users/stapi/OneDrive/Desktop/GD32VW553/V1_MQTT_OK/GD32VW55X_Wifi_BLE_SDK/GD32VW55x_RELEASE_V1.0.2/MSDK/wpa_supplicant/src/rsn_supp\wpa_ie.c **** #endif /* CONFIG_FILS */
 220:C:/Users/stapi/OneDrive/Desktop/GD32VW553/V1_MQTT_OK/GD32VW55X_Wifi_BLE_SDK/GD32VW55x_RELEASE_V1.0.2/MSDK/wpa_supplicant/src/rsn_supp\wpa_ie.c **** #ifdef CONFIG_OWE
 221:C:/Users/stapi/OneDrive/Desktop/GD32VW553/V1_MQTT_OK/GD32VW55X_Wifi_BLE_SDK/GD32VW55x_RELEASE_V1.0.2/MSDK/wpa_supplicant/src/rsn_supp\wpa_ie.c **** 	} else if (key_mgmt & WPA_KEY_MGMT_OWE) {
 222:C:/Users/stapi/OneDrive/Desktop/GD32VW553/V1_MQTT_OK/GD32VW55X_Wifi_BLE_SDK/GD32VW55x_RELEASE_V1.0.2/MSDK/wpa_supplicant/src/rsn_supp\wpa_ie.c **** 		RSN_SELECTOR_PUT(pos, RSN_AUTH_KEY_MGMT_OWE);
 223:C:/Users/stapi/OneDrive/Desktop/GD32VW553/V1_MQTT_OK/GD32VW55X_Wifi_BLE_SDK/GD32VW55x_RELEASE_V1.0.2/MSDK/wpa_supplicant/src/rsn_supp\wpa_ie.c **** #endif /* CONFIG_OWE */
 224:C:/Users/stapi/OneDrive/Desktop/GD32VW553/V1_MQTT_OK/GD32VW55X_Wifi_BLE_SDK/GD32VW55x_RELEASE_V1.0.2/MSDK/wpa_supplicant/src/rsn_supp\wpa_ie.c **** #ifdef CONFIG_DPP
 225:C:/Users/stapi/OneDrive/Desktop/GD32VW553/V1_MQTT_OK/GD32VW55X_Wifi_BLE_SDK/GD32VW55x_RELEASE_V1.0.2/MSDK/wpa_supplicant/src/rsn_supp\wpa_ie.c **** 	} else if (key_mgmt & WPA_KEY_MGMT_DPP) {
 226:C:/Users/stapi/OneDrive/Desktop/GD32VW553/V1_MQTT_OK/GD32VW55X_Wifi_BLE_SDK/GD32VW55x_RELEASE_V1.0.2/MSDK/wpa_supplicant/src/rsn_supp\wpa_ie.c **** 		RSN_SELECTOR_PUT(pos, RSN_AUTH_KEY_MGMT_DPP);
 227:C:/Users/stapi/OneDrive/Desktop/GD32VW553/V1_MQTT_OK/GD32VW55X_Wifi_BLE_SDK/GD32VW55x_RELEASE_V1.0.2/MSDK/wpa_supplicant/src/rsn_supp\wpa_ie.c **** #endif /* CONFIG_DPP */
 228:C:/Users/stapi/OneDrive/Desktop/GD32VW553/V1_MQTT_OK/GD32VW55X_Wifi_BLE_SDK/GD32VW55x_RELEASE_V1.0.2/MSDK/wpa_supplicant/src/rsn_supp\wpa_ie.c **** #ifdef CONFIG_HS20
 229:C:/Users/stapi/OneDrive/Desktop/GD32VW553/V1_MQTT_OK/GD32VW55X_Wifi_BLE_SDK/GD32VW55x_RELEASE_V1.0.2/MSDK/wpa_supplicant/src/rsn_supp\wpa_ie.c **** 	} else if (key_mgmt & WPA_KEY_MGMT_OSEN) {
 230:C:/Users/stapi/OneDrive/Desktop/GD32VW553/V1_MQTT_OK/GD32VW55X_Wifi_BLE_SDK/GD32VW55x_RELEASE_V1.0.2/MSDK/wpa_supplicant/src/rsn_supp\wpa_ie.c **** 		RSN_SELECTOR_PUT(pos, RSN_AUTH_KEY_MGMT_OSEN);
 231:C:/Users/stapi/OneDrive/Desktop/GD32VW553/V1_MQTT_OK/GD32VW55X_Wifi_BLE_SDK/GD32VW55x_RELEASE_V1.0.2/MSDK/wpa_supplicant/src/rsn_supp\wpa_ie.c **** #endif /* CONFIG_HS20 */
 232:C:/Users/stapi/OneDrive/Desktop/GD32VW553/V1_MQTT_OK/GD32VW55X_Wifi_BLE_SDK/GD32VW55x_RELEASE_V1.0.2/MSDK/wpa_supplicant/src/rsn_supp\wpa_ie.c **** 	} else {
 233:C:/Users/stapi/OneDrive/Desktop/GD32VW553/V1_MQTT_OK/GD32VW55X_Wifi_BLE_SDK/GD32VW55x_RELEASE_V1.0.2/MSDK/wpa_supplicant/src/rsn_supp\wpa_ie.c **** 		wpa_printf(MSG_WARNING, "Invalid key management type (%d).",
 234:C:/Users/stapi/OneDrive/Desktop/GD32VW553/V1_MQTT_OK/GD32VW55X_Wifi_BLE_SDK/GD32VW55x_RELEASE_V1.0.2/MSDK/wpa_supplicant/src/rsn_supp\wpa_ie.c **** 			   key_mgmt);
 235:C:/Users/stapi/OneDrive/Desktop/GD32VW553/V1_MQTT_OK/GD32VW55X_Wifi_BLE_SDK/GD32VW55x_RELEASE_V1.0.2/MSDK/wpa_supplicant/src/rsn_supp\wpa_ie.c **** 		return -1;
 236:C:/Users/stapi/OneDrive/Desktop/GD32VW553/V1_MQTT_OK/GD32VW55X_Wifi_BLE_SDK/GD32VW55x_RELEASE_V1.0.2/MSDK/wpa_supplicant/src/rsn_supp\wpa_ie.c **** 	}
 237:C:/Users/stapi/OneDrive/Desktop/GD32VW553/V1_MQTT_OK/GD32VW55X_Wifi_BLE_SDK/GD32VW55x_RELEASE_V1.0.2/MSDK/wpa_supplicant/src/rsn_supp\wpa_ie.c **** 	pos += RSN_SELECTOR_LEN;
 238:C:/Users/stapi/OneDrive/Desktop/GD32VW553/V1_MQTT_OK/GD32VW55X_Wifi_BLE_SDK/GD32VW55x_RELEASE_V1.0.2/MSDK/wpa_supplicant/src/rsn_supp\wpa_ie.c **** 
 239:C:/Users/stapi/OneDrive/Desktop/GD32VW553/V1_MQTT_OK/GD32VW55X_Wifi_BLE_SDK/GD32VW55x_RELEASE_V1.0.2/MSDK/wpa_supplicant/src/rsn_supp\wpa_ie.c **** 	/* RSN Capabilities */
 240:C:/Users/stapi/OneDrive/Desktop/GD32VW553/V1_MQTT_OK/GD32VW55X_Wifi_BLE_SDK/GD32VW55x_RELEASE_V1.0.2/MSDK/wpa_supplicant/src/rsn_supp\wpa_ie.c **** 	WPA_PUT_LE16(pos, rsn_supp_capab(sm));
 241:C:/Users/stapi/OneDrive/Desktop/GD32VW553/V1_MQTT_OK/GD32VW55X_Wifi_BLE_SDK/GD32VW55x_RELEASE_V1.0.2/MSDK/wpa_supplicant/src/rsn_supp\wpa_ie.c **** 	pos += 2;
 242:C:/Users/stapi/OneDrive/Desktop/GD32VW553/V1_MQTT_OK/GD32VW55X_Wifi_BLE_SDK/GD32VW55x_RELEASE_V1.0.2/MSDK/wpa_supplicant/src/rsn_supp\wpa_ie.c **** 
 243:C:/Users/stapi/OneDrive/Desktop/GD32VW553/V1_MQTT_OK/GD32VW55X_Wifi_BLE_SDK/GD32VW55x_RELEASE_V1.0.2/MSDK/wpa_supplicant/src/rsn_supp\wpa_ie.c **** 	if (sm->cur_pmksa) {
 244:C:/Users/stapi/OneDrive/Desktop/GD32VW553/V1_MQTT_OK/GD32VW55X_Wifi_BLE_SDK/GD32VW55x_RELEASE_V1.0.2/MSDK/wpa_supplicant/src/rsn_supp\wpa_ie.c **** 		/* PMKID Count (2 octets, little endian) */
 245:C:/Users/stapi/OneDrive/Desktop/GD32VW553/V1_MQTT_OK/GD32VW55X_Wifi_BLE_SDK/GD32VW55x_RELEASE_V1.0.2/MSDK/wpa_supplicant/src/rsn_supp\wpa_ie.c **** 		*pos++ = 1;
 246:C:/Users/stapi/OneDrive/Desktop/GD32VW553/V1_MQTT_OK/GD32VW55X_Wifi_BLE_SDK/GD32VW55x_RELEASE_V1.0.2/MSDK/wpa_supplicant/src/rsn_supp\wpa_ie.c **** 		*pos++ = 0;
 247:C:/Users/stapi/OneDrive/Desktop/GD32VW553/V1_MQTT_OK/GD32VW55X_Wifi_BLE_SDK/GD32VW55x_RELEASE_V1.0.2/MSDK/wpa_supplicant/src/rsn_supp\wpa_ie.c **** 		/* PMKID */
 248:C:/Users/stapi/OneDrive/Desktop/GD32VW553/V1_MQTT_OK/GD32VW55X_Wifi_BLE_SDK/GD32VW55x_RELEASE_V1.0.2/MSDK/wpa_supplicant/src/rsn_supp\wpa_ie.c **** 		os_memcpy(pos, sm->cur_pmksa->pmkid, PMKID_LEN);
 249:C:/Users/stapi/OneDrive/Desktop/GD32VW553/V1_MQTT_OK/GD32VW55X_Wifi_BLE_SDK/GD32VW55x_RELEASE_V1.0.2/MSDK/wpa_supplicant/src/rsn_supp\wpa_ie.c **** 		pos += PMKID_LEN;
 250:C:/Users/stapi/OneDrive/Desktop/GD32VW553/V1_MQTT_OK/GD32VW55X_Wifi_BLE_SDK/GD32VW55x_RELEASE_V1.0.2/MSDK/wpa_supplicant/src/rsn_supp\wpa_ie.c **** 	}
 251:C:/Users/stapi/OneDrive/Desktop/GD32VW553/V1_MQTT_OK/GD32VW55X_Wifi_BLE_SDK/GD32VW55x_RELEASE_V1.0.2/MSDK/wpa_supplicant/src/rsn_supp\wpa_ie.c **** 
 252:C:/Users/stapi/OneDrive/Desktop/GD32VW553/V1_MQTT_OK/GD32VW55X_Wifi_BLE_SDK/GD32VW55x_RELEASE_V1.0.2/MSDK/wpa_supplicant/src/rsn_supp\wpa_ie.c **** 	if (wpa_cipher_valid_mgmt_group(mgmt_group_cipher)) {
 253:C:/Users/stapi/OneDrive/Desktop/GD32VW553/V1_MQTT_OK/GD32VW55X_Wifi_BLE_SDK/GD32VW55x_RELEASE_V1.0.2/MSDK/wpa_supplicant/src/rsn_supp\wpa_ie.c **** 		if (!sm->cur_pmksa) {
 254:C:/Users/stapi/OneDrive/Desktop/GD32VW553/V1_MQTT_OK/GD32VW55X_Wifi_BLE_SDK/GD32VW55x_RELEASE_V1.0.2/MSDK/wpa_supplicant/src/rsn_supp\wpa_ie.c **** 			/* PMKID Count */
 255:C:/Users/stapi/OneDrive/Desktop/GD32VW553/V1_MQTT_OK/GD32VW55X_Wifi_BLE_SDK/GD32VW55x_RELEASE_V1.0.2/MSDK/wpa_supplicant/src/rsn_supp\wpa_ie.c **** 			WPA_PUT_LE16(pos, 0);
 256:C:/Users/stapi/OneDrive/Desktop/GD32VW553/V1_MQTT_OK/GD32VW55X_Wifi_BLE_SDK/GD32VW55x_RELEASE_V1.0.2/MSDK/wpa_supplicant/src/rsn_supp\wpa_ie.c **** 			pos += 2;
 257:C:/Users/stapi/OneDrive/Desktop/GD32VW553/V1_MQTT_OK/GD32VW55X_Wifi_BLE_SDK/GD32VW55x_RELEASE_V1.0.2/MSDK/wpa_supplicant/src/rsn_supp\wpa_ie.c **** 		}
 258:C:/Users/stapi/OneDrive/Desktop/GD32VW553/V1_MQTT_OK/GD32VW55X_Wifi_BLE_SDK/GD32VW55x_RELEASE_V1.0.2/MSDK/wpa_supplicant/src/rsn_supp\wpa_ie.c **** 
 259:C:/Users/stapi/OneDrive/Desktop/GD32VW553/V1_MQTT_OK/GD32VW55X_Wifi_BLE_SDK/GD32VW55x_RELEASE_V1.0.2/MSDK/wpa_supplicant/src/rsn_supp\wpa_ie.c **** 		/* Management Group Cipher Suite */
 260:C:/Users/stapi/OneDrive/Desktop/GD32VW553/V1_MQTT_OK/GD32VW55X_Wifi_BLE_SDK/GD32VW55x_RELEASE_V1.0.2/MSDK/wpa_supplicant/src/rsn_supp\wpa_ie.c **** 		RSN_SELECTOR_PUT(pos, wpa_cipher_to_suite(WPA_PROTO_RSN,
 261:C:/Users/stapi/OneDrive/Desktop/GD32VW553/V1_MQTT_OK/GD32VW55X_Wifi_BLE_SDK/GD32VW55x_RELEASE_V1.0.2/MSDK/wpa_supplicant/src/rsn_supp\wpa_ie.c **** 							  mgmt_group_cipher));
 262:C:/Users/stapi/OneDrive/Desktop/GD32VW553/V1_MQTT_OK/GD32VW55X_Wifi_BLE_SDK/GD32VW55x_RELEASE_V1.0.2/MSDK/wpa_supplicant/src/rsn_supp\wpa_ie.c **** 		pos += RSN_SELECTOR_LEN;
 263:C:/Users/stapi/OneDrive/Desktop/GD32VW553/V1_MQTT_OK/GD32VW55X_Wifi_BLE_SDK/GD32VW55x_RELEASE_V1.0.2/MSDK/wpa_supplicant/src/rsn_supp\wpa_ie.c **** 	}
 264:C:/Users/stapi/OneDrive/Desktop/GD32VW553/V1_MQTT_OK/GD32VW55X_Wifi_BLE_SDK/GD32VW55x_RELEASE_V1.0.2/MSDK/wpa_supplicant/src/rsn_supp\wpa_ie.c **** 
 265:C:/Users/stapi/OneDrive/Desktop/GD32VW553/V1_MQTT_OK/GD32VW55X_Wifi_BLE_SDK/GD32VW55x_RELEASE_V1.0.2/MSDK/wpa_supplicant/src/rsn_supp\wpa_ie.c **** 	hdr->len = (pos - rsn_ie) - 2;
 266:C:/Users/stapi/OneDrive/Desktop/GD32VW553/V1_MQTT_OK/GD32VW55X_Wifi_BLE_SDK/GD32VW55x_RELEASE_V1.0.2/MSDK/wpa_supplicant/src/rsn_supp\wpa_ie.c **** 
 267:C:/Users/stapi/OneDrive/Desktop/GD32VW553/V1_MQTT_OK/GD32VW55X_Wifi_BLE_SDK/GD32VW55x_RELEASE_V1.0.2/MSDK/wpa_supplicant/src/rsn_supp\wpa_ie.c **** 	WPA_ASSERT((size_t) (pos - rsn_ie) <= rsn_ie_len);
 268:C:/Users/stapi/OneDrive/Desktop/GD32VW553/V1_MQTT_OK/GD32VW55X_Wifi_BLE_SDK/GD32VW55x_RELEASE_V1.0.2/MSDK/wpa_supplicant/src/rsn_supp\wpa_ie.c **** 
 269:C:/Users/stapi/OneDrive/Desktop/GD32VW553/V1_MQTT_OK/GD32VW55X_Wifi_BLE_SDK/GD32VW55x_RELEASE_V1.0.2/MSDK/wpa_supplicant/src/rsn_supp\wpa_ie.c **** 	return pos - rsn_ie;
 270:C:/Users/stapi/OneDrive/Desktop/GD32VW553/V1_MQTT_OK/GD32VW55X_Wifi_BLE_SDK/GD32VW55x_RELEASE_V1.0.2/MSDK/wpa_supplicant/src/rsn_supp\wpa_ie.c **** }
 271:C:/Users/stapi/OneDrive/Desktop/GD32VW553/V1_MQTT_OK/GD32VW55X_Wifi_BLE_SDK/GD32VW55x_RELEASE_V1.0.2/MSDK/wpa_supplicant/src/rsn_supp\wpa_ie.c **** 
 272:C:/Users/stapi/OneDrive/Desktop/GD32VW553/V1_MQTT_OK/GD32VW55X_Wifi_BLE_SDK/GD32VW55x_RELEASE_V1.0.2/MSDK/wpa_supplicant/src/rsn_supp\wpa_ie.c **** 
 273:C:/Users/stapi/OneDrive/Desktop/GD32VW553/V1_MQTT_OK/GD32VW55X_Wifi_BLE_SDK/GD32VW55x_RELEASE_V1.0.2/MSDK/wpa_supplicant/src/rsn_supp\wpa_ie.c **** #ifdef CONFIG_HS20
 274:C:/Users/stapi/OneDrive/Desktop/GD32VW553/V1_MQTT_OK/GD32VW55X_Wifi_BLE_SDK/GD32VW55x_RELEASE_V1.0.2/MSDK/wpa_supplicant/src/rsn_supp\wpa_ie.c **** static int wpa_gen_wpa_ie_osen(u8 *wpa_ie, size_t wpa_ie_len,
 275:C:/Users/stapi/OneDrive/Desktop/GD32VW553/V1_MQTT_OK/GD32VW55X_Wifi_BLE_SDK/GD32VW55x_RELEASE_V1.0.2/MSDK/wpa_supplicant/src/rsn_supp\wpa_ie.c **** 			       int pairwise_cipher, int group_cipher,
 276:C:/Users/stapi/OneDrive/Desktop/GD32VW553/V1_MQTT_OK/GD32VW55X_Wifi_BLE_SDK/GD32VW55x_RELEASE_V1.0.2/MSDK/wpa_supplicant/src/rsn_supp\wpa_ie.c **** 			       int key_mgmt)
 277:C:/Users/stapi/OneDrive/Desktop/GD32VW553/V1_MQTT_OK/GD32VW55X_Wifi_BLE_SDK/GD32VW55x_RELEASE_V1.0.2/MSDK/wpa_supplicant/src/rsn_supp\wpa_ie.c **** {
 278:C:/Users/stapi/OneDrive/Desktop/GD32VW553/V1_MQTT_OK/GD32VW55X_Wifi_BLE_SDK/GD32VW55x_RELEASE_V1.0.2/MSDK/wpa_supplicant/src/rsn_supp\wpa_ie.c **** 	u8 *pos, *len;
 279:C:/Users/stapi/OneDrive/Desktop/GD32VW553/V1_MQTT_OK/GD32VW55X_Wifi_BLE_SDK/GD32VW55x_RELEASE_V1.0.2/MSDK/wpa_supplicant/src/rsn_supp\wpa_ie.c **** 	u32 suite;
 280:C:/Users/stapi/OneDrive/Desktop/GD32VW553/V1_MQTT_OK/GD32VW55X_Wifi_BLE_SDK/GD32VW55x_RELEASE_V1.0.2/MSDK/wpa_supplicant/src/rsn_supp\wpa_ie.c **** 
 281:C:/Users/stapi/OneDrive/Desktop/GD32VW553/V1_MQTT_OK/GD32VW55X_Wifi_BLE_SDK/GD32VW55x_RELEASE_V1.0.2/MSDK/wpa_supplicant/src/rsn_supp\wpa_ie.c **** 	if (wpa_ie_len < 2 + 4 + RSN_SELECTOR_LEN +
 282:C:/Users/stapi/OneDrive/Desktop/GD32VW553/V1_MQTT_OK/GD32VW55X_Wifi_BLE_SDK/GD32VW55x_RELEASE_V1.0.2/MSDK/wpa_supplicant/src/rsn_supp\wpa_ie.c **** 	    2 + RSN_SELECTOR_LEN + 2 + RSN_SELECTOR_LEN)
 283:C:/Users/stapi/OneDrive/Desktop/GD32VW553/V1_MQTT_OK/GD32VW55X_Wifi_BLE_SDK/GD32VW55x_RELEASE_V1.0.2/MSDK/wpa_supplicant/src/rsn_supp\wpa_ie.c **** 		return -1;
 284:C:/Users/stapi/OneDrive/Desktop/GD32VW553/V1_MQTT_OK/GD32VW55X_Wifi_BLE_SDK/GD32VW55x_RELEASE_V1.0.2/MSDK/wpa_supplicant/src/rsn_supp\wpa_ie.c **** 
 285:C:/Users/stapi/OneDrive/Desktop/GD32VW553/V1_MQTT_OK/GD32VW55X_Wifi_BLE_SDK/GD32VW55x_RELEASE_V1.0.2/MSDK/wpa_supplicant/src/rsn_supp\wpa_ie.c **** 	pos = wpa_ie;
 286:C:/Users/stapi/OneDrive/Desktop/GD32VW553/V1_MQTT_OK/GD32VW55X_Wifi_BLE_SDK/GD32VW55x_RELEASE_V1.0.2/MSDK/wpa_supplicant/src/rsn_supp\wpa_ie.c **** 	*pos++ = WLAN_EID_VENDOR_SPECIFIC;
 287:C:/Users/stapi/OneDrive/Desktop/GD32VW553/V1_MQTT_OK/GD32VW55X_Wifi_BLE_SDK/GD32VW55x_RELEASE_V1.0.2/MSDK/wpa_supplicant/src/rsn_supp\wpa_ie.c **** 	len = pos++; /* to be filled */
 288:C:/Users/stapi/OneDrive/Desktop/GD32VW553/V1_MQTT_OK/GD32VW55X_Wifi_BLE_SDK/GD32VW55x_RELEASE_V1.0.2/MSDK/wpa_supplicant/src/rsn_supp\wpa_ie.c **** 	WPA_PUT_BE24(pos, OUI_WFA);
 289:C:/Users/stapi/OneDrive/Desktop/GD32VW553/V1_MQTT_OK/GD32VW55X_Wifi_BLE_SDK/GD32VW55x_RELEASE_V1.0.2/MSDK/wpa_supplicant/src/rsn_supp\wpa_ie.c **** 	pos += 3;
 290:C:/Users/stapi/OneDrive/Desktop/GD32VW553/V1_MQTT_OK/GD32VW55X_Wifi_BLE_SDK/GD32VW55x_RELEASE_V1.0.2/MSDK/wpa_supplicant/src/rsn_supp\wpa_ie.c **** 	*pos++ = HS20_OSEN_OUI_TYPE;
 291:C:/Users/stapi/OneDrive/Desktop/GD32VW553/V1_MQTT_OK/GD32VW55X_Wifi_BLE_SDK/GD32VW55x_RELEASE_V1.0.2/MSDK/wpa_supplicant/src/rsn_supp\wpa_ie.c **** 
 292:C:/Users/stapi/OneDrive/Desktop/GD32VW553/V1_MQTT_OK/GD32VW55X_Wifi_BLE_SDK/GD32VW55x_RELEASE_V1.0.2/MSDK/wpa_supplicant/src/rsn_supp\wpa_ie.c **** 	/* Group Data Cipher Suite */
 293:C:/Users/stapi/OneDrive/Desktop/GD32VW553/V1_MQTT_OK/GD32VW55X_Wifi_BLE_SDK/GD32VW55x_RELEASE_V1.0.2/MSDK/wpa_supplicant/src/rsn_supp\wpa_ie.c **** 	suite = wpa_cipher_to_suite(WPA_PROTO_RSN, group_cipher);
 294:C:/Users/stapi/OneDrive/Desktop/GD32VW553/V1_MQTT_OK/GD32VW55X_Wifi_BLE_SDK/GD32VW55x_RELEASE_V1.0.2/MSDK/wpa_supplicant/src/rsn_supp\wpa_ie.c **** 	if (suite == 0) {
 295:C:/Users/stapi/OneDrive/Desktop/GD32VW553/V1_MQTT_OK/GD32VW55X_Wifi_BLE_SDK/GD32VW55x_RELEASE_V1.0.2/MSDK/wpa_supplicant/src/rsn_supp\wpa_ie.c **** 		wpa_printf(MSG_WARNING, "Invalid group cipher (%d).",
 296:C:/Users/stapi/OneDrive/Desktop/GD32VW553/V1_MQTT_OK/GD32VW55X_Wifi_BLE_SDK/GD32VW55x_RELEASE_V1.0.2/MSDK/wpa_supplicant/src/rsn_supp\wpa_ie.c **** 			   group_cipher);
 297:C:/Users/stapi/OneDrive/Desktop/GD32VW553/V1_MQTT_OK/GD32VW55X_Wifi_BLE_SDK/GD32VW55x_RELEASE_V1.0.2/MSDK/wpa_supplicant/src/rsn_supp\wpa_ie.c **** 		return -1;
 298:C:/Users/stapi/OneDrive/Desktop/GD32VW553/V1_MQTT_OK/GD32VW55X_Wifi_BLE_SDK/GD32VW55x_RELEASE_V1.0.2/MSDK/wpa_supplicant/src/rsn_supp\wpa_ie.c **** 	}
 299:C:/Users/stapi/OneDrive/Desktop/GD32VW553/V1_MQTT_OK/GD32VW55X_Wifi_BLE_SDK/GD32VW55x_RELEASE_V1.0.2/MSDK/wpa_supplicant/src/rsn_supp\wpa_ie.c **** 	RSN_SELECTOR_PUT(pos, suite);
 300:C:/Users/stapi/OneDrive/Desktop/GD32VW553/V1_MQTT_OK/GD32VW55X_Wifi_BLE_SDK/GD32VW55x_RELEASE_V1.0.2/MSDK/wpa_supplicant/src/rsn_supp\wpa_ie.c **** 	pos += RSN_SELECTOR_LEN;
 301:C:/Users/stapi/OneDrive/Desktop/GD32VW553/V1_MQTT_OK/GD32VW55X_Wifi_BLE_SDK/GD32VW55x_RELEASE_V1.0.2/MSDK/wpa_supplicant/src/rsn_supp\wpa_ie.c **** 
 302:C:/Users/stapi/OneDrive/Desktop/GD32VW553/V1_MQTT_OK/GD32VW55X_Wifi_BLE_SDK/GD32VW55x_RELEASE_V1.0.2/MSDK/wpa_supplicant/src/rsn_supp\wpa_ie.c **** 	/* Pairwise Cipher Suite Count and List */
 303:C:/Users/stapi/OneDrive/Desktop/GD32VW553/V1_MQTT_OK/GD32VW55X_Wifi_BLE_SDK/GD32VW55x_RELEASE_V1.0.2/MSDK/wpa_supplicant/src/rsn_supp\wpa_ie.c **** 	WPA_PUT_LE16(pos, 1);
 304:C:/Users/stapi/OneDrive/Desktop/GD32VW553/V1_MQTT_OK/GD32VW55X_Wifi_BLE_SDK/GD32VW55x_RELEASE_V1.0.2/MSDK/wpa_supplicant/src/rsn_supp\wpa_ie.c **** 	pos += 2;
 305:C:/Users/stapi/OneDrive/Desktop/GD32VW553/V1_MQTT_OK/GD32VW55X_Wifi_BLE_SDK/GD32VW55x_RELEASE_V1.0.2/MSDK/wpa_supplicant/src/rsn_supp\wpa_ie.c **** 	suite = wpa_cipher_to_suite(WPA_PROTO_RSN, pairwise_cipher);
 306:C:/Users/stapi/OneDrive/Desktop/GD32VW553/V1_MQTT_OK/GD32VW55X_Wifi_BLE_SDK/GD32VW55x_RELEASE_V1.0.2/MSDK/wpa_supplicant/src/rsn_supp\wpa_ie.c **** 	if (suite == 0 ||
 307:C:/Users/stapi/OneDrive/Desktop/GD32VW553/V1_MQTT_OK/GD32VW55X_Wifi_BLE_SDK/GD32VW55x_RELEASE_V1.0.2/MSDK/wpa_supplicant/src/rsn_supp\wpa_ie.c **** 	    (!wpa_cipher_valid_pairwise(pairwise_cipher) &&
 308:C:/Users/stapi/OneDrive/Desktop/GD32VW553/V1_MQTT_OK/GD32VW55X_Wifi_BLE_SDK/GD32VW55x_RELEASE_V1.0.2/MSDK/wpa_supplicant/src/rsn_supp\wpa_ie.c **** 	     pairwise_cipher != WPA_CIPHER_NONE)) {
 309:C:/Users/stapi/OneDrive/Desktop/GD32VW553/V1_MQTT_OK/GD32VW55X_Wifi_BLE_SDK/GD32VW55x_RELEASE_V1.0.2/MSDK/wpa_supplicant/src/rsn_supp\wpa_ie.c **** 		wpa_printf(MSG_WARNING, "Invalid pairwise cipher (%d).",
 310:C:/Users/stapi/OneDrive/Desktop/GD32VW553/V1_MQTT_OK/GD32VW55X_Wifi_BLE_SDK/GD32VW55x_RELEASE_V1.0.2/MSDK/wpa_supplicant/src/rsn_supp\wpa_ie.c **** 			   pairwise_cipher);
 311:C:/Users/stapi/OneDrive/Desktop/GD32VW553/V1_MQTT_OK/GD32VW55X_Wifi_BLE_SDK/GD32VW55x_RELEASE_V1.0.2/MSDK/wpa_supplicant/src/rsn_supp\wpa_ie.c **** 		return -1;
 312:C:/Users/stapi/OneDrive/Desktop/GD32VW553/V1_MQTT_OK/GD32VW55X_Wifi_BLE_SDK/GD32VW55x_RELEASE_V1.0.2/MSDK/wpa_supplicant/src/rsn_supp\wpa_ie.c **** 	}
 313:C:/Users/stapi/OneDrive/Desktop/GD32VW553/V1_MQTT_OK/GD32VW55X_Wifi_BLE_SDK/GD32VW55x_RELEASE_V1.0.2/MSDK/wpa_supplicant/src/rsn_supp\wpa_ie.c **** 	RSN_SELECTOR_PUT(pos, suite);
 314:C:/Users/stapi/OneDrive/Desktop/GD32VW553/V1_MQTT_OK/GD32VW55X_Wifi_BLE_SDK/GD32VW55x_RELEASE_V1.0.2/MSDK/wpa_supplicant/src/rsn_supp\wpa_ie.c **** 	pos += RSN_SELECTOR_LEN;
 315:C:/Users/stapi/OneDrive/Desktop/GD32VW553/V1_MQTT_OK/GD32VW55X_Wifi_BLE_SDK/GD32VW55x_RELEASE_V1.0.2/MSDK/wpa_supplicant/src/rsn_supp\wpa_ie.c **** 
 316:C:/Users/stapi/OneDrive/Desktop/GD32VW553/V1_MQTT_OK/GD32VW55X_Wifi_BLE_SDK/GD32VW55x_RELEASE_V1.0.2/MSDK/wpa_supplicant/src/rsn_supp\wpa_ie.c **** 	/* AKM Suite Count and List */
 317:C:/Users/stapi/OneDrive/Desktop/GD32VW553/V1_MQTT_OK/GD32VW55X_Wifi_BLE_SDK/GD32VW55x_RELEASE_V1.0.2/MSDK/wpa_supplicant/src/rsn_supp\wpa_ie.c **** 	WPA_PUT_LE16(pos, 1);
 318:C:/Users/stapi/OneDrive/Desktop/GD32VW553/V1_MQTT_OK/GD32VW55X_Wifi_BLE_SDK/GD32VW55x_RELEASE_V1.0.2/MSDK/wpa_supplicant/src/rsn_supp\wpa_ie.c **** 	pos += 2;
 319:C:/Users/stapi/OneDrive/Desktop/GD32VW553/V1_MQTT_OK/GD32VW55X_Wifi_BLE_SDK/GD32VW55x_RELEASE_V1.0.2/MSDK/wpa_supplicant/src/rsn_supp\wpa_ie.c **** 	RSN_SELECTOR_PUT(pos, RSN_AUTH_KEY_MGMT_OSEN);
 320:C:/Users/stapi/OneDrive/Desktop/GD32VW553/V1_MQTT_OK/GD32VW55X_Wifi_BLE_SDK/GD32VW55x_RELEASE_V1.0.2/MSDK/wpa_supplicant/src/rsn_supp\wpa_ie.c **** 	pos += RSN_SELECTOR_LEN;
 321:C:/Users/stapi/OneDrive/Desktop/GD32VW553/V1_MQTT_OK/GD32VW55X_Wifi_BLE_SDK/GD32VW55x_RELEASE_V1.0.2/MSDK/wpa_supplicant/src/rsn_supp\wpa_ie.c **** 
 322:C:/Users/stapi/OneDrive/Desktop/GD32VW553/V1_MQTT_OK/GD32VW55X_Wifi_BLE_SDK/GD32VW55x_RELEASE_V1.0.2/MSDK/wpa_supplicant/src/rsn_supp\wpa_ie.c **** 	*len = pos - len - 1;
 323:C:/Users/stapi/OneDrive/Desktop/GD32VW553/V1_MQTT_OK/GD32VW55X_Wifi_BLE_SDK/GD32VW55x_RELEASE_V1.0.2/MSDK/wpa_supplicant/src/rsn_supp\wpa_ie.c **** 
 324:C:/Users/stapi/OneDrive/Desktop/GD32VW553/V1_MQTT_OK/GD32VW55X_Wifi_BLE_SDK/GD32VW55x_RELEASE_V1.0.2/MSDK/wpa_supplicant/src/rsn_supp\wpa_ie.c **** 	WPA_ASSERT((size_t) (pos - wpa_ie) <= wpa_ie_len);
 325:C:/Users/stapi/OneDrive/Desktop/GD32VW553/V1_MQTT_OK/GD32VW55X_Wifi_BLE_SDK/GD32VW55x_RELEASE_V1.0.2/MSDK/wpa_supplicant/src/rsn_supp\wpa_ie.c **** 
 326:C:/Users/stapi/OneDrive/Desktop/GD32VW553/V1_MQTT_OK/GD32VW55X_Wifi_BLE_SDK/GD32VW55x_RELEASE_V1.0.2/MSDK/wpa_supplicant/src/rsn_supp\wpa_ie.c **** 	return pos - wpa_ie;
 327:C:/Users/stapi/OneDrive/Desktop/GD32VW553/V1_MQTT_OK/GD32VW55X_Wifi_BLE_SDK/GD32VW55x_RELEASE_V1.0.2/MSDK/wpa_supplicant/src/rsn_supp\wpa_ie.c **** }
 328:C:/Users/stapi/OneDrive/Desktop/GD32VW553/V1_MQTT_OK/GD32VW55X_Wifi_BLE_SDK/GD32VW55x_RELEASE_V1.0.2/MSDK/wpa_supplicant/src/rsn_supp\wpa_ie.c **** #endif /* CONFIG_HS20 */
 329:C:/Users/stapi/OneDrive/Desktop/GD32VW553/V1_MQTT_OK/GD32VW55X_Wifi_BLE_SDK/GD32VW55x_RELEASE_V1.0.2/MSDK/wpa_supplicant/src/rsn_supp\wpa_ie.c **** 
 330:C:/Users/stapi/OneDrive/Desktop/GD32VW553/V1_MQTT_OK/GD32VW55X_Wifi_BLE_SDK/GD32VW55x_RELEASE_V1.0.2/MSDK/wpa_supplicant/src/rsn_supp\wpa_ie.c **** 
 331:C:/Users/stapi/OneDrive/Desktop/GD32VW553/V1_MQTT_OK/GD32VW55X_Wifi_BLE_SDK/GD32VW55x_RELEASE_V1.0.2/MSDK/wpa_supplicant/src/rsn_supp\wpa_ie.c **** /**
 332:C:/Users/stapi/OneDrive/Desktop/GD32VW553/V1_MQTT_OK/GD32VW55X_Wifi_BLE_SDK/GD32VW55x_RELEASE_V1.0.2/MSDK/wpa_supplicant/src/rsn_supp\wpa_ie.c ****  * wpa_gen_wpa_ie - Generate WPA/RSN IE based on current security policy
 333:C:/Users/stapi/OneDrive/Desktop/GD32VW553/V1_MQTT_OK/GD32VW55X_Wifi_BLE_SDK/GD32VW55x_RELEASE_V1.0.2/MSDK/wpa_supplicant/src/rsn_supp\wpa_ie.c ****  * @sm: Pointer to WPA state machine data from wpa_sm_init()
 334:C:/Users/stapi/OneDrive/Desktop/GD32VW553/V1_MQTT_OK/GD32VW55X_Wifi_BLE_SDK/GD32VW55x_RELEASE_V1.0.2/MSDK/wpa_supplicant/src/rsn_supp\wpa_ie.c ****  * @wpa_ie: Pointer to memory area for the generated WPA/RSN IE
 335:C:/Users/stapi/OneDrive/Desktop/GD32VW553/V1_MQTT_OK/GD32VW55X_Wifi_BLE_SDK/GD32VW55x_RELEASE_V1.0.2/MSDK/wpa_supplicant/src/rsn_supp\wpa_ie.c ****  * @wpa_ie_len: Maximum length of the generated WPA/RSN IE
 336:C:/Users/stapi/OneDrive/Desktop/GD32VW553/V1_MQTT_OK/GD32VW55X_Wifi_BLE_SDK/GD32VW55x_RELEASE_V1.0.2/MSDK/wpa_supplicant/src/rsn_supp\wpa_ie.c ****  * Returns: Length of the generated WPA/RSN IE or -1 on failure
 337:C:/Users/stapi/OneDrive/Desktop/GD32VW553/V1_MQTT_OK/GD32VW55X_Wifi_BLE_SDK/GD32VW55x_RELEASE_V1.0.2/MSDK/wpa_supplicant/src/rsn_supp\wpa_ie.c ****  */
 338:C:/Users/stapi/OneDrive/Desktop/GD32VW553/V1_MQTT_OK/GD32VW55X_Wifi_BLE_SDK/GD32VW55x_RELEASE_V1.0.2/MSDK/wpa_supplicant/src/rsn_supp\wpa_ie.c **** int wpa_gen_wpa_ie(struct wpa_sm *sm, u8 *wpa_ie, size_t wpa_ie_len)
 339:C:/Users/stapi/OneDrive/Desktop/GD32VW553/V1_MQTT_OK/GD32VW55X_Wifi_BLE_SDK/GD32VW55x_RELEASE_V1.0.2/MSDK/wpa_supplicant/src/rsn_supp\wpa_ie.c **** {
 160              		.loc 1 339 1 is_stmt 1
 161              		.cfi_startproc
 162              	.LVL13:
 163 0000 17030000 		call	t0,__riscv_save_7
 163      E7020300 
 164              		.cfi_offset 22, -32
 165              		.cfi_offset 21, -28
 166              		.cfi_offset 20, -24
 167              		.cfi_offset 19, -20
 168              		.cfi_offset 18, -16
 169              		.cfi_offset 9, -12
 170              		.cfi_offset 8, -8
 171              		.cfi_offset 1, -4
 172              		.cfi_def_cfa_offset 32
 340:C:/Users/stapi/OneDrive/Desktop/GD32VW553/V1_MQTT_OK/GD32VW55X_Wifi_BLE_SDK/GD32VW55x_RELEASE_V1.0.2/MSDK/wpa_supplicant/src/rsn_supp\wpa_ie.c **** 	if (sm->proto == WPA_PROTO_RSN)
 173              		.loc 1 340 2
 341:C:/Users/stapi/OneDrive/Desktop/GD32VW553/V1_MQTT_OK/GD32VW55X_Wifi_BLE_SDK/GD32VW55x_RELEASE_V1.0.2/MSDK/wpa_supplicant/src/rsn_supp\wpa_ie.c **** 		return wpa_gen_wpa_ie_rsn(wpa_ie, wpa_ie_len,
 174              		.loc 1 341 10 is_stmt 0
 175 0008 13070540 		addi	a4,a0,1024
 340:C:/Users/stapi/OneDrive/Desktop/GD32VW553/V1_MQTT_OK/GD32VW55X_Wifi_BLE_SDK/GD32VW55x_RELEASE_V1.0.2/MSDK/wpa_supplicant/src/rsn_supp\wpa_ie.c **** 	if (sm->proto == WPA_PROTO_RSN)
 176              		.loc 1 340 5
 177 000c 745B     		lw	a3,116(a4)
 178              		.loc 1 341 10
 179 000e 83298707 		lw	s3,120(a4)
 339:C:/Users/stapi/OneDrive/Desktop/GD32VW553/V1_MQTT_OK/GD32VW55X_Wifi_BLE_SDK/GD32VW55x_RELEASE_V1.0.2/MSDK/wpa_supplicant/src/rsn_supp\wpa_ie.c **** 	if (sm->proto == WPA_PROTO_RSN)
 180              		.loc 1 339 1
 181 0012 B287     		mv	a5,a2
 182              		.loc 1 341 10
 183 0014 705F     		lw	a2,124(a4)
 184              	.LVL14:
 340:C:/Users/stapi/OneDrive/Desktop/GD32VW553/V1_MQTT_OK/GD32VW55X_Wifi_BLE_SDK/GD32VW55x_RELEASE_V1.0.2/MSDK/wpa_supplicant/src/rsn_supp\wpa_ie.c **** 	if (sm->proto == WPA_PROTO_RSN)
 185              		.loc 1 340 5
 186 0016 0947     		li	a4,2
 187              		.loc 1 341 10
 188 0018 83240548 		lw	s1,1152(a0)
 339:C:/Users/stapi/OneDrive/Desktop/GD32VW553/V1_MQTT_OK/GD32VW55X_Wifi_BLE_SDK/GD32VW55x_RELEASE_V1.0.2/MSDK/wpa_supplicant/src/rsn_supp\wpa_ie.c **** 	if (sm->proto == WPA_PROTO_RSN)
 189              		.loc 1 339 1
 190 001c 4111     		addi	sp,sp,-16
 191              		.cfi_def_cfa_offset 48
 339:C:/Users/stapi/OneDrive/Desktop/GD32VW553/V1_MQTT_OK/GD32VW55X_Wifi_BLE_SDK/GD32VW55x_RELEASE_V1.0.2/MSDK/wpa_supplicant/src/rsn_supp\wpa_ie.c **** 	if (sm->proto == WPA_PROTO_RSN)
 192              		.loc 1 339 1
 193 001e 2E84     		mv	s0,a1
 340:C:/Users/stapi/OneDrive/Desktop/GD32VW553/V1_MQTT_OK/GD32VW55X_Wifi_BLE_SDK/GD32VW55x_RELEASE_V1.0.2/MSDK/wpa_supplicant/src/rsn_supp\wpa_ie.c **** 	if (sm->proto == WPA_PROTO_RSN)
 194              		.loc 1 340 5
 195 0020 6398E61E 		bne	a3,a4,.L24
 196              	.LBB64:
 197              	.LBB65:
 139:C:/Users/stapi/OneDrive/Desktop/GD32VW553/V1_MQTT_OK/GD32VW55X_Wifi_BLE_SDK/GD32VW55x_RELEASE_V1.0.2/MSDK/wpa_supplicant/src/rsn_supp\wpa_ie.c **** 	    (sm->cur_pmksa ? 2 + PMKID_LEN : 0)) {
 198              		.loc 1 139 54
 199 0024 8326053C 		lw	a3,960(a0)
 200              	.LBE65:
 201              	.LBE64:
 202              		.loc 1 341 10
 203 0028 832A4548 		lw	s5,1156(a0)
 204 002c 2A89     		mv	s2,a0
 205              		.loc 1 341 3 is_stmt 1
 206              	.LVL15:
 207              	.LBB96:
 208              	.LBB92:
 134:C:/Users/stapi/OneDrive/Desktop/GD32VW553/V1_MQTT_OK/GD32VW55X_Wifi_BLE_SDK/GD32VW55x_RELEASE_V1.0.2/MSDK/wpa_supplicant/src/rsn_supp\wpa_ie.c **** 	struct rsn_ie_hdr *hdr;
 209              		.loc 1 134 2
 135:C:/Users/stapi/OneDrive/Desktop/GD32VW553/V1_MQTT_OK/GD32VW55X_Wifi_BLE_SDK/GD32VW55x_RELEASE_V1.0.2/MSDK/wpa_supplicant/src/rsn_supp\wpa_ie.c **** 	u32 suite;
 210              		.loc 1 135 2
 136:C:/Users/stapi/OneDrive/Desktop/GD32VW553/V1_MQTT_OK/GD32VW55X_Wifi_BLE_SDK/GD32VW55x_RELEASE_V1.0.2/MSDK/wpa_supplicant/src/rsn_supp\wpa_ie.c **** 
 211              		.loc 1 136 2
 138:C:/Users/stapi/OneDrive/Desktop/GD32VW553/V1_MQTT_OK/GD32VW55X_Wifi_BLE_SDK/GD32VW55x_RELEASE_V1.0.2/MSDK/wpa_supplicant/src/rsn_supp\wpa_ie.c **** 	    2 + RSN_SELECTOR_LEN + 2 + RSN_SELECTOR_LEN + 2 +
 212              		.loc 1 138 2
 139:C:/Users/stapi/OneDrive/Desktop/GD32VW553/V1_MQTT_OK/GD32VW55X_Wifi_BLE_SDK/GD32VW55x_RELEASE_V1.0.2/MSDK/wpa_supplicant/src/rsn_supp\wpa_ie.c **** 	    (sm->cur_pmksa ? 2 + PMKID_LEN : 0)) {
 213              		.loc 1 139 54 is_stmt 0
 214 002e 13078002 		li	a4,40
 215 0032 91E2     		bne	a3,zero,.L25
 216 0034 5947     		li	a4,22
 217              	.L25:
 138:C:/Users/stapi/OneDrive/Desktop/GD32VW553/V1_MQTT_OK/GD32VW55X_Wifi_BLE_SDK/GD32VW55x_RELEASE_V1.0.2/MSDK/wpa_supplicant/src/rsn_supp\wpa_ie.c **** 	    2 + RSN_SELECTOR_LEN + 2 + RSN_SELECTOR_LEN + 2 +
 218              		.loc 1 138 5
 219 0036 63F2E702 		bgeu	a5,a4,.L26
 141:C:/Users/stapi/OneDrive/Desktop/GD32VW553/V1_MQTT_OK/GD32VW55X_Wifi_BLE_SDK/GD32VW55x_RELEASE_V1.0.2/MSDK/wpa_supplicant/src/rsn_supp\wpa_ie.c **** 			   (unsigned long) rsn_ie_len);
 220              		.loc 1 141 3 is_stmt 1
 221 003a B7050000 		lui	a1,%hi(.LC0)
 222              	.LVL16:
 223 003e 3E86     		mv	a2,a5
 224 0040 93850500 		addi	a1,a1,%lo(.LC0)
 225 0044 0945     		li	a0,2
 226              	.LVL17:
 227              	.L55:
 153:C:/Users/stapi/OneDrive/Desktop/GD32VW553/V1_MQTT_OK/GD32VW55X_Wifi_BLE_SDK/GD32VW55x_RELEASE_V1.0.2/MSDK/wpa_supplicant/src/rsn_supp\wpa_ie.c **** 			   group_cipher);
 228              		.loc 1 153 3 is_stmt 0
 229 0046 97000000 		call	wpa_printf
 229      E7800000 
 230              	.LVL18:
 155:C:/Users/stapi/OneDrive/Desktop/GD32VW553/V1_MQTT_OK/GD32VW55X_Wifi_BLE_SDK/GD32VW55x_RELEASE_V1.0.2/MSDK/wpa_supplicant/src/rsn_supp\wpa_ie.c **** 	}
 231              		.loc 1 155 3 is_stmt 1
 155:C:/Users/stapi/OneDrive/Desktop/GD32VW553/V1_MQTT_OK/GD32VW55X_Wifi_BLE_SDK/GD32VW55x_RELEASE_V1.0.2/MSDK/wpa_supplicant/src/rsn_supp\wpa_ie.c **** 	}
 232              		.loc 1 155 10 is_stmt 0
 233 004e 7D55     		li	a0,-1
 234              	.L23:
 235              	.LBE92:
 236              	.LBE96:
 342:C:/Users/stapi/OneDrive/Desktop/GD32VW553/V1_MQTT_OK/GD32VW55X_Wifi_BLE_SDK/GD32VW55x_RELEASE_V1.0.2/MSDK/wpa_supplicant/src/rsn_supp\wpa_ie.c **** 					  sm->pairwise_cipher,
 343:C:/Users/stapi/OneDrive/Desktop/GD32VW553/V1_MQTT_OK/GD32VW55X_Wifi_BLE_SDK/GD32VW55x_RELEASE_V1.0.2/MSDK/wpa_supplicant/src/rsn_supp\wpa_ie.c **** 					  sm->group_cipher,
 344:C:/Users/stapi/OneDrive/Desktop/GD32VW553/V1_MQTT_OK/GD32VW55X_Wifi_BLE_SDK/GD32VW55x_RELEASE_V1.0.2/MSDK/wpa_supplicant/src/rsn_supp\wpa_ie.c **** 					  sm->key_mgmt, sm->mgmt_group_cipher,
 345:C:/Users/stapi/OneDrive/Desktop/GD32VW553/V1_MQTT_OK/GD32VW55X_Wifi_BLE_SDK/GD32VW55x_RELEASE_V1.0.2/MSDK/wpa_supplicant/src/rsn_supp\wpa_ie.c **** 					  sm);
 346:C:/Users/stapi/OneDrive/Desktop/GD32VW553/V1_MQTT_OK/GD32VW55X_Wifi_BLE_SDK/GD32VW55x_RELEASE_V1.0.2/MSDK/wpa_supplicant/src/rsn_supp\wpa_ie.c **** #ifdef CONFIG_HS20
 347:C:/Users/stapi/OneDrive/Desktop/GD32VW553/V1_MQTT_OK/GD32VW55X_Wifi_BLE_SDK/GD32VW55x_RELEASE_V1.0.2/MSDK/wpa_supplicant/src/rsn_supp\wpa_ie.c **** 	else if (sm->proto == WPA_PROTO_OSEN)
 348:C:/Users/stapi/OneDrive/Desktop/GD32VW553/V1_MQTT_OK/GD32VW55X_Wifi_BLE_SDK/GD32VW55x_RELEASE_V1.0.2/MSDK/wpa_supplicant/src/rsn_supp\wpa_ie.c **** 		return wpa_gen_wpa_ie_osen(wpa_ie, wpa_ie_len,
 349:C:/Users/stapi/OneDrive/Desktop/GD32VW553/V1_MQTT_OK/GD32VW55X_Wifi_BLE_SDK/GD32VW55x_RELEASE_V1.0.2/MSDK/wpa_supplicant/src/rsn_supp\wpa_ie.c **** 					   sm->pairwise_cipher,
 350:C:/Users/stapi/OneDrive/Desktop/GD32VW553/V1_MQTT_OK/GD32VW55X_Wifi_BLE_SDK/GD32VW55x_RELEASE_V1.0.2/MSDK/wpa_supplicant/src/rsn_supp\wpa_ie.c **** 					   sm->group_cipher,
 351:C:/Users/stapi/OneDrive/Desktop/GD32VW553/V1_MQTT_OK/GD32VW55X_Wifi_BLE_SDK/GD32VW55x_RELEASE_V1.0.2/MSDK/wpa_supplicant/src/rsn_supp\wpa_ie.c **** 					   sm->key_mgmt);
 352:C:/Users/stapi/OneDrive/Desktop/GD32VW553/V1_MQTT_OK/GD32VW55X_Wifi_BLE_SDK/GD32VW55x_RELEASE_V1.0.2/MSDK/wpa_supplicant/src/rsn_supp\wpa_ie.c **** #endif /* CONFIG_HS20 */
 353:C:/Users/stapi/OneDrive/Desktop/GD32VW553/V1_MQTT_OK/GD32VW55X_Wifi_BLE_SDK/GD32VW55x_RELEASE_V1.0.2/MSDK/wpa_supplicant/src/rsn_supp\wpa_ie.c **** 	else
 354:C:/Users/stapi/OneDrive/Desktop/GD32VW553/V1_MQTT_OK/GD32VW55X_Wifi_BLE_SDK/GD32VW55x_RELEASE_V1.0.2/MSDK/wpa_supplicant/src/rsn_supp\wpa_ie.c **** 		return wpa_gen_wpa_ie_wpa(wpa_ie, wpa_ie_len,
 355:C:/Users/stapi/OneDrive/Desktop/GD32VW553/V1_MQTT_OK/GD32VW55X_Wifi_BLE_SDK/GD32VW55x_RELEASE_V1.0.2/MSDK/wpa_supplicant/src/rsn_supp\wpa_ie.c **** 					  sm->pairwise_cipher,
 356:C:/Users/stapi/OneDrive/Desktop/GD32VW553/V1_MQTT_OK/GD32VW55X_Wifi_BLE_SDK/GD32VW55x_RELEASE_V1.0.2/MSDK/wpa_supplicant/src/rsn_supp\wpa_ie.c **** 					  sm->group_cipher,
 357:C:/Users/stapi/OneDrive/Desktop/GD32VW553/V1_MQTT_OK/GD32VW55X_Wifi_BLE_SDK/GD32VW55x_RELEASE_V1.0.2/MSDK/wpa_supplicant/src/rsn_supp\wpa_ie.c **** 					  sm->key_mgmt);
 358:C:/Users/stapi/OneDrive/Desktop/GD32VW553/V1_MQTT_OK/GD32VW55X_Wifi_BLE_SDK/GD32VW55x_RELEASE_V1.0.2/MSDK/wpa_supplicant/src/rsn_supp\wpa_ie.c **** }
 237              		.loc 1 358 1
 238 0050 4101     		addi	sp,sp,16
 239              		.cfi_remember_state
 240              		.cfi_def_cfa_offset 0
 241 0052 17030000 		tail	__riscv_restore_7
 241      67000300 
 242              		.cfi_restore 22
 243              		.cfi_restore 21
 244              		.cfi_restore 20
 245              		.cfi_restore 19
 246              		.cfi_restore 18
 247              		.cfi_restore 9
 248              		.cfi_restore 8
 249              		.cfi_restore 1
 250              		.cfi_def_cfa_offset -32
 251              	.LVL19:
 252              	.L26:
 253              		.cfi_restore_state
 254              	.LBB97:
 255              	.LBB93:
 146:C:/Users/stapi/OneDrive/Desktop/GD32VW553/V1_MQTT_OK/GD32VW55X_Wifi_BLE_SDK/GD32VW55x_RELEASE_V1.0.2/MSDK/wpa_supplicant/src/rsn_supp\wpa_ie.c **** 	hdr->elem_id = WLAN_EID_RSN;
 256              		.loc 1 146 2 is_stmt 1
 147:C:/Users/stapi/OneDrive/Desktop/GD32VW553/V1_MQTT_OK/GD32VW55X_Wifi_BLE_SDK/GD32VW55x_RELEASE_V1.0.2/MSDK/wpa_supplicant/src/rsn_supp\wpa_ie.c **** 	WPA_PUT_LE16(hdr->version, RSN_VERSION);
 257              		.loc 1 147 2
 147:C:/Users/stapi/OneDrive/Desktop/GD32VW553/V1_MQTT_OK/GD32VW55X_Wifi_BLE_SDK/GD32VW55x_RELEASE_V1.0.2/MSDK/wpa_supplicant/src/rsn_supp\wpa_ie.c **** 	WPA_PUT_LE16(hdr->version, RSN_VERSION);
 258              		.loc 1 147 15 is_stmt 0
 259 005a 93070003 		li	a5,48
 260              	.LVL20:
 261              	.LBB66:
 262              	.LBB67:
 259:..\..\..\..\wpa_supplicant\src\utils/common.h **** }
 263              		.loc 2 259 7
 264 005e 054B     		li	s6,1
 265              	.LBE67:
 266              	.LBE66:
 151:C:/Users/stapi/OneDrive/Desktop/GD32VW553/V1_MQTT_OK/GD32VW55X_Wifi_BLE_SDK/GD32VW55x_RELEASE_V1.0.2/MSDK/wpa_supplicant/src/rsn_supp\wpa_ie.c **** 	if (suite == 0) {
 267              		.loc 1 151 10
 268 0060 B285     		mv	a1,a2
 147:C:/Users/stapi/OneDrive/Desktop/GD32VW553/V1_MQTT_OK/GD32VW55X_Wifi_BLE_SDK/GD32VW55x_RELEASE_V1.0.2/MSDK/wpa_supplicant/src/rsn_supp\wpa_ie.c **** 	WPA_PUT_LE16(hdr->version, RSN_VERSION);
 269              		.loc 1 147 15
 270 0062 2300F400 		sb	a5,0(s0)
 271              	.LVL21:
 148:C:/Users/stapi/OneDrive/Desktop/GD32VW553/V1_MQTT_OK/GD32VW55X_Wifi_BLE_SDK/GD32VW55x_RELEASE_V1.0.2/MSDK/wpa_supplicant/src/rsn_supp\wpa_ie.c **** 	pos = (u8 *) (hdr + 1);
 272              		.loc 1 148 2 is_stmt 1
 273              	.LBB69:
 274              	.LBB68:
 258:..\..\..\..\wpa_supplicant\src\utils/common.h **** 	a[0] = val & 0xff;
 275              		.loc 2 258 2
 258:..\..\..\..\wpa_supplicant\src\utils/common.h **** 	a[0] = val & 0xff;
 276              		.loc 2 258 7 is_stmt 0
 277 0066 A3010400 		sb	zero,3(s0)
 259:..\..\..\..\wpa_supplicant\src\utils/common.h **** }
 278              		.loc 2 259 2 is_stmt 1
 259:..\..\..\..\wpa_supplicant\src\utils/common.h **** }
 279              		.loc 2 259 7 is_stmt 0
 280 006a 23016401 		sb	s6,2(s0)
 281              	.LVL22:
 282              	.LBE68:
 283              	.LBE69:
 149:C:/Users/stapi/OneDrive/Desktop/GD32VW553/V1_MQTT_OK/GD32VW55X_Wifi_BLE_SDK/GD32VW55x_RELEASE_V1.0.2/MSDK/wpa_supplicant/src/rsn_supp\wpa_ie.c **** 
 284              		.loc 1 149 2 is_stmt 1
 151:C:/Users/stapi/OneDrive/Desktop/GD32VW553/V1_MQTT_OK/GD32VW55X_Wifi_BLE_SDK/GD32VW55x_RELEASE_V1.0.2/MSDK/wpa_supplicant/src/rsn_supp\wpa_ie.c **** 	if (suite == 0) {
 285              		.loc 1 151 2
 151:C:/Users/stapi/OneDrive/Desktop/GD32VW553/V1_MQTT_OK/GD32VW55X_Wifi_BLE_SDK/GD32VW55x_RELEASE_V1.0.2/MSDK/wpa_supplicant/src/rsn_supp\wpa_ie.c **** 	if (suite == 0) {
 286              		.loc 1 151 10 is_stmt 0
 287 006e 0945     		li	a0,2
 288              	.LVL23:
 289 0070 32C6     		sw	a2,12(sp)
 290 0072 97000000 		call	wpa_cipher_to_suite
 290      E7800000 
 291              	.LVL24:
 152:C:/Users/stapi/OneDrive/Desktop/GD32VW553/V1_MQTT_OK/GD32VW55X_Wifi_BLE_SDK/GD32VW55x_RELEASE_V1.0.2/MSDK/wpa_supplicant/src/rsn_supp\wpa_ie.c **** 		wpa_printf(MSG_WARNING, "Invalid group cipher (%d).",
 292              		.loc 1 152 2 is_stmt 1
 152:C:/Users/stapi/OneDrive/Desktop/GD32VW553/V1_MQTT_OK/GD32VW55X_Wifi_BLE_SDK/GD32VW55x_RELEASE_V1.0.2/MSDK/wpa_supplicant/src/rsn_supp\wpa_ie.c **** 		wpa_printf(MSG_WARNING, "Invalid group cipher (%d).",
 293              		.loc 1 152 5 is_stmt 0
 294 007a 3246     		lw	a2,12(sp)
 295 007c 19E5     		bne	a0,zero,.L28
 296              	.LVL25:
 297              	.L57:
 153:C:/Users/stapi/OneDrive/Desktop/GD32VW553/V1_MQTT_OK/GD32VW55X_Wifi_BLE_SDK/GD32VW55x_RELEASE_V1.0.2/MSDK/wpa_supplicant/src/rsn_supp\wpa_ie.c **** 			   group_cipher);
 298              		.loc 1 153 3 is_stmt 1
 299 007e B7050000 		lui	a1,%hi(.LC1)
 300 0082 93850500 		addi	a1,a1,%lo(.LC1)
 301              	.L56:
 302 0086 1145     		li	a0,4
 303 0088 7DBF     		j	.L55
 304              	.LVL26:
 305              	.L28:
 157:C:/Users/stapi/OneDrive/Desktop/GD32VW553/V1_MQTT_OK/GD32VW55X_Wifi_BLE_SDK/GD32VW55x_RELEASE_V1.0.2/MSDK/wpa_supplicant/src/rsn_supp\wpa_ie.c **** 	pos += RSN_SELECTOR_LEN;
 306              		.loc 1 157 2
 307              	.LBB70:
 308              	.LBB71:
 277:..\..\..\..\wpa_supplicant\src\utils/common.h **** }
 278:..\..\..\..\wpa_supplicant\src\utils/common.h **** 
 279:..\..\..\..\wpa_supplicant\src\utils/common.h **** static inline void WPA_PUT_BE32(u8 *a, u32 val)
 280:..\..\..\..\wpa_supplicant\src\utils/common.h **** {
 281:..\..\..\..\wpa_supplicant\src\utils/common.h **** 	a[0] = (val >> 24) & 0xff;
 309              		.loc 2 281 2
 310              		.loc 2 281 14 is_stmt 0
 311 008a 93578501 		srli	a5,a0,24
 312              		.loc 2 281 7
 313 008e 2302F400 		sb	a5,4(s0)
 282:..\..\..\..\wpa_supplicant\src\utils/common.h **** 	a[1] = (val >> 16) & 0xff;
 314              		.loc 2 282 2 is_stmt 1
 315              		.loc 2 282 14 is_stmt 0
 316 0092 93570501 		srli	a5,a0,16
 317              		.loc 2 282 7
 318 0096 A302F400 		sb	a5,5(s0)
 283:..\..\..\..\wpa_supplicant\src\utils/common.h **** 	a[2] = (val >> 8) & 0xff;
 319              		.loc 2 283 2 is_stmt 1
 320              		.loc 2 283 14 is_stmt 0
 321 009a 93578500 		srli	a5,a0,8
 284:..\..\..\..\wpa_supplicant\src\utils/common.h **** 	a[3] = val & 0xff;
 322              		.loc 2 284 7
 323 009e A303A400 		sb	a0,7(s0)
 283:..\..\..\..\wpa_supplicant\src\utils/common.h **** 	a[2] = (val >> 8) & 0xff;
 324              		.loc 2 283 7
 325 00a2 2303F400 		sb	a5,6(s0)
 326              		.loc 2 284 2 is_stmt 1
 327              	.LVL27:
 328              	.LBE71:
 329              	.LBE70:
 158:C:/Users/stapi/OneDrive/Desktop/GD32VW553/V1_MQTT_OK/GD32VW55X_Wifi_BLE_SDK/GD32VW55x_RELEASE_V1.0.2/MSDK/wpa_supplicant/src/rsn_supp\wpa_ie.c **** 
 330              		.loc 1 158 2
 160:C:/Users/stapi/OneDrive/Desktop/GD32VW553/V1_MQTT_OK/GD32VW55X_Wifi_BLE_SDK/GD32VW55x_RELEASE_V1.0.2/MSDK/wpa_supplicant/src/rsn_supp\wpa_ie.c **** 	*pos++ = 0;
 331              		.loc 1 160 2
 160:C:/Users/stapi/OneDrive/Desktop/GD32VW553/V1_MQTT_OK/GD32VW55X_Wifi_BLE_SDK/GD32VW55x_RELEASE_V1.0.2/MSDK/wpa_supplicant/src/rsn_supp\wpa_ie.c **** 	*pos++ = 0;
 332              		.loc 1 160 9 is_stmt 0
 333 00a6 23046401 		sb	s6,8(s0)
 161:C:/Users/stapi/OneDrive/Desktop/GD32VW553/V1_MQTT_OK/GD32VW55X_Wifi_BLE_SDK/GD32VW55x_RELEASE_V1.0.2/MSDK/wpa_supplicant/src/rsn_supp\wpa_ie.c **** 	suite = wpa_cipher_to_suite(WPA_PROTO_RSN, pairwise_cipher);
 334              		.loc 1 161 2 is_stmt 1
 335              	.LVL28:
 161:C:/Users/stapi/OneDrive/Desktop/GD32VW553/V1_MQTT_OK/GD32VW55X_Wifi_BLE_SDK/GD32VW55x_RELEASE_V1.0.2/MSDK/wpa_supplicant/src/rsn_supp\wpa_ie.c **** 	suite = wpa_cipher_to_suite(WPA_PROTO_RSN, pairwise_cipher);
 336              		.loc 1 161 9 is_stmt 0
 337 00aa A3040400 		sb	zero,9(s0)
 162:C:/Users/stapi/OneDrive/Desktop/GD32VW553/V1_MQTT_OK/GD32VW55X_Wifi_BLE_SDK/GD32VW55x_RELEASE_V1.0.2/MSDK/wpa_supplicant/src/rsn_supp\wpa_ie.c **** 	if (suite == 0 ||
 338              		.loc 1 162 2 is_stmt 1
 162:C:/Users/stapi/OneDrive/Desktop/GD32VW553/V1_MQTT_OK/GD32VW55X_Wifi_BLE_SDK/GD32VW55x_RELEASE_V1.0.2/MSDK/wpa_supplicant/src/rsn_supp\wpa_ie.c **** 	if (suite == 0 ||
 339              		.loc 1 162 10 is_stmt 0
 340 00ae CE85     		mv	a1,s3
 341 00b0 0945     		li	a0,2
 342              	.LVL29:
 343 00b2 97000000 		call	wpa_cipher_to_suite
 343      E7800000 
 344              	.LVL30:
 345 00ba 2A8A     		mv	s4,a0
 346              	.LVL31:
 163:C:/Users/stapi/OneDrive/Desktop/GD32VW553/V1_MQTT_OK/GD32VW55X_Wifi_BLE_SDK/GD32VW55x_RELEASE_V1.0.2/MSDK/wpa_supplicant/src/rsn_supp\wpa_ie.c **** 	    (!wpa_cipher_valid_pairwise(pairwise_cipher) &&
 347              		.loc 1 163 2 is_stmt 1
 163:C:/Users/stapi/OneDrive/Desktop/GD32VW553/V1_MQTT_OK/GD32VW55X_Wifi_BLE_SDK/GD32VW55x_RELEASE_V1.0.2/MSDK/wpa_supplicant/src/rsn_supp\wpa_ie.c **** 	    (!wpa_cipher_valid_pairwise(pairwise_cipher) &&
 348              		.loc 1 163 5 is_stmt 0
 349 00bc 19E5     		bne	a0,zero,.L29
 350              	.LVL32:
 351              	.L44:
 352              	.LBE93:
 353              	.LBE97:
 354              	.LBB98:
 355              	.LBB99:
  74:C:/Users/stapi/OneDrive/Desktop/GD32VW553/V1_MQTT_OK/GD32VW55X_Wifi_BLE_SDK/GD32VW55x_RELEASE_V1.0.2/MSDK/wpa_supplicant/src/rsn_supp\wpa_ie.c **** 			   pairwise_cipher);
 356              		.loc 1 74 3 is_stmt 1
 357 00be B7050000 		lui	a1,%hi(.LC2)
 358 00c2 4E86     		mv	a2,s3
 359 00c4 93850500 		addi	a1,a1,%lo(.LC2)
 360 00c8 7DBF     		j	.L56
 361              	.LVL33:
 362              	.L29:
 363              	.LBE99:
 364              	.LBE98:
 365              	.LBB116:
 366              	.LBB94:
 164:C:/Users/stapi/OneDrive/Desktop/GD32VW553/V1_MQTT_OK/GD32VW55X_Wifi_BLE_SDK/GD32VW55x_RELEASE_V1.0.2/MSDK/wpa_supplicant/src/rsn_supp\wpa_ie.c **** 	     pairwise_cipher != WPA_CIPHER_NONE)) {
 367              		.loc 1 164 8 is_stmt 0
 368 00ca 4E85     		mv	a0,s3
 369              	.LVL34:
 370 00cc 97000000 		call	wpa_cipher_valid_pairwise
 370      E7800000 
 371              	.LVL35:
 163:C:/Users/stapi/OneDrive/Desktop/GD32VW553/V1_MQTT_OK/GD32VW55X_Wifi_BLE_SDK/GD32VW55x_RELEASE_V1.0.2/MSDK/wpa_supplicant/src/rsn_supp\wpa_ie.c **** 	    (!wpa_cipher_valid_pairwise(pairwise_cipher) &&
 372              		.loc 1 163 17
 373 00d4 19E1     		bne	a0,zero,.L30
 164:C:/Users/stapi/OneDrive/Desktop/GD32VW553/V1_MQTT_OK/GD32VW55X_Wifi_BLE_SDK/GD32VW55x_RELEASE_V1.0.2/MSDK/wpa_supplicant/src/rsn_supp\wpa_ie.c **** 	     pairwise_cipher != WPA_CIPHER_NONE)) {
 374              		.loc 1 164 51
 375 00d6 E39469FF 		bne	s3,s6,.L44
 376              	.L30:
 170:C:/Users/stapi/OneDrive/Desktop/GD32VW553/V1_MQTT_OK/GD32VW55X_Wifi_BLE_SDK/GD32VW55x_RELEASE_V1.0.2/MSDK/wpa_supplicant/src/rsn_supp\wpa_ie.c **** 	pos += RSN_SELECTOR_LEN;
 377              		.loc 1 170 2 is_stmt 1
 378              	.LVL36:
 379              	.LBB72:
 380              	.LBB73:
 281:..\..\..\..\wpa_supplicant\src\utils/common.h **** 	a[1] = (val >> 16) & 0xff;
 381              		.loc 2 281 2
 281:..\..\..\..\wpa_supplicant\src\utils/common.h **** 	a[1] = (val >> 16) & 0xff;
 382              		.loc 2 281 14 is_stmt 0
 383 00da 93578A01 		srli	a5,s4,24
 281:..\..\..\..\wpa_supplicant\src\utils/common.h **** 	a[1] = (val >> 16) & 0xff;
 384              		.loc 2 281 7
 385 00de 2305F400 		sb	a5,10(s0)
 282:..\..\..\..\wpa_supplicant\src\utils/common.h **** 	a[2] = (val >> 8) & 0xff;
 386              		.loc 2 282 2 is_stmt 1
 282:..\..\..\..\wpa_supplicant\src\utils/common.h **** 	a[2] = (val >> 8) & 0xff;
 387              		.loc 2 282 14 is_stmt 0
 388 00e2 93570A01 		srli	a5,s4,16
 282:..\..\..\..\wpa_supplicant\src\utils/common.h **** 	a[2] = (val >> 8) & 0xff;
 389              		.loc 2 282 7
 390 00e6 A305F400 		sb	a5,11(s0)
 283:..\..\..\..\wpa_supplicant\src\utils/common.h **** 	a[3] = val & 0xff;
 391              		.loc 2 283 2 is_stmt 1
 283:..\..\..\..\wpa_supplicant\src\utils/common.h **** 	a[3] = val & 0xff;
 392              		.loc 2 283 14 is_stmt 0
 393 00ea 93578A00 		srli	a5,s4,8
 283:..\..\..\..\wpa_supplicant\src\utils/common.h **** 	a[3] = val & 0xff;
 394              		.loc 2 283 7
 395 00ee 2306F400 		sb	a5,12(s0)
 396              		.loc 2 284 2 is_stmt 1
 397              	.LBE73:
 398              	.LBE72:
 173:C:/Users/stapi/OneDrive/Desktop/GD32VW553/V1_MQTT_OK/GD32VW55X_Wifi_BLE_SDK/GD32VW55x_RELEASE_V1.0.2/MSDK/wpa_supplicant/src/rsn_supp\wpa_ie.c **** 	*pos++ = 0;
 399              		.loc 1 173 9 is_stmt 0
 400 00f2 8547     		li	a5,1
 401 00f4 2307F400 		sb	a5,14(s0)
 402              	.LBB75:
 403              	.LBB74:
 404              		.loc 2 284 7
 405 00f8 A3064401 		sb	s4,13(s0)
 406              	.LVL37:
 407              	.LBE74:
 408              	.LBE75:
 171:C:/Users/stapi/OneDrive/Desktop/GD32VW553/V1_MQTT_OK/GD32VW55X_Wifi_BLE_SDK/GD32VW55x_RELEASE_V1.0.2/MSDK/wpa_supplicant/src/rsn_supp\wpa_ie.c **** 
 409              		.loc 1 171 2 is_stmt 1
 173:C:/Users/stapi/OneDrive/Desktop/GD32VW553/V1_MQTT_OK/GD32VW55X_Wifi_BLE_SDK/GD32VW55x_RELEASE_V1.0.2/MSDK/wpa_supplicant/src/rsn_supp\wpa_ie.c **** 	*pos++ = 0;
 410              		.loc 1 173 2
 174:C:/Users/stapi/OneDrive/Desktop/GD32VW553/V1_MQTT_OK/GD32VW55X_Wifi_BLE_SDK/GD32VW55x_RELEASE_V1.0.2/MSDK/wpa_supplicant/src/rsn_supp\wpa_ie.c **** #ifdef IEEE8021X_EAPOL
 411              		.loc 1 174 2
 174:C:/Users/stapi/OneDrive/Desktop/GD32VW553/V1_MQTT_OK/GD32VW55X_Wifi_BLE_SDK/GD32VW55x_RELEASE_V1.0.2/MSDK/wpa_supplicant/src/rsn_supp\wpa_ie.c **** #ifdef IEEE8021X_EAPOL
 412              		.loc 1 174 9 is_stmt 0
 413 00fc A3070400 		sb	zero,15(s0)
 188:C:/Users/stapi/OneDrive/Desktop/GD32VW553/V1_MQTT_OK/GD32VW55X_Wifi_BLE_SDK/GD32VW55x_RELEASE_V1.0.2/MSDK/wpa_supplicant/src/rsn_supp\wpa_ie.c **** 		RSN_SELECTOR_PUT(pos, RSN_AUTH_KEY_MGMT_PSK_OVER_802_1X);
 414              		.loc 1 188 2 is_stmt 1
 188:C:/Users/stapi/OneDrive/Desktop/GD32VW553/V1_MQTT_OK/GD32VW55X_Wifi_BLE_SDK/GD32VW55x_RELEASE_V1.0.2/MSDK/wpa_supplicant/src/rsn_supp\wpa_ie.c **** 		RSN_SELECTOR_PUT(pos, RSN_AUTH_KEY_MGMT_PSK_OVER_802_1X);
 415              		.loc 1 188 5 is_stmt 0
 416 0100 8947     		li	a5,2
 417 0102 6398F40A 		bne	s1,a5,.L32
 189:C:/Users/stapi/OneDrive/Desktop/GD32VW553/V1_MQTT_OK/GD32VW55X_Wifi_BLE_SDK/GD32VW55x_RELEASE_V1.0.2/MSDK/wpa_supplicant/src/rsn_supp\wpa_ie.c **** #ifdef CONFIG_IEEE80211R
 418              		.loc 1 189 3 is_stmt 1
 419              	.LVL38:
 420              	.LBB76:
 421              	.LBB77:
 281:..\..\..\..\wpa_supplicant\src\utils/common.h **** 	a[1] = (val >> 16) & 0xff;
 422              		.loc 2 281 2
 282:..\..\..\..\wpa_supplicant\src\utils/common.h **** 	a[2] = (val >> 8) & 0xff;
 423              		.loc 2 282 7 is_stmt 0
 424 0106 BD47     		li	a5,15
 425 0108 A308F400 		sb	a5,17(s0)
 283:..\..\..\..\wpa_supplicant\src\utils/common.h **** 	a[3] = val & 0xff;
 426              		.loc 2 283 7
 427 010c 9307C0FA 		li	a5,-84
 281:..\..\..\..\wpa_supplicant\src\utils/common.h **** 	a[1] = (val >> 16) & 0xff;
 428              		.loc 2 281 7
 429 0110 23080400 		sb	zero,16(s0)
 282:..\..\..\..\wpa_supplicant\src\utils/common.h **** 	a[2] = (val >> 8) & 0xff;
 430              		.loc 2 282 2 is_stmt 1
 283:..\..\..\..\wpa_supplicant\src\utils/common.h **** 	a[3] = val & 0xff;
 431              		.loc 2 283 2
 283:..\..\..\..\wpa_supplicant\src\utils/common.h **** 	a[3] = val & 0xff;
 432              		.loc 2 283 7 is_stmt 0
 433 0114 2309F400 		sb	a5,18(s0)
 434              		.loc 2 284 2 is_stmt 1
 435              		.loc 2 284 7 is_stmt 0
 436 0118 A3099400 		sb	s1,19(s0)
 437              	.LVL39:
 438              	.L33:
 439              	.LBE77:
 440              	.LBE76:
 237:C:/Users/stapi/OneDrive/Desktop/GD32VW553/V1_MQTT_OK/GD32VW55X_Wifi_BLE_SDK/GD32VW55x_RELEASE_V1.0.2/MSDK/wpa_supplicant/src/rsn_supp\wpa_ie.c **** 
 441              		.loc 1 237 2 is_stmt 1
 240:C:/Users/stapi/OneDrive/Desktop/GD32VW553/V1_MQTT_OK/GD32VW55X_Wifi_BLE_SDK/GD32VW55x_RELEASE_V1.0.2/MSDK/wpa_supplicant/src/rsn_supp\wpa_ie.c **** 	pos += 2;
 442              		.loc 1 240 2
 443 011c 4A85     		mv	a0,s2
 444 011e 97000000 		call	rsn_supp_capab
 444      E7800000 
 445              	.LVL40:
 446              	.LBB78:
 447              	.LBB79:
 258:..\..\..\..\wpa_supplicant\src\utils/common.h **** 	a[0] = val & 0xff;
 448              		.loc 2 258 2
 258:..\..\..\..\wpa_supplicant\src\utils/common.h **** 	a[0] = val & 0xff;
 449              		.loc 2 258 7 is_stmt 0
 450 0126 93578500 		srli	a5,a0,8
 451 012a A30AF400 		sb	a5,21(s0)
 259:..\..\..\..\wpa_supplicant\src\utils/common.h **** }
 452              		.loc 2 259 2 is_stmt 1
 259:..\..\..\..\wpa_supplicant\src\utils/common.h **** }
 453              		.loc 2 259 7 is_stmt 0
 454 012e 230AA400 		sb	a0,20(s0)
 455              	.LVL41:
 456              	.LBE79:
 457              	.LBE78:
 241:C:/Users/stapi/OneDrive/Desktop/GD32VW553/V1_MQTT_OK/GD32VW55X_Wifi_BLE_SDK/GD32VW55x_RELEASE_V1.0.2/MSDK/wpa_supplicant/src/rsn_supp\wpa_ie.c **** 
 458              		.loc 1 241 2 is_stmt 1
 243:C:/Users/stapi/OneDrive/Desktop/GD32VW553/V1_MQTT_OK/GD32VW55X_Wifi_BLE_SDK/GD32VW55x_RELEASE_V1.0.2/MSDK/wpa_supplicant/src/rsn_supp\wpa_ie.c **** 		/* PMKID Count (2 octets, little endian) */
 459              		.loc 1 243 2
 243:C:/Users/stapi/OneDrive/Desktop/GD32VW553/V1_MQTT_OK/GD32VW55X_Wifi_BLE_SDK/GD32VW55x_RELEASE_V1.0.2/MSDK/wpa_supplicant/src/rsn_supp\wpa_ie.c **** 		/* PMKID Count (2 octets, little endian) */
 460              		.loc 1 243 5 is_stmt 0
 461 0132 8327093C 		lw	a5,960(s2)
 241:C:/Users/stapi/OneDrive/Desktop/GD32VW553/V1_MQTT_OK/GD32VW55X_Wifi_BLE_SDK/GD32VW55x_RELEASE_V1.0.2/MSDK/wpa_supplicant/src/rsn_supp\wpa_ie.c **** 
 462              		.loc 1 241 6
 463 0136 93046401 		addi	s1,s0,22
 464              	.LVL42:
 243:C:/Users/stapi/OneDrive/Desktop/GD32VW553/V1_MQTT_OK/GD32VW55X_Wifi_BLE_SDK/GD32VW55x_RELEASE_V1.0.2/MSDK/wpa_supplicant/src/rsn_supp\wpa_ie.c **** 		/* PMKID Count (2 octets, little endian) */
 465              		.loc 1 243 5
 466 013a 95C3     		beq	a5,zero,.L38
 245:C:/Users/stapi/OneDrive/Desktop/GD32VW553/V1_MQTT_OK/GD32VW55X_Wifi_BLE_SDK/GD32VW55x_RELEASE_V1.0.2/MSDK/wpa_supplicant/src/rsn_supp\wpa_ie.c **** 		*pos++ = 0;
 467              		.loc 1 245 3 is_stmt 1
 468              	.LVL43:
 245:C:/Users/stapi/OneDrive/Desktop/GD32VW553/V1_MQTT_OK/GD32VW55X_Wifi_BLE_SDK/GD32VW55x_RELEASE_V1.0.2/MSDK/wpa_supplicant/src/rsn_supp\wpa_ie.c **** 		*pos++ = 0;
 469              		.loc 1 245 10 is_stmt 0
 470 013c 8547     		li	a5,1
 471 013e 230BF400 		sb	a5,22(s0)
 246:C:/Users/stapi/OneDrive/Desktop/GD32VW553/V1_MQTT_OK/GD32VW55X_Wifi_BLE_SDK/GD32VW55x_RELEASE_V1.0.2/MSDK/wpa_supplicant/src/rsn_supp\wpa_ie.c **** 		/* PMKID */
 472              		.loc 1 246 3 is_stmt 1
 473              	.LVL44:
 246:C:/Users/stapi/OneDrive/Desktop/GD32VW553/V1_MQTT_OK/GD32VW55X_Wifi_BLE_SDK/GD32VW55x_RELEASE_V1.0.2/MSDK/wpa_supplicant/src/rsn_supp\wpa_ie.c **** 		/* PMKID */
 474              		.loc 1 246 10 is_stmt 0
 475 0142 A30B0400 		sb	zero,23(s0)
 248:C:/Users/stapi/OneDrive/Desktop/GD32VW553/V1_MQTT_OK/GD32VW55X_Wifi_BLE_SDK/GD32VW55x_RELEASE_V1.0.2/MSDK/wpa_supplicant/src/rsn_supp\wpa_ie.c **** 		pos += PMKID_LEN;
 476              		.loc 1 248 3 is_stmt 1
 248:C:/Users/stapi/OneDrive/Desktop/GD32VW553/V1_MQTT_OK/GD32VW55X_Wifi_BLE_SDK/GD32VW55x_RELEASE_V1.0.2/MSDK/wpa_supplicant/src/rsn_supp\wpa_ie.c **** 		pos += PMKID_LEN;
 477              		.loc 1 248 31 is_stmt 0
 478 0146 8325093C 		lw	a1,960(s2)
 248:C:/Users/stapi/OneDrive/Desktop/GD32VW553/V1_MQTT_OK/GD32VW55X_Wifi_BLE_SDK/GD32VW55x_RELEASE_V1.0.2/MSDK/wpa_supplicant/src/rsn_supp\wpa_ie.c **** 		pos += PMKID_LEN;
 479              		.loc 1 248 3
 480 014a 4146     		li	a2,16
 481 014c 13058401 		addi	a0,s0,24
 482              	.LVL45:
 483 0150 9105     		addi	a1,a1,4
 484 0152 97000000 		call	os_memcpy
 484      E7800000 
 485              	.LVL46:
 249:C:/Users/stapi/OneDrive/Desktop/GD32VW553/V1_MQTT_OK/GD32VW55X_Wifi_BLE_SDK/GD32VW55x_RELEASE_V1.0.2/MSDK/wpa_supplicant/src/rsn_supp\wpa_ie.c **** 	}
 486              		.loc 1 249 3 is_stmt 1
 249:C:/Users/stapi/OneDrive/Desktop/GD32VW553/V1_MQTT_OK/GD32VW55X_Wifi_BLE_SDK/GD32VW55x_RELEASE_V1.0.2/MSDK/wpa_supplicant/src/rsn_supp\wpa_ie.c **** 	}
 487              		.loc 1 249 7 is_stmt 0
 488 015a 93048402 		addi	s1,s0,40
 489              	.LVL47:
 490              	.L38:
 252:C:/Users/stapi/OneDrive/Desktop/GD32VW553/V1_MQTT_OK/GD32VW55X_Wifi_BLE_SDK/GD32VW55x_RELEASE_V1.0.2/MSDK/wpa_supplicant/src/rsn_supp\wpa_ie.c **** 		if (!sm->cur_pmksa) {
 491              		.loc 1 252 2 is_stmt 1
 252:C:/Users/stapi/OneDrive/Desktop/GD32VW553/V1_MQTT_OK/GD32VW55X_Wifi_BLE_SDK/GD32VW55x_RELEASE_V1.0.2/MSDK/wpa_supplicant/src/rsn_supp\wpa_ie.c **** 		if (!sm->cur_pmksa) {
 492              		.loc 1 252 6 is_stmt 0
 493 015e 5685     		mv	a0,s5
 494 0160 97000000 		call	wpa_cipher_valid_mgmt_group
 494      E7800000 
 495              	.LVL48:
 252:C:/Users/stapi/OneDrive/Desktop/GD32VW553/V1_MQTT_OK/GD32VW55X_Wifi_BLE_SDK/GD32VW55x_RELEASE_V1.0.2/MSDK/wpa_supplicant/src/rsn_supp\wpa_ie.c **** 		if (!sm->cur_pmksa) {
 496              		.loc 1 252 5
 497 0168 15CD     		beq	a0,zero,.L39
 253:C:/Users/stapi/OneDrive/Desktop/GD32VW553/V1_MQTT_OK/GD32VW55X_Wifi_BLE_SDK/GD32VW55x_RELEASE_V1.0.2/MSDK/wpa_supplicant/src/rsn_supp\wpa_ie.c **** 			/* PMKID Count */
 498              		.loc 1 253 3 is_stmt 1
 253:C:/Users/stapi/OneDrive/Desktop/GD32VW553/V1_MQTT_OK/GD32VW55X_Wifi_BLE_SDK/GD32VW55x_RELEASE_V1.0.2/MSDK/wpa_supplicant/src/rsn_supp\wpa_ie.c **** 			/* PMKID Count */
 499              		.loc 1 253 6 is_stmt 0
 500 016a 8327093C 		lw	a5,960(s2)
 501 016e 91E7     		bne	a5,zero,.L40
 255:C:/Users/stapi/OneDrive/Desktop/GD32VW553/V1_MQTT_OK/GD32VW55X_Wifi_BLE_SDK/GD32VW55x_RELEASE_V1.0.2/MSDK/wpa_supplicant/src/rsn_supp\wpa_ie.c **** 			pos += 2;
 502              		.loc 1 255 4 is_stmt 1
 503              	.LVL49:
 504              	.LBB80:
 505              	.LBB81:
 258:..\..\..\..\wpa_supplicant\src\utils/common.h **** 	a[0] = val & 0xff;
 506              		.loc 2 258 2
 258:..\..\..\..\wpa_supplicant\src\utils/common.h **** 	a[0] = val & 0xff;
 507              		.loc 2 258 7 is_stmt 0
 508 0170 A3800400 		sb	zero,1(s1)
 259:..\..\..\..\wpa_supplicant\src\utils/common.h **** }
 509              		.loc 2 259 2 is_stmt 1
 259:..\..\..\..\wpa_supplicant\src\utils/common.h **** }
 510              		.loc 2 259 7 is_stmt 0
 511 0174 23800400 		sb	zero,0(s1)
 512              	.LVL50:
 513              	.LBE81:
 514              	.LBE80:
 256:C:/Users/stapi/OneDrive/Desktop/GD32VW553/V1_MQTT_OK/GD32VW55X_Wifi_BLE_SDK/GD32VW55x_RELEASE_V1.0.2/MSDK/wpa_supplicant/src/rsn_supp\wpa_ie.c **** 		}
 515              		.loc 1 256 4 is_stmt 1
 256:C:/Users/stapi/OneDrive/Desktop/GD32VW553/V1_MQTT_OK/GD32VW55X_Wifi_BLE_SDK/GD32VW55x_RELEASE_V1.0.2/MSDK/wpa_supplicant/src/rsn_supp\wpa_ie.c **** 		}
 516              		.loc 1 256 8 is_stmt 0
 517 0178 8904     		addi	s1,s1,2
 518              	.LVL51:
 519              	.L40:
 260:C:/Users/stapi/OneDrive/Desktop/GD32VW553/V1_MQTT_OK/GD32VW55X_Wifi_BLE_SDK/GD32VW55x_RELEASE_V1.0.2/MSDK/wpa_supplicant/src/rsn_supp\wpa_ie.c **** 							  mgmt_group_cipher));
 520              		.loc 1 260 3 is_stmt 1
 521 017a D685     		mv	a1,s5
 522 017c 0945     		li	a0,2
 523 017e 97000000 		call	wpa_cipher_to_suite
 523      E7800000 
 524              	.LVL52:
 525              	.LBB82:
 526              	.LBB83:
 281:..\..\..\..\wpa_supplicant\src\utils/common.h **** 	a[1] = (val >> 16) & 0xff;
 527              		.loc 2 281 2
 281:..\..\..\..\wpa_supplicant\src\utils/common.h **** 	a[1] = (val >> 16) & 0xff;
 528              		.loc 2 281 14 is_stmt 0
 529 0186 93578501 		srli	a5,a0,24
 281:..\..\..\..\wpa_supplicant\src\utils/common.h **** 	a[1] = (val >> 16) & 0xff;
 530              		.loc 2 281 7
 531 018a 2380F400 		sb	a5,0(s1)
 282:..\..\..\..\wpa_supplicant\src\utils/common.h **** 	a[2] = (val >> 8) & 0xff;
 532              		.loc 2 282 2 is_stmt 1
 282:..\..\..\..\wpa_supplicant\src\utils/common.h **** 	a[2] = (val >> 8) & 0xff;
 533              		.loc 2 282 14 is_stmt 0
 534 018e 93570501 		srli	a5,a0,16
 282:..\..\..\..\wpa_supplicant\src\utils/common.h **** 	a[2] = (val >> 8) & 0xff;
 535              		.loc 2 282 7
 536 0192 A380F400 		sb	a5,1(s1)
 283:..\..\..\..\wpa_supplicant\src\utils/common.h **** 	a[3] = val & 0xff;
 537              		.loc 2 283 2 is_stmt 1
 283:..\..\..\..\wpa_supplicant\src\utils/common.h **** 	a[3] = val & 0xff;
 538              		.loc 2 283 14 is_stmt 0
 539 0196 93578500 		srli	a5,a0,8
 283:..\..\..\..\wpa_supplicant\src\utils/common.h **** 	a[3] = val & 0xff;
 540              		.loc 2 283 7
 541 019a 2381F400 		sb	a5,2(s1)
 542              		.loc 2 284 2 is_stmt 1
 543              		.loc 2 284 7 is_stmt 0
 544 019e A381A400 		sb	a0,3(s1)
 545              	.LVL53:
 546              	.LBE83:
 547              	.LBE82:
 262:C:/Users/stapi/OneDrive/Desktop/GD32VW553/V1_MQTT_OK/GD32VW55X_Wifi_BLE_SDK/GD32VW55x_RELEASE_V1.0.2/MSDK/wpa_supplicant/src/rsn_supp\wpa_ie.c **** 	}
 548              		.loc 1 262 3 is_stmt 1
 262:C:/Users/stapi/OneDrive/Desktop/GD32VW553/V1_MQTT_OK/GD32VW55X_Wifi_BLE_SDK/GD32VW55x_RELEASE_V1.0.2/MSDK/wpa_supplicant/src/rsn_supp\wpa_ie.c **** 	}
 549              		.loc 1 262 7 is_stmt 0
 550 01a2 9104     		addi	s1,s1,4
 551              	.LVL54:
 552              	.L39:
 265:C:/Users/stapi/OneDrive/Desktop/GD32VW553/V1_MQTT_OK/GD32VW55X_Wifi_BLE_SDK/GD32VW55x_RELEASE_V1.0.2/MSDK/wpa_supplicant/src/rsn_supp\wpa_ie.c **** 
 553              		.loc 1 265 2 is_stmt 1
 265:C:/Users/stapi/OneDrive/Desktop/GD32VW553/V1_MQTT_OK/GD32VW55X_Wifi_BLE_SDK/GD32VW55x_RELEASE_V1.0.2/MSDK/wpa_supplicant/src/rsn_supp\wpa_ie.c **** 
 554              		.loc 1 265 18 is_stmt 0
 555 01a4 33858440 		sub	a0,s1,s0
 265:C:/Users/stapi/OneDrive/Desktop/GD32VW553/V1_MQTT_OK/GD32VW55X_Wifi_BLE_SDK/GD32VW55x_RELEASE_V1.0.2/MSDK/wpa_supplicant/src/rsn_supp\wpa_ie.c **** 
 556              		.loc 1 265 28
 557 01a8 9307E5FF 		addi	a5,a0,-2
 558              	.LVL55:
 559              	.L58:
 560              	.LBE94:
 561              	.LBE116:
 562              	.LBB117:
 563              	.LBB114:
 104:C:/Users/stapi/OneDrive/Desktop/GD32VW553/V1_MQTT_OK/GD32VW55X_Wifi_BLE_SDK/GD32VW55x_RELEASE_V1.0.2/MSDK/wpa_supplicant/src/rsn_supp\wpa_ie.c **** 
 564              		.loc 1 104 11
 565 01ac A300F400 		sb	a5,1(s0)
 106:C:/Users/stapi/OneDrive/Desktop/GD32VW553/V1_MQTT_OK/GD32VW55X_Wifi_BLE_SDK/GD32VW55x_RELEASE_V1.0.2/MSDK/wpa_supplicant/src/rsn_supp\wpa_ie.c **** 
 566              		.loc 1 106 2 is_stmt 1
 106:C:/Users/stapi/OneDrive/Desktop/GD32VW553/V1_MQTT_OK/GD32VW55X_Wifi_BLE_SDK/GD32VW55x_RELEASE_V1.0.2/MSDK/wpa_supplicant/src/rsn_supp\wpa_ie.c **** 
 567              		.loc 1 106 2
 106:C:/Users/stapi/OneDrive/Desktop/GD32VW553/V1_MQTT_OK/GD32VW55X_Wifi_BLE_SDK/GD32VW55x_RELEASE_V1.0.2/MSDK/wpa_supplicant/src/rsn_supp\wpa_ie.c **** 
 568              		.loc 1 106 2
 108:C:/Users/stapi/OneDrive/Desktop/GD32VW553/V1_MQTT_OK/GD32VW55X_Wifi_BLE_SDK/GD32VW55x_RELEASE_V1.0.2/MSDK/wpa_supplicant/src/rsn_supp\wpa_ie.c **** }
 569              		.loc 1 108 2
 108:C:/Users/stapi/OneDrive/Desktop/GD32VW553/V1_MQTT_OK/GD32VW55X_Wifi_BLE_SDK/GD32VW55x_RELEASE_V1.0.2/MSDK/wpa_supplicant/src/rsn_supp\wpa_ie.c **** }
 570              		.loc 1 108 13 is_stmt 0
 571 01b0 45B5     		j	.L23
 572              	.LVL56:
 573              	.L32:
 574              	.LBE114:
 575              	.LBE117:
 576              	.LBB118:
 577              	.LBB95:
 200:C:/Users/stapi/OneDrive/Desktop/GD32VW553/V1_MQTT_OK/GD32VW55X_Wifi_BLE_SDK/GD32VW55x_RELEASE_V1.0.2/MSDK/wpa_supplicant/src/rsn_supp\wpa_ie.c **** 		RSN_SELECTOR_PUT(pos, RSN_AUTH_KEY_MGMT_PSK_SHA256);
 578              		.loc 1 200 9 is_stmt 1
 200:C:/Users/stapi/OneDrive/Desktop/GD32VW553/V1_MQTT_OK/GD32VW55X_Wifi_BLE_SDK/GD32VW55x_RELEASE_V1.0.2/MSDK/wpa_supplicant/src/rsn_supp\wpa_ie.c **** 		RSN_SELECTOR_PUT(pos, RSN_AUTH_KEY_MGMT_PSK_SHA256);
 579              		.loc 1 200 12 is_stmt 0
 580 01b2 93070010 		li	a5,256
 581 01b6 639FF400 		bne	s1,a5,.L34
 201:C:/Users/stapi/OneDrive/Desktop/GD32VW553/V1_MQTT_OK/GD32VW55X_Wifi_BLE_SDK/GD32VW55x_RELEASE_V1.0.2/MSDK/wpa_supplicant/src/rsn_supp\wpa_ie.c **** #ifdef CONFIG_SAE
 582              		.loc 1 201 3 is_stmt 1
 583              	.LVL57:
 584              	.LBB84:
 585              	.LBB85:
 281:..\..\..\..\wpa_supplicant\src\utils/common.h **** 	a[1] = (val >> 16) & 0xff;
 586              		.loc 2 281 2
 282:..\..\..\..\wpa_supplicant\src\utils/common.h **** 	a[2] = (val >> 8) & 0xff;
 587              		.loc 2 282 7 is_stmt 0
 588 01ba BD47     		li	a5,15
 589 01bc A308F400 		sb	a5,17(s0)
 283:..\..\..\..\wpa_supplicant\src\utils/common.h **** 	a[3] = val & 0xff;
 590              		.loc 2 283 7
 591 01c0 9307C0FA 		li	a5,-84
 592 01c4 2309F400 		sb	a5,18(s0)
 281:..\..\..\..\wpa_supplicant\src\utils/common.h **** 	a[1] = (val >> 16) & 0xff;
 593              		.loc 2 281 7
 594 01c8 23080400 		sb	zero,16(s0)
 282:..\..\..\..\wpa_supplicant\src\utils/common.h **** 	a[2] = (val >> 8) & 0xff;
 595              		.loc 2 282 2 is_stmt 1
 283:..\..\..\..\wpa_supplicant\src\utils/common.h **** 	a[3] = val & 0xff;
 596              		.loc 2 283 2
 597              		.loc 2 284 2
 598              		.loc 2 284 7 is_stmt 0
 599 01cc 9947     		li	a5,6
 600              	.LVL58:
 601              	.L54:
 602              	.LBE85:
 603              	.LBE84:
 604              	.LBB86:
 605              	.LBB87:
 606 01ce A309F400 		sb	a5,19(s0)
 285:..\..\..\..\wpa_supplicant\src\utils/common.h **** }
 607              		.loc 2 285 1
 608 01d2 A9B7     		j	.L33
 609              	.L34:
 610              	.LBE87:
 611              	.LBE86:
 203:C:/Users/stapi/OneDrive/Desktop/GD32VW553/V1_MQTT_OK/GD32VW55X_Wifi_BLE_SDK/GD32VW55x_RELEASE_V1.0.2/MSDK/wpa_supplicant/src/rsn_supp\wpa_ie.c **** 		RSN_SELECTOR_PUT(pos, RSN_AUTH_KEY_MGMT_SAE);
 612              		.loc 1 203 9 is_stmt 1
 203:C:/Users/stapi/OneDrive/Desktop/GD32VW553/V1_MQTT_OK/GD32VW55X_Wifi_BLE_SDK/GD32VW55x_RELEASE_V1.0.2/MSDK/wpa_supplicant/src/rsn_supp\wpa_ie.c **** 		RSN_SELECTOR_PUT(pos, RSN_AUTH_KEY_MGMT_SAE);
 613              		.loc 1 203 12 is_stmt 0
 614 01d4 93070040 		li	a5,1024
 615 01d8 639DF400 		bne	s1,a5,.L35
 204:C:/Users/stapi/OneDrive/Desktop/GD32VW553/V1_MQTT_OK/GD32VW55X_Wifi_BLE_SDK/GD32VW55x_RELEASE_V1.0.2/MSDK/wpa_supplicant/src/rsn_supp\wpa_ie.c **** 	} else if (key_mgmt == WPA_KEY_MGMT_FT_SAE) {
 616              		.loc 1 204 3 is_stmt 1
 617              	.LVL59:
 618              	.LBB89:
 619              	.LBB90:
 281:..\..\..\..\wpa_supplicant\src\utils/common.h **** 	a[1] = (val >> 16) & 0xff;
 620              		.loc 2 281 2
 282:..\..\..\..\wpa_supplicant\src\utils/common.h **** 	a[2] = (val >> 8) & 0xff;
 621              		.loc 2 282 7 is_stmt 0
 622 01dc BD47     		li	a5,15
 623 01de A308F400 		sb	a5,17(s0)
 283:..\..\..\..\wpa_supplicant\src\utils/common.h **** 	a[3] = val & 0xff;
 624              		.loc 2 283 7
 625 01e2 9307C0FA 		li	a5,-84
 626 01e6 2309F400 		sb	a5,18(s0)
 281:..\..\..\..\wpa_supplicant\src\utils/common.h **** 	a[1] = (val >> 16) & 0xff;
 627              		.loc 2 281 7
 628 01ea 23080400 		sb	zero,16(s0)
 282:..\..\..\..\wpa_supplicant\src\utils/common.h **** 	a[2] = (val >> 8) & 0xff;
 629              		.loc 2 282 2 is_stmt 1
 283:..\..\..\..\wpa_supplicant\src\utils/common.h **** 	a[3] = val & 0xff;
 630              		.loc 2 283 2
 284:..\..\..\..\wpa_supplicant\src\utils/common.h **** }
 631              		.loc 2 284 2
 284:..\..\..\..\wpa_supplicant\src\utils/common.h **** }
 632              		.loc 2 284 7 is_stmt 0
 633 01ee A147     		li	a5,8
 634 01f0 F9BF     		j	.L54
 635              	.LVL60:
 636              	.L35:
 637              	.LBE90:
 638              	.LBE89:
 205:C:/Users/stapi/OneDrive/Desktop/GD32VW553/V1_MQTT_OK/GD32VW55X_Wifi_BLE_SDK/GD32VW55x_RELEASE_V1.0.2/MSDK/wpa_supplicant/src/rsn_supp\wpa_ie.c **** 		RSN_SELECTOR_PUT(pos, RSN_AUTH_KEY_MGMT_FT_SAE);
 639              		.loc 1 205 9 is_stmt 1
 205:C:/Users/stapi/OneDrive/Desktop/GD32VW553/V1_MQTT_OK/GD32VW55X_Wifi_BLE_SDK/GD32VW55x_RELEASE_V1.0.2/MSDK/wpa_supplicant/src/rsn_supp\wpa_ie.c **** 		RSN_SELECTOR_PUT(pos, RSN_AUTH_KEY_MGMT_FT_SAE);
 640              		.loc 1 205 12 is_stmt 0
 641 01f2 93870480 		addi	a5,s1,-2048
 642 01f6 63950710 		bne	a5,zero,.L47
 206:C:/Users/stapi/OneDrive/Desktop/GD32VW553/V1_MQTT_OK/GD32VW55X_Wifi_BLE_SDK/GD32VW55x_RELEASE_V1.0.2/MSDK/wpa_supplicant/src/rsn_supp\wpa_ie.c **** #endif /* CONFIG_SAE */
 643              		.loc 1 206 3 is_stmt 1
 644              	.LVL61:
 645              	.LBB91:
 646              	.LBB88:
 281:..\..\..\..\wpa_supplicant\src\utils/common.h **** 	a[1] = (val >> 16) & 0xff;
 647              		.loc 2 281 2
 282:..\..\..\..\wpa_supplicant\src\utils/common.h **** 	a[2] = (val >> 8) & 0xff;
 648              		.loc 2 282 7 is_stmt 0
 649 01fa BD47     		li	a5,15
 650 01fc A308F400 		sb	a5,17(s0)
 283:..\..\..\..\wpa_supplicant\src\utils/common.h **** 	a[3] = val & 0xff;
 651              		.loc 2 283 7
 652 0200 9307C0FA 		li	a5,-84
 653 0204 2309F400 		sb	a5,18(s0)
 281:..\..\..\..\wpa_supplicant\src\utils/common.h **** 	a[1] = (val >> 16) & 0xff;
 654              		.loc 2 281 7
 655 0208 23080400 		sb	zero,16(s0)
 282:..\..\..\..\wpa_supplicant\src\utils/common.h **** 	a[2] = (val >> 8) & 0xff;
 656              		.loc 2 282 2 is_stmt 1
 283:..\..\..\..\wpa_supplicant\src\utils/common.h **** 	a[3] = val & 0xff;
 657              		.loc 2 283 2
 284:..\..\..\..\wpa_supplicant\src\utils/common.h **** }
 658              		.loc 2 284 2
 284:..\..\..\..\wpa_supplicant\src\utils/common.h **** }
 659              		.loc 2 284 7 is_stmt 0
 660 020c A547     		li	a5,9
 661 020e C1B7     		j	.L54
 662              	.LVL62:
 663              	.L24:
 664              	.LBE88:
 665              	.LBE91:
 666              	.LBE95:
 667              	.LBE118:
 354:C:/Users/stapi/OneDrive/Desktop/GD32VW553/V1_MQTT_OK/GD32VW55X_Wifi_BLE_SDK/GD32VW55x_RELEASE_V1.0.2/MSDK/wpa_supplicant/src/rsn_supp\wpa_ie.c **** 					  sm->pairwise_cipher,
 668              		.loc 1 354 3 is_stmt 1
 669              	.LBB119:
 670              	.LBB115:
  45:C:/Users/stapi/OneDrive/Desktop/GD32VW553/V1_MQTT_OK/GD32VW55X_Wifi_BLE_SDK/GD32VW55x_RELEASE_V1.0.2/MSDK/wpa_supplicant/src/rsn_supp\wpa_ie.c **** 	struct wpa_ie_hdr *hdr;
 671              		.loc 1 45 2
  46:C:/Users/stapi/OneDrive/Desktop/GD32VW553/V1_MQTT_OK/GD32VW55X_Wifi_BLE_SDK/GD32VW55x_RELEASE_V1.0.2/MSDK/wpa_supplicant/src/rsn_supp\wpa_ie.c **** 	u32 suite;
 672              		.loc 1 46 2
  47:C:/Users/stapi/OneDrive/Desktop/GD32VW553/V1_MQTT_OK/GD32VW55X_Wifi_BLE_SDK/GD32VW55x_RELEASE_V1.0.2/MSDK/wpa_supplicant/src/rsn_supp\wpa_ie.c **** 
 673              		.loc 1 47 2
  49:C:/Users/stapi/OneDrive/Desktop/GD32VW553/V1_MQTT_OK/GD32VW55X_Wifi_BLE_SDK/GD32VW55x_RELEASE_V1.0.2/MSDK/wpa_supplicant/src/rsn_supp\wpa_ie.c **** 	    2 + WPA_SELECTOR_LEN + 2 + WPA_SELECTOR_LEN)
 674              		.loc 1 49 2
  49:C:/Users/stapi/OneDrive/Desktop/GD32VW553/V1_MQTT_OK/GD32VW55X_Wifi_BLE_SDK/GD32VW55x_RELEASE_V1.0.2/MSDK/wpa_supplicant/src/rsn_supp\wpa_ie.c **** 	    2 + WPA_SELECTOR_LEN + 2 + WPA_SELECTOR_LEN)
 675              		.loc 1 49 5 is_stmt 0
 676 0210 5D47     		li	a4,23
  51:C:/Users/stapi/OneDrive/Desktop/GD32VW553/V1_MQTT_OK/GD32VW55X_Wifi_BLE_SDK/GD32VW55x_RELEASE_V1.0.2/MSDK/wpa_supplicant/src/rsn_supp\wpa_ie.c **** 
 677              		.loc 1 51 10
 678 0212 7D55     		li	a0,-1
 679              	.LVL63:
  49:C:/Users/stapi/OneDrive/Desktop/GD32VW553/V1_MQTT_OK/GD32VW55X_Wifi_BLE_SDK/GD32VW55x_RELEASE_V1.0.2/MSDK/wpa_supplicant/src/rsn_supp\wpa_ie.c **** 	    2 + WPA_SELECTOR_LEN + 2 + WPA_SELECTOR_LEN)
 680              		.loc 1 49 5
 681 0214 E37EF7E2 		bleu	a5,a4,.L23
  53:C:/Users/stapi/OneDrive/Desktop/GD32VW553/V1_MQTT_OK/GD32VW55X_Wifi_BLE_SDK/GD32VW55x_RELEASE_V1.0.2/MSDK/wpa_supplicant/src/rsn_supp\wpa_ie.c **** 	hdr->elem_id = WLAN_EID_VENDOR_SPECIFIC;
 682              		.loc 1 53 2 is_stmt 1
 683              	.LVL64:
  54:C:/Users/stapi/OneDrive/Desktop/GD32VW553/V1_MQTT_OK/GD32VW55X_Wifi_BLE_SDK/GD32VW55x_RELEASE_V1.0.2/MSDK/wpa_supplicant/src/rsn_supp\wpa_ie.c **** 	RSN_SELECTOR_PUT(hdr->oui, WPA_OUI_TYPE);
 684              		.loc 1 54 2
  54:C:/Users/stapi/OneDrive/Desktop/GD32VW553/V1_MQTT_OK/GD32VW55X_Wifi_BLE_SDK/GD32VW55x_RELEASE_V1.0.2/MSDK/wpa_supplicant/src/rsn_supp\wpa_ie.c **** 	RSN_SELECTOR_PUT(hdr->oui, WPA_OUI_TYPE);
 685              		.loc 1 54 15 is_stmt 0
 686 0218 9307D0FD 		li	a5,-35
 687              	.LVL65:
 688 021c 2380F500 		sb	a5,0(a1)
 689              	.LVL66:
  55:C:/Users/stapi/OneDrive/Desktop/GD32VW553/V1_MQTT_OK/GD32VW55X_Wifi_BLE_SDK/GD32VW55x_RELEASE_V1.0.2/MSDK/wpa_supplicant/src/rsn_supp\wpa_ie.c **** 	WPA_PUT_LE16(hdr->version, WPA_VERSION);
 690              		.loc 1 55 2 is_stmt 1
 691              	.LBB100:
 692              	.LBB101:
 281:..\..\..\..\wpa_supplicant\src\utils/common.h **** 	a[1] = (val >> 16) & 0xff;
 693              		.loc 2 281 2
 282:..\..\..\..\wpa_supplicant\src\utils/common.h **** 	a[2] = (val >> 8) & 0xff;
 694              		.loc 2 282 7 is_stmt 0
 695 0220 93070005 		li	a5,80
 696 0224 A381F500 		sb	a5,3(a1)
 284:..\..\..\..\wpa_supplicant\src\utils/common.h **** }
 697              		.loc 2 284 7
 698 0228 054A     		li	s4,1
 283:..\..\..\..\wpa_supplicant\src\utils/common.h **** 	a[3] = val & 0xff;
 699              		.loc 2 283 7
 700 022a C957     		li	a5,-14
 281:..\..\..\..\wpa_supplicant\src\utils/common.h **** 	a[1] = (val >> 16) & 0xff;
 701              		.loc 2 281 7
 702 022c 23810500 		sb	zero,2(a1)
 282:..\..\..\..\wpa_supplicant\src\utils/common.h **** 	a[2] = (val >> 8) & 0xff;
 703              		.loc 2 282 2 is_stmt 1
 283:..\..\..\..\wpa_supplicant\src\utils/common.h **** 	a[3] = val & 0xff;
 704              		.loc 2 283 2
 283:..\..\..\..\wpa_supplicant\src\utils/common.h **** 	a[3] = val & 0xff;
 705              		.loc 2 283 7 is_stmt 0
 706 0230 2382F500 		sb	a5,4(a1)
 284:..\..\..\..\wpa_supplicant\src\utils/common.h **** }
 707              		.loc 2 284 2 is_stmt 1
 284:..\..\..\..\wpa_supplicant\src\utils/common.h **** }
 708              		.loc 2 284 7 is_stmt 0
 709 0234 A3824501 		sb	s4,5(a1)
 710              	.LVL67:
 711              	.LBE101:
 712              	.LBE100:
  56:C:/Users/stapi/OneDrive/Desktop/GD32VW553/V1_MQTT_OK/GD32VW55X_Wifi_BLE_SDK/GD32VW55x_RELEASE_V1.0.2/MSDK/wpa_supplicant/src/rsn_supp\wpa_ie.c **** 	pos = (u8 *) (hdr + 1);
 713              		.loc 1 56 2 is_stmt 1
 714              	.LBB102:
 715              	.LBB103:
 258:..\..\..\..\wpa_supplicant\src\utils/common.h **** 	a[0] = val & 0xff;
 716              		.loc 2 258 2
 258:..\..\..\..\wpa_supplicant\src\utils/common.h **** 	a[0] = val & 0xff;
 717              		.loc 2 258 7 is_stmt 0
 718 0238 A3830500 		sb	zero,7(a1)
 259:..\..\..\..\wpa_supplicant\src\utils/common.h **** }
 719              		.loc 2 259 2 is_stmt 1
 259:..\..\..\..\wpa_supplicant\src\utils/common.h **** }
 720              		.loc 2 259 7 is_stmt 0
 721 023c 23834501 		sb	s4,6(a1)
 722              	.LVL68:
 723              	.LBE103:
 724              	.LBE102:
  57:C:/Users/stapi/OneDrive/Desktop/GD32VW553/V1_MQTT_OK/GD32VW55X_Wifi_BLE_SDK/GD32VW55x_RELEASE_V1.0.2/MSDK/wpa_supplicant/src/rsn_supp\wpa_ie.c **** 
 725              		.loc 1 57 2 is_stmt 1
  59:C:/Users/stapi/OneDrive/Desktop/GD32VW553/V1_MQTT_OK/GD32VW55X_Wifi_BLE_SDK/GD32VW55x_RELEASE_V1.0.2/MSDK/wpa_supplicant/src/rsn_supp\wpa_ie.c **** 	if (suite == 0) {
 726              		.loc 1 59 2
  59:C:/Users/stapi/OneDrive/Desktop/GD32VW553/V1_MQTT_OK/GD32VW55X_Wifi_BLE_SDK/GD32VW55x_RELEASE_V1.0.2/MSDK/wpa_supplicant/src/rsn_supp\wpa_ie.c **** 	if (suite == 0) {
 727              		.loc 1 59 10 is_stmt 0
 728 0240 0545     		li	a0,1
 729 0242 B285     		mv	a1,a2
 730 0244 32C6     		sw	a2,12(sp)
 731 0246 97000000 		call	wpa_cipher_to_suite
 731      E7800000 
 732              	.LVL69:
  60:C:/Users/stapi/OneDrive/Desktop/GD32VW553/V1_MQTT_OK/GD32VW55X_Wifi_BLE_SDK/GD32VW55x_RELEASE_V1.0.2/MSDK/wpa_supplicant/src/rsn_supp\wpa_ie.c **** 		wpa_printf(MSG_WARNING, "Invalid group cipher (%d).",
 733              		.loc 1 60 2 is_stmt 1
  60:C:/Users/stapi/OneDrive/Desktop/GD32VW553/V1_MQTT_OK/GD32VW55X_Wifi_BLE_SDK/GD32VW55x_RELEASE_V1.0.2/MSDK/wpa_supplicant/src/rsn_supp\wpa_ie.c **** 		wpa_printf(MSG_WARNING, "Invalid group cipher (%d).",
 734              		.loc 1 60 5 is_stmt 0
 735 024e 3246     		lw	a2,12(sp)
 736 0250 E30705E2 		beq	a0,zero,.L57
  65:C:/Users/stapi/OneDrive/Desktop/GD32VW553/V1_MQTT_OK/GD32VW55X_Wifi_BLE_SDK/GD32VW55x_RELEASE_V1.0.2/MSDK/wpa_supplicant/src/rsn_supp\wpa_ie.c **** 	pos += WPA_SELECTOR_LEN;
 737              		.loc 1 65 2 is_stmt 1
 738              	.LVL70:
 739              	.LBB104:
 740              	.LBB105:
 281:..\..\..\..\wpa_supplicant\src\utils/common.h **** 	a[1] = (val >> 16) & 0xff;
 741              		.loc 2 281 2
 281:..\..\..\..\wpa_supplicant\src\utils/common.h **** 	a[1] = (val >> 16) & 0xff;
 742              		.loc 2 281 14 is_stmt 0
 743 0254 93578501 		srli	a5,a0,24
 281:..\..\..\..\wpa_supplicant\src\utils/common.h **** 	a[1] = (val >> 16) & 0xff;
 744              		.loc 2 281 7
 745 0258 2304F400 		sb	a5,8(s0)
 282:..\..\..\..\wpa_supplicant\src\utils/common.h **** 	a[2] = (val >> 8) & 0xff;
 746              		.loc 2 282 2 is_stmt 1
 282:..\..\..\..\wpa_supplicant\src\utils/common.h **** 	a[2] = (val >> 8) & 0xff;
 747              		.loc 2 282 14 is_stmt 0
 748 025c 93570501 		srli	a5,a0,16
 282:..\..\..\..\wpa_supplicant\src\utils/common.h **** 	a[2] = (val >> 8) & 0xff;
 749              		.loc 2 282 7
 750 0260 A304F400 		sb	a5,9(s0)
 283:..\..\..\..\wpa_supplicant\src\utils/common.h **** 	a[3] = val & 0xff;
 751              		.loc 2 283 2 is_stmt 1
 283:..\..\..\..\wpa_supplicant\src\utils/common.h **** 	a[3] = val & 0xff;
 752              		.loc 2 283 14 is_stmt 0
 753 0264 93578500 		srli	a5,a0,8
 284:..\..\..\..\wpa_supplicant\src\utils/common.h **** }
 754              		.loc 2 284 7
 755 0268 A305A400 		sb	a0,11(s0)
 283:..\..\..\..\wpa_supplicant\src\utils/common.h **** 	a[3] = val & 0xff;
 756              		.loc 2 283 7
 757 026c 2305F400 		sb	a5,10(s0)
 284:..\..\..\..\wpa_supplicant\src\utils/common.h **** }
 758              		.loc 2 284 2 is_stmt 1
 759              	.LVL71:
 760              	.LBE105:
 761              	.LBE104:
  66:C:/Users/stapi/OneDrive/Desktop/GD32VW553/V1_MQTT_OK/GD32VW55X_Wifi_BLE_SDK/GD32VW55x_RELEASE_V1.0.2/MSDK/wpa_supplicant/src/rsn_supp\wpa_ie.c **** 
 762              		.loc 1 66 2
  68:C:/Users/stapi/OneDrive/Desktop/GD32VW553/V1_MQTT_OK/GD32VW55X_Wifi_BLE_SDK/GD32VW55x_RELEASE_V1.0.2/MSDK/wpa_supplicant/src/rsn_supp\wpa_ie.c **** 	*pos++ = 0;
 763              		.loc 1 68 2
  68:C:/Users/stapi/OneDrive/Desktop/GD32VW553/V1_MQTT_OK/GD32VW55X_Wifi_BLE_SDK/GD32VW55x_RELEASE_V1.0.2/MSDK/wpa_supplicant/src/rsn_supp\wpa_ie.c **** 	*pos++ = 0;
 764              		.loc 1 68 9 is_stmt 0
 765 0270 23064401 		sb	s4,12(s0)
  69:C:/Users/stapi/OneDrive/Desktop/GD32VW553/V1_MQTT_OK/GD32VW55X_Wifi_BLE_SDK/GD32VW55x_RELEASE_V1.0.2/MSDK/wpa_supplicant/src/rsn_supp\wpa_ie.c **** 	suite = wpa_cipher_to_suite(WPA_PROTO_WPA, pairwise_cipher);
 766              		.loc 1 69 2 is_stmt 1
 767              	.LVL72:
  69:C:/Users/stapi/OneDrive/Desktop/GD32VW553/V1_MQTT_OK/GD32VW55X_Wifi_BLE_SDK/GD32VW55x_RELEASE_V1.0.2/MSDK/wpa_supplicant/src/rsn_supp\wpa_ie.c **** 	suite = wpa_cipher_to_suite(WPA_PROTO_WPA, pairwise_cipher);
 768              		.loc 1 69 9 is_stmt 0
 769 0274 A3060400 		sb	zero,13(s0)
  70:C:/Users/stapi/OneDrive/Desktop/GD32VW553/V1_MQTT_OK/GD32VW55X_Wifi_BLE_SDK/GD32VW55x_RELEASE_V1.0.2/MSDK/wpa_supplicant/src/rsn_supp\wpa_ie.c **** 	if (suite == 0 ||
 770              		.loc 1 70 2 is_stmt 1
  70:C:/Users/stapi/OneDrive/Desktop/GD32VW553/V1_MQTT_OK/GD32VW55X_Wifi_BLE_SDK/GD32VW55x_RELEASE_V1.0.2/MSDK/wpa_supplicant/src/rsn_supp\wpa_ie.c **** 	if (suite == 0 ||
 771              		.loc 1 70 10 is_stmt 0
 772 0278 CE85     		mv	a1,s3
 773 027a 0545     		li	a0,1
 774              	.LVL73:
 775 027c 97000000 		call	wpa_cipher_to_suite
 775      E7800000 
 776              	.LVL74:
 777 0284 2A89     		mv	s2,a0
 778              	.LVL75:
  71:C:/Users/stapi/OneDrive/Desktop/GD32VW553/V1_MQTT_OK/GD32VW55X_Wifi_BLE_SDK/GD32VW55x_RELEASE_V1.0.2/MSDK/wpa_supplicant/src/rsn_supp\wpa_ie.c **** 	    (!wpa_cipher_valid_pairwise(pairwise_cipher) &&
 779              		.loc 1 71 2 is_stmt 1
  71:C:/Users/stapi/OneDrive/Desktop/GD32VW553/V1_MQTT_OK/GD32VW55X_Wifi_BLE_SDK/GD32VW55x_RELEASE_V1.0.2/MSDK/wpa_supplicant/src/rsn_supp\wpa_ie.c **** 	    (!wpa_cipher_valid_pairwise(pairwise_cipher) &&
 780              		.loc 1 71 5 is_stmt 0
 781 0286 E30C05E2 		beq	a0,zero,.L44
  72:C:/Users/stapi/OneDrive/Desktop/GD32VW553/V1_MQTT_OK/GD32VW55X_Wifi_BLE_SDK/GD32VW55x_RELEASE_V1.0.2/MSDK/wpa_supplicant/src/rsn_supp\wpa_ie.c **** 	     pairwise_cipher != WPA_CIPHER_NONE)) {
 782              		.loc 1 72 8
 783 028a 4E85     		mv	a0,s3
 784              	.LVL76:
 785 028c 97000000 		call	wpa_cipher_valid_pairwise
 785      E7800000 
 786              	.LVL77:
  71:C:/Users/stapi/OneDrive/Desktop/GD32VW553/V1_MQTT_OK/GD32VW55X_Wifi_BLE_SDK/GD32VW55x_RELEASE_V1.0.2/MSDK/wpa_supplicant/src/rsn_supp\wpa_ie.c **** 	    (!wpa_cipher_valid_pairwise(pairwise_cipher) &&
 787              		.loc 1 71 17
 788 0294 19E1     		bne	a0,zero,.L43
  72:C:/Users/stapi/OneDrive/Desktop/GD32VW553/V1_MQTT_OK/GD32VW55X_Wifi_BLE_SDK/GD32VW55x_RELEASE_V1.0.2/MSDK/wpa_supplicant/src/rsn_supp\wpa_ie.c **** 	     pairwise_cipher != WPA_CIPHER_NONE)) {
 789              		.loc 1 72 51
 790 0296 E39449E3 		bne	s3,s4,.L44
 791              	.L43:
  78:C:/Users/stapi/OneDrive/Desktop/GD32VW553/V1_MQTT_OK/GD32VW55X_Wifi_BLE_SDK/GD32VW55x_RELEASE_V1.0.2/MSDK/wpa_supplicant/src/rsn_supp\wpa_ie.c **** 	pos += WPA_SELECTOR_LEN;
 792              		.loc 1 78 2 is_stmt 1
 793              	.LVL78:
 794              	.LBB106:
 795              	.LBB107:
 281:..\..\..\..\wpa_supplicant\src\utils/common.h **** 	a[1] = (val >> 16) & 0xff;
 796              		.loc 2 281 2
 281:..\..\..\..\wpa_supplicant\src\utils/common.h **** 	a[1] = (val >> 16) & 0xff;
 797              		.loc 2 281 14 is_stmt 0
 798 029a 93578901 		srli	a5,s2,24
 281:..\..\..\..\wpa_supplicant\src\utils/common.h **** 	a[1] = (val >> 16) & 0xff;
 799              		.loc 2 281 7
 800 029e 2307F400 		sb	a5,14(s0)
 282:..\..\..\..\wpa_supplicant\src\utils/common.h **** 	a[2] = (val >> 8) & 0xff;
 801              		.loc 2 282 2 is_stmt 1
 282:..\..\..\..\wpa_supplicant\src\utils/common.h **** 	a[2] = (val >> 8) & 0xff;
 802              		.loc 2 282 14 is_stmt 0
 803 02a2 93570901 		srli	a5,s2,16
 282:..\..\..\..\wpa_supplicant\src\utils/common.h **** 	a[2] = (val >> 8) & 0xff;
 804              		.loc 2 282 7
 805 02a6 A307F400 		sb	a5,15(s0)
 283:..\..\..\..\wpa_supplicant\src\utils/common.h **** 	a[3] = val & 0xff;
 806              		.loc 2 283 2 is_stmt 1
 283:..\..\..\..\wpa_supplicant\src\utils/common.h **** 	a[3] = val & 0xff;
 807              		.loc 2 283 14 is_stmt 0
 808 02aa 93578900 		srli	a5,s2,8
 283:..\..\..\..\wpa_supplicant\src\utils/common.h **** 	a[3] = val & 0xff;
 809              		.loc 2 283 7
 810 02ae 2308F400 		sb	a5,16(s0)
 284:..\..\..\..\wpa_supplicant\src\utils/common.h **** }
 811              		.loc 2 284 2 is_stmt 1
 812              	.LBE107:
 813              	.LBE106:
  81:C:/Users/stapi/OneDrive/Desktop/GD32VW553/V1_MQTT_OK/GD32VW55X_Wifi_BLE_SDK/GD32VW55x_RELEASE_V1.0.2/MSDK/wpa_supplicant/src/rsn_supp\wpa_ie.c **** 	*pos++ = 0;
 814              		.loc 1 81 9 is_stmt 0
 815 02b2 8547     		li	a5,1
 816 02b4 2309F400 		sb	a5,18(s0)
 817              	.LBB109:
 818              	.LBB108:
 284:..\..\..\..\wpa_supplicant\src\utils/common.h **** }
 819              		.loc 2 284 7
 820 02b8 A3082401 		sb	s2,17(s0)
 821              	.LVL79:
 822              	.LBE108:
 823              	.LBE109:
  79:C:/Users/stapi/OneDrive/Desktop/GD32VW553/V1_MQTT_OK/GD32VW55X_Wifi_BLE_SDK/GD32VW55x_RELEASE_V1.0.2/MSDK/wpa_supplicant/src/rsn_supp\wpa_ie.c **** 
 824              		.loc 1 79 2 is_stmt 1
  81:C:/Users/stapi/OneDrive/Desktop/GD32VW553/V1_MQTT_OK/GD32VW55X_Wifi_BLE_SDK/GD32VW55x_RELEASE_V1.0.2/MSDK/wpa_supplicant/src/rsn_supp\wpa_ie.c **** 	*pos++ = 0;
 825              		.loc 1 81 2
  82:C:/Users/stapi/OneDrive/Desktop/GD32VW553/V1_MQTT_OK/GD32VW55X_Wifi_BLE_SDK/GD32VW55x_RELEASE_V1.0.2/MSDK/wpa_supplicant/src/rsn_supp\wpa_ie.c **** 
 826              		.loc 1 82 2
  82:C:/Users/stapi/OneDrive/Desktop/GD32VW553/V1_MQTT_OK/GD32VW55X_Wifi_BLE_SDK/GD32VW55x_RELEASE_V1.0.2/MSDK/wpa_supplicant/src/rsn_supp\wpa_ie.c **** 
 827              		.loc 1 82 9 is_stmt 0
 828 02bc A3090400 		sb	zero,19(s0)
  91:C:/Users/stapi/OneDrive/Desktop/GD32VW553/V1_MQTT_OK/GD32VW55X_Wifi_BLE_SDK/GD32VW55x_RELEASE_V1.0.2/MSDK/wpa_supplicant/src/rsn_supp\wpa_ie.c **** 		RSN_SELECTOR_PUT(pos, WPA_AUTH_KEY_MGMT_PSK_OVER_802_1X);
 829              		.loc 1 91 2 is_stmt 1
  91:C:/Users/stapi/OneDrive/Desktop/GD32VW553/V1_MQTT_OK/GD32VW55X_Wifi_BLE_SDK/GD32VW55x_RELEASE_V1.0.2/MSDK/wpa_supplicant/src/rsn_supp\wpa_ie.c **** 		RSN_SELECTOR_PUT(pos, WPA_AUTH_KEY_MGMT_PSK_OVER_802_1X);
 830              		.loc 1 91 5 is_stmt 0
 831 02c0 8947     		li	a5,2
 832 02c2 6390F402 		bne	s1,a5,.L45
  92:C:/Users/stapi/OneDrive/Desktop/GD32VW553/V1_MQTT_OK/GD32VW55X_Wifi_BLE_SDK/GD32VW55x_RELEASE_V1.0.2/MSDK/wpa_supplicant/src/rsn_supp\wpa_ie.c **** 	} else if (key_mgmt == WPA_KEY_MGMT_WPA_NONE) {
 833              		.loc 1 92 3 is_stmt 1
 834              	.LVL80:
 835              	.LBB110:
 836              	.LBB111:
 281:..\..\..\..\wpa_supplicant\src\utils/common.h **** 	a[1] = (val >> 16) & 0xff;
 837              		.loc 2 281 2
 282:..\..\..\..\wpa_supplicant\src\utils/common.h **** 	a[2] = (val >> 8) & 0xff;
 838              		.loc 2 282 7 is_stmt 0
 839 02c6 93070005 		li	a5,80
 840 02ca A30AF400 		sb	a5,21(s0)
 283:..\..\..\..\wpa_supplicant\src\utils/common.h **** 	a[3] = val & 0xff;
 841              		.loc 2 283 7
 842 02ce C957     		li	a5,-14
 281:..\..\..\..\wpa_supplicant\src\utils/common.h **** 	a[1] = (val >> 16) & 0xff;
 843              		.loc 2 281 7
 844 02d0 230A0400 		sb	zero,20(s0)
 282:..\..\..\..\wpa_supplicant\src\utils/common.h **** 	a[2] = (val >> 8) & 0xff;
 845              		.loc 2 282 2 is_stmt 1
 283:..\..\..\..\wpa_supplicant\src\utils/common.h **** 	a[3] = val & 0xff;
 846              		.loc 2 283 2
 283:..\..\..\..\wpa_supplicant\src\utils/common.h **** 	a[3] = val & 0xff;
 847              		.loc 2 283 7 is_stmt 0
 848 02d4 230BF400 		sb	a5,22(s0)
 284:..\..\..\..\wpa_supplicant\src\utils/common.h **** }
 849              		.loc 2 284 2 is_stmt 1
 284:..\..\..\..\wpa_supplicant\src\utils/common.h **** }
 850              		.loc 2 284 7 is_stmt 0
 851 02d8 A30B9400 		sb	s1,23(s0)
 852              	.LVL81:
 853              	.L46:
 854              	.LBE111:
 855              	.LBE110:
 100:C:/Users/stapi/OneDrive/Desktop/GD32VW553/V1_MQTT_OK/GD32VW55X_Wifi_BLE_SDK/GD32VW55x_RELEASE_V1.0.2/MSDK/wpa_supplicant/src/rsn_supp\wpa_ie.c **** 
 856              		.loc 1 100 2 is_stmt 1
 104:C:/Users/stapi/OneDrive/Desktop/GD32VW553/V1_MQTT_OK/GD32VW55X_Wifi_BLE_SDK/GD32VW55x_RELEASE_V1.0.2/MSDK/wpa_supplicant/src/rsn_supp\wpa_ie.c **** 
 857              		.loc 1 104 2
 104:C:/Users/stapi/OneDrive/Desktop/GD32VW553/V1_MQTT_OK/GD32VW55X_Wifi_BLE_SDK/GD32VW55x_RELEASE_V1.0.2/MSDK/wpa_supplicant/src/rsn_supp\wpa_ie.c **** 
 858              		.loc 1 104 18 is_stmt 0
 859 02dc 6145     		li	a0,24
 104:C:/Users/stapi/OneDrive/Desktop/GD32VW553/V1_MQTT_OK/GD32VW55X_Wifi_BLE_SDK/GD32VW55x_RELEASE_V1.0.2/MSDK/wpa_supplicant/src/rsn_supp\wpa_ie.c **** 
 860              		.loc 1 104 28
 861 02de D947     		li	a5,22
 862 02e0 F1B5     		j	.L58
 863              	.LVL82:
 864              	.L45:
  93:C:/Users/stapi/OneDrive/Desktop/GD32VW553/V1_MQTT_OK/GD32VW55X_Wifi_BLE_SDK/GD32VW55x_RELEASE_V1.0.2/MSDK/wpa_supplicant/src/rsn_supp\wpa_ie.c **** 		RSN_SELECTOR_PUT(pos, WPA_AUTH_KEY_MGMT_NONE);
 865              		.loc 1 93 9 is_stmt 1
  93:C:/Users/stapi/OneDrive/Desktop/GD32VW553/V1_MQTT_OK/GD32VW55X_Wifi_BLE_SDK/GD32VW55x_RELEASE_V1.0.2/MSDK/wpa_supplicant/src/rsn_supp\wpa_ie.c **** 		RSN_SELECTOR_PUT(pos, WPA_AUTH_KEY_MGMT_NONE);
 866              		.loc 1 93 12 is_stmt 0
 867 02e2 C147     		li	a5,16
 868 02e4 639EF400 		bne	s1,a5,.L47
  94:C:/Users/stapi/OneDrive/Desktop/GD32VW553/V1_MQTT_OK/GD32VW55X_Wifi_BLE_SDK/GD32VW55x_RELEASE_V1.0.2/MSDK/wpa_supplicant/src/rsn_supp\wpa_ie.c **** 	} else {
 869              		.loc 1 94 3 is_stmt 1
 870              	.LVL83:
 871              	.LBB112:
 872              	.LBB113:
 281:..\..\..\..\wpa_supplicant\src\utils/common.h **** 	a[1] = (val >> 16) & 0xff;
 873              		.loc 2 281 2
 282:..\..\..\..\wpa_supplicant\src\utils/common.h **** 	a[2] = (val >> 8) & 0xff;
 874              		.loc 2 282 7 is_stmt 0
 875 02e8 93070005 		li	a5,80
 876 02ec A30AF400 		sb	a5,21(s0)
 283:..\..\..\..\wpa_supplicant\src\utils/common.h **** 	a[3] = val & 0xff;
 877              		.loc 2 283 7
 878 02f0 C957     		li	a5,-14
 281:..\..\..\..\wpa_supplicant\src\utils/common.h **** 	a[1] = (val >> 16) & 0xff;
 879              		.loc 2 281 7
 880 02f2 230A0400 		sb	zero,20(s0)
 282:..\..\..\..\wpa_supplicant\src\utils/common.h **** 	a[2] = (val >> 8) & 0xff;
 881              		.loc 2 282 2 is_stmt 1
 283:..\..\..\..\wpa_supplicant\src\utils/common.h **** 	a[3] = val & 0xff;
 882              		.loc 2 283 2
 283:..\..\..\..\wpa_supplicant\src\utils/common.h **** 	a[3] = val & 0xff;
 883              		.loc 2 283 7 is_stmt 0
 884 02f6 230BF400 		sb	a5,22(s0)
 284:..\..\..\..\wpa_supplicant\src\utils/common.h **** }
 885              		.loc 2 284 2 is_stmt 1
 284:..\..\..\..\wpa_supplicant\src\utils/common.h **** }
 886              		.loc 2 284 7 is_stmt 0
 887 02fa A30B0400 		sb	zero,23(s0)
 888              		.loc 2 285 1
 889 02fe F9BF     		j	.L46
 890              	.LVL84:
 891              	.L47:
 892              	.LBE113:
 893              	.LBE112:
  96:C:/Users/stapi/OneDrive/Desktop/GD32VW553/V1_MQTT_OK/GD32VW55X_Wifi_BLE_SDK/GD32VW55x_RELEASE_V1.0.2/MSDK/wpa_supplicant/src/rsn_supp\wpa_ie.c **** 			   key_mgmt);
 894              		.loc 1 96 3 is_stmt 1
 895 0300 B7050000 		lui	a1,%hi(.LC3)
 896 0304 2686     		mv	a2,s1
 897 0306 93850500 		addi	a1,a1,%lo(.LC3)
 898 030a B5BB     		j	.L56
 899              	.LBE115:
 900              	.LBE119:
 901              		.cfi_endproc
 902              	.LFE131:
 904              		.section	.text.wpa_gen_rsnxe,"ax",@progbits
 905              		.align	1
 906              		.globl	wpa_gen_rsnxe
 908              	wpa_gen_rsnxe:
 909              	.LFB132:
 359:C:/Users/stapi/OneDrive/Desktop/GD32VW553/V1_MQTT_OK/GD32VW55X_Wifi_BLE_SDK/GD32VW55x_RELEASE_V1.0.2/MSDK/wpa_supplicant/src/rsn_supp\wpa_ie.c **** 
 360:C:/Users/stapi/OneDrive/Desktop/GD32VW553/V1_MQTT_OK/GD32VW55X_Wifi_BLE_SDK/GD32VW55x_RELEASE_V1.0.2/MSDK/wpa_supplicant/src/rsn_supp\wpa_ie.c **** 
 361:C:/Users/stapi/OneDrive/Desktop/GD32VW553/V1_MQTT_OK/GD32VW55X_Wifi_BLE_SDK/GD32VW55x_RELEASE_V1.0.2/MSDK/wpa_supplicant/src/rsn_supp\wpa_ie.c **** int wpa_gen_rsnxe(struct wpa_sm *sm, u8 *rsnxe, size_t rsnxe_len)
 362:C:/Users/stapi/OneDrive/Desktop/GD32VW553/V1_MQTT_OK/GD32VW55X_Wifi_BLE_SDK/GD32VW55x_RELEASE_V1.0.2/MSDK/wpa_supplicant/src/rsn_supp\wpa_ie.c **** {
 910              		.loc 1 362 1
 911              		.cfi_startproc
 912              	.LVL85:
 363:C:/Users/stapi/OneDrive/Desktop/GD32VW553/V1_MQTT_OK/GD32VW55X_Wifi_BLE_SDK/GD32VW55x_RELEASE_V1.0.2/MSDK/wpa_supplicant/src/rsn_supp\wpa_ie.c **** 	u8 *pos = rsnxe;
 913              		.loc 1 363 2
 364:C:/Users/stapi/OneDrive/Desktop/GD32VW553/V1_MQTT_OK/GD32VW55X_Wifi_BLE_SDK/GD32VW55x_RELEASE_V1.0.2/MSDK/wpa_supplicant/src/rsn_supp\wpa_ie.c **** 	u16 capab = 0;
 914              		.loc 1 364 2
 365:C:/Users/stapi/OneDrive/Desktop/GD32VW553/V1_MQTT_OK/GD32VW55X_Wifi_BLE_SDK/GD32VW55x_RELEASE_V1.0.2/MSDK/wpa_supplicant/src/rsn_supp\wpa_ie.c **** 	size_t flen;
 915              		.loc 1 365 2
 366:C:/Users/stapi/OneDrive/Desktop/GD32VW553/V1_MQTT_OK/GD32VW55X_Wifi_BLE_SDK/GD32VW55x_RELEASE_V1.0.2/MSDK/wpa_supplicant/src/rsn_supp\wpa_ie.c **** 
 367:C:/Users/stapi/OneDrive/Desktop/GD32VW553/V1_MQTT_OK/GD32VW55X_Wifi_BLE_SDK/GD32VW55x_RELEASE_V1.0.2/MSDK/wpa_supplicant/src/rsn_supp\wpa_ie.c **** 	if (wpa_key_mgmt_sae(sm->key_mgmt) &&
 916              		.loc 1 367 2
 917              	.LBB120:
 918              	.LBB121:
 919              		.file 3 "..\\..\\..\\..\\wpa_supplicant\\src/common/defs.h"
   1:..\..\..\..\wpa_supplicant\src/common/defs.h **** /*
   2:..\..\..\..\wpa_supplicant\src/common/defs.h ****  * WPA Supplicant - Common definitions
   3:..\..\..\..\wpa_supplicant\src/common/defs.h ****  * Copyright (c) 2004-2018, Jouni Malinen <j@w1.fi>
   4:..\..\..\..\wpa_supplicant\src/common/defs.h ****  *
   5:..\..\..\..\wpa_supplicant\src/common/defs.h ****  * This software may be distributed under the terms of the BSD license.
   6:..\..\..\..\wpa_supplicant\src/common/defs.h ****  * See README for more details.
   7:..\..\..\..\wpa_supplicant\src/common/defs.h ****  */
   8:..\..\..\..\wpa_supplicant\src/common/defs.h **** 
   9:..\..\..\..\wpa_supplicant\src/common/defs.h **** #ifndef DEFS_H
  10:..\..\..\..\wpa_supplicant\src/common/defs.h **** #define DEFS_H
  11:..\..\..\..\wpa_supplicant\src/common/defs.h **** 
  12:..\..\..\..\wpa_supplicant\src/common/defs.h **** #define WPA_CIPHER_NONE BIT(0)
  13:..\..\..\..\wpa_supplicant\src/common/defs.h **** #define WPA_CIPHER_WEP40 BIT(1)
  14:..\..\..\..\wpa_supplicant\src/common/defs.h **** #define WPA_CIPHER_WEP104 BIT(2)
  15:..\..\..\..\wpa_supplicant\src/common/defs.h **** #define WPA_CIPHER_TKIP BIT(3)
  16:..\..\..\..\wpa_supplicant\src/common/defs.h **** #define WPA_CIPHER_CCMP BIT(4)
  17:..\..\..\..\wpa_supplicant\src/common/defs.h **** #define WPA_CIPHER_AES_128_CMAC BIT(5)
  18:..\..\..\..\wpa_supplicant\src/common/defs.h **** #define WPA_CIPHER_GCMP BIT(6)
  19:..\..\..\..\wpa_supplicant\src/common/defs.h **** #define WPA_CIPHER_SMS4 BIT(7)
  20:..\..\..\..\wpa_supplicant\src/common/defs.h **** #define WPA_CIPHER_GCMP_256 BIT(8)
  21:..\..\..\..\wpa_supplicant\src/common/defs.h **** #define WPA_CIPHER_CCMP_256 BIT(9)
  22:..\..\..\..\wpa_supplicant\src/common/defs.h **** #define WPA_CIPHER_BIP_GMAC_128 BIT(11)
  23:..\..\..\..\wpa_supplicant\src/common/defs.h **** #define WPA_CIPHER_BIP_GMAC_256 BIT(12)
  24:..\..\..\..\wpa_supplicant\src/common/defs.h **** #define WPA_CIPHER_BIP_CMAC_256 BIT(13)
  25:..\..\..\..\wpa_supplicant\src/common/defs.h **** #define WPA_CIPHER_GTK_NOT_USED BIT(14)
  26:..\..\..\..\wpa_supplicant\src/common/defs.h **** 
  27:..\..\..\..\wpa_supplicant\src/common/defs.h **** #define WPA_KEY_MGMT_IEEE8021X BIT(0)
  28:..\..\..\..\wpa_supplicant\src/common/defs.h **** #define WPA_KEY_MGMT_PSK BIT(1)
  29:..\..\..\..\wpa_supplicant\src/common/defs.h **** #define WPA_KEY_MGMT_NONE BIT(2)
  30:..\..\..\..\wpa_supplicant\src/common/defs.h **** #define WPA_KEY_MGMT_IEEE8021X_NO_WPA BIT(3)
  31:..\..\..\..\wpa_supplicant\src/common/defs.h **** #define WPA_KEY_MGMT_WPA_NONE BIT(4)
  32:..\..\..\..\wpa_supplicant\src/common/defs.h **** #define WPA_KEY_MGMT_FT_IEEE8021X BIT(5)
  33:..\..\..\..\wpa_supplicant\src/common/defs.h **** #define WPA_KEY_MGMT_FT_PSK BIT(6)
  34:..\..\..\..\wpa_supplicant\src/common/defs.h **** #define WPA_KEY_MGMT_IEEE8021X_SHA256 BIT(7)
  35:..\..\..\..\wpa_supplicant\src/common/defs.h **** #define WPA_KEY_MGMT_PSK_SHA256 BIT(8)
  36:..\..\..\..\wpa_supplicant\src/common/defs.h **** #define WPA_KEY_MGMT_WPS BIT(9)
  37:..\..\..\..\wpa_supplicant\src/common/defs.h **** #define WPA_KEY_MGMT_SAE BIT(10)
  38:..\..\..\..\wpa_supplicant\src/common/defs.h **** #define WPA_KEY_MGMT_FT_SAE BIT(11)
  39:..\..\..\..\wpa_supplicant\src/common/defs.h **** #define WPA_KEY_MGMT_WAPI_PSK BIT(12)
  40:..\..\..\..\wpa_supplicant\src/common/defs.h **** #define WPA_KEY_MGMT_WAPI_CERT BIT(13)
  41:..\..\..\..\wpa_supplicant\src/common/defs.h **** #define WPA_KEY_MGMT_CCKM BIT(14)
  42:..\..\..\..\wpa_supplicant\src/common/defs.h **** #define WPA_KEY_MGMT_OSEN BIT(15)
  43:..\..\..\..\wpa_supplicant\src/common/defs.h **** #define WPA_KEY_MGMT_IEEE8021X_SUITE_B BIT(16)
  44:..\..\..\..\wpa_supplicant\src/common/defs.h **** #define WPA_KEY_MGMT_IEEE8021X_SUITE_B_192 BIT(17)
  45:..\..\..\..\wpa_supplicant\src/common/defs.h **** #define WPA_KEY_MGMT_FILS_SHA256 BIT(18)
  46:..\..\..\..\wpa_supplicant\src/common/defs.h **** #define WPA_KEY_MGMT_FILS_SHA384 BIT(19)
  47:..\..\..\..\wpa_supplicant\src/common/defs.h **** #define WPA_KEY_MGMT_FT_FILS_SHA256 BIT(20)
  48:..\..\..\..\wpa_supplicant\src/common/defs.h **** #define WPA_KEY_MGMT_FT_FILS_SHA384 BIT(21)
  49:..\..\..\..\wpa_supplicant\src/common/defs.h **** #define WPA_KEY_MGMT_OWE BIT(22)
  50:..\..\..\..\wpa_supplicant\src/common/defs.h **** #define WPA_KEY_MGMT_DPP BIT(23)
  51:..\..\..\..\wpa_supplicant\src/common/defs.h **** #define WPA_KEY_MGMT_FT_IEEE8021X_SHA384 BIT(24)
  52:..\..\..\..\wpa_supplicant\src/common/defs.h **** #define WPA_KEY_MGMT_PASN BIT(25)
  53:..\..\..\..\wpa_supplicant\src/common/defs.h **** 
  54:..\..\..\..\wpa_supplicant\src/common/defs.h **** 
  55:..\..\..\..\wpa_supplicant\src/common/defs.h **** #define WPA_KEY_MGMT_FT (WPA_KEY_MGMT_FT_PSK | \
  56:..\..\..\..\wpa_supplicant\src/common/defs.h **** 			 WPA_KEY_MGMT_FT_IEEE8021X | \
  57:..\..\..\..\wpa_supplicant\src/common/defs.h **** 			 WPA_KEY_MGMT_FT_IEEE8021X_SHA384 | \
  58:..\..\..\..\wpa_supplicant\src/common/defs.h **** 			 WPA_KEY_MGMT_FT_SAE | \
  59:..\..\..\..\wpa_supplicant\src/common/defs.h **** 			 WPA_KEY_MGMT_FT_FILS_SHA256 | \
  60:..\..\..\..\wpa_supplicant\src/common/defs.h **** 			 WPA_KEY_MGMT_FT_FILS_SHA384)
  61:..\..\..\..\wpa_supplicant\src/common/defs.h **** 
  62:..\..\..\..\wpa_supplicant\src/common/defs.h **** static inline int wpa_key_mgmt_wpa_ieee8021x(int akm)
  63:..\..\..\..\wpa_supplicant\src/common/defs.h **** {
  64:..\..\..\..\wpa_supplicant\src/common/defs.h **** 	return !!(akm & (WPA_KEY_MGMT_IEEE8021X |
  65:..\..\..\..\wpa_supplicant\src/common/defs.h **** 			 WPA_KEY_MGMT_FT_IEEE8021X |
  66:..\..\..\..\wpa_supplicant\src/common/defs.h **** 			 WPA_KEY_MGMT_FT_IEEE8021X_SHA384 |
  67:..\..\..\..\wpa_supplicant\src/common/defs.h **** 			 WPA_KEY_MGMT_CCKM |
  68:..\..\..\..\wpa_supplicant\src/common/defs.h **** 			 WPA_KEY_MGMT_OSEN |
  69:..\..\..\..\wpa_supplicant\src/common/defs.h **** 			 WPA_KEY_MGMT_IEEE8021X_SHA256 |
  70:..\..\..\..\wpa_supplicant\src/common/defs.h **** 			 WPA_KEY_MGMT_IEEE8021X_SUITE_B |
  71:..\..\..\..\wpa_supplicant\src/common/defs.h **** 			 WPA_KEY_MGMT_IEEE8021X_SUITE_B_192 |
  72:..\..\..\..\wpa_supplicant\src/common/defs.h **** 			 WPA_KEY_MGMT_FILS_SHA256 |
  73:..\..\..\..\wpa_supplicant\src/common/defs.h **** 			 WPA_KEY_MGMT_FILS_SHA384 |
  74:..\..\..\..\wpa_supplicant\src/common/defs.h **** 			 WPA_KEY_MGMT_FT_FILS_SHA256 |
  75:..\..\..\..\wpa_supplicant\src/common/defs.h **** 			 WPA_KEY_MGMT_FT_FILS_SHA384));
  76:..\..\..\..\wpa_supplicant\src/common/defs.h **** }
  77:..\..\..\..\wpa_supplicant\src/common/defs.h **** 
  78:..\..\..\..\wpa_supplicant\src/common/defs.h **** static inline int wpa_key_mgmt_wpa_psk_no_sae(int akm)
  79:..\..\..\..\wpa_supplicant\src/common/defs.h **** {
  80:..\..\..\..\wpa_supplicant\src/common/defs.h **** 	return !!(akm & (WPA_KEY_MGMT_PSK |
  81:..\..\..\..\wpa_supplicant\src/common/defs.h **** 			 WPA_KEY_MGMT_FT_PSK |
  82:..\..\..\..\wpa_supplicant\src/common/defs.h **** 			 WPA_KEY_MGMT_PSK_SHA256));
  83:..\..\..\..\wpa_supplicant\src/common/defs.h **** }
  84:..\..\..\..\wpa_supplicant\src/common/defs.h **** 
  85:..\..\..\..\wpa_supplicant\src/common/defs.h **** static inline int wpa_key_mgmt_wpa_psk(int akm)
  86:..\..\..\..\wpa_supplicant\src/common/defs.h **** {
  87:..\..\..\..\wpa_supplicant\src/common/defs.h **** 	return !!(akm & (WPA_KEY_MGMT_PSK |
  88:..\..\..\..\wpa_supplicant\src/common/defs.h **** 			 WPA_KEY_MGMT_FT_PSK |
  89:..\..\..\..\wpa_supplicant\src/common/defs.h **** 			 WPA_KEY_MGMT_PSK_SHA256 |
  90:..\..\..\..\wpa_supplicant\src/common/defs.h **** 			 WPA_KEY_MGMT_SAE |
  91:..\..\..\..\wpa_supplicant\src/common/defs.h **** 			 WPA_KEY_MGMT_FT_SAE));
  92:..\..\..\..\wpa_supplicant\src/common/defs.h **** }
  93:..\..\..\..\wpa_supplicant\src/common/defs.h **** 
  94:..\..\..\..\wpa_supplicant\src/common/defs.h **** static inline int wpa_key_mgmt_ft(int akm)
  95:..\..\..\..\wpa_supplicant\src/common/defs.h **** {
  96:..\..\..\..\wpa_supplicant\src/common/defs.h **** 	return !!(akm & WPA_KEY_MGMT_FT);
  97:..\..\..\..\wpa_supplicant\src/common/defs.h **** }
  98:..\..\..\..\wpa_supplicant\src/common/defs.h **** 
  99:..\..\..\..\wpa_supplicant\src/common/defs.h **** static inline int wpa_key_mgmt_only_ft(int akm)
 100:..\..\..\..\wpa_supplicant\src/common/defs.h **** {
 101:..\..\..\..\wpa_supplicant\src/common/defs.h **** 	int ft = wpa_key_mgmt_ft(akm);
 102:..\..\..\..\wpa_supplicant\src/common/defs.h **** 	akm &= ~WPA_KEY_MGMT_FT;
 103:..\..\..\..\wpa_supplicant\src/common/defs.h **** 	return ft && !akm;
 104:..\..\..\..\wpa_supplicant\src/common/defs.h **** }
 105:..\..\..\..\wpa_supplicant\src/common/defs.h **** 
 106:..\..\..\..\wpa_supplicant\src/common/defs.h **** static inline int wpa_key_mgmt_ft_psk(int akm)
 107:..\..\..\..\wpa_supplicant\src/common/defs.h **** {
 108:..\..\..\..\wpa_supplicant\src/common/defs.h **** 	return !!(akm & WPA_KEY_MGMT_FT_PSK);
 109:..\..\..\..\wpa_supplicant\src/common/defs.h **** }
 110:..\..\..\..\wpa_supplicant\src/common/defs.h **** 
 111:..\..\..\..\wpa_supplicant\src/common/defs.h **** static inline int wpa_key_mgmt_sae(int akm)
 112:..\..\..\..\wpa_supplicant\src/common/defs.h **** {
 113:..\..\..\..\wpa_supplicant\src/common/defs.h **** 	return !!(akm & (WPA_KEY_MGMT_SAE |
 920              		.loc 3 113 2
 921              		.loc 3 113 16 is_stmt 0
 922 0000 83260548 		lw	a3,1152(a0)
 923 0004 8567     		li	a5,4096
 924 0006 938707C0 		addi	a5,a5,-1024
 925 000a FD8E     		and	a3,a3,a5
 926              	.LBE121:
 927              	.LBE120:
 368:C:/Users/stapi/OneDrive/Desktop/GD32VW553/V1_MQTT_OK/GD32VW55X_Wifi_BLE_SDK/GD32VW55x_RELEASE_V1.0.2/MSDK/wpa_supplicant/src/rsn_supp\wpa_ie.c **** 	    (sm->sae_pwe == 1 || sm->sae_pwe == 2 || sm->sae_pk)) {
 928              		.loc 1 368 44
 929 000c 03478549 		lbu	a4,1176(a0)
 364:C:/Users/stapi/OneDrive/Desktop/GD32VW553/V1_MQTT_OK/GD32VW55X_Wifi_BLE_SDK/GD32VW55x_RELEASE_V1.0.2/MSDK/wpa_supplicant/src/rsn_supp\wpa_ie.c **** 	size_t flen;
 930              		.loc 1 364 6
 931 0010 8147     		li	a5,0
 367:C:/Users/stapi/OneDrive/Desktop/GD32VW553/V1_MQTT_OK/GD32VW55X_Wifi_BLE_SDK/GD32VW55x_RELEASE_V1.0.2/MSDK/wpa_supplicant/src/rsn_supp\wpa_ie.c **** 	    (sm->sae_pwe == 1 || sm->sae_pwe == 2 || sm->sae_pk)) {
 932              		.loc 1 367 5
 933 0012 81CE     		beq	a3,zero,.L60
 934              		.loc 1 368 24 discriminator 1
 935 0014 83264549 		lw	a3,1172(a0)
 367:C:/Users/stapi/OneDrive/Desktop/GD32VW553/V1_MQTT_OK/GD32VW55X_Wifi_BLE_SDK/GD32VW55x_RELEASE_V1.0.2/MSDK/wpa_supplicant/src/rsn_supp\wpa_ie.c **** 	    (sm->sae_pwe == 1 || sm->sae_pwe == 2 || sm->sae_pk)) {
 936              		.loc 1 367 37 discriminator 1
 937 0018 0545     		li	a0,1
 938              	.LVL86:
 369:C:/Users/stapi/OneDrive/Desktop/GD32VW553/V1_MQTT_OK/GD32VW55X_Wifi_BLE_SDK/GD32VW55x_RELEASE_V1.0.2/MSDK/wpa_supplicant/src/rsn_supp\wpa_ie.c **** 		capab |= BIT(WLAN_RSNX_CAPAB_SAE_H2E);
 939              		.loc 1 369 9 discriminator 1
 940 001a 93070002 		li	a5,32
 368:C:/Users/stapi/OneDrive/Desktop/GD32VW553/V1_MQTT_OK/GD32VW55X_Wifi_BLE_SDK/GD32VW55x_RELEASE_V1.0.2/MSDK/wpa_supplicant/src/rsn_supp\wpa_ie.c **** 		capab |= BIT(WLAN_RSNX_CAPAB_SAE_H2E);
 941              		.loc 1 368 24 discriminator 1
 942 001e FD16     		addi	a3,a3,-1
 367:C:/Users/stapi/OneDrive/Desktop/GD32VW553/V1_MQTT_OK/GD32VW55X_Wifi_BLE_SDK/GD32VW55x_RELEASE_V1.0.2/MSDK/wpa_supplicant/src/rsn_supp\wpa_ie.c **** 	    (sm->sae_pwe == 1 || sm->sae_pwe == 2 || sm->sae_pk)) {
 943              		.loc 1 367 37 discriminator 1
 944 0020 6375D500 		bleu	a3,a0,.L60
 364:C:/Users/stapi/OneDrive/Desktop/GD32VW553/V1_MQTT_OK/GD32VW55X_Wifi_BLE_SDK/GD32VW55x_RELEASE_V1.0.2/MSDK/wpa_supplicant/src/rsn_supp\wpa_ie.c **** 	size_t flen;
 945              		.loc 1 364 6
 946 0024 93771700 		andi	a5,a4,1
 947 0028 9607     		slli	a5,a5,5
 948              	.L60:
 949              	.LVL87:
 370:C:/Users/stapi/OneDrive/Desktop/GD32VW553/V1_MQTT_OK/GD32VW55X_Wifi_BLE_SDK/GD32VW55x_RELEASE_V1.0.2/MSDK/wpa_supplicant/src/rsn_supp\wpa_ie.c **** #ifdef CONFIG_SAE_PK
 371:C:/Users/stapi/OneDrive/Desktop/GD32VW553/V1_MQTT_OK/GD32VW55X_Wifi_BLE_SDK/GD32VW55x_RELEASE_V1.0.2/MSDK/wpa_supplicant/src/rsn_supp\wpa_ie.c **** 		if (sm->sae_pk)
 372:C:/Users/stapi/OneDrive/Desktop/GD32VW553/V1_MQTT_OK/GD32VW55X_Wifi_BLE_SDK/GD32VW55x_RELEASE_V1.0.2/MSDK/wpa_supplicant/src/rsn_supp\wpa_ie.c **** 			capab |= BIT(WLAN_RSNX_CAPAB_SAE_PK);
 373:C:/Users/stapi/OneDrive/Desktop/GD32VW553/V1_MQTT_OK/GD32VW55X_Wifi_BLE_SDK/GD32VW55x_RELEASE_V1.0.2/MSDK/wpa_supplicant/src/rsn_supp\wpa_ie.c **** #endif /* CONFIG_SAE_PK */
 374:C:/Users/stapi/OneDrive/Desktop/GD32VW553/V1_MQTT_OK/GD32VW55X_Wifi_BLE_SDK/GD32VW55x_RELEASE_V1.0.2/MSDK/wpa_supplicant/src/rsn_supp\wpa_ie.c **** 	}
 375:C:/Users/stapi/OneDrive/Desktop/GD32VW553/V1_MQTT_OK/GD32VW55X_Wifi_BLE_SDK/GD32VW55x_RELEASE_V1.0.2/MSDK/wpa_supplicant/src/rsn_supp\wpa_ie.c **** 
 376:C:/Users/stapi/OneDrive/Desktop/GD32VW553/V1_MQTT_OK/GD32VW55X_Wifi_BLE_SDK/GD32VW55x_RELEASE_V1.0.2/MSDK/wpa_supplicant/src/rsn_supp\wpa_ie.c **** 	if (sm->secure_ltf)
 950              		.loc 1 376 2 is_stmt 1
 951              		.loc 1 376 5 is_stmt 0
 952 002a 93762700 		andi	a3,a4,2
 953 002e 99C2     		beq	a3,zero,.L61
 377:C:/Users/stapi/OneDrive/Desktop/GD32VW553/V1_MQTT_OK/GD32VW55X_Wifi_BLE_SDK/GD32VW55x_RELEASE_V1.0.2/MSDK/wpa_supplicant/src/rsn_supp\wpa_ie.c **** 		capab |= BIT(WLAN_RSNX_CAPAB_SECURE_LTF);
 954              		.loc 1 377 3 is_stmt 1
 955              		.loc 1 377 9 is_stmt 0
 956 0030 93E70710 		ori	a5,a5,256
 957              	.LVL88:
 958              	.L61:
 378:C:/Users/stapi/OneDrive/Desktop/GD32VW553/V1_MQTT_OK/GD32VW55X_Wifi_BLE_SDK/GD32VW55x_RELEASE_V1.0.2/MSDK/wpa_supplicant/src/rsn_supp\wpa_ie.c **** 	if (sm->secure_rtt)
 959              		.loc 1 378 2 is_stmt 1
 960              		.loc 1 378 5 is_stmt 0
 961 0034 93764700 		andi	a3,a4,4
 962 0038 99C2     		beq	a3,zero,.L62
 379:C:/Users/stapi/OneDrive/Desktop/GD32VW553/V1_MQTT_OK/GD32VW55X_Wifi_BLE_SDK/GD32VW55x_RELEASE_V1.0.2/MSDK/wpa_supplicant/src/rsn_supp\wpa_ie.c **** 		capab |= BIT(WLAN_RSNX_CAPAB_SECURE_RTT);
 963              		.loc 1 379 3 is_stmt 1
 964              		.loc 1 379 9 is_stmt 0
 965 003a 93E70720 		ori	a5,a5,512
 966              	.LVL89:
 967              	.L62:
 380:C:/Users/stapi/OneDrive/Desktop/GD32VW553/V1_MQTT_OK/GD32VW55X_Wifi_BLE_SDK/GD32VW55x_RELEASE_V1.0.2/MSDK/wpa_supplicant/src/rsn_supp\wpa_ie.c **** 	if (sm->prot_range_neg)
 968              		.loc 1 380 2 is_stmt 1
 969              		.loc 1 380 5 is_stmt 0
 970 003e 218B     		andi	a4,a4,8
 971 0040 31C3     		beq	a4,zero,.L63
 381:C:/Users/stapi/OneDrive/Desktop/GD32VW553/V1_MQTT_OK/GD32VW55X_Wifi_BLE_SDK/GD32VW55x_RELEASE_V1.0.2/MSDK/wpa_supplicant/src/rsn_supp\wpa_ie.c **** 		capab |= BIT(WLAN_RSNX_CAPAB_PROT_RANGE_NEG);
 972              		.loc 1 381 3 is_stmt 1
 973              		.loc 1 381 9 is_stmt 0
 974 0042 93E70740 		ori	a5,a5,1024
 975              	.LVL90:
 382:C:/Users/stapi/OneDrive/Desktop/GD32VW553/V1_MQTT_OK/GD32VW55X_Wifi_BLE_SDK/GD32VW55x_RELEASE_V1.0.2/MSDK/wpa_supplicant/src/rsn_supp\wpa_ie.c **** 
 383:C:/Users/stapi/OneDrive/Desktop/GD32VW553/V1_MQTT_OK/GD32VW55X_Wifi_BLE_SDK/GD32VW55x_RELEASE_V1.0.2/MSDK/wpa_supplicant/src/rsn_supp\wpa_ie.c **** 	flen = (capab & 0xff00) ? 2 : 1;
 976              		.loc 1 383 2 is_stmt 1
 977              	.L73:
 978              		.loc 1 383 30 is_stmt 0
 979 0046 0947     		li	a4,2
 980              	.L64:
 981              	.LVL91:
 384:C:/Users/stapi/OneDrive/Desktop/GD32VW553/V1_MQTT_OK/GD32VW55X_Wifi_BLE_SDK/GD32VW55x_RELEASE_V1.0.2/MSDK/wpa_supplicant/src/rsn_supp\wpa_ie.c **** 	if (!capab)
 385:C:/Users/stapi/OneDrive/Desktop/GD32VW553/V1_MQTT_OK/GD32VW55X_Wifi_BLE_SDK/GD32VW55x_RELEASE_V1.0.2/MSDK/wpa_supplicant/src/rsn_supp\wpa_ie.c **** 		return 0; /* no supported extended RSN capabilities */
 386:C:/Users/stapi/OneDrive/Desktop/GD32VW553/V1_MQTT_OK/GD32VW55X_Wifi_BLE_SDK/GD32VW55x_RELEASE_V1.0.2/MSDK/wpa_supplicant/src/rsn_supp\wpa_ie.c **** 	if (rsnxe_len < 2 + flen)
 982              		.loc 1 386 2 is_stmt 1
 983              		.loc 1 386 20 is_stmt 0
 984 0048 0545     		li	a0,1
 985 004a 9146     		li	a3,4
 986 004c 6313A700 		bne	a4,a0,.L67
 987 0050 8D46     		li	a3,3
 988              	.L67:
 387:C:/Users/stapi/OneDrive/Desktop/GD32VW553/V1_MQTT_OK/GD32VW55X_Wifi_BLE_SDK/GD32VW55x_RELEASE_V1.0.2/MSDK/wpa_supplicant/src/rsn_supp\wpa_ie.c **** 		return -1;
 989              		.loc 1 387 10
 990 0052 7D55     		li	a0,-1
 386:C:/Users/stapi/OneDrive/Desktop/GD32VW553/V1_MQTT_OK/GD32VW55X_Wifi_BLE_SDK/GD32VW55x_RELEASE_V1.0.2/MSDK/wpa_supplicant/src/rsn_supp\wpa_ie.c **** 		return -1;
 991              		.loc 1 386 5
 992 0054 6360D604 		bgtu	a3,a2,.L59
 388:C:/Users/stapi/OneDrive/Desktop/GD32VW553/V1_MQTT_OK/GD32VW55X_Wifi_BLE_SDK/GD32VW55x_RELEASE_V1.0.2/MSDK/wpa_supplicant/src/rsn_supp\wpa_ie.c **** 	capab |= flen - 1; /* bit 0-3 = Field length (n - 1) */
 993              		.loc 1 388 2 is_stmt 1
 994              		.loc 1 388 16 is_stmt 0
 995 0058 9306F7FF 		addi	a3,a4,-1
 996              		.loc 1 388 8
 997 005c D58F     		or	a5,a5,a3
 998              	.LVL92:
 389:C:/Users/stapi/OneDrive/Desktop/GD32VW553/V1_MQTT_OK/GD32VW55X_Wifi_BLE_SDK/GD32VW55x_RELEASE_V1.0.2/MSDK/wpa_supplicant/src/rsn_supp\wpa_ie.c **** 
 390:C:/Users/stapi/OneDrive/Desktop/GD32VW553/V1_MQTT_OK/GD32VW55X_Wifi_BLE_SDK/GD32VW55x_RELEASE_V1.0.2/MSDK/wpa_supplicant/src/rsn_supp\wpa_ie.c **** 	*pos++ = WLAN_EID_RSNX;
 999              		.loc 1 390 9
 1000 005e D156     		li	a3,-12
 388:C:/Users/stapi/OneDrive/Desktop/GD32VW553/V1_MQTT_OK/GD32VW55X_Wifi_BLE_SDK/GD32VW55x_RELEASE_V1.0.2/MSDK/wpa_supplicant/src/rsn_supp\wpa_ie.c **** 	capab |= flen - 1; /* bit 0-3 = Field length (n - 1) */
 1001              		.loc 1 388 8
 1002 0060 B3C70708 		zext.h	a5,a5
 1003              	.LVL93:
 1004              		.loc 1 390 2 is_stmt 1
 1005              		.loc 1 390 9 is_stmt 0
 1006 0064 2380D500 		sb	a3,0(a1)
 391:C:/Users/stapi/OneDrive/Desktop/GD32VW553/V1_MQTT_OK/GD32VW55X_Wifi_BLE_SDK/GD32VW55x_RELEASE_V1.0.2/MSDK/wpa_supplicant/src/rsn_supp\wpa_ie.c **** 	*pos++ = flen;
 1007              		.loc 1 391 2 is_stmt 1
 1008              	.LVL94:
 392:C:/Users/stapi/OneDrive/Desktop/GD32VW553/V1_MQTT_OK/GD32VW55X_Wifi_BLE_SDK/GD32VW55x_RELEASE_V1.0.2/MSDK/wpa_supplicant/src/rsn_supp\wpa_ie.c **** 	*pos++ = capab & 0x00ff;
 1009              		.loc 1 392 9 is_stmt 0
 1010 0068 2381F500 		sb	a5,2(a1)
 391:C:/Users/stapi/OneDrive/Desktop/GD32VW553/V1_MQTT_OK/GD32VW55X_Wifi_BLE_SDK/GD32VW55x_RELEASE_V1.0.2/MSDK/wpa_supplicant/src/rsn_supp\wpa_ie.c **** 	*pos++ = flen;
 1011              		.loc 1 391 9
 1012 006c A380E500 		sb	a4,1(a1)
 1013              		.loc 1 392 2 is_stmt 1
 1014              	.LVL95:
 393:C:/Users/stapi/OneDrive/Desktop/GD32VW553/V1_MQTT_OK/GD32VW55X_Wifi_BLE_SDK/GD32VW55x_RELEASE_V1.0.2/MSDK/wpa_supplicant/src/rsn_supp\wpa_ie.c **** 	capab >>= 8;
 1015              		.loc 1 393 2
 1016              		.loc 1 393 8 is_stmt 0
 1017 0070 A183     		srli	a5,a5,8
 1018              	.LVL96:
 394:C:/Users/stapi/OneDrive/Desktop/GD32VW553/V1_MQTT_OK/GD32VW55X_Wifi_BLE_SDK/GD32VW55x_RELEASE_V1.0.2/MSDK/wpa_supplicant/src/rsn_supp\wpa_ie.c **** 	if (capab)
 1019              		.loc 1 394 2 is_stmt 1
 392:C:/Users/stapi/OneDrive/Desktop/GD32VW553/V1_MQTT_OK/GD32VW55X_Wifi_BLE_SDK/GD32VW55x_RELEASE_V1.0.2/MSDK/wpa_supplicant/src/rsn_supp\wpa_ie.c **** 	*pos++ = capab & 0x00ff;
 1020              		.loc 1 392 6 is_stmt 0
 1021 0072 13853500 		addi	a0,a1,3
 1022              	.LVL97:
 1023              		.loc 1 394 5
 1024 0076 89C7     		beq	a5,zero,.L69
 395:C:/Users/stapi/OneDrive/Desktop/GD32VW553/V1_MQTT_OK/GD32VW55X_Wifi_BLE_SDK/GD32VW55x_RELEASE_V1.0.2/MSDK/wpa_supplicant/src/rsn_supp\wpa_ie.c **** 		*pos++ = capab;
 1025              		.loc 1 395 3 is_stmt 1
 1026              		.loc 1 395 7 is_stmt 0
 1027 0078 13854500 		addi	a0,a1,4
 1028              	.LVL98:
 1029              		.loc 1 395 10
 1030 007c A381F500 		sb	a5,3(a1)
 1031              	.LVL99:
 1032              	.L69:
 396:C:/Users/stapi/OneDrive/Desktop/GD32VW553/V1_MQTT_OK/GD32VW55X_Wifi_BLE_SDK/GD32VW55x_RELEASE_V1.0.2/MSDK/wpa_supplicant/src/rsn_supp\wpa_ie.c **** 
 397:C:/Users/stapi/OneDrive/Desktop/GD32VW553/V1_MQTT_OK/GD32VW55X_Wifi_BLE_SDK/GD32VW55x_RELEASE_V1.0.2/MSDK/wpa_supplicant/src/rsn_supp\wpa_ie.c **** 	return pos - rsnxe;
 1033              		.loc 1 397 2 is_stmt 1
 1034              		.loc 1 397 13 is_stmt 0
 1035 0080 0D8D     		sub	a0,a0,a1
 1036              	.LVL100:
 1037 0082 09A8     		j	.L59
 1038              	.LVL101:
 1039              	.L63:
 383:C:/Users/stapi/OneDrive/Desktop/GD32VW553/V1_MQTT_OK/GD32VW55X_Wifi_BLE_SDK/GD32VW55x_RELEASE_V1.0.2/MSDK/wpa_supplicant/src/rsn_supp\wpa_ie.c **** 	if (!capab)
 1040              		.loc 1 383 2 is_stmt 1
 383:C:/Users/stapi/OneDrive/Desktop/GD32VW553/V1_MQTT_OK/GD32VW55X_Wifi_BLE_SDK/GD32VW55x_RELEASE_V1.0.2/MSDK/wpa_supplicant/src/rsn_supp\wpa_ie.c **** 	if (!capab)
 1041              		.loc 1 383 30 is_stmt 0
 1042 0084 13F707F0 		andi	a4,a5,-256
 1043 0088 33470708 		zext.h	a4,a4
 1044 008c 4DFF     		bne	a4,zero,.L73
 1045              	.LVL102:
 384:C:/Users/stapi/OneDrive/Desktop/GD32VW553/V1_MQTT_OK/GD32VW55X_Wifi_BLE_SDK/GD32VW55x_RELEASE_V1.0.2/MSDK/wpa_supplicant/src/rsn_supp\wpa_ie.c **** 		return 0; /* no supported extended RSN capabilities */
 1046              		.loc 1 384 2 is_stmt 1 discriminator 4
 385:C:/Users/stapi/OneDrive/Desktop/GD32VW553/V1_MQTT_OK/GD32VW55X_Wifi_BLE_SDK/GD32VW55x_RELEASE_V1.0.2/MSDK/wpa_supplicant/src/rsn_supp\wpa_ie.c **** 	if (rsnxe_len < 2 + flen)
 1047              		.loc 1 385 10 is_stmt 0 discriminator 4
 1048 008e 0145     		li	a0,0
 383:C:/Users/stapi/OneDrive/Desktop/GD32VW553/V1_MQTT_OK/GD32VW55X_Wifi_BLE_SDK/GD32VW55x_RELEASE_V1.0.2/MSDK/wpa_supplicant/src/rsn_supp\wpa_ie.c **** 	if (!capab)
 1049              		.loc 1 383 30 discriminator 4
 1050 0090 0547     		li	a4,1
 384:C:/Users/stapi/OneDrive/Desktop/GD32VW553/V1_MQTT_OK/GD32VW55X_Wifi_BLE_SDK/GD32VW55x_RELEASE_V1.0.2/MSDK/wpa_supplicant/src/rsn_supp\wpa_ie.c **** 		return 0; /* no supported extended RSN capabilities */
 1051              		.loc 1 384 5 discriminator 4
 1052 0092 DDFB     		bne	a5,zero,.L64
 1053              	.LVL103:
 1054              	.L59:
 398:C:/Users/stapi/OneDrive/Desktop/GD32VW553/V1_MQTT_OK/GD32VW55X_Wifi_BLE_SDK/GD32VW55x_RELEASE_V1.0.2/MSDK/wpa_supplicant/src/rsn_supp\wpa_ie.c **** }
 1055              		.loc 1 398 1
 1056 0094 8280     		ret
 1057              		.cfi_endproc
 1058              	.LFE132:
 1060              		.text
 1061              	.Letext0:
 1062              		.file 4 "c:\\users\\stapi\\onedrive\\desktop\\gd32vw553\\embeddedbuilder_v1.4.7.26843\\tools\\nucl
 1063              		.file 5 "c:\\users\\stapi\\onedrive\\desktop\\gd32vw553\\embeddedbuilder_v1.4.7.26843\\tools\\nucl
 1064              		.file 6 "c:\\users\\stapi\\onedrive\\desktop\\gd32vw553\\embeddedbuilder_v1.4.7.26843\\tools\\nucl
 1065              		.file 7 "..\\..\\..\\..\\wpa_supplicant\\src\\utils/os.h"
 1066              		.file 8 "..\\..\\..\\..\\wpa_supplicant\\src/common/wpa_common.h"
 1067              		.file 9 "C:/Users/stapi/OneDrive/Desktop/GD32VW553/V1_MQTT_OK/GD32VW55X_Wifi_BLE_SDK/GD32VW55x_REL
 1068              		.file 10 "C:/Users/stapi/OneDrive/Desktop/GD32VW553/V1_MQTT_OK/GD32VW55X_Wifi_BLE_SDK/GD32VW55x_RE
 1069              		.file 11 "..\\..\\..\\..\\wpa_supplicant\\src/utils/list.h"
 1070              		.file 12 "C:/Users/stapi/OneDrive/Desktop/GD32VW553/V1_MQTT_OK/GD32VW55X_Wifi_BLE_SDK/GD32VW55x_RE
 1071              		.file 13 "..\\..\\..\\..\\wpa_supplicant\\src\\utils/wpa_debug.h"
DEFINED SYMBOLS
                            *ABS*:0000000000000000 wpa_ie.c
C:\Users\stapi\AppData\Local\Temp\cc2ecMOd.s:13     .text.wpa_parse_wpa_ie:0000000000000000 wpa_parse_wpa_ie
C:\Users\stapi\AppData\Local\Temp\cc2ecMOd.s:17     .text.wpa_parse_wpa_ie:0000000000000000 .L0 
C:\Users\stapi\AppData\Local\Temp\cc2ecMOd.s:19     .text.wpa_parse_wpa_ie:0000000000000000 .L0 
C:\Users\stapi\AppData\Local\Temp\cc2ecMOd.s:20     .text.wpa_parse_wpa_ie:0000000000000008 .L0 
C:\Users\stapi\AppData\Local\Temp\cc2ecMOd.s:21     .text.wpa_parse_wpa_ie:0000000000000008 .L0 
C:\Users\stapi\AppData\Local\Temp\cc2ecMOd.s:23     .text.wpa_parse_wpa_ie:0000000000000008 .L0 
C:\Users\stapi\AppData\Local\Temp\cc2ecMOd.s:24     .text.wpa_parse_wpa_ie:0000000000000008 .L0 
C:\Users\stapi\AppData\Local\Temp\cc2ecMOd.s:26     .text.wpa_parse_wpa_ie:000000000000000a .L0 
C:\Users\stapi\AppData\Local\Temp\cc2ecMOd.s:28     .text.wpa_parse_wpa_ie:000000000000000e .L0 
C:\Users\stapi\AppData\Local\Temp\cc2ecMOd.s:32     .text.wpa_parse_wpa_ie:0000000000000016 .L0 
C:\Users\stapi\AppData\Local\Temp\cc2ecMOd.s:33     .text.wpa_parse_wpa_ie:0000000000000016 .L0 
C:\Users\stapi\AppData\Local\Temp\cc2ecMOd.s:37     .text.wpa_parse_wpa_ie:000000000000001e .L0 
C:\Users\stapi\AppData\Local\Temp\cc2ecMOd.s:38     .text.wpa_parse_wpa_ie:0000000000000026 .L0 
C:\Users\stapi\AppData\Local\Temp\cc2ecMOd.s:39     .text.wpa_parse_wpa_ie:0000000000000026 .L0 
C:\Users\stapi\AppData\Local\Temp\cc2ecMOd.s:40     .text.wpa_parse_wpa_ie:0000000000000026 .L0 
C:\Users\stapi\AppData\Local\Temp\cc2ecMOd.s:43     .text.wpa_parse_wpa_ie:0000000000000026 .L0 
C:\Users\stapi\AppData\Local\Temp\cc2ecMOd.s:45     .text.wpa_parse_wpa_ie:0000000000000026 .L0 
C:\Users\stapi\AppData\Local\Temp\cc2ecMOd.s:46     .text.wpa_parse_wpa_ie:0000000000000026 .L0 
C:\Users\stapi\AppData\Local\Temp\cc2ecMOd.s:49     .text.wpa_parse_wpa_ie:000000000000002c .L0 
C:\Users\stapi\AppData\Local\Temp\cc2ecMOd.s:52     .text.wpa_parse_wpa_ie:0000000000000034 .L0 
C:\Users\stapi\AppData\Local\Temp\cc2ecMOd.s:58     .text.wpa_parse_wpa_ie:000000000000003e .L0 
C:\Users\stapi\AppData\Local\Temp\cc2ecMOd.s:69     .text.wpa_parse_wpa_ie:000000000000005a .L0 
C:\Users\stapi\AppData\Local\Temp\cc2ecMOd.s:76     .text.wpa_parse_wpa_ie:000000000000006a .L0 
C:\Users\stapi\AppData\Local\Temp\cc2ecMOd.s:77     .text.wpa_parse_wpa_ie:000000000000006a .L0 
C:\Users\stapi\AppData\Local\Temp\cc2ecMOd.s:80     .text.wpa_parse_wpa_ie:0000000000000074 .L0 
C:\Users\stapi\AppData\Local\Temp\cc2ecMOd.s:87     .text.rsn_supp_capab:0000000000000000 rsn_supp_capab
C:\Users\stapi\AppData\Local\Temp\cc2ecMOd.s:90     .text.rsn_supp_capab:0000000000000000 .L0 
C:\Users\stapi\AppData\Local\Temp\cc2ecMOd.s:92     .text.rsn_supp_capab:0000000000000000 .L0 
C:\Users\stapi\AppData\Local\Temp\cc2ecMOd.s:93     .text.rsn_supp_capab:0000000000000000 .L0 
C:\Users\stapi\AppData\Local\Temp\cc2ecMOd.s:94     .text.rsn_supp_capab:0000000000000000 .L0 
C:\Users\stapi\AppData\Local\Temp\cc2ecMOd.s:95     .text.rsn_supp_capab:0000000000000000 .L0 
C:\Users\stapi\AppData\Local\Temp\cc2ecMOd.s:97     .text.rsn_supp_capab:0000000000000004 .L0 
C:\Users\stapi\AppData\Local\Temp\cc2ecMOd.s:99     .text.rsn_supp_capab:0000000000000006 .L0 
C:\Users\stapi\AppData\Local\Temp\cc2ecMOd.s:102    .text.rsn_supp_capab:0000000000000008 .L0 
C:\Users\stapi\AppData\Local\Temp\cc2ecMOd.s:105    .text.rsn_supp_capab:000000000000000a .L0 
C:\Users\stapi\AppData\Local\Temp\cc2ecMOd.s:106    .text.rsn_supp_capab:000000000000000a .L0 
C:\Users\stapi\AppData\Local\Temp\cc2ecMOd.s:107    .text.rsn_supp_capab:000000000000000a .L0 
C:\Users\stapi\AppData\Local\Temp\cc2ecMOd.s:109    .text.rsn_supp_capab:000000000000000c .L0 
C:\Users\stapi\AppData\Local\Temp\cc2ecMOd.s:111    .text.rsn_supp_capab:0000000000000010 .L0 
C:\Users\stapi\AppData\Local\Temp\cc2ecMOd.s:113    .text.rsn_supp_capab:0000000000000014 .L0 
C:\Users\stapi\AppData\Local\Temp\cc2ecMOd.s:117    .text.rsn_supp_capab:0000000000000018 .L0 
C:\Users\stapi\AppData\Local\Temp\cc2ecMOd.s:118    .text.rsn_supp_capab:0000000000000018 .L0 
C:\Users\stapi\AppData\Local\Temp\cc2ecMOd.s:121    .text.rsn_supp_capab:000000000000001e .L0 
C:\Users\stapi\AppData\Local\Temp\cc2ecMOd.s:122    .text.rsn_supp_capab:000000000000001e .L0 
C:\Users\stapi\AppData\Local\Temp\cc2ecMOd.s:126    .text.rsn_supp_capab:0000000000000022 .L0 
C:\Users\stapi\AppData\Local\Temp\cc2ecMOd.s:127    .text.rsn_supp_capab:0000000000000022 .L0 
C:\Users\stapi\AppData\Local\Temp\cc2ecMOd.s:131    .text.rsn_supp_capab:0000000000000028 .L0 
C:\Users\stapi\AppData\Local\Temp\cc2ecMOd.s:132    .text.rsn_supp_capab:0000000000000028 .L0 
C:\Users\stapi\AppData\Local\Temp\cc2ecMOd.s:136    .text.rsn_supp_capab:000000000000002c .L0 
C:\Users\stapi\AppData\Local\Temp\cc2ecMOd.s:137    .text.rsn_supp_capab:000000000000002c .L0 
C:\Users\stapi\AppData\Local\Temp\cc2ecMOd.s:138    .text.rsn_supp_capab:000000000000002e .L0 
C:\Users\stapi\AppData\Local\Temp\cc2ecMOd.s:158    .text.wpa_gen_wpa_ie:0000000000000000 wpa_gen_wpa_ie
C:\Users\stapi\AppData\Local\Temp\cc2ecMOd.s:161    .text.wpa_gen_wpa_ie:0000000000000000 .L0 
C:\Users\stapi\AppData\Local\Temp\cc2ecMOd.s:163    .text.wpa_gen_wpa_ie:0000000000000000 .L0 
C:\Users\stapi\AppData\Local\Temp\cc2ecMOd.s:164    .text.wpa_gen_wpa_ie:0000000000000008 .L0 
C:\Users\stapi\AppData\Local\Temp\cc2ecMOd.s:165    .text.wpa_gen_wpa_ie:0000000000000008 .L0 
C:\Users\stapi\AppData\Local\Temp\cc2ecMOd.s:166    .text.wpa_gen_wpa_ie:0000000000000008 .L0 
C:\Users\stapi\AppData\Local\Temp\cc2ecMOd.s:167    .text.wpa_gen_wpa_ie:0000000000000008 .L0 
C:\Users\stapi\AppData\Local\Temp\cc2ecMOd.s:168    .text.wpa_gen_wpa_ie:0000000000000008 .L0 
C:\Users\stapi\AppData\Local\Temp\cc2ecMOd.s:169    .text.wpa_gen_wpa_ie:0000000000000008 .L0 
C:\Users\stapi\AppData\Local\Temp\cc2ecMOd.s:170    .text.wpa_gen_wpa_ie:0000000000000008 .L0 
C:\Users\stapi\AppData\Local\Temp\cc2ecMOd.s:171    .text.wpa_gen_wpa_ie:0000000000000008 .L0 
C:\Users\stapi\AppData\Local\Temp\cc2ecMOd.s:172    .text.wpa_gen_wpa_ie:0000000000000008 .L0 
C:\Users\stapi\AppData\Local\Temp\cc2ecMOd.s:174    .text.wpa_gen_wpa_ie:0000000000000008 .L0 
C:\Users\stapi\AppData\Local\Temp\cc2ecMOd.s:175    .text.wpa_gen_wpa_ie:0000000000000008 .L0 
C:\Users\stapi\AppData\Local\Temp\cc2ecMOd.s:177    .text.wpa_gen_wpa_ie:000000000000000c .L0 
C:\Users\stapi\AppData\Local\Temp\cc2ecMOd.s:179    .text.wpa_gen_wpa_ie:000000000000000e .L0 
C:\Users\stapi\AppData\Local\Temp\cc2ecMOd.s:181    .text.wpa_gen_wpa_ie:0000000000000012 .L0 
C:\Users\stapi\AppData\Local\Temp\cc2ecMOd.s:183    .text.wpa_gen_wpa_ie:0000000000000014 .L0 
C:\Users\stapi\AppData\Local\Temp\cc2ecMOd.s:186    .text.wpa_gen_wpa_ie:0000000000000016 .L0 
C:\Users\stapi\AppData\Local\Temp\cc2ecMOd.s:188    .text.wpa_gen_wpa_ie:0000000000000018 .L0 
C:\Users\stapi\AppData\Local\Temp\cc2ecMOd.s:190    .text.wpa_gen_wpa_ie:000000000000001c .L0 
C:\Users\stapi\AppData\Local\Temp\cc2ecMOd.s:191    .text.wpa_gen_wpa_ie:000000000000001e .L0 
C:\Users\stapi\AppData\Local\Temp\cc2ecMOd.s:193    .text.wpa_gen_wpa_ie:000000000000001e .L0 
C:\Users\stapi\AppData\Local\Temp\cc2ecMOd.s:195    .text.wpa_gen_wpa_ie:0000000000000020 .L0 
C:\Users\stapi\AppData\Local\Temp\cc2ecMOd.s:199    .text.wpa_gen_wpa_ie:0000000000000024 .L0 
C:\Users\stapi\AppData\Local\Temp\cc2ecMOd.s:203    .text.wpa_gen_wpa_ie:0000000000000028 .L0 
C:\Users\stapi\AppData\Local\Temp\cc2ecMOd.s:209    .text.wpa_gen_wpa_ie:000000000000002e .L0 
C:\Users\stapi\AppData\Local\Temp\cc2ecMOd.s:210    .text.wpa_gen_wpa_ie:000000000000002e .L0 
C:\Users\stapi\AppData\Local\Temp\cc2ecMOd.s:211    .text.wpa_gen_wpa_ie:000000000000002e .L0 
C:\Users\stapi\AppData\Local\Temp\cc2ecMOd.s:212    .text.wpa_gen_wpa_ie:000000000000002e .L0 
C:\Users\stapi\AppData\Local\Temp\cc2ecMOd.s:213    .text.wpa_gen_wpa_ie:000000000000002e .L0 
C:\Users\stapi\AppData\Local\Temp\cc2ecMOd.s:214    .text.wpa_gen_wpa_ie:000000000000002e .L0 
C:\Users\stapi\AppData\Local\Temp\cc2ecMOd.s:219    .text.wpa_gen_wpa_ie:0000000000000036 .L0 
C:\Users\stapi\AppData\Local\Temp\cc2ecMOd.s:221    .text.wpa_gen_wpa_ie:000000000000003a .L0 
C:\Users\stapi\AppData\Local\Temp\cc2ecMOd.s:229    .text.wpa_gen_wpa_ie:0000000000000046 .L0 
C:\Users\stapi\AppData\Local\Temp\cc2ecMOd.s:232    .text.wpa_gen_wpa_ie:000000000000004e .L0 
C:\Users\stapi\AppData\Local\Temp\cc2ecMOd.s:233    .text.wpa_gen_wpa_ie:000000000000004e .L0 
C:\Users\stapi\AppData\Local\Temp\cc2ecMOd.s:238    .text.wpa_gen_wpa_ie:0000000000000050 .L0 
C:\Users\stapi\AppData\Local\Temp\cc2ecMOd.s:239    .text.wpa_gen_wpa_ie:0000000000000052 .L0 
C:\Users\stapi\AppData\Local\Temp\cc2ecMOd.s:240    .text.wpa_gen_wpa_ie:0000000000000052 .L0 
C:\Users\stapi\AppData\Local\Temp\cc2ecMOd.s:242    .text.wpa_gen_wpa_ie:000000000000005a .L0 
C:\Users\stapi\AppData\Local\Temp\cc2ecMOd.s:243    .text.wpa_gen_wpa_ie:000000000000005a .L0 
C:\Users\stapi\AppData\Local\Temp\cc2ecMOd.s:244    .text.wpa_gen_wpa_ie:000000000000005a .L0 
C:\Users\stapi\AppData\Local\Temp\cc2ecMOd.s:245    .text.wpa_gen_wpa_ie:000000000000005a .L0 
C:\Users\stapi\AppData\Local\Temp\cc2ecMOd.s:246    .text.wpa_gen_wpa_ie:000000000000005a .L0 
C:\Users\stapi\AppData\Local\Temp\cc2ecMOd.s:247    .text.wpa_gen_wpa_ie:000000000000005a .L0 
C:\Users\stapi\AppData\Local\Temp\cc2ecMOd.s:248    .text.wpa_gen_wpa_ie:000000000000005a .L0 
C:\Users\stapi\AppData\Local\Temp\cc2ecMOd.s:249    .text.wpa_gen_wpa_ie:000000000000005a .L0 
C:\Users\stapi\AppData\Local\Temp\cc2ecMOd.s:250    .text.wpa_gen_wpa_ie:000000000000005a .L0 
C:\Users\stapi\AppData\Local\Temp\cc2ecMOd.s:253    .text.wpa_gen_wpa_ie:000000000000005a .L0 
C:\Users\stapi\AppData\Local\Temp\cc2ecMOd.s:257    .text.wpa_gen_wpa_ie:000000000000005a .L0 
C:\Users\stapi\AppData\Local\Temp\cc2ecMOd.s:258    .text.wpa_gen_wpa_ie:000000000000005a .L0 
C:\Users\stapi\AppData\Local\Temp\cc2ecMOd.s:259    .text.wpa_gen_wpa_ie:000000000000005a .L0 
C:\Users\stapi\AppData\Local\Temp\cc2ecMOd.s:264    .text.wpa_gen_wpa_ie:000000000000005e .L0 
C:\Users\stapi\AppData\Local\Temp\cc2ecMOd.s:268    .text.wpa_gen_wpa_ie:0000000000000060 .L0 
C:\Users\stapi\AppData\Local\Temp\cc2ecMOd.s:270    .text.wpa_gen_wpa_ie:0000000000000062 .L0 
C:\Users\stapi\AppData\Local\Temp\cc2ecMOd.s:275    .text.wpa_gen_wpa_ie:0000000000000066 .L0 
C:\Users\stapi\AppData\Local\Temp\cc2ecMOd.s:276    .text.wpa_gen_wpa_ie:0000000000000066 .L0 
C:\Users\stapi\AppData\Local\Temp\cc2ecMOd.s:277    .text.wpa_gen_wpa_ie:0000000000000066 .L0 
C:\Users\stapi\AppData\Local\Temp\cc2ecMOd.s:279    .text.wpa_gen_wpa_ie:000000000000006a .L0 
C:\Users\stapi\AppData\Local\Temp\cc2ecMOd.s:280    .text.wpa_gen_wpa_ie:000000000000006a .L0 
C:\Users\stapi\AppData\Local\Temp\cc2ecMOd.s:285    .text.wpa_gen_wpa_ie:000000000000006e .L0 
C:\Users\stapi\AppData\Local\Temp\cc2ecMOd.s:286    .text.wpa_gen_wpa_ie:000000000000006e .L0 
C:\Users\stapi\AppData\Local\Temp\cc2ecMOd.s:287    .text.wpa_gen_wpa_ie:000000000000006e .L0 
C:\Users\stapi\AppData\Local\Temp\cc2ecMOd.s:293    .text.wpa_gen_wpa_ie:000000000000007a .L0 
C:\Users\stapi\AppData\Local\Temp\cc2ecMOd.s:294    .text.wpa_gen_wpa_ie:000000000000007a .L0 
C:\Users\stapi\AppData\Local\Temp\cc2ecMOd.s:299    .text.wpa_gen_wpa_ie:000000000000007e .L0 
C:\Users\stapi\AppData\Local\Temp\cc2ecMOd.s:309    .text.wpa_gen_wpa_ie:000000000000008a .L0 
C:\Users\stapi\AppData\Local\Temp\cc2ecMOd.s:310    .text.wpa_gen_wpa_ie:000000000000008a .L0 
C:\Users\stapi\AppData\Local\Temp\cc2ecMOd.s:311    .text.wpa_gen_wpa_ie:000000000000008a .L0 
C:\Users\stapi\AppData\Local\Temp\cc2ecMOd.s:313    .text.wpa_gen_wpa_ie:000000000000008e .L0 
C:\Users\stapi\AppData\Local\Temp\cc2ecMOd.s:315    .text.wpa_gen_wpa_ie:0000000000000092 .L0 
C:\Users\stapi\AppData\Local\Temp\cc2ecMOd.s:316    .text.wpa_gen_wpa_ie:0000000000000092 .L0 
C:\Users\stapi\AppData\Local\Temp\cc2ecMOd.s:318    .text.wpa_gen_wpa_ie:0000000000000096 .L0 
C:\Users\stapi\AppData\Local\Temp\cc2ecMOd.s:320    .text.wpa_gen_wpa_ie:000000000000009a .L0 
C:\Users\stapi\AppData\Local\Temp\cc2ecMOd.s:321    .text.wpa_gen_wpa_ie:000000000000009a .L0 
C:\Users\stapi\AppData\Local\Temp\cc2ecMOd.s:323    .text.wpa_gen_wpa_ie:000000000000009e .L0 
C:\Users\stapi\AppData\Local\Temp\cc2ecMOd.s:325    .text.wpa_gen_wpa_ie:00000000000000a2 .L0 
C:\Users\stapi\AppData\Local\Temp\cc2ecMOd.s:330    .text.wpa_gen_wpa_ie:00000000000000a6 .L0 
C:\Users\stapi\AppData\Local\Temp\cc2ecMOd.s:331    .text.wpa_gen_wpa_ie:00000000000000a6 .L0 
C:\Users\stapi\AppData\Local\Temp\cc2ecMOd.s:332    .text.wpa_gen_wpa_ie:00000000000000a6 .L0 
C:\Users\stapi\AppData\Local\Temp\cc2ecMOd.s:333    .text.wpa_gen_wpa_ie:00000000000000a6 .L0 
C:\Users\stapi\AppData\Local\Temp\cc2ecMOd.s:336    .text.wpa_gen_wpa_ie:00000000000000aa .L0 
C:\Users\stapi\AppData\Local\Temp\cc2ecMOd.s:337    .text.wpa_gen_wpa_ie:00000000000000aa .L0 
C:\Users\stapi\AppData\Local\Temp\cc2ecMOd.s:339    .text.wpa_gen_wpa_ie:00000000000000ae .L0 
C:\Users\stapi\AppData\Local\Temp\cc2ecMOd.s:340    .text.wpa_gen_wpa_ie:00000000000000ae .L0 
C:\Users\stapi\AppData\Local\Temp\cc2ecMOd.s:348    .text.wpa_gen_wpa_ie:00000000000000bc .L0 
C:\Users\stapi\AppData\Local\Temp\cc2ecMOd.s:349    .text.wpa_gen_wpa_ie:00000000000000bc .L0 
C:\Users\stapi\AppData\Local\Temp\cc2ecMOd.s:357    .text.wpa_gen_wpa_ie:00000000000000be .L0 
C:\Users\stapi\AppData\Local\Temp\cc2ecMOd.s:368    .text.wpa_gen_wpa_ie:00000000000000ca .L0 
C:\Users\stapi\AppData\Local\Temp\cc2ecMOd.s:373    .text.wpa_gen_wpa_ie:00000000000000d4 .L0 
C:\Users\stapi\AppData\Local\Temp\cc2ecMOd.s:375    .text.wpa_gen_wpa_ie:00000000000000d6 .L0 
C:\Users\stapi\AppData\Local\Temp\cc2ecMOd.s:381    .text.wpa_gen_wpa_ie:00000000000000da .L0 
C:\Users\stapi\AppData\Local\Temp\cc2ecMOd.s:382    .text.wpa_gen_wpa_ie:00000000000000da .L0 
C:\Users\stapi\AppData\Local\Temp\cc2ecMOd.s:383    .text.wpa_gen_wpa_ie:00000000000000da .L0 
C:\Users\stapi\AppData\Local\Temp\cc2ecMOd.s:385    .text.wpa_gen_wpa_ie:00000000000000de .L0 
C:\Users\stapi\AppData\Local\Temp\cc2ecMOd.s:387    .text.wpa_gen_wpa_ie:00000000000000e2 .L0 
C:\Users\stapi\AppData\Local\Temp\cc2ecMOd.s:388    .text.wpa_gen_wpa_ie:00000000000000e2 .L0 
C:\Users\stapi\AppData\Local\Temp\cc2ecMOd.s:390    .text.wpa_gen_wpa_ie:00000000000000e6 .L0 
C:\Users\stapi\AppData\Local\Temp\cc2ecMOd.s:392    .text.wpa_gen_wpa_ie:00000000000000ea .L0 
C:\Users\stapi\AppData\Local\Temp\cc2ecMOd.s:393    .text.wpa_gen_wpa_ie:00000000000000ea .L0 
C:\Users\stapi\AppData\Local\Temp\cc2ecMOd.s:395    .text.wpa_gen_wpa_ie:00000000000000ee .L0 
C:\Users\stapi\AppData\Local\Temp\cc2ecMOd.s:399    .text.wpa_gen_wpa_ie:00000000000000f2 .L0 
C:\Users\stapi\AppData\Local\Temp\cc2ecMOd.s:400    .text.wpa_gen_wpa_ie:00000000000000f2 .L0 
C:\Users\stapi\AppData\Local\Temp\cc2ecMOd.s:405    .text.wpa_gen_wpa_ie:00000000000000f8 .L0 
C:\Users\stapi\AppData\Local\Temp\cc2ecMOd.s:410    .text.wpa_gen_wpa_ie:00000000000000fc .L0 
C:\Users\stapi\AppData\Local\Temp\cc2ecMOd.s:411    .text.wpa_gen_wpa_ie:00000000000000fc .L0 
C:\Users\stapi\AppData\Local\Temp\cc2ecMOd.s:412    .text.wpa_gen_wpa_ie:00000000000000fc .L0 
C:\Users\stapi\AppData\Local\Temp\cc2ecMOd.s:413    .text.wpa_gen_wpa_ie:00000000000000fc .L0 
C:\Users\stapi\AppData\Local\Temp\cc2ecMOd.s:415    .text.wpa_gen_wpa_ie:0000000000000100 .L0 
C:\Users\stapi\AppData\Local\Temp\cc2ecMOd.s:416    .text.wpa_gen_wpa_ie:0000000000000100 .L0 
C:\Users\stapi\AppData\Local\Temp\cc2ecMOd.s:422    .text.wpa_gen_wpa_ie:0000000000000106 .L0 
C:\Users\stapi\AppData\Local\Temp\cc2ecMOd.s:423    .text.wpa_gen_wpa_ie:0000000000000106 .L0 
C:\Users\stapi\AppData\Local\Temp\cc2ecMOd.s:424    .text.wpa_gen_wpa_ie:0000000000000106 .L0 
C:\Users\stapi\AppData\Local\Temp\cc2ecMOd.s:427    .text.wpa_gen_wpa_ie:000000000000010c .L0 
C:\Users\stapi\AppData\Local\Temp\cc2ecMOd.s:429    .text.wpa_gen_wpa_ie:0000000000000110 .L0 
C:\Users\stapi\AppData\Local\Temp\cc2ecMOd.s:431    .text.wpa_gen_wpa_ie:0000000000000114 .L0 
C:\Users\stapi\AppData\Local\Temp\cc2ecMOd.s:432    .text.wpa_gen_wpa_ie:0000000000000114 .L0 
C:\Users\stapi\AppData\Local\Temp\cc2ecMOd.s:433    .text.wpa_gen_wpa_ie:0000000000000114 .L0 
C:\Users\stapi\AppData\Local\Temp\cc2ecMOd.s:435    .text.wpa_gen_wpa_ie:0000000000000118 .L0 
C:\Users\stapi\AppData\Local\Temp\cc2ecMOd.s:436    .text.wpa_gen_wpa_ie:0000000000000118 .L0 
C:\Users\stapi\AppData\Local\Temp\cc2ecMOd.s:442    .text.wpa_gen_wpa_ie:000000000000011c .L0 
C:\Users\stapi\AppData\Local\Temp\cc2ecMOd.s:443    .text.wpa_gen_wpa_ie:000000000000011c .L0 
C:\Users\stapi\AppData\Local\Temp\cc2ecMOd.s:449    .text.wpa_gen_wpa_ie:0000000000000126 .L0 
C:\Users\stapi\AppData\Local\Temp\cc2ecMOd.s:450    .text.wpa_gen_wpa_ie:0000000000000126 .L0 
C:\Users\stapi\AppData\Local\Temp\cc2ecMOd.s:453    .text.wpa_gen_wpa_ie:000000000000012e .L0 
C:\Users\stapi\AppData\Local\Temp\cc2ecMOd.s:454    .text.wpa_gen_wpa_ie:000000000000012e .L0 
C:\Users\stapi\AppData\Local\Temp\cc2ecMOd.s:459    .text.wpa_gen_wpa_ie:0000000000000132 .L0 
C:\Users\stapi\AppData\Local\Temp\cc2ecMOd.s:460    .text.wpa_gen_wpa_ie:0000000000000132 .L0 
C:\Users\stapi\AppData\Local\Temp\cc2ecMOd.s:461    .text.wpa_gen_wpa_ie:0000000000000132 .L0 
C:\Users\stapi\AppData\Local\Temp\cc2ecMOd.s:463    .text.wpa_gen_wpa_ie:0000000000000136 .L0 
C:\Users\stapi\AppData\Local\Temp\cc2ecMOd.s:466    .text.wpa_gen_wpa_ie:000000000000013a .L0 
C:\Users\stapi\AppData\Local\Temp\cc2ecMOd.s:469    .text.wpa_gen_wpa_ie:000000000000013c .L0 
C:\Users\stapi\AppData\Local\Temp\cc2ecMOd.s:470    .text.wpa_gen_wpa_ie:000000000000013c .L0 
C:\Users\stapi\AppData\Local\Temp\cc2ecMOd.s:474    .text.wpa_gen_wpa_ie:0000000000000142 .L0 
C:\Users\stapi\AppData\Local\Temp\cc2ecMOd.s:475    .text.wpa_gen_wpa_ie:0000000000000142 .L0 
C:\Users\stapi\AppData\Local\Temp\cc2ecMOd.s:477    .text.wpa_gen_wpa_ie:0000000000000146 .L0 
C:\Users\stapi\AppData\Local\Temp\cc2ecMOd.s:478    .text.wpa_gen_wpa_ie:0000000000000146 .L0 
C:\Users\stapi\AppData\Local\Temp\cc2ecMOd.s:480    .text.wpa_gen_wpa_ie:000000000000014a .L0 
C:\Users\stapi\AppData\Local\Temp\cc2ecMOd.s:487    .text.wpa_gen_wpa_ie:000000000000015a .L0 
C:\Users\stapi\AppData\Local\Temp\cc2ecMOd.s:488    .text.wpa_gen_wpa_ie:000000000000015a .L0 
C:\Users\stapi\AppData\Local\Temp\cc2ecMOd.s:492    .text.wpa_gen_wpa_ie:000000000000015e .L0 
C:\Users\stapi\AppData\Local\Temp\cc2ecMOd.s:493    .text.wpa_gen_wpa_ie:000000000000015e .L0 
C:\Users\stapi\AppData\Local\Temp\cc2ecMOd.s:497    .text.wpa_gen_wpa_ie:0000000000000168 .L0 
C:\Users\stapi\AppData\Local\Temp\cc2ecMOd.s:499    .text.wpa_gen_wpa_ie:000000000000016a .L0 
C:\Users\stapi\AppData\Local\Temp\cc2ecMOd.s:500    .text.wpa_gen_wpa_ie:000000000000016a .L0 
C:\Users\stapi\AppData\Local\Temp\cc2ecMOd.s:506    .text.wpa_gen_wpa_ie:0000000000000170 .L0 
C:\Users\stapi\AppData\Local\Temp\cc2ecMOd.s:507    .text.wpa_gen_wpa_ie:0000000000000170 .L0 
C:\Users\stapi\AppData\Local\Temp\cc2ecMOd.s:508    .text.wpa_gen_wpa_ie:0000000000000170 .L0 
C:\Users\stapi\AppData\Local\Temp\cc2ecMOd.s:510    .text.wpa_gen_wpa_ie:0000000000000174 .L0 
C:\Users\stapi\AppData\Local\Temp\cc2ecMOd.s:511    .text.wpa_gen_wpa_ie:0000000000000174 .L0 
C:\Users\stapi\AppData\Local\Temp\cc2ecMOd.s:516    .text.wpa_gen_wpa_ie:0000000000000178 .L0 
C:\Users\stapi\AppData\Local\Temp\cc2ecMOd.s:517    .text.wpa_gen_wpa_ie:0000000000000178 .L0 
C:\Users\stapi\AppData\Local\Temp\cc2ecMOd.s:521    .text.wpa_gen_wpa_ie:000000000000017a .L0 
C:\Users\stapi\AppData\Local\Temp\cc2ecMOd.s:528    .text.wpa_gen_wpa_ie:0000000000000186 .L0 
C:\Users\stapi\AppData\Local\Temp\cc2ecMOd.s:529    .text.wpa_gen_wpa_ie:0000000000000186 .L0 
C:\Users\stapi\AppData\Local\Temp\cc2ecMOd.s:531    .text.wpa_gen_wpa_ie:000000000000018a .L0 
C:\Users\stapi\AppData\Local\Temp\cc2ecMOd.s:533    .text.wpa_gen_wpa_ie:000000000000018e .L0 
C:\Users\stapi\AppData\Local\Temp\cc2ecMOd.s:534    .text.wpa_gen_wpa_ie:000000000000018e .L0 
C:\Users\stapi\AppData\Local\Temp\cc2ecMOd.s:536    .text.wpa_gen_wpa_ie:0000000000000192 .L0 
C:\Users\stapi\AppData\Local\Temp\cc2ecMOd.s:538    .text.wpa_gen_wpa_ie:0000000000000196 .L0 
C:\Users\stapi\AppData\Local\Temp\cc2ecMOd.s:539    .text.wpa_gen_wpa_ie:0000000000000196 .L0 
C:\Users\stapi\AppData\Local\Temp\cc2ecMOd.s:541    .text.wpa_gen_wpa_ie:000000000000019a .L0 
C:\Users\stapi\AppData\Local\Temp\cc2ecMOd.s:543    .text.wpa_gen_wpa_ie:000000000000019e .L0 
C:\Users\stapi\AppData\Local\Temp\cc2ecMOd.s:544    .text.wpa_gen_wpa_ie:000000000000019e .L0 
C:\Users\stapi\AppData\Local\Temp\cc2ecMOd.s:549    .text.wpa_gen_wpa_ie:00000000000001a2 .L0 
C:\Users\stapi\AppData\Local\Temp\cc2ecMOd.s:550    .text.wpa_gen_wpa_ie:00000000000001a2 .L0 
C:\Users\stapi\AppData\Local\Temp\cc2ecMOd.s:554    .text.wpa_gen_wpa_ie:00000000000001a4 .L0 
C:\Users\stapi\AppData\Local\Temp\cc2ecMOd.s:555    .text.wpa_gen_wpa_ie:00000000000001a4 .L0 
C:\Users\stapi\AppData\Local\Temp\cc2ecMOd.s:557    .text.wpa_gen_wpa_ie:00000000000001a8 .L0 
C:\Users\stapi\AppData\Local\Temp\cc2ecMOd.s:565    .text.wpa_gen_wpa_ie:00000000000001ac .L0 
C:\Users\stapi\AppData\Local\Temp\cc2ecMOd.s:567    .text.wpa_gen_wpa_ie:00000000000001b0 .L0 
C:\Users\stapi\AppData\Local\Temp\cc2ecMOd.s:568    .text.wpa_gen_wpa_ie:00000000000001b0 .L0 
C:\Users\stapi\AppData\Local\Temp\cc2ecMOd.s:569    .text.wpa_gen_wpa_ie:00000000000001b0 .L0 
C:\Users\stapi\AppData\Local\Temp\cc2ecMOd.s:570    .text.wpa_gen_wpa_ie:00000000000001b0 .L0 
C:\Users\stapi\AppData\Local\Temp\cc2ecMOd.s:571    .text.wpa_gen_wpa_ie:00000000000001b0 .L0 
C:\Users\stapi\AppData\Local\Temp\cc2ecMOd.s:579    .text.wpa_gen_wpa_ie:00000000000001b2 .L0 
C:\Users\stapi\AppData\Local\Temp\cc2ecMOd.s:580    .text.wpa_gen_wpa_ie:00000000000001b2 .L0 
C:\Users\stapi\AppData\Local\Temp\cc2ecMOd.s:586    .text.wpa_gen_wpa_ie:00000000000001ba .L0 
C:\Users\stapi\AppData\Local\Temp\cc2ecMOd.s:587    .text.wpa_gen_wpa_ie:00000000000001ba .L0 
C:\Users\stapi\AppData\Local\Temp\cc2ecMOd.s:588    .text.wpa_gen_wpa_ie:00000000000001ba .L0 
C:\Users\stapi\AppData\Local\Temp\cc2ecMOd.s:591    .text.wpa_gen_wpa_ie:00000000000001c0 .L0 
C:\Users\stapi\AppData\Local\Temp\cc2ecMOd.s:594    .text.wpa_gen_wpa_ie:00000000000001c8 .L0 
C:\Users\stapi\AppData\Local\Temp\cc2ecMOd.s:596    .text.wpa_gen_wpa_ie:00000000000001cc .L0 
C:\Users\stapi\AppData\Local\Temp\cc2ecMOd.s:597    .text.wpa_gen_wpa_ie:00000000000001cc .L0 
C:\Users\stapi\AppData\Local\Temp\cc2ecMOd.s:598    .text.wpa_gen_wpa_ie:00000000000001cc .L0 
C:\Users\stapi\AppData\Local\Temp\cc2ecMOd.s:599    .text.wpa_gen_wpa_ie:00000000000001cc .L0 
C:\Users\stapi\AppData\Local\Temp\cc2ecMOd.s:608    .text.wpa_gen_wpa_ie:00000000000001d2 .L0 
C:\Users\stapi\AppData\Local\Temp\cc2ecMOd.s:613    .text.wpa_gen_wpa_ie:00000000000001d4 .L0 
C:\Users\stapi\AppData\Local\Temp\cc2ecMOd.s:614    .text.wpa_gen_wpa_ie:00000000000001d4 .L0 
C:\Users\stapi\AppData\Local\Temp\cc2ecMOd.s:620    .text.wpa_gen_wpa_ie:00000000000001dc .L0 
C:\Users\stapi\AppData\Local\Temp\cc2ecMOd.s:621    .text.wpa_gen_wpa_ie:00000000000001dc .L0 
C:\Users\stapi\AppData\Local\Temp\cc2ecMOd.s:622    .text.wpa_gen_wpa_ie:00000000000001dc .L0 
C:\Users\stapi\AppData\Local\Temp\cc2ecMOd.s:625    .text.wpa_gen_wpa_ie:00000000000001e2 .L0 
C:\Users\stapi\AppData\Local\Temp\cc2ecMOd.s:628    .text.wpa_gen_wpa_ie:00000000000001ea .L0 
C:\Users\stapi\AppData\Local\Temp\cc2ecMOd.s:630    .text.wpa_gen_wpa_ie:00000000000001ee .L0 
C:\Users\stapi\AppData\Local\Temp\cc2ecMOd.s:631    .text.wpa_gen_wpa_ie:00000000000001ee .L0 
C:\Users\stapi\AppData\Local\Temp\cc2ecMOd.s:632    .text.wpa_gen_wpa_ie:00000000000001ee .L0 
C:\Users\stapi\AppData\Local\Temp\cc2ecMOd.s:633    .text.wpa_gen_wpa_ie:00000000000001ee .L0 
C:\Users\stapi\AppData\Local\Temp\cc2ecMOd.s:640    .text.wpa_gen_wpa_ie:00000000000001f2 .L0 
C:\Users\stapi\AppData\Local\Temp\cc2ecMOd.s:641    .text.wpa_gen_wpa_ie:00000000000001f2 .L0 
C:\Users\stapi\AppData\Local\Temp\cc2ecMOd.s:647    .text.wpa_gen_wpa_ie:00000000000001fa .L0 
C:\Users\stapi\AppData\Local\Temp\cc2ecMOd.s:648    .text.wpa_gen_wpa_ie:00000000000001fa .L0 
C:\Users\stapi\AppData\Local\Temp\cc2ecMOd.s:649    .text.wpa_gen_wpa_ie:00000000000001fa .L0 
C:\Users\stapi\AppData\Local\Temp\cc2ecMOd.s:652    .text.wpa_gen_wpa_ie:0000000000000200 .L0 
C:\Users\stapi\AppData\Local\Temp\cc2ecMOd.s:655    .text.wpa_gen_wpa_ie:0000000000000208 .L0 
C:\Users\stapi\AppData\Local\Temp\cc2ecMOd.s:657    .text.wpa_gen_wpa_ie:000000000000020c .L0 
C:\Users\stapi\AppData\Local\Temp\cc2ecMOd.s:658    .text.wpa_gen_wpa_ie:000000000000020c .L0 
C:\Users\stapi\AppData\Local\Temp\cc2ecMOd.s:659    .text.wpa_gen_wpa_ie:000000000000020c .L0 
C:\Users\stapi\AppData\Local\Temp\cc2ecMOd.s:660    .text.wpa_gen_wpa_ie:000000000000020c .L0 
C:\Users\stapi\AppData\Local\Temp\cc2ecMOd.s:671    .text.wpa_gen_wpa_ie:0000000000000210 .L0 
C:\Users\stapi\AppData\Local\Temp\cc2ecMOd.s:672    .text.wpa_gen_wpa_ie:0000000000000210 .L0 
C:\Users\stapi\AppData\Local\Temp\cc2ecMOd.s:673    .text.wpa_gen_wpa_ie:0000000000000210 .L0 
C:\Users\stapi\AppData\Local\Temp\cc2ecMOd.s:674    .text.wpa_gen_wpa_ie:0000000000000210 .L0 
C:\Users\stapi\AppData\Local\Temp\cc2ecMOd.s:675    .text.wpa_gen_wpa_ie:0000000000000210 .L0 
C:\Users\stapi\AppData\Local\Temp\cc2ecMOd.s:676    .text.wpa_gen_wpa_ie:0000000000000210 .L0 
C:\Users\stapi\AppData\Local\Temp\cc2ecMOd.s:678    .text.wpa_gen_wpa_ie:0000000000000212 .L0 
C:\Users\stapi\AppData\Local\Temp\cc2ecMOd.s:681    .text.wpa_gen_wpa_ie:0000000000000214 .L0 
C:\Users\stapi\AppData\Local\Temp\cc2ecMOd.s:684    .text.wpa_gen_wpa_ie:0000000000000218 .L0 
C:\Users\stapi\AppData\Local\Temp\cc2ecMOd.s:685    .text.wpa_gen_wpa_ie:0000000000000218 .L0 
C:\Users\stapi\AppData\Local\Temp\cc2ecMOd.s:686    .text.wpa_gen_wpa_ie:0000000000000218 .L0 
C:\Users\stapi\AppData\Local\Temp\cc2ecMOd.s:693    .text.wpa_gen_wpa_ie:0000000000000220 .L0 
C:\Users\stapi\AppData\Local\Temp\cc2ecMOd.s:694    .text.wpa_gen_wpa_ie:0000000000000220 .L0 
C:\Users\stapi\AppData\Local\Temp\cc2ecMOd.s:695    .text.wpa_gen_wpa_ie:0000000000000220 .L0 
C:\Users\stapi\AppData\Local\Temp\cc2ecMOd.s:698    .text.wpa_gen_wpa_ie:0000000000000228 .L0 
C:\Users\stapi\AppData\Local\Temp\cc2ecMOd.s:700    .text.wpa_gen_wpa_ie:000000000000022a .L0 
C:\Users\stapi\AppData\Local\Temp\cc2ecMOd.s:702    .text.wpa_gen_wpa_ie:000000000000022c .L0 
C:\Users\stapi\AppData\Local\Temp\cc2ecMOd.s:704    .text.wpa_gen_wpa_ie:0000000000000230 .L0 
C:\Users\stapi\AppData\Local\Temp\cc2ecMOd.s:705    .text.wpa_gen_wpa_ie:0000000000000230 .L0 
C:\Users\stapi\AppData\Local\Temp\cc2ecMOd.s:706    .text.wpa_gen_wpa_ie:0000000000000230 .L0 
C:\Users\stapi\AppData\Local\Temp\cc2ecMOd.s:708    .text.wpa_gen_wpa_ie:0000000000000234 .L0 
C:\Users\stapi\AppData\Local\Temp\cc2ecMOd.s:709    .text.wpa_gen_wpa_ie:0000000000000234 .L0 
C:\Users\stapi\AppData\Local\Temp\cc2ecMOd.s:716    .text.wpa_gen_wpa_ie:0000000000000238 .L0 
C:\Users\stapi\AppData\Local\Temp\cc2ecMOd.s:717    .text.wpa_gen_wpa_ie:0000000000000238 .L0 
C:\Users\stapi\AppData\Local\Temp\cc2ecMOd.s:718    .text.wpa_gen_wpa_ie:0000000000000238 .L0 
C:\Users\stapi\AppData\Local\Temp\cc2ecMOd.s:720    .text.wpa_gen_wpa_ie:000000000000023c .L0 
C:\Users\stapi\AppData\Local\Temp\cc2ecMOd.s:721    .text.wpa_gen_wpa_ie:000000000000023c .L0 
C:\Users\stapi\AppData\Local\Temp\cc2ecMOd.s:726    .text.wpa_gen_wpa_ie:0000000000000240 .L0 
C:\Users\stapi\AppData\Local\Temp\cc2ecMOd.s:727    .text.wpa_gen_wpa_ie:0000000000000240 .L0 
C:\Users\stapi\AppData\Local\Temp\cc2ecMOd.s:728    .text.wpa_gen_wpa_ie:0000000000000240 .L0 
C:\Users\stapi\AppData\Local\Temp\cc2ecMOd.s:734    .text.wpa_gen_wpa_ie:000000000000024e .L0 
C:\Users\stapi\AppData\Local\Temp\cc2ecMOd.s:735    .text.wpa_gen_wpa_ie:000000000000024e .L0 
C:\Users\stapi\AppData\Local\Temp\cc2ecMOd.s:741    .text.wpa_gen_wpa_ie:0000000000000254 .L0 
C:\Users\stapi\AppData\Local\Temp\cc2ecMOd.s:742    .text.wpa_gen_wpa_ie:0000000000000254 .L0 
C:\Users\stapi\AppData\Local\Temp\cc2ecMOd.s:743    .text.wpa_gen_wpa_ie:0000000000000254 .L0 
C:\Users\stapi\AppData\Local\Temp\cc2ecMOd.s:745    .text.wpa_gen_wpa_ie:0000000000000258 .L0 
C:\Users\stapi\AppData\Local\Temp\cc2ecMOd.s:747    .text.wpa_gen_wpa_ie:000000000000025c .L0 
C:\Users\stapi\AppData\Local\Temp\cc2ecMOd.s:748    .text.wpa_gen_wpa_ie:000000000000025c .L0 
C:\Users\stapi\AppData\Local\Temp\cc2ecMOd.s:750    .text.wpa_gen_wpa_ie:0000000000000260 .L0 
C:\Users\stapi\AppData\Local\Temp\cc2ecMOd.s:752    .text.wpa_gen_wpa_ie:0000000000000264 .L0 
C:\Users\stapi\AppData\Local\Temp\cc2ecMOd.s:753    .text.wpa_gen_wpa_ie:0000000000000264 .L0 
C:\Users\stapi\AppData\Local\Temp\cc2ecMOd.s:755    .text.wpa_gen_wpa_ie:0000000000000268 .L0 
C:\Users\stapi\AppData\Local\Temp\cc2ecMOd.s:757    .text.wpa_gen_wpa_ie:000000000000026c .L0 
C:\Users\stapi\AppData\Local\Temp\cc2ecMOd.s:762    .text.wpa_gen_wpa_ie:0000000000000270 .L0 
C:\Users\stapi\AppData\Local\Temp\cc2ecMOd.s:763    .text.wpa_gen_wpa_ie:0000000000000270 .L0 
C:\Users\stapi\AppData\Local\Temp\cc2ecMOd.s:764    .text.wpa_gen_wpa_ie:0000000000000270 .L0 
C:\Users\stapi\AppData\Local\Temp\cc2ecMOd.s:765    .text.wpa_gen_wpa_ie:0000000000000270 .L0 
C:\Users\stapi\AppData\Local\Temp\cc2ecMOd.s:768    .text.wpa_gen_wpa_ie:0000000000000274 .L0 
C:\Users\stapi\AppData\Local\Temp\cc2ecMOd.s:769    .text.wpa_gen_wpa_ie:0000000000000274 .L0 
C:\Users\stapi\AppData\Local\Temp\cc2ecMOd.s:771    .text.wpa_gen_wpa_ie:0000000000000278 .L0 
C:\Users\stapi\AppData\Local\Temp\cc2ecMOd.s:772    .text.wpa_gen_wpa_ie:0000000000000278 .L0 
C:\Users\stapi\AppData\Local\Temp\cc2ecMOd.s:780    .text.wpa_gen_wpa_ie:0000000000000286 .L0 
C:\Users\stapi\AppData\Local\Temp\cc2ecMOd.s:781    .text.wpa_gen_wpa_ie:0000000000000286 .L0 
C:\Users\stapi\AppData\Local\Temp\cc2ecMOd.s:783    .text.wpa_gen_wpa_ie:000000000000028a .L0 
C:\Users\stapi\AppData\Local\Temp\cc2ecMOd.s:788    .text.wpa_gen_wpa_ie:0000000000000294 .L0 
C:\Users\stapi\AppData\Local\Temp\cc2ecMOd.s:790    .text.wpa_gen_wpa_ie:0000000000000296 .L0 
C:\Users\stapi\AppData\Local\Temp\cc2ecMOd.s:796    .text.wpa_gen_wpa_ie:000000000000029a .L0 
C:\Users\stapi\AppData\Local\Temp\cc2ecMOd.s:797    .text.wpa_gen_wpa_ie:000000000000029a .L0 
C:\Users\stapi\AppData\Local\Temp\cc2ecMOd.s:798    .text.wpa_gen_wpa_ie:000000000000029a .L0 
C:\Users\stapi\AppData\Local\Temp\cc2ecMOd.s:800    .text.wpa_gen_wpa_ie:000000000000029e .L0 
C:\Users\stapi\AppData\Local\Temp\cc2ecMOd.s:802    .text.wpa_gen_wpa_ie:00000000000002a2 .L0 
C:\Users\stapi\AppData\Local\Temp\cc2ecMOd.s:803    .text.wpa_gen_wpa_ie:00000000000002a2 .L0 
C:\Users\stapi\AppData\Local\Temp\cc2ecMOd.s:805    .text.wpa_gen_wpa_ie:00000000000002a6 .L0 
C:\Users\stapi\AppData\Local\Temp\cc2ecMOd.s:807    .text.wpa_gen_wpa_ie:00000000000002aa .L0 
C:\Users\stapi\AppData\Local\Temp\cc2ecMOd.s:808    .text.wpa_gen_wpa_ie:00000000000002aa .L0 
C:\Users\stapi\AppData\Local\Temp\cc2ecMOd.s:810    .text.wpa_gen_wpa_ie:00000000000002ae .L0 
C:\Users\stapi\AppData\Local\Temp\cc2ecMOd.s:814    .text.wpa_gen_wpa_ie:00000000000002b2 .L0 
C:\Users\stapi\AppData\Local\Temp\cc2ecMOd.s:815    .text.wpa_gen_wpa_ie:00000000000002b2 .L0 
C:\Users\stapi\AppData\Local\Temp\cc2ecMOd.s:820    .text.wpa_gen_wpa_ie:00000000000002b8 .L0 
C:\Users\stapi\AppData\Local\Temp\cc2ecMOd.s:825    .text.wpa_gen_wpa_ie:00000000000002bc .L0 
C:\Users\stapi\AppData\Local\Temp\cc2ecMOd.s:826    .text.wpa_gen_wpa_ie:00000000000002bc .L0 
C:\Users\stapi\AppData\Local\Temp\cc2ecMOd.s:827    .text.wpa_gen_wpa_ie:00000000000002bc .L0 
C:\Users\stapi\AppData\Local\Temp\cc2ecMOd.s:828    .text.wpa_gen_wpa_ie:00000000000002bc .L0 
C:\Users\stapi\AppData\Local\Temp\cc2ecMOd.s:830    .text.wpa_gen_wpa_ie:00000000000002c0 .L0 
C:\Users\stapi\AppData\Local\Temp\cc2ecMOd.s:831    .text.wpa_gen_wpa_ie:00000000000002c0 .L0 
C:\Users\stapi\AppData\Local\Temp\cc2ecMOd.s:837    .text.wpa_gen_wpa_ie:00000000000002c6 .L0 
C:\Users\stapi\AppData\Local\Temp\cc2ecMOd.s:838    .text.wpa_gen_wpa_ie:00000000000002c6 .L0 
C:\Users\stapi\AppData\Local\Temp\cc2ecMOd.s:839    .text.wpa_gen_wpa_ie:00000000000002c6 .L0 
C:\Users\stapi\AppData\Local\Temp\cc2ecMOd.s:842    .text.wpa_gen_wpa_ie:00000000000002ce .L0 
C:\Users\stapi\AppData\Local\Temp\cc2ecMOd.s:844    .text.wpa_gen_wpa_ie:00000000000002d0 .L0 
C:\Users\stapi\AppData\Local\Temp\cc2ecMOd.s:846    .text.wpa_gen_wpa_ie:00000000000002d4 .L0 
C:\Users\stapi\AppData\Local\Temp\cc2ecMOd.s:847    .text.wpa_gen_wpa_ie:00000000000002d4 .L0 
C:\Users\stapi\AppData\Local\Temp\cc2ecMOd.s:848    .text.wpa_gen_wpa_ie:00000000000002d4 .L0 
C:\Users\stapi\AppData\Local\Temp\cc2ecMOd.s:850    .text.wpa_gen_wpa_ie:00000000000002d8 .L0 
C:\Users\stapi\AppData\Local\Temp\cc2ecMOd.s:851    .text.wpa_gen_wpa_ie:00000000000002d8 .L0 
C:\Users\stapi\AppData\Local\Temp\cc2ecMOd.s:857    .text.wpa_gen_wpa_ie:00000000000002dc .L0 
C:\Users\stapi\AppData\Local\Temp\cc2ecMOd.s:858    .text.wpa_gen_wpa_ie:00000000000002dc .L0 
C:\Users\stapi\AppData\Local\Temp\cc2ecMOd.s:859    .text.wpa_gen_wpa_ie:00000000000002dc .L0 
C:\Users\stapi\AppData\Local\Temp\cc2ecMOd.s:861    .text.wpa_gen_wpa_ie:00000000000002de .L0 
C:\Users\stapi\AppData\Local\Temp\cc2ecMOd.s:866    .text.wpa_gen_wpa_ie:00000000000002e2 .L0 
C:\Users\stapi\AppData\Local\Temp\cc2ecMOd.s:867    .text.wpa_gen_wpa_ie:00000000000002e2 .L0 
C:\Users\stapi\AppData\Local\Temp\cc2ecMOd.s:873    .text.wpa_gen_wpa_ie:00000000000002e8 .L0 
C:\Users\stapi\AppData\Local\Temp\cc2ecMOd.s:874    .text.wpa_gen_wpa_ie:00000000000002e8 .L0 
C:\Users\stapi\AppData\Local\Temp\cc2ecMOd.s:875    .text.wpa_gen_wpa_ie:00000000000002e8 .L0 
C:\Users\stapi\AppData\Local\Temp\cc2ecMOd.s:878    .text.wpa_gen_wpa_ie:00000000000002f0 .L0 
C:\Users\stapi\AppData\Local\Temp\cc2ecMOd.s:880    .text.wpa_gen_wpa_ie:00000000000002f2 .L0 
C:\Users\stapi\AppData\Local\Temp\cc2ecMOd.s:882    .text.wpa_gen_wpa_ie:00000000000002f6 .L0 
C:\Users\stapi\AppData\Local\Temp\cc2ecMOd.s:883    .text.wpa_gen_wpa_ie:00000000000002f6 .L0 
C:\Users\stapi\AppData\Local\Temp\cc2ecMOd.s:884    .text.wpa_gen_wpa_ie:00000000000002f6 .L0 
C:\Users\stapi\AppData\Local\Temp\cc2ecMOd.s:886    .text.wpa_gen_wpa_ie:00000000000002fa .L0 
C:\Users\stapi\AppData\Local\Temp\cc2ecMOd.s:887    .text.wpa_gen_wpa_ie:00000000000002fa .L0 
C:\Users\stapi\AppData\Local\Temp\cc2ecMOd.s:889    .text.wpa_gen_wpa_ie:00000000000002fe .L0 
C:\Users\stapi\AppData\Local\Temp\cc2ecMOd.s:895    .text.wpa_gen_wpa_ie:0000000000000300 .L0 
C:\Users\stapi\AppData\Local\Temp\cc2ecMOd.s:901    .text.wpa_gen_wpa_ie:000000000000030c .L0 
C:\Users\stapi\AppData\Local\Temp\cc2ecMOd.s:908    .text.wpa_gen_rsnxe:0000000000000000 wpa_gen_rsnxe
C:\Users\stapi\AppData\Local\Temp\cc2ecMOd.s:911    .text.wpa_gen_rsnxe:0000000000000000 .L0 
C:\Users\stapi\AppData\Local\Temp\cc2ecMOd.s:913    .text.wpa_gen_rsnxe:0000000000000000 .L0 
C:\Users\stapi\AppData\Local\Temp\cc2ecMOd.s:914    .text.wpa_gen_rsnxe:0000000000000000 .L0 
C:\Users\stapi\AppData\Local\Temp\cc2ecMOd.s:915    .text.wpa_gen_rsnxe:0000000000000000 .L0 
C:\Users\stapi\AppData\Local\Temp\cc2ecMOd.s:916    .text.wpa_gen_rsnxe:0000000000000000 .L0 
C:\Users\stapi\AppData\Local\Temp\cc2ecMOd.s:920    .text.wpa_gen_rsnxe:0000000000000000 .L0 
C:\Users\stapi\AppData\Local\Temp\cc2ecMOd.s:921    .text.wpa_gen_rsnxe:0000000000000000 .L0 
C:\Users\stapi\AppData\Local\Temp\cc2ecMOd.s:922    .text.wpa_gen_rsnxe:0000000000000000 .L0 
C:\Users\stapi\AppData\Local\Temp\cc2ecMOd.s:929    .text.wpa_gen_rsnxe:000000000000000c .L0 
C:\Users\stapi\AppData\Local\Temp\cc2ecMOd.s:931    .text.wpa_gen_rsnxe:0000000000000010 .L0 
C:\Users\stapi\AppData\Local\Temp\cc2ecMOd.s:933    .text.wpa_gen_rsnxe:0000000000000012 .L0 
C:\Users\stapi\AppData\Local\Temp\cc2ecMOd.s:935    .text.wpa_gen_rsnxe:0000000000000014 .L0 
C:\Users\stapi\AppData\Local\Temp\cc2ecMOd.s:937    .text.wpa_gen_rsnxe:0000000000000018 .L0 
C:\Users\stapi\AppData\Local\Temp\cc2ecMOd.s:940    .text.wpa_gen_rsnxe:000000000000001a .L0 
C:\Users\stapi\AppData\Local\Temp\cc2ecMOd.s:942    .text.wpa_gen_rsnxe:000000000000001e .L0 
C:\Users\stapi\AppData\Local\Temp\cc2ecMOd.s:944    .text.wpa_gen_rsnxe:0000000000000020 .L0 
C:\Users\stapi\AppData\Local\Temp\cc2ecMOd.s:946    .text.wpa_gen_rsnxe:0000000000000024 .L0 
C:\Users\stapi\AppData\Local\Temp\cc2ecMOd.s:951    .text.wpa_gen_rsnxe:000000000000002a .L0 
C:\Users\stapi\AppData\Local\Temp\cc2ecMOd.s:952    .text.wpa_gen_rsnxe:000000000000002a .L0 
C:\Users\stapi\AppData\Local\Temp\cc2ecMOd.s:955    .text.wpa_gen_rsnxe:0000000000000030 .L0 
C:\Users\stapi\AppData\Local\Temp\cc2ecMOd.s:956    .text.wpa_gen_rsnxe:0000000000000030 .L0 
C:\Users\stapi\AppData\Local\Temp\cc2ecMOd.s:960    .text.wpa_gen_rsnxe:0000000000000034 .L0 
C:\Users\stapi\AppData\Local\Temp\cc2ecMOd.s:961    .text.wpa_gen_rsnxe:0000000000000034 .L0 
C:\Users\stapi\AppData\Local\Temp\cc2ecMOd.s:964    .text.wpa_gen_rsnxe:000000000000003a .L0 
C:\Users\stapi\AppData\Local\Temp\cc2ecMOd.s:965    .text.wpa_gen_rsnxe:000000000000003a .L0 
C:\Users\stapi\AppData\Local\Temp\cc2ecMOd.s:969    .text.wpa_gen_rsnxe:000000000000003e .L0 
C:\Users\stapi\AppData\Local\Temp\cc2ecMOd.s:970    .text.wpa_gen_rsnxe:000000000000003e .L0 
C:\Users\stapi\AppData\Local\Temp\cc2ecMOd.s:973    .text.wpa_gen_rsnxe:0000000000000042 .L0 
C:\Users\stapi\AppData\Local\Temp\cc2ecMOd.s:974    .text.wpa_gen_rsnxe:0000000000000042 .L0 
C:\Users\stapi\AppData\Local\Temp\cc2ecMOd.s:978    .text.wpa_gen_rsnxe:0000000000000046 .L0 
C:\Users\stapi\AppData\Local\Temp\cc2ecMOd.s:979    .text.wpa_gen_rsnxe:0000000000000046 .L0 
C:\Users\stapi\AppData\Local\Temp\cc2ecMOd.s:983    .text.wpa_gen_rsnxe:0000000000000048 .L0 
C:\Users\stapi\AppData\Local\Temp\cc2ecMOd.s:984    .text.wpa_gen_rsnxe:0000000000000048 .L0 
C:\Users\stapi\AppData\Local\Temp\cc2ecMOd.s:990    .text.wpa_gen_rsnxe:0000000000000052 .L0 
C:\Users\stapi\AppData\Local\Temp\cc2ecMOd.s:992    .text.wpa_gen_rsnxe:0000000000000054 .L0 
C:\Users\stapi\AppData\Local\Temp\cc2ecMOd.s:994    .text.wpa_gen_rsnxe:0000000000000058 .L0 
C:\Users\stapi\AppData\Local\Temp\cc2ecMOd.s:995    .text.wpa_gen_rsnxe:0000000000000058 .L0 
C:\Users\stapi\AppData\Local\Temp\cc2ecMOd.s:997    .text.wpa_gen_rsnxe:000000000000005c .L0 
C:\Users\stapi\AppData\Local\Temp\cc2ecMOd.s:1000   .text.wpa_gen_rsnxe:000000000000005e .L0 
C:\Users\stapi\AppData\Local\Temp\cc2ecMOd.s:1002   .text.wpa_gen_rsnxe:0000000000000060 .L0 
C:\Users\stapi\AppData\Local\Temp\cc2ecMOd.s:1005   .text.wpa_gen_rsnxe:0000000000000064 .L0 
C:\Users\stapi\AppData\Local\Temp\cc2ecMOd.s:1006   .text.wpa_gen_rsnxe:0000000000000064 .L0 
C:\Users\stapi\AppData\Local\Temp\cc2ecMOd.s:1009   .text.wpa_gen_rsnxe:0000000000000068 .L0 
C:\Users\stapi\AppData\Local\Temp\cc2ecMOd.s:1010   .text.wpa_gen_rsnxe:0000000000000068 .L0 
C:\Users\stapi\AppData\Local\Temp\cc2ecMOd.s:1012   .text.wpa_gen_rsnxe:000000000000006c .L0 
C:\Users\stapi\AppData\Local\Temp\cc2ecMOd.s:1015   .text.wpa_gen_rsnxe:0000000000000070 .L0 
C:\Users\stapi\AppData\Local\Temp\cc2ecMOd.s:1016   .text.wpa_gen_rsnxe:0000000000000070 .L0 
C:\Users\stapi\AppData\Local\Temp\cc2ecMOd.s:1017   .text.wpa_gen_rsnxe:0000000000000070 .L0 
C:\Users\stapi\AppData\Local\Temp\cc2ecMOd.s:1020   .text.wpa_gen_rsnxe:0000000000000072 .L0 
C:\Users\stapi\AppData\Local\Temp\cc2ecMOd.s:1021   .text.wpa_gen_rsnxe:0000000000000072 .L0 
C:\Users\stapi\AppData\Local\Temp\cc2ecMOd.s:1024   .text.wpa_gen_rsnxe:0000000000000076 .L0 
C:\Users\stapi\AppData\Local\Temp\cc2ecMOd.s:1026   .text.wpa_gen_rsnxe:0000000000000078 .L0 
C:\Users\stapi\AppData\Local\Temp\cc2ecMOd.s:1027   .text.wpa_gen_rsnxe:0000000000000078 .L0 
C:\Users\stapi\AppData\Local\Temp\cc2ecMOd.s:1030   .text.wpa_gen_rsnxe:000000000000007c .L0 
C:\Users\stapi\AppData\Local\Temp\cc2ecMOd.s:1034   .text.wpa_gen_rsnxe:0000000000000080 .L0 
C:\Users\stapi\AppData\Local\Temp\cc2ecMOd.s:1035   .text.wpa_gen_rsnxe:0000000000000080 .L0 
C:\Users\stapi\AppData\Local\Temp\cc2ecMOd.s:1041   .text.wpa_gen_rsnxe:0000000000000084 .L0 
C:\Users\stapi\AppData\Local\Temp\cc2ecMOd.s:1042   .text.wpa_gen_rsnxe:0000000000000084 .L0 
C:\Users\stapi\AppData\Local\Temp\cc2ecMOd.s:1047   .text.wpa_gen_rsnxe:000000000000008e .L0 
C:\Users\stapi\AppData\Local\Temp\cc2ecMOd.s:1048   .text.wpa_gen_rsnxe:000000000000008e .L0 
C:\Users\stapi\AppData\Local\Temp\cc2ecMOd.s:1050   .text.wpa_gen_rsnxe:0000000000000090 .L0 
C:\Users\stapi\AppData\Local\Temp\cc2ecMOd.s:1052   .text.wpa_gen_rsnxe:0000000000000092 .L0 
C:\Users\stapi\AppData\Local\Temp\cc2ecMOd.s:1056   .text.wpa_gen_rsnxe:0000000000000094 .L0 
C:\Users\stapi\AppData\Local\Temp\cc2ecMOd.s:1057   .text.wpa_gen_rsnxe:0000000000000096 .L0 
C:\Users\stapi\AppData\Local\Temp\cc2ecMOd.s:83     .text.wpa_parse_wpa_ie:0000000000000074 .L0 
C:\Users\stapi\AppData\Local\Temp\cc2ecMOd.s:141    .text.rsn_supp_capab:000000000000002e .L0 
C:\Users\stapi\AppData\Local\Temp\cc2ecMOd.s:904    .text.wpa_gen_wpa_ie:000000000000030c .L0 
C:\Users\stapi\AppData\Local\Temp\cc2ecMOd.s:1060   .text.wpa_gen_rsnxe:0000000000000096 .L0 
                     .debug_frame:0000000000000000 .L0 
C:\Users\stapi\AppData\Local\Temp\cc2ecMOd.s:74     .text.wpa_parse_wpa_ie:000000000000006a .L2
C:\Users\stapi\AppData\Local\Temp\cc2ecMOd.s:42     .text.wpa_parse_wpa_ie:0000000000000026 .L3
C:\Users\stapi\AppData\Local\Temp\cc2ecMOd.s:30     .text.wpa_parse_wpa_ie:0000000000000016 .L5
C:\Users\stapi\AppData\Local\Temp\cc2ecMOd.s:35     .text.wpa_parse_wpa_ie:000000000000001e .L1
C:\Users\stapi\AppData\Local\Temp\cc2ecMOd.s:115    .text.rsn_supp_capab:0000000000000018 .L11
C:\Users\stapi\AppData\Local\Temp\cc2ecMOd.s:124    .text.rsn_supp_capab:0000000000000022 .L12
C:\Users\stapi\AppData\Local\Temp\cc2ecMOd.s:134    .text.rsn_supp_capab:000000000000002c .L13
C:\Users\stapi\AppData\Local\Temp\cc2ecMOd.s:143    .rodata.wpa_gen_wpa_ie.str1.4:0000000000000000 .LC0
C:\Users\stapi\AppData\Local\Temp\cc2ecMOd.s:146    .rodata.wpa_gen_wpa_ie.str1.4:0000000000000028 .LC1
C:\Users\stapi\AppData\Local\Temp\cc2ecMOd.s:149    .rodata.wpa_gen_wpa_ie.str1.4:0000000000000044 .LC2
C:\Users\stapi\AppData\Local\Temp\cc2ecMOd.s:152    .rodata.wpa_gen_wpa_ie.str1.4:0000000000000064 .LC3
C:\Users\stapi\AppData\Local\Temp\cc2ecMOd.s:663    .text.wpa_gen_wpa_ie:0000000000000210 .L24
C:\Users\stapi\AppData\Local\Temp\cc2ecMOd.s:217    .text.wpa_gen_wpa_ie:0000000000000036 .L25
C:\Users\stapi\AppData\Local\Temp\cc2ecMOd.s:252    .text.wpa_gen_wpa_ie:000000000000005a .L26
C:\Users\stapi\AppData\Local\Temp\cc2ecMOd.s:305    .text.wpa_gen_wpa_ie:000000000000008a .L28
C:\Users\stapi\AppData\Local\Temp\cc2ecMOd.s:227    .text.wpa_gen_wpa_ie:0000000000000046 .L55
C:\Users\stapi\AppData\Local\Temp\cc2ecMOd.s:362    .text.wpa_gen_wpa_ie:00000000000000ca .L29
C:\Users\stapi\AppData\Local\Temp\cc2ecMOd.s:301    .text.wpa_gen_wpa_ie:0000000000000086 .L56
C:\Users\stapi\AppData\Local\Temp\cc2ecMOd.s:376    .text.wpa_gen_wpa_ie:00000000000000da .L30
C:\Users\stapi\AppData\Local\Temp\cc2ecMOd.s:351    .text.wpa_gen_wpa_ie:00000000000000be .L44
C:\Users\stapi\AppData\Local\Temp\cc2ecMOd.s:573    .text.wpa_gen_wpa_ie:00000000000001b2 .L32
C:\Users\stapi\AppData\Local\Temp\cc2ecMOd.s:490    .text.wpa_gen_wpa_ie:000000000000015e .L38
C:\Users\stapi\AppData\Local\Temp\cc2ecMOd.s:552    .text.wpa_gen_wpa_ie:00000000000001a4 .L39
C:\Users\stapi\AppData\Local\Temp\cc2ecMOd.s:519    .text.wpa_gen_wpa_ie:000000000000017a .L40
C:\Users\stapi\AppData\Local\Temp\cc2ecMOd.s:234    .text.wpa_gen_wpa_ie:0000000000000050 .L23
C:\Users\stapi\AppData\Local\Temp\cc2ecMOd.s:609    .text.wpa_gen_wpa_ie:00000000000001d4 .L34
C:\Users\stapi\AppData\Local\Temp\cc2ecMOd.s:438    .text.wpa_gen_wpa_ie:000000000000011c .L33
C:\Users\stapi\AppData\Local\Temp\cc2ecMOd.s:636    .text.wpa_gen_wpa_ie:00000000000001f2 .L35
C:\Users\stapi\AppData\Local\Temp\cc2ecMOd.s:601    .text.wpa_gen_wpa_ie:00000000000001ce .L54
C:\Users\stapi\AppData\Local\Temp\cc2ecMOd.s:891    .text.wpa_gen_wpa_ie:0000000000000300 .L47
C:\Users\stapi\AppData\Local\Temp\cc2ecMOd.s:297    .text.wpa_gen_wpa_ie:000000000000007e .L57
C:\Users\stapi\AppData\Local\Temp\cc2ecMOd.s:791    .text.wpa_gen_wpa_ie:000000000000029a .L43
C:\Users\stapi\AppData\Local\Temp\cc2ecMOd.s:864    .text.wpa_gen_wpa_ie:00000000000002e2 .L45
C:\Users\stapi\AppData\Local\Temp\cc2ecMOd.s:559    .text.wpa_gen_wpa_ie:00000000000001ac .L58
C:\Users\stapi\AppData\Local\Temp\cc2ecMOd.s:853    .text.wpa_gen_wpa_ie:00000000000002dc .L46
C:\Users\stapi\AppData\Local\Temp\cc2ecMOd.s:948    .text.wpa_gen_rsnxe:000000000000002a .L60
C:\Users\stapi\AppData\Local\Temp\cc2ecMOd.s:958    .text.wpa_gen_rsnxe:0000000000000034 .L61
C:\Users\stapi\AppData\Local\Temp\cc2ecMOd.s:967    .text.wpa_gen_rsnxe:000000000000003e .L62
C:\Users\stapi\AppData\Local\Temp\cc2ecMOd.s:1039   .text.wpa_gen_rsnxe:0000000000000084 .L63
C:\Users\stapi\AppData\Local\Temp\cc2ecMOd.s:988    .text.wpa_gen_rsnxe:0000000000000052 .L67
C:\Users\stapi\AppData\Local\Temp\cc2ecMOd.s:1054   .text.wpa_gen_rsnxe:0000000000000094 .L59
C:\Users\stapi\AppData\Local\Temp\cc2ecMOd.s:1032   .text.wpa_gen_rsnxe:0000000000000080 .L69
C:\Users\stapi\AppData\Local\Temp\cc2ecMOd.s:977    .text.wpa_gen_rsnxe:0000000000000046 .L73
C:\Users\stapi\AppData\Local\Temp\cc2ecMOd.s:980    .text.wpa_gen_rsnxe:0000000000000048 .L64
C:\Users\stapi\AppData\Local\Temp\cc2ecMOd.s:3930   .debug_abbrev:0000000000000000 .Ldebug_abbrev0
C:\Users\stapi\AppData\Local\Temp\cc2ecMOd.s:6415   .debug_str:0000000000000c70 .LASF239
C:\Users\stapi\AppData\Local\Temp\cc2ecMOd.s:6275   .debug_str:000000000000080e .LASF240
C:\Users\stapi\AppData\Local\Temp\cc2ecMOd.s:6103   .debug_str:0000000000000374 .LASF241
C:\Users\stapi\AppData\Local\Temp\cc2ecMOd.s:5913   .debug_ranges:0000000000000000 .Ldebug_ranges0
C:\Users\stapi\AppData\Local\Temp\cc2ecMOd.s:5969   .debug_line:0000000000000000 .Ldebug_line0
C:\Users\stapi\AppData\Local\Temp\cc2ecMOd.s:6123   .debug_str:000000000000047e .LASF2
C:\Users\stapi\AppData\Local\Temp\cc2ecMOd.s:6011   .debug_str:000000000000011e .LASF0
C:\Users\stapi\AppData\Local\Temp\cc2ecMOd.s:6399   .debug_str:0000000000000bf3 .LASF1
C:\Users\stapi\AppData\Local\Temp\cc2ecMOd.s:6321   .debug_str:00000000000009c8 .LASF3
C:\Users\stapi\AppData\Local\Temp\cc2ecMOd.s:6357   .debug_str:0000000000000adc .LASF4
C:\Users\stapi\AppData\Local\Temp\cc2ecMOd.s:6037   .debug_str:00000000000001d0 .LASF5
C:\Users\stapi\AppData\Local\Temp\cc2ecMOd.s:6099   .debug_str:0000000000000361 .LASF6
C:\Users\stapi\AppData\Local\Temp\cc2ecMOd.s:6401   .debug_str:0000000000000bff .LASF7
C:\Users\stapi\AppData\Local\Temp\cc2ecMOd.s:5971   .debug_str:0000000000000000 .LASF8
C:\Users\stapi\AppData\Local\Temp\cc2ecMOd.s:6361   .debug_str:0000000000000af1 .LASF9
C:\Users\stapi\AppData\Local\Temp\cc2ecMOd.s:6343   .debug_str:0000000000000a6c .LASF10
C:\Users\stapi\AppData\Local\Temp\cc2ecMOd.s:6151   .debug_str:0000000000000534 .LASF11
C:\Users\stapi\AppData\Local\Temp\cc2ecMOd.s:6075   .debug_str:00000000000002c8 .LASF12
C:\Users\stapi\AppData\Local\Temp\cc2ecMOd.s:6165   .debug_str:0000000000000584 .LASF13
C:\Users\stapi\AppData\Local\Temp\cc2ecMOd.s:6187   .debug_str:0000000000000603 .LASF14
C:\Users\stapi\AppData\Local\Temp\cc2ecMOd.s:6271   .debug_str:00000000000007fb .LASF15
C:\Users\stapi\AppData\Local\Temp\cc2ecMOd.s:6061   .debug_str:0000000000000254 .LASF16
C:\Users\stapi\AppData\Local\Temp\cc2ecMOd.s:6133   .debug_str:00000000000004b3 .LASF17
C:\Users\stapi\AppData\Local\Temp\cc2ecMOd.s:6201   .debug_str:0000000000000653 .LASF18
C:\Users\stapi\AppData\Local\Temp\cc2ecMOd.s:6125   .debug_str:0000000000000485 .LASF19
C:\Users\stapi\AppData\Local\Temp\cc2ecMOd.s:6257   .debug_str:00000000000007a8 .LASF20
C:\Users\stapi\AppData\Local\Temp\cc2ecMOd.s:6105   .debug_str:0000000000000406 .LASF21
C:\Users\stapi\AppData\Local\Temp\cc2ecMOd.s:6129   .debug_str:000000000000049d .LASF22
C:\Users\stapi\AppData\Local\Temp\cc2ecMOd.s:6209   .debug_str:000000000000068a .LASF23
C:\Users\stapi\AppData\Local\Temp\cc2ecMOd.s:6155   .debug_str:000000000000054e .LASF24
C:\Users\stapi\AppData\Local\Temp\cc2ecMOd.s:6139   .debug_str:00000000000004d6 .LASF38
C:\Users\stapi\AppData\Local\Temp\cc2ecMOd.s:5975   .debug_str:0000000000000013 .LASF25
C:\Users\stapi\AppData\Local\Temp\cc2ecMOd.s:6153   .debug_str:0000000000000542 .LASF26
C:\Users\stapi\AppData\Local\Temp\cc2ecMOd.s:6237   .debug_str:0000000000000727 .LASF27
C:\Users\stapi\AppData\Local\Temp\cc2ecMOd.s:6303   .debug_str:0000000000000964 .LASF28
C:\Users\stapi\AppData\Local\Temp\cc2ecMOd.s:6141   .debug_str:00000000000004de .LASF29
C:\Users\stapi\AppData\Local\Temp\cc2ecMOd.s:6051   .debug_str:0000000000000223 .LASF30
C:\Users\stapi\AppData\Local\Temp\cc2ecMOd.s:6171   .debug_str:00000000000005a4 .LASF31
C:\Users\stapi\AppData\Local\Temp\cc2ecMOd.s:6203   .debug_str:000000000000065d .LASF32
C:\Users\stapi\AppData\Local\Temp\cc2ecMOd.s:6205   .debug_str:0000000000000669 .LASF33
C:\Users\stapi\AppData\Local\Temp\cc2ecMOd.s:6447   .debug_str:0000000000000e3a .LASF34
C:\Users\stapi\AppData\Local\Temp\cc2ecMOd.s:5981   .debug_str:000000000000003a .LASF35
C:\Users\stapi\AppData\Local\Temp\cc2ecMOd.s:6265   .debug_str:00000000000007c9 .LASF36
C:\Users\stapi\AppData\Local\Temp\cc2ecMOd.s:6039   .debug_str:00000000000001da .LASF37
C:\Users\stapi\AppData\Local\Temp\cc2ecMOd.s:6285   .debug_str:00000000000008dd .LASF39
C:\Users\stapi\AppData\Local\Temp\cc2ecMOd.s:6335   .debug_str:0000000000000a2a .LASF40
C:\Users\stapi\AppData\Local\Temp\cc2ecMOd.s:6425   .debug_str:0000000000000d9d .LASF41
C:\Users\stapi\AppData\Local\Temp\cc2ecMOd.s:6347   .debug_str:0000000000000a8a .LASF42
C:\Users\stapi\AppData\Local\Temp\cc2ecMOd.s:6389   .debug_str:0000000000000bb0 .LASF43
C:\Users\stapi\AppData\Local\Temp\cc2ecMOd.s:6411   .debug_str:0000000000000c57 .LASF44
C:\Users\stapi\AppData\Local\Temp\cc2ecMOd.s:6147   .debug_str:000000000000050e .LASF45
C:\Users\stapi\AppData\Local\Temp\cc2ecMOd.s:6311   .debug_str:0000000000000989 .LASF46
C:\Users\stapi\AppData\Local\Temp\cc2ecMOd.s:6353   .debug_str:0000000000000ab3 .LASF47
C:\Users\stapi\AppData\Local\Temp\cc2ecMOd.s:6431   .debug_str:0000000000000dc9 .LASF48
C:\Users\stapi\AppData\Local\Temp\cc2ecMOd.s:6185   .debug_str:00000000000005f5 .LASF49
C:\Users\stapi\AppData\Local\Temp\cc2ecMOd.s:6435   .debug_str:0000000000000df7 .LASF50
C:\Users\stapi\AppData\Local\Temp\cc2ecMOd.s:6387   .debug_str:0000000000000ba0 .LASF51
C:\Users\stapi\AppData\Local\Temp\cc2ecMOd.s:6109   .debug_str:000000000000041e .LASF52
C:\Users\stapi\AppData\Local\Temp\cc2ecMOd.s:6345   .debug_str:0000000000000a7e .LASF53
C:\Users\stapi\AppData\Local\Temp\cc2ecMOd.s:6309   .debug_str:000000000000097d .LASF54
C:\Users\stapi\AppData\Local\Temp\cc2ecMOd.s:6297   .debug_str:0000000000000946 .LASF55
C:\Users\stapi\AppData\Local\Temp\cc2ecMOd.s:6251   .debug_str:000000000000077a .LASF56
C:\Users\stapi\AppData\Local\Temp\cc2ecMOd.s:5997   .debug_str:00000000000000a9 .LASF57
C:\Users\stapi\AppData\Local\Temp\cc2ecMOd.s:6247   .debug_str:0000000000000760 .LASF58
C:\Users\stapi\AppData\Local\Temp\cc2ecMOd.s:6287   .debug_str:00000000000008e8 .LASF59
C:\Users\stapi\AppData\Local\Temp\cc2ecMOd.s:6033   .debug_str:00000000000001a5 .LASF60
C:\Users\stapi\AppData\Local\Temp\cc2ecMOd.s:5979   .debug_str:0000000000000028 .LASF61
C:\Users\stapi\AppData\Local\Temp\cc2ecMOd.s:6433   .debug_str:0000000000000ddd .LASF62
C:\Users\stapi\AppData\Local\Temp\cc2ecMOd.s:6289   .debug_str:00000000000008fd .LASF63
C:\Users\stapi\AppData\Local\Temp\cc2ecMOd.s:6183   .debug_str:00000000000005e0 .LASF64
C:\Users\stapi\AppData\Local\Temp\cc2ecMOd.s:5987   .debug_str:0000000000000067 .LASF65
C:\Users\stapi\AppData\Local\Temp\cc2ecMOd.s:6371   .debug_str:0000000000000b26 .LASF66
C:\Users\stapi\AppData\Local\Temp\cc2ecMOd.s:6341   .debug_str:0000000000000a58 .LASF67
C:\Users\stapi\AppData\Local\Temp\cc2ecMOd.s:6351   .debug_str:0000000000000aa1 .LASF68
C:\Users\stapi\AppData\Local\Temp\cc2ecMOd.s:6363   .debug_str:0000000000000afc .LASF78
C:\Users\stapi\AppData\Local\Temp\cc2ecMOd.s:6277   .debug_str:000000000000089d .LASF69
C:\Users\stapi\AppData\Local\Temp\cc2ecMOd.s:6177   .debug_str:00000000000005cb .LASF70
C:\Users\stapi\AppData\Local\Temp\cc2ecMOd.s:6041   .debug_str:00000000000001ef .LASF71
C:\Users\stapi\AppData\Local\Temp\cc2ecMOd.s:6117   .debug_str:000000000000044b .LASF72
C:\Users\stapi\AppData\Local\Temp\cc2ecMOd.s:6369   .debug_str:0000000000000b1f .LASF73
C:\Users\stapi\AppData\Local\Temp\cc2ecMOd.s:6093   .debug_str:000000000000033a .LASF74
C:\Users\stapi\AppData\Local\Temp\cc2ecMOd.s:6143   .debug_str:00000000000004f3 .LASF75
C:\Users\stapi\AppData\Local\Temp\cc2ecMOd.s:6333   .debug_str:0000000000000a22 .LASF76
C:\Users\stapi\AppData\Local\Temp\cc2ecMOd.s:6223   .debug_str:00000000000006d4 .LASF77
C:\Users\stapi\AppData\Local\Temp\cc2ecMOd.s:6101   .debug_str:000000000000036c .LASF79
C:\Users\stapi\AppData\Local\Temp\cc2ecMOd.s:6071   .debug_str:00000000000002b4 .LASF80
C:\Users\stapi\AppData\Local\Temp\cc2ecMOd.s:6393   .debug_str:0000000000000bc7 .LASF81
C:\Users\stapi\AppData\Local\Temp\cc2ecMOd.s:6305   .debug_str:0000000000000971 .LASF82
C:\Users\stapi\AppData\Local\Temp\cc2ecMOd.s:6243   .debug_str:000000000000074b .LASF83
C:\Users\stapi\AppData\Local\Temp\cc2ecMOd.s:6161   .debug_str:0000000000000575 .LASF84
C:\Users\stapi\AppData\Local\Temp\cc2ecMOd.s:6413   .debug_str:0000000000000c6a .LASF85
C:\Users\stapi\AppData\Local\Temp\cc2ecMOd.s:5973   .debug_str:0000000000000009 .LASF86
C:\Users\stapi\AppData\Local\Temp\cc2ecMOd.s:6407   .debug_str:0000000000000c3e .LASF87
C:\Users\stapi\AppData\Local\Temp\cc2ecMOd.s:6231   .debug_str:0000000000000702 .LASF88
C:\Users\stapi\AppData\Local\Temp\cc2ecMOd.s:6015   .debug_str:0000000000000130 .LASF89
C:\Users\stapi\AppData\Local\Temp\cc2ecMOd.s:6249   .debug_str:000000000000076f .LASF90
C:\Users\stapi\AppData\Local\Temp\cc2ecMOd.s:6229   .debug_str:00000000000006f6 .LASF91
C:\Users\stapi\AppData\Local\Temp\cc2ecMOd.s:6179   .debug_str:00000000000005d0 .LASF92
C:\Users\stapi\AppData\Local\Temp\cc2ecMOd.s:6157   .debug_str:0000000000000558 .LASF93
C:\Users\stapi\AppData\Local\Temp\cc2ecMOd.s:6385   .debug_str:0000000000000b93 .LASF94
C:\Users\stapi\AppData\Local\Temp\cc2ecMOd.s:6027   .debug_str:0000000000000179 .LASF95
C:\Users\stapi\AppData\Local\Temp\cc2ecMOd.s:6175   .debug_str:00000000000005c1 .LASF96
C:\Users\stapi\AppData\Local\Temp\cc2ecMOd.s:6221   .debug_str:00000000000006cb .LASF97
C:\Users\stapi\AppData\Local\Temp\cc2ecMOd.s:6159   .debug_str:0000000000000568 .LASF98
C:\Users\stapi\AppData\Local\Temp\cc2ecMOd.s:6195   .debug_str:000000000000062f .LASF99
C:\Users\stapi\AppData\Local\Temp\cc2ecMOd.s:6083   .debug_str:0000000000000302 .LASF100
C:\Users\stapi\AppData\Local\Temp\cc2ecMOd.s:6395   .debug_str:0000000000000bd0 .LASF101
C:\Users\stapi\AppData\Local\Temp\cc2ecMOd.s:6055   .debug_str:0000000000000237 .LASF102
C:\Users\stapi\AppData\Local\Temp\cc2ecMOd.s:6329   .debug_str:0000000000000a09 .LASF103
C:\Users\stapi\AppData\Local\Temp\cc2ecMOd.s:6391   .debug_str:0000000000000bbd .LASF104
C:\Users\stapi\AppData\Local\Temp\cc2ecMOd.s:6181   .debug_str:00000000000005d6 .LASF105
C:\Users\stapi\AppData\Local\Temp\cc2ecMOd.s:6233   .debug_str:000000000000070a .LASF106
C:\Users\stapi\AppData\Local\Temp\cc2ecMOd.s:6439   .debug_str:0000000000000e0e .LASF107
C:\Users\stapi\AppData\Local\Temp\cc2ecMOd.s:6115   .debug_str:0000000000000443 .LASF108
C:\Users\stapi\AppData\Local\Temp\cc2ecMOd.s:6207   .debug_str:000000000000067a .LASF109
C:\Users\stapi\AppData\Local\Temp\cc2ecMOd.s:6261   .debug_str:00000000000007b9 .LASF110
C:\Users\stapi\AppData\Local\Temp\cc2ecMOd.s:6059   .debug_str:0000000000000249 .LASF111
C:\Users\stapi\AppData\Local\Temp\cc2ecMOd.s:6227   .debug_str:00000000000006e8 .LASF112
C:\Users\stapi\AppData\Local\Temp\cc2ecMOd.s:6007   .debug_str:00000000000000f6 .LASF113
C:\Users\stapi\AppData\Local\Temp\cc2ecMOd.s:6087   .debug_str:000000000000030d .LASF114
C:\Users\stapi\AppData\Local\Temp\cc2ecMOd.s:6225   .debug_str:00000000000006de .LASF115
C:\Users\stapi\AppData\Local\Temp\cc2ecMOd.s:6131   .debug_str:00000000000004a6 .LASF116
C:\Users\stapi\AppData\Local\Temp\cc2ecMOd.s:6173   .debug_str:00000000000005b1 .LASF117
C:\Users\stapi\AppData\Local\Temp\cc2ecMOd.s:6029   .debug_str:0000000000000186 .LASF118
C:\Users\stapi\AppData\Local\Temp\cc2ecMOd.s:6405   .debug_str:0000000000000c2b .LASF119
C:\Users\stapi\AppData\Local\Temp\cc2ecMOd.s:6267   .debug_str:00000000000007de .LASF120
C:\Users\stapi\AppData\Local\Temp\cc2ecMOd.s:6253   .debug_str:000000000000078c .LASF121
C:\Users\stapi\AppData\Local\Temp\cc2ecMOd.s:6383   .debug_str:0000000000000b80 .LASF122
C:\Users\stapi\AppData\Local\Temp\cc2ecMOd.s:6145   .debug_str:00000000000004fc .LASF123
C:\Users\stapi\AppData\Local\Temp\cc2ecMOd.s:6331   .debug_str:0000000000000a11 .LASF124
C:\Users\stapi\AppData\Local\Temp\cc2ecMOd.s:6443   .debug_str:0000000000000e21 .LASF125
C:\Users\stapi\AppData\Local\Temp\cc2ecMOd.s:5985   .debug_str:000000000000005a .LASF126
C:\Users\stapi\AppData\Local\Temp\cc2ecMOd.s:6095   .debug_str:0000000000000343 .LASF127
C:\Users\stapi\AppData\Local\Temp\cc2ecMOd.s:6349   .debug_str:0000000000000a97 .LASF128
C:\Users\stapi\AppData\Local\Temp\cc2ecMOd.s:6283   .debug_str:00000000000008cd .LASF129
C:\Users\stapi\AppData\Local\Temp\cc2ecMOd.s:6423   .debug_str:0000000000000d8c .LASF130
C:\Users\stapi\AppData\Local\Temp\cc2ecMOd.s:6355   .debug_str:0000000000000ac6 .LASF131
C:\Users\stapi\AppData\Local\Temp\cc2ecMOd.s:6013   .debug_str:000000000000012b .LASF132
C:\Users\stapi\AppData\Local\Temp\cc2ecMOd.s:5977   .debug_str:0000000000000020 .LASF133
C:\Users\stapi\AppData\Local\Temp\cc2ecMOd.s:5983   .debug_str:000000000000004f .LASF134
C:\Users\stapi\AppData\Local\Temp\cc2ecMOd.s:6085   .debug_str:0000000000000308 .LASF135
C:\Users\stapi\AppData\Local\Temp\cc2ecMOd.s:6035   .debug_str:00000000000001c2 .LASF136
C:\Users\stapi\AppData\Local\Temp\cc2ecMOd.s:6295   .debug_str:0000000000000934 .LASF137
C:\Users\stapi\AppData\Local\Temp\cc2ecMOd.s:6017   .debug_str:0000000000000138 .LASF138
C:\Users\stapi\AppData\Local\Temp\cc2ecMOd.s:6291   .debug_str:0000000000000915 .LASF139
C:\Users\stapi\AppData\Local\Temp\cc2ecMOd.s:6245   .debug_str:0000000000000754 .LASF140
C:\Users\stapi\AppData\Local\Temp\cc2ecMOd.s:6373   .debug_str:0000000000000b3d .LASF141
C:\Users\stapi\AppData\Local\Temp\cc2ecMOd.s:6441   .debug_str:0000000000000e18 .LASF142
C:\Users\stapi\AppData\Local\Temp\cc2ecMOd.s:6043   .debug_str:00000000000001f7 .LASF143
C:\Users\stapi\AppData\Local\Temp\cc2ecMOd.s:6025   .debug_str:0000000000000174 .LASF144
C:\Users\stapi\AppData\Local\Temp\cc2ecMOd.s:6359   .debug_str:0000000000000aea .LASF145
C:\Users\stapi\AppData\Local\Temp\cc2ecMOd.s:6215   .debug_str:00000000000006af .LASF146
C:\Users\stapi\AppData\Local\Temp\cc2ecMOd.s:6005   .debug_str:00000000000000ee .LASF147
C:\Users\stapi\AppData\Local\Temp\cc2ecMOd.s:6019   .debug_str:0000000000000140 .LASF148
C:\Users\stapi\AppData\Local\Temp\cc2ecMOd.s:6235   .debug_str:0000000000000719 .LASF149
C:\Users\stapi\AppData\Local\Temp\cc2ecMOd.s:5991   .debug_str:0000000000000091 .LASF150
C:\Users\stapi\AppData\Local\Temp\cc2ecMOd.s:6057   .debug_str:0000000000000242 .LASF151
C:\Users\stapi\AppData\Local\Temp\cc2ecMOd.s:6193   .debug_str:0000000000000622 .LASF152
C:\Users\stapi\AppData\Local\Temp\cc2ecMOd.s:6365   .debug_str:0000000000000b04 .LASF153
C:\Users\stapi\AppData\Local\Temp\cc2ecMOd.s:6069   .debug_str:000000000000029e .LASF154
C:\Users\stapi\AppData\Local\Temp\cc2ecMOd.s:6317   .debug_str:00000000000009b2 .LASF155
C:\Users\stapi\AppData\Local\Temp\cc2ecMOd.s:6111   .debug_str:000000000000042f .LASF156
C:\Users\stapi\AppData\Local\Temp\cc2ecMOd.s:6211   .debug_str:0000000000000696 .LASF157
C:\Users\stapi\AppData\Local\Temp\cc2ecMOd.s:6135   .debug_str:00000000000004b9 .LASF158
C:\Users\stapi\AppData\Local\Temp\cc2ecMOd.s:6217   .debug_str:00000000000006b4 .LASF159
C:\Users\stapi\AppData\Local\Temp\cc2ecMOd.s:6077   .debug_str:00000000000002df .LASF160
C:\Users\stapi\AppData\Local\Temp\cc2ecMOd.s:6427   .debug_str:0000000000000db4 .LASF161
C:\Users\stapi\AppData\Local\Temp\cc2ecMOd.s:6119   .debug_str:0000000000000453 .LASF162
C:\Users\stapi\AppData\Local\Temp\cc2ecMOd.s:5989   .debug_str:0000000000000086 .LASF163
C:\Users\stapi\AppData\Local\Temp\cc2ecMOd.s:6189   .debug_str:000000000000060b .LASF164
C:\Users\stapi\AppData\Local\Temp\cc2ecMOd.s:6301   .debug_str:000000000000095c .LASF165
C:\Users\stapi\AppData\Local\Temp\cc2ecMOd.s:6047   .debug_str:000000000000020b .LASF166
C:\Users\stapi\AppData\Local\Temp\cc2ecMOd.s:6409   .debug_str:0000000000000c49 .LASF167
C:\Users\stapi\AppData\Local\Temp\cc2ecMOd.s:5995   .debug_str:000000000000009f .LASF168
C:\Users\stapi\AppData\Local\Temp\cc2ecMOd.s:6045   .debug_str:00000000000001ff .LASF169
C:\Users\stapi\AppData\Local\Temp\cc2ecMOd.s:6279   .debug_str:00000000000008a2 .LASF170
C:\Users\stapi\AppData\Local\Temp\cc2ecMOd.s:6149   .debug_str:000000000000051e .LASF171
C:\Users\stapi\AppData\Local\Temp\cc2ecMOd.s:6067   .debug_str:000000000000028f .LASF172
C:\Users\stapi\AppData\Local\Temp\cc2ecMOd.s:6137   .debug_str:00000000000004c9 .LASF173
C:\Users\stapi\AppData\Local\Temp\cc2ecMOd.s:6163   .debug_str:000000000000057f .LASF174
C:\Users\stapi\AppData\Local\Temp\cc2ecMOd.s:6191   .debug_str:0000000000000619 .LASF175
C:\Users\stapi\AppData\Local\Temp\cc2ecMOd.s:6107   .debug_str:0000000000000410 .LASF176
C:\Users\stapi\AppData\Local\Temp\cc2ecMOd.s:6091   .debug_str:0000000000000326 .LASF177
C:\Users\stapi\AppData\Local\Temp\cc2ecMOd.s:6065   .debug_str:000000000000027c .LASF178
C:\Users\stapi\AppData\Local\Temp\cc2ecMOd.s:6293   .debug_str:0000000000000921 .LASF179
C:\Users\stapi\AppData\Local\Temp\cc2ecMOd.s:6073   .debug_str:00000000000002bc .LASF180
C:\Users\stapi\AppData\Local\Temp\cc2ecMOd.s:6325   .debug_str:00000000000009e3 .LASF181
C:\Users\stapi\AppData\Local\Temp\cc2ecMOd.s:6315   .debug_str:00000000000009a3 .LASF182
C:\Users\stapi\AppData\Local\Temp\cc2ecMOd.s:6169   .debug_str:0000000000000596 .LASF183
C:\Users\stapi\AppData\Local\Temp\cc2ecMOd.s:6421   .debug_str:0000000000000d77 .LASF184
C:\Users\stapi\AppData\Local\Temp\cc2ecMOd.s:6375   .debug_str:0000000000000b4b .LASF185
C:\Users\stapi\AppData\Local\Temp\cc2ecMOd.s:6299   .debug_str:0000000000000955 .LASF186
C:\Users\stapi\AppData\Local\Temp\cc2ecMOd.s:6339   .debug_str:0000000000000a4a .LASF187
C:\Users\stapi\AppData\Local\Temp\cc2ecMOd.s:6319   .debug_str:00000000000009c2 .LASF188
C:\Users\stapi\AppData\Local\Temp\cc2ecMOd.s:6327   .debug_str:00000000000009ee .LASF189
C:\Users\stapi\AppData\Local\Temp\cc2ecMOd.s:5999   .debug_str:00000000000000b6 .LASF190
C:\Users\stapi\AppData\Local\Temp\cc2ecMOd.s:6403   .debug_str:0000000000000c12 .LASF191
C:\Users\stapi\AppData\Local\Temp\cc2ecMOd.s:6063   .debug_str:000000000000025d .LASF192
C:\Users\stapi\AppData\Local\Temp\cc2ecMOd.s:6241   .debug_str:000000000000073f .LASF193
C:\Users\stapi\AppData\Local\Temp\cc2ecMOd.s:6081   .debug_str:00000000000002fa .LASF194
C:\Users\stapi\AppData\Local\Temp\cc2ecMOd.s:6307   .debug_str:0000000000000976 .LASF195
C:\Users\stapi\AppData\Local\Temp\cc2ecMOd.s:6381   .debug_str:0000000000000b75 .LASF196
C:\Users\stapi\AppData\Local\Temp\cc2ecMOd.s:6097   .debug_str:0000000000000356 .LASF197
C:\Users\stapi\AppData\Local\Temp\cc2ecMOd.s:6269   .debug_str:00000000000007ec .LASF198
C:\Users\stapi\AppData\Local\Temp\cc2ecMOd.s:6445   .debug_str:0000000000000e2d .LASF199
C:\Users\stapi\AppData\Local\Temp\cc2ecMOd.s:6323   .debug_str:00000000000009d2 .LASF200
C:\Users\stapi\AppData\Local\Temp\cc2ecMOd.s:6199   .debug_str:0000000000000647 .LASF201
C:\Users\stapi\AppData\Local\Temp\cc2ecMOd.s:6453   .debug_str:0000000000000e6d .LASF202
C:\Users\stapi\AppData\Local\Temp\cc2ecMOd.s:6049   .debug_str:0000000000000219 .LASF203
C:\Users\stapi\AppData\Local\Temp\cc2ecMOd.s:6213   .debug_str:00000000000006a5 .LASF204
C:\Users\stapi\AppData\Local\Temp\cc2ecMOd.s:6367   .debug_str:0000000000000b16 .LASF205
C:\Users\stapi\AppData\Local\Temp\cc2ecMOd.s:6437   .debug_str:0000000000000e00 .LASF206
C:\Users\stapi\AppData\Local\Temp\cc2ecMOd.s:6377   .debug_str:0000000000000b54 .LASF207
C:\Users\stapi\AppData\Local\Temp\cc2ecMOd.s:6449   .debug_str:0000000000000e4b .LASF208
C:\Users\stapi\AppData\Local\Temp\cc2ecMOd.s:6417   .debug_str:0000000000000d69 .LASF209
C:\Users\stapi\AppData\Local\Temp\cc2ecMOd.s:6001   .debug_str:00000000000000d8 .LASF210
C:\Users\stapi\AppData\Local\Temp\cc2ecMOd.s:6337   .debug_str:0000000000000a3b .LASF211
C:\Users\stapi\AppData\Local\Temp\cc2ecMOd.s:6197   .debug_str:0000000000000639 .LASF216
C:\Users\stapi\AppData\Local\Temp\cc2ecMOd.s:909    .text.wpa_gen_rsnxe:0000000000000000 .LFB132
C:\Users\stapi\AppData\Local\Temp\cc2ecMOd.s:1058   .text.wpa_gen_rsnxe:0000000000000096 .LFE132
C:\Users\stapi\AppData\Local\Temp\cc2ecMOd.s:4904   .debug_loc:0000000000000000 .LLST58
C:\Users\stapi\AppData\Local\Temp\cc2ecMOd.s:6003   .debug_str:00000000000000e8 .LASF212
C:\Users\stapi\AppData\Local\Temp\cc2ecMOd.s:6273   .debug_str:0000000000000804 .LASF213
C:\Users\stapi\AppData\Local\Temp\cc2ecMOd.s:4918   .debug_loc:0000000000000021 .LLST59
C:\Users\stapi\AppData\Local\Temp\cc2ecMOd.s:6113   .debug_str:000000000000043d .LASF214
C:\Users\stapi\AppData\Local\Temp\cc2ecMOd.s:4951   .debug_loc:0000000000000071 .LLST60
C:\Users\stapi\AppData\Local\Temp\cc2ecMOd.s:6419   .debug_str:0000000000000d72 .LASF215
C:\Users\stapi\AppData\Local\Temp\cc2ecMOd.s:4967   .debug_loc:000000000000009b .LLST61
C:\Users\stapi\AppData\Local\Temp\cc2ecMOd.s:917    .text.wpa_gen_rsnxe:0000000000000000 .LBB120
C:\Users\stapi\AppData\Local\Temp\cc2ecMOd.s:927    .text.wpa_gen_rsnxe:000000000000000c .LBE120
C:\Users\stapi\AppData\Local\Temp\cc2ecMOd.s:6031   .debug_str:0000000000000196 .LASF217
C:\Users\stapi\AppData\Local\Temp\cc2ecMOd.s:159    .text.wpa_gen_wpa_ie:0000000000000000 .LFB131
C:\Users\stapi\AppData\Local\Temp\cc2ecMOd.s:902    .text.wpa_gen_wpa_ie:000000000000030c .LFE131
C:\Users\stapi\AppData\Local\Temp\cc2ecMOd.s:4979   .debug_loc:00000000000000ba .LLST5
C:\Users\stapi\AppData\Local\Temp\cc2ecMOd.s:6053   .debug_str:0000000000000230 .LASF218
C:\Users\stapi\AppData\Local\Temp\cc2ecMOd.s:5045   .debug_loc:0000000000000155 .LLST6
C:\Users\stapi\AppData\Local\Temp\cc2ecMOd.s:6239   .debug_str:0000000000000734 .LASF219
C:\Users\stapi\AppData\Local\Temp\cc2ecMOd.s:5056   .debug_loc:0000000000000173 .LLST7
C:\Users\stapi\AppData\Local\Temp\cc2ecMOd.s:196    .text.wpa_gen_wpa_ie:0000000000000024 .LBB64
C:\Users\stapi\AppData\Local\Temp\cc2ecMOd.s:5096   .debug_loc:00000000000001d1 .LLST8
C:\Users\stapi\AppData\Local\Temp\cc2ecMOd.s:5123   .debug_loc:000000000000021b .LLST9
C:\Users\stapi\AppData\Local\Temp\cc2ecMOd.s:5146   .debug_loc:000000000000025a .LLST10
C:\Users\stapi\AppData\Local\Temp\cc2ecMOd.s:5159   .debug_loc:000000000000027c .LLST11
C:\Users\stapi\AppData\Local\Temp\cc2ecMOd.s:5172   .debug_loc:000000000000029e .LLST12
C:\Users\stapi\AppData\Local\Temp\cc2ecMOd.s:5185   .debug_loc:00000000000002c0 .LLST13
C:\Users\stapi\AppData\Local\Temp\cc2ecMOd.s:5224   .debug_loc:0000000000000316 .LLST14
C:\Users\stapi\AppData\Local\Temp\cc2ecMOd.s:5251   .debug_loc:0000000000000360 .LLST15
C:\Users\stapi\AppData\Local\Temp\cc2ecMOd.s:5338   .debug_loc:0000000000000425 .LLST16
C:\Users\stapi\AppData\Local\Temp\cc2ecMOd.s:5357   .debug_loc:0000000000000459 .LLST17
C:\Users\stapi\AppData\Local\Temp\cc2ecMOd.s:261    .text.wpa_gen_wpa_ie:000000000000005e .LBB66
C:\Users\stapi\AppData\Local\Temp\cc2ecMOd.s:5384   .debug_loc:00000000000004a3 .LLST18
C:\Users\stapi\AppData\Local\Temp\cc2ecMOd.s:5392   .debug_loc:00000000000004b7 .LLST19
C:\Users\stapi\AppData\Local\Temp\cc2ecMOd.s:307    .text.wpa_gen_wpa_ie:000000000000008a .LBB70
C:\Users\stapi\AppData\Local\Temp\cc2ecMOd.s:329    .text.wpa_gen_wpa_ie:00000000000000a6 .LBE70
C:\Users\stapi\AppData\Local\Temp\cc2ecMOd.s:5401   .debug_loc:00000000000004cc .LLST20
C:\Users\stapi\AppData\Local\Temp\cc2ecMOd.s:5408   .debug_loc:00000000000004df .LLST21
C:\Users\stapi\AppData\Local\Temp\cc2ecMOd.s:379    .text.wpa_gen_wpa_ie:00000000000000da .LBB72
C:\Users\stapi\AppData\Local\Temp\cc2ecMOd.s:5417   .debug_loc:00000000000004f4 .LLST22
C:\Users\stapi\AppData\Local\Temp\cc2ecMOd.s:5424   .debug_loc:0000000000000507 .LLST23
C:\Users\stapi\AppData\Local\Temp\cc2ecMOd.s:420    .text.wpa_gen_wpa_ie:0000000000000106 .LBB76
C:\Users\stapi\AppData\Local\Temp\cc2ecMOd.s:440    .text.wpa_gen_wpa_ie:000000000000011c .LBE76
C:\Users\stapi\AppData\Local\Temp\cc2ecMOd.s:5433   .debug_loc:000000000000051c .LLST24
C:\Users\stapi\AppData\Local\Temp\cc2ecMOd.s:5442   .debug_loc:0000000000000534 .LLST25
C:\Users\stapi\AppData\Local\Temp\cc2ecMOd.s:446    .text.wpa_gen_wpa_ie:0000000000000126 .LBB78
C:\Users\stapi\AppData\Local\Temp\cc2ecMOd.s:457    .text.wpa_gen_wpa_ie:0000000000000132 .LBE78
C:\Users\stapi\AppData\Local\Temp\cc2ecMOd.s:5451   .debug_loc:0000000000000549 .LLST26
C:\Users\stapi\AppData\Local\Temp\cc2ecMOd.s:5458   .debug_loc:000000000000055c .LLST27
C:\Users\stapi\AppData\Local\Temp\cc2ecMOd.s:504    .text.wpa_gen_wpa_ie:0000000000000170 .LBB80
C:\Users\stapi\AppData\Local\Temp\cc2ecMOd.s:514    .text.wpa_gen_wpa_ie:0000000000000178 .LBE80
C:\Users\stapi\AppData\Local\Temp\cc2ecMOd.s:5467   .debug_loc:0000000000000571 .LLST28
C:\Users\stapi\AppData\Local\Temp\cc2ecMOd.s:5475   .debug_loc:0000000000000585 .LLST29
C:\Users\stapi\AppData\Local\Temp\cc2ecMOd.s:525    .text.wpa_gen_wpa_ie:0000000000000186 .LBB82
C:\Users\stapi\AppData\Local\Temp\cc2ecMOd.s:547    .text.wpa_gen_wpa_ie:00000000000001a2 .LBE82
C:\Users\stapi\AppData\Local\Temp\cc2ecMOd.s:5482   .debug_loc:0000000000000598 .LLST30
C:\Users\stapi\AppData\Local\Temp\cc2ecMOd.s:5489   .debug_loc:00000000000005ab .LLST31
C:\Users\stapi\AppData\Local\Temp\cc2ecMOd.s:584    .text.wpa_gen_wpa_ie:00000000000001ba .LBB84
C:\Users\stapi\AppData\Local\Temp\cc2ecMOd.s:603    .text.wpa_gen_wpa_ie:00000000000001ce .LBE84
C:\Users\stapi\AppData\Local\Temp\cc2ecMOd.s:5496   .debug_loc:00000000000005be .LLST32
C:\Users\stapi\AppData\Local\Temp\cc2ecMOd.s:5505   .debug_loc:00000000000005d6 .LLST33
C:\Users\stapi\AppData\Local\Temp\cc2ecMOd.s:604    .text.wpa_gen_wpa_ie:00000000000001ce .LBB86
C:\Users\stapi\AppData\Local\Temp\cc2ecMOd.s:5514   .debug_loc:00000000000005eb .LLST34
C:\Users\stapi\AppData\Local\Temp\cc2ecMOd.s:5523   .debug_loc:0000000000000603 .LLST35
C:\Users\stapi\AppData\Local\Temp\cc2ecMOd.s:618    .text.wpa_gen_wpa_ie:00000000000001dc .LBB89
C:\Users\stapi\AppData\Local\Temp\cc2ecMOd.s:638    .text.wpa_gen_wpa_ie:00000000000001f2 .LBE89
C:\Users\stapi\AppData\Local\Temp\cc2ecMOd.s:5532   .debug_loc:0000000000000618 .LLST36
C:\Users\stapi\AppData\Local\Temp\cc2ecMOd.s:5541   .debug_loc:0000000000000630 .LLST37
C:\Users\stapi\AppData\Local\Temp\cc2ecMOd.s:230    .text.wpa_gen_wpa_ie:000000000000004e .LVL18
C:\Users\stapi\AppData\Local\Temp\cc2ecMOd.s:291    .text.wpa_gen_wpa_ie:000000000000007a .LVL24
C:\Users\stapi\AppData\Local\Temp\cc2ecMOd.s:344    .text.wpa_gen_wpa_ie:00000000000000ba .LVL30
C:\Users\stapi\AppData\Local\Temp\cc2ecMOd.s:371    .text.wpa_gen_wpa_ie:00000000000000d4 .LVL35
C:\Users\stapi\AppData\Local\Temp\cc2ecMOd.s:445    .text.wpa_gen_wpa_ie:0000000000000126 .LVL40
C:\Users\stapi\AppData\Local\Temp\cc2ecMOd.s:485    .text.wpa_gen_wpa_ie:000000000000015a .LVL46
C:\Users\stapi\AppData\Local\Temp\cc2ecMOd.s:495    .text.wpa_gen_wpa_ie:0000000000000168 .LVL48
C:\Users\stapi\AppData\Local\Temp\cc2ecMOd.s:524    .text.wpa_gen_wpa_ie:0000000000000186 .LVL52
C:\Users\stapi\AppData\Local\Temp\cc2ecMOd.s:354    .text.wpa_gen_wpa_ie:00000000000000be .LBB98
C:\Users\stapi\AppData\Local\Temp\cc2ecMOd.s:5550   .debug_loc:0000000000000645 .LLST38
C:\Users\stapi\AppData\Local\Temp\cc2ecMOd.s:5566   .debug_loc:000000000000066a .LLST39
C:\Users\stapi\AppData\Local\Temp\cc2ecMOd.s:5582   .debug_loc:000000000000068f .LLST40
C:\Users\stapi\AppData\Local\Temp\cc2ecMOd.s:5598   .debug_loc:00000000000006b4 .LLST41
C:\Users\stapi\AppData\Local\Temp\cc2ecMOd.s:5612   .debug_loc:00000000000006d5 .LLST42
C:\Users\stapi\AppData\Local\Temp\cc2ecMOd.s:5619   .debug_loc:00000000000006e8 .LLST43
C:\Users\stapi\AppData\Local\Temp\cc2ecMOd.s:5658   .debug_loc:000000000000073e .LLST44
C:\Users\stapi\AppData\Local\Temp\cc2ecMOd.s:5665   .debug_loc:0000000000000751 .LLST45
C:\Users\stapi\AppData\Local\Temp\cc2ecMOd.s:691    .text.wpa_gen_wpa_ie:0000000000000220 .LBB100
C:\Users\stapi\AppData\Local\Temp\cc2ecMOd.s:712    .text.wpa_gen_wpa_ie:0000000000000238 .LBE100
C:\Users\stapi\AppData\Local\Temp\cc2ecMOd.s:5680   .debug_loc:000000000000077a .LLST46
C:\Users\stapi\AppData\Local\Temp\cc2ecMOd.s:5689   .debug_loc:0000000000000792 .LLST47
C:\Users\stapi\AppData\Local\Temp\cc2ecMOd.s:714    .text.wpa_gen_wpa_ie:0000000000000238 .LBB102
C:\Users\stapi\AppData\Local\Temp\cc2ecMOd.s:724    .text.wpa_gen_wpa_ie:0000000000000240 .LBE102
C:\Users\stapi\AppData\Local\Temp\cc2ecMOd.s:5698   .debug_loc:00000000000007a7 .LLST48
C:\Users\stapi\AppData\Local\Temp\cc2ecMOd.s:5706   .debug_loc:00000000000007bb .LLST49
C:\Users\stapi\AppData\Local\Temp\cc2ecMOd.s:739    .text.wpa_gen_wpa_ie:0000000000000254 .LBB104
C:\Users\stapi\AppData\Local\Temp\cc2ecMOd.s:761    .text.wpa_gen_wpa_ie:0000000000000270 .LBE104
C:\Users\stapi\AppData\Local\Temp\cc2ecMOd.s:5715   .debug_loc:00000000000007d0 .LLST50
C:\Users\stapi\AppData\Local\Temp\cc2ecMOd.s:5722   .debug_loc:00000000000007e3 .LLST51
C:\Users\stapi\AppData\Local\Temp\cc2ecMOd.s:794    .text.wpa_gen_wpa_ie:000000000000029a .LBB106
C:\Users\stapi\AppData\Local\Temp\cc2ecMOd.s:5731   .debug_loc:00000000000007f8 .LLST52
C:\Users\stapi\AppData\Local\Temp\cc2ecMOd.s:5738   .debug_loc:000000000000080b .LLST53
C:\Users\stapi\AppData\Local\Temp\cc2ecMOd.s:835    .text.wpa_gen_wpa_ie:00000000000002c6 .LBB110
C:\Users\stapi\AppData\Local\Temp\cc2ecMOd.s:855    .text.wpa_gen_wpa_ie:00000000000002dc .LBE110
C:\Users\stapi\AppData\Local\Temp\cc2ecMOd.s:5747   .debug_loc:0000000000000820 .LLST54
C:\Users\stapi\AppData\Local\Temp\cc2ecMOd.s:5756   .debug_loc:0000000000000838 .LLST55
C:\Users\stapi\AppData\Local\Temp\cc2ecMOd.s:871    .text.wpa_gen_wpa_ie:00000000000002e8 .LBB112
C:\Users\stapi\AppData\Local\Temp\cc2ecMOd.s:893    .text.wpa_gen_wpa_ie:0000000000000300 .LBE112
C:\Users\stapi\AppData\Local\Temp\cc2ecMOd.s:5765   .debug_loc:000000000000084d .LLST56
C:\Users\stapi\AppData\Local\Temp\cc2ecMOd.s:5774   .debug_loc:0000000000000865 .LLST57
C:\Users\stapi\AppData\Local\Temp\cc2ecMOd.s:732    .text.wpa_gen_wpa_ie:000000000000024e .LVL69
C:\Users\stapi\AppData\Local\Temp\cc2ecMOd.s:776    .text.wpa_gen_wpa_ie:0000000000000284 .LVL74
C:\Users\stapi\AppData\Local\Temp\cc2ecMOd.s:786    .text.wpa_gen_wpa_ie:0000000000000294 .LVL77
C:\Users\stapi\AppData\Local\Temp\cc2ecMOd.s:6379   .debug_str:0000000000000b62 .LASF224
C:\Users\stapi\AppData\Local\Temp\cc2ecMOd.s:5993   .debug_str:0000000000000098 .LASF220
C:\Users\stapi\AppData\Local\Temp\cc2ecMOd.s:6429   .debug_str:0000000000000dbe .LASF221
C:\Users\stapi\AppData\Local\Temp\cc2ecMOd.s:6263   .debug_str:00000000000007c3 .LASF222
C:\Users\stapi\AppData\Local\Temp\cc2ecMOd.s:6023   .debug_str:0000000000000165 .LASF223
C:\Users\stapi\AppData\Local\Temp\cc2ecMOd.s:88     .text.rsn_supp_capab:0000000000000000 .LFB129
C:\Users\stapi\AppData\Local\Temp\cc2ecMOd.s:139    .text.rsn_supp_capab:000000000000002e .LFE129
C:\Users\stapi\AppData\Local\Temp\cc2ecMOd.s:5783   .debug_loc:000000000000087a .LLST3
C:\Users\stapi\AppData\Local\Temp\cc2ecMOd.s:5801   .debug_loc:00000000000008a6 .LLST4
C:\Users\stapi\AppData\Local\Temp\cc2ecMOd.s:6281   .debug_str:00000000000008ba .LASF225
C:\Users\stapi\AppData\Local\Temp\cc2ecMOd.s:6397   .debug_str:0000000000000be2 .LASF226
C:\Users\stapi\AppData\Local\Temp\cc2ecMOd.s:14     .text.wpa_parse_wpa_ie:0000000000000000 .LFB127
C:\Users\stapi\AppData\Local\Temp\cc2ecMOd.s:81     .text.wpa_parse_wpa_ie:0000000000000074 .LFE127
C:\Users\stapi\AppData\Local\Temp\cc2ecMOd.s:5819   .debug_loc:00000000000008d2 .LLST0
C:\Users\stapi\AppData\Local\Temp\cc2ecMOd.s:5844   .debug_loc:000000000000090c .LLST1
C:\Users\stapi\AppData\Local\Temp\cc2ecMOd.s:6259   .debug_str:00000000000007b4 .LASF227
C:\Users\stapi\AppData\Local\Temp\cc2ecMOd.s:5869   .debug_loc:0000000000000946 .LLST2
C:\Users\stapi\AppData\Local\Temp\cc2ecMOd.s:34     .text.wpa_parse_wpa_ie:000000000000001e .LVL1
C:\Users\stapi\AppData\Local\Temp\cc2ecMOd.s:78     .text.wpa_parse_wpa_ie:0000000000000072 .LVL5
C:\Users\stapi\AppData\Local\Temp\cc2ecMOd.s:6219   .debug_str:00000000000006ba .LASF228
C:\Users\stapi\AppData\Local\Temp\cc2ecMOd.s:6255   .debug_str:000000000000079b .LASF230
C:\Users\stapi\AppData\Local\Temp\cc2ecMOd.s:6167   .debug_str:0000000000000589 .LASF229
C:\Users\stapi\AppData\Local\Temp\cc2ecMOd.s:6089   .debug_str:0000000000000319 .LASF231
C:\Users\stapi\AppData\Local\Temp\cc2ecMOd.s:6313   .debug_str:0000000000000998 .LASF232
C:\Users\stapi\AppData\Local\Temp\cc2ecMOd.s:6009   .debug_str:000000000000010a .LASF233
C:\Users\stapi\AppData\Local\Temp\cc2ecMOd.s:6121   .debug_str:0000000000000464 .LASF234
C:\Users\stapi\AppData\Local\Temp\cc2ecMOd.s:6127   .debug_str:0000000000000493 .LASF235
C:\Users\stapi\AppData\Local\Temp\cc2ecMOd.s:6021   .debug_str:0000000000000149 .LASF236
C:\Users\stapi\AppData\Local\Temp\cc2ecMOd.s:6079   .debug_str:00000000000002e5 .LASF237
C:\Users\stapi\AppData\Local\Temp\cc2ecMOd.s:6451   .debug_str:0000000000000e58 .LASF238
C:\Users\stapi\AppData\Local\Temp\cc2ecMOd.s:912    .text.wpa_gen_rsnxe:0000000000000000 .LVL85
C:\Users\stapi\AppData\Local\Temp\cc2ecMOd.s:938    .text.wpa_gen_rsnxe:000000000000001a .LVL86
C:\Users\stapi\AppData\Local\Temp\cc2ecMOd.s:1003   .text.wpa_gen_rsnxe:0000000000000064 .LVL93
C:\Users\stapi\AppData\Local\Temp\cc2ecMOd.s:1008   .text.wpa_gen_rsnxe:0000000000000068 .LVL94
C:\Users\stapi\AppData\Local\Temp\cc2ecMOd.s:1014   .text.wpa_gen_rsnxe:0000000000000070 .LVL95
C:\Users\stapi\AppData\Local\Temp\cc2ecMOd.s:1022   .text.wpa_gen_rsnxe:0000000000000076 .LVL97
C:\Users\stapi\AppData\Local\Temp\cc2ecMOd.s:1036   .text.wpa_gen_rsnxe:0000000000000082 .LVL100
C:\Users\stapi\AppData\Local\Temp\cc2ecMOd.s:1038   .text.wpa_gen_rsnxe:0000000000000084 .LVL101
C:\Users\stapi\AppData\Local\Temp\cc2ecMOd.s:1053   .text.wpa_gen_rsnxe:0000000000000094 .LVL103
C:\Users\stapi\AppData\Local\Temp\cc2ecMOd.s:949    .text.wpa_gen_rsnxe:000000000000002a .LVL87
C:\Users\stapi\AppData\Local\Temp\cc2ecMOd.s:998    .text.wpa_gen_rsnxe:000000000000005e .LVL92
C:\Users\stapi\AppData\Local\Temp\cc2ecMOd.s:981    .text.wpa_gen_rsnxe:0000000000000048 .LVL91
C:\Users\stapi\AppData\Local\Temp\cc2ecMOd.s:1045   .text.wpa_gen_rsnxe:000000000000008e .LVL102
C:\Users\stapi\AppData\Local\Temp\cc2ecMOd.s:162    .text.wpa_gen_wpa_ie:0000000000000000 .LVL13
C:\Users\stapi\AppData\Local\Temp\cc2ecMOd.s:226    .text.wpa_gen_wpa_ie:0000000000000046 .LVL17
C:\Users\stapi\AppData\Local\Temp\cc2ecMOd.s:251    .text.wpa_gen_wpa_ie:000000000000005a .LVL19
C:\Users\stapi\AppData\Local\Temp\cc2ecMOd.s:288    .text.wpa_gen_wpa_ie:0000000000000070 .LVL23
C:\Users\stapi\AppData\Local\Temp\cc2ecMOd.s:296    .text.wpa_gen_wpa_ie:000000000000007e .LVL25
C:\Users\stapi\AppData\Local\Temp\cc2ecMOd.s:304    .text.wpa_gen_wpa_ie:000000000000008a .LVL26
C:\Users\stapi\AppData\Local\Temp\cc2ecMOd.s:350    .text.wpa_gen_wpa_ie:00000000000000be .LVL32
C:\Users\stapi\AppData\Local\Temp\cc2ecMOd.s:361    .text.wpa_gen_wpa_ie:00000000000000ca .LVL33
C:\Users\stapi\AppData\Local\Temp\cc2ecMOd.s:558    .text.wpa_gen_wpa_ie:00000000000001ac .LVL55
C:\Users\stapi\AppData\Local\Temp\cc2ecMOd.s:572    .text.wpa_gen_wpa_ie:00000000000001b2 .LVL56
C:\Users\stapi\AppData\Local\Temp\cc2ecMOd.s:662    .text.wpa_gen_wpa_ie:0000000000000210 .LVL62
C:\Users\stapi\AppData\Local\Temp\cc2ecMOd.s:679    .text.wpa_gen_wpa_ie:0000000000000214 .LVL63
C:\Users\stapi\AppData\Local\Temp\cc2ecMOd.s:222    .text.wpa_gen_wpa_ie:000000000000003e .LVL16
C:\Users\stapi\AppData\Local\Temp\cc2ecMOd.s:184    .text.wpa_gen_wpa_ie:0000000000000016 .LVL14
C:\Users\stapi\AppData\Local\Temp\cc2ecMOd.s:260    .text.wpa_gen_wpa_ie:000000000000005e .LVL20
C:\Users\stapi\AppData\Local\Temp\cc2ecMOd.s:687    .text.wpa_gen_wpa_ie:000000000000021c .LVL65
C:\Users\stapi\AppData\Local\Temp\cc2ecMOd.s:206    .text.wpa_gen_wpa_ie:000000000000002e .LVL15
C:\Users\stapi\AppData\Local\Temp\cc2ecMOd.s:271    .text.wpa_gen_wpa_ie:0000000000000066 .LVL21
C:\Users\stapi\AppData\Local\Temp\cc2ecMOd.s:281    .text.wpa_gen_wpa_ie:000000000000006e .LVL22
C:\Users\stapi\AppData\Local\Temp\cc2ecMOd.s:327    .text.wpa_gen_wpa_ie:00000000000000a6 .LVL27
C:\Users\stapi\AppData\Local\Temp\cc2ecMOd.s:335    .text.wpa_gen_wpa_ie:00000000000000aa .LVL28
C:\Users\stapi\AppData\Local\Temp\cc2ecMOd.s:406    .text.wpa_gen_wpa_ie:00000000000000fc .LVL37
C:\Users\stapi\AppData\Local\Temp\cc2ecMOd.s:437    .text.wpa_gen_wpa_ie:000000000000011c .LVL39
C:\Users\stapi\AppData\Local\Temp\cc2ecMOd.s:455    .text.wpa_gen_wpa_ie:0000000000000132 .LVL41
C:\Users\stapi\AppData\Local\Temp\cc2ecMOd.s:464    .text.wpa_gen_wpa_ie:000000000000013a .LVL42
C:\Users\stapi\AppData\Local\Temp\cc2ecMOd.s:468    .text.wpa_gen_wpa_ie:000000000000013c .LVL43
C:\Users\stapi\AppData\Local\Temp\cc2ecMOd.s:473    .text.wpa_gen_wpa_ie:0000000000000142 .LVL44
C:\Users\stapi\AppData\Local\Temp\cc2ecMOd.s:482    .text.wpa_gen_wpa_ie:0000000000000150 .LVL45
C:\Users\stapi\AppData\Local\Temp\cc2ecMOd.s:489    .text.wpa_gen_wpa_ie:000000000000015e .LVL47
C:\Users\stapi\AppData\Local\Temp\cc2ecMOd.s:342    .text.wpa_gen_wpa_ie:00000000000000b2 .LVL29
C:\Users\stapi\AppData\Local\Temp\cc2ecMOd.s:346    .text.wpa_gen_wpa_ie:00000000000000bc .LVL31
C:\Users\stapi\AppData\Local\Temp\cc2ecMOd.s:369    .text.wpa_gen_wpa_ie:00000000000000cc .LVL34
C:\Users\stapi\AppData\Local\Temp\cc2ecMOd.s:378    .text.wpa_gen_wpa_ie:00000000000000da .LVL36
C:\Users\stapi\AppData\Local\Temp\cc2ecMOd.s:419    .text.wpa_gen_wpa_ie:0000000000000106 .LVL38
C:\Users\stapi\AppData\Local\Temp\cc2ecMOd.s:503    .text.wpa_gen_wpa_ie:0000000000000170 .LVL49
C:\Users\stapi\AppData\Local\Temp\cc2ecMOd.s:512    .text.wpa_gen_wpa_ie:0000000000000178 .LVL50
C:\Users\stapi\AppData\Local\Temp\cc2ecMOd.s:545    .text.wpa_gen_wpa_ie:00000000000001a2 .LVL53
C:\Users\stapi\AppData\Local\Temp\cc2ecMOd.s:583    .text.wpa_gen_wpa_ie:00000000000001ba .LVL57
C:\Users\stapi\AppData\Local\Temp\cc2ecMOd.s:600    .text.wpa_gen_wpa_ie:00000000000001ce .LVL58
C:\Users\stapi\AppData\Local\Temp\cc2ecMOd.s:644    .text.wpa_gen_wpa_ie:00000000000001fa .LVL61
C:\Users\stapi\AppData\Local\Temp\cc2ecMOd.s:617    .text.wpa_gen_wpa_ie:00000000000001dc .LVL59
C:\Users\stapi\AppData\Local\Temp\cc2ecMOd.s:635    .text.wpa_gen_wpa_ie:00000000000001f2 .LVL60
C:\Users\stapi\AppData\Local\Temp\cc2ecMOd.s:689    .text.wpa_gen_wpa_ie:0000000000000220 .LVL66
C:\Users\stapi\AppData\Local\Temp\cc2ecMOd.s:890    .text.wpa_gen_wpa_ie:0000000000000300 .LVL84
C:\Users\stapi\AppData\Local\Temp\cc2ecMOd.s:722    .text.wpa_gen_wpa_ie:0000000000000240 .LVL68
C:\Users\stapi\AppData\Local\Temp\cc2ecMOd.s:759    .text.wpa_gen_wpa_ie:0000000000000270 .LVL71
C:\Users\stapi\AppData\Local\Temp\cc2ecMOd.s:767    .text.wpa_gen_wpa_ie:0000000000000274 .LVL72
C:\Users\stapi\AppData\Local\Temp\cc2ecMOd.s:821    .text.wpa_gen_wpa_ie:00000000000002bc .LVL79
C:\Users\stapi\AppData\Local\Temp\cc2ecMOd.s:852    .text.wpa_gen_wpa_ie:00000000000002dc .LVL81
C:\Users\stapi\AppData\Local\Temp\cc2ecMOd.s:863    .text.wpa_gen_wpa_ie:00000000000002e2 .LVL82
C:\Users\stapi\AppData\Local\Temp\cc2ecMOd.s:683    .text.wpa_gen_wpa_ie:0000000000000218 .LVL64
C:\Users\stapi\AppData\Local\Temp\cc2ecMOd.s:774    .text.wpa_gen_wpa_ie:000000000000027c .LVL73
C:\Users\stapi\AppData\Local\Temp\cc2ecMOd.s:778    .text.wpa_gen_wpa_ie:0000000000000286 .LVL75
C:\Users\stapi\AppData\Local\Temp\cc2ecMOd.s:784    .text.wpa_gen_wpa_ie:000000000000028c .LVL76
C:\Users\stapi\AppData\Local\Temp\cc2ecMOd.s:710    .text.wpa_gen_wpa_ie:0000000000000238 .LVL67
C:\Users\stapi\AppData\Local\Temp\cc2ecMOd.s:738    .text.wpa_gen_wpa_ie:0000000000000254 .LVL70
C:\Users\stapi\AppData\Local\Temp\cc2ecMOd.s:793    .text.wpa_gen_wpa_ie:000000000000029a .LVL78
C:\Users\stapi\AppData\Local\Temp\cc2ecMOd.s:834    .text.wpa_gen_wpa_ie:00000000000002c6 .LVL80
C:\Users\stapi\AppData\Local\Temp\cc2ecMOd.s:870    .text.wpa_gen_wpa_ie:00000000000002e8 .LVL83
C:\Users\stapi\AppData\Local\Temp\cc2ecMOd.s:91     .text.rsn_supp_capab:0000000000000000 .LVL6
C:\Users\stapi\AppData\Local\Temp\cc2ecMOd.s:100    .text.rsn_supp_capab:0000000000000008 .LVL7
C:\Users\stapi\AppData\Local\Temp\cc2ecMOd.s:128    .text.rsn_supp_capab:0000000000000026 .LVL11
C:\Users\stapi\AppData\Local\Temp\cc2ecMOd.s:104    .text.rsn_supp_capab:000000000000000a .LVL8
C:\Users\stapi\AppData\Local\Temp\cc2ecMOd.s:114    .text.rsn_supp_capab:0000000000000018 .LVL9
C:\Users\stapi\AppData\Local\Temp\cc2ecMOd.s:18     .text.wpa_parse_wpa_ie:0000000000000000 .LVL0
C:\Users\stapi\AppData\Local\Temp\cc2ecMOd.s:41     .text.wpa_parse_wpa_ie:0000000000000026 .LVL2
C:\Users\stapi\AppData\Local\Temp\cc2ecMOd.s:1073   .debug_info:0000000000000000 .Ldebug_info0
C:\Users\stapi\AppData\Local\Temp\cc2ecMOd.s:201    .text.wpa_gen_wpa_ie:0000000000000028 .LBE64
C:\Users\stapi\AppData\Local\Temp\cc2ecMOd.s:207    .text.wpa_gen_wpa_ie:000000000000002e .LBB96
C:\Users\stapi\AppData\Local\Temp\cc2ecMOd.s:236    .text.wpa_gen_wpa_ie:0000000000000050 .LBE96
C:\Users\stapi\AppData\Local\Temp\cc2ecMOd.s:254    .text.wpa_gen_wpa_ie:000000000000005a .LBB97
C:\Users\stapi\AppData\Local\Temp\cc2ecMOd.s:353    .text.wpa_gen_wpa_ie:00000000000000be .LBE97
C:\Users\stapi\AppData\Local\Temp\cc2ecMOd.s:365    .text.wpa_gen_wpa_ie:00000000000000ca .LBB116
C:\Users\stapi\AppData\Local\Temp\cc2ecMOd.s:561    .text.wpa_gen_wpa_ie:00000000000001ac .LBE116
C:\Users\stapi\AppData\Local\Temp\cc2ecMOd.s:576    .text.wpa_gen_wpa_ie:00000000000001b2 .LBB118
C:\Users\stapi\AppData\Local\Temp\cc2ecMOd.s:667    .text.wpa_gen_wpa_ie:0000000000000210 .LBE118
C:\Users\stapi\AppData\Local\Temp\cc2ecMOd.s:266    .text.wpa_gen_wpa_ie:0000000000000060 .LBE66
C:\Users\stapi\AppData\Local\Temp\cc2ecMOd.s:273    .text.wpa_gen_wpa_ie:0000000000000066 .LBB69
C:\Users\stapi\AppData\Local\Temp\cc2ecMOd.s:283    .text.wpa_gen_wpa_ie:000000000000006e .LBE69
C:\Users\stapi\AppData\Local\Temp\cc2ecMOd.s:398    .text.wpa_gen_wpa_ie:00000000000000f2 .LBE72
C:\Users\stapi\AppData\Local\Temp\cc2ecMOd.s:402    .text.wpa_gen_wpa_ie:00000000000000f8 .LBB75
C:\Users\stapi\AppData\Local\Temp\cc2ecMOd.s:408    .text.wpa_gen_wpa_ie:00000000000000fc .LBE75
C:\Users\stapi\AppData\Local\Temp\cc2ecMOd.s:611    .text.wpa_gen_wpa_ie:00000000000001d4 .LBE86
C:\Users\stapi\AppData\Local\Temp\cc2ecMOd.s:645    .text.wpa_gen_wpa_ie:00000000000001fa .LBB91
C:\Users\stapi\AppData\Local\Temp\cc2ecMOd.s:665    .text.wpa_gen_wpa_ie:0000000000000210 .LBE91
C:\Users\stapi\AppData\Local\Temp\cc2ecMOd.s:364    .text.wpa_gen_wpa_ie:00000000000000ca .LBE98
C:\Users\stapi\AppData\Local\Temp\cc2ecMOd.s:562    .text.wpa_gen_wpa_ie:00000000000001ac .LBB117
C:\Users\stapi\AppData\Local\Temp\cc2ecMOd.s:575    .text.wpa_gen_wpa_ie:00000000000001b2 .LBE117
C:\Users\stapi\AppData\Local\Temp\cc2ecMOd.s:669    .text.wpa_gen_wpa_ie:0000000000000210 .LBB119
C:\Users\stapi\AppData\Local\Temp\cc2ecMOd.s:900    .text.wpa_gen_wpa_ie:000000000000030c .LBE119
C:\Users\stapi\AppData\Local\Temp\cc2ecMOd.s:813    .text.wpa_gen_wpa_ie:00000000000002b2 .LBE106
C:\Users\stapi\AppData\Local\Temp\cc2ecMOd.s:817    .text.wpa_gen_wpa_ie:00000000000002b8 .LBB109
C:\Users\stapi\AppData\Local\Temp\cc2ecMOd.s:823    .text.wpa_gen_wpa_ie:00000000000002bc .LBE109

UNDEFINED SYMBOLS
__riscv_save_0
wpa_parse_wpa_ie_rsn
__riscv_restore_0
wpa_parse_wpa_ie_wpa
__riscv_save_7
wpa_printf
__riscv_restore_7
wpa_cipher_to_suite
wpa_cipher_valid_pairwise
os_memcpy
wpa_cipher_valid_mgmt_group
