   1              		.file	"wpa_md5.c"
   2              		.option nopic
   3              		.attribute arch, "rv32i2p0_m2p0_a2p0_f2p0_c2p0_b_p0p94"
   4              		.attribute unaligned_access, 0
   5              		.attribute stack_align, 16
   6              		.text
   7              	.Ltext0:
   8              		.cfi_sections	.debug_frame
   9              		.section	.text.hmac_md5_vector,"ax",@progbits
  10              		.align	1
  11              		.globl	hmac_md5_vector
  13              	hmac_md5_vector:
  14              	.LFB432:
  15              		.file 1 "C:/Users/stapi/OneDrive/Desktop/GD32VW553/V1_MQTT_OK/GD32VW55X_Wifi_BLE_SDK/GD32VW55x_REL
   1:C:/Users/stapi/OneDrive/Desktop/GD32VW553/V1_MQTT_OK/GD32VW55X_Wifi_BLE_SDK/GD32VW55x_RELEASE_V1.0.2/MSDK/wpa_supplicant/src/crypto\wpa_md5.c **** /*
   2:C:/Users/stapi/OneDrive/Desktop/GD32VW553/V1_MQTT_OK/GD32VW55X_Wifi_BLE_SDK/GD32VW55x_RELEASE_V1.0.2/MSDK/wpa_supplicant/src/crypto\wpa_md5.c ****  * MD5 hash implementation and interface functions
   3:C:/Users/stapi/OneDrive/Desktop/GD32VW553/V1_MQTT_OK/GD32VW55X_Wifi_BLE_SDK/GD32VW55x_RELEASE_V1.0.2/MSDK/wpa_supplicant/src/crypto\wpa_md5.c ****  * Copyright (c) 2003-2005, Jouni Malinen <j@w1.fi>
   4:C:/Users/stapi/OneDrive/Desktop/GD32VW553/V1_MQTT_OK/GD32VW55X_Wifi_BLE_SDK/GD32VW55x_RELEASE_V1.0.2/MSDK/wpa_supplicant/src/crypto\wpa_md5.c ****  *
   5:C:/Users/stapi/OneDrive/Desktop/GD32VW553/V1_MQTT_OK/GD32VW55X_Wifi_BLE_SDK/GD32VW55x_RELEASE_V1.0.2/MSDK/wpa_supplicant/src/crypto\wpa_md5.c ****  * This software may be distributed under the terms of the BSD license.
   6:C:/Users/stapi/OneDrive/Desktop/GD32VW553/V1_MQTT_OK/GD32VW55X_Wifi_BLE_SDK/GD32VW55x_RELEASE_V1.0.2/MSDK/wpa_supplicant/src/crypto\wpa_md5.c ****  * See README for more details.
   7:C:/Users/stapi/OneDrive/Desktop/GD32VW553/V1_MQTT_OK/GD32VW55X_Wifi_BLE_SDK/GD32VW55x_RELEASE_V1.0.2/MSDK/wpa_supplicant/src/crypto\wpa_md5.c ****  */
   8:C:/Users/stapi/OneDrive/Desktop/GD32VW553/V1_MQTT_OK/GD32VW55X_Wifi_BLE_SDK/GD32VW55x_RELEASE_V1.0.2/MSDK/wpa_supplicant/src/crypto\wpa_md5.c **** 
   9:C:/Users/stapi/OneDrive/Desktop/GD32VW553/V1_MQTT_OK/GD32VW55X_Wifi_BLE_SDK/GD32VW55x_RELEASE_V1.0.2/MSDK/wpa_supplicant/src/crypto\wpa_md5.c **** #include "gd32vw55x_hau.h"
  10:C:/Users/stapi/OneDrive/Desktop/GD32VW553/V1_MQTT_OK/GD32VW55X_Wifi_BLE_SDK/GD32VW55x_RELEASE_V1.0.2/MSDK/wpa_supplicant/src/crypto\wpa_md5.c **** #include "includes.h"
  11:C:/Users/stapi/OneDrive/Desktop/GD32VW553/V1_MQTT_OK/GD32VW55X_Wifi_BLE_SDK/GD32VW55x_RELEASE_V1.0.2/MSDK/wpa_supplicant/src/crypto\wpa_md5.c **** #include "common.h"
  12:C:/Users/stapi/OneDrive/Desktop/GD32VW553/V1_MQTT_OK/GD32VW55X_Wifi_BLE_SDK/GD32VW55x_RELEASE_V1.0.2/MSDK/wpa_supplicant/src/crypto\wpa_md5.c **** #include "md5.h"
  13:C:/Users/stapi/OneDrive/Desktop/GD32VW553/V1_MQTT_OK/GD32VW55X_Wifi_BLE_SDK/GD32VW55x_RELEASE_V1.0.2/MSDK/wpa_supplicant/src/crypto\wpa_md5.c **** #include "crypto.h"
  14:C:/Users/stapi/OneDrive/Desktop/GD32VW553/V1_MQTT_OK/GD32VW55X_Wifi_BLE_SDK/GD32VW55x_RELEASE_V1.0.2/MSDK/wpa_supplicant/src/crypto\wpa_md5.c **** 
  15:C:/Users/stapi/OneDrive/Desktop/GD32VW553/V1_MQTT_OK/GD32VW55X_Wifi_BLE_SDK/GD32VW55x_RELEASE_V1.0.2/MSDK/wpa_supplicant/src/crypto\wpa_md5.c **** /**
  16:C:/Users/stapi/OneDrive/Desktop/GD32VW553/V1_MQTT_OK/GD32VW55X_Wifi_BLE_SDK/GD32VW55x_RELEASE_V1.0.2/MSDK/wpa_supplicant/src/crypto\wpa_md5.c ****  * hmac_md5_vector - HMAC-MD5 over data vector (RFC 2104)
  17:C:/Users/stapi/OneDrive/Desktop/GD32VW553/V1_MQTT_OK/GD32VW55X_Wifi_BLE_SDK/GD32VW55x_RELEASE_V1.0.2/MSDK/wpa_supplicant/src/crypto\wpa_md5.c ****  * @key: Key for HMAC operations
  18:C:/Users/stapi/OneDrive/Desktop/GD32VW553/V1_MQTT_OK/GD32VW55X_Wifi_BLE_SDK/GD32VW55x_RELEASE_V1.0.2/MSDK/wpa_supplicant/src/crypto\wpa_md5.c ****  * @key_len: Length of the key in bytes
  19:C:/Users/stapi/OneDrive/Desktop/GD32VW553/V1_MQTT_OK/GD32VW55X_Wifi_BLE_SDK/GD32VW55x_RELEASE_V1.0.2/MSDK/wpa_supplicant/src/crypto\wpa_md5.c ****  * @num_elem: Number of elements in the data vector
  20:C:/Users/stapi/OneDrive/Desktop/GD32VW553/V1_MQTT_OK/GD32VW55X_Wifi_BLE_SDK/GD32VW55x_RELEASE_V1.0.2/MSDK/wpa_supplicant/src/crypto\wpa_md5.c ****  * @addr: Pointers to the data areas
  21:C:/Users/stapi/OneDrive/Desktop/GD32VW553/V1_MQTT_OK/GD32VW55X_Wifi_BLE_SDK/GD32VW55x_RELEASE_V1.0.2/MSDK/wpa_supplicant/src/crypto\wpa_md5.c ****  * @len: Lengths of the data blocks
  22:C:/Users/stapi/OneDrive/Desktop/GD32VW553/V1_MQTT_OK/GD32VW55X_Wifi_BLE_SDK/GD32VW55x_RELEASE_V1.0.2/MSDK/wpa_supplicant/src/crypto\wpa_md5.c ****  * @mac: Buffer for the hash (16 bytes)
  23:C:/Users/stapi/OneDrive/Desktop/GD32VW553/V1_MQTT_OK/GD32VW55X_Wifi_BLE_SDK/GD32VW55x_RELEASE_V1.0.2/MSDK/wpa_supplicant/src/crypto\wpa_md5.c ****  * Returns: 0 on success, -1 on failure
  24:C:/Users/stapi/OneDrive/Desktop/GD32VW553/V1_MQTT_OK/GD32VW55X_Wifi_BLE_SDK/GD32VW55x_RELEASE_V1.0.2/MSDK/wpa_supplicant/src/crypto\wpa_md5.c ****  */
  25:C:/Users/stapi/OneDrive/Desktop/GD32VW553/V1_MQTT_OK/GD32VW55X_Wifi_BLE_SDK/GD32VW55x_RELEASE_V1.0.2/MSDK/wpa_supplicant/src/crypto\wpa_md5.c **** int hmac_md5_vector(const u8 *key, size_t key_len, size_t num_elem,
  26:C:/Users/stapi/OneDrive/Desktop/GD32VW553/V1_MQTT_OK/GD32VW55X_Wifi_BLE_SDK/GD32VW55x_RELEASE_V1.0.2/MSDK/wpa_supplicant/src/crypto\wpa_md5.c **** 		    const u8 *addr[], const size_t *len, u8 *mac)
  27:C:/Users/stapi/OneDrive/Desktop/GD32VW553/V1_MQTT_OK/GD32VW55X_Wifi_BLE_SDK/GD32VW55x_RELEASE_V1.0.2/MSDK/wpa_supplicant/src/crypto\wpa_md5.c **** {
  16              		.loc 1 27 1
  17              		.cfi_startproc
  18              	.LVL0:
  19 0000 17030000 		call	t0,__riscv_save_10
  19      E7020300 
  20              		.cfi_offset 25, -44
  21              		.cfi_offset 24, -40
  22              		.cfi_offset 23, -36
  23              		.cfi_offset 22, -32
  24              		.cfi_offset 21, -28
  25              		.cfi_offset 20, -24
  26              		.cfi_offset 19, -20
  27              		.cfi_offset 18, -16
  28              		.cfi_offset 9, -12
  29              		.cfi_offset 8, -8
  30              		.cfi_offset 1, -4
  31              		.cfi_def_cfa_offset 48
  28:C:/Users/stapi/OneDrive/Desktop/GD32VW553/V1_MQTT_OK/GD32VW55X_Wifi_BLE_SDK/GD32VW55x_RELEASE_V1.0.2/MSDK/wpa_supplicant/src/crypto\wpa_md5.c **** #ifdef WPA_HW_SECURITY_ENGINE_ENABLE
  29:C:/Users/stapi/OneDrive/Desktop/GD32VW553/V1_MQTT_OK/GD32VW55X_Wifi_BLE_SDK/GD32VW55x_RELEASE_V1.0.2/MSDK/wpa_supplicant/src/crypto\wpa_md5.c **** 	uint8_t *input = NULL;
  32              		.loc 1 29 2
  33              	.LVL1:
  30:C:/Users/stapi/OneDrive/Desktop/GD32VW553/V1_MQTT_OK/GD32VW55X_Wifi_BLE_SDK/GD32VW55x_RELEASE_V1.0.2/MSDK/wpa_supplicant/src/crypto\wpa_md5.c **** 	uint32_t input_len = 0;
  34              		.loc 1 30 2
  31:C:/Users/stapi/OneDrive/Desktop/GD32VW553/V1_MQTT_OK/GD32VW55X_Wifi_BLE_SDK/GD32VW55x_RELEASE_V1.0.2/MSDK/wpa_supplicant/src/crypto\wpa_md5.c **** 	uint32_t i;
  35              		.loc 1 31 2
  32:C:/Users/stapi/OneDrive/Desktop/GD32VW553/V1_MQTT_OK/GD32VW55X_Wifi_BLE_SDK/GD32VW55x_RELEASE_V1.0.2/MSDK/wpa_supplicant/src/crypto\wpa_md5.c **** 	int ret;
  36              		.loc 1 32 2
  33:C:/Users/stapi/OneDrive/Desktop/GD32VW553/V1_MQTT_OK/GD32VW55X_Wifi_BLE_SDK/GD32VW55x_RELEASE_V1.0.2/MSDK/wpa_supplicant/src/crypto\wpa_md5.c **** 
  34:C:/Users/stapi/OneDrive/Desktop/GD32VW553/V1_MQTT_OK/GD32VW55X_Wifi_BLE_SDK/GD32VW55x_RELEASE_V1.0.2/MSDK/wpa_supplicant/src/crypto\wpa_md5.c **** 	for (i = 0; i < num_elem; i++) {
  37              		.loc 1 34 2
  27:C:/Users/stapi/OneDrive/Desktop/GD32VW553/V1_MQTT_OK/GD32VW55X_Wifi_BLE_SDK/GD32VW55x_RELEASE_V1.0.2/MSDK/wpa_supplicant/src/crypto\wpa_md5.c **** #ifdef WPA_HW_SECURITY_ENGINE_ENABLE
  38              		.loc 1 27 1 is_stmt 0
  39 0008 AA8A     		mv	s5,a0
  40 000a 2E8B     		mv	s6,a1
  41 000c 368C     		mv	s8,a3
  42 000e 3A8A     		mv	s4,a4
  43 0010 BE8B     		mv	s7,a5
  44              		.loc 1 34 9
  45 0012 0144     		li	s0,0
  30:C:/Users/stapi/OneDrive/Desktop/GD32VW553/V1_MQTT_OK/GD32VW55X_Wifi_BLE_SDK/GD32VW55x_RELEASE_V1.0.2/MSDK/wpa_supplicant/src/crypto\wpa_md5.c **** 	uint32_t i;
  46              		.loc 1 30 11
  47 0014 0145     		li	a0,0
  48              	.LVL2:
  49              	.L2:
  50              		.loc 1 34 14 is_stmt 1 discriminator 1
  51              		.loc 1 34 2 is_stmt 0 discriminator 1
  52 0016 631DC404 		bne	s0,a2,.L3
  35:C:/Users/stapi/OneDrive/Desktop/GD32VW553/V1_MQTT_OK/GD32VW55X_Wifi_BLE_SDK/GD32VW55x_RELEASE_V1.0.2/MSDK/wpa_supplicant/src/crypto\wpa_md5.c **** 		input_len += len[i];
  36:C:/Users/stapi/OneDrive/Desktop/GD32VW553/V1_MQTT_OK/GD32VW55X_Wifi_BLE_SDK/GD32VW55x_RELEASE_V1.0.2/MSDK/wpa_supplicant/src/crypto\wpa_md5.c **** 	}
  37:C:/Users/stapi/OneDrive/Desktop/GD32VW553/V1_MQTT_OK/GD32VW55X_Wifi_BLE_SDK/GD32VW55x_RELEASE_V1.0.2/MSDK/wpa_supplicant/src/crypto\wpa_md5.c **** 
  38:C:/Users/stapi/OneDrive/Desktop/GD32VW553/V1_MQTT_OK/GD32VW55X_Wifi_BLE_SDK/GD32VW55x_RELEASE_V1.0.2/MSDK/wpa_supplicant/src/crypto\wpa_md5.c **** 	input = (uint8_t *)os_malloc(input_len * sizeof(uint8_t));
  53              		.loc 1 38 2 is_stmt 1
  54              		.loc 1 38 21 is_stmt 0
  55 001a 97000000 		call	os_malloc
  55      E7800000 
  56              	.LVL3:
  57 0022 AA84     		mv	s1,a0
  58              	.LVL4:
  39:C:/Users/stapi/OneDrive/Desktop/GD32VW553/V1_MQTT_OK/GD32VW55X_Wifi_BLE_SDK/GD32VW55x_RELEASE_V1.0.2/MSDK/wpa_supplicant/src/crypto\wpa_md5.c **** 	if(NULL == input)
  59              		.loc 1 39 2 is_stmt 1
  40:C:/Users/stapi/OneDrive/Desktop/GD32VW553/V1_MQTT_OK/GD32VW55X_Wifi_BLE_SDK/GD32VW55x_RELEASE_V1.0.2/MSDK/wpa_supplicant/src/crypto\wpa_md5.c **** 		return -1;
  60              		.loc 1 40 10 is_stmt 0
  61 0024 7D55     		li	a0,-1
  39:C:/Users/stapi/OneDrive/Desktop/GD32VW553/V1_MQTT_OK/GD32VW55X_Wifi_BLE_SDK/GD32VW55x_RELEASE_V1.0.2/MSDK/wpa_supplicant/src/crypto\wpa_md5.c **** 	if(NULL == input)
  62              		.loc 1 39 4
  63 0026 A9C0     		beq	s1,zero,.L1
  64 0028 0A04     		slli	s0,s0,2
  65              	.LVL5:
  66 002a 0149     		li	s2,0
  41:C:/Users/stapi/OneDrive/Desktop/GD32VW553/V1_MQTT_OK/GD32VW55X_Wifi_BLE_SDK/GD32VW55x_RELEASE_V1.0.2/MSDK/wpa_supplicant/src/crypto\wpa_md5.c **** 
  42:C:/Users/stapi/OneDrive/Desktop/GD32VW553/V1_MQTT_OK/GD32VW55X_Wifi_BLE_SDK/GD32VW55x_RELEASE_V1.0.2/MSDK/wpa_supplicant/src/crypto\wpa_md5.c **** 	for (i = 0, input_len = 0; i < num_elem; i++) {
  67              		.loc 1 42 24
  68 002c 8149     		li	s3,0
  69              	.L5:
  70              	.LVL6:
  71              		.loc 1 42 29 is_stmt 1 discriminator 1
  72              		.loc 1 42 2 is_stmt 0 discriminator 1
  73 002e 63178904 		bne	s2,s0,.L6
  43:C:/Users/stapi/OneDrive/Desktop/GD32VW553/V1_MQTT_OK/GD32VW55X_Wifi_BLE_SDK/GD32VW55x_RELEASE_V1.0.2/MSDK/wpa_supplicant/src/crypto\wpa_md5.c **** 		os_memcpy(input + input_len, addr[i], len[i]);
  44:C:/Users/stapi/OneDrive/Desktop/GD32VW553/V1_MQTT_OK/GD32VW55X_Wifi_BLE_SDK/GD32VW55x_RELEASE_V1.0.2/MSDK/wpa_supplicant/src/crypto\wpa_md5.c **** 		input_len += len[i];
  45:C:/Users/stapi/OneDrive/Desktop/GD32VW553/V1_MQTT_OK/GD32VW55X_Wifi_BLE_SDK/GD32VW55x_RELEASE_V1.0.2/MSDK/wpa_supplicant/src/crypto\wpa_md5.c **** 	}
  46:C:/Users/stapi/OneDrive/Desktop/GD32VW553/V1_MQTT_OK/GD32VW55X_Wifi_BLE_SDK/GD32VW55x_RELEASE_V1.0.2/MSDK/wpa_supplicant/src/crypto\wpa_md5.c **** 
  47:C:/Users/stapi/OneDrive/Desktop/GD32VW553/V1_MQTT_OK/GD32VW55X_Wifi_BLE_SDK/GD32VW55x_RELEASE_V1.0.2/MSDK/wpa_supplicant/src/crypto\wpa_md5.c **** 	HW_ACC_ENGINE_LOCK();
  74              		.loc 1 47 2 is_stmt 1
  75 0032 97000000 		call	sys_enter_critical
  75      E7800000 
  76              	.LVL7:
  48:C:/Users/stapi/OneDrive/Desktop/GD32VW553/V1_MQTT_OK/GD32VW55X_Wifi_BLE_SDK/GD32VW55x_RELEASE_V1.0.2/MSDK/wpa_supplicant/src/crypto\wpa_md5.c **** 	ret = hau_hmac_md5((u8 *)key, key_len, input, input_len, mac);
  77              		.loc 1 48 2
  78              		.loc 1 48 8 is_stmt 0
  79 003a 5E87     		mv	a4,s7
  80 003c CE86     		mv	a3,s3
  81 003e 2686     		mv	a2,s1
  82 0040 DA85     		mv	a1,s6
  83 0042 5685     		mv	a0,s5
  84 0044 97000000 		call	hau_hmac_md5
  84      E7800000 
  85              	.LVL8:
  86 004c 2A84     		mv	s0,a0
  87              	.LVL9:
  49:C:/Users/stapi/OneDrive/Desktop/GD32VW553/V1_MQTT_OK/GD32VW55X_Wifi_BLE_SDK/GD32VW55x_RELEASE_V1.0.2/MSDK/wpa_supplicant/src/crypto\wpa_md5.c **** 	HW_ACC_ENGINE_UNLOCK();
  88              		.loc 1 49 2 is_stmt 1
  89 004e 97000000 		call	sys_exit_critical
  89      E7800000 
  90              	.LVL10:
  50:C:/Users/stapi/OneDrive/Desktop/GD32VW553/V1_MQTT_OK/GD32VW55X_Wifi_BLE_SDK/GD32VW55x_RELEASE_V1.0.2/MSDK/wpa_supplicant/src/crypto\wpa_md5.c **** 	os_free(input);
  91              		.loc 1 50 2
  92 0056 2685     		mv	a0,s1
  93 0058 97000000 		call	os_free
  93      E7800000 
  94              	.LVL11:
  51:C:/Users/stapi/OneDrive/Desktop/GD32VW553/V1_MQTT_OK/GD32VW55X_Wifi_BLE_SDK/GD32VW55x_RELEASE_V1.0.2/MSDK/wpa_supplicant/src/crypto\wpa_md5.c **** 	return (ret == ERROR) ? -1 : 0;
  95              		.loc 1 51 2
  96              		.loc 1 51 29 is_stmt 0
  97 0060 13351400 		seqz	a0,s0
  98 0064 3305A040 		neg	a0,a0
  99              	.LVL12:
 100              	.L1:
  52:C:/Users/stapi/OneDrive/Desktop/GD32VW553/V1_MQTT_OK/GD32VW55X_Wifi_BLE_SDK/GD32VW55x_RELEASE_V1.0.2/MSDK/wpa_supplicant/src/crypto\wpa_md5.c **** #else
  53:C:/Users/stapi/OneDrive/Desktop/GD32VW553/V1_MQTT_OK/GD32VW55X_Wifi_BLE_SDK/GD32VW55x_RELEASE_V1.0.2/MSDK/wpa_supplicant/src/crypto\wpa_md5.c **** 	u8 k_pad[64]; /* padding - key XORd with ipad/opad */
  54:C:/Users/stapi/OneDrive/Desktop/GD32VW553/V1_MQTT_OK/GD32VW55X_Wifi_BLE_SDK/GD32VW55x_RELEASE_V1.0.2/MSDK/wpa_supplicant/src/crypto\wpa_md5.c **** 	u8 tk[16];
  55:C:/Users/stapi/OneDrive/Desktop/GD32VW553/V1_MQTT_OK/GD32VW55X_Wifi_BLE_SDK/GD32VW55x_RELEASE_V1.0.2/MSDK/wpa_supplicant/src/crypto\wpa_md5.c **** 	const u8 *_addr[6];
  56:C:/Users/stapi/OneDrive/Desktop/GD32VW553/V1_MQTT_OK/GD32VW55X_Wifi_BLE_SDK/GD32VW55x_RELEASE_V1.0.2/MSDK/wpa_supplicant/src/crypto\wpa_md5.c **** 	size_t i, _len[6];
  57:C:/Users/stapi/OneDrive/Desktop/GD32VW553/V1_MQTT_OK/GD32VW55X_Wifi_BLE_SDK/GD32VW55x_RELEASE_V1.0.2/MSDK/wpa_supplicant/src/crypto\wpa_md5.c **** 	int res;
  58:C:/Users/stapi/OneDrive/Desktop/GD32VW553/V1_MQTT_OK/GD32VW55X_Wifi_BLE_SDK/GD32VW55x_RELEASE_V1.0.2/MSDK/wpa_supplicant/src/crypto\wpa_md5.c **** 
  59:C:/Users/stapi/OneDrive/Desktop/GD32VW553/V1_MQTT_OK/GD32VW55X_Wifi_BLE_SDK/GD32VW55x_RELEASE_V1.0.2/MSDK/wpa_supplicant/src/crypto\wpa_md5.c **** 	if (num_elem > 5) {
  60:C:/Users/stapi/OneDrive/Desktop/GD32VW553/V1_MQTT_OK/GD32VW55X_Wifi_BLE_SDK/GD32VW55x_RELEASE_V1.0.2/MSDK/wpa_supplicant/src/crypto\wpa_md5.c **** 		/*
  61:C:/Users/stapi/OneDrive/Desktop/GD32VW553/V1_MQTT_OK/GD32VW55X_Wifi_BLE_SDK/GD32VW55x_RELEASE_V1.0.2/MSDK/wpa_supplicant/src/crypto\wpa_md5.c **** 		 * Fixed limit on the number of fragments to avoid having to
  62:C:/Users/stapi/OneDrive/Desktop/GD32VW553/V1_MQTT_OK/GD32VW55X_Wifi_BLE_SDK/GD32VW55x_RELEASE_V1.0.2/MSDK/wpa_supplicant/src/crypto\wpa_md5.c **** 		 * allocate memory (which could fail).
  63:C:/Users/stapi/OneDrive/Desktop/GD32VW553/V1_MQTT_OK/GD32VW55X_Wifi_BLE_SDK/GD32VW55x_RELEASE_V1.0.2/MSDK/wpa_supplicant/src/crypto\wpa_md5.c **** 		 */
  64:C:/Users/stapi/OneDrive/Desktop/GD32VW553/V1_MQTT_OK/GD32VW55X_Wifi_BLE_SDK/GD32VW55x_RELEASE_V1.0.2/MSDK/wpa_supplicant/src/crypto\wpa_md5.c **** 		return -1;
  65:C:/Users/stapi/OneDrive/Desktop/GD32VW553/V1_MQTT_OK/GD32VW55X_Wifi_BLE_SDK/GD32VW55x_RELEASE_V1.0.2/MSDK/wpa_supplicant/src/crypto\wpa_md5.c **** 	}
  66:C:/Users/stapi/OneDrive/Desktop/GD32VW553/V1_MQTT_OK/GD32VW55X_Wifi_BLE_SDK/GD32VW55x_RELEASE_V1.0.2/MSDK/wpa_supplicant/src/crypto\wpa_md5.c **** 
  67:C:/Users/stapi/OneDrive/Desktop/GD32VW553/V1_MQTT_OK/GD32VW55X_Wifi_BLE_SDK/GD32VW55x_RELEASE_V1.0.2/MSDK/wpa_supplicant/src/crypto\wpa_md5.c ****         /* if key is longer than 64 bytes reset it to key = MD5(key) */
  68:C:/Users/stapi/OneDrive/Desktop/GD32VW553/V1_MQTT_OK/GD32VW55X_Wifi_BLE_SDK/GD32VW55x_RELEASE_V1.0.2/MSDK/wpa_supplicant/src/crypto\wpa_md5.c ****         if (key_len > 64) {
  69:C:/Users/stapi/OneDrive/Desktop/GD32VW553/V1_MQTT_OK/GD32VW55X_Wifi_BLE_SDK/GD32VW55x_RELEASE_V1.0.2/MSDK/wpa_supplicant/src/crypto\wpa_md5.c **** 		if (md5_vector(1, &key, &key_len, tk))
  70:C:/Users/stapi/OneDrive/Desktop/GD32VW553/V1_MQTT_OK/GD32VW55X_Wifi_BLE_SDK/GD32VW55x_RELEASE_V1.0.2/MSDK/wpa_supplicant/src/crypto\wpa_md5.c **** 			return -1;
  71:C:/Users/stapi/OneDrive/Desktop/GD32VW553/V1_MQTT_OK/GD32VW55X_Wifi_BLE_SDK/GD32VW55x_RELEASE_V1.0.2/MSDK/wpa_supplicant/src/crypto\wpa_md5.c **** 		key = tk;
  72:C:/Users/stapi/OneDrive/Desktop/GD32VW553/V1_MQTT_OK/GD32VW55X_Wifi_BLE_SDK/GD32VW55x_RELEASE_V1.0.2/MSDK/wpa_supplicant/src/crypto\wpa_md5.c **** 		key_len = 16;
  73:C:/Users/stapi/OneDrive/Desktop/GD32VW553/V1_MQTT_OK/GD32VW55X_Wifi_BLE_SDK/GD32VW55x_RELEASE_V1.0.2/MSDK/wpa_supplicant/src/crypto\wpa_md5.c ****         }
  74:C:/Users/stapi/OneDrive/Desktop/GD32VW553/V1_MQTT_OK/GD32VW55X_Wifi_BLE_SDK/GD32VW55x_RELEASE_V1.0.2/MSDK/wpa_supplicant/src/crypto\wpa_md5.c **** 
  75:C:/Users/stapi/OneDrive/Desktop/GD32VW553/V1_MQTT_OK/GD32VW55X_Wifi_BLE_SDK/GD32VW55x_RELEASE_V1.0.2/MSDK/wpa_supplicant/src/crypto\wpa_md5.c **** 	/* the HMAC_MD5 transform looks like:
  76:C:/Users/stapi/OneDrive/Desktop/GD32VW553/V1_MQTT_OK/GD32VW55X_Wifi_BLE_SDK/GD32VW55x_RELEASE_V1.0.2/MSDK/wpa_supplicant/src/crypto\wpa_md5.c **** 	 *
  77:C:/Users/stapi/OneDrive/Desktop/GD32VW553/V1_MQTT_OK/GD32VW55X_Wifi_BLE_SDK/GD32VW55x_RELEASE_V1.0.2/MSDK/wpa_supplicant/src/crypto\wpa_md5.c **** 	 * MD5(K XOR opad, MD5(K XOR ipad, text))
  78:C:/Users/stapi/OneDrive/Desktop/GD32VW553/V1_MQTT_OK/GD32VW55X_Wifi_BLE_SDK/GD32VW55x_RELEASE_V1.0.2/MSDK/wpa_supplicant/src/crypto\wpa_md5.c **** 	 *
  79:C:/Users/stapi/OneDrive/Desktop/GD32VW553/V1_MQTT_OK/GD32VW55X_Wifi_BLE_SDK/GD32VW55x_RELEASE_V1.0.2/MSDK/wpa_supplicant/src/crypto\wpa_md5.c **** 	 * where K is an n byte key
  80:C:/Users/stapi/OneDrive/Desktop/GD32VW553/V1_MQTT_OK/GD32VW55X_Wifi_BLE_SDK/GD32VW55x_RELEASE_V1.0.2/MSDK/wpa_supplicant/src/crypto\wpa_md5.c **** 	 * ipad is the byte 0x36 repeated 64 times
  81:C:/Users/stapi/OneDrive/Desktop/GD32VW553/V1_MQTT_OK/GD32VW55X_Wifi_BLE_SDK/GD32VW55x_RELEASE_V1.0.2/MSDK/wpa_supplicant/src/crypto\wpa_md5.c **** 	 * opad is the byte 0x5c repeated 64 times
  82:C:/Users/stapi/OneDrive/Desktop/GD32VW553/V1_MQTT_OK/GD32VW55X_Wifi_BLE_SDK/GD32VW55x_RELEASE_V1.0.2/MSDK/wpa_supplicant/src/crypto\wpa_md5.c **** 	 * and text is the data being protected */
  83:C:/Users/stapi/OneDrive/Desktop/GD32VW553/V1_MQTT_OK/GD32VW55X_Wifi_BLE_SDK/GD32VW55x_RELEASE_V1.0.2/MSDK/wpa_supplicant/src/crypto\wpa_md5.c **** 
  84:C:/Users/stapi/OneDrive/Desktop/GD32VW553/V1_MQTT_OK/GD32VW55X_Wifi_BLE_SDK/GD32VW55x_RELEASE_V1.0.2/MSDK/wpa_supplicant/src/crypto\wpa_md5.c **** 	/* start out by storing key in ipad */
  85:C:/Users/stapi/OneDrive/Desktop/GD32VW553/V1_MQTT_OK/GD32VW55X_Wifi_BLE_SDK/GD32VW55x_RELEASE_V1.0.2/MSDK/wpa_supplicant/src/crypto\wpa_md5.c **** 	os_memset(k_pad, 0, sizeof(k_pad));
  86:C:/Users/stapi/OneDrive/Desktop/GD32VW553/V1_MQTT_OK/GD32VW55X_Wifi_BLE_SDK/GD32VW55x_RELEASE_V1.0.2/MSDK/wpa_supplicant/src/crypto\wpa_md5.c **** 	os_memcpy(k_pad, key, key_len);
  87:C:/Users/stapi/OneDrive/Desktop/GD32VW553/V1_MQTT_OK/GD32VW55X_Wifi_BLE_SDK/GD32VW55x_RELEASE_V1.0.2/MSDK/wpa_supplicant/src/crypto\wpa_md5.c **** 
  88:C:/Users/stapi/OneDrive/Desktop/GD32VW553/V1_MQTT_OK/GD32VW55X_Wifi_BLE_SDK/GD32VW55x_RELEASE_V1.0.2/MSDK/wpa_supplicant/src/crypto\wpa_md5.c **** 	/* XOR key with ipad values */
  89:C:/Users/stapi/OneDrive/Desktop/GD32VW553/V1_MQTT_OK/GD32VW55X_Wifi_BLE_SDK/GD32VW55x_RELEASE_V1.0.2/MSDK/wpa_supplicant/src/crypto\wpa_md5.c **** 	for (i = 0; i < 64; i++)
  90:C:/Users/stapi/OneDrive/Desktop/GD32VW553/V1_MQTT_OK/GD32VW55X_Wifi_BLE_SDK/GD32VW55x_RELEASE_V1.0.2/MSDK/wpa_supplicant/src/crypto\wpa_md5.c **** 		k_pad[i] ^= 0x36;
  91:C:/Users/stapi/OneDrive/Desktop/GD32VW553/V1_MQTT_OK/GD32VW55X_Wifi_BLE_SDK/GD32VW55x_RELEASE_V1.0.2/MSDK/wpa_supplicant/src/crypto\wpa_md5.c **** 
  92:C:/Users/stapi/OneDrive/Desktop/GD32VW553/V1_MQTT_OK/GD32VW55X_Wifi_BLE_SDK/GD32VW55x_RELEASE_V1.0.2/MSDK/wpa_supplicant/src/crypto\wpa_md5.c **** 	/* perform inner MD5 */
  93:C:/Users/stapi/OneDrive/Desktop/GD32VW553/V1_MQTT_OK/GD32VW55X_Wifi_BLE_SDK/GD32VW55x_RELEASE_V1.0.2/MSDK/wpa_supplicant/src/crypto\wpa_md5.c **** 	_addr[0] = k_pad;
  94:C:/Users/stapi/OneDrive/Desktop/GD32VW553/V1_MQTT_OK/GD32VW55X_Wifi_BLE_SDK/GD32VW55x_RELEASE_V1.0.2/MSDK/wpa_supplicant/src/crypto\wpa_md5.c **** 	_len[0] = 64;
  95:C:/Users/stapi/OneDrive/Desktop/GD32VW553/V1_MQTT_OK/GD32VW55X_Wifi_BLE_SDK/GD32VW55x_RELEASE_V1.0.2/MSDK/wpa_supplicant/src/crypto\wpa_md5.c **** 	for (i = 0; i < num_elem; i++) {
  96:C:/Users/stapi/OneDrive/Desktop/GD32VW553/V1_MQTT_OK/GD32VW55X_Wifi_BLE_SDK/GD32VW55x_RELEASE_V1.0.2/MSDK/wpa_supplicant/src/crypto\wpa_md5.c **** 		_addr[i + 1] = addr[i];
  97:C:/Users/stapi/OneDrive/Desktop/GD32VW553/V1_MQTT_OK/GD32VW55X_Wifi_BLE_SDK/GD32VW55x_RELEASE_V1.0.2/MSDK/wpa_supplicant/src/crypto\wpa_md5.c **** 		_len[i + 1] = len[i];
  98:C:/Users/stapi/OneDrive/Desktop/GD32VW553/V1_MQTT_OK/GD32VW55X_Wifi_BLE_SDK/GD32VW55x_RELEASE_V1.0.2/MSDK/wpa_supplicant/src/crypto\wpa_md5.c **** 	}
  99:C:/Users/stapi/OneDrive/Desktop/GD32VW553/V1_MQTT_OK/GD32VW55X_Wifi_BLE_SDK/GD32VW55x_RELEASE_V1.0.2/MSDK/wpa_supplicant/src/crypto\wpa_md5.c **** 	if (md5_vector(1 + num_elem, _addr, _len, mac))
 100:C:/Users/stapi/OneDrive/Desktop/GD32VW553/V1_MQTT_OK/GD32VW55X_Wifi_BLE_SDK/GD32VW55x_RELEASE_V1.0.2/MSDK/wpa_supplicant/src/crypto\wpa_md5.c **** 		return -1;
 101:C:/Users/stapi/OneDrive/Desktop/GD32VW553/V1_MQTT_OK/GD32VW55X_Wifi_BLE_SDK/GD32VW55x_RELEASE_V1.0.2/MSDK/wpa_supplicant/src/crypto\wpa_md5.c **** 
 102:C:/Users/stapi/OneDrive/Desktop/GD32VW553/V1_MQTT_OK/GD32VW55X_Wifi_BLE_SDK/GD32VW55x_RELEASE_V1.0.2/MSDK/wpa_supplicant/src/crypto\wpa_md5.c **** 	os_memset(k_pad, 0, sizeof(k_pad));
 103:C:/Users/stapi/OneDrive/Desktop/GD32VW553/V1_MQTT_OK/GD32VW55X_Wifi_BLE_SDK/GD32VW55x_RELEASE_V1.0.2/MSDK/wpa_supplicant/src/crypto\wpa_md5.c **** 	os_memcpy(k_pad, key, key_len);
 104:C:/Users/stapi/OneDrive/Desktop/GD32VW553/V1_MQTT_OK/GD32VW55X_Wifi_BLE_SDK/GD32VW55x_RELEASE_V1.0.2/MSDK/wpa_supplicant/src/crypto\wpa_md5.c **** 	/* XOR key with opad values */
 105:C:/Users/stapi/OneDrive/Desktop/GD32VW553/V1_MQTT_OK/GD32VW55X_Wifi_BLE_SDK/GD32VW55x_RELEASE_V1.0.2/MSDK/wpa_supplicant/src/crypto\wpa_md5.c **** 	for (i = 0; i < 64; i++)
 106:C:/Users/stapi/OneDrive/Desktop/GD32VW553/V1_MQTT_OK/GD32VW55X_Wifi_BLE_SDK/GD32VW55x_RELEASE_V1.0.2/MSDK/wpa_supplicant/src/crypto\wpa_md5.c **** 		k_pad[i] ^= 0x5c;
 107:C:/Users/stapi/OneDrive/Desktop/GD32VW553/V1_MQTT_OK/GD32VW55X_Wifi_BLE_SDK/GD32VW55x_RELEASE_V1.0.2/MSDK/wpa_supplicant/src/crypto\wpa_md5.c **** 
 108:C:/Users/stapi/OneDrive/Desktop/GD32VW553/V1_MQTT_OK/GD32VW55X_Wifi_BLE_SDK/GD32VW55x_RELEASE_V1.0.2/MSDK/wpa_supplicant/src/crypto\wpa_md5.c **** 	/* perform outer MD5 */
 109:C:/Users/stapi/OneDrive/Desktop/GD32VW553/V1_MQTT_OK/GD32VW55X_Wifi_BLE_SDK/GD32VW55x_RELEASE_V1.0.2/MSDK/wpa_supplicant/src/crypto\wpa_md5.c **** 	_addr[0] = k_pad;
 110:C:/Users/stapi/OneDrive/Desktop/GD32VW553/V1_MQTT_OK/GD32VW55X_Wifi_BLE_SDK/GD32VW55x_RELEASE_V1.0.2/MSDK/wpa_supplicant/src/crypto\wpa_md5.c **** 	_len[0] = 64;
 111:C:/Users/stapi/OneDrive/Desktop/GD32VW553/V1_MQTT_OK/GD32VW55X_Wifi_BLE_SDK/GD32VW55x_RELEASE_V1.0.2/MSDK/wpa_supplicant/src/crypto\wpa_md5.c **** 	_addr[1] = mac;
 112:C:/Users/stapi/OneDrive/Desktop/GD32VW553/V1_MQTT_OK/GD32VW55X_Wifi_BLE_SDK/GD32VW55x_RELEASE_V1.0.2/MSDK/wpa_supplicant/src/crypto\wpa_md5.c **** 	_len[1] = MD5_MAC_LEN;
 113:C:/Users/stapi/OneDrive/Desktop/GD32VW553/V1_MQTT_OK/GD32VW55X_Wifi_BLE_SDK/GD32VW55x_RELEASE_V1.0.2/MSDK/wpa_supplicant/src/crypto\wpa_md5.c **** 	res = md5_vector(2, _addr, _len, mac);
 114:C:/Users/stapi/OneDrive/Desktop/GD32VW553/V1_MQTT_OK/GD32VW55X_Wifi_BLE_SDK/GD32VW55x_RELEASE_V1.0.2/MSDK/wpa_supplicant/src/crypto\wpa_md5.c **** 	os_memset(k_pad, 0, sizeof(k_pad));
 115:C:/Users/stapi/OneDrive/Desktop/GD32VW553/V1_MQTT_OK/GD32VW55X_Wifi_BLE_SDK/GD32VW55x_RELEASE_V1.0.2/MSDK/wpa_supplicant/src/crypto\wpa_md5.c **** 	os_memset(tk, 0, sizeof(tk));
 116:C:/Users/stapi/OneDrive/Desktop/GD32VW553/V1_MQTT_OK/GD32VW55X_Wifi_BLE_SDK/GD32VW55x_RELEASE_V1.0.2/MSDK/wpa_supplicant/src/crypto\wpa_md5.c **** 	return res;
 117:C:/Users/stapi/OneDrive/Desktop/GD32VW553/V1_MQTT_OK/GD32VW55X_Wifi_BLE_SDK/GD32VW55x_RELEASE_V1.0.2/MSDK/wpa_supplicant/src/crypto\wpa_md5.c **** #endif
 118:C:/Users/stapi/OneDrive/Desktop/GD32VW553/V1_MQTT_OK/GD32VW55X_Wifi_BLE_SDK/GD32VW55x_RELEASE_V1.0.2/MSDK/wpa_supplicant/src/crypto\wpa_md5.c **** }
 101              		.loc 1 118 1
 102 0068 17030000 		tail	__riscv_restore_10
 102      67000300 
 103              		.cfi_remember_state
 104              		.cfi_restore 25
 105              		.cfi_restore 24
 106              		.cfi_restore 23
 107              		.cfi_restore 22
 108              		.cfi_restore 21
 109              		.cfi_restore 20
 110              		.cfi_restore 19
 111              		.cfi_restore 18
 112              		.cfi_restore 9
 113              		.cfi_restore 8
 114              		.cfi_restore 1
 115              		.cfi_def_cfa_offset 0
 116              	.LVL13:
 117              	.L3:
 118              		.cfi_restore_state
  35:C:/Users/stapi/OneDrive/Desktop/GD32VW553/V1_MQTT_OK/GD32VW55X_Wifi_BLE_SDK/GD32VW55x_RELEASE_V1.0.2/MSDK/wpa_supplicant/src/crypto\wpa_md5.c **** 	}
 119              		.loc 1 35 3 is_stmt 1 discriminator 3
  35:C:/Users/stapi/OneDrive/Desktop/GD32VW553/V1_MQTT_OK/GD32VW55X_Wifi_BLE_SDK/GD32VW55x_RELEASE_V1.0.2/MSDK/wpa_supplicant/src/crypto\wpa_md5.c **** 	}
 120              		.loc 1 35 19 is_stmt 0 discriminator 3
 121 0070 B3474421 		sh2add	a5,s0,s4
  35:C:/Users/stapi/OneDrive/Desktop/GD32VW553/V1_MQTT_OK/GD32VW55X_Wifi_BLE_SDK/GD32VW55x_RELEASE_V1.0.2/MSDK/wpa_supplicant/src/crypto\wpa_md5.c **** 	}
 122              		.loc 1 35 13 discriminator 3
 123 0074 9C43     		lw	a5,0(a5)
  34:C:/Users/stapi/OneDrive/Desktop/GD32VW553/V1_MQTT_OK/GD32VW55X_Wifi_BLE_SDK/GD32VW55x_RELEASE_V1.0.2/MSDK/wpa_supplicant/src/crypto\wpa_md5.c **** 		input_len += len[i];
 124              		.loc 1 34 29 discriminator 3
 125 0076 0504     		addi	s0,s0,1
 126              	.LVL14:
  35:C:/Users/stapi/OneDrive/Desktop/GD32VW553/V1_MQTT_OK/GD32VW55X_Wifi_BLE_SDK/GD32VW55x_RELEASE_V1.0.2/MSDK/wpa_supplicant/src/crypto\wpa_md5.c **** 	}
 127              		.loc 1 35 13 discriminator 3
 128 0078 3E95     		add	a0,a0,a5
 129              	.LVL15:
  34:C:/Users/stapi/OneDrive/Desktop/GD32VW553/V1_MQTT_OK/GD32VW55X_Wifi_BLE_SDK/GD32VW55x_RELEASE_V1.0.2/MSDK/wpa_supplicant/src/crypto\wpa_md5.c **** 		input_len += len[i];
 130              		.loc 1 34 28 is_stmt 1 discriminator 3
 131 007a 71BF     		j	.L2
 132              	.LVL16:
 133              	.L6:
  43:C:/Users/stapi/OneDrive/Desktop/GD32VW553/V1_MQTT_OK/GD32VW55X_Wifi_BLE_SDK/GD32VW55x_RELEASE_V1.0.2/MSDK/wpa_supplicant/src/crypto\wpa_md5.c **** 		input_len += len[i];
 134              		.loc 1 43 3 discriminator 3
 135 007c B3072C01 		add	a5,s8,s2
 136 0080 B30C2A01 		add	s9,s4,s2
 137 0084 8C43     		lw	a1,0(a5)
 138 0086 03A60C00 		lw	a2,0(s9)
 139 008a 33853401 		add	a0,s1,s3
 140 008e 1109     		addi	s2,s2,4
 141 0090 97000000 		call	os_memcpy
 141      E7800000 
 142              	.LVL17:
  44:C:/Users/stapi/OneDrive/Desktop/GD32VW553/V1_MQTT_OK/GD32VW55X_Wifi_BLE_SDK/GD32VW55x_RELEASE_V1.0.2/MSDK/wpa_supplicant/src/crypto\wpa_md5.c **** 	}
 143              		.loc 1 44 3 discriminator 3
  44:C:/Users/stapi/OneDrive/Desktop/GD32VW553/V1_MQTT_OK/GD32VW55X_Wifi_BLE_SDK/GD32VW55x_RELEASE_V1.0.2/MSDK/wpa_supplicant/src/crypto\wpa_md5.c **** 	}
 144              		.loc 1 44 13 is_stmt 0 discriminator 3
 145 0098 83A70C00 		lw	a5,0(s9)
 146 009c BE99     		add	s3,s3,a5
 147              	.LVL18:
  42:C:/Users/stapi/OneDrive/Desktop/GD32VW553/V1_MQTT_OK/GD32VW55X_Wifi_BLE_SDK/GD32VW55x_RELEASE_V1.0.2/MSDK/wpa_supplicant/src/crypto\wpa_md5.c **** 		os_memcpy(input + input_len, addr[i], len[i]);
 148              		.loc 1 42 43 is_stmt 1 discriminator 3
 149 009e 41BF     		j	.L5
 150              		.cfi_endproc
 151              	.LFE432:
 153              		.section	.text.hmac_md5,"ax",@progbits
 154              		.align	1
 155              		.globl	hmac_md5
 157              	hmac_md5:
 158              	.LFB433:
 119:C:/Users/stapi/OneDrive/Desktop/GD32VW553/V1_MQTT_OK/GD32VW55X_Wifi_BLE_SDK/GD32VW55x_RELEASE_V1.0.2/MSDK/wpa_supplicant/src/crypto\wpa_md5.c **** 
 120:C:/Users/stapi/OneDrive/Desktop/GD32VW553/V1_MQTT_OK/GD32VW55X_Wifi_BLE_SDK/GD32VW55x_RELEASE_V1.0.2/MSDK/wpa_supplicant/src/crypto\wpa_md5.c **** 
 121:C:/Users/stapi/OneDrive/Desktop/GD32VW553/V1_MQTT_OK/GD32VW55X_Wifi_BLE_SDK/GD32VW55x_RELEASE_V1.0.2/MSDK/wpa_supplicant/src/crypto\wpa_md5.c **** /**
 122:C:/Users/stapi/OneDrive/Desktop/GD32VW553/V1_MQTT_OK/GD32VW55X_Wifi_BLE_SDK/GD32VW55x_RELEASE_V1.0.2/MSDK/wpa_supplicant/src/crypto\wpa_md5.c ****  * hmac_md5 - HMAC-MD5 over data buffer (RFC 2104)
 123:C:/Users/stapi/OneDrive/Desktop/GD32VW553/V1_MQTT_OK/GD32VW55X_Wifi_BLE_SDK/GD32VW55x_RELEASE_V1.0.2/MSDK/wpa_supplicant/src/crypto\wpa_md5.c ****  * @key: Key for HMAC operations
 124:C:/Users/stapi/OneDrive/Desktop/GD32VW553/V1_MQTT_OK/GD32VW55X_Wifi_BLE_SDK/GD32VW55x_RELEASE_V1.0.2/MSDK/wpa_supplicant/src/crypto\wpa_md5.c ****  * @key_len: Length of the key in bytes
 125:C:/Users/stapi/OneDrive/Desktop/GD32VW553/V1_MQTT_OK/GD32VW55X_Wifi_BLE_SDK/GD32VW55x_RELEASE_V1.0.2/MSDK/wpa_supplicant/src/crypto\wpa_md5.c ****  * @data: Pointers to the data area
 126:C:/Users/stapi/OneDrive/Desktop/GD32VW553/V1_MQTT_OK/GD32VW55X_Wifi_BLE_SDK/GD32VW55x_RELEASE_V1.0.2/MSDK/wpa_supplicant/src/crypto\wpa_md5.c ****  * @data_len: Length of the data area
 127:C:/Users/stapi/OneDrive/Desktop/GD32VW553/V1_MQTT_OK/GD32VW55X_Wifi_BLE_SDK/GD32VW55x_RELEASE_V1.0.2/MSDK/wpa_supplicant/src/crypto\wpa_md5.c ****  * @mac: Buffer for the hash (16 bytes)
 128:C:/Users/stapi/OneDrive/Desktop/GD32VW553/V1_MQTT_OK/GD32VW55X_Wifi_BLE_SDK/GD32VW55x_RELEASE_V1.0.2/MSDK/wpa_supplicant/src/crypto\wpa_md5.c ****  * Returns: 0 on success, -1 on failure
 129:C:/Users/stapi/OneDrive/Desktop/GD32VW553/V1_MQTT_OK/GD32VW55X_Wifi_BLE_SDK/GD32VW55x_RELEASE_V1.0.2/MSDK/wpa_supplicant/src/crypto\wpa_md5.c ****  */
 130:C:/Users/stapi/OneDrive/Desktop/GD32VW553/V1_MQTT_OK/GD32VW55X_Wifi_BLE_SDK/GD32VW55x_RELEASE_V1.0.2/MSDK/wpa_supplicant/src/crypto\wpa_md5.c **** int hmac_md5(const u8 *key, size_t key_len, const u8 *data, size_t data_len,
 131:C:/Users/stapi/OneDrive/Desktop/GD32VW553/V1_MQTT_OK/GD32VW55X_Wifi_BLE_SDK/GD32VW55x_RELEASE_V1.0.2/MSDK/wpa_supplicant/src/crypto\wpa_md5.c **** 	      u8 *mac)
 132:C:/Users/stapi/OneDrive/Desktop/GD32VW553/V1_MQTT_OK/GD32VW55X_Wifi_BLE_SDK/GD32VW55x_RELEASE_V1.0.2/MSDK/wpa_supplicant/src/crypto\wpa_md5.c **** {
 159              		.loc 1 132 1
 160              		.cfi_startproc
 161              	.LVL19:
 162 0000 17030000 		call	t0,__riscv_save_0
 162      E7020300 
 163              		.cfi_offset 1, -4
 164              		.cfi_def_cfa_offset 16
 133:C:/Users/stapi/OneDrive/Desktop/GD32VW553/V1_MQTT_OK/GD32VW55X_Wifi_BLE_SDK/GD32VW55x_RELEASE_V1.0.2/MSDK/wpa_supplicant/src/crypto\wpa_md5.c **** 	return hmac_md5_vector(key, key_len, 1, &data, &data_len, mac);
 165              		.loc 1 133 2
 132:C:/Users/stapi/OneDrive/Desktop/GD32VW553/V1_MQTT_OK/GD32VW55X_Wifi_BLE_SDK/GD32VW55x_RELEASE_V1.0.2/MSDK/wpa_supplicant/src/crypto\wpa_md5.c **** 	return hmac_md5_vector(key, key_len, 1, &data, &data_len, mac);
 166              		.loc 1 132 1 is_stmt 0
 167 0008 4111     		addi	sp,sp,-16
 168              		.cfi_def_cfa_offset 32
 132:C:/Users/stapi/OneDrive/Desktop/GD32VW553/V1_MQTT_OK/GD32VW55X_Wifi_BLE_SDK/GD32VW55x_RELEASE_V1.0.2/MSDK/wpa_supplicant/src/crypto\wpa_md5.c **** 	return hmac_md5_vector(key, key_len, 1, &data, &data_len, mac);
 169              		.loc 1 132 1
 170 000a 32C6     		sw	a2,12(sp)
 171 000c 36C4     		sw	a3,8(sp)
 172 000e BA87     		mv	a5,a4
 173              		.loc 1 133 9
 174 0010 7400     		addi	a3,sp,12
 175              	.LVL20:
 176 0012 3800     		addi	a4,sp,8
 177              	.LVL21:
 178 0014 0546     		li	a2,1
 179              	.LVL22:
 180 0016 97000000 		call	hmac_md5_vector
 180      E7800000 
 181              	.LVL23:
 134:C:/Users/stapi/OneDrive/Desktop/GD32VW553/V1_MQTT_OK/GD32VW55X_Wifi_BLE_SDK/GD32VW55x_RELEASE_V1.0.2/MSDK/wpa_supplicant/src/crypto\wpa_md5.c **** }
 182              		.loc 1 134 1
 183 001e 4101     		addi	sp,sp,16
 184              		.cfi_def_cfa_offset 0
 185 0020 17030000 		tail	__riscv_restore_0
 185      67000300 
 186              		.cfi_restore 1
 187              		.cfi_def_cfa_offset -16
 188              		.cfi_endproc
 189              	.LFE433:
 191              		.text
 192              	.Letext0:
 193              		.file 2 "c:\\users\\stapi\\onedrive\\desktop\\gd32vw553\\embeddedbuilder_v1.4.7.26843\\tools\\nucl
 194              		.file 3 "c:\\users\\stapi\\onedrive\\desktop\\gd32vw553\\embeddedbuilder_v1.4.7.26843\\tools\\nucl
 195              		.file 4 "c:\\users\\stapi\\onedrive\\desktop\\gd32vw553\\embeddedbuilder_v1.4.7.26843\\tools\\nucl
 196              		.file 5 "..\\..\\..\\..\\wpa_supplicant\\src\\utils/os.h"
 197              		.file 6 "..\\..\\..\\..\\macsw\\import/rtos_import.h"
 198              		.file 7 "..\\..\\..\\..\\plf\\GD32VW55x_standard_peripheral\\Include/gd32vw55x_hau.h"
 199              		.file 8 "..\\..\\..\\..\\plf\\riscv\\gd32vw55x/gd32vw55x.h"
 200              		.file 9 "..\\..\\..\\..\\wpa_supplicant\\src\\utils/common.h"
DEFINED SYMBOLS
                            *ABS*:0000000000000000 wpa_md5.c
C:\Users\stapi\AppData\Local\Temp\ccY27n5c.s:13     .text.hmac_md5_vector:0000000000000000 hmac_md5_vector
C:\Users\stapi\AppData\Local\Temp\ccY27n5c.s:17     .text.hmac_md5_vector:0000000000000000 .L0 
C:\Users\stapi\AppData\Local\Temp\ccY27n5c.s:19     .text.hmac_md5_vector:0000000000000000 .L0 
C:\Users\stapi\AppData\Local\Temp\ccY27n5c.s:20     .text.hmac_md5_vector:0000000000000008 .L0 
C:\Users\stapi\AppData\Local\Temp\ccY27n5c.s:21     .text.hmac_md5_vector:0000000000000008 .L0 
C:\Users\stapi\AppData\Local\Temp\ccY27n5c.s:22     .text.hmac_md5_vector:0000000000000008 .L0 
C:\Users\stapi\AppData\Local\Temp\ccY27n5c.s:23     .text.hmac_md5_vector:0000000000000008 .L0 
C:\Users\stapi\AppData\Local\Temp\ccY27n5c.s:24     .text.hmac_md5_vector:0000000000000008 .L0 
C:\Users\stapi\AppData\Local\Temp\ccY27n5c.s:25     .text.hmac_md5_vector:0000000000000008 .L0 
C:\Users\stapi\AppData\Local\Temp\ccY27n5c.s:26     .text.hmac_md5_vector:0000000000000008 .L0 
C:\Users\stapi\AppData\Local\Temp\ccY27n5c.s:27     .text.hmac_md5_vector:0000000000000008 .L0 
C:\Users\stapi\AppData\Local\Temp\ccY27n5c.s:28     .text.hmac_md5_vector:0000000000000008 .L0 
C:\Users\stapi\AppData\Local\Temp\ccY27n5c.s:29     .text.hmac_md5_vector:0000000000000008 .L0 
C:\Users\stapi\AppData\Local\Temp\ccY27n5c.s:30     .text.hmac_md5_vector:0000000000000008 .L0 
C:\Users\stapi\AppData\Local\Temp\ccY27n5c.s:31     .text.hmac_md5_vector:0000000000000008 .L0 
C:\Users\stapi\AppData\Local\Temp\ccY27n5c.s:34     .text.hmac_md5_vector:0000000000000008 .L0 
C:\Users\stapi\AppData\Local\Temp\ccY27n5c.s:35     .text.hmac_md5_vector:0000000000000008 .L0 
C:\Users\stapi\AppData\Local\Temp\ccY27n5c.s:36     .text.hmac_md5_vector:0000000000000008 .L0 
C:\Users\stapi\AppData\Local\Temp\ccY27n5c.s:37     .text.hmac_md5_vector:0000000000000008 .L0 
C:\Users\stapi\AppData\Local\Temp\ccY27n5c.s:38     .text.hmac_md5_vector:0000000000000008 .L0 
C:\Users\stapi\AppData\Local\Temp\ccY27n5c.s:39     .text.hmac_md5_vector:0000000000000008 .L0 
C:\Users\stapi\AppData\Local\Temp\ccY27n5c.s:45     .text.hmac_md5_vector:0000000000000012 .L0 
C:\Users\stapi\AppData\Local\Temp\ccY27n5c.s:47     .text.hmac_md5_vector:0000000000000014 .L0 
C:\Users\stapi\AppData\Local\Temp\ccY27n5c.s:51     .text.hmac_md5_vector:0000000000000016 .L0 
C:\Users\stapi\AppData\Local\Temp\ccY27n5c.s:52     .text.hmac_md5_vector:0000000000000016 .L0 
C:\Users\stapi\AppData\Local\Temp\ccY27n5c.s:54     .text.hmac_md5_vector:000000000000001a .L0 
C:\Users\stapi\AppData\Local\Temp\ccY27n5c.s:55     .text.hmac_md5_vector:000000000000001a .L0 
C:\Users\stapi\AppData\Local\Temp\ccY27n5c.s:60     .text.hmac_md5_vector:0000000000000024 .L0 
C:\Users\stapi\AppData\Local\Temp\ccY27n5c.s:61     .text.hmac_md5_vector:0000000000000024 .L0 
C:\Users\stapi\AppData\Local\Temp\ccY27n5c.s:63     .text.hmac_md5_vector:0000000000000026 .L0 
C:\Users\stapi\AppData\Local\Temp\ccY27n5c.s:68     .text.hmac_md5_vector:000000000000002c .L0 
C:\Users\stapi\AppData\Local\Temp\ccY27n5c.s:72     .text.hmac_md5_vector:000000000000002e .L0 
C:\Users\stapi\AppData\Local\Temp\ccY27n5c.s:73     .text.hmac_md5_vector:000000000000002e .L0 
C:\Users\stapi\AppData\Local\Temp\ccY27n5c.s:75     .text.hmac_md5_vector:0000000000000032 .L0 
C:\Users\stapi\AppData\Local\Temp\ccY27n5c.s:78     .text.hmac_md5_vector:000000000000003a .L0 
C:\Users\stapi\AppData\Local\Temp\ccY27n5c.s:79     .text.hmac_md5_vector:000000000000003a .L0 
C:\Users\stapi\AppData\Local\Temp\ccY27n5c.s:89     .text.hmac_md5_vector:000000000000004e .L0 
C:\Users\stapi\AppData\Local\Temp\ccY27n5c.s:92     .text.hmac_md5_vector:0000000000000056 .L0 
C:\Users\stapi\AppData\Local\Temp\ccY27n5c.s:96     .text.hmac_md5_vector:0000000000000060 .L0 
C:\Users\stapi\AppData\Local\Temp\ccY27n5c.s:97     .text.hmac_md5_vector:0000000000000060 .L0 
C:\Users\stapi\AppData\Local\Temp\ccY27n5c.s:102    .text.hmac_md5_vector:0000000000000068 .L0 
C:\Users\stapi\AppData\Local\Temp\ccY27n5c.s:103    .text.hmac_md5_vector:0000000000000070 .L0 
C:\Users\stapi\AppData\Local\Temp\ccY27n5c.s:104    .text.hmac_md5_vector:0000000000000070 .L0 
C:\Users\stapi\AppData\Local\Temp\ccY27n5c.s:105    .text.hmac_md5_vector:0000000000000070 .L0 
C:\Users\stapi\AppData\Local\Temp\ccY27n5c.s:106    .text.hmac_md5_vector:0000000000000070 .L0 
C:\Users\stapi\AppData\Local\Temp\ccY27n5c.s:107    .text.hmac_md5_vector:0000000000000070 .L0 
C:\Users\stapi\AppData\Local\Temp\ccY27n5c.s:108    .text.hmac_md5_vector:0000000000000070 .L0 
C:\Users\stapi\AppData\Local\Temp\ccY27n5c.s:109    .text.hmac_md5_vector:0000000000000070 .L0 
C:\Users\stapi\AppData\Local\Temp\ccY27n5c.s:110    .text.hmac_md5_vector:0000000000000070 .L0 
C:\Users\stapi\AppData\Local\Temp\ccY27n5c.s:111    .text.hmac_md5_vector:0000000000000070 .L0 
C:\Users\stapi\AppData\Local\Temp\ccY27n5c.s:112    .text.hmac_md5_vector:0000000000000070 .L0 
C:\Users\stapi\AppData\Local\Temp\ccY27n5c.s:113    .text.hmac_md5_vector:0000000000000070 .L0 
C:\Users\stapi\AppData\Local\Temp\ccY27n5c.s:114    .text.hmac_md5_vector:0000000000000070 .L0 
C:\Users\stapi\AppData\Local\Temp\ccY27n5c.s:115    .text.hmac_md5_vector:0000000000000070 .L0 
C:\Users\stapi\AppData\Local\Temp\ccY27n5c.s:118    .text.hmac_md5_vector:0000000000000070 .L0 
C:\Users\stapi\AppData\Local\Temp\ccY27n5c.s:120    .text.hmac_md5_vector:0000000000000070 .L0 
C:\Users\stapi\AppData\Local\Temp\ccY27n5c.s:121    .text.hmac_md5_vector:0000000000000070 .L0 
C:\Users\stapi\AppData\Local\Temp\ccY27n5c.s:123    .text.hmac_md5_vector:0000000000000074 .L0 
C:\Users\stapi\AppData\Local\Temp\ccY27n5c.s:125    .text.hmac_md5_vector:0000000000000076 .L0 
C:\Users\stapi\AppData\Local\Temp\ccY27n5c.s:128    .text.hmac_md5_vector:0000000000000078 .L0 
C:\Users\stapi\AppData\Local\Temp\ccY27n5c.s:131    .text.hmac_md5_vector:000000000000007a .L0 
C:\Users\stapi\AppData\Local\Temp\ccY27n5c.s:135    .text.hmac_md5_vector:000000000000007c .L0 
C:\Users\stapi\AppData\Local\Temp\ccY27n5c.s:144    .text.hmac_md5_vector:0000000000000098 .L0 
C:\Users\stapi\AppData\Local\Temp\ccY27n5c.s:145    .text.hmac_md5_vector:0000000000000098 .L0 
C:\Users\stapi\AppData\Local\Temp\ccY27n5c.s:149    .text.hmac_md5_vector:000000000000009e .L0 
C:\Users\stapi\AppData\Local\Temp\ccY27n5c.s:150    .text.hmac_md5_vector:00000000000000a0 .L0 
C:\Users\stapi\AppData\Local\Temp\ccY27n5c.s:157    .text.hmac_md5:0000000000000000 hmac_md5
C:\Users\stapi\AppData\Local\Temp\ccY27n5c.s:160    .text.hmac_md5:0000000000000000 .L0 
C:\Users\stapi\AppData\Local\Temp\ccY27n5c.s:162    .text.hmac_md5:0000000000000000 .L0 
C:\Users\stapi\AppData\Local\Temp\ccY27n5c.s:163    .text.hmac_md5:0000000000000008 .L0 
C:\Users\stapi\AppData\Local\Temp\ccY27n5c.s:164    .text.hmac_md5:0000000000000008 .L0 
C:\Users\stapi\AppData\Local\Temp\ccY27n5c.s:166    .text.hmac_md5:0000000000000008 .L0 
C:\Users\stapi\AppData\Local\Temp\ccY27n5c.s:167    .text.hmac_md5:0000000000000008 .L0 
C:\Users\stapi\AppData\Local\Temp\ccY27n5c.s:168    .text.hmac_md5:000000000000000a .L0 
C:\Users\stapi\AppData\Local\Temp\ccY27n5c.s:170    .text.hmac_md5:000000000000000a .L0 
C:\Users\stapi\AppData\Local\Temp\ccY27n5c.s:174    .text.hmac_md5:0000000000000010 .L0 
C:\Users\stapi\AppData\Local\Temp\ccY27n5c.s:183    .text.hmac_md5:000000000000001e .L0 
C:\Users\stapi\AppData\Local\Temp\ccY27n5c.s:184    .text.hmac_md5:0000000000000020 .L0 
C:\Users\stapi\AppData\Local\Temp\ccY27n5c.s:186    .text.hmac_md5:0000000000000028 .L0 
C:\Users\stapi\AppData\Local\Temp\ccY27n5c.s:187    .text.hmac_md5:0000000000000028 .L0 
C:\Users\stapi\AppData\Local\Temp\ccY27n5c.s:188    .text.hmac_md5:0000000000000028 .L0 
C:\Users\stapi\AppData\Local\Temp\ccY27n5c.s:153    .text.hmac_md5_vector:00000000000000a0 .L0 
C:\Users\stapi\AppData\Local\Temp\ccY27n5c.s:191    .text.hmac_md5:0000000000000028 .L0 
                     .debug_frame:0000000000000000 .L0 
C:\Users\stapi\AppData\Local\Temp\ccY27n5c.s:117    .text.hmac_md5_vector:0000000000000070 .L3
C:\Users\stapi\AppData\Local\Temp\ccY27n5c.s:100    .text.hmac_md5_vector:0000000000000068 .L1
C:\Users\stapi\AppData\Local\Temp\ccY27n5c.s:133    .text.hmac_md5_vector:000000000000007c .L6
C:\Users\stapi\AppData\Local\Temp\ccY27n5c.s:49     .text.hmac_md5_vector:0000000000000016 .L2
C:\Users\stapi\AppData\Local\Temp\ccY27n5c.s:69     .text.hmac_md5_vector:000000000000002e .L5
C:\Users\stapi\AppData\Local\Temp\ccY27n5c.s:610    .debug_abbrev:0000000000000000 .Ldebug_abbrev0
C:\Users\stapi\AppData\Local\Temp\ccY27n5c.s:1224   .debug_str:00000000000001f1 .LASF33
C:\Users\stapi\AppData\Local\Temp\ccY27n5c.s:1214   .debug_str:00000000000000b1 .LASF34
C:\Users\stapi\AppData\Local\Temp\ccY27n5c.s:1218   .debug_str:0000000000000144 .LASF35
C:\Users\stapi\AppData\Local\Temp\ccY27n5c.s:1174   .debug_ranges:0000000000000000 .Ldebug_ranges0
C:\Users\stapi\AppData\Local\Temp\ccY27n5c.s:1182   .debug_line:0000000000000000 .Ldebug_line0
C:\Users\stapi\AppData\Local\Temp\ccY27n5c.s:1186   .debug_str:000000000000000a .LASF2
C:\Users\stapi\AppData\Local\Temp\ccY27n5c.s:1228   .debug_str:00000000000002f5 .LASF0
C:\Users\stapi\AppData\Local\Temp\ccY27n5c.s:1252   .debug_str:000000000000036c .LASF1
C:\Users\stapi\AppData\Local\Temp\ccY27n5c.s:1184   .debug_str:0000000000000000 .LASF3
C:\Users\stapi\AppData\Local\Temp\ccY27n5c.s:1208   .debug_str:0000000000000095 .LASF4
C:\Users\stapi\AppData\Local\Temp\ccY27n5c.s:1242   .debug_str:0000000000000338 .LASF5
C:\Users\stapi\AppData\Local\Temp\ccY27n5c.s:1194   .debug_str:0000000000000031 .LASF6
C:\Users\stapi\AppData\Local\Temp\ccY27n5c.s:1192   .debug_str:0000000000000028 .LASF7
C:\Users\stapi\AppData\Local\Temp\ccY27n5c.s:1226   .debug_str:00000000000002ea .LASF8
C:\Users\stapi\AppData\Local\Temp\ccY27n5c.s:1222   .debug_str:00000000000001df .LASF9
C:\Users\stapi\AppData\Local\Temp\ccY27n5c.s:1240   .debug_str:000000000000032a .LASF10
C:\Users\stapi\AppData\Local\Temp\ccY27n5c.s:1206   .debug_str:000000000000007e .LASF11
C:\Users\stapi\AppData\Local\Temp\ccY27n5c.s:1232   .debug_str:000000000000030c .LASF12
C:\Users\stapi\AppData\Local\Temp\ccY27n5c.s:1234   .debug_str:0000000000000311 .LASF13
C:\Users\stapi\AppData\Local\Temp\ccY27n5c.s:1248   .debug_str:000000000000035d .LASF14
C:\Users\stapi\AppData\Local\Temp\ccY27n5c.s:1250   .debug_str:0000000000000366 .LASF15
C:\Users\stapi\AppData\Local\Temp\ccY27n5c.s:1210   .debug_str:00000000000000a3 .LASF16
C:\Users\stapi\AppData\Local\Temp\ccY27n5c.s:1254   .debug_str:0000000000000378 .LASF17
C:\Users\stapi\AppData\Local\Temp\ccY27n5c.s:1220   .debug_str:00000000000001d6 .LASF21
C:\Users\stapi\AppData\Local\Temp\ccY27n5c.s:158    .text.hmac_md5:0000000000000000 .LFB433
C:\Users\stapi\AppData\Local\Temp\ccY27n5c.s:189    .text.hmac_md5:0000000000000028 .LFE433
C:\Users\stapi\AppData\Local\Temp\ccY27n5c.s:902    .debug_loc:0000000000000000 .LLST10
C:\Users\stapi\AppData\Local\Temp\ccY27n5c.s:1246   .debug_str:0000000000000355 .LASF18
C:\Users\stapi\AppData\Local\Temp\ccY27n5c.s:916    .debug_loc:0000000000000021 .LLST11
C:\Users\stapi\AppData\Local\Temp\ccY27n5c.s:1196   .debug_str:0000000000000044 .LASF19
C:\Users\stapi\AppData\Local\Temp\ccY27n5c.s:930    .debug_loc:0000000000000042 .LLST12
C:\Users\stapi\AppData\Local\Temp\ccY27n5c.s:1200   .debug_str:000000000000005b .LASF20
C:\Users\stapi\AppData\Local\Temp\ccY27n5c.s:942    .debug_loc:0000000000000061 .LLST13
C:\Users\stapi\AppData\Local\Temp\ccY27n5c.s:959    .debug_loc:000000000000008c .LLST14
C:\Users\stapi\AppData\Local\Temp\ccY27n5c.s:181    .text.hmac_md5:000000000000001e .LVL23
C:\Users\stapi\AppData\Local\Temp\ccY27n5c.s:1202   .debug_str:0000000000000064 .LASF22
C:\Users\stapi\AppData\Local\Temp\ccY27n5c.s:14     .text.hmac_md5_vector:0000000000000000 .LFB432
C:\Users\stapi\AppData\Local\Temp\ccY27n5c.s:151    .text.hmac_md5_vector:00000000000000a0 .LFE432
C:\Users\stapi\AppData\Local\Temp\ccY27n5c.s:977    .debug_loc:00000000000000b8 .LLST0
C:\Users\stapi\AppData\Local\Temp\ccY27n5c.s:988    .debug_loc:00000000000000d6 .LLST1
C:\Users\stapi\AppData\Local\Temp\ccY27n5c.s:1236   .debug_str:0000000000000319 .LASF23
C:\Users\stapi\AppData\Local\Temp\ccY27n5c.s:1007   .debug_loc:000000000000010a .LLST2
C:\Users\stapi\AppData\Local\Temp\ccY27n5c.s:1216   .debug_str:000000000000013f .LASF24
C:\Users\stapi\AppData\Local\Temp\ccY27n5c.s:1032   .debug_loc:0000000000000144 .LLST3
C:\Users\stapi\AppData\Local\Temp\ccY27n5c.s:1051   .debug_loc:0000000000000178 .LLST4
C:\Users\stapi\AppData\Local\Temp\ccY27n5c.s:1070   .debug_loc:00000000000001ac .LLST5
C:\Users\stapi\AppData\Local\Temp\ccY27n5c.s:1212   .debug_str:00000000000000ab .LASF25
C:\Users\stapi\AppData\Local\Temp\ccY27n5c.s:1081   .debug_loc:00000000000001ca .LLST6
C:\Users\stapi\AppData\Local\Temp\ccY27n5c.s:1230   .debug_str:0000000000000302 .LASF26
C:\Users\stapi\AppData\Local\Temp\ccY27n5c.s:1102   .debug_loc:0000000000000200 .LLST7
C:\Users\stapi\AppData\Local\Temp\ccY27n5c.s:1126   .debug_loc:0000000000000240 .LLST8
C:\Users\stapi\AppData\Local\Temp\ccY27n5c.s:1152   .debug_loc:0000000000000282 .LLST9
C:\Users\stapi\AppData\Local\Temp\ccY27n5c.s:56     .text.hmac_md5_vector:0000000000000022 .LVL3
C:\Users\stapi\AppData\Local\Temp\ccY27n5c.s:76     .text.hmac_md5_vector:000000000000003a .LVL7
C:\Users\stapi\AppData\Local\Temp\ccY27n5c.s:85     .text.hmac_md5_vector:000000000000004c .LVL8
C:\Users\stapi\AppData\Local\Temp\ccY27n5c.s:90     .text.hmac_md5_vector:0000000000000056 .LVL10
C:\Users\stapi\AppData\Local\Temp\ccY27n5c.s:94     .text.hmac_md5_vector:0000000000000060 .LVL11
C:\Users\stapi\AppData\Local\Temp\ccY27n5c.s:142    .text.hmac_md5_vector:0000000000000098 .LVL17
C:\Users\stapi\AppData\Local\Temp\ccY27n5c.s:1204   .debug_str:0000000000000074 .LASF27
C:\Users\stapi\AppData\Local\Temp\ccY27n5c.s:1244   .debug_str:0000000000000342 .LASF28
C:\Users\stapi\AppData\Local\Temp\ccY27n5c.s:1190   .debug_str:000000000000001b .LASF29
C:\Users\stapi\AppData\Local\Temp\ccY27n5c.s:1198   .debug_str:0000000000000049 .LASF30
C:\Users\stapi\AppData\Local\Temp\ccY27n5c.s:1238   .debug_str:0000000000000322 .LASF31
C:\Users\stapi\AppData\Local\Temp\ccY27n5c.s:1188   .debug_str:0000000000000011 .LASF32
C:\Users\stapi\AppData\Local\Temp\ccY27n5c.s:161    .text.hmac_md5:0000000000000000 .LVL19
C:\Users\stapi\AppData\Local\Temp\ccY27n5c.s:179    .text.hmac_md5:0000000000000016 .LVL22
C:\Users\stapi\AppData\Local\Temp\ccY27n5c.s:175    .text.hmac_md5:0000000000000012 .LVL20
C:\Users\stapi\AppData\Local\Temp\ccY27n5c.s:177    .text.hmac_md5:0000000000000014 .LVL21
C:\Users\stapi\AppData\Local\Temp\ccY27n5c.s:18     .text.hmac_md5_vector:0000000000000000 .LVL0
C:\Users\stapi\AppData\Local\Temp\ccY27n5c.s:48     .text.hmac_md5_vector:0000000000000016 .LVL2
C:\Users\stapi\AppData\Local\Temp\ccY27n5c.s:116    .text.hmac_md5_vector:0000000000000070 .LVL13
C:\Users\stapi\AppData\Local\Temp\ccY27n5c.s:132    .text.hmac_md5_vector:000000000000007c .LVL16
C:\Users\stapi\AppData\Local\Temp\ccY27n5c.s:33     .text.hmac_md5_vector:0000000000000008 .LVL1
C:\Users\stapi\AppData\Local\Temp\ccY27n5c.s:58     .text.hmac_md5_vector:0000000000000024 .LVL4
C:\Users\stapi\AppData\Local\Temp\ccY27n5c.s:70     .text.hmac_md5_vector:000000000000002e .LVL6
C:\Users\stapi\AppData\Local\Temp\ccY27n5c.s:99     .text.hmac_md5_vector:0000000000000068 .LVL12
C:\Users\stapi\AppData\Local\Temp\ccY27n5c.s:65     .text.hmac_md5_vector:000000000000002a .LVL5
C:\Users\stapi\AppData\Local\Temp\ccY27n5c.s:126    .text.hmac_md5_vector:0000000000000078 .LVL14
C:\Users\stapi\AppData\Local\Temp\ccY27n5c.s:129    .text.hmac_md5_vector:000000000000007a .LVL15
C:\Users\stapi\AppData\Local\Temp\ccY27n5c.s:87     .text.hmac_md5_vector:000000000000004e .LVL9
C:\Users\stapi\AppData\Local\Temp\ccY27n5c.s:202    .debug_info:0000000000000000 .Ldebug_info0

UNDEFINED SYMBOLS
__riscv_save_10
os_malloc
sys_enter_critical
hau_hmac_md5
sys_exit_critical
os_free
__riscv_restore_10
os_memcpy
__riscv_save_0
__riscv_restore_0
