   1              		.file	"wpabuf.c"
   2              		.option nopic
   3              		.attribute arch, "rv32i2p0_m2p0_a2p0_f2p0_c2p0_b_p0p94"
   4              		.attribute unaligned_access, 0
   5              		.attribute stack_align, 16
   6              		.text
   7              	.Ltext0:
   8              		.cfi_sections	.debug_frame
   9              		.section	.text.wpabuf_alloc,"ax",@progbits
  10              		.align	1
  11              		.globl	wpabuf_alloc
  13              	wpabuf_alloc:
  14              	.LFB73:
  15              		.file 1 "C:/Users/stapi/OneDrive/Desktop/GD32VW553/V1_MQTT_OK/GD32VW55X_Wifi_BLE_SDK/GD32VW55x_REL
   1:C:/Users/stapi/OneDrive/Desktop/GD32VW553/V1_MQTT_OK/GD32VW55X_Wifi_BLE_SDK/GD32VW55x_RELEASE_V1.0.2/MSDK/wpa_supplicant/src/utils\wpabuf.c **** /*
   2:C:/Users/stapi/OneDrive/Desktop/GD32VW553/V1_MQTT_OK/GD32VW55X_Wifi_BLE_SDK/GD32VW55x_RELEASE_V1.0.2/MSDK/wpa_supplicant/src/utils\wpabuf.c ****  * Dynamic data buffer
   3:C:/Users/stapi/OneDrive/Desktop/GD32VW553/V1_MQTT_OK/GD32VW55X_Wifi_BLE_SDK/GD32VW55x_RELEASE_V1.0.2/MSDK/wpa_supplicant/src/utils\wpabuf.c ****  * Copyright (c) 2007-2012, Jouni Malinen <j@w1.fi>
   4:C:/Users/stapi/OneDrive/Desktop/GD32VW553/V1_MQTT_OK/GD32VW55X_Wifi_BLE_SDK/GD32VW55x_RELEASE_V1.0.2/MSDK/wpa_supplicant/src/utils\wpabuf.c ****  *
   5:C:/Users/stapi/OneDrive/Desktop/GD32VW553/V1_MQTT_OK/GD32VW55X_Wifi_BLE_SDK/GD32VW55x_RELEASE_V1.0.2/MSDK/wpa_supplicant/src/utils\wpabuf.c ****  * This software may be distributed under the terms of the BSD license.
   6:C:/Users/stapi/OneDrive/Desktop/GD32VW553/V1_MQTT_OK/GD32VW55X_Wifi_BLE_SDK/GD32VW55x_RELEASE_V1.0.2/MSDK/wpa_supplicant/src/utils\wpabuf.c ****  * See README for more details.
   7:C:/Users/stapi/OneDrive/Desktop/GD32VW553/V1_MQTT_OK/GD32VW55X_Wifi_BLE_SDK/GD32VW55x_RELEASE_V1.0.2/MSDK/wpa_supplicant/src/utils\wpabuf.c ****  */
   8:C:/Users/stapi/OneDrive/Desktop/GD32VW553/V1_MQTT_OK/GD32VW55X_Wifi_BLE_SDK/GD32VW55x_RELEASE_V1.0.2/MSDK/wpa_supplicant/src/utils\wpabuf.c **** 
   9:C:/Users/stapi/OneDrive/Desktop/GD32VW553/V1_MQTT_OK/GD32VW55X_Wifi_BLE_SDK/GD32VW55x_RELEASE_V1.0.2/MSDK/wpa_supplicant/src/utils\wpabuf.c **** #include "includes.h"
  10:C:/Users/stapi/OneDrive/Desktop/GD32VW553/V1_MQTT_OK/GD32VW55X_Wifi_BLE_SDK/GD32VW55x_RELEASE_V1.0.2/MSDK/wpa_supplicant/src/utils\wpabuf.c **** 
  11:C:/Users/stapi/OneDrive/Desktop/GD32VW553/V1_MQTT_OK/GD32VW55X_Wifi_BLE_SDK/GD32VW55x_RELEASE_V1.0.2/MSDK/wpa_supplicant/src/utils\wpabuf.c **** #include "common.h"
  12:C:/Users/stapi/OneDrive/Desktop/GD32VW553/V1_MQTT_OK/GD32VW55X_Wifi_BLE_SDK/GD32VW55x_RELEASE_V1.0.2/MSDK/wpa_supplicant/src/utils\wpabuf.c **** #include "trace.h"
  13:C:/Users/stapi/OneDrive/Desktop/GD32VW553/V1_MQTT_OK/GD32VW55X_Wifi_BLE_SDK/GD32VW55x_RELEASE_V1.0.2/MSDK/wpa_supplicant/src/utils\wpabuf.c **** #include "wpabuf.h"
  14:C:/Users/stapi/OneDrive/Desktop/GD32VW553/V1_MQTT_OK/GD32VW55X_Wifi_BLE_SDK/GD32VW55x_RELEASE_V1.0.2/MSDK/wpa_supplicant/src/utils\wpabuf.c **** 
  15:C:/Users/stapi/OneDrive/Desktop/GD32VW553/V1_MQTT_OK/GD32VW55X_Wifi_BLE_SDK/GD32VW55x_RELEASE_V1.0.2/MSDK/wpa_supplicant/src/utils\wpabuf.c **** #ifdef WPA_TRACE
  16:C:/Users/stapi/OneDrive/Desktop/GD32VW553/V1_MQTT_OK/GD32VW55X_Wifi_BLE_SDK/GD32VW55x_RELEASE_V1.0.2/MSDK/wpa_supplicant/src/utils\wpabuf.c **** #define WPABUF_MAGIC 0x51a974e3
  17:C:/Users/stapi/OneDrive/Desktop/GD32VW553/V1_MQTT_OK/GD32VW55X_Wifi_BLE_SDK/GD32VW55x_RELEASE_V1.0.2/MSDK/wpa_supplicant/src/utils\wpabuf.c **** 
  18:C:/Users/stapi/OneDrive/Desktop/GD32VW553/V1_MQTT_OK/GD32VW55X_Wifi_BLE_SDK/GD32VW55x_RELEASE_V1.0.2/MSDK/wpa_supplicant/src/utils\wpabuf.c **** struct wpabuf_trace {
  19:C:/Users/stapi/OneDrive/Desktop/GD32VW553/V1_MQTT_OK/GD32VW55X_Wifi_BLE_SDK/GD32VW55x_RELEASE_V1.0.2/MSDK/wpa_supplicant/src/utils\wpabuf.c **** 	unsigned int magic;
  20:C:/Users/stapi/OneDrive/Desktop/GD32VW553/V1_MQTT_OK/GD32VW55X_Wifi_BLE_SDK/GD32VW55x_RELEASE_V1.0.2/MSDK/wpa_supplicant/src/utils\wpabuf.c **** } __attribute__((aligned(8)));
  21:C:/Users/stapi/OneDrive/Desktop/GD32VW553/V1_MQTT_OK/GD32VW55X_Wifi_BLE_SDK/GD32VW55x_RELEASE_V1.0.2/MSDK/wpa_supplicant/src/utils\wpabuf.c **** 
  22:C:/Users/stapi/OneDrive/Desktop/GD32VW553/V1_MQTT_OK/GD32VW55X_Wifi_BLE_SDK/GD32VW55x_RELEASE_V1.0.2/MSDK/wpa_supplicant/src/utils\wpabuf.c **** static struct wpabuf_trace * wpabuf_get_trace(const struct wpabuf *buf)
  23:C:/Users/stapi/OneDrive/Desktop/GD32VW553/V1_MQTT_OK/GD32VW55X_Wifi_BLE_SDK/GD32VW55x_RELEASE_V1.0.2/MSDK/wpa_supplicant/src/utils\wpabuf.c **** {
  24:C:/Users/stapi/OneDrive/Desktop/GD32VW553/V1_MQTT_OK/GD32VW55X_Wifi_BLE_SDK/GD32VW55x_RELEASE_V1.0.2/MSDK/wpa_supplicant/src/utils\wpabuf.c **** 	return (struct wpabuf_trace *)
  25:C:/Users/stapi/OneDrive/Desktop/GD32VW553/V1_MQTT_OK/GD32VW55X_Wifi_BLE_SDK/GD32VW55x_RELEASE_V1.0.2/MSDK/wpa_supplicant/src/utils\wpabuf.c **** 		((const u8 *) buf - sizeof(struct wpabuf_trace));
  26:C:/Users/stapi/OneDrive/Desktop/GD32VW553/V1_MQTT_OK/GD32VW55X_Wifi_BLE_SDK/GD32VW55x_RELEASE_V1.0.2/MSDK/wpa_supplicant/src/utils\wpabuf.c **** }
  27:C:/Users/stapi/OneDrive/Desktop/GD32VW553/V1_MQTT_OK/GD32VW55X_Wifi_BLE_SDK/GD32VW55x_RELEASE_V1.0.2/MSDK/wpa_supplicant/src/utils\wpabuf.c **** #endif /* WPA_TRACE */
  28:C:/Users/stapi/OneDrive/Desktop/GD32VW553/V1_MQTT_OK/GD32VW55X_Wifi_BLE_SDK/GD32VW55x_RELEASE_V1.0.2/MSDK/wpa_supplicant/src/utils\wpabuf.c **** 
  29:C:/Users/stapi/OneDrive/Desktop/GD32VW553/V1_MQTT_OK/GD32VW55X_Wifi_BLE_SDK/GD32VW55x_RELEASE_V1.0.2/MSDK/wpa_supplicant/src/utils\wpabuf.c **** 
  30:C:/Users/stapi/OneDrive/Desktop/GD32VW553/V1_MQTT_OK/GD32VW55X_Wifi_BLE_SDK/GD32VW55x_RELEASE_V1.0.2/MSDK/wpa_supplicant/src/utils\wpabuf.c **** static void wpabuf_overflow(const struct wpabuf *buf, size_t len)
  31:C:/Users/stapi/OneDrive/Desktop/GD32VW553/V1_MQTT_OK/GD32VW55X_Wifi_BLE_SDK/GD32VW55x_RELEASE_V1.0.2/MSDK/wpa_supplicant/src/utils\wpabuf.c **** {
  32:C:/Users/stapi/OneDrive/Desktop/GD32VW553/V1_MQTT_OK/GD32VW55X_Wifi_BLE_SDK/GD32VW55x_RELEASE_V1.0.2/MSDK/wpa_supplicant/src/utils\wpabuf.c **** #ifdef WPA_TRACE
  33:C:/Users/stapi/OneDrive/Desktop/GD32VW553/V1_MQTT_OK/GD32VW55X_Wifi_BLE_SDK/GD32VW55x_RELEASE_V1.0.2/MSDK/wpa_supplicant/src/utils\wpabuf.c **** 	struct wpabuf_trace *trace = wpabuf_get_trace(buf);
  34:C:/Users/stapi/OneDrive/Desktop/GD32VW553/V1_MQTT_OK/GD32VW55X_Wifi_BLE_SDK/GD32VW55x_RELEASE_V1.0.2/MSDK/wpa_supplicant/src/utils\wpabuf.c **** 	if (trace->magic != WPABUF_MAGIC) {
  35:C:/Users/stapi/OneDrive/Desktop/GD32VW553/V1_MQTT_OK/GD32VW55X_Wifi_BLE_SDK/GD32VW55x_RELEASE_V1.0.2/MSDK/wpa_supplicant/src/utils\wpabuf.c **** 		wpa_printf(MSG_ERROR, "wpabuf: invalid magic %x",
  36:C:/Users/stapi/OneDrive/Desktop/GD32VW553/V1_MQTT_OK/GD32VW55X_Wifi_BLE_SDK/GD32VW55x_RELEASE_V1.0.2/MSDK/wpa_supplicant/src/utils\wpabuf.c **** 			   trace->magic);
  37:C:/Users/stapi/OneDrive/Desktop/GD32VW553/V1_MQTT_OK/GD32VW55X_Wifi_BLE_SDK/GD32VW55x_RELEASE_V1.0.2/MSDK/wpa_supplicant/src/utils\wpabuf.c **** 	}
  38:C:/Users/stapi/OneDrive/Desktop/GD32VW553/V1_MQTT_OK/GD32VW55X_Wifi_BLE_SDK/GD32VW55x_RELEASE_V1.0.2/MSDK/wpa_supplicant/src/utils\wpabuf.c **** #endif /* WPA_TRACE */
  39:C:/Users/stapi/OneDrive/Desktop/GD32VW553/V1_MQTT_OK/GD32VW55X_Wifi_BLE_SDK/GD32VW55x_RELEASE_V1.0.2/MSDK/wpa_supplicant/src/utils\wpabuf.c **** 	wpa_printf(MSG_ERROR, "wpabuf %p (size=%lu used=%lu) overflow len=%lu",
  40:C:/Users/stapi/OneDrive/Desktop/GD32VW553/V1_MQTT_OK/GD32VW55X_Wifi_BLE_SDK/GD32VW55x_RELEASE_V1.0.2/MSDK/wpa_supplicant/src/utils\wpabuf.c **** 		   buf, (unsigned long) buf->size, (unsigned long) buf->used,
  41:C:/Users/stapi/OneDrive/Desktop/GD32VW553/V1_MQTT_OK/GD32VW55X_Wifi_BLE_SDK/GD32VW55x_RELEASE_V1.0.2/MSDK/wpa_supplicant/src/utils\wpabuf.c **** 		   (unsigned long) len);
  42:C:/Users/stapi/OneDrive/Desktop/GD32VW553/V1_MQTT_OK/GD32VW55X_Wifi_BLE_SDK/GD32VW55x_RELEASE_V1.0.2/MSDK/wpa_supplicant/src/utils\wpabuf.c **** 	wpa_trace_show("wpabuf overflow");
  43:C:/Users/stapi/OneDrive/Desktop/GD32VW553/V1_MQTT_OK/GD32VW55X_Wifi_BLE_SDK/GD32VW55x_RELEASE_V1.0.2/MSDK/wpa_supplicant/src/utils\wpabuf.c **** 	abort();
  44:C:/Users/stapi/OneDrive/Desktop/GD32VW553/V1_MQTT_OK/GD32VW55X_Wifi_BLE_SDK/GD32VW55x_RELEASE_V1.0.2/MSDK/wpa_supplicant/src/utils\wpabuf.c **** }
  45:C:/Users/stapi/OneDrive/Desktop/GD32VW553/V1_MQTT_OK/GD32VW55X_Wifi_BLE_SDK/GD32VW55x_RELEASE_V1.0.2/MSDK/wpa_supplicant/src/utils\wpabuf.c **** 
  46:C:/Users/stapi/OneDrive/Desktop/GD32VW553/V1_MQTT_OK/GD32VW55X_Wifi_BLE_SDK/GD32VW55x_RELEASE_V1.0.2/MSDK/wpa_supplicant/src/utils\wpabuf.c **** 
  47:C:/Users/stapi/OneDrive/Desktop/GD32VW553/V1_MQTT_OK/GD32VW55X_Wifi_BLE_SDK/GD32VW55x_RELEASE_V1.0.2/MSDK/wpa_supplicant/src/utils\wpabuf.c **** int wpabuf_resize(struct wpabuf **_buf, size_t add_len)
  48:C:/Users/stapi/OneDrive/Desktop/GD32VW553/V1_MQTT_OK/GD32VW55X_Wifi_BLE_SDK/GD32VW55x_RELEASE_V1.0.2/MSDK/wpa_supplicant/src/utils\wpabuf.c **** {
  49:C:/Users/stapi/OneDrive/Desktop/GD32VW553/V1_MQTT_OK/GD32VW55X_Wifi_BLE_SDK/GD32VW55x_RELEASE_V1.0.2/MSDK/wpa_supplicant/src/utils\wpabuf.c **** 	struct wpabuf *buf = *_buf;
  50:C:/Users/stapi/OneDrive/Desktop/GD32VW553/V1_MQTT_OK/GD32VW55X_Wifi_BLE_SDK/GD32VW55x_RELEASE_V1.0.2/MSDK/wpa_supplicant/src/utils\wpabuf.c **** #ifdef WPA_TRACE
  51:C:/Users/stapi/OneDrive/Desktop/GD32VW553/V1_MQTT_OK/GD32VW55X_Wifi_BLE_SDK/GD32VW55x_RELEASE_V1.0.2/MSDK/wpa_supplicant/src/utils\wpabuf.c **** 	struct wpabuf_trace *trace;
  52:C:/Users/stapi/OneDrive/Desktop/GD32VW553/V1_MQTT_OK/GD32VW55X_Wifi_BLE_SDK/GD32VW55x_RELEASE_V1.0.2/MSDK/wpa_supplicant/src/utils\wpabuf.c **** #endif /* WPA_TRACE */
  53:C:/Users/stapi/OneDrive/Desktop/GD32VW553/V1_MQTT_OK/GD32VW55X_Wifi_BLE_SDK/GD32VW55x_RELEASE_V1.0.2/MSDK/wpa_supplicant/src/utils\wpabuf.c **** 
  54:C:/Users/stapi/OneDrive/Desktop/GD32VW553/V1_MQTT_OK/GD32VW55X_Wifi_BLE_SDK/GD32VW55x_RELEASE_V1.0.2/MSDK/wpa_supplicant/src/utils\wpabuf.c **** 	if (buf == NULL) {
  55:C:/Users/stapi/OneDrive/Desktop/GD32VW553/V1_MQTT_OK/GD32VW55X_Wifi_BLE_SDK/GD32VW55x_RELEASE_V1.0.2/MSDK/wpa_supplicant/src/utils\wpabuf.c **** 		*_buf = wpabuf_alloc(add_len);
  56:C:/Users/stapi/OneDrive/Desktop/GD32VW553/V1_MQTT_OK/GD32VW55X_Wifi_BLE_SDK/GD32VW55x_RELEASE_V1.0.2/MSDK/wpa_supplicant/src/utils\wpabuf.c **** 		return *_buf == NULL ? -1 : 0;
  57:C:/Users/stapi/OneDrive/Desktop/GD32VW553/V1_MQTT_OK/GD32VW55X_Wifi_BLE_SDK/GD32VW55x_RELEASE_V1.0.2/MSDK/wpa_supplicant/src/utils\wpabuf.c **** 	}
  58:C:/Users/stapi/OneDrive/Desktop/GD32VW553/V1_MQTT_OK/GD32VW55X_Wifi_BLE_SDK/GD32VW55x_RELEASE_V1.0.2/MSDK/wpa_supplicant/src/utils\wpabuf.c **** 
  59:C:/Users/stapi/OneDrive/Desktop/GD32VW553/V1_MQTT_OK/GD32VW55X_Wifi_BLE_SDK/GD32VW55x_RELEASE_V1.0.2/MSDK/wpa_supplicant/src/utils\wpabuf.c **** #ifdef WPA_TRACE
  60:C:/Users/stapi/OneDrive/Desktop/GD32VW553/V1_MQTT_OK/GD32VW55X_Wifi_BLE_SDK/GD32VW55x_RELEASE_V1.0.2/MSDK/wpa_supplicant/src/utils\wpabuf.c **** 	trace = wpabuf_get_trace(buf);
  61:C:/Users/stapi/OneDrive/Desktop/GD32VW553/V1_MQTT_OK/GD32VW55X_Wifi_BLE_SDK/GD32VW55x_RELEASE_V1.0.2/MSDK/wpa_supplicant/src/utils\wpabuf.c **** 	if (trace->magic != WPABUF_MAGIC) {
  62:C:/Users/stapi/OneDrive/Desktop/GD32VW553/V1_MQTT_OK/GD32VW55X_Wifi_BLE_SDK/GD32VW55x_RELEASE_V1.0.2/MSDK/wpa_supplicant/src/utils\wpabuf.c **** 		wpa_printf(MSG_ERROR, "wpabuf: invalid magic %x",
  63:C:/Users/stapi/OneDrive/Desktop/GD32VW553/V1_MQTT_OK/GD32VW55X_Wifi_BLE_SDK/GD32VW55x_RELEASE_V1.0.2/MSDK/wpa_supplicant/src/utils\wpabuf.c **** 			   trace->magic);
  64:C:/Users/stapi/OneDrive/Desktop/GD32VW553/V1_MQTT_OK/GD32VW55X_Wifi_BLE_SDK/GD32VW55x_RELEASE_V1.0.2/MSDK/wpa_supplicant/src/utils\wpabuf.c **** 		wpa_trace_show("wpabuf_resize invalid magic");
  65:C:/Users/stapi/OneDrive/Desktop/GD32VW553/V1_MQTT_OK/GD32VW55X_Wifi_BLE_SDK/GD32VW55x_RELEASE_V1.0.2/MSDK/wpa_supplicant/src/utils\wpabuf.c **** 		abort();
  66:C:/Users/stapi/OneDrive/Desktop/GD32VW553/V1_MQTT_OK/GD32VW55X_Wifi_BLE_SDK/GD32VW55x_RELEASE_V1.0.2/MSDK/wpa_supplicant/src/utils\wpabuf.c **** 	}
  67:C:/Users/stapi/OneDrive/Desktop/GD32VW553/V1_MQTT_OK/GD32VW55X_Wifi_BLE_SDK/GD32VW55x_RELEASE_V1.0.2/MSDK/wpa_supplicant/src/utils\wpabuf.c **** #endif /* WPA_TRACE */
  68:C:/Users/stapi/OneDrive/Desktop/GD32VW553/V1_MQTT_OK/GD32VW55X_Wifi_BLE_SDK/GD32VW55x_RELEASE_V1.0.2/MSDK/wpa_supplicant/src/utils\wpabuf.c **** 
  69:C:/Users/stapi/OneDrive/Desktop/GD32VW553/V1_MQTT_OK/GD32VW55X_Wifi_BLE_SDK/GD32VW55x_RELEASE_V1.0.2/MSDK/wpa_supplicant/src/utils\wpabuf.c **** 	if (buf->used + add_len > buf->size) {
  70:C:/Users/stapi/OneDrive/Desktop/GD32VW553/V1_MQTT_OK/GD32VW55X_Wifi_BLE_SDK/GD32VW55x_RELEASE_V1.0.2/MSDK/wpa_supplicant/src/utils\wpabuf.c **** 		unsigned char *nbuf;
  71:C:/Users/stapi/OneDrive/Desktop/GD32VW553/V1_MQTT_OK/GD32VW55X_Wifi_BLE_SDK/GD32VW55x_RELEASE_V1.0.2/MSDK/wpa_supplicant/src/utils\wpabuf.c **** 		if (buf->flags & WPABUF_FLAG_EXT_DATA) {
  72:C:/Users/stapi/OneDrive/Desktop/GD32VW553/V1_MQTT_OK/GD32VW55X_Wifi_BLE_SDK/GD32VW55x_RELEASE_V1.0.2/MSDK/wpa_supplicant/src/utils\wpabuf.c **** 			nbuf = os_realloc(buf->buf, buf->used + add_len);
  73:C:/Users/stapi/OneDrive/Desktop/GD32VW553/V1_MQTT_OK/GD32VW55X_Wifi_BLE_SDK/GD32VW55x_RELEASE_V1.0.2/MSDK/wpa_supplicant/src/utils\wpabuf.c **** 			if (nbuf == NULL)
  74:C:/Users/stapi/OneDrive/Desktop/GD32VW553/V1_MQTT_OK/GD32VW55X_Wifi_BLE_SDK/GD32VW55x_RELEASE_V1.0.2/MSDK/wpa_supplicant/src/utils\wpabuf.c **** 				return -1;
  75:C:/Users/stapi/OneDrive/Desktop/GD32VW553/V1_MQTT_OK/GD32VW55X_Wifi_BLE_SDK/GD32VW55x_RELEASE_V1.0.2/MSDK/wpa_supplicant/src/utils\wpabuf.c **** 			os_memset(nbuf + buf->used, 0, add_len);
  76:C:/Users/stapi/OneDrive/Desktop/GD32VW553/V1_MQTT_OK/GD32VW55X_Wifi_BLE_SDK/GD32VW55x_RELEASE_V1.0.2/MSDK/wpa_supplicant/src/utils\wpabuf.c **** 			buf->buf = nbuf;
  77:C:/Users/stapi/OneDrive/Desktop/GD32VW553/V1_MQTT_OK/GD32VW55X_Wifi_BLE_SDK/GD32VW55x_RELEASE_V1.0.2/MSDK/wpa_supplicant/src/utils\wpabuf.c **** 		} else {
  78:C:/Users/stapi/OneDrive/Desktop/GD32VW553/V1_MQTT_OK/GD32VW55X_Wifi_BLE_SDK/GD32VW55x_RELEASE_V1.0.2/MSDK/wpa_supplicant/src/utils\wpabuf.c **** #ifdef WPA_TRACE
  79:C:/Users/stapi/OneDrive/Desktop/GD32VW553/V1_MQTT_OK/GD32VW55X_Wifi_BLE_SDK/GD32VW55x_RELEASE_V1.0.2/MSDK/wpa_supplicant/src/utils\wpabuf.c **** 			nbuf = os_realloc(trace, sizeof(struct wpabuf_trace) +
  80:C:/Users/stapi/OneDrive/Desktop/GD32VW553/V1_MQTT_OK/GD32VW55X_Wifi_BLE_SDK/GD32VW55x_RELEASE_V1.0.2/MSDK/wpa_supplicant/src/utils\wpabuf.c **** 					  sizeof(struct wpabuf) +
  81:C:/Users/stapi/OneDrive/Desktop/GD32VW553/V1_MQTT_OK/GD32VW55X_Wifi_BLE_SDK/GD32VW55x_RELEASE_V1.0.2/MSDK/wpa_supplicant/src/utils\wpabuf.c **** 					  buf->used + add_len);
  82:C:/Users/stapi/OneDrive/Desktop/GD32VW553/V1_MQTT_OK/GD32VW55X_Wifi_BLE_SDK/GD32VW55x_RELEASE_V1.0.2/MSDK/wpa_supplicant/src/utils\wpabuf.c **** 			if (nbuf == NULL)
  83:C:/Users/stapi/OneDrive/Desktop/GD32VW553/V1_MQTT_OK/GD32VW55X_Wifi_BLE_SDK/GD32VW55x_RELEASE_V1.0.2/MSDK/wpa_supplicant/src/utils\wpabuf.c **** 				return -1;
  84:C:/Users/stapi/OneDrive/Desktop/GD32VW553/V1_MQTT_OK/GD32VW55X_Wifi_BLE_SDK/GD32VW55x_RELEASE_V1.0.2/MSDK/wpa_supplicant/src/utils\wpabuf.c **** 			trace = (struct wpabuf_trace *) nbuf;
  85:C:/Users/stapi/OneDrive/Desktop/GD32VW553/V1_MQTT_OK/GD32VW55X_Wifi_BLE_SDK/GD32VW55x_RELEASE_V1.0.2/MSDK/wpa_supplicant/src/utils\wpabuf.c **** 			buf = (struct wpabuf *) (trace + 1);
  86:C:/Users/stapi/OneDrive/Desktop/GD32VW553/V1_MQTT_OK/GD32VW55X_Wifi_BLE_SDK/GD32VW55x_RELEASE_V1.0.2/MSDK/wpa_supplicant/src/utils\wpabuf.c **** 			os_memset(nbuf + sizeof(struct wpabuf_trace) +
  87:C:/Users/stapi/OneDrive/Desktop/GD32VW553/V1_MQTT_OK/GD32VW55X_Wifi_BLE_SDK/GD32VW55x_RELEASE_V1.0.2/MSDK/wpa_supplicant/src/utils\wpabuf.c **** 				  sizeof(struct wpabuf) + buf->used, 0,
  88:C:/Users/stapi/OneDrive/Desktop/GD32VW553/V1_MQTT_OK/GD32VW55X_Wifi_BLE_SDK/GD32VW55x_RELEASE_V1.0.2/MSDK/wpa_supplicant/src/utils\wpabuf.c **** 				  add_len);
  89:C:/Users/stapi/OneDrive/Desktop/GD32VW553/V1_MQTT_OK/GD32VW55X_Wifi_BLE_SDK/GD32VW55x_RELEASE_V1.0.2/MSDK/wpa_supplicant/src/utils\wpabuf.c **** #else /* WPA_TRACE */
  90:C:/Users/stapi/OneDrive/Desktop/GD32VW553/V1_MQTT_OK/GD32VW55X_Wifi_BLE_SDK/GD32VW55x_RELEASE_V1.0.2/MSDK/wpa_supplicant/src/utils\wpabuf.c **** 			nbuf = os_realloc(buf, sizeof(struct wpabuf) +
  91:C:/Users/stapi/OneDrive/Desktop/GD32VW553/V1_MQTT_OK/GD32VW55X_Wifi_BLE_SDK/GD32VW55x_RELEASE_V1.0.2/MSDK/wpa_supplicant/src/utils\wpabuf.c **** 					  buf->used + add_len);
  92:C:/Users/stapi/OneDrive/Desktop/GD32VW553/V1_MQTT_OK/GD32VW55X_Wifi_BLE_SDK/GD32VW55x_RELEASE_V1.0.2/MSDK/wpa_supplicant/src/utils\wpabuf.c **** 			if (nbuf == NULL)
  93:C:/Users/stapi/OneDrive/Desktop/GD32VW553/V1_MQTT_OK/GD32VW55X_Wifi_BLE_SDK/GD32VW55x_RELEASE_V1.0.2/MSDK/wpa_supplicant/src/utils\wpabuf.c **** 				return -1;
  94:C:/Users/stapi/OneDrive/Desktop/GD32VW553/V1_MQTT_OK/GD32VW55X_Wifi_BLE_SDK/GD32VW55x_RELEASE_V1.0.2/MSDK/wpa_supplicant/src/utils\wpabuf.c **** 			buf = (struct wpabuf *) nbuf;
  95:C:/Users/stapi/OneDrive/Desktop/GD32VW553/V1_MQTT_OK/GD32VW55X_Wifi_BLE_SDK/GD32VW55x_RELEASE_V1.0.2/MSDK/wpa_supplicant/src/utils\wpabuf.c **** 			os_memset(nbuf + sizeof(struct wpabuf) + buf->used, 0,
  96:C:/Users/stapi/OneDrive/Desktop/GD32VW553/V1_MQTT_OK/GD32VW55X_Wifi_BLE_SDK/GD32VW55x_RELEASE_V1.0.2/MSDK/wpa_supplicant/src/utils\wpabuf.c **** 				  add_len);
  97:C:/Users/stapi/OneDrive/Desktop/GD32VW553/V1_MQTT_OK/GD32VW55X_Wifi_BLE_SDK/GD32VW55x_RELEASE_V1.0.2/MSDK/wpa_supplicant/src/utils\wpabuf.c **** #endif /* WPA_TRACE */
  98:C:/Users/stapi/OneDrive/Desktop/GD32VW553/V1_MQTT_OK/GD32VW55X_Wifi_BLE_SDK/GD32VW55x_RELEASE_V1.0.2/MSDK/wpa_supplicant/src/utils\wpabuf.c **** 			buf->buf = (u8 *) (buf + 1);
  99:C:/Users/stapi/OneDrive/Desktop/GD32VW553/V1_MQTT_OK/GD32VW55X_Wifi_BLE_SDK/GD32VW55x_RELEASE_V1.0.2/MSDK/wpa_supplicant/src/utils\wpabuf.c **** 			*_buf = buf;
 100:C:/Users/stapi/OneDrive/Desktop/GD32VW553/V1_MQTT_OK/GD32VW55X_Wifi_BLE_SDK/GD32VW55x_RELEASE_V1.0.2/MSDK/wpa_supplicant/src/utils\wpabuf.c **** 		}
 101:C:/Users/stapi/OneDrive/Desktop/GD32VW553/V1_MQTT_OK/GD32VW55X_Wifi_BLE_SDK/GD32VW55x_RELEASE_V1.0.2/MSDK/wpa_supplicant/src/utils\wpabuf.c **** 		buf->size = buf->used + add_len;
 102:C:/Users/stapi/OneDrive/Desktop/GD32VW553/V1_MQTT_OK/GD32VW55X_Wifi_BLE_SDK/GD32VW55x_RELEASE_V1.0.2/MSDK/wpa_supplicant/src/utils\wpabuf.c **** 	}
 103:C:/Users/stapi/OneDrive/Desktop/GD32VW553/V1_MQTT_OK/GD32VW55X_Wifi_BLE_SDK/GD32VW55x_RELEASE_V1.0.2/MSDK/wpa_supplicant/src/utils\wpabuf.c **** 
 104:C:/Users/stapi/OneDrive/Desktop/GD32VW553/V1_MQTT_OK/GD32VW55X_Wifi_BLE_SDK/GD32VW55x_RELEASE_V1.0.2/MSDK/wpa_supplicant/src/utils\wpabuf.c **** 	return 0;
 105:C:/Users/stapi/OneDrive/Desktop/GD32VW553/V1_MQTT_OK/GD32VW55X_Wifi_BLE_SDK/GD32VW55x_RELEASE_V1.0.2/MSDK/wpa_supplicant/src/utils\wpabuf.c **** }
 106:C:/Users/stapi/OneDrive/Desktop/GD32VW553/V1_MQTT_OK/GD32VW55X_Wifi_BLE_SDK/GD32VW55x_RELEASE_V1.0.2/MSDK/wpa_supplicant/src/utils\wpabuf.c **** 
 107:C:/Users/stapi/OneDrive/Desktop/GD32VW553/V1_MQTT_OK/GD32VW55X_Wifi_BLE_SDK/GD32VW55x_RELEASE_V1.0.2/MSDK/wpa_supplicant/src/utils\wpabuf.c **** 
 108:C:/Users/stapi/OneDrive/Desktop/GD32VW553/V1_MQTT_OK/GD32VW55X_Wifi_BLE_SDK/GD32VW55x_RELEASE_V1.0.2/MSDK/wpa_supplicant/src/utils\wpabuf.c **** /**
 109:C:/Users/stapi/OneDrive/Desktop/GD32VW553/V1_MQTT_OK/GD32VW55X_Wifi_BLE_SDK/GD32VW55x_RELEASE_V1.0.2/MSDK/wpa_supplicant/src/utils\wpabuf.c ****  * wpabuf_alloc - Allocate a wpabuf of the given size
 110:C:/Users/stapi/OneDrive/Desktop/GD32VW553/V1_MQTT_OK/GD32VW55X_Wifi_BLE_SDK/GD32VW55x_RELEASE_V1.0.2/MSDK/wpa_supplicant/src/utils\wpabuf.c ****  * @len: Length for the allocated buffer
 111:C:/Users/stapi/OneDrive/Desktop/GD32VW553/V1_MQTT_OK/GD32VW55X_Wifi_BLE_SDK/GD32VW55x_RELEASE_V1.0.2/MSDK/wpa_supplicant/src/utils\wpabuf.c ****  * Returns: Buffer to the allocated wpabuf or %NULL on failure
 112:C:/Users/stapi/OneDrive/Desktop/GD32VW553/V1_MQTT_OK/GD32VW55X_Wifi_BLE_SDK/GD32VW55x_RELEASE_V1.0.2/MSDK/wpa_supplicant/src/utils\wpabuf.c ****  */
 113:C:/Users/stapi/OneDrive/Desktop/GD32VW553/V1_MQTT_OK/GD32VW55X_Wifi_BLE_SDK/GD32VW55x_RELEASE_V1.0.2/MSDK/wpa_supplicant/src/utils\wpabuf.c **** struct wpabuf * wpabuf_alloc(size_t len)
 114:C:/Users/stapi/OneDrive/Desktop/GD32VW553/V1_MQTT_OK/GD32VW55X_Wifi_BLE_SDK/GD32VW55x_RELEASE_V1.0.2/MSDK/wpa_supplicant/src/utils\wpabuf.c **** {
  16              		.loc 1 114 1
  17              		.cfi_startproc
  18              	.LVL0:
  19 0000 17030000 		call	t0,__riscv_save_1
  19      E7020300 
  20              		.cfi_offset 8, -8
  21              		.cfi_offset 1, -4
  22              		.cfi_def_cfa_offset 16
 115:C:/Users/stapi/OneDrive/Desktop/GD32VW553/V1_MQTT_OK/GD32VW55X_Wifi_BLE_SDK/GD32VW55x_RELEASE_V1.0.2/MSDK/wpa_supplicant/src/utils\wpabuf.c **** #ifdef WPA_TRACE
 116:C:/Users/stapi/OneDrive/Desktop/GD32VW553/V1_MQTT_OK/GD32VW55X_Wifi_BLE_SDK/GD32VW55x_RELEASE_V1.0.2/MSDK/wpa_supplicant/src/utils\wpabuf.c **** 	struct wpabuf_trace *trace = os_zalloc(sizeof(struct wpabuf_trace) +
 117:C:/Users/stapi/OneDrive/Desktop/GD32VW553/V1_MQTT_OK/GD32VW55X_Wifi_BLE_SDK/GD32VW55x_RELEASE_V1.0.2/MSDK/wpa_supplicant/src/utils\wpabuf.c **** 					       sizeof(struct wpabuf) + len);
 118:C:/Users/stapi/OneDrive/Desktop/GD32VW553/V1_MQTT_OK/GD32VW55X_Wifi_BLE_SDK/GD32VW55x_RELEASE_V1.0.2/MSDK/wpa_supplicant/src/utils\wpabuf.c **** 	struct wpabuf *buf;
 119:C:/Users/stapi/OneDrive/Desktop/GD32VW553/V1_MQTT_OK/GD32VW55X_Wifi_BLE_SDK/GD32VW55x_RELEASE_V1.0.2/MSDK/wpa_supplicant/src/utils\wpabuf.c **** 	if (trace == NULL)
 120:C:/Users/stapi/OneDrive/Desktop/GD32VW553/V1_MQTT_OK/GD32VW55X_Wifi_BLE_SDK/GD32VW55x_RELEASE_V1.0.2/MSDK/wpa_supplicant/src/utils\wpabuf.c **** 		return NULL;
 121:C:/Users/stapi/OneDrive/Desktop/GD32VW553/V1_MQTT_OK/GD32VW55X_Wifi_BLE_SDK/GD32VW55x_RELEASE_V1.0.2/MSDK/wpa_supplicant/src/utils\wpabuf.c **** 	trace->magic = WPABUF_MAGIC;
 122:C:/Users/stapi/OneDrive/Desktop/GD32VW553/V1_MQTT_OK/GD32VW55X_Wifi_BLE_SDK/GD32VW55x_RELEASE_V1.0.2/MSDK/wpa_supplicant/src/utils\wpabuf.c **** 	buf = (struct wpabuf *) (trace + 1);
 123:C:/Users/stapi/OneDrive/Desktop/GD32VW553/V1_MQTT_OK/GD32VW55X_Wifi_BLE_SDK/GD32VW55x_RELEASE_V1.0.2/MSDK/wpa_supplicant/src/utils\wpabuf.c **** #else /* WPA_TRACE */
 124:C:/Users/stapi/OneDrive/Desktop/GD32VW553/V1_MQTT_OK/GD32VW55X_Wifi_BLE_SDK/GD32VW55x_RELEASE_V1.0.2/MSDK/wpa_supplicant/src/utils\wpabuf.c **** 	struct wpabuf *buf = os_zalloc(sizeof(struct wpabuf) + len);
  23              		.loc 1 124 2
 114:C:/Users/stapi/OneDrive/Desktop/GD32VW553/V1_MQTT_OK/GD32VW55X_Wifi_BLE_SDK/GD32VW55x_RELEASE_V1.0.2/MSDK/wpa_supplicant/src/utils\wpabuf.c **** #ifdef WPA_TRACE
  24              		.loc 1 114 1 is_stmt 0
  25 0008 2A84     		mv	s0,a0
  26              		.loc 1 124 23
  27 000a 4105     		addi	a0,a0,16
  28              	.LVL1:
  29 000c 97000000 		call	os_zalloc
  29      E7800000 
  30              	.LVL2:
 125:C:/Users/stapi/OneDrive/Desktop/GD32VW553/V1_MQTT_OK/GD32VW55X_Wifi_BLE_SDK/GD32VW55x_RELEASE_V1.0.2/MSDK/wpa_supplicant/src/utils\wpabuf.c **** 	if (buf == NULL)
  31              		.loc 1 125 2 is_stmt 1
  32              		.loc 1 125 5 is_stmt 0
  33 0014 09C5     		beq	a0,zero,.L1
 126:C:/Users/stapi/OneDrive/Desktop/GD32VW553/V1_MQTT_OK/GD32VW55X_Wifi_BLE_SDK/GD32VW55x_RELEASE_V1.0.2/MSDK/wpa_supplicant/src/utils\wpabuf.c **** 		return NULL;
 127:C:/Users/stapi/OneDrive/Desktop/GD32VW553/V1_MQTT_OK/GD32VW55X_Wifi_BLE_SDK/GD32VW55x_RELEASE_V1.0.2/MSDK/wpa_supplicant/src/utils\wpabuf.c **** #endif /* WPA_TRACE */
 128:C:/Users/stapi/OneDrive/Desktop/GD32VW553/V1_MQTT_OK/GD32VW55X_Wifi_BLE_SDK/GD32VW55x_RELEASE_V1.0.2/MSDK/wpa_supplicant/src/utils\wpabuf.c **** 
 129:C:/Users/stapi/OneDrive/Desktop/GD32VW553/V1_MQTT_OK/GD32VW55X_Wifi_BLE_SDK/GD32VW55x_RELEASE_V1.0.2/MSDK/wpa_supplicant/src/utils\wpabuf.c **** 	buf->size = len;
  34              		.loc 1 129 2 is_stmt 1
 130:C:/Users/stapi/OneDrive/Desktop/GD32VW553/V1_MQTT_OK/GD32VW55X_Wifi_BLE_SDK/GD32VW55x_RELEASE_V1.0.2/MSDK/wpa_supplicant/src/utils\wpabuf.c **** 	buf->buf = (u8 *) (buf + 1);
  35              		.loc 1 130 25 is_stmt 0
  36 0016 93070501 		addi	a5,a0,16
 129:C:/Users/stapi/OneDrive/Desktop/GD32VW553/V1_MQTT_OK/GD32VW55X_Wifi_BLE_SDK/GD32VW55x_RELEASE_V1.0.2/MSDK/wpa_supplicant/src/utils\wpabuf.c **** 	buf->buf = (u8 *) (buf + 1);
  37              		.loc 1 129 12
  38 001a 00C1     		sw	s0,0(a0)
  39              		.loc 1 130 2 is_stmt 1
  40              		.loc 1 130 11 is_stmt 0
  41 001c 1CC5     		sw	a5,8(a0)
 131:C:/Users/stapi/OneDrive/Desktop/GD32VW553/V1_MQTT_OK/GD32VW55X_Wifi_BLE_SDK/GD32VW55x_RELEASE_V1.0.2/MSDK/wpa_supplicant/src/utils\wpabuf.c **** 	return buf;
  42              		.loc 1 131 2 is_stmt 1
  43              	.L1:
 132:C:/Users/stapi/OneDrive/Desktop/GD32VW553/V1_MQTT_OK/GD32VW55X_Wifi_BLE_SDK/GD32VW55x_RELEASE_V1.0.2/MSDK/wpa_supplicant/src/utils\wpabuf.c **** }
  44              		.loc 1 132 1 is_stmt 0
  45 001e 17030000 		tail	__riscv_restore_1
  45      67000300 
  46              		.cfi_restore 8
  47              		.cfi_restore 1
  48              		.cfi_def_cfa_offset 0
  49              		.cfi_endproc
  50              	.LFE73:
  52              		.section	.text.wpabuf_resize,"ax",@progbits
  53              		.align	1
  54              		.globl	wpabuf_resize
  56              	wpabuf_resize:
  57              	.LFB72:
  48:C:/Users/stapi/OneDrive/Desktop/GD32VW553/V1_MQTT_OK/GD32VW55X_Wifi_BLE_SDK/GD32VW55x_RELEASE_V1.0.2/MSDK/wpa_supplicant/src/utils\wpabuf.c **** 	struct wpabuf *buf = *_buf;
  58              		.loc 1 48 1 is_stmt 1
  59              		.cfi_startproc
  60              	.LVL3:
  61 0000 17030000 		call	t0,__riscv_save_3
  61      E7020300 
  62              		.cfi_offset 18, -16
  63              		.cfi_offset 9, -12
  64              		.cfi_offset 8, -8
  65              		.cfi_offset 1, -4
  66              		.cfi_def_cfa_offset 16
  49:C:/Users/stapi/OneDrive/Desktop/GD32VW553/V1_MQTT_OK/GD32VW55X_Wifi_BLE_SDK/GD32VW55x_RELEASE_V1.0.2/MSDK/wpa_supplicant/src/utils\wpabuf.c **** #ifdef WPA_TRACE
  67              		.loc 1 49 2
  49:C:/Users/stapi/OneDrive/Desktop/GD32VW553/V1_MQTT_OK/GD32VW55X_Wifi_BLE_SDK/GD32VW55x_RELEASE_V1.0.2/MSDK/wpa_supplicant/src/utils\wpabuf.c **** #ifdef WPA_TRACE
  68              		.loc 1 49 17 is_stmt 0
  69 0008 0041     		lw	s0,0(a0)
  70              	.LVL4:
  54:C:/Users/stapi/OneDrive/Desktop/GD32VW553/V1_MQTT_OK/GD32VW55X_Wifi_BLE_SDK/GD32VW55x_RELEASE_V1.0.2/MSDK/wpa_supplicant/src/utils\wpabuf.c **** 		*_buf = wpabuf_alloc(add_len);
  71              		.loc 1 54 2 is_stmt 1
  48:C:/Users/stapi/OneDrive/Desktop/GD32VW553/V1_MQTT_OK/GD32VW55X_Wifi_BLE_SDK/GD32VW55x_RELEASE_V1.0.2/MSDK/wpa_supplicant/src/utils\wpabuf.c **** 	struct wpabuf *buf = *_buf;
  72              		.loc 1 48 1 is_stmt 0
  73 000a 2A89     		mv	s2,a0
  74 000c AE84     		mv	s1,a1
  54:C:/Users/stapi/OneDrive/Desktop/GD32VW553/V1_MQTT_OK/GD32VW55X_Wifi_BLE_SDK/GD32VW55x_RELEASE_V1.0.2/MSDK/wpa_supplicant/src/utils\wpabuf.c **** 		*_buf = wpabuf_alloc(add_len);
  75              		.loc 1 54 5
  76 000e 05E0     		bne	s0,zero,.L8
  55:C:/Users/stapi/OneDrive/Desktop/GD32VW553/V1_MQTT_OK/GD32VW55X_Wifi_BLE_SDK/GD32VW55x_RELEASE_V1.0.2/MSDK/wpa_supplicant/src/utils\wpabuf.c **** 		return *_buf == NULL ? -1 : 0;
  77              		.loc 1 55 3 is_stmt 1
  55:C:/Users/stapi/OneDrive/Desktop/GD32VW553/V1_MQTT_OK/GD32VW55X_Wifi_BLE_SDK/GD32VW55x_RELEASE_V1.0.2/MSDK/wpa_supplicant/src/utils\wpabuf.c **** 		return *_buf == NULL ? -1 : 0;
  78              		.loc 1 55 11 is_stmt 0
  79 0010 2E85     		mv	a0,a1
  80              	.LVL5:
  81 0012 97000000 		call	wpabuf_alloc
  81      E7800000 
  82              	.LVL6:
  55:C:/Users/stapi/OneDrive/Desktop/GD32VW553/V1_MQTT_OK/GD32VW55X_Wifi_BLE_SDK/GD32VW55x_RELEASE_V1.0.2/MSDK/wpa_supplicant/src/utils\wpabuf.c **** 		return *_buf == NULL ? -1 : 0;
  83              		.loc 1 55 9
  84 001a 2320A900 		sw	a0,0(s2)
  56:C:/Users/stapi/OneDrive/Desktop/GD32VW553/V1_MQTT_OK/GD32VW55X_Wifi_BLE_SDK/GD32VW55x_RELEASE_V1.0.2/MSDK/wpa_supplicant/src/utils\wpabuf.c **** 	}
  85              		.loc 1 56 3 is_stmt 1
  56:C:/Users/stapi/OneDrive/Desktop/GD32VW553/V1_MQTT_OK/GD32VW55X_Wifi_BLE_SDK/GD32VW55x_RELEASE_V1.0.2/MSDK/wpa_supplicant/src/utils\wpabuf.c **** 	}
  86              		.loc 1 56 29 is_stmt 0
  87 001e 13351500 		seqz	a0,a0
  88 0022 3305A040 		neg	a0,a0
  89              	.LVL7:
  90              	.L7:
 105:C:/Users/stapi/OneDrive/Desktop/GD32VW553/V1_MQTT_OK/GD32VW55X_Wifi_BLE_SDK/GD32VW55x_RELEASE_V1.0.2/MSDK/wpa_supplicant/src/utils\wpabuf.c **** 
  91              		.loc 1 105 1
  92 0026 17030000 		tail	__riscv_restore_3
  92      67000300 
  93              		.cfi_remember_state
  94              		.cfi_restore 18
  95              		.cfi_restore 9
  96              		.cfi_restore 8
  97              		.cfi_restore 1
  98              		.cfi_def_cfa_offset 0
  99              	.LVL8:
 100              	.L8:
 101              		.cfi_restore_state
  69:C:/Users/stapi/OneDrive/Desktop/GD32VW553/V1_MQTT_OK/GD32VW55X_Wifi_BLE_SDK/GD32VW55x_RELEASE_V1.0.2/MSDK/wpa_supplicant/src/utils\wpabuf.c **** 		unsigned char *nbuf;
 102              		.loc 1 69 2 is_stmt 1
  69:C:/Users/stapi/OneDrive/Desktop/GD32VW553/V1_MQTT_OK/GD32VW55X_Wifi_BLE_SDK/GD32VW55x_RELEASE_V1.0.2/MSDK/wpa_supplicant/src/utils\wpabuf.c **** 		unsigned char *nbuf;
 103              		.loc 1 69 16 is_stmt 0
 104 002e 4C40     		lw	a1,4(s0)
  69:C:/Users/stapi/OneDrive/Desktop/GD32VW553/V1_MQTT_OK/GD32VW55X_Wifi_BLE_SDK/GD32VW55x_RELEASE_V1.0.2/MSDK/wpa_supplicant/src/utils\wpabuf.c **** 		unsigned char *nbuf;
 105              		.loc 1 69 5
 106 0030 1C40     		lw	a5,0(s0)
 104:C:/Users/stapi/OneDrive/Desktop/GD32VW553/V1_MQTT_OK/GD32VW55X_Wifi_BLE_SDK/GD32VW55x_RELEASE_V1.0.2/MSDK/wpa_supplicant/src/utils\wpabuf.c **** }
 107              		.loc 1 104 9
 108 0032 0145     		li	a0,0
 109              	.LVL9:
  69:C:/Users/stapi/OneDrive/Desktop/GD32VW553/V1_MQTT_OK/GD32VW55X_Wifi_BLE_SDK/GD32VW55x_RELEASE_V1.0.2/MSDK/wpa_supplicant/src/utils\wpabuf.c **** 		unsigned char *nbuf;
 110              		.loc 1 69 16
 111 0034 A695     		add	a1,s1,a1
  69:C:/Users/stapi/OneDrive/Desktop/GD32VW553/V1_MQTT_OK/GD32VW55X_Wifi_BLE_SDK/GD32VW55x_RELEASE_V1.0.2/MSDK/wpa_supplicant/src/utils\wpabuf.c **** 		unsigned char *nbuf;
 112              		.loc 1 69 5
 113 0036 E3F8B7FE 		bleu	a1,a5,.L7
 114              	.LBB36:
  70:C:/Users/stapi/OneDrive/Desktop/GD32VW553/V1_MQTT_OK/GD32VW55X_Wifi_BLE_SDK/GD32VW55x_RELEASE_V1.0.2/MSDK/wpa_supplicant/src/utils\wpabuf.c **** 		if (buf->flags & WPABUF_FLAG_EXT_DATA) {
 115              		.loc 1 70 3 is_stmt 1
  71:C:/Users/stapi/OneDrive/Desktop/GD32VW553/V1_MQTT_OK/GD32VW55X_Wifi_BLE_SDK/GD32VW55x_RELEASE_V1.0.2/MSDK/wpa_supplicant/src/utils\wpabuf.c **** 			nbuf = os_realloc(buf->buf, buf->used + add_len);
 116              		.loc 1 71 3
  71:C:/Users/stapi/OneDrive/Desktop/GD32VW553/V1_MQTT_OK/GD32VW55X_Wifi_BLE_SDK/GD32VW55x_RELEASE_V1.0.2/MSDK/wpa_supplicant/src/utils\wpabuf.c **** 			nbuf = os_realloc(buf->buf, buf->used + add_len);
 117              		.loc 1 71 18 is_stmt 0
 118 003a 5C44     		lw	a5,12(s0)
 119 003c 858B     		andi	a5,a5,1
  71:C:/Users/stapi/OneDrive/Desktop/GD32VW553/V1_MQTT_OK/GD32VW55X_Wifi_BLE_SDK/GD32VW55x_RELEASE_V1.0.2/MSDK/wpa_supplicant/src/utils\wpabuf.c **** 			nbuf = os_realloc(buf->buf, buf->used + add_len);
 120              		.loc 1 71 6
 121 003e 8DCB     		beq	a5,zero,.L10
  72:C:/Users/stapi/OneDrive/Desktop/GD32VW553/V1_MQTT_OK/GD32VW55X_Wifi_BLE_SDK/GD32VW55x_RELEASE_V1.0.2/MSDK/wpa_supplicant/src/utils\wpabuf.c **** 			if (nbuf == NULL)
 122              		.loc 1 72 4 is_stmt 1
  72:C:/Users/stapi/OneDrive/Desktop/GD32VW553/V1_MQTT_OK/GD32VW55X_Wifi_BLE_SDK/GD32VW55x_RELEASE_V1.0.2/MSDK/wpa_supplicant/src/utils\wpabuf.c **** 			if (nbuf == NULL)
 123              		.loc 1 72 11 is_stmt 0
 124 0040 0844     		lw	a0,8(s0)
 125 0042 97000000 		call	os_realloc
 125      E7800000 
 126              	.LVL10:
 127 004a 2A89     		mv	s2,a0
 128              	.LVL11:
  73:C:/Users/stapi/OneDrive/Desktop/GD32VW553/V1_MQTT_OK/GD32VW55X_Wifi_BLE_SDK/GD32VW55x_RELEASE_V1.0.2/MSDK/wpa_supplicant/src/utils\wpabuf.c **** 				return -1;
 129              		.loc 1 73 4 is_stmt 1
  73:C:/Users/stapi/OneDrive/Desktop/GD32VW553/V1_MQTT_OK/GD32VW55X_Wifi_BLE_SDK/GD32VW55x_RELEASE_V1.0.2/MSDK/wpa_supplicant/src/utils\wpabuf.c **** 				return -1;
 130              		.loc 1 73 7 is_stmt 0
 131 004c 19E1     		bne	a0,zero,.L11
 132              	.LVL12:
 133              	.L13:
  74:C:/Users/stapi/OneDrive/Desktop/GD32VW553/V1_MQTT_OK/GD32VW55X_Wifi_BLE_SDK/GD32VW55x_RELEASE_V1.0.2/MSDK/wpa_supplicant/src/utils\wpabuf.c **** 			os_memset(nbuf + buf->used, 0, add_len);
 134              		.loc 1 74 12
 135 004e 7D55     		li	a0,-1
 136              	.LVL13:
 137 0050 D9BF     		j	.L7
 138              	.LVL14:
 139              	.L11:
  75:C:/Users/stapi/OneDrive/Desktop/GD32VW553/V1_MQTT_OK/GD32VW55X_Wifi_BLE_SDK/GD32VW55x_RELEASE_V1.0.2/MSDK/wpa_supplicant/src/utils\wpabuf.c **** 			buf->buf = nbuf;
 140              		.loc 1 75 4 is_stmt 1
  75:C:/Users/stapi/OneDrive/Desktop/GD32VW553/V1_MQTT_OK/GD32VW55X_Wifi_BLE_SDK/GD32VW55x_RELEASE_V1.0.2/MSDK/wpa_supplicant/src/utils\wpabuf.c **** 			buf->buf = nbuf;
 141              		.loc 1 75 19 is_stmt 0
 142 0052 4840     		lw	a0,4(s0)
 143              	.LVL15:
  75:C:/Users/stapi/OneDrive/Desktop/GD32VW553/V1_MQTT_OK/GD32VW55X_Wifi_BLE_SDK/GD32VW55x_RELEASE_V1.0.2/MSDK/wpa_supplicant/src/utils\wpabuf.c **** 			buf->buf = nbuf;
 144              		.loc 1 75 4
 145 0054 2686     		mv	a2,s1
 146 0056 8145     		li	a1,0
 147 0058 4A95     		add	a0,s2,a0
 148 005a 97000000 		call	os_memset
 148      E7800000 
 149              	.LVL16:
  76:C:/Users/stapi/OneDrive/Desktop/GD32VW553/V1_MQTT_OK/GD32VW55X_Wifi_BLE_SDK/GD32VW55x_RELEASE_V1.0.2/MSDK/wpa_supplicant/src/utils\wpabuf.c **** 		} else {
 150              		.loc 1 76 4 is_stmt 1
  76:C:/Users/stapi/OneDrive/Desktop/GD32VW553/V1_MQTT_OK/GD32VW55X_Wifi_BLE_SDK/GD32VW55x_RELEASE_V1.0.2/MSDK/wpa_supplicant/src/utils\wpabuf.c **** 		} else {
 151              		.loc 1 76 13 is_stmt 0
 152 0062 23242401 		sw	s2,8(s0)
 153              	.LVL17:
 154              	.L12:
 101:C:/Users/stapi/OneDrive/Desktop/GD32VW553/V1_MQTT_OK/GD32VW55X_Wifi_BLE_SDK/GD32VW55x_RELEASE_V1.0.2/MSDK/wpa_supplicant/src/utils\wpabuf.c **** 	}
 155              		.loc 1 101 3 is_stmt 1
 101:C:/Users/stapi/OneDrive/Desktop/GD32VW553/V1_MQTT_OK/GD32VW55X_Wifi_BLE_SDK/GD32VW55x_RELEASE_V1.0.2/MSDK/wpa_supplicant/src/utils\wpabuf.c **** 	}
 156              		.loc 1 101 25 is_stmt 0
 157 0066 4C40     		lw	a1,4(s0)
 158              	.LBE36:
 104:C:/Users/stapi/OneDrive/Desktop/GD32VW553/V1_MQTT_OK/GD32VW55X_Wifi_BLE_SDK/GD32VW55x_RELEASE_V1.0.2/MSDK/wpa_supplicant/src/utils\wpabuf.c **** }
 159              		.loc 1 104 9
 160 0068 0145     		li	a0,0
 161              	.LBB37:
 101:C:/Users/stapi/OneDrive/Desktop/GD32VW553/V1_MQTT_OK/GD32VW55X_Wifi_BLE_SDK/GD32VW55x_RELEASE_V1.0.2/MSDK/wpa_supplicant/src/utils\wpabuf.c **** 	}
 162              		.loc 1 101 25
 163 006a A695     		add	a1,a1,s1
 101:C:/Users/stapi/OneDrive/Desktop/GD32VW553/V1_MQTT_OK/GD32VW55X_Wifi_BLE_SDK/GD32VW55x_RELEASE_V1.0.2/MSDK/wpa_supplicant/src/utils\wpabuf.c **** 	}
 164              		.loc 1 101 13
 165 006c 0CC0     		sw	a1,0(s0)
 166 006e 65BF     		j	.L7
 167              	.LVL18:
 168              	.L10:
  90:C:/Users/stapi/OneDrive/Desktop/GD32VW553/V1_MQTT_OK/GD32VW55X_Wifi_BLE_SDK/GD32VW55x_RELEASE_V1.0.2/MSDK/wpa_supplicant/src/utils\wpabuf.c **** 					  buf->used + add_len);
 169              		.loc 1 90 4 is_stmt 1
  90:C:/Users/stapi/OneDrive/Desktop/GD32VW553/V1_MQTT_OK/GD32VW55X_Wifi_BLE_SDK/GD32VW55x_RELEASE_V1.0.2/MSDK/wpa_supplicant/src/utils\wpabuf.c **** 					  buf->used + add_len);
 170              		.loc 1 90 11 is_stmt 0
 171 0070 2285     		mv	a0,s0
 172 0072 C105     		addi	a1,a1,16
 173 0074 97000000 		call	os_realloc
 173      E7800000 
 174              	.LVL19:
 175 007c 2A84     		mv	s0,a0
 176              	.LVL20:
  92:C:/Users/stapi/OneDrive/Desktop/GD32VW553/V1_MQTT_OK/GD32VW55X_Wifi_BLE_SDK/GD32VW55x_RELEASE_V1.0.2/MSDK/wpa_supplicant/src/utils\wpabuf.c **** 				return -1;
 177              		.loc 1 92 4 is_stmt 1
  92:C:/Users/stapi/OneDrive/Desktop/GD32VW553/V1_MQTT_OK/GD32VW55X_Wifi_BLE_SDK/GD32VW55x_RELEASE_V1.0.2/MSDK/wpa_supplicant/src/utils\wpabuf.c **** 				return -1;
 178              		.loc 1 92 7 is_stmt 0
 179 007e 61D9     		beq	a0,zero,.L13
  94:C:/Users/stapi/OneDrive/Desktop/GD32VW553/V1_MQTT_OK/GD32VW55X_Wifi_BLE_SDK/GD32VW55x_RELEASE_V1.0.2/MSDK/wpa_supplicant/src/utils\wpabuf.c **** 			os_memset(nbuf + sizeof(struct wpabuf) + buf->used, 0,
 180              		.loc 1 94 4 is_stmt 1
 181              	.LVL21:
  95:C:/Users/stapi/OneDrive/Desktop/GD32VW553/V1_MQTT_OK/GD32VW55X_Wifi_BLE_SDK/GD32VW55x_RELEASE_V1.0.2/MSDK/wpa_supplicant/src/utils\wpabuf.c **** 				  add_len);
 182              		.loc 1 95 4
  95:C:/Users/stapi/OneDrive/Desktop/GD32VW553/V1_MQTT_OK/GD32VW55X_Wifi_BLE_SDK/GD32VW55x_RELEASE_V1.0.2/MSDK/wpa_supplicant/src/utils\wpabuf.c **** 				  add_len);
 183              		.loc 1 95 43 is_stmt 0
 184 0080 4841     		lw	a0,4(a0)
  95:C:/Users/stapi/OneDrive/Desktop/GD32VW553/V1_MQTT_OK/GD32VW55X_Wifi_BLE_SDK/GD32VW55x_RELEASE_V1.0.2/MSDK/wpa_supplicant/src/utils\wpabuf.c **** 				  add_len);
 185              		.loc 1 95 4
 186 0082 2686     		mv	a2,s1
 187 0084 8145     		li	a1,0
  95:C:/Users/stapi/OneDrive/Desktop/GD32VW553/V1_MQTT_OK/GD32VW55X_Wifi_BLE_SDK/GD32VW55x_RELEASE_V1.0.2/MSDK/wpa_supplicant/src/utils\wpabuf.c **** 				  add_len);
 188              		.loc 1 95 43
 189 0086 4105     		addi	a0,a0,16
  95:C:/Users/stapi/OneDrive/Desktop/GD32VW553/V1_MQTT_OK/GD32VW55X_Wifi_BLE_SDK/GD32VW55x_RELEASE_V1.0.2/MSDK/wpa_supplicant/src/utils\wpabuf.c **** 				  add_len);
 190              		.loc 1 95 4
 191 0088 2295     		add	a0,s0,a0
 192 008a 97000000 		call	os_memset
 192      E7800000 
 193              	.LVL22:
  98:C:/Users/stapi/OneDrive/Desktop/GD32VW553/V1_MQTT_OK/GD32VW55X_Wifi_BLE_SDK/GD32VW55x_RELEASE_V1.0.2/MSDK/wpa_supplicant/src/utils\wpabuf.c **** 			*_buf = buf;
 194              		.loc 1 98 4 is_stmt 1
  98:C:/Users/stapi/OneDrive/Desktop/GD32VW553/V1_MQTT_OK/GD32VW55X_Wifi_BLE_SDK/GD32VW55x_RELEASE_V1.0.2/MSDK/wpa_supplicant/src/utils\wpabuf.c **** 			*_buf = buf;
 195              		.loc 1 98 27 is_stmt 0
 196 0092 93070401 		addi	a5,s0,16
  98:C:/Users/stapi/OneDrive/Desktop/GD32VW553/V1_MQTT_OK/GD32VW55X_Wifi_BLE_SDK/GD32VW55x_RELEASE_V1.0.2/MSDK/wpa_supplicant/src/utils\wpabuf.c **** 			*_buf = buf;
 197              		.loc 1 98 13
 198 0096 1CC4     		sw	a5,8(s0)
  99:C:/Users/stapi/OneDrive/Desktop/GD32VW553/V1_MQTT_OK/GD32VW55X_Wifi_BLE_SDK/GD32VW55x_RELEASE_V1.0.2/MSDK/wpa_supplicant/src/utils\wpabuf.c **** 		}
 199              		.loc 1 99 4 is_stmt 1
  99:C:/Users/stapi/OneDrive/Desktop/GD32VW553/V1_MQTT_OK/GD32VW55X_Wifi_BLE_SDK/GD32VW55x_RELEASE_V1.0.2/MSDK/wpa_supplicant/src/utils\wpabuf.c **** 		}
 200              		.loc 1 99 10 is_stmt 0
 201 0098 23208900 		sw	s0,0(s2)
 202 009c E9B7     		j	.L12
 203              	.LBE37:
 204              		.cfi_endproc
 205              	.LFE72:
 207              		.section	.text.wpabuf_alloc_ext_data,"ax",@progbits
 208              		.align	1
 209              		.globl	wpabuf_alloc_ext_data
 211              	wpabuf_alloc_ext_data:
 212              	.LFB74:
 133:C:/Users/stapi/OneDrive/Desktop/GD32VW553/V1_MQTT_OK/GD32VW55X_Wifi_BLE_SDK/GD32VW55x_RELEASE_V1.0.2/MSDK/wpa_supplicant/src/utils\wpabuf.c **** 
 134:C:/Users/stapi/OneDrive/Desktop/GD32VW553/V1_MQTT_OK/GD32VW55X_Wifi_BLE_SDK/GD32VW55x_RELEASE_V1.0.2/MSDK/wpa_supplicant/src/utils\wpabuf.c **** 
 135:C:/Users/stapi/OneDrive/Desktop/GD32VW553/V1_MQTT_OK/GD32VW55X_Wifi_BLE_SDK/GD32VW55x_RELEASE_V1.0.2/MSDK/wpa_supplicant/src/utils\wpabuf.c **** struct wpabuf * wpabuf_alloc_ext_data(u8 *data, size_t len)
 136:C:/Users/stapi/OneDrive/Desktop/GD32VW553/V1_MQTT_OK/GD32VW55X_Wifi_BLE_SDK/GD32VW55x_RELEASE_V1.0.2/MSDK/wpa_supplicant/src/utils\wpabuf.c **** {
 213              		.loc 1 136 1 is_stmt 1
 214              		.cfi_startproc
 215              	.LVL23:
 216 0000 17030000 		call	t0,__riscv_save_2
 216      E7020300 
 217              		.cfi_offset 9, -12
 218              		.cfi_offset 8, -8
 219              		.cfi_offset 1, -4
 220              		.cfi_def_cfa_offset 16
 137:C:/Users/stapi/OneDrive/Desktop/GD32VW553/V1_MQTT_OK/GD32VW55X_Wifi_BLE_SDK/GD32VW55x_RELEASE_V1.0.2/MSDK/wpa_supplicant/src/utils\wpabuf.c **** #ifdef WPA_TRACE
 138:C:/Users/stapi/OneDrive/Desktop/GD32VW553/V1_MQTT_OK/GD32VW55X_Wifi_BLE_SDK/GD32VW55x_RELEASE_V1.0.2/MSDK/wpa_supplicant/src/utils\wpabuf.c **** 	struct wpabuf_trace *trace = os_zalloc(sizeof(struct wpabuf_trace) +
 139:C:/Users/stapi/OneDrive/Desktop/GD32VW553/V1_MQTT_OK/GD32VW55X_Wifi_BLE_SDK/GD32VW55x_RELEASE_V1.0.2/MSDK/wpa_supplicant/src/utils\wpabuf.c **** 					       sizeof(struct wpabuf));
 140:C:/Users/stapi/OneDrive/Desktop/GD32VW553/V1_MQTT_OK/GD32VW55X_Wifi_BLE_SDK/GD32VW55x_RELEASE_V1.0.2/MSDK/wpa_supplicant/src/utils\wpabuf.c **** 	struct wpabuf *buf;
 141:C:/Users/stapi/OneDrive/Desktop/GD32VW553/V1_MQTT_OK/GD32VW55X_Wifi_BLE_SDK/GD32VW55x_RELEASE_V1.0.2/MSDK/wpa_supplicant/src/utils\wpabuf.c **** 	if (trace == NULL)
 142:C:/Users/stapi/OneDrive/Desktop/GD32VW553/V1_MQTT_OK/GD32VW55X_Wifi_BLE_SDK/GD32VW55x_RELEASE_V1.0.2/MSDK/wpa_supplicant/src/utils\wpabuf.c **** 		return NULL;
 143:C:/Users/stapi/OneDrive/Desktop/GD32VW553/V1_MQTT_OK/GD32VW55X_Wifi_BLE_SDK/GD32VW55x_RELEASE_V1.0.2/MSDK/wpa_supplicant/src/utils\wpabuf.c **** 	trace->magic = WPABUF_MAGIC;
 144:C:/Users/stapi/OneDrive/Desktop/GD32VW553/V1_MQTT_OK/GD32VW55X_Wifi_BLE_SDK/GD32VW55x_RELEASE_V1.0.2/MSDK/wpa_supplicant/src/utils\wpabuf.c **** 	buf = (struct wpabuf *) (trace + 1);
 145:C:/Users/stapi/OneDrive/Desktop/GD32VW553/V1_MQTT_OK/GD32VW55X_Wifi_BLE_SDK/GD32VW55x_RELEASE_V1.0.2/MSDK/wpa_supplicant/src/utils\wpabuf.c **** #else /* WPA_TRACE */
 146:C:/Users/stapi/OneDrive/Desktop/GD32VW553/V1_MQTT_OK/GD32VW55X_Wifi_BLE_SDK/GD32VW55x_RELEASE_V1.0.2/MSDK/wpa_supplicant/src/utils\wpabuf.c **** 	struct wpabuf *buf = os_zalloc(sizeof(struct wpabuf));
 221              		.loc 1 146 2
 136:C:/Users/stapi/OneDrive/Desktop/GD32VW553/V1_MQTT_OK/GD32VW55X_Wifi_BLE_SDK/GD32VW55x_RELEASE_V1.0.2/MSDK/wpa_supplicant/src/utils\wpabuf.c **** #ifdef WPA_TRACE
 222              		.loc 1 136 1 is_stmt 0
 223 0008 AA84     		mv	s1,a0
 224              		.loc 1 146 23
 225 000a 4145     		li	a0,16
 226              	.LVL24:
 136:C:/Users/stapi/OneDrive/Desktop/GD32VW553/V1_MQTT_OK/GD32VW55X_Wifi_BLE_SDK/GD32VW55x_RELEASE_V1.0.2/MSDK/wpa_supplicant/src/utils\wpabuf.c **** #ifdef WPA_TRACE
 227              		.loc 1 136 1
 228 000c 2E84     		mv	s0,a1
 229              		.loc 1 146 23
 230 000e 97000000 		call	os_zalloc
 230      E7800000 
 231              	.LVL25:
 147:C:/Users/stapi/OneDrive/Desktop/GD32VW553/V1_MQTT_OK/GD32VW55X_Wifi_BLE_SDK/GD32VW55x_RELEASE_V1.0.2/MSDK/wpa_supplicant/src/utils\wpabuf.c **** 	if (buf == NULL)
 232              		.loc 1 147 2 is_stmt 1
 233              		.loc 1 147 5 is_stmt 0
 234 0016 01C9     		beq	a0,zero,.L19
 148:C:/Users/stapi/OneDrive/Desktop/GD32VW553/V1_MQTT_OK/GD32VW55X_Wifi_BLE_SDK/GD32VW55x_RELEASE_V1.0.2/MSDK/wpa_supplicant/src/utils\wpabuf.c **** 		return NULL;
 149:C:/Users/stapi/OneDrive/Desktop/GD32VW553/V1_MQTT_OK/GD32VW55X_Wifi_BLE_SDK/GD32VW55x_RELEASE_V1.0.2/MSDK/wpa_supplicant/src/utils\wpabuf.c **** #endif /* WPA_TRACE */
 150:C:/Users/stapi/OneDrive/Desktop/GD32VW553/V1_MQTT_OK/GD32VW55X_Wifi_BLE_SDK/GD32VW55x_RELEASE_V1.0.2/MSDK/wpa_supplicant/src/utils\wpabuf.c **** 
 151:C:/Users/stapi/OneDrive/Desktop/GD32VW553/V1_MQTT_OK/GD32VW55X_Wifi_BLE_SDK/GD32VW55x_RELEASE_V1.0.2/MSDK/wpa_supplicant/src/utils\wpabuf.c **** 	buf->size = len;
 235              		.loc 1 151 2 is_stmt 1
 152:C:/Users/stapi/OneDrive/Desktop/GD32VW553/V1_MQTT_OK/GD32VW55X_Wifi_BLE_SDK/GD32VW55x_RELEASE_V1.0.2/MSDK/wpa_supplicant/src/utils\wpabuf.c **** 	buf->used = len;
 153:C:/Users/stapi/OneDrive/Desktop/GD32VW553/V1_MQTT_OK/GD32VW55X_Wifi_BLE_SDK/GD32VW55x_RELEASE_V1.0.2/MSDK/wpa_supplicant/src/utils\wpabuf.c **** 	buf->buf = data;
 154:C:/Users/stapi/OneDrive/Desktop/GD32VW553/V1_MQTT_OK/GD32VW55X_Wifi_BLE_SDK/GD32VW55x_RELEASE_V1.0.2/MSDK/wpa_supplicant/src/utils\wpabuf.c **** 	buf->flags |= WPABUF_FLAG_EXT_DATA;
 236              		.loc 1 154 13 is_stmt 0
 237 0018 5C45     		lw	a5,12(a0)
 151:C:/Users/stapi/OneDrive/Desktop/GD32VW553/V1_MQTT_OK/GD32VW55X_Wifi_BLE_SDK/GD32VW55x_RELEASE_V1.0.2/MSDK/wpa_supplicant/src/utils\wpabuf.c **** 	buf->used = len;
 238              		.loc 1 151 12
 239 001a 00C1     		sw	s0,0(a0)
 152:C:/Users/stapi/OneDrive/Desktop/GD32VW553/V1_MQTT_OK/GD32VW55X_Wifi_BLE_SDK/GD32VW55x_RELEASE_V1.0.2/MSDK/wpa_supplicant/src/utils\wpabuf.c **** 	buf->used = len;
 240              		.loc 1 152 2 is_stmt 1
 152:C:/Users/stapi/OneDrive/Desktop/GD32VW553/V1_MQTT_OK/GD32VW55X_Wifi_BLE_SDK/GD32VW55x_RELEASE_V1.0.2/MSDK/wpa_supplicant/src/utils\wpabuf.c **** 	buf->used = len;
 241              		.loc 1 152 12 is_stmt 0
 242 001c 40C1     		sw	s0,4(a0)
 153:C:/Users/stapi/OneDrive/Desktop/GD32VW553/V1_MQTT_OK/GD32VW55X_Wifi_BLE_SDK/GD32VW55x_RELEASE_V1.0.2/MSDK/wpa_supplicant/src/utils\wpabuf.c **** 	buf->flags |= WPABUF_FLAG_EXT_DATA;
 243              		.loc 1 153 2 is_stmt 1
 244              		.loc 1 154 13 is_stmt 0
 245 001e 93E71700 		ori	a5,a5,1
 153:C:/Users/stapi/OneDrive/Desktop/GD32VW553/V1_MQTT_OK/GD32VW55X_Wifi_BLE_SDK/GD32VW55x_RELEASE_V1.0.2/MSDK/wpa_supplicant/src/utils\wpabuf.c **** 	buf->flags |= WPABUF_FLAG_EXT_DATA;
 246              		.loc 1 153 11
 247 0022 04C5     		sw	s1,8(a0)
 248              		.loc 1 154 2 is_stmt 1
 249              		.loc 1 154 13 is_stmt 0
 250 0024 5CC5     		sw	a5,12(a0)
 155:C:/Users/stapi/OneDrive/Desktop/GD32VW553/V1_MQTT_OK/GD32VW55X_Wifi_BLE_SDK/GD32VW55x_RELEASE_V1.0.2/MSDK/wpa_supplicant/src/utils\wpabuf.c **** 
 156:C:/Users/stapi/OneDrive/Desktop/GD32VW553/V1_MQTT_OK/GD32VW55X_Wifi_BLE_SDK/GD32VW55x_RELEASE_V1.0.2/MSDK/wpa_supplicant/src/utils\wpabuf.c **** 	return buf;
 251              		.loc 1 156 2 is_stmt 1
 252              	.L19:
 157:C:/Users/stapi/OneDrive/Desktop/GD32VW553/V1_MQTT_OK/GD32VW55X_Wifi_BLE_SDK/GD32VW55x_RELEASE_V1.0.2/MSDK/wpa_supplicant/src/utils\wpabuf.c **** }
 253              		.loc 1 157 1 is_stmt 0
 254 0026 17030000 		tail	__riscv_restore_2
 254      67000300 
 255              		.cfi_restore 9
 256              		.cfi_restore 8
 257              		.cfi_restore 1
 258              		.cfi_def_cfa_offset 0
 259              		.cfi_endproc
 260              	.LFE74:
 262              		.section	.text.wpabuf_free,"ax",@progbits
 263              		.align	1
 264              		.globl	wpabuf_free
 266              	wpabuf_free:
 267              	.LFB77:
 158:C:/Users/stapi/OneDrive/Desktop/GD32VW553/V1_MQTT_OK/GD32VW55X_Wifi_BLE_SDK/GD32VW55x_RELEASE_V1.0.2/MSDK/wpa_supplicant/src/utils\wpabuf.c **** 
 159:C:/Users/stapi/OneDrive/Desktop/GD32VW553/V1_MQTT_OK/GD32VW55X_Wifi_BLE_SDK/GD32VW55x_RELEASE_V1.0.2/MSDK/wpa_supplicant/src/utils\wpabuf.c **** 
 160:C:/Users/stapi/OneDrive/Desktop/GD32VW553/V1_MQTT_OK/GD32VW55X_Wifi_BLE_SDK/GD32VW55x_RELEASE_V1.0.2/MSDK/wpa_supplicant/src/utils\wpabuf.c **** struct wpabuf * wpabuf_alloc_copy(const void *data, size_t len)
 161:C:/Users/stapi/OneDrive/Desktop/GD32VW553/V1_MQTT_OK/GD32VW55X_Wifi_BLE_SDK/GD32VW55x_RELEASE_V1.0.2/MSDK/wpa_supplicant/src/utils\wpabuf.c **** {
 162:C:/Users/stapi/OneDrive/Desktop/GD32VW553/V1_MQTT_OK/GD32VW55X_Wifi_BLE_SDK/GD32VW55x_RELEASE_V1.0.2/MSDK/wpa_supplicant/src/utils\wpabuf.c **** 	struct wpabuf *buf = wpabuf_alloc(len);
 163:C:/Users/stapi/OneDrive/Desktop/GD32VW553/V1_MQTT_OK/GD32VW55X_Wifi_BLE_SDK/GD32VW55x_RELEASE_V1.0.2/MSDK/wpa_supplicant/src/utils\wpabuf.c **** 	if (buf)
 164:C:/Users/stapi/OneDrive/Desktop/GD32VW553/V1_MQTT_OK/GD32VW55X_Wifi_BLE_SDK/GD32VW55x_RELEASE_V1.0.2/MSDK/wpa_supplicant/src/utils\wpabuf.c **** 		wpabuf_put_data(buf, data, len);
 165:C:/Users/stapi/OneDrive/Desktop/GD32VW553/V1_MQTT_OK/GD32VW55X_Wifi_BLE_SDK/GD32VW55x_RELEASE_V1.0.2/MSDK/wpa_supplicant/src/utils\wpabuf.c **** 	return buf;
 166:C:/Users/stapi/OneDrive/Desktop/GD32VW553/V1_MQTT_OK/GD32VW55X_Wifi_BLE_SDK/GD32VW55x_RELEASE_V1.0.2/MSDK/wpa_supplicant/src/utils\wpabuf.c **** }
 167:C:/Users/stapi/OneDrive/Desktop/GD32VW553/V1_MQTT_OK/GD32VW55X_Wifi_BLE_SDK/GD32VW55x_RELEASE_V1.0.2/MSDK/wpa_supplicant/src/utils\wpabuf.c **** 
 168:C:/Users/stapi/OneDrive/Desktop/GD32VW553/V1_MQTT_OK/GD32VW55X_Wifi_BLE_SDK/GD32VW55x_RELEASE_V1.0.2/MSDK/wpa_supplicant/src/utils\wpabuf.c **** 
 169:C:/Users/stapi/OneDrive/Desktop/GD32VW553/V1_MQTT_OK/GD32VW55X_Wifi_BLE_SDK/GD32VW55x_RELEASE_V1.0.2/MSDK/wpa_supplicant/src/utils\wpabuf.c **** struct wpabuf * wpabuf_dup(const struct wpabuf *src)
 170:C:/Users/stapi/OneDrive/Desktop/GD32VW553/V1_MQTT_OK/GD32VW55X_Wifi_BLE_SDK/GD32VW55x_RELEASE_V1.0.2/MSDK/wpa_supplicant/src/utils\wpabuf.c **** {
 171:C:/Users/stapi/OneDrive/Desktop/GD32VW553/V1_MQTT_OK/GD32VW55X_Wifi_BLE_SDK/GD32VW55x_RELEASE_V1.0.2/MSDK/wpa_supplicant/src/utils\wpabuf.c **** 	struct wpabuf *buf = wpabuf_alloc(wpabuf_len(src));
 172:C:/Users/stapi/OneDrive/Desktop/GD32VW553/V1_MQTT_OK/GD32VW55X_Wifi_BLE_SDK/GD32VW55x_RELEASE_V1.0.2/MSDK/wpa_supplicant/src/utils\wpabuf.c **** 	if (buf)
 173:C:/Users/stapi/OneDrive/Desktop/GD32VW553/V1_MQTT_OK/GD32VW55X_Wifi_BLE_SDK/GD32VW55x_RELEASE_V1.0.2/MSDK/wpa_supplicant/src/utils\wpabuf.c **** 		wpabuf_put_data(buf, wpabuf_head(src), wpabuf_len(src));
 174:C:/Users/stapi/OneDrive/Desktop/GD32VW553/V1_MQTT_OK/GD32VW55X_Wifi_BLE_SDK/GD32VW55x_RELEASE_V1.0.2/MSDK/wpa_supplicant/src/utils\wpabuf.c **** 	return buf;
 175:C:/Users/stapi/OneDrive/Desktop/GD32VW553/V1_MQTT_OK/GD32VW55X_Wifi_BLE_SDK/GD32VW55x_RELEASE_V1.0.2/MSDK/wpa_supplicant/src/utils\wpabuf.c **** }
 176:C:/Users/stapi/OneDrive/Desktop/GD32VW553/V1_MQTT_OK/GD32VW55X_Wifi_BLE_SDK/GD32VW55x_RELEASE_V1.0.2/MSDK/wpa_supplicant/src/utils\wpabuf.c **** 
 177:C:/Users/stapi/OneDrive/Desktop/GD32VW553/V1_MQTT_OK/GD32VW55X_Wifi_BLE_SDK/GD32VW55x_RELEASE_V1.0.2/MSDK/wpa_supplicant/src/utils\wpabuf.c **** 
 178:C:/Users/stapi/OneDrive/Desktop/GD32VW553/V1_MQTT_OK/GD32VW55X_Wifi_BLE_SDK/GD32VW55x_RELEASE_V1.0.2/MSDK/wpa_supplicant/src/utils\wpabuf.c **** /**
 179:C:/Users/stapi/OneDrive/Desktop/GD32VW553/V1_MQTT_OK/GD32VW55X_Wifi_BLE_SDK/GD32VW55x_RELEASE_V1.0.2/MSDK/wpa_supplicant/src/utils\wpabuf.c ****  * wpabuf_free - Free a wpabuf
 180:C:/Users/stapi/OneDrive/Desktop/GD32VW553/V1_MQTT_OK/GD32VW55X_Wifi_BLE_SDK/GD32VW55x_RELEASE_V1.0.2/MSDK/wpa_supplicant/src/utils\wpabuf.c ****  * @buf: wpabuf buffer
 181:C:/Users/stapi/OneDrive/Desktop/GD32VW553/V1_MQTT_OK/GD32VW55X_Wifi_BLE_SDK/GD32VW55x_RELEASE_V1.0.2/MSDK/wpa_supplicant/src/utils\wpabuf.c ****  */
 182:C:/Users/stapi/OneDrive/Desktop/GD32VW553/V1_MQTT_OK/GD32VW55X_Wifi_BLE_SDK/GD32VW55x_RELEASE_V1.0.2/MSDK/wpa_supplicant/src/utils\wpabuf.c **** void wpabuf_free(struct wpabuf *buf)
 183:C:/Users/stapi/OneDrive/Desktop/GD32VW553/V1_MQTT_OK/GD32VW55X_Wifi_BLE_SDK/GD32VW55x_RELEASE_V1.0.2/MSDK/wpa_supplicant/src/utils\wpabuf.c **** {
 268              		.loc 1 183 1 is_stmt 1
 269              		.cfi_startproc
 270              	.LVL26:
 184:C:/Users/stapi/OneDrive/Desktop/GD32VW553/V1_MQTT_OK/GD32VW55X_Wifi_BLE_SDK/GD32VW55x_RELEASE_V1.0.2/MSDK/wpa_supplicant/src/utils\wpabuf.c **** #ifdef WPA_TRACE
 185:C:/Users/stapi/OneDrive/Desktop/GD32VW553/V1_MQTT_OK/GD32VW55X_Wifi_BLE_SDK/GD32VW55x_RELEASE_V1.0.2/MSDK/wpa_supplicant/src/utils\wpabuf.c **** 	struct wpabuf_trace *trace;
 186:C:/Users/stapi/OneDrive/Desktop/GD32VW553/V1_MQTT_OK/GD32VW55X_Wifi_BLE_SDK/GD32VW55x_RELEASE_V1.0.2/MSDK/wpa_supplicant/src/utils\wpabuf.c **** 	if (buf == NULL)
 187:C:/Users/stapi/OneDrive/Desktop/GD32VW553/V1_MQTT_OK/GD32VW55X_Wifi_BLE_SDK/GD32VW55x_RELEASE_V1.0.2/MSDK/wpa_supplicant/src/utils\wpabuf.c **** 		return;
 188:C:/Users/stapi/OneDrive/Desktop/GD32VW553/V1_MQTT_OK/GD32VW55X_Wifi_BLE_SDK/GD32VW55x_RELEASE_V1.0.2/MSDK/wpa_supplicant/src/utils\wpabuf.c **** 	trace = wpabuf_get_trace(buf);
 189:C:/Users/stapi/OneDrive/Desktop/GD32VW553/V1_MQTT_OK/GD32VW55X_Wifi_BLE_SDK/GD32VW55x_RELEASE_V1.0.2/MSDK/wpa_supplicant/src/utils\wpabuf.c **** 	if (trace->magic != WPABUF_MAGIC) {
 190:C:/Users/stapi/OneDrive/Desktop/GD32VW553/V1_MQTT_OK/GD32VW55X_Wifi_BLE_SDK/GD32VW55x_RELEASE_V1.0.2/MSDK/wpa_supplicant/src/utils\wpabuf.c **** 		wpa_printf(MSG_ERROR, "wpabuf_free: invalid magic %x",
 191:C:/Users/stapi/OneDrive/Desktop/GD32VW553/V1_MQTT_OK/GD32VW55X_Wifi_BLE_SDK/GD32VW55x_RELEASE_V1.0.2/MSDK/wpa_supplicant/src/utils\wpabuf.c **** 			   trace->magic);
 192:C:/Users/stapi/OneDrive/Desktop/GD32VW553/V1_MQTT_OK/GD32VW55X_Wifi_BLE_SDK/GD32VW55x_RELEASE_V1.0.2/MSDK/wpa_supplicant/src/utils\wpabuf.c **** 		wpa_trace_show("wpabuf_free magic mismatch");
 193:C:/Users/stapi/OneDrive/Desktop/GD32VW553/V1_MQTT_OK/GD32VW55X_Wifi_BLE_SDK/GD32VW55x_RELEASE_V1.0.2/MSDK/wpa_supplicant/src/utils\wpabuf.c **** 		abort();
 194:C:/Users/stapi/OneDrive/Desktop/GD32VW553/V1_MQTT_OK/GD32VW55X_Wifi_BLE_SDK/GD32VW55x_RELEASE_V1.0.2/MSDK/wpa_supplicant/src/utils\wpabuf.c **** 	}
 195:C:/Users/stapi/OneDrive/Desktop/GD32VW553/V1_MQTT_OK/GD32VW55X_Wifi_BLE_SDK/GD32VW55x_RELEASE_V1.0.2/MSDK/wpa_supplicant/src/utils\wpabuf.c **** 	if (buf->flags & WPABUF_FLAG_EXT_DATA)
 196:C:/Users/stapi/OneDrive/Desktop/GD32VW553/V1_MQTT_OK/GD32VW55X_Wifi_BLE_SDK/GD32VW55x_RELEASE_V1.0.2/MSDK/wpa_supplicant/src/utils\wpabuf.c **** 		os_free(buf->buf);
 197:C:/Users/stapi/OneDrive/Desktop/GD32VW553/V1_MQTT_OK/GD32VW55X_Wifi_BLE_SDK/GD32VW55x_RELEASE_V1.0.2/MSDK/wpa_supplicant/src/utils\wpabuf.c **** 	os_free(trace);
 198:C:/Users/stapi/OneDrive/Desktop/GD32VW553/V1_MQTT_OK/GD32VW55X_Wifi_BLE_SDK/GD32VW55x_RELEASE_V1.0.2/MSDK/wpa_supplicant/src/utils\wpabuf.c **** #else /* WPA_TRACE */
 199:C:/Users/stapi/OneDrive/Desktop/GD32VW553/V1_MQTT_OK/GD32VW55X_Wifi_BLE_SDK/GD32VW55x_RELEASE_V1.0.2/MSDK/wpa_supplicant/src/utils\wpabuf.c **** 	if (buf == NULL)
 271              		.loc 1 199 2
 272              		.loc 1 199 5 is_stmt 0
 273 0000 1DC5     		beq	a0,zero,.L35
 183:C:/Users/stapi/OneDrive/Desktop/GD32VW553/V1_MQTT_OK/GD32VW55X_Wifi_BLE_SDK/GD32VW55x_RELEASE_V1.0.2/MSDK/wpa_supplicant/src/utils\wpabuf.c **** #ifdef WPA_TRACE
 274              		.loc 1 183 1
 275 0002 17030000 		call	t0,__riscv_save_1
 275      E7020300 
 276              		.cfi_offset 8, -8
 277              		.cfi_offset 1, -4
 278              		.cfi_def_cfa_offset 16
 200:C:/Users/stapi/OneDrive/Desktop/GD32VW553/V1_MQTT_OK/GD32VW55X_Wifi_BLE_SDK/GD32VW55x_RELEASE_V1.0.2/MSDK/wpa_supplicant/src/utils\wpabuf.c **** 		return;
 201:C:/Users/stapi/OneDrive/Desktop/GD32VW553/V1_MQTT_OK/GD32VW55X_Wifi_BLE_SDK/GD32VW55x_RELEASE_V1.0.2/MSDK/wpa_supplicant/src/utils\wpabuf.c **** 	if (buf->flags & WPABUF_FLAG_EXT_DATA)
 279              		.loc 1 201 17
 280 000a 5C45     		lw	a5,12(a0)
 281 000c 2A84     		mv	s0,a0
 282              		.loc 1 201 2 is_stmt 1
 283              		.loc 1 201 17 is_stmt 0
 284 000e 858B     		andi	a5,a5,1
 285              		.loc 1 201 5
 286 0010 91C7     		beq	a5,zero,.L27
 202:C:/Users/stapi/OneDrive/Desktop/GD32VW553/V1_MQTT_OK/GD32VW55X_Wifi_BLE_SDK/GD32VW55x_RELEASE_V1.0.2/MSDK/wpa_supplicant/src/utils\wpabuf.c **** 		os_free(buf->buf);
 287              		.loc 1 202 3 is_stmt 1
 288 0012 0845     		lw	a0,8(a0)
 289              	.LVL27:
 290 0014 97000000 		call	os_free
 290      E7800000 
 291              	.LVL28:
 292              	.L27:
 203:C:/Users/stapi/OneDrive/Desktop/GD32VW553/V1_MQTT_OK/GD32VW55X_Wifi_BLE_SDK/GD32VW55x_RELEASE_V1.0.2/MSDK/wpa_supplicant/src/utils\wpabuf.c **** 	os_free(buf);
 293              		.loc 1 203 2
 294 001c 2285     		mv	a0,s0
 295 001e 97000000 		call	os_free
 295      E7800000 
 296              	.LVL29:
 204:C:/Users/stapi/OneDrive/Desktop/GD32VW553/V1_MQTT_OK/GD32VW55X_Wifi_BLE_SDK/GD32VW55x_RELEASE_V1.0.2/MSDK/wpa_supplicant/src/utils\wpabuf.c **** #endif /* WPA_TRACE */
 205:C:/Users/stapi/OneDrive/Desktop/GD32VW553/V1_MQTT_OK/GD32VW55X_Wifi_BLE_SDK/GD32VW55x_RELEASE_V1.0.2/MSDK/wpa_supplicant/src/utils\wpabuf.c **** }
 297              		.loc 1 205 1 is_stmt 0
 298 0026 17030000 		tail	__riscv_restore_1
 298      67000300 
 299              		.cfi_restore 8
 300              		.cfi_restore 1
 301              		.cfi_def_cfa_offset 0
 302              	.LVL30:
 303              	.L35:
 304 002e 8280     		ret
 305              		.cfi_endproc
 306              	.LFE77:
 308              		.section	.text.wpabuf_clear_free,"ax",@progbits
 309              		.align	1
 310              		.globl	wpabuf_clear_free
 312              	wpabuf_clear_free:
 313              	.LFB78:
 206:C:/Users/stapi/OneDrive/Desktop/GD32VW553/V1_MQTT_OK/GD32VW55X_Wifi_BLE_SDK/GD32VW55x_RELEASE_V1.0.2/MSDK/wpa_supplicant/src/utils\wpabuf.c **** 
 207:C:/Users/stapi/OneDrive/Desktop/GD32VW553/V1_MQTT_OK/GD32VW55X_Wifi_BLE_SDK/GD32VW55x_RELEASE_V1.0.2/MSDK/wpa_supplicant/src/utils\wpabuf.c **** 
 208:C:/Users/stapi/OneDrive/Desktop/GD32VW553/V1_MQTT_OK/GD32VW55X_Wifi_BLE_SDK/GD32VW55x_RELEASE_V1.0.2/MSDK/wpa_supplicant/src/utils\wpabuf.c **** void wpabuf_clear_free(struct wpabuf *buf)
 209:C:/Users/stapi/OneDrive/Desktop/GD32VW553/V1_MQTT_OK/GD32VW55X_Wifi_BLE_SDK/GD32VW55x_RELEASE_V1.0.2/MSDK/wpa_supplicant/src/utils\wpabuf.c **** {
 314              		.loc 1 209 1 is_stmt 1
 315              		.cfi_startproc
 316              	.LVL31:
 210:C:/Users/stapi/OneDrive/Desktop/GD32VW553/V1_MQTT_OK/GD32VW55X_Wifi_BLE_SDK/GD32VW55x_RELEASE_V1.0.2/MSDK/wpa_supplicant/src/utils\wpabuf.c **** 	if (buf) {
 317              		.loc 1 210 2
 318              		.loc 1 210 5 is_stmt 0
 319 0000 15C5     		beq	a0,zero,.L44
 209:C:/Users/stapi/OneDrive/Desktop/GD32VW553/V1_MQTT_OK/GD32VW55X_Wifi_BLE_SDK/GD32VW55x_RELEASE_V1.0.2/MSDK/wpa_supplicant/src/utils\wpabuf.c **** 	if (buf) {
 320              		.loc 1 209 1
 321 0002 17030000 		call	t0,__riscv_save_1
 321      E7020300 
 322              		.cfi_offset 8, -8
 323              		.cfi_offset 1, -4
 324              		.cfi_def_cfa_offset 16
 211:C:/Users/stapi/OneDrive/Desktop/GD32VW553/V1_MQTT_OK/GD32VW55X_Wifi_BLE_SDK/GD32VW55x_RELEASE_V1.0.2/MSDK/wpa_supplicant/src/utils\wpabuf.c **** 		os_memset(wpabuf_mhead(buf), 0, wpabuf_len(buf));
 325              		.loc 1 211 3
 326 000a 5041     		lw	a2,4(a0)
 327 000c 2A84     		mv	s0,a0
 328              		.loc 1 211 3 is_stmt 1
 329              	.LVL32:
 330              	.LBB38:
 331              	.LBB39:
 332              		.file 2 "C:/Users/stapi/OneDrive/Desktop/GD32VW553/V1_MQTT_OK/GD32VW55X_Wifi_BLE_SDK/GD32VW55x_REL
   1:C:/Users/stapi/OneDrive/Desktop/GD32VW553/V1_MQTT_OK/GD32VW55X_Wifi_BLE_SDK/GD32VW55x_RELEASE_V1.0.2/MSDK/wpa_supplicant/src/utils\wpabuf.h **** /*
   2:C:/Users/stapi/OneDrive/Desktop/GD32VW553/V1_MQTT_OK/GD32VW55X_Wifi_BLE_SDK/GD32VW55x_RELEASE_V1.0.2/MSDK/wpa_supplicant/src/utils\wpabuf.h ****  * Dynamic data buffer
   3:C:/Users/stapi/OneDrive/Desktop/GD32VW553/V1_MQTT_OK/GD32VW55X_Wifi_BLE_SDK/GD32VW55x_RELEASE_V1.0.2/MSDK/wpa_supplicant/src/utils\wpabuf.h ****  * Copyright (c) 2007-2012, Jouni Malinen <j@w1.fi>
   4:C:/Users/stapi/OneDrive/Desktop/GD32VW553/V1_MQTT_OK/GD32VW55X_Wifi_BLE_SDK/GD32VW55x_RELEASE_V1.0.2/MSDK/wpa_supplicant/src/utils\wpabuf.h ****  *
   5:C:/Users/stapi/OneDrive/Desktop/GD32VW553/V1_MQTT_OK/GD32VW55X_Wifi_BLE_SDK/GD32VW55x_RELEASE_V1.0.2/MSDK/wpa_supplicant/src/utils\wpabuf.h ****  * This software may be distributed under the terms of the BSD license.
   6:C:/Users/stapi/OneDrive/Desktop/GD32VW553/V1_MQTT_OK/GD32VW55X_Wifi_BLE_SDK/GD32VW55x_RELEASE_V1.0.2/MSDK/wpa_supplicant/src/utils\wpabuf.h ****  * See README for more details.
   7:C:/Users/stapi/OneDrive/Desktop/GD32VW553/V1_MQTT_OK/GD32VW55X_Wifi_BLE_SDK/GD32VW55x_RELEASE_V1.0.2/MSDK/wpa_supplicant/src/utils\wpabuf.h ****  */
   8:C:/Users/stapi/OneDrive/Desktop/GD32VW553/V1_MQTT_OK/GD32VW55X_Wifi_BLE_SDK/GD32VW55x_RELEASE_V1.0.2/MSDK/wpa_supplicant/src/utils\wpabuf.h **** 
   9:C:/Users/stapi/OneDrive/Desktop/GD32VW553/V1_MQTT_OK/GD32VW55X_Wifi_BLE_SDK/GD32VW55x_RELEASE_V1.0.2/MSDK/wpa_supplicant/src/utils\wpabuf.h **** #ifndef WPABUF_H
  10:C:/Users/stapi/OneDrive/Desktop/GD32VW553/V1_MQTT_OK/GD32VW55X_Wifi_BLE_SDK/GD32VW55x_RELEASE_V1.0.2/MSDK/wpa_supplicant/src/utils\wpabuf.h **** #define WPABUF_H
  11:C:/Users/stapi/OneDrive/Desktop/GD32VW553/V1_MQTT_OK/GD32VW55X_Wifi_BLE_SDK/GD32VW55x_RELEASE_V1.0.2/MSDK/wpa_supplicant/src/utils\wpabuf.h **** 
  12:C:/Users/stapi/OneDrive/Desktop/GD32VW553/V1_MQTT_OK/GD32VW55X_Wifi_BLE_SDK/GD32VW55x_RELEASE_V1.0.2/MSDK/wpa_supplicant/src/utils\wpabuf.h **** /* wpabuf::buf is a pointer to external data */
  13:C:/Users/stapi/OneDrive/Desktop/GD32VW553/V1_MQTT_OK/GD32VW55X_Wifi_BLE_SDK/GD32VW55x_RELEASE_V1.0.2/MSDK/wpa_supplicant/src/utils\wpabuf.h **** #define WPABUF_FLAG_EXT_DATA BIT(0)
  14:C:/Users/stapi/OneDrive/Desktop/GD32VW553/V1_MQTT_OK/GD32VW55X_Wifi_BLE_SDK/GD32VW55x_RELEASE_V1.0.2/MSDK/wpa_supplicant/src/utils\wpabuf.h **** 
  15:C:/Users/stapi/OneDrive/Desktop/GD32VW553/V1_MQTT_OK/GD32VW55X_Wifi_BLE_SDK/GD32VW55x_RELEASE_V1.0.2/MSDK/wpa_supplicant/src/utils\wpabuf.h **** /*
  16:C:/Users/stapi/OneDrive/Desktop/GD32VW553/V1_MQTT_OK/GD32VW55X_Wifi_BLE_SDK/GD32VW55x_RELEASE_V1.0.2/MSDK/wpa_supplicant/src/utils\wpabuf.h ****  * Internal data structure for wpabuf. Please do not touch this directly from
  17:C:/Users/stapi/OneDrive/Desktop/GD32VW553/V1_MQTT_OK/GD32VW55X_Wifi_BLE_SDK/GD32VW55x_RELEASE_V1.0.2/MSDK/wpa_supplicant/src/utils\wpabuf.h ****  * elsewhere. This is only defined in header file to allow inline functions
  18:C:/Users/stapi/OneDrive/Desktop/GD32VW553/V1_MQTT_OK/GD32VW55X_Wifi_BLE_SDK/GD32VW55x_RELEASE_V1.0.2/MSDK/wpa_supplicant/src/utils\wpabuf.h ****  * from this file to access data.
  19:C:/Users/stapi/OneDrive/Desktop/GD32VW553/V1_MQTT_OK/GD32VW55X_Wifi_BLE_SDK/GD32VW55x_RELEASE_V1.0.2/MSDK/wpa_supplicant/src/utils\wpabuf.h ****  */
  20:C:/Users/stapi/OneDrive/Desktop/GD32VW553/V1_MQTT_OK/GD32VW55X_Wifi_BLE_SDK/GD32VW55x_RELEASE_V1.0.2/MSDK/wpa_supplicant/src/utils\wpabuf.h **** struct wpabuf {
  21:C:/Users/stapi/OneDrive/Desktop/GD32VW553/V1_MQTT_OK/GD32VW55X_Wifi_BLE_SDK/GD32VW55x_RELEASE_V1.0.2/MSDK/wpa_supplicant/src/utils\wpabuf.h **** 	size_t size; /* total size of the allocated buffer */
  22:C:/Users/stapi/OneDrive/Desktop/GD32VW553/V1_MQTT_OK/GD32VW55X_Wifi_BLE_SDK/GD32VW55x_RELEASE_V1.0.2/MSDK/wpa_supplicant/src/utils\wpabuf.h **** 	size_t used; /* length of data in the buffer */
  23:C:/Users/stapi/OneDrive/Desktop/GD32VW553/V1_MQTT_OK/GD32VW55X_Wifi_BLE_SDK/GD32VW55x_RELEASE_V1.0.2/MSDK/wpa_supplicant/src/utils\wpabuf.h **** 	u8 *buf; /* pointer to the head of the buffer */
  24:C:/Users/stapi/OneDrive/Desktop/GD32VW553/V1_MQTT_OK/GD32VW55X_Wifi_BLE_SDK/GD32VW55x_RELEASE_V1.0.2/MSDK/wpa_supplicant/src/utils\wpabuf.h **** 	unsigned int flags;
  25:C:/Users/stapi/OneDrive/Desktop/GD32VW553/V1_MQTT_OK/GD32VW55X_Wifi_BLE_SDK/GD32VW55x_RELEASE_V1.0.2/MSDK/wpa_supplicant/src/utils\wpabuf.h **** 	/* optionally followed by the allocated buffer */
  26:C:/Users/stapi/OneDrive/Desktop/GD32VW553/V1_MQTT_OK/GD32VW55X_Wifi_BLE_SDK/GD32VW55x_RELEASE_V1.0.2/MSDK/wpa_supplicant/src/utils\wpabuf.h **** };
  27:C:/Users/stapi/OneDrive/Desktop/GD32VW553/V1_MQTT_OK/GD32VW55X_Wifi_BLE_SDK/GD32VW55x_RELEASE_V1.0.2/MSDK/wpa_supplicant/src/utils\wpabuf.h **** 
  28:C:/Users/stapi/OneDrive/Desktop/GD32VW553/V1_MQTT_OK/GD32VW55X_Wifi_BLE_SDK/GD32VW55x_RELEASE_V1.0.2/MSDK/wpa_supplicant/src/utils\wpabuf.h **** 
  29:C:/Users/stapi/OneDrive/Desktop/GD32VW553/V1_MQTT_OK/GD32VW55X_Wifi_BLE_SDK/GD32VW55x_RELEASE_V1.0.2/MSDK/wpa_supplicant/src/utils\wpabuf.h **** int wpabuf_resize(struct wpabuf **buf, size_t add_len);
  30:C:/Users/stapi/OneDrive/Desktop/GD32VW553/V1_MQTT_OK/GD32VW55X_Wifi_BLE_SDK/GD32VW55x_RELEASE_V1.0.2/MSDK/wpa_supplicant/src/utils\wpabuf.h **** struct wpabuf * wpabuf_alloc(size_t len);
  31:C:/Users/stapi/OneDrive/Desktop/GD32VW553/V1_MQTT_OK/GD32VW55X_Wifi_BLE_SDK/GD32VW55x_RELEASE_V1.0.2/MSDK/wpa_supplicant/src/utils\wpabuf.h **** struct wpabuf * wpabuf_alloc_ext_data(u8 *data, size_t len);
  32:C:/Users/stapi/OneDrive/Desktop/GD32VW553/V1_MQTT_OK/GD32VW55X_Wifi_BLE_SDK/GD32VW55x_RELEASE_V1.0.2/MSDK/wpa_supplicant/src/utils\wpabuf.h **** struct wpabuf * wpabuf_alloc_copy(const void *data, size_t len);
  33:C:/Users/stapi/OneDrive/Desktop/GD32VW553/V1_MQTT_OK/GD32VW55X_Wifi_BLE_SDK/GD32VW55x_RELEASE_V1.0.2/MSDK/wpa_supplicant/src/utils\wpabuf.h **** struct wpabuf * wpabuf_dup(const struct wpabuf *src);
  34:C:/Users/stapi/OneDrive/Desktop/GD32VW553/V1_MQTT_OK/GD32VW55X_Wifi_BLE_SDK/GD32VW55x_RELEASE_V1.0.2/MSDK/wpa_supplicant/src/utils\wpabuf.h **** void wpabuf_free(struct wpabuf *buf);
  35:C:/Users/stapi/OneDrive/Desktop/GD32VW553/V1_MQTT_OK/GD32VW55X_Wifi_BLE_SDK/GD32VW55x_RELEASE_V1.0.2/MSDK/wpa_supplicant/src/utils\wpabuf.h **** void wpabuf_clear_free(struct wpabuf *buf);
  36:C:/Users/stapi/OneDrive/Desktop/GD32VW553/V1_MQTT_OK/GD32VW55X_Wifi_BLE_SDK/GD32VW55x_RELEASE_V1.0.2/MSDK/wpa_supplicant/src/utils\wpabuf.h **** void * wpabuf_put(struct wpabuf *buf, size_t len);
  37:C:/Users/stapi/OneDrive/Desktop/GD32VW553/V1_MQTT_OK/GD32VW55X_Wifi_BLE_SDK/GD32VW55x_RELEASE_V1.0.2/MSDK/wpa_supplicant/src/utils\wpabuf.h **** struct wpabuf * wpabuf_concat(struct wpabuf *a, struct wpabuf *b);
  38:C:/Users/stapi/OneDrive/Desktop/GD32VW553/V1_MQTT_OK/GD32VW55X_Wifi_BLE_SDK/GD32VW55x_RELEASE_V1.0.2/MSDK/wpa_supplicant/src/utils\wpabuf.h **** struct wpabuf * wpabuf_zeropad(struct wpabuf *buf, size_t len);
  39:C:/Users/stapi/OneDrive/Desktop/GD32VW553/V1_MQTT_OK/GD32VW55X_Wifi_BLE_SDK/GD32VW55x_RELEASE_V1.0.2/MSDK/wpa_supplicant/src/utils\wpabuf.h **** void wpabuf_printf(struct wpabuf *buf, char *fmt, ...) PRINTF_FORMAT(2, 3);
  40:C:/Users/stapi/OneDrive/Desktop/GD32VW553/V1_MQTT_OK/GD32VW55X_Wifi_BLE_SDK/GD32VW55x_RELEASE_V1.0.2/MSDK/wpa_supplicant/src/utils\wpabuf.h **** struct wpabuf * wpabuf_parse_bin(const char *buf);
  41:C:/Users/stapi/OneDrive/Desktop/GD32VW553/V1_MQTT_OK/GD32VW55X_Wifi_BLE_SDK/GD32VW55x_RELEASE_V1.0.2/MSDK/wpa_supplicant/src/utils\wpabuf.h **** 
  42:C:/Users/stapi/OneDrive/Desktop/GD32VW553/V1_MQTT_OK/GD32VW55X_Wifi_BLE_SDK/GD32VW55x_RELEASE_V1.0.2/MSDK/wpa_supplicant/src/utils\wpabuf.h **** 
  43:C:/Users/stapi/OneDrive/Desktop/GD32VW553/V1_MQTT_OK/GD32VW55X_Wifi_BLE_SDK/GD32VW55x_RELEASE_V1.0.2/MSDK/wpa_supplicant/src/utils\wpabuf.h **** /**
  44:C:/Users/stapi/OneDrive/Desktop/GD32VW553/V1_MQTT_OK/GD32VW55X_Wifi_BLE_SDK/GD32VW55x_RELEASE_V1.0.2/MSDK/wpa_supplicant/src/utils\wpabuf.h ****  * wpabuf_size - Get the currently allocated size of a wpabuf buffer
  45:C:/Users/stapi/OneDrive/Desktop/GD32VW553/V1_MQTT_OK/GD32VW55X_Wifi_BLE_SDK/GD32VW55x_RELEASE_V1.0.2/MSDK/wpa_supplicant/src/utils\wpabuf.h ****  * @buf: wpabuf buffer
  46:C:/Users/stapi/OneDrive/Desktop/GD32VW553/V1_MQTT_OK/GD32VW55X_Wifi_BLE_SDK/GD32VW55x_RELEASE_V1.0.2/MSDK/wpa_supplicant/src/utils\wpabuf.h ****  * Returns: Currently allocated size of the buffer
  47:C:/Users/stapi/OneDrive/Desktop/GD32VW553/V1_MQTT_OK/GD32VW55X_Wifi_BLE_SDK/GD32VW55x_RELEASE_V1.0.2/MSDK/wpa_supplicant/src/utils\wpabuf.h ****  */
  48:C:/Users/stapi/OneDrive/Desktop/GD32VW553/V1_MQTT_OK/GD32VW55X_Wifi_BLE_SDK/GD32VW55x_RELEASE_V1.0.2/MSDK/wpa_supplicant/src/utils\wpabuf.h **** static inline size_t wpabuf_size(const struct wpabuf *buf)
  49:C:/Users/stapi/OneDrive/Desktop/GD32VW553/V1_MQTT_OK/GD32VW55X_Wifi_BLE_SDK/GD32VW55x_RELEASE_V1.0.2/MSDK/wpa_supplicant/src/utils\wpabuf.h **** {
  50:C:/Users/stapi/OneDrive/Desktop/GD32VW553/V1_MQTT_OK/GD32VW55X_Wifi_BLE_SDK/GD32VW55x_RELEASE_V1.0.2/MSDK/wpa_supplicant/src/utils\wpabuf.h **** 	return buf->size;
  51:C:/Users/stapi/OneDrive/Desktop/GD32VW553/V1_MQTT_OK/GD32VW55X_Wifi_BLE_SDK/GD32VW55x_RELEASE_V1.0.2/MSDK/wpa_supplicant/src/utils\wpabuf.h **** }
  52:C:/Users/stapi/OneDrive/Desktop/GD32VW553/V1_MQTT_OK/GD32VW55X_Wifi_BLE_SDK/GD32VW55x_RELEASE_V1.0.2/MSDK/wpa_supplicant/src/utils\wpabuf.h **** 
  53:C:/Users/stapi/OneDrive/Desktop/GD32VW553/V1_MQTT_OK/GD32VW55X_Wifi_BLE_SDK/GD32VW55x_RELEASE_V1.0.2/MSDK/wpa_supplicant/src/utils\wpabuf.h **** /**
  54:C:/Users/stapi/OneDrive/Desktop/GD32VW553/V1_MQTT_OK/GD32VW55X_Wifi_BLE_SDK/GD32VW55x_RELEASE_V1.0.2/MSDK/wpa_supplicant/src/utils\wpabuf.h ****  * wpabuf_len - Get the current length of a wpabuf buffer data
  55:C:/Users/stapi/OneDrive/Desktop/GD32VW553/V1_MQTT_OK/GD32VW55X_Wifi_BLE_SDK/GD32VW55x_RELEASE_V1.0.2/MSDK/wpa_supplicant/src/utils\wpabuf.h ****  * @buf: wpabuf buffer
  56:C:/Users/stapi/OneDrive/Desktop/GD32VW553/V1_MQTT_OK/GD32VW55X_Wifi_BLE_SDK/GD32VW55x_RELEASE_V1.0.2/MSDK/wpa_supplicant/src/utils\wpabuf.h ****  * Returns: Currently used length of the buffer
  57:C:/Users/stapi/OneDrive/Desktop/GD32VW553/V1_MQTT_OK/GD32VW55X_Wifi_BLE_SDK/GD32VW55x_RELEASE_V1.0.2/MSDK/wpa_supplicant/src/utils\wpabuf.h ****  */
  58:C:/Users/stapi/OneDrive/Desktop/GD32VW553/V1_MQTT_OK/GD32VW55X_Wifi_BLE_SDK/GD32VW55x_RELEASE_V1.0.2/MSDK/wpa_supplicant/src/utils\wpabuf.h **** static inline size_t wpabuf_len(const struct wpabuf *buf)
  59:C:/Users/stapi/OneDrive/Desktop/GD32VW553/V1_MQTT_OK/GD32VW55X_Wifi_BLE_SDK/GD32VW55x_RELEASE_V1.0.2/MSDK/wpa_supplicant/src/utils\wpabuf.h **** {
  60:C:/Users/stapi/OneDrive/Desktop/GD32VW553/V1_MQTT_OK/GD32VW55X_Wifi_BLE_SDK/GD32VW55x_RELEASE_V1.0.2/MSDK/wpa_supplicant/src/utils\wpabuf.h **** 	return buf->used;
  61:C:/Users/stapi/OneDrive/Desktop/GD32VW553/V1_MQTT_OK/GD32VW55X_Wifi_BLE_SDK/GD32VW55x_RELEASE_V1.0.2/MSDK/wpa_supplicant/src/utils\wpabuf.h **** }
  62:C:/Users/stapi/OneDrive/Desktop/GD32VW553/V1_MQTT_OK/GD32VW55X_Wifi_BLE_SDK/GD32VW55x_RELEASE_V1.0.2/MSDK/wpa_supplicant/src/utils\wpabuf.h **** 
  63:C:/Users/stapi/OneDrive/Desktop/GD32VW553/V1_MQTT_OK/GD32VW55X_Wifi_BLE_SDK/GD32VW55x_RELEASE_V1.0.2/MSDK/wpa_supplicant/src/utils\wpabuf.h **** /**
  64:C:/Users/stapi/OneDrive/Desktop/GD32VW553/V1_MQTT_OK/GD32VW55X_Wifi_BLE_SDK/GD32VW55x_RELEASE_V1.0.2/MSDK/wpa_supplicant/src/utils\wpabuf.h ****  * wpabuf_tailroom - Get size of available tail room in the end of the buffer
  65:C:/Users/stapi/OneDrive/Desktop/GD32VW553/V1_MQTT_OK/GD32VW55X_Wifi_BLE_SDK/GD32VW55x_RELEASE_V1.0.2/MSDK/wpa_supplicant/src/utils\wpabuf.h ****  * @buf: wpabuf buffer
  66:C:/Users/stapi/OneDrive/Desktop/GD32VW553/V1_MQTT_OK/GD32VW55X_Wifi_BLE_SDK/GD32VW55x_RELEASE_V1.0.2/MSDK/wpa_supplicant/src/utils\wpabuf.h ****  * Returns: Tail room (in bytes) of available space in the end of the buffer
  67:C:/Users/stapi/OneDrive/Desktop/GD32VW553/V1_MQTT_OK/GD32VW55X_Wifi_BLE_SDK/GD32VW55x_RELEASE_V1.0.2/MSDK/wpa_supplicant/src/utils\wpabuf.h ****  */
  68:C:/Users/stapi/OneDrive/Desktop/GD32VW553/V1_MQTT_OK/GD32VW55X_Wifi_BLE_SDK/GD32VW55x_RELEASE_V1.0.2/MSDK/wpa_supplicant/src/utils\wpabuf.h **** static inline size_t wpabuf_tailroom(const struct wpabuf *buf)
  69:C:/Users/stapi/OneDrive/Desktop/GD32VW553/V1_MQTT_OK/GD32VW55X_Wifi_BLE_SDK/GD32VW55x_RELEASE_V1.0.2/MSDK/wpa_supplicant/src/utils\wpabuf.h **** {
  70:C:/Users/stapi/OneDrive/Desktop/GD32VW553/V1_MQTT_OK/GD32VW55X_Wifi_BLE_SDK/GD32VW55x_RELEASE_V1.0.2/MSDK/wpa_supplicant/src/utils\wpabuf.h **** 	return buf->size - buf->used;
  71:C:/Users/stapi/OneDrive/Desktop/GD32VW553/V1_MQTT_OK/GD32VW55X_Wifi_BLE_SDK/GD32VW55x_RELEASE_V1.0.2/MSDK/wpa_supplicant/src/utils\wpabuf.h **** }
  72:C:/Users/stapi/OneDrive/Desktop/GD32VW553/V1_MQTT_OK/GD32VW55X_Wifi_BLE_SDK/GD32VW55x_RELEASE_V1.0.2/MSDK/wpa_supplicant/src/utils\wpabuf.h **** 
  73:C:/Users/stapi/OneDrive/Desktop/GD32VW553/V1_MQTT_OK/GD32VW55X_Wifi_BLE_SDK/GD32VW55x_RELEASE_V1.0.2/MSDK/wpa_supplicant/src/utils\wpabuf.h **** /**
  74:C:/Users/stapi/OneDrive/Desktop/GD32VW553/V1_MQTT_OK/GD32VW55X_Wifi_BLE_SDK/GD32VW55x_RELEASE_V1.0.2/MSDK/wpa_supplicant/src/utils\wpabuf.h ****  * wpabuf_cmp - Check if two buffers contain the same data
  75:C:/Users/stapi/OneDrive/Desktop/GD32VW553/V1_MQTT_OK/GD32VW55X_Wifi_BLE_SDK/GD32VW55x_RELEASE_V1.0.2/MSDK/wpa_supplicant/src/utils\wpabuf.h ****  * @a: wpabuf buffer
  76:C:/Users/stapi/OneDrive/Desktop/GD32VW553/V1_MQTT_OK/GD32VW55X_Wifi_BLE_SDK/GD32VW55x_RELEASE_V1.0.2/MSDK/wpa_supplicant/src/utils\wpabuf.h ****  * @b: wpabuf buffer
  77:C:/Users/stapi/OneDrive/Desktop/GD32VW553/V1_MQTT_OK/GD32VW55X_Wifi_BLE_SDK/GD32VW55x_RELEASE_V1.0.2/MSDK/wpa_supplicant/src/utils\wpabuf.h ****  * Returns: 0 if the two buffers contain the same data and non-zero otherwise
  78:C:/Users/stapi/OneDrive/Desktop/GD32VW553/V1_MQTT_OK/GD32VW55X_Wifi_BLE_SDK/GD32VW55x_RELEASE_V1.0.2/MSDK/wpa_supplicant/src/utils\wpabuf.h ****  */
  79:C:/Users/stapi/OneDrive/Desktop/GD32VW553/V1_MQTT_OK/GD32VW55X_Wifi_BLE_SDK/GD32VW55x_RELEASE_V1.0.2/MSDK/wpa_supplicant/src/utils\wpabuf.h **** static inline int wpabuf_cmp(const struct wpabuf *a, const struct wpabuf *b)
  80:C:/Users/stapi/OneDrive/Desktop/GD32VW553/V1_MQTT_OK/GD32VW55X_Wifi_BLE_SDK/GD32VW55x_RELEASE_V1.0.2/MSDK/wpa_supplicant/src/utils\wpabuf.h **** {
  81:C:/Users/stapi/OneDrive/Desktop/GD32VW553/V1_MQTT_OK/GD32VW55X_Wifi_BLE_SDK/GD32VW55x_RELEASE_V1.0.2/MSDK/wpa_supplicant/src/utils\wpabuf.h **** 	if (!a && !b)
  82:C:/Users/stapi/OneDrive/Desktop/GD32VW553/V1_MQTT_OK/GD32VW55X_Wifi_BLE_SDK/GD32VW55x_RELEASE_V1.0.2/MSDK/wpa_supplicant/src/utils\wpabuf.h **** 		return 0;
  83:C:/Users/stapi/OneDrive/Desktop/GD32VW553/V1_MQTT_OK/GD32VW55X_Wifi_BLE_SDK/GD32VW55x_RELEASE_V1.0.2/MSDK/wpa_supplicant/src/utils\wpabuf.h **** 	if (a && b && wpabuf_size(a) == wpabuf_size(b))
  84:C:/Users/stapi/OneDrive/Desktop/GD32VW553/V1_MQTT_OK/GD32VW55X_Wifi_BLE_SDK/GD32VW55x_RELEASE_V1.0.2/MSDK/wpa_supplicant/src/utils\wpabuf.h **** 		return os_memcmp(a->buf, b->buf, wpabuf_size(a));
  85:C:/Users/stapi/OneDrive/Desktop/GD32VW553/V1_MQTT_OK/GD32VW55X_Wifi_BLE_SDK/GD32VW55x_RELEASE_V1.0.2/MSDK/wpa_supplicant/src/utils\wpabuf.h **** 	return -1;
  86:C:/Users/stapi/OneDrive/Desktop/GD32VW553/V1_MQTT_OK/GD32VW55X_Wifi_BLE_SDK/GD32VW55x_RELEASE_V1.0.2/MSDK/wpa_supplicant/src/utils\wpabuf.h **** }
  87:C:/Users/stapi/OneDrive/Desktop/GD32VW553/V1_MQTT_OK/GD32VW55X_Wifi_BLE_SDK/GD32VW55x_RELEASE_V1.0.2/MSDK/wpa_supplicant/src/utils\wpabuf.h **** 
  88:C:/Users/stapi/OneDrive/Desktop/GD32VW553/V1_MQTT_OK/GD32VW55X_Wifi_BLE_SDK/GD32VW55x_RELEASE_V1.0.2/MSDK/wpa_supplicant/src/utils\wpabuf.h **** /**
  89:C:/Users/stapi/OneDrive/Desktop/GD32VW553/V1_MQTT_OK/GD32VW55X_Wifi_BLE_SDK/GD32VW55x_RELEASE_V1.0.2/MSDK/wpa_supplicant/src/utils\wpabuf.h ****  * wpabuf_head - Get pointer to the head of the buffer data
  90:C:/Users/stapi/OneDrive/Desktop/GD32VW553/V1_MQTT_OK/GD32VW55X_Wifi_BLE_SDK/GD32VW55x_RELEASE_V1.0.2/MSDK/wpa_supplicant/src/utils\wpabuf.h ****  * @buf: wpabuf buffer
  91:C:/Users/stapi/OneDrive/Desktop/GD32VW553/V1_MQTT_OK/GD32VW55X_Wifi_BLE_SDK/GD32VW55x_RELEASE_V1.0.2/MSDK/wpa_supplicant/src/utils\wpabuf.h ****  * Returns: Pointer to the head of the buffer data
  92:C:/Users/stapi/OneDrive/Desktop/GD32VW553/V1_MQTT_OK/GD32VW55X_Wifi_BLE_SDK/GD32VW55x_RELEASE_V1.0.2/MSDK/wpa_supplicant/src/utils\wpabuf.h ****  */
  93:C:/Users/stapi/OneDrive/Desktop/GD32VW553/V1_MQTT_OK/GD32VW55X_Wifi_BLE_SDK/GD32VW55x_RELEASE_V1.0.2/MSDK/wpa_supplicant/src/utils\wpabuf.h **** static inline const void * wpabuf_head(const struct wpabuf *buf)
  94:C:/Users/stapi/OneDrive/Desktop/GD32VW553/V1_MQTT_OK/GD32VW55X_Wifi_BLE_SDK/GD32VW55x_RELEASE_V1.0.2/MSDK/wpa_supplicant/src/utils\wpabuf.h **** {
  95:C:/Users/stapi/OneDrive/Desktop/GD32VW553/V1_MQTT_OK/GD32VW55X_Wifi_BLE_SDK/GD32VW55x_RELEASE_V1.0.2/MSDK/wpa_supplicant/src/utils\wpabuf.h **** 	return buf->buf;
  96:C:/Users/stapi/OneDrive/Desktop/GD32VW553/V1_MQTT_OK/GD32VW55X_Wifi_BLE_SDK/GD32VW55x_RELEASE_V1.0.2/MSDK/wpa_supplicant/src/utils\wpabuf.h **** }
  97:C:/Users/stapi/OneDrive/Desktop/GD32VW553/V1_MQTT_OK/GD32VW55X_Wifi_BLE_SDK/GD32VW55x_RELEASE_V1.0.2/MSDK/wpa_supplicant/src/utils\wpabuf.h **** 
  98:C:/Users/stapi/OneDrive/Desktop/GD32VW553/V1_MQTT_OK/GD32VW55X_Wifi_BLE_SDK/GD32VW55x_RELEASE_V1.0.2/MSDK/wpa_supplicant/src/utils\wpabuf.h **** static inline const u8 * wpabuf_head_u8(const struct wpabuf *buf)
  99:C:/Users/stapi/OneDrive/Desktop/GD32VW553/V1_MQTT_OK/GD32VW55X_Wifi_BLE_SDK/GD32VW55x_RELEASE_V1.0.2/MSDK/wpa_supplicant/src/utils\wpabuf.h **** {
 100:C:/Users/stapi/OneDrive/Desktop/GD32VW553/V1_MQTT_OK/GD32VW55X_Wifi_BLE_SDK/GD32VW55x_RELEASE_V1.0.2/MSDK/wpa_supplicant/src/utils\wpabuf.h **** 	return (const u8 *) wpabuf_head(buf);
 101:C:/Users/stapi/OneDrive/Desktop/GD32VW553/V1_MQTT_OK/GD32VW55X_Wifi_BLE_SDK/GD32VW55x_RELEASE_V1.0.2/MSDK/wpa_supplicant/src/utils\wpabuf.h **** }
 102:C:/Users/stapi/OneDrive/Desktop/GD32VW553/V1_MQTT_OK/GD32VW55X_Wifi_BLE_SDK/GD32VW55x_RELEASE_V1.0.2/MSDK/wpa_supplicant/src/utils\wpabuf.h **** 
 103:C:/Users/stapi/OneDrive/Desktop/GD32VW553/V1_MQTT_OK/GD32VW55X_Wifi_BLE_SDK/GD32VW55x_RELEASE_V1.0.2/MSDK/wpa_supplicant/src/utils\wpabuf.h **** /**
 104:C:/Users/stapi/OneDrive/Desktop/GD32VW553/V1_MQTT_OK/GD32VW55X_Wifi_BLE_SDK/GD32VW55x_RELEASE_V1.0.2/MSDK/wpa_supplicant/src/utils\wpabuf.h ****  * wpabuf_mhead - Get modifiable pointer to the head of the buffer data
 105:C:/Users/stapi/OneDrive/Desktop/GD32VW553/V1_MQTT_OK/GD32VW55X_Wifi_BLE_SDK/GD32VW55x_RELEASE_V1.0.2/MSDK/wpa_supplicant/src/utils\wpabuf.h ****  * @buf: wpabuf buffer
 106:C:/Users/stapi/OneDrive/Desktop/GD32VW553/V1_MQTT_OK/GD32VW55X_Wifi_BLE_SDK/GD32VW55x_RELEASE_V1.0.2/MSDK/wpa_supplicant/src/utils\wpabuf.h ****  * Returns: Pointer to the head of the buffer data
 107:C:/Users/stapi/OneDrive/Desktop/GD32VW553/V1_MQTT_OK/GD32VW55X_Wifi_BLE_SDK/GD32VW55x_RELEASE_V1.0.2/MSDK/wpa_supplicant/src/utils\wpabuf.h ****  */
 108:C:/Users/stapi/OneDrive/Desktop/GD32VW553/V1_MQTT_OK/GD32VW55X_Wifi_BLE_SDK/GD32VW55x_RELEASE_V1.0.2/MSDK/wpa_supplicant/src/utils\wpabuf.h **** static inline void * wpabuf_mhead(struct wpabuf *buf)
 109:C:/Users/stapi/OneDrive/Desktop/GD32VW553/V1_MQTT_OK/GD32VW55X_Wifi_BLE_SDK/GD32VW55x_RELEASE_V1.0.2/MSDK/wpa_supplicant/src/utils\wpabuf.h **** {
 110:C:/Users/stapi/OneDrive/Desktop/GD32VW553/V1_MQTT_OK/GD32VW55X_Wifi_BLE_SDK/GD32VW55x_RELEASE_V1.0.2/MSDK/wpa_supplicant/src/utils\wpabuf.h **** 	return buf->buf;
 333              		.loc 2 110 2
 334              	.LBE39:
 335              	.LBE38:
 336              	.LBB40:
 337              	.LBB41:
  60:C:/Users/stapi/OneDrive/Desktop/GD32VW553/V1_MQTT_OK/GD32VW55X_Wifi_BLE_SDK/GD32VW55x_RELEASE_V1.0.2/MSDK/wpa_supplicant/src/utils\wpabuf.h **** }
 338              		.loc 2 60 2
 339              	.LBE41:
 340              	.LBE40:
 341              		.loc 1 211 3 is_stmt 0
 342 000e 0845     		lw	a0,8(a0)
 343              	.LVL33:
 344 0010 8145     		li	a1,0
 345 0012 97000000 		call	os_memset
 345      E7800000 
 346              	.LVL34:
 212:C:/Users/stapi/OneDrive/Desktop/GD32VW553/V1_MQTT_OK/GD32VW55X_Wifi_BLE_SDK/GD32VW55x_RELEASE_V1.0.2/MSDK/wpa_supplicant/src/utils\wpabuf.c **** 		wpabuf_free(buf);
 347              		.loc 1 212 3 is_stmt 1
 348 001a 2285     		mv	a0,s0
 349 001c 97000000 		call	wpabuf_free
 349      E7800000 
 350              	.LVL35:
 213:C:/Users/stapi/OneDrive/Desktop/GD32VW553/V1_MQTT_OK/GD32VW55X_Wifi_BLE_SDK/GD32VW55x_RELEASE_V1.0.2/MSDK/wpa_supplicant/src/utils\wpabuf.c **** 	}
 214:C:/Users/stapi/OneDrive/Desktop/GD32VW553/V1_MQTT_OK/GD32VW55X_Wifi_BLE_SDK/GD32VW55x_RELEASE_V1.0.2/MSDK/wpa_supplicant/src/utils\wpabuf.c **** }
 351              		.loc 1 214 1 is_stmt 0
 352 0024 17030000 		tail	__riscv_restore_1
 352      67000300 
 353              		.cfi_restore 8
 354              		.cfi_restore 1
 355              		.cfi_def_cfa_offset 0
 356              	.LVL36:
 357              	.L44:
 358 002c 8280     		ret
 359              		.cfi_endproc
 360              	.LFE78:
 362              		.section	.rodata.wpabuf_put.str1.4,"aMS",@progbits,1
 363              		.align	2
 364              	.LC0:
 365 0000 77706162 		.string	"wpabuf %p (size=%lu used=%lu) overflow len=%lu"
 365      75662025 
 365      70202873 
 365      697A653D 
 365      256C7520 
 366              		.section	.text.wpabuf_put,"ax",@progbits
 367              		.align	1
 368              		.globl	wpabuf_put
 370              	wpabuf_put:
 371              	.LFB79:
 215:C:/Users/stapi/OneDrive/Desktop/GD32VW553/V1_MQTT_OK/GD32VW55X_Wifi_BLE_SDK/GD32VW55x_RELEASE_V1.0.2/MSDK/wpa_supplicant/src/utils\wpabuf.c **** 
 216:C:/Users/stapi/OneDrive/Desktop/GD32VW553/V1_MQTT_OK/GD32VW55X_Wifi_BLE_SDK/GD32VW55x_RELEASE_V1.0.2/MSDK/wpa_supplicant/src/utils\wpabuf.c **** 
 217:C:/Users/stapi/OneDrive/Desktop/GD32VW553/V1_MQTT_OK/GD32VW55X_Wifi_BLE_SDK/GD32VW55x_RELEASE_V1.0.2/MSDK/wpa_supplicant/src/utils\wpabuf.c **** void * wpabuf_put(struct wpabuf *buf, size_t len)
 218:C:/Users/stapi/OneDrive/Desktop/GD32VW553/V1_MQTT_OK/GD32VW55X_Wifi_BLE_SDK/GD32VW55x_RELEASE_V1.0.2/MSDK/wpa_supplicant/src/utils\wpabuf.c **** {
 372              		.loc 1 218 1 is_stmt 1
 373              		.cfi_startproc
 374              	.LVL37:
 219:C:/Users/stapi/OneDrive/Desktop/GD32VW553/V1_MQTT_OK/GD32VW55X_Wifi_BLE_SDK/GD32VW55x_RELEASE_V1.0.2/MSDK/wpa_supplicant/src/utils\wpabuf.c **** 	void *tmp = wpabuf_mhead_u8(buf) + wpabuf_len(buf);
 375              		.loc 1 219 2
 111:C:/Users/stapi/OneDrive/Desktop/GD32VW553/V1_MQTT_OK/GD32VW55X_Wifi_BLE_SDK/GD32VW55x_RELEASE_V1.0.2/MSDK/wpa_supplicant/src/utils\wpabuf.h **** }
 112:C:/Users/stapi/OneDrive/Desktop/GD32VW553/V1_MQTT_OK/GD32VW55X_Wifi_BLE_SDK/GD32VW55x_RELEASE_V1.0.2/MSDK/wpa_supplicant/src/utils\wpabuf.h **** 
 113:C:/Users/stapi/OneDrive/Desktop/GD32VW553/V1_MQTT_OK/GD32VW55X_Wifi_BLE_SDK/GD32VW55x_RELEASE_V1.0.2/MSDK/wpa_supplicant/src/utils\wpabuf.h **** static inline u8 * wpabuf_mhead_u8(struct wpabuf *buf)
 114:C:/Users/stapi/OneDrive/Desktop/GD32VW553/V1_MQTT_OK/GD32VW55X_Wifi_BLE_SDK/GD32VW55x_RELEASE_V1.0.2/MSDK/wpa_supplicant/src/utils\wpabuf.h **** {
 115:C:/Users/stapi/OneDrive/Desktop/GD32VW553/V1_MQTT_OK/GD32VW55X_Wifi_BLE_SDK/GD32VW55x_RELEASE_V1.0.2/MSDK/wpa_supplicant/src/utils\wpabuf.h **** 	return (u8 *) wpabuf_mhead(buf);
 376              		.loc 2 115 2
 377              	.LBB49:
 378              	.LBB50:
 379              	.LBB51:
 110:C:/Users/stapi/OneDrive/Desktop/GD32VW553/V1_MQTT_OK/GD32VW55X_Wifi_BLE_SDK/GD32VW55x_RELEASE_V1.0.2/MSDK/wpa_supplicant/src/utils\wpabuf.h **** }
 380              		.loc 2 110 2
 381              	.LBE51:
 382              	.LBE50:
 383              	.LBE49:
 384              	.LBB52:
 385              	.LBB53:
  60:C:/Users/stapi/OneDrive/Desktop/GD32VW553/V1_MQTT_OK/GD32VW55X_Wifi_BLE_SDK/GD32VW55x_RELEASE_V1.0.2/MSDK/wpa_supplicant/src/utils\wpabuf.h **** }
 386              		.loc 2 60 2
  60:C:/Users/stapi/OneDrive/Desktop/GD32VW553/V1_MQTT_OK/GD32VW55X_Wifi_BLE_SDK/GD32VW55x_RELEASE_V1.0.2/MSDK/wpa_supplicant/src/utils\wpabuf.h **** }
 387              		.loc 2 60 12 is_stmt 0
 388 0000 5841     		lw	a4,4(a0)
 389              	.LVL38:
 390              	.LBE53:
 391              	.LBE52:
 218:C:/Users/stapi/OneDrive/Desktop/GD32VW553/V1_MQTT_OK/GD32VW55X_Wifi_BLE_SDK/GD32VW55x_RELEASE_V1.0.2/MSDK/wpa_supplicant/src/utils\wpabuf.c **** 	void *tmp = wpabuf_mhead_u8(buf) + wpabuf_len(buf);
 392              		.loc 1 218 1
 393 0002 2A86     		mv	a2,a0
 394              		.loc 1 219 8
 395 0004 0845     		lw	a0,8(a0)
 396              	.LVL39:
 220:C:/Users/stapi/OneDrive/Desktop/GD32VW553/V1_MQTT_OK/GD32VW55X_Wifi_BLE_SDK/GD32VW55x_RELEASE_V1.0.2/MSDK/wpa_supplicant/src/utils\wpabuf.c **** 	buf->used += len;
 221:C:/Users/stapi/OneDrive/Desktop/GD32VW553/V1_MQTT_OK/GD32VW55X_Wifi_BLE_SDK/GD32VW55x_RELEASE_V1.0.2/MSDK/wpa_supplicant/src/utils\wpabuf.c **** 	if (buf->used > buf->size) {
 397              		.loc 1 221 21
 398 0006 1442     		lw	a3,0(a2)
 219:C:/Users/stapi/OneDrive/Desktop/GD32VW553/V1_MQTT_OK/GD32VW55X_Wifi_BLE_SDK/GD32VW55x_RELEASE_V1.0.2/MSDK/wpa_supplicant/src/utils\wpabuf.c **** 	buf->used += len;
 399              		.loc 1 219 8
 400 0008 3A95     		add	a0,a0,a4
 401              	.LVL40:
 220:C:/Users/stapi/OneDrive/Desktop/GD32VW553/V1_MQTT_OK/GD32VW55X_Wifi_BLE_SDK/GD32VW55x_RELEASE_V1.0.2/MSDK/wpa_supplicant/src/utils\wpabuf.c **** 	buf->used += len;
 402              		.loc 1 220 2 is_stmt 1
 220:C:/Users/stapi/OneDrive/Desktop/GD32VW553/V1_MQTT_OK/GD32VW55X_Wifi_BLE_SDK/GD32VW55x_RELEASE_V1.0.2/MSDK/wpa_supplicant/src/utils\wpabuf.c **** 	buf->used += len;
 403              		.loc 1 220 12 is_stmt 0
 404 000a 2E97     		add	a4,a4,a1
 405 000c 58C2     		sw	a4,4(a2)
 406              		.loc 1 221 2 is_stmt 1
 407              		.loc 1 221 5 is_stmt 0
 408 000e 63F4E602 		bleu	a4,a3,.L47
 218:C:/Users/stapi/OneDrive/Desktop/GD32VW553/V1_MQTT_OK/GD32VW55X_Wifi_BLE_SDK/GD32VW55x_RELEASE_V1.0.2/MSDK/wpa_supplicant/src/utils\wpabuf.c **** 	void *tmp = wpabuf_mhead_u8(buf) + wpabuf_len(buf);
 409              		.loc 1 218 1
 410 0012 17030000 		call	t0,__riscv_save_0
 410      E7020300 
 411              		.cfi_offset 1, -4
 412              		.cfi_def_cfa_offset 16
 413 001a AE87     		mv	a5,a1
 222:C:/Users/stapi/OneDrive/Desktop/GD32VW553/V1_MQTT_OK/GD32VW55X_Wifi_BLE_SDK/GD32VW55x_RELEASE_V1.0.2/MSDK/wpa_supplicant/src/utils\wpabuf.c **** 		wpabuf_overflow(buf, len);
 414              		.loc 1 222 3 is_stmt 1
 415              	.LVL41:
 416              	.LBB54:
 417              	.LBB55:
  39:C:/Users/stapi/OneDrive/Desktop/GD32VW553/V1_MQTT_OK/GD32VW55X_Wifi_BLE_SDK/GD32VW55x_RELEASE_V1.0.2/MSDK/wpa_supplicant/src/utils\wpabuf.c **** 		   buf, (unsigned long) buf->size, (unsigned long) buf->used,
 418              		.loc 1 39 2
 419 001c B7050000 		lui	a1,%hi(.LC0)
 420              	.LVL42:
 421 0020 93850500 		addi	a1,a1,%lo(.LC0)
 422 0024 1545     		li	a0,5
 423              	.LVL43:
 424 0026 97000000 		call	wpa_printf
 424      E7800000 
 425              	.LVL44:
  42:C:/Users/stapi/OneDrive/Desktop/GD32VW553/V1_MQTT_OK/GD32VW55X_Wifi_BLE_SDK/GD32VW55x_RELEASE_V1.0.2/MSDK/wpa_supplicant/src/utils\wpabuf.c **** 	abort();
 426              		.loc 1 42 2
  42:C:/Users/stapi/OneDrive/Desktop/GD32VW553/V1_MQTT_OK/GD32VW55X_Wifi_BLE_SDK/GD32VW55x_RELEASE_V1.0.2/MSDK/wpa_supplicant/src/utils\wpabuf.c **** 	abort();
 427              		.loc 1 42 2
  42:C:/Users/stapi/OneDrive/Desktop/GD32VW553/V1_MQTT_OK/GD32VW55X_Wifi_BLE_SDK/GD32VW55x_RELEASE_V1.0.2/MSDK/wpa_supplicant/src/utils\wpabuf.c **** 	abort();
 428              		.loc 1 42 2
  43:C:/Users/stapi/OneDrive/Desktop/GD32VW553/V1_MQTT_OK/GD32VW55X_Wifi_BLE_SDK/GD32VW55x_RELEASE_V1.0.2/MSDK/wpa_supplicant/src/utils\wpabuf.c **** }
 429              		.loc 1 43 2
 430 002e 97000000 		call	abort
 430      E7800000 
 431              	.LVL45:
 432              	.L47:
 433              		.cfi_def_cfa_offset 0
 434              		.cfi_restore 1
 435              	.LBE55:
 436              	.LBE54:
 223:C:/Users/stapi/OneDrive/Desktop/GD32VW553/V1_MQTT_OK/GD32VW55X_Wifi_BLE_SDK/GD32VW55x_RELEASE_V1.0.2/MSDK/wpa_supplicant/src/utils\wpabuf.c **** 	}
 224:C:/Users/stapi/OneDrive/Desktop/GD32VW553/V1_MQTT_OK/GD32VW55X_Wifi_BLE_SDK/GD32VW55x_RELEASE_V1.0.2/MSDK/wpa_supplicant/src/utils\wpabuf.c **** 	return tmp;
 225:C:/Users/stapi/OneDrive/Desktop/GD32VW553/V1_MQTT_OK/GD32VW55X_Wifi_BLE_SDK/GD32VW55x_RELEASE_V1.0.2/MSDK/wpa_supplicant/src/utils\wpabuf.c **** }
 437              		.loc 1 225 1 is_stmt 0
 438 0036 8280     		ret
 439              		.cfi_endproc
 440              	.LFE79:
 442              		.section	.text.wpabuf_put_data,"ax",@progbits
 443              		.align	1
 445              	wpabuf_put_data:
 446              	.LFB61:
 116:C:/Users/stapi/OneDrive/Desktop/GD32VW553/V1_MQTT_OK/GD32VW55X_Wifi_BLE_SDK/GD32VW55x_RELEASE_V1.0.2/MSDK/wpa_supplicant/src/utils\wpabuf.h **** }
 117:C:/Users/stapi/OneDrive/Desktop/GD32VW553/V1_MQTT_OK/GD32VW55X_Wifi_BLE_SDK/GD32VW55x_RELEASE_V1.0.2/MSDK/wpa_supplicant/src/utils\wpabuf.h **** 
 118:C:/Users/stapi/OneDrive/Desktop/GD32VW553/V1_MQTT_OK/GD32VW55X_Wifi_BLE_SDK/GD32VW55x_RELEASE_V1.0.2/MSDK/wpa_supplicant/src/utils\wpabuf.h **** static inline void wpabuf_put_u8(struct wpabuf *buf, u8 data)
 119:C:/Users/stapi/OneDrive/Desktop/GD32VW553/V1_MQTT_OK/GD32VW55X_Wifi_BLE_SDK/GD32VW55x_RELEASE_V1.0.2/MSDK/wpa_supplicant/src/utils\wpabuf.h **** {
 120:C:/Users/stapi/OneDrive/Desktop/GD32VW553/V1_MQTT_OK/GD32VW55X_Wifi_BLE_SDK/GD32VW55x_RELEASE_V1.0.2/MSDK/wpa_supplicant/src/utils\wpabuf.h **** 	u8 *pos = (u8 *) wpabuf_put(buf, 1);
 121:C:/Users/stapi/OneDrive/Desktop/GD32VW553/V1_MQTT_OK/GD32VW55X_Wifi_BLE_SDK/GD32VW55x_RELEASE_V1.0.2/MSDK/wpa_supplicant/src/utils\wpabuf.h **** 	*pos = data;
 122:C:/Users/stapi/OneDrive/Desktop/GD32VW553/V1_MQTT_OK/GD32VW55X_Wifi_BLE_SDK/GD32VW55x_RELEASE_V1.0.2/MSDK/wpa_supplicant/src/utils\wpabuf.h **** }
 123:C:/Users/stapi/OneDrive/Desktop/GD32VW553/V1_MQTT_OK/GD32VW55X_Wifi_BLE_SDK/GD32VW55x_RELEASE_V1.0.2/MSDK/wpa_supplicant/src/utils\wpabuf.h **** 
 124:C:/Users/stapi/OneDrive/Desktop/GD32VW553/V1_MQTT_OK/GD32VW55X_Wifi_BLE_SDK/GD32VW55x_RELEASE_V1.0.2/MSDK/wpa_supplicant/src/utils\wpabuf.h **** static inline void wpabuf_put_le16(struct wpabuf *buf, u16 data)
 125:C:/Users/stapi/OneDrive/Desktop/GD32VW553/V1_MQTT_OK/GD32VW55X_Wifi_BLE_SDK/GD32VW55x_RELEASE_V1.0.2/MSDK/wpa_supplicant/src/utils\wpabuf.h **** {
 126:C:/Users/stapi/OneDrive/Desktop/GD32VW553/V1_MQTT_OK/GD32VW55X_Wifi_BLE_SDK/GD32VW55x_RELEASE_V1.0.2/MSDK/wpa_supplicant/src/utils\wpabuf.h **** 	u8 *pos = (u8 *) wpabuf_put(buf, 2);
 127:C:/Users/stapi/OneDrive/Desktop/GD32VW553/V1_MQTT_OK/GD32VW55X_Wifi_BLE_SDK/GD32VW55x_RELEASE_V1.0.2/MSDK/wpa_supplicant/src/utils\wpabuf.h **** 	WPA_PUT_LE16(pos, data);
 128:C:/Users/stapi/OneDrive/Desktop/GD32VW553/V1_MQTT_OK/GD32VW55X_Wifi_BLE_SDK/GD32VW55x_RELEASE_V1.0.2/MSDK/wpa_supplicant/src/utils\wpabuf.h **** }
 129:C:/Users/stapi/OneDrive/Desktop/GD32VW553/V1_MQTT_OK/GD32VW55X_Wifi_BLE_SDK/GD32VW55x_RELEASE_V1.0.2/MSDK/wpa_supplicant/src/utils\wpabuf.h **** 
 130:C:/Users/stapi/OneDrive/Desktop/GD32VW553/V1_MQTT_OK/GD32VW55X_Wifi_BLE_SDK/GD32VW55x_RELEASE_V1.0.2/MSDK/wpa_supplicant/src/utils\wpabuf.h **** static inline void wpabuf_put_le32(struct wpabuf *buf, u32 data)
 131:C:/Users/stapi/OneDrive/Desktop/GD32VW553/V1_MQTT_OK/GD32VW55X_Wifi_BLE_SDK/GD32VW55x_RELEASE_V1.0.2/MSDK/wpa_supplicant/src/utils\wpabuf.h **** {
 132:C:/Users/stapi/OneDrive/Desktop/GD32VW553/V1_MQTT_OK/GD32VW55X_Wifi_BLE_SDK/GD32VW55x_RELEASE_V1.0.2/MSDK/wpa_supplicant/src/utils\wpabuf.h **** 	u8 *pos = (u8 *) wpabuf_put(buf, 4);
 133:C:/Users/stapi/OneDrive/Desktop/GD32VW553/V1_MQTT_OK/GD32VW55X_Wifi_BLE_SDK/GD32VW55x_RELEASE_V1.0.2/MSDK/wpa_supplicant/src/utils\wpabuf.h **** 	WPA_PUT_LE32(pos, data);
 134:C:/Users/stapi/OneDrive/Desktop/GD32VW553/V1_MQTT_OK/GD32VW55X_Wifi_BLE_SDK/GD32VW55x_RELEASE_V1.0.2/MSDK/wpa_supplicant/src/utils\wpabuf.h **** }
 135:C:/Users/stapi/OneDrive/Desktop/GD32VW553/V1_MQTT_OK/GD32VW55X_Wifi_BLE_SDK/GD32VW55x_RELEASE_V1.0.2/MSDK/wpa_supplicant/src/utils\wpabuf.h **** 
 136:C:/Users/stapi/OneDrive/Desktop/GD32VW553/V1_MQTT_OK/GD32VW55X_Wifi_BLE_SDK/GD32VW55x_RELEASE_V1.0.2/MSDK/wpa_supplicant/src/utils\wpabuf.h **** static inline void wpabuf_put_le64(struct wpabuf *buf, u64 data)
 137:C:/Users/stapi/OneDrive/Desktop/GD32VW553/V1_MQTT_OK/GD32VW55X_Wifi_BLE_SDK/GD32VW55x_RELEASE_V1.0.2/MSDK/wpa_supplicant/src/utils\wpabuf.h **** {
 138:C:/Users/stapi/OneDrive/Desktop/GD32VW553/V1_MQTT_OK/GD32VW55X_Wifi_BLE_SDK/GD32VW55x_RELEASE_V1.0.2/MSDK/wpa_supplicant/src/utils\wpabuf.h **** 	u8 *pos = (u8 *) wpabuf_put(buf, 8);
 139:C:/Users/stapi/OneDrive/Desktop/GD32VW553/V1_MQTT_OK/GD32VW55X_Wifi_BLE_SDK/GD32VW55x_RELEASE_V1.0.2/MSDK/wpa_supplicant/src/utils\wpabuf.h **** 	WPA_PUT_LE64(pos, data);
 140:C:/Users/stapi/OneDrive/Desktop/GD32VW553/V1_MQTT_OK/GD32VW55X_Wifi_BLE_SDK/GD32VW55x_RELEASE_V1.0.2/MSDK/wpa_supplicant/src/utils\wpabuf.h **** }
 141:C:/Users/stapi/OneDrive/Desktop/GD32VW553/V1_MQTT_OK/GD32VW55X_Wifi_BLE_SDK/GD32VW55x_RELEASE_V1.0.2/MSDK/wpa_supplicant/src/utils\wpabuf.h **** 
 142:C:/Users/stapi/OneDrive/Desktop/GD32VW553/V1_MQTT_OK/GD32VW55X_Wifi_BLE_SDK/GD32VW55x_RELEASE_V1.0.2/MSDK/wpa_supplicant/src/utils\wpabuf.h **** static inline void wpabuf_put_be16(struct wpabuf *buf, u16 data)
 143:C:/Users/stapi/OneDrive/Desktop/GD32VW553/V1_MQTT_OK/GD32VW55X_Wifi_BLE_SDK/GD32VW55x_RELEASE_V1.0.2/MSDK/wpa_supplicant/src/utils\wpabuf.h **** {
 144:C:/Users/stapi/OneDrive/Desktop/GD32VW553/V1_MQTT_OK/GD32VW55X_Wifi_BLE_SDK/GD32VW55x_RELEASE_V1.0.2/MSDK/wpa_supplicant/src/utils\wpabuf.h **** 	u8 *pos = (u8 *) wpabuf_put(buf, 2);
 145:C:/Users/stapi/OneDrive/Desktop/GD32VW553/V1_MQTT_OK/GD32VW55X_Wifi_BLE_SDK/GD32VW55x_RELEASE_V1.0.2/MSDK/wpa_supplicant/src/utils\wpabuf.h **** 	WPA_PUT_BE16(pos, data);
 146:C:/Users/stapi/OneDrive/Desktop/GD32VW553/V1_MQTT_OK/GD32VW55X_Wifi_BLE_SDK/GD32VW55x_RELEASE_V1.0.2/MSDK/wpa_supplicant/src/utils\wpabuf.h **** }
 147:C:/Users/stapi/OneDrive/Desktop/GD32VW553/V1_MQTT_OK/GD32VW55X_Wifi_BLE_SDK/GD32VW55x_RELEASE_V1.0.2/MSDK/wpa_supplicant/src/utils\wpabuf.h **** 
 148:C:/Users/stapi/OneDrive/Desktop/GD32VW553/V1_MQTT_OK/GD32VW55X_Wifi_BLE_SDK/GD32VW55x_RELEASE_V1.0.2/MSDK/wpa_supplicant/src/utils\wpabuf.h **** static inline void wpabuf_put_be24(struct wpabuf *buf, u32 data)
 149:C:/Users/stapi/OneDrive/Desktop/GD32VW553/V1_MQTT_OK/GD32VW55X_Wifi_BLE_SDK/GD32VW55x_RELEASE_V1.0.2/MSDK/wpa_supplicant/src/utils\wpabuf.h **** {
 150:C:/Users/stapi/OneDrive/Desktop/GD32VW553/V1_MQTT_OK/GD32VW55X_Wifi_BLE_SDK/GD32VW55x_RELEASE_V1.0.2/MSDK/wpa_supplicant/src/utils\wpabuf.h **** 	u8 *pos = (u8 *) wpabuf_put(buf, 3);
 151:C:/Users/stapi/OneDrive/Desktop/GD32VW553/V1_MQTT_OK/GD32VW55X_Wifi_BLE_SDK/GD32VW55x_RELEASE_V1.0.2/MSDK/wpa_supplicant/src/utils\wpabuf.h **** 	WPA_PUT_BE24(pos, data);
 152:C:/Users/stapi/OneDrive/Desktop/GD32VW553/V1_MQTT_OK/GD32VW55X_Wifi_BLE_SDK/GD32VW55x_RELEASE_V1.0.2/MSDK/wpa_supplicant/src/utils\wpabuf.h **** }
 153:C:/Users/stapi/OneDrive/Desktop/GD32VW553/V1_MQTT_OK/GD32VW55X_Wifi_BLE_SDK/GD32VW55x_RELEASE_V1.0.2/MSDK/wpa_supplicant/src/utils\wpabuf.h **** 
 154:C:/Users/stapi/OneDrive/Desktop/GD32VW553/V1_MQTT_OK/GD32VW55X_Wifi_BLE_SDK/GD32VW55x_RELEASE_V1.0.2/MSDK/wpa_supplicant/src/utils\wpabuf.h **** static inline void wpabuf_put_be32(struct wpabuf *buf, u32 data)
 155:C:/Users/stapi/OneDrive/Desktop/GD32VW553/V1_MQTT_OK/GD32VW55X_Wifi_BLE_SDK/GD32VW55x_RELEASE_V1.0.2/MSDK/wpa_supplicant/src/utils\wpabuf.h **** {
 156:C:/Users/stapi/OneDrive/Desktop/GD32VW553/V1_MQTT_OK/GD32VW55X_Wifi_BLE_SDK/GD32VW55x_RELEASE_V1.0.2/MSDK/wpa_supplicant/src/utils\wpabuf.h **** 	u8 *pos = (u8 *) wpabuf_put(buf, 4);
 157:C:/Users/stapi/OneDrive/Desktop/GD32VW553/V1_MQTT_OK/GD32VW55X_Wifi_BLE_SDK/GD32VW55x_RELEASE_V1.0.2/MSDK/wpa_supplicant/src/utils\wpabuf.h **** 	WPA_PUT_BE32(pos, data);
 158:C:/Users/stapi/OneDrive/Desktop/GD32VW553/V1_MQTT_OK/GD32VW55X_Wifi_BLE_SDK/GD32VW55x_RELEASE_V1.0.2/MSDK/wpa_supplicant/src/utils\wpabuf.h **** }
 159:C:/Users/stapi/OneDrive/Desktop/GD32VW553/V1_MQTT_OK/GD32VW55X_Wifi_BLE_SDK/GD32VW55x_RELEASE_V1.0.2/MSDK/wpa_supplicant/src/utils\wpabuf.h **** 
 160:C:/Users/stapi/OneDrive/Desktop/GD32VW553/V1_MQTT_OK/GD32VW55X_Wifi_BLE_SDK/GD32VW55x_RELEASE_V1.0.2/MSDK/wpa_supplicant/src/utils\wpabuf.h **** static inline void wpabuf_put_be64(struct wpabuf *buf, u64 data)
 161:C:/Users/stapi/OneDrive/Desktop/GD32VW553/V1_MQTT_OK/GD32VW55X_Wifi_BLE_SDK/GD32VW55x_RELEASE_V1.0.2/MSDK/wpa_supplicant/src/utils\wpabuf.h **** {
 162:C:/Users/stapi/OneDrive/Desktop/GD32VW553/V1_MQTT_OK/GD32VW55X_Wifi_BLE_SDK/GD32VW55x_RELEASE_V1.0.2/MSDK/wpa_supplicant/src/utils\wpabuf.h **** 	u8 *pos = (u8 *) wpabuf_put(buf, 8);
 163:C:/Users/stapi/OneDrive/Desktop/GD32VW553/V1_MQTT_OK/GD32VW55X_Wifi_BLE_SDK/GD32VW55x_RELEASE_V1.0.2/MSDK/wpa_supplicant/src/utils\wpabuf.h **** 	WPA_PUT_BE64(pos, data);
 164:C:/Users/stapi/OneDrive/Desktop/GD32VW553/V1_MQTT_OK/GD32VW55X_Wifi_BLE_SDK/GD32VW55x_RELEASE_V1.0.2/MSDK/wpa_supplicant/src/utils\wpabuf.h **** }
 165:C:/Users/stapi/OneDrive/Desktop/GD32VW553/V1_MQTT_OK/GD32VW55X_Wifi_BLE_SDK/GD32VW55x_RELEASE_V1.0.2/MSDK/wpa_supplicant/src/utils\wpabuf.h **** 
 166:C:/Users/stapi/OneDrive/Desktop/GD32VW553/V1_MQTT_OK/GD32VW55X_Wifi_BLE_SDK/GD32VW55x_RELEASE_V1.0.2/MSDK/wpa_supplicant/src/utils\wpabuf.h **** static inline void wpabuf_put_data(struct wpabuf *buf, const void *data,
 167:C:/Users/stapi/OneDrive/Desktop/GD32VW553/V1_MQTT_OK/GD32VW55X_Wifi_BLE_SDK/GD32VW55x_RELEASE_V1.0.2/MSDK/wpa_supplicant/src/utils\wpabuf.h **** 				   size_t len)
 168:C:/Users/stapi/OneDrive/Desktop/GD32VW553/V1_MQTT_OK/GD32VW55X_Wifi_BLE_SDK/GD32VW55x_RELEASE_V1.0.2/MSDK/wpa_supplicant/src/utils\wpabuf.h **** {
 447              		.loc 2 168 1 is_stmt 1
 448              		.cfi_startproc
 449              	.LVL46:
 169:C:/Users/stapi/OneDrive/Desktop/GD32VW553/V1_MQTT_OK/GD32VW55X_Wifi_BLE_SDK/GD32VW55x_RELEASE_V1.0.2/MSDK/wpa_supplicant/src/utils\wpabuf.h **** 	if (data)
 450              		.loc 2 169 2
 451              		.loc 2 169 5 is_stmt 0
 452 0000 85C9     		beq	a1,zero,.L58
 168:C:/Users/stapi/OneDrive/Desktop/GD32VW553/V1_MQTT_OK/GD32VW55X_Wifi_BLE_SDK/GD32VW55x_RELEASE_V1.0.2/MSDK/wpa_supplicant/src/utils\wpabuf.h **** 	if (data)
 453              		.loc 2 168 1
 454 0002 17030000 		call	t0,__riscv_save_1
 454      E7020300 
 455              		.cfi_offset 8, -8
 456              		.cfi_offset 1, -4
 457              		.cfi_def_cfa_offset 16
 458 000a 4111     		addi	sp,sp,-16
 459              		.cfi_def_cfa_offset 32
 460 000c 2E84     		mv	s0,a1
 461              	.LVL47:
 462              	.LBB58:
 463              	.LBB59:
 170:C:/Users/stapi/OneDrive/Desktop/GD32VW553/V1_MQTT_OK/GD32VW55X_Wifi_BLE_SDK/GD32VW55x_RELEASE_V1.0.2/MSDK/wpa_supplicant/src/utils\wpabuf.h **** 		os_memcpy(wpabuf_put(buf, len), data, len);
 464              		.loc 2 170 3 is_stmt 1
 465 000e B285     		mv	a1,a2
 466              	.LVL48:
 467 0010 32C6     		sw	a2,12(sp)
 468 0012 97000000 		call	wpabuf_put
 468      E7800000 
 469              	.LVL49:
 470 001a 3246     		lw	a2,12(sp)
 471 001c A285     		mv	a1,s0
 472 001e 97000000 		call	os_memcpy
 472      E7800000 
 473              	.LVL50:
 474              	.LBE59:
 475              	.LBE58:
 171:C:/Users/stapi/OneDrive/Desktop/GD32VW553/V1_MQTT_OK/GD32VW55X_Wifi_BLE_SDK/GD32VW55x_RELEASE_V1.0.2/MSDK/wpa_supplicant/src/utils\wpabuf.h **** }
 476              		.loc 2 171 1 is_stmt 0
 477 0026 4101     		addi	sp,sp,16
 478              		.cfi_def_cfa_offset 0
 479              	.LVL51:
 480 0028 17030000 		tail	__riscv_restore_1
 480      67000300 
 481              		.cfi_restore 8
 482              		.cfi_restore 1
 483              		.cfi_def_cfa_offset -16
 484              	.LVL52:
 485              	.L58:
 486              		.cfi_def_cfa_offset 0
 487 0030 8280     		ret
 488              		.cfi_endproc
 489              	.LFE61:
 491              		.section	.text.wpabuf_alloc_copy,"ax",@progbits
 492              		.align	1
 493              		.globl	wpabuf_alloc_copy
 495              	wpabuf_alloc_copy:
 496              	.LFB75:
 161:C:/Users/stapi/OneDrive/Desktop/GD32VW553/V1_MQTT_OK/GD32VW55X_Wifi_BLE_SDK/GD32VW55x_RELEASE_V1.0.2/MSDK/wpa_supplicant/src/utils\wpabuf.c **** 	struct wpabuf *buf = wpabuf_alloc(len);
 497              		.loc 1 161 1 is_stmt 1
 498              		.cfi_startproc
 499              	.LVL53:
 500 0000 17030000 		call	t0,__riscv_save_2
 500      E7020300 
 501              		.cfi_offset 9, -12
 502              		.cfi_offset 8, -8
 503              		.cfi_offset 1, -4
 504              		.cfi_def_cfa_offset 16
 162:C:/Users/stapi/OneDrive/Desktop/GD32VW553/V1_MQTT_OK/GD32VW55X_Wifi_BLE_SDK/GD32VW55x_RELEASE_V1.0.2/MSDK/wpa_supplicant/src/utils\wpabuf.c **** 	if (buf)
 505              		.loc 1 162 2
 161:C:/Users/stapi/OneDrive/Desktop/GD32VW553/V1_MQTT_OK/GD32VW55X_Wifi_BLE_SDK/GD32VW55x_RELEASE_V1.0.2/MSDK/wpa_supplicant/src/utils\wpabuf.c **** 	struct wpabuf *buf = wpabuf_alloc(len);
 506              		.loc 1 161 1 is_stmt 0
 507 0008 4111     		addi	sp,sp,-16
 508              		.cfi_def_cfa_offset 32
 161:C:/Users/stapi/OneDrive/Desktop/GD32VW553/V1_MQTT_OK/GD32VW55X_Wifi_BLE_SDK/GD32VW55x_RELEASE_V1.0.2/MSDK/wpa_supplicant/src/utils\wpabuf.c **** 	struct wpabuf *buf = wpabuf_alloc(len);
 509              		.loc 1 161 1
 510 000a AA84     		mv	s1,a0
 162:C:/Users/stapi/OneDrive/Desktop/GD32VW553/V1_MQTT_OK/GD32VW55X_Wifi_BLE_SDK/GD32VW55x_RELEASE_V1.0.2/MSDK/wpa_supplicant/src/utils\wpabuf.c **** 	if (buf)
 511              		.loc 1 162 23
 512 000c 2E85     		mv	a0,a1
 513              	.LVL54:
 514 000e 2EC6     		sw	a1,12(sp)
 515 0010 97000000 		call	wpabuf_alloc
 515      E7800000 
 516              	.LVL55:
 517 0018 2A84     		mv	s0,a0
 518              	.LVL56:
 163:C:/Users/stapi/OneDrive/Desktop/GD32VW553/V1_MQTT_OK/GD32VW55X_Wifi_BLE_SDK/GD32VW55x_RELEASE_V1.0.2/MSDK/wpa_supplicant/src/utils\wpabuf.c **** 		wpabuf_put_data(buf, data, len);
 519              		.loc 1 163 2 is_stmt 1
 163:C:/Users/stapi/OneDrive/Desktop/GD32VW553/V1_MQTT_OK/GD32VW55X_Wifi_BLE_SDK/GD32VW55x_RELEASE_V1.0.2/MSDK/wpa_supplicant/src/utils\wpabuf.c **** 		wpabuf_put_data(buf, data, len);
 520              		.loc 1 163 5 is_stmt 0
 521 001a 19C5     		beq	a0,zero,.L61
 164:C:/Users/stapi/OneDrive/Desktop/GD32VW553/V1_MQTT_OK/GD32VW55X_Wifi_BLE_SDK/GD32VW55x_RELEASE_V1.0.2/MSDK/wpa_supplicant/src/utils\wpabuf.c **** 	return buf;
 522              		.loc 1 164 3 is_stmt 1
 523 001c 3246     		lw	a2,12(sp)
 524 001e A685     		mv	a1,s1
 525 0020 97000000 		call	wpabuf_put_data
 525      E7800000 
 526              	.LVL57:
 165:C:/Users/stapi/OneDrive/Desktop/GD32VW553/V1_MQTT_OK/GD32VW55X_Wifi_BLE_SDK/GD32VW55x_RELEASE_V1.0.2/MSDK/wpa_supplicant/src/utils\wpabuf.c **** }
 527              		.loc 1 165 2
 528              	.L61:
 166:C:/Users/stapi/OneDrive/Desktop/GD32VW553/V1_MQTT_OK/GD32VW55X_Wifi_BLE_SDK/GD32VW55x_RELEASE_V1.0.2/MSDK/wpa_supplicant/src/utils\wpabuf.c **** 
 529              		.loc 1 166 1 is_stmt 0
 530 0028 2285     		mv	a0,s0
 531 002a 4101     		addi	sp,sp,16
 532              		.cfi_def_cfa_offset 0
 533              	.LVL58:
 534 002c 17030000 		tail	__riscv_restore_2
 534      67000300 
 535              		.cfi_restore 9
 536              		.cfi_restore 8
 537              		.cfi_restore 1
 538              		.cfi_def_cfa_offset -16
 539              		.cfi_endproc
 540              	.LFE75:
 542              		.section	.text.wpabuf_dup,"ax",@progbits
 543              		.align	1
 544              		.globl	wpabuf_dup
 546              	wpabuf_dup:
 547              	.LFB76:
 170:C:/Users/stapi/OneDrive/Desktop/GD32VW553/V1_MQTT_OK/GD32VW55X_Wifi_BLE_SDK/GD32VW55x_RELEASE_V1.0.2/MSDK/wpa_supplicant/src/utils\wpabuf.c **** 	struct wpabuf *buf = wpabuf_alloc(wpabuf_len(src));
 548              		.loc 1 170 1 is_stmt 1
 549              		.cfi_startproc
 550              	.LVL59:
 551 0000 17030000 		call	t0,__riscv_save_2
 551      E7020300 
 552              		.cfi_offset 9, -12
 553              		.cfi_offset 8, -8
 554              		.cfi_offset 1, -4
 555              		.cfi_def_cfa_offset 16
 171:C:/Users/stapi/OneDrive/Desktop/GD32VW553/V1_MQTT_OK/GD32VW55X_Wifi_BLE_SDK/GD32VW55x_RELEASE_V1.0.2/MSDK/wpa_supplicant/src/utils\wpabuf.c **** 	if (buf)
 556              		.loc 1 171 2
 557              	.LVL60:
 558              	.LBB60:
 559              	.LBB61:
  60:C:/Users/stapi/OneDrive/Desktop/GD32VW553/V1_MQTT_OK/GD32VW55X_Wifi_BLE_SDK/GD32VW55x_RELEASE_V1.0.2/MSDK/wpa_supplicant/src/utils\wpabuf.h **** }
 560              		.loc 2 60 2
 561              	.LBE61:
 562              	.LBE60:
 170:C:/Users/stapi/OneDrive/Desktop/GD32VW553/V1_MQTT_OK/GD32VW55X_Wifi_BLE_SDK/GD32VW55x_RELEASE_V1.0.2/MSDK/wpa_supplicant/src/utils\wpabuf.c **** 	struct wpabuf *buf = wpabuf_alloc(wpabuf_len(src));
 563              		.loc 1 170 1 is_stmt 0
 564 0008 2A84     		mv	s0,a0
 171:C:/Users/stapi/OneDrive/Desktop/GD32VW553/V1_MQTT_OK/GD32VW55X_Wifi_BLE_SDK/GD32VW55x_RELEASE_V1.0.2/MSDK/wpa_supplicant/src/utils\wpabuf.c **** 	if (buf)
 565              		.loc 1 171 23
 566 000a 4841     		lw	a0,4(a0)
 567              	.LVL61:
 568 000c 97000000 		call	wpabuf_alloc
 568      E7800000 
 569              	.LVL62:
 570 0014 AA84     		mv	s1,a0
 571              	.LVL63:
 172:C:/Users/stapi/OneDrive/Desktop/GD32VW553/V1_MQTT_OK/GD32VW55X_Wifi_BLE_SDK/GD32VW55x_RELEASE_V1.0.2/MSDK/wpa_supplicant/src/utils\wpabuf.c **** 		wpabuf_put_data(buf, wpabuf_head(src), wpabuf_len(src));
 572              		.loc 1 172 2 is_stmt 1
 172:C:/Users/stapi/OneDrive/Desktop/GD32VW553/V1_MQTT_OK/GD32VW55X_Wifi_BLE_SDK/GD32VW55x_RELEASE_V1.0.2/MSDK/wpa_supplicant/src/utils\wpabuf.c **** 		wpabuf_put_data(buf, wpabuf_head(src), wpabuf_len(src));
 573              		.loc 1 172 5 is_stmt 0
 574 0016 19C5     		beq	a0,zero,.L67
 173:C:/Users/stapi/OneDrive/Desktop/GD32VW553/V1_MQTT_OK/GD32VW55X_Wifi_BLE_SDK/GD32VW55x_RELEASE_V1.0.2/MSDK/wpa_supplicant/src/utils\wpabuf.c **** 	return buf;
 575              		.loc 1 173 3 is_stmt 1
 576              	.LVL64:
 577              	.LBB62:
 578              	.LBB63:
  95:C:/Users/stapi/OneDrive/Desktop/GD32VW553/V1_MQTT_OK/GD32VW55X_Wifi_BLE_SDK/GD32VW55x_RELEASE_V1.0.2/MSDK/wpa_supplicant/src/utils\wpabuf.h **** }
 579              		.loc 2 95 2
 580              	.LBE63:
 581              	.LBE62:
 582              	.LBB64:
 583              	.LBB65:
  60:C:/Users/stapi/OneDrive/Desktop/GD32VW553/V1_MQTT_OK/GD32VW55X_Wifi_BLE_SDK/GD32VW55x_RELEASE_V1.0.2/MSDK/wpa_supplicant/src/utils\wpabuf.h **** }
 584              		.loc 2 60 2
 585              	.LBE65:
 586              	.LBE64:
 173:C:/Users/stapi/OneDrive/Desktop/GD32VW553/V1_MQTT_OK/GD32VW55X_Wifi_BLE_SDK/GD32VW55x_RELEASE_V1.0.2/MSDK/wpa_supplicant/src/utils\wpabuf.c **** 	return buf;
 587              		.loc 1 173 3 is_stmt 0
 588 0018 5040     		lw	a2,4(s0)
 589 001a 0C44     		lw	a1,8(s0)
 590 001c 97000000 		call	wpabuf_put_data
 590      E7800000 
 591              	.LVL65:
 174:C:/Users/stapi/OneDrive/Desktop/GD32VW553/V1_MQTT_OK/GD32VW55X_Wifi_BLE_SDK/GD32VW55x_RELEASE_V1.0.2/MSDK/wpa_supplicant/src/utils\wpabuf.c **** }
 592              		.loc 1 174 2 is_stmt 1
 593              	.L67:
 175:C:/Users/stapi/OneDrive/Desktop/GD32VW553/V1_MQTT_OK/GD32VW55X_Wifi_BLE_SDK/GD32VW55x_RELEASE_V1.0.2/MSDK/wpa_supplicant/src/utils\wpabuf.c **** 
 594              		.loc 1 175 1 is_stmt 0
 595 0024 2685     		mv	a0,s1
 596 0026 17030000 		tail	__riscv_restore_2
 596      67000300 
 597              		.cfi_restore 9
 598              		.cfi_restore 8
 599              		.cfi_restore 1
 600              		.cfi_def_cfa_offset 0
 601              		.cfi_endproc
 602              	.LFE76:
 604              		.section	.text.wpabuf_concat,"ax",@progbits
 605              		.align	1
 606              		.globl	wpabuf_concat
 608              	wpabuf_concat:
 609              	.LFB80:
 226:C:/Users/stapi/OneDrive/Desktop/GD32VW553/V1_MQTT_OK/GD32VW55X_Wifi_BLE_SDK/GD32VW55x_RELEASE_V1.0.2/MSDK/wpa_supplicant/src/utils\wpabuf.c **** 
 227:C:/Users/stapi/OneDrive/Desktop/GD32VW553/V1_MQTT_OK/GD32VW55X_Wifi_BLE_SDK/GD32VW55x_RELEASE_V1.0.2/MSDK/wpa_supplicant/src/utils\wpabuf.c **** 
 228:C:/Users/stapi/OneDrive/Desktop/GD32VW553/V1_MQTT_OK/GD32VW55X_Wifi_BLE_SDK/GD32VW55x_RELEASE_V1.0.2/MSDK/wpa_supplicant/src/utils\wpabuf.c **** /**
 229:C:/Users/stapi/OneDrive/Desktop/GD32VW553/V1_MQTT_OK/GD32VW55X_Wifi_BLE_SDK/GD32VW55x_RELEASE_V1.0.2/MSDK/wpa_supplicant/src/utils\wpabuf.c ****  * wpabuf_concat - Concatenate two buffers into a newly allocated one
 230:C:/Users/stapi/OneDrive/Desktop/GD32VW553/V1_MQTT_OK/GD32VW55X_Wifi_BLE_SDK/GD32VW55x_RELEASE_V1.0.2/MSDK/wpa_supplicant/src/utils\wpabuf.c ****  * @a: First buffer
 231:C:/Users/stapi/OneDrive/Desktop/GD32VW553/V1_MQTT_OK/GD32VW55X_Wifi_BLE_SDK/GD32VW55x_RELEASE_V1.0.2/MSDK/wpa_supplicant/src/utils\wpabuf.c ****  * @b: Second buffer
 232:C:/Users/stapi/OneDrive/Desktop/GD32VW553/V1_MQTT_OK/GD32VW55X_Wifi_BLE_SDK/GD32VW55x_RELEASE_V1.0.2/MSDK/wpa_supplicant/src/utils\wpabuf.c ****  * Returns: wpabuf with concatenated a + b data or %NULL on failure
 233:C:/Users/stapi/OneDrive/Desktop/GD32VW553/V1_MQTT_OK/GD32VW55X_Wifi_BLE_SDK/GD32VW55x_RELEASE_V1.0.2/MSDK/wpa_supplicant/src/utils\wpabuf.c ****  *
 234:C:/Users/stapi/OneDrive/Desktop/GD32VW553/V1_MQTT_OK/GD32VW55X_Wifi_BLE_SDK/GD32VW55x_RELEASE_V1.0.2/MSDK/wpa_supplicant/src/utils\wpabuf.c ****  * Both buffers a and b will be freed regardless of the return value. Input
 235:C:/Users/stapi/OneDrive/Desktop/GD32VW553/V1_MQTT_OK/GD32VW55X_Wifi_BLE_SDK/GD32VW55x_RELEASE_V1.0.2/MSDK/wpa_supplicant/src/utils\wpabuf.c ****  * buffers can be %NULL which is interpreted as an empty buffer.
 236:C:/Users/stapi/OneDrive/Desktop/GD32VW553/V1_MQTT_OK/GD32VW55X_Wifi_BLE_SDK/GD32VW55x_RELEASE_V1.0.2/MSDK/wpa_supplicant/src/utils\wpabuf.c ****  */
 237:C:/Users/stapi/OneDrive/Desktop/GD32VW553/V1_MQTT_OK/GD32VW55X_Wifi_BLE_SDK/GD32VW55x_RELEASE_V1.0.2/MSDK/wpa_supplicant/src/utils\wpabuf.c **** struct wpabuf * wpabuf_concat(struct wpabuf *a, struct wpabuf *b)
 238:C:/Users/stapi/OneDrive/Desktop/GD32VW553/V1_MQTT_OK/GD32VW55X_Wifi_BLE_SDK/GD32VW55x_RELEASE_V1.0.2/MSDK/wpa_supplicant/src/utils\wpabuf.c **** {
 610              		.loc 1 238 1 is_stmt 1
 611              		.cfi_startproc
 612              	.LVL66:
 613 0000 17030000 		call	t0,__riscv_save_3
 613      E7020300 
 614              		.cfi_offset 18, -16
 615              		.cfi_offset 9, -12
 616              		.cfi_offset 8, -8
 617              		.cfi_offset 1, -4
 618              		.cfi_def_cfa_offset 16
 239:C:/Users/stapi/OneDrive/Desktop/GD32VW553/V1_MQTT_OK/GD32VW55X_Wifi_BLE_SDK/GD32VW55x_RELEASE_V1.0.2/MSDK/wpa_supplicant/src/utils\wpabuf.c **** 	struct wpabuf *n = NULL;
 619              		.loc 1 239 2
 620              	.LVL67:
 240:C:/Users/stapi/OneDrive/Desktop/GD32VW553/V1_MQTT_OK/GD32VW55X_Wifi_BLE_SDK/GD32VW55x_RELEASE_V1.0.2/MSDK/wpa_supplicant/src/utils\wpabuf.c **** 	size_t len = 0;
 621              		.loc 1 240 2
 241:C:/Users/stapi/OneDrive/Desktop/GD32VW553/V1_MQTT_OK/GD32VW55X_Wifi_BLE_SDK/GD32VW55x_RELEASE_V1.0.2/MSDK/wpa_supplicant/src/utils\wpabuf.c **** 
 242:C:/Users/stapi/OneDrive/Desktop/GD32VW553/V1_MQTT_OK/GD32VW55X_Wifi_BLE_SDK/GD32VW55x_RELEASE_V1.0.2/MSDK/wpa_supplicant/src/utils\wpabuf.c **** 	if (b == NULL)
 622              		.loc 1 242 2
 238:C:/Users/stapi/OneDrive/Desktop/GD32VW553/V1_MQTT_OK/GD32VW55X_Wifi_BLE_SDK/GD32VW55x_RELEASE_V1.0.2/MSDK/wpa_supplicant/src/utils\wpabuf.c **** 	struct wpabuf *n = NULL;
 623              		.loc 1 238 1 is_stmt 0
 624 0008 2A84     		mv	s0,a0
 625              		.loc 1 242 5
 626 000a B1C5     		beq	a1,zero,.L74
 627 000c AE84     		mv	s1,a1
 243:C:/Users/stapi/OneDrive/Desktop/GD32VW553/V1_MQTT_OK/GD32VW55X_Wifi_BLE_SDK/GD32VW55x_RELEASE_V1.0.2/MSDK/wpa_supplicant/src/utils\wpabuf.c **** 		return a;
 244:C:/Users/stapi/OneDrive/Desktop/GD32VW553/V1_MQTT_OK/GD32VW55X_Wifi_BLE_SDK/GD32VW55x_RELEASE_V1.0.2/MSDK/wpa_supplicant/src/utils\wpabuf.c **** 
 245:C:/Users/stapi/OneDrive/Desktop/GD32VW553/V1_MQTT_OK/GD32VW55X_Wifi_BLE_SDK/GD32VW55x_RELEASE_V1.0.2/MSDK/wpa_supplicant/src/utils\wpabuf.c **** 	if (a)
 628              		.loc 1 245 2 is_stmt 1
 240:C:/Users/stapi/OneDrive/Desktop/GD32VW553/V1_MQTT_OK/GD32VW55X_Wifi_BLE_SDK/GD32VW55x_RELEASE_V1.0.2/MSDK/wpa_supplicant/src/utils\wpabuf.c **** 
 629              		.loc 1 240 9 is_stmt 0
 630 000e 8147     		li	a5,0
 631              		.loc 1 245 5
 632 0010 11C1     		beq	a0,zero,.L75
 246:C:/Users/stapi/OneDrive/Desktop/GD32VW553/V1_MQTT_OK/GD32VW55X_Wifi_BLE_SDK/GD32VW55x_RELEASE_V1.0.2/MSDK/wpa_supplicant/src/utils\wpabuf.c **** 		len += wpabuf_len(a);
 633              		.loc 1 246 3 is_stmt 1
 634              	.LVL68:
 635              	.LBB82:
 636              	.LBB83:
  60:C:/Users/stapi/OneDrive/Desktop/GD32VW553/V1_MQTT_OK/GD32VW55X_Wifi_BLE_SDK/GD32VW55x_RELEASE_V1.0.2/MSDK/wpa_supplicant/src/utils\wpabuf.h **** }
 637              		.loc 2 60 2
  60:C:/Users/stapi/OneDrive/Desktop/GD32VW553/V1_MQTT_OK/GD32VW55X_Wifi_BLE_SDK/GD32VW55x_RELEASE_V1.0.2/MSDK/wpa_supplicant/src/utils\wpabuf.h **** }
 638              		.loc 2 60 12 is_stmt 0
 639 0012 5C41     		lw	a5,4(a0)
 640              	.LVL69:
 641              	.L75:
 642              	.LBE83:
 643              	.LBE82:
 247:C:/Users/stapi/OneDrive/Desktop/GD32VW553/V1_MQTT_OK/GD32VW55X_Wifi_BLE_SDK/GD32VW55x_RELEASE_V1.0.2/MSDK/wpa_supplicant/src/utils\wpabuf.c **** 	len += wpabuf_len(b);
 644              		.loc 1 247 2 is_stmt 1
 645              	.LBB84:
 646              	.LBB85:
  60:C:/Users/stapi/OneDrive/Desktop/GD32VW553/V1_MQTT_OK/GD32VW55X_Wifi_BLE_SDK/GD32VW55x_RELEASE_V1.0.2/MSDK/wpa_supplicant/src/utils\wpabuf.h **** }
 647              		.loc 2 60 2
 648              	.LBE85:
 649              	.LBE84:
 248:C:/Users/stapi/OneDrive/Desktop/GD32VW553/V1_MQTT_OK/GD32VW55X_Wifi_BLE_SDK/GD32VW55x_RELEASE_V1.0.2/MSDK/wpa_supplicant/src/utils\wpabuf.c **** 
 249:C:/Users/stapi/OneDrive/Desktop/GD32VW553/V1_MQTT_OK/GD32VW55X_Wifi_BLE_SDK/GD32VW55x_RELEASE_V1.0.2/MSDK/wpa_supplicant/src/utils\wpabuf.c **** 	n = wpabuf_alloc(len);
 650              		.loc 1 249 2
 247:C:/Users/stapi/OneDrive/Desktop/GD32VW553/V1_MQTT_OK/GD32VW55X_Wifi_BLE_SDK/GD32VW55x_RELEASE_V1.0.2/MSDK/wpa_supplicant/src/utils\wpabuf.c **** 	len += wpabuf_len(b);
 651              		.loc 1 247 6 is_stmt 0
 652 0014 C840     		lw	a0,4(s1)
 653              	.LVL70:
 654              		.loc 1 249 6
 655 0016 3E95     		add	a0,a5,a0
 656              	.LVL71:
 657 0018 97000000 		call	wpabuf_alloc
 657      E7800000 
 658              	.LVL72:
 659 0020 2A89     		mv	s2,a0
 660              	.LVL73:
 250:C:/Users/stapi/OneDrive/Desktop/GD32VW553/V1_MQTT_OK/GD32VW55X_Wifi_BLE_SDK/GD32VW55x_RELEASE_V1.0.2/MSDK/wpa_supplicant/src/utils\wpabuf.c **** 	if (n) {
 661              		.loc 1 250 2 is_stmt 1
 662              		.loc 1 250 5 is_stmt 0
 663 0022 19CD     		beq	a0,zero,.L76
 251:C:/Users/stapi/OneDrive/Desktop/GD32VW553/V1_MQTT_OK/GD32VW55X_Wifi_BLE_SDK/GD32VW55x_RELEASE_V1.0.2/MSDK/wpa_supplicant/src/utils\wpabuf.c **** 		if (a)
 664              		.loc 1 251 3 is_stmt 1
 665              		.loc 1 251 6 is_stmt 0
 666 0024 19C4     		beq	s0,zero,.L77
 252:C:/Users/stapi/OneDrive/Desktop/GD32VW553/V1_MQTT_OK/GD32VW55X_Wifi_BLE_SDK/GD32VW55x_RELEASE_V1.0.2/MSDK/wpa_supplicant/src/utils\wpabuf.c **** 			wpabuf_put_buf(n, a);
 667              		.loc 1 252 4 is_stmt 1
 668              	.LVL74:
 669              	.LBB86:
 670              	.LBB87:
 172:C:/Users/stapi/OneDrive/Desktop/GD32VW553/V1_MQTT_OK/GD32VW55X_Wifi_BLE_SDK/GD32VW55x_RELEASE_V1.0.2/MSDK/wpa_supplicant/src/utils\wpabuf.h **** 
 173:C:/Users/stapi/OneDrive/Desktop/GD32VW553/V1_MQTT_OK/GD32VW55X_Wifi_BLE_SDK/GD32VW55x_RELEASE_V1.0.2/MSDK/wpa_supplicant/src/utils\wpabuf.h **** static inline void wpabuf_put_buf(struct wpabuf *dst,
 174:C:/Users/stapi/OneDrive/Desktop/GD32VW553/V1_MQTT_OK/GD32VW55X_Wifi_BLE_SDK/GD32VW55x_RELEASE_V1.0.2/MSDK/wpa_supplicant/src/utils\wpabuf.h **** 				  const struct wpabuf *src)
 175:C:/Users/stapi/OneDrive/Desktop/GD32VW553/V1_MQTT_OK/GD32VW55X_Wifi_BLE_SDK/GD32VW55x_RELEASE_V1.0.2/MSDK/wpa_supplicant/src/utils\wpabuf.h **** {
 176:C:/Users/stapi/OneDrive/Desktop/GD32VW553/V1_MQTT_OK/GD32VW55X_Wifi_BLE_SDK/GD32VW55x_RELEASE_V1.0.2/MSDK/wpa_supplicant/src/utils\wpabuf.h **** 	wpabuf_put_data(dst, wpabuf_head(src), wpabuf_len(src));
 671              		.loc 2 176 2
 672              	.LBB88:
 673              	.LBB89:
  95:C:/Users/stapi/OneDrive/Desktop/GD32VW553/V1_MQTT_OK/GD32VW55X_Wifi_BLE_SDK/GD32VW55x_RELEASE_V1.0.2/MSDK/wpa_supplicant/src/utils\wpabuf.h **** }
 674              		.loc 2 95 2
 675              	.LBE89:
 676              	.LBE88:
 677              	.LBB90:
 678              	.LBB91:
  60:C:/Users/stapi/OneDrive/Desktop/GD32VW553/V1_MQTT_OK/GD32VW55X_Wifi_BLE_SDK/GD32VW55x_RELEASE_V1.0.2/MSDK/wpa_supplicant/src/utils\wpabuf.h **** }
 679              		.loc 2 60 2
 680              	.LBE91:
 681              	.LBE90:
 682              		.loc 2 176 2 is_stmt 0
 683 0026 5040     		lw	a2,4(s0)
 684 0028 0C44     		lw	a1,8(s0)
 685 002a 97000000 		call	wpabuf_put_data
 685      E7800000 
 686              	.LVL75:
 687              	.L77:
 688              	.LBE87:
 689              	.LBE86:
 253:C:/Users/stapi/OneDrive/Desktop/GD32VW553/V1_MQTT_OK/GD32VW55X_Wifi_BLE_SDK/GD32VW55x_RELEASE_V1.0.2/MSDK/wpa_supplicant/src/utils\wpabuf.c **** 		wpabuf_put_buf(n, b);
 690              		.loc 1 253 3 is_stmt 1
 691              	.LBB92:
 692              	.LBB93:
 693              		.loc 2 176 2
 694              	.LBB94:
 695              	.LBB95:
  95:C:/Users/stapi/OneDrive/Desktop/GD32VW553/V1_MQTT_OK/GD32VW55X_Wifi_BLE_SDK/GD32VW55x_RELEASE_V1.0.2/MSDK/wpa_supplicant/src/utils\wpabuf.h **** }
 696              		.loc 2 95 2
 697              	.LBE95:
 698              	.LBE94:
 699              	.LBB96:
 700              	.LBB97:
  60:C:/Users/stapi/OneDrive/Desktop/GD32VW553/V1_MQTT_OK/GD32VW55X_Wifi_BLE_SDK/GD32VW55x_RELEASE_V1.0.2/MSDK/wpa_supplicant/src/utils\wpabuf.h **** }
 701              		.loc 2 60 2
 702              	.LBE97:
 703              	.LBE96:
 704              		.loc 2 176 2 is_stmt 0
 705 0032 D040     		lw	a2,4(s1)
 706 0034 8C44     		lw	a1,8(s1)
 707 0036 4A85     		mv	a0,s2
 708 0038 97000000 		call	wpabuf_put_data
 708      E7800000 
 709              	.LVL76:
 710              	.L76:
 711              	.LBE93:
 712              	.LBE92:
 254:C:/Users/stapi/OneDrive/Desktop/GD32VW553/V1_MQTT_OK/GD32VW55X_Wifi_BLE_SDK/GD32VW55x_RELEASE_V1.0.2/MSDK/wpa_supplicant/src/utils\wpabuf.c **** 	}
 255:C:/Users/stapi/OneDrive/Desktop/GD32VW553/V1_MQTT_OK/GD32VW55X_Wifi_BLE_SDK/GD32VW55x_RELEASE_V1.0.2/MSDK/wpa_supplicant/src/utils\wpabuf.c **** 
 256:C:/Users/stapi/OneDrive/Desktop/GD32VW553/V1_MQTT_OK/GD32VW55X_Wifi_BLE_SDK/GD32VW55x_RELEASE_V1.0.2/MSDK/wpa_supplicant/src/utils\wpabuf.c **** 	wpabuf_free(a);
 713              		.loc 1 256 2 is_stmt 1
 714 0040 2285     		mv	a0,s0
 715 0042 97000000 		call	wpabuf_free
 715      E7800000 
 716              	.LVL77:
 257:C:/Users/stapi/OneDrive/Desktop/GD32VW553/V1_MQTT_OK/GD32VW55X_Wifi_BLE_SDK/GD32VW55x_RELEASE_V1.0.2/MSDK/wpa_supplicant/src/utils\wpabuf.c **** 	wpabuf_free(b);
 717              		.loc 1 257 2
 718 004a 2685     		mv	a0,s1
 719 004c 97000000 		call	wpabuf_free
 719      E7800000 
 720              	.LVL78:
 258:C:/Users/stapi/OneDrive/Desktop/GD32VW553/V1_MQTT_OK/GD32VW55X_Wifi_BLE_SDK/GD32VW55x_RELEASE_V1.0.2/MSDK/wpa_supplicant/src/utils\wpabuf.c **** 
 259:C:/Users/stapi/OneDrive/Desktop/GD32VW553/V1_MQTT_OK/GD32VW55X_Wifi_BLE_SDK/GD32VW55x_RELEASE_V1.0.2/MSDK/wpa_supplicant/src/utils\wpabuf.c **** 	return n;
 721              		.loc 1 259 2
 249:C:/Users/stapi/OneDrive/Desktop/GD32VW553/V1_MQTT_OK/GD32VW55X_Wifi_BLE_SDK/GD32VW55x_RELEASE_V1.0.2/MSDK/wpa_supplicant/src/utils\wpabuf.c **** 	if (n) {
 722              		.loc 1 249 6 is_stmt 0
 723 0054 4A84     		mv	s0,s2
 724              	.LVL79:
 725              	.L74:
 260:C:/Users/stapi/OneDrive/Desktop/GD32VW553/V1_MQTT_OK/GD32VW55X_Wifi_BLE_SDK/GD32VW55x_RELEASE_V1.0.2/MSDK/wpa_supplicant/src/utils\wpabuf.c **** }
 726              		.loc 1 260 1
 727 0056 2285     		mv	a0,s0
 728 0058 17030000 		tail	__riscv_restore_3
 728      67000300 
 729              		.cfi_restore 18
 730              		.cfi_restore 9
 731              		.cfi_restore 8
 732              		.cfi_restore 1
 733              		.cfi_def_cfa_offset 0
 734              		.cfi_endproc
 735              	.LFE80:
 737              		.section	.text.wpabuf_zeropad,"ax",@progbits
 738              		.align	1
 739              		.globl	wpabuf_zeropad
 741              	wpabuf_zeropad:
 742              	.LFB81:
 261:C:/Users/stapi/OneDrive/Desktop/GD32VW553/V1_MQTT_OK/GD32VW55X_Wifi_BLE_SDK/GD32VW55x_RELEASE_V1.0.2/MSDK/wpa_supplicant/src/utils\wpabuf.c **** 
 262:C:/Users/stapi/OneDrive/Desktop/GD32VW553/V1_MQTT_OK/GD32VW55X_Wifi_BLE_SDK/GD32VW55x_RELEASE_V1.0.2/MSDK/wpa_supplicant/src/utils\wpabuf.c **** 
 263:C:/Users/stapi/OneDrive/Desktop/GD32VW553/V1_MQTT_OK/GD32VW55X_Wifi_BLE_SDK/GD32VW55x_RELEASE_V1.0.2/MSDK/wpa_supplicant/src/utils\wpabuf.c **** /**
 264:C:/Users/stapi/OneDrive/Desktop/GD32VW553/V1_MQTT_OK/GD32VW55X_Wifi_BLE_SDK/GD32VW55x_RELEASE_V1.0.2/MSDK/wpa_supplicant/src/utils\wpabuf.c ****  * wpabuf_zeropad - Pad buffer with 0x00 octets (prefix) to specified length
 265:C:/Users/stapi/OneDrive/Desktop/GD32VW553/V1_MQTT_OK/GD32VW55X_Wifi_BLE_SDK/GD32VW55x_RELEASE_V1.0.2/MSDK/wpa_supplicant/src/utils\wpabuf.c ****  * @buf: Buffer to be padded
 266:C:/Users/stapi/OneDrive/Desktop/GD32VW553/V1_MQTT_OK/GD32VW55X_Wifi_BLE_SDK/GD32VW55x_RELEASE_V1.0.2/MSDK/wpa_supplicant/src/utils\wpabuf.c ****  * @len: Length for the padded buffer
 267:C:/Users/stapi/OneDrive/Desktop/GD32VW553/V1_MQTT_OK/GD32VW55X_Wifi_BLE_SDK/GD32VW55x_RELEASE_V1.0.2/MSDK/wpa_supplicant/src/utils\wpabuf.c ****  * Returns: wpabuf padded to len octets or %NULL on failure
 268:C:/Users/stapi/OneDrive/Desktop/GD32VW553/V1_MQTT_OK/GD32VW55X_Wifi_BLE_SDK/GD32VW55x_RELEASE_V1.0.2/MSDK/wpa_supplicant/src/utils\wpabuf.c ****  *
 269:C:/Users/stapi/OneDrive/Desktop/GD32VW553/V1_MQTT_OK/GD32VW55X_Wifi_BLE_SDK/GD32VW55x_RELEASE_V1.0.2/MSDK/wpa_supplicant/src/utils\wpabuf.c ****  * If buf is longer than len octets or of same size, it will be returned as-is.
 270:C:/Users/stapi/OneDrive/Desktop/GD32VW553/V1_MQTT_OK/GD32VW55X_Wifi_BLE_SDK/GD32VW55x_RELEASE_V1.0.2/MSDK/wpa_supplicant/src/utils\wpabuf.c ****  * Otherwise a new buffer is allocated and prefixed with 0x00 octets followed
 271:C:/Users/stapi/OneDrive/Desktop/GD32VW553/V1_MQTT_OK/GD32VW55X_Wifi_BLE_SDK/GD32VW55x_RELEASE_V1.0.2/MSDK/wpa_supplicant/src/utils\wpabuf.c ****  * by the source data. The source buffer will be freed on error, i.e., caller
 272:C:/Users/stapi/OneDrive/Desktop/GD32VW553/V1_MQTT_OK/GD32VW55X_Wifi_BLE_SDK/GD32VW55x_RELEASE_V1.0.2/MSDK/wpa_supplicant/src/utils\wpabuf.c ****  * will only be responsible on freeing the returned buffer. If buf is %NULL,
 273:C:/Users/stapi/OneDrive/Desktop/GD32VW553/V1_MQTT_OK/GD32VW55X_Wifi_BLE_SDK/GD32VW55x_RELEASE_V1.0.2/MSDK/wpa_supplicant/src/utils\wpabuf.c ****  * %NULL will be returned.
 274:C:/Users/stapi/OneDrive/Desktop/GD32VW553/V1_MQTT_OK/GD32VW55X_Wifi_BLE_SDK/GD32VW55x_RELEASE_V1.0.2/MSDK/wpa_supplicant/src/utils\wpabuf.c ****  */
 275:C:/Users/stapi/OneDrive/Desktop/GD32VW553/V1_MQTT_OK/GD32VW55X_Wifi_BLE_SDK/GD32VW55x_RELEASE_V1.0.2/MSDK/wpa_supplicant/src/utils\wpabuf.c **** struct wpabuf * wpabuf_zeropad(struct wpabuf *buf, size_t len)
 276:C:/Users/stapi/OneDrive/Desktop/GD32VW553/V1_MQTT_OK/GD32VW55X_Wifi_BLE_SDK/GD32VW55x_RELEASE_V1.0.2/MSDK/wpa_supplicant/src/utils\wpabuf.c **** {
 743              		.loc 1 276 1 is_stmt 1
 744              		.cfi_startproc
 745              	.LVL80:
 746 0000 17030000 		call	t0,__riscv_save_4
 746      E7020300 
 747              		.cfi_offset 19, -20
 748              		.cfi_offset 18, -16
 749              		.cfi_offset 9, -12
 750              		.cfi_offset 8, -8
 751              		.cfi_offset 1, -4
 752              		.cfi_def_cfa_offset 32
 277:C:/Users/stapi/OneDrive/Desktop/GD32VW553/V1_MQTT_OK/GD32VW55X_Wifi_BLE_SDK/GD32VW55x_RELEASE_V1.0.2/MSDK/wpa_supplicant/src/utils\wpabuf.c **** 	struct wpabuf *ret;
 753              		.loc 1 277 2
 278:C:/Users/stapi/OneDrive/Desktop/GD32VW553/V1_MQTT_OK/GD32VW55X_Wifi_BLE_SDK/GD32VW55x_RELEASE_V1.0.2/MSDK/wpa_supplicant/src/utils\wpabuf.c **** 	size_t blen;
 754              		.loc 1 278 2
 279:C:/Users/stapi/OneDrive/Desktop/GD32VW553/V1_MQTT_OK/GD32VW55X_Wifi_BLE_SDK/GD32VW55x_RELEASE_V1.0.2/MSDK/wpa_supplicant/src/utils\wpabuf.c **** 
 280:C:/Users/stapi/OneDrive/Desktop/GD32VW553/V1_MQTT_OK/GD32VW55X_Wifi_BLE_SDK/GD32VW55x_RELEASE_V1.0.2/MSDK/wpa_supplicant/src/utils\wpabuf.c **** 	if (buf == NULL)
 755              		.loc 1 280 2
 276:C:/Users/stapi/OneDrive/Desktop/GD32VW553/V1_MQTT_OK/GD32VW55X_Wifi_BLE_SDK/GD32VW55x_RELEASE_V1.0.2/MSDK/wpa_supplicant/src/utils\wpabuf.c **** 	struct wpabuf *ret;
 756              		.loc 1 276 1 is_stmt 0
 757 0008 2A84     		mv	s0,a0
 758              		.loc 1 280 5
 759 000a 39C5     		beq	a0,zero,.L90
 760              	.LBB106:
 761              	.LBB107:
  60:C:/Users/stapi/OneDrive/Desktop/GD32VW553/V1_MQTT_OK/GD32VW55X_Wifi_BLE_SDK/GD32VW55x_RELEASE_V1.0.2/MSDK/wpa_supplicant/src/utils\wpabuf.h **** }
 762              		.loc 2 60 12
 763 000c 83294500 		lw	s3,4(a0)
 764 0010 AE84     		mv	s1,a1
 765              	.LBE107:
 766              	.LBE106:
 281:C:/Users/stapi/OneDrive/Desktop/GD32VW553/V1_MQTT_OK/GD32VW55X_Wifi_BLE_SDK/GD32VW55x_RELEASE_V1.0.2/MSDK/wpa_supplicant/src/utils\wpabuf.c **** 		return NULL;
 282:C:/Users/stapi/OneDrive/Desktop/GD32VW553/V1_MQTT_OK/GD32VW55X_Wifi_BLE_SDK/GD32VW55x_RELEASE_V1.0.2/MSDK/wpa_supplicant/src/utils\wpabuf.c **** 
 283:C:/Users/stapi/OneDrive/Desktop/GD32VW553/V1_MQTT_OK/GD32VW55X_Wifi_BLE_SDK/GD32VW55x_RELEASE_V1.0.2/MSDK/wpa_supplicant/src/utils\wpabuf.c **** 	blen = wpabuf_len(buf);
 767              		.loc 1 283 2 is_stmt 1
 768              	.LVL81:
 769              	.LBB109:
 770              	.LBB108:
  60:C:/Users/stapi/OneDrive/Desktop/GD32VW553/V1_MQTT_OK/GD32VW55X_Wifi_BLE_SDK/GD32VW55x_RELEASE_V1.0.2/MSDK/wpa_supplicant/src/utils\wpabuf.h **** }
 771              		.loc 2 60 2
 772              	.LBE108:
 773              	.LBE109:
 284:C:/Users/stapi/OneDrive/Desktop/GD32VW553/V1_MQTT_OK/GD32VW55X_Wifi_BLE_SDK/GD32VW55x_RELEASE_V1.0.2/MSDK/wpa_supplicant/src/utils\wpabuf.c **** 	if (blen >= len)
 774              		.loc 1 284 2
 775              		.loc 1 284 5 is_stmt 0
 776 0012 63F3B904 		bgeu	s3,a1,.L90
 285:C:/Users/stapi/OneDrive/Desktop/GD32VW553/V1_MQTT_OK/GD32VW55X_Wifi_BLE_SDK/GD32VW55x_RELEASE_V1.0.2/MSDK/wpa_supplicant/src/utils\wpabuf.c **** 		return buf;
 286:C:/Users/stapi/OneDrive/Desktop/GD32VW553/V1_MQTT_OK/GD32VW55X_Wifi_BLE_SDK/GD32VW55x_RELEASE_V1.0.2/MSDK/wpa_supplicant/src/utils\wpabuf.c **** 
 287:C:/Users/stapi/OneDrive/Desktop/GD32VW553/V1_MQTT_OK/GD32VW55X_Wifi_BLE_SDK/GD32VW55x_RELEASE_V1.0.2/MSDK/wpa_supplicant/src/utils\wpabuf.c **** 	ret = wpabuf_alloc(len);
 777              		.loc 1 287 2 is_stmt 1
 778              		.loc 1 287 8 is_stmt 0
 779 0016 2E85     		mv	a0,a1
 780              	.LVL82:
 781 0018 97000000 		call	wpabuf_alloc
 781      E7800000 
 782              	.LVL83:
 783 0020 2A89     		mv	s2,a0
 784              	.LVL84:
 288:C:/Users/stapi/OneDrive/Desktop/GD32VW553/V1_MQTT_OK/GD32VW55X_Wifi_BLE_SDK/GD32VW55x_RELEASE_V1.0.2/MSDK/wpa_supplicant/src/utils\wpabuf.c **** 	if (ret) {
 785              		.loc 1 288 2 is_stmt 1
 786              		.loc 1 288 5 is_stmt 0
 787 0022 0DC5     		beq	a0,zero,.L91
 289:C:/Users/stapi/OneDrive/Desktop/GD32VW553/V1_MQTT_OK/GD32VW55X_Wifi_BLE_SDK/GD32VW55x_RELEASE_V1.0.2/MSDK/wpa_supplicant/src/utils\wpabuf.c **** 		os_memset(wpabuf_put(ret, len - blen), 0, len - blen);
 788              		.loc 1 289 3 is_stmt 1
 789 0024 B3843441 		sub	s1,s1,s3
 790              	.LVL85:
 791 0028 A685     		mv	a1,s1
 792 002a 97000000 		call	wpabuf_put
 792      E7800000 
 793              	.LVL86:
 794 0032 2686     		mv	a2,s1
 795 0034 8145     		li	a1,0
 796 0036 97000000 		call	os_memset
 796      E7800000 
 797              	.LVL87:
 290:C:/Users/stapi/OneDrive/Desktop/GD32VW553/V1_MQTT_OK/GD32VW55X_Wifi_BLE_SDK/GD32VW55x_RELEASE_V1.0.2/MSDK/wpa_supplicant/src/utils\wpabuf.c **** 		wpabuf_put_buf(ret, buf);
 798              		.loc 1 290 3
 799              	.LBB110:
 800              	.LBB111:
 801              		.loc 2 176 2
 802              	.LBB112:
 803              	.LBB113:
  95:C:/Users/stapi/OneDrive/Desktop/GD32VW553/V1_MQTT_OK/GD32VW55X_Wifi_BLE_SDK/GD32VW55x_RELEASE_V1.0.2/MSDK/wpa_supplicant/src/utils\wpabuf.h **** }
 804              		.loc 2 95 2
 805              	.LBE113:
 806              	.LBE112:
 807              	.LBB114:
 808              	.LBB115:
  60:C:/Users/stapi/OneDrive/Desktop/GD32VW553/V1_MQTT_OK/GD32VW55X_Wifi_BLE_SDK/GD32VW55x_RELEASE_V1.0.2/MSDK/wpa_supplicant/src/utils\wpabuf.h **** }
 809              		.loc 2 60 2
 810              	.LBE115:
 811              	.LBE114:
 812              		.loc 2 176 2 is_stmt 0
 813 003e 5040     		lw	a2,4(s0)
 814 0040 0C44     		lw	a1,8(s0)
 815 0042 4A85     		mv	a0,s2
 816 0044 97000000 		call	wpabuf_put_data
 816      E7800000 
 817              	.LVL88:
 818              	.L91:
 819              	.LBE111:
 820              	.LBE110:
 291:C:/Users/stapi/OneDrive/Desktop/GD32VW553/V1_MQTT_OK/GD32VW55X_Wifi_BLE_SDK/GD32VW55x_RELEASE_V1.0.2/MSDK/wpa_supplicant/src/utils\wpabuf.c **** 	}
 292:C:/Users/stapi/OneDrive/Desktop/GD32VW553/V1_MQTT_OK/GD32VW55X_Wifi_BLE_SDK/GD32VW55x_RELEASE_V1.0.2/MSDK/wpa_supplicant/src/utils\wpabuf.c **** 	wpabuf_free(buf);
 821              		.loc 1 292 2 is_stmt 1
 822 004c 2285     		mv	a0,s0
 823 004e 97000000 		call	wpabuf_free
 823      E7800000 
 824              	.LVL89:
 293:C:/Users/stapi/OneDrive/Desktop/GD32VW553/V1_MQTT_OK/GD32VW55X_Wifi_BLE_SDK/GD32VW55x_RELEASE_V1.0.2/MSDK/wpa_supplicant/src/utils\wpabuf.c **** 
 294:C:/Users/stapi/OneDrive/Desktop/GD32VW553/V1_MQTT_OK/GD32VW55X_Wifi_BLE_SDK/GD32VW55x_RELEASE_V1.0.2/MSDK/wpa_supplicant/src/utils\wpabuf.c **** 	return ret;
 825              		.loc 1 294 2
 287:C:/Users/stapi/OneDrive/Desktop/GD32VW553/V1_MQTT_OK/GD32VW55X_Wifi_BLE_SDK/GD32VW55x_RELEASE_V1.0.2/MSDK/wpa_supplicant/src/utils\wpabuf.c **** 	if (ret) {
 826              		.loc 1 287 8 is_stmt 0
 827 0056 4A84     		mv	s0,s2
 828              	.LVL90:
 829              	.L90:
 295:C:/Users/stapi/OneDrive/Desktop/GD32VW553/V1_MQTT_OK/GD32VW55X_Wifi_BLE_SDK/GD32VW55x_RELEASE_V1.0.2/MSDK/wpa_supplicant/src/utils\wpabuf.c **** }
 830              		.loc 1 295 1
 831 0058 2285     		mv	a0,s0
 832 005a 17030000 		tail	__riscv_restore_4
 832      67000300 
 833              		.cfi_restore 19
 834              		.cfi_restore 18
 835              		.cfi_restore 9
 836              		.cfi_restore 8
 837              		.cfi_restore 1
 838              		.cfi_def_cfa_offset 0
 839              		.cfi_endproc
 840              	.LFE81:
 842              		.section	.text.wpabuf_printf,"ax",@progbits
 843              		.align	1
 844              		.globl	wpabuf_printf
 846              	wpabuf_printf:
 847              	.LFB82:
 296:C:/Users/stapi/OneDrive/Desktop/GD32VW553/V1_MQTT_OK/GD32VW55X_Wifi_BLE_SDK/GD32VW55x_RELEASE_V1.0.2/MSDK/wpa_supplicant/src/utils\wpabuf.c **** 
 297:C:/Users/stapi/OneDrive/Desktop/GD32VW553/V1_MQTT_OK/GD32VW55X_Wifi_BLE_SDK/GD32VW55x_RELEASE_V1.0.2/MSDK/wpa_supplicant/src/utils\wpabuf.c **** 
 298:C:/Users/stapi/OneDrive/Desktop/GD32VW553/V1_MQTT_OK/GD32VW55X_Wifi_BLE_SDK/GD32VW55x_RELEASE_V1.0.2/MSDK/wpa_supplicant/src/utils\wpabuf.c **** void wpabuf_printf(struct wpabuf *buf, char *fmt, ...)
 299:C:/Users/stapi/OneDrive/Desktop/GD32VW553/V1_MQTT_OK/GD32VW55X_Wifi_BLE_SDK/GD32VW55x_RELEASE_V1.0.2/MSDK/wpa_supplicant/src/utils\wpabuf.c **** {
 848              		.loc 1 299 1 is_stmt 1
 849              		.cfi_startproc
 850              	.LVL91:
 300:C:/Users/stapi/OneDrive/Desktop/GD32VW553/V1_MQTT_OK/GD32VW55X_Wifi_BLE_SDK/GD32VW55x_RELEASE_V1.0.2/MSDK/wpa_supplicant/src/utils\wpabuf.c **** 	va_list ap;
 851              		.loc 1 300 2
 301:C:/Users/stapi/OneDrive/Desktop/GD32VW553/V1_MQTT_OK/GD32VW55X_Wifi_BLE_SDK/GD32VW55x_RELEASE_V1.0.2/MSDK/wpa_supplicant/src/utils\wpabuf.c **** 	void *tmp = wpabuf_mhead_u8(buf) + wpabuf_len(buf);
 852              		.loc 1 301 2
 115:C:/Users/stapi/OneDrive/Desktop/GD32VW553/V1_MQTT_OK/GD32VW55X_Wifi_BLE_SDK/GD32VW55x_RELEASE_V1.0.2/MSDK/wpa_supplicant/src/utils\wpabuf.h **** }
 853              		.loc 2 115 2
 854              	.LBB123:
 855              	.LBB124:
 856              	.LBB125:
 110:C:/Users/stapi/OneDrive/Desktop/GD32VW553/V1_MQTT_OK/GD32VW55X_Wifi_BLE_SDK/GD32VW55x_RELEASE_V1.0.2/MSDK/wpa_supplicant/src/utils\wpabuf.h **** }
 857              		.loc 2 110 2
 858              	.LBE125:
 859              	.LBE124:
 860              	.LBE123:
 861              	.LBB126:
 862              	.LBB127:
  60:C:/Users/stapi/OneDrive/Desktop/GD32VW553/V1_MQTT_OK/GD32VW55X_Wifi_BLE_SDK/GD32VW55x_RELEASE_V1.0.2/MSDK/wpa_supplicant/src/utils\wpabuf.h **** }
 863              		.loc 2 60 2
 864              	.LBE127:
 865              	.LBE126:
 299:C:/Users/stapi/OneDrive/Desktop/GD32VW553/V1_MQTT_OK/GD32VW55X_Wifi_BLE_SDK/GD32VW55x_RELEASE_V1.0.2/MSDK/wpa_supplicant/src/utils\wpabuf.c **** 	va_list ap;
 866              		.loc 1 299 1 is_stmt 0
 867 0000 3971     		addi	sp,sp,-64
 868              		.cfi_def_cfa_offset 64
 869 0002 32D4     		sw	a2,40(sp)
 870 0004 36D6     		sw	a3,44(sp)
 871 0006 3AD8     		sw	a4,48(sp)
 872 0008 3EDA     		sw	a5,52(sp)
 873 000a 42DC     		sw	a6,56(sp)
 874 000c 22CC     		sw	s0,24(sp)
 875 000e 46DE     		sw	a7,60(sp)
 876              		.cfi_offset 8, -40
 877 0010 2A84     		mv	s0,a0
 878              		.loc 1 301 8
 879 0012 5C40     		lw	a5,4(s0)
 880 0014 0845     		lw	a0,8(a0)
 881              	.LVL92:
 302:C:/Users/stapi/OneDrive/Desktop/GD32VW553/V1_MQTT_OK/GD32VW55X_Wifi_BLE_SDK/GD32VW55x_RELEASE_V1.0.2/MSDK/wpa_supplicant/src/utils\wpabuf.c **** 	int res;
 882              		.loc 1 302 2 is_stmt 1
 303:C:/Users/stapi/OneDrive/Desktop/GD32VW553/V1_MQTT_OK/GD32VW55X_Wifi_BLE_SDK/GD32VW55x_RELEASE_V1.0.2/MSDK/wpa_supplicant/src/utils\wpabuf.c **** 
 304:C:/Users/stapi/OneDrive/Desktop/GD32VW553/V1_MQTT_OK/GD32VW55X_Wifi_BLE_SDK/GD32VW55x_RELEASE_V1.0.2/MSDK/wpa_supplicant/src/utils\wpabuf.c **** 	va_start(ap, fmt);
 883              		.loc 1 304 2
 305:C:/Users/stapi/OneDrive/Desktop/GD32VW553/V1_MQTT_OK/GD32VW55X_Wifi_BLE_SDK/GD32VW55x_RELEASE_V1.0.2/MSDK/wpa_supplicant/src/utils\wpabuf.c **** 	res = vsnprintf(tmp, buf->size - buf->used, fmt, ap);
 884              		.loc 1 305 8 is_stmt 0
 885 0016 03280400 		lw	a6,0(s0)
 304:C:/Users/stapi/OneDrive/Desktop/GD32VW553/V1_MQTT_OK/GD32VW55X_Wifi_BLE_SDK/GD32VW55x_RELEASE_V1.0.2/MSDK/wpa_supplicant/src/utils\wpabuf.c **** 	res = vsnprintf(tmp, buf->size - buf->used, fmt, ap);
 886              		.loc 1 304 2
 887 001a 3810     		addi	a4,sp,40
 888              		.loc 1 305 8
 889 001c AE86     		mv	a3,a1
 890 001e 3E95     		add	a0,a0,a5
 891              	.LVL93:
 892 0020 B305F840 		sub	a1,a6,a5
 893              	.LVL94:
 894 0024 0146     		li	a2,0
 304:C:/Users/stapi/OneDrive/Desktop/GD32VW553/V1_MQTT_OK/GD32VW55X_Wifi_BLE_SDK/GD32VW55x_RELEASE_V1.0.2/MSDK/wpa_supplicant/src/utils\wpabuf.c **** 	res = vsnprintf(tmp, buf->size - buf->used, fmt, ap);
 895              		.loc 1 304 2
 896 0026 3AC6     		sw	a4,12(sp)
 897              		.loc 1 305 2 is_stmt 1
 299:C:/Users/stapi/OneDrive/Desktop/GD32VW553/V1_MQTT_OK/GD32VW55X_Wifi_BLE_SDK/GD32VW55x_RELEASE_V1.0.2/MSDK/wpa_supplicant/src/utils\wpabuf.c **** 	va_list ap;
 898              		.loc 1 299 1 is_stmt 0
 899 0028 06CE     		sw	ra,28(sp)
 900              		.cfi_offset 1, -36
 901              		.loc 1 305 8
 902 002a 97000000 		call	dbg_vsnprintf_offset
 902      E7800000 
 903              	.LVL95:
 904 0032 5840     		lw	a4,4(s0)
 905 0034 1440     		lw	a3,0(s0)
 906 0036 AA87     		mv	a5,a0
 907              	.LVL96:
 306:C:/Users/stapi/OneDrive/Desktop/GD32VW553/V1_MQTT_OK/GD32VW55X_Wifi_BLE_SDK/GD32VW55x_RELEASE_V1.0.2/MSDK/wpa_supplicant/src/utils\wpabuf.c **** 	va_end(ap);
 908              		.loc 1 306 2 is_stmt 1
 307:C:/Users/stapi/OneDrive/Desktop/GD32VW553/V1_MQTT_OK/GD32VW55X_Wifi_BLE_SDK/GD32VW55x_RELEASE_V1.0.2/MSDK/wpa_supplicant/src/utils\wpabuf.c **** 	if (res < 0 || (size_t) res >= buf->size - buf->used)
 909              		.loc 1 307 2
 910              		.loc 1 307 5 is_stmt 0
 911 0038 63460500 		blt	a0,zero,.L100
 912              		.loc 1 307 43 discriminator 1
 913 003c 3386E640 		sub	a2,a3,a4
 914              		.loc 1 307 14 discriminator 1
 915 0040 6360C502 		bltu	a0,a2,.L101
 916              	.L100:
 308:C:/Users/stapi/OneDrive/Desktop/GD32VW553/V1_MQTT_OK/GD32VW55X_Wifi_BLE_SDK/GD32VW55x_RELEASE_V1.0.2/MSDK/wpa_supplicant/src/utils\wpabuf.c **** 		wpabuf_overflow(buf, res);
 917              		.loc 1 308 3 is_stmt 1
 918              	.LVL97:
 919              	.LBB128:
 920              	.LBB129:
  39:C:/Users/stapi/OneDrive/Desktop/GD32VW553/V1_MQTT_OK/GD32VW55X_Wifi_BLE_SDK/GD32VW55x_RELEASE_V1.0.2/MSDK/wpa_supplicant/src/utils\wpabuf.c **** 		   buf, (unsigned long) buf->size, (unsigned long) buf->used,
 921              		.loc 1 39 2
 922 0044 B7050000 		lui	a1,%hi(.LC0)
 923 0048 2286     		mv	a2,s0
 924 004a 93850500 		addi	a1,a1,%lo(.LC0)
 925 004e 1545     		li	a0,5
 926              	.LVL98:
 927 0050 97000000 		call	wpa_printf
 927      E7800000 
 928              	.LVL99:
  42:C:/Users/stapi/OneDrive/Desktop/GD32VW553/V1_MQTT_OK/GD32VW55X_Wifi_BLE_SDK/GD32VW55x_RELEASE_V1.0.2/MSDK/wpa_supplicant/src/utils\wpabuf.c **** 	abort();
 929              		.loc 1 42 2
  42:C:/Users/stapi/OneDrive/Desktop/GD32VW553/V1_MQTT_OK/GD32VW55X_Wifi_BLE_SDK/GD32VW55x_RELEASE_V1.0.2/MSDK/wpa_supplicant/src/utils\wpabuf.c **** 	abort();
 930              		.loc 1 42 2
  42:C:/Users/stapi/OneDrive/Desktop/GD32VW553/V1_MQTT_OK/GD32VW55X_Wifi_BLE_SDK/GD32VW55x_RELEASE_V1.0.2/MSDK/wpa_supplicant/src/utils\wpabuf.c **** 	abort();
 931              		.loc 1 42 2
  43:C:/Users/stapi/OneDrive/Desktop/GD32VW553/V1_MQTT_OK/GD32VW55X_Wifi_BLE_SDK/GD32VW55x_RELEASE_V1.0.2/MSDK/wpa_supplicant/src/utils\wpabuf.c **** }
 932              		.loc 1 43 2
 933 0058 97000000 		call	abort
 933      E7800000 
 934              	.LVL100:
 935              	.L101:
 936              	.LBE129:
 937              	.LBE128:
 309:C:/Users/stapi/OneDrive/Desktop/GD32VW553/V1_MQTT_OK/GD32VW55X_Wifi_BLE_SDK/GD32VW55x_RELEASE_V1.0.2/MSDK/wpa_supplicant/src/utils\wpabuf.c **** 	buf->used += res;
 938              		.loc 1 309 2
 939              		.loc 1 309 12 is_stmt 0
 940 0060 B307E500 		add	a5,a0,a4
 310:C:/Users/stapi/OneDrive/Desktop/GD32VW553/V1_MQTT_OK/GD32VW55X_Wifi_BLE_SDK/GD32VW55x_RELEASE_V1.0.2/MSDK/wpa_supplicant/src/utils\wpabuf.c **** }
 941              		.loc 1 310 1
 942 0064 F240     		lw	ra,28(sp)
 943              		.cfi_restore 1
 309:C:/Users/stapi/OneDrive/Desktop/GD32VW553/V1_MQTT_OK/GD32VW55X_Wifi_BLE_SDK/GD32VW55x_RELEASE_V1.0.2/MSDK/wpa_supplicant/src/utils\wpabuf.c **** 	buf->used += res;
 944              		.loc 1 309 12
 945 0066 5CC0     		sw	a5,4(s0)
 946              		.loc 1 310 1
 947 0068 6244     		lw	s0,24(sp)
 948              		.cfi_restore 8
 949              	.LVL101:
 950 006a 2161     		addi	sp,sp,64
 951              		.cfi_def_cfa_offset 0
 952 006c 8280     		jr	ra
 953              		.cfi_endproc
 954              	.LFE82:
 956              		.section	.text.wpabuf_parse_bin,"ax",@progbits
 957              		.align	1
 958              		.globl	wpabuf_parse_bin
 960              	wpabuf_parse_bin:
 961              	.LFB83:
 311:C:/Users/stapi/OneDrive/Desktop/GD32VW553/V1_MQTT_OK/GD32VW55X_Wifi_BLE_SDK/GD32VW55x_RELEASE_V1.0.2/MSDK/wpa_supplicant/src/utils\wpabuf.c **** 
 312:C:/Users/stapi/OneDrive/Desktop/GD32VW553/V1_MQTT_OK/GD32VW55X_Wifi_BLE_SDK/GD32VW55x_RELEASE_V1.0.2/MSDK/wpa_supplicant/src/utils\wpabuf.c **** 
 313:C:/Users/stapi/OneDrive/Desktop/GD32VW553/V1_MQTT_OK/GD32VW55X_Wifi_BLE_SDK/GD32VW55x_RELEASE_V1.0.2/MSDK/wpa_supplicant/src/utils\wpabuf.c **** /**
 314:C:/Users/stapi/OneDrive/Desktop/GD32VW553/V1_MQTT_OK/GD32VW55X_Wifi_BLE_SDK/GD32VW55x_RELEASE_V1.0.2/MSDK/wpa_supplicant/src/utils\wpabuf.c ****  * wpabuf_parse_bin - Parse a null terminated string of binary data to a wpabuf
 315:C:/Users/stapi/OneDrive/Desktop/GD32VW553/V1_MQTT_OK/GD32VW55X_Wifi_BLE_SDK/GD32VW55x_RELEASE_V1.0.2/MSDK/wpa_supplicant/src/utils\wpabuf.c ****  * @buf: Buffer with null terminated string (hexdump) of binary data
 316:C:/Users/stapi/OneDrive/Desktop/GD32VW553/V1_MQTT_OK/GD32VW55X_Wifi_BLE_SDK/GD32VW55x_RELEASE_V1.0.2/MSDK/wpa_supplicant/src/utils\wpabuf.c ****  * Returns: wpabuf or %NULL on failure
 317:C:/Users/stapi/OneDrive/Desktop/GD32VW553/V1_MQTT_OK/GD32VW55X_Wifi_BLE_SDK/GD32VW55x_RELEASE_V1.0.2/MSDK/wpa_supplicant/src/utils\wpabuf.c ****  *
 318:C:/Users/stapi/OneDrive/Desktop/GD32VW553/V1_MQTT_OK/GD32VW55X_Wifi_BLE_SDK/GD32VW55x_RELEASE_V1.0.2/MSDK/wpa_supplicant/src/utils\wpabuf.c ****  * The string len must be a multiple of two and contain only hexadecimal digits.
 319:C:/Users/stapi/OneDrive/Desktop/GD32VW553/V1_MQTT_OK/GD32VW55X_Wifi_BLE_SDK/GD32VW55x_RELEASE_V1.0.2/MSDK/wpa_supplicant/src/utils\wpabuf.c ****  */
 320:C:/Users/stapi/OneDrive/Desktop/GD32VW553/V1_MQTT_OK/GD32VW55X_Wifi_BLE_SDK/GD32VW55x_RELEASE_V1.0.2/MSDK/wpa_supplicant/src/utils\wpabuf.c **** struct wpabuf * wpabuf_parse_bin(const char *buf)
 321:C:/Users/stapi/OneDrive/Desktop/GD32VW553/V1_MQTT_OK/GD32VW55X_Wifi_BLE_SDK/GD32VW55x_RELEASE_V1.0.2/MSDK/wpa_supplicant/src/utils\wpabuf.c **** {
 962              		.loc 1 321 1 is_stmt 1
 963              		.cfi_startproc
 964              	.LVL102:
 965 0000 17030000 		call	t0,__riscv_save_3
 965      E7020300 
 966              		.cfi_offset 18, -16
 967              		.cfi_offset 9, -12
 968              		.cfi_offset 8, -8
 969              		.cfi_offset 1, -4
 970              		.cfi_def_cfa_offset 16
 322:C:/Users/stapi/OneDrive/Desktop/GD32VW553/V1_MQTT_OK/GD32VW55X_Wifi_BLE_SDK/GD32VW55x_RELEASE_V1.0.2/MSDK/wpa_supplicant/src/utils\wpabuf.c **** 	size_t len;
 971              		.loc 1 322 2
 323:C:/Users/stapi/OneDrive/Desktop/GD32VW553/V1_MQTT_OK/GD32VW55X_Wifi_BLE_SDK/GD32VW55x_RELEASE_V1.0.2/MSDK/wpa_supplicant/src/utils\wpabuf.c **** 	struct wpabuf *ret;
 972              		.loc 1 323 2
 324:C:/Users/stapi/OneDrive/Desktop/GD32VW553/V1_MQTT_OK/GD32VW55X_Wifi_BLE_SDK/GD32VW55x_RELEASE_V1.0.2/MSDK/wpa_supplicant/src/utils\wpabuf.c **** 
 325:C:/Users/stapi/OneDrive/Desktop/GD32VW553/V1_MQTT_OK/GD32VW55X_Wifi_BLE_SDK/GD32VW55x_RELEASE_V1.0.2/MSDK/wpa_supplicant/src/utils\wpabuf.c **** 	len = os_strlen(buf);
 973              		.loc 1 325 2
 321:C:/Users/stapi/OneDrive/Desktop/GD32VW553/V1_MQTT_OK/GD32VW55X_Wifi_BLE_SDK/GD32VW55x_RELEASE_V1.0.2/MSDK/wpa_supplicant/src/utils\wpabuf.c **** 	size_t len;
 974              		.loc 1 321 1 is_stmt 0
 975 0008 2A89     		mv	s2,a0
 976              		.loc 1 325 8
 977 000a 97000000 		call	os_strlen
 977      E7800000 
 978              	.LVL103:
 326:C:/Users/stapi/OneDrive/Desktop/GD32VW553/V1_MQTT_OK/GD32VW55X_Wifi_BLE_SDK/GD32VW55x_RELEASE_V1.0.2/MSDK/wpa_supplicant/src/utils\wpabuf.c **** 	if (len & 0x01)
 979              		.loc 1 326 2 is_stmt 1
 980              		.loc 1 326 10 is_stmt 0
 981 0012 93771500 		andi	a5,a0,1
 982              		.loc 1 326 5
 983 0016 99C7     		beq	a5,zero,.L104
 984              	.LVL104:
 985              	.L114:
 327:C:/Users/stapi/OneDrive/Desktop/GD32VW553/V1_MQTT_OK/GD32VW55X_Wifi_BLE_SDK/GD32VW55x_RELEASE_V1.0.2/MSDK/wpa_supplicant/src/utils\wpabuf.c **** 		return NULL;
 328:C:/Users/stapi/OneDrive/Desktop/GD32VW553/V1_MQTT_OK/GD32VW55X_Wifi_BLE_SDK/GD32VW55x_RELEASE_V1.0.2/MSDK/wpa_supplicant/src/utils\wpabuf.c **** 	len /= 2;
 329:C:/Users/stapi/OneDrive/Desktop/GD32VW553/V1_MQTT_OK/GD32VW55X_Wifi_BLE_SDK/GD32VW55x_RELEASE_V1.0.2/MSDK/wpa_supplicant/src/utils\wpabuf.c **** 
 330:C:/Users/stapi/OneDrive/Desktop/GD32VW553/V1_MQTT_OK/GD32VW55X_Wifi_BLE_SDK/GD32VW55x_RELEASE_V1.0.2/MSDK/wpa_supplicant/src/utils\wpabuf.c **** 	ret = wpabuf_alloc(len);
 331:C:/Users/stapi/OneDrive/Desktop/GD32VW553/V1_MQTT_OK/GD32VW55X_Wifi_BLE_SDK/GD32VW55x_RELEASE_V1.0.2/MSDK/wpa_supplicant/src/utils\wpabuf.c **** 	if (ret == NULL)
 332:C:/Users/stapi/OneDrive/Desktop/GD32VW553/V1_MQTT_OK/GD32VW55X_Wifi_BLE_SDK/GD32VW55x_RELEASE_V1.0.2/MSDK/wpa_supplicant/src/utils\wpabuf.c **** 		return NULL;
 333:C:/Users/stapi/OneDrive/Desktop/GD32VW553/V1_MQTT_OK/GD32VW55X_Wifi_BLE_SDK/GD32VW55x_RELEASE_V1.0.2/MSDK/wpa_supplicant/src/utils\wpabuf.c **** 
 334:C:/Users/stapi/OneDrive/Desktop/GD32VW553/V1_MQTT_OK/GD32VW55X_Wifi_BLE_SDK/GD32VW55x_RELEASE_V1.0.2/MSDK/wpa_supplicant/src/utils\wpabuf.c **** 	if (hexstr2bin(buf, wpabuf_put(ret, len), len)) {
 335:C:/Users/stapi/OneDrive/Desktop/GD32VW553/V1_MQTT_OK/GD32VW55X_Wifi_BLE_SDK/GD32VW55x_RELEASE_V1.0.2/MSDK/wpa_supplicant/src/utils\wpabuf.c **** 		wpabuf_free(ret);
 336:C:/Users/stapi/OneDrive/Desktop/GD32VW553/V1_MQTT_OK/GD32VW55X_Wifi_BLE_SDK/GD32VW55x_RELEASE_V1.0.2/MSDK/wpa_supplicant/src/utils\wpabuf.c **** 		return NULL;
 986              		.loc 1 336 3 is_stmt 1
 987              		.loc 1 336 10 is_stmt 0
 988 0018 8144     		li	s1,0
 989              	.L103:
 337:C:/Users/stapi/OneDrive/Desktop/GD32VW553/V1_MQTT_OK/GD32VW55X_Wifi_BLE_SDK/GD32VW55x_RELEASE_V1.0.2/MSDK/wpa_supplicant/src/utils\wpabuf.c **** 	}
 338:C:/Users/stapi/OneDrive/Desktop/GD32VW553/V1_MQTT_OK/GD32VW55X_Wifi_BLE_SDK/GD32VW55x_RELEASE_V1.0.2/MSDK/wpa_supplicant/src/utils\wpabuf.c **** 
 339:C:/Users/stapi/OneDrive/Desktop/GD32VW553/V1_MQTT_OK/GD32VW55X_Wifi_BLE_SDK/GD32VW55x_RELEASE_V1.0.2/MSDK/wpa_supplicant/src/utils\wpabuf.c **** 	return ret;
 340:C:/Users/stapi/OneDrive/Desktop/GD32VW553/V1_MQTT_OK/GD32VW55X_Wifi_BLE_SDK/GD32VW55x_RELEASE_V1.0.2/MSDK/wpa_supplicant/src/utils\wpabuf.c **** }
 990              		.loc 1 340 1
 991 001a 2685     		mv	a0,s1
 992 001c 17030000 		tail	__riscv_restore_3
 992      67000300 
 993              		.cfi_remember_state
 994              		.cfi_restore 18
 995              		.cfi_restore 9
 996              		.cfi_restore 8
 997              		.cfi_restore 1
 998              		.cfi_def_cfa_offset 0
 999              	.LVL105:
 1000              	.L104:
 1001              		.cfi_restore_state
 328:C:/Users/stapi/OneDrive/Desktop/GD32VW553/V1_MQTT_OK/GD32VW55X_Wifi_BLE_SDK/GD32VW55x_RELEASE_V1.0.2/MSDK/wpa_supplicant/src/utils\wpabuf.c **** 
 1002              		.loc 1 328 2 is_stmt 1
 328:C:/Users/stapi/OneDrive/Desktop/GD32VW553/V1_MQTT_OK/GD32VW55X_Wifi_BLE_SDK/GD32VW55x_RELEASE_V1.0.2/MSDK/wpa_supplicant/src/utils\wpabuf.c **** 
 1003              		.loc 1 328 6 is_stmt 0
 1004 0024 13541500 		srli	s0,a0,1
 1005              	.LVL106:
 330:C:/Users/stapi/OneDrive/Desktop/GD32VW553/V1_MQTT_OK/GD32VW55X_Wifi_BLE_SDK/GD32VW55x_RELEASE_V1.0.2/MSDK/wpa_supplicant/src/utils\wpabuf.c **** 	if (ret == NULL)
 1006              		.loc 1 330 2 is_stmt 1
 330:C:/Users/stapi/OneDrive/Desktop/GD32VW553/V1_MQTT_OK/GD32VW55X_Wifi_BLE_SDK/GD32VW55x_RELEASE_V1.0.2/MSDK/wpa_supplicant/src/utils\wpabuf.c **** 	if (ret == NULL)
 1007              		.loc 1 330 8 is_stmt 0
 1008 0028 2285     		mv	a0,s0
 1009 002a 97000000 		call	wpabuf_alloc
 1009      E7800000 
 1010              	.LVL107:
 1011 0032 AA84     		mv	s1,a0
 1012              	.LVL108:
 331:C:/Users/stapi/OneDrive/Desktop/GD32VW553/V1_MQTT_OK/GD32VW55X_Wifi_BLE_SDK/GD32VW55x_RELEASE_V1.0.2/MSDK/wpa_supplicant/src/utils\wpabuf.c **** 		return NULL;
 1013              		.loc 1 331 2 is_stmt 1
 331:C:/Users/stapi/OneDrive/Desktop/GD32VW553/V1_MQTT_OK/GD32VW55X_Wifi_BLE_SDK/GD32VW55x_RELEASE_V1.0.2/MSDK/wpa_supplicant/src/utils\wpabuf.c **** 		return NULL;
 1014              		.loc 1 331 5 is_stmt 0
 1015 0034 75D1     		beq	a0,zero,.L114
 334:C:/Users/stapi/OneDrive/Desktop/GD32VW553/V1_MQTT_OK/GD32VW55X_Wifi_BLE_SDK/GD32VW55x_RELEASE_V1.0.2/MSDK/wpa_supplicant/src/utils\wpabuf.c **** 		wpabuf_free(ret);
 1016              		.loc 1 334 2 is_stmt 1
 334:C:/Users/stapi/OneDrive/Desktop/GD32VW553/V1_MQTT_OK/GD32VW55X_Wifi_BLE_SDK/GD32VW55x_RELEASE_V1.0.2/MSDK/wpa_supplicant/src/utils\wpabuf.c **** 		wpabuf_free(ret);
 1017              		.loc 1 334 22 is_stmt 0
 1018 0036 A285     		mv	a1,s0
 1019 0038 97000000 		call	wpabuf_put
 1019      E7800000 
 1020              	.LVL109:
 1021 0040 AA85     		mv	a1,a0
 334:C:/Users/stapi/OneDrive/Desktop/GD32VW553/V1_MQTT_OK/GD32VW55X_Wifi_BLE_SDK/GD32VW55x_RELEASE_V1.0.2/MSDK/wpa_supplicant/src/utils\wpabuf.c **** 		wpabuf_free(ret);
 1022              		.loc 1 334 6
 1023 0042 2286     		mv	a2,s0
 1024 0044 4A85     		mv	a0,s2
 1025 0046 97000000 		call	hexstr2bin
 1025      E7800000 
 1026              	.LVL110:
 334:C:/Users/stapi/OneDrive/Desktop/GD32VW553/V1_MQTT_OK/GD32VW55X_Wifi_BLE_SDK/GD32VW55x_RELEASE_V1.0.2/MSDK/wpa_supplicant/src/utils\wpabuf.c **** 		wpabuf_free(ret);
 1027              		.loc 1 334 5
 1028 004e 71D5     		beq	a0,zero,.L103
 335:C:/Users/stapi/OneDrive/Desktop/GD32VW553/V1_MQTT_OK/GD32VW55X_Wifi_BLE_SDK/GD32VW55x_RELEASE_V1.0.2/MSDK/wpa_supplicant/src/utils\wpabuf.c **** 		return NULL;
 1029              		.loc 1 335 3 is_stmt 1
 1030 0050 2685     		mv	a0,s1
 1031 0052 97000000 		call	wpabuf_free
 1031      E7800000 
 1032              	.LVL111:
 1033 005a 7DBF     		j	.L114
 1034              		.cfi_endproc
 1035              	.LFE83:
 1037              		.text
 1038              	.Letext0:
 1039              		.file 3 "c:\\users\\stapi\\onedrive\\desktop\\gd32vw553\\embeddedbuilder_v1.4.7.26843\\tools\\nucl
 1040              		.file 4 "c:\\users\\stapi\\onedrive\\desktop\\gd32vw553\\embeddedbuilder_v1.4.7.26843\\tools\\nucl
 1041              		.file 5 "c:\\users\\stapi\\onedrive\\desktop\\gd32vw553\\embeddedbuilder_v1.4.7.26843\\tools\\nucl
 1042              		.file 6 "c:\\users\\stapi\\onedrive\\desktop\\gd32vw553\\embeddedbuilder_v1.4.7.26843\\tools\\nucl
 1043              		.file 7 "C:/Users/stapi/OneDrive/Desktop/GD32VW553/V1_MQTT_OK/GD32VW55X_Wifi_BLE_SDK/GD32VW55x_REL
 1044              		.file 8 "C:/Users/stapi/OneDrive/Desktop/GD32VW553/V1_MQTT_OK/GD32VW55X_Wifi_BLE_SDK/GD32VW55x_REL
 1045              		.file 9 "C:/Users/stapi/OneDrive/Desktop/GD32VW553/V1_MQTT_OK/GD32VW55X_Wifi_BLE_SDK/GD32VW55x_REL
 1046              		.file 10 "c:\\users\\stapi\\onedrive\\desktop\\gd32vw553\\embeddedbuilder_v1.4.7.26843\\tools\\nuc
 1047              		.file 11 "..\\..\\..\\..\\util\\include/debug_print.h"
DEFINED SYMBOLS
                            *ABS*:0000000000000000 wpabuf.c
C:\Users\stapi\AppData\Local\Temp\ccRSBokL.s:13     .text.wpabuf_alloc:0000000000000000 wpabuf_alloc
C:\Users\stapi\AppData\Local\Temp\ccRSBokL.s:17     .text.wpabuf_alloc:0000000000000000 .L0 
C:\Users\stapi\AppData\Local\Temp\ccRSBokL.s:19     .text.wpabuf_alloc:0000000000000000 .L0 
C:\Users\stapi\AppData\Local\Temp\ccRSBokL.s:20     .text.wpabuf_alloc:0000000000000008 .L0 
C:\Users\stapi\AppData\Local\Temp\ccRSBokL.s:21     .text.wpabuf_alloc:0000000000000008 .L0 
C:\Users\stapi\AppData\Local\Temp\ccRSBokL.s:22     .text.wpabuf_alloc:0000000000000008 .L0 
C:\Users\stapi\AppData\Local\Temp\ccRSBokL.s:24     .text.wpabuf_alloc:0000000000000008 .L0 
C:\Users\stapi\AppData\Local\Temp\ccRSBokL.s:25     .text.wpabuf_alloc:0000000000000008 .L0 
C:\Users\stapi\AppData\Local\Temp\ccRSBokL.s:27     .text.wpabuf_alloc:000000000000000a .L0 
C:\Users\stapi\AppData\Local\Temp\ccRSBokL.s:32     .text.wpabuf_alloc:0000000000000014 .L0 
C:\Users\stapi\AppData\Local\Temp\ccRSBokL.s:33     .text.wpabuf_alloc:0000000000000014 .L0 
C:\Users\stapi\AppData\Local\Temp\ccRSBokL.s:35     .text.wpabuf_alloc:0000000000000016 .L0 
C:\Users\stapi\AppData\Local\Temp\ccRSBokL.s:36     .text.wpabuf_alloc:0000000000000016 .L0 
C:\Users\stapi\AppData\Local\Temp\ccRSBokL.s:38     .text.wpabuf_alloc:000000000000001a .L0 
C:\Users\stapi\AppData\Local\Temp\ccRSBokL.s:40     .text.wpabuf_alloc:000000000000001c .L0 
C:\Users\stapi\AppData\Local\Temp\ccRSBokL.s:41     .text.wpabuf_alloc:000000000000001c .L0 
C:\Users\stapi\AppData\Local\Temp\ccRSBokL.s:44     .text.wpabuf_alloc:000000000000001e .L0 
C:\Users\stapi\AppData\Local\Temp\ccRSBokL.s:45     .text.wpabuf_alloc:000000000000001e .L0 
C:\Users\stapi\AppData\Local\Temp\ccRSBokL.s:46     .text.wpabuf_alloc:0000000000000026 .L0 
C:\Users\stapi\AppData\Local\Temp\ccRSBokL.s:47     .text.wpabuf_alloc:0000000000000026 .L0 
C:\Users\stapi\AppData\Local\Temp\ccRSBokL.s:48     .text.wpabuf_alloc:0000000000000026 .L0 
C:\Users\stapi\AppData\Local\Temp\ccRSBokL.s:49     .text.wpabuf_alloc:0000000000000026 .L0 
C:\Users\stapi\AppData\Local\Temp\ccRSBokL.s:56     .text.wpabuf_resize:0000000000000000 wpabuf_resize
C:\Users\stapi\AppData\Local\Temp\ccRSBokL.s:59     .text.wpabuf_resize:0000000000000000 .L0 
C:\Users\stapi\AppData\Local\Temp\ccRSBokL.s:61     .text.wpabuf_resize:0000000000000000 .L0 
C:\Users\stapi\AppData\Local\Temp\ccRSBokL.s:62     .text.wpabuf_resize:0000000000000008 .L0 
C:\Users\stapi\AppData\Local\Temp\ccRSBokL.s:63     .text.wpabuf_resize:0000000000000008 .L0 
C:\Users\stapi\AppData\Local\Temp\ccRSBokL.s:64     .text.wpabuf_resize:0000000000000008 .L0 
C:\Users\stapi\AppData\Local\Temp\ccRSBokL.s:65     .text.wpabuf_resize:0000000000000008 .L0 
C:\Users\stapi\AppData\Local\Temp\ccRSBokL.s:66     .text.wpabuf_resize:0000000000000008 .L0 
C:\Users\stapi\AppData\Local\Temp\ccRSBokL.s:68     .text.wpabuf_resize:0000000000000008 .L0 
C:\Users\stapi\AppData\Local\Temp\ccRSBokL.s:69     .text.wpabuf_resize:0000000000000008 .L0 
C:\Users\stapi\AppData\Local\Temp\ccRSBokL.s:72     .text.wpabuf_resize:000000000000000a .L0 
C:\Users\stapi\AppData\Local\Temp\ccRSBokL.s:73     .text.wpabuf_resize:000000000000000a .L0 
C:\Users\stapi\AppData\Local\Temp\ccRSBokL.s:76     .text.wpabuf_resize:000000000000000e .L0 
C:\Users\stapi\AppData\Local\Temp\ccRSBokL.s:78     .text.wpabuf_resize:0000000000000010 .L0 
C:\Users\stapi\AppData\Local\Temp\ccRSBokL.s:79     .text.wpabuf_resize:0000000000000010 .L0 
C:\Users\stapi\AppData\Local\Temp\ccRSBokL.s:84     .text.wpabuf_resize:000000000000001a .L0 
C:\Users\stapi\AppData\Local\Temp\ccRSBokL.s:86     .text.wpabuf_resize:000000000000001e .L0 
C:\Users\stapi\AppData\Local\Temp\ccRSBokL.s:87     .text.wpabuf_resize:000000000000001e .L0 
C:\Users\stapi\AppData\Local\Temp\ccRSBokL.s:92     .text.wpabuf_resize:0000000000000026 .L0 
C:\Users\stapi\AppData\Local\Temp\ccRSBokL.s:93     .text.wpabuf_resize:000000000000002e .L0 
C:\Users\stapi\AppData\Local\Temp\ccRSBokL.s:94     .text.wpabuf_resize:000000000000002e .L0 
C:\Users\stapi\AppData\Local\Temp\ccRSBokL.s:95     .text.wpabuf_resize:000000000000002e .L0 
C:\Users\stapi\AppData\Local\Temp\ccRSBokL.s:96     .text.wpabuf_resize:000000000000002e .L0 
C:\Users\stapi\AppData\Local\Temp\ccRSBokL.s:97     .text.wpabuf_resize:000000000000002e .L0 
C:\Users\stapi\AppData\Local\Temp\ccRSBokL.s:98     .text.wpabuf_resize:000000000000002e .L0 
C:\Users\stapi\AppData\Local\Temp\ccRSBokL.s:101    .text.wpabuf_resize:000000000000002e .L0 
C:\Users\stapi\AppData\Local\Temp\ccRSBokL.s:103    .text.wpabuf_resize:000000000000002e .L0 
C:\Users\stapi\AppData\Local\Temp\ccRSBokL.s:104    .text.wpabuf_resize:000000000000002e .L0 
C:\Users\stapi\AppData\Local\Temp\ccRSBokL.s:106    .text.wpabuf_resize:0000000000000030 .L0 
C:\Users\stapi\AppData\Local\Temp\ccRSBokL.s:108    .text.wpabuf_resize:0000000000000032 .L0 
C:\Users\stapi\AppData\Local\Temp\ccRSBokL.s:111    .text.wpabuf_resize:0000000000000034 .L0 
C:\Users\stapi\AppData\Local\Temp\ccRSBokL.s:113    .text.wpabuf_resize:0000000000000036 .L0 
C:\Users\stapi\AppData\Local\Temp\ccRSBokL.s:116    .text.wpabuf_resize:000000000000003a .L0 
C:\Users\stapi\AppData\Local\Temp\ccRSBokL.s:117    .text.wpabuf_resize:000000000000003a .L0 
C:\Users\stapi\AppData\Local\Temp\ccRSBokL.s:118    .text.wpabuf_resize:000000000000003a .L0 
C:\Users\stapi\AppData\Local\Temp\ccRSBokL.s:121    .text.wpabuf_resize:000000000000003e .L0 
C:\Users\stapi\AppData\Local\Temp\ccRSBokL.s:123    .text.wpabuf_resize:0000000000000040 .L0 
C:\Users\stapi\AppData\Local\Temp\ccRSBokL.s:124    .text.wpabuf_resize:0000000000000040 .L0 
C:\Users\stapi\AppData\Local\Temp\ccRSBokL.s:130    .text.wpabuf_resize:000000000000004c .L0 
C:\Users\stapi\AppData\Local\Temp\ccRSBokL.s:131    .text.wpabuf_resize:000000000000004c .L0 
C:\Users\stapi\AppData\Local\Temp\ccRSBokL.s:135    .text.wpabuf_resize:000000000000004e .L0 
C:\Users\stapi\AppData\Local\Temp\ccRSBokL.s:141    .text.wpabuf_resize:0000000000000052 .L0 
C:\Users\stapi\AppData\Local\Temp\ccRSBokL.s:142    .text.wpabuf_resize:0000000000000052 .L0 
C:\Users\stapi\AppData\Local\Temp\ccRSBokL.s:145    .text.wpabuf_resize:0000000000000054 .L0 
C:\Users\stapi\AppData\Local\Temp\ccRSBokL.s:151    .text.wpabuf_resize:0000000000000062 .L0 
C:\Users\stapi\AppData\Local\Temp\ccRSBokL.s:152    .text.wpabuf_resize:0000000000000062 .L0 
C:\Users\stapi\AppData\Local\Temp\ccRSBokL.s:156    .text.wpabuf_resize:0000000000000066 .L0 
C:\Users\stapi\AppData\Local\Temp\ccRSBokL.s:157    .text.wpabuf_resize:0000000000000066 .L0 
C:\Users\stapi\AppData\Local\Temp\ccRSBokL.s:160    .text.wpabuf_resize:0000000000000068 .L0 
C:\Users\stapi\AppData\Local\Temp\ccRSBokL.s:163    .text.wpabuf_resize:000000000000006a .L0 
C:\Users\stapi\AppData\Local\Temp\ccRSBokL.s:165    .text.wpabuf_resize:000000000000006c .L0 
C:\Users\stapi\AppData\Local\Temp\ccRSBokL.s:170    .text.wpabuf_resize:0000000000000070 .L0 
C:\Users\stapi\AppData\Local\Temp\ccRSBokL.s:171    .text.wpabuf_resize:0000000000000070 .L0 
C:\Users\stapi\AppData\Local\Temp\ccRSBokL.s:178    .text.wpabuf_resize:000000000000007e .L0 
C:\Users\stapi\AppData\Local\Temp\ccRSBokL.s:179    .text.wpabuf_resize:000000000000007e .L0 
C:\Users\stapi\AppData\Local\Temp\ccRSBokL.s:182    .text.wpabuf_resize:0000000000000080 .L0 
C:\Users\stapi\AppData\Local\Temp\ccRSBokL.s:183    .text.wpabuf_resize:0000000000000080 .L0 
C:\Users\stapi\AppData\Local\Temp\ccRSBokL.s:184    .text.wpabuf_resize:0000000000000080 .L0 
C:\Users\stapi\AppData\Local\Temp\ccRSBokL.s:186    .text.wpabuf_resize:0000000000000082 .L0 
C:\Users\stapi\AppData\Local\Temp\ccRSBokL.s:189    .text.wpabuf_resize:0000000000000086 .L0 
C:\Users\stapi\AppData\Local\Temp\ccRSBokL.s:191    .text.wpabuf_resize:0000000000000088 .L0 
C:\Users\stapi\AppData\Local\Temp\ccRSBokL.s:195    .text.wpabuf_resize:0000000000000092 .L0 
C:\Users\stapi\AppData\Local\Temp\ccRSBokL.s:196    .text.wpabuf_resize:0000000000000092 .L0 
C:\Users\stapi\AppData\Local\Temp\ccRSBokL.s:198    .text.wpabuf_resize:0000000000000096 .L0 
C:\Users\stapi\AppData\Local\Temp\ccRSBokL.s:200    .text.wpabuf_resize:0000000000000098 .L0 
C:\Users\stapi\AppData\Local\Temp\ccRSBokL.s:201    .text.wpabuf_resize:0000000000000098 .L0 
C:\Users\stapi\AppData\Local\Temp\ccRSBokL.s:204    .text.wpabuf_resize:000000000000009e .L0 
C:\Users\stapi\AppData\Local\Temp\ccRSBokL.s:211    .text.wpabuf_alloc_ext_data:0000000000000000 wpabuf_alloc_ext_data
C:\Users\stapi\AppData\Local\Temp\ccRSBokL.s:214    .text.wpabuf_alloc_ext_data:0000000000000000 .L0 
C:\Users\stapi\AppData\Local\Temp\ccRSBokL.s:216    .text.wpabuf_alloc_ext_data:0000000000000000 .L0 
C:\Users\stapi\AppData\Local\Temp\ccRSBokL.s:217    .text.wpabuf_alloc_ext_data:0000000000000008 .L0 
C:\Users\stapi\AppData\Local\Temp\ccRSBokL.s:218    .text.wpabuf_alloc_ext_data:0000000000000008 .L0 
C:\Users\stapi\AppData\Local\Temp\ccRSBokL.s:219    .text.wpabuf_alloc_ext_data:0000000000000008 .L0 
C:\Users\stapi\AppData\Local\Temp\ccRSBokL.s:220    .text.wpabuf_alloc_ext_data:0000000000000008 .L0 
C:\Users\stapi\AppData\Local\Temp\ccRSBokL.s:222    .text.wpabuf_alloc_ext_data:0000000000000008 .L0 
C:\Users\stapi\AppData\Local\Temp\ccRSBokL.s:223    .text.wpabuf_alloc_ext_data:0000000000000008 .L0 
C:\Users\stapi\AppData\Local\Temp\ccRSBokL.s:225    .text.wpabuf_alloc_ext_data:000000000000000a .L0 
C:\Users\stapi\AppData\Local\Temp\ccRSBokL.s:228    .text.wpabuf_alloc_ext_data:000000000000000c .L0 
C:\Users\stapi\AppData\Local\Temp\ccRSBokL.s:230    .text.wpabuf_alloc_ext_data:000000000000000e .L0 
C:\Users\stapi\AppData\Local\Temp\ccRSBokL.s:233    .text.wpabuf_alloc_ext_data:0000000000000016 .L0 
C:\Users\stapi\AppData\Local\Temp\ccRSBokL.s:234    .text.wpabuf_alloc_ext_data:0000000000000016 .L0 
C:\Users\stapi\AppData\Local\Temp\ccRSBokL.s:236    .text.wpabuf_alloc_ext_data:0000000000000018 .L0 
C:\Users\stapi\AppData\Local\Temp\ccRSBokL.s:237    .text.wpabuf_alloc_ext_data:0000000000000018 .L0 
C:\Users\stapi\AppData\Local\Temp\ccRSBokL.s:239    .text.wpabuf_alloc_ext_data:000000000000001a .L0 
C:\Users\stapi\AppData\Local\Temp\ccRSBokL.s:241    .text.wpabuf_alloc_ext_data:000000000000001c .L0 
C:\Users\stapi\AppData\Local\Temp\ccRSBokL.s:242    .text.wpabuf_alloc_ext_data:000000000000001c .L0 
C:\Users\stapi\AppData\Local\Temp\ccRSBokL.s:244    .text.wpabuf_alloc_ext_data:000000000000001e .L0 
C:\Users\stapi\AppData\Local\Temp\ccRSBokL.s:245    .text.wpabuf_alloc_ext_data:000000000000001e .L0 
C:\Users\stapi\AppData\Local\Temp\ccRSBokL.s:247    .text.wpabuf_alloc_ext_data:0000000000000022 .L0 
C:\Users\stapi\AppData\Local\Temp\ccRSBokL.s:249    .text.wpabuf_alloc_ext_data:0000000000000024 .L0 
C:\Users\stapi\AppData\Local\Temp\ccRSBokL.s:250    .text.wpabuf_alloc_ext_data:0000000000000024 .L0 
C:\Users\stapi\AppData\Local\Temp\ccRSBokL.s:253    .text.wpabuf_alloc_ext_data:0000000000000026 .L0 
C:\Users\stapi\AppData\Local\Temp\ccRSBokL.s:254    .text.wpabuf_alloc_ext_data:0000000000000026 .L0 
C:\Users\stapi\AppData\Local\Temp\ccRSBokL.s:255    .text.wpabuf_alloc_ext_data:000000000000002e .L0 
C:\Users\stapi\AppData\Local\Temp\ccRSBokL.s:256    .text.wpabuf_alloc_ext_data:000000000000002e .L0 
C:\Users\stapi\AppData\Local\Temp\ccRSBokL.s:257    .text.wpabuf_alloc_ext_data:000000000000002e .L0 
C:\Users\stapi\AppData\Local\Temp\ccRSBokL.s:258    .text.wpabuf_alloc_ext_data:000000000000002e .L0 
C:\Users\stapi\AppData\Local\Temp\ccRSBokL.s:259    .text.wpabuf_alloc_ext_data:000000000000002e .L0 
C:\Users\stapi\AppData\Local\Temp\ccRSBokL.s:266    .text.wpabuf_free:0000000000000000 wpabuf_free
C:\Users\stapi\AppData\Local\Temp\ccRSBokL.s:269    .text.wpabuf_free:0000000000000000 .L0 
C:\Users\stapi\AppData\Local\Temp\ccRSBokL.s:271    .text.wpabuf_free:0000000000000000 .L0 
C:\Users\stapi\AppData\Local\Temp\ccRSBokL.s:272    .text.wpabuf_free:0000000000000000 .L0 
C:\Users\stapi\AppData\Local\Temp\ccRSBokL.s:273    .text.wpabuf_free:0000000000000000 .L0 
C:\Users\stapi\AppData\Local\Temp\ccRSBokL.s:275    .text.wpabuf_free:0000000000000002 .L0 
C:\Users\stapi\AppData\Local\Temp\ccRSBokL.s:276    .text.wpabuf_free:000000000000000a .L0 
C:\Users\stapi\AppData\Local\Temp\ccRSBokL.s:277    .text.wpabuf_free:000000000000000a .L0 
C:\Users\stapi\AppData\Local\Temp\ccRSBokL.s:278    .text.wpabuf_free:000000000000000a .L0 
C:\Users\stapi\AppData\Local\Temp\ccRSBokL.s:280    .text.wpabuf_free:000000000000000a .L0 
C:\Users\stapi\AppData\Local\Temp\ccRSBokL.s:283    .text.wpabuf_free:000000000000000e .L0 
C:\Users\stapi\AppData\Local\Temp\ccRSBokL.s:284    .text.wpabuf_free:000000000000000e .L0 
C:\Users\stapi\AppData\Local\Temp\ccRSBokL.s:286    .text.wpabuf_free:0000000000000010 .L0 
C:\Users\stapi\AppData\Local\Temp\ccRSBokL.s:288    .text.wpabuf_free:0000000000000012 .L0 
C:\Users\stapi\AppData\Local\Temp\ccRSBokL.s:294    .text.wpabuf_free:000000000000001c .L0 
C:\Users\stapi\AppData\Local\Temp\ccRSBokL.s:298    .text.wpabuf_free:0000000000000026 .L0 
C:\Users\stapi\AppData\Local\Temp\ccRSBokL.s:299    .text.wpabuf_free:000000000000002e .L0 
C:\Users\stapi\AppData\Local\Temp\ccRSBokL.s:300    .text.wpabuf_free:000000000000002e .L0 
C:\Users\stapi\AppData\Local\Temp\ccRSBokL.s:301    .text.wpabuf_free:000000000000002e .L0 
C:\Users\stapi\AppData\Local\Temp\ccRSBokL.s:305    .text.wpabuf_free:0000000000000030 .L0 
C:\Users\stapi\AppData\Local\Temp\ccRSBokL.s:312    .text.wpabuf_clear_free:0000000000000000 wpabuf_clear_free
C:\Users\stapi\AppData\Local\Temp\ccRSBokL.s:315    .text.wpabuf_clear_free:0000000000000000 .L0 
C:\Users\stapi\AppData\Local\Temp\ccRSBokL.s:317    .text.wpabuf_clear_free:0000000000000000 .L0 
C:\Users\stapi\AppData\Local\Temp\ccRSBokL.s:318    .text.wpabuf_clear_free:0000000000000000 .L0 
C:\Users\stapi\AppData\Local\Temp\ccRSBokL.s:319    .text.wpabuf_clear_free:0000000000000000 .L0 
C:\Users\stapi\AppData\Local\Temp\ccRSBokL.s:321    .text.wpabuf_clear_free:0000000000000002 .L0 
C:\Users\stapi\AppData\Local\Temp\ccRSBokL.s:322    .text.wpabuf_clear_free:000000000000000a .L0 
C:\Users\stapi\AppData\Local\Temp\ccRSBokL.s:323    .text.wpabuf_clear_free:000000000000000a .L0 
C:\Users\stapi\AppData\Local\Temp\ccRSBokL.s:324    .text.wpabuf_clear_free:000000000000000a .L0 
C:\Users\stapi\AppData\Local\Temp\ccRSBokL.s:326    .text.wpabuf_clear_free:000000000000000a .L0 
C:\Users\stapi\AppData\Local\Temp\ccRSBokL.s:333    .text.wpabuf_clear_free:000000000000000e .L0 
C:\Users\stapi\AppData\Local\Temp\ccRSBokL.s:338    .text.wpabuf_clear_free:000000000000000e .L0 
C:\Users\stapi\AppData\Local\Temp\ccRSBokL.s:341    .text.wpabuf_clear_free:000000000000000e .L0 
C:\Users\stapi\AppData\Local\Temp\ccRSBokL.s:342    .text.wpabuf_clear_free:000000000000000e .L0 
C:\Users\stapi\AppData\Local\Temp\ccRSBokL.s:348    .text.wpabuf_clear_free:000000000000001a .L0 
C:\Users\stapi\AppData\Local\Temp\ccRSBokL.s:352    .text.wpabuf_clear_free:0000000000000024 .L0 
C:\Users\stapi\AppData\Local\Temp\ccRSBokL.s:353    .text.wpabuf_clear_free:000000000000002c .L0 
C:\Users\stapi\AppData\Local\Temp\ccRSBokL.s:354    .text.wpabuf_clear_free:000000000000002c .L0 
C:\Users\stapi\AppData\Local\Temp\ccRSBokL.s:355    .text.wpabuf_clear_free:000000000000002c .L0 
C:\Users\stapi\AppData\Local\Temp\ccRSBokL.s:359    .text.wpabuf_clear_free:000000000000002e .L0 
C:\Users\stapi\AppData\Local\Temp\ccRSBokL.s:370    .text.wpabuf_put:0000000000000000 wpabuf_put
C:\Users\stapi\AppData\Local\Temp\ccRSBokL.s:373    .text.wpabuf_put:0000000000000000 .L0 
C:\Users\stapi\AppData\Local\Temp\ccRSBokL.s:375    .text.wpabuf_put:0000000000000000 .L0 
C:\Users\stapi\AppData\Local\Temp\ccRSBokL.s:376    .text.wpabuf_put:0000000000000000 .L0 
C:\Users\stapi\AppData\Local\Temp\ccRSBokL.s:380    .text.wpabuf_put:0000000000000000 .L0 
C:\Users\stapi\AppData\Local\Temp\ccRSBokL.s:386    .text.wpabuf_put:0000000000000000 .L0 
C:\Users\stapi\AppData\Local\Temp\ccRSBokL.s:387    .text.wpabuf_put:0000000000000000 .L0 
C:\Users\stapi\AppData\Local\Temp\ccRSBokL.s:388    .text.wpabuf_put:0000000000000000 .L0 
C:\Users\stapi\AppData\Local\Temp\ccRSBokL.s:393    .text.wpabuf_put:0000000000000002 .L0 
C:\Users\stapi\AppData\Local\Temp\ccRSBokL.s:395    .text.wpabuf_put:0000000000000004 .L0 
C:\Users\stapi\AppData\Local\Temp\ccRSBokL.s:398    .text.wpabuf_put:0000000000000006 .L0 
C:\Users\stapi\AppData\Local\Temp\ccRSBokL.s:400    .text.wpabuf_put:0000000000000008 .L0 
C:\Users\stapi\AppData\Local\Temp\ccRSBokL.s:403    .text.wpabuf_put:000000000000000a .L0 
C:\Users\stapi\AppData\Local\Temp\ccRSBokL.s:404    .text.wpabuf_put:000000000000000a .L0 
C:\Users\stapi\AppData\Local\Temp\ccRSBokL.s:407    .text.wpabuf_put:000000000000000e .L0 
C:\Users\stapi\AppData\Local\Temp\ccRSBokL.s:408    .text.wpabuf_put:000000000000000e .L0 
C:\Users\stapi\AppData\Local\Temp\ccRSBokL.s:410    .text.wpabuf_put:0000000000000012 .L0 
C:\Users\stapi\AppData\Local\Temp\ccRSBokL.s:411    .text.wpabuf_put:000000000000001a .L0 
C:\Users\stapi\AppData\Local\Temp\ccRSBokL.s:412    .text.wpabuf_put:000000000000001a .L0 
C:\Users\stapi\AppData\Local\Temp\ccRSBokL.s:418    .text.wpabuf_put:000000000000001c .L0 
C:\Users\stapi\AppData\Local\Temp\ccRSBokL.s:419    .text.wpabuf_put:000000000000001c .L0 
C:\Users\stapi\AppData\Local\Temp\ccRSBokL.s:427    .text.wpabuf_put:000000000000002e .L0 
C:\Users\stapi\AppData\Local\Temp\ccRSBokL.s:428    .text.wpabuf_put:000000000000002e .L0 
C:\Users\stapi\AppData\Local\Temp\ccRSBokL.s:429    .text.wpabuf_put:000000000000002e .L0 
C:\Users\stapi\AppData\Local\Temp\ccRSBokL.s:430    .text.wpabuf_put:000000000000002e .L0 
C:\Users\stapi\AppData\Local\Temp\ccRSBokL.s:433    .text.wpabuf_put:0000000000000036 .L0 
C:\Users\stapi\AppData\Local\Temp\ccRSBokL.s:434    .text.wpabuf_put:0000000000000036 .L0 
C:\Users\stapi\AppData\Local\Temp\ccRSBokL.s:438    .text.wpabuf_put:0000000000000036 .L0 
C:\Users\stapi\AppData\Local\Temp\ccRSBokL.s:439    .text.wpabuf_put:0000000000000038 .L0 
C:\Users\stapi\AppData\Local\Temp\ccRSBokL.s:445    .text.wpabuf_put_data:0000000000000000 wpabuf_put_data
C:\Users\stapi\AppData\Local\Temp\ccRSBokL.s:448    .text.wpabuf_put_data:0000000000000000 .L0 
C:\Users\stapi\AppData\Local\Temp\ccRSBokL.s:450    .text.wpabuf_put_data:0000000000000000 .L0 
C:\Users\stapi\AppData\Local\Temp\ccRSBokL.s:451    .text.wpabuf_put_data:0000000000000000 .L0 
C:\Users\stapi\AppData\Local\Temp\ccRSBokL.s:452    .text.wpabuf_put_data:0000000000000000 .L0 
C:\Users\stapi\AppData\Local\Temp\ccRSBokL.s:454    .text.wpabuf_put_data:0000000000000002 .L0 
C:\Users\stapi\AppData\Local\Temp\ccRSBokL.s:455    .text.wpabuf_put_data:000000000000000a .L0 
C:\Users\stapi\AppData\Local\Temp\ccRSBokL.s:456    .text.wpabuf_put_data:000000000000000a .L0 
C:\Users\stapi\AppData\Local\Temp\ccRSBokL.s:457    .text.wpabuf_put_data:000000000000000a .L0 
C:\Users\stapi\AppData\Local\Temp\ccRSBokL.s:459    .text.wpabuf_put_data:000000000000000c .L0 
C:\Users\stapi\AppData\Local\Temp\ccRSBokL.s:465    .text.wpabuf_put_data:000000000000000e .L0 
C:\Users\stapi\AppData\Local\Temp\ccRSBokL.s:477    .text.wpabuf_put_data:0000000000000026 .L0 
C:\Users\stapi\AppData\Local\Temp\ccRSBokL.s:478    .text.wpabuf_put_data:0000000000000028 .L0 
C:\Users\stapi\AppData\Local\Temp\ccRSBokL.s:481    .text.wpabuf_put_data:0000000000000030 .L0 
C:\Users\stapi\AppData\Local\Temp\ccRSBokL.s:482    .text.wpabuf_put_data:0000000000000030 .L0 
C:\Users\stapi\AppData\Local\Temp\ccRSBokL.s:483    .text.wpabuf_put_data:0000000000000030 .L0 
C:\Users\stapi\AppData\Local\Temp\ccRSBokL.s:486    .text.wpabuf_put_data:0000000000000030 .L0 
C:\Users\stapi\AppData\Local\Temp\ccRSBokL.s:488    .text.wpabuf_put_data:0000000000000032 .L0 
C:\Users\stapi\AppData\Local\Temp\ccRSBokL.s:495    .text.wpabuf_alloc_copy:0000000000000000 wpabuf_alloc_copy
C:\Users\stapi\AppData\Local\Temp\ccRSBokL.s:498    .text.wpabuf_alloc_copy:0000000000000000 .L0 
C:\Users\stapi\AppData\Local\Temp\ccRSBokL.s:500    .text.wpabuf_alloc_copy:0000000000000000 .L0 
C:\Users\stapi\AppData\Local\Temp\ccRSBokL.s:501    .text.wpabuf_alloc_copy:0000000000000008 .L0 
C:\Users\stapi\AppData\Local\Temp\ccRSBokL.s:502    .text.wpabuf_alloc_copy:0000000000000008 .L0 
C:\Users\stapi\AppData\Local\Temp\ccRSBokL.s:503    .text.wpabuf_alloc_copy:0000000000000008 .L0 
C:\Users\stapi\AppData\Local\Temp\ccRSBokL.s:504    .text.wpabuf_alloc_copy:0000000000000008 .L0 
C:\Users\stapi\AppData\Local\Temp\ccRSBokL.s:506    .text.wpabuf_alloc_copy:0000000000000008 .L0 
C:\Users\stapi\AppData\Local\Temp\ccRSBokL.s:507    .text.wpabuf_alloc_copy:0000000000000008 .L0 
C:\Users\stapi\AppData\Local\Temp\ccRSBokL.s:508    .text.wpabuf_alloc_copy:000000000000000a .L0 
C:\Users\stapi\AppData\Local\Temp\ccRSBokL.s:510    .text.wpabuf_alloc_copy:000000000000000a .L0 
C:\Users\stapi\AppData\Local\Temp\ccRSBokL.s:512    .text.wpabuf_alloc_copy:000000000000000c .L0 
C:\Users\stapi\AppData\Local\Temp\ccRSBokL.s:520    .text.wpabuf_alloc_copy:000000000000001a .L0 
C:\Users\stapi\AppData\Local\Temp\ccRSBokL.s:521    .text.wpabuf_alloc_copy:000000000000001a .L0 
C:\Users\stapi\AppData\Local\Temp\ccRSBokL.s:523    .text.wpabuf_alloc_copy:000000000000001c .L0 
C:\Users\stapi\AppData\Local\Temp\ccRSBokL.s:529    .text.wpabuf_alloc_copy:0000000000000028 .L0 
C:\Users\stapi\AppData\Local\Temp\ccRSBokL.s:530    .text.wpabuf_alloc_copy:0000000000000028 .L0 
C:\Users\stapi\AppData\Local\Temp\ccRSBokL.s:532    .text.wpabuf_alloc_copy:000000000000002c .L0 
C:\Users\stapi\AppData\Local\Temp\ccRSBokL.s:535    .text.wpabuf_alloc_copy:0000000000000034 .L0 
C:\Users\stapi\AppData\Local\Temp\ccRSBokL.s:536    .text.wpabuf_alloc_copy:0000000000000034 .L0 
C:\Users\stapi\AppData\Local\Temp\ccRSBokL.s:537    .text.wpabuf_alloc_copy:0000000000000034 .L0 
C:\Users\stapi\AppData\Local\Temp\ccRSBokL.s:538    .text.wpabuf_alloc_copy:0000000000000034 .L0 
C:\Users\stapi\AppData\Local\Temp\ccRSBokL.s:539    .text.wpabuf_alloc_copy:0000000000000034 .L0 
C:\Users\stapi\AppData\Local\Temp\ccRSBokL.s:546    .text.wpabuf_dup:0000000000000000 wpabuf_dup
C:\Users\stapi\AppData\Local\Temp\ccRSBokL.s:549    .text.wpabuf_dup:0000000000000000 .L0 
C:\Users\stapi\AppData\Local\Temp\ccRSBokL.s:551    .text.wpabuf_dup:0000000000000000 .L0 
C:\Users\stapi\AppData\Local\Temp\ccRSBokL.s:552    .text.wpabuf_dup:0000000000000008 .L0 
C:\Users\stapi\AppData\Local\Temp\ccRSBokL.s:553    .text.wpabuf_dup:0000000000000008 .L0 
C:\Users\stapi\AppData\Local\Temp\ccRSBokL.s:554    .text.wpabuf_dup:0000000000000008 .L0 
C:\Users\stapi\AppData\Local\Temp\ccRSBokL.s:555    .text.wpabuf_dup:0000000000000008 .L0 
C:\Users\stapi\AppData\Local\Temp\ccRSBokL.s:560    .text.wpabuf_dup:0000000000000008 .L0 
C:\Users\stapi\AppData\Local\Temp\ccRSBokL.s:563    .text.wpabuf_dup:0000000000000008 .L0 
C:\Users\stapi\AppData\Local\Temp\ccRSBokL.s:564    .text.wpabuf_dup:0000000000000008 .L0 
C:\Users\stapi\AppData\Local\Temp\ccRSBokL.s:566    .text.wpabuf_dup:000000000000000a .L0 
C:\Users\stapi\AppData\Local\Temp\ccRSBokL.s:573    .text.wpabuf_dup:0000000000000016 .L0 
C:\Users\stapi\AppData\Local\Temp\ccRSBokL.s:574    .text.wpabuf_dup:0000000000000016 .L0 
C:\Users\stapi\AppData\Local\Temp\ccRSBokL.s:579    .text.wpabuf_dup:0000000000000018 .L0 
C:\Users\stapi\AppData\Local\Temp\ccRSBokL.s:584    .text.wpabuf_dup:0000000000000018 .L0 
C:\Users\stapi\AppData\Local\Temp\ccRSBokL.s:587    .text.wpabuf_dup:0000000000000018 .L0 
C:\Users\stapi\AppData\Local\Temp\ccRSBokL.s:588    .text.wpabuf_dup:0000000000000018 .L0 
C:\Users\stapi\AppData\Local\Temp\ccRSBokL.s:594    .text.wpabuf_dup:0000000000000024 .L0 
C:\Users\stapi\AppData\Local\Temp\ccRSBokL.s:595    .text.wpabuf_dup:0000000000000024 .L0 
C:\Users\stapi\AppData\Local\Temp\ccRSBokL.s:597    .text.wpabuf_dup:000000000000002e .L0 
C:\Users\stapi\AppData\Local\Temp\ccRSBokL.s:598    .text.wpabuf_dup:000000000000002e .L0 
C:\Users\stapi\AppData\Local\Temp\ccRSBokL.s:599    .text.wpabuf_dup:000000000000002e .L0 
C:\Users\stapi\AppData\Local\Temp\ccRSBokL.s:600    .text.wpabuf_dup:000000000000002e .L0 
C:\Users\stapi\AppData\Local\Temp\ccRSBokL.s:601    .text.wpabuf_dup:000000000000002e .L0 
C:\Users\stapi\AppData\Local\Temp\ccRSBokL.s:608    .text.wpabuf_concat:0000000000000000 wpabuf_concat
C:\Users\stapi\AppData\Local\Temp\ccRSBokL.s:611    .text.wpabuf_concat:0000000000000000 .L0 
C:\Users\stapi\AppData\Local\Temp\ccRSBokL.s:613    .text.wpabuf_concat:0000000000000000 .L0 
C:\Users\stapi\AppData\Local\Temp\ccRSBokL.s:614    .text.wpabuf_concat:0000000000000008 .L0 
C:\Users\stapi\AppData\Local\Temp\ccRSBokL.s:615    .text.wpabuf_concat:0000000000000008 .L0 
C:\Users\stapi\AppData\Local\Temp\ccRSBokL.s:616    .text.wpabuf_concat:0000000000000008 .L0 
C:\Users\stapi\AppData\Local\Temp\ccRSBokL.s:617    .text.wpabuf_concat:0000000000000008 .L0 
C:\Users\stapi\AppData\Local\Temp\ccRSBokL.s:618    .text.wpabuf_concat:0000000000000008 .L0 
C:\Users\stapi\AppData\Local\Temp\ccRSBokL.s:621    .text.wpabuf_concat:0000000000000008 .L0 
C:\Users\stapi\AppData\Local\Temp\ccRSBokL.s:622    .text.wpabuf_concat:0000000000000008 .L0 
C:\Users\stapi\AppData\Local\Temp\ccRSBokL.s:623    .text.wpabuf_concat:0000000000000008 .L0 
C:\Users\stapi\AppData\Local\Temp\ccRSBokL.s:624    .text.wpabuf_concat:0000000000000008 .L0 
C:\Users\stapi\AppData\Local\Temp\ccRSBokL.s:626    .text.wpabuf_concat:000000000000000a .L0 
C:\Users\stapi\AppData\Local\Temp\ccRSBokL.s:629    .text.wpabuf_concat:000000000000000e .L0 
C:\Users\stapi\AppData\Local\Temp\ccRSBokL.s:630    .text.wpabuf_concat:000000000000000e .L0 
C:\Users\stapi\AppData\Local\Temp\ccRSBokL.s:632    .text.wpabuf_concat:0000000000000010 .L0 
C:\Users\stapi\AppData\Local\Temp\ccRSBokL.s:637    .text.wpabuf_concat:0000000000000012 .L0 
C:\Users\stapi\AppData\Local\Temp\ccRSBokL.s:638    .text.wpabuf_concat:0000000000000012 .L0 
C:\Users\stapi\AppData\Local\Temp\ccRSBokL.s:639    .text.wpabuf_concat:0000000000000012 .L0 
C:\Users\stapi\AppData\Local\Temp\ccRSBokL.s:647    .text.wpabuf_concat:0000000000000014 .L0 
C:\Users\stapi\AppData\Local\Temp\ccRSBokL.s:650    .text.wpabuf_concat:0000000000000014 .L0 
C:\Users\stapi\AppData\Local\Temp\ccRSBokL.s:651    .text.wpabuf_concat:0000000000000014 .L0 
C:\Users\stapi\AppData\Local\Temp\ccRSBokL.s:652    .text.wpabuf_concat:0000000000000014 .L0 
C:\Users\stapi\AppData\Local\Temp\ccRSBokL.s:655    .text.wpabuf_concat:0000000000000016 .L0 
C:\Users\stapi\AppData\Local\Temp\ccRSBokL.s:662    .text.wpabuf_concat:0000000000000022 .L0 
C:\Users\stapi\AppData\Local\Temp\ccRSBokL.s:663    .text.wpabuf_concat:0000000000000022 .L0 
C:\Users\stapi\AppData\Local\Temp\ccRSBokL.s:665    .text.wpabuf_concat:0000000000000024 .L0 
C:\Users\stapi\AppData\Local\Temp\ccRSBokL.s:666    .text.wpabuf_concat:0000000000000024 .L0 
C:\Users\stapi\AppData\Local\Temp\ccRSBokL.s:671    .text.wpabuf_concat:0000000000000026 .L0 
C:\Users\stapi\AppData\Local\Temp\ccRSBokL.s:674    .text.wpabuf_concat:0000000000000026 .L0 
C:\Users\stapi\AppData\Local\Temp\ccRSBokL.s:679    .text.wpabuf_concat:0000000000000026 .L0 
C:\Users\stapi\AppData\Local\Temp\ccRSBokL.s:682    .text.wpabuf_concat:0000000000000026 .L0 
C:\Users\stapi\AppData\Local\Temp\ccRSBokL.s:683    .text.wpabuf_concat:0000000000000026 .L0 
C:\Users\stapi\AppData\Local\Temp\ccRSBokL.s:693    .text.wpabuf_concat:0000000000000032 .L0 
C:\Users\stapi\AppData\Local\Temp\ccRSBokL.s:696    .text.wpabuf_concat:0000000000000032 .L0 
C:\Users\stapi\AppData\Local\Temp\ccRSBokL.s:701    .text.wpabuf_concat:0000000000000032 .L0 
C:\Users\stapi\AppData\Local\Temp\ccRSBokL.s:704    .text.wpabuf_concat:0000000000000032 .L0 
C:\Users\stapi\AppData\Local\Temp\ccRSBokL.s:705    .text.wpabuf_concat:0000000000000032 .L0 
C:\Users\stapi\AppData\Local\Temp\ccRSBokL.s:714    .text.wpabuf_concat:0000000000000040 .L0 
C:\Users\stapi\AppData\Local\Temp\ccRSBokL.s:718    .text.wpabuf_concat:000000000000004a .L0 
C:\Users\stapi\AppData\Local\Temp\ccRSBokL.s:722    .text.wpabuf_concat:0000000000000054 .L0 
C:\Users\stapi\AppData\Local\Temp\ccRSBokL.s:723    .text.wpabuf_concat:0000000000000054 .L0 
C:\Users\stapi\AppData\Local\Temp\ccRSBokL.s:727    .text.wpabuf_concat:0000000000000056 .L0 
C:\Users\stapi\AppData\Local\Temp\ccRSBokL.s:729    .text.wpabuf_concat:0000000000000060 .L0 
C:\Users\stapi\AppData\Local\Temp\ccRSBokL.s:730    .text.wpabuf_concat:0000000000000060 .L0 
C:\Users\stapi\AppData\Local\Temp\ccRSBokL.s:731    .text.wpabuf_concat:0000000000000060 .L0 
C:\Users\stapi\AppData\Local\Temp\ccRSBokL.s:732    .text.wpabuf_concat:0000000000000060 .L0 
C:\Users\stapi\AppData\Local\Temp\ccRSBokL.s:733    .text.wpabuf_concat:0000000000000060 .L0 
C:\Users\stapi\AppData\Local\Temp\ccRSBokL.s:734    .text.wpabuf_concat:0000000000000060 .L0 
C:\Users\stapi\AppData\Local\Temp\ccRSBokL.s:741    .text.wpabuf_zeropad:0000000000000000 wpabuf_zeropad
C:\Users\stapi\AppData\Local\Temp\ccRSBokL.s:744    .text.wpabuf_zeropad:0000000000000000 .L0 
C:\Users\stapi\AppData\Local\Temp\ccRSBokL.s:746    .text.wpabuf_zeropad:0000000000000000 .L0 
C:\Users\stapi\AppData\Local\Temp\ccRSBokL.s:747    .text.wpabuf_zeropad:0000000000000008 .L0 
C:\Users\stapi\AppData\Local\Temp\ccRSBokL.s:748    .text.wpabuf_zeropad:0000000000000008 .L0 
C:\Users\stapi\AppData\Local\Temp\ccRSBokL.s:749    .text.wpabuf_zeropad:0000000000000008 .L0 
C:\Users\stapi\AppData\Local\Temp\ccRSBokL.s:750    .text.wpabuf_zeropad:0000000000000008 .L0 
C:\Users\stapi\AppData\Local\Temp\ccRSBokL.s:751    .text.wpabuf_zeropad:0000000000000008 .L0 
C:\Users\stapi\AppData\Local\Temp\ccRSBokL.s:752    .text.wpabuf_zeropad:0000000000000008 .L0 
C:\Users\stapi\AppData\Local\Temp\ccRSBokL.s:754    .text.wpabuf_zeropad:0000000000000008 .L0 
C:\Users\stapi\AppData\Local\Temp\ccRSBokL.s:755    .text.wpabuf_zeropad:0000000000000008 .L0 
C:\Users\stapi\AppData\Local\Temp\ccRSBokL.s:756    .text.wpabuf_zeropad:0000000000000008 .L0 
C:\Users\stapi\AppData\Local\Temp\ccRSBokL.s:757    .text.wpabuf_zeropad:0000000000000008 .L0 
C:\Users\stapi\AppData\Local\Temp\ccRSBokL.s:759    .text.wpabuf_zeropad:000000000000000a .L0 
C:\Users\stapi\AppData\Local\Temp\ccRSBokL.s:763    .text.wpabuf_zeropad:000000000000000c .L0 
C:\Users\stapi\AppData\Local\Temp\ccRSBokL.s:771    .text.wpabuf_zeropad:0000000000000012 .L0 
C:\Users\stapi\AppData\Local\Temp\ccRSBokL.s:774    .text.wpabuf_zeropad:0000000000000012 .L0 
C:\Users\stapi\AppData\Local\Temp\ccRSBokL.s:775    .text.wpabuf_zeropad:0000000000000012 .L0 
C:\Users\stapi\AppData\Local\Temp\ccRSBokL.s:776    .text.wpabuf_zeropad:0000000000000012 .L0 
C:\Users\stapi\AppData\Local\Temp\ccRSBokL.s:778    .text.wpabuf_zeropad:0000000000000016 .L0 
C:\Users\stapi\AppData\Local\Temp\ccRSBokL.s:779    .text.wpabuf_zeropad:0000000000000016 .L0 
C:\Users\stapi\AppData\Local\Temp\ccRSBokL.s:786    .text.wpabuf_zeropad:0000000000000022 .L0 
C:\Users\stapi\AppData\Local\Temp\ccRSBokL.s:787    .text.wpabuf_zeropad:0000000000000022 .L0 
C:\Users\stapi\AppData\Local\Temp\ccRSBokL.s:789    .text.wpabuf_zeropad:0000000000000024 .L0 
C:\Users\stapi\AppData\Local\Temp\ccRSBokL.s:801    .text.wpabuf_zeropad:000000000000003e .L0 
C:\Users\stapi\AppData\Local\Temp\ccRSBokL.s:804    .text.wpabuf_zeropad:000000000000003e .L0 
C:\Users\stapi\AppData\Local\Temp\ccRSBokL.s:809    .text.wpabuf_zeropad:000000000000003e .L0 
C:\Users\stapi\AppData\Local\Temp\ccRSBokL.s:812    .text.wpabuf_zeropad:000000000000003e .L0 
C:\Users\stapi\AppData\Local\Temp\ccRSBokL.s:813    .text.wpabuf_zeropad:000000000000003e .L0 
C:\Users\stapi\AppData\Local\Temp\ccRSBokL.s:822    .text.wpabuf_zeropad:000000000000004c .L0 
C:\Users\stapi\AppData\Local\Temp\ccRSBokL.s:826    .text.wpabuf_zeropad:0000000000000056 .L0 
C:\Users\stapi\AppData\Local\Temp\ccRSBokL.s:827    .text.wpabuf_zeropad:0000000000000056 .L0 
C:\Users\stapi\AppData\Local\Temp\ccRSBokL.s:831    .text.wpabuf_zeropad:0000000000000058 .L0 
C:\Users\stapi\AppData\Local\Temp\ccRSBokL.s:833    .text.wpabuf_zeropad:0000000000000062 .L0 
C:\Users\stapi\AppData\Local\Temp\ccRSBokL.s:834    .text.wpabuf_zeropad:0000000000000062 .L0 
C:\Users\stapi\AppData\Local\Temp\ccRSBokL.s:835    .text.wpabuf_zeropad:0000000000000062 .L0 
C:\Users\stapi\AppData\Local\Temp\ccRSBokL.s:836    .text.wpabuf_zeropad:0000000000000062 .L0 
C:\Users\stapi\AppData\Local\Temp\ccRSBokL.s:837    .text.wpabuf_zeropad:0000000000000062 .L0 
C:\Users\stapi\AppData\Local\Temp\ccRSBokL.s:838    .text.wpabuf_zeropad:0000000000000062 .L0 
C:\Users\stapi\AppData\Local\Temp\ccRSBokL.s:839    .text.wpabuf_zeropad:0000000000000062 .L0 
C:\Users\stapi\AppData\Local\Temp\ccRSBokL.s:846    .text.wpabuf_printf:0000000000000000 wpabuf_printf
C:\Users\stapi\AppData\Local\Temp\ccRSBokL.s:849    .text.wpabuf_printf:0000000000000000 .L0 
C:\Users\stapi\AppData\Local\Temp\ccRSBokL.s:851    .text.wpabuf_printf:0000000000000000 .L0 
C:\Users\stapi\AppData\Local\Temp\ccRSBokL.s:852    .text.wpabuf_printf:0000000000000000 .L0 
C:\Users\stapi\AppData\Local\Temp\ccRSBokL.s:853    .text.wpabuf_printf:0000000000000000 .L0 
C:\Users\stapi\AppData\Local\Temp\ccRSBokL.s:857    .text.wpabuf_printf:0000000000000000 .L0 
C:\Users\stapi\AppData\Local\Temp\ccRSBokL.s:863    .text.wpabuf_printf:0000000000000000 .L0 
C:\Users\stapi\AppData\Local\Temp\ccRSBokL.s:866    .text.wpabuf_printf:0000000000000000 .L0 
C:\Users\stapi\AppData\Local\Temp\ccRSBokL.s:867    .text.wpabuf_printf:0000000000000000 .L0 
C:\Users\stapi\AppData\Local\Temp\ccRSBokL.s:868    .text.wpabuf_printf:0000000000000002 .L0 
C:\Users\stapi\AppData\Local\Temp\ccRSBokL.s:876    .text.wpabuf_printf:0000000000000010 .L0 
C:\Users\stapi\AppData\Local\Temp\ccRSBokL.s:879    .text.wpabuf_printf:0000000000000012 .L0 
C:\Users\stapi\AppData\Local\Temp\ccRSBokL.s:883    .text.wpabuf_printf:0000000000000016 .L0 
C:\Users\stapi\AppData\Local\Temp\ccRSBokL.s:884    .text.wpabuf_printf:0000000000000016 .L0 
C:\Users\stapi\AppData\Local\Temp\ccRSBokL.s:885    .text.wpabuf_printf:0000000000000016 .L0 
C:\Users\stapi\AppData\Local\Temp\ccRSBokL.s:887    .text.wpabuf_printf:000000000000001a .L0 
C:\Users\stapi\AppData\Local\Temp\ccRSBokL.s:889    .text.wpabuf_printf:000000000000001c .L0 
C:\Users\stapi\AppData\Local\Temp\ccRSBokL.s:896    .text.wpabuf_printf:0000000000000026 .L0 
C:\Users\stapi\AppData\Local\Temp\ccRSBokL.s:898    .text.wpabuf_printf:0000000000000028 .L0 
C:\Users\stapi\AppData\Local\Temp\ccRSBokL.s:899    .text.wpabuf_printf:0000000000000028 .L0 
C:\Users\stapi\AppData\Local\Temp\ccRSBokL.s:900    .text.wpabuf_printf:000000000000002a .L0 
C:\Users\stapi\AppData\Local\Temp\ccRSBokL.s:902    .text.wpabuf_printf:000000000000002a .L0 
C:\Users\stapi\AppData\Local\Temp\ccRSBokL.s:909    .text.wpabuf_printf:0000000000000038 .L0 
C:\Users\stapi\AppData\Local\Temp\ccRSBokL.s:910    .text.wpabuf_printf:0000000000000038 .L0 
C:\Users\stapi\AppData\Local\Temp\ccRSBokL.s:911    .text.wpabuf_printf:0000000000000038 .L0 
C:\Users\stapi\AppData\Local\Temp\ccRSBokL.s:913    .text.wpabuf_printf:000000000000003c .L0 
C:\Users\stapi\AppData\Local\Temp\ccRSBokL.s:915    .text.wpabuf_printf:0000000000000040 .L0 
C:\Users\stapi\AppData\Local\Temp\ccRSBokL.s:921    .text.wpabuf_printf:0000000000000044 .L0 
C:\Users\stapi\AppData\Local\Temp\ccRSBokL.s:922    .text.wpabuf_printf:0000000000000044 .L0 
C:\Users\stapi\AppData\Local\Temp\ccRSBokL.s:930    .text.wpabuf_printf:0000000000000058 .L0 
C:\Users\stapi\AppData\Local\Temp\ccRSBokL.s:931    .text.wpabuf_printf:0000000000000058 .L0 
C:\Users\stapi\AppData\Local\Temp\ccRSBokL.s:932    .text.wpabuf_printf:0000000000000058 .L0 
C:\Users\stapi\AppData\Local\Temp\ccRSBokL.s:933    .text.wpabuf_printf:0000000000000058 .L0 
C:\Users\stapi\AppData\Local\Temp\ccRSBokL.s:939    .text.wpabuf_printf:0000000000000060 .L0 
C:\Users\stapi\AppData\Local\Temp\ccRSBokL.s:940    .text.wpabuf_printf:0000000000000060 .L0 
C:\Users\stapi\AppData\Local\Temp\ccRSBokL.s:942    .text.wpabuf_printf:0000000000000064 .L0 
C:\Users\stapi\AppData\Local\Temp\ccRSBokL.s:943    .text.wpabuf_printf:0000000000000066 .L0 
C:\Users\stapi\AppData\Local\Temp\ccRSBokL.s:945    .text.wpabuf_printf:0000000000000066 .L0 
C:\Users\stapi\AppData\Local\Temp\ccRSBokL.s:947    .text.wpabuf_printf:0000000000000068 .L0 
C:\Users\stapi\AppData\Local\Temp\ccRSBokL.s:948    .text.wpabuf_printf:000000000000006a .L0 
C:\Users\stapi\AppData\Local\Temp\ccRSBokL.s:951    .text.wpabuf_printf:000000000000006c .L0 
C:\Users\stapi\AppData\Local\Temp\ccRSBokL.s:953    .text.wpabuf_printf:000000000000006e .L0 
C:\Users\stapi\AppData\Local\Temp\ccRSBokL.s:960    .text.wpabuf_parse_bin:0000000000000000 wpabuf_parse_bin
C:\Users\stapi\AppData\Local\Temp\ccRSBokL.s:963    .text.wpabuf_parse_bin:0000000000000000 .L0 
C:\Users\stapi\AppData\Local\Temp\ccRSBokL.s:965    .text.wpabuf_parse_bin:0000000000000000 .L0 
C:\Users\stapi\AppData\Local\Temp\ccRSBokL.s:966    .text.wpabuf_parse_bin:0000000000000008 .L0 
C:\Users\stapi\AppData\Local\Temp\ccRSBokL.s:967    .text.wpabuf_parse_bin:0000000000000008 .L0 
C:\Users\stapi\AppData\Local\Temp\ccRSBokL.s:968    .text.wpabuf_parse_bin:0000000000000008 .L0 
C:\Users\stapi\AppData\Local\Temp\ccRSBokL.s:969    .text.wpabuf_parse_bin:0000000000000008 .L0 
C:\Users\stapi\AppData\Local\Temp\ccRSBokL.s:970    .text.wpabuf_parse_bin:0000000000000008 .L0 
C:\Users\stapi\AppData\Local\Temp\ccRSBokL.s:972    .text.wpabuf_parse_bin:0000000000000008 .L0 
C:\Users\stapi\AppData\Local\Temp\ccRSBokL.s:973    .text.wpabuf_parse_bin:0000000000000008 .L0 
C:\Users\stapi\AppData\Local\Temp\ccRSBokL.s:974    .text.wpabuf_parse_bin:0000000000000008 .L0 
C:\Users\stapi\AppData\Local\Temp\ccRSBokL.s:975    .text.wpabuf_parse_bin:0000000000000008 .L0 
C:\Users\stapi\AppData\Local\Temp\ccRSBokL.s:977    .text.wpabuf_parse_bin:000000000000000a .L0 
C:\Users\stapi\AppData\Local\Temp\ccRSBokL.s:980    .text.wpabuf_parse_bin:0000000000000012 .L0 
C:\Users\stapi\AppData\Local\Temp\ccRSBokL.s:981    .text.wpabuf_parse_bin:0000000000000012 .L0 
C:\Users\stapi\AppData\Local\Temp\ccRSBokL.s:983    .text.wpabuf_parse_bin:0000000000000016 .L0 
C:\Users\stapi\AppData\Local\Temp\ccRSBokL.s:987    .text.wpabuf_parse_bin:0000000000000018 .L0 
C:\Users\stapi\AppData\Local\Temp\ccRSBokL.s:988    .text.wpabuf_parse_bin:0000000000000018 .L0 
C:\Users\stapi\AppData\Local\Temp\ccRSBokL.s:991    .text.wpabuf_parse_bin:000000000000001a .L0 
C:\Users\stapi\AppData\Local\Temp\ccRSBokL.s:993    .text.wpabuf_parse_bin:0000000000000024 .L0 
C:\Users\stapi\AppData\Local\Temp\ccRSBokL.s:994    .text.wpabuf_parse_bin:0000000000000024 .L0 
C:\Users\stapi\AppData\Local\Temp\ccRSBokL.s:995    .text.wpabuf_parse_bin:0000000000000024 .L0 
C:\Users\stapi\AppData\Local\Temp\ccRSBokL.s:996    .text.wpabuf_parse_bin:0000000000000024 .L0 
C:\Users\stapi\AppData\Local\Temp\ccRSBokL.s:997    .text.wpabuf_parse_bin:0000000000000024 .L0 
C:\Users\stapi\AppData\Local\Temp\ccRSBokL.s:998    .text.wpabuf_parse_bin:0000000000000024 .L0 
C:\Users\stapi\AppData\Local\Temp\ccRSBokL.s:1001   .text.wpabuf_parse_bin:0000000000000024 .L0 
C:\Users\stapi\AppData\Local\Temp\ccRSBokL.s:1003   .text.wpabuf_parse_bin:0000000000000024 .L0 
C:\Users\stapi\AppData\Local\Temp\ccRSBokL.s:1004   .text.wpabuf_parse_bin:0000000000000024 .L0 
C:\Users\stapi\AppData\Local\Temp\ccRSBokL.s:1007   .text.wpabuf_parse_bin:0000000000000028 .L0 
C:\Users\stapi\AppData\Local\Temp\ccRSBokL.s:1008   .text.wpabuf_parse_bin:0000000000000028 .L0 
C:\Users\stapi\AppData\Local\Temp\ccRSBokL.s:1014   .text.wpabuf_parse_bin:0000000000000034 .L0 
C:\Users\stapi\AppData\Local\Temp\ccRSBokL.s:1015   .text.wpabuf_parse_bin:0000000000000034 .L0 
C:\Users\stapi\AppData\Local\Temp\ccRSBokL.s:1017   .text.wpabuf_parse_bin:0000000000000036 .L0 
C:\Users\stapi\AppData\Local\Temp\ccRSBokL.s:1018   .text.wpabuf_parse_bin:0000000000000036 .L0 
C:\Users\stapi\AppData\Local\Temp\ccRSBokL.s:1023   .text.wpabuf_parse_bin:0000000000000042 .L0 
C:\Users\stapi\AppData\Local\Temp\ccRSBokL.s:1028   .text.wpabuf_parse_bin:000000000000004e .L0 
C:\Users\stapi\AppData\Local\Temp\ccRSBokL.s:1030   .text.wpabuf_parse_bin:0000000000000050 .L0 
C:\Users\stapi\AppData\Local\Temp\ccRSBokL.s:1034   .text.wpabuf_parse_bin:000000000000005c .L0 
C:\Users\stapi\AppData\Local\Temp\ccRSBokL.s:52     .text.wpabuf_alloc:0000000000000026 .L0 
C:\Users\stapi\AppData\Local\Temp\ccRSBokL.s:207    .text.wpabuf_resize:000000000000009e .L0 
C:\Users\stapi\AppData\Local\Temp\ccRSBokL.s:262    .text.wpabuf_alloc_ext_data:000000000000002e .L0 
C:\Users\stapi\AppData\Local\Temp\ccRSBokL.s:308    .text.wpabuf_free:0000000000000030 .L0 
C:\Users\stapi\AppData\Local\Temp\ccRSBokL.s:362    .text.wpabuf_clear_free:000000000000002e .L0 
C:\Users\stapi\AppData\Local\Temp\ccRSBokL.s:442    .text.wpabuf_put:0000000000000038 .L0 
C:\Users\stapi\AppData\Local\Temp\ccRSBokL.s:491    .text.wpabuf_put_data:0000000000000032 .L0 
C:\Users\stapi\AppData\Local\Temp\ccRSBokL.s:542    .text.wpabuf_alloc_copy:0000000000000034 .L0 
C:\Users\stapi\AppData\Local\Temp\ccRSBokL.s:604    .text.wpabuf_dup:000000000000002e .L0 
C:\Users\stapi\AppData\Local\Temp\ccRSBokL.s:737    .text.wpabuf_concat:0000000000000060 .L0 
C:\Users\stapi\AppData\Local\Temp\ccRSBokL.s:842    .text.wpabuf_zeropad:0000000000000062 .L0 
C:\Users\stapi\AppData\Local\Temp\ccRSBokL.s:956    .text.wpabuf_printf:000000000000006e .L0 
C:\Users\stapi\AppData\Local\Temp\ccRSBokL.s:1037   .text.wpabuf_parse_bin:000000000000005c .L0 
                     .debug_frame:0000000000000000 .L0 
C:\Users\stapi\AppData\Local\Temp\ccRSBokL.s:43     .text.wpabuf_alloc:000000000000001e .L1
C:\Users\stapi\AppData\Local\Temp\ccRSBokL.s:100    .text.wpabuf_resize:000000000000002e .L8
C:\Users\stapi\AppData\Local\Temp\ccRSBokL.s:90     .text.wpabuf_resize:0000000000000026 .L7
C:\Users\stapi\AppData\Local\Temp\ccRSBokL.s:168    .text.wpabuf_resize:0000000000000070 .L10
C:\Users\stapi\AppData\Local\Temp\ccRSBokL.s:139    .text.wpabuf_resize:0000000000000052 .L11
C:\Users\stapi\AppData\Local\Temp\ccRSBokL.s:133    .text.wpabuf_resize:000000000000004e .L13
C:\Users\stapi\AppData\Local\Temp\ccRSBokL.s:154    .text.wpabuf_resize:0000000000000066 .L12
C:\Users\stapi\AppData\Local\Temp\ccRSBokL.s:252    .text.wpabuf_alloc_ext_data:0000000000000026 .L19
C:\Users\stapi\AppData\Local\Temp\ccRSBokL.s:303    .text.wpabuf_free:000000000000002e .L35
C:\Users\stapi\AppData\Local\Temp\ccRSBokL.s:292    .text.wpabuf_free:000000000000001c .L27
C:\Users\stapi\AppData\Local\Temp\ccRSBokL.s:357    .text.wpabuf_clear_free:000000000000002c .L44
C:\Users\stapi\AppData\Local\Temp\ccRSBokL.s:364    .rodata.wpabuf_put.str1.4:0000000000000000 .LC0
C:\Users\stapi\AppData\Local\Temp\ccRSBokL.s:432    .text.wpabuf_put:0000000000000036 .L47
C:\Users\stapi\AppData\Local\Temp\ccRSBokL.s:485    .text.wpabuf_put_data:0000000000000030 .L58
C:\Users\stapi\AppData\Local\Temp\ccRSBokL.s:528    .text.wpabuf_alloc_copy:0000000000000028 .L61
C:\Users\stapi\AppData\Local\Temp\ccRSBokL.s:593    .text.wpabuf_dup:0000000000000024 .L67
C:\Users\stapi\AppData\Local\Temp\ccRSBokL.s:725    .text.wpabuf_concat:0000000000000056 .L74
C:\Users\stapi\AppData\Local\Temp\ccRSBokL.s:641    .text.wpabuf_concat:0000000000000014 .L75
C:\Users\stapi\AppData\Local\Temp\ccRSBokL.s:710    .text.wpabuf_concat:0000000000000040 .L76
C:\Users\stapi\AppData\Local\Temp\ccRSBokL.s:687    .text.wpabuf_concat:0000000000000032 .L77
C:\Users\stapi\AppData\Local\Temp\ccRSBokL.s:829    .text.wpabuf_zeropad:0000000000000058 .L90
C:\Users\stapi\AppData\Local\Temp\ccRSBokL.s:818    .text.wpabuf_zeropad:000000000000004c .L91
C:\Users\stapi\AppData\Local\Temp\ccRSBokL.s:916    .text.wpabuf_printf:0000000000000044 .L100
C:\Users\stapi\AppData\Local\Temp\ccRSBokL.s:935    .text.wpabuf_printf:0000000000000060 .L101
C:\Users\stapi\AppData\Local\Temp\ccRSBokL.s:1000   .text.wpabuf_parse_bin:0000000000000024 .L104
C:\Users\stapi\AppData\Local\Temp\ccRSBokL.s:985    .text.wpabuf_parse_bin:0000000000000018 .L114
C:\Users\stapi\AppData\Local\Temp\ccRSBokL.s:989    .text.wpabuf_parse_bin:000000000000001a .L103
C:\Users\stapi\AppData\Local\Temp\ccRSBokL.s:2601   .debug_abbrev:0000000000000000 .Ldebug_abbrev0
C:\Users\stapi\AppData\Local\Temp\ccRSBokL.s:4096   .debug_str:00000000000001fc .LASF59
C:\Users\stapi\AppData\Local\Temp\ccRSBokL.s:4088   .debug_str:0000000000000142 .LASF60
C:\Users\stapi\AppData\Local\Temp\ccRSBokL.s:4068   .debug_str:0000000000000040 .LASF61
C:\Users\stapi\AppData\Local\Temp\ccRSBokL.s:4012   .debug_ranges:0000000000000000 .Ldebug_ranges0
C:\Users\stapi\AppData\Local\Temp\ccRSBokL.s:4054   .debug_line:0000000000000000 .Ldebug_line0
C:\Users\stapi\AppData\Local\Temp\ccRSBokL.s:4066   .debug_str:0000000000000039 .LASF2
C:\Users\stapi\AppData\Local\Temp\ccRSBokL.s:4178   .debug_str:00000000000004c3 .LASF0
C:\Users\stapi\AppData\Local\Temp\ccRSBokL.s:4132   .debug_str:00000000000003a6 .LASF1
C:\Users\stapi\AppData\Local\Temp\ccRSBokL.s:4110   .debug_str:0000000000000335 .LASF3
C:\Users\stapi\AppData\Local\Temp\ccRSBokL.s:4120   .debug_str:000000000000036a .LASF4
C:\Users\stapi\AppData\Local\Temp\ccRSBokL.s:4064   .debug_str:000000000000002f .LASF5
C:\Users\stapi\AppData\Local\Temp\ccRSBokL.s:4146   .debug_str:00000000000003f6 .LASF6
C:\Users\stapi\AppData\Local\Temp\ccRSBokL.s:4104   .debug_str:000000000000031b .LASF7
C:\Users\stapi\AppData\Local\Temp\ccRSBokL.s:4160   .debug_str:000000000000044a .LASF8
C:\Users\stapi\AppData\Local\Temp\ccRSBokL.s:4098   .debug_str:00000000000002f5 .LASF9
C:\Users\stapi\AppData\Local\Temp\ccRSBokL.s:4136   .debug_str:00000000000003b8 .LASF10
C:\Users\stapi\AppData\Local\Temp\ccRSBokL.s:4162   .debug_str:000000000000045c .LASF62
C:\Users\stapi\AppData\Local\Temp\ccRSBokL.s:4148   .debug_str:0000000000000409 .LASF11
C:\Users\stapi\AppData\Local\Temp\ccRSBokL.s:4174   .debug_str:00000000000004a5 .LASF12
C:\Users\stapi\AppData\Local\Temp\ccRSBokL.s:4086   .debug_str:000000000000013a .LASF13
C:\Users\stapi\AppData\Local\Temp\ccRSBokL.s:4080   .debug_str:0000000000000111 .LASF14
C:\Users\stapi\AppData\Local\Temp\ccRSBokL.s:4152   .debug_str:0000000000000418 .LASF15
C:\Users\stapi\AppData\Local\Temp\ccRSBokL.s:4156   .debug_str:0000000000000433 .LASF63
C:\Users\stapi\AppData\Local\Temp\ccRSBokL.s:4168   .debug_str:0000000000000487 .LASF16
C:\Users\stapi\AppData\Local\Temp\ccRSBokL.s:4140   .debug_str:00000000000003da .LASF17
C:\Users\stapi\AppData\Local\Temp\ccRSBokL.s:4134   .debug_str:00000000000003b2 .LASF18
C:\Users\stapi\AppData\Local\Temp\ccRSBokL.s:4100   .debug_str:0000000000000303 .LASF19
C:\Users\stapi\AppData\Local\Temp\ccRSBokL.s:4058   .debug_str:000000000000000a .LASF20
C:\Users\stapi\AppData\Local\Temp\ccRSBokL.s:4102   .debug_str:0000000000000311 .LASF21
C:\Users\stapi\AppData\Local\Temp\ccRSBokL.s:4108   .debug_str:000000000000032c .LASF22
C:\Users\stapi\AppData\Local\Temp\ccRSBokL.s:4072   .debug_str:00000000000000e2 .LASF23
C:\Users\stapi\AppData\Local\Temp\ccRSBokL.s:4150   .debug_str:000000000000040e .LASF24
C:\Users\stapi\AppData\Local\Temp\ccRSBokL.s:4094   .debug_str:00000000000001eb .LASF25
C:\Users\stapi\AppData\Local\Temp\ccRSBokL.s:961    .text.wpabuf_parse_bin:0000000000000000 .LFB83
C:\Users\stapi\AppData\Local\Temp\ccRSBokL.s:1035   .text.wpabuf_parse_bin:000000000000005c .LFE83
C:\Users\stapi\AppData\Local\Temp\ccRSBokL.s:3324   .debug_loc:0000000000000000 .LLST44
C:\Users\stapi\AppData\Local\Temp\ccRSBokL.s:3335   .debug_loc:000000000000001e .LLST45
C:\Users\stapi\AppData\Local\Temp\ccRSBokL.s:978    .text.wpabuf_parse_bin:0000000000000012 .LVL103
C:\Users\stapi\AppData\Local\Temp\ccRSBokL.s:1010   .text.wpabuf_parse_bin:0000000000000032 .LVL107
C:\Users\stapi\AppData\Local\Temp\ccRSBokL.s:1020   .text.wpabuf_parse_bin:0000000000000040 .LVL109
C:\Users\stapi\AppData\Local\Temp\ccRSBokL.s:1026   .text.wpabuf_parse_bin:000000000000004e .LVL110
C:\Users\stapi\AppData\Local\Temp\ccRSBokL.s:1032   .text.wpabuf_parse_bin:000000000000005a .LVL111
C:\Users\stapi\AppData\Local\Temp\ccRSBokL.s:4062   .debug_str:0000000000000021 .LASF30
C:\Users\stapi\AppData\Local\Temp\ccRSBokL.s:847    .text.wpabuf_printf:0000000000000000 .LFB82
C:\Users\stapi\AppData\Local\Temp\ccRSBokL.s:954    .text.wpabuf_printf:000000000000006e .LFE82
C:\Users\stapi\AppData\Local\Temp\ccRSBokL.s:3350   .debug_loc:0000000000000047 .LLST38
C:\Users\stapi\AppData\Local\Temp\ccRSBokL.s:3368   .debug_loc:0000000000000073 .LLST39
C:\Users\stapi\AppData\Local\Temp\ccRSBokL.s:3386   .debug_loc:000000000000009f .LLST40
C:\Users\stapi\AppData\Local\Temp\ccRSBokL.s:3402   .debug_loc:00000000000000c2 .LLST41
C:\Users\stapi\AppData\Local\Temp\ccRSBokL.s:854    .text.wpabuf_printf:0000000000000000 .LBB123
C:\Users\stapi\AppData\Local\Temp\ccRSBokL.s:860    .text.wpabuf_printf:0000000000000000 .LBE123
C:\Users\stapi\AppData\Local\Temp\ccRSBokL.s:855    .text.wpabuf_printf:0000000000000000 .LBB124
C:\Users\stapi\AppData\Local\Temp\ccRSBokL.s:859    .text.wpabuf_printf:0000000000000000 .LBE124
C:\Users\stapi\AppData\Local\Temp\ccRSBokL.s:861    .text.wpabuf_printf:0000000000000000 .LBB126
C:\Users\stapi\AppData\Local\Temp\ccRSBokL.s:865    .text.wpabuf_printf:0000000000000000 .LBE126
C:\Users\stapi\AppData\Local\Temp\ccRSBokL.s:919    .text.wpabuf_printf:0000000000000044 .LBB128
C:\Users\stapi\AppData\Local\Temp\ccRSBokL.s:937    .text.wpabuf_printf:0000000000000060 .LBE128
C:\Users\stapi\AppData\Local\Temp\ccRSBokL.s:3417   .debug_loc:00000000000000eb .LLST42
C:\Users\stapi\AppData\Local\Temp\ccRSBokL.s:3428   .debug_loc:0000000000000109 .LLST43
C:\Users\stapi\AppData\Local\Temp\ccRSBokL.s:928    .text.wpabuf_printf:0000000000000058 .LVL99
C:\Users\stapi\AppData\Local\Temp\ccRSBokL.s:934    .text.wpabuf_printf:0000000000000060 .LVL100
C:\Users\stapi\AppData\Local\Temp\ccRSBokL.s:903    .text.wpabuf_printf:0000000000000032 .LVL95
C:\Users\stapi\AppData\Local\Temp\ccRSBokL.s:4176   .debug_str:00000000000004b4 .LASF26
C:\Users\stapi\AppData\Local\Temp\ccRSBokL.s:742    .text.wpabuf_zeropad:0000000000000000 .LFB81
C:\Users\stapi\AppData\Local\Temp\ccRSBokL.s:840    .text.wpabuf_zeropad:0000000000000062 .LFE81
C:\Users\stapi\AppData\Local\Temp\ccRSBokL.s:3435   .debug_loc:000000000000011c .LLST32
C:\Users\stapi\AppData\Local\Temp\ccRSBokL.s:3453   .debug_loc:0000000000000148 .LLST33
C:\Users\stapi\AppData\Local\Temp\ccRSBokL.s:3471   .debug_loc:0000000000000174 .LLST34
C:\Users\stapi\AppData\Local\Temp\ccRSBokL.s:4180   .debug_str:00000000000004d0 .LASF27
C:\Users\stapi\AppData\Local\Temp\ccRSBokL.s:3482   .debug_loc:0000000000000192 .LLST35
C:\Users\stapi\AppData\Local\Temp\ccRSBokL.s:760    .text.wpabuf_zeropad:000000000000000c .LBB106
C:\Users\stapi\AppData\Local\Temp\ccRSBokL.s:799    .text.wpabuf_zeropad:000000000000003e .LBB110
C:\Users\stapi\AppData\Local\Temp\ccRSBokL.s:820    .text.wpabuf_zeropad:000000000000004c .LBE110
C:\Users\stapi\AppData\Local\Temp\ccRSBokL.s:3489   .debug_loc:00000000000001a5 .LLST36
C:\Users\stapi\AppData\Local\Temp\ccRSBokL.s:3496   .debug_loc:00000000000001b8 .LLST37
C:\Users\stapi\AppData\Local\Temp\ccRSBokL.s:802    .text.wpabuf_zeropad:000000000000003e .LBB112
C:\Users\stapi\AppData\Local\Temp\ccRSBokL.s:806    .text.wpabuf_zeropad:000000000000003e .LBE112
C:\Users\stapi\AppData\Local\Temp\ccRSBokL.s:807    .text.wpabuf_zeropad:000000000000003e .LBB114
C:\Users\stapi\AppData\Local\Temp\ccRSBokL.s:811    .text.wpabuf_zeropad:000000000000003e .LBE114
C:\Users\stapi\AppData\Local\Temp\ccRSBokL.s:817    .text.wpabuf_zeropad:000000000000004c .LVL88
C:\Users\stapi\AppData\Local\Temp\ccRSBokL.s:782    .text.wpabuf_zeropad:0000000000000020 .LVL83
C:\Users\stapi\AppData\Local\Temp\ccRSBokL.s:793    .text.wpabuf_zeropad:0000000000000032 .LVL86
C:\Users\stapi\AppData\Local\Temp\ccRSBokL.s:797    .text.wpabuf_zeropad:000000000000003e .LVL87
C:\Users\stapi\AppData\Local\Temp\ccRSBokL.s:824    .text.wpabuf_zeropad:0000000000000056 .LVL89
C:\Users\stapi\AppData\Local\Temp\ccRSBokL.s:4074   .debug_str:00000000000000ee .LASF28
C:\Users\stapi\AppData\Local\Temp\ccRSBokL.s:609    .text.wpabuf_concat:0000000000000000 .LFB80
C:\Users\stapi\AppData\Local\Temp\ccRSBokL.s:735    .text.wpabuf_concat:0000000000000060 .LFE80
C:\Users\stapi\AppData\Local\Temp\ccRSBokL.s:3503   .debug_loc:00000000000001cb .LLST23
C:\Users\stapi\AppData\Local\Temp\ccRSBokL.s:3521   .debug_loc:00000000000001f7 .LLST24
C:\Users\stapi\AppData\Local\Temp\ccRSBokL.s:3539   .debug_loc:0000000000000223 .LLST25
C:\Users\stapi\AppData\Local\Temp\ccRSBokL.s:3555   .debug_loc:000000000000024d .LLST26
C:\Users\stapi\AppData\Local\Temp\ccRSBokL.s:635    .text.wpabuf_concat:0000000000000012 .LBB82
C:\Users\stapi\AppData\Local\Temp\ccRSBokL.s:643    .text.wpabuf_concat:0000000000000014 .LBE82
C:\Users\stapi\AppData\Local\Temp\ccRSBokL.s:3577   .debug_loc:000000000000027d .LLST27
C:\Users\stapi\AppData\Local\Temp\ccRSBokL.s:645    .text.wpabuf_concat:0000000000000014 .LBB84
C:\Users\stapi\AppData\Local\Temp\ccRSBokL.s:649    .text.wpabuf_concat:0000000000000014 .LBE84
C:\Users\stapi\AppData\Local\Temp\ccRSBokL.s:669    .text.wpabuf_concat:0000000000000026 .LBB86
C:\Users\stapi\AppData\Local\Temp\ccRSBokL.s:689    .text.wpabuf_concat:0000000000000032 .LBE86
C:\Users\stapi\AppData\Local\Temp\ccRSBokL.s:3584   .debug_loc:0000000000000290 .LLST28
C:\Users\stapi\AppData\Local\Temp\ccRSBokL.s:3591   .debug_loc:00000000000002a3 .LLST29
C:\Users\stapi\AppData\Local\Temp\ccRSBokL.s:672    .text.wpabuf_concat:0000000000000026 .LBB88
C:\Users\stapi\AppData\Local\Temp\ccRSBokL.s:676    .text.wpabuf_concat:0000000000000026 .LBE88
C:\Users\stapi\AppData\Local\Temp\ccRSBokL.s:677    .text.wpabuf_concat:0000000000000026 .LBB90
C:\Users\stapi\AppData\Local\Temp\ccRSBokL.s:681    .text.wpabuf_concat:0000000000000026 .LBE90
C:\Users\stapi\AppData\Local\Temp\ccRSBokL.s:686    .text.wpabuf_concat:0000000000000032 .LVL75
C:\Users\stapi\AppData\Local\Temp\ccRSBokL.s:691    .text.wpabuf_concat:0000000000000032 .LBB92
C:\Users\stapi\AppData\Local\Temp\ccRSBokL.s:712    .text.wpabuf_concat:0000000000000040 .LBE92
C:\Users\stapi\AppData\Local\Temp\ccRSBokL.s:3602   .debug_loc:00000000000002c1 .LLST30
C:\Users\stapi\AppData\Local\Temp\ccRSBokL.s:3609   .debug_loc:00000000000002d4 .LLST31
C:\Users\stapi\AppData\Local\Temp\ccRSBokL.s:694    .text.wpabuf_concat:0000000000000032 .LBB94
C:\Users\stapi\AppData\Local\Temp\ccRSBokL.s:698    .text.wpabuf_concat:0000000000000032 .LBE94
C:\Users\stapi\AppData\Local\Temp\ccRSBokL.s:699    .text.wpabuf_concat:0000000000000032 .LBB96
C:\Users\stapi\AppData\Local\Temp\ccRSBokL.s:703    .text.wpabuf_concat:0000000000000032 .LBE96
C:\Users\stapi\AppData\Local\Temp\ccRSBokL.s:709    .text.wpabuf_concat:0000000000000040 .LVL76
C:\Users\stapi\AppData\Local\Temp\ccRSBokL.s:658    .text.wpabuf_concat:0000000000000020 .LVL72
C:\Users\stapi\AppData\Local\Temp\ccRSBokL.s:716    .text.wpabuf_concat:000000000000004a .LVL77
C:\Users\stapi\AppData\Local\Temp\ccRSBokL.s:720    .text.wpabuf_concat:0000000000000054 .LVL78
C:\Users\stapi\AppData\Local\Temp\ccRSBokL.s:4084   .debug_str:000000000000012f .LASF29
C:\Users\stapi\AppData\Local\Temp\ccRSBokL.s:371    .text.wpabuf_put:0000000000000000 .LFB79
C:\Users\stapi\AppData\Local\Temp\ccRSBokL.s:440    .text.wpabuf_put:0000000000000038 .LFE79
C:\Users\stapi\AppData\Local\Temp\ccRSBokL.s:3616   .debug_loc:00000000000002e7 .LLST9
C:\Users\stapi\AppData\Local\Temp\ccRSBokL.s:3638   .debug_loc:000000000000031e .LLST10
C:\Users\stapi\AppData\Local\Temp\ccRSBokL.s:3660   .debug_loc:0000000000000355 .LLST11
C:\Users\stapi\AppData\Local\Temp\ccRSBokL.s:377    .text.wpabuf_put:0000000000000000 .LBB49
C:\Users\stapi\AppData\Local\Temp\ccRSBokL.s:383    .text.wpabuf_put:0000000000000000 .LBE49
C:\Users\stapi\AppData\Local\Temp\ccRSBokL.s:378    .text.wpabuf_put:0000000000000000 .LBB50
C:\Users\stapi\AppData\Local\Temp\ccRSBokL.s:382    .text.wpabuf_put:0000000000000000 .LBE50
C:\Users\stapi\AppData\Local\Temp\ccRSBokL.s:384    .text.wpabuf_put:0000000000000000 .LBB52
C:\Users\stapi\AppData\Local\Temp\ccRSBokL.s:391    .text.wpabuf_put:0000000000000002 .LBE52
C:\Users\stapi\AppData\Local\Temp\ccRSBokL.s:3671   .debug_loc:0000000000000373 .LLST12
C:\Users\stapi\AppData\Local\Temp\ccRSBokL.s:416    .text.wpabuf_put:000000000000001c .LBB54
C:\Users\stapi\AppData\Local\Temp\ccRSBokL.s:436    .text.wpabuf_put:0000000000000036 .LBE54
C:\Users\stapi\AppData\Local\Temp\ccRSBokL.s:3678   .debug_loc:0000000000000386 .LLST13
C:\Users\stapi\AppData\Local\Temp\ccRSBokL.s:3696   .debug_loc:00000000000003b2 .LLST14
C:\Users\stapi\AppData\Local\Temp\ccRSBokL.s:425    .text.wpabuf_put:000000000000002e .LVL44
C:\Users\stapi\AppData\Local\Temp\ccRSBokL.s:431    .text.wpabuf_put:0000000000000036 .LVL45
C:\Users\stapi\AppData\Local\Temp\ccRSBokL.s:4142   .debug_str:00000000000003df .LASF31
C:\Users\stapi\AppData\Local\Temp\ccRSBokL.s:313    .text.wpabuf_clear_free:0000000000000000 .LFB78
C:\Users\stapi\AppData\Local\Temp\ccRSBokL.s:360    .text.wpabuf_clear_free:000000000000002e .LFE78
C:\Users\stapi\AppData\Local\Temp\ccRSBokL.s:3710   .debug_loc:00000000000003d3 .LLST8
C:\Users\stapi\AppData\Local\Temp\ccRSBokL.s:330    .text.wpabuf_clear_free:000000000000000e .LBB38
C:\Users\stapi\AppData\Local\Temp\ccRSBokL.s:335    .text.wpabuf_clear_free:000000000000000e .LBE38
C:\Users\stapi\AppData\Local\Temp\ccRSBokL.s:336    .text.wpabuf_clear_free:000000000000000e .LBB40
C:\Users\stapi\AppData\Local\Temp\ccRSBokL.s:340    .text.wpabuf_clear_free:000000000000000e .LBE40
C:\Users\stapi\AppData\Local\Temp\ccRSBokL.s:346    .text.wpabuf_clear_free:000000000000001a .LVL34
C:\Users\stapi\AppData\Local\Temp\ccRSBokL.s:350    .text.wpabuf_clear_free:0000000000000024 .LVL35
C:\Users\stapi\AppData\Local\Temp\ccRSBokL.s:4122   .debug_str:0000000000000378 .LASF32
C:\Users\stapi\AppData\Local\Temp\ccRSBokL.s:267    .text.wpabuf_free:0000000000000000 .LFB77
C:\Users\stapi\AppData\Local\Temp\ccRSBokL.s:306    .text.wpabuf_free:0000000000000030 .LFE77
C:\Users\stapi\AppData\Local\Temp\ccRSBokL.s:3725   .debug_loc:00000000000003fc .LLST7
C:\Users\stapi\AppData\Local\Temp\ccRSBokL.s:291    .text.wpabuf_free:000000000000001c .LVL28
C:\Users\stapi\AppData\Local\Temp\ccRSBokL.s:296    .text.wpabuf_free:0000000000000026 .LVL29
C:\Users\stapi\AppData\Local\Temp\ccRSBokL.s:4090   .debug_str:00000000000001ce .LASF33
C:\Users\stapi\AppData\Local\Temp\ccRSBokL.s:547    .text.wpabuf_dup:0000000000000000 .LFB76
C:\Users\stapi\AppData\Local\Temp\ccRSBokL.s:602    .text.wpabuf_dup:000000000000002e .LFE76
C:\Users\stapi\AppData\Local\Temp\ccRSBokL.s:3740   .debug_loc:0000000000000425 .LLST22
C:\Users\stapi\AppData\Local\Temp\ccRSBokL.s:558    .text.wpabuf_dup:0000000000000008 .LBB60
C:\Users\stapi\AppData\Local\Temp\ccRSBokL.s:562    .text.wpabuf_dup:0000000000000008 .LBE60
C:\Users\stapi\AppData\Local\Temp\ccRSBokL.s:577    .text.wpabuf_dup:0000000000000018 .LBB62
C:\Users\stapi\AppData\Local\Temp\ccRSBokL.s:581    .text.wpabuf_dup:0000000000000018 .LBE62
C:\Users\stapi\AppData\Local\Temp\ccRSBokL.s:582    .text.wpabuf_dup:0000000000000018 .LBB64
C:\Users\stapi\AppData\Local\Temp\ccRSBokL.s:586    .text.wpabuf_dup:0000000000000018 .LBE64
C:\Users\stapi\AppData\Local\Temp\ccRSBokL.s:569    .text.wpabuf_dup:0000000000000014 .LVL62
C:\Users\stapi\AppData\Local\Temp\ccRSBokL.s:591    .text.wpabuf_dup:0000000000000024 .LVL65
C:\Users\stapi\AppData\Local\Temp\ccRSBokL.s:4092   .debug_str:00000000000001d9 .LASF34
C:\Users\stapi\AppData\Local\Temp\ccRSBokL.s:496    .text.wpabuf_alloc_copy:0000000000000000 .LFB75
C:\Users\stapi\AppData\Local\Temp\ccRSBokL.s:540    .text.wpabuf_alloc_copy:0000000000000034 .LFE75
C:\Users\stapi\AppData\Local\Temp\ccRSBokL.s:4076   .debug_str:00000000000000fc .LASF35
C:\Users\stapi\AppData\Local\Temp\ccRSBokL.s:3751   .debug_loc:0000000000000443 .LLST20
C:\Users\stapi\AppData\Local\Temp\ccRSBokL.s:3762   .debug_loc:0000000000000461 .LLST21
C:\Users\stapi\AppData\Local\Temp\ccRSBokL.s:516    .text.wpabuf_alloc_copy:0000000000000018 .LVL55
C:\Users\stapi\AppData\Local\Temp\ccRSBokL.s:526    .text.wpabuf_alloc_copy:0000000000000028 .LVL57
C:\Users\stapi\AppData\Local\Temp\ccRSBokL.s:4082   .debug_str:0000000000000119 .LASF36
C:\Users\stapi\AppData\Local\Temp\ccRSBokL.s:212    .text.wpabuf_alloc_ext_data:0000000000000000 .LFB74
C:\Users\stapi\AppData\Local\Temp\ccRSBokL.s:260    .text.wpabuf_alloc_ext_data:000000000000002e .LFE74
C:\Users\stapi\AppData\Local\Temp\ccRSBokL.s:3779   .debug_loc:000000000000048c .LLST5
C:\Users\stapi\AppData\Local\Temp\ccRSBokL.s:3790   .debug_loc:00000000000004aa .LLST6
C:\Users\stapi\AppData\Local\Temp\ccRSBokL.s:231    .text.wpabuf_alloc_ext_data:0000000000000016 .LVL25
C:\Users\stapi\AppData\Local\Temp\ccRSBokL.s:4114   .debug_str:000000000000034c .LASF37
C:\Users\stapi\AppData\Local\Temp\ccRSBokL.s:14     .text.wpabuf_alloc:0000000000000000 .LFB73
C:\Users\stapi\AppData\Local\Temp\ccRSBokL.s:50     .text.wpabuf_alloc:0000000000000026 .LFE73
C:\Users\stapi\AppData\Local\Temp\ccRSBokL.s:3801   .debug_loc:00000000000004c8 .LLST0
C:\Users\stapi\AppData\Local\Temp\ccRSBokL.s:30     .text.wpabuf_alloc:0000000000000014 .LVL2
C:\Users\stapi\AppData\Local\Temp\ccRSBokL.s:4164   .debug_str:000000000000046e .LASF38
C:\Users\stapi\AppData\Local\Temp\ccRSBokL.s:57     .text.wpabuf_resize:0000000000000000 .LFB72
C:\Users\stapi\AppData\Local\Temp\ccRSBokL.s:205    .text.wpabuf_resize:000000000000009e .LFE72
C:\Users\stapi\AppData\Local\Temp\ccRSBokL.s:4144   .debug_str:00000000000003f1 .LASF39
C:\Users\stapi\AppData\Local\Temp\ccRSBokL.s:3812   .debug_loc:00000000000004e6 .LLST1
C:\Users\stapi\AppData\Local\Temp\ccRSBokL.s:4130   .debug_str:000000000000039e .LASF40
C:\Users\stapi\AppData\Local\Temp\ccRSBokL.s:3849   .debug_loc:0000000000000541 .LLST2
C:\Users\stapi\AppData\Local\Temp\ccRSBokL.s:3860   .debug_loc:000000000000055f .LLST3
C:\Users\stapi\AppData\Local\Temp\ccRSBokL.s:4118   .debug_str:0000000000000365 .LASF41
C:\Users\stapi\AppData\Local\Temp\ccRSBokL.s:3879   .debug_loc:0000000000000593 .LLST4
C:\Users\stapi\AppData\Local\Temp\ccRSBokL.s:126    .text.wpabuf_resize:000000000000004a .LVL10
C:\Users\stapi\AppData\Local\Temp\ccRSBokL.s:149    .text.wpabuf_resize:0000000000000062 .LVL16
C:\Users\stapi\AppData\Local\Temp\ccRSBokL.s:174    .text.wpabuf_resize:000000000000007c .LVL19
C:\Users\stapi\AppData\Local\Temp\ccRSBokL.s:193    .text.wpabuf_resize:0000000000000092 .LVL22
C:\Users\stapi\AppData\Local\Temp\ccRSBokL.s:82     .text.wpabuf_resize:000000000000001a .LVL6
C:\Users\stapi\AppData\Local\Temp\ccRSBokL.s:4070   .debug_str:00000000000000d2 .LASF42
C:\Users\stapi\AppData\Local\Temp\ccRSBokL.s:4170   .debug_str:000000000000048c .LASF43
C:\Users\stapi\AppData\Local\Temp\ccRSBokL.s:4078   .debug_str:0000000000000101 .LASF44
C:\Users\stapi\AppData\Local\Temp\ccRSBokL.s:4158   .debug_str:000000000000043a .LASF45
C:\Users\stapi\AppData\Local\Temp\ccRSBokL.s:4112   .debug_str:000000000000033f .LASF46
C:\Users\stapi\AppData\Local\Temp\ccRSBokL.s:4116   .debug_str:0000000000000359 .LASF47
C:\Users\stapi\AppData\Local\Temp\ccRSBokL.s:4060   .debug_str:0000000000000016 .LASF48
C:\Users\stapi\AppData\Local\Temp\ccRSBokL.s:446    .text.wpabuf_put_data:0000000000000000 .LFB61
C:\Users\stapi\AppData\Local\Temp\ccRSBokL.s:489    .text.wpabuf_put_data:0000000000000032 .LFE61
C:\Users\stapi\AppData\Local\Temp\ccRSBokL.s:3898   .debug_loc:00000000000005c7 .LLST15
C:\Users\stapi\AppData\Local\Temp\ccRSBokL.s:3916   .debug_loc:00000000000005f3 .LLST16
C:\Users\stapi\AppData\Local\Temp\ccRSBokL.s:3931   .debug_loc:000000000000061c .LLST17
C:\Users\stapi\AppData\Local\Temp\ccRSBokL.s:462    .text.wpabuf_put_data:000000000000000e .LBB58
C:\Users\stapi\AppData\Local\Temp\ccRSBokL.s:475    .text.wpabuf_put_data:0000000000000026 .LBE58
C:\Users\stapi\AppData\Local\Temp\ccRSBokL.s:3952   .debug_loc:0000000000000652 .LLST18
C:\Users\stapi\AppData\Local\Temp\ccRSBokL.s:3964   .debug_loc:0000000000000671 .LLST19
C:\Users\stapi\AppData\Local\Temp\ccRSBokL.s:469    .text.wpabuf_put_data:000000000000001a .LVL49
C:\Users\stapi\AppData\Local\Temp\ccRSBokL.s:473    .text.wpabuf_put_data:0000000000000026 .LVL50
C:\Users\stapi\AppData\Local\Temp\ccRSBokL.s:4056   .debug_str:0000000000000000 .LASF49
C:\Users\stapi\AppData\Local\Temp\ccRSBokL.s:4138   .debug_str:00000000000003cf .LASF50
C:\Users\stapi\AppData\Local\Temp\ccRSBokL.s:4182   .debug_str:00000000000004d5 .LASF51
C:\Users\stapi\AppData\Local\Temp\ccRSBokL.s:4124   .debug_str:0000000000000384 .LASF52
C:\Users\stapi\AppData\Local\Temp\ccRSBokL.s:4154   .debug_str:000000000000041e .LASF53
C:\Users\stapi\AppData\Local\Temp\ccRSBokL.s:4128   .debug_str:0000000000000394 .LASF54
C:\Users\stapi\AppData\Local\Temp\ccRSBokL.s:4106   .debug_str:0000000000000324 .LASF55
C:\Users\stapi\AppData\Local\Temp\ccRSBokL.s:4172   .debug_str:000000000000049b .LASF56
C:\Users\stapi\AppData\Local\Temp\ccRSBokL.s:4166   .debug_str:000000000000047c .LASF57
C:\Users\stapi\AppData\Local\Temp\ccRSBokL.s:4126   .debug_str:000000000000038a .LASF58
C:\Users\stapi\AppData\Local\Temp\ccRSBokL.s:964    .text.wpabuf_parse_bin:0000000000000000 .LVL102
C:\Users\stapi\AppData\Local\Temp\ccRSBokL.s:984    .text.wpabuf_parse_bin:0000000000000018 .LVL104
C:\Users\stapi\AppData\Local\Temp\ccRSBokL.s:999    .text.wpabuf_parse_bin:0000000000000024 .LVL105
C:\Users\stapi\AppData\Local\Temp\ccRSBokL.s:1005   .text.wpabuf_parse_bin:0000000000000028 .LVL106
C:\Users\stapi\AppData\Local\Temp\ccRSBokL.s:850    .text.wpabuf_printf:0000000000000000 .LVL91
C:\Users\stapi\AppData\Local\Temp\ccRSBokL.s:881    .text.wpabuf_printf:0000000000000016 .LVL92
C:\Users\stapi\AppData\Local\Temp\ccRSBokL.s:949    .text.wpabuf_printf:000000000000006a .LVL101
C:\Users\stapi\AppData\Local\Temp\ccRSBokL.s:893    .text.wpabuf_printf:0000000000000024 .LVL94
C:\Users\stapi\AppData\Local\Temp\ccRSBokL.s:891    .text.wpabuf_printf:0000000000000020 .LVL93
C:\Users\stapi\AppData\Local\Temp\ccRSBokL.s:907    .text.wpabuf_printf:0000000000000038 .LVL96
C:\Users\stapi\AppData\Local\Temp\ccRSBokL.s:926    .text.wpabuf_printf:0000000000000050 .LVL98
C:\Users\stapi\AppData\Local\Temp\ccRSBokL.s:918    .text.wpabuf_printf:0000000000000044 .LVL97
C:\Users\stapi\AppData\Local\Temp\ccRSBokL.s:745    .text.wpabuf_zeropad:0000000000000000 .LVL80
C:\Users\stapi\AppData\Local\Temp\ccRSBokL.s:780    .text.wpabuf_zeropad:0000000000000018 .LVL82
C:\Users\stapi\AppData\Local\Temp\ccRSBokL.s:828    .text.wpabuf_zeropad:0000000000000058 .LVL90
C:\Users\stapi\AppData\Local\Temp\ccRSBokL.s:790    .text.wpabuf_zeropad:0000000000000028 .LVL85
C:\Users\stapi\AppData\Local\Temp\ccRSBokL.s:784    .text.wpabuf_zeropad:0000000000000022 .LVL84
C:\Users\stapi\AppData\Local\Temp\ccRSBokL.s:768    .text.wpabuf_zeropad:0000000000000012 .LVL81
C:\Users\stapi\AppData\Local\Temp\ccRSBokL.s:612    .text.wpabuf_concat:0000000000000000 .LVL66
C:\Users\stapi\AppData\Local\Temp\ccRSBokL.s:653    .text.wpabuf_concat:0000000000000016 .LVL70
C:\Users\stapi\AppData\Local\Temp\ccRSBokL.s:724    .text.wpabuf_concat:0000000000000056 .LVL79
C:\Users\stapi\AppData\Local\Temp\ccRSBokL.s:620    .text.wpabuf_concat:0000000000000008 .LVL67
C:\Users\stapi\AppData\Local\Temp\ccRSBokL.s:660    .text.wpabuf_concat:0000000000000022 .LVL73
C:\Users\stapi\AppData\Local\Temp\ccRSBokL.s:640    .text.wpabuf_concat:0000000000000014 .LVL69
C:\Users\stapi\AppData\Local\Temp\ccRSBokL.s:656    .text.wpabuf_concat:0000000000000018 .LVL71
C:\Users\stapi\AppData\Local\Temp\ccRSBokL.s:634    .text.wpabuf_concat:0000000000000012 .LVL68
C:\Users\stapi\AppData\Local\Temp\ccRSBokL.s:668    .text.wpabuf_concat:0000000000000026 .LVL74
C:\Users\stapi\AppData\Local\Temp\ccRSBokL.s:374    .text.wpabuf_put:0000000000000000 .LVL37
C:\Users\stapi\AppData\Local\Temp\ccRSBokL.s:396    .text.wpabuf_put:0000000000000006 .LVL39
C:\Users\stapi\AppData\Local\Temp\ccRSBokL.s:420    .text.wpabuf_put:0000000000000020 .LVL42
C:\Users\stapi\AppData\Local\Temp\ccRSBokL.s:401    .text.wpabuf_put:000000000000000a .LVL40
C:\Users\stapi\AppData\Local\Temp\ccRSBokL.s:423    .text.wpabuf_put:0000000000000026 .LVL43
C:\Users\stapi\AppData\Local\Temp\ccRSBokL.s:389    .text.wpabuf_put:0000000000000002 .LVL38
C:\Users\stapi\AppData\Local\Temp\ccRSBokL.s:415    .text.wpabuf_put:000000000000001c .LVL41
C:\Users\stapi\AppData\Local\Temp\ccRSBokL.s:316    .text.wpabuf_clear_free:0000000000000000 .LVL31
C:\Users\stapi\AppData\Local\Temp\ccRSBokL.s:343    .text.wpabuf_clear_free:0000000000000010 .LVL33
C:\Users\stapi\AppData\Local\Temp\ccRSBokL.s:356    .text.wpabuf_clear_free:000000000000002c .LVL36
C:\Users\stapi\AppData\Local\Temp\ccRSBokL.s:270    .text.wpabuf_free:0000000000000000 .LVL26
C:\Users\stapi\AppData\Local\Temp\ccRSBokL.s:289    .text.wpabuf_free:0000000000000014 .LVL27
C:\Users\stapi\AppData\Local\Temp\ccRSBokL.s:302    .text.wpabuf_free:000000000000002e .LVL30
C:\Users\stapi\AppData\Local\Temp\ccRSBokL.s:550    .text.wpabuf_dup:0000000000000000 .LVL59
C:\Users\stapi\AppData\Local\Temp\ccRSBokL.s:567    .text.wpabuf_dup:000000000000000c .LVL61
C:\Users\stapi\AppData\Local\Temp\ccRSBokL.s:499    .text.wpabuf_alloc_copy:0000000000000000 .LVL53
C:\Users\stapi\AppData\Local\Temp\ccRSBokL.s:513    .text.wpabuf_alloc_copy:000000000000000e .LVL54
C:\Users\stapi\AppData\Local\Temp\ccRSBokL.s:533    .text.wpabuf_alloc_copy:000000000000002c .LVL58
C:\Users\stapi\AppData\Local\Temp\ccRSBokL.s:215    .text.wpabuf_alloc_ext_data:0000000000000000 .LVL23
C:\Users\stapi\AppData\Local\Temp\ccRSBokL.s:226    .text.wpabuf_alloc_ext_data:000000000000000c .LVL24
C:\Users\stapi\AppData\Local\Temp\ccRSBokL.s:18     .text.wpabuf_alloc:0000000000000000 .LVL0
C:\Users\stapi\AppData\Local\Temp\ccRSBokL.s:28     .text.wpabuf_alloc:000000000000000c .LVL1
C:\Users\stapi\AppData\Local\Temp\ccRSBokL.s:60     .text.wpabuf_resize:0000000000000000 .LVL3
C:\Users\stapi\AppData\Local\Temp\ccRSBokL.s:80     .text.wpabuf_resize:0000000000000012 .LVL5
C:\Users\stapi\AppData\Local\Temp\ccRSBokL.s:89     .text.wpabuf_resize:0000000000000026 .LVL7
C:\Users\stapi\AppData\Local\Temp\ccRSBokL.s:99     .text.wpabuf_resize:000000000000002e .LVL8
C:\Users\stapi\AppData\Local\Temp\ccRSBokL.s:109    .text.wpabuf_resize:0000000000000034 .LVL9
C:\Users\stapi\AppData\Local\Temp\ccRSBokL.s:128    .text.wpabuf_resize:000000000000004c .LVL11
C:\Users\stapi\AppData\Local\Temp\ccRSBokL.s:167    .text.wpabuf_resize:0000000000000070 .LVL18
C:\Users\stapi\AppData\Local\Temp\ccRSBokL.s:70     .text.wpabuf_resize:000000000000000a .LVL4
C:\Users\stapi\AppData\Local\Temp\ccRSBokL.s:132    .text.wpabuf_resize:000000000000004e .LVL12
C:\Users\stapi\AppData\Local\Temp\ccRSBokL.s:138    .text.wpabuf_resize:0000000000000052 .LVL14
C:\Users\stapi\AppData\Local\Temp\ccRSBokL.s:176    .text.wpabuf_resize:000000000000007e .LVL20
C:\Users\stapi\AppData\Local\Temp\ccRSBokL.s:181    .text.wpabuf_resize:0000000000000080 .LVL21
C:\Users\stapi\AppData\Local\Temp\ccRSBokL.s:136    .text.wpabuf_resize:0000000000000050 .LVL13
C:\Users\stapi\AppData\Local\Temp\ccRSBokL.s:143    .text.wpabuf_resize:0000000000000054 .LVL15
C:\Users\stapi\AppData\Local\Temp\ccRSBokL.s:153    .text.wpabuf_resize:0000000000000066 .LVL17
C:\Users\stapi\AppData\Local\Temp\ccRSBokL.s:449    .text.wpabuf_put_data:0000000000000000 .LVL46
C:\Users\stapi\AppData\Local\Temp\ccRSBokL.s:484    .text.wpabuf_put_data:0000000000000030 .LVL52
C:\Users\stapi\AppData\Local\Temp\ccRSBokL.s:466    .text.wpabuf_put_data:0000000000000010 .LVL48
C:\Users\stapi\AppData\Local\Temp\ccRSBokL.s:479    .text.wpabuf_put_data:0000000000000028 .LVL51
C:\Users\stapi\AppData\Local\Temp\ccRSBokL.s:461    .text.wpabuf_put_data:000000000000000e .LVL47
C:\Users\stapi\AppData\Local\Temp\ccRSBokL.s:1049   .debug_info:0000000000000000 .Ldebug_info0
C:\Users\stapi\AppData\Local\Temp\ccRSBokL.s:114    .text.wpabuf_resize:000000000000003a .LBB36
C:\Users\stapi\AppData\Local\Temp\ccRSBokL.s:158    .text.wpabuf_resize:0000000000000068 .LBE36
C:\Users\stapi\AppData\Local\Temp\ccRSBokL.s:161    .text.wpabuf_resize:000000000000006a .LBB37
C:\Users\stapi\AppData\Local\Temp\ccRSBokL.s:203    .text.wpabuf_resize:000000000000009e .LBE37
C:\Users\stapi\AppData\Local\Temp\ccRSBokL.s:766    .text.wpabuf_zeropad:0000000000000012 .LBE106
C:\Users\stapi\AppData\Local\Temp\ccRSBokL.s:769    .text.wpabuf_zeropad:0000000000000012 .LBB109
C:\Users\stapi\AppData\Local\Temp\ccRSBokL.s:773    .text.wpabuf_zeropad:0000000000000012 .LBE109

UNDEFINED SYMBOLS
__riscv_save_1
os_zalloc
__riscv_restore_1
__riscv_save_3
__riscv_restore_3
os_realloc
os_memset
__riscv_save_2
__riscv_restore_2
os_free
__riscv_save_0
wpa_printf
abort
os_memcpy
__riscv_save_4
__riscv_restore_4
dbg_vsnprintf_offset
os_strlen
hexstr2bin
